


Disassembly of section .text:

00000000000080a0 <_start>:
    80a0:	f3 0f 1e fa          	endbr64 
    80a4:	31 ed                	xor    %ebp,%ebp
    80a6:	49 89 d1             	mov    %rdx,%r9
    80a9:	5e                   	pop    %rsi
    80aa:	48 89 e2             	mov    %rsp,%rdx
    80ad:	48 83 e4 f0          	and    $0xfffffffffffffff0,%rsp
    80b1:	50                   	push   %rax
    80b2:	54                   	push   %rsp
    80b3:	4c 8d 05 d6 0a 01 00 	lea    0x10ad6(%rip),%r8        # 18b90 <__libc_csu_fini>
    80ba:	48 8d 0d 5f 0a 01 00 	lea    0x10a5f(%rip),%rcx        # 18b20 <__libc_csu_init>
    80c1:	48 8d 3d 5a 00 01 00 	lea    0x1005a(%rip),%rdi        # 18122 <main>
    80c8:	ff 15 12 4f 01 00    	callq  *0x14f12(%rip)        # 1cfe0 <__libc_start_main@GLIBC_2.2.5>
    80ce:	f4                   	hlt    
    80cf:	90                   	nop

00000000000080d0 <deregister_tm_clones>:
    80d0:	48 8d 3d b1 8a 01 00 	lea    0x18ab1(%rip),%rdi        # 20b88 <__TMC_END__>
    80d7:	48 8d 05 aa 8a 01 00 	lea    0x18aaa(%rip),%rax        # 20b88 <__TMC_END__>
    80de:	48 39 f8             	cmp    %rdi,%rax
    80e1:	74 15                	je     80f8 <deregister_tm_clones+0x28>
    80e3:	48 8b 05 ee 4e 01 00 	mov    0x14eee(%rip),%rax        # 1cfd8 <_ITM_deregisterTMCloneTable>
    80ea:	48 85 c0             	test   %rax,%rax
    80ed:	74 09                	je     80f8 <deregister_tm_clones+0x28>
    80ef:	ff e0                	jmpq   *%rax
    80f1:	0f 1f 80 00 00 00 00 	nopl   0x0(%rax)
    80f8:	c3                   	retq   
    80f9:	0f 1f 80 00 00 00 00 	nopl   0x0(%rax)

0000000000008100 <register_tm_clones>:
    8100:	48 8d 3d 81 8a 01 00 	lea    0x18a81(%rip),%rdi        # 20b88 <__TMC_END__>
    8107:	48 8d 35 7a 8a 01 00 	lea    0x18a7a(%rip),%rsi        # 20b88 <__TMC_END__>
    810e:	48 29 fe             	sub    %rdi,%rsi
    8111:	48 89 f0             	mov    %rsi,%rax
    8114:	48 c1 ee 3f          	shr    $0x3f,%rsi
    8118:	48 c1 f8 03          	sar    $0x3,%rax
    811c:	48 01 c6             	add    %rax,%rsi
    811f:	48 d1 fe             	sar    %rsi
    8122:	74 14                	je     8138 <register_tm_clones+0x38>
    8124:	48 8b 05 c5 4e 01 00 	mov    0x14ec5(%rip),%rax        # 1cff0 <_ITM_registerTMCloneTable>
    812b:	48 85 c0             	test   %rax,%rax
    812e:	74 08                	je     8138 <register_tm_clones+0x38>
    8130:	ff e0                	jmpq   *%rax
    8132:	66 0f 1f 44 00 00    	nopw   0x0(%rax,%rax,1)
    8138:	c3                   	retq   
    8139:	0f 1f 80 00 00 00 00 	nopl   0x0(%rax)

0000000000008140 <__do_global_dtors_aux>:
    8140:	f3 0f 1e fa          	endbr64 
    8144:	80 3d 55 8a 01 00 00 	cmpb   $0x0,0x18a55(%rip)        # 20ba0 <completed.8061>
    814b:	75 2b                	jne    8178 <__do_global_dtors_aux+0x38>
    814d:	55                   	push   %rbp
    814e:	48 83 3d a2 4e 01 00 	cmpq   $0x0,0x14ea2(%rip)        # 1cff8 <__cxa_finalize@GLIBC_2.2.5>
    8155:	00 
    8156:	48 89 e5             	mov    %rsp,%rbp
    8159:	74 0c                	je     8167 <__do_global_dtors_aux+0x27>
    815b:	48 8b 3d a6 4e 01 00 	mov    0x14ea6(%rip),%rdi        # 1d008 <__dso_handle>
    8162:	e8 f9 fe ff ff       	callq  8060 <__cxa_finalize@plt>
    8167:	e8 64 ff ff ff       	callq  80d0 <deregister_tm_clones>
    816c:	c6 05 2d 8a 01 00 01 	movb   $0x1,0x18a2d(%rip)        # 20ba0 <completed.8061>
    8173:	5d                   	pop    %rbp
    8174:	c3                   	retq   
    8175:	0f 1f 00             	nopl   (%rax)
    8178:	c3                   	retq   
    8179:	0f 1f 80 00 00 00 00 	nopl   0x0(%rax)

0000000000008180 <frame_dummy>:
    8180:	f3 0f 1e fa          	endbr64 
    8184:	e9 77 ff ff ff       	jmpq   8100 <register_tm_clones>

0000000000008189 <platform_main_begin>:
    8189:	f3 0f 1e fa          	endbr64 
    818d:	55                   	push   %rbp
    818e:	48 89 e5             	mov    %rsp,%rbp
    8191:	90                   	nop
    8192:	5d                   	pop    %rbp
    8193:	c3                   	retq   

0000000000008194 <platform_main_end>:
    8194:	f3 0f 1e fa          	endbr64 
    8198:	55                   	push   %rbp
    8199:	48 89 e5             	mov    %rsp,%rbp
    819c:	48 83 ec 10          	sub    $0x10,%rsp
    81a0:	89 7d fc             	mov    %edi,-0x4(%rbp)
    81a3:	89 75 f8             	mov    %esi,-0x8(%rbp)
    81a6:	8b 45 fc             	mov    -0x4(%rbp),%eax
    81a9:	89 c6                	mov    %eax,%esi
    81ab:	48 8d 3d 6e 0e 01 00 	lea    0x10e6e(%rip),%rdi        # 19020 <_IO_stdin_used+0x20>
    81b2:	b8 00 00 00 00       	mov    $0x0,%eax
    81b7:	e8 c4 fe ff ff       	callq  8080 <printf@plt>
    81bc:	90                   	nop
    81bd:	c9                   	leaveq 
    81be:	c3                   	retq   

00000000000081bf <safe_unary_minus_func_int8_t_s>:
    81bf:	f3 0f 1e fa          	endbr64 
    81c3:	55                   	push   %rbp
    81c4:	48 89 e5             	mov    %rsp,%rbp
    81c7:	89 f8                	mov    %edi,%eax
    81c9:	88 45 fc             	mov    %al,-0x4(%rbp)
    81cc:	0f b6 45 fc          	movzbl -0x4(%rbp),%eax
    81d0:	f7 d8                	neg    %eax
    81d2:	5d                   	pop    %rbp
    81d3:	c3                   	retq   

00000000000081d4 <safe_add_func_int8_t_s_s>:
    81d4:	f3 0f 1e fa          	endbr64 
    81d8:	55                   	push   %rbp
    81d9:	48 89 e5             	mov    %rsp,%rbp
    81dc:	89 fa                	mov    %edi,%edx
    81de:	89 f0                	mov    %esi,%eax
    81e0:	88 55 fc             	mov    %dl,-0x4(%rbp)
    81e3:	88 45 f8             	mov    %al,-0x8(%rbp)
    81e6:	0f b6 55 fc          	movzbl -0x4(%rbp),%edx
    81ea:	0f b6 45 f8          	movzbl -0x8(%rbp),%eax
    81ee:	01 d0                	add    %edx,%eax
    81f0:	5d                   	pop    %rbp
    81f1:	c3                   	retq   

00000000000081f2 <safe_sub_func_int8_t_s_s>:
    81f2:	f3 0f 1e fa          	endbr64 
    81f6:	55                   	push   %rbp
    81f7:	48 89 e5             	mov    %rsp,%rbp
    81fa:	89 fa                	mov    %edi,%edx
    81fc:	89 f0                	mov    %esi,%eax
    81fe:	88 55 fc             	mov    %dl,-0x4(%rbp)
    8201:	88 45 f8             	mov    %al,-0x8(%rbp)
    8204:	0f b6 55 fc          	movzbl -0x4(%rbp),%edx
    8208:	0f b6 45 f8          	movzbl -0x8(%rbp),%eax
    820c:	29 c2                	sub    %eax,%edx
    820e:	89 d0                	mov    %edx,%eax
    8210:	5d                   	pop    %rbp
    8211:	c3                   	retq   

0000000000008212 <safe_mul_func_int8_t_s_s>:
    8212:	f3 0f 1e fa          	endbr64 
    8216:	55                   	push   %rbp
    8217:	48 89 e5             	mov    %rsp,%rbp
    821a:	89 fa                	mov    %edi,%edx
    821c:	89 f0                	mov    %esi,%eax
    821e:	88 55 fc             	mov    %dl,-0x4(%rbp)
    8221:	88 45 f8             	mov    %al,-0x8(%rbp)
    8224:	0f b6 45 fc          	movzbl -0x4(%rbp),%eax
    8228:	0f b6 55 f8          	movzbl -0x8(%rbp),%edx
    822c:	0f af c2             	imul   %edx,%eax
    822f:	5d                   	pop    %rbp
    8230:	c3                   	retq   

0000000000008231 <safe_mod_func_int8_t_s_s>:
    8231:	f3 0f 1e fa          	endbr64 
    8235:	55                   	push   %rbp
    8236:	48 89 e5             	mov    %rsp,%rbp
    8239:	89 fa                	mov    %edi,%edx
    823b:	89 f0                	mov    %esi,%eax
    823d:	88 55 fc             	mov    %dl,-0x4(%rbp)
    8240:	88 45 f8             	mov    %al,-0x8(%rbp)
    8243:	80 7d f8 00          	cmpb   $0x0,-0x8(%rbp)
    8247:	74 1b                	je     8264 <safe_mod_func_int8_t_s_s+0x33>
    8249:	80 7d fc 80          	cmpb   $0x80,-0x4(%rbp)
    824d:	75 06                	jne    8255 <safe_mod_func_int8_t_s_s+0x24>
    824f:	80 7d f8 ff          	cmpb   $0xff,-0x8(%rbp)
    8253:	74 0f                	je     8264 <safe_mod_func_int8_t_s_s+0x33>
    8255:	0f be 45 fc          	movsbl -0x4(%rbp),%eax
    8259:	0f be 4d f8          	movsbl -0x8(%rbp),%ecx
    825d:	99                   	cltd   
    825e:	f7 f9                	idiv   %ecx
    8260:	89 d0                	mov    %edx,%eax
    8262:	eb 04                	jmp    8268 <safe_mod_func_int8_t_s_s+0x37>
    8264:	0f b6 45 fc          	movzbl -0x4(%rbp),%eax
    8268:	5d                   	pop    %rbp
    8269:	c3                   	retq   

000000000000826a <safe_div_func_int8_t_s_s>:
    826a:	f3 0f 1e fa          	endbr64 
    826e:	55                   	push   %rbp
    826f:	48 89 e5             	mov    %rsp,%rbp
    8272:	89 fa                	mov    %edi,%edx
    8274:	89 f0                	mov    %esi,%eax
    8276:	88 55 fc             	mov    %dl,-0x4(%rbp)
    8279:	88 45 f8             	mov    %al,-0x8(%rbp)
    827c:	80 7d f8 00          	cmpb   $0x0,-0x8(%rbp)
    8280:	74 19                	je     829b <safe_div_func_int8_t_s_s+0x31>
    8282:	80 7d fc 80          	cmpb   $0x80,-0x4(%rbp)
    8286:	75 06                	jne    828e <safe_div_func_int8_t_s_s+0x24>
    8288:	80 7d f8 ff          	cmpb   $0xff,-0x8(%rbp)
    828c:	74 0d                	je     829b <safe_div_func_int8_t_s_s+0x31>
    828e:	0f be 45 fc          	movsbl -0x4(%rbp),%eax
    8292:	0f be 4d f8          	movsbl -0x8(%rbp),%ecx
    8296:	99                   	cltd   
    8297:	f7 f9                	idiv   %ecx
    8299:	eb 04                	jmp    829f <safe_div_func_int8_t_s_s+0x35>
    829b:	0f b6 45 fc          	movzbl -0x4(%rbp),%eax
    829f:	5d                   	pop    %rbp
    82a0:	c3                   	retq   

00000000000082a1 <safe_lshift_func_int8_t_s_s>:
    82a1:	f3 0f 1e fa          	endbr64 
    82a5:	55                   	push   %rbp
    82a6:	48 89 e5             	mov    %rsp,%rbp
    82a9:	89 f8                	mov    %edi,%eax
    82ab:	89 75 f8             	mov    %esi,-0x8(%rbp)
    82ae:	88 45 fc             	mov    %al,-0x4(%rbp)
    82b1:	80 7d fc 00          	cmpb   $0x0,-0x4(%rbp)
    82b5:	78 31                	js     82e8 <safe_lshift_func_int8_t_s_s+0x47>
    82b7:	83 7d f8 00          	cmpl   $0x0,-0x8(%rbp)
    82bb:	78 2b                	js     82e8 <safe_lshift_func_int8_t_s_s+0x47>
    82bd:	83 7d f8 1f          	cmpl   $0x1f,-0x8(%rbp)
    82c1:	7f 25                	jg     82e8 <safe_lshift_func_int8_t_s_s+0x47>
    82c3:	0f be 55 fc          	movsbl -0x4(%rbp),%edx
    82c7:	8b 45 f8             	mov    -0x8(%rbp),%eax
    82ca:	be 7f 00 00 00       	mov    $0x7f,%esi
    82cf:	89 c1                	mov    %eax,%ecx
    82d1:	d3 fe                	sar    %cl,%esi
    82d3:	89 f0                	mov    %esi,%eax
    82d5:	39 c2                	cmp    %eax,%edx
    82d7:	7f 0f                	jg     82e8 <safe_lshift_func_int8_t_s_s+0x47>
    82d9:	0f be 55 fc          	movsbl -0x4(%rbp),%edx
    82dd:	8b 45 f8             	mov    -0x8(%rbp),%eax
    82e0:	89 c1                	mov    %eax,%ecx
    82e2:	d3 e2                	shl    %cl,%edx
    82e4:	89 d0                	mov    %edx,%eax
    82e6:	eb 04                	jmp    82ec <safe_lshift_func_int8_t_s_s+0x4b>
    82e8:	0f b6 45 fc          	movzbl -0x4(%rbp),%eax
    82ec:	5d                   	pop    %rbp
    82ed:	c3                   	retq   

00000000000082ee <safe_lshift_func_int8_t_s_u>:
    82ee:	f3 0f 1e fa          	endbr64 
    82f2:	55                   	push   %rbp
    82f3:	48 89 e5             	mov    %rsp,%rbp
    82f6:	89 f8                	mov    %edi,%eax
    82f8:	89 75 f8             	mov    %esi,-0x8(%rbp)
    82fb:	88 45 fc             	mov    %al,-0x4(%rbp)
    82fe:	80 7d fc 00          	cmpb   $0x0,-0x4(%rbp)
    8302:	78 2b                	js     832f <safe_lshift_func_int8_t_s_u+0x41>
    8304:	83 7d f8 1f          	cmpl   $0x1f,-0x8(%rbp)
    8308:	77 25                	ja     832f <safe_lshift_func_int8_t_s_u+0x41>
    830a:	0f be 55 fc          	movsbl -0x4(%rbp),%edx
    830e:	8b 45 f8             	mov    -0x8(%rbp),%eax
    8311:	be 7f 00 00 00       	mov    $0x7f,%esi
    8316:	89 c1                	mov    %eax,%ecx
    8318:	d3 fe                	sar    %cl,%esi
    831a:	89 f0                	mov    %esi,%eax
    831c:	39 c2                	cmp    %eax,%edx
    831e:	7f 0f                	jg     832f <safe_lshift_func_int8_t_s_u+0x41>
    8320:	0f be 55 fc          	movsbl -0x4(%rbp),%edx
    8324:	8b 45 f8             	mov    -0x8(%rbp),%eax
    8327:	89 c1                	mov    %eax,%ecx
    8329:	d3 e2                	shl    %cl,%edx
    832b:	89 d0                	mov    %edx,%eax
    832d:	eb 04                	jmp    8333 <safe_lshift_func_int8_t_s_u+0x45>
    832f:	0f b6 45 fc          	movzbl -0x4(%rbp),%eax
    8333:	5d                   	pop    %rbp
    8334:	c3                   	retq   

0000000000008335 <safe_rshift_func_int8_t_s_s>:
    8335:	f3 0f 1e fa          	endbr64 
    8339:	55                   	push   %rbp
    833a:	48 89 e5             	mov    %rsp,%rbp
    833d:	89 f8                	mov    %edi,%eax
    833f:	89 75 f8             	mov    %esi,-0x8(%rbp)
    8342:	88 45 fc             	mov    %al,-0x4(%rbp)
    8345:	80 7d fc 00          	cmpb   $0x0,-0x4(%rbp)
    8349:	78 1b                	js     8366 <safe_rshift_func_int8_t_s_s+0x31>
    834b:	83 7d f8 00          	cmpl   $0x0,-0x8(%rbp)
    834f:	78 15                	js     8366 <safe_rshift_func_int8_t_s_s+0x31>
    8351:	83 7d f8 1f          	cmpl   $0x1f,-0x8(%rbp)
    8355:	7f 0f                	jg     8366 <safe_rshift_func_int8_t_s_s+0x31>
    8357:	0f be 55 fc          	movsbl -0x4(%rbp),%edx
    835b:	8b 45 f8             	mov    -0x8(%rbp),%eax
    835e:	89 c1                	mov    %eax,%ecx
    8360:	d3 fa                	sar    %cl,%edx
    8362:	89 d0                	mov    %edx,%eax
    8364:	eb 04                	jmp    836a <safe_rshift_func_int8_t_s_s+0x35>
    8366:	0f b6 45 fc          	movzbl -0x4(%rbp),%eax
    836a:	5d                   	pop    %rbp
    836b:	c3                   	retq   

000000000000836c <safe_rshift_func_int8_t_s_u>:
    836c:	f3 0f 1e fa          	endbr64 
    8370:	55                   	push   %rbp
    8371:	48 89 e5             	mov    %rsp,%rbp
    8374:	89 f8                	mov    %edi,%eax
    8376:	89 75 f8             	mov    %esi,-0x8(%rbp)
    8379:	88 45 fc             	mov    %al,-0x4(%rbp)
    837c:	80 7d fc 00          	cmpb   $0x0,-0x4(%rbp)
    8380:	78 15                	js     8397 <safe_rshift_func_int8_t_s_u+0x2b>
    8382:	83 7d f8 1f          	cmpl   $0x1f,-0x8(%rbp)
    8386:	77 0f                	ja     8397 <safe_rshift_func_int8_t_s_u+0x2b>
    8388:	0f be 55 fc          	movsbl -0x4(%rbp),%edx
    838c:	8b 45 f8             	mov    -0x8(%rbp),%eax
    838f:	89 c1                	mov    %eax,%ecx
    8391:	d3 fa                	sar    %cl,%edx
    8393:	89 d0                	mov    %edx,%eax
    8395:	eb 04                	jmp    839b <safe_rshift_func_int8_t_s_u+0x2f>
    8397:	0f b6 45 fc          	movzbl -0x4(%rbp),%eax
    839b:	5d                   	pop    %rbp
    839c:	c3                   	retq   

000000000000839d <safe_unary_minus_func_int16_t_s>:
    839d:	f3 0f 1e fa          	endbr64 
    83a1:	55                   	push   %rbp
    83a2:	48 89 e5             	mov    %rsp,%rbp
    83a5:	89 f8                	mov    %edi,%eax
    83a7:	66 89 45 fc          	mov    %ax,-0x4(%rbp)
    83ab:	0f b7 45 fc          	movzwl -0x4(%rbp),%eax
    83af:	f7 d8                	neg    %eax
    83b1:	5d                   	pop    %rbp
    83b2:	c3                   	retq   

00000000000083b3 <safe_add_func_int16_t_s_s>:
    83b3:	f3 0f 1e fa          	endbr64 
    83b7:	55                   	push   %rbp
    83b8:	48 89 e5             	mov    %rsp,%rbp
    83bb:	89 fa                	mov    %edi,%edx
    83bd:	89 f0                	mov    %esi,%eax
    83bf:	66 89 55 fc          	mov    %dx,-0x4(%rbp)
    83c3:	66 89 45 f8          	mov    %ax,-0x8(%rbp)
    83c7:	0f b7 55 fc          	movzwl -0x4(%rbp),%edx
    83cb:	0f b7 45 f8          	movzwl -0x8(%rbp),%eax
    83cf:	01 d0                	add    %edx,%eax
    83d1:	5d                   	pop    %rbp
    83d2:	c3                   	retq   

00000000000083d3 <safe_sub_func_int16_t_s_s>:
    83d3:	f3 0f 1e fa          	endbr64 
    83d7:	55                   	push   %rbp
    83d8:	48 89 e5             	mov    %rsp,%rbp
    83db:	89 fa                	mov    %edi,%edx
    83dd:	89 f0                	mov    %esi,%eax
    83df:	66 89 55 fc          	mov    %dx,-0x4(%rbp)
    83e3:	66 89 45 f8          	mov    %ax,-0x8(%rbp)
    83e7:	0f b7 55 fc          	movzwl -0x4(%rbp),%edx
    83eb:	0f b7 45 f8          	movzwl -0x8(%rbp),%eax
    83ef:	29 c2                	sub    %eax,%edx
    83f1:	89 d0                	mov    %edx,%eax
    83f3:	5d                   	pop    %rbp
    83f4:	c3                   	retq   

00000000000083f5 <safe_mul_func_int16_t_s_s>:
    83f5:	f3 0f 1e fa          	endbr64 
    83f9:	55                   	push   %rbp
    83fa:	48 89 e5             	mov    %rsp,%rbp
    83fd:	89 fa                	mov    %edi,%edx
    83ff:	89 f0                	mov    %esi,%eax
    8401:	66 89 55 fc          	mov    %dx,-0x4(%rbp)
    8405:	66 89 45 f8          	mov    %ax,-0x8(%rbp)
    8409:	0f b7 55 fc          	movzwl -0x4(%rbp),%edx
    840d:	0f b7 45 f8          	movzwl -0x8(%rbp),%eax
    8411:	0f af c2             	imul   %edx,%eax
    8414:	5d                   	pop    %rbp
    8415:	c3                   	retq   

0000000000008416 <safe_mod_func_int16_t_s_s>:
    8416:	f3 0f 1e fa          	endbr64 
    841a:	55                   	push   %rbp
    841b:	48 89 e5             	mov    %rsp,%rbp
    841e:	89 fa                	mov    %edi,%edx
    8420:	89 f0                	mov    %esi,%eax
    8422:	66 89 55 fc          	mov    %dx,-0x4(%rbp)
    8426:	66 89 45 f8          	mov    %ax,-0x8(%rbp)
    842a:	66 83 7d f8 00       	cmpw   $0x0,-0x8(%rbp)
    842f:	74 1e                	je     844f <safe_mod_func_int16_t_s_s+0x39>
    8431:	66 81 7d fc 00 80    	cmpw   $0x8000,-0x4(%rbp)
    8437:	75 07                	jne    8440 <safe_mod_func_int16_t_s_s+0x2a>
    8439:	66 83 7d f8 ff       	cmpw   $0xffff,-0x8(%rbp)
    843e:	74 0f                	je     844f <safe_mod_func_int16_t_s_s+0x39>
    8440:	0f bf 45 fc          	movswl -0x4(%rbp),%eax
    8444:	0f bf 4d f8          	movswl -0x8(%rbp),%ecx
    8448:	99                   	cltd   
    8449:	f7 f9                	idiv   %ecx
    844b:	89 d0                	mov    %edx,%eax
    844d:	eb 04                	jmp    8453 <safe_mod_func_int16_t_s_s+0x3d>
    844f:	0f b7 45 fc          	movzwl -0x4(%rbp),%eax
    8453:	5d                   	pop    %rbp
    8454:	c3                   	retq   

0000000000008455 <safe_div_func_int16_t_s_s>:
    8455:	f3 0f 1e fa          	endbr64 
    8459:	55                   	push   %rbp
    845a:	48 89 e5             	mov    %rsp,%rbp
    845d:	89 fa                	mov    %edi,%edx
    845f:	89 f0                	mov    %esi,%eax
    8461:	66 89 55 fc          	mov    %dx,-0x4(%rbp)
    8465:	66 89 45 f8          	mov    %ax,-0x8(%rbp)
    8469:	66 83 7d f8 00       	cmpw   $0x0,-0x8(%rbp)
    846e:	74 1c                	je     848c <safe_div_func_int16_t_s_s+0x37>
    8470:	66 81 7d fc 00 80    	cmpw   $0x8000,-0x4(%rbp)
    8476:	75 07                	jne    847f <safe_div_func_int16_t_s_s+0x2a>
    8478:	66 83 7d f8 ff       	cmpw   $0xffff,-0x8(%rbp)
    847d:	74 0d                	je     848c <safe_div_func_int16_t_s_s+0x37>
    847f:	0f bf 45 fc          	movswl -0x4(%rbp),%eax
    8483:	0f bf 4d f8          	movswl -0x8(%rbp),%ecx
    8487:	99                   	cltd   
    8488:	f7 f9                	idiv   %ecx
    848a:	eb 04                	jmp    8490 <safe_div_func_int16_t_s_s+0x3b>
    848c:	0f b7 45 fc          	movzwl -0x4(%rbp),%eax
    8490:	5d                   	pop    %rbp
    8491:	c3                   	retq   

0000000000008492 <safe_lshift_func_int16_t_s_s>:
    8492:	f3 0f 1e fa          	endbr64 
    8496:	55                   	push   %rbp
    8497:	48 89 e5             	mov    %rsp,%rbp
    849a:	89 f8                	mov    %edi,%eax
    849c:	89 75 f8             	mov    %esi,-0x8(%rbp)
    849f:	66 89 45 fc          	mov    %ax,-0x4(%rbp)
    84a3:	66 83 7d fc 00       	cmpw   $0x0,-0x4(%rbp)
    84a8:	78 31                	js     84db <safe_lshift_func_int16_t_s_s+0x49>
    84aa:	83 7d f8 00          	cmpl   $0x0,-0x8(%rbp)
    84ae:	78 2b                	js     84db <safe_lshift_func_int16_t_s_s+0x49>
    84b0:	83 7d f8 1f          	cmpl   $0x1f,-0x8(%rbp)
    84b4:	7f 25                	jg     84db <safe_lshift_func_int16_t_s_s+0x49>
    84b6:	0f bf 55 fc          	movswl -0x4(%rbp),%edx
    84ba:	8b 45 f8             	mov    -0x8(%rbp),%eax
    84bd:	be ff 7f 00 00       	mov    $0x7fff,%esi
    84c2:	89 c1                	mov    %eax,%ecx
    84c4:	d3 fe                	sar    %cl,%esi
    84c6:	89 f0                	mov    %esi,%eax
    84c8:	39 c2                	cmp    %eax,%edx
    84ca:	7f 0f                	jg     84db <safe_lshift_func_int16_t_s_s+0x49>
    84cc:	0f bf 55 fc          	movswl -0x4(%rbp),%edx
    84d0:	8b 45 f8             	mov    -0x8(%rbp),%eax
    84d3:	89 c1                	mov    %eax,%ecx
    84d5:	d3 e2                	shl    %cl,%edx
    84d7:	89 d0                	mov    %edx,%eax
    84d9:	eb 04                	jmp    84df <safe_lshift_func_int16_t_s_s+0x4d>
    84db:	0f b7 45 fc          	movzwl -0x4(%rbp),%eax
    84df:	5d                   	pop    %rbp
    84e0:	c3                   	retq   

00000000000084e1 <safe_lshift_func_int16_t_s_u>:
    84e1:	f3 0f 1e fa          	endbr64 
    84e5:	55                   	push   %rbp
    84e6:	48 89 e5             	mov    %rsp,%rbp
    84e9:	89 f8                	mov    %edi,%eax
    84eb:	89 75 f8             	mov    %esi,-0x8(%rbp)
    84ee:	66 89 45 fc          	mov    %ax,-0x4(%rbp)
    84f2:	66 83 7d fc 00       	cmpw   $0x0,-0x4(%rbp)
    84f7:	78 2b                	js     8524 <safe_lshift_func_int16_t_s_u+0x43>
    84f9:	83 7d f8 1f          	cmpl   $0x1f,-0x8(%rbp)
    84fd:	77 25                	ja     8524 <safe_lshift_func_int16_t_s_u+0x43>
    84ff:	0f bf 55 fc          	movswl -0x4(%rbp),%edx
    8503:	8b 45 f8             	mov    -0x8(%rbp),%eax
    8506:	be ff 7f 00 00       	mov    $0x7fff,%esi
    850b:	89 c1                	mov    %eax,%ecx
    850d:	d3 fe                	sar    %cl,%esi
    850f:	89 f0                	mov    %esi,%eax
    8511:	39 c2                	cmp    %eax,%edx
    8513:	7f 0f                	jg     8524 <safe_lshift_func_int16_t_s_u+0x43>
    8515:	0f bf 55 fc          	movswl -0x4(%rbp),%edx
    8519:	8b 45 f8             	mov    -0x8(%rbp),%eax
    851c:	89 c1                	mov    %eax,%ecx
    851e:	d3 e2                	shl    %cl,%edx
    8520:	89 d0                	mov    %edx,%eax
    8522:	eb 04                	jmp    8528 <safe_lshift_func_int16_t_s_u+0x47>
    8524:	0f b7 45 fc          	movzwl -0x4(%rbp),%eax
    8528:	5d                   	pop    %rbp
    8529:	c3                   	retq   

000000000000852a <safe_rshift_func_int16_t_s_s>:
    852a:	f3 0f 1e fa          	endbr64 
    852e:	55                   	push   %rbp
    852f:	48 89 e5             	mov    %rsp,%rbp
    8532:	89 f8                	mov    %edi,%eax
    8534:	89 75 f8             	mov    %esi,-0x8(%rbp)
    8537:	66 89 45 fc          	mov    %ax,-0x4(%rbp)
    853b:	66 83 7d fc 00       	cmpw   $0x0,-0x4(%rbp)
    8540:	78 1b                	js     855d <safe_rshift_func_int16_t_s_s+0x33>
    8542:	83 7d f8 00          	cmpl   $0x0,-0x8(%rbp)
    8546:	78 15                	js     855d <safe_rshift_func_int16_t_s_s+0x33>
    8548:	83 7d f8 1f          	cmpl   $0x1f,-0x8(%rbp)
    854c:	7f 0f                	jg     855d <safe_rshift_func_int16_t_s_s+0x33>
    854e:	0f bf 55 fc          	movswl -0x4(%rbp),%edx
    8552:	8b 45 f8             	mov    -0x8(%rbp),%eax
    8555:	89 c1                	mov    %eax,%ecx
    8557:	d3 fa                	sar    %cl,%edx
    8559:	89 d0                	mov    %edx,%eax
    855b:	eb 04                	jmp    8561 <safe_rshift_func_int16_t_s_s+0x37>
    855d:	0f b7 45 fc          	movzwl -0x4(%rbp),%eax
    8561:	5d                   	pop    %rbp
    8562:	c3                   	retq   

0000000000008563 <safe_rshift_func_int16_t_s_u>:
    8563:	f3 0f 1e fa          	endbr64 
    8567:	55                   	push   %rbp
    8568:	48 89 e5             	mov    %rsp,%rbp
    856b:	89 f8                	mov    %edi,%eax
    856d:	89 75 f8             	mov    %esi,-0x8(%rbp)
    8570:	66 89 45 fc          	mov    %ax,-0x4(%rbp)
    8574:	66 83 7d fc 00       	cmpw   $0x0,-0x4(%rbp)
    8579:	78 15                	js     8590 <safe_rshift_func_int16_t_s_u+0x2d>
    857b:	83 7d f8 1f          	cmpl   $0x1f,-0x8(%rbp)
    857f:	77 0f                	ja     8590 <safe_rshift_func_int16_t_s_u+0x2d>
    8581:	0f bf 55 fc          	movswl -0x4(%rbp),%edx
    8585:	8b 45 f8             	mov    -0x8(%rbp),%eax
    8588:	89 c1                	mov    %eax,%ecx
    858a:	d3 fa                	sar    %cl,%edx
    858c:	89 d0                	mov    %edx,%eax
    858e:	eb 04                	jmp    8594 <safe_rshift_func_int16_t_s_u+0x31>
    8590:	0f b7 45 fc          	movzwl -0x4(%rbp),%eax
    8594:	5d                   	pop    %rbp
    8595:	c3                   	retq   

0000000000008596 <safe_unary_minus_func_int32_t_s>:
    8596:	f3 0f 1e fa          	endbr64 
    859a:	55                   	push   %rbp
    859b:	48 89 e5             	mov    %rsp,%rbp
    859e:	89 7d fc             	mov    %edi,-0x4(%rbp)
    85a1:	81 7d fc 00 00 00 80 	cmpl   $0x80000000,-0x4(%rbp)
    85a8:	74 07                	je     85b1 <safe_unary_minus_func_int32_t_s+0x1b>
    85aa:	8b 45 fc             	mov    -0x4(%rbp),%eax
    85ad:	f7 d8                	neg    %eax
    85af:	eb 03                	jmp    85b4 <safe_unary_minus_func_int32_t_s+0x1e>
    85b1:	8b 45 fc             	mov    -0x4(%rbp),%eax
    85b4:	5d                   	pop    %rbp
    85b5:	c3                   	retq   

00000000000085b6 <safe_add_func_int32_t_s_s>:
    85b6:	f3 0f 1e fa          	endbr64 
    85ba:	55                   	push   %rbp
    85bb:	48 89 e5             	mov    %rsp,%rbp
    85be:	89 7d fc             	mov    %edi,-0x4(%rbp)
    85c1:	89 75 f8             	mov    %esi,-0x8(%rbp)
    85c4:	83 7d fc 00          	cmpl   $0x0,-0x4(%rbp)
    85c8:	7e 13                	jle    85dd <safe_add_func_int32_t_s_s+0x27>
    85ca:	83 7d f8 00          	cmpl   $0x0,-0x8(%rbp)
    85ce:	7e 0d                	jle    85dd <safe_add_func_int32_t_s_s+0x27>
    85d0:	b8 ff ff ff 7f       	mov    $0x7fffffff,%eax
    85d5:	2b 45 f8             	sub    -0x8(%rbp),%eax
    85d8:	39 45 fc             	cmp    %eax,-0x4(%rbp)
    85db:	7f 23                	jg     8600 <safe_add_func_int32_t_s_s+0x4a>
    85dd:	83 7d fc 00          	cmpl   $0x0,-0x4(%rbp)
    85e1:	79 13                	jns    85f6 <safe_add_func_int32_t_s_s+0x40>
    85e3:	83 7d f8 00          	cmpl   $0x0,-0x8(%rbp)
    85e7:	79 0d                	jns    85f6 <safe_add_func_int32_t_s_s+0x40>
    85e9:	b8 00 00 00 80       	mov    $0x80000000,%eax
    85ee:	2b 45 f8             	sub    -0x8(%rbp),%eax
    85f1:	39 45 fc             	cmp    %eax,-0x4(%rbp)
    85f4:	7c 0a                	jl     8600 <safe_add_func_int32_t_s_s+0x4a>
    85f6:	8b 55 fc             	mov    -0x4(%rbp),%edx
    85f9:	8b 45 f8             	mov    -0x8(%rbp),%eax
    85fc:	01 d0                	add    %edx,%eax
    85fe:	eb 03                	jmp    8603 <safe_add_func_int32_t_s_s+0x4d>
    8600:	8b 45 fc             	mov    -0x4(%rbp),%eax
    8603:	5d                   	pop    %rbp
    8604:	c3                   	retq   

0000000000008605 <safe_sub_func_int32_t_s_s>:
    8605:	f3 0f 1e fa          	endbr64 
    8609:	55                   	push   %rbp
    860a:	48 89 e5             	mov    %rsp,%rbp
    860d:	89 7d fc             	mov    %edi,-0x4(%rbp)
    8610:	89 75 f8             	mov    %esi,-0x8(%rbp)
    8613:	8b 45 fc             	mov    -0x4(%rbp),%eax
    8616:	33 45 f8             	xor    -0x8(%rbp),%eax
    8619:	89 c2                	mov    %eax,%edx
    861b:	8b 45 fc             	mov    -0x4(%rbp),%eax
    861e:	33 45 f8             	xor    -0x8(%rbp),%eax
    8621:	25 00 00 00 80       	and    $0x80000000,%eax
    8626:	33 45 fc             	xor    -0x4(%rbp),%eax
    8629:	2b 45 f8             	sub    -0x8(%rbp),%eax
    862c:	33 45 f8             	xor    -0x8(%rbp),%eax
    862f:	21 d0                	and    %edx,%eax
    8631:	85 c0                	test   %eax,%eax
    8633:	78 08                	js     863d <safe_sub_func_int32_t_s_s+0x38>
    8635:	8b 45 fc             	mov    -0x4(%rbp),%eax
    8638:	2b 45 f8             	sub    -0x8(%rbp),%eax
    863b:	eb 03                	jmp    8640 <safe_sub_func_int32_t_s_s+0x3b>
    863d:	8b 45 fc             	mov    -0x4(%rbp),%eax
    8640:	5d                   	pop    %rbp
    8641:	c3                   	retq   

0000000000008642 <safe_mul_func_int32_t_s_s>:
    8642:	f3 0f 1e fa          	endbr64 
    8646:	55                   	push   %rbp
    8647:	48 89 e5             	mov    %rsp,%rbp
    864a:	89 7d fc             	mov    %edi,-0x4(%rbp)
    864d:	89 75 f8             	mov    %esi,-0x8(%rbp)
    8650:	83 7d fc 00          	cmpl   $0x0,-0x4(%rbp)
    8654:	7e 14                	jle    866a <safe_mul_func_int32_t_s_s+0x28>
    8656:	83 7d f8 00          	cmpl   $0x0,-0x8(%rbp)
    865a:	7e 0e                	jle    866a <safe_mul_func_int32_t_s_s+0x28>
    865c:	b8 ff ff ff 7f       	mov    $0x7fffffff,%eax
    8661:	99                   	cltd   
    8662:	f7 7d f8             	idivl  -0x8(%rbp)
    8665:	39 45 fc             	cmp    %eax,-0x4(%rbp)
    8668:	7f 5d                	jg     86c7 <safe_mul_func_int32_t_s_s+0x85>
    866a:	83 7d fc 00          	cmpl   $0x0,-0x4(%rbp)
    866e:	7e 14                	jle    8684 <safe_mul_func_int32_t_s_s+0x42>
    8670:	83 7d f8 00          	cmpl   $0x0,-0x8(%rbp)
    8674:	7f 0e                	jg     8684 <safe_mul_func_int32_t_s_s+0x42>
    8676:	b8 00 00 00 80       	mov    $0x80000000,%eax
    867b:	99                   	cltd   
    867c:	f7 7d fc             	idivl  -0x4(%rbp)
    867f:	39 45 f8             	cmp    %eax,-0x8(%rbp)
    8682:	7c 43                	jl     86c7 <safe_mul_func_int32_t_s_s+0x85>
    8684:	83 7d fc 00          	cmpl   $0x0,-0x4(%rbp)
    8688:	7f 14                	jg     869e <safe_mul_func_int32_t_s_s+0x5c>
    868a:	83 7d f8 00          	cmpl   $0x0,-0x8(%rbp)
    868e:	7e 0e                	jle    869e <safe_mul_func_int32_t_s_s+0x5c>
    8690:	b8 00 00 00 80       	mov    $0x80000000,%eax
    8695:	99                   	cltd   
    8696:	f7 7d f8             	idivl  -0x8(%rbp)
    8699:	39 45 fc             	cmp    %eax,-0x4(%rbp)
    869c:	7c 29                	jl     86c7 <safe_mul_func_int32_t_s_s+0x85>
    869e:	83 7d fc 00          	cmpl   $0x0,-0x4(%rbp)
    86a2:	7f 1a                	jg     86be <safe_mul_func_int32_t_s_s+0x7c>
    86a4:	83 7d f8 00          	cmpl   $0x0,-0x8(%rbp)
    86a8:	7f 14                	jg     86be <safe_mul_func_int32_t_s_s+0x7c>
    86aa:	83 7d fc 00          	cmpl   $0x0,-0x4(%rbp)
    86ae:	74 0e                	je     86be <safe_mul_func_int32_t_s_s+0x7c>
    86b0:	b8 ff ff ff 7f       	mov    $0x7fffffff,%eax
    86b5:	99                   	cltd   
    86b6:	f7 7d fc             	idivl  -0x4(%rbp)
    86b9:	39 45 f8             	cmp    %eax,-0x8(%rbp)
    86bc:	7c 09                	jl     86c7 <safe_mul_func_int32_t_s_s+0x85>
    86be:	8b 45 fc             	mov    -0x4(%rbp),%eax
    86c1:	0f af 45 f8          	imul   -0x8(%rbp),%eax
    86c5:	eb 03                	jmp    86ca <safe_mul_func_int32_t_s_s+0x88>
    86c7:	8b 45 fc             	mov    -0x4(%rbp),%eax
    86ca:	5d                   	pop    %rbp
    86cb:	c3                   	retq   

00000000000086cc <safe_mod_func_int32_t_s_s>:
    86cc:	f3 0f 1e fa          	endbr64 
    86d0:	55                   	push   %rbp
    86d1:	48 89 e5             	mov    %rsp,%rbp
    86d4:	89 7d fc             	mov    %edi,-0x4(%rbp)
    86d7:	89 75 f8             	mov    %esi,-0x8(%rbp)
    86da:	83 7d f8 00          	cmpl   $0x0,-0x8(%rbp)
    86de:	74 1a                	je     86fa <safe_mod_func_int32_t_s_s+0x2e>
    86e0:	81 7d fc 00 00 00 80 	cmpl   $0x80000000,-0x4(%rbp)
    86e7:	75 06                	jne    86ef <safe_mod_func_int32_t_s_s+0x23>
    86e9:	83 7d f8 ff          	cmpl   $0xffffffff,-0x8(%rbp)
    86ed:	74 0b                	je     86fa <safe_mod_func_int32_t_s_s+0x2e>
    86ef:	8b 45 fc             	mov    -0x4(%rbp),%eax
    86f2:	99                   	cltd   
    86f3:	f7 7d f8             	idivl  -0x8(%rbp)
    86f6:	89 d0                	mov    %edx,%eax
    86f8:	eb 03                	jmp    86fd <safe_mod_func_int32_t_s_s+0x31>
    86fa:	8b 45 fc             	mov    -0x4(%rbp),%eax
    86fd:	5d                   	pop    %rbp
    86fe:	c3                   	retq   

00000000000086ff <safe_div_func_int32_t_s_s>:
    86ff:	f3 0f 1e fa          	endbr64 
    8703:	55                   	push   %rbp
    8704:	48 89 e5             	mov    %rsp,%rbp
    8707:	89 7d fc             	mov    %edi,-0x4(%rbp)
    870a:	89 75 f8             	mov    %esi,-0x8(%rbp)
    870d:	83 7d f8 00          	cmpl   $0x0,-0x8(%rbp)
    8711:	74 18                	je     872b <safe_div_func_int32_t_s_s+0x2c>
    8713:	81 7d fc 00 00 00 80 	cmpl   $0x80000000,-0x4(%rbp)
    871a:	75 06                	jne    8722 <safe_div_func_int32_t_s_s+0x23>
    871c:	83 7d f8 ff          	cmpl   $0xffffffff,-0x8(%rbp)
    8720:	74 09                	je     872b <safe_div_func_int32_t_s_s+0x2c>
    8722:	8b 45 fc             	mov    -0x4(%rbp),%eax
    8725:	99                   	cltd   
    8726:	f7 7d f8             	idivl  -0x8(%rbp)
    8729:	eb 03                	jmp    872e <safe_div_func_int32_t_s_s+0x2f>
    872b:	8b 45 fc             	mov    -0x4(%rbp),%eax
    872e:	5d                   	pop    %rbp
    872f:	c3                   	retq   

0000000000008730 <safe_lshift_func_int32_t_s_s>:
    8730:	f3 0f 1e fa          	endbr64 
    8734:	55                   	push   %rbp
    8735:	48 89 e5             	mov    %rsp,%rbp
    8738:	89 7d fc             	mov    %edi,-0x4(%rbp)
    873b:	89 75 f8             	mov    %esi,-0x8(%rbp)
    873e:	83 7d fc 00          	cmpl   $0x0,-0x4(%rbp)
    8742:	78 2d                	js     8771 <safe_lshift_func_int32_t_s_s+0x41>
    8744:	83 7d f8 00          	cmpl   $0x0,-0x8(%rbp)
    8748:	78 27                	js     8771 <safe_lshift_func_int32_t_s_s+0x41>
    874a:	83 7d f8 1f          	cmpl   $0x1f,-0x8(%rbp)
    874e:	7f 21                	jg     8771 <safe_lshift_func_int32_t_s_s+0x41>
    8750:	8b 45 f8             	mov    -0x8(%rbp),%eax
    8753:	ba ff ff ff 7f       	mov    $0x7fffffff,%edx
    8758:	89 c1                	mov    %eax,%ecx
    875a:	d3 fa                	sar    %cl,%edx
    875c:	89 d0                	mov    %edx,%eax
    875e:	39 45 fc             	cmp    %eax,-0x4(%rbp)
    8761:	7f 0e                	jg     8771 <safe_lshift_func_int32_t_s_s+0x41>
    8763:	8b 45 f8             	mov    -0x8(%rbp),%eax
    8766:	8b 55 fc             	mov    -0x4(%rbp),%edx
    8769:	89 c1                	mov    %eax,%ecx
    876b:	d3 e2                	shl    %cl,%edx
    876d:	89 d0                	mov    %edx,%eax
    876f:	eb 03                	jmp    8774 <safe_lshift_func_int32_t_s_s+0x44>
    8771:	8b 45 fc             	mov    -0x4(%rbp),%eax
    8774:	5d                   	pop    %rbp
    8775:	c3                   	retq   

0000000000008776 <safe_lshift_func_int32_t_s_u>:
    8776:	f3 0f 1e fa          	endbr64 
    877a:	55                   	push   %rbp
    877b:	48 89 e5             	mov    %rsp,%rbp
    877e:	89 7d fc             	mov    %edi,-0x4(%rbp)
    8781:	89 75 f8             	mov    %esi,-0x8(%rbp)
    8784:	83 7d fc 00          	cmpl   $0x0,-0x4(%rbp)
    8788:	78 27                	js     87b1 <safe_lshift_func_int32_t_s_u+0x3b>
    878a:	83 7d f8 1f          	cmpl   $0x1f,-0x8(%rbp)
    878e:	77 21                	ja     87b1 <safe_lshift_func_int32_t_s_u+0x3b>
    8790:	8b 45 f8             	mov    -0x8(%rbp),%eax
    8793:	ba ff ff ff 7f       	mov    $0x7fffffff,%edx
    8798:	89 c1                	mov    %eax,%ecx
    879a:	d3 fa                	sar    %cl,%edx
    879c:	89 d0                	mov    %edx,%eax
    879e:	39 45 fc             	cmp    %eax,-0x4(%rbp)
    87a1:	7f 0e                	jg     87b1 <safe_lshift_func_int32_t_s_u+0x3b>
    87a3:	8b 45 f8             	mov    -0x8(%rbp),%eax
    87a6:	8b 55 fc             	mov    -0x4(%rbp),%edx
    87a9:	89 c1                	mov    %eax,%ecx
    87ab:	d3 e2                	shl    %cl,%edx
    87ad:	89 d0                	mov    %edx,%eax
    87af:	eb 03                	jmp    87b4 <safe_lshift_func_int32_t_s_u+0x3e>
    87b1:	8b 45 fc             	mov    -0x4(%rbp),%eax
    87b4:	5d                   	pop    %rbp
    87b5:	c3                   	retq   

00000000000087b6 <safe_rshift_func_int32_t_s_s>:
    87b6:	f3 0f 1e fa          	endbr64 
    87ba:	55                   	push   %rbp
    87bb:	48 89 e5             	mov    %rsp,%rbp
    87be:	89 7d fc             	mov    %edi,-0x4(%rbp)
    87c1:	89 75 f8             	mov    %esi,-0x8(%rbp)
    87c4:	83 7d fc 00          	cmpl   $0x0,-0x4(%rbp)
    87c8:	78 1a                	js     87e4 <safe_rshift_func_int32_t_s_s+0x2e>
    87ca:	83 7d f8 00          	cmpl   $0x0,-0x8(%rbp)
    87ce:	78 14                	js     87e4 <safe_rshift_func_int32_t_s_s+0x2e>
    87d0:	83 7d f8 1f          	cmpl   $0x1f,-0x8(%rbp)
    87d4:	7f 0e                	jg     87e4 <safe_rshift_func_int32_t_s_s+0x2e>
    87d6:	8b 45 f8             	mov    -0x8(%rbp),%eax
    87d9:	8b 55 fc             	mov    -0x4(%rbp),%edx
    87dc:	89 c1                	mov    %eax,%ecx
    87de:	d3 fa                	sar    %cl,%edx
    87e0:	89 d0                	mov    %edx,%eax
    87e2:	eb 03                	jmp    87e7 <safe_rshift_func_int32_t_s_s+0x31>
    87e4:	8b 45 fc             	mov    -0x4(%rbp),%eax
    87e7:	5d                   	pop    %rbp
    87e8:	c3                   	retq   

00000000000087e9 <safe_rshift_func_int32_t_s_u>:
    87e9:	f3 0f 1e fa          	endbr64 
    87ed:	55                   	push   %rbp
    87ee:	48 89 e5             	mov    %rsp,%rbp
    87f1:	89 7d fc             	mov    %edi,-0x4(%rbp)
    87f4:	89 75 f8             	mov    %esi,-0x8(%rbp)
    87f7:	83 7d fc 00          	cmpl   $0x0,-0x4(%rbp)
    87fb:	78 14                	js     8811 <safe_rshift_func_int32_t_s_u+0x28>
    87fd:	83 7d f8 1f          	cmpl   $0x1f,-0x8(%rbp)
    8801:	77 0e                	ja     8811 <safe_rshift_func_int32_t_s_u+0x28>
    8803:	8b 45 f8             	mov    -0x8(%rbp),%eax
    8806:	8b 55 fc             	mov    -0x4(%rbp),%edx
    8809:	89 c1                	mov    %eax,%ecx
    880b:	d3 fa                	sar    %cl,%edx
    880d:	89 d0                	mov    %edx,%eax
    880f:	eb 03                	jmp    8814 <safe_rshift_func_int32_t_s_u+0x2b>
    8811:	8b 45 fc             	mov    -0x4(%rbp),%eax
    8814:	5d                   	pop    %rbp
    8815:	c3                   	retq   

0000000000008816 <safe_unary_minus_func_int64_t_s>:
    8816:	f3 0f 1e fa          	endbr64 
    881a:	55                   	push   %rbp
    881b:	48 89 e5             	mov    %rsp,%rbp
    881e:	48 89 7d f8          	mov    %rdi,-0x8(%rbp)
    8822:	48 b8 00 00 00 00 00 	movabs $0x8000000000000000,%rax
    8829:	00 00 80 
    882c:	48 39 45 f8          	cmp    %rax,-0x8(%rbp)
    8830:	74 09                	je     883b <safe_unary_minus_func_int64_t_s+0x25>
    8832:	48 8b 45 f8          	mov    -0x8(%rbp),%rax
    8836:	48 f7 d8             	neg    %rax
    8839:	eb 04                	jmp    883f <safe_unary_minus_func_int64_t_s+0x29>
    883b:	48 8b 45 f8          	mov    -0x8(%rbp),%rax
    883f:	5d                   	pop    %rbp
    8840:	c3                   	retq   

0000000000008841 <safe_add_func_int64_t_s_s>:
    8841:	f3 0f 1e fa          	endbr64 
    8845:	55                   	push   %rbp
    8846:	48 89 e5             	mov    %rsp,%rbp
    8849:	48 89 7d f8          	mov    %rdi,-0x8(%rbp)
    884d:	48 89 75 f0          	mov    %rsi,-0x10(%rbp)
    8851:	48 83 7d f8 00       	cmpq   $0x0,-0x8(%rbp)
    8856:	7e 1b                	jle    8873 <safe_add_func_int64_t_s_s+0x32>
    8858:	48 83 7d f0 00       	cmpq   $0x0,-0x10(%rbp)
    885d:	7e 14                	jle    8873 <safe_add_func_int64_t_s_s+0x32>
    885f:	48 b8 ff ff ff ff ff 	movabs $0x7fffffffffffffff,%rax
    8866:	ff ff 7f 
    8869:	48 2b 45 f0          	sub    -0x10(%rbp),%rax
    886d:	48 39 45 f8          	cmp    %rax,-0x8(%rbp)
    8871:	7f 2f                	jg     88a2 <safe_add_func_int64_t_s_s+0x61>
    8873:	48 83 7d f8 00       	cmpq   $0x0,-0x8(%rbp)
    8878:	79 1b                	jns    8895 <safe_add_func_int64_t_s_s+0x54>
    887a:	48 83 7d f0 00       	cmpq   $0x0,-0x10(%rbp)
    887f:	79 14                	jns    8895 <safe_add_func_int64_t_s_s+0x54>
    8881:	48 b8 00 00 00 00 00 	movabs $0x8000000000000000,%rax
    8888:	00 00 80 
    888b:	48 2b 45 f0          	sub    -0x10(%rbp),%rax
    888f:	48 39 45 f8          	cmp    %rax,-0x8(%rbp)
    8893:	7c 0d                	jl     88a2 <safe_add_func_int64_t_s_s+0x61>
    8895:	48 8b 55 f8          	mov    -0x8(%rbp),%rdx
    8899:	48 8b 45 f0          	mov    -0x10(%rbp),%rax
    889d:	48 01 d0             	add    %rdx,%rax
    88a0:	eb 04                	jmp    88a6 <safe_add_func_int64_t_s_s+0x65>
    88a2:	48 8b 45 f8          	mov    -0x8(%rbp),%rax
    88a6:	5d                   	pop    %rbp
    88a7:	c3                   	retq   

00000000000088a8 <safe_sub_func_int64_t_s_s>:
    88a8:	f3 0f 1e fa          	endbr64 
    88ac:	55                   	push   %rbp
    88ad:	48 89 e5             	mov    %rsp,%rbp
    88b0:	48 89 7d f8          	mov    %rdi,-0x8(%rbp)
    88b4:	48 89 75 f0          	mov    %rsi,-0x10(%rbp)
    88b8:	48 8b 45 f8          	mov    -0x8(%rbp),%rax
    88bc:	48 33 45 f0          	xor    -0x10(%rbp),%rax
    88c0:	48 89 c2             	mov    %rax,%rdx
    88c3:	48 8b 45 f8          	mov    -0x8(%rbp),%rax
    88c7:	48 33 45 f0          	xor    -0x10(%rbp),%rax
    88cb:	48 b9 00 00 00 00 00 	movabs $0x8000000000000000,%rcx
    88d2:	00 00 80 
    88d5:	48 21 c8             	and    %rcx,%rax
    88d8:	48 33 45 f8          	xor    -0x8(%rbp),%rax
    88dc:	48 2b 45 f0          	sub    -0x10(%rbp),%rax
    88e0:	48 33 45 f0          	xor    -0x10(%rbp),%rax
    88e4:	48 21 d0             	and    %rdx,%rax
    88e7:	48 85 c0             	test   %rax,%rax
    88ea:	78 0a                	js     88f6 <safe_sub_func_int64_t_s_s+0x4e>
    88ec:	48 8b 45 f8          	mov    -0x8(%rbp),%rax
    88f0:	48 2b 45 f0          	sub    -0x10(%rbp),%rax
    88f4:	eb 04                	jmp    88fa <safe_sub_func_int64_t_s_s+0x52>
    88f6:	48 8b 45 f8          	mov    -0x8(%rbp),%rax
    88fa:	5d                   	pop    %rbp
    88fb:	c3                   	retq   

00000000000088fc <safe_mul_func_int64_t_s_s>:
    88fc:	f3 0f 1e fa          	endbr64 
    8900:	55                   	push   %rbp
    8901:	48 89 e5             	mov    %rsp,%rbp
    8904:	48 89 7d f8          	mov    %rdi,-0x8(%rbp)
    8908:	48 89 75 f0          	mov    %rsi,-0x10(%rbp)
    890c:	48 83 7d f8 00       	cmpq   $0x0,-0x8(%rbp)
    8911:	7e 1d                	jle    8930 <safe_mul_func_int64_t_s_s+0x34>
    8913:	48 83 7d f0 00       	cmpq   $0x0,-0x10(%rbp)
    8918:	7e 16                	jle    8930 <safe_mul_func_int64_t_s_s+0x34>
    891a:	48 b8 ff ff ff ff ff 	movabs $0x7fffffffffffffff,%rax
    8921:	ff ff 7f 
    8924:	48 99                	cqto   
    8926:	48 f7 7d f0          	idivq  -0x10(%rbp)
    892a:	48 39 45 f8          	cmp    %rax,-0x8(%rbp)
    892e:	7f 7e                	jg     89ae <safe_mul_func_int64_t_s_s+0xb2>
    8930:	48 83 7d f8 00       	cmpq   $0x0,-0x8(%rbp)
    8935:	7e 1d                	jle    8954 <safe_mul_func_int64_t_s_s+0x58>
    8937:	48 83 7d f0 00       	cmpq   $0x0,-0x10(%rbp)
    893c:	7f 16                	jg     8954 <safe_mul_func_int64_t_s_s+0x58>
    893e:	48 b8 00 00 00 00 00 	movabs $0x8000000000000000,%rax
    8945:	00 00 80 
    8948:	48 99                	cqto   
    894a:	48 f7 7d f8          	idivq  -0x8(%rbp)
    894e:	48 39 45 f0          	cmp    %rax,-0x10(%rbp)
    8952:	7c 5a                	jl     89ae <safe_mul_func_int64_t_s_s+0xb2>
    8954:	48 83 7d f8 00       	cmpq   $0x0,-0x8(%rbp)
    8959:	7f 1d                	jg     8978 <safe_mul_func_int64_t_s_s+0x7c>
    895b:	48 83 7d f0 00       	cmpq   $0x0,-0x10(%rbp)
    8960:	7e 16                	jle    8978 <safe_mul_func_int64_t_s_s+0x7c>
    8962:	48 b8 00 00 00 00 00 	movabs $0x8000000000000000,%rax
    8969:	00 00 80 
    896c:	48 99                	cqto   
    896e:	48 f7 7d f0          	idivq  -0x10(%rbp)
    8972:	48 39 45 f8          	cmp    %rax,-0x8(%rbp)
    8976:	7c 36                	jl     89ae <safe_mul_func_int64_t_s_s+0xb2>
    8978:	48 83 7d f8 00       	cmpq   $0x0,-0x8(%rbp)
    897d:	7f 24                	jg     89a3 <safe_mul_func_int64_t_s_s+0xa7>
    897f:	48 83 7d f0 00       	cmpq   $0x0,-0x10(%rbp)
    8984:	7f 1d                	jg     89a3 <safe_mul_func_int64_t_s_s+0xa7>
    8986:	48 83 7d f8 00       	cmpq   $0x0,-0x8(%rbp)
    898b:	74 16                	je     89a3 <safe_mul_func_int64_t_s_s+0xa7>
    898d:	48 b8 ff ff ff ff ff 	movabs $0x7fffffffffffffff,%rax
    8994:	ff ff 7f 
    8997:	48 99                	cqto   
    8999:	48 f7 7d f8          	idivq  -0x8(%rbp)
    899d:	48 39 45 f0          	cmp    %rax,-0x10(%rbp)
    89a1:	7c 0b                	jl     89ae <safe_mul_func_int64_t_s_s+0xb2>
    89a3:	48 8b 45 f8          	mov    -0x8(%rbp),%rax
    89a7:	48 0f af 45 f0       	imul   -0x10(%rbp),%rax
    89ac:	eb 04                	jmp    89b2 <safe_mul_func_int64_t_s_s+0xb6>
    89ae:	48 8b 45 f8          	mov    -0x8(%rbp),%rax
    89b2:	5d                   	pop    %rbp
    89b3:	c3                   	retq   

00000000000089b4 <safe_mod_func_int64_t_s_s>:
    89b4:	f3 0f 1e fa          	endbr64 
    89b8:	55                   	push   %rbp
    89b9:	48 89 e5             	mov    %rsp,%rbp
    89bc:	48 89 7d f8          	mov    %rdi,-0x8(%rbp)
    89c0:	48 89 75 f0          	mov    %rsi,-0x10(%rbp)
    89c4:	48 83 7d f0 00       	cmpq   $0x0,-0x10(%rbp)
    89c9:	74 26                	je     89f1 <safe_mod_func_int64_t_s_s+0x3d>
    89cb:	48 b8 00 00 00 00 00 	movabs $0x8000000000000000,%rax
    89d2:	00 00 80 
    89d5:	48 39 45 f8          	cmp    %rax,-0x8(%rbp)
    89d9:	75 07                	jne    89e2 <safe_mod_func_int64_t_s_s+0x2e>
    89db:	48 83 7d f0 ff       	cmpq   $0xffffffffffffffff,-0x10(%rbp)
    89e0:	74 0f                	je     89f1 <safe_mod_func_int64_t_s_s+0x3d>
    89e2:	48 8b 45 f8          	mov    -0x8(%rbp),%rax
    89e6:	48 99                	cqto   
    89e8:	48 f7 7d f0          	idivq  -0x10(%rbp)
    89ec:	48 89 d0             	mov    %rdx,%rax
    89ef:	eb 04                	jmp    89f5 <safe_mod_func_int64_t_s_s+0x41>
    89f1:	48 8b 45 f8          	mov    -0x8(%rbp),%rax
    89f5:	5d                   	pop    %rbp
    89f6:	c3                   	retq   

00000000000089f7 <safe_div_func_int64_t_s_s>:
    89f7:	f3 0f 1e fa          	endbr64 
    89fb:	55                   	push   %rbp
    89fc:	48 89 e5             	mov    %rsp,%rbp
    89ff:	48 89 7d f8          	mov    %rdi,-0x8(%rbp)
    8a03:	48 89 75 f0          	mov    %rsi,-0x10(%rbp)
    8a07:	48 83 7d f0 00       	cmpq   $0x0,-0x10(%rbp)
    8a0c:	74 23                	je     8a31 <safe_div_func_int64_t_s_s+0x3a>
    8a0e:	48 b8 00 00 00 00 00 	movabs $0x8000000000000000,%rax
    8a15:	00 00 80 
    8a18:	48 39 45 f8          	cmp    %rax,-0x8(%rbp)
    8a1c:	75 07                	jne    8a25 <safe_div_func_int64_t_s_s+0x2e>
    8a1e:	48 83 7d f0 ff       	cmpq   $0xffffffffffffffff,-0x10(%rbp)
    8a23:	74 0c                	je     8a31 <safe_div_func_int64_t_s_s+0x3a>
    8a25:	48 8b 45 f8          	mov    -0x8(%rbp),%rax
    8a29:	48 99                	cqto   
    8a2b:	48 f7 7d f0          	idivq  -0x10(%rbp)
    8a2f:	eb 04                	jmp    8a35 <safe_div_func_int64_t_s_s+0x3e>
    8a31:	48 8b 45 f8          	mov    -0x8(%rbp),%rax
    8a35:	5d                   	pop    %rbp
    8a36:	c3                   	retq   

0000000000008a37 <safe_lshift_func_int64_t_s_s>:
    8a37:	f3 0f 1e fa          	endbr64 
    8a3b:	55                   	push   %rbp
    8a3c:	48 89 e5             	mov    %rsp,%rbp
    8a3f:	48 89 7d f8          	mov    %rdi,-0x8(%rbp)
    8a43:	89 75 f4             	mov    %esi,-0xc(%rbp)
    8a46:	48 83 7d f8 00       	cmpq   $0x0,-0x8(%rbp)
    8a4b:	78 38                	js     8a85 <safe_lshift_func_int64_t_s_s+0x4e>
    8a4d:	83 7d f4 00          	cmpl   $0x0,-0xc(%rbp)
    8a51:	78 32                	js     8a85 <safe_lshift_func_int64_t_s_s+0x4e>
    8a53:	83 7d f4 1f          	cmpl   $0x1f,-0xc(%rbp)
    8a57:	7f 2c                	jg     8a85 <safe_lshift_func_int64_t_s_s+0x4e>
    8a59:	8b 45 f4             	mov    -0xc(%rbp),%eax
    8a5c:	48 ba ff ff ff ff ff 	movabs $0x7fffffffffffffff,%rdx
    8a63:	ff ff 7f 
    8a66:	89 c1                	mov    %eax,%ecx
    8a68:	48 d3 fa             	sar    %cl,%rdx
    8a6b:	48 89 d0             	mov    %rdx,%rax
    8a6e:	48 39 45 f8          	cmp    %rax,-0x8(%rbp)
    8a72:	7f 11                	jg     8a85 <safe_lshift_func_int64_t_s_s+0x4e>
    8a74:	8b 45 f4             	mov    -0xc(%rbp),%eax
    8a77:	48 8b 55 f8          	mov    -0x8(%rbp),%rdx
    8a7b:	89 c1                	mov    %eax,%ecx
    8a7d:	48 d3 e2             	shl    %cl,%rdx
    8a80:	48 89 d0             	mov    %rdx,%rax
    8a83:	eb 04                	jmp    8a89 <safe_lshift_func_int64_t_s_s+0x52>
    8a85:	48 8b 45 f8          	mov    -0x8(%rbp),%rax
    8a89:	5d                   	pop    %rbp
    8a8a:	c3                   	retq   

0000000000008a8b <safe_lshift_func_int64_t_s_u>:
    8a8b:	f3 0f 1e fa          	endbr64 
    8a8f:	55                   	push   %rbp
    8a90:	48 89 e5             	mov    %rsp,%rbp
    8a93:	48 89 7d f8          	mov    %rdi,-0x8(%rbp)
    8a97:	89 75 f4             	mov    %esi,-0xc(%rbp)
    8a9a:	48 83 7d f8 00       	cmpq   $0x0,-0x8(%rbp)
    8a9f:	78 32                	js     8ad3 <safe_lshift_func_int64_t_s_u+0x48>
    8aa1:	83 7d f4 1f          	cmpl   $0x1f,-0xc(%rbp)
    8aa5:	77 2c                	ja     8ad3 <safe_lshift_func_int64_t_s_u+0x48>
    8aa7:	8b 45 f4             	mov    -0xc(%rbp),%eax
    8aaa:	48 ba ff ff ff ff ff 	movabs $0x7fffffffffffffff,%rdx
    8ab1:	ff ff 7f 
    8ab4:	89 c1                	mov    %eax,%ecx
    8ab6:	48 d3 fa             	sar    %cl,%rdx
    8ab9:	48 89 d0             	mov    %rdx,%rax
    8abc:	48 39 45 f8          	cmp    %rax,-0x8(%rbp)
    8ac0:	7f 11                	jg     8ad3 <safe_lshift_func_int64_t_s_u+0x48>
    8ac2:	8b 45 f4             	mov    -0xc(%rbp),%eax
    8ac5:	48 8b 55 f8          	mov    -0x8(%rbp),%rdx
    8ac9:	89 c1                	mov    %eax,%ecx
    8acb:	48 d3 e2             	shl    %cl,%rdx
    8ace:	48 89 d0             	mov    %rdx,%rax
    8ad1:	eb 04                	jmp    8ad7 <safe_lshift_func_int64_t_s_u+0x4c>
    8ad3:	48 8b 45 f8          	mov    -0x8(%rbp),%rax
    8ad7:	5d                   	pop    %rbp
    8ad8:	c3                   	retq   

0000000000008ad9 <safe_rshift_func_int64_t_s_s>:
    8ad9:	f3 0f 1e fa          	endbr64 
    8add:	55                   	push   %rbp
    8ade:	48 89 e5             	mov    %rsp,%rbp
    8ae1:	48 89 7d f8          	mov    %rdi,-0x8(%rbp)
    8ae5:	89 75 f4             	mov    %esi,-0xc(%rbp)
    8ae8:	48 83 7d f8 00       	cmpq   $0x0,-0x8(%rbp)
    8aed:	78 1d                	js     8b0c <safe_rshift_func_int64_t_s_s+0x33>
    8aef:	83 7d f4 00          	cmpl   $0x0,-0xc(%rbp)
    8af3:	78 17                	js     8b0c <safe_rshift_func_int64_t_s_s+0x33>
    8af5:	83 7d f4 1f          	cmpl   $0x1f,-0xc(%rbp)
    8af9:	7f 11                	jg     8b0c <safe_rshift_func_int64_t_s_s+0x33>
    8afb:	8b 45 f4             	mov    -0xc(%rbp),%eax
    8afe:	48 8b 55 f8          	mov    -0x8(%rbp),%rdx
    8b02:	89 c1                	mov    %eax,%ecx
    8b04:	48 d3 fa             	sar    %cl,%rdx
    8b07:	48 89 d0             	mov    %rdx,%rax
    8b0a:	eb 04                	jmp    8b10 <safe_rshift_func_int64_t_s_s+0x37>
    8b0c:	48 8b 45 f8          	mov    -0x8(%rbp),%rax
    8b10:	5d                   	pop    %rbp
    8b11:	c3                   	retq   

0000000000008b12 <safe_rshift_func_int64_t_s_u>:
    8b12:	f3 0f 1e fa          	endbr64 
    8b16:	55                   	push   %rbp
    8b17:	48 89 e5             	mov    %rsp,%rbp
    8b1a:	48 89 7d f8          	mov    %rdi,-0x8(%rbp)
    8b1e:	89 75 f4             	mov    %esi,-0xc(%rbp)
    8b21:	48 83 7d f8 00       	cmpq   $0x0,-0x8(%rbp)
    8b26:	78 17                	js     8b3f <safe_rshift_func_int64_t_s_u+0x2d>
    8b28:	83 7d f4 1f          	cmpl   $0x1f,-0xc(%rbp)
    8b2c:	77 11                	ja     8b3f <safe_rshift_func_int64_t_s_u+0x2d>
    8b2e:	8b 45 f4             	mov    -0xc(%rbp),%eax
    8b31:	48 8b 55 f8          	mov    -0x8(%rbp),%rdx
    8b35:	89 c1                	mov    %eax,%ecx
    8b37:	48 d3 fa             	sar    %cl,%rdx
    8b3a:	48 89 d0             	mov    %rdx,%rax
    8b3d:	eb 04                	jmp    8b43 <safe_rshift_func_int64_t_s_u+0x31>
    8b3f:	48 8b 45 f8          	mov    -0x8(%rbp),%rax
    8b43:	5d                   	pop    %rbp
    8b44:	c3                   	retq   

0000000000008b45 <safe_unary_minus_func_uint8_t_u>:
    8b45:	f3 0f 1e fa          	endbr64 
    8b49:	55                   	push   %rbp
    8b4a:	48 89 e5             	mov    %rsp,%rbp
    8b4d:	89 f8                	mov    %edi,%eax
    8b4f:	88 45 fc             	mov    %al,-0x4(%rbp)
    8b52:	0f b6 45 fc          	movzbl -0x4(%rbp),%eax
    8b56:	f7 d8                	neg    %eax
    8b58:	5d                   	pop    %rbp
    8b59:	c3                   	retq   

0000000000008b5a <safe_add_func_uint8_t_u_u>:
    8b5a:	f3 0f 1e fa          	endbr64 
    8b5e:	55                   	push   %rbp
    8b5f:	48 89 e5             	mov    %rsp,%rbp
    8b62:	89 fa                	mov    %edi,%edx
    8b64:	89 f0                	mov    %esi,%eax
    8b66:	88 55 fc             	mov    %dl,-0x4(%rbp)
    8b69:	88 45 f8             	mov    %al,-0x8(%rbp)
    8b6c:	0f b6 55 fc          	movzbl -0x4(%rbp),%edx
    8b70:	0f b6 45 f8          	movzbl -0x8(%rbp),%eax
    8b74:	01 d0                	add    %edx,%eax
    8b76:	5d                   	pop    %rbp
    8b77:	c3                   	retq   

0000000000008b78 <safe_sub_func_uint8_t_u_u>:
    8b78:	f3 0f 1e fa          	endbr64 
    8b7c:	55                   	push   %rbp
    8b7d:	48 89 e5             	mov    %rsp,%rbp
    8b80:	89 fa                	mov    %edi,%edx
    8b82:	89 f0                	mov    %esi,%eax
    8b84:	88 55 fc             	mov    %dl,-0x4(%rbp)
    8b87:	88 45 f8             	mov    %al,-0x8(%rbp)
    8b8a:	0f b6 45 fc          	movzbl -0x4(%rbp),%eax
    8b8e:	2a 45 f8             	sub    -0x8(%rbp),%al
    8b91:	5d                   	pop    %rbp
    8b92:	c3                   	retq   

0000000000008b93 <safe_mul_func_uint8_t_u_u>:
    8b93:	f3 0f 1e fa          	endbr64 
    8b97:	55                   	push   %rbp
    8b98:	48 89 e5             	mov    %rsp,%rbp
    8b9b:	89 fa                	mov    %edi,%edx
    8b9d:	89 f0                	mov    %esi,%eax
    8b9f:	88 55 fc             	mov    %dl,-0x4(%rbp)
    8ba2:	88 45 f8             	mov    %al,-0x8(%rbp)
    8ba5:	0f b6 45 fc          	movzbl -0x4(%rbp),%eax
    8ba9:	f6 65 f8             	mulb   -0x8(%rbp)
    8bac:	5d                   	pop    %rbp
    8bad:	c3                   	retq   

0000000000008bae <safe_mod_func_uint8_t_u_u>:
    8bae:	f3 0f 1e fa          	endbr64 
    8bb2:	55                   	push   %rbp
    8bb3:	48 89 e5             	mov    %rsp,%rbp
    8bb6:	89 fa                	mov    %edi,%edx
    8bb8:	89 f0                	mov    %esi,%eax
    8bba:	88 55 fc             	mov    %dl,-0x4(%rbp)
    8bbd:	88 45 f8             	mov    %al,-0x8(%rbp)
    8bc0:	80 7d f8 00          	cmpb   $0x0,-0x8(%rbp)
    8bc4:	74 0f                	je     8bd5 <safe_mod_func_uint8_t_u_u+0x27>
    8bc6:	0f b6 45 fc          	movzbl -0x4(%rbp),%eax
    8bca:	0f b6 c0             	movzbl %al,%eax
    8bcd:	f6 75 f8             	divb   -0x8(%rbp)
    8bd0:	0f b6 c4             	movzbl %ah,%eax
    8bd3:	eb 04                	jmp    8bd9 <safe_mod_func_uint8_t_u_u+0x2b>
    8bd5:	0f b6 45 fc          	movzbl -0x4(%rbp),%eax
    8bd9:	5d                   	pop    %rbp
    8bda:	c3                   	retq   

0000000000008bdb <safe_div_func_uint8_t_u_u>:
    8bdb:	f3 0f 1e fa          	endbr64 
    8bdf:	55                   	push   %rbp
    8be0:	48 89 e5             	mov    %rsp,%rbp
    8be3:	89 fa                	mov    %edi,%edx
    8be5:	89 f0                	mov    %esi,%eax
    8be7:	88 55 fc             	mov    %dl,-0x4(%rbp)
    8bea:	88 45 f8             	mov    %al,-0x8(%rbp)
    8bed:	80 7d f8 00          	cmpb   $0x0,-0x8(%rbp)
    8bf1:	74 0c                	je     8bff <safe_div_func_uint8_t_u_u+0x24>
    8bf3:	0f b6 45 fc          	movzbl -0x4(%rbp),%eax
    8bf7:	0f b6 c0             	movzbl %al,%eax
    8bfa:	f6 75 f8             	divb   -0x8(%rbp)
    8bfd:	eb 04                	jmp    8c03 <safe_div_func_uint8_t_u_u+0x28>
    8bff:	0f b6 45 fc          	movzbl -0x4(%rbp),%eax
    8c03:	5d                   	pop    %rbp
    8c04:	c3                   	retq   

0000000000008c05 <safe_lshift_func_uint8_t_u_s>:
    8c05:	f3 0f 1e fa          	endbr64 
    8c09:	55                   	push   %rbp
    8c0a:	48 89 e5             	mov    %rsp,%rbp
    8c0d:	89 f8                	mov    %edi,%eax
    8c0f:	89 75 f8             	mov    %esi,-0x8(%rbp)
    8c12:	88 45 fc             	mov    %al,-0x4(%rbp)
    8c15:	83 7d f8 00          	cmpl   $0x0,-0x8(%rbp)
    8c19:	78 2b                	js     8c46 <safe_lshift_func_uint8_t_u_s+0x41>
    8c1b:	83 7d f8 1f          	cmpl   $0x1f,-0x8(%rbp)
    8c1f:	7f 25                	jg     8c46 <safe_lshift_func_uint8_t_u_s+0x41>
    8c21:	0f b6 55 fc          	movzbl -0x4(%rbp),%edx
    8c25:	8b 45 f8             	mov    -0x8(%rbp),%eax
    8c28:	be ff 00 00 00       	mov    $0xff,%esi
    8c2d:	89 c1                	mov    %eax,%ecx
    8c2f:	d3 fe                	sar    %cl,%esi
    8c31:	89 f0                	mov    %esi,%eax
    8c33:	39 c2                	cmp    %eax,%edx
    8c35:	7f 0f                	jg     8c46 <safe_lshift_func_uint8_t_u_s+0x41>
    8c37:	0f b6 55 fc          	movzbl -0x4(%rbp),%edx
    8c3b:	8b 45 f8             	mov    -0x8(%rbp),%eax
    8c3e:	89 c1                	mov    %eax,%ecx
    8c40:	d3 e2                	shl    %cl,%edx
    8c42:	89 d0                	mov    %edx,%eax
    8c44:	eb 04                	jmp    8c4a <safe_lshift_func_uint8_t_u_s+0x45>
    8c46:	0f b6 45 fc          	movzbl -0x4(%rbp),%eax
    8c4a:	5d                   	pop    %rbp
    8c4b:	c3                   	retq   

0000000000008c4c <safe_lshift_func_uint8_t_u_u>:
    8c4c:	f3 0f 1e fa          	endbr64 
    8c50:	55                   	push   %rbp
    8c51:	48 89 e5             	mov    %rsp,%rbp
    8c54:	89 f8                	mov    %edi,%eax
    8c56:	89 75 f8             	mov    %esi,-0x8(%rbp)
    8c59:	88 45 fc             	mov    %al,-0x4(%rbp)
    8c5c:	83 7d f8 1f          	cmpl   $0x1f,-0x8(%rbp)
    8c60:	77 25                	ja     8c87 <safe_lshift_func_uint8_t_u_u+0x3b>
    8c62:	0f b6 55 fc          	movzbl -0x4(%rbp),%edx
    8c66:	8b 45 f8             	mov    -0x8(%rbp),%eax
    8c69:	be ff 00 00 00       	mov    $0xff,%esi
    8c6e:	89 c1                	mov    %eax,%ecx
    8c70:	d3 fe                	sar    %cl,%esi
    8c72:	89 f0                	mov    %esi,%eax
    8c74:	39 c2                	cmp    %eax,%edx
    8c76:	7f 0f                	jg     8c87 <safe_lshift_func_uint8_t_u_u+0x3b>
    8c78:	0f b6 55 fc          	movzbl -0x4(%rbp),%edx
    8c7c:	8b 45 f8             	mov    -0x8(%rbp),%eax
    8c7f:	89 c1                	mov    %eax,%ecx
    8c81:	d3 e2                	shl    %cl,%edx
    8c83:	89 d0                	mov    %edx,%eax
    8c85:	eb 04                	jmp    8c8b <safe_lshift_func_uint8_t_u_u+0x3f>
    8c87:	0f b6 45 fc          	movzbl -0x4(%rbp),%eax
    8c8b:	5d                   	pop    %rbp
    8c8c:	c3                   	retq   

0000000000008c8d <safe_rshift_func_uint8_t_u_s>:
    8c8d:	f3 0f 1e fa          	endbr64 
    8c91:	55                   	push   %rbp
    8c92:	48 89 e5             	mov    %rsp,%rbp
    8c95:	89 f8                	mov    %edi,%eax
    8c97:	89 75 f8             	mov    %esi,-0x8(%rbp)
    8c9a:	88 45 fc             	mov    %al,-0x4(%rbp)
    8c9d:	83 7d f8 00          	cmpl   $0x0,-0x8(%rbp)
    8ca1:	78 15                	js     8cb8 <safe_rshift_func_uint8_t_u_s+0x2b>
    8ca3:	83 7d f8 1f          	cmpl   $0x1f,-0x8(%rbp)
    8ca7:	7f 0f                	jg     8cb8 <safe_rshift_func_uint8_t_u_s+0x2b>
    8ca9:	0f b6 55 fc          	movzbl -0x4(%rbp),%edx
    8cad:	8b 45 f8             	mov    -0x8(%rbp),%eax
    8cb0:	89 c1                	mov    %eax,%ecx
    8cb2:	d3 fa                	sar    %cl,%edx
    8cb4:	89 d0                	mov    %edx,%eax
    8cb6:	eb 04                	jmp    8cbc <safe_rshift_func_uint8_t_u_s+0x2f>
    8cb8:	0f b6 45 fc          	movzbl -0x4(%rbp),%eax
    8cbc:	5d                   	pop    %rbp
    8cbd:	c3                   	retq   

0000000000008cbe <safe_rshift_func_uint8_t_u_u>:
    8cbe:	f3 0f 1e fa          	endbr64 
    8cc2:	55                   	push   %rbp
    8cc3:	48 89 e5             	mov    %rsp,%rbp
    8cc6:	89 f8                	mov    %edi,%eax
    8cc8:	89 75 f8             	mov    %esi,-0x8(%rbp)
    8ccb:	88 45 fc             	mov    %al,-0x4(%rbp)
    8cce:	83 7d f8 1f          	cmpl   $0x1f,-0x8(%rbp)
    8cd2:	77 0f                	ja     8ce3 <safe_rshift_func_uint8_t_u_u+0x25>
    8cd4:	0f b6 55 fc          	movzbl -0x4(%rbp),%edx
    8cd8:	8b 45 f8             	mov    -0x8(%rbp),%eax
    8cdb:	89 c1                	mov    %eax,%ecx
    8cdd:	d3 fa                	sar    %cl,%edx
    8cdf:	89 d0                	mov    %edx,%eax
    8ce1:	eb 04                	jmp    8ce7 <safe_rshift_func_uint8_t_u_u+0x29>
    8ce3:	0f b6 45 fc          	movzbl -0x4(%rbp),%eax
    8ce7:	5d                   	pop    %rbp
    8ce8:	c3                   	retq   

0000000000008ce9 <safe_unary_minus_func_uint16_t_u>:
    8ce9:	f3 0f 1e fa          	endbr64 
    8ced:	55                   	push   %rbp
    8cee:	48 89 e5             	mov    %rsp,%rbp
    8cf1:	89 f8                	mov    %edi,%eax
    8cf3:	66 89 45 fc          	mov    %ax,-0x4(%rbp)
    8cf7:	0f b7 45 fc          	movzwl -0x4(%rbp),%eax
    8cfb:	f7 d8                	neg    %eax
    8cfd:	5d                   	pop    %rbp
    8cfe:	c3                   	retq   

0000000000008cff <safe_add_func_uint16_t_u_u>:
    8cff:	f3 0f 1e fa          	endbr64 
    8d03:	55                   	push   %rbp
    8d04:	48 89 e5             	mov    %rsp,%rbp
    8d07:	89 fa                	mov    %edi,%edx
    8d09:	89 f0                	mov    %esi,%eax
    8d0b:	66 89 55 fc          	mov    %dx,-0x4(%rbp)
    8d0f:	66 89 45 f8          	mov    %ax,-0x8(%rbp)
    8d13:	0f b7 55 fc          	movzwl -0x4(%rbp),%edx
    8d17:	0f b7 45 f8          	movzwl -0x8(%rbp),%eax
    8d1b:	01 d0                	add    %edx,%eax
    8d1d:	5d                   	pop    %rbp
    8d1e:	c3                   	retq   

0000000000008d1f <safe_sub_func_uint16_t_u_u>:
    8d1f:	f3 0f 1e fa          	endbr64 
    8d23:	55                   	push   %rbp
    8d24:	48 89 e5             	mov    %rsp,%rbp
    8d27:	89 fa                	mov    %edi,%edx
    8d29:	89 f0                	mov    %esi,%eax
    8d2b:	66 89 55 fc          	mov    %dx,-0x4(%rbp)
    8d2f:	66 89 45 f8          	mov    %ax,-0x8(%rbp)
    8d33:	0f b7 45 fc          	movzwl -0x4(%rbp),%eax
    8d37:	66 2b 45 f8          	sub    -0x8(%rbp),%ax
    8d3b:	5d                   	pop    %rbp
    8d3c:	c3                   	retq   

0000000000008d3d <safe_mul_func_uint16_t_u_u>:
    8d3d:	f3 0f 1e fa          	endbr64 
    8d41:	55                   	push   %rbp
    8d42:	48 89 e5             	mov    %rsp,%rbp
    8d45:	89 fa                	mov    %edi,%edx
    8d47:	89 f0                	mov    %esi,%eax
    8d49:	66 89 55 fc          	mov    %dx,-0x4(%rbp)
    8d4d:	66 89 45 f8          	mov    %ax,-0x8(%rbp)
    8d51:	0f b7 45 fc          	movzwl -0x4(%rbp),%eax
    8d55:	66 0f af 45 f8       	imul   -0x8(%rbp),%ax
    8d5a:	5d                   	pop    %rbp
    8d5b:	c3                   	retq   

0000000000008d5c <safe_mod_func_uint16_t_u_u>:
    8d5c:	f3 0f 1e fa          	endbr64 
    8d60:	55                   	push   %rbp
    8d61:	48 89 e5             	mov    %rsp,%rbp
    8d64:	89 fa                	mov    %edi,%edx
    8d66:	89 f0                	mov    %esi,%eax
    8d68:	66 89 55 fc          	mov    %dx,-0x4(%rbp)
    8d6c:	66 89 45 f8          	mov    %ax,-0x8(%rbp)
    8d70:	66 83 7d f8 00       	cmpw   $0x0,-0x8(%rbp)
    8d75:	74 11                	je     8d88 <safe_mod_func_uint16_t_u_u+0x2c>
    8d77:	0f b7 45 fc          	movzwl -0x4(%rbp),%eax
    8d7b:	ba 00 00 00 00       	mov    $0x0,%edx
    8d80:	66 f7 75 f8          	divw   -0x8(%rbp)
    8d84:	89 d0                	mov    %edx,%eax
    8d86:	eb 04                	jmp    8d8c <safe_mod_func_uint16_t_u_u+0x30>
    8d88:	0f b7 45 fc          	movzwl -0x4(%rbp),%eax
    8d8c:	5d                   	pop    %rbp
    8d8d:	c3                   	retq   

0000000000008d8e <safe_div_func_uint16_t_u_u>:
    8d8e:	f3 0f 1e fa          	endbr64 
    8d92:	55                   	push   %rbp
    8d93:	48 89 e5             	mov    %rsp,%rbp
    8d96:	89 fa                	mov    %edi,%edx
    8d98:	89 f0                	mov    %esi,%eax
    8d9a:	66 89 55 fc          	mov    %dx,-0x4(%rbp)
    8d9e:	66 89 45 f8          	mov    %ax,-0x8(%rbp)
    8da2:	66 83 7d f8 00       	cmpw   $0x0,-0x8(%rbp)
    8da7:	74 0f                	je     8db8 <safe_div_func_uint16_t_u_u+0x2a>
    8da9:	0f b7 45 fc          	movzwl -0x4(%rbp),%eax
    8dad:	ba 00 00 00 00       	mov    $0x0,%edx
    8db2:	66 f7 75 f8          	divw   -0x8(%rbp)
    8db6:	eb 04                	jmp    8dbc <safe_div_func_uint16_t_u_u+0x2e>
    8db8:	0f b7 45 fc          	movzwl -0x4(%rbp),%eax
    8dbc:	5d                   	pop    %rbp
    8dbd:	c3                   	retq   

0000000000008dbe <safe_lshift_func_uint16_t_u_s>:
    8dbe:	f3 0f 1e fa          	endbr64 
    8dc2:	55                   	push   %rbp
    8dc3:	48 89 e5             	mov    %rsp,%rbp
    8dc6:	89 f8                	mov    %edi,%eax
    8dc8:	89 75 f8             	mov    %esi,-0x8(%rbp)
    8dcb:	66 89 45 fc          	mov    %ax,-0x4(%rbp)
    8dcf:	83 7d f8 00          	cmpl   $0x0,-0x8(%rbp)
    8dd3:	78 2b                	js     8e00 <safe_lshift_func_uint16_t_u_s+0x42>
    8dd5:	83 7d f8 1f          	cmpl   $0x1f,-0x8(%rbp)
    8dd9:	7f 25                	jg     8e00 <safe_lshift_func_uint16_t_u_s+0x42>
    8ddb:	0f b7 55 fc          	movzwl -0x4(%rbp),%edx
    8ddf:	8b 45 f8             	mov    -0x8(%rbp),%eax
    8de2:	be ff ff 00 00       	mov    $0xffff,%esi
    8de7:	89 c1                	mov    %eax,%ecx
    8de9:	d3 fe                	sar    %cl,%esi
    8deb:	89 f0                	mov    %esi,%eax
    8ded:	39 c2                	cmp    %eax,%edx
    8def:	7f 0f                	jg     8e00 <safe_lshift_func_uint16_t_u_s+0x42>
    8df1:	0f b7 55 fc          	movzwl -0x4(%rbp),%edx
    8df5:	8b 45 f8             	mov    -0x8(%rbp),%eax
    8df8:	89 c1                	mov    %eax,%ecx
    8dfa:	d3 e2                	shl    %cl,%edx
    8dfc:	89 d0                	mov    %edx,%eax
    8dfe:	eb 04                	jmp    8e04 <safe_lshift_func_uint16_t_u_s+0x46>
    8e00:	0f b7 45 fc          	movzwl -0x4(%rbp),%eax
    8e04:	5d                   	pop    %rbp
    8e05:	c3                   	retq   

0000000000008e06 <safe_lshift_func_uint16_t_u_u>:
    8e06:	f3 0f 1e fa          	endbr64 
    8e0a:	55                   	push   %rbp
    8e0b:	48 89 e5             	mov    %rsp,%rbp
    8e0e:	89 f8                	mov    %edi,%eax
    8e10:	89 75 f8             	mov    %esi,-0x8(%rbp)
    8e13:	66 89 45 fc          	mov    %ax,-0x4(%rbp)
    8e17:	83 7d f8 1f          	cmpl   $0x1f,-0x8(%rbp)
    8e1b:	77 25                	ja     8e42 <safe_lshift_func_uint16_t_u_u+0x3c>
    8e1d:	0f b7 55 fc          	movzwl -0x4(%rbp),%edx
    8e21:	8b 45 f8             	mov    -0x8(%rbp),%eax
    8e24:	be ff ff 00 00       	mov    $0xffff,%esi
    8e29:	89 c1                	mov    %eax,%ecx
    8e2b:	d3 fe                	sar    %cl,%esi
    8e2d:	89 f0                	mov    %esi,%eax
    8e2f:	39 c2                	cmp    %eax,%edx
    8e31:	7f 0f                	jg     8e42 <safe_lshift_func_uint16_t_u_u+0x3c>
    8e33:	0f b7 55 fc          	movzwl -0x4(%rbp),%edx
    8e37:	8b 45 f8             	mov    -0x8(%rbp),%eax
    8e3a:	89 c1                	mov    %eax,%ecx
    8e3c:	d3 e2                	shl    %cl,%edx
    8e3e:	89 d0                	mov    %edx,%eax
    8e40:	eb 04                	jmp    8e46 <safe_lshift_func_uint16_t_u_u+0x40>
    8e42:	0f b7 45 fc          	movzwl -0x4(%rbp),%eax
    8e46:	5d                   	pop    %rbp
    8e47:	c3                   	retq   

0000000000008e48 <safe_rshift_func_uint16_t_u_s>:
    8e48:	f3 0f 1e fa          	endbr64 
    8e4c:	55                   	push   %rbp
    8e4d:	48 89 e5             	mov    %rsp,%rbp
    8e50:	89 f8                	mov    %edi,%eax
    8e52:	89 75 f8             	mov    %esi,-0x8(%rbp)
    8e55:	66 89 45 fc          	mov    %ax,-0x4(%rbp)
    8e59:	83 7d f8 00          	cmpl   $0x0,-0x8(%rbp)
    8e5d:	78 15                	js     8e74 <safe_rshift_func_uint16_t_u_s+0x2c>
    8e5f:	83 7d f8 1f          	cmpl   $0x1f,-0x8(%rbp)
    8e63:	7f 0f                	jg     8e74 <safe_rshift_func_uint16_t_u_s+0x2c>
    8e65:	0f b7 55 fc          	movzwl -0x4(%rbp),%edx
    8e69:	8b 45 f8             	mov    -0x8(%rbp),%eax
    8e6c:	89 c1                	mov    %eax,%ecx
    8e6e:	d3 fa                	sar    %cl,%edx
    8e70:	89 d0                	mov    %edx,%eax
    8e72:	eb 04                	jmp    8e78 <safe_rshift_func_uint16_t_u_s+0x30>
    8e74:	0f b7 45 fc          	movzwl -0x4(%rbp),%eax
    8e78:	5d                   	pop    %rbp
    8e79:	c3                   	retq   

0000000000008e7a <safe_rshift_func_uint16_t_u_u>:
    8e7a:	f3 0f 1e fa          	endbr64 
    8e7e:	55                   	push   %rbp
    8e7f:	48 89 e5             	mov    %rsp,%rbp
    8e82:	89 f8                	mov    %edi,%eax
    8e84:	89 75 f8             	mov    %esi,-0x8(%rbp)
    8e87:	66 89 45 fc          	mov    %ax,-0x4(%rbp)
    8e8b:	83 7d f8 1f          	cmpl   $0x1f,-0x8(%rbp)
    8e8f:	77 0f                	ja     8ea0 <safe_rshift_func_uint16_t_u_u+0x26>
    8e91:	0f b7 55 fc          	movzwl -0x4(%rbp),%edx
    8e95:	8b 45 f8             	mov    -0x8(%rbp),%eax
    8e98:	89 c1                	mov    %eax,%ecx
    8e9a:	d3 fa                	sar    %cl,%edx
    8e9c:	89 d0                	mov    %edx,%eax
    8e9e:	eb 04                	jmp    8ea4 <safe_rshift_func_uint16_t_u_u+0x2a>
    8ea0:	0f b7 45 fc          	movzwl -0x4(%rbp),%eax
    8ea4:	5d                   	pop    %rbp
    8ea5:	c3                   	retq   

0000000000008ea6 <safe_unary_minus_func_uint32_t_u>:
    8ea6:	f3 0f 1e fa          	endbr64 
    8eaa:	55                   	push   %rbp
    8eab:	48 89 e5             	mov    %rsp,%rbp
    8eae:	89 7d fc             	mov    %edi,-0x4(%rbp)
    8eb1:	8b 45 fc             	mov    -0x4(%rbp),%eax
    8eb4:	f7 d8                	neg    %eax
    8eb6:	5d                   	pop    %rbp
    8eb7:	c3                   	retq   

0000000000008eb8 <safe_add_func_uint32_t_u_u>:
    8eb8:	f3 0f 1e fa          	endbr64 
    8ebc:	55                   	push   %rbp
    8ebd:	48 89 e5             	mov    %rsp,%rbp
    8ec0:	89 7d fc             	mov    %edi,-0x4(%rbp)
    8ec3:	89 75 f8             	mov    %esi,-0x8(%rbp)
    8ec6:	8b 55 fc             	mov    -0x4(%rbp),%edx
    8ec9:	8b 45 f8             	mov    -0x8(%rbp),%eax
    8ecc:	01 d0                	add    %edx,%eax
    8ece:	5d                   	pop    %rbp
    8ecf:	c3                   	retq   

0000000000008ed0 <safe_sub_func_uint32_t_u_u>:
    8ed0:	f3 0f 1e fa          	endbr64 
    8ed4:	55                   	push   %rbp
    8ed5:	48 89 e5             	mov    %rsp,%rbp
    8ed8:	89 7d fc             	mov    %edi,-0x4(%rbp)
    8edb:	89 75 f8             	mov    %esi,-0x8(%rbp)
    8ede:	8b 45 fc             	mov    -0x4(%rbp),%eax
    8ee1:	2b 45 f8             	sub    -0x8(%rbp),%eax
    8ee4:	5d                   	pop    %rbp
    8ee5:	c3                   	retq   

0000000000008ee6 <safe_mul_func_uint32_t_u_u>:
    8ee6:	f3 0f 1e fa          	endbr64 
    8eea:	55                   	push   %rbp
    8eeb:	48 89 e5             	mov    %rsp,%rbp
    8eee:	89 7d fc             	mov    %edi,-0x4(%rbp)
    8ef1:	89 75 f8             	mov    %esi,-0x8(%rbp)
    8ef4:	8b 45 fc             	mov    -0x4(%rbp),%eax
    8ef7:	0f af 45 f8          	imul   -0x8(%rbp),%eax
    8efb:	5d                   	pop    %rbp
    8efc:	c3                   	retq   

0000000000008efd <safe_mod_func_uint32_t_u_u>:
    8efd:	f3 0f 1e fa          	endbr64 
    8f01:	55                   	push   %rbp
    8f02:	48 89 e5             	mov    %rsp,%rbp
    8f05:	89 7d fc             	mov    %edi,-0x4(%rbp)
    8f08:	89 75 f8             	mov    %esi,-0x8(%rbp)
    8f0b:	83 7d f8 00          	cmpl   $0x0,-0x8(%rbp)
    8f0f:	74 0f                	je     8f20 <safe_mod_func_uint32_t_u_u+0x23>
    8f11:	8b 45 fc             	mov    -0x4(%rbp),%eax
    8f14:	ba 00 00 00 00       	mov    $0x0,%edx
    8f19:	f7 75 f8             	divl   -0x8(%rbp)
    8f1c:	89 d0                	mov    %edx,%eax
    8f1e:	eb 03                	jmp    8f23 <safe_mod_func_uint32_t_u_u+0x26>
    8f20:	8b 45 fc             	mov    -0x4(%rbp),%eax
    8f23:	5d                   	pop    %rbp
    8f24:	c3                   	retq   

0000000000008f25 <safe_div_func_uint32_t_u_u>:
    8f25:	f3 0f 1e fa          	endbr64 
    8f29:	55                   	push   %rbp
    8f2a:	48 89 e5             	mov    %rsp,%rbp
    8f2d:	89 7d fc             	mov    %edi,-0x4(%rbp)
    8f30:	89 75 f8             	mov    %esi,-0x8(%rbp)
    8f33:	83 7d f8 00          	cmpl   $0x0,-0x8(%rbp)
    8f37:	74 0d                	je     8f46 <safe_div_func_uint32_t_u_u+0x21>
    8f39:	8b 45 fc             	mov    -0x4(%rbp),%eax
    8f3c:	ba 00 00 00 00       	mov    $0x0,%edx
    8f41:	f7 75 f8             	divl   -0x8(%rbp)
    8f44:	eb 03                	jmp    8f49 <safe_div_func_uint32_t_u_u+0x24>
    8f46:	8b 45 fc             	mov    -0x4(%rbp),%eax
    8f49:	5d                   	pop    %rbp
    8f4a:	c3                   	retq   

0000000000008f4b <safe_lshift_func_uint32_t_u_s>:
    8f4b:	f3 0f 1e fa          	endbr64 
    8f4f:	55                   	push   %rbp
    8f50:	48 89 e5             	mov    %rsp,%rbp
    8f53:	89 7d fc             	mov    %edi,-0x4(%rbp)
    8f56:	89 75 f8             	mov    %esi,-0x8(%rbp)
    8f59:	83 7d f8 00          	cmpl   $0x0,-0x8(%rbp)
    8f5d:	78 27                	js     8f86 <safe_lshift_func_uint32_t_u_s+0x3b>
    8f5f:	83 7d f8 1f          	cmpl   $0x1f,-0x8(%rbp)
    8f63:	7f 21                	jg     8f86 <safe_lshift_func_uint32_t_u_s+0x3b>
    8f65:	8b 45 f8             	mov    -0x8(%rbp),%eax
    8f68:	ba ff ff ff ff       	mov    $0xffffffff,%edx
    8f6d:	89 c1                	mov    %eax,%ecx
    8f6f:	d3 ea                	shr    %cl,%edx
    8f71:	89 d0                	mov    %edx,%eax
    8f73:	39 45 fc             	cmp    %eax,-0x4(%rbp)
    8f76:	77 0e                	ja     8f86 <safe_lshift_func_uint32_t_u_s+0x3b>
    8f78:	8b 45 f8             	mov    -0x8(%rbp),%eax
    8f7b:	8b 55 fc             	mov    -0x4(%rbp),%edx
    8f7e:	89 c1                	mov    %eax,%ecx
    8f80:	d3 e2                	shl    %cl,%edx
    8f82:	89 d0                	mov    %edx,%eax
    8f84:	eb 03                	jmp    8f89 <safe_lshift_func_uint32_t_u_s+0x3e>
    8f86:	8b 45 fc             	mov    -0x4(%rbp),%eax
    8f89:	5d                   	pop    %rbp
    8f8a:	c3                   	retq   

0000000000008f8b <safe_lshift_func_uint32_t_u_u>:
    8f8b:	f3 0f 1e fa          	endbr64 
    8f8f:	55                   	push   %rbp
    8f90:	48 89 e5             	mov    %rsp,%rbp
    8f93:	89 7d fc             	mov    %edi,-0x4(%rbp)
    8f96:	89 75 f8             	mov    %esi,-0x8(%rbp)
    8f99:	83 7d f8 1f          	cmpl   $0x1f,-0x8(%rbp)
    8f9d:	77 21                	ja     8fc0 <safe_lshift_func_uint32_t_u_u+0x35>
    8f9f:	8b 45 f8             	mov    -0x8(%rbp),%eax
    8fa2:	ba ff ff ff ff       	mov    $0xffffffff,%edx
    8fa7:	89 c1                	mov    %eax,%ecx
    8fa9:	d3 ea                	shr    %cl,%edx
    8fab:	89 d0                	mov    %edx,%eax
    8fad:	39 45 fc             	cmp    %eax,-0x4(%rbp)
    8fb0:	77 0e                	ja     8fc0 <safe_lshift_func_uint32_t_u_u+0x35>
    8fb2:	8b 45 f8             	mov    -0x8(%rbp),%eax
    8fb5:	8b 55 fc             	mov    -0x4(%rbp),%edx
    8fb8:	89 c1                	mov    %eax,%ecx
    8fba:	d3 e2                	shl    %cl,%edx
    8fbc:	89 d0                	mov    %edx,%eax
    8fbe:	eb 03                	jmp    8fc3 <safe_lshift_func_uint32_t_u_u+0x38>
    8fc0:	8b 45 fc             	mov    -0x4(%rbp),%eax
    8fc3:	5d                   	pop    %rbp
    8fc4:	c3                   	retq   

0000000000008fc5 <safe_rshift_func_uint32_t_u_s>:
    8fc5:	f3 0f 1e fa          	endbr64 
    8fc9:	55                   	push   %rbp
    8fca:	48 89 e5             	mov    %rsp,%rbp
    8fcd:	89 7d fc             	mov    %edi,-0x4(%rbp)
    8fd0:	89 75 f8             	mov    %esi,-0x8(%rbp)
    8fd3:	83 7d f8 00          	cmpl   $0x0,-0x8(%rbp)
    8fd7:	78 14                	js     8fed <safe_rshift_func_uint32_t_u_s+0x28>
    8fd9:	83 7d f8 1f          	cmpl   $0x1f,-0x8(%rbp)
    8fdd:	7f 0e                	jg     8fed <safe_rshift_func_uint32_t_u_s+0x28>
    8fdf:	8b 45 f8             	mov    -0x8(%rbp),%eax
    8fe2:	8b 55 fc             	mov    -0x4(%rbp),%edx
    8fe5:	89 c1                	mov    %eax,%ecx
    8fe7:	d3 ea                	shr    %cl,%edx
    8fe9:	89 d0                	mov    %edx,%eax
    8feb:	eb 03                	jmp    8ff0 <safe_rshift_func_uint32_t_u_s+0x2b>
    8fed:	8b 45 fc             	mov    -0x4(%rbp),%eax
    8ff0:	5d                   	pop    %rbp
    8ff1:	c3                   	retq   

0000000000008ff2 <safe_rshift_func_uint32_t_u_u>:
    8ff2:	f3 0f 1e fa          	endbr64 
    8ff6:	55                   	push   %rbp
    8ff7:	48 89 e5             	mov    %rsp,%rbp
    8ffa:	89 7d fc             	mov    %edi,-0x4(%rbp)
    8ffd:	89 75 f8             	mov    %esi,-0x8(%rbp)
    9000:	83 7d f8 1f          	cmpl   $0x1f,-0x8(%rbp)
    9004:	77 0e                	ja     9014 <safe_rshift_func_uint32_t_u_u+0x22>
    9006:	8b 45 f8             	mov    -0x8(%rbp),%eax
    9009:	8b 55 fc             	mov    -0x4(%rbp),%edx
    900c:	89 c1                	mov    %eax,%ecx
    900e:	d3 ea                	shr    %cl,%edx
    9010:	89 d0                	mov    %edx,%eax
    9012:	eb 03                	jmp    9017 <safe_rshift_func_uint32_t_u_u+0x25>
    9014:	8b 45 fc             	mov    -0x4(%rbp),%eax
    9017:	5d                   	pop    %rbp
    9018:	c3                   	retq   

0000000000009019 <safe_unary_minus_func_uint64_t_u>:
    9019:	f3 0f 1e fa          	endbr64 
    901d:	55                   	push   %rbp
    901e:	48 89 e5             	mov    %rsp,%rbp
    9021:	48 89 7d f8          	mov    %rdi,-0x8(%rbp)
    9025:	48 8b 45 f8          	mov    -0x8(%rbp),%rax
    9029:	48 f7 d8             	neg    %rax
    902c:	5d                   	pop    %rbp
    902d:	c3                   	retq   

000000000000902e <safe_add_func_uint64_t_u_u>:
    902e:	f3 0f 1e fa          	endbr64 
    9032:	55                   	push   %rbp
    9033:	48 89 e5             	mov    %rsp,%rbp
    9036:	48 89 7d f8          	mov    %rdi,-0x8(%rbp)
    903a:	48 89 75 f0          	mov    %rsi,-0x10(%rbp)
    903e:	48 8b 55 f8          	mov    -0x8(%rbp),%rdx
    9042:	48 8b 45 f0          	mov    -0x10(%rbp),%rax
    9046:	48 01 d0             	add    %rdx,%rax
    9049:	5d                   	pop    %rbp
    904a:	c3                   	retq   

000000000000904b <safe_sub_func_uint64_t_u_u>:
    904b:	f3 0f 1e fa          	endbr64 
    904f:	55                   	push   %rbp
    9050:	48 89 e5             	mov    %rsp,%rbp
    9053:	48 89 7d f8          	mov    %rdi,-0x8(%rbp)
    9057:	48 89 75 f0          	mov    %rsi,-0x10(%rbp)
    905b:	48 8b 45 f8          	mov    -0x8(%rbp),%rax
    905f:	48 2b 45 f0          	sub    -0x10(%rbp),%rax
    9063:	5d                   	pop    %rbp
    9064:	c3                   	retq   

0000000000009065 <safe_mul_func_uint64_t_u_u>:
    9065:	f3 0f 1e fa          	endbr64 
    9069:	55                   	push   %rbp
    906a:	48 89 e5             	mov    %rsp,%rbp
    906d:	48 89 7d f8          	mov    %rdi,-0x8(%rbp)
    9071:	48 89 75 f0          	mov    %rsi,-0x10(%rbp)
    9075:	48 8b 45 f8          	mov    -0x8(%rbp),%rax
    9079:	48 0f af 45 f0       	imul   -0x10(%rbp),%rax
    907e:	5d                   	pop    %rbp
    907f:	c3                   	retq   

0000000000009080 <safe_mod_func_uint64_t_u_u>:
    9080:	f3 0f 1e fa          	endbr64 
    9084:	55                   	push   %rbp
    9085:	48 89 e5             	mov    %rsp,%rbp
    9088:	48 89 7d f8          	mov    %rdi,-0x8(%rbp)
    908c:	48 89 75 f0          	mov    %rsi,-0x10(%rbp)
    9090:	48 83 7d f0 00       	cmpq   $0x0,-0x10(%rbp)
    9095:	74 12                	je     90a9 <safe_mod_func_uint64_t_u_u+0x29>
    9097:	48 8b 45 f8          	mov    -0x8(%rbp),%rax
    909b:	ba 00 00 00 00       	mov    $0x0,%edx
    90a0:	48 f7 75 f0          	divq   -0x10(%rbp)
    90a4:	48 89 d0             	mov    %rdx,%rax
    90a7:	eb 04                	jmp    90ad <safe_mod_func_uint64_t_u_u+0x2d>
    90a9:	48 8b 45 f8          	mov    -0x8(%rbp),%rax
    90ad:	5d                   	pop    %rbp
    90ae:	c3                   	retq   

00000000000090af <safe_div_func_uint64_t_u_u>:
    90af:	f3 0f 1e fa          	endbr64 
    90b3:	55                   	push   %rbp
    90b4:	48 89 e5             	mov    %rsp,%rbp
    90b7:	48 89 7d f8          	mov    %rdi,-0x8(%rbp)
    90bb:	48 89 75 f0          	mov    %rsi,-0x10(%rbp)
    90bf:	48 83 7d f0 00       	cmpq   $0x0,-0x10(%rbp)
    90c4:	74 0f                	je     90d5 <safe_div_func_uint64_t_u_u+0x26>
    90c6:	48 8b 45 f8          	mov    -0x8(%rbp),%rax
    90ca:	ba 00 00 00 00       	mov    $0x0,%edx
    90cf:	48 f7 75 f0          	divq   -0x10(%rbp)
    90d3:	eb 04                	jmp    90d9 <safe_div_func_uint64_t_u_u+0x2a>
    90d5:	48 8b 45 f8          	mov    -0x8(%rbp),%rax
    90d9:	5d                   	pop    %rbp
    90da:	c3                   	retq   

00000000000090db <safe_lshift_func_uint64_t_u_s>:
    90db:	f3 0f 1e fa          	endbr64 
    90df:	55                   	push   %rbp
    90e0:	48 89 e5             	mov    %rsp,%rbp
    90e3:	48 89 7d f8          	mov    %rdi,-0x8(%rbp)
    90e7:	89 75 f4             	mov    %esi,-0xc(%rbp)
    90ea:	83 7d f4 00          	cmpl   $0x0,-0xc(%rbp)
    90ee:	78 2f                	js     911f <safe_lshift_func_uint64_t_u_s+0x44>
    90f0:	83 7d f4 1f          	cmpl   $0x1f,-0xc(%rbp)
    90f4:	7f 29                	jg     911f <safe_lshift_func_uint64_t_u_s+0x44>
    90f6:	8b 45 f4             	mov    -0xc(%rbp),%eax
    90f9:	48 c7 c2 ff ff ff ff 	mov    $0xffffffffffffffff,%rdx
    9100:	89 c1                	mov    %eax,%ecx
    9102:	48 d3 ea             	shr    %cl,%rdx
    9105:	48 89 d0             	mov    %rdx,%rax
    9108:	48 39 45 f8          	cmp    %rax,-0x8(%rbp)
    910c:	77 11                	ja     911f <safe_lshift_func_uint64_t_u_s+0x44>
    910e:	8b 45 f4             	mov    -0xc(%rbp),%eax
    9111:	48 8b 55 f8          	mov    -0x8(%rbp),%rdx
    9115:	89 c1                	mov    %eax,%ecx
    9117:	48 d3 e2             	shl    %cl,%rdx
    911a:	48 89 d0             	mov    %rdx,%rax
    911d:	eb 04                	jmp    9123 <safe_lshift_func_uint64_t_u_s+0x48>
    911f:	48 8b 45 f8          	mov    -0x8(%rbp),%rax
    9123:	5d                   	pop    %rbp
    9124:	c3                   	retq   

0000000000009125 <safe_lshift_func_uint64_t_u_u>:
    9125:	f3 0f 1e fa          	endbr64 
    9129:	55                   	push   %rbp
    912a:	48 89 e5             	mov    %rsp,%rbp
    912d:	48 89 7d f8          	mov    %rdi,-0x8(%rbp)
    9131:	89 75 f4             	mov    %esi,-0xc(%rbp)
    9134:	83 7d f4 1f          	cmpl   $0x1f,-0xc(%rbp)
    9138:	77 29                	ja     9163 <safe_lshift_func_uint64_t_u_u+0x3e>
    913a:	8b 45 f4             	mov    -0xc(%rbp),%eax
    913d:	48 c7 c2 ff ff ff ff 	mov    $0xffffffffffffffff,%rdx
    9144:	89 c1                	mov    %eax,%ecx
    9146:	48 d3 ea             	shr    %cl,%rdx
    9149:	48 89 d0             	mov    %rdx,%rax
    914c:	48 39 45 f8          	cmp    %rax,-0x8(%rbp)
    9150:	77 11                	ja     9163 <safe_lshift_func_uint64_t_u_u+0x3e>
    9152:	8b 45 f4             	mov    -0xc(%rbp),%eax
    9155:	48 8b 55 f8          	mov    -0x8(%rbp),%rdx
    9159:	89 c1                	mov    %eax,%ecx
    915b:	48 d3 e2             	shl    %cl,%rdx
    915e:	48 89 d0             	mov    %rdx,%rax
    9161:	eb 04                	jmp    9167 <safe_lshift_func_uint64_t_u_u+0x42>
    9163:	48 8b 45 f8          	mov    -0x8(%rbp),%rax
    9167:	5d                   	pop    %rbp
    9168:	c3                   	retq   

0000000000009169 <safe_rshift_func_uint64_t_u_s>:
    9169:	f3 0f 1e fa          	endbr64 
    916d:	55                   	push   %rbp
    916e:	48 89 e5             	mov    %rsp,%rbp
    9171:	48 89 7d f8          	mov    %rdi,-0x8(%rbp)
    9175:	89 75 f4             	mov    %esi,-0xc(%rbp)
    9178:	83 7d f4 00          	cmpl   $0x0,-0xc(%rbp)
    917c:	78 17                	js     9195 <safe_rshift_func_uint64_t_u_s+0x2c>
    917e:	83 7d f4 1f          	cmpl   $0x1f,-0xc(%rbp)
    9182:	7f 11                	jg     9195 <safe_rshift_func_uint64_t_u_s+0x2c>
    9184:	8b 45 f4             	mov    -0xc(%rbp),%eax
    9187:	48 8b 55 f8          	mov    -0x8(%rbp),%rdx
    918b:	89 c1                	mov    %eax,%ecx
    918d:	48 d3 ea             	shr    %cl,%rdx
    9190:	48 89 d0             	mov    %rdx,%rax
    9193:	eb 04                	jmp    9199 <safe_rshift_func_uint64_t_u_s+0x30>
    9195:	48 8b 45 f8          	mov    -0x8(%rbp),%rax
    9199:	5d                   	pop    %rbp
    919a:	c3                   	retq   

000000000000919b <safe_rshift_func_uint64_t_u_u>:
    919b:	f3 0f 1e fa          	endbr64 
    919f:	55                   	push   %rbp
    91a0:	48 89 e5             	mov    %rsp,%rbp
    91a3:	48 89 7d f8          	mov    %rdi,-0x8(%rbp)
    91a7:	89 75 f4             	mov    %esi,-0xc(%rbp)
    91aa:	83 7d f4 1f          	cmpl   $0x1f,-0xc(%rbp)
    91ae:	77 11                	ja     91c1 <safe_rshift_func_uint64_t_u_u+0x26>
    91b0:	8b 45 f4             	mov    -0xc(%rbp),%eax
    91b3:	48 8b 55 f8          	mov    -0x8(%rbp),%rdx
    91b7:	89 c1                	mov    %eax,%ecx
    91b9:	48 d3 ea             	shr    %cl,%rdx
    91bc:	48 89 d0             	mov    %rdx,%rax
    91bf:	eb 04                	jmp    91c5 <safe_rshift_func_uint64_t_u_u+0x2a>
    91c1:	48 8b 45 f8          	mov    -0x8(%rbp),%rax
    91c5:	5d                   	pop    %rbp
    91c6:	c3                   	retq   

00000000000091c7 <safe_add_func_float_f_f>:
    91c7:	f3 0f 1e fa          	endbr64 
    91cb:	55                   	push   %rbp
    91cc:	48 89 e5             	mov    %rsp,%rbp
    91cf:	f3 0f 11 45 fc       	movss  %xmm0,-0x4(%rbp)
    91d4:	f3 0f 11 4d f8       	movss  %xmm1,-0x8(%rbp)
    91d9:	f3 0f 10 4d fc       	movss  -0x4(%rbp),%xmm1
    91de:	f3 0f 10 05 aa 16 01 	movss  0x116aa(%rip),%xmm0        # 1a890 <l_860.4638+0x230>
    91e5:	00 
    91e6:	f3 0f 59 c8          	mulss  %xmm0,%xmm1
    91ea:	f3 0f 10 55 f8       	movss  -0x8(%rbp),%xmm2
    91ef:	f3 0f 10 05 99 16 01 	movss  0x11699(%rip),%xmm0        # 1a890 <l_860.4638+0x230>
    91f6:	00 
    91f7:	f3 0f 59 c2          	mulss  %xmm2,%xmm0
    91fb:	f3 0f 58 c1          	addss  %xmm1,%xmm0
    91ff:	f3 0f 10 0d 99 16 01 	movss  0x11699(%rip),%xmm1        # 1a8a0 <l_860.4638+0x240>
    9206:	00 
    9207:	0f 54 c1             	andps  %xmm1,%xmm0
    920a:	0f 2f 05 9f 16 01 00 	comiss 0x1169f(%rip),%xmm0        # 1a8b0 <l_860.4638+0x250>
    9211:	76 07                	jbe    921a <safe_add_func_float_f_f+0x53>
    9213:	f3 0f 10 45 fc       	movss  -0x4(%rbp),%xmm0
    9218:	eb 0a                	jmp    9224 <safe_add_func_float_f_f+0x5d>
    921a:	f3 0f 10 45 fc       	movss  -0x4(%rbp),%xmm0
    921f:	f3 0f 58 45 f8       	addss  -0x8(%rbp),%xmm0
    9224:	5d                   	pop    %rbp
    9225:	c3                   	retq   

0000000000009226 <safe_sub_func_float_f_f>:
    9226:	f3 0f 1e fa          	endbr64 
    922a:	55                   	push   %rbp
    922b:	48 89 e5             	mov    %rsp,%rbp
    922e:	f3 0f 11 45 fc       	movss  %xmm0,-0x4(%rbp)
    9233:	f3 0f 11 4d f8       	movss  %xmm1,-0x8(%rbp)
    9238:	f3 0f 10 4d fc       	movss  -0x4(%rbp),%xmm1
    923d:	f3 0f 10 05 4b 16 01 	movss  0x1164b(%rip),%xmm0        # 1a890 <l_860.4638+0x230>
    9244:	00 
    9245:	f3 0f 59 c1          	mulss  %xmm1,%xmm0
    9249:	f3 0f 10 55 f8       	movss  -0x8(%rbp),%xmm2
    924e:	f3 0f 10 0d 3a 16 01 	movss  0x1163a(%rip),%xmm1        # 1a890 <l_860.4638+0x230>
    9255:	00 
    9256:	f3 0f 59 ca          	mulss  %xmm2,%xmm1
    925a:	f3 0f 5c c1          	subss  %xmm1,%xmm0
    925e:	f3 0f 10 0d 3a 16 01 	movss  0x1163a(%rip),%xmm1        # 1a8a0 <l_860.4638+0x240>
    9265:	00 
    9266:	0f 54 c1             	andps  %xmm1,%xmm0
    9269:	0f 2f 05 40 16 01 00 	comiss 0x11640(%rip),%xmm0        # 1a8b0 <l_860.4638+0x250>
    9270:	76 07                	jbe    9279 <safe_sub_func_float_f_f+0x53>
    9272:	f3 0f 10 45 fc       	movss  -0x4(%rbp),%xmm0
    9277:	eb 0a                	jmp    9283 <safe_sub_func_float_f_f+0x5d>
    9279:	f3 0f 10 45 fc       	movss  -0x4(%rbp),%xmm0
    927e:	f3 0f 5c 45 f8       	subss  -0x8(%rbp),%xmm0
    9283:	5d                   	pop    %rbp
    9284:	c3                   	retq   

0000000000009285 <safe_mul_func_float_f_f>:
    9285:	f3 0f 1e fa          	endbr64 
    9289:	55                   	push   %rbp
    928a:	48 89 e5             	mov    %rsp,%rbp
    928d:	f3 0f 11 45 fc       	movss  %xmm0,-0x4(%rbp)
    9292:	f3 0f 11 4d f8       	movss  %xmm1,-0x8(%rbp)
    9297:	f3 0f 10 4d fc       	movss  -0x4(%rbp),%xmm1
    929c:	f3 0f 10 05 10 16 01 	movss  0x11610(%rip),%xmm0        # 1a8b4 <l_860.4638+0x254>
    92a3:	00 
    92a4:	f3 0f 59 c8          	mulss  %xmm0,%xmm1
    92a8:	f3 0f 10 55 f8       	movss  -0x8(%rbp),%xmm2
    92ad:	f3 0f 10 05 03 16 01 	movss  0x11603(%rip),%xmm0        # 1a8b8 <l_860.4638+0x258>
    92b4:	00 
    92b5:	f3 0f 59 c2          	mulss  %xmm2,%xmm0
    92b9:	f3 0f 59 c1          	mulss  %xmm1,%xmm0
    92bd:	f3 0f 10 0d db 15 01 	movss  0x115db(%rip),%xmm1        # 1a8a0 <l_860.4638+0x240>
    92c4:	00 
    92c5:	0f 54 c1             	andps  %xmm1,%xmm0
    92c8:	0f 2f 05 ed 15 01 00 	comiss 0x115ed(%rip),%xmm0        # 1a8bc <l_860.4638+0x25c>
    92cf:	76 07                	jbe    92d8 <safe_mul_func_float_f_f+0x53>
    92d1:	f3 0f 10 45 fc       	movss  -0x4(%rbp),%xmm0
    92d6:	eb 0a                	jmp    92e2 <safe_mul_func_float_f_f+0x5d>
    92d8:	f3 0f 10 45 fc       	movss  -0x4(%rbp),%xmm0
    92dd:	f3 0f 59 45 f8       	mulss  -0x8(%rbp),%xmm0
    92e2:	5d                   	pop    %rbp
    92e3:	c3                   	retq   

00000000000092e4 <safe_div_func_float_f_f>:
    92e4:	f3 0f 1e fa          	endbr64 
    92e8:	55                   	push   %rbp
    92e9:	48 89 e5             	mov    %rsp,%rbp
    92ec:	f3 0f 11 45 fc       	movss  %xmm0,-0x4(%rbp)
    92f1:	f3 0f 11 4d f8       	movss  %xmm1,-0x8(%rbp)
    92f6:	f3 0f 10 45 f8       	movss  -0x8(%rbp),%xmm0
    92fb:	f3 0f 10 0d 9d 15 01 	movss  0x1159d(%rip),%xmm1        # 1a8a0 <l_860.4638+0x240>
    9302:	00 
    9303:	0f 54 c8             	andps  %xmm0,%xmm1
    9306:	f3 0f 10 05 b2 15 01 	movss  0x115b2(%rip),%xmm0        # 1a8c0 <l_860.4638+0x260>
    930d:	00 
    930e:	0f 2f c1             	comiss %xmm1,%xmm0
    9311:	0f 97 c0             	seta   %al
    9314:	83 f0 01             	xor    $0x1,%eax
    9317:	84 c0                	test   %al,%al
    9319:	75 56                	jne    9371 <safe_div_func_float_f_f+0x8d>
    931b:	66 0f ef c0          	pxor   %xmm0,%xmm0
    931f:	0f 2e 45 f8          	ucomiss -0x8(%rbp),%xmm0
    9323:	7a 0a                	jp     932f <safe_div_func_float_f_f+0x4b>
    9325:	66 0f ef c0          	pxor   %xmm0,%xmm0
    9329:	0f 2e 45 f8          	ucomiss -0x8(%rbp),%xmm0
    932d:	74 4e                	je     937d <safe_div_func_float_f_f+0x99>
    932f:	f3 0f 10 4d fc       	movss  -0x4(%rbp),%xmm1
    9334:	f3 0f 10 05 88 15 01 	movss  0x11588(%rip),%xmm0        # 1a8c4 <l_860.4638+0x264>
    933b:	00 
    933c:	f3 0f 59 c1          	mulss  %xmm1,%xmm0
    9340:	f3 0f 10 55 f8       	movss  -0x8(%rbp),%xmm2
    9345:	f3 0f 10 0d 7b 15 01 	movss  0x1157b(%rip),%xmm1        # 1a8c8 <l_860.4638+0x268>
    934c:	00 
    934d:	f3 0f 59 ca          	mulss  %xmm2,%xmm1
    9351:	f3 0f 5e c1          	divss  %xmm1,%xmm0
    9355:	f3 0f 10 0d 43 15 01 	movss  0x11543(%rip),%xmm1        # 1a8a0 <l_860.4638+0x240>
    935c:	00 
    935d:	0f 54 c1             	andps  %xmm1,%xmm0
    9360:	0f 2f 05 65 15 01 00 	comiss 0x11565(%rip),%xmm0        # 1a8cc <l_860.4638+0x26c>
    9367:	0f 97 c0             	seta   %al
    936a:	83 f0 01             	xor    $0x1,%eax
    936d:	84 c0                	test   %al,%al
    936f:	74 0c                	je     937d <safe_div_func_float_f_f+0x99>
    9371:	f3 0f 10 45 fc       	movss  -0x4(%rbp),%xmm0
    9376:	f3 0f 5e 45 f8       	divss  -0x8(%rbp),%xmm0
    937b:	eb 05                	jmp    9382 <safe_div_func_float_f_f+0x9e>
    937d:	f3 0f 10 45 fc       	movss  -0x4(%rbp),%xmm0
    9382:	5d                   	pop    %rbp
    9383:	c3                   	retq   

0000000000009384 <safe_add_func_double_f_f>:
    9384:	f3 0f 1e fa          	endbr64 
    9388:	55                   	push   %rbp
    9389:	48 89 e5             	mov    %rsp,%rbp
    938c:	f2 0f 11 45 f8       	movsd  %xmm0,-0x8(%rbp)
    9391:	f2 0f 11 4d f0       	movsd  %xmm1,-0x10(%rbp)
    9396:	f2 0f 10 4d f8       	movsd  -0x8(%rbp),%xmm1
    939b:	f2 0f 10 05 2d 15 01 	movsd  0x1152d(%rip),%xmm0        # 1a8d0 <l_860.4638+0x270>
    93a2:	00 
    93a3:	f2 0f 59 c8          	mulsd  %xmm0,%xmm1
    93a7:	f2 0f 10 55 f0       	movsd  -0x10(%rbp),%xmm2
    93ac:	f2 0f 10 05 1c 15 01 	movsd  0x1151c(%rip),%xmm0        # 1a8d0 <l_860.4638+0x270>
    93b3:	00 
    93b4:	f2 0f 59 c2          	mulsd  %xmm2,%xmm0
    93b8:	f2 0f 58 c1          	addsd  %xmm1,%xmm0
    93bc:	f3 0f 7e 0d 1c 15 01 	movq   0x1151c(%rip),%xmm1        # 1a8e0 <l_860.4638+0x280>
    93c3:	00 
    93c4:	66 0f 54 c1          	andpd  %xmm1,%xmm0
    93c8:	66 0f 2f 05 20 15 01 	comisd 0x11520(%rip),%xmm0        # 1a8f0 <l_860.4638+0x290>
    93cf:	00 
    93d0:	76 07                	jbe    93d9 <safe_add_func_double_f_f+0x55>
    93d2:	f2 0f 10 45 f8       	movsd  -0x8(%rbp),%xmm0
    93d7:	eb 0a                	jmp    93e3 <safe_add_func_double_f_f+0x5f>
    93d9:	f2 0f 10 45 f8       	movsd  -0x8(%rbp),%xmm0
    93de:	f2 0f 58 45 f0       	addsd  -0x10(%rbp),%xmm0
    93e3:	5d                   	pop    %rbp
    93e4:	c3                   	retq   

00000000000093e5 <safe_sub_func_double_f_f>:
    93e5:	f3 0f 1e fa          	endbr64 
    93e9:	55                   	push   %rbp
    93ea:	48 89 e5             	mov    %rsp,%rbp
    93ed:	f2 0f 11 45 f8       	movsd  %xmm0,-0x8(%rbp)
    93f2:	f2 0f 11 4d f0       	movsd  %xmm1,-0x10(%rbp)
    93f7:	f2 0f 10 4d f8       	movsd  -0x8(%rbp),%xmm1
    93fc:	f2 0f 10 05 cc 14 01 	movsd  0x114cc(%rip),%xmm0        # 1a8d0 <l_860.4638+0x270>
    9403:	00 
    9404:	f2 0f 59 c1          	mulsd  %xmm1,%xmm0
    9408:	f2 0f 10 55 f0       	movsd  -0x10(%rbp),%xmm2
    940d:	f2 0f 10 0d bb 14 01 	movsd  0x114bb(%rip),%xmm1        # 1a8d0 <l_860.4638+0x270>
    9414:	00 
    9415:	f2 0f 59 ca          	mulsd  %xmm2,%xmm1
    9419:	f2 0f 5c c1          	subsd  %xmm1,%xmm0
    941d:	f3 0f 7e 0d bb 14 01 	movq   0x114bb(%rip),%xmm1        # 1a8e0 <l_860.4638+0x280>
    9424:	00 
    9425:	66 0f 54 c1          	andpd  %xmm1,%xmm0
    9429:	66 0f 2f 05 bf 14 01 	comisd 0x114bf(%rip),%xmm0        # 1a8f0 <l_860.4638+0x290>
    9430:	00 
    9431:	76 07                	jbe    943a <safe_sub_func_double_f_f+0x55>
    9433:	f2 0f 10 45 f8       	movsd  -0x8(%rbp),%xmm0
    9438:	eb 0a                	jmp    9444 <safe_sub_func_double_f_f+0x5f>
    943a:	f2 0f 10 45 f8       	movsd  -0x8(%rbp),%xmm0
    943f:	f2 0f 5c 45 f0       	subsd  -0x10(%rbp),%xmm0
    9444:	5d                   	pop    %rbp
    9445:	c3                   	retq   

0000000000009446 <safe_mul_func_double_f_f>:
    9446:	f3 0f 1e fa          	endbr64 
    944a:	55                   	push   %rbp
    944b:	48 89 e5             	mov    %rsp,%rbp
    944e:	f2 0f 11 45 f8       	movsd  %xmm0,-0x8(%rbp)
    9453:	f2 0f 11 4d f0       	movsd  %xmm1,-0x10(%rbp)
    9458:	f2 0f 10 4d f8       	movsd  -0x8(%rbp),%xmm1
    945d:	f2 0f 10 05 93 14 01 	movsd  0x11493(%rip),%xmm0        # 1a8f8 <l_860.4638+0x298>
    9464:	00 
    9465:	f2 0f 59 c8          	mulsd  %xmm0,%xmm1
    9469:	f2 0f 10 55 f0       	movsd  -0x10(%rbp),%xmm2
    946e:	f2 0f 10 05 8a 14 01 	movsd  0x1148a(%rip),%xmm0        # 1a900 <l_860.4638+0x2a0>
    9475:	00 
    9476:	f2 0f 59 c2          	mulsd  %xmm2,%xmm0
    947a:	f2 0f 59 c1          	mulsd  %xmm1,%xmm0
    947e:	f3 0f 7e 0d 5a 14 01 	movq   0x1145a(%rip),%xmm1        # 1a8e0 <l_860.4638+0x280>
    9485:	00 
    9486:	66 0f 54 c1          	andpd  %xmm1,%xmm0
    948a:	66 0f 2f 05 76 14 01 	comisd 0x11476(%rip),%xmm0        # 1a908 <l_860.4638+0x2a8>
    9491:	00 
    9492:	76 07                	jbe    949b <safe_mul_func_double_f_f+0x55>
    9494:	f2 0f 10 45 f8       	movsd  -0x8(%rbp),%xmm0
    9499:	eb 0a                	jmp    94a5 <safe_mul_func_double_f_f+0x5f>
    949b:	f2 0f 10 45 f8       	movsd  -0x8(%rbp),%xmm0
    94a0:	f2 0f 59 45 f0       	mulsd  -0x10(%rbp),%xmm0
    94a5:	5d                   	pop    %rbp
    94a6:	c3                   	retq   

00000000000094a7 <safe_div_func_double_f_f>:
    94a7:	f3 0f 1e fa          	endbr64 
    94ab:	55                   	push   %rbp
    94ac:	48 89 e5             	mov    %rsp,%rbp
    94af:	f2 0f 11 45 f8       	movsd  %xmm0,-0x8(%rbp)
    94b4:	f2 0f 11 4d f0       	movsd  %xmm1,-0x10(%rbp)
    94b9:	f2 0f 10 45 f0       	movsd  -0x10(%rbp),%xmm0
    94be:	f3 0f 7e 0d 1a 14 01 	movq   0x1141a(%rip),%xmm1        # 1a8e0 <l_860.4638+0x280>
    94c5:	00 
    94c6:	66 0f 54 c8          	andpd  %xmm0,%xmm1
    94ca:	f2 0f 10 05 3e 14 01 	movsd  0x1143e(%rip),%xmm0        # 1a910 <l_860.4638+0x2b0>
    94d1:	00 
    94d2:	66 0f 2f c1          	comisd %xmm1,%xmm0
    94d6:	0f 97 c0             	seta   %al
    94d9:	83 f0 01             	xor    $0x1,%eax
    94dc:	84 c0                	test   %al,%al
    94de:	75 5a                	jne    953a <safe_div_func_double_f_f+0x93>
    94e0:	66 0f ef c0          	pxor   %xmm0,%xmm0
    94e4:	66 0f 2e 45 f0       	ucomisd -0x10(%rbp),%xmm0
    94e9:	7a 0b                	jp     94f6 <safe_div_func_double_f_f+0x4f>
    94eb:	66 0f ef c0          	pxor   %xmm0,%xmm0
    94ef:	66 0f 2e 45 f0       	ucomisd -0x10(%rbp),%xmm0
    94f4:	74 50                	je     9546 <safe_div_func_double_f_f+0x9f>
    94f6:	f2 0f 10 4d f8       	movsd  -0x8(%rbp),%xmm1
    94fb:	f2 0f 10 05 15 14 01 	movsd  0x11415(%rip),%xmm0        # 1a918 <l_860.4638+0x2b8>
    9502:	00 
    9503:	f2 0f 59 c1          	mulsd  %xmm1,%xmm0
    9507:	f2 0f 10 55 f0       	movsd  -0x10(%rbp),%xmm2
    950c:	f2 0f 10 0d 0c 14 01 	movsd  0x1140c(%rip),%xmm1        # 1a920 <l_860.4638+0x2c0>
    9513:	00 
    9514:	f2 0f 59 ca          	mulsd  %xmm2,%xmm1
    9518:	f2 0f 5e c1          	divsd  %xmm1,%xmm0
    951c:	f3 0f 7e 0d bc 13 01 	movq   0x113bc(%rip),%xmm1        # 1a8e0 <l_860.4638+0x280>
    9523:	00 
    9524:	66 0f 54 c1          	andpd  %xmm1,%xmm0
    9528:	66 0f 2f 05 f8 13 01 	comisd 0x113f8(%rip),%xmm0        # 1a928 <l_860.4638+0x2c8>
    952f:	00 
    9530:	0f 97 c0             	seta   %al
    9533:	83 f0 01             	xor    $0x1,%eax
    9536:	84 c0                	test   %al,%al
    9538:	74 0c                	je     9546 <safe_div_func_double_f_f+0x9f>
    953a:	f2 0f 10 45 f8       	movsd  -0x8(%rbp),%xmm0
    953f:	f2 0f 5e 45 f0       	divsd  -0x10(%rbp),%xmm0
    9544:	eb 05                	jmp    954b <safe_div_func_double_f_f+0xa4>
    9546:	f2 0f 10 45 f8       	movsd  -0x8(%rbp),%xmm0
    954b:	5d                   	pop    %rbp
    954c:	c3                   	retq   

000000000000954d <safe_convert_func_float_to_int32_t>:
    954d:	f3 0f 1e fa          	endbr64 
    9551:	55                   	push   %rbp
    9552:	48 89 e5             	mov    %rsp,%rbp
    9555:	f3 0f 11 45 fc       	movss  %xmm0,-0x4(%rbp)
    955a:	f3 0f 10 05 ce 13 01 	movss  0x113ce(%rip),%xmm0        # 1a930 <l_860.4638+0x2d0>
    9561:	00 
    9562:	0f 2f 45 fc          	comiss -0x4(%rbp),%xmm0
    9566:	0f 93 c0             	setae  %al
    9569:	83 f0 01             	xor    $0x1,%eax
    956c:	84 c0                	test   %al,%al
    956e:	74 21                	je     9591 <safe_convert_func_float_to_int32_t+0x44>
    9570:	f3 0f 10 45 fc       	movss  -0x4(%rbp),%xmm0
    9575:	0f 2f 05 b8 13 01 00 	comiss 0x113b8(%rip),%xmm0        # 1a934 <l_860.4638+0x2d4>
    957c:	0f 93 c0             	setae  %al
    957f:	83 f0 01             	xor    $0x1,%eax
    9582:	84 c0                	test   %al,%al
    9584:	74 0b                	je     9591 <safe_convert_func_float_to_int32_t+0x44>
    9586:	f3 0f 10 45 fc       	movss  -0x4(%rbp),%xmm0
    958b:	f3 0f 2c c0          	cvttss2si %xmm0,%eax
    958f:	eb 05                	jmp    9596 <safe_convert_func_float_to_int32_t+0x49>
    9591:	b8 ff ff ff 7f       	mov    $0x7fffffff,%eax
    9596:	5d                   	pop    %rbp
    9597:	c3                   	retq   

0000000000009598 <crc32_gentab>:
    9598:	f3 0f 1e fa          	endbr64 
    959c:	55                   	push   %rbp
    959d:	48 89 e5             	mov    %rsp,%rbp
    95a0:	c7 45 fc 20 83 b8 ed 	movl   $0xedb88320,-0x4(%rbp)
    95a7:	c7 45 f4 00 00 00 00 	movl   $0x0,-0xc(%rbp)
    95ae:	eb 51                	jmp    9601 <crc32_gentab+0x69>
    95b0:	8b 45 f4             	mov    -0xc(%rbp),%eax
    95b3:	89 45 f0             	mov    %eax,-0x10(%rbp)
    95b6:	c7 45 f8 08 00 00 00 	movl   $0x8,-0x8(%rbp)
    95bd:	eb 1e                	jmp    95dd <crc32_gentab+0x45>
    95bf:	8b 45 f0             	mov    -0x10(%rbp),%eax
    95c2:	83 e0 01             	and    $0x1,%eax
    95c5:	85 c0                	test   %eax,%eax
    95c7:	74 0d                	je     95d6 <crc32_gentab+0x3e>
    95c9:	8b 45 f0             	mov    -0x10(%rbp),%eax
    95cc:	d1 e8                	shr    %eax
    95ce:	33 45 fc             	xor    -0x4(%rbp),%eax
    95d1:	89 45 f0             	mov    %eax,-0x10(%rbp)
    95d4:	eb 03                	jmp    95d9 <crc32_gentab+0x41>
    95d6:	d1 6d f0             	shrl   -0x10(%rbp)
    95d9:	83 6d f8 01          	subl   $0x1,-0x8(%rbp)
    95dd:	83 7d f8 00          	cmpl   $0x0,-0x8(%rbp)
    95e1:	7f dc                	jg     95bf <crc32_gentab+0x27>
    95e3:	8b 45 f4             	mov    -0xc(%rbp),%eax
    95e6:	48 98                	cltq   
    95e8:	48 8d 0c 85 00 00 00 	lea    0x0(,%rax,4),%rcx
    95ef:	00 
    95f0:	48 8d 15 c9 75 01 00 	lea    0x175c9(%rip),%rdx        # 20bc0 <crc32_tab>
    95f7:	8b 45 f0             	mov    -0x10(%rbp),%eax
    95fa:	89 04 11             	mov    %eax,(%rcx,%rdx,1)
    95fd:	83 45 f4 01          	addl   $0x1,-0xc(%rbp)
    9601:	81 7d f4 ff 00 00 00 	cmpl   $0xff,-0xc(%rbp)
    9608:	7e a6                	jle    95b0 <crc32_gentab+0x18>
    960a:	90                   	nop
    960b:	90                   	nop
    960c:	5d                   	pop    %rbp
    960d:	c3                   	retq   

000000000000960e <crc32_byte>:
    960e:	f3 0f 1e fa          	endbr64 
    9612:	55                   	push   %rbp
    9613:	48 89 e5             	mov    %rsp,%rbp
    9616:	89 f8                	mov    %edi,%eax
    9618:	88 45 fc             	mov    %al,-0x4(%rbp)
    961b:	8b 05 ff 39 01 00    	mov    0x139ff(%rip),%eax        # 1d020 <crc32_context>
    9621:	c1 e8 08             	shr    $0x8,%eax
    9624:	89 c1                	mov    %eax,%ecx
    9626:	0f b6 55 fc          	movzbl -0x4(%rbp),%edx
    962a:	8b 05 f0 39 01 00    	mov    0x139f0(%rip),%eax        # 1d020 <crc32_context>
    9630:	31 d0                	xor    %edx,%eax
    9632:	0f b6 c0             	movzbl %al,%eax
    9635:	89 c0                	mov    %eax,%eax
    9637:	48 8d 14 85 00 00 00 	lea    0x0(,%rax,4),%rdx
    963e:	00 
    963f:	48 8d 05 7a 75 01 00 	lea    0x1757a(%rip),%rax        # 20bc0 <crc32_tab>
    9646:	8b 04 02             	mov    (%rdx,%rax,1),%eax
    9649:	31 c8                	xor    %ecx,%eax
    964b:	89 05 cf 39 01 00    	mov    %eax,0x139cf(%rip)        # 1d020 <crc32_context>
    9651:	90                   	nop
    9652:	5d                   	pop    %rbp
    9653:	c3                   	retq   

0000000000009654 <crc32_8bytes>:
    9654:	f3 0f 1e fa          	endbr64 
    9658:	55                   	push   %rbp
    9659:	48 89 e5             	mov    %rsp,%rbp
    965c:	48 83 ec 08          	sub    $0x8,%rsp
    9660:	48 89 7d f8          	mov    %rdi,-0x8(%rbp)
    9664:	48 8b 45 f8          	mov    -0x8(%rbp),%rax
    9668:	0f b6 c0             	movzbl %al,%eax
    966b:	89 c7                	mov    %eax,%edi
    966d:	e8 9c ff ff ff       	callq  960e <crc32_byte>
    9672:	48 8b 45 f8          	mov    -0x8(%rbp),%rax
    9676:	48 c1 e8 08          	shr    $0x8,%rax
    967a:	0f b6 c0             	movzbl %al,%eax
    967d:	89 c7                	mov    %eax,%edi
    967f:	e8 8a ff ff ff       	callq  960e <crc32_byte>
    9684:	48 8b 45 f8          	mov    -0x8(%rbp),%rax
    9688:	48 c1 e8 10          	shr    $0x10,%rax
    968c:	0f b6 c0             	movzbl %al,%eax
    968f:	89 c7                	mov    %eax,%edi
    9691:	e8 78 ff ff ff       	callq  960e <crc32_byte>
    9696:	48 8b 45 f8          	mov    -0x8(%rbp),%rax
    969a:	48 c1 e8 18          	shr    $0x18,%rax
    969e:	0f b6 c0             	movzbl %al,%eax
    96a1:	89 c7                	mov    %eax,%edi
    96a3:	e8 66 ff ff ff       	callq  960e <crc32_byte>
    96a8:	48 8b 45 f8          	mov    -0x8(%rbp),%rax
    96ac:	48 c1 e8 20          	shr    $0x20,%rax
    96b0:	0f b6 c0             	movzbl %al,%eax
    96b3:	89 c7                	mov    %eax,%edi
    96b5:	e8 54 ff ff ff       	callq  960e <crc32_byte>
    96ba:	48 8b 45 f8          	mov    -0x8(%rbp),%rax
    96be:	48 c1 e8 28          	shr    $0x28,%rax
    96c2:	0f b6 c0             	movzbl %al,%eax
    96c5:	89 c7                	mov    %eax,%edi
    96c7:	e8 42 ff ff ff       	callq  960e <crc32_byte>
    96cc:	48 8b 45 f8          	mov    -0x8(%rbp),%rax
    96d0:	48 c1 e8 30          	shr    $0x30,%rax
    96d4:	0f b6 c0             	movzbl %al,%eax
    96d7:	89 c7                	mov    %eax,%edi
    96d9:	e8 30 ff ff ff       	callq  960e <crc32_byte>
    96de:	48 8b 45 f8          	mov    -0x8(%rbp),%rax
    96e2:	48 c1 e8 38          	shr    $0x38,%rax
    96e6:	0f b6 c0             	movzbl %al,%eax
    96e9:	89 c7                	mov    %eax,%edi
    96eb:	e8 1e ff ff ff       	callq  960e <crc32_byte>
    96f0:	90                   	nop
    96f1:	c9                   	leaveq 
    96f2:	c3                   	retq   

00000000000096f3 <transparent_crc>:
    96f3:	f3 0f 1e fa          	endbr64 
    96f7:	55                   	push   %rbp
    96f8:	48 89 e5             	mov    %rsp,%rbp
    96fb:	48 83 ec 20          	sub    $0x20,%rsp
    96ff:	48 89 7d f8          	mov    %rdi,-0x8(%rbp)
    9703:	48 89 75 f0          	mov    %rsi,-0x10(%rbp)
    9707:	89 55 ec             	mov    %edx,-0x14(%rbp)
    970a:	48 8b 45 f8          	mov    -0x8(%rbp),%rax
    970e:	48 89 c7             	mov    %rax,%rdi
    9711:	e8 3e ff ff ff       	callq  9654 <crc32_8bytes>
    9716:	83 7d ec 00          	cmpl   $0x0,-0x14(%rbp)
    971a:	74 22                	je     973e <transparent_crc+0x4b>
    971c:	8b 05 fe 38 01 00    	mov    0x138fe(%rip),%eax        # 1d020 <crc32_context>
    9722:	f7 d0                	not    %eax
    9724:	89 c2                	mov    %eax,%edx
    9726:	48 8b 45 f0          	mov    -0x10(%rbp),%rax
    972a:	48 89 c6             	mov    %rax,%rsi
    972d:	48 8d 3d fc f8 00 00 	lea    0xf8fc(%rip),%rdi        # 19030 <_IO_stdin_used+0x30>
    9734:	b8 00 00 00 00       	mov    $0x0,%eax
    9739:	e8 42 e9 ff ff       	callq  8080 <printf@plt>
    973e:	90                   	nop
    973f:	c9                   	leaveq 
    9740:	c3                   	retq   

0000000000009741 <transparent_crc_bytes>:
    9741:	f3 0f 1e fa          	endbr64 
    9745:	55                   	push   %rbp
    9746:	48 89 e5             	mov    %rsp,%rbp
    9749:	48 83 ec 30          	sub    $0x30,%rsp
    974d:	48 89 7d e8          	mov    %rdi,-0x18(%rbp)
    9751:	89 75 e4             	mov    %esi,-0x1c(%rbp)
    9754:	48 89 55 d8          	mov    %rdx,-0x28(%rbp)
    9758:	89 4d e0             	mov    %ecx,-0x20(%rbp)
    975b:	c7 45 fc 00 00 00 00 	movl   $0x0,-0x4(%rbp)
    9762:	eb 1e                	jmp    9782 <transparent_crc_bytes+0x41>
    9764:	8b 45 fc             	mov    -0x4(%rbp),%eax
    9767:	48 63 d0             	movslq %eax,%rdx
    976a:	48 8b 45 e8          	mov    -0x18(%rbp),%rax
    976e:	48 01 d0             	add    %rdx,%rax
    9771:	0f b6 00             	movzbl (%rax),%eax
    9774:	0f b6 c0             	movzbl %al,%eax
    9777:	89 c7                	mov    %eax,%edi
    9779:	e8 90 fe ff ff       	callq  960e <crc32_byte>
    977e:	83 45 fc 01          	addl   $0x1,-0x4(%rbp)
    9782:	8b 45 fc             	mov    -0x4(%rbp),%eax
    9785:	3b 45 e4             	cmp    -0x1c(%rbp),%eax
    9788:	7c da                	jl     9764 <transparent_crc_bytes+0x23>
    978a:	83 7d e0 00          	cmpl   $0x0,-0x20(%rbp)
    978e:	74 22                	je     97b2 <transparent_crc_bytes+0x71>
    9790:	8b 05 8a 38 01 00    	mov    0x1388a(%rip),%eax        # 1d020 <crc32_context>
    9796:	f7 d0                	not    %eax
    9798:	89 c2                	mov    %eax,%edx
    979a:	48 8b 45 d8          	mov    -0x28(%rbp),%rax
    979e:	48 89 c6             	mov    %rax,%rsi
    97a1:	48 8d 3d 88 f8 00 00 	lea    0xf888(%rip),%rdi        # 19030 <_IO_stdin_used+0x30>
    97a8:	b8 00 00 00 00       	mov    $0x0,%eax
    97ad:	e8 ce e8 ff ff       	callq  8080 <printf@plt>
    97b2:	90                   	nop
    97b3:	c9                   	leaveq 
    97b4:	c3                   	retq   

00000000000097b5 <func_1>:
    97b5:	f3 0f 1e fa          	endbr64 
    97b9:	55                   	push   %rbp
    97ba:	48 89 e5             	mov    %rsp,%rbp
    97bd:	41 57                	push   %r15
    97bf:	41 56                	push   %r14
    97c1:	41 55                	push   %r13
    97c3:	41 54                	push   %r12
    97c5:	53                   	push   %rbx
    97c6:	48 81 ec 00 10 00 00 	sub    $0x1000,%rsp
    97cd:	48 83 0c 24 00       	orq    $0x0,(%rsp)
    97d2:	48 81 ec 88 0a 00 00 	sub    $0xa88,%rsp
    97d9:	64 48 8b 04 25 28 00 	mov    %fs:0x28,%rax
    97e0:	00 00 
    97e2:	48 89 45 c8          	mov    %rax,-0x38(%rbp)
    97e6:	31 c0                	xor    %eax,%eax
    97e8:	48 c7 85 68 e6 ff ff 	movq   $0xffffffffffffffff,-0x1998(%rbp)
    97ef:	ff ff ff ff 
    97f3:	c6 85 6a e5 ff ff 09 	movb   $0x9,-0x1a96(%rbp)
    97fa:	c7 85 dc e5 ff ff 8b 	movl   $0xf495a18b,-0x1a24(%rbp)
    9801:	a1 95 f4 
    9804:	48 c7 85 70 e6 ff ff 	movq   $0x0,-0x1990(%rbp)
    980b:	00 00 00 00 
    980f:	48 8d 85 70 e6 ff ff 	lea    -0x1990(%rbp),%rax
    9816:	48 89 85 78 e6 ff ff 	mov    %rax,-0x1988(%rbp)
    981d:	48 8d 85 78 e6 ff ff 	lea    -0x1988(%rbp),%rax
    9824:	48 89 85 50 e9 ff ff 	mov    %rax,-0x16b0(%rbp)
    982b:	48 8d 85 78 e6 ff ff 	lea    -0x1988(%rbp),%rax
    9832:	48 89 85 58 e9 ff ff 	mov    %rax,-0x16a8(%rbp)
    9839:	48 8d 85 78 e6 ff ff 	lea    -0x1988(%rbp),%rax
    9840:	48 89 85 60 e9 ff ff 	mov    %rax,-0x16a0(%rbp)
    9847:	48 8d 85 78 e6 ff ff 	lea    -0x1988(%rbp),%rax
    984e:	48 89 85 68 e9 ff ff 	mov    %rax,-0x1698(%rbp)
    9855:	48 8d 85 78 e6 ff ff 	lea    -0x1988(%rbp),%rax
    985c:	48 89 85 70 e9 ff ff 	mov    %rax,-0x1690(%rbp)
    9863:	48 8d 85 78 e6 ff ff 	lea    -0x1988(%rbp),%rax
    986a:	48 89 85 78 e9 ff ff 	mov    %rax,-0x1688(%rbp)
    9871:	48 8d 85 78 e6 ff ff 	lea    -0x1988(%rbp),%rax
    9878:	48 89 85 80 e9 ff ff 	mov    %rax,-0x1680(%rbp)
    987f:	48 8d 85 78 e6 ff ff 	lea    -0x1988(%rbp),%rax
    9886:	48 89 85 88 e9 ff ff 	mov    %rax,-0x1678(%rbp)
    988d:	48 8d 85 78 e6 ff ff 	lea    -0x1988(%rbp),%rax
    9894:	48 89 85 90 e9 ff ff 	mov    %rax,-0x1670(%rbp)
    989b:	48 8d 85 78 e6 ff ff 	lea    -0x1988(%rbp),%rax
    98a2:	48 89 85 98 e9 ff ff 	mov    %rax,-0x1668(%rbp)
    98a9:	48 8d 85 78 e6 ff ff 	lea    -0x1988(%rbp),%rax
    98b0:	48 89 85 a0 e9 ff ff 	mov    %rax,-0x1660(%rbp)
    98b7:	48 8d 85 78 e6 ff ff 	lea    -0x1988(%rbp),%rax
    98be:	48 89 85 a8 e9 ff ff 	mov    %rax,-0x1658(%rbp)
    98c5:	48 8d 85 78 e6 ff ff 	lea    -0x1988(%rbp),%rax
    98cc:	48 89 85 b0 e9 ff ff 	mov    %rax,-0x1650(%rbp)
    98d3:	48 8d 85 78 e6 ff ff 	lea    -0x1988(%rbp),%rax
    98da:	48 89 85 b8 e9 ff ff 	mov    %rax,-0x1648(%rbp)
    98e1:	48 8d 05 b0 37 01 00 	lea    0x137b0(%rip),%rax        # 1d098 <g_63>
    98e8:	48 89 85 a0 e6 ff ff 	mov    %rax,-0x1960(%rbp)
    98ef:	48 8d 05 1a 60 01 00 	lea    0x1601a(%rip),%rax        # 1f910 <g_1356>
    98f6:	48 89 85 a8 e6 ff ff 	mov    %rax,-0x1958(%rbp)
    98fd:	c7 85 8c e5 ff ff 8c 	movl   $0x83f0258c,-0x1a74(%rbp)
    9904:	25 f0 83 
    9907:	c7 85 90 e5 ff ff f9 	movl   $0xfffffff9,-0x1a70(%rbp)
    990e:	ff ff ff 
    9911:	c7 85 94 e5 ff ff 01 	movl   $0x1,-0x1a6c(%rbp)
    9918:	00 00 00 
    991b:	48 c7 85 b0 e6 ff ff 	movq   $0x7,-0x1950(%rbp)
    9922:	07 00 00 00 
    9926:	c7 85 e0 e5 ff ff 18 	movl   $0xb2145418,-0x1a20(%rbp)
    992d:	54 14 b2 
    9930:	48 b8 58 53 c8 5e 94 	movabs $0x31d95b945ec85358,%rax
    9937:	5b d9 31 
    993a:	48 89 85 80 e6 ff ff 	mov    %rax,-0x1980(%rbp)
    9941:	c6 85 69 e5 ff ff ff 	movb   $0xff,-0x1a97(%rbp)
    9948:	48 c7 85 b8 e6 ff ff 	movq   $0x0,-0x1948(%rbp)
    994f:	00 00 00 00 
    9953:	c6 85 6b e5 ff ff eb 	movb   $0xeb,-0x1a95(%rbp)
    995a:	66 c7 85 7e e5 ff ff 	movw   $0x2,-0x1a82(%rbp)
    9961:	02 00 
    9963:	48 8d 05 36 41 01 00 	lea    0x14136(%rip),%rax        # 1daa0 <g_1291>
    996a:	48 89 85 c0 e6 ff ff 	mov    %rax,-0x1940(%rbp)
    9971:	48 8d 85 40 ea ff ff 	lea    -0x15c0(%rbp),%rax
    9978:	48 8d 15 e1 41 01 00 	lea    0x141e1(%rip),%rdx        # 1db60 <g_3976+0x10>
    997f:	b9 40 00 00 00       	mov    $0x40,%ecx
    9984:	48 89 c7             	mov    %rax,%rdi
    9987:	48 89 d6             	mov    %rdx,%rsi
    998a:	f3 48 a5             	rep movsq %ds:(%rsi),%es:(%rdi)
    998d:	48 8d 05 90 36 01 00 	lea    0x13690(%rip),%rax        # 1d024 <g_5>
    9994:	48 89 85 c8 e6 ff ff 	mov    %rax,-0x1938(%rbp)
    999b:	48 8d 05 86 4b 01 00 	lea    0x14b86(%rip),%rax        # 1e528 <g_175>
    99a2:	48 89 85 d0 e6 ff ff 	mov    %rax,-0x1930(%rbp)
    99a9:	66 c7 85 c0 e9 ff ff 	movw   $0xffff,-0x1640(%rbp)
    99b0:	ff ff 
    99b2:	66 c7 85 c2 e9 ff ff 	movw   $0xffff,-0x163e(%rbp)
    99b9:	ff ff 
    99bb:	66 c7 85 c4 e9 ff ff 	movw   $0x8b71,-0x163c(%rbp)
    99c2:	71 8b 
    99c4:	66 c7 85 c6 e9 ff ff 	movw   $0x5bd5,-0x163a(%rbp)
    99cb:	d5 5b 
    99cd:	66 c7 85 c8 e9 ff ff 	movw   $0x1,-0x1638(%rbp)
    99d4:	01 00 
    99d6:	66 c7 85 ca e9 ff ff 	movw   $0xf01e,-0x1636(%rbp)
    99dd:	1e f0 
    99df:	66 c7 85 cc e9 ff ff 	movw   $0x1,-0x1634(%rbp)
    99e6:	01 00 
    99e8:	66 c7 85 ce e9 ff ff 	movw   $0x5bd5,-0x1632(%rbp)
    99ef:	d5 5b 
    99f1:	66 c7 85 d0 e9 ff ff 	movw   $0x8b71,-0x1630(%rbp)
    99f8:	71 8b 
    99fa:	66 c7 85 d2 e9 ff ff 	movw   $0x8b71,-0x162e(%rbp)
    9a01:	71 8b 
    9a03:	66 c7 85 d4 e9 ff ff 	movw   $0x8b71,-0x162c(%rbp)
    9a0a:	71 8b 
    9a0c:	66 c7 85 d6 e9 ff ff 	movw   $0x0,-0x162a(%rbp)
    9a13:	00 00 
    9a15:	66 c7 85 d8 e9 ff ff 	movw   $0x1,-0x1628(%rbp)
    9a1c:	01 00 
    9a1e:	66 c7 85 da e9 ff ff 	movw   $0x6,-0x1626(%rbp)
    9a25:	06 00 
    9a27:	66 c7 85 dc e9 ff ff 	movw   $0xffff,-0x1624(%rbp)
    9a2e:	ff ff 
    9a30:	66 c7 85 de e9 ff ff 	movw   $0xf01e,-0x1622(%rbp)
    9a37:	1e f0 
    9a39:	66 c7 85 e0 e9 ff ff 	movw   $0xffff,-0x1620(%rbp)
    9a40:	ff ff 
    9a42:	66 c7 85 e2 e9 ff ff 	movw   $0xf01e,-0x161e(%rbp)
    9a49:	1e f0 
    9a4b:	66 c7 85 e4 e9 ff ff 	movw   $0x8b71,-0x161c(%rbp)
    9a52:	71 8b 
    9a54:	66 c7 85 e6 e9 ff ff 	movw   $0x9a86,-0x161a(%rbp)
    9a5b:	86 9a 
    9a5d:	66 c7 85 e8 e9 ff ff 	movw   $0xffff,-0x1618(%rbp)
    9a64:	ff ff 
    9a66:	66 c7 85 ea e9 ff ff 	movw   $0xffff,-0x1616(%rbp)
    9a6d:	ff ff 
    9a6f:	66 c7 85 ec e9 ff ff 	movw   $0x9a86,-0x1614(%rbp)
    9a76:	86 9a 
    9a78:	66 c7 85 ee e9 ff ff 	movw   $0x8b71,-0x1612(%rbp)
    9a7f:	71 8b 
    9a81:	66 c7 85 f0 e9 ff ff 	movw   $0x1,-0x1610(%rbp)
    9a88:	01 00 
    9a8a:	66 c7 85 f2 e9 ff ff 	movw   $0x1,-0x160e(%rbp)
    9a91:	01 00 
    9a93:	66 c7 85 f4 e9 ff ff 	movw   $0x36a6,-0x160c(%rbp)
    9a9a:	a6 36 
    9a9c:	66 c7 85 f6 e9 ff ff 	movw   $0xffff,-0x160a(%rbp)
    9aa3:	ff ff 
    9aa5:	66 c7 85 f8 e9 ff ff 	movw   $0x5bd5,-0x1608(%rbp)
    9aac:	d5 5b 
    9aae:	66 c7 85 fa e9 ff ff 	movw   $0x0,-0x1606(%rbp)
    9ab5:	00 00 
    9ab7:	66 c7 85 fc e9 ff ff 	movw   $0x36a6,-0x1604(%rbp)
    9abe:	a6 36 
    9ac0:	66 c7 85 fe e9 ff ff 	movw   $0x9a86,-0x1602(%rbp)
    9ac7:	86 9a 
    9ac9:	66 c7 85 00 ea ff ff 	movw   $0x9a86,-0x1600(%rbp)
    9ad0:	86 9a 
    9ad2:	66 c7 85 02 ea ff ff 	movw   $0x36a6,-0x15fe(%rbp)
    9ad9:	a6 36 
    9adb:	66 c7 85 04 ea ff ff 	movw   $0x0,-0x15fc(%rbp)
    9ae2:	00 00 
    9ae4:	66 c7 85 06 ea ff ff 	movw   $0x5bd5,-0x15fa(%rbp)
    9aeb:	d5 5b 
    9aed:	66 c7 85 08 ea ff ff 	movw   $0x9a86,-0x15f8(%rbp)
    9af4:	86 9a 
    9af6:	66 c7 85 0a ea ff ff 	movw   $0xcbe8,-0x15f6(%rbp)
    9afd:	e8 cb 
    9aff:	66 c7 85 0c ea ff ff 	movw   $0x8b71,-0x15f4(%rbp)
    9b06:	71 8b 
    9b08:	66 c7 85 0e ea ff ff 	movw   $0x1,-0x15f2(%rbp)
    9b0f:	01 00 
    9b11:	66 c7 85 10 ea ff ff 	movw   $0x6,-0x15f0(%rbp)
    9b18:	06 00 
    9b1a:	66 c7 85 12 ea ff ff 	movw   $0x5bd5,-0x15ee(%rbp)
    9b21:	d5 5b 
    9b23:	66 c7 85 14 ea ff ff 	movw   $0x1,-0x15ec(%rbp)
    9b2a:	01 00 
    9b2c:	66 c7 85 16 ea ff ff 	movw   $0x1,-0x15ea(%rbp)
    9b33:	01 00 
    9b35:	66 c7 85 18 ea ff ff 	movw   $0x5bd5,-0x15e8(%rbp)
    9b3c:	d5 5b 
    9b3e:	66 c7 85 1a ea ff ff 	movw   $0x1,-0x15e6(%rbp)
    9b45:	01 00 
    9b47:	66 c7 85 1c ea ff ff 	movw   $0x0,-0x15e4(%rbp)
    9b4e:	00 00 
    9b50:	66 c7 85 1e ea ff ff 	movw   $0x1,-0x15e2(%rbp)
    9b57:	01 00 
    9b59:	66 c7 85 20 ea ff ff 	movw   $0x0,-0x15e0(%rbp)
    9b60:	00 00 
    9b62:	66 c7 85 22 ea ff ff 	movw   $0x1,-0x15de(%rbp)
    9b69:	01 00 
    9b6b:	66 c7 85 24 ea ff ff 	movw   $0xcbe8,-0x15dc(%rbp)
    9b72:	e8 cb 
    9b74:	66 c7 85 26 ea ff ff 	movw   $0xf01e,-0x15da(%rbp)
    9b7b:	1e f0 
    9b7d:	66 c7 85 28 ea ff ff 	movw   $0x8b71,-0x15d8(%rbp)
    9b84:	71 8b 
    9b86:	66 c7 85 2a ea ff ff 	movw   $0x36a6,-0x15d6(%rbp)
    9b8d:	a6 36 
    9b8f:	66 c7 85 2c ea ff ff 	movw   $0xf01e,-0x15d4(%rbp)
    9b96:	1e f0 
    9b98:	66 c7 85 2e ea ff ff 	movw   $0xcbe8,-0x15d2(%rbp)
    9b9f:	e8 cb 
    9ba1:	66 c7 85 30 ea ff ff 	movw   $0x1,-0x15d0(%rbp)
    9ba8:	01 00 
    9baa:	66 c7 85 32 ea ff ff 	movw   $0x0,-0x15ce(%rbp)
    9bb1:	00 00 
    9bb3:	66 c7 85 34 ea ff ff 	movw   $0x1,-0x15cc(%rbp)
    9bba:	01 00 
    9bbc:	66 c7 85 36 ea ff ff 	movw   $0x0,-0x15ca(%rbp)
    9bc3:	00 00 
    9bc5:	66 c7 85 38 ea ff ff 	movw   $0x1,-0x15c8(%rbp)
    9bcc:	01 00 
    9bce:	66 c7 85 3a ea ff ff 	movw   $0xcbe8,-0x15c6(%rbp)
    9bd5:	e8 cb 
    9bd7:	66 c7 85 3c ea ff ff 	movw   $0xf01e,-0x15c4(%rbp)
    9bde:	1e f0 
    9be0:	c7 85 ec e5 ff ff 00 	movl   $0x0,-0x1a14(%rbp)
    9be7:	00 00 00 
    9bea:	48 8d 85 90 e5 ff ff 	lea    -0x1a70(%rbp),%rax
    9bf1:	48 89 85 d0 f7 ff ff 	mov    %rax,-0x830(%rbp)
    9bf8:	48 8d 05 99 34 01 00 	lea    0x13499(%rip),%rax        # 1d098 <g_63>
    9bff:	48 89 85 d8 f7 ff ff 	mov    %rax,-0x828(%rbp)
    9c06:	48 8d 85 90 e5 ff ff 	lea    -0x1a70(%rbp),%rax
    9c0d:	48 89 85 e0 f7 ff ff 	mov    %rax,-0x820(%rbp)
    9c14:	48 8d 85 90 e5 ff ff 	lea    -0x1a70(%rbp),%rax
    9c1b:	48 89 85 e8 f7 ff ff 	mov    %rax,-0x818(%rbp)
    9c22:	48 8d 05 6f 34 01 00 	lea    0x1346f(%rip),%rax        # 1d098 <g_63>
    9c29:	48 89 85 f0 f7 ff ff 	mov    %rax,-0x810(%rbp)
    9c30:	48 8d 85 90 e5 ff ff 	lea    -0x1a70(%rbp),%rax
    9c37:	48 89 85 f8 f7 ff ff 	mov    %rax,-0x808(%rbp)
    9c3e:	48 8d 05 e3 33 01 00 	lea    0x133e3(%rip),%rax        # 1d028 <g_25>
    9c45:	48 89 85 00 f8 ff ff 	mov    %rax,-0x800(%rbp)
    9c4c:	48 8d 05 69 3e 01 00 	lea    0x13e69(%rip),%rax        # 1dabc <g_2100>
    9c53:	48 89 85 08 f8 ff ff 	mov    %rax,-0x7f8(%rbp)
    9c5a:	48 8d 05 37 34 01 00 	lea    0x13437(%rip),%rax        # 1d098 <g_63>
    9c61:	48 89 85 10 f8 ff ff 	mov    %rax,-0x7f0(%rbp)
    9c68:	48 8d 05 4d 3e 01 00 	lea    0x13e4d(%rip),%rax        # 1dabc <g_2100>
    9c6f:	48 89 85 18 f8 ff ff 	mov    %rax,-0x7e8(%rbp)
    9c76:	48 8d 85 90 e5 ff ff 	lea    -0x1a70(%rbp),%rax
    9c7d:	48 89 85 20 f8 ff ff 	mov    %rax,-0x7e0(%rbp)
    9c84:	48 8d 85 8c e5 ff ff 	lea    -0x1a74(%rbp),%rax
    9c8b:	48 89 85 28 f8 ff ff 	mov    %rax,-0x7d8(%rbp)
    9c92:	48 8d 85 94 e5 ff ff 	lea    -0x1a6c(%rbp),%rax
    9c99:	48 89 85 30 f8 ff ff 	mov    %rax,-0x7d0(%rbp)
    9ca0:	48 8d 05 f1 33 01 00 	lea    0x133f1(%rip),%rax        # 1d098 <g_63>
    9ca7:	48 89 85 38 f8 ff ff 	mov    %rax,-0x7c8(%rbp)
    9cae:	48 8d 05 73 33 01 00 	lea    0x13373(%rip),%rax        # 1d028 <g_25>
    9cb5:	48 89 85 40 f8 ff ff 	mov    %rax,-0x7c0(%rbp)
    9cbc:	48 8d 05 d5 33 01 00 	lea    0x133d5(%rip),%rax        # 1d098 <g_63>
    9cc3:	48 89 85 48 f8 ff ff 	mov    %rax,-0x7b8(%rbp)
    9cca:	48 8d 85 90 e5 ff ff 	lea    -0x1a70(%rbp),%rax
    9cd1:	48 89 85 50 f8 ff ff 	mov    %rax,-0x7b0(%rbp)
    9cd8:	48 8d 05 b9 33 01 00 	lea    0x133b9(%rip),%rax        # 1d098 <g_63>
    9cdf:	48 89 85 58 f8 ff ff 	mov    %rax,-0x7a8(%rbp)
    9ce6:	48 8d 85 94 e5 ff ff 	lea    -0x1a6c(%rbp),%rax
    9ced:	48 89 85 60 f8 ff ff 	mov    %rax,-0x7a0(%rbp)
    9cf4:	48 c7 85 68 f8 ff ff 	movq   $0x0,-0x798(%rbp)
    9cfb:	00 00 00 00 
    9cff:	48 8d 05 92 33 01 00 	lea    0x13392(%rip),%rax        # 1d098 <g_63>
    9d06:	48 89 85 70 f8 ff ff 	mov    %rax,-0x790(%rbp)
    9d0d:	48 8d 85 94 e5 ff ff 	lea    -0x1a6c(%rbp),%rax
    9d14:	48 89 85 78 f8 ff ff 	mov    %rax,-0x788(%rbp)
    9d1b:	48 8d 05 9a 3d 01 00 	lea    0x13d9a(%rip),%rax        # 1dabc <g_2100>
    9d22:	48 89 85 80 f8 ff ff 	mov    %rax,-0x780(%rbp)
    9d29:	48 8d 05 8c 3d 01 00 	lea    0x13d8c(%rip),%rax        # 1dabc <g_2100>
    9d30:	48 89 85 88 f8 ff ff 	mov    %rax,-0x778(%rbp)
    9d37:	48 8d 85 94 e5 ff ff 	lea    -0x1a6c(%rbp),%rax
    9d3e:	48 89 85 90 f8 ff ff 	mov    %rax,-0x770(%rbp)
    9d45:	48 8d 85 94 e5 ff ff 	lea    -0x1a6c(%rbp),%rax
    9d4c:	48 89 85 98 f8 ff ff 	mov    %rax,-0x768(%rbp)
    9d53:	48 8d 05 62 3d 01 00 	lea    0x13d62(%rip),%rax        # 1dabc <g_2100>
    9d5a:	48 89 85 a0 f8 ff ff 	mov    %rax,-0x760(%rbp)
    9d61:	48 8d 85 94 e5 ff ff 	lea    -0x1a6c(%rbp),%rax
    9d68:	48 89 85 a8 f8 ff ff 	mov    %rax,-0x758(%rbp)
    9d6f:	48 8d 85 90 e5 ff ff 	lea    -0x1a70(%rbp),%rax
    9d76:	48 89 85 b0 f8 ff ff 	mov    %rax,-0x750(%rbp)
    9d7d:	48 8d 85 94 e5 ff ff 	lea    -0x1a6c(%rbp),%rax
    9d84:	48 89 85 b8 f8 ff ff 	mov    %rax,-0x748(%rbp)
    9d8b:	48 8d 85 94 e5 ff ff 	lea    -0x1a6c(%rbp),%rax
    9d92:	48 89 85 c0 f8 ff ff 	mov    %rax,-0x740(%rbp)
    9d99:	48 c7 85 c8 f8 ff ff 	movq   $0x0,-0x738(%rbp)
    9da0:	00 00 00 00 
    9da4:	48 8d 85 90 e5 ff ff 	lea    -0x1a70(%rbp),%rax
    9dab:	48 89 85 d0 f8 ff ff 	mov    %rax,-0x730(%rbp)
    9db2:	48 8d 05 03 3d 01 00 	lea    0x13d03(%rip),%rax        # 1dabc <g_2100>
    9db9:	48 89 85 d8 f8 ff ff 	mov    %rax,-0x728(%rbp)
    9dc0:	48 8d 05 61 32 01 00 	lea    0x13261(%rip),%rax        # 1d028 <g_25>
    9dc7:	48 89 85 e0 f8 ff ff 	mov    %rax,-0x720(%rbp)
    9dce:	48 8d 05 53 32 01 00 	lea    0x13253(%rip),%rax        # 1d028 <g_25>
    9dd5:	48 89 85 e8 f8 ff ff 	mov    %rax,-0x718(%rbp)
    9ddc:	48 c7 85 f0 f8 ff ff 	movq   $0x0,-0x710(%rbp)
    9de3:	00 00 00 00 
    9de7:	48 8d 85 94 e5 ff ff 	lea    -0x1a6c(%rbp),%rax
    9dee:	48 89 85 f8 f8 ff ff 	mov    %rax,-0x708(%rbp)
    9df5:	48 8d 85 90 e5 ff ff 	lea    -0x1a70(%rbp),%rax
    9dfc:	48 89 85 00 f9 ff ff 	mov    %rax,-0x700(%rbp)
    9e03:	48 8d 85 94 e5 ff ff 	lea    -0x1a6c(%rbp),%rax
    9e0a:	48 89 85 08 f9 ff ff 	mov    %rax,-0x6f8(%rbp)
    9e11:	48 c7 85 10 f9 ff ff 	movq   $0x0,-0x6f0(%rbp)
    9e18:	00 00 00 00 
    9e1c:	48 8d 05 05 32 01 00 	lea    0x13205(%rip),%rax        # 1d028 <g_25>
    9e23:	48 89 85 18 f9 ff ff 	mov    %rax,-0x6e8(%rbp)
    9e2a:	48 c7 85 20 f9 ff ff 	movq   $0x0,-0x6e0(%rbp)
    9e31:	00 00 00 00 
    9e35:	48 8d 85 8c e5 ff ff 	lea    -0x1a74(%rbp),%rax
    9e3c:	48 89 85 28 f9 ff ff 	mov    %rax,-0x6d8(%rbp)
    9e43:	48 8d 05 de 31 01 00 	lea    0x131de(%rip),%rax        # 1d028 <g_25>
    9e4a:	48 89 85 30 f9 ff ff 	mov    %rax,-0x6d0(%rbp)
    9e51:	48 8d 85 94 e5 ff ff 	lea    -0x1a6c(%rbp),%rax
    9e58:	48 89 85 38 f9 ff ff 	mov    %rax,-0x6c8(%rbp)
    9e5f:	48 8d 85 94 e5 ff ff 	lea    -0x1a6c(%rbp),%rax
    9e66:	48 89 85 40 f9 ff ff 	mov    %rax,-0x6c0(%rbp)
    9e6d:	48 8d 05 24 32 01 00 	lea    0x13224(%rip),%rax        # 1d098 <g_63>
    9e74:	48 89 85 48 f9 ff ff 	mov    %rax,-0x6b8(%rbp)
    9e7b:	48 8d 85 94 e5 ff ff 	lea    -0x1a6c(%rbp),%rax
    9e82:	48 89 85 50 f9 ff ff 	mov    %rax,-0x6b0(%rbp)
    9e89:	48 c7 85 58 f9 ff ff 	movq   $0x0,-0x6a8(%rbp)
    9e90:	00 00 00 00 
    9e94:	48 8d 85 94 e5 ff ff 	lea    -0x1a6c(%rbp),%rax
    9e9b:	48 89 85 60 f9 ff ff 	mov    %rax,-0x6a0(%rbp)
    9ea2:	48 8d 05 7f 31 01 00 	lea    0x1317f(%rip),%rax        # 1d028 <g_25>
    9ea9:	48 89 85 68 f9 ff ff 	mov    %rax,-0x698(%rbp)
    9eb0:	48 8d 05 71 31 01 00 	lea    0x13171(%rip),%rax        # 1d028 <g_25>
    9eb7:	48 89 85 70 f9 ff ff 	mov    %rax,-0x690(%rbp)
    9ebe:	48 8d 85 94 e5 ff ff 	lea    -0x1a6c(%rbp),%rax
    9ec5:	48 89 85 78 f9 ff ff 	mov    %rax,-0x688(%rbp)
    9ecc:	48 c7 85 80 f9 ff ff 	movq   $0x0,-0x680(%rbp)
    9ed3:	00 00 00 00 
    9ed7:	48 8d 85 90 e5 ff ff 	lea    -0x1a70(%rbp),%rax
    9ede:	48 89 85 88 f9 ff ff 	mov    %rax,-0x678(%rbp)
    9ee5:	48 8d 85 94 e5 ff ff 	lea    -0x1a6c(%rbp),%rax
    9eec:	48 89 85 90 f9 ff ff 	mov    %rax,-0x670(%rbp)
    9ef3:	48 8d 85 90 e5 ff ff 	lea    -0x1a70(%rbp),%rax
    9efa:	48 89 85 98 f9 ff ff 	mov    %rax,-0x668(%rbp)
    9f01:	48 c7 85 a0 f9 ff ff 	movq   $0x0,-0x660(%rbp)
    9f08:	00 00 00 00 
    9f0c:	48 8d 05 85 31 01 00 	lea    0x13185(%rip),%rax        # 1d098 <g_63>
    9f13:	48 89 85 a8 f9 ff ff 	mov    %rax,-0x658(%rbp)
    9f1a:	48 8d 05 77 31 01 00 	lea    0x13177(%rip),%rax        # 1d098 <g_63>
    9f21:	48 89 85 b0 f9 ff ff 	mov    %rax,-0x650(%rbp)
    9f28:	48 c7 85 b8 f9 ff ff 	movq   $0x0,-0x648(%rbp)
    9f2f:	00 00 00 00 
    9f33:	48 8d 85 94 e5 ff ff 	lea    -0x1a6c(%rbp),%rax
    9f3a:	48 89 85 c0 f9 ff ff 	mov    %rax,-0x640(%rbp)
    9f41:	48 8d 85 94 e5 ff ff 	lea    -0x1a6c(%rbp),%rax
    9f48:	48 89 85 c8 f9 ff ff 	mov    %rax,-0x638(%rbp)
    9f4f:	48 c7 85 d0 f9 ff ff 	movq   $0x0,-0x630(%rbp)
    9f56:	00 00 00 00 
    9f5a:	48 8d 85 94 e5 ff ff 	lea    -0x1a6c(%rbp),%rax
    9f61:	48 89 85 d8 f9 ff ff 	mov    %rax,-0x628(%rbp)
    9f68:	48 8d 05 b9 30 01 00 	lea    0x130b9(%rip),%rax        # 1d028 <g_25>
    9f6f:	48 89 85 e0 f9 ff ff 	mov    %rax,-0x620(%rbp)
    9f76:	48 8d 85 8c e5 ff ff 	lea    -0x1a74(%rbp),%rax
    9f7d:	48 89 85 e8 f9 ff ff 	mov    %rax,-0x618(%rbp)
    9f84:	48 8d 85 8c e5 ff ff 	lea    -0x1a74(%rbp),%rax
    9f8b:	48 89 85 f0 f9 ff ff 	mov    %rax,-0x610(%rbp)
    9f92:	48 c7 85 f8 f9 ff ff 	movq   $0x0,-0x608(%rbp)
    9f99:	00 00 00 00 
    9f9d:	48 c7 85 00 fa ff ff 	movq   $0x0,-0x600(%rbp)
    9fa4:	00 00 00 00 
    9fa8:	48 8d 05 79 30 01 00 	lea    0x13079(%rip),%rax        # 1d028 <g_25>
    9faf:	48 89 85 08 fa ff ff 	mov    %rax,-0x5f8(%rbp)
    9fb6:	48 8d 05 db 30 01 00 	lea    0x130db(%rip),%rax        # 1d098 <g_63>
    9fbd:	48 89 85 10 fa ff ff 	mov    %rax,-0x5f0(%rbp)
    9fc4:	48 8d 85 90 e5 ff ff 	lea    -0x1a70(%rbp),%rax
    9fcb:	48 89 85 18 fa ff ff 	mov    %rax,-0x5e8(%rbp)
    9fd2:	48 8d 05 e3 3a 01 00 	lea    0x13ae3(%rip),%rax        # 1dabc <g_2100>
    9fd9:	48 89 85 20 fa ff ff 	mov    %rax,-0x5e0(%rbp)
    9fe0:	48 8d 05 d5 3a 01 00 	lea    0x13ad5(%rip),%rax        # 1dabc <g_2100>
    9fe7:	48 89 85 28 fa ff ff 	mov    %rax,-0x5d8(%rbp)
    9fee:	48 c7 85 30 fa ff ff 	movq   $0x0,-0x5d0(%rbp)
    9ff5:	00 00 00 00 
    9ff9:	48 8d 05 98 30 01 00 	lea    0x13098(%rip),%rax        # 1d098 <g_63>
    a000:	48 89 85 38 fa ff ff 	mov    %rax,-0x5c8(%rbp)
    a007:	48 8d 85 8c e5 ff ff 	lea    -0x1a74(%rbp),%rax
    a00e:	48 89 85 40 fa ff ff 	mov    %rax,-0x5c0(%rbp)
    a015:	48 8d 85 94 e5 ff ff 	lea    -0x1a6c(%rbp),%rax
    a01c:	48 89 85 48 fa ff ff 	mov    %rax,-0x5b8(%rbp)
    a023:	48 8d 05 6e 30 01 00 	lea    0x1306e(%rip),%rax        # 1d098 <g_63>
    a02a:	48 89 85 50 fa ff ff 	mov    %rax,-0x5b0(%rbp)
    a031:	48 c7 85 58 fa ff ff 	movq   $0x0,-0x5a8(%rbp)
    a038:	00 00 00 00 
    a03c:	48 8d 05 e5 2f 01 00 	lea    0x12fe5(%rip),%rax        # 1d028 <g_25>
    a043:	48 89 85 60 fa ff ff 	mov    %rax,-0x5a0(%rbp)
    a04a:	48 8d 85 94 e5 ff ff 	lea    -0x1a6c(%rbp),%rax
    a051:	48 89 85 68 fa ff ff 	mov    %rax,-0x598(%rbp)
    a058:	48 8d 85 8c e5 ff ff 	lea    -0x1a74(%rbp),%rax
    a05f:	48 89 85 70 fa ff ff 	mov    %rax,-0x590(%rbp)
    a066:	48 8d 05 bb 2f 01 00 	lea    0x12fbb(%rip),%rax        # 1d028 <g_25>
    a06d:	48 89 85 78 fa ff ff 	mov    %rax,-0x588(%rbp)
    a074:	48 8d 85 94 e5 ff ff 	lea    -0x1a6c(%rbp),%rax
    a07b:	48 89 85 80 fa ff ff 	mov    %rax,-0x580(%rbp)
    a082:	48 8d 85 8c e5 ff ff 	lea    -0x1a74(%rbp),%rax
    a089:	48 89 85 88 fa ff ff 	mov    %rax,-0x578(%rbp)
    a090:	48 8d 05 91 2f 01 00 	lea    0x12f91(%rip),%rax        # 1d028 <g_25>
    a097:	48 89 85 90 fa ff ff 	mov    %rax,-0x570(%rbp)
    a09e:	48 8d 85 94 e5 ff ff 	lea    -0x1a6c(%rbp),%rax
    a0a5:	48 89 85 98 fa ff ff 	mov    %rax,-0x568(%rbp)
    a0ac:	48 8d 85 8c e5 ff ff 	lea    -0x1a74(%rbp),%rax
    a0b3:	48 89 85 a0 fa ff ff 	mov    %rax,-0x560(%rbp)
    a0ba:	48 8d 05 67 2f 01 00 	lea    0x12f67(%rip),%rax        # 1d028 <g_25>
    a0c1:	48 89 85 a8 fa ff ff 	mov    %rax,-0x558(%rbp)
    a0c8:	48 c7 85 b0 fa ff ff 	movq   $0x0,-0x550(%rbp)
    a0cf:	00 00 00 00 
    a0d3:	48 8d 05 4e 2f 01 00 	lea    0x12f4e(%rip),%rax        # 1d028 <g_25>
    a0da:	48 89 85 b8 fa ff ff 	mov    %rax,-0x548(%rbp)
    a0e1:	48 8d 05 d4 39 01 00 	lea    0x139d4(%rip),%rax        # 1dabc <g_2100>
    a0e8:	48 89 85 c0 fa ff ff 	mov    %rax,-0x540(%rbp)
    a0ef:	48 8d 05 32 2f 01 00 	lea    0x12f32(%rip),%rax        # 1d028 <g_25>
    a0f6:	48 89 85 c8 fa ff ff 	mov    %rax,-0x538(%rbp)
    a0fd:	48 8d 05 b8 39 01 00 	lea    0x139b8(%rip),%rax        # 1dabc <g_2100>
    a104:	48 89 85 d0 fa ff ff 	mov    %rax,-0x530(%rbp)
    a10b:	48 8d 05 16 2f 01 00 	lea    0x12f16(%rip),%rax        # 1d028 <g_25>
    a112:	48 89 85 d8 fa ff ff 	mov    %rax,-0x528(%rbp)
    a119:	48 8d 85 8c e5 ff ff 	lea    -0x1a74(%rbp),%rax
    a120:	48 89 85 e0 fa ff ff 	mov    %rax,-0x520(%rbp)
    a127:	48 8d 85 8c e5 ff ff 	lea    -0x1a74(%rbp),%rax
    a12e:	48 89 85 e8 fa ff ff 	mov    %rax,-0x518(%rbp)
    a135:	48 8d 85 94 e5 ff ff 	lea    -0x1a6c(%rbp),%rax
    a13c:	48 89 85 f0 fa ff ff 	mov    %rax,-0x510(%rbp)
    a143:	48 8d 05 de 2e 01 00 	lea    0x12ede(%rip),%rax        # 1d028 <g_25>
    a14a:	48 89 85 f8 fa ff ff 	mov    %rax,-0x508(%rbp)
    a151:	48 8d 05 d0 2e 01 00 	lea    0x12ed0(%rip),%rax        # 1d028 <g_25>
    a158:	48 89 85 00 fb ff ff 	mov    %rax,-0x500(%rbp)
    a15f:	48 c7 85 08 fb ff ff 	movq   $0x0,-0x4f8(%rbp)
    a166:	00 00 00 00 
    a16a:	48 8d 85 90 e5 ff ff 	lea    -0x1a70(%rbp),%rax
    a171:	48 89 85 10 fb ff ff 	mov    %rax,-0x4f0(%rbp)
    a178:	48 8d 05 a9 2e 01 00 	lea    0x12ea9(%rip),%rax        # 1d028 <g_25>
    a17f:	48 89 85 18 fb ff ff 	mov    %rax,-0x4e8(%rbp)
    a186:	48 8d 85 90 e5 ff ff 	lea    -0x1a70(%rbp),%rax
    a18d:	48 89 85 20 fb ff ff 	mov    %rax,-0x4e0(%rbp)
    a194:	48 c7 85 28 fb ff ff 	movq   $0x0,-0x4d8(%rbp)
    a19b:	00 00 00 00 
    a19f:	48 c7 85 30 fb ff ff 	movq   $0x0,-0x4d0(%rbp)
    a1a6:	00 00 00 00 
    a1aa:	48 8d 05 77 2e 01 00 	lea    0x12e77(%rip),%rax        # 1d028 <g_25>
    a1b1:	48 89 85 38 fb ff ff 	mov    %rax,-0x4c8(%rbp)
    a1b8:	48 8d 05 69 2e 01 00 	lea    0x12e69(%rip),%rax        # 1d028 <g_25>
    a1bf:	48 89 85 40 fb ff ff 	mov    %rax,-0x4c0(%rbp)
    a1c6:	48 c7 85 48 fb ff ff 	movq   $0x0,-0x4b8(%rbp)
    a1cd:	00 00 00 00 
    a1d1:	48 8d 85 90 e5 ff ff 	lea    -0x1a70(%rbp),%rax
    a1d8:	48 89 85 50 fb ff ff 	mov    %rax,-0x4b0(%rbp)
    a1df:	48 8d 05 d6 38 01 00 	lea    0x138d6(%rip),%rax        # 1dabc <g_2100>
    a1e6:	48 89 85 58 fb ff ff 	mov    %rax,-0x4a8(%rbp)
    a1ed:	48 8d 85 90 e5 ff ff 	lea    -0x1a70(%rbp),%rax
    a1f4:	48 89 85 60 fb ff ff 	mov    %rax,-0x4a0(%rbp)
    a1fb:	48 c7 85 68 fb ff ff 	movq   $0x0,-0x498(%rbp)
    a202:	00 00 00 00 
    a206:	48 c7 85 70 fb ff ff 	movq   $0x0,-0x490(%rbp)
    a20d:	00 00 00 00 
    a211:	48 8d 05 80 2e 01 00 	lea    0x12e80(%rip),%rax        # 1d098 <g_63>
    a218:	48 89 85 78 fb ff ff 	mov    %rax,-0x488(%rbp)
    a21f:	48 8d 05 96 38 01 00 	lea    0x13896(%rip),%rax        # 1dabc <g_2100>
    a226:	48 89 85 80 fb ff ff 	mov    %rax,-0x480(%rbp)
    a22d:	48 8d 85 94 e5 ff ff 	lea    -0x1a6c(%rbp),%rax
    a234:	48 89 85 88 fb ff ff 	mov    %rax,-0x478(%rbp)
    a23b:	48 c7 85 90 fb ff ff 	movq   $0x0,-0x470(%rbp)
    a242:	00 00 00 00 
    a246:	48 8d 85 90 e5 ff ff 	lea    -0x1a70(%rbp),%rax
    a24d:	48 89 85 98 fb ff ff 	mov    %rax,-0x468(%rbp)
    a254:	48 8d 05 cd 2d 01 00 	lea    0x12dcd(%rip),%rax        # 1d028 <g_25>
    a25b:	48 89 85 a0 fb ff ff 	mov    %rax,-0x460(%rbp)
    a262:	48 c7 85 a8 fb ff ff 	movq   $0x0,-0x458(%rbp)
    a269:	00 00 00 00 
    a26d:	48 8d 05 48 38 01 00 	lea    0x13848(%rip),%rax        # 1dabc <g_2100>
    a274:	48 89 85 b0 fb ff ff 	mov    %rax,-0x450(%rbp)
    a27b:	48 8d 85 94 e5 ff ff 	lea    -0x1a6c(%rbp),%rax
    a282:	48 89 85 b8 fb ff ff 	mov    %rax,-0x448(%rbp)
    a289:	48 8d 85 94 e5 ff ff 	lea    -0x1a6c(%rbp),%rax
    a290:	48 89 85 c0 fb ff ff 	mov    %rax,-0x440(%rbp)
    a297:	48 8d 85 94 e5 ff ff 	lea    -0x1a6c(%rbp),%rax
    a29e:	48 89 85 c8 fb ff ff 	mov    %rax,-0x438(%rbp)
    a2a5:	48 8d 85 8c e5 ff ff 	lea    -0x1a74(%rbp),%rax
    a2ac:	48 89 85 d0 fb ff ff 	mov    %rax,-0x430(%rbp)
    a2b3:	48 8d 05 02 38 01 00 	lea    0x13802(%rip),%rax        # 1dabc <g_2100>
    a2ba:	48 89 85 d8 fb ff ff 	mov    %rax,-0x428(%rbp)
    a2c1:	48 8d 85 90 e5 ff ff 	lea    -0x1a70(%rbp),%rax
    a2c8:	48 89 85 e0 fb ff ff 	mov    %rax,-0x420(%rbp)
    a2cf:	48 c7 85 e8 fb ff ff 	movq   $0x0,-0x418(%rbp)
    a2d6:	00 00 00 00 
    a2da:	48 8d 05 db 37 01 00 	lea    0x137db(%rip),%rax        # 1dabc <g_2100>
    a2e1:	48 89 85 f0 fb ff ff 	mov    %rax,-0x410(%rbp)
    a2e8:	48 8d 85 94 e5 ff ff 	lea    -0x1a6c(%rbp),%rax
    a2ef:	48 89 85 f8 fb ff ff 	mov    %rax,-0x408(%rbp)
    a2f6:	48 8d 05 9b 2d 01 00 	lea    0x12d9b(%rip),%rax        # 1d098 <g_63>
    a2fd:	48 89 85 00 fc ff ff 	mov    %rax,-0x400(%rbp)
    a304:	48 c7 85 08 fc ff ff 	movq   $0x0,-0x3f8(%rbp)
    a30b:	00 00 00 00 
    a30f:	48 c7 85 10 fc ff ff 	movq   $0x0,-0x3f0(%rbp)
    a316:	00 00 00 00 
    a31a:	48 c7 85 18 fc ff ff 	movq   $0x0,-0x3e8(%rbp)
    a321:	00 00 00 00 
    a325:	48 8d 85 8c e5 ff ff 	lea    -0x1a74(%rbp),%rax
    a32c:	48 89 85 20 fc ff ff 	mov    %rax,-0x3e0(%rbp)
    a333:	48 c7 85 28 fc ff ff 	movq   $0x0,-0x3d8(%rbp)
    a33a:	00 00 00 00 
    a33e:	48 8d 85 94 e5 ff ff 	lea    -0x1a6c(%rbp),%rax
    a345:	48 89 85 30 fc ff ff 	mov    %rax,-0x3d0(%rbp)
    a34c:	48 c7 85 38 fc ff ff 	movq   $0x0,-0x3c8(%rbp)
    a353:	00 00 00 00 
    a357:	48 8d 05 3a 2d 01 00 	lea    0x12d3a(%rip),%rax        # 1d098 <g_63>
    a35e:	48 89 85 40 fc ff ff 	mov    %rax,-0x3c0(%rbp)
    a365:	48 8d 85 8c e5 ff ff 	lea    -0x1a74(%rbp),%rax
    a36c:	48 89 85 48 fc ff ff 	mov    %rax,-0x3b8(%rbp)
    a373:	48 8d 85 94 e5 ff ff 	lea    -0x1a6c(%rbp),%rax
    a37a:	48 89 85 50 fc ff ff 	mov    %rax,-0x3b0(%rbp)
    a381:	48 8d 05 a0 2c 01 00 	lea    0x12ca0(%rip),%rax        # 1d028 <g_25>
    a388:	48 89 85 58 fc ff ff 	mov    %rax,-0x3a8(%rbp)
    a38f:	48 c7 85 60 fc ff ff 	movq   $0x0,-0x3a0(%rbp)
    a396:	00 00 00 00 
    a39a:	48 8d 05 1b 37 01 00 	lea    0x1371b(%rip),%rax        # 1dabc <g_2100>
    a3a1:	48 89 85 68 fc ff ff 	mov    %rax,-0x398(%rbp)
    a3a8:	48 8d 05 0d 37 01 00 	lea    0x1370d(%rip),%rax        # 1dabc <g_2100>
    a3af:	48 89 85 70 fc ff ff 	mov    %rax,-0x390(%rbp)
    a3b6:	48 8d 05 db 2c 01 00 	lea    0x12cdb(%rip),%rax        # 1d098 <g_63>
    a3bd:	48 89 85 78 fc ff ff 	mov    %rax,-0x388(%rbp)
    a3c4:	48 8d 85 90 e5 ff ff 	lea    -0x1a70(%rbp),%rax
    a3cb:	48 89 85 80 fc ff ff 	mov    %rax,-0x380(%rbp)
    a3d2:	48 8d 85 94 e5 ff ff 	lea    -0x1a6c(%rbp),%rax
    a3d9:	48 89 85 88 fc ff ff 	mov    %rax,-0x378(%rbp)
    a3e0:	48 8d 85 8c e5 ff ff 	lea    -0x1a74(%rbp),%rax
    a3e7:	48 89 85 90 fc ff ff 	mov    %rax,-0x370(%rbp)
    a3ee:	48 c7 85 98 fc ff ff 	movq   $0x0,-0x368(%rbp)
    a3f5:	00 00 00 00 
    a3f9:	48 8d 05 98 2c 01 00 	lea    0x12c98(%rip),%rax        # 1d098 <g_63>
    a400:	48 89 85 a0 fc ff ff 	mov    %rax,-0x360(%rbp)
    a407:	48 c7 85 a8 fc ff ff 	movq   $0x0,-0x358(%rbp)
    a40e:	00 00 00 00 
    a412:	48 8d 05 7f 2c 01 00 	lea    0x12c7f(%rip),%rax        # 1d098 <g_63>
    a419:	48 89 85 b0 fc ff ff 	mov    %rax,-0x350(%rbp)
    a420:	48 8d 05 01 2c 01 00 	lea    0x12c01(%rip),%rax        # 1d028 <g_25>
    a427:	48 89 85 b8 fc ff ff 	mov    %rax,-0x348(%rbp)
    a42e:	48 c7 85 c0 fc ff ff 	movq   $0x0,-0x340(%rbp)
    a435:	00 00 00 00 
    a439:	48 c7 85 c8 fc ff ff 	movq   $0x0,-0x338(%rbp)
    a440:	00 00 00 00 
    a444:	48 8d 05 dd 2b 01 00 	lea    0x12bdd(%rip),%rax        # 1d028 <g_25>
    a44b:	48 89 85 d0 fc ff ff 	mov    %rax,-0x330(%rbp)
    a452:	48 8d 05 3f 2c 01 00 	lea    0x12c3f(%rip),%rax        # 1d098 <g_63>
    a459:	48 89 85 d8 fc ff ff 	mov    %rax,-0x328(%rbp)
    a460:	48 8d 85 94 e5 ff ff 	lea    -0x1a6c(%rbp),%rax
    a467:	48 89 85 e0 fc ff ff 	mov    %rax,-0x320(%rbp)
    a46e:	48 8d 05 47 36 01 00 	lea    0x13647(%rip),%rax        # 1dabc <g_2100>
    a475:	48 89 85 e8 fc ff ff 	mov    %rax,-0x318(%rbp)
    a47c:	48 8d 85 94 e5 ff ff 	lea    -0x1a6c(%rbp),%rax
    a483:	48 89 85 f0 fc ff ff 	mov    %rax,-0x310(%rbp)
    a48a:	48 8d 85 8c e5 ff ff 	lea    -0x1a74(%rbp),%rax
    a491:	48 89 85 f8 fc ff ff 	mov    %rax,-0x308(%rbp)
    a498:	48 c7 85 00 fd ff ff 	movq   $0x0,-0x300(%rbp)
    a49f:	00 00 00 00 
    a4a3:	48 8d 85 94 e5 ff ff 	lea    -0x1a6c(%rbp),%rax
    a4aa:	48 89 85 08 fd ff ff 	mov    %rax,-0x2f8(%rbp)
    a4b1:	48 c7 85 10 fd ff ff 	movq   $0x0,-0x2f0(%rbp)
    a4b8:	00 00 00 00 
    a4bc:	48 8d 85 90 e5 ff ff 	lea    -0x1a70(%rbp),%rax
    a4c3:	48 89 85 18 fd ff ff 	mov    %rax,-0x2e8(%rbp)
    a4ca:	48 8d 85 94 e5 ff ff 	lea    -0x1a6c(%rbp),%rax
    a4d1:	48 89 85 20 fd ff ff 	mov    %rax,-0x2e0(%rbp)
    a4d8:	48 8d 85 94 e5 ff ff 	lea    -0x1a6c(%rbp),%rax
    a4df:	48 89 85 28 fd ff ff 	mov    %rax,-0x2d8(%rbp)
    a4e6:	48 8d 85 94 e5 ff ff 	lea    -0x1a6c(%rbp),%rax
    a4ed:	48 89 85 30 fd ff ff 	mov    %rax,-0x2d0(%rbp)
    a4f4:	48 8d 85 94 e5 ff ff 	lea    -0x1a6c(%rbp),%rax
    a4fb:	48 89 85 38 fd ff ff 	mov    %rax,-0x2c8(%rbp)
    a502:	48 8d 05 8f 2b 01 00 	lea    0x12b8f(%rip),%rax        # 1d098 <g_63>
    a509:	48 89 85 40 fd ff ff 	mov    %rax,-0x2c0(%rbp)
    a510:	48 8d 85 8c e5 ff ff 	lea    -0x1a74(%rbp),%rax
    a517:	48 89 85 48 fd ff ff 	mov    %rax,-0x2b8(%rbp)
    a51e:	48 8d 05 03 2b 01 00 	lea    0x12b03(%rip),%rax        # 1d028 <g_25>
    a525:	48 89 85 50 fd ff ff 	mov    %rax,-0x2b0(%rbp)
    a52c:	48 8d 05 f5 2a 01 00 	lea    0x12af5(%rip),%rax        # 1d028 <g_25>
    a533:	48 89 85 58 fd ff ff 	mov    %rax,-0x2a8(%rbp)
    a53a:	48 8d 85 90 e5 ff ff 	lea    -0x1a70(%rbp),%rax
    a541:	48 89 85 60 fd ff ff 	mov    %rax,-0x2a0(%rbp)
    a548:	48 c7 85 68 fd ff ff 	movq   $0x0,-0x298(%rbp)
    a54f:	00 00 00 00 
    a553:	48 8d 05 62 35 01 00 	lea    0x13562(%rip),%rax        # 1dabc <g_2100>
    a55a:	48 89 85 70 fd ff ff 	mov    %rax,-0x290(%rbp)
    a561:	48 c7 85 78 fd ff ff 	movq   $0x0,-0x288(%rbp)
    a568:	00 00 00 00 
    a56c:	48 8d 85 90 e5 ff ff 	lea    -0x1a70(%rbp),%rax
    a573:	48 89 85 80 fd ff ff 	mov    %rax,-0x280(%rbp)
    a57a:	48 8d 85 8c e5 ff ff 	lea    -0x1a74(%rbp),%rax
    a581:	48 89 85 88 fd ff ff 	mov    %rax,-0x278(%rbp)
    a588:	48 c7 85 90 fd ff ff 	movq   $0x0,-0x270(%rbp)
    a58f:	00 00 00 00 
    a593:	48 c7 85 98 fd ff ff 	movq   $0x0,-0x268(%rbp)
    a59a:	00 00 00 00 
    a59e:	48 c7 85 a0 fd ff ff 	movq   $0x0,-0x260(%rbp)
    a5a5:	00 00 00 00 
    a5a9:	48 8d 85 8c e5 ff ff 	lea    -0x1a74(%rbp),%rax
    a5b0:	48 89 85 a8 fd ff ff 	mov    %rax,-0x258(%rbp)
    a5b7:	48 c7 85 b0 fd ff ff 	movq   $0x0,-0x250(%rbp)
    a5be:	00 00 00 00 
    a5c2:	48 c7 85 b8 fd ff ff 	movq   $0x0,-0x248(%rbp)
    a5c9:	00 00 00 00 
    a5cd:	48 8d 05 e8 34 01 00 	lea    0x134e8(%rip),%rax        # 1dabc <g_2100>
    a5d4:	48 89 85 c0 fd ff ff 	mov    %rax,-0x240(%rbp)
    a5db:	48 8d 85 94 e5 ff ff 	lea    -0x1a6c(%rbp),%rax
    a5e2:	48 89 85 c8 fd ff ff 	mov    %rax,-0x238(%rbp)
    a5e9:	48 8d 05 a8 2a 01 00 	lea    0x12aa8(%rip),%rax        # 1d098 <g_63>
    a5f0:	48 89 85 d0 fd ff ff 	mov    %rax,-0x230(%rbp)
    a5f7:	48 c7 85 d8 fd ff ff 	movq   $0x0,-0x228(%rbp)
    a5fe:	00 00 00 00 
    a602:	48 8d 85 94 e5 ff ff 	lea    -0x1a6c(%rbp),%rax
    a609:	48 89 85 e0 fd ff ff 	mov    %rax,-0x220(%rbp)
    a610:	48 8d 05 11 2a 01 00 	lea    0x12a11(%rip),%rax        # 1d028 <g_25>
    a617:	48 89 85 e8 fd ff ff 	mov    %rax,-0x218(%rbp)
    a61e:	48 c7 85 f0 fd ff ff 	movq   $0x0,-0x210(%rbp)
    a625:	00 00 00 00 
    a629:	48 8d 85 8c e5 ff ff 	lea    -0x1a74(%rbp),%rax
    a630:	48 89 85 f8 fd ff ff 	mov    %rax,-0x208(%rbp)
    a637:	48 8d 85 90 e5 ff ff 	lea    -0x1a70(%rbp),%rax
    a63e:	48 89 85 00 fe ff ff 	mov    %rax,-0x200(%rbp)
    a645:	48 c7 85 08 fe ff ff 	movq   $0x0,-0x1f8(%rbp)
    a64c:	00 00 00 00 
    a650:	48 8d 85 8c e5 ff ff 	lea    -0x1a74(%rbp),%rax
    a657:	48 89 85 10 fe ff ff 	mov    %rax,-0x1f0(%rbp)
    a65e:	48 8d 05 c3 29 01 00 	lea    0x129c3(%rip),%rax        # 1d028 <g_25>
    a665:	48 89 85 18 fe ff ff 	mov    %rax,-0x1e8(%rbp)
    a66c:	48 8d 85 90 e5 ff ff 	lea    -0x1a70(%rbp),%rax
    a673:	48 89 85 20 fe ff ff 	mov    %rax,-0x1e0(%rbp)
    a67a:	48 8d 05 a7 29 01 00 	lea    0x129a7(%rip),%rax        # 1d028 <g_25>
    a681:	48 89 85 28 fe ff ff 	mov    %rax,-0x1d8(%rbp)
    a688:	48 8d 85 8c e5 ff ff 	lea    -0x1a74(%rbp),%rax
    a68f:	48 89 85 30 fe ff ff 	mov    %rax,-0x1d0(%rbp)
    a696:	48 8d 85 94 e5 ff ff 	lea    -0x1a6c(%rbp),%rax
    a69d:	48 89 85 38 fe ff ff 	mov    %rax,-0x1c8(%rbp)
    a6a4:	48 8d 85 8c e5 ff ff 	lea    -0x1a74(%rbp),%rax
    a6ab:	48 89 85 40 fe ff ff 	mov    %rax,-0x1c0(%rbp)
    a6b2:	48 8d 85 8c e5 ff ff 	lea    -0x1a74(%rbp),%rax
    a6b9:	48 89 85 48 fe ff ff 	mov    %rax,-0x1b8(%rbp)
    a6c0:	48 8d 05 d1 29 01 00 	lea    0x129d1(%rip),%rax        # 1d098 <g_63>
    a6c7:	48 89 85 50 fe ff ff 	mov    %rax,-0x1b0(%rbp)
    a6ce:	48 8d 05 c3 29 01 00 	lea    0x129c3(%rip),%rax        # 1d098 <g_63>
    a6d5:	48 89 85 58 fe ff ff 	mov    %rax,-0x1a8(%rbp)
    a6dc:	48 c7 85 60 fe ff ff 	movq   $0x0,-0x1a0(%rbp)
    a6e3:	00 00 00 00 
    a6e7:	48 8d 85 94 e5 ff ff 	lea    -0x1a6c(%rbp),%rax
    a6ee:	48 89 85 68 fe ff ff 	mov    %rax,-0x198(%rbp)
    a6f5:	48 8d 85 90 e5 ff ff 	lea    -0x1a70(%rbp),%rax
    a6fc:	48 89 85 70 fe ff ff 	mov    %rax,-0x190(%rbp)
    a703:	48 8d 85 94 e5 ff ff 	lea    -0x1a6c(%rbp),%rax
    a70a:	48 89 85 78 fe ff ff 	mov    %rax,-0x188(%rbp)
    a711:	48 c7 85 80 fe ff ff 	movq   $0x0,-0x180(%rbp)
    a718:	00 00 00 00 
    a71c:	48 8d 05 75 29 01 00 	lea    0x12975(%rip),%rax        # 1d098 <g_63>
    a723:	48 89 85 88 fe ff ff 	mov    %rax,-0x178(%rbp)
    a72a:	48 c7 85 90 fe ff ff 	movq   $0x0,-0x170(%rbp)
    a731:	00 00 00 00 
    a735:	48 c7 85 98 fe ff ff 	movq   $0x0,-0x168(%rbp)
    a73c:	00 00 00 00 
    a740:	48 8d 05 75 33 01 00 	lea    0x13375(%rip),%rax        # 1dabc <g_2100>
    a747:	48 89 85 a0 fe ff ff 	mov    %rax,-0x160(%rbp)
    a74e:	48 8d 85 94 e5 ff ff 	lea    -0x1a6c(%rbp),%rax
    a755:	48 89 85 a8 fe ff ff 	mov    %rax,-0x158(%rbp)
    a75c:	48 8d 05 35 29 01 00 	lea    0x12935(%rip),%rax        # 1d098 <g_63>
    a763:	48 89 85 b0 fe ff ff 	mov    %rax,-0x150(%rbp)
    a76a:	48 c7 85 b8 fe ff ff 	movq   $0x0,-0x148(%rbp)
    a771:	00 00 00 00 
    a775:	48 c7 85 c0 fe ff ff 	movq   $0x0,-0x140(%rbp)
    a77c:	00 00 00 00 
    a780:	48 8d 85 94 e5 ff ff 	lea    -0x1a6c(%rbp),%rax
    a787:	48 89 85 c8 fe ff ff 	mov    %rax,-0x138(%rbp)
    a78e:	48 c7 85 d0 fe ff ff 	movq   $0x0,-0x130(%rbp)
    a795:	00 00 00 00 
    a799:	48 8d 85 94 e5 ff ff 	lea    -0x1a6c(%rbp),%rax
    a7a0:	48 89 85 d8 fe ff ff 	mov    %rax,-0x128(%rbp)
    a7a7:	48 c7 85 e0 fe ff ff 	movq   $0x0,-0x120(%rbp)
    a7ae:	00 00 00 00 
    a7b2:	48 8d 85 90 e5 ff ff 	lea    -0x1a70(%rbp),%rax
    a7b9:	48 89 85 e8 fe ff ff 	mov    %rax,-0x118(%rbp)
    a7c0:	48 8d 85 94 e5 ff ff 	lea    -0x1a6c(%rbp),%rax
    a7c7:	48 89 85 f0 fe ff ff 	mov    %rax,-0x110(%rbp)
    a7ce:	48 8d 05 53 28 01 00 	lea    0x12853(%rip),%rax        # 1d028 <g_25>
    a7d5:	48 89 85 f8 fe ff ff 	mov    %rax,-0x108(%rbp)
    a7dc:	48 8d 05 d9 32 01 00 	lea    0x132d9(%rip),%rax        # 1dabc <g_2100>
    a7e3:	48 89 85 00 ff ff ff 	mov    %rax,-0x100(%rbp)
    a7ea:	48 8d 85 94 e5 ff ff 	lea    -0x1a6c(%rbp),%rax
    a7f1:	48 89 85 08 ff ff ff 	mov    %rax,-0xf8(%rbp)
    a7f8:	48 c7 85 10 ff ff ff 	movq   $0x0,-0xf0(%rbp)
    a7ff:	00 00 00 00 
    a803:	48 8d 05 1e 28 01 00 	lea    0x1281e(%rip),%rax        # 1d028 <g_25>
    a80a:	48 89 85 18 ff ff ff 	mov    %rax,-0xe8(%rbp)
    a811:	48 8d 85 8c e5 ff ff 	lea    -0x1a74(%rbp),%rax
    a818:	48 89 85 20 ff ff ff 	mov    %rax,-0xe0(%rbp)
    a81f:	48 8d 85 90 e5 ff ff 	lea    -0x1a70(%rbp),%rax
    a826:	48 89 85 28 ff ff ff 	mov    %rax,-0xd8(%rbp)
    a82d:	48 8d 05 88 32 01 00 	lea    0x13288(%rip),%rax        # 1dabc <g_2100>
    a834:	48 89 85 30 ff ff ff 	mov    %rax,-0xd0(%rbp)
    a83b:	48 8d 05 e6 27 01 00 	lea    0x127e6(%rip),%rax        # 1d028 <g_25>
    a842:	48 89 85 38 ff ff ff 	mov    %rax,-0xc8(%rbp)
    a849:	48 8d 05 48 28 01 00 	lea    0x12848(%rip),%rax        # 1d098 <g_63>
    a850:	48 89 85 40 ff ff ff 	mov    %rax,-0xc0(%rbp)
    a857:	48 8d 85 94 e5 ff ff 	lea    -0x1a6c(%rbp),%rax
    a85e:	48 89 85 48 ff ff ff 	mov    %rax,-0xb8(%rbp)
    a865:	48 8d 85 90 e5 ff ff 	lea    -0x1a70(%rbp),%rax
    a86c:	48 89 85 50 ff ff ff 	mov    %rax,-0xb0(%rbp)
    a873:	48 8d 85 94 e5 ff ff 	lea    -0x1a6c(%rbp),%rax
    a87a:	48 89 85 58 ff ff ff 	mov    %rax,-0xa8(%rbp)
    a881:	48 8d 05 34 32 01 00 	lea    0x13234(%rip),%rax        # 1dabc <g_2100>
    a888:	48 89 85 60 ff ff ff 	mov    %rax,-0xa0(%rbp)
    a88f:	48 8d 85 90 e5 ff ff 	lea    -0x1a70(%rbp),%rax
    a896:	48 89 85 68 ff ff ff 	mov    %rax,-0x98(%rbp)
    a89d:	48 8d 05 18 32 01 00 	lea    0x13218(%rip),%rax        # 1dabc <g_2100>
    a8a4:	48 89 85 70 ff ff ff 	mov    %rax,-0x90(%rbp)
    a8ab:	48 8d 05 e6 27 01 00 	lea    0x127e6(%rip),%rax        # 1d098 <g_63>
    a8b2:	48 89 85 78 ff ff ff 	mov    %rax,-0x88(%rbp)
    a8b9:	48 c7 45 80 00 00 00 	movq   $0x0,-0x80(%rbp)
    a8c0:	00 
    a8c1:	48 8d 05 f4 31 01 00 	lea    0x131f4(%rip),%rax        # 1dabc <g_2100>
    a8c8:	48 89 45 88          	mov    %rax,-0x78(%rbp)
    a8cc:	48 8d 05 c5 27 01 00 	lea    0x127c5(%rip),%rax        # 1d098 <g_63>
    a8d3:	48 89 45 90          	mov    %rax,-0x70(%rbp)
    a8d7:	48 8d 85 94 e5 ff ff 	lea    -0x1a6c(%rbp),%rax
    a8de:	48 89 45 98          	mov    %rax,-0x68(%rbp)
    a8e2:	48 8d 85 8c e5 ff ff 	lea    -0x1a74(%rbp),%rax
    a8e9:	48 89 45 a0          	mov    %rax,-0x60(%rbp)
    a8ed:	48 8d 05 a4 27 01 00 	lea    0x127a4(%rip),%rax        # 1d098 <g_63>
    a8f4:	48 89 45 a8          	mov    %rax,-0x58(%rbp)
    a8f8:	c6 85 6c e5 ff ff 35 	movb   $0x35,-0x1a94(%rbp)
    a8ff:	48 8d 05 12 47 01 00 	lea    0x14712(%rip),%rax        # 1f018 <g_1145>
    a906:	48 89 85 00 e9 ff ff 	mov    %rax,-0x1700(%rbp)
    a90d:	48 8d 05 04 47 01 00 	lea    0x14704(%rip),%rax        # 1f018 <g_1145>
    a914:	48 89 85 08 e9 ff ff 	mov    %rax,-0x16f8(%rbp)
    a91b:	48 8d 05 f6 46 01 00 	lea    0x146f6(%rip),%rax        # 1f018 <g_1145>
    a922:	48 89 85 10 e9 ff ff 	mov    %rax,-0x16f0(%rbp)
    a929:	48 8d 05 e8 46 01 00 	lea    0x146e8(%rip),%rax        # 1f018 <g_1145>
    a930:	48 89 85 18 e9 ff ff 	mov    %rax,-0x16e8(%rbp)
    a937:	48 8d 05 da 46 01 00 	lea    0x146da(%rip),%rax        # 1f018 <g_1145>
    a93e:	48 89 85 20 e9 ff ff 	mov    %rax,-0x16e0(%rbp)
    a945:	48 8d 05 cc 46 01 00 	lea    0x146cc(%rip),%rax        # 1f018 <g_1145>
    a94c:	48 89 85 28 e9 ff ff 	mov    %rax,-0x16d8(%rbp)
    a953:	48 8d 05 be 46 01 00 	lea    0x146be(%rip),%rax        # 1f018 <g_1145>
    a95a:	48 89 85 30 e9 ff ff 	mov    %rax,-0x16d0(%rbp)
    a961:	48 8d 05 b0 46 01 00 	lea    0x146b0(%rip),%rax        # 1f018 <g_1145>
    a968:	48 89 85 38 e9 ff ff 	mov    %rax,-0x16c8(%rbp)
    a96f:	48 8d 05 a2 46 01 00 	lea    0x146a2(%rip),%rax        # 1f018 <g_1145>
    a976:	48 89 85 40 e9 ff ff 	mov    %rax,-0x16c0(%rbp)
    a97d:	48 8d 05 94 46 01 00 	lea    0x14694(%rip),%rax        # 1f018 <g_1145>
    a984:	48 89 85 48 e9 ff ff 	mov    %rax,-0x16b8(%rbp)
    a98b:	48 8d 85 00 e9 ff ff 	lea    -0x1700(%rbp),%rax
    a992:	48 83 c0 48          	add    $0x48,%rax
    a996:	48 89 85 d8 e6 ff ff 	mov    %rax,-0x1928(%rbp)
    a99d:	c7 85 f0 e5 ff ff 4e 	movl   $0x50530d4e,-0x1a10(%rbp)
    a9a4:	0d 53 50 
    a9a7:	66 c7 85 80 e5 ff ff 	movw   $0xfbd2,-0x1a80(%rbp)
    a9ae:	d2 fb 
    a9b0:	48 8d 05 51 43 01 00 	lea    0x14351(%rip),%rax        # 1ed08 <g_415>
    a9b7:	48 89 85 e0 e6 ff ff 	mov    %rax,-0x1920(%rbp)
    a9be:	48 b8 fc fc fc fc fc 	movabs $0xfcfcfcfcfcfcfcfc,%rax
    a9c5:	fc fc fc 
    a9c8:	48 89 45 b7          	mov    %rax,-0x49(%rbp)
    a9cc:	c7 85 f4 e5 ff ff 00 	movl   $0x0,-0x1a0c(%rbp)
    a9d3:	00 00 00 
    a9d6:	c7 85 f8 e5 ff ff 03 	movl   $0x3,-0x1a08(%rbp)
    a9dd:	00 00 00 
    a9e0:	c7 85 e4 e5 ff ff 00 	movl   $0x0,-0x1a1c(%rbp)
    a9e7:	00 00 00 
    a9ea:	eb 21                	jmp    aa0d <func_1+0x1258>
    a9ec:	8b 85 e4 e5 ff ff    	mov    -0x1a1c(%rbp),%eax
    a9f2:	48 98                	cltq   
    a9f4:	48 bb 59 45 e7 07 be 	movabs $0x90bd12be07e74559,%rbx
    a9fb:	12 bd 90 
    a9fe:	48 89 9c c5 50 e8 ff 	mov    %rbx,-0x17b0(%rbp,%rax,8)
    aa05:	ff 
    aa06:	83 85 e4 e5 ff ff 01 	addl   $0x1,-0x1a1c(%rbp)
    aa0d:	83 bd e4 e5 ff ff 01 	cmpl   $0x1,-0x1a1c(%rbp)
    aa14:	7e d6                	jle    a9ec <func_1+0x1237>
    aa16:	c7 85 e4 e5 ff ff 00 	movl   $0x0,-0x1a1c(%rbp)
    aa1d:	00 00 00 
    aa20:	eb 14                	jmp    aa36 <func_1+0x1281>
    aa22:	8b 85 e4 e5 ff ff    	mov    -0x1a1c(%rbp),%eax
    aa28:	48 98                	cltq   
    aa2a:	c6 44 05 bf 00       	movb   $0x0,-0x41(%rbp,%rax,1)
    aa2f:	83 85 e4 e5 ff ff 01 	addl   $0x1,-0x1a1c(%rbp)
    aa36:	83 bd e4 e5 ff ff 08 	cmpl   $0x8,-0x1a1c(%rbp)
    aa3d:	7e e3                	jle    aa22 <func_1+0x126d>
    aa3f:	8b 05 df 25 01 00    	mov    0x125df(%rip),%eax        # 1d024 <g_5>
    aa45:	0f b7 c0             	movzwl %ax,%eax
    aa48:	8b 15 d6 25 01 00    	mov    0x125d6(%rip),%edx        # 1d024 <g_5>
    aa4e:	89 c6                	mov    %eax,%esi
    aa50:	89 d7                	mov    %edx,%edi
    aa52:	e8 09 2f 00 00       	callq  d960 <func_2>
    aa57:	85 c0                	test   %eax,%eax
    aa59:	0f 84 07 09 00 00    	je     b366 <func_1+0x1bb1>
    aa5f:	48 b8 f8 a9 fd 65 99 	movabs $0xfdc7ab9965fda9f8,%rax
    aa66:	ab c7 fd 
    aa69:	48 89 85 98 e7 ff ff 	mov    %rax,-0x1868(%rbp)
    aa70:	48 8d 05 21 26 01 00 	lea    0x12621(%rip),%rax        # 1d098 <g_63>
    aa77:	48 89 85 a0 e7 ff ff 	mov    %rax,-0x1860(%rbp)
    aa7e:	48 8d 05 43 30 01 00 	lea    0x13043(%rip),%rax        # 1dac8 <g_2622>
    aa85:	48 89 85 98 e6 ff ff 	mov    %rax,-0x1968(%rbp)
    aa8c:	48 8d 85 98 e6 ff ff 	lea    -0x1968(%rbp),%rax
    aa93:	48 89 85 60 e8 ff ff 	mov    %rax,-0x17a0(%rbp)
    aa9a:	48 8d 85 98 e6 ff ff 	lea    -0x1968(%rbp),%rax
    aaa1:	48 89 85 68 e8 ff ff 	mov    %rax,-0x1798(%rbp)
    aaa8:	48 8d 85 98 e6 ff ff 	lea    -0x1968(%rbp),%rax
    aaaf:	48 89 85 70 e8 ff ff 	mov    %rax,-0x1790(%rbp)
    aab6:	48 8d 85 98 e6 ff ff 	lea    -0x1968(%rbp),%rax
    aabd:	48 89 85 78 e8 ff ff 	mov    %rax,-0x1788(%rbp)
    aac4:	c7 85 90 e6 ff ff fa 	movl   $0xfffffffa,-0x1970(%rbp)
    aacb:	ff ff ff 
    aace:	c7 85 3c e6 ff ff 43 	movl   $0x218cb443,-0x19c4(%rbp)
    aad5:	b4 8c 21 
    aad8:	48 8d 05 c1 2f 01 00 	lea    0x12fc1(%rip),%rax        # 1daa0 <g_1291>
    aadf:	48 89 85 b0 e8 ff ff 	mov    %rax,-0x1750(%rbp)
    aae6:	48 8d 05 b3 2f 01 00 	lea    0x12fb3(%rip),%rax        # 1daa0 <g_1291>
    aaed:	48 89 85 b8 e8 ff ff 	mov    %rax,-0x1748(%rbp)
    aaf4:	48 8d 05 a5 2f 01 00 	lea    0x12fa5(%rip),%rax        # 1daa0 <g_1291>
    aafb:	48 89 85 c0 e8 ff ff 	mov    %rax,-0x1740(%rbp)
    ab02:	48 8d 05 97 2f 01 00 	lea    0x12f97(%rip),%rax        # 1daa0 <g_1291>
    ab09:	48 89 85 c8 e8 ff ff 	mov    %rax,-0x1738(%rbp)
    ab10:	48 8d 05 89 2f 01 00 	lea    0x12f89(%rip),%rax        # 1daa0 <g_1291>
    ab17:	48 89 85 d0 e8 ff ff 	mov    %rax,-0x1730(%rbp)
    ab1e:	48 8d 05 7b 2f 01 00 	lea    0x12f7b(%rip),%rax        # 1daa0 <g_1291>
    ab25:	48 89 85 d8 e8 ff ff 	mov    %rax,-0x1728(%rbp)
    ab2c:	48 8d 05 6d 2f 01 00 	lea    0x12f6d(%rip),%rax        # 1daa0 <g_1291>
    ab33:	48 89 85 e0 e8 ff ff 	mov    %rax,-0x1720(%rbp)
    ab3a:	48 8d 05 5f 2f 01 00 	lea    0x12f5f(%rip),%rax        # 1daa0 <g_1291>
    ab41:	48 89 85 e8 e8 ff ff 	mov    %rax,-0x1718(%rbp)
    ab48:	48 8d 05 51 2f 01 00 	lea    0x12f51(%rip),%rax        # 1daa0 <g_1291>
    ab4f:	48 89 85 f0 e8 ff ff 	mov    %rax,-0x1710(%rbp)
    ab56:	48 8d 85 90 e6 ff ff 	lea    -0x1970(%rbp),%rax
    ab5d:	48 89 85 a8 e7 ff ff 	mov    %rax,-0x1858(%rbp)
    ab64:	48 c7 05 31 25 01 00 	movq   $0xfffffffffffffff2,0x12531(%rip)        # 1d0a0 <g_89>
    ab6b:	f2 ff ff ff 
    ab6f:	e9 41 03 00 00       	jmpq   aeb5 <func_1+0x1700>
    ab74:	48 b8 8b b2 7f fb 64 	movabs $0x971d7d64fb7fb28b,%rax
    ab7b:	7d 1d 97 
    ab7e:	48 89 85 f0 e7 ff ff 	mov    %rax,-0x1810(%rbp)
    ab85:	48 8d 05 1e 27 01 00 	lea    0x1271e(%rip),%rax        # 1d2aa <g_243>
    ab8c:	48 89 85 f8 e7 ff ff 	mov    %rax,-0x1808(%rbp)
    ab93:	c7 85 e8 e5 ff ff 00 	movl   $0x0,-0x1a18(%rbp)
    ab9a:	00 00 00 
    ab9d:	eb 1a                	jmp    abb9 <func_1+0x1404>
    ab9f:	8b 85 e8 e5 ff ff    	mov    -0x1a18(%rbp),%eax
    aba5:	48 98                	cltq   
    aba7:	c7 84 85 40 ec ff ff 	movl   $0xfffffff8,-0x13c0(%rbp,%rax,4)
    abae:	f8 ff ff ff 
    abb2:	83 85 e8 e5 ff ff 01 	addl   $0x1,-0x1a18(%rbp)
    abb9:	83 bd e8 e5 ff ff 04 	cmpl   $0x4,-0x1a18(%rbp)
    abc0:	7e dd                	jle    ab9f <func_1+0x13ea>
    abc2:	48 c7 05 e3 2e 01 00 	movq   $0x10,0x12ee3(%rip)        # 1dab0 <g_1671>
    abc9:	10 00 00 00 
    abcd:	eb 7d                	jmp    ac4c <func_1+0x1497>
    abcf:	66 c7 85 88 e6 ff ff 	movw   $0x484e,-0x1978(%rbp)
    abd6:	4e 48 
    abd8:	48 8d 85 88 e6 ff ff 	lea    -0x1978(%rbp),%rax
    abdf:	48 89 85 00 e8 ff ff 	mov    %rax,-0x1800(%rbp)
    abe6:	48 8d 05 0d 27 01 00 	lea    0x1270d(%rip),%rax        # 1d2fa <g_389+0x3a>
    abed:	48 89 85 08 e8 ff ff 	mov    %rax,-0x17f8(%rbp)
    abf4:	c7 85 30 f0 ff ff f1 	movl   $0xf27072f1,-0xfd0(%rbp)
    abfb:	72 70 f2 
    abfe:	c7 85 34 f0 ff ff f1 	movl   $0xf27072f1,-0xfcc(%rbp)
    ac05:	72 70 f2 
    ac08:	c7 85 38 f0 ff ff 00 	movl   $0x0,-0xfc8(%rbp)
    ac0f:	00 00 00 
    ac12:	c7 85 3c f0 ff ff f1 	movl   $0xf27072f1,-0xfc4(%rbp)
    ac19:	72 70 f2 
    ac1c:	c7 85 40 f0 ff ff f1 	movl   $0xf27072f1,-0xfc0(%rbp)
    ac23:	72 70 f2 
    ac26:	c7 85 44 f0 ff ff 00 	movl   $0x0,-0xfbc(%rbp)
    ac2d:	00 00 00 
    ac30:	c7 85 48 f0 ff ff f1 	movl   $0xf27072f1,-0xfb8(%rbp)
    ac37:	72 70 f2 
    ac3a:	48 8b 05 6f 2e 01 00 	mov    0x12e6f(%rip),%rax        # 1dab0 <g_1671>
    ac41:	48 83 c0 01          	add    $0x1,%rax
    ac45:	48 89 05 64 2e 01 00 	mov    %rax,0x12e64(%rip)        # 1dab0 <g_1671>
    ac4c:	48 8b 05 5d 2e 01 00 	mov    0x12e5d(%rip),%rax        # 1dab0 <g_1671>
    ac53:	48 83 f8 19          	cmp    $0x19,%rax
    ac57:	0f 84 72 ff ff ff    	je     abcf <func_1+0x141a>
    ac5d:	48 8b 05 4c 43 01 00 	mov    0x1434c(%rip),%rax        # 1efb0 <g_740>
    ac64:	48 8b 00             	mov    (%rax),%rax
    ac67:	48 8b 00             	mov    (%rax),%rax
    ac6a:	48 8b 95 a0 e7 ff ff 	mov    -0x1860(%rbp),%rdx
    ac71:	48 89 10             	mov    %rdx,(%rax)
    ac74:	48 8b 85 a0 e7 ff ff 	mov    -0x1860(%rbp),%rax
    ac7b:	8b 18                	mov    (%rax),%ebx
    ac7d:	48 8b 85 f0 e7 ff ff 	mov    -0x1810(%rbp),%rax
    ac84:	44 0f be e0          	movsbl %al,%r12d
    ac88:	4c 8b ad 68 e6 ff ff 	mov    -0x1998(%rbp),%r13
    ac8f:	48 8b 85 a0 e7 ff ff 	mov    -0x1860(%rbp),%rax
    ac96:	8b 00                	mov    (%rax),%eax
    ac98:	89 85 5c e5 ff ff    	mov    %eax,-0x1aa4(%rbp)
    ac9e:	8b 85 40 ec ff ff    	mov    -0x13c0(%rbp),%eax
    aca4:	44 0f b7 f0          	movzwl %ax,%r14d
    aca8:	48 8b 05 01 26 01 00 	mov    0x12601(%rip),%rax        # 1d2b0 <g_339>
    acaf:	44 0f b6 f8          	movzbl %al,%r15d
    acb3:	8b 95 50 ec ff ff    	mov    -0x13b0(%rbp),%edx
    acb9:	8b 8d 4c ec ff ff    	mov    -0x13b4(%rbp),%ecx
    acbf:	48 8d 05 52 63 01 00 	lea    0x16352(%rip),%rax        # 21018 <g_777>
    acc6:	89 c9                	mov    %ecx,%ecx
    acc8:	48 89 08             	mov    %rcx,(%rax)
    accb:	48 8b 0d 66 56 01 00 	mov    0x15666(%rip),%rcx        # 20338 <g_3080+0x38>
    acd2:	48 8b 85 60 e8 ff ff 	mov    -0x17a0(%rbp),%rax
    acd9:	48 39 c1             	cmp    %rax,%rcx
    acdc:	48 8b 85 68 e6 ff ff 	mov    -0x1998(%rbp),%rax
    ace3:	48 85 c0             	test   %rax,%rax
    ace6:	0f 95 c0             	setne  %al
    ace9:	0f b6 c0             	movzbl %al,%eax
    acec:	89 d6                	mov    %edx,%esi
    acee:	89 c7                	mov    %eax,%edi
    acf0:	e8 c9 df ff ff       	callq  8cbe <safe_rshift_func_uint8_t_u_u>
    acf5:	44 89 fe             	mov    %r15d,%esi
    acf8:	bf 00 00 00 00       	mov    $0x0,%edi
    acfd:	e8 d9 de ff ff       	callq  8bdb <safe_div_func_uint8_t_u_u>
    ad02:	8b 85 48 ec ff ff    	mov    -0x13b8(%rbp),%eax
    ad08:	85 c0                	test   %eax,%eax
    ad0a:	75 0a                	jne    ad16 <func_1+0x1561>
    ad0c:	8b 85 40 ec ff ff    	mov    -0x13c0(%rbp),%eax
    ad12:	85 c0                	test   %eax,%eax
    ad14:	74 07                	je     ad1d <func_1+0x1568>
    ad16:	ba 01 00 00 00       	mov    $0x1,%edx
    ad1b:	eb 05                	jmp    ad22 <func_1+0x156d>
    ad1d:	ba 00 00 00 00       	mov    $0x0,%edx
    ad22:	8b 85 48 ec ff ff    	mov    -0x13b8(%rbp),%eax
    ad28:	89 d6                	mov    %edx,%esi
    ad2a:	89 c7                	mov    %eax,%edi
    ad2c:	e8 ce d9 ff ff       	callq  86ff <safe_div_func_int32_t_s_s>
    ad31:	85 c0                	test   %eax,%eax
    ad33:	74 11                	je     ad46 <func_1+0x1591>
    ad35:	8b 85 4c ec ff ff    	mov    -0x13b4(%rbp),%eax
    ad3b:	85 c0                	test   %eax,%eax
    ad3d:	74 07                	je     ad46 <func_1+0x1591>
    ad3f:	b8 01 00 00 00       	mov    $0x1,%eax
    ad44:	eb 05                	jmp    ad4b <func_1+0x1596>
    ad46:	b8 00 00 00 00       	mov    $0x0,%eax
    ad4b:	0f b7 c0             	movzwl %ax,%eax
    ad4e:	44 89 f6             	mov    %r14d,%esi
    ad51:	89 c7                	mov    %eax,%edi
    ad53:	e8 36 e0 ff ff       	callq  8d8e <safe_div_func_uint16_t_u_u>
    ad58:	0f b7 d0             	movzwl %ax,%edx
    ad5b:	48 8b 05 a6 4b 01 00 	mov    0x14ba6(%rip),%rax        # 1f908 <g_1357>
    ad62:	0f b7 00             	movzwl (%rax),%eax
    ad65:	0f b7 c0             	movzwl %ax,%eax
    ad68:	89 d6                	mov    %edx,%esi
    ad6a:	89 c7                	mov    %eax,%edi
    ad6c:	e8 1d e0 ff ff       	callq  8d8e <safe_div_func_uint16_t_u_u>
    ad71:	48 8b 05 b0 4b 01 00 	mov    0x14bb0(%rip),%rax        # 1f928 <g_1522>
    ad78:	48 8b 00             	mov    (%rax),%rax
    ad7b:	48 8b 00             	mov    (%rax),%rax
    ad7e:	0f b6 00             	movzbl (%rax),%eax
    ad81:	0f b6 c0             	movzbl %al,%eax
    ad84:	8b b5 5c e5 ff ff    	mov    -0x1aa4(%rbp),%esi
    ad8a:	89 c7                	mov    %eax,%edi
    ad8c:	e8 bb de ff ff       	callq  8c4c <safe_lshift_func_uint8_t_u_u>
    ad91:	0f b6 d0             	movzbl %al,%edx
    ad94:	8b 85 90 e6 ff ff    	mov    -0x1970(%rbp),%eax
    ad9a:	21 d0                	and    %edx,%eax
    ad9c:	89 85 90 e6 ff ff    	mov    %eax,-0x1970(%rbp)
    ada2:	8b 85 90 e6 ff ff    	mov    -0x1970(%rbp),%eax
    ada8:	0f b7 c0             	movzwl %ax,%eax
    adab:	be 00 00 00 00       	mov    $0x0,%esi
    adb0:	89 c7                	mov    %eax,%edi
    adb2:	e8 07 e0 ff ff       	callq  8dbe <safe_lshift_func_uint16_t_u_s>
    adb7:	0f b7 d0             	movzwl %ax,%edx
    adba:	8b 85 48 ec ff ff    	mov    -0x13b8(%rbp),%eax
    adc0:	39 c2                	cmp    %eax,%edx
    adc2:	0f 94 c0             	sete   %al
    adc5:	0f b6 c0             	movzbl %al,%eax
    adc8:	be 02 00 00 00       	mov    $0x2,%esi
    adcd:	89 c7                	mov    %eax,%edi
    adcf:	e8 5d d4 ff ff       	callq  8231 <safe_mod_func_int8_t_s_s>
    add4:	48 0f be c0          	movsbq %al,%rax
    add8:	4c 89 ee             	mov    %r13,%rsi
    addb:	48 89 c7             	mov    %rax,%rdi
    adde:	e8 d1 db ff ff       	callq  89b4 <safe_mod_func_int64_t_s_s>
    ade3:	48 8b 85 a0 e7 ff ff 	mov    -0x1860(%rbp),%rax
    adea:	8b 00                	mov    (%rax),%eax
    adec:	85 c0                	test   %eax,%eax
    adee:	48 8b 85 a0 e7 ff ff 	mov    -0x1860(%rbp),%rax
    adf5:	8b 00                	mov    (%rax),%eax
    adf7:	89 c2                	mov    %eax,%edx
    adf9:	48 8b 05 28 4b 01 00 	mov    0x14b28(%rip),%rax        # 1f928 <g_1522>
    ae00:	48 8b 00             	mov    (%rax),%rax
    ae03:	48 8b 00             	mov    (%rax),%rax
    ae06:	83 e2 14             	and    $0x14,%edx
    ae09:	88 10                	mov    %dl,(%rax)
    ae0b:	0f b6 00             	movzbl (%rax),%eax
    ae0e:	0f b6 c0             	movzbl %al,%eax
    ae11:	89 c7                	mov    %eax,%edi
    ae13:	e8 2d dd ff ff       	callq  8b45 <safe_unary_minus_func_uint8_t_u>
    ae18:	44 89 e6             	mov    %r12d,%esi
    ae1b:	bf 01 00 00 00       	mov    $0x1,%edi
    ae20:	e8 ed d3 ff ff       	callq  8212 <safe_mul_func_int8_t_s_s>
    ae25:	be 08 00 00 00       	mov    $0x8,%esi
    ae2a:	bf 01 00 00 00       	mov    $0x1,%edi
    ae2f:	e8 44 dd ff ff       	callq  8b78 <safe_sub_func_uint8_t_u_u>
    ae34:	0f b6 d0             	movzbl %al,%edx
    ae37:	48 8b 85 f8 e7 ff ff 	mov    -0x1808(%rbp),%rax
    ae3e:	66 89 10             	mov    %dx,(%rax)
    ae41:	48 8b 85 f8 e7 ff ff 	mov    -0x1808(%rbp),%rax
    ae48:	0f b7 00             	movzwl (%rax),%eax
    ae4b:	89 c2                	mov    %eax,%edx
    ae4d:	48 8b 05 bc 4a 01 00 	mov    0x14abc(%rip),%rax        # 1f910 <g_1356>
    ae54:	48 8b 00             	mov    (%rax),%rax
    ae57:	0f b7 00             	movzwl (%rax),%eax
    ae5a:	31 d0                	xor    %edx,%eax
    ae5c:	0f be c0             	movsbl %al,%eax
    ae5f:	89 de                	mov    %ebx,%esi
    ae61:	89 c7                	mov    %eax,%edi
    ae63:	e8 39 d4 ff ff       	callq  82a1 <safe_lshift_func_int8_t_s_s>
    ae68:	3c fb                	cmp    $0xfb,%al
    ae6a:	0f 9c c0             	setl   %al
    ae6d:	0f b6 d0             	movzbl %al,%edx
    ae70:	b8 90 da ff ff       	mov    $0xffffda90,%eax
    ae75:	0f b7 c0             	movzwl %ax,%eax
    ae78:	39 c2                	cmp    %eax,%edx
    ae7a:	0f 95 c0             	setne  %al
    ae7d:	0f b6 c0             	movzbl %al,%eax
    ae80:	be 08 00 00 00       	mov    $0x8,%esi
    ae85:	89 c7                	mov    %eax,%edi
    ae87:	e8 d7 d6 ff ff       	callq  8563 <safe_rshift_func_int16_t_s_u>
    ae8c:	89 c2                	mov    %eax,%edx
    ae8e:	48 8b 05 6b 41 01 00 	mov    0x1416b(%rip),%rax        # 1f000 <g_811>
    ae95:	0f bf d2             	movswl %dx,%edx
    ae98:	89 10                	mov    %edx,(%rax)
    ae9a:	48 8b 05 ff 21 01 00 	mov    0x121ff(%rip),%rax        # 1d0a0 <g_89>
    aea1:	be 04 00 00 00       	mov    $0x4,%esi
    aea6:	48 89 c7             	mov    %rax,%rdi
    aea9:	e8 93 d9 ff ff       	callq  8841 <safe_add_func_int64_t_s_s>
    aeae:	48 89 05 eb 21 01 00 	mov    %rax,0x121eb(%rip)        # 1d0a0 <g_89>
    aeb5:	48 8b 05 e4 21 01 00 	mov    0x121e4(%rip),%rax        # 1d0a0 <g_89>
    aebc:	48 83 f8 f3          	cmp    $0xfffffffffffffff3,%rax
    aec0:	0f 8c ae fc ff ff    	jl     ab74 <func_1+0x13bf>
    aec6:	48 8b 85 68 e6 ff ff 	mov    -0x1998(%rbp),%rax
    aecd:	48 85 c0             	test   %rax,%rax
    aed0:	0f 84 2f 03 00 00    	je     b205 <func_1+0x1a50>
    aed6:	66 c7 85 78 e5 ff ff 	movw   $0x45c5,-0x1a88(%rbp)
    aedd:	c5 45 
    aedf:	c7 85 4c e6 ff ff 59 	movl   $0x6bb33f59,-0x19b4(%rbp)
    aee6:	3f b3 6b 
    aee9:	48 c7 05 ac 23 01 00 	movq   $0xd,0x123ac(%rip)        # 1d2a0 <g_209>
    aef0:	0d 00 00 00 
    aef4:	e9 f6 02 00 00       	jmpq   b1ef <func_1+0x1a3a>
    aef9:	48 8d 85 30 f0 ff ff 	lea    -0xfd0(%rbp),%rax
    af00:	48 8d 15 99 e1 00 00 	lea    0xe199(%rip),%rdx        # 190a0 <g_3087+0x18>
    af07:	b9 23 00 00 00       	mov    $0x23,%ecx
    af0c:	48 89 c7             	mov    %rax,%rdi
    af0f:	48 89 d6             	mov    %rdx,%rsi
    af12:	f3 48 a5             	rep movsq %ds:(%rsi),%es:(%rdi)
    af15:	48 c7 85 c0 e7 ff ff 	movq   $0x0,-0x1840(%rbp)
    af1c:	00 00 00 00 
    af20:	c7 85 ac e5 ff ff 00 	movl   $0x0,-0x1a54(%rbp)
    af27:	00 00 00 
    af2a:	eb 1b                	jmp    af47 <func_1+0x1792>
    af2c:	8b 85 ac e5 ff ff    	mov    -0x1a54(%rbp),%eax
    af32:	48 98                	cltq   
    af34:	48 c7 84 c5 80 e8 ff 	movq   $0x0,-0x1780(%rbp,%rax,8)
    af3b:	ff 00 00 00 00 
    af40:	83 85 ac e5 ff ff 01 	addl   $0x1,-0x1a54(%rbp)
    af47:	83 bd ac e5 ff ff 04 	cmpl   $0x4,-0x1a54(%rbp)
    af4e:	7e dc                	jle    af2c <func_1+0x1777>
    af50:	48 8b 05 b1 4a 01 00 	mov    0x14ab1(%rip),%rax        # 1fa08 <g_1640>
    af57:	48 8b 95 a0 e7 ff ff 	mov    -0x1860(%rbp),%rdx
    af5e:	8b 12                	mov    (%rdx),%edx
    af60:	89 10                	mov    %edx,(%rax)
    af62:	66 c7 05 d5 23 01 00 	movw   $0x0,0x123d5(%rip)        # 1d340 <g_730>
    af69:	00 00 
    af6b:	e9 55 02 00 00       	jmpq   b1c5 <func_1+0x1a10>
    af70:	48 8d 05 45 2b 01 00 	lea    0x12b45(%rip),%rax        # 1dabc <g_2100>
    af77:	48 89 85 c8 e7 ff ff 	mov    %rax,-0x1838(%rbp)
    af7e:	48 8d 85 90 e6 ff ff 	lea    -0x1970(%rbp),%rax
    af85:	48 89 85 d0 e7 ff ff 	mov    %rax,-0x1830(%rbp)
    af8c:	48 8d 05 05 21 01 00 	lea    0x12105(%rip),%rax        # 1d098 <g_63>
    af93:	48 89 85 d8 e7 ff ff 	mov    %rax,-0x1828(%rbp)
    af9a:	48 8d 05 f7 20 01 00 	lea    0x120f7(%rip),%rax        # 1d098 <g_63>
    afa1:	48 89 85 e0 e7 ff ff 	mov    %rax,-0x1820(%rbp)
    afa8:	c7 85 50 e6 ff ff de 	movl   $0x6fe4f2de,-0x19b0(%rbp)
    afaf:	f2 e4 6f 
    afb2:	48 8d 05 ef 22 01 00 	lea    0x122ef(%rip),%rax        # 1d2a8 <g_241>
    afb9:	48 89 85 e8 e7 ff ff 	mov    %rax,-0x1818(%rbp)
    afc0:	c7 85 b0 e5 ff ff 00 	movl   $0x0,-0x1a50(%rbp)
    afc7:	00 00 00 
    afca:	eb 1e                	jmp    afea <func_1+0x1835>
    afcc:	8b 85 b0 e5 ff ff    	mov    -0x1a50(%rbp),%eax
    afd2:	48 98                	cltq   
    afd4:	48 8d 15 e1 2a 01 00 	lea    0x12ae1(%rip),%rdx        # 1dabc <g_2100>
    afdb:	48 89 94 c5 48 e8 ff 	mov    %rdx,-0x17b8(%rbp,%rax,8)
    afe2:	ff 
    afe3:	83 85 b0 e5 ff ff 01 	addl   $0x1,-0x1a50(%rbp)
    afea:	83 bd b0 e5 ff ff 00 	cmpl   $0x0,-0x1a50(%rbp)
    aff1:	7e d9                	jle    afcc <func_1+0x1817>
    aff3:	c7 85 b0 e5 ff ff 00 	movl   $0x0,-0x1a50(%rbp)
    affa:	00 00 00 
    affd:	eb 49                	jmp    b048 <func_1+0x1893>
    afff:	c7 85 b4 e5 ff ff 00 	movl   $0x0,-0x1a4c(%rbp)
    b006:	00 00 00 
    b009:	eb 2d                	jmp    b038 <func_1+0x1883>
    b00b:	8b 85 b4 e5 ff ff    	mov    -0x1a4c(%rbp),%eax
    b011:	48 98                	cltq   
    b013:	8b 95 b0 e5 ff ff    	mov    -0x1a50(%rbp),%edx
    b019:	48 63 d2             	movslq %edx,%rdx
    b01c:	48 01 d2             	add    %rdx,%rdx
    b01f:	48 01 d0             	add    %rdx,%rax
    b022:	48 8d 15 81 22 01 00 	lea    0x12281(%rip),%rdx        # 1d2aa <g_243>
    b029:	48 89 94 c5 40 ec ff 	mov    %rdx,-0x13c0(%rbp,%rax,8)
    b030:	ff 
    b031:	83 85 b4 e5 ff ff 01 	addl   $0x1,-0x1a4c(%rbp)
    b038:	83 bd b4 e5 ff ff 01 	cmpl   $0x1,-0x1a4c(%rbp)
    b03f:	7e ca                	jle    b00b <func_1+0x1856>
    b041:	83 85 b0 e5 ff ff 01 	addl   $0x1,-0x1a50(%rbp)
    b048:	83 bd b0 e5 ff ff 05 	cmpl   $0x5,-0x1a50(%rbp)
    b04f:	7e ae                	jle    afff <func_1+0x184a>
    b051:	66 83 ad 78 e5 ff ff 	subw   $0x1,-0x1a88(%rbp)
    b058:	01 
    b059:	48 8b 05 d8 48 01 00 	mov    0x148d8(%rip),%rax        # 1f938 <g_1542>
    b060:	44 8b 20             	mov    (%rax),%r12d
    b063:	48 8b 05 5e 3f 01 00 	mov    0x13f5e(%rip),%rax        # 1efc8 <g_774>
    b06a:	48 8b 00             	mov    (%rax),%rax
    b06d:	48 8b 00             	mov    (%rax),%rax
    b070:	48 8b 18             	mov    (%rax),%rbx
    b073:	48 8b 05 8e 48 01 00 	mov    0x1488e(%rip),%rax        # 1f908 <g_1357>
    b07a:	0f b7 00             	movzwl (%rax),%eax
    b07d:	0f b7 c0             	movzwl %ax,%eax
    b080:	be bb 11 00 00       	mov    $0x11bb,%esi
    b085:	89 c7                	mov    %eax,%edi
    b087:	e8 d0 dc ff ff       	callq  8d5c <safe_mod_func_uint16_t_u_u>
    b08c:	0f b7 c0             	movzwl %ax,%eax
    b08f:	48 89 de             	mov    %rbx,%rsi
    b092:	48 89 c7             	mov    %rax,%rdi
    b095:	e8 94 df ff ff       	callq  902e <safe_add_func_uint64_t_u_u>
    b09a:	48 8b 05 6f 3c 01 00 	mov    0x13c6f(%rip),%rax        # 1ed10 <g_414>
    b0a1:	48 8b 10             	mov    (%rax),%rdx
    b0a4:	48 8b 05 75 3f 01 00 	mov    0x13f75(%rip),%rax        # 1f020 <g_1181>
    b0ab:	48 8b 00             	mov    (%rax),%rax
    b0ae:	48 39 c2             	cmp    %rax,%rdx
    b0b1:	75 07                	jne    b0ba <func_1+0x1905>
    b0b3:	b8 01 00 00 00       	mov    $0x1,%eax
    b0b8:	eb 05                	jmp    b0bf <func_1+0x190a>
    b0ba:	b8 00 00 00 00       	mov    $0x0,%eax
    b0bf:	3d 87 c3 00 00       	cmp    $0xc387,%eax
    b0c4:	7e 0c                	jle    b0d2 <func_1+0x191d>
    b0c6:	0f b7 85 aa f0 ff ff 	movzwl -0xf56(%rbp),%eax
    b0cd:	66 85 c0             	test   %ax,%ax
    b0d0:	74 07                	je     b0d9 <func_1+0x1924>
    b0d2:	ba 01 00 00 00       	mov    $0x1,%edx
    b0d7:	eb 05                	jmp    b0de <func_1+0x1929>
    b0d9:	ba 00 00 00 00       	mov    $0x0,%edx
    b0de:	0f be 85 6a e5 ff ff 	movsbl -0x1a96(%rbp),%eax
    b0e5:	39 c2                	cmp    %eax,%edx
    b0e7:	0f 94 c0             	sete   %al
    b0ea:	0f b6 d0             	movzbl %al,%edx
    b0ed:	48 8b 85 68 e6 ff ff 	mov    -0x1998(%rbp),%rax
    b0f4:	48 39 c2             	cmp    %rax,%rdx
    b0f7:	0f 9c c0             	setl   %al
    b0fa:	0f b6 c0             	movzbl %al,%eax
    b0fd:	39 85 4c e6 ff ff    	cmp    %eax,-0x19b4(%rbp)
    b103:	0f 93 c0             	setae  %al
    b106:	0f b6 d0             	movzbl %al,%edx
    b109:	48 8b 85 e8 e7 ff ff 	mov    -0x1818(%rbp),%rax
    b110:	66 89 10             	mov    %dx,(%rax)
    b113:	48 8b 85 e8 e7 ff ff 	mov    -0x1818(%rbp),%rax
    b11a:	0f b7 00             	movzwl (%rax),%eax
    b11d:	66 89 05 86 21 01 00 	mov    %ax,0x12186(%rip)        # 1d2aa <g_243>
    b124:	0f b7 05 7f 21 01 00 	movzwl 0x1217f(%rip),%eax        # 1d2aa <g_243>
    b12b:	66 85 c0             	test   %ax,%ax
    b12e:	0f 95 c0             	setne  %al
    b131:	0f b6 c0             	movzbl %al,%eax
    b134:	89 c6                	mov    %eax,%esi
    b136:	bf 4a 64 00 00       	mov    $0x644a,%edi
    b13b:	e8 93 d2 ff ff       	callq  83d3 <safe_sub_func_int16_t_s_s>
    b140:	98                   	cwtl   
    b141:	44 31 e0             	xor    %r12d,%eax
    b144:	89 c2                	mov    %eax,%edx
    b146:	48 8b 85 e0 e7 ff ff 	mov    -0x1820(%rbp),%rax
    b14d:	89 10                	mov    %edx,(%rax)
    b14f:	48 8b 05 c2 3e 01 00 	mov    0x13ec2(%rip),%rax        # 1f018 <g_1145>
    b156:	48 8b 10             	mov    (%rax),%rdx
    b159:	48 8b 05 a8 3e 01 00 	mov    0x13ea8(%rip),%rax        # 1f008 <g_987>
    b160:	8b 12                	mov    (%rdx),%edx
    b162:	89 10                	mov    %edx,(%rax)
    b164:	66 c7 05 3b 21 01 00 	movw   $0x19,0x1213b(%rip)        # 1d2a8 <g_241>
    b16b:	19 00 
    b16d:	eb 29                	jmp    b198 <func_1+0x19e3>
    b16f:	66 83 bd 78 e5 ff ff 	cmpw   $0x0,-0x1a88(%rbp)
    b176:	00 
    b177:	75 2e                	jne    b1a7 <func_1+0x19f2>
    b179:	0f b7 05 28 21 01 00 	movzwl 0x12128(%rip),%eax        # 1d2a8 <g_241>
    b180:	48 0f bf c0          	movswq %ax,%rax
    b184:	be 04 00 00 00       	mov    $0x4,%esi
    b189:	48 89 c7             	mov    %rax,%rdi
    b18c:	e8 ba de ff ff       	callq  904b <safe_sub_func_uint64_t_u_u>
    b191:	66 89 05 10 21 01 00 	mov    %ax,0x12110(%rip)        # 1d2a8 <g_241>
    b198:	0f b7 05 09 21 01 00 	movzwl 0x12109(%rip),%eax        # 1d2a8 <g_241>
    b19f:	66 83 f8 f0          	cmp    $0xfff0,%ax
    b1a3:	7c ca                	jl     b16f <func_1+0x19ba>
    b1a5:	eb 01                	jmp    b1a8 <func_1+0x19f3>
    b1a7:	90                   	nop
    b1a8:	0f b7 05 91 21 01 00 	movzwl 0x12191(%rip),%eax        # 1d340 <g_730>
    b1af:	0f b7 c0             	movzwl %ax,%eax
    b1b2:	be 09 00 00 00       	mov    $0x9,%esi
    b1b7:	89 c7                	mov    %eax,%edi
    b1b9:	e8 41 db ff ff       	callq  8cff <safe_add_func_uint16_t_u_u>
    b1be:	66 89 05 7b 21 01 00 	mov    %ax,0x1217b(%rip)        # 1d340 <g_730>
    b1c5:	0f b7 05 74 21 01 00 	movzwl 0x12174(%rip),%eax        # 1d340 <g_730>
    b1cc:	66 83 f8 07          	cmp    $0x7,%ax
    b1d0:	0f 8f 9a fd ff ff    	jg     af70 <func_1+0x17bb>
    b1d6:	83 ad dc e5 ff ff 01 	subl   $0x1,-0x1a24(%rbp)
    b1dd:	48 8b 05 bc 20 01 00 	mov    0x120bc(%rip),%rax        # 1d2a0 <g_209>
    b1e4:	48 83 c0 01          	add    $0x1,%rax
    b1e8:	48 89 05 b1 20 01 00 	mov    %rax,0x120b1(%rip)        # 1d2a0 <g_209>
    b1ef:	48 8b 05 aa 20 01 00 	mov    0x120aa(%rip),%rax        # 1d2a0 <g_209>
    b1f6:	48 83 f8 1d          	cmp    $0x1d,%rax
    b1fa:	0f 85 f9 fc ff ff    	jne    aef9 <func_1+0x1744>
    b200:	e9 d5 00 00 00       	jmpq   b2da <func_1+0x1b25>
    b205:	66 c7 85 88 e5 ff ff 	movw   $0x7,-0x1a78(%rbp)
    b20c:	07 00 
    b20e:	c6 85 70 e5 ff ff 05 	movb   $0x5,-0x1a90(%rbp)
    b215:	c7 85 40 e6 ff ff f6 	movl   $0x83d61ef6,-0x19c0(%rbp)
    b21c:	1e d6 83 
    b21f:	c7 85 44 e6 ff ff 65 	movl   $0xfa19a465,-0x19bc(%rbp)
    b226:	a4 19 fa 
    b229:	c6 85 71 e5 ff ff ff 	movb   $0xff,-0x1a8f(%rbp)
    b230:	48 8d 05 99 50 01 00 	lea    0x15099(%rip),%rax        # 202d0 <g_2412>
    b237:	48 89 85 b0 e7 ff ff 	mov    %rax,-0x1850(%rbp)
    b23e:	c6 85 72 e5 ff ff 00 	movb   $0x0,-0x1a8e(%rbp)
    b245:	c7 05 49 1e 01 00 00 	movl   $0x0,0x11e49(%rip)        # 1d098 <g_63>
    b24c:	00 00 00 
    b24f:	eb 5a                	jmp    b2ab <func_1+0x1af6>
    b251:	c6 85 73 e5 ff ff ff 	movb   $0xff,-0x1a8d(%rbp)
    b258:	c7 85 48 e6 ff ff df 	movl   $0x1821badf,-0x19b8(%rbp)
    b25f:	ba 21 18 
    b262:	48 c7 85 b8 e7 ff ff 	movq   $0x0,-0x1848(%rbp)
    b269:	00 00 00 00 
    b26d:	c7 85 b8 e5 ff ff 00 	movl   $0x0,-0x1a48(%rbp)
    b274:	00 00 00 
    b277:	eb 1a                	jmp    b293 <func_1+0x1ade>
    b279:	8b 85 b8 e5 ff ff    	mov    -0x1a48(%rbp),%eax
    b27f:	48 98                	cltq   
    b281:	c7 84 85 30 f0 ff ff 	movl   $0xfffffff8,-0xfd0(%rbp,%rax,4)
    b288:	f8 ff ff ff 
    b28c:	83 85 b8 e5 ff ff 01 	addl   $0x1,-0x1a48(%rbp)
    b293:	83 bd b8 e5 ff ff 01 	cmpl   $0x1,-0x1a48(%rbp)
    b29a:	7e dd                	jle    b279 <func_1+0x1ac4>
    b29c:	8b 05 f6 1d 01 00    	mov    0x11df6(%rip),%eax        # 1d098 <g_63>
    b2a2:	83 e8 01             	sub    $0x1,%eax
    b2a5:	89 05 ed 1d 01 00    	mov    %eax,0x11ded(%rip)        # 1d098 <g_63>
    b2ab:	8b 05 e7 1d 01 00    	mov    0x11de7(%rip),%eax        # 1d098 <g_63>
    b2b1:	83 f8 f1             	cmp    $0xfffffff1,%eax
    b2b4:	7d 9b                	jge    b251 <func_1+0x1a9c>
    b2b6:	48 8b 05 43 3d 01 00 	mov    0x13d43(%rip),%rax        # 1f000 <g_811>
    b2bd:	8b 10                	mov    (%rax),%edx
    b2bf:	48 8b 05 3a 3d 01 00 	mov    0x13d3a(%rip),%rax        # 1f000 <g_811>
    b2c6:	81 ca c5 29 8a 82    	or     $0x828a29c5,%edx
    b2cc:	89 10                	mov    %edx,(%rax)
    b2ce:	48 8b 85 b0 e6 ff ff 	mov    -0x1950(%rbp),%rax
    b2d5:	e9 60 26 00 00       	jmpq   d93a <func_1+0x4185>
    b2da:	48 c7 05 cb 27 01 00 	movq   $0x0,0x127cb(%rip)        # 1dab0 <g_1671>
    b2e1:	00 00 00 00 
    b2e5:	eb 6d                	jmp    b354 <func_1+0x1b9f>
    b2e7:	c7 85 bc e5 ff ff 00 	movl   $0x0,-0x1a44(%rbp)
    b2ee:	00 00 00 
    b2f1:	eb 1a                	jmp    b30d <func_1+0x1b58>
    b2f3:	8b 85 bc e5 ff ff    	mov    -0x1a44(%rbp),%eax
    b2f9:	48 98                	cltq   
    b2fb:	c7 84 85 30 f0 ff ff 	movl   $0xfffffffc,-0xfd0(%rbp,%rax,4)
    b302:	fc ff ff ff 
    b306:	83 85 bc e5 ff ff 01 	addl   $0x1,-0x1a44(%rbp)
    b30d:	83 bd bc e5 ff ff 06 	cmpl   $0x6,-0x1a44(%rbp)
    b314:	7e dd                	jle    b2f3 <func_1+0x1b3e>
    b316:	48 8b 05 2b 32 01 00 	mov    0x1322b(%rip),%rax        # 1e548 <g_255>
    b31d:	48 c7 00 00 00 00 00 	movq   $0x0,(%rax)
    b324:	c6 05 14 20 01 00 00 	movb   $0x0,0x12014(%rip)        # 1d33f <g_480>
    b32b:	90                   	nop
    b32c:	0f b6 05 0c 20 01 00 	movzbl 0x1200c(%rip),%eax        # 1d33f <g_480>
    b333:	3c 03                	cmp    $0x3,%al
    b335:	77 0b                	ja     b342 <func_1+0x1b8d>
    b337:	8b 85 34 f0 ff ff    	mov    -0xfcc(%rbp),%eax
    b33d:	e9 f8 25 00 00       	jmpq   d93a <func_1+0x4185>
    b342:	48 8b 05 67 27 01 00 	mov    0x12767(%rip),%rax        # 1dab0 <g_1671>
    b349:	48 83 c0 01          	add    $0x1,%rax
    b34d:	48 89 05 5c 27 01 00 	mov    %rax,0x1275c(%rip)        # 1dab0 <g_1671>
    b354:	48 8b 05 55 27 01 00 	mov    0x12755(%rip),%rax        # 1dab0 <g_1671>
    b35b:	48 83 f8 03          	cmp    $0x3,%rax
    b35f:	76 86                	jbe    b2e7 <func_1+0x1b32>
    b361:	e9 7c 13 00 00       	jmpq   c6e2 <func_1+0x2f2d>
    b366:	66 c7 85 7a e5 ff ff 	movw   $0x87d9,-0x1a86(%rbp)
    b36d:	d9 87 
    b36f:	48 c7 85 e8 e6 ff ff 	movq   $0xfffffffffffffff6,-0x1918(%rbp)
    b376:	f6 ff ff ff 
    b37a:	48 b8 d9 3d 58 19 f5 	movabs $0x8bf59ff519583dd9,%rax
    b381:	9f f5 8b 
    b384:	48 89 85 f0 e6 ff ff 	mov    %rax,-0x1910(%rbp)
    b38b:	c7 85 98 e5 ff ff 47 	movl   $0xa189e047,-0x1a68(%rbp)
    b392:	e0 89 a1 
    b395:	c7 85 fc e5 ff ff ad 	movl   $0xfb1285ad,-0x1a04(%rbp)
    b39c:	85 12 fb 
    b39f:	66 c7 85 82 e5 ff ff 	movw   $0x99b8,-0x1a7e(%rbp)
    b3a6:	b8 99 
    b3a8:	c7 85 00 e6 ff ff 01 	movl   $0x1,-0x1a00(%rbp)
    b3af:	00 00 00 
    b3b2:	c7 85 04 e6 ff ff ff 	movl   $0xffffffff,-0x19fc(%rbp)
    b3b9:	ff ff ff 
    b3bc:	c7 85 9c e5 ff ff 4b 	movl   $0xf1f4d94b,-0x1a64(%rbp)
    b3c3:	d9 f4 f1 
    b3c6:	c7 85 08 e6 ff ff 87 	movl   $0x6fd41b87,-0x19f8(%rbp)
    b3cd:	1b d4 6f 
    b3d0:	66 c7 85 60 e8 ff ff 	movw   $0xffff,-0x17a0(%rbp)
    b3d7:	ff ff 
    b3d9:	66 c7 85 62 e8 ff ff 	movw   $0xffff,-0x179e(%rbp)
    b3e0:	ff ff 
    b3e2:	66 c7 85 64 e8 ff ff 	movw   $0xffff,-0x179c(%rbp)
    b3e9:	ff ff 
    b3eb:	66 c7 85 66 e8 ff ff 	movw   $0xffff,-0x179a(%rbp)
    b3f2:	ff ff 
    b3f4:	66 c7 85 68 e8 ff ff 	movw   $0xffff,-0x1798(%rbp)
    b3fb:	ff ff 
    b3fd:	66 c7 85 6a e8 ff ff 	movw   $0xffff,-0x1796(%rbp)
    b404:	ff ff 
    b406:	66 c7 85 6c e8 ff ff 	movw   $0xffff,-0x1794(%rbp)
    b40d:	ff ff 
    b40f:	66 c7 85 6e e8 ff ff 	movw   $0xffff,-0x1792(%rbp)
    b416:	ff ff 
    b418:	48 8d 05 e9 38 01 00 	lea    0x138e9(%rip),%rax        # 1ed08 <g_415>
    b41f:	48 89 85 f8 e6 ff ff 	mov    %rax,-0x1908(%rbp)
    b426:	48 c7 85 00 e7 ff ff 	movq   $0xffffffffffffffff,-0x1900(%rbp)
    b42d:	ff ff ff ff 
    b431:	c6 85 6d e5 ff ff cd 	movb   $0xcd,-0x1a93(%rbp)
    b438:	66 c7 85 84 e5 ff ff 	movw   $0x4de4,-0x1a7c(%rbp)
    b43f:	e4 4d 
    b441:	c6 05 f7 1e 01 00 00 	movb   $0x0,0x11ef7(%rip)        # 1d33f <g_480>
    b448:	e9 95 02 00 00       	jmpq   b6e2 <func_1+0x1f2d>
    b44d:	48 8d 05 ec 1e 01 00 	lea    0x11eec(%rip),%rax        # 1d340 <g_730>
    b454:	48 89 85 80 e7 ff ff 	mov    %rax,-0x1880(%rbp)
    b45b:	48 8d 05 46 1e 01 00 	lea    0x11e46(%rip),%rax        # 1d2a8 <g_241>
    b462:	48 89 85 88 e7 ff ff 	mov    %rax,-0x1878(%rbp)
    b469:	c7 85 34 e6 ff ff 5f 	movl   $0xa281ee5f,-0x19cc(%rbp)
    b470:	ee 81 a2 
    b473:	c7 85 38 e6 ff ff fa 	movl   $0xfffffffa,-0x19c8(%rbp)
    b47a:	ff ff ff 
    b47d:	48 8d 05 a4 1e 01 00 	lea    0x11ea4(%rip),%rax        # 1d328 <g_389+0x68>
    b484:	48 89 85 90 e7 ff ff 	mov    %rax,-0x1870(%rbp)
    b48b:	c7 85 c0 e5 ff ff 00 	movl   $0x0,-0x1a40(%rbp)
    b492:	00 00 00 
    b495:	eb 1a                	jmp    b4b1 <func_1+0x1cfc>
    b497:	8b 85 c0 e5 ff ff    	mov    -0x1a40(%rbp),%eax
    b49d:	48 98                	cltq   
    b49f:	c7 84 85 30 f0 ff ff 	movl   $0x0,-0xfd0(%rbp,%rax,4)
    b4a6:	00 00 00 00 
    b4aa:	83 85 c0 e5 ff ff 01 	addl   $0x1,-0x1a40(%rbp)
    b4b1:	83 bd c0 e5 ff ff 05 	cmpl   $0x5,-0x1a40(%rbp)
    b4b8:	7e dd                	jle    b497 <func_1+0x1ce2>
    b4ba:	48 8b 85 a0 e6 ff ff 	mov    -0x1960(%rbp),%rax
    b4c1:	8b 00                	mov    (%rax),%eax
    b4c3:	0f b6 d8             	movzbl %al,%ebx
    b4c6:	48 8b 05 3b 45 01 00 	mov    0x1453b(%rip),%rax        # 1fa08 <g_1640>
    b4cd:	8b 00                	mov    (%rax),%eax
    b4cf:	41 89 c7             	mov    %eax,%r15d
    b4d2:	8b 85 40 f0 ff ff    	mov    -0xfc0(%rbp),%eax
    b4d8:	89 c2                	mov    %eax,%edx
    b4da:	48 8b 85 80 e7 ff ff 	mov    -0x1880(%rbp),%rax
    b4e1:	66 89 10             	mov    %dx,(%rax)
    b4e4:	48 8b 85 80 e7 ff ff 	mov    -0x1880(%rbp),%rax
    b4eb:	0f b7 00             	movzwl (%rax),%eax
    b4ee:	98                   	cwtl   
    b4ef:	be 01 00 00 00       	mov    $0x1,%esi
    b4f4:	89 c7                	mov    %eax,%edi
    b4f6:	e8 68 d0 ff ff       	callq  8563 <safe_rshift_func_int16_t_s_u>
    b4fb:	48 8b 95 88 e7 ff ff 	mov    -0x1878(%rbp),%rdx
    b502:	66 89 02             	mov    %ax,(%rdx)
    b505:	48 8b 85 88 e7 ff ff 	mov    -0x1878(%rbp),%rax
    b50c:	0f b7 00             	movzwl (%rax),%eax
    b50f:	44 0f bf f0          	movswl %ax,%r14d
    b513:	48 8b 85 a0 e6 ff ff 	mov    -0x1960(%rbp),%rax
    b51a:	44 8b 20             	mov    (%rax),%r12d
    b51d:	48 8b 85 a0 e6 ff ff 	mov    -0x1960(%rbp),%rax
    b524:	44 8b 28             	mov    (%rax),%r13d
    b527:	48 8b 05 e2 43 01 00 	mov    0x143e2(%rip),%rax        # 1f910 <g_1356>
    b52e:	48 8b 00             	mov    (%rax),%rax
    b531:	0f b7 00             	movzwl (%rax),%eax
    b534:	0f b7 d0             	movzwl %ax,%edx
    b537:	48 8b 05 fa 43 01 00 	mov    0x143fa(%rip),%rax        # 1f938 <g_1542>
    b53e:	8b 08                	mov    (%rax),%ecx
    b540:	0f bf 85 7a e5 ff ff 	movswl -0x1a86(%rbp),%eax
    b547:	21 c8                	and    %ecx,%eax
    b549:	89 85 34 e6 ff ff    	mov    %eax,-0x19cc(%rbp)
    b54f:	8b 85 34 e6 ff ff    	mov    -0x19cc(%rbp),%eax
    b555:	98                   	cwtl   
    b556:	89 d6                	mov    %edx,%esi
    b558:	89 c7                	mov    %eax,%edi
    b55a:	e8 82 cf ff ff       	callq  84e1 <safe_lshift_func_int16_t_s_u>
    b55f:	44 89 ee             	mov    %r13d,%esi
    b562:	bf d9 00 00 00       	mov    $0xd9,%edi
    b567:	e8 4a d0 ff ff       	callq  85b6 <safe_add_func_int32_t_s_s>
    b56c:	8b 95 40 f0 ff ff    	mov    -0xfc0(%rbp),%edx
    b572:	8b 8d 3c f0 ff ff    	mov    -0xfc4(%rbp),%ecx
    b578:	48 8b 85 a0 e6 ff ff 	mov    -0x1960(%rbp),%rax
    b57f:	8b 00                	mov    (%rax),%eax
    b581:	48 98                	cltq   
    b583:	48 be 3c f9 39 60 ca 	movabs $0x993b22ca6039f93c,%rsi
    b58a:	22 3b 99 
    b58d:	48 39 f0             	cmp    %rsi,%rax
    b590:	0f 97 c0             	seta   %al
    b593:	0f b6 c0             	movzbl %al,%eax
    b596:	39 c1                	cmp    %eax,%ecx
    b598:	0f 94 c0             	sete   %al
    b59b:	0f b6 c0             	movzbl %al,%eax
    b59e:	39 85 38 e6 ff ff    	cmp    %eax,-0x19c8(%rbp)
    b5a4:	0f 94 c0             	sete   %al
    b5a7:	0f b6 c0             	movzbl %al,%eax
    b5aa:	31 d0                	xor    %edx,%eax
    b5ac:	44 89 e6             	mov    %r12d,%esi
    b5af:	89 c7                	mov    %eax,%edi
    b5b1:	e8 00 d0 ff ff       	callq  85b6 <safe_add_func_int32_t_s_s>
    b5b6:	3d dc 44 00 00       	cmp    $0x44dc,%eax
    b5bb:	0f 9f c0             	setg   %al
    b5be:	0f b6 d0             	movzbl %al,%edx
    b5c1:	48 8b 85 a0 e6 ff ff 	mov    -0x1960(%rbp),%rax
    b5c8:	8b 00                	mov    (%rax),%eax
    b5ca:	39 c2                	cmp    %eax,%edx
    b5cc:	0f 9f c0             	setg   %al
    b5cf:	0f b6 c0             	movzbl %al,%eax
    b5d2:	41 39 c6             	cmp    %eax,%r14d
    b5d5:	0f 9d c0             	setge  %al
    b5d8:	0f b6 c0             	movzbl %al,%eax
    b5db:	44 89 fe             	mov    %r15d,%esi
    b5de:	89 c7                	mov    %eax,%edi
    b5e0:	e8 d3 d8 ff ff       	callq  8eb8 <safe_add_func_uint32_t_u_u>
    b5e5:	85 c0                	test   %eax,%eax
    b5e7:	75 0d                	jne    b5f6 <func_1+0x1e41>
    b5e9:	48 8b 85 a0 e6 ff ff 	mov    -0x1960(%rbp),%rax
    b5f0:	8b 00                	mov    (%rax),%eax
    b5f2:	85 c0                	test   %eax,%eax
    b5f4:	74 07                	je     b5fd <func_1+0x1e48>
    b5f6:	b8 01 00 00 00       	mov    $0x1,%eax
    b5fb:	eb 05                	jmp    b602 <func_1+0x1e4d>
    b5fd:	b8 00 00 00 00       	mov    $0x0,%eax
    b602:	48 98                	cltq   
    b604:	48 c7 c6 f7 ff ff ff 	mov    $0xfffffffffffffff7,%rsi
    b60b:	48 89 c7             	mov    %rax,%rdi
    b60e:	e8 9c da ff ff       	callq  90af <safe_div_func_uint64_t_u_u>
    b613:	89 c2                	mov    %eax,%edx
    b615:	48 8b 05 ec 39 01 00 	mov    0x139ec(%rip),%rax        # 1f008 <g_987>
    b61c:	8b 00                	mov    (%rax),%eax
    b61e:	89 d6                	mov    %edx,%esi
    b620:	89 c7                	mov    %eax,%edi
    b622:	e8 8f cf ff ff       	callq  85b6 <safe_add_func_int32_t_s_s>
    b627:	0f b6 c0             	movzbl %al,%eax
    b62a:	89 de                	mov    %ebx,%esi
    b62c:	89 c7                	mov    %eax,%edi
    b62e:	e8 a8 d5 ff ff       	callq  8bdb <safe_div_func_uint8_t_u_u>
    b633:	48 8b 95 90 e7 ff ff 	mov    -0x1870(%rbp),%rdx
    b63a:	0f b7 12             	movzwl (%rdx),%edx
    b63d:	0f b6 c0             	movzbl %al,%eax
    b640:	31 c2                	xor    %eax,%edx
    b642:	48 8b 85 90 e7 ff ff 	mov    -0x1870(%rbp),%rax
    b649:	66 89 10             	mov    %dx,(%rax)
    b64c:	48 8b 85 90 e7 ff ff 	mov    -0x1870(%rbp),%rax
    b653:	0f b7 00             	movzwl (%rax),%eax
    b656:	66 0d 18 89          	or     $0x8918,%ax
    b65a:	0f b7 d0             	movzwl %ax,%edx
    b65d:	48 8b 85 a0 e6 ff ff 	mov    -0x1960(%rbp),%rax
    b664:	89 10                	mov    %edx,(%rax)
    b666:	48 8b 05 93 39 01 00 	mov    0x13993(%rip),%rax        # 1f000 <g_811>
    b66d:	8b 00                	mov    (%rax),%eax
    b66f:	39 85 38 e6 ff ff    	cmp    %eax,-0x19c8(%rbp)
    b675:	0f 9e c0             	setle  %al
    b678:	0f b6 c0             	movzbl %al,%eax
    b67b:	89 c7                	mov    %eax,%edi
    b67d:	e8 1b cd ff ff       	callq  839d <safe_unary_minus_func_int16_t_s>
    b682:	8b 85 44 f0 ff ff    	mov    -0xfbc(%rbp),%eax
    b688:	0f be c0             	movsbl %al,%eax
    b68b:	be fa ff ff ff       	mov    $0xfffffffa,%esi
    b690:	89 c7                	mov    %eax,%edi
    b692:	e8 d3 cb ff ff       	callq  826a <safe_div_func_int8_t_s_s>
    b697:	48 8b 05 6a 42 01 00 	mov    0x1426a(%rip),%rax        # 1f908 <g_1357>
    b69e:	0f b7 10             	movzwl (%rax),%edx
    b6a1:	83 c2 01             	add    $0x1,%edx
    b6a4:	66 89 10             	mov    %dx,(%rax)
    b6a7:	b9 01 00 00 00       	mov    $0x1,%ecx
    b6ac:	48 8b 05 65 39 01 00 	mov    0x13965(%rip),%rax        # 1f018 <g_1145>
    b6b3:	48 8b 00             	mov    (%rax),%rax
    b6b6:	8b 10                	mov    (%rax),%edx
    b6b8:	48 8b 05 59 39 01 00 	mov    0x13959(%rip),%rax        # 1f018 <g_1145>
    b6bf:	48 8b 00             	mov    (%rax),%rax
    b6c2:	09 ca                	or     %ecx,%edx
    b6c4:	89 10                	mov    %edx,(%rax)
    b6c6:	0f b6 05 72 1c 01 00 	movzbl 0x11c72(%rip),%eax        # 1d33f <g_480>
    b6cd:	0f b6 c0             	movzbl %al,%eax
    b6d0:	be 02 00 00 00       	mov    $0x2,%esi
    b6d5:	89 c7                	mov    %eax,%edi
    b6d7:	e8 d7 cc ff ff       	callq  83b3 <safe_add_func_int16_t_s_s>
    b6dc:	88 05 5d 1c 01 00    	mov    %al,0x11c5d(%rip)        # 1d33f <g_480>
    b6e2:	0f b6 05 56 1c 01 00 	movzbl 0x11c56(%rip),%eax        # 1d33f <g_480>
    b6e9:	3c 2d                	cmp    $0x2d,%al
    b6eb:	0f 84 5c fd ff ff    	je     b44d <func_1+0x1c98>
    b6f1:	c7 05 e1 23 01 00 fd 	movl   $0xfffffffd,0x123e1(%rip)        # 1dadc <g_2975>
    b6f8:	ff ff ff 
    b6fb:	e9 d3 0f 00 00       	jmpq   c6d3 <func_1+0x2f1e>
    b700:	c7 85 a0 e5 ff ff f8 	movl   $0xfffffff8,-0x1a60(%rbp)
    b707:	ff ff ff 
    b70a:	c7 85 a4 e5 ff ff cc 	movl   $0x25b5ccc,-0x1a5c(%rbp)
    b711:	5c 5b 02 
    b714:	c7 85 0c e6 ff ff a2 	movl   $0x16920fa2,-0x19f4(%rbp)
    b71b:	0f 92 16 
    b71e:	c6 85 6e e5 ff ff 7a 	movb   $0x7a,-0x1a92(%rbp)
    b725:	c7 85 c4 e5 ff ff 00 	movl   $0x0,-0x1a3c(%rbp)
    b72c:	00 00 00 
    b72f:	c7 85 10 e6 ff ff 4d 	movl   $0xa44b5b4d,-0x19f0(%rbp)
    b736:	5b 4b a4 
    b739:	c7 85 14 e6 ff ff 0d 	movl   $0x55638e0d,-0x19ec(%rbp)
    b740:	8e 63 55 
    b743:	66 c7 85 7c e5 ff ff 	movw   $0x1,-0x1a84(%rbp)
    b74a:	01 00 
    b74c:	c6 05 71 23 01 00 00 	movb   $0x0,0x12371(%rip)        # 1dac4 <g_2616>
    b753:	e9 40 07 00 00       	jmpq   be98 <func_1+0x26e3>
    b758:	66 c7 85 86 e5 ff ff 	movw   $0x7,-0x1a7a(%rbp)
    b75f:	07 00 
    b761:	c7 85 1c e6 ff ff 7b 	movl   $0x5d49817b,-0x19e4(%rbp)
    b768:	81 49 5d 
    b76b:	48 8d 85 a4 e5 ff ff 	lea    -0x1a5c(%rbp),%rax
    b772:	48 89 85 30 f0 ff ff 	mov    %rax,-0xfd0(%rbp)
    b779:	48 8d 85 a4 e5 ff ff 	lea    -0x1a5c(%rbp),%rax
    b780:	48 89 85 38 f0 ff ff 	mov    %rax,-0xfc8(%rbp)
    b787:	48 8d 85 a4 e5 ff ff 	lea    -0x1a5c(%rbp),%rax
    b78e:	48 89 85 40 f0 ff ff 	mov    %rax,-0xfc0(%rbp)
    b795:	48 8d 85 a4 e5 ff ff 	lea    -0x1a5c(%rbp),%rax
    b79c:	48 89 85 48 f0 ff ff 	mov    %rax,-0xfb8(%rbp)
    b7a3:	48 8d 85 a4 e5 ff ff 	lea    -0x1a5c(%rbp),%rax
    b7aa:	48 89 85 50 f0 ff ff 	mov    %rax,-0xfb0(%rbp)
    b7b1:	48 8d 85 a4 e5 ff ff 	lea    -0x1a5c(%rbp),%rax
    b7b8:	48 89 85 58 f0 ff ff 	mov    %rax,-0xfa8(%rbp)
    b7bf:	48 8d 85 a4 e5 ff ff 	lea    -0x1a5c(%rbp),%rax
    b7c6:	48 89 85 60 f0 ff ff 	mov    %rax,-0xfa0(%rbp)
    b7cd:	48 8d 85 a4 e5 ff ff 	lea    -0x1a5c(%rbp),%rax
    b7d4:	48 89 85 68 f0 ff ff 	mov    %rax,-0xf98(%rbp)
    b7db:	0f bf 9d 7a e5 ff ff 	movswl -0x1a86(%rbp),%ebx
    b7e2:	8b 85 a0 e5 ff ff    	mov    -0x1a60(%rbp),%eax
    b7e8:	41 89 c7             	mov    %eax,%r15d
    b7eb:	48 8b 85 e8 e6 ff ff 	mov    -0x1918(%rbp),%rax
    b7f2:	48 89 c6             	mov    %rax,%rsi
    b7f5:	bf 01 00 00 00       	mov    $0x1,%edi
    b7fa:	e8 b0 d8 ff ff       	callq  90af <safe_div_func_uint64_t_u_u>
    b7ff:	48 89 c2             	mov    %rax,%rdx
    b802:	48 8b 05 1f 41 01 00 	mov    0x1411f(%rip),%rax        # 1f928 <g_1522>
    b809:	48 8b 00             	mov    (%rax),%rax
    b80c:	48 8b 00             	mov    (%rax),%rax
    b80f:	0f b6 08             	movzbl (%rax),%ecx
    b812:	48 8b 05 0f 41 01 00 	mov    0x1410f(%rip),%rax        # 1f928 <g_1522>
    b819:	48 8b 00             	mov    (%rax),%rax
    b81c:	48 8b 00             	mov    (%rax),%rax
    b81f:	31 ca                	xor    %ecx,%edx
    b821:	88 10                	mov    %dl,(%rax)
    b823:	0f b6 00             	movzbl (%rax),%eax
    b826:	0f b6 c0             	movzbl %al,%eax
    b829:	89 c7                	mov    %eax,%edi
    b82b:	e8 15 d3 ff ff       	callq  8b45 <safe_unary_minus_func_uint8_t_u>
    b830:	44 0f b6 f0          	movzbl %al,%r14d
    b834:	0f b6 05 65 22 01 00 	movzbl 0x12265(%rip),%eax        # 1daa0 <g_1291>
    b83b:	44 0f be e0          	movsbl %al,%r12d
    b83f:	48 8b 05 ca 40 01 00 	mov    0x140ca(%rip),%rax        # 1f910 <g_1356>
    b846:	48 8b 00             	mov    (%rax),%rax
    b849:	0f b7 00             	movzwl (%rax),%eax
    b84c:	44 0f bf e8          	movswl %ax,%r13d
    b850:	8b 85 a0 e5 ff ff    	mov    -0x1a60(%rbp),%eax
    b856:	89 c2                	mov    %eax,%edx
    b858:	48 8b 05 a1 40 01 00 	mov    0x140a1(%rip),%rax        # 1f900 <g_1219>
    b85f:	48 8b 00             	mov    (%rax),%rax
    b862:	48 8b 00             	mov    (%rax),%rax
    b865:	48 8b 00             	mov    (%rax),%rax
    b868:	48 8b 00             	mov    (%rax),%rax
    b86b:	48 89 d6             	mov    %rdx,%rsi
    b86e:	48 89 c7             	mov    %rax,%rdi
    b871:	e8 3e d1 ff ff       	callq  89b4 <safe_mod_func_int64_t_s_s>
    b876:	48 0b 85 f0 e6 ff ff 	or     -0x1910(%rbp),%rax
    b87d:	ba 3c f6 14 eb       	mov    $0xeb14f63c,%edx
    b882:	48 39 d0             	cmp    %rdx,%rax
    b885:	0f 94 c0             	sete   %al
    b888:	0f b6 c0             	movzbl %al,%eax
    b88b:	89 85 a4 e5 ff ff    	mov    %eax,-0x1a5c(%rbp)
    b891:	be ff ff ff ff       	mov    $0xffffffff,%esi
    b896:	bf 01 00 00 00       	mov    $0x1,%edi
    b89b:	e8 13 cb ff ff       	callq  83b3 <safe_add_func_int16_t_s_s>
    b8a0:	98                   	cwtl   
    b8a1:	44 89 ee             	mov    %r13d,%esi
    b8a4:	89 c7                	mov    %eax,%edi
    b8a6:	e8 6b cb ff ff       	callq  8416 <safe_mod_func_int16_t_s_s>
    b8ab:	98                   	cwtl   
    b8ac:	89 c6                	mov    %eax,%esi
    b8ae:	bf ce 9d 85 47       	mov    $0x47859dce,%edi
    b8b3:	e8 00 d6 ff ff       	callq  8eb8 <safe_add_func_uint32_t_u_u>
    b8b8:	0f be c0             	movsbl %al,%eax
    b8bb:	44 89 e6             	mov    %r12d,%esi
    b8be:	89 c7                	mov    %eax,%edi
    b8c0:	e8 70 ca ff ff       	callq  8335 <safe_rshift_func_int8_t_s_s>
    b8c5:	44 0f be e0          	movsbl %al,%r12d
    b8c9:	48 8b 85 a0 e6 ff ff 	mov    -0x1960(%rbp),%rax
    b8d0:	8b 00                	mov    (%rax),%eax
    b8d2:	83 f8 f7             	cmp    $0xfffffff7,%eax
    b8d5:	0f 95 c0             	setne  %al
    b8d8:	0f b6 c0             	movzbl %al,%eax
    b8db:	be 00 00 00 00       	mov    $0x0,%esi
    b8e0:	89 c7                	mov    %eax,%edi
    b8e2:	e8 d7 d3 ff ff       	callq  8cbe <safe_rshift_func_uint8_t_u_u>
    b8e7:	0f b6 c0             	movzbl %al,%eax
    b8ea:	44 89 e6             	mov    %r12d,%esi
    b8ed:	89 c7                	mov    %eax,%edi
    b8ef:	e8 c4 d5 ff ff       	callq  8eb8 <safe_add_func_uint32_t_u_u>
    b8f4:	89 c2                	mov    %eax,%edx
    b8f6:	0f b7 85 86 e5 ff ff 	movzwl -0x1a7a(%rbp),%eax
    b8fd:	0f be c0             	movsbl %al,%eax
    b900:	89 d6                	mov    %edx,%esi
    b902:	89 c7                	mov    %eax,%edi
    b904:	e8 63 ca ff ff       	callq  836c <safe_rshift_func_int8_t_s_u>
    b909:	0f be c0             	movsbl %al,%eax
    b90c:	8b 95 1c e6 ff ff    	mov    -0x19e4(%rbp),%edx
    b912:	89 d6                	mov    %edx,%esi
    b914:	89 c7                	mov    %eax,%edi
    b916:	e8 ea cc ff ff       	callq  8605 <safe_sub_func_int32_t_s_s>
    b91b:	0f b7 c0             	movzwl %ax,%eax
    b91e:	be 00 00 00 00       	mov    $0x0,%esi
    b923:	89 c7                	mov    %eax,%edi
    b925:	e8 50 d5 ff ff       	callq  8e7a <safe_rshift_func_uint16_t_u_u>
    b92a:	48 8b 85 f0 e6 ff ff 	mov    -0x1910(%rbp),%rax
    b931:	98                   	cwtl   
    b932:	be 07 00 00 00       	mov    $0x7,%esi
    b937:	89 c7                	mov    %eax,%edi
    b939:	e8 25 cc ff ff       	callq  8563 <safe_rshift_func_int16_t_s_u>
    b93e:	98                   	cwtl   
    b93f:	41 39 c6             	cmp    %eax,%r14d
    b942:	0f 95 c0             	setne  %al
    b945:	0f b6 d0             	movzbl %al,%edx
    b948:	48 8b 05 b9 3f 01 00 	mov    0x13fb9(%rip),%rax        # 1f908 <g_1357>
    b94f:	0f b7 00             	movzwl (%rax),%eax
    b952:	0f b7 c0             	movzwl %ax,%eax
    b955:	39 c2                	cmp    %eax,%edx
    b957:	0f 94 c0             	sete   %al
    b95a:	0f b6 c0             	movzbl %al,%eax
    b95d:	44 89 fe             	mov    %r15d,%esi
    b960:	89 c7                	mov    %eax,%edi
    b962:	e8 e1 d4 ff ff       	callq  8e48 <safe_rshift_func_uint16_t_u_s>
    b967:	0f be c0             	movsbl %al,%eax
    b96a:	89 de                	mov    %ebx,%esi
    b96c:	89 c7                	mov    %eax,%edi
    b96e:	e8 2e c9 ff ff       	callq  82a1 <safe_lshift_func_int8_t_s_s>
    b973:	48 8b 15 9e 36 01 00 	mov    0x1369e(%rip),%rdx        # 1f018 <g_1145>
    b97a:	48 8b 12             	mov    (%rdx),%rdx
    b97d:	8b 0a                	mov    (%rdx),%ecx
    b97f:	0f be d0             	movsbl %al,%edx
    b982:	48 8b 05 8f 36 01 00 	mov    0x1368f(%rip),%rax        # 1f018 <g_1145>
    b989:	48 8b 00             	mov    (%rax),%rax
    b98c:	31 ca                	xor    %ecx,%edx
    b98e:	89 10                	mov    %edx,(%rax)
    b990:	83 bd e0 e5 ff ff 00 	cmpl   $0x0,-0x1a20(%rbp)
    b997:	74 0e                	je     b9a7 <func_1+0x21f2>
    b999:	48 8b 85 a0 e6 ff ff 	mov    -0x1960(%rbp),%rax
    b9a0:	8b 00                	mov    (%rax),%eax
    b9a2:	e9 93 1f 00 00       	jmpq   d93a <func_1+0x4185>
    b9a7:	48 c7 85 50 e7 ff ff 	movq   $0x0,-0x18b0(%rbp)
    b9ae:	00 00 00 00 
    b9b2:	48 8d 85 68 e6 ff ff 	lea    -0x1998(%rbp),%rax
    b9b9:	48 89 85 58 e7 ff ff 	mov    %rax,-0x18a8(%rbp)
    b9c0:	c7 85 20 e6 ff ff fd 	movl   $0xfffffffd,-0x19e0(%rbp)
    b9c7:	ff ff ff 
    b9ca:	48 c7 85 60 e7 ff ff 	movq   $0x0,-0x18a0(%rbp)
    b9d1:	00 00 00 00 
    b9d5:	48 8d 05 06 21 01 00 	lea    0x12106(%rip),%rax        # 1dae2 <g_3345>
    b9dc:	48 89 85 68 e7 ff ff 	mov    %rax,-0x1898(%rbp)
    b9e3:	48 8b 85 e8 e6 ff ff 	mov    -0x1918(%rbp),%rax
    b9ea:	41 89 c6             	mov    %eax,%r14d
    b9ed:	48 8b 05 0c 3f 01 00 	mov    0x13f0c(%rip),%rax        # 1f900 <g_1219>
    b9f4:	48 8b 00             	mov    (%rax),%rax
    b9f7:	48 8b 00             	mov    (%rax),%rax
    b9fa:	48 8b 00             	mov    (%rax),%rax
    b9fd:	48 8b 10             	mov    (%rax),%rdx
    ba00:	48 8b 85 58 e7 ff ff 	mov    -0x18a8(%rbp),%rax
    ba07:	48 8b 00             	mov    (%rax),%rax
    ba0a:	48 31 c2             	xor    %rax,%rdx
    ba0d:	48 8b 85 58 e7 ff ff 	mov    -0x18a8(%rbp),%rax
    ba14:	48 89 10             	mov    %rdx,(%rax)
    ba17:	48 8b 05 ea 3e 01 00 	mov    0x13eea(%rip),%rax        # 1f908 <g_1357>
    ba1e:	0f b7 10             	movzwl (%rax),%edx
    ba21:	83 c2 01             	add    $0x1,%edx
    ba24:	66 89 10             	mov    %dx,(%rax)
    ba27:	44 0f b7 28          	movzwl (%rax),%r13d
    ba2b:	8b 9d 98 e5 ff ff    	mov    -0x1a68(%rbp),%ebx
    ba31:	44 8b a5 a4 e5 ff ff 	mov    -0x1a5c(%rbp),%r12d
    ba38:	8b 85 20 e6 ff ff    	mov    -0x19e0(%rbp),%eax
    ba3e:	0f b7 d0             	movzwl %ax,%edx
    ba41:	8b 85 1c e6 ff ff    	mov    -0x19e4(%rbp),%eax
    ba47:	89 c1                	mov    %eax,%ecx
    ba49:	8b 85 98 e5 ff ff    	mov    -0x1a68(%rbp),%eax
    ba4f:	31 c8                	xor    %ecx,%eax
    ba51:	0f b7 c0             	movzwl %ax,%eax
    ba54:	89 d6                	mov    %edx,%esi
    ba56:	89 c7                	mov    %eax,%edi
    ba58:	e8 a2 d2 ff ff       	callq  8cff <safe_add_func_uint16_t_u_u>
    ba5d:	0f b7 c0             	movzwl %ax,%eax
    ba60:	89 c6                	mov    %eax,%esi
    ba62:	bf ff ff ff ff       	mov    $0xffffffff,%edi
    ba67:	e8 60 cc ff ff       	callq  86cc <safe_mod_func_int32_t_s_s>
    ba6c:	0f b6 05 51 20 01 00 	movzbl 0x12051(%rip),%eax        # 1dac4 <g_2616>
    ba73:	0f b6 c0             	movzbl %al,%eax
    ba76:	48 98                	cltq   
    ba78:	48 8d 14 c5 00 00 00 	lea    0x0(,%rax,8),%rdx
    ba7f:	00 
    ba80:	48 8d 05 31 18 01 00 	lea    0x11831(%rip),%rax        # 1d2b8 <g_375>
    ba87:	48 8b 04 02          	mov    (%rdx,%rax,1),%rax
    ba8b:	66 89 05 6a 18 01 00 	mov    %ax,0x1186a(%rip)        # 1d2fc <g_389+0x3c>
    ba92:	0f b7 05 63 18 01 00 	movzwl 0x11863(%rip),%eax        # 1d2fc <g_389+0x3c>
    ba99:	0f b7 c0             	movzwl %ax,%eax
    ba9c:	be 00 00 00 00       	mov    $0x0,%esi
    baa1:	89 c7                	mov    %eax,%edi
    baa3:	e8 5e d3 ff ff       	callq  8e06 <safe_lshift_func_uint16_t_u_u>
    baa8:	48 8b 05 d9 16 01 00 	mov    0x116d9(%rip),%rax        # 1d188 <g_132+0x8>
    baaf:	0f be c0             	movsbl %al,%eax
    bab2:	be 01 00 00 00       	mov    $0x1,%esi
    bab7:	89 c7                	mov    %eax,%edi
    bab9:	e8 34 c7 ff ff       	callq  81f2 <safe_sub_func_int8_t_s_s>
    babe:	66 98                	cbtw   
    bac0:	0f b7 c0             	movzwl %ax,%eax
    bac3:	44 89 e6             	mov    %r12d,%esi
    bac6:	89 c7                	mov    %eax,%edi
    bac8:	e8 f1 d2 ff ff       	callq  8dbe <safe_lshift_func_uint16_t_u_s>
    bacd:	89 c2                	mov    %eax,%edx
    bacf:	0f b7 85 86 e5 ff ff 	movzwl -0x1a7a(%rbp),%eax
    bad6:	09 d0                	or     %edx,%eax
    bad8:	0f b6 c0             	movzbl %al,%eax
    badb:	89 c6                	mov    %eax,%esi
    badd:	bf 01 00 00 00       	mov    $0x1,%edi
    bae2:	e8 ac d0 ff ff       	callq  8b93 <safe_mul_func_uint8_t_u_u>
    bae7:	48 8b 05 3a 3e 01 00 	mov    0x13e3a(%rip),%rax        # 1f928 <g_1522>
    baee:	48 8b 00             	mov    (%rax),%rax
    baf1:	48 8b 00             	mov    (%rax),%rax
    baf4:	0f b6 00             	movzbl (%rax),%eax
    baf7:	0f b6 d0             	movzbl %al,%edx
    bafa:	8b 85 a0 e5 ff ff    	mov    -0x1a60(%rbp),%eax
    bb00:	39 c2                	cmp    %eax,%edx
    bb02:	0f 95 c0             	setne  %al
    bb05:	0f b6 c0             	movzbl %al,%eax
    bb08:	89 de                	mov    %ebx,%esi
    bb0a:	89 c7                	mov    %eax,%edi
    bb0c:	e8 ad d2 ff ff       	callq  8dbe <safe_lshift_func_uint16_t_u_s>
    bb11:	48 8b 95 68 e7 ff ff 	mov    -0x1898(%rbp),%rdx
    bb18:	66 89 02             	mov    %ax,(%rdx)
    bb1b:	48 8b 85 68 e7 ff ff 	mov    -0x1898(%rbp),%rax
    bb22:	0f b7 00             	movzwl (%rax),%eax
    bb25:	66 41 39 c5          	cmp    %ax,%r13w
    bb29:	0f 93 c0             	setae  %al
    bb2c:	0f b6 c0             	movzbl %al,%eax
    bb2f:	48 23 85 f0 e6 ff ff 	and    -0x1910(%rbp),%rax
    bb36:	48 89 c2             	mov    %rax,%rdx
    bb39:	8b 85 fc e5 ff ff    	mov    -0x1a04(%rbp),%eax
    bb3f:	48 39 c2             	cmp    %rax,%rdx
    bb42:	44 89 f6             	mov    %r14d,%esi
    bb45:	bf 01 00 00 00       	mov    $0x1,%edi
    bb4a:	e8 2b d3 ff ff       	callq  8e7a <safe_rshift_func_uint16_t_u_u>
    bb4f:	0f b7 c0             	movzwl %ax,%eax
    bb52:	48 ba e9 75 96 9e e4 	movabs $0x9f6919e49e9675e9,%rdx
    bb59:	19 69 9f 
    bb5c:	48 21 c2             	and    %rax,%rdx
    bb5f:	48 8b 05 a2 34 01 00 	mov    0x134a2(%rip),%rax        # 1f008 <g_987>
    bb66:	8b 00                	mov    (%rax),%eax
    bb68:	89 c1                	mov    %eax,%ecx
    bb6a:	89 d0                	mov    %edx,%eax
    bb6c:	31 c1                	xor    %eax,%ecx
    bb6e:	89 ca                	mov    %ecx,%edx
    bb70:	48 8b 05 91 34 01 00 	mov    0x13491(%rip),%rax        # 1f008 <g_987>
    bb77:	89 10                	mov    %edx,(%rax)
    bb79:	c6 05 be 17 01 00 00 	movb   $0x0,0x117be(%rip)        # 1d33e <g_403>
    bb80:	e9 bd 02 00 00       	jmpq   be42 <func_1+0x268d>
    bb85:	c7 85 24 e6 ff ff f9 	movl   $0xfffffff9,-0x19dc(%rbp)
    bb8c:	ff ff ff 
    bb8f:	0f b6 05 a8 17 01 00 	movzbl 0x117a8(%rip),%eax        # 1d33e <g_403>
    bb96:	0f b6 c0             	movzbl %al,%eax
    bb99:	8d 70 02             	lea    0x2(%rax),%esi
    bb9c:	0f b6 05 9b 17 01 00 	movzbl 0x1179b(%rip),%eax        # 1d33e <g_403>
    bba3:	0f b6 c8             	movzbl %al,%ecx
    bba6:	0f b6 05 91 17 01 00 	movzbl 0x11791(%rip),%eax        # 1d33e <g_403>
    bbad:	0f b6 c0             	movzbl %al,%eax
    bbb0:	8d 50 03             	lea    0x3(%rax),%edx
    bbb3:	48 8b 05 f6 33 01 00 	mov    0x133f6(%rip),%rax        # 1efb0 <g_740>
    bbba:	48 8b 00             	mov    (%rax),%rax
    bbbd:	48 8b 00             	mov    (%rax),%rax
    bbc0:	48 63 d2             	movslq %edx,%rdx
    bbc3:	48 63 f6             	movslq %esi,%rsi
    bbc6:	48 63 c9             	movslq %ecx,%rcx
    bbc9:	48 01 f1             	add    %rsi,%rcx
    bbcc:	48 c1 e1 02          	shl    $0x2,%rcx
    bbd0:	48 01 ca             	add    %rcx,%rdx
    bbd3:	48 8d 0c d5 00 00 00 	lea    0x0(,%rdx,8),%rcx
    bbda:	00 
    bbdb:	48 8d 15 1e 28 01 00 	lea    0x1281e(%rip),%rdx        # 1e400 <g_62>
    bbe2:	48 8b 14 11          	mov    (%rcx,%rdx,1),%rdx
    bbe6:	48 89 10             	mov    %rdx,(%rax)
    bbe9:	48 c7 05 b4 1e 01 00 	movq   $0x0,0x11eb4(%rip)        # 1daa8 <g_1654>
    bbf0:	00 00 00 00 
    bbf4:	e9 0b 02 00 00       	jmpq   be04 <func_1+0x264f>
    bbf9:	48 c7 85 70 e7 ff ff 	movq   $0xffffffffffffffff,-0x1890(%rbp)
    bc00:	ff ff ff ff 
    bc04:	c7 85 28 e6 ff ff 9d 	movl   $0x8d4e719d,-0x19d8(%rbp)
    bc0b:	71 4e 8d 
    bc0e:	48 8d 05 93 4d 01 00 	lea    0x14d93(%rip),%rax        # 209a8 <g_3203+0x5e8>
    bc15:	48 89 85 98 e6 ff ff 	mov    %rax,-0x1968(%rbp)
    bc1c:	48 8d 85 98 e6 ff ff 	lea    -0x1968(%rbp),%rax
    bc23:	48 89 85 78 e7 ff ff 	mov    %rax,-0x1888(%rbp)
    bc2a:	c7 85 2c e6 ff ff 01 	movl   $0x1,-0x19d4(%rbp)
    bc31:	00 00 00 
    bc34:	c7 85 30 e6 ff ff f8 	movl   $0x7e44ccf8,-0x19d0(%rbp)
    bc3b:	cc 44 7e 
    bc3e:	c7 85 c8 e5 ff ff 00 	movl   $0x0,-0x1a38(%rbp)
    bc45:	00 00 00 
    bc48:	eb 1e                	jmp    bc68 <func_1+0x24b3>
    bc4a:	8b 85 c8 e5 ff ff    	mov    -0x1a38(%rbp),%eax
    bc50:	48 98                	cltq   
    bc52:	48 8d 95 a0 e5 ff ff 	lea    -0x1a60(%rbp),%rdx
    bc59:	48 89 94 c5 40 ec ff 	mov    %rdx,-0x13c0(%rbp,%rax,8)
    bc60:	ff 
    bc61:	83 85 c8 e5 ff ff 01 	addl   $0x1,-0x1a38(%rbp)
    bc68:	83 bd c8 e5 ff ff 00 	cmpl   $0x0,-0x1a38(%rbp)
    bc6f:	7e d9                	jle    bc4a <func_1+0x2495>
    bc71:	8b 85 a0 e5 ff ff    	mov    -0x1a60(%rbp),%eax
    bc77:	0f b6 d8             	movzbl %al,%ebx
    bc7a:	8b 85 a4 e5 ff ff    	mov    -0x1a5c(%rbp),%eax
    bc80:	83 f8 01             	cmp    $0x1,%eax
    bc83:	0f 9f c0             	setg   %al
    bc86:	0f b6 c0             	movzbl %al,%eax
    bc89:	31 85 2c e6 ff ff    	xor    %eax,-0x19d4(%rbp)
    bc8f:	0f b7 95 82 e5 ff ff 	movzwl -0x1a7e(%rbp),%edx
    bc96:	8b 05 48 1e 01 00    	mov    0x11e48(%rip),%eax        # 1dae4 <g_3368>
    bc9c:	21 c2                	and    %eax,%edx
    bc9e:	41 89 d5             	mov    %edx,%r13d
    bca1:	48 8b 05 90 3c 01 00 	mov    0x13c90(%rip),%rax        # 1f938 <g_1542>
    bca8:	8b 10                	mov    (%rax),%edx
    bcaa:	83 ea 01             	sub    $0x1,%edx
    bcad:	89 10                	mov    %edx,(%rax)
    bcaf:	8b 00                	mov    (%rax),%eax
    bcb1:	89 85 28 e6 ff ff    	mov    %eax,-0x19d8(%rbp)
    bcb7:	8b 85 28 e6 ff ff    	mov    -0x19d8(%rbp),%eax
    bcbd:	89 c1                	mov    %eax,%ecx
    bcbf:	48 8b 85 a0 e6 ff ff 	mov    -0x1960(%rbp),%rax
    bcc6:	8b 10                	mov    (%rax),%edx
    bcc8:	48 83 bd 78 e7 ff ff 	cmpq   $0x0,-0x1888(%rbp)
    bccf:	00 
    bcd0:	0f 95 c0             	setne  %al
    bcd3:	0f b6 c0             	movzbl %al,%eax
    bcd6:	39 c2                	cmp    %eax,%edx
    bcd8:	0f 95 c0             	setne  %al
    bcdb:	0f b6 c0             	movzbl %al,%eax
    bcde:	09 c8                	or     %ecx,%eax
    bce0:	44 0f b7 e0          	movzwl %ax,%r12d
    bce4:	48 8b 05 25 3c 01 00 	mov    0x13c25(%rip),%rax        # 1f910 <g_1356>
    bceb:	48 8b 00             	mov    (%rax),%rax
    bcee:	0f b7 00             	movzwl (%rax),%eax
    bcf1:	0f b7 c0             	movzwl %ax,%eax
    bcf4:	48 23 85 70 e7 ff ff 	and    -0x1890(%rbp),%rax
    bcfb:	48 89 c2             	mov    %rax,%rdx
    bcfe:	48 8b 05 1b 28 01 00 	mov    0x1281b(%rip),%rax        # 1e520 <g_131>
    bd05:	48 b9 8e 15 f8 ca 25 	movabs $0xe6076625caf8158e,%rcx
    bd0c:	66 07 e6 
    bd0f:	48 89 08             	mov    %rcx,(%rax)
    bd12:	48 8b 00             	mov    (%rax),%rax
    bd15:	48 89 d6             	mov    %rdx,%rsi
    bd18:	48 89 c7             	mov    %rax,%rdi
    bd1b:	e8 60 d3 ff ff       	callq  9080 <safe_mod_func_uint64_t_u_u>
    bd20:	0f b7 c0             	movzwl %ax,%eax
    bd23:	44 89 e6             	mov    %r12d,%esi
    bd26:	89 c7                	mov    %eax,%edi
    bd28:	e8 10 d0 ff ff       	callq  8d3d <safe_mul_func_uint16_t_u_u>
    bd2d:	0f b7 c0             	movzwl %ax,%eax
    bd30:	44 89 ee             	mov    %r13d,%esi
    bd33:	89 c7                	mov    %eax,%edi
    bd35:	e8 c3 d1 ff ff       	callq  8efd <safe_mod_func_uint32_t_u_u>
    bd3a:	0f b6 c0             	movzbl %al,%eax
    bd3d:	89 de                	mov    %ebx,%esi
    bd3f:	89 c7                	mov    %eax,%edi
    bd41:	e8 95 ce ff ff       	callq  8bdb <safe_div_func_uint8_t_u_u>
    bd46:	48 8b 85 a0 e6 ff ff 	mov    -0x1960(%rbp),%rax
    bd4d:	8b 00                	mov    (%rax),%eax
    bd4f:	83 f8 01             	cmp    $0x1,%eax
    bd52:	75 0d                	jne    bd61 <func_1+0x25ac>
    bd54:	48 8b 05 dd 3b 01 00 	mov    0x13bdd(%rip),%rax        # 1f938 <g_1542>
    bd5b:	8b 00                	mov    (%rax),%eax
    bd5d:	85 c0                	test   %eax,%eax
    bd5f:	74 07                	je     bd68 <func_1+0x25b3>
    bd61:	b8 01 00 00 00       	mov    $0x1,%eax
    bd66:	eb 05                	jmp    bd6d <func_1+0x25b8>
    bd68:	b8 00 00 00 00       	mov    $0x0,%eax
    bd6d:	be 7c cb c7 c1       	mov    $0xc1c7cb7c,%esi
    bd72:	89 c7                	mov    %eax,%edi
    bd74:	e8 86 c9 ff ff       	callq  86ff <safe_div_func_int32_t_s_s>
    bd79:	48 b8 9b 49 7f 63 cf 	movabs $0x11c150cf637f499b,%rax
    bd80:	50 c1 11 
    bd83:	31 85 30 e6 ff ff    	xor    %eax,-0x19d0(%rbp)
    bd89:	8b 85 98 e5 ff ff    	mov    -0x1a68(%rbp),%eax
    bd8f:	39 85 30 e6 ff ff    	cmp    %eax,-0x19d0(%rbp)
    bd95:	0f 9f c0             	setg   %al
    bd98:	0f b6 d0             	movzbl %al,%edx
    bd9b:	48 8b 05 66 3b 01 00 	mov    0x13b66(%rip),%rax        # 1f908 <g_1357>
    bda2:	0f b7 00             	movzwl (%rax),%eax
    bda5:	0f b7 c0             	movzwl %ax,%eax
    bda8:	39 c2                	cmp    %eax,%edx
    bdaa:	0f 9f c0             	setg   %al
    bdad:	0f b6 c0             	movzbl %al,%eax
    bdb0:	48 39 85 e8 e6 ff ff 	cmp    %rax,-0x1918(%rbp)
    bdb7:	0f 95 c0             	setne  %al
    bdba:	0f b6 c0             	movzbl %al,%eax
    bdbd:	be 01 00 00 00       	mov    $0x1,%esi
    bdc2:	89 c7                	mov    %eax,%edi
    bdc4:	e8 e5 cd ff ff       	callq  8bae <safe_mod_func_uint8_t_u_u>
    bdc9:	0f b6 c0             	movzbl %al,%eax
    bdcc:	39 85 24 e6 ff ff    	cmp    %eax,-0x19dc(%rbp)
    bdd2:	0f 94 c0             	sete   %al
    bdd5:	0f b6 c8             	movzbl %al,%ecx
    bdd8:	48 8b 05 39 32 01 00 	mov    0x13239(%rip),%rax        # 1f018 <g_1145>
    bddf:	48 8b 00             	mov    (%rax),%rax
    bde2:	8b 10                	mov    (%rax),%edx
    bde4:	48 8b 05 2d 32 01 00 	mov    0x1322d(%rip),%rax        # 1f018 <g_1145>
    bdeb:	48 8b 00             	mov    (%rax),%rax
    bdee:	09 ca                	or     %ecx,%edx
    bdf0:	89 10                	mov    %edx,(%rax)
    bdf2:	48 8b 05 af 1c 01 00 	mov    0x11caf(%rip),%rax        # 1daa8 <g_1654>
    bdf9:	48 83 e8 01          	sub    $0x1,%rax
    bdfd:	48 89 05 a4 1c 01 00 	mov    %rax,0x11ca4(%rip)        # 1daa8 <g_1654>
    be04:	48 8b 05 9d 1c 01 00 	mov    0x11c9d(%rip),%rax        # 1daa8 <g_1654>
    be0b:	48 85 c0             	test   %rax,%rax
    be0e:	0f 89 e5 fd ff ff    	jns    bbf9 <func_1+0x2444>
    be14:	66 c7 85 7a e5 ff ff 	movw   $0x0,-0x1a86(%rbp)
    be1b:	00 00 
    be1d:	66 83 bd 7a e5 ff ff 	cmpw   $0x0,-0x1a86(%rbp)
    be24:	00 
    be25:	78 0b                	js     be32 <func_1+0x267d>
    be27:	8b 85 fc e5 ff ff    	mov    -0x1a04(%rbp),%eax
    be2d:	e9 08 1b 00 00       	jmpq   d93a <func_1+0x4185>
    be32:	0f b6 05 05 15 01 00 	movzbl 0x11505(%rip),%eax        # 1d33e <g_403>
    be39:	83 c0 01             	add    $0x1,%eax
    be3c:	88 05 fc 14 01 00    	mov    %al,0x114fc(%rip)        # 1d33e <g_403>
    be42:	0f b6 05 f5 14 01 00 	movzbl 0x114f5(%rip),%eax        # 1d33e <g_403>
    be49:	84 c0                	test   %al,%al
    be4b:	0f 84 34 fd ff ff    	je     bb85 <func_1+0x23d0>
    be51:	0f b7 85 7c e5 ff ff 	movzwl -0x1a84(%rbp),%eax
    be58:	83 e8 01             	sub    $0x1,%eax
    be5b:	66 89 85 7c e5 ff ff 	mov    %ax,-0x1a84(%rbp)
    be62:	66 c7 85 7a e5 ff ff 	movw   $0x0,-0x1a86(%rbp)
    be69:	00 00 
    be6b:	66 83 bd 7a e5 ff ff 	cmpw   $0x0,-0x1a86(%rbp)
    be72:	00 
    be73:	78 13                	js     be88 <func_1+0x26d3>
    be75:	c6 85 6f e5 ff ff ec 	movb   $0xec,-0x1a91(%rbp)
    be7c:	0f b6 85 6f e5 ff ff 	movzbl -0x1a91(%rbp),%eax
    be83:	e9 b2 1a 00 00       	jmpq   d93a <func_1+0x4185>
    be88:	0f b6 05 35 1c 01 00 	movzbl 0x11c35(%rip),%eax        # 1dac4 <g_2616>
    be8f:	83 c0 01             	add    $0x1,%eax
    be92:	88 05 2c 1c 01 00    	mov    %al,0x11c2c(%rip)        # 1dac4 <g_2616>
    be98:	0f b6 05 25 1c 01 00 	movzbl 0x11c25(%rip),%eax        # 1dac4 <g_2616>
    be9f:	84 c0                	test   %al,%al
    bea1:	0f 84 b1 f8 ff ff    	je     b758 <func_1+0x1fa3>
    bea7:	66 c7 85 7a e5 ff ff 	movw   $0xfff8,-0x1a86(%rbp)
    beae:	f8 ff 
    beb0:	e9 e9 07 00 00       	jmpq   c69e <func_1+0x2ee9>
    beb5:	48 c7 85 88 e6 ff ff 	movq   $0x0,-0x1978(%rbp)
    bebc:	00 00 00 00 
    bec0:	48 8d 85 88 e6 ff ff 	lea    -0x1978(%rbp),%rax
    bec7:	48 89 85 08 e7 ff ff 	mov    %rax,-0x18f8(%rbp)
    bece:	c7 85 a8 e5 ff ff ff 	movl   $0xffffffff,-0x1a58(%rbp)
    bed5:	ff ff ff 
    bed8:	48 8d 05 5e 12 01 00 	lea    0x1125e(%rip),%rax        # 1d13d <g_92+0x7d>
    bedf:	48 89 85 10 e7 ff ff 	mov    %rax,-0x18f0(%rbp)
    bee6:	66 c7 85 b0 e8 ff ff 	movw   $0xb9b7,-0x1750(%rbp)
    beed:	b7 b9 
    beef:	66 c7 85 b2 e8 ff ff 	movw   $0x6478,-0x174e(%rbp)
    bef6:	78 64 
    bef8:	66 c7 85 b4 e8 ff ff 	movw   $0x6478,-0x174c(%rbp)
    beff:	78 64 
    bf01:	66 c7 85 b6 e8 ff ff 	movw   $0xb9b7,-0x174a(%rbp)
    bf08:	b7 b9 
    bf0a:	66 c7 85 b8 e8 ff ff 	movw   $0x6478,-0x1748(%rbp)
    bf11:	78 64 
    bf13:	66 c7 85 ba e8 ff ff 	movw   $0x6478,-0x1746(%rbp)
    bf1a:	78 64 
    bf1c:	66 c7 85 bc e8 ff ff 	movw   $0xb9b7,-0x1744(%rbp)
    bf23:	b7 b9 
    bf25:	66 c7 85 be e8 ff ff 	movw   $0x6478,-0x1742(%rbp)
    bf2c:	78 64 
    bf2e:	66 c7 85 c0 e8 ff ff 	movw   $0x6478,-0x1740(%rbp)
    bf35:	78 64 
    bf37:	66 c7 85 c2 e8 ff ff 	movw   $0xb9b7,-0x173e(%rbp)
    bf3e:	b7 b9 
    bf40:	48 8d 85 a8 e5 ff ff 	lea    -0x1a58(%rbp),%rax
    bf47:	48 89 85 18 e7 ff ff 	mov    %rax,-0x18e8(%rbp)
    bf4e:	48 8b 05 e3 39 01 00 	mov    0x139e3(%rip),%rax        # 1f938 <g_1542>
    bf55:	8b 00                	mov    (%rax),%eax
    bf57:	89 c2                	mov    %eax,%edx
    bf59:	8b 85 c4 e5 ff ff    	mov    -0x1a3c(%rbp),%eax
    bf5f:	89 d6                	mov    %edx,%esi
    bf61:	89 c7                	mov    %eax,%edi
    bf63:	e8 9d c6 ff ff       	callq  8605 <safe_sub_func_int32_t_s_s>
    bf68:	41 89 c5             	mov    %eax,%r13d
    bf6b:	48 8b 85 a0 e6 ff ff 	mov    -0x1960(%rbp),%rax
    bf72:	8b 00                	mov    (%rax),%eax
    bf74:	0f be c0             	movsbl %al,%eax
    bf77:	be 04 00 00 00       	mov    $0x4,%esi
    bf7c:	89 c7                	mov    %eax,%edi
    bf7e:	e8 1e c3 ff ff       	callq  82a1 <safe_lshift_func_int8_t_s_s>
    bf83:	48 0f be c0          	movsbq %al,%rax
    bf87:	48 89 c7             	mov    %rax,%rdi
    bf8a:	e8 87 c8 ff ff       	callq  8816 <safe_unary_minus_func_int64_t_s>
    bf8f:	48 89 c3             	mov    %rax,%rbx
    bf92:	8b 05 0c 1b 01 00    	mov    0x11b0c(%rip),%eax        # 1daa4 <g_1428>
    bf98:	48 8b 85 08 e7 ff ff 	mov    -0x18f8(%rbp),%rax
    bf9f:	48 8d 15 02 45 01 00 	lea    0x14502(%rip),%rdx        # 204a8 <g_3203+0xe8>
    bfa6:	48 89 10             	mov    %rdx,(%rax)
    bfa9:	48 8b 85 08 e7 ff ff 	mov    -0x18f8(%rbp),%rax
    bfb0:	48 8b 00             	mov    (%rax),%rax
    bfb3:	48 8d 15 1e 49 01 00 	lea    0x1491e(%rip),%rdx        # 208d8 <g_3203+0x518>
    bfba:	48 39 d0             	cmp    %rdx,%rax
    bfbd:	0f 94 c0             	sete   %al
    bfc0:	44 0f b6 e0          	movzbl %al,%r12d
    bfc4:	8b 85 a8 e5 ff ff    	mov    -0x1a58(%rbp),%eax
    bfca:	48 63 d0             	movslq %eax,%rdx
    bfcd:	8b 85 a8 e5 ff ff    	mov    -0x1a58(%rbp),%eax
    bfd3:	48 98                	cltq   
    bfd5:	48 89 d6             	mov    %rdx,%rsi
    bfd8:	48 89 c7             	mov    %rax,%rdi
    bfdb:	e8 61 c8 ff ff       	callq  8841 <safe_add_func_int64_t_s_s>
    bfe0:	48 be 1b 69 73 8d 39 	movabs $0x9b6f2b398d73691b,%rsi
    bfe7:	2b 6f 9b 
    bfea:	48 89 c7             	mov    %rax,%rdi
    bfed:	e8 c2 c9 ff ff       	callq  89b4 <safe_mod_func_int64_t_s_s>
    bff2:	89 85 08 e6 ff ff    	mov    %eax,-0x19f8(%rbp)
    bff8:	8b 85 08 e6 ff ff    	mov    -0x19f8(%rbp),%eax
    bffe:	48 98                	cltq   
    c000:	ba f6 9e 28 ad       	mov    $0xad289ef6,%edx
    c005:	48 09 d0             	or     %rdx,%rax
    c008:	49 39 c4             	cmp    %rax,%r12
    c00b:	0f 9f c0             	setg   %al
    c00e:	89 c2                	mov    %eax,%edx
    c010:	48 8b 85 10 e7 ff ff 	mov    -0x18f0(%rbp),%rax
    c017:	88 10                	mov    %dl,(%rax)
    c019:	48 8b 85 10 e7 ff ff 	mov    -0x18f0(%rbp),%rax
    c020:	0f b6 00             	movzbl (%rax),%eax
    c023:	48 0f be c0          	movsbq %al,%rax
    c027:	48 39 c3             	cmp    %rax,%rbx
    c02a:	0f 95 c0             	setne  %al
    c02d:	0f b6 c0             	movzbl %al,%eax
    c030:	be be de 0d c2       	mov    $0xc20ddebe,%esi
    c035:	89 c7                	mov    %eax,%edi
    c037:	e8 e9 ce ff ff       	callq  8f25 <safe_div_func_uint32_t_u_u>
    c03c:	44 21 e8             	and    %r13d,%eax
    c03f:	85 c0                	test   %eax,%eax
    c041:	0f 84 c9 02 00 00    	je     c310 <func_1+0x2b5b>
    c047:	48 8d 05 b2 2c 01 00 	lea    0x12cb2(%rip),%rax        # 1ed00 <g_402>
    c04e:	48 89 85 90 e6 ff ff 	mov    %rax,-0x1970(%rbp)
    c055:	48 8d 85 90 e6 ff ff 	lea    -0x1970(%rbp),%rax
    c05c:	48 89 85 40 e7 ff ff 	mov    %rax,-0x18c0(%rbp)
    c063:	c7 85 40 ec ff ff 7c 	movl   $0x639d8a7c,-0x13c0(%rbp)
    c06a:	8a 9d 63 
    c06d:	c7 85 44 ec ff ff 7c 	movl   $0x639d8a7c,-0x13bc(%rbp)
    c074:	8a 9d 63 
    c077:	c7 85 48 ec ff ff 7c 	movl   $0x639d8a7c,-0x13b8(%rbp)
    c07e:	8a 9d 63 
    c081:	c7 85 4c ec ff ff 7c 	movl   $0x639d8a7c,-0x13b4(%rbp)
    c088:	8a 9d 63 
    c08b:	c7 85 50 ec ff ff 7c 	movl   $0x639d8a7c,-0x13b0(%rbp)
    c092:	8a 9d 63 
    c095:	c7 85 54 ec ff ff 7c 	movl   $0x639d8a7c,-0x13ac(%rbp)
    c09c:	8a 9d 63 
    c09f:	c7 85 58 ec ff ff 7c 	movl   $0x639d8a7c,-0x13a8(%rbp)
    c0a6:	8a 9d 63 
    c0a9:	c7 85 5c ec ff ff 7c 	movl   $0x639d8a7c,-0x13a4(%rbp)
    c0b0:	8a 9d 63 
    c0b3:	48 8d 05 26 4f 01 00 	lea    0x14f26(%rip),%rax        # 20fe0 <g_247>
    c0ba:	48 89 85 98 e6 ff ff 	mov    %rax,-0x1968(%rbp)
    c0c1:	48 8d 85 30 f0 ff ff 	lea    -0xfd0(%rbp),%rax
    c0c8:	48 89 85 48 e7 ff ff 	mov    %rax,-0x18b8(%rbp)
    c0cf:	c7 85 cc e5 ff ff 00 	movl   $0x0,-0x1a34(%rbp)
    c0d6:	00 00 00 
    c0d9:	eb 1e                	jmp    c0f9 <func_1+0x2944>
    c0db:	8b 85 cc e5 ff ff    	mov    -0x1a34(%rbp),%eax
    c0e1:	48 98                	cltq   
    c0e3:	48 8d 95 98 e6 ff ff 	lea    -0x1968(%rbp),%rdx
    c0ea:	48 89 94 c5 30 f0 ff 	mov    %rdx,-0xfd0(%rbp,%rax,8)
    c0f1:	ff 
    c0f2:	83 85 cc e5 ff ff 01 	addl   $0x1,-0x1a34(%rbp)
    c0f9:	83 bd cc e5 ff ff 06 	cmpl   $0x6,-0x1a34(%rbp)
    c100:	7e d9                	jle    c0db <func_1+0x2926>
    c102:	c7 85 c4 e5 ff ff 00 	movl   $0x0,-0x1a3c(%rbp)
    c109:	00 00 00 
    c10c:	eb 14                	jmp    c122 <func_1+0x296d>
    c10e:	48 8b 85 a0 e6 ff ff 	mov    -0x1960(%rbp),%rax
    c115:	8b 00                	mov    (%rax),%eax
    c117:	85 c0                	test   %eax,%eax
    c119:	75 12                	jne    c12d <func_1+0x2978>
    c11b:	83 85 c4 e5 ff ff 01 	addl   $0x1,-0x1a3c(%rbp)
    c122:	83 bd c4 e5 ff ff 0b 	cmpl   $0xb,-0x1a3c(%rbp)
    c129:	7f e3                	jg     c10e <func_1+0x2959>
    c12b:	eb 01                	jmp    c12e <func_1+0x2979>
    c12d:	90                   	nop
    c12e:	be 0a 00 00 00       	mov    $0xa,%esi
    c133:	bf 00 00 00 00       	mov    $0x0,%edi
    c138:	e8 c9 cc ff ff       	callq  8e06 <safe_lshift_func_uint16_t_u_u>
    c13d:	0f b7 d0             	movzwl %ax,%edx
    c140:	48 8b 05 c9 37 01 00 	mov    0x137c9(%rip),%rax        # 1f910 <g_1356>
    c147:	48 8b 00             	mov    (%rax),%rax
    c14a:	0f b7 00             	movzwl (%rax),%eax
    c14d:	0f b7 c0             	movzwl %ax,%eax
    c150:	89 d6                	mov    %edx,%esi
    c152:	89 c7                	mov    %eax,%edi
    c154:	e8 ad cc ff ff       	callq  8e06 <safe_lshift_func_uint16_t_u_u>
    c159:	44 0f b7 e8          	movzwl %ax,%r13d
    c15d:	0f b7 85 b6 e8 ff ff 	movzwl -0x174a(%rbp),%eax
    c164:	0f b6 d8             	movzbl %al,%ebx
    c167:	8b 85 48 ec ff ff    	mov    -0x13b8(%rbp),%eax
    c16d:	44 0f bf e0          	movswl %ax,%r12d
    c171:	0f be 95 6e e5 ff ff 	movsbl -0x1a92(%rbp),%edx
    c178:	0f b7 85 64 e8 ff ff 	movzwl -0x179c(%rbp),%eax
    c17f:	98                   	cwtl   
    c180:	09 d0                	or     %edx,%eax
    c182:	89 c2                	mov    %eax,%edx
    c184:	48 8b 05 85 37 01 00 	mov    0x13785(%rip),%rax        # 1f910 <g_1356>
    c18b:	48 8b 00             	mov    (%rax),%rax
    c18e:	0f b7 00             	movzwl (%rax),%eax
    c191:	0f b7 c0             	movzwl %ax,%eax
    c194:	89 d6                	mov    %edx,%esi
    c196:	89 c7                	mov    %eax,%edi
    c198:	e8 dd cc ff ff       	callq  8e7a <safe_rshift_func_uint16_t_u_u>
    c19d:	44 89 e6             	mov    %r12d,%esi
    c1a0:	bf 00 00 00 00       	mov    $0x0,%edi
    c1a5:	e8 6c c2 ff ff       	callq  8416 <safe_mod_func_int16_t_s_s>
    c1aa:	48 8b 85 a0 e6 ff ff 	mov    -0x1960(%rbp),%rax
    c1b1:	8b 10                	mov    (%rax),%edx
    c1b3:	8b 85 a8 e5 ff ff    	mov    -0x1a58(%rbp),%eax
    c1b9:	39 c2                	cmp    %eax,%edx
    c1bb:	0f 9d c0             	setge  %al
    c1be:	0f b6 c0             	movzbl %al,%eax
    c1c1:	89 de                	mov    %ebx,%esi
    c1c3:	89 c7                	mov    %eax,%edi
    c1c5:	e8 c9 c9 ff ff       	callq  8b93 <safe_mul_func_uint8_t_u_u>
    c1ca:	0f b6 d0             	movzbl %al,%edx
    c1cd:	48 8b 05 4c 2e 01 00 	mov    0x12e4c(%rip),%rax        # 1f020 <g_1181>
    c1d4:	48 8b 08             	mov    (%rax),%rcx
    c1d7:	48 8b 85 40 e7 ff ff 	mov    -0x18c0(%rbp),%rax
    c1de:	48 c7 00 00 00 00 00 	movq   $0x0,(%rax)
    c1e5:	48 8b 85 40 e7 ff ff 	mov    -0x18c0(%rbp),%rax
    c1ec:	48 8b 00             	mov    (%rax),%rax
    c1ef:	48 39 c1             	cmp    %rax,%rcx
    c1f2:	0f 95 c0             	setne  %al
    c1f5:	0f b6 c0             	movzbl %al,%eax
    c1f8:	89 d6                	mov    %edx,%esi
    c1fa:	89 c7                	mov    %eax,%edi
    c1fc:	e8 cf cc ff ff       	callq  8ed0 <safe_sub_func_uint32_t_u_u>
    c201:	89 85 48 ec ff ff    	mov    %eax,-0x13b8(%rbp)
    c207:	48 8b 85 10 e7 ff ff 	mov    -0x18f0(%rbp),%rax
    c20e:	c6 00 00             	movb   $0x0,(%rax)
    c211:	48 8b 85 10 e7 ff ff 	mov    -0x18f0(%rbp),%rax
    c218:	0f b6 00             	movzbl (%rax),%eax
    c21b:	0f be d0             	movsbl %al,%edx
    c21e:	48 8b 85 a0 e6 ff ff 	mov    -0x1960(%rbp),%rax
    c225:	8b 00                	mov    (%rax),%eax
    c227:	39 c2                	cmp    %eax,%edx
    c229:	0f 95 c0             	setne  %al
    c22c:	0f b6 d0             	movzbl %al,%edx
    c22f:	0f b7 85 be e8 ff ff 	movzwl -0x1742(%rbp),%eax
    c236:	98                   	cwtl   
    c237:	39 c2                	cmp    %eax,%edx
    c239:	0f 94 c0             	sete   %al
    c23c:	0f b6 c0             	movzbl %al,%eax
    c23f:	be 03 00 00 00       	mov    $0x3,%esi
    c244:	89 c7                	mov    %eax,%edi
    c246:	e8 21 c1 ff ff       	callq  836c <safe_rshift_func_int8_t_s_u>
    c24b:	0f be c0             	movsbl %al,%eax
    c24e:	41 39 c5             	cmp    %eax,%r13d
    c251:	7e 48                	jle    c29b <func_1+0x2ae6>
    c253:	48 8b 05 ae 2d 01 00 	mov    0x12dae(%rip),%rax        # 1f008 <g_987>
    c25a:	8b 08                	mov    (%rax),%ecx
    c25c:	0f b7 85 c2 e8 ff ff 	movzwl -0x173e(%rbp),%eax
    c263:	66 85 c0             	test   %ax,%ax
    c266:	0f 94 c0             	sete   %al
    c269:	0f b6 c0             	movzbl %al,%eax
    c26c:	89 c2                	mov    %eax,%edx
    c26e:	48 83 bd 48 e7 ff ff 	cmpq   $0x0,-0x18b8(%rbp)
    c275:	00 
    c276:	0f 95 c0             	setne  %al
    c279:	0f b6 c0             	movzbl %al,%eax
    c27c:	39 c2                	cmp    %eax,%edx
    c27e:	0f 96 c0             	setbe  %al
    c281:	0f b6 d0             	movzbl %al,%edx
    c284:	48 8b 05 7d 2d 01 00 	mov    0x12d7d(%rip),%rax        # 1f008 <g_987>
    c28b:	31 ca                	xor    %ecx,%edx
    c28d:	89 10                	mov    %edx,(%rax)
    c28f:	0f b7 85 7a e5 ff ff 	movzwl -0x1a86(%rbp),%eax
    c296:	e9 9f 16 00 00       	jmpq   d93a <func_1+0x4185>
    c29b:	48 8b 05 76 2d 01 00 	mov    0x12d76(%rip),%rax        # 1f018 <g_1145>
    c2a2:	48 8b 00             	mov    (%rax),%rax
    c2a5:	8b 08                	mov    (%rax),%ecx
    c2a7:	48 8d 85 90 e6 ff ff 	lea    -0x1970(%rbp),%rax
    c2ae:	48 39 85 f8 e6 ff ff 	cmp    %rax,-0x1908(%rbp)
    c2b5:	0f 95 c0             	setne  %al
    c2b8:	0f b6 d0             	movzbl %al,%edx
    c2bb:	48 8b 05 56 2d 01 00 	mov    0x12d56(%rip),%rax        # 1f018 <g_1145>
    c2c2:	48 8b 00             	mov    (%rax),%rax
    c2c5:	31 ca                	xor    %ecx,%edx
    c2c7:	89 10                	mov    %edx,(%rax)
    c2c9:	48 8b 85 00 e7 ff ff 	mov    -0x1900(%rbp),%rax
    c2d0:	89 c2                	mov    %eax,%edx
    c2d2:	48 8b 05 37 36 01 00 	mov    0x13637(%rip),%rax        # 1f910 <g_1356>
    c2d9:	48 8b 00             	mov    (%rax),%rax
    c2dc:	0f b7 00             	movzwl (%rax),%eax
    c2df:	0f b7 c0             	movzwl %ax,%eax
    c2e2:	89 d6                	mov    %edx,%esi
    c2e4:	89 c7                	mov    %eax,%edi
    c2e6:	e8 8f cb ff ff       	callq  8e7a <safe_rshift_func_uint16_t_u_u>
    c2eb:	0f b7 c0             	movzwl %ax,%eax
    c2ee:	48 8b 95 80 e6 ff ff 	mov    -0x1980(%rbp),%rdx
    c2f5:	89 c6                	mov    %eax,%esi
    c2f7:	89 d7                	mov    %edx,%edi
    c2f9:	e8 b8 c2 ff ff       	callq  85b6 <safe_add_func_int32_t_s_s>
    c2fe:	f7 d0                	not    %eax
    c300:	89 c2                	mov    %eax,%edx
    c302:	48 8b 85 a0 e6 ff ff 	mov    -0x1960(%rbp),%rax
    c309:	89 10                	mov    %edx,(%rax)
    c30b:	e9 f5 02 00 00       	jmpq   c605 <func_1+0x2e50>
    c310:	48 c7 85 20 e7 ff ff 	movq   $0x1,-0x18e0(%rbp)
    c317:	01 00 00 00 
    c31b:	c7 85 30 f0 ff ff 32 	movl   $0x5f003e32,-0xfd0(%rbp)
    c322:	3e 00 5f 
    c325:	c7 85 34 f0 ff ff 01 	movl   $0x1,-0xfcc(%rbp)
    c32c:	00 00 00 
    c32f:	c7 85 38 f0 ff ff 01 	movl   $0x1,-0xfc8(%rbp)
    c336:	00 00 00 
    c339:	c7 85 3c f0 ff ff 01 	movl   $0x1,-0xfc4(%rbp)
    c340:	00 00 00 
    c343:	c7 85 40 f0 ff ff 01 	movl   $0x1,-0xfc0(%rbp)
    c34a:	00 00 00 
    c34d:	c7 85 44 f0 ff ff 32 	movl   $0x5f003e32,-0xfbc(%rbp)
    c354:	3e 00 5f 
    c357:	c7 85 48 f0 ff ff ce 	movl   $0x527d89ce,-0xfb8(%rbp)
    c35e:	89 7d 52 
    c361:	c7 85 4c f0 ff ff 32 	movl   $0x5f003e32,-0xfb4(%rbp)
    c368:	3e 00 5f 
    c36b:	c7 85 50 f0 ff ff 01 	movl   $0x1,-0xfb0(%rbp)
    c372:	00 00 00 
    c375:	c7 85 54 f0 ff ff 01 	movl   $0x1,-0xfac(%rbp)
    c37c:	00 00 00 
    c37f:	c7 85 58 f0 ff ff 01 	movl   $0x1,-0xfa8(%rbp)
    c386:	00 00 00 
    c389:	c7 85 5c f0 ff ff 01 	movl   $0x1,-0xfa4(%rbp)
    c390:	00 00 00 
    c393:	c7 85 60 f0 ff ff 32 	movl   $0x5f003e32,-0xfa0(%rbp)
    c39a:	3e 00 5f 
    c39d:	c7 85 64 f0 ff ff ce 	movl   $0x527d89ce,-0xf9c(%rbp)
    c3a4:	89 7d 52 
    c3a7:	c7 85 68 f0 ff ff 32 	movl   $0x5f003e32,-0xf98(%rbp)
    c3ae:	3e 00 5f 
    c3b1:	c7 85 6c f0 ff ff 01 	movl   $0x1,-0xf94(%rbp)
    c3b8:	00 00 00 
    c3bb:	c7 85 70 f0 ff ff 01 	movl   $0x1,-0xf90(%rbp)
    c3c2:	00 00 00 
    c3c5:	c7 85 74 f0 ff ff 01 	movl   $0x1,-0xf8c(%rbp)
    c3cc:	00 00 00 
    c3cf:	48 8b 05 42 2c 01 00 	mov    0x12c42(%rip),%rax        # 1f018 <g_1145>
    c3d6:	48 8b 00             	mov    (%rax),%rax
    c3d9:	8b 08                	mov    (%rax),%ecx
    c3db:	48 8b 05 1e 2c 01 00 	mov    0x12c1e(%rip),%rax        # 1f000 <g_811>
    c3e2:	8b 10                	mov    (%rax),%edx
    c3e4:	48 8b 05 2d 2c 01 00 	mov    0x12c2d(%rip),%rax        # 1f018 <g_1145>
    c3eb:	48 8b 00             	mov    (%rax),%rax
    c3ee:	31 ca                	xor    %ecx,%edx
    c3f0:	89 10                	mov    %edx,(%rax)
    c3f2:	48 83 bd 20 e7 ff ff 	cmpq   $0x0,-0x18e0(%rbp)
    c3f9:	00 
    c3fa:	74 19                	je     c415 <func_1+0x2c60>
    c3fc:	48 8b 05 a5 2b 01 00 	mov    0x12ba5(%rip),%rax        # 1efa8 <g_741>
    c403:	48 8b 00             	mov    (%rax),%rax
    c406:	48 8b 95 18 e7 ff ff 	mov    -0x18e8(%rbp),%rdx
    c40d:	48 89 10             	mov    %rdx,(%rax)
    c410:	e9 f0 01 00 00       	jmpq   c605 <func_1+0x2e50>
    c415:	48 8d 85 90 e5 ff ff 	lea    -0x1a70(%rbp),%rax
    c41c:	48 89 85 28 e7 ff ff 	mov    %rax,-0x18d8(%rbp)
    c423:	48 8d 85 9c e5 ff ff 	lea    -0x1a64(%rbp),%rax
    c42a:	48 89 85 30 e7 ff ff 	mov    %rax,-0x18d0(%rbp)
    c431:	c7 85 18 e6 ff ff 01 	movl   $0x1,-0x19e8(%rbp)
    c438:	00 00 00 
    c43b:	48 8d 85 a0 e5 ff ff 	lea    -0x1a60(%rbp),%rax
    c442:	48 89 85 38 e7 ff ff 	mov    %rax,-0x18c8(%rbp)
    c449:	48 8d 85 69 e5 ff ff 	lea    -0x1a97(%rbp),%rax
    c450:	48 89 85 40 ec ff ff 	mov    %rax,-0x13c0(%rbp)
    c457:	48 8d 85 69 e5 ff ff 	lea    -0x1a97(%rbp),%rax
    c45e:	48 89 85 48 ec ff ff 	mov    %rax,-0x13b8(%rbp)
    c465:	48 8d 85 69 e5 ff ff 	lea    -0x1a97(%rbp),%rax
    c46c:	48 89 85 50 ec ff ff 	mov    %rax,-0x13b0(%rbp)
    c473:	48 8d 85 69 e5 ff ff 	lea    -0x1a97(%rbp),%rax
    c47a:	48 89 85 58 ec ff ff 	mov    %rax,-0x13a8(%rbp)
    c481:	48 8d 85 69 e5 ff ff 	lea    -0x1a97(%rbp),%rax
    c488:	48 89 85 60 ec ff ff 	mov    %rax,-0x13a0(%rbp)
    c48f:	48 8d 85 69 e5 ff ff 	lea    -0x1a97(%rbp),%rax
    c496:	48 89 85 68 ec ff ff 	mov    %rax,-0x1398(%rbp)
    c49d:	c7 85 d0 e5 ff ff 00 	movl   $0x0,-0x1a30(%rbp)
    c4a4:	00 00 00 
    c4a7:	eb 46                	jmp    c4ef <func_1+0x2d3a>
    c4a9:	c7 85 d4 e5 ff ff 00 	movl   $0x0,-0x1a2c(%rbp)
    c4b0:	00 00 00 
    c4b3:	eb 2a                	jmp    c4df <func_1+0x2d2a>
    c4b5:	8b 85 d4 e5 ff ff    	mov    -0x1a2c(%rbp),%eax
    c4bb:	48 63 d0             	movslq %eax,%rdx
    c4be:	8b 85 d0 e5 ff ff    	mov    -0x1a30(%rbp),%eax
    c4c4:	48 98                	cltq   
    c4c6:	48 01 c2             	add    %rax,%rdx
    c4c9:	48 8d 85 98 e5 ff ff 	lea    -0x1a68(%rbp),%rax
    c4d0:	48 89 84 d5 80 e8 ff 	mov    %rax,-0x1780(%rbp,%rdx,8)
    c4d7:	ff 
    c4d8:	83 85 d4 e5 ff ff 01 	addl   $0x1,-0x1a2c(%rbp)
    c4df:	83 bd d4 e5 ff ff 00 	cmpl   $0x0,-0x1a2c(%rbp)
    c4e6:	7e cd                	jle    c4b5 <func_1+0x2d00>
    c4e8:	83 85 d0 e5 ff ff 01 	addl   $0x1,-0x1a30(%rbp)
    c4ef:	83 bd d0 e5 ff ff 01 	cmpl   $0x1,-0x1a30(%rbp)
    c4f6:	7e b1                	jle    c4a9 <func_1+0x2cf4>
    c4f8:	0f b6 85 69 e5 ff ff 	movzbl -0x1a97(%rbp),%eax
    c4ff:	83 c0 01             	add    $0x1,%eax
    c502:	88 85 69 e5 ff ff    	mov    %al,-0x1a97(%rbp)
    c508:	0f b7 85 84 e5 ff ff 	movzwl -0x1a7c(%rbp),%eax
    c50f:	0f b6 d8             	movzbl %al,%ebx
    c512:	44 0f b7 a5 7c e5 ff 	movzwl -0x1a84(%rbp),%r12d
    c519:	ff 
    c51a:	c7 85 98 e5 ff ff 00 	movl   $0x0,-0x1a68(%rbp)
    c521:	00 00 00 
    c524:	b8 00 00 00 00       	mov    $0x0,%eax
    c529:	89 c2                	mov    %eax,%edx
    c52b:	48 8b 85 38 e7 ff ff 	mov    -0x18c8(%rbp),%rax
    c532:	89 10                	mov    %edx,(%rax)
    c534:	48 8b 85 38 e7 ff ff 	mov    -0x18c8(%rbp),%rax
    c53b:	8b 00                	mov    (%rax),%eax
    c53d:	89 c2                	mov    %eax,%edx
    c53f:	48 8b 05 2a 35 01 00 	mov    0x1352a(%rip),%rax        # 1fa70 <g_1773>
    c546:	48 8b 00             	mov    (%rax),%rax
    c549:	8b 00                	mov    (%rax),%eax
    c54b:	21 d0                	and    %edx,%eax
    c54d:	0f b6 c0             	movzbl %al,%eax
    c550:	be 06 00 00 00       	mov    $0x6,%esi
    c555:	89 c7                	mov    %eax,%edi
    c557:	e8 37 c6 ff ff       	callq  8b93 <safe_mul_func_uint8_t_u_u>
    c55c:	84 c0                	test   %al,%al
    c55e:	0f 95 c0             	setne  %al
    c561:	0f b6 c0             	movzbl %al,%eax
    c564:	39 85 04 e6 ff ff    	cmp    %eax,-0x19fc(%rbp)
    c56a:	74 07                	je     c573 <func_1+0x2dbe>
    c56c:	b8 01 00 00 00       	mov    $0x1,%eax
    c571:	eb 05                	jmp    c578 <func_1+0x2dc3>
    c573:	b8 00 00 00 00       	mov    $0x0,%eax
    c578:	0f be c0             	movsbl %al,%eax
    c57b:	44 89 e6             	mov    %r12d,%esi
    c57e:	89 c7                	mov    %eax,%edi
    c580:	e8 1c bd ff ff       	callq  82a1 <safe_lshift_func_int8_t_s_s>
    c585:	48 8b 05 84 27 01 00 	mov    0x12784(%rip),%rax        # 1ed10 <g_414>
    c58c:	48 8b 00             	mov    (%rax),%rax
    c58f:	48 8b 00             	mov    (%rax),%rax
    c592:	0f b6 00             	movzbl (%rax),%eax
    c595:	0f b6 c0             	movzbl %al,%eax
    c598:	89 85 00 e6 ff ff    	mov    %eax,-0x1a00(%rbp)
    c59e:	8b 85 9c e5 ff ff    	mov    -0x1a64(%rbp),%eax
    c5a4:	39 85 00 e6 ff ff    	cmp    %eax,-0x1a00(%rbp)
    c5aa:	0f 9c c0             	setl   %al
    c5ad:	0f b6 c0             	movzbl %al,%eax
    c5b0:	be 04 00 00 00       	mov    $0x4,%esi
    c5b5:	89 c7                	mov    %eax,%edi
    c5b7:	e8 02 c8 ff ff       	callq  8dbe <safe_lshift_func_uint16_t_u_s>
    c5bc:	89 c2                	mov    %eax,%edx
    c5be:	8b 85 44 f0 ff ff    	mov    -0xfbc(%rbp),%eax
    c5c4:	09 d0                	or     %edx,%eax
    c5c6:	0f b6 c0             	movzbl %al,%eax
    c5c9:	89 de                	mov    %ebx,%esi
    c5cb:	89 c7                	mov    %eax,%edi
    c5cd:	e8 dc c5 ff ff       	callq  8bae <safe_mod_func_uint8_t_u_u>
    c5d2:	8b 95 0c e6 ff ff    	mov    -0x19f4(%rbp),%edx
    c5d8:	48 8b 85 28 e7 ff ff 	mov    -0x18d8(%rbp),%rax
    c5df:	8b 00                	mov    (%rax),%eax
    c5e1:	09 c2                	or     %eax,%edx
    c5e3:	48 8b 85 28 e7 ff ff 	mov    -0x18d8(%rbp),%rax
    c5ea:	89 10                	mov    %edx,(%rax)
    c5ec:	8b 85 a0 e5 ff ff    	mov    -0x1a60(%rbp),%eax
    c5f2:	85 c0                	test   %eax,%eax
    c5f4:	0f 85 93 00 00 00    	jne    c68d <func_1+0x2ed8>
    c5fa:	8b 85 44 f0 ff ff    	mov    -0xfbc(%rbp),%eax
    c600:	e9 35 13 00 00       	jmpq   d93a <func_1+0x4185>
    c605:	c7 85 90 e5 ff ff 00 	movl   $0x0,-0x1a70(%rbp)
    c60c:	00 00 00 
    c60f:	eb 71                	jmp    c682 <func_1+0x2ecd>
    c611:	48 c7 05 8c 14 01 00 	movq   $0x0,0x1148c(%rip)        # 1daa8 <g_1654>
    c618:	00 00 00 00 
    c61c:	eb 48                	jmp    c666 <func_1+0x2eb1>
    c61e:	8b 85 90 e5 ff ff    	mov    -0x1a70(%rbp),%eax
    c624:	48 8b 0d 7d 14 01 00 	mov    0x1147d(%rip),%rcx        # 1daa8 <g_1654>
    c62b:	48 63 d0             	movslq %eax,%rdx
    c62e:	48 89 d0             	mov    %rdx,%rax
    c631:	48 01 c0             	add    %rax,%rax
    c634:	48 01 d0             	add    %rdx,%rax
    c637:	48 01 c8             	add    %rcx,%rax
    c63a:	48 8d 14 c5 00 00 00 	lea    0x0(,%rax,8),%rdx
    c641:	00 
    c642:	48 8d 05 f7 29 01 00 	lea    0x129f7(%rip),%rax        # 1f040 <g_1180>
    c649:	48 8d 0d d8 32 01 00 	lea    0x132d8(%rip),%rcx        # 1f928 <g_1522>
    c650:	48 89 0c 02          	mov    %rcx,(%rdx,%rax,1)
    c654:	48 8b 05 4d 14 01 00 	mov    0x1144d(%rip),%rax        # 1daa8 <g_1654>
    c65b:	48 83 c0 01          	add    $0x1,%rax
    c65f:	48 89 05 42 14 01 00 	mov    %rax,0x11442(%rip)        # 1daa8 <g_1654>
    c666:	48 8b 05 3b 14 01 00 	mov    0x1143b(%rip),%rax        # 1daa8 <g_1654>
    c66d:	48 83 f8 02          	cmp    $0x2,%rax
    c671:	7e ab                	jle    c61e <func_1+0x2e69>
    c673:	8b 85 90 e5 ff ff    	mov    -0x1a70(%rbp),%eax
    c679:	83 c0 01             	add    $0x1,%eax
    c67c:	89 85 90 e5 ff ff    	mov    %eax,-0x1a70(%rbp)
    c682:	8b 85 90 e5 ff ff    	mov    -0x1a70(%rbp),%eax
    c688:	83 f8 07             	cmp    $0x7,%eax
    c68b:	7e 84                	jle    c611 <func_1+0x2e5c>
    c68d:	0f b7 85 7a e5 ff ff 	movzwl -0x1a86(%rbp),%eax
    c694:	83 c0 01             	add    $0x1,%eax
    c697:	66 89 85 7a e5 ff ff 	mov    %ax,-0x1a86(%rbp)
    c69e:	66 83 bd 7a e5 ff ff 	cmpw   $0x19,-0x1a86(%rbp)
    c6a5:	19 
    c6a6:	0f 8f 09 f8 ff ff    	jg     beb5 <func_1+0x2700>
    c6ac:	48 8b 05 2d 1d 01 00 	mov    0x11d2d(%rip),%rax        # 1e3e0 <g_29>
    c6b3:	8b 00                	mov    (%rax),%eax
    c6b5:	31 85 10 e6 ff ff    	xor    %eax,-0x19f0(%rbp)
    c6bb:	8b 05 1b 14 01 00    	mov    0x1141b(%rip),%eax        # 1dadc <g_2975>
    c6c1:	be 07 00 00 00       	mov    $0x7,%esi
    c6c6:	89 c7                	mov    %eax,%edi
    c6c8:	e8 e9 be ff ff       	callq  85b6 <safe_add_func_int32_t_s_s>
    c6cd:	89 05 09 14 01 00    	mov    %eax,0x11409(%rip)        # 1dadc <g_2975>
    c6d3:	8b 05 03 14 01 00    	mov    0x11403(%rip),%eax        # 1dadc <g_2975>
    c6d9:	83 f8 10             	cmp    $0x10,%eax
    c6dc:	0f 8f 1e f0 ff ff    	jg     b700 <func_1+0x1f4b>
    c6e2:	48 8b 85 a0 e6 ff ff 	mov    -0x1960(%rbp),%rax
    c6e9:	8b 00                	mov    (%rax),%eax
    c6eb:	89 c2                	mov    %eax,%edx
    c6ed:	0f b6 85 6b e5 ff ff 	movzbl -0x1a95(%rbp),%eax
    c6f4:	21 d0                	and    %edx,%eax
    c6f6:	88 85 6b e5 ff ff    	mov    %al,-0x1a95(%rbp)
    c6fc:	0f b6 95 6b e5 ff ff 	movzbl -0x1a95(%rbp),%edx
    c703:	48 8b 05 2e 32 01 00 	mov    0x1322e(%rip),%rax        # 1f938 <g_1542>
    c70a:	8b 00                	mov    (%rax),%eax
    c70c:	89 d6                	mov    %edx,%esi
    c70e:	89 c7                	mov    %eax,%edi
    c710:	e8 a3 c7 ff ff       	callq  8eb8 <safe_add_func_uint32_t_u_u>
    c715:	98                   	cwtl   
    c716:	be 0a 00 00 00       	mov    $0xa,%esi
    c71b:	89 c7                	mov    %eax,%edi
    c71d:	e8 41 be ff ff       	callq  8563 <safe_rshift_func_int16_t_s_u>
    c722:	48 8b 85 a0 e6 ff ff 	mov    -0x1960(%rbp),%rax
    c729:	8b 00                	mov    (%rax),%eax
    c72b:	0f be d8             	movsbl %al,%ebx
    c72e:	48 8b 85 a0 e6 ff ff 	mov    -0x1960(%rbp),%rax
    c735:	8b 00                	mov    (%rax),%eax
    c737:	4c 63 e0             	movslq %eax,%r12
    c73a:	48 8b 15 9f 25 01 00 	mov    0x1259f(%rip),%rdx        # 1ece0 <g_316>
    c741:	48 8b 05 98 25 01 00 	mov    0x12598(%rip),%rax        # 1ece0 <g_316>
    c748:	48 8b 12             	mov    (%rdx),%rdx
    c74b:	48 89 10             	mov    %rdx,(%rax)
    c74e:	48 8b 05 d3 31 01 00 	mov    0x131d3(%rip),%rax        # 1f928 <g_1522>
    c755:	48 8b 00             	mov    (%rax),%rax
    c758:	48 8b 00             	mov    (%rax),%rax
    c75b:	c6 00 01             	movb   $0x1,(%rax)
    c75e:	0f b6 00             	movzbl (%rax),%eax
    c761:	0f b6 c0             	movzbl %al,%eax
    c764:	be 04 00 00 00       	mov    $0x4,%esi
    c769:	89 c7                	mov    %eax,%edi
    c76b:	e8 4e c5 ff ff       	callq  8cbe <safe_rshift_func_uint8_t_u_u>
    c770:	0f b6 c0             	movzbl %al,%eax
    c773:	4c 89 e6             	mov    %r12,%rsi
    c776:	48 89 c7             	mov    %rax,%rdi
    c779:	e8 79 c2 ff ff       	callq  89f7 <safe_div_func_int64_t_s_s>
    c77e:	48 85 c0             	test   %rax,%rax
    c781:	75 0d                	jne    c790 <func_1+0x2fdb>
    c783:	48 8b 85 a0 e6 ff ff 	mov    -0x1960(%rbp),%rax
    c78a:	8b 00                	mov    (%rax),%eax
    c78c:	85 c0                	test   %eax,%eax
    c78e:	74 07                	je     c797 <func_1+0x2fe2>
    c790:	b8 01 00 00 00       	mov    $0x1,%eax
    c795:	eb 05                	jmp    c79c <func_1+0x2fe7>
    c797:	b8 00 00 00 00       	mov    $0x0,%eax
    c79c:	0f be c0             	movsbl %al,%eax
    c79f:	89 de                	mov    %ebx,%esi
    c7a1:	89 c7                	mov    %eax,%edi
    c7a3:	e8 c2 ba ff ff       	callq  826a <safe_div_func_int8_t_s_s>
    c7a8:	0f be d0             	movsbl %al,%edx
    c7ab:	48 8b 85 a0 e6 ff ff 	mov    -0x1960(%rbp),%rax
    c7b2:	8b 00                	mov    (%rax),%eax
    c7b4:	89 c1                	mov    %eax,%ecx
    c7b6:	48 8b 85 c0 e6 ff ff 	mov    -0x1940(%rbp),%rax
    c7bd:	88 08                	mov    %cl,(%rax)
    c7bf:	48 8b 85 c0 e6 ff ff 	mov    -0x1940(%rbp),%rax
    c7c6:	0f b6 00             	movzbl (%rax),%eax
    c7c9:	0f be c0             	movsbl %al,%eax
    c7cc:	89 d6                	mov    %edx,%esi
    c7ce:	89 c7                	mov    %eax,%edi
    c7d0:	e8 95 ba ff ff       	callq  826a <safe_div_func_int8_t_s_s>
    c7d5:	48 8b 85 a0 e6 ff ff 	mov    -0x1960(%rbp),%rax
    c7dc:	8b 00                	mov    (%rax),%eax
    c7de:	85 c0                	test   %eax,%eax
    c7e0:	0f 94 c0             	sete   %al
    c7e3:	0f b6 d0             	movzbl %al,%edx
    c7e6:	48 8b 85 c8 e6 ff ff 	mov    -0x1938(%rbp),%rax
    c7ed:	8b 00                	mov    (%rax),%eax
    c7ef:	09 c2                	or     %eax,%edx
    c7f1:	48 8b 85 c8 e6 ff ff 	mov    -0x1938(%rbp),%rax
    c7f8:	89 10                	mov    %edx,(%rax)
    c7fa:	b9 00 00 00 00       	mov    $0x0,%ecx
    c7ff:	48 8b 05 12 28 01 00 	mov    0x12812(%rip),%rax        # 1f018 <g_1145>
    c806:	48 8b 00             	mov    (%rax),%rax
    c809:	8b 10                	mov    (%rax),%edx
    c80b:	48 8b 05 06 28 01 00 	mov    0x12806(%rip),%rax        # 1f018 <g_1145>
    c812:	48 8b 00             	mov    (%rax),%rax
    c815:	09 ca                	or     %ecx,%edx
    c817:	89 10                	mov    %edx,(%rax)
    c819:	c7 85 e0 e5 ff ff fc 	movl   $0xfffffffc,-0x1a20(%rbp)
    c820:	ff ff ff 
    c823:	e9 f3 10 00 00       	jmpq   d91b <func_1+0x4166>
    c828:	48 b8 c7 8c 6c 8f 79 	movabs $0x43e337798f6c8cc7,%rax
    c82f:	37 e3 43 
    c832:	48 89 85 10 e8 ff ff 	mov    %rax,-0x17f0(%rbp)
    c839:	48 c7 85 98 e6 ff ff 	movq   $0x0,-0x1968(%rbp)
    c840:	00 00 00 00 
    c844:	48 8d 85 98 e6 ff ff 	lea    -0x1968(%rbp),%rax
    c84b:	48 89 85 18 e8 ff ff 	mov    %rax,-0x17e8(%rbp)
    c852:	48 8d 05 7f 12 01 00 	lea    0x1127f(%rip),%rax        # 1dad8 <g_2919>
    c859:	48 89 85 20 e8 ff ff 	mov    %rax,-0x17e0(%rbp)
    c860:	c6 85 74 e5 ff ff ae 	movb   $0xae,-0x1a8c(%rbp)
    c867:	48 8d 85 94 e5 ff ff 	lea    -0x1a6c(%rbp),%rax
    c86e:	48 89 85 28 e8 ff ff 	mov    %rax,-0x17d8(%rbp)
    c875:	c7 85 54 e6 ff ff 03 	movl   $0x3,-0x19ac(%rbp)
    c87c:	00 00 00 
    c87f:	48 8d 05 92 27 01 00 	lea    0x12792(%rip),%rax        # 1f018 <g_1145>
    c886:	48 89 85 80 e8 ff ff 	mov    %rax,-0x1780(%rbp)
    c88d:	48 8d 05 84 27 01 00 	lea    0x12784(%rip),%rax        # 1f018 <g_1145>
    c894:	48 89 85 88 e8 ff ff 	mov    %rax,-0x1778(%rbp)
    c89b:	48 8d 05 76 27 01 00 	lea    0x12776(%rip),%rax        # 1f018 <g_1145>
    c8a2:	48 89 85 90 e8 ff ff 	mov    %rax,-0x1770(%rbp)
    c8a9:	48 8d 05 68 27 01 00 	lea    0x12768(%rip),%rax        # 1f018 <g_1145>
    c8b0:	48 89 85 98 e8 ff ff 	mov    %rax,-0x1768(%rbp)
    c8b7:	48 8d 05 5a 27 01 00 	lea    0x1275a(%rip),%rax        # 1f018 <g_1145>
    c8be:	48 89 85 a0 e8 ff ff 	mov    %rax,-0x1760(%rbp)
    c8c5:	48 8d 05 4c 27 01 00 	lea    0x1274c(%rip),%rax        # 1f018 <g_1145>
    c8cc:	48 89 85 a8 e8 ff ff 	mov    %rax,-0x1758(%rbp)
    c8d3:	48 8d 85 80 e8 ff ff 	lea    -0x1780(%rbp),%rax
    c8da:	48 83 c0 18          	add    $0x18,%rax
    c8de:	48 89 85 30 f0 ff ff 	mov    %rax,-0xfd0(%rbp)
    c8e5:	48 8d 85 80 e8 ff ff 	lea    -0x1780(%rbp),%rax
    c8ec:	48 83 c0 08          	add    $0x8,%rax
    c8f0:	48 89 85 38 f0 ff ff 	mov    %rax,-0xfc8(%rbp)
    c8f7:	48 c7 85 40 f0 ff ff 	movq   $0x0,-0xfc0(%rbp)
    c8fe:	00 00 00 00 
    c902:	48 8d 85 80 e8 ff ff 	lea    -0x1780(%rbp),%rax
    c909:	48 83 c0 20          	add    $0x20,%rax
    c90d:	48 89 85 48 f0 ff ff 	mov    %rax,-0xfb8(%rbp)
    c914:	48 8d 85 80 e8 ff ff 	lea    -0x1780(%rbp),%rax
    c91b:	48 83 c0 08          	add    $0x8,%rax
    c91f:	48 89 85 50 f0 ff ff 	mov    %rax,-0xfb0(%rbp)
    c926:	48 c7 85 58 f0 ff ff 	movq   $0x0,-0xfa8(%rbp)
    c92d:	00 00 00 00 
    c931:	48 8d 85 80 e8 ff ff 	lea    -0x1780(%rbp),%rax
    c938:	48 83 c0 08          	add    $0x8,%rax
    c93c:	48 89 85 60 f0 ff ff 	mov    %rax,-0xfa0(%rbp)
    c943:	48 8d 85 80 e8 ff ff 	lea    -0x1780(%rbp),%rax
    c94a:	48 83 c0 18          	add    $0x18,%rax
    c94e:	48 89 85 68 f0 ff ff 	mov    %rax,-0xf98(%rbp)
    c955:	48 c7 85 70 f0 ff ff 	movq   $0x0,-0xf90(%rbp)
    c95c:	00 00 00 00 
    c960:	48 8d 85 80 e8 ff ff 	lea    -0x1780(%rbp),%rax
    c967:	48 83 c0 18          	add    $0x18,%rax
    c96b:	48 89 85 78 f0 ff ff 	mov    %rax,-0xf88(%rbp)
    c972:	48 8d 85 80 e8 ff ff 	lea    -0x1780(%rbp),%rax
    c979:	48 83 c0 08          	add    $0x8,%rax
    c97d:	48 89 85 80 f0 ff ff 	mov    %rax,-0xf80(%rbp)
    c984:	48 c7 85 88 f0 ff ff 	movq   $0x0,-0xf78(%rbp)
    c98b:	00 00 00 00 
    c98f:	48 8d 85 80 e8 ff ff 	lea    -0x1780(%rbp),%rax
    c996:	48 83 c0 10          	add    $0x10,%rax
    c99a:	48 89 85 90 f0 ff ff 	mov    %rax,-0xf70(%rbp)
    c9a1:	48 8d 85 80 e8 ff ff 	lea    -0x1780(%rbp),%rax
    c9a8:	48 83 c0 18          	add    $0x18,%rax
    c9ac:	48 89 85 98 f0 ff ff 	mov    %rax,-0xf68(%rbp)
    c9b3:	48 c7 85 a0 f0 ff ff 	movq   $0x0,-0xf60(%rbp)
    c9ba:	00 00 00 00 
    c9be:	48 c7 85 a8 f0 ff ff 	movq   $0x0,-0xf58(%rbp)
    c9c5:	00 00 00 00 
    c9c9:	48 8d 85 80 e8 ff ff 	lea    -0x1780(%rbp),%rax
    c9d0:	48 83 c0 08          	add    $0x8,%rax
    c9d4:	48 89 85 b0 f0 ff ff 	mov    %rax,-0xf50(%rbp)
    c9db:	48 8d 85 80 e8 ff ff 	lea    -0x1780(%rbp),%rax
    c9e2:	48 83 c0 08          	add    $0x8,%rax
    c9e6:	48 89 85 b8 f0 ff ff 	mov    %rax,-0xf48(%rbp)
    c9ed:	48 c7 85 c0 f0 ff ff 	movq   $0x0,-0xf40(%rbp)
    c9f4:	00 00 00 00 
    c9f8:	48 8d 85 80 e8 ff ff 	lea    -0x1780(%rbp),%rax
    c9ff:	48 83 c0 08          	add    $0x8,%rax
    ca03:	48 89 85 c8 f0 ff ff 	mov    %rax,-0xf38(%rbp)
    ca0a:	48 8d 85 80 e8 ff ff 	lea    -0x1780(%rbp),%rax
    ca11:	48 83 c0 20          	add    $0x20,%rax
    ca15:	48 89 85 d0 f0 ff ff 	mov    %rax,-0xf30(%rbp)
    ca1c:	48 c7 85 d8 f0 ff ff 	movq   $0x0,-0xf28(%rbp)
    ca23:	00 00 00 00 
    ca27:	48 c7 85 e0 f0 ff ff 	movq   $0x0,-0xf20(%rbp)
    ca2e:	00 00 00 00 
    ca32:	48 8d 85 80 e8 ff ff 	lea    -0x1780(%rbp),%rax
    ca39:	48 83 c0 08          	add    $0x8,%rax
    ca3d:	48 89 85 e8 f0 ff ff 	mov    %rax,-0xf18(%rbp)
    ca44:	48 8d 85 80 e8 ff ff 	lea    -0x1780(%rbp),%rax
    ca4b:	48 83 c0 10          	add    $0x10,%rax
    ca4f:	48 89 85 f0 f0 ff ff 	mov    %rax,-0xf10(%rbp)
    ca56:	48 8d 85 80 e8 ff ff 	lea    -0x1780(%rbp),%rax
    ca5d:	48 83 c0 08          	add    $0x8,%rax
    ca61:	48 89 85 f8 f0 ff ff 	mov    %rax,-0xf08(%rbp)
    ca68:	48 8d 85 80 e8 ff ff 	lea    -0x1780(%rbp),%rax
    ca6f:	48 83 c0 08          	add    $0x8,%rax
    ca73:	48 89 85 00 f1 ff ff 	mov    %rax,-0xf00(%rbp)
    ca7a:	48 8d 85 80 e8 ff ff 	lea    -0x1780(%rbp),%rax
    ca81:	48 83 c0 18          	add    $0x18,%rax
    ca85:	48 89 85 08 f1 ff ff 	mov    %rax,-0xef8(%rbp)
    ca8c:	48 8d 85 80 e8 ff ff 	lea    -0x1780(%rbp),%rax
    ca93:	48 83 c0 08          	add    $0x8,%rax
    ca97:	48 89 85 10 f1 ff ff 	mov    %rax,-0xef0(%rbp)
    ca9e:	48 8d 85 80 e8 ff ff 	lea    -0x1780(%rbp),%rax
    caa5:	48 83 c0 08          	add    $0x8,%rax
    caa9:	48 89 85 18 f1 ff ff 	mov    %rax,-0xee8(%rbp)
    cab0:	48 8d 85 80 e8 ff ff 	lea    -0x1780(%rbp),%rax
    cab7:	48 83 c0 08          	add    $0x8,%rax
    cabb:	48 89 85 20 f1 ff ff 	mov    %rax,-0xee0(%rbp)
    cac2:	48 8d 85 80 e8 ff ff 	lea    -0x1780(%rbp),%rax
    cac9:	48 83 c0 08          	add    $0x8,%rax
    cacd:	48 89 85 28 f1 ff ff 	mov    %rax,-0xed8(%rbp)
    cad4:	48 c7 85 30 f1 ff ff 	movq   $0x0,-0xed0(%rbp)
    cadb:	00 00 00 00 
    cadf:	48 8d 85 80 e8 ff ff 	lea    -0x1780(%rbp),%rax
    cae6:	48 83 c0 20          	add    $0x20,%rax
    caea:	48 89 85 38 f1 ff ff 	mov    %rax,-0xec8(%rbp)
    caf1:	48 8d 85 80 e8 ff ff 	lea    -0x1780(%rbp),%rax
    caf8:	48 83 c0 08          	add    $0x8,%rax
    cafc:	48 89 85 40 f1 ff ff 	mov    %rax,-0xec0(%rbp)
    cb03:	48 8d 85 80 e8 ff ff 	lea    -0x1780(%rbp),%rax
    cb0a:	48 83 c0 08          	add    $0x8,%rax
    cb0e:	48 89 85 48 f1 ff ff 	mov    %rax,-0xeb8(%rbp)
    cb15:	48 8d 85 80 e8 ff ff 	lea    -0x1780(%rbp),%rax
    cb1c:	48 83 c0 18          	add    $0x18,%rax
    cb20:	48 89 85 50 f1 ff ff 	mov    %rax,-0xeb0(%rbp)
    cb27:	48 8d 85 80 e8 ff ff 	lea    -0x1780(%rbp),%rax
    cb2e:	48 83 c0 08          	add    $0x8,%rax
    cb32:	48 89 85 58 f1 ff ff 	mov    %rax,-0xea8(%rbp)
    cb39:	48 c7 85 60 f1 ff ff 	movq   $0x0,-0xea0(%rbp)
    cb40:	00 00 00 00 
    cb44:	48 8d 85 80 e8 ff ff 	lea    -0x1780(%rbp),%rax
    cb4b:	48 83 c0 10          	add    $0x10,%rax
    cb4f:	48 89 85 68 f1 ff ff 	mov    %rax,-0xe98(%rbp)
    cb56:	48 8d 85 80 e8 ff ff 	lea    -0x1780(%rbp),%rax
    cb5d:	48 83 c0 08          	add    $0x8,%rax
    cb61:	48 89 85 70 f1 ff ff 	mov    %rax,-0xe90(%rbp)
    cb68:	48 8d 85 80 e8 ff ff 	lea    -0x1780(%rbp),%rax
    cb6f:	48 83 c0 08          	add    $0x8,%rax
    cb73:	48 89 85 78 f1 ff ff 	mov    %rax,-0xe88(%rbp)
    cb7a:	48 8d 85 80 e8 ff ff 	lea    -0x1780(%rbp),%rax
    cb81:	48 83 c0 10          	add    $0x10,%rax
    cb85:	48 89 85 80 f1 ff ff 	mov    %rax,-0xe80(%rbp)
    cb8c:	48 c7 85 88 f1 ff ff 	movq   $0x0,-0xe78(%rbp)
    cb93:	00 00 00 00 
    cb97:	48 8d 85 80 e8 ff ff 	lea    -0x1780(%rbp),%rax
    cb9e:	48 83 c0 18          	add    $0x18,%rax
    cba2:	48 89 85 90 f1 ff ff 	mov    %rax,-0xe70(%rbp)
    cba9:	48 8d 85 80 e8 ff ff 	lea    -0x1780(%rbp),%rax
    cbb0:	48 83 c0 10          	add    $0x10,%rax
    cbb4:	48 89 85 98 f1 ff ff 	mov    %rax,-0xe68(%rbp)
    cbbb:	48 8d 85 80 e8 ff ff 	lea    -0x1780(%rbp),%rax
    cbc2:	48 83 c0 08          	add    $0x8,%rax
    cbc6:	48 89 85 a0 f1 ff ff 	mov    %rax,-0xe60(%rbp)
    cbcd:	48 8d 85 80 e8 ff ff 	lea    -0x1780(%rbp),%rax
    cbd4:	48 83 c0 08          	add    $0x8,%rax
    cbd8:	48 89 85 a8 f1 ff ff 	mov    %rax,-0xe58(%rbp)
    cbdf:	48 8d 85 80 e8 ff ff 	lea    -0x1780(%rbp),%rax
    cbe6:	48 83 c0 08          	add    $0x8,%rax
    cbea:	48 89 85 b0 f1 ff ff 	mov    %rax,-0xe50(%rbp)
    cbf1:	48 8d 85 80 e8 ff ff 	lea    -0x1780(%rbp),%rax
    cbf8:	48 83 c0 08          	add    $0x8,%rax
    cbfc:	48 89 85 b8 f1 ff ff 	mov    %rax,-0xe48(%rbp)
    cc03:	48 8d 85 80 e8 ff ff 	lea    -0x1780(%rbp),%rax
    cc0a:	48 83 c0 18          	add    $0x18,%rax
    cc0e:	48 89 85 c0 f1 ff ff 	mov    %rax,-0xe40(%rbp)
    cc15:	48 c7 85 c8 f1 ff ff 	movq   $0x0,-0xe38(%rbp)
    cc1c:	00 00 00 00 
    cc20:	48 8d 85 80 e8 ff ff 	lea    -0x1780(%rbp),%rax
    cc27:	48 83 c0 18          	add    $0x18,%rax
    cc2b:	48 89 85 d0 f1 ff ff 	mov    %rax,-0xe30(%rbp)
    cc32:	48 8d 85 80 e8 ff ff 	lea    -0x1780(%rbp),%rax
    cc39:	48 83 c0 08          	add    $0x8,%rax
    cc3d:	48 89 85 d8 f1 ff ff 	mov    %rax,-0xe28(%rbp)
    cc44:	48 8d 85 80 e8 ff ff 	lea    -0x1780(%rbp),%rax
    cc4b:	48 83 c0 08          	add    $0x8,%rax
    cc4f:	48 89 85 e0 f1 ff ff 	mov    %rax,-0xe20(%rbp)
    cc56:	48 8d 85 80 e8 ff ff 	lea    -0x1780(%rbp),%rax
    cc5d:	48 83 c0 08          	add    $0x8,%rax
    cc61:	48 89 85 e8 f1 ff ff 	mov    %rax,-0xe18(%rbp)
    cc68:	48 c7 85 f0 f1 ff ff 	movq   $0x0,-0xe10(%rbp)
    cc6f:	00 00 00 00 
    cc73:	48 8d 85 80 e8 ff ff 	lea    -0x1780(%rbp),%rax
    cc7a:	48 83 c0 08          	add    $0x8,%rax
    cc7e:	48 89 85 f8 f1 ff ff 	mov    %rax,-0xe08(%rbp)
    cc85:	48 8d 85 80 e8 ff ff 	lea    -0x1780(%rbp),%rax
    cc8c:	48 83 c0 18          	add    $0x18,%rax
    cc90:	48 89 85 00 f2 ff ff 	mov    %rax,-0xe00(%rbp)
    cc97:	48 8d 85 80 e8 ff ff 	lea    -0x1780(%rbp),%rax
    cc9e:	48 83 c0 08          	add    $0x8,%rax
    cca2:	48 89 85 08 f2 ff ff 	mov    %rax,-0xdf8(%rbp)
    cca9:	48 8d 85 80 e8 ff ff 	lea    -0x1780(%rbp),%rax
    ccb0:	48 83 c0 08          	add    $0x8,%rax
    ccb4:	48 89 85 10 f2 ff ff 	mov    %rax,-0xdf0(%rbp)
    ccbb:	48 8d 85 80 e8 ff ff 	lea    -0x1780(%rbp),%rax
    ccc2:	48 83 c0 08          	add    $0x8,%rax
    ccc6:	48 89 85 18 f2 ff ff 	mov    %rax,-0xde8(%rbp)
    cccd:	48 c7 85 20 f2 ff ff 	movq   $0x0,-0xde0(%rbp)
    ccd4:	00 00 00 00 
    ccd8:	48 8d 85 80 e8 ff ff 	lea    -0x1780(%rbp),%rax
    ccdf:	48 83 c0 08          	add    $0x8,%rax
    cce3:	48 89 85 28 f2 ff ff 	mov    %rax,-0xdd8(%rbp)
    ccea:	48 8d 85 80 e8 ff ff 	lea    -0x1780(%rbp),%rax
    ccf1:	48 83 c0 08          	add    $0x8,%rax
    ccf5:	48 89 85 30 f2 ff ff 	mov    %rax,-0xdd0(%rbp)
    ccfc:	48 8d 85 80 e8 ff ff 	lea    -0x1780(%rbp),%rax
    cd03:	48 83 c0 08          	add    $0x8,%rax
    cd07:	48 89 85 38 f2 ff ff 	mov    %rax,-0xdc8(%rbp)
    cd0e:	48 8d 85 80 e8 ff ff 	lea    -0x1780(%rbp),%rax
    cd15:	48 83 c0 08          	add    $0x8,%rax
    cd19:	48 89 85 40 f2 ff ff 	mov    %rax,-0xdc0(%rbp)
    cd20:	48 8d 85 80 e8 ff ff 	lea    -0x1780(%rbp),%rax
    cd27:	48 83 c0 08          	add    $0x8,%rax
    cd2b:	48 89 85 48 f2 ff ff 	mov    %rax,-0xdb8(%rbp)
    cd32:	48 8d 85 80 e8 ff ff 	lea    -0x1780(%rbp),%rax
    cd39:	48 83 c0 08          	add    $0x8,%rax
    cd3d:	48 89 85 50 f2 ff ff 	mov    %rax,-0xdb0(%rbp)
    cd44:	48 8d 85 80 e8 ff ff 	lea    -0x1780(%rbp),%rax
    cd4b:	48 83 c0 08          	add    $0x8,%rax
    cd4f:	48 89 85 58 f2 ff ff 	mov    %rax,-0xda8(%rbp)
    cd56:	48 c7 85 60 f2 ff ff 	movq   $0x0,-0xda0(%rbp)
    cd5d:	00 00 00 00 
    cd61:	48 8d 85 80 e8 ff ff 	lea    -0x1780(%rbp),%rax
    cd68:	48 83 c0 08          	add    $0x8,%rax
    cd6c:	48 89 85 68 f2 ff ff 	mov    %rax,-0xd98(%rbp)
    cd73:	48 c7 85 70 f2 ff ff 	movq   $0x0,-0xd90(%rbp)
    cd7a:	00 00 00 00 
    cd7e:	48 8d 85 80 e8 ff ff 	lea    -0x1780(%rbp),%rax
    cd85:	48 83 c0 08          	add    $0x8,%rax
    cd89:	48 89 85 78 f2 ff ff 	mov    %rax,-0xd88(%rbp)
    cd90:	48 8d 85 80 e8 ff ff 	lea    -0x1780(%rbp),%rax
    cd97:	48 83 c0 20          	add    $0x20,%rax
    cd9b:	48 89 85 80 f2 ff ff 	mov    %rax,-0xd80(%rbp)
    cda2:	48 8d 85 80 e8 ff ff 	lea    -0x1780(%rbp),%rax
    cda9:	48 83 c0 08          	add    $0x8,%rax
    cdad:	48 89 85 88 f2 ff ff 	mov    %rax,-0xd78(%rbp)
    cdb4:	48 8d 85 80 e8 ff ff 	lea    -0x1780(%rbp),%rax
    cdbb:	48 83 c0 08          	add    $0x8,%rax
    cdbf:	48 89 85 90 f2 ff ff 	mov    %rax,-0xd70(%rbp)
    cdc6:	48 8d 85 80 e8 ff ff 	lea    -0x1780(%rbp),%rax
    cdcd:	48 83 c0 08          	add    $0x8,%rax
    cdd1:	48 89 85 98 f2 ff ff 	mov    %rax,-0xd68(%rbp)
    cdd8:	48 8d 85 80 e8 ff ff 	lea    -0x1780(%rbp),%rax
    cddf:	48 83 c0 10          	add    $0x10,%rax
    cde3:	48 89 85 a0 f2 ff ff 	mov    %rax,-0xd60(%rbp)
    cdea:	48 8d 85 80 e8 ff ff 	lea    -0x1780(%rbp),%rax
    cdf1:	48 83 c0 08          	add    $0x8,%rax
    cdf5:	48 89 85 a8 f2 ff ff 	mov    %rax,-0xd58(%rbp)
    cdfc:	48 c7 85 b0 f2 ff ff 	movq   $0x0,-0xd50(%rbp)
    ce03:	00 00 00 00 
    ce07:	48 8d 85 80 e8 ff ff 	lea    -0x1780(%rbp),%rax
    ce0e:	48 83 c0 10          	add    $0x10,%rax
    ce12:	48 89 85 b8 f2 ff ff 	mov    %rax,-0xd48(%rbp)
    ce19:	48 c7 85 c0 f2 ff ff 	movq   $0x0,-0xd40(%rbp)
    ce20:	00 00 00 00 
    ce24:	48 c7 85 c8 f2 ff ff 	movq   $0x0,-0xd38(%rbp)
    ce2b:	00 00 00 00 
    ce2f:	48 8d 85 80 e8 ff ff 	lea    -0x1780(%rbp),%rax
    ce36:	48 83 c0 10          	add    $0x10,%rax
    ce3a:	48 89 85 d0 f2 ff ff 	mov    %rax,-0xd30(%rbp)
    ce41:	48 8d 85 80 e8 ff ff 	lea    -0x1780(%rbp),%rax
    ce48:	48 83 c0 08          	add    $0x8,%rax
    ce4c:	48 89 85 d8 f2 ff ff 	mov    %rax,-0xd28(%rbp)
    ce53:	48 c7 85 e0 f2 ff ff 	movq   $0x0,-0xd20(%rbp)
    ce5a:	00 00 00 00 
    ce5e:	48 8d 85 80 e8 ff ff 	lea    -0x1780(%rbp),%rax
    ce65:	48 89 85 e8 f2 ff ff 	mov    %rax,-0xd18(%rbp)
    ce6c:	48 8d 85 80 e8 ff ff 	lea    -0x1780(%rbp),%rax
    ce73:	48 83 c0 20          	add    $0x20,%rax
    ce77:	48 89 85 f0 f2 ff ff 	mov    %rax,-0xd10(%rbp)
    ce7e:	48 8d 85 80 e8 ff ff 	lea    -0x1780(%rbp),%rax
    ce85:	48 83 c0 08          	add    $0x8,%rax
    ce89:	48 89 85 f8 f2 ff ff 	mov    %rax,-0xd08(%rbp)
    ce90:	48 c7 85 00 f3 ff ff 	movq   $0x0,-0xd00(%rbp)
    ce97:	00 00 00 00 
    ce9b:	48 8d 85 80 e8 ff ff 	lea    -0x1780(%rbp),%rax
    cea2:	48 83 c0 18          	add    $0x18,%rax
    cea6:	48 89 85 08 f3 ff ff 	mov    %rax,-0xcf8(%rbp)
    cead:	48 8d 85 80 e8 ff ff 	lea    -0x1780(%rbp),%rax
    ceb4:	48 83 c0 08          	add    $0x8,%rax
    ceb8:	48 89 85 10 f3 ff ff 	mov    %rax,-0xcf0(%rbp)
    cebf:	48 8d 85 80 e8 ff ff 	lea    -0x1780(%rbp),%rax
    cec6:	48 83 c0 08          	add    $0x8,%rax
    ceca:	48 89 85 18 f3 ff ff 	mov    %rax,-0xce8(%rbp)
    ced1:	48 c7 85 20 f3 ff ff 	movq   $0x0,-0xce0(%rbp)
    ced8:	00 00 00 00 
    cedc:	48 c7 85 28 f3 ff ff 	movq   $0x0,-0xcd8(%rbp)
    cee3:	00 00 00 00 
    cee7:	48 8d 85 80 e8 ff ff 	lea    -0x1780(%rbp),%rax
    ceee:	48 83 c0 18          	add    $0x18,%rax
    cef2:	48 89 85 30 f3 ff ff 	mov    %rax,-0xcd0(%rbp)
    cef9:	48 8d 85 80 e8 ff ff 	lea    -0x1780(%rbp),%rax
    cf00:	48 83 c0 08          	add    $0x8,%rax
    cf04:	48 89 85 38 f3 ff ff 	mov    %rax,-0xcc8(%rbp)
    cf0b:	48 c7 85 40 f3 ff ff 	movq   $0x0,-0xcc0(%rbp)
    cf12:	00 00 00 00 
    cf16:	48 8d 85 80 e8 ff ff 	lea    -0x1780(%rbp),%rax
    cf1d:	48 83 c0 08          	add    $0x8,%rax
    cf21:	48 89 85 48 f3 ff ff 	mov    %rax,-0xcb8(%rbp)
    cf28:	48 8d 85 80 e8 ff ff 	lea    -0x1780(%rbp),%rax
    cf2f:	48 83 c0 08          	add    $0x8,%rax
    cf33:	48 89 85 50 f3 ff ff 	mov    %rax,-0xcb0(%rbp)
    cf3a:	48 c7 85 58 f3 ff ff 	movq   $0x0,-0xca8(%rbp)
    cf41:	00 00 00 00 
    cf45:	48 8d 85 80 e8 ff ff 	lea    -0x1780(%rbp),%rax
    cf4c:	48 83 c0 08          	add    $0x8,%rax
    cf50:	48 89 85 60 f3 ff ff 	mov    %rax,-0xca0(%rbp)
    cf57:	48 8d 85 80 e8 ff ff 	lea    -0x1780(%rbp),%rax
    cf5e:	48 83 c0 28          	add    $0x28,%rax
    cf62:	48 89 85 68 f3 ff ff 	mov    %rax,-0xc98(%rbp)
    cf69:	48 8d 85 80 e8 ff ff 	lea    -0x1780(%rbp),%rax
    cf70:	48 83 c0 20          	add    $0x20,%rax
    cf74:	48 89 85 70 f3 ff ff 	mov    %rax,-0xc90(%rbp)
    cf7b:	48 8d 85 80 e8 ff ff 	lea    -0x1780(%rbp),%rax
    cf82:	48 83 c0 08          	add    $0x8,%rax
    cf86:	48 89 85 78 f3 ff ff 	mov    %rax,-0xc88(%rbp)
    cf8d:	48 8d 85 80 e8 ff ff 	lea    -0x1780(%rbp),%rax
    cf94:	48 83 c0 08          	add    $0x8,%rax
    cf98:	48 89 85 80 f3 ff ff 	mov    %rax,-0xc80(%rbp)
    cf9f:	48 8d 85 80 e8 ff ff 	lea    -0x1780(%rbp),%rax
    cfa6:	48 83 c0 18          	add    $0x18,%rax
    cfaa:	48 89 85 88 f3 ff ff 	mov    %rax,-0xc78(%rbp)
    cfb1:	48 8d 85 80 e8 ff ff 	lea    -0x1780(%rbp),%rax
    cfb8:	48 83 c0 08          	add    $0x8,%rax
    cfbc:	48 89 85 90 f3 ff ff 	mov    %rax,-0xc70(%rbp)
    cfc3:	48 c7 85 98 f3 ff ff 	movq   $0x0,-0xc68(%rbp)
    cfca:	00 00 00 00 
    cfce:	48 8d 85 80 e8 ff ff 	lea    -0x1780(%rbp),%rax
    cfd5:	48 83 c0 28          	add    $0x28,%rax
    cfd9:	48 89 85 a0 f3 ff ff 	mov    %rax,-0xc60(%rbp)
    cfe0:	48 8d 85 80 e8 ff ff 	lea    -0x1780(%rbp),%rax
    cfe7:	48 83 c0 08          	add    $0x8,%rax
    cfeb:	48 89 85 a8 f3 ff ff 	mov    %rax,-0xc58(%rbp)
    cff2:	48 8d 85 80 e8 ff ff 	lea    -0x1780(%rbp),%rax
    cff9:	48 83 c0 08          	add    $0x8,%rax
    cffd:	48 89 85 b0 f3 ff ff 	mov    %rax,-0xc50(%rbp)
    d004:	48 8d 85 80 e8 ff ff 	lea    -0x1780(%rbp),%rax
    d00b:	48 83 c0 08          	add    $0x8,%rax
    d00f:	48 89 85 b8 f3 ff ff 	mov    %rax,-0xc48(%rbp)
    d016:	48 8d 85 80 e8 ff ff 	lea    -0x1780(%rbp),%rax
    d01d:	48 83 c0 18          	add    $0x18,%rax
    d021:	48 89 85 c0 f3 ff ff 	mov    %rax,-0xc40(%rbp)
    d028:	48 8d 85 80 e8 ff ff 	lea    -0x1780(%rbp),%rax
    d02f:	48 83 c0 08          	add    $0x8,%rax
    d033:	48 89 85 c8 f3 ff ff 	mov    %rax,-0xc38(%rbp)
    d03a:	48 8d 85 80 e8 ff ff 	lea    -0x1780(%rbp),%rax
    d041:	48 83 c0 20          	add    $0x20,%rax
    d045:	48 89 85 d0 f3 ff ff 	mov    %rax,-0xc30(%rbp)
    d04c:	48 8d 85 80 e8 ff ff 	lea    -0x1780(%rbp),%rax
    d053:	48 83 c0 08          	add    $0x8,%rax
    d057:	48 89 85 d8 f3 ff ff 	mov    %rax,-0xc28(%rbp)
    d05e:	48 8d 85 80 e8 ff ff 	lea    -0x1780(%rbp),%rax
    d065:	48 83 c0 20          	add    $0x20,%rax
    d069:	48 89 85 e0 f3 ff ff 	mov    %rax,-0xc20(%rbp)
    d070:	48 c7 85 e8 f3 ff ff 	movq   $0x0,-0xc18(%rbp)
    d077:	00 00 00 00 
    d07b:	48 c7 85 f0 f3 ff ff 	movq   $0x0,-0xc10(%rbp)
    d082:	00 00 00 00 
    d086:	48 8d 85 80 e8 ff ff 	lea    -0x1780(%rbp),%rax
    d08d:	48 83 c0 20          	add    $0x20,%rax
    d091:	48 89 85 f8 f3 ff ff 	mov    %rax,-0xc08(%rbp)
    d098:	48 8d 85 80 e8 ff ff 	lea    -0x1780(%rbp),%rax
    d09f:	48 83 c0 18          	add    $0x18,%rax
    d0a3:	48 89 85 00 f4 ff ff 	mov    %rax,-0xc00(%rbp)
    d0aa:	48 8d 85 80 e8 ff ff 	lea    -0x1780(%rbp),%rax
    d0b1:	48 89 85 08 f4 ff ff 	mov    %rax,-0xbf8(%rbp)
    d0b8:	48 8d 85 80 e8 ff ff 	lea    -0x1780(%rbp),%rax
    d0bf:	48 83 c0 08          	add    $0x8,%rax
    d0c3:	48 89 85 10 f4 ff ff 	mov    %rax,-0xbf0(%rbp)
    d0ca:	48 8d 85 80 e8 ff ff 	lea    -0x1780(%rbp),%rax
    d0d1:	48 83 c0 08          	add    $0x8,%rax
    d0d5:	48 89 85 18 f4 ff ff 	mov    %rax,-0xbe8(%rbp)
    d0dc:	48 8d 85 80 e8 ff ff 	lea    -0x1780(%rbp),%rax
    d0e3:	48 83 c0 20          	add    $0x20,%rax
    d0e7:	48 89 85 20 f4 ff ff 	mov    %rax,-0xbe0(%rbp)
    d0ee:	48 8d 85 80 e8 ff ff 	lea    -0x1780(%rbp),%rax
    d0f5:	48 83 c0 08          	add    $0x8,%rax
    d0f9:	48 89 85 28 f4 ff ff 	mov    %rax,-0xbd8(%rbp)
    d100:	48 8d 85 80 e8 ff ff 	lea    -0x1780(%rbp),%rax
    d107:	48 83 c0 08          	add    $0x8,%rax
    d10b:	48 89 85 30 f4 ff ff 	mov    %rax,-0xbd0(%rbp)
    d112:	48 c7 85 38 f4 ff ff 	movq   $0x0,-0xbc8(%rbp)
    d119:	00 00 00 00 
    d11d:	48 c7 85 40 f4 ff ff 	movq   $0x0,-0xbc0(%rbp)
    d124:	00 00 00 00 
    d128:	48 8d 85 80 e8 ff ff 	lea    -0x1780(%rbp),%rax
    d12f:	48 83 c0 08          	add    $0x8,%rax
    d133:	48 89 85 48 f4 ff ff 	mov    %rax,-0xbb8(%rbp)
    d13a:	48 8d 85 80 e8 ff ff 	lea    -0x1780(%rbp),%rax
    d141:	48 83 c0 18          	add    $0x18,%rax
    d145:	48 89 85 50 f4 ff ff 	mov    %rax,-0xbb0(%rbp)
    d14c:	48 8d 85 80 e8 ff ff 	lea    -0x1780(%rbp),%rax
    d153:	48 83 c0 08          	add    $0x8,%rax
    d157:	48 89 85 58 f4 ff ff 	mov    %rax,-0xba8(%rbp)
    d15e:	48 8d 85 80 e8 ff ff 	lea    -0x1780(%rbp),%rax
    d165:	48 83 c0 08          	add    $0x8,%rax
    d169:	48 89 85 60 f4 ff ff 	mov    %rax,-0xba0(%rbp)
    d170:	48 8d 85 80 e8 ff ff 	lea    -0x1780(%rbp),%rax
    d177:	48 83 c0 08          	add    $0x8,%rax
    d17b:	48 89 85 68 f4 ff ff 	mov    %rax,-0xb98(%rbp)
    d182:	48 8d 85 80 e8 ff ff 	lea    -0x1780(%rbp),%rax
    d189:	48 83 c0 28          	add    $0x28,%rax
    d18d:	48 89 85 70 f4 ff ff 	mov    %rax,-0xb90(%rbp)
    d194:	48 8d 85 80 e8 ff ff 	lea    -0x1780(%rbp),%rax
    d19b:	48 83 c0 08          	add    $0x8,%rax
    d19f:	48 89 85 78 f4 ff ff 	mov    %rax,-0xb88(%rbp)
    d1a6:	48 8d 85 80 e8 ff ff 	lea    -0x1780(%rbp),%rax
    d1ad:	48 83 c0 08          	add    $0x8,%rax
    d1b1:	48 89 85 80 f4 ff ff 	mov    %rax,-0xb80(%rbp)
    d1b8:	48 8d 85 80 e8 ff ff 	lea    -0x1780(%rbp),%rax
    d1bf:	48 83 c0 08          	add    $0x8,%rax
    d1c3:	48 89 85 88 f4 ff ff 	mov    %rax,-0xb78(%rbp)
    d1ca:	48 8d 85 80 e8 ff ff 	lea    -0x1780(%rbp),%rax
    d1d1:	48 83 c0 08          	add    $0x8,%rax
    d1d5:	48 89 85 90 f4 ff ff 	mov    %rax,-0xb70(%rbp)
    d1dc:	48 8d 85 80 e8 ff ff 	lea    -0x1780(%rbp),%rax
    d1e3:	48 83 c0 08          	add    $0x8,%rax
    d1e7:	48 89 85 98 f4 ff ff 	mov    %rax,-0xb68(%rbp)
    d1ee:	48 8d 85 80 e8 ff ff 	lea    -0x1780(%rbp),%rax
    d1f5:	48 83 c0 08          	add    $0x8,%rax
    d1f9:	48 89 85 a0 f4 ff ff 	mov    %rax,-0xb60(%rbp)
    d200:	48 8d 85 80 e8 ff ff 	lea    -0x1780(%rbp),%rax
    d207:	48 83 c0 08          	add    $0x8,%rax
    d20b:	48 89 85 a8 f4 ff ff 	mov    %rax,-0xb58(%rbp)
    d212:	48 8d 85 80 e8 ff ff 	lea    -0x1780(%rbp),%rax
    d219:	48 83 c0 18          	add    $0x18,%rax
    d21d:	48 89 85 b0 f4 ff ff 	mov    %rax,-0xb50(%rbp)
    d224:	48 c7 85 b8 f4 ff ff 	movq   $0x0,-0xb48(%rbp)
    d22b:	00 00 00 00 
    d22f:	48 8d 85 80 e8 ff ff 	lea    -0x1780(%rbp),%rax
    d236:	48 83 c0 18          	add    $0x18,%rax
    d23a:	48 89 85 c0 f4 ff ff 	mov    %rax,-0xb40(%rbp)
    d241:	48 c7 85 c8 f4 ff ff 	movq   $0x0,-0xb38(%rbp)
    d248:	00 00 00 00 
    d24c:	48 8d 85 80 e8 ff ff 	lea    -0x1780(%rbp),%rax
    d253:	48 83 c0 18          	add    $0x18,%rax
    d257:	48 89 85 d0 f4 ff ff 	mov    %rax,-0xb30(%rbp)
    d25e:	48 c7 85 d8 f4 ff ff 	movq   $0x0,-0xb28(%rbp)
    d265:	00 00 00 00 
    d269:	48 c7 85 e0 f4 ff ff 	movq   $0x0,-0xb20(%rbp)
    d270:	00 00 00 00 
    d274:	48 8d 85 80 e8 ff ff 	lea    -0x1780(%rbp),%rax
    d27b:	48 83 c0 20          	add    $0x20,%rax
    d27f:	48 89 85 e8 f4 ff ff 	mov    %rax,-0xb18(%rbp)
    d286:	48 8d 85 80 e8 ff ff 	lea    -0x1780(%rbp),%rax
    d28d:	48 83 c0 20          	add    $0x20,%rax
    d291:	48 89 85 f0 f4 ff ff 	mov    %rax,-0xb10(%rbp)
    d298:	48 8d 85 80 e8 ff ff 	lea    -0x1780(%rbp),%rax
    d29f:	48 83 c0 18          	add    $0x18,%rax
    d2a3:	48 89 85 f8 f4 ff ff 	mov    %rax,-0xb08(%rbp)
    d2aa:	48 8d 85 80 e8 ff ff 	lea    -0x1780(%rbp),%rax
    d2b1:	48 83 c0 08          	add    $0x8,%rax
    d2b5:	48 89 85 00 f5 ff ff 	mov    %rax,-0xb00(%rbp)
    d2bc:	48 8d 85 80 e8 ff ff 	lea    -0x1780(%rbp),%rax
    d2c3:	48 83 c0 08          	add    $0x8,%rax
    d2c7:	48 89 85 08 f5 ff ff 	mov    %rax,-0xaf8(%rbp)
    d2ce:	48 8d 85 80 e8 ff ff 	lea    -0x1780(%rbp),%rax
    d2d5:	48 83 c0 08          	add    $0x8,%rax
    d2d9:	48 89 85 10 f5 ff ff 	mov    %rax,-0xaf0(%rbp)
    d2e0:	48 c7 85 18 f5 ff ff 	movq   $0x0,-0xae8(%rbp)
    d2e7:	00 00 00 00 
    d2eb:	48 8d 85 80 e8 ff ff 	lea    -0x1780(%rbp),%rax
    d2f2:	48 83 c0 28          	add    $0x28,%rax
    d2f6:	48 89 85 20 f5 ff ff 	mov    %rax,-0xae0(%rbp)
    d2fd:	48 8d 85 80 e8 ff ff 	lea    -0x1780(%rbp),%rax
    d304:	48 83 c0 08          	add    $0x8,%rax
    d308:	48 89 85 28 f5 ff ff 	mov    %rax,-0xad8(%rbp)
    d30f:	48 8d 85 80 e8 ff ff 	lea    -0x1780(%rbp),%rax
    d316:	48 83 c0 18          	add    $0x18,%rax
    d31a:	48 89 85 30 f5 ff ff 	mov    %rax,-0xad0(%rbp)
    d321:	48 8d 85 80 e8 ff ff 	lea    -0x1780(%rbp),%rax
    d328:	48 83 c0 18          	add    $0x18,%rax
    d32c:	48 89 85 38 f5 ff ff 	mov    %rax,-0xac8(%rbp)
    d333:	48 8d 85 80 e8 ff ff 	lea    -0x1780(%rbp),%rax
    d33a:	48 83 c0 08          	add    $0x8,%rax
    d33e:	48 89 85 40 f5 ff ff 	mov    %rax,-0xac0(%rbp)
    d345:	48 8d 85 80 e8 ff ff 	lea    -0x1780(%rbp),%rax
    d34c:	48 83 c0 08          	add    $0x8,%rax
    d350:	48 89 85 48 f5 ff ff 	mov    %rax,-0xab8(%rbp)
    d357:	48 8d 85 80 e8 ff ff 	lea    -0x1780(%rbp),%rax
    d35e:	48 83 c0 20          	add    $0x20,%rax
    d362:	48 89 85 50 f5 ff ff 	mov    %rax,-0xab0(%rbp)
    d369:	48 8d 85 80 e8 ff ff 	lea    -0x1780(%rbp),%rax
    d370:	48 83 c0 18          	add    $0x18,%rax
    d374:	48 89 85 58 f5 ff ff 	mov    %rax,-0xaa8(%rbp)
    d37b:	48 8d 85 80 e8 ff ff 	lea    -0x1780(%rbp),%rax
    d382:	48 83 c0 18          	add    $0x18,%rax
    d386:	48 89 85 60 f5 ff ff 	mov    %rax,-0xaa0(%rbp)
    d38d:	48 c7 85 68 f5 ff ff 	movq   $0x0,-0xa98(%rbp)
    d394:	00 00 00 00 
    d398:	48 c7 85 70 f5 ff ff 	movq   $0x0,-0xa90(%rbp)
    d39f:	00 00 00 00 
    d3a3:	48 c7 85 78 f5 ff ff 	movq   $0x0,-0xa88(%rbp)
    d3aa:	00 00 00 00 
    d3ae:	48 c7 85 80 f5 ff ff 	movq   $0x0,-0xa80(%rbp)
    d3b5:	00 00 00 00 
    d3b9:	48 8d 85 80 e8 ff ff 	lea    -0x1780(%rbp),%rax
    d3c0:	48 83 c0 20          	add    $0x20,%rax
    d3c4:	48 89 85 88 f5 ff ff 	mov    %rax,-0xa78(%rbp)
    d3cb:	48 8d 85 80 e8 ff ff 	lea    -0x1780(%rbp),%rax
    d3d2:	48 83 c0 08          	add    $0x8,%rax
    d3d6:	48 89 85 90 f5 ff ff 	mov    %rax,-0xa70(%rbp)
    d3dd:	48 c7 85 98 f5 ff ff 	movq   $0x0,-0xa68(%rbp)
    d3e4:	00 00 00 00 
    d3e8:	48 8d 85 80 e8 ff ff 	lea    -0x1780(%rbp),%rax
    d3ef:	48 89 85 a0 f5 ff ff 	mov    %rax,-0xa60(%rbp)
    d3f6:	48 8d 85 80 e8 ff ff 	lea    -0x1780(%rbp),%rax
    d3fd:	48 83 c0 20          	add    $0x20,%rax
    d401:	48 89 85 a8 f5 ff ff 	mov    %rax,-0xa58(%rbp)
    d408:	48 8d 85 80 e8 ff ff 	lea    -0x1780(%rbp),%rax
    d40f:	48 83 c0 08          	add    $0x8,%rax
    d413:	48 89 85 b0 f5 ff ff 	mov    %rax,-0xa50(%rbp)
    d41a:	48 c7 85 b8 f5 ff ff 	movq   $0x0,-0xa48(%rbp)
    d421:	00 00 00 00 
    d425:	48 8d 85 80 e8 ff ff 	lea    -0x1780(%rbp),%rax
    d42c:	48 83 c0 18          	add    $0x18,%rax
    d430:	48 89 85 c0 f5 ff ff 	mov    %rax,-0xa40(%rbp)
    d437:	48 8d 85 80 e8 ff ff 	lea    -0x1780(%rbp),%rax
    d43e:	48 83 c0 08          	add    $0x8,%rax
    d442:	48 89 85 c8 f5 ff ff 	mov    %rax,-0xa38(%rbp)
    d449:	48 8d 85 80 e8 ff ff 	lea    -0x1780(%rbp),%rax
    d450:	48 83 c0 08          	add    $0x8,%rax
    d454:	48 89 85 d0 f5 ff ff 	mov    %rax,-0xa30(%rbp)
    d45b:	48 c7 85 d8 f5 ff ff 	movq   $0x0,-0xa28(%rbp)
    d462:	00 00 00 00 
    d466:	48 c7 85 e0 f5 ff ff 	movq   $0x0,-0xa20(%rbp)
    d46d:	00 00 00 00 
    d471:	48 8d 85 80 e8 ff ff 	lea    -0x1780(%rbp),%rax
    d478:	48 83 c0 18          	add    $0x18,%rax
    d47c:	48 89 85 e8 f5 ff ff 	mov    %rax,-0xa18(%rbp)
    d483:	48 8d 85 80 e8 ff ff 	lea    -0x1780(%rbp),%rax
    d48a:	48 83 c0 08          	add    $0x8,%rax
    d48e:	48 89 85 f0 f5 ff ff 	mov    %rax,-0xa10(%rbp)
    d495:	48 c7 85 f8 f5 ff ff 	movq   $0x0,-0xa08(%rbp)
    d49c:	00 00 00 00 
    d4a0:	48 8d 85 80 e8 ff ff 	lea    -0x1780(%rbp),%rax
    d4a7:	48 83 c0 08          	add    $0x8,%rax
    d4ab:	48 89 85 00 f6 ff ff 	mov    %rax,-0xa00(%rbp)
    d4b2:	48 8d 85 80 e8 ff ff 	lea    -0x1780(%rbp),%rax
    d4b9:	48 83 c0 08          	add    $0x8,%rax
    d4bd:	48 89 85 08 f6 ff ff 	mov    %rax,-0x9f8(%rbp)
    d4c4:	48 c7 85 10 f6 ff ff 	movq   $0x0,-0x9f0(%rbp)
    d4cb:	00 00 00 00 
    d4cf:	48 8d 85 80 e8 ff ff 	lea    -0x1780(%rbp),%rax
    d4d6:	48 83 c0 08          	add    $0x8,%rax
    d4da:	48 89 85 18 f6 ff ff 	mov    %rax,-0x9e8(%rbp)
    d4e1:	48 8d 85 80 e8 ff ff 	lea    -0x1780(%rbp),%rax
    d4e8:	48 83 c0 28          	add    $0x28,%rax
    d4ec:	48 89 85 20 f6 ff ff 	mov    %rax,-0x9e0(%rbp)
    d4f3:	48 8d 85 80 e8 ff ff 	lea    -0x1780(%rbp),%rax
    d4fa:	48 83 c0 20          	add    $0x20,%rax
    d4fe:	48 89 85 28 f6 ff ff 	mov    %rax,-0x9d8(%rbp)
    d505:	48 8d 85 80 e8 ff ff 	lea    -0x1780(%rbp),%rax
    d50c:	48 83 c0 08          	add    $0x8,%rax
    d510:	48 89 85 30 f6 ff ff 	mov    %rax,-0x9d0(%rbp)
    d517:	48 8d 85 80 e8 ff ff 	lea    -0x1780(%rbp),%rax
    d51e:	48 83 c0 08          	add    $0x8,%rax
    d522:	48 89 85 38 f6 ff ff 	mov    %rax,-0x9c8(%rbp)
    d529:	48 8d 85 80 e8 ff ff 	lea    -0x1780(%rbp),%rax
    d530:	48 83 c0 18          	add    $0x18,%rax
    d534:	48 89 85 40 f6 ff ff 	mov    %rax,-0x9c0(%rbp)
    d53b:	48 8d 85 80 e8 ff ff 	lea    -0x1780(%rbp),%rax
    d542:	48 83 c0 08          	add    $0x8,%rax
    d546:	48 89 85 48 f6 ff ff 	mov    %rax,-0x9b8(%rbp)
    d54d:	48 c7 85 50 f6 ff ff 	movq   $0x0,-0x9b0(%rbp)
    d554:	00 00 00 00 
    d558:	48 8d 85 80 e8 ff ff 	lea    -0x1780(%rbp),%rax
    d55f:	48 83 c0 28          	add    $0x28,%rax
    d563:	48 89 85 58 f6 ff ff 	mov    %rax,-0x9a8(%rbp)
    d56a:	48 8d 85 80 e8 ff ff 	lea    -0x1780(%rbp),%rax
    d571:	48 83 c0 08          	add    $0x8,%rax
    d575:	48 89 85 60 f6 ff ff 	mov    %rax,-0x9a0(%rbp)
    d57c:	48 8d 85 80 e8 ff ff 	lea    -0x1780(%rbp),%rax
    d583:	48 83 c0 08          	add    $0x8,%rax
    d587:	48 89 85 68 f6 ff ff 	mov    %rax,-0x998(%rbp)
    d58e:	48 8d 85 80 e8 ff ff 	lea    -0x1780(%rbp),%rax
    d595:	48 83 c0 08          	add    $0x8,%rax
    d599:	48 89 85 70 f6 ff ff 	mov    %rax,-0x990(%rbp)
    d5a0:	48 8d 85 80 e8 ff ff 	lea    -0x1780(%rbp),%rax
    d5a7:	48 83 c0 18          	add    $0x18,%rax
    d5ab:	48 89 85 78 f6 ff ff 	mov    %rax,-0x988(%rbp)
    d5b2:	48 8d 85 80 e8 ff ff 	lea    -0x1780(%rbp),%rax
    d5b9:	48 83 c0 08          	add    $0x8,%rax
    d5bd:	48 89 85 80 f6 ff ff 	mov    %rax,-0x980(%rbp)
    d5c4:	48 8d 85 80 e8 ff ff 	lea    -0x1780(%rbp),%rax
    d5cb:	48 83 c0 20          	add    $0x20,%rax
    d5cf:	48 89 85 88 f6 ff ff 	mov    %rax,-0x978(%rbp)
    d5d6:	48 8d 85 80 e8 ff ff 	lea    -0x1780(%rbp),%rax
    d5dd:	48 83 c0 08          	add    $0x8,%rax
    d5e1:	48 89 85 90 f6 ff ff 	mov    %rax,-0x970(%rbp)
    d5e8:	48 8d 85 80 e8 ff ff 	lea    -0x1780(%rbp),%rax
    d5ef:	48 83 c0 20          	add    $0x20,%rax
    d5f3:	48 89 85 98 f6 ff ff 	mov    %rax,-0x968(%rbp)
    d5fa:	48 c7 85 a0 f6 ff ff 	movq   $0x0,-0x960(%rbp)
    d601:	00 00 00 00 
    d605:	48 c7 85 a8 f6 ff ff 	movq   $0x0,-0x958(%rbp)
    d60c:	00 00 00 00 
    d610:	48 8d 85 80 e8 ff ff 	lea    -0x1780(%rbp),%rax
    d617:	48 83 c0 20          	add    $0x20,%rax
    d61b:	48 89 85 b0 f6 ff ff 	mov    %rax,-0x950(%rbp)
    d622:	48 8d 85 80 e8 ff ff 	lea    -0x1780(%rbp),%rax
    d629:	48 83 c0 18          	add    $0x18,%rax
    d62d:	48 89 85 b8 f6 ff ff 	mov    %rax,-0x948(%rbp)
    d634:	48 8d 85 80 e8 ff ff 	lea    -0x1780(%rbp),%rax
    d63b:	48 89 85 c0 f6 ff ff 	mov    %rax,-0x940(%rbp)
    d642:	48 8d 85 80 e8 ff ff 	lea    -0x1780(%rbp),%rax
    d649:	48 83 c0 08          	add    $0x8,%rax
    d64d:	48 89 85 c8 f6 ff ff 	mov    %rax,-0x938(%rbp)
    d654:	48 8d 85 80 e8 ff ff 	lea    -0x1780(%rbp),%rax
    d65b:	48 83 c0 08          	add    $0x8,%rax
    d65f:	48 89 85 d0 f6 ff ff 	mov    %rax,-0x930(%rbp)
    d666:	48 8d 85 80 e8 ff ff 	lea    -0x1780(%rbp),%rax
    d66d:	48 83 c0 20          	add    $0x20,%rax
    d671:	48 89 85 d8 f6 ff ff 	mov    %rax,-0x928(%rbp)
    d678:	48 8d 85 80 e8 ff ff 	lea    -0x1780(%rbp),%rax
    d67f:	48 83 c0 08          	add    $0x8,%rax
    d683:	48 89 85 e0 f6 ff ff 	mov    %rax,-0x920(%rbp)
    d68a:	48 8d 85 80 e8 ff ff 	lea    -0x1780(%rbp),%rax
    d691:	48 83 c0 08          	add    $0x8,%rax
    d695:	48 89 85 e8 f6 ff ff 	mov    %rax,-0x918(%rbp)
    d69c:	48 c7 85 f0 f6 ff ff 	movq   $0x0,-0x910(%rbp)
    d6a3:	00 00 00 00 
    d6a7:	48 c7 85 f8 f6 ff ff 	movq   $0x0,-0x908(%rbp)
    d6ae:	00 00 00 00 
    d6b2:	48 8d 85 80 e8 ff ff 	lea    -0x1780(%rbp),%rax
    d6b9:	48 83 c0 08          	add    $0x8,%rax
    d6bd:	48 89 85 00 f7 ff ff 	mov    %rax,-0x900(%rbp)
    d6c4:	48 8d 85 80 e8 ff ff 	lea    -0x1780(%rbp),%rax
    d6cb:	48 83 c0 18          	add    $0x18,%rax
    d6cf:	48 89 85 08 f7 ff ff 	mov    %rax,-0x8f8(%rbp)
    d6d6:	48 8d 85 80 e8 ff ff 	lea    -0x1780(%rbp),%rax
    d6dd:	48 83 c0 08          	add    $0x8,%rax
    d6e1:	48 89 85 10 f7 ff ff 	mov    %rax,-0x8f0(%rbp)
    d6e8:	48 8d 85 80 e8 ff ff 	lea    -0x1780(%rbp),%rax
    d6ef:	48 83 c0 08          	add    $0x8,%rax
    d6f3:	48 89 85 18 f7 ff ff 	mov    %rax,-0x8e8(%rbp)
    d6fa:	48 8d 85 80 e8 ff ff 	lea    -0x1780(%rbp),%rax
    d701:	48 83 c0 08          	add    $0x8,%rax
    d705:	48 89 85 20 f7 ff ff 	mov    %rax,-0x8e0(%rbp)
    d70c:	48 8d 85 80 e8 ff ff 	lea    -0x1780(%rbp),%rax
    d713:	48 83 c0 28          	add    $0x28,%rax
    d717:	48 89 85 28 f7 ff ff 	mov    %rax,-0x8d8(%rbp)
    d71e:	48 8d 85 80 e8 ff ff 	lea    -0x1780(%rbp),%rax
    d725:	48 83 c0 08          	add    $0x8,%rax
    d729:	48 89 85 30 f7 ff ff 	mov    %rax,-0x8d0(%rbp)
    d730:	48 8d 85 80 e8 ff ff 	lea    -0x1780(%rbp),%rax
    d737:	48 83 c0 08          	add    $0x8,%rax
    d73b:	48 89 85 38 f7 ff ff 	mov    %rax,-0x8c8(%rbp)
    d742:	48 8d 85 80 e8 ff ff 	lea    -0x1780(%rbp),%rax
    d749:	48 83 c0 08          	add    $0x8,%rax
    d74d:	48 89 85 40 f7 ff ff 	mov    %rax,-0x8c0(%rbp)
    d754:	48 8d 85 80 e8 ff ff 	lea    -0x1780(%rbp),%rax
    d75b:	48 83 c0 08          	add    $0x8,%rax
    d75f:	48 89 85 48 f7 ff ff 	mov    %rax,-0x8b8(%rbp)
    d766:	48 8d 85 80 e8 ff ff 	lea    -0x1780(%rbp),%rax
    d76d:	48 83 c0 08          	add    $0x8,%rax
    d771:	48 89 85 50 f7 ff ff 	mov    %rax,-0x8b0(%rbp)
    d778:	48 8d 85 80 e8 ff ff 	lea    -0x1780(%rbp),%rax
    d77f:	48 83 c0 08          	add    $0x8,%rax
    d783:	48 89 85 58 f7 ff ff 	mov    %rax,-0x8a8(%rbp)
    d78a:	48 8d 85 80 e8 ff ff 	lea    -0x1780(%rbp),%rax
    d791:	48 83 c0 08          	add    $0x8,%rax
    d795:	48 89 85 60 f7 ff ff 	mov    %rax,-0x8a0(%rbp)
    d79c:	48 8d 85 80 e8 ff ff 	lea    -0x1780(%rbp),%rax
    d7a3:	48 83 c0 18          	add    $0x18,%rax
    d7a7:	48 89 85 68 f7 ff ff 	mov    %rax,-0x898(%rbp)
    d7ae:	48 c7 85 70 f7 ff ff 	movq   $0x0,-0x890(%rbp)
    d7b5:	00 00 00 00 
    d7b9:	48 8d 85 80 e8 ff ff 	lea    -0x1780(%rbp),%rax
    d7c0:	48 83 c0 18          	add    $0x18,%rax
    d7c4:	48 89 85 78 f7 ff ff 	mov    %rax,-0x888(%rbp)
    d7cb:	48 c7 85 80 f7 ff ff 	movq   $0x0,-0x880(%rbp)
    d7d2:	00 00 00 00 
    d7d6:	48 8d 85 80 e8 ff ff 	lea    -0x1780(%rbp),%rax
    d7dd:	48 83 c0 18          	add    $0x18,%rax
    d7e1:	48 89 85 88 f7 ff ff 	mov    %rax,-0x878(%rbp)
    d7e8:	48 c7 85 90 f7 ff ff 	movq   $0x0,-0x870(%rbp)
    d7ef:	00 00 00 00 
    d7f3:	48 c7 85 98 f7 ff ff 	movq   $0x0,-0x868(%rbp)
    d7fa:	00 00 00 00 
    d7fe:	48 8d 85 80 e8 ff ff 	lea    -0x1780(%rbp),%rax
    d805:	48 83 c0 20          	add    $0x20,%rax
    d809:	48 89 85 a0 f7 ff ff 	mov    %rax,-0x860(%rbp)
    d810:	48 8d 85 80 e8 ff ff 	lea    -0x1780(%rbp),%rax
    d817:	48 83 c0 20          	add    $0x20,%rax
    d81b:	48 89 85 a8 f7 ff ff 	mov    %rax,-0x858(%rbp)
    d822:	48 8d 85 80 e8 ff ff 	lea    -0x1780(%rbp),%rax
    d829:	48 83 c0 18          	add    $0x18,%rax
    d82d:	48 89 85 b0 f7 ff ff 	mov    %rax,-0x850(%rbp)
    d834:	48 8d 85 80 e8 ff ff 	lea    -0x1780(%rbp),%rax
    d83b:	48 83 c0 08          	add    $0x8,%rax
    d83f:	48 89 85 b8 f7 ff ff 	mov    %rax,-0x848(%rbp)
    d846:	48 8d 85 80 e8 ff ff 	lea    -0x1780(%rbp),%rax
    d84d:	48 83 c0 08          	add    $0x8,%rax
    d851:	48 89 85 c0 f7 ff ff 	mov    %rax,-0x840(%rbp)
    d858:	48 8d 85 40 ec ff ff 	lea    -0x13c0(%rbp),%rax
    d85f:	48 8d 15 5a b9 00 00 	lea    0xb95a(%rip),%rdx        # 191c0 <g_3087+0x138>
    d866:	b9 7e 00 00 00       	mov    $0x7e,%ecx
    d86b:	48 89 c7             	mov    %rax,%rdi
    d86e:	48 89 d6             	mov    %rdx,%rsi
    d871:	f3 48 a5             	rep movsq %ds:(%rsi),%es:(%rdi)
    d874:	c7 85 58 e6 ff ff 00 	movl   $0x0,-0x19a8(%rbp)
    d87b:	00 00 00 
    d87e:	c6 85 75 e5 ff ff 0a 	movb   $0xa,-0x1a8b(%rbp)
    d885:	66 c7 85 8a e5 ff ff 	movw   $0xffff,-0x1a76(%rbp)
    d88c:	ff ff 
    d88e:	c7 85 5c e6 ff ff 00 	movl   $0x0,-0x19a4(%rbp)
    d895:	00 00 00 
    d898:	c7 85 60 e6 ff ff ff 	movl   $0xffffffff,-0x19a0(%rbp)
    d89f:	ff ff ff 
    d8a2:	c6 85 76 e5 ff ff ff 	movb   $0xff,-0x1a8a(%rbp)
    d8a9:	48 8d 85 80 e6 ff ff 	lea    -0x1980(%rbp),%rax
    d8b0:	48 89 85 30 e8 ff ff 	mov    %rax,-0x17d0(%rbp)
    d8b7:	c7 85 64 e6 ff ff 00 	movl   $0x0,-0x199c(%rbp)
    d8be:	00 00 00 
    d8c1:	c6 85 77 e5 ff ff fd 	movb   $0xfd,-0x1a89(%rbp)
    d8c8:	48 c7 85 38 e8 ff ff 	movq   $0x0,-0x17c8(%rbp)
    d8cf:	00 00 00 00 
    d8d3:	48 8d 05 16 f9 00 00 	lea    0xf916(%rip),%rax        # 1d1f0 <g_190+0x30>
    d8da:	48 89 85 40 e8 ff ff 	mov    %rax,-0x17c0(%rbp)
    d8e1:	c7 85 d8 e5 ff ff 00 	movl   $0x0,-0x1a28(%rbp)
    d8e8:	00 00 00 
    d8eb:	eb 1e                	jmp    d90b <func_1+0x4156>
    d8ed:	8b 85 d8 e5 ff ff    	mov    -0x1a28(%rbp),%eax
    d8f3:	48 98                	cltq   
    d8f5:	48 8d 15 bc f9 00 00 	lea    0xf9bc(%rip),%rdx        # 1d2b8 <g_375>
    d8fc:	48 89 94 c5 b0 e8 ff 	mov    %rdx,-0x1750(%rbp,%rax,8)
    d903:	ff 
    d904:	83 85 d8 e5 ff ff 01 	addl   $0x1,-0x1a28(%rbp)
    d90b:	83 bd d8 e5 ff ff 06 	cmpl   $0x6,-0x1a28(%rbp)
    d912:	7e d9                	jle    d8ed <func_1+0x4138>
    d914:	83 85 e0 e5 ff ff 01 	addl   $0x1,-0x1a20(%rbp)
    d91b:	83 bd e0 e5 ff ff 24 	cmpl   $0x24,-0x1a20(%rbp)
    d922:	0f 86 00 ef ff ff    	jbe    c828 <func_1+0x3073>
    d928:	48 8b 85 d8 e6 ff ff 	mov    -0x1928(%rbp),%rax
    d92f:	48 8b 00             	mov    (%rax),%rax
    d932:	48 8b 00             	mov    (%rax),%rax
    d935:	48 8b 00             	mov    (%rax),%rax
    d938:	8b 00                	mov    (%rax),%eax
    d93a:	48 8b 5d c8          	mov    -0x38(%rbp),%rbx
    d93e:	64 48 33 1c 25 28 00 	xor    %fs:0x28,%rbx
    d945:	00 00 
    d947:	74 05                	je     d94e <func_1+0x4199>
    d949:	e8 22 a7 ff ff       	callq  8070 <__stack_chk_fail@plt>
    d94e:	48 81 c4 88 1a 00 00 	add    $0x1a88,%rsp
    d955:	5b                   	pop    %rbx
    d956:	41 5c                	pop    %r12
    d958:	41 5d                	pop    %r13
    d95a:	41 5e                	pop    %r14
    d95c:	41 5f                	pop    %r15
    d95e:	5d                   	pop    %rbp
    d95f:	c3                   	retq   

000000000000d960 <func_2>:
    d960:	f3 0f 1e fa          	endbr64 
    d964:	55                   	push   %rbp
    d965:	48 89 e5             	mov    %rsp,%rbp
    d968:	41 57                	push   %r15
    d96a:	41 56                	push   %r14
    d96c:	41 55                	push   %r13
    d96e:	41 54                	push   %r12
    d970:	53                   	push   %rbx
    d971:	48 81 ec 78 06 00 00 	sub    $0x678,%rsp
    d978:	89 bd 6c f9 ff ff    	mov    %edi,-0x694(%rbp)
    d97e:	89 f0                	mov    %esi,%eax
    d980:	66 89 85 68 f9 ff ff 	mov    %ax,-0x698(%rbp)
    d987:	64 48 8b 04 25 28 00 	mov    %fs:0x28,%rax
    d98e:	00 00 
    d990:	48 89 45 c8          	mov    %rax,-0x38(%rbp)
    d994:	31 c0                	xor    %eax,%eax
    d996:	c7 85 80 f9 ff ff 06 	movl   $0x6,-0x680(%rbp)
    d99d:	00 00 00 
    d9a0:	c7 85 84 f9 ff ff 06 	movl   $0x6,-0x67c(%rbp)
    d9a7:	00 00 00 
    d9aa:	c7 85 88 f9 ff ff 06 	movl   $0x6,-0x678(%rbp)
    d9b1:	00 00 00 
    d9b4:	c7 85 8c f9 ff ff 06 	movl   $0x6,-0x674(%rbp)
    d9bb:	00 00 00 
    d9be:	c7 85 90 f9 ff ff 06 	movl   $0x6,-0x670(%rbp)
    d9c5:	00 00 00 
    d9c8:	48 8d 85 c0 f9 ff ff 	lea    -0x640(%rbp),%rax
    d9cf:	48 8d 15 8a 03 01 00 	lea    0x1038a(%rip),%rdx        # 1dd60 <g_3976+0x210>
    d9d6:	b9 c0 00 00 00       	mov    $0xc0,%ecx
    d9db:	48 89 c7             	mov    %rax,%rdi
    d9de:	48 89 d6             	mov    %rdx,%rsi
    d9e1:	f3 48 a5             	rep movsq %ds:(%rsi),%es:(%rdi)
    d9e4:	66 c7 85 7a f9 ff ff 	movw   $0x1,-0x686(%rbp)
    d9eb:	01 00 
    d9ed:	c7 85 7c f9 ff ff 00 	movl   $0x0,-0x684(%rbp)
    d9f4:	00 00 00 
    d9f7:	eb 1b                	jmp    da14 <func_2+0xb4>
    d9f9:	8b 85 7c f9 ff ff    	mov    -0x684(%rbp),%eax
    d9ff:	48 98                	cltq   
    da01:	48 c7 84 c5 a0 f9 ff 	movq   $0x0,-0x660(%rbp,%rax,8)
    da08:	ff 00 00 00 00 
    da0d:	83 85 7c f9 ff ff 01 	addl   $0x1,-0x684(%rbp)
    da14:	83 bd 7c f9 ff ff 02 	cmpl   $0x2,-0x684(%rbp)
    da1b:	7e dc                	jle    d9f9 <func_2+0x99>
    da1d:	8b 05 01 f6 00 00    	mov    0xf601(%rip),%eax        # 1d024 <g_5>
    da23:	48 98                	cltq   
    da25:	48 89 85 60 f9 ff ff 	mov    %rax,-0x6a0(%rbp)
    da2c:	8b 05 f2 f5 00 00    	mov    0xf5f2(%rip),%eax        # 1d024 <g_5>
    da32:	44 0f b6 e8          	movzbl %al,%r13d
    da36:	8b 85 6c f9 ff ff    	mov    -0x694(%rbp),%eax
    da3c:	44 0f b6 e0          	movzbl %al,%r12d
    da40:	8b 85 6c f9 ff ff    	mov    -0x694(%rbp),%eax
    da46:	0f b7 d8             	movzwl %ax,%ebx
    da49:	44 8b 35 d4 f5 00 00 	mov    0xf5d4(%rip),%r14d        # 1d024 <g_5>
    da50:	44 8b bd 84 f9 ff ff 	mov    -0x67c(%rbp),%r15d
    da57:	8b 85 88 f9 ff ff    	mov    -0x678(%rbp),%eax
    da5d:	89 c2                	mov    %eax,%edx
    da5f:	8b 85 90 f9 ff ff    	mov    -0x670(%rbp),%eax
    da65:	89 c0                	mov    %eax,%eax
    da67:	89 d6                	mov    %edx,%esi
    da69:	48 89 c7             	mov    %rax,%rdi
    da6c:	e8 fa 03 00 00       	callq  de6b <func_20>
    da71:	8b 15 ad f5 00 00    	mov    0xf5ad(%rip),%edx        # 1d024 <g_5>
    da77:	39 d0                	cmp    %edx,%eax
    da79:	0f 94 c0             	sete   %al
    da7c:	0f b6 c0             	movzbl %al,%eax
    da7f:	41 39 c7             	cmp    %eax,%r15d
    da82:	8b 05 9c f5 00 00    	mov    0xf59c(%rip),%eax        # 1d024 <g_5>
    da88:	48 98                	cltq   
    da8a:	8b 95 84 f9 ff ff    	mov    -0x67c(%rbp),%edx
    da90:	89 d2                	mov    %edx,%edx
    da92:	81 e2 b6 00 00 00    	and    $0xb6,%edx
    da98:	48 39 d0             	cmp    %rdx,%rax
    da9b:	0f 95 c0             	setne  %al
    da9e:	0f b6 d0             	movzbl %al,%edx
    daa1:	0f b7 85 68 f9 ff ff 	movzwl -0x698(%rbp),%eax
    daa8:	39 c2                	cmp    %eax,%edx
    daaa:	8b 85 84 f9 ff ff    	mov    -0x67c(%rbp),%eax
    dab0:	8b 15 72 f5 00 00    	mov    0xf572(%rip),%edx        # 1d028 <g_25>
    dab6:	31 d0                	xor    %edx,%eax
    dab8:	89 05 6a f5 00 00    	mov    %eax,0xf56a(%rip)        # 1d028 <g_25>
    dabe:	8b 05 64 f5 00 00    	mov    0xf564(%rip),%eax        # 1d028 <g_25>
    dac4:	44 89 f6             	mov    %r14d,%esi
    dac7:	89 c7                	mov    %eax,%edi
    dac9:	e8 e8 aa ff ff       	callq  85b6 <safe_add_func_int32_t_s_s>
    dace:	48 8b 15 83 f5 00 00 	mov    0xf583(%rip),%rdx        # 1d058 <g_27+0x18>
    dad5:	48 98                	cltq   
    dad7:	48 09 d0             	or     %rdx,%rax
    dada:	48 89 05 77 f5 00 00 	mov    %rax,0xf577(%rip)        # 1d058 <g_27+0x18>
    dae1:	48 8b 05 70 f5 00 00 	mov    0xf570(%rip),%rax        # 1d058 <g_27+0x18>
    dae8:	48 89 c7             	mov    %rax,%rdi
    daeb:	e8 29 b5 ff ff       	callq  9019 <safe_unary_minus_func_uint64_t_u>
    daf0:	0f b6 c0             	movzbl %al,%eax
    daf3:	4c 8b 85 60 f9 ff ff 	mov    -0x6a0(%rbp),%r8
    dafa:	44 89 e9             	mov    %r13d,%ecx
    dafd:	44 89 e2             	mov    %r12d,%edx
    db00:	89 de                	mov    %ebx,%esi
    db02:	89 c7                	mov    %eax,%edi
    db04:	e8 16 01 00 00       	callq  dc1f <func_11>
    db09:	66 33 85 68 f9 ff ff 	xor    -0x698(%rbp),%ax
    db10:	0f bf d0             	movswl %ax,%edx
    db13:	8b 85 84 f9 ff ff    	mov    -0x67c(%rbp),%eax
    db19:	98                   	cwtl   
    db1a:	89 d6                	mov    %edx,%esi
    db1c:	89 c7                	mov    %eax,%edi
    db1e:	e8 b0 a8 ff ff       	callq  83d3 <safe_sub_func_int16_t_s_s>
    db23:	98                   	cwtl   
    db24:	89 c7                	mov    %eax,%edi
    db26:	e8 43 00 00 00       	callq  db6e <func_6>
    db2b:	89 c2                	mov    %eax,%edx
    db2d:	48 8b 05 d4 1e 01 00 	mov    0x11ed4(%rip),%rax        # 1fa08 <g_1640>
    db34:	8b 08                	mov    (%rax),%ecx
    db36:	48 8b 05 cb 1e 01 00 	mov    0x11ecb(%rip),%rax        # 1fa08 <g_1640>
    db3d:	09 ca                	or     %ecx,%edx
    db3f:	89 10                	mov    %edx,(%rax)
    db41:	0f b7 85 7a f9 ff ff 	movzwl -0x686(%rbp),%eax
    db48:	48 8b 5d c8          	mov    -0x38(%rbp),%rbx
    db4c:	64 48 33 1c 25 28 00 	xor    %fs:0x28,%rbx
    db53:	00 00 
    db55:	74 05                	je     db5c <func_2+0x1fc>
    db57:	e8 14 a5 ff ff       	callq  8070 <__stack_chk_fail@plt>
    db5c:	48 81 c4 78 06 00 00 	add    $0x678,%rsp
    db63:	5b                   	pop    %rbx
    db64:	41 5c                	pop    %r12
    db66:	41 5d                	pop    %r13
    db68:	41 5e                	pop    %r14
    db6a:	41 5f                	pop    %r15
    db6c:	5d                   	pop    %rbp
    db6d:	c3                   	retq   

000000000000db6e <func_6>:
    db6e:	f3 0f 1e fa          	endbr64 
    db72:	55                   	push   %rbp
    db73:	48 89 e5             	mov    %rsp,%rbp
    db76:	48 83 ec 28          	sub    $0x28,%rsp
    db7a:	89 7d dc             	mov    %edi,-0x24(%rbp)
    db7d:	48 8d 05 f4 14 01 00 	lea    0x114f4(%rip),%rax        # 1f078 <g_1180+0x38>
    db84:	48 89 45 f0          	mov    %rax,-0x10(%rbp)
    db88:	48 8d 05 11 f5 00 00 	lea    0xf511(%rip),%rax        # 1d0a0 <g_89>
    db8f:	48 89 45 f8          	mov    %rax,-0x8(%rbp)
    db93:	c7 45 ec 13 7f ef 32 	movl   $0x32ef7f13,-0x14(%rbp)
    db9a:	48 8d 05 a7 14 01 00 	lea    0x114a7(%rip),%rax        # 1f048 <g_1180+0x8>
    dba1:	48 39 45 f0          	cmp    %rax,-0x10(%rbp)
    dba5:	75 50                	jne    dbf7 <func_6+0x89>
    dba7:	48 83 7d f8 00       	cmpq   $0x0,-0x8(%rbp)
    dbac:	48 8b 05 4d 15 01 00 	mov    0x1154d(%rip),%rax        # 1f100 <g_1218>
    dbb3:	48 8b 00             	mov    (%rax),%rax
    dbb6:	48 8b 00             	mov    (%rax),%rax
    dbb9:	48 8b 10             	mov    (%rax),%rdx
    dbbc:	48 8b 05 4d 1d 01 00 	mov    0x11d4d(%rip),%rax        # 1f910 <g_1356>
    dbc3:	48 8b 00             	mov    (%rax),%rax
    dbc6:	0f b7 00             	movzwl (%rax),%eax
    dbc9:	0f b7 c0             	movzwl %ax,%eax
    dbcc:	33 45 ec             	xor    -0x14(%rbp),%eax
    dbcf:	39 45 dc             	cmp    %eax,-0x24(%rbp)
    dbd2:	0f 95 c0             	setne  %al
    dbd5:	0f b6 c0             	movzbl %al,%eax
    dbd8:	48 89 d6             	mov    %rdx,%rsi
    dbdb:	48 89 c7             	mov    %rax,%rdi
    dbde:	e8 14 ae ff ff       	callq  89f7 <safe_div_func_int64_t_s_s>
    dbe3:	be fa ff ff ff       	mov    $0xfffffffa,%esi
    dbe8:	bf 00 00 00 00       	mov    $0x0,%edi
    dbed:	e8 de b2 ff ff       	callq  8ed0 <safe_sub_func_uint32_t_u_u>
    dbf2:	8b 55 dc             	mov    -0x24(%rbp),%edx
    dbf5:	39 d0                	cmp    %edx,%eax
    dbf7:	48 8b 45 f8          	mov    -0x8(%rbp),%rax
    dbfb:	48 c7 00 01 00 00 00 	movq   $0x1,(%rax)
    dc02:	48 8b 45 f8          	mov    -0x8(%rbp),%rax
    dc06:	48 8b 10             	mov    (%rax),%rdx
    dc09:	8b 45 ec             	mov    -0x14(%rbp),%eax
    dc0c:	48 98                	cltq   
    dc0e:	48 39 c2             	cmp    %rax,%rdx
    dc11:	0f 9c c0             	setl   %al
    dc14:	0f b6 c0             	movzbl %al,%eax
    dc17:	89 45 ec             	mov    %eax,-0x14(%rbp)
    dc1a:	8b 45 ec             	mov    -0x14(%rbp),%eax
    dc1d:	c9                   	leaveq 
    dc1e:	c3                   	retq   

000000000000dc1f <func_11>:
    dc1f:	f3 0f 1e fa          	endbr64 
    dc23:	55                   	push   %rbp
    dc24:	48 89 e5             	mov    %rsp,%rbp
    dc27:	48 81 ec 70 02 00 00 	sub    $0x270,%rsp
    dc2e:	89 f0                	mov    %esi,%eax
    dc30:	89 d6                	mov    %edx,%esi
    dc32:	89 ca                	mov    %ecx,%edx
    dc34:	4c 89 85 98 fd ff ff 	mov    %r8,-0x268(%rbp)
    dc3b:	89 f9                	mov    %edi,%ecx
    dc3d:	88 8d ac fd ff ff    	mov    %cl,-0x254(%rbp)
    dc43:	66 89 85 a8 fd ff ff 	mov    %ax,-0x258(%rbp)
    dc4a:	89 f0                	mov    %esi,%eax
    dc4c:	88 85 a4 fd ff ff    	mov    %al,-0x25c(%rbp)
    dc52:	89 d0                	mov    %edx,%eax
    dc54:	88 85 a0 fd ff ff    	mov    %al,-0x260(%rbp)
    dc5a:	64 48 8b 04 25 28 00 	mov    %fs:0x28,%rax
    dc61:	00 00 
    dc63:	48 89 45 f8          	mov    %rax,-0x8(%rbp)
    dc67:	31 c0                	xor    %eax,%eax
    dc69:	48 b8 05 ad d2 74 57 	movabs $0x8a064f5774d2ad05,%rax
    dc70:	4f 06 8a 
    dc73:	48 89 85 f8 fd ff ff 	mov    %rax,-0x208(%rbp)
    dc7a:	48 8d 05 a7 f3 00 00 	lea    0xf3a7(%rip),%rax        # 1d028 <g_25>
    dc81:	48 89 85 d8 fd ff ff 	mov    %rax,-0x228(%rbp)
    dc88:	48 8d 05 01 f4 00 00 	lea    0xf401(%rip),%rax        # 1d090 <g_55>
    dc8f:	48 89 85 00 fe ff ff 	mov    %rax,-0x200(%rbp)
    dc96:	48 8d 05 f3 f4 00 00 	lea    0xf4f3(%rip),%rax        # 1d190 <g_132+0x10>
    dc9d:	48 89 85 e0 fd ff ff 	mov    %rax,-0x220(%rbp)
    dca4:	48 8d 85 e0 fd ff ff 	lea    -0x220(%rbp),%rax
    dcab:	48 89 85 08 fe ff ff 	mov    %rax,-0x1f8(%rbp)
    dcb2:	48 8d 05 cf f4 00 00 	lea    0xf4cf(%rip),%rax        # 1d188 <g_132+0x8>
    dcb9:	48 89 85 e8 fd ff ff 	mov    %rax,-0x218(%rbp)
    dcc0:	66 c7 85 b8 fd ff ff 	movw   $0x0,-0x248(%rbp)
    dcc7:	00 00 
    dcc9:	48 8d 05 f0 07 01 00 	lea    0x107f0(%rip),%rax        # 1e4c0 <g_62+0xc0>
    dcd0:	48 89 85 70 fe ff ff 	mov    %rax,-0x190(%rbp)
    dcd7:	48 8d 05 e2 07 01 00 	lea    0x107e2(%rip),%rax        # 1e4c0 <g_62+0xc0>
    dcde:	48 89 85 78 fe ff ff 	mov    %rax,-0x188(%rbp)
    dce5:	48 8d 85 d8 fd ff ff 	lea    -0x228(%rbp),%rax
    dcec:	48 89 85 80 fe ff ff 	mov    %rax,-0x180(%rbp)
    dcf3:	48 8d 05 c6 07 01 00 	lea    0x107c6(%rip),%rax        # 1e4c0 <g_62+0xc0>
    dcfa:	48 89 85 88 fe ff ff 	mov    %rax,-0x178(%rbp)
    dd01:	48 8d 05 b8 07 01 00 	lea    0x107b8(%rip),%rax        # 1e4c0 <g_62+0xc0>
    dd08:	48 89 85 90 fe ff ff 	mov    %rax,-0x170(%rbp)
    dd0f:	48 8d 85 d8 fd ff ff 	lea    -0x228(%rbp),%rax
    dd16:	48 89 85 98 fe ff ff 	mov    %rax,-0x168(%rbp)
    dd1d:	48 8d 05 9c 07 01 00 	lea    0x1079c(%rip),%rax        # 1e4c0 <g_62+0xc0>
    dd24:	48 89 85 a0 fe ff ff 	mov    %rax,-0x160(%rbp)
    dd2b:	48 8d 05 f6 f2 00 00 	lea    0xf2f6(%rip),%rax        # 1d028 <g_25>
    dd32:	48 89 85 10 fe ff ff 	mov    %rax,-0x1f0(%rbp)
    dd39:	66 c7 85 ba fd ff ff 	movw   $0x9efb,-0x246(%rbp)
    dd40:	fb 9e 
    dd42:	c7 85 c4 fd ff ff 00 	movl   $0x0,-0x23c(%rbp)
    dd49:	00 00 00 
    dd4c:	c7 85 c8 fd ff ff 0e 	movl   $0x1a14a0e,-0x238(%rbp)
    dd53:	4a a1 01 
    dd56:	66 c7 85 bc fd ff ff 	movw   $0x65f8,-0x244(%rbp)
    dd5d:	f8 65 
    dd5f:	48 c7 85 18 fe ff ff 	movq   $0x0,-0x1e8(%rbp)
    dd66:	00 00 00 00 
    dd6a:	48 8d 05 2f f3 00 00 	lea    0xf32f(%rip),%rax        # 1d0a0 <g_89>
    dd71:	48 89 85 20 fe ff ff 	mov    %rax,-0x1e0(%rbp)
    dd78:	48 8d 05 a1 32 01 00 	lea    0x132a1(%rip),%rax        # 21020 <g_1022>
    dd7f:	48 89 85 28 fe ff ff 	mov    %rax,-0x1d8(%rbp)
    dd86:	c7 85 cc fd ff ff df 	movl   $0xe71c99df,-0x234(%rbp)
    dd8d:	99 1c e7 
    dd90:	48 8d 05 99 32 01 00 	lea    0x13299(%rip),%rax        # 21030 <g_1684>
    dd97:	48 89 85 30 fe ff ff 	mov    %rax,-0x1d0(%rbp)
    dd9e:	48 c7 85 38 fe ff ff 	movq   $0x0,-0x1c8(%rbp)
    dda5:	00 00 00 00 
    dda9:	48 c7 85 f0 fd ff ff 	movq   $0x0,-0x210(%rbp)
    ddb0:	00 00 00 00 
    ddb4:	48 8d 85 f0 fd ff ff 	lea    -0x210(%rbp),%rax
    ddbb:	48 89 85 40 fe ff ff 	mov    %rax,-0x1c0(%rbp)
    ddc2:	48 c7 85 48 fe ff ff 	movq   $0x0,-0x1b8(%rbp)
    ddc9:	00 00 00 00 
    ddcd:	66 c7 85 be fd ff ff 	movw   $0x24bb,-0x242(%rbp)
    ddd4:	bb 24 
    ddd6:	c7 85 d0 fd ff ff ff 	movl   $0xffffffff,-0x230(%rbp)
    dddd:	ff ff ff 
    dde0:	48 8d 85 b0 fe ff ff 	lea    -0x150(%rbp),%rax
    dde7:	48 8d 15 d2 b7 00 00 	lea    0xb7d2(%rip),%rdx        # 195c0 <g_3087+0x538>
    ddee:	b9 28 00 00 00       	mov    $0x28,%ecx
    ddf3:	48 89 c7             	mov    %rax,%rdi
    ddf6:	48 89 d6             	mov    %rdx,%rsi
    ddf9:	f3 48 a5             	rep movsq %ds:(%rsi),%es:(%rdi)
    ddfc:	c6 85 b7 fd ff ff 6d 	movb   $0x6d,-0x249(%rbp)
    de03:	c7 85 d4 fd ff ff ff 	movl   $0xffffffff,-0x22c(%rbp)
    de0a:	ff ff ff 
    de0d:	c7 85 c0 fd ff ff 00 	movl   $0x0,-0x240(%rbp)
    de14:	00 00 00 
    de17:	eb 1e                	jmp    de37 <func_11+0x218>
    de19:	8b 85 c0 fd ff ff    	mov    -0x240(%rbp),%eax
    de1f:	48 98                	cltq   
    de21:	48 8d 95 e8 fd ff ff 	lea    -0x218(%rbp),%rdx
    de28:	48 89 94 c5 50 fe ff 	mov    %rdx,-0x1b0(%rbp,%rax,8)
    de2f:	ff 
    de30:	83 85 c0 fd ff ff 01 	addl   $0x1,-0x240(%rbp)
    de37:	83 bd c0 fd ff ff 02 	cmpl   $0x2,-0x240(%rbp)
    de3e:	7e d9                	jle    de19 <func_11+0x1fa>
    de40:	48 8b 05 99 05 01 00 	mov    0x10599(%rip),%rax        # 1e3e0 <g_29>
    de47:	8b 15 db f1 00 00    	mov    0xf1db(%rip),%edx        # 1d028 <g_25>
    de4d:	89 10                	mov    %edx,(%rax)
    de4f:	8b 85 d4 fd ff ff    	mov    -0x22c(%rbp),%eax
    de55:	48 8b 4d f8          	mov    -0x8(%rbp),%rcx
    de59:	64 48 33 0c 25 28 00 	xor    %fs:0x28,%rcx
    de60:	00 00 
    de62:	74 05                	je     de69 <func_11+0x24a>
    de64:	e8 07 a2 ff ff       	callq  8070 <__stack_chk_fail@plt>
    de69:	c9                   	leaveq 
    de6a:	c3                   	retq   

000000000000de6b <func_20>:
    de6b:	f3 0f 1e fa          	endbr64 
    de6f:	55                   	push   %rbp
    de70:	48 89 e5             	mov    %rsp,%rbp
    de73:	48 89 7d e8          	mov    %rdi,-0x18(%rbp)
    de77:	89 75 e4             	mov    %esi,-0x1c(%rbp)
    de7a:	66 c7 45 fe dd 04    	movw   $0x4dd,-0x2(%rbp)
    de80:	0f bf 45 fe          	movswl -0x2(%rbp),%eax
    de84:	5d                   	pop    %rbp
    de85:	c3                   	retq   

000000000000de86 <func_34>:
    de86:	f3 0f 1e fa          	endbr64 
    de8a:	55                   	push   %rbp
    de8b:	48 89 e5             	mov    %rsp,%rbp
    de8e:	48 81 ec 60 01 00 00 	sub    $0x160,%rsp
    de95:	48 89 bd b8 fe ff ff 	mov    %rdi,-0x148(%rbp)
    de9c:	48 89 b5 b0 fe ff ff 	mov    %rsi,-0x150(%rbp)
    dea3:	89 95 ac fe ff ff    	mov    %edx,-0x154(%rbp)
    dea9:	89 c8                	mov    %ecx,%eax
    deab:	44 89 85 a4 fe ff ff 	mov    %r8d,-0x15c(%rbp)
    deb2:	66 89 85 a8 fe ff ff 	mov    %ax,-0x158(%rbp)
    deb9:	64 48 8b 04 25 28 00 	mov    %fs:0x28,%rax
    dec0:	00 00 
    dec2:	48 89 45 f8          	mov    %rax,-0x8(%rbp)
    dec6:	31 c0                	xor    %eax,%eax
    dec8:	48 c7 85 e8 fe ff ff 	movq   $0x0,-0x118(%rbp)
    decf:	00 00 00 00 
    ded3:	48 8d 85 e8 fe ff ff 	lea    -0x118(%rbp),%rax
    deda:	48 89 85 08 ff ff ff 	mov    %rax,-0xf8(%rbp)
    dee1:	48 c7 85 f0 fe ff ff 	movq   $0x0,-0x110(%rbp)
    dee8:	00 00 00 00 
    deec:	48 8d 85 f0 fe ff ff 	lea    -0x110(%rbp),%rax
    def3:	48 89 85 10 ff ff ff 	mov    %rax,-0xf0(%rbp)
    defa:	c7 85 d4 fe ff ff fe 	movl   $0xfffffffe,-0x12c(%rbp)
    df01:	ff ff ff 
    df04:	48 8d 05 15 31 01 00 	lea    0x13115(%rip),%rax        # 21020 <g_1022>
    df0b:	48 89 85 f8 fe ff ff 	mov    %rax,-0x108(%rbp)
    df12:	48 8d 85 f8 fe ff ff 	lea    -0x108(%rbp),%rax
    df19:	48 89 85 00 ff ff ff 	mov    %rax,-0x100(%rbp)
    df20:	48 8d 85 00 ff ff ff 	lea    -0x100(%rbp),%rax
    df27:	48 89 85 18 ff ff ff 	mov    %rax,-0xe8(%rbp)
    df2e:	c7 85 d8 fe ff ff ff 	movl   $0xffffffff,-0x128(%rbp)
    df35:	ff ff ff 
    df38:	48 8d 05 a1 30 01 00 	lea    0x130a1(%rip),%rax        # 20fe0 <g_247>
    df3f:	48 89 85 20 ff ff ff 	mov    %rax,-0xe0(%rbp)
    df46:	c7 85 dc fe ff ff d0 	movl   $0x22933ed0,-0x124(%rbp)
    df4d:	3e 93 22 
    df50:	48 c7 85 28 ff ff ff 	movq   $0x0,-0xd8(%rbp)
    df57:	00 00 00 00 
    df5b:	c7 45 90 ff ff ff ff 	movl   $0xffffffff,-0x70(%rbp)
    df62:	c7 45 94 ff ff ff ff 	movl   $0xffffffff,-0x6c(%rbp)
    df69:	c7 45 98 ff ff ff ff 	movl   $0xffffffff,-0x68(%rbp)
    df70:	c7 45 9c ff ff ff ff 	movl   $0xffffffff,-0x64(%rbp)
    df77:	c7 45 a0 ff ff ff ff 	movl   $0xffffffff,-0x60(%rbp)
    df7e:	c7 45 a4 ff ff ff ff 	movl   $0xffffffff,-0x5c(%rbp)
    df85:	c7 45 a8 ff ff ff ff 	movl   $0xffffffff,-0x58(%rbp)
    df8c:	66 c7 85 67 ff ff ff 	movw   $0xff,-0x99(%rbp)
    df93:	ff 00 
    df95:	c6 85 69 ff ff ff 00 	movb   $0x0,-0x97(%rbp)
    df9c:	66 c7 85 6a ff ff ff 	movw   $0xff,-0x96(%rbp)
    dfa3:	ff 00 
    dfa5:	c6 85 6c ff ff ff 00 	movb   $0x0,-0x94(%rbp)
    dfac:	66 c7 85 6d ff ff ff 	movw   $0xff,-0x93(%rbp)
    dfb3:	ff 00 
    dfb5:	c6 85 6f ff ff ff 00 	movb   $0x0,-0x91(%rbp)
    dfbc:	c7 85 e0 fe ff ff fc 	movl   $0xfffffffc,-0x120(%rbp)
    dfc3:	ff ff ff 
    dfc6:	48 c7 85 30 ff ff ff 	movq   $0x0,-0xd0(%rbp)
    dfcd:	00 00 00 00 
    dfd1:	66 c7 85 ca fe ff ff 	movw   $0x0,-0x136(%rbp)
    dfd8:	00 00 
    dfda:	66 c7 85 cc fe ff ff 	movw   $0x3c52,-0x134(%rbp)
    dfe1:	52 3c 
    dfe3:	48 c7 85 38 ff ff ff 	movq   $0x0,-0xc8(%rbp)
    dfea:	00 00 00 00 
    dfee:	48 c7 85 40 ff ff ff 	movq   $0xffffffffffffffff,-0xc0(%rbp)
    dff5:	ff ff ff ff 
    dff9:	48 8d 05 58 f0 00 00 	lea    0xf058(%rip),%rax        # 1d058 <g_27+0x18>
    e000:	48 89 85 48 ff ff ff 	mov    %rax,-0xb8(%rbp)
    e007:	48 8d 05 22 30 01 00 	lea    0x13022(%rip),%rax        # 21030 <g_1684>
    e00e:	48 89 85 50 ff ff ff 	mov    %rax,-0xb0(%rbp)
    e015:	c7 45 d0 56 ef d4 b6 	movl   $0xb6d4ef56,-0x30(%rbp)
    e01c:	c7 45 d4 56 ef d4 b6 	movl   $0xb6d4ef56,-0x2c(%rbp)
    e023:	c7 45 d8 56 ef d4 b6 	movl   $0xb6d4ef56,-0x28(%rbp)
    e02a:	c7 45 dc 56 ef d4 b6 	movl   $0xb6d4ef56,-0x24(%rbp)
    e031:	c7 45 e0 56 ef d4 b6 	movl   $0xb6d4ef56,-0x20(%rbp)
    e038:	c7 45 e4 56 ef d4 b6 	movl   $0xb6d4ef56,-0x1c(%rbp)
    e03f:	c7 45 e8 56 ef d4 b6 	movl   $0xb6d4ef56,-0x18(%rbp)
    e046:	c7 45 ec 56 ef d4 b6 	movl   $0xb6d4ef56,-0x14(%rbp)
    e04d:	c7 85 e4 fe ff ff 00 	movl   $0x0,-0x11c(%rbp)
    e054:	00 00 00 
    e057:	66 c7 85 ce fe ff ff 	movw   $0xfff8,-0x132(%rbp)
    e05e:	f8 ff 
    e060:	c7 45 b0 49 02 02 49 	movl   $0x49020249,-0x50(%rbp)
    e067:	c6 45 b4 aa          	movb   $0xaa,-0x4c(%rbp)
    e06b:	c7 45 b5 49 0d 8a 8a 	movl   $0x8a8a0d49,-0x4b(%rbp)
    e072:	c6 45 b9 0d          	movb   $0xd,-0x47(%rbp)
    e076:	c7 45 ba aa 02 8a 01 	movl   $0x18a02aa,-0x46(%rbp)
    e07d:	c6 45 be 01          	movb   $0x1,-0x42(%rbp)
    e081:	c7 45 bf 02 aa 02 8a 	movl   $0x8a02aa02,-0x41(%rbp)
    e088:	c6 45 c3 01          	movb   $0x1,-0x3d(%rbp)
    e08c:	c7 45 c4 0d 49 01 49 	movl   $0x4901490d,-0x3c(%rbp)
    e093:	c6 45 c8 0d          	movb   $0xd,-0x38(%rbp)
    e097:	c7 45 c9 02 49 aa 0d 	movl   $0xdaa4902,-0x37(%rbp)
    e09e:	c6 45 cd aa          	movb   $0xaa,-0x33(%rbp)
    e0a2:	c6 85 c9 fe ff ff 47 	movb   $0x47,-0x137(%rbp)
    e0a9:	48 8d 05 d0 f0 00 00 	lea    0xf0d0(%rip),%rax        # 1d180 <g_132>
    e0b0:	48 89 85 58 ff ff ff 	mov    %rax,-0xa8(%rbp)
    e0b7:	c7 85 d0 fe ff ff 00 	movl   $0x0,-0x130(%rbp)
    e0be:	00 00 00 
    e0c1:	eb 1a                	jmp    e0dd <func_34+0x257>
    e0c3:	8b 85 d0 fe ff ff    	mov    -0x130(%rbp),%eax
    e0c9:	48 98                	cltq   
    e0cb:	c7 84 85 70 ff ff ff 	movl   $0xfffffffa,-0x90(%rbp,%rax,4)
    e0d2:	fa ff ff ff 
    e0d6:	83 85 d0 fe ff ff 01 	addl   $0x1,-0x130(%rbp)
    e0dd:	83 bd d0 fe ff ff 06 	cmpl   $0x6,-0x130(%rbp)
    e0e4:	7e dd                	jle    e0c3 <func_34+0x23d>
    e0e6:	48 8b 85 58 ff ff ff 	mov    -0xa8(%rbp),%rax
    e0ed:	48 8b 55 f8          	mov    -0x8(%rbp),%rdx
    e0f1:	64 48 33 14 25 28 00 	xor    %fs:0x28,%rdx
    e0f8:	00 00 
    e0fa:	74 05                	je     e101 <func_34+0x27b>
    e0fc:	e8 6f 9f ff ff       	callq  8070 <__stack_chk_fail@plt>
    e101:	c9                   	leaveq 
    e102:	c3                   	retq   

000000000000e103 <func_40>:
    e103:	f3 0f 1e fa          	endbr64 
    e107:	55                   	push   %rbp
    e108:	48 89 e5             	mov    %rsp,%rbp
    e10b:	41 57                	push   %r15
    e10d:	41 56                	push   %r14
    e10f:	41 55                	push   %r13
    e111:	41 54                	push   %r12
    e113:	53                   	push   %rbx
    e114:	48 81 ec 00 10 00 00 	sub    $0x1000,%rsp
    e11b:	48 83 0c 24 00       	orq    $0x0,(%rsp)
    e120:	48 81 ec 98 04 00 00 	sub    $0x498,%rsp
    e127:	89 f8                	mov    %edi,%eax
    e129:	88 85 4c eb ff ff    	mov    %al,-0x14b4(%rbp)
    e12f:	64 48 8b 04 25 28 00 	mov    %fs:0x28,%rax
    e136:	00 00 
    e138:	48 89 45 c8          	mov    %rax,-0x38(%rbp)
    e13c:	31 c0                	xor    %eax,%eax
    e13e:	c7 85 6c eb ff ff fb 	movl   $0xfffffffb,-0x1494(%rbp)
    e145:	ff ff ff 
    e148:	48 8d 05 91 2e 01 00 	lea    0x12e91(%rip),%rax        # 20fe0 <g_247>
    e14f:	48 89 85 d0 eb ff ff 	mov    %rax,-0x1430(%rbp)
    e156:	c7 85 8c eb ff ff 01 	movl   $0x1,-0x1474(%rbp)
    e15d:	00 00 00 
    e160:	48 8d 05 89 f0 00 00 	lea    0xf089(%rip),%rax        # 1d1f0 <g_190+0x30>
    e167:	48 89 85 08 ec ff ff 	mov    %rax,-0x13f8(%rbp)
    e16e:	48 c7 85 10 ec ff ff 	movq   $0x0,-0x13f0(%rbp)
    e175:	00 00 00 00 
    e179:	c7 85 90 eb ff ff cf 	movl   $0xa86fd2cf,-0x1470(%rbp)
    e180:	d2 6f a8 
    e183:	48 c7 85 18 ec ff ff 	movq   $0x0,-0x13e8(%rbp)
    e18a:	00 00 00 00 
    e18e:	48 b8 b7 3e ae 05 89 	movabs $0xba23778905ae3eb7,%rax
    e195:	77 23 ba 
    e198:	48 89 85 20 ec ff ff 	mov    %rax,-0x13e0(%rbp)
    e19f:	48 c7 85 28 ec ff ff 	movq   $0xffffffffffffffff,-0x13d8(%rbp)
    e1a6:	ff ff ff ff 
    e1aa:	66 c7 85 5e eb ff ff 	movw   $0xffff,-0x14a2(%rbp)
    e1b1:	ff ff 
    e1b3:	48 8d 85 40 ee ff ff 	lea    -0x11c0(%rbp),%rax
    e1ba:	48 83 c0 38          	add    $0x38,%rax
    e1be:	48 89 85 30 ec ff ff 	mov    %rax,-0x13d0(%rbp)
    e1c5:	66 c7 85 60 eb ff ff 	movw   $0xef1a,-0x14a0(%rbp)
    e1cc:	1a ef 
    e1ce:	48 c7 85 38 ec ff ff 	movq   $0x0,-0x13c8(%rbp)
    e1d5:	00 00 00 00 
    e1d9:	48 8d 05 30 0e 01 00 	lea    0x10e30(%rip),%rax        # 1f010 <g_1006>
    e1e0:	48 89 85 40 ec ff ff 	mov    %rax,-0x13c0(%rbp)
    e1e7:	c7 45 b9 f1 f1 f1 f1 	movl   $0xf1f1f1f1,-0x47(%rbp)
    e1ee:	66 c7 45 bd f1 f1    	movw   $0xf1f1,-0x43(%rbp)
    e1f4:	c6 45 bf f1          	movb   $0xf1,-0x41(%rbp)
    e1f8:	c7 85 94 eb ff ff 00 	movl   $0x0,-0x146c(%rbp)
    e1ff:	00 00 00 
    e202:	66 c7 85 62 eb ff ff 	movw   $0x1,-0x149e(%rbp)
    e209:	01 00 
    e20b:	c6 85 57 eb ff ff de 	movb   $0xde,-0x14a9(%rbp)
    e212:	c7 85 98 eb ff ff 8b 	movl   $0x71672c8b,-0x1468(%rbp)
    e219:	2c 67 71 
    e21c:	66 c7 85 64 eb ff ff 	movw   $0x9,-0x149c(%rbp)
    e223:	09 00 
    e225:	c6 85 58 eb ff ff 10 	movb   $0x10,-0x14a8(%rbp)
    e22c:	48 8d 85 40 ed ff ff 	lea    -0x12c0(%rbp),%rax
    e233:	48 83 c0 04          	add    $0x4,%rax
    e237:	48 89 85 48 ec ff ff 	mov    %rax,-0x13b8(%rbp)
    e23e:	48 c7 85 50 ec ff ff 	movq   $0x0,-0x13b0(%rbp)
    e245:	00 00 00 00 
    e249:	c7 85 70 eb ff ff ff 	movl   $0xffffffff,-0x1490(%rbp)
    e250:	ff ff ff 
    e253:	c7 85 9c eb ff ff 08 	movl   $0x8,-0x1464(%rbp)
    e25a:	00 00 00 
    e25d:	48 c7 85 50 ed ff ff 	movq   $0x0,-0x12b0(%rbp)
    e264:	00 00 00 00 
    e268:	48 c7 85 58 ed ff ff 	movq   $0x0,-0x12a8(%rbp)
    e26f:	00 00 00 00 
    e273:	48 c7 85 60 ed ff ff 	movq   $0x0,-0x12a0(%rbp)
    e27a:	00 00 00 00 
    e27e:	c7 85 68 ed ff ff 00 	movl   $0x0,-0x1298(%rbp)
    e285:	00 00 00 
    e288:	48 8d 05 54 ee 00 00 	lea    0xee54(%rip),%rax        # 1d0e3 <g_92+0x23>
    e28f:	48 89 85 d0 f7 ff ff 	mov    %rax,-0x830(%rbp)
    e296:	48 8d 05 44 ee 00 00 	lea    0xee44(%rip),%rax        # 1d0e1 <g_92+0x21>
    e29d:	48 89 85 d8 f7 ff ff 	mov    %rax,-0x828(%rbp)
    e2a4:	48 8d 05 1b ee 00 00 	lea    0xee1b(%rip),%rax        # 1d0c6 <g_92+0x6>
    e2ab:	48 89 85 e0 f7 ff ff 	mov    %rax,-0x820(%rbp)
    e2b2:	48 8d 05 e7 f7 00 00 	lea    0xf7e7(%rip),%rax        # 1daa0 <g_1291>
    e2b9:	48 89 85 e8 f7 ff ff 	mov    %rax,-0x818(%rbp)
    e2c0:	48 8d 05 19 2d 01 00 	lea    0x12d19(%rip),%rax        # 20fe0 <g_247>
    e2c7:	48 89 85 f0 f7 ff ff 	mov    %rax,-0x810(%rbp)
    e2ce:	48 8d 05 0e ee 00 00 	lea    0xee0e(%rip),%rax        # 1d0e3 <g_92+0x23>
    e2d5:	48 89 85 f8 f7 ff ff 	mov    %rax,-0x808(%rbp)
    e2dc:	48 8d 05 e3 ed 00 00 	lea    0xede3(%rip),%rax        # 1d0c6 <g_92+0x6>
    e2e3:	48 89 85 00 f8 ff ff 	mov    %rax,-0x800(%rbp)
    e2ea:	48 8d 05 af f7 00 00 	lea    0xf7af(%rip),%rax        # 1daa0 <g_1291>
    e2f1:	48 89 85 08 f8 ff ff 	mov    %rax,-0x7f8(%rbp)
    e2f8:	48 8d 05 e1 2c 01 00 	lea    0x12ce1(%rip),%rax        # 20fe0 <g_247>
    e2ff:	48 89 85 10 f8 ff ff 	mov    %rax,-0x7f0(%rbp)
    e306:	48 8d 85 58 eb ff ff 	lea    -0x14a8(%rbp),%rax
    e30d:	48 89 85 18 f8 ff ff 	mov    %rax,-0x7e8(%rbp)
    e314:	48 8d 85 58 eb ff ff 	lea    -0x14a8(%rbp),%rax
    e31b:	48 89 85 20 f8 ff ff 	mov    %rax,-0x7e0(%rbp)
    e322:	48 8d 85 57 eb ff ff 	lea    -0x14a9(%rbp),%rax
    e329:	48 89 85 28 f8 ff ff 	mov    %rax,-0x7d8(%rbp)
    e330:	48 8d 85 58 eb ff ff 	lea    -0x14a8(%rbp),%rax
    e337:	48 89 85 30 f8 ff ff 	mov    %rax,-0x7d0(%rbp)
    e33e:	48 8d 85 58 eb ff ff 	lea    -0x14a8(%rbp),%rax
    e345:	48 89 85 38 f8 ff ff 	mov    %rax,-0x7c8(%rbp)
    e34c:	48 8d 85 57 eb ff ff 	lea    -0x14a9(%rbp),%rax
    e353:	48 89 85 40 f8 ff ff 	mov    %rax,-0x7c0(%rbp)
    e35a:	48 8d 05 82 ed 00 00 	lea    0xed82(%rip),%rax        # 1d0e3 <g_92+0x23>
    e361:	48 89 85 48 f8 ff ff 	mov    %rax,-0x7b8(%rbp)
    e368:	48 8d 85 58 eb ff ff 	lea    -0x14a8(%rbp),%rax
    e36f:	48 89 85 50 f8 ff ff 	mov    %rax,-0x7b0(%rbp)
    e376:	48 8d 05 63 2c 01 00 	lea    0x12c63(%rip),%rax        # 20fe0 <g_247>
    e37d:	48 89 85 58 f8 ff ff 	mov    %rax,-0x7a8(%rbp)
    e384:	48 8d 05 38 ed 00 00 	lea    0xed38(%rip),%rax        # 1d0c3 <g_92+0x3>
    e38b:	48 89 85 60 f8 ff ff 	mov    %rax,-0x7a0(%rbp)
    e392:	48 8d 05 cc ed 00 00 	lea    0xedcc(%rip),%rax        # 1d165 <g_92+0xa5>
    e399:	48 89 85 68 f8 ff ff 	mov    %rax,-0x798(%rbp)
    e3a0:	48 8d 85 57 eb ff ff 	lea    -0x14a9(%rbp),%rax
    e3a7:	48 89 85 70 f8 ff ff 	mov    %rax,-0x790(%rbp)
    e3ae:	48 8d 05 88 ed 00 00 	lea    0xed88(%rip),%rax        # 1d13d <g_92+0x7d>
    e3b5:	48 89 85 78 f8 ff ff 	mov    %rax,-0x788(%rbp)
    e3bc:	48 8d 85 57 eb ff ff 	lea    -0x14a9(%rbp),%rax
    e3c3:	48 89 85 80 f8 ff ff 	mov    %rax,-0x780(%rbp)
    e3ca:	48 8d 05 cf f6 00 00 	lea    0xf6cf(%rip),%rax        # 1daa0 <g_1291>
    e3d1:	48 89 85 88 f8 ff ff 	mov    %rax,-0x778(%rbp)
    e3d8:	48 8d 85 57 eb ff ff 	lea    -0x14a9(%rbp),%rax
    e3df:	48 89 85 90 f8 ff ff 	mov    %rax,-0x770(%rbp)
    e3e6:	48 8d 05 df ec 00 00 	lea    0xecdf(%rip),%rax        # 1d0cc <g_92+0xc>
    e3ed:	48 89 85 98 f8 ff ff 	mov    %rax,-0x768(%rbp)
    e3f4:	48 8d 05 42 ed 00 00 	lea    0xed42(%rip),%rax        # 1d13d <g_92+0x7d>
    e3fb:	48 89 85 a0 f8 ff ff 	mov    %rax,-0x760(%rbp)
    e402:	48 8d 05 ba ec 00 00 	lea    0xecba(%rip),%rax        # 1d0c3 <g_92+0x3>
    e409:	48 89 85 a8 f8 ff ff 	mov    %rax,-0x758(%rbp)
    e410:	48 8d 05 26 ed 00 00 	lea    0xed26(%rip),%rax        # 1d13d <g_92+0x7d>
    e417:	48 89 85 b0 f8 ff ff 	mov    %rax,-0x750(%rbp)
    e41e:	48 8d 05 a7 ec 00 00 	lea    0xeca7(%rip),%rax        # 1d0cc <g_92+0xc>
    e425:	48 89 85 b8 f8 ff ff 	mov    %rax,-0x748(%rbp)
    e42c:	48 8d 05 0a ed 00 00 	lea    0xed0a(%rip),%rax        # 1d13d <g_92+0x7d>
    e433:	48 89 85 c0 f8 ff ff 	mov    %rax,-0x740(%rbp)
    e43a:	48 8d 05 fc ec 00 00 	lea    0xecfc(%rip),%rax        # 1d13d <g_92+0x7d>
    e441:	48 89 85 c8 f8 ff ff 	mov    %rax,-0x738(%rbp)
    e448:	48 8d 05 75 ec 00 00 	lea    0xec75(%rip),%rax        # 1d0c4 <g_92+0x4>
    e44f:	48 89 85 d0 f8 ff ff 	mov    %rax,-0x730(%rbp)
    e456:	48 8d 85 58 eb ff ff 	lea    -0x14a8(%rbp),%rax
    e45d:	48 89 85 d8 f8 ff ff 	mov    %rax,-0x728(%rbp)
    e464:	48 8d 05 75 2b 01 00 	lea    0x12b75(%rip),%rax        # 20fe0 <g_247>
    e46b:	48 89 85 e0 f8 ff ff 	mov    %rax,-0x720(%rbp)
    e472:	48 8d 05 67 2b 01 00 	lea    0x12b67(%rip),%rax        # 20fe0 <g_247>
    e479:	48 89 85 e8 f8 ff ff 	mov    %rax,-0x718(%rbp)
    e480:	48 8d 85 58 eb ff ff 	lea    -0x14a8(%rbp),%rax
    e487:	48 89 85 f0 f8 ff ff 	mov    %rax,-0x710(%rbp)
    e48e:	48 8d 05 a8 ec 00 00 	lea    0xeca8(%rip),%rax        # 1d13d <g_92+0x7d>
    e495:	48 89 85 f8 f8 ff ff 	mov    %rax,-0x708(%rbp)
    e49c:	48 8d 85 57 eb ff ff 	lea    -0x14a9(%rbp),%rax
    e4a3:	48 89 85 00 f9 ff ff 	mov    %rax,-0x700(%rbp)
    e4aa:	48 8d 05 8c ec 00 00 	lea    0xec8c(%rip),%rax        # 1d13d <g_92+0x7d>
    e4b1:	48 89 85 08 f9 ff ff 	mov    %rax,-0x6f8(%rbp)
    e4b8:	48 8d 05 94 ec 00 00 	lea    0xec94(%rip),%rax        # 1d153 <g_92+0x93>
    e4bf:	48 89 85 10 f9 ff ff 	mov    %rax,-0x6f0(%rbp)
    e4c6:	48 8d 05 d3 f5 00 00 	lea    0xf5d3(%rip),%rax        # 1daa0 <g_1291>
    e4cd:	48 89 85 18 f9 ff ff 	mov    %rax,-0x6e8(%rbp)
    e4d4:	48 8d 05 c5 f5 00 00 	lea    0xf5c5(%rip),%rax        # 1daa0 <g_1291>
    e4db:	48 89 85 20 f9 ff ff 	mov    %rax,-0x6e0(%rbp)
    e4e2:	48 8d 05 54 ec 00 00 	lea    0xec54(%rip),%rax        # 1d13d <g_92+0x7d>
    e4e9:	48 89 85 28 f9 ff ff 	mov    %rax,-0x6d8(%rbp)
    e4f0:	48 8d 05 e9 2a 01 00 	lea    0x12ae9(%rip),%rax        # 20fe0 <g_247>
    e4f7:	48 89 85 30 f9 ff ff 	mov    %rax,-0x6d0(%rbp)
    e4fe:	48 8d 85 58 eb ff ff 	lea    -0x14a8(%rbp),%rax
    e505:	48 89 85 38 f9 ff ff 	mov    %rax,-0x6c8(%rbp)
    e50c:	48 8d 05 cd 2a 01 00 	lea    0x12acd(%rip),%rax        # 20fe0 <g_247>
    e513:	48 89 85 40 f9 ff ff 	mov    %rax,-0x6c0(%rbp)
    e51a:	48 8d 85 57 eb ff ff 	lea    -0x14a9(%rbp),%rax
    e521:	48 89 85 48 f9 ff ff 	mov    %rax,-0x6b8(%rbp)
    e528:	48 8d 85 57 eb ff ff 	lea    -0x14a9(%rbp),%rax
    e52f:	48 89 85 50 f9 ff ff 	mov    %rax,-0x6b0(%rbp)
    e536:	48 8d 05 00 ec 00 00 	lea    0xec00(%rip),%rax        # 1d13d <g_92+0x7d>
    e53d:	48 89 85 58 f9 ff ff 	mov    %rax,-0x6a8(%rbp)
    e544:	48 8d 05 96 eb 00 00 	lea    0xeb96(%rip),%rax        # 1d0e1 <g_92+0x21>
    e54b:	48 89 85 60 f9 ff ff 	mov    %rax,-0x6a0(%rbp)
    e552:	48 8d 05 6b eb 00 00 	lea    0xeb6b(%rip),%rax        # 1d0c4 <g_92+0x4>
    e559:	48 89 85 68 f9 ff ff 	mov    %rax,-0x698(%rbp)
    e560:	48 8d 05 d6 eb 00 00 	lea    0xebd6(%rip),%rax        # 1d13d <g_92+0x7d>
    e567:	48 89 85 70 f9 ff ff 	mov    %rax,-0x690(%rbp)
    e56e:	48 8d 85 57 eb ff ff 	lea    -0x14a9(%rbp),%rax
    e575:	48 89 85 78 f9 ff ff 	mov    %rax,-0x688(%rbp)
    e57c:	48 8d 05 ba eb 00 00 	lea    0xebba(%rip),%rax        # 1d13d <g_92+0x7d>
    e583:	48 89 85 80 f9 ff ff 	mov    %rax,-0x680(%rbp)
    e58a:	48 8d 05 3b eb 00 00 	lea    0xeb3b(%rip),%rax        # 1d0cc <g_92+0xc>
    e591:	48 89 85 88 f9 ff ff 	mov    %rax,-0x678(%rbp)
    e598:	48 8d 05 01 f5 00 00 	lea    0xf501(%rip),%rax        # 1daa0 <g_1291>
    e59f:	48 89 85 90 f9 ff ff 	mov    %rax,-0x670(%rbp)
    e5a6:	48 8d 05 90 eb 00 00 	lea    0xeb90(%rip),%rax        # 1d13d <g_92+0x7d>
    e5ad:	48 89 85 98 f9 ff ff 	mov    %rax,-0x668(%rbp)
    e5b4:	48 8d 85 57 eb ff ff 	lea    -0x14a9(%rbp),%rax
    e5bb:	48 89 85 a0 f9 ff ff 	mov    %rax,-0x660(%rbp)
    e5c2:	48 8d 05 74 eb 00 00 	lea    0xeb74(%rip),%rax        # 1d13d <g_92+0x7d>
    e5c9:	48 89 85 a8 f9 ff ff 	mov    %rax,-0x658(%rbp)
    e5d0:	48 8d 85 57 eb ff ff 	lea    -0x14a9(%rbp),%rax
    e5d7:	48 89 85 b0 f9 ff ff 	mov    %rax,-0x650(%rbp)
    e5de:	48 8d 05 80 eb 00 00 	lea    0xeb80(%rip),%rax        # 1d165 <g_92+0xa5>
    e5e5:	48 89 85 b8 f9 ff ff 	mov    %rax,-0x648(%rbp)
    e5ec:	48 8d 85 58 eb ff ff 	lea    -0x14a8(%rbp),%rax
    e5f3:	48 89 85 c0 f9 ff ff 	mov    %rax,-0x640(%rbp)
    e5fa:	48 c7 85 c8 f9 ff ff 	movq   $0x0,-0x638(%rbp)
    e601:	00 00 00 00 
    e605:	48 8d 85 58 eb ff ff 	lea    -0x14a8(%rbp),%rax
    e60c:	48 89 85 d0 f9 ff ff 	mov    %rax,-0x630(%rbp)
    e613:	48 8d 85 58 eb ff ff 	lea    -0x14a8(%rbp),%rax
    e61a:	48 89 85 d8 f9 ff ff 	mov    %rax,-0x628(%rbp)
    e621:	48 8d 05 15 eb 00 00 	lea    0xeb15(%rip),%rax        # 1d13d <g_92+0x7d>
    e628:	48 89 85 e0 f9 ff ff 	mov    %rax,-0x620(%rbp)
    e62f:	48 8d 85 58 eb ff ff 	lea    -0x14a8(%rbp),%rax
    e636:	48 89 85 e8 f9 ff ff 	mov    %rax,-0x618(%rbp)
    e63d:	48 8d 05 82 ea 00 00 	lea    0xea82(%rip),%rax        # 1d0c6 <g_92+0x6>
    e644:	48 89 85 f0 f9 ff ff 	mov    %rax,-0x610(%rbp)
    e64b:	48 8d 05 74 ea 00 00 	lea    0xea74(%rip),%rax        # 1d0c6 <g_92+0x6>
    e652:	48 89 85 f8 f9 ff ff 	mov    %rax,-0x608(%rbp)
    e659:	48 8d 85 58 eb ff ff 	lea    -0x14a8(%rbp),%rax
    e660:	48 89 85 00 fa ff ff 	mov    %rax,-0x600(%rbp)
    e667:	48 8d 05 cf ea 00 00 	lea    0xeacf(%rip),%rax        # 1d13d <g_92+0x7d>
    e66e:	48 89 85 08 fa ff ff 	mov    %rax,-0x5f8(%rbp)
    e675:	48 8d 85 57 eb ff ff 	lea    -0x14a9(%rbp),%rax
    e67c:	48 89 85 10 fa ff ff 	mov    %rax,-0x5f0(%rbp)
    e683:	48 8d 05 16 f4 00 00 	lea    0xf416(%rip),%rax        # 1daa0 <g_1291>
    e68a:	48 89 85 18 fa ff ff 	mov    %rax,-0x5e8(%rbp)
    e691:	48 8d 05 cd ea 00 00 	lea    0xeacd(%rip),%rax        # 1d165 <g_92+0xa5>
    e698:	48 89 85 20 fa ff ff 	mov    %rax,-0x5e0(%rbp)
    e69f:	48 8d 85 57 eb ff ff 	lea    -0x14a9(%rbp),%rax
    e6a6:	48 89 85 28 fa ff ff 	mov    %rax,-0x5d8(%rbp)
    e6ad:	48 8d 05 2c 29 01 00 	lea    0x1292c(%rip),%rax        # 20fe0 <g_247>
    e6b4:	48 89 85 30 fa ff ff 	mov    %rax,-0x5d0(%rbp)
    e6bb:	48 8d 05 7b ea 00 00 	lea    0xea7b(%rip),%rax        # 1d13d <g_92+0x7d>
    e6c2:	48 89 85 38 fa ff ff 	mov    %rax,-0x5c8(%rbp)
    e6c9:	48 8d 05 10 29 01 00 	lea    0x12910(%rip),%rax        # 20fe0 <g_247>
    e6d0:	48 89 85 40 fa ff ff 	mov    %rax,-0x5c0(%rbp)
    e6d7:	48 c7 85 48 fa ff ff 	movq   $0x0,-0x5b8(%rbp)
    e6de:	00 00 00 00 
    e6e2:	48 8d 05 b7 f3 00 00 	lea    0xf3b7(%rip),%rax        # 1daa0 <g_1291>
    e6e9:	48 89 85 50 fa ff ff 	mov    %rax,-0x5b0(%rbp)
    e6f0:	48 c7 85 58 fa ff ff 	movq   $0x0,-0x5a8(%rbp)
    e6f7:	00 00 00 00 
    e6fb:	48 8d 85 57 eb ff ff 	lea    -0x14a9(%rbp),%rax
    e702:	48 89 85 60 fa ff ff 	mov    %rax,-0x5a0(%rbp)
    e709:	48 8d 05 2d ea 00 00 	lea    0xea2d(%rip),%rax        # 1d13d <g_92+0x7d>
    e710:	48 89 85 68 fa ff ff 	mov    %rax,-0x598(%rbp)
    e717:	48 8d 05 c2 28 01 00 	lea    0x128c2(%rip),%rax        # 20fe0 <g_247>
    e71e:	48 89 85 70 fa ff ff 	mov    %rax,-0x590(%rbp)
    e725:	48 8d 05 b4 28 01 00 	lea    0x128b4(%rip),%rax        # 20fe0 <g_247>
    e72c:	48 89 85 78 fa ff ff 	mov    %rax,-0x588(%rbp)
    e733:	48 c7 85 80 fa ff ff 	movq   $0x0,-0x580(%rbp)
    e73a:	00 00 00 00 
    e73e:	48 8d 85 57 eb ff ff 	lea    -0x14a9(%rbp),%rax
    e745:	48 89 85 88 fa ff ff 	mov    %rax,-0x578(%rbp)
    e74c:	48 8d 05 4d f3 00 00 	lea    0xf34d(%rip),%rax        # 1daa0 <g_1291>
    e753:	48 89 85 90 fa ff ff 	mov    %rax,-0x570(%rbp)
    e75a:	48 c7 85 98 fa ff ff 	movq   $0x0,-0x568(%rbp)
    e761:	00 00 00 00 
    e765:	48 8d 85 57 eb ff ff 	lea    -0x14a9(%rbp),%rax
    e76c:	48 89 85 a0 fa ff ff 	mov    %rax,-0x560(%rbp)
    e773:	48 8d 05 66 28 01 00 	lea    0x12866(%rip),%rax        # 20fe0 <g_247>
    e77a:	48 89 85 a8 fa ff ff 	mov    %rax,-0x558(%rbp)
    e781:	48 8d 05 58 28 01 00 	lea    0x12858(%rip),%rax        # 20fe0 <g_247>
    e788:	48 89 85 b0 fa ff ff 	mov    %rax,-0x550(%rbp)
    e78f:	48 8d 05 30 e9 00 00 	lea    0xe930(%rip),%rax        # 1d0c6 <g_92+0x6>
    e796:	48 89 85 b8 fa ff ff 	mov    %rax,-0x548(%rbp)
    e79d:	48 8d 05 3c 28 01 00 	lea    0x1283c(%rip),%rax        # 20fe0 <g_247>
    e7a4:	48 89 85 c0 fa ff ff 	mov    %rax,-0x540(%rbp)
    e7ab:	48 8d 85 57 eb ff ff 	lea    -0x14a9(%rbp),%rax
    e7b2:	48 89 85 c8 fa ff ff 	mov    %rax,-0x538(%rbp)
    e7b9:	48 8d 05 7d e9 00 00 	lea    0xe97d(%rip),%rax        # 1d13d <g_92+0x7d>
    e7c0:	48 89 85 d0 fa ff ff 	mov    %rax,-0x530(%rbp)
    e7c7:	48 8d 85 57 eb ff ff 	lea    -0x14a9(%rbp),%rax
    e7ce:	48 89 85 d8 fa ff ff 	mov    %rax,-0x528(%rbp)
    e7d5:	48 8d 85 58 eb ff ff 	lea    -0x14a8(%rbp),%rax
    e7dc:	48 89 85 e0 fa ff ff 	mov    %rax,-0x520(%rbp)
    e7e3:	48 c7 85 e8 fa ff ff 	movq   $0x0,-0x518(%rbp)
    e7ea:	00 00 00 00 
    e7ee:	48 8d 05 48 e9 00 00 	lea    0xe948(%rip),%rax        # 1d13d <g_92+0x7d>
    e7f5:	48 89 85 f0 fa ff ff 	mov    %rax,-0x510(%rbp)
    e7fc:	48 8d 05 c0 e8 00 00 	lea    0xe8c0(%rip),%rax        # 1d0c3 <g_92+0x3>
    e803:	48 89 85 f8 fa ff ff 	mov    %rax,-0x508(%rbp)
    e80a:	48 8d 85 57 eb ff ff 	lea    -0x14a9(%rbp),%rax
    e811:	48 89 85 00 fb ff ff 	mov    %rax,-0x500(%rbp)
    e818:	48 8d 05 81 f2 00 00 	lea    0xf281(%rip),%rax        # 1daa0 <g_1291>
    e81f:	48 89 85 08 fb ff ff 	mov    %rax,-0x4f8(%rbp)
    e826:	48 8d 85 57 eb ff ff 	lea    -0x14a9(%rbp),%rax
    e82d:	48 89 85 10 fb ff ff 	mov    %rax,-0x4f0(%rbp)
    e834:	48 8d 05 02 e9 00 00 	lea    0xe902(%rip),%rax        # 1d13d <g_92+0x7d>
    e83b:	48 89 85 18 fb ff ff 	mov    %rax,-0x4e8(%rbp)
    e842:	48 c7 85 20 fb ff ff 	movq   $0x0,-0x4e0(%rbp)
    e849:	00 00 00 00 
    e84d:	48 8d 05 4c f2 00 00 	lea    0xf24c(%rip),%rax        # 1daa0 <g_1291>
    e854:	48 89 85 28 fb ff ff 	mov    %rax,-0x4d8(%rbp)
    e85b:	48 8d 05 db e8 00 00 	lea    0xe8db(%rip),%rax        # 1d13d <g_92+0x7d>
    e862:	48 89 85 30 fb ff ff 	mov    %rax,-0x4d0(%rbp)
    e869:	48 8d 05 54 e8 00 00 	lea    0xe854(%rip),%rax        # 1d0c4 <g_92+0x4>
    e870:	48 89 85 38 fb ff ff 	mov    %rax,-0x4c8(%rbp)
    e877:	48 c7 85 40 fb ff ff 	movq   $0x0,-0x4c0(%rbp)
    e87e:	00 00 00 00 
    e882:	48 8d 05 3b e8 00 00 	lea    0xe83b(%rip),%rax        # 1d0c4 <g_92+0x4>
    e889:	48 89 85 48 fb ff ff 	mov    %rax,-0x4b8(%rbp)
    e890:	48 8d 05 a6 e8 00 00 	lea    0xe8a6(%rip),%rax        # 1d13d <g_92+0x7d>
    e897:	48 89 85 50 fb ff ff 	mov    %rax,-0x4b0(%rbp)
    e89e:	48 8d 05 3b 27 01 00 	lea    0x1273b(%rip),%rax        # 20fe0 <g_247>
    e8a5:	48 89 85 58 fb ff ff 	mov    %rax,-0x4a8(%rbp)
    e8ac:	48 8d 85 57 eb ff ff 	lea    -0x14a9(%rbp),%rax
    e8b3:	48 89 85 60 fb ff ff 	mov    %rax,-0x4a0(%rbp)
    e8ba:	48 8d 05 7c e8 00 00 	lea    0xe87c(%rip),%rax        # 1d13d <g_92+0x7d>
    e8c1:	48 89 85 68 fb ff ff 	mov    %rax,-0x498(%rbp)
    e8c8:	48 8d 05 11 27 01 00 	lea    0x12711(%rip),%rax        # 20fe0 <g_247>
    e8cf:	48 89 85 70 fb ff ff 	mov    %rax,-0x490(%rbp)
    e8d6:	48 8d 85 58 eb ff ff 	lea    -0x14a8(%rbp),%rax
    e8dd:	48 89 85 78 fb ff ff 	mov    %rax,-0x488(%rbp)
    e8e4:	48 8d 05 52 e8 00 00 	lea    0xe852(%rip),%rax        # 1d13d <g_92+0x7d>
    e8eb:	48 89 85 80 fb ff ff 	mov    %rax,-0x480(%rbp)
    e8f2:	48 8d 05 6c e8 00 00 	lea    0xe86c(%rip),%rax        # 1d165 <g_92+0xa5>
    e8f9:	48 89 85 88 fb ff ff 	mov    %rax,-0x478(%rbp)
    e900:	48 8d 05 99 f1 00 00 	lea    0xf199(%rip),%rax        # 1daa0 <g_1291>
    e907:	48 89 85 90 fb ff ff 	mov    %rax,-0x470(%rbp)
    e90e:	48 8d 05 8b f1 00 00 	lea    0xf18b(%rip),%rax        # 1daa0 <g_1291>
    e915:	48 89 85 98 fb ff ff 	mov    %rax,-0x468(%rbp)
    e91c:	48 8d 05 7d f1 00 00 	lea    0xf17d(%rip),%rax        # 1daa0 <g_1291>
    e923:	48 89 85 a0 fb ff ff 	mov    %rax,-0x460(%rbp)
    e92a:	48 8d 05 0c e8 00 00 	lea    0xe80c(%rip),%rax        # 1d13d <g_92+0x7d>
    e931:	48 89 85 a8 fb ff ff 	mov    %rax,-0x458(%rbp)
    e938:	48 8d 05 fe e7 00 00 	lea    0xe7fe(%rip),%rax        # 1d13d <g_92+0x7d>
    e93f:	48 89 85 b0 fb ff ff 	mov    %rax,-0x450(%rbp)
    e946:	48 8d 05 18 e8 00 00 	lea    0xe818(%rip),%rax        # 1d165 <g_92+0xa5>
    e94d:	48 89 85 b8 fb ff ff 	mov    %rax,-0x448(%rbp)
    e954:	48 8d 85 58 eb ff ff 	lea    -0x14a8(%rbp),%rax
    e95b:	48 89 85 c0 fb ff ff 	mov    %rax,-0x440(%rbp)
    e962:	48 8d 85 58 eb ff ff 	lea    -0x14a8(%rbp),%rax
    e969:	48 89 85 c8 fb ff ff 	mov    %rax,-0x438(%rbp)
    e970:	48 8d 05 69 26 01 00 	lea    0x12669(%rip),%rax        # 20fe0 <g_247>
    e977:	48 89 85 d0 fb ff ff 	mov    %rax,-0x430(%rbp)
    e97e:	48 8d 85 58 eb ff ff 	lea    -0x14a8(%rbp),%rax
    e985:	48 89 85 d8 fb ff ff 	mov    %rax,-0x428(%rbp)
    e98c:	48 8d 05 4d 26 01 00 	lea    0x1264d(%rip),%rax        # 20fe0 <g_247>
    e993:	48 89 85 e0 fb ff ff 	mov    %rax,-0x420(%rbp)
    e99a:	48 8d 05 3f 26 01 00 	lea    0x1263f(%rip),%rax        # 20fe0 <g_247>
    e9a1:	48 89 85 e8 fb ff ff 	mov    %rax,-0x418(%rbp)
    e9a8:	48 8d 05 8e e7 00 00 	lea    0xe78e(%rip),%rax        # 1d13d <g_92+0x7d>
    e9af:	48 89 85 f0 fb ff ff 	mov    %rax,-0x410(%rbp)
    e9b6:	48 8d 05 23 26 01 00 	lea    0x12623(%rip),%rax        # 20fe0 <g_247>
    e9bd:	48 89 85 f8 fb ff ff 	mov    %rax,-0x408(%rbp)
    e9c4:	48 c7 85 00 fc ff ff 	movq   $0x0,-0x400(%rbp)
    e9cb:	00 00 00 00 
    e9cf:	48 8d 05 ed e6 00 00 	lea    0xe6ed(%rip),%rax        # 1d0c3 <g_92+0x3>
    e9d6:	48 89 85 08 fc ff ff 	mov    %rax,-0x3f8(%rbp)
    e9dd:	48 8d 85 58 eb ff ff 	lea    -0x14a8(%rbp),%rax
    e9e4:	48 89 85 10 fc ff ff 	mov    %rax,-0x3f0(%rbp)
    e9eb:	48 8d 05 ae f0 00 00 	lea    0xf0ae(%rip),%rax        # 1daa0 <g_1291>
    e9f2:	48 89 85 18 fc ff ff 	mov    %rax,-0x3e8(%rbp)
    e9f9:	48 8d 85 57 eb ff ff 	lea    -0x14a9(%rbp),%rax
    ea00:	48 89 85 20 fc ff ff 	mov    %rax,-0x3e0(%rbp)
    ea07:	48 8d 85 57 eb ff ff 	lea    -0x14a9(%rbp),%rax
    ea0e:	48 89 85 28 fc ff ff 	mov    %rax,-0x3d8(%rbp)
    ea15:	48 8d 85 57 eb ff ff 	lea    -0x14a9(%rbp),%rax
    ea1c:	48 89 85 30 fc ff ff 	mov    %rax,-0x3d0(%rbp)
    ea23:	48 8d 05 13 e7 00 00 	lea    0xe713(%rip),%rax        # 1d13d <g_92+0x7d>
    ea2a:	48 89 85 38 fc ff ff 	mov    %rax,-0x3c8(%rbp)
    ea31:	48 8d 05 68 f0 00 00 	lea    0xf068(%rip),%rax        # 1daa0 <g_1291>
    ea38:	48 89 85 40 fc ff ff 	mov    %rax,-0x3c0(%rbp)
    ea3f:	48 8d 05 7d e6 00 00 	lea    0xe67d(%rip),%rax        # 1d0c3 <g_92+0x3>
    ea46:	48 89 85 48 fc ff ff 	mov    %rax,-0x3b8(%rbp)
    ea4d:	48 8d 05 6f e6 00 00 	lea    0xe66f(%rip),%rax        # 1d0c3 <g_92+0x3>
    ea54:	48 89 85 50 fc ff ff 	mov    %rax,-0x3b0(%rbp)
    ea5b:	48 c7 85 58 fc ff ff 	movq   $0x0,-0x3a8(%rbp)
    ea62:	00 00 00 00 
    ea66:	48 8d 85 58 eb ff ff 	lea    -0x14a8(%rbp),%rax
    ea6d:	48 89 85 60 fc ff ff 	mov    %rax,-0x3a0(%rbp)
    ea74:	48 8d 05 68 e6 00 00 	lea    0xe668(%rip),%rax        # 1d0e3 <g_92+0x23>
    ea7b:	48 89 85 68 fc ff ff 	mov    %rax,-0x398(%rbp)
    ea82:	48 8d 85 57 eb ff ff 	lea    -0x14a9(%rbp),%rax
    ea89:	48 89 85 70 fc ff ff 	mov    %rax,-0x390(%rbp)
    ea90:	48 8d 85 57 eb ff ff 	lea    -0x14a9(%rbp),%rax
    ea97:	48 89 85 78 fc ff ff 	mov    %rax,-0x388(%rbp)
    ea9e:	48 8d 85 58 eb ff ff 	lea    -0x14a8(%rbp),%rax
    eaa5:	48 89 85 80 fc ff ff 	mov    %rax,-0x380(%rbp)
    eaac:	48 8d 05 2d 25 01 00 	lea    0x1252d(%rip),%rax        # 20fe0 <g_247>
    eab3:	48 89 85 88 fc ff ff 	mov    %rax,-0x378(%rbp)
    eaba:	48 8d 05 1f 25 01 00 	lea    0x1251f(%rip),%rax        # 20fe0 <g_247>
    eac1:	48 89 85 90 fc ff ff 	mov    %rax,-0x370(%rbp)
    eac8:	48 8d 85 58 eb ff ff 	lea    -0x14a8(%rbp),%rax
    eacf:	48 89 85 98 fc ff ff 	mov    %rax,-0x368(%rbp)
    ead6:	48 8d 05 c3 ef 00 00 	lea    0xefc3(%rip),%rax        # 1daa0 <g_1291>
    eadd:	48 89 85 a0 fc ff ff 	mov    %rax,-0x360(%rbp)
    eae4:	48 c7 85 a8 fc ff ff 	movq   $0x0,-0x358(%rbp)
    eaeb:	00 00 00 00 
    eaef:	48 8d 05 d0 e5 00 00 	lea    0xe5d0(%rip),%rax        # 1d0c6 <g_92+0x6>
    eaf6:	48 89 85 b0 fc ff ff 	mov    %rax,-0x350(%rbp)
    eafd:	48 8d 85 58 eb ff ff 	lea    -0x14a8(%rbp),%rax
    eb04:	48 89 85 b8 fc ff ff 	mov    %rax,-0x348(%rbp)
    eb0b:	48 c7 85 c0 fc ff ff 	movq   $0x0,-0x340(%rbp)
    eb12:	00 00 00 00 
    eb16:	48 8d 05 83 ef 00 00 	lea    0xef83(%rip),%rax        # 1daa0 <g_1291>
    eb1d:	48 89 85 c8 fc ff ff 	mov    %rax,-0x338(%rbp)
    eb24:	48 8d 85 57 eb ff ff 	lea    -0x14a9(%rbp),%rax
    eb2b:	48 89 85 d0 fc ff ff 	mov    %rax,-0x330(%rbp)
    eb32:	48 8d 05 04 e6 00 00 	lea    0xe604(%rip),%rax        # 1d13d <g_92+0x7d>
    eb39:	48 89 85 d8 fc ff ff 	mov    %rax,-0x328(%rbp)
    eb40:	48 8d 05 99 24 01 00 	lea    0x12499(%rip),%rax        # 20fe0 <g_247>
    eb47:	48 89 85 e0 fc ff ff 	mov    %rax,-0x320(%rbp)
    eb4e:	48 8d 05 8c e5 00 00 	lea    0xe58c(%rip),%rax        # 1d0e1 <g_92+0x21>
    eb55:	48 89 85 e8 fc ff ff 	mov    %rax,-0x318(%rbp)
    eb5c:	48 8d 05 3d ef 00 00 	lea    0xef3d(%rip),%rax        # 1daa0 <g_1291>
    eb63:	48 89 85 f0 fc ff ff 	mov    %rax,-0x310(%rbp)
    eb6a:	48 8d 05 cc e5 00 00 	lea    0xe5cc(%rip),%rax        # 1d13d <g_92+0x7d>
    eb71:	48 89 85 f8 fc ff ff 	mov    %rax,-0x308(%rbp)
    eb78:	48 8d 85 57 eb ff ff 	lea    -0x14a9(%rbp),%rax
    eb7f:	48 89 85 00 fd ff ff 	mov    %rax,-0x300(%rbp)
    eb86:	48 8d 05 b0 e5 00 00 	lea    0xe5b0(%rip),%rax        # 1d13d <g_92+0x7d>
    eb8d:	48 89 85 08 fd ff ff 	mov    %rax,-0x2f8(%rbp)
    eb94:	48 c7 85 10 fd ff ff 	movq   $0x0,-0x2f0(%rbp)
    eb9b:	00 00 00 00 
    eb9f:	48 8d 85 58 eb ff ff 	lea    -0x14a8(%rbp),%rax
    eba6:	48 89 85 18 fd ff ff 	mov    %rax,-0x2e8(%rbp)
    ebad:	48 8d 05 b1 e5 00 00 	lea    0xe5b1(%rip),%rax        # 1d165 <g_92+0xa5>
    ebb4:	48 89 85 20 fd ff ff 	mov    %rax,-0x2e0(%rbp)
    ebbb:	48 8d 85 57 eb ff ff 	lea    -0x14a9(%rbp),%rax
    ebc2:	48 89 85 28 fd ff ff 	mov    %rax,-0x2d8(%rbp)
    ebc9:	48 8d 05 d0 ee 00 00 	lea    0xeed0(%rip),%rax        # 1daa0 <g_1291>
    ebd0:	48 89 85 30 fd ff ff 	mov    %rax,-0x2d0(%rbp)
    ebd7:	48 8d 05 5f e5 00 00 	lea    0xe55f(%rip),%rax        # 1d13d <g_92+0x7d>
    ebde:	48 89 85 38 fd ff ff 	mov    %rax,-0x2c8(%rbp)
    ebe5:	48 8d 05 f4 23 01 00 	lea    0x123f4(%rip),%rax        # 20fe0 <g_247>
    ebec:	48 89 85 40 fd ff ff 	mov    %rax,-0x2c0(%rbp)
    ebf3:	48 8d 05 e6 23 01 00 	lea    0x123e6(%rip),%rax        # 20fe0 <g_247>
    ebfa:	48 89 85 48 fd ff ff 	mov    %rax,-0x2b8(%rbp)
    ec01:	48 8d 05 be e4 00 00 	lea    0xe4be(%rip),%rax        # 1d0c6 <g_92+0x6>
    ec08:	48 89 85 50 fd ff ff 	mov    %rax,-0x2b0(%rbp)
    ec0f:	48 8d 05 ca 23 01 00 	lea    0x123ca(%rip),%rax        # 20fe0 <g_247>
    ec16:	48 89 85 58 fd ff ff 	mov    %rax,-0x2a8(%rbp)
    ec1d:	48 8d 85 57 eb ff ff 	lea    -0x14a9(%rbp),%rax
    ec24:	48 89 85 60 fd ff ff 	mov    %rax,-0x2a0(%rbp)
    ec2b:	48 8d 85 58 eb ff ff 	lea    -0x14a8(%rbp),%rax
    ec32:	48 89 85 68 fd ff ff 	mov    %rax,-0x298(%rbp)
    ec39:	48 8d 05 a0 23 01 00 	lea    0x123a0(%rip),%rax        # 20fe0 <g_247>
    ec40:	48 89 85 70 fd ff ff 	mov    %rax,-0x290(%rbp)
    ec47:	48 c7 85 78 fd ff ff 	movq   $0x0,-0x288(%rbp)
    ec4e:	00 00 00 00 
    ec52:	48 8d 85 58 eb ff ff 	lea    -0x14a8(%rbp),%rax
    ec59:	48 89 85 80 fd ff ff 	mov    %rax,-0x280(%rbp)
    ec60:	48 8d 05 d6 e4 00 00 	lea    0xe4d6(%rip),%rax        # 1d13d <g_92+0x7d>
    ec67:	48 89 85 88 fd ff ff 	mov    %rax,-0x278(%rbp)
    ec6e:	48 8d 05 2b ee 00 00 	lea    0xee2b(%rip),%rax        # 1daa0 <g_1291>
    ec75:	48 89 85 90 fd ff ff 	mov    %rax,-0x270(%rbp)
    ec7c:	48 8d 05 ba e4 00 00 	lea    0xe4ba(%rip),%rax        # 1d13d <g_92+0x7d>
    ec83:	48 89 85 98 fd ff ff 	mov    %rax,-0x268(%rbp)
    ec8a:	48 8d 05 4f 23 01 00 	lea    0x1234f(%rip),%rax        # 20fe0 <g_247>
    ec91:	48 89 85 a0 fd ff ff 	mov    %rax,-0x260(%rbp)
    ec98:	48 8d 85 57 eb ff ff 	lea    -0x14a9(%rbp),%rax
    ec9f:	48 89 85 a8 fd ff ff 	mov    %rax,-0x258(%rbp)
    eca6:	48 8d 05 f3 ed 00 00 	lea    0xedf3(%rip),%rax        # 1daa0 <g_1291>
    ecad:	48 89 85 b0 fd ff ff 	mov    %rax,-0x250(%rbp)
    ecb4:	48 8d 85 57 eb ff ff 	lea    -0x14a9(%rbp),%rax
    ecbb:	48 89 85 b8 fd ff ff 	mov    %rax,-0x248(%rbp)
    ecc2:	48 8d 85 58 eb ff ff 	lea    -0x14a8(%rbp),%rax
    ecc9:	48 89 85 c0 fd ff ff 	mov    %rax,-0x240(%rbp)
    ecd0:	48 8d 85 57 eb ff ff 	lea    -0x14a9(%rbp),%rax
    ecd7:	48 89 85 c8 fd ff ff 	mov    %rax,-0x238(%rbp)
    ecde:	48 8d 05 fc e3 00 00 	lea    0xe3fc(%rip),%rax        # 1d0e1 <g_92+0x21>
    ece5:	48 89 85 d0 fd ff ff 	mov    %rax,-0x230(%rbp)
    ecec:	48 8d 05 ed 22 01 00 	lea    0x122ed(%rip),%rax        # 20fe0 <g_247>
    ecf3:	48 89 85 d8 fd ff ff 	mov    %rax,-0x228(%rbp)
    ecfa:	48 c7 85 e0 fd ff ff 	movq   $0x0,-0x220(%rbp)
    ed01:	00 00 00 00 
    ed05:	48 8d 85 57 eb ff ff 	lea    -0x14a9(%rbp),%rax
    ed0c:	48 89 85 e8 fd ff ff 	mov    %rax,-0x218(%rbp)
    ed13:	48 8d 05 b2 e3 00 00 	lea    0xe3b2(%rip),%rax        # 1d0cc <g_92+0xc>
    ed1a:	48 89 85 f0 fd ff ff 	mov    %rax,-0x210(%rbp)
    ed21:	48 8d 05 2b e4 00 00 	lea    0xe42b(%rip),%rax        # 1d153 <g_92+0x93>
    ed28:	48 89 85 f8 fd ff ff 	mov    %rax,-0x208(%rbp)
    ed2f:	48 8d 85 57 eb ff ff 	lea    -0x14a9(%rbp),%rax
    ed36:	48 89 85 00 fe ff ff 	mov    %rax,-0x200(%rbp)
    ed3d:	48 8d 05 9c 22 01 00 	lea    0x1229c(%rip),%rax        # 20fe0 <g_247>
    ed44:	48 89 85 08 fe ff ff 	mov    %rax,-0x1f8(%rbp)
    ed4b:	48 8d 85 57 eb ff ff 	lea    -0x14a9(%rbp),%rax
    ed52:	48 89 85 10 fe ff ff 	mov    %rax,-0x1f0(%rbp)
    ed59:	48 8d 05 6c e3 00 00 	lea    0xe36c(%rip),%rax        # 1d0cc <g_92+0xc>
    ed60:	48 89 85 18 fe ff ff 	mov    %rax,-0x1e8(%rbp)
    ed67:	48 8d 05 32 ed 00 00 	lea    0xed32(%rip),%rax        # 1daa0 <g_1291>
    ed6e:	48 89 85 20 fe ff ff 	mov    %rax,-0x1e0(%rbp)
    ed75:	48 8d 85 57 eb ff ff 	lea    -0x14a9(%rbp),%rax
    ed7c:	48 89 85 28 fe ff ff 	mov    %rax,-0x1d8(%rbp)
    ed83:	48 8d 05 16 ed 00 00 	lea    0xed16(%rip),%rax        # 1daa0 <g_1291>
    ed8a:	48 89 85 30 fe ff ff 	mov    %rax,-0x1d0(%rbp)
    ed91:	48 8d 05 2c e3 00 00 	lea    0xe32c(%rip),%rax        # 1d0c4 <g_92+0x4>
    ed98:	48 89 85 38 fe ff ff 	mov    %rax,-0x1c8(%rbp)
    ed9f:	48 8d 05 bf e3 00 00 	lea    0xe3bf(%rip),%rax        # 1d165 <g_92+0xa5>
    eda6:	48 89 85 40 fe ff ff 	mov    %rax,-0x1c0(%rbp)
    edad:	48 8d 05 18 e3 00 00 	lea    0xe318(%rip),%rax        # 1d0cc <g_92+0xc>
    edb4:	48 89 85 48 fe ff ff 	mov    %rax,-0x1b8(%rbp)
    edbb:	48 8d 85 57 eb ff ff 	lea    -0x14a9(%rbp),%rax
    edc2:	48 89 85 50 fe ff ff 	mov    %rax,-0x1b0(%rbp)
    edc9:	48 8d 85 57 eb ff ff 	lea    -0x14a9(%rbp),%rax
    edd0:	48 89 85 58 fe ff ff 	mov    %rax,-0x1a8(%rbp)
    edd7:	48 8d 85 57 eb ff ff 	lea    -0x14a9(%rbp),%rax
    edde:	48 89 85 60 fe ff ff 	mov    %rax,-0x1a0(%rbp)
    ede5:	48 8d 05 d7 e2 00 00 	lea    0xe2d7(%rip),%rax        # 1d0c3 <g_92+0x3>
    edec:	48 89 85 68 fe ff ff 	mov    %rax,-0x198(%rbp)
    edf3:	48 8d 05 43 e3 00 00 	lea    0xe343(%rip),%rax        # 1d13d <g_92+0x7d>
    edfa:	48 89 85 70 fe ff ff 	mov    %rax,-0x190(%rbp)
    ee01:	48 8d 85 57 eb ff ff 	lea    -0x14a9(%rbp),%rax
    ee08:	48 89 85 78 fe ff ff 	mov    %rax,-0x188(%rbp)
    ee0f:	48 8d 85 58 eb ff ff 	lea    -0x14a8(%rbp),%rax
    ee16:	48 89 85 80 fe ff ff 	mov    %rax,-0x180(%rbp)
    ee1d:	48 8d 05 7c ec 00 00 	lea    0xec7c(%rip),%rax        # 1daa0 <g_1291>
    ee24:	48 89 85 88 fe ff ff 	mov    %rax,-0x178(%rbp)
    ee2b:	48 c7 85 90 fe ff ff 	movq   $0x0,-0x170(%rbp)
    ee32:	00 00 00 00 
    ee36:	48 8d 05 00 e3 00 00 	lea    0xe300(%rip),%rax        # 1d13d <g_92+0x7d>
    ee3d:	48 89 85 98 fe ff ff 	mov    %rax,-0x168(%rbp)
    ee44:	48 8d 05 95 21 01 00 	lea    0x12195(%rip),%rax        # 20fe0 <g_247>
    ee4b:	48 89 85 a0 fe ff ff 	mov    %rax,-0x160(%rbp)
    ee52:	48 8d 05 0c e3 00 00 	lea    0xe30c(%rip),%rax        # 1d165 <g_92+0xa5>
    ee59:	48 89 85 a8 fe ff ff 	mov    %rax,-0x158(%rbp)
    ee60:	48 c7 85 b0 fe ff ff 	movq   $0x0,-0x150(%rbp)
    ee67:	00 00 00 00 
    ee6b:	48 8d 05 54 e2 00 00 	lea    0xe254(%rip),%rax        # 1d0c6 <g_92+0x6>
    ee72:	48 89 85 b8 fe ff ff 	mov    %rax,-0x148(%rbp)
    ee79:	48 8d 05 4c e2 00 00 	lea    0xe24c(%rip),%rax        # 1d0cc <g_92+0xc>
    ee80:	48 89 85 c0 fe ff ff 	mov    %rax,-0x140(%rbp)
    ee87:	48 c7 85 c8 fe ff ff 	movq   $0x0,-0x138(%rbp)
    ee8e:	00 00 00 00 
    ee92:	48 8d 05 4a e2 00 00 	lea    0xe24a(%rip),%rax        # 1d0e3 <g_92+0x23>
    ee99:	48 89 85 d0 fe ff ff 	mov    %rax,-0x130(%rbp)
    eea0:	48 8d 05 f9 eb 00 00 	lea    0xebf9(%rip),%rax        # 1daa0 <g_1291>
    eea7:	48 89 85 d8 fe ff ff 	mov    %rax,-0x128(%rbp)
    eeae:	48 8d 85 57 eb ff ff 	lea    -0x14a9(%rbp),%rax
    eeb5:	48 89 85 e0 fe ff ff 	mov    %rax,-0x120(%rbp)
    eebc:	48 8d 05 1d 21 01 00 	lea    0x1211d(%rip),%rax        # 20fe0 <g_247>
    eec3:	48 89 85 e8 fe ff ff 	mov    %rax,-0x118(%rbp)
    eeca:	48 8d 05 6c e2 00 00 	lea    0xe26c(%rip),%rax        # 1d13d <g_92+0x7d>
    eed1:	48 89 85 f0 fe ff ff 	mov    %rax,-0x110(%rbp)
    eed8:	48 8d 05 5e e2 00 00 	lea    0xe25e(%rip),%rax        # 1d13d <g_92+0x7d>
    eedf:	48 89 85 f8 fe ff ff 	mov    %rax,-0x108(%rbp)
    eee6:	48 8d 05 f3 20 01 00 	lea    0x120f3(%rip),%rax        # 20fe0 <g_247>
    eeed:	48 89 85 00 ff ff ff 	mov    %rax,-0x100(%rbp)
    eef4:	48 8d 85 57 eb ff ff 	lea    -0x14a9(%rbp),%rax
    eefb:	48 89 85 08 ff ff ff 	mov    %rax,-0xf8(%rbp)
    ef02:	48 8d 85 57 eb ff ff 	lea    -0x14a9(%rbp),%rax
    ef09:	48 89 85 10 ff ff ff 	mov    %rax,-0xf0(%rbp)
    ef10:	48 8d 05 c9 20 01 00 	lea    0x120c9(%rip),%rax        # 20fe0 <g_247>
    ef17:	48 89 85 18 ff ff ff 	mov    %rax,-0xe8(%rbp)
    ef1e:	48 8d 05 bb 20 01 00 	lea    0x120bb(%rip),%rax        # 20fe0 <g_247>
    ef25:	48 89 85 20 ff ff ff 	mov    %rax,-0xe0(%rbp)
    ef2c:	48 8d 05 ad 20 01 00 	lea    0x120ad(%rip),%rax        # 20fe0 <g_247>
    ef33:	48 89 85 28 ff ff ff 	mov    %rax,-0xd8(%rbp)
    ef3a:	48 8d 05 fc e1 00 00 	lea    0xe1fc(%rip),%rax        # 1d13d <g_92+0x7d>
    ef41:	48 89 85 30 ff ff ff 	mov    %rax,-0xd0(%rbp)
    ef48:	48 8d 05 04 e2 00 00 	lea    0xe204(%rip),%rax        # 1d153 <g_92+0x93>
    ef4f:	48 89 85 38 ff ff ff 	mov    %rax,-0xc8(%rbp)
    ef56:	48 8d 05 67 e1 00 00 	lea    0xe167(%rip),%rax        # 1d0c4 <g_92+0x4>
    ef5d:	48 89 85 40 ff ff ff 	mov    %rax,-0xc0(%rbp)
    ef64:	48 8d 05 75 20 01 00 	lea    0x12075(%rip),%rax        # 20fe0 <g_247>
    ef6b:	48 89 85 48 ff ff ff 	mov    %rax,-0xb8(%rbp)
    ef72:	48 8d 05 c4 e1 00 00 	lea    0xe1c4(%rip),%rax        # 1d13d <g_92+0x7d>
    ef79:	48 89 85 50 ff ff ff 	mov    %rax,-0xb0(%rbp)
    ef80:	48 8d 05 45 e1 00 00 	lea    0xe145(%rip),%rax        # 1d0cc <g_92+0xc>
    ef87:	48 89 85 58 ff ff ff 	mov    %rax,-0xa8(%rbp)
    ef8e:	48 8d 85 58 eb ff ff 	lea    -0x14a8(%rbp),%rax
    ef95:	48 89 85 60 ff ff ff 	mov    %rax,-0xa0(%rbp)
    ef9c:	48 8d 85 58 eb ff ff 	lea    -0x14a8(%rbp),%rax
    efa3:	48 89 85 68 ff ff ff 	mov    %rax,-0x98(%rbp)
    efaa:	48 8d 05 2f 20 01 00 	lea    0x1202f(%rip),%rax        # 20fe0 <g_247>
    efb1:	48 89 85 70 ff ff ff 	mov    %rax,-0x90(%rbp)
    efb8:	48 8d 05 7e e1 00 00 	lea    0xe17e(%rip),%rax        # 1d13d <g_92+0x7d>
    efbf:	48 89 85 78 ff ff ff 	mov    %rax,-0x88(%rbp)
    efc6:	48 8d 85 58 eb ff ff 	lea    -0x14a8(%rbp),%rax
    efcd:	48 89 45 80          	mov    %rax,-0x80(%rbp)
    efd1:	48 8d 05 65 e1 00 00 	lea    0xe165(%rip),%rax        # 1d13d <g_92+0x7d>
    efd8:	48 89 45 88          	mov    %rax,-0x78(%rbp)
    efdc:	48 8d 85 58 eb ff ff 	lea    -0x14a8(%rbp),%rax
    efe3:	48 89 45 90          	mov    %rax,-0x70(%rbp)
    efe7:	48 8d 85 57 eb ff ff 	lea    -0x14a9(%rbp),%rax
    efee:	48 89 45 98          	mov    %rax,-0x68(%rbp)
    eff2:	48 8d 05 e7 1f 01 00 	lea    0x11fe7(%rip),%rax        # 20fe0 <g_247>
    eff9:	48 89 45 a0          	mov    %rax,-0x60(%rbp)
    effd:	48 8d 05 dc 1f 01 00 	lea    0x11fdc(%rip),%rax        # 20fe0 <g_247>
    f004:	48 89 45 a8          	mov    %rax,-0x58(%rbp)
    f008:	48 c7 85 d8 eb ff ff 	movq   $0x0,-0x1428(%rbp)
    f00f:	00 00 00 00 
    f013:	48 8d 85 d0 eb ff ff 	lea    -0x1430(%rbp),%rax
    f01a:	48 89 85 e0 eb ff ff 	mov    %rax,-0x1420(%rbp)
    f021:	48 8d 85 e0 eb ff ff 	lea    -0x1420(%rbp),%rax
    f028:	48 89 85 58 ec ff ff 	mov    %rax,-0x13a8(%rbp)
    f02f:	c7 85 74 eb ff ff 00 	movl   $0x0,-0x148c(%rbp)
    f036:	00 00 00 
    f039:	eb 1e                	jmp    f059 <func_40+0xf56>
    f03b:	8b 85 74 eb ff ff    	mov    -0x148c(%rbp),%eax
    f041:	48 98                	cltq   
    f043:	48 8d 15 f4 e2 00 00 	lea    0xe2f4(%rip),%rdx        # 1d33e <g_403>
    f04a:	48 89 94 c5 c0 ed ff 	mov    %rdx,-0x1240(%rbp,%rax,8)
    f051:	ff 
    f052:	83 85 74 eb ff ff 01 	addl   $0x1,-0x148c(%rbp)
    f059:	83 bd 74 eb ff ff 06 	cmpl   $0x6,-0x148c(%rbp)
    f060:	7e d9                	jle    f03b <func_40+0xf38>
    f062:	c7 85 74 eb ff ff 00 	movl   $0x0,-0x148c(%rbp)
    f069:	00 00 00 
    f06c:	eb 1b                	jmp    f089 <func_40+0xf86>
    f06e:	8b 85 74 eb ff ff    	mov    -0x148c(%rbp),%eax
    f074:	48 98                	cltq   
    f076:	48 c7 84 c5 40 ee ff 	movq   $0x0,-0x11c0(%rbp,%rax,8)
    f07d:	ff 00 00 00 00 
    f082:	83 85 74 eb ff ff 01 	addl   $0x1,-0x148c(%rbp)
    f089:	83 bd 74 eb ff ff 08 	cmpl   $0x8,-0x148c(%rbp)
    f090:	7e dc                	jle    f06e <func_40+0xf6b>
    f092:	c7 85 74 eb ff ff 00 	movl   $0x0,-0x148c(%rbp)
    f099:	00 00 00 
    f09c:	eb 42                	jmp    f0e0 <func_40+0xfdd>
    f09e:	c7 85 78 eb ff ff 00 	movl   $0x0,-0x1488(%rbp)
    f0a5:	00 00 00 
    f0a8:	eb 26                	jmp    f0d0 <func_40+0xfcd>
    f0aa:	8b 85 78 eb ff ff    	mov    -0x1488(%rbp),%eax
    f0b0:	48 63 d0             	movslq %eax,%rdx
    f0b3:	8b 85 74 eb ff ff    	mov    -0x148c(%rbp),%eax
    f0b9:	48 98                	cltq   
    f0bb:	48 01 d0             	add    %rdx,%rax
    f0be:	c7 84 85 40 ed ff ff 	movl   $0xffffffff,-0x12c0(%rbp,%rax,4)
    f0c5:	ff ff ff ff 
    f0c9:	83 85 78 eb ff ff 01 	addl   $0x1,-0x1488(%rbp)
    f0d0:	83 bd 78 eb ff ff 00 	cmpl   $0x0,-0x1488(%rbp)
    f0d7:	7e d1                	jle    f0aa <func_40+0xfa7>
    f0d9:	83 85 74 eb ff ff 01 	addl   $0x1,-0x148c(%rbp)
    f0e0:	83 bd 74 eb ff ff 03 	cmpl   $0x3,-0x148c(%rbp)
    f0e7:	7e b5                	jle    f09e <func_40+0xf9b>
    f0e9:	90                   	nop
    f0ea:	0f b6 9d 4c eb ff ff 	movzbl -0x14b4(%rbp),%ebx
    f0f1:	bf 57 60 00 00       	mov    $0x6057,%edi
    f0f6:	e8 ee 9b ff ff       	callq  8ce9 <safe_unary_minus_func_uint16_t_u>
    f0fb:	66 39 c3             	cmp    %ax,%bx
    f0fe:	0f 97 c2             	seta   %dl
    f101:	48 8b 05 f0 fe 00 00 	mov    0xfef0(%rip),%rax        # 1eff8 <g_804>
    f108:	0f b6 d2             	movzbl %dl,%edx
    f10b:	89 10                	mov    %edx,(%rax)
    f10d:	48 8b 05 34 e2 00 00 	mov    0xe234(%rip),%rax        # 1d348 <g_733>
    f114:	0f b7 d8             	movzwl %ax,%ebx
    f117:	44 8b a5 8c eb ff ff 	mov    -0x1474(%rbp),%r12d
    f11e:	8b 85 8c eb ff ff    	mov    -0x1474(%rbp),%eax
    f124:	44 0f b6 e8          	movzbl %al,%r13d
    f128:	8b 85 6c eb ff ff    	mov    -0x1494(%rbp),%eax
    f12e:	85 c0                	test   %eax,%eax
    f130:	0f 9e c0             	setle  %al
    f133:	0f b6 c0             	movzbl %al,%eax
    f136:	89 85 48 eb ff ff    	mov    %eax,-0x14b8(%rbp)
    f13c:	c6 85 4c eb ff ff 95 	movb   $0x95,-0x14b4(%rbp)
    f143:	8b 85 8c eb ff ff    	mov    -0x1474(%rbp),%eax
    f149:	44 0f be f0          	movsbl %al,%r14d
    f14d:	8b 85 8c eb ff ff    	mov    -0x1474(%rbp),%eax
    f153:	44 0f be f8          	movsbl %al,%r15d
    f157:	0f b6 85 4c eb ff ff 	movzbl -0x14b4(%rbp),%eax
    f15e:	0f be c0             	movsbl %al,%eax
    f161:	89 85 44 eb ff ff    	mov    %eax,-0x14bc(%rbp)
    f167:	8b 85 6c eb ff ff    	mov    -0x1494(%rbp),%eax
    f16d:	3d f5 00 00 00       	cmp    $0xf5,%eax
    f172:	0f 97 c0             	seta   %al
    f175:	0f b6 c0             	movzbl %al,%eax
    f178:	be 0c 00 00 00       	mov    $0xc,%esi
    f17d:	89 c7                	mov    %eax,%edi
    f17f:	e8 3a 9c ff ff       	callq  8dbe <safe_lshift_func_uint16_t_u_s>
    f184:	0f b7 c0             	movzwl %ax,%eax
    f187:	48 89 c6             	mov    %rax,%rsi
    f18a:	48 bf 01 82 0f fb c3 	movabs $0x92a5bdc3fb0f8201,%rdi
    f191:	bd a5 92 
    f194:	e8 0f 97 ff ff       	callq  88a8 <safe_sub_func_int64_t_s_s>
    f199:	48 89 c2             	mov    %rax,%rdx
    f19c:	48 8b 85 d0 eb ff ff 	mov    -0x1430(%rbp),%rax
    f1a3:	88 10                	mov    %dl,(%rax)
    f1a5:	0f b6 00             	movzbl (%rax),%eax
    f1a8:	0f be c0             	movsbl %al,%eax
    f1ab:	8b b5 44 eb ff ff    	mov    -0x14bc(%rbp),%esi
    f1b1:	89 c7                	mov    %eax,%edi
    f1b3:	e8 5a 90 ff ff       	callq  8212 <safe_mul_func_int8_t_s_s>
    f1b8:	0f be c0             	movsbl %al,%eax
    f1bb:	44 89 fe             	mov    %r15d,%esi
    f1be:	89 c7                	mov    %eax,%edi
    f1c0:	e8 a5 90 ff ff       	callq  826a <safe_div_func_int8_t_s_s>
    f1c5:	0f be c0             	movsbl %al,%eax
    f1c8:	44 89 f6             	mov    %r14d,%esi
    f1cb:	89 c7                	mov    %eax,%edi
    f1cd:	e8 5f 90 ff ff       	callq  8231 <safe_mod_func_int8_t_s_s>
    f1d2:	0f be d0             	movsbl %al,%edx
    f1d5:	0f b6 85 4c eb ff ff 	movzbl -0x14b4(%rbp),%eax
    f1dc:	0f be c0             	movsbl %al,%eax
    f1df:	89 d6                	mov    %edx,%esi
    f1e1:	89 c7                	mov    %eax,%edi
    f1e3:	e8 4d 91 ff ff       	callq  8335 <safe_rshift_func_int8_t_s_s>
    f1e8:	0f be d0             	movsbl %al,%edx
    f1eb:	48 8b 85 08 ec ff ff 	mov    -0x13f8(%rbp),%rax
    f1f2:	89 10                	mov    %edx,(%rax)
    f1f4:	48 8b 85 08 ec ff ff 	mov    -0x13f8(%rbp),%rax
    f1fb:	8b 00                	mov    (%rax),%eax
    f1fd:	85 c0                	test   %eax,%eax
    f1ff:	74 08                	je     f209 <func_40+0x1106>
    f201:	8b 85 6c eb ff ff    	mov    -0x1494(%rbp),%eax
    f207:	85 c0                	test   %eax,%eax
    f209:	0f b6 85 4c eb ff ff 	movzbl -0x14b4(%rbp),%eax
    f210:	89 c6                	mov    %eax,%esi
    f212:	bf fc 00 00 00       	mov    $0xfc,%edi
    f217:	e8 92 99 ff ff       	callq  8bae <safe_mod_func_uint8_t_u_u>
    f21c:	0f b6 c0             	movzbl %al,%eax
    f21f:	be 0a 00 00 00       	mov    $0xa,%esi
    f224:	89 c7                	mov    %eax,%edi
    f226:	e8 b6 92 ff ff       	callq  84e1 <safe_lshift_func_int16_t_s_u>
    f22b:	66 85 c0             	test   %ax,%ax
    f22e:	74 07                	je     f237 <func_40+0x1134>
    f230:	ba 01 00 00 00       	mov    $0x1,%edx
    f235:	eb 05                	jmp    f23c <func_40+0x1139>
    f237:	ba 00 00 00 00       	mov    $0x0,%edx
    f23c:	8b 85 6c eb ff ff    	mov    -0x1494(%rbp),%eax
    f242:	09 d0                	or     %edx,%eax
    f244:	39 85 48 eb ff ff    	cmp    %eax,-0x14b8(%rbp)
    f24a:	0f 9c c0             	setl   %al
    f24d:	0f b6 c0             	movzbl %al,%eax
    f250:	89 c2                	mov    %eax,%edx
    f252:	0f b6 05 e6 e0 00 00 	movzbl 0xe0e6(%rip),%eax        # 1d33f <g_480>
    f259:	09 d0                	or     %edx,%eax
    f25b:	88 05 de e0 00 00    	mov    %al,0xe0de(%rip)        # 1d33f <g_480>
    f261:	c7 85 6c eb ff ff fd 	movl   $0xfd,-0x1494(%rbp)
    f268:	00 00 00 
    f26b:	8b 85 6c eb ff ff    	mov    -0x1494(%rbp),%eax
    f271:	0f b6 c0             	movzbl %al,%eax
    f274:	44 89 ee             	mov    %r13d,%esi
    f277:	89 c7                	mov    %eax,%edi
    f279:	e8 15 99 ff ff       	callq  8b93 <safe_mul_func_uint8_t_u_u>
    f27e:	0f b6 c0             	movzbl %al,%eax
    f281:	44 89 e6             	mov    %r12d,%esi
    f284:	89 c7                	mov    %eax,%edi
    f286:	e8 c1 99 ff ff       	callq  8c4c <safe_lshift_func_uint8_t_u_u>
    f28b:	0f b6 c0             	movzbl %al,%eax
    f28e:	89 de                	mov    %ebx,%esi
    f290:	89 c7                	mov    %eax,%edi
    f292:	e8 88 9a ff ff       	callq  8d1f <safe_sub_func_uint16_t_u_u>
    f297:	66 85 c0             	test   %ax,%ax
    f29a:	0f 84 9d 0f 00 00    	je     1023d <func_40+0x213a>
    f2a0:	48 8d 05 e1 de 00 00 	lea    0xdee1(%rip),%rax        # 1d188 <g_132+0x8>
    f2a7:	48 89 85 c0 ec ff ff 	mov    %rax,-0x1340(%rbp)
    f2ae:	48 8d 05 7b f2 00 00 	lea    0xf27b(%rip),%rax        # 1e530 <g_208>
    f2b5:	48 89 85 e8 eb ff ff 	mov    %rax,-0x1418(%rbp)
    f2bc:	48 8d 85 e8 eb ff ff 	lea    -0x1418(%rbp),%rax
    f2c3:	48 89 85 c8 ec ff ff 	mov    %rax,-0x1338(%rbp)
    f2ca:	c7 85 b0 eb ff ff 16 	movl   $0x51fed816,-0x1450(%rbp)
    f2d1:	d8 fe 51 
    f2d4:	48 8d 85 6c eb ff ff 	lea    -0x1494(%rbp),%rax
    f2db:	48 89 85 d0 ec ff ff 	mov    %rax,-0x1330(%rbp)
    f2e2:	48 8d 05 d7 f1 00 00 	lea    0xf1d7(%rip),%rax        # 1e4c0 <g_62+0xc0>
    f2e9:	48 89 85 f0 eb ff ff 	mov    %rax,-0x1410(%rbp)
    f2f0:	48 8d 85 f0 eb ff ff 	lea    -0x1410(%rbp),%rax
    f2f7:	48 89 85 d8 ec ff ff 	mov    %rax,-0x1328(%rbp)
    f2fe:	66 c7 85 5c eb ff ff 	movw   $0x30a8,-0x14a4(%rbp)
    f305:	a8 30 
    f307:	c7 85 b4 eb ff ff ff 	movl   $0xffffffff,-0x144c(%rbp)
    f30e:	ff ff ff 
    f311:	c6 85 59 eb ff ff a9 	movb   $0xa9,-0x14a7(%rbp)
    f318:	48 8d 85 40 ed ff ff 	lea    -0x12c0(%rbp),%rax
    f31f:	48 83 c0 08          	add    $0x8,%rax
    f323:	48 89 85 e0 ec ff ff 	mov    %rax,-0x1320(%rbp)
    f32a:	48 8d 85 38 ed ff ff 	lea    -0x12c8(%rbp),%rax
    f331:	48 89 85 e8 ec ff ff 	mov    %rax,-0x1318(%rbp)
    f338:	48 8d 85 5c eb ff ff 	lea    -0x14a4(%rbp),%rax
    f33f:	48 89 85 f0 ec ff ff 	mov    %rax,-0x1310(%rbp)
    f346:	48 8d 05 4b dd 00 00 	lea    0xdd4b(%rip),%rax        # 1d098 <g_63>
    f34d:	48 89 85 f8 ec ff ff 	mov    %rax,-0x1308(%rbp)
    f354:	66 c7 85 66 eb ff ff 	movw   $0x7,-0x149a(%rbp)
    f35b:	07 00 
    f35d:	c6 85 5a eb ff ff 4b 	movb   $0x4b,-0x14a6(%rbp)
    f364:	48 b8 eb e4 0e 9e a5 	movabs $0xf928fda59e0ee4eb,%rax
    f36b:	fd 28 f9 
    f36e:	48 89 85 00 ee ff ff 	mov    %rax,-0x1200(%rbp)
    f375:	48 b9 0e d1 18 42 b0 	movabs $0x48aa19b04218d10e,%rcx
    f37c:	19 aa 48 
    f37f:	48 89 8d 08 ee ff ff 	mov    %rcx,-0x11f8(%rbp)
    f386:	48 89 85 10 ee ff ff 	mov    %rax,-0x11f0(%rbp)
    f38d:	48 89 8d 18 ee ff ff 	mov    %rcx,-0x11e8(%rbp)
    f394:	48 89 85 20 ee ff ff 	mov    %rax,-0x11e0(%rbp)
    f39b:	48 89 8d 28 ee ff ff 	mov    %rcx,-0x11d8(%rbp)
    f3a2:	48 89 85 30 ee ff ff 	mov    %rax,-0x11d0(%rbp)
    f3a9:	48 89 8d 38 ee ff ff 	mov    %rcx,-0x11c8(%rbp)
    f3b0:	c7 85 b8 eb ff ff 02 	movl   $0x2,-0x1448(%rbp)
    f3b7:	00 00 00 
    f3ba:	48 8d 05 67 dc 00 00 	lea    0xdc67(%rip),%rax        # 1d028 <g_25>
    f3c1:	48 89 85 00 ed ff ff 	mov    %rax,-0x1300(%rbp)
    f3c8:	66 c7 85 68 eb ff ff 	movw   $0x4d3a,-0x1498(%rbp)
    f3cf:	3a 4d 
    f3d1:	48 8d 05 38 fc 00 00 	lea    0xfc38(%rip),%rax        # 1f010 <g_1006>
    f3d8:	48 89 85 08 ed ff ff 	mov    %rax,-0x12f8(%rbp)
    f3df:	48 c7 85 f8 eb ff ff 	movq   $0x0,-0x1408(%rbp)
    f3e6:	00 00 00 00 
    f3ea:	48 8d 85 f8 eb ff ff 	lea    -0x1408(%rbp),%rax
    f3f1:	48 89 85 20 f0 ff ff 	mov    %rax,-0xfe0(%rbp)
    f3f8:	48 8d 85 f8 eb ff ff 	lea    -0x1408(%rbp),%rax
    f3ff:	48 89 85 28 f0 ff ff 	mov    %rax,-0xfd8(%rbp)
    f406:	48 8d 85 f8 eb ff ff 	lea    -0x1408(%rbp),%rax
    f40d:	48 89 85 30 f0 ff ff 	mov    %rax,-0xfd0(%rbp)
    f414:	48 c7 85 38 f0 ff ff 	movq   $0x0,-0xfc8(%rbp)
    f41b:	00 00 00 00 
    f41f:	48 c7 85 40 f0 ff ff 	movq   $0x0,-0xfc0(%rbp)
    f426:	00 00 00 00 
    f42a:	48 8d 85 f8 eb ff ff 	lea    -0x1408(%rbp),%rax
    f431:	48 89 85 48 f0 ff ff 	mov    %rax,-0xfb8(%rbp)
    f438:	48 8d 85 f8 eb ff ff 	lea    -0x1408(%rbp),%rax
    f43f:	48 89 85 50 f0 ff ff 	mov    %rax,-0xfb0(%rbp)
    f446:	48 8d 85 f8 eb ff ff 	lea    -0x1408(%rbp),%rax
    f44d:	48 89 85 58 f0 ff ff 	mov    %rax,-0xfa8(%rbp)
    f454:	48 c7 85 60 f0 ff ff 	movq   $0x0,-0xfa0(%rbp)
    f45b:	00 00 00 00 
    f45f:	48 8d 85 f8 eb ff ff 	lea    -0x1408(%rbp),%rax
    f466:	48 89 85 68 f0 ff ff 	mov    %rax,-0xf98(%rbp)
    f46d:	48 8d 85 f8 eb ff ff 	lea    -0x1408(%rbp),%rax
    f474:	48 89 85 70 f0 ff ff 	mov    %rax,-0xf90(%rbp)
    f47b:	48 8d 85 f8 eb ff ff 	lea    -0x1408(%rbp),%rax
    f482:	48 89 85 78 f0 ff ff 	mov    %rax,-0xf88(%rbp)
    f489:	48 c7 85 80 f0 ff ff 	movq   $0x0,-0xf80(%rbp)
    f490:	00 00 00 00 
    f494:	48 8d 85 f8 eb ff ff 	lea    -0x1408(%rbp),%rax
    f49b:	48 89 85 88 f0 ff ff 	mov    %rax,-0xf78(%rbp)
    f4a2:	48 8d 85 f8 eb ff ff 	lea    -0x1408(%rbp),%rax
    f4a9:	48 89 85 90 f0 ff ff 	mov    %rax,-0xf70(%rbp)
    f4b0:	48 8d 85 f8 eb ff ff 	lea    -0x1408(%rbp),%rax
    f4b7:	48 89 85 98 f0 ff ff 	mov    %rax,-0xf68(%rbp)
    f4be:	48 c7 85 a0 f0 ff ff 	movq   $0x0,-0xf60(%rbp)
    f4c5:	00 00 00 00 
    f4c9:	48 8d 85 f8 eb ff ff 	lea    -0x1408(%rbp),%rax
    f4d0:	48 89 85 a8 f0 ff ff 	mov    %rax,-0xf58(%rbp)
    f4d7:	48 8d 85 f8 eb ff ff 	lea    -0x1408(%rbp),%rax
    f4de:	48 89 85 b0 f0 ff ff 	mov    %rax,-0xf50(%rbp)
    f4e5:	48 8d 85 f8 eb ff ff 	lea    -0x1408(%rbp),%rax
    f4ec:	48 89 85 b8 f0 ff ff 	mov    %rax,-0xf48(%rbp)
    f4f3:	48 8d 85 f8 eb ff ff 	lea    -0x1408(%rbp),%rax
    f4fa:	48 89 85 c0 f0 ff ff 	mov    %rax,-0xf40(%rbp)
    f501:	48 8d 85 f8 eb ff ff 	lea    -0x1408(%rbp),%rax
    f508:	48 89 85 c8 f0 ff ff 	mov    %rax,-0xf38(%rbp)
    f50f:	48 c7 85 d0 f0 ff ff 	movq   $0x0,-0xf30(%rbp)
    f516:	00 00 00 00 
    f51a:	48 8d 85 f8 eb ff ff 	lea    -0x1408(%rbp),%rax
    f521:	48 89 85 d8 f0 ff ff 	mov    %rax,-0xf28(%rbp)
    f528:	48 c7 85 e0 f0 ff ff 	movq   $0x0,-0xf20(%rbp)
    f52f:	00 00 00 00 
    f533:	48 c7 85 e8 f0 ff ff 	movq   $0x0,-0xf18(%rbp)
    f53a:	00 00 00 00 
    f53e:	48 8d 85 f8 eb ff ff 	lea    -0x1408(%rbp),%rax
    f545:	48 89 85 f0 f0 ff ff 	mov    %rax,-0xf10(%rbp)
    f54c:	48 8d 85 f8 eb ff ff 	lea    -0x1408(%rbp),%rax
    f553:	48 89 85 f8 f0 ff ff 	mov    %rax,-0xf08(%rbp)
    f55a:	48 c7 85 00 f1 ff ff 	movq   $0x0,-0xf00(%rbp)
    f561:	00 00 00 00 
    f565:	48 8d 85 f8 eb ff ff 	lea    -0x1408(%rbp),%rax
    f56c:	48 89 85 08 f1 ff ff 	mov    %rax,-0xef8(%rbp)
    f573:	48 8d 85 f8 eb ff ff 	lea    -0x1408(%rbp),%rax
    f57a:	48 89 85 10 f1 ff ff 	mov    %rax,-0xef0(%rbp)
    f581:	48 8d 85 f8 eb ff ff 	lea    -0x1408(%rbp),%rax
    f588:	48 89 85 18 f1 ff ff 	mov    %rax,-0xee8(%rbp)
    f58f:	48 8d 85 f8 eb ff ff 	lea    -0x1408(%rbp),%rax
    f596:	48 89 85 20 f1 ff ff 	mov    %rax,-0xee0(%rbp)
    f59d:	48 8d 85 f8 eb ff ff 	lea    -0x1408(%rbp),%rax
    f5a4:	48 89 85 28 f1 ff ff 	mov    %rax,-0xed8(%rbp)
    f5ab:	48 8d 85 f8 eb ff ff 	lea    -0x1408(%rbp),%rax
    f5b2:	48 89 85 30 f1 ff ff 	mov    %rax,-0xed0(%rbp)
    f5b9:	48 8d 85 f8 eb ff ff 	lea    -0x1408(%rbp),%rax
    f5c0:	48 89 85 38 f1 ff ff 	mov    %rax,-0xec8(%rbp)
    f5c7:	48 8d 85 f8 eb ff ff 	lea    -0x1408(%rbp),%rax
    f5ce:	48 89 85 40 f1 ff ff 	mov    %rax,-0xec0(%rbp)
    f5d5:	48 c7 85 48 f1 ff ff 	movq   $0x0,-0xeb8(%rbp)
    f5dc:	00 00 00 00 
    f5e0:	48 8d 85 f8 eb ff ff 	lea    -0x1408(%rbp),%rax
    f5e7:	48 89 85 50 f1 ff ff 	mov    %rax,-0xeb0(%rbp)
    f5ee:	48 8d 85 f8 eb ff ff 	lea    -0x1408(%rbp),%rax
    f5f5:	48 89 85 58 f1 ff ff 	mov    %rax,-0xea8(%rbp)
    f5fc:	48 8d 85 f8 eb ff ff 	lea    -0x1408(%rbp),%rax
    f603:	48 89 85 60 f1 ff ff 	mov    %rax,-0xea0(%rbp)
    f60a:	48 8d 85 f8 eb ff ff 	lea    -0x1408(%rbp),%rax
    f611:	48 89 85 68 f1 ff ff 	mov    %rax,-0xe98(%rbp)
    f618:	48 8d 85 f8 eb ff ff 	lea    -0x1408(%rbp),%rax
    f61f:	48 89 85 70 f1 ff ff 	mov    %rax,-0xe90(%rbp)
    f626:	48 8d 85 f8 eb ff ff 	lea    -0x1408(%rbp),%rax
    f62d:	48 89 85 78 f1 ff ff 	mov    %rax,-0xe88(%rbp)
    f634:	48 c7 85 80 f1 ff ff 	movq   $0x0,-0xe80(%rbp)
    f63b:	00 00 00 00 
    f63f:	48 8d 85 f8 eb ff ff 	lea    -0x1408(%rbp),%rax
    f646:	48 89 85 88 f1 ff ff 	mov    %rax,-0xe78(%rbp)
    f64d:	48 c7 85 90 f1 ff ff 	movq   $0x0,-0xe70(%rbp)
    f654:	00 00 00 00 
    f658:	48 8d 85 f8 eb ff ff 	lea    -0x1408(%rbp),%rax
    f65f:	48 89 85 98 f1 ff ff 	mov    %rax,-0xe68(%rbp)
    f666:	48 c7 85 a0 f1 ff ff 	movq   $0x0,-0xe60(%rbp)
    f66d:	00 00 00 00 
    f671:	48 8d 85 f8 eb ff ff 	lea    -0x1408(%rbp),%rax
    f678:	48 89 85 a8 f1 ff ff 	mov    %rax,-0xe58(%rbp)
    f67f:	48 8d 85 f8 eb ff ff 	lea    -0x1408(%rbp),%rax
    f686:	48 89 85 b0 f1 ff ff 	mov    %rax,-0xe50(%rbp)
    f68d:	48 8d 85 f8 eb ff ff 	lea    -0x1408(%rbp),%rax
    f694:	48 89 85 b8 f1 ff ff 	mov    %rax,-0xe48(%rbp)
    f69b:	48 8d 85 f8 eb ff ff 	lea    -0x1408(%rbp),%rax
    f6a2:	48 89 85 c0 f1 ff ff 	mov    %rax,-0xe40(%rbp)
    f6a9:	48 8d 85 f8 eb ff ff 	lea    -0x1408(%rbp),%rax
    f6b0:	48 89 85 c8 f1 ff ff 	mov    %rax,-0xe38(%rbp)
    f6b7:	48 8d 85 f8 eb ff ff 	lea    -0x1408(%rbp),%rax
    f6be:	48 89 85 d0 f1 ff ff 	mov    %rax,-0xe30(%rbp)
    f6c5:	48 8d 85 f8 eb ff ff 	lea    -0x1408(%rbp),%rax
    f6cc:	48 89 85 d8 f1 ff ff 	mov    %rax,-0xe28(%rbp)
    f6d3:	48 8d 85 f8 eb ff ff 	lea    -0x1408(%rbp),%rax
    f6da:	48 89 85 e0 f1 ff ff 	mov    %rax,-0xe20(%rbp)
    f6e1:	48 8d 85 f8 eb ff ff 	lea    -0x1408(%rbp),%rax
    f6e8:	48 89 85 e8 f1 ff ff 	mov    %rax,-0xe18(%rbp)
    f6ef:	48 8d 85 f8 eb ff ff 	lea    -0x1408(%rbp),%rax
    f6f6:	48 89 85 f0 f1 ff ff 	mov    %rax,-0xe10(%rbp)
    f6fd:	48 8d 85 f8 eb ff ff 	lea    -0x1408(%rbp),%rax
    f704:	48 89 85 f8 f1 ff ff 	mov    %rax,-0xe08(%rbp)
    f70b:	48 8d 85 f8 eb ff ff 	lea    -0x1408(%rbp),%rax
    f712:	48 89 85 00 f2 ff ff 	mov    %rax,-0xe00(%rbp)
    f719:	48 8d 85 f8 eb ff ff 	lea    -0x1408(%rbp),%rax
    f720:	48 89 85 08 f2 ff ff 	mov    %rax,-0xdf8(%rbp)
    f727:	48 8d 85 f8 eb ff ff 	lea    -0x1408(%rbp),%rax
    f72e:	48 89 85 10 f2 ff ff 	mov    %rax,-0xdf0(%rbp)
    f735:	48 8d 85 f8 eb ff ff 	lea    -0x1408(%rbp),%rax
    f73c:	48 89 85 18 f2 ff ff 	mov    %rax,-0xde8(%rbp)
    f743:	48 8d 85 f8 eb ff ff 	lea    -0x1408(%rbp),%rax
    f74a:	48 89 85 20 f2 ff ff 	mov    %rax,-0xde0(%rbp)
    f751:	48 c7 85 28 f2 ff ff 	movq   $0x0,-0xdd8(%rbp)
    f758:	00 00 00 00 
    f75c:	48 8d 85 f8 eb ff ff 	lea    -0x1408(%rbp),%rax
    f763:	48 89 85 30 f2 ff ff 	mov    %rax,-0xdd0(%rbp)
    f76a:	48 c7 85 38 f2 ff ff 	movq   $0x0,-0xdc8(%rbp)
    f771:	00 00 00 00 
    f775:	48 c7 85 40 f2 ff ff 	movq   $0x0,-0xdc0(%rbp)
    f77c:	00 00 00 00 
    f780:	48 8d 85 f8 eb ff ff 	lea    -0x1408(%rbp),%rax
    f787:	48 89 85 48 f2 ff ff 	mov    %rax,-0xdb8(%rbp)
    f78e:	48 8d 85 f8 eb ff ff 	lea    -0x1408(%rbp),%rax
    f795:	48 89 85 50 f2 ff ff 	mov    %rax,-0xdb0(%rbp)
    f79c:	48 8d 85 f8 eb ff ff 	lea    -0x1408(%rbp),%rax
    f7a3:	48 89 85 58 f2 ff ff 	mov    %rax,-0xda8(%rbp)
    f7aa:	48 8d 85 f8 eb ff ff 	lea    -0x1408(%rbp),%rax
    f7b1:	48 89 85 60 f2 ff ff 	mov    %rax,-0xda0(%rbp)
    f7b8:	48 c7 85 68 f2 ff ff 	movq   $0x0,-0xd98(%rbp)
    f7bf:	00 00 00 00 
    f7c3:	48 c7 85 70 f2 ff ff 	movq   $0x0,-0xd90(%rbp)
    f7ca:	00 00 00 00 
    f7ce:	48 8d 85 f8 eb ff ff 	lea    -0x1408(%rbp),%rax
    f7d5:	48 89 85 78 f2 ff ff 	mov    %rax,-0xd88(%rbp)
    f7dc:	48 8d 85 f8 eb ff ff 	lea    -0x1408(%rbp),%rax
    f7e3:	48 89 85 80 f2 ff ff 	mov    %rax,-0xd80(%rbp)
    f7ea:	48 8d 85 f8 eb ff ff 	lea    -0x1408(%rbp),%rax
    f7f1:	48 89 85 88 f2 ff ff 	mov    %rax,-0xd78(%rbp)
    f7f8:	48 c7 85 90 f2 ff ff 	movq   $0x0,-0xd70(%rbp)
    f7ff:	00 00 00 00 
    f803:	48 8d 85 f8 eb ff ff 	lea    -0x1408(%rbp),%rax
    f80a:	48 89 85 98 f2 ff ff 	mov    %rax,-0xd68(%rbp)
    f811:	48 8d 85 f8 eb ff ff 	lea    -0x1408(%rbp),%rax
    f818:	48 89 85 a0 f2 ff ff 	mov    %rax,-0xd60(%rbp)
    f81f:	48 8d 85 f8 eb ff ff 	lea    -0x1408(%rbp),%rax
    f826:	48 89 85 a8 f2 ff ff 	mov    %rax,-0xd58(%rbp)
    f82d:	48 c7 85 b0 f2 ff ff 	movq   $0x0,-0xd50(%rbp)
    f834:	00 00 00 00 
    f838:	48 8d 85 f8 eb ff ff 	lea    -0x1408(%rbp),%rax
    f83f:	48 89 85 b8 f2 ff ff 	mov    %rax,-0xd48(%rbp)
    f846:	48 8d 85 f8 eb ff ff 	lea    -0x1408(%rbp),%rax
    f84d:	48 89 85 c0 f2 ff ff 	mov    %rax,-0xd40(%rbp)
    f854:	48 8d 85 f8 eb ff ff 	lea    -0x1408(%rbp),%rax
    f85b:	48 89 85 c8 f2 ff ff 	mov    %rax,-0xd38(%rbp)
    f862:	48 c7 85 d0 f2 ff ff 	movq   $0x0,-0xd30(%rbp)
    f869:	00 00 00 00 
    f86d:	48 8d 85 f8 eb ff ff 	lea    -0x1408(%rbp),%rax
    f874:	48 89 85 d8 f2 ff ff 	mov    %rax,-0xd28(%rbp)
    f87b:	48 8d 85 f8 eb ff ff 	lea    -0x1408(%rbp),%rax
    f882:	48 89 85 e0 f2 ff ff 	mov    %rax,-0xd20(%rbp)
    f889:	48 8d 85 f8 eb ff ff 	lea    -0x1408(%rbp),%rax
    f890:	48 89 85 e8 f2 ff ff 	mov    %rax,-0xd18(%rbp)
    f897:	48 8d 85 f8 eb ff ff 	lea    -0x1408(%rbp),%rax
    f89e:	48 89 85 f0 f2 ff ff 	mov    %rax,-0xd10(%rbp)
    f8a5:	48 8d 85 f8 eb ff ff 	lea    -0x1408(%rbp),%rax
    f8ac:	48 89 85 f8 f2 ff ff 	mov    %rax,-0xd08(%rbp)
    f8b3:	48 c7 85 00 f3 ff ff 	movq   $0x0,-0xd00(%rbp)
    f8ba:	00 00 00 00 
    f8be:	48 8d 85 f8 eb ff ff 	lea    -0x1408(%rbp),%rax
    f8c5:	48 89 85 08 f3 ff ff 	mov    %rax,-0xcf8(%rbp)
    f8cc:	48 c7 85 10 f3 ff ff 	movq   $0x0,-0xcf0(%rbp)
    f8d3:	00 00 00 00 
    f8d7:	48 c7 85 18 f3 ff ff 	movq   $0x0,-0xce8(%rbp)
    f8de:	00 00 00 00 
    f8e2:	48 8d 85 f8 eb ff ff 	lea    -0x1408(%rbp),%rax
    f8e9:	48 89 85 20 f3 ff ff 	mov    %rax,-0xce0(%rbp)
    f8f0:	48 8d 85 f8 eb ff ff 	lea    -0x1408(%rbp),%rax
    f8f7:	48 89 85 28 f3 ff ff 	mov    %rax,-0xcd8(%rbp)
    f8fe:	48 c7 85 30 f3 ff ff 	movq   $0x0,-0xcd0(%rbp)
    f905:	00 00 00 00 
    f909:	48 8d 85 f8 eb ff ff 	lea    -0x1408(%rbp),%rax
    f910:	48 89 85 38 f3 ff ff 	mov    %rax,-0xcc8(%rbp)
    f917:	48 8d 85 f8 eb ff ff 	lea    -0x1408(%rbp),%rax
    f91e:	48 89 85 40 f3 ff ff 	mov    %rax,-0xcc0(%rbp)
    f925:	48 8d 85 f8 eb ff ff 	lea    -0x1408(%rbp),%rax
    f92c:	48 89 85 48 f3 ff ff 	mov    %rax,-0xcb8(%rbp)
    f933:	48 8d 85 f8 eb ff ff 	lea    -0x1408(%rbp),%rax
    f93a:	48 89 85 50 f3 ff ff 	mov    %rax,-0xcb0(%rbp)
    f941:	48 8d 85 f8 eb ff ff 	lea    -0x1408(%rbp),%rax
    f948:	48 89 85 58 f3 ff ff 	mov    %rax,-0xca8(%rbp)
    f94f:	48 8d 85 f8 eb ff ff 	lea    -0x1408(%rbp),%rax
    f956:	48 89 85 60 f3 ff ff 	mov    %rax,-0xca0(%rbp)
    f95d:	48 8d 85 f8 eb ff ff 	lea    -0x1408(%rbp),%rax
    f964:	48 89 85 68 f3 ff ff 	mov    %rax,-0xc98(%rbp)
    f96b:	48 8d 85 f8 eb ff ff 	lea    -0x1408(%rbp),%rax
    f972:	48 89 85 70 f3 ff ff 	mov    %rax,-0xc90(%rbp)
    f979:	48 c7 85 78 f3 ff ff 	movq   $0x0,-0xc88(%rbp)
    f980:	00 00 00 00 
    f984:	48 8d 85 f8 eb ff ff 	lea    -0x1408(%rbp),%rax
    f98b:	48 89 85 80 f3 ff ff 	mov    %rax,-0xc80(%rbp)
    f992:	48 8d 85 f8 eb ff ff 	lea    -0x1408(%rbp),%rax
    f999:	48 89 85 88 f3 ff ff 	mov    %rax,-0xc78(%rbp)
    f9a0:	48 8d 85 f8 eb ff ff 	lea    -0x1408(%rbp),%rax
    f9a7:	48 89 85 90 f3 ff ff 	mov    %rax,-0xc70(%rbp)
    f9ae:	48 8d 85 f8 eb ff ff 	lea    -0x1408(%rbp),%rax
    f9b5:	48 89 85 98 f3 ff ff 	mov    %rax,-0xc68(%rbp)
    f9bc:	48 8d 85 f8 eb ff ff 	lea    -0x1408(%rbp),%rax
    f9c3:	48 89 85 a0 f3 ff ff 	mov    %rax,-0xc60(%rbp)
    f9ca:	48 8d 85 f8 eb ff ff 	lea    -0x1408(%rbp),%rax
    f9d1:	48 89 85 a8 f3 ff ff 	mov    %rax,-0xc58(%rbp)
    f9d8:	48 c7 85 b0 f3 ff ff 	movq   $0x0,-0xc50(%rbp)
    f9df:	00 00 00 00 
    f9e3:	48 8d 85 f8 eb ff ff 	lea    -0x1408(%rbp),%rax
    f9ea:	48 89 85 b8 f3 ff ff 	mov    %rax,-0xc48(%rbp)
    f9f1:	48 c7 85 c0 f3 ff ff 	movq   $0x0,-0xc40(%rbp)
    f9f8:	00 00 00 00 
    f9fc:	48 8d 85 f8 eb ff ff 	lea    -0x1408(%rbp),%rax
    fa03:	48 89 85 c8 f3 ff ff 	mov    %rax,-0xc38(%rbp)
    fa0a:	48 c7 85 d0 f3 ff ff 	movq   $0x0,-0xc30(%rbp)
    fa11:	00 00 00 00 
    fa15:	48 8d 85 f8 eb ff ff 	lea    -0x1408(%rbp),%rax
    fa1c:	48 89 85 d8 f3 ff ff 	mov    %rax,-0xc28(%rbp)
    fa23:	48 8d 85 f8 eb ff ff 	lea    -0x1408(%rbp),%rax
    fa2a:	48 89 85 e0 f3 ff ff 	mov    %rax,-0xc20(%rbp)
    fa31:	48 8d 85 f8 eb ff ff 	lea    -0x1408(%rbp),%rax
    fa38:	48 89 85 e8 f3 ff ff 	mov    %rax,-0xc18(%rbp)
    fa3f:	48 8d 85 f8 eb ff ff 	lea    -0x1408(%rbp),%rax
    fa46:	48 89 85 f0 f3 ff ff 	mov    %rax,-0xc10(%rbp)
    fa4d:	48 8d 85 f8 eb ff ff 	lea    -0x1408(%rbp),%rax
    fa54:	48 89 85 f8 f3 ff ff 	mov    %rax,-0xc08(%rbp)
    fa5b:	48 8d 85 f8 eb ff ff 	lea    -0x1408(%rbp),%rax
    fa62:	48 89 85 00 f4 ff ff 	mov    %rax,-0xc00(%rbp)
    fa69:	48 8d 85 f8 eb ff ff 	lea    -0x1408(%rbp),%rax
    fa70:	48 89 85 08 f4 ff ff 	mov    %rax,-0xbf8(%rbp)
    fa77:	48 8d 85 f8 eb ff ff 	lea    -0x1408(%rbp),%rax
    fa7e:	48 89 85 10 f4 ff ff 	mov    %rax,-0xbf0(%rbp)
    fa85:	48 8d 85 f8 eb ff ff 	lea    -0x1408(%rbp),%rax
    fa8c:	48 89 85 18 f4 ff ff 	mov    %rax,-0xbe8(%rbp)
    fa93:	48 8d 85 f8 eb ff ff 	lea    -0x1408(%rbp),%rax
    fa9a:	48 89 85 20 f4 ff ff 	mov    %rax,-0xbe0(%rbp)
    faa1:	48 8d 85 f8 eb ff ff 	lea    -0x1408(%rbp),%rax
    faa8:	48 89 85 28 f4 ff ff 	mov    %rax,-0xbd8(%rbp)
    faaf:	48 8d 85 f8 eb ff ff 	lea    -0x1408(%rbp),%rax
    fab6:	48 89 85 30 f4 ff ff 	mov    %rax,-0xbd0(%rbp)
    fabd:	48 8d 85 f8 eb ff ff 	lea    -0x1408(%rbp),%rax
    fac4:	48 89 85 38 f4 ff ff 	mov    %rax,-0xbc8(%rbp)
    facb:	48 8d 85 f8 eb ff ff 	lea    -0x1408(%rbp),%rax
    fad2:	48 89 85 40 f4 ff ff 	mov    %rax,-0xbc0(%rbp)
    fad9:	48 8d 85 f8 eb ff ff 	lea    -0x1408(%rbp),%rax
    fae0:	48 89 85 48 f4 ff ff 	mov    %rax,-0xbb8(%rbp)
    fae7:	48 8d 85 f8 eb ff ff 	lea    -0x1408(%rbp),%rax
    faee:	48 89 85 50 f4 ff ff 	mov    %rax,-0xbb0(%rbp)
    faf5:	48 c7 85 58 f4 ff ff 	movq   $0x0,-0xba8(%rbp)
    fafc:	00 00 00 00 
    fb00:	48 8d 85 f8 eb ff ff 	lea    -0x1408(%rbp),%rax
    fb07:	48 89 85 60 f4 ff ff 	mov    %rax,-0xba0(%rbp)
    fb0e:	48 c7 85 68 f4 ff ff 	movq   $0x0,-0xb98(%rbp)
    fb15:	00 00 00 00 
    fb19:	48 c7 85 70 f4 ff ff 	movq   $0x0,-0xb90(%rbp)
    fb20:	00 00 00 00 
    fb24:	48 8d 85 f8 eb ff ff 	lea    -0x1408(%rbp),%rax
    fb2b:	48 89 85 78 f4 ff ff 	mov    %rax,-0xb88(%rbp)
    fb32:	48 8d 85 f8 eb ff ff 	lea    -0x1408(%rbp),%rax
    fb39:	48 89 85 80 f4 ff ff 	mov    %rax,-0xb80(%rbp)
    fb40:	48 8d 85 f8 eb ff ff 	lea    -0x1408(%rbp),%rax
    fb47:	48 89 85 88 f4 ff ff 	mov    %rax,-0xb78(%rbp)
    fb4e:	48 8d 85 f8 eb ff ff 	lea    -0x1408(%rbp),%rax
    fb55:	48 89 85 90 f4 ff ff 	mov    %rax,-0xb70(%rbp)
    fb5c:	48 c7 85 98 f4 ff ff 	movq   $0x0,-0xb68(%rbp)
    fb63:	00 00 00 00 
    fb67:	48 c7 85 a0 f4 ff ff 	movq   $0x0,-0xb60(%rbp)
    fb6e:	00 00 00 00 
    fb72:	48 8d 85 f8 eb ff ff 	lea    -0x1408(%rbp),%rax
    fb79:	48 89 85 a8 f4 ff ff 	mov    %rax,-0xb58(%rbp)
    fb80:	48 8d 85 f8 eb ff ff 	lea    -0x1408(%rbp),%rax
    fb87:	48 89 85 b0 f4 ff ff 	mov    %rax,-0xb50(%rbp)
    fb8e:	48 8d 85 f8 eb ff ff 	lea    -0x1408(%rbp),%rax
    fb95:	48 89 85 b8 f4 ff ff 	mov    %rax,-0xb48(%rbp)
    fb9c:	48 c7 85 c0 f4 ff ff 	movq   $0x0,-0xb40(%rbp)
    fba3:	00 00 00 00 
    fba7:	48 8d 85 f8 eb ff ff 	lea    -0x1408(%rbp),%rax
    fbae:	48 89 85 c8 f4 ff ff 	mov    %rax,-0xb38(%rbp)
    fbb5:	48 8d 85 f8 eb ff ff 	lea    -0x1408(%rbp),%rax
    fbbc:	48 89 85 d0 f4 ff ff 	mov    %rax,-0xb30(%rbp)
    fbc3:	48 8d 85 f8 eb ff ff 	lea    -0x1408(%rbp),%rax
    fbca:	48 89 85 d8 f4 ff ff 	mov    %rax,-0xb28(%rbp)
    fbd1:	48 c7 85 e0 f4 ff ff 	movq   $0x0,-0xb20(%rbp)
    fbd8:	00 00 00 00 
    fbdc:	48 8d 85 f8 eb ff ff 	lea    -0x1408(%rbp),%rax
    fbe3:	48 89 85 e8 f4 ff ff 	mov    %rax,-0xb18(%rbp)
    fbea:	48 8d 85 f8 eb ff ff 	lea    -0x1408(%rbp),%rax
    fbf1:	48 89 85 f0 f4 ff ff 	mov    %rax,-0xb10(%rbp)
    fbf8:	48 8d 85 f8 eb ff ff 	lea    -0x1408(%rbp),%rax
    fbff:	48 89 85 f8 f4 ff ff 	mov    %rax,-0xb08(%rbp)
    fc06:	48 c7 85 00 f5 ff ff 	movq   $0x0,-0xb00(%rbp)
    fc0d:	00 00 00 00 
    fc11:	48 8d 85 f8 eb ff ff 	lea    -0x1408(%rbp),%rax
    fc18:	48 89 85 08 f5 ff ff 	mov    %rax,-0xaf8(%rbp)
    fc1f:	48 8d 85 f8 eb ff ff 	lea    -0x1408(%rbp),%rax
    fc26:	48 89 85 10 f5 ff ff 	mov    %rax,-0xaf0(%rbp)
    fc2d:	48 8d 85 f8 eb ff ff 	lea    -0x1408(%rbp),%rax
    fc34:	48 89 85 18 f5 ff ff 	mov    %rax,-0xae8(%rbp)
    fc3b:	48 8d 85 f8 eb ff ff 	lea    -0x1408(%rbp),%rax
    fc42:	48 89 85 20 f5 ff ff 	mov    %rax,-0xae0(%rbp)
    fc49:	48 8d 85 f8 eb ff ff 	lea    -0x1408(%rbp),%rax
    fc50:	48 89 85 28 f5 ff ff 	mov    %rax,-0xad8(%rbp)
    fc57:	48 c7 85 30 f5 ff ff 	movq   $0x0,-0xad0(%rbp)
    fc5e:	00 00 00 00 
    fc62:	48 8d 85 f8 eb ff ff 	lea    -0x1408(%rbp),%rax
    fc69:	48 89 85 38 f5 ff ff 	mov    %rax,-0xac8(%rbp)
    fc70:	48 c7 85 40 f5 ff ff 	movq   $0x0,-0xac0(%rbp)
    fc77:	00 00 00 00 
    fc7b:	48 c7 85 48 f5 ff ff 	movq   $0x0,-0xab8(%rbp)
    fc82:	00 00 00 00 
    fc86:	48 8d 85 f8 eb ff ff 	lea    -0x1408(%rbp),%rax
    fc8d:	48 89 85 50 f5 ff ff 	mov    %rax,-0xab0(%rbp)
    fc94:	48 8d 85 f8 eb ff ff 	lea    -0x1408(%rbp),%rax
    fc9b:	48 89 85 58 f5 ff ff 	mov    %rax,-0xaa8(%rbp)
    fca2:	48 c7 85 60 f5 ff ff 	movq   $0x0,-0xaa0(%rbp)
    fca9:	00 00 00 00 
    fcad:	48 8d 85 f8 eb ff ff 	lea    -0x1408(%rbp),%rax
    fcb4:	48 89 85 68 f5 ff ff 	mov    %rax,-0xa98(%rbp)
    fcbb:	48 8d 85 f8 eb ff ff 	lea    -0x1408(%rbp),%rax
    fcc2:	48 89 85 70 f5 ff ff 	mov    %rax,-0xa90(%rbp)
    fcc9:	48 8d 85 f8 eb ff ff 	lea    -0x1408(%rbp),%rax
    fcd0:	48 89 85 78 f5 ff ff 	mov    %rax,-0xa88(%rbp)
    fcd7:	48 8d 85 f8 eb ff ff 	lea    -0x1408(%rbp),%rax
    fcde:	48 89 85 80 f5 ff ff 	mov    %rax,-0xa80(%rbp)
    fce5:	48 8d 85 f8 eb ff ff 	lea    -0x1408(%rbp),%rax
    fcec:	48 89 85 88 f5 ff ff 	mov    %rax,-0xa78(%rbp)
    fcf3:	48 8d 85 f8 eb ff ff 	lea    -0x1408(%rbp),%rax
    fcfa:	48 89 85 90 f5 ff ff 	mov    %rax,-0xa70(%rbp)
    fd01:	48 8d 85 f8 eb ff ff 	lea    -0x1408(%rbp),%rax
    fd08:	48 89 85 98 f5 ff ff 	mov    %rax,-0xa68(%rbp)
    fd0f:	48 8d 85 f8 eb ff ff 	lea    -0x1408(%rbp),%rax
    fd16:	48 89 85 a0 f5 ff ff 	mov    %rax,-0xa60(%rbp)
    fd1d:	48 8d 85 f8 eb ff ff 	lea    -0x1408(%rbp),%rax
    fd24:	48 89 85 a8 f5 ff ff 	mov    %rax,-0xa58(%rbp)
    fd2b:	48 8d 85 f8 eb ff ff 	lea    -0x1408(%rbp),%rax
    fd32:	48 89 85 b0 f5 ff ff 	mov    %rax,-0xa50(%rbp)
    fd39:	48 8d 85 f8 eb ff ff 	lea    -0x1408(%rbp),%rax
    fd40:	48 89 85 b8 f5 ff ff 	mov    %rax,-0xa48(%rbp)
    fd47:	48 8d 85 f8 eb ff ff 	lea    -0x1408(%rbp),%rax
    fd4e:	48 89 85 c0 f5 ff ff 	mov    %rax,-0xa40(%rbp)
    fd55:	48 c7 85 c8 f5 ff ff 	movq   $0x0,-0xa38(%rbp)
    fd5c:	00 00 00 00 
    fd60:	48 8d 85 f8 eb ff ff 	lea    -0x1408(%rbp),%rax
    fd67:	48 89 85 d0 f5 ff ff 	mov    %rax,-0xa30(%rbp)
    fd6e:	48 c7 85 d8 f5 ff ff 	movq   $0x0,-0xa28(%rbp)
    fd75:	00 00 00 00 
    fd79:	48 8d 85 f8 eb ff ff 	lea    -0x1408(%rbp),%rax
    fd80:	48 89 85 e0 f5 ff ff 	mov    %rax,-0xa20(%rbp)
    fd87:	48 c7 85 e8 f5 ff ff 	movq   $0x0,-0xa18(%rbp)
    fd8e:	00 00 00 00 
    fd92:	48 8d 85 f8 eb ff ff 	lea    -0x1408(%rbp),%rax
    fd99:	48 89 85 f0 f5 ff ff 	mov    %rax,-0xa10(%rbp)
    fda0:	48 8d 85 f8 eb ff ff 	lea    -0x1408(%rbp),%rax
    fda7:	48 89 85 f8 f5 ff ff 	mov    %rax,-0xa08(%rbp)
    fdae:	48 8d 85 f8 eb ff ff 	lea    -0x1408(%rbp),%rax
    fdb5:	48 89 85 00 f6 ff ff 	mov    %rax,-0xa00(%rbp)
    fdbc:	48 c7 85 08 f6 ff ff 	movq   $0x0,-0x9f8(%rbp)
    fdc3:	00 00 00 00 
    fdc7:	48 8d 85 f8 eb ff ff 	lea    -0x1408(%rbp),%rax
    fdce:	48 89 85 10 f6 ff ff 	mov    %rax,-0x9f0(%rbp)
    fdd5:	48 8d 85 f8 eb ff ff 	lea    -0x1408(%rbp),%rax
    fddc:	48 89 85 18 f6 ff ff 	mov    %rax,-0x9e8(%rbp)
    fde3:	48 c7 85 20 f6 ff ff 	movq   $0x0,-0x9e0(%rbp)
    fdea:	00 00 00 00 
    fdee:	48 8d 85 f8 eb ff ff 	lea    -0x1408(%rbp),%rax
    fdf5:	48 89 85 28 f6 ff ff 	mov    %rax,-0x9d8(%rbp)
    fdfc:	48 c7 85 30 f6 ff ff 	movq   $0x0,-0x9d0(%rbp)
    fe03:	00 00 00 00 
    fe07:	48 8d 85 f8 eb ff ff 	lea    -0x1408(%rbp),%rax
    fe0e:	48 89 85 38 f6 ff ff 	mov    %rax,-0x9c8(%rbp)
    fe15:	48 8d 85 f8 eb ff ff 	lea    -0x1408(%rbp),%rax
    fe1c:	48 89 85 40 f6 ff ff 	mov    %rax,-0x9c0(%rbp)
    fe23:	48 8d 85 f8 eb ff ff 	lea    -0x1408(%rbp),%rax
    fe2a:	48 89 85 48 f6 ff ff 	mov    %rax,-0x9b8(%rbp)
    fe31:	48 c7 85 50 f6 ff ff 	movq   $0x0,-0x9b0(%rbp)
    fe38:	00 00 00 00 
    fe3c:	48 c7 85 58 f6 ff ff 	movq   $0x0,-0x9a8(%rbp)
    fe43:	00 00 00 00 
    fe47:	48 8d 85 f8 eb ff ff 	lea    -0x1408(%rbp),%rax
    fe4e:	48 89 85 60 f6 ff ff 	mov    %rax,-0x9a0(%rbp)
    fe55:	48 8d 85 f8 eb ff ff 	lea    -0x1408(%rbp),%rax
    fe5c:	48 89 85 68 f6 ff ff 	mov    %rax,-0x998(%rbp)
    fe63:	48 8d 85 f8 eb ff ff 	lea    -0x1408(%rbp),%rax
    fe6a:	48 89 85 70 f6 ff ff 	mov    %rax,-0x990(%rbp)
    fe71:	48 8d 85 f8 eb ff ff 	lea    -0x1408(%rbp),%rax
    fe78:	48 89 85 78 f6 ff ff 	mov    %rax,-0x988(%rbp)
    fe7f:	48 c7 85 80 f6 ff ff 	movq   $0x0,-0x980(%rbp)
    fe86:	00 00 00 00 
    fe8a:	48 8d 85 f8 eb ff ff 	lea    -0x1408(%rbp),%rax
    fe91:	48 89 85 88 f6 ff ff 	mov    %rax,-0x978(%rbp)
    fe98:	48 c7 85 90 f6 ff ff 	movq   $0x0,-0x970(%rbp)
    fe9f:	00 00 00 00 
    fea3:	48 8d 85 f8 eb ff ff 	lea    -0x1408(%rbp),%rax
    feaa:	48 89 85 98 f6 ff ff 	mov    %rax,-0x968(%rbp)
    feb1:	48 8d 85 f8 eb ff ff 	lea    -0x1408(%rbp),%rax
    feb8:	48 89 85 a0 f6 ff ff 	mov    %rax,-0x960(%rbp)
    febf:	48 c7 85 a8 f6 ff ff 	movq   $0x0,-0x958(%rbp)
    fec6:	00 00 00 00 
    feca:	48 c7 85 b0 f6 ff ff 	movq   $0x0,-0x950(%rbp)
    fed1:	00 00 00 00 
    fed5:	48 8d 85 f8 eb ff ff 	lea    -0x1408(%rbp),%rax
    fedc:	48 89 85 b8 f6 ff ff 	mov    %rax,-0x948(%rbp)
    fee3:	48 c7 85 c0 f6 ff ff 	movq   $0x0,-0x940(%rbp)
    feea:	00 00 00 00 
    feee:	48 8d 85 f8 eb ff ff 	lea    -0x1408(%rbp),%rax
    fef5:	48 89 85 c8 f6 ff ff 	mov    %rax,-0x938(%rbp)
    fefc:	48 8d 85 f8 eb ff ff 	lea    -0x1408(%rbp),%rax
    ff03:	48 89 85 d0 f6 ff ff 	mov    %rax,-0x930(%rbp)
    ff0a:	48 8d 85 f8 eb ff ff 	lea    -0x1408(%rbp),%rax
    ff11:	48 89 85 d8 f6 ff ff 	mov    %rax,-0x928(%rbp)
    ff18:	48 8d 85 f8 eb ff ff 	lea    -0x1408(%rbp),%rax
    ff1f:	48 89 85 e0 f6 ff ff 	mov    %rax,-0x920(%rbp)
    ff26:	48 8d 85 f8 eb ff ff 	lea    -0x1408(%rbp),%rax
    ff2d:	48 89 85 e8 f6 ff ff 	mov    %rax,-0x918(%rbp)
    ff34:	48 8d 85 f8 eb ff ff 	lea    -0x1408(%rbp),%rax
    ff3b:	48 89 85 f0 f6 ff ff 	mov    %rax,-0x910(%rbp)
    ff42:	48 8d 85 f8 eb ff ff 	lea    -0x1408(%rbp),%rax
    ff49:	48 89 85 f8 f6 ff ff 	mov    %rax,-0x908(%rbp)
    ff50:	48 8d 85 f8 eb ff ff 	lea    -0x1408(%rbp),%rax
    ff57:	48 89 85 00 f7 ff ff 	mov    %rax,-0x900(%rbp)
    ff5e:	48 8d 85 f8 eb ff ff 	lea    -0x1408(%rbp),%rax
    ff65:	48 89 85 08 f7 ff ff 	mov    %rax,-0x8f8(%rbp)
    ff6c:	48 8d 85 f8 eb ff ff 	lea    -0x1408(%rbp),%rax
    ff73:	48 89 85 10 f7 ff ff 	mov    %rax,-0x8f0(%rbp)
    ff7a:	48 8d 85 f8 eb ff ff 	lea    -0x1408(%rbp),%rax
    ff81:	48 89 85 18 f7 ff ff 	mov    %rax,-0x8e8(%rbp)
    ff88:	48 8d 85 f8 eb ff ff 	lea    -0x1408(%rbp),%rax
    ff8f:	48 89 85 20 f7 ff ff 	mov    %rax,-0x8e0(%rbp)
    ff96:	48 8d 85 f8 eb ff ff 	lea    -0x1408(%rbp),%rax
    ff9d:	48 89 85 28 f7 ff ff 	mov    %rax,-0x8d8(%rbp)
    ffa4:	48 8d 85 f8 eb ff ff 	lea    -0x1408(%rbp),%rax
    ffab:	48 89 85 30 f7 ff ff 	mov    %rax,-0x8d0(%rbp)
    ffb2:	48 8d 85 f8 eb ff ff 	lea    -0x1408(%rbp),%rax
    ffb9:	48 89 85 38 f7 ff ff 	mov    %rax,-0x8c8(%rbp)
    ffc0:	48 c7 85 40 f7 ff ff 	movq   $0x0,-0x8c0(%rbp)
    ffc7:	00 00 00 00 
    ffcb:	48 8d 85 f8 eb ff ff 	lea    -0x1408(%rbp),%rax
    ffd2:	48 89 85 48 f7 ff ff 	mov    %rax,-0x8b8(%rbp)
    ffd9:	48 c7 85 50 f7 ff ff 	movq   $0x0,-0x8b0(%rbp)
    ffe0:	00 00 00 00 
    ffe4:	48 c7 85 58 f7 ff ff 	movq   $0x0,-0x8a8(%rbp)
    ffeb:	00 00 00 00 
    ffef:	48 8d 85 f8 eb ff ff 	lea    -0x1408(%rbp),%rax
    fff6:	48 89 85 60 f7 ff ff 	mov    %rax,-0x8a0(%rbp)
    fffd:	48 8d 85 f8 eb ff ff 	lea    -0x1408(%rbp),%rax
   10004:	48 89 85 68 f7 ff ff 	mov    %rax,-0x898(%rbp)
   1000b:	48 8d 85 f8 eb ff ff 	lea    -0x1408(%rbp),%rax
   10012:	48 89 85 70 f7 ff ff 	mov    %rax,-0x890(%rbp)
   10019:	48 8d 85 f8 eb ff ff 	lea    -0x1408(%rbp),%rax
   10020:	48 89 85 78 f7 ff ff 	mov    %rax,-0x888(%rbp)
   10027:	48 8d 85 f8 eb ff ff 	lea    -0x1408(%rbp),%rax
   1002e:	48 89 85 80 f7 ff ff 	mov    %rax,-0x880(%rbp)
   10035:	48 8d 85 f8 eb ff ff 	lea    -0x1408(%rbp),%rax
   1003c:	48 89 85 88 f7 ff ff 	mov    %rax,-0x878(%rbp)
   10043:	48 8d 85 f8 eb ff ff 	lea    -0x1408(%rbp),%rax
   1004a:	48 89 85 90 f7 ff ff 	mov    %rax,-0x870(%rbp)
   10051:	48 8d 85 f8 eb ff ff 	lea    -0x1408(%rbp),%rax
   10058:	48 89 85 98 f7 ff ff 	mov    %rax,-0x868(%rbp)
   1005f:	48 8d 85 f8 eb ff ff 	lea    -0x1408(%rbp),%rax
   10066:	48 89 85 a0 f7 ff ff 	mov    %rax,-0x860(%rbp)
   1006d:	48 8d 85 f8 eb ff ff 	lea    -0x1408(%rbp),%rax
   10074:	48 89 85 a8 f7 ff ff 	mov    %rax,-0x858(%rbp)
   1007b:	48 c7 85 b0 f7 ff ff 	movq   $0x0,-0x850(%rbp)
   10082:	00 00 00 00 
   10086:	48 c7 85 b8 f7 ff ff 	movq   $0x0,-0x848(%rbp)
   1008d:	00 00 00 00 
   10091:	48 8d 85 f8 eb ff ff 	lea    -0x1408(%rbp),%rax
   10098:	48 89 85 c0 f7 ff ff 	mov    %rax,-0x840(%rbp)
   1009f:	c7 85 bc eb ff ff 19 	movl   $0xd4d03719,-0x1444(%rbp)
   100a6:	37 d0 d4 
   100a9:	c6 85 5b eb ff ff f9 	movb   $0xf9,-0x14a5(%rbp)
   100b0:	66 c7 85 6a eb ff ff 	movw   $0xa0cb,-0x1496(%rbp)
   100b7:	cb a0 
   100b9:	48 c7 85 10 ed ff ff 	movq   $0x0,-0x12f0(%rbp)
   100c0:	00 00 00 00 
   100c4:	48 8d 85 c0 ed ff ff 	lea    -0x1240(%rbp),%rax
   100cb:	48 89 85 18 ed ff ff 	mov    %rax,-0x12e8(%rbp)
   100d2:	48 c7 85 20 ed ff ff 	movq   $0x0,-0x12e0(%rbp)
   100d9:	00 00 00 00 
   100dd:	c7 85 c0 eb ff ff fd 	movl   $0xfffffffd,-0x1440(%rbp)
   100e4:	ff ff ff 
   100e7:	c7 85 90 ed ff ff 9f 	movl   $0xea8d409f,-0x1270(%rbp)
   100ee:	40 8d ea 
   100f1:	c7 85 94 ed ff ff 9f 	movl   $0xea8d409f,-0x126c(%rbp)
   100f8:	40 8d ea 
   100fb:	c7 85 98 ed ff ff 9f 	movl   $0xea8d409f,-0x1268(%rbp)
   10102:	40 8d ea 
   10105:	c7 85 9c ed ff ff 9f 	movl   $0xea8d409f,-0x1264(%rbp)
   1010c:	40 8d ea 
   1010f:	c7 85 a0 ed ff ff 9f 	movl   $0xea8d409f,-0x1260(%rbp)
   10116:	40 8d ea 
   10119:	c7 85 a4 ed ff ff 9f 	movl   $0xea8d409f,-0x125c(%rbp)
   10120:	40 8d ea 
   10123:	c7 85 a8 ed ff ff 9f 	movl   $0xea8d409f,-0x1258(%rbp)
   1012a:	40 8d ea 
   1012d:	c7 85 ac ed ff ff 9f 	movl   $0xea8d409f,-0x1254(%rbp)
   10134:	40 8d ea 
   10137:	c7 85 b0 ed ff ff 9f 	movl   $0xea8d409f,-0x1250(%rbp)
   1013e:	40 8d ea 
   10141:	c7 85 b4 ed ff ff 9f 	movl   $0xea8d409f,-0x124c(%rbp)
   10148:	40 8d ea 
   1014b:	48 8d 95 90 ee ff ff 	lea    -0x1170(%rbp),%rdx
   10152:	b8 00 00 00 00       	mov    $0x0,%eax
   10157:	b9 32 00 00 00       	mov    $0x32,%ecx
   1015c:	48 89 d7             	mov    %rdx,%rdi
   1015f:	f3 48 ab             	rep stos %rax,%es:(%rdi)
   10162:	48 c7 85 00 ec ff ff 	movq   $0x0,-0x1400(%rbp)
   10169:	00 00 00 00 
   1016d:	c7 85 c4 eb ff ff 8e 	movl   $0x2a8e568e,-0x143c(%rbp)
   10174:	56 8e 2a 
   10177:	c7 85 c8 eb ff ff 01 	movl   $0x1,-0x1438(%rbp)
   1017e:	00 00 00 
   10181:	48 c7 85 28 ed ff ff 	movq   $0x2,-0x12d8(%rbp)
   10188:	02 00 00 00 
   1018c:	c7 85 cc eb ff ff 00 	movl   $0x0,-0x1434(%rbp)
   10193:	00 00 00 
   10196:	c7 85 7c eb ff ff 00 	movl   $0x0,-0x1484(%rbp)
   1019d:	00 00 00 
   101a0:	eb 1e                	jmp    101c0 <func_40+0x20bd>
   101a2:	8b 85 7c eb ff ff    	mov    -0x1484(%rbp),%eax
   101a8:	48 98                	cltq   
   101aa:	48 8d 15 77 ce 00 00 	lea    0xce77(%rip),%rdx        # 1d028 <g_25>
   101b1:	48 89 94 c5 38 ed ff 	mov    %rdx,-0x12c8(%rbp,%rax,8)
   101b8:	ff 
   101b9:	83 85 7c eb ff ff 01 	addl   $0x1,-0x1484(%rbp)
   101c0:	83 bd 7c eb ff ff 00 	cmpl   $0x0,-0x1484(%rbp)
   101c7:	7e d9                	jle    101a2 <func_40+0x209f>
   101c9:	c7 85 7c eb ff ff 00 	movl   $0x0,-0x1484(%rbp)
   101d0:	00 00 00 
   101d3:	eb 1e                	jmp    101f3 <func_40+0x20f0>
   101d5:	8b 85 7c eb ff ff    	mov    -0x1484(%rbp),%eax
   101db:	48 98                	cltq   
   101dd:	48 8d 95 00 ec ff ff 	lea    -0x1400(%rbp),%rdx
   101e4:	48 89 94 c5 70 ed ff 	mov    %rdx,-0x1290(%rbp,%rax,8)
   101eb:	ff 
   101ec:	83 85 7c eb ff ff 01 	addl   $0x1,-0x1484(%rbp)
   101f3:	83 bd 7c eb ff ff 03 	cmpl   $0x3,-0x1484(%rbp)
   101fa:	7e d9                	jle    101d5 <func_40+0x20d2>
   101fc:	c7 85 7c eb ff ff 00 	movl   $0x0,-0x1484(%rbp)
   10203:	00 00 00 
   10206:	eb 19                	jmp    10221 <func_40+0x211e>
   10208:	8b 85 7c eb ff ff    	mov    -0x1484(%rbp),%eax
   1020e:	48 98                	cltq   
   10210:	66 c7 84 45 36 ed ff 	movw   $0x65e0,-0x12ca(%rbp,%rax,2)
   10217:	ff e0 65 
   1021a:	83 85 7c eb ff ff 01 	addl   $0x1,-0x1484(%rbp)
   10221:	83 bd 7c eb ff ff 00 	cmpl   $0x0,-0x1484(%rbp)
   10228:	7e de                	jle    10208 <func_40+0x2105>
   1022a:	8b 85 6c eb ff ff    	mov    -0x1494(%rbp),%eax
   10230:	85 c0                	test   %eax,%eax
   10232:	0f 84 a9 05 00 00    	je     107e1 <func_40+0x26de>
   10238:	e9 ad ee ff ff       	jmpq   f0ea <func_40+0xfe7>
   1023d:	48 c7 85 60 ec ff ff 	movq   $0xffffffffffffffff,-0x13a0(%rbp)
   10244:	ff ff ff ff 
   10248:	48 8d 05 c9 ed 00 00 	lea    0xedc9(%rip),%rax        # 1f018 <g_1145>
   1024f:	48 89 85 68 ec ff ff 	mov    %rax,-0x1398(%rbp)
   10256:	c7 85 80 eb ff ff 00 	movl   $0x0,-0x1480(%rbp)
   1025d:	00 00 00 
   10260:	eb 25                	jmp    10287 <func_40+0x2184>
   10262:	8b 85 80 eb ff ff    	mov    -0x1480(%rbp),%eax
   10268:	48 98                	cltq   
   1026a:	48 8d 95 d0 f7 ff ff 	lea    -0x830(%rbp),%rdx
   10271:	48 81 c2 80 03 00 00 	add    $0x380,%rdx
   10278:	48 89 94 c5 00 ee ff 	mov    %rdx,-0x1200(%rbp,%rax,8)
   1027f:	ff 
   10280:	83 85 80 eb ff ff 01 	addl   $0x1,-0x1480(%rbp)
   10287:	83 bd 80 eb ff ff 04 	cmpl   $0x4,-0x1480(%rbp)
   1028e:	7e d2                	jle    10262 <func_40+0x215f>
   10290:	c7 85 80 eb ff ff 00 	movl   $0x0,-0x1480(%rbp)
   10297:	00 00 00 
   1029a:	eb 22                	jmp    102be <func_40+0x21bb>
   1029c:	8b 85 80 eb ff ff    	mov    -0x1480(%rbp),%eax
   102a2:	48 98                	cltq   
   102a4:	48 8d 95 00 ee ff ff 	lea    -0x1200(%rbp),%rdx
   102ab:	48 83 c2 10          	add    $0x10,%rdx
   102af:	48 89 94 c5 70 ed ff 	mov    %rdx,-0x1290(%rbp,%rax,8)
   102b6:	ff 
   102b7:	83 85 80 eb ff ff 01 	addl   $0x1,-0x1480(%rbp)
   102be:	83 bd 80 eb ff ff 00 	cmpl   $0x0,-0x1480(%rbp)
   102c5:	7e d5                	jle    1029c <func_40+0x2199>
   102c7:	c7 85 80 eb ff ff 00 	movl   $0x0,-0x1480(%rbp)
   102ce:	00 00 00 
   102d1:	eb 43                	jmp    10316 <func_40+0x2213>
   102d3:	c7 85 84 eb ff ff 00 	movl   $0x0,-0x147c(%rbp)
   102da:	00 00 00 
   102dd:	eb 27                	jmp    10306 <func_40+0x2203>
   102df:	8b 85 84 eb ff ff    	mov    -0x147c(%rbp),%eax
   102e5:	48 63 d0             	movslq %eax,%rdx
   102e8:	8b 85 80 eb ff ff    	mov    -0x1480(%rbp),%eax
   102ee:	48 98                	cltq   
   102f0:	48 01 d0             	add    %rdx,%rax
   102f3:	48 c7 84 c5 90 ee ff 	movq   $0x0,-0x1170(%rbp,%rax,8)
   102fa:	ff 00 00 00 00 
   102ff:	83 85 84 eb ff ff 01 	addl   $0x1,-0x147c(%rbp)
   10306:	83 bd 84 eb ff ff 00 	cmpl   $0x0,-0x147c(%rbp)
   1030d:	7e d0                	jle    102df <func_40+0x21dc>
   1030f:	83 85 80 eb ff ff 01 	addl   $0x1,-0x1480(%rbp)
   10316:	83 bd 80 eb ff ff 08 	cmpl   $0x8,-0x1480(%rbp)
   1031d:	7e b4                	jle    102d3 <func_40+0x21d0>
   1031f:	c7 05 6f cd 00 00 00 	movl   $0x0,0xcd6f(%rip)        # 1d098 <g_63>
   10326:	00 00 00 
   10329:	e9 5f 02 00 00       	jmpq   1058d <func_40+0x248a>
   1032e:	48 c7 85 00 ec ff ff 	movq   $0x0,-0x1400(%rbp)
   10335:	00 00 00 00 
   10339:	48 8d 85 00 ec ff ff 	lea    -0x1400(%rbp),%rax
   10340:	48 89 85 a0 ec ff ff 	mov    %rax,-0x1360(%rbp)
   10347:	48 8d 85 00 ee ff ff 	lea    -0x1200(%rbp),%rax
   1034e:	48 83 c0 10          	add    $0x10,%rax
   10352:	48 89 85 a8 ec ff ff 	mov    %rax,-0x1358(%rbp)
   10359:	48 8d 85 90 ee ff ff 	lea    -0x1170(%rbp),%rax
   10360:	48 83 c0 40          	add    $0x40,%rax
   10364:	48 89 85 b0 ec ff ff 	mov    %rax,-0x1350(%rbp)
   1036b:	48 8d 85 70 eb ff ff 	lea    -0x1490(%rbp),%rax
   10372:	48 89 85 20 f0 ff ff 	mov    %rax,-0xfe0(%rbp)
   10379:	48 8d 85 70 eb ff ff 	lea    -0x1490(%rbp),%rax
   10380:	48 89 85 28 f0 ff ff 	mov    %rax,-0xfd8(%rbp)
   10387:	48 8d 85 70 eb ff ff 	lea    -0x1490(%rbp),%rax
   1038e:	48 89 85 30 f0 ff ff 	mov    %rax,-0xfd0(%rbp)
   10395:	48 8d 85 70 eb ff ff 	lea    -0x1490(%rbp),%rax
   1039c:	48 89 85 38 f0 ff ff 	mov    %rax,-0xfc8(%rbp)
   103a3:	48 8d 85 70 eb ff ff 	lea    -0x1490(%rbp),%rax
   103aa:	48 89 85 40 f0 ff ff 	mov    %rax,-0xfc0(%rbp)
   103b1:	48 8b 05 60 ec 00 00 	mov    0xec60(%rip),%rax        # 1f018 <g_1145>
   103b8:	48 8b 00             	mov    (%rax),%rax
   103bb:	c7 00 00 00 00 00    	movl   $0x0,(%rax)
   103c1:	8b 05 d1 cc 00 00    	mov    0xccd1(%rip),%eax        # 1d098 <g_63>
   103c7:	48 98                	cltq   
   103c9:	0f b6 44 05 b9       	movzbl -0x47(%rbp,%rax,1),%eax
   103ce:	84 c0                	test   %al,%al
   103d0:	0f 84 63 01 00 00    	je     10539 <func_40+0x2436>
   103d6:	48 8d 85 d8 eb ff ff 	lea    -0x1428(%rbp),%rax
   103dd:	48 89 85 b8 ec ff ff 	mov    %rax,-0x1348(%rbp)
   103e4:	c7 85 ac eb ff ff 05 	movl   $0x5,-0x1454(%rbp)
   103eb:	00 00 00 
   103ee:	48 8b 85 60 ec ff ff 	mov    -0x13a0(%rbp),%rax
   103f5:	89 c3                	mov    %eax,%ebx
   103f7:	48 8b 85 d8 eb ff ff 	mov    -0x1428(%rbp),%rax
   103fe:	48 89 85 70 ed ff ff 	mov    %rax,-0x1290(%rbp)
   10405:	48 8b 95 70 ed ff ff 	mov    -0x1290(%rbp),%rdx
   1040c:	48 8b 85 b8 ec ff ff 	mov    -0x1348(%rbp),%rax
   10413:	48 89 10             	mov    %rdx,(%rax)
   10416:	48 8b 85 b8 ec ff ff 	mov    -0x1348(%rbp),%rax
   1041d:	48 8b 00             	mov    (%rax),%rax
   10420:	48 89 85 a8 ec ff ff 	mov    %rax,-0x1358(%rbp)
   10427:	48 8b 85 a8 ec ff ff 	mov    -0x1358(%rbp),%rax
   1042e:	48 3b 85 58 ec ff ff 	cmp    -0x13a8(%rbp),%rax
   10435:	0f 94 c0             	sete   %al
   10438:	0f b6 c0             	movzbl %al,%eax
   1043b:	be 04 00 00 00       	mov    $0x4,%esi
   10440:	89 c7                	mov    %eax,%edi
   10442:	e8 5a 7e ff ff       	callq  82a1 <safe_lshift_func_int8_t_s_s>
   10447:	48 0f be d0          	movsbq %al,%rdx
   1044b:	8b 05 47 cc 00 00    	mov    0xcc47(%rip),%eax        # 1d098 <g_63>
   10451:	48 98                	cltq   
   10453:	0f b6 44 05 b9       	movzbl -0x47(%rbp,%rax,1),%eax
   10458:	0f b6 c0             	movzbl %al,%eax
   1045b:	48 23 85 60 ec ff ff 	and    -0x13a0(%rbp),%rax
   10462:	48 39 c2             	cmp    %rax,%rdx
   10465:	0f 95 c0             	setne  %al
   10468:	0f b6 d0             	movzbl %al,%edx
   1046b:	8b 05 27 cc 00 00    	mov    0xcc27(%rip),%eax        # 1d098 <g_63>
   10471:	48 98                	cltq   
   10473:	0f b6 44 05 b9       	movzbl -0x47(%rbp,%rax,1),%eax
   10478:	0f b6 c0             	movzbl %al,%eax
   1047b:	39 c2                	cmp    %eax,%edx
   1047d:	7e 11                	jle    10490 <func_40+0x238d>
   1047f:	48 83 bd 60 ec ff ff 	cmpq   $0x0,-0x13a0(%rbp)
   10486:	00 
   10487:	74 07                	je     10490 <func_40+0x238d>
   10489:	b8 01 00 00 00       	mov    $0x1,%eax
   1048e:	eb 05                	jmp    10495 <func_40+0x2392>
   10490:	b8 00 00 00 00       	mov    $0x0,%eax
   10495:	0f b7 c0             	movzwl %ax,%eax
   10498:	be 0e 00 00 00       	mov    $0xe,%esi
   1049d:	89 c7                	mov    %eax,%edi
   1049f:	e8 d6 89 ff ff       	callq  8e7a <safe_rshift_func_uint16_t_u_u>
   104a4:	0f b7 c0             	movzwl %ax,%eax
   104a7:	89 de                	mov    %ebx,%esi
   104a9:	89 c7                	mov    %eax,%edi
   104ab:	e8 08 8a ff ff       	callq  8eb8 <safe_add_func_uint32_t_u_u>
   104b0:	0f be d0             	movsbl %al,%edx
   104b3:	8b 05 df cb 00 00    	mov    0xcbdf(%rip),%eax        # 1d098 <g_63>
   104b9:	48 98                	cltq   
   104bb:	0f b6 44 05 b9       	movzbl -0x47(%rbp,%rax,1),%eax
   104c0:	0f be c0             	movsbl %al,%eax
   104c3:	89 d6                	mov    %edx,%esi
   104c5:	89 c7                	mov    %eax,%edi
   104c7:	e8 9e 7d ff ff       	callq  826a <safe_div_func_int8_t_s_s>
   104cc:	89 c2                	mov    %eax,%edx
   104ce:	48 8b 05 3b f4 00 00 	mov    0xf43b(%rip),%rax        # 1f910 <g_1356>
   104d5:	48 8b 00             	mov    (%rax),%rax
   104d8:	66 0f be d2          	movsbw %dl,%dx
   104dc:	66 89 10             	mov    %dx,(%rax)
   104df:	8b 05 b3 cb 00 00    	mov    0xcbb3(%rip),%eax        # 1d098 <g_63>
   104e5:	48 98                	cltq   
   104e7:	0f b6 44 05 b9       	movzbl -0x47(%rbp,%rax,1),%eax
   104ec:	0f be d0             	movsbl %al,%edx
   104ef:	80 85 4c eb ff ff 01 	addb   $0x1,-0x14b4(%rbp)
   104f6:	0f b6 8d 4c eb ff ff 	movzbl -0x14b4(%rbp),%ecx
   104fd:	48 83 bd a0 ec ff ff 	cmpq   $0x0,-0x1360(%rbp)
   10504:	00 
   10505:	0f 94 c0             	sete   %al
   10508:	0f b6 c0             	movzbl %al,%eax
   1050b:	39 c1                	cmp    %eax,%ecx
   1050d:	0f 9e c0             	setle  %al
   10510:	0f b6 c0             	movzbl %al,%eax
   10513:	89 d6                	mov    %edx,%esi
   10515:	89 c7                	mov    %eax,%edi
   10517:	e8 f6 7c ff ff       	callq  8212 <safe_mul_func_int8_t_s_s>
   1051c:	0f be c0             	movsbl %al,%eax
   1051f:	89 85 ac eb ff ff    	mov    %eax,-0x1454(%rbp)
   10525:	48 8b 85 60 ec ff ff 	mov    -0x13a0(%rbp),%rax
   1052c:	89 c2                	mov    %eax,%edx
   1052e:	48 8b 85 48 ec ff ff 	mov    -0x13b8(%rbp),%rax
   10535:	89 10                	mov    %edx,(%rax)
   10537:	eb 23                	jmp    1055c <func_40+0x2459>
   10539:	48 8d 85 50 ed ff ff 	lea    -0x12b0(%rbp),%rax
   10540:	48 83 c0 0c          	add    $0xc,%rax
   10544:	48 89 85 90 ed ff ff 	mov    %rax,-0x1270(%rbp)
   1054b:	48 8b 05 1e f5 00 00 	mov    0xf51e(%rip),%rax        # 1fa70 <g_1773>
   10552:	48 8b 95 90 ed ff ff 	mov    -0x1270(%rbp),%rdx
   10559:	48 89 10             	mov    %rdx,(%rax)
   1055c:	48 8b 95 90 ee ff ff 	mov    -0x1170(%rbp),%rdx
   10563:	48 8b 85 b0 ec ff ff 	mov    -0x1350(%rbp),%rax
   1056a:	48 89 10             	mov    %rdx,(%rax)
   1056d:	48 8b 05 dc fc 00 00 	mov    0xfcdc(%rip),%rax        # 20250 <g_1778>
   10574:	48 8b 95 40 f0 ff ff 	mov    -0xfc0(%rbp),%rdx
   1057b:	48 89 10             	mov    %rdx,(%rax)
   1057e:	8b 05 14 cb 00 00    	mov    0xcb14(%rip),%eax        # 1d098 <g_63>
   10584:	83 c0 01             	add    $0x1,%eax
   10587:	89 05 0b cb 00 00    	mov    %eax,0xcb0b(%rip)        # 1d098 <g_63>
   1058d:	8b 05 05 cb 00 00    	mov    0xcb05(%rip),%eax        # 1d098 <g_63>
   10593:	83 f8 06             	cmp    $0x6,%eax
   10596:	0f 8e 92 fd ff ff    	jle    1032e <func_40+0x222b>
   1059c:	c7 85 70 eb ff ff 00 	movl   $0x0,-0x1490(%rbp)
   105a3:	00 00 00 
   105a6:	90                   	nop
   105a7:	8b 85 70 eb ff ff    	mov    -0x1490(%rbp),%eax
   105ad:	83 f8 18             	cmp    $0x18,%eax
   105b0:	0f 84 2b 02 00 00    	je     107e1 <func_40+0x26de>
   105b6:	48 c7 85 70 ec ff ff 	movq   $0x0,-0x1390(%rbp)
   105bd:	00 00 00 00 
   105c1:	48 b8 48 f2 1e 98 08 	movabs $0xbaad4e08981ef248,%rax
   105c8:	4e ad ba 
   105cb:	48 89 85 78 ec ff ff 	mov    %rax,-0x1388(%rbp)
   105d2:	48 c7 85 80 ec ff ff 	movq   $0x0,-0x1380(%rbp)
   105d9:	00 00 00 00 
   105dd:	48 c7 85 88 ec ff ff 	movq   $0x0,-0x1378(%rbp)
   105e4:	00 00 00 00 
   105e8:	c7 85 a0 eb ff ff 01 	movl   $0x1,-0x1460(%rbp)
   105ef:	00 00 00 
   105f2:	48 8d 05 a7 e9 00 00 	lea    0xe9a7(%rip),%rax        # 1efa0 <g_742>
   105f9:	48 89 85 90 ec ff ff 	mov    %rax,-0x1370(%rbp)
   10600:	c7 85 a4 eb ff ff ff 	movl   $0xffffffff,-0x145c(%rbp)
   10607:	ff ff ff 
   1060a:	c7 85 88 eb ff ff 00 	movl   $0x0,-0x1478(%rbp)
   10611:	00 00 00 
   10614:	eb 14                	jmp    1062a <func_40+0x2527>
   10616:	8b 85 88 eb ff ff    	mov    -0x1478(%rbp),%eax
   1061c:	48 98                	cltq   
   1061e:	c6 44 05 c0 1b       	movb   $0x1b,-0x40(%rbp,%rax,1)
   10623:	83 85 88 eb ff ff 01 	addl   $0x1,-0x1478(%rbp)
   1062a:	83 bd 88 eb ff ff 07 	cmpl   $0x7,-0x1478(%rbp)
   10631:	7e e3                	jle    10616 <func_40+0x2513>
   10633:	48 c7 05 0a cd 00 00 	movq   $0x0,0xcd0a(%rip)        # 1d348 <g_733>
   1063a:	00 00 00 00 
   1063e:	e9 7c 01 00 00       	jmpq   107bf <func_40+0x26bc>
   10643:	48 8d 05 c6 f2 00 00 	lea    0xf2c6(%rip),%rax        # 1f910 <g_1356>
   1064a:	48 89 85 20 f0 ff ff 	mov    %rax,-0xfe0(%rbp)
   10651:	48 8d 05 b8 f2 00 00 	lea    0xf2b8(%rip),%rax        # 1f910 <g_1356>
   10658:	48 89 85 28 f0 ff ff 	mov    %rax,-0xfd8(%rbp)
   1065f:	48 8d 05 aa f2 00 00 	lea    0xf2aa(%rip),%rax        # 1f910 <g_1356>
   10666:	48 89 85 30 f0 ff ff 	mov    %rax,-0xfd0(%rbp)
   1066d:	48 c7 85 38 f0 ff ff 	movq   $0x0,-0xfc8(%rbp)
   10674:	00 00 00 00 
   10678:	48 8d 05 91 f2 00 00 	lea    0xf291(%rip),%rax        # 1f910 <g_1356>
   1067f:	48 89 85 40 f0 ff ff 	mov    %rax,-0xfc0(%rbp)
   10686:	48 c7 85 48 f0 ff ff 	movq   $0x0,-0xfb8(%rbp)
   1068d:	00 00 00 00 
   10691:	48 8d 05 78 f2 00 00 	lea    0xf278(%rip),%rax        # 1f910 <g_1356>
   10698:	48 89 85 50 f0 ff ff 	mov    %rax,-0xfb0(%rbp)
   1069f:	48 8d 05 6a f2 00 00 	lea    0xf26a(%rip),%rax        # 1f910 <g_1356>
   106a6:	48 89 85 58 f0 ff ff 	mov    %rax,-0xfa8(%rbp)
   106ad:	48 8d 05 5c f2 00 00 	lea    0xf25c(%rip),%rax        # 1f910 <g_1356>
   106b4:	48 89 85 60 f0 ff ff 	mov    %rax,-0xfa0(%rbp)
   106bb:	48 c7 85 68 f0 ff ff 	movq   $0x0,-0xf98(%rbp)
   106c2:	00 00 00 00 
   106c6:	48 8d 05 43 f2 00 00 	lea    0xf243(%rip),%rax        # 1f910 <g_1356>
   106cd:	48 89 85 70 f0 ff ff 	mov    %rax,-0xf90(%rbp)
   106d4:	48 c7 85 78 f0 ff ff 	movq   $0x0,-0xf88(%rbp)
   106db:	00 00 00 00 
   106df:	48 8d 05 2a f2 00 00 	lea    0xf22a(%rip),%rax        # 1f910 <g_1356>
   106e6:	48 89 85 80 f0 ff ff 	mov    %rax,-0xf80(%rbp)
   106ed:	48 8d 05 1c f2 00 00 	lea    0xf21c(%rip),%rax        # 1f910 <g_1356>
   106f4:	48 89 85 88 f0 ff ff 	mov    %rax,-0xf78(%rbp)
   106fb:	48 8d 05 0e f2 00 00 	lea    0xf20e(%rip),%rax        # 1f910 <g_1356>
   10702:	48 89 85 90 f0 ff ff 	mov    %rax,-0xf70(%rbp)
   10709:	48 c7 85 98 f0 ff ff 	movq   $0x0,-0xf68(%rbp)
   10710:	00 00 00 00 
   10714:	48 8d 05 f5 f1 00 00 	lea    0xf1f5(%rip),%rax        # 1f910 <g_1356>
   1071b:	48 89 85 a0 f0 ff ff 	mov    %rax,-0xf60(%rbp)
   10722:	48 c7 85 a8 f0 ff ff 	movq   $0x0,-0xf58(%rbp)
   10729:	00 00 00 00 
   1072d:	48 8d 05 dc f1 00 00 	lea    0xf1dc(%rip),%rax        # 1f910 <g_1356>
   10734:	48 89 85 b0 f0 ff ff 	mov    %rax,-0xf50(%rbp)
   1073b:	48 8d 05 ce f1 00 00 	lea    0xf1ce(%rip),%rax        # 1f910 <g_1356>
   10742:	48 89 85 b8 f0 ff ff 	mov    %rax,-0xf48(%rbp)
   10749:	48 8d 05 c0 f1 00 00 	lea    0xf1c0(%rip),%rax        # 1f910 <g_1356>
   10750:	48 89 85 c0 f0 ff ff 	mov    %rax,-0xf40(%rbp)
   10757:	48 c7 85 c8 f0 ff ff 	movq   $0x0,-0xf38(%rbp)
   1075e:	00 00 00 00 
   10762:	48 8d 05 a7 f1 00 00 	lea    0xf1a7(%rip),%rax        # 1f910 <g_1356>
   10769:	48 89 85 d0 f0 ff ff 	mov    %rax,-0xf30(%rbp)
   10770:	48 c7 85 d8 f0 ff ff 	movq   $0x0,-0xf28(%rbp)
   10777:	00 00 00 00 
   1077b:	48 c7 85 98 ec ff ff 	movq   $0x0,-0x1368(%rbp)
   10782:	00 00 00 00 
   10786:	c7 85 a8 eb ff ff 03 	movl   $0x3,-0x1458(%rbp)
   1078d:	00 00 00 
   10790:	48 8b 05 b1 cb 00 00 	mov    0xcbb1(%rip),%rax        # 1d348 <g_733>
   10797:	48 8d 14 85 00 00 00 	lea    0x0(,%rax,4),%rdx
   1079e:	00 
   1079f:	48 8d 05 fe d2 00 00 	lea    0xd2fe(%rip),%rax        # 1daa4 <g_1428>
   107a6:	8b 04 02             	mov    (%rdx,%rax,1),%eax
   107a9:	85 c0                	test   %eax,%eax
   107ab:	75 24                	jne    107d1 <func_40+0x26ce>
   107ad:	48 8b 05 94 cb 00 00 	mov    0xcb94(%rip),%rax        # 1d348 <g_733>
   107b4:	48 83 c0 01          	add    $0x1,%rax
   107b8:	48 89 05 89 cb 00 00 	mov    %rax,0xcb89(%rip)        # 1d348 <g_733>
   107bf:	48 8b 05 82 cb 00 00 	mov    0xcb82(%rip),%rax        # 1d348 <g_733>
   107c6:	48 85 c0             	test   %rax,%rax
   107c9:	0f 8e 74 fe ff ff    	jle    10643 <func_40+0x2540>
   107cf:	eb 01                	jmp    107d2 <func_40+0x26cf>
   107d1:	90                   	nop
   107d2:	48 8b 85 68 ec ff ff 	mov    -0x1398(%rbp),%rax
   107d9:	48 8b 00             	mov    (%rax),%rax
   107dc:	48 8b 00             	mov    (%rax),%rax
   107df:	eb 0a                	jmp    107eb <func_40+0x26e8>
   107e1:	48 8b 05 30 e8 00 00 	mov    0xe830(%rip),%rax        # 1f018 <g_1145>
   107e8:	48 8b 00             	mov    (%rax),%rax
   107eb:	48 8b 5d c8          	mov    -0x38(%rbp),%rbx
   107ef:	64 48 33 1c 25 28 00 	xor    %fs:0x28,%rbx
   107f6:	00 00 
   107f8:	74 05                	je     107ff <func_40+0x26fc>
   107fa:	e8 71 78 ff ff       	callq  8070 <__stack_chk_fail@plt>
   107ff:	48 81 c4 98 14 00 00 	add    $0x1498,%rsp
   10806:	5b                   	pop    %rbx
   10807:	41 5c                	pop    %r12
   10809:	41 5d                	pop    %r13
   1080b:	41 5e                	pop    %r14
   1080d:	41 5f                	pop    %r15
   1080f:	5d                   	pop    %rbp
   10810:	c3                   	retq   

0000000000010811 <func_42>:
   10811:	f3 0f 1e fa          	endbr64 
   10815:	55                   	push   %rbp
   10816:	48 89 e5             	mov    %rsp,%rbp
   10819:	48 83 ec 28          	sub    $0x28,%rsp
   1081d:	48 89 7d e8          	mov    %rdi,-0x18(%rbp)
   10821:	48 89 75 e0          	mov    %rsi,-0x20(%rbp)
   10825:	89 55 dc             	mov    %edx,-0x24(%rbp)
   10828:	48 c7 45 f0 00 00 00 	movq   $0x0,-0x10(%rbp)
   1082f:	00 
   10830:	c6 05 a9 07 01 00 ee 	movb   $0xee,0x107a9(%rip)        # 20fe0 <g_247>
   10837:	eb 52                	jmp    1088b <func_42+0x7a>
   10839:	48 8d 05 f4 ca 00 00 	lea    0xcaf4(%rip),%rax        # 1d334 <g_389+0x74>
   10840:	48 89 45 f8          	mov    %rax,-0x8(%rbp)
   10844:	48 8b 45 f8          	mov    -0x8(%rbp),%rax
   10848:	0f b7 00             	movzwl (%rax),%eax
   1084b:	83 c8 04             	or     $0x4,%eax
   1084e:	89 c2                	mov    %eax,%edx
   10850:	48 8b 45 f8          	mov    -0x8(%rbp),%rax
   10854:	66 89 10             	mov    %dx,(%rax)
   10857:	48 8b 45 f8          	mov    -0x8(%rbp),%rax
   1085b:	0f b7 00             	movzwl (%rax),%eax
   1085e:	0f b7 c0             	movzwl %ax,%eax
   10861:	89 c6                	mov    %eax,%esi
   10863:	bf 93 c4 00 00       	mov    $0xc493,%edi
   10868:	e8 d0 84 ff ff       	callq  8d3d <safe_mul_func_uint16_t_u_u>
   1086d:	89 c2                	mov    %eax,%edx
   1086f:	48 8b 05 82 e7 00 00 	mov    0xe782(%rip),%rax        # 1eff8 <g_804>
   10876:	0f b7 d2             	movzwl %dx,%edx
   10879:	89 10                	mov    %edx,(%rax)
   1087b:	0f b6 05 5e 07 01 00 	movzbl 0x1075e(%rip),%eax        # 20fe0 <g_247>
   10882:	83 c0 01             	add    $0x1,%eax
   10885:	88 05 55 07 01 00    	mov    %al,0x10755(%rip)        # 20fe0 <g_247>
   1088b:	0f b6 05 4e 07 01 00 	movzbl 0x1074e(%rip),%eax        # 20fe0 <g_247>
   10892:	3c f9                	cmp    $0xf9,%al
   10894:	7c a3                	jl     10839 <func_42+0x28>
   10896:	48 8b 45 f0          	mov    -0x10(%rbp),%rax
   1089a:	c9                   	leaveq 
   1089b:	c3                   	retq   

000000000001089c <func_46>:
   1089c:	f3 0f 1e fa          	endbr64 
   108a0:	55                   	push   %rbp
   108a1:	48 89 e5             	mov    %rsp,%rbp
   108a4:	41 57                	push   %r15
   108a6:	41 56                	push   %r14
   108a8:	41 55                	push   %r13
   108aa:	41 54                	push   %r12
   108ac:	53                   	push   %rbx
   108ad:	48 81 ec 00 10 00 00 	sub    $0x1000,%rsp
   108b4:	48 83 0c 24 00       	orq    $0x0,(%rsp)
   108b9:	48 81 ec 08 03 00 00 	sub    $0x308,%rsp
   108c0:	48 89 bd f8 ec ff ff 	mov    %rdi,-0x1308(%rbp)
   108c7:	48 89 b5 f0 ec ff ff 	mov    %rsi,-0x1310(%rbp)
   108ce:	48 89 95 e8 ec ff ff 	mov    %rdx,-0x1318(%rbp)
   108d5:	48 89 8d e0 ec ff ff 	mov    %rcx,-0x1320(%rbp)
   108dc:	64 48 8b 04 25 28 00 	mov    %fs:0x28,%rax
   108e3:	00 00 
   108e5:	48 89 45 c8          	mov    %rax,-0x38(%rbp)
   108e9:	31 c0                	xor    %eax,%eax
   108eb:	48 8d 05 3e dc 00 00 	lea    0xdc3e(%rip),%rax        # 1e530 <g_208>
   108f2:	48 89 85 c8 ed ff ff 	mov    %rax,-0x1238(%rbp)
   108f9:	c7 85 60 f4 ff ff 00 	movl   $0x0,-0xba0(%rbp)
   10900:	00 00 00 
   10903:	c7 85 64 f4 ff ff 01 	movl   $0x1,-0xb9c(%rbp)
   1090a:	00 00 00 
   1090d:	c7 85 68 f4 ff ff ff 	movl   $0xffffffff,-0xb98(%rbp)
   10914:	ff ff ff 
   10917:	c7 85 6c f4 ff ff ff 	movl   $0xffffffff,-0xb94(%rbp)
   1091e:	ff ff ff 
   10921:	c7 85 70 f4 ff ff 01 	movl   $0x1,-0xb90(%rbp)
   10928:	00 00 00 
   1092b:	c7 85 74 f4 ff ff 00 	movl   $0x0,-0xb8c(%rbp)
   10932:	00 00 00 
   10935:	c7 85 78 f4 ff ff fe 	movl   $0xfffffffe,-0xb88(%rbp)
   1093c:	ff ff ff 
   1093f:	c7 85 7c f4 ff ff 01 	movl   $0x1,-0xb84(%rbp)
   10946:	00 00 00 
   10949:	c7 85 80 f4 ff ff fe 	movl   $0xfffffffe,-0xb80(%rbp)
   10950:	ff ff ff 
   10953:	c7 85 84 f4 ff ff 00 	movl   $0x0,-0xb7c(%rbp)
   1095a:	00 00 00 
   1095d:	c7 85 88 f4 ff ff 0e 	movl   $0x2a2020e,-0xb78(%rbp)
   10964:	02 a2 02 
   10967:	c7 85 8c f4 ff ff 01 	movl   $0x1,-0xb74(%rbp)
   1096e:	00 00 00 
   10971:	c7 85 90 f4 ff ff 7a 	movl   $0xffbdc57a,-0xb70(%rbp)
   10978:	c5 bd ff 
   1097b:	c7 85 94 f4 ff ff 01 	movl   $0x1,-0xb6c(%rbp)
   10982:	00 00 00 
   10985:	c7 85 98 f4 ff ff 0e 	movl   $0x2a2020e,-0xb68(%rbp)
   1098c:	02 a2 02 
   1098f:	c7 85 9c f4 ff ff 7a 	movl   $0xffbdc57a,-0xb64(%rbp)
   10996:	c5 bd ff 
   10999:	c7 85 a0 f4 ff ff 02 	movl   $0xd162ba02,-0xb60(%rbp)
   109a0:	ba 62 d1 
   109a3:	c7 85 a4 f4 ff ff 02 	movl   $0xd162ba02,-0xb5c(%rbp)
   109aa:	ba 62 d1 
   109ad:	c7 85 a8 f4 ff ff 7a 	movl   $0xffbdc57a,-0xb58(%rbp)
   109b4:	c5 bd ff 
   109b7:	c7 85 ac f4 ff ff 0e 	movl   $0x2a2020e,-0xb54(%rbp)
   109be:	02 a2 02 
   109c1:	c7 85 b0 f4 ff ff 0e 	movl   $0x2a2020e,-0xb50(%rbp)
   109c8:	02 a2 02 
   109cb:	c7 85 b4 f4 ff ff fe 	movl   $0xfffffffe,-0xb4c(%rbp)
   109d2:	ff ff ff 
   109d5:	c7 85 b8 f4 ff ff fe 	movl   $0xfffffffe,-0xb48(%rbp)
   109dc:	ff ff ff 
   109df:	c7 85 bc f4 ff ff 0e 	movl   $0x2a2020e,-0xb44(%rbp)
   109e6:	02 a2 02 
   109e9:	c7 85 c0 f4 ff ff ff 	movl   $0xffffffff,-0xb40(%rbp)
   109f0:	ff ff ff 
   109f3:	c7 85 c4 f4 ff ff 00 	movl   $0x0,-0xb3c(%rbp)
   109fa:	00 00 00 
   109fd:	c7 85 c8 f4 ff ff 0e 	movl   $0x2a2020e,-0xb38(%rbp)
   10a04:	02 a2 02 
   10a07:	c7 85 cc f4 ff ff 00 	movl   $0x0,-0xb34(%rbp)
   10a0e:	00 00 00 
   10a11:	c7 85 d0 f4 ff ff ff 	movl   $0xffffffff,-0xb30(%rbp)
   10a18:	ff ff ff 
   10a1b:	c7 85 d4 f4 ff ff 0e 	movl   $0x2a2020e,-0xb2c(%rbp)
   10a22:	02 a2 02 
   10a25:	c7 85 d8 f4 ff ff 00 	movl   $0x0,-0xb28(%rbp)
   10a2c:	00 00 00 
   10a2f:	c7 85 dc f4 ff ff fe 	movl   $0xfffffffe,-0xb24(%rbp)
   10a36:	ff ff ff 
   10a39:	c7 85 e0 f4 ff ff de 	movl   $0xfc385bde,-0xb20(%rbp)
   10a40:	5b 38 fc 
   10a43:	c7 85 e4 f4 ff ff 7b 	movl   $0x6474447b,-0xb1c(%rbp)
   10a4a:	44 74 64 
   10a4d:	c7 85 e8 f4 ff ff fe 	movl   $0xfffffffe,-0xb18(%rbp)
   10a54:	ff ff ff 
   10a57:	c7 85 ec f4 ff ff 7a 	movl   $0xffbdc57a,-0xb14(%rbp)
   10a5e:	c5 bd ff 
   10a61:	c7 85 f0 f4 ff ff 7a 	movl   $0xffbdc57a,-0xb10(%rbp)
   10a68:	c5 bd ff 
   10a6b:	c7 85 f4 f4 ff ff fe 	movl   $0xfffffffe,-0xb0c(%rbp)
   10a72:	ff ff ff 
   10a75:	c7 85 f8 f4 ff ff 7b 	movl   $0x6474447b,-0xb08(%rbp)
   10a7c:	44 74 64 
   10a7f:	c7 85 fc f4 ff ff de 	movl   $0xfc385bde,-0xb04(%rbp)
   10a86:	5b 38 fc 
   10a89:	c7 85 00 f5 ff ff 00 	movl   $0x0,-0xb00(%rbp)
   10a90:	00 00 00 
   10a93:	c7 85 04 f5 ff ff 00 	movl   $0x0,-0xafc(%rbp)
   10a9a:	00 00 00 
   10a9d:	c7 85 08 f5 ff ff 02 	movl   $0xd162ba02,-0xaf8(%rbp)
   10aa4:	ba 62 d1 
   10aa7:	c7 85 0c f5 ff ff fe 	movl   $0xfffffffe,-0xaf4(%rbp)
   10aae:	ff ff ff 
   10ab1:	c7 85 10 f5 ff ff ff 	movl   $0xffffffff,-0xaf0(%rbp)
   10ab8:	ff ff ff 
   10abb:	c7 85 14 f5 ff ff 02 	movl   $0xd162ba02,-0xaec(%rbp)
   10ac2:	ba 62 d1 
   10ac5:	c7 85 18 f5 ff ff ff 	movl   $0xffffffff,-0xae8(%rbp)
   10acc:	ff ff ff 
   10acf:	c7 85 1c f5 ff ff fe 	movl   $0xfffffffe,-0xae4(%rbp)
   10ad6:	ff ff ff 
   10ad9:	c7 85 20 f5 ff ff 02 	movl   $0xd162ba02,-0xae0(%rbp)
   10ae0:	ba 62 d1 
   10ae3:	c7 85 24 f5 ff ff 00 	movl   $0x0,-0xadc(%rbp)
   10aea:	00 00 00 
   10aed:	c7 85 28 f5 ff ff ff 	movl   $0xffffffff,-0xad8(%rbp)
   10af4:	ff ff ff 
   10af7:	c7 85 2c f5 ff ff 7a 	movl   $0xffbdc57a,-0xad4(%rbp)
   10afe:	c5 bd ff 
   10b01:	c7 85 30 f5 ff ff de 	movl   $0xfc385bde,-0xad0(%rbp)
   10b08:	5b 38 fc 
   10b0b:	c7 85 34 f5 ff ff ff 	movl   $0xffffffff,-0xacc(%rbp)
   10b12:	ff ff ff 
   10b15:	c7 85 38 f5 ff ff 7b 	movl   $0x6474447b,-0xac8(%rbp)
   10b1c:	44 74 64 
   10b1f:	c7 85 3c f5 ff ff 7b 	movl   $0x6474447b,-0xac4(%rbp)
   10b26:	44 74 64 
   10b29:	c7 85 40 f5 ff ff ff 	movl   $0xffffffff,-0xac0(%rbp)
   10b30:	ff ff ff 
   10b33:	c7 85 44 f5 ff ff de 	movl   $0xfc385bde,-0xabc(%rbp)
   10b3a:	5b 38 fc 
   10b3d:	c7 85 48 f5 ff ff 7a 	movl   $0xffbdc57a,-0xab8(%rbp)
   10b44:	c5 bd ff 
   10b47:	c7 85 4c f5 ff ff ff 	movl   $0xffffffff,-0xab4(%rbp)
   10b4e:	ff ff ff 
   10b51:	48 8d 05 06 c6 00 00 	lea    0xc606(%rip),%rax        # 1d15e <g_92+0x9e>
   10b58:	48 89 85 d0 ed ff ff 	mov    %rax,-0x1230(%rbp)
   10b5f:	c6 85 08 ed ff ff 00 	movb   $0x0,-0x12f8(%rbp)
   10b66:	c7 85 1c ed ff ff fb 	movl   $0xfffffffb,-0x12e4(%rbp)
   10b6d:	ff ff ff 
   10b70:	c6 85 09 ed ff ff 06 	movb   $0x6,-0x12f7(%rbp)
   10b77:	c7 85 64 ed ff ff ac 	movl   $0x20b105ac,-0x129c(%rbp)
   10b7e:	05 b1 20 
   10b81:	48 c7 85 38 ee ff ff 	movq   $0xffffffffffffffff,-0x11c8(%rbp)
   10b88:	ff ff ff ff 
   10b8c:	48 8d 05 95 c4 00 00 	lea    0xc495(%rip),%rax        # 1d028 <g_25>
   10b93:	48 89 85 d8 ed ff ff 	mov    %rax,-0x1228(%rbp)
   10b9a:	48 8d 05 1f d9 00 00 	lea    0xd91f(%rip),%rax        # 1e4c0 <g_62+0xc0>
   10ba1:	48 89 85 e0 ed ff ff 	mov    %rax,-0x1220(%rbp)
   10ba8:	48 8d 85 e0 ed ff ff 	lea    -0x1220(%rbp),%rax
   10baf:	48 89 85 50 ee ff ff 	mov    %rax,-0x11b0(%rbp)
   10bb6:	48 8d 05 9b c4 00 00 	lea    0xc49b(%rip),%rax        # 1d058 <g_27+0x18>
   10bbd:	48 89 85 e8 ed ff ff 	mov    %rax,-0x1218(%rbp)
   10bc4:	48 8d 85 e8 ed ff ff 	lea    -0x1218(%rbp),%rax
   10bcb:	48 89 85 f0 ed ff ff 	mov    %rax,-0x1210(%rbp)
   10bd2:	c7 45 bb f7 f7 f7 f7 	movl   $0xf7f7f7f7,-0x45(%rbp)
   10bd9:	c7 85 20 ed ff ff b7 	movl   $0x666494b7,-0x12e0(%rbp)
   10be0:	94 64 66 
   10be3:	48 8d 85 08 ed ff ff 	lea    -0x12f8(%rbp),%rax
   10bea:	48 89 85 58 ee ff ff 	mov    %rax,-0x11a8(%rbp)
   10bf1:	66 c7 85 12 ed ff ff 	movw   $0xfff7,-0x12ee(%rbp)
   10bf8:	f7 ff 
   10bfa:	48 8d 05 07 e1 00 00 	lea    0xe107(%rip),%rax        # 1ed08 <g_415>
   10c01:	48 89 85 60 ee ff ff 	mov    %rax,-0x11a0(%rbp)
   10c08:	48 8d 05 a1 c6 00 00 	lea    0xc6a1(%rip),%rax        # 1d2b0 <g_339>
   10c0f:	48 89 85 68 ee ff ff 	mov    %rax,-0x1198(%rbp)
   10c16:	48 8d 05 93 c6 00 00 	lea    0xc693(%rip),%rax        # 1d2b0 <g_339>
   10c1d:	48 89 85 70 ee ff ff 	mov    %rax,-0x1190(%rbp)
   10c24:	48 8d 05 d5 e0 00 00 	lea    0xe0d5(%rip),%rax        # 1ed00 <g_402>
   10c2b:	48 89 85 f8 ed ff ff 	mov    %rax,-0x1208(%rbp)
   10c32:	48 8d 85 f8 ed ff ff 	lea    -0x1208(%rbp),%rax
   10c39:	48 89 85 78 ee ff ff 	mov    %rax,-0x1188(%rbp)
   10c40:	48 8d 05 e1 c3 00 00 	lea    0xc3e1(%rip),%rax        # 1d028 <g_25>
   10c47:	48 89 85 80 ee ff ff 	mov    %rax,-0x1180(%rbp)
   10c4e:	48 c7 85 40 ee ff ff 	movq   $0xfffffffffffffff8,-0x11c0(%rbp)
   10c55:	f8 ff ff ff 
   10c59:	48 8b 85 e0 ec ff ff 	mov    -0x1320(%rbp),%rax
   10c60:	48 89 c6             	mov    %rax,%rsi
   10c63:	48 bf a8 89 f0 9e 63 	movabs $0xce2fe3639ef089a8,%rdi
   10c6a:	e3 2f ce 
   10c6d:	e8 36 7c ff ff       	callq  88a8 <safe_sub_func_int64_t_s_s>
   10c72:	48 83 bd e0 ec ff ff 	cmpq   $0x0,-0x1320(%rbp)
   10c79:	00 
   10c7a:	74 3c                	je     10cb8 <func_46+0x41c>
   10c7c:	48 8b 85 c8 ed ff ff 	mov    -0x1238(%rbp),%rax
   10c83:	48 8b 95 f0 ec ff ff 	mov    -0x1310(%rbp),%rdx
   10c8a:	48 89 10             	mov    %rdx,(%rax)
   10c8d:	48 8b 10             	mov    (%rax),%rdx
   10c90:	48 8b 85 f0 ec ff ff 	mov    -0x1310(%rbp),%rax
   10c97:	48 39 c2             	cmp    %rax,%rdx
   10c9a:	0f 94 c0             	sete   %al
   10c9d:	0f b6 c0             	movzbl %al,%eax
   10ca0:	be 02 00 00 00       	mov    $0x2,%esi
   10ca5:	89 c7                	mov    %eax,%edi
   10ca7:	e8 ce 81 ff ff       	callq  8e7a <safe_rshift_func_uint16_t_u_u>
   10cac:	66 85 c0             	test   %ax,%ax
   10caf:	74 07                	je     10cb8 <func_46+0x41c>
   10cb1:	b8 01 00 00 00       	mov    $0x1,%eax
   10cb6:	eb 05                	jmp    10cbd <func_46+0x421>
   10cb8:	b8 00 00 00 00       	mov    $0x0,%eax
   10cbd:	48 63 d8             	movslq %eax,%rbx
   10cc0:	8b 85 d4 f4 ff ff    	mov    -0xb2c(%rbp),%eax
   10cc6:	0f b6 d0             	movzbl %al,%edx
   10cc9:	48 8b 85 d0 ed ff ff 	mov    -0x1230(%rbp),%rax
   10cd0:	0f b6 08             	movzbl (%rax),%ecx
   10cd3:	8b 85 d4 f4 ff ff    	mov    -0xb2c(%rbp),%eax
   10cd9:	89 c6                	mov    %eax,%esi
   10cdb:	48 8b 85 d0 ed ff ff 	mov    -0x1230(%rbp),%rax
   10ce2:	31 f1                	xor    %esi,%ecx
   10ce4:	88 08                	mov    %cl,(%rax)
   10ce6:	0f b6 00             	movzbl (%rax),%eax
   10ce9:	0f be c8             	movsbl %al,%ecx
   10cec:	48 83 bd e0 ec ff ff 	cmpq   $0x0,-0x1320(%rbp)
   10cf3:	00 
   10cf4:	75 0b                	jne    10d01 <func_46+0x465>
   10cf6:	0f b6 85 08 ed ff ff 	movzbl -0x12f8(%rbp),%eax
   10cfd:	84 c0                	test   %al,%al
   10cff:	74 07                	je     10d08 <func_46+0x46c>
   10d01:	be 01 00 00 00       	mov    $0x1,%esi
   10d06:	eb 05                	jmp    10d0d <func_46+0x471>
   10d08:	be 00 00 00 00       	mov    $0x0,%esi
   10d0d:	8b 85 70 f4 ff ff    	mov    -0xb90(%rbp),%eax
   10d13:	39 c6                	cmp    %eax,%esi
   10d15:	0f 9d c0             	setge  %al
   10d18:	0f b6 c0             	movzbl %al,%eax
   10d1b:	39 c1                	cmp    %eax,%ecx
   10d1d:	0f 95 c0             	setne  %al
   10d20:	0f b6 c0             	movzbl %al,%eax
   10d23:	89 d6                	mov    %edx,%esi
   10d25:	89 c7                	mov    %eax,%edi
   10d27:	e8 4c 7e ff ff       	callq  8b78 <safe_sub_func_uint8_t_u_u>
   10d2c:	0f b6 c0             	movzbl %al,%eax
   10d2f:	25 de a7 00 00       	and    $0xa7de,%eax
   10d34:	48 21 c3             	and    %rax,%rbx
   10d37:	48 89 da             	mov    %rbx,%rdx
   10d3a:	48 b8 07 7f 6c d9 89 	movabs $0x30ec5a89d96c7f07,%rax
   10d41:	5a ec 30 
   10d44:	48 39 c2             	cmp    %rax,%rdx
   10d47:	0f 9f c0             	setg   %al
   10d4a:	0f b6 c0             	movzbl %al,%eax
   10d4d:	be 00 00 00 00       	mov    $0x0,%esi
   10d52:	89 c7                	mov    %eax,%edi
   10d54:	e8 88 77 ff ff       	callq  84e1 <safe_lshift_func_int16_t_s_u>
   10d59:	66 85 c0             	test   %ax,%ax
   10d5c:	75 0a                	jne    10d68 <func_46+0x4cc>
   10d5e:	8b 05 8c c4 00 00    	mov    0xc48c(%rip),%eax        # 1d1f0 <g_190+0x30>
   10d64:	85 c0                	test   %eax,%eax
   10d66:	74 07                	je     10d6f <func_46+0x4d3>
   10d68:	b8 01 00 00 00       	mov    $0x1,%eax
   10d6d:	eb 05                	jmp    10d74 <func_46+0x4d8>
   10d6f:	b8 00 00 00 00       	mov    $0x0,%eax
   10d74:	0f b7 c0             	movzwl %ax,%eax
   10d77:	be 02 00 00 00       	mov    $0x2,%esi
   10d7c:	89 c7                	mov    %eax,%edi
   10d7e:	e8 c5 80 ff ff       	callq  8e48 <safe_rshift_func_uint16_t_u_s>
   10d83:	48 8b 95 f8 ec ff ff 	mov    -0x1308(%rbp),%rdx
   10d8a:	8b 0a                	mov    (%rdx),%ecx
   10d8c:	0f b7 d0             	movzwl %ax,%edx
   10d8f:	48 8b 85 f8 ec ff ff 	mov    -0x1308(%rbp),%rax
   10d96:	31 ca                	xor    %ecx,%edx
   10d98:	89 10                	mov    %edx,(%rax)
   10d9a:	c7 05 80 c2 00 00 00 	movl   $0x0,0xc280(%rip)        # 1d024 <g_5>
   10da1:	00 00 00 
   10da4:	e9 12 0c 00 00       	jmpq   119bb <func_46+0x111f>
   10da9:	c6 85 0d ed ff ff 00 	movb   $0x0,-0x12f3(%rbp)
   10db0:	48 8d 05 f1 c4 00 00 	lea    0xc4f1(%rip),%rax        # 1d2a8 <g_241>
   10db7:	48 89 85 10 f1 ff ff 	mov    %rax,-0xef0(%rbp)
   10dbe:	48 8d 05 e5 c4 00 00 	lea    0xc4e5(%rip),%rax        # 1d2aa <g_243>
   10dc5:	48 89 85 50 f5 ff ff 	mov    %rax,-0xab0(%rbp)
   10dcc:	48 8d 05 d7 c4 00 00 	lea    0xc4d7(%rip),%rax        # 1d2aa <g_243>
   10dd3:	48 89 85 58 f5 ff ff 	mov    %rax,-0xaa8(%rbp)
   10dda:	48 8d 05 c9 c4 00 00 	lea    0xc4c9(%rip),%rax        # 1d2aa <g_243>
   10de1:	48 89 85 60 f5 ff ff 	mov    %rax,-0xaa0(%rbp)
   10de8:	48 8d 05 bb c4 00 00 	lea    0xc4bb(%rip),%rax        # 1d2aa <g_243>
   10def:	48 89 85 68 f5 ff ff 	mov    %rax,-0xa98(%rbp)
   10df6:	48 8d 05 ad c4 00 00 	lea    0xc4ad(%rip),%rax        # 1d2aa <g_243>
   10dfd:	48 89 85 70 f5 ff ff 	mov    %rax,-0xa90(%rbp)
   10e04:	48 8d 05 9f c4 00 00 	lea    0xc49f(%rip),%rax        # 1d2aa <g_243>
   10e0b:	48 89 85 78 f5 ff ff 	mov    %rax,-0xa88(%rbp)
   10e12:	48 8d 05 91 c4 00 00 	lea    0xc491(%rip),%rax        # 1d2aa <g_243>
   10e19:	48 89 85 80 f5 ff ff 	mov    %rax,-0xa80(%rbp)
   10e20:	48 8d 05 83 c4 00 00 	lea    0xc483(%rip),%rax        # 1d2aa <g_243>
   10e27:	48 89 85 88 f5 ff ff 	mov    %rax,-0xa78(%rbp)
   10e2e:	48 8d 05 75 c4 00 00 	lea    0xc475(%rip),%rax        # 1d2aa <g_243>
   10e35:	48 89 85 90 f5 ff ff 	mov    %rax,-0xa70(%rbp)
   10e3c:	48 8d 05 67 c4 00 00 	lea    0xc467(%rip),%rax        # 1d2aa <g_243>
   10e43:	48 89 85 98 f5 ff ff 	mov    %rax,-0xa68(%rbp)
   10e4a:	48 8d 05 59 c4 00 00 	lea    0xc459(%rip),%rax        # 1d2aa <g_243>
   10e51:	48 89 85 a0 f5 ff ff 	mov    %rax,-0xa60(%rbp)
   10e58:	48 8d 05 4b c4 00 00 	lea    0xc44b(%rip),%rax        # 1d2aa <g_243>
   10e5f:	48 89 85 a8 f5 ff ff 	mov    %rax,-0xa58(%rbp)
   10e66:	48 8d 05 3d c4 00 00 	lea    0xc43d(%rip),%rax        # 1d2aa <g_243>
   10e6d:	48 89 85 b0 f5 ff ff 	mov    %rax,-0xa50(%rbp)
   10e74:	48 8d 05 2f c4 00 00 	lea    0xc42f(%rip),%rax        # 1d2aa <g_243>
   10e7b:	48 89 85 b8 f5 ff ff 	mov    %rax,-0xa48(%rbp)
   10e82:	c7 85 9c ed ff ff 00 	movl   $0x0,-0x1264(%rbp)
   10e89:	00 00 00 
   10e8c:	48 8d 05 4d 01 01 00 	lea    0x1014d(%rip),%rax        # 20fe0 <g_247>
   10e93:	48 89 85 00 ee ff ff 	mov    %rax,-0x1200(%rbp)
   10e9a:	48 8d 85 60 f4 ff ff 	lea    -0xba0(%rbp),%rax
   10ea1:	48 05 a0 00 00 00    	add    $0xa0,%rax
   10ea7:	48 89 85 18 f1 ff ff 	mov    %rax,-0xee8(%rbp)
   10eae:	c7 85 a0 ed ff ff 00 	movl   $0x0,-0x1260(%rbp)
   10eb5:	00 00 00 
   10eb8:	c7 85 a4 ed ff ff 01 	movl   $0x1,-0x125c(%rbp)
   10ebf:	00 00 00 
   10ec2:	c7 85 a8 ed ff ff 04 	movl   $0x4,-0x1258(%rbp)
   10ec9:	00 00 00 
   10ecc:	c7 85 ac ed ff ff 02 	movl   $0x2,-0x1254(%rbp)
   10ed3:	00 00 00 
   10ed6:	c7 85 30 ed ff ff fd 	movl   $0x5aa053fd,-0x12d0(%rbp)
   10edd:	53 a0 5a 
   10ee0:	c7 85 b0 ed ff ff 21 	movl   $0x6f7c9921,-0x1250(%rbp)
   10ee7:	99 7c 6f 
   10eea:	c7 85 34 ed ff ff af 	movl   $0x6b6457af,-0x12cc(%rbp)
   10ef1:	57 64 6b 
   10ef4:	c7 85 b4 ed ff ff a6 	movl   $0x9ddd20a6,-0x124c(%rbp)
   10efb:	20 dd 9d 
   10efe:	48 8d 05 e3 dd 00 00 	lea    0xdde3(%rip),%rax        # 1ece8 <g_315>
   10f05:	48 89 85 48 ee ff ff 	mov    %rax,-0x11b8(%rbp)
   10f0c:	48 8d 05 8d c1 00 00 	lea    0xc18d(%rip),%rax        # 1d0a0 <g_89>
   10f13:	48 89 85 08 ee ff ff 	mov    %rax,-0x11f8(%rbp)
   10f1a:	48 8d 85 08 ed ff ff 	lea    -0x12f8(%rbp),%rax
   10f21:	48 89 85 20 f1 ff ff 	mov    %rax,-0xee0(%rbp)
   10f28:	48 b8 0e 41 10 90 4d 	movabs $0x54a88e4d9010410e,%rax
   10f2f:	8e a8 54 
   10f32:	48 89 85 28 f1 ff ff 	mov    %rax,-0xed8(%rbp)
   10f39:	c7 85 5c ed ff ff 00 	movl   $0x0,-0x12a4(%rbp)
   10f40:	00 00 00 
   10f43:	eb 1a                	jmp    10f5f <func_46+0x6c3>
   10f45:	8b 85 5c ed ff ff    	mov    -0x12a4(%rbp),%eax
   10f4b:	48 98                	cltq   
   10f4d:	c7 84 85 30 f3 ff ff 	movl   $0xc60c7e5d,-0xcd0(%rbp,%rax,4)
   10f54:	5d 7e 0c c6 
   10f58:	83 85 5c ed ff ff 01 	addl   $0x1,-0x12a4(%rbp)
   10f5f:	83 bd 5c ed ff ff 03 	cmpl   $0x3,-0x12a4(%rbp)
   10f66:	7e dd                	jle    10f45 <func_46+0x6a9>
   10f68:	8b 85 d0 f4 ff ff    	mov    -0xb30(%rbp),%eax
   10f6e:	0f b6 d8             	movzbl %al,%ebx
   10f71:	48 8b 85 e0 ec ff ff 	mov    -0x1320(%rbp),%rax
   10f78:	41 89 c5             	mov    %eax,%r13d
   10f7b:	c7 85 9c ed ff ff 08 	movl   $0x8,-0x1264(%rbp)
   10f82:	00 00 00 
   10f85:	48 8b 85 10 f1 ff ff 	mov    -0xef0(%rbp),%rax
   10f8c:	0f b7 00             	movzwl (%rax),%eax
   10f8f:	66 0d 7e 4c          	or     $0x4c7e,%ax
   10f93:	89 c2                	mov    %eax,%edx
   10f95:	48 8b 85 10 f1 ff ff 	mov    -0xef0(%rbp),%rax
   10f9c:	66 89 10             	mov    %dx,(%rax)
   10f9f:	48 c7 c6 fd ff ff ff 	mov    $0xfffffffffffffffd,%rsi
   10fa6:	bf 00 00 00 00       	mov    $0x0,%edi
   10fab:	e8 91 78 ff ff       	callq  8841 <safe_add_func_int64_t_s_s>
   10fb0:	0f b6 95 08 ed ff ff 	movzbl -0x12f8(%rbp),%edx
   10fb7:	0f b6 d2             	movzbl %dl,%edx
   10fba:	48 39 d0             	cmp    %rdx,%rax
   10fbd:	0f 9e c2             	setle  %dl
   10fc0:	48 8b 85 d0 ed ff ff 	mov    -0x1230(%rbp),%rax
   10fc7:	88 10                	mov    %dl,(%rax)
   10fc9:	0f b6 00             	movzbl (%rax),%eax
   10fcc:	44 0f be e0          	movsbl %al,%r12d
   10fd0:	0f b6 95 0d ed ff ff 	movzbl -0x12f3(%rbp),%edx
   10fd7:	48 8b 05 a2 c1 00 00 	mov    0xc1a2(%rip),%rax        # 1d180 <g_132>
   10fde:	0f b7 c0             	movzwl %ax,%eax
   10fe1:	89 d6                	mov    %edx,%esi
   10fe3:	89 c7                	mov    %eax,%edi
   10fe5:	e8 1c 7e ff ff       	callq  8e06 <safe_lshift_func_uint16_t_u_u>
   10fea:	0f b7 c8             	movzwl %ax,%ecx
   10fed:	0f b6 95 08 ed ff ff 	movzbl -0x12f8(%rbp),%edx
   10ff4:	48 8b 85 f8 ec ff ff 	mov    -0x1308(%rbp),%rax
   10ffb:	0f b6 d2             	movzbl %dl,%edx
   10ffe:	89 10                	mov    %edx,(%rax)
   11000:	8b 10                	mov    (%rax),%edx
   11002:	0f b6 85 0d ed ff ff 	movzbl -0x12f3(%rbp),%eax
   11009:	39 c2                	cmp    %eax,%edx
   1100b:	0f 9f c0             	setg   %al
   1100e:	0f b6 c0             	movzbl %al,%eax
   11011:	39 c1                	cmp    %eax,%ecx
   11013:	0f 9c c0             	setl   %al
   11016:	0f b6 c0             	movzbl %al,%eax
   11019:	44 89 e6             	mov    %r12d,%esi
   1101c:	89 c7                	mov    %eax,%edi
   1101e:	e8 12 73 ff ff       	callq  8335 <safe_rshift_func_int8_t_s_s>
   11023:	0f be d0             	movsbl %al,%edx
   11026:	8b 85 1c ed ff ff    	mov    -0x12e4(%rbp),%eax
   1102c:	09 d0                	or     %edx,%eax
   1102e:	89 85 1c ed ff ff    	mov    %eax,-0x12e4(%rbp)
   11034:	8b 85 1c ed ff ff    	mov    -0x12e4(%rbp),%eax
   1103a:	85 c0                	test   %eax,%eax
   1103c:	74 10                	je     1104e <func_46+0x7b2>
   1103e:	83 bd 9c ed ff ff 00 	cmpl   $0x0,-0x1264(%rbp)
   11045:	74 07                	je     1104e <func_46+0x7b2>
   11047:	b8 01 00 00 00       	mov    $0x1,%eax
   1104c:	eb 05                	jmp    11053 <func_46+0x7b7>
   1104e:	b8 00 00 00 00       	mov    $0x0,%eax
   11053:	0f b7 c0             	movzwl %ax,%eax
   11056:	be fa ff 00 00       	mov    $0xfffa,%esi
   1105b:	89 c7                	mov    %eax,%edi
   1105d:	e8 db 7c ff ff       	callq  8d3d <safe_mul_func_uint16_t_u_u>
   11062:	89 c2                	mov    %eax,%edx
   11064:	48 8b 85 00 ee ff ff 	mov    -0x1200(%rbp),%rax
   1106b:	0f b6 08             	movzbl (%rax),%ecx
   1106e:	48 8b 85 00 ee ff ff 	mov    -0x1200(%rbp),%rax
   11075:	09 ca                	or     %ecx,%edx
   11077:	88 10                	mov    %dl,(%rax)
   11079:	0f b6 00             	movzbl (%rax),%eax
   1107c:	48 0f be c0          	movsbq %al,%rax
   11080:	48 39 85 e0 ec ff ff 	cmp    %rax,-0x1320(%rbp)
   11087:	0f 9d c0             	setge  %al
   1108a:	0f b6 c0             	movzbl %al,%eax
   1108d:	44 89 ee             	mov    %r13d,%esi
   11090:	89 c7                	mov    %eax,%edi
   11092:	e8 93 74 ff ff       	callq  852a <safe_rshift_func_int16_t_s_s>
   11097:	0f bf d0             	movswl %ax,%edx
   1109a:	8b 85 d4 f4 ff ff    	mov    -0xb2c(%rbp),%eax
   110a0:	39 c2                	cmp    %eax,%edx
   110a2:	0f 9e c0             	setle  %al
   110a5:	0f b6 c0             	movzbl %al,%eax
   110a8:	89 de                	mov    %ebx,%esi
   110aa:	89 c7                	mov    %eax,%edi
   110ac:	e8 2a 7b ff ff       	callq  8bdb <safe_div_func_uint8_t_u_u>
   110b1:	0f b6 d0             	movzbl %al,%edx
   110b4:	8b 05 b6 c1 00 00    	mov    0xc1b6(%rip),%eax        # 1d270 <g_190+0xb0>
   110ba:	39 c2                	cmp    %eax,%edx
   110bc:	0f 93 c0             	setae  %al
   110bf:	0f b6 d0             	movzbl %al,%edx
   110c2:	48 8b 85 18 f1 ff ff 	mov    -0xee8(%rbp),%rax
   110c9:	89 10                	mov    %edx,(%rax)
   110cb:	48 8b 85 18 f1 ff ff 	mov    -0xee8(%rbp),%rax
   110d2:	8b 00                	mov    (%rax),%eax
   110d4:	85 c0                	test   %eax,%eax
   110d6:	0f 84 24 01 00 00    	je     11200 <func_46+0x964>
   110dc:	66 c7 05 c5 c1 00 00 	movw   $0xffe2,0xc1c5(%rip)        # 1d2aa <g_243>
   110e3:	e2 ff 
   110e5:	e9 00 01 00 00       	jmpq   111ea <func_46+0x94e>
   110ea:	48 c7 85 e0 ec ff ff 	movq   $0x0,-0x1320(%rbp)
   110f1:	00 00 00 00 
   110f5:	eb 4e                	jmp    11145 <func_46+0x8a9>
   110f7:	c6 85 10 ed ff ff ed 	movb   $0xed,-0x12f0(%rbp)
   110fe:	48 8b 05 db d2 00 00 	mov    0xd2db(%rip),%rax        # 1e3e0 <g_29>
   11105:	8b 00                	mov    (%rax),%eax
   11107:	85 c0                	test   %eax,%eax
   11109:	75 46                	jne    11151 <func_46+0x8b5>
   1110b:	0f b6 85 10 ed ff ff 	movzbl -0x12f0(%rbp),%eax
   11112:	83 e8 01             	sub    $0x1,%eax
   11115:	88 85 10 ed ff ff    	mov    %al,-0x12f0(%rbp)
   1111b:	48 8b 05 1e d4 00 00 	mov    0xd41e(%rip),%rax        # 1e540 <g_254>
   11122:	48 8b 95 f8 ec ff ff 	mov    -0x1308(%rbp),%rdx
   11129:	48 89 10             	mov    %rdx,(%rax)
   1112c:	48 8b 05 15 d4 00 00 	mov    0xd415(%rip),%rax        # 1e548 <g_255>
   11133:	48 8b 95 f8 ec ff ff 	mov    -0x1308(%rbp),%rdx
   1113a:	48 89 10             	mov    %rdx,(%rax)
   1113d:	48 83 85 e0 ec ff ff 	addq   $0x1,-0x1320(%rbp)
   11144:	01 
   11145:	48 83 bd e0 ec ff ff 	cmpq   $0x0,-0x1320(%rbp)
   1114c:	00 
   1114d:	7e a8                	jle    110f7 <func_46+0x85b>
   1114f:	eb 01                	jmp    11152 <func_46+0x8b6>
   11151:	90                   	nop
   11152:	c6 85 08 ed ff ff 00 	movb   $0x0,-0x12f8(%rbp)
   11159:	eb 73                	jmp    111ce <func_46+0x932>
   1115b:	c6 85 11 ed ff ff fe 	movb   $0xfe,-0x12ef(%rbp)
   11162:	c6 05 77 fe 00 00 00 	movb   $0x0,0xfe77(%rip)        # 20fe0 <g_247>
   11169:	90                   	nop
   1116a:	0f b6 05 6f fe 00 00 	movzbl 0xfe6f(%rip),%eax        # 20fe0 <g_247>
   11171:	3c 03                	cmp    $0x3,%al
   11173:	7f 49                	jg     111be <func_46+0x922>
   11175:	48 c7 85 68 f1 ff ff 	movq   $0x0,-0xe98(%rbp)
   1117c:	00 00 00 00 
   11180:	48 8d 85 60 f4 ff ff 	lea    -0xba0(%rbp),%rax
   11187:	48 05 b4 00 00 00    	add    $0xb4,%rax
   1118d:	48 89 85 70 f1 ff ff 	mov    %rax,-0xe90(%rbp)
   11194:	48 8d 95 d0 f7 ff ff 	lea    -0x830(%rbp),%rdx
   1119b:	b8 00 00 00 00       	mov    $0x0,%eax
   111a0:	b9 1c 00 00 00       	mov    $0x1c,%ecx
   111a5:	48 89 d7             	mov    %rdx,%rdi
   111a8:	f3 48 ab             	rep stos %rax,%es:(%rdi)
   111ab:	80 85 11 ed ff ff 01 	addb   $0x1,-0x12ef(%rbp)
   111b2:	48 8b 85 f8 ec ff ff 	mov    -0x1308(%rbp),%rax
   111b9:	e9 02 55 00 00       	jmpq   166c0 <func_46+0x5e24>
   111be:	0f b6 85 08 ed ff ff 	movzbl -0x12f8(%rbp),%eax
   111c5:	83 c0 01             	add    $0x1,%eax
   111c8:	88 85 08 ed ff ff    	mov    %al,-0x12f8(%rbp)
   111ce:	0f b6 85 08 ed ff ff 	movzbl -0x12f8(%rbp),%eax
   111d5:	3c 04                	cmp    $0x4,%al
   111d7:	76 82                	jbe    1115b <func_46+0x8bf>
   111d9:	0f b7 05 ca c0 00 00 	movzwl 0xc0ca(%rip),%eax        # 1d2aa <g_243>
   111e0:	83 c0 01             	add    $0x1,%eax
   111e3:	66 89 05 c0 c0 00 00 	mov    %ax,0xc0c0(%rip)        # 1d2aa <g_243>
   111ea:	0f b7 05 b9 c0 00 00 	movzwl 0xc0b9(%rip),%eax        # 1d2aa <g_243>
   111f1:	66 83 f8 04          	cmp    $0x4,%ax
   111f5:	0f 8e ef fe ff ff    	jle    110ea <func_46+0x84e>
   111fb:	e9 af 05 00 00       	jmpq   117af <func_46+0xf13>
   11200:	48 8d 85 60 f4 ff ff 	lea    -0xba0(%rbp),%rax
   11207:	48 05 a0 00 00 00    	add    $0xa0,%rax
   1120d:	48 89 85 30 f1 ff ff 	mov    %rax,-0xed0(%rbp)
   11214:	48 c7 85 d0 f7 ff ff 	movq   $0x0,-0x830(%rbp)
   1121b:	00 00 00 00 
   1121f:	48 c7 85 d8 f7 ff ff 	movq   $0x0,-0x828(%rbp)
   11226:	00 00 00 00 
   1122a:	48 8d 85 60 f4 ff ff 	lea    -0xba0(%rbp),%rax
   11231:	48 83 c0 10          	add    $0x10,%rax
   11235:	48 89 85 e0 f7 ff ff 	mov    %rax,-0x820(%rbp)
   1123c:	48 8d 05 e5 bd 00 00 	lea    0xbde5(%rip),%rax        # 1d028 <g_25>
   11243:	48 89 85 e8 f7 ff ff 	mov    %rax,-0x818(%rbp)
   1124a:	48 8d 05 d7 bd 00 00 	lea    0xbdd7(%rip),%rax        # 1d028 <g_25>
   11251:	48 89 85 f0 f7 ff ff 	mov    %rax,-0x810(%rbp)
   11258:	48 8d 85 60 f4 ff ff 	lea    -0xba0(%rbp),%rax
   1125f:	48 83 c0 10          	add    $0x10,%rax
   11263:	48 89 85 f8 f7 ff ff 	mov    %rax,-0x808(%rbp)
   1126a:	48 c7 85 00 f8 ff ff 	movq   $0x0,-0x800(%rbp)
   11271:	00 00 00 00 
   11275:	48 c7 85 08 f8 ff ff 	movq   $0x0,-0x7f8(%rbp)
   1127c:	00 00 00 00 
   11280:	48 c7 85 10 f8 ff ff 	movq   $0x0,-0x7f0(%rbp)
   11287:	00 00 00 00 
   1128b:	48 c7 85 18 f8 ff ff 	movq   $0x0,-0x7e8(%rbp)
   11292:	00 00 00 00 
   11296:	48 8d 85 60 f4 ff ff 	lea    -0xba0(%rbp),%rax
   1129d:	48 83 c0 74          	add    $0x74,%rax
   112a1:	48 89 85 20 f8 ff ff 	mov    %rax,-0x7e0(%rbp)
   112a8:	48 8d 85 60 f4 ff ff 	lea    -0xba0(%rbp),%rax
   112af:	48 83 c0 10          	add    $0x10,%rax
   112b3:	48 89 85 28 f8 ff ff 	mov    %rax,-0x7d8(%rbp)
   112ba:	48 8d 85 60 f4 ff ff 	lea    -0xba0(%rbp),%rax
   112c1:	48 83 c0 10          	add    $0x10,%rax
   112c5:	48 89 85 30 f8 ff ff 	mov    %rax,-0x7d0(%rbp)
   112cc:	48 8d 85 60 f4 ff ff 	lea    -0xba0(%rbp),%rax
   112d3:	48 83 c0 74          	add    $0x74,%rax
   112d7:	48 89 85 38 f8 ff ff 	mov    %rax,-0x7c8(%rbp)
   112de:	48 c7 85 40 f8 ff ff 	movq   $0x0,-0x7c0(%rbp)
   112e5:	00 00 00 00 
   112e9:	48 8d 05 38 bd 00 00 	lea    0xbd38(%rip),%rax        # 1d028 <g_25>
   112f0:	48 89 85 48 f8 ff ff 	mov    %rax,-0x7b8(%rbp)
   112f7:	48 c7 85 50 f8 ff ff 	movq   $0x0,-0x7b0(%rbp)
   112fe:	00 00 00 00 
   11302:	48 8d 85 60 f4 ff ff 	lea    -0xba0(%rbp),%rax
   11309:	48 83 c0 74          	add    $0x74,%rax
   1130d:	48 89 85 58 f8 ff ff 	mov    %rax,-0x7a8(%rbp)
   11314:	48 c7 85 60 f8 ff ff 	movq   $0x0,-0x7a0(%rbp)
   1131b:	00 00 00 00 
   1131f:	48 c7 85 68 f8 ff ff 	movq   $0x0,-0x798(%rbp)
   11326:	00 00 00 00 
   1132a:	48 c7 85 70 f8 ff ff 	movq   $0x0,-0x790(%rbp)
   11331:	00 00 00 00 
   11335:	48 c7 85 78 f8 ff ff 	movq   $0x0,-0x788(%rbp)
   1133c:	00 00 00 00 
   11340:	48 c7 85 80 f8 ff ff 	movq   $0x0,-0x780(%rbp)
   11347:	00 00 00 00 
   1134b:	48 8d 85 60 f4 ff ff 	lea    -0xba0(%rbp),%rax
   11352:	48 83 c0 74          	add    $0x74,%rax
   11356:	48 89 85 88 f8 ff ff 	mov    %rax,-0x778(%rbp)
   1135d:	48 c7 85 90 f8 ff ff 	movq   $0x0,-0x770(%rbp)
   11364:	00 00 00 00 
   11368:	48 c7 85 98 f8 ff ff 	movq   $0x0,-0x768(%rbp)
   1136f:	00 00 00 00 
   11373:	48 c7 85 a0 f8 ff ff 	movq   $0x0,-0x760(%rbp)
   1137a:	00 00 00 00 
   1137e:	48 c7 85 a8 f8 ff ff 	movq   $0x0,-0x758(%rbp)
   11385:	00 00 00 00 
   11389:	48 c7 85 b0 f8 ff ff 	movq   $0x0,-0x750(%rbp)
   11390:	00 00 00 00 
   11394:	48 8d 05 8d bc 00 00 	lea    0xbc8d(%rip),%rax        # 1d028 <g_25>
   1139b:	48 89 85 b8 f8 ff ff 	mov    %rax,-0x748(%rbp)
   113a2:	48 8d 85 60 f4 ff ff 	lea    -0xba0(%rbp),%rax
   113a9:	48 83 c0 74          	add    $0x74,%rax
   113ad:	48 89 85 c0 f8 ff ff 	mov    %rax,-0x740(%rbp)
   113b4:	48 8d 85 1c ed ff ff 	lea    -0x12e4(%rbp),%rax
   113bb:	48 89 85 c8 f8 ff ff 	mov    %rax,-0x738(%rbp)
   113c2:	48 8d 85 60 f4 ff ff 	lea    -0xba0(%rbp),%rax
   113c9:	48 83 c0 74          	add    $0x74,%rax
   113cd:	48 89 85 d0 f8 ff ff 	mov    %rax,-0x730(%rbp)
   113d4:	48 8d 05 4d bc 00 00 	lea    0xbc4d(%rip),%rax        # 1d028 <g_25>
   113db:	48 89 85 d8 f8 ff ff 	mov    %rax,-0x728(%rbp)
   113e2:	48 c7 85 e0 f8 ff ff 	movq   $0x0,-0x720(%rbp)
   113e9:	00 00 00 00 
   113ed:	48 c7 85 e8 f8 ff ff 	movq   $0x0,-0x718(%rbp)
   113f4:	00 00 00 00 
   113f8:	48 c7 85 f0 f8 ff ff 	movq   $0x0,-0x710(%rbp)
   113ff:	00 00 00 00 
   11403:	48 c7 85 f8 f8 ff ff 	movq   $0x0,-0x708(%rbp)
   1140a:	00 00 00 00 
   1140e:	48 c7 85 00 f9 ff ff 	movq   $0x0,-0x700(%rbp)
   11415:	00 00 00 00 
   11419:	48 8d 85 60 f4 ff ff 	lea    -0xba0(%rbp),%rax
   11420:	48 83 c0 74          	add    $0x74,%rax
   11424:	48 89 85 08 f9 ff ff 	mov    %rax,-0x6f8(%rbp)
   1142b:	48 c7 85 10 f9 ff ff 	movq   $0x0,-0x6f0(%rbp)
   11432:	00 00 00 00 
   11436:	48 c7 85 18 f9 ff ff 	movq   $0x0,-0x6e8(%rbp)
   1143d:	00 00 00 00 
   11441:	48 c7 85 20 f9 ff ff 	movq   $0x0,-0x6e0(%rbp)
   11448:	00 00 00 00 
   1144c:	48 c7 85 28 f9 ff ff 	movq   $0x0,-0x6d8(%rbp)
   11453:	00 00 00 00 
   11457:	48 c7 85 30 f9 ff ff 	movq   $0x0,-0x6d0(%rbp)
   1145e:	00 00 00 00 
   11462:	48 8d 85 60 f4 ff ff 	lea    -0xba0(%rbp),%rax
   11469:	48 83 c0 74          	add    $0x74,%rax
   1146d:	48 89 85 38 f9 ff ff 	mov    %rax,-0x6c8(%rbp)
   11474:	48 c7 85 40 f9 ff ff 	movq   $0x0,-0x6c0(%rbp)
   1147b:	00 00 00 00 
   1147f:	48 8d 05 a2 bb 00 00 	lea    0xbba2(%rip),%rax        # 1d028 <g_25>
   11486:	48 89 85 48 f9 ff ff 	mov    %rax,-0x6b8(%rbp)
   1148d:	48 c7 85 50 f9 ff ff 	movq   $0x0,-0x6b0(%rbp)
   11494:	00 00 00 00 
   11498:	48 8d 85 60 f4 ff ff 	lea    -0xba0(%rbp),%rax
   1149f:	48 83 c0 74          	add    $0x74,%rax
   114a3:	48 89 85 58 f9 ff ff 	mov    %rax,-0x6a8(%rbp)
   114aa:	48 8d 85 60 f4 ff ff 	lea    -0xba0(%rbp),%rax
   114b1:	48 83 c0 10          	add    $0x10,%rax
   114b5:	48 89 85 60 f9 ff ff 	mov    %rax,-0x6a0(%rbp)
   114bc:	48 8d 85 60 f4 ff ff 	lea    -0xba0(%rbp),%rax
   114c3:	48 83 c0 10          	add    $0x10,%rax
   114c7:	48 89 85 68 f9 ff ff 	mov    %rax,-0x698(%rbp)
   114ce:	48 8d 85 60 f4 ff ff 	lea    -0xba0(%rbp),%rax
   114d5:	48 83 c0 74          	add    $0x74,%rax
   114d9:	48 89 85 70 f9 ff ff 	mov    %rax,-0x690(%rbp)
   114e0:	48 c7 85 78 f9 ff ff 	movq   $0x0,-0x688(%rbp)
   114e7:	00 00 00 00 
   114eb:	48 c7 85 10 ee ff ff 	movq   $0xfffffffffffffffb,-0x11f0(%rbp)
   114f2:	fb ff ff ff 
   114f6:	48 8d 05 9b bb 00 00 	lea    0xbb9b(%rip),%rax        # 1d098 <g_63>
   114fd:	48 89 85 38 f1 ff ff 	mov    %rax,-0xec8(%rbp)
   11504:	48 8d 85 34 ed ff ff 	lea    -0x12cc(%rbp),%rax
   1150b:	48 89 85 40 f1 ff ff 	mov    %rax,-0xec0(%rbp)
   11512:	48 83 ad 38 ee ff ff 	subq   $0x1,-0x11c8(%rbp)
   11519:	01 
   1151a:	48 8b 85 f8 ec ff ff 	mov    -0x1308(%rbp),%rax
   11521:	48 89 85 d8 ed ff ff 	mov    %rax,-0x1228(%rbp)
   11528:	48 83 bd 50 ee ff ff 	cmpq   $0x0,-0x11b0(%rbp)
   1152f:	00 
   11530:	0f 95 c0             	setne  %al
   11533:	0f b6 d0             	movzbl %al,%edx
   11536:	8b 05 b4 bc 00 00    	mov    0xbcb4(%rip),%eax        # 1d1f0 <g_190+0x30>
   1153c:	09 d0                	or     %edx,%eax
   1153e:	85 c0                	test   %eax,%eax
   11540:	0f 84 bd 01 00 00    	je     11703 <func_46+0xe67>
   11546:	c7 85 b8 ed ff ff ff 	movl   $0xffffffff,-0x1248(%rbp)
   1154d:	ff ff ff 
   11550:	c7 85 bc ed ff ff c7 	movl   $0x699057c7,-0x1244(%rbp)
   11557:	57 90 69 
   1155a:	c7 85 c0 ed ff ff 04 	movl   $0x4,-0x1240(%rbp)
   11561:	00 00 00 
   11564:	c7 85 50 ed ff ff 01 	movl   $0x1,-0x12b0(%rbp)
   1156b:	00 00 00 
   1156e:	48 b8 7c ff 05 22 f5 	movabs $0x1bc57f52205ff7c,%rax
   11575:	57 bc 01 
   11578:	48 89 85 30 ee ff ff 	mov    %rax,-0x11d0(%rbp)
   1157f:	48 8d 05 12 bb 00 00 	lea    0xbb12(%rip),%rax        # 1d098 <g_63>
   11586:	48 89 85 50 f1 ff ff 	mov    %rax,-0xeb0(%rbp)
   1158d:	c7 85 1c ed ff ff 0d 	movl   $0xd,-0x12e4(%rbp)
   11594:	00 00 00 
   11597:	e9 22 01 00 00       	jmpq   116be <func_46+0xe22>
   1159c:	48 8d 85 30 ed ff ff 	lea    -0x12d0(%rbp),%rax
   115a3:	48 89 85 58 f1 ff ff 	mov    %rax,-0xea8(%rbp)
   115aa:	48 c7 85 18 ee ff ff 	movq   $0x0,-0x11e8(%rbp)
   115b1:	00 00 00 00 
   115b5:	48 8d 85 10 ee ff ff 	lea    -0x11f0(%rbp),%rax
   115bc:	48 89 85 20 ee ff ff 	mov    %rax,-0x11e0(%rbp)
   115c3:	48 8d 85 00 ee ff ff 	lea    -0x1200(%rbp),%rax
   115ca:	48 89 85 28 ee ff ff 	mov    %rax,-0x11d8(%rbp)
   115d1:	c7 85 c4 ed ff ff 01 	movl   $0x1,-0x123c(%rbp)
   115d8:	00 00 00 
   115db:	c7 85 54 ed ff ff 00 	movl   $0x0,-0x12ac(%rbp)
   115e2:	00 00 00 
   115e5:	eb 1a                	jmp    11601 <func_46+0xd65>
   115e7:	8b 85 54 ed ff ff    	mov    -0x12ac(%rbp),%eax
   115ed:	48 98                	cltq   
   115ef:	c7 84 85 c0 f2 ff ff 	movl   $0x0,-0xd40(%rbp,%rax,4)
   115f6:	00 00 00 00 
   115fa:	83 85 54 ed ff ff 01 	addl   $0x1,-0x12ac(%rbp)
   11601:	83 bd 54 ed ff ff 01 	cmpl   $0x1,-0x12ac(%rbp)
   11608:	7e dd                	jle    115e7 <func_46+0xd4b>
   1160a:	48 8b 05 3f cf 00 00 	mov    0xcf3f(%rip),%rax        # 1e550 <g_285>
   11611:	48 8b 95 58 f1 ff ff 	mov    -0xea8(%rbp),%rdx
   11618:	48 89 10             	mov    %rdx,(%rax)
   1161b:	48 8b 85 20 ee ff ff 	mov    -0x11e0(%rbp),%rax
   11622:	48 bb a9 1e 18 09 fa 	movabs $0x450825fa09181ea9,%rbx
   11629:	25 08 45 
   1162c:	48 89 18             	mov    %rbx,(%rax)
   1162f:	c6 85 0f ed ff ff 2d 	movb   $0x2d,-0x12f1(%rbp)
   11636:	48 8d 85 c0 f3 ff ff 	lea    -0xc40(%rbp),%rax
   1163d:	48 83 c0 18          	add    $0x18,%rax
   11641:	48 89 85 60 f1 ff ff 	mov    %rax,-0xea0(%rbp)
   11648:	c7 85 58 ed ff ff 00 	movl   $0x0,-0x12a8(%rbp)
   1164f:	00 00 00 
   11652:	eb 1e                	jmp    11672 <func_46+0xdd6>
   11654:	8b 85 58 ed ff ff    	mov    -0x12a8(%rbp),%eax
   1165a:	48 98                	cltq   
   1165c:	48 8d 95 18 ee ff ff 	lea    -0x11e8(%rbp),%rdx
   11663:	48 89 94 c5 c0 f3 ff 	mov    %rdx,-0xc40(%rbp,%rax,8)
   1166a:	ff 
   1166b:	83 85 58 ed ff ff 01 	addl   $0x1,-0x12a8(%rbp)
   11672:	83 bd 58 ed ff ff 03 	cmpl   $0x3,-0x12a8(%rbp)
   11679:	7e d9                	jle    11654 <func_46+0xdb8>
   1167b:	48 8b 85 58 f1 ff ff 	mov    -0xea8(%rbp),%rax
   11682:	48 89 85 f8 ec ff ff 	mov    %rax,-0x1308(%rbp)
   11689:	48 8b 85 f8 ec ff ff 	mov    -0x1308(%rbp),%rax
   11690:	c7 00 fb ff ff ff    	movl   $0xfffffffb,(%rax)
   11696:	48 83 85 30 ee ff ff 	addq   $0x1,-0x11d0(%rbp)
   1169d:	01 
   1169e:	48 8b 85 60 f1 ff ff 	mov    -0xea0(%rbp),%rax
   116a5:	48 8d 95 20 ee ff ff 	lea    -0x11e0(%rbp),%rdx
   116ac:	48 89 10             	mov    %rdx,(%rax)
   116af:	8b 85 1c ed ff ff    	mov    -0x12e4(%rbp),%eax
   116b5:	83 c0 01             	add    $0x1,%eax
   116b8:	89 85 1c ed ff ff    	mov    %eax,-0x12e4(%rbp)
   116be:	8b 85 1c ed ff ff    	mov    -0x12e4(%rbp),%eax
   116c4:	83 f8 18             	cmp    $0x18,%eax
   116c7:	0f 8e cf fe ff ff    	jle    1159c <func_46+0xd00>
   116cd:	c7 85 50 ed ff ff 00 	movl   $0x0,-0x12b0(%rbp)
   116d4:	00 00 00 
   116d7:	eb 15                	jmp    116ee <func_46+0xe52>
   116d9:	48 8b 85 38 f1 ff ff 	mov    -0xec8(%rbp),%rax
   116e0:	48 89 05 61 d0 00 00 	mov    %rax,0xd061(%rip)        # 1e748 <g_306+0x1e8>
   116e7:	83 ad 50 ed ff ff 01 	subl   $0x1,-0x12b0(%rbp)
   116ee:	83 bd 50 ed ff ff 00 	cmpl   $0x0,-0x12b0(%rbp)
   116f5:	79 e2                	jns    116d9 <func_46+0xe3d>
   116f7:	48 8b 85 50 f1 ff ff 	mov    -0xeb0(%rbp),%rax
   116fe:	e9 bd 4f 00 00       	jmpq   166c0 <func_46+0x5e24>
   11703:	48 8d 05 de d5 00 00 	lea    0xd5de(%rip),%rax        # 1ece8 <g_315>
   1170a:	48 89 85 48 f1 ff ff 	mov    %rax,-0xeb8(%rbp)
   11711:	c7 85 34 ed ff ff 00 	movl   $0x0,-0x12cc(%rbp)
   11718:	00 00 00 
   1171b:	eb 43                	jmp    11760 <func_46+0xec4>
   1171d:	c6 85 0e ed ff ff c9 	movb   $0xc9,-0x12f2(%rbp)
   11724:	48 8b 85 f8 ec ff ff 	mov    -0x1308(%rbp),%rax
   1172b:	8b 00                	mov    (%rax),%eax
   1172d:	85 c0                	test   %eax,%eax
   1172f:	75 3c                	jne    1176d <func_46+0xed1>
   11731:	48 8b 05 a8 cc 00 00 	mov    0xcca8(%rip),%rax        # 1e3e0 <g_29>
   11738:	48 8b 85 d8 ed ff ff 	mov    -0x1228(%rbp),%rax
   1173f:	c7 00 00 00 00 00    	movl   $0x0,(%rax)
   11745:	8b 85 34 ed ff ff    	mov    -0x12cc(%rbp),%eax
   1174b:	48 98                	cltq   
   1174d:	be 03 00 00 00       	mov    $0x3,%esi
   11752:	48 89 c7             	mov    %rax,%rdi
   11755:	e8 d4 78 ff ff       	callq  902e <safe_add_func_uint64_t_u_u>
   1175a:	89 85 34 ed ff ff    	mov    %eax,-0x12cc(%rbp)
   11760:	8b 85 34 ed ff ff    	mov    -0x12cc(%rbp),%eax
   11766:	83 f8 11             	cmp    $0x11,%eax
   11769:	7e b2                	jle    1171d <func_46+0xe81>
   1176b:	eb 01                	jmp    1176e <func_46+0xed2>
   1176d:	90                   	nop
   1176e:	48 8b 05 7b d5 00 00 	mov    0xd57b(%rip),%rax        # 1ecf0 <g_314>
   11775:	48 89 05 74 d5 00 00 	mov    %rax,0xd574(%rip)        # 1ecf0 <g_314>
   1177c:	48 8b 05 6d d5 00 00 	mov    0xd56d(%rip),%rax        # 1ecf0 <g_314>
   11783:	48 89 85 48 ee ff ff 	mov    %rax,-0x11b8(%rbp)
   1178a:	48 8b 85 48 ee ff ff 	mov    -0x11b8(%rbp),%rax
   11791:	48 89 85 48 f1 ff ff 	mov    %rax,-0xeb8(%rbp)
   11798:	48 83 bd 48 f1 ff ff 	cmpq   $0x0,-0xeb8(%rbp)
   1179f:	00 
   117a0:	0f 94 c2             	sete   %dl
   117a3:	48 8b 85 d8 ed ff ff 	mov    -0x1228(%rbp),%rax
   117aa:	0f b6 d2             	movzbl %dl,%edx
   117ad:	89 10                	mov    %edx,(%rax)
   117af:	48 8b 85 e0 ec ff ff 	mov    -0x1320(%rbp),%rax
   117b6:	0f b7 d8             	movzwl %ax,%ebx
   117b9:	48 8b 05 98 b8 00 00 	mov    0xb898(%rip),%rax        # 1d058 <g_27+0x18>
   117c0:	44 0f b7 e0          	movzwl %ax,%r12d
   117c4:	48 8b 85 e0 ec ff ff 	mov    -0x1320(%rbp),%rax
   117cb:	41 89 c5             	mov    %eax,%r13d
   117ce:	48 8b 05 cb b8 00 00 	mov    0xb8cb(%rip),%rax        # 1d0a0 <g_89>
   117d5:	48 85 c0             	test   %rax,%rax
   117d8:	0f 85 b8 00 00 00    	jne    11896 <func_46+0xffa>
   117de:	48 8b 85 08 ee ff ff 	mov    -0x11f8(%rbp),%rax
   117e5:	48 8b 95 e0 ec ff ff 	mov    -0x1320(%rbp),%rdx
   117ec:	48 89 10             	mov    %rdx,(%rax)
   117ef:	48 8b 85 48 ee ff ff 	mov    -0x11b8(%rbp),%rax
   117f6:	48 8b 00             	mov    (%rax),%rax
   117f9:	48 8b 00             	mov    (%rax),%rax
   117fc:	48 85 c0             	test   %rax,%rax
   117ff:	0f 95 c0             	setne  %al
   11802:	0f b6 d0             	movzbl %al,%edx
   11805:	48 8b 85 20 f1 ff ff 	mov    -0xee0(%rbp),%rax
   1180c:	0f b6 08             	movzbl (%rax),%ecx
   1180f:	48 8b 85 20 f1 ff ff 	mov    -0xee0(%rbp),%rax
   11816:	88 08                	mov    %cl,(%rax)
   11818:	48 8b 85 20 f1 ff ff 	mov    -0xee0(%rbp),%rax
   1181f:	0f b6 00             	movzbl (%rax),%eax
   11822:	0f b6 c0             	movzbl %al,%eax
   11825:	89 d6                	mov    %edx,%esi
   11827:	89 c7                	mov    %eax,%edi
   11829:	e8 2c 73 ff ff       	callq  8b5a <safe_add_func_uint8_t_u_u>
   1182e:	48 8b 85 e0 ec ff ff 	mov    -0x1320(%rbp),%rax
   11835:	89 c2                	mov    %eax,%edx
   11837:	48 8b 85 28 f1 ff ff 	mov    -0xed8(%rbp),%rax
   1183e:	21 d0                	and    %edx,%eax
   11840:	0f b7 c0             	movzwl %ax,%eax
   11843:	be 03 00 00 00       	mov    $0x3,%esi
   11848:	89 c7                	mov    %eax,%edi
   1184a:	e8 2b 76 ff ff       	callq  8e7a <safe_rshift_func_uint16_t_u_u>
   1184f:	0f be c0             	movsbl %al,%eax
   11852:	89 c6                	mov    %eax,%esi
   11854:	bf 00 00 00 00       	mov    $0x0,%edi
   11859:	e8 0c 6a ff ff       	callq  826a <safe_div_func_int8_t_s_s>
   1185e:	66 98                	cbtw   
   11860:	0f b7 c0             	movzwl %ax,%eax
   11863:	be 0a 00 00 00       	mov    $0xa,%esi
   11868:	89 c7                	mov    %eax,%edi
   1186a:	e8 97 75 ff ff       	callq  8e06 <safe_lshift_func_uint16_t_u_u>
   1186f:	48 8b 05 02 b8 00 00 	mov    0xb802(%rip),%rax        # 1d078 <g_27+0x38>
   11876:	48 0d f5 d3 00 00    	or     $0xd3f5,%rax
   1187c:	48 89 c1             	mov    %rax,%rcx
   1187f:	48 8b 05 9a cc 00 00 	mov    0xcc9a(%rip),%rax        # 1e520 <g_131>
   11886:	48 8b 10             	mov    (%rax),%rdx
   11889:	48 8b 85 e0 ec ff ff 	mov    -0x1320(%rbp),%rax
   11890:	48 21 d0             	and    %rdx,%rax
   11893:	48 39 c1             	cmp    %rax,%rcx
   11896:	be f7 ff ff ff       	mov    $0xfffffff7,%esi
   1189b:	bf 01 00 00 00       	mov    $0x1,%edi
   118a0:	e8 b0 6b ff ff       	callq  8455 <safe_div_func_int16_t_s_s>
   118a5:	48 8b 85 18 f1 ff ff 	mov    -0xee8(%rbp),%rax
   118ac:	8b 00                	mov    (%rax),%eax
   118ae:	0f be c0             	movsbl %al,%eax
   118b1:	44 89 ee             	mov    %r13d,%esi
   118b4:	89 c7                	mov    %eax,%edi
   118b6:	e8 b1 6a ff ff       	callq  836c <safe_rshift_func_int8_t_s_u>
   118bb:	48 0f be c0          	movsbq %al,%rax
   118bf:	48 89 05 ea b9 00 00 	mov    %rax,0xb9ea(%rip)        # 1d2b0 <g_339>
   118c6:	44 89 e6             	mov    %r12d,%esi
   118c9:	bf 01 00 00 00       	mov    $0x1,%edi
   118ce:	e8 89 74 ff ff       	callq  8d5c <safe_mod_func_uint16_t_u_u>
   118d3:	0f b7 c0             	movzwl %ax,%eax
   118d6:	89 de                	mov    %ebx,%esi
   118d8:	89 c7                	mov    %eax,%edi
   118da:	e8 7d 74 ff ff       	callq  8d5c <safe_mod_func_uint16_t_u_u>
   118df:	89 c2                	mov    %eax,%edx
   118e1:	48 8b 85 f8 ec ff ff 	mov    -0x1308(%rbp),%rax
   118e8:	0f b7 d2             	movzwl %dx,%edx
   118eb:	89 10                	mov    %edx,(%rax)
   118ed:	48 8b 85 e0 ec ff ff 	mov    -0x1320(%rbp),%rax
   118f4:	0f be d8             	movsbl %al,%ebx
   118f7:	48 8b 85 18 f1 ff ff 	mov    -0xee8(%rbp),%rax
   118fe:	8b 00                	mov    (%rax),%eax
   11900:	85 c0                	test   %eax,%eax
   11902:	75 1a                	jne    1191e <func_46+0x1082>
   11904:	0f b6 45 bc          	movzbl -0x44(%rbp),%eax
   11908:	84 c0                	test   %al,%al
   1190a:	0f 95 c0             	setne  %al
   1190d:	0f b6 c0             	movzbl %al,%eax
   11910:	48 98                	cltq   
   11912:	48 0b 85 e0 ec ff ff 	or     -0x1320(%rbp),%rax
   11919:	48 85 c0             	test   %rax,%rax
   1191c:	74 07                	je     11925 <func_46+0x1089>
   1191e:	b8 01 00 00 00       	mov    $0x1,%eax
   11923:	eb 05                	jmp    1192a <func_46+0x108e>
   11925:	b8 00 00 00 00       	mov    $0x0,%eax
   1192a:	89 c1                	mov    %eax,%ecx
   1192c:	48 8b 95 f0 ed ff ff 	mov    -0x1210(%rbp),%rdx
   11933:	48 8d 85 08 ee ff ff 	lea    -0x11f8(%rbp),%rax
   1193a:	48 39 c2             	cmp    %rax,%rdx
   1193d:	0f 95 c0             	setne  %al
   11940:	0f b6 c0             	movzbl %al,%eax
   11943:	89 ce                	mov    %ecx,%esi
   11945:	89 c7                	mov    %eax,%edi
   11947:	e8 72 73 ff ff       	callq  8cbe <safe_rshift_func_uint8_t_u_u>
   1194c:	84 c0                	test   %al,%al
   1194e:	74 11                	je     11961 <func_46+0x10c5>
   11950:	8b 05 ce b6 00 00    	mov    0xb6ce(%rip),%eax        # 1d024 <g_5>
   11956:	85 c0                	test   %eax,%eax
   11958:	74 07                	je     11961 <func_46+0x10c5>
   1195a:	b8 01 00 00 00       	mov    $0x1,%eax
   1195f:	eb 05                	jmp    11966 <func_46+0x10ca>
   11961:	b8 00 00 00 00       	mov    $0x0,%eax
   11966:	be 14 ea cb f0       	mov    $0xf0cbea14,%esi
   1196b:	89 c7                	mov    %eax,%edi
   1196d:	e8 8d 6d ff ff       	callq  86ff <safe_div_func_int32_t_s_s>
   11972:	0f be c0             	movsbl %al,%eax
   11975:	89 de                	mov    %ebx,%esi
   11977:	89 c7                	mov    %eax,%edi
   11979:	e8 94 68 ff ff       	callq  8212 <safe_mul_func_int8_t_s_s>
   1197e:	0f be c0             	movsbl %al,%eax
   11981:	be 18 ce 69 61       	mov    $0x6169ce18,%esi
   11986:	89 c7                	mov    %eax,%edi
   11988:	e8 29 6c ff ff       	callq  85b6 <safe_add_func_int32_t_s_s>
   1198d:	3d d9 25 00 00       	cmp    $0x25d9,%eax
   11992:	0f 9e c2             	setle  %dl
   11995:	48 8b 85 f8 ec ff ff 	mov    -0x1308(%rbp),%rax
   1199c:	0f b6 d2             	movzbl %dl,%edx
   1199f:	89 10                	mov    %edx,(%rax)
   119a1:	8b 10                	mov    (%rax),%edx
   119a3:	48 8b 85 18 f1 ff ff 	mov    -0xee8(%rbp),%rax
   119aa:	89 10                	mov    %edx,(%rax)
   119ac:	8b 05 72 b6 00 00    	mov    0xb672(%rip),%eax        # 1d024 <g_5>
   119b2:	83 c0 01             	add    $0x1,%eax
   119b5:	89 05 69 b6 00 00    	mov    %eax,0xb669(%rip)        # 1d024 <g_5>
   119bb:	8b 05 63 b6 00 00    	mov    0xb663(%rip),%eax        # 1d024 <g_5>
   119c1:	83 f8 0b             	cmp    $0xb,%eax
   119c4:	0f 84 df f3 ff ff    	je     10da9 <func_46+0x50d>
   119ca:	48 c7 05 db b8 00 00 	movq   $0x1,0xb8db(%rip)        # 1d2b0 <g_339>
   119d1:	01 00 00 00 
   119d5:	e9 cb 4c 00 00       	jmpq   166a5 <func_46+0x5e09>
   119da:	48 8d 05 47 b6 00 00 	lea    0xb647(%rip),%rax        # 1d028 <g_25>
   119e1:	48 89 85 00 ee ff ff 	mov    %rax,-0x1200(%rbp)
   119e8:	48 8d 85 08 ed ff ff 	lea    -0x12f8(%rbp),%rax
   119ef:	48 89 85 08 ee ff ff 	mov    %rax,-0x11f8(%rbp)
   119f6:	48 8d 05 2b cb 00 00 	lea    0xcb2b(%rip),%rax        # 1e528 <g_175>
   119fd:	48 89 85 88 ee ff ff 	mov    %rax,-0x1178(%rbp)
   11a04:	c7 85 20 f2 ff ff 84 	movl   $0x3becec84,-0xde0(%rbp)
   11a0b:	ec ec 3b 
   11a0e:	c7 85 24 f2 ff ff 84 	movl   $0x3becec84,-0xddc(%rbp)
   11a15:	ec ec 3b 
   11a18:	c7 85 28 f2 ff ff 01 	movl   $0x1,-0xdd8(%rbp)
   11a1f:	00 00 00 
   11a22:	c7 85 2c f2 ff ff 84 	movl   $0x3becec84,-0xdd4(%rbp)
   11a29:	ec ec 3b 
   11a2c:	c7 85 30 f2 ff ff 84 	movl   $0x3becec84,-0xdd0(%rbp)
   11a33:	ec ec 3b 
   11a36:	c7 85 34 f2 ff ff 01 	movl   $0x1,-0xdcc(%rbp)
   11a3d:	00 00 00 
   11a40:	c7 85 38 f2 ff ff 84 	movl   $0x3becec84,-0xdc8(%rbp)
   11a47:	ec ec 3b 
   11a4a:	c7 85 3c f2 ff ff 84 	movl   $0x3becec84,-0xdc4(%rbp)
   11a51:	ec ec 3b 
   11a54:	c7 85 40 f2 ff ff 01 	movl   $0x1,-0xdc0(%rbp)
   11a5b:	00 00 00 
   11a5e:	c7 85 44 f2 ff ff 84 	movl   $0x3becec84,-0xdbc(%rbp)
   11a65:	ec ec 3b 
   11a68:	c7 85 48 f2 ff ff 84 	movl   $0x3becec84,-0xdb8(%rbp)
   11a6f:	ec ec 3b 
   11a72:	c7 85 4c f2 ff ff 01 	movl   $0x1,-0xdb4(%rbp)
   11a79:	00 00 00 
   11a7c:	c7 85 50 f2 ff ff 84 	movl   $0x3becec84,-0xdb0(%rbp)
   11a83:	ec ec 3b 
   11a86:	c7 85 54 f2 ff ff 84 	movl   $0x3becec84,-0xdac(%rbp)
   11a8d:	ec ec 3b 
   11a90:	c7 85 58 f2 ff ff 01 	movl   $0x1,-0xda8(%rbp)
   11a97:	00 00 00 
   11a9a:	c7 85 5c f2 ff ff 84 	movl   $0x3becec84,-0xda4(%rbp)
   11aa1:	ec ec 3b 
   11aa4:	c7 85 60 f2 ff ff 84 	movl   $0x3becec84,-0xda0(%rbp)
   11aab:	ec ec 3b 
   11aae:	c7 85 64 f2 ff ff 01 	movl   $0x1,-0xd9c(%rbp)
   11ab5:	00 00 00 
   11ab8:	c7 85 4c ed ff ff fe 	movl   $0x18ab85fe,-0x12b4(%rbp)
   11abf:	85 ab 18 
   11ac2:	48 c7 85 10 ee ff ff 	movq   $0xfffffffffffffff7,-0x11f0(%rbp)
   11ac9:	f7 ff ff ff 
   11acd:	c7 85 44 ed ff ff 5d 	movl   $0xfb535d5d,-0x12bc(%rbp)
   11ad4:	5d 53 fb 
   11ad7:	66 c7 85 14 ed ff ff 	movw   $0x1,-0x12ec(%rbp)
   11ade:	01 00 
   11ae0:	66 c7 85 c0 f2 ff ff 	movw   $0x0,-0xd40(%rbp)
   11ae7:	00 00 
   11ae9:	66 c7 85 c2 f2 ff ff 	movw   $0x59b,-0xd3e(%rbp)
   11af0:	9b 05 
   11af2:	66 c7 85 c4 f2 ff ff 	movw   $0x60cd,-0xd3c(%rbp)
   11af9:	cd 60 
   11afb:	66 c7 85 c6 f2 ff ff 	movw   $0x0,-0xd3a(%rbp)
   11b02:	00 00 
   11b04:	66 c7 85 c8 f2 ff ff 	movw   $0x41b2,-0xd38(%rbp)
   11b0b:	b2 41 
   11b0d:	66 c7 85 ca f2 ff ff 	movw   $0x4,-0xd36(%rbp)
   11b14:	04 00 
   11b16:	66 c7 85 cc f2 ff ff 	movw   $0x41b2,-0xd34(%rbp)
   11b1d:	b2 41 
   11b1f:	66 c7 85 ce f2 ff ff 	movw   $0x0,-0xd32(%rbp)
   11b26:	00 00 
   11b28:	66 c7 85 d0 f2 ff ff 	movw   $0x7,-0xd30(%rbp)
   11b2f:	07 00 
   11b31:	66 c7 85 d2 f2 ff ff 	movw   $0x9c9d,-0xd2e(%rbp)
   11b38:	9d 9c 
   11b3a:	66 c7 85 d4 f2 ff ff 	movw   $0x7,-0xd2c(%rbp)
   11b41:	07 00 
   11b43:	66 c7 85 d6 f2 ff ff 	movw   $0x9,-0xd2a(%rbp)
   11b4a:	09 00 
   11b4c:	66 c7 85 d8 f2 ff ff 	movw   $0x0,-0xd28(%rbp)
   11b53:	00 00 
   11b55:	66 c7 85 da f2 ff ff 	movw   $0x4,-0xd26(%rbp)
   11b5c:	04 00 
   11b5e:	66 c7 85 dc f2 ff ff 	movw   $0x60cd,-0xd24(%rbp)
   11b65:	cd 60 
   11b67:	66 c7 85 de f2 ff ff 	movw   $0x60cd,-0xd22(%rbp)
   11b6e:	cd 60 
   11b70:	66 c7 85 e0 f2 ff ff 	movw   $0x60cd,-0xd20(%rbp)
   11b77:	cd 60 
   11b79:	66 c7 85 e2 f2 ff ff 	movw   $0x59b,-0xd1e(%rbp)
   11b80:	9b 05 
   11b82:	66 c7 85 e4 f2 ff ff 	movw   $0x0,-0xd1c(%rbp)
   11b89:	00 00 
   11b8b:	66 c7 85 e6 f2 ff ff 	movw   $0x0,-0xd1a(%rbp)
   11b92:	00 00 
   11b94:	66 c7 85 e8 f2 ff ff 	movw   $0x59b,-0xd18(%rbp)
   11b9b:	9b 05 
   11b9d:	66 c7 85 ea f2 ff ff 	movw   $0x60cd,-0xd16(%rbp)
   11ba4:	cd 60 
   11ba6:	66 c7 85 ec f2 ff ff 	movw   $0x0,-0xd14(%rbp)
   11bad:	00 00 
   11baf:	66 c7 85 ee f2 ff ff 	movw   $0x41b2,-0xd12(%rbp)
   11bb6:	b2 41 
   11bb8:	66 c7 85 f0 f2 ff ff 	movw   $0x60cd,-0xd10(%rbp)
   11bbf:	cd 60 
   11bc1:	66 c7 85 f2 f2 ff ff 	movw   $0xebd0,-0xd0e(%rbp)
   11bc8:	d0 eb 
   11bca:	66 c7 85 f4 f2 ff ff 	movw   $0xffff,-0xd0c(%rbp)
   11bd1:	ff ff 
   11bd3:	66 c7 85 f6 f2 ff ff 	movw   $0x59b,-0xd0a(%rbp)
   11bda:	9b 05 
   11bdc:	66 c7 85 f8 f2 ff ff 	movw   $0x0,-0xd08(%rbp)
   11be3:	00 00 
   11be5:	66 c7 85 fa f2 ff ff 	movw   $0x59b,-0xd06(%rbp)
   11bec:	9b 05 
   11bee:	66 c7 85 fc f2 ff ff 	movw   $0xffff,-0xd04(%rbp)
   11bf5:	ff ff 
   11bf7:	66 c7 85 fe f2 ff ff 	movw   $0xebd0,-0xd02(%rbp)
   11bfe:	d0 eb 
   11c00:	66 c7 85 00 f3 ff ff 	movw   $0x7,-0xd00(%rbp)
   11c07:	07 00 
   11c09:	66 c7 85 02 f3 ff ff 	movw   $0xffff,-0xcfe(%rbp)
   11c10:	ff ff 
   11c12:	66 c7 85 04 f3 ff ff 	movw   $0x4,-0xcfc(%rbp)
   11c19:	04 00 
   11c1b:	66 c7 85 06 f3 ff ff 	movw   $0x59b,-0xcfa(%rbp)
   11c22:	9b 05 
   11c24:	66 c7 85 08 f3 ff ff 	movw   $0x41b2,-0xcf8(%rbp)
   11c2b:	b2 41 
   11c2d:	66 c7 85 0a f3 ff ff 	movw   $0x9,-0xcf6(%rbp)
   11c34:	09 00 
   11c36:	66 c7 85 0c f3 ff ff 	movw   $0x9,-0xcf4(%rbp)
   11c3d:	09 00 
   11c3f:	66 c7 85 0e f3 ff ff 	movw   $0x41b2,-0xcf2(%rbp)
   11c46:	b2 41 
   11c48:	66 c7 85 10 f3 ff ff 	movw   $0x0,-0xcf0(%rbp)
   11c4f:	00 00 
   11c51:	66 c7 85 12 f3 ff ff 	movw   $0x41b2,-0xcee(%rbp)
   11c58:	b2 41 
   11c5a:	66 c7 85 14 f3 ff ff 	movw   $0x41b2,-0xcec(%rbp)
   11c61:	b2 41 
   11c63:	66 c7 85 16 f3 ff ff 	movw   $0x41b2,-0xcea(%rbp)
   11c6a:	b2 41 
   11c6c:	66 c7 85 18 f3 ff ff 	movw   $0x59b,-0xce8(%rbp)
   11c73:	9b 05 
   11c75:	66 c7 85 1a f3 ff ff 	movw   $0x4,-0xce6(%rbp)
   11c7c:	04 00 
   11c7e:	66 c7 85 1c f3 ff ff 	movw   $0xffff,-0xce4(%rbp)
   11c85:	ff ff 
   11c87:	66 c7 85 1e f3 ff ff 	movw   $0x7,-0xce2(%rbp)
   11c8e:	07 00 
   11c90:	66 c7 85 20 f3 ff ff 	movw   $0x9c9d,-0xce0(%rbp)
   11c97:	9d 9c 
   11c99:	66 c7 85 22 f3 ff ff 	movw   $0x41b2,-0xcde(%rbp)
   11ca0:	b2 41 
   11ca2:	66 c7 85 24 f3 ff ff 	movw   $0x60cd,-0xcdc(%rbp)
   11ca9:	cd 60 
   11cab:	66 c7 85 26 f3 ff ff 	movw   $0xffff,-0xcda(%rbp)
   11cb2:	ff ff 
   11cb4:	66 c7 85 28 f3 ff ff 	movw   $0x60cd,-0xcd8(%rbp)
   11cbb:	cd 60 
   11cbd:	66 c7 85 2a f3 ff ff 	movw   $0x41b2,-0xcd6(%rbp)
   11cc4:	b2 41 
   11cc6:	66 c7 85 2c f3 ff ff 	movw   $0x9c9d,-0xcd4(%rbp)
   11ccd:	9d 9c 
   11ccf:	66 c7 85 2e f3 ff ff 	movw   $0xebd0,-0xcd2(%rbp)
   11cd6:	d0 eb 
   11cd8:	48 8d 85 e8 ed ff ff 	lea    -0x1218(%rbp),%rax
   11cdf:	48 89 85 70 f2 ff ff 	mov    %rax,-0xd90(%rbp)
   11ce6:	48 8d 85 e8 ed ff ff 	lea    -0x1218(%rbp),%rax
   11ced:	48 89 85 78 f2 ff ff 	mov    %rax,-0xd88(%rbp)
   11cf4:	48 8d 85 e8 ed ff ff 	lea    -0x1218(%rbp),%rax
   11cfb:	48 89 85 80 f2 ff ff 	mov    %rax,-0xd80(%rbp)
   11d02:	48 8d 85 e8 ed ff ff 	lea    -0x1218(%rbp),%rax
   11d09:	48 89 85 88 f2 ff ff 	mov    %rax,-0xd78(%rbp)
   11d10:	48 8d 85 e8 ed ff ff 	lea    -0x1218(%rbp),%rax
   11d17:	48 89 85 90 f2 ff ff 	mov    %rax,-0xd70(%rbp)
   11d1e:	48 8d 85 e8 ed ff ff 	lea    -0x1218(%rbp),%rax
   11d25:	48 89 85 98 f2 ff ff 	mov    %rax,-0xd68(%rbp)
   11d2c:	48 8d 85 e8 ed ff ff 	lea    -0x1218(%rbp),%rax
   11d33:	48 89 85 a0 f2 ff ff 	mov    %rax,-0xd60(%rbp)
   11d3a:	48 8d 85 e8 ed ff ff 	lea    -0x1218(%rbp),%rax
   11d41:	48 89 85 a8 f2 ff ff 	mov    %rax,-0xd58(%rbp)
   11d48:	48 8d 85 e8 ed ff ff 	lea    -0x1218(%rbp),%rax
   11d4f:	48 89 85 b0 f2 ff ff 	mov    %rax,-0xd50(%rbp)
   11d56:	48 8d 85 e8 ed ff ff 	lea    -0x1218(%rbp),%rax
   11d5d:	48 89 85 b8 f2 ff ff 	mov    %rax,-0xd48(%rbp)
   11d64:	c7 85 24 ed ff ff 00 	movl   $0x52e49000,-0x12dc(%rbp)
   11d6b:	90 e4 52 
   11d6e:	48 8d 85 c0 f2 ff ff 	lea    -0xd40(%rbp),%rax
   11d75:	48 83 c0 28          	add    $0x28,%rax
   11d79:	48 89 85 90 ee ff ff 	mov    %rax,-0x1170(%rbp)
   11d80:	48 c7 85 98 ee ff ff 	movq   $0x0,-0x1168(%rbp)
   11d87:	00 00 00 00 
   11d8b:	c6 85 0a ed ff ff 00 	movb   $0x0,-0x12f6(%rbp)
   11d92:	48 8b 85 f8 ec ff ff 	mov    -0x1308(%rbp),%rax
   11d99:	8b 00                	mov    (%rax),%eax
   11d9b:	85 c0                	test   %eax,%eax
   11d9d:	0f 85 15 49 00 00    	jne    166b8 <func_46+0x5e1c>
   11da3:	48 8b 95 f8 ec ff ff 	mov    -0x1308(%rbp),%rdx
   11daa:	48 8b 85 00 ee ff ff 	mov    -0x1200(%rbp),%rax
   11db1:	48 39 c2             	cmp    %rax,%rdx
   11db4:	0f 95 c0             	setne  %al
   11db7:	0f b6 c0             	movzbl %al,%eax
   11dba:	48 23 85 e0 ec ff ff 	and    -0x1320(%rbp),%rax
   11dc1:	48 85 c0             	test   %rax,%rax
   11dc4:	0f 84 67 03 00 00    	je     12131 <func_46+0x1895>
   11dca:	48 c7 85 c8 f0 ff ff 	movq   $0x0,-0xf38(%rbp)
   11dd1:	00 00 00 00 
   11dd5:	48 8d 85 08 ed ff ff 	lea    -0x12f8(%rbp),%rax
   11ddc:	48 89 85 d0 f7 ff ff 	mov    %rax,-0x830(%rbp)
   11de3:	48 8d 85 08 ed ff ff 	lea    -0x12f8(%rbp),%rax
   11dea:	48 89 85 d8 f7 ff ff 	mov    %rax,-0x828(%rbp)
   11df1:	48 8d 85 08 ed ff ff 	lea    -0x12f8(%rbp),%rax
   11df8:	48 89 85 e0 f7 ff ff 	mov    %rax,-0x820(%rbp)
   11dff:	48 8d 85 08 ed ff ff 	lea    -0x12f8(%rbp),%rax
   11e06:	48 89 85 e8 f7 ff ff 	mov    %rax,-0x818(%rbp)
   11e0d:	48 8d 85 08 ed ff ff 	lea    -0x12f8(%rbp),%rax
   11e14:	48 89 85 f0 f7 ff ff 	mov    %rax,-0x810(%rbp)
   11e1b:	48 8d 85 08 ed ff ff 	lea    -0x12f8(%rbp),%rax
   11e22:	48 89 85 f8 f7 ff ff 	mov    %rax,-0x808(%rbp)
   11e29:	48 8d 85 08 ed ff ff 	lea    -0x12f8(%rbp),%rax
   11e30:	48 89 85 00 f8 ff ff 	mov    %rax,-0x800(%rbp)
   11e37:	48 8d 85 08 ed ff ff 	lea    -0x12f8(%rbp),%rax
   11e3e:	48 89 85 08 f8 ff ff 	mov    %rax,-0x7f8(%rbp)
   11e45:	48 8d 85 08 ed ff ff 	lea    -0x12f8(%rbp),%rax
   11e4c:	48 89 85 10 f8 ff ff 	mov    %rax,-0x7f0(%rbp)
   11e53:	48 8d 85 08 ed ff ff 	lea    -0x12f8(%rbp),%rax
   11e5a:	48 89 85 18 f8 ff ff 	mov    %rax,-0x7e8(%rbp)
   11e61:	48 8d 85 08 ed ff ff 	lea    -0x12f8(%rbp),%rax
   11e68:	48 89 85 20 f8 ff ff 	mov    %rax,-0x7e0(%rbp)
   11e6f:	48 8d 85 08 ed ff ff 	lea    -0x12f8(%rbp),%rax
   11e76:	48 89 85 28 f8 ff ff 	mov    %rax,-0x7d8(%rbp)
   11e7d:	48 8d 85 08 ed ff ff 	lea    -0x12f8(%rbp),%rax
   11e84:	48 89 85 30 f8 ff ff 	mov    %rax,-0x7d0(%rbp)
   11e8b:	48 8d 85 08 ed ff ff 	lea    -0x12f8(%rbp),%rax
   11e92:	48 89 85 38 f8 ff ff 	mov    %rax,-0x7c8(%rbp)
   11e99:	c7 85 c0 f3 ff ff 00 	movl   $0x0,-0xc40(%rbp)
   11ea0:	00 00 00 
   11ea3:	c7 85 c4 f3 ff ff 00 	movl   $0x0,-0xc3c(%rbp)
   11eaa:	00 00 00 
   11ead:	c7 85 c8 f3 ff ff 00 	movl   $0x0,-0xc38(%rbp)
   11eb4:	00 00 00 
   11eb7:	c7 85 cc f3 ff ff 00 	movl   $0x0,-0xc34(%rbp)
   11ebe:	00 00 00 
   11ec1:	c7 85 d0 f3 ff ff 00 	movl   $0x0,-0xc30(%rbp)
   11ec8:	00 00 00 
   11ecb:	c7 85 8c ed ff ff fe 	movl   $0xfffffffe,-0x1274(%rbp)
   11ed2:	ff ff ff 
   11ed5:	48 8d 85 60 f4 ff ff 	lea    -0xba0(%rbp),%rax
   11edc:	48 05 b4 00 00 00    	add    $0xb4,%rax
   11ee2:	48 89 85 d0 f0 ff ff 	mov    %rax,-0xf30(%rbp)
   11ee9:	48 8d 85 d0 f7 ff ff 	lea    -0x830(%rbp),%rax
   11ef0:	48 83 c0 68          	add    $0x68,%rax
   11ef4:	48 89 85 28 ee ff ff 	mov    %rax,-0x11d8(%rbp)
   11efb:	48 8d 85 28 ee ff ff 	lea    -0x11d8(%rbp),%rax
   11f02:	48 89 85 d8 f0 ff ff 	mov    %rax,-0xf28(%rbp)
   11f09:	c7 85 48 ed ff ff 00 	movl   $0x0,-0x12b8(%rbp)
   11f10:	00 00 00 
   11f13:	eb 1e                	jmp    11f33 <func_46+0x1697>
   11f15:	8b 85 48 ed ff ff    	mov    -0x12b8(%rbp),%eax
   11f1b:	48 98                	cltq   
   11f1d:	48 8d 15 12 b4 00 00 	lea    0xb412(%rip),%rdx        # 1d336 <g_389+0x76>
   11f24:	48 89 94 c5 50 f5 ff 	mov    %rdx,-0xab0(%rbp,%rax,8)
   11f2b:	ff 
   11f2c:	83 85 48 ed ff ff 01 	addl   $0x1,-0x12b8(%rbp)
   11f33:	83 bd 48 ed ff ff 03 	cmpl   $0x3,-0x12b8(%rbp)
   11f3a:	7e d9                	jle    11f15 <func_46+0x1679>
   11f3c:	48 8b 85 e0 ec ff ff 	mov    -0x1320(%rbp),%rax
   11f43:	66 89 05 60 b3 00 00 	mov    %ax,0xb360(%rip)        # 1d2aa <g_243>
   11f4a:	0f b6 05 ec b1 00 00 	movzbl 0xb1ec(%rip),%eax        # 1d13d <g_92+0x7d>
   11f51:	44 0f be f0          	movsbl %al,%r14d
   11f55:	8b 85 20 ed ff ff    	mov    -0x12e0(%rbp),%eax
   11f5b:	83 e8 01             	sub    $0x1,%eax
   11f5e:	89 85 20 ed ff ff    	mov    %eax,-0x12e0(%rbp)
   11f64:	48 8b 85 00 ee ff ff 	mov    -0x1200(%rbp),%rax
   11f6b:	8b 00                	mov    (%rax),%eax
   11f6d:	89 85 c8 f3 ff ff    	mov    %eax,-0xc38(%rbp)
   11f73:	8b 85 c8 f3 ff ff    	mov    -0xc38(%rbp),%eax
   11f79:	48 98                	cltq   
   11f7b:	48 89 05 36 b3 00 00 	mov    %rax,0xb336(%rip)        # 1d2b8 <g_375>
   11f82:	48 8b 05 2f b3 00 00 	mov    0xb32f(%rip),%rax        # 1d2b8 <g_375>
   11f89:	48 85 c0             	test   %rax,%rax
   11f8c:	0f 84 22 01 00 00    	je     120b4 <func_46+0x1818>
   11f92:	48 8b 05 bf b0 00 00 	mov    0xb0bf(%rip),%rax        # 1d058 <g_27+0x18>
   11f99:	0f b7 d8             	movzwl %ax,%ebx
   11f9c:	0f b7 05 05 b3 00 00 	movzwl 0xb305(%rip),%eax        # 1d2a8 <g_241>
   11fa3:	44 0f bf e0          	movswl %ax,%r12d
   11fa7:	44 8b 2d 9e b2 00 00 	mov    0xb29e(%rip),%r13d        # 1d24c <g_190+0x8c>
   11fae:	48 8b 85 e0 ec ff ff 	mov    -0x1320(%rbp),%rax
   11fb5:	41 89 c7             	mov    %eax,%r15d
   11fb8:	8b 85 d0 f3 ff ff    	mov    -0xc30(%rbp),%eax
   11fbe:	48 63 d0             	movslq %eax,%rdx
   11fc1:	48 8b 85 e8 ec ff ff 	mov    -0x1318(%rbp),%rax
   11fc8:	48 89 10             	mov    %rdx,(%rax)
   11fcb:	48 8b 85 e8 ec ff ff 	mov    -0x1318(%rbp),%rax
   11fd2:	48 8b 00             	mov    (%rax),%rax
   11fd5:	48 ba ac 1a 8c 26 0e 	movabs $0x35a3340e268c1aac,%rdx
   11fdc:	34 a3 35 
   11fdf:	48 39 d0             	cmp    %rdx,%rax
   11fe2:	0f 96 c0             	setbe  %al
   11fe5:	0f b6 c0             	movzbl %al,%eax
   11fe8:	0f b7 15 e7 b2 00 00 	movzwl 0xb2e7(%rip),%edx        # 1d2d6 <g_389+0x16>
   11fef:	09 d0                	or     %edx,%eax
   11ff1:	66 89 05 de b2 00 00 	mov    %ax,0xb2de(%rip)        # 1d2d6 <g_389+0x16>
   11ff8:	0f b7 05 d7 b2 00 00 	movzwl 0xb2d7(%rip),%eax        # 1d2d6 <g_389+0x16>
   11fff:	0f b7 c0             	movzwl %ax,%eax
   12002:	89 c6                	mov    %eax,%esi
   12004:	bf 72 36 00 00       	mov    $0x3672,%edi
   12009:	e8 2f 6d ff ff       	callq  8d3d <safe_mul_func_uint16_t_u_u>
   1200e:	48 8b 85 f0 ec ff ff 	mov    -0x1310(%rbp),%rax
   12015:	48 39 85 e8 ec ff ff 	cmp    %rax,-0x1318(%rbp)
   1201c:	0f 94 c0             	sete   %al
   1201f:	0f b6 c0             	movzbl %al,%eax
   12022:	44 89 fe             	mov    %r15d,%esi
   12025:	89 c7                	mov    %eax,%edi
   12027:	e8 8a 65 ff ff       	callq  85b6 <safe_add_func_int32_t_s_s>
   1202c:	f7 d0                	not    %eax
   1202e:	c1 e8 1f             	shr    $0x1f,%eax
   12031:	0f b6 c0             	movzbl %al,%eax
   12034:	89 c6                	mov    %eax,%esi
   12036:	bf 17 00 00 00       	mov    $0x17,%edi
   1203b:	e8 2c 63 ff ff       	callq  836c <safe_rshift_func_int8_t_s_u>
   12040:	48 8b 95 d8 ed ff ff 	mov    -0x1228(%rbp),%rdx
   12047:	8b 0a                	mov    (%rdx),%ecx
   12049:	0f be d0             	movsbl %al,%edx
   1204c:	48 8b 85 d8 ed ff ff 	mov    -0x1228(%rbp),%rax
   12053:	31 ca                	xor    %ecx,%edx
   12055:	89 10                	mov    %edx,(%rax)
   12057:	44 89 ee             	mov    %r13d,%esi
   1205a:	bf aa 00 00 00       	mov    $0xaa,%edi
   1205f:	e8 5a 6c ff ff       	callq  8cbe <safe_rshift_func_uint8_t_u_u>
   12064:	0f b6 c0             	movzbl %al,%eax
   12067:	48 39 85 e0 ec ff ff 	cmp    %rax,-0x1320(%rbp)
   1206e:	0f 9e c0             	setle  %al
   12071:	0f b6 c0             	movzbl %al,%eax
   12074:	44 89 e6             	mov    %r12d,%esi
   12077:	89 c7                	mov    %eax,%edi
   12079:	e8 55 63 ff ff       	callq  83d3 <safe_sub_func_int16_t_s_s>
   1207e:	0f b7 c0             	movzwl %ax,%eax
   12081:	89 de                	mov    %ebx,%esi
   12083:	89 c7                	mov    %eax,%edi
   12085:	e8 04 6d ff ff       	callq  8d8e <safe_div_func_uint16_t_u_u>
   1208a:	48 8b 15 67 cc 00 00 	mov    0xcc67(%rip),%rdx        # 1ecf8 <g_390>
   12091:	48 8d 85 d0 ed ff ff 	lea    -0x1230(%rbp),%rax
   12098:	48 39 c2             	cmp    %rax,%rdx
   1209b:	0f 95 c0             	setne  %al
   1209e:	0f b6 d0             	movzbl %al,%edx
   120a1:	0f b7 05 00 b2 00 00 	movzwl 0xb200(%rip),%eax        # 1d2a8 <g_241>
   120a8:	98                   	cwtl   
   120a9:	39 c2                	cmp    %eax,%edx
   120ab:	7d 07                	jge    120b4 <func_46+0x1818>
   120ad:	b8 01 00 00 00       	mov    $0x1,%eax
   120b2:	eb 05                	jmp    120b9 <func_46+0x181d>
   120b4:	b8 00 00 00 00       	mov    $0x0,%eax
   120b9:	48 98                	cltq   
   120bb:	48 39 85 e0 ec ff ff 	cmp    %rax,-0x1320(%rbp)
   120c2:	0f 9c c0             	setl   %al
   120c5:	0f b6 c0             	movzbl %al,%eax
   120c8:	be 1d 44 08 fd       	mov    $0xfd08441d,%esi
   120cd:	89 c7                	mov    %eax,%edi
   120cf:	e8 2b 66 ff ff       	callq  86ff <safe_div_func_int32_t_s_s>
   120d4:	48 98                	cltq   
   120d6:	48 39 85 e0 ec ff ff 	cmp    %rax,-0x1320(%rbp)
   120dd:	be 14 fe ff ff       	mov    $0xfffffe14,%esi
   120e2:	bf 01 00 00 00       	mov    $0x1,%edi
   120e7:	e8 e7 62 ff ff       	callq  83d3 <safe_sub_func_int16_t_s_s>
   120ec:	98                   	cwtl   
   120ed:	44 89 f2             	mov    %r14d,%edx
   120f0:	09 c2                	or     %eax,%edx
   120f2:	48 8b 85 d0 f0 ff ff 	mov    -0xf30(%rbp),%rax
   120f9:	8b 00                	mov    (%rax),%eax
   120fb:	09 c2                	or     %eax,%edx
   120fd:	48 8b 85 d0 f0 ff ff 	mov    -0xf30(%rbp),%rax
   12104:	89 10                	mov    %edx,(%rax)
   12106:	48 8b 85 d8 f0 ff ff 	mov    -0xf28(%rbp),%rax
   1210d:	48 8d 95 d0 f7 ff ff 	lea    -0x830(%rbp),%rdx
   12114:	48 83 c2 68          	add    $0x68,%rdx
   12118:	48 89 10             	mov    %rdx,(%rax)
   1211b:	48 8b 85 d0 f0 ff ff 	mov    -0xf30(%rbp),%rax
   12122:	8b 00                	mov    (%rax),%eax
   12124:	85 c0                	test   %eax,%eax
   12126:	0f 84 fd 3e 00 00    	je     16029 <func_46+0x578d>
   1212c:	e9 62 45 00 00       	jmpq   16693 <func_46+0x5df7>
   12131:	48 c7 85 50 f5 ff ff 	movq   $0x0,-0xab0(%rbp)
   12138:	00 00 00 00 
   1213c:	48 8d 85 08 ee ff ff 	lea    -0x11f8(%rbp),%rax
   12143:	48 89 85 58 f5 ff ff 	mov    %rax,-0xaa8(%rbp)
   1214a:	48 8d 85 08 ee ff ff 	lea    -0x11f8(%rbp),%rax
   12151:	48 89 85 60 f5 ff ff 	mov    %rax,-0xaa0(%rbp)
   12158:	48 c7 85 68 f5 ff ff 	movq   $0x0,-0xa98(%rbp)
   1215f:	00 00 00 00 
   12163:	48 8d 85 08 ee ff ff 	lea    -0x11f8(%rbp),%rax
   1216a:	48 89 85 70 f5 ff ff 	mov    %rax,-0xa90(%rbp)
   12171:	48 c7 85 78 f5 ff ff 	movq   $0x0,-0xa88(%rbp)
   12178:	00 00 00 00 
   1217c:	48 c7 85 80 f5 ff ff 	movq   $0x0,-0xa80(%rbp)
   12183:	00 00 00 00 
   12187:	48 8d 85 08 ee ff ff 	lea    -0x11f8(%rbp),%rax
   1218e:	48 89 85 88 f5 ff ff 	mov    %rax,-0xa78(%rbp)
   12195:	48 c7 85 90 f5 ff ff 	movq   $0x0,-0xa70(%rbp)
   1219c:	00 00 00 00 
   121a0:	48 c7 85 98 f5 ff ff 	movq   $0x0,-0xa68(%rbp)
   121a7:	00 00 00 00 
   121ab:	48 8d 85 08 ee ff ff 	lea    -0x11f8(%rbp),%rax
   121b2:	48 89 85 a0 f5 ff ff 	mov    %rax,-0xa60(%rbp)
   121b9:	48 c7 85 a8 f5 ff ff 	movq   $0x0,-0xa58(%rbp)
   121c0:	00 00 00 00 
   121c4:	48 8d 85 08 ee ff ff 	lea    -0x11f8(%rbp),%rax
   121cb:	48 89 85 b0 f5 ff ff 	mov    %rax,-0xa50(%rbp)
   121d2:	48 8d 85 08 ee ff ff 	lea    -0x11f8(%rbp),%rax
   121d9:	48 89 85 b8 f5 ff ff 	mov    %rax,-0xa48(%rbp)
   121e0:	48 c7 85 c0 f5 ff ff 	movq   $0x0,-0xa40(%rbp)
   121e7:	00 00 00 00 
   121eb:	48 c7 85 c8 f5 ff ff 	movq   $0x0,-0xa38(%rbp)
   121f2:	00 00 00 00 
   121f6:	48 8d 85 08 ee ff ff 	lea    -0x11f8(%rbp),%rax
   121fd:	48 89 85 d0 f5 ff ff 	mov    %rax,-0xa30(%rbp)
   12204:	48 8d 85 08 ee ff ff 	lea    -0x11f8(%rbp),%rax
   1220b:	48 89 85 d8 f5 ff ff 	mov    %rax,-0xa28(%rbp)
   12212:	48 c7 85 e0 f5 ff ff 	movq   $0x0,-0xa20(%rbp)
   12219:	00 00 00 00 
   1221d:	48 8d 85 08 ee ff ff 	lea    -0x11f8(%rbp),%rax
   12224:	48 89 85 e8 f5 ff ff 	mov    %rax,-0xa18(%rbp)
   1222b:	48 c7 85 f0 f5 ff ff 	movq   $0x0,-0xa10(%rbp)
   12232:	00 00 00 00 
   12236:	48 c7 85 f8 f5 ff ff 	movq   $0x0,-0xa08(%rbp)
   1223d:	00 00 00 00 
   12241:	48 8d 85 08 ee ff ff 	lea    -0x11f8(%rbp),%rax
   12248:	48 89 85 00 f6 ff ff 	mov    %rax,-0xa00(%rbp)
   1224f:	48 c7 85 08 f6 ff ff 	movq   $0x0,-0x9f8(%rbp)
   12256:	00 00 00 00 
   1225a:	48 c7 85 10 f6 ff ff 	movq   $0x0,-0x9f0(%rbp)
   12261:	00 00 00 00 
   12265:	48 8d 85 08 ee ff ff 	lea    -0x11f8(%rbp),%rax
   1226c:	48 89 85 18 f6 ff ff 	mov    %rax,-0x9e8(%rbp)
   12273:	48 c7 85 20 f6 ff ff 	movq   $0x0,-0x9e0(%rbp)
   1227a:	00 00 00 00 
   1227e:	48 8d 85 08 ee ff ff 	lea    -0x11f8(%rbp),%rax
   12285:	48 89 85 28 f6 ff ff 	mov    %rax,-0x9d8(%rbp)
   1228c:	48 8d 85 08 ee ff ff 	lea    -0x11f8(%rbp),%rax
   12293:	48 89 85 30 f6 ff ff 	mov    %rax,-0x9d0(%rbp)
   1229a:	48 c7 85 38 f6 ff ff 	movq   $0x0,-0x9c8(%rbp)
   122a1:	00 00 00 00 
   122a5:	48 c7 85 40 f6 ff ff 	movq   $0x0,-0x9c0(%rbp)
   122ac:	00 00 00 00 
   122b0:	48 8d 85 08 ee ff ff 	lea    -0x11f8(%rbp),%rax
   122b7:	48 89 85 48 f6 ff ff 	mov    %rax,-0x9b8(%rbp)
   122be:	48 8d 85 08 ee ff ff 	lea    -0x11f8(%rbp),%rax
   122c5:	48 89 85 50 f6 ff ff 	mov    %rax,-0x9b0(%rbp)
   122cc:	48 c7 85 58 f6 ff ff 	movq   $0x0,-0x9a8(%rbp)
   122d3:	00 00 00 00 
   122d7:	48 8d 85 08 ee ff ff 	lea    -0x11f8(%rbp),%rax
   122de:	48 89 85 60 f6 ff ff 	mov    %rax,-0x9a0(%rbp)
   122e5:	48 c7 85 68 f6 ff ff 	movq   $0x0,-0x998(%rbp)
   122ec:	00 00 00 00 
   122f0:	48 c7 85 70 f6 ff ff 	movq   $0x0,-0x990(%rbp)
   122f7:	00 00 00 00 
   122fb:	48 8d 85 08 ee ff ff 	lea    -0x11f8(%rbp),%rax
   12302:	48 89 85 78 f6 ff ff 	mov    %rax,-0x988(%rbp)
   12309:	48 c7 85 80 f6 ff ff 	movq   $0x0,-0x980(%rbp)
   12310:	00 00 00 00 
   12314:	48 c7 85 88 f6 ff ff 	movq   $0x0,-0x978(%rbp)
   1231b:	00 00 00 00 
   1231f:	48 8d 85 08 ee ff ff 	lea    -0x11f8(%rbp),%rax
   12326:	48 89 85 90 f6 ff ff 	mov    %rax,-0x970(%rbp)
   1232d:	48 c7 85 98 f6 ff ff 	movq   $0x0,-0x968(%rbp)
   12334:	00 00 00 00 
   12338:	48 8d 85 08 ee ff ff 	lea    -0x11f8(%rbp),%rax
   1233f:	48 89 85 a0 f6 ff ff 	mov    %rax,-0x960(%rbp)
   12346:	48 8d 85 08 ee ff ff 	lea    -0x11f8(%rbp),%rax
   1234d:	48 89 85 a8 f6 ff ff 	mov    %rax,-0x958(%rbp)
   12354:	48 c7 85 b0 f6 ff ff 	movq   $0x0,-0x950(%rbp)
   1235b:	00 00 00 00 
   1235f:	48 c7 85 b8 f6 ff ff 	movq   $0x0,-0x948(%rbp)
   12366:	00 00 00 00 
   1236a:	48 8d 85 08 ee ff ff 	lea    -0x11f8(%rbp),%rax
   12371:	48 89 85 c0 f6 ff ff 	mov    %rax,-0x940(%rbp)
   12378:	48 8d 85 08 ee ff ff 	lea    -0x11f8(%rbp),%rax
   1237f:	48 89 85 c8 f6 ff ff 	mov    %rax,-0x938(%rbp)
   12386:	48 c7 85 d0 f6 ff ff 	movq   $0x0,-0x930(%rbp)
   1238d:	00 00 00 00 
   12391:	48 8d 85 08 ee ff ff 	lea    -0x11f8(%rbp),%rax
   12398:	48 89 85 d8 f6 ff ff 	mov    %rax,-0x928(%rbp)
   1239f:	48 c7 85 e0 f6 ff ff 	movq   $0x0,-0x920(%rbp)
   123a6:	00 00 00 00 
   123aa:	48 c7 85 e8 f6 ff ff 	movq   $0x0,-0x918(%rbp)
   123b1:	00 00 00 00 
   123b5:	48 8d 85 08 ee ff ff 	lea    -0x11f8(%rbp),%rax
   123bc:	48 89 85 f0 f6 ff ff 	mov    %rax,-0x910(%rbp)
   123c3:	48 c7 85 f8 f6 ff ff 	movq   $0x0,-0x908(%rbp)
   123ca:	00 00 00 00 
   123ce:	48 c7 85 00 f7 ff ff 	movq   $0x0,-0x900(%rbp)
   123d5:	00 00 00 00 
   123d9:	48 8d 85 08 ee ff ff 	lea    -0x11f8(%rbp),%rax
   123e0:	48 89 85 08 f7 ff ff 	mov    %rax,-0x8f8(%rbp)
   123e7:	48 c7 85 10 f7 ff ff 	movq   $0x0,-0x8f0(%rbp)
   123ee:	00 00 00 00 
   123f2:	48 8d 85 08 ee ff ff 	lea    -0x11f8(%rbp),%rax
   123f9:	48 89 85 18 f7 ff ff 	mov    %rax,-0x8e8(%rbp)
   12400:	48 8d 85 08 ee ff ff 	lea    -0x11f8(%rbp),%rax
   12407:	48 89 85 20 f7 ff ff 	mov    %rax,-0x8e0(%rbp)
   1240e:	48 c7 85 28 f7 ff ff 	movq   $0x0,-0x8d8(%rbp)
   12415:	00 00 00 00 
   12419:	48 c7 85 30 f7 ff ff 	movq   $0x0,-0x8d0(%rbp)
   12420:	00 00 00 00 
   12424:	48 8d 85 08 ee ff ff 	lea    -0x11f8(%rbp),%rax
   1242b:	48 89 85 38 f7 ff ff 	mov    %rax,-0x8c8(%rbp)
   12432:	48 8d 85 08 ee ff ff 	lea    -0x11f8(%rbp),%rax
   12439:	48 89 85 40 f7 ff ff 	mov    %rax,-0x8c0(%rbp)
   12440:	48 c7 85 48 f7 ff ff 	movq   $0x0,-0x8b8(%rbp)
   12447:	00 00 00 00 
   1244b:	48 8d 85 08 ee ff ff 	lea    -0x11f8(%rbp),%rax
   12452:	48 89 85 50 f7 ff ff 	mov    %rax,-0x8b0(%rbp)
   12459:	48 c7 85 58 f7 ff ff 	movq   $0x0,-0x8a8(%rbp)
   12460:	00 00 00 00 
   12464:	48 c7 85 60 f7 ff ff 	movq   $0x0,-0x8a0(%rbp)
   1246b:	00 00 00 00 
   1246f:	48 8d 85 08 ee ff ff 	lea    -0x11f8(%rbp),%rax
   12476:	48 89 85 68 f7 ff ff 	mov    %rax,-0x898(%rbp)
   1247d:	48 c7 85 70 f7 ff ff 	movq   $0x0,-0x890(%rbp)
   12484:	00 00 00 00 
   12488:	48 c7 85 78 f7 ff ff 	movq   $0x0,-0x888(%rbp)
   1248f:	00 00 00 00 
   12493:	48 8d 85 08 ee ff ff 	lea    -0x11f8(%rbp),%rax
   1249a:	48 89 85 80 f7 ff ff 	mov    %rax,-0x880(%rbp)
   124a1:	48 c7 85 88 f7 ff ff 	movq   $0x0,-0x878(%rbp)
   124a8:	00 00 00 00 
   124ac:	48 8d 85 08 ee ff ff 	lea    -0x11f8(%rbp),%rax
   124b3:	48 89 85 90 f7 ff ff 	mov    %rax,-0x870(%rbp)
   124ba:	48 8d 85 08 ee ff ff 	lea    -0x11f8(%rbp),%rax
   124c1:	48 89 85 98 f7 ff ff 	mov    %rax,-0x868(%rbp)
   124c8:	48 c7 85 a0 f7 ff ff 	movq   $0x0,-0x860(%rbp)
   124cf:	00 00 00 00 
   124d3:	48 c7 85 a8 f7 ff ff 	movq   $0x0,-0x858(%rbp)
   124da:	00 00 00 00 
   124de:	48 8d 85 08 ee ff ff 	lea    -0x11f8(%rbp),%rax
   124e5:	48 89 85 b0 f7 ff ff 	mov    %rax,-0x850(%rbp)
   124ec:	48 8d 85 08 ee ff ff 	lea    -0x11f8(%rbp),%rax
   124f3:	48 89 85 b8 f7 ff ff 	mov    %rax,-0x848(%rbp)
   124fa:	48 c7 85 c0 f7 ff ff 	movq   $0x0,-0x840(%rbp)
   12501:	00 00 00 00 
   12505:	48 8d 85 08 ee ff ff 	lea    -0x11f8(%rbp),%rax
   1250c:	48 89 85 c8 f7 ff ff 	mov    %rax,-0x838(%rbp)
   12513:	c7 85 28 ed ff ff 82 	movl   $0x5c85182,-0x12d8(%rbp)
   1251a:	51 c8 05 
   1251d:	48 8d 05 dc ea 00 00 	lea    0xeadc(%rip),%rax        # 21000 <g_417>
   12524:	48 89 85 a0 ee ff ff 	mov    %rax,-0x1160(%rbp)
   1252b:	c7 85 2c ed ff ff 34 	movl   $0x9a599834,-0x12d4(%rbp)
   12532:	98 59 9a 
   12535:	c7 85 30 ed ff ff 03 	movl   $0x3,-0x12d0(%rbp)
   1253c:	00 00 00 
   1253f:	c7 85 34 ed ff ff 02 	movl   $0x2,-0x12cc(%rbp)
   12546:	00 00 00 
   12549:	c7 85 80 f1 ff ff fd 	movl   $0xfffffffd,-0xe80(%rbp)
   12550:	ff ff ff 
   12553:	c7 85 84 f1 ff ff fd 	movl   $0xfffffffd,-0xe7c(%rbp)
   1255a:	ff ff ff 
   1255d:	c7 85 88 f1 ff ff 80 	movl   $0x7f2fd880,-0xe78(%rbp)
   12564:	d8 2f 7f 
   12567:	c7 85 8c f1 ff ff fd 	movl   $0xfffffffd,-0xe74(%rbp)
   1256e:	ff ff ff 
   12571:	c7 85 90 f1 ff ff fd 	movl   $0xfffffffd,-0xe70(%rbp)
   12578:	ff ff ff 
   1257b:	c7 85 94 f1 ff ff 80 	movl   $0x7f2fd880,-0xe6c(%rbp)
   12582:	d8 2f 7f 
   12585:	c7 85 98 f1 ff ff fd 	movl   $0xfffffffd,-0xe68(%rbp)
   1258c:	ff ff ff 
   1258f:	c7 85 68 ed ff ff ff 	movl   $0xffffffff,-0x1298(%rbp)
   12596:	ff ff ff 
   12599:	c7 85 18 ee ff ff f2 	movl   $0xa1fb1af2,-0x11e8(%rbp)
   125a0:	1a fb a1 
   125a3:	48 c7 85 c0 f1 ff ff 	movq   $0x0,-0xe40(%rbp)
   125aa:	00 00 00 00 
   125ae:	48 c7 85 c8 f1 ff ff 	movq   $0x0,-0xe38(%rbp)
   125b5:	00 00 00 00 
   125b9:	48 c7 85 d0 f1 ff ff 	movq   $0x0,-0xe30(%rbp)
   125c0:	00 00 00 00 
   125c4:	48 c7 85 d8 f1 ff ff 	movq   $0x0,-0xe28(%rbp)
   125cb:	00 00 00 00 
   125cf:	c7 85 c0 f3 ff ff 74 	movl   $0x898dc674,-0xc40(%rbp)
   125d6:	c6 8d 89 
   125d9:	c7 85 c4 f3 ff ff 00 	movl   $0x0,-0xc3c(%rbp)
   125e0:	00 00 00 
   125e3:	c7 85 c8 f3 ff ff 00 	movl   $0x0,-0xc38(%rbp)
   125ea:	00 00 00 
   125ed:	c7 85 cc f3 ff ff 09 	movl   $0x9,-0xc34(%rbp)
   125f4:	00 00 00 
   125f7:	c7 85 d0 f3 ff ff 60 	movl   $0x5dee4a60,-0xc30(%rbp)
   125fe:	4a ee 5d 
   12601:	c7 85 d4 f3 ff ff ff 	movl   $0xffffffff,-0xc2c(%rbp)
   12608:	ff ff ff 
   1260b:	c7 85 d8 f3 ff ff ff 	movl   $0xffffffff,-0xc28(%rbp)
   12612:	ff ff ff 
   12615:	c7 85 dc f3 ff ff 60 	movl   $0x5dee4a60,-0xc24(%rbp)
   1261c:	4a ee 5d 
   1261f:	c7 85 e0 f3 ff ff 09 	movl   $0x9,-0xc20(%rbp)
   12626:	00 00 00 
   12629:	c7 85 e4 f3 ff ff 00 	movl   $0x0,-0xc1c(%rbp)
   12630:	00 00 00 
   12633:	c7 85 e8 f3 ff ff c2 	movl   $0x873feac2,-0xc18(%rbp)
   1263a:	ea 3f 87 
   1263d:	c7 85 ec f3 ff ff c2 	movl   $0x873feac2,-0xc14(%rbp)
   12644:	ea 3f 87 
   12647:	c7 85 f0 f3 ff ff fe 	movl   $0xfffffffe,-0xc10(%rbp)
   1264e:	ff ff ff 
   12651:	c7 85 f4 f3 ff ff a0 	movl   $0xa316b8a0,-0xc0c(%rbp)
   12658:	b8 16 a3 
   1265b:	c7 85 f8 f3 ff ff fb 	movl   $0xfffffffb,-0xc08(%rbp)
   12662:	ff ff ff 
   12665:	c7 85 fc f3 ff ff ff 	movl   $0xffffffff,-0xc04(%rbp)
   1266c:	ff ff ff 
   1266f:	c7 85 00 f4 ff ff 02 	movl   $0x2,-0xc00(%rbp)
   12676:	00 00 00 
   12679:	c7 85 04 f4 ff ff ff 	movl   $0xffffffff,-0xbfc(%rbp)
   12680:	ff ff ff 
   12683:	c7 85 08 f4 ff ff 60 	movl   $0x5dee4a60,-0xbf8(%rbp)
   1268a:	4a ee 5d 
   1268d:	c7 85 0c f4 ff ff 01 	movl   $0x1,-0xbf4(%rbp)
   12694:	00 00 00 
   12697:	c7 85 10 f4 ff ff ff 	movl   $0xffffffff,-0xbf0(%rbp)
   1269e:	ff ff ff 
   126a1:	c7 85 14 f4 ff ff ff 	movl   $0xffffffff,-0xbec(%rbp)
   126a8:	ff ff ff 
   126ab:	c7 85 18 f4 ff ff c2 	movl   $0x873feac2,-0xbe8(%rbp)
   126b2:	ea 3f 87 
   126b5:	c7 85 1c f4 ff ff 4b 	movl   $0x3a38054b,-0xbe4(%rbp)
   126bc:	05 38 3a 
   126bf:	c7 85 20 f4 ff ff 02 	movl   $0x2,-0xbe0(%rbp)
   126c6:	00 00 00 
   126c9:	c7 85 24 f4 ff ff 00 	movl   $0x0,-0xbdc(%rbp)
   126d0:	00 00 00 
   126d3:	c7 85 28 f4 ff ff 02 	movl   $0x2,-0xbd8(%rbp)
   126da:	00 00 00 
   126dd:	c7 85 2c f4 ff ff 4b 	movl   $0x3a38054b,-0xbd4(%rbp)
   126e4:	05 38 3a 
   126e7:	c7 85 30 f4 ff ff c2 	movl   $0x873feac2,-0xbd0(%rbp)
   126ee:	ea 3f 87 
   126f1:	c7 85 34 f4 ff ff ff 	movl   $0xffffffff,-0xbcc(%rbp)
   126f8:	ff ff ff 
   126fb:	c7 85 38 f4 ff ff 60 	movl   $0x5dee4a60,-0xbc8(%rbp)
   12702:	4a ee 5d 
   12705:	c7 85 3c f4 ff ff c2 	movl   $0x873feac2,-0xbc4(%rbp)
   1270c:	ea 3f 87 
   1270f:	c7 85 40 f4 ff ff 09 	movl   $0x9,-0xbc0(%rbp)
   12716:	00 00 00 
   12719:	c7 85 44 f4 ff ff 74 	movl   $0x898dc674,-0xbbc(%rbp)
   12720:	c6 8d 89 
   12723:	c7 85 48 f4 ff ff 01 	movl   $0x1,-0xbb8(%rbp)
   1272a:	00 00 00 
   1272d:	c7 85 4c f4 ff ff fd 	movl   $0xfffffffd,-0xbb4(%rbp)
   12734:	ff ff ff 
   12737:	c7 85 50 f4 ff ff ff 	movl   $0xffffffff,-0xbb0(%rbp)
   1273e:	ff ff ff 
   12741:	c7 85 54 f4 ff ff 00 	movl   $0x0,-0xbac(%rbp)
   12748:	00 00 00 
   1274b:	c7 85 58 f4 ff ff a0 	movl   $0xa316b8a0,-0xba8(%rbp)
   12752:	b8 16 a3 
   12755:	c7 85 5c f4 ff ff ff 	movl   $0xffffffff,-0xba4(%rbp)
   1275c:	ff ff ff 
   1275f:	48 c7 85 a8 ee ff ff 	movq   $0x0,-0x1158(%rbp)
   12766:	00 00 00 00 
   1276a:	c7 85 20 ee ff ff 75 	movl   $0x20dacb75,-0x11e0(%rbp)
   12771:	cb da 20 
   12774:	66 c7 85 16 ed ff ff 	movw   $0x0,-0x12ea(%rbp)
   1277b:	00 00 
   1277d:	48 8b 85 08 ee ff ff 	mov    -0x11f8(%rbp),%rax
   12784:	48 89 85 58 ee ff ff 	mov    %rax,-0x11a8(%rbp)
   1278b:	48 8b 85 58 ee ff ff 	mov    -0x11a8(%rbp),%rax
   12792:	48 89 05 5f e8 00 00 	mov    %rax,0xe85f(%rip)        # 20ff8 <g_401>
   12799:	48 8b 15 58 e8 00 00 	mov    0xe858(%rip),%rdx        # 20ff8 <g_401>
   127a0:	48 c7 05 55 c5 00 00 	movq   $0x0,0xc555(%rip)        # 1ed00 <g_402>
   127a7:	00 00 00 00 
   127ab:	48 8b 05 4e c5 00 00 	mov    0xc54e(%rip),%rax        # 1ed00 <g_402>
   127b2:	48 39 c2             	cmp    %rax,%rdx
   127b5:	48 8b 85 e0 ec ff ff 	mov    -0x1320(%rbp),%rax
   127bc:	0f b7 c0             	movzwl %ax,%eax
   127bf:	be 02 00 00 00       	mov    $0x2,%esi
   127c4:	89 c7                	mov    %eax,%edi
   127c6:	e8 af 66 ff ff       	callq  8e7a <safe_rshift_func_uint16_t_u_u>
   127cb:	44 0f b7 e0          	movzwl %ax,%r12d
   127cf:	0f b7 85 12 ed ff ff 	movzwl -0x12ee(%rbp),%eax
   127d6:	44 0f bf e8          	movswl %ax,%r13d
   127da:	be 01 00 00 00       	mov    $0x1,%esi
   127df:	bf fe ff ff ff       	mov    $0xfffffffe,%edi
   127e4:	e8 f8 5c ff ff       	callq  84e1 <safe_lshift_func_int16_t_s_u>
   127e9:	66 85 c0             	test   %ax,%ax
   127ec:	0f 84 95 00 00 00    	je     12887 <func_46+0x1feb>
   127f2:	8b 85 28 ed ff ff    	mov    -0x12d8(%rbp),%eax
   127f8:	0f b6 d8             	movzbl %al,%ebx
   127fb:	8b 85 28 ed ff ff    	mov    -0x12d8(%rbp),%eax
   12801:	89 c6                	mov    %eax,%esi
   12803:	bf fc ff ff ff       	mov    $0xfffffffc,%edi
   12808:	e8 f8 5d ff ff       	callq  8605 <safe_sub_func_int32_t_s_s>
   1280d:	48 8b 95 d8 ed ff ff 	mov    -0x1228(%rbp),%rdx
   12814:	8b 12                	mov    (%rdx),%edx
   12816:	39 d0                	cmp    %edx,%eax
   12818:	0f 9f c0             	setg   %al
   1281b:	0f b6 d0             	movzbl %al,%edx
   1281e:	8b 85 28 ed ff ff    	mov    -0x12d8(%rbp),%eax
   12824:	0f b7 c0             	movzwl %ax,%eax
   12827:	89 d6                	mov    %edx,%esi
   12829:	89 c7                	mov    %eax,%edi
   1282b:	e8 cf 64 ff ff       	callq  8cff <safe_add_func_uint16_t_u_u>
   12830:	48 8b 05 d9 c4 00 00 	mov    0xc4d9(%rip),%rax        # 1ed10 <g_414>
   12837:	48 8b 15 c2 e7 00 00 	mov    0xe7c2(%rip),%rdx        # 21000 <g_417>
   1283e:	48 8b 85 a0 ee ff ff 	mov    -0x1160(%rbp),%rax
   12845:	48 89 10             	mov    %rdx,(%rax)
   12848:	48 8b 85 a0 ee ff ff 	mov    -0x1160(%rbp),%rax
   1284f:	48 8b 00             	mov    (%rax),%rax
   12852:	48 85 c0             	test   %rax,%rax
   12855:	0f 94 c0             	sete   %al
   12858:	0f b6 c0             	movzbl %al,%eax
   1285b:	89 de                	mov    %ebx,%esi
   1285d:	89 c7                	mov    %eax,%edi
   1285f:	e8 2f 63 ff ff       	callq  8b93 <safe_mul_func_uint8_t_u_u>
   12864:	48 8b 05 65 e7 00 00 	mov    0xe765(%rip),%rax        # 20fd0 <g_162>
   1286b:	83 f0 f8             	xor    $0xfffffff8,%eax
   1286e:	89 c2                	mov    %eax,%edx
   12870:	48 8b 85 d0 ed ff ff 	mov    -0x1230(%rbp),%rax
   12877:	88 10                	mov    %dl,(%rax)
   12879:	0f b6 00             	movzbl (%rax),%eax
   1287c:	84 c0                	test   %al,%al
   1287e:	74 07                	je     12887 <func_46+0x1feb>
   12880:	b8 01 00 00 00       	mov    $0x1,%eax
   12885:	eb 05                	jmp    1288c <func_46+0x1ff0>
   12887:	b8 00 00 00 00       	mov    $0x0,%eax
   1288c:	44 39 e8             	cmp    %r13d,%eax
   1288f:	0f 95 c0             	setne  %al
   12892:	0f b6 d0             	movzbl %al,%edx
   12895:	8b 85 28 ed ff ff    	mov    -0x12d8(%rbp),%eax
   1289b:	39 c2                	cmp    %eax,%edx
   1289d:	0f 94 c0             	sete   %al
   128a0:	0f b6 c0             	movzbl %al,%eax
   128a3:	41 39 c4             	cmp    %eax,%r12d
   128a6:	0f 8d 52 14 00 00    	jge    13cfe <func_46+0x3462>
   128ac:	c7 85 6c ed ff ff 0d 	movl   $0xc370ab0d,-0x1294(%rbp)
   128b3:	ab 70 c3 
   128b6:	48 8d 85 20 ed ff ff 	lea    -0x12e0(%rbp),%rax
   128bd:	48 89 85 b0 ee ff ff 	mov    %rax,-0x1150(%rbp)
   128c4:	48 8d 05 fd a8 00 00 	lea    0xa8fd(%rip),%rax        # 1d1c8 <g_190+0x8>
   128cb:	48 89 85 b8 ee ff ff 	mov    %rax,-0x1148(%rbp)
   128d2:	c7 85 70 ed ff ff 53 	movl   $0xb28aa653,-0x1290(%rbp)
   128d9:	a6 8a b2 
   128dc:	c7 85 74 ed ff ff 03 	movl   $0x3,-0x128c(%rbp)
   128e3:	00 00 00 
   128e6:	c7 85 30 f3 ff ff 35 	movl   $0xa2f23935,-0xcd0(%rbp)
   128ed:	39 f2 a2 
   128f0:	c7 85 34 f3 ff ff 01 	movl   $0xd5c3d701,-0xccc(%rbp)
   128f7:	d7 c3 d5 
   128fa:	c7 85 38 f3 ff ff 00 	movl   $0x0,-0xcc8(%rbp)
   12901:	00 00 00 
   12904:	c7 85 3c f3 ff ff 00 	movl   $0x0,-0xcc4(%rbp)
   1290b:	00 00 00 
   1290e:	c7 85 40 f3 ff ff 45 	movl   $0x99922345,-0xcc0(%rbp)
   12915:	23 92 99 
   12918:	c7 85 44 f3 ff ff 76 	movl   $0x4c571c76,-0xcbc(%rbp)
   1291f:	1c 57 4c 
   12922:	c7 85 48 f3 ff ff 78 	movl   $0x17245b78,-0xcb8(%rbp)
   12929:	5b 24 17 
   1292c:	c7 85 4c f3 ff ff 45 	movl   $0x99922345,-0xcb4(%rbp)
   12933:	23 92 99 
   12936:	c7 85 50 f3 ff ff 78 	movl   $0x17245b78,-0xcb0(%rbp)
   1293d:	5b 24 17 
   12940:	c7 85 54 f3 ff ff 00 	movl   $0x0,-0xcac(%rbp)
   12947:	00 00 00 
   1294a:	c7 85 58 f3 ff ff 00 	movl   $0x0,-0xca8(%rbp)
   12951:	00 00 00 
   12954:	c7 85 5c f3 ff ff 78 	movl   $0x17245b78,-0xca4(%rbp)
   1295b:	5b 24 17 
   1295e:	c7 85 60 f3 ff ff 45 	movl   $0x99922345,-0xca0(%rbp)
   12965:	23 92 99 
   12968:	c7 85 64 f3 ff ff 35 	movl   $0xa2f23935,-0xc9c(%rbp)
   1296f:	39 f2 a2 
   12972:	c7 85 68 f3 ff ff 09 	movl   $0xa979b009,-0xc98(%rbp)
   12979:	b0 79 a9 
   1297c:	c7 85 6c f3 ff ff 00 	movl   $0x0,-0xc94(%rbp)
   12983:	00 00 00 
   12986:	c7 85 70 f3 ff ff 00 	movl   $0x0,-0xc90(%rbp)
   1298d:	00 00 00 
   12990:	c7 85 74 f3 ff ff 35 	movl   $0xa2f23935,-0xc8c(%rbp)
   12997:	39 f2 a2 
   1299a:	c7 85 78 f3 ff ff 09 	movl   $0xa979b009,-0xc88(%rbp)
   129a1:	b0 79 a9 
   129a4:	c7 85 7c f3 ff ff ff 	movl   $0xffffffff,-0xc84(%rbp)
   129ab:	ff ff ff 
   129ae:	c7 85 80 f3 ff ff ff 	movl   $0xffffffff,-0xc80(%rbp)
   129b5:	ff ff ff 
   129b8:	c7 85 84 f3 ff ff 00 	movl   $0x0,-0xc7c(%rbp)
   129bf:	00 00 00 
   129c2:	c7 85 88 f3 ff ff 09 	movl   $0xa979b009,-0xc78(%rbp)
   129c9:	b0 79 a9 
   129cc:	c7 85 8c f3 ff ff 1f 	movl   $0x1cef091f,-0xc74(%rbp)
   129d3:	09 ef 1c 
   129d6:	c7 85 90 f3 ff ff 09 	movl   $0xa979b009,-0xc70(%rbp)
   129dd:	b0 79 a9 
   129e0:	c7 85 94 f3 ff ff 00 	movl   $0x0,-0xc6c(%rbp)
   129e7:	00 00 00 
   129ea:	c7 85 98 f3 ff ff 00 	movl   $0x0,-0xc68(%rbp)
   129f1:	00 00 00 
   129f4:	c7 85 9c f3 ff ff 35 	movl   $0xa2f23935,-0xc64(%rbp)
   129fb:	39 f2 a2 
   129fe:	c7 85 a0 f3 ff ff 00 	movl   $0x0,-0xc60(%rbp)
   12a05:	00 00 00 
   12a08:	c7 85 a4 f3 ff ff 78 	movl   $0x17245b78,-0xc5c(%rbp)
   12a0f:	5b 24 17 
   12a12:	c7 85 a8 f3 ff ff ff 	movl   $0xffffffff,-0xc58(%rbp)
   12a19:	ff ff ff 
   12a1c:	c7 85 ac f3 ff ff 76 	movl   $0x4c571c76,-0xc54(%rbp)
   12a23:	1c 57 4c 
   12a26:	c7 85 b0 f3 ff ff 00 	movl   $0x0,-0xc50(%rbp)
   12a2d:	00 00 00 
   12a30:	c7 85 b4 f3 ff ff 35 	movl   $0xa2f23935,-0xc4c(%rbp)
   12a37:	39 f2 a2 
   12a3a:	c7 85 b8 f3 ff ff 00 	movl   $0x0,-0xc48(%rbp)
   12a41:	00 00 00 
   12a44:	48 8d 85 50 f5 ff ff 	lea    -0xab0(%rbp),%rax
   12a4b:	48 05 f8 01 00 00    	add    $0x1f8,%rax
   12a51:	48 89 85 28 ee ff ff 	mov    %rax,-0x11d8(%rbp)
   12a58:	48 c7 85 c0 ee ff ff 	movq   $0xffffffffffffffff,-0x1140(%rbp)
   12a5f:	ff ff ff ff 
   12a63:	48 8b 85 f8 ec ff ff 	mov    -0x1308(%rbp),%rax
   12a6a:	8b 08                	mov    (%rax),%ecx
   12a6c:	48 8b 15 2d a7 00 00 	mov    0xa72d(%rip),%rdx        # 1d1a0 <g_132+0x20>
   12a73:	8b 85 6c ed ff ff    	mov    -0x1294(%rbp),%eax
   12a79:	48 39 c2             	cmp    %rax,%rdx
   12a7c:	0f 94 c0             	sete   %al
   12a7f:	0f b6 d0             	movzbl %al,%edx
   12a82:	48 8b 85 f8 ec ff ff 	mov    -0x1308(%rbp),%rax
   12a89:	09 ca                	or     %ecx,%edx
   12a8b:	89 10                	mov    %edx,(%rax)
   12a8d:	c7 85 78 ed ff ff 4c 	movl   $0x3f687a4c,-0x1288(%rbp)
   12a94:	7a 68 3f 
   12a97:	c7 85 7c ed ff ff a3 	movl   $0xc4a79fa3,-0x1284(%rbp)
   12a9e:	9f a7 c4 
   12aa1:	c7 85 80 ed ff ff 00 	movl   $0x0,-0x1280(%rbp)
   12aa8:	00 00 00 
   12aab:	48 8d 05 1e e5 00 00 	lea    0xe51e(%rip),%rax        # 20fd0 <g_162>
   12ab2:	48 89 85 c8 ee ff ff 	mov    %rax,-0x1138(%rbp)
   12ab9:	48 c7 85 d0 ee ff ff 	movq   $0x0,-0x1130(%rbp)
   12ac0:	00 00 00 00 
   12ac4:	48 8d 85 28 ee ff ff 	lea    -0x11d8(%rbp),%rax
   12acb:	48 89 85 d8 ee ff ff 	mov    %rax,-0x1128(%rbp)
   12ad2:	c7 85 e0 f1 ff ff 5a 	movl   $0x21698a5a,-0xe20(%rbp)
   12ad9:	8a 69 21 
   12adc:	c7 85 e4 f1 ff ff 5a 	movl   $0x21698a5a,-0xe1c(%rbp)
   12ae3:	8a 69 21 
   12ae6:	c7 85 e8 f1 ff ff 5a 	movl   $0x21698a5a,-0xe18(%rbp)
   12aed:	8a 69 21 
   12af0:	c7 85 ec f1 ff ff 5a 	movl   $0x21698a5a,-0xe14(%rbp)
   12af7:	8a 69 21 
   12afa:	c7 85 f0 f1 ff ff 5a 	movl   $0x21698a5a,-0xe10(%rbp)
   12b01:	8a 69 21 
   12b04:	c7 85 f4 f1 ff ff 5a 	movl   $0x21698a5a,-0xe0c(%rbp)
   12b0b:	8a 69 21 
   12b0e:	c7 85 f8 f1 ff ff 5a 	movl   $0x21698a5a,-0xe08(%rbp)
   12b15:	8a 69 21 
   12b18:	c7 85 fc f1 ff ff 5a 	movl   $0x21698a5a,-0xe04(%rbp)
   12b1f:	8a 69 21 
   12b22:	48 8d 85 12 ed ff ff 	lea    -0x12ee(%rbp),%rax
   12b29:	48 89 85 e0 ee ff ff 	mov    %rax,-0x1120(%rbp)
   12b30:	48 8d 05 73 a7 00 00 	lea    0xa773(%rip),%rax        # 1d2aa <g_243>
   12b37:	48 89 85 e8 ee ff ff 	mov    %rax,-0x1118(%rbp)
   12b3e:	48 8d 85 d8 ed ff ff 	lea    -0x1228(%rbp),%rax
   12b45:	48 89 85 f0 ee ff ff 	mov    %rax,-0x1110(%rbp)
   12b4c:	8b 85 28 ed ff ff    	mov    -0x12d8(%rbp),%eax
   12b52:	85 c0                	test   %eax,%eax
   12b54:	0f 84 ba 04 00 00    	je     13014 <func_46+0x2778>
   12b5a:	66 c7 85 18 ed ff ff 	movw   $0x5cd0,-0x12e8(%rbp)
   12b61:	d0 5c 
   12b63:	48 8d 05 be b9 00 00 	lea    0xb9be(%rip),%rax        # 1e528 <g_175>
   12b6a:	48 89 85 08 ef ff ff 	mov    %rax,-0x10f8(%rbp)
   12b71:	48 c7 85 d0 f7 ff ff 	movq   $0x0,-0x830(%rbp)
   12b78:	00 00 00 00 
   12b7c:	48 8d 85 12 ed ff ff 	lea    -0x12ee(%rbp),%rax
   12b83:	48 89 85 d8 f7 ff ff 	mov    %rax,-0x828(%rbp)
   12b8a:	48 8d 85 12 ed ff ff 	lea    -0x12ee(%rbp),%rax
   12b91:	48 89 85 e0 f7 ff ff 	mov    %rax,-0x820(%rbp)
   12b98:	48 8d 85 12 ed ff ff 	lea    -0x12ee(%rbp),%rax
   12b9f:	48 89 85 e8 f7 ff ff 	mov    %rax,-0x818(%rbp)
   12ba6:	48 8d 05 fd a6 00 00 	lea    0xa6fd(%rip),%rax        # 1d2aa <g_243>
   12bad:	48 89 85 f0 f7 ff ff 	mov    %rax,-0x810(%rbp)
   12bb4:	48 8d 85 12 ed ff ff 	lea    -0x12ee(%rbp),%rax
   12bbb:	48 89 85 f8 f7 ff ff 	mov    %rax,-0x808(%rbp)
   12bc2:	48 8d 85 12 ed ff ff 	lea    -0x12ee(%rbp),%rax
   12bc9:	48 89 85 00 f8 ff ff 	mov    %rax,-0x800(%rbp)
   12bd0:	48 8d 85 12 ed ff ff 	lea    -0x12ee(%rbp),%rax
   12bd7:	48 89 85 08 f8 ff ff 	mov    %rax,-0x7f8(%rbp)
   12bde:	48 c7 85 10 f8 ff ff 	movq   $0x0,-0x7f0(%rbp)
   12be5:	00 00 00 00 
   12be9:	48 8d 05 ba a6 00 00 	lea    0xa6ba(%rip),%rax        # 1d2aa <g_243>
   12bf0:	48 89 85 18 f8 ff ff 	mov    %rax,-0x7e8(%rbp)
   12bf7:	48 8d 05 aa a6 00 00 	lea    0xa6aa(%rip),%rax        # 1d2a8 <g_241>
   12bfe:	48 89 85 20 f8 ff ff 	mov    %rax,-0x7e0(%rbp)
   12c05:	48 8d 05 9c a6 00 00 	lea    0xa69c(%rip),%rax        # 1d2a8 <g_241>
   12c0c:	48 89 85 28 f8 ff ff 	mov    %rax,-0x7d8(%rbp)
   12c13:	48 8d 05 8e a6 00 00 	lea    0xa68e(%rip),%rax        # 1d2a8 <g_241>
   12c1a:	48 89 85 30 f8 ff ff 	mov    %rax,-0x7d0(%rbp)
   12c21:	48 8d 05 82 a6 00 00 	lea    0xa682(%rip),%rax        # 1d2aa <g_243>
   12c28:	48 89 85 38 f8 ff ff 	mov    %rax,-0x7c8(%rbp)
   12c2f:	48 8d 05 74 a6 00 00 	lea    0xa674(%rip),%rax        # 1d2aa <g_243>
   12c36:	48 89 85 40 f8 ff ff 	mov    %rax,-0x7c0(%rbp)
   12c3d:	48 8d 05 64 a6 00 00 	lea    0xa664(%rip),%rax        # 1d2a8 <g_241>
   12c44:	48 89 85 48 f8 ff ff 	mov    %rax,-0x7b8(%rbp)
   12c4b:	48 8d 05 56 a6 00 00 	lea    0xa656(%rip),%rax        # 1d2a8 <g_241>
   12c52:	48 89 85 50 f8 ff ff 	mov    %rax,-0x7b0(%rbp)
   12c59:	48 8d 05 48 a6 00 00 	lea    0xa648(%rip),%rax        # 1d2a8 <g_241>
   12c60:	48 89 85 58 f8 ff ff 	mov    %rax,-0x7a8(%rbp)
   12c67:	48 8d 85 12 ed ff ff 	lea    -0x12ee(%rbp),%rax
   12c6e:	48 89 85 60 f8 ff ff 	mov    %rax,-0x7a0(%rbp)
   12c75:	48 8d 05 2c a6 00 00 	lea    0xa62c(%rip),%rax        # 1d2a8 <g_241>
   12c7c:	48 89 85 68 f8 ff ff 	mov    %rax,-0x798(%rbp)
   12c83:	48 8d 85 12 ed ff ff 	lea    -0x12ee(%rbp),%rax
   12c8a:	48 89 85 70 f8 ff ff 	mov    %rax,-0x790(%rbp)
   12c91:	48 8d 05 12 a6 00 00 	lea    0xa612(%rip),%rax        # 1d2aa <g_243>
   12c98:	48 89 85 78 f8 ff ff 	mov    %rax,-0x788(%rbp)
   12c9f:	48 8d 05 04 a6 00 00 	lea    0xa604(%rip),%rax        # 1d2aa <g_243>
   12ca6:	48 89 85 80 f8 ff ff 	mov    %rax,-0x780(%rbp)
   12cad:	48 8d 85 12 ed ff ff 	lea    -0x12ee(%rbp),%rax
   12cb4:	48 89 85 88 f8 ff ff 	mov    %rax,-0x778(%rbp)
   12cbb:	48 8d 05 e8 a5 00 00 	lea    0xa5e8(%rip),%rax        # 1d2aa <g_243>
   12cc2:	48 89 85 90 f8 ff ff 	mov    %rax,-0x770(%rbp)
   12cc9:	48 8d 05 da a5 00 00 	lea    0xa5da(%rip),%rax        # 1d2aa <g_243>
   12cd0:	48 89 85 98 f8 ff ff 	mov    %rax,-0x768(%rbp)
   12cd7:	48 8d 85 12 ed ff ff 	lea    -0x12ee(%rbp),%rax
   12cde:	48 89 85 a0 f8 ff ff 	mov    %rax,-0x760(%rbp)
   12ce5:	48 8d 05 be a5 00 00 	lea    0xa5be(%rip),%rax        # 1d2aa <g_243>
   12cec:	48 89 85 a8 f8 ff ff 	mov    %rax,-0x758(%rbp)
   12cf3:	48 8d 05 b0 a5 00 00 	lea    0xa5b0(%rip),%rax        # 1d2aa <g_243>
   12cfa:	48 89 85 b0 f8 ff ff 	mov    %rax,-0x750(%rbp)
   12d01:	48 8d 05 a0 a5 00 00 	lea    0xa5a0(%rip),%rax        # 1d2a8 <g_241>
   12d08:	48 89 85 b8 f8 ff ff 	mov    %rax,-0x748(%rbp)
   12d0f:	48 8d 05 92 a5 00 00 	lea    0xa592(%rip),%rax        # 1d2a8 <g_241>
   12d16:	48 89 85 c0 f8 ff ff 	mov    %rax,-0x740(%rbp)
   12d1d:	48 8d 05 84 a5 00 00 	lea    0xa584(%rip),%rax        # 1d2a8 <g_241>
   12d24:	48 89 85 c8 f8 ff ff 	mov    %rax,-0x738(%rbp)
   12d2b:	48 8d 05 78 a5 00 00 	lea    0xa578(%rip),%rax        # 1d2aa <g_243>
   12d32:	48 89 85 d0 f8 ff ff 	mov    %rax,-0x730(%rbp)
   12d39:	48 8d 05 6a a5 00 00 	lea    0xa56a(%rip),%rax        # 1d2aa <g_243>
   12d40:	48 89 85 d8 f8 ff ff 	mov    %rax,-0x728(%rbp)
   12d47:	48 8d 05 5a a5 00 00 	lea    0xa55a(%rip),%rax        # 1d2a8 <g_241>
   12d4e:	48 89 85 e0 f8 ff ff 	mov    %rax,-0x720(%rbp)
   12d55:	48 8d 05 4c a5 00 00 	lea    0xa54c(%rip),%rax        # 1d2a8 <g_241>
   12d5c:	48 89 85 e8 f8 ff ff 	mov    %rax,-0x718(%rbp)
   12d63:	48 c7 85 f0 f8 ff ff 	movq   $0x0,-0x710(%rbp)
   12d6a:	00 00 00 00 
   12d6e:	48 8d 05 33 a5 00 00 	lea    0xa533(%rip),%rax        # 1d2a8 <g_241>
   12d75:	48 89 85 f8 f8 ff ff 	mov    %rax,-0x708(%rbp)
   12d7c:	48 c7 85 00 f9 ff ff 	movq   $0x0,-0x700(%rbp)
   12d83:	00 00 00 00 
   12d87:	48 8d 85 12 ed ff ff 	lea    -0x12ee(%rbp),%rax
   12d8e:	48 89 85 08 f9 ff ff 	mov    %rax,-0x6f8(%rbp)
   12d95:	48 8d 85 12 ed ff ff 	lea    -0x12ee(%rbp),%rax
   12d9c:	48 89 85 10 f9 ff ff 	mov    %rax,-0x6f0(%rbp)
   12da3:	48 8d 85 12 ed ff ff 	lea    -0x12ee(%rbp),%rax
   12daa:	48 89 85 18 f9 ff ff 	mov    %rax,-0x6e8(%rbp)
   12db1:	48 8d 05 f2 a4 00 00 	lea    0xa4f2(%rip),%rax        # 1d2aa <g_243>
   12db8:	48 89 85 20 f9 ff ff 	mov    %rax,-0x6e0(%rbp)
   12dbf:	48 8d 85 12 ed ff ff 	lea    -0x12ee(%rbp),%rax
   12dc6:	48 89 85 28 f9 ff ff 	mov    %rax,-0x6d8(%rbp)
   12dcd:	48 8d 85 12 ed ff ff 	lea    -0x12ee(%rbp),%rax
   12dd4:	48 89 85 30 f9 ff ff 	mov    %rax,-0x6d0(%rbp)
   12ddb:	48 8d 85 12 ed ff ff 	lea    -0x12ee(%rbp),%rax
   12de2:	48 89 85 38 f9 ff ff 	mov    %rax,-0x6c8(%rbp)
   12de9:	48 8d 05 b8 a4 00 00 	lea    0xa4b8(%rip),%rax        # 1d2a8 <g_241>
   12df0:	48 89 85 40 f9 ff ff 	mov    %rax,-0x6c0(%rbp)
   12df7:	48 8d 05 aa a4 00 00 	lea    0xa4aa(%rip),%rax        # 1d2a8 <g_241>
   12dfe:	48 89 85 48 f9 ff ff 	mov    %rax,-0x6b8(%rbp)
   12e05:	48 8d 85 12 ed ff ff 	lea    -0x12ee(%rbp),%rax
   12e0c:	48 89 85 50 f9 ff ff 	mov    %rax,-0x6b0(%rbp)
   12e13:	48 8d 85 12 ed ff ff 	lea    -0x12ee(%rbp),%rax
   12e1a:	48 89 85 58 f9 ff ff 	mov    %rax,-0x6a8(%rbp)
   12e21:	48 8d 85 12 ed ff ff 	lea    -0x12ee(%rbp),%rax
   12e28:	48 89 85 60 f9 ff ff 	mov    %rax,-0x6a0(%rbp)
   12e2f:	48 8d 05 72 a4 00 00 	lea    0xa472(%rip),%rax        # 1d2a8 <g_241>
   12e36:	48 89 85 68 f9 ff ff 	mov    %rax,-0x698(%rbp)
   12e3d:	48 8d 05 64 a4 00 00 	lea    0xa464(%rip),%rax        # 1d2a8 <g_241>
   12e44:	48 89 85 70 f9 ff ff 	mov    %rax,-0x690(%rbp)
   12e4b:	48 8d 85 12 ed ff ff 	lea    -0x12ee(%rbp),%rax
   12e52:	48 89 85 78 f9 ff ff 	mov    %rax,-0x688(%rbp)
   12e59:	48 8d 05 4a a4 00 00 	lea    0xa44a(%rip),%rax        # 1d2aa <g_243>
   12e60:	48 89 85 80 f9 ff ff 	mov    %rax,-0x680(%rbp)
   12e67:	48 8d 85 12 ed ff ff 	lea    -0x12ee(%rbp),%rax
   12e6e:	48 89 85 88 f9 ff ff 	mov    %rax,-0x678(%rbp)
   12e75:	48 8d 85 12 ed ff ff 	lea    -0x12ee(%rbp),%rax
   12e7c:	48 89 85 90 f9 ff ff 	mov    %rax,-0x670(%rbp)
   12e83:	48 8d 85 12 ed ff ff 	lea    -0x12ee(%rbp),%rax
   12e8a:	48 89 85 98 f9 ff ff 	mov    %rax,-0x668(%rbp)
   12e91:	48 8d 05 12 a4 00 00 	lea    0xa412(%rip),%rax        # 1d2aa <g_243>
   12e98:	48 89 85 a0 f9 ff ff 	mov    %rax,-0x660(%rbp)
   12e9f:	48 8d 05 02 a4 00 00 	lea    0xa402(%rip),%rax        # 1d2a8 <g_241>
   12ea6:	48 89 85 a8 f9 ff ff 	mov    %rax,-0x658(%rbp)
   12ead:	48 8d 85 12 ed ff ff 	lea    -0x12ee(%rbp),%rax
   12eb4:	48 89 85 b0 f9 ff ff 	mov    %rax,-0x650(%rbp)
   12ebb:	48 8d 05 e8 a3 00 00 	lea    0xa3e8(%rip),%rax        # 1d2aa <g_243>
   12ec2:	48 89 85 b8 f9 ff ff 	mov    %rax,-0x648(%rbp)
   12ec9:	48 8d 85 12 ed ff ff 	lea    -0x12ee(%rbp),%rax
   12ed0:	48 89 85 c0 f9 ff ff 	mov    %rax,-0x640(%rbp)
   12ed7:	48 8d 05 ca a3 00 00 	lea    0xa3ca(%rip),%rax        # 1d2a8 <g_241>
   12ede:	48 89 85 c8 f9 ff ff 	mov    %rax,-0x638(%rbp)
   12ee5:	48 8d 85 12 ed ff ff 	lea    -0x12ee(%rbp),%rax
   12eec:	48 89 85 d0 f9 ff ff 	mov    %rax,-0x630(%rbp)
   12ef3:	48 8d 05 ae a3 00 00 	lea    0xa3ae(%rip),%rax        # 1d2a8 <g_241>
   12efa:	48 89 85 d8 f9 ff ff 	mov    %rax,-0x628(%rbp)
   12f01:	48 8d 05 a0 a3 00 00 	lea    0xa3a0(%rip),%rax        # 1d2a8 <g_241>
   12f08:	48 89 85 e0 f9 ff ff 	mov    %rax,-0x620(%rbp)
   12f0f:	48 8d 85 12 ed ff ff 	lea    -0x12ee(%rbp),%rax
   12f16:	48 89 85 e8 f9 ff ff 	mov    %rax,-0x618(%rbp)
   12f1d:	48 8d 05 84 a3 00 00 	lea    0xa384(%rip),%rax        # 1d2a8 <g_241>
   12f24:	48 89 85 f0 f9 ff ff 	mov    %rax,-0x610(%rbp)
   12f2b:	48 8d 85 12 ed ff ff 	lea    -0x12ee(%rbp),%rax
   12f32:	48 89 85 f8 f9 ff ff 	mov    %rax,-0x608(%rbp)
   12f39:	48 8d 05 68 a3 00 00 	lea    0xa368(%rip),%rax        # 1d2a8 <g_241>
   12f40:	48 89 85 00 fa ff ff 	mov    %rax,-0x600(%rbp)
   12f47:	48 8d 05 5a a3 00 00 	lea    0xa35a(%rip),%rax        # 1d2a8 <g_241>
   12f4e:	48 89 85 08 fa ff ff 	mov    %rax,-0x5f8(%rbp)
   12f55:	48 8d 05 4e a3 00 00 	lea    0xa34e(%rip),%rax        # 1d2aa <g_243>
   12f5c:	48 89 85 10 fa ff ff 	mov    %rax,-0x5f0(%rbp)
   12f63:	48 8d 05 3e a3 00 00 	lea    0xa33e(%rip),%rax        # 1d2a8 <g_241>
   12f6a:	48 89 85 18 fa ff ff 	mov    %rax,-0x5e8(%rbp)
   12f71:	48 8d 85 12 ed ff ff 	lea    -0x12ee(%rbp),%rax
   12f78:	48 89 85 20 fa ff ff 	mov    %rax,-0x5e0(%rbp)
   12f7f:	48 8d 05 24 a3 00 00 	lea    0xa324(%rip),%rax        # 1d2aa <g_243>
   12f86:	48 89 85 28 fa ff ff 	mov    %rax,-0x5d8(%rbp)
   12f8d:	48 8d 85 12 ed ff ff 	lea    -0x12ee(%rbp),%rax
   12f94:	48 89 85 30 fa ff ff 	mov    %rax,-0x5d0(%rbp)
   12f9b:	48 8d 05 06 a3 00 00 	lea    0xa306(%rip),%rax        # 1d2a8 <g_241>
   12fa2:	48 89 85 38 fa ff ff 	mov    %rax,-0x5c8(%rbp)
   12fa9:	48 8d 05 fa a2 00 00 	lea    0xa2fa(%rip),%rax        # 1d2aa <g_243>
   12fb0:	48 89 85 40 fa ff ff 	mov    %rax,-0x5c0(%rbp)
   12fb7:	48 8d 85 12 ed ff ff 	lea    -0x12ee(%rbp),%rax
   12fbe:	48 89 85 48 fa ff ff 	mov    %rax,-0x5b8(%rbp)
   12fc5:	48 8d 85 12 ed ff ff 	lea    -0x12ee(%rbp),%rax
   12fcc:	48 89 85 50 fa ff ff 	mov    %rax,-0x5b0(%rbp)
   12fd3:	48 8b 85 f8 ec ff ff 	mov    -0x1308(%rbp),%rax
   12fda:	8b 95 78 ed ff ff    	mov    -0x1288(%rbp),%edx
   12fe0:	89 10                	mov    %edx,(%rax)
   12fe2:	48 8b 85 f8 ec ff ff 	mov    -0x1308(%rbp),%rax
   12fe9:	8b 00                	mov    (%rax),%eax
   12feb:	25 9e a5 a0 e6       	and    $0xe6a0a59e,%eax
   12ff0:	89 85 7c ed ff ff    	mov    %eax,-0x1284(%rbp)
   12ff6:	81 bd 7c ed ff ff 54 	cmpl   $0x7e54,-0x1284(%rbp)
   12ffd:	7e 00 00 
   13000:	0f 9f c2             	setg   %dl
   13003:	48 8b 85 d8 ed ff ff 	mov    -0x1228(%rbp),%rax
   1300a:	0f b6 d2             	movzbl %dl,%edx
   1300d:	89 10                	mov    %edx,(%rax)
   1300f:	e9 b8 00 00 00       	jmpq   130cc <func_46+0x2830>
   13014:	48 c7 85 f8 ee ff ff 	movq   $0x0,-0x1108(%rbp)
   1301b:	00 00 00 00 
   1301f:	48 8d 05 02 a0 00 00 	lea    0xa002(%rip),%rax        # 1d028 <g_25>
   13026:	48 89 85 00 ef ff ff 	mov    %rax,-0x1100(%rbp)
   1302d:	48 8d 85 1c ed ff ff 	lea    -0x12e4(%rbp),%rax
   13034:	48 89 85 d0 f7 ff ff 	mov    %rax,-0x830(%rbp)
   1303b:	48 8d 85 1c ed ff ff 	lea    -0x12e4(%rbp),%rax
   13042:	48 89 85 d8 f7 ff ff 	mov    %rax,-0x828(%rbp)
   13049:	48 8d 85 1c ed ff ff 	lea    -0x12e4(%rbp),%rax
   13050:	48 89 85 e0 f7 ff ff 	mov    %rax,-0x820(%rbp)
   13057:	48 8d 85 1c ed ff ff 	lea    -0x12e4(%rbp),%rax
   1305e:	48 89 85 e8 f7 ff ff 	mov    %rax,-0x818(%rbp)
   13065:	48 8d 85 1c ed ff ff 	lea    -0x12e4(%rbp),%rax
   1306c:	48 89 85 f0 f7 ff ff 	mov    %rax,-0x810(%rbp)
   13073:	48 8d 85 1c ed ff ff 	lea    -0x12e4(%rbp),%rax
   1307a:	48 89 85 f8 f7 ff ff 	mov    %rax,-0x808(%rbp)
   13081:	48 8d 85 1c ed ff ff 	lea    -0x12e4(%rbp),%rax
   13088:	48 89 85 00 f8 ff ff 	mov    %rax,-0x800(%rbp)
   1308f:	48 8d 85 1c ed ff ff 	lea    -0x12e4(%rbp),%rax
   13096:	48 89 85 08 f8 ff ff 	mov    %rax,-0x7f8(%rbp)
   1309d:	48 8b 05 74 bc 00 00 	mov    0xbc74(%rip),%rax        # 1ed18 <g_444>
   130a4:	48 8b 95 f8 ec ff ff 	mov    -0x1308(%rbp),%rdx
   130ab:	48 89 10             	mov    %rdx,(%rax)
   130ae:	8b 95 5c f2 ff ff    	mov    -0xda4(%rbp),%edx
   130b4:	48 8b 85 f8 ec ff ff 	mov    -0x1308(%rbp),%rax
   130bb:	8b 00                	mov    (%rax),%eax
   130bd:	31 d0                	xor    %edx,%eax
   130bf:	89 85 5c f2 ff ff    	mov    %eax,-0xda4(%rbp)
   130c5:	83 85 4c ed ff ff 01 	addl   $0x1,-0x12b4(%rbp)
   130cc:	48 8b 95 f8 ec ff ff 	mov    -0x1308(%rbp),%rdx
   130d3:	48 8b 85 f0 ee ff ff 	mov    -0x1110(%rbp),%rax
   130da:	48 89 10             	mov    %rdx,(%rax)
   130dd:	48 83 bd c0 ee ff ff 	cmpq   $0x0,-0x1140(%rbp)
   130e4:	00 
   130e5:	0f 85 cd 35 00 00    	jne    166b8 <func_46+0x5e1c>
   130eb:	48 c7 05 aa a1 00 00 	movq   $0x2,0xa1aa(%rip)        # 1d2a0 <g_209>
   130f2:	02 00 00 00 
   130f6:	e9 f0 0b 00 00       	jmpq   13ceb <func_46+0x344f>
   130fb:	48 8d 05 ce de 00 00 	lea    0xdece(%rip),%rax        # 20fd0 <g_162>
   13102:	48 89 85 b8 f0 ff ff 	mov    %rax,-0xf48(%rbp)
   13109:	48 8d 05 f0 de 00 00 	lea    0xdef0(%rip),%rax        # 21000 <g_417>
   13110:	48 89 85 d0 f7 ff ff 	mov    %rax,-0x830(%rbp)
   13117:	48 8d 05 e2 de 00 00 	lea    0xdee2(%rip),%rax        # 21000 <g_417>
   1311e:	48 89 85 d8 f7 ff ff 	mov    %rax,-0x828(%rbp)
   13125:	48 8d 85 f0 ed ff ff 	lea    -0x1210(%rbp),%rax
   1312c:	48 89 85 e0 f7 ff ff 	mov    %rax,-0x820(%rbp)
   13133:	48 c7 85 e8 f7 ff ff 	movq   $0x0,-0x818(%rbp)
   1313a:	00 00 00 00 
   1313e:	48 8d 05 bb de 00 00 	lea    0xdebb(%rip),%rax        # 21000 <g_417>
   13145:	48 89 85 f0 f7 ff ff 	mov    %rax,-0x810(%rbp)
   1314c:	48 8d 85 f0 ed ff ff 	lea    -0x1210(%rbp),%rax
   13153:	48 89 85 f8 f7 ff ff 	mov    %rax,-0x808(%rbp)
   1315a:	48 8d 85 f0 ed ff ff 	lea    -0x1210(%rbp),%rax
   13161:	48 89 85 00 f8 ff ff 	mov    %rax,-0x800(%rbp)
   13168:	48 8d 85 f0 ed ff ff 	lea    -0x1210(%rbp),%rax
   1316f:	48 89 85 08 f8 ff ff 	mov    %rax,-0x7f8(%rbp)
   13176:	48 8d 85 f0 ed ff ff 	lea    -0x1210(%rbp),%rax
   1317d:	48 89 85 10 f8 ff ff 	mov    %rax,-0x7f0(%rbp)
   13184:	48 8d 05 75 de 00 00 	lea    0xde75(%rip),%rax        # 21000 <g_417>
   1318b:	48 89 85 18 f8 ff ff 	mov    %rax,-0x7e8(%rbp)
   13192:	48 8d 05 67 de 00 00 	lea    0xde67(%rip),%rax        # 21000 <g_417>
   13199:	48 89 85 20 f8 ff ff 	mov    %rax,-0x7e0(%rbp)
   131a0:	48 8d 85 f0 ed ff ff 	lea    -0x1210(%rbp),%rax
   131a7:	48 89 85 28 f8 ff ff 	mov    %rax,-0x7d8(%rbp)
   131ae:	48 8d 85 f0 ed ff ff 	lea    -0x1210(%rbp),%rax
   131b5:	48 89 85 30 f8 ff ff 	mov    %rax,-0x7d0(%rbp)
   131bc:	48 c7 85 38 f8 ff ff 	movq   $0x0,-0x7c8(%rbp)
   131c3:	00 00 00 00 
   131c7:	48 8d 05 32 de 00 00 	lea    0xde32(%rip),%rax        # 21000 <g_417>
   131ce:	48 89 85 40 f8 ff ff 	mov    %rax,-0x7c0(%rbp)
   131d5:	48 c7 85 48 f8 ff ff 	movq   $0x0,-0x7b8(%rbp)
   131dc:	00 00 00 00 
   131e0:	48 c7 85 50 f8 ff ff 	movq   $0x0,-0x7b0(%rbp)
   131e7:	00 00 00 00 
   131eb:	48 c7 85 58 f8 ff ff 	movq   $0x0,-0x7a8(%rbp)
   131f2:	00 00 00 00 
   131f6:	48 c7 85 60 f8 ff ff 	movq   $0x0,-0x7a0(%rbp)
   131fd:	00 00 00 00 
   13201:	48 c7 85 68 f8 ff ff 	movq   $0x0,-0x798(%rbp)
   13208:	00 00 00 00 
   1320c:	48 8d 05 ed dd 00 00 	lea    0xdded(%rip),%rax        # 21000 <g_417>
   13213:	48 89 85 70 f8 ff ff 	mov    %rax,-0x790(%rbp)
   1321a:	48 8d 85 f0 ed ff ff 	lea    -0x1210(%rbp),%rax
   13221:	48 89 85 78 f8 ff ff 	mov    %rax,-0x788(%rbp)
   13228:	48 c7 85 80 f8 ff ff 	movq   $0x0,-0x780(%rbp)
   1322f:	00 00 00 00 
   13233:	48 c7 85 88 f8 ff ff 	movq   $0x0,-0x778(%rbp)
   1323a:	00 00 00 00 
   1323e:	48 8d 05 bb dd 00 00 	lea    0xddbb(%rip),%rax        # 21000 <g_417>
   13245:	48 89 85 90 f8 ff ff 	mov    %rax,-0x770(%rbp)
   1324c:	48 c7 85 98 f8 ff ff 	movq   $0x0,-0x768(%rbp)
   13253:	00 00 00 00 
   13257:	48 8d 05 a2 dd 00 00 	lea    0xdda2(%rip),%rax        # 21000 <g_417>
   1325e:	48 89 85 a0 f8 ff ff 	mov    %rax,-0x760(%rbp)
   13265:	48 8d 05 94 dd 00 00 	lea    0xdd94(%rip),%rax        # 21000 <g_417>
   1326c:	48 89 85 a8 f8 ff ff 	mov    %rax,-0x758(%rbp)
   13273:	48 8d 05 86 dd 00 00 	lea    0xdd86(%rip),%rax        # 21000 <g_417>
   1327a:	48 89 85 b0 f8 ff ff 	mov    %rax,-0x750(%rbp)
   13281:	48 8d 85 f0 ed ff ff 	lea    -0x1210(%rbp),%rax
   13288:	48 89 85 b8 f8 ff ff 	mov    %rax,-0x748(%rbp)
   1328f:	48 8d 05 6a dd 00 00 	lea    0xdd6a(%rip),%rax        # 21000 <g_417>
   13296:	48 89 85 c0 f8 ff ff 	mov    %rax,-0x740(%rbp)
   1329d:	48 c7 85 c8 f8 ff ff 	movq   $0x0,-0x738(%rbp)
   132a4:	00 00 00 00 
   132a8:	48 c7 85 d0 f8 ff ff 	movq   $0x0,-0x730(%rbp)
   132af:	00 00 00 00 
   132b3:	48 8d 85 f0 ed ff ff 	lea    -0x1210(%rbp),%rax
   132ba:	48 89 85 d8 f8 ff ff 	mov    %rax,-0x728(%rbp)
   132c1:	48 8d 05 38 dd 00 00 	lea    0xdd38(%rip),%rax        # 21000 <g_417>
   132c8:	48 89 85 e0 f8 ff ff 	mov    %rax,-0x720(%rbp)
   132cf:	48 8d 05 2a dd 00 00 	lea    0xdd2a(%rip),%rax        # 21000 <g_417>
   132d6:	48 89 85 e8 f8 ff ff 	mov    %rax,-0x718(%rbp)
   132dd:	48 8d 05 1c dd 00 00 	lea    0xdd1c(%rip),%rax        # 21000 <g_417>
   132e4:	48 89 85 f0 f8 ff ff 	mov    %rax,-0x710(%rbp)
   132eb:	48 c7 85 f8 f8 ff ff 	movq   $0x0,-0x708(%rbp)
   132f2:	00 00 00 00 
   132f6:	48 8d 05 03 dd 00 00 	lea    0xdd03(%rip),%rax        # 21000 <g_417>
   132fd:	48 89 85 00 f9 ff ff 	mov    %rax,-0x700(%rbp)
   13304:	48 c7 85 08 f9 ff ff 	movq   $0x0,-0x6f8(%rbp)
   1330b:	00 00 00 00 
   1330f:	48 8d 05 ea dc 00 00 	lea    0xdcea(%rip),%rax        # 21000 <g_417>
   13316:	48 89 85 10 f9 ff ff 	mov    %rax,-0x6f0(%rbp)
   1331d:	48 c7 85 18 f9 ff ff 	movq   $0x0,-0x6e8(%rbp)
   13324:	00 00 00 00 
   13328:	48 c7 85 20 f9 ff ff 	movq   $0x0,-0x6e0(%rbp)
   1332f:	00 00 00 00 
   13333:	48 c7 85 28 f9 ff ff 	movq   $0x0,-0x6d8(%rbp)
   1333a:	00 00 00 00 
   1333e:	48 c7 85 30 f9 ff ff 	movq   $0x0,-0x6d0(%rbp)
   13345:	00 00 00 00 
   13349:	48 8d 05 b0 dc 00 00 	lea    0xdcb0(%rip),%rax        # 21000 <g_417>
   13350:	48 89 85 38 f9 ff ff 	mov    %rax,-0x6c8(%rbp)
   13357:	48 8d 85 f0 ed ff ff 	lea    -0x1210(%rbp),%rax
   1335e:	48 89 85 40 f9 ff ff 	mov    %rax,-0x6c0(%rbp)
   13365:	48 8d 85 f0 ed ff ff 	lea    -0x1210(%rbp),%rax
   1336c:	48 89 85 48 f9 ff ff 	mov    %rax,-0x6b8(%rbp)
   13373:	48 8d 85 f0 ed ff ff 	lea    -0x1210(%rbp),%rax
   1337a:	48 89 85 50 f9 ff ff 	mov    %rax,-0x6b0(%rbp)
   13381:	48 c7 85 58 f9 ff ff 	movq   $0x0,-0x6a8(%rbp)
   13388:	00 00 00 00 
   1338c:	48 8d 85 f0 ed ff ff 	lea    -0x1210(%rbp),%rax
   13393:	48 89 85 60 f9 ff ff 	mov    %rax,-0x6a0(%rbp)
   1339a:	48 8d 05 5f dc 00 00 	lea    0xdc5f(%rip),%rax        # 21000 <g_417>
   133a1:	48 89 85 68 f9 ff ff 	mov    %rax,-0x698(%rbp)
   133a8:	48 c7 85 70 f9 ff ff 	movq   $0x0,-0x690(%rbp)
   133af:	00 00 00 00 
   133b3:	48 8d 05 46 dc 00 00 	lea    0xdc46(%rip),%rax        # 21000 <g_417>
   133ba:	48 89 85 78 f9 ff ff 	mov    %rax,-0x688(%rbp)
   133c1:	48 8d 05 38 dc 00 00 	lea    0xdc38(%rip),%rax        # 21000 <g_417>
   133c8:	48 89 85 80 f9 ff ff 	mov    %rax,-0x680(%rbp)
   133cf:	48 8d 85 f0 ed ff ff 	lea    -0x1210(%rbp),%rax
   133d6:	48 89 85 88 f9 ff ff 	mov    %rax,-0x678(%rbp)
   133dd:	48 8d 05 1c dc 00 00 	lea    0xdc1c(%rip),%rax        # 21000 <g_417>
   133e4:	48 89 85 90 f9 ff ff 	mov    %rax,-0x670(%rbp)
   133eb:	48 8d 85 f0 ed ff ff 	lea    -0x1210(%rbp),%rax
   133f2:	48 89 85 98 f9 ff ff 	mov    %rax,-0x668(%rbp)
   133f9:	48 8d 85 f0 ed ff ff 	lea    -0x1210(%rbp),%rax
   13400:	48 89 85 a0 f9 ff ff 	mov    %rax,-0x660(%rbp)
   13407:	48 8d 05 f2 db 00 00 	lea    0xdbf2(%rip),%rax        # 21000 <g_417>
   1340e:	48 89 85 a8 f9 ff ff 	mov    %rax,-0x658(%rbp)
   13415:	48 8d 85 f0 ed ff ff 	lea    -0x1210(%rbp),%rax
   1341c:	48 89 85 b0 f9 ff ff 	mov    %rax,-0x650(%rbp)
   13423:	48 8d 05 d6 db 00 00 	lea    0xdbd6(%rip),%rax        # 21000 <g_417>
   1342a:	48 89 85 b8 f9 ff ff 	mov    %rax,-0x648(%rbp)
   13431:	48 8d 85 f0 ed ff ff 	lea    -0x1210(%rbp),%rax
   13438:	48 89 85 c0 f9 ff ff 	mov    %rax,-0x640(%rbp)
   1343f:	48 c7 85 c8 f9 ff ff 	movq   $0x0,-0x638(%rbp)
   13446:	00 00 00 00 
   1344a:	48 8d 05 af db 00 00 	lea    0xdbaf(%rip),%rax        # 21000 <g_417>
   13451:	48 89 85 d0 f9 ff ff 	mov    %rax,-0x630(%rbp)
   13458:	48 8d 05 a1 db 00 00 	lea    0xdba1(%rip),%rax        # 21000 <g_417>
   1345f:	48 89 85 d8 f9 ff ff 	mov    %rax,-0x628(%rbp)
   13466:	48 c7 85 e0 f9 ff ff 	movq   $0x0,-0x620(%rbp)
   1346d:	00 00 00 00 
   13471:	48 c7 85 e8 f9 ff ff 	movq   $0x0,-0x618(%rbp)
   13478:	00 00 00 00 
   1347c:	48 8d 05 7d db 00 00 	lea    0xdb7d(%rip),%rax        # 21000 <g_417>
   13483:	48 89 85 f0 f9 ff ff 	mov    %rax,-0x610(%rbp)
   1348a:	48 8d 05 6f db 00 00 	lea    0xdb6f(%rip),%rax        # 21000 <g_417>
   13491:	48 89 85 f8 f9 ff ff 	mov    %rax,-0x608(%rbp)
   13498:	48 8d 05 61 db 00 00 	lea    0xdb61(%rip),%rax        # 21000 <g_417>
   1349f:	48 89 85 00 fa ff ff 	mov    %rax,-0x600(%rbp)
   134a6:	48 8d 85 f0 ed ff ff 	lea    -0x1210(%rbp),%rax
   134ad:	48 89 85 08 fa ff ff 	mov    %rax,-0x5f8(%rbp)
   134b4:	48 8d 85 f0 ed ff ff 	lea    -0x1210(%rbp),%rax
   134bb:	48 89 85 10 fa ff ff 	mov    %rax,-0x5f0(%rbp)
   134c2:	48 8d 05 37 db 00 00 	lea    0xdb37(%rip),%rax        # 21000 <g_417>
   134c9:	48 89 85 18 fa ff ff 	mov    %rax,-0x5e8(%rbp)
   134d0:	48 c7 85 20 fa ff ff 	movq   $0x0,-0x5e0(%rbp)
   134d7:	00 00 00 00 
   134db:	48 8d 05 1e db 00 00 	lea    0xdb1e(%rip),%rax        # 21000 <g_417>
   134e2:	48 89 85 28 fa ff ff 	mov    %rax,-0x5d8(%rbp)
   134e9:	48 8d 05 10 db 00 00 	lea    0xdb10(%rip),%rax        # 21000 <g_417>
   134f0:	48 89 85 30 fa ff ff 	mov    %rax,-0x5d0(%rbp)
   134f7:	48 8d 85 f0 ed ff ff 	lea    -0x1210(%rbp),%rax
   134fe:	48 89 85 38 fa ff ff 	mov    %rax,-0x5c8(%rbp)
   13505:	48 8d 05 f4 da 00 00 	lea    0xdaf4(%rip),%rax        # 21000 <g_417>
   1350c:	48 89 85 40 fa ff ff 	mov    %rax,-0x5c0(%rbp)
   13513:	48 8d 05 e6 da 00 00 	lea    0xdae6(%rip),%rax        # 21000 <g_417>
   1351a:	48 89 85 48 fa ff ff 	mov    %rax,-0x5b8(%rbp)
   13521:	48 8d 05 d8 da 00 00 	lea    0xdad8(%rip),%rax        # 21000 <g_417>
   13528:	48 89 85 50 fa ff ff 	mov    %rax,-0x5b0(%rbp)
   1352f:	48 8d 85 f0 ed ff ff 	lea    -0x1210(%rbp),%rax
   13536:	48 89 85 58 fa ff ff 	mov    %rax,-0x5a8(%rbp)
   1353d:	48 8d 05 bc da 00 00 	lea    0xdabc(%rip),%rax        # 21000 <g_417>
   13544:	48 89 85 60 fa ff ff 	mov    %rax,-0x5a0(%rbp)
   1354b:	48 8d 05 ae da 00 00 	lea    0xdaae(%rip),%rax        # 21000 <g_417>
   13552:	48 89 85 68 fa ff ff 	mov    %rax,-0x598(%rbp)
   13559:	48 c7 85 70 fa ff ff 	movq   $0x0,-0x590(%rbp)
   13560:	00 00 00 00 
   13564:	48 8d 05 95 da 00 00 	lea    0xda95(%rip),%rax        # 21000 <g_417>
   1356b:	48 89 85 78 fa ff ff 	mov    %rax,-0x588(%rbp)
   13572:	48 8d 85 f0 ed ff ff 	lea    -0x1210(%rbp),%rax
   13579:	48 89 85 80 fa ff ff 	mov    %rax,-0x580(%rbp)
   13580:	48 8d 85 f0 ed ff ff 	lea    -0x1210(%rbp),%rax
   13587:	48 89 85 88 fa ff ff 	mov    %rax,-0x578(%rbp)
   1358e:	48 8d 05 6b da 00 00 	lea    0xda6b(%rip),%rax        # 21000 <g_417>
   13595:	48 89 85 90 fa ff ff 	mov    %rax,-0x570(%rbp)
   1359c:	48 c7 85 98 fa ff ff 	movq   $0x0,-0x568(%rbp)
   135a3:	00 00 00 00 
   135a7:	48 8d 05 52 da 00 00 	lea    0xda52(%rip),%rax        # 21000 <g_417>
   135ae:	48 89 85 a0 fa ff ff 	mov    %rax,-0x560(%rbp)
   135b5:	48 c7 85 a8 fa ff ff 	movq   $0x0,-0x558(%rbp)
   135bc:	00 00 00 00 
   135c0:	48 8d 85 f0 ed ff ff 	lea    -0x1210(%rbp),%rax
   135c7:	48 89 85 b0 fa ff ff 	mov    %rax,-0x550(%rbp)
   135ce:	48 8d 85 f0 ed ff ff 	lea    -0x1210(%rbp),%rax
   135d5:	48 89 85 b8 fa ff ff 	mov    %rax,-0x548(%rbp)
   135dc:	48 8d 05 1d da 00 00 	lea    0xda1d(%rip),%rax        # 21000 <g_417>
   135e3:	48 89 85 c0 fa ff ff 	mov    %rax,-0x540(%rbp)
   135ea:	48 c7 85 c8 fa ff ff 	movq   $0x0,-0x538(%rbp)
   135f1:	00 00 00 00 
   135f5:	48 8d 85 f0 ed ff ff 	lea    -0x1210(%rbp),%rax
   135fc:	48 89 85 d0 fa ff ff 	mov    %rax,-0x530(%rbp)
   13603:	48 c7 85 d8 fa ff ff 	movq   $0x0,-0x528(%rbp)
   1360a:	00 00 00 00 
   1360e:	48 8d 85 f0 ed ff ff 	lea    -0x1210(%rbp),%rax
   13615:	48 89 85 e0 fa ff ff 	mov    %rax,-0x520(%rbp)
   1361c:	48 8d 05 dd d9 00 00 	lea    0xd9dd(%rip),%rax        # 21000 <g_417>
   13623:	48 89 85 e8 fa ff ff 	mov    %rax,-0x518(%rbp)
   1362a:	48 c7 85 f0 fa ff ff 	movq   $0x0,-0x510(%rbp)
   13631:	00 00 00 00 
   13635:	48 8d 05 c4 d9 00 00 	lea    0xd9c4(%rip),%rax        # 21000 <g_417>
   1363c:	48 89 85 f8 fa ff ff 	mov    %rax,-0x508(%rbp)
   13643:	48 c7 85 00 fb ff ff 	movq   $0x0,-0x500(%rbp)
   1364a:	00 00 00 00 
   1364e:	48 8d 85 f0 ed ff ff 	lea    -0x1210(%rbp),%rax
   13655:	48 89 85 08 fb ff ff 	mov    %rax,-0x4f8(%rbp)
   1365c:	48 c7 85 10 fb ff ff 	movq   $0x0,-0x4f0(%rbp)
   13663:	00 00 00 00 
   13667:	48 c7 85 18 fb ff ff 	movq   $0x0,-0x4e8(%rbp)
   1366e:	00 00 00 00 
   13672:	48 8d 85 f0 ed ff ff 	lea    -0x1210(%rbp),%rax
   13679:	48 89 85 20 fb ff ff 	mov    %rax,-0x4e0(%rbp)
   13680:	48 8d 05 79 d9 00 00 	lea    0xd979(%rip),%rax        # 21000 <g_417>
   13687:	48 89 85 28 fb ff ff 	mov    %rax,-0x4d8(%rbp)
   1368e:	48 8d 85 f0 ed ff ff 	lea    -0x1210(%rbp),%rax
   13695:	48 89 85 30 fb ff ff 	mov    %rax,-0x4d0(%rbp)
   1369c:	48 8d 85 f0 ed ff ff 	lea    -0x1210(%rbp),%rax
   136a3:	48 89 85 38 fb ff ff 	mov    %rax,-0x4c8(%rbp)
   136aa:	48 8d 05 4f d9 00 00 	lea    0xd94f(%rip),%rax        # 21000 <g_417>
   136b1:	48 89 85 40 fb ff ff 	mov    %rax,-0x4c0(%rbp)
   136b8:	48 8d 85 f0 ed ff ff 	lea    -0x1210(%rbp),%rax
   136bf:	48 89 85 48 fb ff ff 	mov    %rax,-0x4b8(%rbp)
   136c6:	48 8d 85 f0 ed ff ff 	lea    -0x1210(%rbp),%rax
   136cd:	48 89 85 50 fb ff ff 	mov    %rax,-0x4b0(%rbp)
   136d4:	48 8d 05 25 d9 00 00 	lea    0xd925(%rip),%rax        # 21000 <g_417>
   136db:	48 89 85 58 fb ff ff 	mov    %rax,-0x4a8(%rbp)
   136e2:	48 8d 05 17 d9 00 00 	lea    0xd917(%rip),%rax        # 21000 <g_417>
   136e9:	48 89 85 60 fb ff ff 	mov    %rax,-0x4a0(%rbp)
   136f0:	48 8d 85 f0 ed ff ff 	lea    -0x1210(%rbp),%rax
   136f7:	48 89 85 68 fb ff ff 	mov    %rax,-0x498(%rbp)
   136fe:	48 8d 05 fb d8 00 00 	lea    0xd8fb(%rip),%rax        # 21000 <g_417>
   13705:	48 89 85 70 fb ff ff 	mov    %rax,-0x490(%rbp)
   1370c:	48 8d 85 f0 ed ff ff 	lea    -0x1210(%rbp),%rax
   13713:	48 89 85 78 fb ff ff 	mov    %rax,-0x488(%rbp)
   1371a:	48 8d 85 f0 ed ff ff 	lea    -0x1210(%rbp),%rax
   13721:	48 89 85 80 fb ff ff 	mov    %rax,-0x480(%rbp)
   13728:	48 8d 85 f0 ed ff ff 	lea    -0x1210(%rbp),%rax
   1372f:	48 89 85 88 fb ff ff 	mov    %rax,-0x478(%rbp)
   13736:	48 8d 05 c3 d8 00 00 	lea    0xd8c3(%rip),%rax        # 21000 <g_417>
   1373d:	48 89 85 90 fb ff ff 	mov    %rax,-0x470(%rbp)
   13744:	48 c7 85 98 fb ff ff 	movq   $0x0,-0x468(%rbp)
   1374b:	00 00 00 00 
   1374f:	48 8d 05 aa d8 00 00 	lea    0xd8aa(%rip),%rax        # 21000 <g_417>
   13756:	48 89 85 a0 fb ff ff 	mov    %rax,-0x460(%rbp)
   1375d:	48 c7 85 a8 fb ff ff 	movq   $0x0,-0x458(%rbp)
   13764:	00 00 00 00 
   13768:	48 8d 05 91 d8 00 00 	lea    0xd891(%rip),%rax        # 21000 <g_417>
   1376f:	48 89 85 b0 fb ff ff 	mov    %rax,-0x450(%rbp)
   13776:	48 8d 05 83 d8 00 00 	lea    0xd883(%rip),%rax        # 21000 <g_417>
   1377d:	48 89 85 b8 fb ff ff 	mov    %rax,-0x448(%rbp)
   13784:	48 8d 05 75 d8 00 00 	lea    0xd875(%rip),%rax        # 21000 <g_417>
   1378b:	48 89 85 c0 fb ff ff 	mov    %rax,-0x440(%rbp)
   13792:	48 8d 05 67 d8 00 00 	lea    0xd867(%rip),%rax        # 21000 <g_417>
   13799:	48 89 85 c8 fb ff ff 	mov    %rax,-0x438(%rbp)
   137a0:	48 8d 85 f0 ed ff ff 	lea    -0x1210(%rbp),%rax
   137a7:	48 89 85 d0 fb ff ff 	mov    %rax,-0x430(%rbp)
   137ae:	48 8d 85 f0 ed ff ff 	lea    -0x1210(%rbp),%rax
   137b5:	48 89 85 d8 fb ff ff 	mov    %rax,-0x428(%rbp)
   137bc:	48 c7 85 e0 fb ff ff 	movq   $0x0,-0x420(%rbp)
   137c3:	00 00 00 00 
   137c7:	48 c7 85 e8 fb ff ff 	movq   $0x0,-0x418(%rbp)
   137ce:	00 00 00 00 
   137d2:	48 8d 85 f0 ed ff ff 	lea    -0x1210(%rbp),%rax
   137d9:	48 89 85 f0 fb ff ff 	mov    %rax,-0x410(%rbp)
   137e0:	48 8d 85 f0 ed ff ff 	lea    -0x1210(%rbp),%rax
   137e7:	48 89 85 f8 fb ff ff 	mov    %rax,-0x408(%rbp)
   137ee:	48 8d 05 0b d8 00 00 	lea    0xd80b(%rip),%rax        # 21000 <g_417>
   137f5:	48 89 85 00 fc ff ff 	mov    %rax,-0x400(%rbp)
   137fc:	48 8d 85 f0 ed ff ff 	lea    -0x1210(%rbp),%rax
   13803:	48 89 85 08 fc ff ff 	mov    %rax,-0x3f8(%rbp)
   1380a:	48 8d 85 f0 ed ff ff 	lea    -0x1210(%rbp),%rax
   13811:	48 89 85 10 fc ff ff 	mov    %rax,-0x3f0(%rbp)
   13818:	48 c7 85 18 fc ff ff 	movq   $0x0,-0x3e8(%rbp)
   1381f:	00 00 00 00 
   13823:	48 c7 85 20 fc ff ff 	movq   $0x0,-0x3e0(%rbp)
   1382a:	00 00 00 00 
   1382e:	48 8d 85 f0 ed ff ff 	lea    -0x1210(%rbp),%rax
   13835:	48 89 85 28 fc ff ff 	mov    %rax,-0x3d8(%rbp)
   1383c:	48 8d 05 bd d7 00 00 	lea    0xd7bd(%rip),%rax        # 21000 <g_417>
   13843:	48 89 85 30 fc ff ff 	mov    %rax,-0x3d0(%rbp)
   1384a:	48 8d 05 af d7 00 00 	lea    0xd7af(%rip),%rax        # 21000 <g_417>
   13851:	48 89 85 38 fc ff ff 	mov    %rax,-0x3c8(%rbp)
   13858:	48 8d 05 a1 d7 00 00 	lea    0xd7a1(%rip),%rax        # 21000 <g_417>
   1385f:	48 89 85 40 fc ff ff 	mov    %rax,-0x3c0(%rbp)
   13866:	48 8d 05 93 d7 00 00 	lea    0xd793(%rip),%rax        # 21000 <g_417>
   1386d:	48 89 85 48 fc ff ff 	mov    %rax,-0x3b8(%rbp)
   13874:	48 c7 85 50 fc ff ff 	movq   $0x0,-0x3b0(%rbp)
   1387b:	00 00 00 00 
   1387f:	48 8d 05 7a d7 00 00 	lea    0xd77a(%rip),%rax        # 21000 <g_417>
   13886:	48 89 85 58 fc ff ff 	mov    %rax,-0x3a8(%rbp)
   1388d:	48 8d 85 f0 ed ff ff 	lea    -0x1210(%rbp),%rax
   13894:	48 89 85 60 fc ff ff 	mov    %rax,-0x3a0(%rbp)
   1389b:	48 8d 05 5e d7 00 00 	lea    0xd75e(%rip),%rax        # 21000 <g_417>
   138a2:	48 89 85 68 fc ff ff 	mov    %rax,-0x398(%rbp)
   138a9:	48 8d 05 50 d7 00 00 	lea    0xd750(%rip),%rax        # 21000 <g_417>
   138b0:	48 89 85 70 fc ff ff 	mov    %rax,-0x390(%rbp)
   138b7:	48 8d 05 42 d7 00 00 	lea    0xd742(%rip),%rax        # 21000 <g_417>
   138be:	48 89 85 78 fc ff ff 	mov    %rax,-0x388(%rbp)
   138c5:	48 8d 05 34 d7 00 00 	lea    0xd734(%rip),%rax        # 21000 <g_417>
   138cc:	48 89 85 80 fc ff ff 	mov    %rax,-0x380(%rbp)
   138d3:	48 8d 05 26 d7 00 00 	lea    0xd726(%rip),%rax        # 21000 <g_417>
   138da:	48 89 85 88 fc ff ff 	mov    %rax,-0x378(%rbp)
   138e1:	48 c7 85 90 fc ff ff 	movq   $0x0,-0x370(%rbp)
   138e8:	00 00 00 00 
   138ec:	48 c7 85 98 fc ff ff 	movq   $0x0,-0x368(%rbp)
   138f3:	00 00 00 00 
   138f7:	48 8d 85 f0 ed ff ff 	lea    -0x1210(%rbp),%rax
   138fe:	48 89 85 a0 fc ff ff 	mov    %rax,-0x360(%rbp)
   13905:	48 8d 85 f0 ed ff ff 	lea    -0x1210(%rbp),%rax
   1390c:	48 89 85 a8 fc ff ff 	mov    %rax,-0x358(%rbp)
   13913:	48 8d 05 e6 d6 00 00 	lea    0xd6e6(%rip),%rax        # 21000 <g_417>
   1391a:	48 89 85 b0 fc ff ff 	mov    %rax,-0x350(%rbp)
   13921:	48 8d 85 f0 ed ff ff 	lea    -0x1210(%rbp),%rax
   13928:	48 89 85 b8 fc ff ff 	mov    %rax,-0x348(%rbp)
   1392f:	48 8d 85 f0 ed ff ff 	lea    -0x1210(%rbp),%rax
   13936:	48 89 85 c0 fc ff ff 	mov    %rax,-0x340(%rbp)
   1393d:	48 c7 85 c8 fc ff ff 	movq   $0x0,-0x338(%rbp)
   13944:	00 00 00 00 
   13948:	48 c7 85 d0 fc ff ff 	movq   $0x0,-0x330(%rbp)
   1394f:	00 00 00 00 
   13953:	48 8d 85 f0 ed ff ff 	lea    -0x1210(%rbp),%rax
   1395a:	48 89 85 d8 fc ff ff 	mov    %rax,-0x328(%rbp)
   13961:	48 8d 85 f0 ed ff ff 	lea    -0x1210(%rbp),%rax
   13968:	48 89 85 e0 fc ff ff 	mov    %rax,-0x320(%rbp)
   1396f:	48 8d 05 8a d6 00 00 	lea    0xd68a(%rip),%rax        # 21000 <g_417>
   13976:	48 89 85 e8 fc ff ff 	mov    %rax,-0x318(%rbp)
   1397d:	48 8d 05 7c d6 00 00 	lea    0xd67c(%rip),%rax        # 21000 <g_417>
   13984:	48 89 85 f0 fc ff ff 	mov    %rax,-0x310(%rbp)
   1398b:	48 c7 85 f8 fc ff ff 	movq   $0x0,-0x308(%rbp)
   13992:	00 00 00 00 
   13996:	48 8d 05 63 d6 00 00 	lea    0xd663(%rip),%rax        # 21000 <g_417>
   1399d:	48 89 85 00 fd ff ff 	mov    %rax,-0x300(%rbp)
   139a4:	48 8d 85 f0 ed ff ff 	lea    -0x1210(%rbp),%rax
   139ab:	48 89 85 08 fd ff ff 	mov    %rax,-0x2f8(%rbp)
   139b2:	48 8d 05 47 d6 00 00 	lea    0xd647(%rip),%rax        # 21000 <g_417>
   139b9:	48 89 85 10 fd ff ff 	mov    %rax,-0x2f0(%rbp)
   139c0:	48 c7 85 18 fd ff ff 	movq   $0x0,-0x2e8(%rbp)
   139c7:	00 00 00 00 
   139cb:	48 8d 05 2e d6 00 00 	lea    0xd62e(%rip),%rax        # 21000 <g_417>
   139d2:	48 89 85 20 fd ff ff 	mov    %rax,-0x2e0(%rbp)
   139d9:	48 8d 85 f0 ed ff ff 	lea    -0x1210(%rbp),%rax
   139e0:	48 89 85 28 fd ff ff 	mov    %rax,-0x2d8(%rbp)
   139e7:	48 c7 85 30 fd ff ff 	movq   $0x0,-0x2d0(%rbp)
   139ee:	00 00 00 00 
   139f2:	48 8d 85 f0 ed ff ff 	lea    -0x1210(%rbp),%rax
   139f9:	48 89 85 38 fd ff ff 	mov    %rax,-0x2c8(%rbp)
   13a00:	48 8d 85 f0 ed ff ff 	lea    -0x1210(%rbp),%rax
   13a07:	48 89 85 40 fd ff ff 	mov    %rax,-0x2c0(%rbp)
   13a0e:	48 8d 85 f0 ed ff ff 	lea    -0x1210(%rbp),%rax
   13a15:	48 89 85 48 fd ff ff 	mov    %rax,-0x2b8(%rbp)
   13a1c:	48 8d 05 dd d5 00 00 	lea    0xd5dd(%rip),%rax        # 21000 <g_417>
   13a23:	48 89 85 50 fd ff ff 	mov    %rax,-0x2b0(%rbp)
   13a2a:	48 8d 05 cf d5 00 00 	lea    0xd5cf(%rip),%rax        # 21000 <g_417>
   13a31:	48 89 85 58 fd ff ff 	mov    %rax,-0x2a8(%rbp)
   13a38:	48 8d 85 f0 ed ff ff 	lea    -0x1210(%rbp),%rax
   13a3f:	48 89 85 60 fd ff ff 	mov    %rax,-0x2a0(%rbp)
   13a46:	48 8d 05 b3 d5 00 00 	lea    0xd5b3(%rip),%rax        # 21000 <g_417>
   13a4d:	48 89 85 68 fd ff ff 	mov    %rax,-0x298(%rbp)
   13a54:	48 8d 05 a5 d5 00 00 	lea    0xd5a5(%rip),%rax        # 21000 <g_417>
   13a5b:	48 89 85 70 fd ff ff 	mov    %rax,-0x290(%rbp)
   13a62:	48 8d 85 f0 ed ff ff 	lea    -0x1210(%rbp),%rax
   13a69:	48 89 85 78 fd ff ff 	mov    %rax,-0x288(%rbp)
   13a70:	48 8d 85 f0 ed ff ff 	lea    -0x1210(%rbp),%rax
   13a77:	48 89 85 80 fd ff ff 	mov    %rax,-0x280(%rbp)
   13a7e:	48 8d 05 7b d5 00 00 	lea    0xd57b(%rip),%rax        # 21000 <g_417>
   13a85:	48 89 85 88 fd ff ff 	mov    %rax,-0x278(%rbp)
   13a8c:	48 8d 85 f0 ed ff ff 	lea    -0x1210(%rbp),%rax
   13a93:	48 89 85 90 fd ff ff 	mov    %rax,-0x270(%rbp)
   13a9a:	48 c7 85 98 fd ff ff 	movq   $0x0,-0x268(%rbp)
   13aa1:	00 00 00 00 
   13aa5:	48 8d 85 f0 ed ff ff 	lea    -0x1210(%rbp),%rax
   13aac:	48 89 85 a0 fd ff ff 	mov    %rax,-0x260(%rbp)
   13ab3:	48 8d 85 f0 ed ff ff 	lea    -0x1210(%rbp),%rax
   13aba:	48 89 85 a8 fd ff ff 	mov    %rax,-0x258(%rbp)
   13ac1:	48 8d 05 38 d5 00 00 	lea    0xd538(%rip),%rax        # 21000 <g_417>
   13ac8:	48 89 85 b0 fd ff ff 	mov    %rax,-0x250(%rbp)
   13acf:	48 8d 05 2a d5 00 00 	lea    0xd52a(%rip),%rax        # 21000 <g_417>
   13ad6:	48 89 85 b8 fd ff ff 	mov    %rax,-0x248(%rbp)
   13add:	48 c7 85 c0 fd ff ff 	movq   $0x0,-0x240(%rbp)
   13ae4:	00 00 00 00 
   13ae8:	48 8d 05 11 d5 00 00 	lea    0xd511(%rip),%rax        # 21000 <g_417>
   13aef:	48 89 85 c8 fd ff ff 	mov    %rax,-0x238(%rbp)
   13af6:	48 8d 85 f0 ed ff ff 	lea    -0x1210(%rbp),%rax
   13afd:	48 89 85 d0 fd ff ff 	mov    %rax,-0x230(%rbp)
   13b04:	48 8d 85 f0 ed ff ff 	lea    -0x1210(%rbp),%rax
   13b0b:	48 89 85 d8 fd ff ff 	mov    %rax,-0x228(%rbp)
   13b12:	48 8d 85 f0 ed ff ff 	lea    -0x1210(%rbp),%rax
   13b19:	48 89 85 e0 fd ff ff 	mov    %rax,-0x220(%rbp)
   13b20:	48 8d 85 f0 ed ff ff 	lea    -0x1210(%rbp),%rax
   13b27:	48 89 85 e8 fd ff ff 	mov    %rax,-0x218(%rbp)
   13b2e:	c7 85 88 ed ff ff a4 	movl   $0x7530faa4,-0x1278(%rbp)
   13b35:	fa 30 75 
   13b38:	48 8b 05 11 aa 00 00 	mov    0xaa11(%rip),%rax        # 1e550 <g_285>
   13b3f:	48 8d 15 e2 94 00 00 	lea    0x94e2(%rip),%rdx        # 1d028 <g_25>
   13b46:	48 89 10             	mov    %rdx,(%rax)
   13b49:	66 c7 05 56 97 00 00 	movw   $0x4,0x9756(%rip)        # 1d2a8 <g_241>
   13b50:	04 00 
   13b52:	90                   	nop
   13b53:	0f b7 05 4e 97 00 00 	movzwl 0x974e(%rip),%eax        # 1d2a8 <g_241>
   13b5a:	66 85 c0             	test   %ax,%ax
   13b5d:	0f 88 76 01 00 00    	js     13cd9 <func_46+0x343d>
   13b63:	48 8d 05 56 a9 00 00 	lea    0xa956(%rip),%rax        # 1e4c0 <g_62+0xc0>
   13b6a:	48 89 85 c0 f0 ff ff 	mov    %rax,-0xf40(%rbp)
   13b71:	c7 85 38 ed ff ff 00 	movl   $0x0,-0x12c8(%rbp)
   13b78:	00 00 00 
   13b7b:	eb 1e                	jmp    13b9b <func_46+0x32ff>
   13b7d:	8b 85 38 ed ff ff    	mov    -0x12c8(%rbp),%eax
   13b83:	48 98                	cltq   
   13b85:	48 8d 95 30 ed ff ff 	lea    -0x12d0(%rbp),%rdx
   13b8c:	48 89 94 c5 e0 f1 ff 	mov    %rdx,-0xe20(%rbp,%rax,8)
   13b93:	ff 
   13b94:	83 85 38 ed ff ff 01 	addl   $0x1,-0x12c8(%rbp)
   13b9b:	83 bd 38 ed ff ff 01 	cmpl   $0x1,-0x12c8(%rbp)
   13ba2:	7e d9                	jle    13b7d <func_46+0x32e1>
   13ba4:	48 8b 05 95 a9 00 00 	mov    0xa995(%rip),%rax        # 1e540 <g_254>
   13bab:	48 8d 95 80 f1 ff ff 	lea    -0xe80(%rbp),%rdx
   13bb2:	48 89 10             	mov    %rdx,(%rax)
   13bb5:	0f b7 15 ec 96 00 00 	movzwl 0x96ec(%rip),%edx        # 1d2a8 <g_241>
   13bbc:	0f bf d2             	movswl %dx,%edx
   13bbf:	48 8b 0d ea 96 00 00 	mov    0x96ea(%rip),%rcx        # 1d2b0 <g_339>
   13bc6:	48 83 c1 01          	add    $0x1,%rcx
   13bca:	0f b7 35 d7 96 00 00 	movzwl 0x96d7(%rip),%esi        # 1d2a8 <g_241>
   13bd1:	0f bf f6             	movswl %si,%esi
   13bd4:	8d 7e 01             	lea    0x1(%rsi),%edi
   13bd7:	48 8b 30             	mov    (%rax),%rsi
   13bda:	48 63 ff             	movslq %edi,%rdi
   13bdd:	48 63 c2             	movslq %edx,%rax
   13be0:	48 89 c2             	mov    %rax,%rdx
   13be3:	48 01 d2             	add    %rdx,%rdx
   13be6:	48 01 c2             	add    %rax,%rdx
   13be9:	48 89 d0             	mov    %rdx,%rax
   13bec:	48 c1 e0 04          	shl    $0x4,%rax
   13bf0:	48 89 c2             	mov    %rax,%rdx
   13bf3:	48 89 c8             	mov    %rcx,%rax
   13bf6:	48 01 c0             	add    %rax,%rax
   13bf9:	48 01 c8             	add    %rcx,%rax
   13bfc:	48 01 c0             	add    %rax,%rax
   13bff:	48 01 d0             	add    %rdx,%rax
   13c02:	48 01 f8             	add    %rdi,%rax
   13c05:	48 8d 14 c5 00 00 00 	lea    0x0(,%rax,8),%rdx
   13c0c:	00 
   13c0d:	48 8d 05 4c a9 00 00 	lea    0xa94c(%rip),%rax        # 1e560 <g_306>
   13c14:	48 89 34 02          	mov    %rsi,(%rdx,%rax,1)
   13c18:	48 8b 95 f8 ec ff ff 	mov    -0x1308(%rbp),%rdx
   13c1f:	48 8b 85 c0 f0 ff ff 	mov    -0xf40(%rbp),%rax
   13c26:	48 89 10             	mov    %rdx,(%rax)
   13c29:	48 8b 05 b8 b0 00 00 	mov    0xb0b8(%rip),%rax        # 1ece8 <g_315>
   13c30:	48 8b 00             	mov    (%rax),%rax
   13c33:	48 85 c0             	test   %rax,%rax
   13c36:	0f 94 c0             	sete   %al
   13c39:	0f b6 d0             	movzbl %al,%edx
   13c3c:	48 8b 85 e8 ec ff ff 	mov    -0x1318(%rbp),%rax
   13c43:	48 8b 00             	mov    (%rax),%rax
   13c46:	48 89 d6             	mov    %rdx,%rsi
   13c49:	48 89 c7             	mov    %rax,%rdi
   13c4c:	e8 dd 53 ff ff       	callq  902e <safe_add_func_uint64_t_u_u>
   13c51:	48 8b 85 38 fb ff ff 	mov    -0x4c8(%rbp),%rax
   13c58:	48 8d 15 a1 d3 00 00 	lea    0xd3a1(%rip),%rdx        # 21000 <g_417>
   13c5f:	48 39 d0             	cmp    %rdx,%rax
   13c62:	0f 95 c0             	setne  %al
   13c65:	0f b6 d0             	movzbl %al,%edx
   13c68:	48 8b 85 f8 ec ff ff 	mov    -0x1308(%rbp),%rax
   13c6f:	8b 00                	mov    (%rax),%eax
   13c71:	39 c2                	cmp    %eax,%edx
   13c73:	0f 9d c2             	setge  %dl
   13c76:	48 8b 85 d8 ed ff ff 	mov    -0x1228(%rbp),%rax
   13c7d:	0f b6 d2             	movzbl %dl,%edx
   13c80:	89 10                	mov    %edx,(%rax)
   13c82:	48 8b 15 27 96 00 00 	mov    0x9627(%rip),%rdx        # 1d2b0 <g_339>
   13c89:	0f b7 05 18 96 00 00 	movzwl 0x9618(%rip),%eax        # 1d2a8 <g_241>
   13c90:	98                   	cwtl   
   13c91:	48 63 c8             	movslq %eax,%rcx
   13c94:	48 89 d0             	mov    %rdx,%rax
   13c97:	48 c1 e0 03          	shl    $0x3,%rax
   13c9b:	48 29 d0             	sub    %rdx,%rax
   13c9e:	48 01 c8             	add    %rcx,%rax
   13ca1:	48 8d 14 85 00 00 00 	lea    0x0(,%rax,4),%rdx
   13ca8:	00 
   13ca9:	48 8d 05 10 95 00 00 	lea    0x9510(%rip),%rax        # 1d1c0 <g_190>
   13cb0:	8b 04 02             	mov    (%rdx,%rax,1),%eax
   13cb3:	85 c0                	test   %eax,%eax
   13cb5:	0f 94 c0             	sete   %al
   13cb8:	0f b6 c0             	movzbl %al,%eax
   13cbb:	89 85 88 ed ff ff    	mov    %eax,-0x1278(%rbp)
   13cc1:	8b 85 88 ed ff ff    	mov    -0x1278(%rbp),%eax
   13cc7:	89 85 28 ed ff ff    	mov    %eax,-0x12d8(%rbp)
   13ccd:	48 8b 85 f8 ec ff ff 	mov    -0x1308(%rbp),%rax
   13cd4:	e9 e7 29 00 00       	jmpq   166c0 <func_46+0x5e24>
   13cd9:	48 8b 05 c0 95 00 00 	mov    0x95c0(%rip),%rax        # 1d2a0 <g_209>
   13ce0:	48 83 c0 01          	add    $0x1,%rax
   13ce4:	48 89 05 b5 95 00 00 	mov    %rax,0x95b5(%rip)        # 1d2a0 <g_209>
   13ceb:	48 8b 05 ae 95 00 00 	mov    0x95ae(%rip),%rax        # 1d2a0 <g_209>
   13cf2:	48 83 f8 06          	cmp    $0x6,%rax
   13cf6:	0f 86 ff f3 ff ff    	jbe    130fb <func_46+0x285f>
   13cfc:	eb 39                	jmp    13d37 <func_46+0x349b>
   13cfe:	c7 85 4c ed ff ff 01 	movl   $0x1,-0x12b4(%rbp)
   13d05:	00 00 00 
   13d08:	eb 18                	jmp    13d22 <func_46+0x3486>
   13d0a:	0f b7 05 97 95 00 00 	movzwl 0x9597(%rip),%eax        # 1d2a8 <g_241>
   13d11:	66 85 c0             	test   %ax,%ax
   13d14:	74 05                	je     13d1b <func_46+0x347f>
   13d16:	e9 7f d0 ff ff       	jmpq   10d9a <func_46+0x4fe>
   13d1b:	83 85 4c ed ff ff 01 	addl   $0x1,-0x12b4(%rbp)
   13d22:	83 bd 4c ed ff ff 06 	cmpl   $0x6,-0x12b4(%rbp)
   13d29:	76 df                	jbe    13d0a <func_46+0x346e>
   13d2b:	48 8b 85 f8 ec ff ff 	mov    -0x1308(%rbp),%rax
   13d32:	e9 89 29 00 00       	jmpq   166c0 <func_46+0x5e24>
   13d37:	c6 05 a2 d2 00 00 00 	movb   $0x0,0xd2a2(%rip)        # 20fe0 <g_247>
   13d3e:	e9 d9 06 00 00       	jmpq   1441c <func_46+0x3b80>
   13d43:	48 8d 05 6e 95 00 00 	lea    0x956e(%rip),%rax        # 1d2b8 <g_375>
   13d4a:	48 89 85 40 f0 ff ff 	mov    %rax,-0xfc0(%rbp)
   13d51:	48 8d 85 50 f5 ff ff 	lea    -0xab0(%rbp),%rax
   13d58:	48 05 b0 00 00 00    	add    $0xb0,%rax
   13d5e:	48 89 85 48 f0 ff ff 	mov    %rax,-0xfb8(%rbp)
   13d65:	0f b6 05 74 d2 00 00 	movzbl 0xd274(%rip),%eax        # 20fe0 <g_247>
   13d6c:	0f be c0             	movsbl %al,%eax
   13d6f:	8d 50 02             	lea    0x2(%rax),%edx
   13d72:	0f b6 05 67 d2 00 00 	movzbl 0xd267(%rip),%eax        # 20fe0 <g_247>
   13d79:	0f be c0             	movsbl %al,%eax
   13d7c:	83 c0 01             	add    $0x1,%eax
   13d7f:	48 98                	cltq   
   13d81:	48 63 d2             	movslq %edx,%rdx
   13d84:	48 01 d2             	add    %rdx,%rdx
   13d87:	48 01 d0             	add    %rdx,%rax
   13d8a:	c7 84 85 20 f2 ff ff 	movl   $0x8,-0xde0(%rbp,%rax,4)
   13d91:	08 00 00 00 
   13d95:	48 c7 05 00 95 00 00 	movq   $0x0,0x9500(%rip)        # 1d2a0 <g_209>
   13d9c:	00 00 00 00 
   13da0:	e9 57 06 00 00       	jmpq   143fc <func_46+0x3b60>
   13da5:	48 c7 85 50 f0 ff ff 	movq   $0x0,-0xfb0(%rbp)
   13dac:	00 00 00 00 
   13db0:	48 8b 05 69 a7 00 00 	mov    0xa769(%rip),%rax        # 1e520 <g_131>
   13db7:	48 8b 10             	mov    (%rax),%rdx
   13dba:	48 8d 4a ff          	lea    -0x1(%rdx),%rcx
   13dbe:	48 89 08             	mov    %rcx,(%rax)
   13dc1:	41 89 d4             	mov    %edx,%r12d
   13dc4:	0f b6 05 15 d2 00 00 	movzbl 0xd215(%rip),%eax        # 20fe0 <g_247>
   13dcb:	0f be c0             	movsbl %al,%eax
   13dce:	0f b6 15 0b d2 00 00 	movzbl 0xd20b(%rip),%edx        # 20fe0 <g_247>
   13dd5:	0f be d2             	movsbl %dl,%edx
   13dd8:	48 63 d2             	movslq %edx,%rdx
   13ddb:	48 98                	cltq   
   13ddd:	48 01 d0             	add    %rdx,%rax
   13de0:	8b 84 85 80 f1 ff ff 	mov    -0xe80(%rbp,%rax,4),%eax
   13de7:	48 63 d8             	movslq %eax,%rbx
   13dea:	48 bf 38 53 4f 88 74 	movabs $0x4ae974884f5338,%rdi
   13df1:	e9 4a 00 
   13df4:	e8 1d 4a ff ff       	callq  8816 <safe_unary_minus_func_int64_t_s>
   13df9:	48 39 c3             	cmp    %rax,%rbx
   13dfc:	0f 9e c0             	setle  %al
   13dff:	0f b6 c0             	movzbl %al,%eax
   13e02:	44 89 e2             	mov    %r12d,%edx
   13e05:	09 c2                	or     %eax,%edx
   13e07:	48 8b 85 d8 ed ff ff 	mov    -0x1228(%rbp),%rax
   13e0e:	89 10                	mov    %edx,(%rax)
   13e10:	48 8b 05 89 94 00 00 	mov    0x9489(%rip),%rax        # 1d2a0 <g_209>
   13e17:	48 8d 50 04          	lea    0x4(%rax),%rdx
   13e1b:	48 8b 05 7e 94 00 00 	mov    0x947e(%rip),%rax        # 1d2a0 <g_209>
   13e22:	48 01 d0             	add    %rdx,%rax
   13e25:	8b 84 85 80 f1 ff ff 	mov    -0xe80(%rbp,%rax,4),%eax
   13e2c:	be ff ff ff ff       	mov    $0xffffffff,%esi
   13e31:	89 c7                	mov    %eax,%edi
   13e33:	e8 7e 47 ff ff       	callq  85b6 <safe_add_func_int32_t_s_s>
   13e38:	48 83 bd e0 ec ff ff 	cmpq   $0x0,-0x1320(%rbp)
   13e3f:	00 
   13e40:	0f 95 c0             	setne  %al
   13e43:	44 0f b6 e0          	movzbl %al,%r12d
   13e47:	8b 85 28 ed ff ff    	mov    -0x12d8(%rbp),%eax
   13e4d:	0f b7 d8             	movzwl %ax,%ebx
   13e50:	48 8b 85 10 ee ff ff 	mov    -0x11f0(%rbp),%rax
   13e57:	48 85 c0             	test   %rax,%rax
   13e5a:	0f 85 a0 00 00 00    	jne    13f00 <func_46+0x3664>
   13e60:	48 8b 85 f8 ec ff ff 	mov    -0x1308(%rbp),%rax
   13e67:	8b 00                	mov    (%rax),%eax
   13e69:	89 c1                	mov    %eax,%ecx
   13e6b:	48 8b 85 60 ee ff ff 	mov    -0x11a0(%rbp),%rax
   13e72:	48 8b 00             	mov    (%rax),%rax
   13e75:	48 8b 95 08 ee ff ff 	mov    -0x11f8(%rbp),%rdx
   13e7c:	48 89 10             	mov    %rdx,(%rax)
   13e7f:	48 8b 00             	mov    (%rax),%rax
   13e82:	48 39 85 50 f0 ff ff 	cmp    %rax,-0xfb0(%rbp)
   13e89:	74 30                	je     13ebb <func_46+0x361f>
   13e8b:	0f b6 05 4e d1 00 00 	movzbl 0xd14e(%rip),%eax        # 20fe0 <g_247>
   13e92:	0f be c0             	movsbl %al,%eax
   13e95:	8d 50 02             	lea    0x2(%rax),%edx
   13e98:	0f b6 05 41 d1 00 00 	movzbl 0xd141(%rip),%eax        # 20fe0 <g_247>
   13e9f:	0f be c0             	movsbl %al,%eax
   13ea2:	83 c0 01             	add    $0x1,%eax
   13ea5:	48 98                	cltq   
   13ea7:	48 63 d2             	movslq %edx,%rdx
   13eaa:	48 01 d2             	add    %rdx,%rdx
   13ead:	48 01 d0             	add    %rdx,%rax
   13eb0:	8b 84 85 20 f2 ff ff 	mov    -0xde0(%rbp,%rax,4),%eax
   13eb7:	85 c0                	test   %eax,%eax
   13eb9:	74 07                	je     13ec2 <func_46+0x3626>
   13ebb:	b8 01 00 00 00       	mov    $0x1,%eax
   13ec0:	eb 05                	jmp    13ec7 <func_46+0x362b>
   13ec2:	b8 00 00 00 00       	mov    $0x0,%eax
   13ec7:	89 ce                	mov    %ecx,%esi
   13ec9:	89 c7                	mov    %eax,%edi
   13ecb:	e8 e8 4f ff ff       	callq  8eb8 <safe_add_func_uint32_t_u_u>
   13ed0:	0f b6 05 09 d1 00 00 	movzbl 0xd109(%rip),%eax        # 20fe0 <g_247>
   13ed7:	0f be c0             	movsbl %al,%eax
   13eda:	8d 50 02             	lea    0x2(%rax),%edx
   13edd:	0f b6 05 fc d0 00 00 	movzbl 0xd0fc(%rip),%eax        # 20fe0 <g_247>
   13ee4:	0f be c0             	movsbl %al,%eax
   13ee7:	83 c0 01             	add    $0x1,%eax
   13eea:	48 98                	cltq   
   13eec:	48 63 d2             	movslq %edx,%rdx
   13eef:	48 01 d2             	add    %rdx,%rdx
   13ef2:	48 01 d0             	add    %rdx,%rax
   13ef5:	8b 84 85 20 f2 ff ff 	mov    -0xde0(%rbp,%rax,4),%eax
   13efc:	85 c0                	test   %eax,%eax
   13efe:	74 07                	je     13f07 <func_46+0x366b>
   13f00:	b8 01 00 00 00       	mov    $0x1,%eax
   13f05:	eb 05                	jmp    13f0c <func_46+0x3670>
   13f07:	b8 00 00 00 00       	mov    $0x0,%eax
   13f0c:	48 98                	cltq   
   13f0e:	48 39 85 e0 ec ff ff 	cmp    %rax,-0x1320(%rbp)
   13f15:	75 0f                	jne    13f26 <func_46+0x368a>
   13f17:	48 8b 85 f0 ec ff ff 	mov    -0x1310(%rbp),%rax
   13f1e:	48 8b 00             	mov    (%rax),%rax
   13f21:	48 85 c0             	test   %rax,%rax
   13f24:	74 0b                	je     13f31 <func_46+0x3695>
   13f26:	48 8b 85 d8 ed ff ff 	mov    -0x1228(%rbp),%rax
   13f2d:	8b 00                	mov    (%rax),%eax
   13f2f:	85 c0                	test   %eax,%eax
   13f31:	89 de                	mov    %ebx,%esi
   13f33:	bf 01 00 00 00       	mov    $0x1,%edi
   13f38:	e8 51 4e ff ff       	callq  8d8e <safe_div_func_uint16_t_u_u>
   13f3d:	0f b7 c0             	movzwl %ax,%eax
   13f40:	be 2e 3b f9 17       	mov    $0x17f93b2e,%esi
   13f45:	89 c7                	mov    %eax,%edi
   13f47:	e8 6a 46 ff ff       	callq  85b6 <safe_add_func_int32_t_s_s>
   13f4c:	41 39 c4             	cmp    %eax,%r12d
   13f4f:	0f 9e c0             	setle  %al
   13f52:	0f b6 d0             	movzbl %al,%edx
   13f55:	8b 85 28 ed ff ff    	mov    -0x12d8(%rbp),%eax
   13f5b:	39 c2                	cmp    %eax,%edx
   13f5d:	0f 9d c0             	setge  %al
   13f60:	0f b6 d0             	movzbl %al,%edx
   13f63:	48 8b 05 36 93 00 00 	mov    0x9336(%rip),%rax        # 1d2a0 <g_209>
   13f6a:	48 8d 48 01          	lea    0x1(%rax),%rcx
   13f6e:	48 8b 05 2b 93 00 00 	mov    0x932b(%rip),%rax        # 1d2a0 <g_209>
   13f75:	48 01 c8             	add    %rcx,%rax
   13f78:	8b 84 85 80 f1 ff ff 	mov    -0xe80(%rbp,%rax,4),%eax
   13f7f:	0f b6 c0             	movzbl %al,%eax
   13f82:	89 d6                	mov    %edx,%esi
   13f84:	89 c7                	mov    %eax,%edi
   13f86:	e8 02 4d ff ff       	callq  8c8d <safe_rshift_func_uint8_t_u_s>
   13f8b:	0f b6 d0             	movzbl %al,%edx
   13f8e:	8b 85 18 ee ff ff    	mov    -0x11e8(%rbp),%eax
   13f94:	21 d0                	and    %edx,%eax
   13f96:	85 c0                	test   %eax,%eax
   13f98:	74 11                	je     13fab <func_46+0x370f>
   13f9a:	8b 85 2c ed ff ff    	mov    -0x12d4(%rbp),%eax
   13fa0:	85 c0                	test   %eax,%eax
   13fa2:	74 07                	je     13fab <func_46+0x370f>
   13fa4:	b8 01 00 00 00       	mov    $0x1,%eax
   13fa9:	eb 05                	jmp    13fb0 <func_46+0x3714>
   13fab:	b8 00 00 00 00       	mov    $0x0,%eax
   13fb0:	48 98                	cltq   
   13fb2:	83 e0 09             	and    $0x9,%eax
   13fb5:	48 83 f8 f9          	cmp    $0xfffffffffffffff9,%rax
   13fb9:	48 c7 85 40 f0 ff ff 	movq   $0x0,-0xfc0(%rbp)
   13fc0:	00 00 00 00 
   13fc4:	48 8b 85 c8 ed ff ff 	mov    -0x1238(%rbp),%rax
   13fcb:	48 8b 95 40 f0 ff ff 	mov    -0xfc0(%rbp),%rdx
   13fd2:	48 89 10             	mov    %rdx,(%rax)
   13fd5:	48 8d 05 4c 90 00 00 	lea    0x904c(%rip),%rax        # 1d028 <g_25>
   13fdc:	48 89 85 58 f0 ff ff 	mov    %rax,-0xfa8(%rbp)
   13fe3:	48 8d 85 34 ed ff ff 	lea    -0x12cc(%rbp),%rax
   13fea:	48 89 85 60 f0 ff ff 	mov    %rax,-0xfa0(%rbp)
   13ff1:	48 c7 85 68 f0 ff ff 	movq   $0x0,-0xf98(%rbp)
   13ff8:	00 00 00 00 
   13ffc:	48 8d 85 80 f1 ff ff 	lea    -0xe80(%rbp),%rax
   14003:	48 89 85 70 f0 ff ff 	mov    %rax,-0xf90(%rbp)
   1400a:	48 8d 85 30 ed ff ff 	lea    -0x12d0(%rbp),%rax
   14011:	48 89 85 78 f0 ff ff 	mov    %rax,-0xf88(%rbp)
   14018:	48 8d 05 79 90 00 00 	lea    0x9079(%rip),%rax        # 1d098 <g_63>
   1401f:	48 89 85 80 f0 ff ff 	mov    %rax,-0xf80(%rbp)
   14026:	48 c7 85 88 f0 ff ff 	movq   $0x0,-0xf78(%rbp)
   1402d:	00 00 00 00 
   14031:	48 8d 85 80 f1 ff ff 	lea    -0xe80(%rbp),%rax
   14038:	48 83 c0 10          	add    $0x10,%rax
   1403c:	48 89 85 90 f0 ff ff 	mov    %rax,-0xf70(%rbp)
   14043:	48 c7 85 98 f0 ff ff 	movq   $0x0,-0xf68(%rbp)
   1404a:	00 00 00 00 
   1404e:	48 8d 85 80 f1 ff ff 	lea    -0xe80(%rbp),%rax
   14055:	48 83 c0 0c          	add    $0xc,%rax
   14059:	48 89 85 a0 f0 ff ff 	mov    %rax,-0xf60(%rbp)
   14060:	48 8b 05 39 92 00 00 	mov    0x9239(%rip),%rax        # 1d2a0 <g_209>
   14067:	48 8d 48 01          	lea    0x1(%rax),%rcx
   1406b:	48 8b 15 2e 92 00 00 	mov    0x922e(%rip),%rdx        # 1d2a0 <g_209>
   14072:	48 8d 85 80 f1 ff ff 	lea    -0xe80(%rbp),%rax
   14079:	48 01 ca             	add    %rcx,%rdx
   1407c:	48 c1 e2 02          	shl    $0x2,%rdx
   14080:	48 01 d0             	add    %rdx,%rax
   14083:	48 89 85 d0 f7 ff ff 	mov    %rax,-0x830(%rbp)
   1408a:	48 8b 05 0f 92 00 00 	mov    0x920f(%rip),%rax        # 1d2a0 <g_209>
   14091:	48 8d 48 01          	lea    0x1(%rax),%rcx
   14095:	48 8b 15 04 92 00 00 	mov    0x9204(%rip),%rdx        # 1d2a0 <g_209>
   1409c:	48 8d 85 80 f1 ff ff 	lea    -0xe80(%rbp),%rax
   140a3:	48 01 ca             	add    %rcx,%rdx
   140a6:	48 c1 e2 02          	shl    $0x2,%rdx
   140aa:	48 01 d0             	add    %rdx,%rax
   140ad:	48 89 85 d8 f7 ff ff 	mov    %rax,-0x828(%rbp)
   140b4:	48 8b 05 e5 91 00 00 	mov    0x91e5(%rip),%rax        # 1d2a0 <g_209>
   140bb:	48 8d 48 01          	lea    0x1(%rax),%rcx
   140bf:	48 8b 15 da 91 00 00 	mov    0x91da(%rip),%rdx        # 1d2a0 <g_209>
   140c6:	48 8d 85 80 f1 ff ff 	lea    -0xe80(%rbp),%rax
   140cd:	48 01 ca             	add    %rcx,%rdx
   140d0:	48 c1 e2 02          	shl    $0x2,%rdx
   140d4:	48 01 d0             	add    %rdx,%rax
   140d7:	48 89 85 e0 f7 ff ff 	mov    %rax,-0x820(%rbp)
   140de:	48 8b 05 bb 91 00 00 	mov    0x91bb(%rip),%rax        # 1d2a0 <g_209>
   140e5:	48 8d 48 01          	lea    0x1(%rax),%rcx
   140e9:	48 8b 15 b0 91 00 00 	mov    0x91b0(%rip),%rdx        # 1d2a0 <g_209>
   140f0:	48 8d 85 80 f1 ff ff 	lea    -0xe80(%rbp),%rax
   140f7:	48 01 ca             	add    %rcx,%rdx
   140fa:	48 c1 e2 02          	shl    $0x2,%rdx
   140fe:	48 01 d0             	add    %rdx,%rax
   14101:	48 89 85 e8 f7 ff ff 	mov    %rax,-0x818(%rbp)
   14108:	48 8b 05 91 91 00 00 	mov    0x9191(%rip),%rax        # 1d2a0 <g_209>
   1410f:	48 8d 48 01          	lea    0x1(%rax),%rcx
   14113:	48 8b 15 86 91 00 00 	mov    0x9186(%rip),%rdx        # 1d2a0 <g_209>
   1411a:	48 8d 85 80 f1 ff ff 	lea    -0xe80(%rbp),%rax
   14121:	48 01 ca             	add    %rcx,%rdx
   14124:	48 c1 e2 02          	shl    $0x2,%rdx
   14128:	48 01 d0             	add    %rdx,%rax
   1412b:	48 89 85 f0 f7 ff ff 	mov    %rax,-0x810(%rbp)
   14132:	48 8b 05 67 91 00 00 	mov    0x9167(%rip),%rax        # 1d2a0 <g_209>
   14139:	48 8d 48 01          	lea    0x1(%rax),%rcx
   1413d:	48 8b 15 5c 91 00 00 	mov    0x915c(%rip),%rdx        # 1d2a0 <g_209>
   14144:	48 8d 85 80 f1 ff ff 	lea    -0xe80(%rbp),%rax
   1414b:	48 01 ca             	add    %rcx,%rdx
   1414e:	48 c1 e2 02          	shl    $0x2,%rdx
   14152:	48 01 d0             	add    %rdx,%rax
   14155:	48 89 85 f8 f7 ff ff 	mov    %rax,-0x808(%rbp)
   1415c:	48 8b 05 3d 91 00 00 	mov    0x913d(%rip),%rax        # 1d2a0 <g_209>
   14163:	48 8d 48 01          	lea    0x1(%rax),%rcx
   14167:	48 8b 15 32 91 00 00 	mov    0x9132(%rip),%rdx        # 1d2a0 <g_209>
   1416e:	48 8d 85 80 f1 ff ff 	lea    -0xe80(%rbp),%rax
   14175:	48 01 ca             	add    %rcx,%rdx
   14178:	48 c1 e2 02          	shl    $0x2,%rdx
   1417c:	48 01 d0             	add    %rdx,%rax
   1417f:	48 89 85 00 f8 ff ff 	mov    %rax,-0x800(%rbp)
   14186:	48 8b 05 13 91 00 00 	mov    0x9113(%rip),%rax        # 1d2a0 <g_209>
   1418d:	48 8d 48 01          	lea    0x1(%rax),%rcx
   14191:	48 8b 15 08 91 00 00 	mov    0x9108(%rip),%rdx        # 1d2a0 <g_209>
   14198:	48 8d 85 80 f1 ff ff 	lea    -0xe80(%rbp),%rax
   1419f:	48 01 ca             	add    %rcx,%rdx
   141a2:	48 c1 e2 02          	shl    $0x2,%rdx
   141a6:	48 01 d0             	add    %rdx,%rax
   141a9:	48 89 85 08 f8 ff ff 	mov    %rax,-0x7f8(%rbp)
   141b0:	48 8b 05 e9 90 00 00 	mov    0x90e9(%rip),%rax        # 1d2a0 <g_209>
   141b7:	48 8d 48 01          	lea    0x1(%rax),%rcx
   141bb:	48 8b 15 de 90 00 00 	mov    0x90de(%rip),%rdx        # 1d2a0 <g_209>
   141c2:	48 8d 85 80 f1 ff ff 	lea    -0xe80(%rbp),%rax
   141c9:	48 01 ca             	add    %rcx,%rdx
   141cc:	48 c1 e2 02          	shl    $0x2,%rdx
   141d0:	48 01 d0             	add    %rdx,%rax
   141d3:	48 89 85 10 f8 ff ff 	mov    %rax,-0x7f0(%rbp)
   141da:	48 8b 05 bf 90 00 00 	mov    0x90bf(%rip),%rax        # 1d2a0 <g_209>
   141e1:	48 8d 48 01          	lea    0x1(%rax),%rcx
   141e5:	48 8b 15 b4 90 00 00 	mov    0x90b4(%rip),%rdx        # 1d2a0 <g_209>
   141ec:	48 8d 85 80 f1 ff ff 	lea    -0xe80(%rbp),%rax
   141f3:	48 01 ca             	add    %rcx,%rdx
   141f6:	48 c1 e2 02          	shl    $0x2,%rdx
   141fa:	48 01 d0             	add    %rdx,%rax
   141fd:	48 89 85 18 f8 ff ff 	mov    %rax,-0x7e8(%rbp)
   14204:	48 8d 85 00 ee ff ff 	lea    -0x1200(%rbp),%rax
   1420b:	48 89 85 28 ee ff ff 	mov    %rax,-0x11d8(%rbp)
   14212:	48 8d 85 28 ee ff ff 	lea    -0x11d8(%rbp),%rax
   14219:	48 89 85 30 f3 ff ff 	mov    %rax,-0xcd0(%rbp)
   14220:	48 8d 85 28 ee ff ff 	lea    -0x11d8(%rbp),%rax
   14227:	48 89 85 38 f3 ff ff 	mov    %rax,-0xcc8(%rbp)
   1422e:	48 8d 85 28 ee ff ff 	lea    -0x11d8(%rbp),%rax
   14235:	48 89 85 40 f3 ff ff 	mov    %rax,-0xcc0(%rbp)
   1423c:	48 8d 85 28 ee ff ff 	lea    -0x11d8(%rbp),%rax
   14243:	48 89 85 48 f3 ff ff 	mov    %rax,-0xcb8(%rbp)
   1424a:	48 c7 85 a8 f0 ff ff 	movq   $0x0,-0xf58(%rbp)
   14251:	00 00 00 00 
   14255:	48 8d 85 30 f3 ff ff 	lea    -0xcd0(%rbp),%rax
   1425c:	48 83 c0 18          	add    $0x18,%rax
   14260:	48 89 85 b0 f0 ff ff 	mov    %rax,-0xf50(%rbp)
   14267:	83 ad 44 ed ff ff 01 	subl   $0x1,-0x12bc(%rbp)
   1426e:	48 83 bd e0 ec ff ff 	cmpq   $0x0,-0x1320(%rbp)
   14275:	00 
   14276:	0f 85 c2 00 00 00    	jne    1433e <func_46+0x3aa2>
   1427c:	48 8b 85 f0 ec ff ff 	mov    -0x1310(%rbp),%rax
   14283:	48 8b 00             	mov    (%rax),%rax
   14286:	48 89 c3             	mov    %rax,%rbx
   14289:	48 8b 85 d0 f1 ff ff 	mov    -0xe30(%rbp),%rax
   14290:	41 89 c4             	mov    %eax,%r12d
   14293:	48 8b 85 e0 ec ff ff 	mov    -0x1320(%rbp),%rax
   1429a:	0f be d0             	movsbl %al,%edx
   1429d:	48 8b 85 30 f3 ff ff 	mov    -0xcd0(%rbp),%rax
   142a4:	48 89 05 a5 ac 00 00 	mov    %rax,0xaca5(%rip)        # 1ef50 <g_547>
   142ab:	48 8b 0d 9e ac 00 00 	mov    0xac9e(%rip),%rcx        # 1ef50 <g_547>
   142b2:	48 8b 85 b0 f0 ff ff 	mov    -0xf50(%rbp),%rax
   142b9:	48 89 08             	mov    %rcx,(%rax)
   142bc:	48 8b 85 b0 f0 ff ff 	mov    -0xf50(%rbp),%rax
   142c3:	48 8b 00             	mov    (%rax),%rax
   142c6:	48 85 c0             	test   %rax,%rax
   142c9:	75 09                	jne    142d4 <func_46+0x3a38>
   142cb:	0f b6 05 7f 8e 00 00 	movzbl 0x8e7f(%rip),%eax        # 1d151 <g_92+0x91>
   142d2:	84 c0                	test   %al,%al
   142d4:	48 8b 05 c5 8f 00 00 	mov    0x8fc5(%rip),%rax        # 1d2a0 <g_209>
   142db:	48 8d 48 04          	lea    0x4(%rax),%rcx
   142df:	48 8b 05 ba 8f 00 00 	mov    0x8fba(%rip),%rax        # 1d2a0 <g_209>
   142e6:	48 01 c8             	add    %rcx,%rax
   142e9:	8b 84 85 80 f1 ff ff 	mov    -0xe80(%rbp,%rax,4),%eax
   142f0:	85 c0                	test   %eax,%eax
   142f2:	0f 94 c0             	sete   %al
   142f5:	0f b6 c0             	movzbl %al,%eax
   142f8:	89 d6                	mov    %edx,%esi
   142fa:	89 c7                	mov    %eax,%edi
   142fc:	e8 30 3f ff ff       	callq  8231 <safe_mod_func_int8_t_s_s>
   14301:	0f be c0             	movsbl %al,%eax
   14304:	be 02 00 00 00       	mov    $0x2,%esi
   14309:	89 c7                	mov    %eax,%edi
   1430b:	e8 de 3f ff ff       	callq  82ee <safe_lshift_func_int8_t_s_u>
   14310:	89 c2                	mov    %eax,%edx
   14312:	48 8b 05 87 8e 00 00 	mov    0x8e87(%rip),%rax        # 1d1a0 <g_132+0x20>
   14319:	09 d0                	or     %edx,%eax
   1431b:	0f be c0             	movsbl %al,%eax
   1431e:	44 89 e6             	mov    %r12d,%esi
   14321:	89 c7                	mov    %eax,%edi
   14323:	e8 c6 3f ff ff       	callq  82ee <safe_lshift_func_int8_t_s_u>
   14328:	48 0f be c0          	movsbq %al,%rax
   1432c:	48 89 de             	mov    %rbx,%rsi
   1432f:	48 89 c7             	mov    %rax,%rdi
   14332:	e8 0a 45 ff ff       	callq  8841 <safe_add_func_int64_t_s_s>
   14337:	b8 00 00 00 00       	mov    $0x0,%eax
   1433c:	eb 05                	jmp    14343 <func_46+0x3aa7>
   1433e:	b8 01 00 00 00       	mov    $0x1,%eax
   14343:	48 98                	cltq   
   14345:	25 24 bc 00 00       	and    $0xbc24,%eax
   1434a:	48 89 c2             	mov    %rax,%rdx
   1434d:	48 8b 85 78 f0 ff ff 	mov    -0xf88(%rbp),%rax
   14354:	8b 00                	mov    (%rax),%eax
   14356:	31 c2                	xor    %eax,%edx
   14358:	48 8b 85 78 f0 ff ff 	mov    -0xf88(%rbp),%rax
   1435f:	89 10                	mov    %edx,(%rax)
   14361:	48 81 bd e0 ec ff ff 	cmpq   $0xc2,-0x1320(%rbp)
   14368:	c2 00 00 00 
   1436c:	0f 9e c0             	setle  %al
   1436f:	0f b6 c0             	movzbl %al,%eax
   14372:	be cd ff ff ff       	mov    $0xffffffcd,%esi
   14377:	89 c7                	mov    %eax,%edi
   14379:	e8 94 3e ff ff       	callq  8212 <safe_mul_func_int8_t_s_s>
   1437e:	0f b6 05 5b cc 00 00 	movzbl 0xcc5b(%rip),%eax        # 20fe0 <g_247>
   14385:	0f be c0             	movsbl %al,%eax
   14388:	8d 50 02             	lea    0x2(%rax),%edx
   1438b:	0f b6 05 4e cc 00 00 	movzbl 0xcc4e(%rip),%eax        # 20fe0 <g_247>
   14392:	0f be c0             	movsbl %al,%eax
   14395:	83 c0 01             	add    $0x1,%eax
   14398:	48 98                	cltq   
   1439a:	48 63 d2             	movslq %edx,%rdx
   1439d:	48 01 d2             	add    %rdx,%rdx
   143a0:	48 01 d0             	add    %rdx,%rax
   143a3:	8b 84 85 20 f2 ff ff 	mov    -0xde0(%rbp,%rax,4),%eax
   143aa:	48 63 d0             	movslq %eax,%rdx
   143ad:	48 8b 85 e8 ec ff ff 	mov    -0x1318(%rbp),%rax
   143b4:	48 8b 00             	mov    (%rax),%rax
   143b7:	48 39 c2             	cmp    %rax,%rdx
   143ba:	0f 95 c0             	setne  %al
   143bd:	0f b6 c0             	movzbl %al,%eax
   143c0:	89 c6                	mov    %eax,%esi
   143c2:	bf 00 00 00 00       	mov    $0x0,%edi
   143c7:	e8 46 3e ff ff       	callq  8212 <safe_mul_func_int8_t_s_s>
   143cc:	0f be d0             	movsbl %al,%edx
   143cf:	48 8b 85 80 f0 ff ff 	mov    -0xf80(%rbp),%rax
   143d6:	89 10                	mov    %edx,(%rax)
   143d8:	48 8b 85 a0 f0 ff ff 	mov    -0xf60(%rbp),%rax
   143df:	8b 10                	mov    (%rax),%edx
   143e1:	48 8b 85 a0 f0 ff ff 	mov    -0xf60(%rbp),%rax
   143e8:	89 10                	mov    %edx,(%rax)
   143ea:	48 8b 05 af 8e 00 00 	mov    0x8eaf(%rip),%rax        # 1d2a0 <g_209>
   143f1:	48 83 c0 01          	add    $0x1,%rax
   143f5:	48 89 05 a4 8e 00 00 	mov    %rax,0x8ea4(%rip)        # 1d2a0 <g_209>
   143fc:	48 8b 05 9d 8e 00 00 	mov    0x8e9d(%rip),%rax        # 1d2a0 <g_209>
   14403:	48 85 c0             	test   %rax,%rax
   14406:	0f 84 99 f9 ff ff    	je     13da5 <func_46+0x3509>
   1440c:	0f b6 05 cd cb 00 00 	movzbl 0xcbcd(%rip),%eax        # 20fe0 <g_247>
   14413:	83 e8 01             	sub    $0x1,%eax
   14416:	88 05 c4 cb 00 00    	mov    %al,0xcbc4(%rip)        # 20fe0 <g_247>
   1441c:	0f b6 05 bd cb 00 00 	movzbl 0xcbbd(%rip),%eax        # 20fe0 <g_247>
   14423:	84 c0                	test   %al,%al
   14425:	0f 89 18 f9 ff ff    	jns    13d43 <func_46+0x34a7>
   1442b:	66 c7 05 76 8e 00 00 	movw   $0xffe8,0x8e76(%rip)        # 1d2aa <g_243>
   14432:	e8 ff 
   14434:	e9 1f 0c 00 00       	jmpq   15058 <func_46+0x47bc>
   14439:	48 8d 85 12 ed ff ff 	lea    -0x12ee(%rbp),%rax
   14440:	48 89 85 48 ef ff ff 	mov    %rax,-0x10b8(%rbp)
   14447:	c6 85 0b ed ff ff 4e 	movb   $0x4e,-0x12f5(%rbp)
   1444e:	c7 85 84 ed ff ff 02 	movl   $0x2,-0x127c(%rbp)
   14455:	00 00 00 
   14458:	48 c7 85 50 ef ff ff 	movq   $0x0,-0x10b0(%rbp)
   1445f:	00 00 00 00 
   14463:	48 8d 85 10 ee ff ff 	lea    -0x11f0(%rbp),%rax
   1446a:	48 89 85 58 ef ff ff 	mov    %rax,-0x10a8(%rbp)
   14471:	48 c7 45 bf 00 00 00 	movq   $0x0,-0x41(%rbp)
   14478:	00 
   14479:	c6 45 c7 00          	movb   $0x0,-0x39(%rbp)
   1447d:	48 8d 85 c0 f2 ff ff 	lea    -0xd40(%rbp),%rax
   14484:	48 89 85 30 f3 ff ff 	mov    %rax,-0xcd0(%rbp)
   1448b:	48 8d 85 c0 f2 ff ff 	lea    -0xd40(%rbp),%rax
   14492:	48 89 85 38 f3 ff ff 	mov    %rax,-0xcc8(%rbp)
   14499:	48 8d 85 c0 f2 ff ff 	lea    -0xd40(%rbp),%rax
   144a0:	48 83 c0 28          	add    $0x28,%rax
   144a4:	48 89 85 40 f3 ff ff 	mov    %rax,-0xcc0(%rbp)
   144ab:	48 8d 85 c0 f2 ff ff 	lea    -0xd40(%rbp),%rax
   144b2:	48 89 85 48 f3 ff ff 	mov    %rax,-0xcb8(%rbp)
   144b9:	48 8d 85 c0 f2 ff ff 	lea    -0xd40(%rbp),%rax
   144c0:	48 89 85 50 f3 ff ff 	mov    %rax,-0xcb0(%rbp)
   144c7:	48 8d 85 c0 f2 ff ff 	lea    -0xd40(%rbp),%rax
   144ce:	48 83 c0 28          	add    $0x28,%rax
   144d2:	48 89 85 58 f3 ff ff 	mov    %rax,-0xca8(%rbp)
   144d9:	48 8d 85 c0 f2 ff ff 	lea    -0xd40(%rbp),%rax
   144e0:	48 89 85 60 f3 ff ff 	mov    %rax,-0xca0(%rbp)
   144e7:	48 8d 85 c0 f2 ff ff 	lea    -0xd40(%rbp),%rax
   144ee:	48 89 85 68 f3 ff ff 	mov    %rax,-0xc98(%rbp)
   144f5:	48 8d 85 c0 f2 ff ff 	lea    -0xd40(%rbp),%rax
   144fc:	48 83 c0 28          	add    $0x28,%rax
   14500:	48 89 85 70 f3 ff ff 	mov    %rax,-0xc90(%rbp)
   14507:	48 8d 85 c0 f2 ff ff 	lea    -0xd40(%rbp),%rax
   1450e:	48 89 85 78 f3 ff ff 	mov    %rax,-0xc88(%rbp)
   14515:	48 c7 85 60 ef ff ff 	movq   $0x0,-0x10a0(%rbp)
   1451c:	00 00 00 00 
   14520:	48 8d 85 c0 f3 ff ff 	lea    -0xc40(%rbp),%rax
   14527:	48 83 c0 5c          	add    $0x5c,%rax
   1452b:	48 89 85 68 ef ff ff 	mov    %rax,-0x1098(%rbp)
   14532:	48 8d 05 5f 8b 00 00 	lea    0x8b5f(%rip),%rax        # 1d098 <g_63>
   14539:	48 89 85 70 ef ff ff 	mov    %rax,-0x1090(%rbp)
   14540:	48 8d 85 80 f1 ff ff 	lea    -0xe80(%rbp),%rax
   14547:	48 89 85 78 ef ff ff 	mov    %rax,-0x1088(%rbp)
   1454e:	48 8d 85 80 f1 ff ff 	lea    -0xe80(%rbp),%rax
   14555:	48 89 85 80 ef ff ff 	mov    %rax,-0x1080(%rbp)
   1455c:	48 8d 85 a0 f1 ff ff 	lea    -0xe60(%rbp),%rax
   14563:	48 89 85 88 ef ff ff 	mov    %rax,-0x1078(%rbp)
   1456a:	48 8d 85 80 f1 ff ff 	lea    -0xe80(%rbp),%rax
   14571:	48 83 c0 0c          	add    $0xc,%rax
   14575:	48 89 85 90 ef ff ff 	mov    %rax,-0x1070(%rbp)
   1457c:	48 8d 85 c0 f3 ff ff 	lea    -0xc40(%rbp),%rax
   14583:	48 83 c0 5c          	add    $0x5c,%rax
   14587:	48 89 85 98 ef ff ff 	mov    %rax,-0x1068(%rbp)
   1458e:	48 8d 85 a0 f1 ff ff 	lea    -0xe60(%rbp),%rax
   14595:	48 83 c0 08          	add    $0x8,%rax
   14599:	48 89 85 a0 ef ff ff 	mov    %rax,-0x1060(%rbp)
   145a0:	48 8d 85 30 ed ff ff 	lea    -0x12d0(%rbp),%rax
   145a7:	48 89 85 d0 f7 ff ff 	mov    %rax,-0x830(%rbp)
   145ae:	48 8d 05 73 8a 00 00 	lea    0x8a73(%rip),%rax        # 1d028 <g_25>
   145b5:	48 89 85 d8 f7 ff ff 	mov    %rax,-0x828(%rbp)
   145bc:	48 8d 85 a0 f1 ff ff 	lea    -0xe60(%rbp),%rax
   145c3:	48 89 85 e0 f7 ff ff 	mov    %rax,-0x820(%rbp)
   145ca:	48 8d 85 24 ed ff ff 	lea    -0x12dc(%rbp),%rax
   145d1:	48 89 85 e8 f7 ff ff 	mov    %rax,-0x818(%rbp)
   145d8:	48 8d 85 a0 f1 ff ff 	lea    -0xe60(%rbp),%rax
   145df:	48 89 85 f0 f7 ff ff 	mov    %rax,-0x810(%rbp)
   145e6:	48 8d 05 3b 8a 00 00 	lea    0x8a3b(%rip),%rax        # 1d028 <g_25>
   145ed:	48 89 85 f8 f7 ff ff 	mov    %rax,-0x808(%rbp)
   145f4:	48 8d 85 30 ed ff ff 	lea    -0x12d0(%rbp),%rax
   145fb:	48 89 85 00 f8 ff ff 	mov    %rax,-0x800(%rbp)
   14602:	48 8d 05 1f 8a 00 00 	lea    0x8a1f(%rip),%rax        # 1d028 <g_25>
   14609:	48 89 85 08 f8 ff ff 	mov    %rax,-0x7f8(%rbp)
   14610:	48 8d 85 30 ed ff ff 	lea    -0x12d0(%rbp),%rax
   14617:	48 89 85 10 f8 ff ff 	mov    %rax,-0x7f0(%rbp)
   1461e:	48 8d 85 24 ed ff ff 	lea    -0x12dc(%rbp),%rax
   14625:	48 89 85 18 f8 ff ff 	mov    %rax,-0x7e8(%rbp)
   1462c:	48 c7 85 20 f8 ff ff 	movq   $0x0,-0x7e0(%rbp)
   14633:	00 00 00 00 
   14637:	48 8d 85 24 ed ff ff 	lea    -0x12dc(%rbp),%rax
   1463e:	48 89 85 28 f8 ff ff 	mov    %rax,-0x7d8(%rbp)
   14645:	48 8d 85 30 ed ff ff 	lea    -0x12d0(%rbp),%rax
   1464c:	48 89 85 30 f8 ff ff 	mov    %rax,-0x7d0(%rbp)
   14653:	48 8d 85 30 ed ff ff 	lea    -0x12d0(%rbp),%rax
   1465a:	48 89 85 38 f8 ff ff 	mov    %rax,-0x7c8(%rbp)
   14661:	48 8d 85 30 ed ff ff 	lea    -0x12d0(%rbp),%rax
   14668:	48 89 85 40 f8 ff ff 	mov    %rax,-0x7c0(%rbp)
   1466f:	48 8d 85 24 ed ff ff 	lea    -0x12dc(%rbp),%rax
   14676:	48 89 85 48 f8 ff ff 	mov    %rax,-0x7b8(%rbp)
   1467d:	48 8d 85 a0 f1 ff ff 	lea    -0xe60(%rbp),%rax
   14684:	48 89 85 50 f8 ff ff 	mov    %rax,-0x7b0(%rbp)
   1468b:	48 8d 85 24 ed ff ff 	lea    -0x12dc(%rbp),%rax
   14692:	48 89 85 58 f8 ff ff 	mov    %rax,-0x7a8(%rbp)
   14699:	48 8d 85 a0 f1 ff ff 	lea    -0xe60(%rbp),%rax
   146a0:	48 89 85 60 f8 ff ff 	mov    %rax,-0x7a0(%rbp)
   146a7:	48 8d 05 7a 89 00 00 	lea    0x897a(%rip),%rax        # 1d028 <g_25>
   146ae:	48 89 85 68 f8 ff ff 	mov    %rax,-0x798(%rbp)
   146b5:	48 8d 85 30 ed ff ff 	lea    -0x12d0(%rbp),%rax
   146bc:	48 89 85 70 f8 ff ff 	mov    %rax,-0x790(%rbp)
   146c3:	48 8d 05 5e 89 00 00 	lea    0x895e(%rip),%rax        # 1d028 <g_25>
   146ca:	48 89 85 78 f8 ff ff 	mov    %rax,-0x788(%rbp)
   146d1:	48 8d 85 a0 f1 ff ff 	lea    -0xe60(%rbp),%rax
   146d8:	48 89 85 80 f8 ff ff 	mov    %rax,-0x780(%rbp)
   146df:	48 8d 85 24 ed ff ff 	lea    -0x12dc(%rbp),%rax
   146e6:	48 89 85 88 f8 ff ff 	mov    %rax,-0x778(%rbp)
   146ed:	48 8d 85 30 ed ff ff 	lea    -0x12d0(%rbp),%rax
   146f4:	48 89 85 90 f8 ff ff 	mov    %rax,-0x770(%rbp)
   146fb:	48 8d 05 26 89 00 00 	lea    0x8926(%rip),%rax        # 1d028 <g_25>
   14702:	48 89 85 98 f8 ff ff 	mov    %rax,-0x768(%rbp)
   14709:	48 8d 85 a0 f1 ff ff 	lea    -0xe60(%rbp),%rax
   14710:	48 89 85 a0 f8 ff ff 	mov    %rax,-0x760(%rbp)
   14717:	48 8d 85 24 ed ff ff 	lea    -0x12dc(%rbp),%rax
   1471e:	48 89 85 a8 f8 ff ff 	mov    %rax,-0x758(%rbp)
   14725:	48 8d 85 a0 f1 ff ff 	lea    -0xe60(%rbp),%rax
   1472c:	48 89 85 b0 f8 ff ff 	mov    %rax,-0x750(%rbp)
   14733:	48 8d 05 ee 88 00 00 	lea    0x88ee(%rip),%rax        # 1d028 <g_25>
   1473a:	48 89 85 b8 f8 ff ff 	mov    %rax,-0x748(%rbp)
   14741:	48 8d 85 30 ed ff ff 	lea    -0x12d0(%rbp),%rax
   14748:	48 89 85 c0 f8 ff ff 	mov    %rax,-0x740(%rbp)
   1474f:	48 8d 05 d2 88 00 00 	lea    0x88d2(%rip),%rax        # 1d028 <g_25>
   14756:	48 89 85 c8 f8 ff ff 	mov    %rax,-0x738(%rbp)
   1475d:	48 8d 85 30 ed ff ff 	lea    -0x12d0(%rbp),%rax
   14764:	48 89 85 d0 f8 ff ff 	mov    %rax,-0x730(%rbp)
   1476b:	48 8d 85 24 ed ff ff 	lea    -0x12dc(%rbp),%rax
   14772:	48 89 85 d8 f8 ff ff 	mov    %rax,-0x728(%rbp)
   14779:	48 c7 85 e0 f8 ff ff 	movq   $0x0,-0x720(%rbp)
   14780:	00 00 00 00 
   14784:	48 8d 85 24 ed ff ff 	lea    -0x12dc(%rbp),%rax
   1478b:	48 89 85 e8 f8 ff ff 	mov    %rax,-0x718(%rbp)
   14792:	48 8d 85 30 ed ff ff 	lea    -0x12d0(%rbp),%rax
   14799:	48 89 85 f0 f8 ff ff 	mov    %rax,-0x710(%rbp)
   147a0:	48 8d 85 30 ed ff ff 	lea    -0x12d0(%rbp),%rax
   147a7:	48 89 85 f8 f8 ff ff 	mov    %rax,-0x708(%rbp)
   147ae:	48 8d 85 a0 f1 ff ff 	lea    -0xe60(%rbp),%rax
   147b5:	48 89 85 00 f9 ff ff 	mov    %rax,-0x700(%rbp)
   147bc:	48 8d 05 65 88 00 00 	lea    0x8865(%rip),%rax        # 1d028 <g_25>
   147c3:	48 89 85 08 f9 ff ff 	mov    %rax,-0x6f8(%rbp)
   147ca:	48 c7 85 10 f9 ff ff 	movq   $0x0,-0x6f0(%rbp)
   147d1:	00 00 00 00 
   147d5:	48 8d 05 4c 88 00 00 	lea    0x884c(%rip),%rax        # 1d028 <g_25>
   147dc:	48 89 85 18 f9 ff ff 	mov    %rax,-0x6e8(%rbp)
   147e3:	48 c7 85 20 f9 ff ff 	movq   $0x0,-0x6e0(%rbp)
   147ea:	00 00 00 00 
   147ee:	48 8d 85 30 ed ff ff 	lea    -0x12d0(%rbp),%rax
   147f5:	48 89 85 28 f9 ff ff 	mov    %rax,-0x6d8(%rbp)
   147fc:	48 8d 85 a0 f1 ff ff 	lea    -0xe60(%rbp),%rax
   14803:	48 89 85 30 f9 ff ff 	mov    %rax,-0x6d0(%rbp)
   1480a:	48 8d 85 30 ed ff ff 	lea    -0x12d0(%rbp),%rax
   14811:	48 89 85 38 f9 ff ff 	mov    %rax,-0x6c8(%rbp)
   14818:	48 c7 85 40 f9 ff ff 	movq   $0x0,-0x6c0(%rbp)
   1481f:	00 00 00 00 
   14823:	48 8d 05 fe 87 00 00 	lea    0x87fe(%rip),%rax        # 1d028 <g_25>
   1482a:	48 89 85 48 f9 ff ff 	mov    %rax,-0x6b8(%rbp)
   14831:	48 8d 85 a0 f1 ff ff 	lea    -0xe60(%rbp),%rax
   14838:	48 89 85 50 f9 ff ff 	mov    %rax,-0x6b0(%rbp)
   1483f:	48 8d 85 30 ed ff ff 	lea    -0x12d0(%rbp),%rax
   14846:	48 89 85 58 f9 ff ff 	mov    %rax,-0x6a8(%rbp)
   1484d:	48 c7 85 60 f9 ff ff 	movq   $0x0,-0x6a0(%rbp)
   14854:	00 00 00 00 
   14858:	48 8d 05 c9 87 00 00 	lea    0x87c9(%rip),%rax        # 1d028 <g_25>
   1485f:	48 89 85 68 f9 ff ff 	mov    %rax,-0x698(%rbp)
   14866:	48 c7 85 70 f9 ff ff 	movq   $0x0,-0x690(%rbp)
   1486d:	00 00 00 00 
   14871:	48 8d 85 30 ed ff ff 	lea    -0x12d0(%rbp),%rax
   14878:	48 89 85 78 f9 ff ff 	mov    %rax,-0x688(%rbp)
   1487f:	48 8d 85 a0 f1 ff ff 	lea    -0xe60(%rbp),%rax
   14886:	48 89 85 80 f9 ff ff 	mov    %rax,-0x680(%rbp)
   1488d:	48 8d 85 30 ed ff ff 	lea    -0x12d0(%rbp),%rax
   14894:	48 89 85 88 f9 ff ff 	mov    %rax,-0x678(%rbp)
   1489b:	c7 85 3c ed ff ff 00 	movl   $0x0,-0x12c4(%rbp)
   148a2:	00 00 00 
   148a5:	eb 1a                	jmp    148c1 <func_46+0x4025>
   148a7:	8b 85 3c ed ff ff    	mov    -0x12c4(%rbp),%eax
   148ad:	48 98                	cltq   
   148af:	c7 84 85 a0 f1 ff ff 	movl   $0xfffffff7,-0xe60(%rbp,%rax,4)
   148b6:	f7 ff ff ff 
   148ba:	83 85 3c ed ff ff 01 	addl   $0x1,-0x12c4(%rbp)
   148c1:	83 bd 3c ed ff ff 06 	cmpl   $0x6,-0x12c4(%rbp)
   148c8:	7e dd                	jle    148a7 <func_46+0x400b>
   148ca:	8b 85 b8 f1 ff ff    	mov    -0xe48(%rbp),%eax
   148d0:	0f be d8             	movsbl %al,%ebx
   148d3:	be 49 00 00 00       	mov    $0x49,%esi
   148d8:	bf 39 00 00 00       	mov    $0x39,%edi
   148dd:	e8 88 39 ff ff       	callq  826a <safe_div_func_int8_t_s_s>
   148e2:	41 89 c4             	mov    %eax,%r12d
   148e5:	be 58 ac ff ff       	mov    $0xffffac58,%esi
   148ea:	bf ff ff ff ff       	mov    $0xffffffff,%edi
   148ef:	e8 01 3b ff ff       	callq  83f5 <safe_mul_func_int16_t_s_s>
   148f4:	48 8b 85 f0 ec ff ff 	mov    -0x1310(%rbp),%rax
   148fb:	48 8b 00             	mov    (%rax),%rax
   148fe:	48 89 c6             	mov    %rax,%rsi
   14901:	bf 00 00 00 00       	mov    $0x0,%edi
   14906:	e8 a9 40 ff ff       	callq  89b4 <safe_mod_func_int64_t_s_s>
   1490b:	48 8b 85 e0 ec ff ff 	mov    -0x1320(%rbp),%rax
   14912:	98                   	cwtl   
   14913:	89 c6                	mov    %eax,%esi
   14915:	bf c9 3c 00 00       	mov    $0x3cc9,%edi
   1491a:	e8 d6 3a ff ff       	callq  83f5 <safe_mul_func_int16_t_s_s>
   1491f:	89 c6                	mov    %eax,%esi
   14921:	48 8b 85 48 ef ff ff 	mov    -0x10b8(%rbp),%rax
   14928:	0f b7 10             	movzwl (%rax),%edx
   1492b:	66 41 0f be c4       	movsbw %r12b,%ax
   14930:	21 c2                	and    %eax,%edx
   14932:	48 8b 85 48 ef ff ff 	mov    -0x10b8(%rbp),%rax
   14939:	66 89 10             	mov    %dx,(%rax)
   1493c:	48 8b 85 48 ef ff ff 	mov    -0x10b8(%rbp),%rax
   14943:	0f b7 00             	movzwl (%rax),%eax
   14946:	48 0f bf c0          	movswq %ax,%rax
   1494a:	48 8b 15 3f 87 00 00 	mov    0x873f(%rip),%rdx        # 1d090 <g_55>
   14951:	48 b9 e3 ee aa 4f ed 	movabs $0xb73ca6ed4faaeee3,%rcx
   14958:	a6 3c b7 
   1495b:	48 21 ca             	and    %rcx,%rdx
   1495e:	48 39 d0             	cmp    %rdx,%rax
   14961:	0f 97 c0             	seta   %al
   14964:	21 f0                	and    %esi,%eax
   14966:	89 c2                	mov    %eax,%edx
   14968:	48 8b 85 58 ee ff ff 	mov    -0x11a8(%rbp),%rax
   1496f:	88 10                	mov    %dl,(%rax)
   14971:	8b 85 80 f1 ff ff    	mov    -0xe80(%rbp),%eax
   14977:	0f be c0             	movsbl %al,%eax
   1497a:	89 de                	mov    %ebx,%esi
   1497c:	89 c7                	mov    %eax,%edi
   1497e:	e8 ae 38 ff ff       	callq  8231 <safe_mod_func_int8_t_s_s>
   14983:	48 8b 85 00 ee ff ff 	mov    -0x1200(%rbp),%rax
   1498a:	8b 00                	mov    (%rax),%eax
   1498c:	85 c0                	test   %eax,%eax
   1498e:	74 16                	je     149a6 <func_46+0x410a>
   14990:	8b 85 b8 f1 ff ff    	mov    -0xe48(%rbp),%eax
   14996:	85 c0                	test   %eax,%eax
   14998:	74 0c                	je     149a6 <func_46+0x410a>
   1499a:	48 8b 85 f8 ec ff ff 	mov    -0x1308(%rbp),%rax
   149a1:	e9 1a 1d 00 00       	jmpq   166c0 <func_46+0x5e24>
   149a6:	48 8d 85 1c ed ff ff 	lea    -0x12e4(%rbp),%rax
   149ad:	48 89 85 a8 ef ff ff 	mov    %rax,-0x1058(%rbp)
   149b4:	c6 85 0c ed ff ff fe 	movb   $0xfe,-0x12f4(%rbp)
   149bb:	48 8d 85 80 f1 ff ff 	lea    -0xe80(%rbp),%rax
   149c2:	48 89 85 b0 ef ff ff 	mov    %rax,-0x1050(%rbp)
   149c9:	0f b7 05 5e 89 00 00 	movzwl 0x895e(%rip),%eax        # 1d32e <g_389+0x6e>
   149d0:	44 0f b7 e0          	movzwl %ax,%r12d
   149d4:	48 8b 85 d8 ed ff ff 	mov    -0x1228(%rbp),%rax
   149db:	8b 00                	mov    (%rax),%eax
   149dd:	83 f0 6b             	xor    $0x6b,%eax
   149e0:	0f be d0             	movsbl %al,%edx
   149e3:	0f b6 85 0b ed ff ff 	movzbl -0x12f5(%rbp),%eax
   149ea:	0f be c0             	movsbl %al,%eax
   149ed:	89 d6                	mov    %edx,%esi
   149ef:	89 c7                	mov    %eax,%edi
   149f1:	e8 1c 38 ff ff       	callq  8212 <safe_mul_func_int8_t_s_s>
   149f6:	0f be d8             	movsbl %al,%ebx
   149f9:	be 04 00 00 00       	mov    $0x4,%esi
   149fe:	bf 01 00 00 00       	mov    $0x1,%edi
   14a03:	e8 e6 38 ff ff       	callq  82ee <safe_lshift_func_int8_t_s_u>
   14a08:	48 0f be d0          	movsbq %al,%rdx
   14a0c:	48 8b 85 d0 f1 ff ff 	mov    -0xe30(%rbp),%rax
   14a13:	48 21 c2             	and    %rax,%rdx
   14a16:	48 8b 85 e0 ec ff ff 	mov    -0x1320(%rbp),%rax
   14a1d:	48 39 c2             	cmp    %rax,%rdx
   14a20:	0f 96 c0             	setbe  %al
   14a23:	0f b6 c0             	movzbl %al,%eax
   14a26:	89 de                	mov    %ebx,%esi
   14a28:	89 c7                	mov    %eax,%edi
   14a2a:	e8 a5 37 ff ff       	callq  81d4 <safe_add_func_int8_t_s_s>
   14a2f:	0f be d8             	movsbl %al,%ebx
   14a32:	8b 85 a8 f1 ff ff    	mov    -0xe58(%rbp),%eax
   14a38:	89 c6                	mov    %eax,%esi
   14a3a:	bf 00 00 00 00       	mov    $0x0,%edi
   14a3f:	e8 bb 3c ff ff       	callq  86ff <safe_div_func_int32_t_s_s>
   14a44:	39 c3                	cmp    %eax,%ebx
   14a46:	0f 9d c0             	setge  %al
   14a49:	0f b6 c0             	movzbl %al,%eax
   14a4c:	44 21 e0             	and    %r12d,%eax
   14a4f:	39 85 84 ed ff ff    	cmp    %eax,-0x127c(%rbp)
   14a55:	0f 82 76 01 00 00    	jb     14bd1 <func_46+0x4335>
   14a5b:	48 8d 85 80 f1 ff ff 	lea    -0xe80(%rbp),%rax
   14a62:	48 89 85 b8 ef ff ff 	mov    %rax,-0x1048(%rbp)
   14a69:	48 8d 85 2c ed ff ff 	lea    -0x12d4(%rbp),%rax
   14a70:	48 89 85 c0 ef ff ff 	mov    %rax,-0x1040(%rbp)
   14a77:	48 8d 85 30 ed ff ff 	lea    -0x12d0(%rbp),%rax
   14a7e:	48 89 85 c8 ef ff ff 	mov    %rax,-0x1038(%rbp)
   14a85:	48 8d 85 80 f1 ff ff 	lea    -0xe80(%rbp),%rax
   14a8c:	48 89 85 d0 ef ff ff 	mov    %rax,-0x1030(%rbp)
   14a93:	48 8d 85 30 ed ff ff 	lea    -0x12d0(%rbp),%rax
   14a9a:	48 89 85 d8 ef ff ff 	mov    %rax,-0x1028(%rbp)
   14aa1:	48 8d 85 80 f1 ff ff 	lea    -0xe80(%rbp),%rax
   14aa8:	48 83 c0 18          	add    $0x18,%rax
   14aac:	48 89 85 e0 ef ff ff 	mov    %rax,-0x1020(%rbp)
   14ab3:	48 8d 85 a0 f1 ff ff 	lea    -0xe60(%rbp),%rax
   14aba:	48 83 c0 04          	add    $0x4,%rax
   14abe:	48 89 85 e8 ef ff ff 	mov    %rax,-0x1018(%rbp)
   14ac5:	48 8d 85 34 ed ff ff 	lea    -0x12cc(%rbp),%rax
   14acc:	48 89 85 f0 ef ff ff 	mov    %rax,-0x1010(%rbp)
   14ad3:	48 8d 85 20 f2 ff ff 	lea    -0xde0(%rbp),%rax
   14ada:	48 83 c0 20          	add    $0x20,%rax
   14ade:	48 89 85 f8 ef ff ff 	mov    %rax,-0x1008(%rbp)
   14ae5:	48 8d 85 28 ed ff ff 	lea    -0x12d8(%rbp),%rax
   14aec:	48 89 85 00 f0 ff ff 	mov    %rax,-0x1000(%rbp)
   14af3:	48 8d 05 9e 85 00 00 	lea    0x859e(%rip),%rax        # 1d098 <g_63>
   14afa:	48 89 85 08 f0 ff ff 	mov    %rax,-0xff8(%rbp)
   14b01:	48 8d 85 a0 f1 ff ff 	lea    -0xe60(%rbp),%rax
   14b08:	48 83 c0 10          	add    $0x10,%rax
   14b0c:	48 89 85 10 f0 ff ff 	mov    %rax,-0xff0(%rbp)
   14b13:	c7 85 40 ed ff ff 00 	movl   $0x0,-0x12c0(%rbp)
   14b1a:	00 00 00 
   14b1d:	eb 21                	jmp    14b40 <func_46+0x42a4>
   14b1f:	8b 85 40 ed ff ff    	mov    -0x12c0(%rbp),%eax
   14b25:	48 98                	cltq   
   14b27:	48 bb 7e 42 65 fa 11 	movabs $0x773ad211fa65427e,%rbx
   14b2e:	d2 3a 77 
   14b31:	48 89 9c c5 e0 f1 ff 	mov    %rbx,-0xe20(%rbp,%rax,8)
   14b38:	ff 
   14b39:	83 85 40 ed ff ff 01 	addl   $0x1,-0x12c0(%rbp)
   14b40:	83 bd 40 ed ff ff 06 	cmpl   $0x6,-0x12c0(%rbp)
   14b47:	7e d6                	jle    14b1f <func_46+0x4283>
   14b49:	c7 85 40 ed ff ff 00 	movl   $0x0,-0x12c0(%rbp)
   14b50:	00 00 00 
   14b53:	eb 1e                	jmp    14b73 <func_46+0x42d7>
   14b55:	8b 85 40 ed ff ff    	mov    -0x12c0(%rbp),%eax
   14b5b:	48 98                	cltq   
   14b5d:	48 8d 95 34 ed ff ff 	lea    -0x12cc(%rbp),%rdx
   14b64:	48 89 94 c5 78 f1 ff 	mov    %rdx,-0xe88(%rbp,%rax,8)
   14b6b:	ff 
   14b6c:	83 85 40 ed ff ff 01 	addl   $0x1,-0x12c0(%rbp)
   14b73:	83 bd 40 ed ff ff 00 	cmpl   $0x0,-0x12c0(%rbp)
   14b7a:	7e d9                	jle    14b55 <func_46+0x42b9>
   14b7c:	48 8b 95 e0 f1 ff ff 	mov    -0xe20(%rbp),%rdx
   14b83:	48 8b 85 f8 ec ff ff 	mov    -0x1308(%rbp),%rax
   14b8a:	89 10                	mov    %edx,(%rax)
   14b8c:	8b 10                	mov    (%rax),%edx
   14b8e:	8b 85 1c ed ff ff    	mov    -0x12e4(%rbp),%eax
   14b94:	09 d0                	or     %edx,%eax
   14b96:	89 85 1c ed ff ff    	mov    %eax,-0x12e4(%rbp)
   14b9c:	48 8b 95 f8 ec ff ff 	mov    -0x1308(%rbp),%rdx
   14ba3:	48 8b 85 d8 ed ff ff 	mov    -0x1228(%rbp),%rax
   14baa:	8b 12                	mov    (%rdx),%edx
   14bac:	89 10                	mov    %edx,(%rax)
   14bae:	0f b7 85 e8 f2 ff ff 	movzwl -0xd18(%rbp),%eax
   14bb5:	83 c0 01             	add    $0x1,%eax
   14bb8:	66 89 85 e8 f2 ff ff 	mov    %ax,-0xd18(%rbp)
   14bbf:	48 8b 85 f8 ec ff ff 	mov    -0x1308(%rbp),%rax
   14bc6:	8b 00                	mov    (%rax),%eax
   14bc8:	85 c0                	test   %eax,%eax
   14bca:	74 11                	je     14bdd <func_46+0x4341>
   14bcc:	e9 6c 04 00 00       	jmpq   1503d <func_46+0x47a1>
   14bd1:	48 8b 85 f8 ec ff ff 	mov    -0x1308(%rbp),%rax
   14bd8:	e9 e3 1a 00 00       	jmpq   166c0 <func_46+0x5e24>
   14bdd:	c7 85 84 ed ff ff 00 	movl   $0x0,-0x127c(%rbp)
   14be4:	00 00 00 
   14be7:	83 bd 84 ed ff ff 2a 	cmpl   $0x2a,-0x127c(%rbp)
   14bee:	77 1d                	ja     14c0d <func_46+0x4371>
   14bf0:	48 8b 05 61 a3 00 00 	mov    0xa361(%rip),%rax        # 1ef58 <g_605>
   14bf7:	48 8b 95 f8 ec ff ff 	mov    -0x1308(%rbp),%rdx
   14bfe:	48 89 10             	mov    %rdx,(%rax)
   14c01:	48 8b 85 f8 ec ff ff 	mov    -0x1308(%rbp),%rax
   14c08:	e9 b3 1a 00 00       	jmpq   166c0 <func_46+0x5e24>
   14c0d:	c7 85 2c ed ff ff fc 	movl   $0xfffffffc,-0x12d4(%rbp)
   14c14:	ff ff ff 
   14c17:	e9 5b 02 00 00       	jmpq   14e77 <func_46+0x45db>
   14c1c:	48 c7 85 18 f0 ff ff 	movq   $0x0,-0xfe8(%rbp)
   14c23:	00 00 00 00 
   14c27:	48 8d 05 92 98 00 00 	lea    0x9892(%rip),%rax        # 1e4c0 <g_62+0xc0>
   14c2e:	48 89 85 20 f0 ff ff 	mov    %rax,-0xfe0(%rbp)
   14c35:	48 8d 05 74 86 00 00 	lea    0x8674(%rip),%rax        # 1d2b0 <g_339>
   14c3c:	48 89 85 28 f0 ff ff 	mov    %rax,-0xfd8(%rbp)
   14c43:	48 8d 85 18 ee ff ff 	lea    -0x11e8(%rbp),%rax
   14c4a:	48 89 85 30 f0 ff ff 	mov    %rax,-0xfd0(%rbp)
   14c51:	48 8d 85 f0 ed ff ff 	lea    -0x1210(%rbp),%rax
   14c58:	48 89 85 38 f0 ff ff 	mov    %rax,-0xfc8(%rbp)
   14c5f:	48 8b 95 f8 ec ff ff 	mov    -0x1308(%rbp),%rdx
   14c66:	48 8b 85 20 f0 ff ff 	mov    -0xfe0(%rbp),%rax
   14c6d:	48 89 10             	mov    %rdx,(%rax)
   14c70:	48 8b 05 d9 83 00 00 	mov    0x83d9(%rip),%rax        # 1d050 <g_27+0x10>
   14c77:	0f bf d8             	movswl %ax,%ebx
   14c7a:	48 8b 85 e8 ec ff ff 	mov    -0x1318(%rbp),%rax
   14c81:	48 8b 00             	mov    (%rax),%rax
   14c84:	48 8d 50 ff          	lea    -0x1(%rax),%rdx
   14c88:	48 8b 85 e8 ec ff ff 	mov    -0x1318(%rbp),%rax
   14c8f:	48 89 10             	mov    %rdx,(%rax)
   14c92:	48 8b 85 e8 ec ff ff 	mov    -0x1318(%rbp),%rax
   14c99:	48 8b 10             	mov    (%rax),%rdx
   14c9c:	8b 85 1c f4 ff ff    	mov    -0xbe4(%rbp),%eax
   14ca2:	48 98                	cltq   
   14ca4:	48 21 c2             	and    %rax,%rdx
   14ca7:	49 89 d4             	mov    %rdx,%r12
   14caa:	48 8b 85 00 ee ff ff 	mov    -0x1200(%rbp),%rax
   14cb1:	8b 00                	mov    (%rax),%eax
   14cb3:	0f be d0             	movsbl %al,%edx
   14cb6:	8b 85 b8 f1 ff ff    	mov    -0xe48(%rbp),%eax
   14cbc:	0f be c0             	movsbl %al,%eax
   14cbf:	89 d6                	mov    %edx,%esi
   14cc1:	89 c7                	mov    %eax,%edi
   14cc3:	e8 69 35 ff ff       	callq  8231 <safe_mod_func_int8_t_s_s>
   14cc8:	0f be d0             	movsbl %al,%edx
   14ccb:	48 8b 85 00 ee ff ff 	mov    -0x1200(%rbp),%rax
   14cd2:	8b 00                	mov    (%rax),%eax
   14cd4:	39 c2                	cmp    %eax,%edx
   14cd6:	0f 9e c0             	setle  %al
   14cd9:	0f b6 c0             	movzbl %al,%eax
   14cdc:	49 39 c4             	cmp    %rax,%r12
   14cdf:	0f 92 c0             	setb   %al
   14ce2:	0f b6 d0             	movzbl %al,%edx
   14ce5:	48 8b 85 e0 ec ff ff 	mov    -0x1320(%rbp),%rax
   14cec:	89 c1                	mov    %eax,%ecx
   14cee:	48 8b 85 a8 ef ff ff 	mov    -0x1058(%rbp),%rax
   14cf5:	89 08                	mov    %ecx,(%rax)
   14cf7:	48 8b 85 a8 ef ff ff 	mov    -0x1058(%rbp),%rax
   14cfe:	8b 00                	mov    (%rax),%eax
   14d00:	98                   	cwtl   
   14d01:	89 d6                	mov    %edx,%esi
   14d03:	89 c7                	mov    %eax,%edi
   14d05:	e8 eb 36 ff ff       	callq  83f5 <safe_mul_func_int16_t_s_s>
   14d0a:	98                   	cwtl   
   14d0b:	89 de                	mov    %ebx,%esi
   14d0d:	89 c7                	mov    %eax,%edi
   14d0f:	e8 9f 36 ff ff       	callq  83b3 <safe_add_func_int16_t_s_s>
   14d14:	0f bf d8             	movswl %ax,%ebx
   14d17:	48 8b 85 c8 ed ff ff 	mov    -0x1238(%rbp),%rax
   14d1e:	48 8b 95 e8 ec ff ff 	mov    -0x1318(%rbp),%rdx
   14d25:	48 89 10             	mov    %rdx,(%rax)
   14d28:	48 8b 00             	mov    (%rax),%rax
   14d2b:	48 39 85 28 f0 ff ff 	cmp    %rax,-0xfd8(%rbp)
   14d32:	75 15                	jne    14d49 <func_46+0x44ad>
   14d34:	8b 85 84 ed ff ff    	mov    -0x127c(%rbp),%eax
   14d3a:	0f be c0             	movsbl %al,%eax
   14d3d:	be 01 00 00 00       	mov    $0x1,%esi
   14d42:	89 c7                	mov    %eax,%edi
   14d44:	e8 a5 35 ff ff       	callq  82ee <safe_lshift_func_int8_t_s_u>
   14d49:	ba 01 00 00 00       	mov    $0x1,%edx
   14d4e:	8b 05 d4 82 00 00    	mov    0x82d4(%rip),%eax        # 1d028 <g_25>
   14d54:	39 c2                	cmp    %eax,%edx
   14d56:	0f 9c c0             	setl   %al
   14d59:	0f b6 c0             	movzbl %al,%eax
   14d5c:	39 c3                	cmp    %eax,%ebx
   14d5e:	0f 9d c2             	setge  %dl
   14d61:	48 8b 85 f8 ec ff ff 	mov    -0x1308(%rbp),%rax
   14d68:	0f b6 d2             	movzbl %dl,%edx
   14d6b:	89 10                	mov    %edx,(%rax)
   14d6d:	8b 10                	mov    (%rax),%edx
   14d6f:	8b 85 d8 f4 ff ff    	mov    -0xb28(%rbp),%eax
   14d75:	31 d0                	xor    %edx,%eax
   14d77:	89 85 d8 f4 ff ff    	mov    %eax,-0xb28(%rbp)
   14d7d:	48 8b 85 d0 f1 ff ff 	mov    -0xe30(%rbp),%rax
   14d84:	48 85 c0             	test   %rax,%rax
   14d87:	0f 85 fb 00 00 00    	jne    14e88 <func_46+0x45ec>
   14d8d:	48 8b 85 30 f0 ff ff 	mov    -0xfd0(%rbp),%rax
   14d94:	8b 00                	mov    (%rax),%eax
   14d96:	8d 50 01             	lea    0x1(%rax),%edx
   14d99:	48 8b 85 30 f0 ff ff 	mov    -0xfd0(%rbp),%rax
   14da0:	89 10                	mov    %edx,(%rax)
   14da2:	48 8b 85 e0 ec ff ff 	mov    -0x1320(%rbp),%rax
   14da9:	41 89 c4             	mov    %eax,%r12d
   14dac:	48 8b 85 b0 ef ff ff 	mov    -0x1050(%rbp),%rax
   14db3:	48 3b 85 80 ee ff ff 	cmp    -0x1180(%rbp),%rax
   14dba:	0f 94 c0             	sete   %al
   14dbd:	0f b6 d8             	movzbl %al,%ebx
   14dc0:	48 8b 85 e0 ec ff ff 	mov    -0x1320(%rbp),%rax
   14dc7:	0f be d0             	movsbl %al,%edx
   14dca:	48 8b 85 e0 ec ff ff 	mov    -0x1320(%rbp),%rax
   14dd1:	0f be c0             	movsbl %al,%eax
   14dd4:	89 d6                	mov    %edx,%esi
   14dd6:	89 c7                	mov    %eax,%edi
   14dd8:	e8 35 34 ff ff       	callq  8212 <safe_mul_func_int8_t_s_s>
   14ddd:	66 98                	cbtw   
   14ddf:	09 d8                	or     %ebx,%eax
   14de1:	98                   	cwtl   
   14de2:	89 c6                	mov    %eax,%esi
   14de4:	bf b1 a3 ff ff       	mov    $0xffffa3b1,%edi
   14de9:	e8 07 36 ff ff       	callq  83f5 <safe_mul_func_int16_t_s_s>
   14dee:	0f be c0             	movsbl %al,%eax
   14df1:	44 89 e6             	mov    %r12d,%esi
   14df4:	89 c7                	mov    %eax,%edi
   14df6:	e8 3a 35 ff ff       	callq  8335 <safe_rshift_func_int8_t_s_s>
   14dfb:	48 0f be d0          	movsbq %al,%rdx
   14dff:	48 8d 05 fa c1 00 00 	lea    0xc1fa(%rip),%rax        # 21000 <g_417>
   14e06:	48 39 85 38 f0 ff ff 	cmp    %rax,-0xfc8(%rbp)
   14e0d:	0f 94 c0             	sete   %al
   14e10:	0f b6 c0             	movzbl %al,%eax
   14e13:	48 89 d6             	mov    %rdx,%rsi
   14e16:	48 89 c7             	mov    %rax,%rdi
   14e19:	e8 8a 3a ff ff       	callq  88a8 <safe_sub_func_int64_t_s_s>
   14e1e:	48 83 bd a8 ee ff ff 	cmpq   $0x0,-0x1158(%rbp)
   14e25:	00 
   14e26:	0f 94 c0             	sete   %al
   14e29:	0f b6 d0             	movzbl %al,%edx
   14e2c:	48 8b 85 80 ee ff ff 	mov    -0x1180(%rbp),%rax
   14e33:	8b 00                	mov    (%rax),%eax
   14e35:	09 c2                	or     %eax,%edx
   14e37:	48 8b 85 e0 ec ff ff 	mov    -0x1320(%rbp),%rax
   14e3e:	31 d0                	xor    %edx,%eax
   14e40:	0f b7 c0             	movzwl %ax,%eax
   14e43:	be 08 00 00 00       	mov    $0x8,%esi
   14e48:	89 c7                	mov    %eax,%edi
   14e4a:	e8 2b 40 ff ff       	callq  8e7a <safe_rshift_func_uint16_t_u_u>
   14e4f:	c7 85 34 ed ff ff 00 	movl   $0x0,-0x12cc(%rbp)
   14e56:	00 00 00 
   14e59:	8b 85 2c ed ff ff    	mov    -0x12d4(%rbp),%eax
   14e5f:	0f be c0             	movsbl %al,%eax
   14e62:	be 01 00 00 00       	mov    $0x1,%esi
   14e67:	89 c7                	mov    %eax,%edi
   14e69:	e8 84 33 ff ff       	callq  81f2 <safe_sub_func_int8_t_s_s>
   14e6e:	0f be c0             	movsbl %al,%eax
   14e71:	89 85 2c ed ff ff    	mov    %eax,-0x12d4(%rbp)
   14e77:	8b 85 2c ed ff ff    	mov    -0x12d4(%rbp),%eax
   14e7d:	83 f8 ec             	cmp    $0xffffffec,%eax
   14e80:	0f 8d 96 fd ff ff    	jge    14c1c <func_46+0x4380>
   14e86:	eb 01                	jmp    14e89 <func_46+0x45ed>
   14e88:	90                   	nop
   14e89:	48 8b 05 28 84 00 00 	mov    0x8428(%rip),%rax        # 1d2b8 <g_375>
   14e90:	0f b7 d8             	movzwl %ax,%ebx
   14e93:	48 8b 85 e0 ec ff ff 	mov    -0x1320(%rbp),%rax
   14e9a:	89 85 dc ec ff ff    	mov    %eax,-0x1324(%rbp)
   14ea0:	44 0f b6 a5 0b ed ff 	movzbl -0x12f5(%rbp),%r12d
   14ea7:	ff 
   14ea8:	48 8b 85 f0 ec ff ff 	mov    -0x1310(%rbp),%rax
   14eaf:	4c 8b 38             	mov    (%rax),%r15
   14eb2:	48 8b 05 d7 82 00 00 	mov    0x82d7(%rip),%rax        # 1d190 <g_132+0x10>
   14eb9:	44 0f b7 e8          	movzwl %ax,%r13d
   14ebd:	0f b7 05 e6 83 00 00 	movzwl 0x83e6(%rip),%eax        # 1d2aa <g_243>
   14ec4:	44 0f b7 f0          	movzwl %ax,%r14d
   14ec8:	48 8b 85 58 ef ff ff 	mov    -0x10a8(%rbp),%rax
   14ecf:	48 8b 00             	mov    (%rax),%rax
   14ed2:	83 e0 01             	and    $0x1,%eax
   14ed5:	48 89 c2             	mov    %rax,%rdx
   14ed8:	48 8b 85 58 ef ff ff 	mov    -0x10a8(%rbp),%rax
   14edf:	48 89 10             	mov    %rdx,(%rax)
   14ee2:	48 8b 85 00 ee ff ff 	mov    -0x1200(%rbp),%rax
   14ee9:	8b 00                	mov    (%rax),%eax
   14eeb:	83 f8 ff             	cmp    $0xffffffff,%eax
   14eee:	0f 94 c0             	sete   %al
   14ef1:	0f b6 d0             	movzbl %al,%edx
   14ef4:	48 8b 85 00 ee ff ff 	mov    -0x1200(%rbp),%rax
   14efb:	8b 00                	mov    (%rax),%eax
   14efd:	98                   	cwtl   
   14efe:	89 d6                	mov    %edx,%esi
   14f00:	89 c7                	mov    %eax,%edi
   14f02:	e8 ee 34 ff ff       	callq  83f5 <safe_mul_func_int16_t_s_s>
   14f07:	48 8b 95 a0 f2 ff ff 	mov    -0xd60(%rbp),%rdx
   14f0e:	48 85 d2             	test   %rdx,%rdx
   14f11:	0f 95 c2             	setne  %dl
   14f14:	0f b6 d2             	movzbl %dl,%edx
   14f17:	21 d0                	and    %edx,%eax
   14f19:	0f b7 c0             	movzwl %ax,%eax
   14f1c:	44 89 f6             	mov    %r14d,%esi
   14f1f:	89 c7                	mov    %eax,%edi
   14f21:	e8 17 3e ff ff       	callq  8d3d <safe_mul_func_uint16_t_u_u>
   14f26:	0f b7 c0             	movzwl %ax,%eax
   14f29:	44 89 ee             	mov    %r13d,%esi
   14f2c:	89 c7                	mov    %eax,%edi
   14f2e:	e8 0a 3e ff ff       	callq  8d3d <safe_mul_func_uint16_t_u_u>
   14f33:	0f b6 45 c2          	movzbl -0x3e(%rbp),%eax
   14f37:	0f b6 d0             	movzbl %al,%edx
   14f3a:	48 8b 85 00 ee ff ff 	mov    -0x1200(%rbp),%rax
   14f41:	8b 08                	mov    (%rax),%ecx
   14f43:	48 8b 85 80 ee ff ff 	mov    -0x1180(%rbp),%rax
   14f4a:	8b 00                	mov    (%rax),%eax
   14f4c:	39 c1                	cmp    %eax,%ecx
   14f4e:	0f 95 c0             	setne  %al
   14f51:	0f b6 c0             	movzbl %al,%eax
   14f54:	48 89 d6             	mov    %rdx,%rsi
   14f57:	48 89 c7             	mov    %rax,%rdi
   14f5a:	e8 e2 38 ff ff       	callq  8841 <safe_add_func_int64_t_s_s>
   14f5f:	49 39 c7             	cmp    %rax,%r15
   14f62:	0f 92 c0             	setb   %al
   14f65:	0f b6 c0             	movzbl %al,%eax
   14f68:	44 89 e6             	mov    %r12d,%esi
   14f6b:	89 c7                	mov    %eax,%edi
   14f6d:	e8 cb 3d ff ff       	callq  8d3d <safe_mul_func_uint16_t_u_u>
   14f72:	0f b6 45 c2          	movzbl -0x3e(%rbp),%eax
   14f76:	0f b6 d0             	movzbl %al,%edx
   14f79:	48 8b 85 00 ee ff ff 	mov    -0x1200(%rbp),%rax
   14f80:	8b 00                	mov    (%rax),%eax
   14f82:	09 d0                	or     %edx,%eax
   14f84:	be ff ff ff ff       	mov    $0xffffffff,%esi
   14f89:	89 c7                	mov    %eax,%edi
   14f8b:	e8 3c 37 ff ff       	callq  86cc <safe_mod_func_int32_t_s_s>
   14f90:	8b 85 b8 f1 ff ff    	mov    -0xe48(%rbp),%eax
   14f96:	0f b6 c0             	movzbl %al,%eax
   14f99:	8b b5 dc ec ff ff    	mov    -0x1324(%rbp),%esi
   14f9f:	89 c7                	mov    %eax,%edi
   14fa1:	e8 e7 3c ff ff       	callq  8c8d <safe_rshift_func_uint8_t_u_s>
   14fa6:	0f b6 d0             	movzbl %al,%edx
   14fa9:	48 8b 05 70 95 00 00 	mov    0x9570(%rip),%rax        # 1e520 <g_131>
   14fb0:	48 8b 00             	mov    (%rax),%rax
   14fb3:	48 39 c2             	cmp    %rax,%rdx
   14fb6:	0f 96 c0             	setbe  %al
   14fb9:	0f b6 c0             	movzbl %al,%eax
   14fbc:	66 89 05 73 83 00 00 	mov    %ax,0x8373(%rip)        # 1d336 <g_389+0x76>
   14fc3:	0f b7 05 6c 83 00 00 	movzwl 0x836c(%rip),%eax        # 1d336 <g_389+0x76>
   14fca:	8b 95 5c f2 ff ff    	mov    -0xda4(%rbp),%edx
   14fd0:	0f b7 c0             	movzwl %ax,%eax
   14fd3:	09 d0                	or     %edx,%eax
   14fd5:	89 85 5c f2 ff ff    	mov    %eax,-0xda4(%rbp)
   14fdb:	8b 85 5c f2 ff ff    	mov    -0xda4(%rbp),%eax
   14fe1:	0f b7 c0             	movzwl %ax,%eax
   14fe4:	89 de                	mov    %ebx,%esi
   14fe6:	89 c7                	mov    %eax,%edi
   14fe8:	e8 32 3d ff ff       	callq  8d1f <safe_sub_func_uint16_t_u_u>
   14fed:	0f b7 d0             	movzwl %ax,%edx
   14ff0:	8b 85 24 ed ff ff    	mov    -0x12dc(%rbp),%eax
   14ff6:	21 d0                	and    %edx,%eax
   14ff8:	89 85 24 ed ff ff    	mov    %eax,-0x12dc(%rbp)
   14ffe:	8b 85 24 ed ff ff    	mov    -0x12dc(%rbp),%eax
   15004:	48 98                	cltq   
   15006:	83 e0 f7             	and    $0xfffffff7,%eax
   15009:	48 89 c2             	mov    %rax,%rdx
   1500c:	0f b6 05 2b 83 00 00 	movzbl 0x832b(%rip),%eax        # 1d33e <g_403>
   15013:	0f b6 c0             	movzbl %al,%eax
   15016:	48 39 c2             	cmp    %rax,%rdx
   15019:	0f 96 c0             	setbe  %al
   1501c:	0f b6 c0             	movzbl %al,%eax
   1501f:	48 39 85 e0 ec ff ff 	cmp    %rax,-0x1320(%rbp)
   15026:	0f 9d c0             	setge  %al
   15029:	0f b6 d0             	movzbl %al,%edx
   1502c:	48 8b 85 80 ee ff ff 	mov    -0x1180(%rbp),%rax
   15033:	89 10                	mov    %edx,(%rax)
   15035:	48 83 85 40 ee ff ff 	addq   $0x1,-0x11c0(%rbp)
   1503c:	01 
   1503d:	0f b7 05 66 82 00 00 	movzwl 0x8266(%rip),%eax        # 1d2aa <g_243>
   15044:	98                   	cwtl   
   15045:	be 07 00 00 00       	mov    $0x7,%esi
   1504a:	89 c7                	mov    %eax,%edi
   1504c:	e8 67 3e ff ff       	callq  8eb8 <safe_add_func_uint32_t_u_u>
   15051:	66 89 05 52 82 00 00 	mov    %ax,0x8252(%rip)        # 1d2aa <g_243>
   15058:	0f b7 05 4b 82 00 00 	movzwl 0x824b(%rip),%eax        # 1d2aa <g_243>
   1505f:	66 83 f8 e9          	cmp    $0xffe9,%ax
   15063:	0f 8c d0 f3 ff ff    	jl     14439 <func_46+0x3b9d>
   15069:	c6 85 08 ed ff ff 00 	movb   $0x0,-0x12f8(%rbp)
   15070:	90                   	nop
   15071:	0f b6 85 08 ed ff ff 	movzbl -0x12f8(%rbp),%eax
   15078:	3c 03                	cmp    $0x3,%al
   1507a:	0f 87 a9 0f 00 00    	ja     16029 <func_46+0x578d>
   15080:	48 8d 85 09 ed ff ff 	lea    -0x12f7(%rbp),%rax
   15087:	48 89 85 d0 f7 ff ff 	mov    %rax,-0x830(%rbp)
   1508e:	48 8d 05 4b bf 00 00 	lea    0xbf4b(%rip),%rax        # 20fe0 <g_247>
   15095:	48 89 85 d8 f7 ff ff 	mov    %rax,-0x828(%rbp)
   1509c:	48 c7 85 e0 f7 ff ff 	movq   $0x0,-0x820(%rbp)
   150a3:	00 00 00 00 
   150a7:	48 c7 85 e8 f7 ff ff 	movq   $0x0,-0x818(%rbp)
   150ae:	00 00 00 00 
   150b2:	48 c7 85 f0 f7 ff ff 	movq   $0x0,-0x810(%rbp)
   150b9:	00 00 00 00 
   150bd:	48 8d 05 1c bf 00 00 	lea    0xbf1c(%rip),%rax        # 20fe0 <g_247>
   150c4:	48 89 85 f8 f7 ff ff 	mov    %rax,-0x808(%rbp)
   150cb:	48 c7 85 00 f8 ff ff 	movq   $0x0,-0x800(%rbp)
   150d2:	00 00 00 00 
   150d6:	48 8d 05 03 bf 00 00 	lea    0xbf03(%rip),%rax        # 20fe0 <g_247>
   150dd:	48 89 85 08 f8 ff ff 	mov    %rax,-0x7f8(%rbp)
   150e4:	48 8d 05 f5 be 00 00 	lea    0xbef5(%rip),%rax        # 20fe0 <g_247>
   150eb:	48 89 85 10 f8 ff ff 	mov    %rax,-0x7f0(%rbp)
   150f2:	48 8d 05 e7 be 00 00 	lea    0xbee7(%rip),%rax        # 20fe0 <g_247>
   150f9:	48 89 85 18 f8 ff ff 	mov    %rax,-0x7e8(%rbp)
   15100:	48 8d 85 09 ed ff ff 	lea    -0x12f7(%rbp),%rax
   15107:	48 89 85 20 f8 ff ff 	mov    %rax,-0x7e0(%rbp)
   1510e:	48 c7 85 28 f8 ff ff 	movq   $0x0,-0x7d8(%rbp)
   15115:	00 00 00 00 
   15119:	48 8d 05 c0 be 00 00 	lea    0xbec0(%rip),%rax        # 20fe0 <g_247>
   15120:	48 89 85 30 f8 ff ff 	mov    %rax,-0x7d0(%rbp)
   15127:	48 8d 05 b2 be 00 00 	lea    0xbeb2(%rip),%rax        # 20fe0 <g_247>
   1512e:	48 89 85 38 f8 ff ff 	mov    %rax,-0x7c8(%rbp)
   15135:	48 8d 05 a4 be 00 00 	lea    0xbea4(%rip),%rax        # 20fe0 <g_247>
   1513c:	48 89 85 40 f8 ff ff 	mov    %rax,-0x7c0(%rbp)
   15143:	48 8d 05 96 be 00 00 	lea    0xbe96(%rip),%rax        # 20fe0 <g_247>
   1514a:	48 89 85 48 f8 ff ff 	mov    %rax,-0x7b8(%rbp)
   15151:	48 8d 05 88 be 00 00 	lea    0xbe88(%rip),%rax        # 20fe0 <g_247>
   15158:	48 89 85 50 f8 ff ff 	mov    %rax,-0x7b0(%rbp)
   1515f:	48 c7 85 58 f8 ff ff 	movq   $0x0,-0x7a8(%rbp)
   15166:	00 00 00 00 
   1516a:	48 8d 85 09 ed ff ff 	lea    -0x12f7(%rbp),%rax
   15171:	48 89 85 60 f8 ff ff 	mov    %rax,-0x7a0(%rbp)
   15178:	48 8d 05 61 be 00 00 	lea    0xbe61(%rip),%rax        # 20fe0 <g_247>
   1517f:	48 89 85 68 f8 ff ff 	mov    %rax,-0x798(%rbp)
   15186:	48 8d 05 53 be 00 00 	lea    0xbe53(%rip),%rax        # 20fe0 <g_247>
   1518d:	48 89 85 70 f8 ff ff 	mov    %rax,-0x790(%rbp)
   15194:	48 8d 05 45 be 00 00 	lea    0xbe45(%rip),%rax        # 20fe0 <g_247>
   1519b:	48 89 85 78 f8 ff ff 	mov    %rax,-0x788(%rbp)
   151a2:	48 8d 85 09 ed ff ff 	lea    -0x12f7(%rbp),%rax
   151a9:	48 89 85 80 f8 ff ff 	mov    %rax,-0x780(%rbp)
   151b0:	48 8d 05 29 be 00 00 	lea    0xbe29(%rip),%rax        # 20fe0 <g_247>
   151b7:	48 89 85 88 f8 ff ff 	mov    %rax,-0x778(%rbp)
   151be:	48 8d 05 1b be 00 00 	lea    0xbe1b(%rip),%rax        # 20fe0 <g_247>
   151c5:	48 89 85 90 f8 ff ff 	mov    %rax,-0x770(%rbp)
   151cc:	48 c7 85 98 f8 ff ff 	movq   $0x0,-0x768(%rbp)
   151d3:	00 00 00 00 
   151d7:	48 c7 85 a0 f8 ff ff 	movq   $0x0,-0x760(%rbp)
   151de:	00 00 00 00 
   151e2:	48 8d 85 09 ed ff ff 	lea    -0x12f7(%rbp),%rax
   151e9:	48 89 85 a8 f8 ff ff 	mov    %rax,-0x758(%rbp)
   151f0:	48 8d 85 09 ed ff ff 	lea    -0x12f7(%rbp),%rax
   151f7:	48 89 85 b0 f8 ff ff 	mov    %rax,-0x750(%rbp)
   151fe:	48 8d 05 db bd 00 00 	lea    0xbddb(%rip),%rax        # 20fe0 <g_247>
   15205:	48 89 85 b8 f8 ff ff 	mov    %rax,-0x748(%rbp)
   1520c:	48 c7 85 c0 f8 ff ff 	movq   $0x0,-0x740(%rbp)
   15213:	00 00 00 00 
   15217:	48 8d 85 09 ed ff ff 	lea    -0x12f7(%rbp),%rax
   1521e:	48 89 85 c8 f8 ff ff 	mov    %rax,-0x738(%rbp)
   15225:	48 c7 85 d0 f8 ff ff 	movq   $0x0,-0x730(%rbp)
   1522c:	00 00 00 00 
   15230:	48 8d 05 a9 bd 00 00 	lea    0xbda9(%rip),%rax        # 20fe0 <g_247>
   15237:	48 89 85 d8 f8 ff ff 	mov    %rax,-0x728(%rbp)
   1523e:	48 8d 85 09 ed ff ff 	lea    -0x12f7(%rbp),%rax
   15245:	48 89 85 e0 f8 ff ff 	mov    %rax,-0x720(%rbp)
   1524c:	48 8d 05 8d bd 00 00 	lea    0xbd8d(%rip),%rax        # 20fe0 <g_247>
   15253:	48 89 85 e8 f8 ff ff 	mov    %rax,-0x718(%rbp)
   1525a:	48 8d 85 09 ed ff ff 	lea    -0x12f7(%rbp),%rax
   15261:	48 89 85 f0 f8 ff ff 	mov    %rax,-0x710(%rbp)
   15268:	48 8d 05 71 bd 00 00 	lea    0xbd71(%rip),%rax        # 20fe0 <g_247>
   1526f:	48 89 85 f8 f8 ff ff 	mov    %rax,-0x708(%rbp)
   15276:	48 8d 05 63 bd 00 00 	lea    0xbd63(%rip),%rax        # 20fe0 <g_247>
   1527d:	48 89 85 00 f9 ff ff 	mov    %rax,-0x700(%rbp)
   15284:	48 8d 85 09 ed ff ff 	lea    -0x12f7(%rbp),%rax
   1528b:	48 89 85 08 f9 ff ff 	mov    %rax,-0x6f8(%rbp)
   15292:	48 8d 05 47 bd 00 00 	lea    0xbd47(%rip),%rax        # 20fe0 <g_247>
   15299:	48 89 85 10 f9 ff ff 	mov    %rax,-0x6f0(%rbp)
   152a0:	48 c7 85 18 f9 ff ff 	movq   $0x0,-0x6e8(%rbp)
   152a7:	00 00 00 00 
   152ab:	48 c7 85 20 f9 ff ff 	movq   $0x0,-0x6e0(%rbp)
   152b2:	00 00 00 00 
   152b6:	48 c7 85 28 f9 ff ff 	movq   $0x0,-0x6d8(%rbp)
   152bd:	00 00 00 00 
   152c1:	48 8d 05 18 bd 00 00 	lea    0xbd18(%rip),%rax        # 20fe0 <g_247>
   152c8:	48 89 85 30 f9 ff ff 	mov    %rax,-0x6d0(%rbp)
   152cf:	48 8d 85 09 ed ff ff 	lea    -0x12f7(%rbp),%rax
   152d6:	48 89 85 38 f9 ff ff 	mov    %rax,-0x6c8(%rbp)
   152dd:	48 8d 05 fc bc 00 00 	lea    0xbcfc(%rip),%rax        # 20fe0 <g_247>
   152e4:	48 89 85 40 f9 ff ff 	mov    %rax,-0x6c0(%rbp)
   152eb:	48 c7 85 48 f9 ff ff 	movq   $0x0,-0x6b8(%rbp)
   152f2:	00 00 00 00 
   152f6:	48 c7 85 50 f9 ff ff 	movq   $0x0,-0x6b0(%rbp)
   152fd:	00 00 00 00 
   15301:	48 c7 85 58 f9 ff ff 	movq   $0x0,-0x6a8(%rbp)
   15308:	00 00 00 00 
   1530c:	48 8d 05 cd bc 00 00 	lea    0xbccd(%rip),%rax        # 20fe0 <g_247>
   15313:	48 89 85 60 f9 ff ff 	mov    %rax,-0x6a0(%rbp)
   1531a:	48 c7 85 68 f9 ff ff 	movq   $0x0,-0x698(%rbp)
   15321:	00 00 00 00 
   15325:	48 8d 05 b4 bc 00 00 	lea    0xbcb4(%rip),%rax        # 20fe0 <g_247>
   1532c:	48 89 85 70 f9 ff ff 	mov    %rax,-0x690(%rbp)
   15333:	48 8d 05 a6 bc 00 00 	lea    0xbca6(%rip),%rax        # 20fe0 <g_247>
   1533a:	48 89 85 78 f9 ff ff 	mov    %rax,-0x688(%rbp)
   15341:	48 8d 05 98 bc 00 00 	lea    0xbc98(%rip),%rax        # 20fe0 <g_247>
   15348:	48 89 85 80 f9 ff ff 	mov    %rax,-0x680(%rbp)
   1534f:	48 8d 85 09 ed ff ff 	lea    -0x12f7(%rbp),%rax
   15356:	48 89 85 88 f9 ff ff 	mov    %rax,-0x678(%rbp)
   1535d:	48 c7 85 90 f9 ff ff 	movq   $0x0,-0x670(%rbp)
   15364:	00 00 00 00 
   15368:	48 8d 05 71 bc 00 00 	lea    0xbc71(%rip),%rax        # 20fe0 <g_247>
   1536f:	48 89 85 98 f9 ff ff 	mov    %rax,-0x668(%rbp)
   15376:	48 8d 05 63 bc 00 00 	lea    0xbc63(%rip),%rax        # 20fe0 <g_247>
   1537d:	48 89 85 a0 f9 ff ff 	mov    %rax,-0x660(%rbp)
   15384:	48 8d 05 55 bc 00 00 	lea    0xbc55(%rip),%rax        # 20fe0 <g_247>
   1538b:	48 89 85 a8 f9 ff ff 	mov    %rax,-0x658(%rbp)
   15392:	48 8d 05 47 bc 00 00 	lea    0xbc47(%rip),%rax        # 20fe0 <g_247>
   15399:	48 89 85 b0 f9 ff ff 	mov    %rax,-0x650(%rbp)
   153a0:	48 8d 05 39 bc 00 00 	lea    0xbc39(%rip),%rax        # 20fe0 <g_247>
   153a7:	48 89 85 b8 f9 ff ff 	mov    %rax,-0x648(%rbp)
   153ae:	48 c7 85 c0 f9 ff ff 	movq   $0x0,-0x640(%rbp)
   153b5:	00 00 00 00 
   153b9:	48 8d 85 09 ed ff ff 	lea    -0x12f7(%rbp),%rax
   153c0:	48 89 85 c8 f9 ff ff 	mov    %rax,-0x638(%rbp)
   153c7:	48 8d 05 12 bc 00 00 	lea    0xbc12(%rip),%rax        # 20fe0 <g_247>
   153ce:	48 89 85 d0 f9 ff ff 	mov    %rax,-0x630(%rbp)
   153d5:	48 8d 05 04 bc 00 00 	lea    0xbc04(%rip),%rax        # 20fe0 <g_247>
   153dc:	48 89 85 d8 f9 ff ff 	mov    %rax,-0x628(%rbp)
   153e3:	48 8d 05 f6 bb 00 00 	lea    0xbbf6(%rip),%rax        # 20fe0 <g_247>
   153ea:	48 89 85 e0 f9 ff ff 	mov    %rax,-0x620(%rbp)
   153f1:	48 8d 85 09 ed ff ff 	lea    -0x12f7(%rbp),%rax
   153f8:	48 89 85 e8 f9 ff ff 	mov    %rax,-0x618(%rbp)
   153ff:	48 8d 05 da bb 00 00 	lea    0xbbda(%rip),%rax        # 20fe0 <g_247>
   15406:	48 89 85 f0 f9 ff ff 	mov    %rax,-0x610(%rbp)
   1540d:	48 8d 05 cc bb 00 00 	lea    0xbbcc(%rip),%rax        # 20fe0 <g_247>
   15414:	48 89 85 f8 f9 ff ff 	mov    %rax,-0x608(%rbp)
   1541b:	48 c7 85 00 fa ff ff 	movq   $0x0,-0x600(%rbp)
   15422:	00 00 00 00 
   15426:	48 c7 85 08 fa ff ff 	movq   $0x0,-0x5f8(%rbp)
   1542d:	00 00 00 00 
   15431:	48 8d 85 09 ed ff ff 	lea    -0x12f7(%rbp),%rax
   15438:	48 89 85 10 fa ff ff 	mov    %rax,-0x5f0(%rbp)
   1543f:	48 8d 85 09 ed ff ff 	lea    -0x12f7(%rbp),%rax
   15446:	48 89 85 18 fa ff ff 	mov    %rax,-0x5e8(%rbp)
   1544d:	48 8d 05 8c bb 00 00 	lea    0xbb8c(%rip),%rax        # 20fe0 <g_247>
   15454:	48 89 85 20 fa ff ff 	mov    %rax,-0x5e0(%rbp)
   1545b:	48 c7 85 28 fa ff ff 	movq   $0x0,-0x5d8(%rbp)
   15462:	00 00 00 00 
   15466:	48 8d 85 09 ed ff ff 	lea    -0x12f7(%rbp),%rax
   1546d:	48 89 85 30 fa ff ff 	mov    %rax,-0x5d0(%rbp)
   15474:	48 c7 85 38 fa ff ff 	movq   $0x0,-0x5c8(%rbp)
   1547b:	00 00 00 00 
   1547f:	48 8d 05 5a bb 00 00 	lea    0xbb5a(%rip),%rax        # 20fe0 <g_247>
   15486:	48 89 85 40 fa ff ff 	mov    %rax,-0x5c0(%rbp)
   1548d:	48 8d 85 09 ed ff ff 	lea    -0x12f7(%rbp),%rax
   15494:	48 89 85 48 fa ff ff 	mov    %rax,-0x5b8(%rbp)
   1549b:	48 8d 05 3e bb 00 00 	lea    0xbb3e(%rip),%rax        # 20fe0 <g_247>
   154a2:	48 89 85 50 fa ff ff 	mov    %rax,-0x5b0(%rbp)
   154a9:	48 8d 85 09 ed ff ff 	lea    -0x12f7(%rbp),%rax
   154b0:	48 89 85 58 fa ff ff 	mov    %rax,-0x5a8(%rbp)
   154b7:	48 8d 05 22 bb 00 00 	lea    0xbb22(%rip),%rax        # 20fe0 <g_247>
   154be:	48 89 85 60 fa ff ff 	mov    %rax,-0x5a0(%rbp)
   154c5:	48 8d 05 14 bb 00 00 	lea    0xbb14(%rip),%rax        # 20fe0 <g_247>
   154cc:	48 89 85 68 fa ff ff 	mov    %rax,-0x598(%rbp)
   154d3:	48 8d 85 09 ed ff ff 	lea    -0x12f7(%rbp),%rax
   154da:	48 89 85 70 fa ff ff 	mov    %rax,-0x590(%rbp)
   154e1:	48 8d 05 f8 ba 00 00 	lea    0xbaf8(%rip),%rax        # 20fe0 <g_247>
   154e8:	48 89 85 78 fa ff ff 	mov    %rax,-0x588(%rbp)
   154ef:	48 c7 85 80 fa ff ff 	movq   $0x0,-0x580(%rbp)
   154f6:	00 00 00 00 
   154fa:	48 c7 85 88 fa ff ff 	movq   $0x0,-0x578(%rbp)
   15501:	00 00 00 00 
   15505:	48 c7 85 90 fa ff ff 	movq   $0x0,-0x570(%rbp)
   1550c:	00 00 00 00 
   15510:	48 8d 05 c9 ba 00 00 	lea    0xbac9(%rip),%rax        # 20fe0 <g_247>
   15517:	48 89 85 98 fa ff ff 	mov    %rax,-0x568(%rbp)
   1551e:	48 8d 85 09 ed ff ff 	lea    -0x12f7(%rbp),%rax
   15525:	48 89 85 a0 fa ff ff 	mov    %rax,-0x560(%rbp)
   1552c:	48 8d 05 ad ba 00 00 	lea    0xbaad(%rip),%rax        # 20fe0 <g_247>
   15533:	48 89 85 a8 fa ff ff 	mov    %rax,-0x558(%rbp)
   1553a:	48 c7 85 b0 fa ff ff 	movq   $0x0,-0x550(%rbp)
   15541:	00 00 00 00 
   15545:	48 c7 85 b8 fa ff ff 	movq   $0x0,-0x548(%rbp)
   1554c:	00 00 00 00 
   15550:	48 c7 85 c0 fa ff ff 	movq   $0x0,-0x540(%rbp)
   15557:	00 00 00 00 
   1555b:	48 8d 05 7e ba 00 00 	lea    0xba7e(%rip),%rax        # 20fe0 <g_247>
   15562:	48 89 85 c8 fa ff ff 	mov    %rax,-0x538(%rbp)
   15569:	48 c7 85 d0 fa ff ff 	movq   $0x0,-0x530(%rbp)
   15570:	00 00 00 00 
   15574:	48 8d 05 65 ba 00 00 	lea    0xba65(%rip),%rax        # 20fe0 <g_247>
   1557b:	48 89 85 d8 fa ff ff 	mov    %rax,-0x528(%rbp)
   15582:	48 8d 05 57 ba 00 00 	lea    0xba57(%rip),%rax        # 20fe0 <g_247>
   15589:	48 89 85 e0 fa ff ff 	mov    %rax,-0x520(%rbp)
   15590:	48 8d 05 49 ba 00 00 	lea    0xba49(%rip),%rax        # 20fe0 <g_247>
   15597:	48 89 85 e8 fa ff ff 	mov    %rax,-0x518(%rbp)
   1559e:	48 8d 85 09 ed ff ff 	lea    -0x12f7(%rbp),%rax
   155a5:	48 89 85 f0 fa ff ff 	mov    %rax,-0x510(%rbp)
   155ac:	48 c7 85 f8 fa ff ff 	movq   $0x0,-0x508(%rbp)
   155b3:	00 00 00 00 
   155b7:	48 8d 05 22 ba 00 00 	lea    0xba22(%rip),%rax        # 20fe0 <g_247>
   155be:	48 89 85 00 fb ff ff 	mov    %rax,-0x500(%rbp)
   155c5:	48 8d 05 14 ba 00 00 	lea    0xba14(%rip),%rax        # 20fe0 <g_247>
   155cc:	48 89 85 08 fb ff ff 	mov    %rax,-0x4f8(%rbp)
   155d3:	48 8d 05 06 ba 00 00 	lea    0xba06(%rip),%rax        # 20fe0 <g_247>
   155da:	48 89 85 10 fb ff ff 	mov    %rax,-0x4f0(%rbp)
   155e1:	48 8d 05 f8 b9 00 00 	lea    0xb9f8(%rip),%rax        # 20fe0 <g_247>
   155e8:	48 89 85 18 fb ff ff 	mov    %rax,-0x4e8(%rbp)
   155ef:	48 8d 05 ea b9 00 00 	lea    0xb9ea(%rip),%rax        # 20fe0 <g_247>
   155f6:	48 89 85 20 fb ff ff 	mov    %rax,-0x4e0(%rbp)
   155fd:	48 c7 85 28 fb ff ff 	movq   $0x0,-0x4d8(%rbp)
   15604:	00 00 00 00 
   15608:	48 8d 85 09 ed ff ff 	lea    -0x12f7(%rbp),%rax
   1560f:	48 89 85 30 fb ff ff 	mov    %rax,-0x4d0(%rbp)
   15616:	48 8d 05 c3 b9 00 00 	lea    0xb9c3(%rip),%rax        # 20fe0 <g_247>
   1561d:	48 89 85 38 fb ff ff 	mov    %rax,-0x4c8(%rbp)
   15624:	48 8d 05 b5 b9 00 00 	lea    0xb9b5(%rip),%rax        # 20fe0 <g_247>
   1562b:	48 89 85 40 fb ff ff 	mov    %rax,-0x4c0(%rbp)
   15632:	48 8d 05 a7 b9 00 00 	lea    0xb9a7(%rip),%rax        # 20fe0 <g_247>
   15639:	48 89 85 48 fb ff ff 	mov    %rax,-0x4b8(%rbp)
   15640:	48 8d 85 09 ed ff ff 	lea    -0x12f7(%rbp),%rax
   15647:	48 89 85 50 fb ff ff 	mov    %rax,-0x4b0(%rbp)
   1564e:	48 8d 05 8b b9 00 00 	lea    0xb98b(%rip),%rax        # 20fe0 <g_247>
   15655:	48 89 85 58 fb ff ff 	mov    %rax,-0x4a8(%rbp)
   1565c:	48 8d 05 7d b9 00 00 	lea    0xb97d(%rip),%rax        # 20fe0 <g_247>
   15663:	48 89 85 60 fb ff ff 	mov    %rax,-0x4a0(%rbp)
   1566a:	48 c7 85 68 fb ff ff 	movq   $0x0,-0x498(%rbp)
   15671:	00 00 00 00 
   15675:	48 c7 85 70 fb ff ff 	movq   $0x0,-0x490(%rbp)
   1567c:	00 00 00 00 
   15680:	48 8d 85 09 ed ff ff 	lea    -0x12f7(%rbp),%rax
   15687:	48 89 85 78 fb ff ff 	mov    %rax,-0x488(%rbp)
   1568e:	48 8d 85 09 ed ff ff 	lea    -0x12f7(%rbp),%rax
   15695:	48 89 85 80 fb ff ff 	mov    %rax,-0x480(%rbp)
   1569c:	48 8d 05 3d b9 00 00 	lea    0xb93d(%rip),%rax        # 20fe0 <g_247>
   156a3:	48 89 85 88 fb ff ff 	mov    %rax,-0x478(%rbp)
   156aa:	48 c7 85 90 fb ff ff 	movq   $0x0,-0x470(%rbp)
   156b1:	00 00 00 00 
   156b5:	48 8d 85 09 ed ff ff 	lea    -0x12f7(%rbp),%rax
   156bc:	48 89 85 98 fb ff ff 	mov    %rax,-0x468(%rbp)
   156c3:	48 c7 85 a0 fb ff ff 	movq   $0x0,-0x460(%rbp)
   156ca:	00 00 00 00 
   156ce:	48 8d 05 0b b9 00 00 	lea    0xb90b(%rip),%rax        # 20fe0 <g_247>
   156d5:	48 89 85 a8 fb ff ff 	mov    %rax,-0x458(%rbp)
   156dc:	48 8d 85 09 ed ff ff 	lea    -0x12f7(%rbp),%rax
   156e3:	48 89 85 b0 fb ff ff 	mov    %rax,-0x450(%rbp)
   156ea:	48 8d 05 ef b8 00 00 	lea    0xb8ef(%rip),%rax        # 20fe0 <g_247>
   156f1:	48 89 85 b8 fb ff ff 	mov    %rax,-0x448(%rbp)
   156f8:	48 8d 85 09 ed ff ff 	lea    -0x12f7(%rbp),%rax
   156ff:	48 89 85 c0 fb ff ff 	mov    %rax,-0x440(%rbp)
   15706:	48 8d 05 d3 b8 00 00 	lea    0xb8d3(%rip),%rax        # 20fe0 <g_247>
   1570d:	48 89 85 c8 fb ff ff 	mov    %rax,-0x438(%rbp)
   15714:	48 8d 05 c5 b8 00 00 	lea    0xb8c5(%rip),%rax        # 20fe0 <g_247>
   1571b:	48 89 85 d0 fb ff ff 	mov    %rax,-0x430(%rbp)
   15722:	48 8d 85 09 ed ff ff 	lea    -0x12f7(%rbp),%rax
   15729:	48 89 85 d8 fb ff ff 	mov    %rax,-0x428(%rbp)
   15730:	48 8d 05 a9 b8 00 00 	lea    0xb8a9(%rip),%rax        # 20fe0 <g_247>
   15737:	48 89 85 e0 fb ff ff 	mov    %rax,-0x420(%rbp)
   1573e:	48 c7 85 e8 fb ff ff 	movq   $0x0,-0x418(%rbp)
   15745:	00 00 00 00 
   15749:	48 c7 85 f0 fb ff ff 	movq   $0x0,-0x410(%rbp)
   15750:	00 00 00 00 
   15754:	48 c7 85 f8 fb ff ff 	movq   $0x0,-0x408(%rbp)
   1575b:	00 00 00 00 
   1575f:	48 8d 05 7a b8 00 00 	lea    0xb87a(%rip),%rax        # 20fe0 <g_247>
   15766:	48 89 85 00 fc ff ff 	mov    %rax,-0x400(%rbp)
   1576d:	48 8d 85 09 ed ff ff 	lea    -0x12f7(%rbp),%rax
   15774:	48 89 85 08 fc ff ff 	mov    %rax,-0x3f8(%rbp)
   1577b:	48 8d 05 5e b8 00 00 	lea    0xb85e(%rip),%rax        # 20fe0 <g_247>
   15782:	48 89 85 10 fc ff ff 	mov    %rax,-0x3f0(%rbp)
   15789:	48 c7 85 18 fc ff ff 	movq   $0x0,-0x3e8(%rbp)
   15790:	00 00 00 00 
   15794:	48 c7 85 20 fc ff ff 	movq   $0x0,-0x3e0(%rbp)
   1579b:	00 00 00 00 
   1579f:	48 c7 85 28 fc ff ff 	movq   $0x0,-0x3d8(%rbp)
   157a6:	00 00 00 00 
   157aa:	48 8d 05 2f b8 00 00 	lea    0xb82f(%rip),%rax        # 20fe0 <g_247>
   157b1:	48 89 85 30 fc ff ff 	mov    %rax,-0x3d0(%rbp)
   157b8:	48 c7 85 38 fc ff ff 	movq   $0x0,-0x3c8(%rbp)
   157bf:	00 00 00 00 
   157c3:	48 8d 05 16 b8 00 00 	lea    0xb816(%rip),%rax        # 20fe0 <g_247>
   157ca:	48 89 85 40 fc ff ff 	mov    %rax,-0x3c0(%rbp)
   157d1:	48 8d 05 08 b8 00 00 	lea    0xb808(%rip),%rax        # 20fe0 <g_247>
   157d8:	48 89 85 48 fc ff ff 	mov    %rax,-0x3b8(%rbp)
   157df:	48 8d 05 fa b7 00 00 	lea    0xb7fa(%rip),%rax        # 20fe0 <g_247>
   157e6:	48 89 85 50 fc ff ff 	mov    %rax,-0x3b0(%rbp)
   157ed:	48 8d 85 09 ed ff ff 	lea    -0x12f7(%rbp),%rax
   157f4:	48 89 85 58 fc ff ff 	mov    %rax,-0x3a8(%rbp)
   157fb:	48 c7 85 60 fc ff ff 	movq   $0x0,-0x3a0(%rbp)
   15802:	00 00 00 00 
   15806:	48 8d 05 d3 b7 00 00 	lea    0xb7d3(%rip),%rax        # 20fe0 <g_247>
   1580d:	48 89 85 68 fc ff ff 	mov    %rax,-0x398(%rbp)
   15814:	48 8d 05 c5 b7 00 00 	lea    0xb7c5(%rip),%rax        # 20fe0 <g_247>
   1581b:	48 89 85 70 fc ff ff 	mov    %rax,-0x390(%rbp)
   15822:	48 8d 05 b7 b7 00 00 	lea    0xb7b7(%rip),%rax        # 20fe0 <g_247>
   15829:	48 89 85 78 fc ff ff 	mov    %rax,-0x388(%rbp)
   15830:	48 8d 05 a9 b7 00 00 	lea    0xb7a9(%rip),%rax        # 20fe0 <g_247>
   15837:	48 89 85 80 fc ff ff 	mov    %rax,-0x380(%rbp)
   1583e:	48 8d 05 9b b7 00 00 	lea    0xb79b(%rip),%rax        # 20fe0 <g_247>
   15845:	48 89 85 88 fc ff ff 	mov    %rax,-0x378(%rbp)
   1584c:	48 c7 85 90 fc ff ff 	movq   $0x0,-0x370(%rbp)
   15853:	00 00 00 00 
   15857:	48 8d 85 09 ed ff ff 	lea    -0x12f7(%rbp),%rax
   1585e:	48 89 85 98 fc ff ff 	mov    %rax,-0x368(%rbp)
   15865:	48 8d 05 74 b7 00 00 	lea    0xb774(%rip),%rax        # 20fe0 <g_247>
   1586c:	48 89 85 a0 fc ff ff 	mov    %rax,-0x360(%rbp)
   15873:	48 8d 05 66 b7 00 00 	lea    0xb766(%rip),%rax        # 20fe0 <g_247>
   1587a:	48 89 85 a8 fc ff ff 	mov    %rax,-0x358(%rbp)
   15881:	48 8d 05 58 b7 00 00 	lea    0xb758(%rip),%rax        # 20fe0 <g_247>
   15888:	48 89 85 b0 fc ff ff 	mov    %rax,-0x350(%rbp)
   1588f:	48 8d 85 09 ed ff ff 	lea    -0x12f7(%rbp),%rax
   15896:	48 89 85 b8 fc ff ff 	mov    %rax,-0x348(%rbp)
   1589d:	48 8d 05 3c b7 00 00 	lea    0xb73c(%rip),%rax        # 20fe0 <g_247>
   158a4:	48 89 85 c0 fc ff ff 	mov    %rax,-0x340(%rbp)
   158ab:	48 8d 05 2e b7 00 00 	lea    0xb72e(%rip),%rax        # 20fe0 <g_247>
   158b2:	48 89 85 c8 fc ff ff 	mov    %rax,-0x338(%rbp)
   158b9:	48 c7 85 d0 fc ff ff 	movq   $0x0,-0x330(%rbp)
   158c0:	00 00 00 00 
   158c4:	48 c7 85 d8 fc ff ff 	movq   $0x0,-0x328(%rbp)
   158cb:	00 00 00 00 
   158cf:	48 8d 85 09 ed ff ff 	lea    -0x12f7(%rbp),%rax
   158d6:	48 89 85 e0 fc ff ff 	mov    %rax,-0x320(%rbp)
   158dd:	48 8d 85 09 ed ff ff 	lea    -0x12f7(%rbp),%rax
   158e4:	48 89 85 e8 fc ff ff 	mov    %rax,-0x318(%rbp)
   158eb:	48 8d 05 ee b6 00 00 	lea    0xb6ee(%rip),%rax        # 20fe0 <g_247>
   158f2:	48 89 85 f0 fc ff ff 	mov    %rax,-0x310(%rbp)
   158f9:	48 c7 85 f8 fc ff ff 	movq   $0x0,-0x308(%rbp)
   15900:	00 00 00 00 
   15904:	48 8d 85 09 ed ff ff 	lea    -0x12f7(%rbp),%rax
   1590b:	48 89 85 00 fd ff ff 	mov    %rax,-0x300(%rbp)
   15912:	48 c7 85 08 fd ff ff 	movq   $0x0,-0x2f8(%rbp)
   15919:	00 00 00 00 
   1591d:	48 8d 05 bc b6 00 00 	lea    0xb6bc(%rip),%rax        # 20fe0 <g_247>
   15924:	48 89 85 10 fd ff ff 	mov    %rax,-0x2f0(%rbp)
   1592b:	48 8d 85 09 ed ff ff 	lea    -0x12f7(%rbp),%rax
   15932:	48 89 85 18 fd ff ff 	mov    %rax,-0x2e8(%rbp)
   15939:	48 8d 05 a0 b6 00 00 	lea    0xb6a0(%rip),%rax        # 20fe0 <g_247>
   15940:	48 89 85 20 fd ff ff 	mov    %rax,-0x2e0(%rbp)
   15947:	48 8d 85 09 ed ff ff 	lea    -0x12f7(%rbp),%rax
   1594e:	48 89 85 28 fd ff ff 	mov    %rax,-0x2d8(%rbp)
   15955:	48 8d 05 84 b6 00 00 	lea    0xb684(%rip),%rax        # 20fe0 <g_247>
   1595c:	48 89 85 30 fd ff ff 	mov    %rax,-0x2d0(%rbp)
   15963:	48 8d 05 76 b6 00 00 	lea    0xb676(%rip),%rax        # 20fe0 <g_247>
   1596a:	48 89 85 38 fd ff ff 	mov    %rax,-0x2c8(%rbp)
   15971:	48 8d 05 68 b6 00 00 	lea    0xb668(%rip),%rax        # 20fe0 <g_247>
   15978:	48 89 85 40 fd ff ff 	mov    %rax,-0x2c0(%rbp)
   1597f:	48 c7 85 48 fd ff ff 	movq   $0x0,-0x2b8(%rbp)
   15986:	00 00 00 00 
   1598a:	48 8d 05 4f b6 00 00 	lea    0xb64f(%rip),%rax        # 20fe0 <g_247>
   15991:	48 89 85 50 fd ff ff 	mov    %rax,-0x2b0(%rbp)
   15998:	48 8d 05 41 b6 00 00 	lea    0xb641(%rip),%rax        # 20fe0 <g_247>
   1599f:	48 89 85 58 fd ff ff 	mov    %rax,-0x2a8(%rbp)
   159a6:	48 8d 85 09 ed ff ff 	lea    -0x12f7(%rbp),%rax
   159ad:	48 89 85 60 fd ff ff 	mov    %rax,-0x2a0(%rbp)
   159b4:	48 8d 85 09 ed ff ff 	lea    -0x12f7(%rbp),%rax
   159bb:	48 89 85 68 fd ff ff 	mov    %rax,-0x298(%rbp)
   159c2:	48 8d 85 09 ed ff ff 	lea    -0x12f7(%rbp),%rax
   159c9:	48 89 85 70 fd ff ff 	mov    %rax,-0x290(%rbp)
   159d0:	48 8d 85 09 ed ff ff 	lea    -0x12f7(%rbp),%rax
   159d7:	48 89 85 78 fd ff ff 	mov    %rax,-0x288(%rbp)
   159de:	48 8d 05 fb b5 00 00 	lea    0xb5fb(%rip),%rax        # 20fe0 <g_247>
   159e5:	48 89 85 80 fd ff ff 	mov    %rax,-0x280(%rbp)
   159ec:	48 c7 85 88 fd ff ff 	movq   $0x0,-0x278(%rbp)
   159f3:	00 00 00 00 
   159f7:	48 c7 85 90 fd ff ff 	movq   $0x0,-0x270(%rbp)
   159fe:	00 00 00 00 
   15a02:	48 8d 05 d7 b5 00 00 	lea    0xb5d7(%rip),%rax        # 20fe0 <g_247>
   15a09:	48 89 85 98 fd ff ff 	mov    %rax,-0x268(%rbp)
   15a10:	48 8d 05 c9 b5 00 00 	lea    0xb5c9(%rip),%rax        # 20fe0 <g_247>
   15a17:	48 89 85 a0 fd ff ff 	mov    %rax,-0x260(%rbp)
   15a1e:	48 c7 85 a8 fd ff ff 	movq   $0x0,-0x258(%rbp)
   15a25:	00 00 00 00 
   15a29:	48 8d 05 b0 b5 00 00 	lea    0xb5b0(%rip),%rax        # 20fe0 <g_247>
   15a30:	48 89 85 b0 fd ff ff 	mov    %rax,-0x250(%rbp)
   15a37:	48 c7 85 b8 fd ff ff 	movq   $0x0,-0x248(%rbp)
   15a3e:	00 00 00 00 
   15a42:	48 8d 85 09 ed ff ff 	lea    -0x12f7(%rbp),%rax
   15a49:	48 89 85 c0 fd ff ff 	mov    %rax,-0x240(%rbp)
   15a50:	48 8d 05 89 b5 00 00 	lea    0xb589(%rip),%rax        # 20fe0 <g_247>
   15a57:	48 89 85 c8 fd ff ff 	mov    %rax,-0x238(%rbp)
   15a5e:	48 c7 85 d0 fd ff ff 	movq   $0x0,-0x230(%rbp)
   15a65:	00 00 00 00 
   15a69:	48 c7 85 d8 fd ff ff 	movq   $0x0,-0x228(%rbp)
   15a70:	00 00 00 00 
   15a74:	48 8d 85 09 ed ff ff 	lea    -0x12f7(%rbp),%rax
   15a7b:	48 89 85 e0 fd ff ff 	mov    %rax,-0x220(%rbp)
   15a82:	48 8d 05 57 b5 00 00 	lea    0xb557(%rip),%rax        # 20fe0 <g_247>
   15a89:	48 89 85 e8 fd ff ff 	mov    %rax,-0x218(%rbp)
   15a90:	48 c7 85 f0 fd ff ff 	movq   $0x0,-0x210(%rbp)
   15a97:	00 00 00 00 
   15a9b:	48 8d 05 3e b5 00 00 	lea    0xb53e(%rip),%rax        # 20fe0 <g_247>
   15aa2:	48 89 85 f8 fd ff ff 	mov    %rax,-0x208(%rbp)
   15aa9:	48 8d 85 09 ed ff ff 	lea    -0x12f7(%rbp),%rax
   15ab0:	48 89 85 00 fe ff ff 	mov    %rax,-0x200(%rbp)
   15ab7:	48 8d 05 22 b5 00 00 	lea    0xb522(%rip),%rax        # 20fe0 <g_247>
   15abe:	48 89 85 08 fe ff ff 	mov    %rax,-0x1f8(%rbp)
   15ac5:	48 8d 05 14 b5 00 00 	lea    0xb514(%rip),%rax        # 20fe0 <g_247>
   15acc:	48 89 85 10 fe ff ff 	mov    %rax,-0x1f0(%rbp)
   15ad3:	48 c7 85 18 fe ff ff 	movq   $0x0,-0x1e8(%rbp)
   15ada:	00 00 00 00 
   15ade:	48 8d 05 fb b4 00 00 	lea    0xb4fb(%rip),%rax        # 20fe0 <g_247>
   15ae5:	48 89 85 20 fe ff ff 	mov    %rax,-0x1e0(%rbp)
   15aec:	48 8d 05 ed b4 00 00 	lea    0xb4ed(%rip),%rax        # 20fe0 <g_247>
   15af3:	48 89 85 28 fe ff ff 	mov    %rax,-0x1d8(%rbp)
   15afa:	48 8d 85 09 ed ff ff 	lea    -0x12f7(%rbp),%rax
   15b01:	48 89 85 30 fe ff ff 	mov    %rax,-0x1d0(%rbp)
   15b08:	48 8d 85 09 ed ff ff 	lea    -0x12f7(%rbp),%rax
   15b0f:	48 89 85 38 fe ff ff 	mov    %rax,-0x1c8(%rbp)
   15b16:	48 8d 05 c3 b4 00 00 	lea    0xb4c3(%rip),%rax        # 20fe0 <g_247>
   15b1d:	48 89 85 40 fe ff ff 	mov    %rax,-0x1c0(%rbp)
   15b24:	48 8d 85 09 ed ff ff 	lea    -0x12f7(%rbp),%rax
   15b2b:	48 89 85 48 fe ff ff 	mov    %rax,-0x1b8(%rbp)
   15b32:	48 8d 85 09 ed ff ff 	lea    -0x12f7(%rbp),%rax
   15b39:	48 89 85 50 fe ff ff 	mov    %rax,-0x1b0(%rbp)
   15b40:	48 8d 85 09 ed ff ff 	lea    -0x12f7(%rbp),%rax
   15b47:	48 89 85 58 fe ff ff 	mov    %rax,-0x1a8(%rbp)
   15b4e:	48 c7 85 60 fe ff ff 	movq   $0x0,-0x1a0(%rbp)
   15b55:	00 00 00 00 
   15b59:	48 8d 05 80 b4 00 00 	lea    0xb480(%rip),%rax        # 20fe0 <g_247>
   15b60:	48 89 85 68 fe ff ff 	mov    %rax,-0x198(%rbp)
   15b67:	48 8d 05 72 b4 00 00 	lea    0xb472(%rip),%rax        # 20fe0 <g_247>
   15b6e:	48 89 85 70 fe ff ff 	mov    %rax,-0x190(%rbp)
   15b75:	48 8d 05 64 b4 00 00 	lea    0xb464(%rip),%rax        # 20fe0 <g_247>
   15b7c:	48 89 85 78 fe ff ff 	mov    %rax,-0x188(%rbp)
   15b83:	48 8d 85 09 ed ff ff 	lea    -0x12f7(%rbp),%rax
   15b8a:	48 89 85 80 fe ff ff 	mov    %rax,-0x180(%rbp)
   15b91:	48 8d 05 48 b4 00 00 	lea    0xb448(%rip),%rax        # 20fe0 <g_247>
   15b98:	48 89 85 88 fe ff ff 	mov    %rax,-0x178(%rbp)
   15b9f:	48 8d 05 c2 93 00 00 	lea    0x93c2(%rip),%rax        # 1ef68 <g_693>
   15ba6:	48 89 85 10 ef ff ff 	mov    %rax,-0x10f0(%rbp)
   15bad:	48 8d 85 c0 f2 ff ff 	lea    -0xd40(%rbp),%rax
   15bb4:	48 83 c0 28          	add    $0x28,%rax
   15bb8:	48 89 85 28 ee ff ff 	mov    %rax,-0x11d8(%rbp)
   15bbf:	66 c7 85 1a ed ff ff 	movw   $0xfffc,-0x12e6(%rbp)
   15bc6:	fc ff 
   15bc8:	48 8d 85 28 ed ff ff 	lea    -0x12d8(%rbp),%rax
   15bcf:	48 89 85 18 ef ff ff 	mov    %rax,-0x10e8(%rbp)
   15bd6:	48 8b 85 f8 ec ff ff 	mov    -0x1308(%rbp),%rax
   15bdd:	8b 18                	mov    (%rax),%ebx
   15bdf:	be 08 00 00 00       	mov    $0x8,%esi
   15be4:	bf b2 44 00 00       	mov    $0x44b2,%edi
   15be9:	e8 a4 28 ff ff       	callq  8492 <safe_lshift_func_int16_t_s_s>
   15bee:	44 0f bf e8          	movswl %ax,%r13d
   15bf2:	48 8b 05 b7 76 00 00 	mov    0x76b7(%rip),%rax        # 1d2b0 <g_339>
   15bf9:	89 c2                	mov    %eax,%edx
   15bfb:	48 81 bd e0 ec ff ff 	cmpq   $0x7cbe,-0x1320(%rbp)
   15c02:	be 7c 00 00 
   15c06:	0f 9e c0             	setle  %al
   15c09:	0f b6 c0             	movzbl %al,%eax
   15c0c:	89 d6                	mov    %edx,%esi
   15c0e:	89 c7                	mov    %eax,%edi
   15c10:	e8 10 33 ff ff       	callq  8f25 <safe_div_func_uint32_t_u_u>
   15c15:	48 83 bd 10 ef ff ff 	cmpq   $0x0,-0x10f0(%rbp)
   15c1c:	00 
   15c1d:	0f 94 c0             	sete   %al
   15c20:	0f b6 d0             	movzbl %al,%edx
   15c23:	48 8b 85 00 ee ff ff 	mov    -0x1200(%rbp),%rax
   15c2a:	8b 00                	mov    (%rax),%eax
   15c2c:	39 c2                	cmp    %eax,%edx
   15c2e:	0f 9d c0             	setge  %al
   15c31:	44 0f b6 e0          	movzbl %al,%r12d
   15c35:	48 8b 15 2c 93 00 00 	mov    0x932c(%rip),%rdx        # 1ef68 <g_693>
   15c3c:	48 8b 85 10 ef ff ff 	mov    -0x10f0(%rbp),%rax
   15c43:	48 89 10             	mov    %rdx,(%rax)
   15c46:	48 8b 85 10 ef ff ff 	mov    -0x10f0(%rbp),%rax
   15c4d:	48 8b 00             	mov    (%rax),%rax
   15c50:	48 8d 15 f1 88 00 00 	lea    0x88f1(%rip),%rdx        # 1e548 <g_255>
   15c57:	48 39 d0             	cmp    %rdx,%rax
   15c5a:	0f 95 c0             	setne  %al
   15c5d:	0f b6 d0             	movzbl %al,%edx
   15c60:	48 8b 85 e0 ec ff ff 	mov    -0x1320(%rbp),%rax
   15c67:	0f be c0             	movsbl %al,%eax
   15c6a:	89 d6                	mov    %edx,%esi
   15c6c:	89 c7                	mov    %eax,%edi
   15c6e:	e8 61 25 ff ff       	callq  81d4 <safe_add_func_int8_t_s_s>
   15c73:	48 8b 85 00 ee ff ff 	mov    -0x1200(%rbp),%rax
   15c7a:	8b 00                	mov    (%rax),%eax
   15c7c:	0f b6 c0             	movzbl %al,%eax
   15c7f:	44 89 e6             	mov    %r12d,%esi
   15c82:	89 c7                	mov    %eax,%edi
   15c84:	e8 35 30 ff ff       	callq  8cbe <safe_rshift_func_uint8_t_u_u>
   15c89:	84 c0                	test   %al,%al
   15c8b:	75 0a                	jne    15c97 <func_46+0x53fb>
   15c8d:	48 83 bd e0 ec ff ff 	cmpq   $0x0,-0x1320(%rbp)
   15c94:	00 
   15c95:	74 07                	je     15c9e <func_46+0x5402>
   15c97:	b8 01 00 00 00       	mov    $0x1,%eax
   15c9c:	eb 05                	jmp    15ca3 <func_46+0x5407>
   15c9e:	b8 00 00 00 00       	mov    $0x0,%eax
   15ca3:	89 c7                	mov    %eax,%edi
   15ca5:	e8 ec 28 ff ff       	callq  8596 <safe_unary_minus_func_int32_t_s>
   15caa:	41 39 c5             	cmp    %eax,%r13d
   15cad:	0f 9c c0             	setl   %al
   15cb0:	0f b6 c0             	movzbl %al,%eax
   15cb3:	be 05 00 00 00       	mov    $0x5,%esi
   15cb8:	89 c7                	mov    %eax,%edi
   15cba:	e8 96 27 ff ff       	callq  8455 <safe_div_func_int16_t_s_s>
   15cbf:	48 0f bf c0          	movswq %ax,%rax
   15cc3:	48 39 85 e0 ec ff ff 	cmp    %rax,-0x1320(%rbp)
   15cca:	75 0a                	jne    15cd6 <func_46+0x543a>
   15ccc:	66 83 bd 16 ed ff ff 	cmpw   $0x0,-0x12ea(%rbp)
   15cd3:	00 
   15cd4:	74 07                	je     15cdd <func_46+0x5441>
   15cd6:	ba 01 00 00 00       	mov    $0x1,%edx
   15cdb:	eb 05                	jmp    15ce2 <func_46+0x5446>
   15cdd:	ba 00 00 00 00       	mov    $0x0,%edx
   15ce2:	48 8b 85 28 ee ff ff 	mov    -0x11d8(%rbp),%rax
   15ce9:	66 89 10             	mov    %dx,(%rax)
   15cec:	0f b6 85 08 ed ff ff 	movzbl -0x12f8(%rbp),%eax
   15cf3:	0f b6 c0             	movzbl %al,%eax
   15cf6:	48 8b 15 b3 75 00 00 	mov    0x75b3(%rip),%rdx        # 1d2b0 <g_339>
   15cfd:	48 8d 4a 01          	lea    0x1(%rdx),%rcx
   15d01:	48 63 d0             	movslq %eax,%rdx
   15d04:	48 89 d0             	mov    %rdx,%rax
   15d07:	48 c1 e0 02          	shl    $0x2,%rax
   15d0b:	48 01 d0             	add    %rdx,%rax
   15d0e:	48 01 c0             	add    %rax,%rax
   15d11:	48 01 c8             	add    %rcx,%rax
   15d14:	8b 94 85 c0 f3 ff ff 	mov    -0xc40(%rbp,%rax,4),%edx
   15d1b:	48 8b 85 d0 ed ff ff 	mov    -0x1230(%rbp),%rax
   15d22:	88 10                	mov    %dl,(%rax)
   15d24:	0f b6 00             	movzbl (%rax),%eax
   15d27:	0f be c0             	movsbl %al,%eax
   15d2a:	89 85 5c f2 ff ff    	mov    %eax,-0xda4(%rbp)
   15d30:	8b 85 5c f2 ff ff    	mov    -0xda4(%rbp),%eax
   15d36:	48 98                	cltq   
   15d38:	48 0b 85 e0 ec ff ff 	or     -0x1320(%rbp),%rax
   15d3f:	48 89 c2             	mov    %rax,%rdx
   15d42:	8b 05 e0 72 00 00    	mov    0x72e0(%rip),%eax        # 1d028 <g_25>
   15d48:	48 98                	cltq   
   15d4a:	48 39 c2             	cmp    %rax,%rdx
   15d4d:	0f 9c c0             	setl   %al
   15d50:	0f b6 c0             	movzbl %al,%eax
   15d53:	89 de                	mov    %ebx,%esi
   15d55:	89 c7                	mov    %eax,%edi
   15d57:	e8 a9 28 ff ff       	callq  8605 <safe_sub_func_int32_t_s_s>
   15d5c:	85 c0                	test   %eax,%eax
   15d5e:	74 07                	je     15d67 <func_46+0x54cb>
   15d60:	b8 01 00 00 00       	mov    $0x1,%eax
   15d65:	eb 05                	jmp    15d6c <func_46+0x54d0>
   15d67:	b8 00 00 00 00       	mov    $0x0,%eax
   15d6c:	0f be d0             	movsbl %al,%edx
   15d6f:	8b 85 20 ee ff ff    	mov    -0x11e0(%rbp),%eax
   15d75:	0f be c0             	movsbl %al,%eax
   15d78:	89 d6                	mov    %edx,%esi
   15d7a:	89 c7                	mov    %eax,%edi
   15d7c:	e8 53 24 ff ff       	callq  81d4 <safe_add_func_int8_t_s_s>
   15d81:	0f b6 85 08 ed ff ff 	movzbl -0x12f8(%rbp),%eax
   15d88:	0f b6 c0             	movzbl %al,%eax
   15d8b:	48 8b 15 1e 75 00 00 	mov    0x751e(%rip),%rdx        # 1d2b0 <g_339>
   15d92:	48 8d 4a 01          	lea    0x1(%rdx),%rcx
   15d96:	48 63 d0             	movslq %eax,%rdx
   15d99:	48 89 d0             	mov    %rdx,%rax
   15d9c:	48 c1 e0 02          	shl    $0x2,%rax
   15da0:	48 01 d0             	add    %rdx,%rax
   15da3:	48 01 c0             	add    %rax,%rax
   15da6:	48 01 c8             	add    %rcx,%rax
   15da9:	8b 84 85 c0 f3 ff ff 	mov    -0xc40(%rbp,%rax,4),%eax
   15db0:	3d 35 d0 00 00       	cmp    $0xd035,%eax
   15db5:	7f 3b                	jg     15df2 <func_46+0x5556>
   15db7:	48 c7 85 38 ef ff ff 	movq   $0x0,-0x10c8(%rbp)
   15dbe:	00 00 00 00 
   15dc2:	48 8d 85 20 ee ff ff 	lea    -0x11e0(%rbp),%rax
   15dc9:	48 89 85 40 ef ff ff 	mov    %rax,-0x10c0(%rbp)
   15dd0:	48 8b 85 40 ef ff ff 	mov    -0x10c0(%rbp),%rax
   15dd7:	8b 10                	mov    (%rax),%edx
   15dd9:	48 8b 85 00 ee ff ff 	mov    -0x1200(%rbp),%rax
   15de0:	8b 00                	mov    (%rax),%eax
   15de2:	21 c2                	and    %eax,%edx
   15de4:	48 8b 85 40 ef ff ff 	mov    -0x10c0(%rbp),%rax
   15deb:	89 10                	mov    %edx,(%rax)
   15ded:	e9 2b 02 00 00       	jmpq   1601d <func_46+0x5781>
   15df2:	48 c7 85 20 ef ff ff 	movq   $0x0,-0x10e0(%rbp)
   15df9:	00 00 00 00 
   15dfd:	48 c7 85 28 ef ff ff 	movq   $0x0,-0x10d8(%rbp)
   15e04:	00 00 00 00 
   15e08:	48 8d 85 28 ee ff ff 	lea    -0x11d8(%rbp),%rax
   15e0f:	48 89 85 30 ef ff ff 	mov    %rax,-0x10d0(%rbp)
   15e16:	48 c7 05 af b1 00 00 	movq   $0x0,0xb1af(%rip)        # 20fd0 <g_162>
   15e1d:	00 00 00 00 
   15e21:	eb 35                	jmp    15e58 <func_46+0x55bc>
   15e23:	48 8b 05 a6 b1 00 00 	mov    0xb1a6(%rip),%rax        # 20fd0 <g_162>
   15e2a:	48 8d 14 c5 00 00 00 	lea    0x0(,%rax,8),%rdx
   15e31:	00 
   15e32:	48 8d 05 7f 74 00 00 	lea    0x747f(%rip),%rax        # 1d2b8 <g_375>
   15e39:	48 8b 14 02          	mov    (%rdx,%rax,1),%rdx
   15e3d:	48 8b 85 d8 ed ff ff 	mov    -0x1228(%rbp),%rax
   15e44:	89 10                	mov    %edx,(%rax)
   15e46:	48 8b 05 83 b1 00 00 	mov    0xb183(%rip),%rax        # 20fd0 <g_162>
   15e4d:	48 83 c0 01          	add    $0x1,%rax
   15e51:	48 89 05 78 b1 00 00 	mov    %rax,0xb178(%rip)        # 20fd0 <g_162>
   15e58:	48 8b 05 71 b1 00 00 	mov    0xb171(%rip),%rax        # 20fd0 <g_162>
   15e5f:	48 85 c0             	test   %rax,%rax
   15e62:	74 bf                	je     15e23 <func_46+0x5587>
   15e64:	48 8b 05 05 91 00 00 	mov    0x9105(%rip),%rax        # 1ef70 <g_703>
   15e6b:	48 8b 95 f8 ec ff ff 	mov    -0x1308(%rbp),%rdx
   15e72:	48 89 10             	mov    %rdx,(%rax)
   15e75:	48 8b 85 e0 ec ff ff 	mov    -0x1320(%rbp),%rax
   15e7c:	41 89 c5             	mov    %eax,%r13d
   15e7f:	48 8b 95 28 ee ff ff 	mov    -0x11d8(%rbp),%rdx
   15e86:	48 8b 85 30 ef ff ff 	mov    -0x10d0(%rbp),%rax
   15e8d:	48 89 10             	mov    %rdx,(%rax)
   15e90:	48 8b 85 30 ef ff ff 	mov    -0x10d0(%rbp),%rax
   15e97:	48 8b 00             	mov    (%rax),%rax
   15e9a:	48 39 85 90 ee ff ff 	cmp    %rax,-0x1170(%rbp)
   15ea1:	41 0f 94 c6          	sete   %r14b
   15ea5:	48 8b 85 f0 ec ff ff 	mov    -0x1310(%rbp),%rax
   15eac:	48 8b 10             	mov    (%rax),%rdx
   15eaf:	48 83 c2 01          	add    $0x1,%rdx
   15eb3:	48 89 10             	mov    %rdx,(%rax)
   15eb6:	4c 8b 20             	mov    (%rax),%r12
   15eb9:	48 8b 85 e0 ec ff ff 	mov    -0x1320(%rbp),%rax
   15ec0:	0f bf d8             	movswl %ax,%ebx
   15ec3:	48 8b 85 00 ee ff ff 	mov    -0x1200(%rbp),%rax
   15eca:	8b 00                	mov    (%rax),%eax
   15ecc:	48 63 d0             	movslq %eax,%rdx
   15ecf:	48 83 bd 98 ee ff ff 	cmpq   $0x0,-0x1168(%rbp)
   15ed6:	00 
   15ed7:	0f 95 c0             	setne  %al
   15eda:	0f b6 c0             	movzbl %al,%eax
   15edd:	48 89 d6             	mov    %rdx,%rsi
   15ee0:	48 89 c7             	mov    %rax,%rdi
   15ee3:	e8 46 31 ff ff       	callq  902e <safe_add_func_uint64_t_u_u>
   15ee8:	48 85 c0             	test   %rax,%rax
   15eeb:	75 0a                	jne    15ef7 <func_46+0x565b>
   15eed:	66 83 bd 1a ed ff ff 	cmpw   $0x0,-0x12e6(%rbp)
   15ef4:	00 
   15ef5:	74 07                	je     15efe <func_46+0x5662>
   15ef7:	b8 01 00 00 00       	mov    $0x1,%eax
   15efc:	eb 05                	jmp    15f03 <func_46+0x5667>
   15efe:	b8 00 00 00 00       	mov    $0x0,%eax
   15f03:	98                   	cwtl   
   15f04:	be 02 00 00 00       	mov    $0x2,%esi
   15f09:	89 c7                	mov    %eax,%edi
   15f0b:	e8 53 26 ff ff       	callq  8563 <safe_rshift_func_int16_t_s_u>
   15f10:	98                   	cwtl   
   15f11:	be 00 00 00 00       	mov    $0x0,%esi
   15f16:	89 c7                	mov    %eax,%edi
   15f18:	e8 46 26 ff ff       	callq  8563 <safe_rshift_func_int16_t_s_u>
   15f1d:	48 0f bf d0          	movswq %ax,%rdx
   15f21:	48 8b 05 f8 85 00 00 	mov    0x85f8(%rip),%rax        # 1e520 <g_131>
   15f28:	48 8b 00             	mov    (%rax),%rax
   15f2b:	48 39 c2             	cmp    %rax,%rdx
   15f2e:	0f 92 c2             	setb   %dl
   15f31:	48 8b 85 d0 ed ff ff 	mov    -0x1230(%rbp),%rax
   15f38:	88 10                	mov    %dl,(%rax)
   15f3a:	0f b6 00             	movzbl (%rax),%eax
   15f3d:	0f be d0             	movsbl %al,%edx
   15f40:	48 8b 85 e0 ec ff ff 	mov    -0x1320(%rbp),%rax
   15f47:	0f be c0             	movsbl %al,%eax
   15f4a:	89 d6                	mov    %edx,%esi
   15f4c:	89 c7                	mov    %eax,%edi
   15f4e:	e8 4e 23 ff ff       	callq  82a1 <safe_lshift_func_int8_t_s_s>
   15f53:	0f be c0             	movsbl %al,%eax
   15f56:	89 de                	mov    %ebx,%esi
   15f58:	89 c7                	mov    %eax,%edi
   15f5a:	e8 74 24 ff ff       	callq  83d3 <safe_sub_func_int16_t_s_s>
   15f5f:	0f b7 c0             	movzwl %ax,%eax
   15f62:	be 01 00 00 00       	mov    $0x1,%esi
   15f67:	89 c7                	mov    %eax,%edi
   15f69:	e8 ee 2d ff ff       	callq  8d5c <safe_mod_func_uint16_t_u_u>
   15f6e:	0f b7 d0             	movzwl %ax,%edx
   15f71:	0f b7 05 c8 73 00 00 	movzwl 0x73c8(%rip),%eax        # 1d340 <g_730>
   15f78:	98                   	cwtl   
   15f79:	39 c2                	cmp    %eax,%edx
   15f7b:	0f 9d c0             	setge  %al
   15f7e:	0f b6 c0             	movzbl %al,%eax
   15f81:	89 c7                	mov    %eax,%edi
   15f83:	e8 61 2d ff ff       	callq  8ce9 <safe_unary_minus_func_uint16_t_u>
   15f88:	66 85 c0             	test   %ax,%ax
   15f8b:	0f 95 c0             	setne  %al
   15f8e:	0f b6 c0             	movzbl %al,%eax
   15f91:	89 85 30 f2 ff ff    	mov    %eax,-0xdd0(%rbp)
   15f97:	8b 85 30 f2 ff ff    	mov    -0xdd0(%rbp),%eax
   15f9d:	0f b6 c0             	movzbl %al,%eax
   15fa0:	be 05 00 00 00       	mov    $0x5,%esi
   15fa5:	89 c7                	mov    %eax,%edi
   15fa7:	e8 12 2d ff ff       	callq  8cbe <safe_rshift_func_uint8_t_u_u>
   15fac:	48 8d 85 e8 ed ff ff 	lea    -0x1218(%rbp),%rax
   15fb3:	48 89 05 ce 8f 00 00 	mov    %rax,0x8fce(%rip)        # 1ef88 <g_731+0x8>
   15fba:	48 8b 15 c7 8f 00 00 	mov    0x8fc7(%rip),%rdx        # 1ef88 <g_731+0x8>
   15fc1:	48 8b 85 98 f2 ff ff 	mov    -0xd68(%rbp),%rax
   15fc8:	48 39 c2             	cmp    %rax,%rdx
   15fcb:	75 09                	jne    15fd6 <func_46+0x573a>
   15fcd:	80 bd 0a ed ff ff 00 	cmpb   $0x0,-0x12f6(%rbp)
   15fd4:	74 07                	je     15fdd <func_46+0x5741>
   15fd6:	b8 01 00 00 00       	mov    $0x1,%eax
   15fdb:	eb 05                	jmp    15fe2 <func_46+0x5746>
   15fdd:	b8 00 00 00 00       	mov    $0x0,%eax
   15fe2:	83 f0 f9             	xor    $0xfffffff9,%eax
   15fe5:	48 98                	cltq   
   15fe7:	49 39 c4             	cmp    %rax,%r12
   15fea:	0f 97 c0             	seta   %al
   15fed:	44 09 f0             	or     %r14d,%eax
   15ff0:	0f b6 c0             	movzbl %al,%eax
   15ff3:	89 c6                	mov    %eax,%esi
   15ff5:	bf d1 c0 d7 5e       	mov    $0x5ed7c0d1,%edi
   15ffa:	e8 26 2f ff ff       	callq  8f25 <safe_div_func_uint32_t_u_u>
   15fff:	0f b6 c0             	movzbl %al,%eax
   16002:	83 e0 01             	and    $0x1,%eax
   16005:	44 89 ee             	mov    %r13d,%esi
   16008:	89 c7                	mov    %eax,%edi
   1600a:	e8 af 2c ff ff       	callq  8cbe <safe_rshift_func_uint8_t_u_u>
   1600f:	89 c2                	mov    %eax,%edx
   16011:	48 8b 85 d8 ed ff ff 	mov    -0x1228(%rbp),%rax
   16018:	0f b6 d2             	movzbl %dl,%edx
   1601b:	89 10                	mov    %edx,(%rax)
   1601d:	48 8b 85 f8 ec ff ff 	mov    -0x1308(%rbp),%rax
   16024:	e9 97 06 00 00       	jmpq   166c0 <func_46+0x5e24>
   16029:	c6 05 0e 73 00 00 00 	movb   $0x0,0x730e(%rip)        # 1d33e <g_403>
   16030:	90                   	nop
   16031:	0f b6 05 06 73 00 00 	movzbl 0x7306(%rip),%eax        # 1d33e <g_403>
   16038:	3c 06                	cmp    $0x6,%al
   1603a:	0f 87 53 06 00 00    	ja     16693 <func_46+0x5df7>
   16040:	48 8d 85 00 ee ff ff 	lea    -0x1200(%rbp),%rax
   16047:	48 89 85 18 ee ff ff 	mov    %rax,-0x11e8(%rbp)
   1604e:	48 8d 85 18 ee ff ff 	lea    -0x11e8(%rbp),%rax
   16055:	48 89 85 20 ee ff ff 	mov    %rax,-0x11e0(%rbp)
   1605c:	48 8d 85 20 ee ff ff 	lea    -0x11e0(%rbp),%rax
   16063:	48 89 85 e0 f0 ff ff 	mov    %rax,-0xf20(%rbp)
   1606a:	48 c7 85 e8 f0 ff ff 	movq   $0xfffffffffffffff6,-0xf18(%rbp)
   16071:	f6 ff ff ff 
   16075:	c7 85 60 ed ff ff 00 	movl   $0x0,-0x12a0(%rbp)
   1607c:	00 00 00 
   1607f:	eb 1a                	jmp    1609b <func_46+0x57ff>
   16081:	8b 85 60 ed ff ff    	mov    -0x12a0(%rbp),%eax
   16087:	48 98                	cltq   
   16089:	c7 84 85 50 f5 ff ff 	movl   $0xfffffff9,-0xab0(%rbp,%rax,4)
   16090:	f9 ff ff ff 
   16094:	83 85 60 ed ff ff 01 	addl   $0x1,-0x12a0(%rbp)
   1609b:	83 bd 60 ed ff ff 02 	cmpl   $0x2,-0x12a0(%rbp)
   160a2:	7e dd                	jle    16081 <func_46+0x57e5>
   160a4:	c7 85 44 ed ff ff 00 	movl   $0x0,-0x12bc(%rbp)
   160ab:	00 00 00 
   160ae:	e9 bb 05 00 00       	jmpq   1666e <func_46+0x5dd2>
   160b3:	48 c7 85 f0 f0 ff ff 	movq   $0x0,-0xf10(%rbp)
   160ba:	00 00 00 00 
   160be:	48 8d 05 2b af 00 00 	lea    0xaf2b(%rip),%rax        # 20ff0 <g_391>
   160c5:	48 89 85 28 ee ff ff 	mov    %rax,-0x11d8(%rbp)
   160cc:	48 8d 85 28 ee ff ff 	lea    -0x11d8(%rbp),%rax
   160d3:	48 89 85 f8 f0 ff ff 	mov    %rax,-0xf08(%rbp)
   160da:	48 8b 05 d7 8e 00 00 	mov    0x8ed7(%rip),%rax        # 1efb8 <g_739>
   160e1:	48 8b 95 e0 f0 ff ff 	mov    -0xf20(%rbp),%rdx
   160e8:	48 89 10             	mov    %rdx,(%rax)
   160eb:	48 8b 85 d8 ed ff ff 	mov    -0x1228(%rbp),%rax
   160f2:	8b 00                	mov    (%rax),%eax
   160f4:	48 63 d8             	movslq %eax,%rbx
   160f7:	48 8b 85 e0 ec ff ff 	mov    -0x1320(%rbp),%rax
   160fe:	41 89 c4             	mov    %eax,%r12d
   16101:	8b 85 44 ed ff ff    	mov    -0x12bc(%rbp),%eax
   16107:	8d 50 03             	lea    0x3(%rax),%edx
   1610a:	8b 85 44 ed ff ff    	mov    -0x12bc(%rbp),%eax
   16110:	83 c0 05             	add    $0x5,%eax
   16113:	89 c1                	mov    %eax,%ecx
   16115:	89 d2                	mov    %edx,%edx
   16117:	48 89 d0             	mov    %rdx,%rax
   1611a:	48 c1 e0 02          	shl    $0x2,%rax
   1611e:	48 01 d0             	add    %rdx,%rax
   16121:	48 01 c0             	add    %rax,%rax
   16124:	48 01 c8             	add    %rcx,%rax
   16127:	48 8d 14 c5 00 00 00 	lea    0x0(,%rax,8),%rdx
   1612e:	00 
   1612f:	48 8d 05 ea 8b 00 00 	lea    0x8bea(%rip),%rax        # 1ed20 <g_490>
   16136:	48 8b 14 02          	mov    (%rdx,%rax,1),%rdx
   1613a:	48 8b 05 67 8e 00 00 	mov    0x8e67(%rip),%rax        # 1efa8 <g_741>
   16141:	48 8b 00             	mov    (%rax),%rax
   16144:	48 39 c2             	cmp    %rax,%rdx
   16147:	0f 85 9c 00 00 00    	jne    161e9 <func_46+0x594d>
   1614d:	48 8b 85 e8 f0 ff ff 	mov    -0xf18(%rbp),%rax
   16154:	41 89 c5             	mov    %eax,%r13d
   16157:	48 8b 85 08 ee ff ff 	mov    -0x11f8(%rbp),%rax
   1615e:	0f b6 00             	movzbl (%rax),%eax
   16161:	89 c2                	mov    %eax,%edx
   16163:	48 8b 85 e0 ec ff ff 	mov    -0x1320(%rbp),%rax
   1616a:	31 c2                	xor    %eax,%edx
   1616c:	48 8b 85 08 ee ff ff 	mov    -0x11f8(%rbp),%rax
   16173:	88 10                	mov    %dl,(%rax)
   16175:	48 8b 85 e0 ec ff ff 	mov    -0x1320(%rbp),%rax
   1617c:	0f b6 d0             	movzbl %al,%edx
   1617f:	48 8b 85 f8 ec ff ff 	mov    -0x1308(%rbp),%rax
   16186:	48 85 c0             	test   %rax,%rax
   16189:	0f 94 c0             	sete   %al
   1618c:	0f b6 c0             	movzbl %al,%eax
   1618f:	89 d6                	mov    %edx,%esi
   16191:	89 c7                	mov    %eax,%edi
   16193:	e8 43 2a ff ff       	callq  8bdb <safe_div_func_uint8_t_u_u>
   16198:	48 8b 85 f8 f0 ff ff 	mov    -0xf08(%rbp),%rax
   1619f:	48 8d 15 4a ae 00 00 	lea    0xae4a(%rip),%rdx        # 20ff0 <g_391>
   161a6:	48 89 10             	mov    %rdx,(%rax)
   161a9:	b8 00 00 00 00       	mov    $0x0,%eax
   161ae:	0f b6 c0             	movzbl %al,%eax
   161b1:	44 89 ee             	mov    %r13d,%esi
   161b4:	89 c7                	mov    %eax,%edi
   161b6:	e8 91 2a ff ff       	callq  8c4c <safe_lshift_func_uint8_t_u_u>
   161bb:	0f b6 c0             	movzbl %al,%eax
   161be:	48 39 85 e0 ec ff ff 	cmp    %rax,-0x1320(%rbp)
   161c5:	0f 94 c0             	sete   %al
   161c8:	0f b6 d0             	movzbl %al,%edx
   161cb:	48 8b 85 00 ee ff ff 	mov    -0x1200(%rbp),%rax
   161d2:	8b 00                	mov    (%rax),%eax
   161d4:	21 d0                	and    %edx,%eax
   161d6:	0f b7 c0             	movzwl %ax,%eax
   161d9:	be ee a2 00 00       	mov    $0xa2ee,%esi
   161de:	89 c7                	mov    %eax,%edi
   161e0:	e8 a9 2b ff ff       	callq  8d8e <safe_div_func_uint16_t_u_u>
   161e5:	66 83 f8 01          	cmp    $0x1,%ax
   161e9:	b9 01 00 00 00       	mov    $0x1,%ecx
   161ee:	48 8b 85 d0 ed ff ff 	mov    -0x1230(%rbp),%rax
   161f5:	0f b6 10             	movzbl (%rax),%edx
   161f8:	48 8b 85 d0 ed ff ff 	mov    -0x1230(%rbp),%rax
   161ff:	31 ca                	xor    %ecx,%edx
   16201:	88 10                	mov    %dl,(%rax)
   16203:	48 be 91 59 25 1d b7 	movabs $0xd4e58ab71d255991,%rsi
   1620a:	8a e5 d4 
   1620d:	48 bf 92 21 e4 24 28 	movabs $0x2c034a2824e42192,%rdi
   16214:	4a 03 2c 
   16217:	e8 98 27 ff ff       	callq  89b4 <safe_mod_func_int64_t_s_s>
   1621c:	8b 15 06 6e 00 00    	mov    0x6e06(%rip),%edx        # 1d028 <g_25>
   16222:	48 63 d2             	movslq %edx,%rdx
   16225:	48 39 d0             	cmp    %rdx,%rax
   16228:	0f 95 c0             	setne  %al
   1622b:	0f b6 c0             	movzbl %al,%eax
   1622e:	44 89 e6             	mov    %r12d,%esi
   16231:	89 c7                	mov    %eax,%edi
   16233:	e8 cd 29 ff ff       	callq  8c05 <safe_lshift_func_uint8_t_u_s>
   16238:	0f b6 c0             	movzbl %al,%eax
   1623b:	48 39 85 e0 ec ff ff 	cmp    %rax,-0x1320(%rbp)
   16242:	0f 9d c0             	setge  %al
   16245:	0f b6 d0             	movzbl %al,%edx
   16248:	48 8b 85 18 ee ff ff 	mov    -0x11e8(%rbp),%rax
   1624f:	48 8b 00             	mov    (%rax),%rax
   16252:	8b 00                	mov    (%rax),%eax
   16254:	39 c2                	cmp    %eax,%edx
   16256:	0f 95 c0             	setne  %al
   16259:	0f b6 c0             	movzbl %al,%eax
   1625c:	48 89 de             	mov    %rbx,%rsi
   1625f:	48 89 c7             	mov    %rax,%rdi
   16262:	e8 48 2e ff ff       	callq  90af <safe_div_func_uint64_t_u_u>
   16267:	48 85 c0             	test   %rax,%rax
   1626a:	74 40                	je     162ac <func_46+0x5a10>
   1626c:	c6 85 08 ed ff ff 00 	movb   $0x0,-0x12f8(%rbp)
   16273:	eb 27                	jmp    1629c <func_46+0x5a00>
   16275:	8b 95 50 f5 ff ff    	mov    -0xab0(%rbp),%edx
   1627b:	48 8b 85 f8 ec ff ff 	mov    -0x1308(%rbp),%rax
   16282:	8b 00                	mov    (%rax),%eax
   16284:	21 d0                	and    %edx,%eax
   16286:	89 85 50 f5 ff ff    	mov    %eax,-0xab0(%rbp)
   1628c:	0f b6 85 08 ed ff ff 	movzbl -0x12f8(%rbp),%eax
   16293:	83 c0 01             	add    $0x1,%eax
   16296:	88 85 08 ed ff ff    	mov    %al,-0x12f8(%rbp)
   1629c:	0f b6 85 08 ed ff ff 	movzbl -0x12f8(%rbp),%eax
   162a3:	84 c0                	test   %al,%al
   162a5:	74 ce                	je     16275 <func_46+0x59d9>
   162a7:	e9 95 01 00 00       	jmpq   16441 <func_46+0x5ba5>
   162ac:	48 8d 85 d0 f7 ff ff 	lea    -0x830(%rbp),%rax
   162b3:	48 8d 15 46 34 00 00 	lea    0x3446(%rip),%rdx        # 19700 <g_3087+0x678>
   162ba:	b9 fc 00 00 00       	mov    $0xfc,%ecx
   162bf:	48 89 c7             	mov    %rax,%rdi
   162c2:	48 89 d6             	mov    %rdx,%rsi
   162c5:	f3 48 a5             	rep movsq %ds:(%rsi),%es:(%rdi)
   162c8:	66 c7 05 d7 6f 00 00 	movw   $0x0,0x6fd7(%rip)        # 1d2a8 <g_241>
   162cf:	00 00 
   162d1:	e9 2d 01 00 00       	jmpq   16403 <func_46+0x5b67>
   162d6:	48 c7 85 00 f1 ff ff 	movq   $0x0,-0xf00(%rbp)
   162dd:	00 00 00 00 
   162e1:	48 8b 85 d0 ed ff ff 	mov    -0x1230(%rbp),%rax
   162e8:	0f b6 10             	movzbl (%rax),%edx
   162eb:	48 8b 85 e0 ec ff ff 	mov    -0x1320(%rbp),%rax
   162f2:	89 c1                	mov    %eax,%ecx
   162f4:	48 8b 85 d0 ed ff ff 	mov    -0x1230(%rbp),%rax
   162fb:	09 ca                	or     %ecx,%edx
   162fd:	88 10                	mov    %dl,(%rax)
   162ff:	0f b6 00             	movzbl (%rax),%eax
   16302:	0f be c0             	movsbl %al,%eax
   16305:	89 c6                	mov    %eax,%esi
   16307:	bf 01 00 00 00       	mov    $0x1,%edi
   1630c:	e8 90 1f ff ff       	callq  82a1 <safe_lshift_func_int8_t_s_s>
   16311:	48 8b 85 00 f1 ff ff 	mov    -0xf00(%rbp),%rax
   16318:	48 89 05 b9 8c 00 00 	mov    %rax,0x8cb9(%rip)        # 1efd8 <g_772>
   1631f:	48 8b 05 b2 8c 00 00 	mov    0x8cb2(%rip),%rax        # 1efd8 <g_772>
   16326:	48 85 c0             	test   %rax,%rax
   16329:	75 11                	jne    1633c <func_46+0x5aa0>
   1632b:	48 83 bd e0 ec ff ff 	cmpq   $0x0,-0x1320(%rbp)
   16332:	00 
   16333:	74 07                	je     1633c <func_46+0x5aa0>
   16335:	ba 01 00 00 00       	mov    $0x1,%edx
   1633a:	eb 05                	jmp    16341 <func_46+0x5aa5>
   1633c:	ba 00 00 00 00       	mov    $0x0,%edx
   16341:	48 8b 85 20 ee ff ff 	mov    -0x11e0(%rbp),%rax
   16348:	48 8b 00             	mov    (%rax),%rax
   1634b:	48 8b 00             	mov    (%rax),%rax
   1634e:	8b 00                	mov    (%rax),%eax
   16350:	39 c2                	cmp    %eax,%edx
   16352:	0f 95 c0             	setne  %al
   16355:	0f b6 c0             	movzbl %al,%eax
   16358:	48 39 85 e0 ec ff ff 	cmp    %rax,-0x1320(%rbp)
   1635f:	0f 95 c0             	setne  %al
   16362:	89 c2                	mov    %eax,%edx
   16364:	48 8b 05 4d 8c 00 00 	mov    0x8c4d(%rip),%rax        # 1efb8 <g_739>
   1636b:	48 8b 00             	mov    (%rax),%rax
   1636e:	48 8b 00             	mov    (%rax),%rax
   16371:	48 8b 00             	mov    (%rax),%rax
   16374:	48 8b 00             	mov    (%rax),%rax
   16377:	8b 00                	mov    (%rax),%eax
   16379:	21 d0                	and    %edx,%eax
   1637b:	0f be c0             	movsbl %al,%eax
   1637e:	89 c6                	mov    %eax,%esi
   16380:	bf 01 00 00 00       	mov    $0x1,%edi
   16385:	e8 4a 1e ff ff       	callq  81d4 <safe_add_func_int8_t_s_s>
   1638a:	0f be c8             	movsbl %al,%ecx
   1638d:	48 8b 15 1c 6f 00 00 	mov    0x6f1c(%rip),%rdx        # 1d2b0 <g_339>
   16394:	8b b5 44 ed ff ff    	mov    -0x12bc(%rbp),%esi
   1639a:	48 89 d0             	mov    %rdx,%rax
   1639d:	48 c1 e0 03          	shl    $0x3,%rax
   163a1:	48 29 d0             	sub    %rdx,%rax
   163a4:	48 01 f0             	add    %rsi,%rax
   163a7:	48 8d 14 85 00 00 00 	lea    0x0(,%rax,4),%rdx
   163ae:	00 
   163af:	48 8d 05 0a 6e 00 00 	lea    0x6e0a(%rip),%rax        # 1d1c0 <g_190>
   163b6:	8b 04 02             	mov    (%rdx,%rax,1),%eax
   163b9:	0f be c0             	movsbl %al,%eax
   163bc:	89 ce                	mov    %ecx,%esi
   163be:	89 c7                	mov    %eax,%edi
   163c0:	e8 2d 1e ff ff       	callq  81f2 <safe_sub_func_int8_t_s_s>
   163c5:	48 0f be d0          	movsbq %al,%rdx
   163c9:	48 8b 85 48 fa ff ff 	mov    -0x5b8(%rbp),%rax
   163d0:	48 39 c2             	cmp    %rax,%rdx
   163d3:	0f 96 c0             	setbe  %al
   163d6:	0f b6 d0             	movzbl %al,%edx
   163d9:	48 8b 85 b0 fc ff ff 	mov    -0x350(%rbp),%rax
   163e0:	48 39 c2             	cmp    %rax,%rdx
   163e3:	0f 97 c2             	seta   %dl
   163e6:	48 8b 85 d8 ed ff ff 	mov    -0x1228(%rbp),%rax
   163ed:	0f b6 d2             	movzbl %dl,%edx
   163f0:	89 10                	mov    %edx,(%rax)
   163f2:	0f b7 05 af 6e 00 00 	movzwl 0x6eaf(%rip),%eax        # 1d2a8 <g_241>
   163f9:	83 e8 01             	sub    $0x1,%eax
   163fc:	66 89 05 a5 6e 00 00 	mov    %ax,0x6ea5(%rip)        # 1d2a8 <g_241>
   16403:	0f b7 05 9e 6e 00 00 	movzwl 0x6e9e(%rip),%eax        # 1d2a8 <g_241>
   1640a:	66 85 c0             	test   %ax,%ax
   1640d:	0f 89 c3 fe ff ff    	jns    162d6 <func_46+0x5a3a>
   16413:	48 8b 85 f8 ec ff ff 	mov    -0x1308(%rbp),%rax
   1641a:	8b 00                	mov    (%rax),%eax
   1641c:	85 c0                	test   %eax,%eax
   1641e:	0f 85 57 02 00 00    	jne    1667b <func_46+0x5ddf>
   16424:	48 8b 85 f8 ec ff ff 	mov    -0x1308(%rbp),%rax
   1642b:	8b 00                	mov    (%rax),%eax
   1642d:	85 c0                	test   %eax,%eax
   1642f:	0f 85 32 02 00 00    	jne    16667 <func_46+0x5dcb>
   16435:	48 8b 85 f8 ec ff ff 	mov    -0x1308(%rbp),%rax
   1643c:	e9 7f 02 00 00       	jmpq   166c0 <func_46+0x5e24>
   16441:	c7 85 4c ed ff ff 00 	movl   $0x0,-0x12b4(%rbp)
   16448:	00 00 00 
   1644b:	83 bd 4c ed ff ff 00 	cmpl   $0x0,-0x12b4(%rbp)
   16452:	0f 85 0f 02 00 00    	jne    16667 <func_46+0x5dcb>
   16458:	c7 85 90 ed ff ff 66 	movl   $0x3e9e3c66,-0x1270(%rbp)
   1645f:	3c 9e 3e 
   16462:	c7 85 94 ed ff ff ed 	movl   $0x6c9af7ed,-0x126c(%rbp)
   16469:	f7 9a 6c 
   1646c:	c7 85 98 ed ff ff 3c 	movl   $0x348cae3c,-0x1268(%rbp)
   16473:	ae 8c 34 
   16476:	c7 05 a4 6b 00 00 00 	movl   $0x0,0x6ba4(%rip)        # 1d024 <g_5>
   1647d:	00 00 00 
   16480:	eb 62                	jmp    164e4 <func_46+0x5c48>
   16482:	48 8d 05 37 80 00 00 	lea    0x8037(%rip),%rax        # 1e4c0 <g_62+0xc0>
   16489:	48 89 85 08 f1 ff ff 	mov    %rax,-0xef8(%rbp)
   16490:	48 8b 95 f8 ec ff ff 	mov    -0x1308(%rbp),%rdx
   16497:	48 8b 85 f8 ec ff ff 	mov    -0x1308(%rbp),%rax
   1649e:	8b 12                	mov    (%rdx),%edx
   164a0:	89 10                	mov    %edx,(%rax)
   164a2:	48 8b 85 18 ee ff ff 	mov    -0x11e8(%rbp),%rax
   164a9:	48 8b 95 f8 ec ff ff 	mov    -0x1308(%rbp),%rdx
   164b0:	48 89 10             	mov    %rdx,(%rax)
   164b3:	48 8b 95 f8 ec ff ff 	mov    -0x1308(%rbp),%rdx
   164ba:	48 8b 85 08 f1 ff ff 	mov    -0xef8(%rbp),%rax
   164c1:	48 89 10             	mov    %rdx,(%rax)
   164c4:	48 8b 85 08 f1 ff ff 	mov    -0xef8(%rbp),%rax
   164cb:	48 8b 00             	mov    (%rax),%rax
   164ce:	48 89 85 f8 ec ff ff 	mov    %rax,-0x1308(%rbp)
   164d5:	8b 05 49 6b 00 00    	mov    0x6b49(%rip),%eax        # 1d024 <g_5>
   164db:	83 c0 01             	add    $0x1,%eax
   164de:	89 05 40 6b 00 00    	mov    %eax,0x6b40(%rip)        # 1d024 <g_5>
   164e4:	8b 05 3a 6b 00 00    	mov    0x6b3a(%rip),%eax        # 1d024 <g_5>
   164ea:	85 c0                	test   %eax,%eax
   164ec:	7e 94                	jle    16482 <func_46+0x5be6>
   164ee:	44 0f b7 2d 40 6e 00 	movzwl 0x6e40(%rip),%r13d        # 1d336 <g_389+0x76>
   164f5:	00 
   164f6:	48 8b 85 e0 f0 ff ff 	mov    -0xf20(%rbp),%rax
   164fd:	48 8b 00             	mov    (%rax),%rax
   16500:	48 8b 00             	mov    (%rax),%rax
   16503:	48 8b 00             	mov    (%rax),%rax
   16506:	8b 00                	mov    (%rax),%eax
   16508:	0f b7 d8             	movzwl %ax,%ebx
   1650b:	48 8b 85 20 ee ff ff 	mov    -0x11e0(%rbp),%rax
   16512:	48 8b 00             	mov    (%rax),%rax
   16515:	48 8b 00             	mov    (%rax),%rax
   16518:	44 8b 20             	mov    (%rax),%r12d
   1651b:	48 8b 85 e0 ec ff ff 	mov    -0x1320(%rbp),%rax
   16522:	41 89 c6             	mov    %eax,%r14d
   16525:	be ab da ff ff       	mov    $0xffffdaab,%esi
   1652a:	bf 01 00 00 00       	mov    $0x1,%edi
   1652f:	e8 9f 1e ff ff       	callq  83d3 <safe_sub_func_int16_t_s_s>
   16534:	98                   	cwtl   
   16535:	44 89 f6             	mov    %r14d,%esi
   16538:	89 c7                	mov    %eax,%edi
   1653a:	e8 53 1f ff ff       	callq  8492 <safe_lshift_func_int16_t_s_s>
   1653f:	0f b6 c0             	movzbl %al,%eax
   16542:	be f7 00 00 00       	mov    $0xf7,%esi
   16547:	89 c7                	mov    %eax,%edi
   16549:	e8 0c 26 ff ff       	callq  8b5a <safe_add_func_uint8_t_u_u>
   1654e:	0f b6 c0             	movzbl %al,%eax
   16551:	44 89 e6             	mov    %r12d,%esi
   16554:	89 c7                	mov    %eax,%edi
   16556:	e8 aa 26 ff ff       	callq  8c05 <safe_lshift_func_uint8_t_u_s>
   1655b:	8b 85 98 ed ff ff    	mov    -0x1268(%rbp),%eax
   16561:	0f b7 c0             	movzwl %ax,%eax
   16564:	89 de                	mov    %ebx,%esi
   16566:	89 c7                	mov    %eax,%edi
   16568:	e8 ef 27 ff ff       	callq  8d5c <safe_mod_func_uint16_t_u_u>
   1656d:	66 41 39 c5          	cmp    %ax,%r13w
   16571:	0f 92 c0             	setb   %al
   16574:	0f b6 d0             	movzbl %al,%edx
   16577:	48 8b 85 f8 ec ff ff 	mov    -0x1308(%rbp),%rax
   1657e:	8b 00                	mov    (%rax),%eax
   16580:	39 c2                	cmp    %eax,%edx
   16582:	0f 94 c2             	sete   %dl
   16585:	48 8b 05 34 8a 00 00 	mov    0x8a34(%rip),%rax        # 1efc0 <g_775>
   1658c:	48 8b 00             	mov    (%rax),%rax
   1658f:	0f b6 d2             	movzbl %dl,%edx
   16592:	48 89 10             	mov    %rdx,(%rax)
   16595:	48 8b 00             	mov    (%rax),%rax
   16598:	8b 95 50 f5 ff ff    	mov    -0xab0(%rbp),%edx
   1659e:	31 d0                	xor    %edx,%eax
   165a0:	89 85 50 f5 ff ff    	mov    %eax,-0xab0(%rbp)
   165a6:	48 8b 85 f0 ec ff ff 	mov    -0x1310(%rbp),%rax
   165ad:	48 8b 10             	mov    (%rax),%rdx
   165b0:	8b 85 94 ed ff ff    	mov    -0x126c(%rbp),%eax
   165b6:	48 98                	cltq   
   165b8:	48 39 c2             	cmp    %rax,%rdx
   165bb:	0f 97 c0             	seta   %al
   165be:	0f b6 c0             	movzbl %al,%eax
   165c1:	be 01 00 00 00       	mov    $0x1,%esi
   165c6:	89 c7                	mov    %eax,%edi
   165c8:	e8 28 1e ff ff       	callq  83f5 <safe_mul_func_int16_t_s_s>
   165cd:	48 8b 85 20 ee ff ff 	mov    -0x11e0(%rbp),%rax
   165d4:	48 8b 00             	mov    (%rax),%rax
   165d7:	48 8b 00             	mov    (%rax),%rax
   165da:	8b 00                	mov    (%rax),%eax
   165dc:	48 63 d0             	movslq %eax,%rdx
   165df:	8b 85 5c f2 ff ff    	mov    -0xda4(%rbp),%eax
   165e5:	21 d0                	and    %edx,%eax
   165e7:	89 85 5c f2 ff ff    	mov    %eax,-0xda4(%rbp)
   165ed:	8b 85 5c f2 ff ff    	mov    -0xda4(%rbp),%eax
   165f3:	89 c2                	mov    %eax,%edx
   165f5:	8b 85 94 ed ff ff    	mov    -0x126c(%rbp),%eax
   165fb:	31 d0                	xor    %edx,%eax
   165fd:	0f b6 d0             	movzbl %al,%edx
   16600:	48 8b 85 00 ee ff ff 	mov    -0x1200(%rbp),%rax
   16607:	8b 00                	mov    (%rax),%eax
   16609:	0f b6 c0             	movzbl %al,%eax
   1660c:	89 d6                	mov    %edx,%esi
   1660e:	89 c7                	mov    %eax,%edi
   16610:	e8 7e 25 ff ff       	callq  8b93 <safe_mul_func_uint8_t_u_u>
   16615:	48 8b 05 3c 6a 00 00 	mov    0x6a3c(%rip),%rax        # 1d058 <g_27+0x18>
   1661c:	98                   	cwtl   
   1661d:	89 c7                	mov    %eax,%edi
   1661f:	e8 79 1d ff ff       	callq  839d <safe_unary_minus_func_int16_t_s>
   16624:	98                   	cwtl   
   16625:	89 85 90 ed ff ff    	mov    %eax,-0x1270(%rbp)
   1662b:	bf 00 00 00 00       	mov    $0x0,%edi
   16630:	e8 b4 26 ff ff       	callq  8ce9 <safe_unary_minus_func_uint16_t_u>
   16635:	48 8b 05 6c 89 00 00 	mov    0x896c(%rip),%rax        # 1efa8 <g_741>
   1663c:	48 8b 00             	mov    (%rax),%rax
   1663f:	48 8d 95 20 f2 ff ff 	lea    -0xde0(%rbp),%rdx
   16646:	48 83 c2 18          	add    $0x18,%rdx
   1664a:	48 89 10             	mov    %rdx,(%rax)
   1664d:	48 8b 85 20 ee ff ff 	mov    -0x11e0(%rbp),%rax
   16654:	48 8b 00             	mov    (%rax),%rax
   16657:	48 c7 00 00 00 00 00 	movq   $0x0,(%rax)
   1665e:	48 8b 85 f8 ec ff ff 	mov    -0x1308(%rbp),%rax
   16665:	eb 59                	jmp    166c0 <func_46+0x5e24>
   16667:	83 85 44 ed ff ff 01 	addl   $0x1,-0x12bc(%rbp)
   1666e:	83 bd 44 ed ff ff 00 	cmpl   $0x0,-0x12bc(%rbp)
   16675:	0f 84 38 fa ff ff    	je     160b3 <func_46+0x5817>
   1667b:	8b 05 a7 69 00 00    	mov    0x69a7(%rip),%eax        # 1d028 <g_25>
   16681:	85 c0                	test   %eax,%eax
   16683:	74 05                	je     1668a <func_46+0x5dee>
   16685:	e9 cf a5 ff ff       	jmpq   10c59 <func_46+0x3bd>
   1668a:	48 8b 85 f8 ec ff ff 	mov    -0x1308(%rbp),%rax
   16691:	eb 2d                	jmp    166c0 <func_46+0x5e24>
   16693:	48 8b 05 16 6c 00 00 	mov    0x6c16(%rip),%rax        # 1d2b0 <g_339>
   1669a:	48 83 c0 01          	add    $0x1,%rax
   1669e:	48 89 05 0b 6c 00 00 	mov    %rax,0x6c0b(%rip)        # 1d2b0 <g_339>
   166a5:	48 8b 05 04 6c 00 00 	mov    0x6c04(%rip),%rax        # 1d2b0 <g_339>
   166ac:	48 83 f8 06          	cmp    $0x6,%rax
   166b0:	0f 86 24 b3 ff ff    	jbe    119da <func_46+0x113e>
   166b6:	eb 01                	jmp    166b9 <func_46+0x5e1d>
   166b8:	90                   	nop
   166b9:	48 8b 05 28 89 00 00 	mov    0x8928(%rip),%rax        # 1efe8 <g_802+0x8>
   166c0:	48 8b 5d c8          	mov    -0x38(%rbp),%rbx
   166c4:	64 48 33 1c 25 28 00 	xor    %fs:0x28,%rbx
   166cb:	00 00 
   166cd:	74 05                	je     166d4 <func_46+0x5e38>
   166cf:	e8 9c 19 ff ff       	callq  8070 <__stack_chk_fail@plt>
   166d4:	48 81 c4 08 13 00 00 	add    $0x1308,%rsp
   166db:	5b                   	pop    %rbx
   166dc:	41 5c                	pop    %r12
   166de:	41 5d                	pop    %r13
   166e0:	41 5e                	pop    %r14
   166e2:	41 5f                	pop    %r15
   166e4:	5d                   	pop    %rbp
   166e5:	c3                   	retq   

00000000000166e6 <func_51>:
   166e6:	f3 0f 1e fa          	endbr64 
   166ea:	55                   	push   %rbp
   166eb:	48 89 e5             	mov    %rsp,%rbp
   166ee:	41 57                	push   %r15
   166f0:	41 56                	push   %r14
   166f2:	41 55                	push   %r13
   166f4:	41 54                	push   %r12
   166f6:	53                   	push   %rbx
   166f7:	48 81 ec 00 10 00 00 	sub    $0x1000,%rsp
   166fe:	48 83 0c 24 00       	orq    $0x0,(%rsp)
   16703:	48 81 ec c8 02 00 00 	sub    $0x2c8,%rsp
   1670a:	48 89 bd 28 ed ff ff 	mov    %rdi,-0x12d8(%rbp)
   16711:	48 89 b5 20 ed ff ff 	mov    %rsi,-0x12e0(%rbp)
   16718:	64 48 8b 04 25 28 00 	mov    %fs:0x28,%rax
   1671f:	00 00 
   16721:	48 89 45 c8          	mov    %rax,-0x38(%rbp)
   16725:	31 c0                	xor    %eax,%eax
   16727:	c7 85 64 ed ff ff 8d 	movl   $0x18d198d,-0x129c(%rbp)
   1672e:	19 8d 01 
   16731:	66 c7 85 3a ed ff ff 	movw   $0x1,-0x12c6(%rbp)
   16738:	01 00 
   1673a:	48 8d 05 e7 68 00 00 	lea    0x68e7(%rip),%rax        # 1d028 <g_25>
   16741:	48 89 85 d0 ed ff ff 	mov    %rax,-0x1230(%rbp)
   16748:	c7 85 3c ed ff ff 3b 	movl   $0x774ede3b,-0x12c4(%rbp)
   1674f:	de 4e 77 
   16752:	c7 85 60 ed ff ff fa 	movl   $0xfffffffa,-0x12a0(%rbp)
   16759:	ff ff ff 
   1675c:	c7 85 5c ed ff ff 2a 	movl   $0xa9ed742a,-0x12a4(%rbp)
   16763:	74 ed a9 
   16766:	c7 85 48 ed ff ff be 	movl   $0x64daf6be,-0x12b8(%rbp)
   1676d:	f6 da 64 
   16770:	c7 85 4c ed ff ff 21 	movl   $0x8ef1bb21,-0x12b4(%rbp)
   16777:	bb f1 8e 
   1677a:	48 b8 dd 76 a3 7e 01 	movabs $0x7e9734017ea376dd,%rax
   16781:	34 97 7e 
   16784:	48 89 85 c8 ed ff ff 	mov    %rax,-0x1238(%rbp)
   1678b:	c7 85 50 ed ff ff 00 	movl   $0x0,-0x12b0(%rbp)
   16792:	00 00 00 
   16795:	48 8d 85 10 f8 ff ff 	lea    -0x7f0(%rbp),%rax
   1679c:	48 8d 15 3d 37 00 00 	lea    0x373d(%rip),%rdx        # 19ee0 <g_3087+0xe58>
   167a3:	b9 78 00 00 00       	mov    $0x78,%ecx
   167a8:	48 89 c7             	mov    %rax,%rdi
   167ab:	48 89 d6             	mov    %rdx,%rsi
   167ae:	f3 48 a5             	rep movsq %ds:(%rsi),%es:(%rdi)
   167b1:	c7 85 54 ed ff ff 1e 	movl   $0xaecf41e,-0x12ac(%rbp)
   167b8:	f4 ec 0a 
   167bb:	c7 85 58 ed ff ff 00 	movl   $0x0,-0x12a8(%rbp)
   167c2:	00 00 00 
   167c5:	eb 1a                	jmp    167e1 <func_51+0xfb>
   167c7:	8b 85 58 ed ff ff    	mov    -0x12a8(%rbp),%eax
   167cd:	48 98                	cltq   
   167cf:	c7 84 85 60 ee ff ff 	movl   $0x1,-0x11a0(%rbp,%rax,4)
   167d6:	01 00 00 00 
   167da:	83 85 58 ed ff ff 01 	addl   $0x1,-0x12a8(%rbp)
   167e1:	83 bd 58 ed ff ff 03 	cmpl   $0x3,-0x12a8(%rbp)
   167e8:	7e dd                	jle    167c7 <func_51+0xe1>
   167ea:	c7 05 30 68 00 00 00 	movl   $0x0,0x6830(%rip)        # 1d024 <g_5>
   167f1:	00 00 00 
   167f4:	e9 ed 18 00 00       	jmpq   180e6 <func_51+0x1a00>
   167f9:	c7 85 c0 ee ff ff 09 	movl   $0x9,-0x1140(%rbp)
   16800:	00 00 00 
   16803:	c7 85 c4 ee ff ff f9 	movl   $0xfffffff9,-0x113c(%rbp)
   1680a:	ff ff ff 
   1680d:	c7 85 c8 ee ff ff 09 	movl   $0x9,-0x1138(%rbp)
   16814:	00 00 00 
   16817:	c7 85 cc ee ff ff f9 	movl   $0xfffffff9,-0x1134(%rbp)
   1681e:	ff ff ff 
   16821:	c7 85 d0 ee ff ff 09 	movl   $0x9,-0x1130(%rbp)
   16828:	00 00 00 
   1682b:	c7 85 d4 ee ff ff f9 	movl   $0xfffffff9,-0x112c(%rbp)
   16832:	ff ff ff 
   16835:	c7 85 d8 ee ff ff 09 	movl   $0x9,-0x1128(%rbp)
   1683c:	00 00 00 
   1683f:	c7 85 dc ee ff ff f9 	movl   $0xfffffff9,-0x1124(%rbp)
   16846:	ff ff ff 
   16849:	c7 85 e0 ee ff ff 09 	movl   $0x9,-0x1120(%rbp)
   16850:	00 00 00 
   16853:	c7 85 e4 ee ff ff f9 	movl   $0xfffffff9,-0x111c(%rbp)
   1685a:	ff ff ff 
   1685d:	c7 85 e8 ee ff ff 09 	movl   $0x9,-0x1118(%rbp)
   16864:	00 00 00 
   16867:	c7 85 ec ee ff ff f9 	movl   $0xfffffff9,-0x1114(%rbp)
   1686e:	ff ff ff 
   16871:	c7 85 f0 ee ff ff 09 	movl   $0x9,-0x1110(%rbp)
   16878:	00 00 00 
   1687b:	c7 85 f4 ee ff ff f9 	movl   $0xfffffff9,-0x110c(%rbp)
   16882:	ff ff ff 
   16885:	c7 85 f8 ee ff ff 09 	movl   $0x9,-0x1108(%rbp)
   1688c:	00 00 00 
   1688f:	c7 85 fc ee ff ff f9 	movl   $0xfffffff9,-0x1104(%rbp)
   16896:	ff ff ff 
   16899:	c7 85 00 ef ff ff 09 	movl   $0x9,-0x1100(%rbp)
   168a0:	00 00 00 
   168a3:	c7 85 04 ef ff ff f9 	movl   $0xfffffff9,-0x10fc(%rbp)
   168aa:	ff ff ff 
   168ad:	c7 85 08 ef ff ff 09 	movl   $0x9,-0x10f8(%rbp)
   168b4:	00 00 00 
   168b7:	c7 85 0c ef ff ff f9 	movl   $0xfffffff9,-0x10f4(%rbp)
   168be:	ff ff ff 
   168c1:	c7 85 10 ef ff ff 09 	movl   $0x9,-0x10f0(%rbp)
   168c8:	00 00 00 
   168cb:	c7 85 14 ef ff ff f9 	movl   $0xfffffff9,-0x10ec(%rbp)
   168d2:	ff ff ff 
   168d5:	c7 85 18 ef ff ff 09 	movl   $0x9,-0x10e8(%rbp)
   168dc:	00 00 00 
   168df:	c7 85 1c ef ff ff f9 	movl   $0xfffffff9,-0x10e4(%rbp)
   168e6:	ff ff ff 
   168e9:	c7 85 20 ef ff ff 09 	movl   $0x9,-0x10e0(%rbp)
   168f0:	00 00 00 
   168f3:	c7 85 24 ef ff ff f9 	movl   $0xfffffff9,-0x10dc(%rbp)
   168fa:	ff ff ff 
   168fd:	c7 85 28 ef ff ff 09 	movl   $0x9,-0x10d8(%rbp)
   16904:	00 00 00 
   16907:	48 c7 85 a0 ed ff ff 	movq   $0x0,-0x1260(%rbp)
   1690e:	00 00 00 00 
   16912:	c7 85 40 ed ff ff e9 	movl   $0x53b525e9,-0x12c0(%rbp)
   16919:	25 b5 53 
   1691c:	c7 85 7c ed ff ff fb 	movl   $0xfffffffb,-0x1284(%rbp)
   16923:	ff ff ff 
   16926:	c7 85 80 ed ff ff 00 	movl   $0x0,-0x1280(%rbp)
   1692d:	00 00 00 
   16930:	c7 85 84 ed ff ff 00 	movl   $0x0,-0x127c(%rbp)
   16937:	00 00 00 
   1693a:	c7 85 88 ed ff ff ff 	movl   $0xffffffff,-0x1278(%rbp)
   16941:	ff ff ff 
   16944:	c7 85 70 ee ff ff e9 	movl   $0x89050e9,-0x1190(%rbp)
   1694b:	50 90 08 
   1694e:	c7 85 74 ee ff ff e9 	movl   $0x89050e9,-0x118c(%rbp)
   16955:	50 90 08 
   16958:	c7 85 78 ee ff ff e9 	movl   $0x89050e9,-0x1188(%rbp)
   1695f:	50 90 08 
   16962:	c7 85 7c ee ff ff e9 	movl   $0x89050e9,-0x1184(%rbp)
   16969:	50 90 08 
   1696c:	c7 85 80 ee ff ff e9 	movl   $0x89050e9,-0x1180(%rbp)
   16973:	50 90 08 
   16976:	c7 85 84 ee ff ff e9 	movl   $0x89050e9,-0x117c(%rbp)
   1697d:	50 90 08 
   16980:	48 8d 05 39 7b 00 00 	lea    0x7b39(%rip),%rax        # 1e4c0 <g_62+0xc0>
   16987:	48 89 85 d8 ed ff ff 	mov    %rax,-0x1228(%rbp)
   1698e:	c7 85 8c ed ff ff db 	movl   $0x471aa7db,-0x1274(%rbp)
   16995:	a7 1a 47 
   16998:	48 8d 85 40 ed ff ff 	lea    -0x12c0(%rbp),%rax
   1699f:	48 89 85 e0 ed ff ff 	mov    %rax,-0x1220(%rbp)
   169a6:	c7 85 78 ed ff ff 00 	movl   $0x0,-0x1288(%rbp)
   169ad:	00 00 00 
   169b0:	e9 88 00 00 00       	jmpq   16a3d <func_51+0x357>
   169b5:	c7 85 74 ed ff ff 00 	movl   $0x0,-0x128c(%rbp)
   169bc:	00 00 00 
   169bf:	eb 6c                	jmp    16a2d <func_51+0x347>
   169c1:	c7 85 68 ed ff ff 00 	movl   $0x0,-0x1298(%rbp)
   169c8:	00 00 00 
   169cb:	eb 50                	jmp    16a1d <func_51+0x337>
   169cd:	8b 85 68 ed ff ff    	mov    -0x1298(%rbp),%eax
   169d3:	48 63 f0             	movslq %eax,%rsi
   169d6:	8b 85 78 ed ff ff    	mov    -0x1288(%rbp),%eax
   169dc:	48 63 d0             	movslq %eax,%rdx
   169df:	8b 85 74 ed ff ff    	mov    -0x128c(%rbp),%eax
   169e5:	48 63 c8             	movslq %eax,%rcx
   169e8:	48 89 d0             	mov    %rdx,%rax
   169eb:	48 c1 e0 03          	shl    $0x3,%rax
   169ef:	48 29 d0             	sub    %rdx,%rax
   169f2:	48 c1 e0 02          	shl    $0x2,%rax
   169f6:	48 89 ca             	mov    %rcx,%rdx
   169f9:	48 c1 e2 03          	shl    $0x3,%rdx
   169fd:	48 29 ca             	sub    %rcx,%rdx
   16a00:	48 01 d0             	add    %rdx,%rax
   16a03:	48 8d 14 30          	lea    (%rax,%rsi,1),%rdx
   16a07:	48 8d 85 a0 ed ff ff 	lea    -0x1260(%rbp),%rax
   16a0e:	48 89 84 d5 10 f1 ff 	mov    %rax,-0xef0(%rbp,%rdx,8)
   16a15:	ff 
   16a16:	83 85 68 ed ff ff 01 	addl   $0x1,-0x1298(%rbp)
   16a1d:	83 bd 68 ed ff ff 06 	cmpl   $0x6,-0x1298(%rbp)
   16a24:	7e a7                	jle    169cd <func_51+0x2e7>
   16a26:	83 85 74 ed ff ff 01 	addl   $0x1,-0x128c(%rbp)
   16a2d:	83 bd 74 ed ff ff 03 	cmpl   $0x3,-0x128c(%rbp)
   16a34:	7e 8b                	jle    169c1 <func_51+0x2db>
   16a36:	83 85 78 ed ff ff 01 	addl   $0x1,-0x1288(%rbp)
   16a3d:	83 bd 78 ed ff ff 03 	cmpl   $0x3,-0x1288(%rbp)
   16a44:	0f 8e 6b ff ff ff    	jle    169b5 <func_51+0x2cf>
   16a4a:	c7 05 d4 65 00 00 03 	movl   $0x3,0x65d4(%rip)        # 1d028 <g_25>
   16a51:	00 00 00 
   16a54:	90                   	nop
   16a55:	8b 05 cd 65 00 00    	mov    0x65cd(%rip),%eax        # 1d028 <g_25>
   16a5b:	85 c0                	test   %eax,%eax
   16a5d:	0f 88 5a 16 00 00    	js     180bd <func_51+0x19d7>
   16a63:	48 8d 05 be 65 00 00 	lea    0x65be(%rip),%rax        # 1d028 <g_25>
   16a6a:	48 89 85 a8 ed ff ff 	mov    %rax,-0x1258(%rbp)
   16a71:	48 8d 85 a8 ed ff ff 	lea    -0x1258(%rbp),%rax
   16a78:	48 89 85 e8 ed ff ff 	mov    %rax,-0x1218(%rbp)
   16a7f:	c7 85 44 ed ff ff fd 	movl   $0xfffffffd,-0x12bc(%rbp)
   16a86:	ff ff ff 
   16a89:	48 8d 05 10 66 00 00 	lea    0x6610(%rip),%rax        # 1d0a0 <g_89>
   16a90:	48 89 85 f0 ed ff ff 	mov    %rax,-0x1210(%rbp)
   16a97:	48 c7 85 f8 ed ff ff 	movq   $0x0,-0x1208(%rbp)
   16a9e:	00 00 00 00 
   16aa2:	48 8d 05 94 66 00 00 	lea    0x6694(%rip),%rax        # 1d13d <g_92+0x7d>
   16aa9:	48 89 85 00 ee ff ff 	mov    %rax,-0x1200(%rbp)
   16ab0:	48 b8 36 5e 8b e7 ae 	movabs $0x344571aee78b5e36,%rax
   16ab7:	71 45 34 
   16aba:	48 89 85 b0 ed ff ff 	mov    %rax,-0x1250(%rbp)
   16ac1:	c7 85 90 ed ff ff 09 	movl   $0x29a73209,-0x1270(%rbp)
   16ac8:	32 a7 29 
   16acb:	c7 85 94 ed ff ff 89 	movl   $0xd1301089,-0x126c(%rbp)
   16ad2:	10 30 d1 
   16ad5:	48 8d 85 30 ef ff ff 	lea    -0x10d0(%rbp),%rax
   16adc:	48 8d 15 bd 37 00 00 	lea    0x37bd(%rip),%rdx        # 1a2a0 <g_3087+0x1218>
   16ae3:	b9 3c 00 00 00       	mov    $0x3c,%ecx
   16ae8:	48 89 c7             	mov    %rax,%rdi
   16aeb:	48 89 d6             	mov    %rdx,%rsi
   16aee:	f3 48 a5             	rep movsq %ds:(%rsi),%es:(%rdi)
   16af1:	48 8d 85 10 f1 ff ff 	lea    -0xef0(%rbp),%rax
   16af8:	48 05 80 02 00 00    	add    $0x280,%rax
   16afe:	48 89 85 08 ee ff ff 	mov    %rax,-0x11f8(%rbp)
   16b05:	48 c7 85 b8 ed ff ff 	movq   $0x0,-0x1248(%rbp)
   16b0c:	00 00 00 00 
   16b10:	48 8d 85 b8 ed ff ff 	lea    -0x1248(%rbp),%rax
   16b17:	48 89 85 10 ee ff ff 	mov    %rax,-0x11f0(%rbp)
   16b1e:	c7 85 6c ed ff ff 00 	movl   $0x0,-0x1294(%rbp)
   16b25:	00 00 00 
   16b28:	eb 1a                	jmp    16b44 <func_51+0x45e>
   16b2a:	8b 85 6c ed ff ff    	mov    -0x1294(%rbp),%eax
   16b30:	48 98                	cltq   
   16b32:	c7 84 85 90 ee ff ff 	movl   $0x2f7f9317,-0x1170(%rbp,%rax,4)
   16b39:	17 93 7f 2f 
   16b3d:	83 85 6c ed ff ff 01 	addl   $0x1,-0x1294(%rbp)
   16b44:	83 bd 6c ed ff ff 09 	cmpl   $0x9,-0x1294(%rbp)
   16b4b:	7e dd                	jle    16b2a <func_51+0x444>
   16b4d:	8b 05 45 65 00 00    	mov    0x6545(%rip),%eax        # 1d098 <g_63>
   16b53:	0f b7 d8             	movzwl %ax,%ebx
   16b56:	44 8b a5 64 ed ff ff 	mov    -0x129c(%rbp),%r12d
   16b5d:	8b 05 c1 64 00 00    	mov    0x64c1(%rip),%eax        # 1d024 <g_5>
   16b63:	4c 63 e8             	movslq %eax,%r13
   16b66:	8b 85 ec ee ff ff    	mov    -0x1114(%rbp),%eax
   16b6c:	41 89 c7             	mov    %eax,%r15d
   16b6f:	8b 85 64 ed ff ff    	mov    -0x129c(%rbp),%eax
   16b75:	44 0f bf f0          	movswl %ax,%r14d
   16b79:	8b 85 20 ef ff ff    	mov    -0x10e0(%rbp),%eax
   16b7f:	89 85 1c ed ff ff    	mov    %eax,-0x12e4(%rbp)
   16b85:	8b 85 ec ee ff ff    	mov    -0x1114(%rbp),%eax
   16b8b:	85 c0                	test   %eax,%eax
   16b8d:	0f 95 c0             	setne  %al
   16b90:	0f b6 c0             	movzbl %al,%eax
   16b93:	be ff ff ff ff       	mov    $0xffffffff,%esi
   16b98:	89 c7                	mov    %eax,%edi
   16b9a:	e8 cb 16 ff ff       	callq  826a <safe_div_func_int8_t_s_s>
   16b9f:	0f be c0             	movsbl %al,%eax
   16ba2:	8b b5 1c ed ff ff    	mov    -0x12e4(%rbp),%esi
   16ba8:	89 c7                	mov    %eax,%edi
   16baa:	e8 07 1a ff ff       	callq  85b6 <safe_add_func_int32_t_s_s>
   16baf:	0f be c0             	movsbl %al,%eax
   16bb2:	be fc ff ff ff       	mov    $0xfffffffc,%esi
   16bb7:	89 c7                	mov    %eax,%edi
   16bb9:	e8 ac 16 ff ff       	callq  826a <safe_div_func_int8_t_s_s>
   16bbe:	84 c0                	test   %al,%al
   16bc0:	74 10                	je     16bd2 <func_51+0x4ec>
   16bc2:	83 bd 64 ed ff ff 00 	cmpl   $0x0,-0x129c(%rbp)
   16bc9:	74 07                	je     16bd2 <func_51+0x4ec>
   16bcb:	b8 01 00 00 00       	mov    $0x1,%eax
   16bd0:	eb 05                	jmp    16bd7 <func_51+0x4f1>
   16bd2:	b8 00 00 00 00       	mov    $0x0,%eax
   16bd7:	89 c2                	mov    %eax,%edx
   16bd9:	8b 85 0c ef ff ff    	mov    -0x10f4(%rbp),%eax
   16bdf:	39 c2                	cmp    %eax,%edx
   16be1:	0f 92 c0             	setb   %al
   16be4:	0f b6 c0             	movzbl %al,%eax
   16be7:	44 89 f6             	mov    %r14d,%esi
   16bea:	89 c7                	mov    %eax,%edi
   16bec:	e8 c2 17 ff ff       	callq  83b3 <safe_add_func_int16_t_s_s>
   16bf1:	98                   	cwtl   
   16bf2:	39 85 64 ed ff ff    	cmp    %eax,-0x129c(%rbp)
   16bf8:	b9 01 00 00 00       	mov    $0x1,%ecx
   16bfd:	48 8b 85 f0 ed ff ff 	mov    -0x1210(%rbp),%rax
   16c04:	48 8b 10             	mov    (%rax),%rdx
   16c07:	48 63 c1             	movslq %ecx,%rax
   16c0a:	48 31 c2             	xor    %rax,%rdx
   16c0d:	48 8b 85 f0 ed ff ff 	mov    -0x1210(%rbp),%rax
   16c14:	48 89 10             	mov    %rdx,(%rax)
   16c17:	48 8b 85 f0 ed ff ff 	mov    -0x1210(%rbp),%rax
   16c1e:	48 8b 00             	mov    (%rax),%rax
   16c21:	48 89 c2             	mov    %rax,%rdx
   16c24:	48 8b 05 9d a3 00 00 	mov    0xa39d(%rip),%rax        # 20fc8 <g_72>
   16c2b:	48 85 c0             	test   %rax,%rax
   16c2e:	0f 95 c0             	setne  %al
   16c31:	0f b6 c0             	movzbl %al,%eax
   16c34:	48 89 d6             	mov    %rdx,%rsi
   16c37:	48 89 c7             	mov    %rax,%rdi
   16c3a:	e8 0c 24 ff ff       	callq  904b <safe_sub_func_uint64_t_u_u>
   16c3f:	0f be c0             	movsbl %al,%eax
   16c42:	44 89 fe             	mov    %r15d,%esi
   16c45:	89 c7                	mov    %eax,%edi
   16c47:	e8 55 16 ff ff       	callq  82a1 <safe_lshift_func_int8_t_s_s>
   16c4c:	84 c0                	test   %al,%al
   16c4e:	0f 95 c0             	setne  %al
   16c51:	0f b6 c0             	movzbl %al,%eax
   16c54:	4c 89 ee             	mov    %r13,%rsi
   16c57:	48 89 c7             	mov    %rax,%rdi
   16c5a:	e8 e2 1b ff ff       	callq  8841 <safe_add_func_int64_t_s_s>
   16c5f:	98                   	cwtl   
   16c60:	44 89 e6             	mov    %r12d,%esi
   16c63:	89 c7                	mov    %eax,%edi
   16c65:	e8 28 18 ff ff       	callq  8492 <safe_lshift_func_int16_t_s_s>
   16c6a:	0f bf d0             	movswl %ax,%edx
   16c6d:	8b 0d b5 63 00 00    	mov    0x63b5(%rip),%ecx        # 1d028 <g_25>
   16c73:	8b 05 ab 63 00 00    	mov    0x63ab(%rip),%eax        # 1d024 <g_5>
   16c79:	48 98                	cltq   
   16c7b:	48 63 c9             	movslq %ecx,%rcx
   16c7e:	48 c1 e1 02          	shl    $0x2,%rcx
   16c82:	48 01 c8             	add    %rcx,%rax
   16c85:	48 8d 0c c5 00 00 00 	lea    0x0(,%rax,8),%rcx
   16c8c:	00 
   16c8d:	48 8d 05 cc 76 00 00 	lea    0x76cc(%rip),%rax        # 1e360 <g_28>
   16c94:	48 8b 34 01          	mov    (%rcx,%rax,1),%rsi
   16c98:	48 8b 8d a8 ed ff ff 	mov    -0x1258(%rbp),%rcx
   16c9f:	48 8b 85 e8 ed ff ff 	mov    -0x1218(%rbp),%rax
   16ca6:	48 89 08             	mov    %rcx,(%rax)
   16ca9:	48 8b 85 e8 ed ff ff 	mov    -0x1218(%rbp),%rax
   16cb0:	48 8b 00             	mov    (%rax),%rax
   16cb3:	48 89 05 06 78 00 00 	mov    %rax,0x7806(%rip)        # 1e4c0 <g_62+0xc0>
   16cba:	48 8b 05 ff 77 00 00 	mov    0x77ff(%rip),%rax        # 1e4c0 <g_62+0xc0>
   16cc1:	48 39 c6             	cmp    %rax,%rsi
   16cc4:	0f 94 c0             	sete   %al
   16cc7:	0f b6 c0             	movzbl %al,%eax
   16cca:	89 d6                	mov    %edx,%esi
   16ccc:	89 c7                	mov    %eax,%edi
   16cce:	e8 79 1f ff ff       	callq  8c4c <safe_lshift_func_uint8_t_u_u>
   16cd3:	83 c8 c1             	or     $0xffffffc1,%eax
   16cd6:	0f b6 d0             	movzbl %al,%edx
   16cd9:	48 8b 85 00 ee ff ff 	mov    -0x1200(%rbp),%rax
   16ce0:	0f b6 00             	movzbl (%rax),%eax
   16ce3:	31 c2                	xor    %eax,%edx
   16ce5:	48 8b 85 00 ee ff ff 	mov    -0x1200(%rbp),%rax
   16cec:	88 10                	mov    %dl,(%rax)
   16cee:	48 8b 85 00 ee ff ff 	mov    -0x1200(%rbp),%rax
   16cf5:	0f b6 00             	movzbl (%rax),%eax
   16cf8:	0f be d0             	movsbl %al,%edx
   16cfb:	0f b7 85 3a ed ff ff 	movzwl -0x12c6(%rbp),%eax
   16d02:	0f b7 c0             	movzwl %ax,%eax
   16d05:	39 c2                	cmp    %eax,%edx
   16d07:	0f 9d c0             	setge  %al
   16d0a:	0f b6 c0             	movzbl %al,%eax
   16d0d:	89 de                	mov    %ebx,%esi
   16d0f:	89 c7                	mov    %eax,%edi
   16d11:	e8 09 20 ff ff       	callq  8d1f <safe_sub_func_uint16_t_u_u>
   16d16:	48 8b 85 e8 ed ff ff 	mov    -0x1218(%rbp),%rax
   16d1d:	48 8b 00             	mov    (%rax),%rax
   16d20:	8b 00                	mov    (%rax),%eax
   16d22:	89 c2                	mov    %eax,%edx
   16d24:	8b 85 ec ee ff ff    	mov    -0x1114(%rbp),%eax
   16d2a:	39 c2                	cmp    %eax,%edx
   16d2c:	0f 85 32 0f 00 00    	jne    17c64 <func_51+0x157e>
   16d32:	66 c7 85 3a ed ff ff 	movw   $0x0,-0x12c6(%rbp)
   16d39:	00 00 
   16d3b:	e9 08 0f 00 00       	jmpq   17c48 <func_51+0x1562>
   16d40:	48 8d 05 49 63 00 00 	lea    0x6349(%rip),%rax        # 1d090 <g_55>
   16d47:	48 89 85 c0 ed ff ff 	mov    %rax,-0x1240(%rbp)
   16d4e:	48 c7 85 d0 fb ff ff 	movq   $0x0,-0x430(%rbp)
   16d55:	00 00 00 00 
   16d59:	48 8d 85 c0 ed ff ff 	lea    -0x1240(%rbp),%rax
   16d60:	48 89 85 d8 fb ff ff 	mov    %rax,-0x428(%rbp)
   16d67:	48 c7 85 e0 fb ff ff 	movq   $0x0,-0x420(%rbp)
   16d6e:	00 00 00 00 
   16d72:	48 8d 85 c0 ed ff ff 	lea    -0x1240(%rbp),%rax
   16d79:	48 89 85 e8 fb ff ff 	mov    %rax,-0x418(%rbp)
   16d80:	48 8d 85 c0 ed ff ff 	lea    -0x1240(%rbp),%rax
   16d87:	48 89 85 f0 fb ff ff 	mov    %rax,-0x410(%rbp)
   16d8e:	48 8d 85 c0 ed ff ff 	lea    -0x1240(%rbp),%rax
   16d95:	48 89 85 f8 fb ff ff 	mov    %rax,-0x408(%rbp)
   16d9c:	48 8d 85 c0 ed ff ff 	lea    -0x1240(%rbp),%rax
   16da3:	48 89 85 00 fc ff ff 	mov    %rax,-0x400(%rbp)
   16daa:	48 8d 85 c0 ed ff ff 	lea    -0x1240(%rbp),%rax
   16db1:	48 89 85 08 fc ff ff 	mov    %rax,-0x3f8(%rbp)
   16db8:	48 8d 85 c0 ed ff ff 	lea    -0x1240(%rbp),%rax
   16dbf:	48 89 85 10 fc ff ff 	mov    %rax,-0x3f0(%rbp)
   16dc6:	48 c7 85 18 fc ff ff 	movq   $0x0,-0x3e8(%rbp)
   16dcd:	00 00 00 00 
   16dd1:	48 8d 85 c0 ed ff ff 	lea    -0x1240(%rbp),%rax
   16dd8:	48 89 85 20 fc ff ff 	mov    %rax,-0x3e0(%rbp)
   16ddf:	48 8d 85 c0 ed ff ff 	lea    -0x1240(%rbp),%rax
   16de6:	48 89 85 28 fc ff ff 	mov    %rax,-0x3d8(%rbp)
   16ded:	48 8d 85 c0 ed ff ff 	lea    -0x1240(%rbp),%rax
   16df4:	48 89 85 30 fc ff ff 	mov    %rax,-0x3d0(%rbp)
   16dfb:	48 8d 85 c0 ed ff ff 	lea    -0x1240(%rbp),%rax
   16e02:	48 89 85 38 fc ff ff 	mov    %rax,-0x3c8(%rbp)
   16e09:	48 8d 85 c0 ed ff ff 	lea    -0x1240(%rbp),%rax
   16e10:	48 89 85 40 fc ff ff 	mov    %rax,-0x3c0(%rbp)
   16e17:	48 8d 85 c0 ed ff ff 	lea    -0x1240(%rbp),%rax
   16e1e:	48 89 85 48 fc ff ff 	mov    %rax,-0x3b8(%rbp)
   16e25:	48 8d 85 c0 ed ff ff 	lea    -0x1240(%rbp),%rax
   16e2c:	48 89 85 50 fc ff ff 	mov    %rax,-0x3b0(%rbp)
   16e33:	48 8d 85 c0 ed ff ff 	lea    -0x1240(%rbp),%rax
   16e3a:	48 89 85 58 fc ff ff 	mov    %rax,-0x3a8(%rbp)
   16e41:	48 8d 85 c0 ed ff ff 	lea    -0x1240(%rbp),%rax
   16e48:	48 89 85 60 fc ff ff 	mov    %rax,-0x3a0(%rbp)
   16e4f:	48 8d 85 c0 ed ff ff 	lea    -0x1240(%rbp),%rax
   16e56:	48 89 85 68 fc ff ff 	mov    %rax,-0x398(%rbp)
   16e5d:	48 c7 85 70 fc ff ff 	movq   $0x0,-0x390(%rbp)
   16e64:	00 00 00 00 
   16e68:	48 8d 85 c0 ed ff ff 	lea    -0x1240(%rbp),%rax
   16e6f:	48 89 85 78 fc ff ff 	mov    %rax,-0x388(%rbp)
   16e76:	48 8d 85 c0 ed ff ff 	lea    -0x1240(%rbp),%rax
   16e7d:	48 89 85 80 fc ff ff 	mov    %rax,-0x380(%rbp)
   16e84:	48 8d 85 c0 ed ff ff 	lea    -0x1240(%rbp),%rax
   16e8b:	48 89 85 88 fc ff ff 	mov    %rax,-0x378(%rbp)
   16e92:	48 8d 85 c0 ed ff ff 	lea    -0x1240(%rbp),%rax
   16e99:	48 89 85 90 fc ff ff 	mov    %rax,-0x370(%rbp)
   16ea0:	48 8d 85 c0 ed ff ff 	lea    -0x1240(%rbp),%rax
   16ea7:	48 89 85 98 fc ff ff 	mov    %rax,-0x368(%rbp)
   16eae:	48 8d 85 c0 ed ff ff 	lea    -0x1240(%rbp),%rax
   16eb5:	48 89 85 a0 fc ff ff 	mov    %rax,-0x360(%rbp)
   16ebc:	48 8d 85 c0 ed ff ff 	lea    -0x1240(%rbp),%rax
   16ec3:	48 89 85 a8 fc ff ff 	mov    %rax,-0x358(%rbp)
   16eca:	48 8d 85 c0 ed ff ff 	lea    -0x1240(%rbp),%rax
   16ed1:	48 89 85 b0 fc ff ff 	mov    %rax,-0x350(%rbp)
   16ed8:	48 8d 85 c0 ed ff ff 	lea    -0x1240(%rbp),%rax
   16edf:	48 89 85 b8 fc ff ff 	mov    %rax,-0x348(%rbp)
   16ee6:	48 8d 85 c0 ed ff ff 	lea    -0x1240(%rbp),%rax
   16eed:	48 89 85 c0 fc ff ff 	mov    %rax,-0x340(%rbp)
   16ef4:	48 8d 85 c0 ed ff ff 	lea    -0x1240(%rbp),%rax
   16efb:	48 89 85 c8 fc ff ff 	mov    %rax,-0x338(%rbp)
   16f02:	48 c7 85 d0 fc ff ff 	movq   $0x0,-0x330(%rbp)
   16f09:	00 00 00 00 
   16f0d:	48 8d 85 c0 ed ff ff 	lea    -0x1240(%rbp),%rax
   16f14:	48 89 85 d8 fc ff ff 	mov    %rax,-0x328(%rbp)
   16f1b:	48 8d 85 c0 ed ff ff 	lea    -0x1240(%rbp),%rax
   16f22:	48 89 85 e0 fc ff ff 	mov    %rax,-0x320(%rbp)
   16f29:	48 c7 85 e8 fc ff ff 	movq   $0x0,-0x318(%rbp)
   16f30:	00 00 00 00 
   16f34:	48 8d 85 c0 ed ff ff 	lea    -0x1240(%rbp),%rax
   16f3b:	48 89 85 f0 fc ff ff 	mov    %rax,-0x310(%rbp)
   16f42:	48 8d 85 c0 ed ff ff 	lea    -0x1240(%rbp),%rax
   16f49:	48 89 85 f8 fc ff ff 	mov    %rax,-0x308(%rbp)
   16f50:	48 8d 85 c0 ed ff ff 	lea    -0x1240(%rbp),%rax
   16f57:	48 89 85 00 fd ff ff 	mov    %rax,-0x300(%rbp)
   16f5e:	48 8d 85 c0 ed ff ff 	lea    -0x1240(%rbp),%rax
   16f65:	48 89 85 08 fd ff ff 	mov    %rax,-0x2f8(%rbp)
   16f6c:	48 8d 85 c0 ed ff ff 	lea    -0x1240(%rbp),%rax
   16f73:	48 89 85 10 fd ff ff 	mov    %rax,-0x2f0(%rbp)
   16f7a:	48 8d 85 c0 ed ff ff 	lea    -0x1240(%rbp),%rax
   16f81:	48 89 85 18 fd ff ff 	mov    %rax,-0x2e8(%rbp)
   16f88:	48 8d 85 c0 ed ff ff 	lea    -0x1240(%rbp),%rax
   16f8f:	48 89 85 20 fd ff ff 	mov    %rax,-0x2e0(%rbp)
   16f96:	48 8d 85 c0 ed ff ff 	lea    -0x1240(%rbp),%rax
   16f9d:	48 89 85 28 fd ff ff 	mov    %rax,-0x2d8(%rbp)
   16fa4:	48 8d 85 c0 ed ff ff 	lea    -0x1240(%rbp),%rax
   16fab:	48 89 85 30 fd ff ff 	mov    %rax,-0x2d0(%rbp)
   16fb2:	48 8d 85 c0 ed ff ff 	lea    -0x1240(%rbp),%rax
   16fb9:	48 89 85 38 fd ff ff 	mov    %rax,-0x2c8(%rbp)
   16fc0:	48 c7 85 40 fd ff ff 	movq   $0x0,-0x2c0(%rbp)
   16fc7:	00 00 00 00 
   16fcb:	48 8d 85 c0 ed ff ff 	lea    -0x1240(%rbp),%rax
   16fd2:	48 89 85 48 fd ff ff 	mov    %rax,-0x2b8(%rbp)
   16fd9:	48 8d 85 c0 ed ff ff 	lea    -0x1240(%rbp),%rax
   16fe0:	48 89 85 50 fd ff ff 	mov    %rax,-0x2b0(%rbp)
   16fe7:	48 8d 85 c0 ed ff ff 	lea    -0x1240(%rbp),%rax
   16fee:	48 89 85 58 fd ff ff 	mov    %rax,-0x2a8(%rbp)
   16ff5:	48 8d 85 c0 ed ff ff 	lea    -0x1240(%rbp),%rax
   16ffc:	48 89 85 60 fd ff ff 	mov    %rax,-0x2a0(%rbp)
   17003:	48 8d 85 c0 ed ff ff 	lea    -0x1240(%rbp),%rax
   1700a:	48 89 85 68 fd ff ff 	mov    %rax,-0x298(%rbp)
   17011:	48 8d 85 c0 ed ff ff 	lea    -0x1240(%rbp),%rax
   17018:	48 89 85 70 fd ff ff 	mov    %rax,-0x290(%rbp)
   1701f:	48 8d 85 c0 ed ff ff 	lea    -0x1240(%rbp),%rax
   17026:	48 89 85 78 fd ff ff 	mov    %rax,-0x288(%rbp)
   1702d:	48 c7 85 80 fd ff ff 	movq   $0x0,-0x280(%rbp)
   17034:	00 00 00 00 
   17038:	48 8d 85 c0 ed ff ff 	lea    -0x1240(%rbp),%rax
   1703f:	48 89 85 88 fd ff ff 	mov    %rax,-0x278(%rbp)
   17046:	48 8d 85 c0 ed ff ff 	lea    -0x1240(%rbp),%rax
   1704d:	48 89 85 90 fd ff ff 	mov    %rax,-0x270(%rbp)
   17054:	48 8d 85 c0 ed ff ff 	lea    -0x1240(%rbp),%rax
   1705b:	48 89 85 98 fd ff ff 	mov    %rax,-0x268(%rbp)
   17062:	48 8d 85 c0 ed ff ff 	lea    -0x1240(%rbp),%rax
   17069:	48 89 85 a0 fd ff ff 	mov    %rax,-0x260(%rbp)
   17070:	48 8d 85 c0 ed ff ff 	lea    -0x1240(%rbp),%rax
   17077:	48 89 85 a8 fd ff ff 	mov    %rax,-0x258(%rbp)
   1707e:	48 8d 85 c0 ed ff ff 	lea    -0x1240(%rbp),%rax
   17085:	48 89 85 b0 fd ff ff 	mov    %rax,-0x250(%rbp)
   1708c:	48 8d 85 c0 ed ff ff 	lea    -0x1240(%rbp),%rax
   17093:	48 89 85 b8 fd ff ff 	mov    %rax,-0x248(%rbp)
   1709a:	48 8d 85 c0 ed ff ff 	lea    -0x1240(%rbp),%rax
   170a1:	48 89 85 c0 fd ff ff 	mov    %rax,-0x240(%rbp)
   170a8:	48 8d 85 c0 ed ff ff 	lea    -0x1240(%rbp),%rax
   170af:	48 89 85 c8 fd ff ff 	mov    %rax,-0x238(%rbp)
   170b6:	48 8d 85 c0 ed ff ff 	lea    -0x1240(%rbp),%rax
   170bd:	48 89 85 d0 fd ff ff 	mov    %rax,-0x230(%rbp)
   170c4:	48 8d 85 c0 ed ff ff 	lea    -0x1240(%rbp),%rax
   170cb:	48 89 85 d8 fd ff ff 	mov    %rax,-0x228(%rbp)
   170d2:	48 8d 85 c0 ed ff ff 	lea    -0x1240(%rbp),%rax
   170d9:	48 89 85 e0 fd ff ff 	mov    %rax,-0x220(%rbp)
   170e0:	48 8d 85 c0 ed ff ff 	lea    -0x1240(%rbp),%rax
   170e7:	48 89 85 e8 fd ff ff 	mov    %rax,-0x218(%rbp)
   170ee:	48 c7 85 f0 fd ff ff 	movq   $0x0,-0x210(%rbp)
   170f5:	00 00 00 00 
   170f9:	48 8d 85 c0 ed ff ff 	lea    -0x1240(%rbp),%rax
   17100:	48 89 85 f8 fd ff ff 	mov    %rax,-0x208(%rbp)
   17107:	48 8d 85 c0 ed ff ff 	lea    -0x1240(%rbp),%rax
   1710e:	48 89 85 00 fe ff ff 	mov    %rax,-0x200(%rbp)
   17115:	48 c7 85 08 fe ff ff 	movq   $0x0,-0x1f8(%rbp)
   1711c:	00 00 00 00 
   17120:	48 c7 85 10 fe ff ff 	movq   $0x0,-0x1f0(%rbp)
   17127:	00 00 00 00 
   1712b:	48 8d 85 c0 ed ff ff 	lea    -0x1240(%rbp),%rax
   17132:	48 89 85 18 fe ff ff 	mov    %rax,-0x1e8(%rbp)
   17139:	48 8d 85 c0 ed ff ff 	lea    -0x1240(%rbp),%rax
   17140:	48 89 85 20 fe ff ff 	mov    %rax,-0x1e0(%rbp)
   17147:	48 8d 85 c0 ed ff ff 	lea    -0x1240(%rbp),%rax
   1714e:	48 89 85 28 fe ff ff 	mov    %rax,-0x1d8(%rbp)
   17155:	48 8d 85 c0 ed ff ff 	lea    -0x1240(%rbp),%rax
   1715c:	48 89 85 30 fe ff ff 	mov    %rax,-0x1d0(%rbp)
   17163:	48 8d 85 c0 ed ff ff 	lea    -0x1240(%rbp),%rax
   1716a:	48 89 85 38 fe ff ff 	mov    %rax,-0x1c8(%rbp)
   17171:	48 c7 85 40 fe ff ff 	movq   $0x0,-0x1c0(%rbp)
   17178:	00 00 00 00 
   1717c:	48 c7 85 48 fe ff ff 	movq   $0x0,-0x1b8(%rbp)
   17183:	00 00 00 00 
   17187:	48 8d 85 c0 ed ff ff 	lea    -0x1240(%rbp),%rax
   1718e:	48 89 85 50 fe ff ff 	mov    %rax,-0x1b0(%rbp)
   17195:	48 c7 85 58 fe ff ff 	movq   $0x0,-0x1a8(%rbp)
   1719c:	00 00 00 00 
   171a0:	48 c7 85 60 fe ff ff 	movq   $0x0,-0x1a0(%rbp)
   171a7:	00 00 00 00 
   171ab:	48 c7 85 68 fe ff ff 	movq   $0x0,-0x198(%rbp)
   171b2:	00 00 00 00 
   171b6:	48 8d 85 c0 ed ff ff 	lea    -0x1240(%rbp),%rax
   171bd:	48 89 85 70 fe ff ff 	mov    %rax,-0x190(%rbp)
   171c4:	48 8d 85 c0 ed ff ff 	lea    -0x1240(%rbp),%rax
   171cb:	48 89 85 78 fe ff ff 	mov    %rax,-0x188(%rbp)
   171d2:	48 8d 85 c0 ed ff ff 	lea    -0x1240(%rbp),%rax
   171d9:	48 89 85 80 fe ff ff 	mov    %rax,-0x180(%rbp)
   171e0:	48 8d 85 c0 ed ff ff 	lea    -0x1240(%rbp),%rax
   171e7:	48 89 85 88 fe ff ff 	mov    %rax,-0x178(%rbp)
   171ee:	48 8d 85 c0 ed ff ff 	lea    -0x1240(%rbp),%rax
   171f5:	48 89 85 90 fe ff ff 	mov    %rax,-0x170(%rbp)
   171fc:	48 8d 85 c0 ed ff ff 	lea    -0x1240(%rbp),%rax
   17203:	48 89 85 98 fe ff ff 	mov    %rax,-0x168(%rbp)
   1720a:	48 c7 85 a0 fe ff ff 	movq   $0x0,-0x160(%rbp)
   17211:	00 00 00 00 
   17215:	48 8d 85 c0 ed ff ff 	lea    -0x1240(%rbp),%rax
   1721c:	48 89 85 a8 fe ff ff 	mov    %rax,-0x158(%rbp)
   17223:	48 8d 85 c0 ed ff ff 	lea    -0x1240(%rbp),%rax
   1722a:	48 89 85 b0 fe ff ff 	mov    %rax,-0x150(%rbp)
   17231:	48 8d 85 c0 ed ff ff 	lea    -0x1240(%rbp),%rax
   17238:	48 89 85 b8 fe ff ff 	mov    %rax,-0x148(%rbp)
   1723f:	48 8d 85 c0 ed ff ff 	lea    -0x1240(%rbp),%rax
   17246:	48 89 85 c0 fe ff ff 	mov    %rax,-0x140(%rbp)
   1724d:	48 c7 85 c8 fe ff ff 	movq   $0x0,-0x138(%rbp)
   17254:	00 00 00 00 
   17258:	48 c7 85 d0 fe ff ff 	movq   $0x0,-0x130(%rbp)
   1725f:	00 00 00 00 
   17263:	48 8d 85 c0 ed ff ff 	lea    -0x1240(%rbp),%rax
   1726a:	48 89 85 d8 fe ff ff 	mov    %rax,-0x128(%rbp)
   17271:	48 8d 85 c0 ed ff ff 	lea    -0x1240(%rbp),%rax
   17278:	48 89 85 e0 fe ff ff 	mov    %rax,-0x120(%rbp)
   1727f:	48 8d 85 c0 ed ff ff 	lea    -0x1240(%rbp),%rax
   17286:	48 89 85 e8 fe ff ff 	mov    %rax,-0x118(%rbp)
   1728d:	48 8d 85 c0 ed ff ff 	lea    -0x1240(%rbp),%rax
   17294:	48 89 85 f0 fe ff ff 	mov    %rax,-0x110(%rbp)
   1729b:	48 8d 85 c0 ed ff ff 	lea    -0x1240(%rbp),%rax
   172a2:	48 89 85 f8 fe ff ff 	mov    %rax,-0x108(%rbp)
   172a9:	48 8d 85 c0 ed ff ff 	lea    -0x1240(%rbp),%rax
   172b0:	48 89 85 00 ff ff ff 	mov    %rax,-0x100(%rbp)
   172b7:	48 8d 85 c0 ed ff ff 	lea    -0x1240(%rbp),%rax
   172be:	48 89 85 08 ff ff ff 	mov    %rax,-0xf8(%rbp)
   172c5:	48 8d 85 c0 ed ff ff 	lea    -0x1240(%rbp),%rax
   172cc:	48 89 85 10 ff ff ff 	mov    %rax,-0xf0(%rbp)
   172d3:	48 8d 85 c0 ed ff ff 	lea    -0x1240(%rbp),%rax
   172da:	48 89 85 18 ff ff ff 	mov    %rax,-0xe8(%rbp)
   172e1:	48 8d 85 c0 ed ff ff 	lea    -0x1240(%rbp),%rax
   172e8:	48 89 85 20 ff ff ff 	mov    %rax,-0xe0(%rbp)
   172ef:	48 8d 85 c0 ed ff ff 	lea    -0x1240(%rbp),%rax
   172f6:	48 89 85 28 ff ff ff 	mov    %rax,-0xd8(%rbp)
   172fd:	48 8d 85 c0 ed ff ff 	lea    -0x1240(%rbp),%rax
   17304:	48 89 85 30 ff ff ff 	mov    %rax,-0xd0(%rbp)
   1730b:	48 8d 85 c0 ed ff ff 	lea    -0x1240(%rbp),%rax
   17312:	48 89 85 38 ff ff ff 	mov    %rax,-0xc8(%rbp)
   17319:	48 8d 85 c0 ed ff ff 	lea    -0x1240(%rbp),%rax
   17320:	48 89 85 40 ff ff ff 	mov    %rax,-0xc0(%rbp)
   17327:	48 8d 85 c0 ed ff ff 	lea    -0x1240(%rbp),%rax
   1732e:	48 89 85 48 ff ff ff 	mov    %rax,-0xb8(%rbp)
   17335:	48 8d 85 c0 ed ff ff 	lea    -0x1240(%rbp),%rax
   1733c:	48 89 85 50 ff ff ff 	mov    %rax,-0xb0(%rbp)
   17343:	48 8d 85 c0 ed ff ff 	lea    -0x1240(%rbp),%rax
   1734a:	48 89 85 58 ff ff ff 	mov    %rax,-0xa8(%rbp)
   17351:	48 8d 85 c0 ed ff ff 	lea    -0x1240(%rbp),%rax
   17358:	48 89 85 60 ff ff ff 	mov    %rax,-0xa0(%rbp)
   1735f:	48 c7 85 68 ff ff ff 	movq   $0x0,-0x98(%rbp)
   17366:	00 00 00 00 
   1736a:	48 8d 85 c0 ed ff ff 	lea    -0x1240(%rbp),%rax
   17371:	48 89 85 70 ff ff ff 	mov    %rax,-0x90(%rbp)
   17378:	48 8d 85 c0 ed ff ff 	lea    -0x1240(%rbp),%rax
   1737f:	48 89 85 78 ff ff ff 	mov    %rax,-0x88(%rbp)
   17386:	48 8d 85 c0 ed ff ff 	lea    -0x1240(%rbp),%rax
   1738d:	48 89 45 80          	mov    %rax,-0x80(%rbp)
   17391:	48 8d 85 c0 ed ff ff 	lea    -0x1240(%rbp),%rax
   17398:	48 89 45 88          	mov    %rax,-0x78(%rbp)
   1739c:	48 8d 85 c0 ed ff ff 	lea    -0x1240(%rbp),%rax
   173a3:	48 89 45 90          	mov    %rax,-0x70(%rbp)
   173a7:	48 8d 85 c0 ed ff ff 	lea    -0x1240(%rbp),%rax
   173ae:	48 89 45 98          	mov    %rax,-0x68(%rbp)
   173b2:	48 8d 85 c0 ed ff ff 	lea    -0x1240(%rbp),%rax
   173b9:	48 89 45 a0          	mov    %rax,-0x60(%rbp)
   173bd:	48 8d 85 c0 ed ff ff 	lea    -0x1240(%rbp),%rax
   173c4:	48 89 45 a8          	mov    %rax,-0x58(%rbp)
   173c8:	48 8d 85 c0 ed ff ff 	lea    -0x1240(%rbp),%rax
   173cf:	48 89 45 b0          	mov    %rax,-0x50(%rbp)
   173d3:	48 8d 85 c0 ed ff ff 	lea    -0x1240(%rbp),%rax
   173da:	48 89 45 b8          	mov    %rax,-0x48(%rbp)
   173de:	48 8d 85 d0 fb ff ff 	lea    -0x430(%rbp),%rax
   173e5:	48 05 d8 00 00 00    	add    $0xd8,%rax
   173eb:	48 89 85 90 f4 ff ff 	mov    %rax,-0xb70(%rbp)
   173f2:	48 8d 85 d0 fb ff ff 	lea    -0x430(%rbp),%rax
   173f9:	48 05 d8 00 00 00    	add    $0xd8,%rax
   173ff:	48 89 85 98 f4 ff ff 	mov    %rax,-0xb68(%rbp)
   17406:	48 8d 85 d0 fb ff ff 	lea    -0x430(%rbp),%rax
   1740d:	48 05 d8 00 00 00    	add    $0xd8,%rax
   17413:	48 89 85 a0 f4 ff ff 	mov    %rax,-0xb60(%rbp)
   1741a:	48 8d 85 d0 fb ff ff 	lea    -0x430(%rbp),%rax
   17421:	48 05 70 01 00 00    	add    $0x170,%rax
   17427:	48 89 85 a8 f4 ff ff 	mov    %rax,-0xb58(%rbp)
   1742e:	48 8d 85 d0 fb ff ff 	lea    -0x430(%rbp),%rax
   17435:	48 05 d8 00 00 00    	add    $0xd8,%rax
   1743b:	48 89 85 b0 f4 ff ff 	mov    %rax,-0xb50(%rbp)
   17442:	48 8d 85 d0 fb ff ff 	lea    -0x430(%rbp),%rax
   17449:	48 05 d8 00 00 00    	add    $0xd8,%rax
   1744f:	48 89 85 b8 f4 ff ff 	mov    %rax,-0xb48(%rbp)
   17456:	48 8d 85 d0 fb ff ff 	lea    -0x430(%rbp),%rax
   1745d:	48 05 d8 00 00 00    	add    $0xd8,%rax
   17463:	48 89 85 c0 f4 ff ff 	mov    %rax,-0xb40(%rbp)
   1746a:	48 8d 85 d0 fb ff ff 	lea    -0x430(%rbp),%rax
   17471:	48 05 70 01 00 00    	add    $0x170,%rax
   17477:	48 89 85 c8 f4 ff ff 	mov    %rax,-0xb38(%rbp)
   1747e:	48 8d 85 d0 fb ff ff 	lea    -0x430(%rbp),%rax
   17485:	48 05 d8 00 00 00    	add    $0xd8,%rax
   1748b:	48 89 85 d0 f4 ff ff 	mov    %rax,-0xb30(%rbp)
   17492:	48 8d 85 d0 fb ff ff 	lea    -0x430(%rbp),%rax
   17499:	48 05 d8 00 00 00    	add    $0xd8,%rax
   1749f:	48 89 85 d8 f4 ff ff 	mov    %rax,-0xb28(%rbp)
   174a6:	48 8d 85 d0 fb ff ff 	lea    -0x430(%rbp),%rax
   174ad:	48 05 d8 03 00 00    	add    $0x3d8,%rax
   174b3:	48 89 85 e0 f4 ff ff 	mov    %rax,-0xb20(%rbp)
   174ba:	48 c7 85 e8 f4 ff ff 	movq   $0x0,-0xb18(%rbp)
   174c1:	00 00 00 00 
   174c5:	48 8d 85 d0 fb ff ff 	lea    -0x430(%rbp),%rax
   174cc:	48 05 98 02 00 00    	add    $0x298,%rax
   174d2:	48 89 85 f0 f4 ff ff 	mov    %rax,-0xb10(%rbp)
   174d9:	48 8d 85 d0 fb ff ff 	lea    -0x430(%rbp),%rax
   174e0:	48 05 d8 02 00 00    	add    $0x2d8,%rax
   174e6:	48 89 85 f8 f4 ff ff 	mov    %rax,-0xb08(%rbp)
   174ed:	48 8d 85 d0 fb ff ff 	lea    -0x430(%rbp),%rax
   174f4:	48 05 d8 00 00 00    	add    $0xd8,%rax
   174fa:	48 89 85 00 f5 ff ff 	mov    %rax,-0xb00(%rbp)
   17501:	48 8d 85 d0 fb ff ff 	lea    -0x430(%rbp),%rax
   17508:	48 05 10 03 00 00    	add    $0x310,%rax
   1750e:	48 89 85 08 f5 ff ff 	mov    %rax,-0xaf8(%rbp)
   17515:	48 8d 85 d0 fb ff ff 	lea    -0x430(%rbp),%rax
   1751c:	48 05 c0 03 00 00    	add    $0x3c0,%rax
   17522:	48 89 85 10 f5 ff ff 	mov    %rax,-0xaf0(%rbp)
   17529:	48 8d 85 d0 fb ff ff 	lea    -0x430(%rbp),%rax
   17530:	48 05 d8 00 00 00    	add    $0xd8,%rax
   17536:	48 89 85 18 f5 ff ff 	mov    %rax,-0xae8(%rbp)
   1753d:	48 c7 85 20 f5 ff ff 	movq   $0x0,-0xae0(%rbp)
   17544:	00 00 00 00 
   17548:	48 8d 85 d0 fb ff ff 	lea    -0x430(%rbp),%rax
   1754f:	48 05 20 02 00 00    	add    $0x220,%rax
   17555:	48 89 85 28 f5 ff ff 	mov    %rax,-0xad8(%rbp)
   1755c:	48 8d 85 d0 fb ff ff 	lea    -0x430(%rbp),%rax
   17563:	48 05 50 01 00 00    	add    $0x150,%rax
   17569:	48 89 85 30 f5 ff ff 	mov    %rax,-0xad0(%rbp)
   17570:	48 8d 85 d0 fb ff ff 	lea    -0x430(%rbp),%rax
   17577:	48 05 e0 01 00 00    	add    $0x1e0,%rax
   1757d:	48 89 85 38 f5 ff ff 	mov    %rax,-0xac8(%rbp)
   17584:	48 8d 85 d0 fb ff ff 	lea    -0x430(%rbp),%rax
   1758b:	48 05 50 01 00 00    	add    $0x150,%rax
   17591:	48 89 85 40 f5 ff ff 	mov    %rax,-0xac0(%rbp)
   17598:	48 8d 85 d0 fb ff ff 	lea    -0x430(%rbp),%rax
   1759f:	48 05 d8 00 00 00    	add    $0xd8,%rax
   175a5:	48 89 85 48 f5 ff ff 	mov    %rax,-0xab8(%rbp)
   175ac:	48 8d 85 d0 fb ff ff 	lea    -0x430(%rbp),%rax
   175b3:	48 05 d8 03 00 00    	add    $0x3d8,%rax
   175b9:	48 89 85 50 f5 ff ff 	mov    %rax,-0xab0(%rbp)
   175c0:	48 8d 85 d0 fb ff ff 	lea    -0x430(%rbp),%rax
   175c7:	48 05 d8 00 00 00    	add    $0xd8,%rax
   175cd:	48 89 85 58 f5 ff ff 	mov    %rax,-0xaa8(%rbp)
   175d4:	48 8d 85 d0 fb ff ff 	lea    -0x430(%rbp),%rax
   175db:	48 05 d8 02 00 00    	add    $0x2d8,%rax
   175e1:	48 89 85 60 f5 ff ff 	mov    %rax,-0xaa0(%rbp)
   175e8:	48 8d 85 d0 fb ff ff 	lea    -0x430(%rbp),%rax
   175ef:	48 05 d8 00 00 00    	add    $0xd8,%rax
   175f5:	48 89 85 68 f5 ff ff 	mov    %rax,-0xa98(%rbp)
   175fc:	48 8d 85 d0 fb ff ff 	lea    -0x430(%rbp),%rax
   17603:	48 05 d8 00 00 00    	add    $0xd8,%rax
   17609:	48 89 85 70 f5 ff ff 	mov    %rax,-0xa90(%rbp)
   17610:	48 8d 85 d0 fb ff ff 	lea    -0x430(%rbp),%rax
   17617:	48 05 d8 01 00 00    	add    $0x1d8,%rax
   1761d:	48 89 85 78 f5 ff ff 	mov    %rax,-0xa88(%rbp)
   17624:	48 8d 85 d0 fb ff ff 	lea    -0x430(%rbp),%rax
   1762b:	48 05 d8 00 00 00    	add    $0xd8,%rax
   17631:	48 89 85 80 f5 ff ff 	mov    %rax,-0xa80(%rbp)
   17638:	48 8d 85 d0 fb ff ff 	lea    -0x430(%rbp),%rax
   1763f:	48 05 d8 00 00 00    	add    $0xd8,%rax
   17645:	48 89 85 88 f5 ff ff 	mov    %rax,-0xa78(%rbp)
   1764c:	48 8d 85 d0 fb ff ff 	lea    -0x430(%rbp),%rax
   17653:	48 05 d8 00 00 00    	add    $0xd8,%rax
   17659:	48 89 85 90 f5 ff ff 	mov    %rax,-0xa70(%rbp)
   17660:	48 8d 85 d0 fb ff ff 	lea    -0x430(%rbp),%rax
   17667:	48 05 20 02 00 00    	add    $0x220,%rax
   1766d:	48 89 85 98 f5 ff ff 	mov    %rax,-0xa68(%rbp)
   17674:	48 8d 85 d0 fb ff ff 	lea    -0x430(%rbp),%rax
   1767b:	48 05 d8 00 00 00    	add    $0xd8,%rax
   17681:	48 89 85 a0 f5 ff ff 	mov    %rax,-0xa60(%rbp)
   17688:	48 8d 85 d0 fb ff ff 	lea    -0x430(%rbp),%rax
   1768f:	48 05 d8 00 00 00    	add    $0xd8,%rax
   17695:	48 89 85 a8 f5 ff ff 	mov    %rax,-0xa58(%rbp)
   1769c:	48 8d 85 d0 fb ff ff 	lea    -0x430(%rbp),%rax
   176a3:	48 05 d8 00 00 00    	add    $0xd8,%rax
   176a9:	48 89 85 b0 f5 ff ff 	mov    %rax,-0xa50(%rbp)
   176b0:	48 c7 85 b8 f5 ff ff 	movq   $0x0,-0xa48(%rbp)
   176b7:	00 00 00 00 
   176bb:	48 8d 85 d0 fb ff ff 	lea    -0x430(%rbp),%rax
   176c2:	48 05 d8 02 00 00    	add    $0x2d8,%rax
   176c8:	48 89 85 c0 f5 ff ff 	mov    %rax,-0xa40(%rbp)
   176cf:	48 8d 85 d0 fb ff ff 	lea    -0x430(%rbp),%rax
   176d6:	48 05 d8 03 00 00    	add    $0x3d8,%rax
   176dc:	48 89 85 c8 f5 ff ff 	mov    %rax,-0xa38(%rbp)
   176e3:	48 8d 85 d0 fb ff ff 	lea    -0x430(%rbp),%rax
   176ea:	48 05 d8 03 00 00    	add    $0x3d8,%rax
   176f0:	48 89 85 d0 f5 ff ff 	mov    %rax,-0xa30(%rbp)
   176f7:	48 8d 85 d0 fb ff ff 	lea    -0x430(%rbp),%rax
   176fe:	48 05 d8 00 00 00    	add    $0xd8,%rax
   17704:	48 89 85 d8 f5 ff ff 	mov    %rax,-0xa28(%rbp)
   1770b:	48 8d 85 d0 fb ff ff 	lea    -0x430(%rbp),%rax
   17712:	48 05 50 01 00 00    	add    $0x150,%rax
   17718:	48 89 85 e0 f5 ff ff 	mov    %rax,-0xa20(%rbp)
   1771f:	48 c7 85 e8 f5 ff ff 	movq   $0x0,-0xa18(%rbp)
   17726:	00 00 00 00 
   1772a:	48 8d 85 d0 fb ff ff 	lea    -0x430(%rbp),%rax
   17731:	48 05 50 01 00 00    	add    $0x150,%rax
   17737:	48 89 85 f0 f5 ff ff 	mov    %rax,-0xa10(%rbp)
   1773e:	48 c7 85 f8 f5 ff ff 	movq   $0x0,-0xa08(%rbp)
   17745:	00 00 00 00 
   17749:	48 8d 85 d0 fb ff ff 	lea    -0x430(%rbp),%rax
   17750:	48 05 d8 00 00 00    	add    $0xd8,%rax
   17756:	48 89 85 00 f6 ff ff 	mov    %rax,-0xa00(%rbp)
   1775d:	48 8d 85 d0 fb ff ff 	lea    -0x430(%rbp),%rax
   17764:	48 05 d8 00 00 00    	add    $0xd8,%rax
   1776a:	48 89 85 08 f6 ff ff 	mov    %rax,-0x9f8(%rbp)
   17771:	48 8d 85 d0 fb ff ff 	lea    -0x430(%rbp),%rax
   17778:	48 05 d8 00 00 00    	add    $0xd8,%rax
   1777e:	48 89 85 10 f6 ff ff 	mov    %rax,-0x9f0(%rbp)
   17785:	48 8d 85 d0 fb ff ff 	lea    -0x430(%rbp),%rax
   1778c:	48 05 d8 00 00 00    	add    $0xd8,%rax
   17792:	48 89 85 18 f6 ff ff 	mov    %rax,-0x9e8(%rbp)
   17799:	48 8d 85 d0 fb ff ff 	lea    -0x430(%rbp),%rax
   177a0:	48 05 98 02 00 00    	add    $0x298,%rax
   177a6:	48 89 85 20 f6 ff ff 	mov    %rax,-0x9e0(%rbp)
   177ad:	48 8d 85 d0 fb ff ff 	lea    -0x430(%rbp),%rax
   177b4:	48 05 d8 00 00 00    	add    $0xd8,%rax
   177ba:	48 89 85 28 f6 ff ff 	mov    %rax,-0x9d8(%rbp)
   177c1:	48 8d 85 d0 fb ff ff 	lea    -0x430(%rbp),%rax
   177c8:	48 05 20 02 00 00    	add    $0x220,%rax
   177ce:	48 89 85 30 f6 ff ff 	mov    %rax,-0x9d0(%rbp)
   177d5:	48 8d 85 d0 fb ff ff 	lea    -0x430(%rbp),%rax
   177dc:	48 05 d8 01 00 00    	add    $0x1d8,%rax
   177e2:	48 89 85 38 f6 ff ff 	mov    %rax,-0x9c8(%rbp)
   177e9:	48 8d 85 d0 fb ff ff 	lea    -0x430(%rbp),%rax
   177f0:	48 05 d8 00 00 00    	add    $0xd8,%rax
   177f6:	48 89 85 40 f6 ff ff 	mov    %rax,-0x9c0(%rbp)
   177fd:	48 8d 85 d0 fb ff ff 	lea    -0x430(%rbp),%rax
   17804:	48 05 d8 00 00 00    	add    $0xd8,%rax
   1780a:	48 89 85 48 f6 ff ff 	mov    %rax,-0x9b8(%rbp)
   17811:	48 8d 85 d0 fb ff ff 	lea    -0x430(%rbp),%rax
   17818:	48 05 50 01 00 00    	add    $0x150,%rax
   1781e:	48 89 85 50 f6 ff ff 	mov    %rax,-0x9b0(%rbp)
   17825:	48 8d 85 d0 fb ff ff 	lea    -0x430(%rbp),%rax
   1782c:	48 05 d8 00 00 00    	add    $0xd8,%rax
   17832:	48 89 85 58 f6 ff ff 	mov    %rax,-0x9a8(%rbp)
   17839:	48 c7 85 60 f6 ff ff 	movq   $0x0,-0x9a0(%rbp)
   17840:	00 00 00 00 
   17844:	48 8d 85 d0 fb ff ff 	lea    -0x430(%rbp),%rax
   1784b:	48 05 d8 00 00 00    	add    $0xd8,%rax
   17851:	48 89 85 68 f6 ff ff 	mov    %rax,-0x998(%rbp)
   17858:	48 c7 85 70 f6 ff ff 	movq   $0x0,-0x990(%rbp)
   1785f:	00 00 00 00 
   17863:	48 8d 85 d0 fb ff ff 	lea    -0x430(%rbp),%rax
   1786a:	48 05 d8 00 00 00    	add    $0xd8,%rax
   17870:	48 89 85 78 f6 ff ff 	mov    %rax,-0x988(%rbp)
   17877:	48 8d 85 d0 fb ff ff 	lea    -0x430(%rbp),%rax
   1787e:	48 05 d8 02 00 00    	add    $0x2d8,%rax
   17884:	48 89 85 80 f6 ff ff 	mov    %rax,-0x980(%rbp)
   1788b:	48 8d 85 d0 fb ff ff 	lea    -0x430(%rbp),%rax
   17892:	48 05 d8 00 00 00    	add    $0xd8,%rax
   17898:	48 89 85 88 f6 ff ff 	mov    %rax,-0x978(%rbp)
   1789f:	48 8d 85 d0 fb ff ff 	lea    -0x430(%rbp),%rax
   178a6:	48 05 d8 00 00 00    	add    $0xd8,%rax
   178ac:	48 89 85 90 f6 ff ff 	mov    %rax,-0x970(%rbp)
   178b3:	48 8d 85 d0 fb ff ff 	lea    -0x430(%rbp),%rax
   178ba:	48 05 d8 01 00 00    	add    $0x1d8,%rax
   178c0:	48 89 85 98 f6 ff ff 	mov    %rax,-0x968(%rbp)
   178c7:	48 8d 85 d0 fb ff ff 	lea    -0x430(%rbp),%rax
   178ce:	48 05 d8 00 00 00    	add    $0xd8,%rax
   178d4:	48 89 85 a0 f6 ff ff 	mov    %rax,-0x960(%rbp)
   178db:	48 8d 85 d0 fb ff ff 	lea    -0x430(%rbp),%rax
   178e2:	48 05 d8 00 00 00    	add    $0xd8,%rax
   178e8:	48 89 85 a8 f6 ff ff 	mov    %rax,-0x958(%rbp)
   178ef:	48 8d 85 d0 fb ff ff 	lea    -0x430(%rbp),%rax
   178f6:	48 05 d8 00 00 00    	add    $0xd8,%rax
   178fc:	48 89 85 b0 f6 ff ff 	mov    %rax,-0x950(%rbp)
   17903:	48 8d 85 d0 fb ff ff 	lea    -0x430(%rbp),%rax
   1790a:	48 05 d8 00 00 00    	add    $0xd8,%rax
   17910:	48 89 85 b8 f6 ff ff 	mov    %rax,-0x948(%rbp)
   17917:	48 8d 85 d0 fb ff ff 	lea    -0x430(%rbp),%rax
   1791e:	48 05 d8 01 00 00    	add    $0x1d8,%rax
   17924:	48 89 85 c0 f6 ff ff 	mov    %rax,-0x940(%rbp)
   1792b:	48 8d 85 d0 fb ff ff 	lea    -0x430(%rbp),%rax
   17932:	48 05 d8 00 00 00    	add    $0xd8,%rax
   17938:	48 89 85 c8 f6 ff ff 	mov    %rax,-0x938(%rbp)
   1793f:	48 8d 85 d0 fb ff ff 	lea    -0x430(%rbp),%rax
   17946:	48 05 e0 01 00 00    	add    $0x1e0,%rax
   1794c:	48 89 85 d0 f6 ff ff 	mov    %rax,-0x930(%rbp)
   17953:	48 c7 85 d8 f6 ff ff 	movq   $0x0,-0x928(%rbp)
   1795a:	00 00 00 00 
   1795e:	48 8d 85 d0 fb ff ff 	lea    -0x430(%rbp),%rax
   17965:	48 05 d8 02 00 00    	add    $0x2d8,%rax
   1796b:	48 89 85 e0 f6 ff ff 	mov    %rax,-0x920(%rbp)
   17972:	48 c7 85 e8 f6 ff ff 	movq   $0x0,-0x918(%rbp)
   17979:	00 00 00 00 
   1797d:	48 c7 85 f0 f6 ff ff 	movq   $0x0,-0x910(%rbp)
   17984:	00 00 00 00 
   17988:	48 8d 85 d0 fb ff ff 	lea    -0x430(%rbp),%rax
   1798f:	48 05 d8 00 00 00    	add    $0xd8,%rax
   17995:	48 89 85 f8 f6 ff ff 	mov    %rax,-0x908(%rbp)
   1799c:	48 8d 85 d0 fb ff ff 	lea    -0x430(%rbp),%rax
   179a3:	48 05 d8 00 00 00    	add    $0xd8,%rax
   179a9:	48 89 85 00 f7 ff ff 	mov    %rax,-0x900(%rbp)
   179b0:	48 8d 85 d0 fb ff ff 	lea    -0x430(%rbp),%rax
   179b7:	48 05 d8 03 00 00    	add    $0x3d8,%rax
   179bd:	48 89 85 08 f7 ff ff 	mov    %rax,-0x8f8(%rbp)
   179c4:	48 8d 85 d0 fb ff ff 	lea    -0x430(%rbp),%rax
   179cb:	48 05 50 01 00 00    	add    $0x150,%rax
   179d1:	48 89 85 10 f7 ff ff 	mov    %rax,-0x8f0(%rbp)
   179d8:	48 c7 85 18 f7 ff ff 	movq   $0x0,-0x8e8(%rbp)
   179df:	00 00 00 00 
   179e3:	48 8d 85 d0 fb ff ff 	lea    -0x430(%rbp),%rax
   179ea:	48 05 d8 00 00 00    	add    $0xd8,%rax
   179f0:	48 89 85 20 f7 ff ff 	mov    %rax,-0x8e0(%rbp)
   179f7:	48 8d 85 d0 fb ff ff 	lea    -0x430(%rbp),%rax
   179fe:	48 05 d8 00 00 00    	add    $0xd8,%rax
   17a04:	48 89 85 28 f7 ff ff 	mov    %rax,-0x8d8(%rbp)
   17a0b:	48 8d 85 d0 fb ff ff 	lea    -0x430(%rbp),%rax
   17a12:	48 05 d8 00 00 00    	add    $0xd8,%rax
   17a18:	48 89 85 30 f7 ff ff 	mov    %rax,-0x8d0(%rbp)
   17a1f:	48 8d 85 d0 fb ff ff 	lea    -0x430(%rbp),%rax
   17a26:	48 05 20 02 00 00    	add    $0x220,%rax
   17a2c:	48 89 85 38 f7 ff ff 	mov    %rax,-0x8c8(%rbp)
   17a33:	48 8d 85 d0 fb ff ff 	lea    -0x430(%rbp),%rax
   17a3a:	48 05 98 02 00 00    	add    $0x298,%rax
   17a40:	48 89 85 40 f7 ff ff 	mov    %rax,-0x8c0(%rbp)
   17a47:	48 8d 85 d0 fb ff ff 	lea    -0x430(%rbp),%rax
   17a4e:	48 05 d8 00 00 00    	add    $0xd8,%rax
   17a54:	48 89 85 48 f7 ff ff 	mov    %rax,-0x8b8(%rbp)
   17a5b:	48 8d 85 d0 fb ff ff 	lea    -0x430(%rbp),%rax
   17a62:	48 05 d8 00 00 00    	add    $0xd8,%rax
   17a68:	48 89 85 50 f7 ff ff 	mov    %rax,-0x8b0(%rbp)
   17a6f:	48 8d 85 d0 fb ff ff 	lea    -0x430(%rbp),%rax
   17a76:	48 05 d8 01 00 00    	add    $0x1d8,%rax
   17a7c:	48 89 85 58 f7 ff ff 	mov    %rax,-0x8a8(%rbp)
   17a83:	48 8d 85 d0 fb ff ff 	lea    -0x430(%rbp),%rax
   17a8a:	48 05 d8 00 00 00    	add    $0xd8,%rax
   17a90:	48 89 85 60 f7 ff ff 	mov    %rax,-0x8a0(%rbp)
   17a97:	48 8d 85 d0 fb ff ff 	lea    -0x430(%rbp),%rax
   17a9e:	48 05 d8 00 00 00    	add    $0xd8,%rax
   17aa4:	48 89 85 68 f7 ff ff 	mov    %rax,-0x898(%rbp)
   17aab:	48 8d 85 d0 fb ff ff 	lea    -0x430(%rbp),%rax
   17ab2:	48 05 50 01 00 00    	add    $0x150,%rax
   17ab8:	48 89 85 70 f7 ff ff 	mov    %rax,-0x890(%rbp)
   17abf:	48 8d 85 d0 fb ff ff 	lea    -0x430(%rbp),%rax
   17ac6:	48 05 d8 00 00 00    	add    $0xd8,%rax
   17acc:	48 89 85 78 f7 ff ff 	mov    %rax,-0x888(%rbp)
   17ad3:	48 8d 85 d0 fb ff ff 	lea    -0x430(%rbp),%rax
   17ada:	48 05 d8 00 00 00    	add    $0xd8,%rax
   17ae0:	48 89 85 80 f7 ff ff 	mov    %rax,-0x880(%rbp)
   17ae7:	48 8d 85 d0 fb ff ff 	lea    -0x430(%rbp),%rax
   17aee:	48 05 d8 00 00 00    	add    $0xd8,%rax
   17af4:	48 89 85 88 f7 ff ff 	mov    %rax,-0x878(%rbp)
   17afb:	48 c7 85 90 f7 ff ff 	movq   $0x0,-0x870(%rbp)
   17b02:	00 00 00 00 
   17b06:	48 8d 85 d0 fb ff ff 	lea    -0x430(%rbp),%rax
   17b0d:	48 05 e0 01 00 00    	add    $0x1e0,%rax
   17b13:	48 89 85 98 f7 ff ff 	mov    %rax,-0x868(%rbp)
   17b1a:	48 8d 85 d0 fb ff ff 	lea    -0x430(%rbp),%rax
   17b21:	48 05 d8 02 00 00    	add    $0x2d8,%rax
   17b27:	48 89 85 a0 f7 ff ff 	mov    %rax,-0x860(%rbp)
   17b2e:	48 8d 85 d0 fb ff ff 	lea    -0x430(%rbp),%rax
   17b35:	48 05 20 02 00 00    	add    $0x220,%rax
   17b3b:	48 89 85 a8 f7 ff ff 	mov    %rax,-0x858(%rbp)
   17b42:	48 8d 85 d0 fb ff ff 	lea    -0x430(%rbp),%rax
   17b49:	48 05 e0 01 00 00    	add    $0x1e0,%rax
   17b4f:	48 89 85 b0 f7 ff ff 	mov    %rax,-0x850(%rbp)
   17b56:	48 8d 85 d0 fb ff ff 	lea    -0x430(%rbp),%rax
   17b5d:	48 05 d8 01 00 00    	add    $0x1d8,%rax
   17b63:	48 89 85 b8 f7 ff ff 	mov    %rax,-0x848(%rbp)
   17b6a:	48 8d 85 d0 fb ff ff 	lea    -0x430(%rbp),%rax
   17b71:	48 05 d8 01 00 00    	add    $0x1d8,%rax
   17b77:	48 89 85 c0 f7 ff ff 	mov    %rax,-0x840(%rbp)
   17b7e:	48 8d 85 d0 fb ff ff 	lea    -0x430(%rbp),%rax
   17b85:	48 05 e0 01 00 00    	add    $0x1e0,%rax
   17b8b:	48 89 85 c8 f7 ff ff 	mov    %rax,-0x838(%rbp)
   17b92:	48 8d 85 d0 fb ff ff 	lea    -0x430(%rbp),%rax
   17b99:	48 05 d8 00 00 00    	add    $0xd8,%rax
   17b9f:	48 89 85 d0 f7 ff ff 	mov    %rax,-0x830(%rbp)
   17ba6:	48 8d 85 d0 fb ff ff 	lea    -0x430(%rbp),%rax
   17bad:	48 05 d8 00 00 00    	add    $0xd8,%rax
   17bb3:	48 89 85 d8 f7 ff ff 	mov    %rax,-0x828(%rbp)
   17bba:	48 8d 85 d0 fb ff ff 	lea    -0x430(%rbp),%rax
   17bc1:	48 05 d8 00 00 00    	add    $0xd8,%rax
   17bc7:	48 89 85 e0 f7 ff ff 	mov    %rax,-0x820(%rbp)
   17bce:	48 8d 85 d0 fb ff ff 	lea    -0x430(%rbp),%rax
   17bd5:	48 05 d8 00 00 00    	add    $0xd8,%rax
   17bdb:	48 89 85 e8 f7 ff ff 	mov    %rax,-0x818(%rbp)
   17be2:	48 8d 85 d0 fb ff ff 	lea    -0x430(%rbp),%rax
   17be9:	48 05 d8 00 00 00    	add    $0xd8,%rax
   17bef:	48 89 85 f0 f7 ff ff 	mov    %rax,-0x810(%rbp)
   17bf6:	48 8d 85 d0 fb ff ff 	lea    -0x430(%rbp),%rax
   17bfd:	48 05 d8 03 00 00    	add    $0x3d8,%rax
   17c03:	48 89 85 f8 f7 ff ff 	mov    %rax,-0x808(%rbp)
   17c0a:	48 8d 85 d0 fb ff ff 	lea    -0x430(%rbp),%rax
   17c11:	48 05 d8 02 00 00    	add    $0x2d8,%rax
   17c17:	48 89 85 00 f8 ff ff 	mov    %rax,-0x800(%rbp)
   17c1e:	48 c7 85 08 f8 ff ff 	movq   $0x0,-0x7f8(%rbp)
   17c25:	00 00 00 00 
   17c29:	48 8d 85 20 ed ff ff 	lea    -0x12e0(%rbp),%rax
   17c30:	48 89 85 70 f3 ff ff 	mov    %rax,-0xc90(%rbp)
   17c37:	0f b7 85 3a ed ff ff 	movzwl -0x12c6(%rbp),%eax
   17c3e:	83 c0 01             	add    $0x1,%eax
   17c41:	66 89 85 3a ed ff ff 	mov    %ax,-0x12c6(%rbp)
   17c48:	0f b7 85 3a ed ff ff 	movzwl -0x12c6(%rbp),%eax
   17c4f:	66 85 c0             	test   %ax,%ax
   17c52:	0f 84 e8 f0 ff ff    	je     16d40 <func_51+0x65a>
   17c58:	48 8b 85 d0 ed ff ff 	mov    -0x1230(%rbp),%rax
   17c5f:	e9 98 04 00 00       	jmpq   180fc <func_51+0x1a16>
   17c64:	48 8d 85 44 ed ff ff 	lea    -0x12bc(%rbp),%rax
   17c6b:	48 89 85 18 ee ff ff 	mov    %rax,-0x11e8(%rbp)
   17c72:	48 8d 05 1f 54 00 00 	lea    0x541f(%rip),%rax        # 1d098 <g_63>
   17c79:	48 89 85 20 ee ff ff 	mov    %rax,-0x11e0(%rbp)
   17c80:	48 8d 05 11 54 00 00 	lea    0x5411(%rip),%rax        # 1d098 <g_63>
   17c87:	48 89 85 28 ee ff ff 	mov    %rax,-0x11d8(%rbp)
   17c8e:	48 8d 05 03 54 00 00 	lea    0x5403(%rip),%rax        # 1d098 <g_63>
   17c95:	48 89 85 30 ee ff ff 	mov    %rax,-0x11d0(%rbp)
   17c9c:	c7 85 c0 ed ff ff ac 	movl   $0x13164fac,-0x1240(%rbp)
   17ca3:	4f 16 13 
   17ca6:	48 8d 05 84 54 00 00 	lea    0x5484(%rip),%rax        # 1d131 <g_92+0x71>
   17cad:	48 89 85 38 ee ff ff 	mov    %rax,-0x11c8(%rbp)
   17cb4:	c7 85 70 ed ff ff 00 	movl   $0x0,-0x1290(%rbp)
   17cbb:	00 00 00 
   17cbe:	eb 1e                	jmp    17cde <func_51+0x15f8>
   17cc0:	8b 85 70 ed ff ff    	mov    -0x1290(%rbp),%eax
   17cc6:	48 98                	cltq   
   17cc8:	48 8d 15 c9 53 00 00 	lea    0x53c9(%rip),%rdx        # 1d098 <g_63>
   17ccf:	48 89 94 c5 d0 fb ff 	mov    %rdx,-0x430(%rbp,%rax,8)
   17cd6:	ff 
   17cd7:	83 85 70 ed ff ff 01 	addl   $0x1,-0x1290(%rbp)
   17cde:	83 bd 70 ed ff ff 05 	cmpl   $0x5,-0x1290(%rbp)
   17ce5:	7e d9                	jle    17cc0 <func_51+0x15da>
   17ce7:	8b 85 84 fb ff ff    	mov    -0x47c(%rbp),%eax
   17ced:	83 e8 01             	sub    $0x1,%eax
   17cf0:	89 85 84 fb ff ff    	mov    %eax,-0x47c(%rbp)
   17cf6:	48 8b 85 28 ed ff ff 	mov    -0x12d8(%rbp),%rax
   17cfd:	48 8b 00             	mov    (%rax),%rax
   17d00:	48 8d 50 ff          	lea    -0x1(%rax),%rdx
   17d04:	48 8b 85 28 ed ff ff 	mov    -0x12d8(%rbp),%rax
   17d0b:	48 89 10             	mov    %rdx,(%rax)
   17d0e:	8b 05 10 53 00 00    	mov    0x5310(%rip),%eax        # 1d024 <g_5>
   17d14:	85 c0                	test   %eax,%eax
   17d16:	0f 95 c2             	setne  %dl
   17d19:	48 8b 85 20 ed ff ff 	mov    -0x12e0(%rbp),%rax
   17d20:	0f b6 d2             	movzbl %dl,%edx
   17d23:	48 89 10             	mov    %rdx,(%rax)
   17d26:	48 8b 85 d0 ed ff ff 	mov    -0x1230(%rbp),%rax
   17d2d:	8b 10                	mov    (%rax),%edx
   17d2f:	8b 0d f3 52 00 00    	mov    0x52f3(%rip),%ecx        # 1d028 <g_25>
   17d35:	8b 05 ed 52 00 00    	mov    0x52ed(%rip),%eax        # 1d028 <g_25>
   17d3b:	48 98                	cltq   
   17d3d:	48 63 c9             	movslq %ecx,%rcx
   17d40:	48 c1 e1 02          	shl    $0x2,%rcx
   17d44:	48 01 c8             	add    %rcx,%rax
   17d47:	48 8d 0c c5 00 00 00 	lea    0x0(,%rax,8),%rcx
   17d4e:	00 
   17d4f:	48 8d 05 0a 66 00 00 	lea    0x660a(%rip),%rax        # 1e360 <g_28>
   17d56:	48 01 c8             	add    %rcx,%rax
   17d59:	48 39 85 d8 ed ff ff 	cmp    %rax,-0x1228(%rbp)
   17d60:	0f 95 c0             	setne  %al
   17d63:	0f b6 c0             	movzbl %al,%eax
   17d66:	39 c2                	cmp    %eax,%edx
   17d68:	0f 9e c0             	setle  %al
   17d6b:	0f b6 c0             	movzbl %al,%eax
   17d6e:	48 8b 15 ab 67 00 00 	mov    0x67ab(%rip),%rdx        # 1e520 <g_131>
   17d75:	48 8d 0d 14 53 00 00 	lea    0x5314(%rip),%rcx        # 1d090 <g_55>
   17d7c:	48 39 ca             	cmp    %rcx,%rdx
   17d7f:	0f 94 c2             	sete   %dl
   17d82:	0f b6 ca             	movzbl %dl,%ecx
   17d85:	48 8b 15 cc 52 00 00 	mov    0x52cc(%rip),%rdx        # 1d058 <g_27+0x18>
   17d8c:	48 21 ca             	and    %rcx,%rdx
   17d8f:	48 39 d0             	cmp    %rdx,%rax
   17d92:	48 8d 05 8f 67 00 00 	lea    0x678f(%rip),%rax        # 1e528 <g_175>
   17d99:	48 89 85 40 ee ff ff 	mov    %rax,-0x11c0(%rbp)
   17da0:	c7 85 98 ed ff ff ff 	movl   $0xffffffff,-0x1268(%rbp)
   17da7:	ff ff ff 
   17daa:	48 c7 85 48 ee ff ff 	movq   $0x0,-0x11b8(%rbp)
   17db1:	00 00 00 00 
   17db5:	48 8d 85 3a ed ff ff 	lea    -0x12c6(%rbp),%rax
   17dbc:	48 89 85 90 f4 ff ff 	mov    %rax,-0xb70(%rbp)
   17dc3:	48 8d 85 3a ed ff ff 	lea    -0x12c6(%rbp),%rax
   17dca:	48 89 85 98 f4 ff ff 	mov    %rax,-0xb68(%rbp)
   17dd1:	48 8d 85 3a ed ff ff 	lea    -0x12c6(%rbp),%rax
   17dd8:	48 89 85 a0 f4 ff ff 	mov    %rax,-0xb60(%rbp)
   17ddf:	48 8d 85 3a ed ff ff 	lea    -0x12c6(%rbp),%rax
   17de6:	48 89 85 a8 f4 ff ff 	mov    %rax,-0xb58(%rbp)
   17ded:	48 8d 85 b0 ed ff ff 	lea    -0x1250(%rbp),%rax
   17df4:	48 89 85 50 ee ff ff 	mov    %rax,-0x11b0(%rbp)
   17dfb:	48 8b 05 ce 91 00 00 	mov    0x91ce(%rip),%rax        # 20fd0 <g_162>
   17e02:	89 c3                	mov    %eax,%ebx
   17e04:	48 8b 85 a8 ed ff ff 	mov    -0x1258(%rbp),%rax
   17e0b:	8b 00                	mov    (%rax),%eax
   17e0d:	41 89 c4             	mov    %eax,%r12d
   17e10:	83 bd 98 ed ff ff 00 	cmpl   $0x0,-0x1268(%rbp)
   17e17:	74 13                	je     17e2c <func_51+0x1746>
   17e19:	48 8b 05 78 53 00 00 	mov    0x5378(%rip),%rax        # 1d198 <g_132+0x18>
   17e20:	48 85 c0             	test   %rax,%rax
   17e23:	75 07                	jne    17e2c <func_51+0x1746>
   17e25:	b8 01 00 00 00       	mov    $0x1,%eax
   17e2a:	eb 05                	jmp    17e31 <func_51+0x174b>
   17e2c:	b8 00 00 00 00       	mov    $0x0,%eax
   17e31:	89 05 b9 53 00 00    	mov    %eax,0x53b9(%rip)        # 1d1f0 <g_190+0x30>
   17e37:	8b 15 b3 53 00 00    	mov    0x53b3(%rip),%edx        # 1d1f0 <g_190+0x30>
   17e3d:	48 8b 85 d0 ed ff ff 	mov    -0x1230(%rbp),%rax
   17e44:	8b 00                	mov    (%rax),%eax
   17e46:	39 c2                	cmp    %eax,%edx
   17e48:	0f 93 c0             	setae  %al
   17e4b:	0f b6 c0             	movzbl %al,%eax
   17e4e:	be 02 00 00 00       	mov    $0x2,%esi
   17e53:	89 c7                	mov    %eax,%edi
   17e55:	e8 ab 0d ff ff       	callq  8c05 <safe_lshift_func_uint8_t_u_s>
   17e5a:	48 8b 85 f0 ed ff ff 	mov    -0x1210(%rbp),%rax
   17e61:	48 c7 00 00 00 00 00 	movq   $0x0,(%rax)
   17e68:	48 8b 05 01 52 00 00 	mov    0x5201(%rip),%rax        # 1d070 <g_27+0x30>
   17e6f:	0f b6 c0             	movzbl %al,%eax
   17e72:	be 04 00 00 00       	mov    $0x4,%esi
   17e77:	89 c7                	mov    %eax,%edi
   17e79:	e8 87 0d ff ff       	callq  8c05 <safe_lshift_func_uint8_t_u_s>
   17e7e:	0f b6 d0             	movzbl %al,%edx
   17e81:	48 8b 05 08 52 00 00 	mov    0x5208(%rip),%rax        # 1d090 <g_55>
   17e88:	48 39 c2             	cmp    %rax,%rdx
   17e8b:	0f 93 c0             	setae  %al
   17e8e:	0f b6 c0             	movzbl %al,%eax
   17e91:	be 04 00 00 00       	mov    $0x4,%esi
   17e96:	89 c7                	mov    %eax,%edi
   17e98:	e8 21 0e ff ff       	callq  8cbe <safe_rshift_func_uint8_t_u_u>
   17e9d:	48 8b 05 b4 51 00 00 	mov    0x51b4(%rip),%rax        # 1d058 <g_27+0x18>
   17ea4:	48 89 c2             	mov    %rax,%rdx
   17ea7:	48 8b 05 22 91 00 00 	mov    0x9122(%rip),%rax        # 20fd0 <g_162>
   17eae:	48 39 c2             	cmp    %rax,%rdx
   17eb1:	0f 92 c0             	setb   %al
   17eb4:	0f b6 d0             	movzbl %al,%edx
   17eb7:	48 8b 85 50 ee ff ff 	mov    -0x11b0(%rbp),%rax
   17ebe:	48 89 10             	mov    %rdx,(%rax)
   17ec1:	48 8b 85 50 ee ff ff 	mov    -0x11b0(%rbp),%rax
   17ec8:	48 8b 00             	mov    (%rax),%rax
   17ecb:	48 89 c2             	mov    %rax,%rdx
   17ece:	48 b8 f9 1d 0c 4c d4 	movabs $0x9dda72d44c0c1df9,%rax
   17ed5:	72 da 9d 
   17ed8:	48 39 c2             	cmp    %rax,%rdx
   17edb:	77 07                	ja     17ee4 <func_51+0x17fe>
   17edd:	b8 bb 01 ea de       	mov    $0xdeea01bb,%eax
   17ee2:	eb 05                	jmp    17ee9 <func_51+0x1803>
   17ee4:	b8 ba 01 ea de       	mov    $0xdeea01ba,%eax
   17ee9:	44 89 e6             	mov    %r12d,%esi
   17eec:	89 c7                	mov    %eax,%edi
   17eee:	e8 0a 10 ff ff       	callq  8efd <safe_mod_func_uint32_t_u_u>
   17ef3:	48 8b 15 2e 66 00 00 	mov    0x662e(%rip),%rdx        # 1e528 <g_175>
   17efa:	48 8b 85 40 ee ff ff 	mov    -0x11c0(%rbp),%rax
   17f01:	48 89 10             	mov    %rdx,(%rax)
   17f04:	48 8b 85 40 ee ff ff 	mov    -0x11c0(%rbp),%rax
   17f0b:	48 8b 00             	mov    (%rax),%rax
   17f0e:	48 8d 15 c3 90 00 00 	lea    0x90c3(%rip),%rdx        # 20fd8 <g_176>
   17f15:	48 39 d0             	cmp    %rdx,%rax
   17f18:	0f 94 c0             	sete   %al
   17f1b:	0f b6 c0             	movzbl %al,%eax
   17f1e:	89 de                	mov    %ebx,%esi
   17f20:	89 c7                	mov    %eax,%edi
   17f22:	e8 c7 03 ff ff       	callq  82ee <safe_lshift_func_int8_t_s_u>
   17f27:	84 c0                	test   %al,%al
   17f29:	0f 84 d7 00 00 00    	je     18006 <func_51+0x1920>
   17f2f:	48 8d 05 07 52 00 00 	lea    0x5207(%rip),%rax        # 1d13d <g_92+0x7d>
   17f36:	48 89 85 58 ee ff ff 	mov    %rax,-0x11a8(%rbp)
   17f3d:	c7 85 9c ed ff ff 66 	movl   $0xc2ffac66,-0x1264(%rbp)
   17f44:	ac ff c2 
   17f47:	48 8b 85 d8 ed ff ff 	mov    -0x1228(%rbp),%rax
   17f4e:	48 8d 95 3c ed ff ff 	lea    -0x12c4(%rbp),%rdx
   17f55:	48 89 10             	mov    %rdx,(%rax)
   17f58:	8b 85 9c ed ff ff    	mov    -0x1264(%rbp),%eax
   17f5e:	0f b7 d8             	movzwl %ax,%ebx
   17f61:	48 8b 05 20 52 00 00 	mov    0x5220(%rip),%rax        # 1d188 <g_132+0x8>
   17f68:	0f b7 c0             	movzwl %ax,%eax
   17f6b:	be 07 00 00 00       	mov    $0x7,%esi
   17f70:	89 c7                	mov    %eax,%edi
   17f72:	e8 8f 0e ff ff       	callq  8e06 <safe_lshift_func_uint16_t_u_u>
   17f77:	48 8b 05 ea 50 00 00 	mov    0x50ea(%rip),%rax        # 1d068 <g_27+0x28>
   17f7e:	49 89 c5             	mov    %rax,%r13
   17f81:	48 8b 85 a8 ed ff ff 	mov    -0x1258(%rbp),%rax
   17f88:	44 8b 20             	mov    (%rax),%r12d
   17f8b:	8b 05 37 52 00 00    	mov    0x5237(%rip),%eax        # 1d1c8 <g_190+0x8>
   17f91:	89 c6                	mov    %eax,%esi
   17f93:	bf b4 97 ff ff       	mov    $0xffff97b4,%edi
   17f98:	e8 8d 05 ff ff       	callq  852a <safe_rshift_func_int16_t_s_s>
   17f9d:	98                   	cwtl   
   17f9e:	41 39 c4             	cmp    %eax,%r12d
   17fa1:	0f 9d c0             	setge  %al
   17fa4:	0f b6 c0             	movzbl %al,%eax
   17fa7:	4c 89 ee             	mov    %r13,%rsi
   17faa:	48 89 c7             	mov    %rax,%rdi
   17fad:	e8 7c 10 ff ff       	callq  902e <safe_add_func_uint64_t_u_u>
   17fb2:	35 05 a8 00 00       	xor    $0xa805,%eax
   17fb7:	89 c2                	mov    %eax,%edx
   17fb9:	48 8d 05 7d 51 00 00 	lea    0x517d(%rip),%rax        # 1d13d <g_92+0x7d>
   17fc0:	48 39 85 58 ee ff ff 	cmp    %rax,-0x11a8(%rbp)
   17fc7:	0f 95 c0             	setne  %al
   17fca:	0f b6 c0             	movzbl %al,%eax
   17fcd:	89 d6                	mov    %edx,%esi
   17fcf:	89 c7                	mov    %eax,%edi
   17fd1:	e8 29 07 ff ff       	callq  86ff <safe_div_func_int32_t_s_s>
   17fd6:	48 8b 95 e0 ed ff ff 	mov    -0x1220(%rbp),%rdx
   17fdd:	8b 12                	mov    (%rdx),%edx
   17fdf:	39 d0                	cmp    %edx,%eax
   17fe1:	89 de                	mov    %ebx,%esi
   17fe3:	bf 01 00 00 00       	mov    $0x1,%edi
   17fe8:	e8 50 0d ff ff       	callq  8d3d <safe_mul_func_uint16_t_u_u>
   17fed:	48 8b 95 30 ee ff ff 	mov    -0x11d0(%rbp),%rdx
   17ff4:	8b 12                	mov    (%rdx),%edx
   17ff6:	0f b7 c0             	movzwl %ax,%eax
   17ff9:	09 c2                	or     %eax,%edx
   17ffb:	48 8b 85 30 ee ff ff 	mov    -0x11d0(%rbp),%rax
   18002:	89 10                	mov    %edx,(%rax)
   18004:	eb 14                	jmp    1801a <func_51+0x1934>
   18006:	48 8b 15 1b 65 00 00 	mov    0x651b(%rip),%rdx        # 1e528 <g_175>
   1800d:	48 8b 05 14 65 00 00 	mov    0x6514(%rip),%rax        # 1e528 <g_175>
   18014:	48 8b 12             	mov    (%rdx),%rdx
   18017:	48 89 10             	mov    %rdx,(%rax)
   1801a:	48 8b 85 e8 ed ff ff 	mov    -0x1218(%rbp),%rax
   18021:	48 8d 15 00 50 00 00 	lea    0x5000(%rip),%rdx        # 1d028 <g_25>
   18028:	48 89 10             	mov    %rdx,(%rax)
   1802b:	48 8b 85 e8 ed ff ff 	mov    -0x1218(%rbp),%rax
   18032:	48 8b 10             	mov    (%rax),%rdx
   18035:	48 8b 85 d8 ed ff ff 	mov    -0x1228(%rbp),%rax
   1803c:	48 8b 00             	mov    (%rax),%rax
   1803f:	48 39 c2             	cmp    %rax,%rdx
   18042:	74 2d                	je     18071 <func_51+0x198b>
   18044:	48 8b 85 e0 ed ff ff 	mov    -0x1220(%rbp),%rax
   1804b:	8b 00                	mov    (%rax),%eax
   1804d:	83 c8 01             	or     $0x1,%eax
   18050:	89 c2                	mov    %eax,%edx
   18052:	48 8b 85 e0 ed ff ff 	mov    -0x1220(%rbp),%rax
   18059:	89 10                	mov    %edx,(%rax)
   1805b:	48 8b 85 e8 ed ff ff 	mov    -0x1218(%rbp),%rax
   18062:	48 8b 10             	mov    (%rax),%rdx
   18065:	48 8b 85 d8 ed ff ff 	mov    -0x1228(%rbp),%rax
   1806c:	48 89 10             	mov    %rdx,(%rax)
   1806f:	eb 14                	jmp    18085 <func_51+0x199f>
   18071:	48 8b 85 e8 ed ff ff 	mov    -0x1218(%rbp),%rax
   18078:	48 8b 10             	mov    (%rax),%rdx
   1807b:	48 8b 85 d8 ed ff ff 	mov    -0x1228(%rbp),%rax
   18082:	48 89 10             	mov    %rdx,(%rax)
   18085:	8b 05 0d 50 00 00    	mov    0x500d(%rip),%eax        # 1d098 <g_63>
   1808b:	85 c0                	test   %eax,%eax
   1808d:	75 10                	jne    1809f <func_51+0x19b9>
   1808f:	48 8b 85 e8 ed ff ff 	mov    -0x1218(%rbp),%rax
   18096:	48 8b 00             	mov    (%rax),%rax
   18099:	8b 00                	mov    (%rax),%eax
   1809b:	85 c0                	test   %eax,%eax
   1809d:	74 07                	je     180a6 <func_51+0x19c0>
   1809f:	ba 01 00 00 00       	mov    $0x1,%edx
   180a4:	eb 05                	jmp    180ab <func_51+0x19c5>
   180a6:	ba 00 00 00 00       	mov    $0x0,%edx
   180ab:	48 8b 85 30 ee ff ff 	mov    -0x11d0(%rbp),%rax
   180b2:	89 10                	mov    %edx,(%rax)
   180b4:	48 8d 05 6d 4f 00 00 	lea    0x4f6d(%rip),%rax        # 1d028 <g_25>
   180bb:	eb 3f                	jmp    180fc <func_51+0x1a16>
   180bd:	48 8b 85 d0 ed ff ff 	mov    -0x1230(%rbp),%rax
   180c4:	8b 00                	mov    (%rax),%eax
   180c6:	85 c0                	test   %eax,%eax
   180c8:	0f 95 c0             	setne  %al
   180cb:	0f b6 d0             	movzbl %al,%edx
   180ce:	48 8b 85 d0 ed ff ff 	mov    -0x1230(%rbp),%rax
   180d5:	89 10                	mov    %edx,(%rax)
   180d7:	8b 05 47 4f 00 00    	mov    0x4f47(%rip),%eax        # 1d024 <g_5>
   180dd:	83 c0 01             	add    $0x1,%eax
   180e0:	89 05 3e 4f 00 00    	mov    %eax,0x4f3e(%rip)        # 1d024 <g_5>
   180e6:	8b 05 38 4f 00 00    	mov    0x4f38(%rip),%eax        # 1d024 <g_5>
   180ec:	83 f8 03             	cmp    $0x3,%eax
   180ef:	0f 8e 04 e7 ff ff    	jle    167f9 <func_51+0x113>
   180f5:	48 8d 05 2c 4f 00 00 	lea    0x4f2c(%rip),%rax        # 1d028 <g_25>
   180fc:	48 8b 5d c8          	mov    -0x38(%rbp),%rbx
   18100:	64 48 33 1c 25 28 00 	xor    %fs:0x28,%rbx
   18107:	00 00 
   18109:	74 05                	je     18110 <func_51+0x1a2a>
   1810b:	e8 60 ff fe ff       	callq  8070 <__stack_chk_fail@plt>
   18110:	48 81 c4 c8 12 00 00 	add    $0x12c8,%rsp
   18117:	5b                   	pop    %rbx
   18118:	41 5c                	pop    %r12
   1811a:	41 5d                	pop    %r13
   1811c:	41 5e                	pop    %r14
   1811e:	41 5f                	pop    %r15
   18120:	5d                   	pop    %rbp
   18121:	c3                   	retq   

0000000000018122 <main>:
   18122:	f3 0f 1e fa          	endbr64 
   18126:	55                   	push   %rbp
   18127:	48 89 e5             	mov    %rsp,%rbp
   1812a:	48 83 ec 20          	sub    $0x20,%rsp
   1812e:	89 7d ec             	mov    %edi,-0x14(%rbp)
   18131:	48 89 75 e0          	mov    %rsi,-0x20(%rbp)
   18135:	c7 45 fc 00 00 00 00 	movl   $0x0,-0x4(%rbp)
   1813c:	83 7d ec 02          	cmpl   $0x2,-0x14(%rbp)
   18140:	75 25                	jne    18167 <main+0x45>
   18142:	48 8b 45 e0          	mov    -0x20(%rbp),%rax
   18146:	48 83 c0 08          	add    $0x8,%rax
   1814a:	48 8b 00             	mov    (%rax),%rax
   1814d:	48 8d 35 2c 23 00 00 	lea    0x232c(%rip),%rsi        # 1a480 <g_3087+0x13f8>
   18154:	48 89 c7             	mov    %rax,%rdi
   18157:	e8 34 ff fe ff       	callq  8090 <strcmp@plt>
   1815c:	85 c0                	test   %eax,%eax
   1815e:	75 07                	jne    18167 <main+0x45>
   18160:	c7 45 fc 01 00 00 00 	movl   $0x1,-0x4(%rbp)
   18167:	e8 1d 00 ff ff       	callq  8189 <platform_main_begin>
   1816c:	e8 27 14 ff ff       	callq  9598 <crc32_gentab>
   18171:	e8 3f 16 ff ff       	callq  97b5 <func_1>
   18176:	8b 05 a8 4e 00 00    	mov    0x4ea8(%rip),%eax        # 1d024 <g_5>
   1817c:	48 98                	cltq   
   1817e:	8b 55 fc             	mov    -0x4(%rbp),%edx
   18181:	48 8d 35 fa 22 00 00 	lea    0x22fa(%rip),%rsi        # 1a482 <g_3087+0x13fa>
   18188:	48 89 c7             	mov    %rax,%rdi
   1818b:	e8 63 15 ff ff       	callq  96f3 <transparent_crc>
   18190:	8b 05 92 4e 00 00    	mov    0x4e92(%rip),%eax        # 1d028 <g_25>
   18196:	48 98                	cltq   
   18198:	8b 55 fc             	mov    -0x4(%rbp),%edx
   1819b:	48 8d 35 e4 22 00 00 	lea    0x22e4(%rip),%rsi        # 1a486 <g_3087+0x13fe>
   181a2:	48 89 c7             	mov    %rax,%rdi
   181a5:	e8 49 15 ff ff       	callq  96f3 <transparent_crc>
   181aa:	c7 45 f0 00 00 00 00 	movl   $0x0,-0x10(%rbp)
   181b1:	eb 4f                	jmp    18202 <main+0xe0>
   181b3:	8b 45 f0             	mov    -0x10(%rbp),%eax
   181b6:	48 98                	cltq   
   181b8:	48 8d 14 c5 00 00 00 	lea    0x0(,%rax,8),%rdx
   181bf:	00 
   181c0:	48 8d 05 79 4e 00 00 	lea    0x4e79(%rip),%rax        # 1d040 <g_27>
   181c7:	48 8b 04 02          	mov    (%rdx,%rax,1),%rax
   181cb:	48 89 c1             	mov    %rax,%rcx
   181ce:	8b 45 fc             	mov    -0x4(%rbp),%eax
   181d1:	89 c2                	mov    %eax,%edx
   181d3:	48 8d 35 b1 22 00 00 	lea    0x22b1(%rip),%rsi        # 1a48b <g_3087+0x1403>
   181da:	48 89 cf             	mov    %rcx,%rdi
   181dd:	e8 11 15 ff ff       	callq  96f3 <transparent_crc>
   181e2:	83 7d fc 00          	cmpl   $0x0,-0x4(%rbp)
   181e6:	74 16                	je     181fe <main+0xdc>
   181e8:	8b 45 f0             	mov    -0x10(%rbp),%eax
   181eb:	89 c6                	mov    %eax,%esi
   181ed:	48 8d 3d 9f 22 00 00 	lea    0x229f(%rip),%rdi        # 1a493 <g_3087+0x140b>
   181f4:	b8 00 00 00 00       	mov    $0x0,%eax
   181f9:	e8 82 fe fe ff       	callq  8080 <printf@plt>
   181fe:	83 45 f0 01          	addl   $0x1,-0x10(%rbp)
   18202:	83 7d f0 09          	cmpl   $0x9,-0x10(%rbp)
   18206:	7e ab                	jle    181b3 <main+0x91>
   18208:	48 8b 05 81 4e 00 00 	mov    0x4e81(%rip),%rax        # 1d090 <g_55>
   1820f:	8b 55 fc             	mov    -0x4(%rbp),%edx
   18212:	48 8d 35 88 22 00 00 	lea    0x2288(%rip),%rsi        # 1a4a1 <g_3087+0x1419>
   18219:	48 89 c7             	mov    %rax,%rdi
   1821c:	e8 d2 14 ff ff       	callq  96f3 <transparent_crc>
   18221:	8b 05 71 4e 00 00    	mov    0x4e71(%rip),%eax        # 1d098 <g_63>
   18227:	48 98                	cltq   
   18229:	8b 55 fc             	mov    -0x4(%rbp),%edx
   1822c:	48 8d 35 73 22 00 00 	lea    0x2273(%rip),%rsi        # 1a4a6 <g_3087+0x141e>
   18233:	48 89 c7             	mov    %rax,%rdi
   18236:	e8 b8 14 ff ff       	callq  96f3 <transparent_crc>
   1823b:	48 8b 05 5e 4e 00 00 	mov    0x4e5e(%rip),%rax        # 1d0a0 <g_89>
   18242:	48 89 c1             	mov    %rax,%rcx
   18245:	8b 45 fc             	mov    -0x4(%rbp),%eax
   18248:	89 c2                	mov    %eax,%edx
   1824a:	48 8d 35 5a 22 00 00 	lea    0x225a(%rip),%rsi        # 1a4ab <g_3087+0x1423>
   18251:	48 89 cf             	mov    %rcx,%rdi
   18254:	e8 9a 14 ff ff       	callq  96f3 <transparent_crc>
   18259:	c7 45 f0 00 00 00 00 	movl   $0x0,-0x10(%rbp)
   18260:	e9 ae 00 00 00       	jmpq   18313 <main+0x1f1>
   18265:	c7 45 f4 00 00 00 00 	movl   $0x0,-0xc(%rbp)
   1826c:	e9 94 00 00 00       	jmpq   18305 <main+0x1e3>
   18271:	c7 45 f8 00 00 00 00 	movl   $0x0,-0x8(%rbp)
   18278:	eb 7d                	jmp    182f7 <main+0x1d5>
   1827a:	8b 45 f8             	mov    -0x8(%rbp),%eax
   1827d:	48 63 f0             	movslq %eax,%rsi
   18280:	8b 45 f0             	mov    -0x10(%rbp),%eax
   18283:	48 63 d0             	movslq %eax,%rdx
   18286:	8b 45 f4             	mov    -0xc(%rbp),%eax
   18289:	48 63 c8             	movslq %eax,%rcx
   1828c:	48 89 d0             	mov    %rdx,%rax
   1828f:	48 c1 e0 02          	shl    $0x2,%rax
   18293:	48 01 d0             	add    %rdx,%rax
   18296:	48 c1 e0 02          	shl    $0x2,%rax
   1829a:	48 01 d0             	add    %rdx,%rax
   1829d:	48 89 ca             	mov    %rcx,%rdx
   182a0:	48 c1 e2 03          	shl    $0x3,%rdx
   182a4:	48 29 ca             	sub    %rcx,%rdx
   182a7:	48 01 d0             	add    %rdx,%rax
   182aa:	48 8d 14 30          	lea    (%rax,%rsi,1),%rdx
   182ae:	48 8d 05 0b 4e 00 00 	lea    0x4e0b(%rip),%rax        # 1d0c0 <g_92>
   182b5:	48 01 d0             	add    %rdx,%rax
   182b8:	0f b6 00             	movzbl (%rax),%eax
   182bb:	48 0f be c0          	movsbq %al,%rax
   182bf:	8b 55 fc             	mov    -0x4(%rbp),%edx
   182c2:	48 8d 35 e7 21 00 00 	lea    0x21e7(%rip),%rsi        # 1a4b0 <g_3087+0x1428>
   182c9:	48 89 c7             	mov    %rax,%rdi
   182cc:	e8 22 14 ff ff       	callq  96f3 <transparent_crc>
   182d1:	83 7d fc 00          	cmpl   $0x0,-0x4(%rbp)
   182d5:	74 1c                	je     182f3 <main+0x1d1>
   182d7:	8b 4d f8             	mov    -0x8(%rbp),%ecx
   182da:	8b 55 f4             	mov    -0xc(%rbp),%edx
   182dd:	8b 45 f0             	mov    -0x10(%rbp),%eax
   182e0:	89 c6                	mov    %eax,%esi
   182e2:	48 8d 3d d5 21 00 00 	lea    0x21d5(%rip),%rdi        # 1a4be <g_3087+0x1436>
   182e9:	b8 00 00 00 00       	mov    $0x0,%eax
   182ee:	e8 8d fd fe ff       	callq  8080 <printf@plt>
   182f3:	83 45 f8 01          	addl   $0x1,-0x8(%rbp)
   182f7:	83 7d f8 06          	cmpl   $0x6,-0x8(%rbp)
   182fb:	0f 8e 79 ff ff ff    	jle    1827a <main+0x158>
   18301:	83 45 f4 01          	addl   $0x1,-0xc(%rbp)
   18305:	83 7d f4 02          	cmpl   $0x2,-0xc(%rbp)
   18309:	0f 8e 62 ff ff ff    	jle    18271 <main+0x14f>
   1830f:	83 45 f0 01          	addl   $0x1,-0x10(%rbp)
   18313:	83 7d f0 07          	cmpl   $0x7,-0x10(%rbp)
   18317:	0f 8e 48 ff ff ff    	jle    18265 <main+0x143>
   1831d:	c7 45 f0 00 00 00 00 	movl   $0x0,-0x10(%rbp)
   18324:	eb 4a                	jmp    18370 <main+0x24e>
   18326:	8b 45 f0             	mov    -0x10(%rbp),%eax
   18329:	48 98                	cltq   
   1832b:	48 8d 14 c5 00 00 00 	lea    0x0(,%rax,8),%rdx
   18332:	00 
   18333:	48 8d 05 46 4e 00 00 	lea    0x4e46(%rip),%rax        # 1d180 <g_132>
   1833a:	48 8b 04 02          	mov    (%rdx,%rax,1),%rax
   1833e:	8b 55 fc             	mov    -0x4(%rbp),%edx
   18341:	48 8d 35 8c 21 00 00 	lea    0x218c(%rip),%rsi        # 1a4d4 <g_3087+0x144c>
   18348:	48 89 c7             	mov    %rax,%rdi
   1834b:	e8 a3 13 ff ff       	callq  96f3 <transparent_crc>
   18350:	83 7d fc 00          	cmpl   $0x0,-0x4(%rbp)
   18354:	74 16                	je     1836c <main+0x24a>
   18356:	8b 45 f0             	mov    -0x10(%rbp),%eax
   18359:	89 c6                	mov    %eax,%esi
   1835b:	48 8d 3d 31 21 00 00 	lea    0x2131(%rip),%rdi        # 1a493 <g_3087+0x140b>
   18362:	b8 00 00 00 00       	mov    $0x0,%eax
   18367:	e8 14 fd fe ff       	callq  8080 <printf@plt>
   1836c:	83 45 f0 01          	addl   $0x1,-0x10(%rbp)
   18370:	83 7d f0 04          	cmpl   $0x4,-0x10(%rbp)
   18374:	7e b0                	jle    18326 <main+0x204>
   18376:	48 8b 05 53 8c 00 00 	mov    0x8c53(%rip),%rax        # 20fd0 <g_162>
   1837d:	8b 55 fc             	mov    -0x4(%rbp),%edx
   18380:	48 8d 35 56 21 00 00 	lea    0x2156(%rip),%rsi        # 1a4dd <g_3087+0x1455>
   18387:	48 89 c7             	mov    %rax,%rdi
   1838a:	e8 64 13 ff ff       	callq  96f3 <transparent_crc>
   1838f:	c7 45 f0 00 00 00 00 	movl   $0x0,-0x10(%rbp)
   18396:	eb 77                	jmp    1840f <main+0x2ed>
   18398:	c7 45 f4 00 00 00 00 	movl   $0x0,-0xc(%rbp)
   1839f:	eb 64                	jmp    18405 <main+0x2e3>
   183a1:	8b 45 f4             	mov    -0xc(%rbp),%eax
   183a4:	48 63 c8             	movslq %eax,%rcx
   183a7:	8b 45 f0             	mov    -0x10(%rbp),%eax
   183aa:	48 63 d0             	movslq %eax,%rdx
   183ad:	48 89 d0             	mov    %rdx,%rax
   183b0:	48 c1 e0 03          	shl    $0x3,%rax
   183b4:	48 29 d0             	sub    %rdx,%rax
   183b7:	48 01 c8             	add    %rcx,%rax
   183ba:	48 8d 14 85 00 00 00 	lea    0x0(,%rax,4),%rdx
   183c1:	00 
   183c2:	48 8d 05 f7 4d 00 00 	lea    0x4df7(%rip),%rax        # 1d1c0 <g_190>
   183c9:	8b 04 02             	mov    (%rdx,%rax,1),%eax
   183cc:	89 c1                	mov    %eax,%ecx
   183ce:	8b 45 fc             	mov    -0x4(%rbp),%eax
   183d1:	89 c2                	mov    %eax,%edx
   183d3:	48 8d 35 09 21 00 00 	lea    0x2109(%rip),%rsi        # 1a4e3 <g_3087+0x145b>
   183da:	48 89 cf             	mov    %rcx,%rdi
   183dd:	e8 11 13 ff ff       	callq  96f3 <transparent_crc>
   183e2:	83 7d fc 00          	cmpl   $0x0,-0x4(%rbp)
   183e6:	74 19                	je     18401 <main+0x2df>
   183e8:	8b 55 f4             	mov    -0xc(%rbp),%edx
   183eb:	8b 45 f0             	mov    -0x10(%rbp),%eax
   183ee:	89 c6                	mov    %eax,%esi
   183f0:	48 8d 3d f8 20 00 00 	lea    0x20f8(%rip),%rdi        # 1a4ef <g_3087+0x1467>
   183f7:	b8 00 00 00 00       	mov    $0x0,%eax
   183fc:	e8 7f fc fe ff       	callq  8080 <printf@plt>
   18401:	83 45 f4 01          	addl   $0x1,-0xc(%rbp)
   18405:	83 7d f4 06          	cmpl   $0x6,-0xc(%rbp)
   18409:	7e 96                	jle    183a1 <main+0x27f>
   1840b:	83 45 f0 01          	addl   $0x1,-0x10(%rbp)
   1840f:	83 7d f0 07          	cmpl   $0x7,-0x10(%rbp)
   18413:	7e 83                	jle    18398 <main+0x276>
   18415:	48 8b 05 84 4e 00 00 	mov    0x4e84(%rip),%rax        # 1d2a0 <g_209>
   1841c:	8b 55 fc             	mov    -0x4(%rbp),%edx
   1841f:	48 8d 35 db 20 00 00 	lea    0x20db(%rip),%rsi        # 1a501 <g_3087+0x1479>
   18426:	48 89 c7             	mov    %rax,%rdi
   18429:	e8 c5 12 ff ff       	callq  96f3 <transparent_crc>
   1842e:	0f b7 05 73 4e 00 00 	movzwl 0x4e73(%rip),%eax        # 1d2a8 <g_241>
   18435:	48 0f bf c0          	movswq %ax,%rax
   18439:	8b 55 fc             	mov    -0x4(%rbp),%edx
   1843c:	48 8d 35 c4 20 00 00 	lea    0x20c4(%rip),%rsi        # 1a507 <g_3087+0x147f>
   18443:	48 89 c7             	mov    %rax,%rdi
   18446:	e8 a8 12 ff ff       	callq  96f3 <transparent_crc>
   1844b:	0f b7 05 58 4e 00 00 	movzwl 0x4e58(%rip),%eax        # 1d2aa <g_243>
   18452:	48 0f bf c0          	movswq %ax,%rax
   18456:	8b 55 fc             	mov    -0x4(%rbp),%edx
   18459:	48 8d 35 ad 20 00 00 	lea    0x20ad(%rip),%rsi        # 1a50d <g_3087+0x1485>
   18460:	48 89 c7             	mov    %rax,%rdi
   18463:	e8 8b 12 ff ff       	callq  96f3 <transparent_crc>
   18468:	0f b6 05 71 8b 00 00 	movzbl 0x8b71(%rip),%eax        # 20fe0 <g_247>
   1846f:	48 0f be c0          	movsbq %al,%rax
   18473:	8b 55 fc             	mov    -0x4(%rbp),%edx
   18476:	48 8d 35 96 20 00 00 	lea    0x2096(%rip),%rsi        # 1a513 <g_3087+0x148b>
   1847d:	48 89 c7             	mov    %rax,%rdi
   18480:	e8 6e 12 ff ff       	callq  96f3 <transparent_crc>
   18485:	48 8b 05 24 4e 00 00 	mov    0x4e24(%rip),%rax        # 1d2b0 <g_339>
   1848c:	8b 55 fc             	mov    -0x4(%rbp),%edx
   1848f:	48 8d 35 83 20 00 00 	lea    0x2083(%rip),%rsi        # 1a519 <g_3087+0x1491>
   18496:	48 89 c7             	mov    %rax,%rdi
   18499:	e8 55 12 ff ff       	callq  96f3 <transparent_crc>
   1849e:	c7 45 f0 00 00 00 00 	movl   $0x0,-0x10(%rbp)
   184a5:	eb 4a                	jmp    184f1 <main+0x3cf>
   184a7:	8b 45 f0             	mov    -0x10(%rbp),%eax
   184aa:	48 98                	cltq   
   184ac:	48 8d 14 c5 00 00 00 	lea    0x0(,%rax,8),%rdx
   184b3:	00 
   184b4:	48 8d 05 fd 4d 00 00 	lea    0x4dfd(%rip),%rax        # 1d2b8 <g_375>
   184bb:	48 8b 04 02          	mov    (%rdx,%rax,1),%rax
   184bf:	8b 55 fc             	mov    -0x4(%rbp),%edx
   184c2:	48 8d 35 56 20 00 00 	lea    0x2056(%rip),%rsi        # 1a51f <g_3087+0x1497>
   184c9:	48 89 c7             	mov    %rax,%rdi
   184cc:	e8 22 12 ff ff       	callq  96f3 <transparent_crc>
   184d1:	83 7d fc 00          	cmpl   $0x0,-0x4(%rbp)
   184d5:	74 16                	je     184ed <main+0x3cb>
   184d7:	8b 45 f0             	mov    -0x10(%rbp),%eax
   184da:	89 c6                	mov    %eax,%esi
   184dc:	48 8d 3d b0 1f 00 00 	lea    0x1fb0(%rip),%rdi        # 1a493 <g_3087+0x140b>
   184e3:	b8 00 00 00 00       	mov    $0x0,%eax
   184e8:	e8 93 fb fe ff       	callq  8080 <printf@plt>
   184ed:	83 45 f0 01          	addl   $0x1,-0x10(%rbp)
   184f1:	83 7d f0 00          	cmpl   $0x0,-0x10(%rbp)
   184f5:	7e b0                	jle    184a7 <main+0x385>
   184f7:	c7 45 f0 00 00 00 00 	movl   $0x0,-0x10(%rbp)
   184fe:	eb 73                	jmp    18573 <main+0x451>
   18500:	c7 45 f4 00 00 00 00 	movl   $0x0,-0xc(%rbp)
   18507:	eb 60                	jmp    18569 <main+0x447>
   18509:	8b 45 f4             	mov    -0xc(%rbp),%eax
   1850c:	48 63 c8             	movslq %eax,%rcx
   1850f:	8b 45 f0             	mov    -0x10(%rbp),%eax
   18512:	48 63 d0             	movslq %eax,%rdx
   18515:	48 89 d0             	mov    %rdx,%rax
   18518:	48 c1 e0 03          	shl    $0x3,%rax
   1851c:	48 01 d0             	add    %rdx,%rax
   1851f:	48 01 c8             	add    %rcx,%rax
   18522:	48 8d 14 00          	lea    (%rax,%rax,1),%rdx
   18526:	48 8d 05 93 4d 00 00 	lea    0x4d93(%rip),%rax        # 1d2c0 <g_389>
   1852d:	0f b7 04 02          	movzwl (%rdx,%rax,1),%eax
   18531:	0f b7 c0             	movzwl %ax,%eax
   18534:	8b 55 fc             	mov    -0x4(%rbp),%edx
   18537:	48 8d 35 ea 1f 00 00 	lea    0x1fea(%rip),%rsi        # 1a528 <g_3087+0x14a0>
   1853e:	48 89 c7             	mov    %rax,%rdi
   18541:	e8 ad 11 ff ff       	callq  96f3 <transparent_crc>
   18546:	83 7d fc 00          	cmpl   $0x0,-0x4(%rbp)
   1854a:	74 19                	je     18565 <main+0x443>
   1854c:	8b 55 f4             	mov    -0xc(%rbp),%edx
   1854f:	8b 45 f0             	mov    -0x10(%rbp),%eax
   18552:	89 c6                	mov    %eax,%esi
   18554:	48 8d 3d 94 1f 00 00 	lea    0x1f94(%rip),%rdi        # 1a4ef <g_3087+0x1467>
   1855b:	b8 00 00 00 00       	mov    $0x0,%eax
   18560:	e8 1b fb fe ff       	callq  8080 <printf@plt>
   18565:	83 45 f4 01          	addl   $0x1,-0xc(%rbp)
   18569:	83 7d f4 08          	cmpl   $0x8,-0xc(%rbp)
   1856d:	7e 9a                	jle    18509 <main+0x3e7>
   1856f:	83 45 f0 01          	addl   $0x1,-0x10(%rbp)
   18573:	83 7d f0 06          	cmpl   $0x6,-0x10(%rbp)
   18577:	7e 87                	jle    18500 <main+0x3de>
   18579:	0f b6 05 be 4d 00 00 	movzbl 0x4dbe(%rip),%eax        # 1d33e <g_403>
   18580:	0f b6 c0             	movzbl %al,%eax
   18583:	8b 55 fc             	mov    -0x4(%rbp),%edx
   18586:	48 8d 35 a7 1f 00 00 	lea    0x1fa7(%rip),%rsi        # 1a534 <g_3087+0x14ac>
   1858d:	48 89 c7             	mov    %rax,%rdi
   18590:	e8 5e 11 ff ff       	callq  96f3 <transparent_crc>
   18595:	0f b6 05 a3 4d 00 00 	movzbl 0x4da3(%rip),%eax        # 1d33f <g_480>
   1859c:	0f b6 c0             	movzbl %al,%eax
   1859f:	8b 55 fc             	mov    -0x4(%rbp),%edx
   185a2:	48 8d 35 91 1f 00 00 	lea    0x1f91(%rip),%rsi        # 1a53a <g_3087+0x14b2>
   185a9:	48 89 c7             	mov    %rax,%rdi
   185ac:	e8 42 11 ff ff       	callq  96f3 <transparent_crc>
   185b1:	0f b7 05 88 4d 00 00 	movzwl 0x4d88(%rip),%eax        # 1d340 <g_730>
   185b8:	48 0f bf c0          	movswq %ax,%rax
   185bc:	8b 55 fc             	mov    -0x4(%rbp),%edx
   185bf:	48 8d 35 7a 1f 00 00 	lea    0x1f7a(%rip),%rsi        # 1a540 <g_3087+0x14b8>
   185c6:	48 89 c7             	mov    %rax,%rdi
   185c9:	e8 25 11 ff ff       	callq  96f3 <transparent_crc>
   185ce:	48 8b 05 73 4d 00 00 	mov    0x4d73(%rip),%rax        # 1d348 <g_733>
   185d5:	48 89 c1             	mov    %rax,%rcx
   185d8:	8b 45 fc             	mov    -0x4(%rbp),%eax
   185db:	89 c2                	mov    %eax,%edx
   185dd:	48 8d 35 62 1f 00 00 	lea    0x1f62(%rip),%rsi        # 1a546 <g_3087+0x14be>
   185e4:	48 89 cf             	mov    %rcx,%rdi
   185e7:	e8 07 11 ff ff       	callq  96f3 <transparent_crc>
   185ec:	48 8b 05 25 8a 00 00 	mov    0x8a25(%rip),%rax        # 21018 <g_777>
   185f3:	8b 55 fc             	mov    -0x4(%rbp),%edx
   185f6:	48 8d 35 4f 1f 00 00 	lea    0x1f4f(%rip),%rsi        # 1a54c <g_3087+0x14c4>
   185fd:	48 89 c7             	mov    %rax,%rdi
   18600:	e8 ee 10 ff ff       	callq  96f3 <transparent_crc>
   18605:	8b 05 45 4d 00 00    	mov    0x4d45(%rip),%eax        # 1d350 <g_964>
   1860b:	89 c1                	mov    %eax,%ecx
   1860d:	8b 45 fc             	mov    -0x4(%rbp),%eax
   18610:	89 c2                	mov    %eax,%edx
   18612:	48 8d 35 39 1f 00 00 	lea    0x1f39(%rip),%rsi        # 1a552 <g_3087+0x14ca>
   18619:	48 89 cf             	mov    %rcx,%rdi
   1861c:	e8 d2 10 ff ff       	callq  96f3 <transparent_crc>
   18621:	c7 45 f0 00 00 00 00 	movl   $0x0,-0x10(%rbp)
   18628:	e9 9e 00 00 00       	jmpq   186cb <main+0x5a9>
   1862d:	c7 45 f4 00 00 00 00 	movl   $0x0,-0xc(%rbp)
   18634:	e9 84 00 00 00       	jmpq   186bd <main+0x59b>
   18639:	c7 45 f8 00 00 00 00 	movl   $0x0,-0x8(%rbp)
   18640:	eb 71                	jmp    186b3 <main+0x591>
   18642:	8b 45 f8             	mov    -0x8(%rbp),%eax
   18645:	48 63 c8             	movslq %eax,%rcx
   18648:	8b 45 f0             	mov    -0x10(%rbp),%eax
   1864b:	48 63 d0             	movslq %eax,%rdx
   1864e:	8b 45 f4             	mov    -0xc(%rbp),%eax
   18651:	48 63 f0             	movslq %eax,%rsi
   18654:	48 89 d0             	mov    %rdx,%rax
   18657:	48 c1 e0 03          	shl    $0x3,%rax
   1865b:	48 29 d0             	sub    %rdx,%rax
   1865e:	48 01 f0             	add    %rsi,%rax
   18661:	48 c1 e0 02          	shl    $0x2,%rax
   18665:	48 01 c8             	add    %rcx,%rax
   18668:	48 8d 14 c5 00 00 00 	lea    0x0(,%rax,8),%rdx
   1866f:	00 
   18670:	48 8d 05 e9 4c 00 00 	lea    0x4ce9(%rip),%rax        # 1d360 <g_1035>
   18677:	48 8b 04 02          	mov    (%rdx,%rax,1),%rax
   1867b:	8b 55 fc             	mov    -0x4(%rbp),%edx
   1867e:	48 8d 35 d3 1e 00 00 	lea    0x1ed3(%rip),%rsi        # 1a558 <g_3087+0x14d0>
   18685:	48 89 c7             	mov    %rax,%rdi
   18688:	e8 66 10 ff ff       	callq  96f3 <transparent_crc>
   1868d:	83 7d fc 00          	cmpl   $0x0,-0x4(%rbp)
   18691:	74 1c                	je     186af <main+0x58d>
   18693:	8b 4d f8             	mov    -0x8(%rbp),%ecx
   18696:	8b 55 f4             	mov    -0xc(%rbp),%edx
   18699:	8b 45 f0             	mov    -0x10(%rbp),%eax
   1869c:	89 c6                	mov    %eax,%esi
   1869e:	48 8d 3d 19 1e 00 00 	lea    0x1e19(%rip),%rdi        # 1a4be <g_3087+0x1436>
   186a5:	b8 00 00 00 00       	mov    $0x0,%eax
   186aa:	e8 d1 f9 fe ff       	callq  8080 <printf@plt>
   186af:	83 45 f8 01          	addl   $0x1,-0x8(%rbp)
   186b3:	83 7d f8 03          	cmpl   $0x3,-0x8(%rbp)
   186b7:	7e 89                	jle    18642 <main+0x520>
   186b9:	83 45 f4 01          	addl   $0x1,-0xc(%rbp)
   186bd:	83 7d f4 06          	cmpl   $0x6,-0xc(%rbp)
   186c1:	0f 8e 72 ff ff ff    	jle    18639 <main+0x517>
   186c7:	83 45 f0 01          	addl   $0x1,-0x10(%rbp)
   186cb:	83 7d f0 07          	cmpl   $0x7,-0x10(%rbp)
   186cf:	0f 8e 58 ff ff ff    	jle    1862d <main+0x50b>
   186d5:	c7 45 f0 00 00 00 00 	movl   $0x0,-0x10(%rbp)
   186dc:	eb 6b                	jmp    18749 <main+0x627>
   186de:	c7 45 f4 00 00 00 00 	movl   $0x0,-0xc(%rbp)
   186e5:	eb 58                	jmp    1873f <main+0x61d>
   186e7:	8b 45 f4             	mov    -0xc(%rbp),%eax
   186ea:	48 98                	cltq   
   186ec:	8b 55 f0             	mov    -0x10(%rbp),%edx
   186ef:	48 63 d2             	movslq %edx,%rdx
   186f2:	48 c1 e2 03          	shl    $0x3,%rdx
   186f6:	48 01 c2             	add    %rax,%rdx
   186f9:	48 8d 05 60 53 00 00 	lea    0x5360(%rip),%rax        # 1da60 <g_1067>
   18700:	48 01 d0             	add    %rdx,%rax
   18703:	0f b6 00             	movzbl (%rax),%eax
   18706:	48 0f be c0          	movsbq %al,%rax
   1870a:	8b 55 fc             	mov    -0x4(%rbp),%edx
   1870d:	48 8d 35 54 1e 00 00 	lea    0x1e54(%rip),%rsi        # 1a568 <g_3087+0x14e0>
   18714:	48 89 c7             	mov    %rax,%rdi
   18717:	e8 d7 0f ff ff       	callq  96f3 <transparent_crc>
   1871c:	83 7d fc 00          	cmpl   $0x0,-0x4(%rbp)
   18720:	74 19                	je     1873b <main+0x619>
   18722:	8b 55 f4             	mov    -0xc(%rbp),%edx
   18725:	8b 45 f0             	mov    -0x10(%rbp),%eax
   18728:	89 c6                	mov    %eax,%esi
   1872a:	48 8d 3d be 1d 00 00 	lea    0x1dbe(%rip),%rdi        # 1a4ef <g_3087+0x1467>
   18731:	b8 00 00 00 00       	mov    $0x0,%eax
   18736:	e8 45 f9 fe ff       	callq  8080 <printf@plt>
   1873b:	83 45 f4 01          	addl   $0x1,-0xc(%rbp)
   1873f:	83 7d f4 07          	cmpl   $0x7,-0xc(%rbp)
   18743:	7e a2                	jle    186e7 <main+0x5c5>
   18745:	83 45 f0 01          	addl   $0x1,-0x10(%rbp)
   18749:	83 7d f0 06          	cmpl   $0x6,-0x10(%rbp)
   1874d:	7e 8f                	jle    186de <main+0x5bc>
   1874f:	8b 05 43 53 00 00    	mov    0x5343(%rip),%eax        # 1da98 <g_1151>
   18755:	89 c1                	mov    %eax,%ecx
   18757:	8b 45 fc             	mov    -0x4(%rbp),%eax
   1875a:	89 c2                	mov    %eax,%edx
   1875c:	48 8d 35 12 1e 00 00 	lea    0x1e12(%rip),%rsi        # 1a575 <g_3087+0x14ed>
   18763:	48 89 cf             	mov    %rcx,%rdi
   18766:	e8 88 0f ff ff       	callq  96f3 <transparent_crc>
   1876b:	8b 05 2b 53 00 00    	mov    0x532b(%rip),%eax        # 1da9c <g_1258>
   18771:	89 c1                	mov    %eax,%ecx
   18773:	8b 45 fc             	mov    -0x4(%rbp),%eax
   18776:	89 c2                	mov    %eax,%edx
   18778:	48 8d 35 fd 1d 00 00 	lea    0x1dfd(%rip),%rsi        # 1a57c <g_3087+0x14f4>
   1877f:	48 89 cf             	mov    %rcx,%rdi
   18782:	e8 6c 0f ff ff       	callq  96f3 <transparent_crc>
   18787:	0f b6 05 12 53 00 00 	movzbl 0x5312(%rip),%eax        # 1daa0 <g_1291>
   1878e:	48 0f be c0          	movsbq %al,%rax
   18792:	8b 55 fc             	mov    -0x4(%rbp),%edx
   18795:	48 8d 35 e7 1d 00 00 	lea    0x1de7(%rip),%rsi        # 1a583 <g_3087+0x14fb>
   1879c:	48 89 c7             	mov    %rax,%rdi
   1879f:	e8 4f 0f ff ff       	callq  96f3 <transparent_crc>
   187a4:	0f b7 05 7d 88 00 00 	movzwl 0x887d(%rip),%eax        # 21028 <g_1358>
   187ab:	0f b7 c0             	movzwl %ax,%eax
   187ae:	8b 55 fc             	mov    -0x4(%rbp),%edx
   187b1:	48 8d 35 d2 1d 00 00 	lea    0x1dd2(%rip),%rsi        # 1a58a <g_3087+0x1502>
   187b8:	48 89 c7             	mov    %rax,%rdi
   187bb:	e8 33 0f ff ff       	callq  96f3 <transparent_crc>
   187c0:	48 b9 35 05 e9 3d b3 	movabs $0xa04830b33de90535,%rcx
   187c7:	30 48 a0 
   187ca:	8b 45 fc             	mov    -0x4(%rbp),%eax
   187cd:	89 c2                	mov    %eax,%edx
   187cf:	48 8d 35 bb 1d 00 00 	lea    0x1dbb(%rip),%rsi        # 1a591 <g_3087+0x1509>
   187d6:	48 89 cf             	mov    %rcx,%rdi
   187d9:	e8 15 0f ff ff       	callq  96f3 <transparent_crc>
   187de:	c7 45 f0 00 00 00 00 	movl   $0x0,-0x10(%rbp)
   187e5:	eb 4d                	jmp    18834 <main+0x712>
   187e7:	8b 45 f0             	mov    -0x10(%rbp),%eax
   187ea:	48 98                	cltq   
   187ec:	48 8d 14 85 00 00 00 	lea    0x0(,%rax,4),%rdx
   187f3:	00 
   187f4:	48 8d 05 a9 52 00 00 	lea    0x52a9(%rip),%rax        # 1daa4 <g_1428>
   187fb:	8b 04 02             	mov    (%rdx,%rax,1),%eax
   187fe:	89 c1                	mov    %eax,%ecx
   18800:	8b 45 fc             	mov    -0x4(%rbp),%eax
   18803:	89 c2                	mov    %eax,%edx
   18805:	48 8d 35 8c 1d 00 00 	lea    0x1d8c(%rip),%rsi        # 1a598 <g_3087+0x1510>
   1880c:	48 89 cf             	mov    %rcx,%rdi
   1880f:	e8 df 0e ff ff       	callq  96f3 <transparent_crc>
   18814:	83 7d fc 00          	cmpl   $0x0,-0x4(%rbp)
   18818:	74 16                	je     18830 <main+0x70e>
   1881a:	8b 45 f0             	mov    -0x10(%rbp),%eax
   1881d:	89 c6                	mov    %eax,%esi
   1881f:	48 8d 3d 6d 1c 00 00 	lea    0x1c6d(%rip),%rdi        # 1a493 <g_3087+0x140b>
   18826:	b8 00 00 00 00       	mov    $0x0,%eax
   1882b:	e8 50 f8 fe ff       	callq  8080 <printf@plt>
   18830:	83 45 f0 01          	addl   $0x1,-0x10(%rbp)
   18834:	83 7d f0 00          	cmpl   $0x0,-0x10(%rbp)
   18838:	7e ad                	jle    187e7 <main+0x6c5>
   1883a:	48 8b 05 67 52 00 00 	mov    0x5267(%rip),%rax        # 1daa8 <g_1654>
   18841:	48 89 c1             	mov    %rax,%rcx
   18844:	8b 45 fc             	mov    -0x4(%rbp),%eax
   18847:	89 c2                	mov    %eax,%edx
   18849:	48 8d 35 52 1d 00 00 	lea    0x1d52(%rip),%rsi        # 1a5a2 <g_3087+0x151a>
   18850:	48 89 cf             	mov    %rcx,%rdi
   18853:	e8 9b 0e ff ff       	callq  96f3 <transparent_crc>
   18858:	48 8b 05 51 52 00 00 	mov    0x5251(%rip),%rax        # 1dab0 <g_1671>
   1885f:	8b 55 fc             	mov    -0x4(%rbp),%edx
   18862:	48 8d 35 40 1d 00 00 	lea    0x1d40(%rip),%rsi        # 1a5a9 <g_3087+0x1521>
   18869:	48 89 c7             	mov    %rax,%rdi
   1886c:	e8 82 0e ff ff       	callq  96f3 <transparent_crc>
   18871:	0f b7 05 c8 87 00 00 	movzwl 0x87c8(%rip),%eax        # 21040 <g_2019>
   18878:	0f b7 c0             	movzwl %ax,%eax
   1887b:	8b 55 fc             	mov    -0x4(%rbp),%edx
   1887e:	48 8d 35 2b 1d 00 00 	lea    0x1d2b(%rip),%rsi        # 1a5b0 <g_3087+0x1528>
   18885:	48 89 c7             	mov    %rax,%rdi
   18888:	e8 66 0e ff ff       	callq  96f3 <transparent_crc>
   1888d:	0f b6 05 24 52 00 00 	movzbl 0x5224(%rip),%eax        # 1dab8 <g_2044>
   18894:	48 0f be c0          	movsbq %al,%rax
   18898:	8b 55 fc             	mov    -0x4(%rbp),%edx
   1889b:	48 8d 35 15 1d 00 00 	lea    0x1d15(%rip),%rsi        # 1a5b7 <g_3087+0x152f>
   188a2:	48 89 c7             	mov    %rax,%rdi
   188a5:	e8 49 0e ff ff       	callq  96f3 <transparent_crc>
   188aa:	0f b7 05 09 52 00 00 	movzwl 0x5209(%rip),%eax        # 1daba <g_2083>
   188b1:	0f b7 c0             	movzwl %ax,%eax
   188b4:	8b 55 fc             	mov    -0x4(%rbp),%edx
   188b7:	48 8d 35 00 1d 00 00 	lea    0x1d00(%rip),%rsi        # 1a5be <g_3087+0x1536>
   188be:	48 89 c7             	mov    %rax,%rdi
   188c1:	e8 2d 0e ff ff       	callq  96f3 <transparent_crc>
   188c6:	8b 05 f0 51 00 00    	mov    0x51f0(%rip),%eax        # 1dabc <g_2100>
   188cc:	48 98                	cltq   
   188ce:	8b 55 fc             	mov    -0x4(%rbp),%edx
   188d1:	48 8d 35 ed 1c 00 00 	lea    0x1ced(%rip),%rsi        # 1a5c5 <g_3087+0x153d>
   188d8:	48 89 c7             	mov    %rax,%rdi
   188db:	e8 13 0e ff ff       	callq  96f3 <transparent_crc>
   188e0:	8b 05 da 51 00 00    	mov    0x51da(%rip),%eax        # 1dac0 <g_2236>
   188e6:	48 98                	cltq   
   188e8:	8b 55 fc             	mov    -0x4(%rbp),%edx
   188eb:	48 8d 35 da 1c 00 00 	lea    0x1cda(%rip),%rsi        # 1a5cc <g_3087+0x1544>
   188f2:	48 89 c7             	mov    %rax,%rdi
   188f5:	e8 f9 0d ff ff       	callq  96f3 <transparent_crc>
   188fa:	0f b6 05 c3 51 00 00 	movzbl 0x51c3(%rip),%eax        # 1dac4 <g_2616>
   18901:	0f b6 c0             	movzbl %al,%eax
   18904:	8b 55 fc             	mov    -0x4(%rbp),%edx
   18907:	48 8d 35 c5 1c 00 00 	lea    0x1cc5(%rip),%rsi        # 1a5d3 <g_3087+0x154b>
   1890e:	48 89 c7             	mov    %rax,%rdi
   18911:	e8 dd 0d ff ff       	callq  96f3 <transparent_crc>
   18916:	0f b6 05 a8 51 00 00 	movzbl 0x51a8(%rip),%eax        # 1dac5 <g_2619>
   1891d:	0f b6 c0             	movzbl %al,%eax
   18920:	8b 55 fc             	mov    -0x4(%rbp),%edx
   18923:	48 8d 35 b0 1c 00 00 	lea    0x1cb0(%rip),%rsi        # 1a5da <g_3087+0x1552>
   1892a:	48 89 c7             	mov    %rax,%rdi
   1892d:	e8 c1 0d ff ff       	callq  96f3 <transparent_crc>
   18932:	8b 05 90 51 00 00    	mov    0x5190(%rip),%eax        # 1dac8 <g_2622>
   18938:	89 c1                	mov    %eax,%ecx
   1893a:	8b 45 fc             	mov    -0x4(%rbp),%eax
   1893d:	89 c2                	mov    %eax,%edx
   1893f:	48 8d 35 9b 1c 00 00 	lea    0x1c9b(%rip),%rsi        # 1a5e1 <g_3087+0x1559>
   18946:	48 89 cf             	mov    %rcx,%rdi
   18949:	e8 a5 0d ff ff       	callq  96f3 <transparent_crc>
   1894e:	48 8b 05 7b 51 00 00 	mov    0x517b(%rip),%rax        # 1dad0 <g_2826>
   18955:	48 89 c1             	mov    %rax,%rcx
   18958:	8b 45 fc             	mov    -0x4(%rbp),%eax
   1895b:	89 c2                	mov    %eax,%edx
   1895d:	48 8d 35 84 1c 00 00 	lea    0x1c84(%rip),%rsi        # 1a5e8 <g_3087+0x1560>
   18964:	48 89 cf             	mov    %rcx,%rdi
   18967:	e8 87 0d ff ff       	callq  96f3 <transparent_crc>
   1896c:	0f b6 05 65 51 00 00 	movzbl 0x5165(%rip),%eax        # 1dad8 <g_2919>
   18973:	0f b6 c0             	movzbl %al,%eax
   18976:	8b 55 fc             	mov    -0x4(%rbp),%edx
   18979:	48 8d 35 6f 1c 00 00 	lea    0x1c6f(%rip),%rsi        # 1a5ef <g_3087+0x1567>
   18980:	48 89 c7             	mov    %rax,%rdi
   18983:	e8 6b 0d ff ff       	callq  96f3 <transparent_crc>
   18988:	8b 05 4e 51 00 00    	mov    0x514e(%rip),%eax        # 1dadc <g_2975>
   1898e:	48 98                	cltq   
   18990:	8b 55 fc             	mov    -0x4(%rbp),%edx
   18993:	48 8d 35 5c 1c 00 00 	lea    0x1c5c(%rip),%rsi        # 1a5f6 <g_3087+0x156e>
   1899a:	48 89 c7             	mov    %rax,%rdi
   1899d:	e8 51 0d ff ff       	callq  96f3 <transparent_crc>
   189a2:	0f b7 05 37 51 00 00 	movzwl 0x5137(%rip),%eax        # 1dae0 <g_3051>
   189a9:	48 0f bf c0          	movswq %ax,%rax
   189ad:	8b 55 fc             	mov    -0x4(%rbp),%edx
   189b0:	48 8d 35 46 1c 00 00 	lea    0x1c46(%rip),%rsi        # 1a5fd <g_3087+0x1575>
   189b7:	48 89 c7             	mov    %rax,%rdi
   189ba:	e8 34 0d ff ff       	callq  96f3 <transparent_crc>
   189bf:	b8 90 da ff ff       	mov    $0xffffda90,%eax
   189c4:	0f b7 c0             	movzwl %ax,%eax
   189c7:	8b 55 fc             	mov    -0x4(%rbp),%edx
   189ca:	48 8d 35 33 1c 00 00 	lea    0x1c33(%rip),%rsi        # 1a604 <g_3087+0x157c>
   189d1:	48 89 c7             	mov    %rax,%rdi
   189d4:	e8 1a 0d ff ff       	callq  96f3 <transparent_crc>
   189d9:	0f b7 05 02 51 00 00 	movzwl 0x5102(%rip),%eax        # 1dae2 <g_3345>
   189e0:	0f b7 c0             	movzwl %ax,%eax
   189e3:	8b 55 fc             	mov    -0x4(%rbp),%edx
   189e6:	48 8d 35 1e 1c 00 00 	lea    0x1c1e(%rip),%rsi        # 1a60b <g_3087+0x1583>
   189ed:	48 89 c7             	mov    %rax,%rdi
   189f0:	e8 fe 0c ff ff       	callq  96f3 <transparent_crc>
   189f5:	8b 05 e9 50 00 00    	mov    0x50e9(%rip),%eax        # 1dae4 <g_3368>
   189fb:	89 c1                	mov    %eax,%ecx
   189fd:	8b 45 fc             	mov    -0x4(%rbp),%eax
   18a00:	89 c2                	mov    %eax,%edx
   18a02:	48 8d 35 09 1c 00 00 	lea    0x1c09(%rip),%rsi        # 1a612 <g_3087+0x158a>
   18a09:	48 89 cf             	mov    %rcx,%rdi
   18a0c:	e8 e2 0c ff ff       	callq  96f3 <transparent_crc>
   18a11:	0f b6 05 d0 50 00 00 	movzbl 0x50d0(%rip),%eax        # 1dae8 <g_3379>
   18a18:	48 0f be c0          	movsbq %al,%rax
   18a1c:	8b 55 fc             	mov    -0x4(%rbp),%edx
   18a1f:	48 8d 35 f3 1b 00 00 	lea    0x1bf3(%rip),%rsi        # 1a619 <g_3087+0x1591>
   18a26:	48 89 c7             	mov    %rax,%rdi
   18a29:	e8 c5 0c ff ff       	callq  96f3 <transparent_crc>
   18a2e:	0f b6 05 3b 86 00 00 	movzbl 0x863b(%rip),%eax        # 21070 <g_3699>
   18a35:	0f b6 c0             	movzbl %al,%eax
   18a38:	8b 55 fc             	mov    -0x4(%rbp),%edx
   18a3b:	48 8d 35 de 1b 00 00 	lea    0x1bde(%rip),%rsi        # 1a620 <g_3087+0x1598>
   18a42:	48 89 c7             	mov    %rax,%rdi
   18a45:	e8 a9 0c ff ff       	callq  96f3 <transparent_crc>
   18a4a:	0f b6 05 98 50 00 00 	movzbl 0x5098(%rip),%eax        # 1dae9 <g_3720>
   18a51:	48 0f be c0          	movsbq %al,%rax
   18a55:	8b 55 fc             	mov    -0x4(%rbp),%edx
   18a58:	48 8d 35 c8 1b 00 00 	lea    0x1bc8(%rip),%rsi        # 1a627 <g_3087+0x159f>
   18a5f:	48 89 c7             	mov    %rax,%rdi
   18a62:	e8 8c 0c ff ff       	callq  96f3 <transparent_crc>
   18a67:	c7 45 f0 00 00 00 00 	movl   $0x0,-0x10(%rbp)
   18a6e:	eb 6c                	jmp    18adc <main+0x9ba>
   18a70:	c7 45 f4 00 00 00 00 	movl   $0x0,-0xc(%rbp)
   18a77:	eb 59                	jmp    18ad2 <main+0x9b0>
   18a79:	8b 45 f4             	mov    -0xc(%rbp),%eax
   18a7c:	48 98                	cltq   
   18a7e:	8b 55 f0             	mov    -0x10(%rbp),%edx
   18a81:	48 63 d2             	movslq %edx,%rdx
   18a84:	48 01 d2             	add    %rdx,%rdx
   18a87:	48 01 d0             	add    %rdx,%rax
   18a8a:	48 8d 14 c5 00 00 00 	lea    0x0(,%rax,8),%rdx
   18a91:	00 
   18a92:	48 8d 05 67 50 00 00 	lea    0x5067(%rip),%rax        # 1db00 <g_3821>
   18a99:	48 8b 04 02          	mov    (%rdx,%rax,1),%rax
   18a9d:	8b 55 fc             	mov    -0x4(%rbp),%edx
   18aa0:	48 8d 35 87 1b 00 00 	lea    0x1b87(%rip),%rsi        # 1a62e <g_3087+0x15a6>
   18aa7:	48 89 c7             	mov    %rax,%rdi
   18aaa:	e8 44 0c ff ff       	callq  96f3 <transparent_crc>
   18aaf:	83 7d fc 00          	cmpl   $0x0,-0x4(%rbp)
   18ab3:	74 19                	je     18ace <main+0x9ac>
   18ab5:	8b 55 f4             	mov    -0xc(%rbp),%edx
   18ab8:	8b 45 f0             	mov    -0x10(%rbp),%eax
   18abb:	89 c6                	mov    %eax,%esi
   18abd:	48 8d 3d 2b 1a 00 00 	lea    0x1a2b(%rip),%rdi        # 1a4ef <g_3087+0x1467>
   18ac4:	b8 00 00 00 00       	mov    $0x0,%eax
   18ac9:	e8 b2 f5 fe ff       	callq  8080 <printf@plt>
   18ace:	83 45 f4 01          	addl   $0x1,-0xc(%rbp)
   18ad2:	83 7d f4 01          	cmpl   $0x1,-0xc(%rbp)
   18ad6:	7e a1                	jle    18a79 <main+0x957>
   18ad8:	83 45 f0 01          	addl   $0x1,-0x10(%rbp)
   18adc:	83 7d f0 04          	cmpl   $0x4,-0x10(%rbp)
   18ae0:	7e 8e                	jle    18a70 <main+0x94e>
   18ae2:	8b 05 68 50 00 00    	mov    0x5068(%rip),%eax        # 1db50 <g_3976>
   18ae8:	89 c1                	mov    %eax,%ecx
   18aea:	8b 45 fc             	mov    -0x4(%rbp),%eax
   18aed:	89 c2                	mov    %eax,%edx
   18aef:	48 8d 35 45 1b 00 00 	lea    0x1b45(%rip),%rsi        # 1a63b <g_3087+0x15b3>
   18af6:	48 89 cf             	mov    %rcx,%rdi
   18af9:	e8 f5 0b ff ff       	callq  96f3 <transparent_crc>
   18afe:	8b 05 1c 45 00 00    	mov    0x451c(%rip),%eax        # 1d020 <crc32_context>
   18b04:	f7 d0                	not    %eax
   18b06:	89 c2                	mov    %eax,%edx
   18b08:	8b 45 fc             	mov    -0x4(%rbp),%eax
   18b0b:	89 c6                	mov    %eax,%esi
   18b0d:	89 d7                	mov    %edx,%edi
   18b0f:	e8 80 f6 fe ff       	callq  8194 <platform_main_end>
   18b14:	b8 00 00 00 00       	mov    $0x0,%eax
   18b19:	c9                   	leaveq 
   18b1a:	c3                   	retq   
   18b1b:	0f 1f 44 00 00       	nopl   0x0(%rax,%rax,1)

0000000000018b20 <__libc_csu_init>:
   18b20:	f3 0f 1e fa          	endbr64 
   18b24:	41 57                	push   %r15
   18b26:	4c 8d 3d 63 42 00 00 	lea    0x4263(%rip),%r15        # 1cd90 <__frame_dummy_init_array_entry>
   18b2d:	41 56                	push   %r14
   18b2f:	49 89 d6             	mov    %rdx,%r14
   18b32:	41 55                	push   %r13
   18b34:	49 89 f5             	mov    %rsi,%r13
   18b37:	41 54                	push   %r12
   18b39:	41 89 fc             	mov    %edi,%r12d
   18b3c:	55                   	push   %rbp
   18b3d:	48 8d 2d 54 42 00 00 	lea    0x4254(%rip),%rbp        # 1cd98 <__do_global_dtors_aux_fini_array_entry>
   18b44:	53                   	push   %rbx
   18b45:	4c 29 fd             	sub    %r15,%rbp
   18b48:	48 83 ec 08          	sub    $0x8,%rsp
   18b4c:	e8 af f4 fe ff       	callq  8000 <_init>
   18b51:	48 c1 fd 03          	sar    $0x3,%rbp
   18b55:	74 1f                	je     18b76 <__libc_csu_init+0x56>
   18b57:	31 db                	xor    %ebx,%ebx
   18b59:	0f 1f 80 00 00 00 00 	nopl   0x0(%rax)
   18b60:	4c 89 f2             	mov    %r14,%rdx
   18b63:	4c 89 ee             	mov    %r13,%rsi
   18b66:	44 89 e7             	mov    %r12d,%edi
   18b69:	41 ff 14 df          	callq  *(%r15,%rbx,8)
   18b6d:	48 83 c3 01          	add    $0x1,%rbx
   18b71:	48 39 dd             	cmp    %rbx,%rbp
   18b74:	75 ea                	jne    18b60 <__libc_csu_init+0x40>
   18b76:	48 83 c4 08          	add    $0x8,%rsp
   18b7a:	5b                   	pop    %rbx
   18b7b:	5d                   	pop    %rbp
   18b7c:	41 5c                	pop    %r12
   18b7e:	41 5d                	pop    %r13
   18b80:	41 5e                	pop    %r14
   18b82:	41 5f                	pop    %r15
   18b84:	c3                   	retq   
   18b85:	66 66 2e 0f 1f 84 00 	data16 nopw %cs:0x0(%rax,%rax,1)
   18b8c:	00 00 00 00 

0000000000018b90 <__libc_csu_fini>:
   18b90:	f3 0f 1e fa          	endbr64 
   18b94:	c3                   	retq   
