


Disassembly of section .text:

00000000000050a0 <_start>:
    50a0:	f3 0f 1e fa          	endbr64 
    50a4:	31 ed                	xor    %ebp,%ebp
    50a6:	49 89 d1             	mov    %rdx,%r9
    50a9:	5e                   	pop    %rsi
    50aa:	48 89 e2             	mov    %rsp,%rdx
    50ad:	48 83 e4 f0          	and    $0xfffffffffffffff0,%rsp
    50b1:	50                   	push   %rax
    50b2:	54                   	push   %rsp
    50b3:	4c 8d 05 46 37 01 00 	lea    0x13746(%rip),%r8        # 18800 <__libc_csu_fini>
    50ba:	48 8d 0d cf 36 01 00 	lea    0x136cf(%rip),%rcx        # 18790 <__libc_csu_init>
    50c1:	48 8d 3d 01 f1 00 00 	lea    0xf101(%rip),%rdi        # 141c9 <main>
    50c8:	ff 15 12 9f 01 00    	callq  *0x19f12(%rip)        # 1efe0 <__libc_start_main@GLIBC_2.2.5>
    50ce:	f4                   	hlt    
    50cf:	90                   	nop

00000000000050d0 <deregister_tm_clones>:
    50d0:	48 8d 3d 41 cf 01 00 	lea    0x1cf41(%rip),%rdi        # 22018 <__TMC_END__>
    50d7:	48 8d 05 3a cf 01 00 	lea    0x1cf3a(%rip),%rax        # 22018 <__TMC_END__>
    50de:	48 39 f8             	cmp    %rdi,%rax
    50e1:	74 15                	je     50f8 <deregister_tm_clones+0x28>
    50e3:	48 8b 05 ee 9e 01 00 	mov    0x19eee(%rip),%rax        # 1efd8 <_ITM_deregisterTMCloneTable>
    50ea:	48 85 c0             	test   %rax,%rax
    50ed:	74 09                	je     50f8 <deregister_tm_clones+0x28>
    50ef:	ff e0                	jmpq   *%rax
    50f1:	0f 1f 80 00 00 00 00 	nopl   0x0(%rax)
    50f8:	c3                   	retq   
    50f9:	0f 1f 80 00 00 00 00 	nopl   0x0(%rax)

0000000000005100 <register_tm_clones>:
    5100:	48 8d 3d 11 cf 01 00 	lea    0x1cf11(%rip),%rdi        # 22018 <__TMC_END__>
    5107:	48 8d 35 0a cf 01 00 	lea    0x1cf0a(%rip),%rsi        # 22018 <__TMC_END__>
    510e:	48 29 fe             	sub    %rdi,%rsi
    5111:	48 89 f0             	mov    %rsi,%rax
    5114:	48 c1 ee 3f          	shr    $0x3f,%rsi
    5118:	48 c1 f8 03          	sar    $0x3,%rax
    511c:	48 01 c6             	add    %rax,%rsi
    511f:	48 d1 fe             	sar    %rsi
    5122:	74 14                	je     5138 <register_tm_clones+0x38>
    5124:	48 8b 05 c5 9e 01 00 	mov    0x19ec5(%rip),%rax        # 1eff0 <_ITM_registerTMCloneTable>
    512b:	48 85 c0             	test   %rax,%rax
    512e:	74 08                	je     5138 <register_tm_clones+0x38>
    5130:	ff e0                	jmpq   *%rax
    5132:	66 0f 1f 44 00 00    	nopw   0x0(%rax,%rax,1)
    5138:	c3                   	retq   
    5139:	0f 1f 80 00 00 00 00 	nopl   0x0(%rax)

0000000000005140 <__do_global_dtors_aux>:
    5140:	f3 0f 1e fa          	endbr64 
    5144:	80 3d d5 ce 01 00 00 	cmpb   $0x0,0x1ced5(%rip)        # 22020 <completed.8061>
    514b:	75 2b                	jne    5178 <__do_global_dtors_aux+0x38>
    514d:	55                   	push   %rbp
    514e:	48 83 3d a2 9e 01 00 	cmpq   $0x0,0x19ea2(%rip)        # 1eff8 <__cxa_finalize@GLIBC_2.2.5>
    5155:	00 
    5156:	48 89 e5             	mov    %rsp,%rbp
    5159:	74 0c                	je     5167 <__do_global_dtors_aux+0x27>
    515b:	48 8b 3d a6 9e 01 00 	mov    0x19ea6(%rip),%rdi        # 1f008 <__dso_handle>
    5162:	e8 f9 fe ff ff       	callq  5060 <__cxa_finalize@plt>
    5167:	e8 64 ff ff ff       	callq  50d0 <deregister_tm_clones>
    516c:	c6 05 ad ce 01 00 01 	movb   $0x1,0x1cead(%rip)        # 22020 <completed.8061>
    5173:	5d                   	pop    %rbp
    5174:	c3                   	retq   
    5175:	0f 1f 00             	nopl   (%rax)
    5178:	c3                   	retq   
    5179:	0f 1f 80 00 00 00 00 	nopl   0x0(%rax)

0000000000005180 <frame_dummy>:
    5180:	f3 0f 1e fa          	endbr64 
    5184:	e9 77 ff ff ff       	jmpq   5100 <register_tm_clones>

0000000000005189 <platform_main_begin>:
    5189:	f3 0f 1e fa          	endbr64 
    518d:	55                   	push   %rbp
    518e:	48 89 e5             	mov    %rsp,%rbp
    5191:	90                   	nop
    5192:	5d                   	pop    %rbp
    5193:	c3                   	retq   

0000000000005194 <platform_main_end>:
    5194:	f3 0f 1e fa          	endbr64 
    5198:	55                   	push   %rbp
    5199:	48 89 e5             	mov    %rsp,%rbp
    519c:	48 83 ec 10          	sub    $0x10,%rsp
    51a0:	89 7d fc             	mov    %edi,-0x4(%rbp)
    51a3:	89 75 f8             	mov    %esi,-0x8(%rbp)
    51a6:	8b 45 fc             	mov    -0x4(%rbp),%eax
    51a9:	89 c6                	mov    %eax,%esi
    51ab:	48 8d 3d 6e 3e 01 00 	lea    0x13e6e(%rip),%rdi        # 19020 <_IO_stdin_used+0x20>
    51b2:	b8 00 00 00 00       	mov    $0x0,%eax
    51b7:	e8 c4 fe ff ff       	callq  5080 <printf@plt>
    51bc:	90                   	nop
    51bd:	c9                   	leaveq 
    51be:	c3                   	retq   

00000000000051bf <safe_unary_minus_func_int8_t_s>:
    51bf:	f3 0f 1e fa          	endbr64 
    51c3:	55                   	push   %rbp
    51c4:	48 89 e5             	mov    %rsp,%rbp
    51c7:	89 f8                	mov    %edi,%eax
    51c9:	88 45 fc             	mov    %al,-0x4(%rbp)
    51cc:	0f b6 45 fc          	movzbl -0x4(%rbp),%eax
    51d0:	f7 d8                	neg    %eax
    51d2:	5d                   	pop    %rbp
    51d3:	c3                   	retq   

00000000000051d4 <safe_add_func_int8_t_s_s>:
    51d4:	f3 0f 1e fa          	endbr64 
    51d8:	55                   	push   %rbp
    51d9:	48 89 e5             	mov    %rsp,%rbp
    51dc:	89 fa                	mov    %edi,%edx
    51de:	89 f0                	mov    %esi,%eax
    51e0:	88 55 fc             	mov    %dl,-0x4(%rbp)
    51e3:	88 45 f8             	mov    %al,-0x8(%rbp)
    51e6:	0f b6 55 fc          	movzbl -0x4(%rbp),%edx
    51ea:	0f b6 45 f8          	movzbl -0x8(%rbp),%eax
    51ee:	01 d0                	add    %edx,%eax
    51f0:	5d                   	pop    %rbp
    51f1:	c3                   	retq   

00000000000051f2 <safe_sub_func_int8_t_s_s>:
    51f2:	f3 0f 1e fa          	endbr64 
    51f6:	55                   	push   %rbp
    51f7:	48 89 e5             	mov    %rsp,%rbp
    51fa:	89 fa                	mov    %edi,%edx
    51fc:	89 f0                	mov    %esi,%eax
    51fe:	88 55 fc             	mov    %dl,-0x4(%rbp)
    5201:	88 45 f8             	mov    %al,-0x8(%rbp)
    5204:	0f b6 55 fc          	movzbl -0x4(%rbp),%edx
    5208:	0f b6 45 f8          	movzbl -0x8(%rbp),%eax
    520c:	29 c2                	sub    %eax,%edx
    520e:	89 d0                	mov    %edx,%eax
    5210:	5d                   	pop    %rbp
    5211:	c3                   	retq   

0000000000005212 <safe_mul_func_int8_t_s_s>:
    5212:	f3 0f 1e fa          	endbr64 
    5216:	55                   	push   %rbp
    5217:	48 89 e5             	mov    %rsp,%rbp
    521a:	89 fa                	mov    %edi,%edx
    521c:	89 f0                	mov    %esi,%eax
    521e:	88 55 fc             	mov    %dl,-0x4(%rbp)
    5221:	88 45 f8             	mov    %al,-0x8(%rbp)
    5224:	0f b6 45 fc          	movzbl -0x4(%rbp),%eax
    5228:	0f b6 55 f8          	movzbl -0x8(%rbp),%edx
    522c:	0f af c2             	imul   %edx,%eax
    522f:	5d                   	pop    %rbp
    5230:	c3                   	retq   

0000000000005231 <safe_mod_func_int8_t_s_s>:
    5231:	f3 0f 1e fa          	endbr64 
    5235:	55                   	push   %rbp
    5236:	48 89 e5             	mov    %rsp,%rbp
    5239:	89 fa                	mov    %edi,%edx
    523b:	89 f0                	mov    %esi,%eax
    523d:	88 55 fc             	mov    %dl,-0x4(%rbp)
    5240:	88 45 f8             	mov    %al,-0x8(%rbp)
    5243:	80 7d f8 00          	cmpb   $0x0,-0x8(%rbp)
    5247:	74 1b                	je     5264 <safe_mod_func_int8_t_s_s+0x33>
    5249:	80 7d fc 80          	cmpb   $0x80,-0x4(%rbp)
    524d:	75 06                	jne    5255 <safe_mod_func_int8_t_s_s+0x24>
    524f:	80 7d f8 ff          	cmpb   $0xff,-0x8(%rbp)
    5253:	74 0f                	je     5264 <safe_mod_func_int8_t_s_s+0x33>
    5255:	0f be 45 fc          	movsbl -0x4(%rbp),%eax
    5259:	0f be 4d f8          	movsbl -0x8(%rbp),%ecx
    525d:	99                   	cltd   
    525e:	f7 f9                	idiv   %ecx
    5260:	89 d0                	mov    %edx,%eax
    5262:	eb 04                	jmp    5268 <safe_mod_func_int8_t_s_s+0x37>
    5264:	0f b6 45 fc          	movzbl -0x4(%rbp),%eax
    5268:	5d                   	pop    %rbp
    5269:	c3                   	retq   

000000000000526a <safe_div_func_int8_t_s_s>:
    526a:	f3 0f 1e fa          	endbr64 
    526e:	55                   	push   %rbp
    526f:	48 89 e5             	mov    %rsp,%rbp
    5272:	89 fa                	mov    %edi,%edx
    5274:	89 f0                	mov    %esi,%eax
    5276:	88 55 fc             	mov    %dl,-0x4(%rbp)
    5279:	88 45 f8             	mov    %al,-0x8(%rbp)
    527c:	80 7d f8 00          	cmpb   $0x0,-0x8(%rbp)
    5280:	74 19                	je     529b <safe_div_func_int8_t_s_s+0x31>
    5282:	80 7d fc 80          	cmpb   $0x80,-0x4(%rbp)
    5286:	75 06                	jne    528e <safe_div_func_int8_t_s_s+0x24>
    5288:	80 7d f8 ff          	cmpb   $0xff,-0x8(%rbp)
    528c:	74 0d                	je     529b <safe_div_func_int8_t_s_s+0x31>
    528e:	0f be 45 fc          	movsbl -0x4(%rbp),%eax
    5292:	0f be 4d f8          	movsbl -0x8(%rbp),%ecx
    5296:	99                   	cltd   
    5297:	f7 f9                	idiv   %ecx
    5299:	eb 04                	jmp    529f <safe_div_func_int8_t_s_s+0x35>
    529b:	0f b6 45 fc          	movzbl -0x4(%rbp),%eax
    529f:	5d                   	pop    %rbp
    52a0:	c3                   	retq   

00000000000052a1 <safe_lshift_func_int8_t_s_s>:
    52a1:	f3 0f 1e fa          	endbr64 
    52a5:	55                   	push   %rbp
    52a6:	48 89 e5             	mov    %rsp,%rbp
    52a9:	89 f8                	mov    %edi,%eax
    52ab:	89 75 f8             	mov    %esi,-0x8(%rbp)
    52ae:	88 45 fc             	mov    %al,-0x4(%rbp)
    52b1:	80 7d fc 00          	cmpb   $0x0,-0x4(%rbp)
    52b5:	78 31                	js     52e8 <safe_lshift_func_int8_t_s_s+0x47>
    52b7:	83 7d f8 00          	cmpl   $0x0,-0x8(%rbp)
    52bb:	78 2b                	js     52e8 <safe_lshift_func_int8_t_s_s+0x47>
    52bd:	83 7d f8 1f          	cmpl   $0x1f,-0x8(%rbp)
    52c1:	7f 25                	jg     52e8 <safe_lshift_func_int8_t_s_s+0x47>
    52c3:	0f be 55 fc          	movsbl -0x4(%rbp),%edx
    52c7:	8b 45 f8             	mov    -0x8(%rbp),%eax
    52ca:	be 7f 00 00 00       	mov    $0x7f,%esi
    52cf:	89 c1                	mov    %eax,%ecx
    52d1:	d3 fe                	sar    %cl,%esi
    52d3:	89 f0                	mov    %esi,%eax
    52d5:	39 c2                	cmp    %eax,%edx
    52d7:	7f 0f                	jg     52e8 <safe_lshift_func_int8_t_s_s+0x47>
    52d9:	0f be 55 fc          	movsbl -0x4(%rbp),%edx
    52dd:	8b 45 f8             	mov    -0x8(%rbp),%eax
    52e0:	89 c1                	mov    %eax,%ecx
    52e2:	d3 e2                	shl    %cl,%edx
    52e4:	89 d0                	mov    %edx,%eax
    52e6:	eb 04                	jmp    52ec <safe_lshift_func_int8_t_s_s+0x4b>
    52e8:	0f b6 45 fc          	movzbl -0x4(%rbp),%eax
    52ec:	5d                   	pop    %rbp
    52ed:	c3                   	retq   

00000000000052ee <safe_lshift_func_int8_t_s_u>:
    52ee:	f3 0f 1e fa          	endbr64 
    52f2:	55                   	push   %rbp
    52f3:	48 89 e5             	mov    %rsp,%rbp
    52f6:	89 f8                	mov    %edi,%eax
    52f8:	89 75 f8             	mov    %esi,-0x8(%rbp)
    52fb:	88 45 fc             	mov    %al,-0x4(%rbp)
    52fe:	80 7d fc 00          	cmpb   $0x0,-0x4(%rbp)
    5302:	78 2b                	js     532f <safe_lshift_func_int8_t_s_u+0x41>
    5304:	83 7d f8 1f          	cmpl   $0x1f,-0x8(%rbp)
    5308:	77 25                	ja     532f <safe_lshift_func_int8_t_s_u+0x41>
    530a:	0f be 55 fc          	movsbl -0x4(%rbp),%edx
    530e:	8b 45 f8             	mov    -0x8(%rbp),%eax
    5311:	be 7f 00 00 00       	mov    $0x7f,%esi
    5316:	89 c1                	mov    %eax,%ecx
    5318:	d3 fe                	sar    %cl,%esi
    531a:	89 f0                	mov    %esi,%eax
    531c:	39 c2                	cmp    %eax,%edx
    531e:	7f 0f                	jg     532f <safe_lshift_func_int8_t_s_u+0x41>
    5320:	0f be 55 fc          	movsbl -0x4(%rbp),%edx
    5324:	8b 45 f8             	mov    -0x8(%rbp),%eax
    5327:	89 c1                	mov    %eax,%ecx
    5329:	d3 e2                	shl    %cl,%edx
    532b:	89 d0                	mov    %edx,%eax
    532d:	eb 04                	jmp    5333 <safe_lshift_func_int8_t_s_u+0x45>
    532f:	0f b6 45 fc          	movzbl -0x4(%rbp),%eax
    5333:	5d                   	pop    %rbp
    5334:	c3                   	retq   

0000000000005335 <safe_rshift_func_int8_t_s_s>:
    5335:	f3 0f 1e fa          	endbr64 
    5339:	55                   	push   %rbp
    533a:	48 89 e5             	mov    %rsp,%rbp
    533d:	89 f8                	mov    %edi,%eax
    533f:	89 75 f8             	mov    %esi,-0x8(%rbp)
    5342:	88 45 fc             	mov    %al,-0x4(%rbp)
    5345:	80 7d fc 00          	cmpb   $0x0,-0x4(%rbp)
    5349:	78 1b                	js     5366 <safe_rshift_func_int8_t_s_s+0x31>
    534b:	83 7d f8 00          	cmpl   $0x0,-0x8(%rbp)
    534f:	78 15                	js     5366 <safe_rshift_func_int8_t_s_s+0x31>
    5351:	83 7d f8 1f          	cmpl   $0x1f,-0x8(%rbp)
    5355:	7f 0f                	jg     5366 <safe_rshift_func_int8_t_s_s+0x31>
    5357:	0f be 55 fc          	movsbl -0x4(%rbp),%edx
    535b:	8b 45 f8             	mov    -0x8(%rbp),%eax
    535e:	89 c1                	mov    %eax,%ecx
    5360:	d3 fa                	sar    %cl,%edx
    5362:	89 d0                	mov    %edx,%eax
    5364:	eb 04                	jmp    536a <safe_rshift_func_int8_t_s_s+0x35>
    5366:	0f b6 45 fc          	movzbl -0x4(%rbp),%eax
    536a:	5d                   	pop    %rbp
    536b:	c3                   	retq   

000000000000536c <safe_rshift_func_int8_t_s_u>:
    536c:	f3 0f 1e fa          	endbr64 
    5370:	55                   	push   %rbp
    5371:	48 89 e5             	mov    %rsp,%rbp
    5374:	89 f8                	mov    %edi,%eax
    5376:	89 75 f8             	mov    %esi,-0x8(%rbp)
    5379:	88 45 fc             	mov    %al,-0x4(%rbp)
    537c:	80 7d fc 00          	cmpb   $0x0,-0x4(%rbp)
    5380:	78 15                	js     5397 <safe_rshift_func_int8_t_s_u+0x2b>
    5382:	83 7d f8 1f          	cmpl   $0x1f,-0x8(%rbp)
    5386:	77 0f                	ja     5397 <safe_rshift_func_int8_t_s_u+0x2b>
    5388:	0f be 55 fc          	movsbl -0x4(%rbp),%edx
    538c:	8b 45 f8             	mov    -0x8(%rbp),%eax
    538f:	89 c1                	mov    %eax,%ecx
    5391:	d3 fa                	sar    %cl,%edx
    5393:	89 d0                	mov    %edx,%eax
    5395:	eb 04                	jmp    539b <safe_rshift_func_int8_t_s_u+0x2f>
    5397:	0f b6 45 fc          	movzbl -0x4(%rbp),%eax
    539b:	5d                   	pop    %rbp
    539c:	c3                   	retq   

000000000000539d <safe_unary_minus_func_int16_t_s>:
    539d:	f3 0f 1e fa          	endbr64 
    53a1:	55                   	push   %rbp
    53a2:	48 89 e5             	mov    %rsp,%rbp
    53a5:	89 f8                	mov    %edi,%eax
    53a7:	66 89 45 fc          	mov    %ax,-0x4(%rbp)
    53ab:	0f b7 45 fc          	movzwl -0x4(%rbp),%eax
    53af:	f7 d8                	neg    %eax
    53b1:	5d                   	pop    %rbp
    53b2:	c3                   	retq   

00000000000053b3 <safe_add_func_int16_t_s_s>:
    53b3:	f3 0f 1e fa          	endbr64 
    53b7:	55                   	push   %rbp
    53b8:	48 89 e5             	mov    %rsp,%rbp
    53bb:	89 fa                	mov    %edi,%edx
    53bd:	89 f0                	mov    %esi,%eax
    53bf:	66 89 55 fc          	mov    %dx,-0x4(%rbp)
    53c3:	66 89 45 f8          	mov    %ax,-0x8(%rbp)
    53c7:	0f b7 55 fc          	movzwl -0x4(%rbp),%edx
    53cb:	0f b7 45 f8          	movzwl -0x8(%rbp),%eax
    53cf:	01 d0                	add    %edx,%eax
    53d1:	5d                   	pop    %rbp
    53d2:	c3                   	retq   

00000000000053d3 <safe_sub_func_int16_t_s_s>:
    53d3:	f3 0f 1e fa          	endbr64 
    53d7:	55                   	push   %rbp
    53d8:	48 89 e5             	mov    %rsp,%rbp
    53db:	89 fa                	mov    %edi,%edx
    53dd:	89 f0                	mov    %esi,%eax
    53df:	66 89 55 fc          	mov    %dx,-0x4(%rbp)
    53e3:	66 89 45 f8          	mov    %ax,-0x8(%rbp)
    53e7:	0f b7 55 fc          	movzwl -0x4(%rbp),%edx
    53eb:	0f b7 45 f8          	movzwl -0x8(%rbp),%eax
    53ef:	29 c2                	sub    %eax,%edx
    53f1:	89 d0                	mov    %edx,%eax
    53f3:	5d                   	pop    %rbp
    53f4:	c3                   	retq   

00000000000053f5 <safe_mul_func_int16_t_s_s>:
    53f5:	f3 0f 1e fa          	endbr64 
    53f9:	55                   	push   %rbp
    53fa:	48 89 e5             	mov    %rsp,%rbp
    53fd:	89 fa                	mov    %edi,%edx
    53ff:	89 f0                	mov    %esi,%eax
    5401:	66 89 55 fc          	mov    %dx,-0x4(%rbp)
    5405:	66 89 45 f8          	mov    %ax,-0x8(%rbp)
    5409:	0f b7 55 fc          	movzwl -0x4(%rbp),%edx
    540d:	0f b7 45 f8          	movzwl -0x8(%rbp),%eax
    5411:	0f af c2             	imul   %edx,%eax
    5414:	5d                   	pop    %rbp
    5415:	c3                   	retq   

0000000000005416 <safe_mod_func_int16_t_s_s>:
    5416:	f3 0f 1e fa          	endbr64 
    541a:	55                   	push   %rbp
    541b:	48 89 e5             	mov    %rsp,%rbp
    541e:	89 fa                	mov    %edi,%edx
    5420:	89 f0                	mov    %esi,%eax
    5422:	66 89 55 fc          	mov    %dx,-0x4(%rbp)
    5426:	66 89 45 f8          	mov    %ax,-0x8(%rbp)
    542a:	66 83 7d f8 00       	cmpw   $0x0,-0x8(%rbp)
    542f:	74 1e                	je     544f <safe_mod_func_int16_t_s_s+0x39>
    5431:	66 81 7d fc 00 80    	cmpw   $0x8000,-0x4(%rbp)
    5437:	75 07                	jne    5440 <safe_mod_func_int16_t_s_s+0x2a>
    5439:	66 83 7d f8 ff       	cmpw   $0xffff,-0x8(%rbp)
    543e:	74 0f                	je     544f <safe_mod_func_int16_t_s_s+0x39>
    5440:	0f bf 45 fc          	movswl -0x4(%rbp),%eax
    5444:	0f bf 4d f8          	movswl -0x8(%rbp),%ecx
    5448:	99                   	cltd   
    5449:	f7 f9                	idiv   %ecx
    544b:	89 d0                	mov    %edx,%eax
    544d:	eb 04                	jmp    5453 <safe_mod_func_int16_t_s_s+0x3d>
    544f:	0f b7 45 fc          	movzwl -0x4(%rbp),%eax
    5453:	5d                   	pop    %rbp
    5454:	c3                   	retq   

0000000000005455 <safe_div_func_int16_t_s_s>:
    5455:	f3 0f 1e fa          	endbr64 
    5459:	55                   	push   %rbp
    545a:	48 89 e5             	mov    %rsp,%rbp
    545d:	89 fa                	mov    %edi,%edx
    545f:	89 f0                	mov    %esi,%eax
    5461:	66 89 55 fc          	mov    %dx,-0x4(%rbp)
    5465:	66 89 45 f8          	mov    %ax,-0x8(%rbp)
    5469:	66 83 7d f8 00       	cmpw   $0x0,-0x8(%rbp)
    546e:	74 1c                	je     548c <safe_div_func_int16_t_s_s+0x37>
    5470:	66 81 7d fc 00 80    	cmpw   $0x8000,-0x4(%rbp)
    5476:	75 07                	jne    547f <safe_div_func_int16_t_s_s+0x2a>
    5478:	66 83 7d f8 ff       	cmpw   $0xffff,-0x8(%rbp)
    547d:	74 0d                	je     548c <safe_div_func_int16_t_s_s+0x37>
    547f:	0f bf 45 fc          	movswl -0x4(%rbp),%eax
    5483:	0f bf 4d f8          	movswl -0x8(%rbp),%ecx
    5487:	99                   	cltd   
    5488:	f7 f9                	idiv   %ecx
    548a:	eb 04                	jmp    5490 <safe_div_func_int16_t_s_s+0x3b>
    548c:	0f b7 45 fc          	movzwl -0x4(%rbp),%eax
    5490:	5d                   	pop    %rbp
    5491:	c3                   	retq   

0000000000005492 <safe_lshift_func_int16_t_s_s>:
    5492:	f3 0f 1e fa          	endbr64 
    5496:	55                   	push   %rbp
    5497:	48 89 e5             	mov    %rsp,%rbp
    549a:	89 f8                	mov    %edi,%eax
    549c:	89 75 f8             	mov    %esi,-0x8(%rbp)
    549f:	66 89 45 fc          	mov    %ax,-0x4(%rbp)
    54a3:	66 83 7d fc 00       	cmpw   $0x0,-0x4(%rbp)
    54a8:	78 31                	js     54db <safe_lshift_func_int16_t_s_s+0x49>
    54aa:	83 7d f8 00          	cmpl   $0x0,-0x8(%rbp)
    54ae:	78 2b                	js     54db <safe_lshift_func_int16_t_s_s+0x49>
    54b0:	83 7d f8 1f          	cmpl   $0x1f,-0x8(%rbp)
    54b4:	7f 25                	jg     54db <safe_lshift_func_int16_t_s_s+0x49>
    54b6:	0f bf 55 fc          	movswl -0x4(%rbp),%edx
    54ba:	8b 45 f8             	mov    -0x8(%rbp),%eax
    54bd:	be ff 7f 00 00       	mov    $0x7fff,%esi
    54c2:	89 c1                	mov    %eax,%ecx
    54c4:	d3 fe                	sar    %cl,%esi
    54c6:	89 f0                	mov    %esi,%eax
    54c8:	39 c2                	cmp    %eax,%edx
    54ca:	7f 0f                	jg     54db <safe_lshift_func_int16_t_s_s+0x49>
    54cc:	0f bf 55 fc          	movswl -0x4(%rbp),%edx
    54d0:	8b 45 f8             	mov    -0x8(%rbp),%eax
    54d3:	89 c1                	mov    %eax,%ecx
    54d5:	d3 e2                	shl    %cl,%edx
    54d7:	89 d0                	mov    %edx,%eax
    54d9:	eb 04                	jmp    54df <safe_lshift_func_int16_t_s_s+0x4d>
    54db:	0f b7 45 fc          	movzwl -0x4(%rbp),%eax
    54df:	5d                   	pop    %rbp
    54e0:	c3                   	retq   

00000000000054e1 <safe_lshift_func_int16_t_s_u>:
    54e1:	f3 0f 1e fa          	endbr64 
    54e5:	55                   	push   %rbp
    54e6:	48 89 e5             	mov    %rsp,%rbp
    54e9:	89 f8                	mov    %edi,%eax
    54eb:	89 75 f8             	mov    %esi,-0x8(%rbp)
    54ee:	66 89 45 fc          	mov    %ax,-0x4(%rbp)
    54f2:	66 83 7d fc 00       	cmpw   $0x0,-0x4(%rbp)
    54f7:	78 2b                	js     5524 <safe_lshift_func_int16_t_s_u+0x43>
    54f9:	83 7d f8 1f          	cmpl   $0x1f,-0x8(%rbp)
    54fd:	77 25                	ja     5524 <safe_lshift_func_int16_t_s_u+0x43>
    54ff:	0f bf 55 fc          	movswl -0x4(%rbp),%edx
    5503:	8b 45 f8             	mov    -0x8(%rbp),%eax
    5506:	be ff 7f 00 00       	mov    $0x7fff,%esi
    550b:	89 c1                	mov    %eax,%ecx
    550d:	d3 fe                	sar    %cl,%esi
    550f:	89 f0                	mov    %esi,%eax
    5511:	39 c2                	cmp    %eax,%edx
    5513:	7f 0f                	jg     5524 <safe_lshift_func_int16_t_s_u+0x43>
    5515:	0f bf 55 fc          	movswl -0x4(%rbp),%edx
    5519:	8b 45 f8             	mov    -0x8(%rbp),%eax
    551c:	89 c1                	mov    %eax,%ecx
    551e:	d3 e2                	shl    %cl,%edx
    5520:	89 d0                	mov    %edx,%eax
    5522:	eb 04                	jmp    5528 <safe_lshift_func_int16_t_s_u+0x47>
    5524:	0f b7 45 fc          	movzwl -0x4(%rbp),%eax
    5528:	5d                   	pop    %rbp
    5529:	c3                   	retq   

000000000000552a <safe_rshift_func_int16_t_s_s>:
    552a:	f3 0f 1e fa          	endbr64 
    552e:	55                   	push   %rbp
    552f:	48 89 e5             	mov    %rsp,%rbp
    5532:	89 f8                	mov    %edi,%eax
    5534:	89 75 f8             	mov    %esi,-0x8(%rbp)
    5537:	66 89 45 fc          	mov    %ax,-0x4(%rbp)
    553b:	66 83 7d fc 00       	cmpw   $0x0,-0x4(%rbp)
    5540:	78 1b                	js     555d <safe_rshift_func_int16_t_s_s+0x33>
    5542:	83 7d f8 00          	cmpl   $0x0,-0x8(%rbp)
    5546:	78 15                	js     555d <safe_rshift_func_int16_t_s_s+0x33>
    5548:	83 7d f8 1f          	cmpl   $0x1f,-0x8(%rbp)
    554c:	7f 0f                	jg     555d <safe_rshift_func_int16_t_s_s+0x33>
    554e:	0f bf 55 fc          	movswl -0x4(%rbp),%edx
    5552:	8b 45 f8             	mov    -0x8(%rbp),%eax
    5555:	89 c1                	mov    %eax,%ecx
    5557:	d3 fa                	sar    %cl,%edx
    5559:	89 d0                	mov    %edx,%eax
    555b:	eb 04                	jmp    5561 <safe_rshift_func_int16_t_s_s+0x37>
    555d:	0f b7 45 fc          	movzwl -0x4(%rbp),%eax
    5561:	5d                   	pop    %rbp
    5562:	c3                   	retq   

0000000000005563 <safe_rshift_func_int16_t_s_u>:
    5563:	f3 0f 1e fa          	endbr64 
    5567:	55                   	push   %rbp
    5568:	48 89 e5             	mov    %rsp,%rbp
    556b:	89 f8                	mov    %edi,%eax
    556d:	89 75 f8             	mov    %esi,-0x8(%rbp)
    5570:	66 89 45 fc          	mov    %ax,-0x4(%rbp)
    5574:	66 83 7d fc 00       	cmpw   $0x0,-0x4(%rbp)
    5579:	78 15                	js     5590 <safe_rshift_func_int16_t_s_u+0x2d>
    557b:	83 7d f8 1f          	cmpl   $0x1f,-0x8(%rbp)
    557f:	77 0f                	ja     5590 <safe_rshift_func_int16_t_s_u+0x2d>
    5581:	0f bf 55 fc          	movswl -0x4(%rbp),%edx
    5585:	8b 45 f8             	mov    -0x8(%rbp),%eax
    5588:	89 c1                	mov    %eax,%ecx
    558a:	d3 fa                	sar    %cl,%edx
    558c:	89 d0                	mov    %edx,%eax
    558e:	eb 04                	jmp    5594 <safe_rshift_func_int16_t_s_u+0x31>
    5590:	0f b7 45 fc          	movzwl -0x4(%rbp),%eax
    5594:	5d                   	pop    %rbp
    5595:	c3                   	retq   

0000000000005596 <safe_unary_minus_func_int32_t_s>:
    5596:	f3 0f 1e fa          	endbr64 
    559a:	55                   	push   %rbp
    559b:	48 89 e5             	mov    %rsp,%rbp
    559e:	89 7d fc             	mov    %edi,-0x4(%rbp)
    55a1:	81 7d fc 00 00 00 80 	cmpl   $0x80000000,-0x4(%rbp)
    55a8:	74 07                	je     55b1 <safe_unary_minus_func_int32_t_s+0x1b>
    55aa:	8b 45 fc             	mov    -0x4(%rbp),%eax
    55ad:	f7 d8                	neg    %eax
    55af:	eb 03                	jmp    55b4 <safe_unary_minus_func_int32_t_s+0x1e>
    55b1:	8b 45 fc             	mov    -0x4(%rbp),%eax
    55b4:	5d                   	pop    %rbp
    55b5:	c3                   	retq   

00000000000055b6 <safe_add_func_int32_t_s_s>:
    55b6:	f3 0f 1e fa          	endbr64 
    55ba:	55                   	push   %rbp
    55bb:	48 89 e5             	mov    %rsp,%rbp
    55be:	89 7d fc             	mov    %edi,-0x4(%rbp)
    55c1:	89 75 f8             	mov    %esi,-0x8(%rbp)
    55c4:	83 7d fc 00          	cmpl   $0x0,-0x4(%rbp)
    55c8:	7e 13                	jle    55dd <safe_add_func_int32_t_s_s+0x27>
    55ca:	83 7d f8 00          	cmpl   $0x0,-0x8(%rbp)
    55ce:	7e 0d                	jle    55dd <safe_add_func_int32_t_s_s+0x27>
    55d0:	b8 ff ff ff 7f       	mov    $0x7fffffff,%eax
    55d5:	2b 45 f8             	sub    -0x8(%rbp),%eax
    55d8:	39 45 fc             	cmp    %eax,-0x4(%rbp)
    55db:	7f 23                	jg     5600 <safe_add_func_int32_t_s_s+0x4a>
    55dd:	83 7d fc 00          	cmpl   $0x0,-0x4(%rbp)
    55e1:	79 13                	jns    55f6 <safe_add_func_int32_t_s_s+0x40>
    55e3:	83 7d f8 00          	cmpl   $0x0,-0x8(%rbp)
    55e7:	79 0d                	jns    55f6 <safe_add_func_int32_t_s_s+0x40>
    55e9:	b8 00 00 00 80       	mov    $0x80000000,%eax
    55ee:	2b 45 f8             	sub    -0x8(%rbp),%eax
    55f1:	39 45 fc             	cmp    %eax,-0x4(%rbp)
    55f4:	7c 0a                	jl     5600 <safe_add_func_int32_t_s_s+0x4a>
    55f6:	8b 55 fc             	mov    -0x4(%rbp),%edx
    55f9:	8b 45 f8             	mov    -0x8(%rbp),%eax
    55fc:	01 d0                	add    %edx,%eax
    55fe:	eb 03                	jmp    5603 <safe_add_func_int32_t_s_s+0x4d>
    5600:	8b 45 fc             	mov    -0x4(%rbp),%eax
    5603:	5d                   	pop    %rbp
    5604:	c3                   	retq   

0000000000005605 <safe_sub_func_int32_t_s_s>:
    5605:	f3 0f 1e fa          	endbr64 
    5609:	55                   	push   %rbp
    560a:	48 89 e5             	mov    %rsp,%rbp
    560d:	89 7d fc             	mov    %edi,-0x4(%rbp)
    5610:	89 75 f8             	mov    %esi,-0x8(%rbp)
    5613:	8b 45 fc             	mov    -0x4(%rbp),%eax
    5616:	33 45 f8             	xor    -0x8(%rbp),%eax
    5619:	89 c2                	mov    %eax,%edx
    561b:	8b 45 fc             	mov    -0x4(%rbp),%eax
    561e:	33 45 f8             	xor    -0x8(%rbp),%eax
    5621:	25 00 00 00 80       	and    $0x80000000,%eax
    5626:	33 45 fc             	xor    -0x4(%rbp),%eax
    5629:	2b 45 f8             	sub    -0x8(%rbp),%eax
    562c:	33 45 f8             	xor    -0x8(%rbp),%eax
    562f:	21 d0                	and    %edx,%eax
    5631:	85 c0                	test   %eax,%eax
    5633:	78 08                	js     563d <safe_sub_func_int32_t_s_s+0x38>
    5635:	8b 45 fc             	mov    -0x4(%rbp),%eax
    5638:	2b 45 f8             	sub    -0x8(%rbp),%eax
    563b:	eb 03                	jmp    5640 <safe_sub_func_int32_t_s_s+0x3b>
    563d:	8b 45 fc             	mov    -0x4(%rbp),%eax
    5640:	5d                   	pop    %rbp
    5641:	c3                   	retq   

0000000000005642 <safe_mul_func_int32_t_s_s>:
    5642:	f3 0f 1e fa          	endbr64 
    5646:	55                   	push   %rbp
    5647:	48 89 e5             	mov    %rsp,%rbp
    564a:	89 7d fc             	mov    %edi,-0x4(%rbp)
    564d:	89 75 f8             	mov    %esi,-0x8(%rbp)
    5650:	83 7d fc 00          	cmpl   $0x0,-0x4(%rbp)
    5654:	7e 14                	jle    566a <safe_mul_func_int32_t_s_s+0x28>
    5656:	83 7d f8 00          	cmpl   $0x0,-0x8(%rbp)
    565a:	7e 0e                	jle    566a <safe_mul_func_int32_t_s_s+0x28>
    565c:	b8 ff ff ff 7f       	mov    $0x7fffffff,%eax
    5661:	99                   	cltd   
    5662:	f7 7d f8             	idivl  -0x8(%rbp)
    5665:	39 45 fc             	cmp    %eax,-0x4(%rbp)
    5668:	7f 5d                	jg     56c7 <safe_mul_func_int32_t_s_s+0x85>
    566a:	83 7d fc 00          	cmpl   $0x0,-0x4(%rbp)
    566e:	7e 14                	jle    5684 <safe_mul_func_int32_t_s_s+0x42>
    5670:	83 7d f8 00          	cmpl   $0x0,-0x8(%rbp)
    5674:	7f 0e                	jg     5684 <safe_mul_func_int32_t_s_s+0x42>
    5676:	b8 00 00 00 80       	mov    $0x80000000,%eax
    567b:	99                   	cltd   
    567c:	f7 7d fc             	idivl  -0x4(%rbp)
    567f:	39 45 f8             	cmp    %eax,-0x8(%rbp)
    5682:	7c 43                	jl     56c7 <safe_mul_func_int32_t_s_s+0x85>
    5684:	83 7d fc 00          	cmpl   $0x0,-0x4(%rbp)
    5688:	7f 14                	jg     569e <safe_mul_func_int32_t_s_s+0x5c>
    568a:	83 7d f8 00          	cmpl   $0x0,-0x8(%rbp)
    568e:	7e 0e                	jle    569e <safe_mul_func_int32_t_s_s+0x5c>
    5690:	b8 00 00 00 80       	mov    $0x80000000,%eax
    5695:	99                   	cltd   
    5696:	f7 7d f8             	idivl  -0x8(%rbp)
    5699:	39 45 fc             	cmp    %eax,-0x4(%rbp)
    569c:	7c 29                	jl     56c7 <safe_mul_func_int32_t_s_s+0x85>
    569e:	83 7d fc 00          	cmpl   $0x0,-0x4(%rbp)
    56a2:	7f 1a                	jg     56be <safe_mul_func_int32_t_s_s+0x7c>
    56a4:	83 7d f8 00          	cmpl   $0x0,-0x8(%rbp)
    56a8:	7f 14                	jg     56be <safe_mul_func_int32_t_s_s+0x7c>
    56aa:	83 7d fc 00          	cmpl   $0x0,-0x4(%rbp)
    56ae:	74 0e                	je     56be <safe_mul_func_int32_t_s_s+0x7c>
    56b0:	b8 ff ff ff 7f       	mov    $0x7fffffff,%eax
    56b5:	99                   	cltd   
    56b6:	f7 7d fc             	idivl  -0x4(%rbp)
    56b9:	39 45 f8             	cmp    %eax,-0x8(%rbp)
    56bc:	7c 09                	jl     56c7 <safe_mul_func_int32_t_s_s+0x85>
    56be:	8b 45 fc             	mov    -0x4(%rbp),%eax
    56c1:	0f af 45 f8          	imul   -0x8(%rbp),%eax
    56c5:	eb 03                	jmp    56ca <safe_mul_func_int32_t_s_s+0x88>
    56c7:	8b 45 fc             	mov    -0x4(%rbp),%eax
    56ca:	5d                   	pop    %rbp
    56cb:	c3                   	retq   

00000000000056cc <safe_mod_func_int32_t_s_s>:
    56cc:	f3 0f 1e fa          	endbr64 
    56d0:	55                   	push   %rbp
    56d1:	48 89 e5             	mov    %rsp,%rbp
    56d4:	89 7d fc             	mov    %edi,-0x4(%rbp)
    56d7:	89 75 f8             	mov    %esi,-0x8(%rbp)
    56da:	83 7d f8 00          	cmpl   $0x0,-0x8(%rbp)
    56de:	74 1a                	je     56fa <safe_mod_func_int32_t_s_s+0x2e>
    56e0:	81 7d fc 00 00 00 80 	cmpl   $0x80000000,-0x4(%rbp)
    56e7:	75 06                	jne    56ef <safe_mod_func_int32_t_s_s+0x23>
    56e9:	83 7d f8 ff          	cmpl   $0xffffffff,-0x8(%rbp)
    56ed:	74 0b                	je     56fa <safe_mod_func_int32_t_s_s+0x2e>
    56ef:	8b 45 fc             	mov    -0x4(%rbp),%eax
    56f2:	99                   	cltd   
    56f3:	f7 7d f8             	idivl  -0x8(%rbp)
    56f6:	89 d0                	mov    %edx,%eax
    56f8:	eb 03                	jmp    56fd <safe_mod_func_int32_t_s_s+0x31>
    56fa:	8b 45 fc             	mov    -0x4(%rbp),%eax
    56fd:	5d                   	pop    %rbp
    56fe:	c3                   	retq   

00000000000056ff <safe_div_func_int32_t_s_s>:
    56ff:	f3 0f 1e fa          	endbr64 
    5703:	55                   	push   %rbp
    5704:	48 89 e5             	mov    %rsp,%rbp
    5707:	89 7d fc             	mov    %edi,-0x4(%rbp)
    570a:	89 75 f8             	mov    %esi,-0x8(%rbp)
    570d:	83 7d f8 00          	cmpl   $0x0,-0x8(%rbp)
    5711:	74 18                	je     572b <safe_div_func_int32_t_s_s+0x2c>
    5713:	81 7d fc 00 00 00 80 	cmpl   $0x80000000,-0x4(%rbp)
    571a:	75 06                	jne    5722 <safe_div_func_int32_t_s_s+0x23>
    571c:	83 7d f8 ff          	cmpl   $0xffffffff,-0x8(%rbp)
    5720:	74 09                	je     572b <safe_div_func_int32_t_s_s+0x2c>
    5722:	8b 45 fc             	mov    -0x4(%rbp),%eax
    5725:	99                   	cltd   
    5726:	f7 7d f8             	idivl  -0x8(%rbp)
    5729:	eb 03                	jmp    572e <safe_div_func_int32_t_s_s+0x2f>
    572b:	8b 45 fc             	mov    -0x4(%rbp),%eax
    572e:	5d                   	pop    %rbp
    572f:	c3                   	retq   

0000000000005730 <safe_lshift_func_int32_t_s_s>:
    5730:	f3 0f 1e fa          	endbr64 
    5734:	55                   	push   %rbp
    5735:	48 89 e5             	mov    %rsp,%rbp
    5738:	89 7d fc             	mov    %edi,-0x4(%rbp)
    573b:	89 75 f8             	mov    %esi,-0x8(%rbp)
    573e:	83 7d fc 00          	cmpl   $0x0,-0x4(%rbp)
    5742:	78 2d                	js     5771 <safe_lshift_func_int32_t_s_s+0x41>
    5744:	83 7d f8 00          	cmpl   $0x0,-0x8(%rbp)
    5748:	78 27                	js     5771 <safe_lshift_func_int32_t_s_s+0x41>
    574a:	83 7d f8 1f          	cmpl   $0x1f,-0x8(%rbp)
    574e:	7f 21                	jg     5771 <safe_lshift_func_int32_t_s_s+0x41>
    5750:	8b 45 f8             	mov    -0x8(%rbp),%eax
    5753:	ba ff ff ff 7f       	mov    $0x7fffffff,%edx
    5758:	89 c1                	mov    %eax,%ecx
    575a:	d3 fa                	sar    %cl,%edx
    575c:	89 d0                	mov    %edx,%eax
    575e:	39 45 fc             	cmp    %eax,-0x4(%rbp)
    5761:	7f 0e                	jg     5771 <safe_lshift_func_int32_t_s_s+0x41>
    5763:	8b 45 f8             	mov    -0x8(%rbp),%eax
    5766:	8b 55 fc             	mov    -0x4(%rbp),%edx
    5769:	89 c1                	mov    %eax,%ecx
    576b:	d3 e2                	shl    %cl,%edx
    576d:	89 d0                	mov    %edx,%eax
    576f:	eb 03                	jmp    5774 <safe_lshift_func_int32_t_s_s+0x44>
    5771:	8b 45 fc             	mov    -0x4(%rbp),%eax
    5774:	5d                   	pop    %rbp
    5775:	c3                   	retq   

0000000000005776 <safe_lshift_func_int32_t_s_u>:
    5776:	f3 0f 1e fa          	endbr64 
    577a:	55                   	push   %rbp
    577b:	48 89 e5             	mov    %rsp,%rbp
    577e:	89 7d fc             	mov    %edi,-0x4(%rbp)
    5781:	89 75 f8             	mov    %esi,-0x8(%rbp)
    5784:	83 7d fc 00          	cmpl   $0x0,-0x4(%rbp)
    5788:	78 27                	js     57b1 <safe_lshift_func_int32_t_s_u+0x3b>
    578a:	83 7d f8 1f          	cmpl   $0x1f,-0x8(%rbp)
    578e:	77 21                	ja     57b1 <safe_lshift_func_int32_t_s_u+0x3b>
    5790:	8b 45 f8             	mov    -0x8(%rbp),%eax
    5793:	ba ff ff ff 7f       	mov    $0x7fffffff,%edx
    5798:	89 c1                	mov    %eax,%ecx
    579a:	d3 fa                	sar    %cl,%edx
    579c:	89 d0                	mov    %edx,%eax
    579e:	39 45 fc             	cmp    %eax,-0x4(%rbp)
    57a1:	7f 0e                	jg     57b1 <safe_lshift_func_int32_t_s_u+0x3b>
    57a3:	8b 45 f8             	mov    -0x8(%rbp),%eax
    57a6:	8b 55 fc             	mov    -0x4(%rbp),%edx
    57a9:	89 c1                	mov    %eax,%ecx
    57ab:	d3 e2                	shl    %cl,%edx
    57ad:	89 d0                	mov    %edx,%eax
    57af:	eb 03                	jmp    57b4 <safe_lshift_func_int32_t_s_u+0x3e>
    57b1:	8b 45 fc             	mov    -0x4(%rbp),%eax
    57b4:	5d                   	pop    %rbp
    57b5:	c3                   	retq   

00000000000057b6 <safe_rshift_func_int32_t_s_s>:
    57b6:	f3 0f 1e fa          	endbr64 
    57ba:	55                   	push   %rbp
    57bb:	48 89 e5             	mov    %rsp,%rbp
    57be:	89 7d fc             	mov    %edi,-0x4(%rbp)
    57c1:	89 75 f8             	mov    %esi,-0x8(%rbp)
    57c4:	83 7d fc 00          	cmpl   $0x0,-0x4(%rbp)
    57c8:	78 1a                	js     57e4 <safe_rshift_func_int32_t_s_s+0x2e>
    57ca:	83 7d f8 00          	cmpl   $0x0,-0x8(%rbp)
    57ce:	78 14                	js     57e4 <safe_rshift_func_int32_t_s_s+0x2e>
    57d0:	83 7d f8 1f          	cmpl   $0x1f,-0x8(%rbp)
    57d4:	7f 0e                	jg     57e4 <safe_rshift_func_int32_t_s_s+0x2e>
    57d6:	8b 45 f8             	mov    -0x8(%rbp),%eax
    57d9:	8b 55 fc             	mov    -0x4(%rbp),%edx
    57dc:	89 c1                	mov    %eax,%ecx
    57de:	d3 fa                	sar    %cl,%edx
    57e0:	89 d0                	mov    %edx,%eax
    57e2:	eb 03                	jmp    57e7 <safe_rshift_func_int32_t_s_s+0x31>
    57e4:	8b 45 fc             	mov    -0x4(%rbp),%eax
    57e7:	5d                   	pop    %rbp
    57e8:	c3                   	retq   

00000000000057e9 <safe_rshift_func_int32_t_s_u>:
    57e9:	f3 0f 1e fa          	endbr64 
    57ed:	55                   	push   %rbp
    57ee:	48 89 e5             	mov    %rsp,%rbp
    57f1:	89 7d fc             	mov    %edi,-0x4(%rbp)
    57f4:	89 75 f8             	mov    %esi,-0x8(%rbp)
    57f7:	83 7d fc 00          	cmpl   $0x0,-0x4(%rbp)
    57fb:	78 14                	js     5811 <safe_rshift_func_int32_t_s_u+0x28>
    57fd:	83 7d f8 1f          	cmpl   $0x1f,-0x8(%rbp)
    5801:	77 0e                	ja     5811 <safe_rshift_func_int32_t_s_u+0x28>
    5803:	8b 45 f8             	mov    -0x8(%rbp),%eax
    5806:	8b 55 fc             	mov    -0x4(%rbp),%edx
    5809:	89 c1                	mov    %eax,%ecx
    580b:	d3 fa                	sar    %cl,%edx
    580d:	89 d0                	mov    %edx,%eax
    580f:	eb 03                	jmp    5814 <safe_rshift_func_int32_t_s_u+0x2b>
    5811:	8b 45 fc             	mov    -0x4(%rbp),%eax
    5814:	5d                   	pop    %rbp
    5815:	c3                   	retq   

0000000000005816 <safe_unary_minus_func_int64_t_s>:
    5816:	f3 0f 1e fa          	endbr64 
    581a:	55                   	push   %rbp
    581b:	48 89 e5             	mov    %rsp,%rbp
    581e:	48 89 7d f8          	mov    %rdi,-0x8(%rbp)
    5822:	48 b8 00 00 00 00 00 	movabs $0x8000000000000000,%rax
    5829:	00 00 80 
    582c:	48 39 45 f8          	cmp    %rax,-0x8(%rbp)
    5830:	74 09                	je     583b <safe_unary_minus_func_int64_t_s+0x25>
    5832:	48 8b 45 f8          	mov    -0x8(%rbp),%rax
    5836:	48 f7 d8             	neg    %rax
    5839:	eb 04                	jmp    583f <safe_unary_minus_func_int64_t_s+0x29>
    583b:	48 8b 45 f8          	mov    -0x8(%rbp),%rax
    583f:	5d                   	pop    %rbp
    5840:	c3                   	retq   

0000000000005841 <safe_add_func_int64_t_s_s>:
    5841:	f3 0f 1e fa          	endbr64 
    5845:	55                   	push   %rbp
    5846:	48 89 e5             	mov    %rsp,%rbp
    5849:	48 89 7d f8          	mov    %rdi,-0x8(%rbp)
    584d:	48 89 75 f0          	mov    %rsi,-0x10(%rbp)
    5851:	48 83 7d f8 00       	cmpq   $0x0,-0x8(%rbp)
    5856:	7e 1b                	jle    5873 <safe_add_func_int64_t_s_s+0x32>
    5858:	48 83 7d f0 00       	cmpq   $0x0,-0x10(%rbp)
    585d:	7e 14                	jle    5873 <safe_add_func_int64_t_s_s+0x32>
    585f:	48 b8 ff ff ff ff ff 	movabs $0x7fffffffffffffff,%rax
    5866:	ff ff 7f 
    5869:	48 2b 45 f0          	sub    -0x10(%rbp),%rax
    586d:	48 39 45 f8          	cmp    %rax,-0x8(%rbp)
    5871:	7f 2f                	jg     58a2 <safe_add_func_int64_t_s_s+0x61>
    5873:	48 83 7d f8 00       	cmpq   $0x0,-0x8(%rbp)
    5878:	79 1b                	jns    5895 <safe_add_func_int64_t_s_s+0x54>
    587a:	48 83 7d f0 00       	cmpq   $0x0,-0x10(%rbp)
    587f:	79 14                	jns    5895 <safe_add_func_int64_t_s_s+0x54>
    5881:	48 b8 00 00 00 00 00 	movabs $0x8000000000000000,%rax
    5888:	00 00 80 
    588b:	48 2b 45 f0          	sub    -0x10(%rbp),%rax
    588f:	48 39 45 f8          	cmp    %rax,-0x8(%rbp)
    5893:	7c 0d                	jl     58a2 <safe_add_func_int64_t_s_s+0x61>
    5895:	48 8b 55 f8          	mov    -0x8(%rbp),%rdx
    5899:	48 8b 45 f0          	mov    -0x10(%rbp),%rax
    589d:	48 01 d0             	add    %rdx,%rax
    58a0:	eb 04                	jmp    58a6 <safe_add_func_int64_t_s_s+0x65>
    58a2:	48 8b 45 f8          	mov    -0x8(%rbp),%rax
    58a6:	5d                   	pop    %rbp
    58a7:	c3                   	retq   

00000000000058a8 <safe_sub_func_int64_t_s_s>:
    58a8:	f3 0f 1e fa          	endbr64 
    58ac:	55                   	push   %rbp
    58ad:	48 89 e5             	mov    %rsp,%rbp
    58b0:	48 89 7d f8          	mov    %rdi,-0x8(%rbp)
    58b4:	48 89 75 f0          	mov    %rsi,-0x10(%rbp)
    58b8:	48 8b 45 f8          	mov    -0x8(%rbp),%rax
    58bc:	48 33 45 f0          	xor    -0x10(%rbp),%rax
    58c0:	48 89 c2             	mov    %rax,%rdx
    58c3:	48 8b 45 f8          	mov    -0x8(%rbp),%rax
    58c7:	48 33 45 f0          	xor    -0x10(%rbp),%rax
    58cb:	48 b9 00 00 00 00 00 	movabs $0x8000000000000000,%rcx
    58d2:	00 00 80 
    58d5:	48 21 c8             	and    %rcx,%rax
    58d8:	48 33 45 f8          	xor    -0x8(%rbp),%rax
    58dc:	48 2b 45 f0          	sub    -0x10(%rbp),%rax
    58e0:	48 33 45 f0          	xor    -0x10(%rbp),%rax
    58e4:	48 21 d0             	and    %rdx,%rax
    58e7:	48 85 c0             	test   %rax,%rax
    58ea:	78 0a                	js     58f6 <safe_sub_func_int64_t_s_s+0x4e>
    58ec:	48 8b 45 f8          	mov    -0x8(%rbp),%rax
    58f0:	48 2b 45 f0          	sub    -0x10(%rbp),%rax
    58f4:	eb 04                	jmp    58fa <safe_sub_func_int64_t_s_s+0x52>
    58f6:	48 8b 45 f8          	mov    -0x8(%rbp),%rax
    58fa:	5d                   	pop    %rbp
    58fb:	c3                   	retq   

00000000000058fc <safe_mul_func_int64_t_s_s>:
    58fc:	f3 0f 1e fa          	endbr64 
    5900:	55                   	push   %rbp
    5901:	48 89 e5             	mov    %rsp,%rbp
    5904:	48 89 7d f8          	mov    %rdi,-0x8(%rbp)
    5908:	48 89 75 f0          	mov    %rsi,-0x10(%rbp)
    590c:	48 83 7d f8 00       	cmpq   $0x0,-0x8(%rbp)
    5911:	7e 1d                	jle    5930 <safe_mul_func_int64_t_s_s+0x34>
    5913:	48 83 7d f0 00       	cmpq   $0x0,-0x10(%rbp)
    5918:	7e 16                	jle    5930 <safe_mul_func_int64_t_s_s+0x34>
    591a:	48 b8 ff ff ff ff ff 	movabs $0x7fffffffffffffff,%rax
    5921:	ff ff 7f 
    5924:	48 99                	cqto   
    5926:	48 f7 7d f0          	idivq  -0x10(%rbp)
    592a:	48 39 45 f8          	cmp    %rax,-0x8(%rbp)
    592e:	7f 7e                	jg     59ae <safe_mul_func_int64_t_s_s+0xb2>
    5930:	48 83 7d f8 00       	cmpq   $0x0,-0x8(%rbp)
    5935:	7e 1d                	jle    5954 <safe_mul_func_int64_t_s_s+0x58>
    5937:	48 83 7d f0 00       	cmpq   $0x0,-0x10(%rbp)
    593c:	7f 16                	jg     5954 <safe_mul_func_int64_t_s_s+0x58>
    593e:	48 b8 00 00 00 00 00 	movabs $0x8000000000000000,%rax
    5945:	00 00 80 
    5948:	48 99                	cqto   
    594a:	48 f7 7d f8          	idivq  -0x8(%rbp)
    594e:	48 39 45 f0          	cmp    %rax,-0x10(%rbp)
    5952:	7c 5a                	jl     59ae <safe_mul_func_int64_t_s_s+0xb2>
    5954:	48 83 7d f8 00       	cmpq   $0x0,-0x8(%rbp)
    5959:	7f 1d                	jg     5978 <safe_mul_func_int64_t_s_s+0x7c>
    595b:	48 83 7d f0 00       	cmpq   $0x0,-0x10(%rbp)
    5960:	7e 16                	jle    5978 <safe_mul_func_int64_t_s_s+0x7c>
    5962:	48 b8 00 00 00 00 00 	movabs $0x8000000000000000,%rax
    5969:	00 00 80 
    596c:	48 99                	cqto   
    596e:	48 f7 7d f0          	idivq  -0x10(%rbp)
    5972:	48 39 45 f8          	cmp    %rax,-0x8(%rbp)
    5976:	7c 36                	jl     59ae <safe_mul_func_int64_t_s_s+0xb2>
    5978:	48 83 7d f8 00       	cmpq   $0x0,-0x8(%rbp)
    597d:	7f 24                	jg     59a3 <safe_mul_func_int64_t_s_s+0xa7>
    597f:	48 83 7d f0 00       	cmpq   $0x0,-0x10(%rbp)
    5984:	7f 1d                	jg     59a3 <safe_mul_func_int64_t_s_s+0xa7>
    5986:	48 83 7d f8 00       	cmpq   $0x0,-0x8(%rbp)
    598b:	74 16                	je     59a3 <safe_mul_func_int64_t_s_s+0xa7>
    598d:	48 b8 ff ff ff ff ff 	movabs $0x7fffffffffffffff,%rax
    5994:	ff ff 7f 
    5997:	48 99                	cqto   
    5999:	48 f7 7d f8          	idivq  -0x8(%rbp)
    599d:	48 39 45 f0          	cmp    %rax,-0x10(%rbp)
    59a1:	7c 0b                	jl     59ae <safe_mul_func_int64_t_s_s+0xb2>
    59a3:	48 8b 45 f8          	mov    -0x8(%rbp),%rax
    59a7:	48 0f af 45 f0       	imul   -0x10(%rbp),%rax
    59ac:	eb 04                	jmp    59b2 <safe_mul_func_int64_t_s_s+0xb6>
    59ae:	48 8b 45 f8          	mov    -0x8(%rbp),%rax
    59b2:	5d                   	pop    %rbp
    59b3:	c3                   	retq   

00000000000059b4 <safe_mod_func_int64_t_s_s>:
    59b4:	f3 0f 1e fa          	endbr64 
    59b8:	55                   	push   %rbp
    59b9:	48 89 e5             	mov    %rsp,%rbp
    59bc:	48 89 7d f8          	mov    %rdi,-0x8(%rbp)
    59c0:	48 89 75 f0          	mov    %rsi,-0x10(%rbp)
    59c4:	48 83 7d f0 00       	cmpq   $0x0,-0x10(%rbp)
    59c9:	74 26                	je     59f1 <safe_mod_func_int64_t_s_s+0x3d>
    59cb:	48 b8 00 00 00 00 00 	movabs $0x8000000000000000,%rax
    59d2:	00 00 80 
    59d5:	48 39 45 f8          	cmp    %rax,-0x8(%rbp)
    59d9:	75 07                	jne    59e2 <safe_mod_func_int64_t_s_s+0x2e>
    59db:	48 83 7d f0 ff       	cmpq   $0xffffffffffffffff,-0x10(%rbp)
    59e0:	74 0f                	je     59f1 <safe_mod_func_int64_t_s_s+0x3d>
    59e2:	48 8b 45 f8          	mov    -0x8(%rbp),%rax
    59e6:	48 99                	cqto   
    59e8:	48 f7 7d f0          	idivq  -0x10(%rbp)
    59ec:	48 89 d0             	mov    %rdx,%rax
    59ef:	eb 04                	jmp    59f5 <safe_mod_func_int64_t_s_s+0x41>
    59f1:	48 8b 45 f8          	mov    -0x8(%rbp),%rax
    59f5:	5d                   	pop    %rbp
    59f6:	c3                   	retq   

00000000000059f7 <safe_div_func_int64_t_s_s>:
    59f7:	f3 0f 1e fa          	endbr64 
    59fb:	55                   	push   %rbp
    59fc:	48 89 e5             	mov    %rsp,%rbp
    59ff:	48 89 7d f8          	mov    %rdi,-0x8(%rbp)
    5a03:	48 89 75 f0          	mov    %rsi,-0x10(%rbp)
    5a07:	48 83 7d f0 00       	cmpq   $0x0,-0x10(%rbp)
    5a0c:	74 23                	je     5a31 <safe_div_func_int64_t_s_s+0x3a>
    5a0e:	48 b8 00 00 00 00 00 	movabs $0x8000000000000000,%rax
    5a15:	00 00 80 
    5a18:	48 39 45 f8          	cmp    %rax,-0x8(%rbp)
    5a1c:	75 07                	jne    5a25 <safe_div_func_int64_t_s_s+0x2e>
    5a1e:	48 83 7d f0 ff       	cmpq   $0xffffffffffffffff,-0x10(%rbp)
    5a23:	74 0c                	je     5a31 <safe_div_func_int64_t_s_s+0x3a>
    5a25:	48 8b 45 f8          	mov    -0x8(%rbp),%rax
    5a29:	48 99                	cqto   
    5a2b:	48 f7 7d f0          	idivq  -0x10(%rbp)
    5a2f:	eb 04                	jmp    5a35 <safe_div_func_int64_t_s_s+0x3e>
    5a31:	48 8b 45 f8          	mov    -0x8(%rbp),%rax
    5a35:	5d                   	pop    %rbp
    5a36:	c3                   	retq   

0000000000005a37 <safe_lshift_func_int64_t_s_s>:
    5a37:	f3 0f 1e fa          	endbr64 
    5a3b:	55                   	push   %rbp
    5a3c:	48 89 e5             	mov    %rsp,%rbp
    5a3f:	48 89 7d f8          	mov    %rdi,-0x8(%rbp)
    5a43:	89 75 f4             	mov    %esi,-0xc(%rbp)
    5a46:	48 83 7d f8 00       	cmpq   $0x0,-0x8(%rbp)
    5a4b:	78 38                	js     5a85 <safe_lshift_func_int64_t_s_s+0x4e>
    5a4d:	83 7d f4 00          	cmpl   $0x0,-0xc(%rbp)
    5a51:	78 32                	js     5a85 <safe_lshift_func_int64_t_s_s+0x4e>
    5a53:	83 7d f4 1f          	cmpl   $0x1f,-0xc(%rbp)
    5a57:	7f 2c                	jg     5a85 <safe_lshift_func_int64_t_s_s+0x4e>
    5a59:	8b 45 f4             	mov    -0xc(%rbp),%eax
    5a5c:	48 ba ff ff ff ff ff 	movabs $0x7fffffffffffffff,%rdx
    5a63:	ff ff 7f 
    5a66:	89 c1                	mov    %eax,%ecx
    5a68:	48 d3 fa             	sar    %cl,%rdx
    5a6b:	48 89 d0             	mov    %rdx,%rax
    5a6e:	48 39 45 f8          	cmp    %rax,-0x8(%rbp)
    5a72:	7f 11                	jg     5a85 <safe_lshift_func_int64_t_s_s+0x4e>
    5a74:	8b 45 f4             	mov    -0xc(%rbp),%eax
    5a77:	48 8b 55 f8          	mov    -0x8(%rbp),%rdx
    5a7b:	89 c1                	mov    %eax,%ecx
    5a7d:	48 d3 e2             	shl    %cl,%rdx
    5a80:	48 89 d0             	mov    %rdx,%rax
    5a83:	eb 04                	jmp    5a89 <safe_lshift_func_int64_t_s_s+0x52>
    5a85:	48 8b 45 f8          	mov    -0x8(%rbp),%rax
    5a89:	5d                   	pop    %rbp
    5a8a:	c3                   	retq   

0000000000005a8b <safe_lshift_func_int64_t_s_u>:
    5a8b:	f3 0f 1e fa          	endbr64 
    5a8f:	55                   	push   %rbp
    5a90:	48 89 e5             	mov    %rsp,%rbp
    5a93:	48 89 7d f8          	mov    %rdi,-0x8(%rbp)
    5a97:	89 75 f4             	mov    %esi,-0xc(%rbp)
    5a9a:	48 83 7d f8 00       	cmpq   $0x0,-0x8(%rbp)
    5a9f:	78 32                	js     5ad3 <safe_lshift_func_int64_t_s_u+0x48>
    5aa1:	83 7d f4 1f          	cmpl   $0x1f,-0xc(%rbp)
    5aa5:	77 2c                	ja     5ad3 <safe_lshift_func_int64_t_s_u+0x48>
    5aa7:	8b 45 f4             	mov    -0xc(%rbp),%eax
    5aaa:	48 ba ff ff ff ff ff 	movabs $0x7fffffffffffffff,%rdx
    5ab1:	ff ff 7f 
    5ab4:	89 c1                	mov    %eax,%ecx
    5ab6:	48 d3 fa             	sar    %cl,%rdx
    5ab9:	48 89 d0             	mov    %rdx,%rax
    5abc:	48 39 45 f8          	cmp    %rax,-0x8(%rbp)
    5ac0:	7f 11                	jg     5ad3 <safe_lshift_func_int64_t_s_u+0x48>
    5ac2:	8b 45 f4             	mov    -0xc(%rbp),%eax
    5ac5:	48 8b 55 f8          	mov    -0x8(%rbp),%rdx
    5ac9:	89 c1                	mov    %eax,%ecx
    5acb:	48 d3 e2             	shl    %cl,%rdx
    5ace:	48 89 d0             	mov    %rdx,%rax
    5ad1:	eb 04                	jmp    5ad7 <safe_lshift_func_int64_t_s_u+0x4c>
    5ad3:	48 8b 45 f8          	mov    -0x8(%rbp),%rax
    5ad7:	5d                   	pop    %rbp
    5ad8:	c3                   	retq   

0000000000005ad9 <safe_rshift_func_int64_t_s_s>:
    5ad9:	f3 0f 1e fa          	endbr64 
    5add:	55                   	push   %rbp
    5ade:	48 89 e5             	mov    %rsp,%rbp
    5ae1:	48 89 7d f8          	mov    %rdi,-0x8(%rbp)
    5ae5:	89 75 f4             	mov    %esi,-0xc(%rbp)
    5ae8:	48 83 7d f8 00       	cmpq   $0x0,-0x8(%rbp)
    5aed:	78 1d                	js     5b0c <safe_rshift_func_int64_t_s_s+0x33>
    5aef:	83 7d f4 00          	cmpl   $0x0,-0xc(%rbp)
    5af3:	78 17                	js     5b0c <safe_rshift_func_int64_t_s_s+0x33>
    5af5:	83 7d f4 1f          	cmpl   $0x1f,-0xc(%rbp)
    5af9:	7f 11                	jg     5b0c <safe_rshift_func_int64_t_s_s+0x33>
    5afb:	8b 45 f4             	mov    -0xc(%rbp),%eax
    5afe:	48 8b 55 f8          	mov    -0x8(%rbp),%rdx
    5b02:	89 c1                	mov    %eax,%ecx
    5b04:	48 d3 fa             	sar    %cl,%rdx
    5b07:	48 89 d0             	mov    %rdx,%rax
    5b0a:	eb 04                	jmp    5b10 <safe_rshift_func_int64_t_s_s+0x37>
    5b0c:	48 8b 45 f8          	mov    -0x8(%rbp),%rax
    5b10:	5d                   	pop    %rbp
    5b11:	c3                   	retq   

0000000000005b12 <safe_rshift_func_int64_t_s_u>:
    5b12:	f3 0f 1e fa          	endbr64 
    5b16:	55                   	push   %rbp
    5b17:	48 89 e5             	mov    %rsp,%rbp
    5b1a:	48 89 7d f8          	mov    %rdi,-0x8(%rbp)
    5b1e:	89 75 f4             	mov    %esi,-0xc(%rbp)
    5b21:	48 83 7d f8 00       	cmpq   $0x0,-0x8(%rbp)
    5b26:	78 17                	js     5b3f <safe_rshift_func_int64_t_s_u+0x2d>
    5b28:	83 7d f4 1f          	cmpl   $0x1f,-0xc(%rbp)
    5b2c:	77 11                	ja     5b3f <safe_rshift_func_int64_t_s_u+0x2d>
    5b2e:	8b 45 f4             	mov    -0xc(%rbp),%eax
    5b31:	48 8b 55 f8          	mov    -0x8(%rbp),%rdx
    5b35:	89 c1                	mov    %eax,%ecx
    5b37:	48 d3 fa             	sar    %cl,%rdx
    5b3a:	48 89 d0             	mov    %rdx,%rax
    5b3d:	eb 04                	jmp    5b43 <safe_rshift_func_int64_t_s_u+0x31>
    5b3f:	48 8b 45 f8          	mov    -0x8(%rbp),%rax
    5b43:	5d                   	pop    %rbp
    5b44:	c3                   	retq   

0000000000005b45 <safe_unary_minus_func_uint8_t_u>:
    5b45:	f3 0f 1e fa          	endbr64 
    5b49:	55                   	push   %rbp
    5b4a:	48 89 e5             	mov    %rsp,%rbp
    5b4d:	89 f8                	mov    %edi,%eax
    5b4f:	88 45 fc             	mov    %al,-0x4(%rbp)
    5b52:	0f b6 45 fc          	movzbl -0x4(%rbp),%eax
    5b56:	f7 d8                	neg    %eax
    5b58:	5d                   	pop    %rbp
    5b59:	c3                   	retq   

0000000000005b5a <safe_add_func_uint8_t_u_u>:
    5b5a:	f3 0f 1e fa          	endbr64 
    5b5e:	55                   	push   %rbp
    5b5f:	48 89 e5             	mov    %rsp,%rbp
    5b62:	89 fa                	mov    %edi,%edx
    5b64:	89 f0                	mov    %esi,%eax
    5b66:	88 55 fc             	mov    %dl,-0x4(%rbp)
    5b69:	88 45 f8             	mov    %al,-0x8(%rbp)
    5b6c:	0f b6 55 fc          	movzbl -0x4(%rbp),%edx
    5b70:	0f b6 45 f8          	movzbl -0x8(%rbp),%eax
    5b74:	01 d0                	add    %edx,%eax
    5b76:	5d                   	pop    %rbp
    5b77:	c3                   	retq   

0000000000005b78 <safe_sub_func_uint8_t_u_u>:
    5b78:	f3 0f 1e fa          	endbr64 
    5b7c:	55                   	push   %rbp
    5b7d:	48 89 e5             	mov    %rsp,%rbp
    5b80:	89 fa                	mov    %edi,%edx
    5b82:	89 f0                	mov    %esi,%eax
    5b84:	88 55 fc             	mov    %dl,-0x4(%rbp)
    5b87:	88 45 f8             	mov    %al,-0x8(%rbp)
    5b8a:	0f b6 45 fc          	movzbl -0x4(%rbp),%eax
    5b8e:	2a 45 f8             	sub    -0x8(%rbp),%al
    5b91:	5d                   	pop    %rbp
    5b92:	c3                   	retq   

0000000000005b93 <safe_mul_func_uint8_t_u_u>:
    5b93:	f3 0f 1e fa          	endbr64 
    5b97:	55                   	push   %rbp
    5b98:	48 89 e5             	mov    %rsp,%rbp
    5b9b:	89 fa                	mov    %edi,%edx
    5b9d:	89 f0                	mov    %esi,%eax
    5b9f:	88 55 fc             	mov    %dl,-0x4(%rbp)
    5ba2:	88 45 f8             	mov    %al,-0x8(%rbp)
    5ba5:	0f b6 45 fc          	movzbl -0x4(%rbp),%eax
    5ba9:	f6 65 f8             	mulb   -0x8(%rbp)
    5bac:	5d                   	pop    %rbp
    5bad:	c3                   	retq   

0000000000005bae <safe_mod_func_uint8_t_u_u>:
    5bae:	f3 0f 1e fa          	endbr64 
    5bb2:	55                   	push   %rbp
    5bb3:	48 89 e5             	mov    %rsp,%rbp
    5bb6:	89 fa                	mov    %edi,%edx
    5bb8:	89 f0                	mov    %esi,%eax
    5bba:	88 55 fc             	mov    %dl,-0x4(%rbp)
    5bbd:	88 45 f8             	mov    %al,-0x8(%rbp)
    5bc0:	80 7d f8 00          	cmpb   $0x0,-0x8(%rbp)
    5bc4:	74 0f                	je     5bd5 <safe_mod_func_uint8_t_u_u+0x27>
    5bc6:	0f b6 45 fc          	movzbl -0x4(%rbp),%eax
    5bca:	0f b6 c0             	movzbl %al,%eax
    5bcd:	f6 75 f8             	divb   -0x8(%rbp)
    5bd0:	0f b6 c4             	movzbl %ah,%eax
    5bd3:	eb 04                	jmp    5bd9 <safe_mod_func_uint8_t_u_u+0x2b>
    5bd5:	0f b6 45 fc          	movzbl -0x4(%rbp),%eax
    5bd9:	5d                   	pop    %rbp
    5bda:	c3                   	retq   

0000000000005bdb <safe_div_func_uint8_t_u_u>:
    5bdb:	f3 0f 1e fa          	endbr64 
    5bdf:	55                   	push   %rbp
    5be0:	48 89 e5             	mov    %rsp,%rbp
    5be3:	89 fa                	mov    %edi,%edx
    5be5:	89 f0                	mov    %esi,%eax
    5be7:	88 55 fc             	mov    %dl,-0x4(%rbp)
    5bea:	88 45 f8             	mov    %al,-0x8(%rbp)
    5bed:	80 7d f8 00          	cmpb   $0x0,-0x8(%rbp)
    5bf1:	74 0c                	je     5bff <safe_div_func_uint8_t_u_u+0x24>
    5bf3:	0f b6 45 fc          	movzbl -0x4(%rbp),%eax
    5bf7:	0f b6 c0             	movzbl %al,%eax
    5bfa:	f6 75 f8             	divb   -0x8(%rbp)
    5bfd:	eb 04                	jmp    5c03 <safe_div_func_uint8_t_u_u+0x28>
    5bff:	0f b6 45 fc          	movzbl -0x4(%rbp),%eax
    5c03:	5d                   	pop    %rbp
    5c04:	c3                   	retq   

0000000000005c05 <safe_lshift_func_uint8_t_u_s>:
    5c05:	f3 0f 1e fa          	endbr64 
    5c09:	55                   	push   %rbp
    5c0a:	48 89 e5             	mov    %rsp,%rbp
    5c0d:	89 f8                	mov    %edi,%eax
    5c0f:	89 75 f8             	mov    %esi,-0x8(%rbp)
    5c12:	88 45 fc             	mov    %al,-0x4(%rbp)
    5c15:	83 7d f8 00          	cmpl   $0x0,-0x8(%rbp)
    5c19:	78 2b                	js     5c46 <safe_lshift_func_uint8_t_u_s+0x41>
    5c1b:	83 7d f8 1f          	cmpl   $0x1f,-0x8(%rbp)
    5c1f:	7f 25                	jg     5c46 <safe_lshift_func_uint8_t_u_s+0x41>
    5c21:	0f b6 55 fc          	movzbl -0x4(%rbp),%edx
    5c25:	8b 45 f8             	mov    -0x8(%rbp),%eax
    5c28:	be ff 00 00 00       	mov    $0xff,%esi
    5c2d:	89 c1                	mov    %eax,%ecx
    5c2f:	d3 fe                	sar    %cl,%esi
    5c31:	89 f0                	mov    %esi,%eax
    5c33:	39 c2                	cmp    %eax,%edx
    5c35:	7f 0f                	jg     5c46 <safe_lshift_func_uint8_t_u_s+0x41>
    5c37:	0f b6 55 fc          	movzbl -0x4(%rbp),%edx
    5c3b:	8b 45 f8             	mov    -0x8(%rbp),%eax
    5c3e:	89 c1                	mov    %eax,%ecx
    5c40:	d3 e2                	shl    %cl,%edx
    5c42:	89 d0                	mov    %edx,%eax
    5c44:	eb 04                	jmp    5c4a <safe_lshift_func_uint8_t_u_s+0x45>
    5c46:	0f b6 45 fc          	movzbl -0x4(%rbp),%eax
    5c4a:	5d                   	pop    %rbp
    5c4b:	c3                   	retq   

0000000000005c4c <safe_lshift_func_uint8_t_u_u>:
    5c4c:	f3 0f 1e fa          	endbr64 
    5c50:	55                   	push   %rbp
    5c51:	48 89 e5             	mov    %rsp,%rbp
    5c54:	89 f8                	mov    %edi,%eax
    5c56:	89 75 f8             	mov    %esi,-0x8(%rbp)
    5c59:	88 45 fc             	mov    %al,-0x4(%rbp)
    5c5c:	83 7d f8 1f          	cmpl   $0x1f,-0x8(%rbp)
    5c60:	77 25                	ja     5c87 <safe_lshift_func_uint8_t_u_u+0x3b>
    5c62:	0f b6 55 fc          	movzbl -0x4(%rbp),%edx
    5c66:	8b 45 f8             	mov    -0x8(%rbp),%eax
    5c69:	be ff 00 00 00       	mov    $0xff,%esi
    5c6e:	89 c1                	mov    %eax,%ecx
    5c70:	d3 fe                	sar    %cl,%esi
    5c72:	89 f0                	mov    %esi,%eax
    5c74:	39 c2                	cmp    %eax,%edx
    5c76:	7f 0f                	jg     5c87 <safe_lshift_func_uint8_t_u_u+0x3b>
    5c78:	0f b6 55 fc          	movzbl -0x4(%rbp),%edx
    5c7c:	8b 45 f8             	mov    -0x8(%rbp),%eax
    5c7f:	89 c1                	mov    %eax,%ecx
    5c81:	d3 e2                	shl    %cl,%edx
    5c83:	89 d0                	mov    %edx,%eax
    5c85:	eb 04                	jmp    5c8b <safe_lshift_func_uint8_t_u_u+0x3f>
    5c87:	0f b6 45 fc          	movzbl -0x4(%rbp),%eax
    5c8b:	5d                   	pop    %rbp
    5c8c:	c3                   	retq   

0000000000005c8d <safe_rshift_func_uint8_t_u_s>:
    5c8d:	f3 0f 1e fa          	endbr64 
    5c91:	55                   	push   %rbp
    5c92:	48 89 e5             	mov    %rsp,%rbp
    5c95:	89 f8                	mov    %edi,%eax
    5c97:	89 75 f8             	mov    %esi,-0x8(%rbp)
    5c9a:	88 45 fc             	mov    %al,-0x4(%rbp)
    5c9d:	83 7d f8 00          	cmpl   $0x0,-0x8(%rbp)
    5ca1:	78 15                	js     5cb8 <safe_rshift_func_uint8_t_u_s+0x2b>
    5ca3:	83 7d f8 1f          	cmpl   $0x1f,-0x8(%rbp)
    5ca7:	7f 0f                	jg     5cb8 <safe_rshift_func_uint8_t_u_s+0x2b>
    5ca9:	0f b6 55 fc          	movzbl -0x4(%rbp),%edx
    5cad:	8b 45 f8             	mov    -0x8(%rbp),%eax
    5cb0:	89 c1                	mov    %eax,%ecx
    5cb2:	d3 fa                	sar    %cl,%edx
    5cb4:	89 d0                	mov    %edx,%eax
    5cb6:	eb 04                	jmp    5cbc <safe_rshift_func_uint8_t_u_s+0x2f>
    5cb8:	0f b6 45 fc          	movzbl -0x4(%rbp),%eax
    5cbc:	5d                   	pop    %rbp
    5cbd:	c3                   	retq   

0000000000005cbe <safe_rshift_func_uint8_t_u_u>:
    5cbe:	f3 0f 1e fa          	endbr64 
    5cc2:	55                   	push   %rbp
    5cc3:	48 89 e5             	mov    %rsp,%rbp
    5cc6:	89 f8                	mov    %edi,%eax
    5cc8:	89 75 f8             	mov    %esi,-0x8(%rbp)
    5ccb:	88 45 fc             	mov    %al,-0x4(%rbp)
    5cce:	83 7d f8 1f          	cmpl   $0x1f,-0x8(%rbp)
    5cd2:	77 0f                	ja     5ce3 <safe_rshift_func_uint8_t_u_u+0x25>
    5cd4:	0f b6 55 fc          	movzbl -0x4(%rbp),%edx
    5cd8:	8b 45 f8             	mov    -0x8(%rbp),%eax
    5cdb:	89 c1                	mov    %eax,%ecx
    5cdd:	d3 fa                	sar    %cl,%edx
    5cdf:	89 d0                	mov    %edx,%eax
    5ce1:	eb 04                	jmp    5ce7 <safe_rshift_func_uint8_t_u_u+0x29>
    5ce3:	0f b6 45 fc          	movzbl -0x4(%rbp),%eax
    5ce7:	5d                   	pop    %rbp
    5ce8:	c3                   	retq   

0000000000005ce9 <safe_unary_minus_func_uint16_t_u>:
    5ce9:	f3 0f 1e fa          	endbr64 
    5ced:	55                   	push   %rbp
    5cee:	48 89 e5             	mov    %rsp,%rbp
    5cf1:	89 f8                	mov    %edi,%eax
    5cf3:	66 89 45 fc          	mov    %ax,-0x4(%rbp)
    5cf7:	0f b7 45 fc          	movzwl -0x4(%rbp),%eax
    5cfb:	f7 d8                	neg    %eax
    5cfd:	5d                   	pop    %rbp
    5cfe:	c3                   	retq   

0000000000005cff <safe_add_func_uint16_t_u_u>:
    5cff:	f3 0f 1e fa          	endbr64 
    5d03:	55                   	push   %rbp
    5d04:	48 89 e5             	mov    %rsp,%rbp
    5d07:	89 fa                	mov    %edi,%edx
    5d09:	89 f0                	mov    %esi,%eax
    5d0b:	66 89 55 fc          	mov    %dx,-0x4(%rbp)
    5d0f:	66 89 45 f8          	mov    %ax,-0x8(%rbp)
    5d13:	0f b7 55 fc          	movzwl -0x4(%rbp),%edx
    5d17:	0f b7 45 f8          	movzwl -0x8(%rbp),%eax
    5d1b:	01 d0                	add    %edx,%eax
    5d1d:	5d                   	pop    %rbp
    5d1e:	c3                   	retq   

0000000000005d1f <safe_sub_func_uint16_t_u_u>:
    5d1f:	f3 0f 1e fa          	endbr64 
    5d23:	55                   	push   %rbp
    5d24:	48 89 e5             	mov    %rsp,%rbp
    5d27:	89 fa                	mov    %edi,%edx
    5d29:	89 f0                	mov    %esi,%eax
    5d2b:	66 89 55 fc          	mov    %dx,-0x4(%rbp)
    5d2f:	66 89 45 f8          	mov    %ax,-0x8(%rbp)
    5d33:	0f b7 45 fc          	movzwl -0x4(%rbp),%eax
    5d37:	66 2b 45 f8          	sub    -0x8(%rbp),%ax
    5d3b:	5d                   	pop    %rbp
    5d3c:	c3                   	retq   

0000000000005d3d <safe_mul_func_uint16_t_u_u>:
    5d3d:	f3 0f 1e fa          	endbr64 
    5d41:	55                   	push   %rbp
    5d42:	48 89 e5             	mov    %rsp,%rbp
    5d45:	89 fa                	mov    %edi,%edx
    5d47:	89 f0                	mov    %esi,%eax
    5d49:	66 89 55 fc          	mov    %dx,-0x4(%rbp)
    5d4d:	66 89 45 f8          	mov    %ax,-0x8(%rbp)
    5d51:	0f b7 45 fc          	movzwl -0x4(%rbp),%eax
    5d55:	66 0f af 45 f8       	imul   -0x8(%rbp),%ax
    5d5a:	5d                   	pop    %rbp
    5d5b:	c3                   	retq   

0000000000005d5c <safe_mod_func_uint16_t_u_u>:
    5d5c:	f3 0f 1e fa          	endbr64 
    5d60:	55                   	push   %rbp
    5d61:	48 89 e5             	mov    %rsp,%rbp
    5d64:	89 fa                	mov    %edi,%edx
    5d66:	89 f0                	mov    %esi,%eax
    5d68:	66 89 55 fc          	mov    %dx,-0x4(%rbp)
    5d6c:	66 89 45 f8          	mov    %ax,-0x8(%rbp)
    5d70:	66 83 7d f8 00       	cmpw   $0x0,-0x8(%rbp)
    5d75:	74 11                	je     5d88 <safe_mod_func_uint16_t_u_u+0x2c>
    5d77:	0f b7 45 fc          	movzwl -0x4(%rbp),%eax
    5d7b:	ba 00 00 00 00       	mov    $0x0,%edx
    5d80:	66 f7 75 f8          	divw   -0x8(%rbp)
    5d84:	89 d0                	mov    %edx,%eax
    5d86:	eb 04                	jmp    5d8c <safe_mod_func_uint16_t_u_u+0x30>
    5d88:	0f b7 45 fc          	movzwl -0x4(%rbp),%eax
    5d8c:	5d                   	pop    %rbp
    5d8d:	c3                   	retq   

0000000000005d8e <safe_div_func_uint16_t_u_u>:
    5d8e:	f3 0f 1e fa          	endbr64 
    5d92:	55                   	push   %rbp
    5d93:	48 89 e5             	mov    %rsp,%rbp
    5d96:	89 fa                	mov    %edi,%edx
    5d98:	89 f0                	mov    %esi,%eax
    5d9a:	66 89 55 fc          	mov    %dx,-0x4(%rbp)
    5d9e:	66 89 45 f8          	mov    %ax,-0x8(%rbp)
    5da2:	66 83 7d f8 00       	cmpw   $0x0,-0x8(%rbp)
    5da7:	74 0f                	je     5db8 <safe_div_func_uint16_t_u_u+0x2a>
    5da9:	0f b7 45 fc          	movzwl -0x4(%rbp),%eax
    5dad:	ba 00 00 00 00       	mov    $0x0,%edx
    5db2:	66 f7 75 f8          	divw   -0x8(%rbp)
    5db6:	eb 04                	jmp    5dbc <safe_div_func_uint16_t_u_u+0x2e>
    5db8:	0f b7 45 fc          	movzwl -0x4(%rbp),%eax
    5dbc:	5d                   	pop    %rbp
    5dbd:	c3                   	retq   

0000000000005dbe <safe_lshift_func_uint16_t_u_s>:
    5dbe:	f3 0f 1e fa          	endbr64 
    5dc2:	55                   	push   %rbp
    5dc3:	48 89 e5             	mov    %rsp,%rbp
    5dc6:	89 f8                	mov    %edi,%eax
    5dc8:	89 75 f8             	mov    %esi,-0x8(%rbp)
    5dcb:	66 89 45 fc          	mov    %ax,-0x4(%rbp)
    5dcf:	83 7d f8 00          	cmpl   $0x0,-0x8(%rbp)
    5dd3:	78 2b                	js     5e00 <safe_lshift_func_uint16_t_u_s+0x42>
    5dd5:	83 7d f8 1f          	cmpl   $0x1f,-0x8(%rbp)
    5dd9:	7f 25                	jg     5e00 <safe_lshift_func_uint16_t_u_s+0x42>
    5ddb:	0f b7 55 fc          	movzwl -0x4(%rbp),%edx
    5ddf:	8b 45 f8             	mov    -0x8(%rbp),%eax
    5de2:	be ff ff 00 00       	mov    $0xffff,%esi
    5de7:	89 c1                	mov    %eax,%ecx
    5de9:	d3 fe                	sar    %cl,%esi
    5deb:	89 f0                	mov    %esi,%eax
    5ded:	39 c2                	cmp    %eax,%edx
    5def:	7f 0f                	jg     5e00 <safe_lshift_func_uint16_t_u_s+0x42>
    5df1:	0f b7 55 fc          	movzwl -0x4(%rbp),%edx
    5df5:	8b 45 f8             	mov    -0x8(%rbp),%eax
    5df8:	89 c1                	mov    %eax,%ecx
    5dfa:	d3 e2                	shl    %cl,%edx
    5dfc:	89 d0                	mov    %edx,%eax
    5dfe:	eb 04                	jmp    5e04 <safe_lshift_func_uint16_t_u_s+0x46>
    5e00:	0f b7 45 fc          	movzwl -0x4(%rbp),%eax
    5e04:	5d                   	pop    %rbp
    5e05:	c3                   	retq   

0000000000005e06 <safe_lshift_func_uint16_t_u_u>:
    5e06:	f3 0f 1e fa          	endbr64 
    5e0a:	55                   	push   %rbp
    5e0b:	48 89 e5             	mov    %rsp,%rbp
    5e0e:	89 f8                	mov    %edi,%eax
    5e10:	89 75 f8             	mov    %esi,-0x8(%rbp)
    5e13:	66 89 45 fc          	mov    %ax,-0x4(%rbp)
    5e17:	83 7d f8 1f          	cmpl   $0x1f,-0x8(%rbp)
    5e1b:	77 25                	ja     5e42 <safe_lshift_func_uint16_t_u_u+0x3c>
    5e1d:	0f b7 55 fc          	movzwl -0x4(%rbp),%edx
    5e21:	8b 45 f8             	mov    -0x8(%rbp),%eax
    5e24:	be ff ff 00 00       	mov    $0xffff,%esi
    5e29:	89 c1                	mov    %eax,%ecx
    5e2b:	d3 fe                	sar    %cl,%esi
    5e2d:	89 f0                	mov    %esi,%eax
    5e2f:	39 c2                	cmp    %eax,%edx
    5e31:	7f 0f                	jg     5e42 <safe_lshift_func_uint16_t_u_u+0x3c>
    5e33:	0f b7 55 fc          	movzwl -0x4(%rbp),%edx
    5e37:	8b 45 f8             	mov    -0x8(%rbp),%eax
    5e3a:	89 c1                	mov    %eax,%ecx
    5e3c:	d3 e2                	shl    %cl,%edx
    5e3e:	89 d0                	mov    %edx,%eax
    5e40:	eb 04                	jmp    5e46 <safe_lshift_func_uint16_t_u_u+0x40>
    5e42:	0f b7 45 fc          	movzwl -0x4(%rbp),%eax
    5e46:	5d                   	pop    %rbp
    5e47:	c3                   	retq   

0000000000005e48 <safe_rshift_func_uint16_t_u_s>:
    5e48:	f3 0f 1e fa          	endbr64 
    5e4c:	55                   	push   %rbp
    5e4d:	48 89 e5             	mov    %rsp,%rbp
    5e50:	89 f8                	mov    %edi,%eax
    5e52:	89 75 f8             	mov    %esi,-0x8(%rbp)
    5e55:	66 89 45 fc          	mov    %ax,-0x4(%rbp)
    5e59:	83 7d f8 00          	cmpl   $0x0,-0x8(%rbp)
    5e5d:	78 15                	js     5e74 <safe_rshift_func_uint16_t_u_s+0x2c>
    5e5f:	83 7d f8 1f          	cmpl   $0x1f,-0x8(%rbp)
    5e63:	7f 0f                	jg     5e74 <safe_rshift_func_uint16_t_u_s+0x2c>
    5e65:	0f b7 55 fc          	movzwl -0x4(%rbp),%edx
    5e69:	8b 45 f8             	mov    -0x8(%rbp),%eax
    5e6c:	89 c1                	mov    %eax,%ecx
    5e6e:	d3 fa                	sar    %cl,%edx
    5e70:	89 d0                	mov    %edx,%eax
    5e72:	eb 04                	jmp    5e78 <safe_rshift_func_uint16_t_u_s+0x30>
    5e74:	0f b7 45 fc          	movzwl -0x4(%rbp),%eax
    5e78:	5d                   	pop    %rbp
    5e79:	c3                   	retq   

0000000000005e7a <safe_rshift_func_uint16_t_u_u>:
    5e7a:	f3 0f 1e fa          	endbr64 
    5e7e:	55                   	push   %rbp
    5e7f:	48 89 e5             	mov    %rsp,%rbp
    5e82:	89 f8                	mov    %edi,%eax
    5e84:	89 75 f8             	mov    %esi,-0x8(%rbp)
    5e87:	66 89 45 fc          	mov    %ax,-0x4(%rbp)
    5e8b:	83 7d f8 1f          	cmpl   $0x1f,-0x8(%rbp)
    5e8f:	77 0f                	ja     5ea0 <safe_rshift_func_uint16_t_u_u+0x26>
    5e91:	0f b7 55 fc          	movzwl -0x4(%rbp),%edx
    5e95:	8b 45 f8             	mov    -0x8(%rbp),%eax
    5e98:	89 c1                	mov    %eax,%ecx
    5e9a:	d3 fa                	sar    %cl,%edx
    5e9c:	89 d0                	mov    %edx,%eax
    5e9e:	eb 04                	jmp    5ea4 <safe_rshift_func_uint16_t_u_u+0x2a>
    5ea0:	0f b7 45 fc          	movzwl -0x4(%rbp),%eax
    5ea4:	5d                   	pop    %rbp
    5ea5:	c3                   	retq   

0000000000005ea6 <safe_unary_minus_func_uint32_t_u>:
    5ea6:	f3 0f 1e fa          	endbr64 
    5eaa:	55                   	push   %rbp
    5eab:	48 89 e5             	mov    %rsp,%rbp
    5eae:	89 7d fc             	mov    %edi,-0x4(%rbp)
    5eb1:	8b 45 fc             	mov    -0x4(%rbp),%eax
    5eb4:	f7 d8                	neg    %eax
    5eb6:	5d                   	pop    %rbp
    5eb7:	c3                   	retq   

0000000000005eb8 <safe_add_func_uint32_t_u_u>:
    5eb8:	f3 0f 1e fa          	endbr64 
    5ebc:	55                   	push   %rbp
    5ebd:	48 89 e5             	mov    %rsp,%rbp
    5ec0:	89 7d fc             	mov    %edi,-0x4(%rbp)
    5ec3:	89 75 f8             	mov    %esi,-0x8(%rbp)
    5ec6:	8b 55 fc             	mov    -0x4(%rbp),%edx
    5ec9:	8b 45 f8             	mov    -0x8(%rbp),%eax
    5ecc:	01 d0                	add    %edx,%eax
    5ece:	5d                   	pop    %rbp
    5ecf:	c3                   	retq   

0000000000005ed0 <safe_sub_func_uint32_t_u_u>:
    5ed0:	f3 0f 1e fa          	endbr64 
    5ed4:	55                   	push   %rbp
    5ed5:	48 89 e5             	mov    %rsp,%rbp
    5ed8:	89 7d fc             	mov    %edi,-0x4(%rbp)
    5edb:	89 75 f8             	mov    %esi,-0x8(%rbp)
    5ede:	8b 45 fc             	mov    -0x4(%rbp),%eax
    5ee1:	2b 45 f8             	sub    -0x8(%rbp),%eax
    5ee4:	5d                   	pop    %rbp
    5ee5:	c3                   	retq   

0000000000005ee6 <safe_mul_func_uint32_t_u_u>:
    5ee6:	f3 0f 1e fa          	endbr64 
    5eea:	55                   	push   %rbp
    5eeb:	48 89 e5             	mov    %rsp,%rbp
    5eee:	89 7d fc             	mov    %edi,-0x4(%rbp)
    5ef1:	89 75 f8             	mov    %esi,-0x8(%rbp)
    5ef4:	8b 45 fc             	mov    -0x4(%rbp),%eax
    5ef7:	0f af 45 f8          	imul   -0x8(%rbp),%eax
    5efb:	5d                   	pop    %rbp
    5efc:	c3                   	retq   

0000000000005efd <safe_mod_func_uint32_t_u_u>:
    5efd:	f3 0f 1e fa          	endbr64 
    5f01:	55                   	push   %rbp
    5f02:	48 89 e5             	mov    %rsp,%rbp
    5f05:	89 7d fc             	mov    %edi,-0x4(%rbp)
    5f08:	89 75 f8             	mov    %esi,-0x8(%rbp)
    5f0b:	83 7d f8 00          	cmpl   $0x0,-0x8(%rbp)
    5f0f:	74 0f                	je     5f20 <safe_mod_func_uint32_t_u_u+0x23>
    5f11:	8b 45 fc             	mov    -0x4(%rbp),%eax
    5f14:	ba 00 00 00 00       	mov    $0x0,%edx
    5f19:	f7 75 f8             	divl   -0x8(%rbp)
    5f1c:	89 d0                	mov    %edx,%eax
    5f1e:	eb 03                	jmp    5f23 <safe_mod_func_uint32_t_u_u+0x26>
    5f20:	8b 45 fc             	mov    -0x4(%rbp),%eax
    5f23:	5d                   	pop    %rbp
    5f24:	c3                   	retq   

0000000000005f25 <safe_div_func_uint32_t_u_u>:
    5f25:	f3 0f 1e fa          	endbr64 
    5f29:	55                   	push   %rbp
    5f2a:	48 89 e5             	mov    %rsp,%rbp
    5f2d:	89 7d fc             	mov    %edi,-0x4(%rbp)
    5f30:	89 75 f8             	mov    %esi,-0x8(%rbp)
    5f33:	83 7d f8 00          	cmpl   $0x0,-0x8(%rbp)
    5f37:	74 0d                	je     5f46 <safe_div_func_uint32_t_u_u+0x21>
    5f39:	8b 45 fc             	mov    -0x4(%rbp),%eax
    5f3c:	ba 00 00 00 00       	mov    $0x0,%edx
    5f41:	f7 75 f8             	divl   -0x8(%rbp)
    5f44:	eb 03                	jmp    5f49 <safe_div_func_uint32_t_u_u+0x24>
    5f46:	8b 45 fc             	mov    -0x4(%rbp),%eax
    5f49:	5d                   	pop    %rbp
    5f4a:	c3                   	retq   

0000000000005f4b <safe_lshift_func_uint32_t_u_s>:
    5f4b:	f3 0f 1e fa          	endbr64 
    5f4f:	55                   	push   %rbp
    5f50:	48 89 e5             	mov    %rsp,%rbp
    5f53:	89 7d fc             	mov    %edi,-0x4(%rbp)
    5f56:	89 75 f8             	mov    %esi,-0x8(%rbp)
    5f59:	83 7d f8 00          	cmpl   $0x0,-0x8(%rbp)
    5f5d:	78 27                	js     5f86 <safe_lshift_func_uint32_t_u_s+0x3b>
    5f5f:	83 7d f8 1f          	cmpl   $0x1f,-0x8(%rbp)
    5f63:	7f 21                	jg     5f86 <safe_lshift_func_uint32_t_u_s+0x3b>
    5f65:	8b 45 f8             	mov    -0x8(%rbp),%eax
    5f68:	ba ff ff ff ff       	mov    $0xffffffff,%edx
    5f6d:	89 c1                	mov    %eax,%ecx
    5f6f:	d3 ea                	shr    %cl,%edx
    5f71:	89 d0                	mov    %edx,%eax
    5f73:	39 45 fc             	cmp    %eax,-0x4(%rbp)
    5f76:	77 0e                	ja     5f86 <safe_lshift_func_uint32_t_u_s+0x3b>
    5f78:	8b 45 f8             	mov    -0x8(%rbp),%eax
    5f7b:	8b 55 fc             	mov    -0x4(%rbp),%edx
    5f7e:	89 c1                	mov    %eax,%ecx
    5f80:	d3 e2                	shl    %cl,%edx
    5f82:	89 d0                	mov    %edx,%eax
    5f84:	eb 03                	jmp    5f89 <safe_lshift_func_uint32_t_u_s+0x3e>
    5f86:	8b 45 fc             	mov    -0x4(%rbp),%eax
    5f89:	5d                   	pop    %rbp
    5f8a:	c3                   	retq   

0000000000005f8b <safe_lshift_func_uint32_t_u_u>:
    5f8b:	f3 0f 1e fa          	endbr64 
    5f8f:	55                   	push   %rbp
    5f90:	48 89 e5             	mov    %rsp,%rbp
    5f93:	89 7d fc             	mov    %edi,-0x4(%rbp)
    5f96:	89 75 f8             	mov    %esi,-0x8(%rbp)
    5f99:	83 7d f8 1f          	cmpl   $0x1f,-0x8(%rbp)
    5f9d:	77 21                	ja     5fc0 <safe_lshift_func_uint32_t_u_u+0x35>
    5f9f:	8b 45 f8             	mov    -0x8(%rbp),%eax
    5fa2:	ba ff ff ff ff       	mov    $0xffffffff,%edx
    5fa7:	89 c1                	mov    %eax,%ecx
    5fa9:	d3 ea                	shr    %cl,%edx
    5fab:	89 d0                	mov    %edx,%eax
    5fad:	39 45 fc             	cmp    %eax,-0x4(%rbp)
    5fb0:	77 0e                	ja     5fc0 <safe_lshift_func_uint32_t_u_u+0x35>
    5fb2:	8b 45 f8             	mov    -0x8(%rbp),%eax
    5fb5:	8b 55 fc             	mov    -0x4(%rbp),%edx
    5fb8:	89 c1                	mov    %eax,%ecx
    5fba:	d3 e2                	shl    %cl,%edx
    5fbc:	89 d0                	mov    %edx,%eax
    5fbe:	eb 03                	jmp    5fc3 <safe_lshift_func_uint32_t_u_u+0x38>
    5fc0:	8b 45 fc             	mov    -0x4(%rbp),%eax
    5fc3:	5d                   	pop    %rbp
    5fc4:	c3                   	retq   

0000000000005fc5 <safe_rshift_func_uint32_t_u_s>:
    5fc5:	f3 0f 1e fa          	endbr64 
    5fc9:	55                   	push   %rbp
    5fca:	48 89 e5             	mov    %rsp,%rbp
    5fcd:	89 7d fc             	mov    %edi,-0x4(%rbp)
    5fd0:	89 75 f8             	mov    %esi,-0x8(%rbp)
    5fd3:	83 7d f8 00          	cmpl   $0x0,-0x8(%rbp)
    5fd7:	78 14                	js     5fed <safe_rshift_func_uint32_t_u_s+0x28>
    5fd9:	83 7d f8 1f          	cmpl   $0x1f,-0x8(%rbp)
    5fdd:	7f 0e                	jg     5fed <safe_rshift_func_uint32_t_u_s+0x28>
    5fdf:	8b 45 f8             	mov    -0x8(%rbp),%eax
    5fe2:	8b 55 fc             	mov    -0x4(%rbp),%edx
    5fe5:	89 c1                	mov    %eax,%ecx
    5fe7:	d3 ea                	shr    %cl,%edx
    5fe9:	89 d0                	mov    %edx,%eax
    5feb:	eb 03                	jmp    5ff0 <safe_rshift_func_uint32_t_u_s+0x2b>
    5fed:	8b 45 fc             	mov    -0x4(%rbp),%eax
    5ff0:	5d                   	pop    %rbp
    5ff1:	c3                   	retq   

0000000000005ff2 <safe_rshift_func_uint32_t_u_u>:
    5ff2:	f3 0f 1e fa          	endbr64 
    5ff6:	55                   	push   %rbp
    5ff7:	48 89 e5             	mov    %rsp,%rbp
    5ffa:	89 7d fc             	mov    %edi,-0x4(%rbp)
    5ffd:	89 75 f8             	mov    %esi,-0x8(%rbp)
    6000:	83 7d f8 1f          	cmpl   $0x1f,-0x8(%rbp)
    6004:	77 0e                	ja     6014 <safe_rshift_func_uint32_t_u_u+0x22>
    6006:	8b 45 f8             	mov    -0x8(%rbp),%eax
    6009:	8b 55 fc             	mov    -0x4(%rbp),%edx
    600c:	89 c1                	mov    %eax,%ecx
    600e:	d3 ea                	shr    %cl,%edx
    6010:	89 d0                	mov    %edx,%eax
    6012:	eb 03                	jmp    6017 <safe_rshift_func_uint32_t_u_u+0x25>
    6014:	8b 45 fc             	mov    -0x4(%rbp),%eax
    6017:	5d                   	pop    %rbp
    6018:	c3                   	retq   

0000000000006019 <safe_unary_minus_func_uint64_t_u>:
    6019:	f3 0f 1e fa          	endbr64 
    601d:	55                   	push   %rbp
    601e:	48 89 e5             	mov    %rsp,%rbp
    6021:	48 89 7d f8          	mov    %rdi,-0x8(%rbp)
    6025:	48 8b 45 f8          	mov    -0x8(%rbp),%rax
    6029:	48 f7 d8             	neg    %rax
    602c:	5d                   	pop    %rbp
    602d:	c3                   	retq   

000000000000602e <safe_add_func_uint64_t_u_u>:
    602e:	f3 0f 1e fa          	endbr64 
    6032:	55                   	push   %rbp
    6033:	48 89 e5             	mov    %rsp,%rbp
    6036:	48 89 7d f8          	mov    %rdi,-0x8(%rbp)
    603a:	48 89 75 f0          	mov    %rsi,-0x10(%rbp)
    603e:	48 8b 55 f8          	mov    -0x8(%rbp),%rdx
    6042:	48 8b 45 f0          	mov    -0x10(%rbp),%rax
    6046:	48 01 d0             	add    %rdx,%rax
    6049:	5d                   	pop    %rbp
    604a:	c3                   	retq   

000000000000604b <safe_sub_func_uint64_t_u_u>:
    604b:	f3 0f 1e fa          	endbr64 
    604f:	55                   	push   %rbp
    6050:	48 89 e5             	mov    %rsp,%rbp
    6053:	48 89 7d f8          	mov    %rdi,-0x8(%rbp)
    6057:	48 89 75 f0          	mov    %rsi,-0x10(%rbp)
    605b:	48 8b 45 f8          	mov    -0x8(%rbp),%rax
    605f:	48 2b 45 f0          	sub    -0x10(%rbp),%rax
    6063:	5d                   	pop    %rbp
    6064:	c3                   	retq   

0000000000006065 <safe_mul_func_uint64_t_u_u>:
    6065:	f3 0f 1e fa          	endbr64 
    6069:	55                   	push   %rbp
    606a:	48 89 e5             	mov    %rsp,%rbp
    606d:	48 89 7d f8          	mov    %rdi,-0x8(%rbp)
    6071:	48 89 75 f0          	mov    %rsi,-0x10(%rbp)
    6075:	48 8b 45 f8          	mov    -0x8(%rbp),%rax
    6079:	48 0f af 45 f0       	imul   -0x10(%rbp),%rax
    607e:	5d                   	pop    %rbp
    607f:	c3                   	retq   

0000000000006080 <safe_mod_func_uint64_t_u_u>:
    6080:	f3 0f 1e fa          	endbr64 
    6084:	55                   	push   %rbp
    6085:	48 89 e5             	mov    %rsp,%rbp
    6088:	48 89 7d f8          	mov    %rdi,-0x8(%rbp)
    608c:	48 89 75 f0          	mov    %rsi,-0x10(%rbp)
    6090:	48 83 7d f0 00       	cmpq   $0x0,-0x10(%rbp)
    6095:	74 12                	je     60a9 <safe_mod_func_uint64_t_u_u+0x29>
    6097:	48 8b 45 f8          	mov    -0x8(%rbp),%rax
    609b:	ba 00 00 00 00       	mov    $0x0,%edx
    60a0:	48 f7 75 f0          	divq   -0x10(%rbp)
    60a4:	48 89 d0             	mov    %rdx,%rax
    60a7:	eb 04                	jmp    60ad <safe_mod_func_uint64_t_u_u+0x2d>
    60a9:	48 8b 45 f8          	mov    -0x8(%rbp),%rax
    60ad:	5d                   	pop    %rbp
    60ae:	c3                   	retq   

00000000000060af <safe_div_func_uint64_t_u_u>:
    60af:	f3 0f 1e fa          	endbr64 
    60b3:	55                   	push   %rbp
    60b4:	48 89 e5             	mov    %rsp,%rbp
    60b7:	48 89 7d f8          	mov    %rdi,-0x8(%rbp)
    60bb:	48 89 75 f0          	mov    %rsi,-0x10(%rbp)
    60bf:	48 83 7d f0 00       	cmpq   $0x0,-0x10(%rbp)
    60c4:	74 0f                	je     60d5 <safe_div_func_uint64_t_u_u+0x26>
    60c6:	48 8b 45 f8          	mov    -0x8(%rbp),%rax
    60ca:	ba 00 00 00 00       	mov    $0x0,%edx
    60cf:	48 f7 75 f0          	divq   -0x10(%rbp)
    60d3:	eb 04                	jmp    60d9 <safe_div_func_uint64_t_u_u+0x2a>
    60d5:	48 8b 45 f8          	mov    -0x8(%rbp),%rax
    60d9:	5d                   	pop    %rbp
    60da:	c3                   	retq   

00000000000060db <safe_lshift_func_uint64_t_u_s>:
    60db:	f3 0f 1e fa          	endbr64 
    60df:	55                   	push   %rbp
    60e0:	48 89 e5             	mov    %rsp,%rbp
    60e3:	48 89 7d f8          	mov    %rdi,-0x8(%rbp)
    60e7:	89 75 f4             	mov    %esi,-0xc(%rbp)
    60ea:	83 7d f4 00          	cmpl   $0x0,-0xc(%rbp)
    60ee:	78 2f                	js     611f <safe_lshift_func_uint64_t_u_s+0x44>
    60f0:	83 7d f4 1f          	cmpl   $0x1f,-0xc(%rbp)
    60f4:	7f 29                	jg     611f <safe_lshift_func_uint64_t_u_s+0x44>
    60f6:	8b 45 f4             	mov    -0xc(%rbp),%eax
    60f9:	48 c7 c2 ff ff ff ff 	mov    $0xffffffffffffffff,%rdx
    6100:	89 c1                	mov    %eax,%ecx
    6102:	48 d3 ea             	shr    %cl,%rdx
    6105:	48 89 d0             	mov    %rdx,%rax
    6108:	48 39 45 f8          	cmp    %rax,-0x8(%rbp)
    610c:	77 11                	ja     611f <safe_lshift_func_uint64_t_u_s+0x44>
    610e:	8b 45 f4             	mov    -0xc(%rbp),%eax
    6111:	48 8b 55 f8          	mov    -0x8(%rbp),%rdx
    6115:	89 c1                	mov    %eax,%ecx
    6117:	48 d3 e2             	shl    %cl,%rdx
    611a:	48 89 d0             	mov    %rdx,%rax
    611d:	eb 04                	jmp    6123 <safe_lshift_func_uint64_t_u_s+0x48>
    611f:	48 8b 45 f8          	mov    -0x8(%rbp),%rax
    6123:	5d                   	pop    %rbp
    6124:	c3                   	retq   

0000000000006125 <safe_lshift_func_uint64_t_u_u>:
    6125:	f3 0f 1e fa          	endbr64 
    6129:	55                   	push   %rbp
    612a:	48 89 e5             	mov    %rsp,%rbp
    612d:	48 89 7d f8          	mov    %rdi,-0x8(%rbp)
    6131:	89 75 f4             	mov    %esi,-0xc(%rbp)
    6134:	83 7d f4 1f          	cmpl   $0x1f,-0xc(%rbp)
    6138:	77 29                	ja     6163 <safe_lshift_func_uint64_t_u_u+0x3e>
    613a:	8b 45 f4             	mov    -0xc(%rbp),%eax
    613d:	48 c7 c2 ff ff ff ff 	mov    $0xffffffffffffffff,%rdx
    6144:	89 c1                	mov    %eax,%ecx
    6146:	48 d3 ea             	shr    %cl,%rdx
    6149:	48 89 d0             	mov    %rdx,%rax
    614c:	48 39 45 f8          	cmp    %rax,-0x8(%rbp)
    6150:	77 11                	ja     6163 <safe_lshift_func_uint64_t_u_u+0x3e>
    6152:	8b 45 f4             	mov    -0xc(%rbp),%eax
    6155:	48 8b 55 f8          	mov    -0x8(%rbp),%rdx
    6159:	89 c1                	mov    %eax,%ecx
    615b:	48 d3 e2             	shl    %cl,%rdx
    615e:	48 89 d0             	mov    %rdx,%rax
    6161:	eb 04                	jmp    6167 <safe_lshift_func_uint64_t_u_u+0x42>
    6163:	48 8b 45 f8          	mov    -0x8(%rbp),%rax
    6167:	5d                   	pop    %rbp
    6168:	c3                   	retq   

0000000000006169 <safe_rshift_func_uint64_t_u_s>:
    6169:	f3 0f 1e fa          	endbr64 
    616d:	55                   	push   %rbp
    616e:	48 89 e5             	mov    %rsp,%rbp
    6171:	48 89 7d f8          	mov    %rdi,-0x8(%rbp)
    6175:	89 75 f4             	mov    %esi,-0xc(%rbp)
    6178:	83 7d f4 00          	cmpl   $0x0,-0xc(%rbp)
    617c:	78 17                	js     6195 <safe_rshift_func_uint64_t_u_s+0x2c>
    617e:	83 7d f4 1f          	cmpl   $0x1f,-0xc(%rbp)
    6182:	7f 11                	jg     6195 <safe_rshift_func_uint64_t_u_s+0x2c>
    6184:	8b 45 f4             	mov    -0xc(%rbp),%eax
    6187:	48 8b 55 f8          	mov    -0x8(%rbp),%rdx
    618b:	89 c1                	mov    %eax,%ecx
    618d:	48 d3 ea             	shr    %cl,%rdx
    6190:	48 89 d0             	mov    %rdx,%rax
    6193:	eb 04                	jmp    6199 <safe_rshift_func_uint64_t_u_s+0x30>
    6195:	48 8b 45 f8          	mov    -0x8(%rbp),%rax
    6199:	5d                   	pop    %rbp
    619a:	c3                   	retq   

000000000000619b <safe_rshift_func_uint64_t_u_u>:
    619b:	f3 0f 1e fa          	endbr64 
    619f:	55                   	push   %rbp
    61a0:	48 89 e5             	mov    %rsp,%rbp
    61a3:	48 89 7d f8          	mov    %rdi,-0x8(%rbp)
    61a7:	89 75 f4             	mov    %esi,-0xc(%rbp)
    61aa:	83 7d f4 1f          	cmpl   $0x1f,-0xc(%rbp)
    61ae:	77 11                	ja     61c1 <safe_rshift_func_uint64_t_u_u+0x26>
    61b0:	8b 45 f4             	mov    -0xc(%rbp),%eax
    61b3:	48 8b 55 f8          	mov    -0x8(%rbp),%rdx
    61b7:	89 c1                	mov    %eax,%ecx
    61b9:	48 d3 ea             	shr    %cl,%rdx
    61bc:	48 89 d0             	mov    %rdx,%rax
    61bf:	eb 04                	jmp    61c5 <safe_rshift_func_uint64_t_u_u+0x2a>
    61c1:	48 8b 45 f8          	mov    -0x8(%rbp),%rax
    61c5:	5d                   	pop    %rbp
    61c6:	c3                   	retq   

00000000000061c7 <safe_add_func_float_f_f>:
    61c7:	f3 0f 1e fa          	endbr64 
    61cb:	55                   	push   %rbp
    61cc:	48 89 e5             	mov    %rsp,%rbp
    61cf:	f3 0f 11 45 fc       	movss  %xmm0,-0x4(%rbp)
    61d4:	f3 0f 11 4d f8       	movss  %xmm1,-0x8(%rbp)
    61d9:	f3 0f 10 4d fc       	movss  -0x4(%rbp),%xmm1
    61de:	f3 0f 10 05 9a 62 01 	movss  0x1629a(%rip),%xmm0        # 1c480 <l_305.5251+0x10>
    61e5:	00 
    61e6:	f3 0f 59 c8          	mulss  %xmm0,%xmm1
    61ea:	f3 0f 10 55 f8       	movss  -0x8(%rbp),%xmm2
    61ef:	f3 0f 10 05 89 62 01 	movss  0x16289(%rip),%xmm0        # 1c480 <l_305.5251+0x10>
    61f6:	00 
    61f7:	f3 0f 59 c2          	mulss  %xmm2,%xmm0
    61fb:	f3 0f 58 c1          	addss  %xmm1,%xmm0
    61ff:	f3 0f 10 0d 89 62 01 	movss  0x16289(%rip),%xmm1        # 1c490 <l_305.5251+0x20>
    6206:	00 
    6207:	0f 54 c1             	andps  %xmm1,%xmm0
    620a:	0f 2f 05 8f 62 01 00 	comiss 0x1628f(%rip),%xmm0        # 1c4a0 <l_305.5251+0x30>
    6211:	76 07                	jbe    621a <safe_add_func_float_f_f+0x53>
    6213:	f3 0f 10 45 fc       	movss  -0x4(%rbp),%xmm0
    6218:	eb 0a                	jmp    6224 <safe_add_func_float_f_f+0x5d>
    621a:	f3 0f 10 45 fc       	movss  -0x4(%rbp),%xmm0
    621f:	f3 0f 58 45 f8       	addss  -0x8(%rbp),%xmm0
    6224:	5d                   	pop    %rbp
    6225:	c3                   	retq   

0000000000006226 <safe_sub_func_float_f_f>:
    6226:	f3 0f 1e fa          	endbr64 
    622a:	55                   	push   %rbp
    622b:	48 89 e5             	mov    %rsp,%rbp
    622e:	f3 0f 11 45 fc       	movss  %xmm0,-0x4(%rbp)
    6233:	f3 0f 11 4d f8       	movss  %xmm1,-0x8(%rbp)
    6238:	f3 0f 10 4d fc       	movss  -0x4(%rbp),%xmm1
    623d:	f3 0f 10 05 3b 62 01 	movss  0x1623b(%rip),%xmm0        # 1c480 <l_305.5251+0x10>
    6244:	00 
    6245:	f3 0f 59 c1          	mulss  %xmm1,%xmm0
    6249:	f3 0f 10 55 f8       	movss  -0x8(%rbp),%xmm2
    624e:	f3 0f 10 0d 2a 62 01 	movss  0x1622a(%rip),%xmm1        # 1c480 <l_305.5251+0x10>
    6255:	00 
    6256:	f3 0f 59 ca          	mulss  %xmm2,%xmm1
    625a:	f3 0f 5c c1          	subss  %xmm1,%xmm0
    625e:	f3 0f 10 0d 2a 62 01 	movss  0x1622a(%rip),%xmm1        # 1c490 <l_305.5251+0x20>
    6265:	00 
    6266:	0f 54 c1             	andps  %xmm1,%xmm0
    6269:	0f 2f 05 30 62 01 00 	comiss 0x16230(%rip),%xmm0        # 1c4a0 <l_305.5251+0x30>
    6270:	76 07                	jbe    6279 <safe_sub_func_float_f_f+0x53>
    6272:	f3 0f 10 45 fc       	movss  -0x4(%rbp),%xmm0
    6277:	eb 0a                	jmp    6283 <safe_sub_func_float_f_f+0x5d>
    6279:	f3 0f 10 45 fc       	movss  -0x4(%rbp),%xmm0
    627e:	f3 0f 5c 45 f8       	subss  -0x8(%rbp),%xmm0
    6283:	5d                   	pop    %rbp
    6284:	c3                   	retq   

0000000000006285 <safe_mul_func_float_f_f>:
    6285:	f3 0f 1e fa          	endbr64 
    6289:	55                   	push   %rbp
    628a:	48 89 e5             	mov    %rsp,%rbp
    628d:	f3 0f 11 45 fc       	movss  %xmm0,-0x4(%rbp)
    6292:	f3 0f 11 4d f8       	movss  %xmm1,-0x8(%rbp)
    6297:	f3 0f 10 4d fc       	movss  -0x4(%rbp),%xmm1
    629c:	f3 0f 10 05 00 62 01 	movss  0x16200(%rip),%xmm0        # 1c4a4 <l_305.5251+0x34>
    62a3:	00 
    62a4:	f3 0f 59 c8          	mulss  %xmm0,%xmm1
    62a8:	f3 0f 10 55 f8       	movss  -0x8(%rbp),%xmm2
    62ad:	f3 0f 10 05 f3 61 01 	movss  0x161f3(%rip),%xmm0        # 1c4a8 <l_305.5251+0x38>
    62b4:	00 
    62b5:	f3 0f 59 c2          	mulss  %xmm2,%xmm0
    62b9:	f3 0f 59 c1          	mulss  %xmm1,%xmm0
    62bd:	f3 0f 10 0d cb 61 01 	movss  0x161cb(%rip),%xmm1        # 1c490 <l_305.5251+0x20>
    62c4:	00 
    62c5:	0f 54 c1             	andps  %xmm1,%xmm0
    62c8:	0f 2f 05 dd 61 01 00 	comiss 0x161dd(%rip),%xmm0        # 1c4ac <l_305.5251+0x3c>
    62cf:	76 07                	jbe    62d8 <safe_mul_func_float_f_f+0x53>
    62d1:	f3 0f 10 45 fc       	movss  -0x4(%rbp),%xmm0
    62d6:	eb 0a                	jmp    62e2 <safe_mul_func_float_f_f+0x5d>
    62d8:	f3 0f 10 45 fc       	movss  -0x4(%rbp),%xmm0
    62dd:	f3 0f 59 45 f8       	mulss  -0x8(%rbp),%xmm0
    62e2:	5d                   	pop    %rbp
    62e3:	c3                   	retq   

00000000000062e4 <safe_div_func_float_f_f>:
    62e4:	f3 0f 1e fa          	endbr64 
    62e8:	55                   	push   %rbp
    62e9:	48 89 e5             	mov    %rsp,%rbp
    62ec:	f3 0f 11 45 fc       	movss  %xmm0,-0x4(%rbp)
    62f1:	f3 0f 11 4d f8       	movss  %xmm1,-0x8(%rbp)
    62f6:	f3 0f 10 45 f8       	movss  -0x8(%rbp),%xmm0
    62fb:	f3 0f 10 0d 8d 61 01 	movss  0x1618d(%rip),%xmm1        # 1c490 <l_305.5251+0x20>
    6302:	00 
    6303:	0f 54 c8             	andps  %xmm0,%xmm1
    6306:	f3 0f 10 05 a2 61 01 	movss  0x161a2(%rip),%xmm0        # 1c4b0 <l_305.5251+0x40>
    630d:	00 
    630e:	0f 2f c1             	comiss %xmm1,%xmm0
    6311:	0f 97 c0             	seta   %al
    6314:	83 f0 01             	xor    $0x1,%eax
    6317:	84 c0                	test   %al,%al
    6319:	75 56                	jne    6371 <safe_div_func_float_f_f+0x8d>
    631b:	66 0f ef c0          	pxor   %xmm0,%xmm0
    631f:	0f 2e 45 f8          	ucomiss -0x8(%rbp),%xmm0
    6323:	7a 0a                	jp     632f <safe_div_func_float_f_f+0x4b>
    6325:	66 0f ef c0          	pxor   %xmm0,%xmm0
    6329:	0f 2e 45 f8          	ucomiss -0x8(%rbp),%xmm0
    632d:	74 4e                	je     637d <safe_div_func_float_f_f+0x99>
    632f:	f3 0f 10 4d fc       	movss  -0x4(%rbp),%xmm1
    6334:	f3 0f 10 05 78 61 01 	movss  0x16178(%rip),%xmm0        # 1c4b4 <l_305.5251+0x44>
    633b:	00 
    633c:	f3 0f 59 c1          	mulss  %xmm1,%xmm0
    6340:	f3 0f 10 55 f8       	movss  -0x8(%rbp),%xmm2
    6345:	f3 0f 10 0d 6b 61 01 	movss  0x1616b(%rip),%xmm1        # 1c4b8 <l_305.5251+0x48>
    634c:	00 
    634d:	f3 0f 59 ca          	mulss  %xmm2,%xmm1
    6351:	f3 0f 5e c1          	divss  %xmm1,%xmm0
    6355:	f3 0f 10 0d 33 61 01 	movss  0x16133(%rip),%xmm1        # 1c490 <l_305.5251+0x20>
    635c:	00 
    635d:	0f 54 c1             	andps  %xmm1,%xmm0
    6360:	0f 2f 05 55 61 01 00 	comiss 0x16155(%rip),%xmm0        # 1c4bc <l_305.5251+0x4c>
    6367:	0f 97 c0             	seta   %al
    636a:	83 f0 01             	xor    $0x1,%eax
    636d:	84 c0                	test   %al,%al
    636f:	74 0c                	je     637d <safe_div_func_float_f_f+0x99>
    6371:	f3 0f 10 45 fc       	movss  -0x4(%rbp),%xmm0
    6376:	f3 0f 5e 45 f8       	divss  -0x8(%rbp),%xmm0
    637b:	eb 05                	jmp    6382 <safe_div_func_float_f_f+0x9e>
    637d:	f3 0f 10 45 fc       	movss  -0x4(%rbp),%xmm0
    6382:	5d                   	pop    %rbp
    6383:	c3                   	retq   

0000000000006384 <safe_add_func_double_f_f>:
    6384:	f3 0f 1e fa          	endbr64 
    6388:	55                   	push   %rbp
    6389:	48 89 e5             	mov    %rsp,%rbp
    638c:	f2 0f 11 45 f8       	movsd  %xmm0,-0x8(%rbp)
    6391:	f2 0f 11 4d f0       	movsd  %xmm1,-0x10(%rbp)
    6396:	f2 0f 10 4d f8       	movsd  -0x8(%rbp),%xmm1
    639b:	f2 0f 10 05 1d 61 01 	movsd  0x1611d(%rip),%xmm0        # 1c4c0 <l_305.5251+0x50>
    63a2:	00 
    63a3:	f2 0f 59 c8          	mulsd  %xmm0,%xmm1
    63a7:	f2 0f 10 55 f0       	movsd  -0x10(%rbp),%xmm2
    63ac:	f2 0f 10 05 0c 61 01 	movsd  0x1610c(%rip),%xmm0        # 1c4c0 <l_305.5251+0x50>
    63b3:	00 
    63b4:	f2 0f 59 c2          	mulsd  %xmm2,%xmm0
    63b8:	f2 0f 58 c1          	addsd  %xmm1,%xmm0
    63bc:	f3 0f 7e 0d 0c 61 01 	movq   0x1610c(%rip),%xmm1        # 1c4d0 <l_305.5251+0x60>
    63c3:	00 
    63c4:	66 0f 54 c1          	andpd  %xmm1,%xmm0
    63c8:	66 0f 2f 05 10 61 01 	comisd 0x16110(%rip),%xmm0        # 1c4e0 <l_305.5251+0x70>
    63cf:	00 
    63d0:	76 07                	jbe    63d9 <safe_add_func_double_f_f+0x55>
    63d2:	f2 0f 10 45 f8       	movsd  -0x8(%rbp),%xmm0
    63d7:	eb 0a                	jmp    63e3 <safe_add_func_double_f_f+0x5f>
    63d9:	f2 0f 10 45 f8       	movsd  -0x8(%rbp),%xmm0
    63de:	f2 0f 58 45 f0       	addsd  -0x10(%rbp),%xmm0
    63e3:	5d                   	pop    %rbp
    63e4:	c3                   	retq   

00000000000063e5 <safe_sub_func_double_f_f>:
    63e5:	f3 0f 1e fa          	endbr64 
    63e9:	55                   	push   %rbp
    63ea:	48 89 e5             	mov    %rsp,%rbp
    63ed:	f2 0f 11 45 f8       	movsd  %xmm0,-0x8(%rbp)
    63f2:	f2 0f 11 4d f0       	movsd  %xmm1,-0x10(%rbp)
    63f7:	f2 0f 10 4d f8       	movsd  -0x8(%rbp),%xmm1
    63fc:	f2 0f 10 05 bc 60 01 	movsd  0x160bc(%rip),%xmm0        # 1c4c0 <l_305.5251+0x50>
    6403:	00 
    6404:	f2 0f 59 c1          	mulsd  %xmm1,%xmm0
    6408:	f2 0f 10 55 f0       	movsd  -0x10(%rbp),%xmm2
    640d:	f2 0f 10 0d ab 60 01 	movsd  0x160ab(%rip),%xmm1        # 1c4c0 <l_305.5251+0x50>
    6414:	00 
    6415:	f2 0f 59 ca          	mulsd  %xmm2,%xmm1
    6419:	f2 0f 5c c1          	subsd  %xmm1,%xmm0
    641d:	f3 0f 7e 0d ab 60 01 	movq   0x160ab(%rip),%xmm1        # 1c4d0 <l_305.5251+0x60>
    6424:	00 
    6425:	66 0f 54 c1          	andpd  %xmm1,%xmm0
    6429:	66 0f 2f 05 af 60 01 	comisd 0x160af(%rip),%xmm0        # 1c4e0 <l_305.5251+0x70>
    6430:	00 
    6431:	76 07                	jbe    643a <safe_sub_func_double_f_f+0x55>
    6433:	f2 0f 10 45 f8       	movsd  -0x8(%rbp),%xmm0
    6438:	eb 0a                	jmp    6444 <safe_sub_func_double_f_f+0x5f>
    643a:	f2 0f 10 45 f8       	movsd  -0x8(%rbp),%xmm0
    643f:	f2 0f 5c 45 f0       	subsd  -0x10(%rbp),%xmm0
    6444:	5d                   	pop    %rbp
    6445:	c3                   	retq   

0000000000006446 <safe_mul_func_double_f_f>:
    6446:	f3 0f 1e fa          	endbr64 
    644a:	55                   	push   %rbp
    644b:	48 89 e5             	mov    %rsp,%rbp
    644e:	f2 0f 11 45 f8       	movsd  %xmm0,-0x8(%rbp)
    6453:	f2 0f 11 4d f0       	movsd  %xmm1,-0x10(%rbp)
    6458:	f2 0f 10 4d f8       	movsd  -0x8(%rbp),%xmm1
    645d:	f2 0f 10 05 83 60 01 	movsd  0x16083(%rip),%xmm0        # 1c4e8 <l_305.5251+0x78>
    6464:	00 
    6465:	f2 0f 59 c8          	mulsd  %xmm0,%xmm1
    6469:	f2 0f 10 55 f0       	movsd  -0x10(%rbp),%xmm2
    646e:	f2 0f 10 05 7a 60 01 	movsd  0x1607a(%rip),%xmm0        # 1c4f0 <l_305.5251+0x80>
    6475:	00 
    6476:	f2 0f 59 c2          	mulsd  %xmm2,%xmm0
    647a:	f2 0f 59 c1          	mulsd  %xmm1,%xmm0
    647e:	f3 0f 7e 0d 4a 60 01 	movq   0x1604a(%rip),%xmm1        # 1c4d0 <l_305.5251+0x60>
    6485:	00 
    6486:	66 0f 54 c1          	andpd  %xmm1,%xmm0
    648a:	66 0f 2f 05 66 60 01 	comisd 0x16066(%rip),%xmm0        # 1c4f8 <l_305.5251+0x88>
    6491:	00 
    6492:	76 07                	jbe    649b <safe_mul_func_double_f_f+0x55>
    6494:	f2 0f 10 45 f8       	movsd  -0x8(%rbp),%xmm0
    6499:	eb 0a                	jmp    64a5 <safe_mul_func_double_f_f+0x5f>
    649b:	f2 0f 10 45 f8       	movsd  -0x8(%rbp),%xmm0
    64a0:	f2 0f 59 45 f0       	mulsd  -0x10(%rbp),%xmm0
    64a5:	5d                   	pop    %rbp
    64a6:	c3                   	retq   

00000000000064a7 <safe_div_func_double_f_f>:
    64a7:	f3 0f 1e fa          	endbr64 
    64ab:	55                   	push   %rbp
    64ac:	48 89 e5             	mov    %rsp,%rbp
    64af:	f2 0f 11 45 f8       	movsd  %xmm0,-0x8(%rbp)
    64b4:	f2 0f 11 4d f0       	movsd  %xmm1,-0x10(%rbp)
    64b9:	f2 0f 10 45 f0       	movsd  -0x10(%rbp),%xmm0
    64be:	f3 0f 7e 0d 0a 60 01 	movq   0x1600a(%rip),%xmm1        # 1c4d0 <l_305.5251+0x60>
    64c5:	00 
    64c6:	66 0f 54 c8          	andpd  %xmm0,%xmm1
    64ca:	f2 0f 10 05 2e 60 01 	movsd  0x1602e(%rip),%xmm0        # 1c500 <l_305.5251+0x90>
    64d1:	00 
    64d2:	66 0f 2f c1          	comisd %xmm1,%xmm0
    64d6:	0f 97 c0             	seta   %al
    64d9:	83 f0 01             	xor    $0x1,%eax
    64dc:	84 c0                	test   %al,%al
    64de:	75 5a                	jne    653a <safe_div_func_double_f_f+0x93>
    64e0:	66 0f ef c0          	pxor   %xmm0,%xmm0
    64e4:	66 0f 2e 45 f0       	ucomisd -0x10(%rbp),%xmm0
    64e9:	7a 0b                	jp     64f6 <safe_div_func_double_f_f+0x4f>
    64eb:	66 0f ef c0          	pxor   %xmm0,%xmm0
    64ef:	66 0f 2e 45 f0       	ucomisd -0x10(%rbp),%xmm0
    64f4:	74 50                	je     6546 <safe_div_func_double_f_f+0x9f>
    64f6:	f2 0f 10 4d f8       	movsd  -0x8(%rbp),%xmm1
    64fb:	f2 0f 10 05 05 60 01 	movsd  0x16005(%rip),%xmm0        # 1c508 <l_305.5251+0x98>
    6502:	00 
    6503:	f2 0f 59 c1          	mulsd  %xmm1,%xmm0
    6507:	f2 0f 10 55 f0       	movsd  -0x10(%rbp),%xmm2
    650c:	f2 0f 10 0d fc 5f 01 	movsd  0x15ffc(%rip),%xmm1        # 1c510 <l_305.5251+0xa0>
    6513:	00 
    6514:	f2 0f 59 ca          	mulsd  %xmm2,%xmm1
    6518:	f2 0f 5e c1          	divsd  %xmm1,%xmm0
    651c:	f3 0f 7e 0d ac 5f 01 	movq   0x15fac(%rip),%xmm1        # 1c4d0 <l_305.5251+0x60>
    6523:	00 
    6524:	66 0f 54 c1          	andpd  %xmm1,%xmm0
    6528:	66 0f 2f 05 e8 5f 01 	comisd 0x15fe8(%rip),%xmm0        # 1c518 <l_305.5251+0xa8>
    652f:	00 
    6530:	0f 97 c0             	seta   %al
    6533:	83 f0 01             	xor    $0x1,%eax
    6536:	84 c0                	test   %al,%al
    6538:	74 0c                	je     6546 <safe_div_func_double_f_f+0x9f>
    653a:	f2 0f 10 45 f8       	movsd  -0x8(%rbp),%xmm0
    653f:	f2 0f 5e 45 f0       	divsd  -0x10(%rbp),%xmm0
    6544:	eb 05                	jmp    654b <safe_div_func_double_f_f+0xa4>
    6546:	f2 0f 10 45 f8       	movsd  -0x8(%rbp),%xmm0
    654b:	5d                   	pop    %rbp
    654c:	c3                   	retq   

000000000000654d <safe_convert_func_float_to_int32_t>:
    654d:	f3 0f 1e fa          	endbr64 
    6551:	55                   	push   %rbp
    6552:	48 89 e5             	mov    %rsp,%rbp
    6555:	f3 0f 11 45 fc       	movss  %xmm0,-0x4(%rbp)
    655a:	f3 0f 10 05 be 5f 01 	movss  0x15fbe(%rip),%xmm0        # 1c520 <l_305.5251+0xb0>
    6561:	00 
    6562:	0f 2f 45 fc          	comiss -0x4(%rbp),%xmm0
    6566:	0f 93 c0             	setae  %al
    6569:	83 f0 01             	xor    $0x1,%eax
    656c:	84 c0                	test   %al,%al
    656e:	74 21                	je     6591 <safe_convert_func_float_to_int32_t+0x44>
    6570:	f3 0f 10 45 fc       	movss  -0x4(%rbp),%xmm0
    6575:	0f 2f 05 a8 5f 01 00 	comiss 0x15fa8(%rip),%xmm0        # 1c524 <l_305.5251+0xb4>
    657c:	0f 93 c0             	setae  %al
    657f:	83 f0 01             	xor    $0x1,%eax
    6582:	84 c0                	test   %al,%al
    6584:	74 0b                	je     6591 <safe_convert_func_float_to_int32_t+0x44>
    6586:	f3 0f 10 45 fc       	movss  -0x4(%rbp),%xmm0
    658b:	f3 0f 2c c0          	cvttss2si %xmm0,%eax
    658f:	eb 05                	jmp    6596 <safe_convert_func_float_to_int32_t+0x49>
    6591:	b8 ff ff ff 7f       	mov    $0x7fffffff,%eax
    6596:	5d                   	pop    %rbp
    6597:	c3                   	retq   

0000000000006598 <crc32_gentab>:
    6598:	f3 0f 1e fa          	endbr64 
    659c:	55                   	push   %rbp
    659d:	48 89 e5             	mov    %rsp,%rbp
    65a0:	c7 45 fc 20 83 b8 ed 	movl   $0xedb88320,-0x4(%rbp)
    65a7:	c7 45 f4 00 00 00 00 	movl   $0x0,-0xc(%rbp)
    65ae:	eb 51                	jmp    6601 <crc32_gentab+0x69>
    65b0:	8b 45 f4             	mov    -0xc(%rbp),%eax
    65b3:	89 45 f0             	mov    %eax,-0x10(%rbp)
    65b6:	c7 45 f8 08 00 00 00 	movl   $0x8,-0x8(%rbp)
    65bd:	eb 1e                	jmp    65dd <crc32_gentab+0x45>
    65bf:	8b 45 f0             	mov    -0x10(%rbp),%eax
    65c2:	83 e0 01             	and    $0x1,%eax
    65c5:	85 c0                	test   %eax,%eax
    65c7:	74 0d                	je     65d6 <crc32_gentab+0x3e>
    65c9:	8b 45 f0             	mov    -0x10(%rbp),%eax
    65cc:	d1 e8                	shr    %eax
    65ce:	33 45 fc             	xor    -0x4(%rbp),%eax
    65d1:	89 45 f0             	mov    %eax,-0x10(%rbp)
    65d4:	eb 03                	jmp    65d9 <crc32_gentab+0x41>
    65d6:	d1 6d f0             	shrl   -0x10(%rbp)
    65d9:	83 6d f8 01          	subl   $0x1,-0x8(%rbp)
    65dd:	83 7d f8 00          	cmpl   $0x0,-0x8(%rbp)
    65e1:	7f dc                	jg     65bf <crc32_gentab+0x27>
    65e3:	8b 45 f4             	mov    -0xc(%rbp),%eax
    65e6:	48 98                	cltq   
    65e8:	48 8d 0c 85 00 00 00 	lea    0x0(,%rax,4),%rcx
    65ef:	00 
    65f0:	48 8d 15 49 ba 01 00 	lea    0x1ba49(%rip),%rdx        # 22040 <crc32_tab>
    65f7:	8b 45 f0             	mov    -0x10(%rbp),%eax
    65fa:	89 04 11             	mov    %eax,(%rcx,%rdx,1)
    65fd:	83 45 f4 01          	addl   $0x1,-0xc(%rbp)
    6601:	81 7d f4 ff 00 00 00 	cmpl   $0xff,-0xc(%rbp)
    6608:	7e a6                	jle    65b0 <crc32_gentab+0x18>
    660a:	90                   	nop
    660b:	90                   	nop
    660c:	5d                   	pop    %rbp
    660d:	c3                   	retq   

000000000000660e <crc32_byte>:
    660e:	f3 0f 1e fa          	endbr64 
    6612:	55                   	push   %rbp
    6613:	48 89 e5             	mov    %rsp,%rbp
    6616:	89 f8                	mov    %edi,%eax
    6618:	88 45 fc             	mov    %al,-0x4(%rbp)
    661b:	8b 05 ff 89 01 00    	mov    0x189ff(%rip),%eax        # 1f020 <crc32_context>
    6621:	c1 e8 08             	shr    $0x8,%eax
    6624:	89 c1                	mov    %eax,%ecx
    6626:	0f b6 55 fc          	movzbl -0x4(%rbp),%edx
    662a:	8b 05 f0 89 01 00    	mov    0x189f0(%rip),%eax        # 1f020 <crc32_context>
    6630:	31 d0                	xor    %edx,%eax
    6632:	0f b6 c0             	movzbl %al,%eax
    6635:	89 c0                	mov    %eax,%eax
    6637:	48 8d 14 85 00 00 00 	lea    0x0(,%rax,4),%rdx
    663e:	00 
    663f:	48 8d 05 fa b9 01 00 	lea    0x1b9fa(%rip),%rax        # 22040 <crc32_tab>
    6646:	8b 04 02             	mov    (%rdx,%rax,1),%eax
    6649:	31 c8                	xor    %ecx,%eax
    664b:	89 05 cf 89 01 00    	mov    %eax,0x189cf(%rip)        # 1f020 <crc32_context>
    6651:	90                   	nop
    6652:	5d                   	pop    %rbp
    6653:	c3                   	retq   

0000000000006654 <crc32_8bytes>:
    6654:	f3 0f 1e fa          	endbr64 
    6658:	55                   	push   %rbp
    6659:	48 89 e5             	mov    %rsp,%rbp
    665c:	48 83 ec 08          	sub    $0x8,%rsp
    6660:	48 89 7d f8          	mov    %rdi,-0x8(%rbp)
    6664:	48 8b 45 f8          	mov    -0x8(%rbp),%rax
    6668:	0f b6 c0             	movzbl %al,%eax
    666b:	89 c7                	mov    %eax,%edi
    666d:	e8 9c ff ff ff       	callq  660e <crc32_byte>
    6672:	48 8b 45 f8          	mov    -0x8(%rbp),%rax
    6676:	48 c1 e8 08          	shr    $0x8,%rax
    667a:	0f b6 c0             	movzbl %al,%eax
    667d:	89 c7                	mov    %eax,%edi
    667f:	e8 8a ff ff ff       	callq  660e <crc32_byte>
    6684:	48 8b 45 f8          	mov    -0x8(%rbp),%rax
    6688:	48 c1 e8 10          	shr    $0x10,%rax
    668c:	0f b6 c0             	movzbl %al,%eax
    668f:	89 c7                	mov    %eax,%edi
    6691:	e8 78 ff ff ff       	callq  660e <crc32_byte>
    6696:	48 8b 45 f8          	mov    -0x8(%rbp),%rax
    669a:	48 c1 e8 18          	shr    $0x18,%rax
    669e:	0f b6 c0             	movzbl %al,%eax
    66a1:	89 c7                	mov    %eax,%edi
    66a3:	e8 66 ff ff ff       	callq  660e <crc32_byte>
    66a8:	48 8b 45 f8          	mov    -0x8(%rbp),%rax
    66ac:	48 c1 e8 20          	shr    $0x20,%rax
    66b0:	0f b6 c0             	movzbl %al,%eax
    66b3:	89 c7                	mov    %eax,%edi
    66b5:	e8 54 ff ff ff       	callq  660e <crc32_byte>
    66ba:	48 8b 45 f8          	mov    -0x8(%rbp),%rax
    66be:	48 c1 e8 28          	shr    $0x28,%rax
    66c2:	0f b6 c0             	movzbl %al,%eax
    66c5:	89 c7                	mov    %eax,%edi
    66c7:	e8 42 ff ff ff       	callq  660e <crc32_byte>
    66cc:	48 8b 45 f8          	mov    -0x8(%rbp),%rax
    66d0:	48 c1 e8 30          	shr    $0x30,%rax
    66d4:	0f b6 c0             	movzbl %al,%eax
    66d7:	89 c7                	mov    %eax,%edi
    66d9:	e8 30 ff ff ff       	callq  660e <crc32_byte>
    66de:	48 8b 45 f8          	mov    -0x8(%rbp),%rax
    66e2:	48 c1 e8 38          	shr    $0x38,%rax
    66e6:	0f b6 c0             	movzbl %al,%eax
    66e9:	89 c7                	mov    %eax,%edi
    66eb:	e8 1e ff ff ff       	callq  660e <crc32_byte>
    66f0:	90                   	nop
    66f1:	c9                   	leaveq 
    66f2:	c3                   	retq   

00000000000066f3 <transparent_crc>:
    66f3:	f3 0f 1e fa          	endbr64 
    66f7:	55                   	push   %rbp
    66f8:	48 89 e5             	mov    %rsp,%rbp
    66fb:	48 83 ec 20          	sub    $0x20,%rsp
    66ff:	48 89 7d f8          	mov    %rdi,-0x8(%rbp)
    6703:	48 89 75 f0          	mov    %rsi,-0x10(%rbp)
    6707:	89 55 ec             	mov    %edx,-0x14(%rbp)
    670a:	48 8b 45 f8          	mov    -0x8(%rbp),%rax
    670e:	48 89 c7             	mov    %rax,%rdi
    6711:	e8 3e ff ff ff       	callq  6654 <crc32_8bytes>
    6716:	83 7d ec 00          	cmpl   $0x0,-0x14(%rbp)
    671a:	74 22                	je     673e <transparent_crc+0x4b>
    671c:	8b 05 fe 88 01 00    	mov    0x188fe(%rip),%eax        # 1f020 <crc32_context>
    6722:	f7 d0                	not    %eax
    6724:	89 c2                	mov    %eax,%edx
    6726:	48 8b 45 f0          	mov    -0x10(%rbp),%rax
    672a:	48 89 c6             	mov    %rax,%rsi
    672d:	48 8d 3d fc 28 01 00 	lea    0x128fc(%rip),%rdi        # 19030 <_IO_stdin_used+0x30>
    6734:	b8 00 00 00 00       	mov    $0x0,%eax
    6739:	e8 42 e9 ff ff       	callq  5080 <printf@plt>
    673e:	90                   	nop
    673f:	c9                   	leaveq 
    6740:	c3                   	retq   

0000000000006741 <transparent_crc_bytes>:
    6741:	f3 0f 1e fa          	endbr64 
    6745:	55                   	push   %rbp
    6746:	48 89 e5             	mov    %rsp,%rbp
    6749:	48 83 ec 30          	sub    $0x30,%rsp
    674d:	48 89 7d e8          	mov    %rdi,-0x18(%rbp)
    6751:	89 75 e4             	mov    %esi,-0x1c(%rbp)
    6754:	48 89 55 d8          	mov    %rdx,-0x28(%rbp)
    6758:	89 4d e0             	mov    %ecx,-0x20(%rbp)
    675b:	c7 45 fc 00 00 00 00 	movl   $0x0,-0x4(%rbp)
    6762:	eb 1e                	jmp    6782 <transparent_crc_bytes+0x41>
    6764:	8b 45 fc             	mov    -0x4(%rbp),%eax
    6767:	48 63 d0             	movslq %eax,%rdx
    676a:	48 8b 45 e8          	mov    -0x18(%rbp),%rax
    676e:	48 01 d0             	add    %rdx,%rax
    6771:	0f b6 00             	movzbl (%rax),%eax
    6774:	0f b6 c0             	movzbl %al,%eax
    6777:	89 c7                	mov    %eax,%edi
    6779:	e8 90 fe ff ff       	callq  660e <crc32_byte>
    677e:	83 45 fc 01          	addl   $0x1,-0x4(%rbp)
    6782:	8b 45 fc             	mov    -0x4(%rbp),%eax
    6785:	3b 45 e4             	cmp    -0x1c(%rbp),%eax
    6788:	7c da                	jl     6764 <transparent_crc_bytes+0x23>
    678a:	83 7d e0 00          	cmpl   $0x0,-0x20(%rbp)
    678e:	74 22                	je     67b2 <transparent_crc_bytes+0x71>
    6790:	8b 05 8a 88 01 00    	mov    0x1888a(%rip),%eax        # 1f020 <crc32_context>
    6796:	f7 d0                	not    %eax
    6798:	89 c2                	mov    %eax,%edx
    679a:	48 8b 45 d8          	mov    -0x28(%rbp),%rax
    679e:	48 89 c6             	mov    %rax,%rsi
    67a1:	48 8d 3d 88 28 01 00 	lea    0x12888(%rip),%rdi        # 19030 <_IO_stdin_used+0x30>
    67a8:	b8 00 00 00 00       	mov    $0x0,%eax
    67ad:	e8 ce e8 ff ff       	callq  5080 <printf@plt>
    67b2:	90                   	nop
    67b3:	c9                   	leaveq 
    67b4:	c3                   	retq   

00000000000067b5 <func_1>:
    67b5:	f3 0f 1e fa          	endbr64 
    67b9:	55                   	push   %rbp
    67ba:	48 89 e5             	mov    %rsp,%rbp
    67bd:	48 81 ec c0 01 00 00 	sub    $0x1c0,%rsp
    67c4:	64 48 8b 04 25 28 00 	mov    %fs:0x28,%rax
    67cb:	00 00 
    67cd:	48 89 45 f8          	mov    %rax,-0x8(%rbp)
    67d1:	31 c0                	xor    %eax,%eax
    67d3:	48 8d 05 e0 96 01 00 	lea    0x196e0(%rip),%rax        # 1feba <g_721+0x2>
    67da:	48 89 85 70 fe ff ff 	mov    %rax,-0x190(%rbp)
    67e1:	c7 85 4c fe ff ff 00 	movl   $0x0,-0x1b4(%rbp)
    67e8:	00 00 00 
    67eb:	c7 85 5c fe ff ff 00 	movl   $0x0,-0x1a4(%rbp)
    67f2:	00 00 00 
    67f5:	c7 85 60 fe ff ff ee 	movl   $0x5c6936ee,-0x1a0(%rbp)
    67fc:	36 69 5c 
    67ff:	c7 85 50 fe ff ff ba 	movl   $0xf3b0a6ba,-0x1b0(%rbp)
    6806:	a6 b0 f3 
    6809:	c7 85 30 ff ff ff ff 	movl   $0xffffffff,-0xd0(%rbp)
    6810:	ff ff ff 
    6813:	c7 85 34 ff ff ff b6 	movl   $0x28a7deb6,-0xcc(%rbp)
    681a:	de a7 28 
    681d:	c7 85 38 ff ff ff b6 	movl   $0x28a7deb6,-0xc8(%rbp)
    6824:	de a7 28 
    6827:	c7 85 3c ff ff ff ff 	movl   $0xffffffff,-0xc4(%rbp)
    682e:	ff ff ff 
    6831:	c7 85 40 ff ff ff 00 	movl   $0x0,-0xc0(%rbp)
    6838:	00 00 00 
    683b:	c7 85 44 ff ff ff a4 	movl   $0xe3e596a4,-0xbc(%rbp)
    6842:	96 e5 e3 
    6845:	c7 85 48 ff ff ff 00 	movl   $0x0,-0xb8(%rbp)
    684c:	00 00 00 
    684f:	c7 85 4c ff ff ff 00 	movl   $0x0,-0xb4(%rbp)
    6856:	00 00 00 
    6859:	c7 85 50 ff ff ff bf 	movl   $0x263f48bf,-0xb0(%rbp)
    6860:	48 3f 26 
    6863:	c7 85 54 ff ff ff bf 	movl   $0x263f48bf,-0xac(%rbp)
    686a:	48 3f 26 
    686d:	c7 85 58 ff ff ff 00 	movl   $0x0,-0xa8(%rbp)
    6874:	00 00 00 
    6877:	c7 85 5c ff ff ff ff 	movl   $0xffffffff,-0xa4(%rbp)
    687e:	ff ff ff 
    6881:	c7 85 60 ff ff ff 00 	movl   $0x0,-0xa0(%rbp)
    6888:	00 00 00 
    688b:	c7 85 64 ff ff ff ff 	movl   $0xffffffff,-0x9c(%rbp)
    6892:	ff ff ff 
    6895:	c7 85 68 ff ff ff ff 	movl   $0xffffffff,-0x98(%rbp)
    689c:	ff ff ff 
    689f:	c7 85 6c ff ff ff b6 	movl   $0x28a7deb6,-0x94(%rbp)
    68a6:	de a7 28 
    68a9:	c7 85 70 ff ff ff b6 	movl   $0x28a7deb6,-0x90(%rbp)
    68b0:	de a7 28 
    68b3:	c7 85 74 ff ff ff ff 	movl   $0xffffffff,-0x8c(%rbp)
    68ba:	ff ff ff 
    68bd:	c7 85 78 ff ff ff 00 	movl   $0x0,-0x88(%rbp)
    68c4:	00 00 00 
    68c7:	c7 85 7c ff ff ff a4 	movl   $0xe3e596a4,-0x84(%rbp)
    68ce:	96 e5 e3 
    68d1:	c7 45 80 00 00 00 00 	movl   $0x0,-0x80(%rbp)
    68d8:	c7 45 84 00 00 00 00 	movl   $0x0,-0x7c(%rbp)
    68df:	c7 45 88 bf 48 3f 26 	movl   $0x263f48bf,-0x78(%rbp)
    68e6:	c7 45 8c bf 48 3f 26 	movl   $0x263f48bf,-0x74(%rbp)
    68ed:	c7 45 90 00 00 00 00 	movl   $0x0,-0x70(%rbp)
    68f4:	c7 45 94 ff ff ff ff 	movl   $0xffffffff,-0x6c(%rbp)
    68fb:	c7 45 98 00 00 00 00 	movl   $0x0,-0x68(%rbp)
    6902:	c7 45 9c ff ff ff ff 	movl   $0xffffffff,-0x64(%rbp)
    6909:	c7 45 a0 ff ff ff ff 	movl   $0xffffffff,-0x60(%rbp)
    6910:	c7 45 a4 b6 de a7 28 	movl   $0x28a7deb6,-0x5c(%rbp)
    6917:	c7 45 a8 b6 de a7 28 	movl   $0x28a7deb6,-0x58(%rbp)
    691e:	c7 45 ac ff ff ff ff 	movl   $0xffffffff,-0x54(%rbp)
    6925:	c7 45 b0 00 00 00 00 	movl   $0x0,-0x50(%rbp)
    692c:	c7 45 b4 a4 96 e5 e3 	movl   $0xe3e596a4,-0x4c(%rbp)
    6933:	c7 45 b8 00 00 00 00 	movl   $0x0,-0x48(%rbp)
    693a:	c7 45 bc 00 00 00 00 	movl   $0x0,-0x44(%rbp)
    6941:	c7 45 c0 bf 48 3f 26 	movl   $0x263f48bf,-0x40(%rbp)
    6948:	c7 45 c4 bf 48 3f 26 	movl   $0x263f48bf,-0x3c(%rbp)
    694f:	c7 45 c8 00 00 00 00 	movl   $0x0,-0x38(%rbp)
    6956:	c7 45 cc ff ff ff ff 	movl   $0xffffffff,-0x34(%rbp)
    695d:	c7 45 d0 00 00 00 00 	movl   $0x0,-0x30(%rbp)
    6964:	c7 45 d4 ff ff ff ff 	movl   $0xffffffff,-0x2c(%rbp)
    696b:	c7 45 d8 ff ff ff ff 	movl   $0xffffffff,-0x28(%rbp)
    6972:	c7 45 dc b6 de a7 28 	movl   $0x28a7deb6,-0x24(%rbp)
    6979:	c7 45 e0 b6 de a7 28 	movl   $0x28a7deb6,-0x20(%rbp)
    6980:	c7 45 e4 ff ff ff ff 	movl   $0xffffffff,-0x1c(%rbp)
    6987:	c7 45 e8 00 00 00 00 	movl   $0x0,-0x18(%rbp)
    698e:	c7 45 ec a4 96 e5 e3 	movl   $0xe3e596a4,-0x14(%rbp)
    6995:	c7 45 f0 47 d0 7f 26 	movl   $0x267fd047,-0x10(%rbp)
    699c:	48 8d 85 4c fe ff ff 	lea    -0x1b4(%rbp),%rax
    69a3:	48 89 85 78 fe ff ff 	mov    %rax,-0x188(%rbp)
    69aa:	48 8d 85 50 fe ff ff 	lea    -0x1b0(%rbp),%rax
    69b1:	48 89 85 80 fe ff ff 	mov    %rax,-0x180(%rbp)
    69b8:	48 8d 05 f9 8a 01 00 	lea    0x18af9(%rip),%rax        # 1f4b8 <g_107>
    69bf:	48 89 85 88 fe ff ff 	mov    %rax,-0x178(%rbp)
    69c6:	48 8d 05 eb 8a 01 00 	lea    0x18aeb(%rip),%rax        # 1f4b8 <g_107>
    69cd:	48 89 85 f0 fe ff ff 	mov    %rax,-0x110(%rbp)
    69d4:	48 8d 85 30 ff ff ff 	lea    -0xd0(%rbp),%rax
    69db:	48 05 88 00 00 00    	add    $0x88,%rax
    69e1:	48 89 85 f8 fe ff ff 	mov    %rax,-0x108(%rbp)
    69e8:	48 8d 05 c9 8a 01 00 	lea    0x18ac9(%rip),%rax        # 1f4b8 <g_107>
    69ef:	48 89 85 00 ff ff ff 	mov    %rax,-0x100(%rbp)
    69f6:	48 8d 85 30 ff ff ff 	lea    -0xd0(%rbp),%rax
    69fd:	48 05 88 00 00 00    	add    $0x88,%rax
    6a03:	48 89 85 08 ff ff ff 	mov    %rax,-0xf8(%rbp)
    6a0a:	48 8d 05 a7 8a 01 00 	lea    0x18aa7(%rip),%rax        # 1f4b8 <g_107>
    6a11:	48 89 85 10 ff ff ff 	mov    %rax,-0xf0(%rbp)
    6a18:	48 8d 85 30 ff ff ff 	lea    -0xd0(%rbp),%rax
    6a1f:	48 05 88 00 00 00    	add    $0x88,%rax
    6a25:	48 89 85 18 ff ff ff 	mov    %rax,-0xe8(%rbp)
    6a2c:	48 8d 05 85 8a 01 00 	lea    0x18a85(%rip),%rax        # 1f4b8 <g_107>
    6a33:	48 89 85 20 ff ff ff 	mov    %rax,-0xe0(%rbp)
    6a3a:	48 8d 85 30 ff ff ff 	lea    -0xd0(%rbp),%rax
    6a41:	48 05 88 00 00 00    	add    $0x88,%rax
    6a47:	48 89 85 28 ff ff ff 	mov    %rax,-0xd8(%rbp)
    6a4e:	c7 85 d0 fe ff ff 00 	movl   $0x0,-0x130(%rbp)
    6a55:	00 00 00 
    6a58:	c7 85 d4 fe ff ff 00 	movl   $0x0,-0x12c(%rbp)
    6a5f:	00 00 00 
    6a62:	c7 85 d8 fe ff ff 00 	movl   $0x0,-0x128(%rbp)
    6a69:	00 00 00 
    6a6c:	c7 85 dc fe ff ff 00 	movl   $0x0,-0x124(%rbp)
    6a73:	00 00 00 
    6a76:	c7 85 e0 fe ff ff 00 	movl   $0x0,-0x120(%rbp)
    6a7d:	00 00 00 
    6a80:	c7 85 e4 fe ff ff 00 	movl   $0x0,-0x11c(%rbp)
    6a87:	00 00 00 
    6a8a:	c6 85 46 fe ff ff e5 	movb   $0xe5,-0x1ba(%rbp)
    6a91:	c7 85 64 fe ff ff ff 	movl   $0xffffffff,-0x19c(%rbp)
    6a98:	ff ff ff 
    6a9b:	c7 05 87 85 01 00 fc 	movl   $0xfffffffc,0x18587(%rip)        # 1f02c <g_4>
    6aa2:	ff ff ff 
    6aa5:	e9 ca 00 00 00       	jmpq   6b74 <func_1+0x3bf>
    6aaa:	66 c7 85 48 fe ff ff 	movw   $0x1,-0x1b8(%rbp)
    6ab1:	01 00 
    6ab3:	48 8d 05 76 85 01 00 	lea    0x18576(%rip),%rax        # 1f030 <g_42>
    6aba:	48 89 85 90 fe ff ff 	mov    %rax,-0x170(%rbp)
    6ac1:	c6 85 47 fe ff ff ff 	movb   $0xff,-0x1b9(%rbp)
    6ac8:	66 c7 85 4a fe ff ff 	movw   $0xc3f4,-0x1b6(%rbp)
    6acf:	f4 c3 
    6ad1:	c7 85 54 fe ff ff b6 	movl   $0x1e1499b6,-0x1ac(%rbp)
    6ad8:	99 14 1e 
    6adb:	48 8d 85 4c fe ff ff 	lea    -0x1b4(%rbp),%rax
    6ae2:	48 89 85 98 fe ff ff 	mov    %rax,-0x168(%rbp)
    6ae9:	48 8d 85 54 fe ff ff 	lea    -0x1ac(%rbp),%rax
    6af0:	48 89 85 a0 fe ff ff 	mov    %rax,-0x160(%rbp)
    6af7:	48 8d 05 86 96 01 00 	lea    0x19686(%rip),%rax        # 20184 <g_1681>
    6afe:	48 89 85 a8 fe ff ff 	mov    %rax,-0x158(%rbp)
    6b05:	48 c7 85 b0 fe ff ff 	movq   $0x0,-0x150(%rbp)
    6b0c:	00 00 00 00 
    6b10:	48 8d 05 6d 96 01 00 	lea    0x1966d(%rip),%rax        # 20184 <g_1681>
    6b17:	48 89 85 b8 fe ff ff 	mov    %rax,-0x148(%rbp)
    6b1e:	c7 85 68 fe ff ff bc 	movl   $0x746704bc,-0x198(%rbp)
    6b25:	04 67 74 
    6b28:	c7 85 6c fe ff ff 43 	movl   $0x76d89e43,-0x194(%rbp)
    6b2f:	9e d8 76 
    6b32:	c7 85 58 fe ff ff 00 	movl   $0x0,-0x1a8(%rbp)
    6b39:	00 00 00 
    6b3c:	eb 1e                	jmp    6b5c <func_1+0x3a7>
    6b3e:	8b 85 58 fe ff ff    	mov    -0x1a8(%rbp),%eax
    6b44:	48 98                	cltq   
    6b46:	48 8d 15 6b 89 01 00 	lea    0x1896b(%rip),%rdx        # 1f4b8 <g_107>
    6b4d:	48 89 94 c5 c0 fe ff 	mov    %rdx,-0x140(%rbp,%rax,8)
    6b54:	ff 
    6b55:	83 85 58 fe ff ff 01 	addl   $0x1,-0x1a8(%rbp)
    6b5c:	83 bd 58 fe ff ff 01 	cmpl   $0x1,-0x1a8(%rbp)
    6b63:	7e d9                	jle    6b3e <func_1+0x389>
    6b65:	8b 05 c1 84 01 00    	mov    0x184c1(%rip),%eax        # 1f02c <g_4>
    6b6b:	83 e8 01             	sub    $0x1,%eax
    6b6e:	89 05 b8 84 01 00    	mov    %eax,0x184b8(%rip)        # 1f02c <g_4>
    6b74:	8b 05 b2 84 01 00    	mov    0x184b2(%rip),%eax        # 1f02c <g_4>
    6b7a:	83 f8 eb             	cmp    $0xffffffeb,%eax
    6b7d:	0f 84 27 ff ff ff    	je     6aaa <func_1+0x2f5>
    6b83:	83 85 64 fe ff ff 01 	addl   $0x1,-0x19c(%rbp)
    6b8a:	48 8b 85 88 fe ff ff 	mov    -0x178(%rbp),%rax
    6b91:	8b 00                	mov    (%rax),%eax
    6b93:	48 8b 4d f8          	mov    -0x8(%rbp),%rcx
    6b97:	64 48 33 0c 25 28 00 	xor    %fs:0x28,%rcx
    6b9e:	00 00 
    6ba0:	74 05                	je     6ba7 <func_1+0x3f2>
    6ba2:	e8 c9 e4 ff ff       	callq  5070 <__stack_chk_fail@plt>
    6ba7:	c9                   	leaveq 
    6ba8:	c3                   	retq   

0000000000006ba9 <func_7>:
    6ba9:	f3 0f 1e fa          	endbr64 
    6bad:	55                   	push   %rbp
    6bae:	48 89 e5             	mov    %rsp,%rbp
    6bb1:	41 57                	push   %r15
    6bb3:	41 56                	push   %r14
    6bb5:	41 55                	push   %r13
    6bb7:	41 54                	push   %r12
    6bb9:	53                   	push   %rbx
    6bba:	48 81 ec 78 0f 00 00 	sub    $0xf78,%rsp
    6bc1:	48 89 bd 88 f0 ff ff 	mov    %rdi,-0xf78(%rbp)
    6bc8:	89 b5 84 f0 ff ff    	mov    %esi,-0xf7c(%rbp)
    6bce:	89 95 80 f0 ff ff    	mov    %edx,-0xf80(%rbp)
    6bd4:	48 89 8d 78 f0 ff ff 	mov    %rcx,-0xf88(%rbp)
    6bdb:	44 89 c0             	mov    %r8d,%eax
    6bde:	66 89 85 74 f0 ff ff 	mov    %ax,-0xf8c(%rbp)
    6be5:	64 48 8b 04 25 28 00 	mov    %fs:0x28,%rax
    6bec:	00 00 
    6bee:	48 89 45 c8          	mov    %rax,-0x38(%rbp)
    6bf2:	31 c0                	xor    %eax,%eax
    6bf4:	48 8d 05 bd 88 01 00 	lea    0x188bd(%rip),%rax        # 1f4b8 <g_107>
    6bfb:	48 89 85 70 f1 ff ff 	mov    %rax,-0xe90(%rbp)
    6c02:	66 c7 85 a2 f0 ff ff 	movw   $0xffff,-0xf5e(%rbp)
    6c09:	ff ff 
    6c0b:	48 8d 05 0e ad 01 00 	lea    0x1ad0e(%rip),%rax        # 21920 <g_1387>
    6c12:	48 89 85 40 f1 ff ff 	mov    %rax,-0xec0(%rbp)
    6c19:	48 8d 85 20 f3 ff ff 	lea    -0xce0(%rbp),%rax
    6c20:	48 89 85 78 f1 ff ff 	mov    %rax,-0xe88(%rbp)
    6c27:	48 8d 05 56 95 01 00 	lea    0x19556(%rip),%rax        # 20184 <g_1681>
    6c2e:	48 89 85 80 f1 ff ff 	mov    %rax,-0xe80(%rbp)
    6c35:	c6 85 9a f0 ff ff 61 	movb   $0x61,-0xf66(%rbp)
    6c3c:	48 8d 05 8d 95 01 00 	lea    0x1958d(%rip),%rax        # 201d0 <g_1727>
    6c43:	48 89 85 88 f1 ff ff 	mov    %rax,-0xe78(%rbp)
    6c4a:	c7 85 a8 f0 ff ff f2 	movl   $0x2cccbef2,-0xf58(%rbp)
    6c51:	be cc 2c 
    6c54:	c7 85 ac f0 ff ff a5 	movl   $0xf6ace8a5,-0xf54(%rbp)
    6c5b:	e8 ac f6 
    6c5e:	c7 85 40 f3 ff ff 1f 	movl   $0x28eed1f,-0xcc0(%rbp)
    6c65:	ed 8e 02 
    6c68:	c7 85 44 f3 ff ff ad 	movl   $0xf68b4ead,-0xcbc(%rbp)
    6c6f:	4e 8b f6 
    6c72:	c7 85 48 f3 ff ff 1f 	movl   $0x28eed1f,-0xcb8(%rbp)
    6c79:	ed 8e 02 
    6c7c:	c7 85 4c f3 ff ff ad 	movl   $0xf68b4ead,-0xcb4(%rbp)
    6c83:	4e 8b f6 
    6c86:	c7 85 50 f3 ff ff 1f 	movl   $0x28eed1f,-0xcb0(%rbp)
    6c8d:	ed 8e 02 
    6c90:	c7 85 54 f3 ff ff ad 	movl   $0xf68b4ead,-0xcac(%rbp)
    6c97:	4e 8b f6 
    6c9a:	c7 85 58 f3 ff ff 1f 	movl   $0x28eed1f,-0xca8(%rbp)
    6ca1:	ed 8e 02 
    6ca4:	c7 85 5c f3 ff ff ad 	movl   $0xf68b4ead,-0xca4(%rbp)
    6cab:	4e 8b f6 
    6cae:	66 c7 85 9e f0 ff ff 	movw   $0x0,-0xf62(%rbp)
    6cb5:	00 00 
    6cb7:	c7 85 b4 f0 ff ff 03 	movl   $0x3,-0xf4c(%rbp)
    6cbe:	00 00 00 
    6cc1:	48 c7 85 48 f1 ff ff 	movq   $0x0,-0xeb8(%rbp)
    6cc8:	00 00 00 00 
    6ccc:	48 8d 05 3d ac 01 00 	lea    0x1ac3d(%rip),%rax        # 21910 <g_1205>
    6cd3:	48 89 85 90 f1 ff ff 	mov    %rax,-0xe70(%rbp)
    6cda:	48 8d 05 df 87 01 00 	lea    0x187df(%rip),%rax        # 1f4c0 <g_140>
    6ce1:	48 89 85 50 f1 ff ff 	mov    %rax,-0xeb0(%rbp)
    6ce8:	48 8d 05 f9 b7 01 00 	lea    0x1b7f9(%rip),%rax        # 224e8 <g_1706>
    6cef:	48 89 85 70 f4 ff ff 	mov    %rax,-0xb90(%rbp)
    6cf6:	48 8d 05 eb b7 01 00 	lea    0x1b7eb(%rip),%rax        # 224e8 <g_1706>
    6cfd:	48 89 85 78 f4 ff ff 	mov    %rax,-0xb88(%rbp)
    6d04:	48 8d 05 dd b7 01 00 	lea    0x1b7dd(%rip),%rax        # 224e8 <g_1706>
    6d0b:	48 89 85 80 f4 ff ff 	mov    %rax,-0xb80(%rbp)
    6d12:	48 8d 05 cf b7 01 00 	lea    0x1b7cf(%rip),%rax        # 224e8 <g_1706>
    6d19:	48 89 85 88 f4 ff ff 	mov    %rax,-0xb78(%rbp)
    6d20:	48 8d 05 c1 b7 01 00 	lea    0x1b7c1(%rip),%rax        # 224e8 <g_1706>
    6d27:	48 89 85 90 f4 ff ff 	mov    %rax,-0xb70(%rbp)
    6d2e:	48 8d 05 b3 b7 01 00 	lea    0x1b7b3(%rip),%rax        # 224e8 <g_1706>
    6d35:	48 89 85 98 f4 ff ff 	mov    %rax,-0xb68(%rbp)
    6d3c:	48 8d 05 a5 b7 01 00 	lea    0x1b7a5(%rip),%rax        # 224e8 <g_1706>
    6d43:	48 89 85 a0 f4 ff ff 	mov    %rax,-0xb60(%rbp)
    6d4a:	48 8d 05 97 b7 01 00 	lea    0x1b797(%rip),%rax        # 224e8 <g_1706>
    6d51:	48 89 85 a8 f4 ff ff 	mov    %rax,-0xb58(%rbp)
    6d58:	48 8d 05 89 b7 01 00 	lea    0x1b789(%rip),%rax        # 224e8 <g_1706>
    6d5f:	48 89 85 b0 f4 ff ff 	mov    %rax,-0xb50(%rbp)
    6d66:	48 8d 05 7b b7 01 00 	lea    0x1b77b(%rip),%rax        # 224e8 <g_1706>
    6d6d:	48 89 85 b8 f4 ff ff 	mov    %rax,-0xb48(%rbp)
    6d74:	48 8d 05 b5 93 01 00 	lea    0x193b5(%rip),%rax        # 20130 <g_1439>
    6d7b:	48 89 85 20 f4 ff ff 	mov    %rax,-0xbe0(%rbp)
    6d82:	48 c7 85 28 f4 ff ff 	movq   $0x0,-0xbd8(%rbp)
    6d89:	00 00 00 00 
    6d8d:	48 8d 05 9c 93 01 00 	lea    0x1939c(%rip),%rax        # 20130 <g_1439>
    6d94:	48 89 85 30 f4 ff ff 	mov    %rax,-0xbd0(%rbp)
    6d9b:	48 c7 85 38 f4 ff ff 	movq   $0x0,-0xbc8(%rbp)
    6da2:	00 00 00 00 
    6da6:	48 8d 05 83 93 01 00 	lea    0x19383(%rip),%rax        # 20130 <g_1439>
    6dad:	48 89 85 40 f4 ff ff 	mov    %rax,-0xbc0(%rbp)
    6db4:	48 c7 85 48 f4 ff ff 	movq   $0x0,-0xbb8(%rbp)
    6dbb:	00 00 00 00 
    6dbf:	48 8d 05 6a 93 01 00 	lea    0x1936a(%rip),%rax        # 20130 <g_1439>
    6dc6:	48 89 85 50 f4 ff ff 	mov    %rax,-0xbb0(%rbp)
    6dcd:	48 c7 85 58 f4 ff ff 	movq   $0x0,-0xba8(%rbp)
    6dd4:	00 00 00 00 
    6dd8:	48 8d 05 51 93 01 00 	lea    0x19351(%rip),%rax        # 20130 <g_1439>
    6ddf:	48 89 85 60 f4 ff ff 	mov    %rax,-0xba0(%rbp)
    6de6:	48 8d 05 cb 86 01 00 	lea    0x186cb(%rip),%rax        # 1f4b8 <g_107>
    6ded:	48 89 85 a0 f1 ff ff 	mov    %rax,-0xe60(%rbp)
    6df4:	48 8d 85 40 f3 ff ff 	lea    -0xcc0(%rbp),%rax
    6dfb:	48 83 c0 18          	add    $0x18,%rax
    6dff:	48 89 85 a8 f1 ff ff 	mov    %rax,-0xe58(%rbp)
    6e06:	48 8d 85 40 f3 ff ff 	lea    -0xcc0(%rbp),%rax
    6e0d:	48 83 c0 04          	add    $0x4,%rax
    6e11:	48 89 85 b0 f1 ff ff 	mov    %rax,-0xe50(%rbp)
    6e18:	48 8d 85 40 f3 ff ff 	lea    -0xcc0(%rbp),%rax
    6e1f:	48 89 85 b8 f1 ff ff 	mov    %rax,-0xe48(%rbp)
    6e26:	48 8d 05 57 93 01 00 	lea    0x19357(%rip),%rax        # 20184 <g_1681>
    6e2d:	48 89 85 60 f3 ff ff 	mov    %rax,-0xca0(%rbp)
    6e34:	48 8d 05 49 93 01 00 	lea    0x19349(%rip),%rax        # 20184 <g_1681>
    6e3b:	48 89 85 68 f3 ff ff 	mov    %rax,-0xc98(%rbp)
    6e42:	48 8d 05 3b 93 01 00 	lea    0x1933b(%rip),%rax        # 20184 <g_1681>
    6e49:	48 89 85 70 f3 ff ff 	mov    %rax,-0xc90(%rbp)
    6e50:	48 8d 05 2d 93 01 00 	lea    0x1932d(%rip),%rax        # 20184 <g_1681>
    6e57:	48 89 85 78 f3 ff ff 	mov    %rax,-0xc88(%rbp)
    6e5e:	c7 85 d8 f0 ff ff 00 	movl   $0x0,-0xf28(%rbp)
    6e65:	00 00 00 
    6e68:	66 c7 85 a4 f0 ff ff 	movw   $0x0,-0xf5c(%rbp)
    6e6f:	00 00 
    6e71:	c7 85 b8 f0 ff ff ff 	movl   $0xffffffff,-0xf48(%rbp)
    6e78:	ff ff ff 
    6e7b:	48 b8 ad bc ea a3 49 	movabs $0x6b63f149a3eabcad,%rax
    6e82:	f1 63 6b 
    6e85:	48 89 85 58 f1 ff ff 	mov    %rax,-0xea8(%rbp)
    6e8c:	48 8d 05 27 90 01 00 	lea    0x19027(%rip),%rax        # 1feba <g_721+0x2>
    6e93:	48 89 85 c0 f1 ff ff 	mov    %rax,-0xe40(%rbp)
    6e9a:	c7 85 bc f0 ff ff 00 	movl   $0x0,-0xf44(%rbp)
    6ea1:	00 00 00 
    6ea4:	eb 1e                	jmp    6ec4 <func_7+0x31b>
    6ea6:	8b 85 bc f0 ff ff    	mov    -0xf44(%rbp),%eax
    6eac:	48 98                	cltq   
    6eae:	48 8d 95 40 f1 ff ff 	lea    -0xec0(%rbp),%rdx
    6eb5:	48 89 94 c5 20 f3 ff 	mov    %rdx,-0xce0(%rbp,%rax,8)
    6ebc:	ff 
    6ebd:	83 85 bc f0 ff ff 01 	addl   $0x1,-0xf44(%rbp)
    6ec4:	83 bd bc f0 ff ff 02 	cmpl   $0x2,-0xf44(%rbp)
    6ecb:	7e d9                	jle    6ea6 <func_7+0x2fd>
    6ecd:	8b 85 80 f0 ff ff    	mov    -0xf80(%rbp),%eax
    6ed3:	0f b6 d8             	movzbl %al,%ebx
    6ed6:	48 8b 05 3b aa 01 00 	mov    0x1aa3b(%rip),%rax        # 21918 <g_1313>
    6edd:	0f b7 10             	movzwl (%rax),%edx
    6ee0:	8d 4a ff             	lea    -0x1(%rdx),%ecx
    6ee3:	66 89 08             	mov    %cx,(%rax)
    6ee6:	0f b7 d2             	movzwl %dx,%edx
    6ee9:	8b 85 84 f0 ff ff    	mov    -0xf7c(%rbp),%eax
    6eef:	39 c2                	cmp    %eax,%edx
    6ef1:	0f 94 c0             	sete   %al
    6ef4:	0f b6 d0             	movzbl %al,%edx
    6ef7:	48 8b 85 70 f1 ff ff 	mov    -0xe90(%rbp),%rax
    6efe:	89 10                	mov    %edx,(%rax)
    6f00:	48 8b 85 70 f1 ff ff 	mov    -0xe90(%rbp),%rax
    6f07:	8b 10                	mov    (%rax),%edx
    6f09:	0f bf 85 a2 f0 ff ff 	movswl -0xf5e(%rbp),%eax
    6f10:	39 c2                	cmp    %eax,%edx
    6f12:	48 8b 85 78 f0 ff ff 	mov    -0xf88(%rbp),%rax
    6f19:	44 0f b7 e0          	movzwl %ax,%r12d
    6f1d:	48 81 bd 78 f0 ff ff 	cmpq   $0x9f,-0xf88(%rbp)
    6f24:	9f 00 00 00 
    6f28:	74 07                	je     6f31 <func_7+0x388>
    6f2a:	b9 ac 6b 43 e2       	mov    $0xe2436bac,%ecx
    6f2f:	eb 05                	jmp    6f36 <func_7+0x38d>
    6f31:	b9 ad 6b 43 e2       	mov    $0xe2436bad,%ecx
    6f36:	8b 85 80 f0 ff ff    	mov    -0xf80(%rbp),%eax
    6f3c:	89 c2                	mov    %eax,%edx
    6f3e:	48 8b 85 80 f1 ff ff 	mov    -0xe80(%rbp),%rax
    6f45:	89 10                	mov    %edx,(%rax)
    6f47:	0f b7 95 74 f0 ff ff 	movzwl -0xf8c(%rbp),%edx
    6f4e:	48 8d 85 20 f3 ff ff 	lea    -0xce0(%rbp),%rax
    6f55:	48 39 85 78 f1 ff ff 	cmp    %rax,-0xe88(%rbp)
    6f5c:	0f 95 c0             	setne  %al
    6f5f:	0f b6 c0             	movzbl %al,%eax
    6f62:	f7 d0                	not    %eax
    6f64:	39 c2                	cmp    %eax,%edx
    6f66:	0f 9d c0             	setge  %al
    6f69:	0f b6 c0             	movzbl %al,%eax
    6f6c:	89 ce                	mov    %ecx,%esi
    6f6e:	89 c7                	mov    %eax,%edi
    6f70:	e8 5b ef ff ff       	callq  5ed0 <safe_sub_func_uint32_t_u_u>
    6f75:	b8 01 00 00 00       	mov    $0x1,%eax
    6f7a:	0f b7 c0             	movzwl %ax,%eax
    6f7d:	44 89 e6             	mov    %r12d,%esi
    6f80:	89 c7                	mov    %eax,%edi
    6f82:	e8 b6 ed ff ff       	callq  5d3d <safe_mul_func_uint16_t_u_u>
    6f87:	66 85 c0             	test   %ax,%ax
    6f8a:	75 14                	jne    6fa0 <func_7+0x3f7>
    6f8c:	48 83 bd 78 f0 ff ff 	cmpq   $0x0,-0xf88(%rbp)
    6f93:	00 
    6f94:	75 0a                	jne    6fa0 <func_7+0x3f7>
    6f96:	48 83 bd 78 f0 ff ff 	cmpq   $0x0,-0xf88(%rbp)
    6f9d:	00 
    6f9e:	74 07                	je     6fa7 <func_7+0x3fe>
    6fa0:	b8 01 00 00 00       	mov    $0x1,%eax
    6fa5:	eb 05                	jmp    6fac <func_7+0x403>
    6fa7:	b8 00 00 00 00       	mov    $0x0,%eax
    6fac:	0f bf d0             	movswl %ax,%edx
    6faf:	0f b6 05 2a 90 01 00 	movzbl 0x1902a(%rip),%eax        # 1ffe0 <g_1003>
    6fb6:	0f b6 c0             	movzbl %al,%eax
    6fb9:	89 d6                	mov    %edx,%esi
    6fbb:	89 c7                	mov    %eax,%edi
    6fbd:	e8 54 e4 ff ff       	callq  5416 <safe_mod_func_int16_t_s_s>
    6fc2:	0f b6 85 9a f0 ff ff 	movzbl -0xf66(%rbp),%eax
    6fc9:	f7 d0                	not    %eax
    6fcb:	c0 e8 07             	shr    $0x7,%al
    6fce:	0f b6 c0             	movzbl %al,%eax
    6fd1:	89 de                	mov    %ebx,%esi
    6fd3:	89 c7                	mov    %eax,%edi
    6fd5:	e8 9e eb ff ff       	callq  5b78 <safe_sub_func_uint8_t_u_u>
    6fda:	84 c0                	test   %al,%al
    6fdc:	0f 84 1e 0c 00 00    	je     7c00 <func_7+0x1057>
    6fe2:	c7 85 e0 f0 ff ff 6b 	movl   $0xb047936b,-0xf20(%rbp)
    6fe9:	93 47 b0 
    6fec:	c7 85 e4 f0 ff ff 01 	movl   $0x1,-0xf1c(%rbp)
    6ff3:	00 00 00 
    6ff6:	48 8d 85 20 f3 ff ff 	lea    -0xce0(%rbp),%rax
    6ffd:	48 89 85 68 f1 ff ff 	mov    %rax,-0xe98(%rbp)
    7004:	c7 85 c0 f0 ff ff 00 	movl   $0x0,-0xf40(%rbp)
    700b:	00 00 00 
    700e:	eb 1a                	jmp    702a <func_7+0x481>
    7010:	8b 85 c0 f0 ff ff    	mov    -0xf40(%rbp),%eax
    7016:	48 98                	cltq   
    7018:	c7 84 85 c0 f4 ff ff 	movl   $0x4,-0xb40(%rbp,%rax,4)
    701f:	04 00 00 00 
    7023:	83 85 c0 f0 ff ff 01 	addl   $0x1,-0xf40(%rbp)
    702a:	83 bd c0 f0 ff ff 03 	cmpl   $0x3,-0xf40(%rbp)
    7031:	7e dd                	jle    7010 <func_7+0x467>
    7033:	8b 85 e0 f0 ff ff    	mov    -0xf20(%rbp),%eax
    7039:	0f bf d0             	movswl %ax,%edx
    703c:	8b 05 8a 8e 01 00    	mov    0x18e8a(%rip),%eax        # 1fecc <g_736+0xc>
    7042:	c1 e0 08             	shl    $0x8,%eax
    7045:	c1 f8 08             	sar    $0x8,%eax
    7048:	98                   	cwtl   
    7049:	89 d6                	mov    %edx,%esi
    704b:	89 c7                	mov    %eax,%edi
    704d:	e8 61 e3 ff ff       	callq  53b3 <safe_add_func_int16_t_s_s>
    7052:	66 85 c0             	test   %ax,%ax
    7055:	0f 84 54 02 00 00    	je     72af <func_7+0x706>
    705b:	48 8d 05 8a 8f 01 00 	lea    0x18f8a(%rip),%rax        # 1ffec <g_1003+0xc>
    7062:	48 89 85 30 f2 ff ff 	mov    %rax,-0xdd0(%rbp)
    7069:	48 c7 85 38 f2 ff ff 	movq   $0x0,-0xdc8(%rbp)
    7070:	00 00 00 00 
    7074:	48 8d 05 a5 a8 01 00 	lea    0x1a8a5(%rip),%rax        # 21920 <g_1387>
    707b:	48 89 85 40 f2 ff ff 	mov    %rax,-0xdc0(%rbp)
    7082:	c7 85 c4 f0 ff ff 01 	movl   $0x1,-0xf3c(%rbp)
    7089:	00 00 00 
    708c:	c7 85 04 f1 ff ff 9f 	movl   $0x8e40759f,-0xefc(%rbp)
    7093:	75 40 8e 
    7096:	c7 85 08 f1 ff ff c6 	movl   $0x7d014bc6,-0xef8(%rbp)
    709d:	4b 01 7d 
    70a0:	48 8d 05 59 91 01 00 	lea    0x19159(%rip),%rax        # 20200 <g_1792>
    70a7:	48 89 85 48 f2 ff ff 	mov    %rax,-0xdb8(%rbp)
    70ae:	48 8b 05 eb a8 01 00 	mov    0x1a8eb(%rip),%rax        # 219a0 <g_1414>
    70b5:	48 8b 00             	mov    (%rax),%rax
    70b8:	48 8b 00             	mov    (%rax),%rax
    70bb:	0f b7 00             	movzwl (%rax),%eax
    70be:	0f b7 d8             	movzwl %ax,%ebx
    70c1:	48 8b 85 78 f0 ff ff 	mov    -0xf88(%rbp),%rax
    70c8:	44 0f bf e0          	movswl %ax,%r12d
    70cc:	48 8b 15 ed 83 01 00 	mov    0x183ed(%rip),%rdx        # 1f4c0 <g_140>
    70d3:	0f b7 85 74 f0 ff ff 	movzwl -0xf8c(%rbp),%eax
    70da:	48 31 d0             	xor    %rdx,%rax
    70dd:	48 89 05 dc 83 01 00 	mov    %rax,0x183dc(%rip)        # 1f4c0 <g_140>
    70e4:	48 8b 05 d5 83 01 00 	mov    0x183d5(%rip),%rax        # 1f4c0 <g_140>
    70eb:	48 85 c0             	test   %rax,%rax
    70ee:	0f 84 87 00 00 00    	je     717b <func_7+0x5d2>
    70f4:	8b 85 cc f4 ff ff    	mov    -0xb34(%rbp),%eax
    70fa:	41 89 c5             	mov    %eax,%r13d
    70fd:	48 8b 85 40 f2 ff ff 	mov    -0xdc0(%rbp),%rax
    7104:	48 8d 95 84 f0 ff ff 	lea    -0xf7c(%rbp),%rdx
    710b:	48 89 10             	mov    %rdx,(%rax)
    710e:	48 8b 85 30 f2 ff ff 	mov    -0xdd0(%rbp),%rax
    7115:	66 c7 00 79 86       	movw   $0x8679,(%rax)
    711a:	be 79 86 ff ff       	mov    $0xffff8679,%esi
    711f:	bf 00 00 00 00       	mov    $0x0,%edi
    7124:	e8 95 ec ff ff       	callq  5dbe <safe_lshift_func_uint16_t_u_s>
    7129:	b8 00 00 00 00       	mov    $0x0,%eax
    712e:	89 85 e0 f0 ff ff    	mov    %eax,-0xf20(%rbp)
    7134:	8b 95 e0 f0 ff ff    	mov    -0xf20(%rbp),%edx
    713a:	48 8b 85 78 f0 ff ff 	mov    -0xf88(%rbp),%rax
    7141:	89 c1                	mov    %eax,%ecx
    7143:	48 8b 05 0e a4 01 00 	mov    0x1a40e(%rip),%rax        # 21558 <g_238>
    714a:	48 8b 00             	mov    (%rax),%rax
    714d:	48 8b 00             	mov    (%rax),%rax
    7150:	31 ca                	xor    %ecx,%edx
    7152:	89 10                	mov    %edx,(%rax)
    7154:	48 8b 85 70 f1 ff ff 	mov    -0xe90(%rbp),%rax
    715b:	8b 00                	mov    (%rax),%eax
    715d:	83 f8 01             	cmp    $0x1,%eax
    7160:	0f 94 c0             	sete   %al
    7163:	89 c2                	mov    %eax,%edx
    7165:	8b 05 f9 8d 01 00    	mov    0x18df9(%rip),%eax        # 1ff64 <g_779+0x4>
    716b:	31 d0                	xor    %edx,%eax
    716d:	0f b6 c0             	movzbl %al,%eax
    7170:	44 89 ee             	mov    %r13d,%esi
    7173:	89 c7                	mov    %eax,%edi
    7175:	e8 44 eb ff ff       	callq  5cbe <safe_rshift_func_uint8_t_u_u>
    717a:	90                   	nop
    717b:	44 89 e6             	mov    %r12d,%esi
    717e:	bf 01 00 00 00       	mov    $0x1,%edi
    7183:	e8 8e e2 ff ff       	callq  5416 <safe_mod_func_int16_t_s_s>
    7188:	83 bd c4 f0 ff ff fc 	cmpl   $0xfffffffc,-0xf3c(%rbp)
    718f:	0f 9c c0             	setl   %al
    7192:	0f b6 c0             	movzbl %al,%eax
    7195:	89 de                	mov    %ebx,%esi
    7197:	89 c7                	mov    %eax,%edi
    7199:	e8 c5 e3 ff ff       	callq  5563 <safe_rshift_func_int16_t_s_u>
    719e:	c7 85 0c f1 ff ff 01 	movl   $0x1,-0xef4(%rbp)
    71a5:	00 00 00 
    71a8:	48 8d 05 c1 8c 01 00 	lea    0x18cc1(%rip),%rax        # 1fe70 <g_481>
    71af:	48 89 85 50 f2 ff ff 	mov    %rax,-0xdb0(%rbp)
    71b6:	48 8b 05 5b a6 01 00 	mov    0x1a65b(%rip),%rax        # 21818 <g_1183>
    71bd:	48 c7 00 00 00 00 00 	movq   $0x0,(%rax)
    71c4:	48 8b 85 70 f1 ff ff 	mov    -0xe90(%rbp),%rax
    71cb:	8b 00                	mov    (%rax),%eax
    71cd:	23 85 0c f1 ff ff    	and    -0xef4(%rbp),%eax
    71d3:	89 c2                	mov    %eax,%edx
    71d5:	48 8b 85 70 f1 ff ff 	mov    -0xe90(%rbp),%rax
    71dc:	89 10                	mov    %edx,(%rax)
    71de:	c7 85 c4 f0 ff ff ef 	movl   $0xffffffef,-0xf3c(%rbp)
    71e5:	ff ff ff 
    71e8:	e9 a4 00 00 00       	jmpq   7291 <func_7+0x6e8>
    71ed:	48 8b 85 80 f1 ff ff 	mov    -0xe80(%rbp),%rax
    71f4:	8b 10                	mov    (%rax),%edx
    71f6:	8b 85 80 f0 ff ff    	mov    -0xf80(%rbp),%eax
    71fc:	89 c0                	mov    %eax,%eax
    71fe:	48 39 85 78 f0 ff ff 	cmp    %rax,-0xf88(%rbp)
    7205:	0f 93 c0             	setae  %al
    7208:	0f b6 c0             	movzbl %al,%eax
    720b:	21 c2                	and    %eax,%edx
    720d:	48 8b 85 80 f1 ff ff 	mov    -0xe80(%rbp),%rax
    7214:	89 10                	mov    %edx,(%rax)
    7216:	c6 85 9a f0 ff ff 00 	movb   $0x0,-0xf66(%rbp)
    721d:	eb 62                	jmp    7281 <func_7+0x6d8>
    721f:	be 97 ff ff ff       	mov    $0xffffff97,%esi
    7224:	bf f9 ff ff ff       	mov    $0xfffffff9,%edi
    7229:	e8 c4 df ff ff       	callq  51f2 <safe_sub_func_int8_t_s_s>
    722e:	84 c0                	test   %al,%al
    7230:	0f 94 c0             	sete   %al
    7233:	89 c3                	mov    %eax,%ebx
    7235:	48 bf 03 f7 e6 dd f0 	movabs $0x91ae5df0dde6f703,%rdi
    723c:	5d ae 91 
    723f:	e8 d2 e5 ff ff       	callq  5816 <safe_unary_minus_func_int64_t_s>
    7244:	31 d8                	xor    %ebx,%eax
    7246:	0f b6 c0             	movzbl %al,%eax
    7249:	be 07 00 00 00       	mov    $0x7,%esi
    724e:	89 c7                	mov    %eax,%edi
    7250:	e8 f7 e9 ff ff       	callq  5c4c <safe_lshift_func_uint8_t_u_u>
    7255:	8b 95 84 f0 ff ff    	mov    -0xf7c(%rbp),%edx
    725b:	48 8b 85 80 f1 ff ff 	mov    -0xe80(%rbp),%rax
    7262:	8b 00                	mov    (%rax),%eax
    7264:	21 d0                	and    %edx,%eax
    7266:	89 c2                	mov    %eax,%edx
    7268:	48 8b 85 80 f1 ff ff 	mov    -0xe80(%rbp),%rax
    726f:	89 10                	mov    %edx,(%rax)
    7271:	0f b6 85 9a f0 ff ff 	movzbl -0xf66(%rbp),%eax
    7278:	83 c0 01             	add    $0x1,%eax
    727b:	88 85 9a f0 ff ff    	mov    %al,-0xf66(%rbp)
    7281:	80 bd 9a f0 ff ff 15 	cmpb   $0x15,-0xf66(%rbp)
    7288:	74 95                	je     721f <func_7+0x676>
    728a:	83 85 c4 f0 ff ff 01 	addl   $0x1,-0xf3c(%rbp)
    7291:	83 bd c4 f0 ff ff 18 	cmpl   $0x18,-0xf3c(%rbp)
    7298:	0f 8e 4f ff ff ff    	jle    71ed <func_7+0x644>
    729e:	8b 85 80 f0 ff ff    	mov    -0xf80(%rbp),%eax
    72a4:	89 85 e0 f0 ff ff    	mov    %eax,-0xf20(%rbp)
    72aa:	e9 fc 0e 00 00       	jmpq   81ab <func_7+0x1602>
    72af:	48 8d 85 c0 f9 ff ff 	lea    -0x640(%rbp),%rax
    72b6:	48 8d 15 63 22 01 00 	lea    0x12263(%rip),%rdx        # 19520 <g_2129+0x60>
    72bd:	b9 c0 00 00 00       	mov    $0xc0,%ecx
    72c2:	48 89 c7             	mov    %rax,%rdi
    72c5:	48 89 d6             	mov    %rdx,%rsi
    72c8:	f3 48 a5             	rep movsq %ds:(%rsi),%es:(%rdi)
    72cb:	c7 85 e8 f0 ff ff 78 	movl   $0x5ac09978,-0xf18(%rbp)
    72d2:	99 c0 5a 
    72d5:	c7 85 ec f0 ff ff ff 	movl   $0xffffffff,-0xf14(%rbp)
    72dc:	ff ff ff 
    72df:	c7 85 f0 f0 ff ff 7d 	movl   $0xe721fc7d,-0xf10(%rbp)
    72e6:	fc 21 e7 
    72e9:	48 c7 85 98 f1 ff ff 	movq   $0x1,-0xe68(%rbp)
    72f0:	01 00 00 00 
    72f4:	48 c7 05 31 8b 01 00 	movq   $0xffffffffffffffe6,0x18b31(%rip)        # 1fe30 <g_251>
    72fb:	e6 ff ff ff 
    72ff:	e9 e6 08 00 00       	jmpq   7bea <func_7+0x1041>
    7304:	48 8d 85 48 f1 ff ff 	lea    -0xeb8(%rbp),%rax
    730b:	48 89 85 f8 f1 ff ff 	mov    %rax,-0xe08(%rbp)
    7312:	c7 85 60 f1 ff ff a7 	movl   $0xf975aba7,-0xea0(%rbp)
    7319:	ab 75 f9 
    731c:	c7 85 f4 f0 ff ff 75 	movl   $0x8715cb75,-0xf0c(%rbp)
    7323:	cb 15 87 
    7326:	66 c7 85 a6 f0 ff ff 	movw   $0x1,-0xf5a(%rbp)
    732d:	01 00 
    732f:	c7 85 f8 f0 ff ff fe 	movl   $0xfffffffe,-0xf08(%rbp)
    7336:	ff ff ff 
    7339:	c7 85 fc f0 ff ff 05 	movl   $0x5,-0xf04(%rbp)
    7340:	00 00 00 
    7343:	c7 85 30 f5 ff ff 71 	movl   $0x72815071,-0xad0(%rbp)
    734a:	50 81 72 
    734d:	c7 85 34 f5 ff ff 71 	movl   $0x72815071,-0xacc(%rbp)
    7354:	50 81 72 
    7357:	c7 85 38 f5 ff ff 71 	movl   $0x72815071,-0xac8(%rbp)
    735e:	50 81 72 
    7361:	c7 85 3c f5 ff ff 71 	movl   $0x72815071,-0xac4(%rbp)
    7368:	50 81 72 
    736b:	c7 85 40 f5 ff ff 71 	movl   $0x72815071,-0xac0(%rbp)
    7372:	50 81 72 
    7375:	c7 85 44 f5 ff ff 71 	movl   $0x72815071,-0xabc(%rbp)
    737c:	50 81 72 
    737f:	66 83 bd 74 f0 ff ff 	cmpw   $0x0,-0xf8c(%rbp)
    7386:	00 
    7387:	75 70                	jne    73f9 <func_7+0x850>
    7389:	8b 85 84 f0 ff ff    	mov    -0xf7c(%rbp),%eax
    738f:	89 c6                	mov    %eax,%esi
    7391:	bf 81 ac 00 00       	mov    $0xac81,%edi
    7396:	e8 6b ea ff ff       	callq  5e06 <safe_lshift_func_uint16_t_u_u>
    739b:	0f b7 d0             	movzwl %ax,%edx
    739e:	8b 05 94 8a 01 00    	mov    0x18a94(%rip),%eax        # 1fe38 <g_253>
    73a4:	98                   	cwtl   
    73a5:	89 d6                	mov    %edx,%esi
    73a7:	89 c7                	mov    %eax,%edi
    73a9:	e8 e4 e0 ff ff       	callq  5492 <safe_lshift_func_int16_t_s_s>
    73ae:	48 8b 95 48 f1 ff ff 	mov    -0xeb8(%rbp),%rdx
    73b5:	48 8b 85 f8 f1 ff ff 	mov    -0xe08(%rbp),%rax
    73bc:	48 89 10             	mov    %rdx,(%rax)
    73bf:	48 8b 85 f8 f1 ff ff 	mov    -0xe08(%rbp),%rax
    73c6:	48 8b 00             	mov    (%rax),%rax
    73c9:	48 39 85 90 f1 ff ff 	cmp    %rax,-0xe70(%rbp)
    73d0:	0f 95 c0             	setne  %al
    73d3:	0f b6 c0             	movzbl %al,%eax
    73d6:	be 00 00 00 00       	mov    $0x0,%esi
    73db:	89 c7                	mov    %eax,%edi
    73dd:	e8 dc e8 ff ff       	callq  5cbe <safe_rshift_func_uint8_t_u_u>
    73e2:	0f b6 c0             	movzbl %al,%eax
    73e5:	be 00 00 00 00       	mov    $0x0,%esi
    73ea:	89 c7                	mov    %eax,%edi
    73ec:	e8 14 e2 ff ff       	callq  5605 <safe_sub_func_int32_t_s_s>
    73f1:	85 c0                	test   %eax,%eax
    73f3:	0f 84 bd 07 00 00    	je     7bb6 <func_7+0x100d>
    73f9:	48 8d 85 68 f1 ff ff 	lea    -0xe98(%rbp),%rax
    7400:	48 89 85 80 f6 ff ff 	mov    %rax,-0x980(%rbp)
    7407:	48 8d 85 68 f1 ff ff 	lea    -0xe98(%rbp),%rax
    740e:	48 89 85 88 f6 ff ff 	mov    %rax,-0x978(%rbp)
    7415:	48 8d 85 68 f1 ff ff 	lea    -0xe98(%rbp),%rax
    741c:	48 89 85 90 f6 ff ff 	mov    %rax,-0x970(%rbp)
    7423:	48 8d 85 68 f1 ff ff 	lea    -0xe98(%rbp),%rax
    742a:	48 89 85 98 f6 ff ff 	mov    %rax,-0x968(%rbp)
    7431:	48 8d 05 80 b0 01 00 	lea    0x1b080(%rip),%rax        # 224b8 <g_855>
    7438:	48 89 85 08 f2 ff ff 	mov    %rax,-0xdf8(%rbp)
    743f:	48 8d 05 92 a1 01 00 	lea    0x1a192(%rip),%rax        # 215d8 <g_854>
    7446:	48 89 85 10 f2 ff ff 	mov    %rax,-0xdf0(%rbp)
    744d:	c7 85 00 f1 ff ff 6a 	movl   $0x2a0d286a,-0xf00(%rbp)
    7454:	28 0d 2a 
    7457:	48 8d 85 ac f0 ff ff 	lea    -0xf54(%rbp),%rax
    745e:	48 89 85 18 f2 ff ff 	mov    %rax,-0xde8(%rbp)
    7465:	48 8d 85 60 f1 ff ff 	lea    -0xea0(%rbp),%rax
    746c:	48 89 85 00 f8 ff ff 	mov    %rax,-0x800(%rbp)
    7473:	48 8d 85 60 f1 ff ff 	lea    -0xea0(%rbp),%rax
    747a:	48 89 85 08 f8 ff ff 	mov    %rax,-0x7f8(%rbp)
    7481:	48 8d 85 60 f1 ff ff 	lea    -0xea0(%rbp),%rax
    7488:	48 89 85 10 f8 ff ff 	mov    %rax,-0x7f0(%rbp)
    748f:	48 8d 85 60 f1 ff ff 	lea    -0xea0(%rbp),%rax
    7496:	48 89 85 18 f8 ff ff 	mov    %rax,-0x7e8(%rbp)
    749d:	48 8d 85 60 f1 ff ff 	lea    -0xea0(%rbp),%rax
    74a4:	48 89 85 20 f8 ff ff 	mov    %rax,-0x7e0(%rbp)
    74ab:	48 8d 85 60 f1 ff ff 	lea    -0xea0(%rbp),%rax
    74b2:	48 89 85 28 f8 ff ff 	mov    %rax,-0x7d8(%rbp)
    74b9:	48 8d 85 60 f1 ff ff 	lea    -0xea0(%rbp),%rax
    74c0:	48 89 85 30 f8 ff ff 	mov    %rax,-0x7d0(%rbp)
    74c7:	48 8d 85 c0 f4 ff ff 	lea    -0xb40(%rbp),%rax
    74ce:	48 83 c0 0c          	add    $0xc,%rax
    74d2:	48 89 85 38 f8 ff ff 	mov    %rax,-0x7c8(%rbp)
    74d9:	48 8d 85 c0 f4 ff ff 	lea    -0xb40(%rbp),%rax
    74e0:	48 83 c0 0c          	add    $0xc,%rax
    74e4:	48 89 85 40 f8 ff ff 	mov    %rax,-0x7c0(%rbp)
    74eb:	48 8d 85 c0 f4 ff ff 	lea    -0xb40(%rbp),%rax
    74f2:	48 83 c0 0c          	add    $0xc,%rax
    74f6:	48 89 85 48 f8 ff ff 	mov    %rax,-0x7b8(%rbp)
    74fd:	48 8d 85 c0 f4 ff ff 	lea    -0xb40(%rbp),%rax
    7504:	48 83 c0 0c          	add    $0xc,%rax
    7508:	48 89 85 50 f8 ff ff 	mov    %rax,-0x7b0(%rbp)
    750f:	48 8d 85 c0 f4 ff ff 	lea    -0xb40(%rbp),%rax
    7516:	48 83 c0 0c          	add    $0xc,%rax
    751a:	48 89 85 58 f8 ff ff 	mov    %rax,-0x7a8(%rbp)
    7521:	48 8d 85 c0 f4 ff ff 	lea    -0xb40(%rbp),%rax
    7528:	48 83 c0 0c          	add    $0xc,%rax
    752c:	48 89 85 60 f8 ff ff 	mov    %rax,-0x7a0(%rbp)
    7533:	48 8d 85 c0 f4 ff ff 	lea    -0xb40(%rbp),%rax
    753a:	48 83 c0 0c          	add    $0xc,%rax
    753e:	48 89 85 68 f8 ff ff 	mov    %rax,-0x798(%rbp)
    7545:	48 8d 85 60 f1 ff ff 	lea    -0xea0(%rbp),%rax
    754c:	48 89 85 70 f8 ff ff 	mov    %rax,-0x790(%rbp)
    7553:	48 8d 85 60 f1 ff ff 	lea    -0xea0(%rbp),%rax
    755a:	48 89 85 78 f8 ff ff 	mov    %rax,-0x788(%rbp)
    7561:	48 8d 85 60 f1 ff ff 	lea    -0xea0(%rbp),%rax
    7568:	48 89 85 80 f8 ff ff 	mov    %rax,-0x780(%rbp)
    756f:	48 8d 85 60 f1 ff ff 	lea    -0xea0(%rbp),%rax
    7576:	48 89 85 88 f8 ff ff 	mov    %rax,-0x778(%rbp)
    757d:	48 8d 85 60 f1 ff ff 	lea    -0xea0(%rbp),%rax
    7584:	48 89 85 90 f8 ff ff 	mov    %rax,-0x770(%rbp)
    758b:	48 8d 85 60 f1 ff ff 	lea    -0xea0(%rbp),%rax
    7592:	48 89 85 98 f8 ff ff 	mov    %rax,-0x768(%rbp)
    7599:	48 8d 85 60 f1 ff ff 	lea    -0xea0(%rbp),%rax
    75a0:	48 89 85 a0 f8 ff ff 	mov    %rax,-0x760(%rbp)
    75a7:	48 8d 85 c0 f4 ff ff 	lea    -0xb40(%rbp),%rax
    75ae:	48 83 c0 0c          	add    $0xc,%rax
    75b2:	48 89 85 a8 f8 ff ff 	mov    %rax,-0x758(%rbp)
    75b9:	48 8d 85 c0 f4 ff ff 	lea    -0xb40(%rbp),%rax
    75c0:	48 83 c0 0c          	add    $0xc,%rax
    75c4:	48 89 85 b0 f8 ff ff 	mov    %rax,-0x750(%rbp)
    75cb:	48 8d 85 c0 f4 ff ff 	lea    -0xb40(%rbp),%rax
    75d2:	48 83 c0 0c          	add    $0xc,%rax
    75d6:	48 89 85 b8 f8 ff ff 	mov    %rax,-0x748(%rbp)
    75dd:	48 8d 85 c0 f4 ff ff 	lea    -0xb40(%rbp),%rax
    75e4:	48 83 c0 0c          	add    $0xc,%rax
    75e8:	48 89 85 c0 f8 ff ff 	mov    %rax,-0x740(%rbp)
    75ef:	48 8d 85 c0 f4 ff ff 	lea    -0xb40(%rbp),%rax
    75f6:	48 83 c0 0c          	add    $0xc,%rax
    75fa:	48 89 85 c8 f8 ff ff 	mov    %rax,-0x738(%rbp)
    7601:	48 8d 85 c0 f4 ff ff 	lea    -0xb40(%rbp),%rax
    7608:	48 83 c0 0c          	add    $0xc,%rax
    760c:	48 89 85 d0 f8 ff ff 	mov    %rax,-0x730(%rbp)
    7613:	48 8d 85 c0 f4 ff ff 	lea    -0xb40(%rbp),%rax
    761a:	48 83 c0 0c          	add    $0xc,%rax
    761e:	48 89 85 d8 f8 ff ff 	mov    %rax,-0x728(%rbp)
    7625:	48 8d 85 60 f1 ff ff 	lea    -0xea0(%rbp),%rax
    762c:	48 89 85 e0 f8 ff ff 	mov    %rax,-0x720(%rbp)
    7633:	48 8d 85 60 f1 ff ff 	lea    -0xea0(%rbp),%rax
    763a:	48 89 85 e8 f8 ff ff 	mov    %rax,-0x718(%rbp)
    7641:	48 8d 85 60 f1 ff ff 	lea    -0xea0(%rbp),%rax
    7648:	48 89 85 f0 f8 ff ff 	mov    %rax,-0x710(%rbp)
    764f:	48 8d 85 60 f1 ff ff 	lea    -0xea0(%rbp),%rax
    7656:	48 89 85 f8 f8 ff ff 	mov    %rax,-0x708(%rbp)
    765d:	48 8d 85 60 f1 ff ff 	lea    -0xea0(%rbp),%rax
    7664:	48 89 85 00 f9 ff ff 	mov    %rax,-0x700(%rbp)
    766b:	48 8d 85 60 f1 ff ff 	lea    -0xea0(%rbp),%rax
    7672:	48 89 85 08 f9 ff ff 	mov    %rax,-0x6f8(%rbp)
    7679:	48 8d 85 60 f1 ff ff 	lea    -0xea0(%rbp),%rax
    7680:	48 89 85 10 f9 ff ff 	mov    %rax,-0x6f0(%rbp)
    7687:	c7 85 ac f0 ff ff 01 	movl   $0x1,-0xf54(%rbp)
    768e:	00 00 00 
    7691:	eb 20                	jmp    76b3 <func_7+0xb0a>
    7693:	8b 85 84 f0 ff ff    	mov    -0xf7c(%rbp),%eax
    7699:	89 c2                	mov    %eax,%edx
    769b:	48 8b 85 70 f1 ff ff 	mov    -0xe90(%rbp),%rax
    76a2:	89 10                	mov    %edx,(%rax)
    76a4:	8b 85 ac f0 ff ff    	mov    -0xf54(%rbp),%eax
    76aa:	83 e8 01             	sub    $0x1,%eax
    76ad:	89 85 ac f0 ff ff    	mov    %eax,-0xf54(%rbp)
    76b3:	8b 85 ac f0 ff ff    	mov    -0xf54(%rbp),%eax
    76b9:	85 c0                	test   %eax,%eax
    76bb:	79 d6                	jns    7693 <func_7+0xaea>
    76bd:	8b 85 60 f1 ff ff    	mov    -0xea0(%rbp),%eax
    76c3:	48 63 d8             	movslq %eax,%rbx
    76c6:	44 0f b7 a5 74 f0 ff 	movzwl -0xf8c(%rbp),%r12d
    76cd:	ff 
    76ce:	48 c7 05 87 87 01 00 	movq   $0x0,0x18787(%rip)        # 1fe60 <g_335>
    76d5:	00 00 00 00 
    76d9:	4c 8b 2d 80 87 01 00 	mov    0x18780(%rip),%r13        # 1fe60 <g_335>
    76e0:	48 8b 85 78 f0 ff ff 	mov    -0xf88(%rbp),%rax
    76e7:	48 89 c7             	mov    %rax,%rdi
    76ea:	e8 27 e1 ff ff       	callq  5816 <safe_unary_minus_func_int64_t_s>
    76ef:	48 8b 95 68 f1 ff ff 	mov    -0xe98(%rbp),%rdx
    76f6:	48 89 15 6b a8 01 00 	mov    %rdx,0x1a86b(%rip)        # 21f68 <g_1818>
    76fd:	48 8b 35 64 a8 01 00 	mov    0x1a864(%rip),%rsi        # 21f68 <g_1818>
    7704:	48 8b 95 10 f2 ff ff 	mov    -0xdf0(%rbp),%rdx
    770b:	48 8b 8d 08 f2 ff ff 	mov    -0xdf8(%rbp),%rcx
    7712:	48 89 0a             	mov    %rcx,(%rdx)
    7715:	48 8b 95 10 f2 ff ff 	mov    -0xdf0(%rbp),%rdx
    771c:	48 8b 12             	mov    (%rdx),%rdx
    771f:	48 39 d6             	cmp    %rdx,%rsi
    7722:	0f 95 c2             	setne  %dl
    7725:	0f b6 d2             	movzbl %dl,%edx
    7728:	48 39 d0             	cmp    %rdx,%rax
    772b:	0f 94 c0             	sete   %al
    772e:	0f b6 c0             	movzbl %al,%eax
    7731:	4c 21 e8             	and    %r13,%rax
    7734:	49 39 c4             	cmp    %rax,%r12
    7737:	0f 95 c0             	setne  %al
    773a:	0f b6 d0             	movzbl %al,%edx
    773d:	48 8d 05 8c a8 01 00 	lea    0x1a88c(%rip),%rax        # 21fd0 <g_1824>
    7744:	48 85 c0             	test   %rax,%rax
    7747:	0f 95 c0             	setne  %al
    774a:	0f b6 c0             	movzbl %al,%eax
    774d:	39 c2                	cmp    %eax,%edx
    774f:	0f 9e c0             	setle  %al
    7752:	0f b6 d0             	movzbl %al,%edx
    7755:	48 8b 05 ac a1 01 00 	mov    0x1a1ac(%rip),%rax        # 21908 <g_1206>
    775c:	0f b6 00             	movzbl (%rax),%eax
    775f:	0f be c0             	movsbl %al,%eax
    7762:	39 c2                	cmp    %eax,%edx
    7764:	0f 9d c0             	setge  %al
    7767:	0f b6 d0             	movzbl %al,%edx
    776a:	48 8b 85 70 f1 ff ff 	mov    -0xe90(%rbp),%rax
    7771:	8b 00                	mov    (%rax),%eax
    7773:	39 c2                	cmp    %eax,%edx
    7775:	0f 9e c0             	setle  %al
    7778:	0f b6 c0             	movzbl %al,%eax
    777b:	48 89 de             	mov    %rbx,%rsi
    777e:	48 89 c7             	mov    %rax,%rdi
    7781:	e8 2e e2 ff ff       	callq  59b4 <safe_mod_func_int64_t_s_s>
    7786:	48 85 c0             	test   %rax,%rax
    7789:	0f 84 d0 01 00 00    	je     795f <func_7+0xdb6>
    778f:	48 8b 85 88 f0 ff ff 	mov    -0xf78(%rbp),%rax
    7796:	48 c7 00 00 00 00 00 	movq   $0x0,(%rax)
    779d:	48 c7 40 08 00 00 00 	movq   $0x0,0x8(%rax)
    77a4:	00 
    77a5:	48 c7 40 10 00 00 00 	movq   $0x0,0x10(%rax)
    77ac:	00 
    77ad:	c7 40 18 00 00 00 00 	movl   $0x0,0x18(%rax)
    77b4:	48 8b 85 88 f0 ff ff 	mov    -0xf78(%rbp),%rax
    77bb:	0f b6 10             	movzbl (%rax),%edx
    77be:	83 e2 00             	and    $0x0,%edx
    77c1:	83 ca cb             	or     $0xffffffcb,%edx
    77c4:	88 10                	mov    %dl,(%rax)
    77c6:	0f b6 50 01          	movzbl 0x1(%rax),%edx
    77ca:	83 e2 00             	and    $0x0,%edx
    77cd:	83 ca 02             	or     $0x2,%edx
    77d0:	88 50 01             	mov    %dl,0x1(%rax)
    77d3:	0f b6 50 02          	movzbl 0x2(%rax),%edx
    77d7:	83 e2 f8             	and    $0xfffffff8,%edx
    77da:	88 50 02             	mov    %dl,0x2(%rax)
    77dd:	48 8b 85 88 f0 ff ff 	mov    -0xf78(%rbp),%rax
    77e4:	0f b6 50 02          	movzbl 0x2(%rax),%edx
    77e8:	83 e2 07             	and    $0x7,%edx
    77eb:	83 ca 88             	or     $0xffffff88,%edx
    77ee:	88 50 02             	mov    %dl,0x2(%rax)
    77f1:	0f b6 50 03          	movzbl 0x3(%rax),%edx
    77f5:	83 e2 00             	and    $0x0,%edx
    77f8:	83 ca e5             	or     $0xffffffe5,%edx
    77fb:	88 50 03             	mov    %dl,0x3(%rax)
    77fe:	0f b6 50 04          	movzbl 0x4(%rax),%edx
    7802:	83 ca ff             	or     $0xffffffff,%edx
    7805:	88 50 04             	mov    %dl,0x4(%rax)
    7808:	0f b6 50 05          	movzbl 0x5(%rax),%edx
    780c:	83 ca ff             	or     $0xffffffff,%edx
    780f:	88 50 05             	mov    %dl,0x5(%rax)
    7812:	48 8b 85 88 f0 ff ff 	mov    -0xf78(%rbp),%rax
    7819:	0f b6 50 06          	movzbl 0x6(%rax),%edx
    781d:	83 e2 00             	and    $0x0,%edx
    7820:	83 ca 7a             	or     $0x7a,%edx
    7823:	88 50 06             	mov    %dl,0x6(%rax)
    7826:	0f b6 50 07          	movzbl 0x7(%rax),%edx
    782a:	83 e2 00             	and    $0x0,%edx
    782d:	83 ca f7             	or     $0xfffffff7,%edx
    7830:	88 50 07             	mov    %dl,0x7(%rax)
    7833:	0f b6 50 08          	movzbl 0x8(%rax),%edx
    7837:	83 ca ff             	or     $0xffffffff,%edx
    783a:	88 50 08             	mov    %dl,0x8(%rax)
    783d:	0f b6 50 09          	movzbl 0x9(%rax),%edx
    7841:	83 ca 03             	or     $0x3,%edx
    7844:	88 50 09             	mov    %dl,0x9(%rax)
    7847:	48 8b 85 88 f0 ff ff 	mov    -0xf78(%rbp),%rax
    784e:	0f b6 50 0c          	movzbl 0xc(%rax),%edx
    7852:	83 e2 00             	and    $0x0,%edx
    7855:	83 ca ce             	or     $0xffffffce,%edx
    7858:	88 50 0c             	mov    %dl,0xc(%rax)
    785b:	0f b6 50 0d          	movzbl 0xd(%rax),%edx
    785f:	83 e2 00             	and    $0x0,%edx
    7862:	83 ca fd             	or     $0xfffffffd,%edx
    7865:	88 50 0d             	mov    %dl,0xd(%rax)
    7868:	0f b6 50 0e          	movzbl 0xe(%rax),%edx
    786c:	83 ca ff             	or     $0xffffffff,%edx
    786f:	88 50 0e             	mov    %dl,0xe(%rax)
    7872:	48 8b 85 88 f0 ff ff 	mov    -0xf78(%rbp),%rax
    7879:	0f b6 50 0f          	movzbl 0xf(%rax),%edx
    787d:	83 e2 00             	and    $0x0,%edx
    7880:	83 ca 33             	or     $0x33,%edx
    7883:	88 50 0f             	mov    %dl,0xf(%rax)
    7886:	0f b6 50 10          	movzbl 0x10(%rax),%edx
    788a:	83 ca ff             	or     $0xffffffff,%edx
    788d:	88 50 10             	mov    %dl,0x10(%rax)
    7890:	0f b6 50 11          	movzbl 0x11(%rax),%edx
    7894:	83 ca 07             	or     $0x7,%edx
    7897:	88 50 11             	mov    %dl,0x11(%rax)
    789a:	48 8b 85 88 f0 ff ff 	mov    -0xf78(%rbp),%rax
    78a1:	0f b6 50 11          	movzbl 0x11(%rax),%edx
    78a5:	83 e2 07             	and    $0x7,%edx
    78a8:	83 ca 80             	or     $0xffffff80,%edx
    78ab:	88 50 11             	mov    %dl,0x11(%rax)
    78ae:	0f b6 50 12          	movzbl 0x12(%rax),%edx
    78b2:	83 e2 00             	and    $0x0,%edx
    78b5:	83 ca c1             	or     $0xffffffc1,%edx
    78b8:	88 50 12             	mov    %dl,0x12(%rax)
    78bb:	0f b6 50 13          	movzbl 0x13(%rax),%edx
    78bf:	83 ca ff             	or     $0xffffffff,%edx
    78c2:	88 50 13             	mov    %dl,0x13(%rax)
    78c5:	0f b6 50 14          	movzbl 0x14(%rax),%edx
    78c9:	83 ca 7f             	or     $0x7f,%edx
    78cc:	88 50 14             	mov    %dl,0x14(%rax)
    78cf:	48 8b 85 88 f0 ff ff 	mov    -0xf78(%rbp),%rax
    78d6:	0f b6 50 14          	movzbl 0x14(%rax),%edx
    78da:	83 ca 80             	or     $0xffffff80,%edx
    78dd:	88 50 14             	mov    %dl,0x14(%rax)
    78e0:	0f b6 50 15          	movzbl 0x15(%rax),%edx
    78e4:	83 e2 00             	and    $0x0,%edx
    78e7:	83 ca 48             	or     $0x48,%edx
    78ea:	88 50 15             	mov    %dl,0x15(%rax)
    78ed:	0f b6 50 16          	movzbl 0x16(%rax),%edx
    78f1:	83 e2 00             	and    $0x0,%edx
    78f4:	83 ca e1             	or     $0xffffffe1,%edx
    78f7:	88 50 16             	mov    %dl,0x16(%rax)
    78fa:	0f b6 50 17          	movzbl 0x17(%rax),%edx
    78fe:	83 ca ff             	or     $0xffffffff,%edx
    7901:	88 50 17             	mov    %dl,0x17(%rax)
    7904:	0f b6 50 18          	movzbl 0x18(%rax),%edx
    7908:	83 ca 1f             	or     $0x1f,%edx
    790b:	88 50 18             	mov    %dl,0x18(%rax)
    790e:	48 8b 85 88 f0 ff ff 	mov    -0xf78(%rbp),%rax
    7915:	0f b6 50 18          	movzbl 0x18(%rax),%edx
    7919:	83 e2 1f             	and    $0x1f,%edx
    791c:	83 ca 40             	or     $0x40,%edx
    791f:	88 50 18             	mov    %dl,0x18(%rax)
    7922:	0f b6 50 19          	movzbl 0x19(%rax),%edx
    7926:	83 e2 e0             	and    $0xffffffe0,%edx
    7929:	83 ca 01             	or     $0x1,%edx
    792c:	88 50 19             	mov    %dl,0x19(%rax)
    792f:	48 8b 85 88 f0 ff ff 	mov    -0xf78(%rbp),%rax
    7936:	0f b6 50 19          	movzbl 0x19(%rax),%edx
    793a:	83 e2 1f             	and    $0x1f,%edx
    793d:	83 ca 40             	or     $0x40,%edx
    7940:	88 50 19             	mov    %dl,0x19(%rax)
    7943:	0f b6 50 1a          	movzbl 0x1a(%rax),%edx
    7947:	83 e2 00             	and    $0x0,%edx
    794a:	83 ca fc             	or     $0xfffffffc,%edx
    794d:	88 50 1a             	mov    %dl,0x1a(%rax)
    7950:	0f b6 50 1b          	movzbl 0x1b(%rax),%edx
    7954:	83 ca 01             	or     $0x1,%edx
    7957:	88 50 1b             	mov    %dl,0x1b(%rax)
    795a:	e9 cf 22 00 00       	jmpq   9c2e <func_7+0x3085>
    795f:	48 8d 05 0a 85 01 00 	lea    0x1850a(%rip),%rax        # 1fe70 <g_481>
    7966:	48 89 85 20 f2 ff ff 	mov    %rax,-0xde0(%rbp)
    796d:	48 8d 05 74 ab 01 00 	lea    0x1ab74(%rip),%rax        # 224e8 <g_1706>
    7974:	48 89 85 28 f2 ff ff 	mov    %rax,-0xdd8(%rbp)
    797b:	8b 85 f4 f0 ff ff    	mov    -0xf0c(%rbp),%eax
    7981:	0f be d8             	movsbl %al,%ebx
    7984:	48 8b 05 cd 88 01 00 	mov    0x188cd(%rip),%rax        # 20258 <g_1820+0x18>
    798b:	25 ff ff 07 00       	and    $0x7ffff,%eax
    7990:	44 0f bf e0          	movswl %ax,%r12d
    7994:	48 8b 05 6d 9f 01 00 	mov    0x19f6d(%rip),%rax        # 21908 <g_1206>
    799b:	0f b6 00             	movzbl (%rax),%eax
    799e:	44 0f be e8          	movsbl %al,%r13d
    79a2:	48 8b 85 70 f1 ff ff 	mov    -0xe90(%rbp),%rax
    79a9:	8b 00                	mov    (%rax),%eax
    79ab:	44 0f be f0          	movsbl %al,%r14d
    79af:	48 8b 85 10 fa ff ff 	mov    -0x5f0(%rbp),%rax
    79b6:	41 89 c7             	mov    %eax,%r15d
    79b9:	48 8b 85 20 f2 ff ff 	mov    -0xde0(%rbp),%rax
    79c0:	0f b6 00             	movzbl (%rax),%eax
    79c3:	83 e0 b5             	and    $0xffffffb5,%eax
    79c6:	89 c2                	mov    %eax,%edx
    79c8:	48 8b 85 20 f2 ff ff 	mov    -0xde0(%rbp),%rax
    79cf:	88 10                	mov    %dl,(%rax)
    79d1:	48 8b 85 20 f2 ff ff 	mov    -0xde0(%rbp),%rax
    79d8:	0f b6 00             	movzbl (%rax),%eax
    79db:	0f b6 c0             	movzbl %al,%eax
    79de:	89 85 00 f1 ff ff    	mov    %eax,-0xf00(%rbp)
    79e4:	8b 85 00 f1 ff ff    	mov    -0xf00(%rbp),%eax
    79ea:	0f b6 c0             	movzbl %al,%eax
    79ed:	be 07 00 00 00       	mov    $0x7,%esi
    79f2:	89 c7                	mov    %eax,%edi
    79f4:	e8 c5 e2 ff ff       	callq  5cbe <safe_rshift_func_uint8_t_u_u>
    79f9:	84 c0                	test   %al,%al
    79fb:	75 41                	jne    7a3e <func_7+0xe95>
    79fd:	48 8b 05 6c 9b 01 00 	mov    0x19b6c(%rip),%rax        # 21570 <g_260>
    7a04:	0f b7 00             	movzwl (%rax),%eax
    7a07:	0f b7 d0             	movzwl %ax,%edx
    7a0a:	8b 85 84 f0 ff ff    	mov    -0xf7c(%rbp),%eax
    7a10:	39 c2                	cmp    %eax,%edx
    7a12:	0f 95 c0             	setne  %al
    7a15:	0f b6 c0             	movzbl %al,%eax
    7a18:	be 07 00 00 00       	mov    $0x7,%esi
    7a1d:	89 c7                	mov    %eax,%edi
    7a1f:	e8 69 e2 ff ff       	callq  5c8d <safe_rshift_func_uint8_t_u_s>
    7a24:	0f b6 c0             	movzbl %al,%eax
    7a27:	48 be 1e 8f ae 92 6b 	movabs $0xf12d276b92ae8f1e,%rsi
    7a2e:	27 2d f1 
    7a31:	48 89 c7             	mov    %rax,%rdi
    7a34:	e8 08 de ff ff       	callq  5841 <safe_add_func_int64_t_s_s>
    7a39:	48 85 c0             	test   %rax,%rax
    7a3c:	74 07                	je     7a45 <func_7+0xe9c>
    7a3e:	ba 01 00 00 00       	mov    $0x1,%edx
    7a43:	eb 05                	jmp    7a4a <func_7+0xea1>
    7a45:	ba 00 00 00 00       	mov    $0x0,%edx
    7a4a:	48 8b 05 1f 9b 01 00 	mov    0x19b1f(%rip),%rax        # 21570 <g_260>
    7a51:	66 89 10             	mov    %dx,(%rax)
    7a54:	0f b7 00             	movzwl (%rax),%eax
    7a57:	0f b7 c0             	movzwl %ax,%eax
    7a5a:	89 85 60 f1 ff ff    	mov    %eax,-0xea0(%rbp)
    7a60:	8b 85 60 f1 ff ff    	mov    -0xea0(%rbp),%eax
    7a66:	0f b7 c0             	movzwl %ax,%eax
    7a69:	44 89 fe             	mov    %r15d,%esi
    7a6c:	89 c7                	mov    %eax,%edi
    7a6e:	e8 07 e4 ff ff       	callq  5e7a <safe_rshift_func_uint16_t_u_u>
    7a73:	0f be c0             	movsbl %al,%eax
    7a76:	44 89 f6             	mov    %r14d,%esi
    7a79:	89 c7                	mov    %eax,%edi
    7a7b:	e8 ea d7 ff ff       	callq  526a <safe_div_func_int8_t_s_s>
    7a80:	84 c0                	test   %al,%al
    7a82:	0f 94 c0             	sete   %al
    7a85:	0f b6 c0             	movzbl %al,%eax
    7a88:	44 89 ee             	mov    %r13d,%esi
    7a8b:	89 c7                	mov    %eax,%edi
    7a8d:	e8 42 d7 ff ff       	callq  51d4 <safe_add_func_int8_t_s_s>
    7a92:	0f be c0             	movsbl %al,%eax
    7a95:	44 89 e6             	mov    %r12d,%esi
    7a98:	89 c7                	mov    %eax,%edi
    7a9a:	e8 77 d9 ff ff       	callq  5416 <safe_mod_func_int16_t_s_s>
    7a9f:	44 8b a5 e0 f0 ff ff 	mov    -0xf20(%rbp),%r12d
    7aa6:	8b 85 84 f0 ff ff    	mov    -0xf7c(%rbp),%eax
    7aac:	41 89 c5             	mov    %eax,%r13d
    7aaf:	be 01 00 00 00       	mov    $0x1,%esi
    7ab4:	bf a1 00 00 00       	mov    $0xa1,%edi
    7ab9:	e8 d5 e0 ff ff       	callq  5b93 <safe_mul_func_uint8_t_u_u>
    7abe:	0f b6 c0             	movzbl %al,%eax
    7ac1:	44 89 ee             	mov    %r13d,%esi
    7ac4:	89 c7                	mov    %eax,%edi
    7ac6:	e8 7d e3 ff ff       	callq  5e48 <safe_rshift_func_uint16_t_u_s>
    7acb:	0f be c0             	movsbl %al,%eax
    7ace:	44 89 e6             	mov    %r12d,%esi
    7ad1:	89 c7                	mov    %eax,%edi
    7ad3:	e8 16 d8 ff ff       	callq  52ee <safe_lshift_func_int8_t_s_u>
    7ad8:	84 c0                	test   %al,%al
    7ada:	75 08                	jne    7ae4 <func_7+0xf3b>
    7adc:	8b 85 84 f0 ff ff    	mov    -0xf7c(%rbp),%eax
    7ae2:	85 c0                	test   %eax,%eax
    7ae4:	48 8b 85 70 f1 ff ff 	mov    -0xe90(%rbp),%rax
    7aeb:	c7 00 01 00 00 00    	movl   $0x1,(%rax)
    7af1:	48 8b 05 68 a4 01 00 	mov    0x1a468(%rip),%rax        # 21f60 <g_1705>
    7af8:	48 8b 10             	mov    (%rax),%rdx
    7afb:	48 8b 85 28 f2 ff ff 	mov    -0xdd8(%rbp),%rax
    7b02:	48 89 10             	mov    %rdx,(%rax)
    7b05:	48 8b 85 28 f2 ff ff 	mov    -0xdd8(%rbp),%rax
    7b0c:	48 8b 00             	mov    (%rax),%rax
    7b0f:	48 85 c0             	test   %rax,%rax
    7b12:	0f 94 c0             	sete   %al
    7b15:	0f b6 d0             	movzbl %al,%edx
    7b18:	48 8b 85 10 fa ff ff 	mov    -0x5f0(%rbp),%rax
    7b1f:	48 85 c0             	test   %rax,%rax
    7b22:	74 1b                	je     7b3f <func_7+0xf96>
    7b24:	48 8b 85 80 f1 ff ff 	mov    -0xe80(%rbp),%rax
    7b2b:	8b 08                	mov    (%rax),%ecx
    7b2d:	0f b7 85 74 f0 ff ff 	movzwl -0xf8c(%rbp),%eax
    7b34:	39 c1                	cmp    %eax,%ecx
    7b36:	74 07                	je     7b3f <func_7+0xf96>
    7b38:	b8 01 00 00 00       	mov    $0x1,%eax
    7b3d:	eb 05                	jmp    7b44 <func_7+0xf9b>
    7b3f:	b8 00 00 00 00       	mov    $0x0,%eax
    7b44:	98                   	cwtl   
    7b45:	89 d6                	mov    %edx,%esi
    7b47:	89 c7                	mov    %eax,%edi
    7b49:	e8 65 d8 ff ff       	callq  53b3 <safe_add_func_int16_t_s_s>
    7b4e:	0f be c0             	movsbl %al,%eax
    7b51:	89 de                	mov    %ebx,%esi
    7b53:	89 c7                	mov    %eax,%edi
    7b55:	e8 98 d6 ff ff       	callq  51f2 <safe_sub_func_int8_t_s_s>
    7b5a:	84 c0                	test   %al,%al
    7b5c:	74 11                	je     7b6f <func_7+0xfc6>
    7b5e:	8b 85 80 f0 ff ff    	mov    -0xf80(%rbp),%eax
    7b64:	85 c0                	test   %eax,%eax
    7b66:	74 07                	je     7b6f <func_7+0xfc6>
    7b68:	b8 01 00 00 00       	mov    $0x1,%eax
    7b6d:	eb 05                	jmp    7b74 <func_7+0xfcb>
    7b6f:	b8 00 00 00 00       	mov    $0x0,%eax
    7b74:	0f b6 c0             	movzbl %al,%eax
    7b77:	be 14 00 00 00       	mov    $0x14,%esi
    7b7c:	89 c7                	mov    %eax,%edi
    7b7e:	e8 2b e0 ff ff       	callq  5bae <safe_mod_func_uint8_t_u_u>
    7b83:	0f b6 c0             	movzbl %al,%eax
    7b86:	66 21 85 a6 f0 ff ff 	and    %ax,-0xf5a(%rbp)
    7b8d:	66 83 bd a6 f0 ff ff 	cmpw   $0x0,-0xf5a(%rbp)
    7b94:	00 
    7b95:	74 07                	je     7b9e <func_7+0xff5>
    7b97:	ba 01 00 00 00       	mov    $0x1,%edx
    7b9c:	eb 05                	jmp    7ba3 <func_7+0xffa>
    7b9e:	ba 00 00 00 00       	mov    $0x0,%edx
    7ba3:	48 8b 85 80 f1 ff ff 	mov    -0xe80(%rbp),%rax
    7baa:	89 10                	mov    %edx,(%rax)
    7bac:	48 83 85 98 f1 ff ff 	addq   $0x1,-0xe68(%rbp)
    7bb3:	01 
    7bb4:	eb 19                	jmp    7bcf <func_7+0x1026>
    7bb6:	48 b8 f8 0f ea bb cb 	movabs $0x9ca6e2cbbbea0ff8,%rax
    7bbd:	e2 a6 9c 
    7bc0:	48 89 85 00 f2 ff ff 	mov    %rax,-0xe00(%rbp)
    7bc7:	48 83 ad 00 f2 ff ff 	subq   $0x1,-0xe00(%rbp)
    7bce:	01 
    7bcf:	48 8b 05 5a 82 01 00 	mov    0x1825a(%rip),%rax        # 1fe30 <g_251>
    7bd6:	be 07 00 00 00       	mov    $0x7,%esi
    7bdb:	48 89 c7             	mov    %rax,%rdi
    7bde:	e8 4b e4 ff ff       	callq  602e <safe_add_func_uint64_t_u_u>
    7be3:	48 89 05 46 82 01 00 	mov    %rax,0x18246(%rip)        # 1fe30 <g_251>
    7bea:	48 8b 05 3f 82 01 00 	mov    0x1823f(%rip),%rax        # 1fe30 <g_251>
    7bf1:	48 83 f8 e8          	cmp    $0xffffffffffffffe8,%rax
    7bf5:	0f 8d 09 f7 ff ff    	jge    7304 <func_7+0x75b>
    7bfb:	e9 ab 05 00 00       	jmpq   81ab <func_7+0x1602>
    7c00:	48 8d 05 b9 78 01 00 	lea    0x178b9(%rip),%rax        # 1f4c0 <g_140>
    7c07:	48 89 85 c8 f1 ff ff 	mov    %rax,-0xe38(%rbp)
    7c0e:	48 c7 85 d0 f1 ff ff 	movq   $0x0,-0xe30(%rbp)
    7c15:	00 00 00 00 
    7c19:	c7 85 dc f0 ff ff 67 	movl   $0x3c52dc67,-0xf24(%rbp)
    7c20:	dc 52 3c 
    7c23:	48 8d 05 16 82 01 00 	lea    0x18216(%rip),%rax        # 1fe40 <g_277>
    7c2a:	48 89 85 d8 f1 ff ff 	mov    %rax,-0xe28(%rbp)
    7c31:	48 8b 85 50 f1 ff ff 	mov    -0xeb0(%rbp),%rax
    7c38:	48 39 85 c8 f1 ff ff 	cmp    %rax,-0xe38(%rbp)
    7c3f:	0f 94 c2             	sete   %dl
    7c42:	48 8b 05 bf 9c 01 00 	mov    0x19cbf(%rip),%rax        # 21908 <g_1206>
    7c49:	88 10                	mov    %dl,(%rax)
    7c4b:	48 8b 05 16 86 01 00 	mov    0x18616(%rip),%rax        # 20268 <g_1877>
    7c52:	8b 85 80 f0 ff ff    	mov    -0xf80(%rbp),%eax
    7c58:	85 c0                	test   %eax,%eax
    7c5a:	0f 84 e4 01 00 00    	je     7e44 <func_7+0x129b>
    7c60:	c6 05 75 83 01 00 00 	movb   $0x0,0x18375(%rip)        # 1ffdc <g_962>
    7c67:	90                   	nop
    7c68:	0f b6 05 6d 83 01 00 	movzbl 0x1836d(%rip),%eax        # 1ffdc <g_962>
    7c6f:	3c 02                	cmp    $0x2,%al
    7c71:	0f 87 9a 03 00 00    	ja     8011 <func_7+0x1468>
    7c77:	48 8b 85 88 f0 ff ff 	mov    -0xf78(%rbp),%rax
    7c7e:	48 c7 00 00 00 00 00 	movq   $0x0,(%rax)
    7c85:	48 c7 40 08 00 00 00 	movq   $0x0,0x8(%rax)
    7c8c:	00 
    7c8d:	48 c7 40 10 00 00 00 	movq   $0x0,0x10(%rax)
    7c94:	00 
    7c95:	c7 40 18 00 00 00 00 	movl   $0x0,0x18(%rax)
    7c9c:	48 8b 85 88 f0 ff ff 	mov    -0xf78(%rbp),%rax
    7ca3:	0f b6 10             	movzbl (%rax),%edx
    7ca6:	83 e2 00             	and    $0x0,%edx
    7ca9:	83 ca 7f             	or     $0x7f,%edx
    7cac:	88 10                	mov    %dl,(%rax)
    7cae:	0f b6 50 01          	movzbl 0x1(%rax),%edx
    7cb2:	83 e2 00             	and    $0x0,%edx
    7cb5:	83 ca 01             	or     $0x1,%edx
    7cb8:	88 50 01             	mov    %dl,0x1(%rax)
    7cbb:	0f b6 50 02          	movzbl 0x2(%rax),%edx
    7cbf:	83 e2 f8             	and    $0xfffffff8,%edx
    7cc2:	88 50 02             	mov    %dl,0x2(%rax)
    7cc5:	48 8b 85 88 f0 ff ff 	mov    -0xf78(%rbp),%rax
    7ccc:	0f b6 50 02          	movzbl 0x2(%rax),%edx
    7cd0:	83 e2 07             	and    $0x7,%edx
    7cd3:	88 50 02             	mov    %dl,0x2(%rax)
    7cd6:	0f b6 50 03          	movzbl 0x3(%rax),%edx
    7cda:	83 e2 00             	and    $0x0,%edx
    7cdd:	83 ca 9c             	or     $0xffffff9c,%edx
    7ce0:	88 50 03             	mov    %dl,0x3(%rax)
    7ce3:	0f b6 50 04          	movzbl 0x4(%rax),%edx
    7ce7:	83 ca ff             	or     $0xffffffff,%edx
    7cea:	88 50 04             	mov    %dl,0x4(%rax)
    7ced:	0f b6 50 05          	movzbl 0x5(%rax),%edx
    7cf1:	83 ca ff             	or     $0xffffffff,%edx
    7cf4:	88 50 05             	mov    %dl,0x5(%rax)
    7cf7:	48 8b 85 88 f0 ff ff 	mov    -0xf78(%rbp),%rax
    7cfe:	0f b6 50 06          	movzbl 0x6(%rax),%edx
    7d02:	83 e2 00             	and    $0x0,%edx
    7d05:	83 ca 7d             	or     $0x7d,%edx
    7d08:	88 50 06             	mov    %dl,0x6(%rax)
    7d0b:	0f b6 50 07          	movzbl 0x7(%rax),%edx
    7d0f:	83 e2 00             	and    $0x0,%edx
    7d12:	83 ca e7             	or     $0xffffffe7,%edx
    7d15:	88 50 07             	mov    %dl,0x7(%rax)
    7d18:	0f b6 50 08          	movzbl 0x8(%rax),%edx
    7d1c:	83 ca ff             	or     $0xffffffff,%edx
    7d1f:	88 50 08             	mov    %dl,0x8(%rax)
    7d22:	0f b6 50 09          	movzbl 0x9(%rax),%edx
    7d26:	83 ca 03             	or     $0x3,%edx
    7d29:	88 50 09             	mov    %dl,0x9(%rax)
    7d2c:	48 8b 85 88 f0 ff ff 	mov    -0xf78(%rbp),%rax
    7d33:	0f b6 50 0c          	movzbl 0xc(%rax),%edx
    7d37:	83 e2 00             	and    $0x0,%edx
    7d3a:	83 ca b5             	or     $0xffffffb5,%edx
    7d3d:	88 50 0c             	mov    %dl,0xc(%rax)
    7d40:	0f b6 50 0d          	movzbl 0xd(%rax),%edx
    7d44:	83 e2 00             	and    $0x0,%edx
    7d47:	83 ca fa             	or     $0xfffffffa,%edx
    7d4a:	88 50 0d             	mov    %dl,0xd(%rax)
    7d4d:	0f b6 50 0e          	movzbl 0xe(%rax),%edx
    7d51:	83 ca ff             	or     $0xffffffff,%edx
    7d54:	88 50 0e             	mov    %dl,0xe(%rax)
    7d57:	48 8b 85 88 f0 ff ff 	mov    -0xf78(%rbp),%rax
    7d5e:	0f b6 50 0f          	movzbl 0xf(%rax),%edx
    7d62:	83 e2 00             	and    $0x0,%edx
    7d65:	83 ca 90             	or     $0xffffff90,%edx
    7d68:	88 50 0f             	mov    %dl,0xf(%rax)
    7d6b:	0f b6 50 10          	movzbl 0x10(%rax),%edx
    7d6f:	83 e2 00             	and    $0x0,%edx
    7d72:	88 50 10             	mov    %dl,0x10(%rax)
    7d75:	0f b6 50 11          	movzbl 0x11(%rax),%edx
    7d79:	83 e2 f8             	and    $0xfffffff8,%edx
    7d7c:	88 50 11             	mov    %dl,0x11(%rax)
    7d7f:	48 8b 85 88 f0 ff ff 	mov    -0xf78(%rbp),%rax
    7d86:	0f b6 50 11          	movzbl 0x11(%rax),%edx
    7d8a:	83 e2 07             	and    $0x7,%edx
    7d8d:	83 ca f0             	or     $0xfffffff0,%edx
    7d90:	88 50 11             	mov    %dl,0x11(%rax)
    7d93:	0f b6 50 12          	movzbl 0x12(%rax),%edx
    7d97:	83 e2 00             	and    $0x0,%edx
    7d9a:	83 ca 70             	or     $0x70,%edx
    7d9d:	88 50 12             	mov    %dl,0x12(%rax)
    7da0:	0f b6 50 13          	movzbl 0x13(%rax),%edx
    7da4:	83 e2 00             	and    $0x0,%edx
    7da7:	83 ca 01             	or     $0x1,%edx
    7daa:	88 50 13             	mov    %dl,0x13(%rax)
    7dad:	0f b6 50 14          	movzbl 0x14(%rax),%edx
    7db1:	83 e2 80             	and    $0xffffff80,%edx
    7db4:	88 50 14             	mov    %dl,0x14(%rax)
    7db7:	48 8b 85 88 f0 ff ff 	mov    -0xf78(%rbp),%rax
    7dbe:	0f b6 50 14          	movzbl 0x14(%rax),%edx
    7dc2:	83 e2 7f             	and    $0x7f,%edx
    7dc5:	88 50 14             	mov    %dl,0x14(%rax)
    7dc8:	0f b6 50 15          	movzbl 0x15(%rax),%edx
    7dcc:	83 e2 00             	and    $0x0,%edx
    7dcf:	83 ca 2e             	or     $0x2e,%edx
    7dd2:	88 50 15             	mov    %dl,0x15(%rax)
    7dd5:	0f b6 50 16          	movzbl 0x16(%rax),%edx
    7dd9:	83 e2 00             	and    $0x0,%edx
    7ddc:	83 ca f0             	or     $0xfffffff0,%edx
    7ddf:	88 50 16             	mov    %dl,0x16(%rax)
    7de2:	0f b6 50 17          	movzbl 0x17(%rax),%edx
    7de6:	83 ca ff             	or     $0xffffffff,%edx
    7de9:	88 50 17             	mov    %dl,0x17(%rax)
    7dec:	0f b6 50 18          	movzbl 0x18(%rax),%edx
    7df0:	83 ca 1f             	or     $0x1f,%edx
    7df3:	88 50 18             	mov    %dl,0x18(%rax)
    7df6:	48 8b 85 88 f0 ff ff 	mov    -0xf78(%rbp),%rax
    7dfd:	0f b6 50 18          	movzbl 0x18(%rax),%edx
    7e01:	83 e2 1f             	and    $0x1f,%edx
    7e04:	83 ca 60             	or     $0x60,%edx
    7e07:	88 50 18             	mov    %dl,0x18(%rax)
    7e0a:	0f b6 50 19          	movzbl 0x19(%rax),%edx
    7e0e:	83 e2 e0             	and    $0xffffffe0,%edx
    7e11:	88 50 19             	mov    %dl,0x19(%rax)
    7e14:	48 8b 85 88 f0 ff ff 	mov    -0xf78(%rbp),%rax
    7e1b:	0f b6 50 19          	movzbl 0x19(%rax),%edx
    7e1f:	83 e2 1f             	and    $0x1f,%edx
    7e22:	83 ca c0             	or     $0xffffffc0,%edx
    7e25:	88 50 19             	mov    %dl,0x19(%rax)
    7e28:	0f b6 50 1a          	movzbl 0x1a(%rax),%edx
    7e2c:	83 e2 00             	and    $0x0,%edx
    7e2f:	83 ca 03             	or     $0x3,%edx
    7e32:	88 50 1a             	mov    %dl,0x1a(%rax)
    7e35:	0f b6 50 1b          	movzbl 0x1b(%rax),%edx
    7e39:	83 e2 fe             	and    $0xfffffffe,%edx
    7e3c:	88 50 1b             	mov    %dl,0x1b(%rax)
    7e3f:	e9 ea 1d 00 00       	jmpq   9c2e <func_7+0x3085>
    7e44:	48 8b 85 88 f0 ff ff 	mov    -0xf78(%rbp),%rax
    7e4b:	48 c7 00 00 00 00 00 	movq   $0x0,(%rax)
    7e52:	48 c7 40 08 00 00 00 	movq   $0x0,0x8(%rax)
    7e59:	00 
    7e5a:	48 c7 40 10 00 00 00 	movq   $0x0,0x10(%rax)
    7e61:	00 
    7e62:	c7 40 18 00 00 00 00 	movl   $0x0,0x18(%rax)
    7e69:	48 8b 85 88 f0 ff ff 	mov    -0xf78(%rbp),%rax
    7e70:	0f b6 10             	movzbl (%rax),%edx
    7e73:	83 e2 00             	and    $0x0,%edx
    7e76:	83 ca 26             	or     $0x26,%edx
    7e79:	88 10                	mov    %dl,(%rax)
    7e7b:	0f b6 50 01          	movzbl 0x1(%rax),%edx
    7e7f:	83 e2 00             	and    $0x0,%edx
    7e82:	88 50 01             	mov    %dl,0x1(%rax)
    7e85:	0f b6 50 02          	movzbl 0x2(%rax),%edx
    7e89:	83 e2 f8             	and    $0xfffffff8,%edx
    7e8c:	88 50 02             	mov    %dl,0x2(%rax)
    7e8f:	48 8b 85 88 f0 ff ff 	mov    -0xf78(%rbp),%rax
    7e96:	0f b6 50 02          	movzbl 0x2(%rax),%edx
    7e9a:	83 e2 07             	and    $0x7,%edx
    7e9d:	88 50 02             	mov    %dl,0x2(%rax)
    7ea0:	0f b6 50 03          	movzbl 0x3(%rax),%edx
    7ea4:	83 e2 00             	and    $0x0,%edx
    7ea7:	83 ca bb             	or     $0xffffffbb,%edx
    7eaa:	88 50 03             	mov    %dl,0x3(%rax)
    7ead:	0f b6 50 04          	movzbl 0x4(%rax),%edx
    7eb1:	83 e2 00             	and    $0x0,%edx
    7eb4:	83 ca fd             	or     $0xfffffffd,%edx
    7eb7:	88 50 04             	mov    %dl,0x4(%rax)
    7eba:	0f b6 50 05          	movzbl 0x5(%rax),%edx
    7ebe:	83 ca ff             	or     $0xffffffff,%edx
    7ec1:	88 50 05             	mov    %dl,0x5(%rax)
    7ec4:	48 8b 85 88 f0 ff ff 	mov    -0xf78(%rbp),%rax
    7ecb:	0f b6 50 06          	movzbl 0x6(%rax),%edx
    7ecf:	83 e2 00             	and    $0x0,%edx
    7ed2:	83 ca d9             	or     $0xffffffd9,%edx
    7ed5:	88 50 06             	mov    %dl,0x6(%rax)
    7ed8:	0f b6 50 07          	movzbl 0x7(%rax),%edx
    7edc:	83 e2 00             	and    $0x0,%edx
    7edf:	83 ca fe             	or     $0xfffffffe,%edx
    7ee2:	88 50 07             	mov    %dl,0x7(%rax)
    7ee5:	0f b6 50 08          	movzbl 0x8(%rax),%edx
    7ee9:	83 ca ff             	or     $0xffffffff,%edx
    7eec:	88 50 08             	mov    %dl,0x8(%rax)
    7eef:	0f b6 50 09          	movzbl 0x9(%rax),%edx
    7ef3:	83 ca 03             	or     $0x3,%edx
    7ef6:	88 50 09             	mov    %dl,0x9(%rax)
    7ef9:	48 8b 85 88 f0 ff ff 	mov    -0xf78(%rbp),%rax
    7f00:	0f b6 50 0c          	movzbl 0xc(%rax),%edx
    7f04:	83 e2 00             	and    $0x0,%edx
    7f07:	83 ca 42             	or     $0x42,%edx
    7f0a:	88 50 0c             	mov    %dl,0xc(%rax)
    7f0d:	0f b6 50 0d          	movzbl 0xd(%rax),%edx
    7f11:	83 e2 00             	and    $0x0,%edx
    7f14:	83 ca 0f             	or     $0xf,%edx
    7f17:	88 50 0d             	mov    %dl,0xd(%rax)
    7f1a:	0f b6 50 0e          	movzbl 0xe(%rax),%edx
    7f1e:	83 e2 00             	and    $0x0,%edx
    7f21:	88 50 0e             	mov    %dl,0xe(%rax)
    7f24:	48 8b 85 88 f0 ff ff 	mov    -0xf78(%rbp),%rax
    7f2b:	0f b6 50 0f          	movzbl 0xf(%rax),%edx
    7f2f:	83 e2 00             	and    $0x0,%edx
    7f32:	83 ca 42             	or     $0x42,%edx
    7f35:	88 50 0f             	mov    %dl,0xf(%rax)
    7f38:	0f b6 50 10          	movzbl 0x10(%rax),%edx
    7f3c:	83 e2 00             	and    $0x0,%edx
    7f3f:	83 ca fd             	or     $0xfffffffd,%edx
    7f42:	88 50 10             	mov    %dl,0x10(%rax)
    7f45:	0f b6 50 11          	movzbl 0x11(%rax),%edx
    7f49:	83 ca 07             	or     $0x7,%edx
    7f4c:	88 50 11             	mov    %dl,0x11(%rax)
    7f4f:	48 8b 85 88 f0 ff ff 	mov    -0xf78(%rbp),%rax
    7f56:	0f b6 50 11          	movzbl 0x11(%rax),%edx
    7f5a:	83 e2 07             	and    $0x7,%edx
    7f5d:	83 ca d8             	or     $0xffffffd8,%edx
    7f60:	88 50 11             	mov    %dl,0x11(%rax)
    7f63:	0f b6 50 12          	movzbl 0x12(%rax),%edx
    7f67:	83 e2 00             	and    $0x0,%edx
    7f6a:	83 ca 2a             	or     $0x2a,%edx
    7f6d:	88 50 12             	mov    %dl,0x12(%rax)
    7f70:	0f b6 50 13          	movzbl 0x13(%rax),%edx
    7f74:	83 ca ff             	or     $0xffffffff,%edx
    7f77:	88 50 13             	mov    %dl,0x13(%rax)
    7f7a:	0f b6 50 14          	movzbl 0x14(%rax),%edx
    7f7e:	83 ca 7f             	or     $0x7f,%edx
    7f81:	88 50 14             	mov    %dl,0x14(%rax)
    7f84:	48 8b 85 88 f0 ff ff 	mov    -0xf78(%rbp),%rax
    7f8b:	0f b6 50 14          	movzbl 0x14(%rax),%edx
    7f8f:	83 e2 7f             	and    $0x7f,%edx
    7f92:	88 50 14             	mov    %dl,0x14(%rax)
    7f95:	0f b6 50 15          	movzbl 0x15(%rax),%edx
    7f99:	83 e2 00             	and    $0x0,%edx
    7f9c:	83 ca c3             	or     $0xffffffc3,%edx
    7f9f:	88 50 15             	mov    %dl,0x15(%rax)
    7fa2:	0f b6 50 16          	movzbl 0x16(%rax),%edx
    7fa6:	83 e2 00             	and    $0x0,%edx
    7fa9:	83 ca 28             	or     $0x28,%edx
    7fac:	88 50 16             	mov    %dl,0x16(%rax)
    7faf:	0f b6 50 17          	movzbl 0x17(%rax),%edx
    7fb3:	83 e2 00             	and    $0x0,%edx
    7fb6:	88 50 17             	mov    %dl,0x17(%rax)
    7fb9:	0f b6 50 18          	movzbl 0x18(%rax),%edx
    7fbd:	83 e2 e0             	and    $0xffffffe0,%edx
    7fc0:	88 50 18             	mov    %dl,0x18(%rax)
    7fc3:	48 8b 85 88 f0 ff ff 	mov    -0xf78(%rbp),%rax
    7fca:	0f b6 50 18          	movzbl 0x18(%rax),%edx
    7fce:	83 e2 1f             	and    $0x1f,%edx
    7fd1:	83 ca c0             	or     $0xffffffc0,%edx
    7fd4:	88 50 18             	mov    %dl,0x18(%rax)
    7fd7:	0f b6 50 19          	movzbl 0x19(%rax),%edx
    7fdb:	83 e2 e0             	and    $0xffffffe0,%edx
    7fde:	83 ca 01             	or     $0x1,%edx
    7fe1:	88 50 19             	mov    %dl,0x19(%rax)
    7fe4:	48 8b 85 88 f0 ff ff 	mov    -0xf78(%rbp),%rax
    7feb:	0f b6 50 19          	movzbl 0x19(%rax),%edx
    7fef:	83 e2 1f             	and    $0x1f,%edx
    7ff2:	88 50 19             	mov    %dl,0x19(%rax)
    7ff5:	0f b6 50 1a          	movzbl 0x1a(%rax),%edx
    7ff9:	83 e2 00             	and    $0x0,%edx
    7ffc:	83 ca 03             	or     $0x3,%edx
    7fff:	88 50 1a             	mov    %dl,0x1a(%rax)
    8002:	0f b6 50 1b          	movzbl 0x1b(%rax),%edx
    8006:	83 e2 fe             	and    $0xfffffffe,%edx
    8009:	88 50 1b             	mov    %dl,0x1b(%rax)
    800c:	e9 1d 1c 00 00       	jmpq   9c2e <func_7+0x3085>
    8011:	48 8b 85 80 f1 ff ff 	mov    -0xe80(%rbp),%rax
    8018:	8b 00                	mov    (%rax),%eax
    801a:	0d 84 85 58 00       	or     $0x588584,%eax
    801f:	89 c2                	mov    %eax,%edx
    8021:	48 8b 85 80 f1 ff ff 	mov    -0xe80(%rbp),%rax
    8028:	89 10                	mov    %edx,(%rax)
    802a:	48 8b 85 80 f1 ff ff 	mov    -0xe80(%rbp),%rax
    8031:	8b 10                	mov    (%rax),%edx
    8033:	48 8b 85 70 f1 ff ff 	mov    -0xe90(%rbp),%rax
    803a:	89 10                	mov    %edx,(%rax)
    803c:	c7 05 2a 7e 01 00 0a 	movl   $0xa,0x17e2a(%rip)        # 1fe70 <g_481>
    8043:	00 00 00 
    8046:	90                   	nop
    8047:	8b 05 23 7e 01 00    	mov    0x17e23(%rip),%eax        # 1fe70 <g_481>
    804d:	83 f8 20             	cmp    $0x20,%eax
    8050:	0f 84 51 01 00 00    	je     81a7 <func_7+0x15fe>
    8056:	48 8d 85 40 f3 ff ff 	lea    -0xcc0(%rbp),%rax
    805d:	48 83 c0 0c          	add    $0xc,%rax
    8061:	48 89 85 e0 f1 ff ff 	mov    %rax,-0xe20(%rbp)
    8068:	48 8d 05 79 9f 01 00 	lea    0x19f79(%rip),%rax        # 21fe8 <g_1886+0x8>
    806f:	48 89 85 e8 f1 ff ff 	mov    %rax,-0xe18(%rbp)
    8076:	48 8d 05 6f 7f 01 00 	lea    0x17f6f(%rip),%rax        # 1ffec <g_1003+0xc>
    807d:	48 89 85 f0 f1 ff ff 	mov    %rax,-0xe10(%rbp)
    8084:	48 8b 85 d0 f1 ff ff 	mov    -0xe30(%rbp),%rax
    808b:	48 89 85 e0 f1 ff ff 	mov    %rax,-0xe20(%rbp)
    8092:	48 8b 15 4f 9f 01 00 	mov    0x19f4f(%rip),%rdx        # 21fe8 <g_1886+0x8>
    8099:	48 8b 85 e8 f1 ff ff 	mov    -0xe18(%rbp),%rax
    80a0:	48 89 10             	mov    %rdx,(%rax)
    80a3:	48 8b 85 e8 f1 ff ff 	mov    -0xe18(%rbp),%rax
    80aa:	48 8b 00             	mov    (%rax),%rax
    80ad:	48 85 c0             	test   %rax,%rax
    80b0:	0f 85 a1 00 00 00    	jne    8157 <func_7+0x15ae>
    80b6:	48 8b 85 70 f1 ff ff 	mov    -0xe90(%rbp),%rax
    80bd:	8b 00                	mov    (%rax),%eax
    80bf:	39 85 dc f0 ff ff    	cmp    %eax,-0xf24(%rbp)
    80c5:	7d 69                	jge    8130 <func_7+0x1587>
    80c7:	0f b6 05 d3 7d 01 00 	movzbl 0x17dd3(%rip),%eax        # 1fea1 <g_676+0x1>
    80ce:	0f b6 d0             	movzbl %al,%edx
    80d1:	0f b7 85 74 f0 ff ff 	movzwl -0xf8c(%rbp),%eax
    80d8:	09 d0                	or     %edx,%eax
    80da:	85 c0                	test   %eax,%eax
    80dc:	74 52                	je     8130 <func_7+0x1587>
    80de:	48 8b 85 80 f1 ff ff 	mov    -0xe80(%rbp),%rax
    80e5:	8b 00                	mov    (%rax),%eax
    80e7:	0f bf d0             	movswl %ax,%edx
    80ea:	48 8b 85 f0 f1 ff ff 	mov    -0xe10(%rbp),%rax
    80f1:	0f b7 08             	movzwl (%rax),%ecx
    80f4:	48 8b 85 78 f4 ff ff 	mov    -0xb88(%rbp),%rax
    80fb:	48 85 c0             	test   %rax,%rax
    80fe:	0f 94 c0             	sete   %al
    8101:	0f b6 c0             	movzbl %al,%eax
    8104:	09 c1                	or     %eax,%ecx
    8106:	48 8b 85 f0 f1 ff ff 	mov    -0xe10(%rbp),%rax
    810d:	66 89 08             	mov    %cx,(%rax)
    8110:	48 8b 85 f0 f1 ff ff 	mov    -0xe10(%rbp),%rax
    8117:	0f b7 00             	movzwl (%rax),%eax
    811a:	98                   	cwtl   
    811b:	89 d6                	mov    %edx,%esi
    811d:	89 c7                	mov    %eax,%edi
    811f:	e8 f2 d2 ff ff       	callq  5416 <safe_mod_func_int16_t_s_s>
    8124:	66 85 c0             	test   %ax,%ax
    8127:	74 07                	je     8130 <func_7+0x1587>
    8129:	ba 01 00 00 00       	mov    $0x1,%edx
    812e:	eb 05                	jmp    8135 <func_7+0x158c>
    8130:	ba 00 00 00 00       	mov    $0x0,%edx
    8135:	0f b7 85 74 f0 ff ff 	movzwl -0xf8c(%rbp),%eax
    813c:	39 c2                	cmp    %eax,%edx
    813e:	0f 95 c0             	setne  %al
    8141:	0f b6 d0             	movzbl %al,%edx
    8144:	8b 05 3e a3 01 00    	mov    0x1a33e(%rip),%eax        # 22488 <g_398+0x28>
    814a:	39 c2                	cmp    %eax,%edx
    814c:	48 8b 85 80 f1 ff ff 	mov    -0xe80(%rbp),%rax
    8153:	8b 00                	mov    (%rax),%eax
    8155:	85 c0                	test   %eax,%eax
    8157:	48 8b 85 d8 f1 ff ff 	mov    -0xe28(%rbp),%rax
    815e:	48 89 85 48 f4 ff ff 	mov    %rax,-0xbb8(%rbp)
    8165:	48 8b 85 80 f1 ff ff 	mov    -0xe80(%rbp),%rax
    816c:	8b 00                	mov    (%rax),%eax
    816e:	85 c0                	test   %eax,%eax
    8170:	75 38                	jne    81aa <func_7+0x1601>
    8172:	48 8b 05 1f 94 01 00 	mov    0x1941f(%rip),%rax        # 21598 <g_540>
    8179:	48 8b 00             	mov    (%rax),%rax
    817c:	48 8b 10             	mov    (%rax),%rdx
    817f:	48 8b 85 88 f0 ff ff 	mov    -0xf78(%rbp),%rax
    8186:	48 8b 0a             	mov    (%rdx),%rcx
    8189:	48 8b 5a 08          	mov    0x8(%rdx),%rbx
    818d:	48 89 08             	mov    %rcx,(%rax)
    8190:	48 89 58 08          	mov    %rbx,0x8(%rax)
    8194:	48 8b 4a 10          	mov    0x10(%rdx),%rcx
    8198:	48 89 48 10          	mov    %rcx,0x10(%rax)
    819c:	8b 52 18             	mov    0x18(%rdx),%edx
    819f:	89 50 18             	mov    %edx,0x18(%rax)
    81a2:	e9 87 1a 00 00       	jmpq   9c2e <func_7+0x3085>
    81a7:	90                   	nop
    81a8:	eb 01                	jmp    81ab <func_7+0x1602>
    81aa:	90                   	nop
    81ab:	83 85 b8 f0 ff ff 01 	addl   $0x1,-0xf48(%rbp)
    81b2:	66 c7 05 23 80 01 00 	movw   $0x0,0x18023(%rip)        # 201de <g_1727+0xe>
    81b9:	00 00 
    81bb:	e9 2d 1a 00 00       	jmpq   9bed <func_7+0x3044>
    81c0:	c7 85 c8 f0 ff ff 8a 	movl   $0xc8c7af8a,-0xf38(%rbp)
    81c7:	af c7 c8 
    81ca:	c7 85 cc f0 ff ff cd 	movl   $0x22af10cd,-0xf34(%rbp)
    81d1:	10 af 22 
    81d4:	48 8d 05 95 7c 01 00 	lea    0x17c95(%rip),%rax        # 1fe70 <g_481>
    81db:	48 89 85 80 f3 ff ff 	mov    %rax,-0xc80(%rbp)
    81e2:	48 8d 05 87 7c 01 00 	lea    0x17c87(%rip),%rax        # 1fe70 <g_481>
    81e9:	48 89 85 88 f3 ff ff 	mov    %rax,-0xc78(%rbp)
    81f0:	48 8d 05 79 7c 01 00 	lea    0x17c79(%rip),%rax        # 1fe70 <g_481>
    81f7:	48 89 85 90 f3 ff ff 	mov    %rax,-0xc70(%rbp)
    81fe:	48 8d 05 6b 7c 01 00 	lea    0x17c6b(%rip),%rax        # 1fe70 <g_481>
    8205:	48 89 85 98 f3 ff ff 	mov    %rax,-0xc68(%rbp)
    820c:	c7 85 10 f1 ff ff 03 	movl   $0xc2db9303,-0xef0(%rbp)
    8213:	93 db c2 
    8216:	48 8d 85 30 f5 ff ff 	lea    -0xad0(%rbp),%rax
    821d:	48 8d 15 fc 18 01 00 	lea    0x118fc(%rip),%rdx        # 19b20 <g_2129+0x660>
    8224:	b9 28 00 00 00       	mov    $0x28,%ecx
    8229:	48 89 c7             	mov    %rax,%rdi
    822c:	48 89 d6             	mov    %rdx,%rsi
    822f:	f3 48 a5             	rep movsq %ds:(%rsi),%es:(%rdi)
    8232:	48 89 f2             	mov    %rsi,%rdx
    8235:	48 89 f8             	mov    %rdi,%rax
    8238:	8b 0a                	mov    (%rdx),%ecx
    823a:	89 08                	mov    %ecx,(%rax)
    823c:	48 c7 85 58 f2 ff ff 	movq   $0x0,-0xda8(%rbp)
    8243:	00 00 00 00 
    8247:	66 c7 05 a8 7e 01 00 	movw   $0x14,0x17ea8(%rip)        # 200f8 <g_1356>
    824e:	14 00 
    8250:	e9 67 19 00 00       	jmpq   9bbc <func_7+0x3013>
    8255:	48 c7 85 a0 f3 ff ff 	movq   $0x0,-0xc60(%rbp)
    825c:	00 00 00 00 
    8260:	48 c7 85 a8 f3 ff ff 	movq   $0x0,-0xc58(%rbp)
    8267:	00 00 00 00 
    826b:	48 c7 85 b0 f3 ff ff 	movq   $0x0,-0xc50(%rbp)
    8272:	00 00 00 00 
    8276:	48 c7 85 b8 f3 ff ff 	movq   $0x0,-0xc48(%rbp)
    827d:	00 00 00 00 
    8281:	c7 85 14 f1 ff ff 08 	movl   $0x8,-0xeec(%rbp)
    8288:	00 00 00 
    828b:	48 8d 85 50 f1 ff ff 	lea    -0xeb0(%rbp),%rax
    8292:	48 89 85 60 f2 ff ff 	mov    %rax,-0xda0(%rbp)
    8299:	48 8d 05 dc 7a 01 00 	lea    0x17adc(%rip),%rax        # 1fd7c <g_155+0x9c>
    82a0:	48 89 85 68 f2 ff ff 	mov    %rax,-0xd98(%rbp)
    82a7:	48 c7 85 60 f1 ff ff 	movq   $0x0,-0xea0(%rbp)
    82ae:	00 00 00 00 
    82b2:	48 8d 85 60 f1 ff ff 	lea    -0xea0(%rbp),%rax
    82b9:	48 89 85 70 f2 ff ff 	mov    %rax,-0xd90(%rbp)
    82c0:	48 c7 85 78 f2 ff ff 	movq   $0x8,-0xd88(%rbp)
    82c7:	08 00 00 00 
    82cb:	66 c7 85 a0 f0 ff ff 	movw   $0xfff8,-0xf60(%rbp)
    82d2:	f8 ff 
    82d4:	48 8d 05 2d 9d 01 00 	lea    0x19d2d(%rip),%rax        # 22008 <g_2023>
    82db:	48 89 85 80 f2 ff ff 	mov    %rax,-0xd80(%rbp)
    82e2:	c6 85 9c f0 ff ff 3c 	movb   $0x3c,-0xf64(%rbp)
    82e9:	c7 85 d0 f0 ff ff 8f 	movl   $0xa1fe078f,-0xf30(%rbp)
    82f0:	07 fe a1 
    82f3:	c7 85 d4 f0 ff ff 59 	movl   $0xa060e859,-0xf2c(%rbp)
    82fa:	e8 60 a0 
    82fd:	c7 85 18 f1 ff ff 7c 	movl   $0xcae2217c,-0xee8(%rbp)
    8304:	21 e2 ca 
    8307:	48 8d 05 ce 7c 01 00 	lea    0x17cce(%rip),%rax        # 1ffdc <g_962>
    830e:	48 89 85 68 f1 ff ff 	mov    %rax,-0xe98(%rbp)
    8315:	48 8d 85 68 f1 ff ff 	lea    -0xe98(%rbp),%rax
    831c:	48 89 85 c0 f3 ff ff 	mov    %rax,-0xc40(%rbp)
    8323:	48 c7 85 c8 f3 ff ff 	movq   $0x0,-0xc38(%rbp)
    832a:	00 00 00 00 
    832e:	48 c7 85 d0 f3 ff ff 	movq   $0x0,-0xc30(%rbp)
    8335:	00 00 00 00 
    8339:	48 8d 85 68 f1 ff ff 	lea    -0xe98(%rbp),%rax
    8340:	48 89 85 d8 f3 ff ff 	mov    %rax,-0xc28(%rbp)
    8347:	48 c7 85 e0 f3 ff ff 	movq   $0x0,-0xc20(%rbp)
    834e:	00 00 00 00 
    8352:	48 c7 85 e8 f3 ff ff 	movq   $0x0,-0xc18(%rbp)
    8359:	00 00 00 00 
    835d:	48 8d 85 c0 f3 ff ff 	lea    -0xc40(%rbp),%rax
    8364:	48 83 c0 18          	add    $0x18,%rax
    8368:	48 89 85 88 f2 ff ff 	mov    %rax,-0xd78(%rbp)
    836f:	48 c7 85 90 f2 ff ff 	movq   $0x0,-0xd70(%rbp)
    8376:	00 00 00 00 
    837a:	c7 05 b4 7a 01 00 10 	movl   $0x10,0x17ab4(%rip)        # 1fe38 <g_253>
    8381:	00 00 00 
    8384:	e9 75 0c 00 00       	jmpq   8ffe <func_7+0x2455>
    8389:	66 c7 85 c0 f4 ff ff 	movw   $0xc5ca,-0xb40(%rbp)
    8390:	ca c5 
    8392:	66 c7 85 c2 f4 ff ff 	movw   $0xc445,-0xb3e(%rbp)
    8399:	45 c4 
    839b:	66 c7 85 c4 f4 ff ff 	movw   $0x6ceb,-0xb3c(%rbp)
    83a2:	eb 6c 
    83a4:	66 c7 85 c6 f4 ff ff 	movw   $0xf491,-0xb3a(%rbp)
    83ab:	91 f4 
    83ad:	66 c7 85 c8 f4 ff ff 	movw   $0xc445,-0xb38(%rbp)
    83b4:	45 c4 
    83b6:	66 c7 85 ca f4 ff ff 	movw   $0xc445,-0xb36(%rbp)
    83bd:	45 c4 
    83bf:	66 c7 85 cc f4 ff ff 	movw   $0xc5ca,-0xb34(%rbp)
    83c6:	ca c5 
    83c8:	66 c7 85 ce f4 ff ff 	movw   $0x6ceb,-0xb32(%rbp)
    83cf:	eb 6c 
    83d1:	66 c7 85 d0 f4 ff ff 	movw   $0x6ceb,-0xb30(%rbp)
    83d8:	eb 6c 
    83da:	66 c7 85 d2 f4 ff ff 	movw   $0xc5ca,-0xb2e(%rbp)
    83e1:	ca c5 
    83e3:	66 c7 85 d4 f4 ff ff 	movw   $0xe48e,-0xb2c(%rbp)
    83ea:	8e e4 
    83ec:	66 c7 85 d6 f4 ff ff 	movw   $0xba81,-0xb2a(%rbp)
    83f3:	81 ba 
    83f5:	66 c7 85 d8 f4 ff ff 	movw   $0xc445,-0xb28(%rbp)
    83fc:	45 c4 
    83fe:	66 c7 85 da f4 ff ff 	movw   $0xe48e,-0xb26(%rbp)
    8405:	8e e4 
    8407:	66 c7 85 dc f4 ff ff 	movw   $0xba81,-0xb24(%rbp)
    840e:	81 ba 
    8410:	66 c7 85 de f4 ff ff 	movw   $0x6ceb,-0xb22(%rbp)
    8417:	eb 6c 
    8419:	66 c7 85 e0 f4 ff ff 	movw   $0xe48e,-0xb20(%rbp)
    8420:	8e e4 
    8422:	66 c7 85 e2 f4 ff ff 	movw   $0xe48e,-0xb1e(%rbp)
    8429:	8e e4 
    842b:	66 c7 85 e4 f4 ff ff 	movw   $0xc445,-0xb1c(%rbp)
    8432:	45 c4 
    8434:	66 c7 85 e6 f4 ff ff 	movw   $0xba81,-0xb1a(%rbp)
    843b:	81 ba 
    843d:	66 c7 85 e8 f4 ff ff 	movw   $0xba81,-0xb18(%rbp)
    8444:	81 ba 
    8446:	66 c7 85 ea f4 ff ff 	movw   $0xc445,-0xb16(%rbp)
    844d:	45 c4 
    844f:	66 c7 85 ec f4 ff ff 	movw   $0xe48e,-0xb14(%rbp)
    8456:	8e e4 
    8458:	66 c7 85 ee f4 ff ff 	movw   $0xba81,-0xb12(%rbp)
    845f:	81 ba 
    8461:	66 c7 85 f0 f4 ff ff 	movw   $0xc445,-0xb10(%rbp)
    8468:	45 c4 
    846a:	66 c7 85 f2 f4 ff ff 	movw   $0xe48e,-0xb0e(%rbp)
    8471:	8e e4 
    8473:	66 c7 85 f4 f4 ff ff 	movw   $0xba81,-0xb0c(%rbp)
    847a:	81 ba 
    847c:	66 c7 85 f6 f4 ff ff 	movw   $0x6ceb,-0xb0a(%rbp)
    8483:	eb 6c 
    8485:	66 c7 85 f8 f4 ff ff 	movw   $0xe48e,-0xb08(%rbp)
    848c:	8e e4 
    848e:	66 c7 85 fa f4 ff ff 	movw   $0xe48e,-0xb06(%rbp)
    8495:	8e e4 
    8497:	66 c7 85 fc f4 ff ff 	movw   $0xc445,-0xb04(%rbp)
    849e:	45 c4 
    84a0:	66 c7 85 fe f4 ff ff 	movw   $0xba81,-0xb02(%rbp)
    84a7:	81 ba 
    84a9:	66 c7 85 00 f5 ff ff 	movw   $0xba81,-0xb00(%rbp)
    84b0:	81 ba 
    84b2:	66 c7 85 02 f5 ff ff 	movw   $0xc445,-0xafe(%rbp)
    84b9:	45 c4 
    84bb:	66 c7 85 04 f5 ff ff 	movw   $0xe48e,-0xafc(%rbp)
    84c2:	8e e4 
    84c4:	66 c7 85 06 f5 ff ff 	movw   $0xba81,-0xafa(%rbp)
    84cb:	81 ba 
    84cd:	66 c7 85 08 f5 ff ff 	movw   $0xc445,-0xaf8(%rbp)
    84d4:	45 c4 
    84d6:	66 c7 85 0a f5 ff ff 	movw   $0xe48e,-0xaf6(%rbp)
    84dd:	8e e4 
    84df:	66 c7 85 0c f5 ff ff 	movw   $0xba81,-0xaf4(%rbp)
    84e6:	81 ba 
    84e8:	66 c7 85 0e f5 ff ff 	movw   $0x6ceb,-0xaf2(%rbp)
    84ef:	eb 6c 
    84f1:	66 c7 85 10 f5 ff ff 	movw   $0xe48e,-0xaf0(%rbp)
    84f8:	8e e4 
    84fa:	66 c7 85 12 f5 ff ff 	movw   $0xe48e,-0xaee(%rbp)
    8501:	8e e4 
    8503:	66 c7 85 14 f5 ff ff 	movw   $0xc445,-0xaec(%rbp)
    850a:	45 c4 
    850c:	66 c7 85 16 f5 ff ff 	movw   $0xba81,-0xaea(%rbp)
    8513:	81 ba 
    8515:	66 c7 85 18 f5 ff ff 	movw   $0xba81,-0xae8(%rbp)
    851c:	81 ba 
    851e:	66 c7 85 1a f5 ff ff 	movw   $0xc445,-0xae6(%rbp)
    8525:	45 c4 
    8527:	66 c7 85 1c f5 ff ff 	movw   $0xe48e,-0xae4(%rbp)
    852e:	8e e4 
    8530:	66 c7 85 1e f5 ff ff 	movw   $0xba81,-0xae2(%rbp)
    8537:	81 ba 
    8539:	66 c7 85 20 f5 ff ff 	movw   $0xc445,-0xae0(%rbp)
    8540:	45 c4 
    8542:	66 c7 85 22 f5 ff ff 	movw   $0xe48e,-0xade(%rbp)
    8549:	8e e4 
    854b:	66 c7 85 24 f5 ff ff 	movw   $0xba81,-0xadc(%rbp)
    8552:	81 ba 
    8554:	66 c7 85 26 f5 ff ff 	movw   $0x6ceb,-0xada(%rbp)
    855b:	eb 6c 
    855d:	66 c7 85 28 f5 ff ff 	movw   $0xe48e,-0xad8(%rbp)
    8564:	8e e4 
    8566:	66 c7 85 2a f5 ff ff 	movw   $0xe48e,-0xad6(%rbp)
    856d:	8e e4 
    856f:	c7 85 1c f1 ff ff fe 	movl   $0xfffffffe,-0xee4(%rbp)
    8576:	ff ff ff 
    8579:	48 83 bd 78 f0 ff ff 	cmpq   $0x0,-0xf88(%rbp)
    8580:	00 
    8581:	0f 85 88 0a 00 00    	jne    900f <func_7+0x2466>
    8587:	be 0b 00 00 00       	mov    $0xb,%esi
    858c:	bf c8 94 ff ff       	mov    $0xffff94c8,%edi
    8591:	e8 cd cf ff ff       	callq  5563 <safe_rshift_func_int16_t_s_u>
    8596:	98                   	cwtl   
    8597:	89 85 c8 f0 ff ff    	mov    %eax,-0xf38(%rbp)
    859d:	48 8b 85 b8 f1 ff ff 	mov    -0xe48(%rbp),%rax
    85a4:	8b 95 c8 f0 ff ff    	mov    -0xf38(%rbp),%edx
    85aa:	89 10                	mov    %edx,(%rax)
    85ac:	8b 85 84 f0 ff ff    	mov    -0xf7c(%rbp),%eax
    85b2:	85 c0                	test   %eax,%eax
    85b4:	0f 84 0c 0a 00 00    	je     8fc6 <func_7+0x241d>
    85ba:	48 8d 85 c0 f9 ff ff 	lea    -0x640(%rbp),%rax
    85c1:	48 8d 15 58 7e 01 00 	lea    0x17e58(%rip),%rdx        # 20420 <g_2115+0x20>
    85c8:	b9 80 00 00 00       	mov    $0x80,%ecx
    85cd:	48 89 c7             	mov    %rax,%rdi
    85d0:	48 89 d6             	mov    %rdx,%rsi
    85d3:	f3 48 a5             	rep movsq %ds:(%rsi),%es:(%rdi)
    85d6:	c7 85 20 f1 ff ff 20 	movl   $0xf9879020,-0xee0(%rbp)
    85dd:	90 87 f9 
    85e0:	48 8d 05 95 77 01 00 	lea    0x17795(%rip),%rax        # 1fd7c <g_155+0x9c>
    85e7:	48 89 85 98 f2 ff ff 	mov    %rax,-0xd68(%rbp)
    85ee:	48 8d 05 7b 78 01 00 	lea    0x1787b(%rip),%rax        # 1fe70 <g_481>
    85f5:	48 89 85 a0 f2 ff ff 	mov    %rax,-0xd60(%rbp)
    85fc:	48 c7 85 a8 f2 ff ff 	movq   $0x0,-0xd58(%rbp)
    8603:	00 00 00 00 
    8607:	48 8d 05 ea 9e 01 00 	lea    0x19eea(%rip),%rax        # 224f8 <g_1887>
    860e:	48 89 85 b0 f2 ff ff 	mov    %rax,-0xd50(%rbp)
    8615:	48 8d 85 80 f6 ff ff 	lea    -0x980(%rbp),%rax
    861c:	48 8d 15 fd 81 01 00 	lea    0x181fd(%rip),%rdx        # 20820 <g_2115+0x420>
    8623:	b9 30 00 00 00       	mov    $0x30,%ecx
    8628:	48 89 c7             	mov    %rax,%rdi
    862b:	48 89 d6             	mov    %rdx,%rsi
    862e:	f3 48 a5             	rep movsq %ds:(%rsi),%es:(%rdi)
    8631:	48 8d 85 80 f6 ff ff 	lea    -0x980(%rbp),%rax
    8638:	48 05 40 01 00 00    	add    $0x140,%rax
    863e:	48 89 85 b8 f2 ff ff 	mov    %rax,-0xd48(%rbp)
    8645:	48 8d 05 e4 77 01 00 	lea    0x177e4(%rip),%rax        # 1fe30 <g_251>
    864c:	48 89 85 c0 f2 ff ff 	mov    %rax,-0xd40(%rbp)
    8653:	48 8b 05 f6 8e 01 00 	mov    0x18ef6(%rip),%rax        # 21550 <g_239>
    865a:	48 8b 00             	mov    (%rax),%rax
    865d:	c7 00 3f 5d d1 7b    	movl   $0x7bd15d3f,(%rax)
    8663:	48 8b 85 70 f1 ff ff 	mov    -0xe90(%rbp),%rax
    866a:	8b 00                	mov    (%rax),%eax
    866c:	0f b7 d8             	movzwl %ax,%ebx
    866f:	0f b6 05 da 7a 01 00 	movzbl 0x17ada(%rip),%eax        # 20150 <g_1606>
    8676:	0f b7 85 0c f5 ff ff 	movzwl -0xaf4(%rbp),%eax
    867d:	44 0f b7 e0          	movzwl %ax,%r12d
    8681:	48 8b 85 70 f1 ff ff 	mov    -0xe90(%rbp),%rax
    8688:	8b 00                	mov    (%rax),%eax
    868a:	0f be d0             	movsbl %al,%edx
    868d:	8b 85 14 f1 ff ff    	mov    -0xeec(%rbp),%eax
    8693:	0f be c0             	movsbl %al,%eax
    8696:	89 d6                	mov    %edx,%esi
    8698:	89 c7                	mov    %eax,%edi
    869a:	e8 cb cb ff ff       	callq  526a <safe_div_func_int8_t_s_s>
    869f:	0f be c0             	movsbl %al,%eax
    86a2:	44 89 e6             	mov    %r12d,%esi
    86a5:	89 c7                	mov    %eax,%edi
    86a7:	e8 f5 cb ff ff       	callq  52a1 <safe_lshift_func_int8_t_s_s>
    86ac:	84 c0                	test   %al,%al
    86ae:	75 0a                	jne    86ba <func_7+0x1b11>
    86b0:	8b 05 82 77 01 00    	mov    0x17782(%rip),%eax        # 1fe38 <g_253>
    86b6:	85 c0                	test   %eax,%eax
    86b8:	74 07                	je     86c1 <func_7+0x1b18>
    86ba:	b8 01 00 00 00       	mov    $0x1,%eax
    86bf:	eb 05                	jmp    86c6 <func_7+0x1b1d>
    86c1:	b8 00 00 00 00       	mov    $0x0,%eax
    86c6:	3b 85 14 f1 ff ff    	cmp    -0xeec(%rbp),%eax
    86cc:	0f 9f c2             	setg   %dl
    86cf:	48 8b 85 50 f1 ff ff 	mov    -0xeb0(%rbp),%rax
    86d6:	0f b6 d2             	movzbl %dl,%edx
    86d9:	48 89 10             	mov    %rdx,(%rax)
    86dc:	48 8b 00             	mov    (%rax),%rax
    86df:	83 f0 01             	xor    $0x1,%eax
    86e2:	0f b7 c0             	movzwl %ax,%eax
    86e5:	89 de                	mov    %ebx,%esi
    86e7:	89 c7                	mov    %eax,%edi
    86e9:	e8 31 d6 ff ff       	callq  5d1f <safe_sub_func_uint16_t_u_u>
    86ee:	48 8b 85 40 f1 ff ff 	mov    -0xec0(%rbp),%rax
    86f5:	48 8b 00             	mov    (%rax),%rax
    86f8:	c7 00 01 00 00 00    	movl   $0x1,(%rax)
    86fe:	be e1 00 00 00       	mov    $0xe1,%esi
    8703:	bf 01 00 00 00       	mov    $0x1,%edi
    8708:	e8 86 d4 ff ff       	callq  5b93 <safe_mul_func_uint8_t_u_u>
    870d:	48 8b 85 98 f2 ff ff 	mov    -0xd68(%rbp),%rax
    8714:	c6 00 71             	movb   $0x71,(%rax)
    8717:	48 8b 85 98 f2 ff ff 	mov    -0xd68(%rbp),%rax
    871e:	0f b6 00             	movzbl (%rax),%eax
    8721:	0f b6 c0             	movzbl %al,%eax
    8724:	09 85 cc f0 ff ff    	or     %eax,-0xf34(%rbp)
    872a:	8b 85 cc f0 ff ff    	mov    -0xf34(%rbp),%eax
    8730:	89 c2                	mov    %eax,%edx
    8732:	48 8b 85 a0 f2 ff ff 	mov    -0xd60(%rbp),%rax
    8739:	88 10                	mov    %dl,(%rax)
    873b:	48 8b 85 a0 f2 ff ff 	mov    -0xd60(%rbp),%rax
    8742:	0f b6 00             	movzbl (%rax),%eax
    8745:	3c 01                	cmp    $0x1,%al
    8747:	0f 96 c0             	setbe  %al
    874a:	0f b6 d0             	movzbl %al,%edx
    874d:	48 8b 85 a8 f1 ff ff 	mov    -0xe58(%rbp),%rax
    8754:	8b 00                	mov    (%rax),%eax
    8756:	31 c2                	xor    %eax,%edx
    8758:	48 8b 85 a8 f1 ff ff 	mov    -0xe58(%rbp),%rax
    875f:	89 10                	mov    %edx,(%rax)
    8761:	48 8b 85 50 f1 ff ff 	mov    -0xeb0(%rbp),%rax
    8768:	48 8b 10             	mov    (%rax),%rdx
    876b:	48 8b 85 50 f1 ff ff 	mov    -0xeb0(%rbp),%rax
    8772:	48 83 ca 08          	or     $0x8,%rdx
    8776:	48 89 10             	mov    %rdx,(%rax)
    8779:	48 8d 85 50 f1 ff ff 	lea    -0xeb0(%rbp),%rax
    8780:	48 39 85 60 f2 ff ff 	cmp    %rax,-0xda0(%rbp)
    8787:	0f 94 c0             	sete   %al
    878a:	0f b6 d0             	movzbl %al,%edx
    878d:	48 8b 85 c0 f2 ff ff 	mov    -0xd40(%rbp),%rax
    8794:	48 89 10             	mov    %rdx,(%rax)
    8797:	48 8b 85 c0 f2 ff ff 	mov    -0xd40(%rbp),%rax
    879e:	4c 8b 28             	mov    (%rax),%r13
    87a1:	0f b7 85 20 f5 ff ff 	movzwl -0xae0(%rbp),%eax
    87a8:	0f b7 d8             	movzwl %ax,%ebx
    87ab:	48 8b 05 de 77 01 00 	mov    0x177de(%rip),%rax        # 1ff90 <g_857+0x10>
    87b2:	48 c1 e0 19          	shl    $0x19,%rax
    87b6:	48 c1 f8 24          	sar    $0x24,%rax
    87ba:	44 0f b7 e0          	movzwl %ax,%r12d
    87be:	48 8b 05 ab 8d 01 00 	mov    0x18dab(%rip),%rax        # 21570 <g_260>
    87c5:	0f b7 10             	movzwl (%rax),%edx
    87c8:	83 c2 01             	add    $0x1,%edx
    87cb:	66 89 10             	mov    %dx,(%rax)
    87ce:	44 0f b7 30          	movzwl (%rax),%r14d
    87d2:	0f b7 85 74 f0 ff ff 	movzwl -0xf8c(%rbp),%eax
    87d9:	0f b6 d0             	movzbl %al,%edx
    87dc:	8b 8d 80 f0 ff ff    	mov    -0xf80(%rbp),%ecx
    87e2:	8b 85 20 f1 ff ff    	mov    -0xee0(%rbp),%eax
    87e8:	09 c1                	or     %eax,%ecx
    87ea:	8b 85 80 f0 ff ff    	mov    -0xf80(%rbp),%eax
    87f0:	39 c1                	cmp    %eax,%ecx
    87f2:	0f 97 c0             	seta   %al
    87f5:	0f b6 c0             	movzbl %al,%eax
    87f8:	39 85 14 f1 ff ff    	cmp    %eax,-0xeec(%rbp)
    87fe:	0f 9c c0             	setl   %al
    8801:	0f b6 c0             	movzbl %al,%eax
    8804:	89 d6                	mov    %edx,%esi
    8806:	89 c7                	mov    %eax,%edi
    8808:	e8 86 d3 ff ff       	callq  5b93 <safe_mul_func_uint8_t_u_u>
    880d:	0f b6 c0             	movzbl %al,%eax
    8810:	66 41 39 c6          	cmp    %ax,%r14w
    8814:	0f 94 c0             	sete   %al
    8817:	0f b6 c0             	movzbl %al,%eax
    881a:	44 89 e6             	mov    %r12d,%esi
    881d:	89 c7                	mov    %eax,%edi
    881f:	e8 38 d5 ff ff       	callq  5d5c <safe_mod_func_uint16_t_u_u>
    8824:	0f be c0             	movsbl %al,%eax
    8827:	89 de                	mov    %ebx,%esi
    8829:	89 c7                	mov    %eax,%edi
    882b:	e8 71 ca ff ff       	callq  52a1 <safe_lshift_func_int8_t_s_s>
    8830:	48 0f be c0          	movsbq %al,%rax
    8834:	49 39 c5             	cmp    %rax,%r13
    8837:	48 8b 85 b0 f2 ff ff 	mov    -0xd50(%rbp),%rax
    883e:	48 8d 95 80 f0 ff ff 	lea    -0xf80(%rbp),%rdx
    8845:	48 89 10             	mov    %rdx,(%rax)
    8848:	48 8b 85 b0 f2 ff ff 	mov    -0xd50(%rbp),%rax
    884f:	48 8b 10             	mov    (%rax),%rdx
    8852:	48 8b 85 b8 f2 ff ff 	mov    -0xd48(%rbp),%rax
    8859:	48 89 10             	mov    %rdx,(%rax)
    885c:	48 8b 85 b8 f2 ff ff 	mov    -0xd48(%rbp),%rax
    8863:	48 8b 10             	mov    (%rax),%rdx
    8866:	48 8d 85 80 f0 ff ff 	lea    -0xf80(%rbp),%rax
    886d:	48 39 c2             	cmp    %rax,%rdx
    8870:	75 07                	jne    8879 <func_7+0x1cd0>
    8872:	b8 01 00 00 00       	mov    $0x1,%eax
    8877:	eb 05                	jmp    887e <func_7+0x1cd5>
    8879:	b8 00 00 00 00       	mov    $0x0,%eax
    887e:	84 c0                	test   %al,%al
    8880:	74 5c                	je     88de <func_7+0x1d35>
    8882:	48 c7 85 d8 f2 ff ff 	movq   $0x0,-0xd28(%rbp)
    8889:	00 00 00 00 
    888d:	48 8d 05 14 8d 01 00 	lea    0x18d14(%rip),%rax        # 215a8 <g_554>
    8894:	48 89 85 e0 f2 ff ff 	mov    %rax,-0xd20(%rbp)
    889b:	48 8b 85 e0 f2 ff ff 	mov    -0xd20(%rbp),%rax
    88a2:	48 c7 00 00 00 00 00 	movq   $0x0,(%rax)
    88a9:	48 8b 85 88 f0 ff ff 	mov    -0xf78(%rbp),%rax
    88b0:	48 8b 0d a9 08 01 00 	mov    0x108a9(%rip),%rcx        # 19160 <g_1954>
    88b7:	48 8b 1d aa 08 01 00 	mov    0x108aa(%rip),%rbx        # 19168 <g_1954+0x8>
    88be:	48 89 08             	mov    %rcx,(%rax)
    88c1:	48 89 58 08          	mov    %rbx,0x8(%rax)
    88c5:	48 8b 15 a4 08 01 00 	mov    0x108a4(%rip),%rdx        # 19170 <g_1954+0x10>
    88cc:	48 89 50 10          	mov    %rdx,0x10(%rax)
    88d0:	8b 15 a2 08 01 00    	mov    0x108a2(%rip),%edx        # 19178 <g_1954+0x18>
    88d6:	89 50 18             	mov    %edx,0x18(%rax)
    88d9:	e9 50 13 00 00       	jmpq   9c2e <func_7+0x3085>
    88de:	c7 85 24 f1 ff ff 3a 	movl   $0x2ed8793a,-0xedc(%rbp)
    88e5:	79 d8 2e 
    88e8:	c7 85 28 f1 ff ff de 	movl   $0xb0e32dde,-0xed8(%rbp)
    88ef:	2d e3 b0 
    88f2:	48 8d 85 9e f0 ff ff 	lea    -0xf62(%rbp),%rax
    88f9:	48 89 85 f0 f3 ff ff 	mov    %rax,-0xc10(%rbp)
    8900:	48 8d 85 9e f0 ff ff 	lea    -0xf62(%rbp),%rax
    8907:	48 89 85 f8 f3 ff ff 	mov    %rax,-0xc08(%rbp)
    890e:	48 c7 85 00 f4 ff ff 	movq   $0x0,-0xc00(%rbp)
    8915:	00 00 00 00 
    8919:	48 8d 85 9e f0 ff ff 	lea    -0xf62(%rbp),%rax
    8920:	48 89 85 08 f4 ff ff 	mov    %rax,-0xbf8(%rbp)
    8927:	48 8d 85 9e f0 ff ff 	lea    -0xf62(%rbp),%rax
    892e:	48 89 85 10 f4 ff ff 	mov    %rax,-0xbf0(%rbp)
    8935:	48 c7 85 18 f4 ff ff 	movq   $0x0,-0xbe8(%rbp)
    893c:	00 00 00 00 
    8940:	48 8d 85 f0 f3 ff ff 	lea    -0xc10(%rbp),%rax
    8947:	48 83 c0 28          	add    $0x28,%rax
    894b:	48 89 85 c8 f2 ff ff 	mov    %rax,-0xd38(%rbp)
    8952:	48 8d 85 58 f1 ff ff 	lea    -0xea8(%rbp),%rax
    8959:	48 89 85 00 f8 ff ff 	mov    %rax,-0x800(%rbp)
    8960:	48 c7 85 08 f8 ff ff 	movq   $0x0,-0x7f8(%rbp)
    8967:	00 00 00 00 
    896b:	48 8d 85 58 f1 ff ff 	lea    -0xea8(%rbp),%rax
    8972:	48 89 85 10 f8 ff ff 	mov    %rax,-0x7f0(%rbp)
    8979:	48 8d 85 58 f1 ff ff 	lea    -0xea8(%rbp),%rax
    8980:	48 89 85 18 f8 ff ff 	mov    %rax,-0x7e8(%rbp)
    8987:	48 8d 85 58 f1 ff ff 	lea    -0xea8(%rbp),%rax
    898e:	48 89 85 20 f8 ff ff 	mov    %rax,-0x7e0(%rbp)
    8995:	48 8d 85 58 f1 ff ff 	lea    -0xea8(%rbp),%rax
    899c:	48 89 85 28 f8 ff ff 	mov    %rax,-0x7d8(%rbp)
    89a3:	48 8d 85 58 f1 ff ff 	lea    -0xea8(%rbp),%rax
    89aa:	48 89 85 30 f8 ff ff 	mov    %rax,-0x7d0(%rbp)
    89b1:	48 c7 85 38 f8 ff ff 	movq   $0x0,-0x7c8(%rbp)
    89b8:	00 00 00 00 
    89bc:	48 8d 85 58 f1 ff ff 	lea    -0xea8(%rbp),%rax
    89c3:	48 89 85 40 f8 ff ff 	mov    %rax,-0x7c0(%rbp)
    89ca:	48 8d 85 58 f1 ff ff 	lea    -0xea8(%rbp),%rax
    89d1:	48 89 85 48 f8 ff ff 	mov    %rax,-0x7b8(%rbp)
    89d8:	48 8d 85 58 f1 ff ff 	lea    -0xea8(%rbp),%rax
    89df:	48 89 85 50 f8 ff ff 	mov    %rax,-0x7b0(%rbp)
    89e6:	48 8d 85 58 f1 ff ff 	lea    -0xea8(%rbp),%rax
    89ed:	48 89 85 58 f8 ff ff 	mov    %rax,-0x7a8(%rbp)
    89f4:	48 8d 85 58 f1 ff ff 	lea    -0xea8(%rbp),%rax
    89fb:	48 89 85 60 f8 ff ff 	mov    %rax,-0x7a0(%rbp)
    8a02:	48 8d 85 58 f1 ff ff 	lea    -0xea8(%rbp),%rax
    8a09:	48 89 85 68 f8 ff ff 	mov    %rax,-0x798(%rbp)
    8a10:	48 c7 85 70 f8 ff ff 	movq   $0x0,-0x790(%rbp)
    8a17:	00 00 00 00 
    8a1b:	48 8d 85 58 f1 ff ff 	lea    -0xea8(%rbp),%rax
    8a22:	48 89 85 78 f8 ff ff 	mov    %rax,-0x788(%rbp)
    8a29:	48 8d 85 58 f1 ff ff 	lea    -0xea8(%rbp),%rax
    8a30:	48 89 85 80 f8 ff ff 	mov    %rax,-0x780(%rbp)
    8a37:	48 8d 85 58 f1 ff ff 	lea    -0xea8(%rbp),%rax
    8a3e:	48 89 85 88 f8 ff ff 	mov    %rax,-0x778(%rbp)
    8a45:	48 8d 85 58 f1 ff ff 	lea    -0xea8(%rbp),%rax
    8a4c:	48 89 85 90 f8 ff ff 	mov    %rax,-0x770(%rbp)
    8a53:	48 8d 85 58 f1 ff ff 	lea    -0xea8(%rbp),%rax
    8a5a:	48 89 85 98 f8 ff ff 	mov    %rax,-0x768(%rbp)
    8a61:	48 8d 85 58 f1 ff ff 	lea    -0xea8(%rbp),%rax
    8a68:	48 89 85 a0 f8 ff ff 	mov    %rax,-0x760(%rbp)
    8a6f:	48 8d 85 58 f1 ff ff 	lea    -0xea8(%rbp),%rax
    8a76:	48 89 85 a8 f8 ff ff 	mov    %rax,-0x758(%rbp)
    8a7d:	48 c7 85 b0 f8 ff ff 	movq   $0x0,-0x750(%rbp)
    8a84:	00 00 00 00 
    8a88:	48 8d 85 58 f1 ff ff 	lea    -0xea8(%rbp),%rax
    8a8f:	48 89 85 b8 f8 ff ff 	mov    %rax,-0x748(%rbp)
    8a96:	48 c7 85 c0 f8 ff ff 	movq   $0x0,-0x740(%rbp)
    8a9d:	00 00 00 00 
    8aa1:	48 8d 85 58 f1 ff ff 	lea    -0xea8(%rbp),%rax
    8aa8:	48 89 85 c8 f8 ff ff 	mov    %rax,-0x738(%rbp)
    8aaf:	48 8d 85 58 f1 ff ff 	lea    -0xea8(%rbp),%rax
    8ab6:	48 89 85 d0 f8 ff ff 	mov    %rax,-0x730(%rbp)
    8abd:	48 8d 85 58 f1 ff ff 	lea    -0xea8(%rbp),%rax
    8ac4:	48 89 85 d8 f8 ff ff 	mov    %rax,-0x728(%rbp)
    8acb:	48 8d 85 58 f1 ff ff 	lea    -0xea8(%rbp),%rax
    8ad2:	48 89 85 e0 f8 ff ff 	mov    %rax,-0x720(%rbp)
    8ad9:	48 8d 85 58 f1 ff ff 	lea    -0xea8(%rbp),%rax
    8ae0:	48 89 85 e8 f8 ff ff 	mov    %rax,-0x718(%rbp)
    8ae7:	48 8d 85 58 f1 ff ff 	lea    -0xea8(%rbp),%rax
    8aee:	48 89 85 f0 f8 ff ff 	mov    %rax,-0x710(%rbp)
    8af5:	48 c7 85 f8 f8 ff ff 	movq   $0x0,-0x708(%rbp)
    8afc:	00 00 00 00 
    8b00:	48 8d 85 58 f1 ff ff 	lea    -0xea8(%rbp),%rax
    8b07:	48 89 85 00 f9 ff ff 	mov    %rax,-0x700(%rbp)
    8b0e:	48 8d 85 58 f1 ff ff 	lea    -0xea8(%rbp),%rax
    8b15:	48 89 85 08 f9 ff ff 	mov    %rax,-0x6f8(%rbp)
    8b1c:	48 8d 85 58 f1 ff ff 	lea    -0xea8(%rbp),%rax
    8b23:	48 89 85 10 f9 ff ff 	mov    %rax,-0x6f0(%rbp)
    8b2a:	48 c7 85 18 f9 ff ff 	movq   $0x0,-0x6e8(%rbp)
    8b31:	00 00 00 00 
    8b35:	48 8d 85 58 f1 ff ff 	lea    -0xea8(%rbp),%rax
    8b3c:	48 89 85 20 f9 ff ff 	mov    %rax,-0x6e0(%rbp)
    8b43:	48 8d 85 58 f1 ff ff 	lea    -0xea8(%rbp),%rax
    8b4a:	48 89 85 28 f9 ff ff 	mov    %rax,-0x6d8(%rbp)
    8b51:	48 8d 85 58 f1 ff ff 	lea    -0xea8(%rbp),%rax
    8b58:	48 89 85 30 f9 ff ff 	mov    %rax,-0x6d0(%rbp)
    8b5f:	48 8d 85 58 f1 ff ff 	lea    -0xea8(%rbp),%rax
    8b66:	48 89 85 38 f9 ff ff 	mov    %rax,-0x6c8(%rbp)
    8b6d:	48 8d 85 58 f1 ff ff 	lea    -0xea8(%rbp),%rax
    8b74:	48 89 85 40 f9 ff ff 	mov    %rax,-0x6c0(%rbp)
    8b7b:	48 8d 85 58 f1 ff ff 	lea    -0xea8(%rbp),%rax
    8b82:	48 89 85 48 f9 ff ff 	mov    %rax,-0x6b8(%rbp)
    8b89:	48 8d 85 58 f1 ff ff 	lea    -0xea8(%rbp),%rax
    8b90:	48 89 85 50 f9 ff ff 	mov    %rax,-0x6b0(%rbp)
    8b97:	48 8d 85 58 f1 ff ff 	lea    -0xea8(%rbp),%rax
    8b9e:	48 89 85 58 f9 ff ff 	mov    %rax,-0x6a8(%rbp)
    8ba5:	48 c7 85 60 f9 ff ff 	movq   $0x0,-0x6a0(%rbp)
    8bac:	00 00 00 00 
    8bb0:	48 8d 85 58 f1 ff ff 	lea    -0xea8(%rbp),%rax
    8bb7:	48 89 85 68 f9 ff ff 	mov    %rax,-0x698(%rbp)
    8bbe:	48 8d 85 58 f1 ff ff 	lea    -0xea8(%rbp),%rax
    8bc5:	48 89 85 70 f9 ff ff 	mov    %rax,-0x690(%rbp)
    8bcc:	48 8d 85 58 f1 ff ff 	lea    -0xea8(%rbp),%rax
    8bd3:	48 89 85 78 f9 ff ff 	mov    %rax,-0x688(%rbp)
    8bda:	48 8d 85 58 f1 ff ff 	lea    -0xea8(%rbp),%rax
    8be1:	48 89 85 80 f9 ff ff 	mov    %rax,-0x680(%rbp)
    8be8:	48 8d 85 58 f1 ff ff 	lea    -0xea8(%rbp),%rax
    8bef:	48 89 85 88 f9 ff ff 	mov    %rax,-0x678(%rbp)
    8bf6:	48 8d 85 58 f1 ff ff 	lea    -0xea8(%rbp),%rax
    8bfd:	48 89 85 90 f9 ff ff 	mov    %rax,-0x670(%rbp)
    8c04:	48 8d 85 58 f1 ff ff 	lea    -0xea8(%rbp),%rax
    8c0b:	48 89 85 98 f9 ff ff 	mov    %rax,-0x668(%rbp)
    8c12:	48 8d 85 58 f1 ff ff 	lea    -0xea8(%rbp),%rax
    8c19:	48 89 85 a0 f9 ff ff 	mov    %rax,-0x660(%rbp)
    8c20:	48 8d 85 58 f1 ff ff 	lea    -0xea8(%rbp),%rax
    8c27:	48 89 85 a8 f9 ff ff 	mov    %rax,-0x658(%rbp)
    8c2e:	48 8d 85 58 f1 ff ff 	lea    -0xea8(%rbp),%rax
    8c35:	48 89 85 b0 f9 ff ff 	mov    %rax,-0x650(%rbp)
    8c3c:	48 8d 85 58 f1 ff ff 	lea    -0xea8(%rbp),%rax
    8c43:	48 89 85 b8 f9 ff ff 	mov    %rax,-0x648(%rbp)
    8c4a:	c7 85 2c f1 ff ff f3 	movl   $0xf65dd8f3,-0xed4(%rbp)
    8c51:	d8 5d f6 
    8c54:	48 8d 85 60 f1 ff ff 	lea    -0xea0(%rbp),%rax
    8c5b:	48 89 85 d0 f2 ff ff 	mov    %rax,-0xd30(%rbp)
    8c62:	bf 01 00 00 00       	mov    $0x1,%edi
    8c67:	e8 ad d3 ff ff       	callq  6019 <safe_unary_minus_func_uint64_t_u>
    8c6c:	48 8b 85 78 f0 ff ff 	mov    -0xf88(%rbp),%rax
    8c73:	0f b7 d8             	movzwl %ax,%ebx
    8c76:	48 8b 85 78 f0 ff ff 	mov    -0xf88(%rbp),%rax
    8c7d:	44 0f be e0          	movsbl %al,%r12d
    8c81:	0f b7 85 74 f0 ff ff 	movzwl -0xf8c(%rbp),%eax
    8c88:	44 0f b6 e8          	movzbl %al,%r13d
    8c8c:	8b 85 84 f0 ff ff    	mov    -0xf7c(%rbp),%eax
    8c92:	44 0f b6 f0          	movzbl %al,%r14d
    8c96:	8b 85 c8 f0 ff ff    	mov    -0xf38(%rbp),%eax
    8c9c:	48 63 c8             	movslq %eax,%rcx
    8c9f:	48 8b 85 c0 f2 ff ff 	mov    -0xd40(%rbp),%rax
    8ca6:	48 bf d8 4d fa 3c 90 	movabs $0x7ee6a4903cfa4dd8,%rdi
    8cad:	a4 e6 7e 
    8cb0:	48 89 38             	mov    %rdi,(%rax)
    8cb3:	8b 85 80 f0 ff ff    	mov    -0xf80(%rbp),%eax
    8cb9:	85 c0                	test   %eax,%eax
    8cbb:	48 8b 95 50 f1 ff ff 	mov    -0xeb0(%rbp),%rdx
    8cc2:	48 8b 02             	mov    (%rdx),%rax
    8cc5:	48 8d 70 ff          	lea    -0x1(%rax),%rsi
    8cc9:	48 89 32             	mov    %rsi,(%rdx)
    8ccc:	48 85 c0             	test   %rax,%rax
    8ccf:	74 42                	je     8d13 <func_7+0x216a>
    8cd1:	83 bd 24 f1 ff ff 06 	cmpl   $0x6,-0xedc(%rbp)
    8cd8:	0f 9f c0             	setg   %al
    8cdb:	0f b6 d0             	movzbl %al,%edx
    8cde:	48 8b 85 a0 f1 ff ff 	mov    -0xe60(%rbp),%rax
    8ce5:	89 10                	mov    %edx,(%rax)
    8ce7:	48 8b 85 a0 f1 ff ff 	mov    -0xe60(%rbp),%rax
    8cee:	8b 00                	mov    (%rax),%eax
    8cf0:	83 f8 06             	cmp    $0x6,%eax
    8cf3:	8b 85 28 f1 ff ff    	mov    -0xed8(%rbp),%eax
    8cf9:	48 39 85 78 f0 ff ff 	cmp    %rax,-0xf88(%rbp)
    8d00:	74 11                	je     8d13 <func_7+0x216a>
    8d02:	8b 85 80 f0 ff ff    	mov    -0xf80(%rbp),%eax
    8d08:	85 c0                	test   %eax,%eax
    8d0a:	74 07                	je     8d13 <func_7+0x216a>
    8d0c:	b8 01 00 00 00       	mov    $0x1,%eax
    8d11:	eb 05                	jmp    8d18 <func_7+0x216f>
    8d13:	b8 00 00 00 00       	mov    $0x0,%eax
    8d18:	3b 85 20 f1 ff ff    	cmp    -0xee0(%rbp),%eax
    8d1e:	0f 94 c0             	sete   %al
    8d21:	0f b6 c0             	movzbl %al,%eax
    8d24:	48 89 ce             	mov    %rcx,%rsi
    8d27:	48 89 c7             	mov    %rax,%rdi
    8d2a:	e8 1c d3 ff ff       	callq  604b <safe_sub_func_uint64_t_u_u>
    8d2f:	89 c2                	mov    %eax,%edx
    8d31:	48 8b 85 98 f2 ff ff 	mov    -0xd68(%rbp),%rax
    8d38:	88 10                	mov    %dl,(%rax)
    8d3a:	48 8b 85 98 f2 ff ff 	mov    -0xd68(%rbp),%rax
    8d41:	0f b6 00             	movzbl (%rax),%eax
    8d44:	0f b6 c0             	movzbl %al,%eax
    8d47:	44 89 f6             	mov    %r14d,%esi
    8d4a:	89 c7                	mov    %eax,%edi
    8d4c:	e8 09 ce ff ff       	callq  5b5a <safe_add_func_uint8_t_u_u>
    8d51:	0f b6 c0             	movzbl %al,%eax
    8d54:	44 89 ee             	mov    %r13d,%esi
    8d57:	89 c7                	mov    %eax,%edi
    8d59:	e8 1a ce ff ff       	callq  5b78 <safe_sub_func_uint8_t_u_u>
    8d5e:	0f b6 d0             	movzbl %al,%edx
    8d61:	8b 85 84 f0 ff ff    	mov    -0xf7c(%rbp),%eax
    8d67:	39 c2                	cmp    %eax,%edx
    8d69:	0f 96 c0             	setbe  %al
    8d6c:	0f b6 c0             	movzbl %al,%eax
    8d6f:	44 89 e6             	mov    %r12d,%esi
    8d72:	89 c7                	mov    %eax,%edi
    8d74:	e8 79 c4 ff ff       	callq  51f2 <safe_sub_func_int8_t_s_s>
    8d79:	66 98                	cbtw   
    8d7b:	0f b7 c0             	movzwl %ax,%eax
    8d7e:	89 de                	mov    %ebx,%esi
    8d80:	89 c7                	mov    %eax,%edi
    8d82:	e8 b6 cf ff ff       	callq  5d3d <safe_mul_func_uint16_t_u_u>
    8d87:	66 c7 85 74 f0 ff ff 	movw   $0x1,-0xf8c(%rbp)
    8d8e:	01 00 
    8d90:	48 83 bd c8 f2 ff ff 	cmpq   $0x0,-0xd38(%rbp)
    8d97:	00 
    8d98:	0f 94 c0             	sete   %al
    8d9b:	0f b6 c0             	movzbl %al,%eax
    8d9e:	48 63 d0             	movslq %eax,%rdx
    8da1:	48 8b 05 c0 70 01 00 	mov    0x170c0(%rip),%rax        # 1fe68 <g_471>
    8da8:	48 21 d0             	and    %rdx,%rax
    8dab:	48 89 05 b6 70 01 00 	mov    %rax,0x170b6(%rip)        # 1fe68 <g_471>
    8db2:	48 8b 05 af 70 01 00 	mov    0x170af(%rip),%rax        # 1fe68 <g_471>
    8db9:	48 ba fb e4 21 6f 3c 	movabs $0x1a9f113c6f21e4fb,%rdx
    8dc0:	11 9f 1a 
    8dc3:	48 39 d0             	cmp    %rdx,%rax
    8dc6:	0f 97 c0             	seta   %al
    8dc9:	0f b6 c0             	movzbl %al,%eax
    8dcc:	48 be 41 90 16 78 ea 	movabs $0x9b602fea78169041,%rsi
    8dd3:	2f 60 9b 
    8dd6:	48 89 c7             	mov    %rax,%rdi
    8dd9:	e8 19 cc ff ff       	callq  59f7 <safe_div_func_int64_t_s_s>
    8dde:	48 c7 05 a7 74 01 00 	movq   $0x0,0x174a7(%rip)        # 20290 <g_1982>
    8de5:	00 00 00 00 
    8de9:	48 8b 05 a0 74 01 00 	mov    0x174a0(%rip),%rax        # 20290 <g_1982>
    8df0:	48 89 c6             	mov    %rax,%rsi
    8df3:	bf 09 00 00 00       	mov    $0x9,%edi
    8df8:	e8 31 d2 ff ff       	callq  602e <safe_add_func_uint64_t_u_u>
    8dfd:	0f be d0             	movsbl %al,%edx
    8e00:	48 8b 85 88 f3 ff ff 	mov    -0xc78(%rbp),%rax
    8e07:	48 39 85 68 f2 ff ff 	cmp    %rax,-0xd98(%rbp)
    8e0e:	0f 95 c0             	setne  %al
    8e11:	0f b6 c0             	movzbl %al,%eax
    8e14:	89 d6                	mov    %edx,%esi
    8e16:	89 c7                	mov    %eax,%edi
    8e18:	e8 4d c4 ff ff       	callq  526a <safe_div_func_int8_t_s_s>
    8e1d:	0f be c0             	movsbl %al,%eax
    8e20:	89 85 2c f1 ff ff    	mov    %eax,-0xed4(%rbp)
    8e26:	8b 85 80 f0 ff ff    	mov    -0xf80(%rbp),%eax
    8e2c:	85 c0                	test   %eax,%eax
    8e2e:	0f 85 db 01 00 00    	jne    900f <func_7+0x2466>
    8e34:	8b 85 20 f1 ff ff    	mov    -0xee0(%rbp),%eax
    8e3a:	0f b7 d8             	movzwl %ax,%ebx
    8e3d:	48 8b 85 80 f1 ff ff 	mov    -0xe80(%rbp),%rax
    8e44:	c7 00 19 6b c1 f4    	movl   $0xf4c16b19,(%rax)
    8e4a:	0f b7 85 74 f0 ff ff 	movzwl -0xf8c(%rbp),%eax
    8e51:	0f bf d0             	movswl %ax,%edx
    8e54:	0f b7 05 81 73 01 00 	movzwl 0x17381(%rip),%eax        # 201dc <g_1727+0xc>
    8e5b:	66 89 05 7a 73 01 00 	mov    %ax,0x1737a(%rip)        # 201dc <g_1727+0xc>
    8e62:	0f b7 05 73 73 01 00 	movzwl 0x17373(%rip),%eax        # 201dc <g_1727+0xc>
    8e69:	98                   	cwtl   
    8e6a:	89 d6                	mov    %edx,%esi
    8e6c:	89 c7                	mov    %eax,%edi
    8e6e:	e8 e2 c5 ff ff       	callq  5455 <safe_div_func_int16_t_s_s>
    8e73:	48 8b 85 a8 f1 ff ff 	mov    -0xe58(%rbp),%rax
    8e7a:	8b 00                	mov    (%rax),%eax
    8e7c:	48 98                	cltq   
    8e7e:	48 39 85 78 f2 ff ff 	cmp    %rax,-0xd88(%rbp)
    8e85:	0f 9c c0             	setl   %al
    8e88:	0f b6 d0             	movzbl %al,%edx
    8e8b:	8b 85 c8 f0 ff ff    	mov    -0xf38(%rbp),%eax
    8e91:	0f b7 c0             	movzwl %ax,%eax
    8e94:	89 d6                	mov    %edx,%esi
    8e96:	89 c7                	mov    %eax,%edi
    8e98:	e8 dd cf ff ff       	callq  5e7a <safe_rshift_func_uint16_t_u_u>
    8e9d:	48 8b 85 a0 f1 ff ff 	mov    -0xe60(%rbp),%rax
    8ea4:	8b 00                	mov    (%rax),%eax
    8ea6:	f7 d0                	not    %eax
    8ea8:	c1 e8 1f             	shr    $0x1f,%eax
    8eab:	0f b6 c0             	movzbl %al,%eax
    8eae:	be 04 00 00 00       	mov    $0x4,%esi
    8eb3:	89 c7                	mov    %eax,%edi
    8eb5:	e8 b2 c4 ff ff       	callq  536c <safe_rshift_func_int8_t_s_u>
    8eba:	b9 00 00 00 00       	mov    $0x0,%ecx
    8ebf:	48 8b 85 98 f2 ff ff 	mov    -0xd68(%rbp),%rax
    8ec6:	0f b6 00             	movzbl (%rax),%eax
    8ec9:	89 c2                	mov    %eax,%edx
    8ecb:	89 c8                	mov    %ecx,%eax
    8ecd:	31 d0                	xor    %edx,%eax
    8ecf:	89 c2                	mov    %eax,%edx
    8ed1:	48 8b 85 98 f2 ff ff 	mov    -0xd68(%rbp),%rax
    8ed8:	88 10                	mov    %dl,(%rax)
    8eda:	8b 85 84 f0 ff ff    	mov    -0xf7c(%rbp),%eax
    8ee0:	85 c0                	test   %eax,%eax
    8ee2:	0f 94 c0             	sete   %al
    8ee5:	0f b6 d0             	movzbl %al,%edx
    8ee8:	48 8b 85 a0 f1 ff ff 	mov    -0xe60(%rbp),%rax
    8eef:	8b 00                	mov    (%rax),%eax
    8ef1:	89 d6                	mov    %edx,%esi
    8ef3:	89 c7                	mov    %eax,%edi
    8ef5:	e8 0b c7 ff ff       	callq  5605 <safe_sub_func_int32_t_s_s>
    8efa:	89 c2                	mov    %eax,%edx
    8efc:	8b 85 2c f1 ff ff    	mov    -0xed4(%rbp),%eax
    8f02:	21 d0                	and    %edx,%eax
    8f04:	0f b6 c0             	movzbl %al,%eax
    8f07:	be 04 00 00 00       	mov    $0x4,%esi
    8f0c:	89 c7                	mov    %eax,%edi
    8f0e:	e8 ab cd ff ff       	callq  5cbe <safe_rshift_func_uint8_t_u_u>
    8f13:	0f b6 c0             	movzbl %al,%eax
    8f16:	8b 15 60 70 01 00    	mov    0x17060(%rip),%edx        # 1ff7c <g_779+0x1c>
    8f1c:	81 e2 ff ff ff 00    	and    $0xffffff,%edx
    8f22:	31 d0                	xor    %edx,%eax
    8f24:	48 63 c8             	movslq %eax,%rcx
    8f27:	48 8b 85 60 f2 ff ff 	mov    -0xda0(%rbp),%rax
    8f2e:	48 8b 10             	mov    (%rax),%rdx
    8f31:	48 8b 02             	mov    (%rdx),%rax
    8f34:	48 8d 70 ff          	lea    -0x1(%rax),%rsi
    8f38:	48 89 32             	mov    %rsi,(%rdx)
    8f3b:	48 89 ce             	mov    %rcx,%rsi
    8f3e:	48 89 c7             	mov    %rax,%rdi
    8f41:	e8 3a d1 ff ff       	callq  6080 <safe_mod_func_uint64_t_u_u>
    8f46:	48 89 c2             	mov    %rax,%rdx
    8f49:	48 8b 05 00 86 01 00 	mov    0x18600(%rip),%rax        # 21550 <g_239>
    8f50:	48 8b 00             	mov    (%rax),%rax
    8f53:	89 10                	mov    %edx,(%rax)
    8f55:	48 8b 05 54 72 01 00 	mov    0x17254(%rip),%rax        # 201b0 <g_1703>
    8f5c:	48 8b 05 55 72 01 00 	mov    0x17255(%rip),%rax        # 201b8 <g_1703+0x8>
    8f63:	48 8b 85 78 f0 ff ff 	mov    -0xf88(%rbp),%rax
    8f6a:	0f b7 c0             	movzwl %ax,%eax
    8f6d:	be 00 00 00 00       	mov    $0x0,%esi
    8f72:	89 c7                	mov    %eax,%edi
    8f74:	e8 45 ce ff ff       	callq  5dbe <safe_lshift_func_uint16_t_u_s>
    8f79:	66 85 c0             	test   %ax,%ax
    8f7c:	0f 94 c0             	sete   %al
    8f7f:	0f b6 d0             	movzbl %al,%edx
    8f82:	48 8b 85 d0 f2 ff ff 	mov    -0xd30(%rbp),%rax
    8f89:	48 3b 85 70 f2 ff ff 	cmp    -0xd90(%rbp),%rax
    8f90:	0f 95 c0             	setne  %al
    8f93:	0f b6 c0             	movzbl %al,%eax
    8f96:	39 c2                	cmp    %eax,%edx
    8f98:	0f 9f c0             	setg   %al
    8f9b:	0f b6 c0             	movzbl %al,%eax
    8f9e:	89 de                	mov    %ebx,%esi
    8fa0:	89 c7                	mov    %eax,%edi
    8fa2:	e8 e7 cd ff ff       	callq  5d8e <safe_div_func_uint16_t_u_u>
    8fa7:	0f b7 c0             	movzwl %ax,%eax
    8faa:	f7 d0                	not    %eax
    8fac:	0b 85 c8 f0 ff ff    	or     -0xf38(%rbp),%eax
    8fb2:	09 85 1c f1 ff ff    	or     %eax,-0xee4(%rbp)
    8fb8:	0f b7 85 a0 f0 ff ff 	movzwl -0xf60(%rbp),%eax
    8fbf:	66 85 c0             	test   %ax,%ax
    8fc2:	74 0f                	je     8fd3 <func_7+0x242a>
    8fc4:	eb 1a                	jmp    8fe0 <func_7+0x2437>
    8fc6:	48 8b 85 70 f1 ff ff 	mov    -0xe90(%rbp),%rax
    8fcd:	c7 00 87 2d 01 ac    	movl   $0xac012d87,(%rax)
    8fd3:	48 8b 85 b0 f1 ff ff 	mov    -0xe50(%rbp),%rax
    8fda:	c7 00 00 00 00 00    	movl   $0x0,(%rax)
    8fe0:	8b 05 52 6e 01 00    	mov    0x16e52(%rip),%eax        # 1fe38 <g_253>
    8fe6:	0f b7 c0             	movzwl %ax,%eax
    8fe9:	be 03 00 00 00       	mov    $0x3,%esi
    8fee:	89 c7                	mov    %eax,%edi
    8ff0:	e8 0a cd ff ff       	callq  5cff <safe_add_func_uint16_t_u_u>
    8ff5:	0f b7 c0             	movzwl %ax,%eax
    8ff8:	89 05 3a 6e 01 00    	mov    %eax,0x16e3a(%rip)        # 1fe38 <g_253>
    8ffe:	8b 05 34 6e 01 00    	mov    0x16e34(%rip),%eax        # 1fe38 <g_253>
    9004:	83 f8 2e             	cmp    $0x2e,%eax
    9007:	0f 86 7c f3 ff ff    	jbe    8389 <func_7+0x17e0>
    900d:	eb 01                	jmp    9010 <func_7+0x2467>
    900f:	90                   	nop
    9010:	48 8b 85 78 f0 ff ff 	mov    -0xf88(%rbp),%rax
    9017:	0f b6 d8             	movzbl %al,%ebx
    901a:	48 8b 85 60 f2 ff ff 	mov    -0xda0(%rbp),%rax
    9021:	48 8b 00             	mov    (%rax),%rax
    9024:	48 8b 10             	mov    (%rax),%rdx
    9027:	48 83 c2 01          	add    $0x1,%rdx
    902b:	48 89 10             	mov    %rdx,(%rax)
    902e:	4c 8b 28             	mov    (%rax),%r13
    9031:	0f b7 85 a0 f0 ff ff 	movzwl -0xf60(%rbp),%eax
    9038:	44 0f b6 e0          	movzbl %al,%r12d
    903c:	0f b7 95 74 f0 ff ff 	movzwl -0xf8c(%rbp),%edx
    9043:	48 8b 0d be 8f 01 00 	mov    0x18fbe(%rip),%rcx        # 22008 <g_2023>
    904a:	48 8b 85 80 f2 ff ff 	mov    -0xd80(%rbp),%rax
    9051:	48 89 08             	mov    %rcx,(%rax)
    9054:	48 8b 85 80 f2 ff ff 	mov    -0xd80(%rbp),%rax
    905b:	48 8b 00             	mov    (%rax),%rax
    905e:	48 85 c0             	test   %rax,%rax
    9061:	0f 94 c0             	sete   %al
    9064:	0f b6 c0             	movzbl %al,%eax
    9067:	89 d6                	mov    %edx,%esi
    9069:	89 c7                	mov    %eax,%edi
    906b:	e8 0a ce ff ff       	callq  5e7a <safe_rshift_func_uint16_t_u_u>
    9070:	0f b7 d0             	movzwl %ax,%edx
    9073:	8b 85 80 f0 ff ff    	mov    -0xf80(%rbp),%eax
    9079:	39 c2                	cmp    %eax,%edx
    907b:	0f 96 c0             	setbe  %al
    907e:	0f b6 c0             	movzbl %al,%eax
    9081:	44 89 e6             	mov    %r12d,%esi
    9084:	89 c7                	mov    %eax,%edi
    9086:	e8 08 cb ff ff       	callq  5b93 <safe_mul_func_uint8_t_u_u>
    908b:	0f b6 c0             	movzbl %al,%eax
    908e:	49 39 c5             	cmp    %rax,%r13
    9091:	0f 92 c0             	setb   %al
    9094:	0f b6 f0             	movzbl %al,%esi
    9097:	8b 85 84 f0 ff ff    	mov    -0xf7c(%rbp),%eax
    909d:	85 c0                	test   %eax,%eax
    909f:	0f 95 c0             	setne  %al
    90a2:	0f b6 c0             	movzbl %al,%eax
    90a5:	89 c2                	mov    %eax,%edx
    90a7:	8b 85 80 f0 ff ff    	mov    -0xf80(%rbp),%eax
    90ad:	39 c2                	cmp    %eax,%edx
    90af:	0f 96 c0             	setbe  %al
    90b2:	0f b6 d0             	movzbl %al,%edx
    90b5:	48 8b 05 4c 88 01 00 	mov    0x1884c(%rip),%rax        # 21908 <g_1206>
    90bc:	0f b6 08             	movzbl (%rax),%ecx
    90bf:	48 8b 05 42 88 01 00 	mov    0x18842(%rip),%rax        # 21908 <g_1206>
    90c6:	31 f1                	xor    %esi,%ecx
    90c8:	88 08                	mov    %cl,(%rax)
    90ca:	0f b6 00             	movzbl (%rax),%eax
    90cd:	0f be c0             	movsbl %al,%eax
    90d0:	39 c2                	cmp    %eax,%edx
    90d2:	0f 9f c0             	setg   %al
    90d5:	0f b6 c0             	movzbl %al,%eax
    90d8:	89 de                	mov    %ebx,%esi
    90da:	89 c7                	mov    %eax,%edi
    90dc:	e8 b2 ca ff ff       	callq  5b93 <safe_mul_func_uint8_t_u_u>
    90e1:	48 8b 05 48 71 01 00 	mov    0x17148(%rip),%rax        # 20230 <g_1811+0x10>
    90e8:	48 c1 e0 19          	shl    $0x19,%rax
    90ec:	48 c1 f8 24          	sar    $0x24,%rax
    90f0:	39 85 cc f0 ff ff    	cmp    %eax,-0xf34(%rbp)
    90f6:	0f 9d c0             	setge  %al
    90f9:	0f b6 c0             	movzbl %al,%eax
    90fc:	be ff ff ff ff       	mov    $0xffffffff,%esi
    9101:	89 c7                	mov    %eax,%edi
    9103:	e8 ed c2 ff ff       	callq  53f5 <safe_mul_func_int16_t_s_s>
    9108:	66 c1 e8 0f          	shr    $0xf,%ax
    910c:	0f b6 c0             	movzbl %al,%eax
    910f:	48 39 85 78 f0 ff ff 	cmp    %rax,-0xf88(%rbp)
    9116:	0f 96 c0             	setbe  %al
    9119:	0f b6 d0             	movzbl %al,%edx
    911c:	0f b7 85 a0 f0 ff ff 	movzwl -0xf60(%rbp),%eax
    9123:	0f b7 c0             	movzwl %ax,%eax
    9126:	09 d0                	or     %edx,%eax
    9128:	3d f8 f4 00 00       	cmp    $0xf4f8,%eax
    912d:	0f 85 3a 0a 00 00    	jne    9b6d <func_7+0x2fc4>
    9133:	c6 85 9d f0 ff ff 53 	movb   $0x53,-0xf63(%rbp)
    913a:	48 c7 85 e8 f2 ff ff 	movq   $0x0,-0xd18(%rbp)
    9141:	00 00 00 00 
    9145:	48 8d 05 30 6c 01 00 	lea    0x16c30(%rip),%rax        # 1fd7c <g_155+0x9c>
    914c:	48 89 85 f0 f2 ff ff 	mov    %rax,-0xd10(%rbp)
    9153:	c7 85 34 f1 ff ff fa 	movl   $0xfffffffa,-0xecc(%rbp)
    915a:	ff ff ff 
    915d:	48 c7 85 f8 f2 ff ff 	movq   $0x0,-0xd08(%rbp)
    9164:	00 00 00 00 
    9168:	48 8d 05 71 72 01 00 	lea    0x17271(%rip),%rax        # 203e0 <g_2079>
    916f:	48 89 85 00 f3 ff ff 	mov    %rax,-0xd00(%rbp)
    9176:	c7 85 38 f1 ff ff ff 	movl   $0xffffffff,-0xec8(%rbp)
    917d:	ff ff ff 
    9180:	48 8d 85 c0 f9 ff ff 	lea    -0x640(%rbp),%rax
    9187:	48 8d 15 12 78 01 00 	lea    0x17812(%rip),%rdx        # 209a0 <g_2115+0x5a0>
    918e:	b9 46 00 00 00       	mov    $0x46,%ecx
    9193:	48 89 c7             	mov    %rax,%rdi
    9196:	48 89 d6             	mov    %rdx,%rsi
    9199:	f3 48 a5             	rep movsq %ds:(%rsi),%es:(%rdi)
    919c:	48 8b 85 a0 f1 ff ff 	mov    -0xe60(%rbp),%rax
    91a3:	8b 18                	mov    (%rax),%ebx
    91a5:	0f be 85 9d f0 ff ff 	movsbl -0xf63(%rbp),%eax
    91ac:	89 c7                	mov    %eax,%edi
    91ae:	e8 0c c0 ff ff       	callq  51bf <safe_unary_minus_func_int8_t_s>
    91b3:	0f be c0             	movsbl %al,%eax
    91b6:	39 c3                	cmp    %eax,%ebx
    91b8:	0f 95 c0             	setne  %al
    91bb:	0f b6 c0             	movzbl %al,%eax
    91be:	21 85 cc f0 ff ff    	and    %eax,-0xf34(%rbp)
    91c4:	8b 85 80 f0 ff ff    	mov    -0xf80(%rbp),%eax
    91ca:	89 c0                	mov    %eax,%eax
    91cc:	48 89 85 68 f0 ff ff 	mov    %rax,-0xf98(%rbp)
    91d3:	48 8b 05 2e 8e 01 00 	mov    0x18e2e(%rip),%rax        # 22008 <g_2023>
    91da:	48 8b 00             	mov    (%rax),%rax
    91dd:	48 8b 00             	mov    (%rax),%rax
    91e0:	48 89 85 60 f0 ff ff 	mov    %rax,-0xfa0(%rbp)
    91e7:	0f b7 85 74 f0 ff ff 	movzwl -0xf8c(%rbp),%eax
    91ee:	0f b6 c0             	movzbl %al,%eax
    91f1:	be 05 00 00 00       	mov    $0x5,%esi
    91f6:	89 c7                	mov    %eax,%edi
    91f8:	e8 4f ca ff ff       	callq  5c4c <safe_lshift_func_uint8_t_u_u>
    91fd:	84 c0                	test   %al,%al
    91ff:	0f 85 2a 02 00 00    	jne    942f <func_7+0x2886>
    9205:	8b 9d 80 f0 ff ff    	mov    -0xf80(%rbp),%ebx
    920b:	48 8b 85 78 f0 ff ff 	mov    -0xf88(%rbp),%rax
    9212:	44 0f b7 e0          	movzwl %ax,%r12d
    9216:	0f b6 05 f9 6f 01 00 	movzbl 0x16ff9(%rip),%eax        # 20216 <g_1792+0x16>
    921d:	01 c0                	add    %eax,%eax
    921f:	c0 f8 06             	sar    $0x6,%al
    9222:	44 0f be e8          	movsbl %al,%r13d
    9226:	0f b7 85 74 f0 ff ff 	movzwl -0xf8c(%rbp),%eax
    922d:	44 0f b6 f0          	movzbl %al,%r14d
    9231:	b8 ce fd ff ff       	mov    $0xfffffdce,%eax
    9236:	89 85 70 f0 ff ff    	mov    %eax,-0xf90(%rbp)
    923c:	0f b7 05 0b 6e 01 00 	movzwl 0x16e0b(%rip),%eax        # 2004e <g_1041+0xe>
    9243:	0f b7 85 74 f0 ff ff 	movzwl -0xf8c(%rbp),%eax
    924a:	88 85 77 f0 ff ff    	mov    %al,-0xf89(%rbp)
    9250:	44 0f be bd 9d f0 ff 	movsbl -0xf63(%rbp),%r15d
    9257:	ff 
    9258:	48 8d 05 5d 61 01 00 	lea    0x1615d(%rip),%rax        # 1f3bc <g_102+0x1c>
    925f:	8b 10                	mov    (%rax),%edx
    9261:	48 8d 05 54 61 01 00 	lea    0x16154(%rip),%rax        # 1f3bc <g_102+0x1c>
    9268:	83 ca 04             	or     $0x4,%edx
    926b:	89 10                	mov    %edx,(%rax)
    926d:	8b 08                	mov    (%rax),%ecx
    926f:	48 8b 85 40 f1 ff ff 	mov    -0xec0(%rbp),%rax
    9276:	48 8b 00             	mov    (%rax),%rax
    9279:	8b 10                	mov    (%rax),%edx
    927b:	48 8b 85 40 f1 ff ff 	mov    -0xec0(%rbp),%rax
    9282:	48 8b 00             	mov    (%rax),%rax
    9285:	21 ca                	and    %ecx,%edx
    9287:	89 10                	mov    %edx,(%rax)
    9289:	8b 05 8d 6e 01 00    	mov    0x16e8d(%rip),%eax        # 2011c <g_1438+0xc>
    928f:	c1 e0 08             	shl    $0x8,%eax
    9292:	c1 f8 08             	sar    $0x8,%eax
    9295:	3d fe 00 00 00       	cmp    $0xfe,%eax
    929a:	0f 94 c0             	sete   %al
    929d:	0f b6 c0             	movzbl %al,%eax
    92a0:	be 3d 00 00 00       	mov    $0x3d,%esi
    92a5:	89 c7                	mov    %eax,%edi
    92a7:	e8 66 bf ff ff       	callq  5212 <safe_mul_func_int8_t_s_s>
    92ac:	84 c0                	test   %al,%al
    92ae:	75 09                	jne    92b9 <func_7+0x2710>
    92b0:	83 bd 10 f1 ff ff 00 	cmpl   $0x0,-0xef0(%rbp)
    92b7:	74 07                	je     92c0 <func_7+0x2717>
    92b9:	ba 01 00 00 00       	mov    $0x1,%edx
    92be:	eb 05                	jmp    92c5 <func_7+0x271c>
    92c0:	ba 00 00 00 00       	mov    $0x0,%edx
    92c5:	0f b6 05 1e 6b 01 00 	movzbl 0x16b1e(%rip),%eax        # 1fdea <g_236+0x4a>
    92cc:	0f be c0             	movsbl %al,%eax
    92cf:	39 c2                	cmp    %eax,%edx
    92d1:	0f 95 c0             	setne  %al
    92d4:	0f b6 c0             	movzbl %al,%eax
    92d7:	48 89 c7             	mov    %rax,%rdi
    92da:	e8 37 c5 ff ff       	callq  5816 <safe_unary_minus_func_int64_t_s>
    92df:	48 8b 95 70 f1 ff ff 	mov    -0xe90(%rbp),%rdx
    92e6:	8b 12                	mov    (%rdx),%edx
    92e8:	21 c2                	and    %eax,%edx
    92ea:	48 8b 85 70 f1 ff ff 	mov    -0xe90(%rbp),%rax
    92f1:	89 10                	mov    %edx,(%rax)
    92f3:	48 8b 85 70 f1 ff ff 	mov    -0xe90(%rbp),%rax
    92fa:	8b 00                	mov    (%rax),%eax
    92fc:	44 89 fe             	mov    %r15d,%esi
    92ff:	89 c7                	mov    %eax,%edi
    9301:	e8 b2 cb ff ff       	callq  5eb8 <safe_add_func_uint32_t_u_u>
    9306:	8b 95 80 f0 ff ff    	mov    -0xf80(%rbp),%edx
    930c:	39 d0                	cmp    %edx,%eax
    930e:	0f 96 c0             	setbe  %al
    9311:	0f b6 c0             	movzbl %al,%eax
    9314:	be 0f 00 00 00       	mov    $0xf,%esi
    9319:	89 c7                	mov    %eax,%edi
    931b:	e8 28 cb ff ff       	callq  5e48 <safe_rshift_func_uint16_t_u_s>
    9320:	0f b7 c0             	movzwl %ax,%eax
    9323:	39 85 c8 f0 ff ff    	cmp    %eax,-0xf38(%rbp)
    9329:	0f 9d c0             	setge  %al
    932c:	0a 85 77 f0 ff ff    	or     -0xf89(%rbp),%al
    9332:	88 05 00 5d 01 00    	mov    %al,0x15d00(%rip)        # 1f038 <g_82>
    9338:	0f b6 05 f9 5c 01 00 	movzbl 0x15cf9(%rip),%eax        # 1f038 <g_82>
    933f:	0f b6 c0             	movzbl %al,%eax
    9342:	39 85 c8 f0 ff ff    	cmp    %eax,-0xf38(%rbp)
    9348:	8b 85 80 f0 ff ff    	mov    -0xf80(%rbp),%eax
    934e:	89 c0                	mov    %eax,%eax
    9350:	48 39 85 78 f0 ff ff 	cmp    %rax,-0xf88(%rbp)
    9357:	0f 94 c0             	sete   %al
    935a:	0f b6 c0             	movzbl %al,%eax
    935d:	be 00 00 00 00       	mov    $0x0,%esi
    9362:	48 89 c7             	mov    %rax,%rdi
    9365:	e8 3e c5 ff ff       	callq  58a8 <safe_sub_func_int64_t_s_s>
    936a:	80 bd 9d f0 ff ff 00 	cmpb   $0x0,-0xf63(%rbp)
    9371:	0f 9e c0             	setle  %al
    9374:	0f b6 c0             	movzbl %al,%eax
    9377:	8b b5 70 f0 ff ff    	mov    -0xf90(%rbp),%esi
    937d:	89 c7                	mov    %eax,%edi
    937f:	e8 c8 c8 ff ff       	callq  5c4c <safe_lshift_func_uint8_t_u_u>
    9384:	0f b6 c0             	movzbl %al,%eax
    9387:	48 23 85 78 f0 ff ff 	and    -0xf88(%rbp),%rax
    938e:	48 85 c0             	test   %rax,%rax
    9391:	74 07                	je     939a <func_7+0x27f1>
    9393:	b8 01 00 00 00       	mov    $0x1,%eax
    9398:	eb 05                	jmp    939f <func_7+0x27f6>
    939a:	b8 00 00 00 00       	mov    $0x0,%eax
    939f:	0f be c0             	movsbl %al,%eax
    93a2:	be 6e 00 00 00       	mov    $0x6e,%esi
    93a7:	89 c7                	mov    %eax,%edi
    93a9:	e8 26 be ff ff       	callq  51d4 <safe_add_func_int8_t_s_s>
    93ae:	0f b6 c0             	movzbl %al,%eax
    93b1:	44 89 f6             	mov    %r14d,%esi
    93b4:	89 c7                	mov    %eax,%edi
    93b6:	e8 20 c8 ff ff       	callq  5bdb <safe_div_func_uint8_t_u_u>
    93bb:	0f be 95 9c f0 ff ff 	movsbl -0xf64(%rbp),%edx
    93c2:	48 8b 85 78 f0 ff ff 	mov    -0xf88(%rbp),%rax
    93c9:	98                   	cwtl   
    93ca:	89 d6                	mov    %edx,%esi
    93cc:	89 c7                	mov    %eax,%edi
    93ce:	e8 90 c1 ff ff       	callq  5563 <safe_rshift_func_int16_t_s_u>
    93d3:	98                   	cwtl   
    93d4:	39 85 cc f0 ff ff    	cmp    %eax,-0xf34(%rbp)
    93da:	0f 9f c0             	setg   %al
    93dd:	0f b6 d0             	movzbl %al,%edx
    93e0:	0f be 85 9d f0 ff ff 	movsbl -0xf63(%rbp),%eax
    93e7:	39 c2                	cmp    %eax,%edx
    93e9:	75 0d                	jne    93f8 <func_7+0x284f>
    93eb:	48 8b 85 70 f1 ff ff 	mov    -0xe90(%rbp),%rax
    93f2:	8b 00                	mov    (%rax),%eax
    93f4:	85 c0                	test   %eax,%eax
    93f6:	74 07                	je     93ff <func_7+0x2856>
    93f8:	b8 01 00 00 00       	mov    $0x1,%eax
    93fd:	eb 05                	jmp    9404 <func_7+0x285b>
    93ff:	b8 00 00 00 00       	mov    $0x0,%eax
    9404:	0f b7 c0             	movzwl %ax,%eax
    9407:	44 89 ee             	mov    %r13d,%esi
    940a:	89 c7                	mov    %eax,%edi
    940c:	e8 ad c9 ff ff       	callq  5dbe <safe_lshift_func_uint16_t_u_s>
    9411:	0f b7 c0             	movzwl %ax,%eax
    9414:	44 89 e6             	mov    %r12d,%esi
    9417:	89 c7                	mov    %eax,%edi
    9419:	e8 01 c9 ff ff       	callq  5d1f <safe_sub_func_uint16_t_u_u>
    941e:	0f b7 c0             	movzwl %ax,%eax
    9421:	89 de                	mov    %ebx,%esi
    9423:	89 c7                	mov    %eax,%edi
    9425:	e8 50 ca ff ff       	callq  5e7a <safe_rshift_func_uint16_t_u_u>
    942a:	66 85 c0             	test   %ax,%ax
    942d:	74 07                	je     9436 <func_7+0x288d>
    942f:	ba 01 00 00 00       	mov    $0x1,%edx
    9434:	eb 05                	jmp    943b <func_7+0x2892>
    9436:	ba 00 00 00 00       	mov    $0x0,%edx
    943b:	48 8b 05 3e 81 01 00 	mov    0x1813e(%rip),%rax        # 21580 <g_376>
    9442:	48 8b 00             	mov    (%rax),%rax
    9445:	0f b6 00             	movzbl (%rax),%eax
    9448:	0f be c0             	movsbl %al,%eax
    944b:	31 d0                	xor    %edx,%eax
    944d:	48 98                	cltq   
    944f:	48 39 85 60 f0 ff ff 	cmp    %rax,-0xfa0(%rbp)
    9456:	0f 93 c0             	setae  %al
    9459:	0f b6 c0             	movzbl %al,%eax
    945c:	48 8b b5 68 f0 ff ff 	mov    -0xf98(%rbp),%rsi
    9463:	48 89 c7             	mov    %rax,%rdi
    9466:	e8 49 c5 ff ff       	callq  59b4 <safe_mod_func_int64_t_s_s>
    946b:	8b 95 c8 f0 ff ff    	mov    -0xf38(%rbp),%edx
    9471:	8b 85 80 f0 ff ff    	mov    -0xf80(%rbp),%eax
    9477:	31 d0                	xor    %edx,%eax
    9479:	89 c2                	mov    %eax,%edx
    947b:	48 8b 05 1e 6f 01 00 	mov    0x16f1e(%rip),%rax        # 203a0 <g_2060>
    9482:	48 39 c2             	cmp    %rax,%rdx
    9485:	0f 94 c0             	sete   %al
    9488:	89 c2                	mov    %eax,%edx
    948a:	48 8b 85 f0 f2 ff ff 	mov    -0xd10(%rbp),%rax
    9491:	88 10                	mov    %dl,(%rax)
    9493:	48 8b 05 be 8a 01 00 	mov    0x18abe(%rip),%rax        # 21f58 <g_1502>
    949a:	8b 00                	mov    (%rax),%eax
    949c:	09 85 34 f1 ff ff    	or     %eax,-0xecc(%rbp)
    94a2:	c7 85 a8 f0 ff ff 00 	movl   $0x0,-0xf58(%rbp)
    94a9:	00 00 00 
    94ac:	e9 44 05 00 00       	jmpq   99f5 <func_7+0x2e4c>
    94b1:	c7 85 3c f1 ff ff fe 	movl   $0xfffffffe,-0xec4(%rbp)
    94b8:	ff ff ff 
    94bb:	48 8d 05 f6 8f 01 00 	lea    0x18ff6(%rip),%rax        # 224b8 <g_855>
    94c2:	48 89 85 80 f6 ff ff 	mov    %rax,-0x980(%rbp)
    94c9:	48 8d 05 e8 8f 01 00 	lea    0x18fe8(%rip),%rax        # 224b8 <g_855>
    94d0:	48 89 85 88 f6 ff ff 	mov    %rax,-0x978(%rbp)
    94d7:	48 8d 05 da 8f 01 00 	lea    0x18fda(%rip),%rax        # 224b8 <g_855>
    94de:	48 89 85 90 f6 ff ff 	mov    %rax,-0x970(%rbp)
    94e5:	48 8d 05 cc 8f 01 00 	lea    0x18fcc(%rip),%rax        # 224b8 <g_855>
    94ec:	48 89 85 98 f6 ff ff 	mov    %rax,-0x968(%rbp)
    94f3:	48 8d 05 be 8f 01 00 	lea    0x18fbe(%rip),%rax        # 224b8 <g_855>
    94fa:	48 89 85 a0 f6 ff ff 	mov    %rax,-0x960(%rbp)
    9501:	48 8d 05 b0 8f 01 00 	lea    0x18fb0(%rip),%rax        # 224b8 <g_855>
    9508:	48 89 85 a8 f6 ff ff 	mov    %rax,-0x958(%rbp)
    950f:	48 8d 05 c8 6c 01 00 	lea    0x16cc8(%rip),%rax        # 201de <g_1727+0xe>
    9516:	48 89 85 00 f8 ff ff 	mov    %rax,-0x800(%rbp)
    951d:	48 8d 05 ba 6c 01 00 	lea    0x16cba(%rip),%rax        # 201de <g_1727+0xe>
    9524:	48 89 85 08 f8 ff ff 	mov    %rax,-0x7f8(%rbp)
    952b:	48 c7 85 10 f8 ff ff 	movq   $0x0,-0x7f0(%rbp)
    9532:	00 00 00 00 
    9536:	48 8d 05 a1 6c 01 00 	lea    0x16ca1(%rip),%rax        # 201de <g_1727+0xe>
    953d:	48 89 85 18 f8 ff ff 	mov    %rax,-0x7e8(%rbp)
    9544:	48 8d 05 93 6c 01 00 	lea    0x16c93(%rip),%rax        # 201de <g_1727+0xe>
    954b:	48 89 85 20 f8 ff ff 	mov    %rax,-0x7e0(%rbp)
    9552:	48 8d 85 9e f0 ff ff 	lea    -0xf62(%rbp),%rax
    9559:	48 89 85 28 f8 ff ff 	mov    %rax,-0x7d8(%rbp)
    9560:	48 8d 85 9e f0 ff ff 	lea    -0xf62(%rbp),%rax
    9567:	48 89 85 30 f8 ff ff 	mov    %rax,-0x7d0(%rbp)
    956e:	48 8d 05 69 6c 01 00 	lea    0x16c69(%rip),%rax        # 201de <g_1727+0xe>
    9575:	48 89 85 38 f8 ff ff 	mov    %rax,-0x7c8(%rbp)
    957c:	48 8d 85 9e f0 ff ff 	lea    -0xf62(%rbp),%rax
    9583:	48 89 85 40 f8 ff ff 	mov    %rax,-0x7c0(%rbp)
    958a:	48 8d 05 4d 6c 01 00 	lea    0x16c4d(%rip),%rax        # 201de <g_1727+0xe>
    9591:	48 89 85 48 f8 ff ff 	mov    %rax,-0x7b8(%rbp)
    9598:	48 8d 85 9e f0 ff ff 	lea    -0xf62(%rbp),%rax
    959f:	48 89 85 50 f8 ff ff 	mov    %rax,-0x7b0(%rbp)
    95a6:	48 8d 85 9e f0 ff ff 	lea    -0xf62(%rbp),%rax
    95ad:	48 89 85 58 f8 ff ff 	mov    %rax,-0x7a8(%rbp)
    95b4:	48 8d 05 23 6c 01 00 	lea    0x16c23(%rip),%rax        # 201de <g_1727+0xe>
    95bb:	48 89 85 60 f8 ff ff 	mov    %rax,-0x7a0(%rbp)
    95c2:	48 8d 05 15 6c 01 00 	lea    0x16c15(%rip),%rax        # 201de <g_1727+0xe>
    95c9:	48 89 85 68 f8 ff ff 	mov    %rax,-0x798(%rbp)
    95d0:	48 c7 85 70 f8 ff ff 	movq   $0x0,-0x790(%rbp)
    95d7:	00 00 00 00 
    95db:	48 8d 05 fc 6b 01 00 	lea    0x16bfc(%rip),%rax        # 201de <g_1727+0xe>
    95e2:	48 89 85 78 f8 ff ff 	mov    %rax,-0x788(%rbp)
    95e9:	48 8d 05 ee 6b 01 00 	lea    0x16bee(%rip),%rax        # 201de <g_1727+0xe>
    95f0:	48 89 85 80 f8 ff ff 	mov    %rax,-0x780(%rbp)
    95f7:	48 8d 85 9e f0 ff ff 	lea    -0xf62(%rbp),%rax
    95fe:	48 89 85 88 f8 ff ff 	mov    %rax,-0x778(%rbp)
    9605:	48 8d 85 9e f0 ff ff 	lea    -0xf62(%rbp),%rax
    960c:	48 89 85 90 f8 ff ff 	mov    %rax,-0x770(%rbp)
    9613:	48 8d 05 c4 6b 01 00 	lea    0x16bc4(%rip),%rax        # 201de <g_1727+0xe>
    961a:	48 89 85 98 f8 ff ff 	mov    %rax,-0x768(%rbp)
    9621:	48 8d 85 9e f0 ff ff 	lea    -0xf62(%rbp),%rax
    9628:	48 89 85 a0 f8 ff ff 	mov    %rax,-0x760(%rbp)
    962f:	48 8d 05 a8 6b 01 00 	lea    0x16ba8(%rip),%rax        # 201de <g_1727+0xe>
    9636:	48 89 85 a8 f8 ff ff 	mov    %rax,-0x758(%rbp)
    963d:	48 8d 85 9e f0 ff ff 	lea    -0xf62(%rbp),%rax
    9644:	48 89 85 b0 f8 ff ff 	mov    %rax,-0x750(%rbp)
    964b:	48 c7 85 b8 f8 ff ff 	movq   $0x0,-0x748(%rbp)
    9652:	00 00 00 00 
    9656:	48 8d 85 9e f0 ff ff 	lea    -0xf62(%rbp),%rax
    965d:	48 89 85 c0 f8 ff ff 	mov    %rax,-0x740(%rbp)
    9664:	48 8d 85 9e f0 ff ff 	lea    -0xf62(%rbp),%rax
    966b:	48 89 85 c8 f8 ff ff 	mov    %rax,-0x738(%rbp)
    9672:	48 8d 05 65 6b 01 00 	lea    0x16b65(%rip),%rax        # 201de <g_1727+0xe>
    9679:	48 89 85 d0 f8 ff ff 	mov    %rax,-0x730(%rbp)
    9680:	48 8d 85 9e f0 ff ff 	lea    -0xf62(%rbp),%rax
    9687:	48 89 85 d8 f8 ff ff 	mov    %rax,-0x728(%rbp)
    968e:	48 8d 85 9e f0 ff ff 	lea    -0xf62(%rbp),%rax
    9695:	48 89 85 e0 f8 ff ff 	mov    %rax,-0x720(%rbp)
    969c:	48 c7 85 e8 f8 ff ff 	movq   $0x0,-0x718(%rbp)
    96a3:	00 00 00 00 
    96a7:	48 c7 85 f0 f8 ff ff 	movq   $0x0,-0x710(%rbp)
    96ae:	00 00 00 00 
    96b2:	48 8d 85 9e f0 ff ff 	lea    -0xf62(%rbp),%rax
    96b9:	48 89 85 f8 f8 ff ff 	mov    %rax,-0x708(%rbp)
    96c0:	48 c7 85 00 f9 ff ff 	movq   $0x0,-0x700(%rbp)
    96c7:	00 00 00 00 
    96cb:	48 8d 85 9e f0 ff ff 	lea    -0xf62(%rbp),%rax
    96d2:	48 89 85 08 f9 ff ff 	mov    %rax,-0x6f8(%rbp)
    96d9:	48 c7 85 10 f9 ff ff 	movq   $0x0,-0x6f0(%rbp)
    96e0:	00 00 00 00 
    96e4:	48 c7 85 18 f9 ff ff 	movq   $0x0,-0x6e8(%rbp)
    96eb:	00 00 00 00 
    96ef:	48 8d 85 9e f0 ff ff 	lea    -0xf62(%rbp),%rax
    96f6:	48 89 85 20 f9 ff ff 	mov    %rax,-0x6e0(%rbp)
    96fd:	48 8d 85 9e f0 ff ff 	lea    -0xf62(%rbp),%rax
    9704:	48 89 85 28 f9 ff ff 	mov    %rax,-0x6d8(%rbp)
    970b:	48 8d 05 cc 6a 01 00 	lea    0x16acc(%rip),%rax        # 201de <g_1727+0xe>
    9712:	48 89 85 30 f9 ff ff 	mov    %rax,-0x6d0(%rbp)
    9719:	48 8d 85 9e f0 ff ff 	lea    -0xf62(%rbp),%rax
    9720:	48 89 85 38 f9 ff ff 	mov    %rax,-0x6c8(%rbp)
    9727:	c7 45 c4 7b 7b 7b 7b 	movl   $0x7b7b7b7b,-0x3c(%rbp)
    972e:	c6 85 9b f0 ff ff 01 	movb   $0x1,-0xf65(%rbp)
    9735:	8b 85 84 f0 ff ff    	mov    -0xf7c(%rbp),%eax
    973b:	0f bf d8             	movswl %ax,%ebx
    973e:	81 bd 3c f1 ff ff 99 	cmpl   $0x99,-0xec4(%rbp)
    9745:	00 00 00 
    9748:	0f 95 c0             	setne  %al
    974b:	44 0f b6 e8          	movzbl %al,%r13d
    974f:	44 8b a5 3c f1 ff ff 	mov    -0xec4(%rbp),%r12d
    9756:	0f be 95 9d f0 ff ff 	movsbl -0xf63(%rbp),%edx
    975d:	8b 85 84 f0 ff ff    	mov    -0xf7c(%rbp),%eax
    9763:	39 c2                	cmp    %eax,%edx
    9765:	0f 95 c0             	setne  %al
    9768:	44 0f b6 f0          	movzbl %al,%r14d
    976c:	48 83 bd f8 f2 ff ff 	cmpq   $0x0,-0xd08(%rbp)
    9773:	00 
    9774:	0f 95 c0             	setne  %al
    9777:	0f b6 c0             	movzbl %al,%eax
    977a:	48 8b 95 a0 f6 ff ff 	mov    -0x960(%rbp),%rdx
    9781:	48 85 d2             	test   %rdx,%rdx
    9784:	0f 94 c2             	sete   %dl
    9787:	0f b6 d2             	movzbl %dl,%edx
    978a:	89 95 80 f0 ff ff    	mov    %edx,-0xf80(%rbp)
    9790:	48 8b 15 e9 7d 01 00 	mov    0x17de9(%rip),%rdx        # 21580 <g_376>
    9797:	48 8b 12             	mov    (%rdx),%rdx
    979a:	0f b6 12             	movzbl (%rdx),%edx
    979d:	0f be d2             	movsbl %dl,%edx
    97a0:	21 95 d0 f0 ff ff    	and    %edx,-0xf30(%rbp)
    97a6:	8b 95 d0 f0 ff ff    	mov    -0xf30(%rbp),%edx
    97ac:	89 95 d4 f0 ff ff    	mov    %edx,-0xf2c(%rbp)
    97b2:	39 85 d4 f0 ff ff    	cmp    %eax,-0xf2c(%rbp)
    97b8:	0f 9f c0             	setg   %al
    97bb:	0f b6 c0             	movzbl %al,%eax
    97be:	be 0b 00 00 00       	mov    $0xb,%esi
    97c3:	89 c7                	mov    %eax,%edi
    97c5:	e8 7e c6 ff ff       	callq  5e48 <safe_rshift_func_uint16_t_u_s>
    97ca:	44 31 f0             	xor    %r14d,%eax
    97cd:	66 89 05 c0 65 01 00 	mov    %ax,0x165c0(%rip)        # 1fd94 <g_160>
    97d4:	0f b7 05 b9 65 01 00 	movzwl 0x165b9(%rip),%eax        # 1fd94 <g_160>
    97db:	98                   	cwtl   
    97dc:	44 89 e6             	mov    %r12d,%esi
    97df:	89 c7                	mov    %eax,%edi
    97e1:	e8 ac bc ff ff       	callq  5492 <safe_lshift_func_int16_t_s_s>
    97e6:	0f bf d0             	movswl %ax,%edx
    97e9:	8b 85 84 f0 ff ff    	mov    -0xf7c(%rbp),%eax
    97ef:	31 d0                	xor    %edx,%eax
    97f1:	41 39 c5             	cmp    %eax,%r13d
    97f4:	0f be 85 9d f0 ff ff 	movsbl -0xf63(%rbp),%eax
    97fb:	89 de                	mov    %ebx,%esi
    97fd:	89 c7                	mov    %eax,%edi
    97ff:	e8 cf bb ff ff       	callq  53d3 <safe_sub_func_int16_t_s_s>
    9804:	8b 85 80 f0 ff ff    	mov    -0xf80(%rbp),%eax
    980a:	89 85 18 f1 ff ff    	mov    %eax,-0xee8(%rbp)
    9810:	48 c7 85 00 f3 ff ff 	movq   $0x0,-0xd00(%rbp)
    9817:	00 00 00 00 
    981b:	44 0f b6 65 c7       	movzbl -0x39(%rbp),%r12d
    9820:	48 8b 05 e1 87 01 00 	mov    0x187e1(%rip),%rax        # 22008 <g_2023>
    9827:	48 8b 00             	mov    (%rax),%rax
    982a:	48 8b 18             	mov    (%rax),%rbx
    982d:	48 8b 85 78 f1 ff ff 	mov    -0xe88(%rbp),%rax
    9834:	48 8b 00             	mov    (%rax),%rax
    9837:	48 8b 00             	mov    (%rax),%rax
    983a:	48 8b 00             	mov    (%rax),%rax
    983d:	8b 08                	mov    (%rax),%ecx
    983f:	0f b7 95 74 f0 ff ff 	movzwl -0xf8c(%rbp),%edx
    9846:	48 8b 85 78 f1 ff ff 	mov    -0xe88(%rbp),%rax
    984d:	48 8b 00             	mov    (%rax),%rax
    9850:	48 8b 00             	mov    (%rax),%rax
    9853:	48 8b 00             	mov    (%rax),%rax
    9856:	31 ca                	xor    %ecx,%edx
    9858:	89 10                	mov    %edx,(%rax)
    985a:	44 8b 28             	mov    (%rax),%r13d
    985d:	48 8b 05 34 81 01 00 	mov    0x18134(%rip),%rax        # 21998 <g_1415>
    9864:	48 8b 95 c0 f1 ff ff 	mov    -0xe40(%rbp),%rdx
    986b:	48 89 10             	mov    %rdx,(%rax)
    986e:	48 8b 10             	mov    (%rax),%rdx
    9871:	48 8d 85 a0 f0 ff ff 	lea    -0xf60(%rbp),%rax
    9878:	48 39 c2             	cmp    %rax,%rdx
    987b:	48 8b 05 fe 66 01 00 	mov    0x166fe(%rip),%rax        # 1ff80 <g_857>
    9882:	48 c1 e0 10          	shl    $0x10,%rax
    9886:	48 c1 f8 23          	sar    $0x23,%rax
    988a:	39 85 14 f1 ff ff    	cmp    %eax,-0xeec(%rbp)
    9890:	7e 0f                	jle    98a1 <func_7+0x2cf8>
    9892:	0f b6 45 c7          	movzbl -0x39(%rbp),%eax
    9896:	84 c0                	test   %al,%al
    9898:	74 07                	je     98a1 <func_7+0x2cf8>
    989a:	ba 01 00 00 00       	mov    $0x1,%edx
    989f:	eb 05                	jmp    98a6 <func_7+0x2cfd>
    98a1:	ba 00 00 00 00       	mov    $0x0,%edx
    98a6:	48 8b 05 7b 5f 01 00 	mov    0x15f7b(%rip),%rax        # 1f828 <g_142+0x348>
    98ad:	25 ff ff 07 00       	and    $0x7ffff,%eax
    98b2:	0f b6 c0             	movzbl %al,%eax
    98b5:	89 d6                	mov    %edx,%esi
    98b7:	89 c7                	mov    %eax,%edi
    98b9:	e8 47 c3 ff ff       	callq  5c05 <safe_lshift_func_uint8_t_u_s>
    98be:	0f b6 d0             	movzbl %al,%edx
    98c1:	48 8b 05 b8 7c 01 00 	mov    0x17cb8(%rip),%rax        # 21580 <g_376>
    98c8:	48 8b 00             	mov    (%rax),%rax
    98cb:	0f b6 00             	movzbl (%rax),%eax
    98ce:	0f be c0             	movsbl %al,%eax
    98d1:	31 d0                	xor    %edx,%eax
    98d3:	89 c2                	mov    %eax,%edx
    98d5:	48 8b 05 7c 7c 01 00 	mov    0x17c7c(%rip),%rax        # 21558 <g_238>
    98dc:	48 8b 00             	mov    (%rax),%rax
    98df:	48 8b 00             	mov    (%rax),%rax
    98e2:	8b 00                	mov    (%rax),%eax
    98e4:	39 c2                	cmp    %eax,%edx
    98e6:	0f 93 c0             	setae  %al
    98e9:	0f b6 c0             	movzbl %al,%eax
    98ec:	41 39 c5             	cmp    %eax,%r13d
    98ef:	0f 97 c0             	seta   %al
    98f2:	0f b6 c0             	movzbl %al,%eax
    98f5:	be 00 00 00 00       	mov    $0x0,%esi
    98fa:	89 c7                	mov    %eax,%edi
    98fc:	e8 a0 b9 ff ff       	callq  52a1 <safe_lshift_func_int8_t_s_s>
    9901:	84 c0                	test   %al,%al
    9903:	75 11                	jne    9916 <func_7+0x2d6d>
    9905:	8b 85 80 f0 ff ff    	mov    -0xf80(%rbp),%eax
    990b:	85 c0                	test   %eax,%eax
    990d:	74 07                	je     9916 <func_7+0x2d6d>
    990f:	b8 01 00 00 00       	mov    $0x1,%eax
    9914:	eb 05                	jmp    991b <func_7+0x2d72>
    9916:	b8 00 00 00 00       	mov    $0x0,%eax
    991b:	83 f8 64             	cmp    $0x64,%eax
    991e:	0f 95 c0             	setne  %al
    9921:	0f b6 c0             	movzbl %al,%eax
    9924:	be 06 00 00 00       	mov    $0x6,%esi
    9929:	89 c7                	mov    %eax,%edi
    992b:	e8 3c ba ff ff       	callq  536c <safe_rshift_func_int8_t_s_u>
    9930:	8b 85 80 f0 ff ff    	mov    -0xf80(%rbp),%eax
    9936:	83 f8 01             	cmp    $0x1,%eax
    9939:	48 8b 85 78 f0 ff ff 	mov    -0xf88(%rbp),%rax
    9940:	48 89 de             	mov    %rbx,%rsi
    9943:	48 89 c7             	mov    %rax,%rdi
    9946:	e8 e3 c6 ff ff       	callq  602e <safe_add_func_uint64_t_u_u>
    994b:	89 c6                	mov    %eax,%esi
    994d:	bf 4b 38 00 00       	mov    $0x384b,%edi
    9952:	e8 67 c4 ff ff       	callq  5dbe <safe_lshift_func_uint16_t_u_s>
    9957:	48 8d 85 70 f4 ff ff 	lea    -0xb90(%rbp),%rax
    995e:	48 83 c0 48          	add    $0x48,%rax
    9962:	48 39 85 88 f2 ff ff 	cmp    %rax,-0xd78(%rbp)
    9969:	0f 95 c0             	setne  %al
    996c:	0f b6 c0             	movzbl %al,%eax
    996f:	be 06 00 00 00       	mov    $0x6,%esi
    9974:	89 c7                	mov    %eax,%edi
    9976:	e8 73 b9 ff ff       	callq  52ee <safe_lshift_func_int8_t_s_u>
    997b:	41 38 c4             	cmp    %al,%r12b
    997e:	74 25                	je     99a5 <func_7+0x2dfc>
    9980:	48 8d 85 40 f3 ff ff 	lea    -0xcc0(%rbp),%rax
    9987:	48 83 c0 04          	add    $0x4,%rax
    998b:	48 89 85 08 f3 ff ff 	mov    %rax,-0xcf8(%rbp)
    9992:	48 8b 05 77 86 01 00 	mov    0x18677(%rip),%rax        # 22010 <g_2098>
    9999:	48 8b 95 08 f3 ff ff 	mov    -0xcf8(%rbp),%rdx
    99a0:	48 89 10             	mov    %rdx,(%rax)
    99a3:	eb 1e                	jmp    99c3 <func_7+0x2e1a>
    99a5:	8b 85 84 f0 ff ff    	mov    -0xf7c(%rbp),%eax
    99ab:	85 c0                	test   %eax,%eax
    99ad:	75 57                	jne    9a06 <func_7+0x2e5d>
    99af:	48 8d 05 ea 7b 01 00 	lea    0x17bea(%rip),%rax        # 215a0 <g_539>
    99b6:	48 8d 15 e3 7b 01 00 	lea    0x17be3(%rip),%rdx        # 215a0 <g_539>
    99bd:	48 8b 00             	mov    (%rax),%rax
    99c0:	48 89 02             	mov    %rax,(%rdx)
    99c3:	c7 85 cc f0 ff ff 0c 	movl   $0xc,-0xf34(%rbp)
    99ca:	00 00 00 
    99cd:	eb 0e                	jmp    99dd <func_7+0x2e34>
    99cf:	80 ad 9b f0 ff ff 01 	subb   $0x1,-0xf65(%rbp)
    99d6:	83 85 cc f0 ff ff 01 	addl   $0x1,-0xf34(%rbp)
    99dd:	83 bd cc f0 ff ff 18 	cmpl   $0x18,-0xf34(%rbp)
    99e4:	74 e9                	je     99cf <func_7+0x2e26>
    99e6:	8b 85 a8 f0 ff ff    	mov    -0xf58(%rbp),%eax
    99ec:	83 e8 01             	sub    $0x1,%eax
    99ef:	89 85 a8 f0 ff ff    	mov    %eax,-0xf58(%rbp)
    99f5:	8b 85 a8 f0 ff ff    	mov    -0xf58(%rbp),%eax
    99fb:	83 f8 f0             	cmp    $0xfffffff0,%eax
    99fe:	0f 8d ad fa ff ff    	jge    94b1 <func_7+0x2908>
    9a04:	eb 01                	jmp    9a07 <func_7+0x2e5e>
    9a06:	90                   	nop
    9a07:	c7 85 d4 f0 ff ff 03 	movl   $0x3,-0xf2c(%rbp)
    9a0e:	00 00 00 
    9a11:	e9 48 01 00 00       	jmpq   9b5e <func_7+0x2fb5>
    9a16:	48 c7 85 10 f3 ff ff 	movq   $0x0,-0xcf0(%rbp)
    9a1d:	00 00 00 00 
    9a21:	c7 85 b0 f0 ff ff ff 	movl   $0xffffffff,-0xf50(%rbp)
    9a28:	ff ff ff 
    9a2b:	48 8d 85 9e f0 ff ff 	lea    -0xf62(%rbp),%rax
    9a32:	48 89 85 18 f3 ff ff 	mov    %rax,-0xce8(%rbp)
    9a39:	8b 85 d4 f0 ff ff    	mov    -0xf2c(%rbp),%eax
    9a3f:	0f b6 d8             	movzbl %al,%ebx
    9a42:	48 c7 85 90 f2 ff ff 	movq   $0x0,-0xd70(%rbp)
    9a49:	00 00 00 00 
    9a4d:	48 8d 05 84 7b 01 00 	lea    0x17b84(%rip),%rax        # 215d8 <g_854>
    9a54:	48 39 85 90 f2 ff ff 	cmp    %rax,-0xd70(%rbp)
    9a5b:	75 0a                	jne    9a67 <func_7+0x2ebe>
    9a5d:	8b 85 84 f0 ff ff    	mov    -0xf7c(%rbp),%eax
    9a63:	85 c0                	test   %eax,%eax
    9a65:	74 07                	je     9a6e <func_7+0x2ec5>
    9a67:	ba 01 00 00 00       	mov    $0x1,%edx
    9a6c:	eb 05                	jmp    9a73 <func_7+0x2eca>
    9a6e:	ba 00 00 00 00       	mov    $0x0,%edx
    9a73:	8b 85 b0 f0 ff ff    	mov    -0xf50(%rbp),%eax
    9a79:	09 d0                	or     %edx,%eax
    9a7b:	89 85 b0 f0 ff ff    	mov    %eax,-0xf50(%rbp)
    9a81:	48 8b 05 98 7e 01 00 	mov    0x17e98(%rip),%rax        # 21920 <g_1387>
    9a88:	c7 00 a7 e8 85 e7    	movl   $0xe785e8a7,(%rax)
    9a8e:	8b 00                	mov    (%rax),%eax
    9a90:	be 00 00 00 00       	mov    $0x0,%esi
    9a95:	89 c7                	mov    %eax,%edi
    9a97:	e8 34 c4 ff ff       	callq  5ed0 <safe_sub_func_uint32_t_u_u>
    9a9c:	8b 95 80 f0 ff ff    	mov    -0xf80(%rbp),%edx
    9aa2:	39 d0                	cmp    %edx,%eax
    9aa4:	0f 93 c0             	setae  %al
    9aa7:	0f b6 c0             	movzbl %al,%eax
    9aaa:	48 8b 95 18 f3 ff ff 	mov    -0xce8(%rbp),%rdx
    9ab1:	66 c7 02 f7 1f       	movw   $0x1ff7,(%rdx)
    9ab6:	89 c6                	mov    %eax,%esi
    9ab8:	bf f7 1f 00 00       	mov    $0x1ff7,%edi
    9abd:	e8 f1 b8 ff ff       	callq  53b3 <safe_add_func_int16_t_s_s>
    9ac2:	48 8b 05 c7 63 01 00 	mov    0x163c7(%rip),%rax        # 1fe90 <g_543+0x10>
    9ac9:	48 83 bd 78 f0 ff ff 	cmpq   $0xfffffffffffffff9,-0xf88(%rbp)
    9ad0:	f9 
    9ad1:	0f 96 c0             	setbe  %al
    9ad4:	0f b6 c0             	movzbl %al,%eax
    9ad7:	48 be d1 d5 7f 22 18 	movabs $0x1e255018227fd5d1,%rsi
    9ade:	50 25 1e 
    9ae1:	48 89 c7             	mov    %rax,%rdi
    9ae4:	e8 bf bd ff ff       	callq  58a8 <safe_sub_func_int64_t_s_s>
    9ae9:	98                   	cwtl   
    9aea:	be 0f 00 00 00       	mov    $0xf,%esi
    9aef:	89 c7                	mov    %eax,%edi
    9af1:	e8 34 ba ff ff       	callq  552a <safe_rshift_func_int16_t_s_s>
    9af6:	0f b6 c0             	movzbl %al,%eax
    9af9:	89 de                	mov    %ebx,%esi
    9afb:	89 c7                	mov    %eax,%edi
    9afd:	e8 91 c0 ff ff       	callq  5b93 <safe_mul_func_uint8_t_u_u>
    9b02:	84 c0                	test   %al,%al
    9b04:	75 0a                	jne    9b10 <func_7+0x2f67>
    9b06:	8b 85 80 f0 ff ff    	mov    -0xf80(%rbp),%eax
    9b0c:	85 c0                	test   %eax,%eax
    9b0e:	74 07                	je     9b17 <func_7+0x2f6e>
    9b10:	b8 01 00 00 00       	mov    $0x1,%eax
    9b15:	eb 05                	jmp    9b1c <func_7+0x2f73>
    9b17:	b8 00 00 00 00       	mov    $0x0,%eax
    9b1c:	0f be d0             	movsbl %al,%edx
    9b1f:	48 8b 85 78 f0 ff ff 	mov    -0xf88(%rbp),%rax
    9b26:	0f be c0             	movsbl %al,%eax
    9b29:	89 d6                	mov    %edx,%esi
    9b2b:	89 c7                	mov    %eax,%edi
    9b2d:	e8 c0 b6 ff ff       	callq  51f2 <safe_sub_func_int8_t_s_s>
    9b32:	48 8b 95 b0 f1 ff ff 	mov    -0xe50(%rbp),%rdx
    9b39:	8b 12                	mov    (%rdx),%edx
    9b3b:	0f be c0             	movsbl %al,%eax
    9b3e:	31 c2                	xor    %eax,%edx
    9b40:	48 8b 85 b0 f1 ff ff 	mov    -0xe50(%rbp),%rax
    9b47:	89 10                	mov    %edx,(%rax)
    9b49:	48 8b 85 a8 fa ff ff 	mov    -0x558(%rbp),%rax
    9b50:	48 89 85 58 f2 ff ff 	mov    %rax,-0xda8(%rbp)
    9b57:	83 ad d4 f0 ff ff 01 	subl   $0x1,-0xf2c(%rbp)
    9b5e:	83 bd d4 f0 ff ff 00 	cmpl   $0x0,-0xf2c(%rbp)
    9b65:	0f 89 ab fe ff ff    	jns    9a16 <func_7+0x2e6d>
    9b6b:	eb 31                	jmp    9b9e <func_7+0x2ff5>
    9b6d:	c7 85 30 f1 ff ff f0 	movl   $0xaf8a8ff0,-0xed0(%rbp)
    9b74:	8f 8a af 
    9b77:	83 ad 30 f1 ff ff 01 	subl   $0x1,-0xed0(%rbp)
    9b7e:	b8 5c e0 ff ff       	mov    $0xffffe05c,%eax
    9b83:	85 c0                	test   %eax,%eax
    9b85:	74 05                	je     9b8c <func_7+0x2fe3>
    9b87:	e9 1f e6 ff ff       	jmpq   81ab <func_7+0x1602>
    9b8c:	48 8b 85 78 f0 ff ff 	mov    -0xf88(%rbp),%rax
    9b93:	89 c2                	mov    %eax,%edx
    9b95:	48 8b 85 a0 f1 ff ff 	mov    -0xe60(%rbp),%rax
    9b9c:	89 10                	mov    %edx,(%rax)
    9b9e:	0f b7 05 53 65 01 00 	movzwl 0x16553(%rip),%eax        # 200f8 <g_1356>
    9ba5:	0f b7 c0             	movzwl %ax,%eax
    9ba8:	be 07 00 00 00       	mov    $0x7,%esi
    9bad:	48 89 c7             	mov    %rax,%rdi
    9bb0:	e8 8c bc ff ff       	callq  5841 <safe_add_func_int64_t_s_s>
    9bb5:	66 89 05 3c 65 01 00 	mov    %ax,0x1653c(%rip)        # 200f8 <g_1356>
    9bbc:	0f b7 05 35 65 01 00 	movzwl 0x16535(%rip),%eax        # 200f8 <g_1356>
    9bc3:	66 83 f8 1d          	cmp    $0x1d,%ax
    9bc7:	0f 87 88 e6 ff ff    	ja     8255 <func_7+0x16ac>
    9bcd:	0f b7 05 0a 66 01 00 	movzwl 0x1660a(%rip),%eax        # 201de <g_1727+0xe>
    9bd4:	0f b6 c0             	movzbl %al,%eax
    9bd7:	be 09 00 00 00       	mov    $0x9,%esi
    9bdc:	89 c7                	mov    %eax,%edi
    9bde:	e8 77 bf ff ff       	callq  5b5a <safe_add_func_uint8_t_u_u>
    9be3:	0f b6 c0             	movzbl %al,%eax
    9be6:	66 89 05 f1 65 01 00 	mov    %ax,0x165f1(%rip)        # 201de <g_1727+0xe>
    9bed:	0f b7 05 ea 65 01 00 	movzwl 0x165ea(%rip),%eax        # 201de <g_1727+0xe>
    9bf4:	66 83 f8 13          	cmp    $0x13,%ax
    9bf8:	0f 8e c2 e5 ff ff    	jle    81c0 <func_7+0x1617>
    9bfe:	48 8b 85 88 f0 ff ff 	mov    -0xf78(%rbp),%rax
    9c05:	48 8b 0d d0 f8 00 00 	mov    0xf8d0(%rip),%rcx        # 194dc <g_2129+0x1c>
    9c0c:	48 8b 1d d1 f8 00 00 	mov    0xf8d1(%rip),%rbx        # 194e4 <g_2129+0x24>
    9c13:	48 89 08             	mov    %rcx,(%rax)
    9c16:	48 89 58 08          	mov    %rbx,0x8(%rax)
    9c1a:	48 8b 15 cb f8 00 00 	mov    0xf8cb(%rip),%rdx        # 194ec <g_2129+0x2c>
    9c21:	48 89 50 10          	mov    %rdx,0x10(%rax)
    9c25:	8b 15 c9 f8 00 00    	mov    0xf8c9(%rip),%edx        # 194f4 <g_2129+0x34>
    9c2b:	89 50 18             	mov    %edx,0x18(%rax)
    9c2e:	48 8b 45 c8          	mov    -0x38(%rbp),%rax
    9c32:	64 48 33 04 25 28 00 	xor    %fs:0x28,%rax
    9c39:	00 00 
    9c3b:	74 05                	je     9c42 <func_7+0x3099>
    9c3d:	e8 2e b4 ff ff       	callq  5070 <__stack_chk_fail@plt>
    9c42:	48 8b 85 88 f0 ff ff 	mov    -0xf78(%rbp),%rax
    9c49:	48 81 c4 78 0f 00 00 	add    $0xf78,%rsp
    9c50:	5b                   	pop    %rbx
    9c51:	41 5c                	pop    %r12
    9c53:	41 5d                	pop    %r13
    9c55:	41 5e                	pop    %r14
    9c57:	41 5f                	pop    %r15
    9c59:	5d                   	pop    %rbp
    9c5a:	c3                   	retq   

0000000000009c5b <func_12>:
    9c5b:	f3 0f 1e fa          	endbr64 
    9c5f:	55                   	push   %rbp
    9c60:	48 89 e5             	mov    %rsp,%rbp
    9c63:	41 55                	push   %r13
    9c65:	41 54                	push   %r12
    9c67:	53                   	push   %rbx
    9c68:	48 81 ec a8 0f 00 00 	sub    $0xfa8,%rsp
    9c6f:	89 f8                	mov    %edi,%eax
    9c71:	89 f2                	mov    %esi,%edx
    9c73:	66 89 85 4c f0 ff ff 	mov    %ax,-0xfb4(%rbp)
    9c7a:	89 d0                	mov    %edx,%eax
    9c7c:	88 85 48 f0 ff ff    	mov    %al,-0xfb8(%rbp)
    9c82:	64 48 8b 04 25 28 00 	mov    %fs:0x28,%rax
    9c89:	00 00 
    9c8b:	48 89 45 d8          	mov    %rax,-0x28(%rbp)
    9c8f:	31 c0                	xor    %eax,%eax
    9c91:	c7 85 88 f0 ff ff 05 	movl   $0x5,-0xf78(%rbp)
    9c98:	00 00 00 
    9c9b:	c7 85 58 f0 ff ff 14 	movl   $0xd2262814,-0xfa8(%rbp)
    9ca2:	28 26 d2 
    9ca5:	48 8d 05 14 58 01 00 	lea    0x15814(%rip),%rax        # 1f4c0 <g_140>
    9cac:	48 89 85 f0 f1 ff ff 	mov    %rax,-0xe10(%rbp)
    9cb3:	48 8d 05 06 58 01 00 	lea    0x15806(%rip),%rax        # 1f4c0 <g_140>
    9cba:	48 89 85 f8 f1 ff ff 	mov    %rax,-0xe08(%rbp)
    9cc1:	48 8d 05 f8 57 01 00 	lea    0x157f8(%rip),%rax        # 1f4c0 <g_140>
    9cc8:	48 89 85 00 f2 ff ff 	mov    %rax,-0xe00(%rbp)
    9ccf:	48 8d 05 ea 57 01 00 	lea    0x157ea(%rip),%rax        # 1f4c0 <g_140>
    9cd6:	48 89 85 08 f2 ff ff 	mov    %rax,-0xdf8(%rbp)
    9cdd:	48 8d 05 dc 57 01 00 	lea    0x157dc(%rip),%rax        # 1f4c0 <g_140>
    9ce4:	48 89 85 10 f2 ff ff 	mov    %rax,-0xdf0(%rbp)
    9ceb:	48 8d 05 30 61 01 00 	lea    0x16130(%rip),%rax        # 1fe22 <g_236+0x82>
    9cf2:	48 89 85 d8 f0 ff ff 	mov    %rax,-0xf28(%rbp)
    9cf9:	c7 85 8c f0 ff ff fc 	movl   $0xfffffffc,-0xf74(%rbp)
    9d00:	ff ff ff 
    9d03:	c7 85 5c f0 ff ff 00 	movl   $0x0,-0xfa4(%rbp)
    9d0a:	00 00 00 
    9d0d:	c7 85 90 f0 ff ff ff 	movl   $0xffffffff,-0xf70(%rbp)
    9d14:	ff ff ff 
    9d17:	c7 85 60 f0 ff ff 00 	movl   $0x0,-0xfa0(%rbp)
    9d1e:	00 00 00 
    9d21:	c7 85 94 f0 ff ff 00 	movl   $0x0,-0xf6c(%rbp)
    9d28:	00 00 00 
    9d2b:	c7 85 98 f0 ff ff d4 	movl   $0xd41820d4,-0xf68(%rbp)
    9d32:	20 18 d4 
    9d35:	c7 85 9c f0 ff ff fa 	movl   $0x56c3eefa,-0xf64(%rbp)
    9d3c:	ee c3 56 
    9d3f:	c7 85 a0 f0 ff ff 06 	movl   $0x6,-0xf60(%rbp)
    9d46:	00 00 00 
    9d49:	c7 85 c0 f1 ff ff 08 	movl   $0x8,-0xe40(%rbp)
    9d50:	00 00 00 
    9d53:	c7 85 c4 f1 ff ff 08 	movl   $0x8,-0xe3c(%rbp)
    9d5a:	00 00 00 
    9d5d:	c7 85 c8 f1 ff ff 08 	movl   $0x8,-0xe38(%rbp)
    9d64:	00 00 00 
    9d67:	c7 85 cc f1 ff ff 08 	movl   $0x8,-0xe34(%rbp)
    9d6e:	00 00 00 
    9d71:	c7 85 d0 f1 ff ff 08 	movl   $0x8,-0xe30(%rbp)
    9d78:	00 00 00 
    9d7b:	c7 85 d4 f1 ff ff 08 	movl   $0x8,-0xe2c(%rbp)
    9d82:	00 00 00 
    9d85:	c7 85 d8 f1 ff ff 08 	movl   $0x8,-0xe28(%rbp)
    9d8c:	00 00 00 
    9d8f:	c7 85 dc f1 ff ff 08 	movl   $0x8,-0xe24(%rbp)
    9d96:	00 00 00 
    9d99:	c7 85 e0 f1 ff ff 08 	movl   $0x8,-0xe20(%rbp)
    9da0:	00 00 00 
    9da3:	48 8d 05 0e 57 01 00 	lea    0x1570e(%rip),%rax        # 1f4b8 <g_107>
    9daa:	48 89 85 e0 f0 ff ff 	mov    %rax,-0xf20(%rbp)
    9db1:	48 8d 85 5c f0 ff ff 	lea    -0xfa4(%rbp),%rax
    9db8:	48 89 85 a0 f4 ff ff 	mov    %rax,-0xb60(%rbp)
    9dbf:	48 8d 85 5c f0 ff ff 	lea    -0xfa4(%rbp),%rax
    9dc6:	48 89 85 a8 f4 ff ff 	mov    %rax,-0xb58(%rbp)
    9dcd:	48 c7 85 b0 f4 ff ff 	movq   $0x0,-0xb50(%rbp)
    9dd4:	00 00 00 00 
    9dd8:	48 c7 85 b8 f4 ff ff 	movq   $0x0,-0xb48(%rbp)
    9ddf:	00 00 00 00 
    9de3:	48 8d 85 5c f0 ff ff 	lea    -0xfa4(%rbp),%rax
    9dea:	48 89 85 c0 f4 ff ff 	mov    %rax,-0xb40(%rbp)
    9df1:	48 8d 05 c0 56 01 00 	lea    0x156c0(%rip),%rax        # 1f4b8 <g_107>
    9df8:	48 89 85 c8 f4 ff ff 	mov    %rax,-0xb38(%rbp)
    9dff:	48 c7 85 d0 f4 ff ff 	movq   $0x0,-0xb30(%rbp)
    9e06:	00 00 00 00 
    9e0a:	48 c7 85 d8 f4 ff ff 	movq   $0x0,-0xb28(%rbp)
    9e11:	00 00 00 00 
    9e15:	48 8d 85 5c f0 ff ff 	lea    -0xfa4(%rbp),%rax
    9e1c:	48 89 85 e0 f4 ff ff 	mov    %rax,-0xb20(%rbp)
    9e23:	48 8d 85 5c f0 ff ff 	lea    -0xfa4(%rbp),%rax
    9e2a:	48 89 85 e8 f4 ff ff 	mov    %rax,-0xb18(%rbp)
    9e31:	48 8d 85 5c f0 ff ff 	lea    -0xfa4(%rbp),%rax
    9e38:	48 89 85 f0 f4 ff ff 	mov    %rax,-0xb10(%rbp)
    9e3f:	48 8d 85 5c f0 ff ff 	lea    -0xfa4(%rbp),%rax
    9e46:	48 89 85 f8 f4 ff ff 	mov    %rax,-0xb08(%rbp)
    9e4d:	48 8d 85 60 f0 ff ff 	lea    -0xfa0(%rbp),%rax
    9e54:	48 89 85 00 f5 ff ff 	mov    %rax,-0xb00(%rbp)
    9e5b:	48 8d 85 5c f0 ff ff 	lea    -0xfa4(%rbp),%rax
    9e62:	48 89 85 08 f5 ff ff 	mov    %rax,-0xaf8(%rbp)
    9e69:	48 8d 05 48 56 01 00 	lea    0x15648(%rip),%rax        # 1f4b8 <g_107>
    9e70:	48 89 85 10 f5 ff ff 	mov    %rax,-0xaf0(%rbp)
    9e77:	48 8d 85 5c f0 ff ff 	lea    -0xfa4(%rbp),%rax
    9e7e:	48 89 85 18 f5 ff ff 	mov    %rax,-0xae8(%rbp)
    9e85:	48 8d 85 5c f0 ff ff 	lea    -0xfa4(%rbp),%rax
    9e8c:	48 89 85 20 f5 ff ff 	mov    %rax,-0xae0(%rbp)
    9e93:	48 c7 85 28 f5 ff ff 	movq   $0x0,-0xad8(%rbp)
    9e9a:	00 00 00 00 
    9e9e:	48 c7 85 30 f5 ff ff 	movq   $0x0,-0xad0(%rbp)
    9ea5:	00 00 00 00 
    9ea9:	48 8d 85 5c f0 ff ff 	lea    -0xfa4(%rbp),%rax
    9eb0:	48 89 85 38 f5 ff ff 	mov    %rax,-0xac8(%rbp)
    9eb7:	48 8d 05 fa 55 01 00 	lea    0x155fa(%rip),%rax        # 1f4b8 <g_107>
    9ebe:	48 89 85 40 f5 ff ff 	mov    %rax,-0xac0(%rbp)
    9ec5:	48 c7 85 48 f5 ff ff 	movq   $0x0,-0xab8(%rbp)
    9ecc:	00 00 00 00 
    9ed0:	48 c7 85 50 f5 ff ff 	movq   $0x0,-0xab0(%rbp)
    9ed7:	00 00 00 00 
    9edb:	48 8d 85 5c f0 ff ff 	lea    -0xfa4(%rbp),%rax
    9ee2:	48 89 85 58 f5 ff ff 	mov    %rax,-0xaa8(%rbp)
    9ee9:	48 8d 85 5c f0 ff ff 	lea    -0xfa4(%rbp),%rax
    9ef0:	48 89 85 60 f5 ff ff 	mov    %rax,-0xaa0(%rbp)
    9ef7:	48 8d 85 5c f0 ff ff 	lea    -0xfa4(%rbp),%rax
    9efe:	48 89 85 68 f5 ff ff 	mov    %rax,-0xa98(%rbp)
    9f05:	48 8d 85 5c f0 ff ff 	lea    -0xfa4(%rbp),%rax
    9f0c:	48 89 85 70 f5 ff ff 	mov    %rax,-0xa90(%rbp)
    9f13:	48 8d 85 60 f0 ff ff 	lea    -0xfa0(%rbp),%rax
    9f1a:	48 89 85 78 f5 ff ff 	mov    %rax,-0xa88(%rbp)
    9f21:	48 8d 85 5c f0 ff ff 	lea    -0xfa4(%rbp),%rax
    9f28:	48 89 85 80 f5 ff ff 	mov    %rax,-0xa80(%rbp)
    9f2f:	48 8d 05 82 55 01 00 	lea    0x15582(%rip),%rax        # 1f4b8 <g_107>
    9f36:	48 89 85 88 f5 ff ff 	mov    %rax,-0xa78(%rbp)
    9f3d:	48 8d 85 5c f0 ff ff 	lea    -0xfa4(%rbp),%rax
    9f44:	48 89 85 90 f5 ff ff 	mov    %rax,-0xa70(%rbp)
    9f4b:	48 8d 85 5c f0 ff ff 	lea    -0xfa4(%rbp),%rax
    9f52:	48 89 85 98 f5 ff ff 	mov    %rax,-0xa68(%rbp)
    9f59:	48 c7 85 a0 f5 ff ff 	movq   $0x0,-0xa60(%rbp)
    9f60:	00 00 00 00 
    9f64:	48 c7 85 a8 f5 ff ff 	movq   $0x0,-0xa58(%rbp)
    9f6b:	00 00 00 00 
    9f6f:	48 8d 85 5c f0 ff ff 	lea    -0xfa4(%rbp),%rax
    9f76:	48 89 85 b0 f5 ff ff 	mov    %rax,-0xa50(%rbp)
    9f7d:	48 8d 05 34 55 01 00 	lea    0x15534(%rip),%rax        # 1f4b8 <g_107>
    9f84:	48 89 85 b8 f5 ff ff 	mov    %rax,-0xa48(%rbp)
    9f8b:	48 c7 85 c0 f5 ff ff 	movq   $0x0,-0xa40(%rbp)
    9f92:	00 00 00 00 
    9f96:	48 c7 85 c8 f5 ff ff 	movq   $0x0,-0xa38(%rbp)
    9f9d:	00 00 00 00 
    9fa1:	48 8d 85 5c f0 ff ff 	lea    -0xfa4(%rbp),%rax
    9fa8:	48 89 85 d0 f5 ff ff 	mov    %rax,-0xa30(%rbp)
    9faf:	48 8d 85 5c f0 ff ff 	lea    -0xfa4(%rbp),%rax
    9fb6:	48 89 85 d8 f5 ff ff 	mov    %rax,-0xa28(%rbp)
    9fbd:	48 8d 85 5c f0 ff ff 	lea    -0xfa4(%rbp),%rax
    9fc4:	48 89 85 e0 f5 ff ff 	mov    %rax,-0xa20(%rbp)
    9fcb:	48 8d 85 5c f0 ff ff 	lea    -0xfa4(%rbp),%rax
    9fd2:	48 89 85 e8 f5 ff ff 	mov    %rax,-0xa18(%rbp)
    9fd9:	48 c7 85 e8 f0 ff ff 	movq   $0xfffffffffffffffe,-0xf18(%rbp)
    9fe0:	fe ff ff ff 
    9fe4:	c7 85 68 f0 ff ff 00 	movl   $0x0,-0xf98(%rbp)
    9feb:	00 00 00 
    9fee:	eb 4f                	jmp    a03f <func_12+0x3e4>
    9ff0:	c7 85 6c f0 ff ff 00 	movl   $0x0,-0xf94(%rbp)
    9ff7:	00 00 00 
    9ffa:	eb 33                	jmp    a02f <func_12+0x3d4>
    9ffc:	8b 85 6c f0 ff ff    	mov    -0xf94(%rbp),%eax
    a002:	48 63 c8             	movslq %eax,%rcx
    a005:	8b 85 68 f0 ff ff    	mov    -0xf98(%rbp),%eax
    a00b:	48 63 d0             	movslq %eax,%rdx
    a00e:	48 89 d0             	mov    %rdx,%rax
    a011:	48 01 c0             	add    %rax,%rax
    a014:	48 01 d0             	add    %rdx,%rax
    a017:	48 01 c0             	add    %rax,%rax
    a01a:	48 01 c8             	add    %rcx,%rax
    a01d:	c7 84 85 50 f2 ff ff 	movl   $0xffffffff,-0xdb0(%rbp,%rax,4)
    a024:	ff ff ff ff 
    a028:	83 85 6c f0 ff ff 01 	addl   $0x1,-0xf94(%rbp)
    a02f:	83 bd 6c f0 ff ff 05 	cmpl   $0x5,-0xf94(%rbp)
    a036:	7e c4                	jle    9ffc <func_12+0x3a1>
    a038:	83 85 68 f0 ff ff 01 	addl   $0x1,-0xf98(%rbp)
    a03f:	83 bd 68 f0 ff ff 02 	cmpl   $0x2,-0xf98(%rbp)
    a046:	7e a8                	jle    9ff0 <func_12+0x395>
    a048:	c7 85 68 f0 ff ff 00 	movl   $0x0,-0xf98(%rbp)
    a04f:	00 00 00 
    a052:	eb 7d                	jmp    a0d1 <func_12+0x476>
    a054:	c7 85 6c f0 ff ff 00 	movl   $0x0,-0xf94(%rbp)
    a05b:	00 00 00 
    a05e:	eb 61                	jmp    a0c1 <func_12+0x466>
    a060:	c7 85 70 f0 ff ff 00 	movl   $0x0,-0xf90(%rbp)
    a067:	00 00 00 
    a06a:	eb 45                	jmp    a0b1 <func_12+0x456>
    a06c:	8b 85 70 f0 ff ff    	mov    -0xf90(%rbp),%eax
    a072:	48 63 f0             	movslq %eax,%rsi
    a075:	8b 85 6c f0 ff ff    	mov    -0xf94(%rbp),%eax
    a07b:	48 63 c8             	movslq %eax,%rcx
    a07e:	8b 85 68 f0 ff ff    	mov    -0xf98(%rbp),%eax
    a084:	48 63 d0             	movslq %eax,%rdx
    a087:	48 89 d0             	mov    %rdx,%rax
    a08a:	48 c1 e0 02          	shl    $0x2,%rax
    a08e:	48 01 d0             	add    %rdx,%rax
    a091:	48 01 c0             	add    %rax,%rax
    a094:	48 8d 5d e0          	lea    -0x20(%rbp),%rbx
    a098:	48 01 d8             	add    %rbx,%rax
    a09b:	48 01 f0             	add    %rsi,%rax
    a09e:	48 01 c8             	add    %rcx,%rax
    a0a1:	48 2d 60 0e 00 00    	sub    $0xe60,%rax
    a0a7:	c6 00 fb             	movb   $0xfb,(%rax)
    a0aa:	83 85 70 f0 ff ff 01 	addl   $0x1,-0xf90(%rbp)
    a0b1:	83 bd 70 f0 ff ff 00 	cmpl   $0x0,-0xf90(%rbp)
    a0b8:	7e b2                	jle    a06c <func_12+0x411>
    a0ba:	83 85 6c f0 ff ff 01 	addl   $0x1,-0xf94(%rbp)
    a0c1:	83 bd 6c f0 ff ff 09 	cmpl   $0x9,-0xf94(%rbp)
    a0c8:	7e 96                	jle    a060 <func_12+0x405>
    a0ca:	83 85 68 f0 ff ff 01 	addl   $0x1,-0xf98(%rbp)
    a0d1:	83 bd 68 f0 ff ff 01 	cmpl   $0x1,-0xf98(%rbp)
    a0d8:	0f 8e 76 ff ff ff    	jle    a054 <func_12+0x3f9>
    a0de:	c7 05 88 5d 01 00 00 	movl   $0x0,0x15d88(%rip)        # 1fe70 <g_481>
    a0e5:	00 00 00 
    a0e8:	e9 ba 19 00 00       	jmpq   baa7 <func_12+0x1e4c>
    a0ed:	c7 85 a4 f0 ff ff b3 	movl   $0x97abb7b3,-0xf5c(%rbp)
    a0f4:	b7 ab 97 
    a0f7:	c7 85 64 f0 ff ff 01 	movl   $0x1,-0xf9c(%rbp)
    a0fe:	00 00 00 
    a101:	c7 85 a8 f0 ff ff a7 	movl   $0x72d9ba7,-0xf58(%rbp)
    a108:	9b 2d 07 
    a10b:	48 c7 85 f0 f0 ff ff 	movq   $0x0,-0xf10(%rbp)
    a112:	00 00 00 00 
    a116:	48 8d 85 f0 f5 ff ff 	lea    -0xa10(%rbp),%rax
    a11d:	48 8d 15 5c fb 00 00 	lea    0xfb5c(%rip),%rdx        # 19c80 <g_2129+0x7c0>
    a124:	b9 3c 00 00 00       	mov    $0x3c,%ecx
    a129:	48 89 c7             	mov    %rax,%rdi
    a12c:	48 89 d6             	mov    %rdx,%rsi
    a12f:	f3 48 a5             	rep movsq %ds:(%rsi),%es:(%rdi)
    a132:	c7 85 ac f0 ff ff f8 	movl   $0xfffffff8,-0xf54(%rbp)
    a139:	ff ff ff 
    a13c:	c7 85 b0 f0 ff ff b4 	movl   $0xf937d9b4,-0xf50(%rbp)
    a143:	d9 37 f9 
    a146:	c7 85 b4 f0 ff ff 39 	movl   $0xc9458939,-0xf4c(%rbp)
    a14d:	89 45 c9 
    a150:	c7 85 b8 f0 ff ff 08 	movl   $0x8,-0xf48(%rbp)
    a157:	00 00 00 
    a15a:	c7 85 bc f0 ff ff 03 	movl   $0x3,-0xf44(%rbp)
    a161:	00 00 00 
    a164:	c7 85 74 f0 ff ff 00 	movl   $0x0,-0xf8c(%rbp)
    a16b:	00 00 00 
    a16e:	eb 1a                	jmp    a18a <func_12+0x52f>
    a170:	8b 85 74 f0 ff ff    	mov    -0xf8c(%rbp),%eax
    a176:	48 98                	cltq   
    a178:	c7 84 85 74 f1 ff ff 	movl   $0xbc7621a6,-0xe8c(%rbp,%rax,4)
    a17f:	a6 21 76 bc 
    a183:	83 85 74 f0 ff ff 01 	addl   $0x1,-0xf8c(%rbp)
    a18a:	83 bd 74 f0 ff ff 02 	cmpl   $0x2,-0xf8c(%rbp)
    a191:	7e dd                	jle    a170 <func_12+0x515>
    a193:	66 c7 05 a0 5c 01 00 	movw   $0x0,0x15ca0(%rip)        # 1fe3c <g_261>
    a19a:	00 00 
    a19c:	e9 32 0b 00 00       	jmpq   acd3 <func_12+0x1078>
    a1a1:	48 c7 85 c8 f0 ff ff 	movq   $0x0,-0xf38(%rbp)
    a1a8:	00 00 00 00 
    a1ac:	c7 85 c0 f0 ff ff 00 	movl   $0x0,-0xf40(%rbp)
    a1b3:	00 00 00 
    a1b6:	48 8d 05 03 53 01 00 	lea    0x15303(%rip),%rax        # 1f4c0 <g_140>
    a1bd:	48 89 85 f8 f0 ff ff 	mov    %rax,-0xf08(%rbp)
    a1c4:	c7 85 20 f2 ff ff 01 	movl   $0x1,-0xde0(%rbp)
    a1cb:	00 00 00 
    a1ce:	c7 85 24 f2 ff ff ff 	movl   $0xffffffff,-0xddc(%rbp)
    a1d5:	ff ff ff 
    a1d8:	c7 85 28 f2 ff ff f5 	movl   $0xa0705df5,-0xdd8(%rbp)
    a1df:	5d 70 a0 
    a1e2:	c7 85 2c f2 ff ff f5 	movl   $0xa0705df5,-0xdd4(%rbp)
    a1e9:	5d 70 a0 
    a1ec:	c7 85 30 f2 ff ff ff 	movl   $0xffffffff,-0xdd0(%rbp)
    a1f3:	ff ff ff 
    a1f6:	c7 85 34 f2 ff ff 01 	movl   $0x1,-0xdcc(%rbp)
    a1fd:	00 00 00 
    a200:	c7 85 38 f2 ff ff ff 	movl   $0xffffffff,-0xdc8(%rbp)
    a207:	ff ff ff 
    a20a:	c7 85 3c f2 ff ff f5 	movl   $0xa0705df5,-0xdc4(%rbp)
    a211:	5d 70 a0 
    a214:	c7 85 40 f2 ff ff f5 	movl   $0xa0705df5,-0xdc0(%rbp)
    a21b:	5d 70 a0 
    a21e:	c7 85 44 f2 ff ff ff 	movl   $0xffffffff,-0xdbc(%rbp)
    a225:	ff ff ff 
    a228:	48 8d 05 65 5b 01 00 	lea    0x15b65(%rip),%rax        # 1fd94 <g_160>
    a22f:	48 89 85 00 f1 ff ff 	mov    %rax,-0xf00(%rbp)
    a236:	48 8d 85 20 f2 ff ff 	lea    -0xde0(%rbp),%rax
    a23d:	48 83 c0 08          	add    $0x8,%rax
    a241:	48 89 85 08 f1 ff ff 	mov    %rax,-0xef8(%rbp)
    a248:	c7 85 c4 f0 ff ff ad 	movl   $0x97c5acad,-0xf3c(%rbp)
    a24f:	ac c5 97 
    a252:	c7 85 78 f0 ff ff 00 	movl   $0x0,-0xf88(%rbp)
    a259:	00 00 00 
    a25c:	eb 1e                	jmp    a27c <func_12+0x621>
    a25e:	8b 85 78 f0 ff ff    	mov    -0xf88(%rbp),%eax
    a264:	48 98                	cltq   
    a266:	48 8d 15 6f 5d 01 00 	lea    0x15d6f(%rip),%rdx        # 1ffdc <g_962>
    a26d:	48 89 94 c5 a0 f2 ff 	mov    %rdx,-0xd60(%rbp,%rax,8)
    a274:	ff 
    a275:	83 85 78 f0 ff ff 01 	addl   $0x1,-0xf88(%rbp)
    a27c:	83 bd 78 f0 ff ff 08 	cmpl   $0x8,-0xf88(%rbp)
    a283:	7e d9                	jle    a25e <func_12+0x603>
    a285:	c7 85 78 f0 ff ff 00 	movl   $0x0,-0xf88(%rbp)
    a28c:	00 00 00 
    a28f:	eb 22                	jmp    a2b3 <func_12+0x658>
    a291:	8b 85 78 f0 ff ff    	mov    -0xf88(%rbp),%eax
    a297:	48 98                	cltq   
    a299:	48 8d 95 a0 f2 ff ff 	lea    -0xd60(%rbp),%rdx
    a2a0:	48 83 c2 08          	add    $0x8,%rdx
    a2a4:	48 89 94 c5 f0 f2 ff 	mov    %rdx,-0xd10(%rbp,%rax,8)
    a2ab:	ff 
    a2ac:	83 85 78 f0 ff ff 01 	addl   $0x1,-0xf88(%rbp)
    a2b3:	83 bd 78 f0 ff ff 08 	cmpl   $0x8,-0xf88(%rbp)
    a2ba:	7e d5                	jle    a291 <func_12+0x636>
    a2bc:	c7 85 78 f0 ff ff 00 	movl   $0x0,-0xf88(%rbp)
    a2c3:	00 00 00 
    a2c6:	eb 6b                	jmp    a333 <func_12+0x6d8>
    a2c8:	c7 85 7c f0 ff ff 00 	movl   $0x0,-0xf84(%rbp)
    a2cf:	00 00 00 
    a2d2:	eb 4f                	jmp    a323 <func_12+0x6c8>
    a2d4:	c7 85 80 f0 ff ff 00 	movl   $0x0,-0xf80(%rbp)
    a2db:	00 00 00 
    a2de:	eb 33                	jmp    a313 <func_12+0x6b8>
    a2e0:	8b 85 80 f0 ff ff    	mov    -0xf80(%rbp),%eax
    a2e6:	48 63 c8             	movslq %eax,%rcx
    a2e9:	8b 85 7c f0 ff ff    	mov    -0xf84(%rbp),%eax
    a2ef:	48 63 d0             	movslq %eax,%rdx
    a2f2:	8b 85 78 f0 ff ff    	mov    -0xf88(%rbp),%eax
    a2f8:	48 98                	cltq   
    a2fa:	48 01 ca             	add    %rcx,%rdx
    a2fd:	48 01 d0             	add    %rdx,%rax
    a300:	48 c7 84 c5 40 f3 ff 	movq   $0x0,-0xcc0(%rbp,%rax,8)
    a307:	ff 00 00 00 00 
    a30c:	83 85 80 f0 ff ff 01 	addl   $0x1,-0xf80(%rbp)
    a313:	83 bd 80 f0 ff ff 00 	cmpl   $0x0,-0xf80(%rbp)
    a31a:	7e c4                	jle    a2e0 <func_12+0x685>
    a31c:	83 85 7c f0 ff ff 01 	addl   $0x1,-0xf84(%rbp)
    a323:	83 bd 7c f0 ff ff 00 	cmpl   $0x0,-0xf84(%rbp)
    a32a:	7e a8                	jle    a2d4 <func_12+0x679>
    a32c:	83 85 78 f0 ff ff 01 	addl   $0x1,-0xf88(%rbp)
    a333:	83 bd 78 f0 ff ff 08 	cmpl   $0x8,-0xf88(%rbp)
    a33a:	7e 8c                	jle    a2c8 <func_12+0x66d>
    a33c:	83 bd a4 f0 ff ff 00 	cmpl   $0x0,-0xf5c(%rbp)
    a343:	0f 85 9d 09 00 00    	jne    ace6 <func_12+0x108b>
    a349:	48 c7 05 14 5b 01 00 	movq   $0x0,0x15b14(%rip)        # 1fe68 <g_471>
    a350:	00 00 00 00 
    a354:	e9 c2 05 00 00       	jmpq   a91b <func_12+0xcc0>
    a359:	48 8d 85 d0 f7 ff ff 	lea    -0x830(%rbp),%rax
    a360:	48 8d 15 f9 fa 00 00 	lea    0xfaf9(%rip),%rdx        # 19e60 <g_2129+0x9a0>
    a367:	b9 28 00 00 00       	mov    $0x28,%ecx
    a36c:	48 89 c7             	mov    %rax,%rdi
    a36f:	48 89 d6             	mov    %rdx,%rsi
    a372:	f3 48 a5             	rep movsq %ds:(%rsi),%es:(%rdi)
    a375:	48 89 f2             	mov    %rsi,%rdx
    a378:	48 89 f8             	mov    %rdi,%rax
    a37b:	8b 0a                	mov    (%rdx),%ecx
    a37d:	89 08                	mov    %ecx,(%rax)
    a37f:	48 8d 40 04          	lea    0x4(%rax),%rax
    a383:	48 8d 52 04          	lea    0x4(%rdx),%rdx
    a387:	48 8d 05 72 75 01 00 	lea    0x17572(%rip),%rax        # 21900 <g_1193>
    a38e:	48 89 85 28 f1 ff ff 	mov    %rax,-0xed8(%rbp)
    a395:	48 c7 85 30 f1 ff ff 	movq   $0x0,-0xed0(%rbp)
    a39c:	00 00 00 00 
    a3a0:	48 c7 85 38 f1 ff ff 	movq   $0x0,-0xec8(%rbp)
    a3a7:	00 00 00 00 
    a3ab:	c7 85 84 f0 ff ff 00 	movl   $0x0,-0xf7c(%rbp)
    a3b2:	00 00 00 
    a3b5:	eb 1e                	jmp    a3d5 <func_12+0x77a>
    a3b7:	8b 85 84 f0 ff ff    	mov    -0xf7c(%rbp),%eax
    a3bd:	48 98                	cltq   
    a3bf:	48 8d 15 f2 50 01 00 	lea    0x150f2(%rip),%rdx        # 1f4b8 <g_107>
    a3c6:	48 89 94 c5 a0 f1 ff 	mov    %rdx,-0xe60(%rbp,%rax,8)
    a3cd:	ff 
    a3ce:	83 85 84 f0 ff ff 01 	addl   $0x1,-0xf7c(%rbp)
    a3d5:	83 bd 84 f0 ff ff 03 	cmpl   $0x3,-0xf7c(%rbp)
    a3dc:	7e d9                	jle    a3b7 <func_12+0x75c>
    a3de:	c7 05 b4 5a 01 00 00 	movl   $0x0,0x15ab4(%rip)        # 1fe9c <g_558>
    a3e5:	00 00 00 
    a3e8:	eb 24                	jmp    a40e <func_12+0x7b3>
    a3ea:	0f bf 95 4c f0 ff ff 	movswl -0xfb4(%rbp),%edx
    a3f1:	8b 85 64 f0 ff ff    	mov    -0xf9c(%rbp),%eax
    a3f7:	09 d0                	or     %edx,%eax
    a3f9:	89 85 64 f0 ff ff    	mov    %eax,-0xf9c(%rbp)
    a3ff:	8b 05 97 5a 01 00    	mov    0x15a97(%rip),%eax        # 1fe9c <g_558>
    a405:	83 c0 01             	add    $0x1,%eax
    a408:	89 05 8e 5a 01 00    	mov    %eax,0x15a8e(%rip)        # 1fe9c <g_558>
    a40e:	8b 05 88 5a 01 00    	mov    0x15a88(%rip),%eax        # 1fe9c <g_558>
    a414:	83 f8 06             	cmp    $0x6,%eax
    a417:	76 d1                	jbe    a3ea <func_12+0x78f>
    a419:	66 c7 05 d6 5c 01 00 	movw   $0x0,0x15cd6(%rip)        # 200f8 <g_1356>
    a420:	00 00 
    a422:	e9 e1 03 00 00       	jmpq   a808 <func_12+0xbad>
    a427:	48 8d 05 ae 5b 01 00 	lea    0x15bae(%rip),%rax        # 1ffdc <g_962>
    a42e:	48 89 85 d0 f0 ff ff 	mov    %rax,-0xf30(%rbp)
    a435:	48 8d 85 d0 f0 ff ff 	lea    -0xf30(%rbp),%rax
    a43c:	48 89 85 90 f3 ff ff 	mov    %rax,-0xc70(%rbp)
    a443:	48 8d 85 d0 f0 ff ff 	lea    -0xf30(%rbp),%rax
    a44a:	48 89 85 98 f3 ff ff 	mov    %rax,-0xc68(%rbp)
    a451:	48 8d 85 d0 f0 ff ff 	lea    -0xf30(%rbp),%rax
    a458:	48 89 85 a0 f3 ff ff 	mov    %rax,-0xc60(%rbp)
    a45f:	48 8d 85 d0 f0 ff ff 	lea    -0xf30(%rbp),%rax
    a466:	48 89 85 a8 f3 ff ff 	mov    %rax,-0xc58(%rbp)
    a46d:	48 8d 85 d0 f0 ff ff 	lea    -0xf30(%rbp),%rax
    a474:	48 89 85 b0 f3 ff ff 	mov    %rax,-0xc50(%rbp)
    a47b:	48 8d 85 d0 f0 ff ff 	lea    -0xf30(%rbp),%rax
    a482:	48 89 85 b8 f3 ff ff 	mov    %rax,-0xc48(%rbp)
    a489:	48 8d 85 d0 f0 ff ff 	lea    -0xf30(%rbp),%rax
    a490:	48 89 85 c0 f3 ff ff 	mov    %rax,-0xc40(%rbp)
    a497:	48 8d 85 d0 f0 ff ff 	lea    -0xf30(%rbp),%rax
    a49e:	48 89 85 c8 f3 ff ff 	mov    %rax,-0xc38(%rbp)
    a4a5:	48 8d 85 d0 f0 ff ff 	lea    -0xf30(%rbp),%rax
    a4ac:	48 89 85 d0 f3 ff ff 	mov    %rax,-0xc30(%rbp)
    a4b3:	48 8d 85 d0 f0 ff ff 	lea    -0xf30(%rbp),%rax
    a4ba:	48 89 85 d8 f3 ff ff 	mov    %rax,-0xc28(%rbp)
    a4c1:	c6 85 48 f0 ff ff 00 	movb   $0x0,-0xfb8(%rbp)
    a4c8:	e9 1d 03 00 00       	jmpq   a7ea <func_12+0xb8f>
    a4cd:	48 8d 05 a8 58 01 00 	lea    0x158a8(%rip),%rax        # 1fd7c <g_155+0x9c>
    a4d4:	48 89 85 40 f1 ff ff 	mov    %rax,-0xec0(%rbp)
    a4db:	48 8d 85 c8 f0 ff ff 	lea    -0xf38(%rbp),%rax
    a4e2:	48 89 85 48 f1 ff ff 	mov    %rax,-0xeb8(%rbp)
    a4e9:	48 8d 05 48 4b 01 00 	lea    0x14b48(%rip),%rax        # 1f038 <g_82>
    a4f0:	48 89 85 50 f1 ff ff 	mov    %rax,-0xeb0(%rbp)
    a4f7:	48 8d 05 c2 4f 01 00 	lea    0x14fc2(%rip),%rax        # 1f4c0 <g_140>
    a4fe:	48 89 85 e0 f3 ff ff 	mov    %rax,-0xc20(%rbp)
    a505:	48 8d 05 b4 4f 01 00 	lea    0x14fb4(%rip),%rax        # 1f4c0 <g_140>
    a50c:	48 89 85 e8 f3 ff ff 	mov    %rax,-0xc18(%rbp)
    a513:	48 8d 05 a6 4f 01 00 	lea    0x14fa6(%rip),%rax        # 1f4c0 <g_140>
    a51a:	48 89 85 f0 f3 ff ff 	mov    %rax,-0xc10(%rbp)
    a521:	48 8d 05 98 4f 01 00 	lea    0x14f98(%rip),%rax        # 1f4c0 <g_140>
    a528:	48 89 85 f8 f3 ff ff 	mov    %rax,-0xc08(%rbp)
    a52f:	48 8d 05 8a 4f 01 00 	lea    0x14f8a(%rip),%rax        # 1f4c0 <g_140>
    a536:	48 89 85 00 f4 ff ff 	mov    %rax,-0xc00(%rbp)
    a53d:	48 8d 05 7c 4f 01 00 	lea    0x14f7c(%rip),%rax        # 1f4c0 <g_140>
    a544:	48 89 85 08 f4 ff ff 	mov    %rax,-0xbf8(%rbp)
    a54b:	48 8d 05 6e 4f 01 00 	lea    0x14f6e(%rip),%rax        # 1f4c0 <g_140>
    a552:	48 89 85 10 f4 ff ff 	mov    %rax,-0xbf0(%rbp)
    a559:	48 8d 05 60 4f 01 00 	lea    0x14f60(%rip),%rax        # 1f4c0 <g_140>
    a560:	48 89 85 18 f4 ff ff 	mov    %rax,-0xbe8(%rbp)
    a567:	48 8d 05 52 4f 01 00 	lea    0x14f52(%rip),%rax        # 1f4c0 <g_140>
    a56e:	48 89 85 20 f4 ff ff 	mov    %rax,-0xbe0(%rbp)
    a575:	48 8d 05 44 4f 01 00 	lea    0x14f44(%rip),%rax        # 1f4c0 <g_140>
    a57c:	48 89 85 28 f4 ff ff 	mov    %rax,-0xbd8(%rbp)
    a583:	48 8d 05 36 4f 01 00 	lea    0x14f36(%rip),%rax        # 1f4c0 <g_140>
    a58a:	48 89 85 30 f4 ff ff 	mov    %rax,-0xbd0(%rbp)
    a591:	48 8d 05 28 4f 01 00 	lea    0x14f28(%rip),%rax        # 1f4c0 <g_140>
    a598:	48 89 85 38 f4 ff ff 	mov    %rax,-0xbc8(%rbp)
    a59f:	48 8d 05 1a 4f 01 00 	lea    0x14f1a(%rip),%rax        # 1f4c0 <g_140>
    a5a6:	48 89 85 40 f4 ff ff 	mov    %rax,-0xbc0(%rbp)
    a5ad:	48 8d 05 0c 4f 01 00 	lea    0x14f0c(%rip),%rax        # 1f4c0 <g_140>
    a5b4:	48 89 85 48 f4 ff ff 	mov    %rax,-0xbb8(%rbp)
    a5bb:	48 8d 05 fe 4e 01 00 	lea    0x14efe(%rip),%rax        # 1f4c0 <g_140>
    a5c2:	48 89 85 50 f4 ff ff 	mov    %rax,-0xbb0(%rbp)
    a5c9:	48 8d 05 f0 4e 01 00 	lea    0x14ef0(%rip),%rax        # 1f4c0 <g_140>
    a5d0:	48 89 85 58 f4 ff ff 	mov    %rax,-0xba8(%rbp)
    a5d7:	48 8d 05 e2 4e 01 00 	lea    0x14ee2(%rip),%rax        # 1f4c0 <g_140>
    a5de:	48 89 85 60 f4 ff ff 	mov    %rax,-0xba0(%rbp)
    a5e5:	48 8d 05 d4 4e 01 00 	lea    0x14ed4(%rip),%rax        # 1f4c0 <g_140>
    a5ec:	48 89 85 68 f4 ff ff 	mov    %rax,-0xb98(%rbp)
    a5f3:	48 8d 05 c6 4e 01 00 	lea    0x14ec6(%rip),%rax        # 1f4c0 <g_140>
    a5fa:	48 89 85 70 f4 ff ff 	mov    %rax,-0xb90(%rbp)
    a601:	48 8d 05 b8 4e 01 00 	lea    0x14eb8(%rip),%rax        # 1f4c0 <g_140>
    a608:	48 89 85 78 f4 ff ff 	mov    %rax,-0xb88(%rbp)
    a60f:	48 8d 05 aa 4e 01 00 	lea    0x14eaa(%rip),%rax        # 1f4c0 <g_140>
    a616:	48 89 85 80 f4 ff ff 	mov    %rax,-0xb80(%rbp)
    a61d:	48 8d 05 9c 4e 01 00 	lea    0x14e9c(%rip),%rax        # 1f4c0 <g_140>
    a624:	48 89 85 88 f4 ff ff 	mov    %rax,-0xb78(%rbp)
    a62b:	48 8d 05 8e 4e 01 00 	lea    0x14e8e(%rip),%rax        # 1f4c0 <g_140>
    a632:	48 89 85 90 f4 ff ff 	mov    %rax,-0xb70(%rbp)
    a639:	48 8d 05 80 4e 01 00 	lea    0x14e80(%rip),%rax        # 1f4c0 <g_140>
    a640:	48 89 85 98 f4 ff ff 	mov    %rax,-0xb68(%rbp)
    a647:	48 8d 85 64 f0 ff ff 	lea    -0xf9c(%rbp),%rax
    a64e:	48 89 85 58 f1 ff ff 	mov    %rax,-0xea8(%rbp)
    a655:	8b 85 78 f8 ff ff    	mov    -0x788(%rbp),%eax
    a65b:	41 89 c5             	mov    %eax,%r13d
    a65e:	0f b7 85 4c f0 ff ff 	movzwl -0xfb4(%rbp),%eax
    a665:	0f be c0             	movsbl %al,%eax
    a668:	be 01 00 00 00       	mov    $0x1,%esi
    a66d:	89 c7                	mov    %eax,%edi
    a66f:	e8 7a ac ff ff       	callq  52ee <safe_lshift_func_int8_t_s_u>
    a674:	8b 85 c0 f0 ff ff    	mov    -0xf40(%rbp),%eax
    a67a:	48 63 d8             	movslq %eax,%rbx
    a67d:	44 8b a5 88 f0 ff ff 	mov    -0xf78(%rbp),%r12d
    a684:	0f b6 85 48 f0 ff ff 	movzbl -0xfb8(%rbp),%eax
    a68b:	89 c6                	mov    %eax,%esi
    a68d:	bf 04 00 00 00       	mov    $0x4,%edi
    a692:	e8 17 b5 ff ff       	callq  5bae <safe_mod_func_uint8_t_u_u>
    a697:	0f b6 c0             	movzbl %al,%eax
    a69a:	48 8b 95 c0 f3 ff ff 	mov    -0xc40(%rbp),%rdx
    a6a1:	48 89 95 00 f3 ff ff 	mov    %rdx,-0xd00(%rbp)
    a6a8:	48 8b b5 00 f3 ff ff 	mov    -0xd00(%rbp),%rsi
    a6af:	48 8b 8d c8 f0 ff ff 	mov    -0xf38(%rbp),%rcx
    a6b6:	48 8b 95 48 f1 ff ff 	mov    -0xeb8(%rbp),%rdx
    a6bd:	48 89 0a             	mov    %rcx,(%rdx)
    a6c0:	48 8b 95 48 f1 ff ff 	mov    -0xeb8(%rbp),%rdx
    a6c7:	48 8b 12             	mov    (%rdx),%rdx
    a6ca:	48 39 d6             	cmp    %rdx,%rsi
    a6cd:	74 07                	je     a6d6 <func_12+0xa7b>
    a6cf:	ba 4d 00 00 00       	mov    $0x4d,%edx
    a6d4:	eb 05                	jmp    a6db <func_12+0xa80>
    a6d6:	ba 4c 00 00 00       	mov    $0x4c,%edx
    a6db:	89 c6                	mov    %eax,%esi
    a6dd:	89 d7                	mov    %edx,%edi
    a6df:	e8 32 ad ff ff       	callq  5416 <safe_mod_func_int16_t_s_s>
    a6e4:	48 0f bf c0          	movswq %ax,%rax
    a6e8:	48 89 c6             	mov    %rax,%rsi
    a6eb:	48 bf 5b cf be 50 cd 	movabs $0xbd0529cd50becf5b,%rdi
    a6f2:	29 05 bd 
    a6f5:	e8 b5 b9 ff ff       	callq  60af <safe_div_func_uint64_t_u_u>
    a6fa:	be 07 00 00 00       	mov    $0x7,%esi
    a6ff:	bf 01 00 00 00       	mov    $0x1,%edi
    a704:	e8 98 ab ff ff       	callq  52a1 <safe_lshift_func_int8_t_s_s>
    a709:	48 0f be c0          	movsbq %al,%rax
    a70d:	48 be f9 1b 1d 64 df 	movabs $0xb9b402df641d1bf9,%rsi
    a714:	02 b4 b9 
    a717:	48 89 c7             	mov    %rax,%rdi
    a71a:	e8 22 b1 ff ff       	callq  5841 <safe_add_func_int64_t_s_s>
    a71f:	98                   	cwtl   
    a720:	44 89 e6             	mov    %r12d,%esi
    a723:	89 c7                	mov    %eax,%edi
    a725:	e8 b7 ad ff ff       	callq  54e1 <safe_lshift_func_int16_t_s_u>
    a72a:	48 0f bf c0          	movswq %ax,%rax
    a72e:	48 89 de             	mov    %rbx,%rsi
    a731:	48 89 c7             	mov    %rax,%rdi
    a734:	e8 6f b1 ff ff       	callq  58a8 <safe_sub_func_int64_t_s_s>
    a739:	89 c2                	mov    %eax,%edx
    a73b:	48 8b 85 50 f1 ff ff 	mov    -0xeb0(%rbp),%rax
    a742:	88 10                	mov    %dl,(%rax)
    a744:	44 89 ee             	mov    %r13d,%esi
    a747:	bf 00 00 00 00       	mov    $0x0,%edi
    a74c:	e8 f7 b6 ff ff       	callq  5e48 <safe_rshift_func_uint16_t_u_s>
    a751:	48 8b 15 68 4d 01 00 	mov    0x14d68(%rip),%rdx        # 1f4c0 <g_140>
    a758:	0f b7 c0             	movzwl %ax,%eax
    a75b:	48 21 d0             	and    %rdx,%rax
    a75e:	48 89 05 5b 4d 01 00 	mov    %rax,0x14d5b(%rip)        # 1f4c0 <g_140>
    a765:	48 8b 05 54 4d 01 00 	mov    0x14d54(%rip),%rax        # 1f4c0 <g_140>
    a76c:	89 85 58 f0 ff ff    	mov    %eax,-0xfa8(%rbp)
    a772:	8b 85 58 f0 ff ff    	mov    -0xfa8(%rbp),%eax
    a778:	48 63 d8             	movslq %eax,%rbx
    a77b:	48 8b 05 ee 6d 01 00 	mov    0x16dee(%rip),%rax        # 21570 <g_260>
    a782:	0f b7 00             	movzwl (%rax),%eax
    a785:	0f b7 d0             	movzwl %ax,%edx
    a788:	48 8b 05 09 72 01 00 	mov    0x17209(%rip),%rax        # 21998 <g_1415>
    a78f:	48 8b 00             	mov    (%rax),%rax
    a792:	0f b7 00             	movzwl (%rax),%eax
    a795:	0f b7 c0             	movzwl %ax,%eax
    a798:	89 d6                	mov    %edx,%esi
    a79a:	89 c7                	mov    %eax,%edi
    a79c:	e8 9c b5 ff ff       	callq  5d3d <safe_mul_func_uint16_t_u_u>
    a7a1:	0f b7 c0             	movzwl %ax,%eax
    a7a4:	48 89 de             	mov    %rbx,%rsi
    a7a7:	48 89 c7             	mov    %rax,%rdi
    a7aa:	e8 7f b8 ff ff       	callq  602e <safe_add_func_uint64_t_u_u>
    a7af:	8b 95 a8 f0 ff ff    	mov    -0xf58(%rbp),%edx
    a7b5:	48 63 d2             	movslq %edx,%rdx
    a7b8:	48 39 d0             	cmp    %rdx,%rax
    a7bb:	0f 95 c0             	setne  %al
    a7be:	0f b6 c0             	movzbl %al,%eax
    a7c1:	48 8b 95 40 f1 ff ff 	mov    -0xec0(%rbp),%rdx
    a7c8:	c6 02 06             	movb   $0x6,(%rdx)
    a7cb:	89 c6                	mov    %eax,%esi
    a7cd:	bf 06 00 00 00       	mov    $0x6,%edi
    a7d2:	e8 a1 b3 ff ff       	callq  5b78 <safe_sub_func_uint8_t_u_u>
    a7d7:	0f b6 d0             	movzbl %al,%edx
    a7da:	48 8b 85 58 f1 ff ff 	mov    -0xea8(%rbp),%rax
    a7e1:	89 10                	mov    %edx,(%rax)
    a7e3:	80 85 48 f0 ff ff 01 	addb   $0x1,-0xfb8(%rbp)
    a7ea:	80 bd 48 f0 ff ff 06 	cmpb   $0x6,-0xfb8(%rbp)
    a7f1:	0f 86 d6 fc ff ff    	jbe    a4cd <func_12+0x872>
    a7f7:	0f b7 05 fa 58 01 00 	movzwl 0x158fa(%rip),%eax        # 200f8 <g_1356>
    a7fe:	83 c0 01             	add    $0x1,%eax
    a801:	66 89 05 f0 58 01 00 	mov    %ax,0x158f0(%rip)        # 200f8 <g_1356>
    a808:	0f b7 05 e9 58 01 00 	movzwl 0x158e9(%rip),%eax        # 200f8 <g_1356>
    a80f:	66 83 f8 06          	cmp    $0x6,%ax
    a813:	0f 86 0e fc ff ff    	jbe    a427 <func_12+0x7cc>
    a819:	8b 85 58 f0 ff ff    	mov    -0xfa8(%rbp),%eax
    a81f:	85 c0                	test   %eax,%eax
    a821:	0f 85 e1 00 00 00    	jne    a908 <func_12+0xcad>
    a827:	be 03 00 00 00       	mov    $0x3,%esi
    a82c:	bf 00 00 00 00       	mov    $0x0,%edi
    a831:	e8 88 b4 ff ff       	callq  5cbe <safe_rshift_func_uint8_t_u_u>
    a836:	0f b6 c0             	movzbl %al,%eax
    a839:	f7 d0                	not    %eax
    a83b:	0f b7 d0             	movzwl %ax,%edx
    a83e:	0f bf 8d 4c f0 ff ff 	movswl -0xfb4(%rbp),%ecx
    a845:	8b 85 64 f0 ff ff    	mov    -0xf9c(%rbp),%eax
    a84b:	39 c1                	cmp    %eax,%ecx
    a84d:	0f 9e c0             	setle  %al
    a850:	0f b6 c0             	movzbl %al,%eax
    a853:	f7 d0                	not    %eax
    a855:	0f b7 c0             	movzwl %ax,%eax
    a858:	89 d6                	mov    %edx,%esi
    a85a:	89 c7                	mov    %eax,%edi
    a85c:	e8 9e b4 ff ff       	callq  5cff <safe_add_func_uint16_t_u_u>
    a861:	80 bd 48 f0 ff ff 00 	cmpb   $0x0,-0xfb8(%rbp)
    a868:	0f 84 8d 00 00 00    	je     a8fb <func_12+0xca0>
    a86e:	0f b6 9d 48 f0 ff ff 	movzbl -0xfb8(%rbp),%ebx
    a875:	0f bf 95 4c f0 ff ff 	movswl -0xfb4(%rbp),%edx
    a87c:	48 8b 85 f8 f1 ff ff 	mov    -0xe08(%rbp),%rax
    a883:	48 39 85 f8 f0 ff ff 	cmp    %rax,-0xf08(%rbp)
    a88a:	0f 94 c0             	sete   %al
    a88d:	0f b6 c0             	movzbl %al,%eax
    a890:	f7 d0                	not    %eax
    a892:	89 c1                	mov    %eax,%ecx
    a894:	8b 85 5c f8 ff ff    	mov    -0x7a4(%rbp),%eax
    a89a:	39 c1                	cmp    %eax,%ecx
    a89c:	0f 93 c0             	setae  %al
    a89f:	0f b6 c0             	movzbl %al,%eax
    a8a2:	09 d0                	or     %edx,%eax
    a8a4:	48 63 d0             	movslq %eax,%rdx
    a8a7:	0f b6 05 21 56 01 00 	movzbl 0x15621(%rip),%eax        # 1fecf <g_736+0xf>
    a8ae:	0f b7 0d 1b 56 01 00 	movzwl 0x1561b(%rip),%ecx        # 1fed0 <g_736+0x10>
    a8b5:	81 e1 ff 07 00 00    	and    $0x7ff,%ecx
    a8bb:	48 c1 e1 08          	shl    $0x8,%rcx
    a8bf:	48 09 c8             	or     %rcx,%rax
    a8c2:	48 c1 e0 2d          	shl    $0x2d,%rax
    a8c6:	48 c1 f8 2d          	sar    $0x2d,%rax
    a8ca:	48 98                	cltq   
    a8cc:	48 89 d6             	mov    %rdx,%rsi
    a8cf:	48 89 c7             	mov    %rax,%rdi
    a8d2:	e8 20 b1 ff ff       	callq  59f7 <safe_div_func_int64_t_s_s>
    a8d7:	0f be c0             	movsbl %al,%eax
    a8da:	89 de                	mov    %ebx,%esi
    a8dc:	89 c7                	mov    %eax,%edi
    a8de:	e8 be a9 ff ff       	callq  52a1 <safe_lshift_func_int8_t_s_s>
    a8e3:	0f be d0             	movsbl %al,%edx
    a8e6:	0f b7 05 f3 7b 01 00 	movzwl 0x17bf3(%rip),%eax        # 224e0 <g_1577>
    a8ed:	0f b7 c0             	movzwl %ax,%eax
    a8f0:	39 c2                	cmp    %eax,%edx
    a8f2:	75 07                	jne    a8fb <func_12+0xca0>
    a8f4:	b8 01 00 00 00       	mov    $0x1,%eax
    a8f9:	eb 05                	jmp    a900 <func_12+0xca5>
    a8fb:	b8 00 00 00 00       	mov    $0x0,%eax
    a900:	89 85 64 f0 ff ff    	mov    %eax,-0xf9c(%rbp)
    a906:	eb 01                	jmp    a909 <func_12+0xcae>
    a908:	90                   	nop
    a909:	48 8b 05 58 55 01 00 	mov    0x15558(%rip),%rax        # 1fe68 <g_471>
    a910:	48 83 c0 01          	add    $0x1,%rax
    a914:	48 89 05 4d 55 01 00 	mov    %rax,0x1554d(%rip)        # 1fe68 <g_471>
    a91b:	48 8b 05 46 55 01 00 	mov    0x15546(%rip),%rax        # 1fe68 <g_471>
    a922:	48 83 f8 06          	cmp    $0x6,%rax
    a926:	0f 86 2d fa ff ff    	jbe    a359 <func_12+0x6fe>
    a92c:	66 c7 85 4c f0 ff ff 	movw   $0x6,-0xfb4(%rbp)
    a933:	06 00 
    a935:	e9 23 02 00 00       	jmpq   ab5d <func_12+0xf02>
    a93a:	48 8d 05 47 6b 01 00 	lea    0x16b47(%rip),%rax        # 21488 <g_108+0x68>
    a941:	48 89 85 10 f1 ff ff 	mov    %rax,-0xef0(%rbp)
    a948:	48 8d 05 59 6c 01 00 	lea    0x16c59(%rip),%rax        # 215a8 <g_554>
    a94f:	48 89 85 18 f1 ff ff 	mov    %rax,-0xee8(%rbp)
    a956:	48 8b 85 10 f1 ff ff 	mov    -0xef0(%rbp),%rax
    a95d:	48 8d 95 58 f0 ff ff 	lea    -0xfa8(%rbp),%rdx
    a964:	48 89 10             	mov    %rdx,(%rax)
    a967:	48 8b 85 10 f1 ff ff 	mov    -0xef0(%rbp),%rax
    a96e:	48 8b 10             	mov    (%rax),%rdx
    a971:	48 8b 85 18 f1 ff ff 	mov    -0xee8(%rbp),%rax
    a978:	48 89 10             	mov    %rdx,(%rax)
    a97b:	c7 05 33 4b 01 00 06 	movl   $0x6,0x14b33(%rip)        # 1f4b8 <g_107>
    a982:	00 00 00 
    a985:	e9 b3 01 00 00       	jmpq   ab3d <func_12+0xee2>
    a98a:	c6 85 56 f0 ff ff c8 	movb   $0xc8,-0xfaa(%rbp)
    a991:	c6 85 57 f0 ff ff f9 	movb   $0xf9,-0xfa9(%rbp)
    a998:	48 8d 05 19 4b 01 00 	lea    0x14b19(%rip),%rax        # 1f4b8 <g_107>
    a99f:	48 89 85 20 f1 ff ff 	mov    %rax,-0xee0(%rbp)
    a9a6:	8b 85 64 f0 ff ff    	mov    -0xf9c(%rbp),%eax
    a9ac:	89 85 64 f0 ff ff    	mov    %eax,-0xf9c(%rbp)
    a9b2:	0f bf 9d 4c f0 ff ff 	movswl -0xfb4(%rbp),%ebx
    a9b9:	44 0f b6 a5 56 f0 ff 	movzbl -0xfaa(%rbp),%r12d
    a9c0:	ff 
    a9c1:	44 0f b6 ad 56 f0 ff 	movzbl -0xfaa(%rbp),%r13d
    a9c8:	ff 
    a9c9:	0f bf 85 4c f0 ff ff 	movswl -0xfb4(%rbp),%eax
    a9d0:	8b 95 a8 f0 ff ff    	mov    -0xf58(%rbp),%edx
    a9d6:	89 d6                	mov    %edx,%esi
    a9d8:	89 c7                	mov    %eax,%edi
    a9da:	e8 d7 ab ff ff       	callq  55b6 <safe_add_func_int32_t_s_s>
    a9df:	98                   	cwtl   
    a9e0:	44 89 ee             	mov    %r13d,%esi
    a9e3:	89 c7                	mov    %eax,%edi
    a9e5:	e8 c9 a9 ff ff       	callq  53b3 <safe_add_func_int16_t_s_s>
    a9ea:	be 01 00 00 00       	mov    $0x1,%esi
    a9ef:	bf 00 00 00 00       	mov    $0x0,%edi
    a9f4:	e8 b6 b6 ff ff       	callq  60af <safe_div_func_uint64_t_u_u>
    a9f9:	0f be c0             	movsbl %al,%eax
    a9fc:	44 89 e6             	mov    %r12d,%esi
    a9ff:	89 c7                	mov    %eax,%edi
    aa01:	e8 2f a9 ff ff       	callq  5335 <safe_rshift_func_int8_t_s_s>
    aa06:	66 98                	cbtw   
    aa08:	0f b7 c0             	movzwl %ax,%eax
    aa0b:	89 c6                	mov    %eax,%esi
    aa0d:	bf f9 ff 00 00       	mov    $0xfff9,%edi
    aa12:	e8 26 b3 ff ff       	callq  5d3d <safe_mul_func_uint16_t_u_u>
    aa17:	0f b7 d0             	movzwl %ax,%edx
    aa1a:	48 8b 85 f8 f0 ff ff 	mov    -0xf08(%rbp),%rax
    aa21:	48 89 10             	mov    %rdx,(%rax)
    aa24:	8b 05 62 56 01 00    	mov    0x15662(%rip),%eax        # 2008c <g_1075+0xc>
    aa2a:	c1 e0 08             	shl    $0x8,%eax
    aa2d:	89 c2                	mov    %eax,%edx
    aa2f:	c1 fa 08             	sar    $0x8,%edx
    aa32:	8b 05 94 54 01 00    	mov    0x15494(%rip),%eax        # 1fecc <g_736+0xc>
    aa38:	c1 e0 08             	shl    $0x8,%eax
    aa3b:	c1 f8 08             	sar    $0x8,%eax
    aa3e:	39 c2                	cmp    %eax,%edx
    aa40:	0f 94 c0             	sete   %al
    aa43:	0f b6 c0             	movzbl %al,%eax
    aa46:	89 de                	mov    %ebx,%esi
    aa48:	89 c7                	mov    %eax,%edi
    aa4a:	e8 6f b2 ff ff       	callq  5cbe <safe_rshift_func_uint8_t_u_u>
    aa4f:	48 8b 05 ea 4d 01 00 	mov    0x14dea(%rip),%rax        # 1f840 <g_142+0x360>
    aa56:	c1 e0 07             	shl    $0x7,%eax
    aa59:	c1 f8 14             	sar    $0x14,%eax
    aa5c:	0f b6 c0             	movzbl %al,%eax
    aa5f:	be 8c 00 00 00       	mov    $0x8c,%esi
    aa64:	89 c7                	mov    %eax,%edi
    aa66:	e8 9a b1 ff ff       	callq  5c05 <safe_lshift_func_uint8_t_u_s>
    aa6b:	89 c2                	mov    %eax,%edx
    aa6d:	48 8b 05 24 6f 01 00 	mov    0x16f24(%rip),%rax        # 21998 <g_1415>
    aa74:	48 8b 00             	mov    (%rax),%rax
    aa77:	0f b6 d2             	movzbl %dl,%edx
    aa7a:	66 89 10             	mov    %dx,(%rax)
    aa7d:	0f b7 00             	movzwl (%rax),%eax
    aa80:	98                   	cwtl   
    aa81:	89 c6                	mov    %eax,%esi
    aa83:	bf 3c 03 00 00       	mov    $0x33c,%edi
    aa88:	e8 c8 a9 ff ff       	callq  5455 <safe_div_func_int16_t_s_s>
    aa8d:	98                   	cwtl   
    aa8e:	be 55 30 00 00       	mov    $0x3055,%esi
    aa93:	89 c7                	mov    %eax,%edi
    aa95:	e8 bb a9 ff ff       	callq  5455 <safe_div_func_int16_t_s_s>
    aa9a:	0f bf d0             	movswl %ax,%edx
    aa9d:	8b 05 89 45 01 00    	mov    0x14589(%rip),%eax        # 1f02c <g_4>
    aaa3:	39 c2                	cmp    %eax,%edx
    aaa5:	0f 9f c0             	setg   %al
    aaa8:	0f b6 c0             	movzbl %al,%eax
    aaab:	be 06 00 00 00       	mov    $0x6,%esi
    aab0:	89 c7                	mov    %eax,%edi
    aab2:	e8 b5 a8 ff ff       	callq  536c <safe_rshift_func_int8_t_s_u>
    aab7:	0f be d0             	movsbl %al,%edx
    aaba:	0f b6 85 48 f0 ff ff 	movzbl -0xfb8(%rbp),%eax
    aac1:	39 c2                	cmp    %eax,%edx
    aac3:	75 07                	jne    aacc <func_12+0xe71>
    aac5:	80 bd 48 f0 ff ff 00 	cmpb   $0x0,-0xfb8(%rbp)
    aacc:	48 8b 05 55 6e 01 00 	mov    0x16e55(%rip),%rax        # 21928 <g_1386>
    aad3:	48 8b 00             	mov    (%rax),%rax
    aad6:	8b 10                	mov    (%rax),%edx
    aad8:	0f be 85 57 f0 ff ff 	movsbl -0xfa9(%rbp),%eax
    aadf:	39 c2                	cmp    %eax,%edx
    aae1:	0f 92 c0             	setb   %al
    aae4:	0f b6 d0             	movzbl %al,%edx
    aae7:	8b 85 28 f2 ff ff    	mov    -0xdd8(%rbp),%eax
    aaed:	31 d0                	xor    %edx,%eax
    aaef:	89 85 28 f2 ff ff    	mov    %eax,-0xdd8(%rbp)
    aaf5:	48 8b 85 10 f1 ff ff 	mov    -0xef0(%rbp),%rax
    aafc:	48 8b 95 20 f1 ff ff 	mov    -0xee0(%rbp),%rdx
    ab03:	48 89 10             	mov    %rdx,(%rax)
    ab06:	48 8b 85 10 f1 ff ff 	mov    -0xef0(%rbp),%rax
    ab0d:	48 8b 10             	mov    (%rax),%rdx
    ab10:	48 8b 85 18 f1 ff ff 	mov    -0xee8(%rbp),%rax
    ab17:	48 89 10             	mov    %rdx,(%rax)
    ab1a:	48 8b 85 18 f1 ff ff 	mov    -0xee8(%rbp),%rax
    ab21:	48 8b 10             	mov    (%rax),%rdx
    ab24:	48 8b 85 10 f1 ff ff 	mov    -0xef0(%rbp),%rax
    ab2b:	48 89 10             	mov    %rdx,(%rax)
    ab2e:	8b 05 84 49 01 00    	mov    0x14984(%rip),%eax        # 1f4b8 <g_107>
    ab34:	83 e8 01             	sub    $0x1,%eax
    ab37:	89 05 7b 49 01 00    	mov    %eax,0x1497b(%rip)        # 1f4b8 <g_107>
    ab3d:	8b 05 75 49 01 00    	mov    0x14975(%rip),%eax        # 1f4b8 <g_107>
    ab43:	83 f8 01             	cmp    $0x1,%eax
    ab46:	0f 8f 3e fe ff ff    	jg     a98a <func_12+0xd2f>
    ab4c:	0f b7 85 4c f0 ff ff 	movzwl -0xfb4(%rbp),%eax
    ab53:	83 e8 01             	sub    $0x1,%eax
    ab56:	66 89 85 4c f0 ff ff 	mov    %ax,-0xfb4(%rbp)
    ab5d:	66 83 bd 4c f0 ff ff 	cmpw   $0x0,-0xfb4(%rbp)
    ab64:	00 
    ab65:	0f 8f cf fd ff ff    	jg     a93a <func_12+0xcdf>
    ab6b:	66 c7 85 4c f0 ff ff 	movw   $0x3,-0xfb4(%rbp)
    ab72:	03 00 
    ab74:	be 0f 00 00 00       	mov    $0xf,%esi
    ab79:	bf 03 00 00 00       	mov    $0x3,%edi
    ab7e:	e8 5e a9 ff ff       	callq  54e1 <safe_lshift_func_int16_t_s_u>
    ab83:	48 8b 05 f6 54 01 00 	mov    0x154f6(%rip),%rax        # 20080 <g_1075>
    ab8a:	25 ff ff 07 00       	and    $0x7ffff,%eax
    ab8f:	41 89 c5             	mov    %eax,%r13d
    ab92:	8b 85 8c f0 ff ff    	mov    -0xf74(%rbp),%eax
    ab98:	48 63 d8             	movslq %eax,%rbx
    ab9b:	48 8b 05 de 69 01 00 	mov    0x169de(%rip),%rax        # 21580 <g_376>
    aba2:	48 8b 00             	mov    (%rax),%rax
    aba5:	48 8b 95 d8 f0 ff ff 	mov    -0xf28(%rbp),%rdx
    abac:	48 89 95 f0 f0 ff ff 	mov    %rdx,-0xf10(%rbp)
    abb3:	48 39 85 f0 f0 ff ff 	cmp    %rax,-0xf10(%rbp)
    abba:	0f 84 a6 00 00 00    	je     ac66 <func_12+0x100b>
    abc0:	8b 85 64 f0 ff ff    	mov    -0xf9c(%rbp),%eax
    abc6:	44 0f b7 e0          	movzwl %ax,%r12d
    abca:	83 bd a4 f0 ff ff 00 	cmpl   $0x0,-0xf5c(%rbp)
    abd1:	0f 94 c0             	sete   %al
    abd4:	0f b6 c0             	movzbl %al,%eax
    abd7:	48 be 09 18 49 38 a2 	movabs $0xf5acfea238491809,%rsi
    abde:	fe ac f5 
    abe1:	48 89 c7             	mov    %rax,%rdi
    abe4:	e8 0e ae ff ff       	callq  59f7 <safe_div_func_int64_t_s_s>
    abe9:	89 c2                	mov    %eax,%edx
    abeb:	48 8b 85 00 f1 ff ff 	mov    -0xf00(%rbp),%rax
    abf2:	66 89 10             	mov    %dx,(%rax)
    abf5:	48 8b 85 00 f1 ff ff 	mov    -0xf00(%rbp),%rax
    abfc:	0f b7 00             	movzwl (%rax),%eax
    abff:	83 f0 fe             	xor    $0xfffffffe,%eax
    ac02:	0f b6 c0             	movzbl %al,%eax
    ac05:	be 01 00 00 00       	mov    $0x1,%esi
    ac0a:	89 c7                	mov    %eax,%edi
    ac0c:	e8 82 af ff ff       	callq  5b93 <safe_mul_func_uint8_t_u_u>
    ac11:	48 8b 95 08 f1 ff ff 	mov    -0xef8(%rbp),%rdx
    ac18:	8b 12                	mov    (%rdx),%edx
    ac1a:	0f b6 c0             	movzbl %al,%eax
    ac1d:	31 c2                	xor    %eax,%edx
    ac1f:	48 8b 85 08 f1 ff ff 	mov    -0xef8(%rbp),%rax
    ac26:	89 10                	mov    %edx,(%rax)
    ac28:	48 8b 85 08 f1 ff ff 	mov    -0xef8(%rbp),%rax
    ac2f:	8b 00                	mov    (%rax),%eax
    ac31:	89 c2                	mov    %eax,%edx
    ac33:	0f b6 85 48 f0 ff ff 	movzbl -0xfb8(%rbp),%eax
    ac3a:	89 d6                	mov    %edx,%esi
    ac3c:	89 c7                	mov    %eax,%edi
    ac3e:	e8 8d b2 ff ff       	callq  5ed0 <safe_sub_func_uint32_t_u_u>
    ac43:	44 89 e6             	mov    %r12d,%esi
    ac46:	bf 93 3e 00 00       	mov    $0x3e93,%edi
    ac4b:	e8 0c b1 ff ff       	callq  5d5c <safe_mod_func_uint16_t_u_u>
    ac50:	0f b7 d0             	movzwl %ax,%edx
    ac53:	0f b6 05 5c 54 01 00 	movzbl 0x1545c(%rip),%eax        # 200b6 <g_1129+0x16>
    ac5a:	01 c0                	add    %eax,%eax
    ac5c:	c0 f8 06             	sar    $0x6,%al
    ac5f:	0f be c0             	movsbl %al,%eax
    ac62:	39 c2                	cmp    %eax,%edx
    ac64:	74 07                	je     ac6d <func_12+0x1012>
    ac66:	b8 01 00 00 00       	mov    $0x1,%eax
    ac6b:	eb 05                	jmp    ac72 <func_12+0x1017>
    ac6d:	b8 00 00 00 00       	mov    $0x0,%eax
    ac72:	83 c8 02             	or     $0x2,%eax
    ac75:	48 98                	cltq   
    ac77:	48 89 de             	mov    %rbx,%rsi
    ac7a:	48 89 c7             	mov    %rax,%rdi
    ac7d:	e8 26 ac ff ff       	callq  58a8 <safe_sub_func_int64_t_s_s>
    ac82:	49 39 c5             	cmp    %rax,%r13
    ac85:	0f 9c c2             	setl   %dl
    ac88:	48 8b 05 09 6d 01 00 	mov    0x16d09(%rip),%rax        # 21998 <g_1415>
    ac8f:	48 8b 00             	mov    (%rax),%rax
    ac92:	0f b6 d2             	movzbl %dl,%edx
    ac95:	66 89 10             	mov    %dx,(%rax)
    ac98:	0f b7 00             	movzwl (%rax),%eax
    ac9b:	0f b7 c0             	movzwl %ax,%eax
    ac9e:	be 08 00 00 00       	mov    $0x8,%esi
    aca3:	89 c7                	mov    %eax,%edi
    aca5:	e8 9e b1 ff ff       	callq  5e48 <safe_rshift_func_uint16_t_u_s>
    acaa:	be f7 00 00 00       	mov    $0xf7,%esi
    acaf:	bf 01 00 00 00       	mov    $0x1,%edi
    acb4:	e8 a1 ae ff ff       	callq  5b5a <safe_add_func_uint8_t_u_u>
    acb9:	0f b6 c0             	movzbl %al,%eax
    acbc:	21 85 c4 f0 ff ff    	and    %eax,-0xf3c(%rbp)
    acc2:	0f b7 05 73 51 01 00 	movzwl 0x15173(%rip),%eax        # 1fe3c <g_261>
    acc9:	83 c0 01             	add    $0x1,%eax
    accc:	66 89 05 69 51 01 00 	mov    %ax,0x15169(%rip)        # 1fe3c <g_261>
    acd3:	0f b7 05 62 51 01 00 	movzwl 0x15162(%rip),%eax        # 1fe3c <g_261>
    acda:	66 83 f8 06          	cmp    $0x6,%ax
    acde:	0f 86 bd f4 ff ff    	jbe    a1a1 <func_12+0x546>
    ace4:	eb 01                	jmp    ace7 <func_12+0x108c>
    ace6:	90                   	nop
    ace7:	80 bd 48 f0 ff ff 00 	cmpb   $0x0,-0xfb8(%rbp)
    acee:	0f 85 c4 0d 00 00    	jne    bab8 <func_12+0x1e5d>
    acf4:	66 c7 05 fb 53 01 00 	movw   $0xf,0x153fb(%rip)        # 200f8 <g_1356>
    acfb:	0f 00 
    acfd:	90                   	nop
    acfe:	0f b7 05 f3 53 01 00 	movzwl 0x153f3(%rip),%eax        # 200f8 <g_1356>
    ad05:	66 83 f8 2a          	cmp    $0x2a,%ax
    ad09:	0f 86 89 0d 00 00    	jbe    ba98 <func_12+0x1e3d>
    ad0f:	48 c7 85 60 f1 ff ff 	movq   $0x0,-0xea0(%rbp)
    ad16:	00 00 00 00 
    ad1a:	48 8d 05 97 47 01 00 	lea    0x14797(%rip),%rax        # 1f4b8 <g_107>
    ad21:	48 89 85 68 f1 ff ff 	mov    %rax,-0xe98(%rbp)
    ad28:	48 8d 05 fd 42 01 00 	lea    0x142fd(%rip),%rax        # 1f02c <g_4>
    ad2f:	48 89 85 d0 f7 ff ff 	mov    %rax,-0x830(%rbp)
    ad36:	48 c7 85 d8 f7 ff ff 	movq   $0x0,-0x828(%rbp)
    ad3d:	00 00 00 00 
    ad41:	48 8d 05 e4 42 01 00 	lea    0x142e4(%rip),%rax        # 1f02c <g_4>
    ad48:	48 89 85 e0 f7 ff ff 	mov    %rax,-0x820(%rbp)
    ad4f:	48 8d 85 64 f0 ff ff 	lea    -0xf9c(%rbp),%rax
    ad56:	48 89 85 e8 f7 ff ff 	mov    %rax,-0x818(%rbp)
    ad5d:	48 8d 05 54 47 01 00 	lea    0x14754(%rip),%rax        # 1f4b8 <g_107>
    ad64:	48 89 85 f0 f7 ff ff 	mov    %rax,-0x810(%rbp)
    ad6b:	48 8d 05 ba 42 01 00 	lea    0x142ba(%rip),%rax        # 1f02c <g_4>
    ad72:	48 89 85 f8 f7 ff ff 	mov    %rax,-0x808(%rbp)
    ad79:	48 8d 85 58 f0 ff ff 	lea    -0xfa8(%rbp),%rax
    ad80:	48 89 85 00 f8 ff ff 	mov    %rax,-0x800(%rbp)
    ad87:	48 8d 05 2a 47 01 00 	lea    0x1472a(%rip),%rax        # 1f4b8 <g_107>
    ad8e:	48 89 85 08 f8 ff ff 	mov    %rax,-0x7f8(%rbp)
    ad95:	48 c7 85 10 f8 ff ff 	movq   $0x0,-0x7f0(%rbp)
    ad9c:	00 00 00 00 
    ada0:	48 8d 05 11 47 01 00 	lea    0x14711(%rip),%rax        # 1f4b8 <g_107>
    ada7:	48 89 85 18 f8 ff ff 	mov    %rax,-0x7e8(%rbp)
    adae:	48 8d 85 64 f0 ff ff 	lea    -0xf9c(%rbp),%rax
    adb5:	48 89 85 20 f8 ff ff 	mov    %rax,-0x7e0(%rbp)
    adbc:	48 8d 85 58 f0 ff ff 	lea    -0xfa8(%rbp),%rax
    adc3:	48 89 85 28 f8 ff ff 	mov    %rax,-0x7d8(%rbp)
    adca:	48 8d 85 58 f0 ff ff 	lea    -0xfa8(%rbp),%rax
    add1:	48 89 85 30 f8 ff ff 	mov    %rax,-0x7d0(%rbp)
    add8:	48 8d 85 64 f0 ff ff 	lea    -0xf9c(%rbp),%rax
    addf:	48 89 85 38 f8 ff ff 	mov    %rax,-0x7c8(%rbp)
    ade6:	48 8d 05 cb 46 01 00 	lea    0x146cb(%rip),%rax        # 1f4b8 <g_107>
    aded:	48 89 85 40 f8 ff ff 	mov    %rax,-0x7c0(%rbp)
    adf4:	48 8d 85 58 f0 ff ff 	lea    -0xfa8(%rbp),%rax
    adfb:	48 89 85 48 f8 ff ff 	mov    %rax,-0x7b8(%rbp)
    ae02:	48 8d 05 23 42 01 00 	lea    0x14223(%rip),%rax        # 1f02c <g_4>
    ae09:	48 89 85 50 f8 ff ff 	mov    %rax,-0x7b0(%rbp)
    ae10:	48 8d 85 58 f0 ff ff 	lea    -0xfa8(%rbp),%rax
    ae17:	48 89 85 58 f8 ff ff 	mov    %rax,-0x7a8(%rbp)
    ae1e:	48 8d 85 58 f0 ff ff 	lea    -0xfa8(%rbp),%rax
    ae25:	48 89 85 60 f8 ff ff 	mov    %rax,-0x7a0(%rbp)
    ae2c:	48 c7 85 68 f8 ff ff 	movq   $0x0,-0x798(%rbp)
    ae33:	00 00 00 00 
    ae37:	48 8d 05 ee 41 01 00 	lea    0x141ee(%rip),%rax        # 1f02c <g_4>
    ae3e:	48 89 85 70 f8 ff ff 	mov    %rax,-0x790(%rbp)
    ae45:	48 8d 05 6c 46 01 00 	lea    0x1466c(%rip),%rax        # 1f4b8 <g_107>
    ae4c:	48 89 85 78 f8 ff ff 	mov    %rax,-0x788(%rbp)
    ae53:	48 c7 85 80 f8 ff ff 	movq   $0x0,-0x780(%rbp)
    ae5a:	00 00 00 00 
    ae5e:	48 8d 05 c7 41 01 00 	lea    0x141c7(%rip),%rax        # 1f02c <g_4>
    ae65:	48 89 85 88 f8 ff ff 	mov    %rax,-0x778(%rbp)
    ae6c:	48 8d 05 45 46 01 00 	lea    0x14645(%rip),%rax        # 1f4b8 <g_107>
    ae73:	48 89 85 90 f8 ff ff 	mov    %rax,-0x770(%rbp)
    ae7a:	48 8d 85 64 f0 ff ff 	lea    -0xf9c(%rbp),%rax
    ae81:	48 89 85 98 f8 ff ff 	mov    %rax,-0x768(%rbp)
    ae88:	48 8d 05 29 46 01 00 	lea    0x14629(%rip),%rax        # 1f4b8 <g_107>
    ae8f:	48 89 85 a0 f8 ff ff 	mov    %rax,-0x760(%rbp)
    ae96:	48 c7 85 a8 f8 ff ff 	movq   $0x0,-0x758(%rbp)
    ae9d:	00 00 00 00 
    aea1:	48 c7 85 b0 f8 ff ff 	movq   $0x0,-0x750(%rbp)
    aea8:	00 00 00 00 
    aeac:	48 8d 85 58 f0 ff ff 	lea    -0xfa8(%rbp),%rax
    aeb3:	48 89 85 b8 f8 ff ff 	mov    %rax,-0x748(%rbp)
    aeba:	48 c7 85 c0 f8 ff ff 	movq   $0x0,-0x740(%rbp)
    aec1:	00 00 00 00 
    aec5:	48 8d 85 58 f0 ff ff 	lea    -0xfa8(%rbp),%rax
    aecc:	48 89 85 c8 f8 ff ff 	mov    %rax,-0x738(%rbp)
    aed3:	48 8d 05 52 41 01 00 	lea    0x14152(%rip),%rax        # 1f02c <g_4>
    aeda:	48 89 85 d0 f8 ff ff 	mov    %rax,-0x730(%rbp)
    aee1:	48 c7 85 d8 f8 ff ff 	movq   $0x0,-0x728(%rbp)
    aee8:	00 00 00 00 
    aeec:	48 8d 05 c5 45 01 00 	lea    0x145c5(%rip),%rax        # 1f4b8 <g_107>
    aef3:	48 89 85 e0 f8 ff ff 	mov    %rax,-0x720(%rbp)
    aefa:	48 8d 85 64 f0 ff ff 	lea    -0xf9c(%rbp),%rax
    af01:	48 89 85 e8 f8 ff ff 	mov    %rax,-0x718(%rbp)
    af08:	48 c7 85 f0 f8 ff ff 	movq   $0x0,-0x710(%rbp)
    af0f:	00 00 00 00 
    af13:	48 8d 85 58 f0 ff ff 	lea    -0xfa8(%rbp),%rax
    af1a:	48 89 85 f8 f8 ff ff 	mov    %rax,-0x708(%rbp)
    af21:	48 8d 05 90 45 01 00 	lea    0x14590(%rip),%rax        # 1f4b8 <g_107>
    af28:	48 89 85 00 f9 ff ff 	mov    %rax,-0x700(%rbp)
    af2f:	48 8d 05 82 45 01 00 	lea    0x14582(%rip),%rax        # 1f4b8 <g_107>
    af36:	48 89 85 08 f9 ff ff 	mov    %rax,-0x6f8(%rbp)
    af3d:	48 8d 05 74 45 01 00 	lea    0x14574(%rip),%rax        # 1f4b8 <g_107>
    af44:	48 89 85 10 f9 ff ff 	mov    %rax,-0x6f0(%rbp)
    af4b:	48 c7 85 18 f9 ff ff 	movq   $0x0,-0x6e8(%rbp)
    af52:	00 00 00 00 
    af56:	48 8d 05 5b 45 01 00 	lea    0x1455b(%rip),%rax        # 1f4b8 <g_107>
    af5d:	48 89 85 20 f9 ff ff 	mov    %rax,-0x6e0(%rbp)
    af64:	48 8d 05 4d 45 01 00 	lea    0x1454d(%rip),%rax        # 1f4b8 <g_107>
    af6b:	48 89 85 28 f9 ff ff 	mov    %rax,-0x6d8(%rbp)
    af72:	48 c7 85 30 f9 ff ff 	movq   $0x0,-0x6d0(%rbp)
    af79:	00 00 00 00 
    af7d:	48 8d 05 a8 40 01 00 	lea    0x140a8(%rip),%rax        # 1f02c <g_4>
    af84:	48 89 85 38 f9 ff ff 	mov    %rax,-0x6c8(%rbp)
    af8b:	48 8d 85 64 f0 ff ff 	lea    -0xf9c(%rbp),%rax
    af92:	48 89 85 40 f9 ff ff 	mov    %rax,-0x6c0(%rbp)
    af99:	48 8d 85 64 f0 ff ff 	lea    -0xf9c(%rbp),%rax
    afa0:	48 89 85 48 f9 ff ff 	mov    %rax,-0x6b8(%rbp)
    afa7:	48 8d 85 58 f0 ff ff 	lea    -0xfa8(%rbp),%rax
    afae:	48 89 85 50 f9 ff ff 	mov    %rax,-0x6b0(%rbp)
    afb5:	48 8d 05 fc 44 01 00 	lea    0x144fc(%rip),%rax        # 1f4b8 <g_107>
    afbc:	48 89 85 58 f9 ff ff 	mov    %rax,-0x6a8(%rbp)
    afc3:	48 8d 05 62 40 01 00 	lea    0x14062(%rip),%rax        # 1f02c <g_4>
    afca:	48 89 85 60 f9 ff ff 	mov    %rax,-0x6a0(%rbp)
    afd1:	48 8d 05 e0 44 01 00 	lea    0x144e0(%rip),%rax        # 1f4b8 <g_107>
    afd8:	48 89 85 68 f9 ff ff 	mov    %rax,-0x698(%rbp)
    afdf:	48 8d 85 64 f0 ff ff 	lea    -0xf9c(%rbp),%rax
    afe6:	48 89 85 70 f9 ff ff 	mov    %rax,-0x690(%rbp)
    afed:	48 8d 85 58 f0 ff ff 	lea    -0xfa8(%rbp),%rax
    aff4:	48 89 85 78 f9 ff ff 	mov    %rax,-0x688(%rbp)
    affb:	48 8d 85 58 f0 ff ff 	lea    -0xfa8(%rbp),%rax
    b002:	48 89 85 80 f9 ff ff 	mov    %rax,-0x680(%rbp)
    b009:	48 8d 85 64 f0 ff ff 	lea    -0xf9c(%rbp),%rax
    b010:	48 89 85 88 f9 ff ff 	mov    %rax,-0x678(%rbp)
    b017:	48 8d 05 9a 44 01 00 	lea    0x1449a(%rip),%rax        # 1f4b8 <g_107>
    b01e:	48 89 85 90 f9 ff ff 	mov    %rax,-0x670(%rbp)
    b025:	48 8d 05 8c 44 01 00 	lea    0x1448c(%rip),%rax        # 1f4b8 <g_107>
    b02c:	48 89 85 98 f9 ff ff 	mov    %rax,-0x668(%rbp)
    b033:	48 8d 85 64 f0 ff ff 	lea    -0xf9c(%rbp),%rax
    b03a:	48 89 85 a0 f9 ff ff 	mov    %rax,-0x660(%rbp)
    b041:	48 8d 05 70 44 01 00 	lea    0x14470(%rip),%rax        # 1f4b8 <g_107>
    b048:	48 89 85 a8 f9 ff ff 	mov    %rax,-0x658(%rbp)
    b04f:	48 8d 85 58 f0 ff ff 	lea    -0xfa8(%rbp),%rax
    b056:	48 89 85 b0 f9 ff ff 	mov    %rax,-0x650(%rbp)
    b05d:	48 8d 85 58 f0 ff ff 	lea    -0xfa8(%rbp),%rax
    b064:	48 89 85 b8 f9 ff ff 	mov    %rax,-0x648(%rbp)
    b06b:	48 8d 85 64 f0 ff ff 	lea    -0xf9c(%rbp),%rax
    b072:	48 89 85 c0 f9 ff ff 	mov    %rax,-0x640(%rbp)
    b079:	48 8d 85 58 f0 ff ff 	lea    -0xfa8(%rbp),%rax
    b080:	48 89 85 c8 f9 ff ff 	mov    %rax,-0x638(%rbp)
    b087:	48 8d 85 58 f0 ff ff 	lea    -0xfa8(%rbp),%rax
    b08e:	48 89 85 d0 f9 ff ff 	mov    %rax,-0x630(%rbp)
    b095:	48 c7 85 d8 f9 ff ff 	movq   $0x0,-0x628(%rbp)
    b09c:	00 00 00 00 
    b0a0:	48 8d 85 58 f0 ff ff 	lea    -0xfa8(%rbp),%rax
    b0a7:	48 89 85 e0 f9 ff ff 	mov    %rax,-0x620(%rbp)
    b0ae:	48 8d 85 58 f0 ff ff 	lea    -0xfa8(%rbp),%rax
    b0b5:	48 89 85 e8 f9 ff ff 	mov    %rax,-0x618(%rbp)
    b0bc:	48 c7 85 f0 f9 ff ff 	movq   $0x0,-0x610(%rbp)
    b0c3:	00 00 00 00 
    b0c7:	48 8d 85 58 f0 ff ff 	lea    -0xfa8(%rbp),%rax
    b0ce:	48 89 85 f8 f9 ff ff 	mov    %rax,-0x608(%rbp)
    b0d5:	48 8d 05 dc 43 01 00 	lea    0x143dc(%rip),%rax        # 1f4b8 <g_107>
    b0dc:	48 89 85 00 fa ff ff 	mov    %rax,-0x600(%rbp)
    b0e3:	48 8d 05 ce 43 01 00 	lea    0x143ce(%rip),%rax        # 1f4b8 <g_107>
    b0ea:	48 89 85 08 fa ff ff 	mov    %rax,-0x5f8(%rbp)
    b0f1:	48 8d 05 c0 43 01 00 	lea    0x143c0(%rip),%rax        # 1f4b8 <g_107>
    b0f8:	48 89 85 10 fa ff ff 	mov    %rax,-0x5f0(%rbp)
    b0ff:	48 8d 05 b2 43 01 00 	lea    0x143b2(%rip),%rax        # 1f4b8 <g_107>
    b106:	48 89 85 18 fa ff ff 	mov    %rax,-0x5e8(%rbp)
    b10d:	48 8d 85 58 f0 ff ff 	lea    -0xfa8(%rbp),%rax
    b114:	48 89 85 20 fa ff ff 	mov    %rax,-0x5e0(%rbp)
    b11b:	48 8d 85 64 f0 ff ff 	lea    -0xf9c(%rbp),%rax
    b122:	48 89 85 28 fa ff ff 	mov    %rax,-0x5d8(%rbp)
    b129:	48 8d 05 88 43 01 00 	lea    0x14388(%rip),%rax        # 1f4b8 <g_107>
    b130:	48 89 85 30 fa ff ff 	mov    %rax,-0x5d0(%rbp)
    b137:	48 8d 85 58 f0 ff ff 	lea    -0xfa8(%rbp),%rax
    b13e:	48 89 85 38 fa ff ff 	mov    %rax,-0x5c8(%rbp)
    b145:	48 8d 05 e0 3e 01 00 	lea    0x13ee0(%rip),%rax        # 1f02c <g_4>
    b14c:	48 89 85 40 fa ff ff 	mov    %rax,-0x5c0(%rbp)
    b153:	48 8d 05 5e 43 01 00 	lea    0x1435e(%rip),%rax        # 1f4b8 <g_107>
    b15a:	48 89 85 48 fa ff ff 	mov    %rax,-0x5b8(%rbp)
    b161:	48 8d 85 64 f0 ff ff 	lea    -0xf9c(%rbp),%rax
    b168:	48 89 85 50 fa ff ff 	mov    %rax,-0x5b0(%rbp)
    b16f:	48 8d 05 42 43 01 00 	lea    0x14342(%rip),%rax        # 1f4b8 <g_107>
    b176:	48 89 85 58 fa ff ff 	mov    %rax,-0x5a8(%rbp)
    b17d:	48 c7 85 60 fa ff ff 	movq   $0x0,-0x5a0(%rbp)
    b184:	00 00 00 00 
    b188:	48 8d 85 64 f0 ff ff 	lea    -0xf9c(%rbp),%rax
    b18f:	48 89 85 68 fa ff ff 	mov    %rax,-0x598(%rbp)
    b196:	48 c7 85 70 fa ff ff 	movq   $0x0,-0x590(%rbp)
    b19d:	00 00 00 00 
    b1a1:	48 8d 05 84 3e 01 00 	lea    0x13e84(%rip),%rax        # 1f02c <g_4>
    b1a8:	48 89 85 78 fa ff ff 	mov    %rax,-0x588(%rbp)
    b1af:	48 8d 85 58 f0 ff ff 	lea    -0xfa8(%rbp),%rax
    b1b6:	48 89 85 80 fa ff ff 	mov    %rax,-0x580(%rbp)
    b1bd:	48 8d 05 f4 42 01 00 	lea    0x142f4(%rip),%rax        # 1f4b8 <g_107>
    b1c4:	48 89 85 88 fa ff ff 	mov    %rax,-0x578(%rbp)
    b1cb:	48 8d 05 5a 3e 01 00 	lea    0x13e5a(%rip),%rax        # 1f02c <g_4>
    b1d2:	48 89 85 90 fa ff ff 	mov    %rax,-0x570(%rbp)
    b1d9:	48 c7 85 98 fa ff ff 	movq   $0x0,-0x568(%rbp)
    b1e0:	00 00 00 00 
    b1e4:	48 8d 05 41 3e 01 00 	lea    0x13e41(%rip),%rax        # 1f02c <g_4>
    b1eb:	48 89 85 a0 fa ff ff 	mov    %rax,-0x560(%rbp)
    b1f2:	48 8d 05 bf 42 01 00 	lea    0x142bf(%rip),%rax        # 1f4b8 <g_107>
    b1f9:	48 89 85 a8 fa ff ff 	mov    %rax,-0x558(%rbp)
    b200:	48 8d 85 64 f0 ff ff 	lea    -0xf9c(%rbp),%rax
    b207:	48 89 85 b0 fa ff ff 	mov    %rax,-0x550(%rbp)
    b20e:	48 8d 85 58 f0 ff ff 	lea    -0xfa8(%rbp),%rax
    b215:	48 89 85 b8 fa ff ff 	mov    %rax,-0x548(%rbp)
    b21c:	48 c7 85 c0 fa ff ff 	movq   $0x0,-0x540(%rbp)
    b223:	00 00 00 00 
    b227:	48 8d 85 64 f0 ff ff 	lea    -0xf9c(%rbp),%rax
    b22e:	48 89 85 c8 fa ff ff 	mov    %rax,-0x538(%rbp)
    b235:	48 8d 85 58 f0 ff ff 	lea    -0xfa8(%rbp),%rax
    b23c:	48 89 85 d0 fa ff ff 	mov    %rax,-0x530(%rbp)
    b243:	48 c7 85 d8 fa ff ff 	movq   $0x0,-0x528(%rbp)
    b24a:	00 00 00 00 
    b24e:	48 c7 85 e0 fa ff ff 	movq   $0x0,-0x520(%rbp)
    b255:	00 00 00 00 
    b259:	48 8d 85 58 f0 ff ff 	lea    -0xfa8(%rbp),%rax
    b260:	48 89 85 e8 fa ff ff 	mov    %rax,-0x518(%rbp)
    b267:	48 8d 85 58 f0 ff ff 	lea    -0xfa8(%rbp),%rax
    b26e:	48 89 85 f0 fa ff ff 	mov    %rax,-0x510(%rbp)
    b275:	48 8d 85 58 f0 ff ff 	lea    -0xfa8(%rbp),%rax
    b27c:	48 89 85 f8 fa ff ff 	mov    %rax,-0x508(%rbp)
    b283:	48 c7 85 00 fb ff ff 	movq   $0x0,-0x500(%rbp)
    b28a:	00 00 00 00 
    b28e:	48 c7 85 08 fb ff ff 	movq   $0x0,-0x4f8(%rbp)
    b295:	00 00 00 00 
    b299:	48 8d 85 58 f0 ff ff 	lea    -0xfa8(%rbp),%rax
    b2a0:	48 89 85 10 fb ff ff 	mov    %rax,-0x4f0(%rbp)
    b2a7:	48 8d 85 64 f0 ff ff 	lea    -0xf9c(%rbp),%rax
    b2ae:	48 89 85 18 fb ff ff 	mov    %rax,-0x4e8(%rbp)
    b2b5:	48 8d 85 64 f0 ff ff 	lea    -0xf9c(%rbp),%rax
    b2bc:	48 89 85 20 fb ff ff 	mov    %rax,-0x4e0(%rbp)
    b2c3:	48 8d 05 62 3d 01 00 	lea    0x13d62(%rip),%rax        # 1f02c <g_4>
    b2ca:	48 89 85 28 fb ff ff 	mov    %rax,-0x4d8(%rbp)
    b2d1:	48 8d 05 e0 41 01 00 	lea    0x141e0(%rip),%rax        # 1f4b8 <g_107>
    b2d8:	48 89 85 30 fb ff ff 	mov    %rax,-0x4d0(%rbp)
    b2df:	48 8d 05 d2 41 01 00 	lea    0x141d2(%rip),%rax        # 1f4b8 <g_107>
    b2e6:	48 89 85 38 fb ff ff 	mov    %rax,-0x4c8(%rbp)
    b2ed:	48 c7 85 40 fb ff ff 	movq   $0x0,-0x4c0(%rbp)
    b2f4:	00 00 00 00 
    b2f8:	48 c7 85 48 fb ff ff 	movq   $0x0,-0x4b8(%rbp)
    b2ff:	00 00 00 00 
    b303:	48 8d 85 58 f0 ff ff 	lea    -0xfa8(%rbp),%rax
    b30a:	48 89 85 50 fb ff ff 	mov    %rax,-0x4b0(%rbp)
    b311:	48 8d 85 58 f0 ff ff 	lea    -0xfa8(%rbp),%rax
    b318:	48 89 85 58 fb ff ff 	mov    %rax,-0x4a8(%rbp)
    b31f:	48 8d 05 92 41 01 00 	lea    0x14192(%rip),%rax        # 1f4b8 <g_107>
    b326:	48 89 85 60 fb ff ff 	mov    %rax,-0x4a0(%rbp)
    b32d:	48 8d 85 58 f0 ff ff 	lea    -0xfa8(%rbp),%rax
    b334:	48 89 85 68 fb ff ff 	mov    %rax,-0x498(%rbp)
    b33b:	48 8d 85 64 f0 ff ff 	lea    -0xf9c(%rbp),%rax
    b342:	48 89 85 70 fb ff ff 	mov    %rax,-0x490(%rbp)
    b349:	48 8d 85 64 f0 ff ff 	lea    -0xf9c(%rbp),%rax
    b350:	48 89 85 78 fb ff ff 	mov    %rax,-0x488(%rbp)
    b357:	48 8d 85 58 f0 ff ff 	lea    -0xfa8(%rbp),%rax
    b35e:	48 89 85 80 fb ff ff 	mov    %rax,-0x480(%rbp)
    b365:	48 8d 85 58 f0 ff ff 	lea    -0xfa8(%rbp),%rax
    b36c:	48 89 85 88 fb ff ff 	mov    %rax,-0x478(%rbp)
    b373:	48 8d 85 64 f0 ff ff 	lea    -0xf9c(%rbp),%rax
    b37a:	48 89 85 90 fb ff ff 	mov    %rax,-0x470(%rbp)
    b381:	48 8d 05 30 41 01 00 	lea    0x14130(%rip),%rax        # 1f4b8 <g_107>
    b388:	48 89 85 98 fb ff ff 	mov    %rax,-0x468(%rbp)
    b38f:	48 8d 85 58 f0 ff ff 	lea    -0xfa8(%rbp),%rax
    b396:	48 89 85 a0 fb ff ff 	mov    %rax,-0x460(%rbp)
    b39d:	48 8d 05 14 41 01 00 	lea    0x14114(%rip),%rax        # 1f4b8 <g_107>
    b3a4:	48 89 85 a8 fb ff ff 	mov    %rax,-0x458(%rbp)
    b3ab:	48 8d 85 64 f0 ff ff 	lea    -0xf9c(%rbp),%rax
    b3b2:	48 89 85 b0 fb ff ff 	mov    %rax,-0x450(%rbp)
    b3b9:	48 8d 05 6c 3c 01 00 	lea    0x13c6c(%rip),%rax        # 1f02c <g_4>
    b3c0:	48 89 85 b8 fb ff ff 	mov    %rax,-0x448(%rbp)
    b3c7:	48 c7 85 c0 fb ff ff 	movq   $0x0,-0x440(%rbp)
    b3ce:	00 00 00 00 
    b3d2:	48 8d 85 64 f0 ff ff 	lea    -0xf9c(%rbp),%rax
    b3d9:	48 89 85 c8 fb ff ff 	mov    %rax,-0x438(%rbp)
    b3e0:	48 8d 85 64 f0 ff ff 	lea    -0xf9c(%rbp),%rax
    b3e7:	48 89 85 d0 fb ff ff 	mov    %rax,-0x430(%rbp)
    b3ee:	48 c7 85 d8 fb ff ff 	movq   $0x0,-0x428(%rbp)
    b3f5:	00 00 00 00 
    b3f9:	48 8d 05 2c 3c 01 00 	lea    0x13c2c(%rip),%rax        # 1f02c <g_4>
    b400:	48 89 85 e0 fb ff ff 	mov    %rax,-0x420(%rbp)
    b407:	48 8d 05 1e 3c 01 00 	lea    0x13c1e(%rip),%rax        # 1f02c <g_4>
    b40e:	48 89 85 e8 fb ff ff 	mov    %rax,-0x418(%rbp)
    b415:	48 c7 85 f0 fb ff ff 	movq   $0x0,-0x410(%rbp)
    b41c:	00 00 00 00 
    b420:	48 8d 85 58 f0 ff ff 	lea    -0xfa8(%rbp),%rax
    b427:	48 89 85 f8 fb ff ff 	mov    %rax,-0x408(%rbp)
    b42e:	48 8d 85 58 f0 ff ff 	lea    -0xfa8(%rbp),%rax
    b435:	48 89 85 00 fc ff ff 	mov    %rax,-0x400(%rbp)
    b43c:	48 8d 85 64 f0 ff ff 	lea    -0xf9c(%rbp),%rax
    b443:	48 89 85 08 fc ff ff 	mov    %rax,-0x3f8(%rbp)
    b44a:	48 8d 05 67 40 01 00 	lea    0x14067(%rip),%rax        # 1f4b8 <g_107>
    b451:	48 89 85 10 fc ff ff 	mov    %rax,-0x3f0(%rbp)
    b458:	48 8d 05 cd 3b 01 00 	lea    0x13bcd(%rip),%rax        # 1f02c <g_4>
    b45f:	48 89 85 18 fc ff ff 	mov    %rax,-0x3e8(%rbp)
    b466:	48 8d 85 58 f0 ff ff 	lea    -0xfa8(%rbp),%rax
    b46d:	48 89 85 20 fc ff ff 	mov    %rax,-0x3e0(%rbp)
    b474:	48 8d 85 64 f0 ff ff 	lea    -0xf9c(%rbp),%rax
    b47b:	48 89 85 28 fc ff ff 	mov    %rax,-0x3d8(%rbp)
    b482:	48 8d 05 a3 3b 01 00 	lea    0x13ba3(%rip),%rax        # 1f02c <g_4>
    b489:	48 89 85 30 fc ff ff 	mov    %rax,-0x3d0(%rbp)
    b490:	48 8d 85 64 f0 ff ff 	lea    -0xf9c(%rbp),%rax
    b497:	48 89 85 38 fc ff ff 	mov    %rax,-0x3c8(%rbp)
    b49e:	48 8d 05 87 3b 01 00 	lea    0x13b87(%rip),%rax        # 1f02c <g_4>
    b4a5:	48 89 85 40 fc ff ff 	mov    %rax,-0x3c0(%rbp)
    b4ac:	48 c7 85 48 fc ff ff 	movq   $0x0,-0x3b8(%rbp)
    b4b3:	00 00 00 00 
    b4b7:	48 8d 05 6e 3b 01 00 	lea    0x13b6e(%rip),%rax        # 1f02c <g_4>
    b4be:	48 89 85 50 fc ff ff 	mov    %rax,-0x3b0(%rbp)
    b4c5:	48 8d 05 ec 3f 01 00 	lea    0x13fec(%rip),%rax        # 1f4b8 <g_107>
    b4cc:	48 89 85 58 fc ff ff 	mov    %rax,-0x3a8(%rbp)
    b4d3:	48 8d 05 de 3f 01 00 	lea    0x13fde(%rip),%rax        # 1f4b8 <g_107>
    b4da:	48 89 85 60 fc ff ff 	mov    %rax,-0x3a0(%rbp)
    b4e1:	48 8d 85 58 f0 ff ff 	lea    -0xfa8(%rbp),%rax
    b4e8:	48 89 85 68 fc ff ff 	mov    %rax,-0x398(%rbp)
    b4ef:	48 8d 05 c2 3f 01 00 	lea    0x13fc2(%rip),%rax        # 1f4b8 <g_107>
    b4f6:	48 89 85 70 fc ff ff 	mov    %rax,-0x390(%rbp)
    b4fd:	48 8d 05 28 3b 01 00 	lea    0x13b28(%rip),%rax        # 1f02c <g_4>
    b504:	48 89 85 78 fc ff ff 	mov    %rax,-0x388(%rbp)
    b50b:	48 8d 05 a6 3f 01 00 	lea    0x13fa6(%rip),%rax        # 1f4b8 <g_107>
    b512:	48 89 85 80 fc ff ff 	mov    %rax,-0x380(%rbp)
    b519:	48 8d 05 98 3f 01 00 	lea    0x13f98(%rip),%rax        # 1f4b8 <g_107>
    b520:	48 89 85 88 fc ff ff 	mov    %rax,-0x378(%rbp)
    b527:	48 8d 85 64 f0 ff ff 	lea    -0xf9c(%rbp),%rax
    b52e:	48 89 85 90 fc ff ff 	mov    %rax,-0x370(%rbp)
    b535:	48 c7 85 98 fc ff ff 	movq   $0x0,-0x368(%rbp)
    b53c:	00 00 00 00 
    b540:	48 8d 05 e5 3a 01 00 	lea    0x13ae5(%rip),%rax        # 1f02c <g_4>
    b547:	48 89 85 a0 fc ff ff 	mov    %rax,-0x360(%rbp)
    b54e:	48 8d 05 d7 3a 01 00 	lea    0x13ad7(%rip),%rax        # 1f02c <g_4>
    b555:	48 89 85 a8 fc ff ff 	mov    %rax,-0x358(%rbp)
    b55c:	48 8d 05 55 3f 01 00 	lea    0x13f55(%rip),%rax        # 1f4b8 <g_107>
    b563:	48 89 85 b0 fc ff ff 	mov    %rax,-0x350(%rbp)
    b56a:	48 8d 05 47 3f 01 00 	lea    0x13f47(%rip),%rax        # 1f4b8 <g_107>
    b571:	48 89 85 b8 fc ff ff 	mov    %rax,-0x348(%rbp)
    b578:	48 8d 05 ad 3a 01 00 	lea    0x13aad(%rip),%rax        # 1f02c <g_4>
    b57f:	48 89 85 c0 fc ff ff 	mov    %rax,-0x340(%rbp)
    b586:	48 8d 85 64 f0 ff ff 	lea    -0xf9c(%rbp),%rax
    b58d:	48 89 85 c8 fc ff ff 	mov    %rax,-0x338(%rbp)
    b594:	48 8d 05 91 3a 01 00 	lea    0x13a91(%rip),%rax        # 1f02c <g_4>
    b59b:	48 89 85 d0 fc ff ff 	mov    %rax,-0x330(%rbp)
    b5a2:	48 8d 85 64 f0 ff ff 	lea    -0xf9c(%rbp),%rax
    b5a9:	48 89 85 d8 fc ff ff 	mov    %rax,-0x328(%rbp)
    b5b0:	48 8d 05 01 3f 01 00 	lea    0x13f01(%rip),%rax        # 1f4b8 <g_107>
    b5b7:	48 89 85 e0 fc ff ff 	mov    %rax,-0x320(%rbp)
    b5be:	48 8d 85 58 f0 ff ff 	lea    -0xfa8(%rbp),%rax
    b5c5:	48 89 85 e8 fc ff ff 	mov    %rax,-0x318(%rbp)
    b5cc:	48 8d 85 58 f0 ff ff 	lea    -0xfa8(%rbp),%rax
    b5d3:	48 89 85 f0 fc ff ff 	mov    %rax,-0x310(%rbp)
    b5da:	48 8d 85 64 f0 ff ff 	lea    -0xf9c(%rbp),%rax
    b5e1:	48 89 85 f8 fc ff ff 	mov    %rax,-0x308(%rbp)
    b5e8:	48 8d 05 c9 3e 01 00 	lea    0x13ec9(%rip),%rax        # 1f4b8 <g_107>
    b5ef:	48 89 85 00 fd ff ff 	mov    %rax,-0x300(%rbp)
    b5f6:	48 c7 85 08 fd ff ff 	movq   $0x0,-0x2f8(%rbp)
    b5fd:	00 00 00 00 
    b601:	48 8d 85 58 f0 ff ff 	lea    -0xfa8(%rbp),%rax
    b608:	48 89 85 10 fd ff ff 	mov    %rax,-0x2f0(%rbp)
    b60f:	48 8d 05 a2 3e 01 00 	lea    0x13ea2(%rip),%rax        # 1f4b8 <g_107>
    b616:	48 89 85 18 fd ff ff 	mov    %rax,-0x2e8(%rbp)
    b61d:	48 8d 05 94 3e 01 00 	lea    0x13e94(%rip),%rax        # 1f4b8 <g_107>
    b624:	48 89 85 20 fd ff ff 	mov    %rax,-0x2e0(%rbp)
    b62b:	48 8d 05 86 3e 01 00 	lea    0x13e86(%rip),%rax        # 1f4b8 <g_107>
    b632:	48 89 85 28 fd ff ff 	mov    %rax,-0x2d8(%rbp)
    b639:	48 8d 05 ec 39 01 00 	lea    0x139ec(%rip),%rax        # 1f02c <g_4>
    b640:	48 89 85 30 fd ff ff 	mov    %rax,-0x2d0(%rbp)
    b647:	48 c7 85 38 fd ff ff 	movq   $0x0,-0x2c8(%rbp)
    b64e:	00 00 00 00 
    b652:	48 8d 85 58 f0 ff ff 	lea    -0xfa8(%rbp),%rax
    b659:	48 89 85 40 fd ff ff 	mov    %rax,-0x2c0(%rbp)
    b660:	48 8d 05 c5 39 01 00 	lea    0x139c5(%rip),%rax        # 1f02c <g_4>
    b667:	48 89 85 48 fd ff ff 	mov    %rax,-0x2b8(%rbp)
    b66e:	48 8d 05 43 3e 01 00 	lea    0x13e43(%rip),%rax        # 1f4b8 <g_107>
    b675:	48 89 85 50 fd ff ff 	mov    %rax,-0x2b0(%rbp)
    b67c:	48 8d 85 64 f0 ff ff 	lea    -0xf9c(%rbp),%rax
    b683:	48 89 85 58 fd ff ff 	mov    %rax,-0x2a8(%rbp)
    b68a:	48 c7 85 60 fd ff ff 	movq   $0x0,-0x2a0(%rbp)
    b691:	00 00 00 00 
    b695:	48 8d 85 58 f0 ff ff 	lea    -0xfa8(%rbp),%rax
    b69c:	48 89 85 68 fd ff ff 	mov    %rax,-0x298(%rbp)
    b6a3:	48 c7 85 70 fd ff ff 	movq   $0x0,-0x290(%rbp)
    b6aa:	00 00 00 00 
    b6ae:	48 8d 85 58 f0 ff ff 	lea    -0xfa8(%rbp),%rax
    b6b5:	48 89 85 78 fd ff ff 	mov    %rax,-0x288(%rbp)
    b6bc:	48 c7 85 80 fd ff ff 	movq   $0x0,-0x280(%rbp)
    b6c3:	00 00 00 00 
    b6c7:	48 8d 85 58 f0 ff ff 	lea    -0xfa8(%rbp),%rax
    b6ce:	48 89 85 88 fd ff ff 	mov    %rax,-0x278(%rbp)
    b6d5:	48 c7 85 90 fd ff ff 	movq   $0x0,-0x270(%rbp)
    b6dc:	00 00 00 00 
    b6e0:	48 8d 85 58 f0 ff ff 	lea    -0xfa8(%rbp),%rax
    b6e7:	48 89 85 98 fd ff ff 	mov    %rax,-0x268(%rbp)
    b6ee:	48 c7 85 a0 fd ff ff 	movq   $0x0,-0x260(%rbp)
    b6f5:	00 00 00 00 
    b6f9:	48 8d 05 b8 3d 01 00 	lea    0x13db8(%rip),%rax        # 1f4b8 <g_107>
    b700:	48 89 85 a8 fd ff ff 	mov    %rax,-0x258(%rbp)
    b707:	48 8d 05 aa 3d 01 00 	lea    0x13daa(%rip),%rax        # 1f4b8 <g_107>
    b70e:	48 89 85 b0 fd ff ff 	mov    %rax,-0x250(%rbp)
    b715:	48 8d 85 58 f0 ff ff 	lea    -0xfa8(%rbp),%rax
    b71c:	48 89 85 b8 fd ff ff 	mov    %rax,-0x248(%rbp)
    b723:	48 8d 85 58 f0 ff ff 	lea    -0xfa8(%rbp),%rax
    b72a:	48 89 85 c0 fd ff ff 	mov    %rax,-0x240(%rbp)
    b731:	48 8d 85 58 f0 ff ff 	lea    -0xfa8(%rbp),%rax
    b738:	48 89 85 c8 fd ff ff 	mov    %rax,-0x238(%rbp)
    b73f:	48 8d 05 e6 38 01 00 	lea    0x138e6(%rip),%rax        # 1f02c <g_4>
    b746:	48 89 85 d0 fd ff ff 	mov    %rax,-0x230(%rbp)
    b74d:	48 8d 05 d8 38 01 00 	lea    0x138d8(%rip),%rax        # 1f02c <g_4>
    b754:	48 89 85 d8 fd ff ff 	mov    %rax,-0x228(%rbp)
    b75b:	48 8d 05 56 3d 01 00 	lea    0x13d56(%rip),%rax        # 1f4b8 <g_107>
    b762:	48 89 85 e0 fd ff ff 	mov    %rax,-0x220(%rbp)
    b769:	48 c7 85 e8 fd ff ff 	movq   $0x0,-0x218(%rbp)
    b770:	00 00 00 00 
    b774:	48 8d 85 58 f0 ff ff 	lea    -0xfa8(%rbp),%rax
    b77b:	48 89 85 f0 fd ff ff 	mov    %rax,-0x210(%rbp)
    b782:	48 8d 05 2f 3d 01 00 	lea    0x13d2f(%rip),%rax        # 1f4b8 <g_107>
    b789:	48 89 85 f8 fd ff ff 	mov    %rax,-0x208(%rbp)
    b790:	48 8d 05 21 3d 01 00 	lea    0x13d21(%rip),%rax        # 1f4b8 <g_107>
    b797:	48 89 85 00 fe ff ff 	mov    %rax,-0x200(%rbp)
    b79e:	48 8d 85 58 f0 ff ff 	lea    -0xfa8(%rbp),%rax
    b7a5:	48 89 85 08 fe ff ff 	mov    %rax,-0x1f8(%rbp)
    b7ac:	48 8d 85 58 f0 ff ff 	lea    -0xfa8(%rbp),%rax
    b7b3:	48 89 85 10 fe ff ff 	mov    %rax,-0x1f0(%rbp)
    b7ba:	48 c7 85 18 fe ff ff 	movq   $0x0,-0x1e8(%rbp)
    b7c1:	00 00 00 00 
    b7c5:	48 8d 05 ec 3c 01 00 	lea    0x13cec(%rip),%rax        # 1f4b8 <g_107>
    b7cc:	48 89 85 20 fe ff ff 	mov    %rax,-0x1e0(%rbp)
    b7d3:	48 8d 85 58 f0 ff ff 	lea    -0xfa8(%rbp),%rax
    b7da:	48 89 85 28 fe ff ff 	mov    %rax,-0x1d8(%rbp)
    b7e1:	48 8d 05 44 38 01 00 	lea    0x13844(%rip),%rax        # 1f02c <g_4>
    b7e8:	48 89 85 30 fe ff ff 	mov    %rax,-0x1d0(%rbp)
    b7ef:	48 8d 85 58 f0 ff ff 	lea    -0xfa8(%rbp),%rax
    b7f6:	48 89 85 38 fe ff ff 	mov    %rax,-0x1c8(%rbp)
    b7fd:	48 8d 05 28 38 01 00 	lea    0x13828(%rip),%rax        # 1f02c <g_4>
    b804:	48 89 85 40 fe ff ff 	mov    %rax,-0x1c0(%rbp)
    b80b:	48 8d 85 64 f0 ff ff 	lea    -0xf9c(%rbp),%rax
    b812:	48 89 85 48 fe ff ff 	mov    %rax,-0x1b8(%rbp)
    b819:	48 8d 05 98 3c 01 00 	lea    0x13c98(%rip),%rax        # 1f4b8 <g_107>
    b820:	48 89 85 50 fe ff ff 	mov    %rax,-0x1b0(%rbp)
    b827:	48 8d 05 fe 37 01 00 	lea    0x137fe(%rip),%rax        # 1f02c <g_4>
    b82e:	48 89 85 58 fe ff ff 	mov    %rax,-0x1a8(%rbp)
    b835:	48 8d 05 f0 37 01 00 	lea    0x137f0(%rip),%rax        # 1f02c <g_4>
    b83c:	48 89 85 60 fe ff ff 	mov    %rax,-0x1a0(%rbp)
    b843:	48 8d 05 6e 3c 01 00 	lea    0x13c6e(%rip),%rax        # 1f4b8 <g_107>
    b84a:	48 89 85 68 fe ff ff 	mov    %rax,-0x198(%rbp)
    b851:	48 8d 85 64 f0 ff ff 	lea    -0xf9c(%rbp),%rax
    b858:	48 89 85 70 fe ff ff 	mov    %rax,-0x190(%rbp)
    b85f:	48 8d 85 64 f0 ff ff 	lea    -0xf9c(%rbp),%rax
    b866:	48 89 85 78 fe ff ff 	mov    %rax,-0x188(%rbp)
    b86d:	48 8d 05 44 3c 01 00 	lea    0x13c44(%rip),%rax        # 1f4b8 <g_107>
    b874:	48 89 85 80 fe ff ff 	mov    %rax,-0x180(%rbp)
    b87b:	48 c7 85 88 fe ff ff 	movq   $0x0,-0x178(%rbp)
    b882:	00 00 00 00 
    b886:	48 8d 05 2b 3c 01 00 	lea    0x13c2b(%rip),%rax        # 1f4b8 <g_107>
    b88d:	48 89 85 90 fe ff ff 	mov    %rax,-0x170(%rbp)
    b894:	48 8d 85 64 f0 ff ff 	lea    -0xf9c(%rbp),%rax
    b89b:	48 89 85 98 fe ff ff 	mov    %rax,-0x168(%rbp)
    b8a2:	48 8d 05 0f 3c 01 00 	lea    0x13c0f(%rip),%rax        # 1f4b8 <g_107>
    b8a9:	48 89 85 a0 fe ff ff 	mov    %rax,-0x160(%rbp)
    b8b0:	48 c7 85 a8 fe ff ff 	movq   $0x0,-0x158(%rbp)
    b8b7:	00 00 00 00 
    b8bb:	48 8d 05 6a 37 01 00 	lea    0x1376a(%rip),%rax        # 1f02c <g_4>
    b8c2:	48 89 85 b0 fe ff ff 	mov    %rax,-0x150(%rbp)
    b8c9:	48 8d 85 64 f0 ff ff 	lea    -0xf9c(%rbp),%rax
    b8d0:	48 89 85 b8 fe ff ff 	mov    %rax,-0x148(%rbp)
    b8d7:	48 8d 05 4e 37 01 00 	lea    0x1374e(%rip),%rax        # 1f02c <g_4>
    b8de:	48 89 85 c0 fe ff ff 	mov    %rax,-0x140(%rbp)
    b8e5:	48 c7 85 c8 fe ff ff 	movq   $0x0,-0x138(%rbp)
    b8ec:	00 00 00 00 
    b8f0:	48 8d 05 35 37 01 00 	lea    0x13735(%rip),%rax        # 1f02c <g_4>
    b8f7:	48 89 85 d0 fe ff ff 	mov    %rax,-0x130(%rbp)
    b8fe:	48 8d 85 64 f0 ff ff 	lea    -0xf9c(%rbp),%rax
    b905:	48 89 85 d8 fe ff ff 	mov    %rax,-0x128(%rbp)
    b90c:	48 8d 85 58 f0 ff ff 	lea    -0xfa8(%rbp),%rax
    b913:	48 89 85 e0 fe ff ff 	mov    %rax,-0x120(%rbp)
    b91a:	48 c7 85 e8 fe ff ff 	movq   $0x0,-0x118(%rbp)
    b921:	00 00 00 00 
    b925:	48 8d 05 8c 3b 01 00 	lea    0x13b8c(%rip),%rax        # 1f4b8 <g_107>
    b92c:	48 89 85 f0 fe ff ff 	mov    %rax,-0x110(%rbp)
    b933:	48 8d 85 58 f0 ff ff 	lea    -0xfa8(%rbp),%rax
    b93a:	48 89 85 f8 fe ff ff 	mov    %rax,-0x108(%rbp)
    b941:	48 8d 85 58 f0 ff ff 	lea    -0xfa8(%rbp),%rax
    b948:	48 89 85 00 ff ff ff 	mov    %rax,-0x100(%rbp)
    b94f:	48 8d 85 64 f0 ff ff 	lea    -0xf9c(%rbp),%rax
    b956:	48 89 85 08 ff ff ff 	mov    %rax,-0xf8(%rbp)
    b95d:	48 c7 85 10 ff ff ff 	movq   $0x0,-0xf0(%rbp)
    b964:	00 00 00 00 
    b968:	48 8d 05 bd 36 01 00 	lea    0x136bd(%rip),%rax        # 1f02c <g_4>
    b96f:	48 89 85 18 ff ff ff 	mov    %rax,-0xe8(%rbp)
    b976:	48 8d 05 af 36 01 00 	lea    0x136af(%rip),%rax        # 1f02c <g_4>
    b97d:	48 89 85 20 ff ff ff 	mov    %rax,-0xe0(%rbp)
    b984:	48 8d 85 58 f0 ff ff 	lea    -0xfa8(%rbp),%rax
    b98b:	48 89 85 28 ff ff ff 	mov    %rax,-0xd8(%rbp)
    b992:	48 8d 85 58 f0 ff ff 	lea    -0xfa8(%rbp),%rax
    b999:	48 89 85 30 ff ff ff 	mov    %rax,-0xd0(%rbp)
    b9a0:	48 c7 85 38 ff ff ff 	movq   $0x0,-0xc8(%rbp)
    b9a7:	00 00 00 00 
    b9ab:	48 8d 85 64 f0 ff ff 	lea    -0xf9c(%rbp),%rax
    b9b2:	48 89 85 40 ff ff ff 	mov    %rax,-0xc0(%rbp)
    b9b9:	48 8d 85 58 f0 ff ff 	lea    -0xfa8(%rbp),%rax
    b9c0:	48 89 85 48 ff ff ff 	mov    %rax,-0xb8(%rbp)
    b9c7:	48 c7 85 50 ff ff ff 	movq   $0x0,-0xb0(%rbp)
    b9ce:	00 00 00 00 
    b9d2:	48 8d 85 64 f0 ff ff 	lea    -0xf9c(%rbp),%rax
    b9d9:	48 89 85 58 ff ff ff 	mov    %rax,-0xa8(%rbp)
    b9e0:	48 8d 85 58 f0 ff ff 	lea    -0xfa8(%rbp),%rax
    b9e7:	48 89 85 60 ff ff ff 	mov    %rax,-0xa0(%rbp)
    b9ee:	48 8d 85 64 f0 ff ff 	lea    -0xf9c(%rbp),%rax
    b9f5:	48 89 85 68 ff ff ff 	mov    %rax,-0x98(%rbp)
    b9fc:	48 8d 05 29 36 01 00 	lea    0x13629(%rip),%rax        # 1f02c <g_4>
    ba03:	48 89 85 70 ff ff ff 	mov    %rax,-0x90(%rbp)
    ba0a:	48 8d 05 a7 3a 01 00 	lea    0x13aa7(%rip),%rax        # 1f4b8 <g_107>
    ba11:	48 89 85 78 ff ff ff 	mov    %rax,-0x88(%rbp)
    ba18:	48 8d 05 0d 36 01 00 	lea    0x1360d(%rip),%rax        # 1f02c <g_4>
    ba1f:	48 89 45 80          	mov    %rax,-0x80(%rbp)
    ba23:	48 8d 85 58 f0 ff ff 	lea    -0xfa8(%rbp),%rax
    ba2a:	48 89 45 88          	mov    %rax,-0x78(%rbp)
    ba2e:	48 8d 05 83 3a 01 00 	lea    0x13a83(%rip),%rax        # 1f4b8 <g_107>
    ba35:	48 89 45 90          	mov    %rax,-0x70(%rbp)
    ba39:	48 8d 85 64 f0 ff ff 	lea    -0xf9c(%rbp),%rax
    ba40:	48 89 45 98          	mov    %rax,-0x68(%rbp)
    ba44:	48 c7 45 a0 00 00 00 	movq   $0x0,-0x60(%rbp)
    ba4b:	00 
    ba4c:	48 8d 85 58 f0 ff ff 	lea    -0xfa8(%rbp),%rax
    ba53:	48 89 45 a8          	mov    %rax,-0x58(%rbp)
    ba57:	48 8d 05 5a 3a 01 00 	lea    0x13a5a(%rip),%rax        # 1f4b8 <g_107>
    ba5e:	48 89 45 b0          	mov    %rax,-0x50(%rbp)
    ba62:	48 c7 45 b8 00 00 00 	movq   $0x0,-0x48(%rbp)
    ba69:	00 
    ba6a:	48 8d 05 47 3a 01 00 	lea    0x13a47(%rip),%rax        # 1f4b8 <g_107>
    ba71:	48 89 45 c0          	mov    %rax,-0x40(%rbp)
    ba75:	48 8d 05 b0 35 01 00 	lea    0x135b0(%rip),%rax        # 1f02c <g_4>
    ba7c:	48 89 45 c8          	mov    %rax,-0x38(%rbp)
    ba80:	8b 85 d8 f1 ff ff    	mov    -0xe28(%rbp),%eax
    ba86:	83 e8 01             	sub    $0x1,%eax
    ba89:	89 85 d8 f1 ff ff    	mov    %eax,-0xe28(%rbp)
    ba8f:	48 8b 05 d2 46 01 00 	mov    0x146d2(%rip),%rax        # 20168 <g_1655>
    ba96:	eb 3a                	jmp    bad2 <func_12+0x1e77>
    ba98:	8b 05 d2 43 01 00    	mov    0x143d2(%rip),%eax        # 1fe70 <g_481>
    ba9e:	83 c0 01             	add    $0x1,%eax
    baa1:	89 05 c9 43 01 00    	mov    %eax,0x143c9(%rip)        # 1fe70 <g_481>
    baa7:	8b 05 c3 43 01 00    	mov    0x143c3(%rip),%eax        # 1fe70 <g_481>
    baad:	83 f8 1e             	cmp    $0x1e,%eax
    bab0:	0f 86 37 e6 ff ff    	jbe    a0ed <func_12+0x492>
    bab6:	eb 01                	jmp    bab9 <func_12+0x1e5e>
    bab8:	90                   	nop
    bab9:	8b 85 64 f2 ff ff    	mov    -0xd9c(%rbp),%eax
    babf:	83 c0 01             	add    $0x1,%eax
    bac2:	89 85 64 f2 ff ff    	mov    %eax,-0xd9c(%rbp)
    bac8:	0f b6 85 8a f1 ff ff 	movzbl -0xe76(%rbp),%eax
    bacf:	0f b6 c0             	movzbl %al,%eax
    bad2:	48 8b 5d d8          	mov    -0x28(%rbp),%rbx
    bad6:	64 48 33 1c 25 28 00 	xor    %fs:0x28,%rbx
    badd:	00 00 
    badf:	74 05                	je     bae6 <func_12+0x1e8b>
    bae1:	e8 8a 95 ff ff       	callq  5070 <__stack_chk_fail@plt>
    bae6:	48 81 c4 a8 0f 00 00 	add    $0xfa8,%rsp
    baed:	5b                   	pop    %rbx
    baee:	41 5c                	pop    %r12
    baf0:	41 5d                	pop    %r13
    baf2:	5d                   	pop    %rbp
    baf3:	c3                   	retq   

000000000000baf4 <func_15>:
    baf4:	f3 0f 1e fa          	endbr64 
    baf8:	55                   	push   %rbp
    baf9:	48 89 e5             	mov    %rsp,%rbp
    bafc:	41 57                	push   %r15
    bafe:	41 56                	push   %r14
    bb00:	41 55                	push   %r13
    bb02:	41 54                	push   %r12
    bb04:	53                   	push   %rbx
    bb05:	48 83 ec 58          	sub    $0x58,%rsp
    bb09:	48 89 7d 98          	mov    %rdi,-0x68(%rbp)
    bb0d:	89 f1                	mov    %esi,%ecx
    bb0f:	89 d0                	mov    %edx,%eax
    bb11:	89 ca                	mov    %ecx,%edx
    bb13:	66 89 55 94          	mov    %dx,-0x6c(%rbp)
    bb17:	66 89 45 90          	mov    %ax,-0x70(%rbp)
    bb1b:	64 48 8b 04 25 28 00 	mov    %fs:0x28,%rax
    bb22:	00 00 
    bb24:	48 89 45 c8          	mov    %rax,-0x38(%rbp)
    bb28:	31 c0                	xor    %eax,%eax
    bb2a:	c7 45 a8 ce f7 13 f0 	movl   $0xf013f7ce,-0x58(%rbp)
    bb31:	48 c7 45 b0 00 00 00 	movq   $0x0,-0x50(%rbp)
    bb38:	00 
    bb39:	c7 45 ac 00 00 00 00 	movl   $0x0,-0x54(%rbp)
    bb40:	48 8d 05 99 44 01 00 	lea    0x14499(%rip),%rax        # 1ffe0 <g_1003>
    bb47:	48 89 45 b8          	mov    %rax,-0x48(%rbp)
    bb4b:	48 8d 45 a8          	lea    -0x58(%rbp),%rax
    bb4f:	48 89 45 c0          	mov    %rax,-0x40(%rbp)
    bb53:	48 8b 45 98          	mov    -0x68(%rbp),%rax
    bb57:	89 c2                	mov    %eax,%edx
    bb59:	8b 45 ac             	mov    -0x54(%rbp),%eax
    bb5c:	31 d0                	xor    %edx,%eax
    bb5e:	89 45 ac             	mov    %eax,-0x54(%rbp)
    bb61:	48 8b 05 f0 63 01 00 	mov    0x163f0(%rip),%rax        # 21f58 <g_1502>
    bb68:	8b 55 ac             	mov    -0x54(%rbp),%edx
    bb6b:	89 10                	mov    %edx,(%rax)
    bb6d:	48 8b 45 98          	mov    -0x68(%rbp),%rax
    bb71:	0f b6 d8             	movzbl %al,%ebx
    bb74:	48 8b 45 98          	mov    -0x68(%rbp),%rax
    bb78:	41 89 c7             	mov    %eax,%r15d
    bb7b:	48 8b 45 98          	mov    -0x68(%rbp),%rax
    bb7f:	0f be d0             	movsbl %al,%edx
    bb82:	0f b6 45 a8          	movzbl -0x58(%rbp),%eax
    bb86:	0f be c0             	movsbl %al,%eax
    bb89:	89 d6                	mov    %edx,%esi
    bb8b:	89 c7                	mov    %eax,%edi
    bb8d:	e8 42 96 ff ff       	callq  51d4 <safe_add_func_int8_t_s_s>
    bb92:	44 0f bf 6d 94       	movswl -0x6c(%rbp),%r13d
    bb97:	48 8b 05 22 39 01 00 	mov    0x13922(%rip),%rax        # 1f4c0 <g_140>
    bb9e:	44 0f bf e0          	movswl %ax,%r12d
    bba2:	48 83 7d b8 00       	cmpq   $0x0,-0x48(%rbp)
    bba7:	0f 94 c0             	sete   %al
    bbaa:	44 0f b6 f0          	movzbl %al,%r14d
    bbae:	48 8b 45 98          	mov    -0x68(%rbp),%rax
    bbb2:	89 45 8c             	mov    %eax,-0x74(%rbp)
    bbb5:	48 8b 45 98          	mov    -0x68(%rbp),%rax
    bbb9:	0f be d0             	movsbl %al,%edx
    bbbc:	48 0f bf 45 90       	movswq -0x70(%rbp),%rax
    bbc1:	48 39 45 98          	cmp    %rax,-0x68(%rbp)
    bbc5:	0f 93 c0             	setae  %al
    bbc8:	0f b6 c0             	movzbl %al,%eax
    bbcb:	89 d6                	mov    %edx,%esi
    bbcd:	89 c7                	mov    %eax,%edi
    bbcf:	e8 96 96 ff ff       	callq  526a <safe_div_func_int8_t_s_s>
    bbd4:	0f be c0             	movsbl %al,%eax
    bbd7:	8b 75 8c             	mov    -0x74(%rbp),%esi
    bbda:	89 c7                	mov    %eax,%edi
    bbdc:	e8 b1 98 ff ff       	callq  5492 <safe_lshift_func_int16_t_s_s>
    bbe1:	89 c2                	mov    %eax,%edx
    bbe3:	48 8b 45 98          	mov    -0x68(%rbp),%rax
    bbe7:	09 d0                	or     %edx,%eax
    bbe9:	0f b7 c0             	movzwl %ax,%eax
    bbec:	be eb e8 00 00       	mov    $0xe8eb,%esi
    bbf1:	89 c7                	mov    %eax,%edi
    bbf3:	e8 45 a1 ff ff       	callq  5d3d <safe_mul_func_uint16_t_u_u>
    bbf8:	66 85 c0             	test   %ax,%ax
    bbfb:	74 07                	je     bc04 <func_15+0x110>
    bbfd:	b8 01 00 00 00       	mov    $0x1,%eax
    bc02:	eb 05                	jmp    bc09 <func_15+0x115>
    bc04:	b8 00 00 00 00       	mov    $0x0,%eax
    bc09:	44 39 f0             	cmp    %r14d,%eax
    bc0c:	0f 9e c0             	setle  %al
    bc0f:	0f b6 c0             	movzbl %al,%eax
    bc12:	44 89 e6             	mov    %r12d,%esi
    bc15:	89 c7                	mov    %eax,%edi
    bc17:	e8 97 97 ff ff       	callq  53b3 <safe_add_func_int16_t_s_s>
    bc1c:	66 83 f8 f9          	cmp    $0xfff9,%ax
    bc20:	0f 97 c0             	seta   %al
    bc23:	0f b6 d0             	movzbl %al,%edx
    bc26:	8b 05 b8 43 01 00    	mov    0x143b8(%rip),%eax        # 1ffe4 <g_1003+0x4>
    bc2c:	09 d0                	or     %edx,%eax
    bc2e:	83 c8 01             	or     $0x1,%eax
    bc31:	89 c2                	mov    %eax,%edx
    bc33:	48 0f bf 45 94       	movswq -0x6c(%rbp),%rax
    bc38:	48 39 c2             	cmp    %rax,%rdx
    bc3b:	0f 9c c0             	setl   %al
    bc3e:	0f b6 d0             	movzbl %al,%edx
    bc41:	0f bf 45 90          	movswl -0x70(%rbp),%eax
    bc45:	39 c2                	cmp    %eax,%edx
    bc47:	0f 9c c0             	setl   %al
    bc4a:	0f b6 c0             	movzbl %al,%eax
    bc4d:	41 39 c5             	cmp    %eax,%r13d
    bc50:	0f 9c c0             	setl   %al
    bc53:	0f b6 c0             	movzbl %al,%eax
    bc56:	44 89 fe             	mov    %r15d,%esi
    bc59:	89 c7                	mov    %eax,%edi
    bc5b:	e8 a6 a1 ff ff       	callq  5e06 <safe_lshift_func_uint16_t_u_u>
    bc60:	89 c2                	mov    %eax,%edx
    bc62:	48 8b 45 c0          	mov    -0x40(%rbp),%rax
    bc66:	88 10                	mov    %dl,(%rax)
    bc68:	48 8b 45 c0          	mov    -0x40(%rbp),%rax
    bc6c:	0f b6 00             	movzbl (%rax),%eax
    bc6f:	0f b6 c0             	movzbl %al,%eax
    bc72:	89 de                	mov    %ebx,%esi
    bc74:	89 c7                	mov    %eax,%edi
    bc76:	e8 fd 9e ff ff       	callq  5b78 <safe_sub_func_uint8_t_u_u>
    bc7b:	89 c2                	mov    %eax,%edx
    bc7d:	48 8b 05 84 5c 01 00 	mov    0x15c84(%rip),%rax        # 21908 <g_1206>
    bc84:	0f b6 08             	movzbl (%rax),%ecx
    bc87:	48 8b 05 7a 5c 01 00 	mov    0x15c7a(%rip),%rax        # 21908 <g_1206>
    bc8e:	31 ca                	xor    %ecx,%edx
    bc90:	88 10                	mov    %dl,(%rax)
    bc92:	b8 01 00 00 00       	mov    $0x1,%eax
    bc97:	21 45 ac             	and    %eax,-0x54(%rbp)
    bc9a:	48 8b 05 df 58 01 00 	mov    0x158df(%rip),%rax        # 21580 <g_376>
    bca1:	48 8b 00             	mov    (%rax),%rax
    bca4:	0f b6 00             	movzbl (%rax),%eax
    bca7:	48 8b 5d c8          	mov    -0x38(%rbp),%rbx
    bcab:	64 48 33 1c 25 28 00 	xor    %fs:0x28,%rbx
    bcb2:	00 00 
    bcb4:	74 05                	je     bcbb <func_15+0x1c7>
    bcb6:	e8 b5 93 ff ff       	callq  5070 <__stack_chk_fail@plt>
    bcbb:	48 83 c4 58          	add    $0x58,%rsp
    bcbf:	5b                   	pop    %rbx
    bcc0:	41 5c                	pop    %r12
    bcc2:	41 5d                	pop    %r13
    bcc4:	41 5e                	pop    %r14
    bcc6:	41 5f                	pop    %r15
    bcc8:	5d                   	pop    %rbp
    bcc9:	c3                   	retq   

000000000000bcca <func_21>:
    bcca:	f3 0f 1e fa          	endbr64 
    bcce:	55                   	push   %rbp
    bccf:	48 89 e5             	mov    %rsp,%rbp
    bcd2:	53                   	push   %rbx
    bcd3:	48 81 ec 00 10 00 00 	sub    $0x1000,%rsp
    bcda:	48 83 0c 24 00       	orq    $0x0,(%rsp)
    bcdf:	48 81 ec 28 03 00 00 	sub    $0x328,%rsp
    bce6:	48 89 b5 e0 ec ff ff 	mov    %rsi,-0x1320(%rbp)
    bced:	89 95 e8 ec ff ff    	mov    %edx,-0x1318(%rbp)
    bcf3:	89 c8                	mov    %ecx,%eax
    bcf5:	4c 89 85 d0 ec ff ff 	mov    %r8,-0x1330(%rbp)
    bcfc:	89 fa                	mov    %edi,%edx
    bcfe:	88 95 ec ec ff ff    	mov    %dl,-0x1314(%rbp)
    bd04:	88 85 dc ec ff ff    	mov    %al,-0x1324(%rbp)
    bd0a:	64 48 8b 04 25 28 00 	mov    %fs:0x28,%rax
    bd11:	00 00 
    bd13:	48 89 45 e8          	mov    %rax,-0x18(%rbp)
    bd17:	31 c0                	xor    %eax,%eax
    bd19:	48 8d 05 98 37 01 00 	lea    0x13798(%rip),%rax        # 1f4b8 <g_107>
    bd20:	48 89 85 68 ed ff ff 	mov    %rax,-0x1298(%rbp)
    bd27:	c7 85 08 ed ff ff ff 	movl   $0xffffffff,-0x12f8(%rbp)
    bd2e:	ff ff ff 
    bd31:	48 c7 85 30 ed ff ff 	movq   $0x0,-0x12d0(%rbp)
    bd38:	00 00 00 00 
    bd3c:	48 8d 85 b0 f2 ff ff 	lea    -0xd50(%rbp),%rax
    bd43:	48 8d 15 96 4e 01 00 	lea    0x14e96(%rip),%rdx        # 20be0 <g_2115+0x7e0>
    bd4a:	b9 b4 00 00 00       	mov    $0xb4,%ecx
    bd4f:	48 89 c7             	mov    %rax,%rdi
    bd52:	48 89 d6             	mov    %rdx,%rsi
    bd55:	f3 48 a5             	rep movsq %ds:(%rsi),%es:(%rdi)
    bd58:	48 8d 85 b0 f2 ff ff 	lea    -0xd50(%rbp),%rax
    bd5f:	48 05 00 02 00 00    	add    $0x200,%rax
    bd65:	48 89 85 38 ed ff ff 	mov    %rax,-0x12c8(%rbp)
    bd6c:	48 8d 05 ed 41 01 00 	lea    0x141ed(%rip),%rax        # 1ff60 <g_779>
    bd73:	48 89 85 70 ed ff ff 	mov    %rax,-0x1290(%rbp)
    bd7a:	48 c7 85 78 ed ff ff 	movq   $0x0,-0x1288(%rbp)
    bd81:	00 00 00 00 
    bd85:	48 c7 85 80 ed ff ff 	movq   $0x0,-0x1280(%rbp)
    bd8c:	00 00 00 00 
    bd90:	48 c7 85 88 ed ff ff 	movq   $0x0,-0x1278(%rbp)
    bd97:	00 00 00 00 
    bd9b:	c6 85 fc ec ff ff 81 	movb   $0x81,-0x1304(%rbp)
    bda2:	48 8d 05 e7 66 01 00 	lea    0x166e7(%rip),%rax        # 22490 <g_451>
    bda9:	48 89 85 90 ed ff ff 	mov    %rax,-0x1270(%rbp)
    bdb0:	48 c7 85 98 ed ff ff 	movq   $0x0,-0x1268(%rbp)
    bdb7:	00 00 00 00 
    bdbb:	c7 85 0c ed ff ff 11 	movl   $0x7a32a611,-0x12f4(%rbp)
    bdc2:	a6 32 7a 
    bdc5:	c6 85 fd ec ff ff 4b 	movb   $0x4b,-0x1303(%rbp)
    bdcc:	48 8d 85 38 ed ff ff 	lea    -0x12c8(%rbp),%rax
    bdd3:	48 89 85 a0 ed ff ff 	mov    %rax,-0x1260(%rbp)
    bdda:	c6 85 fe ec ff ff 2e 	movb   $0x2e,-0x1302(%rbp)
    bde1:	48 8d 05 30 5b 01 00 	lea    0x15b30(%rip),%rax        # 21918 <g_1313>
    bde8:	48 89 85 40 ed ff ff 	mov    %rax,-0x12c0(%rbp)
    bdef:	48 8d 85 40 ed ff ff 	lea    -0x12c0(%rbp),%rax
    bdf6:	48 89 85 a8 ed ff ff 	mov    %rax,-0x1258(%rbp)
    bdfd:	48 c7 85 b0 ed ff ff 	movq   $0x0,-0x1250(%rbp)
    be04:	00 00 00 00 
    be08:	48 8d 85 ec ee ff ff 	lea    -0x1114(%rbp),%rax
    be0f:	48 89 85 b8 ed ff ff 	mov    %rax,-0x1248(%rbp)
    be16:	48 c7 85 c0 ed ff ff 	movq   $0x0,-0x1240(%rbp)
    be1d:	00 00 00 00 
    be21:	48 8d 05 90 36 01 00 	lea    0x13690(%rip),%rax        # 1f4b8 <g_107>
    be28:	48 89 85 c8 ed ff ff 	mov    %rax,-0x1238(%rbp)
    be2f:	48 8d 85 0c ed ff ff 	lea    -0x12f4(%rbp),%rax
    be36:	48 89 85 d0 ed ff ff 	mov    %rax,-0x1230(%rbp)
    be3d:	48 c7 85 d8 ed ff ff 	movq   $0x0,-0x1228(%rbp)
    be44:	00 00 00 00 
    be48:	48 8d 85 ec ee ff ff 	lea    -0x1114(%rbp),%rax
    be4f:	48 83 c0 04          	add    $0x4,%rax
    be53:	48 89 85 e0 ed ff ff 	mov    %rax,-0x1220(%rbp)
    be5a:	48 c7 85 e8 ed ff ff 	movq   $0x0,-0x1218(%rbp)
    be61:	00 00 00 00 
    be65:	48 c7 85 f0 ed ff ff 	movq   $0x0,-0x1210(%rbp)
    be6c:	00 00 00 00 
    be70:	48 8d 85 ec ee ff ff 	lea    -0x1114(%rbp),%rax
    be77:	48 83 c0 04          	add    $0x4,%rax
    be7b:	48 89 85 f8 ed ff ff 	mov    %rax,-0x1208(%rbp)
    be82:	48 c7 85 00 ee ff ff 	movq   $0x0,-0x1200(%rbp)
    be89:	00 00 00 00 
    be8d:	48 8d 05 24 36 01 00 	lea    0x13624(%rip),%rax        # 1f4b8 <g_107>
    be94:	48 89 85 70 ef ff ff 	mov    %rax,-0x1090(%rbp)
    be9b:	48 8d 05 16 36 01 00 	lea    0x13616(%rip),%rax        # 1f4b8 <g_107>
    bea2:	48 89 85 78 ef ff ff 	mov    %rax,-0x1088(%rbp)
    bea9:	48 8d 05 08 36 01 00 	lea    0x13608(%rip),%rax        # 1f4b8 <g_107>
    beb0:	48 89 85 80 ef ff ff 	mov    %rax,-0x1080(%rbp)
    beb7:	48 8d 05 fa 35 01 00 	lea    0x135fa(%rip),%rax        # 1f4b8 <g_107>
    bebe:	48 89 85 88 ef ff ff 	mov    %rax,-0x1078(%rbp)
    bec5:	48 8d 05 ec 35 01 00 	lea    0x135ec(%rip),%rax        # 1f4b8 <g_107>
    becc:	48 89 85 90 ef ff ff 	mov    %rax,-0x1070(%rbp)
    bed3:	48 8d 05 de 35 01 00 	lea    0x135de(%rip),%rax        # 1f4b8 <g_107>
    beda:	48 89 85 98 ef ff ff 	mov    %rax,-0x1068(%rbp)
    bee1:	48 8d 05 d0 35 01 00 	lea    0x135d0(%rip),%rax        # 1f4b8 <g_107>
    bee8:	48 89 85 a0 ef ff ff 	mov    %rax,-0x1060(%rbp)
    beef:	48 8d 05 c2 35 01 00 	lea    0x135c2(%rip),%rax        # 1f4b8 <g_107>
    bef6:	48 89 85 a8 ef ff ff 	mov    %rax,-0x1058(%rbp)
    befd:	48 8d 05 b4 35 01 00 	lea    0x135b4(%rip),%rax        # 1f4b8 <g_107>
    bf04:	48 89 85 b0 ef ff ff 	mov    %rax,-0x1050(%rbp)
    bf0b:	48 8d 05 a6 35 01 00 	lea    0x135a6(%rip),%rax        # 1f4b8 <g_107>
    bf12:	48 89 85 b8 ef ff ff 	mov    %rax,-0x1048(%rbp)
    bf19:	48 8d 05 98 35 01 00 	lea    0x13598(%rip),%rax        # 1f4b8 <g_107>
    bf20:	48 89 85 c0 ef ff ff 	mov    %rax,-0x1040(%rbp)
    bf27:	48 8d 05 8a 35 01 00 	lea    0x1358a(%rip),%rax        # 1f4b8 <g_107>
    bf2e:	48 89 85 c8 ef ff ff 	mov    %rax,-0x1038(%rbp)
    bf35:	c6 85 ff ec ff ff 00 	movb   $0x0,-0x1301(%rbp)
    bf3c:	c6 85 00 ed ff ff 01 	movb   $0x1,-0x1300(%rbp)
    bf43:	c7 85 10 ed ff ff 00 	movl   $0x0,-0x12f0(%rbp)
    bf4a:	00 00 00 
    bf4d:	eb 1a                	jmp    bf69 <func_21+0x29f>
    bf4f:	8b 85 10 ed ff ff    	mov    -0x12f0(%rbp),%eax
    bf55:	48 98                	cltq   
    bf57:	c7 84 85 ec ee ff ff 	movl   $0x5,-0x1114(%rbp,%rax,4)
    bf5e:	05 00 00 00 
    bf62:	83 85 10 ed ff ff 01 	addl   $0x1,-0x12f0(%rbp)
    bf69:	83 bd 10 ed ff ff 01 	cmpl   $0x1,-0x12f0(%rbp)
    bf70:	7e dd                	jle    bf4f <func_21+0x285>
    bf72:	c7 85 10 ed ff ff 00 	movl   $0x0,-0x12f0(%rbp)
    bf79:	00 00 00 
    bf7c:	eb 1a                	jmp    bf98 <func_21+0x2ce>
    bf7e:	8b 85 10 ed ff ff    	mov    -0x12f0(%rbp),%eax
    bf84:	48 98                	cltq   
    bf86:	c7 84 85 00 ef ff ff 	movl   $0xffffffff,-0x1100(%rbp,%rax,4)
    bf8d:	ff ff ff ff 
    bf91:	83 85 10 ed ff ff 01 	addl   $0x1,-0x12f0(%rbp)
    bf98:	83 bd 10 ed ff ff 04 	cmpl   $0x4,-0x12f0(%rbp)
    bf9f:	7e dd                	jle    bf7e <func_21+0x2b4>
    bfa1:	66 c7 05 ea 3d 01 00 	movw   $0xffff,0x13dea(%rip)        # 1fd94 <g_160>
    bfa8:	ff ff 
    bfaa:	e9 0a 01 00 00       	jmpq   c0b9 <func_21+0x3ef>
    bfaf:	48 8d 05 02 35 01 00 	lea    0x13502(%rip),%rax        # 1f4b8 <g_107>
    bfb6:	48 89 85 b0 ee ff ff 	mov    %rax,-0x1150(%rbp)
    bfbd:	48 c7 85 b8 ee ff ff 	movq   $0x0,-0x1148(%rbp)
    bfc4:	00 00 00 00 
    bfc8:	48 c7 85 c0 ee ff ff 	movq   $0x0,-0x1140(%rbp)
    bfcf:	00 00 00 00 
    bfd3:	48 c7 85 c8 ee ff ff 	movq   $0x0,-0x1138(%rbp)
    bfda:	00 00 00 00 
    bfde:	48 8d 05 d3 34 01 00 	lea    0x134d3(%rip),%rax        # 1f4b8 <g_107>
    bfe5:	48 89 85 d0 ee ff ff 	mov    %rax,-0x1130(%rbp)
    bfec:	c7 85 2c ed ff ff 04 	movl   $0x4,-0x12d4(%rbp)
    bff3:	00 00 00 
    bff6:	48 8d 85 ec ee ff ff 	lea    -0x1114(%rbp),%rax
    bffd:	48 83 c0 04          	add    $0x4,%rax
    c001:	48 89 85 d8 ee ff ff 	mov    %rax,-0x1128(%rbp)
    c008:	48 8d 05 1d 30 01 00 	lea    0x1301d(%rip),%rax        # 1f02c <g_4>
    c00f:	48 89 85 70 f0 ff ff 	mov    %rax,-0xf90(%rbp)
    c016:	48 8d 05 0f 30 01 00 	lea    0x1300f(%rip),%rax        # 1f02c <g_4>
    c01d:	48 89 85 78 f0 ff ff 	mov    %rax,-0xf88(%rbp)
    c024:	48 8d 05 01 30 01 00 	lea    0x13001(%rip),%rax        # 1f02c <g_4>
    c02b:	48 89 85 80 f0 ff ff 	mov    %rax,-0xf80(%rbp)
    c032:	48 8d 05 f3 2f 01 00 	lea    0x12ff3(%rip),%rax        # 1f02c <g_4>
    c039:	48 89 85 88 f0 ff ff 	mov    %rax,-0xf78(%rbp)
    c040:	48 8d 95 50 f8 ff ff 	lea    -0x7b0(%rbp),%rdx
    c047:	b8 00 00 00 00       	mov    $0x0,%eax
    c04c:	b9 10 00 00 00       	mov    $0x10,%ecx
    c051:	48 89 d7             	mov    %rdx,%rdi
    c054:	f3 48 ab             	rep stos %rax,%es:(%rdi)
    c057:	48 8d 05 f2 63 01 00 	lea    0x163f2(%rip),%rax        # 22450 <g_256>
    c05e:	48 89 85 e0 ee ff ff 	mov    %rax,-0x1120(%rbp)
    c065:	48 8b 05 2c 57 01 00 	mov    0x1572c(%rip),%rax        # 21798 <g_967>
    c06c:	48 8b 95 68 ed ff ff 	mov    -0x1298(%rbp),%rdx
    c073:	48 89 10             	mov    %rdx,(%rax)
    c076:	48 8b 85 90 f8 ff ff 	mov    -0x770(%rbp),%rax
    c07d:	48 83 e8 01          	sub    $0x1,%rax
    c081:	48 89 85 90 f8 ff ff 	mov    %rax,-0x770(%rbp)
    c088:	48 8b 05 f1 56 01 00 	mov    0x156f1(%rip),%rax        # 21780 <g_862>
    c08f:	48 8b 10             	mov    (%rax),%rdx
    c092:	48 8b 85 e0 ee ff ff 	mov    -0x1120(%rbp),%rax
    c099:	48 89 10             	mov    %rdx,(%rax)
    c09c:	0f b7 05 f1 3c 01 00 	movzwl 0x13cf1(%rip),%eax        # 1fd94 <g_160>
    c0a3:	0f b7 c0             	movzwl %ax,%eax
    c0a6:	be 07 00 00 00       	mov    $0x7,%esi
    c0ab:	89 c7                	mov    %eax,%edi
    c0ad:	e8 6d 9c ff ff       	callq  5d1f <safe_sub_func_uint16_t_u_u>
    c0b2:	66 89 05 db 3c 01 00 	mov    %ax,0x13cdb(%rip)        # 1fd94 <g_160>
    c0b9:	0f b7 05 d4 3c 01 00 	movzwl 0x13cd4(%rip),%eax        # 1fd94 <g_160>
    c0c0:	66 83 f8 f7          	cmp    $0xfff7,%ax
    c0c4:	0f 8c e5 fe ff ff    	jl     bfaf <func_21+0x2e5>
    c0ca:	48 c7 05 eb 3b 01 00 	movq   $0x3,0x13beb(%rip)        # 1fcc0 <g_152>
    c0d1:	03 00 00 00 
    c0d5:	e9 93 02 00 00       	jmpq   c36d <func_21+0x6a3>
    c0da:	48 c7 85 38 ee ff ff 	movq   $0xffffffffffffffff,-0x11c8(%rbp)
    c0e1:	ff ff ff ff 
    c0e5:	c7 85 20 ed ff ff ff 	movl   $0xffffffff,-0x12e0(%rbp)
    c0ec:	ff ff ff 
    c0ef:	c6 85 02 ed ff ff ff 	movb   $0xff,-0x12fe(%rbp)
    c0f6:	48 8d 05 fd 3c 01 00 	lea    0x13cfd(%rip),%rax        # 1fdfa <g_236+0x5a>
    c0fd:	48 89 85 48 ed ff ff 	mov    %rax,-0x12b8(%rbp)
    c104:	48 8d 85 48 ed ff ff 	lea    -0x12b8(%rbp),%rax
    c10b:	48 89 85 40 ee ff ff 	mov    %rax,-0x11c0(%rbp)
    c112:	48 8d 05 57 54 01 00 	lea    0x15457(%rip),%rax        # 21570 <g_260>
    c119:	48 89 85 50 ed ff ff 	mov    %rax,-0x12b0(%rbp)
    c120:	48 8d 85 50 ed ff ff 	lea    -0x12b0(%rbp),%rax
    c127:	48 89 85 48 ee ff ff 	mov    %rax,-0x11b8(%rbp)
    c12e:	48 b8 bb 68 05 76 fd 	movabs $0x66277cfd760568bb,%rax
    c135:	7c 27 66 
    c138:	48 89 85 50 ee ff ff 	mov    %rax,-0x11b0(%rbp)
    c13f:	48 8d 05 fa 3c 01 00 	lea    0x13cfa(%rip),%rax        # 1fe40 <g_277>
    c146:	48 89 85 58 ee ff ff 	mov    %rax,-0x11a8(%rbp)
    c14d:	48 8d 85 38 ed ff ff 	lea    -0x12c8(%rbp),%rax
    c154:	48 89 85 60 ee ff ff 	mov    %rax,-0x11a0(%rbp)
    c15b:	48 c7 85 68 ee ff ff 	movq   $0x0,-0x1198(%rbp)
    c162:	00 00 00 00 
    c166:	c7 85 14 ed ff ff 00 	movl   $0x0,-0x12ec(%rbp)
    c16d:	00 00 00 
    c170:	eb 1a                	jmp    c18c <func_21+0x4c2>
    c172:	8b 85 14 ed ff ff    	mov    -0x12ec(%rbp),%eax
    c178:	48 98                	cltq   
    c17a:	c7 84 85 f4 ee ff ff 	movl   $0x3,-0x110c(%rbp,%rax,4)
    c181:	03 00 00 00 
    c185:	83 85 14 ed ff ff 01 	addl   $0x1,-0x12ec(%rbp)
    c18c:	83 bd 14 ed ff ff 02 	cmpl   $0x2,-0x12ec(%rbp)
    c193:	7e dd                	jle    c172 <func_21+0x4a8>
    c195:	48 c7 85 e0 ec ff ff 	movq   $0x3,-0x1320(%rbp)
    c19c:	03 00 00 00 
    c1a0:	e9 a8 01 00 00       	jmpq   c34d <func_21+0x683>
    c1a5:	48 c7 85 70 ee ff ff 	movq   $0x0,-0x1190(%rbp)
    c1ac:	00 00 00 00 
    c1b0:	48 8d 05 25 3e 01 00 	lea    0x13e25(%rip),%rax        # 1ffdc <g_962>
    c1b7:	48 89 85 78 ee ff ff 	mov    %rax,-0x1188(%rbp)
    c1be:	48 c7 85 80 ee ff ff 	movq   $0x0,-0x1180(%rbp)
    c1c5:	00 00 00 00 
    c1c9:	c7 85 24 ed ff ff 26 	movl   $0x7338e426,-0x12dc(%rbp)
    c1d0:	e4 38 73 
    c1d3:	48 8d 05 e6 62 01 00 	lea    0x162e6(%rip),%rax        # 224c0 <g_868>
    c1da:	48 89 85 58 ed ff ff 	mov    %rax,-0x12a8(%rbp)
    c1e1:	48 8d 85 58 ed ff ff 	lea    -0x12a8(%rbp),%rax
    c1e8:	48 89 85 88 ee ff ff 	mov    %rax,-0x1178(%rbp)
    c1ef:	48 8d 05 9a 62 01 00 	lea    0x1629a(%rip),%rax        # 22490 <g_451>
    c1f6:	48 89 85 90 ee ff ff 	mov    %rax,-0x1170(%rbp)
    c1fd:	48 8d 05 5c 3d 01 00 	lea    0x13d5c(%rip),%rax        # 1ff60 <g_779>
    c204:	48 89 85 98 ee ff ff 	mov    %rax,-0x1168(%rbp)
    c20b:	48 8d 85 50 f8 ff ff 	lea    -0x7b0(%rbp),%rax
    c212:	48 8d 15 a7 dd 00 00 	lea    0xdda7(%rip),%rdx        # 19fc0 <g_2129+0xb00>
    c219:	b9 f3 00 00 00       	mov    $0xf3,%ecx
    c21e:	48 89 c7             	mov    %rax,%rdi
    c221:	48 89 d6             	mov    %rdx,%rsi
    c224:	f3 48 a5             	rep movsq %ds:(%rsi),%es:(%rdi)
    c227:	48 8d 05 c0 3d 01 00 	lea    0x13dc0(%rip),%rax        # 1ffee <g_1003+0xe>
    c22e:	48 89 85 60 ed ff ff 	mov    %rax,-0x12a0(%rbp)
    c235:	48 8d 85 60 ed ff ff 	lea    -0x12a0(%rbp),%rax
    c23c:	48 89 85 a0 ee ff ff 	mov    %rax,-0x1160(%rbp)
    c243:	c7 85 d0 ef ff ff 03 	movl   $0x3,-0x1030(%rbp)
    c24a:	00 00 00 
    c24d:	c7 85 d4 ef ff ff 03 	movl   $0x3,-0x102c(%rbp)
    c254:	00 00 00 
    c257:	c7 85 d8 ef ff ff 03 	movl   $0x3,-0x1028(%rbp)
    c25e:	00 00 00 
    c261:	c7 85 dc ef ff ff 03 	movl   $0x3,-0x1024(%rbp)
    c268:	00 00 00 
    c26b:	c7 85 e0 ef ff ff 03 	movl   $0x3,-0x1020(%rbp)
    c272:	00 00 00 
    c275:	c7 85 e4 ef ff ff 03 	movl   $0x3,-0x101c(%rbp)
    c27c:	00 00 00 
    c27f:	c7 85 e8 ef ff ff 03 	movl   $0x3,-0x1018(%rbp)
    c286:	00 00 00 
    c289:	c7 85 ec ef ff ff 03 	movl   $0x3,-0x1014(%rbp)
    c290:	00 00 00 
    c293:	c6 85 03 ed ff ff fa 	movb   $0xfa,-0x12fd(%rbp)
    c29a:	48 b8 b7 8c 83 ee 2e 	movabs $0x248e392eee838cb7,%rax
    c2a1:	39 8e 24 
    c2a4:	48 89 85 a8 ee ff ff 	mov    %rax,-0x1158(%rbp)
    c2ab:	48 8d 85 70 f0 ff ff 	lea    -0xf90(%rbp),%rax
    c2b2:	48 8d 15 a7 e4 00 00 	lea    0xe4a7(%rip),%rdx        # 1a760 <g_2129+0x12a0>
    c2b9:	b9 48 00 00 00       	mov    $0x48,%ecx
    c2be:	48 89 c7             	mov    %rax,%rdi
    c2c1:	48 89 d6             	mov    %rdx,%rsi
    c2c4:	f3 48 a5             	rep movsq %ds:(%rsi),%es:(%rdi)
    c2c7:	66 c7 85 04 ed ff ff 	movw   $0x4bc9,-0x12fc(%rbp)
    c2ce:	c9 4b 
    c2d0:	66 c7 85 20 ef ff ff 	movw   $0x5,-0x10e0(%rbp)
    c2d7:	05 00 
    c2d9:	66 c7 85 22 ef ff ff 	movw   $0x5,-0x10de(%rbp)
    c2e0:	05 00 
    c2e2:	66 c7 85 24 ef ff ff 	movw   $0x5,-0x10dc(%rbp)
    c2e9:	05 00 
    c2eb:	66 c7 85 26 ef ff ff 	movw   $0x5,-0x10da(%rbp)
    c2f2:	05 00 
    c2f4:	66 c7 85 28 ef ff ff 	movw   $0x5,-0x10d8(%rbp)
    c2fb:	05 00 
    c2fd:	66 c7 85 2a ef ff ff 	movw   $0x5,-0x10d6(%rbp)
    c304:	05 00 
    c306:	66 c7 85 2c ef ff ff 	movw   $0x5,-0x10d4(%rbp)
    c30d:	05 00 
    c30f:	66 c7 85 2e ef ff ff 	movw   $0x5,-0x10d2(%rbp)
    c316:	05 00 
    c318:	66 c7 85 30 ef ff ff 	movw   $0x5,-0x10d0(%rbp)
    c31f:	05 00 
    c321:	c7 85 28 ed ff ff 32 	movl   $0x18cd932,-0x12d8(%rbp)
    c328:	d9 8c 01 
    c32b:	66 c7 85 06 ed ff ff 	movw   $0xfb59,-0x12fa(%rbp)
    c332:	59 fb 
    c334:	48 8b 05 65 54 01 00 	mov    0x15465(%rip),%rax        # 217a0 <g_982>
    c33b:	48 8b 95 70 ee ff ff 	mov    -0x1190(%rbp),%rdx
    c342:	48 89 10             	mov    %rdx,(%rax)
    c345:	48 83 ad e0 ec ff ff 	subq   $0x1,-0x1320(%rbp)
    c34c:	01 
    c34d:	48 83 bd e0 ec ff ff 	cmpq   $0x0,-0x1320(%rbp)
    c354:	00 
    c355:	0f 89 4a fe ff ff    	jns    c1a5 <func_21+0x4db>
    c35b:	48 8b 05 5e 39 01 00 	mov    0x1395e(%rip),%rax        # 1fcc0 <g_152>
    c362:	48 83 e8 01          	sub    $0x1,%rax
    c366:	48 89 05 53 39 01 00 	mov    %rax,0x13953(%rip)        # 1fcc0 <g_152>
    c36d:	48 8b 05 4c 39 01 00 	mov    0x1394c(%rip),%rax        # 1fcc0 <g_152>
    c374:	48 85 c0             	test   %rax,%rax
    c377:	0f 89 5d fd ff ff    	jns    c0da <func_21+0x410>
    c37d:	c6 85 ec ec ff ff 00 	movb   $0x0,-0x1314(%rbp)
    c384:	e9 46 07 00 00       	jmpq   cacf <func_21+0xe05>
    c389:	c6 85 01 ed ff ff 80 	movb   $0x80,-0x12ff(%rbp)
    c390:	48 8d 85 0c ed ff ff 	lea    -0x12f4(%rbp),%rax
    c397:	48 89 85 08 ee ff ff 	mov    %rax,-0x11f8(%rbp)
    c39e:	48 c7 05 b7 3a 01 00 	movq   $0xffffffffffffffe7,0x13ab7(%rip)        # 1fe60 <g_335>
    c3a5:	e7 ff ff ff 
    c3a9:	e9 ef 06 00 00       	jmpq   ca9d <func_21+0xdd3>
    c3ae:	48 8d 05 c7 39 01 00 	lea    0x139c7(%rip),%rax        # 1fd7c <g_155+0x9c>
    c3b5:	48 89 85 10 ee ff ff 	mov    %rax,-0x11f0(%rbp)
    c3bc:	48 c7 85 18 ee ff ff 	movq   $0x0,-0x11e8(%rbp)
    c3c3:	00 00 00 00 
    c3c7:	c7 85 18 ed ff ff db 	movl   $0x68a009db,-0x12e8(%rbp)
    c3ce:	09 a0 68 
    c3d1:	0f b6 85 e8 ec ff ff 	movzbl -0x1318(%rbp),%eax
    c3d8:	84 c0                	test   %al,%al
    c3da:	74 50                	je     c42c <func_21+0x762>
    c3dc:	48 8b 05 2d 3d 01 00 	mov    0x13d2d(%rip),%rax        # 20110 <g_1438>
    c3e3:	48 8b 15 2e 3d 01 00 	mov    0x13d2e(%rip),%rdx        # 20118 <g_1438+0x8>
    c3ea:	48 89 05 3f 3d 01 00 	mov    %rax,0x13d3f(%rip)        # 20130 <g_1439>
    c3f1:	48 89 15 40 3d 01 00 	mov    %rdx,0x13d40(%rip)        # 20138 <g_1439+0x8>
    c3f8:	48 8b 05 21 3d 01 00 	mov    0x13d21(%rip),%rax        # 20120 <g_1438+0x10>
    c3ff:	48 89 05 3a 3d 01 00 	mov    %rax,0x13d3a(%rip)        # 20140 <g_1439+0x10>
    c406:	8b 05 1c 3d 01 00    	mov    0x13d1c(%rip),%eax        # 20128 <g_1438+0x18>
    c40c:	89 05 36 3d 01 00    	mov    %eax,0x13d36(%rip)        # 20148 <g_1439+0x18>
    c412:	48 8b 05 8f 55 01 00 	mov    0x1558f(%rip),%rax        # 219a8 <g_1440>
    c419:	48 8d 95 ec ee ff ff 	lea    -0x1114(%rbp),%rdx
    c420:	48 83 c2 04          	add    $0x4,%rdx
    c424:	48 89 10             	mov    %rdx,(%rax)
    c427:	e9 51 06 00 00       	jmpq   ca7d <func_21+0xdb3>
    c42c:	48 8d 85 30 ed ff ff 	lea    -0x12d0(%rbp),%rax
    c433:	48 89 85 70 f0 ff ff 	mov    %rax,-0xf90(%rbp)
    c43a:	48 8d 85 30 ed ff ff 	lea    -0x12d0(%rbp),%rax
    c441:	48 89 85 78 f0 ff ff 	mov    %rax,-0xf88(%rbp)
    c448:	48 8d 85 30 ed ff ff 	lea    -0x12d0(%rbp),%rax
    c44f:	48 89 85 80 f0 ff ff 	mov    %rax,-0xf80(%rbp)
    c456:	48 8d 85 30 ed ff ff 	lea    -0x12d0(%rbp),%rax
    c45d:	48 89 85 88 f0 ff ff 	mov    %rax,-0xf78(%rbp)
    c464:	48 8d 85 30 ed ff ff 	lea    -0x12d0(%rbp),%rax
    c46b:	48 89 85 90 f0 ff ff 	mov    %rax,-0xf70(%rbp)
    c472:	48 8d 85 30 ed ff ff 	lea    -0x12d0(%rbp),%rax
    c479:	48 89 85 98 f0 ff ff 	mov    %rax,-0xf68(%rbp)
    c480:	48 8d 85 30 ed ff ff 	lea    -0x12d0(%rbp),%rax
    c487:	48 89 85 a0 f0 ff ff 	mov    %rax,-0xf60(%rbp)
    c48e:	48 8d 85 30 ed ff ff 	lea    -0x12d0(%rbp),%rax
    c495:	48 89 85 a8 f0 ff ff 	mov    %rax,-0xf58(%rbp)
    c49c:	48 8d 85 30 ed ff ff 	lea    -0x12d0(%rbp),%rax
    c4a3:	48 89 85 b0 f0 ff ff 	mov    %rax,-0xf50(%rbp)
    c4aa:	48 8d 85 30 ed ff ff 	lea    -0x12d0(%rbp),%rax
    c4b1:	48 89 85 b8 f0 ff ff 	mov    %rax,-0xf48(%rbp)
    c4b8:	48 8d 85 30 ed ff ff 	lea    -0x12d0(%rbp),%rax
    c4bf:	48 89 85 c0 f0 ff ff 	mov    %rax,-0xf40(%rbp)
    c4c6:	48 8d 85 30 ed ff ff 	lea    -0x12d0(%rbp),%rax
    c4cd:	48 89 85 c8 f0 ff ff 	mov    %rax,-0xf38(%rbp)
    c4d4:	48 8d 85 30 ed ff ff 	lea    -0x12d0(%rbp),%rax
    c4db:	48 89 85 d0 f0 ff ff 	mov    %rax,-0xf30(%rbp)
    c4e2:	48 8d 85 30 ed ff ff 	lea    -0x12d0(%rbp),%rax
    c4e9:	48 89 85 d8 f0 ff ff 	mov    %rax,-0xf28(%rbp)
    c4f0:	48 8d 85 30 ed ff ff 	lea    -0x12d0(%rbp),%rax
    c4f7:	48 89 85 e0 f0 ff ff 	mov    %rax,-0xf20(%rbp)
    c4fe:	48 8d 85 30 ed ff ff 	lea    -0x12d0(%rbp),%rax
    c505:	48 89 85 e8 f0 ff ff 	mov    %rax,-0xf18(%rbp)
    c50c:	48 8d 85 30 ed ff ff 	lea    -0x12d0(%rbp),%rax
    c513:	48 89 85 f0 f0 ff ff 	mov    %rax,-0xf10(%rbp)
    c51a:	48 8d 85 30 ed ff ff 	lea    -0x12d0(%rbp),%rax
    c521:	48 89 85 f8 f0 ff ff 	mov    %rax,-0xf08(%rbp)
    c528:	48 8d 85 30 ed ff ff 	lea    -0x12d0(%rbp),%rax
    c52f:	48 89 85 00 f1 ff ff 	mov    %rax,-0xf00(%rbp)
    c536:	48 8d 85 30 ed ff ff 	lea    -0x12d0(%rbp),%rax
    c53d:	48 89 85 08 f1 ff ff 	mov    %rax,-0xef8(%rbp)
    c544:	48 8d 85 30 ed ff ff 	lea    -0x12d0(%rbp),%rax
    c54b:	48 89 85 10 f1 ff ff 	mov    %rax,-0xef0(%rbp)
    c552:	48 8d 85 30 ed ff ff 	lea    -0x12d0(%rbp),%rax
    c559:	48 89 85 18 f1 ff ff 	mov    %rax,-0xee8(%rbp)
    c560:	48 8d 85 30 ed ff ff 	lea    -0x12d0(%rbp),%rax
    c567:	48 89 85 20 f1 ff ff 	mov    %rax,-0xee0(%rbp)
    c56e:	48 8d 85 30 ed ff ff 	lea    -0x12d0(%rbp),%rax
    c575:	48 89 85 28 f1 ff ff 	mov    %rax,-0xed8(%rbp)
    c57c:	48 c7 85 30 f1 ff ff 	movq   $0x0,-0xed0(%rbp)
    c583:	00 00 00 00 
    c587:	48 8d 85 30 ed ff ff 	lea    -0x12d0(%rbp),%rax
    c58e:	48 89 85 38 f1 ff ff 	mov    %rax,-0xec8(%rbp)
    c595:	48 8d 85 30 ed ff ff 	lea    -0x12d0(%rbp),%rax
    c59c:	48 89 85 40 f1 ff ff 	mov    %rax,-0xec0(%rbp)
    c5a3:	48 8d 85 30 ed ff ff 	lea    -0x12d0(%rbp),%rax
    c5aa:	48 89 85 48 f1 ff ff 	mov    %rax,-0xeb8(%rbp)
    c5b1:	48 8d 85 30 ed ff ff 	lea    -0x12d0(%rbp),%rax
    c5b8:	48 89 85 50 f1 ff ff 	mov    %rax,-0xeb0(%rbp)
    c5bf:	48 8d 85 30 ed ff ff 	lea    -0x12d0(%rbp),%rax
    c5c6:	48 89 85 58 f1 ff ff 	mov    %rax,-0xea8(%rbp)
    c5cd:	48 8d 85 50 f8 ff ff 	lea    -0x7b0(%rbp),%rax
    c5d4:	48 8d 15 a5 4b 01 00 	lea    0x14ba5(%rip),%rdx        # 21180 <g_2115+0xd80>
    c5db:	b9 23 00 00 00       	mov    $0x23,%ecx
    c5e0:	48 89 c7             	mov    %rax,%rdi
    c5e3:	48 89 d6             	mov    %rdx,%rsi
    c5e6:	f3 48 a5             	rep movsq %ds:(%rsi),%es:(%rdi)
    c5e9:	48 8d 05 10 53 01 00 	lea    0x15310(%rip),%rax        # 21900 <g_1193>
    c5f0:	48 89 85 50 ed ff ff 	mov    %rax,-0x12b0(%rbp)
    c5f7:	48 8d 85 50 ed ff ff 	lea    -0x12b0(%rbp),%rax
    c5fe:	48 89 85 58 ed ff ff 	mov    %rax,-0x12a8(%rbp)
    c605:	48 8d 85 58 ed ff ff 	lea    -0x12a8(%rbp),%rax
    c60c:	48 89 85 60 ed ff ff 	mov    %rax,-0x12a0(%rbp)
    c613:	48 8d 85 60 ed ff ff 	lea    -0x12a0(%rbp),%rax
    c61a:	48 89 85 20 ee ff ff 	mov    %rax,-0x11e0(%rbp)
    c621:	c7 85 1c ed ff ff d5 	movl   $0xf216aed5,-0x12e4(%rbp)
    c628:	ae 16 f2 
    c62b:	c7 85 d0 ef ff ff 41 	movl   $0x28706f41,-0x1030(%rbp)
    c632:	6f 70 28 
    c635:	c7 85 d4 ef ff ff fc 	movl   $0xfffffffc,-0x102c(%rbp)
    c63c:	ff ff ff 
    c63f:	c7 85 d8 ef ff ff fc 	movl   $0xfffffffc,-0x1028(%rbp)
    c646:	ff ff ff 
    c649:	c7 85 dc ef ff ff 41 	movl   $0x28706f41,-0x1024(%rbp)
    c650:	6f 70 28 
    c653:	c7 85 e0 ef ff ff fc 	movl   $0xfffffffc,-0x1020(%rbp)
    c65a:	ff ff ff 
    c65d:	c7 85 e4 ef ff ff fc 	movl   $0xfffffffc,-0x101c(%rbp)
    c664:	ff ff ff 
    c667:	c7 85 e8 ef ff ff 41 	movl   $0x28706f41,-0x1018(%rbp)
    c66e:	6f 70 28 
    c671:	c7 85 ec ef ff ff fc 	movl   $0xfffffffc,-0x1014(%rbp)
    c678:	ff ff ff 
    c67b:	c7 85 f0 ef ff ff 41 	movl   $0x28706f41,-0x1010(%rbp)
    c682:	6f 70 28 
    c685:	c7 85 f4 ef ff ff 41 	movl   $0x28706f41,-0x100c(%rbp)
    c68c:	6f 70 28 
    c68f:	c7 85 f8 ef ff ff fd 	movl   $0xfffffffd,-0x1008(%rbp)
    c696:	ff ff ff 
    c699:	c7 85 fc ef ff ff 41 	movl   $0x28706f41,-0x1004(%rbp)
    c6a0:	6f 70 28 
    c6a3:	c7 85 00 f0 ff ff 41 	movl   $0x28706f41,-0x1000(%rbp)
    c6aa:	6f 70 28 
    c6ad:	c7 85 04 f0 ff ff fd 	movl   $0xfffffffd,-0xffc(%rbp)
    c6b4:	ff ff ff 
    c6b7:	c7 85 08 f0 ff ff 41 	movl   $0x28706f41,-0xff8(%rbp)
    c6be:	6f 70 28 
    c6c1:	c7 85 0c f0 ff ff 41 	movl   $0x28706f41,-0xff4(%rbp)
    c6c8:	6f 70 28 
    c6cb:	c7 85 10 f0 ff ff fc 	movl   $0xfffffffc,-0xff0(%rbp)
    c6d2:	ff ff ff 
    c6d5:	c7 85 14 f0 ff ff 41 	movl   $0x28706f41,-0xfec(%rbp)
    c6dc:	6f 70 28 
    c6df:	c7 85 18 f0 ff ff fc 	movl   $0xfffffffc,-0xfe8(%rbp)
    c6e6:	ff ff ff 
    c6e9:	c7 85 1c f0 ff ff fc 	movl   $0xfffffffc,-0xfe4(%rbp)
    c6f0:	ff ff ff 
    c6f3:	c7 85 20 f0 ff ff 41 	movl   $0x28706f41,-0xfe0(%rbp)
    c6fa:	6f 70 28 
    c6fd:	c7 85 24 f0 ff ff fc 	movl   $0xfffffffc,-0xfdc(%rbp)
    c704:	ff ff ff 
    c707:	c7 85 28 f0 ff ff fc 	movl   $0xfffffffc,-0xfd8(%rbp)
    c70e:	ff ff ff 
    c711:	c7 85 2c f0 ff ff 41 	movl   $0x28706f41,-0xfd4(%rbp)
    c718:	6f 70 28 
    c71b:	c7 85 30 f0 ff ff 41 	movl   $0x28706f41,-0xfd0(%rbp)
    c722:	6f 70 28 
    c725:	c7 85 34 f0 ff ff fc 	movl   $0xfffffffc,-0xfcc(%rbp)
    c72c:	ff ff ff 
    c72f:	c7 85 38 f0 ff ff fc 	movl   $0xfffffffc,-0xfc8(%rbp)
    c736:	ff ff ff 
    c739:	c7 85 3c f0 ff ff 41 	movl   $0x28706f41,-0xfc4(%rbp)
    c740:	6f 70 28 
    c743:	c7 85 40 f0 ff ff fd 	movl   $0xfffffffd,-0xfc0(%rbp)
    c74a:	ff ff ff 
    c74d:	c7 85 44 f0 ff ff fd 	movl   $0xfffffffd,-0xfbc(%rbp)
    c754:	ff ff ff 
    c757:	c7 85 48 f0 ff ff fc 	movl   $0xfffffffc,-0xfb8(%rbp)
    c75e:	ff ff ff 
    c761:	c7 85 4c f0 ff ff fd 	movl   $0xfffffffd,-0xfb4(%rbp)
    c768:	ff ff ff 
    c76b:	c7 85 50 f0 ff ff fc 	movl   $0xfffffffc,-0xfb0(%rbp)
    c772:	ff ff ff 
    c775:	c7 85 54 f0 ff ff fc 	movl   $0xfffffffc,-0xfac(%rbp)
    c77c:	ff ff ff 
    c77f:	c7 85 58 f0 ff ff 41 	movl   $0x28706f41,-0xfa8(%rbp)
    c786:	6f 70 28 
    c789:	c7 85 5c f0 ff ff fc 	movl   $0xfffffffc,-0xfa4(%rbp)
    c790:	ff ff ff 
    c793:	c7 85 60 f0 ff ff fc 	movl   $0xfffffffc,-0xfa0(%rbp)
    c79a:	ff ff ff 
    c79d:	c7 85 64 f0 ff ff 41 	movl   $0x28706f41,-0xf9c(%rbp)
    c7a4:	6f 70 28 
    c7a7:	c7 85 68 f0 ff ff fc 	movl   $0xfffffffc,-0xf98(%rbp)
    c7ae:	ff ff ff 
    c7b1:	c7 85 6c f0 ff ff fc 	movl   $0xfffffffc,-0xf94(%rbp)
    c7b8:	ff ff ff 
    c7bb:	48 8d 05 ba 35 01 00 	lea    0x135ba(%rip),%rax        # 1fd7c <g_155+0x9c>
    c7c2:	48 89 85 10 ee ff ff 	mov    %rax,-0x11f0(%rbp)
    c7c9:	48 c7 05 ec 34 01 00 	movq   $0xfffffffffffffff1,0x134ec(%rip)        # 1fcc0 <g_152>
    c7d0:	f1 ff ff ff 
    c7d4:	e9 2c 01 00 00       	jmpq   c905 <func_21+0xc3b>
    c7d9:	48 8d 05 d8 2c 01 00 	lea    0x12cd8(%rip),%rax        # 1f4b8 <g_107>
    c7e0:	48 89 85 20 ef ff ff 	mov    %rax,-0x10e0(%rbp)
    c7e7:	48 8d 05 ca 2c 01 00 	lea    0x12cca(%rip),%rax        # 1f4b8 <g_107>
    c7ee:	48 89 85 28 ef ff ff 	mov    %rax,-0x10d8(%rbp)
    c7f5:	48 8d 05 bc 2c 01 00 	lea    0x12cbc(%rip),%rax        # 1f4b8 <g_107>
    c7fc:	48 89 85 30 ef ff ff 	mov    %rax,-0x10d0(%rbp)
    c803:	48 8d 05 ae 2c 01 00 	lea    0x12cae(%rip),%rax        # 1f4b8 <g_107>
    c80a:	48 89 85 38 ef ff ff 	mov    %rax,-0x10c8(%rbp)
    c811:	48 8d 05 a0 2c 01 00 	lea    0x12ca0(%rip),%rax        # 1f4b8 <g_107>
    c818:	48 89 85 40 ef ff ff 	mov    %rax,-0x10c0(%rbp)
    c81f:	48 8d 05 92 2c 01 00 	lea    0x12c92(%rip),%rax        # 1f4b8 <g_107>
    c826:	48 89 85 48 ef ff ff 	mov    %rax,-0x10b8(%rbp)
    c82d:	48 8d 05 84 2c 01 00 	lea    0x12c84(%rip),%rax        # 1f4b8 <g_107>
    c834:	48 89 85 50 ef ff ff 	mov    %rax,-0x10b0(%rbp)
    c83b:	48 8d 05 76 2c 01 00 	lea    0x12c76(%rip),%rax        # 1f4b8 <g_107>
    c842:	48 89 85 58 ef ff ff 	mov    %rax,-0x10a8(%rbp)
    c849:	48 8d 05 68 2c 01 00 	lea    0x12c68(%rip),%rax        # 1f4b8 <g_107>
    c850:	48 89 85 60 ef ff ff 	mov    %rax,-0x10a0(%rbp)
    c857:	48 8d 05 5a 2c 01 00 	lea    0x12c5a(%rip),%rax        # 1f4b8 <g_107>
    c85e:	48 89 85 68 ef ff ff 	mov    %rax,-0x1098(%rbp)
    c865:	c7 85 08 ed ff ff 00 	movl   $0x0,-0x12f8(%rbp)
    c86c:	00 00 00 
    c86f:	eb 6d                	jmp    c8de <func_21+0xc14>
    c871:	48 8d 05 d8 5b 01 00 	lea    0x15bd8(%rip),%rax        # 22450 <g_256>
    c878:	48 89 85 28 ee ff ff 	mov    %rax,-0x11d8(%rbp)
    c87f:	48 8d 05 fa 4b 01 00 	lea    0x14bfa(%rip),%rax        # 21480 <g_108+0x60>
    c886:	48 89 85 30 ee ff ff 	mov    %rax,-0x11d0(%rbp)
    c88d:	48 8b 05 d4 4c 01 00 	mov    0x14cd4(%rip),%rax        # 21568 <g_255>
    c894:	48 8b 10             	mov    (%rax),%rdx
    c897:	48 8b 85 28 ee ff ff 	mov    -0x11d8(%rbp),%rax
    c89e:	48 89 10             	mov    %rdx,(%rax)
    c8a1:	48 8b 85 30 ee ff ff 	mov    -0x11d0(%rbp),%rax
    c8a8:	48 8b 95 18 ee ff ff 	mov    -0x11e8(%rbp),%rdx
    c8af:	48 89 10             	mov    %rdx,(%rax)
    c8b2:	48 8b 95 38 ef ff ff 	mov    -0x10c8(%rbp),%rdx
    c8b9:	48 8b 85 30 ee ff ff 	mov    -0x11d0(%rbp),%rax
    c8c0:	48 89 10             	mov    %rdx,(%rax)
    c8c3:	8b 85 08 ed ff ff    	mov    -0x12f8(%rbp),%eax
    c8c9:	89 c0                	mov    %eax,%eax
    c8cb:	be 03 00 00 00       	mov    $0x3,%esi
    c8d0:	48 89 c7             	mov    %rax,%rdi
    c8d3:	e8 69 8f ff ff       	callq  5841 <safe_add_func_int64_t_s_s>
    c8d8:	89 85 08 ed ff ff    	mov    %eax,-0x12f8(%rbp)
    c8de:	8b 85 08 ed ff ff    	mov    -0x12f8(%rbp),%eax
    c8e4:	83 f8 20             	cmp    $0x20,%eax
    c8e7:	77 88                	ja     c871 <func_21+0xba7>
    c8e9:	48 8b 05 d0 33 01 00 	mov    0x133d0(%rip),%rax        # 1fcc0 <g_152>
    c8f0:	be 02 00 00 00       	mov    $0x2,%esi
    c8f5:	89 c7                	mov    %eax,%edi
    c8f7:	e8 ba 8c ff ff       	callq  55b6 <safe_add_func_int32_t_s_s>
    c8fc:	48 98                	cltq   
    c8fe:	48 89 05 bb 33 01 00 	mov    %rax,0x133bb(%rip)        # 1fcc0 <g_152>
    c905:	48 8b 05 b4 33 01 00 	mov    0x133b4(%rip),%rax        # 1fcc0 <g_152>
    c90c:	48 83 f8 ff          	cmp    $0xffffffffffffffff,%rax
    c910:	0f 85 c3 fe ff ff    	jne    c7d9 <func_21+0xb0f>
    c916:	0f b6 05 2f 38 01 00 	movzbl 0x1382f(%rip),%eax        # 2014c <g_1477>
    c91d:	0f b6 d8             	movzbl %al,%ebx
    c920:	48 8b 05 09 50 01 00 	mov    0x15009(%rip),%rax        # 21930 <g_1388>
    c927:	48 8b 00             	mov    (%rax),%rax
    c92a:	8b 10                	mov    (%rax),%edx
    c92c:	83 c2 01             	add    $0x1,%edx
    c92f:	89 10                	mov    %edx,(%rax)
    c931:	8b 10                	mov    (%rax),%edx
    c933:	48 8b 05 46 51 01 00 	mov    0x15146(%rip),%rax        # 21a80 <g_1462+0x80>
    c93a:	48 89 05 3f 51 01 00 	mov    %rax,0x1513f(%rip)        # 21a80 <g_1462+0x80>
    c941:	48 8b 05 38 51 01 00 	mov    0x15138(%rip),%rax        # 21a80 <g_1462+0x80>
    c948:	48 89 05 e9 52 01 00 	mov    %rax,0x152e9(%rip)        # 21c38 <g_1465+0x198>
    c94f:	48 8b 05 e2 52 01 00 	mov    0x152e2(%rip),%rax        # 21c38 <g_1465+0x198>
    c956:	48 85 c0             	test   %rax,%rax
    c959:	0f 94 c1             	sete   %cl
    c95c:	48 83 bd b0 ed ff ff 	cmpq   $0xffffffffffffffff,-0x1250(%rbp)
    c963:	ff 
    c964:	0f 95 c0             	setne  %al
    c967:	31 c8                	xor    %ecx,%eax
    c969:	0f b6 c0             	movzbl %al,%eax
    c96c:	39 c2                	cmp    %eax,%edx
    c96e:	0f 95 c0             	setne  %al
    c971:	0f b6 d0             	movzbl %al,%edx
    c974:	48 8b 85 68 ed ff ff 	mov    -0x1298(%rbp),%rax
    c97b:	89 10                	mov    %edx,(%rax)
    c97d:	48 8b 85 68 ed ff ff 	mov    -0x1298(%rbp),%rax
    c984:	8b 00                	mov    (%rax),%eax
    c986:	85 c0                	test   %eax,%eax
    c988:	75 5a                	jne    c9e4 <func_21+0xd1a>
    c98a:	0f b6 05 df 34 01 00 	movzbl 0x134df(%rip),%eax        # 1fe70 <g_481>
    c991:	0f b6 d0             	movzbl %al,%edx
    c994:	48 8d 05 1d 4c 01 00 	lea    0x14c1d(%rip),%rax        # 215b8 <g_574>
    c99b:	48 89 05 3e 53 01 00 	mov    %rax,0x1533e(%rip)        # 21ce0 <g_1471>
    c9a2:	48 8d 05 0f 4c 01 00 	lea    0x14c0f(%rip),%rax        # 215b8 <g_574>
    c9a9:	48 39 85 20 ee ff ff 	cmp    %rax,-0x11e0(%rbp)
    c9b0:	0f 95 c1             	setne  %cl
    c9b3:	48 8b 05 96 4b 01 00 	mov    0x14b96(%rip),%rax        # 21550 <g_239>
    c9ba:	48 8b 00             	mov    (%rax),%rax
    c9bd:	0f b6 c9             	movzbl %cl,%ecx
    c9c0:	89 08                	mov    %ecx,(%rax)
    c9c2:	8b 00                	mov    (%rax),%eax
    c9c4:	89 c1                	mov    %eax,%ecx
    c9c6:	48 8b 85 d0 ec ff ff 	mov    -0x1330(%rbp),%rax
    c9cd:	21 c8                	and    %ecx,%eax
    c9cf:	0f b7 c0             	movzwl %ax,%eax
    c9d2:	89 d6                	mov    %edx,%esi
    c9d4:	89 c7                	mov    %eax,%edi
    c9d6:	e8 b3 93 ff ff       	callq  5d8e <safe_div_func_uint16_t_u_u>
    c9db:	b8 00 00 00 00       	mov    $0x0,%eax
    c9e0:	85 c0                	test   %eax,%eax
    c9e2:	75 07                	jne    c9eb <func_21+0xd21>
    c9e4:	ba 01 00 00 00       	mov    $0x1,%edx
    c9e9:	eb 05                	jmp    c9f0 <func_21+0xd26>
    c9eb:	ba 00 00 00 00       	mov    $0x0,%edx
    c9f0:	8b 85 18 ed ff ff    	mov    -0x12e8(%rbp),%eax
    c9f6:	89 c6                	mov    %eax,%esi
    c9f8:	89 d7                	mov    %edx,%edi
    c9fa:	e8 00 8d ff ff       	callq  56ff <safe_div_func_int32_t_s_s>
    c9ff:	48 8b 15 92 4f 01 00 	mov    0x14f92(%rip),%rdx        # 21998 <g_1415>
    ca06:	48 8b 12             	mov    (%rdx),%rdx
    ca09:	0f b7 12             	movzwl (%rdx),%edx
    ca0c:	31 c2                	xor    %eax,%edx
    ca0e:	48 8b 05 83 4f 01 00 	mov    0x14f83(%rip),%rax        # 21998 <g_1415>
    ca15:	48 8b 00             	mov    (%rax),%rax
    ca18:	66 89 10             	mov    %dx,(%rax)
    ca1b:	48 8b 05 16 36 01 00 	mov    0x13616(%rip),%rax        # 20038 <g_1021+0x18>
    ca22:	c1 e0 07             	shl    $0x7,%eax
    ca25:	c1 f8 14             	sar    $0x14,%eax
    ca28:	98                   	cwtl   
    ca29:	be 00 00 00 00       	mov    $0x0,%esi
    ca2e:	89 c7                	mov    %eax,%edi
    ca30:	e8 7e 89 ff ff       	callq  53b3 <safe_add_func_int16_t_s_s>
    ca35:	0f b7 c0             	movzwl %ax,%eax
    ca38:	25 b3 9c 00 00       	and    $0x9cb3,%eax
    ca3d:	89 de                	mov    %ebx,%esi
    ca3f:	89 c7                	mov    %eax,%edi
    ca41:	e8 48 93 ff ff       	callq  5d8e <safe_div_func_uint16_t_u_u>
    ca46:	0f b7 c0             	movzwl %ax,%eax
    ca49:	23 85 1c ed ff ff    	and    -0x12e4(%rbp),%eax
    ca4f:	89 c2                	mov    %eax,%edx
    ca51:	0f b6 85 dc ec ff ff 	movzbl -0x1324(%rbp),%eax
    ca58:	39 c2                	cmp    %eax,%edx
    ca5a:	0f 95 c0             	setne  %al
    ca5d:	0f b6 c0             	movzbl %al,%eax
    ca60:	48 c7 c6 fd ff ff ff 	mov    $0xfffffffffffffffd,%rsi
    ca67:	48 89 c7             	mov    %rax,%rdi
    ca6a:	e8 d2 8d ff ff       	callq  5841 <safe_add_func_int64_t_s_s>
    ca6f:	8b 95 e0 ef ff ff    	mov    -0x1020(%rbp),%edx
    ca75:	09 d0                	or     %edx,%eax
    ca77:	89 85 e0 ef ff ff    	mov    %eax,-0x1020(%rbp)
    ca7d:	48 8b 05 dc 33 01 00 	mov    0x133dc(%rip),%rax        # 1fe60 <g_335>
    ca84:	0f b6 c0             	movzbl %al,%eax
    ca87:	be 08 00 00 00       	mov    $0x8,%esi
    ca8c:	89 c7                	mov    %eax,%edi
    ca8e:	e8 c7 90 ff ff       	callq  5b5a <safe_add_func_uint8_t_u_u>
    ca93:	0f b6 c0             	movzbl %al,%eax
    ca96:	48 89 05 c3 33 01 00 	mov    %rax,0x133c3(%rip)        # 1fe60 <g_335>
    ca9d:	48 8b 05 bc 33 01 00 	mov    0x133bc(%rip),%rax        # 1fe60 <g_335>
    caa4:	48 83 f8 e7          	cmp    $0xffffffffffffffe7,%rax
    caa8:	0f 85 00 f9 ff ff    	jne    c3ae <func_21+0x6e4>
    caae:	48 8b 05 3b 52 01 00 	mov    0x1523b(%rip),%rax        # 21cf0 <g_1481>
    cab5:	48 8b 95 08 ee ff ff 	mov    -0x11f8(%rbp),%rdx
    cabc:	48 89 10             	mov    %rdx,(%rax)
    cabf:	0f b6 85 ec ec ff ff 	movzbl -0x1314(%rbp),%eax
    cac6:	83 e8 01             	sub    $0x1,%eax
    cac9:	88 85 ec ec ff ff    	mov    %al,-0x1314(%rbp)
    cacf:	80 bd ec ec ff ff f8 	cmpb   $0xf8,-0x1314(%rbp)
    cad6:	0f 8d ad f8 ff ff    	jge    c389 <func_21+0x6bf>
    cadc:	0f b6 85 00 ed ff ff 	movzbl -0x1300(%rbp),%eax
    cae3:	83 c0 01             	add    $0x1,%eax
    cae6:	88 85 00 ed ff ff    	mov    %al,-0x1300(%rbp)
    caec:	8b 85 e8 ec ff ff    	mov    -0x1318(%rbp),%eax
    caf2:	48 8b 5d e8          	mov    -0x18(%rbp),%rbx
    caf6:	64 48 33 1c 25 28 00 	xor    %fs:0x28,%rbx
    cafd:	00 00 
    caff:	74 05                	je     cb06 <func_21+0xe3c>
    cb01:	e8 6a 85 ff ff       	callq  5070 <__stack_chk_fail@plt>
    cb06:	48 81 c4 28 13 00 00 	add    $0x1328,%rsp
    cb0d:	5b                   	pop    %rbx
    cb0e:	5d                   	pop    %rbp
    cb0f:	c3                   	retq   

000000000000cb10 <func_27>:
    cb10:	f3 0f 1e fa          	endbr64 
    cb14:	55                   	push   %rbp
    cb15:	48 89 e5             	mov    %rsp,%rbp
    cb18:	41 57                	push   %r15
    cb1a:	41 56                	push   %r14
    cb1c:	41 55                	push   %r13
    cb1e:	41 54                	push   %r12
    cb20:	53                   	push   %rbx
    cb21:	48 81 ec a8 0e 00 00 	sub    $0xea8,%rsp
    cb28:	48 89 b5 40 f1 ff ff 	mov    %rsi,-0xec0(%rbp)
    cb2f:	89 d0                	mov    %edx,%eax
    cb31:	89 8d 3c f1 ff ff    	mov    %ecx,-0xec4(%rbp)
    cb37:	44 89 85 38 f1 ff ff 	mov    %r8d,-0xec8(%rbp)
    cb3e:	89 fa                	mov    %edi,%edx
    cb40:	88 95 4c f1 ff ff    	mov    %dl,-0xeb4(%rbp)
    cb46:	66 89 85 48 f1 ff ff 	mov    %ax,-0xeb8(%rbp)
    cb4d:	64 48 8b 04 25 28 00 	mov    %fs:0x28,%rax
    cb54:	00 00 
    cb56:	48 89 45 c8          	mov    %rax,-0x38(%rbp)
    cb5a:	31 c0                	xor    %eax,%eax
    cb5c:	c7 85 8c f1 ff ff 00 	movl   $0x0,-0xe74(%rbp)
    cb63:	00 00 00 
    cb66:	48 8d 05 23 59 01 00 	lea    0x15923(%rip),%rax        # 22490 <g_451>
    cb6d:	48 89 85 30 f2 ff ff 	mov    %rax,-0xdd0(%rbp)
    cb74:	c7 85 5c f1 ff ff 18 	movl   $0x8965218,-0xea4(%rbp)
    cb7b:	52 96 08 
    cb7e:	c7 85 60 f1 ff ff c5 	movl   $0x34e93ec5,-0xea0(%rbp)
    cb85:	3e e9 34 
    cb88:	48 8d 05 29 29 01 00 	lea    0x12929(%rip),%rax        # 1f4b8 <g_107>
    cb8f:	48 89 85 38 f2 ff ff 	mov    %rax,-0xdc8(%rbp)
    cb96:	48 c7 85 40 f2 ff ff 	movq   $0x0,-0xdc0(%rbp)
    cb9d:	00 00 00 00 
    cba1:	48 8d 85 5c f1 ff ff 	lea    -0xea4(%rbp),%rax
    cba8:	48 89 85 48 f2 ff ff 	mov    %rax,-0xdb8(%rbp)
    cbaf:	48 8d 05 02 29 01 00 	lea    0x12902(%rip),%rax        # 1f4b8 <g_107>
    cbb6:	48 89 85 50 f2 ff ff 	mov    %rax,-0xdb0(%rbp)
    cbbd:	48 8d 85 5c f1 ff ff 	lea    -0xea4(%rbp),%rax
    cbc4:	48 89 85 58 f2 ff ff 	mov    %rax,-0xda8(%rbp)
    cbcb:	48 8d 05 e6 28 01 00 	lea    0x128e6(%rip),%rax        # 1f4b8 <g_107>
    cbd2:	48 89 85 60 f2 ff ff 	mov    %rax,-0xda0(%rbp)
    cbd9:	48 8d 05 d8 28 01 00 	lea    0x128d8(%rip),%rax        # 1f4b8 <g_107>
    cbe0:	48 89 85 68 f2 ff ff 	mov    %rax,-0xd98(%rbp)
    cbe7:	48 8d 05 ca 28 01 00 	lea    0x128ca(%rip),%rax        # 1f4b8 <g_107>
    cbee:	48 89 85 70 f2 ff ff 	mov    %rax,-0xd90(%rbp)
    cbf5:	48 c7 85 78 f2 ff ff 	movq   $0x0,-0xd88(%rbp)
    cbfc:	00 00 00 00 
    cc00:	48 8d 85 5c f1 ff ff 	lea    -0xea4(%rbp),%rax
    cc07:	48 89 85 80 f2 ff ff 	mov    %rax,-0xd80(%rbp)
    cc0e:	c7 85 c0 f4 ff ff 03 	movl   $0x1e1e0003,-0xb40(%rbp)
    cc15:	00 1e 1e 
    cc18:	c7 85 c4 f4 ff ff 01 	movl   $0x9030101,-0xb3c(%rbp)
    cc1f:	01 03 09 
    cc22:	c7 85 c8 f4 ff ff f7 	movl   $0xffffbdf7,-0xb38(%rbp)
    cc29:	bd ff ff 
    cc2c:	c7 85 cc f4 ff ff b9 	movl   $0xff9b03b9,-0xb34(%rbp)
    cc33:	03 9b ff 
    cc36:	c7 85 d0 f4 ff ff 3b 	movl   $0xff02033b,-0xb30(%rbp)
    cc3d:	03 02 ff 
    cc40:	c7 85 d4 f4 ff ff 03 	movl   $0x91dbd03,-0xb2c(%rbp)
    cc47:	bd 1d 09 
    cc4a:	c7 85 d8 f4 ff ff 0a 	movl   $0x1ee8010a,-0xb28(%rbp)
    cc51:	01 e8 1e 
    cc54:	c7 85 dc f4 ff ff ff 	movl   $0x3ff00ff,-0xb24(%rbp)
    cc5b:	00 ff 03 
    cc5e:	c7 85 e0 f4 ff ff 06 	movl   $0xff829b06,-0xb20(%rbp)
    cc65:	9b 82 ff 
    cc68:	c7 85 e4 f4 ff ff a6 	movl   $0x9b9382a6,-0xb1c(%rbp)
    cc6f:	82 93 9b 
    cc72:	c7 85 e8 f4 ff ff 03 	movl   $0x293af03,-0xb18(%rbp)
    cc79:	af 93 02 
    cc7c:	c7 85 ec f4 ff ff a6 	movl   $0x1d8201a6,-0xb14(%rbp)
    cc83:	01 82 1d 
    cc86:	c7 85 f0 f4 ff ff 06 	movl   $0xe8fffb06,-0xb10(%rbp)
    cc8d:	fb ff e8 
    cc90:	c7 85 f4 f4 ff ff ff 	movl   $0xffe8e8ff,-0xb0c(%rbp)
    cc97:	e8 e8 ff 
    cc9a:	c7 85 f8 f4 ff ff 0a 	movl   $0x821dff0a,-0xb08(%rbp)
    cca1:	ff 1d 82 
    cca4:	c7 85 fc f4 ff ff 03 	movl   $0x9302f803,-0xb04(%rbp)
    ccab:	f8 02 93 
    ccae:	c7 85 00 f5 ff ff 3b 	movl   $0x939b013b,-0xb00(%rbp)
    ccb5:	01 9b 93 
    ccb8:	c7 85 04 f5 ff ff b9 	movl   $0x82fff8b9,-0xafc(%rbp)
    ccbf:	f8 ff 82 
    ccc2:	c7 85 08 f5 ff ff f7 	movl   $0xff03fff7,-0xaf8(%rbp)
    ccc9:	ff 03 ff 
    cccc:	c7 85 0c f5 ff ff 01 	movl   $0xe81ee801,-0xaf4(%rbp)
    ccd3:	e8 1e e8 
    ccd6:	c7 85 10 f5 ff ff 03 	movl   $0x1d09fb03,-0xaf0(%rbp)
    ccdd:	fb 09 1d 
    cce0:	c7 85 14 f5 ff ff d3 	movl   $0x2ff01d3,-0xaec(%rbp)
    cce7:	01 ff 02 
    ccea:	c7 85 18 f5 ff ff 01 	movl   $0x9bffaf01,-0xae8(%rbp)
    ccf1:	af ff 9b 
    ccf4:	c7 85 1c f5 ff ff 01 	movl   $0xffff8201,-0xae4(%rbp)
    ccfb:	82 ff ff 
    ccfe:	c7 85 20 f5 ff ff d3 	movl   $0x3099bd3,-0xae0(%rbp)
    cd05:	9b 09 03 
    cd08:	c7 85 24 f5 ff ff 03 	movl   $0x1e1e0003,-0xadc(%rbp)
    cd0f:	00 1e 1e 
    cd12:	c7 85 28 f5 ff ff 01 	movl   $0x9030101,-0xad8(%rbp)
    cd19:	01 03 09 
    cd1c:	c7 85 2c f5 ff ff f7 	movl   $0xffffbdf7,-0xad4(%rbp)
    cd23:	bd ff ff 
    cd26:	c7 85 30 f5 ff ff b9 	movl   $0xff9b03b9,-0xad0(%rbp)
    cd2d:	03 9b ff 
    cd30:	c7 85 34 f5 ff ff 3b 	movl   $0xff02033b,-0xacc(%rbp)
    cd37:	03 02 ff 
    cd3a:	c7 85 38 f5 ff ff 03 	movl   $0x91dbd03,-0xac8(%rbp)
    cd41:	bd 1d 09 
    cd44:	c7 85 3c f5 ff ff 0a 	movl   $0x1ee8010a,-0xac4(%rbp)
    cd4b:	01 e8 1e 
    cd4e:	c7 85 40 f5 ff ff ff 	movl   $0x3ff00ff,-0xac0(%rbp)
    cd55:	00 ff 03 
    cd58:	c7 85 44 f5 ff ff 06 	movl   $0xff829b06,-0xabc(%rbp)
    cd5f:	9b 82 ff 
    cd62:	c7 85 48 f5 ff ff a6 	movl   $0x9b9382a6,-0xab8(%rbp)
    cd69:	82 93 9b 
    cd6c:	c7 85 4c f5 ff ff 03 	movl   $0x293af03,-0xab4(%rbp)
    cd73:	af 93 02 
    cd76:	c7 85 50 f5 ff ff a6 	movl   $0x1d8201a6,-0xab0(%rbp)
    cd7d:	01 82 1d 
    cd80:	c7 85 54 f5 ff ff 06 	movl   $0xe8fffb06,-0xaac(%rbp)
    cd87:	fb ff e8 
    cd8a:	c7 85 58 f5 ff ff ff 	movl   $0xffe8e8ff,-0xaa8(%rbp)
    cd91:	e8 e8 ff 
    cd94:	c7 85 5c f5 ff ff 0a 	movl   $0x821dff0a,-0xaa4(%rbp)
    cd9b:	ff 1d 82 
    cd9e:	c7 85 60 f5 ff ff 03 	movl   $0x9302f803,-0xaa0(%rbp)
    cda5:	f8 02 93 
    cda8:	c7 85 64 f5 ff ff 3b 	movl   $0x939b013b,-0xa9c(%rbp)
    cdaf:	01 9b 93 
    cdb2:	c7 85 68 f5 ff ff b9 	movl   $0xb993a6b9,-0xa98(%rbp)
    cdb9:	a6 93 b9 
    cdbc:	c7 85 6c f5 ff ff 02 	movl   $0x93010602,-0xa94(%rbp)
    cdc3:	06 01 93 
    cdc6:	c7 85 70 f5 ff ff 03 	movl   $0xff00ff03,-0xa90(%rbp)
    cdcd:	ff 00 ff 
    cdd0:	c7 85 74 f5 ff ff 01 	movl   $0xaff80a01,-0xa8c(%rbp)
    cdd7:	0a f8 af 
    cdda:	c7 85 78 f5 ff ff e8 	movl   $0xbd0603e8,-0xa88(%rbp)
    cde1:	03 06 bd 
    cde4:	c7 85 7c f5 ff ff 09 	movl   $0xf7933b09,-0xa84(%rbp)
    cdeb:	3b 93 f7 
    cdee:	c7 85 80 f5 ff ff 09 	movl   $0x9306b909,-0xa80(%rbp)
    cdf5:	b9 06 93 
    cdf8:	c7 85 84 f5 ff ff e8 	movl   $0x1f8f7e8,-0xa7c(%rbp)
    cdff:	f7 f8 01 
    ce02:	c7 85 88 f5 ff ff 01 	movl   $0x101,-0xa78(%rbp)
    ce09:	01 00 00 
    ce0c:	c7 85 8c f5 ff ff 03 	movl   $0xf8010303,-0xa74(%rbp)
    ce13:	03 01 f8 
    ce16:	c7 85 90 f5 ff ff 02 	movl   $0x693d302,-0xa70(%rbp)
    ce1d:	d3 93 06 
    ce20:	c7 85 94 f5 ff ff 1e 	movl   $0x93f7011e,-0xa6c(%rbp)
    ce27:	01 f7 93 
    ce2a:	c7 85 98 f5 ff ff 82 	movl   $0x6bd0182,-0xa68(%rbp)
    ce31:	01 bd 06 
    ce34:	c7 85 9c f5 ff ff 01 	movl   $0xf8afd301,-0xa64(%rbp)
    ce3b:	d3 af f8 
    ce3e:	48 8d 85 60 f1 ff ff 	lea    -0xea0(%rbp),%rax
    ce45:	48 89 85 00 f2 ff ff 	mov    %rax,-0xe00(%rbp)
    ce4c:	48 8d 85 00 f2 ff ff 	lea    -0xe00(%rbp),%rax
    ce53:	48 89 85 88 f2 ff ff 	mov    %rax,-0xd78(%rbp)
    ce5a:	48 8d 05 4f 56 01 00 	lea    0x1564f(%rip),%rax        # 224b0 <g_805>
    ce61:	48 89 85 90 f2 ff ff 	mov    %rax,-0xd70(%rbp)
    ce68:	48 8d 05 69 47 01 00 	lea    0x14769(%rip),%rax        # 215d8 <g_854>
    ce6f:	48 89 85 98 f2 ff ff 	mov    %rax,-0xd68(%rbp)
    ce76:	48 c7 85 08 f2 ff ff 	movq   $0x0,-0xdf8(%rbp)
    ce7d:	00 00 00 00 
    ce81:	48 8d 05 ec 55 01 00 	lea    0x155ec(%rip),%rax        # 22474 <g_398+0x14>
    ce88:	48 89 85 10 f2 ff ff 	mov    %rax,-0xdf0(%rbp)
    ce8f:	48 8d 85 10 f2 ff ff 	lea    -0xdf0(%rbp),%rax
    ce96:	48 89 85 a0 f2 ff ff 	mov    %rax,-0xd60(%rbp)
    ce9d:	48 8d 85 30 f9 ff ff 	lea    -0x6d0(%rbp),%rax
    cea4:	48 8d 15 f5 da 00 00 	lea    0xdaf5(%rip),%rdx        # 1a9a0 <g_2129+0x14e0>
    ceab:	b9 54 00 00 00       	mov    $0x54,%ecx
    ceb0:	48 89 c7             	mov    %rax,%rdi
    ceb3:	48 89 d6             	mov    %rdx,%rsi
    ceb6:	f3 48 a5             	rep movsq %ds:(%rsi),%es:(%rdi)
    ceb9:	c7 85 64 f1 ff ff 00 	movl   $0x0,-0xe9c(%rbp)
    cec0:	00 00 00 
    cec3:	eb 1e                	jmp    cee3 <func_27+0x3d3>
    cec5:	8b 85 64 f1 ff ff    	mov    -0xe9c(%rbp),%eax
    cecb:	48 98                	cltq   
    cecd:	48 8d 15 e4 2f 01 00 	lea    0x12fe4(%rip),%rdx        # 1feb8 <g_721>
    ced4:	48 89 94 c5 60 f3 ff 	mov    %rdx,-0xca0(%rbp,%rax,8)
    cedb:	ff 
    cedc:	83 85 64 f1 ff ff 01 	addl   $0x1,-0xe9c(%rbp)
    cee3:	83 bd 64 f1 ff ff 01 	cmpl   $0x1,-0xe9c(%rbp)
    ceea:	7e d9                	jle    cec5 <func_27+0x3b5>
    ceec:	c7 85 64 f1 ff ff 00 	movl   $0x0,-0xe9c(%rbp)
    cef3:	00 00 00 
    cef6:	eb 4a                	jmp    cf42 <func_27+0x432>
    cef8:	c7 85 68 f1 ff ff 00 	movl   $0x0,-0xe98(%rbp)
    ceff:	00 00 00 
    cf02:	eb 2e                	jmp    cf32 <func_27+0x422>
    cf04:	8b 85 68 f1 ff ff    	mov    -0xe98(%rbp),%eax
    cf0a:	48 98                	cltq   
    cf0c:	8b 95 64 f1 ff ff    	mov    -0xe9c(%rbp),%edx
    cf12:	48 63 d2             	movslq %edx,%rdx
    cf15:	48 c1 e2 03          	shl    $0x3,%rdx
    cf19:	48 01 c2             	add    %rax,%rdx
    cf1c:	48 8d 85 5c f1 ff ff 	lea    -0xea4(%rbp),%rax
    cf23:	48 89 84 d5 a0 f5 ff 	mov    %rax,-0xa60(%rbp,%rdx,8)
    cf2a:	ff 
    cf2b:	83 85 68 f1 ff ff 01 	addl   $0x1,-0xe98(%rbp)
    cf32:	83 bd 68 f1 ff ff 07 	cmpl   $0x7,-0xe98(%rbp)
    cf39:	7e c9                	jle    cf04 <func_27+0x3f4>
    cf3b:	83 85 64 f1 ff ff 01 	addl   $0x1,-0xe9c(%rbp)
    cf42:	83 bd 64 f1 ff ff 03 	cmpl   $0x3,-0xe9c(%rbp)
    cf49:	7e ad                	jle    cef8 <func_27+0x3e8>
    cf4b:	48 83 bd 30 f2 ff ff 	cmpq   $0x0,-0xdd0(%rbp)
    cf52:	00 
    cf53:	0f 94 c0             	sete   %al
    cf56:	0f b6 c0             	movzbl %al,%eax
    cf59:	89 c2                	mov    %eax,%edx
    cf5b:	48 8b 05 f6 45 01 00 	mov    0x145f6(%rip),%rax        # 21558 <g_238>
    cf62:	48 8b 00             	mov    (%rax),%rax
    cf65:	48 8b 00             	mov    (%rax),%rax
    cf68:	8b 00                	mov    (%rax),%eax
    cf6a:	89 d3                	mov    %edx,%ebx
    cf6c:	09 c3                	or     %eax,%ebx
    cf6e:	8b 85 5c f1 ff ff    	mov    -0xea4(%rbp),%eax
    cf74:	33 85 8c f1 ff ff    	xor    -0xe74(%rbp),%eax
    cf7a:	89 85 5c f1 ff ff    	mov    %eax,-0xea4(%rbp)
    cf80:	8b 85 5c f1 ff ff    	mov    -0xea4(%rbp),%eax
    cf86:	3d bd d7 00 00       	cmp    $0xd7bd,%eax
    cf8b:	0f 94 c0             	sete   %al
    cf8e:	0f b6 c0             	movzbl %al,%eax
    cf91:	be ad ff ff ff       	mov    $0xffffffad,%esi
    cf96:	89 c7                	mov    %eax,%edi
    cf98:	e8 58 84 ff ff       	callq  53f5 <safe_mul_func_int16_t_s_s>
    cf9d:	98                   	cwtl   
    cf9e:	39 85 8c f1 ff ff    	cmp    %eax,-0xe74(%rbp)
    cfa4:	0f 9d c0             	setge  %al
    cfa7:	0f b6 d0             	movzbl %al,%edx
    cfaa:	8b 8d 3c f1 ff ff    	mov    -0xec4(%rbp),%ecx
    cfb0:	48 8b 05 b9 45 01 00 	mov    0x145b9(%rip),%rax        # 21570 <g_260>
    cfb7:	66 89 08             	mov    %cx,(%rax)
    cfba:	0f b7 00             	movzwl (%rax),%eax
    cfbd:	0f b7 c0             	movzwl %ax,%eax
    cfc0:	39 85 8c f1 ff ff    	cmp    %eax,-0xe74(%rbp)
    cfc6:	0f 94 c0             	sete   %al
    cfc9:	0f b6 c0             	movzbl %al,%eax
    cfcc:	89 d6                	mov    %edx,%esi
    cfce:	89 c7                	mov    %eax,%edi
    cfd0:	e8 be 8b ff ff       	callq  5b93 <safe_mul_func_uint8_t_u_u>
    cfd5:	0f be c0             	movsbl %al,%eax
    cfd8:	be 07 00 00 00       	mov    $0x7,%esi
    cfdd:	89 c7                	mov    %eax,%edi
    cfdf:	e8 0a 83 ff ff       	callq  52ee <safe_lshift_func_int8_t_s_u>
    cfe4:	0f be c0             	movsbl %al,%eax
    cfe7:	39 c3                	cmp    %eax,%ebx
    cfe9:	0f 92 c0             	setb   %al
    cfec:	0f b6 c0             	movzbl %al,%eax
    cfef:	be 0d 00 00 00       	mov    $0xd,%esi
    cff4:	89 c7                	mov    %eax,%edi
    cff6:	e8 2f 85 ff ff       	callq  552a <safe_rshift_func_int16_t_s_s>
    cffb:	66 85 c0             	test   %ax,%ax
    cffe:	74 35                	je     d035 <func_27+0x525>
    d000:	48 8b 05 81 45 01 00 	mov    0x14581(%rip),%rax        # 21588 <g_542>
    d007:	48 8b 0d b2 2e 01 00 	mov    0x12eb2(%rip),%rcx        # 1fec0 <g_736>
    d00e:	48 8b 1d b3 2e 01 00 	mov    0x12eb3(%rip),%rbx        # 1fec8 <g_736+0x8>
    d015:	48 89 08             	mov    %rcx,(%rax)
    d018:	48 89 58 08          	mov    %rbx,0x8(%rax)
    d01c:	48 8b 15 ad 2e 01 00 	mov    0x12ead(%rip),%rdx        # 1fed0 <g_736+0x10>
    d023:	48 89 50 10          	mov    %rdx,0x10(%rax)
    d027:	8b 15 ab 2e 01 00    	mov    0x12eab(%rip),%edx        # 1fed8 <g_736+0x18>
    d02d:	89 50 18             	mov    %edx,0x18(%rax)
    d030:	e9 08 05 00 00       	jmpq   d53d <func_27+0xa2d>
    d035:	48 c7 85 a8 f2 ff ff 	movq   $0x0,-0xd58(%rbp)
    d03c:	00 00 00 00 
    d040:	48 8d 05 29 2e 01 00 	lea    0x12e29(%rip),%rax        # 1fe70 <g_481>
    d047:	48 89 85 a0 f6 ff ff 	mov    %rax,-0x960(%rbp)
    d04e:	48 8d 85 60 f1 ff ff 	lea    -0xea0(%rbp),%rax
    d055:	48 89 85 a8 f6 ff ff 	mov    %rax,-0x958(%rbp)
    d05c:	48 8d 05 19 2d 01 00 	lea    0x12d19(%rip),%rax        # 1fd7c <g_155+0x9c>
    d063:	48 89 85 b0 f6 ff ff 	mov    %rax,-0x950(%rbp)
    d06a:	48 8d 05 7f 2c 01 00 	lea    0x12c7f(%rip),%rax        # 1fcf0 <g_155+0x10>
    d071:	48 89 85 b8 f6 ff ff 	mov    %rax,-0x948(%rbp)
    d078:	48 8d 05 f1 2d 01 00 	lea    0x12df1(%rip),%rax        # 1fe70 <g_481>
    d07f:	48 89 85 c0 f6 ff ff 	mov    %rax,-0x940(%rbp)
    d086:	48 8d 05 e3 2d 01 00 	lea    0x12de3(%rip),%rax        # 1fe70 <g_481>
    d08d:	48 89 85 c8 f6 ff ff 	mov    %rax,-0x938(%rbp)
    d094:	48 8d 85 60 f1 ff ff 	lea    -0xea0(%rbp),%rax
    d09b:	48 89 85 d0 f6 ff ff 	mov    %rax,-0x930(%rbp)
    d0a2:	48 8d 05 3f 2c 01 00 	lea    0x12c3f(%rip),%rax        # 1fce8 <g_155+0x8>
    d0a9:	48 89 85 d8 f6 ff ff 	mov    %rax,-0x928(%rbp)
    d0b0:	48 8d 85 60 f1 ff ff 	lea    -0xea0(%rbp),%rax
    d0b7:	48 89 85 e0 f6 ff ff 	mov    %rax,-0x920(%rbp)
    d0be:	48 8d 85 60 f1 ff ff 	lea    -0xea0(%rbp),%rax
    d0c5:	48 89 85 e8 f6 ff ff 	mov    %rax,-0x918(%rbp)
    d0cc:	48 8d 05 8d 2c 01 00 	lea    0x12c8d(%rip),%rax        # 1fd60 <g_155+0x80>
    d0d3:	48 89 85 f0 f6 ff ff 	mov    %rax,-0x910(%rbp)
    d0da:	48 8d 05 9b 2c 01 00 	lea    0x12c9b(%rip),%rax        # 1fd7c <g_155+0x9c>
    d0e1:	48 89 85 f8 f6 ff ff 	mov    %rax,-0x908(%rbp)
    d0e8:	48 8d 05 71 2c 01 00 	lea    0x12c71(%rip),%rax        # 1fd60 <g_155+0x80>
    d0ef:	48 89 85 00 f7 ff ff 	mov    %rax,-0x900(%rbp)
    d0f6:	48 8d 05 63 2c 01 00 	lea    0x12c63(%rip),%rax        # 1fd60 <g_155+0x80>
    d0fd:	48 89 85 08 f7 ff ff 	mov    %rax,-0x8f8(%rbp)
    d104:	48 8d 05 65 2d 01 00 	lea    0x12d65(%rip),%rax        # 1fe70 <g_481>
    d10b:	48 89 85 10 f7 ff ff 	mov    %rax,-0x8f0(%rbp)
    d112:	48 8d 05 57 2d 01 00 	lea    0x12d57(%rip),%rax        # 1fe70 <g_481>
    d119:	48 89 85 18 f7 ff ff 	mov    %rax,-0x8e8(%rbp)
    d120:	48 8d 05 c1 2b 01 00 	lea    0x12bc1(%rip),%rax        # 1fce8 <g_155+0x8>
    d127:	48 89 85 20 f7 ff ff 	mov    %rax,-0x8e0(%rbp)
    d12e:	48 8d 85 60 f1 ff ff 	lea    -0xea0(%rbp),%rax
    d135:	48 89 85 28 f7 ff ff 	mov    %rax,-0x8d8(%rbp)
    d13c:	48 8d 05 39 2c 01 00 	lea    0x12c39(%rip),%rax        # 1fd7c <g_155+0x9c>
    d143:	48 89 85 30 f7 ff ff 	mov    %rax,-0x8d0(%rbp)
    d14a:	48 8d 05 1f 2d 01 00 	lea    0x12d1f(%rip),%rax        # 1fe70 <g_481>
    d151:	48 89 85 38 f7 ff ff 	mov    %rax,-0x8c8(%rbp)
    d158:	48 c7 85 40 f7 ff ff 	movq   $0x0,-0x8c0(%rbp)
    d15f:	00 00 00 00 
    d163:	48 8d 05 12 2c 01 00 	lea    0x12c12(%rip),%rax        # 1fd7c <g_155+0x9c>
    d16a:	48 89 85 48 f7 ff ff 	mov    %rax,-0x8b8(%rbp)
    d171:	48 8d 85 60 f1 ff ff 	lea    -0xea0(%rbp),%rax
    d178:	48 89 85 50 f7 ff ff 	mov    %rax,-0x8b0(%rbp)
    d17f:	48 8d 85 60 f1 ff ff 	lea    -0xea0(%rbp),%rax
    d186:	48 89 85 58 f7 ff ff 	mov    %rax,-0x8a8(%rbp)
    d18d:	48 8d 05 54 2b 01 00 	lea    0x12b54(%rip),%rax        # 1fce8 <g_155+0x8>
    d194:	48 89 85 60 f7 ff ff 	mov    %rax,-0x8a0(%rbp)
    d19b:	48 8d 05 da 2b 01 00 	lea    0x12bda(%rip),%rax        # 1fd7c <g_155+0x9c>
    d1a2:	48 89 85 68 f7 ff ff 	mov    %rax,-0x898(%rbp)
    d1a9:	48 c7 85 70 f7 ff ff 	movq   $0x0,-0x890(%rbp)
    d1b0:	00 00 00 00 
    d1b4:	48 8d 85 60 f1 ff ff 	lea    -0xea0(%rbp),%rax
    d1bb:	48 89 85 78 f7 ff ff 	mov    %rax,-0x888(%rbp)
    d1c2:	48 8d 05 a7 2c 01 00 	lea    0x12ca7(%rip),%rax        # 1fe70 <g_481>
    d1c9:	48 89 85 80 f7 ff ff 	mov    %rax,-0x880(%rbp)
    d1d0:	48 8d 85 60 f1 ff ff 	lea    -0xea0(%rbp),%rax
    d1d7:	48 89 85 88 f7 ff ff 	mov    %rax,-0x878(%rbp)
    d1de:	48 8d 85 60 f1 ff ff 	lea    -0xea0(%rbp),%rax
    d1e5:	48 89 85 90 f7 ff ff 	mov    %rax,-0x870(%rbp)
    d1ec:	48 8d 85 60 f1 ff ff 	lea    -0xea0(%rbp),%rax
    d1f3:	48 89 85 98 f7 ff ff 	mov    %rax,-0x868(%rbp)
    d1fa:	48 8d 05 6f 2c 01 00 	lea    0x12c6f(%rip),%rax        # 1fe70 <g_481>
    d201:	48 89 85 a0 f7 ff ff 	mov    %rax,-0x860(%rbp)
    d208:	48 8d 05 19 2b 01 00 	lea    0x12b19(%rip),%rax        # 1fd28 <g_155+0x48>
    d20f:	48 89 85 a8 f7 ff ff 	mov    %rax,-0x858(%rbp)
    d216:	48 8d 05 5f 2b 01 00 	lea    0x12b5f(%rip),%rax        # 1fd7c <g_155+0x9c>
    d21d:	48 89 85 b0 f7 ff ff 	mov    %rax,-0x850(%rbp)
    d224:	48 8d 05 51 2b 01 00 	lea    0x12b51(%rip),%rax        # 1fd7c <g_155+0x9c>
    d22b:	48 89 85 b8 f7 ff ff 	mov    %rax,-0x848(%rbp)
    d232:	48 8d 05 ef 2a 01 00 	lea    0x12aef(%rip),%rax        # 1fd28 <g_155+0x48>
    d239:	48 89 85 c0 f7 ff ff 	mov    %rax,-0x840(%rbp)
    d240:	48 8d 05 29 2c 01 00 	lea    0x12c29(%rip),%rax        # 1fe70 <g_481>
    d247:	48 89 85 c8 f7 ff ff 	mov    %rax,-0x838(%rbp)
    d24e:	48 8d 85 60 f1 ff ff 	lea    -0xea0(%rbp),%rax
    d255:	48 89 85 d0 f7 ff ff 	mov    %rax,-0x830(%rbp)
    d25c:	48 8d 85 60 f1 ff ff 	lea    -0xea0(%rbp),%rax
    d263:	48 89 85 d8 f7 ff ff 	mov    %rax,-0x828(%rbp)
    d26a:	48 8d 85 60 f1 ff ff 	lea    -0xea0(%rbp),%rax
    d271:	48 89 85 e0 f7 ff ff 	mov    %rax,-0x820(%rbp)
    d278:	48 8d 05 f1 2b 01 00 	lea    0x12bf1(%rip),%rax        # 1fe70 <g_481>
    d27f:	48 89 85 e8 f7 ff ff 	mov    %rax,-0x818(%rbp)
    d286:	48 8d 85 60 f1 ff ff 	lea    -0xea0(%rbp),%rax
    d28d:	48 89 85 f0 f7 ff ff 	mov    %rax,-0x810(%rbp)
    d294:	48 c7 85 f8 f7 ff ff 	movq   $0x0,-0x808(%rbp)
    d29b:	00 00 00 00 
    d29f:	48 8d 05 d6 2a 01 00 	lea    0x12ad6(%rip),%rax        # 1fd7c <g_155+0x9c>
    d2a6:	48 89 85 00 f8 ff ff 	mov    %rax,-0x800(%rbp)
    d2ad:	48 8d 05 34 2a 01 00 	lea    0x12a34(%rip),%rax        # 1fce8 <g_155+0x8>
    d2b4:	48 89 85 08 f8 ff ff 	mov    %rax,-0x7f8(%rbp)
    d2bb:	48 8d 85 60 f1 ff ff 	lea    -0xea0(%rbp),%rax
    d2c2:	48 89 85 10 f8 ff ff 	mov    %rax,-0x7f0(%rbp)
    d2c9:	48 8d 85 60 f1 ff ff 	lea    -0xea0(%rbp),%rax
    d2d0:	48 89 85 18 f8 ff ff 	mov    %rax,-0x7e8(%rbp)
    d2d7:	48 8d 05 9e 2a 01 00 	lea    0x12a9e(%rip),%rax        # 1fd7c <g_155+0x9c>
    d2de:	48 89 85 20 f8 ff ff 	mov    %rax,-0x7e0(%rbp)
    d2e5:	48 c7 85 28 f8 ff ff 	movq   $0x0,-0x7d8(%rbp)
    d2ec:	00 00 00 00 
    d2f0:	48 8d 05 79 2b 01 00 	lea    0x12b79(%rip),%rax        # 1fe70 <g_481>
    d2f7:	48 89 85 30 f8 ff ff 	mov    %rax,-0x7d0(%rbp)
    d2fe:	48 8d 05 77 2a 01 00 	lea    0x12a77(%rip),%rax        # 1fd7c <g_155+0x9c>
    d305:	48 89 85 38 f8 ff ff 	mov    %rax,-0x7c8(%rbp)
    d30c:	48 8d 85 60 f1 ff ff 	lea    -0xea0(%rbp),%rax
    d313:	48 89 85 40 f8 ff ff 	mov    %rax,-0x7c0(%rbp)
    d31a:	48 8d 05 c7 29 01 00 	lea    0x129c7(%rip),%rax        # 1fce8 <g_155+0x8>
    d321:	48 89 85 48 f8 ff ff 	mov    %rax,-0x7b8(%rbp)
    d328:	48 8d 05 41 2b 01 00 	lea    0x12b41(%rip),%rax        # 1fe70 <g_481>
    d32f:	48 89 85 50 f8 ff ff 	mov    %rax,-0x7b0(%rbp)
    d336:	48 8d 05 33 2b 01 00 	lea    0x12b33(%rip),%rax        # 1fe70 <g_481>
    d33d:	48 89 85 58 f8 ff ff 	mov    %rax,-0x7a8(%rbp)
    d344:	48 8d 05 15 2a 01 00 	lea    0x12a15(%rip),%rax        # 1fd60 <g_155+0x80>
    d34b:	48 89 85 60 f8 ff ff 	mov    %rax,-0x7a0(%rbp)
    d352:	48 8d 05 07 2a 01 00 	lea    0x12a07(%rip),%rax        # 1fd60 <g_155+0x80>
    d359:	48 89 85 68 f8 ff ff 	mov    %rax,-0x798(%rbp)
    d360:	48 8d 05 15 2a 01 00 	lea    0x12a15(%rip),%rax        # 1fd7c <g_155+0x9c>
    d367:	48 89 85 70 f8 ff ff 	mov    %rax,-0x790(%rbp)
    d36e:	48 8d 05 eb 29 01 00 	lea    0x129eb(%rip),%rax        # 1fd60 <g_155+0x80>
    d375:	48 89 85 78 f8 ff ff 	mov    %rax,-0x788(%rbp)
    d37c:	48 8d 85 60 f1 ff ff 	lea    -0xea0(%rbp),%rax
    d383:	48 89 85 80 f8 ff ff 	mov    %rax,-0x780(%rbp)
    d38a:	48 8d 85 60 f1 ff ff 	lea    -0xea0(%rbp),%rax
    d391:	48 89 85 88 f8 ff ff 	mov    %rax,-0x778(%rbp)
    d398:	48 8d 05 49 29 01 00 	lea    0x12949(%rip),%rax        # 1fce8 <g_155+0x8>
    d39f:	48 89 85 90 f8 ff ff 	mov    %rax,-0x770(%rbp)
    d3a6:	48 8d 85 60 f1 ff ff 	lea    -0xea0(%rbp),%rax
    d3ad:	48 89 85 98 f8 ff ff 	mov    %rax,-0x768(%rbp)
    d3b4:	48 8d 05 b5 2a 01 00 	lea    0x12ab5(%rip),%rax        # 1fe70 <g_481>
    d3bb:	48 89 85 a0 f8 ff ff 	mov    %rax,-0x760(%rbp)
    d3c2:	48 8d 05 a7 2a 01 00 	lea    0x12aa7(%rip),%rax        # 1fe70 <g_481>
    d3c9:	48 89 85 a8 f8 ff ff 	mov    %rax,-0x758(%rbp)
    d3d0:	48 8d 05 19 29 01 00 	lea    0x12919(%rip),%rax        # 1fcf0 <g_155+0x10>
    d3d7:	48 89 85 b0 f8 ff ff 	mov    %rax,-0x750(%rbp)
    d3de:	48 8d 05 97 29 01 00 	lea    0x12997(%rip),%rax        # 1fd7c <g_155+0x9c>
    d3e5:	48 89 85 b8 f8 ff ff 	mov    %rax,-0x748(%rbp)
    d3ec:	48 8d 85 60 f1 ff ff 	lea    -0xea0(%rbp),%rax
    d3f3:	48 89 85 c0 f8 ff ff 	mov    %rax,-0x740(%rbp)
    d3fa:	48 8d 05 6f 2a 01 00 	lea    0x12a6f(%rip),%rax        # 1fe70 <g_481>
    d401:	48 89 85 c8 f8 ff ff 	mov    %rax,-0x738(%rbp)
    d408:	48 8d 85 60 f1 ff ff 	lea    -0xea0(%rbp),%rax
    d40f:	48 89 85 d0 f8 ff ff 	mov    %rax,-0x730(%rbp)
    d416:	48 8d 05 5f 29 01 00 	lea    0x1295f(%rip),%rax        # 1fd7c <g_155+0x9c>
    d41d:	48 89 85 d8 f8 ff ff 	mov    %rax,-0x728(%rbp)
    d424:	48 8d 05 c5 28 01 00 	lea    0x128c5(%rip),%rax        # 1fcf0 <g_155+0x10>
    d42b:	48 89 85 e0 f8 ff ff 	mov    %rax,-0x720(%rbp)
    d432:	48 8d 05 37 2a 01 00 	lea    0x12a37(%rip),%rax        # 1fe70 <g_481>
    d439:	48 89 85 e8 f8 ff ff 	mov    %rax,-0x718(%rbp)
    d440:	48 8d 05 29 2a 01 00 	lea    0x12a29(%rip),%rax        # 1fe70 <g_481>
    d447:	48 89 85 f0 f8 ff ff 	mov    %rax,-0x710(%rbp)
    d44e:	48 8d 85 60 f1 ff ff 	lea    -0xea0(%rbp),%rax
    d455:	48 89 85 f8 f8 ff ff 	mov    %rax,-0x708(%rbp)
    d45c:	48 8d 05 85 28 01 00 	lea    0x12885(%rip),%rax        # 1fce8 <g_155+0x8>
    d463:	48 89 85 00 f9 ff ff 	mov    %rax,-0x700(%rbp)
    d46a:	48 8d 85 60 f1 ff ff 	lea    -0xea0(%rbp),%rax
    d471:	48 89 85 08 f9 ff ff 	mov    %rax,-0x6f8(%rbp)
    d478:	48 8d 85 60 f1 ff ff 	lea    -0xea0(%rbp),%rax
    d47f:	48 89 85 10 f9 ff ff 	mov    %rax,-0x6f0(%rbp)
    d486:	48 8d 05 d3 28 01 00 	lea    0x128d3(%rip),%rax        # 1fd60 <g_155+0x80>
    d48d:	48 89 85 18 f9 ff ff 	mov    %rax,-0x6e8(%rbp)
    d494:	48 8d 05 e1 28 01 00 	lea    0x128e1(%rip),%rax        # 1fd7c <g_155+0x9c>
    d49b:	48 89 85 20 f9 ff ff 	mov    %rax,-0x6e0(%rbp)
    d4a2:	48 8d 05 17 28 01 00 	lea    0x12817(%rip),%rax        # 1fcc0 <g_152>
    d4a9:	48 89 85 b0 f2 ff ff 	mov    %rax,-0xd50(%rbp)
    d4b0:	c7 05 b6 29 01 00 00 	movl   $0x0,0x129b6(%rip)        # 1fe70 <g_481>
    d4b7:	00 00 00 
    d4ba:	90                   	nop
    d4bb:	8b 05 af 29 01 00    	mov    0x129af(%rip),%eax        # 1fe70 <g_481>
    d4c1:	83 f8 28             	cmp    $0x28,%eax
    d4c4:	76 18                	jbe    d4de <func_27+0x9ce>
    d4c6:	48 83 bd 40 f1 ff ff 	cmpq   $0x0,-0xec0(%rbp)
    d4cd:	00 
    d4ce:	75 0d                	jne    d4dd <func_27+0x9cd>
    d4d0:	48 0f be 85 4c f1 ff 	movsbq -0xeb4(%rbp),%rax
    d4d7:	ff 
    d4d8:	e9 25 14 00 00       	jmpq   e902 <func_27+0x1df2>
    d4dd:	90                   	nop
    d4de:	8b 1d 8c 29 01 00    	mov    0x1298c(%rip),%ebx        # 1fe70 <g_481>
    d4e4:	8b 05 b2 29 01 00    	mov    0x129b2(%rip),%eax        # 1fe9c <g_558>
    d4ea:	89 c1                	mov    %eax,%ecx
    d4ec:	8b 85 60 f1 ff ff    	mov    -0xea0(%rbp),%eax
    d4f2:	89 05 78 28 01 00    	mov    %eax,0x12878(%rip)        # 1fd70 <g_155+0x90>
    d4f8:	66 83 bd 48 f1 ff ff 	cmpw   $0x0,-0xeb8(%rbp)
    d4ff:	00 
    d500:	74 20                	je     d522 <func_27+0xa12>
    d502:	8b 85 5c f1 ff ff    	mov    -0xea4(%rbp),%eax
    d508:	48 63 d0             	movslq %eax,%rdx
    d50b:	48 8b 85 b0 f2 ff ff 	mov    -0xd50(%rbp),%rax
    d512:	48 89 10             	mov    %rdx,(%rax)
    d515:	0f be 85 4c f1 ff ff 	movsbl -0xeb4(%rbp),%eax
    d51c:	39 85 38 f1 ff ff    	cmp    %eax,-0xec8(%rbp)
    d522:	89 ce                	mov    %ecx,%esi
    d524:	bf 01 00 00 00       	mov    $0x1,%edi
    d529:	e8 fc 7f ff ff       	callq  552a <safe_rshift_func_int16_t_s_s>
    d52e:	98                   	cwtl   
    d52f:	39 c3                	cmp    %eax,%ebx
    d531:	0f 9f c0             	setg   %al
    d534:	0f b6 c0             	movzbl %al,%eax
    d537:	89 85 3c f1 ff ff    	mov    %eax,-0xec4(%rbp)
    d53d:	0f b6 85 63 f5 ff ff 	movzbl -0xa9d(%rbp),%eax
    d544:	83 e8 01             	sub    $0x1,%eax
    d547:	88 85 63 f5 ff ff    	mov    %al,-0xa9d(%rbp)
    d54d:	c7 05 5d 29 01 00 0f 	movl   $0xf,0x1295d(%rip)        # 1feb4 <g_707>
    d554:	00 00 00 
    d557:	e9 08 13 00 00       	jmpq   e864 <func_27+0x1d54>
    d55c:	66 c7 85 10 f4 ff ff 	movw   $0x1,-0xbf0(%rbp)
    d563:	01 00 
    d565:	66 c7 85 12 f4 ff ff 	movw   $0x3757,-0xbee(%rbp)
    d56c:	57 37 
    d56e:	66 c7 85 14 f4 ff ff 	movw   $0x3a06,-0xbec(%rbp)
    d575:	06 3a 
    d577:	66 c7 85 16 f4 ff ff 	movw   $0xfff6,-0xbea(%rbp)
    d57e:	f6 ff 
    d580:	66 c7 85 18 f4 ff ff 	movw   $0xfff6,-0xbe8(%rbp)
    d587:	f6 ff 
    d589:	66 c7 85 1a f4 ff ff 	movw   $0x3a06,-0xbe6(%rbp)
    d590:	06 3a 
    d592:	66 c7 85 1c f4 ff ff 	movw   $0x3757,-0xbe4(%rbp)
    d599:	57 37 
    d59b:	66 c7 85 1e f4 ff ff 	movw   $0x1,-0xbe2(%rbp)
    d5a2:	01 00 
    d5a4:	66 c7 85 20 f4 ff ff 	movw   $0x3757,-0xbe0(%rbp)
    d5ab:	57 37 
    d5ad:	66 c7 85 22 f4 ff ff 	movw   $0x3a06,-0xbde(%rbp)
    d5b4:	06 3a 
    d5b6:	66 c7 85 24 f4 ff ff 	movw   $0xfff6,-0xbdc(%rbp)
    d5bd:	f6 ff 
    d5bf:	66 c7 85 26 f4 ff ff 	movw   $0xfff6,-0xbda(%rbp)
    d5c6:	f6 ff 
    d5c8:	66 c7 85 28 f4 ff ff 	movw   $0x3a06,-0xbd8(%rbp)
    d5cf:	06 3a 
    d5d1:	66 c7 85 2a f4 ff ff 	movw   $0x3757,-0xbd6(%rbp)
    d5d8:	57 37 
    d5da:	66 c7 85 2c f4 ff ff 	movw   $0x1,-0xbd4(%rbp)
    d5e1:	01 00 
    d5e3:	66 c7 85 2e f4 ff ff 	movw   $0x3757,-0xbd2(%rbp)
    d5ea:	57 37 
    d5ec:	66 c7 85 30 f4 ff ff 	movw   $0x3a06,-0xbd0(%rbp)
    d5f3:	06 3a 
    d5f5:	66 c7 85 32 f4 ff ff 	movw   $0xfff6,-0xbce(%rbp)
    d5fc:	f6 ff 
    d5fe:	66 c7 85 34 f4 ff ff 	movw   $0xfff6,-0xbcc(%rbp)
    d605:	f6 ff 
    d607:	66 c7 85 36 f4 ff ff 	movw   $0x3a06,-0xbca(%rbp)
    d60e:	06 3a 
    d610:	66 c7 85 38 f4 ff ff 	movw   $0x3757,-0xbc8(%rbp)
    d617:	57 37 
    d619:	c7 85 6c f1 ff ff 0f 	movl   $0x7539dc0f,-0xe94(%rbp)
    d620:	dc 39 75 
    d623:	48 8d 05 06 28 01 00 	lea    0x12806(%rip),%rax        # 1fe30 <g_251>
    d62a:	48 89 85 b8 f2 ff ff 	mov    %rax,-0xd48(%rbp)
    d631:	48 8d 05 60 4e 01 00 	lea    0x14e60(%rip),%rax        # 22498 <g_591>
    d638:	48 89 85 18 f2 ff ff 	mov    %rax,-0xde8(%rbp)
    d63f:	48 8d 85 18 f2 ff ff 	lea    -0xde8(%rbp),%rax
    d646:	48 89 85 c0 f2 ff ff 	mov    %rax,-0xd40(%rbp)
    d64d:	c7 85 90 f1 ff ff 0b 	movl   $0x4b2790b,-0xe70(%rbp)
    d654:	79 b2 04 
    d657:	c7 85 94 f1 ff ff c8 	movl   $0x9ee9e7c8,-0xe6c(%rbp)
    d65e:	e7 e9 9e 
    d661:	66 c7 85 70 f3 ff ff 	movw   $0x1,-0xc90(%rbp)
    d668:	01 00 
    d66a:	66 c7 85 72 f3 ff ff 	movw   $0x0,-0xc8e(%rbp)
    d671:	00 00 
    d673:	66 c7 85 74 f3 ff ff 	movw   $0x1,-0xc8c(%rbp)
    d67a:	01 00 
    d67c:	66 c7 85 76 f3 ff ff 	movw   $0x1,-0xc8a(%rbp)
    d683:	01 00 
    d685:	66 c7 85 78 f3 ff ff 	movw   $0x0,-0xc88(%rbp)
    d68c:	00 00 
    d68e:	66 c7 85 7a f3 ff ff 	movw   $0x1,-0xc86(%rbp)
    d695:	01 00 
    d697:	66 c7 85 7c f3 ff ff 	movw   $0x1,-0xc84(%rbp)
    d69e:	01 00 
    d6a0:	66 c7 85 7e f3 ff ff 	movw   $0x0,-0xc82(%rbp)
    d6a7:	00 00 
    d6a9:	66 c7 85 80 f3 ff ff 	movw   $0x1,-0xc80(%rbp)
    d6b0:	01 00 
    d6b2:	c7 85 98 f1 ff ff ff 	movl   $0xffffffff,-0xe68(%rbp)
    d6b9:	ff ff ff 
    d6bc:	c7 85 9c f1 ff ff ff 	movl   $0xffffffff,-0xe64(%rbp)
    d6c3:	ff ff ff 
    d6c6:	c7 85 a0 f1 ff ff fa 	movl   $0xfffffffa,-0xe60(%rbp)
    d6cd:	ff ff ff 
    d6d0:	c7 85 a4 f1 ff ff ff 	movl   $0xffffffff,-0xe5c(%rbp)
    d6d7:	ff ff ff 
    d6da:	c7 85 a8 f1 ff ff 00 	movl   $0x0,-0xe58(%rbp)
    d6e1:	00 00 00 
    d6e4:	48 b8 1f bd a6 77 4e 	movabs $0xa2b9f84e77a6bd1f,%rax
    d6eb:	f8 b9 a2 
    d6ee:	48 89 85 c8 f2 ff ff 	mov    %rax,-0xd38(%rbp)
    d6f5:	c7 85 70 f1 ff ff 05 	movl   $0x5,-0xe90(%rbp)
    d6fc:	00 00 00 
    d6ff:	48 c7 85 d0 f2 ff ff 	movq   $0x0,-0xd30(%rbp)
    d706:	00 00 00 00 
    d70a:	c7 85 ac f1 ff ff 03 	movl   $0x3,-0xe54(%rbp)
    d711:	00 00 00 
    d714:	48 b8 89 ff a8 f2 5f 	movabs $0xd004715ff2a8ff89,%rax
    d71b:	71 04 d0 
    d71e:	48 89 85 d8 f2 ff ff 	mov    %rax,-0xd28(%rbp)
    d725:	48 8d 05 10 27 01 00 	lea    0x12710(%rip),%rax        # 1fe3c <g_261>
    d72c:	48 89 85 e0 f2 ff ff 	mov    %rax,-0xd20(%rbp)
    d733:	48 8d 05 86 4d 01 00 	lea    0x14d86(%rip),%rax        # 224c0 <g_868>
    d73a:	48 89 85 20 f2 ff ff 	mov    %rax,-0xde0(%rbp)
    d741:	c6 85 51 f1 ff ff 00 	movb   $0x0,-0xeaf(%rbp)
    d748:	c7 85 74 f1 ff ff 00 	movl   $0x0,-0xe8c(%rbp)
    d74f:	00 00 00 
    d752:	eb 1e                	jmp    d772 <func_27+0xc62>
    d754:	8b 85 74 f1 ff ff    	mov    -0xe8c(%rbp),%eax
    d75a:	48 98                	cltq   
    d75c:	48 8d 15 75 3e 01 00 	lea    0x13e75(%rip),%rdx        # 215d8 <g_854>
    d763:	48 89 94 c5 b0 f3 ff 	mov    %rdx,-0xc50(%rbp,%rax,8)
    d76a:	ff 
    d76b:	83 85 74 f1 ff ff 01 	addl   $0x1,-0xe8c(%rbp)
    d772:	83 bd 74 f1 ff ff 04 	cmpl   $0x4,-0xe8c(%rbp)
    d779:	7e d9                	jle    d754 <func_27+0xc44>
    d77b:	83 bd 38 f1 ff ff 00 	cmpl   $0x0,-0xec8(%rbp)
    d782:	0f 84 48 07 00 00    	je     ded0 <func_27+0x13c0>
    d788:	48 8d 85 c0 f4 ff ff 	lea    -0xb40(%rbp),%rax
    d78f:	48 05 cd 00 00 00    	add    $0xcd,%rax
    d795:	48 89 85 28 f3 ff ff 	mov    %rax,-0xcd8(%rbp)
    d79c:	c7 85 d8 f1 ff ff 8e 	movl   $0x8ffb688e,-0xe28(%rbp)
    d7a3:	68 fb 8f 
    d7a6:	c7 85 70 f4 ff ff 44 	movl   $0x3ae2d444,-0xb90(%rbp)
    d7ad:	d4 e2 3a 
    d7b0:	c7 85 74 f4 ff ff ff 	movl   $0xffffffff,-0xb8c(%rbp)
    d7b7:	ff ff ff 
    d7ba:	c7 85 78 f4 ff ff ff 	movl   $0xffffffff,-0xb88(%rbp)
    d7c1:	ff ff ff 
    d7c4:	c7 85 7c f4 ff ff ba 	movl   $0xa4cea2ba,-0xb84(%rbp)
    d7cb:	a2 ce a4 
    d7ce:	c7 85 80 f4 ff ff 80 	movl   $0x5c363280,-0xb80(%rbp)
    d7d5:	32 36 5c 
    d7d8:	c7 85 84 f4 ff ff 80 	movl   $0x5c363280,-0xb7c(%rbp)
    d7df:	32 36 5c 
    d7e2:	c7 85 88 f4 ff ff 44 	movl   $0x3ae2d444,-0xb78(%rbp)
    d7e9:	d4 e2 3a 
    d7ec:	c7 85 8c f4 ff ff 80 	movl   $0x5c363280,-0xb74(%rbp)
    d7f3:	32 36 5c 
    d7f6:	c7 85 90 f4 ff ff 80 	movl   $0x5c363280,-0xb70(%rbp)
    d7fd:	32 36 5c 
    d800:	c7 85 94 f4 ff ff ba 	movl   $0xa4cea2ba,-0xb6c(%rbp)
    d807:	a2 ce a4 
    d80a:	c7 85 98 f4 ff ff ff 	movl   $0xffffffff,-0xb68(%rbp)
    d811:	ff ff ff 
    d814:	c7 85 9c f4 ff ff ff 	movl   $0xffffffff,-0xb64(%rbp)
    d81b:	ff ff ff 
    d81e:	c7 85 a0 f4 ff ff 44 	movl   $0x3ae2d444,-0xb60(%rbp)
    d825:	d4 e2 3a 
    d828:	c7 85 a4 f4 ff ff ff 	movl   $0xffffffff,-0xb5c(%rbp)
    d82f:	ff ff ff 
    d832:	c7 85 a8 f4 ff ff ff 	movl   $0xffffffff,-0xb58(%rbp)
    d839:	ff ff ff 
    d83c:	c7 85 ac f4 ff ff ba 	movl   $0xa4cea2ba,-0xb54(%rbp)
    d843:	a2 ce a4 
    d846:	c7 85 b0 f4 ff ff ff 	movl   $0xffffffff,-0xb50(%rbp)
    d84d:	ff ff ff 
    d850:	c7 85 b4 f4 ff ff ff 	movl   $0xffffffff,-0xb4c(%rbp)
    d857:	ff ff ff 
    d85a:	c7 85 b8 f4 ff ff 44 	movl   $0x3ae2d444,-0xb48(%rbp)
    d861:	d4 e2 3a 
    d864:	c7 85 bc f4 ff ff ff 	movl   $0xffffffff,-0xb44(%rbp)
    d86b:	ff ff ff 
    d86e:	c6 85 54 f1 ff ff 7f 	movb   $0x7f,-0xeac(%rbp)
    d875:	48 8b 05 f4 3c 01 00 	mov    0x13cf4(%rip),%rax        # 21570 <g_260>
    d87c:	0f b7 00             	movzwl (%rax),%eax
    d87f:	66 85 c0             	test   %ax,%ax
    d882:	74 0a                	je     d88e <func_27+0xd7e>
    d884:	0f b7 85 22 f4 ff ff 	movzwl -0xbde(%rbp),%eax
    d88b:	66 85 c0             	test   %ax,%ax
    d88e:	80 bd 4c f1 ff ff 00 	cmpb   $0x0,-0xeb4(%rbp)
    d895:	0f 9e c0             	setle  %al
    d898:	0f b6 d8             	movzbl %al,%ebx
    d89b:	0f b7 85 14 f4 ff ff 	movzwl -0xbec(%rbp),%eax
    d8a2:	66 83 f8 ff          	cmp    $0xffff,%ax
    d8a6:	0f 95 c0             	setne  %al
    d8a9:	0f b6 c0             	movzbl %al,%eax
    d8ac:	be 01 00 00 00       	mov    $0x1,%esi
    d8b1:	89 c7                	mov    %eax,%edi
    d8b3:	e8 94 83 ff ff       	callq  5c4c <safe_lshift_func_uint8_t_u_u>
    d8b8:	0f b6 c0             	movzbl %al,%eax
    d8bb:	39 c3                	cmp    %eax,%ebx
    d8bd:	0f be 9d 4c f1 ff ff 	movsbl -0xeb4(%rbp),%ebx
    d8c4:	8b 05 62 17 01 00    	mov    0x11762(%rip),%eax        # 1f02c <g_4>
    d8ca:	44 0f b6 e0          	movzbl %al,%r12d
    d8ce:	48 8b 05 9b 3c 01 00 	mov    0x13c9b(%rip),%rax        # 21570 <g_260>
    d8d5:	0f b7 00             	movzwl (%rax),%eax
    d8d8:	0f b7 c0             	movzwl %ax,%eax
    d8db:	39 85 38 f1 ff ff    	cmp    %eax,-0xec8(%rbp)
    d8e1:	0f 95 c0             	setne  %al
    d8e4:	0f b6 d0             	movzbl %al,%edx
    d8e7:	48 8b 05 7a 25 01 00 	mov    0x1257a(%rip),%rax        # 1fe68 <g_471>
    d8ee:	0f b6 c0             	movzbl %al,%eax
    d8f1:	89 d6                	mov    %edx,%esi
    d8f3:	89 c7                	mov    %eax,%edi
    d8f5:	e8 7e 82 ff ff       	callq  5b78 <safe_sub_func_uint8_t_u_u>
    d8fa:	0f b6 c0             	movzbl %al,%eax
    d8fd:	44 89 e6             	mov    %r12d,%esi
    d900:	89 c7                	mov    %eax,%edi
    d902:	e8 8c 82 ff ff       	callq  5b93 <safe_mul_func_uint8_t_u_u>
    d907:	0f b6 c0             	movzbl %al,%eax
    d90a:	89 de                	mov    %ebx,%esi
    d90c:	89 c7                	mov    %eax,%edi
    d90e:	e8 35 85 ff ff       	callq  5e48 <safe_rshift_func_uint16_t_u_s>
    d913:	ba 00 00 00 00       	mov    $0x0,%edx
    d918:	48 8b 85 28 f3 ff ff 	mov    -0xcd8(%rbp),%rax
    d91f:	0f b6 00             	movzbl (%rax),%eax
    d922:	31 c2                	xor    %eax,%edx
    d924:	48 8b 85 28 f3 ff ff 	mov    -0xcd8(%rbp),%rax
    d92b:	88 10                	mov    %dl,(%rax)
    d92d:	48 8b 85 28 f3 ff ff 	mov    -0xcd8(%rbp),%rax
    d934:	0f b6 00             	movzbl (%rax),%eax
    d937:	0f b6 d0             	movzbl %al,%edx
    d93a:	0f b7 05 0f 26 01 00 	movzwl 0x1260f(%rip),%eax        # 1ff50 <g_741>
    d941:	0f b7 c0             	movzwl %ax,%eax
    d944:	39 c2                	cmp    %eax,%edx
    d946:	0f 9c c0             	setl   %al
    d949:	0f b6 d0             	movzbl %al,%edx
    d94c:	8b 85 3c f1 ff ff    	mov    -0xec4(%rbp),%eax
    d952:	39 c2                	cmp    %eax,%edx
    d954:	0f 8d 3a 04 00 00    	jge    dd94 <func_27+0x1284>
    d95a:	48 c7 85 40 f3 ff ff 	movq   $0x0,-0xcc0(%rbp)
    d961:	00 00 00 00 
    d965:	48 8d 05 54 1b 01 00 	lea    0x11b54(%rip),%rax        # 1f4c0 <g_140>
    d96c:	48 89 85 40 f4 ff ff 	mov    %rax,-0xbc0(%rbp)
    d973:	48 8d 05 46 1b 01 00 	lea    0x11b46(%rip),%rax        # 1f4c0 <g_140>
    d97a:	48 89 85 48 f4 ff ff 	mov    %rax,-0xbb8(%rbp)
    d981:	48 8d 05 38 1b 01 00 	lea    0x11b38(%rip),%rax        # 1f4c0 <g_140>
    d988:	48 89 85 50 f4 ff ff 	mov    %rax,-0xbb0(%rbp)
    d98f:	48 8d 05 2a 1b 01 00 	lea    0x11b2a(%rip),%rax        # 1f4c0 <g_140>
    d996:	48 89 85 58 f4 ff ff 	mov    %rax,-0xba8(%rbp)
    d99d:	c7 85 dc f1 ff ff 01 	movl   $0x1,-0xe24(%rbp)
    d9a4:	00 00 00 
    d9a7:	48 8d 95 a0 f6 ff ff 	lea    -0x960(%rbp),%rdx
    d9ae:	b8 00 00 00 00       	mov    $0x0,%eax
    d9b3:	b9 1e 00 00 00       	mov    $0x1e,%ecx
    d9b8:	48 89 d7             	mov    %rdx,%rdi
    d9bb:	f3 48 ab             	rep stos %rax,%es:(%rdi)
    d9be:	48 8d 85 10 f4 ff ff 	lea    -0xbf0(%rbp),%rax
    d9c5:	48 83 c0 0a          	add    $0xa,%rax
    d9c9:	48 89 85 48 f3 ff ff 	mov    %rax,-0xcb8(%rbp)
    d9d0:	c7 85 e0 f1 ff ff c9 	movl   $0x143f9cc9,-0xe20(%rbp)
    d9d7:	9c 3f 14 
    d9da:	c7 85 e4 f1 ff ff 73 	movl   $0x529e0573,-0xe1c(%rbp)
    d9e1:	05 9e 52 
    d9e4:	c7 85 e8 f1 ff ff 01 	movl   $0x1,-0xe18(%rbp)
    d9eb:	00 00 00 
    d9ee:	c7 85 ec f1 ff ff 2a 	movl   $0xa7b6f02a,-0xe14(%rbp)
    d9f5:	f0 b6 a7 
    d9f8:	c7 85 f0 f1 ff ff 09 	movl   $0x9,-0xe10(%rbp)
    d9ff:	00 00 00 
    da02:	c7 85 f4 f1 ff ff 01 	movl   $0x1,-0xe0c(%rbp)
    da09:	00 00 00 
    da0c:	48 c7 85 28 f2 ff ff 	movq   $0x0,-0xdd8(%rbp)
    da13:	00 00 00 00 
    da17:	48 8d 85 28 f2 ff ff 	lea    -0xdd8(%rbp),%rax
    da1e:	48 89 85 50 f3 ff ff 	mov    %rax,-0xcb0(%rbp)
    da25:	0f b7 85 22 f4 ff ff 	movzwl -0xbde(%rbp),%eax
    da2c:	0f bf d8             	movswl %ax,%ebx
    da2f:	8b 85 dc f1 ff ff    	mov    -0xe24(%rbp),%eax
    da35:	0f be d0             	movsbl %al,%edx
    da38:	8b 85 9c f4 ff ff    	mov    -0xb64(%rbp),%eax
    da3e:	83 f0 01             	xor    $0x1,%eax
    da41:	89 85 9c f4 ff ff    	mov    %eax,-0xb64(%rbp)
    da47:	8b 85 9c f4 ff ff    	mov    -0xb64(%rbp),%eax
    da4d:	48 98                	cltq   
    da4f:	48 89 05 6a 1a 01 00 	mov    %rax,0x11a6a(%rip)        # 1f4c0 <g_140>
    da56:	48 8b 05 13 3b 01 00 	mov    0x13b13(%rip),%rax        # 21570 <g_260>
    da5d:	0f b7 00             	movzwl (%rax),%eax
    da60:	66 85 c0             	test   %ax,%ax
    da63:	0f 95 c0             	setne  %al
    da66:	89 c1                	mov    %eax,%ecx
    da68:	8b 85 6c f1 ff ff    	mov    -0xe94(%rbp),%eax
    da6e:	09 c8                	or     %ecx,%eax
    da70:	0f be c0             	movsbl %al,%eax
    da73:	89 d6                	mov    %edx,%esi
    da75:	89 c7                	mov    %eax,%edi
    da77:	e8 96 77 ff ff       	callq  5212 <safe_mul_func_int8_t_s_s>
    da7c:	0f be d0             	movsbl %al,%edx
    da7f:	48 8b 85 70 f2 ff ff 	mov    -0xd90(%rbp),%rax
    da86:	89 10                	mov    %edx,(%rax)
    da88:	be 00 00 00 00       	mov    $0x0,%esi
    da8d:	bf 8a 91 00 00       	mov    $0x918a,%edi
    da92:	e8 a6 82 ff ff       	callq  5d3d <safe_mul_func_uint16_t_u_u>
    da97:	0f be 85 4c f1 ff ff 	movsbl -0xeb4(%rbp),%eax
    da9e:	be 00 00 00 00       	mov    $0x0,%esi
    daa3:	89 c7                	mov    %eax,%edi
    daa5:	e8 09 79 ff ff       	callq  53b3 <safe_add_func_int16_t_s_s>
    daaa:	89 de                	mov    %ebx,%esi
    daac:	bf 01 00 00 00       	mov    $0x1,%edi
    dab1:	e8 ad 7a ff ff       	callq  5563 <safe_rshift_func_int16_t_s_u>
    dab6:	98                   	cwtl   
    dab7:	c1 e0 06             	shl    $0x6,%eax
    daba:	c1 f8 06             	sar    $0x6,%eax
    dabd:	0f b7 15 6a 1d 01 00 	movzwl 0x11d6a(%rip),%edx        # 1f82e <g_142+0x34e>
    dac4:	0f b7 0d 65 1d 01 00 	movzwl 0x11d65(%rip),%ecx        # 1f830 <g_142+0x350>
    dacb:	81 e1 ff 03 00 00    	and    $0x3ff,%ecx
    dad1:	48 c1 e1 10          	shl    $0x10,%rcx
    dad5:	48 09 ca             	or     %rcx,%rdx
    dad8:	48 c1 e2 26          	shl    $0x26,%rdx
    dadc:	48 c1 fa 26          	sar    $0x26,%rdx
    dae0:	39 d0                	cmp    %edx,%eax
    dae2:	c6 85 55 f1 ff ff a7 	movb   $0xa7,-0xeab(%rbp)
    dae9:	c6 85 56 f1 ff ff ff 	movb   $0xff,-0xeaa(%rbp)
    daf0:	48 c7 85 58 f3 ff ff 	movq   $0xffffffffffffffff,-0xca8(%rbp)
    daf7:	ff ff ff ff 
    dafb:	c6 85 57 f1 ff ff 00 	movb   $0x0,-0xea9(%rbp)
    db02:	c7 85 f8 f1 ff ff 89 	movl   $0xe2819c89,-0xe08(%rbp)
    db09:	9c 81 e2 
    db0c:	c7 85 fc f1 ff ff fb 	movl   $0xfffffffb,-0xe04(%rbp)
    db13:	ff ff ff 
    db16:	c7 85 78 f1 ff ff 00 	movl   $0x0,-0xe88(%rbp)
    db1d:	00 00 00 
    db20:	eb 1a                	jmp    db3c <func_27+0x102c>
    db22:	8b 85 78 f1 ff ff    	mov    -0xe88(%rbp),%eax
    db28:	48 98                	cltq   
    db2a:	c7 84 85 e0 f3 ff ff 	movl   $0x81258f92,-0xc20(%rbp,%rax,4)
    db31:	92 8f 25 81 
    db35:	83 85 78 f1 ff ff 01 	addl   $0x1,-0xe88(%rbp)
    db3c:	83 bd 78 f1 ff ff 02 	cmpl   $0x2,-0xe88(%rbp)
    db43:	7e dd                	jle    db22 <func_27+0x1012>
    db45:	80 85 54 f1 ff ff 01 	addb   $0x1,-0xeac(%rbp)
    db4c:	0f b6 05 9e 22 01 00 	movzbl 0x1229e(%rip),%eax        # 1fdf1 <g_236+0x51>
    db53:	83 f0 f4             	xor    $0xfffffff4,%eax
    db56:	88 05 95 22 01 00    	mov    %al,0x12295(%rip)        # 1fdf1 <g_236+0x51>
    db5c:	48 8b 05 1d 3a 01 00 	mov    0x13a1d(%rip),%rax        # 21580 <g_376>
    db63:	48 8b 00             	mov    (%rax),%rax
    db66:	0f b6 00             	movzbl (%rax),%eax
    db69:	0f be d8             	movsbl %al,%ebx
    db6c:	48 8b 85 40 f1 ff ff 	mov    -0xec0(%rbp),%rax
    db73:	48 89 c6             	mov    %rax,%rsi
    db76:	bf 01 00 00 00       	mov    $0x1,%edi
    db7b:	e8 77 7e ff ff       	callq  59f7 <safe_div_func_int64_t_s_s>
    db80:	48 3d c9 48 eb 62    	cmp    $0x62eb48c9,%rax
    db86:	7e 09                	jle    db91 <func_27+0x1081>
    db88:	83 bd a4 f1 ff ff 00 	cmpl   $0x0,-0xe5c(%rbp)
    db8f:	74 07                	je     db98 <func_27+0x1088>
    db91:	b8 01 00 00 00       	mov    $0x1,%eax
    db96:	eb 05                	jmp    db9d <func_27+0x108d>
    db98:	b8 00 00 00 00       	mov    $0x0,%eax
    db9d:	89 c2                	mov    %eax,%edx
    db9f:	8b 85 e4 f3 ff ff    	mov    -0xc1c(%rbp),%eax
    dba5:	09 d0                	or     %edx,%eax
    dba7:	0f be c0             	movsbl %al,%eax
    dbaa:	89 de                	mov    %ebx,%esi
    dbac:	89 c7                	mov    %eax,%edi
    dbae:	e8 7e 76 ff ff       	callq  5231 <safe_mod_func_int8_t_s_s>
    dbb3:	0f be d0             	movsbl %al,%edx
    dbb6:	0f bf 85 48 f1 ff ff 	movswl -0xeb8(%rbp),%eax
    dbbd:	39 c2                	cmp    %eax,%edx
    dbbf:	0f 9e c0             	setle  %al
    dbc2:	0f b6 c0             	movzbl %al,%eax
    dbc5:	be 04 00 00 00       	mov    $0x4,%esi
    dbca:	89 c7                	mov    %eax,%edi
    dbcc:	e8 ed 80 ff ff       	callq  5cbe <safe_rshift_func_uint8_t_u_u>
    dbd1:	0f b6 c0             	movzbl %al,%eax
    dbd4:	8b 95 e4 f3 ff ff    	mov    -0xc1c(%rbp),%edx
    dbda:	39 95 9c f1 ff ff    	cmp    %edx,-0xe64(%rbp)
    dbe0:	74 1e                	je     dc00 <func_27+0x10f0>
    dbe2:	8b 15 8c 48 01 00    	mov    0x1488c(%rip),%edx        # 22474 <g_398+0x14>
    dbe8:	85 d2                	test   %edx,%edx
    dbea:	75 0d                	jne    dbf9 <func_27+0x10e9>
    dbec:	48 8b 95 60 f2 ff ff 	mov    -0xda0(%rbp),%rdx
    dbf3:	8b 12                	mov    (%rdx),%edx
    dbf5:	85 d2                	test   %edx,%edx
    dbf7:	74 07                	je     dc00 <func_27+0x10f0>
    dbf9:	ba 01 00 00 00       	mov    $0x1,%edx
    dbfe:	eb 05                	jmp    dc05 <func_27+0x10f5>
    dc00:	ba 00 00 00 00       	mov    $0x0,%edx
    dc05:	89 c6                	mov    %eax,%esi
    dc07:	89 d7                	mov    %edx,%edi
    dc09:	e8 f7 79 ff ff       	callq  5605 <safe_sub_func_int32_t_s_s>
    dc0e:	ba 01 00 00 00       	mov    $0x1,%edx
    dc13:	48 8b 85 80 f2 ff ff 	mov    -0xd80(%rbp),%rax
    dc1a:	8b 00                	mov    (%rax),%eax
    dc1c:	31 c2                	xor    %eax,%edx
    dc1e:	48 8b 85 80 f2 ff ff 	mov    -0xd80(%rbp),%rax
    dc25:	89 10                	mov    %edx,(%rax)
    dc27:	48 8b 85 80 f2 ff ff 	mov    -0xd80(%rbp),%rax
    dc2e:	8b 10                	mov    (%rax),%edx
    dc30:	48 8b 85 38 f2 ff ff 	mov    -0xdc8(%rbp),%rax
    dc37:	89 10                	mov    %edx,(%rax)
    dc39:	83 85 f4 f1 ff ff 01 	addl   $0x1,-0xe0c(%rbp)
    dc40:	48 8b 85 50 f3 ff ff 	mov    -0xcb0(%rbp),%rax
    dc47:	48 89 05 92 39 01 00 	mov    %rax,0x13992(%rip)        # 215e0 <g_853>
    dc4e:	48 c7 05 27 23 01 00 	movq   $0x0,0x12327(%rip)        # 1ff80 <g_857>
    dc55:	00 00 00 00 
    dc59:	48 c7 05 24 23 01 00 	movq   $0x0,0x12324(%rip)        # 1ff88 <g_857+0x8>
    dc60:	00 00 00 00 
    dc64:	48 c7 05 21 23 01 00 	movq   $0x0,0x12321(%rip)        # 1ff90 <g_857+0x10>
    dc6b:	00 00 00 00 
    dc6f:	c7 05 1f 23 01 00 00 	movl   $0x0,0x1231f(%rip)        # 1ff98 <g_857+0x18>
    dc76:	00 00 00 
    dc79:	8b 05 01 23 01 00    	mov    0x12301(%rip),%eax        # 1ff80 <g_857>
    dc7f:	25 00 00 f8 ff       	and    $0xfff80000,%eax
    dc84:	0d 97 02 00 00       	or     $0x297,%eax
    dc89:	89 05 f1 22 01 00    	mov    %eax,0x122f1(%rip)        # 1ff80 <g_857>
    dc8f:	48 8b 05 ea 22 01 00 	mov    0x122ea(%rip),%rax        # 1ff80 <g_857>
    dc96:	48 ba ff ff 07 00 00 	movabs $0xffff00000007ffff,%rdx
    dc9d:	00 ff ff 
    dca0:	48 21 c2             	and    %rax,%rdx
    dca3:	48 b8 00 00 50 f0 fe 	movabs $0xfffef0500000,%rax
    dcaa:	ff 00 00 
    dcad:	48 09 d0             	or     %rdx,%rax
    dcb0:	48 89 05 c9 22 01 00 	mov    %rax,0x122c9(%rip)        # 1ff80 <g_857>
    dcb7:	0f b7 05 c8 22 01 00 	movzwl 0x122c8(%rip),%eax        # 1ff86 <g_857+0x6>
    dcbe:	83 e0 00             	and    $0x0,%eax
    dcc1:	66 0d 3f 03          	or     $0x33f,%ax
    dcc5:	66 89 05 ba 22 01 00 	mov    %ax,0x122ba(%rip)        # 1ff86 <g_857+0x6>
    dccc:	0f b7 05 b5 22 01 00 	movzwl 0x122b5(%rip),%eax        # 1ff88 <g_857+0x8>
    dcd3:	66 25 00 fc          	and    $0xfc00,%ax
    dcd7:	66 89 05 aa 22 01 00 	mov    %ax,0x122aa(%rip)        # 1ff88 <g_857+0x8>
    dcde:	8b 05 a8 22 01 00    	mov    0x122a8(%rip),%eax        # 1ff8c <g_857+0xc>
    dce4:	25 00 00 00 ff       	and    $0xff000000,%eax
    dce9:	0d 3d 03 00 00       	or     $0x33d,%eax
    dcee:	89 05 98 22 01 00    	mov    %eax,0x12298(%rip)        # 1ff8c <g_857+0xc>
    dcf4:	0f b6 05 94 22 01 00 	movzbl 0x12294(%rip),%eax        # 1ff8f <g_857+0xf>
    dcfb:	83 e0 00             	and    $0x0,%eax
    dcfe:	83 c8 05             	or     $0x5,%eax
    dd01:	88 05 88 22 01 00    	mov    %al,0x12288(%rip)        # 1ff8f <g_857+0xf>
    dd07:	0f b7 05 82 22 01 00 	movzwl 0x12282(%rip),%eax        # 1ff90 <g_857+0x10>
    dd0e:	66 25 00 f8          	and    $0xf800,%ax
    dd12:	66 89 05 77 22 01 00 	mov    %ax,0x12277(%rip)        # 1ff90 <g_857+0x10>
    dd19:	8b 05 71 22 01 00    	mov    0x12271(%rip),%eax        # 1ff90 <g_857+0x10>
    dd1f:	25 ff 07 00 00       	and    $0x7ff,%eax
    dd24:	0d 00 d8 6a 00       	or     $0x6ad800,%eax
    dd29:	89 05 61 22 01 00    	mov    %eax,0x12261(%rip)        # 1ff90 <g_857+0x10>
    dd2f:	0f b6 05 5e 22 01 00 	movzbl 0x1225e(%rip),%eax        # 1ff94 <g_857+0x14>
    dd36:	83 e0 80             	and    $0xffffff80,%eax
    dd39:	88 05 55 22 01 00    	mov    %al,0x12255(%rip)        # 1ff94 <g_857+0x14>
    dd3f:	8b 05 4f 22 01 00    	mov    0x1224f(%rip),%eax        # 1ff94 <g_857+0x14>
    dd45:	83 e0 7f             	and    $0x7f,%eax
    dd48:	0d 00 31 fc ff       	or     $0xfffc3100,%eax
    dd4d:	89 05 41 22 01 00    	mov    %eax,0x12241(%rip)        # 1ff94 <g_857+0x14>
    dd53:	0f b6 05 3e 22 01 00 	movzbl 0x1223e(%rip),%eax        # 1ff98 <g_857+0x18>
    dd5a:	83 c8 1f             	or     $0x1f,%eax
    dd5d:	88 05 35 22 01 00    	mov    %al,0x12235(%rip)        # 1ff98 <g_857+0x18>
    dd63:	0f b7 05 2e 22 01 00 	movzwl 0x1222e(%rip),%eax        # 1ff98 <g_857+0x18>
    dd6a:	66 25 1f e0          	and    $0xe01f,%ax
    dd6e:	66 0d a0 01          	or     $0x1a0,%ax
    dd72:	66 89 05 1f 22 01 00 	mov    %ax,0x1221f(%rip)        # 1ff98 <g_857+0x18>
    dd79:	8b 05 19 22 01 00    	mov    0x12219(%rip),%eax        # 1ff98 <g_857+0x18>
    dd7f:	25 ff 1f 00 fe       	and    $0xfe001fff,%eax
    dd84:	0d 00 e0 05 00       	or     $0x5e000,%eax
    dd89:	89 05 09 22 01 00    	mov    %eax,0x12209(%rip)        # 1ff98 <g_857+0x18>
    dd8f:	e9 2f 01 00 00       	jmpq   dec3 <func_27+0x13b3>
    dd94:	48 c7 85 30 f3 ff ff 	movq   $0x0,-0xcd0(%rbp)
    dd9b:	00 00 00 00 
    dd9f:	c7 85 6c f1 ff ff 00 	movl   $0x0,-0xe94(%rbp)
    dda6:	00 00 00 
    dda9:	e9 08 01 00 00       	jmpq   deb6 <func_27+0x13a6>
    ddae:	48 c7 85 38 f3 ff ff 	movq   $0x0,-0xcc8(%rbp)
    ddb5:	00 00 00 00 
    ddb9:	c7 85 70 f1 ff ff 01 	movl   $0x1,-0xe90(%rbp)
    ddc0:	00 00 00 
    ddc3:	e9 b6 00 00 00       	jmpq   de7e <func_27+0x136e>
    ddc8:	48 8d 05 d1 37 01 00 	lea    0x137d1(%rip),%rax        # 215a0 <g_539>
    ddcf:	48 8b 00             	mov    (%rax),%rax
    ddd2:	48 8b 00             	mov    (%rax),%rax
    ddd5:	48 8b 00             	mov    (%rax),%rax
    ddd8:	48 8b 00             	mov    (%rax),%rax
    dddb:	48 8b 0d be 21 01 00 	mov    0x121be(%rip),%rcx        # 1ffa0 <g_860>
    dde2:	48 8b 1d bf 21 01 00 	mov    0x121bf(%rip),%rbx        # 1ffa8 <g_860+0x8>
    dde9:	48 89 08             	mov    %rcx,(%rax)
    ddec:	48 89 58 08          	mov    %rbx,0x8(%rax)
    ddf0:	48 8b 15 b9 21 01 00 	mov    0x121b9(%rip),%rdx        # 1ffb0 <g_860+0x10>
    ddf7:	48 89 50 10          	mov    %rdx,0x10(%rax)
    ddfb:	8b 15 b7 21 01 00    	mov    0x121b7(%rip),%edx        # 1ffb8 <g_860+0x18>
    de01:	89 50 18             	mov    %edx,0x18(%rax)
    de04:	48 8b 15 bd 37 01 00 	mov    0x137bd(%rip),%rdx        # 215c8 <g_795>
    de0b:	48 8b 05 6e 39 01 00 	mov    0x1396e(%rip),%rax        # 21780 <g_862>
    de12:	48 8b 12             	mov    (%rdx),%rdx
    de15:	48 89 10             	mov    %rdx,(%rax)
    de18:	8b 85 38 f1 ff ff    	mov    -0xec8(%rbp),%eax
    de1e:	0f be c8             	movsbl %al,%ecx
    de21:	8b 85 70 f1 ff ff    	mov    -0xe90(%rbp),%eax
    de27:	83 c0 04             	add    $0x4,%eax
    de2a:	48 63 f0             	movslq %eax,%rsi
    de2d:	8b 85 70 f1 ff ff    	mov    -0xe90(%rbp),%eax
    de33:	48 63 d0             	movslq %eax,%rdx
    de36:	48 89 d0             	mov    %rdx,%rax
    de39:	48 01 c0             	add    %rax,%rax
    de3c:	48 01 d0             	add    %rdx,%rax
    de3f:	48 c1 e0 03          	shl    $0x3,%rax
    de43:	48 8d 14 30          	lea    (%rax,%rsi,1),%rdx
    de47:	48 8d 05 52 1f 01 00 	lea    0x11f52(%rip),%rax        # 1fda0 <g_236>
    de4e:	48 01 d0             	add    %rdx,%rax
    de51:	0f b6 00             	movzbl (%rax),%eax
    de54:	0f be c0             	movsbl %al,%eax
    de57:	89 ce                	mov    %ecx,%esi
    de59:	89 c7                	mov    %eax,%edi
    de5b:	e8 d1 73 ff ff       	callq  5231 <safe_mod_func_int8_t_s_s>
    de60:	48 8b 95 70 f2 ff ff 	mov    -0xd90(%rbp),%rdx
    de67:	8b 12                	mov    (%rdx),%edx
    de69:	0f be c0             	movsbl %al,%eax
    de6c:	31 c2                	xor    %eax,%edx
    de6e:	48 8b 85 70 f2 ff ff 	mov    -0xd90(%rbp),%rax
    de75:	89 10                	mov    %edx,(%rax)
    de77:	83 ad 70 f1 ff ff 01 	subl   $0x1,-0xe90(%rbp)
    de7e:	83 bd 70 f1 ff ff 00 	cmpl   $0x0,-0xe90(%rbp)
    de85:	0f 89 3d ff ff ff    	jns    ddc8 <func_27+0x12b8>
    de8b:	48 8b 05 f6 38 01 00 	mov    0x138f6(%rip),%rax        # 21788 <g_867>
    de92:	48 8b 95 30 f3 ff ff 	mov    -0xcd0(%rbp),%rdx
    de99:	48 89 10             	mov    %rdx,(%rax)
    de9c:	8b 85 6c f1 ff ff    	mov    -0xe94(%rbp),%eax
    dea2:	98                   	cwtl   
    dea3:	be 05 00 00 00       	mov    $0x5,%esi
    dea8:	89 c7                	mov    %eax,%edi
    deaa:	e8 04 75 ff ff       	callq  53b3 <safe_add_func_int16_t_s_s>
    deaf:	98                   	cwtl   
    deb0:	89 85 6c f1 ff ff    	mov    %eax,-0xe94(%rbp)
    deb6:	83 bd 6c f1 ff ff 15 	cmpl   $0x15,-0xe94(%rbp)
    debd:	0f 86 eb fe ff ff    	jbe    ddae <func_27+0x129e>
    dec3:	8b 85 9c f4 ff ff    	mov    -0xb64(%rbp),%eax
    dec9:	48 98                	cltq   
    decb:	e9 32 0a 00 00       	jmpq   e902 <func_27+0x1df2>
    ded0:	66 c7 85 e0 f3 ff ff 	movw   $0x3f59,-0xc20(%rbp)
    ded7:	59 3f 
    ded9:	66 c7 85 e2 f3 ff ff 	movw   $0xffff,-0xc1e(%rbp)
    dee0:	ff ff 
    dee2:	66 c7 85 e4 f3 ff ff 	movw   $0x9,-0xc1c(%rbp)
    dee9:	09 00 
    deeb:	66 c7 85 e6 f3 ff ff 	movw   $0x9,-0xc1a(%rbp)
    def2:	09 00 
    def4:	66 c7 85 e8 f3 ff ff 	movw   $0x7,-0xc18(%rbp)
    defb:	07 00 
    defd:	66 c7 85 ea f3 ff ff 	movw   $0x7,-0xc16(%rbp)
    df04:	07 00 
    df06:	66 c7 85 ec f3 ff ff 	movw   $0x3f59,-0xc14(%rbp)
    df0d:	59 3f 
    df0f:	66 c7 85 ee f3 ff ff 	movw   $0x9,-0xc12(%rbp)
    df16:	09 00 
    df18:	66 c7 85 f0 f3 ff ff 	movw   $0x4833,-0xc10(%rbp)
    df1f:	33 48 
    df21:	66 c7 85 f2 f3 ff ff 	movw   $0xffff,-0xc0e(%rbp)
    df28:	ff ff 
    df2a:	66 c7 85 f4 f3 ff ff 	movw   $0x4833,-0xc0c(%rbp)
    df31:	33 48 
    df33:	66 c7 85 f6 f3 ff ff 	movw   $0x3f59,-0xc0a(%rbp)
    df3a:	59 3f 
    df3c:	66 c7 85 f8 f3 ff ff 	movw   $0x4833,-0xc08(%rbp)
    df43:	33 48 
    df45:	66 c7 85 fa f3 ff ff 	movw   $0x3f59,-0xc06(%rbp)
    df4c:	59 3f 
    df4e:	66 c7 85 fc f3 ff ff 	movw   $0x3f59,-0xc04(%rbp)
    df55:	59 3f 
    df57:	66 c7 85 fe f3 ff ff 	movw   $0x4833,-0xc02(%rbp)
    df5e:	33 48 
    df60:	66 c7 85 00 f4 ff ff 	movw   $0x7,-0xc00(%rbp)
    df67:	07 00 
    df69:	66 c7 85 02 f4 ff ff 	movw   $0x3f59,-0xbfe(%rbp)
    df70:	59 3f 
    df72:	66 c7 85 04 f4 ff ff 	movw   $0x9,-0xbfc(%rbp)
    df79:	09 00 
    df7b:	66 c7 85 06 f4 ff ff 	movw   $0x3f59,-0xbfa(%rbp)
    df82:	59 3f 
    df84:	48 8d 05 35 1d 01 00 	lea    0x11d35(%rip),%rax        # 1fcc0 <g_152>
    df8b:	48 89 85 e8 f2 ff ff 	mov    %rax,-0xd18(%rbp)
    df92:	48 8d 05 f7 44 01 00 	lea    0x144f7(%rip),%rax        # 22490 <g_451>
    df99:	48 89 85 f0 f2 ff ff 	mov    %rax,-0xd10(%rbp)
    dfa0:	48 c7 85 f8 f2 ff ff 	movq   $0x0,-0xd08(%rbp)
    dfa7:	00 00 00 00 
    dfab:	c7 85 b0 f1 ff ff 1d 	movl   $0xa40a281d,-0xe50(%rbp)
    dfb2:	28 0a a4 
    dfb5:	c7 85 7c f1 ff ff 00 	movl   $0x0,-0xe84(%rbp)
    dfbc:	00 00 00 
    dfbf:	eb 1a                	jmp    dfdb <func_27+0x14cb>
    dfc1:	8b 85 7c f1 ff ff    	mov    -0xe84(%rbp),%eax
    dfc7:	48 98                	cltq   
    dfc9:	c7 84 85 90 f3 ff ff 	movl   $0x8bd5b1ed,-0xc70(%rbp,%rax,4)
    dfd0:	ed b1 d5 8b 
    dfd4:	83 85 7c f1 ff ff 01 	addl   $0x1,-0xe84(%rbp)
    dfdb:	83 bd 7c f1 ff ff 05 	cmpl   $0x5,-0xe84(%rbp)
    dfe2:	7e dd                	jle    dfc1 <func_27+0x14b1>
    dfe4:	48 8b 05 e5 35 01 00 	mov    0x135e5(%rip),%rax        # 215d0 <g_804>
    dfeb:	48 8b 95 d0 f2 ff ff 	mov    -0xd30(%rbp),%rdx
    dff2:	48 89 10             	mov    %rdx,(%rax)
    dff5:	83 bd ac f1 ff ff 00 	cmpl   $0x0,-0xe54(%rbp)
    dffc:	0f 84 3c 02 00 00    	je     e23e <func_27+0x172e>
    e002:	c7 85 d4 f1 ff ff 88 	movl   $0x84aeae88,-0xe2c(%rbp)
    e009:	ae ae 84 
    e00c:	c7 05 22 1e 01 00 00 	movl   $0x0,0x11e22(%rip)        # 1fe38 <g_253>
    e013:	00 00 00 
    e016:	e9 45 01 00 00       	jmpq   e160 <func_27+0x1650>
    e01b:	48 8d 05 e7 1d 01 00 	lea    0x11de7(%rip),%rax        # 1fe09 <g_236+0x69>
    e022:	48 89 85 18 f3 ff ff 	mov    %rax,-0xce8(%rbp)
    e029:	48 8d 85 60 f1 ff ff 	lea    -0xea0(%rbp),%rax
    e030:	48 89 85 20 f3 ff ff 	mov    %rax,-0xce0(%rbp)
    e037:	48 8b 05 42 35 01 00 	mov    0x13542(%rip),%rax        # 21580 <g_376>
    e03e:	48 8b 00             	mov    (%rax),%rax
    e041:	0f b6 10             	movzbl (%rax),%edx
    e044:	48 8b 85 18 f3 ff ff 	mov    -0xce8(%rbp),%rax
    e04b:	88 10                	mov    %dl,(%rax)
    e04d:	48 8b 85 18 f3 ff ff 	mov    -0xce8(%rbp),%rax
    e054:	0f b6 00             	movzbl (%rax),%eax
    e057:	0f be d0             	movsbl %al,%edx
    e05a:	48 8b 85 20 f3 ff ff 	mov    -0xce0(%rbp),%rax
    e061:	0f b6 00             	movzbl (%rax),%eax
    e064:	8d 48 01             	lea    0x1(%rax),%ecx
    e067:	48 8b 85 20 f3 ff ff 	mov    -0xce0(%rbp),%rax
    e06e:	88 08                	mov    %cl,(%rax)
    e070:	48 8b 85 20 f3 ff ff 	mov    -0xce0(%rbp),%rax
    e077:	0f b6 00             	movzbl (%rax),%eax
    e07a:	0f b6 c0             	movzbl %al,%eax
    e07d:	39 c2                	cmp    %eax,%edx
    e07f:	48 8b 85 c8 f3 ff ff 	mov    -0xc38(%rbp),%rax
    e086:	48 89 85 f8 f2 ff ff 	mov    %rax,-0xd08(%rbp)
    e08d:	66 83 bd 48 f1 ff ff 	cmpw   $0x0,-0xeb8(%rbp)
    e094:	00 
    e095:	74 07                	je     e09e <func_27+0x158e>
    e097:	ba 01 00 00 00       	mov    $0x1,%edx
    e09c:	eb 05                	jmp    e0a3 <func_27+0x1593>
    e09e:	ba 00 00 00 00       	mov    $0x0,%edx
    e0a3:	0f bf 85 48 f1 ff ff 	movswl -0xeb8(%rbp),%eax
    e0aa:	39 c2                	cmp    %eax,%edx
    e0ac:	0f 9e c0             	setle  %al
    e0af:	0f b6 d0             	movzbl %al,%edx
    e0b2:	48 8b 85 38 f2 ff ff 	mov    -0xdc8(%rbp),%rax
    e0b9:	8b 00                	mov    (%rax),%eax
    e0bb:	39 c2                	cmp    %eax,%edx
    e0bd:	0f 94 c0             	sete   %al
    e0c0:	0f b6 c0             	movzbl %al,%eax
    e0c3:	39 85 90 f1 ff ff    	cmp    %eax,-0xe70(%rbp)
    e0c9:	0f 9f c0             	setg   %al
    e0cc:	0f b6 c0             	movzbl %al,%eax
    e0cf:	48 8b 95 40 f1 ff ff 	mov    -0xec0(%rbp),%rdx
    e0d6:	09 d0                	or     %edx,%eax
    e0d8:	89 c2                	mov    %eax,%edx
    e0da:	48 8b 05 9f 1d 01 00 	mov    0x11d9f(%rip),%rax        # 1fe80 <g_543>
    e0e1:	25 ff ff 07 00       	and    $0x7ffff,%eax
    e0e6:	0f b6 c0             	movzbl %al,%eax
    e0e9:	89 d6                	mov    %edx,%esi
    e0eb:	89 c7                	mov    %eax,%edi
    e0ed:	e8 5a 7b ff ff       	callq  5c4c <safe_lshift_func_uint8_t_u_u>
    e0f2:	48 8b 85 30 f2 ff ff 	mov    -0xdd0(%rbp),%rax
    e0f9:	48 3b 85 f0 f2 ff ff 	cmp    -0xd10(%rbp),%rax
    e100:	0f 94 c0             	sete   %al
    e103:	0f b6 c0             	movzbl %al,%eax
    e106:	48 be d0 01 d0 e6 6a 	movabs $0xc061c36ae6d001d0,%rsi
    e10d:	c3 61 c0 
    e110:	48 89 c7             	mov    %rax,%rdi
    e113:	e8 16 7f ff ff       	callq  602e <safe_add_func_uint64_t_u_u>
    e118:	0f b7 c0             	movzwl %ax,%eax
    e11b:	be b7 d4 00 00       	mov    $0xd4b7,%esi
    e120:	89 c7                	mov    %eax,%edi
    e122:	e8 d8 7b ff ff       	callq  5cff <safe_add_func_uint16_t_u_u>
    e127:	48 8b 95 48 f2 ff ff 	mov    -0xdb8(%rbp),%rdx
    e12e:	8b 12                	mov    (%rdx),%edx
    e130:	0f b7 c0             	movzwl %ax,%eax
    e133:	31 c2                	xor    %eax,%edx
    e135:	48 8b 85 48 f2 ff ff 	mov    -0xdb8(%rbp),%rax
    e13c:	89 10                	mov    %edx,(%rax)
    e13e:	83 bd d4 f1 ff ff 00 	cmpl   $0x0,-0xe2c(%rbp)
    e145:	8b 05 ed 1c 01 00    	mov    0x11ced(%rip),%eax        # 1fe38 <g_253>
    e14b:	89 c0                	mov    %eax,%eax
    e14d:	be 06 00 00 00       	mov    $0x6,%esi
    e152:	48 89 c7             	mov    %rax,%rdi
    e155:	e8 d4 7e ff ff       	callq  602e <safe_add_func_uint64_t_u_u>
    e15a:	89 05 d8 1c 01 00    	mov    %eax,0x11cd8(%rip)        # 1fe38 <g_253>
    e160:	8b 05 d2 1c 01 00    	mov    0x11cd2(%rip),%eax        # 1fe38 <g_253>
    e166:	83 f8 29             	cmp    $0x29,%eax
    e169:	0f 87 ac fe ff ff    	ja     e01b <func_27+0x150b>
    e16f:	48 0f be 85 4c f1 ff 	movsbq -0xeb4(%rbp),%rax
    e176:	ff 
    e177:	48 39 85 40 f1 ff ff 	cmp    %rax,-0xec0(%rbp)
    e17e:	0f 95 c0             	setne  %al
    e181:	0f b6 d0             	movzbl %al,%edx
    e184:	48 8b 85 70 f2 ff ff 	mov    -0xd90(%rbp),%rax
    e18b:	89 10                	mov    %edx,(%rax)
    e18d:	48 83 bd d8 f2 ff ff 	cmpq   $0x0,-0xd28(%rbp)
    e194:	00 
    e195:	0f 85 da 06 00 00    	jne    e875 <func_27+0x1d65>
    e19b:	81 a5 b0 f1 ff ff c3 	andl   $0xc3,-0xe50(%rbp)
    e1a2:	00 00 00 
    e1a5:	8b 85 b0 f1 ff ff    	mov    -0xe50(%rbp),%eax
    e1ab:	0f be c0             	movsbl %al,%eax
    e1ae:	be 02 00 00 00       	mov    $0x2,%esi
    e1b3:	89 c7                	mov    %eax,%edi
    e1b5:	e8 34 71 ff ff       	callq  52ee <safe_lshift_func_int8_t_s_u>
    e1ba:	0f be c8             	movsbl %al,%ecx
    e1bd:	48 83 bd e0 f2 ff ff 	cmpq   $0x0,-0xd20(%rbp)
    e1c4:	00 
    e1c5:	0f 94 c0             	sete   %al
    e1c8:	0f b6 d0             	movzbl %al,%edx
    e1cb:	48 8b 85 70 f2 ff ff 	mov    -0xd90(%rbp),%rax
    e1d2:	89 10                	mov    %edx,(%rax)
    e1d4:	48 8b 85 70 f2 ff ff 	mov    -0xd90(%rbp),%rax
    e1db:	8b 00                	mov    (%rax),%eax
    e1dd:	21 c1                	and    %eax,%ecx
    e1df:	89 ca                	mov    %ecx,%edx
    e1e1:	0f b7 85 70 f3 ff ff 	movzwl -0xc90(%rbp),%eax
    e1e8:	98                   	cwtl   
    e1e9:	39 c2                	cmp    %eax,%edx
    e1eb:	0f 9d c2             	setge  %dl
    e1ee:	0f b7 85 ea f3 ff ff 	movzwl -0xc16(%rbp),%eax
    e1f5:	98                   	cwtl   
    e1f6:	39 85 38 f1 ff ff    	cmp    %eax,-0xec8(%rbp)
    e1fc:	0f 94 c0             	sete   %al
    e1ff:	09 d0                	or     %edx,%eax
    e201:	0f b6 d0             	movzbl %al,%edx
    e204:	48 8b 85 e8 f2 ff ff 	mov    -0xd18(%rbp),%rax
    e20b:	48 c7 00 07 00 00 00 	movq   $0x7,(%rax)
    e212:	48 8b 85 e8 f2 ff ff 	mov    -0xd18(%rbp),%rax
    e219:	48 8b 00             	mov    (%rax),%rax
    e21c:	48 39 c2             	cmp    %rax,%rdx
    e21f:	0f 94 c0             	sete   %al
    e222:	0f b6 d0             	movzbl %al,%edx
    e225:	48 8b 85 58 f2 ff ff 	mov    -0xda8(%rbp),%rax
    e22c:	8b 00                	mov    (%rax),%eax
    e22e:	21 c2                	and    %eax,%edx
    e230:	48 8b 85 58 f2 ff ff 	mov    -0xda8(%rbp),%rax
    e237:	89 10                	mov    %edx,(%rax)
    e239:	e9 17 06 00 00       	jmpq   e855 <func_27+0x1d45>
    e23e:	c7 85 80 f1 ff ff 01 	movl   $0x1,-0xe80(%rbp)
    e245:	00 00 00 
    e248:	48 c7 85 40 f4 ff ff 	movq   $0x0,-0xbc0(%rbp)
    e24f:	00 00 00 00 
    e253:	48 c7 85 48 f4 ff ff 	movq   $0x0,-0xbb8(%rbp)
    e25a:	00 00 00 00 
    e25e:	48 c7 85 50 f4 ff ff 	movq   $0x0,-0xbb0(%rbp)
    e265:	00 00 00 00 
    e269:	48 c7 85 58 f4 ff ff 	movq   $0x0,-0xba8(%rbp)
    e270:	00 00 00 00 
    e274:	48 c7 85 60 f4 ff ff 	movq   $0x0,-0xba0(%rbp)
    e27b:	00 00 00 00 
    e27f:	48 c7 85 68 f4 ff ff 	movq   $0x0,-0xb98(%rbp)
    e286:	00 00 00 00 
    e28a:	c7 85 b4 f1 ff ff f7 	movl   $0xfffffff7,-0xe4c(%rbp)
    e291:	ff ff ff 
    e294:	c7 85 84 f1 ff ff 00 	movl   $0x0,-0xe7c(%rbp)
    e29b:	00 00 00 
    e29e:	eb 46                	jmp    e2e6 <func_27+0x17d6>
    e2a0:	c7 85 88 f1 ff ff 00 	movl   $0x0,-0xe78(%rbp)
    e2a7:	00 00 00 
    e2aa:	eb 2a                	jmp    e2d6 <func_27+0x17c6>
    e2ac:	8b 85 88 f1 ff ff    	mov    -0xe78(%rbp),%eax
    e2b2:	48 98                	cltq   
    e2b4:	8b 95 84 f1 ff ff    	mov    -0xe7c(%rbp),%edx
    e2ba:	48 63 d2             	movslq %edx,%rdx
    e2bd:	48 c1 e2 02          	shl    $0x2,%rdx
    e2c1:	48 01 d0             	add    %rdx,%rax
    e2c4:	c7 84 85 70 f4 ff ff 	movl   $0x6,-0xb90(%rbp,%rax,4)
    e2cb:	06 00 00 00 
    e2cf:	83 85 88 f1 ff ff 01 	addl   $0x1,-0xe78(%rbp)
    e2d6:	83 bd 88 f1 ff ff 03 	cmpl   $0x3,-0xe78(%rbp)
    e2dd:	7e cd                	jle    e2ac <func_27+0x179c>
    e2df:	83 85 84 f1 ff ff 01 	addl   $0x1,-0xe7c(%rbp)
    e2e6:	83 bd 84 f1 ff ff 02 	cmpl   $0x2,-0xe7c(%rbp)
    e2ed:	7e b1                	jle    e2a0 <func_27+0x1790>
    e2ef:	c7 05 bf 11 01 00 00 	movl   $0x0,0x111bf(%rip)        # 1f4b8 <g_107>
    e2f6:	00 00 00 
    e2f9:	e9 49 05 00 00       	jmpq   e847 <func_27+0x1d37>
    e2fe:	c7 85 28 f2 ff ff e7 	movl   $0xf1e400e7,-0xdd8(%rbp)
    e305:	00 e4 f1 
    e308:	66 c7 85 58 f1 ff ff 	movw   $0x9,-0xea8(%rbp)
    e30f:	09 00 
    e311:	48 8d 05 d2 1a 01 00 	lea    0x11ad2(%rip),%rax        # 1fdea <g_236+0x4a>
    e318:	48 89 85 a0 f6 ff ff 	mov    %rax,-0x960(%rbp)
    e31f:	48 8d 05 c4 1a 01 00 	lea    0x11ac4(%rip),%rax        # 1fdea <g_236+0x4a>
    e326:	48 89 85 a8 f6 ff ff 	mov    %rax,-0x958(%rbp)
    e32d:	48 8d 05 b6 1a 01 00 	lea    0x11ab6(%rip),%rax        # 1fdea <g_236+0x4a>
    e334:	48 89 85 b0 f6 ff ff 	mov    %rax,-0x950(%rbp)
    e33b:	48 8d 05 a8 1a 01 00 	lea    0x11aa8(%rip),%rax        # 1fdea <g_236+0x4a>
    e342:	48 89 85 b8 f6 ff ff 	mov    %rax,-0x948(%rbp)
    e349:	48 8d 05 9a 1a 01 00 	lea    0x11a9a(%rip),%rax        # 1fdea <g_236+0x4a>
    e350:	48 89 85 c0 f6 ff ff 	mov    %rax,-0x940(%rbp)
    e357:	48 8d 05 8c 1a 01 00 	lea    0x11a8c(%rip),%rax        # 1fdea <g_236+0x4a>
    e35e:	48 89 85 c8 f6 ff ff 	mov    %rax,-0x938(%rbp)
    e365:	48 8d 05 7e 1a 01 00 	lea    0x11a7e(%rip),%rax        # 1fdea <g_236+0x4a>
    e36c:	48 89 85 d0 f6 ff ff 	mov    %rax,-0x930(%rbp)
    e373:	48 8d 05 70 1a 01 00 	lea    0x11a70(%rip),%rax        # 1fdea <g_236+0x4a>
    e37a:	48 89 85 d8 f6 ff ff 	mov    %rax,-0x928(%rbp)
    e381:	48 8d 05 62 1a 01 00 	lea    0x11a62(%rip),%rax        # 1fdea <g_236+0x4a>
    e388:	48 89 85 e0 f6 ff ff 	mov    %rax,-0x920(%rbp)
    e38f:	48 8d 05 54 1a 01 00 	lea    0x11a54(%rip),%rax        # 1fdea <g_236+0x4a>
    e396:	48 89 85 e8 f6 ff ff 	mov    %rax,-0x918(%rbp)
    e39d:	48 8d 05 46 1a 01 00 	lea    0x11a46(%rip),%rax        # 1fdea <g_236+0x4a>
    e3a4:	48 89 85 f0 f6 ff ff 	mov    %rax,-0x910(%rbp)
    e3ab:	48 8d 05 38 1a 01 00 	lea    0x11a38(%rip),%rax        # 1fdea <g_236+0x4a>
    e3b2:	48 89 85 f8 f6 ff ff 	mov    %rax,-0x908(%rbp)
    e3b9:	c7 85 b8 f1 ff ff ff 	movl   $0xffffffff,-0xe48(%rbp)
    e3c0:	ff ff ff 
    e3c3:	66 c7 85 5a f1 ff ff 	movw   $0x9b7c,-0xea6(%rbp)
    e3ca:	7c 9b 
    e3cc:	48 8d 85 c0 f4 ff ff 	lea    -0xb40(%rbp),%rax
    e3d3:	48 83 c0 1c          	add    $0x1c,%rax
    e3d7:	48 89 85 00 f3 ff ff 	mov    %rax,-0xd00(%rbp)
    e3de:	48 8d 85 20 f2 ff ff 	lea    -0xde0(%rbp),%rax
    e3e5:	48 89 85 08 f3 ff ff 	mov    %rax,-0xcf8(%rbp)
    e3ec:	c7 85 bc f1 ff ff 01 	movl   $0x1,-0xe44(%rbp)
    e3f3:	00 00 00 
    e3f6:	c7 85 c0 f1 ff ff f7 	movl   $0xfffffff7,-0xe40(%rbp)
    e3fd:	ff ff ff 
    e400:	c6 85 60 f1 ff ff 00 	movb   $0x0,-0xea0(%rbp)
    e407:	e9 c8 00 00 00       	jmpq   e4d4 <func_27+0x19c4>
    e40c:	48 8d 05 8d 31 01 00 	lea    0x1318d(%rip),%rax        # 215a0 <g_539>
    e413:	48 8b 00             	mov    (%rax),%rax
    e416:	48 8b 00             	mov    (%rax),%rax
    e419:	48 8b 00             	mov    (%rax),%rax
    e41c:	48 8b 10             	mov    (%rax),%rdx
    e41f:	48 8b 05 62 31 01 00 	mov    0x13162(%rip),%rax        # 21588 <g_542>
    e426:	48 8b 0a             	mov    (%rdx),%rcx
    e429:	48 8b 5a 08          	mov    0x8(%rdx),%rbx
    e42d:	48 89 08             	mov    %rcx,(%rax)
    e430:	48 89 58 08          	mov    %rbx,0x8(%rax)
    e434:	48 8b 4a 10          	mov    0x10(%rdx),%rcx
    e438:	48 89 48 10          	mov    %rcx,0x10(%rax)
    e43c:	8b 52 18             	mov    0x18(%rdx),%edx
    e43f:	89 50 18             	mov    %edx,0x18(%rax)
    e442:	8b 05 70 10 01 00    	mov    0x11070(%rip),%eax        # 1f4b8 <g_107>
    e448:	8d 48 04             	lea    0x4(%rax),%ecx
    e44b:	0f b6 85 60 f1 ff ff 	movzbl -0xea0(%rbp),%eax
    e452:	0f b6 d0             	movzbl %al,%edx
    e455:	8b 05 5d 10 01 00    	mov    0x1105d(%rip),%eax        # 1f4b8 <g_107>
    e45b:	83 c0 01             	add    $0x1,%eax
    e45e:	48 98                	cltq   
    e460:	48 63 c9             	movslq %ecx,%rcx
    e463:	48 63 d2             	movslq %edx,%rdx
    e466:	48 c1 e1 03          	shl    $0x3,%rcx
    e46a:	48 01 ca             	add    %rcx,%rdx
    e46d:	48 c1 e2 02          	shl    $0x2,%rdx
    e471:	48 8d 5d d0          	lea    -0x30(%rbp),%rbx
    e475:	48 01 da             	add    %rbx,%rdx
    e478:	48 01 d0             	add    %rdx,%rax
    e47b:	48 2d 10 0b 00 00    	sub    $0xb10,%rax
    e481:	0f b6 00             	movzbl (%rax),%eax
    e484:	84 c0                	test   %al,%al
    e486:	75 3b                	jne    e4c3 <func_27+0x19b3>
    e488:	8b 05 2a 10 01 00    	mov    0x1102a(%rip),%eax        # 1f4b8 <g_107>
    e48e:	8d 50 05             	lea    0x5(%rax),%edx
    e491:	8b 05 21 10 01 00    	mov    0x11021(%rip),%eax        # 1f4b8 <g_107>
    e497:	83 c0 06             	add    $0x6,%eax
    e49a:	48 63 c8             	movslq %eax,%rcx
    e49d:	48 63 d2             	movslq %edx,%rdx
    e4a0:	48 89 d0             	mov    %rdx,%rax
    e4a3:	48 c1 e0 03          	shl    $0x3,%rax
    e4a7:	48 29 d0             	sub    %rdx,%rax
    e4aa:	48 01 c8             	add    %rcx,%rax
    e4ad:	48 8d 14 85 00 00 00 	lea    0x0(,%rax,4),%rdx
    e4b4:	00 
    e4b5:	48 8d 05 e4 0e 01 00 	lea    0x10ee4(%rip),%rax        # 1f3a0 <g_102>
    e4bc:	8b 04 02             	mov    (%rdx,%rax,1),%eax
    e4bf:	85 c0                	test   %eax,%eax
    e4c1:	eb 01                	jmp    e4c4 <func_27+0x19b4>
    e4c3:	90                   	nop
    e4c4:	0f b6 85 60 f1 ff ff 	movzbl -0xea0(%rbp),%eax
    e4cb:	83 c0 01             	add    $0x1,%eax
    e4ce:	88 85 60 f1 ff ff    	mov    %al,-0xea0(%rbp)
    e4d4:	0f b6 85 60 f1 ff ff 	movzbl -0xea0(%rbp),%eax
    e4db:	3c 06                	cmp    $0x6,%al
    e4dd:	0f 86 29 ff ff ff    	jbe    e40c <func_27+0x18fc>
    e4e3:	66 c7 05 50 19 01 00 	movw   $0x0,0x11950(%rip)        # 1fe3c <g_261>
    e4ea:	00 00 
    e4ec:	90                   	nop
    e4ed:	0f b7 05 48 19 01 00 	movzwl 0x11948(%rip),%eax        # 1fe3c <g_261>
    e4f4:	66 85 c0             	test   %ax,%ax
    e4f7:	75 27                	jne    e520 <func_27+0x1a10>
    e4f9:	48 8b 05 68 30 01 00 	mov    0x13068(%rip),%rax        # 21568 <g_255>
    e500:	48 8b 00             	mov    (%rax),%rax
    e503:	48 89 85 08 f2 ff ff 	mov    %rax,-0xdf8(%rbp)
    e50a:	48 8b 05 57 1a 01 00 	mov    0x11a57(%rip),%rax        # 1ff68 <g_779+0x8>
    e511:	48 c1 e0 08          	shl    $0x8,%rax
    e515:	48 c1 f8 28          	sar    $0x28,%rax
    e519:	48 98                	cltq   
    e51b:	e9 e2 03 00 00       	jmpq   e902 <func_27+0x1df2>
    e520:	48 8b 85 40 f1 ff ff 	mov    -0xec0(%rbp),%rax
    e527:	89 85 34 f1 ff ff    	mov    %eax,-0xecc(%rbp)
    e52d:	8b 85 38 f1 ff ff    	mov    -0xec8(%rbp),%eax
    e533:	0f b6 d8             	movzbl %al,%ebx
    e536:	8b 85 28 f2 ff ff    	mov    -0xdd8(%rbp),%eax
    e53c:	44 0f be e0          	movsbl %al,%r12d
    e540:	be 70 00 00 00       	mov    $0x70,%esi
    e545:	bf 64 00 00 00       	mov    $0x64,%edi
    e54a:	e8 29 76 ff ff       	callq  5b78 <safe_sub_func_uint8_t_u_u>
    e54f:	44 0f b6 f8          	movzbl %al,%r15d
    e553:	0f b6 85 28 f2 ff ff 	movzbl -0xdd8(%rbp),%eax
    e55a:	44 0f b6 e8          	movzbl %al,%r13d
    e55e:	48 8b 85 48 f2 ff ff 	mov    -0xdb8(%rbp),%rax
    e565:	44 8b 30             	mov    (%rax),%r14d
    e568:	0f bf 95 58 f1 ff ff 	movswl -0xea8(%rbp),%edx
    e56f:	48 8b 05 c2 12 01 00 	mov    0x112c2(%rip),%rax        # 1f838 <g_142+0x358>
    e576:	8b 85 38 f1 ff ff    	mov    -0xec8(%rbp),%eax
    e57c:	89 d6                	mov    %edx,%esi
    e57e:	89 c7                	mov    %eax,%edi
    e580:	e8 a0 79 ff ff       	callq  5f25 <safe_div_func_uint32_t_u_u>
    e585:	85 c0                	test   %eax,%eax
    e587:	74 07                	je     e590 <func_27+0x1a80>
    e589:	b8 01 00 00 00       	mov    $0x1,%eax
    e58e:	eb 05                	jmp    e595 <func_27+0x1a85>
    e590:	b8 00 00 00 00       	mov    $0x0,%eax
    e595:	44 89 f6             	mov    %r14d,%esi
    e598:	89 c7                	mov    %eax,%edi
    e59a:	e8 17 70 ff ff       	callq  55b6 <safe_add_func_int32_t_s_s>
    e59f:	44 89 ee             	mov    %r13d,%esi
    e5a2:	89 c7                	mov    %eax,%edi
    e5a4:	e8 54 79 ff ff       	callq  5efd <safe_mod_func_uint32_t_u_u>
    e5a9:	0f bf 85 58 f1 ff ff 	movswl -0xea8(%rbp),%eax
    e5b0:	be ec 87 ff ff       	mov    $0xffff87ec,%esi
    e5b5:	89 c7                	mov    %eax,%edi
    e5b7:	e8 f7 6d ff ff       	callq  53b3 <safe_add_func_int16_t_s_s>
    e5bc:	66 85 c0             	test   %ax,%ax
    e5bf:	75 0c                	jne    e5cd <func_27+0x1abd>
    e5c1:	0f b7 85 fa f3 ff ff 	movzwl -0xc06(%rbp),%eax
    e5c8:	66 85 c0             	test   %ax,%ax
    e5cb:	74 07                	je     e5d4 <func_27+0x1ac4>
    e5cd:	b8 01 00 00 00       	mov    $0x1,%eax
    e5d2:	eb 05                	jmp    e5d9 <func_27+0x1ac9>
    e5d4:	b8 00 00 00 00       	mov    $0x0,%eax
    e5d9:	44 39 f8             	cmp    %r15d,%eax
    e5dc:	0f 9e c0             	setle  %al
    e5df:	0f b6 c0             	movzbl %al,%eax
    e5e2:	89 c6                	mov    %eax,%esi
    e5e4:	bf fe 8a 00 00       	mov    $0x8afe,%edi
    e5e9:	e8 18 78 ff ff       	callq  5e06 <safe_lshift_func_uint16_t_u_u>
    e5ee:	88 85 4c f1 ff ff    	mov    %al,-0xeb4(%rbp)
    e5f4:	0f be 85 4c f1 ff ff 	movsbl -0xeb4(%rbp),%eax
    e5fb:	89 85 b8 f1 ff ff    	mov    %eax,-0xe48(%rbp)
    e601:	8b 85 b8 f1 ff ff    	mov    -0xe48(%rbp),%eax
    e607:	66 89 85 5a f1 ff ff 	mov    %ax,-0xea6(%rbp)
    e60e:	0f b7 85 5a f1 ff ff 	movzwl -0xea6(%rbp),%eax
    e615:	0f be c0             	movsbl %al,%eax
    e618:	44 89 e6             	mov    %r12d,%esi
    e61b:	89 c7                	mov    %eax,%edi
    e61d:	e8 d0 6b ff ff       	callq  51f2 <safe_sub_func_int8_t_s_s>
    e622:	0f be d0             	movsbl %al,%edx
    e625:	48 8b 85 58 f2 ff ff 	mov    -0xda8(%rbp),%rax
    e62c:	89 10                	mov    %edx,(%rax)
    e62e:	48 8b 85 58 f2 ff ff 	mov    -0xda8(%rbp),%rax
    e635:	8b 10                	mov    (%rax),%edx
    e637:	8b 85 3c f1 ff ff    	mov    -0xec4(%rbp),%eax
    e63d:	31 d0                	xor    %edx,%eax
    e63f:	21 85 80 f1 ff ff    	and    %eax,-0xe80(%rbp)
    e645:	bf fd 00 00 00       	mov    $0xfd,%edi
    e64a:	e8 f6 74 ff ff       	callq  5b45 <safe_unary_minus_func_uint8_t_u>
    e64f:	b8 01 00 00 00       	mov    $0x1,%eax
    e654:	89 c2                	mov    %eax,%edx
    e656:	48 8b 85 00 f3 ff ff 	mov    -0xd00(%rbp),%rax
    e65d:	88 10                	mov    %dl,(%rax)
    e65f:	48 8b 85 00 f3 ff ff 	mov    -0xd00(%rbp),%rax
    e666:	0f b6 00             	movzbl (%rax),%eax
    e669:	0f b6 c0             	movzbl %al,%eax
    e66c:	89 de                	mov    %ebx,%esi
    e66e:	89 c7                	mov    %eax,%edi
    e670:	e8 66 75 ff ff       	callq  5bdb <safe_div_func_uint8_t_u_u>
    e675:	0f b6 d0             	movzbl %al,%edx
    e678:	0f b7 05 e9 18 01 00 	movzwl 0x118e9(%rip),%eax        # 1ff68 <g_779+0x8>
    e67f:	66 25 ff 3f          	and    $0x3fff,%ax
    e683:	0f b7 c0             	movzwl %ax,%eax
    e686:	21 d0                	and    %edx,%eax
    e688:	48 98                	cltq   
    e68a:	48 39 85 40 f1 ff ff 	cmp    %rax,-0xec0(%rbp)
    e691:	0f 94 c0             	sete   %al
    e694:	0f b6 d0             	movzbl %al,%edx
    e697:	8b 85 38 f1 ff ff    	mov    -0xec8(%rbp),%eax
    e69d:	48 89 d6             	mov    %rdx,%rsi
    e6a0:	48 89 c7             	mov    %rax,%rdi
    e6a3:	e8 00 72 ff ff       	callq  58a8 <safe_sub_func_int64_t_s_s>
    e6a8:	48 8b 85 50 f4 ff ff 	mov    -0xbb0(%rbp),%rax
    e6af:	48 85 c0             	test   %rax,%rax
    e6b2:	0f 94 c0             	sete   %al
    e6b5:	0f b6 d0             	movzbl %al,%edx
    e6b8:	0f bf 85 48 f1 ff ff 	movswl -0xeb8(%rbp),%eax
    e6bf:	31 d0                	xor    %edx,%eax
    e6c1:	8b b5 34 f1 ff ff    	mov    -0xecc(%rbp),%esi
    e6c7:	89 c7                	mov    %eax,%edi
    e6c9:	e8 31 70 ff ff       	callq  56ff <safe_div_func_int32_t_s_s>
    e6ce:	48 63 d0             	movslq %eax,%rdx
    e6d1:	48 8b 05 90 17 01 00 	mov    0x11790(%rip),%rax        # 1fe68 <g_471>
    e6d8:	48 09 d0             	or     %rdx,%rax
    e6db:	48 89 05 86 17 01 00 	mov    %rax,0x11786(%rip)        # 1fe68 <g_471>
    e6e2:	48 8b 95 20 f2 ff ff 	mov    -0xde0(%rbp),%rdx
    e6e9:	48 8b 85 08 f3 ff ff 	mov    -0xcf8(%rbp),%rax
    e6f0:	48 89 10             	mov    %rdx,(%rax)
    e6f3:	48 8b 85 08 f3 ff ff 	mov    -0xcf8(%rbp),%rax
    e6fa:	48 8b 00             	mov    (%rax),%rax
    e6fd:	48 8d 15 bc 3d 01 00 	lea    0x13dbc(%rip),%rdx        # 224c0 <g_868>
    e704:	48 39 d0             	cmp    %rdx,%rax
    e707:	75 58                	jne    e761 <func_27+0x1c51>
    e709:	c6 85 52 f1 ff ff 09 	movb   $0x9,-0xeae(%rbp)
    e710:	c7 85 c4 f1 ff ff 52 	movl   $0x2d945952,-0xe3c(%rbp)
    e717:	59 94 2d 
    e71a:	c7 85 c8 f1 ff ff 00 	movl   $0x0,-0xe38(%rbp)
    e721:	00 00 00 
    e724:	c7 85 cc f1 ff ff fd 	movl   $0xfffffffd,-0xe34(%rbp)
    e72b:	ff ff ff 
    e72e:	c7 85 d0 f1 ff ff 01 	movl   $0x1,-0xe30(%rbp)
    e735:	00 00 00 
    e738:	48 8b 85 08 f3 ff ff 	mov    -0xcf8(%rbp),%rax
    e73f:	48 8b 10             	mov    (%rax),%rdx
    e742:	48 8b 05 3f 30 01 00 	mov    0x1303f(%rip),%rax        # 21788 <g_867>
    e749:	48 8b 12             	mov    (%rdx),%rdx
    e74c:	48 89 10             	mov    %rdx,(%rax)
    e74f:	0f b6 05 67 18 01 00 	movzbl 0x11867(%rip),%eax        # 1ffbd <g_944+0x1>
    e756:	83 e8 01             	sub    $0x1,%eax
    e759:	88 05 5e 18 01 00    	mov    %al,0x1185e(%rip)        # 1ffbd <g_944+0x1>
    e75f:	eb 47                	jmp    e7a8 <func_27+0x1c98>
    e761:	48 8b 05 38 2e 01 00 	mov    0x12e38(%rip),%rax        # 215a0 <g_539>
    e768:	48 8b 00             	mov    (%rax),%rax
    e76b:	48 8b 00             	mov    (%rax),%rax
    e76e:	48 8b 00             	mov    (%rax),%rax
    e771:	48 8b 0d 48 18 01 00 	mov    0x11848(%rip),%rcx        # 1ffc0 <g_947>
    e778:	48 8b 1d 49 18 01 00 	mov    0x11849(%rip),%rbx        # 1ffc8 <g_947+0x8>
    e77f:	48 89 08             	mov    %rcx,(%rax)
    e782:	48 89 58 08          	mov    %rbx,0x8(%rax)
    e786:	48 8b 15 43 18 01 00 	mov    0x11843(%rip),%rdx        # 1ffd0 <g_947+0x10>
    e78d:	48 89 50 10          	mov    %rdx,0x10(%rax)
    e791:	8b 15 41 18 01 00    	mov    0x11841(%rip),%edx        # 1ffd8 <g_947+0x18>
    e797:	89 50 18             	mov    %edx,0x18(%rax)
    e79a:	8b 85 9c f3 ff ff    	mov    -0xc64(%rbp),%eax
    e7a0:	85 c0                	test   %eax,%eax
    e7a2:	0f 85 8f 00 00 00    	jne    e837 <func_27+0x1d27>
    e7a8:	c7 85 60 f1 ff ff 00 	movl   $0x0,-0xea0(%rbp)
    e7af:	00 00 00 
    e7b2:	eb 49                	jmp    e7fd <func_27+0x1ced>
    e7b4:	c6 85 53 f1 ff ff ff 	movb   $0xff,-0xead(%rbp)
    e7bb:	48 8d 85 a0 f5 ff ff 	lea    -0xa60(%rbp),%rax
    e7c2:	48 83 c0 78          	add    $0x78,%rax
    e7c6:	48 89 85 10 f3 ff ff 	mov    %rax,-0xcf0(%rbp)
    e7cd:	0f b6 85 51 f1 ff ff 	movzbl -0xeaf(%rbp),%eax
    e7d4:	83 e8 01             	sub    $0x1,%eax
    e7d7:	88 85 51 f1 ff ff    	mov    %al,-0xeaf(%rbp)
    e7dd:	48 8b 85 10 f3 ff ff 	mov    -0xcf0(%rbp),%rax
    e7e4:	48 8d 95 3c f1 ff ff 	lea    -0xec4(%rbp),%rdx
    e7eb:	48 89 10             	mov    %rdx,(%rax)
    e7ee:	8b 85 60 f1 ff ff    	mov    -0xea0(%rbp),%eax
    e7f4:	83 c0 01             	add    $0x1,%eax
    e7f7:	89 85 60 f1 ff ff    	mov    %eax,-0xea0(%rbp)
    e7fd:	8b 85 60 f1 ff ff    	mov    -0xea0(%rbp),%eax
    e803:	83 f8 06             	cmp    $0x6,%eax
    e806:	76 ac                	jbe    e7b4 <func_27+0x1ca4>
    e808:	c7 85 38 f1 ff ff 00 	movl   $0x0,-0xec8(%rbp)
    e80f:	00 00 00 
    e812:	eb 18                	jmp    e82c <func_27+0x1d1c>
    e814:	48 8b 05 75 2f 01 00 	mov    0x12f75(%rip),%rax        # 21790 <g_953>
    e81b:	48 8d 95 3c f1 ff ff 	lea    -0xec4(%rbp),%rdx
    e822:	48 89 10             	mov    %rdx,(%rax)
    e825:	83 85 38 f1 ff ff 01 	addl   $0x1,-0xec8(%rbp)
    e82c:	83 bd 38 f1 ff ff 06 	cmpl   $0x6,-0xec8(%rbp)
    e833:	76 df                	jbe    e814 <func_27+0x1d04>
    e835:	eb 01                	jmp    e838 <func_27+0x1d28>
    e837:	90                   	nop
    e838:	8b 05 7a 0c 01 00    	mov    0x10c7a(%rip),%eax        # 1f4b8 <g_107>
    e83e:	83 c0 01             	add    $0x1,%eax
    e841:	89 05 71 0c 01 00    	mov    %eax,0x10c71(%rip)        # 1f4b8 <g_107>
    e847:	8b 05 6b 0c 01 00    	mov    0x10c6b(%rip),%eax        # 1f4b8 <g_107>
    e84d:	85 c0                	test   %eax,%eax
    e84f:	0f 8e a9 fa ff ff    	jle    e2fe <func_27+0x17ee>
    e855:	8b 05 59 16 01 00    	mov    0x11659(%rip),%eax        # 1feb4 <g_707>
    e85b:	83 c0 01             	add    $0x1,%eax
    e85e:	89 05 50 16 01 00    	mov    %eax,0x11650(%rip)        # 1feb4 <g_707>
    e864:	8b 05 4a 16 01 00    	mov    0x1164a(%rip),%eax        # 1feb4 <g_707>
    e86a:	83 f8 2d             	cmp    $0x2d,%eax
    e86d:	0f 85 e9 ec ff ff    	jne    d55c <func_27+0xa4c>
    e873:	eb 01                	jmp    e876 <func_27+0x1d66>
    e875:	90                   	nop
    e876:	8b 05 20 16 01 00    	mov    0x11620(%rip),%eax        # 1fe9c <g_558>
    e87c:	0f b7 d8             	movzwl %ax,%ebx
    e87f:	48 8b 85 58 f2 ff ff 	mov    -0xda8(%rbp),%rax
    e886:	44 8b 28             	mov    (%rax),%r13d
    e889:	8b 85 38 f1 ff ff    	mov    -0xec8(%rbp),%eax
    e88f:	44 0f bf e0          	movswl %ax,%r12d
    e893:	0f bf 85 48 f1 ff ff 	movswl -0xeb8(%rbp),%eax
    e89a:	89 c7                	mov    %eax,%edi
    e89c:	e8 fc 6a ff ff       	callq  539d <safe_unary_minus_func_int16_t_s>
    e8a1:	98                   	cwtl   
    e8a2:	44 89 e6             	mov    %r12d,%esi
    e8a5:	89 c7                	mov    %eax,%edi
    e8a7:	e8 6a 6b ff ff       	callq  5416 <safe_mod_func_int16_t_s_s>
    e8ac:	0f bf d0             	movswl %ax,%edx
    e8af:	48 8b 85 58 f2 ff ff 	mov    -0xda8(%rbp),%rax
    e8b6:	8b 00                	mov    (%rax),%eax
    e8b8:	09 d0                	or     %edx,%eax
    e8ba:	41 39 c5             	cmp    %eax,%r13d
    e8bd:	0f 9c c0             	setl   %al
    e8c0:	0f b6 c0             	movzbl %al,%eax
    e8c3:	be fe ff ff ff       	mov    $0xfffffffe,%esi
    e8c8:	89 c7                	mov    %eax,%edi
    e8ca:	e8 47 6b ff ff       	callq  5416 <safe_mod_func_int16_t_s_s>
    e8cf:	44 0f bf e0          	movswl %ax,%r12d
    e8d3:	bf 00 00 00 00       	mov    $0x0,%edi
    e8d8:	e8 68 72 ff ff       	callq  5b45 <safe_unary_minus_func_uint8_t_u>
    e8dd:	0f b6 c0             	movzbl %al,%eax
    e8e0:	41 39 c4             	cmp    %eax,%r12d
    e8e3:	0f 9f c0             	setg   %al
    e8e6:	0f b6 c0             	movzbl %al,%eax
    e8e9:	89 de                	mov    %ebx,%esi
    e8eb:	89 c7                	mov    %eax,%edi
    e8ed:	e8 6a 74 ff ff       	callq  5d5c <safe_mod_func_uint16_t_u_u>
    e8f2:	0f b7 c0             	movzwl %ax,%eax
    e8f5:	89 85 3c f1 ff ff    	mov    %eax,-0xec4(%rbp)
    e8fb:	48 8b 05 66 15 01 00 	mov    0x11566(%rip),%rax        # 1fe68 <g_471>
    e902:	48 8b 5d c8          	mov    -0x38(%rbp),%rbx
    e906:	64 48 33 1c 25 28 00 	xor    %fs:0x28,%rbx
    e90d:	00 00 
    e90f:	74 05                	je     e916 <func_27+0x1e06>
    e911:	e8 5a 67 ff ff       	callq  5070 <__stack_chk_fail@plt>
    e916:	48 81 c4 a8 0e 00 00 	add    $0xea8,%rsp
    e91d:	5b                   	pop    %rbx
    e91e:	41 5c                	pop    %r12
    e920:	41 5d                	pop    %r13
    e922:	41 5e                	pop    %r14
    e924:	41 5f                	pop    %r15
    e926:	5d                   	pop    %rbp
    e927:	c3                   	retq   

000000000000e928 <func_38>:
    e928:	f3 0f 1e fa          	endbr64 
    e92c:	55                   	push   %rbp
    e92d:	48 89 e5             	mov    %rsp,%rbp
    e930:	41 57                	push   %r15
    e932:	41 56                	push   %r14
    e934:	41 55                	push   %r13
    e936:	41 54                	push   %r12
    e938:	53                   	push   %rbx
    e939:	48 81 ec 18 03 00 00 	sub    $0x318,%rsp
    e940:	89 f8                	mov    %edi,%eax
    e942:	48 89 b5 d0 fc ff ff 	mov    %rsi,-0x330(%rbp)
    e949:	88 85 dc fc ff ff    	mov    %al,-0x324(%rbp)
    e94f:	64 48 8b 04 25 28 00 	mov    %fs:0x28,%rax
    e956:	00 00 
    e958:	48 89 45 c8          	mov    %rax,-0x38(%rbp)
    e95c:	31 c0                	xor    %eax,%eax
    e95e:	c7 85 e8 fc ff ff 00 	movl   $0x0,-0x318(%rbp)
    e965:	00 00 00 
    e968:	48 8d 05 c9 06 01 00 	lea    0x106c9(%rip),%rax        # 1f038 <g_82>
    e96f:	48 89 85 f0 fc ff ff 	mov    %rax,-0x310(%rbp)
    e976:	48 8d 05 f3 09 01 00 	lea    0x109f3(%rip),%rax        # 1f370 <g_84+0x330>
    e97d:	48 89 85 f8 fc ff ff 	mov    %rax,-0x308(%rbp)
    e984:	48 8d 05 a5 06 01 00 	lea    0x106a5(%rip),%rax        # 1f030 <g_42>
    e98b:	48 89 85 00 fd ff ff 	mov    %rax,-0x300(%rbp)
    e992:	c7 85 e4 fc ff ff 00 	movl   $0x0,-0x31c(%rbp)
    e999:	00 00 00 
    e99c:	c7 85 ec fc ff ff ff 	movl   $0xffffffff,-0x314(%rbp)
    e9a3:	ff ff ff 
    e9a6:	c7 85 40 fd ff ff fd 	movl   $0xcf7925fd,-0x2c0(%rbp)
    e9ad:	25 79 cf 
    e9b0:	c7 85 44 fd ff ff fd 	movl   $0xcf7925fd,-0x2bc(%rbp)
    e9b7:	25 79 cf 
    e9ba:	c7 85 48 fd ff ff fd 	movl   $0xcf7925fd,-0x2b8(%rbp)
    e9c1:	25 79 cf 
    e9c4:	c7 85 4c fd ff ff fd 	movl   $0xcf7925fd,-0x2b4(%rbp)
    e9cb:	25 79 cf 
    e9ce:	c7 85 50 fd ff ff fd 	movl   $0xcf7925fd,-0x2b0(%rbp)
    e9d5:	25 79 cf 
    e9d8:	c7 85 54 fd ff ff fd 	movl   $0xcf7925fd,-0x2ac(%rbp)
    e9df:	25 79 cf 
    e9e2:	c7 85 58 fd ff ff fd 	movl   $0xcf7925fd,-0x2a8(%rbp)
    e9e9:	25 79 cf 
    e9ec:	c7 85 5c fd ff ff fd 	movl   $0xcf7925fd,-0x2a4(%rbp)
    e9f3:	25 79 cf 
    e9f6:	c7 85 60 fd ff ff fd 	movl   $0xcf7925fd,-0x2a0(%rbp)
    e9fd:	25 79 cf 
    ea00:	c7 85 64 fd ff ff fd 	movl   $0xcf7925fd,-0x29c(%rbp)
    ea07:	25 79 cf 
    ea0a:	c7 85 68 fd ff ff fd 	movl   $0xcf7925fd,-0x298(%rbp)
    ea11:	25 79 cf 
    ea14:	c7 85 6c fd ff ff fd 	movl   $0xcf7925fd,-0x294(%rbp)
    ea1b:	25 79 cf 
    ea1e:	c7 85 70 fd ff ff fd 	movl   $0xcf7925fd,-0x290(%rbp)
    ea25:	25 79 cf 
    ea28:	c7 85 74 fd ff ff fd 	movl   $0xcf7925fd,-0x28c(%rbp)
    ea2f:	25 79 cf 
    ea32:	c7 85 78 fd ff ff fd 	movl   $0xcf7925fd,-0x288(%rbp)
    ea39:	25 79 cf 
    ea3c:	48 8d 85 e4 fc ff ff 	lea    -0x31c(%rbp),%rax
    ea43:	48 89 85 08 fd ff ff 	mov    %rax,-0x2f8(%rbp)
    ea4a:	48 8d 85 e4 fc ff ff 	lea    -0x31c(%rbp),%rax
    ea51:	48 89 85 10 fd ff ff 	mov    %rax,-0x2f0(%rbp)
    ea58:	48 8d 85 e4 fc ff ff 	lea    -0x31c(%rbp),%rax
    ea5f:	48 89 85 18 fd ff ff 	mov    %rax,-0x2e8(%rbp)
    ea66:	48 8d 85 e4 fc ff ff 	lea    -0x31c(%rbp),%rax
    ea6d:	48 89 85 20 fd ff ff 	mov    %rax,-0x2e0(%rbp)
    ea74:	48 8d 85 e4 fc ff ff 	lea    -0x31c(%rbp),%rax
    ea7b:	48 89 85 28 fd ff ff 	mov    %rax,-0x2d8(%rbp)
    ea82:	48 8d 05 2f 0a 01 00 	lea    0x10a2f(%rip),%rax        # 1f4b8 <g_107>
    ea89:	48 89 85 30 fd ff ff 	mov    %rax,-0x2d0(%rbp)
    ea90:	48 8d 05 21 0a 01 00 	lea    0x10a21(%rip),%rax        # 1f4b8 <g_107>
    ea97:	48 89 85 38 fd ff ff 	mov    %rax,-0x2c8(%rbp)
    ea9e:	48 8d 05 87 05 01 00 	lea    0x10587(%rip),%rax        # 1f02c <g_4>
    eaa5:	48 89 85 80 fd ff ff 	mov    %rax,-0x280(%rbp)
    eaac:	48 8d 05 79 05 01 00 	lea    0x10579(%rip),%rax        # 1f02c <g_4>
    eab3:	48 89 85 88 fd ff ff 	mov    %rax,-0x278(%rbp)
    eaba:	48 8d 05 f7 09 01 00 	lea    0x109f7(%rip),%rax        # 1f4b8 <g_107>
    eac1:	48 89 85 90 fd ff ff 	mov    %rax,-0x270(%rbp)
    eac8:	48 8d 05 5d 05 01 00 	lea    0x1055d(%rip),%rax        # 1f02c <g_4>
    eacf:	48 89 85 98 fd ff ff 	mov    %rax,-0x268(%rbp)
    ead6:	48 8d 85 e4 fc ff ff 	lea    -0x31c(%rbp),%rax
    eadd:	48 89 85 a0 fd ff ff 	mov    %rax,-0x260(%rbp)
    eae4:	48 8d 05 cd 09 01 00 	lea    0x109cd(%rip),%rax        # 1f4b8 <g_107>
    eaeb:	48 89 85 a8 fd ff ff 	mov    %rax,-0x258(%rbp)
    eaf2:	48 8d 05 33 05 01 00 	lea    0x10533(%rip),%rax        # 1f02c <g_4>
    eaf9:	48 89 85 b0 fd ff ff 	mov    %rax,-0x250(%rbp)
    eb00:	48 8d 05 25 05 01 00 	lea    0x10525(%rip),%rax        # 1f02c <g_4>
    eb07:	48 89 85 b8 fd ff ff 	mov    %rax,-0x248(%rbp)
    eb0e:	48 8d 05 a3 09 01 00 	lea    0x109a3(%rip),%rax        # 1f4b8 <g_107>
    eb15:	48 89 85 c0 fd ff ff 	mov    %rax,-0x240(%rbp)
    eb1c:	48 8d 05 09 05 01 00 	lea    0x10509(%rip),%rax        # 1f02c <g_4>
    eb23:	48 89 85 c8 fd ff ff 	mov    %rax,-0x238(%rbp)
    eb2a:	48 8d 05 fb 04 01 00 	lea    0x104fb(%rip),%rax        # 1f02c <g_4>
    eb31:	48 89 85 d0 fd ff ff 	mov    %rax,-0x230(%rbp)
    eb38:	48 8d 05 ed 04 01 00 	lea    0x104ed(%rip),%rax        # 1f02c <g_4>
    eb3f:	48 89 85 d8 fd ff ff 	mov    %rax,-0x228(%rbp)
    eb46:	48 8d 05 df 04 01 00 	lea    0x104df(%rip),%rax        # 1f02c <g_4>
    eb4d:	48 89 85 e0 fd ff ff 	mov    %rax,-0x220(%rbp)
    eb54:	48 8d 05 5d 09 01 00 	lea    0x1095d(%rip),%rax        # 1f4b8 <g_107>
    eb5b:	48 89 85 e8 fd ff ff 	mov    %rax,-0x218(%rbp)
    eb62:	48 8d 85 e4 fc ff ff 	lea    -0x31c(%rbp),%rax
    eb69:	48 89 85 f0 fd ff ff 	mov    %rax,-0x210(%rbp)
    eb70:	48 8d 05 b5 04 01 00 	lea    0x104b5(%rip),%rax        # 1f02c <g_4>
    eb77:	48 89 85 f8 fd ff ff 	mov    %rax,-0x208(%rbp)
    eb7e:	48 8d 05 a7 04 01 00 	lea    0x104a7(%rip),%rax        # 1f02c <g_4>
    eb85:	48 89 85 00 fe ff ff 	mov    %rax,-0x200(%rbp)
    eb8c:	48 8d 05 99 04 01 00 	lea    0x10499(%rip),%rax        # 1f02c <g_4>
    eb93:	48 89 85 08 fe ff ff 	mov    %rax,-0x1f8(%rbp)
    eb9a:	48 8d 05 17 09 01 00 	lea    0x10917(%rip),%rax        # 1f4b8 <g_107>
    eba1:	48 89 85 10 fe ff ff 	mov    %rax,-0x1f0(%rbp)
    eba8:	48 8d 05 7d 04 01 00 	lea    0x1047d(%rip),%rax        # 1f02c <g_4>
    ebaf:	48 89 85 18 fe ff ff 	mov    %rax,-0x1e8(%rbp)
    ebb6:	48 8d 85 e4 fc ff ff 	lea    -0x31c(%rbp),%rax
    ebbd:	48 89 85 20 fe ff ff 	mov    %rax,-0x1e0(%rbp)
    ebc4:	48 8d 05 ed 08 01 00 	lea    0x108ed(%rip),%rax        # 1f4b8 <g_107>
    ebcb:	48 89 85 28 fe ff ff 	mov    %rax,-0x1d8(%rbp)
    ebd2:	48 8d 05 53 04 01 00 	lea    0x10453(%rip),%rax        # 1f02c <g_4>
    ebd9:	48 89 85 30 fe ff ff 	mov    %rax,-0x1d0(%rbp)
    ebe0:	48 8d 05 45 04 01 00 	lea    0x10445(%rip),%rax        # 1f02c <g_4>
    ebe7:	48 89 85 38 fe ff ff 	mov    %rax,-0x1c8(%rbp)
    ebee:	48 8d 05 c3 08 01 00 	lea    0x108c3(%rip),%rax        # 1f4b8 <g_107>
    ebf5:	48 89 85 40 fe ff ff 	mov    %rax,-0x1c0(%rbp)
    ebfc:	48 8d 05 29 04 01 00 	lea    0x10429(%rip),%rax        # 1f02c <g_4>
    ec03:	48 89 85 48 fe ff ff 	mov    %rax,-0x1b8(%rbp)
    ec0a:	48 8d 05 1b 04 01 00 	lea    0x1041b(%rip),%rax        # 1f02c <g_4>
    ec11:	48 89 85 50 fe ff ff 	mov    %rax,-0x1b0(%rbp)
    ec18:	48 8d 05 0d 04 01 00 	lea    0x1040d(%rip),%rax        # 1f02c <g_4>
    ec1f:	48 89 85 58 fe ff ff 	mov    %rax,-0x1a8(%rbp)
    ec26:	48 8d 05 ff 03 01 00 	lea    0x103ff(%rip),%rax        # 1f02c <g_4>
    ec2d:	48 89 85 60 fe ff ff 	mov    %rax,-0x1a0(%rbp)
    ec34:	48 8d 05 7d 08 01 00 	lea    0x1087d(%rip),%rax        # 1f4b8 <g_107>
    ec3b:	48 89 85 68 fe ff ff 	mov    %rax,-0x198(%rbp)
    ec42:	48 8d 85 e4 fc ff ff 	lea    -0x31c(%rbp),%rax
    ec49:	48 89 85 70 fe ff ff 	mov    %rax,-0x190(%rbp)
    ec50:	48 8d 05 d5 03 01 00 	lea    0x103d5(%rip),%rax        # 1f02c <g_4>
    ec57:	48 89 85 78 fe ff ff 	mov    %rax,-0x188(%rbp)
    ec5e:	48 8d 05 c7 03 01 00 	lea    0x103c7(%rip),%rax        # 1f02c <g_4>
    ec65:	48 89 85 80 fe ff ff 	mov    %rax,-0x180(%rbp)
    ec6c:	48 8d 05 b9 03 01 00 	lea    0x103b9(%rip),%rax        # 1f02c <g_4>
    ec73:	48 89 85 88 fe ff ff 	mov    %rax,-0x178(%rbp)
    ec7a:	48 8d 05 37 08 01 00 	lea    0x10837(%rip),%rax        # 1f4b8 <g_107>
    ec81:	48 89 85 90 fe ff ff 	mov    %rax,-0x170(%rbp)
    ec88:	48 8d 05 9d 03 01 00 	lea    0x1039d(%rip),%rax        # 1f02c <g_4>
    ec8f:	48 89 85 98 fe ff ff 	mov    %rax,-0x168(%rbp)
    ec96:	48 8d 85 e4 fc ff ff 	lea    -0x31c(%rbp),%rax
    ec9d:	48 89 85 a0 fe ff ff 	mov    %rax,-0x160(%rbp)
    eca4:	48 8d 05 0d 08 01 00 	lea    0x1080d(%rip),%rax        # 1f4b8 <g_107>
    ecab:	48 89 85 a8 fe ff ff 	mov    %rax,-0x158(%rbp)
    ecb2:	48 8d 05 73 03 01 00 	lea    0x10373(%rip),%rax        # 1f02c <g_4>
    ecb9:	48 89 85 b0 fe ff ff 	mov    %rax,-0x150(%rbp)
    ecc0:	48 8d 05 65 03 01 00 	lea    0x10365(%rip),%rax        # 1f02c <g_4>
    ecc7:	48 89 85 b8 fe ff ff 	mov    %rax,-0x148(%rbp)
    ecce:	48 8d 05 e3 07 01 00 	lea    0x107e3(%rip),%rax        # 1f4b8 <g_107>
    ecd5:	48 89 85 c0 fe ff ff 	mov    %rax,-0x140(%rbp)
    ecdc:	48 8d 05 49 03 01 00 	lea    0x10349(%rip),%rax        # 1f02c <g_4>
    ece3:	48 89 85 c8 fe ff ff 	mov    %rax,-0x138(%rbp)
    ecea:	48 8d 05 3b 03 01 00 	lea    0x1033b(%rip),%rax        # 1f02c <g_4>
    ecf1:	48 89 85 d0 fe ff ff 	mov    %rax,-0x130(%rbp)
    ecf8:	48 8d 05 2d 03 01 00 	lea    0x1032d(%rip),%rax        # 1f02c <g_4>
    ecff:	48 89 85 d8 fe ff ff 	mov    %rax,-0x128(%rbp)
    ed06:	48 8d 05 1f 03 01 00 	lea    0x1031f(%rip),%rax        # 1f02c <g_4>
    ed0d:	48 89 85 e0 fe ff ff 	mov    %rax,-0x120(%rbp)
    ed14:	48 8d 05 9d 07 01 00 	lea    0x1079d(%rip),%rax        # 1f4b8 <g_107>
    ed1b:	48 89 85 e8 fe ff ff 	mov    %rax,-0x118(%rbp)
    ed22:	48 8d 85 e4 fc ff ff 	lea    -0x31c(%rbp),%rax
    ed29:	48 89 85 f0 fe ff ff 	mov    %rax,-0x110(%rbp)
    ed30:	48 8d 05 f5 02 01 00 	lea    0x102f5(%rip),%rax        # 1f02c <g_4>
    ed37:	48 89 85 f8 fe ff ff 	mov    %rax,-0x108(%rbp)
    ed3e:	48 8d 05 e7 02 01 00 	lea    0x102e7(%rip),%rax        # 1f02c <g_4>
    ed45:	48 89 85 00 ff ff ff 	mov    %rax,-0x100(%rbp)
    ed4c:	48 8d 05 d9 02 01 00 	lea    0x102d9(%rip),%rax        # 1f02c <g_4>
    ed53:	48 89 85 08 ff ff ff 	mov    %rax,-0xf8(%rbp)
    ed5a:	48 8d 05 57 07 01 00 	lea    0x10757(%rip),%rax        # 1f4b8 <g_107>
    ed61:	48 89 85 10 ff ff ff 	mov    %rax,-0xf0(%rbp)
    ed68:	48 8d 05 bd 02 01 00 	lea    0x102bd(%rip),%rax        # 1f02c <g_4>
    ed6f:	48 89 85 18 ff ff ff 	mov    %rax,-0xe8(%rbp)
    ed76:	48 8d 85 e4 fc ff ff 	lea    -0x31c(%rbp),%rax
    ed7d:	48 89 85 20 ff ff ff 	mov    %rax,-0xe0(%rbp)
    ed84:	48 8d 05 2d 07 01 00 	lea    0x1072d(%rip),%rax        # 1f4b8 <g_107>
    ed8b:	48 89 85 28 ff ff ff 	mov    %rax,-0xd8(%rbp)
    ed92:	48 8d 05 93 02 01 00 	lea    0x10293(%rip),%rax        # 1f02c <g_4>
    ed99:	48 89 85 30 ff ff ff 	mov    %rax,-0xd0(%rbp)
    eda0:	48 8d 05 85 02 01 00 	lea    0x10285(%rip),%rax        # 1f02c <g_4>
    eda7:	48 89 85 38 ff ff ff 	mov    %rax,-0xc8(%rbp)
    edae:	48 8d 05 03 07 01 00 	lea    0x10703(%rip),%rax        # 1f4b8 <g_107>
    edb5:	48 89 85 40 ff ff ff 	mov    %rax,-0xc0(%rbp)
    edbc:	48 8d 05 69 02 01 00 	lea    0x10269(%rip),%rax        # 1f02c <g_4>
    edc3:	48 89 85 48 ff ff ff 	mov    %rax,-0xb8(%rbp)
    edca:	48 8d 05 5b 02 01 00 	lea    0x1025b(%rip),%rax        # 1f02c <g_4>
    edd1:	48 89 85 50 ff ff ff 	mov    %rax,-0xb0(%rbp)
    edd8:	48 8d 05 4d 02 01 00 	lea    0x1024d(%rip),%rax        # 1f02c <g_4>
    eddf:	48 89 85 58 ff ff ff 	mov    %rax,-0xa8(%rbp)
    ede6:	48 8d 05 3f 02 01 00 	lea    0x1023f(%rip),%rax        # 1f02c <g_4>
    eded:	48 89 85 60 ff ff ff 	mov    %rax,-0xa0(%rbp)
    edf4:	48 8d 05 bd 06 01 00 	lea    0x106bd(%rip),%rax        # 1f4b8 <g_107>
    edfb:	48 89 85 68 ff ff ff 	mov    %rax,-0x98(%rbp)
    ee02:	48 8d 85 e4 fc ff ff 	lea    -0x31c(%rbp),%rax
    ee09:	48 89 85 70 ff ff ff 	mov    %rax,-0x90(%rbp)
    ee10:	48 8d 05 15 02 01 00 	lea    0x10215(%rip),%rax        # 1f02c <g_4>
    ee17:	48 89 85 78 ff ff ff 	mov    %rax,-0x88(%rbp)
    ee1e:	48 8d 05 07 02 01 00 	lea    0x10207(%rip),%rax        # 1f02c <g_4>
    ee25:	48 89 45 80          	mov    %rax,-0x80(%rbp)
    ee29:	48 8d 05 fc 01 01 00 	lea    0x101fc(%rip),%rax        # 1f02c <g_4>
    ee30:	48 89 45 88          	mov    %rax,-0x78(%rbp)
    ee34:	48 8d 05 7d 06 01 00 	lea    0x1067d(%rip),%rax        # 1f4b8 <g_107>
    ee3b:	48 89 45 90          	mov    %rax,-0x70(%rbp)
    ee3f:	48 8d 05 e6 01 01 00 	lea    0x101e6(%rip),%rax        # 1f02c <g_4>
    ee46:	48 89 45 98          	mov    %rax,-0x68(%rbp)
    ee4a:	48 8d 85 e4 fc ff ff 	lea    -0x31c(%rbp),%rax
    ee51:	48 89 45 a0          	mov    %rax,-0x60(%rbp)
    ee55:	48 8d 05 5c 06 01 00 	lea    0x1065c(%rip),%rax        # 1f4b8 <g_107>
    ee5c:	48 89 45 a8          	mov    %rax,-0x58(%rbp)
    ee60:	48 8d 05 c5 01 01 00 	lea    0x101c5(%rip),%rax        # 1f02c <g_4>
    ee67:	48 89 45 b0          	mov    %rax,-0x50(%rbp)
    ee6b:	48 8d 05 ba 01 01 00 	lea    0x101ba(%rip),%rax        # 1f02c <g_4>
    ee72:	48 89 45 b8          	mov    %rax,-0x48(%rbp)
    ee76:	66 c7 85 e2 fc ff ff 	movw   $0x7,-0x31e(%rbp)
    ee7d:	07 00 
    ee7f:	48 8b 85 d0 fc ff ff 	mov    -0x330(%rbp),%rax
    ee86:	0f be d8             	movsbl %al,%ebx
    ee89:	8b 85 e4 fc ff ff    	mov    -0x31c(%rbp),%eax
    ee8f:	44 0f b6 e8          	movzbl %al,%r13d
    ee93:	44 0f be a5 dc fc ff 	movsbl -0x324(%rbp),%r12d
    ee9a:	ff 
    ee9b:	4c 8b 3d 06 36 01 00 	mov    0x13606(%rip),%r15        # 224a8 <g_678>
    eea2:	8b 85 e4 fc ff ff    	mov    -0x31c(%rbp),%eax
    eea8:	44 0f b6 f0          	movzbl %al,%r14d
    eeac:	8b 05 7a 01 01 00    	mov    0x1017a(%rip),%eax        # 1f02c <g_4>
    eeb2:	89 85 d8 fc ff ff    	mov    %eax,-0x328(%rbp)
    eeb8:	0f be 85 dc fc ff ff 	movsbl -0x324(%rbp),%eax
    eebf:	89 85 cc fc ff ff    	mov    %eax,-0x334(%rbp)
    eec5:	48 8b 85 d0 fc ff ff 	mov    -0x330(%rbp),%rax
    eecc:	98                   	cwtl   
    eecd:	89 85 c8 fc ff ff    	mov    %eax,-0x338(%rbp)
    eed3:	8b 05 53 01 01 00    	mov    0x10153(%rip),%eax        # 1f02c <g_4>
    eed9:	0f be c0             	movsbl %al,%eax
    eedc:	89 85 c4 fc ff ff    	mov    %eax,-0x33c(%rbp)
    eee2:	8b 05 44 01 01 00    	mov    0x10144(%rip),%eax        # 1f02c <g_4>
    eee8:	83 f8 01             	cmp    $0x1,%eax
    eeeb:	7f 46                	jg     ef33 <func_38+0x60b>
    eeed:	48 8b 85 d0 fc ff ff 	mov    -0x330(%rbp),%rax
    eef4:	89 c6                	mov    %eax,%esi
    eef6:	bf 13 a5 3d 91       	mov    $0x913da513,%edi
    eefb:	e8 05 67 ff ff       	callq  5605 <safe_sub_func_int32_t_s_s>
    ef00:	48 0f be 85 dc fc ff 	movsbq -0x324(%rbp),%rax
    ef07:	ff 
    ef08:	48 8b 95 d0 fc ff ff 	mov    -0x330(%rbp),%rdx
    ef0f:	48 89 d6             	mov    %rdx,%rsi
    ef12:	48 89 c7             	mov    %rax,%rdi
    ef15:	e8 9a 6a ff ff       	callq  59b4 <safe_mod_func_int64_t_s_s>
    ef1a:	89 c2                	mov    %eax,%edx
    ef1c:	48 8b 85 f0 fc ff ff 	mov    -0x310(%rbp),%rax
    ef23:	88 10                	mov    %dl,(%rax)
    ef25:	48 8b 85 f0 fc ff ff 	mov    -0x310(%rbp),%rax
    ef2c:	0f b6 00             	movzbl (%rax),%eax
    ef2f:	84 c0                	test   %al,%al
    ef31:	74 07                	je     ef3a <func_38+0x612>
    ef33:	b8 01 00 00 00       	mov    $0x1,%eax
    ef38:	eb 05                	jmp    ef3f <func_38+0x617>
    ef3a:	b8 00 00 00 00       	mov    $0x0,%eax
    ef3f:	85 c0                	test   %eax,%eax
    ef41:	0f 95 c0             	setne  %al
    ef44:	0f b6 c0             	movzbl %al,%eax
    ef47:	8b b5 c4 fc ff ff    	mov    -0x33c(%rbp),%esi
    ef4d:	89 c7                	mov    %eax,%edi
    ef4f:	e8 80 62 ff ff       	callq  51d4 <safe_add_func_int8_t_s_s>
    ef54:	66 98                	cbtw   
    ef56:	0f b7 d0             	movzwl %ax,%edx
    ef59:	81 a5 e8 fc ff ff f6 	andl   $0xfff6,-0x318(%rbp)
    ef60:	ff 00 00 
    ef63:	8b 85 e8 fc ff ff    	mov    -0x318(%rbp),%eax
    ef69:	0f b7 c0             	movzwl %ax,%eax
    ef6c:	89 d6                	mov    %edx,%esi
    ef6e:	89 c7                	mov    %eax,%edi
    ef70:	e8 c8 6d ff ff       	callq  5d3d <safe_mul_func_uint16_t_u_u>
    ef75:	8b b5 c8 fc ff ff    	mov    -0x338(%rbp),%esi
    ef7b:	bf 01 00 00 00       	mov    $0x1,%edi
    ef80:	e8 91 64 ff ff       	callq  5416 <safe_mod_func_int16_t_s_s>
    ef85:	0f bf d0             	movswl %ax,%edx
    ef88:	48 8b 85 f8 fc ff ff 	mov    -0x308(%rbp),%rax
    ef8f:	89 10                	mov    %edx,(%rax)
    ef91:	48 8b 85 f8 fc ff ff 	mov    -0x308(%rbp),%rax
    ef98:	8b 00                	mov    (%rax),%eax
    ef9a:	48 8b 95 00 fd ff ff 	mov    -0x300(%rbp),%rdx
    efa1:	44 8b 85 d8 fc ff ff 	mov    -0x328(%rbp),%r8d
    efa8:	48 89 d1             	mov    %rdx,%rcx
    efab:	48 8d 15 7e 00 01 00 	lea    0x1007e(%rip),%rdx        # 1f030 <g_42>
    efb2:	8b b5 cc fc ff ff    	mov    -0x334(%rbp),%esi
    efb8:	89 c7                	mov    %eax,%edi
    efba:	e8 e3 03 00 00       	callq  f3a2 <func_62>
    efbf:	48 89 c7             	mov    %rax,%rdi
    efc2:	48 8b 85 00 fd ff ff 	mov    -0x300(%rbp),%rax
    efc9:	4c 89 f9             	mov    %r15,%rcx
    efcc:	44 89 f2             	mov    %r14d,%edx
    efcf:	48 89 c6             	mov    %rax,%rsi
    efd2:	e8 ac 03 00 00       	callq  f383 <func_57>
    efd7:	89 c7                	mov    %eax,%edi
    efd9:	8b 95 44 fd ff ff    	mov    -0x2bc(%rbp),%edx
    efdf:	8b 85 ec fc ff ff    	mov    -0x314(%rbp),%eax
    efe5:	41 89 d0             	mov    %edx,%r8d
    efe8:	44 89 e9             	mov    %r13d,%ecx
    efeb:	44 89 e2             	mov    %r12d,%edx
    efee:	89 c6                	mov    %eax,%esi
    eff0:	e8 bf 00 00 00       	callq  f0b4 <func_51>
    eff5:	48 c7 c6 ff ff ff ff 	mov    $0xffffffffffffffff,%rsi
    effc:	48 89 c7             	mov    %rax,%rdi
    efff:	e8 7c 70 ff ff       	callq  6080 <safe_mod_func_uint64_t_u_u>
    f004:	88 85 dc fc ff ff    	mov    %al,-0x324(%rbp)
    f00a:	0f be 85 dc fc ff ff 	movsbl -0x324(%rbp),%eax
    f011:	89 de                	mov    %ebx,%esi
    f013:	89 c7                	mov    %eax,%edi
    f015:	e8 17 62 ff ff       	callq  5231 <safe_mod_func_int8_t_s_s>
    f01a:	66 98                	cbtw   
    f01c:	0f b7 c0             	movzwl %ax,%eax
    f01f:	be 03 00 00 00       	mov    $0x3,%esi
    f024:	89 c7                	mov    %eax,%edi
    f026:	e8 93 6d ff ff       	callq  5dbe <safe_lshift_func_uint16_t_u_s>
    f02b:	8b 05 f7 ff 00 00    	mov    0xfff7(%rip),%eax        # 1f028 <g_3>
    f031:	0f be c0             	movsbl %al,%eax
    f034:	be 00 00 00 00       	mov    $0x0,%esi
    f039:	89 c7                	mov    %eax,%edi
    f03b:	e8 d2 61 ff ff       	callq  5212 <safe_mul_func_int8_t_s_s>
    f040:	0f be d0             	movsbl %al,%edx
    f043:	0f b7 05 0e 0e 01 00 	movzwl 0x10e0e(%rip),%eax        # 1fe58 <g_277+0x18>
    f04a:	66 c1 e8 05          	shr    $0x5,%ax
    f04e:	80 e4 ff             	and    $0xff,%ah
    f051:	0f b6 c0             	movzbl %al,%eax
    f054:	39 c2                	cmp    %eax,%edx
    f056:	0f 95 c0             	setne  %al
    f059:	0f b6 c0             	movzbl %al,%eax
    f05c:	89 85 e4 fc ff ff    	mov    %eax,-0x31c(%rbp)
    f062:	48 8b 05 57 25 01 00 	mov    0x12557(%rip),%rax        # 215c0 <g_708>
    f069:	48 8d 95 e4 fc ff ff 	lea    -0x31c(%rbp),%rdx
    f070:	48 89 10             	mov    %rdx,(%rax)
    f073:	0f b7 85 e2 fc ff ff 	movzwl -0x31e(%rbp),%eax
    f07a:	83 c0 01             	add    $0x1,%eax
    f07d:	66 89 85 e2 fc ff ff 	mov    %ax,-0x31e(%rbp)
    f084:	48 8b 05 e5 24 01 00 	mov    0x124e5(%rip),%rax        # 21570 <g_260>
    f08b:	0f b7 00             	movzwl (%rax),%eax
    f08e:	48 8b 5d c8          	mov    -0x38(%rbp),%rbx
    f092:	64 48 33 1c 25 28 00 	xor    %fs:0x28,%rbx
    f099:	00 00 
    f09b:	74 05                	je     f0a2 <func_38+0x77a>
    f09d:	e8 ce 5f ff ff       	callq  5070 <__stack_chk_fail@plt>
    f0a2:	48 81 c4 18 03 00 00 	add    $0x318,%rsp
    f0a9:	5b                   	pop    %rbx
    f0aa:	41 5c                	pop    %r12
    f0ac:	41 5d                	pop    %r13
    f0ae:	41 5e                	pop    %r14
    f0b0:	41 5f                	pop    %r15
    f0b2:	5d                   	pop    %rbp
    f0b3:	c3                   	retq   

000000000000f0b4 <func_51>:
    f0b4:	f3 0f 1e fa          	endbr64 
    f0b8:	55                   	push   %rbp
    f0b9:	48 89 e5             	mov    %rsp,%rbp
    f0bc:	41 54                	push   %r12
    f0be:	53                   	push   %rbx
    f0bf:	48 81 ec c0 00 00 00 	sub    $0xc0,%rsp
    f0c6:	89 bd 4c ff ff ff    	mov    %edi,-0xb4(%rbp)
    f0cc:	89 b5 48 ff ff ff    	mov    %esi,-0xb8(%rbp)
    f0d2:	89 95 44 ff ff ff    	mov    %edx,-0xbc(%rbp)
    f0d8:	89 c8                	mov    %ecx,%eax
    f0da:	44 89 85 3c ff ff ff 	mov    %r8d,-0xc4(%rbp)
    f0e1:	88 85 40 ff ff ff    	mov    %al,-0xc0(%rbp)
    f0e7:	64 48 8b 04 25 28 00 	mov    %fs:0x28,%rax
    f0ee:	00 00 
    f0f0:	48 89 45 e8          	mov    %rax,-0x18(%rbp)
    f0f4:	31 c0                	xor    %eax,%eax
    f0f6:	48 c7 85 70 ff ff ff 	movq   $0x0,-0x90(%rbp)
    f0fd:	00 00 00 00 
    f101:	c7 85 64 ff ff ff ff 	movl   $0xffffffff,-0x9c(%rbp)
    f108:	ff ff ff 
    f10b:	c7 85 58 ff ff ff 2f 	movl   $0xbf48592f,-0xa8(%rbp)
    f112:	59 48 bf 
    f115:	66 c7 85 56 ff ff ff 	movw   $0x1,-0xaa(%rbp)
    f11c:	01 00 
    f11e:	48 8d 05 77 0d 01 00 	lea    0x10d77(%rip),%rax        # 1fe9c <g_558>
    f125:	48 89 85 68 ff ff ff 	mov    %rax,-0x98(%rbp)
    f12c:	48 8d 85 68 ff ff ff 	lea    -0x98(%rbp),%rax
    f133:	48 89 85 78 ff ff ff 	mov    %rax,-0x88(%rbp)
    f13a:	48 c7 45 a0 00 00 00 	movq   $0x0,-0x60(%rbp)
    f141:	00 
    f142:	48 c7 45 a8 00 00 00 	movq   $0x0,-0x58(%rbp)
    f149:	00 
    f14a:	48 8d 85 58 ff ff ff 	lea    -0xa8(%rbp),%rax
    f151:	48 89 45 b0          	mov    %rax,-0x50(%rbp)
    f155:	48 c7 45 b8 00 00 00 	movq   $0x0,-0x48(%rbp)
    f15c:	00 
    f15d:	48 c7 45 c0 00 00 00 	movq   $0x0,-0x40(%rbp)
    f164:	00 
    f165:	48 8d 85 58 ff ff ff 	lea    -0xa8(%rbp),%rax
    f16c:	48 89 45 c8          	mov    %rax,-0x38(%rbp)
    f170:	48 c7 45 d0 00 00 00 	movq   $0x0,-0x30(%rbp)
    f177:	00 
    f178:	48 c7 45 d8 00 00 00 	movq   $0x0,-0x28(%rbp)
    f17f:	00 
    f180:	c7 85 5c ff ff ff 00 	movl   $0x0,-0xa4(%rbp)
    f187:	00 00 00 
    f18a:	eb 43                	jmp    f1cf <func_51+0x11b>
    f18c:	c7 85 60 ff ff ff 00 	movl   $0x0,-0xa0(%rbp)
    f193:	00 00 00 
    f196:	eb 27                	jmp    f1bf <func_51+0x10b>
    f198:	8b 85 60 ff ff ff    	mov    -0xa0(%rbp),%eax
    f19e:	48 63 d0             	movslq %eax,%rdx
    f1a1:	8b 85 5c ff ff ff    	mov    -0xa4(%rbp),%eax
    f1a7:	48 98                	cltq   
    f1a9:	48 01 d0             	add    %rdx,%rax
    f1ac:	48 8d 15 0d 03 01 00 	lea    0x1030d(%rip),%rdx        # 1f4c0 <g_140>
    f1b3:	48 89 54 c5 80       	mov    %rdx,-0x80(%rbp,%rax,8)
    f1b8:	83 85 60 ff ff ff 01 	addl   $0x1,-0xa0(%rbp)
    f1bf:	83 bd 60 ff ff ff 00 	cmpl   $0x0,-0xa0(%rbp)
    f1c6:	7e d0                	jle    f198 <func_51+0xe4>
    f1c8:	83 85 5c ff ff ff 01 	addl   $0x1,-0xa4(%rbp)
    f1cf:	83 bd 5c ff ff ff 02 	cmpl   $0x2,-0xa4(%rbp)
    f1d6:	7e b4                	jle    f18c <func_51+0xd8>
    f1d8:	8b 9d 64 ff ff ff    	mov    -0x9c(%rbp),%ebx
    f1de:	48 8b 05 43 06 01 00 	mov    0x10643(%rip),%rax        # 1f828 <g_142+0x348>
    f1e5:	48 c1 e0 10          	shl    $0x10,%rax
    f1e9:	48 c1 f8 23          	sar    $0x23,%rax
    f1ed:	41 89 c4             	mov    %eax,%r12d
    f1f0:	8b 85 48 ff ff ff    	mov    -0xb8(%rbp),%eax
    f1f6:	0f bf d0             	movswl %ax,%edx
    f1f9:	8b 85 58 ff ff ff    	mov    -0xa8(%rbp),%eax
    f1ff:	83 c8 01             	or     $0x1,%eax
    f202:	89 85 58 ff ff ff    	mov    %eax,-0xa8(%rbp)
    f208:	8b 85 58 ff ff ff    	mov    -0xa8(%rbp),%eax
    f20e:	66 25 b9 f4          	and    $0xf4b9,%ax
    f212:	98                   	cwtl   
    f213:	89 d6                	mov    %edx,%esi
    f215:	89 c7                	mov    %eax,%edi
    f217:	e8 fa 61 ff ff       	callq  5416 <safe_mod_func_int16_t_s_s>
    f21c:	98                   	cwtl   
    f21d:	c1 e0 03             	shl    $0x3,%eax
    f220:	c1 f8 03             	sar    $0x3,%eax
    f223:	41 39 c4             	cmp    %eax,%r12d
    f226:	0f 95 c0             	setne  %al
    f229:	0f b6 c0             	movzbl %al,%eax
    f22c:	39 85 64 ff ff ff    	cmp    %eax,-0x9c(%rbp)
    f232:	0f 9e c0             	setle  %al
    f235:	0f b6 d0             	movzbl %al,%edx
    f238:	0f b7 85 56 ff ff ff 	movzwl -0xaa(%rbp),%eax
    f23f:	21 d0                	and    %edx,%eax
    f241:	89 de                	mov    %ebx,%esi
    f243:	89 c7                	mov    %eax,%edi
    f245:	e8 b3 6c ff ff       	callq  5efd <safe_mod_func_uint32_t_u_u>
    f24a:	89 c2                	mov    %eax,%edx
    f24c:	48 8b 05 1d 23 01 00 	mov    0x1231d(%rip),%rax        # 21570 <g_260>
    f253:	0f b7 08             	movzwl (%rax),%ecx
    f256:	83 e9 01             	sub    $0x1,%ecx
    f259:	66 89 08             	mov    %cx,(%rax)
    f25c:	0f b7 00             	movzwl (%rax),%eax
    f25f:	66 85 c0             	test   %ax,%ax
    f262:	89 d6                	mov    %edx,%esi
    f264:	bf 01 00 00 00       	mov    $0x1,%edi
    f269:	e8 50 6a ff ff       	callq  5cbe <safe_rshift_func_uint8_t_u_u>
    f26e:	0f b6 95 40 ff ff ff 	movzbl -0xc0(%rbp),%edx
    f275:	48 8b 05 b4 fd 00 00 	mov    0xfdb4(%rip),%rax        # 1f030 <g_42>
    f27c:	48 09 d0             	or     %rdx,%rax
    f27f:	48 c1 e8 3f          	shr    $0x3f,%rax
    f283:	0f b6 c0             	movzbl %al,%eax
    f286:	89 c6                	mov    %eax,%esi
    f288:	bf 87 e3 00 00       	mov    $0xe387,%edi
    f28d:	e8 ab 6a ff ff       	callq  5d3d <safe_mul_func_uint16_t_u_u>
    f292:	8b 85 3c ff ff ff    	mov    -0xc4(%rbp),%eax
    f298:	89 c3                	mov    %eax,%ebx
    f29a:	8b 95 4c ff ff ff    	mov    -0xb4(%rbp),%edx
    f2a0:	8b 85 64 ff ff ff    	mov    -0x9c(%rbp),%eax
    f2a6:	48 98                	cltq   
    f2a8:	48 89 d6             	mov    %rdx,%rsi
    f2ab:	48 89 c7             	mov    %rax,%rdi
    f2ae:	e8 f5 65 ff ff       	callq  58a8 <safe_sub_func_int64_t_s_s>
    f2b3:	48 89 c2             	mov    %rax,%rdx
    f2b6:	48 8d 05 ff 00 01 00 	lea    0x100ff(%rip),%rax        # 1f3bc <g_102+0x1c>
    f2bd:	89 10                	mov    %edx,(%rax)
    f2bf:	8b 00                	mov    (%rax),%eax
    f2c1:	89 de                	mov    %ebx,%esi
    f2c3:	89 c7                	mov    %eax,%edi
    f2c5:	e8 33 6c ff ff       	callq  5efd <safe_mod_func_uint32_t_u_u>
    f2ca:	8b 15 a4 31 01 00    	mov    0x131a4(%rip),%edx        # 22474 <g_398+0x14>
    f2d0:	39 d0                	cmp    %edx,%eax
    f2d2:	0f 96 c0             	setbe  %al
    f2d5:	0f b6 c0             	movzbl %al,%eax
    f2d8:	be 00 00 00 00       	mov    $0x0,%esi
    f2dd:	89 c7                	mov    %eax,%edi
    f2df:	e8 f0 5e ff ff       	callq  51d4 <safe_add_func_int8_t_s_s>
    f2e4:	66 c7 85 56 ff ff ff 	movw   $0x0,-0xaa(%rbp)
    f2eb:	00 00 
    f2ed:	eb 58                	jmp    f347 <func_51+0x293>
    f2ef:	c6 85 40 ff ff ff 00 	movb   $0x0,-0xc0(%rbp)
    f2f6:	eb 3e                	jmp    f336 <func_51+0x282>
    f2f8:	0f b7 85 56 ff ff ff 	movzwl -0xaa(%rbp),%eax
    f2ff:	0f b6 95 40 ff ff ff 	movzbl -0xc0(%rbp),%edx
    f306:	48 63 ca             	movslq %edx,%rcx
    f309:	48 63 d0             	movslq %eax,%rdx
    f30c:	48 89 d0             	mov    %rdx,%rax
    f30f:	48 c1 e0 03          	shl    $0x3,%rax
    f313:	48 29 d0             	sub    %rdx,%rax
    f316:	48 01 c8             	add    %rcx,%rax
    f319:	48 8d 14 85 00 00 00 	lea    0x0(,%rax,4),%rdx
    f320:	00 
    f321:	48 8d 05 78 00 01 00 	lea    0x10078(%rip),%rax        # 1f3a0 <g_102>
    f328:	c7 04 02 62 69 be 2e 	movl   $0x2ebe6962,(%rdx,%rax,1)
    f32f:	80 85 40 ff ff ff 01 	addb   $0x1,-0xc0(%rbp)
    f336:	80 bd 40 ff ff ff 06 	cmpb   $0x6,-0xc0(%rbp)
    f33d:	76 b9                	jbe    f2f8 <func_51+0x244>
    f33f:	66 83 85 56 ff ff ff 	addw   $0x1,-0xaa(%rbp)
    f346:	01 
    f347:	66 83 bd 56 ff ff ff 	cmpw   $0x9,-0xaa(%rbp)
    f34e:	09 
    f34f:	76 9e                	jbe    f2ef <func_51+0x23b>
    f351:	c7 05 59 0b 01 00 15 	movl   $0xe8d31515,0x10b59(%rip)        # 1feb4 <g_707>
    f358:	15 d3 e8 
    f35b:	8b 05 0f 0b 01 00    	mov    0x10b0f(%rip),%eax        # 1fe70 <g_481>
    f361:	89 c0                	mov    %eax,%eax
    f363:	48 8b 5d e8          	mov    -0x18(%rbp),%rbx
    f367:	64 48 33 1c 25 28 00 	xor    %fs:0x28,%rbx
    f36e:	00 00 
    f370:	74 05                	je     f377 <func_51+0x2c3>
    f372:	e8 f9 5c ff ff       	callq  5070 <__stack_chk_fail@plt>
    f377:	48 81 c4 c0 00 00 00 	add    $0xc0,%rsp
    f37e:	5b                   	pop    %rbx
    f37f:	41 5c                	pop    %r12
    f381:	5d                   	pop    %rbp
    f382:	c3                   	retq   

000000000000f383 <func_57>:
    f383:	f3 0f 1e fa          	endbr64 
    f387:	55                   	push   %rbp
    f388:	48 89 e5             	mov    %rsp,%rbp
    f38b:	48 89 7d f8          	mov    %rdi,-0x8(%rbp)
    f38f:	48 89 75 f0          	mov    %rsi,-0x10(%rbp)
    f393:	89 d0                	mov    %edx,%eax
    f395:	48 89 4d e0          	mov    %rcx,-0x20(%rbp)
    f399:	88 45 ec             	mov    %al,-0x14(%rbp)
    f39c:	0f b6 45 ec          	movzbl -0x14(%rbp),%eax
    f3a0:	5d                   	pop    %rbp
    f3a1:	c3                   	retq   

000000000000f3a2 <func_62>:
    f3a2:	f3 0f 1e fa          	endbr64 
    f3a6:	55                   	push   %rbp
    f3a7:	48 89 e5             	mov    %rsp,%rbp
    f3aa:	41 57                	push   %r15
    f3ac:	41 56                	push   %r14
    f3ae:	41 55                	push   %r13
    f3b0:	41 54                	push   %r12
    f3b2:	53                   	push   %rbx
    f3b3:	48 81 ec 00 10 00 00 	sub    $0x1000,%rsp
    f3ba:	48 83 0c 24 00       	orq    $0x0,(%rsp)
    f3bf:	48 81 ec 38 09 00 00 	sub    $0x938,%rsp
    f3c6:	89 bd cc e6 ff ff    	mov    %edi,-0x1934(%rbp)
    f3cc:	89 b5 c8 e6 ff ff    	mov    %esi,-0x1938(%rbp)
    f3d2:	48 89 95 c0 e6 ff ff 	mov    %rdx,-0x1940(%rbp)
    f3d9:	48 89 8d b8 e6 ff ff 	mov    %rcx,-0x1948(%rbp)
    f3e0:	44 89 85 b4 e6 ff ff 	mov    %r8d,-0x194c(%rbp)
    f3e7:	64 48 8b 04 25 28 00 	mov    %fs:0x28,%rax
    f3ee:	00 00 
    f3f0:	48 89 45 c8          	mov    %rax,-0x38(%rbp)
    f3f4:	31 c0                	xor    %eax,%eax
    f3f6:	c7 85 f0 e9 ff ff 9f 	movl   $0xc92f0d9f,-0x1610(%rbp)
    f3fd:	0d 2f c9 
    f400:	c7 85 f4 e9 ff ff 9f 	movl   $0xc92f0d9f,-0x160c(%rbp)
    f407:	0d 2f c9 
    f40a:	c7 85 f8 e9 ff ff 9f 	movl   $0xc92f0d9f,-0x1608(%rbp)
    f411:	0d 2f c9 
    f414:	c7 85 fc e9 ff ff 9f 	movl   $0xc92f0d9f,-0x1604(%rbp)
    f41b:	0d 2f c9 
    f41e:	66 c7 85 da e6 ff ff 	movw   $0xfd73,-0x1926(%rbp)
    f425:	73 fd 
    f427:	c7 85 ec e6 ff ff ff 	movl   $0xffffffff,-0x1914(%rbp)
    f42e:	ff ff ff 
    f431:	c7 85 f0 e6 ff ff 65 	movl   $0x83be9465,-0x1910(%rbp)
    f438:	94 be 83 
    f43b:	c7 85 f4 e6 ff ff 03 	movl   $0x3,-0x190c(%rbp)
    f442:	00 00 00 
    f445:	48 b8 d7 d7 07 d7 d7 	movabs $0xd7d707d7d707d7d7,%rax
    f44c:	07 d7 d7 
    f44f:	48 89 45 bf          	mov    %rax,-0x41(%rbp)
    f453:	c6 45 c7 07          	movb   $0x7,-0x39(%rbp)
    f457:	c7 85 f8 e6 ff ff cb 	movl   $0xd5827acb,-0x1908(%rbp)
    f45e:	7a 82 d5 
    f461:	c7 85 fc e6 ff ff 8a 	movl   $0x1685af8a,-0x1904(%rbp)
    f468:	af 85 16 
    f46b:	66 c7 85 dc e6 ff ff 	movw   $0x1,-0x1924(%rbp)
    f472:	01 00 
    f474:	48 c7 85 b0 e7 ff ff 	movq   $0x1,-0x1850(%rbp)
    f47b:	01 00 00 00 
    f47f:	48 8d 05 1a 20 01 00 	lea    0x1201a(%rip),%rax        # 214a0 <g_108+0x80>
    f486:	48 89 85 30 e8 ff ff 	mov    %rax,-0x17d0(%rbp)
    f48d:	48 8d 05 28 ff 00 00 	lea    0xff28(%rip),%rax        # 1f3bc <g_102+0x1c>
    f494:	48 89 85 b8 e7 ff ff 	mov    %rax,-0x1848(%rbp)
    f49b:	48 8d 85 b8 e7 ff ff 	lea    -0x1848(%rbp),%rax
    f4a2:	48 89 85 c0 e7 ff ff 	mov    %rax,-0x1840(%rbp)
    f4a9:	48 8d 85 c0 e7 ff ff 	lea    -0x1840(%rbp),%rax
    f4b0:	48 89 85 38 e8 ff ff 	mov    %rax,-0x17c8(%rbp)
    f4b7:	48 b8 37 71 1c 34 b6 	movabs $0x467ac9b6341c7137,%rax
    f4be:	c9 7a 46 
    f4c1:	48 89 85 40 e8 ff ff 	mov    %rax,-0x17c0(%rbp)
    f4c8:	48 c7 85 48 e8 ff ff 	movq   $0x0,-0x17b8(%rbp)
    f4cf:	00 00 00 00 
    f4d3:	48 8d 85 da e6 ff ff 	lea    -0x1926(%rbp),%rax
    f4da:	48 89 85 c8 e7 ff ff 	mov    %rax,-0x1838(%rbp)
    f4e1:	48 8d 85 f0 eb ff ff 	lea    -0x1410(%rbp),%rax
    f4e8:	48 8d 15 b1 1d 01 00 	lea    0x11db1(%rip),%rdx        # 212a0 <g_2115+0xea0>
    f4ef:	b9 30 00 00 00       	mov    $0x30,%ecx
    f4f4:	48 89 c7             	mov    %rax,%rdi
    f4f7:	48 89 d6             	mov    %rdx,%rsi
    f4fa:	f3 48 a5             	rep movsq %ds:(%rsi),%es:(%rdi)
    f4fd:	48 8d 85 fc e6 ff ff 	lea    -0x1904(%rbp),%rax
    f504:	48 89 85 50 e8 ff ff 	mov    %rax,-0x17b0(%rbp)
    f50b:	66 c7 85 de e6 ff ff 	movw   $0x0,-0x1922(%rbp)
    f512:	00 00 
    f514:	48 8d 05 1d 09 01 00 	lea    0x1091d(%rip),%rax        # 1fe38 <g_253>
    f51b:	48 89 85 d0 e7 ff ff 	mov    %rax,-0x1830(%rbp)
    f522:	48 8d 85 d0 e7 ff ff 	lea    -0x1830(%rbp),%rax
    f529:	48 89 85 10 f1 ff ff 	mov    %rax,-0xef0(%rbp)
    f530:	48 8d 85 d0 e7 ff ff 	lea    -0x1830(%rbp),%rax
    f537:	48 89 85 18 f1 ff ff 	mov    %rax,-0xee8(%rbp)
    f53e:	48 8d 85 d0 e7 ff ff 	lea    -0x1830(%rbp),%rax
    f545:	48 89 85 20 f1 ff ff 	mov    %rax,-0xee0(%rbp)
    f54c:	48 c7 85 28 f1 ff ff 	movq   $0x0,-0xed8(%rbp)
    f553:	00 00 00 00 
    f557:	48 8d 85 d0 e7 ff ff 	lea    -0x1830(%rbp),%rax
    f55e:	48 89 85 30 f1 ff ff 	mov    %rax,-0xed0(%rbp)
    f565:	48 8d 85 d0 e7 ff ff 	lea    -0x1830(%rbp),%rax
    f56c:	48 89 85 38 f1 ff ff 	mov    %rax,-0xec8(%rbp)
    f573:	48 8d 85 d0 e7 ff ff 	lea    -0x1830(%rbp),%rax
    f57a:	48 89 85 40 f1 ff ff 	mov    %rax,-0xec0(%rbp)
    f581:	48 8d 85 d0 e7 ff ff 	lea    -0x1830(%rbp),%rax
    f588:	48 89 85 48 f1 ff ff 	mov    %rax,-0xeb8(%rbp)
    f58f:	48 8d 85 d0 e7 ff ff 	lea    -0x1830(%rbp),%rax
    f596:	48 89 85 50 f1 ff ff 	mov    %rax,-0xeb0(%rbp)
    f59d:	48 8d 85 d0 e7 ff ff 	lea    -0x1830(%rbp),%rax
    f5a4:	48 89 85 58 f1 ff ff 	mov    %rax,-0xea8(%rbp)
    f5ab:	48 c7 85 60 f1 ff ff 	movq   $0x0,-0xea0(%rbp)
    f5b2:	00 00 00 00 
    f5b6:	48 8d 85 d0 e7 ff ff 	lea    -0x1830(%rbp),%rax
    f5bd:	48 89 85 68 f1 ff ff 	mov    %rax,-0xe98(%rbp)
    f5c4:	48 8d 85 d0 e7 ff ff 	lea    -0x1830(%rbp),%rax
    f5cb:	48 89 85 70 f1 ff ff 	mov    %rax,-0xe90(%rbp)
    f5d2:	48 8d 85 d0 e7 ff ff 	lea    -0x1830(%rbp),%rax
    f5d9:	48 89 85 78 f1 ff ff 	mov    %rax,-0xe88(%rbp)
    f5e0:	48 c7 85 80 f1 ff ff 	movq   $0x0,-0xe80(%rbp)
    f5e7:	00 00 00 00 
    f5eb:	48 8d 85 d0 e7 ff ff 	lea    -0x1830(%rbp),%rax
    f5f2:	48 89 85 88 f1 ff ff 	mov    %rax,-0xe78(%rbp)
    f5f9:	48 8d 85 d0 e7 ff ff 	lea    -0x1830(%rbp),%rax
    f600:	48 89 85 90 f1 ff ff 	mov    %rax,-0xe70(%rbp)
    f607:	48 8d 85 d0 e7 ff ff 	lea    -0x1830(%rbp),%rax
    f60e:	48 89 85 98 f1 ff ff 	mov    %rax,-0xe68(%rbp)
    f615:	48 c7 85 a0 f1 ff ff 	movq   $0x0,-0xe60(%rbp)
    f61c:	00 00 00 00 
    f620:	48 c7 85 a8 f1 ff ff 	movq   $0x0,-0xe58(%rbp)
    f627:	00 00 00 00 
    f62b:	48 8d 85 d0 e7 ff ff 	lea    -0x1830(%rbp),%rax
    f632:	48 89 85 b0 f1 ff ff 	mov    %rax,-0xe50(%rbp)
    f639:	48 c7 85 b8 f1 ff ff 	movq   $0x0,-0xe48(%rbp)
    f640:	00 00 00 00 
    f644:	48 8d 85 d0 e7 ff ff 	lea    -0x1830(%rbp),%rax
    f64b:	48 89 85 c0 f1 ff ff 	mov    %rax,-0xe40(%rbp)
    f652:	48 c7 85 c8 f1 ff ff 	movq   $0x0,-0xe38(%rbp)
    f659:	00 00 00 00 
    f65d:	48 8d 85 d0 e7 ff ff 	lea    -0x1830(%rbp),%rax
    f664:	48 89 85 d0 f1 ff ff 	mov    %rax,-0xe30(%rbp)
    f66b:	48 8d 85 d0 e7 ff ff 	lea    -0x1830(%rbp),%rax
    f672:	48 89 85 d8 f1 ff ff 	mov    %rax,-0xe28(%rbp)
    f679:	48 8d 85 d0 e7 ff ff 	lea    -0x1830(%rbp),%rax
    f680:	48 89 85 e0 f1 ff ff 	mov    %rax,-0xe20(%rbp)
    f687:	48 8d 85 d0 e7 ff ff 	lea    -0x1830(%rbp),%rax
    f68e:	48 89 85 e8 f1 ff ff 	mov    %rax,-0xe18(%rbp)
    f695:	48 8d 85 d0 e7 ff ff 	lea    -0x1830(%rbp),%rax
    f69c:	48 89 85 f0 f1 ff ff 	mov    %rax,-0xe10(%rbp)
    f6a3:	48 8d 85 d0 e7 ff ff 	lea    -0x1830(%rbp),%rax
    f6aa:	48 89 85 f8 f1 ff ff 	mov    %rax,-0xe08(%rbp)
    f6b1:	48 8d 85 d0 e7 ff ff 	lea    -0x1830(%rbp),%rax
    f6b8:	48 89 85 00 f2 ff ff 	mov    %rax,-0xe00(%rbp)
    f6bf:	48 8d 85 d0 e7 ff ff 	lea    -0x1830(%rbp),%rax
    f6c6:	48 89 85 08 f2 ff ff 	mov    %rax,-0xdf8(%rbp)
    f6cd:	48 8d 85 d0 e7 ff ff 	lea    -0x1830(%rbp),%rax
    f6d4:	48 89 85 10 f2 ff ff 	mov    %rax,-0xdf0(%rbp)
    f6db:	48 8d 85 d0 e7 ff ff 	lea    -0x1830(%rbp),%rax
    f6e2:	48 89 85 18 f2 ff ff 	mov    %rax,-0xde8(%rbp)
    f6e9:	48 c7 85 20 f2 ff ff 	movq   $0x0,-0xde0(%rbp)
    f6f0:	00 00 00 00 
    f6f4:	48 c7 85 28 f2 ff ff 	movq   $0x0,-0xdd8(%rbp)
    f6fb:	00 00 00 00 
    f6ff:	48 8d 85 d0 e7 ff ff 	lea    -0x1830(%rbp),%rax
    f706:	48 89 85 30 f2 ff ff 	mov    %rax,-0xdd0(%rbp)
    f70d:	48 8d 85 d0 e7 ff ff 	lea    -0x1830(%rbp),%rax
    f714:	48 89 85 38 f2 ff ff 	mov    %rax,-0xdc8(%rbp)
    f71b:	48 c7 85 40 f2 ff ff 	movq   $0x0,-0xdc0(%rbp)
    f722:	00 00 00 00 
    f726:	48 c7 85 48 f2 ff ff 	movq   $0x0,-0xdb8(%rbp)
    f72d:	00 00 00 00 
    f731:	48 8d 85 d0 e7 ff ff 	lea    -0x1830(%rbp),%rax
    f738:	48 89 85 50 f2 ff ff 	mov    %rax,-0xdb0(%rbp)
    f73f:	48 8d 85 d0 e7 ff ff 	lea    -0x1830(%rbp),%rax
    f746:	48 89 85 58 f2 ff ff 	mov    %rax,-0xda8(%rbp)
    f74d:	48 c7 85 60 f2 ff ff 	movq   $0x0,-0xda0(%rbp)
    f754:	00 00 00 00 
    f758:	48 c7 85 68 f2 ff ff 	movq   $0x0,-0xd98(%rbp)
    f75f:	00 00 00 00 
    f763:	48 c7 85 70 f2 ff ff 	movq   $0x0,-0xd90(%rbp)
    f76a:	00 00 00 00 
    f76e:	48 8d 85 d0 e7 ff ff 	lea    -0x1830(%rbp),%rax
    f775:	48 89 85 78 f2 ff ff 	mov    %rax,-0xd88(%rbp)
    f77c:	48 8d 85 d0 e7 ff ff 	lea    -0x1830(%rbp),%rax
    f783:	48 89 85 80 f2 ff ff 	mov    %rax,-0xd80(%rbp)
    f78a:	48 c7 85 88 f2 ff ff 	movq   $0x0,-0xd78(%rbp)
    f791:	00 00 00 00 
    f795:	48 8d 85 d0 e7 ff ff 	lea    -0x1830(%rbp),%rax
    f79c:	48 89 85 90 f2 ff ff 	mov    %rax,-0xd70(%rbp)
    f7a3:	48 8d 85 d0 e7 ff ff 	lea    -0x1830(%rbp),%rax
    f7aa:	48 89 85 98 f2 ff ff 	mov    %rax,-0xd68(%rbp)
    f7b1:	48 8d 85 d0 e7 ff ff 	lea    -0x1830(%rbp),%rax
    f7b8:	48 89 85 a0 f2 ff ff 	mov    %rax,-0xd60(%rbp)
    f7bf:	48 8d 85 d0 e7 ff ff 	lea    -0x1830(%rbp),%rax
    f7c6:	48 89 85 a8 f2 ff ff 	mov    %rax,-0xd58(%rbp)
    f7cd:	48 8d 85 d0 e7 ff ff 	lea    -0x1830(%rbp),%rax
    f7d4:	48 89 85 b0 f2 ff ff 	mov    %rax,-0xd50(%rbp)
    f7db:	48 8d 85 d0 e7 ff ff 	lea    -0x1830(%rbp),%rax
    f7e2:	48 89 85 b8 f2 ff ff 	mov    %rax,-0xd48(%rbp)
    f7e9:	48 8d 85 d0 e7 ff ff 	lea    -0x1830(%rbp),%rax
    f7f0:	48 89 85 c0 f2 ff ff 	mov    %rax,-0xd40(%rbp)
    f7f7:	48 8d 85 d0 e7 ff ff 	lea    -0x1830(%rbp),%rax
    f7fe:	48 89 85 c8 f2 ff ff 	mov    %rax,-0xd38(%rbp)
    f805:	48 c7 85 d0 f2 ff ff 	movq   $0x0,-0xd30(%rbp)
    f80c:	00 00 00 00 
    f810:	48 8d 85 d0 e7 ff ff 	lea    -0x1830(%rbp),%rax
    f817:	48 89 85 d8 f2 ff ff 	mov    %rax,-0xd28(%rbp)
    f81e:	48 c7 85 e0 f2 ff ff 	movq   $0x0,-0xd20(%rbp)
    f825:	00 00 00 00 
    f829:	48 c7 85 e8 f2 ff ff 	movq   $0x0,-0xd18(%rbp)
    f830:	00 00 00 00 
    f834:	48 8d 85 d0 e7 ff ff 	lea    -0x1830(%rbp),%rax
    f83b:	48 89 85 f0 f2 ff ff 	mov    %rax,-0xd10(%rbp)
    f842:	48 c7 85 f8 f2 ff ff 	movq   $0x0,-0xd08(%rbp)
    f849:	00 00 00 00 
    f84d:	48 8d 85 d0 e7 ff ff 	lea    -0x1830(%rbp),%rax
    f854:	48 89 85 00 f3 ff ff 	mov    %rax,-0xd00(%rbp)
    f85b:	48 c7 85 08 f3 ff ff 	movq   $0x0,-0xcf8(%rbp)
    f862:	00 00 00 00 
    f866:	48 c7 85 60 e8 ff ff 	movq   $0x0,-0x17a0(%rbp)
    f86d:	00 00 00 00 
    f871:	48 c7 85 d8 e7 ff ff 	movq   $0x0,-0x1828(%rbp)
    f878:	00 00 00 00 
    f87c:	48 8d 85 d8 e7 ff ff 	lea    -0x1828(%rbp),%rax
    f883:	48 89 85 e0 e7 ff ff 	mov    %rax,-0x1820(%rbp)
    f88a:	48 c7 85 68 e8 ff ff 	movq   $0x8,-0x1798(%rbp)
    f891:	08 00 00 00 
    f895:	48 b8 41 2a b7 18 09 	movabs $0xbdf4c10918b72a41,%rax
    f89c:	c1 f4 bd 
    f89f:	48 89 85 70 e8 ff ff 	mov    %rax,-0x1790(%rbp)
    f8a6:	c7 85 38 e7 ff ff f9 	movl   $0xfffffff9,-0x18c8(%rbp)
    f8ad:	ff ff ff 
    f8b0:	48 8d 85 b8 e7 ff ff 	lea    -0x1848(%rbp),%rax
    f8b7:	48 89 85 78 e8 ff ff 	mov    %rax,-0x1788(%rbp)
    f8be:	66 c7 85 90 eb ff ff 	movw   $0x956b,-0x1470(%rbp)
    f8c5:	6b 95 
    f8c7:	66 c7 85 92 eb ff ff 	movw   $0x7f1b,-0x146e(%rbp)
    f8ce:	1b 7f 
    f8d0:	66 c7 85 94 eb ff ff 	movw   $0x956b,-0x146c(%rbp)
    f8d7:	6b 95 
    f8d9:	66 c7 85 96 eb ff ff 	movw   $0xfff7,-0x146a(%rbp)
    f8e0:	f7 ff 
    f8e2:	66 c7 85 98 eb ff ff 	movw   $0xfff7,-0x1468(%rbp)
    f8e9:	f7 ff 
    f8eb:	66 c7 85 9a eb ff ff 	movw   $0x956b,-0x1466(%rbp)
    f8f2:	6b 95 
    f8f4:	66 c7 85 9c eb ff ff 	movw   $0x0,-0x1464(%rbp)
    f8fb:	00 00 
    f8fd:	66 c7 85 9e eb ff ff 	movw   $0x0,-0x1462(%rbp)
    f904:	00 00 
    f906:	66 c7 85 a0 eb ff ff 	movw   $0xfff7,-0x1460(%rbp)
    f90d:	f7 ff 
    f90f:	66 c7 85 a2 eb ff ff 	movw   $0x4,-0x145e(%rbp)
    f916:	04 00 
    f918:	66 c7 85 a4 eb ff ff 	movw   $0xfff7,-0x145c(%rbp)
    f91f:	f7 ff 
    f921:	66 c7 85 a6 eb ff ff 	movw   $0x0,-0x145a(%rbp)
    f928:	00 00 
    f92a:	66 c7 85 a8 eb ff ff 	movw   $0xfff7,-0x1458(%rbp)
    f931:	f7 ff 
    f933:	66 c7 85 aa eb ff ff 	movw   $0x7f1b,-0x1456(%rbp)
    f93a:	1b 7f 
    f93c:	66 c7 85 ac eb ff ff 	movw   $0x4,-0x1454(%rbp)
    f943:	04 00 
    f945:	66 c7 85 ae eb ff ff 	movw   $0x4,-0x1452(%rbp)
    f94c:	04 00 
    f94e:	66 c7 85 b0 eb ff ff 	movw   $0x7f1b,-0x1450(%rbp)
    f955:	1b 7f 
    f957:	66 c7 85 b2 eb ff ff 	movw   $0xfff7,-0x144e(%rbp)
    f95e:	f7 ff 
    f960:	66 c7 85 b4 eb ff ff 	movw   $0x0,-0x144c(%rbp)
    f967:	00 00 
    f969:	66 c7 85 b6 eb ff ff 	movw   $0xfff7,-0x144a(%rbp)
    f970:	f7 ff 
    f972:	66 c7 85 b8 eb ff ff 	movw   $0x4,-0x1448(%rbp)
    f979:	04 00 
    f97b:	66 c7 85 ba eb ff ff 	movw   $0xfff7,-0x1446(%rbp)
    f982:	f7 ff 
    f984:	66 c7 85 bc eb ff ff 	movw   $0x0,-0x1444(%rbp)
    f98b:	00 00 
    f98d:	66 c7 85 be eb ff ff 	movw   $0x0,-0x1442(%rbp)
    f994:	00 00 
    f996:	66 c7 85 c0 eb ff ff 	movw   $0x956b,-0x1440(%rbp)
    f99d:	6b 95 
    f99f:	66 c7 85 c2 eb ff ff 	movw   $0xfff7,-0x143e(%rbp)
    f9a6:	f7 ff 
    f9a8:	66 c7 85 c4 eb ff ff 	movw   $0xfff7,-0x143c(%rbp)
    f9af:	f7 ff 
    f9b1:	66 c7 85 c6 eb ff ff 	movw   $0x956b,-0x143a(%rbp)
    f9b8:	6b 95 
    f9ba:	66 c7 85 c8 eb ff ff 	movw   $0x7f1b,-0x1438(%rbp)
    f9c1:	1b 7f 
    f9c3:	66 c7 85 ca eb ff ff 	movw   $0x956b,-0x1436(%rbp)
    f9ca:	6b 95 
    f9cc:	66 c7 85 cc eb ff ff 	movw   $0x956b,-0x1434(%rbp)
    f9d3:	6b 95 
    f9d5:	66 c7 85 ce eb ff ff 	movw   $0x7f1b,-0x1432(%rbp)
    f9dc:	1b 7f 
    f9de:	66 c7 85 d0 eb ff ff 	movw   $0x956b,-0x1430(%rbp)
    f9e5:	6b 95 
    f9e7:	66 c7 85 d2 eb ff ff 	movw   $0xfff7,-0x142e(%rbp)
    f9ee:	f7 ff 
    f9f0:	66 c7 85 d4 eb ff ff 	movw   $0xfff7,-0x142c(%rbp)
    f9f7:	f7 ff 
    f9f9:	66 c7 85 d6 eb ff ff 	movw   $0x956b,-0x142a(%rbp)
    fa00:	6b 95 
    fa02:	66 c7 85 d8 eb ff ff 	movw   $0x0,-0x1428(%rbp)
    fa09:	00 00 
    fa0b:	66 c7 85 da eb ff ff 	movw   $0x0,-0x1426(%rbp)
    fa12:	00 00 
    fa14:	66 c7 85 dc eb ff ff 	movw   $0xfff7,-0x1424(%rbp)
    fa1b:	f7 ff 
    fa1d:	66 c7 85 de eb ff ff 	movw   $0x4,-0x1422(%rbp)
    fa24:	04 00 
    fa26:	66 c7 85 e0 eb ff ff 	movw   $0xfff7,-0x1420(%rbp)
    fa2d:	f7 ff 
    fa2f:	66 c7 85 e2 eb ff ff 	movw   $0x0,-0x141e(%rbp)
    fa36:	00 00 
    fa38:	c7 85 3c e7 ff ff 81 	movl   $0x52cc881,-0x18c4(%rbp)
    fa3f:	c8 2c 05 
    fa42:	0f b6 05 ef f5 00 00 	movzbl 0xf5ef(%rip),%eax        # 1f038 <g_82>
    fa49:	0f b6 c0             	movzbl %al,%eax
    fa4c:	be 9b 57 92 23       	mov    $0x2392579b,%esi
    fa51:	89 c7                	mov    %eax,%edi
    fa53:	e8 5e 5b ff ff       	callq  55b6 <safe_add_func_int32_t_s_s>
    fa58:	41 89 c6             	mov    %eax,%r14d
    fa5b:	8b 1d 0f f9 00 00    	mov    0xf90f(%rip),%ebx        # 1f370 <g_84+0x330>
    fa61:	8b 05 c5 f5 00 00    	mov    0xf5c5(%rip),%eax        # 1f02c <g_4>
    fa67:	4c 63 e0             	movslq %eax,%r12
    fa6a:	8b 85 cc e6 ff ff    	mov    -0x1934(%rbp),%eax
    fa70:	44 0f bf e8          	movswl %ax,%r13d
    fa74:	8b 85 c8 e6 ff ff    	mov    -0x1938(%rbp),%eax
    fa7a:	98                   	cwtl   
    fa7b:	be 0a 00 00 00       	mov    $0xa,%esi
    fa80:	89 c7                	mov    %eax,%edi
    fa82:	e8 dc 5a ff ff       	callq  5563 <safe_rshift_func_int16_t_s_u>
    fa87:	44 89 ee             	mov    %r13d,%esi
    fa8a:	bf 00 00 00 00       	mov    $0x0,%edi
    fa8f:	e8 61 59 ff ff       	callq  53f5 <safe_mul_func_int16_t_s_s>
    fa94:	48 0f bf c0          	movswq %ax,%rax
    fa98:	25 20 63 00 00       	and    $0x6320,%eax
    fa9d:	4c 89 e6             	mov    %r12,%rsi
    faa0:	48 89 c7             	mov    %rax,%rdi
    faa3:	e8 99 5d ff ff       	callq  5841 <safe_add_func_int64_t_s_s>
    faa8:	89 c2                	mov    %eax,%edx
    faaa:	0f b6 05 87 f5 00 00 	movzbl 0xf587(%rip),%eax        # 1f038 <g_82>
    fab1:	0f b6 c0             	movzbl %al,%eax
    fab4:	89 d6                	mov    %edx,%esi
    fab6:	89 c7                	mov    %eax,%edi
    fab8:	e8 6d 5a ff ff       	callq  552a <safe_rshift_func_int16_t_s_s>
    fabd:	66 c1 e8 0f          	shr    $0xf,%ax
    fac1:	0f b6 d0             	movzbl %al,%edx
    fac4:	8b 85 fc e9 ff ff    	mov    -0x1604(%rbp),%eax
    faca:	39 c2                	cmp    %eax,%edx
    facc:	75 13                	jne    fae1 <func_62+0x73f>
    face:	0f b7 85 da e6 ff ff 	movzwl -0x1926(%rbp),%eax
    fad5:	66 85 c0             	test   %ax,%ax
    fad8:	74 07                	je     fae1 <func_62+0x73f>
    fada:	ba 01 00 00 00       	mov    $0x1,%edx
    fadf:	eb 05                	jmp    fae6 <func_62+0x744>
    fae1:	ba 00 00 00 00       	mov    $0x0,%edx
    fae6:	0f b6 05 4b f5 00 00 	movzbl 0xf54b(%rip),%eax        # 1f038 <g_82>
    faed:	0f b6 c0             	movzbl %al,%eax
    faf0:	39 c2                	cmp    %eax,%edx
    faf2:	0f 9d c0             	setge  %al
    faf5:	0f b6 d0             	movzbl %al,%edx
    faf8:	48 8b 85 b8 e6 ff ff 	mov    -0x1948(%rbp),%rax
    faff:	48 8b 00             	mov    (%rax),%rax
    fb02:	48 39 c2             	cmp    %rax,%rdx
    fb05:	0f 9c c0             	setl   %al
    fb08:	0f b6 c0             	movzbl %al,%eax
    fb0b:	89 de                	mov    %ebx,%esi
    fb0d:	89 c7                	mov    %eax,%edi
    fb0f:	e8 66 63 ff ff       	callq  5e7a <safe_rshift_func_uint16_t_u_u>
    fb14:	0f b7 c0             	movzwl %ax,%eax
    fb17:	41 39 c6             	cmp    %eax,%r14d
    fb1a:	0f 84 62 0a 00 00    	je     10582 <func_62+0x11e0>
    fb20:	48 8d 05 91 f9 00 00 	lea    0xf991(%rip),%rax        # 1f4b8 <g_107>
    fb27:	48 89 85 10 e8 ff ff 	mov    %rax,-0x17f0(%rbp)
    fb2e:	c7 85 40 e7 ff ff 05 	movl   $0x5,-0x18c0(%rbp)
    fb35:	00 00 00 
    fb38:	c7 85 44 e7 ff ff 00 	movl   $0x0,-0x18bc(%rbp)
    fb3f:	00 00 00 
    fb42:	48 c7 85 88 e8 ff ff 	movq   $0xfffffffffffffff8,-0x1778(%rbp)
    fb49:	f8 ff ff ff 
    fb4d:	c7 85 48 e7 ff ff 00 	movl   $0x0,-0x18b8(%rbp)
    fb54:	00 00 00 
    fb57:	c7 85 4c e7 ff ff 31 	movl   $0xcc802431,-0x18b4(%rbp)
    fb5e:	24 80 cc 
    fb61:	48 8d 85 30 ef ff ff 	lea    -0x10d0(%rbp),%rax
    fb68:	48 83 c0 18          	add    $0x18,%rax
    fb6c:	48 89 85 90 e8 ff ff 	mov    %rax,-0x1770(%rbp)
    fb73:	c7 85 1c e7 ff ff 00 	movl   $0x0,-0x18e4(%rbp)
    fb7a:	00 00 00 
    fb7d:	eb 1e                	jmp    fb9d <func_62+0x7fb>
    fb7f:	8b 85 1c e7 ff ff    	mov    -0x18e4(%rbp),%eax
    fb85:	48 98                	cltq   
    fb87:	48 8d 15 2e f8 00 00 	lea    0xf82e(%rip),%rdx        # 1f3bc <g_102+0x1c>
    fb8e:	48 89 94 c5 30 ef ff 	mov    %rdx,-0x10d0(%rbp,%rax,8)
    fb95:	ff 
    fb96:	83 85 1c e7 ff ff 01 	addl   $0x1,-0x18e4(%rbp)
    fb9d:	83 bd 1c e7 ff ff 03 	cmpl   $0x3,-0x18e4(%rbp)
    fba4:	7e d9                	jle    fb7f <func_62+0x7dd>
    fba6:	90                   	nop
    fba7:	c7 85 b4 e6 ff ff 17 	movl   $0x17,-0x194c(%rbp)
    fbae:	00 00 00 
    fbb1:	eb 25                	jmp    fbd8 <func_62+0x836>
    fbb3:	c7 05 ff f7 00 00 ff 	movl   $0xffffffff,0xf7ff(%rip)        # 1f3bc <g_102+0x1c>
    fbba:	ff ff ff 
    fbbd:	8b 05 69 f4 00 00    	mov    0xf469(%rip),%eax        # 1f02c <g_4>
    fbc3:	85 c0                	test   %eax,%eax
    fbc5:	74 02                	je     fbc9 <func_62+0x827>
    fbc7:	eb de                	jmp    fba7 <func_62+0x805>
    fbc9:	8b 85 b4 e6 ff ff    	mov    -0x194c(%rbp),%eax
    fbcf:	83 e8 01             	sub    $0x1,%eax
    fbd2:	89 85 b4 e6 ff ff    	mov    %eax,-0x194c(%rbp)
    fbd8:	8b 85 b4 e6 ff ff    	mov    -0x194c(%rbp),%eax
    fbde:	83 f8 ed             	cmp    $0xffffffed,%eax
    fbe1:	7d d0                	jge    fbb3 <func_62+0x811>
    fbe3:	48 c7 05 42 f4 00 00 	movq   $0x3,0xf442(%rip)        # 1f030 <g_42>
    fbea:	03 00 00 00 
    fbee:	e9 7a 09 00 00       	jmpq   1056d <func_62+0x11cb>
    fbf3:	48 8d 05 32 f4 00 00 	lea    0xf432(%rip),%rax        # 1f02c <g_4>
    fbfa:	48 89 85 18 e8 ff ff 	mov    %rax,-0x17e8(%rbp)
    fc01:	48 8d 85 18 e8 ff ff 	lea    -0x17e8(%rbp),%rax
    fc08:	48 89 85 70 f9 ff ff 	mov    %rax,-0x690(%rbp)
    fc0f:	48 c7 85 78 f9 ff ff 	movq   $0x0,-0x688(%rbp)
    fc16:	00 00 00 00 
    fc1a:	48 8d 85 18 e8 ff ff 	lea    -0x17e8(%rbp),%rax
    fc21:	48 89 85 80 f9 ff ff 	mov    %rax,-0x680(%rbp)
    fc28:	48 8d 85 18 e8 ff ff 	lea    -0x17e8(%rbp),%rax
    fc2f:	48 89 85 88 f9 ff ff 	mov    %rax,-0x678(%rbp)
    fc36:	48 c7 85 90 f9 ff ff 	movq   $0x0,-0x670(%rbp)
    fc3d:	00 00 00 00 
    fc41:	48 8d 85 18 e8 ff ff 	lea    -0x17e8(%rbp),%rax
    fc48:	48 89 85 98 f9 ff ff 	mov    %rax,-0x668(%rbp)
    fc4f:	48 c7 85 a0 f9 ff ff 	movq   $0x0,-0x660(%rbp)
    fc56:	00 00 00 00 
    fc5a:	48 8d 85 18 e8 ff ff 	lea    -0x17e8(%rbp),%rax
    fc61:	48 89 85 a8 f9 ff ff 	mov    %rax,-0x658(%rbp)
    fc68:	48 8d 85 18 e8 ff ff 	lea    -0x17e8(%rbp),%rax
    fc6f:	48 89 85 b0 f9 ff ff 	mov    %rax,-0x650(%rbp)
    fc76:	48 8d 85 18 e8 ff ff 	lea    -0x17e8(%rbp),%rax
    fc7d:	48 89 85 b8 f9 ff ff 	mov    %rax,-0x648(%rbp)
    fc84:	48 8d 85 18 e8 ff ff 	lea    -0x17e8(%rbp),%rax
    fc8b:	48 89 85 c0 f9 ff ff 	mov    %rax,-0x640(%rbp)
    fc92:	48 8d 85 18 e8 ff ff 	lea    -0x17e8(%rbp),%rax
    fc99:	48 89 85 c8 f9 ff ff 	mov    %rax,-0x638(%rbp)
    fca0:	48 8d 85 18 e8 ff ff 	lea    -0x17e8(%rbp),%rax
    fca7:	48 89 85 d0 f9 ff ff 	mov    %rax,-0x630(%rbp)
    fcae:	48 8d 85 18 e8 ff ff 	lea    -0x17e8(%rbp),%rax
    fcb5:	48 89 85 d8 f9 ff ff 	mov    %rax,-0x628(%rbp)
    fcbc:	48 8d 85 18 e8 ff ff 	lea    -0x17e8(%rbp),%rax
    fcc3:	48 89 85 e0 f9 ff ff 	mov    %rax,-0x620(%rbp)
    fcca:	48 8d 85 18 e8 ff ff 	lea    -0x17e8(%rbp),%rax
    fcd1:	48 89 85 e8 f9 ff ff 	mov    %rax,-0x618(%rbp)
    fcd8:	48 8d 85 18 e8 ff ff 	lea    -0x17e8(%rbp),%rax
    fcdf:	48 89 85 f0 f9 ff ff 	mov    %rax,-0x610(%rbp)
    fce6:	48 8d 85 18 e8 ff ff 	lea    -0x17e8(%rbp),%rax
    fced:	48 89 85 f8 f9 ff ff 	mov    %rax,-0x608(%rbp)
    fcf4:	48 c7 85 00 fa ff ff 	movq   $0x0,-0x600(%rbp)
    fcfb:	00 00 00 00 
    fcff:	48 c7 85 08 fa ff ff 	movq   $0x0,-0x5f8(%rbp)
    fd06:	00 00 00 00 
    fd0a:	48 c7 85 10 fa ff ff 	movq   $0x0,-0x5f0(%rbp)
    fd11:	00 00 00 00 
    fd15:	48 8d 85 18 e8 ff ff 	lea    -0x17e8(%rbp),%rax
    fd1c:	48 89 85 18 fa ff ff 	mov    %rax,-0x5e8(%rbp)
    fd23:	48 8d 85 18 e8 ff ff 	lea    -0x17e8(%rbp),%rax
    fd2a:	48 89 85 20 fa ff ff 	mov    %rax,-0x5e0(%rbp)
    fd31:	48 c7 85 28 fa ff ff 	movq   $0x0,-0x5d8(%rbp)
    fd38:	00 00 00 00 
    fd3c:	48 c7 85 30 fa ff ff 	movq   $0x0,-0x5d0(%rbp)
    fd43:	00 00 00 00 
    fd47:	48 c7 85 38 fa ff ff 	movq   $0x0,-0x5c8(%rbp)
    fd4e:	00 00 00 00 
    fd52:	48 8d 85 18 e8 ff ff 	lea    -0x17e8(%rbp),%rax
    fd59:	48 89 85 40 fa ff ff 	mov    %rax,-0x5c0(%rbp)
    fd60:	48 8d 05 55 f6 00 00 	lea    0xf655(%rip),%rax        # 1f3bc <g_102+0x1c>
    fd67:	48 89 85 98 e8 ff ff 	mov    %rax,-0x1768(%rbp)
    fd6e:	48 8d 85 18 e8 ff ff 	lea    -0x17e8(%rbp),%rax
    fd75:	48 89 85 a0 e8 ff ff 	mov    %rax,-0x1760(%rbp)
    fd7c:	c7 85 50 e7 ff ff bc 	movl   $0xd8ea20bc,-0x18b0(%rbp)
    fd83:	20 ea d8 
    fd86:	48 c7 85 58 e8 ff ff 	movq   $0x1,-0x17a8(%rbp)
    fd8d:	01 00 00 00 
    fd91:	48 c7 85 10 e8 ff ff 	movq   $0x0,-0x17f0(%rbp)
    fd98:	00 00 00 00 
    fd9c:	48 8b 85 10 e8 ff ff 	mov    -0x17f0(%rbp),%rax
    fda3:	48 89 05 de 16 01 00 	mov    %rax,0x116de(%rip)        # 21488 <g_108+0x68>
    fdaa:	c7 85 b4 e6 ff ff 02 	movl   $0x2,-0x194c(%rbp)
    fdb1:	00 00 00 
    fdb4:	e9 94 07 00 00       	jmpq   1054d <func_62+0x11ab>
    fdb9:	48 8d 85 10 e8 ff ff 	lea    -0x17f0(%rbp),%rax
    fdc0:	48 89 85 a8 e8 ff ff 	mov    %rax,-0x1758(%rbp)
    fdc7:	48 8d 05 f2 f6 00 00 	lea    0xf6f2(%rip),%rax        # 1f4c0 <g_140>
    fdce:	48 89 85 b0 e8 ff ff 	mov    %rax,-0x1750(%rbp)
    fdd5:	66 c7 85 e2 e6 ff ff 	movw   $0xfffd,-0x191e(%rbp)
    fddc:	fd ff 
    fdde:	c7 85 20 e7 ff ff 00 	movl   $0x0,-0x18e0(%rbp)
    fde5:	00 00 00 
    fde8:	eb 1a                	jmp    fe04 <func_62+0xa62>
    fdea:	8b 85 20 e7 ff ff    	mov    -0x18e0(%rbp),%eax
    fdf0:	48 98                	cltq   
    fdf2:	c7 84 85 70 ed ff ff 	movl   $0xd2b54446,-0x1290(%rbp,%rax,4)
    fdf9:	46 44 b5 d2 
    fdfd:	83 85 20 e7 ff ff 01 	addl   $0x1,-0x18e0(%rbp)
    fe04:	83 bd 20 e7 ff ff 05 	cmpl   $0x5,-0x18e0(%rbp)
    fe0b:	7e dd                	jle    fdea <func_62+0xa48>
    fe0d:	c7 85 20 e7 ff ff 00 	movl   $0x0,-0x18e0(%rbp)
    fe14:	00 00 00 
    fe17:	eb 1a                	jmp    fe33 <func_62+0xa91>
    fe19:	8b 85 20 e7 ff ff    	mov    -0x18e0(%rbp),%eax
    fe1f:	48 98                	cltq   
    fe21:	c7 84 85 40 eb ff ff 	movl   $0x0,-0x14c0(%rbp,%rax,4)
    fe28:	00 00 00 00 
    fe2c:	83 85 20 e7 ff ff 01 	addl   $0x1,-0x18e0(%rbp)
    fe33:	83 bd 20 e7 ff ff 04 	cmpl   $0x4,-0x18e0(%rbp)
    fe3a:	7e dd                	jle    fe19 <func_62+0xa77>
    fe3c:	8b 85 b4 e6 ff ff    	mov    -0x194c(%rbp),%eax
    fe42:	48 98                	cltq   
    fe44:	8b 84 85 f0 e9 ff ff 	mov    -0x1610(%rbp,%rax,4),%eax
    fe4b:	89 85 c8 e6 ff ff    	mov    %eax,-0x1938(%rbp)
    fe51:	8b 85 b4 e6 ff ff    	mov    -0x194c(%rbp),%eax
    fe57:	48 98                	cltq   
    fe59:	8b 84 85 f0 e9 ff ff 	mov    -0x1610(%rbp,%rax,4),%eax
    fe60:	89 85 c8 e6 ff ff    	mov    %eax,-0x1938(%rbp)
    fe66:	48 8d 85 b4 e6 ff ff 	lea    -0x194c(%rbp),%rax
    fe6d:	48 89 05 7c 16 01 00 	mov    %rax,0x1167c(%rip)        # 214f0 <g_108+0xd0>
    fe74:	c7 05 3a f6 00 00 02 	movl   $0x2,0xf63a(%rip)        # 1f4b8 <g_107>
    fe7b:	00 00 00 
    fe7e:	e9 ad 06 00 00       	jmpq   10530 <func_62+0x118e>
    fe83:	c6 85 d5 e6 ff ff d1 	movb   $0xd1,-0x192b(%rbp)
    fe8a:	48 8d 05 2f fe 00 00 	lea    0xfe2f(%rip),%rax        # 1fcc0 <g_152>
    fe91:	48 89 85 b8 e8 ff ff 	mov    %rax,-0x1748(%rbp)
    fe98:	c7 85 c0 ea ff ff 04 	movl   $0x4,-0x1540(%rbp)
    fe9f:	00 00 00 
    fea2:	c7 85 c4 ea ff ff 04 	movl   $0x4,-0x153c(%rbp)
    fea9:	00 00 00 
    feac:	c7 85 c8 ea ff ff 04 	movl   $0x4,-0x1538(%rbp)
    feb3:	00 00 00 
    feb6:	c7 85 cc ea ff ff 04 	movl   $0x4,-0x1534(%rbp)
    febd:	00 00 00 
    fec0:	48 8d 05 f9 f5 00 00 	lea    0xf5f9(%rip),%rax        # 1f4c0 <g_140>
    fec7:	48 89 85 c0 e8 ff ff 	mov    %rax,-0x1740(%rbp)
    fece:	48 8d 05 bf fe 00 00 	lea    0xfebf(%rip),%rax        # 1fd94 <g_160>
    fed5:	48 89 85 c8 e8 ff ff 	mov    %rax,-0x1738(%rbp)
    fedc:	c7 85 54 e7 ff ff 17 	movl   $0x906cfe17,-0x18ac(%rbp)
    fee3:	fe 6c 90 
    fee6:	c7 85 58 e7 ff ff cc 	movl   $0xb6c500cc,-0x18a8(%rbp)
    feed:	00 c5 b6 
    fef0:	48 8d 85 30 ef ff ff 	lea    -0x10d0(%rbp),%rax
    fef7:	48 83 c0 18          	add    $0x18,%rax
    fefb:	48 89 85 10 f3 ff ff 	mov    %rax,-0xcf0(%rbp)
    ff02:	48 8d 85 30 ef ff ff 	lea    -0x10d0(%rbp),%rax
    ff09:	48 83 c0 18          	add    $0x18,%rax
    ff0d:	48 89 85 18 f3 ff ff 	mov    %rax,-0xce8(%rbp)
    ff14:	48 8d 85 30 ef ff ff 	lea    -0x10d0(%rbp),%rax
    ff1b:	48 83 c0 18          	add    $0x18,%rax
    ff1f:	48 89 85 20 f3 ff ff 	mov    %rax,-0xce0(%rbp)
    ff26:	48 8d 85 30 ef ff ff 	lea    -0x10d0(%rbp),%rax
    ff2d:	48 83 c0 18          	add    $0x18,%rax
    ff31:	48 89 85 28 f3 ff ff 	mov    %rax,-0xcd8(%rbp)
    ff38:	c7 85 24 e7 ff ff 00 	movl   $0x0,-0x18dc(%rbp)
    ff3f:	00 00 00 
    ff42:	eb 45                	jmp    ff89 <func_62+0xbe7>
    ff44:	c7 85 28 e7 ff ff 00 	movl   $0x0,-0x18d8(%rbp)
    ff4b:	00 00 00 
    ff4e:	eb 29                	jmp    ff79 <func_62+0xbd7>
    ff50:	8b 85 28 e7 ff ff    	mov    -0x18d8(%rbp),%eax
    ff56:	48 98                	cltq   
    ff58:	8b 95 24 e7 ff ff    	mov    -0x18dc(%rbp),%edx
    ff5e:	48 63 d2             	movslq %edx,%rdx
    ff61:	48 01 d2             	add    %rdx,%rdx
    ff64:	48 01 d0             	add    %rdx,%rax
    ff67:	c7 84 85 00 eb ff ff 	movl   $0xfffffffd,-0x1500(%rbp,%rax,4)
    ff6e:	fd ff ff ff 
    ff72:	83 85 28 e7 ff ff 01 	addl   $0x1,-0x18d8(%rbp)
    ff79:	83 bd 28 e7 ff ff 01 	cmpl   $0x1,-0x18d8(%rbp)
    ff80:	7e ce                	jle    ff50 <func_62+0xbae>
    ff82:	83 85 24 e7 ff ff 01 	addl   $0x1,-0x18dc(%rbp)
    ff89:	83 bd 24 e7 ff ff 01 	cmpl   $0x1,-0x18dc(%rbp)
    ff90:	7e b2                	jle    ff44 <func_62+0xba2>
    ff92:	c7 85 c8 e6 ff ff 00 	movl   $0x0,-0x1938(%rbp)
    ff99:	00 00 00 
    ff9c:	e9 a4 02 00 00       	jmpq   10245 <func_62+0xea3>
    ffa1:	48 b8 03 57 48 a2 e7 	movabs $0x64b8eae7a2485703,%rax
    ffa8:	ea b8 64 
    ffab:	48 89 85 e0 e8 ff ff 	mov    %rax,-0x1720(%rbp)
    ffb2:	48 8d 05 03 f4 00 00 	lea    0xf403(%rip),%rax        # 1f3bc <g_102+0x1c>
    ffb9:	48 89 85 20 e8 ff ff 	mov    %rax,-0x17e0(%rbp)
    ffc0:	48 8d 85 20 e8 ff ff 	lea    -0x17e0(%rbp),%rax
    ffc7:	48 89 85 b0 f5 ff ff 	mov    %rax,-0xa50(%rbp)
    ffce:	48 8d 85 20 e8 ff ff 	lea    -0x17e0(%rbp),%rax
    ffd5:	48 89 85 b8 f5 ff ff 	mov    %rax,-0xa48(%rbp)
    ffdc:	48 8d 85 20 e8 ff ff 	lea    -0x17e0(%rbp),%rax
    ffe3:	48 89 85 c0 f5 ff ff 	mov    %rax,-0xa40(%rbp)
    ffea:	48 8d 85 20 e8 ff ff 	lea    -0x17e0(%rbp),%rax
    fff1:	48 89 85 c8 f5 ff ff 	mov    %rax,-0xa38(%rbp)
    fff8:	48 8d 05 c1 f4 00 00 	lea    0xf4c1(%rip),%rax        # 1f4c0 <g_140>
    ffff:	48 89 85 e8 e8 ff ff 	mov    %rax,-0x1718(%rbp)
   10006:	48 8d 05 1b f8 00 00 	lea    0xf81b(%rip),%rax        # 1f828 <g_142+0x348>
   1000d:	48 89 85 28 e8 ff ff 	mov    %rax,-0x17d8(%rbp)
   10014:	48 8d 85 28 e8 ff ff 	lea    -0x17d8(%rbp),%rax
   1001b:	48 89 85 f0 e8 ff ff 	mov    %rax,-0x1710(%rbp)
   10022:	8b 85 40 eb ff ff    	mov    -0x14c0(%rbp),%eax
   10028:	83 e8 01             	sub    $0x1,%eax
   1002b:	89 85 40 eb ff ff    	mov    %eax,-0x14c0(%rbp)
   10031:	8b 05 81 f4 00 00    	mov    0xf481(%rip),%eax        # 1f4b8 <g_107>
   10037:	8b 95 c8 e6 ff ff    	mov    -0x1938(%rbp),%edx
   1003d:	8d 72 05             	lea    0x5(%rdx),%esi
   10040:	8b 95 c8 e6 ff ff    	mov    -0x1938(%rbp),%edx
   10046:	83 c2 05             	add    $0x5,%edx
   10049:	48 63 ca             	movslq %edx,%rcx
   1004c:	48 63 d0             	movslq %eax,%rdx
   1004f:	48 63 f6             	movslq %esi,%rsi
   10052:	48 89 d0             	mov    %rdx,%rax
   10055:	48 c1 e0 03          	shl    $0x3,%rax
   10059:	48 01 d0             	add    %rdx,%rax
   1005c:	48 01 f0             	add    %rsi,%rax
   1005f:	48 c1 e0 03          	shl    $0x3,%rax
   10063:	48 01 c8             	add    %rcx,%rax
   10066:	48 8d 14 85 00 00 00 	lea    0x0(,%rax,4),%rdx
   1006d:	00 
   1006e:	48 8d 05 cb ef 00 00 	lea    0xefcb(%rip),%rax        # 1f040 <g_84>
   10075:	8b 04 02             	mov    (%rdx,%rax,1),%eax
   10078:	0f b7 d8             	movzwl %ax,%ebx
   1007b:	8b 85 b4 e6 ff ff    	mov    -0x194c(%rbp),%eax
   10081:	44 0f b6 e0          	movzbl %al,%r12d
   10085:	48 83 bd a8 e8 ff ff 	cmpq   $0x0,-0x1758(%rbp)
   1008c:	00 
   1008d:	0f 95 c0             	setne  %al
   10090:	0f b6 d0             	movzbl %al,%edx
   10093:	0f b6 05 9e ef 00 00 	movzbl 0xef9e(%rip),%eax        # 1f038 <g_82>
   1009a:	0f b6 c0             	movzbl %al,%eax
   1009d:	39 c2                	cmp    %eax,%edx
   1009f:	0f 9c c0             	setl   %al
   100a2:	0f b6 c0             	movzbl %al,%eax
   100a5:	be 0b 00 00 00       	mov    $0xb,%esi
   100aa:	89 c7                	mov    %eax,%edi
   100ac:	e8 79 54 ff ff       	callq  552a <safe_rshift_func_int16_t_s_s>
   100b1:	66 85 c0             	test   %ax,%ax
   100b4:	74 08                	je     100be <func_62+0xd1c>
   100b6:	8b 85 cc e6 ff ff    	mov    -0x1934(%rbp),%eax
   100bc:	85 c0                	test   %eax,%eax
   100be:	0f b7 85 da e6 ff ff 	movzwl -0x1926(%rbp),%eax
   100c5:	66 85 c0             	test   %ax,%ax
   100c8:	74 52                	je     1011c <func_62+0xd7a>
   100ca:	8b 05 e8 f3 00 00    	mov    0xf3e8(%rip),%eax        # 1f4b8 <g_107>
   100d0:	8b 95 c8 e6 ff ff    	mov    -0x1938(%rbp),%edx
   100d6:	8d 72 05             	lea    0x5(%rdx),%esi
   100d9:	8b 95 c8 e6 ff ff    	mov    -0x1938(%rbp),%edx
   100df:	83 c2 05             	add    $0x5,%edx
   100e2:	48 63 ca             	movslq %edx,%rcx
   100e5:	48 63 d0             	movslq %eax,%rdx
   100e8:	48 63 f6             	movslq %esi,%rsi
   100eb:	48 89 d0             	mov    %rdx,%rax
   100ee:	48 c1 e0 03          	shl    $0x3,%rax
   100f2:	48 01 d0             	add    %rdx,%rax
   100f5:	48 01 f0             	add    %rsi,%rax
   100f8:	48 c1 e0 03          	shl    $0x3,%rax
   100fc:	48 01 c8             	add    %rcx,%rax
   100ff:	48 8d 14 85 00 00 00 	lea    0x0(,%rax,4),%rdx
   10106:	00 
   10107:	48 8d 05 32 ef 00 00 	lea    0xef32(%rip),%rax        # 1f040 <g_84>
   1010e:	8b 04 02             	mov    (%rdx,%rax,1),%eax
   10111:	85 c0                	test   %eax,%eax
   10113:	74 07                	je     1011c <func_62+0xd7a>
   10115:	b8 01 00 00 00       	mov    $0x1,%eax
   1011a:	eb 05                	jmp    10121 <func_62+0xd7f>
   1011c:	b8 00 00 00 00       	mov    $0x0,%eax
   10121:	98                   	cwtl   
   10122:	be ff ff ff ff       	mov    $0xffffffff,%esi
   10127:	89 c7                	mov    %eax,%edi
   10129:	e8 27 53 ff ff       	callq  5455 <safe_div_func_int16_t_s_s>
   1012e:	48 8b 85 e8 e8 ff ff 	mov    -0x1718(%rbp),%rax
   10135:	48 b9 63 37 bb f1 c4 	movabs $0x29cdfbc4f1bb3763,%rcx
   1013c:	fb cd 29 
   1013f:	48 89 08             	mov    %rcx,(%rax)
   10142:	be 03 00 00 00       	mov    $0x3,%esi
   10147:	bf 01 00 00 00       	mov    $0x1,%edi
   1014c:	e8 1b 52 ff ff       	callq  536c <safe_rshift_func_int8_t_s_u>
   10151:	0f b6 c0             	movzbl %al,%eax
   10154:	44 89 e6             	mov    %r12d,%esi
   10157:	89 c7                	mov    %eax,%edi
   10159:	e8 35 5a ff ff       	callq  5b93 <safe_mul_func_uint8_t_u_u>
   1015e:	48 8d 05 57 f2 00 00 	lea    0xf257(%rip),%rax        # 1f3bc <g_102+0x1c>
   10165:	48 89 85 98 e8 ff ff 	mov    %rax,-0x1768(%rbp)
   1016c:	be 09 00 00 00       	mov    $0x9,%esi
   10171:	bf 01 00 00 00       	mov    $0x1,%edi
   10176:	e8 8b 5c ff ff       	callq  5e06 <safe_lshift_func_uint16_t_u_u>
   1017b:	0f b7 c0             	movzwl %ax,%eax
   1017e:	89 de                	mov    %ebx,%esi
   10180:	89 c7                	mov    %eax,%edi
   10182:	e8 d5 5b ff ff       	callq  5d5c <safe_mod_func_uint16_t_u_u>
   10187:	0f be c0             	movsbl %al,%eax
   1018a:	be 00 00 00 00       	mov    $0x0,%esi
   1018f:	89 c7                	mov    %eax,%edi
   10191:	e8 9f 51 ff ff       	callq  5335 <safe_rshift_func_int8_t_s_s>
   10196:	48 8b 85 e0 e8 ff ff 	mov    -0x1720(%rbp),%rax
   1019d:	89 85 cc e6 ff ff    	mov    %eax,-0x1934(%rbp)
   101a3:	8b 85 cc e6 ff ff    	mov    -0x1934(%rbp),%eax
   101a9:	89 c7                	mov    %eax,%edi
   101ab:	e8 f6 5c ff ff       	callq  5ea6 <safe_unary_minus_func_uint32_t_u>
   101b0:	8b 05 02 f3 00 00    	mov    0xf302(%rip),%eax        # 1f4b8 <g_107>
   101b6:	8b 95 c8 e6 ff ff    	mov    -0x1938(%rbp),%edx
   101bc:	8d 72 05             	lea    0x5(%rdx),%esi
   101bf:	8b 95 c8 e6 ff ff    	mov    -0x1938(%rbp),%edx
   101c5:	83 c2 05             	add    $0x5,%edx
   101c8:	48 63 ca             	movslq %edx,%rcx
   101cb:	48 63 d0             	movslq %eax,%rdx
   101ce:	48 63 f6             	movslq %esi,%rsi
   101d1:	48 89 d0             	mov    %rdx,%rax
   101d4:	48 c1 e0 03          	shl    $0x3,%rax
   101d8:	48 01 d0             	add    %rdx,%rax
   101db:	48 01 f0             	add    %rsi,%rax
   101de:	48 c1 e0 03          	shl    $0x3,%rax
   101e2:	48 01 c8             	add    %rcx,%rax
   101e5:	48 8d 14 85 00 00 00 	lea    0x0(,%rax,4),%rdx
   101ec:	00 
   101ed:	48 8d 05 4c ee 00 00 	lea    0xee4c(%rip),%rax        # 1f040 <g_84>
   101f4:	8b 04 02             	mov    (%rdx,%rax,1),%eax
   101f7:	89 c2                	mov    %eax,%edx
   101f9:	48 8b 05 c0 f2 00 00 	mov    0xf2c0(%rip),%rax        # 1f4c0 <g_140>
   10200:	48 31 d0             	xor    %rdx,%rax
   10203:	48 83 f8 fa          	cmp    $0xfffffffffffffffa,%rax
   10207:	76 0a                	jbe    10213 <func_62+0xe71>
   10209:	8b 05 ad f1 00 00    	mov    0xf1ad(%rip),%eax        # 1f3bc <g_102+0x1c>
   1020f:	85 c0                	test   %eax,%eax
   10211:	74 07                	je     1021a <func_62+0xe78>
   10213:	b8 01 00 00 00       	mov    $0x1,%eax
   10218:	eb 05                	jmp    1021f <func_62+0xe7d>
   1021a:	b8 00 00 00 00       	mov    $0x0,%eax
   1021f:	89 85 40 e7 ff ff    	mov    %eax,-0x18c0(%rbp)
   10225:	48 8b 95 28 e8 ff ff 	mov    -0x17d8(%rbp),%rdx
   1022c:	48 8b 85 f0 e8 ff ff 	mov    -0x1710(%rbp),%rax
   10233:	48 89 10             	mov    %rdx,(%rax)
   10236:	8b 85 c8 e6 ff ff    	mov    -0x1938(%rbp),%eax
   1023c:	83 c0 01             	add    $0x1,%eax
   1023f:	89 85 c8 e6 ff ff    	mov    %eax,-0x1938(%rbp)
   10245:	8b 85 c8 e6 ff ff    	mov    -0x1938(%rbp),%eax
   1024b:	83 f8 02             	cmp    $0x2,%eax
   1024e:	0f 8e 4d fd ff ff    	jle    ffa1 <func_62+0xbff>
   10254:	48 c7 05 29 12 01 00 	movq   $0x0,0x11229(%rip)        # 21488 <g_108+0x68>
   1025b:	00 00 00 00 
   1025f:	8b 05 0b f1 00 00    	mov    0xf10b(%rip),%eax        # 1f370 <g_84+0x330>
   10265:	0f bf d8             	movswl %ax,%ebx
   10268:	48 8b 85 a0 e8 ff ff 	mov    -0x1760(%rbp),%rax
   1026f:	48 8b 00             	mov    (%rax),%rax
   10272:	8b 00                	mov    (%rax),%eax
   10274:	85 c0                	test   %eax,%eax
   10276:	74 40                	je     102b8 <func_62+0xf16>
   10278:	8b 05 ae ed 00 00    	mov    0xedae(%rip),%eax        # 1f02c <g_4>
   1027e:	0f be d0             	movsbl %al,%edx
   10281:	8b 85 c4 ea ff ff    	mov    -0x153c(%rbp),%eax
   10287:	85 c0                	test   %eax,%eax
   10289:	74 11                	je     1029c <func_62+0xefa>
   1028b:	8b 85 cc e6 ff ff    	mov    -0x1934(%rbp),%eax
   10291:	85 c0                	test   %eax,%eax
   10293:	74 07                	je     1029c <func_62+0xefa>
   10295:	b8 01 00 00 00       	mov    $0x1,%eax
   1029a:	eb 05                	jmp    102a1 <func_62+0xeff>
   1029c:	b8 00 00 00 00       	mov    $0x0,%eax
   102a1:	0f be c0             	movsbl %al,%eax
   102a4:	89 d6                	mov    %edx,%esi
   102a6:	89 c7                	mov    %eax,%edi
   102a8:	e8 84 4f ff ff       	callq  5231 <safe_mod_func_int8_t_s_s>
   102ad:	84 c0                	test   %al,%al
   102af:	74 07                	je     102b8 <func_62+0xf16>
   102b1:	b8 01 00 00 00       	mov    $0x1,%eax
   102b6:	eb 05                	jmp    102bd <func_62+0xf1b>
   102b8:	b8 00 00 00 00       	mov    $0x0,%eax
   102bd:	48 63 d0             	movslq %eax,%rdx
   102c0:	48 8b 85 c0 e8 ff ff 	mov    -0x1740(%rbp),%rax
   102c7:	48 89 10             	mov    %rdx,(%rax)
   102ca:	48 8b 85 c0 e8 ff ff 	mov    -0x1740(%rbp),%rax
   102d1:	48 8b 00             	mov    (%rax),%rax
   102d4:	48 89 c1             	mov    %rax,%rcx
   102d7:	8b 85 f4 e6 ff ff    	mov    -0x190c(%rbp),%eax
   102dd:	48 63 d0             	movslq %eax,%rdx
   102e0:	48 8b 85 b8 e8 ff ff 	mov    -0x1748(%rbp),%rax
   102e7:	48 89 10             	mov    %rdx,(%rax)
   102ea:	48 8b 85 b8 e8 ff ff 	mov    -0x1748(%rbp),%rax
   102f1:	48 8b 00             	mov    (%rax),%rax
   102f4:	48 89 ce             	mov    %rcx,%rsi
   102f7:	48 89 c7             	mov    %rax,%rdi
   102fa:	e8 b5 56 ff ff       	callq  59b4 <safe_mod_func_int64_t_s_s>
   102ff:	98                   	cwtl   
   10300:	89 de                	mov    %ebx,%esi
   10302:	89 c7                	mov    %eax,%edi
   10304:	e8 ec 50 ff ff       	callq  53f5 <safe_mul_func_int16_t_s_s>
   10309:	80 bd d5 e6 ff ff 00 	cmpb   $0x0,-0x192b(%rbp)
   10310:	75 0a                	jne    1031c <func_62+0xf7a>
   10312:	8b 85 b4 e6 ff ff    	mov    -0x194c(%rbp),%eax
   10318:	85 c0                	test   %eax,%eax
   1031a:	74 07                	je     10323 <func_62+0xf81>
   1031c:	b8 01 00 00 00       	mov    $0x1,%eax
   10321:	eb 05                	jmp    10328 <func_62+0xf86>
   10323:	b8 00 00 00 00       	mov    $0x0,%eax
   10328:	89 c6                	mov    %eax,%esi
   1032a:	bf 6f 1d 4e 35       	mov    $0x354e1d6f,%edi
   1032f:	e8 cb 53 ff ff       	callq  56ff <safe_div_func_int32_t_s_s>
   10334:	8b 95 c8 e6 ff ff    	mov    -0x1938(%rbp),%edx
   1033a:	48 8b 85 c8 e8 ff ff 	mov    -0x1738(%rbp),%rax
   10341:	0f b7 00             	movzwl (%rax),%eax
   10344:	09 c2                	or     %eax,%edx
   10346:	48 8b 85 c8 e8 ff ff 	mov    -0x1738(%rbp),%rax
   1034d:	66 89 10             	mov    %dx,(%rax)
   10350:	48 b8 38 2a d8 7b 62 	movabs $0x4bbc3627bd82a38,%rax
   10357:	c3 bb 04 
   1035a:	48 89 85 d0 e8 ff ff 	mov    %rax,-0x1730(%rbp)
   10361:	c7 85 b0 f5 ff ff ff 	movl   $0xffffffff,-0xa50(%rbp)
   10368:	ff ff ff 
   1036b:	c7 85 b4 f5 ff ff ff 	movl   $0xffffffff,-0xa4c(%rbp)
   10372:	ff ff ff 
   10375:	c7 85 b8 f5 ff ff ff 	movl   $0xffffffff,-0xa48(%rbp)
   1037c:	ff ff ff 
   1037f:	c7 85 bc f5 ff ff ff 	movl   $0xffffffff,-0xa44(%rbp)
   10386:	ff ff ff 
   10389:	c7 85 c0 f5 ff ff ff 	movl   $0xffffffff,-0xa40(%rbp)
   10390:	ff ff ff 
   10393:	c7 85 c4 f5 ff ff ff 	movl   $0xffffffff,-0xa3c(%rbp)
   1039a:	ff ff ff 
   1039d:	c7 85 c8 f5 ff ff ff 	movl   $0xffffffff,-0xa38(%rbp)
   103a4:	ff ff ff 
   103a7:	c7 85 cc f5 ff ff ff 	movl   $0xffffffff,-0xa34(%rbp)
   103ae:	ff ff ff 
   103b1:	c7 85 d0 f5 ff ff ff 	movl   $0xffffffff,-0xa30(%rbp)
   103b8:	ff ff ff 
   103bb:	c7 85 d4 f5 ff ff ff 	movl   $0xffffffff,-0xa2c(%rbp)
   103c2:	ff ff ff 
   103c5:	48 8d 85 10 f3 ff ff 	lea    -0xcf0(%rbp),%rax
   103cc:	48 83 c0 08          	add    $0x8,%rax
   103d0:	48 89 85 d8 e8 ff ff 	mov    %rax,-0x1728(%rbp)
   103d7:	48 83 ad 58 e8 ff ff 	subq   $0x1,-0x17a8(%rbp)
   103de:	01 
   103df:	8b 85 c8 e6 ff ff    	mov    -0x1938(%rbp),%eax
   103e5:	0f bf d8             	movswl %ax,%ebx
   103e8:	44 8b a5 cc e6 ff ff 	mov    -0x1934(%rbp),%r12d
   103ef:	8b 85 c8 e6 ff ff    	mov    -0x1938(%rbp),%eax
   103f5:	41 89 c7             	mov    %eax,%r15d
   103f8:	8b 85 0c eb ff ff    	mov    -0x14f4(%rbp),%eax
   103fe:	44 0f b7 e8          	movzwl %ax,%r13d
   10402:	8b 85 c8 e6 ff ff    	mov    -0x1938(%rbp),%eax
   10408:	89 85 54 e7 ff ff    	mov    %eax,-0x18ac(%rbp)
   1040e:	0f b7 85 dc e6 ff ff 	movzwl -0x1924(%rbp),%eax
   10415:	66 85 c0             	test   %ax,%ax
   10418:	75 6a                	jne    10484 <func_62+0x10e2>
   1041a:	48 8b 95 18 f3 ff ff 	mov    -0xce8(%rbp),%rdx
   10421:	48 8b 85 d8 e8 ff ff 	mov    -0x1728(%rbp),%rax
   10428:	48 89 10             	mov    %rdx,(%rax)
   1042b:	48 8b 85 d8 e8 ff ff 	mov    -0x1728(%rbp),%rax
   10432:	48 8b 00             	mov    (%rax),%rax
   10435:	48 39 85 90 e8 ff ff 	cmp    %rax,-0x1770(%rbp)
   1043c:	74 4d                	je     1048b <func_62+0x10e9>
   1043e:	8b 05 5c f0 00 00    	mov    0xf05c(%rip),%eax        # 1f4a0 <g_102+0x100>
   10444:	44 0f b7 f0          	movzwl %ax,%r14d
   10448:	8b 85 58 e7 ff ff    	mov    -0x18a8(%rbp),%eax
   1044e:	0f b7 d0             	movzwl %ax,%edx
   10451:	8b 85 cc e6 ff ff    	mov    -0x1934(%rbp),%eax
   10457:	0f b7 c0             	movzwl %ax,%eax
   1045a:	89 d6                	mov    %edx,%esi
   1045c:	89 c7                	mov    %eax,%edi
   1045e:	e8 da 58 ff ff       	callq  5d3d <safe_mul_func_uint16_t_u_u>
   10463:	0f b7 c0             	movzwl %ax,%eax
   10466:	44 89 f6             	mov    %r14d,%esi
   10469:	89 c7                	mov    %eax,%edi
   1046b:	e8 af 58 ff ff       	callq  5d1f <safe_sub_func_uint16_t_u_u>
   10470:	be 07 00 00 00       	mov    $0x7,%esi
   10475:	bf 05 00 00 00       	mov    $0x5,%edi
   1047a:	e8 76 4f ff ff       	callq  53f5 <safe_mul_func_int16_t_s_s>
   1047f:	66 85 c0             	test   %ax,%ax
   10482:	74 07                	je     1048b <func_62+0x10e9>
   10484:	ba 01 00 00 00       	mov    $0x1,%edx
   10489:	eb 05                	jmp    10490 <func_62+0x10ee>
   1048b:	ba 00 00 00 00       	mov    $0x0,%edx
   10490:	0f b7 05 fd f8 00 00 	movzwl 0xf8fd(%rip),%eax        # 1fd94 <g_160>
   10497:	98                   	cwtl   
   10498:	39 c2                	cmp    %eax,%edx
   1049a:	8b 85 c8 e6 ff ff    	mov    -0x1938(%rbp),%eax
   104a0:	48 98                	cltq   
   104a2:	48 39 85 d0 e8 ff ff 	cmp    %rax,-0x1730(%rbp)
   104a9:	0f 95 c0             	setne  %al
   104ac:	0f b6 c0             	movzbl %al,%eax
   104af:	44 89 ee             	mov    %r13d,%esi
   104b2:	89 c7                	mov    %eax,%edi
   104b4:	e8 d5 58 ff ff       	callq  5d8e <safe_div_func_uint16_t_u_u>
   104b9:	89 c2                	mov    %eax,%edx
   104bb:	48 8b 05 fe ef 00 00 	mov    0xeffe(%rip),%rax        # 1f4c0 <g_140>
   104c2:	09 d0                	or     %edx,%eax
   104c4:	44 21 f8             	and    %r15d,%eax
   104c7:	0f be c0             	movsbl %al,%eax
   104ca:	44 89 e6             	mov    %r12d,%esi
   104cd:	89 c7                	mov    %eax,%edi
   104cf:	e8 1a 4e ff ff       	callq  52ee <safe_lshift_func_int8_t_s_u>
   104d4:	48 0f be d0          	movsbq %al,%rdx
   104d8:	48 8b 05 e1 ef 00 00 	mov    0xefe1(%rip),%rax        # 1f4c0 <g_140>
   104df:	48 39 c2             	cmp    %rax,%rdx
   104e2:	0f 96 c0             	setbe  %al
   104e5:	0f b6 c0             	movzbl %al,%eax
   104e8:	be 04 00 00 00       	mov    $0x4,%esi
   104ed:	89 c7                	mov    %eax,%edi
   104ef:	e8 9e 4f ff ff       	callq  5492 <safe_lshift_func_int16_t_s_s>
   104f4:	98                   	cwtl   
   104f5:	89 de                	mov    %ebx,%esi
   104f7:	89 c7                	mov    %eax,%edi
   104f9:	e8 f7 4e ff ff       	callq  53f5 <safe_mul_func_int16_t_s_s>
   104fe:	0f be c0             	movsbl %al,%eax
   10501:	be 01 00 00 00       	mov    $0x1,%esi
   10506:	89 c7                	mov    %eax,%edi
   10508:	e8 28 4e ff ff       	callq  5335 <safe_rshift_func_int8_t_s_s>
   1050d:	66 0f be d0          	movsbw %al,%dx
   10511:	0f b7 85 e2 e6 ff ff 	movzwl -0x191e(%rbp),%eax
   10518:	09 d0                	or     %edx,%eax
   1051a:	66 89 85 e2 e6 ff ff 	mov    %ax,-0x191e(%rbp)
   10521:	8b 05 91 ef 00 00    	mov    0xef91(%rip),%eax        # 1f4b8 <g_107>
   10527:	83 e8 01             	sub    $0x1,%eax
   1052a:	89 05 88 ef 00 00    	mov    %eax,0xef88(%rip)        # 1f4b8 <g_107>
   10530:	8b 05 82 ef 00 00    	mov    0xef82(%rip),%eax        # 1f4b8 <g_107>
   10536:	85 c0                	test   %eax,%eax
   10538:	0f 89 45 f9 ff ff    	jns    fe83 <func_62+0xae1>
   1053e:	8b 85 b4 e6 ff ff    	mov    -0x194c(%rbp),%eax
   10544:	83 e8 01             	sub    $0x1,%eax
   10547:	89 85 b4 e6 ff ff    	mov    %eax,-0x194c(%rbp)
   1054d:	8b 85 b4 e6 ff ff    	mov    -0x194c(%rbp),%eax
   10553:	85 c0                	test   %eax,%eax
   10555:	0f 89 5e f8 ff ff    	jns    fdb9 <func_62+0xa17>
   1055b:	48 8b 05 ce ea 00 00 	mov    0xeace(%rip),%rax        # 1f030 <g_42>
   10562:	48 83 e8 01          	sub    $0x1,%rax
   10566:	48 89 05 c3 ea 00 00 	mov    %rax,0xeac3(%rip)        # 1f030 <g_42>
   1056d:	48 8b 05 bc ea 00 00 	mov    0xeabc(%rip),%rax        # 1f030 <g_42>
   10574:	48 85 c0             	test   %rax,%rax
   10577:	0f 89 76 f6 ff ff    	jns    fbf3 <func_62+0x851>
   1057d:	e9 22 04 00 00       	jmpq   109a4 <func_62+0x1602>
   10582:	48 c7 85 70 f9 ff ff 	movq   $0x0,-0x690(%rbp)
   10589:	00 00 00 00 
   1058d:	48 8d 05 24 ef 00 00 	lea    0xef24(%rip),%rax        # 1f4b8 <g_107>
   10594:	48 89 85 78 f9 ff ff 	mov    %rax,-0x688(%rbp)
   1059b:	48 8d 85 f8 e6 ff ff 	lea    -0x1908(%rbp),%rax
   105a2:	48 89 85 80 f9 ff ff 	mov    %rax,-0x680(%rbp)
   105a9:	48 8d 85 f8 e6 ff ff 	lea    -0x1908(%rbp),%rax
   105b0:	48 89 85 88 f9 ff ff 	mov    %rax,-0x678(%rbp)
   105b7:	48 8d 05 fa ee 00 00 	lea    0xeefa(%rip),%rax        # 1f4b8 <g_107>
   105be:	48 89 85 90 f9 ff ff 	mov    %rax,-0x670(%rbp)
   105c5:	48 c7 85 98 f9 ff ff 	movq   $0x0,-0x668(%rbp)
   105cc:	00 00 00 00 
   105d0:	48 8d 85 fc e6 ff ff 	lea    -0x1904(%rbp),%rax
   105d7:	48 89 85 a0 f9 ff ff 	mov    %rax,-0x660(%rbp)
   105de:	48 8d 85 fc e6 ff ff 	lea    -0x1904(%rbp),%rax
   105e5:	48 89 85 a8 f9 ff ff 	mov    %rax,-0x658(%rbp)
   105ec:	48 8d 85 ec e6 ff ff 	lea    -0x1914(%rbp),%rax
   105f3:	48 89 85 b0 f9 ff ff 	mov    %rax,-0x650(%rbp)
   105fa:	48 8d 85 f8 e6 ff ff 	lea    -0x1908(%rbp),%rax
   10601:	48 89 85 b8 f9 ff ff 	mov    %rax,-0x648(%rbp)
   10608:	48 c7 85 c0 f9 ff ff 	movq   $0x0,-0x640(%rbp)
   1060f:	00 00 00 00 
   10613:	48 8d 85 f8 e6 ff ff 	lea    -0x1908(%rbp),%rax
   1061a:	48 89 85 c8 f9 ff ff 	mov    %rax,-0x638(%rbp)
   10621:	48 8d 85 fc e6 ff ff 	lea    -0x1904(%rbp),%rax
   10628:	48 89 85 d0 f9 ff ff 	mov    %rax,-0x630(%rbp)
   1062f:	48 8d 85 f0 e6 ff ff 	lea    -0x1910(%rbp),%rax
   10636:	48 89 85 d8 f9 ff ff 	mov    %rax,-0x628(%rbp)
   1063d:	48 c7 85 e0 f9 ff ff 	movq   $0x0,-0x620(%rbp)
   10644:	00 00 00 00 
   10648:	48 8d 05 dd e9 00 00 	lea    0xe9dd(%rip),%rax        # 1f02c <g_4>
   1064f:	48 89 85 e8 f9 ff ff 	mov    %rax,-0x618(%rbp)
   10656:	48 c7 85 f0 f9 ff ff 	movq   $0x0,-0x610(%rbp)
   1065d:	00 00 00 00 
   10661:	48 8d 05 c4 e9 00 00 	lea    0xe9c4(%rip),%rax        # 1f02c <g_4>
   10668:	48 89 85 f8 f9 ff ff 	mov    %rax,-0x608(%rbp)
   1066f:	48 8d 85 ec e6 ff ff 	lea    -0x1914(%rbp),%rax
   10676:	48 89 85 00 fa ff ff 	mov    %rax,-0x600(%rbp)
   1067d:	48 8d 85 f8 e6 ff ff 	lea    -0x1908(%rbp),%rax
   10684:	48 89 85 08 fa ff ff 	mov    %rax,-0x5f8(%rbp)
   1068b:	48 8d 05 26 ee 00 00 	lea    0xee26(%rip),%rax        # 1f4b8 <g_107>
   10692:	48 89 85 10 fa ff ff 	mov    %rax,-0x5f0(%rbp)
   10699:	48 8d 85 f8 e6 ff ff 	lea    -0x1908(%rbp),%rax
   106a0:	48 89 85 18 fa ff ff 	mov    %rax,-0x5e8(%rbp)
   106a7:	48 8d 85 ec e6 ff ff 	lea    -0x1914(%rbp),%rax
   106ae:	48 89 85 20 fa ff ff 	mov    %rax,-0x5e0(%rbp)
   106b5:	48 8d 85 fc e6 ff ff 	lea    -0x1904(%rbp),%rax
   106bc:	48 89 85 28 fa ff ff 	mov    %rax,-0x5d8(%rbp)
   106c3:	48 8d 85 fc e6 ff ff 	lea    -0x1904(%rbp),%rax
   106ca:	48 89 85 30 fa ff ff 	mov    %rax,-0x5d0(%rbp)
   106d1:	48 8d 05 e0 ed 00 00 	lea    0xede0(%rip),%rax        # 1f4b8 <g_107>
   106d8:	48 89 85 38 fa ff ff 	mov    %rax,-0x5c8(%rbp)
   106df:	48 c7 85 40 fa ff ff 	movq   $0x0,-0x5c0(%rbp)
   106e6:	00 00 00 00 
   106ea:	48 8d 85 f8 e6 ff ff 	lea    -0x1908(%rbp),%rax
   106f1:	48 89 85 48 fa ff ff 	mov    %rax,-0x5b8(%rbp)
   106f8:	48 8d 05 b9 ed 00 00 	lea    0xedb9(%rip),%rax        # 1f4b8 <g_107>
   106ff:	48 89 85 50 fa ff ff 	mov    %rax,-0x5b0(%rbp)
   10706:	48 c7 85 58 fa ff ff 	movq   $0x0,-0x5a8(%rbp)
   1070d:	00 00 00 00 
   10711:	48 c7 85 60 fa ff ff 	movq   $0x0,-0x5a0(%rbp)
   10718:	00 00 00 00 
   1071c:	48 c7 85 68 fa ff ff 	movq   $0x0,-0x598(%rbp)
   10723:	00 00 00 00 
   10727:	48 c7 85 70 fa ff ff 	movq   $0x0,-0x590(%rbp)
   1072e:	00 00 00 00 
   10732:	48 8d 05 f3 e8 00 00 	lea    0xe8f3(%rip),%rax        # 1f02c <g_4>
   10739:	48 89 85 78 fa ff ff 	mov    %rax,-0x588(%rbp)
   10740:	48 8d 05 e5 e8 00 00 	lea    0xe8e5(%rip),%rax        # 1f02c <g_4>
   10747:	48 89 85 80 fa ff ff 	mov    %rax,-0x580(%rbp)
   1074e:	48 c7 85 88 fa ff ff 	movq   $0x0,-0x578(%rbp)
   10755:	00 00 00 00 
   10759:	48 c7 85 90 fa ff ff 	movq   $0x0,-0x570(%rbp)
   10760:	00 00 00 00 
   10764:	48 8d 85 f0 e6 ff ff 	lea    -0x1910(%rbp),%rax
   1076b:	48 89 85 98 fa ff ff 	mov    %rax,-0x568(%rbp)
   10772:	48 8d 05 3f ed 00 00 	lea    0xed3f(%rip),%rax        # 1f4b8 <g_107>
   10779:	48 89 85 a0 fa ff ff 	mov    %rax,-0x560(%rbp)
   10780:	48 8d 85 f0 e6 ff ff 	lea    -0x1910(%rbp),%rax
   10787:	48 89 85 a8 fa ff ff 	mov    %rax,-0x558(%rbp)
   1078e:	48 c7 85 b0 fa ff ff 	movq   $0x0,-0x550(%rbp)
   10795:	00 00 00 00 
   10799:	48 c7 85 b8 fa ff ff 	movq   $0x0,-0x548(%rbp)
   107a0:	00 00 00 00 
   107a4:	48 c7 85 c0 fa ff ff 	movq   $0x0,-0x540(%rbp)
   107ab:	00 00 00 00 
   107af:	48 c7 85 c8 fa ff ff 	movq   $0x0,-0x538(%rbp)
   107b6:	00 00 00 00 
   107ba:	48 c7 85 d0 fa ff ff 	movq   $0x0,-0x530(%rbp)
   107c1:	00 00 00 00 
   107c5:	48 c7 85 d8 fa ff ff 	movq   $0x0,-0x528(%rbp)
   107cc:	00 00 00 00 
   107d0:	48 8d 05 55 e8 00 00 	lea    0xe855(%rip),%rax        # 1f02c <g_4>
   107d7:	48 89 85 e0 fa ff ff 	mov    %rax,-0x520(%rbp)
   107de:	48 8d 05 d3 ec 00 00 	lea    0xecd3(%rip),%rax        # 1f4b8 <g_107>
   107e5:	48 89 85 e8 fa ff ff 	mov    %rax,-0x518(%rbp)
   107ec:	48 8d 85 f4 e6 ff ff 	lea    -0x190c(%rbp),%rax
   107f3:	48 89 85 f0 fa ff ff 	mov    %rax,-0x510(%rbp)
   107fa:	48 8d 85 f8 e6 ff ff 	lea    -0x1908(%rbp),%rax
   10801:	48 89 85 f8 fa ff ff 	mov    %rax,-0x508(%rbp)
   10808:	48 c7 85 00 fb ff ff 	movq   $0x0,-0x500(%rbp)
   1080f:	00 00 00 00 
   10813:	48 8d 85 fc e6 ff ff 	lea    -0x1904(%rbp),%rax
   1081a:	48 89 85 08 fb ff ff 	mov    %rax,-0x4f8(%rbp)
   10821:	48 8d 05 90 ec 00 00 	lea    0xec90(%rip),%rax        # 1f4b8 <g_107>
   10828:	48 89 85 10 fb ff ff 	mov    %rax,-0x4f0(%rbp)
   1082f:	48 c7 85 18 fb ff ff 	movq   $0x0,-0x4e8(%rbp)
   10836:	00 00 00 00 
   1083a:	48 8d 85 fc e6 ff ff 	lea    -0x1904(%rbp),%rax
   10841:	48 89 85 20 fb ff ff 	mov    %rax,-0x4e0(%rbp)
   10848:	48 c7 85 28 fb ff ff 	movq   $0x0,-0x4d8(%rbp)
   1084f:	00 00 00 00 
   10853:	48 8d 05 5e ec 00 00 	lea    0xec5e(%rip),%rax        # 1f4b8 <g_107>
   1085a:	48 89 85 30 fb ff ff 	mov    %rax,-0x4d0(%rbp)
   10861:	48 c7 85 38 fb ff ff 	movq   $0x0,-0x4c8(%rbp)
   10868:	00 00 00 00 
   1086c:	48 c7 85 40 fb ff ff 	movq   $0x0,-0x4c0(%rbp)
   10873:	00 00 00 00 
   10877:	48 c7 85 48 fb ff ff 	movq   $0x0,-0x4b8(%rbp)
   1087e:	00 00 00 00 
   10882:	48 8d 05 a3 e7 00 00 	lea    0xe7a3(%rip),%rax        # 1f02c <g_4>
   10889:	48 89 85 50 fb ff ff 	mov    %rax,-0x4b0(%rbp)
   10890:	48 8d 85 f8 e6 ff ff 	lea    -0x1908(%rbp),%rax
   10897:	48 89 85 58 fb ff ff 	mov    %rax,-0x4a8(%rbp)
   1089e:	48 8d 05 87 e7 00 00 	lea    0xe787(%rip),%rax        # 1f02c <g_4>
   108a5:	48 89 85 60 fb ff ff 	mov    %rax,-0x4a0(%rbp)
   108ac:	48 8d 85 f4 e6 ff ff 	lea    -0x190c(%rbp),%rax
   108b3:	48 89 85 68 fb ff ff 	mov    %rax,-0x498(%rbp)
   108ba:	48 8d 05 f7 eb 00 00 	lea    0xebf7(%rip),%rax        # 1f4b8 <g_107>
   108c1:	48 89 85 70 fb ff ff 	mov    %rax,-0x490(%rbp)
   108c8:	48 8d 05 5d e7 00 00 	lea    0xe75d(%rip),%rax        # 1f02c <g_4>
   108cf:	48 89 85 78 fb ff ff 	mov    %rax,-0x488(%rbp)
   108d6:	48 c7 85 80 fb ff ff 	movq   $0x0,-0x480(%rbp)
   108dd:	00 00 00 00 
   108e1:	48 8d 05 d0 eb 00 00 	lea    0xebd0(%rip),%rax        # 1f4b8 <g_107>
   108e8:	48 89 85 88 fb ff ff 	mov    %rax,-0x478(%rbp)
   108ef:	48 8d 85 fc e6 ff ff 	lea    -0x1904(%rbp),%rax
   108f6:	48 89 85 90 fb ff ff 	mov    %rax,-0x470(%rbp)
   108fd:	48 c7 85 98 fb ff ff 	movq   $0x0,-0x468(%rbp)
   10904:	00 00 00 00 
   10908:	48 8d 05 a9 eb 00 00 	lea    0xeba9(%rip),%rax        # 1f4b8 <g_107>
   1090f:	48 89 85 a0 fb ff ff 	mov    %rax,-0x460(%rbp)
   10916:	48 8d 85 ec e6 ff ff 	lea    -0x1914(%rbp),%rax
   1091d:	48 89 85 a8 fb ff ff 	mov    %rax,-0x458(%rbp)
   10924:	48 8d 85 f0 e6 ff ff 	lea    -0x1910(%rbp),%rax
   1092b:	48 89 85 b0 fb ff ff 	mov    %rax,-0x450(%rbp)
   10932:	48 8d 05 7f eb 00 00 	lea    0xeb7f(%rip),%rax        # 1f4b8 <g_107>
   10939:	48 89 85 b8 fb ff ff 	mov    %rax,-0x448(%rbp)
   10940:	48 8d 05 e5 e6 00 00 	lea    0xe6e5(%rip),%rax        # 1f02c <g_4>
   10947:	48 89 85 c0 fb ff ff 	mov    %rax,-0x440(%rbp)
   1094e:	48 8d 85 fc e6 ff ff 	lea    -0x1904(%rbp),%rax
   10955:	48 89 85 c8 fb ff ff 	mov    %rax,-0x438(%rbp)
   1095c:	48 c7 85 d0 fb ff ff 	movq   $0x0,-0x430(%rbp)
   10963:	00 00 00 00 
   10967:	48 c7 85 d8 fb ff ff 	movq   $0x0,-0x428(%rbp)
   1096e:	00 00 00 00 
   10972:	48 c7 85 e0 fb ff ff 	movq   $0x0,-0x420(%rbp)
   10979:	00 00 00 00 
   1097d:	48 c7 85 e8 fb ff ff 	movq   $0x0,-0x418(%rbp)
   10984:	00 00 00 00 
   10988:	48 c7 85 80 e8 ff ff 	movq   $0x3,-0x1780(%rbp)
   1098f:	03 00 00 00 
   10993:	66 c7 85 e4 e6 ff ff 	movw   $0xac95,-0x191c(%rbp)
   1099a:	95 ac 
   1099c:	66 83 85 e4 e6 ff ff 	addw   $0x1,-0x191c(%rbp)
   109a3:	01 
   109a4:	48 8b 85 30 e8 ff ff 	mov    -0x17d0(%rbp),%rax
   109ab:	48 8d 15 7a e6 00 00 	lea    0xe67a(%rip),%rdx        # 1f02c <g_4>
   109b2:	48 89 10             	mov    %rdx,(%rax)
   109b5:	8b 85 b4 e6 ff ff    	mov    -0x194c(%rbp),%eax
   109bb:	41 89 c6             	mov    %eax,%r14d
   109be:	8b 9d cc e6 ff ff    	mov    -0x1934(%rbp),%ebx
   109c4:	48 8b 85 40 e8 ff ff 	mov    -0x17c0(%rbp),%rax
   109cb:	44 0f bf e0          	movswl %ax,%r12d
   109cf:	48 8b 05 ea ea 00 00 	mov    0xeaea(%rip),%rax        # 1f4c0 <g_140>
   109d6:	44 0f b7 e8          	movzwl %ax,%r13d
   109da:	bf 5d cf 84 e6       	mov    $0xe684cf5d,%edi
   109df:	e8 b2 4b ff ff       	callq  5596 <safe_unary_minus_func_int32_t_s>
   109e4:	0f b7 c0             	movzwl %ax,%eax
   109e7:	be 00 00 00 00       	mov    $0x0,%esi
   109ec:	89 c7                	mov    %eax,%edi
   109ee:	e8 87 54 ff ff       	callq  5e7a <safe_rshift_func_uint16_t_u_u>
   109f3:	0f b7 d0             	movzwl %ax,%edx
   109f6:	0f b6 45 c6          	movzbl -0x3a(%rbp),%eax
   109fa:	0f b6 c0             	movzbl %al,%eax
   109fd:	89 85 c8 e6 ff ff    	mov    %eax,-0x1938(%rbp)
   10a03:	8b 85 c8 e6 ff ff    	mov    -0x1938(%rbp),%eax
   10a09:	39 c2                	cmp    %eax,%edx
   10a0b:	0f 94 c0             	sete   %al
   10a0e:	0f b6 c0             	movzbl %al,%eax
   10a11:	89 c6                	mov    %eax,%esi
   10a13:	bf da 00 00 00       	mov    $0xda,%edi
   10a18:	e8 a1 52 ff ff       	callq  5cbe <safe_rshift_func_uint8_t_u_u>
   10a1d:	84 c0                	test   %al,%al
   10a1f:	0f 95 c0             	setne  %al
   10a22:	0f b6 c0             	movzbl %al,%eax
   10a25:	44 89 ee             	mov    %r13d,%esi
   10a28:	89 c7                	mov    %eax,%edi
   10a2a:	e8 2d 53 ff ff       	callq  5d5c <safe_mod_func_uint16_t_u_u>
   10a2f:	98                   	cwtl   
   10a30:	44 89 e6             	mov    %r12d,%esi
   10a33:	89 c7                	mov    %eax,%edi
   10a35:	e8 99 49 ff ff       	callq  53d3 <safe_sub_func_int16_t_s_s>
   10a3a:	0f b6 c0             	movzbl %al,%eax
   10a3d:	89 c7                	mov    %eax,%edi
   10a3f:	e8 01 51 ff ff       	callq  5b45 <safe_unary_minus_func_uint8_t_u>
   10a44:	0f b6 c0             	movzbl %al,%eax
   10a47:	be 01 00 00 00       	mov    $0x1,%esi
   10a4c:	89 c7                	mov    %eax,%edi
   10a4e:	e8 f5 53 ff ff       	callq  5e48 <safe_rshift_func_uint16_t_u_s>
   10a53:	bf 01 00 00 00       	mov    $0x1,%edi
   10a58:	e8 b9 4d ff ff       	callq  5816 <safe_unary_minus_func_int64_t_s>
   10a5d:	48 89 c2             	mov    %rax,%rdx
   10a60:	48 8b 85 c8 e7 ff ff 	mov    -0x1838(%rbp),%rax
   10a67:	66 89 10             	mov    %dx,(%rax)
   10a6a:	0f b7 00             	movzwl (%rax),%eax
   10a6d:	0f b7 d0             	movzwl %ax,%edx
   10a70:	8b 85 cc e6 ff ff    	mov    -0x1934(%rbp),%eax
   10a76:	39 c2                	cmp    %eax,%edx
   10a78:	0f 94 c0             	sete   %al
   10a7b:	0f b6 c0             	movzbl %al,%eax
   10a7e:	89 de                	mov    %ebx,%esi
   10a80:	89 c7                	mov    %eax,%edi
   10a82:	e8 49 54 ff ff       	callq  5ed0 <safe_sub_func_uint32_t_u_u>
   10a87:	89 c6                	mov    %eax,%esi
   10a89:	bf 26 00 00 00       	mov    $0x26,%edi
   10a8e:	e8 d9 48 ff ff       	callq  536c <safe_rshift_func_int8_t_s_u>
   10a93:	ba 00 00 00 00       	mov    $0x0,%edx
   10a98:	0f b6 05 20 f3 00 00 	movzbl 0xf320(%rip),%eax        # 1fdbf <g_236+0x1f>
   10a9f:	31 d0                	xor    %edx,%eax
   10aa1:	88 05 18 f3 00 00    	mov    %al,0xf318(%rip)        # 1fdbf <g_236+0x1f>
   10aa7:	0f b6 05 11 f3 00 00 	movzbl 0xf311(%rip),%eax        # 1fdbf <g_236+0x1f>
   10aae:	0f be c0             	movsbl %al,%eax
   10ab1:	44 89 f6             	mov    %r14d,%esi
   10ab4:	89 c7                	mov    %eax,%edi
   10ab6:	e8 33 48 ff ff       	callq  52ee <safe_lshift_func_int8_t_s_u>
   10abb:	3c f7                	cmp    $0xf7,%al
   10abd:	7d 10                	jge    10acf <func_62+0x172d>
   10abf:	48 c7 05 96 0a 01 00 	movq   $0x0,0x10a96(%rip)        # 21560 <g_237>
   10ac6:	00 00 00 00 
   10aca:	e9 c6 36 00 00       	jmpq   14195 <func_62+0x4df3>
   10acf:	c6 85 d6 e6 ff ff 01 	movb   $0x1,-0x192a(%rbp)
   10ad6:	48 8d 05 e3 e9 00 00 	lea    0xe9e3(%rip),%rax        # 1f4c0 <g_140>
   10add:	48 89 85 f8 e8 ff ff 	mov    %rax,-0x1708(%rbp)
   10ae4:	48 8d 85 b0 f5 ff ff 	lea    -0xa50(%rbp),%rax
   10aeb:	48 8d 15 4e a1 00 00 	lea    0xa14e(%rip),%rdx        # 1ac40 <g_2129+0x1780>
   10af2:	b9 78 00 00 00       	mov    $0x78,%ecx
   10af7:	48 89 c7             	mov    %rax,%rdi
   10afa:	48 89 d6             	mov    %rdx,%rsi
   10afd:	f3 48 a5             	rep movsq %ds:(%rsi),%es:(%rdi)
   10b00:	c7 85 5c e7 ff ff 56 	movl   $0xd69ae156,-0x18a4(%rbp)
   10b07:	e1 9a d6 
   10b0a:	c6 85 d7 e6 ff ff 4e 	movb   $0x4e,-0x1929(%rbp)
   10b11:	48 8d 85 f0 eb ff ff 	lea    -0x1410(%rbp),%rax
   10b18:	48 05 78 01 00 00    	add    $0x178,%rax
   10b1e:	48 89 85 e8 e7 ff ff 	mov    %rax,-0x1818(%rbp)
   10b25:	c6 85 d8 e6 ff ff fe 	movb   $0xfe,-0x1928(%rbp)
   10b2c:	c7 85 00 e7 ff ff 00 	movl   $0x0,-0x1900(%rbp)
   10b33:	00 00 00 
   10b36:	66 c7 85 e0 e6 ff ff 	movw   $0xfff7,-0x1920(%rbp)
   10b3d:	f7 ff 
   10b3f:	48 8d 85 b0 f5 ff ff 	lea    -0xa50(%rbp),%rax
   10b46:	48 83 c0 30          	add    $0x30,%rax
   10b4a:	48 89 85 00 e9 ff ff 	mov    %rax,-0x1700(%rbp)
   10b51:	48 c7 85 f0 e7 ff ff 	movq   $0x0,-0x1810(%rbp)
   10b58:	00 00 00 00 
   10b5c:	48 8d 85 f0 e7 ff ff 	lea    -0x1810(%rbp),%rax
   10b63:	48 89 85 f8 e7 ff ff 	mov    %rax,-0x1808(%rbp)
   10b6a:	48 8d 85 f0 e7 ff ff 	lea    -0x1810(%rbp),%rax
   10b71:	48 89 85 08 e9 ff ff 	mov    %rax,-0x16f8(%rbp)
   10b78:	48 8d 05 21 f3 00 00 	lea    0xf321(%rip),%rax        # 1fea0 <g_676>
   10b7f:	48 89 85 10 e9 ff ff 	mov    %rax,-0x16f0(%rbp)
   10b86:	8b 85 c8 e6 ff ff    	mov    -0x1938(%rbp),%eax
   10b8c:	85 c0                	test   %eax,%eax
   10b8e:	0f 84 32 28 00 00    	je     133c6 <func_62+0x4024>
   10b94:	c7 85 60 e7 ff ff ff 	movl   $0xffffffff,-0x18a0(%rbp)
   10b9b:	ff ff ff 
   10b9e:	48 8d 85 b8 e7 ff ff 	lea    -0x1848(%rbp),%rax
   10ba5:	48 89 85 00 e8 ff ff 	mov    %rax,-0x1800(%rbp)
   10bac:	48 8d 85 00 e8 ff ff 	lea    -0x1800(%rbp),%rax
   10bb3:	48 89 85 08 e8 ff ff 	mov    %rax,-0x17f8(%rbp)
   10bba:	48 8d 85 08 e8 ff ff 	lea    -0x17f8(%rbp),%rax
   10bc1:	48 89 85 18 e9 ff ff 	mov    %rax,-0x16e8(%rbp)
   10bc8:	48 b8 66 ce 3f 86 9b 	movabs $0x78cfbe9b863fce66,%rax
   10bcf:	be cf 78 
   10bd2:	48 89 85 20 e9 ff ff 	mov    %rax,-0x16e0(%rbp)
   10bd9:	48 8d 85 f0 eb ff ff 	lea    -0x1410(%rbp),%rax
   10be0:	48 05 b0 00 00 00    	add    $0xb0,%rax
   10be6:	48 89 85 c0 ea ff ff 	mov    %rax,-0x1540(%rbp)
   10bed:	48 8d 85 f0 eb ff ff 	lea    -0x1410(%rbp),%rax
   10bf4:	48 05 78 01 00 00    	add    $0x178,%rax
   10bfa:	48 89 85 c8 ea ff ff 	mov    %rax,-0x1538(%rbp)
   10c01:	48 8d 85 f0 eb ff ff 	lea    -0x1410(%rbp),%rax
   10c08:	48 05 78 01 00 00    	add    $0x178,%rax
   10c0e:	48 89 85 d0 ea ff ff 	mov    %rax,-0x1530(%rbp)
   10c15:	48 8d 85 f0 eb ff ff 	lea    -0x1410(%rbp),%rax
   10c1c:	48 05 b0 00 00 00    	add    $0xb0,%rax
   10c22:	48 89 85 d8 ea ff ff 	mov    %rax,-0x1528(%rbp)
   10c29:	48 8d 85 f0 eb ff ff 	lea    -0x1410(%rbp),%rax
   10c30:	48 05 78 01 00 00    	add    $0x178,%rax
   10c36:	48 89 85 e0 ea ff ff 	mov    %rax,-0x1520(%rbp)
   10c3d:	48 8d 85 f0 eb ff ff 	lea    -0x1410(%rbp),%rax
   10c44:	48 05 78 01 00 00    	add    $0x178,%rax
   10c4a:	48 89 85 e8 ea ff ff 	mov    %rax,-0x1518(%rbp)
   10c51:	48 8d 85 f0 eb ff ff 	lea    -0x1410(%rbp),%rax
   10c58:	48 05 b0 00 00 00    	add    $0xb0,%rax
   10c5e:	48 89 85 f0 ea ff ff 	mov    %rax,-0x1510(%rbp)
   10c65:	48 c7 85 28 e9 ff ff 	movq   $0x0,-0x16d8(%rbp)
   10c6c:	00 00 00 00 
   10c70:	48 c7 85 30 e9 ff ff 	movq   $0xffffffffffffffff,-0x16d0(%rbp)
   10c77:	ff ff ff ff 
   10c7b:	48 8d 05 e2 f0 00 00 	lea    0xf0e2(%rip),%rax        # 1fd64 <g_155+0x84>
   10c82:	48 89 85 10 e8 ff ff 	mov    %rax,-0x17f0(%rbp)
   10c89:	48 8d 85 10 e8 ff ff 	lea    -0x17f0(%rbp),%rax
   10c90:	48 89 85 38 e9 ff ff 	mov    %rax,-0x16c8(%rbp)
   10c97:	c7 85 2c e7 ff ff 00 	movl   $0x0,-0x18d4(%rbp)
   10c9e:	00 00 00 
   10ca1:	eb 1e                	jmp    10cc1 <func_62+0x191f>
   10ca3:	8b 85 2c e7 ff ff    	mov    -0x18d4(%rbp),%eax
   10ca9:	48 98                	cltq   
   10cab:	48 8d 95 f8 e6 ff ff 	lea    -0x1908(%rbp),%rdx
   10cb2:	48 89 94 c5 30 ea ff 	mov    %rdx,-0x15d0(%rbp,%rax,8)
   10cb9:	ff 
   10cba:	83 85 2c e7 ff ff 01 	addl   $0x1,-0x18d4(%rbp)
   10cc1:	83 bd 2c e7 ff ff 05 	cmpl   $0x5,-0x18d4(%rbp)
   10cc8:	7e d9                	jle    10ca3 <func_62+0x1901>
   10cca:	8b 85 b4 e6 ff ff    	mov    -0x194c(%rbp),%eax
   10cd0:	85 c0                	test   %eax,%eax
   10cd2:	0f 84 ef 02 00 00    	je     10fc7 <func_62+0x1c25>
   10cd8:	48 c7 85 98 e9 ff ff 	movq   $0x0,-0x1668(%rbp)
   10cdf:	00 00 00 00 
   10ce3:	48 8d 05 4e f1 00 00 	lea    0xf14e(%rip),%rax        # 1fe38 <g_253>
   10cea:	48 89 85 70 f9 ff ff 	mov    %rax,-0x690(%rbp)
   10cf1:	48 8d 05 40 f1 00 00 	lea    0xf140(%rip),%rax        # 1fe38 <g_253>
   10cf8:	48 89 85 78 f9 ff ff 	mov    %rax,-0x688(%rbp)
   10cff:	48 8d 05 32 f1 00 00 	lea    0xf132(%rip),%rax        # 1fe38 <g_253>
   10d06:	48 89 85 80 f9 ff ff 	mov    %rax,-0x680(%rbp)
   10d0d:	48 8d 05 24 f1 00 00 	lea    0xf124(%rip),%rax        # 1fe38 <g_253>
   10d14:	48 89 85 88 f9 ff ff 	mov    %rax,-0x678(%rbp)
   10d1b:	48 8d 05 16 f1 00 00 	lea    0xf116(%rip),%rax        # 1fe38 <g_253>
   10d22:	48 89 85 90 f9 ff ff 	mov    %rax,-0x670(%rbp)
   10d29:	48 8d 05 08 f1 00 00 	lea    0xf108(%rip),%rax        # 1fe38 <g_253>
   10d30:	48 89 85 98 f9 ff ff 	mov    %rax,-0x668(%rbp)
   10d37:	48 8d 05 fa f0 00 00 	lea    0xf0fa(%rip),%rax        # 1fe38 <g_253>
   10d3e:	48 89 85 a0 f9 ff ff 	mov    %rax,-0x660(%rbp)
   10d45:	48 8d 05 ec f0 00 00 	lea    0xf0ec(%rip),%rax        # 1fe38 <g_253>
   10d4c:	48 89 85 a8 f9 ff ff 	mov    %rax,-0x658(%rbp)
   10d53:	48 8d 05 de f0 00 00 	lea    0xf0de(%rip),%rax        # 1fe38 <g_253>
   10d5a:	48 89 85 b0 f9 ff ff 	mov    %rax,-0x650(%rbp)
   10d61:	c7 85 30 e7 ff ff 00 	movl   $0x0,-0x18d0(%rbp)
   10d68:	00 00 00 
   10d6b:	eb 22                	jmp    10d8f <func_62+0x19ed>
   10d6d:	8b 85 30 e7 ff ff    	mov    -0x18d0(%rbp),%eax
   10d73:	48 98                	cltq   
   10d75:	48 8d 95 30 ea ff ff 	lea    -0x15d0(%rbp),%rdx
   10d7c:	48 83 c2 18          	add    $0x18,%rdx
   10d80:	48 89 94 c5 30 ef ff 	mov    %rdx,-0x10d0(%rbp,%rax,8)
   10d87:	ff 
   10d88:	83 85 30 e7 ff ff 01 	addl   $0x1,-0x18d0(%rbp)
   10d8f:	83 bd 30 e7 ff ff 01 	cmpl   $0x1,-0x18d0(%rbp)
   10d96:	7e d5                	jle    10d6d <func_62+0x19cb>
   10d98:	8b 05 4a e6 00 00    	mov    0xe64a(%rip),%eax        # 1f3e8 <g_102+0x48>
   10d9e:	89 c2                	mov    %eax,%edx
   10da0:	48 8b 05 89 f0 00 00 	mov    0xf089(%rip),%rax        # 1fe30 <g_251>
   10da7:	21 d0                	and    %edx,%eax
   10da9:	89 85 0c f9 ff ff    	mov    %eax,-0x6f4(%rbp)
   10daf:	48 8b 95 48 ea ff ff 	mov    -0x15b8(%rbp),%rdx
   10db6:	48 8b 85 30 e8 ff ff 	mov    -0x17d0(%rbp),%rax
   10dbd:	48 89 10             	mov    %rdx,(%rax)
   10dc0:	48 8b 85 30 e8 ff ff 	mov    -0x17d0(%rbp),%rax
   10dc7:	48 8b 00             	mov    (%rax),%rax
   10dca:	48 89 85 50 e8 ff ff 	mov    %rax,-0x17b0(%rbp)
   10dd1:	48 8b 85 48 ea ff ff 	mov    -0x15b8(%rbp),%rax
   10dd8:	48 39 85 50 e8 ff ff 	cmp    %rax,-0x17b0(%rbp)
   10ddf:	0f 95 c0             	setne  %al
   10de2:	0f b6 c0             	movzbl %al,%eax
   10de5:	89 c7                	mov    %eax,%edi
   10de7:	e8 b1 45 ff ff       	callq  539d <safe_unary_minus_func_int16_t_s>
   10dec:	0f b6 d0             	movzbl %al,%edx
   10def:	8b 85 60 e7 ff ff    	mov    -0x18a0(%rbp),%eax
   10df5:	0f b6 c0             	movzbl %al,%eax
   10df8:	89 d6                	mov    %edx,%esi
   10dfa:	89 c7                	mov    %eax,%edi
   10dfc:	e8 da 4d ff ff       	callq  5bdb <safe_div_func_uint8_t_u_u>
   10e01:	48 8b 05 60 07 01 00 	mov    0x10760(%rip),%rax        # 21568 <g_255>
   10e08:	48 8d 95 30 ea ff ff 	lea    -0x15d0(%rbp),%rdx
   10e0f:	48 83 c2 08          	add    $0x8,%rdx
   10e13:	48 39 d0             	cmp    %rdx,%rax
   10e16:	48 8d 05 77 ef 00 00 	lea    0xef77(%rip),%rax        # 1fd94 <g_160>
   10e1d:	48 89 85 a0 e9 ff ff 	mov    %rax,-0x1660(%rbp)
   10e24:	48 8d 85 70 f9 ff ff 	lea    -0x690(%rbp),%rax
   10e2b:	48 83 c0 30          	add    $0x30,%rax
   10e2f:	48 89 85 a8 e9 ff ff 	mov    %rax,-0x1658(%rbp)
   10e36:	48 c7 85 10 f3 ff ff 	movq   $0x0,-0xcf0(%rbp)
   10e3d:	00 00 00 00 
   10e41:	48 c7 85 18 f3 ff ff 	movq   $0x0,-0xce8(%rbp)
   10e48:	00 00 00 00 
   10e4c:	48 c7 85 20 f3 ff ff 	movq   $0x0,-0xce0(%rbp)
   10e53:	00 00 00 00 
   10e57:	48 c7 85 28 f3 ff ff 	movq   $0x0,-0xcd8(%rbp)
   10e5e:	00 00 00 00 
   10e62:	48 c7 85 30 f3 ff ff 	movq   $0x0,-0xcd0(%rbp)
   10e69:	00 00 00 00 
   10e6d:	8b 85 cc e6 ff ff    	mov    -0x1934(%rbp),%eax
   10e73:	0f b7 c0             	movzwl %ax,%eax
   10e76:	be 06 00 00 00       	mov    $0x6,%esi
   10e7b:	89 c7                	mov    %eax,%edi
   10e7d:	e8 c6 4f ff ff       	callq  5e48 <safe_rshift_func_uint16_t_u_s>
   10e82:	66 85 c0             	test   %ax,%ax
   10e85:	0f 85 22 01 00 00    	jne    10fad <func_62+0x1c0b>
   10e8b:	48 8d 05 02 ef 00 00 	lea    0xef02(%rip),%rax        # 1fd94 <g_160>
   10e92:	48 39 85 a0 e9 ff ff 	cmp    %rax,-0x1660(%rbp)
   10e99:	0f 95 c0             	setne  %al
   10e9c:	44 0f b6 e0          	movzbl %al,%r12d
   10ea0:	8b 85 cc e6 ff ff    	mov    -0x1934(%rbp),%eax
   10ea6:	0f be d8             	movsbl %al,%ebx
   10ea9:	48 83 bd 18 e9 ff ff 	cmpq   $0x0,-0x16e8(%rbp)
   10eb0:	00 
   10eb1:	0f 95 c0             	setne  %al
   10eb4:	0f b6 d0             	movzbl %al,%edx
   10eb7:	48 8b 85 b8 e6 ff ff 	mov    -0x1948(%rbp),%rax
   10ebe:	48 89 10             	mov    %rdx,(%rax)
   10ec1:	be 03 00 00 00       	mov    $0x3,%esi
   10ec6:	bf 01 00 00 00       	mov    $0x1,%edi
   10ecb:	e8 35 47 ff ff       	callq  5605 <safe_sub_func_int32_t_s_s>
   10ed0:	48 8b 95 38 ea ff ff 	mov    -0x15c8(%rbp),%rdx
   10ed7:	48 8b 85 a8 e9 ff ff 	mov    -0x1658(%rbp),%rax
   10ede:	48 89 10             	mov    %rdx,(%rax)
   10ee1:	48 8b 85 a8 e9 ff ff 	mov    -0x1658(%rbp),%rax
   10ee8:	48 8b 00             	mov    (%rax),%rax
   10eeb:	48 8d 15 46 ef 00 00 	lea    0xef46(%rip),%rdx        # 1fe38 <g_253>
   10ef2:	48 39 d0             	cmp    %rdx,%rax
   10ef5:	0f 95 c0             	setne  %al
   10ef8:	0f b6 d0             	movzbl %al,%edx
   10efb:	48 8b 85 50 e8 ff ff 	mov    -0x17b0(%rbp),%rax
   10f02:	8b 00                	mov    (%rax),%eax
   10f04:	3d 6e cb 00 00       	cmp    $0xcb6e,%eax
   10f09:	0f 95 c0             	setne  %al
   10f0c:	0f b6 c8             	movzbl %al,%ecx
   10f0f:	8b 85 cc e6 ff ff    	mov    -0x1934(%rbp),%eax
   10f15:	39 c1                	cmp    %eax,%ecx
   10f17:	0f 92 c0             	setb   %al
   10f1a:	0f b6 c0             	movzbl %al,%eax
   10f1d:	39 c2                	cmp    %eax,%edx
   10f1f:	8b 05 2f ef 00 00    	mov    0xef2f(%rip),%eax        # 1fe54 <g_277+0x14>
   10f25:	c1 e8 07             	shr    $0x7,%eax
   10f28:	89 c2                	mov    %eax,%edx
   10f2a:	0f b6 05 27 ef 00 00 	movzbl 0xef27(%rip),%eax        # 1fe58 <g_277+0x18>
   10f31:	83 e0 1f             	and    $0x1f,%eax
   10f34:	48 c1 e0 19          	shl    $0x19,%rax
   10f38:	48 09 d0             	or     %rdx,%rax
   10f3b:	48 c1 e0 22          	shl    $0x22,%rax
   10f3f:	48 c1 f8 22          	sar    $0x22,%rax
   10f43:	0f be c0             	movsbl %al,%eax
   10f46:	89 de                	mov    %ebx,%esi
   10f48:	89 c7                	mov    %eax,%edi
   10f4a:	e8 85 42 ff ff       	callq  51d4 <safe_add_func_int8_t_s_s>
   10f4f:	0f be c0             	movsbl %al,%eax
   10f52:	44 89 e2             	mov    %r12d,%edx
   10f55:	21 c2                	and    %eax,%edx
   10f57:	48 8b 05 12 06 01 00 	mov    0x10612(%rip),%rax        # 21570 <g_260>
   10f5e:	0f b7 00             	movzwl (%rax),%eax
   10f61:	0f b7 c0             	movzwl %ax,%eax
   10f64:	39 c2                	cmp    %eax,%edx
   10f66:	0f 9c c0             	setl   %al
   10f69:	0f b6 c0             	movzbl %al,%eax
   10f6c:	8b 95 10 f3 ff ff    	mov    -0xcf0(%rbp),%edx
   10f72:	31 d0                	xor    %edx,%eax
   10f74:	66 89 05 19 ee 00 00 	mov    %ax,0xee19(%rip)        # 1fd94 <g_160>
   10f7b:	0f b7 05 12 ee 00 00 	movzwl 0xee12(%rip),%eax        # 1fd94 <g_160>
   10f82:	0f bf d0             	movswl %ax,%edx
   10f85:	48 8b 85 50 e8 ff ff 	mov    -0x17b0(%rbp),%rax
   10f8c:	8b 00                	mov    (%rax),%eax
   10f8e:	39 c2                	cmp    %eax,%edx
   10f90:	0f 9d c0             	setge  %al
   10f93:	0f b6 c0             	movzbl %al,%eax
   10f96:	c6 05 6b ee 00 00 b3 	movb   $0xb3,0xee6b(%rip)        # 1fe08 <g_236+0x68>
   10f9d:	89 c6                	mov    %eax,%esi
   10f9f:	bf b3 ff ff ff       	mov    $0xffffffb3,%edi
   10fa4:	e8 49 42 ff ff       	callq  51f2 <safe_sub_func_int8_t_s_s>
   10fa9:	84 c0                	test   %al,%al
   10fab:	74 07                	je     10fb4 <func_62+0x1c12>
   10fad:	ba 01 00 00 00       	mov    $0x1,%edx
   10fb2:	eb 05                	jmp    10fb9 <func_62+0x1c17>
   10fb4:	ba 00 00 00 00       	mov    $0x0,%edx
   10fb9:	48 8b 85 50 e8 ff ff 	mov    -0x17b0(%rbp),%rax
   10fc0:	89 10                	mov    %edx,(%rax)
   10fc2:	e9 d4 23 00 00       	jmpq   1339b <func_62+0x3ff9>
   10fc7:	c7 85 34 e7 ff ff fb 	movl   $0xfffffffb,-0x18cc(%rbp)
   10fce:	ff ff ff 
   10fd1:	c7 85 64 e7 ff ff 01 	movl   $0x1,-0x189c(%rbp)
   10fd8:	00 00 00 
   10fdb:	c7 85 68 e7 ff ff 09 	movl   $0x9,-0x1898(%rbp)
   10fe2:	00 00 00 
   10fe5:	c7 85 6c e7 ff ff 8a 	movl   $0xbcefbd8a,-0x1894(%rbp)
   10fec:	bd ef bc 
   10fef:	48 8d 85 08 e8 ff ff 	lea    -0x17f8(%rbp),%rax
   10ff6:	48 89 85 40 e9 ff ff 	mov    %rax,-0x16c0(%rbp)
   10ffd:	c7 85 60 ea ff ff f1 	movl   $0xa5dbacf1,-0x15a0(%rbp)
   11004:	ac db a5 
   11007:	c7 85 64 ea ff ff 01 	movl   $0x1,-0x159c(%rbp)
   1100e:	00 00 00 
   11011:	c7 85 68 ea ff ff f1 	movl   $0xa5dbacf1,-0x1598(%rbp)
   11018:	ac db a5 
   1101b:	c7 85 6c ea ff ff f1 	movl   $0xa5dbacf1,-0x1594(%rbp)
   11022:	ac db a5 
   11025:	c7 85 70 ea ff ff 01 	movl   $0x1,-0x1590(%rbp)
   1102c:	00 00 00 
   1102f:	c7 85 74 ea ff ff 01 	movl   $0x1,-0x158c(%rbp)
   11036:	00 00 00 
   11039:	c7 85 78 ea ff ff 01 	movl   $0x1,-0x1588(%rbp)
   11040:	00 00 00 
   11043:	c7 85 7c ea ff ff 01 	movl   $0x1,-0x1584(%rbp)
   1104a:	00 00 00 
   1104d:	c7 85 80 ea ff ff 01 	movl   $0x1,-0x1580(%rbp)
   11054:	00 00 00 
   11057:	c7 85 84 ea ff ff f1 	movl   $0xa5dbacf1,-0x157c(%rbp)
   1105e:	ac db a5 
   11061:	c7 85 88 ea ff ff f1 	movl   $0xa5dbacf1,-0x1578(%rbp)
   11068:	ac db a5 
   1106b:	c7 85 8c ea ff ff 01 	movl   $0x1,-0x1574(%rbp)
   11072:	00 00 00 
   11075:	48 c7 85 48 e9 ff ff 	movq   $0x0,-0x16b8(%rbp)
   1107c:	00 00 00 00 
   11080:	48 8d 85 c8 e7 ff ff 	lea    -0x1838(%rbp),%rax
   11087:	48 89 85 18 e8 ff ff 	mov    %rax,-0x17e8(%rbp)
   1108e:	48 8d 05 db 04 01 00 	lea    0x104db(%rip),%rax        # 21570 <g_260>
   11095:	48 89 85 50 e9 ff ff 	mov    %rax,-0x16b0(%rbp)
   1109c:	c6 85 d9 e6 ff ff 00 	movb   $0x0,-0x1927(%rbp)
   110a3:	66 c7 85 e6 e6 ff ff 	movw   $0x4c2d,-0x191a(%rbp)
   110aa:	2d 4c 
   110ac:	c7 85 18 e7 ff ff 00 	movl   $0x0,-0x18e8(%rbp)
   110b3:	00 00 00 
   110b6:	eb 49                	jmp    11101 <func_62+0x1d5f>
   110b8:	c7 85 08 e7 ff ff 00 	movl   $0x0,-0x18f8(%rbp)
   110bf:	00 00 00 
   110c2:	eb 2d                	jmp    110f1 <func_62+0x1d4f>
   110c4:	8b 85 08 e7 ff ff    	mov    -0x18f8(%rbp),%eax
   110ca:	48 98                	cltq   
   110cc:	8b 95 18 e7 ff ff    	mov    -0x18e8(%rbp),%edx
   110d2:	48 63 d2             	movslq %edx,%rdx
   110d5:	48 01 d2             	add    %rdx,%rdx
   110d8:	48 01 c2             	add    %rax,%rdx
   110db:	48 8d 85 de e6 ff ff 	lea    -0x1922(%rbp),%rax
   110e2:	48 89 84 d5 00 eb ff 	mov    %rax,-0x1500(%rbp,%rdx,8)
   110e9:	ff 
   110ea:	83 85 08 e7 ff ff 01 	addl   $0x1,-0x18f8(%rbp)
   110f1:	83 bd 08 e7 ff ff 01 	cmpl   $0x1,-0x18f8(%rbp)
   110f8:	7e ca                	jle    110c4 <func_62+0x1d22>
   110fa:	83 85 18 e7 ff ff 01 	addl   $0x1,-0x18e8(%rbp)
   11101:	83 bd 18 e7 ff ff 03 	cmpl   $0x3,-0x18e8(%rbp)
   11108:	7e ae                	jle    110b8 <func_62+0x1d16>
   1110a:	c6 05 27 df 00 00 00 	movb   $0x0,0xdf27(%rip)        # 1f038 <g_82>
   11111:	e9 18 1c 00 00       	jmpq   12d2e <func_62+0x398c>
   11116:	48 8d 85 b0 f5 ff ff 	lea    -0xa50(%rbp),%rax
   1111d:	48 05 9c 00 00 00    	add    $0x9c,%rax
   11123:	48 89 85 20 e8 ff ff 	mov    %rax,-0x17e0(%rbp)
   1112a:	48 8d 85 20 e8 ff ff 	lea    -0x17e0(%rbp),%rax
   11131:	48 89 85 70 f9 ff ff 	mov    %rax,-0x690(%rbp)
   11138:	48 8d 85 20 e8 ff ff 	lea    -0x17e0(%rbp),%rax
   1113f:	48 89 85 78 f9 ff ff 	mov    %rax,-0x688(%rbp)
   11146:	48 8d 85 20 e8 ff ff 	lea    -0x17e0(%rbp),%rax
   1114d:	48 89 85 80 f9 ff ff 	mov    %rax,-0x680(%rbp)
   11154:	48 8d 85 20 e8 ff ff 	lea    -0x17e0(%rbp),%rax
   1115b:	48 89 85 88 f9 ff ff 	mov    %rax,-0x678(%rbp)
   11162:	48 8d 85 20 e8 ff ff 	lea    -0x17e0(%rbp),%rax
   11169:	48 89 85 90 f9 ff ff 	mov    %rax,-0x670(%rbp)
   11170:	48 8d 85 20 e8 ff ff 	lea    -0x17e0(%rbp),%rax
   11177:	48 89 85 98 f9 ff ff 	mov    %rax,-0x668(%rbp)
   1117e:	48 c7 85 a0 f9 ff ff 	movq   $0x0,-0x660(%rbp)
   11185:	00 00 00 00 
   11189:	48 c7 85 a8 f9 ff ff 	movq   $0x0,-0x658(%rbp)
   11190:	00 00 00 00 
   11194:	48 c7 85 b0 f9 ff ff 	movq   $0x0,-0x650(%rbp)
   1119b:	00 00 00 00 
   1119f:	48 8d 85 20 e8 ff ff 	lea    -0x17e0(%rbp),%rax
   111a6:	48 89 85 b8 f9 ff ff 	mov    %rax,-0x648(%rbp)
   111ad:	48 8d 85 20 e8 ff ff 	lea    -0x17e0(%rbp),%rax
   111b4:	48 89 85 c0 f9 ff ff 	mov    %rax,-0x640(%rbp)
   111bb:	48 8d 85 20 e8 ff ff 	lea    -0x17e0(%rbp),%rax
   111c2:	48 89 85 c8 f9 ff ff 	mov    %rax,-0x638(%rbp)
   111c9:	48 8d 85 20 e8 ff ff 	lea    -0x17e0(%rbp),%rax
   111d0:	48 89 85 d0 f9 ff ff 	mov    %rax,-0x630(%rbp)
   111d7:	48 8d 85 20 e8 ff ff 	lea    -0x17e0(%rbp),%rax
   111de:	48 89 85 d8 f9 ff ff 	mov    %rax,-0x628(%rbp)
   111e5:	48 8d 85 20 e8 ff ff 	lea    -0x17e0(%rbp),%rax
   111ec:	48 89 85 e0 f9 ff ff 	mov    %rax,-0x620(%rbp)
   111f3:	48 8d 85 20 e8 ff ff 	lea    -0x17e0(%rbp),%rax
   111fa:	48 89 85 e8 f9 ff ff 	mov    %rax,-0x618(%rbp)
   11201:	48 8d 85 20 e8 ff ff 	lea    -0x17e0(%rbp),%rax
   11208:	48 89 85 f0 f9 ff ff 	mov    %rax,-0x610(%rbp)
   1120f:	48 8d 85 20 e8 ff ff 	lea    -0x17e0(%rbp),%rax
   11216:	48 89 85 f8 f9 ff ff 	mov    %rax,-0x608(%rbp)
   1121d:	48 8d 85 20 e8 ff ff 	lea    -0x17e0(%rbp),%rax
   11224:	48 89 85 00 fa ff ff 	mov    %rax,-0x600(%rbp)
   1122b:	48 8d 85 20 e8 ff ff 	lea    -0x17e0(%rbp),%rax
   11232:	48 89 85 08 fa ff ff 	mov    %rax,-0x5f8(%rbp)
   11239:	48 c7 85 10 fa ff ff 	movq   $0x0,-0x5f0(%rbp)
   11240:	00 00 00 00 
   11244:	48 8d 85 20 e8 ff ff 	lea    -0x17e0(%rbp),%rax
   1124b:	48 89 85 18 fa ff ff 	mov    %rax,-0x5e8(%rbp)
   11252:	48 c7 85 20 fa ff ff 	movq   $0x0,-0x5e0(%rbp)
   11259:	00 00 00 00 
   1125d:	48 8d 85 20 e8 ff ff 	lea    -0x17e0(%rbp),%rax
   11264:	48 89 85 28 fa ff ff 	mov    %rax,-0x5d8(%rbp)
   1126b:	48 8d 85 20 e8 ff ff 	lea    -0x17e0(%rbp),%rax
   11272:	48 89 85 30 fa ff ff 	mov    %rax,-0x5d0(%rbp)
   11279:	48 8d 85 20 e8 ff ff 	lea    -0x17e0(%rbp),%rax
   11280:	48 89 85 38 fa ff ff 	mov    %rax,-0x5c8(%rbp)
   11287:	48 c7 85 40 fa ff ff 	movq   $0x0,-0x5c0(%rbp)
   1128e:	00 00 00 00 
   11292:	48 8d 85 20 e8 ff ff 	lea    -0x17e0(%rbp),%rax
   11299:	48 89 85 48 fa ff ff 	mov    %rax,-0x5b8(%rbp)
   112a0:	48 c7 85 50 fa ff ff 	movq   $0x0,-0x5b0(%rbp)
   112a7:	00 00 00 00 
   112ab:	48 8d 85 20 e8 ff ff 	lea    -0x17e0(%rbp),%rax
   112b2:	48 89 85 58 fa ff ff 	mov    %rax,-0x5a8(%rbp)
   112b9:	48 8d 85 20 e8 ff ff 	lea    -0x17e0(%rbp),%rax
   112c0:	48 89 85 60 fa ff ff 	mov    %rax,-0x5a0(%rbp)
   112c7:	48 8d 85 20 e8 ff ff 	lea    -0x17e0(%rbp),%rax
   112ce:	48 89 85 68 fa ff ff 	mov    %rax,-0x598(%rbp)
   112d5:	48 8d 85 20 e8 ff ff 	lea    -0x17e0(%rbp),%rax
   112dc:	48 89 85 70 fa ff ff 	mov    %rax,-0x590(%rbp)
   112e3:	48 8d 85 20 e8 ff ff 	lea    -0x17e0(%rbp),%rax
   112ea:	48 89 85 78 fa ff ff 	mov    %rax,-0x588(%rbp)
   112f1:	48 c7 85 80 fa ff ff 	movq   $0x0,-0x580(%rbp)
   112f8:	00 00 00 00 
   112fc:	48 8d 85 20 e8 ff ff 	lea    -0x17e0(%rbp),%rax
   11303:	48 89 85 88 fa ff ff 	mov    %rax,-0x578(%rbp)
   1130a:	48 c7 85 90 fa ff ff 	movq   $0x0,-0x570(%rbp)
   11311:	00 00 00 00 
   11315:	48 8d 85 20 e8 ff ff 	lea    -0x17e0(%rbp),%rax
   1131c:	48 89 85 98 fa ff ff 	mov    %rax,-0x568(%rbp)
   11323:	48 8d 85 20 e8 ff ff 	lea    -0x17e0(%rbp),%rax
   1132a:	48 89 85 a0 fa ff ff 	mov    %rax,-0x560(%rbp)
   11331:	48 8d 85 20 e8 ff ff 	lea    -0x17e0(%rbp),%rax
   11338:	48 89 85 a8 fa ff ff 	mov    %rax,-0x558(%rbp)
   1133f:	48 c7 85 b0 fa ff ff 	movq   $0x0,-0x550(%rbp)
   11346:	00 00 00 00 
   1134a:	48 8d 85 20 e8 ff ff 	lea    -0x17e0(%rbp),%rax
   11351:	48 89 85 b8 fa ff ff 	mov    %rax,-0x548(%rbp)
   11358:	48 c7 85 c0 fa ff ff 	movq   $0x0,-0x540(%rbp)
   1135f:	00 00 00 00 
   11363:	48 8d 85 20 e8 ff ff 	lea    -0x17e0(%rbp),%rax
   1136a:	48 89 85 c8 fa ff ff 	mov    %rax,-0x538(%rbp)
   11371:	48 8d 85 20 e8 ff ff 	lea    -0x17e0(%rbp),%rax
   11378:	48 89 85 d0 fa ff ff 	mov    %rax,-0x530(%rbp)
   1137f:	48 8d 85 20 e8 ff ff 	lea    -0x17e0(%rbp),%rax
   11386:	48 89 85 d8 fa ff ff 	mov    %rax,-0x528(%rbp)
   1138d:	48 8d 85 20 e8 ff ff 	lea    -0x17e0(%rbp),%rax
   11394:	48 89 85 e0 fa ff ff 	mov    %rax,-0x520(%rbp)
   1139b:	48 8d 85 20 e8 ff ff 	lea    -0x17e0(%rbp),%rax
   113a2:	48 89 85 e8 fa ff ff 	mov    %rax,-0x518(%rbp)
   113a9:	48 8d 85 20 e8 ff ff 	lea    -0x17e0(%rbp),%rax
   113b0:	48 89 85 f0 fa ff ff 	mov    %rax,-0x510(%rbp)
   113b7:	48 8d 85 20 e8 ff ff 	lea    -0x17e0(%rbp),%rax
   113be:	48 89 85 f8 fa ff ff 	mov    %rax,-0x508(%rbp)
   113c5:	48 8d 85 20 e8 ff ff 	lea    -0x17e0(%rbp),%rax
   113cc:	48 89 85 00 fb ff ff 	mov    %rax,-0x500(%rbp)
   113d3:	48 8d 85 20 e8 ff ff 	lea    -0x17e0(%rbp),%rax
   113da:	48 89 85 08 fb ff ff 	mov    %rax,-0x4f8(%rbp)
   113e1:	48 8d 85 20 e8 ff ff 	lea    -0x17e0(%rbp),%rax
   113e8:	48 89 85 10 fb ff ff 	mov    %rax,-0x4f0(%rbp)
   113ef:	48 8d 85 20 e8 ff ff 	lea    -0x17e0(%rbp),%rax
   113f6:	48 89 85 18 fb ff ff 	mov    %rax,-0x4e8(%rbp)
   113fd:	48 c7 85 20 fb ff ff 	movq   $0x0,-0x4e0(%rbp)
   11404:	00 00 00 00 
   11408:	48 c7 85 28 fb ff ff 	movq   $0x0,-0x4d8(%rbp)
   1140f:	00 00 00 00 
   11413:	48 c7 85 30 fb ff ff 	movq   $0x0,-0x4d0(%rbp)
   1141a:	00 00 00 00 
   1141e:	48 8d 85 20 e8 ff ff 	lea    -0x17e0(%rbp),%rax
   11425:	48 89 85 38 fb ff ff 	mov    %rax,-0x4c8(%rbp)
   1142c:	48 8d 85 20 e8 ff ff 	lea    -0x17e0(%rbp),%rax
   11433:	48 89 85 40 fb ff ff 	mov    %rax,-0x4c0(%rbp)
   1143a:	48 8d 85 20 e8 ff ff 	lea    -0x17e0(%rbp),%rax
   11441:	48 89 85 48 fb ff ff 	mov    %rax,-0x4b8(%rbp)
   11448:	48 8d 85 20 e8 ff ff 	lea    -0x17e0(%rbp),%rax
   1144f:	48 89 85 50 fb ff ff 	mov    %rax,-0x4b0(%rbp)
   11456:	48 8d 85 20 e8 ff ff 	lea    -0x17e0(%rbp),%rax
   1145d:	48 89 85 58 fb ff ff 	mov    %rax,-0x4a8(%rbp)
   11464:	48 8d 85 20 e8 ff ff 	lea    -0x17e0(%rbp),%rax
   1146b:	48 89 85 60 fb ff ff 	mov    %rax,-0x4a0(%rbp)
   11472:	48 8d 85 20 e8 ff ff 	lea    -0x17e0(%rbp),%rax
   11479:	48 89 85 68 fb ff ff 	mov    %rax,-0x498(%rbp)
   11480:	48 8d 85 20 e8 ff ff 	lea    -0x17e0(%rbp),%rax
   11487:	48 89 85 70 fb ff ff 	mov    %rax,-0x490(%rbp)
   1148e:	48 8d 85 20 e8 ff ff 	lea    -0x17e0(%rbp),%rax
   11495:	48 89 85 78 fb ff ff 	mov    %rax,-0x488(%rbp)
   1149c:	48 8d 85 20 e8 ff ff 	lea    -0x17e0(%rbp),%rax
   114a3:	48 89 85 80 fb ff ff 	mov    %rax,-0x480(%rbp)
   114aa:	48 8d 85 20 e8 ff ff 	lea    -0x17e0(%rbp),%rax
   114b1:	48 89 85 88 fb ff ff 	mov    %rax,-0x478(%rbp)
   114b8:	48 8d 85 20 e8 ff ff 	lea    -0x17e0(%rbp),%rax
   114bf:	48 89 85 90 fb ff ff 	mov    %rax,-0x470(%rbp)
   114c6:	48 c7 85 98 fb ff ff 	movq   $0x0,-0x468(%rbp)
   114cd:	00 00 00 00 
   114d1:	48 c7 85 a0 fb ff ff 	movq   $0x0,-0x460(%rbp)
   114d8:	00 00 00 00 
   114dc:	48 c7 85 a8 fb ff ff 	movq   $0x0,-0x458(%rbp)
   114e3:	00 00 00 00 
   114e7:	48 8d 85 20 e8 ff ff 	lea    -0x17e0(%rbp),%rax
   114ee:	48 89 85 b0 fb ff ff 	mov    %rax,-0x450(%rbp)
   114f5:	48 8d 85 20 e8 ff ff 	lea    -0x17e0(%rbp),%rax
   114fc:	48 89 85 b8 fb ff ff 	mov    %rax,-0x448(%rbp)
   11503:	48 8d 85 20 e8 ff ff 	lea    -0x17e0(%rbp),%rax
   1150a:	48 89 85 c0 fb ff ff 	mov    %rax,-0x440(%rbp)
   11511:	48 8d 85 20 e8 ff ff 	lea    -0x17e0(%rbp),%rax
   11518:	48 89 85 c8 fb ff ff 	mov    %rax,-0x438(%rbp)
   1151f:	48 8d 85 20 e8 ff ff 	lea    -0x17e0(%rbp),%rax
   11526:	48 89 85 d0 fb ff ff 	mov    %rax,-0x430(%rbp)
   1152d:	48 8d 85 20 e8 ff ff 	lea    -0x17e0(%rbp),%rax
   11534:	48 89 85 d8 fb ff ff 	mov    %rax,-0x428(%rbp)
   1153b:	48 8d 85 20 e8 ff ff 	lea    -0x17e0(%rbp),%rax
   11542:	48 89 85 e0 fb ff ff 	mov    %rax,-0x420(%rbp)
   11549:	48 8d 85 20 e8 ff ff 	lea    -0x17e0(%rbp),%rax
   11550:	48 89 85 e8 fb ff ff 	mov    %rax,-0x418(%rbp)
   11557:	48 8d 85 20 e8 ff ff 	lea    -0x17e0(%rbp),%rax
   1155e:	48 89 85 f0 fb ff ff 	mov    %rax,-0x410(%rbp)
   11565:	48 8d 85 20 e8 ff ff 	lea    -0x17e0(%rbp),%rax
   1156c:	48 89 85 f8 fb ff ff 	mov    %rax,-0x408(%rbp)
   11573:	48 8d 85 20 e8 ff ff 	lea    -0x17e0(%rbp),%rax
   1157a:	48 89 85 00 fc ff ff 	mov    %rax,-0x400(%rbp)
   11581:	48 c7 85 08 fc ff ff 	movq   $0x0,-0x3f8(%rbp)
   11588:	00 00 00 00 
   1158c:	48 8d 85 20 e8 ff ff 	lea    -0x17e0(%rbp),%rax
   11593:	48 89 85 10 fc ff ff 	mov    %rax,-0x3f0(%rbp)
   1159a:	48 c7 85 18 fc ff ff 	movq   $0x0,-0x3e8(%rbp)
   115a1:	00 00 00 00 
   115a5:	48 8d 85 20 e8 ff ff 	lea    -0x17e0(%rbp),%rax
   115ac:	48 89 85 20 fc ff ff 	mov    %rax,-0x3e0(%rbp)
   115b3:	48 8d 85 20 e8 ff ff 	lea    -0x17e0(%rbp),%rax
   115ba:	48 89 85 28 fc ff ff 	mov    %rax,-0x3d8(%rbp)
   115c1:	48 8d 85 20 e8 ff ff 	lea    -0x17e0(%rbp),%rax
   115c8:	48 89 85 30 fc ff ff 	mov    %rax,-0x3d0(%rbp)
   115cf:	48 c7 85 38 fc ff ff 	movq   $0x0,-0x3c8(%rbp)
   115d6:	00 00 00 00 
   115da:	48 8d 85 20 e8 ff ff 	lea    -0x17e0(%rbp),%rax
   115e1:	48 89 85 40 fc ff ff 	mov    %rax,-0x3c0(%rbp)
   115e8:	48 c7 85 48 fc ff ff 	movq   $0x0,-0x3b8(%rbp)
   115ef:	00 00 00 00 
   115f3:	48 8d 85 20 e8 ff ff 	lea    -0x17e0(%rbp),%rax
   115fa:	48 89 85 50 fc ff ff 	mov    %rax,-0x3b0(%rbp)
   11601:	48 8d 85 20 e8 ff ff 	lea    -0x17e0(%rbp),%rax
   11608:	48 89 85 58 fc ff ff 	mov    %rax,-0x3a8(%rbp)
   1160f:	48 8d 85 20 e8 ff ff 	lea    -0x17e0(%rbp),%rax
   11616:	48 89 85 60 fc ff ff 	mov    %rax,-0x3a0(%rbp)
   1161d:	48 8d 85 20 e8 ff ff 	lea    -0x17e0(%rbp),%rax
   11624:	48 89 85 68 fc ff ff 	mov    %rax,-0x398(%rbp)
   1162b:	48 8d 85 20 e8 ff ff 	lea    -0x17e0(%rbp),%rax
   11632:	48 89 85 70 fc ff ff 	mov    %rax,-0x390(%rbp)
   11639:	48 c7 85 78 fc ff ff 	movq   $0x0,-0x388(%rbp)
   11640:	00 00 00 00 
   11644:	48 8d 85 20 e8 ff ff 	lea    -0x17e0(%rbp),%rax
   1164b:	48 89 85 80 fc ff ff 	mov    %rax,-0x380(%rbp)
   11652:	48 c7 85 88 fc ff ff 	movq   $0x0,-0x378(%rbp)
   11659:	00 00 00 00 
   1165d:	48 8d 85 20 e8 ff ff 	lea    -0x17e0(%rbp),%rax
   11664:	48 89 85 90 fc ff ff 	mov    %rax,-0x370(%rbp)
   1166b:	48 8d 85 20 e8 ff ff 	lea    -0x17e0(%rbp),%rax
   11672:	48 89 85 98 fc ff ff 	mov    %rax,-0x368(%rbp)
   11679:	48 8d 85 20 e8 ff ff 	lea    -0x17e0(%rbp),%rax
   11680:	48 89 85 a0 fc ff ff 	mov    %rax,-0x360(%rbp)
   11687:	48 c7 85 a8 fc ff ff 	movq   $0x0,-0x358(%rbp)
   1168e:	00 00 00 00 
   11692:	48 8d 85 20 e8 ff ff 	lea    -0x17e0(%rbp),%rax
   11699:	48 89 85 b0 fc ff ff 	mov    %rax,-0x350(%rbp)
   116a0:	48 c7 85 b8 fc ff ff 	movq   $0x0,-0x348(%rbp)
   116a7:	00 00 00 00 
   116ab:	48 8d 85 20 e8 ff ff 	lea    -0x17e0(%rbp),%rax
   116b2:	48 89 85 c0 fc ff ff 	mov    %rax,-0x340(%rbp)
   116b9:	48 8d 85 20 e8 ff ff 	lea    -0x17e0(%rbp),%rax
   116c0:	48 89 85 c8 fc ff ff 	mov    %rax,-0x338(%rbp)
   116c7:	48 8d 85 20 e8 ff ff 	lea    -0x17e0(%rbp),%rax
   116ce:	48 89 85 d0 fc ff ff 	mov    %rax,-0x330(%rbp)
   116d5:	48 8d 85 20 e8 ff ff 	lea    -0x17e0(%rbp),%rax
   116dc:	48 89 85 d8 fc ff ff 	mov    %rax,-0x328(%rbp)
   116e3:	48 8d 85 20 e8 ff ff 	lea    -0x17e0(%rbp),%rax
   116ea:	48 89 85 e0 fc ff ff 	mov    %rax,-0x320(%rbp)
   116f1:	48 8d 85 20 e8 ff ff 	lea    -0x17e0(%rbp),%rax
   116f8:	48 89 85 e8 fc ff ff 	mov    %rax,-0x318(%rbp)
   116ff:	48 8d 85 20 e8 ff ff 	lea    -0x17e0(%rbp),%rax
   11706:	48 89 85 f0 fc ff ff 	mov    %rax,-0x310(%rbp)
   1170d:	48 8d 85 20 e8 ff ff 	lea    -0x17e0(%rbp),%rax
   11714:	48 89 85 f8 fc ff ff 	mov    %rax,-0x308(%rbp)
   1171b:	48 8d 85 20 e8 ff ff 	lea    -0x17e0(%rbp),%rax
   11722:	48 89 85 00 fd ff ff 	mov    %rax,-0x300(%rbp)
   11729:	48 8d 85 20 e8 ff ff 	lea    -0x17e0(%rbp),%rax
   11730:	48 89 85 08 fd ff ff 	mov    %rax,-0x2f8(%rbp)
   11737:	48 8d 85 20 e8 ff ff 	lea    -0x17e0(%rbp),%rax
   1173e:	48 89 85 10 fd ff ff 	mov    %rax,-0x2f0(%rbp)
   11745:	48 c7 85 18 fd ff ff 	movq   $0x0,-0x2e8(%rbp)
   1174c:	00 00 00 00 
   11750:	48 c7 85 20 fd ff ff 	movq   $0x0,-0x2e0(%rbp)
   11757:	00 00 00 00 
   1175b:	48 c7 85 28 fd ff ff 	movq   $0x0,-0x2d8(%rbp)
   11762:	00 00 00 00 
   11766:	48 8d 85 20 e8 ff ff 	lea    -0x17e0(%rbp),%rax
   1176d:	48 89 85 30 fd ff ff 	mov    %rax,-0x2d0(%rbp)
   11774:	48 8d 85 20 e8 ff ff 	lea    -0x17e0(%rbp),%rax
   1177b:	48 89 85 38 fd ff ff 	mov    %rax,-0x2c8(%rbp)
   11782:	48 8d 85 20 e8 ff ff 	lea    -0x17e0(%rbp),%rax
   11789:	48 89 85 40 fd ff ff 	mov    %rax,-0x2c0(%rbp)
   11790:	48 8d 85 20 e8 ff ff 	lea    -0x17e0(%rbp),%rax
   11797:	48 89 85 48 fd ff ff 	mov    %rax,-0x2b8(%rbp)
   1179e:	48 8d 85 20 e8 ff ff 	lea    -0x17e0(%rbp),%rax
   117a5:	48 89 85 50 fd ff ff 	mov    %rax,-0x2b0(%rbp)
   117ac:	48 8d 85 20 e8 ff ff 	lea    -0x17e0(%rbp),%rax
   117b3:	48 89 85 58 fd ff ff 	mov    %rax,-0x2a8(%rbp)
   117ba:	48 8d 85 20 e8 ff ff 	lea    -0x17e0(%rbp),%rax
   117c1:	48 89 85 60 fd ff ff 	mov    %rax,-0x2a0(%rbp)
   117c8:	48 8d 85 20 e8 ff ff 	lea    -0x17e0(%rbp),%rax
   117cf:	48 89 85 68 fd ff ff 	mov    %rax,-0x298(%rbp)
   117d6:	48 8d 85 20 e8 ff ff 	lea    -0x17e0(%rbp),%rax
   117dd:	48 89 85 70 fd ff ff 	mov    %rax,-0x290(%rbp)
   117e4:	48 8d 85 20 e8 ff ff 	lea    -0x17e0(%rbp),%rax
   117eb:	48 89 85 78 fd ff ff 	mov    %rax,-0x288(%rbp)
   117f2:	48 8d 85 20 e8 ff ff 	lea    -0x17e0(%rbp),%rax
   117f9:	48 89 85 80 fd ff ff 	mov    %rax,-0x280(%rbp)
   11800:	48 8d 85 20 e8 ff ff 	lea    -0x17e0(%rbp),%rax
   11807:	48 89 85 88 fd ff ff 	mov    %rax,-0x278(%rbp)
   1180e:	48 c7 85 90 fd ff ff 	movq   $0x0,-0x270(%rbp)
   11815:	00 00 00 00 
   11819:	48 c7 85 98 fd ff ff 	movq   $0x0,-0x268(%rbp)
   11820:	00 00 00 00 
   11824:	48 c7 85 a0 fd ff ff 	movq   $0x0,-0x260(%rbp)
   1182b:	00 00 00 00 
   1182f:	48 8d 85 20 e8 ff ff 	lea    -0x17e0(%rbp),%rax
   11836:	48 89 85 a8 fd ff ff 	mov    %rax,-0x258(%rbp)
   1183d:	48 8d 85 20 e8 ff ff 	lea    -0x17e0(%rbp),%rax
   11844:	48 89 85 b0 fd ff ff 	mov    %rax,-0x250(%rbp)
   1184b:	48 8d 85 20 e8 ff ff 	lea    -0x17e0(%rbp),%rax
   11852:	48 89 85 b8 fd ff ff 	mov    %rax,-0x248(%rbp)
   11859:	48 8d 85 20 e8 ff ff 	lea    -0x17e0(%rbp),%rax
   11860:	48 89 85 c0 fd ff ff 	mov    %rax,-0x240(%rbp)
   11867:	48 8d 85 20 e8 ff ff 	lea    -0x17e0(%rbp),%rax
   1186e:	48 89 85 c8 fd ff ff 	mov    %rax,-0x238(%rbp)
   11875:	48 8d 85 20 e8 ff ff 	lea    -0x17e0(%rbp),%rax
   1187c:	48 89 85 d0 fd ff ff 	mov    %rax,-0x230(%rbp)
   11883:	48 8d 85 20 e8 ff ff 	lea    -0x17e0(%rbp),%rax
   1188a:	48 89 85 d8 fd ff ff 	mov    %rax,-0x228(%rbp)
   11891:	48 8d 85 20 e8 ff ff 	lea    -0x17e0(%rbp),%rax
   11898:	48 89 85 e0 fd ff ff 	mov    %rax,-0x220(%rbp)
   1189f:	48 8d 85 20 e8 ff ff 	lea    -0x17e0(%rbp),%rax
   118a6:	48 89 85 e8 fd ff ff 	mov    %rax,-0x218(%rbp)
   118ad:	48 8d 85 20 e8 ff ff 	lea    -0x17e0(%rbp),%rax
   118b4:	48 89 85 f0 fd ff ff 	mov    %rax,-0x210(%rbp)
   118bb:	48 8d 85 20 e8 ff ff 	lea    -0x17e0(%rbp),%rax
   118c2:	48 89 85 f8 fd ff ff 	mov    %rax,-0x208(%rbp)
   118c9:	48 c7 85 00 fe ff ff 	movq   $0x0,-0x200(%rbp)
   118d0:	00 00 00 00 
   118d4:	48 8d 85 20 e8 ff ff 	lea    -0x17e0(%rbp),%rax
   118db:	48 89 85 08 fe ff ff 	mov    %rax,-0x1f8(%rbp)
   118e2:	48 c7 85 10 fe ff ff 	movq   $0x0,-0x1f0(%rbp)
   118e9:	00 00 00 00 
   118ed:	48 8d 85 20 e8 ff ff 	lea    -0x17e0(%rbp),%rax
   118f4:	48 89 85 18 fe ff ff 	mov    %rax,-0x1e8(%rbp)
   118fb:	48 8d 85 20 e8 ff ff 	lea    -0x17e0(%rbp),%rax
   11902:	48 89 85 20 fe ff ff 	mov    %rax,-0x1e0(%rbp)
   11909:	48 c7 85 28 fe ff ff 	movq   $0x0,-0x1d8(%rbp)
   11910:	00 00 00 00 
   11914:	48 8d 85 20 e8 ff ff 	lea    -0x17e0(%rbp),%rax
   1191b:	48 89 85 30 fe ff ff 	mov    %rax,-0x1d0(%rbp)
   11922:	48 8d 85 20 e8 ff ff 	lea    -0x17e0(%rbp),%rax
   11929:	48 89 85 38 fe ff ff 	mov    %rax,-0x1c8(%rbp)
   11930:	48 8d 85 20 e8 ff ff 	lea    -0x17e0(%rbp),%rax
   11937:	48 89 85 40 fe ff ff 	mov    %rax,-0x1c0(%rbp)
   1193e:	48 8d 85 20 e8 ff ff 	lea    -0x17e0(%rbp),%rax
   11945:	48 89 85 48 fe ff ff 	mov    %rax,-0x1b8(%rbp)
   1194c:	48 c7 85 50 fe ff ff 	movq   $0x0,-0x1b0(%rbp)
   11953:	00 00 00 00 
   11957:	48 8d 85 20 e8 ff ff 	lea    -0x17e0(%rbp),%rax
   1195e:	48 89 85 58 fe ff ff 	mov    %rax,-0x1a8(%rbp)
   11965:	48 c7 85 60 fe ff ff 	movq   $0x0,-0x1a0(%rbp)
   1196c:	00 00 00 00 
   11970:	48 8d 85 20 e8 ff ff 	lea    -0x17e0(%rbp),%rax
   11977:	48 89 85 68 fe ff ff 	mov    %rax,-0x198(%rbp)
   1197e:	48 8d 85 20 e8 ff ff 	lea    -0x17e0(%rbp),%rax
   11985:	48 89 85 70 fe ff ff 	mov    %rax,-0x190(%rbp)
   1198c:	48 8d 85 20 e8 ff ff 	lea    -0x17e0(%rbp),%rax
   11993:	48 89 85 78 fe ff ff 	mov    %rax,-0x188(%rbp)
   1199a:	48 8d 85 20 e8 ff ff 	lea    -0x17e0(%rbp),%rax
   119a1:	48 89 85 80 fe ff ff 	mov    %rax,-0x180(%rbp)
   119a8:	48 c7 85 88 fe ff ff 	movq   $0x0,-0x178(%rbp)
   119af:	00 00 00 00 
   119b3:	48 8d 85 20 e8 ff ff 	lea    -0x17e0(%rbp),%rax
   119ba:	48 89 85 90 fe ff ff 	mov    %rax,-0x170(%rbp)
   119c1:	48 c7 85 98 fe ff ff 	movq   $0x0,-0x168(%rbp)
   119c8:	00 00 00 00 
   119cc:	48 8d 85 20 e8 ff ff 	lea    -0x17e0(%rbp),%rax
   119d3:	48 89 85 a0 fe ff ff 	mov    %rax,-0x160(%rbp)
   119da:	48 8d 85 20 e8 ff ff 	lea    -0x17e0(%rbp),%rax
   119e1:	48 89 85 a8 fe ff ff 	mov    %rax,-0x158(%rbp)
   119e8:	48 8d 85 20 e8 ff ff 	lea    -0x17e0(%rbp),%rax
   119ef:	48 89 85 b0 fe ff ff 	mov    %rax,-0x150(%rbp)
   119f6:	48 8d 85 20 e8 ff ff 	lea    -0x17e0(%rbp),%rax
   119fd:	48 89 85 b8 fe ff ff 	mov    %rax,-0x148(%rbp)
   11a04:	48 8d 85 20 e8 ff ff 	lea    -0x17e0(%rbp),%rax
   11a0b:	48 89 85 c0 fe ff ff 	mov    %rax,-0x140(%rbp)
   11a12:	48 c7 85 c8 fe ff ff 	movq   $0x0,-0x138(%rbp)
   11a19:	00 00 00 00 
   11a1d:	48 c7 85 d0 fe ff ff 	movq   $0x0,-0x130(%rbp)
   11a24:	00 00 00 00 
   11a28:	48 8d 85 20 e8 ff ff 	lea    -0x17e0(%rbp),%rax
   11a2f:	48 89 85 d8 fe ff ff 	mov    %rax,-0x128(%rbp)
   11a36:	48 8d 85 20 e8 ff ff 	lea    -0x17e0(%rbp),%rax
   11a3d:	48 89 85 e0 fe ff ff 	mov    %rax,-0x120(%rbp)
   11a44:	48 8d 85 20 e8 ff ff 	lea    -0x17e0(%rbp),%rax
   11a4b:	48 89 85 e8 fe ff ff 	mov    %rax,-0x118(%rbp)
   11a52:	48 8d 85 20 e8 ff ff 	lea    -0x17e0(%rbp),%rax
   11a59:	48 89 85 f0 fe ff ff 	mov    %rax,-0x110(%rbp)
   11a60:	48 8d 85 20 e8 ff ff 	lea    -0x17e0(%rbp),%rax
   11a67:	48 89 85 f8 fe ff ff 	mov    %rax,-0x108(%rbp)
   11a6e:	48 8d 85 20 e8 ff ff 	lea    -0x17e0(%rbp),%rax
   11a75:	48 89 85 00 ff ff ff 	mov    %rax,-0x100(%rbp)
   11a7c:	48 8d 85 20 e8 ff ff 	lea    -0x17e0(%rbp),%rax
   11a83:	48 89 85 08 ff ff ff 	mov    %rax,-0xf8(%rbp)
   11a8a:	48 8d 05 a7 e3 00 00 	lea    0xe3a7(%rip),%rax        # 1fe38 <g_253>
   11a91:	48 89 85 28 e8 ff ff 	mov    %rax,-0x17d8(%rbp)
   11a98:	48 8d 85 28 e8 ff ff 	lea    -0x17d8(%rbp),%rax
   11a9f:	48 89 85 70 ed ff ff 	mov    %rax,-0x1290(%rbp)
   11aa6:	48 c7 85 78 ed ff ff 	movq   $0x0,-0x1288(%rbp)
   11aad:	00 00 00 00 
   11ab1:	48 8d 85 28 e8 ff ff 	lea    -0x17d8(%rbp),%rax
   11ab8:	48 89 85 80 ed ff ff 	mov    %rax,-0x1280(%rbp)
   11abf:	48 8d 85 28 e8 ff ff 	lea    -0x17d8(%rbp),%rax
   11ac6:	48 89 85 88 ed ff ff 	mov    %rax,-0x1278(%rbp)
   11acd:	48 c7 85 90 ed ff ff 	movq   $0x0,-0x1270(%rbp)
   11ad4:	00 00 00 00 
   11ad8:	48 8d 85 28 e8 ff ff 	lea    -0x17d8(%rbp),%rax
   11adf:	48 89 85 98 ed ff ff 	mov    %rax,-0x1268(%rbp)
   11ae6:	48 8d 85 28 e8 ff ff 	lea    -0x17d8(%rbp),%rax
   11aed:	48 89 85 a0 ed ff ff 	mov    %rax,-0x1260(%rbp)
   11af4:	48 c7 85 a8 ed ff ff 	movq   $0x0,-0x1258(%rbp)
   11afb:	00 00 00 00 
   11aff:	48 c7 85 b0 ed ff ff 	movq   $0x0,-0x1250(%rbp)
   11b06:	00 00 00 00 
   11b0a:	48 8d 85 28 e8 ff ff 	lea    -0x17d8(%rbp),%rax
   11b11:	48 89 85 b8 ed ff ff 	mov    %rax,-0x1248(%rbp)
   11b18:	48 8d 85 28 e8 ff ff 	lea    -0x17d8(%rbp),%rax
   11b1f:	48 89 85 c0 ed ff ff 	mov    %rax,-0x1240(%rbp)
   11b26:	48 c7 85 c8 ed ff ff 	movq   $0x0,-0x1238(%rbp)
   11b2d:	00 00 00 00 
   11b31:	48 8d 85 28 e8 ff ff 	lea    -0x17d8(%rbp),%rax
   11b38:	48 89 85 d0 ed ff ff 	mov    %rax,-0x1230(%rbp)
   11b3f:	48 8d 85 28 e8 ff ff 	lea    -0x17d8(%rbp),%rax
   11b46:	48 89 85 d8 ed ff ff 	mov    %rax,-0x1228(%rbp)
   11b4d:	48 c7 85 e0 ed ff ff 	movq   $0x0,-0x1220(%rbp)
   11b54:	00 00 00 00 
   11b58:	48 8d 85 28 e8 ff ff 	lea    -0x17d8(%rbp),%rax
   11b5f:	48 89 85 e8 ed ff ff 	mov    %rax,-0x1218(%rbp)
   11b66:	48 c7 85 f0 ed ff ff 	movq   $0x0,-0x1210(%rbp)
   11b6d:	00 00 00 00 
   11b71:	48 c7 85 f8 ed ff ff 	movq   $0x0,-0x1208(%rbp)
   11b78:	00 00 00 00 
   11b7c:	48 8d 85 28 e8 ff ff 	lea    -0x17d8(%rbp),%rax
   11b83:	48 89 85 00 ee ff ff 	mov    %rax,-0x1200(%rbp)
   11b8a:	48 c7 85 08 ee ff ff 	movq   $0x0,-0x11f8(%rbp)
   11b91:	00 00 00 00 
   11b95:	48 c7 85 10 ee ff ff 	movq   $0x0,-0x11f0(%rbp)
   11b9c:	00 00 00 00 
   11ba0:	48 8d 85 28 e8 ff ff 	lea    -0x17d8(%rbp),%rax
   11ba7:	48 89 85 18 ee ff ff 	mov    %rax,-0x11e8(%rbp)
   11bae:	48 c7 85 20 ee ff ff 	movq   $0x0,-0x11e0(%rbp)
   11bb5:	00 00 00 00 
   11bb9:	48 c7 85 28 ee ff ff 	movq   $0x0,-0x11d8(%rbp)
   11bc0:	00 00 00 00 
   11bc4:	48 8d 85 28 e8 ff ff 	lea    -0x17d8(%rbp),%rax
   11bcb:	48 89 85 30 ee ff ff 	mov    %rax,-0x11d0(%rbp)
   11bd2:	48 c7 85 38 ee ff ff 	movq   $0x0,-0x11c8(%rbp)
   11bd9:	00 00 00 00 
   11bdd:	48 8d 85 28 e8 ff ff 	lea    -0x17d8(%rbp),%rax
   11be4:	48 89 85 40 ee ff ff 	mov    %rax,-0x11c0(%rbp)
   11beb:	48 8d 85 28 e8 ff ff 	lea    -0x17d8(%rbp),%rax
   11bf2:	48 89 85 48 ee ff ff 	mov    %rax,-0x11b8(%rbp)
   11bf9:	48 c7 85 50 ee ff ff 	movq   $0x0,-0x11b0(%rbp)
   11c00:	00 00 00 00 
   11c04:	48 8d 85 28 e8 ff ff 	lea    -0x17d8(%rbp),%rax
   11c0b:	48 89 85 58 ee ff ff 	mov    %rax,-0x11a8(%rbp)
   11c12:	48 8d 85 28 e8 ff ff 	lea    -0x17d8(%rbp),%rax
   11c19:	48 89 85 60 ee ff ff 	mov    %rax,-0x11a0(%rbp)
   11c20:	48 c7 85 68 ee ff ff 	movq   $0x0,-0x1198(%rbp)
   11c27:	00 00 00 00 
   11c2b:	48 c7 85 70 ee ff ff 	movq   $0x0,-0x1190(%rbp)
   11c32:	00 00 00 00 
   11c36:	48 8d 85 28 e8 ff ff 	lea    -0x17d8(%rbp),%rax
   11c3d:	48 89 85 78 ee ff ff 	mov    %rax,-0x1188(%rbp)
   11c44:	48 8d 85 28 e8 ff ff 	lea    -0x17d8(%rbp),%rax
   11c4b:	48 89 85 80 ee ff ff 	mov    %rax,-0x1180(%rbp)
   11c52:	48 c7 85 88 ee ff ff 	movq   $0x0,-0x1178(%rbp)
   11c59:	00 00 00 00 
   11c5d:	48 8d 85 28 e8 ff ff 	lea    -0x17d8(%rbp),%rax
   11c64:	48 89 85 90 ee ff ff 	mov    %rax,-0x1170(%rbp)
   11c6b:	48 8d 85 28 e8 ff ff 	lea    -0x17d8(%rbp),%rax
   11c72:	48 89 85 98 ee ff ff 	mov    %rax,-0x1168(%rbp)
   11c79:	48 c7 85 a0 ee ff ff 	movq   $0x0,-0x1160(%rbp)
   11c80:	00 00 00 00 
   11c84:	48 8d 85 28 e8 ff ff 	lea    -0x17d8(%rbp),%rax
   11c8b:	48 89 85 a8 ee ff ff 	mov    %rax,-0x1158(%rbp)
   11c92:	48 c7 85 b0 ee ff ff 	movq   $0x0,-0x1150(%rbp)
   11c99:	00 00 00 00 
   11c9d:	48 c7 85 b8 ee ff ff 	movq   $0x0,-0x1148(%rbp)
   11ca4:	00 00 00 00 
   11ca8:	48 8d 85 28 e8 ff ff 	lea    -0x17d8(%rbp),%rax
   11caf:	48 89 85 c0 ee ff ff 	mov    %rax,-0x1140(%rbp)
   11cb6:	48 c7 85 c8 ee ff ff 	movq   $0x0,-0x1138(%rbp)
   11cbd:	00 00 00 00 
   11cc1:	48 c7 85 d0 ee ff ff 	movq   $0x0,-0x1130(%rbp)
   11cc8:	00 00 00 00 
   11ccc:	48 8d 85 28 e8 ff ff 	lea    -0x17d8(%rbp),%rax
   11cd3:	48 89 85 d8 ee ff ff 	mov    %rax,-0x1128(%rbp)
   11cda:	48 c7 85 e0 ee ff ff 	movq   $0x0,-0x1120(%rbp)
   11ce1:	00 00 00 00 
   11ce5:	48 c7 85 e8 ee ff ff 	movq   $0x0,-0x1118(%rbp)
   11cec:	00 00 00 00 
   11cf0:	48 8d 85 28 e8 ff ff 	lea    -0x17d8(%rbp),%rax
   11cf7:	48 89 85 f0 ee ff ff 	mov    %rax,-0x1110(%rbp)
   11cfe:	48 c7 85 f8 ee ff ff 	movq   $0x0,-0x1108(%rbp)
   11d05:	00 00 00 00 
   11d09:	48 8d 85 28 e8 ff ff 	lea    -0x17d8(%rbp),%rax
   11d10:	48 89 85 00 ef ff ff 	mov    %rax,-0x1100(%rbp)
   11d17:	48 8d 85 28 e8 ff ff 	lea    -0x17d8(%rbp),%rax
   11d1e:	48 89 85 08 ef ff ff 	mov    %rax,-0x10f8(%rbp)
   11d25:	48 c7 85 10 ef ff ff 	movq   $0x0,-0x10f0(%rbp)
   11d2c:	00 00 00 00 
   11d30:	48 8d 85 28 e8 ff ff 	lea    -0x17d8(%rbp),%rax
   11d37:	48 89 85 18 ef ff ff 	mov    %rax,-0x10e8(%rbp)
   11d3e:	48 8d 85 28 e8 ff ff 	lea    -0x17d8(%rbp),%rax
   11d45:	48 89 85 20 ef ff ff 	mov    %rax,-0x10e0(%rbp)
   11d4c:	48 c7 85 28 ef ff ff 	movq   $0x0,-0x10d8(%rbp)
   11d53:	00 00 00 00 
   11d57:	c7 85 70 e7 ff ff 01 	movl   $0x1,-0x1890(%rbp)
   11d5e:	00 00 00 
   11d61:	c7 85 74 e7 ff ff 8d 	movl   $0xf657058d,-0x188c(%rbp)
   11d68:	05 57 f6 
   11d6b:	c7 85 78 e7 ff ff 07 	movl   $0x7,-0x1888(%rbp)
   11d72:	00 00 00 
   11d75:	c7 85 7c e7 ff ff 00 	movl   $0x0,-0x1884(%rbp)
   11d7c:	00 00 00 
   11d7f:	c7 85 00 ea ff ff 36 	movl   $0xfaabbf36,-0x1600(%rbp)
   11d86:	bf ab fa 
   11d89:	c7 85 04 ea ff ff 36 	movl   $0xfaabbf36,-0x15fc(%rbp)
   11d90:	bf ab fa 
   11d93:	c7 85 08 ea ff ff 36 	movl   $0xfaabbf36,-0x15f8(%rbp)
   11d9a:	bf ab fa 
   11d9d:	c7 85 0c ea ff ff 36 	movl   $0xfaabbf36,-0x15f4(%rbp)
   11da4:	bf ab fa 
   11da7:	c7 85 10 ea ff ff 36 	movl   $0xfaabbf36,-0x15f0(%rbp)
   11dae:	bf ab fa 
   11db1:	c7 85 14 ea ff ff 36 	movl   $0xfaabbf36,-0x15ec(%rbp)
   11db8:	bf ab fa 
   11dbb:	c7 85 18 ea ff ff 36 	movl   $0xfaabbf36,-0x15e8(%rbp)
   11dc2:	bf ab fa 
   11dc5:	c7 85 1c ea ff ff 36 	movl   $0xfaabbf36,-0x15e4(%rbp)
   11dcc:	bf ab fa 
   11dcf:	c7 85 20 ea ff ff 36 	movl   $0xfaabbf36,-0x15e0(%rbp)
   11dd6:	bf ab fa 
   11dd9:	48 c7 85 58 e9 ff ff 	movq   $0x0,-0x16a8(%rbp)
   11de0:	00 00 00 00 
   11de4:	c7 85 04 e7 ff ff 03 	movl   $0x3,-0x18fc(%rbp)
   11deb:	00 00 00 
   11dee:	48 8d 85 e8 e7 ff ff 	lea    -0x1818(%rbp),%rax
   11df5:	48 89 85 60 e9 ff ff 	mov    %rax,-0x16a0(%rbp)
   11dfc:	c7 85 0c e7 ff ff 00 	movl   $0x0,-0x18f4(%rbp)
   11e03:	00 00 00 
   11e06:	eb 50                	jmp    11e58 <func_62+0x2ab6>
   11e08:	c7 85 10 e7 ff ff 00 	movl   $0x0,-0x18f0(%rbp)
   11e0f:	00 00 00 
   11e12:	eb 34                	jmp    11e48 <func_62+0x2aa6>
   11e14:	8b 85 10 e7 ff ff    	mov    -0x18f0(%rbp),%eax
   11e1a:	48 63 c8             	movslq %eax,%rcx
   11e1d:	8b 85 0c e7 ff ff    	mov    -0x18f4(%rbp),%eax
   11e23:	48 63 d0             	movslq %eax,%rdx
   11e26:	48 89 d0             	mov    %rdx,%rax
   11e29:	48 c1 e0 02          	shl    $0x2,%rax
   11e2d:	48 01 d0             	add    %rdx,%rax
   11e30:	48 01 c0             	add    %rax,%rax
   11e33:	48 01 c8             	add    %rcx,%rax
   11e36:	c7 84 85 40 eb ff ff 	movl   $0xfffffffa,-0x14c0(%rbp,%rax,4)
   11e3d:	fa ff ff ff 
   11e41:	83 85 10 e7 ff ff 01 	addl   $0x1,-0x18f0(%rbp)
   11e48:	83 bd 10 e7 ff ff 09 	cmpl   $0x9,-0x18f0(%rbp)
   11e4f:	7e c3                	jle    11e14 <func_62+0x2a72>
   11e51:	83 85 0c e7 ff ff 01 	addl   $0x1,-0x18f4(%rbp)
   11e58:	83 bd 0c e7 ff ff 01 	cmpl   $0x1,-0x18f4(%rbp)
   11e5f:	7e a7                	jle    11e08 <func_62+0x2a66>
   11e61:	c7 85 0c e7 ff ff 00 	movl   $0x0,-0x18f4(%rbp)
   11e68:	00 00 00 
   11e6b:	eb 1f                	jmp    11e8c <func_62+0x2aea>
   11e6d:	8b 85 0c e7 ff ff    	mov    -0x18f4(%rbp),%eax
   11e73:	48 98                	cltq   
   11e75:	48 8d 55 bf          	lea    -0x41(%rbp),%rdx
   11e79:	48 83 c2 01          	add    $0x1,%rdx
   11e7d:	48 89 94 c5 90 ea ff 	mov    %rdx,-0x1570(%rbp,%rax,8)
   11e84:	ff 
   11e85:	83 85 0c e7 ff ff 01 	addl   $0x1,-0x18f4(%rbp)
   11e8c:	83 bd 0c e7 ff ff 05 	cmpl   $0x5,-0x18f4(%rbp)
   11e93:	7e d8                	jle    11e6d <func_62+0x2acb>
   11e95:	0f b7 85 de e6 ff ff 	movzwl -0x1922(%rbp),%eax
   11e9c:	66 85 c0             	test   %ax,%ax
   11e9f:	0f 84 c2 02 00 00    	je     12167 <func_62+0x2dc5>
   11ea5:	48 c7 85 10 f3 ff ff 	movq   $0x0,-0xcf0(%rbp)
   11eac:	00 00 00 00 
   11eb0:	48 8d 85 dc e6 ff ff 	lea    -0x1924(%rbp),%rax
   11eb7:	48 89 85 18 f3 ff ff 	mov    %rax,-0xce8(%rbp)
   11ebe:	48 c7 85 20 f3 ff ff 	movq   $0x0,-0xce0(%rbp)
   11ec5:	00 00 00 00 
   11ec9:	48 8d 05 c4 de 00 00 	lea    0xdec4(%rip),%rax        # 1fd94 <g_160>
   11ed0:	48 89 85 28 f3 ff ff 	mov    %rax,-0xcd8(%rbp)
   11ed7:	48 8d 05 b6 de 00 00 	lea    0xdeb6(%rip),%rax        # 1fd94 <g_160>
   11ede:	48 89 85 30 f3 ff ff 	mov    %rax,-0xcd0(%rbp)
   11ee5:	48 c7 85 38 f3 ff ff 	movq   $0x0,-0xcc8(%rbp)
   11eec:	00 00 00 00 
   11ef0:	48 8d 85 dc e6 ff ff 	lea    -0x1924(%rbp),%rax
   11ef7:	48 89 85 40 f3 ff ff 	mov    %rax,-0xcc0(%rbp)
   11efe:	48 c7 85 48 f3 ff ff 	movq   $0x0,-0xcb8(%rbp)
   11f05:	00 00 00 00 
   11f09:	48 8d 05 84 de 00 00 	lea    0xde84(%rip),%rax        # 1fd94 <g_160>
   11f10:	48 89 85 50 f3 ff ff 	mov    %rax,-0xcb0(%rbp)
   11f17:	48 8d 05 76 de 00 00 	lea    0xde76(%rip),%rax        # 1fd94 <g_160>
   11f1e:	48 89 85 58 f3 ff ff 	mov    %rax,-0xca8(%rbp)
   11f25:	c7 85 84 e7 ff ff 0a 	movl   $0x87d9670a,-0x187c(%rbp)
   11f2c:	67 d9 87 
   11f2f:	c7 85 88 e7 ff ff 88 	movl   $0x61bba088,-0x1878(%rbp)
   11f36:	a0 bb 61 
   11f39:	8b 85 cc e6 ff ff    	mov    -0x1934(%rbp),%eax
   11f3f:	0f b6 c0             	movzbl %al,%eax
   11f42:	be 05 00 00 00       	mov    $0x5,%esi
   11f47:	89 c7                	mov    %eax,%edi
   11f49:	e8 b7 3c ff ff       	callq  5c05 <safe_lshift_func_uint8_t_u_s>
   11f4e:	44 0f b6 e8          	movzbl %al,%r13d
   11f52:	be 03 00 00 00       	mov    $0x3,%esi
   11f57:	bf 80 00 00 00       	mov    $0x80,%edi
   11f5c:	e8 eb 3c ff ff       	callq  5c4c <safe_lshift_func_uint8_t_u_u>
   11f61:	44 0f b6 e0          	movzbl %al,%r12d
   11f65:	66 c7 05 26 de 00 00 	movw   $0xfffa,0xde26(%rip)        # 1fd94 <g_160>
   11f6c:	fa ff 
   11f6e:	8b 05 c0 d8 00 00    	mov    0xd8c0(%rip),%eax        # 1f834 <g_142+0x354>
   11f74:	c1 e0 08             	shl    $0x8,%eax
   11f77:	c1 f8 08             	sar    $0x8,%eax
   11f7a:	0f be d8             	movsbl %al,%ebx
   11f7d:	48 8b 85 50 e8 ff ff 	mov    -0x17b0(%rbp),%rax
   11f84:	8b 00                	mov    (%rax),%eax
   11f86:	41 89 c7             	mov    %eax,%r15d
   11f89:	66 44 0f be b5 d6 e6 	movsbw -0x192a(%rbp),%r14w
   11f90:	ff ff 
   11f92:	8b 05 cc a4 00 00    	mov    0xa4cc(%rip),%eax        # 1c464 <l_369.5324+0x14>
   11f98:	48 98                	cltq   
   11f9a:	48 8b 15 bf de 00 00 	mov    0xdebf(%rip),%rdx        # 1fe60 <g_335>
   11fa1:	48 89 c6             	mov    %rax,%rsi
   11fa4:	48 89 d7             	mov    %rdx,%rdi
   11fa7:	e8 9f 40 ff ff       	callq  604b <safe_sub_func_uint64_t_u_u>
   11fac:	48 89 c2             	mov    %rax,%rdx
   11faf:	8b 85 c8 e6 ff ff    	mov    -0x1938(%rbp),%eax
   11fb5:	48 98                	cltq   
   11fb7:	48 89 d6             	mov    %rdx,%rsi
   11fba:	48 89 c7             	mov    %rax,%rdi
   11fbd:	e8 ed 40 ff ff       	callq  60af <safe_div_func_uint64_t_u_u>
   11fc2:	8b 95 cc e6 ff ff    	mov    -0x1934(%rbp),%edx
   11fc8:	89 d2                	mov    %edx,%edx
   11fca:	48 39 d0             	cmp    %rdx,%rax
   11fcd:	0f 95 c0             	setne  %al
   11fd0:	0f b6 c0             	movzbl %al,%eax
   11fd3:	44 21 f0             	and    %r14d,%eax
   11fd6:	0f b7 c0             	movzwl %ax,%eax
   11fd9:	44 89 fe             	mov    %r15d,%esi
   11fdc:	89 c7                	mov    %eax,%edi
   11fde:	e8 23 3e ff ff       	callq  5e06 <safe_lshift_func_uint16_t_u_u>
   11fe3:	0f be c0             	movsbl %al,%eax
   11fe6:	89 de                	mov    %ebx,%esi
   11fe8:	89 c7                	mov    %eax,%edi
   11fea:	e8 7b 32 ff ff       	callq  526a <safe_div_func_int8_t_s_s>
   11fef:	0f be d0             	movsbl %al,%edx
   11ff2:	8b 85 c8 e6 ff ff    	mov    -0x1938(%rbp),%eax
   11ff8:	21 d0                	and    %edx,%eax
   11ffa:	85 c0                	test   %eax,%eax
   11ffc:	0f 94 c0             	sete   %al
   11fff:	0f b6 d0             	movzbl %al,%edx
   12002:	8b 85 cc e6 ff ff    	mov    -0x1934(%rbp),%eax
   12008:	39 c2                	cmp    %eax,%edx
   1200a:	76 07                	jbe    12013 <func_62+0x2c71>
   1200c:	b8 01 00 00 00       	mov    $0x1,%eax
   12011:	eb 05                	jmp    12018 <func_62+0x2c76>
   12013:	b8 00 00 00 00       	mov    $0x0,%eax
   12018:	89 85 84 e7 ff ff    	mov    %eax,-0x187c(%rbp)
   1201e:	44 39 a5 84 e7 ff ff 	cmp    %r12d,-0x187c(%rbp)
   12025:	0f 95 c0             	setne  %al
   12028:	0f b6 c0             	movzbl %al,%eax
   1202b:	41 39 c5             	cmp    %eax,%r13d
   1202e:	0f 9d c0             	setge  %al
   12031:	0f b6 c0             	movzbl %al,%eax
   12034:	09 85 34 e7 ff ff    	or     %eax,-0x18cc(%rbp)
   1203a:	8b 85 c8 e6 ff ff    	mov    -0x1938(%rbp),%eax
   12040:	85 c0                	test   %eax,%eax
   12042:	0f 85 f5 0c 00 00    	jne    12d3d <func_62+0x399b>
   12048:	8b 85 b4 e6 ff ff    	mov    -0x194c(%rbp),%eax
   1204e:	41 89 c6             	mov    %eax,%r14d
   12051:	48 8b 05 28 f5 00 00 	mov    0xf528(%rip),%rax        # 21580 <g_376>
   12058:	48 85 c0             	test   %rax,%rax
   1205b:	0f 94 c0             	sete   %al
   1205e:	0f b6 f0             	movzbl %al,%esi
   12061:	48 8b 05 08 f5 00 00 	mov    0xf508(%rip),%rax        # 21570 <g_260>
   12068:	0f b7 10             	movzwl (%rax),%edx
   1206b:	8d 4a 01             	lea    0x1(%rdx),%ecx
   1206e:	66 89 08             	mov    %cx,(%rax)
   12071:	0f b7 c2             	movzwl %dx,%eax
   12074:	39 c6                	cmp    %eax,%esi
   12076:	0f 95 c0             	setne  %al
   12079:	0f b6 c0             	movzbl %al,%eax
   1207c:	48 89 c6             	mov    %rax,%rsi
   1207f:	48 bf 49 70 cd 43 16 	movabs $0x4cbd5d1643cd7049,%rdi
   12086:	5d bd 4c 
   12089:	e8 b3 37 ff ff       	callq  5841 <safe_add_func_int64_t_s_s>
   1208e:	49 89 c4             	mov    %rax,%r12
   12091:	48 8b 85 f8 e8 ff ff 	mov    -0x1708(%rbp),%rax
   12098:	48 8b 00             	mov    (%rax),%rax
   1209b:	48 8d 48 ff          	lea    -0x1(%rax),%rcx
   1209f:	48 8b 95 f8 e8 ff ff 	mov    -0x1708(%rbp),%rdx
   120a6:	48 89 0a             	mov    %rcx,(%rdx)
   120a9:	48 89 c6             	mov    %rax,%rsi
   120ac:	bf 01 00 00 00       	mov    $0x1,%edi
   120b1:	e8 78 3f ff ff       	callq  602e <safe_add_func_uint64_t_u_u>
   120b6:	49 89 c5             	mov    %rax,%r13
   120b9:	8b 05 95 dd 00 00    	mov    0xdd95(%rip),%eax        # 1fe54 <g_277+0x14>
   120bf:	c1 e8 07             	shr    $0x7,%eax
   120c2:	89 c2                	mov    %eax,%edx
   120c4:	0f b6 05 8d dd 00 00 	movzbl 0xdd8d(%rip),%eax        # 1fe58 <g_277+0x18>
   120cb:	83 e0 1f             	and    $0x1f,%eax
   120ce:	48 c1 e0 19          	shl    $0x19,%rax
   120d2:	48 09 d0             	or     %rdx,%rax
   120d5:	48 c1 e0 22          	shl    $0x22,%rax
   120d9:	48 c1 f8 22          	sar    $0x22,%rax
   120dd:	89 c2                	mov    %eax,%edx
   120df:	8b 85 b4 e6 ff ff    	mov    -0x194c(%rbp),%eax
   120e5:	39 c2                	cmp    %eax,%edx
   120e7:	0f 95 c0             	setne  %al
   120ea:	0f b6 d8             	movzbl %al,%ebx
   120ed:	be 02 00 00 00       	mov    $0x2,%esi
   120f2:	bf 00 00 00 00       	mov    $0x0,%edi
   120f7:	e8 70 32 ff ff       	callq  536c <safe_rshift_func_int8_t_s_u>
   120fc:	0f b6 c0             	movzbl %al,%eax
   120ff:	89 de                	mov    %ebx,%esi
   12101:	89 c7                	mov    %eax,%edi
   12103:	e8 8b 3a ff ff       	callq  5b93 <safe_mul_func_uint8_t_u_u>
   12108:	0f b6 c0             	movzbl %al,%eax
   1210b:	be 05 00 00 00       	mov    $0x5,%esi
   12110:	89 c7                	mov    %eax,%edi
   12112:	e8 ee 3a ff ff       	callq  5c05 <safe_lshift_func_uint8_t_u_s>
   12117:	0f b6 c0             	movzbl %al,%eax
   1211a:	83 e0 01             	and    $0x1,%eax
   1211d:	49 39 c5             	cmp    %rax,%r13
   12120:	0f 92 c0             	setb   %al
   12123:	0f b6 c0             	movzbl %al,%eax
   12126:	49 39 c4             	cmp    %rax,%r12
   12129:	75 07                	jne    12132 <func_62+0x2d90>
   1212b:	83 bd 34 e7 ff ff 00 	cmpl   $0x0,-0x18cc(%rbp)
   12132:	48 8b 95 30 ee ff ff 	mov    -0x11d0(%rbp),%rdx
   12139:	48 8b 85 88 f2 ff ff 	mov    -0xd78(%rbp),%rax
   12140:	48 39 c2             	cmp    %rax,%rdx
   12143:	0f 94 c0             	sete   %al
   12146:	0f b6 c0             	movzbl %al,%eax
   12149:	44 89 f6             	mov    %r14d,%esi
   1214c:	89 c7                	mov    %eax,%edi
   1214e:	e8 aa 3d ff ff       	callq  5efd <safe_mod_func_uint32_t_u_u>
   12153:	89 c2                	mov    %eax,%edx
   12155:	48 8b 85 50 e8 ff ff 	mov    -0x17b0(%rbp),%rax
   1215c:	89 10                	mov    %edx,(%rax)
   1215e:	83 ad 88 e7 ff ff 01 	subl   $0x1,-0x1878(%rbp)
   12165:	eb 55                	jmp    121bc <func_62+0x2e1a>
   12167:	48 b8 e1 5d 2f e0 cf 	movabs $0xa0deeccfe02f5de1,%rax
   1216e:	ec de a0 
   12171:	48 89 85 68 e9 ff ff 	mov    %rax,-0x1698(%rbp)
   12178:	c7 85 80 e7 ff ff 16 	movl   $0xce364c16,-0x1880(%rbp)
   1217f:	4c 36 ce 
   12182:	8b 05 ec 02 01 00    	mov    0x102ec(%rip),%eax        # 22474 <g_398+0x14>
   12188:	83 c0 01             	add    $0x1,%eax
   1218b:	89 05 e3 02 01 00    	mov    %eax,0x102e3(%rip)        # 22474 <g_398+0x14>
   12191:	83 bd 34 e7 ff ff 00 	cmpl   $0x0,-0x18cc(%rbp)
   12198:	0f 85 7c 0b 00 00    	jne    12d1a <func_62+0x3978>
   1219e:	48 8b 85 50 e8 ff ff 	mov    -0x17b0(%rbp),%rax
   121a5:	8b 00                	mov    (%rax),%eax
   121a7:	83 e0 01             	and    $0x1,%eax
   121aa:	89 c2                	mov    %eax,%edx
   121ac:	48 8b 85 50 e8 ff ff 	mov    -0x17b0(%rbp),%rax
   121b3:	89 10                	mov    %edx,(%rax)
   121b5:	83 ad 74 e7 ff ff 01 	subl   $0x1,-0x188c(%rbp)
   121bc:	48 8b 85 20 e8 ff ff 	mov    -0x17e0(%rbp),%rax
   121c3:	8b 00                	mov    (%rax),%eax
   121c5:	85 c0                	test   %eax,%eax
   121c7:	0f 84 ef 00 00 00    	je     122bc <func_62+0x2f1a>
   121cd:	48 b8 1f 34 3a e9 4d 	movabs $0x5d0d24de93a341f,%rax
   121d4:	d2 d0 05 
   121d7:	48 89 85 78 e9 ff ff 	mov    %rax,-0x1688(%rbp)
   121de:	c7 85 8c e7 ff ff 00 	movl   $0x0,-0x1874(%rbp)
   121e5:	00 00 00 
   121e8:	48 83 85 60 e8 ff ff 	addq   $0x1,-0x17a0(%rbp)
   121ef:	01 
   121f0:	8b 85 b4 e6 ff ff    	mov    -0x194c(%rbp),%eax
   121f6:	85 c0                	test   %eax,%eax
   121f8:	0f 84 a0 00 00 00    	je     1229e <func_62+0x2efc>
   121fe:	0f be 85 d6 e6 ff ff 	movsbl -0x192a(%rbp),%eax
   12205:	89 c6                	mov    %eax,%esi
   12207:	bf f8 ff ff ff       	mov    $0xfffffff8,%edi
   1220c:	e8 5b 31 ff ff       	callq  536c <safe_rshift_func_int8_t_s_u>
   12211:	0f be d0             	movsbl %al,%edx
   12214:	48 83 bd 40 e9 ff ff 	cmpq   $0x0,-0x16c0(%rbp)
   1221b:	00 
   1221c:	0f 95 c0             	setne  %al
   1221f:	0f b6 c0             	movzbl %al,%eax
   12222:	89 d6                	mov    %edx,%esi
   12224:	89 c7                	mov    %eax,%edi
   12226:	e8 67 32 ff ff       	callq  5492 <safe_lshift_func_int16_t_s_s>
   1222b:	98                   	cwtl   
   1222c:	be 6c a1 ff ff       	mov    $0xffffa16c,%esi
   12231:	89 c7                	mov    %eax,%edi
   12233:	e8 de 31 ff ff       	callq  5416 <safe_mod_func_int16_t_s_s>
   12238:	0f bf d0             	movswl %ax,%edx
   1223b:	8b 85 cc e6 ff ff    	mov    -0x1934(%rbp),%eax
   12241:	98                   	cwtl   
   12242:	89 d6                	mov    %edx,%esi
   12244:	89 c7                	mov    %eax,%edi
   12246:	e8 0a 32 ff ff       	callq  5455 <safe_div_func_int16_t_s_s>
   1224b:	48 8b 05 2e f3 00 00 	mov    0xf32e(%rip),%rax        # 21580 <g_376>
   12252:	48 8b 00             	mov    (%rax),%rax
   12255:	0f b6 00             	movzbl (%rax),%eax
   12258:	0f be c0             	movsbl %al,%eax
   1225b:	39 85 5c e7 ff ff    	cmp    %eax,-0x18a4(%rbp)
   12261:	0f 94 c0             	sete   %al
   12264:	0f b6 d0             	movzbl %al,%edx
   12267:	8b 85 cc e6 ff ff    	mov    -0x1934(%rbp),%eax
   1226d:	31 c2                	xor    %eax,%edx
   1226f:	8b 05 df db 00 00    	mov    0xdbdf(%rip),%eax        # 1fe54 <g_277+0x14>
   12275:	c1 e8 07             	shr    $0x7,%eax
   12278:	89 c1                	mov    %eax,%ecx
   1227a:	0f b6 05 d7 db 00 00 	movzbl 0xdbd7(%rip),%eax        # 1fe58 <g_277+0x18>
   12281:	83 e0 1f             	and    $0x1f,%eax
   12284:	48 c1 e0 19          	shl    $0x19,%rax
   12288:	48 09 c8             	or     %rcx,%rax
   1228b:	48 c1 e0 22          	shl    $0x22,%rax
   1228f:	48 c1 f8 22          	sar    $0x22,%rax
   12293:	39 c2                	cmp    %eax,%edx
   12295:	75 07                	jne    1229e <func_62+0x2efc>
   12297:	ba 01 00 00 00       	mov    $0x1,%edx
   1229c:	eb 05                	jmp    122a3 <func_62+0x2f01>
   1229e:	ba 00 00 00 00       	mov    $0x0,%edx
   122a3:	48 8b 85 50 e8 ff ff 	mov    -0x17b0(%rbp),%rax
   122aa:	8b 00                	mov    (%rax),%eax
   122ac:	09 c2                	or     %eax,%edx
   122ae:	48 8b 85 50 e8 ff ff 	mov    -0x17b0(%rbp),%rax
   122b5:	89 10                	mov    %edx,(%rax)
   122b7:	e9 14 09 00 00       	jmpq   12bd0 <func_62+0x382e>
   122bc:	48 b8 90 3d b2 43 a3 	movabs $0x77c5daa343b23d90,%rax
   122c3:	da c5 77 
   122c6:	48 89 85 70 e9 ff ff 	mov    %rax,-0x1690(%rbp)
   122cd:	48 8d 05 a8 da 00 00 	lea    0xdaa8(%rip),%rax        # 1fd7c <g_155+0x9c>
   122d4:	48 89 85 30 ef ff ff 	mov    %rax,-0x10d0(%rbp)
   122db:	48 c7 85 38 ef ff ff 	movq   $0x0,-0x10c8(%rbp)
   122e2:	00 00 00 00 
   122e6:	48 c7 85 40 ef ff ff 	movq   $0x0,-0x10c0(%rbp)
   122ed:	00 00 00 00 
   122f1:	48 8d 05 84 da 00 00 	lea    0xda84(%rip),%rax        # 1fd7c <g_155+0x9c>
   122f8:	48 89 85 48 ef ff ff 	mov    %rax,-0x10b8(%rbp)
   122ff:	48 8d 05 56 da 00 00 	lea    0xda56(%rip),%rax        # 1fd5c <g_155+0x7c>
   12306:	48 89 85 50 ef ff ff 	mov    %rax,-0x10b0(%rbp)
   1230d:	48 8d 85 60 ea ff ff 	lea    -0x15a0(%rbp),%rax
   12314:	48 83 c0 20          	add    $0x20,%rax
   12318:	48 89 85 58 ef ff ff 	mov    %rax,-0x10a8(%rbp)
   1231f:	48 8d 05 56 da 00 00 	lea    0xda56(%rip),%rax        # 1fd7c <g_155+0x9c>
   12326:	48 89 85 60 ef ff ff 	mov    %rax,-0x10a0(%rbp)
   1232d:	48 8d 85 60 ea ff ff 	lea    -0x15a0(%rbp),%rax
   12334:	48 83 c0 28          	add    $0x28,%rax
   12338:	48 89 85 68 ef ff ff 	mov    %rax,-0x1098(%rbp)
   1233f:	48 c7 85 70 ef ff ff 	movq   $0x0,-0x1090(%rbp)
   12346:	00 00 00 00 
   1234a:	48 8d 05 ab d9 00 00 	lea    0xd9ab(%rip),%rax        # 1fcfc <g_155+0x1c>
   12351:	48 89 85 78 ef ff ff 	mov    %rax,-0x1088(%rbp)
   12358:	48 8d 85 60 ea ff ff 	lea    -0x15a0(%rbp),%rax
   1235f:	48 83 c0 28          	add    $0x28,%rax
   12363:	48 89 85 80 ef ff ff 	mov    %rax,-0x1080(%rbp)
   1236a:	48 8d 85 60 ea ff ff 	lea    -0x15a0(%rbp),%rax
   12371:	48 83 c0 08          	add    $0x8,%rax
   12375:	48 89 85 88 ef ff ff 	mov    %rax,-0x1078(%rbp)
   1237c:	48 c7 85 90 ef ff ff 	movq   $0x0,-0x1070(%rbp)
   12383:	00 00 00 00 
   12387:	48 8d 05 f2 d9 00 00 	lea    0xd9f2(%rip),%rax        # 1fd80 <g_155+0xa0>
   1238e:	48 89 85 98 ef ff ff 	mov    %rax,-0x1068(%rbp)
   12395:	48 8d 85 60 ea ff ff 	lea    -0x15a0(%rbp),%rax
   1239c:	48 83 c0 18          	add    $0x18,%rax
   123a0:	48 89 85 a0 ef ff ff 	mov    %rax,-0x1060(%rbp)
   123a7:	48 c7 85 a8 ef ff ff 	movq   $0x0,-0x1058(%rbp)
   123ae:	00 00 00 00 
   123b2:	48 8d 85 60 ea ff ff 	lea    -0x15a0(%rbp),%rax
   123b9:	48 83 c0 28          	add    $0x28,%rax
   123bd:	48 89 85 b0 ef ff ff 	mov    %rax,-0x1050(%rbp)
   123c4:	48 c7 85 b8 ef ff ff 	movq   $0x0,-0x1048(%rbp)
   123cb:	00 00 00 00 
   123cf:	48 8d 05 5a d9 00 00 	lea    0xd95a(%rip),%rax        # 1fd30 <g_155+0x50>
   123d6:	48 89 85 c0 ef ff ff 	mov    %rax,-0x1040(%rbp)
   123dd:	48 8d 85 60 ea ff ff 	lea    -0x15a0(%rbp),%rax
   123e4:	48 83 c0 28          	add    $0x28,%rax
   123e8:	48 89 85 c8 ef ff ff 	mov    %rax,-0x1038(%rbp)
   123ef:	48 8d 05 3a d9 00 00 	lea    0xd93a(%rip),%rax        # 1fd30 <g_155+0x50>
   123f6:	48 89 85 d0 ef ff ff 	mov    %rax,-0x1030(%rbp)
   123fd:	48 c7 85 d8 ef ff ff 	movq   $0x0,-0x1028(%rbp)
   12404:	00 00 00 00 
   12408:	48 8d 05 4d d9 00 00 	lea    0xd94d(%rip),%rax        # 1fd5c <g_155+0x7c>
   1240f:	48 89 85 e0 ef ff ff 	mov    %rax,-0x1020(%rbp)
   12416:	48 8d 05 63 d9 00 00 	lea    0xd963(%rip),%rax        # 1fd80 <g_155+0xa0>
   1241d:	48 89 85 e8 ef ff ff 	mov    %rax,-0x1018(%rbp)
   12424:	48 8d 85 60 ea ff ff 	lea    -0x15a0(%rbp),%rax
   1242b:	48 83 c0 20          	add    $0x20,%rax
   1242f:	48 89 85 f0 ef ff ff 	mov    %rax,-0x1010(%rbp)
   12436:	48 c7 85 f8 ef ff ff 	movq   $0x0,-0x1008(%rbp)
   1243d:	00 00 00 00 
   12441:	48 8d 85 60 ea ff ff 	lea    -0x15a0(%rbp),%rax
   12448:	48 83 c0 28          	add    $0x28,%rax
   1244c:	48 89 85 00 f0 ff ff 	mov    %rax,-0x1000(%rbp)
   12453:	48 8d 85 60 ea ff ff 	lea    -0x15a0(%rbp),%rax
   1245a:	48 83 c0 08          	add    $0x8,%rax
   1245e:	48 89 85 08 f0 ff ff 	mov    %rax,-0xff8(%rbp)
   12465:	48 8d 05 10 d9 00 00 	lea    0xd910(%rip),%rax        # 1fd7c <g_155+0x9c>
   1246c:	48 89 85 10 f0 ff ff 	mov    %rax,-0xff0(%rbp)
   12473:	48 8d 05 e2 d8 00 00 	lea    0xd8e2(%rip),%rax        # 1fd5c <g_155+0x7c>
   1247a:	48 89 85 18 f0 ff ff 	mov    %rax,-0xfe8(%rbp)
   12481:	48 8d 05 74 d8 00 00 	lea    0xd874(%rip),%rax        # 1fcfc <g_155+0x1c>
   12488:	48 89 85 20 f0 ff ff 	mov    %rax,-0xfe0(%rbp)
   1248f:	48 c7 85 28 f0 ff ff 	movq   $0x0,-0xfd8(%rbp)
   12496:	00 00 00 00 
   1249a:	48 c7 85 30 f0 ff ff 	movq   $0x0,-0xfd0(%rbp)
   124a1:	00 00 00 00 
   124a5:	48 8d 85 60 ea ff ff 	lea    -0x15a0(%rbp),%rax
   124ac:	48 83 c0 08          	add    $0x8,%rax
   124b0:	48 89 85 38 f0 ff ff 	mov    %rax,-0xfc8(%rbp)
   124b7:	48 8d 85 60 ea ff ff 	lea    -0x15a0(%rbp),%rax
   124be:	48 83 c0 08          	add    $0x8,%rax
   124c2:	48 89 85 40 f0 ff ff 	mov    %rax,-0xfc0(%rbp)
   124c9:	48 c7 85 48 f0 ff ff 	movq   $0x0,-0xfb8(%rbp)
   124d0:	00 00 00 00 
   124d4:	48 8d 85 60 ea ff ff 	lea    -0x15a0(%rbp),%rax
   124db:	48 83 c0 20          	add    $0x20,%rax
   124df:	48 89 85 50 f0 ff ff 	mov    %rax,-0xfb0(%rbp)
   124e6:	48 8d 85 60 ea ff ff 	lea    -0x15a0(%rbp),%rax
   124ed:	48 83 c0 20          	add    $0x20,%rax
   124f1:	48 89 85 58 f0 ff ff 	mov    %rax,-0xfa8(%rbp)
   124f8:	48 8d 85 60 ea ff ff 	lea    -0x15a0(%rbp),%rax
   124ff:	48 83 c0 28          	add    $0x28,%rax
   12503:	48 89 85 60 f0 ff ff 	mov    %rax,-0xfa0(%rbp)
   1250a:	48 c7 85 68 f0 ff ff 	movq   $0x0,-0xf98(%rbp)
   12511:	00 00 00 00 
   12515:	48 8d 85 60 ea ff ff 	lea    -0x15a0(%rbp),%rax
   1251c:	48 83 c0 28          	add    $0x28,%rax
   12520:	48 89 85 70 f0 ff ff 	mov    %rax,-0xf90(%rbp)
   12527:	48 8d 05 02 d8 00 00 	lea    0xd802(%rip),%rax        # 1fd30 <g_155+0x50>
   1252e:	48 89 85 78 f0 ff ff 	mov    %rax,-0xf88(%rbp)
   12535:	48 8d 05 f4 d7 00 00 	lea    0xd7f4(%rip),%rax        # 1fd30 <g_155+0x50>
   1253c:	48 89 85 80 f0 ff ff 	mov    %rax,-0xf80(%rbp)
   12543:	48 8d 85 60 ea ff ff 	lea    -0x15a0(%rbp),%rax
   1254a:	48 83 c0 28          	add    $0x28,%rax
   1254e:	48 89 85 88 f0 ff ff 	mov    %rax,-0xf78(%rbp)
   12555:	48 8d 85 60 ea ff ff 	lea    -0x15a0(%rbp),%rax
   1255c:	48 83 c0 20          	add    $0x20,%rax
   12560:	48 89 85 90 f0 ff ff 	mov    %rax,-0xf70(%rbp)
   12567:	48 c7 85 98 f0 ff ff 	movq   $0x0,-0xf68(%rbp)
   1256e:	00 00 00 00 
   12572:	48 c7 85 a0 f0 ff ff 	movq   $0x0,-0xf60(%rbp)
   12579:	00 00 00 00 
   1257d:	48 8d 85 60 ea ff ff 	lea    -0x15a0(%rbp),%rax
   12584:	48 83 c0 28          	add    $0x28,%rax
   12588:	48 89 85 a8 f0 ff ff 	mov    %rax,-0xf58(%rbp)
   1258f:	48 c7 85 b0 f0 ff ff 	movq   $0x0,-0xf50(%rbp)
   12596:	00 00 00 00 
   1259a:	48 8d 05 8f d7 00 00 	lea    0xd78f(%rip),%rax        # 1fd30 <g_155+0x50>
   125a1:	48 89 85 b8 f0 ff ff 	mov    %rax,-0xf48(%rbp)
   125a8:	48 8d 85 60 ea ff ff 	lea    -0x15a0(%rbp),%rax
   125af:	48 83 c0 20          	add    $0x20,%rax
   125b3:	48 89 85 c0 f0 ff ff 	mov    %rax,-0xf40(%rbp)
   125ba:	48 8d 05 3b d7 00 00 	lea    0xd73b(%rip),%rax        # 1fcfc <g_155+0x1c>
   125c1:	48 89 85 c8 f0 ff ff 	mov    %rax,-0xf38(%rbp)
   125c8:	48 8d 85 60 ea ff ff 	lea    -0x15a0(%rbp),%rax
   125cf:	48 83 c0 20          	add    $0x20,%rax
   125d3:	48 89 85 d0 f0 ff ff 	mov    %rax,-0xf30(%rbp)
   125da:	48 8d 05 4f d7 00 00 	lea    0xd74f(%rip),%rax        # 1fd30 <g_155+0x50>
   125e1:	48 89 85 d8 f0 ff ff 	mov    %rax,-0xf28(%rbp)
   125e8:	48 8d 05 8d d7 00 00 	lea    0xd78d(%rip),%rax        # 1fd7c <g_155+0x9c>
   125ef:	48 89 85 e0 f0 ff ff 	mov    %rax,-0xf20(%rbp)
   125f6:	48 8d 05 ff d6 00 00 	lea    0xd6ff(%rip),%rax        # 1fcfc <g_155+0x1c>
   125fd:	48 89 85 e8 f0 ff ff 	mov    %rax,-0xf18(%rbp)
   12604:	48 8d 85 60 ea ff ff 	lea    -0x15a0(%rbp),%rax
   1260b:	48 83 c0 28          	add    $0x28,%rax
   1260f:	48 89 85 f0 f0 ff ff 	mov    %rax,-0xf10(%rbp)
   12616:	48 8d 05 5f d7 00 00 	lea    0xd75f(%rip),%rax        # 1fd7c <g_155+0x9c>
   1261d:	48 89 85 f8 f0 ff ff 	mov    %rax,-0xf08(%rbp)
   12624:	48 8d 05 35 d7 00 00 	lea    0xd735(%rip),%rax        # 1fd60 <g_155+0x80>
   1262b:	48 89 85 00 f1 ff ff 	mov    %rax,-0xf00(%rbp)
   12632:	48 c7 85 08 f1 ff ff 	movq   $0x0,-0xef8(%rbp)
   12639:	00 00 00 00 
   1263d:	48 8d 85 e0 e7 ff ff 	lea    -0x1820(%rbp),%rax
   12644:	48 89 85 10 f3 ff ff 	mov    %rax,-0xcf0(%rbp)
   1264b:	48 8d 85 e0 e7 ff ff 	lea    -0x1820(%rbp),%rax
   12652:	48 89 85 18 f3 ff ff 	mov    %rax,-0xce8(%rbp)
   12659:	48 8d 85 e0 e7 ff ff 	lea    -0x1820(%rbp),%rax
   12660:	48 89 85 20 f3 ff ff 	mov    %rax,-0xce0(%rbp)
   12667:	48 c7 85 28 f3 ff ff 	movq   $0x0,-0xcd8(%rbp)
   1266e:	00 00 00 00 
   12672:	48 8d 85 e0 e7 ff ff 	lea    -0x1820(%rbp),%rax
   12679:	48 89 85 30 f3 ff ff 	mov    %rax,-0xcd0(%rbp)
   12680:	48 c7 85 38 f3 ff ff 	movq   $0x0,-0xcc8(%rbp)
   12687:	00 00 00 00 
   1268b:	48 8d 85 e0 e7 ff ff 	lea    -0x1820(%rbp),%rax
   12692:	48 89 85 40 f3 ff ff 	mov    %rax,-0xcc0(%rbp)
   12699:	48 c7 85 48 f3 ff ff 	movq   $0x0,-0xcb8(%rbp)
   126a0:	00 00 00 00 
   126a4:	48 c7 85 50 f3 ff ff 	movq   $0x0,-0xcb0(%rbp)
   126ab:	00 00 00 00 
   126af:	48 c7 85 58 f3 ff ff 	movq   $0x0,-0xca8(%rbp)
   126b6:	00 00 00 00 
   126ba:	48 c7 85 60 f3 ff ff 	movq   $0x0,-0xca0(%rbp)
   126c1:	00 00 00 00 
   126c5:	48 8d 85 e0 e7 ff ff 	lea    -0x1820(%rbp),%rax
   126cc:	48 89 85 68 f3 ff ff 	mov    %rax,-0xc98(%rbp)
   126d3:	48 c7 85 70 f3 ff ff 	movq   $0x0,-0xc90(%rbp)
   126da:	00 00 00 00 
   126de:	48 c7 85 78 f3 ff ff 	movq   $0x0,-0xc88(%rbp)
   126e5:	00 00 00 00 
   126e9:	48 c7 85 80 f3 ff ff 	movq   $0x0,-0xc80(%rbp)
   126f0:	00 00 00 00 
   126f4:	48 c7 85 88 f3 ff ff 	movq   $0x0,-0xc78(%rbp)
   126fb:	00 00 00 00 
   126ff:	48 8d 85 e0 e7 ff ff 	lea    -0x1820(%rbp),%rax
   12706:	48 89 85 90 f3 ff ff 	mov    %rax,-0xc70(%rbp)
   1270d:	48 c7 85 98 f3 ff ff 	movq   $0x0,-0xc68(%rbp)
   12714:	00 00 00 00 
   12718:	48 8d 85 e0 e7 ff ff 	lea    -0x1820(%rbp),%rax
   1271f:	48 89 85 a0 f3 ff ff 	mov    %rax,-0xc60(%rbp)
   12726:	48 c7 85 a8 f3 ff ff 	movq   $0x0,-0xc58(%rbp)
   1272d:	00 00 00 00 
   12731:	48 8d 85 e0 e7 ff ff 	lea    -0x1820(%rbp),%rax
   12738:	48 89 85 b0 f3 ff ff 	mov    %rax,-0xc50(%rbp)
   1273f:	48 c7 85 b8 f3 ff ff 	movq   $0x0,-0xc48(%rbp)
   12746:	00 00 00 00 
   1274a:	48 c7 85 c0 f3 ff ff 	movq   $0x0,-0xc40(%rbp)
   12751:	00 00 00 00 
   12755:	48 8d 85 e0 e7 ff ff 	lea    -0x1820(%rbp),%rax
   1275c:	48 89 85 c8 f3 ff ff 	mov    %rax,-0xc38(%rbp)
   12763:	48 c7 85 d0 f3 ff ff 	movq   $0x0,-0xc30(%rbp)
   1276a:	00 00 00 00 
   1276e:	48 c7 85 d8 f3 ff ff 	movq   $0x0,-0xc28(%rbp)
   12775:	00 00 00 00 
   12779:	48 c7 85 e0 f3 ff ff 	movq   $0x0,-0xc20(%rbp)
   12780:	00 00 00 00 
   12784:	48 c7 85 e8 f3 ff ff 	movq   $0x0,-0xc18(%rbp)
   1278b:	00 00 00 00 
   1278f:	48 8d 85 e0 e7 ff ff 	lea    -0x1820(%rbp),%rax
   12796:	48 89 85 f0 f3 ff ff 	mov    %rax,-0xc10(%rbp)
   1279d:	48 c7 85 f8 f3 ff ff 	movq   $0x0,-0xc08(%rbp)
   127a4:	00 00 00 00 
   127a8:	48 8d 85 e0 e7 ff ff 	lea    -0x1820(%rbp),%rax
   127af:	48 89 85 00 f4 ff ff 	mov    %rax,-0xc00(%rbp)
   127b6:	48 c7 85 08 f4 ff ff 	movq   $0x0,-0xbf8(%rbp)
   127bd:	00 00 00 00 
   127c1:	48 8d 85 e0 e7 ff ff 	lea    -0x1820(%rbp),%rax
   127c8:	48 89 85 10 f4 ff ff 	mov    %rax,-0xbf0(%rbp)
   127cf:	48 c7 85 18 f4 ff ff 	movq   $0x0,-0xbe8(%rbp)
   127d6:	00 00 00 00 
   127da:	48 c7 85 20 f4 ff ff 	movq   $0x0,-0xbe0(%rbp)
   127e1:	00 00 00 00 
   127e5:	48 c7 85 28 f4 ff ff 	movq   $0x0,-0xbd8(%rbp)
   127ec:	00 00 00 00 
   127f0:	48 8d 85 e0 e7 ff ff 	lea    -0x1820(%rbp),%rax
   127f7:	48 89 85 30 f4 ff ff 	mov    %rax,-0xbd0(%rbp)
   127fe:	48 8d 85 e0 e7 ff ff 	lea    -0x1820(%rbp),%rax
   12805:	48 89 85 38 f4 ff ff 	mov    %rax,-0xbc8(%rbp)
   1280c:	48 8d 85 e0 e7 ff ff 	lea    -0x1820(%rbp),%rax
   12813:	48 89 85 40 f4 ff ff 	mov    %rax,-0xbc0(%rbp)
   1281a:	48 8d 85 e0 e7 ff ff 	lea    -0x1820(%rbp),%rax
   12821:	48 89 85 48 f4 ff ff 	mov    %rax,-0xbb8(%rbp)
   12828:	48 c7 85 50 f4 ff ff 	movq   $0x0,-0xbb0(%rbp)
   1282f:	00 00 00 00 
   12833:	48 8d 85 e0 e7 ff ff 	lea    -0x1820(%rbp),%rax
   1283a:	48 89 85 58 f4 ff ff 	mov    %rax,-0xba8(%rbp)
   12841:	48 8d 85 e0 e7 ff ff 	lea    -0x1820(%rbp),%rax
   12848:	48 89 85 60 f4 ff ff 	mov    %rax,-0xba0(%rbp)
   1284f:	48 c7 85 68 f4 ff ff 	movq   $0x0,-0xb98(%rbp)
   12856:	00 00 00 00 
   1285a:	48 8d 85 e0 e7 ff ff 	lea    -0x1820(%rbp),%rax
   12861:	48 89 85 70 f4 ff ff 	mov    %rax,-0xb90(%rbp)
   12868:	48 c7 85 78 f4 ff ff 	movq   $0x0,-0xb88(%rbp)
   1286f:	00 00 00 00 
   12873:	48 c7 85 80 f4 ff ff 	movq   $0x0,-0xb80(%rbp)
   1287a:	00 00 00 00 
   1287e:	48 c7 85 88 f4 ff ff 	movq   $0x0,-0xb78(%rbp)
   12885:	00 00 00 00 
   12889:	48 8d 85 e0 e7 ff ff 	lea    -0x1820(%rbp),%rax
   12890:	48 89 85 90 f4 ff ff 	mov    %rax,-0xb70(%rbp)
   12897:	48 c7 85 98 f4 ff ff 	movq   $0x0,-0xb68(%rbp)
   1289e:	00 00 00 00 
   128a2:	48 c7 85 a0 f4 ff ff 	movq   $0x0,-0xb60(%rbp)
   128a9:	00 00 00 00 
   128ad:	48 c7 85 a8 f4 ff ff 	movq   $0x0,-0xb58(%rbp)
   128b4:	00 00 00 00 
   128b8:	48 8d 85 e0 e7 ff ff 	lea    -0x1820(%rbp),%rax
   128bf:	48 89 85 b0 f4 ff ff 	mov    %rax,-0xb50(%rbp)
   128c6:	48 c7 85 b8 f4 ff ff 	movq   $0x0,-0xb48(%rbp)
   128cd:	00 00 00 00 
   128d1:	48 c7 85 c0 f4 ff ff 	movq   $0x0,-0xb40(%rbp)
   128d8:	00 00 00 00 
   128dc:	48 c7 85 c8 f4 ff ff 	movq   $0x0,-0xb38(%rbp)
   128e3:	00 00 00 00 
   128e7:	48 8d 85 e0 e7 ff ff 	lea    -0x1820(%rbp),%rax
   128ee:	48 89 85 d0 f4 ff ff 	mov    %rax,-0xb30(%rbp)
   128f5:	48 c7 85 d8 f4 ff ff 	movq   $0x0,-0xb28(%rbp)
   128fc:	00 00 00 00 
   12900:	48 8d 85 e0 e7 ff ff 	lea    -0x1820(%rbp),%rax
   12907:	48 89 85 e0 f4 ff ff 	mov    %rax,-0xb20(%rbp)
   1290e:	48 c7 85 e8 f4 ff ff 	movq   $0x0,-0xb18(%rbp)
   12915:	00 00 00 00 
   12919:	48 8d 85 e0 e7 ff ff 	lea    -0x1820(%rbp),%rax
   12920:	48 89 85 f0 f4 ff ff 	mov    %rax,-0xb10(%rbp)
   12927:	48 c7 85 f8 f4 ff ff 	movq   $0x0,-0xb08(%rbp)
   1292e:	00 00 00 00 
   12932:	48 8d 85 e0 e7 ff ff 	lea    -0x1820(%rbp),%rax
   12939:	48 89 85 00 f5 ff ff 	mov    %rax,-0xb00(%rbp)
   12940:	48 8d 85 e0 e7 ff ff 	lea    -0x1820(%rbp),%rax
   12947:	48 89 85 08 f5 ff ff 	mov    %rax,-0xaf8(%rbp)
   1294e:	48 8d 85 e0 e7 ff ff 	lea    -0x1820(%rbp),%rax
   12955:	48 89 85 10 f5 ff ff 	mov    %rax,-0xaf0(%rbp)
   1295c:	48 8d 85 e0 e7 ff ff 	lea    -0x1820(%rbp),%rax
   12963:	48 89 85 18 f5 ff ff 	mov    %rax,-0xae8(%rbp)
   1296a:	48 c7 85 20 f5 ff ff 	movq   $0x0,-0xae0(%rbp)
   12971:	00 00 00 00 
   12975:	48 c7 85 28 f5 ff ff 	movq   $0x0,-0xad8(%rbp)
   1297c:	00 00 00 00 
   12980:	48 8d 85 e0 e7 ff ff 	lea    -0x1820(%rbp),%rax
   12987:	48 89 85 30 f5 ff ff 	mov    %rax,-0xad0(%rbp)
   1298e:	48 8d 85 e0 e7 ff ff 	lea    -0x1820(%rbp),%rax
   12995:	48 89 85 38 f5 ff ff 	mov    %rax,-0xac8(%rbp)
   1299c:	48 8d 85 e0 e7 ff ff 	lea    -0x1820(%rbp),%rax
   129a3:	48 89 85 40 f5 ff ff 	mov    %rax,-0xac0(%rbp)
   129aa:	48 c7 85 48 f5 ff ff 	movq   $0x0,-0xab8(%rbp)
   129b1:	00 00 00 00 
   129b5:	48 8d 85 e0 e7 ff ff 	lea    -0x1820(%rbp),%rax
   129bc:	48 89 85 50 f5 ff ff 	mov    %rax,-0xab0(%rbp)
   129c3:	48 8d 85 e0 e7 ff ff 	lea    -0x1820(%rbp),%rax
   129ca:	48 89 85 58 f5 ff ff 	mov    %rax,-0xaa8(%rbp)
   129d1:	48 c7 85 60 f5 ff ff 	movq   $0x0,-0xaa0(%rbp)
   129d8:	00 00 00 00 
   129dc:	48 c7 85 68 f5 ff ff 	movq   $0x0,-0xa98(%rbp)
   129e3:	00 00 00 00 
   129e7:	48 c7 85 70 f5 ff ff 	movq   $0x0,-0xa90(%rbp)
   129ee:	00 00 00 00 
   129f2:	48 8d 85 e0 e7 ff ff 	lea    -0x1820(%rbp),%rax
   129f9:	48 89 85 78 f5 ff ff 	mov    %rax,-0xa88(%rbp)
   12a00:	48 c7 85 80 f5 ff ff 	movq   $0x0,-0xa80(%rbp)
   12a07:	00 00 00 00 
   12a0b:	48 c7 85 88 f5 ff ff 	movq   $0x0,-0xa78(%rbp)
   12a12:	00 00 00 00 
   12a16:	48 8d 85 e0 e7 ff ff 	lea    -0x1820(%rbp),%rax
   12a1d:	48 89 85 90 f5 ff ff 	mov    %rax,-0xa70(%rbp)
   12a24:	48 8d 85 e0 e7 ff ff 	lea    -0x1820(%rbp),%rax
   12a2b:	48 89 85 98 f5 ff ff 	mov    %rax,-0xa68(%rbp)
   12a32:	48 8d 85 e0 e7 ff ff 	lea    -0x1820(%rbp),%rax
   12a39:	48 89 85 a0 f5 ff ff 	mov    %rax,-0xa60(%rbp)
   12a40:	48 c7 85 a8 f5 ff ff 	movq   $0x0,-0xa58(%rbp)
   12a47:	00 00 00 00 
   12a4b:	48 8b 85 b8 e6 ff ff 	mov    -0x1948(%rbp),%rax
   12a52:	48 8b 18             	mov    (%rax),%rbx
   12a55:	8b 85 b4 e6 ff ff    	mov    -0x194c(%rbp),%eax
   12a5b:	44 0f bf e0          	movswl %ax,%r12d
   12a5f:	48 8b 85 20 e9 ff ff 	mov    -0x16e0(%rbp),%rax
   12a66:	89 85 b0 e6 ff ff    	mov    %eax,-0x1950(%rbp)
   12a6c:	44 0f be ad d7 e6 ff 	movsbl -0x1929(%rbp),%r13d
   12a73:	ff 
   12a74:	48 8b 85 50 e8 ff ff 	mov    -0x17b0(%rbp),%rax
   12a7b:	44 8b 38             	mov    (%rax),%r15d
   12a7e:	8b 85 c4 f5 ff ff    	mov    -0xa3c(%rbp),%eax
   12a84:	44 0f be f0          	movsbl %al,%r14d
   12a88:	8b 85 88 ea ff ff    	mov    -0x1578(%rbp),%eax
   12a8e:	89 05 78 d2 00 00    	mov    %eax,0xd278(%rip)        # 1fd0c <g_155+0x2c>
   12a94:	48 8b 85 e0 e7 ff ff 	mov    -0x1820(%rbp),%rax
   12a9b:	48 89 05 ee f9 00 00 	mov    %rax,0xf9ee(%rip)        # 22490 <g_451>
   12aa2:	48 8b 15 e7 f9 00 00 	mov    0xf9e7(%rip),%rdx        # 22490 <g_451>
   12aa9:	48 8b 05 a8 f9 00 00 	mov    0xf9a8(%rip),%rax        # 22458 <g_295>
   12ab0:	48 39 c2             	cmp    %rax,%rdx
   12ab3:	0f 95 c0             	setne  %al
   12ab6:	0f b6 d0             	movzbl %al,%edx
   12ab9:	0f b6 05 2a d3 00 00 	movzbl 0xd32a(%rip),%eax        # 1fdea <g_236+0x4a>
   12ac0:	31 d0                	xor    %edx,%eax
   12ac2:	88 05 22 d3 00 00    	mov    %al,0xd322(%rip)        # 1fdea <g_236+0x4a>
   12ac8:	0f b6 05 1b d3 00 00 	movzbl 0xd31b(%rip),%eax        # 1fdea <g_236+0x4a>
   12acf:	0f be d0             	movsbl %al,%edx
   12ad2:	48 8b 05 e7 d1 00 00 	mov    0xd1e7(%rip),%rax        # 1fcc0 <g_152>
   12ad9:	48 85 c0             	test   %rax,%rax
   12adc:	0f 95 c0             	setne  %al
   12adf:	0f b6 c0             	movzbl %al,%eax
   12ae2:	31 d0                	xor    %edx,%eax
   12ae4:	be 30 c1 3d 2f       	mov    $0x2f3dc130,%esi
   12ae9:	89 c7                	mov    %eax,%edi
   12aeb:	e8 15 2b ff ff       	callq  5605 <safe_sub_func_int32_t_s_s>
   12af0:	89 85 34 e7 ff ff    	mov    %eax,-0x18cc(%rbp)
   12af6:	8b 85 34 e7 ff ff    	mov    -0x18cc(%rbp),%eax
   12afc:	0f be c0             	movsbl %al,%eax
   12aff:	44 89 f6             	mov    %r14d,%esi
   12b02:	89 c7                	mov    %eax,%edi
   12b04:	e8 cb 26 ff ff       	callq  51d4 <safe_add_func_int8_t_s_s>
   12b09:	0f be c0             	movsbl %al,%eax
   12b0c:	89 c6                	mov    %eax,%esi
   12b0e:	bf 00 00 00 00       	mov    $0x0,%edi
   12b13:	e8 da 26 ff ff       	callq  51f2 <safe_sub_func_int8_t_s_s>
   12b18:	0f be d0             	movsbl %al,%edx
   12b1b:	8b 85 c8 e6 ff ff    	mov    -0x1938(%rbp),%eax
   12b21:	89 d6                	mov    %edx,%esi
   12b23:	89 c7                	mov    %eax,%edi
   12b25:	e8 db 2a ff ff       	callq  5605 <safe_sub_func_int32_t_s_s>
   12b2a:	41 39 c7             	cmp    %eax,%r15d
   12b2d:	0f 9f c2             	setg   %dl
   12b30:	48 8b 85 b8 e7 ff ff 	mov    -0x1848(%rbp),%rax
   12b37:	0f b6 d2             	movzbl %dl,%edx
   12b3a:	89 10                	mov    %edx,(%rax)
   12b3c:	8b 00                	mov    (%rax),%eax
   12b3e:	44 89 ee             	mov    %r13d,%esi
   12b41:	89 c7                	mov    %eax,%edi
   12b43:	e8 dd 33 ff ff       	callq  5f25 <safe_div_func_uint32_t_u_u>
   12b48:	8b 05 e6 cc 00 00    	mov    0xcce6(%rip),%eax        # 1f834 <g_142+0x354>
   12b4e:	c1 e0 08             	shl    $0x8,%eax
   12b51:	c1 f8 08             	sar    $0x8,%eax
   12b54:	39 85 6c e7 ff ff    	cmp    %eax,-0x1894(%rbp)
   12b5a:	0f 9d c0             	setge  %al
   12b5d:	0f b6 c0             	movzbl %al,%eax
   12b60:	8b b5 b0 e6 ff ff    	mov    -0x1950(%rbp),%esi
   12b66:	89 c7                	mov    %eax,%edi
   12b68:	e8 25 29 ff ff       	callq  5492 <safe_lshift_func_int16_t_s_s>
   12b6d:	66 25 fd 00          	and    $0xfd,%ax
   12b71:	89 c2                	mov    %eax,%edx
   12b73:	8b 05 bf d2 00 00    	mov    0xd2bf(%rip),%eax        # 1fe38 <g_253>
   12b79:	21 d0                	and    %edx,%eax
   12b7b:	98                   	cwtl   
   12b7c:	44 89 e6             	mov    %r12d,%esi
   12b7f:	89 c7                	mov    %eax,%edi
   12b81:	e8 cf 28 ff ff       	callq  5455 <safe_div_func_int16_t_s_s>
   12b86:	48 0f bf c0          	movswq %ax,%rax
   12b8a:	48 89 de             	mov    %rbx,%rsi
   12b8d:	48 89 c7             	mov    %rax,%rdi
   12b90:	e8 13 2d ff ff       	callq  58a8 <safe_sub_func_int64_t_s_s>
   12b95:	0f be d0             	movsbl %al,%edx
   12b98:	48 8b 85 70 e9 ff ff 	mov    -0x1690(%rbp),%rax
   12b9f:	0f be c0             	movsbl %al,%eax
   12ba2:	89 d6                	mov    %edx,%esi
   12ba4:	89 c7                	mov    %eax,%edi
   12ba6:	e8 67 26 ff ff       	callq  5212 <safe_mul_func_int8_t_s_s>
   12bab:	0f be d0             	movsbl %al,%edx
   12bae:	8b 85 b4 e6 ff ff    	mov    -0x194c(%rbp),%eax
   12bb4:	39 c2                	cmp    %eax,%edx
   12bb6:	0f 9d c0             	setge  %al
   12bb9:	0f b6 c0             	movzbl %al,%eax
   12bbc:	89 85 b4 e6 ff ff    	mov    %eax,-0x194c(%rbp)
   12bc2:	8b 85 04 ea ff ff    	mov    -0x15fc(%rbp),%eax
   12bc8:	85 c0                	test   %eax,%eax
   12bca:	0f 85 4d 01 00 00    	jne    12d1d <func_62+0x397b>
   12bd0:	8b 85 c8 e6 ff ff    	mov    -0x1938(%rbp),%eax
   12bd6:	89 c2                	mov    %eax,%edx
   12bd8:	8b 85 cc e6 ff ff    	mov    -0x1934(%rbp),%eax
   12bde:	09 d0                	or     %edx,%eax
   12be0:	89 85 c8 e6 ff ff    	mov    %eax,-0x1938(%rbp)
   12be6:	48 8b 85 b8 e6 ff ff 	mov    -0x1948(%rbp),%rax
   12bed:	48 8b 00             	mov    (%rax),%rax
   12bf0:	48 83 f0 05          	xor    $0x5,%rax
   12bf4:	48 89 c2             	mov    %rax,%rdx
   12bf7:	48 8b 85 b8 e6 ff ff 	mov    -0x1948(%rbp),%rax
   12bfe:	48 89 10             	mov    %rdx,(%rax)
   12c01:	8b 85 5c e7 ff ff    	mov    -0x18a4(%rbp),%eax
   12c07:	0f b6 d8             	movzbl %al,%ebx
   12c0a:	be 0a 00 00 00       	mov    $0xa,%esi
   12c0f:	bf 05 00 00 00       	mov    $0x5,%edi
   12c14:	e8 61 32 ff ff       	callq  5e7a <safe_rshift_func_uint16_t_u_u>
   12c19:	0f b6 15 5c d1 00 00 	movzbl 0xd15c(%rip),%edx        # 1fd7c <g_155+0x9c>
   12c20:	31 d0                	xor    %edx,%eax
   12c22:	88 05 54 d1 00 00    	mov    %al,0xd154(%rip)        # 1fd7c <g_155+0x9c>
   12c28:	0f b6 05 4d d1 00 00 	movzbl 0xd14d(%rip),%eax        # 1fd7c <g_155+0x9c>
   12c2f:	0f b6 c0             	movzbl %al,%eax
   12c32:	89 de                	mov    %ebx,%esi
   12c34:	89 c7                	mov    %eax,%edi
   12c36:	e8 58 2f ff ff       	callq  5b93 <safe_mul_func_uint8_t_u_u>
   12c3b:	c7 85 78 e7 ff ff 00 	movl   $0x0,-0x1888(%rbp)
   12c42:	00 00 00 
   12c45:	48 8b 95 e8 e7 ff ff 	mov    -0x1818(%rbp),%rdx
   12c4c:	48 8b 85 60 e9 ff ff 	mov    -0x16a0(%rbp),%rax
   12c53:	48 89 10             	mov    %rdx,(%rax)
   12c56:	48 8b 85 60 e9 ff ff 	mov    -0x16a0(%rbp),%rax
   12c5d:	48 8b 10             	mov    (%rax),%rdx
   12c60:	48 8b 85 d8 ea ff ff 	mov    -0x1528(%rbp),%rax
   12c67:	48 39 c2             	cmp    %rax,%rdx
   12c6a:	0f 95 c0             	setne  %al
   12c6d:	0f b6 c0             	movzbl %al,%eax
   12c70:	be 00 00 00 00       	mov    $0x0,%esi
   12c75:	89 c7                	mov    %eax,%edi
   12c77:	e8 83 30 ff ff       	callq  5cff <safe_add_func_uint16_t_u_u>
   12c7c:	0f b7 d0             	movzwl %ax,%edx
   12c7f:	8b 85 b4 e6 ff ff    	mov    -0x194c(%rbp),%eax
   12c85:	09 d0                	or     %edx,%eax
   12c87:	3d d6 1f 00 00       	cmp    $0x1fd6,%eax
   12c8c:	48 8b 85 b8 e6 ff ff 	mov    -0x1948(%rbp),%rax
   12c93:	48 8b 00             	mov    (%rax),%rax
   12c96:	48 f7 d0             	not    %rax
   12c99:	48 89 c2             	mov    %rax,%rdx
   12c9c:	48 8b 05 cd e8 00 00 	mov    0xe8cd(%rip),%rax        # 21570 <g_260>
   12ca3:	0f b7 00             	movzwl (%rax),%eax
   12ca6:	0f b7 c0             	movzwl %ax,%eax
   12ca9:	48 39 c2             	cmp    %rax,%rdx
   12cac:	0f 9c c0             	setl   %al
   12caf:	0f b6 c0             	movzbl %al,%eax
   12cb2:	89 85 b4 e6 ff ff    	mov    %eax,-0x194c(%rbp)
   12cb8:	8b 85 b4 e6 ff ff    	mov    -0x194c(%rbp),%eax
   12cbe:	89 85 c8 e6 ff ff    	mov    %eax,-0x1938(%rbp)
   12cc4:	48 c7 05 61 d1 00 00 	movq   $0x0,0xd161(%rip)        # 1fe30 <g_251>
   12ccb:	00 00 00 00 
   12ccf:	eb 3b                	jmp    12d0c <func_62+0x396a>
   12cd1:	c7 85 90 e7 ff ff 05 	movl   $0x5,-0x1870(%rbp)
   12cd8:	00 00 00 
   12cdb:	48 8b 05 86 d1 00 00 	mov    0xd186(%rip),%rax        # 1fe68 <g_471>
   12ce2:	48 83 e8 01          	sub    $0x1,%rax
   12ce6:	48 89 05 7b d1 00 00 	mov    %rax,0xd17b(%rip)        # 1fe68 <g_471>
   12ced:	48 8b 85 50 e8 ff ff 	mov    -0x17b0(%rbp),%rax
   12cf4:	c7 00 83 ec 92 be    	movl   $0xbe92ec83,(%rax)
   12cfa:	48 8b 05 2f d1 00 00 	mov    0xd12f(%rip),%rax        # 1fe30 <g_251>
   12d01:	48 83 e8 01          	sub    $0x1,%rax
   12d05:	48 89 05 24 d1 00 00 	mov    %rax,0xd124(%rip)        # 1fe30 <g_251>
   12d0c:	48 8b 05 1d d1 00 00 	mov    0xd11d(%rip),%rax        # 1fe30 <g_251>
   12d13:	48 85 c0             	test   %rax,%rax
   12d16:	79 b9                	jns    12cd1 <func_62+0x392f>
   12d18:	eb 04                	jmp    12d1e <func_62+0x397c>
   12d1a:	90                   	nop
   12d1b:	eb 01                	jmp    12d1e <func_62+0x397c>
   12d1d:	90                   	nop
   12d1e:	0f b6 05 13 c3 00 00 	movzbl 0xc313(%rip),%eax        # 1f038 <g_82>
   12d25:	83 c0 01             	add    $0x1,%eax
   12d28:	88 05 0a c3 00 00    	mov    %al,0xc30a(%rip)        # 1f038 <g_82>
   12d2e:	0f b6 05 03 c3 00 00 	movzbl 0xc303(%rip),%eax        # 1f038 <g_82>
   12d35:	84 c0                	test   %al,%al
   12d37:	0f 84 d9 e3 ff ff    	je     11116 <func_62+0x1d74>
   12d3d:	be 00 00 00 00       	mov    $0x0,%esi
   12d42:	bf ff 00 00 00       	mov    $0xff,%edi
   12d47:	e8 72 2f ff ff       	callq  5cbe <safe_rshift_func_uint8_t_u_u>
   12d4c:	48 8b 85 f8 e8 ff ff 	mov    -0x1708(%rbp),%rax
   12d53:	48 8b 10             	mov    (%rax),%rdx
   12d56:	0f b7 05 d1 ca 00 00 	movzwl 0xcad1(%rip),%eax        # 1f82e <g_142+0x34e>
   12d5d:	0f b7 0d cc ca 00 00 	movzwl 0xcacc(%rip),%ecx        # 1f830 <g_142+0x350>
   12d64:	81 e1 ff 03 00 00    	and    $0x3ff,%ecx
   12d6a:	48 c1 e1 10          	shl    $0x10,%rcx
   12d6e:	48 09 c8             	or     %rcx,%rax
   12d71:	48 c1 e0 26          	shl    $0x26,%rax
   12d75:	48 c1 f8 26          	sar    $0x26,%rax
   12d79:	48 98                	cltq   
   12d7b:	48 21 c2             	and    %rax,%rdx
   12d7e:	48 8b 85 f8 e8 ff ff 	mov    -0x1708(%rbp),%rax
   12d85:	48 89 10             	mov    %rdx,(%rax)
   12d88:	48 8b 85 f8 e8 ff ff 	mov    -0x1708(%rbp),%rax
   12d8f:	4c 8b 20             	mov    (%rax),%r12
   12d92:	48 8b 85 70 e8 ff ff 	mov    -0x1790(%rbp),%rax
   12d99:	0f be d8             	movsbl %al,%ebx
   12d9c:	0f be 85 d7 e6 ff ff 	movsbl -0x1929(%rbp),%eax
   12da3:	89 c6                	mov    %eax,%esi
   12da5:	bf e6 00 00 00       	mov    $0xe6,%edi
   12daa:	e8 de 2e ff ff       	callq  5c8d <safe_rshift_func_uint8_t_u_s>
   12daf:	0f be c0             	movsbl %al,%eax
   12db2:	89 de                	mov    %ebx,%esi
   12db4:	89 c7                	mov    %eax,%edi
   12db6:	e8 af 24 ff ff       	callq  526a <safe_div_func_int8_t_s_s>
   12dbb:	66 98                	cbtw   
   12dbd:	66 89 05 d0 cf 00 00 	mov    %ax,0xcfd0(%rip)        # 1fd94 <g_160>
   12dc4:	0f b7 05 c9 cf 00 00 	movzwl 0xcfc9(%rip),%eax        # 1fd94 <g_160>
   12dcb:	0f bf d0             	movswl %ax,%edx
   12dce:	8b 85 cc e6 ff ff    	mov    -0x1934(%rbp),%eax
   12dd4:	31 d0                	xor    %edx,%eax
   12dd6:	89 c0                	mov    %eax,%eax
   12dd8:	49 39 c4             	cmp    %rax,%r12
   12ddb:	0f 93 c0             	setae  %al
   12dde:	0f b6 c0             	movzbl %al,%eax
   12de1:	89 85 0c f9 ff ff    	mov    %eax,-0x6f4(%rbp)
   12de7:	8b 85 0c f9 ff ff    	mov    -0x6f4(%rbp),%eax
   12ded:	83 f8 ff             	cmp    $0xffffffff,%eax
   12df0:	0f 84 83 05 00 00    	je     13379 <func_62+0x3fd7>
   12df6:	c7 85 98 e7 ff ff 30 	movl   $0xed378630,-0x1868(%rbp)
   12dfd:	86 37 ed 
   12e00:	48 8d 85 18 e8 ff ff 	lea    -0x17e8(%rbp),%rax
   12e07:	48 89 85 80 e9 ff ff 	mov    %rax,-0x1680(%rbp)
   12e0e:	48 8d 85 70 f9 ff ff 	lea    -0x690(%rbp),%rax
   12e15:	48 8d 15 e4 81 00 00 	lea    0x81e4(%rip),%rdx        # 1b000 <g_2129+0x1b40>
   12e1c:	b9 46 00 00 00       	mov    $0x46,%ecx
   12e21:	48 89 c7             	mov    %rax,%rdi
   12e24:	48 89 d6             	mov    %rdx,%rsi
   12e27:	f3 48 a5             	rep movsq %ds:(%rsi),%es:(%rdi)
   12e2a:	c7 85 14 e7 ff ff 00 	movl   $0x0,-0x18ec(%rbp)
   12e31:	00 00 00 
   12e34:	eb 1e                	jmp    12e54 <func_62+0x3ab2>
   12e36:	8b 85 14 e7 ff ff    	mov    -0x18ec(%rbp),%eax
   12e3c:	48 98                	cltq   
   12e3e:	48 8d 95 00 e7 ff ff 	lea    -0x1900(%rbp),%rdx
   12e45:	48 89 94 c5 10 f3 ff 	mov    %rdx,-0xcf0(%rbp,%rax,8)
   12e4c:	ff 
   12e4d:	83 85 14 e7 ff ff 01 	addl   $0x1,-0x18ec(%rbp)
   12e54:	83 bd 14 e7 ff ff 07 	cmpl   $0x7,-0x18ec(%rbp)
   12e5b:	7e d9                	jle    12e36 <func_62+0x3a94>
   12e5d:	48 8d 05 d4 c1 00 00 	lea    0xc1d4(%rip),%rax        # 1f038 <g_82>
   12e64:	48 39 85 28 e9 ff ff 	cmp    %rax,-0x16d8(%rbp)
   12e6b:	0f 95 c0             	setne  %al
   12e6e:	44 0f b6 f0          	movzbl %al,%r14d
   12e72:	8b 85 c8 e6 ff ff    	mov    -0x1938(%rbp),%eax
   12e78:	41 89 c7             	mov    %eax,%r15d
   12e7b:	48 8b 05 ae cf 00 00 	mov    0xcfae(%rip),%rax        # 1fe30 <g_251>
   12e82:	89 85 b0 e6 ff ff    	mov    %eax,-0x1950(%rbp)
   12e88:	8b 9d 5c fa ff ff    	mov    -0x5a4(%rbp),%ebx
   12e8e:	8b 85 b4 e6 ff ff    	mov    -0x194c(%rbp),%eax
   12e94:	89 85 ac e6 ff ff    	mov    %eax,-0x1954(%rbp)
   12e9a:	48 8b 85 c0 e6 ff ff 	mov    -0x1940(%rbp),%rax
   12ea1:	4c 8b 20             	mov    (%rax),%r12
   12ea4:	48 8b 85 c0 e6 ff ff 	mov    -0x1940(%rbp),%rax
   12eab:	48 8b 00             	mov    (%rax),%rax
   12eae:	48 89 85 a0 e6 ff ff 	mov    %rax,-0x1960(%rbp)
   12eb5:	48 8b 95 18 e8 ff ff 	mov    -0x17e8(%rbp),%rdx
   12ebc:	48 8b 85 80 e9 ff ff 	mov    -0x1680(%rbp),%rax
   12ec3:	48 89 10             	mov    %rdx,(%rax)
   12ec6:	48 8b 85 80 e9 ff ff 	mov    -0x1680(%rbp),%rax
   12ecd:	48 8b 00             	mov    (%rax),%rax
   12ed0:	48 39 85 50 e9 ff ff 	cmp    %rax,-0x16b0(%rbp)
   12ed7:	0f 94 85 ab e6 ff ff 	sete   -0x1955(%rbp)
   12ede:	48 8b 05 8b e6 00 00 	mov    0xe68b(%rip),%rax        # 21570 <g_260>
   12ee5:	0f b7 00             	movzwl (%rax),%eax
   12ee8:	44 0f bf e8          	movswl %ax,%r13d
   12eec:	8b 85 cc e6 ff ff    	mov    -0x1934(%rbp),%eax
   12ef2:	be cc 7d 57 ae       	mov    $0xae577dcc,%esi
   12ef7:	89 c7                	mov    %eax,%edi
   12ef9:	e8 01 28 ff ff       	callq  56ff <safe_div_func_int32_t_s_s>
   12efe:	98                   	cwtl   
   12eff:	44 89 ee             	mov    %r13d,%esi
   12f02:	89 c7                	mov    %eax,%edi
   12f04:	e8 4c 25 ff ff       	callq  5455 <safe_div_func_int16_t_s_s>
   12f09:	66 83 f8 07          	cmp    $0x7,%ax
   12f0d:	0f 96 c0             	setbe  %al
   12f10:	32 85 ab e6 ff ff    	xor    -0x1955(%rbp),%al
   12f16:	0f b6 c0             	movzbl %al,%eax
   12f19:	48 89 c7             	mov    %rax,%rdi
   12f1c:	e8 f5 28 ff ff       	callq  5816 <safe_unary_minus_func_int64_t_s>
   12f21:	89 c2                	mov    %eax,%edx
   12f23:	48 8b 85 50 e8 ff ff 	mov    -0x17b0(%rbp),%rax
   12f2a:	89 10                	mov    %edx,(%rax)
   12f2c:	48 8b b5 a0 e6 ff ff 	mov    -0x1960(%rbp),%rsi
   12f33:	48 c7 c7 ff ff ff ff 	mov    $0xffffffffffffffff,%rdi
   12f3a:	e8 ef 30 ff ff       	callq  602e <safe_add_func_uint64_t_u_u>
   12f3f:	48 8b 15 2a e6 00 00 	mov    0xe62a(%rip),%rdx        # 21570 <g_260>
   12f46:	0f b7 12             	movzwl (%rdx),%edx
   12f49:	0f b7 d2             	movzwl %dx,%edx
   12f4c:	48 39 d0             	cmp    %rdx,%rax
   12f4f:	0f 93 c0             	setae  %al
   12f52:	0f b6 d0             	movzbl %al,%edx
   12f55:	8b 85 b4 e6 ff ff    	mov    -0x194c(%rbp),%eax
   12f5b:	31 d0                	xor    %edx,%eax
   12f5d:	83 f8 ff             	cmp    $0xffffffff,%eax
   12f60:	0f 9d c0             	setge  %al
   12f63:	0f b6 d0             	movzbl %al,%edx
   12f66:	0f be 85 d8 e6 ff ff 	movsbl -0x1928(%rbp),%eax
   12f6d:	39 c2                	cmp    %eax,%edx
   12f6f:	0f 94 c0             	sete   %al
   12f72:	0f b6 c0             	movzbl %al,%eax
   12f75:	4c 89 e6             	mov    %r12,%rsi
   12f78:	48 89 c7             	mov    %rax,%rdi
   12f7b:	e8 77 2a ff ff       	callq  59f7 <safe_div_func_int64_t_s_s>
   12f80:	8b b5 ac e6 ff ff    	mov    -0x1954(%rbp),%esi
   12f86:	89 c7                	mov    %eax,%edi
   12f88:	e8 70 2f ff ff       	callq  5efd <safe_mod_func_uint32_t_u_u>
   12f8d:	89 de                	mov    %ebx,%esi
   12f8f:	bf 7e b0 bc ec       	mov    $0xecbcb07e,%edi
   12f94:	e8 37 2f ff ff       	callq  5ed0 <safe_sub_func_uint32_t_u_u>
   12f99:	8b 95 b4 e6 ff ff    	mov    -0x194c(%rbp),%edx
   12f9f:	39 d0                	cmp    %edx,%eax
   12fa1:	0f 95 c0             	setne  %al
   12fa4:	0f b6 c0             	movzbl %al,%eax
   12fa7:	8b b5 b0 e6 ff ff    	mov    -0x1950(%rbp),%esi
   12fad:	89 c7                	mov    %eax,%edi
   12faf:	e8 76 25 ff ff       	callq  552a <safe_rshift_func_int16_t_s_s>
   12fb4:	81 bd 98 e7 ff ff ff 	cmpl   $0xff,-0x1868(%rbp)
   12fbb:	00 00 00 
   12fbe:	0f 94 c0             	sete   %al
   12fc1:	0f b6 c0             	movzbl %al,%eax
   12fc4:	44 89 fe             	mov    %r15d,%esi
   12fc7:	89 c7                	mov    %eax,%edi
   12fc9:	e8 13 25 ff ff       	callq  54e1 <safe_lshift_func_int16_t_s_u>
   12fce:	98                   	cwtl   
   12fcf:	41 39 c6             	cmp    %eax,%r14d
   12fd2:	0f 85 15 02 00 00    	jne    131ed <func_62+0x3e4b>
   12fd8:	c7 85 9c e7 ff ff 9c 	movl   $0x2d31ff9c,-0x1864(%rbp)
   12fdf:	ff 31 2d 
   12fe2:	48 8b 85 30 e8 ff ff 	mov    -0x17d0(%rbp),%rax
   12fe9:	48 8d 95 c8 e6 ff ff 	lea    -0x1938(%rbp),%rdx
   12ff0:	48 89 10             	mov    %rdx,(%rax)
   12ff3:	8b 85 c8 e6 ff ff    	mov    -0x1938(%rbp),%eax
   12ff9:	0f b6 d8             	movzbl %al,%ebx
   12ffc:	48 8b 05 2d c0 00 00 	mov    0xc02d(%rip),%rax        # 1f030 <g_42>
   13003:	48 89 c7             	mov    %rax,%rdi
   13006:	e8 0e 30 ff ff       	callq  6019 <safe_unary_minus_func_uint64_t_u>
   1300b:	48 85 c0             	test   %rax,%rax
   1300e:	0f 85 27 01 00 00    	jne    1313b <func_62+0x3d99>
   13014:	8b 85 cc e6 ff ff    	mov    -0x1934(%rbp),%eax
   1301a:	89 c2                	mov    %eax,%edx
   1301c:	48 8b 85 50 e8 ff ff 	mov    -0x17b0(%rbp),%rax
   13023:	89 10                	mov    %edx,(%rax)
   13025:	48 8b 85 50 e8 ff ff 	mov    -0x17b0(%rbp),%rax
   1302c:	8b 00                	mov    (%rax),%eax
   1302e:	85 c0                	test   %eax,%eax
   13030:	0f 84 0c 01 00 00    	je     13142 <func_62+0x3da0>
   13036:	48 8b 05 03 ce 00 00 	mov    0xce03(%rip),%rax        # 1fe40 <g_277>
   1303d:	48 c1 e0 10          	shl    $0x10,%rax
   13041:	48 c1 f8 23          	sar    $0x23,%rax
   13045:	44 0f b7 e0          	movzwl %ax,%r12d
   13049:	48 8b 05 30 e5 00 00 	mov    0xe530(%rip),%rax        # 21580 <g_376>
   13050:	48 8b 00             	mov    (%rax),%rax
   13053:	0f b6 00             	movzbl (%rax),%eax
   13056:	0f be c0             	movsbl %al,%eax
   13059:	89 c6                	mov    %eax,%esi
   1305b:	bf 01 00 00 00       	mov    $0x1,%edi
   13060:	e8 a0 2b ff ff       	callq  5c05 <safe_lshift_func_uint8_t_u_s>
   13065:	0f b6 c0             	movzbl %al,%eax
   13068:	44 89 e6             	mov    %r12d,%esi
   1306b:	89 c7                	mov    %eax,%edi
   1306d:	e8 1c 2d ff ff       	callq  5d8e <safe_div_func_uint16_t_u_u>
   13072:	0f b7 c0             	movzwl %ax,%eax
   13075:	39 85 9c e7 ff ff    	cmp    %eax,-0x1864(%rbp)
   1307b:	0f 94 c0             	sete   %al
   1307e:	0f b6 c0             	movzbl %al,%eax
   13081:	89 85 0c f9 ff ff    	mov    %eax,-0x6f4(%rbp)
   13087:	8b 95 0c f9 ff ff    	mov    -0x6f4(%rbp),%edx
   1308d:	8b 85 c8 e6 ff ff    	mov    -0x1938(%rbp),%eax
   13093:	39 c2                	cmp    %eax,%edx
   13095:	0f 95 c0             	setne  %al
   13098:	0f b6 c0             	movzbl %al,%eax
   1309b:	be ff 00 00 00       	mov    $0xff,%esi
   130a0:	89 c7                	mov    %eax,%edi
   130a2:	e8 d1 2a ff ff       	callq  5b78 <safe_sub_func_uint8_t_u_u>
   130a7:	0f b6 d0             	movzbl %al,%edx
   130aa:	48 8b 85 b8 e6 ff ff 	mov    -0x1948(%rbp),%rax
   130b1:	48 89 10             	mov    %rdx,(%rax)
   130b4:	48 8b 85 b8 e6 ff ff 	mov    -0x1948(%rbp),%rax
   130bb:	48 8b 00             	mov    (%rax),%rax
   130be:	48 89 c2             	mov    %rax,%rdx
   130c1:	48 8b 05 f8 c3 00 00 	mov    0xc3f8(%rip),%rax        # 1f4c0 <g_140>
   130c8:	48 89 d6             	mov    %rdx,%rsi
   130cb:	48 89 c7             	mov    %rax,%rdi
   130ce:	e8 ad 2f ff ff       	callq  6080 <safe_mod_func_uint64_t_u_u>
   130d3:	0f be d0             	movsbl %al,%edx
   130d6:	8b 85 cc e6 ff ff    	mov    -0x1934(%rbp),%eax
   130dc:	0f be c0             	movsbl %al,%eax
   130df:	89 d6                	mov    %edx,%esi
   130e1:	89 c7                	mov    %eax,%edi
   130e3:	e8 49 21 ff ff       	callq  5231 <safe_mod_func_int8_t_s_s>
   130e8:	89 c2                	mov    %eax,%edx
   130ea:	48 8b 05 8f e4 00 00 	mov    0xe48f(%rip),%rax        # 21580 <g_376>
   130f1:	48 8b 00             	mov    (%rax),%rax
   130f4:	0f b6 00             	movzbl (%rax),%eax
   130f7:	31 d0                	xor    %edx,%eax
   130f9:	0f be c0             	movsbl %al,%eax
   130fc:	89 c6                	mov    %eax,%esi
   130fe:	bf 00 00 00 00       	mov    $0x0,%edi
   13103:	e8 62 21 ff ff       	callq  526a <safe_div_func_int8_t_s_s>
   13108:	8b 85 98 e7 ff ff    	mov    -0x1868(%rbp),%eax
   1310e:	89 c6                	mov    %eax,%esi
   13110:	bf ea 23 c1 17       	mov    $0x17c123ea,%edi
   13115:	e8 9c 24 ff ff       	callq  55b6 <safe_add_func_int32_t_s_s>
   1311a:	48 8b 15 4f e4 00 00 	mov    0xe44f(%rip),%rdx        # 21570 <g_260>
   13121:	0f b7 12             	movzwl (%rdx),%edx
   13124:	0f b7 d2             	movzwl %dx,%edx
   13127:	39 d0                	cmp    %edx,%eax
   13129:	0f b7 05 28 cd 00 00 	movzwl 0xcd28(%rip),%eax        # 1fe58 <g_277+0x18>
   13130:	66 c1 e8 05          	shr    $0x5,%ax
   13134:	80 e4 ff             	and    $0xff,%ah
   13137:	84 c0                	test   %al,%al
   13139:	74 07                	je     13142 <func_62+0x3da0>
   1313b:	b8 01 00 00 00       	mov    $0x1,%eax
   13140:	eb 05                	jmp    13147 <func_62+0x3da5>
   13142:	b8 00 00 00 00       	mov    $0x0,%eax
   13147:	0f b6 c0             	movzbl %al,%eax
   1314a:	89 de                	mov    %ebx,%esi
   1314c:	89 c7                	mov    %eax,%edi
   1314e:	e8 88 2a ff ff       	callq  5bdb <safe_div_func_uint8_t_u_u>
   13153:	8b 95 c8 e6 ff ff    	mov    -0x1938(%rbp),%edx
   13159:	8b 85 b4 e6 ff ff    	mov    -0x194c(%rbp),%eax
   1315f:	39 c2                	cmp    %eax,%edx
   13161:	0f 9e c0             	setle  %al
   13164:	0f b6 d0             	movzbl %al,%edx
   13167:	8b 85 b4 e6 ff ff    	mov    -0x194c(%rbp),%eax
   1316d:	21 c2                	and    %eax,%edx
   1316f:	0f b6 05 74 cc 00 00 	movzbl 0xcc74(%rip),%eax        # 1fdea <g_236+0x4a>
   13176:	0f be c0             	movsbl %al,%eax
   13179:	39 c2                	cmp    %eax,%edx
   1317b:	0f 9f c0             	setg   %al
   1317e:	0f b6 c0             	movzbl %al,%eax
   13181:	be f6 00 00 00       	mov    $0xf6,%esi
   13186:	89 c7                	mov    %eax,%edi
   13188:	e8 21 2a ff ff       	callq  5bae <safe_mod_func_uint8_t_u_u>
   1318d:	0f b6 d0             	movzbl %al,%edx
   13190:	8b 85 c8 e6 ff ff    	mov    -0x1938(%rbp),%eax
   13196:	39 c2                	cmp    %eax,%edx
   13198:	74 11                	je     131ab <func_62+0x3e09>
   1319a:	8b 85 c8 e6 ff ff    	mov    -0x1938(%rbp),%eax
   131a0:	85 c0                	test   %eax,%eax
   131a2:	74 07                	je     131ab <func_62+0x3e09>
   131a4:	ba 01 00 00 00       	mov    $0x1,%edx
   131a9:	eb 05                	jmp    131b0 <func_62+0x3e0e>
   131ab:	ba 00 00 00 00       	mov    $0x0,%edx
   131b0:	8b 85 c8 e6 ff ff    	mov    -0x1938(%rbp),%eax
   131b6:	39 c2                	cmp    %eax,%edx
   131b8:	74 07                	je     131c1 <func_62+0x3e1f>
   131ba:	b8 01 00 00 00       	mov    $0x1,%eax
   131bf:	eb 05                	jmp    131c6 <func_62+0x3e24>
   131c1:	b8 00 00 00 00       	mov    $0x0,%eax
   131c6:	89 c2                	mov    %eax,%edx
   131c8:	0f b6 85 d9 e6 ff ff 	movzbl -0x1927(%rbp),%eax
   131cf:	09 d0                	or     %edx,%eax
   131d1:	88 85 d9 e6 ff ff    	mov    %al,-0x1927(%rbp)
   131d7:	48 8b 85 30 e8 ff ff 	mov    -0x17d0(%rbp),%rax
   131de:	48 8d 95 c8 e6 ff ff 	lea    -0x1938(%rbp),%rdx
   131e5:	48 89 10             	mov    %rdx,(%rax)
   131e8:	e9 ae 01 00 00       	jmpq   1339b <func_62+0x3ff9>
   131ed:	48 c7 85 20 e8 ff ff 	movq   $0x0,-0x17e0(%rbp)
   131f4:	00 00 00 00 
   131f8:	48 8d 85 20 e8 ff ff 	lea    -0x17e0(%rbp),%rax
   131ff:	48 89 85 28 e8 ff ff 	mov    %rax,-0x17d8(%rbp)
   13206:	48 8d 85 28 e8 ff ff 	lea    -0x17d8(%rbp),%rax
   1320d:	48 89 85 88 e9 ff ff 	mov    %rax,-0x1678(%rbp)
   13214:	48 c7 85 90 e9 ff ff 	movq   $0x0,-0x1670(%rbp)
   1321b:	00 00 00 00 
   1321f:	48 8b 95 28 e8 ff ff 	mov    -0x17d8(%rbp),%rdx
   13226:	48 8b 85 88 e9 ff ff 	mov    -0x1678(%rbp),%rax
   1322d:	48 89 10             	mov    %rdx,(%rax)
   13230:	48 8b 05 39 e3 00 00 	mov    0xe339(%rip),%rax        # 21570 <g_260>
   13237:	48 8b 95 30 e9 ff ff 	mov    -0x16d0(%rbp),%rdx
   1323e:	66 89 10             	mov    %dx,(%rax)
   13241:	0f b7 00             	movzwl (%rax),%eax
   13244:	83 c8 01             	or     $0x1,%eax
   13247:	0f b7 d0             	movzwl %ax,%edx
   1324a:	48 8b 85 50 e8 ff ff 	mov    -0x17b0(%rbp),%rax
   13251:	8b 00                	mov    (%rax),%eax
   13253:	09 c2                	or     %eax,%edx
   13255:	48 8b 85 50 e8 ff ff 	mov    -0x17b0(%rbp),%rax
   1325c:	89 10                	mov    %edx,(%rax)
   1325e:	80 bd d6 e6 ff ff 00 	cmpb   $0x0,-0x192a(%rbp)
   13265:	90                   	nop
   13266:	f3 0f 1e fa          	endbr64 
   1326a:	8b 85 b4 e6 ff ff    	mov    -0x194c(%rbp),%eax
   13270:	89 85 cc e6 ff ff    	mov    %eax,-0x1934(%rbp)
   13276:	c7 85 34 e7 ff ff ec 	movl   $0xd9ec,-0x18cc(%rbp)
   1327d:	d9 00 00 
   13280:	48 8b 05 e9 e2 00 00 	mov    0xe2e9(%rip),%rax        # 21570 <g_260>
   13287:	0f b7 00             	movzwl (%rax),%eax
   1328a:	0f b7 c0             	movzwl %ax,%eax
   1328d:	be 03 00 00 00       	mov    $0x3,%esi
   13292:	89 c7                	mov    %eax,%edi
   13294:	e8 e1 2b ff ff       	callq  5e7a <safe_rshift_func_uint16_t_u_u>
   13299:	0f b7 d0             	movzwl %ax,%edx
   1329c:	48 8b 85 50 e8 ff ff 	mov    -0x17b0(%rbp),%rax
   132a3:	89 10                	mov    %edx,(%rax)
   132a5:	0f b7 85 e0 e6 ff ff 	movzwl -0x1920(%rbp),%eax
   132ac:	0f bf d0             	movswl %ax,%edx
   132af:	48 8b 05 9a e2 00 00 	mov    0xe29a(%rip),%rax        # 21550 <g_239>
   132b6:	48 8b 00             	mov    (%rax),%rax
   132b9:	8b 08                	mov    (%rax),%ecx
   132bb:	8b 85 38 e7 ff ff    	mov    -0x18c8(%rbp),%eax
   132c1:	39 c1                	cmp    %eax,%ecx
   132c3:	0f 95 c0             	setne  %al
   132c6:	0f b6 c0             	movzbl %al,%eax
   132c9:	89 d6                	mov    %edx,%esi
   132cb:	89 c7                	mov    %eax,%edi
   132cd:	e8 2d 24 ff ff       	callq  56ff <safe_div_func_int32_t_s_s>
   132d2:	66 c7 05 b9 ca 00 00 	movw   $0xd9ec,0xcab9(%rip)        # 1fd94 <g_160>
   132d9:	ec d9 
   132db:	48 8b 05 9e e2 00 00 	mov    0xe29e(%rip),%rax        # 21580 <g_376>
   132e2:	48 8b 00             	mov    (%rax),%rax
   132e5:	0f b6 00             	movzbl (%rax),%eax
   132e8:	0f be d0             	movsbl %al,%edx
   132eb:	8b 85 b4 e6 ff ff    	mov    -0x194c(%rbp),%eax
   132f1:	31 c2                	xor    %eax,%edx
   132f3:	48 8b 05 46 cb 00 00 	mov    0xcb46(%rip),%rax        # 1fe40 <g_277>
   132fa:	48 c1 e0 10          	shl    $0x10,%rax
   132fe:	48 c1 f8 23          	sar    $0x23,%rax
   13302:	39 c2                	cmp    %eax,%edx
   13304:	0f 9f c0             	setg   %al
   13307:	0f b6 c0             	movzbl %al,%eax
   1330a:	0f b6 15 6b ca 00 00 	movzbl 0xca6b(%rip),%edx        # 1fd7c <g_155+0x9c>
   13311:	31 d0                	xor    %edx,%eax
   13313:	88 05 63 ca 00 00    	mov    %al,0xca63(%rip)        # 1fd7c <g_155+0x9c>
   13319:	0f b6 05 5c ca 00 00 	movzbl 0xca5c(%rip),%eax        # 1fd7c <g_155+0x9c>
   13320:	0f b6 c0             	movzbl %al,%eax
   13323:	be 01 00 00 00       	mov    $0x1,%esi
   13328:	89 c7                	mov    %eax,%edi
   1332a:	e8 64 28 ff ff       	callq  5b93 <safe_mul_func_uint8_t_u_u>
   1332f:	0f b6 d0             	movzbl %al,%edx
   13332:	48 8b 05 37 e2 00 00 	mov    0xe237(%rip),%rax        # 21570 <g_260>
   13339:	0f b7 00             	movzwl (%rax),%eax
   1333c:	0f b7 c0             	movzwl %ax,%eax
   1333f:	39 c2                	cmp    %eax,%edx
   13341:	0f 9c c0             	setl   %al
   13344:	0f b6 d0             	movzbl %al,%edx
   13347:	8b 85 c8 e6 ff ff    	mov    -0x1938(%rbp),%eax
   1334d:	21 d0                	and    %edx,%eax
   1334f:	89 85 c8 e6 ff ff    	mov    %eax,-0x1938(%rbp)
   13355:	48 8b 85 30 e8 ff ff 	mov    -0x17d0(%rbp),%rax
   1335c:	48 8d 95 c8 e6 ff ff 	lea    -0x1938(%rbp),%rdx
   13363:	48 89 10             	mov    %rdx,(%rax)
   13366:	48 8b 85 30 e8 ff ff 	mov    -0x17d0(%rbp),%rax
   1336d:	48 8b 00             	mov    (%rax),%rax
   13370:	48 89 05 31 e2 00 00 	mov    %rax,0xe231(%rip)        # 215a8 <g_554>
   13377:	eb 22                	jmp    1339b <func_62+0x3ff9>
   13379:	66 c7 85 e8 e6 ff ff 	movw   $0x3,-0x1918(%rbp)
   13380:	03 00 
   13382:	c7 85 94 e7 ff ff 01 	movl   $0x1,-0x186c(%rbp)
   13389:	00 00 00 
   1338c:	8b 05 0a cb 00 00    	mov    0xcb0a(%rip),%eax        # 1fe9c <g_558>
   13392:	83 e8 01             	sub    $0x1,%eax
   13395:	89 05 01 cb 00 00    	mov    %eax,0xcb01(%rip)        # 1fe9c <g_558>
   1339b:	48 c7 85 00 e9 ff ff 	movq   $0x0,-0x1700(%rbp)
   133a2:	00 00 00 00 
   133a6:	48 8b 95 10 e8 ff ff 	mov    -0x17f0(%rbp),%rdx
   133ad:	48 8b 85 38 e9 ff ff 	mov    -0x16c8(%rbp),%rax
   133b4:	48 89 10             	mov    %rdx,(%rax)
   133b7:	c7 85 b4 e6 ff ff 00 	movl   $0x0,-0x194c(%rbp)
   133be:	00 00 00 
   133c1:	e9 03 0c 00 00       	jmpq   13fc9 <func_62+0x4c27>
   133c6:	48 8b 85 30 e8 ff ff 	mov    -0x17d0(%rbp),%rax
   133cd:	48 8d 95 c8 e6 ff ff 	lea    -0x1938(%rbp),%rdx
   133d4:	48 89 10             	mov    %rdx,(%rax)
   133d7:	0f b7 05 68 ca 00 00 	movzwl 0xca68(%rip),%eax        # 1fe46 <g_277+0x6>
   133de:	0f b7 15 63 ca 00 00 	movzwl 0xca63(%rip),%edx        # 1fe48 <g_277+0x8>
   133e5:	81 e2 ff 03 00 00    	and    $0x3ff,%edx
   133eb:	48 c1 e2 10          	shl    $0x10,%rdx
   133ef:	48 09 d0             	or     %rdx,%rax
   133f2:	48 c1 e0 26          	shl    $0x26,%rax
   133f6:	48 c1 f8 26          	sar    $0x26,%rax
   133fa:	48 98                	cltq   
   133fc:	e9 a2 0d 00 00       	jmpq   141a3 <func_62+0x4e01>
   13401:	48 8d 05 34 ca 00 00 	lea    0xca34(%rip),%rax        # 1fe3c <g_261>
   13408:	48 89 85 c8 e9 ff ff 	mov    %rax,-0x1638(%rbp)
   1340f:	48 8d 85 f8 e7 ff ff 	lea    -0x1808(%rbp),%rax
   13416:	48 89 85 d0 e9 ff ff 	mov    %rax,-0x1630(%rbp)
   1341d:	48 8d 85 00 e7 ff ff 	lea    -0x1900(%rbp),%rax
   13424:	48 89 85 d8 e9 ff ff 	mov    %rax,-0x1628(%rbp)
   1342b:	c7 85 70 ed ff ff 01 	movl   $0x1,-0x1290(%rbp)
   13432:	00 00 00 
   13435:	c7 85 74 ed ff ff f4 	movl   $0xa42db1f4,-0x128c(%rbp)
   1343c:	b1 2d a4 
   1343f:	c7 85 78 ed ff ff 01 	movl   $0x1,-0x1288(%rbp)
   13446:	00 00 00 
   13449:	c7 85 7c ed ff ff 01 	movl   $0x1,-0x1284(%rbp)
   13450:	00 00 00 
   13453:	c7 85 80 ed ff ff f4 	movl   $0xa42db1f4,-0x1280(%rbp)
   1345a:	b1 2d a4 
   1345d:	c7 85 84 ed ff ff 01 	movl   $0x1,-0x127c(%rbp)
   13464:	00 00 00 
   13467:	c7 85 88 ed ff ff 01 	movl   $0x1,-0x1278(%rbp)
   1346e:	00 00 00 
   13471:	c7 85 8c ed ff ff f4 	movl   $0xa42db1f4,-0x1274(%rbp)
   13478:	b1 2d a4 
   1347b:	c7 85 90 ed ff ff 01 	movl   $0x1,-0x1270(%rbp)
   13482:	00 00 00 
   13485:	48 8d 05 0c f0 00 00 	lea    0xf00c(%rip),%rax        # 22498 <g_591>
   1348c:	48 89 85 10 f3 ff ff 	mov    %rax,-0xcf0(%rbp)
   13493:	48 8d 05 fe ef 00 00 	lea    0xeffe(%rip),%rax        # 22498 <g_591>
   1349a:	48 89 85 18 f3 ff ff 	mov    %rax,-0xce8(%rbp)
   134a1:	48 8d 05 f0 ef 00 00 	lea    0xeff0(%rip),%rax        # 22498 <g_591>
   134a8:	48 89 85 20 f3 ff ff 	mov    %rax,-0xce0(%rbp)
   134af:	48 8d 05 e2 ef 00 00 	lea    0xefe2(%rip),%rax        # 22498 <g_591>
   134b6:	48 89 85 28 f3 ff ff 	mov    %rax,-0xcd8(%rbp)
   134bd:	48 8d 05 d4 ef 00 00 	lea    0xefd4(%rip),%rax        # 22498 <g_591>
   134c4:	48 89 85 30 f3 ff ff 	mov    %rax,-0xcd0(%rbp)
   134cb:	48 8d 05 c6 ef 00 00 	lea    0xefc6(%rip),%rax        # 22498 <g_591>
   134d2:	48 89 85 38 f3 ff ff 	mov    %rax,-0xcc8(%rbp)
   134d9:	48 8d 05 b8 ef 00 00 	lea    0xefb8(%rip),%rax        # 22498 <g_591>
   134e0:	48 89 85 40 f3 ff ff 	mov    %rax,-0xcc0(%rbp)
   134e7:	48 8d 05 aa ef 00 00 	lea    0xefaa(%rip),%rax        # 22498 <g_591>
   134ee:	48 89 85 48 f3 ff ff 	mov    %rax,-0xcb8(%rbp)
   134f5:	48 8d 05 9c ef 00 00 	lea    0xef9c(%rip),%rax        # 22498 <g_591>
   134fc:	48 89 85 50 f3 ff ff 	mov    %rax,-0xcb0(%rbp)
   13503:	48 8d 05 8e ef 00 00 	lea    0xef8e(%rip),%rax        # 22498 <g_591>
   1350a:	48 89 85 58 f3 ff ff 	mov    %rax,-0xca8(%rbp)
   13511:	48 8d 05 80 ef 00 00 	lea    0xef80(%rip),%rax        # 22498 <g_591>
   13518:	48 89 85 60 f3 ff ff 	mov    %rax,-0xca0(%rbp)
   1351f:	48 8d 05 72 ef 00 00 	lea    0xef72(%rip),%rax        # 22498 <g_591>
   13526:	48 89 85 68 f3 ff ff 	mov    %rax,-0xc98(%rbp)
   1352d:	48 8d 05 64 ef 00 00 	lea    0xef64(%rip),%rax        # 22498 <g_591>
   13534:	48 89 85 70 f3 ff ff 	mov    %rax,-0xc90(%rbp)
   1353b:	48 8d 05 56 ef 00 00 	lea    0xef56(%rip),%rax        # 22498 <g_591>
   13542:	48 89 85 78 f3 ff ff 	mov    %rax,-0xc88(%rbp)
   13549:	48 8d 05 48 ef 00 00 	lea    0xef48(%rip),%rax        # 22498 <g_591>
   13550:	48 89 85 80 f3 ff ff 	mov    %rax,-0xc80(%rbp)
   13557:	48 8d 05 3a ef 00 00 	lea    0xef3a(%rip),%rax        # 22498 <g_591>
   1355e:	48 89 85 88 f3 ff ff 	mov    %rax,-0xc78(%rbp)
   13565:	48 8d 05 2c ef 00 00 	lea    0xef2c(%rip),%rax        # 22498 <g_591>
   1356c:	48 89 85 90 f3 ff ff 	mov    %rax,-0xc70(%rbp)
   13573:	48 8d 05 1e ef 00 00 	lea    0xef1e(%rip),%rax        # 22498 <g_591>
   1357a:	48 89 85 98 f3 ff ff 	mov    %rax,-0xc68(%rbp)
   13581:	48 8d 05 10 ef 00 00 	lea    0xef10(%rip),%rax        # 22498 <g_591>
   13588:	48 89 85 a0 f3 ff ff 	mov    %rax,-0xc60(%rbp)
   1358f:	48 8d 05 02 ef 00 00 	lea    0xef02(%rip),%rax        # 22498 <g_591>
   13596:	48 89 85 a8 f3 ff ff 	mov    %rax,-0xc58(%rbp)
   1359d:	48 8d 05 f4 ee 00 00 	lea    0xeef4(%rip),%rax        # 22498 <g_591>
   135a4:	48 89 85 b0 f3 ff ff 	mov    %rax,-0xc50(%rbp)
   135ab:	48 8d 05 e6 ee 00 00 	lea    0xeee6(%rip),%rax        # 22498 <g_591>
   135b2:	48 89 85 b8 f3 ff ff 	mov    %rax,-0xc48(%rbp)
   135b9:	48 8d 05 d8 ee 00 00 	lea    0xeed8(%rip),%rax        # 22498 <g_591>
   135c0:	48 89 85 c0 f3 ff ff 	mov    %rax,-0xc40(%rbp)
   135c7:	48 8d 05 ca ee 00 00 	lea    0xeeca(%rip),%rax        # 22498 <g_591>
   135ce:	48 89 85 c8 f3 ff ff 	mov    %rax,-0xc38(%rbp)
   135d5:	48 8d 05 bc ee 00 00 	lea    0xeebc(%rip),%rax        # 22498 <g_591>
   135dc:	48 89 85 d0 f3 ff ff 	mov    %rax,-0xc30(%rbp)
   135e3:	48 8d 05 ae ee 00 00 	lea    0xeeae(%rip),%rax        # 22498 <g_591>
   135ea:	48 89 85 d8 f3 ff ff 	mov    %rax,-0xc28(%rbp)
   135f1:	48 8d 05 a0 ee 00 00 	lea    0xeea0(%rip),%rax        # 22498 <g_591>
   135f8:	48 89 85 e0 f3 ff ff 	mov    %rax,-0xc20(%rbp)
   135ff:	48 8d 05 92 ee 00 00 	lea    0xee92(%rip),%rax        # 22498 <g_591>
   13606:	48 89 85 e8 f3 ff ff 	mov    %rax,-0xc18(%rbp)
   1360d:	48 8d 05 84 ee 00 00 	lea    0xee84(%rip),%rax        # 22498 <g_591>
   13614:	48 89 85 f0 f3 ff ff 	mov    %rax,-0xc10(%rbp)
   1361b:	48 8d 05 76 ee 00 00 	lea    0xee76(%rip),%rax        # 22498 <g_591>
   13622:	48 89 85 f8 f3 ff ff 	mov    %rax,-0xc08(%rbp)
   13629:	48 8d 05 68 ee 00 00 	lea    0xee68(%rip),%rax        # 22498 <g_591>
   13630:	48 89 85 00 f4 ff ff 	mov    %rax,-0xc00(%rbp)
   13637:	48 8d 05 5a ee 00 00 	lea    0xee5a(%rip),%rax        # 22498 <g_591>
   1363e:	48 89 85 08 f4 ff ff 	mov    %rax,-0xbf8(%rbp)
   13645:	66 c7 85 ea e6 ff ff 	movw   $0xc196,-0x1916(%rbp)
   1364c:	96 c1 
   1364e:	48 8d 05 13 c8 00 00 	lea    0xc813(%rip),%rax        # 1fe68 <g_471>
   13655:	48 89 85 e0 e9 ff ff 	mov    %rax,-0x1620(%rbp)
   1365c:	c7 85 a0 e7 ff ff 31 	movl   $0xfaa09f31,-0x1860(%rbp)
   13663:	9f a0 fa 
   13666:	8b 85 74 ed ff ff    	mov    -0x128c(%rbp),%eax
   1366c:	0f b6 d8             	movzbl %al,%ebx
   1366f:	48 8b 95 f8 e7 ff ff 	mov    -0x1808(%rbp),%rdx
   13676:	48 8b 85 d0 e9 ff ff 	mov    -0x1630(%rbp),%rax
   1367d:	48 89 10             	mov    %rdx,(%rax)
   13680:	48 8b 85 d0 e9 ff ff 	mov    -0x1630(%rbp),%rax
   13687:	48 8b 00             	mov    (%rax),%rax
   1368a:	48 8b 15 27 df 00 00 	mov    0xdf27(%rip),%rdx        # 215b8 <g_574>
   13691:	48 89 95 08 e9 ff ff 	mov    %rdx,-0x16f8(%rbp)
   13698:	48 39 85 08 e9 ff ff 	cmp    %rax,-0x16f8(%rbp)
   1369f:	0f 95 c0             	setne  %al
   136a2:	89 c2                	mov    %eax,%edx
   136a4:	48 8b 85 d8 e9 ff ff 	mov    -0x1628(%rbp),%rax
   136ab:	88 10                	mov    %dl,(%rax)
   136ad:	48 8b 85 d8 e9 ff ff 	mov    -0x1628(%rbp),%rax
   136b4:	0f b6 00             	movzbl (%rax),%eax
   136b7:	0f b6 c0             	movzbl %al,%eax
   136ba:	be 01 00 00 00       	mov    $0x1,%esi
   136bf:	89 c7                	mov    %eax,%edi
   136c1:	e8 86 25 ff ff       	callq  5c4c <safe_lshift_func_uint8_t_u_u>
   136c6:	44 8b 25 cf c7 00 00 	mov    0xc7cf(%rip),%r12d        # 1fe9c <g_558>
   136cd:	8b 85 cc e6 ff ff    	mov    -0x1934(%rbp),%eax
   136d3:	44 0f be e8          	movsbl %al,%r13d
   136d7:	48 8b 85 d8 e9 ff ff 	mov    -0x1628(%rbp),%rax
   136de:	0f b6 00             	movzbl (%rax),%eax
   136e1:	8d 50 01             	lea    0x1(%rax),%edx
   136e4:	48 8b 85 d8 e9 ff ff 	mov    -0x1628(%rbp),%rax
   136eb:	88 10                	mov    %dl,(%rax)
   136ed:	48 8b 85 d8 e9 ff ff 	mov    -0x1628(%rbp),%rax
   136f4:	0f b6 00             	movzbl (%rax),%eax
   136f7:	0f b6 c0             	movzbl %al,%eax
   136fa:	be 01 00 00 00       	mov    $0x1,%esi
   136ff:	89 c7                	mov    %eax,%edi
   13701:	e8 87 25 ff ff       	callq  5c8d <safe_rshift_func_uint8_t_u_s>
   13706:	48 8b 05 8b ed 00 00 	mov    0xed8b(%rip),%rax        # 22498 <g_591>
   1370d:	48 89 85 78 e8 ff ff 	mov    %rax,-0x1788(%rbp)
   13714:	48 8b 85 38 e8 ff ff 	mov    -0x17c8(%rbp),%rax
   1371b:	48 8b 00             	mov    (%rax),%rax
   1371e:	48 39 85 78 e8 ff ff 	cmp    %rax,-0x1788(%rbp)
   13725:	0f 94 c0             	sete   %al
   13728:	0f b6 c0             	movzbl %al,%eax
   1372b:	89 c7                	mov    %eax,%edi
   1372d:	e8 64 1e ff ff       	callq  5596 <safe_unary_minus_func_int32_t_s>
   13732:	be 01 00 00 00       	mov    $0x1,%esi
   13737:	89 c7                	mov    %eax,%edi
   13739:	e8 bf 27 ff ff       	callq  5efd <safe_mod_func_uint32_t_u_u>
   1373e:	0f be c0             	movsbl %al,%eax
   13741:	44 89 ee             	mov    %r13d,%esi
   13744:	89 c7                	mov    %eax,%edi
   13746:	e8 a7 1a ff ff       	callq  51f2 <safe_sub_func_int8_t_s_s>
   1374b:	84 c0                	test   %al,%al
   1374d:	74 11                	je     13760 <func_62+0x43be>
   1374f:	8b 85 b4 e6 ff ff    	mov    -0x194c(%rbp),%eax
   13755:	85 c0                	test   %eax,%eax
   13757:	74 07                	je     13760 <func_62+0x43be>
   13759:	b8 01 00 00 00       	mov    $0x1,%eax
   1375e:	eb 05                	jmp    13765 <func_62+0x43c3>
   13760:	b8 00 00 00 00       	mov    $0x0,%eax
   13765:	0f be c0             	movsbl %al,%eax
   13768:	44 89 e6             	mov    %r12d,%esi
   1376b:	89 c7                	mov    %eax,%edi
   1376d:	e8 7c 1b ff ff       	callq  52ee <safe_lshift_func_int8_t_s_u>
   13772:	84 c0                	test   %al,%al
   13774:	74 11                	je     13787 <func_62+0x43e5>
   13776:	8b 85 74 ed ff ff    	mov    -0x128c(%rbp),%eax
   1377c:	85 c0                	test   %eax,%eax
   1377e:	74 07                	je     13787 <func_62+0x43e5>
   13780:	b8 01 00 00 00       	mov    $0x1,%eax
   13785:	eb 05                	jmp    1378c <func_62+0x43ea>
   13787:	b8 00 00 00 00       	mov    $0x0,%eax
   1378c:	85 c0                	test   %eax,%eax
   1378e:	75 08                	jne    13798 <func_62+0x43f6>
   13790:	8b 85 74 ed ff ff    	mov    -0x128c(%rbp),%eax
   13796:	85 c0                	test   %eax,%eax
   13798:	ba 01 00 00 00       	mov    $0x1,%edx
   1379d:	0f b6 05 89 c6 00 00 	movzbl 0xc689(%rip),%eax        # 1fe2d <g_236+0x8d>
   137a4:	21 d0                	and    %edx,%eax
   137a6:	88 05 81 c6 00 00    	mov    %al,0xc681(%rip)        # 1fe2d <g_236+0x8d>
   137ac:	48 8b 85 50 e8 ff ff 	mov    -0x17b0(%rbp),%rax
   137b3:	c7 00 00 00 00 00    	movl   $0x0,(%rax)
   137b9:	48 8b 85 50 e8 ff ff 	mov    -0x17b0(%rbp),%rax
   137c0:	8b 00                	mov    (%rax),%eax
   137c2:	be bf 4d ae 57       	mov    $0x57ae4dbf,%esi
   137c7:	89 c7                	mov    %eax,%edi
   137c9:	e8 02 27 ff ff       	callq  5ed0 <safe_sub_func_uint32_t_u_u>
   137ce:	48 83 bd c8 e9 ff ff 	cmpq   $0x0,-0x1638(%rbp)
   137d5:	00 
   137d6:	0f 95 c0             	setne  %al
   137d9:	0f b6 d0             	movzbl %al,%edx
   137dc:	8b 05 ce bc 00 00    	mov    0xbcce(%rip),%eax        # 1f4b0 <g_102+0x110>
   137e2:	48 8b 0d 57 c6 00 00 	mov    0xc657(%rip),%rcx        # 1fe40 <g_277>
   137e9:	48 c1 e1 10          	shl    $0x10,%rcx
   137ed:	48 c1 f9 23          	sar    $0x23,%rcx
   137f1:	39 c8                	cmp    %ecx,%eax
   137f3:	0f 94 c0             	sete   %al
   137f6:	0f b6 c0             	movzbl %al,%eax
   137f9:	39 c2                	cmp    %eax,%edx
   137fb:	0f 9f c0             	setg   %al
   137fe:	89 c2                	mov    %eax,%edx
   13800:	8b 85 cc e6 ff ff    	mov    -0x1934(%rbp),%eax
   13806:	31 d0                	xor    %edx,%eax
   13808:	0f b6 c0             	movzbl %al,%eax
   1380b:	89 de                	mov    %ebx,%esi
   1380d:	89 c7                	mov    %eax,%edi
   1380f:	e8 64 23 ff ff       	callq  5b78 <safe_sub_func_uint8_t_u_u>
   13814:	48 8b 15 8d dd 00 00 	mov    0xdd8d(%rip),%rdx        # 215a8 <g_554>
   1381b:	8b 0a                	mov    (%rdx),%ecx
   1381d:	0f b6 d0             	movzbl %al,%edx
   13820:	48 8b 05 81 dd 00 00 	mov    0xdd81(%rip),%rax        # 215a8 <g_554>
   13827:	31 ca                	xor    %ecx,%edx
   13829:	89 10                	mov    %edx,(%rax)
   1382b:	48 8d 05 6e dd 00 00 	lea    0xdd6e(%rip),%rax        # 215a0 <g_539>
   13832:	48 8b 00             	mov    (%rax),%rax
   13835:	48 8b 00             	mov    (%rax),%rax
   13838:	48 8b 10             	mov    (%rax),%rdx
   1383b:	48 8d 05 5e dd 00 00 	lea    0xdd5e(%rip),%rax        # 215a0 <g_539>
   13842:	48 8b 00             	mov    (%rax),%rax
   13845:	48 8b 00             	mov    (%rax),%rax
   13848:	48 8b 00             	mov    (%rax),%rax
   1384b:	48 8b 12             	mov    (%rdx),%rdx
   1384e:	48 89 10             	mov    %rdx,(%rax)
   13851:	66 c7 85 de e6 ff ff 	movw   $0x3,-0x1922(%rbp)
   13858:	03 00 
   1385a:	e9 5e 06 00 00       	jmpq   13ebd <func_62+0x4b1b>
   1385f:	48 c7 85 e8 e9 ff ff 	movq   $0x0,-0x1618(%rbp)
   13866:	00 00 00 00 
   1386a:	c7 85 a4 e7 ff ff 3a 	movl   $0x63ed23a,-0x185c(%rbp)
   13871:	d2 3e 06 
   13874:	c7 85 a8 e7 ff ff f8 	movl   $0xfffffff8,-0x1858(%rbp)
   1387b:	ff ff ff 
   1387e:	48 8d 85 70 f9 ff ff 	lea    -0x690(%rbp),%rax
   13885:	48 8d 15 b4 79 00 00 	lea    0x79b4(%rip),%rdx        # 1b240 <g_2129+0x1d80>
   1388c:	b9 48 00 00 00       	mov    $0x48,%ecx
   13891:	48 89 c7             	mov    %rax,%rdi
   13894:	48 89 d6             	mov    %rdx,%rsi
   13897:	f3 48 a5             	rep movsq %ds:(%rsi),%es:(%rdi)
   1389a:	c6 85 d4 e6 ff ff 32 	movb   $0x32,-0x192c(%rbp)
   138a1:	48 8b 05 c8 dc 00 00 	mov    0xdcc8(%rip),%rax        # 21570 <g_260>
   138a8:	0f b7 10             	movzwl (%rax),%edx
   138ab:	48 8b 05 be dc 00 00 	mov    0xdcbe(%rip),%rax        # 21570 <g_260>
   138b2:	83 ca 02             	or     $0x2,%edx
   138b5:	66 89 10             	mov    %dx,(%rax)
   138b8:	0f b7 00             	movzwl (%rax),%eax
   138bb:	0f b7 d8             	movzwl %ax,%ebx
   138be:	44 0f b7 a5 ea e6 ff 	movzwl -0x1916(%rbp),%r12d
   138c5:	ff 
   138c6:	0f b7 85 a2 eb ff ff 	movzwl -0x145e(%rbp),%eax
   138cd:	98                   	cwtl   
   138ce:	be 01 00 00 00       	mov    $0x1,%esi
   138d3:	89 c7                	mov    %eax,%edi
   138d5:	e8 07 1c ff ff       	callq  54e1 <safe_lshift_func_int16_t_s_u>
   138da:	98                   	cwtl   
   138db:	44 31 e0             	xor    %r12d,%eax
   138de:	3d fe 00 00 00       	cmp    $0xfe,%eax
   138e3:	0f 96 c0             	setbe  %al
   138e6:	0f b6 c0             	movzbl %al,%eax
   138e9:	39 c3                	cmp    %eax,%ebx
   138eb:	0f 95 c0             	setne  %al
   138ee:	0f b6 c8             	movzbl %al,%ecx
   138f1:	48 8b 05 b0 dc 00 00 	mov    0xdcb0(%rip),%rax        # 215a8 <g_554>
   138f8:	8b 10                	mov    (%rax),%edx
   138fa:	48 8b 05 a7 dc 00 00 	mov    0xdca7(%rip),%rax        # 215a8 <g_554>
   13901:	09 ca                	or     %ecx,%edx
   13903:	89 10                	mov    %edx,(%rax)
   13905:	48 c7 05 20 c5 00 00 	movq   $0x0,0xc520(%rip)        # 1fe30 <g_251>
   1390c:	00 00 00 00 
   13910:	e9 83 05 00 00       	jmpq   13e98 <func_62+0x4af6>
   13915:	48 8d 85 d8 e7 ff ff 	lea    -0x1828(%rbp),%rax
   1391c:	48 89 85 20 e8 ff ff 	mov    %rax,-0x17e0(%rbp)
   13923:	48 8d 85 20 e8 ff ff 	lea    -0x17e0(%rbp),%rax
   1392a:	48 89 85 28 e8 ff ff 	mov    %rax,-0x17d8(%rbp)
   13931:	48 8d 85 28 e8 ff ff 	lea    -0x17d8(%rbp),%rax
   13938:	48 89 85 40 eb ff ff 	mov    %rax,-0x14c0(%rbp)
   1393f:	48 8d 85 28 e8 ff ff 	lea    -0x17d8(%rbp),%rax
   13946:	48 89 85 48 eb ff ff 	mov    %rax,-0x14b8(%rbp)
   1394d:	48 8d 85 28 e8 ff ff 	lea    -0x17d8(%rbp),%rax
   13954:	48 89 85 50 eb ff ff 	mov    %rax,-0x14b0(%rbp)
   1395b:	48 8d 85 28 e8 ff ff 	lea    -0x17d8(%rbp),%rax
   13962:	48 89 85 58 eb ff ff 	mov    %rax,-0x14a8(%rbp)
   13969:	c7 85 ac e7 ff ff fa 	movl   $0xfffffffa,-0x1854(%rbp)
   13970:	ff ff ff 
   13973:	48 8b 85 e0 e7 ff ff 	mov    -0x1820(%rbp),%rax
   1397a:	48 8b 95 e8 e9 ff ff 	mov    -0x1618(%rbp),%rdx
   13981:	48 89 10             	mov    %rdx,(%rax)
   13984:	8b 85 b4 e6 ff ff    	mov    -0x194c(%rbp),%eax
   1398a:	8d 50 04             	lea    0x4(%rax),%edx
   1398d:	0f b7 85 de e6 ff ff 	movzwl -0x1922(%rbp),%eax
   13994:	98                   	cwtl   
   13995:	83 c0 04             	add    $0x4,%eax
   13998:	48 8b 0d 91 c4 00 00 	mov    0xc491(%rip),%rcx        # 1fe30 <g_251>
   1399f:	48 63 f0             	movslq %eax,%rsi
   139a2:	48 63 d2             	movslq %edx,%rdx
   139a5:	48 89 d0             	mov    %rdx,%rax
   139a8:	48 c1 e0 02          	shl    $0x2,%rax
   139ac:	48 01 d0             	add    %rdx,%rax
   139af:	48 01 c0             	add    %rax,%rax
   139b2:	48 01 f0             	add    %rsi,%rax
   139b5:	48 c1 e0 02          	shl    $0x2,%rax
   139b9:	48 01 c8             	add    %rcx,%rax
   139bc:	8b 84 85 b0 f5 ff ff 	mov    -0xa50(%rbp,%rax,4),%eax
   139c3:	85 c0                	test   %eax,%eax
   139c5:	0f 85 e0 04 00 00    	jne    13eab <func_62+0x4b09>
   139cb:	c7 85 c8 e6 ff ff 00 	movl   $0x0,-0x1938(%rbp)
   139d2:	00 00 00 
   139d5:	e9 2a 01 00 00       	jmpq   13b04 <func_62+0x4762>
   139da:	0f b7 85 de e6 ff ff 	movzwl -0x1922(%rbp),%eax
   139e1:	98                   	cwtl   
   139e2:	8d 50 02             	lea    0x2(%rax),%edx
   139e5:	0f b7 85 de e6 ff ff 	movzwl -0x1922(%rbp),%eax
   139ec:	98                   	cwtl   
   139ed:	8d 78 03             	lea    0x3(%rax),%edi
   139f0:	8b 85 c8 e6 ff ff    	mov    -0x1938(%rbp),%eax
   139f6:	83 c0 03             	add    $0x3,%eax
   139f9:	48 8d 8d b0 f5 ff ff 	lea    -0xa50(%rbp),%rcx
   13a00:	48 63 f0             	movslq %eax,%rsi
   13a03:	48 63 d2             	movslq %edx,%rdx
   13a06:	48 89 d0             	mov    %rdx,%rax
   13a09:	48 c1 e0 02          	shl    $0x2,%rax
   13a0d:	48 01 d0             	add    %rdx,%rax
   13a10:	48 01 c0             	add    %rax,%rax
   13a13:	48 63 d7             	movslq %edi,%rdx
   13a16:	48 01 d0             	add    %rdx,%rax
   13a19:	48 c1 e0 02          	shl    $0x2,%rax
   13a1d:	48 01 f0             	add    %rsi,%rax
   13a20:	48 c1 e0 02          	shl    $0x2,%rax
   13a24:	48 8d 14 01          	lea    (%rcx,%rax,1),%rdx
   13a28:	48 8b 85 30 e8 ff ff 	mov    -0x17d0(%rbp),%rax
   13a2f:	48 89 10             	mov    %rdx,(%rax)
   13a32:	48 8b 05 f7 c3 00 00 	mov    0xc3f7(%rip),%rax        # 1fe30 <g_251>
   13a39:	48 8d 50 01          	lea    0x1(%rax),%rdx
   13a3d:	0f b7 85 de e6 ff ff 	movzwl -0x1922(%rbp),%eax
   13a44:	98                   	cwtl   
   13a45:	8d 70 06             	lea    0x6(%rax),%esi
   13a48:	8b 85 b4 e6 ff ff    	mov    -0x194c(%rbp),%eax
   13a4e:	48 63 c8             	movslq %eax,%rcx
   13a51:	48 63 f6             	movslq %esi,%rsi
   13a54:	48 89 d0             	mov    %rdx,%rax
   13a57:	48 c1 e0 02          	shl    $0x2,%rax
   13a5b:	48 01 d0             	add    %rdx,%rax
   13a5e:	48 01 c0             	add    %rax,%rax
   13a61:	48 01 f0             	add    %rsi,%rax
   13a64:	48 c1 e0 02          	shl    $0x2,%rax
   13a68:	48 01 c8             	add    %rcx,%rax
   13a6b:	8b b4 85 b0 f5 ff ff 	mov    -0xa50(%rbp,%rax,4),%esi
   13a72:	8b 85 c8 e6 ff ff    	mov    -0x1938(%rbp),%eax
   13a78:	8b 95 c8 e6 ff ff    	mov    -0x1938(%rbp),%edx
   13a7e:	48 63 d2             	movslq %edx,%rdx
   13a81:	48 98                	cltq   
   13a83:	48 01 d0             	add    %rdx,%rax
   13a86:	48 8d 14 c5 00 00 00 	lea    0x0(,%rax,8),%rdx
   13a8d:	00 
   13a8e:	48 8d 05 2b ba 00 00 	lea    0xba2b(%rip),%rax        # 1f4c0 <g_140>
   13a95:	48 8b 14 02          	mov    (%rdx,%rax,1),%rdx
   13a99:	8b 85 b4 e6 ff ff    	mov    -0x194c(%rbp),%eax
   13a9f:	48 98                	cltq   
   13aa1:	8b 84 85 f0 e9 ff ff 	mov    -0x1610(%rbp,%rax,4),%eax
   13aa8:	48 98                	cltq   
   13aaa:	48 39 c2             	cmp    %rax,%rdx
   13aad:	0f 96 c0             	setbe  %al
   13ab0:	0f b6 c8             	movzbl %al,%ecx
   13ab3:	48 8b 05 76 c3 00 00 	mov    0xc376(%rip),%rax        # 1fe30 <g_251>
   13aba:	48 8d 50 01          	lea    0x1(%rax),%rdx
   13abe:	0f b7 85 de e6 ff ff 	movzwl -0x1922(%rbp),%eax
   13ac5:	98                   	cwtl   
   13ac6:	8d 78 06             	lea    0x6(%rax),%edi
   13ac9:	8b 85 b4 e6 ff ff    	mov    -0x194c(%rbp),%eax
   13acf:	09 f1                	or     %esi,%ecx
   13ad1:	48 63 f0             	movslq %eax,%rsi
   13ad4:	48 63 ff             	movslq %edi,%rdi
   13ad7:	48 89 d0             	mov    %rdx,%rax
   13ada:	48 c1 e0 02          	shl    $0x2,%rax
   13ade:	48 01 d0             	add    %rdx,%rax
   13ae1:	48 01 c0             	add    %rax,%rax
   13ae4:	48 01 f8             	add    %rdi,%rax
   13ae7:	48 c1 e0 02          	shl    $0x2,%rax
   13aeb:	48 01 f0             	add    %rsi,%rax
   13aee:	89 8c 85 b0 f5 ff ff 	mov    %ecx,-0xa50(%rbp,%rax,4)
   13af5:	8b 85 c8 e6 ff ff    	mov    -0x1938(%rbp),%eax
   13afb:	83 e8 01             	sub    $0x1,%eax
   13afe:	89 85 c8 e6 ff ff    	mov    %eax,-0x1938(%rbp)
   13b04:	8b 85 c8 e6 ff ff    	mov    -0x1938(%rbp),%eax
   13b0a:	85 c0                	test   %eax,%eax
   13b0c:	0f 89 c8 fe ff ff    	jns    139da <func_62+0x4638>
   13b12:	66 c7 85 dc e6 ff ff 	movw   $0x0,-0x1924(%rbp)
   13b19:	00 00 
   13b1b:	e9 56 03 00 00       	jmpq   13e76 <func_62+0x4ad4>
   13b20:	48 c7 85 30 ef ff ff 	movq   $0x0,-0x10d0(%rbp)
   13b27:	00 00 00 00 
   13b2b:	8b 85 b4 e6 ff ff    	mov    -0x194c(%rbp),%eax
   13b31:	8d 50 04             	lea    0x4(%rax),%edx
   13b34:	0f b7 85 de e6 ff ff 	movzwl -0x1922(%rbp),%eax
   13b3b:	98                   	cwtl   
   13b3c:	83 c0 04             	add    $0x4,%eax
   13b3f:	48 8b 35 ea c2 00 00 	mov    0xc2ea(%rip),%rsi        # 1fe30 <g_251>
   13b46:	48 8d 8d b0 f5 ff ff 	lea    -0xa50(%rbp),%rcx
   13b4d:	48 63 f8             	movslq %eax,%rdi
   13b50:	48 63 d2             	movslq %edx,%rdx
   13b53:	48 89 d0             	mov    %rdx,%rax
   13b56:	48 c1 e0 02          	shl    $0x2,%rax
   13b5a:	48 01 d0             	add    %rdx,%rax
   13b5d:	48 01 c0             	add    %rax,%rax
   13b60:	48 01 f8             	add    %rdi,%rax
   13b63:	48 c1 e0 02          	shl    $0x2,%rax
   13b67:	48 01 f0             	add    %rsi,%rax
   13b6a:	48 c1 e0 02          	shl    $0x2,%rax
   13b6e:	48 01 c8             	add    %rcx,%rax
   13b71:	48 89 85 38 ef ff ff 	mov    %rax,-0x10c8(%rbp)
   13b78:	48 c7 85 40 ef ff ff 	movq   $0x0,-0x10c0(%rbp)
   13b7f:	00 00 00 00 
   13b83:	48 8d 85 f8 e6 ff ff 	lea    -0x1908(%rbp),%rax
   13b8a:	48 89 85 48 ef ff ff 	mov    %rax,-0x10b8(%rbp)
   13b91:	48 8d 85 f8 e6 ff ff 	lea    -0x1908(%rbp),%rax
   13b98:	48 89 85 50 ef ff ff 	mov    %rax,-0x10b0(%rbp)
   13b9f:	48 c7 85 58 ef ff ff 	movq   $0x0,-0x10a8(%rbp)
   13ba6:	00 00 00 00 
   13baa:	8b 85 b4 e6 ff ff    	mov    -0x194c(%rbp),%eax
   13bb0:	8d 50 04             	lea    0x4(%rax),%edx
   13bb3:	0f b7 85 de e6 ff ff 	movzwl -0x1922(%rbp),%eax
   13bba:	98                   	cwtl   
   13bbb:	83 c0 04             	add    $0x4,%eax
   13bbe:	48 8b 35 6b c2 00 00 	mov    0xc26b(%rip),%rsi        # 1fe30 <g_251>
   13bc5:	48 8d 8d b0 f5 ff ff 	lea    -0xa50(%rbp),%rcx
   13bcc:	48 63 f8             	movslq %eax,%rdi
   13bcf:	48 63 d2             	movslq %edx,%rdx
   13bd2:	48 89 d0             	mov    %rdx,%rax
   13bd5:	48 c1 e0 02          	shl    $0x2,%rax
   13bd9:	48 01 d0             	add    %rdx,%rax
   13bdc:	48 01 c0             	add    %rax,%rax
   13bdf:	48 01 f8             	add    %rdi,%rax
   13be2:	48 c1 e0 02          	shl    $0x2,%rax
   13be6:	48 01 f0             	add    %rsi,%rax
   13be9:	48 c1 e0 02          	shl    $0x2,%rax
   13bed:	48 01 c8             	add    %rcx,%rax
   13bf0:	48 89 85 60 ef ff ff 	mov    %rax,-0x10a0(%rbp)
   13bf7:	48 c7 85 68 ef ff ff 	movq   $0x0,-0x1098(%rbp)
   13bfe:	00 00 00 00 
   13c02:	48 8d 85 f8 e6 ff ff 	lea    -0x1908(%rbp),%rax
   13c09:	48 89 85 70 ef ff ff 	mov    %rax,-0x1090(%rbp)
   13c10:	48 8d 85 f8 e6 ff ff 	lea    -0x1908(%rbp),%rax
   13c17:	48 89 85 78 ef ff ff 	mov    %rax,-0x1088(%rbp)
   13c1e:	8b 85 b4 e6 ff ff    	mov    -0x194c(%rbp),%eax
   13c24:	48 8b 15 05 c2 00 00 	mov    0xc205(%rip),%rdx        # 1fe30 <g_251>
   13c2b:	4c 8d 4a 04          	lea    0x4(%rdx),%r9
   13c2f:	48 8b 0d fa c1 00 00 	mov    0xc1fa(%rip),%rcx        # 1fe30 <g_251>
   13c36:	8b bd b4 e6 ff ff    	mov    -0x194c(%rbp),%edi
   13c3c:	48 8b 15 ed c1 00 00 	mov    0xc1ed(%rip),%rdx        # 1fe30 <g_251>
   13c43:	4c 8d 42 04          	lea    0x4(%rdx),%r8
   13c47:	48 8b 35 e2 c1 00 00 	mov    0xc1e2(%rip),%rsi        # 1fe30 <g_251>
   13c4e:	48 63 d0             	movslq %eax,%rdx
   13c51:	48 89 d0             	mov    %rdx,%rax
   13c54:	48 c1 e0 02          	shl    $0x2,%rax
   13c58:	48 01 d0             	add    %rdx,%rax
   13c5b:	48 01 c0             	add    %rax,%rax
   13c5e:	4c 01 c8             	add    %r9,%rax
   13c61:	48 c1 e0 02          	shl    $0x2,%rax
   13c65:	48 01 c8             	add    %rcx,%rax
   13c68:	8b 8c 85 b0 f5 ff ff 	mov    -0xa50(%rbp,%rax,4),%ecx
   13c6f:	48 63 d7             	movslq %edi,%rdx
   13c72:	48 89 d0             	mov    %rdx,%rax
   13c75:	48 c1 e0 02          	shl    $0x2,%rax
   13c79:	48 01 d0             	add    %rdx,%rax
   13c7c:	48 01 c0             	add    %rax,%rax
   13c7f:	4c 01 c0             	add    %r8,%rax
   13c82:	48 c1 e0 02          	shl    $0x2,%rax
   13c86:	48 01 f0             	add    %rsi,%rax
   13c89:	89 8c 85 b0 f5 ff ff 	mov    %ecx,-0xa50(%rbp,%rax,4)
   13c90:	0f b6 05 53 c1 00 00 	movzbl 0xc153(%rip),%eax        # 1fdea <g_236+0x4a>
   13c97:	0f be d8             	movsbl %al,%ebx
   13c9a:	8b 15 18 b8 00 00    	mov    0xb818(%rip),%edx        # 1f4b8 <g_107>
   13ca0:	8b 85 c8 e6 ff ff    	mov    -0x1938(%rbp),%eax
   13ca6:	31 d0                	xor    %edx,%eax
   13ca8:	41 89 c4             	mov    %eax,%r12d
   13cab:	be 05 00 00 00       	mov    $0x5,%esi
   13cb0:	bf eb ff ff ff       	mov    $0xffffffeb,%edi
   13cb5:	e8 34 16 ff ff       	callq  52ee <safe_lshift_func_int8_t_s_u>
   13cba:	0f be c0             	movsbl %al,%eax
   13cbd:	89 c7                	mov    %eax,%edi
   13cbf:	e8 d2 18 ff ff       	callq  5596 <safe_unary_minus_func_int32_t_s>
   13cc4:	0f be d0             	movsbl %al,%edx
   13cc7:	8b 85 b4 e6 ff ff    	mov    -0x194c(%rbp),%eax
   13ccd:	0f be c0             	movsbl %al,%eax
   13cd0:	89 d6                	mov    %edx,%esi
   13cd2:	89 c7                	mov    %eax,%edi
   13cd4:	e8 39 15 ff ff       	callq  5212 <safe_mul_func_int8_t_s_s>
   13cd9:	0f be d0             	movsbl %al,%edx
   13cdc:	48 8b 85 40 eb ff ff 	mov    -0x14c0(%rbp),%rax
   13ce3:	48 85 c0             	test   %rax,%rax
   13ce6:	0f 95 c0             	setne  %al
   13ce9:	0f b6 c0             	movzbl %al,%eax
   13cec:	39 c2                	cmp    %eax,%edx
   13cee:	0f 9c c0             	setl   %al
   13cf1:	0f b6 d0             	movzbl %al,%edx
   13cf4:	0f b7 85 ea e6 ff ff 	movzwl -0x1916(%rbp),%eax
   13cfb:	0f b6 c0             	movzbl %al,%eax
   13cfe:	89 d6                	mov    %edx,%esi
   13d00:	89 c7                	mov    %eax,%edi
   13d02:	e8 8c 1e ff ff       	callq  5b93 <safe_mul_func_uint8_t_u_u>
   13d07:	0f b6 c0             	movzbl %al,%eax
   13d0a:	44 89 e6             	mov    %r12d,%esi
   13d0d:	89 c7                	mov    %eax,%edi
   13d0f:	e8 aa 1f ff ff       	callq  5cbe <safe_rshift_func_uint8_t_u_u>
   13d14:	0f b6 c0             	movzbl %al,%eax
   13d17:	21 d8                	and    %ebx,%eax
   13d19:	85 c0                	test   %eax,%eax
   13d1b:	48 8b 85 c0 e6 ff ff 	mov    -0x1940(%rbp),%rax
   13d22:	48 c7 00 00 00 00 00 	movq   $0x0,(%rax)
   13d29:	48 8b 85 c0 e6 ff ff 	mov    -0x1940(%rbp),%rax
   13d30:	48 8b 00             	mov    (%rax),%rax
   13d33:	49 89 c0             	mov    %rax,%r8
   13d36:	0f b7 85 dc e6 ff ff 	movzwl -0x1924(%rbp),%eax
   13d3d:	98                   	cwtl   
   13d3e:	0f b7 95 dc e6 ff ff 	movzwl -0x1924(%rbp),%edx
   13d45:	0f bf d2             	movswl %dx,%edx
   13d48:	48 63 d2             	movslq %edx,%rdx
   13d4b:	48 98                	cltq   
   13d4d:	48 01 d0             	add    %rdx,%rax
   13d50:	48 8d 14 c5 00 00 00 	lea    0x0(,%rax,8),%rdx
   13d57:	00 
   13d58:	48 8d 05 61 b7 00 00 	lea    0xb761(%rip),%rax        # 1f4c0 <g_140>
   13d5f:	48 8b 0c 02          	mov    (%rdx,%rax,1),%rcx
   13d63:	8b 85 b4 e6 ff ff    	mov    -0x194c(%rbp),%eax
   13d69:	8d 50 04             	lea    0x4(%rax),%edx
   13d6c:	0f b7 85 de e6 ff ff 	movzwl -0x1922(%rbp),%eax
   13d73:	98                   	cwtl   
   13d74:	83 c0 04             	add    $0x4,%eax
   13d77:	48 8b 35 b2 c0 00 00 	mov    0xc0b2(%rip),%rsi        # 1fe30 <g_251>
   13d7e:	48 63 f8             	movslq %eax,%rdi
   13d81:	48 63 d2             	movslq %edx,%rdx
   13d84:	48 89 d0             	mov    %rdx,%rax
   13d87:	48 c1 e0 02          	shl    $0x2,%rax
   13d8b:	48 01 d0             	add    %rdx,%rax
   13d8e:	48 01 c0             	add    %rax,%rax
   13d91:	48 01 f8             	add    %rdi,%rax
   13d94:	48 c1 e0 02          	shl    $0x2,%rax
   13d98:	48 01 f0             	add    %rsi,%rax
   13d9b:	8b 84 85 b0 f5 ff ff 	mov    -0xa50(%rbp,%rax,4),%eax
   13da2:	48 98                	cltq   
   13da4:	48 39 c1             	cmp    %rax,%rcx
   13da7:	0f 96 c0             	setbe  %al
   13daa:	0f b6 c0             	movzbl %al,%eax
   13dad:	4c 89 c6             	mov    %r8,%rsi
   13db0:	48 89 c7             	mov    %rax,%rdi
   13db3:	e8 93 22 ff ff       	callq  604b <safe_sub_func_uint64_t_u_u>
   13db8:	8b 85 cc e6 ff ff    	mov    -0x1934(%rbp),%eax
   13dbe:	8b 95 c8 e6 ff ff    	mov    -0x1938(%rbp),%edx
   13dc4:	39 d0                	cmp    %edx,%eax
   13dc6:	8b 95 70 ed ff ff    	mov    -0x1290(%rbp),%edx
   13dcc:	48 8b 85 50 e8 ff ff 	mov    -0x17b0(%rbp),%rax
   13dd3:	8b 00                	mov    (%rax),%eax
   13dd5:	21 c2                	and    %eax,%edx
   13dd7:	48 8b 85 50 e8 ff ff 	mov    -0x17b0(%rbp),%rax
   13dde:	89 10                	mov    %edx,(%rax)
   13de0:	8b 85 b4 e6 ff ff    	mov    -0x194c(%rbp),%eax
   13de6:	48 8b 15 43 c0 00 00 	mov    0xc043(%rip),%rdx        # 1fe30 <g_251>
   13ded:	48 8d 72 04          	lea    0x4(%rdx),%rsi
   13df1:	48 8b 0d 38 c0 00 00 	mov    0xc038(%rip),%rcx        # 1fe30 <g_251>
   13df8:	48 63 d0             	movslq %eax,%rdx
   13dfb:	48 89 d0             	mov    %rdx,%rax
   13dfe:	48 c1 e0 02          	shl    $0x2,%rax
   13e02:	48 01 d0             	add    %rdx,%rax
   13e05:	48 01 c0             	add    %rax,%rax
   13e08:	48 01 f0             	add    %rsi,%rax
   13e0b:	48 c1 e0 02          	shl    $0x2,%rax
   13e0f:	48 01 c8             	add    %rcx,%rax
   13e12:	8b 84 85 b0 f5 ff ff 	mov    -0xa50(%rbp,%rax,4),%eax
   13e19:	89 c1                	mov    %eax,%ecx
   13e1b:	48 8b 15 4e d7 00 00 	mov    0xd74e(%rip),%rdx        # 21570 <g_260>
   13e22:	48 8b 85 c8 e7 ff ff 	mov    -0x1838(%rbp),%rax
   13e29:	0f b7 12             	movzwl (%rdx),%edx
   13e2c:	66 89 10             	mov    %dx,(%rax)
   13e2f:	0f b7 00             	movzwl (%rax),%eax
   13e32:	0f b7 c0             	movzwl %ax,%eax
   13e35:	89 ce                	mov    %ecx,%esi
   13e37:	89 c7                	mov    %eax,%edi
   13e39:	e8 3c 20 ff ff       	callq  5e7a <safe_rshift_func_uint16_t_u_u>
   13e3e:	48 8b 15 63 d7 00 00 	mov    0xd763(%rip),%rdx        # 215a8 <g_554>
   13e45:	8b 0a                	mov    (%rdx),%ecx
   13e47:	0f b7 d0             	movzwl %ax,%edx
   13e4a:	48 8b 05 57 d7 00 00 	mov    0xd757(%rip),%rax        # 215a8 <g_554>
   13e51:	31 ca                	xor    %ecx,%edx
   13e53:	89 10                	mov    %edx,(%rax)
   13e55:	0f b6 85 d4 e6 ff ff 	movzbl -0x192c(%rbp),%eax
   13e5c:	83 e8 01             	sub    $0x1,%eax
   13e5f:	88 85 d4 e6 ff ff    	mov    %al,-0x192c(%rbp)
   13e65:	0f b7 85 dc e6 ff ff 	movzwl -0x1924(%rbp),%eax
   13e6c:	83 e8 01             	sub    $0x1,%eax
   13e6f:	66 89 85 dc e6 ff ff 	mov    %ax,-0x1924(%rbp)
   13e76:	0f b7 85 dc e6 ff ff 	movzwl -0x1924(%rbp),%eax
   13e7d:	66 85 c0             	test   %ax,%ax
   13e80:	0f 89 9a fc ff ff    	jns    13b20 <func_62+0x477e>
   13e86:	48 8b 05 a3 bf 00 00 	mov    0xbfa3(%rip),%rax        # 1fe30 <g_251>
   13e8d:	48 83 c0 01          	add    $0x1,%rax
   13e91:	48 89 05 98 bf 00 00 	mov    %rax,0xbf98(%rip)        # 1fe30 <g_251>
   13e98:	48 8b 05 91 bf 00 00 	mov    0xbf91(%rip),%rax        # 1fe30 <g_251>
   13e9f:	48 83 f8 03          	cmp    $0x3,%rax
   13ea3:	0f 8e 6c fa ff ff    	jle    13915 <func_62+0x4573>
   13ea9:	eb 01                	jmp    13eac <func_62+0x4b0a>
   13eab:	90                   	nop
   13eac:	0f b7 85 de e6 ff ff 	movzwl -0x1922(%rbp),%eax
   13eb3:	83 e8 01             	sub    $0x1,%eax
   13eb6:	66 89 85 de e6 ff ff 	mov    %ax,-0x1922(%rbp)
   13ebd:	0f b7 85 de e6 ff ff 	movzwl -0x1922(%rbp),%eax
   13ec4:	66 85 c0             	test   %ax,%ax
   13ec7:	0f 89 92 f9 ff ff    	jns    1385f <func_62+0x44bd>
   13ecd:	8b 05 65 bf 00 00    	mov    0xbf65(%rip),%eax        # 1fe38 <g_253>
   13ed3:	89 c2                	mov    %eax,%edx
   13ed5:	48 8b 85 e0 e9 ff ff 	mov    -0x1620(%rbp),%rax
   13edc:	48 89 10             	mov    %rdx,(%rax)
   13edf:	48 8b 85 e0 e9 ff ff 	mov    -0x1620(%rbp),%rax
   13ee6:	48 8b 10             	mov    (%rax),%rdx
   13ee9:	48 8b 05 d0 b5 00 00 	mov    0xb5d0(%rip),%rax        # 1f4c0 <g_140>
   13ef0:	48 8d 48 01          	lea    0x1(%rax),%rcx
   13ef4:	48 89 0d c5 b5 00 00 	mov    %rcx,0xb5c5(%rip)        # 1f4c0 <g_140>
   13efb:	48 89 d6             	mov    %rdx,%rsi
   13efe:	48 89 c7             	mov    %rax,%rdi
   13f01:	e8 7a 21 ff ff       	callq  6080 <safe_mod_func_uint64_t_u_u>
   13f06:	48 85 c0             	test   %rax,%rax
   13f09:	74 20                	je     13f2b <func_62+0x4b89>
   13f0b:	be 01 00 00 00       	mov    $0x1,%esi
   13f10:	bf 01 00 00 00       	mov    $0x1,%edi
   13f15:	e8 27 19 ff ff       	callq  5841 <safe_add_func_int64_t_s_s>
   13f1a:	8b 85 c8 e6 ff ff    	mov    -0x1938(%rbp),%eax
   13f20:	85 c0                	test   %eax,%eax
   13f22:	74 07                	je     13f2b <func_62+0x4b89>
   13f24:	ba 01 00 00 00       	mov    $0x1,%edx
   13f29:	eb 05                	jmp    13f30 <func_62+0x4b8e>
   13f2b:	ba 00 00 00 00       	mov    $0x0,%edx
   13f30:	48 8b 85 50 e8 ff ff 	mov    -0x17b0(%rbp),%rax
   13f37:	89 10                	mov    %edx,(%rax)
   13f39:	c7 85 fc e6 ff ff 00 	movl   $0x0,-0x1904(%rbp)
   13f40:	00 00 00 
   13f43:	eb 6b                	jmp    13fb0 <func_62+0x4c0e>
   13f45:	48 8b 85 30 e8 ff ff 	mov    -0x17d0(%rbp),%rax
   13f4c:	48 8d 95 b0 f5 ff ff 	lea    -0xa50(%rbp),%rdx
   13f53:	48 81 c2 14 01 00 00 	add    $0x114,%rdx
   13f5a:	48 89 10             	mov    %rdx,(%rax)
   13f5d:	48 c7 05 58 bd 00 00 	movq   $0x1,0xbd58(%rip)        # 1fcc0 <g_152>
   13f64:	01 00 00 00 
   13f68:	90                   	nop
   13f69:	48 8b 05 50 bd 00 00 	mov    0xbd50(%rip),%rax        # 1fcc0 <g_152>
   13f70:	48 85 c0             	test   %rax,%rax
   13f73:	78 2c                	js     13fa1 <func_62+0x4bff>
   13f75:	8b 85 fc e6 ff ff    	mov    -0x1904(%rbp),%eax
   13f7b:	8b 95 fc e6 ff ff    	mov    -0x1904(%rbp),%edx
   13f81:	48 63 d2             	movslq %edx,%rdx
   13f84:	48 98                	cltq   
   13f86:	48 01 d0             	add    %rdx,%rax
   13f89:	48 8d 14 c5 00 00 00 	lea    0x0(,%rax,8),%rdx
   13f90:	00 
   13f91:	48 8d 05 28 b5 00 00 	lea    0xb528(%rip),%rax        # 1f4c0 <g_140>
   13f98:	48 8b 04 02          	mov    (%rdx,%rax,1),%rax
   13f9c:	e9 02 02 00 00       	jmpq   141a3 <func_62+0x4e01>
   13fa1:	8b 85 fc e6 ff ff    	mov    -0x1904(%rbp),%eax
   13fa7:	83 c0 01             	add    $0x1,%eax
   13faa:	89 85 fc e6 ff ff    	mov    %eax,-0x1904(%rbp)
   13fb0:	8b 85 fc e6 ff ff    	mov    -0x1904(%rbp),%eax
   13fb6:	85 c0                	test   %eax,%eax
   13fb8:	7e 8b                	jle    13f45 <func_62+0x4ba3>
   13fba:	8b 85 b4 e6 ff ff    	mov    -0x194c(%rbp),%eax
   13fc0:	83 c0 01             	add    $0x1,%eax
   13fc3:	89 85 b4 e6 ff ff    	mov    %eax,-0x194c(%rbp)
   13fc9:	8b 85 b4 e6 ff ff    	mov    -0x194c(%rbp),%eax
   13fcf:	83 f8 01             	cmp    $0x1,%eax
   13fd2:	0f 8e 29 f4 ff ff    	jle    13401 <func_62+0x405f>
   13fd8:	c6 05 59 b0 00 00 00 	movb   $0x0,0xb059(%rip)        # 1f038 <g_82>
   13fdf:	e9 94 01 00 00       	jmpq   14178 <func_62+0x4dd6>
   13fe4:	48 8d 05 85 d5 00 00 	lea    0xd585(%rip),%rax        # 21570 <g_260>
   13feb:	48 89 85 20 e8 ff ff 	mov    %rax,-0x17e0(%rbp)
   13ff2:	48 8d 85 20 e8 ff ff 	lea    -0x17e0(%rbp),%rax
   13ff9:	48 89 85 b0 e9 ff ff 	mov    %rax,-0x1650(%rbp)
   14000:	c7 85 18 e8 ff ff 31 	movl   $0x99f7bc31,-0x17e8(%rbp)
   14007:	bc f7 99 
   1400a:	48 8d 85 dc e6 ff ff 	lea    -0x1924(%rbp),%rax
   14011:	48 89 85 28 e8 ff ff 	mov    %rax,-0x17d8(%rbp)
   14018:	48 8d 85 28 e8 ff ff 	lea    -0x17d8(%rbp),%rax
   1401f:	48 89 85 b8 e9 ff ff 	mov    %rax,-0x1648(%rbp)
   14026:	48 8d 85 de e6 ff ff 	lea    -0x1922(%rbp),%rax
   1402d:	48 89 85 c0 e9 ff ff 	mov    %rax,-0x1640(%rbp)
   14034:	0f b7 05 01 be 00 00 	movzwl 0xbe01(%rip),%eax        # 1fe3c <g_261>
   1403b:	0f b7 d8             	movzwl %ax,%ebx
   1403e:	48 8b 85 b8 e9 ff ff 	mov    -0x1648(%rbp),%rax
   14045:	48 8d 95 de e6 ff ff 	lea    -0x1922(%rbp),%rdx
   1404c:	48 89 10             	mov    %rdx,(%rax)
   1404f:	48 8b 85 b8 e9 ff ff 	mov    -0x1648(%rbp),%rax
   14056:	48 8b 00             	mov    (%rax),%rax
   14059:	48 89 85 c0 e9 ff ff 	mov    %rax,-0x1640(%rbp)
   14060:	48 8d 85 e0 e6 ff ff 	lea    -0x1920(%rbp),%rax
   14067:	48 39 85 c0 e9 ff ff 	cmp    %rax,-0x1640(%rbp)
   1406e:	8b 85 c8 e6 ff ff    	mov    -0x1938(%rbp),%eax
   14074:	44 0f b6 e0          	movzbl %al,%r12d
   14078:	8b 95 c8 e6 ff ff    	mov    -0x1938(%rbp),%edx
   1407e:	48 8b 85 50 e8 ff ff 	mov    -0x17b0(%rbp),%rax
   14085:	89 10                	mov    %edx,(%rax)
   14087:	48 8b 85 50 e8 ff ff 	mov    -0x17b0(%rbp),%rax
   1408e:	44 8b 28             	mov    (%rax),%r13d
   14091:	8b 85 cc e6 ff ff    	mov    -0x1934(%rbp),%eax
   14097:	f7 d0                	not    %eax
   14099:	0f be c0             	movsbl %al,%eax
   1409c:	89 c6                	mov    %eax,%esi
   1409e:	bf a2 ff ff ff       	mov    $0xffffffa2,%edi
   140a3:	e8 6a 11 ff ff       	callq  5212 <safe_mul_func_int8_t_s_s>
   140a8:	be 05 00 00 00       	mov    $0x5,%esi
   140ad:	bf 01 00 00 00       	mov    $0x1,%edi
   140b2:	e8 f7 1a ff ff       	callq  5bae <safe_mod_func_uint8_t_u_u>
   140b7:	0f b6 c0             	movzbl %al,%eax
   140ba:	44 09 e8             	or     %r13d,%eax
   140bd:	83 f8 06             	cmp    $0x6,%eax
   140c0:	0f 96 c0             	setbe  %al
   140c3:	0f b6 d0             	movzbl %al,%edx
   140c6:	48 8b 05 a3 d4 00 00 	mov    0xd4a3(%rip),%rax        # 21570 <g_260>
   140cd:	0f b7 00             	movzwl (%rax),%eax
   140d0:	0f b7 c0             	movzwl %ax,%eax
   140d3:	39 c2                	cmp    %eax,%edx
   140d5:	0f 9f c0             	setg   %al
   140d8:	0f b6 c0             	movzbl %al,%eax
   140db:	44 89 e6             	mov    %r12d,%esi
   140de:	89 c7                	mov    %eax,%edi
   140e0:	e8 75 1a ff ff       	callq  5b5a <safe_add_func_uint8_t_u_u>
   140e5:	0f b6 c0             	movzbl %al,%eax
   140e8:	be ce 59 ad 97       	mov    $0x97ad59ce,%esi
   140ed:	89 c7                	mov    %eax,%edi
   140ef:	e8 c2 14 ff ff       	callq  55b6 <safe_add_func_int32_t_s_s>
   140f4:	3d 50 c7 00 00       	cmp    $0xc750,%eax
   140f9:	0f 9f c0             	setg   %al
   140fc:	0f b6 d0             	movzbl %al,%edx
   140ff:	48 8b 85 f8 e8 ff ff 	mov    -0x1708(%rbp),%rax
   14106:	48 89 10             	mov    %rdx,(%rax)
   14109:	48 8b 85 b0 e9 ff ff 	mov    -0x1650(%rbp),%rax
   14110:	48 c7 00 00 00 00 00 	movq   $0x0,(%rax)
   14117:	48 8b 85 b0 e9 ff ff 	mov    -0x1650(%rbp),%rax
   1411e:	48 8b 00             	mov    (%rax),%rax
   14121:	48 8d 15 48 d4 00 00 	lea    0xd448(%rip),%rdx        # 21570 <g_260>
   14128:	48 39 d0             	cmp    %rdx,%rax
   1412b:	0f 95 c0             	setne  %al
   1412e:	0f b6 c0             	movzbl %al,%eax
   14131:	48 89 de             	mov    %rbx,%rsi
   14134:	48 89 c7             	mov    %rax,%rdi
   14137:	e8 6c 17 ff ff       	callq  58a8 <safe_sub_func_int64_t_s_s>
   1413c:	48 89 c2             	mov    %rax,%rdx
   1413f:	48 8b 05 62 d4 00 00 	mov    0xd462(%rip),%rax        # 215a8 <g_554>
   14146:	89 10                	mov    %edx,(%rax)
   14148:	c7 05 1e bd 00 00 00 	movl   $0x0,0xbd1e(%rip)        # 1fe70 <g_481>
   1414f:	00 00 00 
   14152:	90                   	nop
   14153:	8b 05 17 bd 00 00    	mov    0xbd17(%rip),%eax        # 1fe70 <g_481>
   14159:	83 f8 1a             	cmp    $0x1a,%eax
   1415c:	7f 0a                	jg     14168 <func_62+0x4dc6>
   1415e:	8b 85 cc e6 ff ff    	mov    -0x1934(%rbp),%eax
   14164:	89 c0                	mov    %eax,%eax
   14166:	eb 3b                	jmp    141a3 <func_62+0x4e01>
   14168:	0f b6 05 c9 ae 00 00 	movzbl 0xaec9(%rip),%eax        # 1f038 <g_82>
   1416f:	83 c0 01             	add    $0x1,%eax
   14172:	88 05 c0 ae 00 00    	mov    %al,0xaec0(%rip)        # 1f038 <g_82>
   14178:	0f b6 05 b9 ae 00 00 	movzbl 0xaeb9(%rip),%eax        # 1f038 <g_82>
   1417f:	3c 11                	cmp    $0x11,%al
   14181:	0f 84 5d fe ff ff    	je     13fe4 <func_62+0x4c42>
   14187:	48 8b 05 12 e3 00 00 	mov    0xe312(%rip),%rax        # 224a0 <g_674>
   1418e:	48 89 85 10 e9 ff ff 	mov    %rax,-0x16f0(%rbp)
   14195:	8b 05 b1 bc 00 00    	mov    0xbcb1(%rip),%eax        # 1fe4c <g_277+0xc>
   1419b:	c1 e0 08             	shl    $0x8,%eax
   1419e:	c1 f8 08             	sar    $0x8,%eax
   141a1:	48 98                	cltq   
   141a3:	48 8b 5d c8          	mov    -0x38(%rbp),%rbx
   141a7:	64 48 33 1c 25 28 00 	xor    %fs:0x28,%rbx
   141ae:	00 00 
   141b0:	74 05                	je     141b7 <func_62+0x4e15>
   141b2:	e8 b9 0e ff ff       	callq  5070 <__stack_chk_fail@plt>
   141b7:	48 81 c4 38 19 00 00 	add    $0x1938,%rsp
   141be:	5b                   	pop    %rbx
   141bf:	41 5c                	pop    %r12
   141c1:	41 5d                	pop    %r13
   141c3:	41 5e                	pop    %r14
   141c5:	41 5f                	pop    %r15
   141c7:	5d                   	pop    %rbp
   141c8:	c3                   	retq   

00000000000141c9 <main>:
   141c9:	f3 0f 1e fa          	endbr64 
   141cd:	55                   	push   %rbp
   141ce:	48 89 e5             	mov    %rsp,%rbp
   141d1:	48 83 ec 20          	sub    $0x20,%rsp
   141d5:	89 7d ec             	mov    %edi,-0x14(%rbp)
   141d8:	48 89 75 e0          	mov    %rsi,-0x20(%rbp)
   141dc:	c7 45 fc 00 00 00 00 	movl   $0x0,-0x4(%rbp)
   141e3:	83 7d ec 02          	cmpl   $0x2,-0x14(%rbp)
   141e7:	75 25                	jne    1420e <main+0x45>
   141e9:	48 8b 45 e0          	mov    -0x20(%rbp),%rax
   141ed:	48 83 c0 08          	add    $0x8,%rax
   141f1:	48 8b 00             	mov    (%rax),%rax
   141f4:	48 8d 35 85 72 00 00 	lea    0x7285(%rip),%rsi        # 1b480 <g_2129+0x1fc0>
   141fb:	48 89 c7             	mov    %rax,%rdi
   141fe:	e8 8d 0e ff ff       	callq  5090 <strcmp@plt>
   14203:	85 c0                	test   %eax,%eax
   14205:	75 07                	jne    1420e <main+0x45>
   14207:	c7 45 fc 01 00 00 00 	movl   $0x1,-0x4(%rbp)
   1420e:	e8 76 0f ff ff       	callq  5189 <platform_main_begin>
   14213:	e8 80 23 ff ff       	callq  6598 <crc32_gentab>
   14218:	e8 98 25 ff ff       	callq  67b5 <func_1>
   1421d:	8b 05 01 ae 00 00    	mov    0xae01(%rip),%eax        # 1f024 <g_2>
   14223:	48 98                	cltq   
   14225:	8b 55 fc             	mov    -0x4(%rbp),%edx
   14228:	48 8d 35 53 72 00 00 	lea    0x7253(%rip),%rsi        # 1b482 <g_2129+0x1fc2>
   1422f:	48 89 c7             	mov    %rax,%rdi
   14232:	e8 bc 24 ff ff       	callq  66f3 <transparent_crc>
   14237:	8b 05 eb ad 00 00    	mov    0xadeb(%rip),%eax        # 1f028 <g_3>
   1423d:	48 98                	cltq   
   1423f:	8b 55 fc             	mov    -0x4(%rbp),%edx
   14242:	48 8d 35 3d 72 00 00 	lea    0x723d(%rip),%rsi        # 1b486 <g_2129+0x1fc6>
   14249:	48 89 c7             	mov    %rax,%rdi
   1424c:	e8 a2 24 ff ff       	callq  66f3 <transparent_crc>
   14251:	8b 05 d5 ad 00 00    	mov    0xadd5(%rip),%eax        # 1f02c <g_4>
   14257:	48 98                	cltq   
   14259:	8b 55 fc             	mov    -0x4(%rbp),%edx
   1425c:	48 8d 35 27 72 00 00 	lea    0x7227(%rip),%rsi        # 1b48a <g_2129+0x1fca>
   14263:	48 89 c7             	mov    %rax,%rdi
   14266:	e8 88 24 ff ff       	callq  66f3 <transparent_crc>
   1426b:	48 8b 05 be ad 00 00 	mov    0xadbe(%rip),%rax        # 1f030 <g_42>
   14272:	48 89 c1             	mov    %rax,%rcx
   14275:	8b 45 fc             	mov    -0x4(%rbp),%eax
   14278:	89 c2                	mov    %eax,%edx
   1427a:	48 8d 35 0d 72 00 00 	lea    0x720d(%rip),%rsi        # 1b48e <g_2129+0x1fce>
   14281:	48 89 cf             	mov    %rcx,%rdi
   14284:	e8 6a 24 ff ff       	callq  66f3 <transparent_crc>
   14289:	0f b6 05 a8 ad 00 00 	movzbl 0xada8(%rip),%eax        # 1f038 <g_82>
   14290:	0f b6 c0             	movzbl %al,%eax
   14293:	8b 55 fc             	mov    -0x4(%rbp),%edx
   14296:	48 8d 35 f6 71 00 00 	lea    0x71f6(%rip),%rsi        # 1b493 <g_2129+0x1fd3>
   1429d:	48 89 c7             	mov    %rax,%rdi
   142a0:	e8 4e 24 ff ff       	callq  66f3 <transparent_crc>
   142a5:	c7 45 f0 00 00 00 00 	movl   $0x0,-0x10(%rbp)
   142ac:	e9 a1 00 00 00       	jmpq   14352 <main+0x189>
   142b1:	c7 45 f4 00 00 00 00 	movl   $0x0,-0xc(%rbp)
   142b8:	e9 87 00 00 00       	jmpq   14344 <main+0x17b>
   142bd:	c7 45 f8 00 00 00 00 	movl   $0x0,-0x8(%rbp)
   142c4:	eb 74                	jmp    1433a <main+0x171>
   142c6:	8b 45 f8             	mov    -0x8(%rbp),%eax
   142c9:	48 63 c8             	movslq %eax,%rcx
   142cc:	8b 45 f0             	mov    -0x10(%rbp),%eax
   142cf:	48 63 d0             	movslq %eax,%rdx
   142d2:	8b 45 f4             	mov    -0xc(%rbp),%eax
   142d5:	48 63 f0             	movslq %eax,%rsi
   142d8:	48 89 d0             	mov    %rdx,%rax
   142db:	48 c1 e0 03          	shl    $0x3,%rax
   142df:	48 01 d0             	add    %rdx,%rax
   142e2:	48 01 f0             	add    %rsi,%rax
   142e5:	48 c1 e0 03          	shl    $0x3,%rax
   142e9:	48 01 c8             	add    %rcx,%rax
   142ec:	48 8d 14 85 00 00 00 	lea    0x0(,%rax,4),%rdx
   142f3:	00 
   142f4:	48 8d 05 45 ad 00 00 	lea    0xad45(%rip),%rax        # 1f040 <g_84>
   142fb:	8b 04 02             	mov    (%rdx,%rax,1),%eax
   142fe:	89 c1                	mov    %eax,%ecx
   14300:	8b 45 fc             	mov    -0x4(%rbp),%eax
   14303:	89 c2                	mov    %eax,%edx
   14305:	48 8d 35 8c 71 00 00 	lea    0x718c(%rip),%rsi        # 1b498 <g_2129+0x1fd8>
   1430c:	48 89 cf             	mov    %rcx,%rdi
   1430f:	e8 df 23 ff ff       	callq  66f3 <transparent_crc>
   14314:	83 7d fc 00          	cmpl   $0x0,-0x4(%rbp)
   14318:	74 1c                	je     14336 <main+0x16d>
   1431a:	8b 4d f8             	mov    -0x8(%rbp),%ecx
   1431d:	8b 55 f4             	mov    -0xc(%rbp),%edx
   14320:	8b 45 f0             	mov    -0x10(%rbp),%eax
   14323:	89 c6                	mov    %eax,%esi
   14325:	48 8d 3d 7a 71 00 00 	lea    0x717a(%rip),%rdi        # 1b4a6 <g_2129+0x1fe6>
   1432c:	b8 00 00 00 00       	mov    $0x0,%eax
   14331:	e8 4a 0d ff ff       	callq  5080 <printf@plt>
   14336:	83 45 f8 01          	addl   $0x1,-0x8(%rbp)
   1433a:	83 7d f8 07          	cmpl   $0x7,-0x8(%rbp)
   1433e:	7e 86                	jle    142c6 <main+0xfd>
   14340:	83 45 f4 01          	addl   $0x1,-0xc(%rbp)
   14344:	83 7d f4 08          	cmpl   $0x8,-0xc(%rbp)
   14348:	0f 8e 6f ff ff ff    	jle    142bd <main+0xf4>
   1434e:	83 45 f0 01          	addl   $0x1,-0x10(%rbp)
   14352:	83 7d f0 02          	cmpl   $0x2,-0x10(%rbp)
   14356:	0f 8e 55 ff ff ff    	jle    142b1 <main+0xe8>
   1435c:	c7 45 f0 00 00 00 00 	movl   $0x0,-0x10(%rbp)
   14363:	eb 77                	jmp    143dc <main+0x213>
   14365:	c7 45 f4 00 00 00 00 	movl   $0x0,-0xc(%rbp)
   1436c:	eb 64                	jmp    143d2 <main+0x209>
   1436e:	8b 45 f4             	mov    -0xc(%rbp),%eax
   14371:	48 63 c8             	movslq %eax,%rcx
   14374:	8b 45 f0             	mov    -0x10(%rbp),%eax
   14377:	48 63 d0             	movslq %eax,%rdx
   1437a:	48 89 d0             	mov    %rdx,%rax
   1437d:	48 c1 e0 03          	shl    $0x3,%rax
   14381:	48 29 d0             	sub    %rdx,%rax
   14384:	48 01 c8             	add    %rcx,%rax
   14387:	48 8d 14 85 00 00 00 	lea    0x0(,%rax,4),%rdx
   1438e:	00 
   1438f:	48 8d 05 0a b0 00 00 	lea    0xb00a(%rip),%rax        # 1f3a0 <g_102>
   14396:	8b 04 02             	mov    (%rdx,%rax,1),%eax
   14399:	89 c1                	mov    %eax,%ecx
   1439b:	8b 45 fc             	mov    -0x4(%rbp),%eax
   1439e:	89 c2                	mov    %eax,%edx
   143a0:	48 8d 35 15 71 00 00 	lea    0x7115(%rip),%rsi        # 1b4bc <g_2129+0x1ffc>
   143a7:	48 89 cf             	mov    %rcx,%rdi
   143aa:	e8 44 23 ff ff       	callq  66f3 <transparent_crc>
   143af:	83 7d fc 00          	cmpl   $0x0,-0x4(%rbp)
   143b3:	74 19                	je     143ce <main+0x205>
   143b5:	8b 55 f4             	mov    -0xc(%rbp),%edx
   143b8:	8b 45 f0             	mov    -0x10(%rbp),%eax
   143bb:	89 c6                	mov    %eax,%esi
   143bd:	48 8d 3d 04 71 00 00 	lea    0x7104(%rip),%rdi        # 1b4c8 <g_2129+0x2008>
   143c4:	b8 00 00 00 00       	mov    $0x0,%eax
   143c9:	e8 b2 0c ff ff       	callq  5080 <printf@plt>
   143ce:	83 45 f4 01          	addl   $0x1,-0xc(%rbp)
   143d2:	83 7d f4 06          	cmpl   $0x6,-0xc(%rbp)
   143d6:	7e 96                	jle    1436e <main+0x1a5>
   143d8:	83 45 f0 01          	addl   $0x1,-0x10(%rbp)
   143dc:	83 7d f0 09          	cmpl   $0x9,-0x10(%rbp)
   143e0:	7e 83                	jle    14365 <main+0x19c>
   143e2:	8b 05 d0 b0 00 00    	mov    0xb0d0(%rip),%eax        # 1f4b8 <g_107>
   143e8:	48 98                	cltq   
   143ea:	8b 55 fc             	mov    -0x4(%rbp),%edx
   143ed:	48 8d 35 e6 70 00 00 	lea    0x70e6(%rip),%rsi        # 1b4da <g_2129+0x201a>
   143f4:	48 89 c7             	mov    %rax,%rdi
   143f7:	e8 f7 22 ff ff       	callq  66f3 <transparent_crc>
   143fc:	c7 45 f0 00 00 00 00 	movl   $0x0,-0x10(%rbp)
   14403:	eb 69                	jmp    1446e <main+0x2a5>
   14405:	c7 45 f4 00 00 00 00 	movl   $0x0,-0xc(%rbp)
   1440c:	eb 56                	jmp    14464 <main+0x29b>
   1440e:	8b 45 f4             	mov    -0xc(%rbp),%eax
   14411:	48 63 d0             	movslq %eax,%rdx
   14414:	8b 45 f0             	mov    -0x10(%rbp),%eax
   14417:	48 98                	cltq   
   14419:	48 01 d0             	add    %rdx,%rax
   1441c:	48 8d 14 c5 00 00 00 	lea    0x0(,%rax,8),%rdx
   14423:	00 
   14424:	48 8d 05 95 b0 00 00 	lea    0xb095(%rip),%rax        # 1f4c0 <g_140>
   1442b:	48 8b 04 02          	mov    (%rdx,%rax,1),%rax
   1442f:	8b 55 fc             	mov    -0x4(%rbp),%edx
   14432:	48 8d 35 a7 70 00 00 	lea    0x70a7(%rip),%rsi        # 1b4e0 <g_2129+0x2020>
   14439:	48 89 c7             	mov    %rax,%rdi
   1443c:	e8 b2 22 ff ff       	callq  66f3 <transparent_crc>
   14441:	83 7d fc 00          	cmpl   $0x0,-0x4(%rbp)
   14445:	74 19                	je     14460 <main+0x297>
   14447:	8b 55 f4             	mov    -0xc(%rbp),%edx
   1444a:	8b 45 f0             	mov    -0x10(%rbp),%eax
   1444d:	89 c6                	mov    %eax,%esi
   1444f:	48 8d 3d 72 70 00 00 	lea    0x7072(%rip),%rdi        # 1b4c8 <g_2129+0x2008>
   14456:	b8 00 00 00 00       	mov    $0x0,%eax
   1445b:	e8 20 0c ff ff       	callq  5080 <printf@plt>
   14460:	83 45 f4 01          	addl   $0x1,-0xc(%rbp)
   14464:	83 7d f4 00          	cmpl   $0x0,-0xc(%rbp)
   14468:	7e a4                	jle    1440e <main+0x245>
   1446a:	83 45 f0 01          	addl   $0x1,-0x10(%rbp)
   1446e:	83 7d f0 00          	cmpl   $0x0,-0x10(%rbp)
   14472:	7e 91                	jle    14405 <main+0x23c>
   14474:	c7 45 f0 00 00 00 00 	movl   $0x0,-0x10(%rbp)
   1447b:	e9 29 05 00 00       	jmpq   149a9 <main+0x7e0>
   14480:	c7 45 f4 00 00 00 00 	movl   $0x0,-0xc(%rbp)
   14487:	e9 0f 05 00 00       	jmpq   1499b <main+0x7d2>
   1448c:	c7 45 f8 00 00 00 00 	movl   $0x0,-0x8(%rbp)
   14493:	e9 f5 04 00 00       	jmpq   1498d <main+0x7c4>
   14498:	8b 45 f8             	mov    -0x8(%rbp),%eax
   1449b:	48 98                	cltq   
   1449d:	8b 55 f4             	mov    -0xc(%rbp),%edx
   144a0:	48 63 f2             	movslq %edx,%rsi
   144a3:	8b 55 f0             	mov    -0x10(%rbp),%edx
   144a6:	48 63 ca             	movslq %edx,%rcx
   144a9:	48 89 c2             	mov    %rax,%rdx
   144ac:	48 c1 e2 03          	shl    $0x3,%rdx
   144b0:	48 29 c2             	sub    %rax,%rdx
   144b3:	48 8d 04 95 00 00 00 	lea    0x0(,%rdx,4),%rax
   144ba:	00 
   144bb:	48 89 c2             	mov    %rax,%rdx
   144be:	48 89 f0             	mov    %rsi,%rax
   144c1:	48 c1 e0 02          	shl    $0x2,%rax
   144c5:	48 01 f0             	add    %rsi,%rax
   144c8:	48 c1 e0 02          	shl    $0x2,%rax
   144cc:	48 01 f0             	add    %rsi,%rax
   144cf:	48 c1 e0 03          	shl    $0x3,%rax
   144d3:	48 01 c2             	add    %rax,%rdx
   144d6:	48 89 c8             	mov    %rcx,%rax
   144d9:	48 c1 e0 02          	shl    $0x2,%rax
   144dd:	48 01 c8             	add    %rcx,%rax
   144e0:	48 c1 e0 02          	shl    $0x2,%rax
   144e4:	48 01 c8             	add    %rcx,%rax
   144e7:	48 c1 e0 05          	shl    $0x5,%rax
   144eb:	48 01 c2             	add    %rax,%rdx
   144ee:	48 8d 05 eb af 00 00 	lea    0xafeb(%rip),%rax        # 1f4e0 <g_142>
   144f5:	48 01 d0             	add    %rdx,%rax
   144f8:	8b 00                	mov    (%rax),%eax
   144fa:	25 ff ff 07 00       	and    $0x7ffff,%eax
   144ff:	89 c1                	mov    %eax,%ecx
   14501:	8b 45 fc             	mov    -0x4(%rbp),%eax
   14504:	89 c2                	mov    %eax,%edx
   14506:	48 8d 35 df 6f 00 00 	lea    0x6fdf(%rip),%rsi        # 1b4ec <g_2129+0x202c>
   1450d:	48 89 cf             	mov    %rcx,%rdi
   14510:	e8 de 21 ff ff       	callq  66f3 <transparent_crc>
   14515:	8b 45 f8             	mov    -0x8(%rbp),%eax
   14518:	48 98                	cltq   
   1451a:	8b 55 f4             	mov    -0xc(%rbp),%edx
   1451d:	48 63 f2             	movslq %edx,%rsi
   14520:	8b 55 f0             	mov    -0x10(%rbp),%edx
   14523:	48 63 ca             	movslq %edx,%rcx
   14526:	48 89 c2             	mov    %rax,%rdx
   14529:	48 c1 e2 03          	shl    $0x3,%rdx
   1452d:	48 29 c2             	sub    %rax,%rdx
   14530:	48 8d 04 95 00 00 00 	lea    0x0(,%rdx,4),%rax
   14537:	00 
   14538:	48 89 c2             	mov    %rax,%rdx
   1453b:	48 89 f0             	mov    %rsi,%rax
   1453e:	48 c1 e0 02          	shl    $0x2,%rax
   14542:	48 01 f0             	add    %rsi,%rax
   14545:	48 c1 e0 02          	shl    $0x2,%rax
   14549:	48 01 f0             	add    %rsi,%rax
   1454c:	48 c1 e0 03          	shl    $0x3,%rax
   14550:	48 01 c2             	add    %rax,%rdx
   14553:	48 89 c8             	mov    %rcx,%rax
   14556:	48 c1 e0 02          	shl    $0x2,%rax
   1455a:	48 01 c8             	add    %rcx,%rax
   1455d:	48 c1 e0 02          	shl    $0x2,%rax
   14561:	48 01 c8             	add    %rcx,%rax
   14564:	48 c1 e0 05          	shl    $0x5,%rax
   14568:	48 01 c2             	add    %rax,%rdx
   1456b:	48 8d 05 6e af 00 00 	lea    0xaf6e(%rip),%rax        # 1f4e0 <g_142>
   14572:	48 01 d0             	add    %rdx,%rax
   14575:	0f b7 50 02          	movzwl 0x2(%rax),%edx
   14579:	66 c1 ea 03          	shr    $0x3,%dx
   1457d:	0f b7 d2             	movzwl %dx,%edx
   14580:	0f b7 40 04          	movzwl 0x4(%rax),%eax
   14584:	48 c1 e0 0d          	shl    $0xd,%rax
   14588:	48 09 d0             	or     %rdx,%rax
   1458b:	48 c1 e0 23          	shl    $0x23,%rax
   1458f:	48 c1 f8 23          	sar    $0x23,%rax
   14593:	48 98                	cltq   
   14595:	8b 55 fc             	mov    -0x4(%rbp),%edx
   14598:	48 8d 35 5f 6f 00 00 	lea    0x6f5f(%rip),%rsi        # 1b4fe <g_2129+0x203e>
   1459f:	48 89 c7             	mov    %rax,%rdi
   145a2:	e8 4c 21 ff ff       	callq  66f3 <transparent_crc>
   145a7:	8b 45 f8             	mov    -0x8(%rbp),%eax
   145aa:	48 98                	cltq   
   145ac:	8b 55 f4             	mov    -0xc(%rbp),%edx
   145af:	48 63 f2             	movslq %edx,%rsi
   145b2:	8b 55 f0             	mov    -0x10(%rbp),%edx
   145b5:	48 63 ca             	movslq %edx,%rcx
   145b8:	48 89 c2             	mov    %rax,%rdx
   145bb:	48 c1 e2 03          	shl    $0x3,%rdx
   145bf:	48 29 c2             	sub    %rax,%rdx
   145c2:	48 8d 04 95 00 00 00 	lea    0x0(,%rdx,4),%rax
   145c9:	00 
   145ca:	48 89 c2             	mov    %rax,%rdx
   145cd:	48 89 f0             	mov    %rsi,%rax
   145d0:	48 c1 e0 02          	shl    $0x2,%rax
   145d4:	48 01 f0             	add    %rsi,%rax
   145d7:	48 c1 e0 02          	shl    $0x2,%rax
   145db:	48 01 f0             	add    %rsi,%rax
   145de:	48 c1 e0 03          	shl    $0x3,%rax
   145e2:	48 01 c2             	add    %rax,%rdx
   145e5:	48 89 c8             	mov    %rcx,%rax
   145e8:	48 c1 e0 02          	shl    $0x2,%rax
   145ec:	48 01 c8             	add    %rcx,%rax
   145ef:	48 c1 e0 02          	shl    $0x2,%rax
   145f3:	48 01 c8             	add    %rcx,%rax
   145f6:	48 c1 e0 05          	shl    $0x5,%rax
   145fa:	48 01 c2             	add    %rax,%rdx
   145fd:	48 8d 05 dc ae 00 00 	lea    0xaedc(%rip),%rax        # 1f4e0 <g_142>
   14604:	48 01 d0             	add    %rdx,%rax
   14607:	0f b7 50 06          	movzwl 0x6(%rax),%edx
   1460b:	0f b7 40 08          	movzwl 0x8(%rax),%eax
   1460f:	25 ff 03 00 00       	and    $0x3ff,%eax
   14614:	48 c1 e0 10          	shl    $0x10,%rax
   14618:	48 09 d0             	or     %rdx,%rax
   1461b:	48 c1 e0 26          	shl    $0x26,%rax
   1461f:	48 c1 f8 26          	sar    $0x26,%rax
   14623:	48 98                	cltq   
   14625:	8b 55 fc             	mov    -0x4(%rbp),%edx
   14628:	48 8d 35 e1 6e 00 00 	lea    0x6ee1(%rip),%rsi        # 1b510 <g_2129+0x2050>
   1462f:	48 89 c7             	mov    %rax,%rdi
   14632:	e8 bc 20 ff ff       	callq  66f3 <transparent_crc>
   14637:	8b 45 f8             	mov    -0x8(%rbp),%eax
   1463a:	48 98                	cltq   
   1463c:	8b 55 f4             	mov    -0xc(%rbp),%edx
   1463f:	48 63 f2             	movslq %edx,%rsi
   14642:	8b 55 f0             	mov    -0x10(%rbp),%edx
   14645:	48 63 ca             	movslq %edx,%rcx
   14648:	48 89 c2             	mov    %rax,%rdx
   1464b:	48 c1 e2 03          	shl    $0x3,%rdx
   1464f:	48 29 c2             	sub    %rax,%rdx
   14652:	48 8d 04 95 00 00 00 	lea    0x0(,%rdx,4),%rax
   14659:	00 
   1465a:	48 89 c2             	mov    %rax,%rdx
   1465d:	48 89 f0             	mov    %rsi,%rax
   14660:	48 c1 e0 02          	shl    $0x2,%rax
   14664:	48 01 f0             	add    %rsi,%rax
   14667:	48 c1 e0 02          	shl    $0x2,%rax
   1466b:	48 01 f0             	add    %rsi,%rax
   1466e:	48 c1 e0 03          	shl    $0x3,%rax
   14672:	48 01 c2             	add    %rax,%rdx
   14675:	48 89 c8             	mov    %rcx,%rax
   14678:	48 c1 e0 02          	shl    $0x2,%rax
   1467c:	48 01 c8             	add    %rcx,%rax
   1467f:	48 c1 e0 02          	shl    $0x2,%rax
   14683:	48 01 c8             	add    %rcx,%rax
   14686:	48 c1 e0 05          	shl    $0x5,%rax
   1468a:	48 01 c2             	add    %rax,%rdx
   1468d:	48 8d 05 4c ae 00 00 	lea    0xae4c(%rip),%rax        # 1f4e0 <g_142>
   14694:	48 01 d0             	add    %rdx,%rax
   14697:	8b 40 0c             	mov    0xc(%rax),%eax
   1469a:	c1 e0 08             	shl    $0x8,%eax
   1469d:	c1 f8 08             	sar    $0x8,%eax
   146a0:	48 98                	cltq   
   146a2:	8b 55 fc             	mov    -0x4(%rbp),%edx
   146a5:	48 8d 35 76 6e 00 00 	lea    0x6e76(%rip),%rsi        # 1b522 <g_2129+0x2062>
   146ac:	48 89 c7             	mov    %rax,%rdi
   146af:	e8 3f 20 ff ff       	callq  66f3 <transparent_crc>
   146b4:	8b 45 f8             	mov    -0x8(%rbp),%eax
   146b7:	48 98                	cltq   
   146b9:	8b 55 f4             	mov    -0xc(%rbp),%edx
   146bc:	48 63 f2             	movslq %edx,%rsi
   146bf:	8b 55 f0             	mov    -0x10(%rbp),%edx
   146c2:	48 63 ca             	movslq %edx,%rcx
   146c5:	48 89 c2             	mov    %rax,%rdx
   146c8:	48 c1 e2 03          	shl    $0x3,%rdx
   146cc:	48 29 c2             	sub    %rax,%rdx
   146cf:	48 8d 04 95 00 00 00 	lea    0x0(,%rdx,4),%rax
   146d6:	00 
   146d7:	48 89 c2             	mov    %rax,%rdx
   146da:	48 89 f0             	mov    %rsi,%rax
   146dd:	48 c1 e0 02          	shl    $0x2,%rax
   146e1:	48 01 f0             	add    %rsi,%rax
   146e4:	48 c1 e0 02          	shl    $0x2,%rax
   146e8:	48 01 f0             	add    %rsi,%rax
   146eb:	48 c1 e0 03          	shl    $0x3,%rax
   146ef:	48 01 c2             	add    %rax,%rdx
   146f2:	48 89 c8             	mov    %rcx,%rax
   146f5:	48 c1 e0 02          	shl    $0x2,%rax
   146f9:	48 01 c8             	add    %rcx,%rax
   146fc:	48 c1 e0 02          	shl    $0x2,%rax
   14700:	48 01 c8             	add    %rcx,%rax
   14703:	48 c1 e0 05          	shl    $0x5,%rax
   14707:	48 01 c2             	add    %rax,%rdx
   1470a:	48 8d 05 cf ad 00 00 	lea    0xadcf(%rip),%rax        # 1f4e0 <g_142>
   14711:	48 01 d0             	add    %rdx,%rax
   14714:	0f b6 50 0f          	movzbl 0xf(%rax),%edx
   14718:	0f b7 40 10          	movzwl 0x10(%rax),%eax
   1471c:	25 ff 07 00 00       	and    $0x7ff,%eax
   14721:	48 c1 e0 08          	shl    $0x8,%rax
   14725:	48 09 d0             	or     %rdx,%rax
   14728:	48 c1 e0 2d          	shl    $0x2d,%rax
   1472c:	48 c1 f8 2d          	sar    $0x2d,%rax
   14730:	48 98                	cltq   
   14732:	8b 55 fc             	mov    -0x4(%rbp),%edx
   14735:	48 8d 35 f8 6d 00 00 	lea    0x6df8(%rip),%rsi        # 1b534 <g_2129+0x2074>
   1473c:	48 89 c7             	mov    %rax,%rdi
   1473f:	e8 af 1f ff ff       	callq  66f3 <transparent_crc>
   14744:	8b 45 f8             	mov    -0x8(%rbp),%eax
   14747:	48 98                	cltq   
   14749:	8b 55 f4             	mov    -0xc(%rbp),%edx
   1474c:	48 63 ca             	movslq %edx,%rcx
   1474f:	8b 55 f0             	mov    -0x10(%rbp),%edx
   14752:	48 63 f2             	movslq %edx,%rsi
   14755:	48 89 c2             	mov    %rax,%rdx
   14758:	48 c1 e2 03          	shl    $0x3,%rdx
   1475c:	48 29 c2             	sub    %rax,%rdx
   1475f:	48 8d 04 95 00 00 00 	lea    0x0(,%rdx,4),%rax
   14766:	00 
   14767:	48 89 c2             	mov    %rax,%rdx
   1476a:	48 89 f0             	mov    %rsi,%rax
   1476d:	48 c1 e0 02          	shl    $0x2,%rax
   14771:	48 01 f0             	add    %rsi,%rax
   14774:	48 c1 e0 02          	shl    $0x2,%rax
   14778:	48 01 f0             	add    %rsi,%rax
   1477b:	48 c1 e0 05          	shl    $0x5,%rax
   1477f:	48 01 c2             	add    %rax,%rdx
   14782:	48 89 c8             	mov    %rcx,%rax
   14785:	48 c1 e0 02          	shl    $0x2,%rax
   14789:	48 01 c8             	add    %rcx,%rax
   1478c:	48 c1 e0 02          	shl    $0x2,%rax
   14790:	48 01 c8             	add    %rcx,%rax
   14793:	48 c1 e0 03          	shl    $0x3,%rax
   14797:	48 01 c2             	add    %rax,%rdx
   1479a:	48 8d 05 4f ad 00 00 	lea    0xad4f(%rip),%rax        # 1f4f0 <g_142+0x10>
   147a1:	48 01 d0             	add    %rdx,%rax
   147a4:	8b 10                	mov    (%rax),%edx
   147a6:	c1 ea 0b             	shr    $0xb,%edx
   147a9:	89 d2                	mov    %edx,%edx
   147ab:	8b 40 04             	mov    0x4(%rax),%eax
   147ae:	89 c0                	mov    %eax,%eax
   147b0:	83 e0 7f             	and    $0x7f,%eax
   147b3:	48 c1 e0 15          	shl    $0x15,%rax
   147b7:	48 09 d0             	or     %rdx,%rax
   147ba:	48 c1 e0 24          	shl    $0x24,%rax
   147be:	48 c1 f8 24          	sar    $0x24,%rax
   147c2:	48 98                	cltq   
   147c4:	8b 55 fc             	mov    -0x4(%rbp),%edx
   147c7:	48 8d 35 78 6d 00 00 	lea    0x6d78(%rip),%rsi        # 1b546 <g_2129+0x2086>
   147ce:	48 89 c7             	mov    %rax,%rdi
   147d1:	e8 1d 1f ff ff       	callq  66f3 <transparent_crc>
   147d6:	8b 45 f8             	mov    -0x8(%rbp),%eax
   147d9:	48 98                	cltq   
   147db:	8b 55 f4             	mov    -0xc(%rbp),%edx
   147de:	48 63 ca             	movslq %edx,%rcx
   147e1:	8b 55 f0             	mov    -0x10(%rbp),%edx
   147e4:	48 63 f2             	movslq %edx,%rsi
   147e7:	48 89 c2             	mov    %rax,%rdx
   147ea:	48 c1 e2 03          	shl    $0x3,%rdx
   147ee:	48 29 c2             	sub    %rax,%rdx
   147f1:	48 8d 04 95 00 00 00 	lea    0x0(,%rdx,4),%rax
   147f8:	00 
   147f9:	48 89 c2             	mov    %rax,%rdx
   147fc:	48 89 f0             	mov    %rsi,%rax
   147ff:	48 c1 e0 02          	shl    $0x2,%rax
   14803:	48 01 f0             	add    %rsi,%rax
   14806:	48 c1 e0 02          	shl    $0x2,%rax
   1480a:	48 01 f0             	add    %rsi,%rax
   1480d:	48 c1 e0 05          	shl    $0x5,%rax
   14811:	48 01 c2             	add    %rax,%rdx
   14814:	48 89 c8             	mov    %rcx,%rax
   14817:	48 c1 e0 02          	shl    $0x2,%rax
   1481b:	48 01 c8             	add    %rcx,%rax
   1481e:	48 c1 e0 02          	shl    $0x2,%rax
   14822:	48 01 c8             	add    %rcx,%rax
   14825:	48 c1 e0 03          	shl    $0x3,%rax
   14829:	48 01 c2             	add    %rax,%rdx
   1482c:	48 8d 05 bd ac 00 00 	lea    0xacbd(%rip),%rax        # 1f4f0 <g_142+0x10>
   14833:	48 01 d0             	add    %rdx,%rax
   14836:	8b 50 04             	mov    0x4(%rax),%edx
   14839:	c1 ea 07             	shr    $0x7,%edx
   1483c:	89 d2                	mov    %edx,%edx
   1483e:	0f b6 40 08          	movzbl 0x8(%rax),%eax
   14842:	83 e0 1f             	and    $0x1f,%eax
   14845:	48 c1 e0 19          	shl    $0x19,%rax
   14849:	48 09 d0             	or     %rdx,%rax
   1484c:	48 c1 e0 22          	shl    $0x22,%rax
   14850:	48 c1 f8 22          	sar    $0x22,%rax
   14854:	48 98                	cltq   
   14856:	8b 55 fc             	mov    -0x4(%rbp),%edx
   14859:	48 8d 35 f8 6c 00 00 	lea    0x6cf8(%rip),%rsi        # 1b558 <g_2129+0x2098>
   14860:	48 89 c7             	mov    %rax,%rdi
   14863:	e8 8b 1e ff ff       	callq  66f3 <transparent_crc>
   14868:	8b 45 f8             	mov    -0x8(%rbp),%eax
   1486b:	48 98                	cltq   
   1486d:	8b 55 f4             	mov    -0xc(%rbp),%edx
   14870:	48 63 ca             	movslq %edx,%rcx
   14873:	8b 55 f0             	mov    -0x10(%rbp),%edx
   14876:	48 63 f2             	movslq %edx,%rsi
   14879:	48 89 c2             	mov    %rax,%rdx
   1487c:	48 c1 e2 03          	shl    $0x3,%rdx
   14880:	48 29 c2             	sub    %rax,%rdx
   14883:	48 8d 04 95 00 00 00 	lea    0x0(,%rdx,4),%rax
   1488a:	00 
   1488b:	48 89 c2             	mov    %rax,%rdx
   1488e:	48 89 f0             	mov    %rsi,%rax
   14891:	48 c1 e0 02          	shl    $0x2,%rax
   14895:	48 01 f0             	add    %rsi,%rax
   14898:	48 c1 e0 02          	shl    $0x2,%rax
   1489c:	48 01 f0             	add    %rsi,%rax
   1489f:	48 c1 e0 05          	shl    $0x5,%rax
   148a3:	48 01 c2             	add    %rax,%rdx
   148a6:	48 89 c8             	mov    %rcx,%rax
   148a9:	48 c1 e0 02          	shl    $0x2,%rax
   148ad:	48 01 c8             	add    %rcx,%rax
   148b0:	48 c1 e0 02          	shl    $0x2,%rax
   148b4:	48 01 c8             	add    %rcx,%rax
   148b7:	48 c1 e0 03          	shl    $0x3,%rax
   148bb:	48 01 c2             	add    %rax,%rdx
   148be:	48 8d 05 2b ac 00 00 	lea    0xac2b(%rip),%rax        # 1f4f0 <g_142+0x10>
   148c5:	48 01 d0             	add    %rdx,%rax
   148c8:	0f b7 40 08          	movzwl 0x8(%rax),%eax
   148cc:	66 c1 e8 05          	shr    $0x5,%ax
   148d0:	80 e4 ff             	and    $0xff,%ah
   148d3:	0f b6 c0             	movzbl %al,%eax
   148d6:	8b 55 fc             	mov    -0x4(%rbp),%edx
   148d9:	48 8d 35 8a 6c 00 00 	lea    0x6c8a(%rip),%rsi        # 1b56a <g_2129+0x20aa>
   148e0:	48 89 c7             	mov    %rax,%rdi
   148e3:	e8 0b 1e ff ff       	callq  66f3 <transparent_crc>
   148e8:	8b 45 f8             	mov    -0x8(%rbp),%eax
   148eb:	48 98                	cltq   
   148ed:	8b 55 f4             	mov    -0xc(%rbp),%edx
   148f0:	48 63 ca             	movslq %edx,%rcx
   148f3:	8b 55 f0             	mov    -0x10(%rbp),%edx
   148f6:	48 63 f2             	movslq %edx,%rsi
   148f9:	48 89 c2             	mov    %rax,%rdx
   148fc:	48 c1 e2 03          	shl    $0x3,%rdx
   14900:	48 29 c2             	sub    %rax,%rdx
   14903:	48 8d 04 95 00 00 00 	lea    0x0(,%rdx,4),%rax
   1490a:	00 
   1490b:	48 89 c2             	mov    %rax,%rdx
   1490e:	48 89 f0             	mov    %rsi,%rax
   14911:	48 c1 e0 02          	shl    $0x2,%rax
   14915:	48 01 f0             	add    %rsi,%rax
   14918:	48 c1 e0 02          	shl    $0x2,%rax
   1491c:	48 01 f0             	add    %rsi,%rax
   1491f:	48 c1 e0 05          	shl    $0x5,%rax
   14923:	48 01 c2             	add    %rax,%rdx
   14926:	48 89 c8             	mov    %rcx,%rax
   14929:	48 c1 e0 02          	shl    $0x2,%rax
   1492d:	48 01 c8             	add    %rcx,%rax
   14930:	48 c1 e0 02          	shl    $0x2,%rax
   14934:	48 01 c8             	add    %rcx,%rax
   14937:	48 c1 e0 03          	shl    $0x3,%rax
   1493b:	48 01 c2             	add    %rax,%rdx
   1493e:	48 8d 05 ab ab 00 00 	lea    0xabab(%rip),%rax        # 1f4f0 <g_142+0x10>
   14945:	48 01 d0             	add    %rdx,%rax
   14948:	8b 40 08             	mov    0x8(%rax),%eax
   1494b:	c1 e0 07             	shl    $0x7,%eax
   1494e:	c1 f8 14             	sar    $0x14,%eax
   14951:	48 0f bf c0          	movswq %ax,%rax
   14955:	8b 55 fc             	mov    -0x4(%rbp),%edx
   14958:	48 8d 35 1d 6c 00 00 	lea    0x6c1d(%rip),%rsi        # 1b57c <g_2129+0x20bc>
   1495f:	48 89 c7             	mov    %rax,%rdi
   14962:	e8 8c 1d ff ff       	callq  66f3 <transparent_crc>
   14967:	83 7d fc 00          	cmpl   $0x0,-0x4(%rbp)
   1496b:	74 1c                	je     14989 <main+0x7c0>
   1496d:	8b 4d f8             	mov    -0x8(%rbp),%ecx
   14970:	8b 55 f4             	mov    -0xc(%rbp),%edx
   14973:	8b 45 f0             	mov    -0x10(%rbp),%eax
   14976:	89 c6                	mov    %eax,%esi
   14978:	48 8d 3d 27 6b 00 00 	lea    0x6b27(%rip),%rdi        # 1b4a6 <g_2129+0x1fe6>
   1497f:	b8 00 00 00 00       	mov    $0x0,%eax
   14984:	e8 f7 06 ff ff       	callq  5080 <printf@plt>
   14989:	83 45 f8 01          	addl   $0x1,-0x8(%rbp)
   1498d:	83 7d f8 05          	cmpl   $0x5,-0x8(%rbp)
   14991:	0f 8e 01 fb ff ff    	jle    14498 <main+0x2cf>
   14997:	83 45 f4 01          	addl   $0x1,-0xc(%rbp)
   1499b:	83 7d f4 03          	cmpl   $0x3,-0xc(%rbp)
   1499f:	0f 8e e7 fa ff ff    	jle    1448c <main+0x2c3>
   149a5:	83 45 f0 01          	addl   $0x1,-0x10(%rbp)
   149a9:	83 7d f0 02          	cmpl   $0x2,-0x10(%rbp)
   149ad:	0f 8e cd fa ff ff    	jle    14480 <main+0x2b7>
   149b3:	48 8b 05 06 b3 00 00 	mov    0xb306(%rip),%rax        # 1fcc0 <g_152>
   149ba:	48 89 c1             	mov    %rax,%rcx
   149bd:	8b 45 fc             	mov    -0x4(%rbp),%eax
   149c0:	89 c2                	mov    %eax,%edx
   149c2:	48 8d 35 c5 6b 00 00 	lea    0x6bc5(%rip),%rsi        # 1b58e <g_2129+0x20ce>
   149c9:	48 89 cf             	mov    %rcx,%rdi
   149cc:	e8 22 1d ff ff       	callq  66f3 <transparent_crc>
   149d1:	c7 45 f0 00 00 00 00 	movl   $0x0,-0x10(%rbp)
   149d8:	e9 33 01 00 00       	jmpq   14b10 <main+0x947>
   149dd:	c7 45 f4 00 00 00 00 	movl   $0x0,-0xc(%rbp)
   149e4:	e9 19 01 00 00       	jmpq   14b02 <main+0x939>
   149e9:	c7 45 f8 00 00 00 00 	movl   $0x0,-0x8(%rbp)
   149f0:	e9 ff 00 00 00       	jmpq   14af4 <main+0x92b>
   149f5:	8b 45 f8             	mov    -0x8(%rbp),%eax
   149f8:	48 63 c8             	movslq %eax,%rcx
   149fb:	8b 45 f0             	mov    -0x10(%rbp),%eax
   149fe:	48 63 d0             	movslq %eax,%rdx
   14a01:	8b 45 f4             	mov    -0xc(%rbp),%eax
   14a04:	48 98                	cltq   
   14a06:	48 01 c2             	add    %rax,%rdx
   14a09:	48 89 d0             	mov    %rdx,%rax
   14a0c:	48 c1 e0 02          	shl    $0x2,%rax
   14a10:	48 01 d0             	add    %rdx,%rax
   14a13:	48 01 c8             	add    %rcx,%rax
   14a16:	48 8d 14 85 00 00 00 	lea    0x0(,%rax,4),%rdx
   14a1d:	00 
   14a1e:	48 8d 05 bb b2 00 00 	lea    0xb2bb(%rip),%rax        # 1fce0 <g_155>
   14a25:	8b 04 02             	mov    (%rdx,%rax,1),%eax
   14a28:	89 c1                	mov    %eax,%ecx
   14a2a:	8b 45 fc             	mov    -0x4(%rbp),%eax
   14a2d:	89 c2                	mov    %eax,%edx
   14a2f:	48 8d 35 5e 6b 00 00 	lea    0x6b5e(%rip),%rsi        # 1b594 <g_2129+0x20d4>
   14a36:	48 89 cf             	mov    %rcx,%rdi
   14a39:	e8 b5 1c ff ff       	callq  66f3 <transparent_crc>
   14a3e:	8b 45 f8             	mov    -0x8(%rbp),%eax
   14a41:	48 63 c8             	movslq %eax,%rcx
   14a44:	8b 45 f0             	mov    -0x10(%rbp),%eax
   14a47:	48 63 d0             	movslq %eax,%rdx
   14a4a:	8b 45 f4             	mov    -0xc(%rbp),%eax
   14a4d:	48 98                	cltq   
   14a4f:	48 01 c2             	add    %rax,%rdx
   14a52:	48 89 d0             	mov    %rdx,%rax
   14a55:	48 c1 e0 02          	shl    $0x2,%rax
   14a59:	48 01 d0             	add    %rdx,%rax
   14a5c:	48 01 c8             	add    %rcx,%rax
   14a5f:	48 8d 14 85 00 00 00 	lea    0x0(,%rax,4),%rdx
   14a66:	00 
   14a67:	48 8d 05 72 b2 00 00 	lea    0xb272(%rip),%rax        # 1fce0 <g_155>
   14a6e:	0f b6 04 02          	movzbl (%rdx,%rax,1),%eax
   14a72:	0f b6 c0             	movzbl %al,%eax
   14a75:	8b 55 fc             	mov    -0x4(%rbp),%edx
   14a78:	48 8d 35 27 6b 00 00 	lea    0x6b27(%rip),%rsi        # 1b5a6 <g_2129+0x20e6>
   14a7f:	48 89 c7             	mov    %rax,%rdi
   14a82:	e8 6c 1c ff ff       	callq  66f3 <transparent_crc>
   14a87:	8b 45 f8             	mov    -0x8(%rbp),%eax
   14a8a:	48 63 c8             	movslq %eax,%rcx
   14a8d:	8b 45 f0             	mov    -0x10(%rbp),%eax
   14a90:	48 63 d0             	movslq %eax,%rdx
   14a93:	8b 45 f4             	mov    -0xc(%rbp),%eax
   14a96:	48 98                	cltq   
   14a98:	48 01 c2             	add    %rax,%rdx
   14a9b:	48 89 d0             	mov    %rdx,%rax
   14a9e:	48 c1 e0 02          	shl    $0x2,%rax
   14aa2:	48 01 d0             	add    %rdx,%rax
   14aa5:	48 01 c8             	add    %rcx,%rax
   14aa8:	48 8d 14 85 00 00 00 	lea    0x0(,%rax,4),%rdx
   14aaf:	00 
   14ab0:	48 8d 05 29 b2 00 00 	lea    0xb229(%rip),%rax        # 1fce0 <g_155>
   14ab7:	8b 04 02             	mov    (%rdx,%rax,1),%eax
   14aba:	48 98                	cltq   
   14abc:	8b 55 fc             	mov    -0x4(%rbp),%edx
   14abf:	48 8d 35 f2 6a 00 00 	lea    0x6af2(%rip),%rsi        # 1b5b8 <g_2129+0x20f8>
   14ac6:	48 89 c7             	mov    %rax,%rdi
   14ac9:	e8 25 1c ff ff       	callq  66f3 <transparent_crc>
   14ace:	83 7d fc 00          	cmpl   $0x0,-0x4(%rbp)
   14ad2:	74 1c                	je     14af0 <main+0x927>
   14ad4:	8b 4d f8             	mov    -0x8(%rbp),%ecx
   14ad7:	8b 55 f4             	mov    -0xc(%rbp),%edx
   14ada:	8b 45 f0             	mov    -0x10(%rbp),%eax
   14add:	89 c6                	mov    %eax,%esi
   14adf:	48 8d 3d c0 69 00 00 	lea    0x69c0(%rip),%rdi        # 1b4a6 <g_2129+0x1fe6>
   14ae6:	b8 00 00 00 00       	mov    $0x0,%eax
   14aeb:	e8 90 05 ff ff       	callq  5080 <printf@plt>
   14af0:	83 45 f8 01          	addl   $0x1,-0x8(%rbp)
   14af4:	83 7d f8 04          	cmpl   $0x4,-0x8(%rbp)
   14af8:	0f 8e f7 fe ff ff    	jle    149f5 <main+0x82c>
   14afe:	83 45 f4 01          	addl   $0x1,-0xc(%rbp)
   14b02:	83 7d f4 00          	cmpl   $0x0,-0xc(%rbp)
   14b06:	0f 8e dd fe ff ff    	jle    149e9 <main+0x820>
   14b0c:	83 45 f0 01          	addl   $0x1,-0x10(%rbp)
   14b10:	83 7d f0 08          	cmpl   $0x8,-0x10(%rbp)
   14b14:	0f 8e c3 fe ff ff    	jle    149dd <main+0x814>
   14b1a:	0f b7 05 73 b2 00 00 	movzwl 0xb273(%rip),%eax        # 1fd94 <g_160>
   14b21:	48 0f bf c0          	movswq %ax,%rax
   14b25:	8b 55 fc             	mov    -0x4(%rbp),%edx
   14b28:	48 8d 35 9b 6a 00 00 	lea    0x6a9b(%rip),%rsi        # 1b5ca <g_2129+0x210a>
   14b2f:	48 89 c7             	mov    %rax,%rdi
   14b32:	e8 bc 1b ff ff       	callq  66f3 <transparent_crc>
   14b37:	c7 45 f0 00 00 00 00 	movl   $0x0,-0x10(%rbp)
   14b3e:	e9 8d 00 00 00       	jmpq   14bd0 <main+0xa07>
   14b43:	c7 45 f4 00 00 00 00 	movl   $0x0,-0xc(%rbp)
   14b4a:	eb 7a                	jmp    14bc6 <main+0x9fd>
   14b4c:	c7 45 f8 00 00 00 00 	movl   $0x0,-0x8(%rbp)
   14b53:	eb 67                	jmp    14bbc <main+0x9f3>
   14b55:	8b 45 f8             	mov    -0x8(%rbp),%eax
   14b58:	48 98                	cltq   
   14b5a:	8b 55 f0             	mov    -0x10(%rbp),%edx
   14b5d:	48 63 ca             	movslq %edx,%rcx
   14b60:	8b 55 f4             	mov    -0xc(%rbp),%edx
   14b63:	48 63 d2             	movslq %edx,%rdx
   14b66:	48 01 c9             	add    %rcx,%rcx
   14b69:	48 01 ca             	add    %rcx,%rdx
   14b6c:	48 c1 e2 03          	shl    $0x3,%rdx
   14b70:	48 01 c2             	add    %rax,%rdx
   14b73:	48 8d 05 26 b2 00 00 	lea    0xb226(%rip),%rax        # 1fda0 <g_236>
   14b7a:	48 01 d0             	add    %rdx,%rax
   14b7d:	0f b6 00             	movzbl (%rax),%eax
   14b80:	48 0f be c0          	movsbq %al,%rax
   14b84:	8b 55 fc             	mov    -0x4(%rbp),%edx
   14b87:	48 8d 35 42 6a 00 00 	lea    0x6a42(%rip),%rsi        # 1b5d0 <g_2129+0x2110>
   14b8e:	48 89 c7             	mov    %rax,%rdi
   14b91:	e8 5d 1b ff ff       	callq  66f3 <transparent_crc>
   14b96:	83 7d fc 00          	cmpl   $0x0,-0x4(%rbp)
   14b9a:	74 1c                	je     14bb8 <main+0x9ef>
   14b9c:	8b 4d f8             	mov    -0x8(%rbp),%ecx
   14b9f:	8b 55 f4             	mov    -0xc(%rbp),%edx
   14ba2:	8b 45 f0             	mov    -0x10(%rbp),%eax
   14ba5:	89 c6                	mov    %eax,%esi
   14ba7:	48 8d 3d f8 68 00 00 	lea    0x68f8(%rip),%rdi        # 1b4a6 <g_2129+0x1fe6>
   14bae:	b8 00 00 00 00       	mov    $0x0,%eax
   14bb3:	e8 c8 04 ff ff       	callq  5080 <printf@plt>
   14bb8:	83 45 f8 01          	addl   $0x1,-0x8(%rbp)
   14bbc:	83 7d f8 07          	cmpl   $0x7,-0x8(%rbp)
   14bc0:	7e 93                	jle    14b55 <main+0x98c>
   14bc2:	83 45 f4 01          	addl   $0x1,-0xc(%rbp)
   14bc6:	83 7d f4 01          	cmpl   $0x1,-0xc(%rbp)
   14bca:	7e 80                	jle    14b4c <main+0x983>
   14bcc:	83 45 f0 01          	addl   $0x1,-0x10(%rbp)
   14bd0:	83 7d f0 08          	cmpl   $0x8,-0x10(%rbp)
   14bd4:	0f 8e 69 ff ff ff    	jle    14b43 <main+0x97a>
   14bda:	48 8b 05 4f b2 00 00 	mov    0xb24f(%rip),%rax        # 1fe30 <g_251>
   14be1:	48 89 c1             	mov    %rax,%rcx
   14be4:	8b 45 fc             	mov    -0x4(%rbp),%eax
   14be7:	89 c2                	mov    %eax,%edx
   14be9:	48 8d 35 ef 69 00 00 	lea    0x69ef(%rip),%rsi        # 1b5df <g_2129+0x211f>
   14bf0:	48 89 cf             	mov    %rcx,%rdi
   14bf3:	e8 fb 1a ff ff       	callq  66f3 <transparent_crc>
   14bf8:	8b 05 3a b2 00 00    	mov    0xb23a(%rip),%eax        # 1fe38 <g_253>
   14bfe:	89 c1                	mov    %eax,%ecx
   14c00:	8b 45 fc             	mov    -0x4(%rbp),%eax
   14c03:	89 c2                	mov    %eax,%edx
   14c05:	48 8d 35 d9 69 00 00 	lea    0x69d9(%rip),%rsi        # 1b5e5 <g_2129+0x2125>
   14c0c:	48 89 cf             	mov    %rcx,%rdi
   14c0f:	e8 df 1a ff ff       	callq  66f3 <transparent_crc>
   14c14:	0f b7 05 21 b2 00 00 	movzwl 0xb221(%rip),%eax        # 1fe3c <g_261>
   14c1b:	0f b7 c0             	movzwl %ax,%eax
   14c1e:	8b 55 fc             	mov    -0x4(%rbp),%edx
   14c21:	48 8d 35 c3 69 00 00 	lea    0x69c3(%rip),%rsi        # 1b5eb <g_2129+0x212b>
   14c28:	48 89 c7             	mov    %rax,%rdi
   14c2b:	e8 c3 1a ff ff       	callq  66f3 <transparent_crc>
   14c30:	48 8b 05 09 b2 00 00 	mov    0xb209(%rip),%rax        # 1fe40 <g_277>
   14c37:	25 ff ff 07 00       	and    $0x7ffff,%eax
   14c3c:	89 c1                	mov    %eax,%ecx
   14c3e:	8b 45 fc             	mov    -0x4(%rbp),%eax
   14c41:	89 c2                	mov    %eax,%edx
   14c43:	48 8d 35 a7 69 00 00 	lea    0x69a7(%rip),%rsi        # 1b5f1 <g_2129+0x2131>
   14c4a:	48 89 cf             	mov    %rcx,%rdi
   14c4d:	e8 a1 1a ff ff       	callq  66f3 <transparent_crc>
   14c52:	48 8b 05 e7 b1 00 00 	mov    0xb1e7(%rip),%rax        # 1fe40 <g_277>
   14c59:	48 c1 e0 10          	shl    $0x10,%rax
   14c5d:	48 c1 f8 23          	sar    $0x23,%rax
   14c61:	48 98                	cltq   
   14c63:	8b 55 fc             	mov    -0x4(%rbp),%edx
   14c66:	48 8d 35 8d 69 00 00 	lea    0x698d(%rip),%rsi        # 1b5fa <g_2129+0x213a>
   14c6d:	48 89 c7             	mov    %rax,%rdi
   14c70:	e8 7e 1a ff ff       	callq  66f3 <transparent_crc>
   14c75:	0f b7 05 ca b1 00 00 	movzwl 0xb1ca(%rip),%eax        # 1fe46 <g_277+0x6>
   14c7c:	0f b7 15 c5 b1 00 00 	movzwl 0xb1c5(%rip),%edx        # 1fe48 <g_277+0x8>
   14c83:	81 e2 ff 03 00 00    	and    $0x3ff,%edx
   14c89:	48 c1 e2 10          	shl    $0x10,%rdx
   14c8d:	48 09 d0             	or     %rdx,%rax
   14c90:	48 c1 e0 26          	shl    $0x26,%rax
   14c94:	48 c1 f8 26          	sar    $0x26,%rax
   14c98:	48 98                	cltq   
   14c9a:	8b 55 fc             	mov    -0x4(%rbp),%edx
   14c9d:	48 8d 35 5f 69 00 00 	lea    0x695f(%rip),%rsi        # 1b603 <g_2129+0x2143>
   14ca4:	48 89 c7             	mov    %rax,%rdi
   14ca7:	e8 47 1a ff ff       	callq  66f3 <transparent_crc>
   14cac:	8b 05 9a b1 00 00    	mov    0xb19a(%rip),%eax        # 1fe4c <g_277+0xc>
   14cb2:	c1 e0 08             	shl    $0x8,%eax
   14cb5:	c1 f8 08             	sar    $0x8,%eax
   14cb8:	48 98                	cltq   
   14cba:	8b 55 fc             	mov    -0x4(%rbp),%edx
   14cbd:	48 8d 35 48 69 00 00 	lea    0x6948(%rip),%rsi        # 1b60c <g_2129+0x214c>
   14cc4:	48 89 c7             	mov    %rax,%rdi
   14cc7:	e8 27 1a ff ff       	callq  66f3 <transparent_crc>
   14ccc:	0f b6 05 7c b1 00 00 	movzbl 0xb17c(%rip),%eax        # 1fe4f <g_277+0xf>
   14cd3:	0f b7 15 76 b1 00 00 	movzwl 0xb176(%rip),%edx        # 1fe50 <g_277+0x10>
   14cda:	81 e2 ff 07 00 00    	and    $0x7ff,%edx
   14ce0:	48 c1 e2 08          	shl    $0x8,%rdx
   14ce4:	48 09 d0             	or     %rdx,%rax
   14ce7:	48 c1 e0 2d          	shl    $0x2d,%rax
   14ceb:	48 c1 f8 2d          	sar    $0x2d,%rax
   14cef:	48 98                	cltq   
   14cf1:	8b 55 fc             	mov    -0x4(%rbp),%edx
   14cf4:	48 8d 35 1a 69 00 00 	lea    0x691a(%rip),%rsi        # 1b615 <g_2129+0x2155>
   14cfb:	48 89 c7             	mov    %rax,%rdi
   14cfe:	e8 f0 19 ff ff       	callq  66f3 <transparent_crc>
   14d03:	48 8b 05 46 b1 00 00 	mov    0xb146(%rip),%rax        # 1fe50 <g_277+0x10>
   14d0a:	48 c1 e0 19          	shl    $0x19,%rax
   14d0e:	48 c1 f8 24          	sar    $0x24,%rax
   14d12:	48 98                	cltq   
   14d14:	8b 55 fc             	mov    -0x4(%rbp),%edx
   14d17:	48 8d 35 00 69 00 00 	lea    0x6900(%rip),%rsi        # 1b61e <g_2129+0x215e>
   14d1e:	48 89 c7             	mov    %rax,%rdi
   14d21:	e8 cd 19 ff ff       	callq  66f3 <transparent_crc>
   14d26:	8b 05 28 b1 00 00    	mov    0xb128(%rip),%eax        # 1fe54 <g_277+0x14>
   14d2c:	c1 e8 07             	shr    $0x7,%eax
   14d2f:	89 c2                	mov    %eax,%edx
   14d31:	0f b6 05 20 b1 00 00 	movzbl 0xb120(%rip),%eax        # 1fe58 <g_277+0x18>
   14d38:	83 e0 1f             	and    $0x1f,%eax
   14d3b:	48 c1 e0 19          	shl    $0x19,%rax
   14d3f:	48 09 d0             	or     %rdx,%rax
   14d42:	48 c1 e0 22          	shl    $0x22,%rax
   14d46:	48 c1 f8 22          	sar    $0x22,%rax
   14d4a:	48 98                	cltq   
   14d4c:	8b 55 fc             	mov    -0x4(%rbp),%edx
   14d4f:	48 8d 35 d1 68 00 00 	lea    0x68d1(%rip),%rsi        # 1b627 <g_2129+0x2167>
   14d56:	48 89 c7             	mov    %rax,%rdi
   14d59:	e8 95 19 ff ff       	callq  66f3 <transparent_crc>
   14d5e:	0f b7 05 f3 b0 00 00 	movzwl 0xb0f3(%rip),%eax        # 1fe58 <g_277+0x18>
   14d65:	66 c1 e8 05          	shr    $0x5,%ax
   14d69:	80 e4 ff             	and    $0xff,%ah
   14d6c:	0f b6 c0             	movzbl %al,%eax
   14d6f:	8b 55 fc             	mov    -0x4(%rbp),%edx
   14d72:	48 8d 35 b7 68 00 00 	lea    0x68b7(%rip),%rsi        # 1b630 <g_2129+0x2170>
   14d79:	48 89 c7             	mov    %rax,%rdi
   14d7c:	e8 72 19 ff ff       	callq  66f3 <transparent_crc>
   14d81:	48 8b 05 d0 b0 00 00 	mov    0xb0d0(%rip),%rax        # 1fe58 <g_277+0x18>
   14d88:	c1 e0 07             	shl    $0x7,%eax
   14d8b:	c1 f8 14             	sar    $0x14,%eax
   14d8e:	48 0f bf c0          	movswq %ax,%rax
   14d92:	8b 55 fc             	mov    -0x4(%rbp),%edx
   14d95:	48 8d 35 9d 68 00 00 	lea    0x689d(%rip),%rsi        # 1b639 <g_2129+0x2179>
   14d9c:	48 89 c7             	mov    %rax,%rdi
   14d9f:	e8 4f 19 ff ff       	callq  66f3 <transparent_crc>
   14da4:	48 8b 05 b5 b0 00 00 	mov    0xb0b5(%rip),%rax        # 1fe60 <g_335>
   14dab:	48 89 c1             	mov    %rax,%rcx
   14dae:	8b 45 fc             	mov    -0x4(%rbp),%eax
   14db1:	89 c2                	mov    %eax,%edx
   14db3:	48 8d 35 88 68 00 00 	lea    0x6888(%rip),%rsi        # 1b642 <g_2129+0x2182>
   14dba:	48 89 cf             	mov    %rcx,%rdi
   14dbd:	e8 31 19 ff ff       	callq  66f3 <transparent_crc>
   14dc2:	c7 45 f0 00 00 00 00 	movl   $0x0,-0x10(%rbp)
   14dc9:	eb 79                	jmp    14e44 <main+0xc7b>
   14dcb:	c7 45 f4 00 00 00 00 	movl   $0x0,-0xc(%rbp)
   14dd2:	eb 66                	jmp    14e3a <main+0xc71>
   14dd4:	8b 45 f4             	mov    -0xc(%rbp),%eax
   14dd7:	48 63 c8             	movslq %eax,%rcx
   14dda:	8b 45 f0             	mov    -0x10(%rbp),%eax
   14ddd:	48 63 d0             	movslq %eax,%rdx
   14de0:	48 89 d0             	mov    %rdx,%rax
   14de3:	48 01 c0             	add    %rax,%rax
   14de6:	48 01 d0             	add    %rdx,%rax
   14de9:	48 01 c0             	add    %rax,%rax
   14dec:	48 01 c8             	add    %rcx,%rax
   14def:	48 8d 14 85 00 00 00 	lea    0x0(,%rax,4),%rdx
   14df6:	00 
   14df7:	48 8d 05 62 d6 00 00 	lea    0xd662(%rip),%rax        # 22460 <g_398>
   14dfe:	8b 04 02             	mov    (%rdx,%rax,1),%eax
   14e01:	89 c1                	mov    %eax,%ecx
   14e03:	8b 45 fc             	mov    -0x4(%rbp),%eax
   14e06:	89 c2                	mov    %eax,%edx
   14e08:	48 8d 35 39 68 00 00 	lea    0x6839(%rip),%rsi        # 1b648 <g_2129+0x2188>
   14e0f:	48 89 cf             	mov    %rcx,%rdi
   14e12:	e8 dc 18 ff ff       	callq  66f3 <transparent_crc>
   14e17:	83 7d fc 00          	cmpl   $0x0,-0x4(%rbp)
   14e1b:	74 19                	je     14e36 <main+0xc6d>
   14e1d:	8b 55 f4             	mov    -0xc(%rbp),%edx
   14e20:	8b 45 f0             	mov    -0x10(%rbp),%eax
   14e23:	89 c6                	mov    %eax,%esi
   14e25:	48 8d 3d 9c 66 00 00 	lea    0x669c(%rip),%rdi        # 1b4c8 <g_2129+0x2008>
   14e2c:	b8 00 00 00 00       	mov    $0x0,%eax
   14e31:	e8 4a 02 ff ff       	callq  5080 <printf@plt>
   14e36:	83 45 f4 01          	addl   $0x1,-0xc(%rbp)
   14e3a:	83 7d f4 05          	cmpl   $0x5,-0xc(%rbp)
   14e3e:	7e 94                	jle    14dd4 <main+0xc0b>
   14e40:	83 45 f0 01          	addl   $0x1,-0x10(%rbp)
   14e44:	83 7d f0 01          	cmpl   $0x1,-0x10(%rbp)
   14e48:	7e 81                	jle    14dcb <main+0xc02>
   14e4a:	48 8b 05 17 b0 00 00 	mov    0xb017(%rip),%rax        # 1fe68 <g_471>
   14e51:	8b 55 fc             	mov    -0x4(%rbp),%edx
   14e54:	48 8d 35 f9 67 00 00 	lea    0x67f9(%rip),%rsi        # 1b654 <g_2129+0x2194>
   14e5b:	48 89 c7             	mov    %rax,%rdi
   14e5e:	e8 90 18 ff ff       	callq  66f3 <transparent_crc>
   14e63:	8b 05 07 b0 00 00    	mov    0xb007(%rip),%eax        # 1fe70 <g_481>
   14e69:	89 c1                	mov    %eax,%ecx
   14e6b:	8b 45 fc             	mov    -0x4(%rbp),%eax
   14e6e:	89 c2                	mov    %eax,%edx
   14e70:	48 8d 35 e3 67 00 00 	lea    0x67e3(%rip),%rsi        # 1b65a <g_2129+0x219a>
   14e77:	48 89 cf             	mov    %rcx,%rdi
   14e7a:	e8 74 18 ff ff       	callq  66f3 <transparent_crc>
   14e7f:	0f b6 05 ea af 00 00 	movzbl 0xafea(%rip),%eax        # 1fe70 <g_481>
   14e86:	0f b6 c0             	movzbl %al,%eax
   14e89:	8b 55 fc             	mov    -0x4(%rbp),%edx
   14e8c:	48 8d 35 d0 67 00 00 	lea    0x67d0(%rip),%rsi        # 1b663 <g_2129+0x21a3>
   14e93:	48 89 c7             	mov    %rax,%rdi
   14e96:	e8 58 18 ff ff       	callq  66f3 <transparent_crc>
   14e9b:	8b 05 cf af 00 00    	mov    0xafcf(%rip),%eax        # 1fe70 <g_481>
   14ea1:	48 98                	cltq   
   14ea3:	8b 55 fc             	mov    -0x4(%rbp),%edx
   14ea6:	48 8d 35 bf 67 00 00 	lea    0x67bf(%rip),%rsi        # 1b66c <g_2129+0x21ac>
   14ead:	48 89 c7             	mov    %rax,%rdi
   14eb0:	e8 3e 18 ff ff       	callq  66f3 <transparent_crc>
   14eb5:	48 8b 05 c4 af 00 00 	mov    0xafc4(%rip),%rax        # 1fe80 <g_543>
   14ebc:	25 ff ff 07 00       	and    $0x7ffff,%eax
   14ec1:	89 c1                	mov    %eax,%ecx
   14ec3:	8b 45 fc             	mov    -0x4(%rbp),%eax
   14ec6:	89 c2                	mov    %eax,%edx
   14ec8:	48 8d 35 a6 67 00 00 	lea    0x67a6(%rip),%rsi        # 1b675 <g_2129+0x21b5>
   14ecf:	48 89 cf             	mov    %rcx,%rdi
   14ed2:	e8 1c 18 ff ff       	callq  66f3 <transparent_crc>
   14ed7:	48 8b 05 a2 af 00 00 	mov    0xafa2(%rip),%rax        # 1fe80 <g_543>
   14ede:	48 c1 e0 10          	shl    $0x10,%rax
   14ee2:	48 c1 f8 23          	sar    $0x23,%rax
   14ee6:	48 98                	cltq   
   14ee8:	8b 55 fc             	mov    -0x4(%rbp),%edx
   14eeb:	48 8d 35 8c 67 00 00 	lea    0x678c(%rip),%rsi        # 1b67e <g_2129+0x21be>
   14ef2:	48 89 c7             	mov    %rax,%rdi
   14ef5:	e8 f9 17 ff ff       	callq  66f3 <transparent_crc>
   14efa:	48 8b 05 7f af 00 00 	mov    0xaf7f(%rip),%rax        # 1fe80 <g_543>
   14f01:	48 c1 e8 30          	shr    $0x30,%rax
   14f05:	48 89 c2             	mov    %rax,%rdx
   14f08:	48 8b 05 79 af 00 00 	mov    0xaf79(%rip),%rax        # 1fe88 <g_543+0x8>
   14f0f:	25 ff 03 00 00       	and    $0x3ff,%eax
   14f14:	48 c1 e0 10          	shl    $0x10,%rax
   14f18:	48 09 d0             	or     %rdx,%rax
   14f1b:	48 c1 e0 26          	shl    $0x26,%rax
   14f1f:	48 c1 f8 26          	sar    $0x26,%rax
   14f23:	48 98                	cltq   
   14f25:	8b 55 fc             	mov    -0x4(%rbp),%edx
   14f28:	48 8d 35 58 67 00 00 	lea    0x6758(%rip),%rsi        # 1b687 <g_2129+0x21c7>
   14f2f:	48 89 c7             	mov    %rax,%rdi
   14f32:	e8 bc 17 ff ff       	callq  66f3 <transparent_crc>
   14f37:	48 8b 05 4a af 00 00 	mov    0xaf4a(%rip),%rax        # 1fe88 <g_543+0x8>
   14f3e:	48 c1 e0 08          	shl    $0x8,%rax
   14f42:	48 c1 f8 28          	sar    $0x28,%rax
   14f46:	48 98                	cltq   
   14f48:	8b 55 fc             	mov    -0x4(%rbp),%edx
   14f4b:	48 8d 35 3e 67 00 00 	lea    0x673e(%rip),%rsi        # 1b690 <g_2129+0x21d0>
   14f52:	48 89 c7             	mov    %rax,%rdi
   14f55:	e8 99 17 ff ff       	callq  66f3 <transparent_crc>
   14f5a:	48 8b 05 27 af 00 00 	mov    0xaf27(%rip),%rax        # 1fe88 <g_543+0x8>
   14f61:	48 c1 e8 38          	shr    $0x38,%rax
   14f65:	48 89 c2             	mov    %rax,%rdx
   14f68:	48 8b 05 21 af 00 00 	mov    0xaf21(%rip),%rax        # 1fe90 <g_543+0x10>
   14f6f:	25 ff 07 00 00       	and    $0x7ff,%eax
   14f74:	48 c1 e0 08          	shl    $0x8,%rax
   14f78:	48 09 d0             	or     %rdx,%rax
   14f7b:	48 c1 e0 2d          	shl    $0x2d,%rax
   14f7f:	48 c1 f8 2d          	sar    $0x2d,%rax
   14f83:	48 98                	cltq   
   14f85:	8b 55 fc             	mov    -0x4(%rbp),%edx
   14f88:	48 8d 35 0a 67 00 00 	lea    0x670a(%rip),%rsi        # 1b699 <g_2129+0x21d9>
   14f8f:	48 89 c7             	mov    %rax,%rdi
   14f92:	e8 5c 17 ff ff       	callq  66f3 <transparent_crc>
   14f97:	48 8b 05 f2 ae 00 00 	mov    0xaef2(%rip),%rax        # 1fe90 <g_543+0x10>
   14f9e:	48 c1 e0 19          	shl    $0x19,%rax
   14fa2:	48 c1 f8 24          	sar    $0x24,%rax
   14fa6:	48 98                	cltq   
   14fa8:	8b 55 fc             	mov    -0x4(%rbp),%edx
   14fab:	48 8d 35 f0 66 00 00 	lea    0x66f0(%rip),%rsi        # 1b6a2 <g_2129+0x21e2>
   14fb2:	48 89 c7             	mov    %rax,%rdi
   14fb5:	e8 39 17 ff ff       	callq  66f3 <transparent_crc>
   14fba:	48 8b 05 cf ae 00 00 	mov    0xaecf(%rip),%rax        # 1fe90 <g_543+0x10>
   14fc1:	48 c1 e8 27          	shr    $0x27,%rax
   14fc5:	48 89 c2             	mov    %rax,%rdx
   14fc8:	48 8b 05 c9 ae 00 00 	mov    0xaec9(%rip),%rax        # 1fe98 <g_543+0x18>
   14fcf:	83 e0 1f             	and    $0x1f,%eax
   14fd2:	48 c1 e0 19          	shl    $0x19,%rax
   14fd6:	48 09 d0             	or     %rdx,%rax
   14fd9:	48 c1 e0 22          	shl    $0x22,%rax
   14fdd:	48 c1 f8 22          	sar    $0x22,%rax
   14fe1:	48 98                	cltq   
   14fe3:	8b 55 fc             	mov    -0x4(%rbp),%edx
   14fe6:	48 8d 35 be 66 00 00 	lea    0x66be(%rip),%rsi        # 1b6ab <g_2129+0x21eb>
   14fed:	48 89 c7             	mov    %rax,%rdi
   14ff0:	e8 fe 16 ff ff       	callq  66f3 <transparent_crc>
   14ff5:	48 8b 05 9c ae 00 00 	mov    0xae9c(%rip),%rax        # 1fe98 <g_543+0x18>
   14ffc:	48 c1 e8 05          	shr    $0x5,%rax
   15000:	80 e4 ff             	and    $0xff,%ah
   15003:	0f b6 c0             	movzbl %al,%eax
   15006:	8b 55 fc             	mov    -0x4(%rbp),%edx
   15009:	48 8d 35 a4 66 00 00 	lea    0x66a4(%rip),%rsi        # 1b6b4 <g_2129+0x21f4>
   15010:	48 89 c7             	mov    %rax,%rdi
   15013:	e8 db 16 ff ff       	callq  66f3 <transparent_crc>
   15018:	48 8b 05 79 ae 00 00 	mov    0xae79(%rip),%rax        # 1fe98 <g_543+0x18>
   1501f:	c1 e0 07             	shl    $0x7,%eax
   15022:	c1 f8 14             	sar    $0x14,%eax
   15025:	48 0f bf c0          	movswq %ax,%rax
   15029:	8b 55 fc             	mov    -0x4(%rbp),%edx
   1502c:	48 8d 35 8a 66 00 00 	lea    0x668a(%rip),%rsi        # 1b6bd <g_2129+0x21fd>
   15033:	48 89 c7             	mov    %rax,%rdi
   15036:	e8 b8 16 ff ff       	callq  66f3 <transparent_crc>
   1503b:	8b 05 5b ae 00 00    	mov    0xae5b(%rip),%eax        # 1fe9c <g_558>
   15041:	89 c1                	mov    %eax,%ecx
   15043:	8b 45 fc             	mov    -0x4(%rbp),%eax
   15046:	89 c2                	mov    %eax,%edx
   15048:	48 8d 35 77 66 00 00 	lea    0x6677(%rip),%rsi        # 1b6c6 <g_2129+0x2206>
   1504f:	48 89 cf             	mov    %rcx,%rdi
   15052:	e8 9c 16 ff ff       	callq  66f3 <transparent_crc>
   15057:	0f b6 05 42 ae 00 00 	movzbl 0xae42(%rip),%eax        # 1fea0 <g_676>
   1505e:	0f b6 c0             	movzbl %al,%eax
   15061:	8b 55 fc             	mov    -0x4(%rbp),%edx
   15064:	48 8d 35 61 66 00 00 	lea    0x6661(%rip),%rsi        # 1b6cc <g_2129+0x220c>
   1506b:	48 89 c7             	mov    %rax,%rdi
   1506e:	e8 80 16 ff ff       	callq  66f3 <transparent_crc>
   15073:	0f b6 05 27 ae 00 00 	movzbl 0xae27(%rip),%eax        # 1fea1 <g_676+0x1>
   1507a:	0f b6 c0             	movzbl %al,%eax
   1507d:	8b 55 fc             	mov    -0x4(%rbp),%edx
   15080:	48 8d 35 4e 66 00 00 	lea    0x664e(%rip),%rsi        # 1b6d5 <g_2129+0x2215>
   15087:	48 89 c7             	mov    %rax,%rdi
   1508a:	e8 64 16 ff ff       	callq  66f3 <transparent_crc>
   1508f:	0f b6 05 0c ae 00 00 	movzbl 0xae0c(%rip),%eax        # 1fea2 <g_676+0x2>
   15096:	0f b6 c0             	movzbl %al,%eax
   15099:	8b 55 fc             	mov    -0x4(%rbp),%edx
   1509c:	48 8d 35 3b 66 00 00 	lea    0x663b(%rip),%rsi        # 1b6de <g_2129+0x221e>
   150a3:	48 89 c7             	mov    %rax,%rdi
   150a6:	e8 48 16 ff ff       	callq  66f3 <transparent_crc>
   150ab:	48 8b 05 ee ad 00 00 	mov    0xadee(%rip),%rax        # 1fea0 <g_676>
   150b2:	c1 e0 04             	shl    $0x4,%eax
   150b5:	c1 f8 1c             	sar    $0x1c,%eax
   150b8:	48 0f be c0          	movsbq %al,%rax
   150bc:	8b 55 fc             	mov    -0x4(%rbp),%edx
   150bf:	48 8d 35 21 66 00 00 	lea    0x6621(%rip),%rsi        # 1b6e7 <g_2129+0x2227>
   150c6:	48 89 c7             	mov    %rax,%rdi
   150c9:	e8 25 16 ff ff       	callq  66f3 <transparent_crc>
   150ce:	8b 05 d0 ad 00 00    	mov    0xadd0(%rip),%eax        # 1fea4 <g_676+0x4>
   150d4:	89 c1                	mov    %eax,%ecx
   150d6:	8b 45 fc             	mov    -0x4(%rbp),%eax
   150d9:	89 c2                	mov    %eax,%edx
   150db:	48 8d 35 0e 66 00 00 	lea    0x660e(%rip),%rsi        # 1b6f0 <g_2129+0x2230>
   150e2:	48 89 cf             	mov    %rcx,%rdi
   150e5:	e8 09 16 ff ff       	callq  66f3 <transparent_crc>
   150ea:	48 8b 05 b7 ad 00 00 	mov    0xadb7(%rip),%rax        # 1fea8 <g_676+0x8>
   150f1:	01 c0                	add    %eax,%eax
   150f3:	d1 f8                	sar    %eax
   150f5:	48 98                	cltq   
   150f7:	8b 55 fc             	mov    -0x4(%rbp),%edx
   150fa:	48 8d 35 f8 65 00 00 	lea    0x65f8(%rip),%rsi        # 1b6f9 <g_2129+0x2239>
   15101:	48 89 c7             	mov    %rax,%rdi
   15104:	e8 ea 15 ff ff       	callq  66f3 <transparent_crc>
   15109:	0f b7 05 9c ad 00 00 	movzwl 0xad9c(%rip),%eax        # 1feac <g_676+0xc>
   15110:	48 0f bf c0          	movswq %ax,%rax
   15114:	8b 55 fc             	mov    -0x4(%rbp),%edx
   15117:	48 8d 35 e4 65 00 00 	lea    0x65e4(%rip),%rsi        # 1b702 <g_2129+0x2242>
   1511e:	48 89 c7             	mov    %rax,%rdi
   15121:	e8 cd 15 ff ff       	callq  66f3 <transparent_crc>
   15126:	0f b7 05 81 ad 00 00 	movzwl 0xad81(%rip),%eax        # 1feae <g_676+0xe>
   1512d:	48 0f bf c0          	movswq %ax,%rax
   15131:	8b 55 fc             	mov    -0x4(%rbp),%edx
   15134:	48 8d 35 d0 65 00 00 	lea    0x65d0(%rip),%rsi        # 1b70b <g_2129+0x224b>
   1513b:	48 89 c7             	mov    %rax,%rdi
   1513e:	e8 b0 15 ff ff       	callq  66f3 <transparent_crc>
   15143:	0f b7 05 66 ad 00 00 	movzwl 0xad66(%rip),%eax        # 1feb0 <g_676+0x10>
   1514a:	48 0f bf c0          	movswq %ax,%rax
   1514e:	8b 55 fc             	mov    -0x4(%rbp),%edx
   15151:	48 8d 35 bc 65 00 00 	lea    0x65bc(%rip),%rsi        # 1b714 <g_2129+0x2254>
   15158:	48 89 c7             	mov    %rax,%rdi
   1515b:	e8 93 15 ff ff       	callq  66f3 <transparent_crc>
   15160:	8b 05 4e ad 00 00    	mov    0xad4e(%rip),%eax        # 1feb4 <g_707>
   15166:	89 c1                	mov    %eax,%ecx
   15168:	8b 45 fc             	mov    -0x4(%rbp),%eax
   1516b:	89 c2                	mov    %eax,%edx
   1516d:	48 8d 35 a9 65 00 00 	lea    0x65a9(%rip),%rsi        # 1b71d <g_2129+0x225d>
   15174:	48 89 cf             	mov    %rcx,%rdi
   15177:	e8 77 15 ff ff       	callq  66f3 <transparent_crc>
   1517c:	c7 45 f0 00 00 00 00 	movl   $0x0,-0x10(%rbp)
   15183:	eb 49                	jmp    151ce <main+0x1005>
   15185:	8b 45 f0             	mov    -0x10(%rbp),%eax
   15188:	48 98                	cltq   
   1518a:	48 8d 14 00          	lea    (%rax,%rax,1),%rdx
   1518e:	48 8d 05 23 ad 00 00 	lea    0xad23(%rip),%rax        # 1feb8 <g_721>
   15195:	0f b7 04 02          	movzwl (%rdx,%rax,1),%eax
   15199:	0f b7 c0             	movzwl %ax,%eax
   1519c:	8b 55 fc             	mov    -0x4(%rbp),%edx
   1519f:	48 8d 35 7d 65 00 00 	lea    0x657d(%rip),%rsi        # 1b723 <g_2129+0x2263>
   151a6:	48 89 c7             	mov    %rax,%rdi
   151a9:	e8 45 15 ff ff       	callq  66f3 <transparent_crc>
   151ae:	83 7d fc 00          	cmpl   $0x0,-0x4(%rbp)
   151b2:	74 16                	je     151ca <main+0x1001>
   151b4:	8b 45 f0             	mov    -0x10(%rbp),%eax
   151b7:	89 c6                	mov    %eax,%esi
   151b9:	48 8d 3d 6c 65 00 00 	lea    0x656c(%rip),%rdi        # 1b72c <g_2129+0x226c>
   151c0:	b8 00 00 00 00       	mov    $0x0,%eax
   151c5:	e8 b6 fe fe ff       	callq  5080 <printf@plt>
   151ca:	83 45 f0 01          	addl   $0x1,-0x10(%rbp)
   151ce:	83 7d f0 02          	cmpl   $0x2,-0x10(%rbp)
   151d2:	7e b1                	jle    15185 <main+0xfbc>
   151d4:	c7 45 f0 00 00 00 00 	movl   $0x0,-0x10(%rbp)
   151db:	e9 ab 02 00 00       	jmpq   1548b <main+0x12c2>
   151e0:	8b 45 f0             	mov    -0x10(%rbp),%eax
   151e3:	48 63 d0             	movslq %eax,%rdx
   151e6:	48 89 d0             	mov    %rdx,%rax
   151e9:	48 c1 e0 03          	shl    $0x3,%rax
   151ed:	48 29 d0             	sub    %rdx,%rax
   151f0:	48 c1 e0 02          	shl    $0x2,%rax
   151f4:	48 89 c2             	mov    %rax,%rdx
   151f7:	48 8d 05 c2 ac 00 00 	lea    0xacc2(%rip),%rax        # 1fec0 <g_736>
   151fe:	8b 04 02             	mov    (%rdx,%rax,1),%eax
   15201:	25 ff ff 07 00       	and    $0x7ffff,%eax
   15206:	89 c1                	mov    %eax,%ecx
   15208:	8b 45 fc             	mov    -0x4(%rbp),%eax
   1520b:	89 c2                	mov    %eax,%edx
   1520d:	48 8d 35 26 65 00 00 	lea    0x6526(%rip),%rsi        # 1b73a <g_2129+0x227a>
   15214:	48 89 cf             	mov    %rcx,%rdi
   15217:	e8 d7 14 ff ff       	callq  66f3 <transparent_crc>
   1521c:	8b 45 f0             	mov    -0x10(%rbp),%eax
   1521f:	48 63 d0             	movslq %eax,%rdx
   15222:	48 89 d0             	mov    %rdx,%rax
   15225:	48 c1 e0 03          	shl    $0x3,%rax
   15229:	48 29 d0             	sub    %rdx,%rax
   1522c:	48 c1 e0 02          	shl    $0x2,%rax
   15230:	48 89 c2             	mov    %rax,%rdx
   15233:	48 8d 05 86 ac 00 00 	lea    0xac86(%rip),%rax        # 1fec0 <g_736>
   1523a:	0f b7 4c 02 02       	movzwl 0x2(%rdx,%rax,1),%ecx
   1523f:	66 c1 e9 03          	shr    $0x3,%cx
   15243:	0f b7 c9             	movzwl %cx,%ecx
   15246:	0f b7 44 02 04       	movzwl 0x4(%rdx,%rax,1),%eax
   1524b:	48 c1 e0 0d          	shl    $0xd,%rax
   1524f:	48 09 c8             	or     %rcx,%rax
   15252:	48 c1 e0 23          	shl    $0x23,%rax
   15256:	48 c1 f8 23          	sar    $0x23,%rax
   1525a:	48 98                	cltq   
   1525c:	8b 55 fc             	mov    -0x4(%rbp),%edx
   1525f:	48 8d 35 e0 64 00 00 	lea    0x64e0(%rip),%rsi        # 1b746 <g_2129+0x2286>
   15266:	48 89 c7             	mov    %rax,%rdi
   15269:	e8 85 14 ff ff       	callq  66f3 <transparent_crc>
   1526e:	8b 45 f0             	mov    -0x10(%rbp),%eax
   15271:	48 63 d0             	movslq %eax,%rdx
   15274:	48 89 d0             	mov    %rdx,%rax
   15277:	48 c1 e0 03          	shl    $0x3,%rax
   1527b:	48 29 d0             	sub    %rdx,%rax
   1527e:	48 c1 e0 02          	shl    $0x2,%rax
   15282:	48 89 c2             	mov    %rax,%rdx
   15285:	48 8d 05 34 ac 00 00 	lea    0xac34(%rip),%rax        # 1fec0 <g_736>
   1528c:	0f b7 4c 02 06       	movzwl 0x6(%rdx,%rax,1),%ecx
   15291:	0f b7 44 02 08       	movzwl 0x8(%rdx,%rax,1),%eax
   15296:	25 ff 03 00 00       	and    $0x3ff,%eax
   1529b:	48 c1 e0 10          	shl    $0x10,%rax
   1529f:	48 09 c8             	or     %rcx,%rax
   152a2:	48 c1 e0 26          	shl    $0x26,%rax
   152a6:	48 c1 f8 26          	sar    $0x26,%rax
   152aa:	48 98                	cltq   
   152ac:	8b 55 fc             	mov    -0x4(%rbp),%edx
   152af:	48 8d 35 9c 64 00 00 	lea    0x649c(%rip),%rsi        # 1b752 <g_2129+0x2292>
   152b6:	48 89 c7             	mov    %rax,%rdi
   152b9:	e8 35 14 ff ff       	callq  66f3 <transparent_crc>
   152be:	8b 45 f0             	mov    -0x10(%rbp),%eax
   152c1:	48 63 d0             	movslq %eax,%rdx
   152c4:	48 89 d0             	mov    %rdx,%rax
   152c7:	48 c1 e0 03          	shl    $0x3,%rax
   152cb:	48 29 d0             	sub    %rdx,%rax
   152ce:	48 c1 e0 02          	shl    $0x2,%rax
   152d2:	48 89 c2             	mov    %rax,%rdx
   152d5:	48 8d 05 e4 ab 00 00 	lea    0xabe4(%rip),%rax        # 1fec0 <g_736>
   152dc:	8b 44 02 0c          	mov    0xc(%rdx,%rax,1),%eax
   152e0:	c1 e0 08             	shl    $0x8,%eax
   152e3:	c1 f8 08             	sar    $0x8,%eax
   152e6:	48 98                	cltq   
   152e8:	8b 55 fc             	mov    -0x4(%rbp),%edx
   152eb:	48 8d 35 6c 64 00 00 	lea    0x646c(%rip),%rsi        # 1b75e <g_2129+0x229e>
   152f2:	48 89 c7             	mov    %rax,%rdi
   152f5:	e8 f9 13 ff ff       	callq  66f3 <transparent_crc>
   152fa:	8b 45 f0             	mov    -0x10(%rbp),%eax
   152fd:	48 63 d0             	movslq %eax,%rdx
   15300:	48 89 d0             	mov    %rdx,%rax
   15303:	48 c1 e0 03          	shl    $0x3,%rax
   15307:	48 29 d0             	sub    %rdx,%rax
   1530a:	48 c1 e0 02          	shl    $0x2,%rax
   1530e:	48 89 c2             	mov    %rax,%rdx
   15311:	48 8d 05 a8 ab 00 00 	lea    0xaba8(%rip),%rax        # 1fec0 <g_736>
   15318:	0f b6 4c 02 0f       	movzbl 0xf(%rdx,%rax,1),%ecx
   1531d:	0f b7 44 02 10       	movzwl 0x10(%rdx,%rax,1),%eax
   15322:	25 ff 07 00 00       	and    $0x7ff,%eax
   15327:	48 c1 e0 08          	shl    $0x8,%rax
   1532b:	48 09 c8             	or     %rcx,%rax
   1532e:	48 c1 e0 2d          	shl    $0x2d,%rax
   15332:	48 c1 f8 2d          	sar    $0x2d,%rax
   15336:	48 98                	cltq   
   15338:	8b 55 fc             	mov    -0x4(%rbp),%edx
   1533b:	48 8d 35 28 64 00 00 	lea    0x6428(%rip),%rsi        # 1b76a <g_2129+0x22aa>
   15342:	48 89 c7             	mov    %rax,%rdi
   15345:	e8 a9 13 ff ff       	callq  66f3 <transparent_crc>
   1534a:	8b 45 f0             	mov    -0x10(%rbp),%eax
   1534d:	48 63 d0             	movslq %eax,%rdx
   15350:	48 89 d0             	mov    %rdx,%rax
   15353:	48 c1 e0 03          	shl    $0x3,%rax
   15357:	48 29 d0             	sub    %rdx,%rax
   1535a:	48 c1 e0 02          	shl    $0x2,%rax
   1535e:	48 89 c2             	mov    %rax,%rdx
   15361:	48 8d 05 68 ab 00 00 	lea    0xab68(%rip),%rax        # 1fed0 <g_736+0x10>
   15368:	8b 0c 02             	mov    (%rdx,%rax,1),%ecx
   1536b:	c1 e9 0b             	shr    $0xb,%ecx
   1536e:	89 c9                	mov    %ecx,%ecx
   15370:	8b 44 02 04          	mov    0x4(%rdx,%rax,1),%eax
   15374:	89 c0                	mov    %eax,%eax
   15376:	83 e0 7f             	and    $0x7f,%eax
   15379:	48 c1 e0 15          	shl    $0x15,%rax
   1537d:	48 09 c8             	or     %rcx,%rax
   15380:	48 c1 e0 24          	shl    $0x24,%rax
   15384:	48 c1 f8 24          	sar    $0x24,%rax
   15388:	48 98                	cltq   
   1538a:	8b 55 fc             	mov    -0x4(%rbp),%edx
   1538d:	48 8d 35 e2 63 00 00 	lea    0x63e2(%rip),%rsi        # 1b776 <g_2129+0x22b6>
   15394:	48 89 c7             	mov    %rax,%rdi
   15397:	e8 57 13 ff ff       	callq  66f3 <transparent_crc>
   1539c:	8b 45 f0             	mov    -0x10(%rbp),%eax
   1539f:	48 63 d0             	movslq %eax,%rdx
   153a2:	48 89 d0             	mov    %rdx,%rax
   153a5:	48 c1 e0 03          	shl    $0x3,%rax
   153a9:	48 29 d0             	sub    %rdx,%rax
   153ac:	48 c1 e0 02          	shl    $0x2,%rax
   153b0:	48 89 c2             	mov    %rax,%rdx
   153b3:	48 8d 05 16 ab 00 00 	lea    0xab16(%rip),%rax        # 1fed0 <g_736+0x10>
   153ba:	8b 4c 02 04          	mov    0x4(%rdx,%rax,1),%ecx
   153be:	c1 e9 07             	shr    $0x7,%ecx
   153c1:	89 c9                	mov    %ecx,%ecx
   153c3:	0f b6 44 02 08       	movzbl 0x8(%rdx,%rax,1),%eax
   153c8:	83 e0 1f             	and    $0x1f,%eax
   153cb:	48 c1 e0 19          	shl    $0x19,%rax
   153cf:	48 09 c8             	or     %rcx,%rax
   153d2:	48 c1 e0 22          	shl    $0x22,%rax
   153d6:	48 c1 f8 22          	sar    $0x22,%rax
   153da:	48 98                	cltq   
   153dc:	8b 55 fc             	mov    -0x4(%rbp),%edx
   153df:	48 8d 35 9c 63 00 00 	lea    0x639c(%rip),%rsi        # 1b782 <g_2129+0x22c2>
   153e6:	48 89 c7             	mov    %rax,%rdi
   153e9:	e8 05 13 ff ff       	callq  66f3 <transparent_crc>
   153ee:	8b 45 f0             	mov    -0x10(%rbp),%eax
   153f1:	48 63 d0             	movslq %eax,%rdx
   153f4:	48 89 d0             	mov    %rdx,%rax
   153f7:	48 c1 e0 03          	shl    $0x3,%rax
   153fb:	48 29 d0             	sub    %rdx,%rax
   153fe:	48 c1 e0 02          	shl    $0x2,%rax
   15402:	48 89 c2             	mov    %rax,%rdx
   15405:	48 8d 05 c4 aa 00 00 	lea    0xaac4(%rip),%rax        # 1fed0 <g_736+0x10>
   1540c:	0f b7 44 02 08       	movzwl 0x8(%rdx,%rax,1),%eax
   15411:	66 c1 e8 05          	shr    $0x5,%ax
   15415:	80 e4 ff             	and    $0xff,%ah
   15418:	0f b6 c0             	movzbl %al,%eax
   1541b:	8b 55 fc             	mov    -0x4(%rbp),%edx
   1541e:	48 8d 35 69 63 00 00 	lea    0x6369(%rip),%rsi        # 1b78e <g_2129+0x22ce>
   15425:	48 89 c7             	mov    %rax,%rdi
   15428:	e8 c6 12 ff ff       	callq  66f3 <transparent_crc>
   1542d:	8b 45 f0             	mov    -0x10(%rbp),%eax
   15430:	48 63 d0             	movslq %eax,%rdx
   15433:	48 89 d0             	mov    %rdx,%rax
   15436:	48 c1 e0 03          	shl    $0x3,%rax
   1543a:	48 29 d0             	sub    %rdx,%rax
   1543d:	48 c1 e0 02          	shl    $0x2,%rax
   15441:	48 89 c2             	mov    %rax,%rdx
   15444:	48 8d 05 85 aa 00 00 	lea    0xaa85(%rip),%rax        # 1fed0 <g_736+0x10>
   1544b:	8b 44 02 08          	mov    0x8(%rdx,%rax,1),%eax
   1544f:	c1 e0 07             	shl    $0x7,%eax
   15452:	c1 f8 14             	sar    $0x14,%eax
   15455:	48 0f bf c0          	movswq %ax,%rax
   15459:	8b 55 fc             	mov    -0x4(%rbp),%edx
   1545c:	48 8d 35 37 63 00 00 	lea    0x6337(%rip),%rsi        # 1b79a <g_2129+0x22da>
   15463:	48 89 c7             	mov    %rax,%rdi
   15466:	e8 88 12 ff ff       	callq  66f3 <transparent_crc>
   1546b:	83 7d fc 00          	cmpl   $0x0,-0x4(%rbp)
   1546f:	74 16                	je     15487 <main+0x12be>
   15471:	8b 45 f0             	mov    -0x10(%rbp),%eax
   15474:	89 c6                	mov    %eax,%esi
   15476:	48 8d 3d af 62 00 00 	lea    0x62af(%rip),%rdi        # 1b72c <g_2129+0x226c>
   1547d:	b8 00 00 00 00       	mov    $0x0,%eax
   15482:	e8 f9 fb fe ff       	callq  5080 <printf@plt>
   15487:	83 45 f0 01          	addl   $0x1,-0x10(%rbp)
   1548b:	83 7d f0 04          	cmpl   $0x4,-0x10(%rbp)
   1548f:	0f 8e 4b fd ff ff    	jle    151e0 <main+0x1017>
   15495:	c7 45 f0 00 00 00 00 	movl   $0x0,-0x10(%rbp)
   1549c:	eb 4d                	jmp    154eb <main+0x1322>
   1549e:	8b 45 f0             	mov    -0x10(%rbp),%eax
   154a1:	48 98                	cltq   
   154a3:	48 8d 14 c5 00 00 00 	lea    0x0(,%rax,8),%rdx
   154aa:	00 
   154ab:	48 8d 05 9e aa 00 00 	lea    0xaa9e(%rip),%rax        # 1ff50 <g_741>
   154b2:	0f b7 04 02          	movzwl (%rdx,%rax,1),%eax
   154b6:	0f b7 c0             	movzwl %ax,%eax
   154b9:	8b 55 fc             	mov    -0x4(%rbp),%edx
   154bc:	48 8d 35 e3 62 00 00 	lea    0x62e3(%rip),%rsi        # 1b7a6 <g_2129+0x22e6>
   154c3:	48 89 c7             	mov    %rax,%rdi
   154c6:	e8 28 12 ff ff       	callq  66f3 <transparent_crc>
   154cb:	83 7d fc 00          	cmpl   $0x0,-0x4(%rbp)
   154cf:	74 16                	je     154e7 <main+0x131e>
   154d1:	8b 45 f0             	mov    -0x10(%rbp),%eax
   154d4:	89 c6                	mov    %eax,%esi
   154d6:	48 8d 3d 4f 62 00 00 	lea    0x624f(%rip),%rdi        # 1b72c <g_2129+0x226c>
   154dd:	b8 00 00 00 00       	mov    $0x0,%eax
   154e2:	e8 99 fb fe ff       	callq  5080 <printf@plt>
   154e7:	83 45 f0 01          	addl   $0x1,-0x10(%rbp)
   154eb:	83 7d f0 01          	cmpl   $0x1,-0x10(%rbp)
   154ef:	7e ad                	jle    1549e <main+0x12d5>
   154f1:	48 8b 05 68 aa 00 00 	mov    0xaa68(%rip),%rax        # 1ff60 <g_779>
   154f8:	83 e0 1f             	and    $0x1f,%eax
   154fb:	0f b6 c0             	movzbl %al,%eax
   154fe:	8b 55 fc             	mov    -0x4(%rbp),%edx
   15501:	48 8d 35 aa 62 00 00 	lea    0x62aa(%rip),%rsi        # 1b7b2 <g_2129+0x22f2>
   15508:	48 89 c7             	mov    %rax,%rdi
   1550b:	e8 e3 11 ff ff       	callq  66f3 <transparent_crc>
   15510:	8b 05 4e aa 00 00    	mov    0xaa4e(%rip),%eax        # 1ff64 <g_779+0x4>
   15516:	48 98                	cltq   
   15518:	8b 55 fc             	mov    -0x4(%rbp),%edx
   1551b:	48 8d 35 99 62 00 00 	lea    0x6299(%rip),%rsi        # 1b7bb <g_2129+0x22fb>
   15522:	48 89 c7             	mov    %rax,%rdi
   15525:	e8 c9 11 ff ff       	callq  66f3 <transparent_crc>
   1552a:	0f b7 05 37 aa 00 00 	movzwl 0xaa37(%rip),%eax        # 1ff68 <g_779+0x8>
   15531:	66 25 ff 3f          	and    $0x3fff,%ax
   15535:	0f b7 c0             	movzwl %ax,%eax
   15538:	8b 55 fc             	mov    -0x4(%rbp),%edx
   1553b:	48 8d 35 82 62 00 00 	lea    0x6282(%rip),%rsi        # 1b7c4 <g_2129+0x2304>
   15542:	48 89 c7             	mov    %rax,%rdi
   15545:	e8 a9 11 ff ff       	callq  66f3 <transparent_crc>
   1554a:	48 8b 05 17 aa 00 00 	mov    0xaa17(%rip),%rax        # 1ff68 <g_779+0x8>
   15551:	48 c1 e0 08          	shl    $0x8,%rax
   15555:	48 c1 f8 28          	sar    $0x28,%rax
   15559:	48 98                	cltq   
   1555b:	8b 55 fc             	mov    -0x4(%rbp),%edx
   1555e:	48 8d 35 68 62 00 00 	lea    0x6268(%rip),%rsi        # 1b7cd <g_2129+0x230d>
   15565:	48 89 c7             	mov    %rax,%rdi
   15568:	e8 86 11 ff ff       	callq  66f3 <transparent_crc>
   1556d:	8b 05 fd a9 00 00    	mov    0xa9fd(%rip),%eax        # 1ff70 <g_779+0x10>
   15573:	c1 e0 03             	shl    $0x3,%eax
   15576:	c1 f8 03             	sar    $0x3,%eax
   15579:	48 98                	cltq   
   1557b:	8b 55 fc             	mov    -0x4(%rbp),%edx
   1557e:	48 8d 35 51 62 00 00 	lea    0x6251(%rip),%rsi        # 1b7d6 <g_2129+0x2316>
   15585:	48 89 c7             	mov    %rax,%rdi
   15588:	e8 66 11 ff ff       	callq  66f3 <transparent_crc>
   1558d:	48 8b 05 dc a9 00 00 	mov    0xa9dc(%rip),%rax        # 1ff70 <g_779+0x10>
   15594:	48 c1 e8 20          	shr    $0x20,%rax
   15598:	25 ff ff 1f 00       	and    $0x1fffff,%eax
   1559d:	89 c1                	mov    %eax,%ecx
   1559f:	8b 45 fc             	mov    -0x4(%rbp),%eax
   155a2:	89 c2                	mov    %eax,%edx
   155a4:	48 8d 35 34 62 00 00 	lea    0x6234(%rip),%rsi        # 1b7df <g_2129+0x231f>
   155ab:	48 89 cf             	mov    %rcx,%rdi
   155ae:	e8 40 11 ff ff       	callq  66f3 <transparent_crc>
   155b3:	0f b6 05 bc a9 00 00 	movzbl 0xa9bc(%rip),%eax        # 1ff76 <g_779+0x16>
   155ba:	01 c0                	add    %eax,%eax
   155bc:	c0 f8 06             	sar    $0x6,%al
   155bf:	48 0f be c0          	movsbq %al,%rax
   155c3:	8b 55 fc             	mov    -0x4(%rbp),%edx
   155c6:	48 8d 35 1b 62 00 00 	lea    0x621b(%rip),%rsi        # 1b7e8 <g_2129+0x2328>
   155cd:	48 89 c7             	mov    %rax,%rdi
   155d0:	e8 1e 11 ff ff       	callq  66f3 <transparent_crc>
   155d5:	8b 05 9d a9 00 00    	mov    0xa99d(%rip),%eax        # 1ff78 <g_779+0x18>
   155db:	25 ff ff 07 00       	and    $0x7ffff,%eax
   155e0:	89 c1                	mov    %eax,%ecx
   155e2:	8b 45 fc             	mov    -0x4(%rbp),%eax
   155e5:	89 c2                	mov    %eax,%edx
   155e7:	48 8d 35 03 62 00 00 	lea    0x6203(%rip),%rsi        # 1b7f1 <g_2129+0x2331>
   155ee:	48 89 cf             	mov    %rcx,%rdi
   155f1:	e8 fd 10 ff ff       	callq  66f3 <transparent_crc>
   155f6:	8b 05 80 a9 00 00    	mov    0xa980(%rip),%eax        # 1ff7c <g_779+0x1c>
   155fc:	25 ff ff ff 00       	and    $0xffffff,%eax
   15601:	89 c1                	mov    %eax,%ecx
   15603:	8b 45 fc             	mov    -0x4(%rbp),%eax
   15606:	89 c2                	mov    %eax,%edx
   15608:	48 8d 35 eb 61 00 00 	lea    0x61eb(%rip),%rsi        # 1b7fa <g_2129+0x233a>
   1560f:	48 89 cf             	mov    %rcx,%rdi
   15612:	e8 dc 10 ff ff       	callq  66f3 <transparent_crc>
   15617:	48 8b 05 42 3a 00 00 	mov    0x3a42(%rip),%rax        # 19060 <g_856>
   1561e:	25 ff ff 07 00       	and    $0x7ffff,%eax
   15623:	89 c1                	mov    %eax,%ecx
   15625:	8b 45 fc             	mov    -0x4(%rbp),%eax
   15628:	89 c2                	mov    %eax,%edx
   1562a:	48 8d 35 d2 61 00 00 	lea    0x61d2(%rip),%rsi        # 1b803 <g_2129+0x2343>
   15631:	48 89 cf             	mov    %rcx,%rdi
   15634:	e8 ba 10 ff ff       	callq  66f3 <transparent_crc>
   15639:	b8 0a de ff ff       	mov    $0xffffde0a,%eax
   1563e:	48 98                	cltq   
   15640:	8b 55 fc             	mov    -0x4(%rbp),%edx
   15643:	48 8d 35 c2 61 00 00 	lea    0x61c2(%rip),%rsi        # 1b80c <g_2129+0x234c>
   1564a:	48 89 c7             	mov    %rax,%rdi
   1564d:	e8 a1 10 ff ff       	callq  66f3 <transparent_crc>
   15652:	b8 3f 03 00 00       	mov    $0x33f,%eax
   15657:	48 98                	cltq   
   15659:	8b 55 fc             	mov    -0x4(%rbp),%edx
   1565c:	48 8d 35 b2 61 00 00 	lea    0x61b2(%rip),%rsi        # 1b815 <g_2129+0x2355>
   15663:	48 89 c7             	mov    %rax,%rdi
   15666:	e8 88 10 ff ff       	callq  66f3 <transparent_crc>
   1566b:	b8 3d 03 00 00       	mov    $0x33d,%eax
   15670:	48 98                	cltq   
   15672:	8b 55 fc             	mov    -0x4(%rbp),%edx
   15675:	48 8d 35 a2 61 00 00 	lea    0x61a2(%rip),%rsi        # 1b81e <g_2129+0x235e>
   1567c:	48 89 c7             	mov    %rax,%rdi
   1567f:	e8 6f 10 ff ff       	callq  66f3 <transparent_crc>
   15684:	b8 05 00 00 00       	mov    $0x5,%eax
   15689:	48 98                	cltq   
   1568b:	8b 55 fc             	mov    -0x4(%rbp),%edx
   1568e:	48 8d 35 92 61 00 00 	lea    0x6192(%rip),%rsi        # 1b827 <g_2129+0x2367>
   15695:	48 89 c7             	mov    %rax,%rdi
   15698:	e8 56 10 ff ff       	callq  66f3 <transparent_crc>
   1569d:	48 8b 05 cc 39 00 00 	mov    0x39cc(%rip),%rax        # 19070 <g_856+0x10>
   156a4:	48 c1 e0 19          	shl    $0x19,%rax
   156a8:	48 c1 f8 24          	sar    $0x24,%rax
   156ac:	48 98                	cltq   
   156ae:	8b 55 fc             	mov    -0x4(%rbp),%edx
   156b1:	48 8d 35 78 61 00 00 	lea    0x6178(%rip),%rsi        # 1b830 <g_2129+0x2370>
   156b8:	48 89 c7             	mov    %rax,%rdi
   156bb:	e8 33 10 ff ff       	callq  66f3 <transparent_crc>
   156c0:	b8 62 f8 ff ff       	mov    $0xfffff862,%eax
   156c5:	48 98                	cltq   
   156c7:	8b 55 fc             	mov    -0x4(%rbp),%edx
   156ca:	48 8d 35 68 61 00 00 	lea    0x6168(%rip),%rsi        # 1b839 <g_2129+0x2379>
   156d1:	48 89 c7             	mov    %rax,%rdi
   156d4:	e8 1a 10 ff ff       	callq  66f3 <transparent_crc>
   156d9:	b8 0d 00 00 00       	mov    $0xd,%eax
   156de:	0f b6 c0             	movzbl %al,%eax
   156e1:	8b 55 fc             	mov    -0x4(%rbp),%edx
   156e4:	48 8d 35 57 61 00 00 	lea    0x6157(%rip),%rsi        # 1b842 <g_2129+0x2382>
   156eb:	48 89 c7             	mov    %rax,%rdi
   156ee:	e8 00 10 ff ff       	callq  66f3 <transparent_crc>
   156f3:	48 8b 05 7e 39 00 00 	mov    0x397e(%rip),%rax        # 19078 <g_856+0x18>
   156fa:	c1 e0 07             	shl    $0x7,%eax
   156fd:	c1 f8 14             	sar    $0x14,%eax
   15700:	48 0f bf c0          	movswq %ax,%rax
   15704:	8b 55 fc             	mov    -0x4(%rbp),%edx
   15707:	48 8d 35 3d 61 00 00 	lea    0x613d(%rip),%rsi        # 1b84b <g_2129+0x238b>
   1570e:	48 89 c7             	mov    %rax,%rdi
   15711:	e8 dd 0f ff ff       	callq  66f3 <transparent_crc>
   15716:	48 8b 05 63 a8 00 00 	mov    0xa863(%rip),%rax        # 1ff80 <g_857>
   1571d:	25 ff ff 07 00       	and    $0x7ffff,%eax
   15722:	89 c1                	mov    %eax,%ecx
   15724:	8b 45 fc             	mov    -0x4(%rbp),%eax
   15727:	89 c2                	mov    %eax,%edx
   15729:	48 8d 35 24 61 00 00 	lea    0x6124(%rip),%rsi        # 1b854 <g_2129+0x2394>
   15730:	48 89 cf             	mov    %rcx,%rdi
   15733:	e8 bb 0f ff ff       	callq  66f3 <transparent_crc>
   15738:	48 8b 05 41 a8 00 00 	mov    0xa841(%rip),%rax        # 1ff80 <g_857>
   1573f:	48 c1 e0 10          	shl    $0x10,%rax
   15743:	48 c1 f8 23          	sar    $0x23,%rax
   15747:	48 98                	cltq   
   15749:	8b 55 fc             	mov    -0x4(%rbp),%edx
   1574c:	48 8d 35 0a 61 00 00 	lea    0x610a(%rip),%rsi        # 1b85d <g_2129+0x239d>
   15753:	48 89 c7             	mov    %rax,%rdi
   15756:	e8 98 0f ff ff       	callq  66f3 <transparent_crc>
   1575b:	0f b7 05 24 a8 00 00 	movzwl 0xa824(%rip),%eax        # 1ff86 <g_857+0x6>
   15762:	0f b7 15 1f a8 00 00 	movzwl 0xa81f(%rip),%edx        # 1ff88 <g_857+0x8>
   15769:	81 e2 ff 03 00 00    	and    $0x3ff,%edx
   1576f:	48 c1 e2 10          	shl    $0x10,%rdx
   15773:	48 09 d0             	or     %rdx,%rax
   15776:	48 c1 e0 26          	shl    $0x26,%rax
   1577a:	48 c1 f8 26          	sar    $0x26,%rax
   1577e:	48 98                	cltq   
   15780:	8b 55 fc             	mov    -0x4(%rbp),%edx
   15783:	48 8d 35 dc 60 00 00 	lea    0x60dc(%rip),%rsi        # 1b866 <g_2129+0x23a6>
   1578a:	48 89 c7             	mov    %rax,%rdi
   1578d:	e8 61 0f ff ff       	callq  66f3 <transparent_crc>
   15792:	8b 05 f4 a7 00 00    	mov    0xa7f4(%rip),%eax        # 1ff8c <g_857+0xc>
   15798:	c1 e0 08             	shl    $0x8,%eax
   1579b:	c1 f8 08             	sar    $0x8,%eax
   1579e:	48 98                	cltq   
   157a0:	8b 55 fc             	mov    -0x4(%rbp),%edx
   157a3:	48 8d 35 c5 60 00 00 	lea    0x60c5(%rip),%rsi        # 1b86f <g_2129+0x23af>
   157aa:	48 89 c7             	mov    %rax,%rdi
   157ad:	e8 41 0f ff ff       	callq  66f3 <transparent_crc>
   157b2:	0f b6 05 d6 a7 00 00 	movzbl 0xa7d6(%rip),%eax        # 1ff8f <g_857+0xf>
   157b9:	0f b7 15 d0 a7 00 00 	movzwl 0xa7d0(%rip),%edx        # 1ff90 <g_857+0x10>
   157c0:	81 e2 ff 07 00 00    	and    $0x7ff,%edx
   157c6:	48 c1 e2 08          	shl    $0x8,%rdx
   157ca:	48 09 d0             	or     %rdx,%rax
   157cd:	48 c1 e0 2d          	shl    $0x2d,%rax
   157d1:	48 c1 f8 2d          	sar    $0x2d,%rax
   157d5:	48 98                	cltq   
   157d7:	8b 55 fc             	mov    -0x4(%rbp),%edx
   157da:	48 8d 35 97 60 00 00 	lea    0x6097(%rip),%rsi        # 1b878 <g_2129+0x23b8>
   157e1:	48 89 c7             	mov    %rax,%rdi
   157e4:	e8 0a 0f ff ff       	callq  66f3 <transparent_crc>
   157e9:	48 8b 05 a0 a7 00 00 	mov    0xa7a0(%rip),%rax        # 1ff90 <g_857+0x10>
   157f0:	48 c1 e0 19          	shl    $0x19,%rax
   157f4:	48 c1 f8 24          	sar    $0x24,%rax
   157f8:	48 98                	cltq   
   157fa:	8b 55 fc             	mov    -0x4(%rbp),%edx
   157fd:	48 8d 35 7d 60 00 00 	lea    0x607d(%rip),%rsi        # 1b881 <g_2129+0x23c1>
   15804:	48 89 c7             	mov    %rax,%rdi
   15807:	e8 e7 0e ff ff       	callq  66f3 <transparent_crc>
   1580c:	8b 05 82 a7 00 00    	mov    0xa782(%rip),%eax        # 1ff94 <g_857+0x14>
   15812:	c1 e8 07             	shr    $0x7,%eax
   15815:	89 c2                	mov    %eax,%edx
   15817:	0f b6 05 7a a7 00 00 	movzbl 0xa77a(%rip),%eax        # 1ff98 <g_857+0x18>
   1581e:	83 e0 1f             	and    $0x1f,%eax
   15821:	48 c1 e0 19          	shl    $0x19,%rax
   15825:	48 09 d0             	or     %rdx,%rax
   15828:	48 c1 e0 22          	shl    $0x22,%rax
   1582c:	48 c1 f8 22          	sar    $0x22,%rax
   15830:	48 98                	cltq   
   15832:	8b 55 fc             	mov    -0x4(%rbp),%edx
   15835:	48 8d 35 4e 60 00 00 	lea    0x604e(%rip),%rsi        # 1b88a <g_2129+0x23ca>
   1583c:	48 89 c7             	mov    %rax,%rdi
   1583f:	e8 af 0e ff ff       	callq  66f3 <transparent_crc>
   15844:	0f b7 05 4d a7 00 00 	movzwl 0xa74d(%rip),%eax        # 1ff98 <g_857+0x18>
   1584b:	66 c1 e8 05          	shr    $0x5,%ax
   1584f:	80 e4 ff             	and    $0xff,%ah
   15852:	0f b6 c0             	movzbl %al,%eax
   15855:	8b 55 fc             	mov    -0x4(%rbp),%edx
   15858:	48 8d 35 34 60 00 00 	lea    0x6034(%rip),%rsi        # 1b893 <g_2129+0x23d3>
   1585f:	48 89 c7             	mov    %rax,%rdi
   15862:	e8 8c 0e ff ff       	callq  66f3 <transparent_crc>
   15867:	48 8b 05 2a a7 00 00 	mov    0xa72a(%rip),%rax        # 1ff98 <g_857+0x18>
   1586e:	c1 e0 07             	shl    $0x7,%eax
   15871:	c1 f8 14             	sar    $0x14,%eax
   15874:	48 0f bf c0          	movswq %ax,%rax
   15878:	8b 55 fc             	mov    -0x4(%rbp),%edx
   1587b:	48 8d 35 1a 60 00 00 	lea    0x601a(%rip),%rsi        # 1b89c <g_2129+0x23dc>
   15882:	48 89 c7             	mov    %rax,%rdi
   15885:	e8 69 0e ff ff       	callq  66f3 <transparent_crc>
   1588a:	48 8b 05 0f a7 00 00 	mov    0xa70f(%rip),%rax        # 1ffa0 <g_860>
   15891:	25 ff ff 07 00       	and    $0x7ffff,%eax
   15896:	89 c1                	mov    %eax,%ecx
   15898:	8b 45 fc             	mov    -0x4(%rbp),%eax
   1589b:	89 c2                	mov    %eax,%edx
   1589d:	48 8d 35 01 60 00 00 	lea    0x6001(%rip),%rsi        # 1b8a5 <g_2129+0x23e5>
   158a4:	48 89 cf             	mov    %rcx,%rdi
   158a7:	e8 47 0e ff ff       	callq  66f3 <transparent_crc>
   158ac:	48 8b 05 ed a6 00 00 	mov    0xa6ed(%rip),%rax        # 1ffa0 <g_860>
   158b3:	48 c1 e0 10          	shl    $0x10,%rax
   158b7:	48 c1 f8 23          	sar    $0x23,%rax
   158bb:	48 98                	cltq   
   158bd:	8b 55 fc             	mov    -0x4(%rbp),%edx
   158c0:	48 8d 35 e7 5f 00 00 	lea    0x5fe7(%rip),%rsi        # 1b8ae <g_2129+0x23ee>
   158c7:	48 89 c7             	mov    %rax,%rdi
   158ca:	e8 24 0e ff ff       	callq  66f3 <transparent_crc>
   158cf:	48 8b 05 ca a6 00 00 	mov    0xa6ca(%rip),%rax        # 1ffa0 <g_860>
   158d6:	48 c1 e8 30          	shr    $0x30,%rax
   158da:	48 89 c2             	mov    %rax,%rdx
   158dd:	48 8b 05 c4 a6 00 00 	mov    0xa6c4(%rip),%rax        # 1ffa8 <g_860+0x8>
   158e4:	25 ff 03 00 00       	and    $0x3ff,%eax
   158e9:	48 c1 e0 10          	shl    $0x10,%rax
   158ed:	48 09 d0             	or     %rdx,%rax
   158f0:	48 c1 e0 26          	shl    $0x26,%rax
   158f4:	48 c1 f8 26          	sar    $0x26,%rax
   158f8:	48 98                	cltq   
   158fa:	8b 55 fc             	mov    -0x4(%rbp),%edx
   158fd:	48 8d 35 b3 5f 00 00 	lea    0x5fb3(%rip),%rsi        # 1b8b7 <g_2129+0x23f7>
   15904:	48 89 c7             	mov    %rax,%rdi
   15907:	e8 e7 0d ff ff       	callq  66f3 <transparent_crc>
   1590c:	48 8b 05 95 a6 00 00 	mov    0xa695(%rip),%rax        # 1ffa8 <g_860+0x8>
   15913:	48 c1 e0 08          	shl    $0x8,%rax
   15917:	48 c1 f8 28          	sar    $0x28,%rax
   1591b:	48 98                	cltq   
   1591d:	8b 55 fc             	mov    -0x4(%rbp),%edx
   15920:	48 8d 35 99 5f 00 00 	lea    0x5f99(%rip),%rsi        # 1b8c0 <g_2129+0x2400>
   15927:	48 89 c7             	mov    %rax,%rdi
   1592a:	e8 c4 0d ff ff       	callq  66f3 <transparent_crc>
   1592f:	48 8b 05 72 a6 00 00 	mov    0xa672(%rip),%rax        # 1ffa8 <g_860+0x8>
   15936:	48 c1 e8 38          	shr    $0x38,%rax
   1593a:	48 89 c2             	mov    %rax,%rdx
   1593d:	48 8b 05 6c a6 00 00 	mov    0xa66c(%rip),%rax        # 1ffb0 <g_860+0x10>
   15944:	25 ff 07 00 00       	and    $0x7ff,%eax
   15949:	48 c1 e0 08          	shl    $0x8,%rax
   1594d:	48 09 d0             	or     %rdx,%rax
   15950:	48 c1 e0 2d          	shl    $0x2d,%rax
   15954:	48 c1 f8 2d          	sar    $0x2d,%rax
   15958:	48 98                	cltq   
   1595a:	8b 55 fc             	mov    -0x4(%rbp),%edx
   1595d:	48 8d 35 65 5f 00 00 	lea    0x5f65(%rip),%rsi        # 1b8c9 <g_2129+0x2409>
   15964:	48 89 c7             	mov    %rax,%rdi
   15967:	e8 87 0d ff ff       	callq  66f3 <transparent_crc>
   1596c:	48 8b 05 3d a6 00 00 	mov    0xa63d(%rip),%rax        # 1ffb0 <g_860+0x10>
   15973:	48 c1 e0 19          	shl    $0x19,%rax
   15977:	48 c1 f8 24          	sar    $0x24,%rax
   1597b:	48 98                	cltq   
   1597d:	8b 55 fc             	mov    -0x4(%rbp),%edx
   15980:	48 8d 35 4b 5f 00 00 	lea    0x5f4b(%rip),%rsi        # 1b8d2 <g_2129+0x2412>
   15987:	48 89 c7             	mov    %rax,%rdi
   1598a:	e8 64 0d ff ff       	callq  66f3 <transparent_crc>
   1598f:	48 8b 05 1a a6 00 00 	mov    0xa61a(%rip),%rax        # 1ffb0 <g_860+0x10>
   15996:	48 c1 e8 27          	shr    $0x27,%rax
   1599a:	48 89 c2             	mov    %rax,%rdx
   1599d:	48 8b 05 14 a6 00 00 	mov    0xa614(%rip),%rax        # 1ffb8 <g_860+0x18>
   159a4:	83 e0 1f             	and    $0x1f,%eax
   159a7:	48 c1 e0 19          	shl    $0x19,%rax
   159ab:	48 09 d0             	or     %rdx,%rax
   159ae:	48 c1 e0 22          	shl    $0x22,%rax
   159b2:	48 c1 f8 22          	sar    $0x22,%rax
   159b6:	48 98                	cltq   
   159b8:	8b 55 fc             	mov    -0x4(%rbp),%edx
   159bb:	48 8d 35 19 5f 00 00 	lea    0x5f19(%rip),%rsi        # 1b8db <g_2129+0x241b>
   159c2:	48 89 c7             	mov    %rax,%rdi
   159c5:	e8 29 0d ff ff       	callq  66f3 <transparent_crc>
   159ca:	48 8b 05 e7 a5 00 00 	mov    0xa5e7(%rip),%rax        # 1ffb8 <g_860+0x18>
   159d1:	48 c1 e8 05          	shr    $0x5,%rax
   159d5:	80 e4 ff             	and    $0xff,%ah
   159d8:	0f b6 c0             	movzbl %al,%eax
   159db:	8b 55 fc             	mov    -0x4(%rbp),%edx
   159de:	48 8d 35 ff 5e 00 00 	lea    0x5eff(%rip),%rsi        # 1b8e4 <g_2129+0x2424>
   159e5:	48 89 c7             	mov    %rax,%rdi
   159e8:	e8 06 0d ff ff       	callq  66f3 <transparent_crc>
   159ed:	48 8b 05 c4 a5 00 00 	mov    0xa5c4(%rip),%rax        # 1ffb8 <g_860+0x18>
   159f4:	c1 e0 07             	shl    $0x7,%eax
   159f7:	c1 f8 14             	sar    $0x14,%eax
   159fa:	48 0f bf c0          	movswq %ax,%rax
   159fe:	8b 55 fc             	mov    -0x4(%rbp),%edx
   15a01:	48 8d 35 e5 5e 00 00 	lea    0x5ee5(%rip),%rsi        # 1b8ed <g_2129+0x242d>
   15a08:	48 89 c7             	mov    %rax,%rdi
   15a0b:	e8 e3 0c ff ff       	callq  66f3 <transparent_crc>
   15a10:	c7 45 f0 00 00 00 00 	movl   $0x0,-0x10(%rbp)
   15a17:	eb 45                	jmp    15a5e <main+0x1895>
   15a19:	8b 45 f0             	mov    -0x10(%rbp),%eax
   15a1c:	48 98                	cltq   
   15a1e:	48 8d 15 97 a5 00 00 	lea    0xa597(%rip),%rdx        # 1ffbc <g_944>
   15a25:	0f b6 04 10          	movzbl (%rax,%rdx,1),%eax
   15a29:	0f b6 c0             	movzbl %al,%eax
   15a2c:	8b 55 fc             	mov    -0x4(%rbp),%edx
   15a2f:	48 8d 35 c0 5e 00 00 	lea    0x5ec0(%rip),%rsi        # 1b8f6 <g_2129+0x2436>
   15a36:	48 89 c7             	mov    %rax,%rdi
   15a39:	e8 b5 0c ff ff       	callq  66f3 <transparent_crc>
   15a3e:	83 7d fc 00          	cmpl   $0x0,-0x4(%rbp)
   15a42:	74 16                	je     15a5a <main+0x1891>
   15a44:	8b 45 f0             	mov    -0x10(%rbp),%eax
   15a47:	89 c6                	mov    %eax,%esi
   15a49:	48 8d 3d dc 5c 00 00 	lea    0x5cdc(%rip),%rdi        # 1b72c <g_2129+0x226c>
   15a50:	b8 00 00 00 00       	mov    $0x0,%eax
   15a55:	e8 26 f6 fe ff       	callq  5080 <printf@plt>
   15a5a:	83 45 f0 01          	addl   $0x1,-0x10(%rbp)
   15a5e:	83 7d f0 03          	cmpl   $0x3,-0x10(%rbp)
   15a62:	7e b5                	jle    15a19 <main+0x1850>
   15a64:	48 8b 05 55 a5 00 00 	mov    0xa555(%rip),%rax        # 1ffc0 <g_947>
   15a6b:	25 ff ff 07 00       	and    $0x7ffff,%eax
   15a70:	89 c1                	mov    %eax,%ecx
   15a72:	8b 45 fc             	mov    -0x4(%rbp),%eax
   15a75:	89 c2                	mov    %eax,%edx
   15a77:	48 8d 35 81 5e 00 00 	lea    0x5e81(%rip),%rsi        # 1b8ff <g_2129+0x243f>
   15a7e:	48 89 cf             	mov    %rcx,%rdi
   15a81:	e8 6d 0c ff ff       	callq  66f3 <transparent_crc>
   15a86:	48 8b 05 33 a5 00 00 	mov    0xa533(%rip),%rax        # 1ffc0 <g_947>
   15a8d:	48 c1 e0 10          	shl    $0x10,%rax
   15a91:	48 c1 f8 23          	sar    $0x23,%rax
   15a95:	48 98                	cltq   
   15a97:	8b 55 fc             	mov    -0x4(%rbp),%edx
   15a9a:	48 8d 35 67 5e 00 00 	lea    0x5e67(%rip),%rsi        # 1b908 <g_2129+0x2448>
   15aa1:	48 89 c7             	mov    %rax,%rdi
   15aa4:	e8 4a 0c ff ff       	callq  66f3 <transparent_crc>
   15aa9:	48 8b 05 10 a5 00 00 	mov    0xa510(%rip),%rax        # 1ffc0 <g_947>
   15ab0:	48 c1 e8 30          	shr    $0x30,%rax
   15ab4:	48 89 c2             	mov    %rax,%rdx
   15ab7:	48 8b 05 0a a5 00 00 	mov    0xa50a(%rip),%rax        # 1ffc8 <g_947+0x8>
   15abe:	25 ff 03 00 00       	and    $0x3ff,%eax
   15ac3:	48 c1 e0 10          	shl    $0x10,%rax
   15ac7:	48 09 d0             	or     %rdx,%rax
   15aca:	48 c1 e0 26          	shl    $0x26,%rax
   15ace:	48 c1 f8 26          	sar    $0x26,%rax
   15ad2:	48 98                	cltq   
   15ad4:	8b 55 fc             	mov    -0x4(%rbp),%edx
   15ad7:	48 8d 35 33 5e 00 00 	lea    0x5e33(%rip),%rsi        # 1b911 <g_2129+0x2451>
   15ade:	48 89 c7             	mov    %rax,%rdi
   15ae1:	e8 0d 0c ff ff       	callq  66f3 <transparent_crc>
   15ae6:	48 8b 05 db a4 00 00 	mov    0xa4db(%rip),%rax        # 1ffc8 <g_947+0x8>
   15aed:	48 c1 e0 08          	shl    $0x8,%rax
   15af1:	48 c1 f8 28          	sar    $0x28,%rax
   15af5:	48 98                	cltq   
   15af7:	8b 55 fc             	mov    -0x4(%rbp),%edx
   15afa:	48 8d 35 19 5e 00 00 	lea    0x5e19(%rip),%rsi        # 1b91a <g_2129+0x245a>
   15b01:	48 89 c7             	mov    %rax,%rdi
   15b04:	e8 ea 0b ff ff       	callq  66f3 <transparent_crc>
   15b09:	48 8b 05 b8 a4 00 00 	mov    0xa4b8(%rip),%rax        # 1ffc8 <g_947+0x8>
   15b10:	48 c1 e8 38          	shr    $0x38,%rax
   15b14:	48 89 c2             	mov    %rax,%rdx
   15b17:	48 8b 05 b2 a4 00 00 	mov    0xa4b2(%rip),%rax        # 1ffd0 <g_947+0x10>
   15b1e:	25 ff 07 00 00       	and    $0x7ff,%eax
   15b23:	48 c1 e0 08          	shl    $0x8,%rax
   15b27:	48 09 d0             	or     %rdx,%rax
   15b2a:	48 c1 e0 2d          	shl    $0x2d,%rax
   15b2e:	48 c1 f8 2d          	sar    $0x2d,%rax
   15b32:	48 98                	cltq   
   15b34:	8b 55 fc             	mov    -0x4(%rbp),%edx
   15b37:	48 8d 35 e5 5d 00 00 	lea    0x5de5(%rip),%rsi        # 1b923 <g_2129+0x2463>
   15b3e:	48 89 c7             	mov    %rax,%rdi
   15b41:	e8 ad 0b ff ff       	callq  66f3 <transparent_crc>
   15b46:	48 8b 05 83 a4 00 00 	mov    0xa483(%rip),%rax        # 1ffd0 <g_947+0x10>
   15b4d:	48 c1 e0 19          	shl    $0x19,%rax
   15b51:	48 c1 f8 24          	sar    $0x24,%rax
   15b55:	48 98                	cltq   
   15b57:	8b 55 fc             	mov    -0x4(%rbp),%edx
   15b5a:	48 8d 35 cb 5d 00 00 	lea    0x5dcb(%rip),%rsi        # 1b92c <g_2129+0x246c>
   15b61:	48 89 c7             	mov    %rax,%rdi
   15b64:	e8 8a 0b ff ff       	callq  66f3 <transparent_crc>
   15b69:	48 8b 05 60 a4 00 00 	mov    0xa460(%rip),%rax        # 1ffd0 <g_947+0x10>
   15b70:	48 c1 e8 27          	shr    $0x27,%rax
   15b74:	48 89 c2             	mov    %rax,%rdx
   15b77:	48 8b 05 5a a4 00 00 	mov    0xa45a(%rip),%rax        # 1ffd8 <g_947+0x18>
   15b7e:	83 e0 1f             	and    $0x1f,%eax
   15b81:	48 c1 e0 19          	shl    $0x19,%rax
   15b85:	48 09 d0             	or     %rdx,%rax
   15b88:	48 c1 e0 22          	shl    $0x22,%rax
   15b8c:	48 c1 f8 22          	sar    $0x22,%rax
   15b90:	48 98                	cltq   
   15b92:	8b 55 fc             	mov    -0x4(%rbp),%edx
   15b95:	48 8d 35 99 5d 00 00 	lea    0x5d99(%rip),%rsi        # 1b935 <g_2129+0x2475>
   15b9c:	48 89 c7             	mov    %rax,%rdi
   15b9f:	e8 4f 0b ff ff       	callq  66f3 <transparent_crc>
   15ba4:	48 8b 05 2d a4 00 00 	mov    0xa42d(%rip),%rax        # 1ffd8 <g_947+0x18>
   15bab:	48 c1 e8 05          	shr    $0x5,%rax
   15baf:	80 e4 ff             	and    $0xff,%ah
   15bb2:	0f b6 c0             	movzbl %al,%eax
   15bb5:	8b 55 fc             	mov    -0x4(%rbp),%edx
   15bb8:	48 8d 35 7f 5d 00 00 	lea    0x5d7f(%rip),%rsi        # 1b93e <g_2129+0x247e>
   15bbf:	48 89 c7             	mov    %rax,%rdi
   15bc2:	e8 2c 0b ff ff       	callq  66f3 <transparent_crc>
   15bc7:	48 8b 05 0a a4 00 00 	mov    0xa40a(%rip),%rax        # 1ffd8 <g_947+0x18>
   15bce:	c1 e0 07             	shl    $0x7,%eax
   15bd1:	c1 f8 14             	sar    $0x14,%eax
   15bd4:	48 0f bf c0          	movswq %ax,%rax
   15bd8:	8b 55 fc             	mov    -0x4(%rbp),%edx
   15bdb:	48 8d 35 65 5d 00 00 	lea    0x5d65(%rip),%rsi        # 1b947 <g_2129+0x2487>
   15be2:	48 89 c7             	mov    %rax,%rdi
   15be5:	e8 09 0b ff ff       	callq  66f3 <transparent_crc>
   15bea:	8b 05 ec a3 00 00    	mov    0xa3ec(%rip),%eax        # 1ffdc <g_962>
   15bf0:	89 c1                	mov    %eax,%ecx
   15bf2:	8b 45 fc             	mov    -0x4(%rbp),%eax
   15bf5:	89 c2                	mov    %eax,%edx
   15bf7:	48 8d 35 52 5d 00 00 	lea    0x5d52(%rip),%rsi        # 1b950 <g_2129+0x2490>
   15bfe:	48 89 cf             	mov    %rcx,%rdi
   15c01:	e8 ed 0a ff ff       	callq  66f3 <transparent_crc>
   15c06:	0f b6 05 cf a3 00 00 	movzbl 0xa3cf(%rip),%eax        # 1ffdc <g_962>
   15c0d:	0f b6 c0             	movzbl %al,%eax
   15c10:	8b 55 fc             	mov    -0x4(%rbp),%edx
   15c13:	48 8d 35 3f 5d 00 00 	lea    0x5d3f(%rip),%rsi        # 1b959 <g_2129+0x2499>
   15c1a:	48 89 c7             	mov    %rax,%rdi
   15c1d:	e8 d1 0a ff ff       	callq  66f3 <transparent_crc>
   15c22:	8b 05 b4 a3 00 00    	mov    0xa3b4(%rip),%eax        # 1ffdc <g_962>
   15c28:	48 98                	cltq   
   15c2a:	8b 55 fc             	mov    -0x4(%rbp),%edx
   15c2d:	48 8d 35 2e 5d 00 00 	lea    0x5d2e(%rip),%rsi        # 1b962 <g_2129+0x24a2>
   15c34:	48 89 c7             	mov    %rax,%rdi
   15c37:	e8 b7 0a ff ff       	callq  66f3 <transparent_crc>
   15c3c:	c7 45 f0 00 00 00 00 	movl   $0x0,-0x10(%rbp)
   15c43:	e9 2b 02 00 00       	jmpq   15e73 <main+0x1caa>
   15c48:	8b 45 f0             	mov    -0x10(%rbp),%eax
   15c4b:	48 63 d0             	movslq %eax,%rdx
   15c4e:	48 89 d0             	mov    %rdx,%rax
   15c51:	48 c1 e0 03          	shl    $0x3,%rax
   15c55:	48 01 d0             	add    %rdx,%rax
   15c58:	48 01 c0             	add    %rax,%rax
   15c5b:	48 89 c2             	mov    %rax,%rdx
   15c5e:	48 8d 05 7b a3 00 00 	lea    0xa37b(%rip),%rax        # 1ffe0 <g_1003>
   15c65:	0f b6 04 02          	movzbl (%rdx,%rax,1),%eax
   15c69:	0f b6 c0             	movzbl %al,%eax
   15c6c:	8b 55 fc             	mov    -0x4(%rbp),%edx
   15c6f:	48 8d 35 f5 5c 00 00 	lea    0x5cf5(%rip),%rsi        # 1b96b <g_2129+0x24ab>
   15c76:	48 89 c7             	mov    %rax,%rdi
   15c79:	e8 75 0a ff ff       	callq  66f3 <transparent_crc>
   15c7e:	8b 45 f0             	mov    -0x10(%rbp),%eax
   15c81:	48 63 d0             	movslq %eax,%rdx
   15c84:	48 89 d0             	mov    %rdx,%rax
   15c87:	48 c1 e0 03          	shl    $0x3,%rax
   15c8b:	48 01 d0             	add    %rdx,%rax
   15c8e:	48 01 c0             	add    %rax,%rax
   15c91:	48 89 c2             	mov    %rax,%rdx
   15c94:	48 8d 05 46 a3 00 00 	lea    0xa346(%rip),%rax        # 1ffe1 <g_1003+0x1>
   15c9b:	0f b6 04 02          	movzbl (%rdx,%rax,1),%eax
   15c9f:	0f b6 c0             	movzbl %al,%eax
   15ca2:	8b 55 fc             	mov    -0x4(%rbp),%edx
   15ca5:	48 8d 35 cc 5c 00 00 	lea    0x5ccc(%rip),%rsi        # 1b978 <g_2129+0x24b8>
   15cac:	48 89 c7             	mov    %rax,%rdi
   15caf:	e8 3f 0a ff ff       	callq  66f3 <transparent_crc>
   15cb4:	8b 45 f0             	mov    -0x10(%rbp),%eax
   15cb7:	48 63 d0             	movslq %eax,%rdx
   15cba:	48 89 d0             	mov    %rdx,%rax
   15cbd:	48 c1 e0 03          	shl    $0x3,%rax
   15cc1:	48 01 d0             	add    %rdx,%rax
   15cc4:	48 01 c0             	add    %rax,%rax
   15cc7:	48 89 c2             	mov    %rax,%rdx
   15cca:	48 8d 05 11 a3 00 00 	lea    0xa311(%rip),%rax        # 1ffe2 <g_1003+0x2>
   15cd1:	0f b6 04 02          	movzbl (%rdx,%rax,1),%eax
   15cd5:	0f b6 c0             	movzbl %al,%eax
   15cd8:	8b 55 fc             	mov    -0x4(%rbp),%edx
   15cdb:	48 8d 35 a3 5c 00 00 	lea    0x5ca3(%rip),%rsi        # 1b985 <g_2129+0x24c5>
   15ce2:	48 89 c7             	mov    %rax,%rdi
   15ce5:	e8 09 0a ff ff       	callq  66f3 <transparent_crc>
   15cea:	8b 45 f0             	mov    -0x10(%rbp),%eax
   15ced:	48 63 d0             	movslq %eax,%rdx
   15cf0:	48 89 d0             	mov    %rdx,%rax
   15cf3:	48 c1 e0 03          	shl    $0x3,%rax
   15cf7:	48 01 d0             	add    %rdx,%rax
   15cfa:	48 01 c0             	add    %rax,%rax
   15cfd:	48 89 c2             	mov    %rax,%rdx
   15d00:	48 8d 05 d9 a2 00 00 	lea    0xa2d9(%rip),%rax        # 1ffe0 <g_1003>
   15d07:	0f b7 44 02 02       	movzwl 0x2(%rdx,%rax,1),%eax
   15d0c:	c1 e0 04             	shl    $0x4,%eax
   15d0f:	66 c1 f8 0c          	sar    $0xc,%ax
   15d13:	48 0f be c0          	movsbq %al,%rax
   15d17:	8b 55 fc             	mov    -0x4(%rbp),%edx
   15d1a:	48 8d 35 71 5c 00 00 	lea    0x5c71(%rip),%rsi        # 1b992 <g_2129+0x24d2>
   15d21:	48 89 c7             	mov    %rax,%rdi
   15d24:	e8 ca 09 ff ff       	callq  66f3 <transparent_crc>
   15d29:	8b 45 f0             	mov    -0x10(%rbp),%eax
   15d2c:	48 63 d0             	movslq %eax,%rdx
   15d2f:	48 89 d0             	mov    %rdx,%rax
   15d32:	48 c1 e0 03          	shl    $0x3,%rax
   15d36:	48 01 d0             	add    %rdx,%rax
   15d39:	48 01 c0             	add    %rax,%rax
   15d3c:	48 89 c2             	mov    %rax,%rdx
   15d3f:	48 8d 05 9e a2 00 00 	lea    0xa29e(%rip),%rax        # 1ffe4 <g_1003+0x4>
   15d46:	8b 04 02             	mov    (%rdx,%rax,1),%eax
   15d49:	89 c1                	mov    %eax,%ecx
   15d4b:	8b 45 fc             	mov    -0x4(%rbp),%eax
   15d4e:	89 c2                	mov    %eax,%edx
   15d50:	48 8d 35 48 5c 00 00 	lea    0x5c48(%rip),%rsi        # 1b99f <g_2129+0x24df>
   15d57:	48 89 cf             	mov    %rcx,%rdi
   15d5a:	e8 94 09 ff ff       	callq  66f3 <transparent_crc>
   15d5f:	8b 45 f0             	mov    -0x10(%rbp),%eax
   15d62:	48 63 d0             	movslq %eax,%rdx
   15d65:	48 89 d0             	mov    %rdx,%rax
   15d68:	48 c1 e0 03          	shl    $0x3,%rax
   15d6c:	48 01 d0             	add    %rdx,%rax
   15d6f:	48 01 c0             	add    %rax,%rax
   15d72:	48 89 c2             	mov    %rax,%rdx
   15d75:	48 8d 05 64 a2 00 00 	lea    0xa264(%rip),%rax        # 1ffe0 <g_1003>
   15d7c:	0f b7 4c 02 08       	movzwl 0x8(%rdx,%rax,1),%ecx
   15d81:	0f b7 44 02 0a       	movzwl 0xa(%rdx,%rax,1),%eax
   15d86:	25 ff 7f 00 00       	and    $0x7fff,%eax
   15d8b:	48 c1 e0 10          	shl    $0x10,%rax
   15d8f:	48 09 c8             	or     %rcx,%rax
   15d92:	48 c1 e0 21          	shl    $0x21,%rax
   15d96:	48 c1 f8 21          	sar    $0x21,%rax
   15d9a:	48 98                	cltq   
   15d9c:	8b 55 fc             	mov    -0x4(%rbp),%edx
   15d9f:	48 8d 35 06 5c 00 00 	lea    0x5c06(%rip),%rsi        # 1b9ac <g_2129+0x24ec>
   15da6:	48 89 c7             	mov    %rax,%rdi
   15da9:	e8 45 09 ff ff       	callq  66f3 <transparent_crc>
   15dae:	8b 45 f0             	mov    -0x10(%rbp),%eax
   15db1:	48 63 d0             	movslq %eax,%rdx
   15db4:	48 89 d0             	mov    %rdx,%rax
   15db7:	48 c1 e0 03          	shl    $0x3,%rax
   15dbb:	48 01 d0             	add    %rdx,%rax
   15dbe:	48 01 c0             	add    %rax,%rax
   15dc1:	48 89 c2             	mov    %rax,%rdx
   15dc4:	48 8d 05 21 a2 00 00 	lea    0xa221(%rip),%rax        # 1ffec <g_1003+0xc>
   15dcb:	0f b7 04 02          	movzwl (%rdx,%rax,1),%eax
   15dcf:	48 0f bf c0          	movswq %ax,%rax
   15dd3:	8b 55 fc             	mov    -0x4(%rbp),%edx
   15dd6:	48 8d 35 dc 5b 00 00 	lea    0x5bdc(%rip),%rsi        # 1b9b9 <g_2129+0x24f9>
   15ddd:	48 89 c7             	mov    %rax,%rdi
   15de0:	e8 0e 09 ff ff       	callq  66f3 <transparent_crc>
   15de5:	8b 45 f0             	mov    -0x10(%rbp),%eax
   15de8:	48 63 d0             	movslq %eax,%rdx
   15deb:	48 89 d0             	mov    %rdx,%rax
   15dee:	48 c1 e0 03          	shl    $0x3,%rax
   15df2:	48 01 d0             	add    %rdx,%rax
   15df5:	48 01 c0             	add    %rax,%rax
   15df8:	48 89 c2             	mov    %rax,%rdx
   15dfb:	48 8d 05 ec a1 00 00 	lea    0xa1ec(%rip),%rax        # 1ffee <g_1003+0xe>
   15e02:	0f b7 04 02          	movzwl (%rdx,%rax,1),%eax
   15e06:	48 0f bf c0          	movswq %ax,%rax
   15e0a:	8b 55 fc             	mov    -0x4(%rbp),%edx
   15e0d:	48 8d 35 b2 5b 00 00 	lea    0x5bb2(%rip),%rsi        # 1b9c6 <g_2129+0x2506>
   15e14:	48 89 c7             	mov    %rax,%rdi
   15e17:	e8 d7 08 ff ff       	callq  66f3 <transparent_crc>
   15e1c:	8b 45 f0             	mov    -0x10(%rbp),%eax
   15e1f:	48 63 d0             	movslq %eax,%rdx
   15e22:	48 89 d0             	mov    %rdx,%rax
   15e25:	48 c1 e0 03          	shl    $0x3,%rax
   15e29:	48 01 d0             	add    %rdx,%rax
   15e2c:	48 01 c0             	add    %rax,%rax
   15e2f:	48 89 c2             	mov    %rax,%rdx
   15e32:	48 8d 05 b7 a1 00 00 	lea    0xa1b7(%rip),%rax        # 1fff0 <g_1003+0x10>
   15e39:	0f b7 04 02          	movzwl (%rdx,%rax,1),%eax
   15e3d:	48 0f bf c0          	movswq %ax,%rax
   15e41:	8b 55 fc             	mov    -0x4(%rbp),%edx
   15e44:	48 8d 35 88 5b 00 00 	lea    0x5b88(%rip),%rsi        # 1b9d3 <g_2129+0x2513>
   15e4b:	48 89 c7             	mov    %rax,%rdi
   15e4e:	e8 a0 08 ff ff       	callq  66f3 <transparent_crc>
   15e53:	83 7d fc 00          	cmpl   $0x0,-0x4(%rbp)
   15e57:	74 16                	je     15e6f <main+0x1ca6>
   15e59:	8b 45 f0             	mov    -0x10(%rbp),%eax
   15e5c:	89 c6                	mov    %eax,%esi
   15e5e:	48 8d 3d c7 58 00 00 	lea    0x58c7(%rip),%rdi        # 1b72c <g_2129+0x226c>
   15e65:	b8 00 00 00 00       	mov    $0x0,%eax
   15e6a:	e8 11 f2 fe ff       	callq  5080 <printf@plt>
   15e6f:	83 45 f0 01          	addl   $0x1,-0x10(%rbp)
   15e73:	83 7d f0 02          	cmpl   $0x2,-0x10(%rbp)
   15e77:	0f 8e cb fd ff ff    	jle    15c48 <main+0x1a7f>
   15e7d:	48 8b 05 9c a1 00 00 	mov    0xa19c(%rip),%rax        # 20020 <g_1021>
   15e84:	25 ff ff 07 00       	and    $0x7ffff,%eax
   15e89:	89 c1                	mov    %eax,%ecx
   15e8b:	8b 45 fc             	mov    -0x4(%rbp),%eax
   15e8e:	89 c2                	mov    %eax,%edx
   15e90:	48 8d 35 49 5b 00 00 	lea    0x5b49(%rip),%rsi        # 1b9e0 <g_2129+0x2520>
   15e97:	48 89 cf             	mov    %rcx,%rdi
   15e9a:	e8 54 08 ff ff       	callq  66f3 <transparent_crc>
   15e9f:	48 8b 05 7a a1 00 00 	mov    0xa17a(%rip),%rax        # 20020 <g_1021>
   15ea6:	48 c1 e0 10          	shl    $0x10,%rax
   15eaa:	48 c1 f8 23          	sar    $0x23,%rax
   15eae:	48 98                	cltq   
   15eb0:	8b 55 fc             	mov    -0x4(%rbp),%edx
   15eb3:	48 8d 35 30 5b 00 00 	lea    0x5b30(%rip),%rsi        # 1b9ea <g_2129+0x252a>
   15eba:	48 89 c7             	mov    %rax,%rdi
   15ebd:	e8 31 08 ff ff       	callq  66f3 <transparent_crc>
   15ec2:	0f b7 05 5d a1 00 00 	movzwl 0xa15d(%rip),%eax        # 20026 <g_1021+0x6>
   15ec9:	0f b7 15 58 a1 00 00 	movzwl 0xa158(%rip),%edx        # 20028 <g_1021+0x8>
   15ed0:	81 e2 ff 03 00 00    	and    $0x3ff,%edx
   15ed6:	48 c1 e2 10          	shl    $0x10,%rdx
   15eda:	48 09 d0             	or     %rdx,%rax
   15edd:	48 c1 e0 26          	shl    $0x26,%rax
   15ee1:	48 c1 f8 26          	sar    $0x26,%rax
   15ee5:	48 98                	cltq   
   15ee7:	8b 55 fc             	mov    -0x4(%rbp),%edx
   15eea:	48 8d 35 03 5b 00 00 	lea    0x5b03(%rip),%rsi        # 1b9f4 <g_2129+0x2534>
   15ef1:	48 89 c7             	mov    %rax,%rdi
   15ef4:	e8 fa 07 ff ff       	callq  66f3 <transparent_crc>
   15ef9:	8b 05 2d a1 00 00    	mov    0xa12d(%rip),%eax        # 2002c <g_1021+0xc>
   15eff:	c1 e0 08             	shl    $0x8,%eax
   15f02:	c1 f8 08             	sar    $0x8,%eax
   15f05:	48 98                	cltq   
   15f07:	8b 55 fc             	mov    -0x4(%rbp),%edx
   15f0a:	48 8d 35 ed 5a 00 00 	lea    0x5aed(%rip),%rsi        # 1b9fe <g_2129+0x253e>
   15f11:	48 89 c7             	mov    %rax,%rdi
   15f14:	e8 da 07 ff ff       	callq  66f3 <transparent_crc>
   15f19:	0f b6 05 0f a1 00 00 	movzbl 0xa10f(%rip),%eax        # 2002f <g_1021+0xf>
   15f20:	0f b7 15 09 a1 00 00 	movzwl 0xa109(%rip),%edx        # 20030 <g_1021+0x10>
   15f27:	81 e2 ff 07 00 00    	and    $0x7ff,%edx
   15f2d:	48 c1 e2 08          	shl    $0x8,%rdx
   15f31:	48 09 d0             	or     %rdx,%rax
   15f34:	48 c1 e0 2d          	shl    $0x2d,%rax
   15f38:	48 c1 f8 2d          	sar    $0x2d,%rax
   15f3c:	48 98                	cltq   
   15f3e:	8b 55 fc             	mov    -0x4(%rbp),%edx
   15f41:	48 8d 35 c0 5a 00 00 	lea    0x5ac0(%rip),%rsi        # 1ba08 <g_2129+0x2548>
   15f48:	48 89 c7             	mov    %rax,%rdi
   15f4b:	e8 a3 07 ff ff       	callq  66f3 <transparent_crc>
   15f50:	48 8b 05 d9 a0 00 00 	mov    0xa0d9(%rip),%rax        # 20030 <g_1021+0x10>
   15f57:	48 c1 e0 19          	shl    $0x19,%rax
   15f5b:	48 c1 f8 24          	sar    $0x24,%rax
   15f5f:	48 98                	cltq   
   15f61:	8b 55 fc             	mov    -0x4(%rbp),%edx
   15f64:	48 8d 35 a7 5a 00 00 	lea    0x5aa7(%rip),%rsi        # 1ba12 <g_2129+0x2552>
   15f6b:	48 89 c7             	mov    %rax,%rdi
   15f6e:	e8 80 07 ff ff       	callq  66f3 <transparent_crc>
   15f73:	8b 05 bb a0 00 00    	mov    0xa0bb(%rip),%eax        # 20034 <g_1021+0x14>
   15f79:	c1 e8 07             	shr    $0x7,%eax
   15f7c:	89 c2                	mov    %eax,%edx
   15f7e:	0f b6 05 b3 a0 00 00 	movzbl 0xa0b3(%rip),%eax        # 20038 <g_1021+0x18>
   15f85:	83 e0 1f             	and    $0x1f,%eax
   15f88:	48 c1 e0 19          	shl    $0x19,%rax
   15f8c:	48 09 d0             	or     %rdx,%rax
   15f8f:	48 c1 e0 22          	shl    $0x22,%rax
   15f93:	48 c1 f8 22          	sar    $0x22,%rax
   15f97:	48 98                	cltq   
   15f99:	8b 55 fc             	mov    -0x4(%rbp),%edx
   15f9c:	48 8d 35 79 5a 00 00 	lea    0x5a79(%rip),%rsi        # 1ba1c <g_2129+0x255c>
   15fa3:	48 89 c7             	mov    %rax,%rdi
   15fa6:	e8 48 07 ff ff       	callq  66f3 <transparent_crc>
   15fab:	0f b7 05 86 a0 00 00 	movzwl 0xa086(%rip),%eax        # 20038 <g_1021+0x18>
   15fb2:	66 c1 e8 05          	shr    $0x5,%ax
   15fb6:	80 e4 ff             	and    $0xff,%ah
   15fb9:	0f b6 c0             	movzbl %al,%eax
   15fbc:	8b 55 fc             	mov    -0x4(%rbp),%edx
   15fbf:	48 8d 35 60 5a 00 00 	lea    0x5a60(%rip),%rsi        # 1ba26 <g_2129+0x2566>
   15fc6:	48 89 c7             	mov    %rax,%rdi
   15fc9:	e8 25 07 ff ff       	callq  66f3 <transparent_crc>
   15fce:	48 8b 05 63 a0 00 00 	mov    0xa063(%rip),%rax        # 20038 <g_1021+0x18>
   15fd5:	c1 e0 07             	shl    $0x7,%eax
   15fd8:	c1 f8 14             	sar    $0x14,%eax
   15fdb:	48 0f bf c0          	movswq %ax,%rax
   15fdf:	8b 55 fc             	mov    -0x4(%rbp),%edx
   15fe2:	48 8d 35 47 5a 00 00 	lea    0x5a47(%rip),%rsi        # 1ba30 <g_2129+0x2570>
   15fe9:	48 89 c7             	mov    %rax,%rdi
   15fec:	e8 02 07 ff ff       	callq  66f3 <transparent_crc>
   15ff1:	0f b6 05 48 a0 00 00 	movzbl 0xa048(%rip),%eax        # 20040 <g_1041>
   15ff8:	0f b6 c0             	movzbl %al,%eax
   15ffb:	8b 55 fc             	mov    -0x4(%rbp),%edx
   15ffe:	48 8d 35 35 5a 00 00 	lea    0x5a35(%rip),%rsi        # 1ba3a <g_2129+0x257a>
   16005:	48 89 c7             	mov    %rax,%rdi
   16008:	e8 e6 06 ff ff       	callq  66f3 <transparent_crc>
   1600d:	0f b6 05 2d a0 00 00 	movzbl 0xa02d(%rip),%eax        # 20041 <g_1041+0x1>
   16014:	0f b6 c0             	movzbl %al,%eax
   16017:	8b 55 fc             	mov    -0x4(%rbp),%edx
   1601a:	48 8d 35 23 5a 00 00 	lea    0x5a23(%rip),%rsi        # 1ba44 <g_2129+0x2584>
   16021:	48 89 c7             	mov    %rax,%rdi
   16024:	e8 ca 06 ff ff       	callq  66f3 <transparent_crc>
   16029:	0f b6 05 12 a0 00 00 	movzbl 0xa012(%rip),%eax        # 20042 <g_1041+0x2>
   16030:	0f b6 c0             	movzbl %al,%eax
   16033:	8b 55 fc             	mov    -0x4(%rbp),%edx
   16036:	48 8d 35 11 5a 00 00 	lea    0x5a11(%rip),%rsi        # 1ba4e <g_2129+0x258e>
   1603d:	48 89 c7             	mov    %rax,%rdi
   16040:	e8 ae 06 ff ff       	callq  66f3 <transparent_crc>
   16045:	48 8b 05 f4 9f 00 00 	mov    0x9ff4(%rip),%rax        # 20040 <g_1041>
   1604c:	c1 e0 04             	shl    $0x4,%eax
   1604f:	c1 f8 1c             	sar    $0x1c,%eax
   16052:	48 0f be c0          	movsbq %al,%rax
   16056:	8b 55 fc             	mov    -0x4(%rbp),%edx
   16059:	48 8d 35 f8 59 00 00 	lea    0x59f8(%rip),%rsi        # 1ba58 <g_2129+0x2598>
   16060:	48 89 c7             	mov    %rax,%rdi
   16063:	e8 8b 06 ff ff       	callq  66f3 <transparent_crc>
   16068:	8b 05 d6 9f 00 00    	mov    0x9fd6(%rip),%eax        # 20044 <g_1041+0x4>
   1606e:	89 c1                	mov    %eax,%ecx
   16070:	8b 45 fc             	mov    -0x4(%rbp),%eax
   16073:	89 c2                	mov    %eax,%edx
   16075:	48 8d 35 e6 59 00 00 	lea    0x59e6(%rip),%rsi        # 1ba62 <g_2129+0x25a2>
   1607c:	48 89 cf             	mov    %rcx,%rdi
   1607f:	e8 6f 06 ff ff       	callq  66f3 <transparent_crc>
   16084:	48 8b 05 bd 9f 00 00 	mov    0x9fbd(%rip),%rax        # 20048 <g_1041+0x8>
   1608b:	01 c0                	add    %eax,%eax
   1608d:	d1 f8                	sar    %eax
   1608f:	48 98                	cltq   
   16091:	8b 55 fc             	mov    -0x4(%rbp),%edx
   16094:	48 8d 35 d1 59 00 00 	lea    0x59d1(%rip),%rsi        # 1ba6c <g_2129+0x25ac>
   1609b:	48 89 c7             	mov    %rax,%rdi
   1609e:	e8 50 06 ff ff       	callq  66f3 <transparent_crc>
   160a3:	0f b7 05 a2 9f 00 00 	movzwl 0x9fa2(%rip),%eax        # 2004c <g_1041+0xc>
   160aa:	48 0f bf c0          	movswq %ax,%rax
   160ae:	8b 55 fc             	mov    -0x4(%rbp),%edx
   160b1:	48 8d 35 be 59 00 00 	lea    0x59be(%rip),%rsi        # 1ba76 <g_2129+0x25b6>
   160b8:	48 89 c7             	mov    %rax,%rdi
   160bb:	e8 33 06 ff ff       	callq  66f3 <transparent_crc>
   160c0:	0f b7 05 87 9f 00 00 	movzwl 0x9f87(%rip),%eax        # 2004e <g_1041+0xe>
   160c7:	48 0f bf c0          	movswq %ax,%rax
   160cb:	8b 55 fc             	mov    -0x4(%rbp),%edx
   160ce:	48 8d 35 ab 59 00 00 	lea    0x59ab(%rip),%rsi        # 1ba80 <g_2129+0x25c0>
   160d5:	48 89 c7             	mov    %rax,%rdi
   160d8:	e8 16 06 ff ff       	callq  66f3 <transparent_crc>
   160dd:	0f b7 05 6c 9f 00 00 	movzwl 0x9f6c(%rip),%eax        # 20050 <g_1041+0x10>
   160e4:	48 0f bf c0          	movswq %ax,%rax
   160e8:	8b 55 fc             	mov    -0x4(%rbp),%edx
   160eb:	48 8d 35 98 59 00 00 	lea    0x5998(%rip),%rsi        # 1ba8a <g_2129+0x25ca>
   160f2:	48 89 c7             	mov    %rax,%rdi
   160f5:	e8 f9 05 ff ff       	callq  66f3 <transparent_crc>
   160fa:	c7 45 f0 00 00 00 00 	movl   $0x0,-0x10(%rbp)
   16101:	eb 49                	jmp    1614c <main+0x1f83>
   16103:	8b 45 f0             	mov    -0x10(%rbp),%eax
   16106:	48 98                	cltq   
   16108:	48 8d 14 00          	lea    (%rax,%rax,1),%rdx
   1610c:	48 8d 05 bd c3 00 00 	lea    0xc3bd(%rip),%rax        # 224d0 <g_1049>
   16113:	0f b7 04 02          	movzwl (%rdx,%rax,1),%eax
   16117:	0f b7 c0             	movzwl %ax,%eax
   1611a:	8b 55 fc             	mov    -0x4(%rbp),%edx
   1611d:	48 8d 35 70 59 00 00 	lea    0x5970(%rip),%rsi        # 1ba94 <g_2129+0x25d4>
   16124:	48 89 c7             	mov    %rax,%rdi
   16127:	e8 c7 05 ff ff       	callq  66f3 <transparent_crc>
   1612c:	83 7d fc 00          	cmpl   $0x0,-0x4(%rbp)
   16130:	74 16                	je     16148 <main+0x1f7f>
   16132:	8b 45 f0             	mov    -0x10(%rbp),%eax
   16135:	89 c6                	mov    %eax,%esi
   16137:	48 8d 3d ee 55 00 00 	lea    0x55ee(%rip),%rdi        # 1b72c <g_2129+0x226c>
   1613e:	b8 00 00 00 00       	mov    $0x0,%eax
   16143:	e8 38 ef fe ff       	callq  5080 <printf@plt>
   16148:	83 45 f0 01          	addl   $0x1,-0x10(%rbp)
   1614c:	83 7d f0 00          	cmpl   $0x0,-0x10(%rbp)
   16150:	7e b1                	jle    16103 <main+0x1f3a>
   16152:	0f b6 05 07 9f 00 00 	movzbl 0x9f07(%rip),%eax        # 20060 <g_1053>
   16159:	0f b6 c0             	movzbl %al,%eax
   1615c:	8b 55 fc             	mov    -0x4(%rbp),%edx
   1615f:	48 8d 35 38 59 00 00 	lea    0x5938(%rip),%rsi        # 1ba9e <g_2129+0x25de>
   16166:	48 89 c7             	mov    %rax,%rdi
   16169:	e8 85 05 ff ff       	callq  66f3 <transparent_crc>
   1616e:	0f b6 05 ec 9e 00 00 	movzbl 0x9eec(%rip),%eax        # 20061 <g_1053+0x1>
   16175:	0f b6 c0             	movzbl %al,%eax
   16178:	8b 55 fc             	mov    -0x4(%rbp),%edx
   1617b:	48 8d 35 26 59 00 00 	lea    0x5926(%rip),%rsi        # 1baa8 <g_2129+0x25e8>
   16182:	48 89 c7             	mov    %rax,%rdi
   16185:	e8 69 05 ff ff       	callq  66f3 <transparent_crc>
   1618a:	0f b6 05 d1 9e 00 00 	movzbl 0x9ed1(%rip),%eax        # 20062 <g_1053+0x2>
   16191:	0f b6 c0             	movzbl %al,%eax
   16194:	8b 55 fc             	mov    -0x4(%rbp),%edx
   16197:	48 8d 35 14 59 00 00 	lea    0x5914(%rip),%rsi        # 1bab2 <g_2129+0x25f2>
   1619e:	48 89 c7             	mov    %rax,%rdi
   161a1:	e8 4d 05 ff ff       	callq  66f3 <transparent_crc>
   161a6:	48 8b 05 b3 9e 00 00 	mov    0x9eb3(%rip),%rax        # 20060 <g_1053>
   161ad:	c1 e0 04             	shl    $0x4,%eax
   161b0:	c1 f8 1c             	sar    $0x1c,%eax
   161b3:	48 0f be c0          	movsbq %al,%rax
   161b7:	8b 55 fc             	mov    -0x4(%rbp),%edx
   161ba:	48 8d 35 fb 58 00 00 	lea    0x58fb(%rip),%rsi        # 1babc <g_2129+0x25fc>
   161c1:	48 89 c7             	mov    %rax,%rdi
   161c4:	e8 2a 05 ff ff       	callq  66f3 <transparent_crc>
   161c9:	8b 05 95 9e 00 00    	mov    0x9e95(%rip),%eax        # 20064 <g_1053+0x4>
   161cf:	89 c1                	mov    %eax,%ecx
   161d1:	8b 45 fc             	mov    -0x4(%rbp),%eax
   161d4:	89 c2                	mov    %eax,%edx
   161d6:	48 8d 35 e9 58 00 00 	lea    0x58e9(%rip),%rsi        # 1bac6 <g_2129+0x2606>
   161dd:	48 89 cf             	mov    %rcx,%rdi
   161e0:	e8 0e 05 ff ff       	callq  66f3 <transparent_crc>
   161e5:	48 8b 05 7c 9e 00 00 	mov    0x9e7c(%rip),%rax        # 20068 <g_1053+0x8>
   161ec:	01 c0                	add    %eax,%eax
   161ee:	d1 f8                	sar    %eax
   161f0:	48 98                	cltq   
   161f2:	8b 55 fc             	mov    -0x4(%rbp),%edx
   161f5:	48 8d 35 d4 58 00 00 	lea    0x58d4(%rip),%rsi        # 1bad0 <g_2129+0x2610>
   161fc:	48 89 c7             	mov    %rax,%rdi
   161ff:	e8 ef 04 ff ff       	callq  66f3 <transparent_crc>
   16204:	0f b7 05 61 9e 00 00 	movzwl 0x9e61(%rip),%eax        # 2006c <g_1053+0xc>
   1620b:	48 0f bf c0          	movswq %ax,%rax
   1620f:	8b 55 fc             	mov    -0x4(%rbp),%edx
   16212:	48 8d 35 c1 58 00 00 	lea    0x58c1(%rip),%rsi        # 1bada <g_2129+0x261a>
   16219:	48 89 c7             	mov    %rax,%rdi
   1621c:	e8 d2 04 ff ff       	callq  66f3 <transparent_crc>
   16221:	0f b7 05 46 9e 00 00 	movzwl 0x9e46(%rip),%eax        # 2006e <g_1053+0xe>
   16228:	48 0f bf c0          	movswq %ax,%rax
   1622c:	8b 55 fc             	mov    -0x4(%rbp),%edx
   1622f:	48 8d 35 ae 58 00 00 	lea    0x58ae(%rip),%rsi        # 1bae4 <g_2129+0x2624>
   16236:	48 89 c7             	mov    %rax,%rdi
   16239:	e8 b5 04 ff ff       	callq  66f3 <transparent_crc>
   1623e:	0f b7 05 2b 9e 00 00 	movzwl 0x9e2b(%rip),%eax        # 20070 <g_1053+0x10>
   16245:	48 0f bf c0          	movswq %ax,%rax
   16249:	8b 55 fc             	mov    -0x4(%rbp),%edx
   1624c:	48 8d 35 9b 58 00 00 	lea    0x589b(%rip),%rsi        # 1baee <g_2129+0x262e>
   16253:	48 89 c7             	mov    %rax,%rdi
   16256:	e8 98 04 ff ff       	callq  66f3 <transparent_crc>
   1625b:	48 8b 05 1e 9e 00 00 	mov    0x9e1e(%rip),%rax        # 20080 <g_1075>
   16262:	25 ff ff 07 00       	and    $0x7ffff,%eax
   16267:	89 c1                	mov    %eax,%ecx
   16269:	8b 45 fc             	mov    -0x4(%rbp),%eax
   1626c:	89 c2                	mov    %eax,%edx
   1626e:	48 8d 35 83 58 00 00 	lea    0x5883(%rip),%rsi        # 1baf8 <g_2129+0x2638>
   16275:	48 89 cf             	mov    %rcx,%rdi
   16278:	e8 76 04 ff ff       	callq  66f3 <transparent_crc>
   1627d:	48 8b 05 fc 9d 00 00 	mov    0x9dfc(%rip),%rax        # 20080 <g_1075>
   16284:	48 c1 e0 10          	shl    $0x10,%rax
   16288:	48 c1 f8 23          	sar    $0x23,%rax
   1628c:	48 98                	cltq   
   1628e:	8b 55 fc             	mov    -0x4(%rbp),%edx
   16291:	48 8d 35 6a 58 00 00 	lea    0x586a(%rip),%rsi        # 1bb02 <g_2129+0x2642>
   16298:	48 89 c7             	mov    %rax,%rdi
   1629b:	e8 53 04 ff ff       	callq  66f3 <transparent_crc>
   162a0:	0f b7 05 df 9d 00 00 	movzwl 0x9ddf(%rip),%eax        # 20086 <g_1075+0x6>
   162a7:	0f b7 15 da 9d 00 00 	movzwl 0x9dda(%rip),%edx        # 20088 <g_1075+0x8>
   162ae:	81 e2 ff 03 00 00    	and    $0x3ff,%edx
   162b4:	48 c1 e2 10          	shl    $0x10,%rdx
   162b8:	48 09 d0             	or     %rdx,%rax
   162bb:	48 c1 e0 26          	shl    $0x26,%rax
   162bf:	48 c1 f8 26          	sar    $0x26,%rax
   162c3:	48 98                	cltq   
   162c5:	8b 55 fc             	mov    -0x4(%rbp),%edx
   162c8:	48 8d 35 3d 58 00 00 	lea    0x583d(%rip),%rsi        # 1bb0c <g_2129+0x264c>
   162cf:	48 89 c7             	mov    %rax,%rdi
   162d2:	e8 1c 04 ff ff       	callq  66f3 <transparent_crc>
   162d7:	8b 05 af 9d 00 00    	mov    0x9daf(%rip),%eax        # 2008c <g_1075+0xc>
   162dd:	c1 e0 08             	shl    $0x8,%eax
   162e0:	c1 f8 08             	sar    $0x8,%eax
   162e3:	48 98                	cltq   
   162e5:	8b 55 fc             	mov    -0x4(%rbp),%edx
   162e8:	48 8d 35 27 58 00 00 	lea    0x5827(%rip),%rsi        # 1bb16 <g_2129+0x2656>
   162ef:	48 89 c7             	mov    %rax,%rdi
   162f2:	e8 fc 03 ff ff       	callq  66f3 <transparent_crc>
   162f7:	0f b6 05 91 9d 00 00 	movzbl 0x9d91(%rip),%eax        # 2008f <g_1075+0xf>
   162fe:	0f b7 15 8b 9d 00 00 	movzwl 0x9d8b(%rip),%edx        # 20090 <g_1075+0x10>
   16305:	81 e2 ff 07 00 00    	and    $0x7ff,%edx
   1630b:	48 c1 e2 08          	shl    $0x8,%rdx
   1630f:	48 09 d0             	or     %rdx,%rax
   16312:	48 c1 e0 2d          	shl    $0x2d,%rax
   16316:	48 c1 f8 2d          	sar    $0x2d,%rax
   1631a:	48 98                	cltq   
   1631c:	8b 55 fc             	mov    -0x4(%rbp),%edx
   1631f:	48 8d 35 fa 57 00 00 	lea    0x57fa(%rip),%rsi        # 1bb20 <g_2129+0x2660>
   16326:	48 89 c7             	mov    %rax,%rdi
   16329:	e8 c5 03 ff ff       	callq  66f3 <transparent_crc>
   1632e:	48 8b 05 5b 9d 00 00 	mov    0x9d5b(%rip),%rax        # 20090 <g_1075+0x10>
   16335:	48 c1 e0 19          	shl    $0x19,%rax
   16339:	48 c1 f8 24          	sar    $0x24,%rax
   1633d:	48 98                	cltq   
   1633f:	8b 55 fc             	mov    -0x4(%rbp),%edx
   16342:	48 8d 35 e1 57 00 00 	lea    0x57e1(%rip),%rsi        # 1bb2a <g_2129+0x266a>
   16349:	48 89 c7             	mov    %rax,%rdi
   1634c:	e8 a2 03 ff ff       	callq  66f3 <transparent_crc>
   16351:	8b 05 3d 9d 00 00    	mov    0x9d3d(%rip),%eax        # 20094 <g_1075+0x14>
   16357:	c1 e8 07             	shr    $0x7,%eax
   1635a:	89 c2                	mov    %eax,%edx
   1635c:	0f b6 05 35 9d 00 00 	movzbl 0x9d35(%rip),%eax        # 20098 <g_1075+0x18>
   16363:	83 e0 1f             	and    $0x1f,%eax
   16366:	48 c1 e0 19          	shl    $0x19,%rax
   1636a:	48 09 d0             	or     %rdx,%rax
   1636d:	48 c1 e0 22          	shl    $0x22,%rax
   16371:	48 c1 f8 22          	sar    $0x22,%rax
   16375:	48 98                	cltq   
   16377:	8b 55 fc             	mov    -0x4(%rbp),%edx
   1637a:	48 8d 35 b3 57 00 00 	lea    0x57b3(%rip),%rsi        # 1bb34 <g_2129+0x2674>
   16381:	48 89 c7             	mov    %rax,%rdi
   16384:	e8 6a 03 ff ff       	callq  66f3 <transparent_crc>
   16389:	0f b7 05 08 9d 00 00 	movzwl 0x9d08(%rip),%eax        # 20098 <g_1075+0x18>
   16390:	66 c1 e8 05          	shr    $0x5,%ax
   16394:	80 e4 ff             	and    $0xff,%ah
   16397:	0f b6 c0             	movzbl %al,%eax
   1639a:	8b 55 fc             	mov    -0x4(%rbp),%edx
   1639d:	48 8d 35 9a 57 00 00 	lea    0x579a(%rip),%rsi        # 1bb3e <g_2129+0x267e>
   163a4:	48 89 c7             	mov    %rax,%rdi
   163a7:	e8 47 03 ff ff       	callq  66f3 <transparent_crc>
   163ac:	48 8b 05 e5 9c 00 00 	mov    0x9ce5(%rip),%rax        # 20098 <g_1075+0x18>
   163b3:	c1 e0 07             	shl    $0x7,%eax
   163b6:	c1 f8 14             	sar    $0x14,%eax
   163b9:	48 0f bf c0          	movswq %ax,%rax
   163bd:	8b 55 fc             	mov    -0x4(%rbp),%edx
   163c0:	48 8d 35 81 57 00 00 	lea    0x5781(%rip),%rsi        # 1bb48 <g_2129+0x2688>
   163c7:	48 89 c7             	mov    %rax,%rdi
   163ca:	e8 24 03 ff ff       	callq  66f3 <transparent_crc>
   163cf:	8b 05 c7 9c 00 00    	mov    0x9cc7(%rip),%eax        # 2009c <g_1085>
   163d5:	89 c1                	mov    %eax,%ecx
   163d7:	8b 45 fc             	mov    -0x4(%rbp),%eax
   163da:	89 c2                	mov    %eax,%edx
   163dc:	48 8d 35 6f 57 00 00 	lea    0x576f(%rip),%rsi        # 1bb52 <g_2129+0x2692>
   163e3:	48 89 cf             	mov    %rcx,%rdi
   163e6:	e8 08 03 ff ff       	callq  66f3 <transparent_crc>
   163eb:	48 8b 05 ae 9c 00 00 	mov    0x9cae(%rip),%rax        # 200a0 <g_1129>
   163f2:	83 e0 1f             	and    $0x1f,%eax
   163f5:	0f b6 c0             	movzbl %al,%eax
   163f8:	8b 55 fc             	mov    -0x4(%rbp),%edx
   163fb:	48 8d 35 57 57 00 00 	lea    0x5757(%rip),%rsi        # 1bb59 <g_2129+0x2699>
   16402:	48 89 c7             	mov    %rax,%rdi
   16405:	e8 e9 02 ff ff       	callq  66f3 <transparent_crc>
   1640a:	8b 05 94 9c 00 00    	mov    0x9c94(%rip),%eax        # 200a4 <g_1129+0x4>
   16410:	48 98                	cltq   
   16412:	8b 55 fc             	mov    -0x4(%rbp),%edx
   16415:	48 8d 35 47 57 00 00 	lea    0x5747(%rip),%rsi        # 1bb63 <g_2129+0x26a3>
   1641c:	48 89 c7             	mov    %rax,%rdi
   1641f:	e8 cf 02 ff ff       	callq  66f3 <transparent_crc>
   16424:	0f b7 05 7d 9c 00 00 	movzwl 0x9c7d(%rip),%eax        # 200a8 <g_1129+0x8>
   1642b:	66 25 ff 3f          	and    $0x3fff,%ax
   1642f:	0f b7 c0             	movzwl %ax,%eax
   16432:	8b 55 fc             	mov    -0x4(%rbp),%edx
   16435:	48 8d 35 31 57 00 00 	lea    0x5731(%rip),%rsi        # 1bb6d <g_2129+0x26ad>
   1643c:	48 89 c7             	mov    %rax,%rdi
   1643f:	e8 af 02 ff ff       	callq  66f3 <transparent_crc>
   16444:	48 8b 05 5d 9c 00 00 	mov    0x9c5d(%rip),%rax        # 200a8 <g_1129+0x8>
   1644b:	48 c1 e0 08          	shl    $0x8,%rax
   1644f:	48 c1 f8 28          	sar    $0x28,%rax
   16453:	48 98                	cltq   
   16455:	8b 55 fc             	mov    -0x4(%rbp),%edx
   16458:	48 8d 35 18 57 00 00 	lea    0x5718(%rip),%rsi        # 1bb77 <g_2129+0x26b7>
   1645f:	48 89 c7             	mov    %rax,%rdi
   16462:	e8 8c 02 ff ff       	callq  66f3 <transparent_crc>
   16467:	8b 05 43 9c 00 00    	mov    0x9c43(%rip),%eax        # 200b0 <g_1129+0x10>
   1646d:	c1 e0 03             	shl    $0x3,%eax
   16470:	c1 f8 03             	sar    $0x3,%eax
   16473:	48 98                	cltq   
   16475:	8b 55 fc             	mov    -0x4(%rbp),%edx
   16478:	48 8d 35 02 57 00 00 	lea    0x5702(%rip),%rsi        # 1bb81 <g_2129+0x26c1>
   1647f:	48 89 c7             	mov    %rax,%rdi
   16482:	e8 6c 02 ff ff       	callq  66f3 <transparent_crc>
   16487:	48 8b 05 22 9c 00 00 	mov    0x9c22(%rip),%rax        # 200b0 <g_1129+0x10>
   1648e:	48 c1 e8 20          	shr    $0x20,%rax
   16492:	25 ff ff 1f 00       	and    $0x1fffff,%eax
   16497:	89 c1                	mov    %eax,%ecx
   16499:	8b 45 fc             	mov    -0x4(%rbp),%eax
   1649c:	89 c2                	mov    %eax,%edx
   1649e:	48 8d 35 e6 56 00 00 	lea    0x56e6(%rip),%rsi        # 1bb8b <g_2129+0x26cb>
   164a5:	48 89 cf             	mov    %rcx,%rdi
   164a8:	e8 46 02 ff ff       	callq  66f3 <transparent_crc>
   164ad:	0f b6 05 02 9c 00 00 	movzbl 0x9c02(%rip),%eax        # 200b6 <g_1129+0x16>
   164b4:	01 c0                	add    %eax,%eax
   164b6:	c0 f8 06             	sar    $0x6,%al
   164b9:	48 0f be c0          	movsbq %al,%rax
   164bd:	8b 55 fc             	mov    -0x4(%rbp),%edx
   164c0:	48 8d 35 ce 56 00 00 	lea    0x56ce(%rip),%rsi        # 1bb95 <g_2129+0x26d5>
   164c7:	48 89 c7             	mov    %rax,%rdi
   164ca:	e8 24 02 ff ff       	callq  66f3 <transparent_crc>
   164cf:	8b 05 e3 9b 00 00    	mov    0x9be3(%rip),%eax        # 200b8 <g_1129+0x18>
   164d5:	25 ff ff 07 00       	and    $0x7ffff,%eax
   164da:	89 c1                	mov    %eax,%ecx
   164dc:	8b 45 fc             	mov    -0x4(%rbp),%eax
   164df:	89 c2                	mov    %eax,%edx
   164e1:	48 8d 35 b7 56 00 00 	lea    0x56b7(%rip),%rsi        # 1bb9f <g_2129+0x26df>
   164e8:	48 89 cf             	mov    %rcx,%rdi
   164eb:	e8 03 02 ff ff       	callq  66f3 <transparent_crc>
   164f0:	8b 05 c6 9b 00 00    	mov    0x9bc6(%rip),%eax        # 200bc <g_1129+0x1c>
   164f6:	25 ff ff ff 00       	and    $0xffffff,%eax
   164fb:	89 c1                	mov    %eax,%ecx
   164fd:	8b 45 fc             	mov    -0x4(%rbp),%eax
   16500:	89 c2                	mov    %eax,%edx
   16502:	48 8d 35 a0 56 00 00 	lea    0x56a0(%rip),%rsi        # 1bba9 <g_2129+0x26e9>
   16509:	48 89 cf             	mov    %rcx,%rdi
   1650c:	e8 e2 01 ff ff       	callq  66f3 <transparent_crc>
   16511:	0f b6 05 a8 9b 00 00 	movzbl 0x9ba8(%rip),%eax        # 200c0 <g_1229>
   16518:	0f b6 c0             	movzbl %al,%eax
   1651b:	8b 55 fc             	mov    -0x4(%rbp),%edx
   1651e:	48 8d 35 8e 56 00 00 	lea    0x568e(%rip),%rsi        # 1bbb3 <g_2129+0x26f3>
   16525:	48 89 c7             	mov    %rax,%rdi
   16528:	e8 c6 01 ff ff       	callq  66f3 <transparent_crc>
   1652d:	0f b6 05 8d 9b 00 00 	movzbl 0x9b8d(%rip),%eax        # 200c1 <g_1229+0x1>
   16534:	0f b6 c0             	movzbl %al,%eax
   16537:	8b 55 fc             	mov    -0x4(%rbp),%edx
   1653a:	48 8d 35 7c 56 00 00 	lea    0x567c(%rip),%rsi        # 1bbbd <g_2129+0x26fd>
   16541:	48 89 c7             	mov    %rax,%rdi
   16544:	e8 aa 01 ff ff       	callq  66f3 <transparent_crc>
   16549:	0f b6 05 72 9b 00 00 	movzbl 0x9b72(%rip),%eax        # 200c2 <g_1229+0x2>
   16550:	0f b6 c0             	movzbl %al,%eax
   16553:	8b 55 fc             	mov    -0x4(%rbp),%edx
   16556:	48 8d 35 6a 56 00 00 	lea    0x566a(%rip),%rsi        # 1bbc7 <g_2129+0x2707>
   1655d:	48 89 c7             	mov    %rax,%rdi
   16560:	e8 8e 01 ff ff       	callq  66f3 <transparent_crc>
   16565:	48 8b 05 54 9b 00 00 	mov    0x9b54(%rip),%rax        # 200c0 <g_1229>
   1656c:	c1 e0 04             	shl    $0x4,%eax
   1656f:	c1 f8 1c             	sar    $0x1c,%eax
   16572:	48 0f be c0          	movsbq %al,%rax
   16576:	8b 55 fc             	mov    -0x4(%rbp),%edx
   16579:	48 8d 35 51 56 00 00 	lea    0x5651(%rip),%rsi        # 1bbd1 <g_2129+0x2711>
   16580:	48 89 c7             	mov    %rax,%rdi
   16583:	e8 6b 01 ff ff       	callq  66f3 <transparent_crc>
   16588:	8b 05 36 9b 00 00    	mov    0x9b36(%rip),%eax        # 200c4 <g_1229+0x4>
   1658e:	89 c1                	mov    %eax,%ecx
   16590:	8b 45 fc             	mov    -0x4(%rbp),%eax
   16593:	89 c2                	mov    %eax,%edx
   16595:	48 8d 35 3f 56 00 00 	lea    0x563f(%rip),%rsi        # 1bbdb <g_2129+0x271b>
   1659c:	48 89 cf             	mov    %rcx,%rdi
   1659f:	e8 4f 01 ff ff       	callq  66f3 <transparent_crc>
   165a4:	48 8b 05 1d 9b 00 00 	mov    0x9b1d(%rip),%rax        # 200c8 <g_1229+0x8>
   165ab:	01 c0                	add    %eax,%eax
   165ad:	d1 f8                	sar    %eax
   165af:	48 98                	cltq   
   165b1:	8b 55 fc             	mov    -0x4(%rbp),%edx
   165b4:	48 8d 35 2a 56 00 00 	lea    0x562a(%rip),%rsi        # 1bbe5 <g_2129+0x2725>
   165bb:	48 89 c7             	mov    %rax,%rdi
   165be:	e8 30 01 ff ff       	callq  66f3 <transparent_crc>
   165c3:	0f b7 05 02 9b 00 00 	movzwl 0x9b02(%rip),%eax        # 200cc <g_1229+0xc>
   165ca:	48 0f bf c0          	movswq %ax,%rax
   165ce:	8b 55 fc             	mov    -0x4(%rbp),%edx
   165d1:	48 8d 35 17 56 00 00 	lea    0x5617(%rip),%rsi        # 1bbef <g_2129+0x272f>
   165d8:	48 89 c7             	mov    %rax,%rdi
   165db:	e8 13 01 ff ff       	callq  66f3 <transparent_crc>
   165e0:	0f b7 05 e7 9a 00 00 	movzwl 0x9ae7(%rip),%eax        # 200ce <g_1229+0xe>
   165e7:	48 0f bf c0          	movswq %ax,%rax
   165eb:	8b 55 fc             	mov    -0x4(%rbp),%edx
   165ee:	48 8d 35 04 56 00 00 	lea    0x5604(%rip),%rsi        # 1bbf9 <g_2129+0x2739>
   165f5:	48 89 c7             	mov    %rax,%rdi
   165f8:	e8 f6 00 ff ff       	callq  66f3 <transparent_crc>
   165fd:	0f b7 05 cc 9a 00 00 	movzwl 0x9acc(%rip),%eax        # 200d0 <g_1229+0x10>
   16604:	48 0f bf c0          	movswq %ax,%rax
   16608:	8b 55 fc             	mov    -0x4(%rbp),%edx
   1660b:	48 8d 35 f1 55 00 00 	lea    0x55f1(%rip),%rsi        # 1bc03 <g_2129+0x2743>
   16612:	48 89 c7             	mov    %rax,%rdi
   16615:	e8 d9 00 ff ff       	callq  66f3 <transparent_crc>
   1661a:	0f b6 05 bf 9a 00 00 	movzbl 0x9abf(%rip),%eax        # 200e0 <g_1267>
   16621:	0f b6 c0             	movzbl %al,%eax
   16624:	8b 55 fc             	mov    -0x4(%rbp),%edx
   16627:	48 8d 35 df 55 00 00 	lea    0x55df(%rip),%rsi        # 1bc0d <g_2129+0x274d>
   1662e:	48 89 c7             	mov    %rax,%rdi
   16631:	e8 bd 00 ff ff       	callq  66f3 <transparent_crc>
   16636:	0f b6 05 a4 9a 00 00 	movzbl 0x9aa4(%rip),%eax        # 200e1 <g_1267+0x1>
   1663d:	0f b6 c0             	movzbl %al,%eax
   16640:	8b 55 fc             	mov    -0x4(%rbp),%edx
   16643:	48 8d 35 cd 55 00 00 	lea    0x55cd(%rip),%rsi        # 1bc17 <g_2129+0x2757>
   1664a:	48 89 c7             	mov    %rax,%rdi
   1664d:	e8 a1 00 ff ff       	callq  66f3 <transparent_crc>
   16652:	0f b6 05 89 9a 00 00 	movzbl 0x9a89(%rip),%eax        # 200e2 <g_1267+0x2>
   16659:	0f b6 c0             	movzbl %al,%eax
   1665c:	8b 55 fc             	mov    -0x4(%rbp),%edx
   1665f:	48 8d 35 bb 55 00 00 	lea    0x55bb(%rip),%rsi        # 1bc21 <g_2129+0x2761>
   16666:	48 89 c7             	mov    %rax,%rdi
   16669:	e8 85 00 ff ff       	callq  66f3 <transparent_crc>
   1666e:	48 8b 05 6b 9a 00 00 	mov    0x9a6b(%rip),%rax        # 200e0 <g_1267>
   16675:	c1 e0 04             	shl    $0x4,%eax
   16678:	c1 f8 1c             	sar    $0x1c,%eax
   1667b:	48 0f be c0          	movsbq %al,%rax
   1667f:	8b 55 fc             	mov    -0x4(%rbp),%edx
   16682:	48 8d 35 a2 55 00 00 	lea    0x55a2(%rip),%rsi        # 1bc2b <g_2129+0x276b>
   16689:	48 89 c7             	mov    %rax,%rdi
   1668c:	e8 62 00 ff ff       	callq  66f3 <transparent_crc>
   16691:	8b 05 4d 9a 00 00    	mov    0x9a4d(%rip),%eax        # 200e4 <g_1267+0x4>
   16697:	89 c1                	mov    %eax,%ecx
   16699:	8b 45 fc             	mov    -0x4(%rbp),%eax
   1669c:	89 c2                	mov    %eax,%edx
   1669e:	48 8d 35 90 55 00 00 	lea    0x5590(%rip),%rsi        # 1bc35 <g_2129+0x2775>
   166a5:	48 89 cf             	mov    %rcx,%rdi
   166a8:	e8 46 00 ff ff       	callq  66f3 <transparent_crc>
   166ad:	48 8b 05 34 9a 00 00 	mov    0x9a34(%rip),%rax        # 200e8 <g_1267+0x8>
   166b4:	01 c0                	add    %eax,%eax
   166b6:	d1 f8                	sar    %eax
   166b8:	48 98                	cltq   
   166ba:	8b 55 fc             	mov    -0x4(%rbp),%edx
   166bd:	48 8d 35 7b 55 00 00 	lea    0x557b(%rip),%rsi        # 1bc3f <g_2129+0x277f>
   166c4:	48 89 c7             	mov    %rax,%rdi
   166c7:	e8 27 00 ff ff       	callq  66f3 <transparent_crc>
   166cc:	0f b7 05 19 9a 00 00 	movzwl 0x9a19(%rip),%eax        # 200ec <g_1267+0xc>
   166d3:	48 0f bf c0          	movswq %ax,%rax
   166d7:	8b 55 fc             	mov    -0x4(%rbp),%edx
   166da:	48 8d 35 68 55 00 00 	lea    0x5568(%rip),%rsi        # 1bc49 <g_2129+0x2789>
   166e1:	48 89 c7             	mov    %rax,%rdi
   166e4:	e8 0a 00 ff ff       	callq  66f3 <transparent_crc>
   166e9:	0f b7 05 fe 99 00 00 	movzwl 0x99fe(%rip),%eax        # 200ee <g_1267+0xe>
   166f0:	48 0f bf c0          	movswq %ax,%rax
   166f4:	8b 55 fc             	mov    -0x4(%rbp),%edx
   166f7:	48 8d 35 55 55 00 00 	lea    0x5555(%rip),%rsi        # 1bc53 <g_2129+0x2793>
   166fe:	48 89 c7             	mov    %rax,%rdi
   16701:	e8 ed ff fe ff       	callq  66f3 <transparent_crc>
   16706:	0f b7 05 e3 99 00 00 	movzwl 0x99e3(%rip),%eax        # 200f0 <g_1267+0x10>
   1670d:	48 0f bf c0          	movswq %ax,%rax
   16711:	8b 55 fc             	mov    -0x4(%rbp),%edx
   16714:	48 8d 35 42 55 00 00 	lea    0x5542(%rip),%rsi        # 1bc5d <g_2129+0x279d>
   1671b:	48 89 c7             	mov    %rax,%rdi
   1671e:	e8 d0 ff fe ff       	callq  66f3 <transparent_crc>
   16723:	0f b7 05 ce 99 00 00 	movzwl 0x99ce(%rip),%eax        # 200f8 <g_1356>
   1672a:	0f b7 c0             	movzwl %ax,%eax
   1672d:	8b 55 fc             	mov    -0x4(%rbp),%edx
   16730:	48 8d 35 30 55 00 00 	lea    0x5530(%rip),%rsi        # 1bc67 <g_2129+0x27a7>
   16737:	48 89 c7             	mov    %rax,%rdi
   1673a:	e8 b4 ff fe ff       	callq  66f3 <transparent_crc>
   1673f:	0f b7 05 ba 99 00 00 	movzwl 0x99ba(%rip),%eax        # 20100 <g_1362>
   16746:	48 0f bf c0          	movswq %ax,%rax
   1674a:	8b 55 fc             	mov    -0x4(%rbp),%edx
   1674d:	48 8d 35 1d 55 00 00 	lea    0x551d(%rip),%rsi        # 1bc71 <g_2129+0x27b1>
   16754:	48 89 c7             	mov    %rax,%rdi
   16757:	e8 97 ff fe ff       	callq  66f3 <transparent_crc>
   1675c:	48 8b 05 ad 99 00 00 	mov    0x99ad(%rip),%rax        # 20110 <g_1438>
   16763:	25 ff ff 07 00       	and    $0x7ffff,%eax
   16768:	89 c1                	mov    %eax,%ecx
   1676a:	8b 45 fc             	mov    -0x4(%rbp),%eax
   1676d:	89 c2                	mov    %eax,%edx
   1676f:	48 8d 35 02 55 00 00 	lea    0x5502(%rip),%rsi        # 1bc78 <g_2129+0x27b8>
   16776:	48 89 cf             	mov    %rcx,%rdi
   16779:	e8 75 ff fe ff       	callq  66f3 <transparent_crc>
   1677e:	48 8b 05 8b 99 00 00 	mov    0x998b(%rip),%rax        # 20110 <g_1438>
   16785:	48 c1 e0 10          	shl    $0x10,%rax
   16789:	48 c1 f8 23          	sar    $0x23,%rax
   1678d:	48 98                	cltq   
   1678f:	8b 55 fc             	mov    -0x4(%rbp),%edx
   16792:	48 8d 35 e9 54 00 00 	lea    0x54e9(%rip),%rsi        # 1bc82 <g_2129+0x27c2>
   16799:	48 89 c7             	mov    %rax,%rdi
   1679c:	e8 52 ff fe ff       	callq  66f3 <transparent_crc>
   167a1:	0f b7 05 6e 99 00 00 	movzwl 0x996e(%rip),%eax        # 20116 <g_1438+0x6>
   167a8:	0f b7 15 69 99 00 00 	movzwl 0x9969(%rip),%edx        # 20118 <g_1438+0x8>
   167af:	81 e2 ff 03 00 00    	and    $0x3ff,%edx
   167b5:	48 c1 e2 10          	shl    $0x10,%rdx
   167b9:	48 09 d0             	or     %rdx,%rax
   167bc:	48 c1 e0 26          	shl    $0x26,%rax
   167c0:	48 c1 f8 26          	sar    $0x26,%rax
   167c4:	48 98                	cltq   
   167c6:	8b 55 fc             	mov    -0x4(%rbp),%edx
   167c9:	48 8d 35 bc 54 00 00 	lea    0x54bc(%rip),%rsi        # 1bc8c <g_2129+0x27cc>
   167d0:	48 89 c7             	mov    %rax,%rdi
   167d3:	e8 1b ff fe ff       	callq  66f3 <transparent_crc>
   167d8:	8b 05 3e 99 00 00    	mov    0x993e(%rip),%eax        # 2011c <g_1438+0xc>
   167de:	c1 e0 08             	shl    $0x8,%eax
   167e1:	c1 f8 08             	sar    $0x8,%eax
   167e4:	48 98                	cltq   
   167e6:	8b 55 fc             	mov    -0x4(%rbp),%edx
   167e9:	48 8d 35 a6 54 00 00 	lea    0x54a6(%rip),%rsi        # 1bc96 <g_2129+0x27d6>
   167f0:	48 89 c7             	mov    %rax,%rdi
   167f3:	e8 fb fe fe ff       	callq  66f3 <transparent_crc>
   167f8:	0f b6 05 20 99 00 00 	movzbl 0x9920(%rip),%eax        # 2011f <g_1438+0xf>
   167ff:	0f b7 15 1a 99 00 00 	movzwl 0x991a(%rip),%edx        # 20120 <g_1438+0x10>
   16806:	81 e2 ff 07 00 00    	and    $0x7ff,%edx
   1680c:	48 c1 e2 08          	shl    $0x8,%rdx
   16810:	48 09 d0             	or     %rdx,%rax
   16813:	48 c1 e0 2d          	shl    $0x2d,%rax
   16817:	48 c1 f8 2d          	sar    $0x2d,%rax
   1681b:	48 98                	cltq   
   1681d:	8b 55 fc             	mov    -0x4(%rbp),%edx
   16820:	48 8d 35 79 54 00 00 	lea    0x5479(%rip),%rsi        # 1bca0 <g_2129+0x27e0>
   16827:	48 89 c7             	mov    %rax,%rdi
   1682a:	e8 c4 fe fe ff       	callq  66f3 <transparent_crc>
   1682f:	48 8b 05 ea 98 00 00 	mov    0x98ea(%rip),%rax        # 20120 <g_1438+0x10>
   16836:	48 c1 e0 19          	shl    $0x19,%rax
   1683a:	48 c1 f8 24          	sar    $0x24,%rax
   1683e:	48 98                	cltq   
   16840:	8b 55 fc             	mov    -0x4(%rbp),%edx
   16843:	48 8d 35 60 54 00 00 	lea    0x5460(%rip),%rsi        # 1bcaa <g_2129+0x27ea>
   1684a:	48 89 c7             	mov    %rax,%rdi
   1684d:	e8 a1 fe fe ff       	callq  66f3 <transparent_crc>
   16852:	8b 05 cc 98 00 00    	mov    0x98cc(%rip),%eax        # 20124 <g_1438+0x14>
   16858:	c1 e8 07             	shr    $0x7,%eax
   1685b:	89 c2                	mov    %eax,%edx
   1685d:	0f b6 05 c4 98 00 00 	movzbl 0x98c4(%rip),%eax        # 20128 <g_1438+0x18>
   16864:	83 e0 1f             	and    $0x1f,%eax
   16867:	48 c1 e0 19          	shl    $0x19,%rax
   1686b:	48 09 d0             	or     %rdx,%rax
   1686e:	48 c1 e0 22          	shl    $0x22,%rax
   16872:	48 c1 f8 22          	sar    $0x22,%rax
   16876:	48 98                	cltq   
   16878:	8b 55 fc             	mov    -0x4(%rbp),%edx
   1687b:	48 8d 35 32 54 00 00 	lea    0x5432(%rip),%rsi        # 1bcb4 <g_2129+0x27f4>
   16882:	48 89 c7             	mov    %rax,%rdi
   16885:	e8 69 fe fe ff       	callq  66f3 <transparent_crc>
   1688a:	0f b7 05 97 98 00 00 	movzwl 0x9897(%rip),%eax        # 20128 <g_1438+0x18>
   16891:	66 c1 e8 05          	shr    $0x5,%ax
   16895:	80 e4 ff             	and    $0xff,%ah
   16898:	0f b6 c0             	movzbl %al,%eax
   1689b:	8b 55 fc             	mov    -0x4(%rbp),%edx
   1689e:	48 8d 35 19 54 00 00 	lea    0x5419(%rip),%rsi        # 1bcbe <g_2129+0x27fe>
   168a5:	48 89 c7             	mov    %rax,%rdi
   168a8:	e8 46 fe fe ff       	callq  66f3 <transparent_crc>
   168ad:	48 8b 05 74 98 00 00 	mov    0x9874(%rip),%rax        # 20128 <g_1438+0x18>
   168b4:	c1 e0 07             	shl    $0x7,%eax
   168b7:	c1 f8 14             	sar    $0x14,%eax
   168ba:	48 0f bf c0          	movswq %ax,%rax
   168be:	8b 55 fc             	mov    -0x4(%rbp),%edx
   168c1:	48 8d 35 00 54 00 00 	lea    0x5400(%rip),%rsi        # 1bcc8 <g_2129+0x2808>
   168c8:	48 89 c7             	mov    %rax,%rdi
   168cb:	e8 23 fe fe ff       	callq  66f3 <transparent_crc>
   168d0:	48 8b 05 59 98 00 00 	mov    0x9859(%rip),%rax        # 20130 <g_1439>
   168d7:	25 ff ff 07 00       	and    $0x7ffff,%eax
   168dc:	89 c1                	mov    %eax,%ecx
   168de:	8b 45 fc             	mov    -0x4(%rbp),%eax
   168e1:	89 c2                	mov    %eax,%edx
   168e3:	48 8d 35 e8 53 00 00 	lea    0x53e8(%rip),%rsi        # 1bcd2 <g_2129+0x2812>
   168ea:	48 89 cf             	mov    %rcx,%rdi
   168ed:	e8 01 fe fe ff       	callq  66f3 <transparent_crc>
   168f2:	48 8b 05 37 98 00 00 	mov    0x9837(%rip),%rax        # 20130 <g_1439>
   168f9:	48 c1 e0 10          	shl    $0x10,%rax
   168fd:	48 c1 f8 23          	sar    $0x23,%rax
   16901:	48 98                	cltq   
   16903:	8b 55 fc             	mov    -0x4(%rbp),%edx
   16906:	48 8d 35 cf 53 00 00 	lea    0x53cf(%rip),%rsi        # 1bcdc <g_2129+0x281c>
   1690d:	48 89 c7             	mov    %rax,%rdi
   16910:	e8 de fd fe ff       	callq  66f3 <transparent_crc>
   16915:	0f b7 05 1a 98 00 00 	movzwl 0x981a(%rip),%eax        # 20136 <g_1439+0x6>
   1691c:	0f b7 15 15 98 00 00 	movzwl 0x9815(%rip),%edx        # 20138 <g_1439+0x8>
   16923:	81 e2 ff 03 00 00    	and    $0x3ff,%edx
   16929:	48 c1 e2 10          	shl    $0x10,%rdx
   1692d:	48 09 d0             	or     %rdx,%rax
   16930:	48 c1 e0 26          	shl    $0x26,%rax
   16934:	48 c1 f8 26          	sar    $0x26,%rax
   16938:	48 98                	cltq   
   1693a:	8b 55 fc             	mov    -0x4(%rbp),%edx
   1693d:	48 8d 35 a2 53 00 00 	lea    0x53a2(%rip),%rsi        # 1bce6 <g_2129+0x2826>
   16944:	48 89 c7             	mov    %rax,%rdi
   16947:	e8 a7 fd fe ff       	callq  66f3 <transparent_crc>
   1694c:	8b 05 ea 97 00 00    	mov    0x97ea(%rip),%eax        # 2013c <g_1439+0xc>
   16952:	c1 e0 08             	shl    $0x8,%eax
   16955:	c1 f8 08             	sar    $0x8,%eax
   16958:	48 98                	cltq   
   1695a:	8b 55 fc             	mov    -0x4(%rbp),%edx
   1695d:	48 8d 35 8c 53 00 00 	lea    0x538c(%rip),%rsi        # 1bcf0 <g_2129+0x2830>
   16964:	48 89 c7             	mov    %rax,%rdi
   16967:	e8 87 fd fe ff       	callq  66f3 <transparent_crc>
   1696c:	0f b6 05 cc 97 00 00 	movzbl 0x97cc(%rip),%eax        # 2013f <g_1439+0xf>
   16973:	0f b7 15 c6 97 00 00 	movzwl 0x97c6(%rip),%edx        # 20140 <g_1439+0x10>
   1697a:	81 e2 ff 07 00 00    	and    $0x7ff,%edx
   16980:	48 c1 e2 08          	shl    $0x8,%rdx
   16984:	48 09 d0             	or     %rdx,%rax
   16987:	48 c1 e0 2d          	shl    $0x2d,%rax
   1698b:	48 c1 f8 2d          	sar    $0x2d,%rax
   1698f:	48 98                	cltq   
   16991:	8b 55 fc             	mov    -0x4(%rbp),%edx
   16994:	48 8d 35 5f 53 00 00 	lea    0x535f(%rip),%rsi        # 1bcfa <g_2129+0x283a>
   1699b:	48 89 c7             	mov    %rax,%rdi
   1699e:	e8 50 fd fe ff       	callq  66f3 <transparent_crc>
   169a3:	48 8b 05 96 97 00 00 	mov    0x9796(%rip),%rax        # 20140 <g_1439+0x10>
   169aa:	48 c1 e0 19          	shl    $0x19,%rax
   169ae:	48 c1 f8 24          	sar    $0x24,%rax
   169b2:	48 98                	cltq   
   169b4:	8b 55 fc             	mov    -0x4(%rbp),%edx
   169b7:	48 8d 35 46 53 00 00 	lea    0x5346(%rip),%rsi        # 1bd04 <g_2129+0x2844>
   169be:	48 89 c7             	mov    %rax,%rdi
   169c1:	e8 2d fd fe ff       	callq  66f3 <transparent_crc>
   169c6:	8b 05 78 97 00 00    	mov    0x9778(%rip),%eax        # 20144 <g_1439+0x14>
   169cc:	c1 e8 07             	shr    $0x7,%eax
   169cf:	89 c2                	mov    %eax,%edx
   169d1:	0f b6 05 70 97 00 00 	movzbl 0x9770(%rip),%eax        # 20148 <g_1439+0x18>
   169d8:	83 e0 1f             	and    $0x1f,%eax
   169db:	48 c1 e0 19          	shl    $0x19,%rax
   169df:	48 09 d0             	or     %rdx,%rax
   169e2:	48 c1 e0 22          	shl    $0x22,%rax
   169e6:	48 c1 f8 22          	sar    $0x22,%rax
   169ea:	48 98                	cltq   
   169ec:	8b 55 fc             	mov    -0x4(%rbp),%edx
   169ef:	48 8d 35 18 53 00 00 	lea    0x5318(%rip),%rsi        # 1bd0e <g_2129+0x284e>
   169f6:	48 89 c7             	mov    %rax,%rdi
   169f9:	e8 f5 fc fe ff       	callq  66f3 <transparent_crc>
   169fe:	0f b7 05 43 97 00 00 	movzwl 0x9743(%rip),%eax        # 20148 <g_1439+0x18>
   16a05:	66 c1 e8 05          	shr    $0x5,%ax
   16a09:	80 e4 ff             	and    $0xff,%ah
   16a0c:	0f b6 c0             	movzbl %al,%eax
   16a0f:	8b 55 fc             	mov    -0x4(%rbp),%edx
   16a12:	48 8d 35 ff 52 00 00 	lea    0x52ff(%rip),%rsi        # 1bd18 <g_2129+0x2858>
   16a19:	48 89 c7             	mov    %rax,%rdi
   16a1c:	e8 d2 fc fe ff       	callq  66f3 <transparent_crc>
   16a21:	48 8b 05 20 97 00 00 	mov    0x9720(%rip),%rax        # 20148 <g_1439+0x18>
   16a28:	c1 e0 07             	shl    $0x7,%eax
   16a2b:	c1 f8 14             	sar    $0x14,%eax
   16a2e:	48 0f bf c0          	movswq %ax,%rax
   16a32:	8b 55 fc             	mov    -0x4(%rbp),%edx
   16a35:	48 8d 35 e6 52 00 00 	lea    0x52e6(%rip),%rsi        # 1bd22 <g_2129+0x2862>
   16a3c:	48 89 c7             	mov    %rax,%rdi
   16a3f:	e8 af fc fe ff       	callq  66f3 <transparent_crc>
   16a44:	0f b6 05 01 97 00 00 	movzbl 0x9701(%rip),%eax        # 2014c <g_1477>
   16a4b:	0f b6 c0             	movzbl %al,%eax
   16a4e:	8b 55 fc             	mov    -0x4(%rbp),%edx
   16a51:	48 8d 35 d4 52 00 00 	lea    0x52d4(%rip),%rsi        # 1bd2c <g_2129+0x286c>
   16a58:	48 89 c7             	mov    %rax,%rdi
   16a5b:	e8 93 fc fe ff       	callq  66f3 <transparent_crc>
   16a60:	0f b7 05 79 ba 00 00 	movzwl 0xba79(%rip),%eax        # 224e0 <g_1577>
   16a67:	0f b7 c0             	movzwl %ax,%eax
   16a6a:	8b 55 fc             	mov    -0x4(%rbp),%edx
   16a6d:	48 8d 35 bf 52 00 00 	lea    0x52bf(%rip),%rsi        # 1bd33 <g_2129+0x2873>
   16a74:	48 89 c7             	mov    %rax,%rdi
   16a77:	e8 77 fc fe ff       	callq  66f3 <transparent_crc>
   16a7c:	0f b6 05 cd 96 00 00 	movzbl 0x96cd(%rip),%eax        # 20150 <g_1606>
   16a83:	0f b6 c0             	movzbl %al,%eax
   16a86:	8b 55 fc             	mov    -0x4(%rbp),%edx
   16a89:	48 8d 35 aa 52 00 00 	lea    0x52aa(%rip),%rsi        # 1bd3a <g_2129+0x287a>
   16a90:	48 89 c7             	mov    %rax,%rdi
   16a93:	e8 5b fc fe ff       	callq  66f3 <transparent_crc>
   16a98:	0f b6 05 b2 96 00 00 	movzbl 0x96b2(%rip),%eax        # 20151 <g_1606+0x1>
   16a9f:	0f b6 c0             	movzbl %al,%eax
   16aa2:	8b 55 fc             	mov    -0x4(%rbp),%edx
   16aa5:	48 8d 35 98 52 00 00 	lea    0x5298(%rip),%rsi        # 1bd44 <g_2129+0x2884>
   16aac:	48 89 c7             	mov    %rax,%rdi
   16aaf:	e8 3f fc fe ff       	callq  66f3 <transparent_crc>
   16ab4:	0f b6 05 97 96 00 00 	movzbl 0x9697(%rip),%eax        # 20152 <g_1606+0x2>
   16abb:	0f b6 c0             	movzbl %al,%eax
   16abe:	8b 55 fc             	mov    -0x4(%rbp),%edx
   16ac1:	48 8d 35 86 52 00 00 	lea    0x5286(%rip),%rsi        # 1bd4e <g_2129+0x288e>
   16ac8:	48 89 c7             	mov    %rax,%rdi
   16acb:	e8 23 fc fe ff       	callq  66f3 <transparent_crc>
   16ad0:	48 8b 05 79 96 00 00 	mov    0x9679(%rip),%rax        # 20150 <g_1606>
   16ad7:	c1 e0 04             	shl    $0x4,%eax
   16ada:	c1 f8 1c             	sar    $0x1c,%eax
   16add:	48 0f be c0          	movsbq %al,%rax
   16ae1:	8b 55 fc             	mov    -0x4(%rbp),%edx
   16ae4:	48 8d 35 6d 52 00 00 	lea    0x526d(%rip),%rsi        # 1bd58 <g_2129+0x2898>
   16aeb:	48 89 c7             	mov    %rax,%rdi
   16aee:	e8 00 fc fe ff       	callq  66f3 <transparent_crc>
   16af3:	8b 05 5b 96 00 00    	mov    0x965b(%rip),%eax        # 20154 <g_1606+0x4>
   16af9:	89 c1                	mov    %eax,%ecx
   16afb:	8b 45 fc             	mov    -0x4(%rbp),%eax
   16afe:	89 c2                	mov    %eax,%edx
   16b00:	48 8d 35 5b 52 00 00 	lea    0x525b(%rip),%rsi        # 1bd62 <g_2129+0x28a2>
   16b07:	48 89 cf             	mov    %rcx,%rdi
   16b0a:	e8 e4 fb fe ff       	callq  66f3 <transparent_crc>
   16b0f:	48 8b 05 42 96 00 00 	mov    0x9642(%rip),%rax        # 20158 <g_1606+0x8>
   16b16:	01 c0                	add    %eax,%eax
   16b18:	d1 f8                	sar    %eax
   16b1a:	48 98                	cltq   
   16b1c:	8b 55 fc             	mov    -0x4(%rbp),%edx
   16b1f:	48 8d 35 46 52 00 00 	lea    0x5246(%rip),%rsi        # 1bd6c <g_2129+0x28ac>
   16b26:	48 89 c7             	mov    %rax,%rdi
   16b29:	e8 c5 fb fe ff       	callq  66f3 <transparent_crc>
   16b2e:	0f b7 05 27 96 00 00 	movzwl 0x9627(%rip),%eax        # 2015c <g_1606+0xc>
   16b35:	48 0f bf c0          	movswq %ax,%rax
   16b39:	8b 55 fc             	mov    -0x4(%rbp),%edx
   16b3c:	48 8d 35 33 52 00 00 	lea    0x5233(%rip),%rsi        # 1bd76 <g_2129+0x28b6>
   16b43:	48 89 c7             	mov    %rax,%rdi
   16b46:	e8 a8 fb fe ff       	callq  66f3 <transparent_crc>
   16b4b:	0f b7 05 0c 96 00 00 	movzwl 0x960c(%rip),%eax        # 2015e <g_1606+0xe>
   16b52:	48 0f bf c0          	movswq %ax,%rax
   16b56:	8b 55 fc             	mov    -0x4(%rbp),%edx
   16b59:	48 8d 35 20 52 00 00 	lea    0x5220(%rip),%rsi        # 1bd80 <g_2129+0x28c0>
   16b60:	48 89 c7             	mov    %rax,%rdi
   16b63:	e8 8b fb fe ff       	callq  66f3 <transparent_crc>
   16b68:	0f b7 05 f1 95 00 00 	movzwl 0x95f1(%rip),%eax        # 20160 <g_1606+0x10>
   16b6f:	48 0f bf c0          	movswq %ax,%rax
   16b73:	8b 55 fc             	mov    -0x4(%rbp),%edx
   16b76:	48 8d 35 0d 52 00 00 	lea    0x520d(%rip),%rsi        # 1bd8a <g_2129+0x28ca>
   16b7d:	48 89 c7             	mov    %rax,%rdi
   16b80:	e8 6e fb fe ff       	callq  66f3 <transparent_crc>
   16b85:	48 8b 05 dc 95 00 00 	mov    0x95dc(%rip),%rax        # 20168 <g_1655>
   16b8c:	48 89 c1             	mov    %rax,%rcx
   16b8f:	8b 45 fc             	mov    -0x4(%rbp),%eax
   16b92:	89 c2                	mov    %eax,%edx
   16b94:	48 8d 35 f9 51 00 00 	lea    0x51f9(%rip),%rsi        # 1bd94 <g_2129+0x28d4>
   16b9b:	48 89 cf             	mov    %rcx,%rdi
   16b9e:	e8 50 fb fe ff       	callq  66f3 <transparent_crc>
   16ba3:	0f b6 05 c6 95 00 00 	movzbl 0x95c6(%rip),%eax        # 20170 <g_1665>
   16baa:	0f b6 c0             	movzbl %al,%eax
   16bad:	8b 55 fc             	mov    -0x4(%rbp),%edx
   16bb0:	48 8d 35 e4 51 00 00 	lea    0x51e4(%rip),%rsi        # 1bd9b <g_2129+0x28db>
   16bb7:	48 89 c7             	mov    %rax,%rdi
   16bba:	e8 34 fb fe ff       	callq  66f3 <transparent_crc>
   16bbf:	0f b6 05 ab 95 00 00 	movzbl 0x95ab(%rip),%eax        # 20171 <g_1665+0x1>
   16bc6:	0f b6 c0             	movzbl %al,%eax
   16bc9:	8b 55 fc             	mov    -0x4(%rbp),%edx
   16bcc:	48 8d 35 d2 51 00 00 	lea    0x51d2(%rip),%rsi        # 1bda5 <g_2129+0x28e5>
   16bd3:	48 89 c7             	mov    %rax,%rdi
   16bd6:	e8 18 fb fe ff       	callq  66f3 <transparent_crc>
   16bdb:	0f b6 05 90 95 00 00 	movzbl 0x9590(%rip),%eax        # 20172 <g_1665+0x2>
   16be2:	0f b6 c0             	movzbl %al,%eax
   16be5:	8b 55 fc             	mov    -0x4(%rbp),%edx
   16be8:	48 8d 35 c0 51 00 00 	lea    0x51c0(%rip),%rsi        # 1bdaf <g_2129+0x28ef>
   16bef:	48 89 c7             	mov    %rax,%rdi
   16bf2:	e8 fc fa fe ff       	callq  66f3 <transparent_crc>
   16bf7:	48 8b 05 72 95 00 00 	mov    0x9572(%rip),%rax        # 20170 <g_1665>
   16bfe:	c1 e0 04             	shl    $0x4,%eax
   16c01:	c1 f8 1c             	sar    $0x1c,%eax
   16c04:	48 0f be c0          	movsbq %al,%rax
   16c08:	8b 55 fc             	mov    -0x4(%rbp),%edx
   16c0b:	48 8d 35 a7 51 00 00 	lea    0x51a7(%rip),%rsi        # 1bdb9 <g_2129+0x28f9>
   16c12:	48 89 c7             	mov    %rax,%rdi
   16c15:	e8 d9 fa fe ff       	callq  66f3 <transparent_crc>
   16c1a:	8b 05 54 95 00 00    	mov    0x9554(%rip),%eax        # 20174 <g_1665+0x4>
   16c20:	89 c1                	mov    %eax,%ecx
   16c22:	8b 45 fc             	mov    -0x4(%rbp),%eax
   16c25:	89 c2                	mov    %eax,%edx
   16c27:	48 8d 35 95 51 00 00 	lea    0x5195(%rip),%rsi        # 1bdc3 <g_2129+0x2903>
   16c2e:	48 89 cf             	mov    %rcx,%rdi
   16c31:	e8 bd fa fe ff       	callq  66f3 <transparent_crc>
   16c36:	48 8b 05 3b 95 00 00 	mov    0x953b(%rip),%rax        # 20178 <g_1665+0x8>
   16c3d:	01 c0                	add    %eax,%eax
   16c3f:	d1 f8                	sar    %eax
   16c41:	48 98                	cltq   
   16c43:	8b 55 fc             	mov    -0x4(%rbp),%edx
   16c46:	48 8d 35 80 51 00 00 	lea    0x5180(%rip),%rsi        # 1bdcd <g_2129+0x290d>
   16c4d:	48 89 c7             	mov    %rax,%rdi
   16c50:	e8 9e fa fe ff       	callq  66f3 <transparent_crc>
   16c55:	0f b7 05 20 95 00 00 	movzwl 0x9520(%rip),%eax        # 2017c <g_1665+0xc>
   16c5c:	48 0f bf c0          	movswq %ax,%rax
   16c60:	8b 55 fc             	mov    -0x4(%rbp),%edx
   16c63:	48 8d 35 6d 51 00 00 	lea    0x516d(%rip),%rsi        # 1bdd7 <g_2129+0x2917>
   16c6a:	48 89 c7             	mov    %rax,%rdi
   16c6d:	e8 81 fa fe ff       	callq  66f3 <transparent_crc>
   16c72:	0f b7 05 05 95 00 00 	movzwl 0x9505(%rip),%eax        # 2017e <g_1665+0xe>
   16c79:	48 0f bf c0          	movswq %ax,%rax
   16c7d:	8b 55 fc             	mov    -0x4(%rbp),%edx
   16c80:	48 8d 35 5a 51 00 00 	lea    0x515a(%rip),%rsi        # 1bde1 <g_2129+0x2921>
   16c87:	48 89 c7             	mov    %rax,%rdi
   16c8a:	e8 64 fa fe ff       	callq  66f3 <transparent_crc>
   16c8f:	0f b7 05 ea 94 00 00 	movzwl 0x94ea(%rip),%eax        # 20180 <g_1665+0x10>
   16c96:	48 0f bf c0          	movswq %ax,%rax
   16c9a:	8b 55 fc             	mov    -0x4(%rbp),%edx
   16c9d:	48 8d 35 47 51 00 00 	lea    0x5147(%rip),%rsi        # 1bdeb <g_2129+0x292b>
   16ca4:	48 89 c7             	mov    %rax,%rdi
   16ca7:	e8 47 fa fe ff       	callq  66f3 <transparent_crc>
   16cac:	8b 05 d2 94 00 00    	mov    0x94d2(%rip),%eax        # 20184 <g_1681>
   16cb2:	48 98                	cltq   
   16cb4:	8b 55 fc             	mov    -0x4(%rbp),%edx
   16cb7:	48 8d 35 37 51 00 00 	lea    0x5137(%rip),%rsi        # 1bdf5 <g_2129+0x2935>
   16cbe:	48 89 c7             	mov    %rax,%rdi
   16cc1:	e8 2d fa fe ff       	callq  66f3 <transparent_crc>
   16cc6:	0f b6 05 c3 94 00 00 	movzbl 0x94c3(%rip),%eax        # 20190 <g_1700>
   16ccd:	0f b6 c0             	movzbl %al,%eax
   16cd0:	8b 55 fc             	mov    -0x4(%rbp),%edx
   16cd3:	48 8d 35 22 51 00 00 	lea    0x5122(%rip),%rsi        # 1bdfc <g_2129+0x293c>
   16cda:	48 89 c7             	mov    %rax,%rdi
   16cdd:	e8 11 fa fe ff       	callq  66f3 <transparent_crc>
   16ce2:	0f b6 05 a8 94 00 00 	movzbl 0x94a8(%rip),%eax        # 20191 <g_1700+0x1>
   16ce9:	0f b6 c0             	movzbl %al,%eax
   16cec:	8b 55 fc             	mov    -0x4(%rbp),%edx
   16cef:	48 8d 35 10 51 00 00 	lea    0x5110(%rip),%rsi        # 1be06 <g_2129+0x2946>
   16cf6:	48 89 c7             	mov    %rax,%rdi
   16cf9:	e8 f5 f9 fe ff       	callq  66f3 <transparent_crc>
   16cfe:	0f b6 05 8d 94 00 00 	movzbl 0x948d(%rip),%eax        # 20192 <g_1700+0x2>
   16d05:	0f b6 c0             	movzbl %al,%eax
   16d08:	8b 55 fc             	mov    -0x4(%rbp),%edx
   16d0b:	48 8d 35 fe 50 00 00 	lea    0x50fe(%rip),%rsi        # 1be10 <g_2129+0x2950>
   16d12:	48 89 c7             	mov    %rax,%rdi
   16d15:	e8 d9 f9 fe ff       	callq  66f3 <transparent_crc>
   16d1a:	48 8b 05 6f 94 00 00 	mov    0x946f(%rip),%rax        # 20190 <g_1700>
   16d21:	c1 e0 04             	shl    $0x4,%eax
   16d24:	c1 f8 1c             	sar    $0x1c,%eax
   16d27:	48 0f be c0          	movsbq %al,%rax
   16d2b:	8b 55 fc             	mov    -0x4(%rbp),%edx
   16d2e:	48 8d 35 e5 50 00 00 	lea    0x50e5(%rip),%rsi        # 1be1a <g_2129+0x295a>
   16d35:	48 89 c7             	mov    %rax,%rdi
   16d38:	e8 b6 f9 fe ff       	callq  66f3 <transparent_crc>
   16d3d:	8b 05 51 94 00 00    	mov    0x9451(%rip),%eax        # 20194 <g_1700+0x4>
   16d43:	89 c1                	mov    %eax,%ecx
   16d45:	8b 45 fc             	mov    -0x4(%rbp),%eax
   16d48:	89 c2                	mov    %eax,%edx
   16d4a:	48 8d 35 d3 50 00 00 	lea    0x50d3(%rip),%rsi        # 1be24 <g_2129+0x2964>
   16d51:	48 89 cf             	mov    %rcx,%rdi
   16d54:	e8 9a f9 fe ff       	callq  66f3 <transparent_crc>
   16d59:	48 8b 05 38 94 00 00 	mov    0x9438(%rip),%rax        # 20198 <g_1700+0x8>
   16d60:	01 c0                	add    %eax,%eax
   16d62:	d1 f8                	sar    %eax
   16d64:	48 98                	cltq   
   16d66:	8b 55 fc             	mov    -0x4(%rbp),%edx
   16d69:	48 8d 35 be 50 00 00 	lea    0x50be(%rip),%rsi        # 1be2e <g_2129+0x296e>
   16d70:	48 89 c7             	mov    %rax,%rdi
   16d73:	e8 7b f9 fe ff       	callq  66f3 <transparent_crc>
   16d78:	0f b7 05 1d 94 00 00 	movzwl 0x941d(%rip),%eax        # 2019c <g_1700+0xc>
   16d7f:	48 0f bf c0          	movswq %ax,%rax
   16d83:	8b 55 fc             	mov    -0x4(%rbp),%edx
   16d86:	48 8d 35 ab 50 00 00 	lea    0x50ab(%rip),%rsi        # 1be38 <g_2129+0x2978>
   16d8d:	48 89 c7             	mov    %rax,%rdi
   16d90:	e8 5e f9 fe ff       	callq  66f3 <transparent_crc>
   16d95:	0f b7 05 02 94 00 00 	movzwl 0x9402(%rip),%eax        # 2019e <g_1700+0xe>
   16d9c:	48 0f bf c0          	movswq %ax,%rax
   16da0:	8b 55 fc             	mov    -0x4(%rbp),%edx
   16da3:	48 8d 35 98 50 00 00 	lea    0x5098(%rip),%rsi        # 1be42 <g_2129+0x2982>
   16daa:	48 89 c7             	mov    %rax,%rdi
   16dad:	e8 41 f9 fe ff       	callq  66f3 <transparent_crc>
   16db2:	0f b7 05 e7 93 00 00 	movzwl 0x93e7(%rip),%eax        # 201a0 <g_1700+0x10>
   16db9:	48 0f bf c0          	movswq %ax,%rax
   16dbd:	8b 55 fc             	mov    -0x4(%rbp),%edx
   16dc0:	48 8d 35 85 50 00 00 	lea    0x5085(%rip),%rsi        # 1be4c <g_2129+0x298c>
   16dc7:	48 89 c7             	mov    %rax,%rdi
   16dca:	e8 24 f9 fe ff       	callq  66f3 <transparent_crc>
   16dcf:	c7 45 f0 00 00 00 00 	movl   $0x0,-0x10(%rbp)
   16dd6:	e9 2b 02 00 00       	jmpq   17006 <main+0x2e3d>
   16ddb:	8b 45 f0             	mov    -0x10(%rbp),%eax
   16dde:	48 63 d0             	movslq %eax,%rdx
   16de1:	48 89 d0             	mov    %rdx,%rax
   16de4:	48 c1 e0 03          	shl    $0x3,%rax
   16de8:	48 01 d0             	add    %rdx,%rax
   16deb:	48 01 c0             	add    %rax,%rax
   16dee:	48 89 c2             	mov    %rax,%rdx
   16df1:	48 8d 05 88 22 00 00 	lea    0x2288(%rip),%rax        # 19080 <g_1701>
   16df8:	0f b6 04 02          	movzbl (%rdx,%rax,1),%eax
   16dfc:	0f b6 c0             	movzbl %al,%eax
   16dff:	8b 55 fc             	mov    -0x4(%rbp),%edx
   16e02:	48 8d 35 4d 50 00 00 	lea    0x504d(%rip),%rsi        # 1be56 <g_2129+0x2996>
   16e09:	48 89 c7             	mov    %rax,%rdi
   16e0c:	e8 e2 f8 fe ff       	callq  66f3 <transparent_crc>
   16e11:	8b 45 f0             	mov    -0x10(%rbp),%eax
   16e14:	48 63 d0             	movslq %eax,%rdx
   16e17:	48 89 d0             	mov    %rdx,%rax
   16e1a:	48 c1 e0 03          	shl    $0x3,%rax
   16e1e:	48 01 d0             	add    %rdx,%rax
   16e21:	48 01 c0             	add    %rax,%rax
   16e24:	48 89 c2             	mov    %rax,%rdx
   16e27:	48 8d 05 53 22 00 00 	lea    0x2253(%rip),%rax        # 19081 <g_1701+0x1>
   16e2e:	0f b6 04 02          	movzbl (%rdx,%rax,1),%eax
   16e32:	0f b6 c0             	movzbl %al,%eax
   16e35:	8b 55 fc             	mov    -0x4(%rbp),%edx
   16e38:	48 8d 35 24 50 00 00 	lea    0x5024(%rip),%rsi        # 1be63 <g_2129+0x29a3>
   16e3f:	48 89 c7             	mov    %rax,%rdi
   16e42:	e8 ac f8 fe ff       	callq  66f3 <transparent_crc>
   16e47:	8b 45 f0             	mov    -0x10(%rbp),%eax
   16e4a:	48 63 d0             	movslq %eax,%rdx
   16e4d:	48 89 d0             	mov    %rdx,%rax
   16e50:	48 c1 e0 03          	shl    $0x3,%rax
   16e54:	48 01 d0             	add    %rdx,%rax
   16e57:	48 01 c0             	add    %rax,%rax
   16e5a:	48 89 c2             	mov    %rax,%rdx
   16e5d:	48 8d 05 1e 22 00 00 	lea    0x221e(%rip),%rax        # 19082 <g_1701+0x2>
   16e64:	0f b6 04 02          	movzbl (%rdx,%rax,1),%eax
   16e68:	0f b6 c0             	movzbl %al,%eax
   16e6b:	8b 55 fc             	mov    -0x4(%rbp),%edx
   16e6e:	48 8d 35 fb 4f 00 00 	lea    0x4ffb(%rip),%rsi        # 1be70 <g_2129+0x29b0>
   16e75:	48 89 c7             	mov    %rax,%rdi
   16e78:	e8 76 f8 fe ff       	callq  66f3 <transparent_crc>
   16e7d:	8b 45 f0             	mov    -0x10(%rbp),%eax
   16e80:	48 63 d0             	movslq %eax,%rdx
   16e83:	48 89 d0             	mov    %rdx,%rax
   16e86:	48 c1 e0 03          	shl    $0x3,%rax
   16e8a:	48 01 d0             	add    %rdx,%rax
   16e8d:	48 01 c0             	add    %rax,%rax
   16e90:	48 89 c2             	mov    %rax,%rdx
   16e93:	48 8d 05 e6 21 00 00 	lea    0x21e6(%rip),%rax        # 19080 <g_1701>
   16e9a:	0f b7 44 02 02       	movzwl 0x2(%rdx,%rax,1),%eax
   16e9f:	c1 e0 04             	shl    $0x4,%eax
   16ea2:	66 c1 f8 0c          	sar    $0xc,%ax
   16ea6:	48 0f be c0          	movsbq %al,%rax
   16eaa:	8b 55 fc             	mov    -0x4(%rbp),%edx
   16ead:	48 8d 35 c9 4f 00 00 	lea    0x4fc9(%rip),%rsi        # 1be7d <g_2129+0x29bd>
   16eb4:	48 89 c7             	mov    %rax,%rdi
   16eb7:	e8 37 f8 fe ff       	callq  66f3 <transparent_crc>
   16ebc:	8b 45 f0             	mov    -0x10(%rbp),%eax
   16ebf:	48 63 d0             	movslq %eax,%rdx
   16ec2:	48 89 d0             	mov    %rdx,%rax
   16ec5:	48 c1 e0 03          	shl    $0x3,%rax
   16ec9:	48 01 d0             	add    %rdx,%rax
   16ecc:	48 01 c0             	add    %rax,%rax
   16ecf:	48 89 c2             	mov    %rax,%rdx
   16ed2:	48 8d 05 ab 21 00 00 	lea    0x21ab(%rip),%rax        # 19084 <g_1701+0x4>
   16ed9:	8b 04 02             	mov    (%rdx,%rax,1),%eax
   16edc:	89 c1                	mov    %eax,%ecx
   16ede:	8b 45 fc             	mov    -0x4(%rbp),%eax
   16ee1:	89 c2                	mov    %eax,%edx
   16ee3:	48 8d 35 a0 4f 00 00 	lea    0x4fa0(%rip),%rsi        # 1be8a <g_2129+0x29ca>
   16eea:	48 89 cf             	mov    %rcx,%rdi
   16eed:	e8 01 f8 fe ff       	callq  66f3 <transparent_crc>
   16ef2:	8b 45 f0             	mov    -0x10(%rbp),%eax
   16ef5:	48 63 d0             	movslq %eax,%rdx
   16ef8:	48 89 d0             	mov    %rdx,%rax
   16efb:	48 c1 e0 03          	shl    $0x3,%rax
   16eff:	48 01 d0             	add    %rdx,%rax
   16f02:	48 01 c0             	add    %rax,%rax
   16f05:	48 89 c2             	mov    %rax,%rdx
   16f08:	48 8d 05 71 21 00 00 	lea    0x2171(%rip),%rax        # 19080 <g_1701>
   16f0f:	0f b7 4c 02 08       	movzwl 0x8(%rdx,%rax,1),%ecx
   16f14:	0f b7 44 02 0a       	movzwl 0xa(%rdx,%rax,1),%eax
   16f19:	25 ff 7f 00 00       	and    $0x7fff,%eax
   16f1e:	48 c1 e0 10          	shl    $0x10,%rax
   16f22:	48 09 c8             	or     %rcx,%rax
   16f25:	48 c1 e0 21          	shl    $0x21,%rax
   16f29:	48 c1 f8 21          	sar    $0x21,%rax
   16f2d:	48 98                	cltq   
   16f2f:	8b 55 fc             	mov    -0x4(%rbp),%edx
   16f32:	48 8d 35 5e 4f 00 00 	lea    0x4f5e(%rip),%rsi        # 1be97 <g_2129+0x29d7>
   16f39:	48 89 c7             	mov    %rax,%rdi
   16f3c:	e8 b2 f7 fe ff       	callq  66f3 <transparent_crc>
   16f41:	8b 45 f0             	mov    -0x10(%rbp),%eax
   16f44:	48 63 d0             	movslq %eax,%rdx
   16f47:	48 89 d0             	mov    %rdx,%rax
   16f4a:	48 c1 e0 03          	shl    $0x3,%rax
   16f4e:	48 01 d0             	add    %rdx,%rax
   16f51:	48 01 c0             	add    %rax,%rax
   16f54:	48 89 c2             	mov    %rax,%rdx
   16f57:	48 8d 05 2e 21 00 00 	lea    0x212e(%rip),%rax        # 1908c <g_1701+0xc>
   16f5e:	0f b7 04 02          	movzwl (%rdx,%rax,1),%eax
   16f62:	48 0f bf c0          	movswq %ax,%rax
   16f66:	8b 55 fc             	mov    -0x4(%rbp),%edx
   16f69:	48 8d 35 34 4f 00 00 	lea    0x4f34(%rip),%rsi        # 1bea4 <g_2129+0x29e4>
   16f70:	48 89 c7             	mov    %rax,%rdi
   16f73:	e8 7b f7 fe ff       	callq  66f3 <transparent_crc>
   16f78:	8b 45 f0             	mov    -0x10(%rbp),%eax
   16f7b:	48 63 d0             	movslq %eax,%rdx
   16f7e:	48 89 d0             	mov    %rdx,%rax
   16f81:	48 c1 e0 03          	shl    $0x3,%rax
   16f85:	48 01 d0             	add    %rdx,%rax
   16f88:	48 01 c0             	add    %rax,%rax
   16f8b:	48 89 c2             	mov    %rax,%rdx
   16f8e:	48 8d 05 f9 20 00 00 	lea    0x20f9(%rip),%rax        # 1908e <g_1701+0xe>
   16f95:	0f b7 04 02          	movzwl (%rdx,%rax,1),%eax
   16f99:	48 0f bf c0          	movswq %ax,%rax
   16f9d:	8b 55 fc             	mov    -0x4(%rbp),%edx
   16fa0:	48 8d 35 0a 4f 00 00 	lea    0x4f0a(%rip),%rsi        # 1beb1 <g_2129+0x29f1>
   16fa7:	48 89 c7             	mov    %rax,%rdi
   16faa:	e8 44 f7 fe ff       	callq  66f3 <transparent_crc>
   16faf:	8b 45 f0             	mov    -0x10(%rbp),%eax
   16fb2:	48 63 d0             	movslq %eax,%rdx
   16fb5:	48 89 d0             	mov    %rdx,%rax
   16fb8:	48 c1 e0 03          	shl    $0x3,%rax
   16fbc:	48 01 d0             	add    %rdx,%rax
   16fbf:	48 01 c0             	add    %rax,%rax
   16fc2:	48 89 c2             	mov    %rax,%rdx
   16fc5:	48 8d 05 c4 20 00 00 	lea    0x20c4(%rip),%rax        # 19090 <g_1701+0x10>
   16fcc:	0f b7 04 02          	movzwl (%rdx,%rax,1),%eax
   16fd0:	48 0f bf c0          	movswq %ax,%rax
   16fd4:	8b 55 fc             	mov    -0x4(%rbp),%edx
   16fd7:	48 8d 35 e0 4e 00 00 	lea    0x4ee0(%rip),%rsi        # 1bebe <g_2129+0x29fe>
   16fde:	48 89 c7             	mov    %rax,%rdi
   16fe1:	e8 0d f7 fe ff       	callq  66f3 <transparent_crc>
   16fe6:	83 7d fc 00          	cmpl   $0x0,-0x4(%rbp)
   16fea:	74 16                	je     17002 <main+0x2e39>
   16fec:	8b 45 f0             	mov    -0x10(%rbp),%eax
   16fef:	89 c6                	mov    %eax,%esi
   16ff1:	48 8d 3d 34 47 00 00 	lea    0x4734(%rip),%rdi        # 1b72c <g_2129+0x226c>
   16ff8:	b8 00 00 00 00       	mov    $0x0,%eax
   16ffd:	e8 7e e0 fe ff       	callq  5080 <printf@plt>
   17002:	83 45 f0 01          	addl   $0x1,-0x10(%rbp)
   17006:	83 7d f0 06          	cmpl   $0x6,-0x10(%rbp)
   1700a:	0f 8e cb fd ff ff    	jle    16ddb <main+0x2c12>
   17010:	48 8b 05 99 91 00 00 	mov    0x9199(%rip),%rax        # 201b0 <g_1703>
   17017:	25 ff ff 07 00       	and    $0x7ffff,%eax
   1701c:	89 c1                	mov    %eax,%ecx
   1701e:	8b 45 fc             	mov    -0x4(%rbp),%eax
   17021:	89 c2                	mov    %eax,%edx
   17023:	48 8d 35 a1 4e 00 00 	lea    0x4ea1(%rip),%rsi        # 1becb <g_2129+0x2a0b>
   1702a:	48 89 cf             	mov    %rcx,%rdi
   1702d:	e8 c1 f6 fe ff       	callq  66f3 <transparent_crc>
   17032:	48 8b 05 77 91 00 00 	mov    0x9177(%rip),%rax        # 201b0 <g_1703>
   17039:	48 c1 e0 10          	shl    $0x10,%rax
   1703d:	48 c1 f8 23          	sar    $0x23,%rax
   17041:	48 98                	cltq   
   17043:	8b 55 fc             	mov    -0x4(%rbp),%edx
   17046:	48 8d 35 88 4e 00 00 	lea    0x4e88(%rip),%rsi        # 1bed5 <g_2129+0x2a15>
   1704d:	48 89 c7             	mov    %rax,%rdi
   17050:	e8 9e f6 fe ff       	callq  66f3 <transparent_crc>
   17055:	48 8b 05 54 91 00 00 	mov    0x9154(%rip),%rax        # 201b0 <g_1703>
   1705c:	48 c1 e8 30          	shr    $0x30,%rax
   17060:	48 89 c2             	mov    %rax,%rdx
   17063:	48 8b 05 4e 91 00 00 	mov    0x914e(%rip),%rax        # 201b8 <g_1703+0x8>
   1706a:	25 ff 03 00 00       	and    $0x3ff,%eax
   1706f:	48 c1 e0 10          	shl    $0x10,%rax
   17073:	48 09 d0             	or     %rdx,%rax
   17076:	48 c1 e0 26          	shl    $0x26,%rax
   1707a:	48 c1 f8 26          	sar    $0x26,%rax
   1707e:	48 98                	cltq   
   17080:	8b 55 fc             	mov    -0x4(%rbp),%edx
   17083:	48 8d 35 55 4e 00 00 	lea    0x4e55(%rip),%rsi        # 1bedf <g_2129+0x2a1f>
   1708a:	48 89 c7             	mov    %rax,%rdi
   1708d:	e8 61 f6 fe ff       	callq  66f3 <transparent_crc>
   17092:	48 8b 05 1f 91 00 00 	mov    0x911f(%rip),%rax        # 201b8 <g_1703+0x8>
   17099:	48 c1 e0 08          	shl    $0x8,%rax
   1709d:	48 c1 f8 28          	sar    $0x28,%rax
   170a1:	48 98                	cltq   
   170a3:	8b 55 fc             	mov    -0x4(%rbp),%edx
   170a6:	48 8d 35 3c 4e 00 00 	lea    0x4e3c(%rip),%rsi        # 1bee9 <g_2129+0x2a29>
   170ad:	48 89 c7             	mov    %rax,%rdi
   170b0:	e8 3e f6 fe ff       	callq  66f3 <transparent_crc>
   170b5:	48 8b 05 fc 90 00 00 	mov    0x90fc(%rip),%rax        # 201b8 <g_1703+0x8>
   170bc:	48 c1 e8 38          	shr    $0x38,%rax
   170c0:	48 89 c2             	mov    %rax,%rdx
   170c3:	48 8b 05 f6 90 00 00 	mov    0x90f6(%rip),%rax        # 201c0 <g_1703+0x10>
   170ca:	25 ff 07 00 00       	and    $0x7ff,%eax
   170cf:	48 c1 e0 08          	shl    $0x8,%rax
   170d3:	48 09 d0             	or     %rdx,%rax
   170d6:	48 c1 e0 2d          	shl    $0x2d,%rax
   170da:	48 c1 f8 2d          	sar    $0x2d,%rax
   170de:	48 98                	cltq   
   170e0:	8b 55 fc             	mov    -0x4(%rbp),%edx
   170e3:	48 8d 35 09 4e 00 00 	lea    0x4e09(%rip),%rsi        # 1bef3 <g_2129+0x2a33>
   170ea:	48 89 c7             	mov    %rax,%rdi
   170ed:	e8 01 f6 fe ff       	callq  66f3 <transparent_crc>
   170f2:	48 8b 05 c7 90 00 00 	mov    0x90c7(%rip),%rax        # 201c0 <g_1703+0x10>
   170f9:	48 c1 e0 19          	shl    $0x19,%rax
   170fd:	48 c1 f8 24          	sar    $0x24,%rax
   17101:	48 98                	cltq   
   17103:	8b 55 fc             	mov    -0x4(%rbp),%edx
   17106:	48 8d 35 f0 4d 00 00 	lea    0x4df0(%rip),%rsi        # 1befd <g_2129+0x2a3d>
   1710d:	48 89 c7             	mov    %rax,%rdi
   17110:	e8 de f5 fe ff       	callq  66f3 <transparent_crc>
   17115:	48 8b 05 a4 90 00 00 	mov    0x90a4(%rip),%rax        # 201c0 <g_1703+0x10>
   1711c:	48 c1 e8 27          	shr    $0x27,%rax
   17120:	48 89 c2             	mov    %rax,%rdx
   17123:	48 8b 05 9e 90 00 00 	mov    0x909e(%rip),%rax        # 201c8 <g_1703+0x18>
   1712a:	83 e0 1f             	and    $0x1f,%eax
   1712d:	48 c1 e0 19          	shl    $0x19,%rax
   17131:	48 09 d0             	or     %rdx,%rax
   17134:	48 c1 e0 22          	shl    $0x22,%rax
   17138:	48 c1 f8 22          	sar    $0x22,%rax
   1713c:	48 98                	cltq   
   1713e:	8b 55 fc             	mov    -0x4(%rbp),%edx
   17141:	48 8d 35 bf 4d 00 00 	lea    0x4dbf(%rip),%rsi        # 1bf07 <g_2129+0x2a47>
   17148:	48 89 c7             	mov    %rax,%rdi
   1714b:	e8 a3 f5 fe ff       	callq  66f3 <transparent_crc>
   17150:	48 8b 05 71 90 00 00 	mov    0x9071(%rip),%rax        # 201c8 <g_1703+0x18>
   17157:	48 c1 e8 05          	shr    $0x5,%rax
   1715b:	80 e4 ff             	and    $0xff,%ah
   1715e:	0f b6 c0             	movzbl %al,%eax
   17161:	8b 55 fc             	mov    -0x4(%rbp),%edx
   17164:	48 8d 35 a6 4d 00 00 	lea    0x4da6(%rip),%rsi        # 1bf11 <g_2129+0x2a51>
   1716b:	48 89 c7             	mov    %rax,%rdi
   1716e:	e8 80 f5 fe ff       	callq  66f3 <transparent_crc>
   17173:	48 8b 05 4e 90 00 00 	mov    0x904e(%rip),%rax        # 201c8 <g_1703+0x18>
   1717a:	c1 e0 07             	shl    $0x7,%eax
   1717d:	c1 f8 14             	sar    $0x14,%eax
   17180:	48 0f bf c0          	movswq %ax,%rax
   17184:	8b 55 fc             	mov    -0x4(%rbp),%edx
   17187:	48 8d 35 8d 4d 00 00 	lea    0x4d8d(%rip),%rsi        # 1bf1b <g_2129+0x2a5b>
   1718e:	48 89 c7             	mov    %rax,%rdi
   17191:	e8 5d f5 fe ff       	callq  66f3 <transparent_crc>
   17196:	0f b6 05 33 90 00 00 	movzbl 0x9033(%rip),%eax        # 201d0 <g_1727>
   1719d:	0f b6 c0             	movzbl %al,%eax
   171a0:	8b 55 fc             	mov    -0x4(%rbp),%edx
   171a3:	48 8d 35 7b 4d 00 00 	lea    0x4d7b(%rip),%rsi        # 1bf25 <g_2129+0x2a65>
   171aa:	48 89 c7             	mov    %rax,%rdi
   171ad:	e8 41 f5 fe ff       	callq  66f3 <transparent_crc>
   171b2:	0f b6 05 18 90 00 00 	movzbl 0x9018(%rip),%eax        # 201d1 <g_1727+0x1>
   171b9:	0f b6 c0             	movzbl %al,%eax
   171bc:	8b 55 fc             	mov    -0x4(%rbp),%edx
   171bf:	48 8d 35 69 4d 00 00 	lea    0x4d69(%rip),%rsi        # 1bf2f <g_2129+0x2a6f>
   171c6:	48 89 c7             	mov    %rax,%rdi
   171c9:	e8 25 f5 fe ff       	callq  66f3 <transparent_crc>
   171ce:	0f b6 05 fd 8f 00 00 	movzbl 0x8ffd(%rip),%eax        # 201d2 <g_1727+0x2>
   171d5:	0f b6 c0             	movzbl %al,%eax
   171d8:	8b 55 fc             	mov    -0x4(%rbp),%edx
   171db:	48 8d 35 57 4d 00 00 	lea    0x4d57(%rip),%rsi        # 1bf39 <g_2129+0x2a79>
   171e2:	48 89 c7             	mov    %rax,%rdi
   171e5:	e8 09 f5 fe ff       	callq  66f3 <transparent_crc>
   171ea:	48 8b 05 df 8f 00 00 	mov    0x8fdf(%rip),%rax        # 201d0 <g_1727>
   171f1:	c1 e0 04             	shl    $0x4,%eax
   171f4:	c1 f8 1c             	sar    $0x1c,%eax
   171f7:	48 0f be c0          	movsbq %al,%rax
   171fb:	8b 55 fc             	mov    -0x4(%rbp),%edx
   171fe:	48 8d 35 3e 4d 00 00 	lea    0x4d3e(%rip),%rsi        # 1bf43 <g_2129+0x2a83>
   17205:	48 89 c7             	mov    %rax,%rdi
   17208:	e8 e6 f4 fe ff       	callq  66f3 <transparent_crc>
   1720d:	8b 05 c1 8f 00 00    	mov    0x8fc1(%rip),%eax        # 201d4 <g_1727+0x4>
   17213:	89 c1                	mov    %eax,%ecx
   17215:	8b 45 fc             	mov    -0x4(%rbp),%eax
   17218:	89 c2                	mov    %eax,%edx
   1721a:	48 8d 35 2c 4d 00 00 	lea    0x4d2c(%rip),%rsi        # 1bf4d <g_2129+0x2a8d>
   17221:	48 89 cf             	mov    %rcx,%rdi
   17224:	e8 ca f4 fe ff       	callq  66f3 <transparent_crc>
   17229:	8b 05 a9 8f 00 00    	mov    0x8fa9(%rip),%eax        # 201d8 <g_1727+0x8>
   1722f:	01 c0                	add    %eax,%eax
   17231:	d1 f8                	sar    %eax
   17233:	48 98                	cltq   
   17235:	8b 55 fc             	mov    -0x4(%rbp),%edx
   17238:	48 8d 35 18 4d 00 00 	lea    0x4d18(%rip),%rsi        # 1bf57 <g_2129+0x2a97>
   1723f:	48 89 c7             	mov    %rax,%rdi
   17242:	e8 ac f4 fe ff       	callq  66f3 <transparent_crc>
   17247:	0f b7 05 8e 8f 00 00 	movzwl 0x8f8e(%rip),%eax        # 201dc <g_1727+0xc>
   1724e:	48 0f bf c0          	movswq %ax,%rax
   17252:	8b 55 fc             	mov    -0x4(%rbp),%edx
   17255:	48 8d 35 05 4d 00 00 	lea    0x4d05(%rip),%rsi        # 1bf61 <g_2129+0x2aa1>
   1725c:	48 89 c7             	mov    %rax,%rdi
   1725f:	e8 8f f4 fe ff       	callq  66f3 <transparent_crc>
   17264:	0f b7 05 73 8f 00 00 	movzwl 0x8f73(%rip),%eax        # 201de <g_1727+0xe>
   1726b:	48 0f bf c0          	movswq %ax,%rax
   1726f:	8b 55 fc             	mov    -0x4(%rbp),%edx
   17272:	48 8d 35 f2 4c 00 00 	lea    0x4cf2(%rip),%rsi        # 1bf6b <g_2129+0x2aab>
   17279:	48 89 c7             	mov    %rax,%rdi
   1727c:	e8 72 f4 fe ff       	callq  66f3 <transparent_crc>
   17281:	0f b7 05 58 8f 00 00 	movzwl 0x8f58(%rip),%eax        # 201e0 <g_1727+0x10>
   17288:	48 0f bf c0          	movswq %ax,%rax
   1728c:	8b 55 fc             	mov    -0x4(%rbp),%edx
   1728f:	48 8d 35 df 4c 00 00 	lea    0x4cdf(%rip),%rsi        # 1bf75 <g_2129+0x2ab5>
   17296:	48 89 c7             	mov    %rax,%rdi
   17299:	e8 55 f4 fe ff       	callq  66f3 <transparent_crc>
   1729e:	48 8b 05 5b 8f 00 00 	mov    0x8f5b(%rip),%rax        # 20200 <g_1792>
   172a5:	83 e0 1f             	and    $0x1f,%eax
   172a8:	0f b6 c0             	movzbl %al,%eax
   172ab:	8b 55 fc             	mov    -0x4(%rbp),%edx
   172ae:	48 8d 35 ca 4c 00 00 	lea    0x4cca(%rip),%rsi        # 1bf7f <g_2129+0x2abf>
   172b5:	48 89 c7             	mov    %rax,%rdi
   172b8:	e8 36 f4 fe ff       	callq  66f3 <transparent_crc>
   172bd:	8b 05 41 8f 00 00    	mov    0x8f41(%rip),%eax        # 20204 <g_1792+0x4>
   172c3:	48 98                	cltq   
   172c5:	8b 55 fc             	mov    -0x4(%rbp),%edx
   172c8:	48 8d 35 ba 4c 00 00 	lea    0x4cba(%rip),%rsi        # 1bf89 <g_2129+0x2ac9>
   172cf:	48 89 c7             	mov    %rax,%rdi
   172d2:	e8 1c f4 fe ff       	callq  66f3 <transparent_crc>
   172d7:	0f b7 05 2a 8f 00 00 	movzwl 0x8f2a(%rip),%eax        # 20208 <g_1792+0x8>
   172de:	66 25 ff 3f          	and    $0x3fff,%ax
   172e2:	0f b7 c0             	movzwl %ax,%eax
   172e5:	8b 55 fc             	mov    -0x4(%rbp),%edx
   172e8:	48 8d 35 a4 4c 00 00 	lea    0x4ca4(%rip),%rsi        # 1bf93 <g_2129+0x2ad3>
   172ef:	48 89 c7             	mov    %rax,%rdi
   172f2:	e8 fc f3 fe ff       	callq  66f3 <transparent_crc>
   172f7:	48 8b 05 0a 8f 00 00 	mov    0x8f0a(%rip),%rax        # 20208 <g_1792+0x8>
   172fe:	48 c1 e0 08          	shl    $0x8,%rax
   17302:	48 c1 f8 28          	sar    $0x28,%rax
   17306:	48 98                	cltq   
   17308:	8b 55 fc             	mov    -0x4(%rbp),%edx
   1730b:	48 8d 35 8b 4c 00 00 	lea    0x4c8b(%rip),%rsi        # 1bf9d <g_2129+0x2add>
   17312:	48 89 c7             	mov    %rax,%rdi
   17315:	e8 d9 f3 fe ff       	callq  66f3 <transparent_crc>
   1731a:	8b 05 f0 8e 00 00    	mov    0x8ef0(%rip),%eax        # 20210 <g_1792+0x10>
   17320:	c1 e0 03             	shl    $0x3,%eax
   17323:	c1 f8 03             	sar    $0x3,%eax
   17326:	48 98                	cltq   
   17328:	8b 55 fc             	mov    -0x4(%rbp),%edx
   1732b:	48 8d 35 75 4c 00 00 	lea    0x4c75(%rip),%rsi        # 1bfa7 <g_2129+0x2ae7>
   17332:	48 89 c7             	mov    %rax,%rdi
   17335:	e8 b9 f3 fe ff       	callq  66f3 <transparent_crc>
   1733a:	48 8b 05 cf 8e 00 00 	mov    0x8ecf(%rip),%rax        # 20210 <g_1792+0x10>
   17341:	48 c1 e8 20          	shr    $0x20,%rax
   17345:	25 ff ff 1f 00       	and    $0x1fffff,%eax
   1734a:	89 c1                	mov    %eax,%ecx
   1734c:	8b 45 fc             	mov    -0x4(%rbp),%eax
   1734f:	89 c2                	mov    %eax,%edx
   17351:	48 8d 35 59 4c 00 00 	lea    0x4c59(%rip),%rsi        # 1bfb1 <g_2129+0x2af1>
   17358:	48 89 cf             	mov    %rcx,%rdi
   1735b:	e8 93 f3 fe ff       	callq  66f3 <transparent_crc>
   17360:	0f b6 05 af 8e 00 00 	movzbl 0x8eaf(%rip),%eax        # 20216 <g_1792+0x16>
   17367:	01 c0                	add    %eax,%eax
   17369:	c0 f8 06             	sar    $0x6,%al
   1736c:	48 0f be c0          	movsbq %al,%rax
   17370:	8b 55 fc             	mov    -0x4(%rbp),%edx
   17373:	48 8d 35 41 4c 00 00 	lea    0x4c41(%rip),%rsi        # 1bfbb <g_2129+0x2afb>
   1737a:	48 89 c7             	mov    %rax,%rdi
   1737d:	e8 71 f3 fe ff       	callq  66f3 <transparent_crc>
   17382:	8b 05 90 8e 00 00    	mov    0x8e90(%rip),%eax        # 20218 <g_1792+0x18>
   17388:	25 ff ff 07 00       	and    $0x7ffff,%eax
   1738d:	89 c1                	mov    %eax,%ecx
   1738f:	8b 45 fc             	mov    -0x4(%rbp),%eax
   17392:	89 c2                	mov    %eax,%edx
   17394:	48 8d 35 2a 4c 00 00 	lea    0x4c2a(%rip),%rsi        # 1bfc5 <g_2129+0x2b05>
   1739b:	48 89 cf             	mov    %rcx,%rdi
   1739e:	e8 50 f3 fe ff       	callq  66f3 <transparent_crc>
   173a3:	8b 05 73 8e 00 00    	mov    0x8e73(%rip),%eax        # 2021c <g_1792+0x1c>
   173a9:	25 ff ff ff 00       	and    $0xffffff,%eax
   173ae:	89 c1                	mov    %eax,%ecx
   173b0:	8b 45 fc             	mov    -0x4(%rbp),%eax
   173b3:	89 c2                	mov    %eax,%edx
   173b5:	48 8d 35 13 4c 00 00 	lea    0x4c13(%rip),%rsi        # 1bfcf <g_2129+0x2b0f>
   173bc:	48 89 cf             	mov    %rcx,%rdi
   173bf:	e8 2f f3 fe ff       	callq  66f3 <transparent_crc>
   173c4:	48 8b 05 55 8e 00 00 	mov    0x8e55(%rip),%rax        # 20220 <g_1811>
   173cb:	25 ff ff 07 00       	and    $0x7ffff,%eax
   173d0:	89 c1                	mov    %eax,%ecx
   173d2:	8b 45 fc             	mov    -0x4(%rbp),%eax
   173d5:	89 c2                	mov    %eax,%edx
   173d7:	48 8d 35 fb 4b 00 00 	lea    0x4bfb(%rip),%rsi        # 1bfd9 <g_2129+0x2b19>
   173de:	48 89 cf             	mov    %rcx,%rdi
   173e1:	e8 0d f3 fe ff       	callq  66f3 <transparent_crc>
   173e6:	48 8b 05 33 8e 00 00 	mov    0x8e33(%rip),%rax        # 20220 <g_1811>
   173ed:	48 c1 e0 10          	shl    $0x10,%rax
   173f1:	48 c1 f8 23          	sar    $0x23,%rax
   173f5:	48 98                	cltq   
   173f7:	8b 55 fc             	mov    -0x4(%rbp),%edx
   173fa:	48 8d 35 e2 4b 00 00 	lea    0x4be2(%rip),%rsi        # 1bfe3 <g_2129+0x2b23>
   17401:	48 89 c7             	mov    %rax,%rdi
   17404:	e8 ea f2 fe ff       	callq  66f3 <transparent_crc>
   17409:	48 8b 05 10 8e 00 00 	mov    0x8e10(%rip),%rax        # 20220 <g_1811>
   17410:	48 c1 e8 30          	shr    $0x30,%rax
   17414:	48 89 c2             	mov    %rax,%rdx
   17417:	48 8b 05 0a 8e 00 00 	mov    0x8e0a(%rip),%rax        # 20228 <g_1811+0x8>
   1741e:	25 ff 03 00 00       	and    $0x3ff,%eax
   17423:	48 c1 e0 10          	shl    $0x10,%rax
   17427:	48 09 d0             	or     %rdx,%rax
   1742a:	48 c1 e0 26          	shl    $0x26,%rax
   1742e:	48 c1 f8 26          	sar    $0x26,%rax
   17432:	48 98                	cltq   
   17434:	8b 55 fc             	mov    -0x4(%rbp),%edx
   17437:	48 8d 35 af 4b 00 00 	lea    0x4baf(%rip),%rsi        # 1bfed <g_2129+0x2b2d>
   1743e:	48 89 c7             	mov    %rax,%rdi
   17441:	e8 ad f2 fe ff       	callq  66f3 <transparent_crc>
   17446:	48 8b 05 db 8d 00 00 	mov    0x8ddb(%rip),%rax        # 20228 <g_1811+0x8>
   1744d:	48 c1 e0 08          	shl    $0x8,%rax
   17451:	48 c1 f8 28          	sar    $0x28,%rax
   17455:	48 98                	cltq   
   17457:	8b 55 fc             	mov    -0x4(%rbp),%edx
   1745a:	48 8d 35 96 4b 00 00 	lea    0x4b96(%rip),%rsi        # 1bff7 <g_2129+0x2b37>
   17461:	48 89 c7             	mov    %rax,%rdi
   17464:	e8 8a f2 fe ff       	callq  66f3 <transparent_crc>
   17469:	48 8b 05 b8 8d 00 00 	mov    0x8db8(%rip),%rax        # 20228 <g_1811+0x8>
   17470:	48 c1 e8 38          	shr    $0x38,%rax
   17474:	48 89 c2             	mov    %rax,%rdx
   17477:	48 8b 05 b2 8d 00 00 	mov    0x8db2(%rip),%rax        # 20230 <g_1811+0x10>
   1747e:	25 ff 07 00 00       	and    $0x7ff,%eax
   17483:	48 c1 e0 08          	shl    $0x8,%rax
   17487:	48 09 d0             	or     %rdx,%rax
   1748a:	48 c1 e0 2d          	shl    $0x2d,%rax
   1748e:	48 c1 f8 2d          	sar    $0x2d,%rax
   17492:	48 98                	cltq   
   17494:	8b 55 fc             	mov    -0x4(%rbp),%edx
   17497:	48 8d 35 63 4b 00 00 	lea    0x4b63(%rip),%rsi        # 1c001 <g_2129+0x2b41>
   1749e:	48 89 c7             	mov    %rax,%rdi
   174a1:	e8 4d f2 fe ff       	callq  66f3 <transparent_crc>
   174a6:	48 8b 05 83 8d 00 00 	mov    0x8d83(%rip),%rax        # 20230 <g_1811+0x10>
   174ad:	48 c1 e0 19          	shl    $0x19,%rax
   174b1:	48 c1 f8 24          	sar    $0x24,%rax
   174b5:	48 98                	cltq   
   174b7:	8b 55 fc             	mov    -0x4(%rbp),%edx
   174ba:	48 8d 35 4a 4b 00 00 	lea    0x4b4a(%rip),%rsi        # 1c00b <g_2129+0x2b4b>
   174c1:	48 89 c7             	mov    %rax,%rdi
   174c4:	e8 2a f2 fe ff       	callq  66f3 <transparent_crc>
   174c9:	48 8b 05 60 8d 00 00 	mov    0x8d60(%rip),%rax        # 20230 <g_1811+0x10>
   174d0:	48 c1 e8 27          	shr    $0x27,%rax
   174d4:	48 89 c2             	mov    %rax,%rdx
   174d7:	48 8b 05 5a 8d 00 00 	mov    0x8d5a(%rip),%rax        # 20238 <g_1811+0x18>
   174de:	83 e0 1f             	and    $0x1f,%eax
   174e1:	48 c1 e0 19          	shl    $0x19,%rax
   174e5:	48 09 d0             	or     %rdx,%rax
   174e8:	48 c1 e0 22          	shl    $0x22,%rax
   174ec:	48 c1 f8 22          	sar    $0x22,%rax
   174f0:	48 98                	cltq   
   174f2:	8b 55 fc             	mov    -0x4(%rbp),%edx
   174f5:	48 8d 35 19 4b 00 00 	lea    0x4b19(%rip),%rsi        # 1c015 <g_2129+0x2b55>
   174fc:	48 89 c7             	mov    %rax,%rdi
   174ff:	e8 ef f1 fe ff       	callq  66f3 <transparent_crc>
   17504:	48 8b 05 2d 8d 00 00 	mov    0x8d2d(%rip),%rax        # 20238 <g_1811+0x18>
   1750b:	48 c1 e8 05          	shr    $0x5,%rax
   1750f:	80 e4 ff             	and    $0xff,%ah
   17512:	0f b6 c0             	movzbl %al,%eax
   17515:	8b 55 fc             	mov    -0x4(%rbp),%edx
   17518:	48 8d 35 00 4b 00 00 	lea    0x4b00(%rip),%rsi        # 1c01f <g_2129+0x2b5f>
   1751f:	48 89 c7             	mov    %rax,%rdi
   17522:	e8 cc f1 fe ff       	callq  66f3 <transparent_crc>
   17527:	48 8b 05 0a 8d 00 00 	mov    0x8d0a(%rip),%rax        # 20238 <g_1811+0x18>
   1752e:	c1 e0 07             	shl    $0x7,%eax
   17531:	c1 f8 14             	sar    $0x14,%eax
   17534:	48 0f bf c0          	movswq %ax,%rax
   17538:	8b 55 fc             	mov    -0x4(%rbp),%edx
   1753b:	48 8d 35 e7 4a 00 00 	lea    0x4ae7(%rip),%rsi        # 1c029 <g_2129+0x2b69>
   17542:	48 89 c7             	mov    %rax,%rdi
   17545:	e8 a9 f1 fe ff       	callq  66f3 <transparent_crc>
   1754a:	48 8b 05 ef 8c 00 00 	mov    0x8cef(%rip),%rax        # 20240 <g_1820>
   17551:	83 e0 1f             	and    $0x1f,%eax
   17554:	0f b6 c0             	movzbl %al,%eax
   17557:	8b 55 fc             	mov    -0x4(%rbp),%edx
   1755a:	48 8d 35 d2 4a 00 00 	lea    0x4ad2(%rip),%rsi        # 1c033 <g_2129+0x2b73>
   17561:	48 89 c7             	mov    %rax,%rdi
   17564:	e8 8a f1 fe ff       	callq  66f3 <transparent_crc>
   17569:	8b 05 d5 8c 00 00    	mov    0x8cd5(%rip),%eax        # 20244 <g_1820+0x4>
   1756f:	48 98                	cltq   
   17571:	8b 55 fc             	mov    -0x4(%rbp),%edx
   17574:	48 8d 35 c2 4a 00 00 	lea    0x4ac2(%rip),%rsi        # 1c03d <g_2129+0x2b7d>
   1757b:	48 89 c7             	mov    %rax,%rdi
   1757e:	e8 70 f1 fe ff       	callq  66f3 <transparent_crc>
   17583:	48 8b 05 be 8c 00 00 	mov    0x8cbe(%rip),%rax        # 20248 <g_1820+0x8>
   1758a:	66 25 ff 3f          	and    $0x3fff,%ax
   1758e:	0f b7 c0             	movzwl %ax,%eax
   17591:	8b 55 fc             	mov    -0x4(%rbp),%edx
   17594:	48 8d 35 ac 4a 00 00 	lea    0x4aac(%rip),%rsi        # 1c047 <g_2129+0x2b87>
   1759b:	48 89 c7             	mov    %rax,%rdi
   1759e:	e8 50 f1 fe ff       	callq  66f3 <transparent_crc>
   175a3:	48 8b 05 9e 8c 00 00 	mov    0x8c9e(%rip),%rax        # 20248 <g_1820+0x8>
   175aa:	48 c1 e0 08          	shl    $0x8,%rax
   175ae:	48 c1 f8 28          	sar    $0x28,%rax
   175b2:	48 98                	cltq   
   175b4:	8b 55 fc             	mov    -0x4(%rbp),%edx
   175b7:	48 8d 35 93 4a 00 00 	lea    0x4a93(%rip),%rsi        # 1c051 <g_2129+0x2b91>
   175be:	48 89 c7             	mov    %rax,%rdi
   175c1:	e8 2d f1 fe ff       	callq  66f3 <transparent_crc>
   175c6:	48 8b 05 83 8c 00 00 	mov    0x8c83(%rip),%rax        # 20250 <g_1820+0x10>
   175cd:	c1 e0 03             	shl    $0x3,%eax
   175d0:	c1 f8 03             	sar    $0x3,%eax
   175d3:	48 98                	cltq   
   175d5:	8b 55 fc             	mov    -0x4(%rbp),%edx
   175d8:	48 8d 35 7c 4a 00 00 	lea    0x4a7c(%rip),%rsi        # 1c05b <g_2129+0x2b9b>
   175df:	48 89 c7             	mov    %rax,%rdi
   175e2:	e8 0c f1 fe ff       	callq  66f3 <transparent_crc>
   175e7:	48 8b 05 62 8c 00 00 	mov    0x8c62(%rip),%rax        # 20250 <g_1820+0x10>
   175ee:	48 c1 e8 20          	shr    $0x20,%rax
   175f2:	25 ff ff 1f 00       	and    $0x1fffff,%eax
   175f7:	89 c1                	mov    %eax,%ecx
   175f9:	8b 45 fc             	mov    -0x4(%rbp),%eax
   175fc:	89 c2                	mov    %eax,%edx
   175fe:	48 8d 35 60 4a 00 00 	lea    0x4a60(%rip),%rsi        # 1c065 <g_2129+0x2ba5>
   17605:	48 89 cf             	mov    %rcx,%rdi
   17608:	e8 e6 f0 fe ff       	callq  66f3 <transparent_crc>
   1760d:	48 8b 05 3c 8c 00 00 	mov    0x8c3c(%rip),%rax        # 20250 <g_1820+0x10>
   17614:	48 c1 e0 09          	shl    $0x9,%rax
   17618:	48 c1 f8 3e          	sar    $0x3e,%rax
   1761c:	48 0f be c0          	movsbq %al,%rax
   17620:	8b 55 fc             	mov    -0x4(%rbp),%edx
   17623:	48 8d 35 45 4a 00 00 	lea    0x4a45(%rip),%rsi        # 1c06f <g_2129+0x2baf>
   1762a:	48 89 c7             	mov    %rax,%rdi
   1762d:	e8 c1 f0 fe ff       	callq  66f3 <transparent_crc>
   17632:	48 8b 05 1f 8c 00 00 	mov    0x8c1f(%rip),%rax        # 20258 <g_1820+0x18>
   17639:	25 ff ff 07 00       	and    $0x7ffff,%eax
   1763e:	89 c1                	mov    %eax,%ecx
   17640:	8b 45 fc             	mov    -0x4(%rbp),%eax
   17643:	89 c2                	mov    %eax,%edx
   17645:	48 8d 35 2d 4a 00 00 	lea    0x4a2d(%rip),%rsi        # 1c079 <g_2129+0x2bb9>
   1764c:	48 89 cf             	mov    %rcx,%rdi
   1764f:	e8 9f f0 fe ff       	callq  66f3 <transparent_crc>
   17654:	48 8b 05 fd 8b 00 00 	mov    0x8bfd(%rip),%rax        # 20258 <g_1820+0x18>
   1765b:	48 c1 e8 20          	shr    $0x20,%rax
   1765f:	25 ff ff ff 00       	and    $0xffffff,%eax
   17664:	89 c1                	mov    %eax,%ecx
   17666:	8b 45 fc             	mov    -0x4(%rbp),%eax
   17669:	89 c2                	mov    %eax,%edx
   1766b:	48 8d 35 11 4a 00 00 	lea    0x4a11(%rip),%rsi        # 1c083 <g_2129+0x2bc3>
   17672:	48 89 cf             	mov    %rcx,%rdi
   17675:	e8 79 f0 fe ff       	callq  66f3 <transparent_crc>
   1767a:	8b 05 e0 8b 00 00    	mov    0x8be0(%rip),%eax        # 20260 <g_1827>
   17680:	89 c1                	mov    %eax,%ecx
   17682:	8b 45 fc             	mov    -0x4(%rbp),%eax
   17685:	89 c2                	mov    %eax,%edx
   17687:	48 8d 35 ff 49 00 00 	lea    0x49ff(%rip),%rsi        # 1c08d <g_2129+0x2bcd>
   1768e:	48 89 cf             	mov    %rcx,%rdi
   17691:	e8 5d f0 fe ff       	callq  66f3 <transparent_crc>
   17696:	48 8b 05 63 1a 00 00 	mov    0x1a63(%rip),%rax        # 19100 <g_1828>
   1769d:	25 ff ff 07 00       	and    $0x7ffff,%eax
   176a2:	89 c1                	mov    %eax,%ecx
   176a4:	8b 45 fc             	mov    -0x4(%rbp),%eax
   176a7:	89 c2                	mov    %eax,%edx
   176a9:	48 8d 35 e4 49 00 00 	lea    0x49e4(%rip),%rsi        # 1c094 <g_2129+0x2bd4>
   176b0:	48 89 cf             	mov    %rcx,%rdi
   176b3:	e8 3b f0 fe ff       	callq  66f3 <transparent_crc>
   176b8:	b8 b1 fc ff ff       	mov    $0xfffffcb1,%eax
   176bd:	48 98                	cltq   
   176bf:	8b 55 fc             	mov    -0x4(%rbp),%edx
   176c2:	48 8d 35 d5 49 00 00 	lea    0x49d5(%rip),%rsi        # 1c09e <g_2129+0x2bde>
   176c9:	48 89 c7             	mov    %rax,%rdi
   176cc:	e8 22 f0 fe ff       	callq  66f3 <transparent_crc>
   176d1:	b8 7a f7 ff ff       	mov    $0xfffff77a,%eax
   176d6:	48 98                	cltq   
   176d8:	8b 55 fc             	mov    -0x4(%rbp),%edx
   176db:	48 8d 35 c6 49 00 00 	lea    0x49c6(%rip),%rsi        # 1c0a8 <g_2129+0x2be8>
   176e2:	48 89 c7             	mov    %rax,%rdi
   176e5:	e8 09 f0 fe ff       	callq  66f3 <transparent_crc>
   176ea:	b8 ce fd ff ff       	mov    $0xfffffdce,%eax
   176ef:	48 98                	cltq   
   176f1:	8b 55 fc             	mov    -0x4(%rbp),%edx
   176f4:	48 8d 35 b7 49 00 00 	lea    0x49b7(%rip),%rsi        # 1c0b2 <g_2129+0x2bf2>
   176fb:	48 89 c7             	mov    %rax,%rdi
   176fe:	e8 f0 ef fe ff       	callq  66f3 <transparent_crc>
   17703:	b8 33 ff ff ff       	mov    $0xffffff33,%eax
   17708:	48 98                	cltq   
   1770a:	8b 55 fc             	mov    -0x4(%rbp),%edx
   1770d:	48 8d 35 a8 49 00 00 	lea    0x49a8(%rip),%rsi        # 1c0bc <g_2129+0x2bfc>
   17714:	48 89 c7             	mov    %rax,%rdi
   17717:	e8 d7 ef fe ff       	callq  66f3 <transparent_crc>
   1771c:	48 8b 05 ed 19 00 00 	mov    0x19ed(%rip),%rax        # 19110 <g_1828+0x10>
   17723:	48 c1 e0 19          	shl    $0x19,%rax
   17727:	48 c1 f8 24          	sar    $0x24,%rax
   1772b:	48 98                	cltq   
   1772d:	8b 55 fc             	mov    -0x4(%rbp),%edx
   17730:	48 8d 35 8f 49 00 00 	lea    0x498f(%rip),%rsi        # 1c0c6 <g_2129+0x2c06>
   17737:	48 89 c7             	mov    %rax,%rdi
   1773a:	e8 b4 ef fe ff       	callq  66f3 <transparent_crc>
   1773f:	b8 91 c2 ff ff       	mov    $0xffffc291,%eax
   17744:	48 98                	cltq   
   17746:	8b 55 fc             	mov    -0x4(%rbp),%edx
   17749:	48 8d 35 80 49 00 00 	lea    0x4980(%rip),%rsi        # 1c0d0 <g_2129+0x2c10>
   17750:	48 89 c7             	mov    %rax,%rdi
   17753:	e8 9b ef fe ff       	callq  66f3 <transparent_crc>
   17758:	b8 0a 00 00 00       	mov    $0xa,%eax
   1775d:	0f b6 c0             	movzbl %al,%eax
   17760:	8b 55 fc             	mov    -0x4(%rbp),%edx
   17763:	48 8d 35 70 49 00 00 	lea    0x4970(%rip),%rsi        # 1c0da <g_2129+0x2c1a>
   1776a:	48 89 c7             	mov    %rax,%rdi
   1776d:	e8 81 ef fe ff       	callq  66f3 <transparent_crc>
   17772:	48 8b 05 9f 19 00 00 	mov    0x199f(%rip),%rax        # 19118 <g_1828+0x18>
   17779:	c1 e0 07             	shl    $0x7,%eax
   1777c:	c1 f8 14             	sar    $0x14,%eax
   1777f:	48 0f bf c0          	movswq %ax,%rax
   17783:	8b 55 fc             	mov    -0x4(%rbp),%edx
   17786:	48 8d 35 57 49 00 00 	lea    0x4957(%rip),%rsi        # 1c0e4 <g_2129+0x2c24>
   1778d:	48 89 c7             	mov    %rax,%rdi
   17790:	e8 5e ef fe ff       	callq  66f3 <transparent_crc>
   17795:	48 8b 05 cc 8a 00 00 	mov    0x8acc(%rip),%rax        # 20268 <g_1877>
   1779c:	48 89 c1             	mov    %rax,%rcx
   1779f:	8b 45 fc             	mov    -0x4(%rbp),%eax
   177a2:	89 c2                	mov    %eax,%edx
   177a4:	48 8d 35 43 49 00 00 	lea    0x4943(%rip),%rsi        # 1c0ee <g_2129+0x2c2e>
   177ab:	48 89 cf             	mov    %rcx,%rdi
   177ae:	e8 40 ef fe ff       	callq  66f3 <transparent_crc>
   177b3:	48 8b 05 66 19 00 00 	mov    0x1966(%rip),%rax        # 19120 <g_1880>
   177ba:	25 ff ff 07 00       	and    $0x7ffff,%eax
   177bf:	89 c1                	mov    %eax,%ecx
   177c1:	8b 45 fc             	mov    -0x4(%rbp),%eax
   177c4:	89 c2                	mov    %eax,%edx
   177c6:	48 8d 35 28 49 00 00 	lea    0x4928(%rip),%rsi        # 1c0f5 <g_2129+0x2c35>
   177cd:	48 89 cf             	mov    %rcx,%rdi
   177d0:	e8 1e ef fe ff       	callq  66f3 <transparent_crc>
   177d5:	b8 80 f3 ff ff       	mov    $0xfffff380,%eax
   177da:	48 98                	cltq   
   177dc:	8b 55 fc             	mov    -0x4(%rbp),%edx
   177df:	48 8d 35 19 49 00 00 	lea    0x4919(%rip),%rsi        # 1c0ff <g_2129+0x2c3f>
   177e6:	48 89 c7             	mov    %rax,%rdi
   177e9:	e8 05 ef fe ff       	callq  66f3 <transparent_crc>
   177ee:	b8 7d e7 ff ff       	mov    $0xffffe77d,%eax
   177f3:	48 98                	cltq   
   177f5:	8b 55 fc             	mov    -0x4(%rbp),%edx
   177f8:	48 8d 35 0a 49 00 00 	lea    0x490a(%rip),%rsi        # 1c109 <g_2129+0x2c49>
   177ff:	48 89 c7             	mov    %rax,%rdi
   17802:	e8 ec ee fe ff       	callq  66f3 <transparent_crc>
   17807:	b8 b5 fa ff ff       	mov    $0xfffffab5,%eax
   1780c:	48 98                	cltq   
   1780e:	8b 55 fc             	mov    -0x4(%rbp),%edx
   17811:	48 8d 35 fb 48 00 00 	lea    0x48fb(%rip),%rsi        # 1c113 <g_2129+0x2c53>
   17818:	48 89 c7             	mov    %rax,%rdi
   1781b:	e8 d3 ee fe ff       	callq  66f3 <transparent_crc>
   17820:	b8 90 00 00 00       	mov    $0x90,%eax
   17825:	48 98                	cltq   
   17827:	8b 55 fc             	mov    -0x4(%rbp),%edx
   1782a:	48 8d 35 ec 48 00 00 	lea    0x48ec(%rip),%rsi        # 1c11d <g_2129+0x2c5d>
   17831:	48 89 c7             	mov    %rax,%rdi
   17834:	e8 ba ee fe ff       	callq  66f3 <transparent_crc>
   17839:	48 8b 05 f0 18 00 00 	mov    0x18f0(%rip),%rax        # 19130 <g_1880+0x10>
   17840:	48 c1 e0 19          	shl    $0x19,%rax
   17844:	48 c1 f8 24          	sar    $0x24,%rax
   17848:	48 98                	cltq   
   1784a:	8b 55 fc             	mov    -0x4(%rbp),%edx
   1784d:	48 8d 35 d3 48 00 00 	lea    0x48d3(%rip),%rsi        # 1c127 <g_2129+0x2c67>
   17854:	48 89 c7             	mov    %rax,%rdi
   17857:	e8 97 ee fe ff       	callq  66f3 <transparent_crc>
   1785c:	b8 5c e0 ff ff       	mov    $0xffffe05c,%eax
   17861:	48 98                	cltq   
   17863:	8b 55 fc             	mov    -0x4(%rbp),%edx
   17866:	48 8d 35 c4 48 00 00 	lea    0x48c4(%rip),%rsi        # 1c131 <g_2129+0x2c71>
   1786d:	48 89 c7             	mov    %rax,%rdi
   17870:	e8 7e ee fe ff       	callq  66f3 <transparent_crc>
   17875:	b8 03 00 00 00       	mov    $0x3,%eax
   1787a:	0f b6 c0             	movzbl %al,%eax
   1787d:	8b 55 fc             	mov    -0x4(%rbp),%edx
   17880:	48 8d 35 b4 48 00 00 	lea    0x48b4(%rip),%rsi        # 1c13b <g_2129+0x2c7b>
   17887:	48 89 c7             	mov    %rax,%rdi
   1788a:	e8 64 ee fe ff       	callq  66f3 <transparent_crc>
   1788f:	48 8b 05 a2 18 00 00 	mov    0x18a2(%rip),%rax        # 19138 <g_1880+0x18>
   17896:	c1 e0 07             	shl    $0x7,%eax
   17899:	c1 f8 14             	sar    $0x14,%eax
   1789c:	48 0f bf c0          	movswq %ax,%rax
   178a0:	8b 55 fc             	mov    -0x4(%rbp),%edx
   178a3:	48 8d 35 9b 48 00 00 	lea    0x489b(%rip),%rsi        # 1c145 <g_2129+0x2c85>
   178aa:	48 89 c7             	mov    %rax,%rdi
   178ad:	e8 41 ee fe ff       	callq  66f3 <transparent_crc>
   178b2:	48 8b 05 87 18 00 00 	mov    0x1887(%rip),%rax        # 19140 <g_1881>
   178b9:	25 ff ff 07 00       	and    $0x7ffff,%eax
   178be:	89 c1                	mov    %eax,%ecx
   178c0:	8b 45 fc             	mov    -0x4(%rbp),%eax
   178c3:	89 c2                	mov    %eax,%edx
   178c5:	48 8d 35 83 48 00 00 	lea    0x4883(%rip),%rsi        # 1c14f <g_2129+0x2c8f>
   178cc:	48 89 cf             	mov    %rcx,%rdi
   178cf:	e8 1f ee fe ff       	callq  66f3 <transparent_crc>
   178d4:	b8 60 b7 ff ff       	mov    $0xffffb760,%eax
   178d9:	48 98                	cltq   
   178db:	8b 55 fc             	mov    -0x4(%rbp),%edx
   178de:	48 8d 35 74 48 00 00 	lea    0x4874(%rip),%rsi        # 1c159 <g_2129+0x2c99>
   178e5:	48 89 c7             	mov    %rax,%rdi
   178e8:	e8 06 ee fe ff       	callq  66f3 <transparent_crc>
   178ed:	b8 d9 fe ff ff       	mov    $0xfffffed9,%eax
   178f2:	48 98                	cltq   
   178f4:	8b 55 fc             	mov    -0x4(%rbp),%edx
   178f7:	48 8d 35 65 48 00 00 	lea    0x4865(%rip),%rsi        # 1c163 <g_2129+0x2ca3>
   178fe:	48 89 c7             	mov    %rax,%rdi
   17901:	e8 ed ed fe ff       	callq  66f3 <transparent_crc>
   17906:	b8 42 0f 00 00       	mov    $0xf42,%eax
   1790b:	48 98                	cltq   
   1790d:	8b 55 fc             	mov    -0x4(%rbp),%edx
   17910:	48 8d 35 56 48 00 00 	lea    0x4856(%rip),%rsi        # 1c16d <g_2129+0x2cad>
   17917:	48 89 c7             	mov    %rax,%rdi
   1791a:	e8 d4 ed fe ff       	callq  66f3 <transparent_crc>
   1791f:	b8 42 fd ff ff       	mov    $0xfffffd42,%eax
   17924:	48 98                	cltq   
   17926:	8b 55 fc             	mov    -0x4(%rbp),%edx
   17929:	48 8d 35 47 48 00 00 	lea    0x4847(%rip),%rsi        # 1c177 <g_2129+0x2cb7>
   17930:	48 89 c7             	mov    %rax,%rdi
   17933:	e8 bb ed fe ff       	callq  66f3 <transparent_crc>
   17938:	48 8b 05 11 18 00 00 	mov    0x1811(%rip),%rax        # 19150 <g_1881+0x10>
   1793f:	48 c1 e0 19          	shl    $0x19,%rax
   17943:	48 c1 f8 24          	sar    $0x24,%rax
   17947:	48 98                	cltq   
   17949:	8b 55 fc             	mov    -0x4(%rbp),%edx
   1794c:	48 8d 35 2e 48 00 00 	lea    0x482e(%rip),%rsi        # 1c181 <g_2129+0x2cc1>
   17953:	48 89 c7             	mov    %rax,%rdi
   17956:	e8 98 ed fe ff       	callq  66f3 <transparent_crc>
   1795b:	b8 86 51 00 00       	mov    $0x5186,%eax
   17960:	48 98                	cltq   
   17962:	8b 55 fc             	mov    -0x4(%rbp),%edx
   17965:	48 8d 35 1f 48 00 00 	lea    0x481f(%rip),%rsi        # 1c18b <g_2129+0x2ccb>
   1796c:	48 89 c7             	mov    %rax,%rdi
   1796f:	e8 7f ed fe ff       	callq  66f3 <transparent_crc>
   17974:	b8 0e 00 00 00       	mov    $0xe,%eax
   17979:	0f b6 c0             	movzbl %al,%eax
   1797c:	8b 55 fc             	mov    -0x4(%rbp),%edx
   1797f:	48 8d 35 0f 48 00 00 	lea    0x480f(%rip),%rsi        # 1c195 <g_2129+0x2cd5>
   17986:	48 89 c7             	mov    %rax,%rdi
   17989:	e8 65 ed fe ff       	callq  66f3 <transparent_crc>
   1798e:	48 8b 05 c3 17 00 00 	mov    0x17c3(%rip),%rax        # 19158 <g_1881+0x18>
   17995:	c1 e0 07             	shl    $0x7,%eax
   17998:	c1 f8 14             	sar    $0x14,%eax
   1799b:	48 0f bf c0          	movswq %ax,%rax
   1799f:	8b 55 fc             	mov    -0x4(%rbp),%edx
   179a2:	48 8d 35 f6 47 00 00 	lea    0x47f6(%rip),%rsi        # 1c19f <g_2129+0x2cdf>
   179a9:	48 89 c7             	mov    %rax,%rdi
   179ac:	e8 42 ed fe ff       	callq  66f3 <transparent_crc>
   179b1:	48 8b 05 b8 88 00 00 	mov    0x88b8(%rip),%rax        # 20270 <g_1945>
   179b8:	25 ff ff 07 00       	and    $0x7ffff,%eax
   179bd:	89 c1                	mov    %eax,%ecx
   179bf:	8b 45 fc             	mov    -0x4(%rbp),%eax
   179c2:	89 c2                	mov    %eax,%edx
   179c4:	48 8d 35 de 47 00 00 	lea    0x47de(%rip),%rsi        # 1c1a9 <g_2129+0x2ce9>
   179cb:	48 89 cf             	mov    %rcx,%rdi
   179ce:	e8 20 ed fe ff       	callq  66f3 <transparent_crc>
   179d3:	48 8b 05 96 88 00 00 	mov    0x8896(%rip),%rax        # 20270 <g_1945>
   179da:	48 c1 e0 10          	shl    $0x10,%rax
   179de:	48 c1 f8 23          	sar    $0x23,%rax
   179e2:	48 98                	cltq   
   179e4:	8b 55 fc             	mov    -0x4(%rbp),%edx
   179e7:	48 8d 35 c5 47 00 00 	lea    0x47c5(%rip),%rsi        # 1c1b3 <g_2129+0x2cf3>
   179ee:	48 89 c7             	mov    %rax,%rdi
   179f1:	e8 fd ec fe ff       	callq  66f3 <transparent_crc>
   179f6:	48 8b 05 73 88 00 00 	mov    0x8873(%rip),%rax        # 20270 <g_1945>
   179fd:	48 c1 e8 30          	shr    $0x30,%rax
   17a01:	48 89 c2             	mov    %rax,%rdx
   17a04:	48 8b 05 6d 88 00 00 	mov    0x886d(%rip),%rax        # 20278 <g_1945+0x8>
   17a0b:	25 ff 03 00 00       	and    $0x3ff,%eax
   17a10:	48 c1 e0 10          	shl    $0x10,%rax
   17a14:	48 09 d0             	or     %rdx,%rax
   17a17:	48 c1 e0 26          	shl    $0x26,%rax
   17a1b:	48 c1 f8 26          	sar    $0x26,%rax
   17a1f:	48 98                	cltq   
   17a21:	8b 55 fc             	mov    -0x4(%rbp),%edx
   17a24:	48 8d 35 92 47 00 00 	lea    0x4792(%rip),%rsi        # 1c1bd <g_2129+0x2cfd>
   17a2b:	48 89 c7             	mov    %rax,%rdi
   17a2e:	e8 c0 ec fe ff       	callq  66f3 <transparent_crc>
   17a33:	48 8b 05 3e 88 00 00 	mov    0x883e(%rip),%rax        # 20278 <g_1945+0x8>
   17a3a:	48 c1 e0 08          	shl    $0x8,%rax
   17a3e:	48 c1 f8 28          	sar    $0x28,%rax
   17a42:	48 98                	cltq   
   17a44:	8b 55 fc             	mov    -0x4(%rbp),%edx
   17a47:	48 8d 35 79 47 00 00 	lea    0x4779(%rip),%rsi        # 1c1c7 <g_2129+0x2d07>
   17a4e:	48 89 c7             	mov    %rax,%rdi
   17a51:	e8 9d ec fe ff       	callq  66f3 <transparent_crc>
   17a56:	48 8b 05 1b 88 00 00 	mov    0x881b(%rip),%rax        # 20278 <g_1945+0x8>
   17a5d:	48 c1 e8 38          	shr    $0x38,%rax
   17a61:	48 89 c2             	mov    %rax,%rdx
   17a64:	48 8b 05 15 88 00 00 	mov    0x8815(%rip),%rax        # 20280 <g_1945+0x10>
   17a6b:	25 ff 07 00 00       	and    $0x7ff,%eax
   17a70:	48 c1 e0 08          	shl    $0x8,%rax
   17a74:	48 09 d0             	or     %rdx,%rax
   17a77:	48 c1 e0 2d          	shl    $0x2d,%rax
   17a7b:	48 c1 f8 2d          	sar    $0x2d,%rax
   17a7f:	48 98                	cltq   
   17a81:	8b 55 fc             	mov    -0x4(%rbp),%edx
   17a84:	48 8d 35 46 47 00 00 	lea    0x4746(%rip),%rsi        # 1c1d1 <g_2129+0x2d11>
   17a8b:	48 89 c7             	mov    %rax,%rdi
   17a8e:	e8 60 ec fe ff       	callq  66f3 <transparent_crc>
   17a93:	48 8b 05 e6 87 00 00 	mov    0x87e6(%rip),%rax        # 20280 <g_1945+0x10>
   17a9a:	48 c1 e0 19          	shl    $0x19,%rax
   17a9e:	48 c1 f8 24          	sar    $0x24,%rax
   17aa2:	48 98                	cltq   
   17aa4:	8b 55 fc             	mov    -0x4(%rbp),%edx
   17aa7:	48 8d 35 2d 47 00 00 	lea    0x472d(%rip),%rsi        # 1c1db <g_2129+0x2d1b>
   17aae:	48 89 c7             	mov    %rax,%rdi
   17ab1:	e8 3d ec fe ff       	callq  66f3 <transparent_crc>
   17ab6:	48 8b 05 c3 87 00 00 	mov    0x87c3(%rip),%rax        # 20280 <g_1945+0x10>
   17abd:	48 c1 e8 27          	shr    $0x27,%rax
   17ac1:	48 89 c2             	mov    %rax,%rdx
   17ac4:	48 8b 05 bd 87 00 00 	mov    0x87bd(%rip),%rax        # 20288 <g_1945+0x18>
   17acb:	83 e0 1f             	and    $0x1f,%eax
   17ace:	48 c1 e0 19          	shl    $0x19,%rax
   17ad2:	48 09 d0             	or     %rdx,%rax
   17ad5:	48 c1 e0 22          	shl    $0x22,%rax
   17ad9:	48 c1 f8 22          	sar    $0x22,%rax
   17add:	48 98                	cltq   
   17adf:	8b 55 fc             	mov    -0x4(%rbp),%edx
   17ae2:	48 8d 35 fc 46 00 00 	lea    0x46fc(%rip),%rsi        # 1c1e5 <g_2129+0x2d25>
   17ae9:	48 89 c7             	mov    %rax,%rdi
   17aec:	e8 02 ec fe ff       	callq  66f3 <transparent_crc>
   17af1:	48 8b 05 90 87 00 00 	mov    0x8790(%rip),%rax        # 20288 <g_1945+0x18>
   17af8:	48 c1 e8 05          	shr    $0x5,%rax
   17afc:	80 e4 ff             	and    $0xff,%ah
   17aff:	0f b6 c0             	movzbl %al,%eax
   17b02:	8b 55 fc             	mov    -0x4(%rbp),%edx
   17b05:	48 8d 35 e3 46 00 00 	lea    0x46e3(%rip),%rsi        # 1c1ef <g_2129+0x2d2f>
   17b0c:	48 89 c7             	mov    %rax,%rdi
   17b0f:	e8 df eb fe ff       	callq  66f3 <transparent_crc>
   17b14:	48 8b 05 6d 87 00 00 	mov    0x876d(%rip),%rax        # 20288 <g_1945+0x18>
   17b1b:	c1 e0 07             	shl    $0x7,%eax
   17b1e:	c1 f8 14             	sar    $0x14,%eax
   17b21:	48 0f bf c0          	movswq %ax,%rax
   17b25:	8b 55 fc             	mov    -0x4(%rbp),%edx
   17b28:	48 8d 35 ca 46 00 00 	lea    0x46ca(%rip),%rsi        # 1c1f9 <g_2129+0x2d39>
   17b2f:	48 89 c7             	mov    %rax,%rdi
   17b32:	e8 bc eb fe ff       	callq  66f3 <transparent_crc>
   17b37:	c7 45 f0 00 00 00 00 	movl   $0x0,-0x10(%rbp)
   17b3e:	e9 fe 03 00 00       	jmpq   17f41 <main+0x3d78>
   17b43:	c7 45 f4 00 00 00 00 	movl   $0x0,-0xc(%rbp)
   17b4a:	e9 e4 03 00 00       	jmpq   17f33 <main+0x3d6a>
   17b4f:	8b 45 f4             	mov    -0xc(%rbp),%eax
   17b52:	48 98                	cltq   
   17b54:	8b 55 f0             	mov    -0x10(%rbp),%edx
   17b57:	48 63 ca             	movslq %edx,%rcx
   17b5a:	48 89 c2             	mov    %rax,%rdx
   17b5d:	48 c1 e2 03          	shl    $0x3,%rdx
   17b61:	48 29 c2             	sub    %rax,%rdx
   17b64:	48 8d 04 95 00 00 00 	lea    0x0(,%rdx,4),%rax
   17b6b:	00 
   17b6c:	48 89 c2             	mov    %rax,%rdx
   17b6f:	48 89 c8             	mov    %rcx,%rax
   17b72:	48 c1 e0 02          	shl    $0x2,%rax
   17b76:	48 01 c8             	add    %rcx,%rax
   17b79:	48 c1 e0 02          	shl    $0x2,%rax
   17b7d:	48 01 c8             	add    %rcx,%rax
   17b80:	48 c1 e0 03          	shl    $0x3,%rax
   17b84:	48 01 c2             	add    %rax,%rdx
   17b87:	48 8d 05 d2 15 00 00 	lea    0x15d2(%rip),%rax        # 19160 <g_1954>
   17b8e:	48 01 d0             	add    %rdx,%rax
   17b91:	8b 00                	mov    (%rax),%eax
   17b93:	25 ff ff 07 00       	and    $0x7ffff,%eax
   17b98:	89 c1                	mov    %eax,%ecx
   17b9a:	8b 45 fc             	mov    -0x4(%rbp),%eax
   17b9d:	89 c2                	mov    %eax,%edx
   17b9f:	48 8d 35 5d 46 00 00 	lea    0x465d(%rip),%rsi        # 1c203 <g_2129+0x2d43>
   17ba6:	48 89 cf             	mov    %rcx,%rdi
   17ba9:	e8 45 eb fe ff       	callq  66f3 <transparent_crc>
   17bae:	8b 45 f4             	mov    -0xc(%rbp),%eax
   17bb1:	48 98                	cltq   
   17bb3:	8b 55 f0             	mov    -0x10(%rbp),%edx
   17bb6:	48 63 ca             	movslq %edx,%rcx
   17bb9:	48 89 c2             	mov    %rax,%rdx
   17bbc:	48 c1 e2 03          	shl    $0x3,%rdx
   17bc0:	48 29 c2             	sub    %rax,%rdx
   17bc3:	48 8d 04 95 00 00 00 	lea    0x0(,%rdx,4),%rax
   17bca:	00 
   17bcb:	48 89 c2             	mov    %rax,%rdx
   17bce:	48 89 c8             	mov    %rcx,%rax
   17bd1:	48 c1 e0 02          	shl    $0x2,%rax
   17bd5:	48 01 c8             	add    %rcx,%rax
   17bd8:	48 c1 e0 02          	shl    $0x2,%rax
   17bdc:	48 01 c8             	add    %rcx,%rax
   17bdf:	48 c1 e0 03          	shl    $0x3,%rax
   17be3:	48 01 c2             	add    %rax,%rdx
   17be6:	48 8d 05 73 15 00 00 	lea    0x1573(%rip),%rax        # 19160 <g_1954>
   17bed:	48 01 d0             	add    %rdx,%rax
   17bf0:	0f b7 50 02          	movzwl 0x2(%rax),%edx
   17bf4:	66 c1 ea 03          	shr    $0x3,%dx
   17bf8:	0f b7 d2             	movzwl %dx,%edx
   17bfb:	0f b7 40 04          	movzwl 0x4(%rax),%eax
   17bff:	48 c1 e0 0d          	shl    $0xd,%rax
   17c03:	48 09 d0             	or     %rdx,%rax
   17c06:	48 c1 e0 23          	shl    $0x23,%rax
   17c0a:	48 c1 f8 23          	sar    $0x23,%rax
   17c0e:	48 98                	cltq   
   17c10:	8b 55 fc             	mov    -0x4(%rbp),%edx
   17c13:	48 8d 35 f9 45 00 00 	lea    0x45f9(%rip),%rsi        # 1c213 <g_2129+0x2d53>
   17c1a:	48 89 c7             	mov    %rax,%rdi
   17c1d:	e8 d1 ea fe ff       	callq  66f3 <transparent_crc>
   17c22:	8b 45 f4             	mov    -0xc(%rbp),%eax
   17c25:	48 98                	cltq   
   17c27:	8b 55 f0             	mov    -0x10(%rbp),%edx
   17c2a:	48 63 ca             	movslq %edx,%rcx
   17c2d:	48 89 c2             	mov    %rax,%rdx
   17c30:	48 c1 e2 03          	shl    $0x3,%rdx
   17c34:	48 29 c2             	sub    %rax,%rdx
   17c37:	48 8d 04 95 00 00 00 	lea    0x0(,%rdx,4),%rax
   17c3e:	00 
   17c3f:	48 89 c2             	mov    %rax,%rdx
   17c42:	48 89 c8             	mov    %rcx,%rax
   17c45:	48 c1 e0 02          	shl    $0x2,%rax
   17c49:	48 01 c8             	add    %rcx,%rax
   17c4c:	48 c1 e0 02          	shl    $0x2,%rax
   17c50:	48 01 c8             	add    %rcx,%rax
   17c53:	48 c1 e0 03          	shl    $0x3,%rax
   17c57:	48 01 c2             	add    %rax,%rdx
   17c5a:	48 8d 05 ff 14 00 00 	lea    0x14ff(%rip),%rax        # 19160 <g_1954>
   17c61:	48 01 d0             	add    %rdx,%rax
   17c64:	0f b7 50 06          	movzwl 0x6(%rax),%edx
   17c68:	0f b7 40 08          	movzwl 0x8(%rax),%eax
   17c6c:	25 ff 03 00 00       	and    $0x3ff,%eax
   17c71:	48 c1 e0 10          	shl    $0x10,%rax
   17c75:	48 09 d0             	or     %rdx,%rax
   17c78:	48 c1 e0 26          	shl    $0x26,%rax
   17c7c:	48 c1 f8 26          	sar    $0x26,%rax
   17c80:	48 98                	cltq   
   17c82:	8b 55 fc             	mov    -0x4(%rbp),%edx
   17c85:	48 8d 35 97 45 00 00 	lea    0x4597(%rip),%rsi        # 1c223 <g_2129+0x2d63>
   17c8c:	48 89 c7             	mov    %rax,%rdi
   17c8f:	e8 5f ea fe ff       	callq  66f3 <transparent_crc>
   17c94:	8b 45 f4             	mov    -0xc(%rbp),%eax
   17c97:	48 98                	cltq   
   17c99:	8b 55 f0             	mov    -0x10(%rbp),%edx
   17c9c:	48 63 ca             	movslq %edx,%rcx
   17c9f:	48 89 c2             	mov    %rax,%rdx
   17ca2:	48 c1 e2 03          	shl    $0x3,%rdx
   17ca6:	48 29 c2             	sub    %rax,%rdx
   17ca9:	48 8d 04 95 00 00 00 	lea    0x0(,%rdx,4),%rax
   17cb0:	00 
   17cb1:	48 89 c2             	mov    %rax,%rdx
   17cb4:	48 89 c8             	mov    %rcx,%rax
   17cb7:	48 c1 e0 02          	shl    $0x2,%rax
   17cbb:	48 01 c8             	add    %rcx,%rax
   17cbe:	48 c1 e0 02          	shl    $0x2,%rax
   17cc2:	48 01 c8             	add    %rcx,%rax
   17cc5:	48 c1 e0 03          	shl    $0x3,%rax
   17cc9:	48 01 c2             	add    %rax,%rdx
   17ccc:	48 8d 05 8d 14 00 00 	lea    0x148d(%rip),%rax        # 19160 <g_1954>
   17cd3:	48 01 d0             	add    %rdx,%rax
   17cd6:	8b 40 0c             	mov    0xc(%rax),%eax
   17cd9:	c1 e0 08             	shl    $0x8,%eax
   17cdc:	c1 f8 08             	sar    $0x8,%eax
   17cdf:	48 98                	cltq   
   17ce1:	8b 55 fc             	mov    -0x4(%rbp),%edx
   17ce4:	48 8d 35 48 45 00 00 	lea    0x4548(%rip),%rsi        # 1c233 <g_2129+0x2d73>
   17ceb:	48 89 c7             	mov    %rax,%rdi
   17cee:	e8 00 ea fe ff       	callq  66f3 <transparent_crc>
   17cf3:	8b 45 f4             	mov    -0xc(%rbp),%eax
   17cf6:	48 98                	cltq   
   17cf8:	8b 55 f0             	mov    -0x10(%rbp),%edx
   17cfb:	48 63 ca             	movslq %edx,%rcx
   17cfe:	48 89 c2             	mov    %rax,%rdx
   17d01:	48 c1 e2 03          	shl    $0x3,%rdx
   17d05:	48 29 c2             	sub    %rax,%rdx
   17d08:	48 8d 04 95 00 00 00 	lea    0x0(,%rdx,4),%rax
   17d0f:	00 
   17d10:	48 89 c2             	mov    %rax,%rdx
   17d13:	48 89 c8             	mov    %rcx,%rax
   17d16:	48 c1 e0 02          	shl    $0x2,%rax
   17d1a:	48 01 c8             	add    %rcx,%rax
   17d1d:	48 c1 e0 02          	shl    $0x2,%rax
   17d21:	48 01 c8             	add    %rcx,%rax
   17d24:	48 c1 e0 03          	shl    $0x3,%rax
   17d28:	48 01 c2             	add    %rax,%rdx
   17d2b:	48 8d 05 2e 14 00 00 	lea    0x142e(%rip),%rax        # 19160 <g_1954>
   17d32:	48 01 d0             	add    %rdx,%rax
   17d35:	0f b6 50 0f          	movzbl 0xf(%rax),%edx
   17d39:	0f b7 40 10          	movzwl 0x10(%rax),%eax
   17d3d:	25 ff 07 00 00       	and    $0x7ff,%eax
   17d42:	48 c1 e0 08          	shl    $0x8,%rax
   17d46:	48 09 d0             	or     %rdx,%rax
   17d49:	48 c1 e0 2d          	shl    $0x2d,%rax
   17d4d:	48 c1 f8 2d          	sar    $0x2d,%rax
   17d51:	48 98                	cltq   
   17d53:	8b 55 fc             	mov    -0x4(%rbp),%edx
   17d56:	48 8d 35 e6 44 00 00 	lea    0x44e6(%rip),%rsi        # 1c243 <g_2129+0x2d83>
   17d5d:	48 89 c7             	mov    %rax,%rdi
   17d60:	e8 8e e9 fe ff       	callq  66f3 <transparent_crc>
   17d65:	8b 45 f4             	mov    -0xc(%rbp),%eax
   17d68:	48 98                	cltq   
   17d6a:	8b 55 f0             	mov    -0x10(%rbp),%edx
   17d6d:	48 63 ca             	movslq %edx,%rcx
   17d70:	48 89 c2             	mov    %rax,%rdx
   17d73:	48 c1 e2 03          	shl    $0x3,%rdx
   17d77:	48 29 c2             	sub    %rax,%rdx
   17d7a:	48 8d 04 95 00 00 00 	lea    0x0(,%rdx,4),%rax
   17d81:	00 
   17d82:	48 89 c2             	mov    %rax,%rdx
   17d85:	48 89 c8             	mov    %rcx,%rax
   17d88:	48 c1 e0 02          	shl    $0x2,%rax
   17d8c:	48 01 c8             	add    %rcx,%rax
   17d8f:	48 c1 e0 02          	shl    $0x2,%rax
   17d93:	48 01 c8             	add    %rcx,%rax
   17d96:	48 c1 e0 03          	shl    $0x3,%rax
   17d9a:	48 01 c2             	add    %rax,%rdx
   17d9d:	48 8d 05 cc 13 00 00 	lea    0x13cc(%rip),%rax        # 19170 <g_1954+0x10>
   17da4:	48 01 d0             	add    %rdx,%rax
   17da7:	8b 10                	mov    (%rax),%edx
   17da9:	c1 ea 0b             	shr    $0xb,%edx
   17dac:	89 d2                	mov    %edx,%edx
   17dae:	8b 40 04             	mov    0x4(%rax),%eax
   17db1:	89 c0                	mov    %eax,%eax
   17db3:	83 e0 7f             	and    $0x7f,%eax
   17db6:	48 c1 e0 15          	shl    $0x15,%rax
   17dba:	48 09 d0             	or     %rdx,%rax
   17dbd:	48 c1 e0 24          	shl    $0x24,%rax
   17dc1:	48 c1 f8 24          	sar    $0x24,%rax
   17dc5:	48 98                	cltq   
   17dc7:	8b 55 fc             	mov    -0x4(%rbp),%edx
   17dca:	48 8d 35 82 44 00 00 	lea    0x4482(%rip),%rsi        # 1c253 <g_2129+0x2d93>
   17dd1:	48 89 c7             	mov    %rax,%rdi
   17dd4:	e8 1a e9 fe ff       	callq  66f3 <transparent_crc>
   17dd9:	8b 45 f4             	mov    -0xc(%rbp),%eax
   17ddc:	48 98                	cltq   
   17dde:	8b 55 f0             	mov    -0x10(%rbp),%edx
   17de1:	48 63 ca             	movslq %edx,%rcx
   17de4:	48 89 c2             	mov    %rax,%rdx
   17de7:	48 c1 e2 03          	shl    $0x3,%rdx
   17deb:	48 29 c2             	sub    %rax,%rdx
   17dee:	48 8d 04 95 00 00 00 	lea    0x0(,%rdx,4),%rax
   17df5:	00 
   17df6:	48 89 c2             	mov    %rax,%rdx
   17df9:	48 89 c8             	mov    %rcx,%rax
   17dfc:	48 c1 e0 02          	shl    $0x2,%rax
   17e00:	48 01 c8             	add    %rcx,%rax
   17e03:	48 c1 e0 02          	shl    $0x2,%rax
   17e07:	48 01 c8             	add    %rcx,%rax
   17e0a:	48 c1 e0 03          	shl    $0x3,%rax
   17e0e:	48 01 c2             	add    %rax,%rdx
   17e11:	48 8d 05 58 13 00 00 	lea    0x1358(%rip),%rax        # 19170 <g_1954+0x10>
   17e18:	48 01 d0             	add    %rdx,%rax
   17e1b:	8b 50 04             	mov    0x4(%rax),%edx
   17e1e:	c1 ea 07             	shr    $0x7,%edx
   17e21:	89 d2                	mov    %edx,%edx
   17e23:	0f b6 40 08          	movzbl 0x8(%rax),%eax
   17e27:	83 e0 1f             	and    $0x1f,%eax
   17e2a:	48 c1 e0 19          	shl    $0x19,%rax
   17e2e:	48 09 d0             	or     %rdx,%rax
   17e31:	48 c1 e0 22          	shl    $0x22,%rax
   17e35:	48 c1 f8 22          	sar    $0x22,%rax
   17e39:	48 98                	cltq   
   17e3b:	8b 55 fc             	mov    -0x4(%rbp),%edx
   17e3e:	48 8d 35 1e 44 00 00 	lea    0x441e(%rip),%rsi        # 1c263 <g_2129+0x2da3>
   17e45:	48 89 c7             	mov    %rax,%rdi
   17e48:	e8 a6 e8 fe ff       	callq  66f3 <transparent_crc>
   17e4d:	8b 45 f4             	mov    -0xc(%rbp),%eax
   17e50:	48 98                	cltq   
   17e52:	8b 55 f0             	mov    -0x10(%rbp),%edx
   17e55:	48 63 ca             	movslq %edx,%rcx
   17e58:	48 89 c2             	mov    %rax,%rdx
   17e5b:	48 c1 e2 03          	shl    $0x3,%rdx
   17e5f:	48 29 c2             	sub    %rax,%rdx
   17e62:	48 8d 04 95 00 00 00 	lea    0x0(,%rdx,4),%rax
   17e69:	00 
   17e6a:	48 89 c2             	mov    %rax,%rdx
   17e6d:	48 89 c8             	mov    %rcx,%rax
   17e70:	48 c1 e0 02          	shl    $0x2,%rax
   17e74:	48 01 c8             	add    %rcx,%rax
   17e77:	48 c1 e0 02          	shl    $0x2,%rax
   17e7b:	48 01 c8             	add    %rcx,%rax
   17e7e:	48 c1 e0 03          	shl    $0x3,%rax
   17e82:	48 01 c2             	add    %rax,%rdx
   17e85:	48 8d 05 e4 12 00 00 	lea    0x12e4(%rip),%rax        # 19170 <g_1954+0x10>
   17e8c:	48 01 d0             	add    %rdx,%rax
   17e8f:	0f b7 40 08          	movzwl 0x8(%rax),%eax
   17e93:	66 c1 e8 05          	shr    $0x5,%ax
   17e97:	80 e4 ff             	and    $0xff,%ah
   17e9a:	0f b6 c0             	movzbl %al,%eax
   17e9d:	8b 55 fc             	mov    -0x4(%rbp),%edx
   17ea0:	48 8d 35 cc 43 00 00 	lea    0x43cc(%rip),%rsi        # 1c273 <g_2129+0x2db3>
   17ea7:	48 89 c7             	mov    %rax,%rdi
   17eaa:	e8 44 e8 fe ff       	callq  66f3 <transparent_crc>
   17eaf:	8b 45 f4             	mov    -0xc(%rbp),%eax
   17eb2:	48 98                	cltq   
   17eb4:	8b 55 f0             	mov    -0x10(%rbp),%edx
   17eb7:	48 63 ca             	movslq %edx,%rcx
   17eba:	48 89 c2             	mov    %rax,%rdx
   17ebd:	48 c1 e2 03          	shl    $0x3,%rdx
   17ec1:	48 29 c2             	sub    %rax,%rdx
   17ec4:	48 8d 04 95 00 00 00 	lea    0x0(,%rdx,4),%rax
   17ecb:	00 
   17ecc:	48 89 c2             	mov    %rax,%rdx
   17ecf:	48 89 c8             	mov    %rcx,%rax
   17ed2:	48 c1 e0 02          	shl    $0x2,%rax
   17ed6:	48 01 c8             	add    %rcx,%rax
   17ed9:	48 c1 e0 02          	shl    $0x2,%rax
   17edd:	48 01 c8             	add    %rcx,%rax
   17ee0:	48 c1 e0 03          	shl    $0x3,%rax
   17ee4:	48 01 c2             	add    %rax,%rdx
   17ee7:	48 8d 05 82 12 00 00 	lea    0x1282(%rip),%rax        # 19170 <g_1954+0x10>
   17eee:	48 01 d0             	add    %rdx,%rax
   17ef1:	8b 40 08             	mov    0x8(%rax),%eax
   17ef4:	c1 e0 07             	shl    $0x7,%eax
   17ef7:	c1 f8 14             	sar    $0x14,%eax
   17efa:	48 0f bf c0          	movswq %ax,%rax
   17efe:	8b 55 fc             	mov    -0x4(%rbp),%edx
   17f01:	48 8d 35 7b 43 00 00 	lea    0x437b(%rip),%rsi        # 1c283 <g_2129+0x2dc3>
   17f08:	48 89 c7             	mov    %rax,%rdi
   17f0b:	e8 e3 e7 fe ff       	callq  66f3 <transparent_crc>
   17f10:	83 7d fc 00          	cmpl   $0x0,-0x4(%rbp)
   17f14:	74 19                	je     17f2f <main+0x3d66>
   17f16:	8b 55 f4             	mov    -0xc(%rbp),%edx
   17f19:	8b 45 f0             	mov    -0x10(%rbp),%eax
   17f1c:	89 c6                	mov    %eax,%esi
   17f1e:	48 8d 3d a3 35 00 00 	lea    0x35a3(%rip),%rdi        # 1b4c8 <g_2129+0x2008>
   17f25:	b8 00 00 00 00       	mov    $0x0,%eax
   17f2a:	e8 51 d1 fe ff       	callq  5080 <printf@plt>
   17f2f:	83 45 f4 01          	addl   $0x1,-0xc(%rbp)
   17f33:	83 7d f4 05          	cmpl   $0x5,-0xc(%rbp)
   17f37:	0f 8e 12 fc ff ff    	jle    17b4f <main+0x3986>
   17f3d:	83 45 f0 01          	addl   $0x1,-0x10(%rbp)
   17f41:	83 7d f0 04          	cmpl   $0x4,-0x10(%rbp)
   17f45:	0f 8e f8 fb ff ff    	jle    17b43 <main+0x397a>
   17f4b:	48 8b 05 3e 83 00 00 	mov    0x833e(%rip),%rax        # 20290 <g_1982>
   17f52:	48 89 c1             	mov    %rax,%rcx
   17f55:	8b 45 fc             	mov    -0x4(%rbp),%eax
   17f58:	89 c2                	mov    %eax,%edx
   17f5a:	48 8d 35 32 43 00 00 	lea    0x4332(%rip),%rsi        # 1c293 <g_2129+0x2dd3>
   17f61:	48 89 cf             	mov    %rcx,%rdi
   17f64:	e8 8a e7 fe ff       	callq  66f3 <transparent_crc>
   17f69:	c7 45 f0 00 00 00 00 	movl   $0x0,-0x10(%rbp)
   17f70:	e9 ab 02 00 00       	jmpq   18220 <main+0x4057>
   17f75:	8b 45 f0             	mov    -0x10(%rbp),%eax
   17f78:	48 63 d0             	movslq %eax,%rdx
   17f7b:	48 89 d0             	mov    %rdx,%rax
   17f7e:	48 c1 e0 03          	shl    $0x3,%rax
   17f82:	48 29 d0             	sub    %rdx,%rax
   17f85:	48 c1 e0 02          	shl    $0x2,%rax
   17f89:	48 89 c2             	mov    %rax,%rdx
   17f8c:	48 8d 05 0d 83 00 00 	lea    0x830d(%rip),%rax        # 202a0 <g_2016>
   17f93:	8b 04 02             	mov    (%rdx,%rax,1),%eax
   17f96:	25 ff ff 07 00       	and    $0x7ffff,%eax
   17f9b:	89 c1                	mov    %eax,%ecx
   17f9d:	8b 45 fc             	mov    -0x4(%rbp),%eax
   17fa0:	89 c2                	mov    %eax,%edx
   17fa2:	48 8d 35 f1 42 00 00 	lea    0x42f1(%rip),%rsi        # 1c29a <g_2129+0x2dda>
   17fa9:	48 89 cf             	mov    %rcx,%rdi
   17fac:	e8 42 e7 fe ff       	callq  66f3 <transparent_crc>
   17fb1:	8b 45 f0             	mov    -0x10(%rbp),%eax
   17fb4:	48 63 d0             	movslq %eax,%rdx
   17fb7:	48 89 d0             	mov    %rdx,%rax
   17fba:	48 c1 e0 03          	shl    $0x3,%rax
   17fbe:	48 29 d0             	sub    %rdx,%rax
   17fc1:	48 c1 e0 02          	shl    $0x2,%rax
   17fc5:	48 89 c2             	mov    %rax,%rdx
   17fc8:	48 8d 05 d1 82 00 00 	lea    0x82d1(%rip),%rax        # 202a0 <g_2016>
   17fcf:	0f b7 4c 02 02       	movzwl 0x2(%rdx,%rax,1),%ecx
   17fd4:	66 c1 e9 03          	shr    $0x3,%cx
   17fd8:	0f b7 c9             	movzwl %cx,%ecx
   17fdb:	0f b7 44 02 04       	movzwl 0x4(%rdx,%rax,1),%eax
   17fe0:	48 c1 e0 0d          	shl    $0xd,%rax
   17fe4:	48 09 c8             	or     %rcx,%rax
   17fe7:	48 c1 e0 23          	shl    $0x23,%rax
   17feb:	48 c1 f8 23          	sar    $0x23,%rax
   17fef:	48 98                	cltq   
   17ff1:	8b 55 fc             	mov    -0x4(%rbp),%edx
   17ff4:	48 8d 35 ac 42 00 00 	lea    0x42ac(%rip),%rsi        # 1c2a7 <g_2129+0x2de7>
   17ffb:	48 89 c7             	mov    %rax,%rdi
   17ffe:	e8 f0 e6 fe ff       	callq  66f3 <transparent_crc>
   18003:	8b 45 f0             	mov    -0x10(%rbp),%eax
   18006:	48 63 d0             	movslq %eax,%rdx
   18009:	48 89 d0             	mov    %rdx,%rax
   1800c:	48 c1 e0 03          	shl    $0x3,%rax
   18010:	48 29 d0             	sub    %rdx,%rax
   18013:	48 c1 e0 02          	shl    $0x2,%rax
   18017:	48 89 c2             	mov    %rax,%rdx
   1801a:	48 8d 05 7f 82 00 00 	lea    0x827f(%rip),%rax        # 202a0 <g_2016>
   18021:	0f b7 4c 02 06       	movzwl 0x6(%rdx,%rax,1),%ecx
   18026:	0f b7 44 02 08       	movzwl 0x8(%rdx,%rax,1),%eax
   1802b:	25 ff 03 00 00       	and    $0x3ff,%eax
   18030:	48 c1 e0 10          	shl    $0x10,%rax
   18034:	48 09 c8             	or     %rcx,%rax
   18037:	48 c1 e0 26          	shl    $0x26,%rax
   1803b:	48 c1 f8 26          	sar    $0x26,%rax
   1803f:	48 98                	cltq   
   18041:	8b 55 fc             	mov    -0x4(%rbp),%edx
   18044:	48 8d 35 69 42 00 00 	lea    0x4269(%rip),%rsi        # 1c2b4 <g_2129+0x2df4>
   1804b:	48 89 c7             	mov    %rax,%rdi
   1804e:	e8 a0 e6 fe ff       	callq  66f3 <transparent_crc>
   18053:	8b 45 f0             	mov    -0x10(%rbp),%eax
   18056:	48 63 d0             	movslq %eax,%rdx
   18059:	48 89 d0             	mov    %rdx,%rax
   1805c:	48 c1 e0 03          	shl    $0x3,%rax
   18060:	48 29 d0             	sub    %rdx,%rax
   18063:	48 c1 e0 02          	shl    $0x2,%rax
   18067:	48 89 c2             	mov    %rax,%rdx
   1806a:	48 8d 05 2f 82 00 00 	lea    0x822f(%rip),%rax        # 202a0 <g_2016>
   18071:	8b 44 02 0c          	mov    0xc(%rdx,%rax,1),%eax
   18075:	c1 e0 08             	shl    $0x8,%eax
   18078:	c1 f8 08             	sar    $0x8,%eax
   1807b:	48 98                	cltq   
   1807d:	8b 55 fc             	mov    -0x4(%rbp),%edx
   18080:	48 8d 35 3a 42 00 00 	lea    0x423a(%rip),%rsi        # 1c2c1 <g_2129+0x2e01>
   18087:	48 89 c7             	mov    %rax,%rdi
   1808a:	e8 64 e6 fe ff       	callq  66f3 <transparent_crc>
   1808f:	8b 45 f0             	mov    -0x10(%rbp),%eax
   18092:	48 63 d0             	movslq %eax,%rdx
   18095:	48 89 d0             	mov    %rdx,%rax
   18098:	48 c1 e0 03          	shl    $0x3,%rax
   1809c:	48 29 d0             	sub    %rdx,%rax
   1809f:	48 c1 e0 02          	shl    $0x2,%rax
   180a3:	48 89 c2             	mov    %rax,%rdx
   180a6:	48 8d 05 f3 81 00 00 	lea    0x81f3(%rip),%rax        # 202a0 <g_2016>
   180ad:	0f b6 4c 02 0f       	movzbl 0xf(%rdx,%rax,1),%ecx
   180b2:	0f b7 44 02 10       	movzwl 0x10(%rdx,%rax,1),%eax
   180b7:	25 ff 07 00 00       	and    $0x7ff,%eax
   180bc:	48 c1 e0 08          	shl    $0x8,%rax
   180c0:	48 09 c8             	or     %rcx,%rax
   180c3:	48 c1 e0 2d          	shl    $0x2d,%rax
   180c7:	48 c1 f8 2d          	sar    $0x2d,%rax
   180cb:	48 98                	cltq   
   180cd:	8b 55 fc             	mov    -0x4(%rbp),%edx
   180d0:	48 8d 35 f7 41 00 00 	lea    0x41f7(%rip),%rsi        # 1c2ce <g_2129+0x2e0e>
   180d7:	48 89 c7             	mov    %rax,%rdi
   180da:	e8 14 e6 fe ff       	callq  66f3 <transparent_crc>
   180df:	8b 45 f0             	mov    -0x10(%rbp),%eax
   180e2:	48 63 d0             	movslq %eax,%rdx
   180e5:	48 89 d0             	mov    %rdx,%rax
   180e8:	48 c1 e0 03          	shl    $0x3,%rax
   180ec:	48 29 d0             	sub    %rdx,%rax
   180ef:	48 c1 e0 02          	shl    $0x2,%rax
   180f3:	48 89 c2             	mov    %rax,%rdx
   180f6:	48 8d 05 b3 81 00 00 	lea    0x81b3(%rip),%rax        # 202b0 <g_2016+0x10>
   180fd:	8b 0c 02             	mov    (%rdx,%rax,1),%ecx
   18100:	c1 e9 0b             	shr    $0xb,%ecx
   18103:	89 c9                	mov    %ecx,%ecx
   18105:	8b 44 02 04          	mov    0x4(%rdx,%rax,1),%eax
   18109:	89 c0                	mov    %eax,%eax
   1810b:	83 e0 7f             	and    $0x7f,%eax
   1810e:	48 c1 e0 15          	shl    $0x15,%rax
   18112:	48 09 c8             	or     %rcx,%rax
   18115:	48 c1 e0 24          	shl    $0x24,%rax
   18119:	48 c1 f8 24          	sar    $0x24,%rax
   1811d:	48 98                	cltq   
   1811f:	8b 55 fc             	mov    -0x4(%rbp),%edx
   18122:	48 8d 35 b2 41 00 00 	lea    0x41b2(%rip),%rsi        # 1c2db <g_2129+0x2e1b>
   18129:	48 89 c7             	mov    %rax,%rdi
   1812c:	e8 c2 e5 fe ff       	callq  66f3 <transparent_crc>
   18131:	8b 45 f0             	mov    -0x10(%rbp),%eax
   18134:	48 63 d0             	movslq %eax,%rdx
   18137:	48 89 d0             	mov    %rdx,%rax
   1813a:	48 c1 e0 03          	shl    $0x3,%rax
   1813e:	48 29 d0             	sub    %rdx,%rax
   18141:	48 c1 e0 02          	shl    $0x2,%rax
   18145:	48 89 c2             	mov    %rax,%rdx
   18148:	48 8d 05 61 81 00 00 	lea    0x8161(%rip),%rax        # 202b0 <g_2016+0x10>
   1814f:	8b 4c 02 04          	mov    0x4(%rdx,%rax,1),%ecx
   18153:	c1 e9 07             	shr    $0x7,%ecx
   18156:	89 c9                	mov    %ecx,%ecx
   18158:	0f b6 44 02 08       	movzbl 0x8(%rdx,%rax,1),%eax
   1815d:	83 e0 1f             	and    $0x1f,%eax
   18160:	48 c1 e0 19          	shl    $0x19,%rax
   18164:	48 09 c8             	or     %rcx,%rax
   18167:	48 c1 e0 22          	shl    $0x22,%rax
   1816b:	48 c1 f8 22          	sar    $0x22,%rax
   1816f:	48 98                	cltq   
   18171:	8b 55 fc             	mov    -0x4(%rbp),%edx
   18174:	48 8d 35 6d 41 00 00 	lea    0x416d(%rip),%rsi        # 1c2e8 <g_2129+0x2e28>
   1817b:	48 89 c7             	mov    %rax,%rdi
   1817e:	e8 70 e5 fe ff       	callq  66f3 <transparent_crc>
   18183:	8b 45 f0             	mov    -0x10(%rbp),%eax
   18186:	48 63 d0             	movslq %eax,%rdx
   18189:	48 89 d0             	mov    %rdx,%rax
   1818c:	48 c1 e0 03          	shl    $0x3,%rax
   18190:	48 29 d0             	sub    %rdx,%rax
   18193:	48 c1 e0 02          	shl    $0x2,%rax
   18197:	48 89 c2             	mov    %rax,%rdx
   1819a:	48 8d 05 0f 81 00 00 	lea    0x810f(%rip),%rax        # 202b0 <g_2016+0x10>
   181a1:	0f b7 44 02 08       	movzwl 0x8(%rdx,%rax,1),%eax
   181a6:	66 c1 e8 05          	shr    $0x5,%ax
   181aa:	80 e4 ff             	and    $0xff,%ah
   181ad:	0f b6 c0             	movzbl %al,%eax
   181b0:	8b 55 fc             	mov    -0x4(%rbp),%edx
   181b3:	48 8d 35 3b 41 00 00 	lea    0x413b(%rip),%rsi        # 1c2f5 <g_2129+0x2e35>
   181ba:	48 89 c7             	mov    %rax,%rdi
   181bd:	e8 31 e5 fe ff       	callq  66f3 <transparent_crc>
   181c2:	8b 45 f0             	mov    -0x10(%rbp),%eax
   181c5:	48 63 d0             	movslq %eax,%rdx
   181c8:	48 89 d0             	mov    %rdx,%rax
   181cb:	48 c1 e0 03          	shl    $0x3,%rax
   181cf:	48 29 d0             	sub    %rdx,%rax
   181d2:	48 c1 e0 02          	shl    $0x2,%rax
   181d6:	48 89 c2             	mov    %rax,%rdx
   181d9:	48 8d 05 d0 80 00 00 	lea    0x80d0(%rip),%rax        # 202b0 <g_2016+0x10>
   181e0:	8b 44 02 08          	mov    0x8(%rdx,%rax,1),%eax
   181e4:	c1 e0 07             	shl    $0x7,%eax
   181e7:	c1 f8 14             	sar    $0x14,%eax
   181ea:	48 0f bf c0          	movswq %ax,%rax
   181ee:	8b 55 fc             	mov    -0x4(%rbp),%edx
   181f1:	48 8d 35 0a 41 00 00 	lea    0x410a(%rip),%rsi        # 1c302 <g_2129+0x2e42>
   181f8:	48 89 c7             	mov    %rax,%rdi
   181fb:	e8 f3 e4 fe ff       	callq  66f3 <transparent_crc>
   18200:	83 7d fc 00          	cmpl   $0x0,-0x4(%rbp)
   18204:	74 16                	je     1821c <main+0x4053>
   18206:	8b 45 f0             	mov    -0x10(%rbp),%eax
   18209:	89 c6                	mov    %eax,%esi
   1820b:	48 8d 3d 1a 35 00 00 	lea    0x351a(%rip),%rdi        # 1b72c <g_2129+0x226c>
   18212:	b8 00 00 00 00       	mov    $0x0,%eax
   18217:	e8 64 ce fe ff       	callq  5080 <printf@plt>
   1821c:	83 45 f0 01          	addl   $0x1,-0x10(%rbp)
   18220:	83 7d f0 08          	cmpl   $0x8,-0x10(%rbp)
   18224:	0f 8e 4b fd ff ff    	jle    17f75 <main+0x3dac>
   1822a:	c7 45 f0 00 00 00 00 	movl   $0x0,-0x10(%rbp)
   18231:	eb 4a                	jmp    1827d <main+0x40b4>
   18233:	8b 45 f0             	mov    -0x10(%rbp),%eax
   18236:	48 98                	cltq   
   18238:	48 8d 14 c5 00 00 00 	lea    0x0(,%rax,8),%rdx
   1823f:	00 
   18240:	48 8d 05 59 81 00 00 	lea    0x8159(%rip),%rax        # 203a0 <g_2060>
   18247:	48 8b 04 02          	mov    (%rdx,%rax,1),%rax
   1824b:	8b 55 fc             	mov    -0x4(%rbp),%edx
   1824e:	48 8d 35 ba 40 00 00 	lea    0x40ba(%rip),%rsi        # 1c30f <g_2129+0x2e4f>
   18255:	48 89 c7             	mov    %rax,%rdi
   18258:	e8 96 e4 fe ff       	callq  66f3 <transparent_crc>
   1825d:	83 7d fc 00          	cmpl   $0x0,-0x4(%rbp)
   18261:	74 16                	je     18279 <main+0x40b0>
   18263:	8b 45 f0             	mov    -0x10(%rbp),%eax
   18266:	89 c6                	mov    %eax,%esi
   18268:	48 8d 3d bd 34 00 00 	lea    0x34bd(%rip),%rdi        # 1b72c <g_2129+0x226c>
   1826f:	b8 00 00 00 00       	mov    $0x0,%eax
   18274:	e8 07 ce fe ff       	callq  5080 <printf@plt>
   18279:	83 45 f0 01          	addl   $0x1,-0x10(%rbp)
   1827d:	83 7d f0 06          	cmpl   $0x6,-0x10(%rbp)
   18281:	7e b0                	jle    18233 <main+0x406a>
   18283:	48 8b 05 56 81 00 00 	mov    0x8156(%rip),%rax        # 203e0 <g_2079>
   1828a:	83 e0 1f             	and    $0x1f,%eax
   1828d:	0f b6 c0             	movzbl %al,%eax
   18290:	8b 55 fc             	mov    -0x4(%rbp),%edx
   18293:	48 8d 35 7f 40 00 00 	lea    0x407f(%rip),%rsi        # 1c319 <g_2129+0x2e59>
   1829a:	48 89 c7             	mov    %rax,%rdi
   1829d:	e8 51 e4 fe ff       	callq  66f3 <transparent_crc>
   182a2:	8b 05 3c 81 00 00    	mov    0x813c(%rip),%eax        # 203e4 <g_2079+0x4>
   182a8:	48 98                	cltq   
   182aa:	8b 55 fc             	mov    -0x4(%rbp),%edx
   182ad:	48 8d 35 6f 40 00 00 	lea    0x406f(%rip),%rsi        # 1c323 <g_2129+0x2e63>
   182b4:	48 89 c7             	mov    %rax,%rdi
   182b7:	e8 37 e4 fe ff       	callq  66f3 <transparent_crc>
   182bc:	0f b7 05 25 81 00 00 	movzwl 0x8125(%rip),%eax        # 203e8 <g_2079+0x8>
   182c3:	66 25 ff 3f          	and    $0x3fff,%ax
   182c7:	0f b7 c0             	movzwl %ax,%eax
   182ca:	8b 55 fc             	mov    -0x4(%rbp),%edx
   182cd:	48 8d 35 59 40 00 00 	lea    0x4059(%rip),%rsi        # 1c32d <g_2129+0x2e6d>
   182d4:	48 89 c7             	mov    %rax,%rdi
   182d7:	e8 17 e4 fe ff       	callq  66f3 <transparent_crc>
   182dc:	48 8b 05 05 81 00 00 	mov    0x8105(%rip),%rax        # 203e8 <g_2079+0x8>
   182e3:	48 c1 e0 08          	shl    $0x8,%rax
   182e7:	48 c1 f8 28          	sar    $0x28,%rax
   182eb:	48 98                	cltq   
   182ed:	8b 55 fc             	mov    -0x4(%rbp),%edx
   182f0:	48 8d 35 40 40 00 00 	lea    0x4040(%rip),%rsi        # 1c337 <g_2129+0x2e77>
   182f7:	48 89 c7             	mov    %rax,%rdi
   182fa:	e8 f4 e3 fe ff       	callq  66f3 <transparent_crc>
   182ff:	8b 05 eb 80 00 00    	mov    0x80eb(%rip),%eax        # 203f0 <g_2079+0x10>
   18305:	c1 e0 03             	shl    $0x3,%eax
   18308:	c1 f8 03             	sar    $0x3,%eax
   1830b:	48 98                	cltq   
   1830d:	8b 55 fc             	mov    -0x4(%rbp),%edx
   18310:	48 8d 35 2a 40 00 00 	lea    0x402a(%rip),%rsi        # 1c341 <g_2129+0x2e81>
   18317:	48 89 c7             	mov    %rax,%rdi
   1831a:	e8 d4 e3 fe ff       	callq  66f3 <transparent_crc>
   1831f:	48 8b 05 ca 80 00 00 	mov    0x80ca(%rip),%rax        # 203f0 <g_2079+0x10>
   18326:	48 c1 e8 20          	shr    $0x20,%rax
   1832a:	25 ff ff 1f 00       	and    $0x1fffff,%eax
   1832f:	89 c1                	mov    %eax,%ecx
   18331:	8b 45 fc             	mov    -0x4(%rbp),%eax
   18334:	89 c2                	mov    %eax,%edx
   18336:	48 8d 35 0e 40 00 00 	lea    0x400e(%rip),%rsi        # 1c34b <g_2129+0x2e8b>
   1833d:	48 89 cf             	mov    %rcx,%rdi
   18340:	e8 ae e3 fe ff       	callq  66f3 <transparent_crc>
   18345:	0f b6 05 aa 80 00 00 	movzbl 0x80aa(%rip),%eax        # 203f6 <g_2079+0x16>
   1834c:	01 c0                	add    %eax,%eax
   1834e:	c0 f8 06             	sar    $0x6,%al
   18351:	48 0f be c0          	movsbq %al,%rax
   18355:	8b 55 fc             	mov    -0x4(%rbp),%edx
   18358:	48 8d 35 f6 3f 00 00 	lea    0x3ff6(%rip),%rsi        # 1c355 <g_2129+0x2e95>
   1835f:	48 89 c7             	mov    %rax,%rdi
   18362:	e8 8c e3 fe ff       	callq  66f3 <transparent_crc>
   18367:	8b 05 8b 80 00 00    	mov    0x808b(%rip),%eax        # 203f8 <g_2079+0x18>
   1836d:	25 ff ff 07 00       	and    $0x7ffff,%eax
   18372:	89 c1                	mov    %eax,%ecx
   18374:	8b 45 fc             	mov    -0x4(%rbp),%eax
   18377:	89 c2                	mov    %eax,%edx
   18379:	48 8d 35 df 3f 00 00 	lea    0x3fdf(%rip),%rsi        # 1c35f <g_2129+0x2e9f>
   18380:	48 89 cf             	mov    %rcx,%rdi
   18383:	e8 6b e3 fe ff       	callq  66f3 <transparent_crc>
   18388:	8b 05 6e 80 00 00    	mov    0x806e(%rip),%eax        # 203fc <g_2079+0x1c>
   1838e:	25 ff ff ff 00       	and    $0xffffff,%eax
   18393:	89 c1                	mov    %eax,%ecx
   18395:	8b 45 fc             	mov    -0x4(%rbp),%eax
   18398:	89 c2                	mov    %eax,%edx
   1839a:	48 8d 35 c8 3f 00 00 	lea    0x3fc8(%rip),%rsi        # 1c369 <g_2129+0x2ea9>
   183a1:	48 89 cf             	mov    %rcx,%rdi
   183a4:	e8 4a e3 fe ff       	callq  66f3 <transparent_crc>
   183a9:	0f b6 05 50 80 00 00 	movzbl 0x8050(%rip),%eax        # 20400 <g_2115>
   183b0:	0f b6 c0             	movzbl %al,%eax
   183b3:	8b 55 fc             	mov    -0x4(%rbp),%edx
   183b6:	48 8d 35 b6 3f 00 00 	lea    0x3fb6(%rip),%rsi        # 1c373 <g_2129+0x2eb3>
   183bd:	48 89 c7             	mov    %rax,%rdi
   183c0:	e8 2e e3 fe ff       	callq  66f3 <transparent_crc>
   183c5:	0f b6 05 35 80 00 00 	movzbl 0x8035(%rip),%eax        # 20401 <g_2115+0x1>
   183cc:	0f b6 c0             	movzbl %al,%eax
   183cf:	8b 55 fc             	mov    -0x4(%rbp),%edx
   183d2:	48 8d 35 a4 3f 00 00 	lea    0x3fa4(%rip),%rsi        # 1c37d <g_2129+0x2ebd>
   183d9:	48 89 c7             	mov    %rax,%rdi
   183dc:	e8 12 e3 fe ff       	callq  66f3 <transparent_crc>
   183e1:	0f b6 05 1a 80 00 00 	movzbl 0x801a(%rip),%eax        # 20402 <g_2115+0x2>
   183e8:	0f b6 c0             	movzbl %al,%eax
   183eb:	8b 55 fc             	mov    -0x4(%rbp),%edx
   183ee:	48 8d 35 92 3f 00 00 	lea    0x3f92(%rip),%rsi        # 1c387 <g_2129+0x2ec7>
   183f5:	48 89 c7             	mov    %rax,%rdi
   183f8:	e8 f6 e2 fe ff       	callq  66f3 <transparent_crc>
   183fd:	48 8b 05 fc 7f 00 00 	mov    0x7ffc(%rip),%rax        # 20400 <g_2115>
   18404:	c1 e0 04             	shl    $0x4,%eax
   18407:	c1 f8 1c             	sar    $0x1c,%eax
   1840a:	48 0f be c0          	movsbq %al,%rax
   1840e:	8b 55 fc             	mov    -0x4(%rbp),%edx
   18411:	48 8d 35 79 3f 00 00 	lea    0x3f79(%rip),%rsi        # 1c391 <g_2129+0x2ed1>
   18418:	48 89 c7             	mov    %rax,%rdi
   1841b:	e8 d3 e2 fe ff       	callq  66f3 <transparent_crc>
   18420:	8b 05 de 7f 00 00    	mov    0x7fde(%rip),%eax        # 20404 <g_2115+0x4>
   18426:	89 c1                	mov    %eax,%ecx
   18428:	8b 45 fc             	mov    -0x4(%rbp),%eax
   1842b:	89 c2                	mov    %eax,%edx
   1842d:	48 8d 35 67 3f 00 00 	lea    0x3f67(%rip),%rsi        # 1c39b <g_2129+0x2edb>
   18434:	48 89 cf             	mov    %rcx,%rdi
   18437:	e8 b7 e2 fe ff       	callq  66f3 <transparent_crc>
   1843c:	48 8b 05 c5 7f 00 00 	mov    0x7fc5(%rip),%rax        # 20408 <g_2115+0x8>
   18443:	01 c0                	add    %eax,%eax
   18445:	d1 f8                	sar    %eax
   18447:	48 98                	cltq   
   18449:	8b 55 fc             	mov    -0x4(%rbp),%edx
   1844c:	48 8d 35 52 3f 00 00 	lea    0x3f52(%rip),%rsi        # 1c3a5 <g_2129+0x2ee5>
   18453:	48 89 c7             	mov    %rax,%rdi
   18456:	e8 98 e2 fe ff       	callq  66f3 <transparent_crc>
   1845b:	0f b7 05 aa 7f 00 00 	movzwl 0x7faa(%rip),%eax        # 2040c <g_2115+0xc>
   18462:	48 0f bf c0          	movswq %ax,%rax
   18466:	8b 55 fc             	mov    -0x4(%rbp),%edx
   18469:	48 8d 35 3f 3f 00 00 	lea    0x3f3f(%rip),%rsi        # 1c3af <g_2129+0x2eef>
   18470:	48 89 c7             	mov    %rax,%rdi
   18473:	e8 7b e2 fe ff       	callq  66f3 <transparent_crc>
   18478:	0f b7 05 8f 7f 00 00 	movzwl 0x7f8f(%rip),%eax        # 2040e <g_2115+0xe>
   1847f:	48 0f bf c0          	movswq %ax,%rax
   18483:	8b 55 fc             	mov    -0x4(%rbp),%edx
   18486:	48 8d 35 2c 3f 00 00 	lea    0x3f2c(%rip),%rsi        # 1c3b9 <g_2129+0x2ef9>
   1848d:	48 89 c7             	mov    %rax,%rdi
   18490:	e8 5e e2 fe ff       	callq  66f3 <transparent_crc>
   18495:	0f b7 05 74 7f 00 00 	movzwl 0x7f74(%rip),%eax        # 20410 <g_2115+0x10>
   1849c:	48 0f bf c0          	movswq %ax,%rax
   184a0:	8b 55 fc             	mov    -0x4(%rbp),%edx
   184a3:	48 8d 35 19 3f 00 00 	lea    0x3f19(%rip),%rsi        # 1c3c3 <g_2129+0x2f03>
   184aa:	48 89 c7             	mov    %rax,%rdi
   184ad:	e8 41 e2 fe ff       	callq  66f3 <transparent_crc>
   184b2:	c7 45 f0 00 00 00 00 	movl   $0x0,-0x10(%rbp)
   184b9:	e9 ab 02 00 00       	jmpq   18769 <main+0x45a0>
   184be:	8b 45 f0             	mov    -0x10(%rbp),%eax
   184c1:	48 63 d0             	movslq %eax,%rdx
   184c4:	48 89 d0             	mov    %rdx,%rax
   184c7:	48 c1 e0 03          	shl    $0x3,%rax
   184cb:	48 29 d0             	sub    %rdx,%rax
   184ce:	48 c1 e0 02          	shl    $0x2,%rax
   184d2:	48 89 c2             	mov    %rax,%rdx
   184d5:	48 8d 05 e4 0f 00 00 	lea    0xfe4(%rip),%rax        # 194c0 <g_2129>
   184dc:	8b 04 02             	mov    (%rdx,%rax,1),%eax
   184df:	25 ff ff 07 00       	and    $0x7ffff,%eax
   184e4:	89 c1                	mov    %eax,%ecx
   184e6:	8b 45 fc             	mov    -0x4(%rbp),%eax
   184e9:	89 c2                	mov    %eax,%edx
   184eb:	48 8d 35 db 3e 00 00 	lea    0x3edb(%rip),%rsi        # 1c3cd <g_2129+0x2f0d>
   184f2:	48 89 cf             	mov    %rcx,%rdi
   184f5:	e8 f9 e1 fe ff       	callq  66f3 <transparent_crc>
   184fa:	8b 45 f0             	mov    -0x10(%rbp),%eax
   184fd:	48 63 d0             	movslq %eax,%rdx
   18500:	48 89 d0             	mov    %rdx,%rax
   18503:	48 c1 e0 03          	shl    $0x3,%rax
   18507:	48 29 d0             	sub    %rdx,%rax
   1850a:	48 c1 e0 02          	shl    $0x2,%rax
   1850e:	48 89 c2             	mov    %rax,%rdx
   18511:	48 8d 05 a8 0f 00 00 	lea    0xfa8(%rip),%rax        # 194c0 <g_2129>
   18518:	0f b7 4c 02 02       	movzwl 0x2(%rdx,%rax,1),%ecx
   1851d:	66 c1 e9 03          	shr    $0x3,%cx
   18521:	0f b7 c9             	movzwl %cx,%ecx
   18524:	0f b7 44 02 04       	movzwl 0x4(%rdx,%rax,1),%eax
   18529:	48 c1 e0 0d          	shl    $0xd,%rax
   1852d:	48 09 c8             	or     %rcx,%rax
   18530:	48 c1 e0 23          	shl    $0x23,%rax
   18534:	48 c1 f8 23          	sar    $0x23,%rax
   18538:	48 98                	cltq   
   1853a:	8b 55 fc             	mov    -0x4(%rbp),%edx
   1853d:	48 8d 35 96 3e 00 00 	lea    0x3e96(%rip),%rsi        # 1c3da <g_2129+0x2f1a>
   18544:	48 89 c7             	mov    %rax,%rdi
   18547:	e8 a7 e1 fe ff       	callq  66f3 <transparent_crc>
   1854c:	8b 45 f0             	mov    -0x10(%rbp),%eax
   1854f:	48 63 d0             	movslq %eax,%rdx
   18552:	48 89 d0             	mov    %rdx,%rax
   18555:	48 c1 e0 03          	shl    $0x3,%rax
   18559:	48 29 d0             	sub    %rdx,%rax
   1855c:	48 c1 e0 02          	shl    $0x2,%rax
   18560:	48 89 c2             	mov    %rax,%rdx
   18563:	48 8d 05 56 0f 00 00 	lea    0xf56(%rip),%rax        # 194c0 <g_2129>
   1856a:	0f b7 4c 02 06       	movzwl 0x6(%rdx,%rax,1),%ecx
   1856f:	0f b7 44 02 08       	movzwl 0x8(%rdx,%rax,1),%eax
   18574:	25 ff 03 00 00       	and    $0x3ff,%eax
   18579:	48 c1 e0 10          	shl    $0x10,%rax
   1857d:	48 09 c8             	or     %rcx,%rax
   18580:	48 c1 e0 26          	shl    $0x26,%rax
   18584:	48 c1 f8 26          	sar    $0x26,%rax
   18588:	48 98                	cltq   
   1858a:	8b 55 fc             	mov    -0x4(%rbp),%edx
   1858d:	48 8d 35 53 3e 00 00 	lea    0x3e53(%rip),%rsi        # 1c3e7 <g_2129+0x2f27>
   18594:	48 89 c7             	mov    %rax,%rdi
   18597:	e8 57 e1 fe ff       	callq  66f3 <transparent_crc>
   1859c:	8b 45 f0             	mov    -0x10(%rbp),%eax
   1859f:	48 63 d0             	movslq %eax,%rdx
   185a2:	48 89 d0             	mov    %rdx,%rax
   185a5:	48 c1 e0 03          	shl    $0x3,%rax
   185a9:	48 29 d0             	sub    %rdx,%rax
   185ac:	48 c1 e0 02          	shl    $0x2,%rax
   185b0:	48 89 c2             	mov    %rax,%rdx
   185b3:	48 8d 05 06 0f 00 00 	lea    0xf06(%rip),%rax        # 194c0 <g_2129>
   185ba:	8b 44 02 0c          	mov    0xc(%rdx,%rax,1),%eax
   185be:	c1 e0 08             	shl    $0x8,%eax
   185c1:	c1 f8 08             	sar    $0x8,%eax
   185c4:	48 98                	cltq   
   185c6:	8b 55 fc             	mov    -0x4(%rbp),%edx
   185c9:	48 8d 35 24 3e 00 00 	lea    0x3e24(%rip),%rsi        # 1c3f4 <g_2129+0x2f34>
   185d0:	48 89 c7             	mov    %rax,%rdi
   185d3:	e8 1b e1 fe ff       	callq  66f3 <transparent_crc>
   185d8:	8b 45 f0             	mov    -0x10(%rbp),%eax
   185db:	48 63 d0             	movslq %eax,%rdx
   185de:	48 89 d0             	mov    %rdx,%rax
   185e1:	48 c1 e0 03          	shl    $0x3,%rax
   185e5:	48 29 d0             	sub    %rdx,%rax
   185e8:	48 c1 e0 02          	shl    $0x2,%rax
   185ec:	48 89 c2             	mov    %rax,%rdx
   185ef:	48 8d 05 ca 0e 00 00 	lea    0xeca(%rip),%rax        # 194c0 <g_2129>
   185f6:	0f b6 4c 02 0f       	movzbl 0xf(%rdx,%rax,1),%ecx
   185fb:	0f b7 44 02 10       	movzwl 0x10(%rdx,%rax,1),%eax
   18600:	25 ff 07 00 00       	and    $0x7ff,%eax
   18605:	48 c1 e0 08          	shl    $0x8,%rax
   18609:	48 09 c8             	or     %rcx,%rax
   1860c:	48 c1 e0 2d          	shl    $0x2d,%rax
   18610:	48 c1 f8 2d          	sar    $0x2d,%rax
   18614:	48 98                	cltq   
   18616:	8b 55 fc             	mov    -0x4(%rbp),%edx
   18619:	48 8d 35 e1 3d 00 00 	lea    0x3de1(%rip),%rsi        # 1c401 <g_2129+0x2f41>
   18620:	48 89 c7             	mov    %rax,%rdi
   18623:	e8 cb e0 fe ff       	callq  66f3 <transparent_crc>
   18628:	8b 45 f0             	mov    -0x10(%rbp),%eax
   1862b:	48 63 d0             	movslq %eax,%rdx
   1862e:	48 89 d0             	mov    %rdx,%rax
   18631:	48 c1 e0 03          	shl    $0x3,%rax
   18635:	48 29 d0             	sub    %rdx,%rax
   18638:	48 c1 e0 02          	shl    $0x2,%rax
   1863c:	48 89 c2             	mov    %rax,%rdx
   1863f:	48 8d 05 8a 0e 00 00 	lea    0xe8a(%rip),%rax        # 194d0 <g_2129+0x10>
   18646:	8b 0c 02             	mov    (%rdx,%rax,1),%ecx
   18649:	c1 e9 0b             	shr    $0xb,%ecx
   1864c:	89 c9                	mov    %ecx,%ecx
   1864e:	8b 44 02 04          	mov    0x4(%rdx,%rax,1),%eax
   18652:	89 c0                	mov    %eax,%eax
   18654:	83 e0 7f             	and    $0x7f,%eax
   18657:	48 c1 e0 15          	shl    $0x15,%rax
   1865b:	48 09 c8             	or     %rcx,%rax
   1865e:	48 c1 e0 24          	shl    $0x24,%rax
   18662:	48 c1 f8 24          	sar    $0x24,%rax
   18666:	48 98                	cltq   
   18668:	8b 55 fc             	mov    -0x4(%rbp),%edx
   1866b:	48 8d 35 9c 3d 00 00 	lea    0x3d9c(%rip),%rsi        # 1c40e <g_2129+0x2f4e>
   18672:	48 89 c7             	mov    %rax,%rdi
   18675:	e8 79 e0 fe ff       	callq  66f3 <transparent_crc>
   1867a:	8b 45 f0             	mov    -0x10(%rbp),%eax
   1867d:	48 63 d0             	movslq %eax,%rdx
   18680:	48 89 d0             	mov    %rdx,%rax
   18683:	48 c1 e0 03          	shl    $0x3,%rax
   18687:	48 29 d0             	sub    %rdx,%rax
   1868a:	48 c1 e0 02          	shl    $0x2,%rax
   1868e:	48 89 c2             	mov    %rax,%rdx
   18691:	48 8d 05 38 0e 00 00 	lea    0xe38(%rip),%rax        # 194d0 <g_2129+0x10>
   18698:	8b 4c 02 04          	mov    0x4(%rdx,%rax,1),%ecx
   1869c:	c1 e9 07             	shr    $0x7,%ecx
   1869f:	89 c9                	mov    %ecx,%ecx
   186a1:	0f b6 44 02 08       	movzbl 0x8(%rdx,%rax,1),%eax
   186a6:	83 e0 1f             	and    $0x1f,%eax
   186a9:	48 c1 e0 19          	shl    $0x19,%rax
   186ad:	48 09 c8             	or     %rcx,%rax
   186b0:	48 c1 e0 22          	shl    $0x22,%rax
   186b4:	48 c1 f8 22          	sar    $0x22,%rax
   186b8:	48 98                	cltq   
   186ba:	8b 55 fc             	mov    -0x4(%rbp),%edx
   186bd:	48 8d 35 57 3d 00 00 	lea    0x3d57(%rip),%rsi        # 1c41b <g_2129+0x2f5b>
   186c4:	48 89 c7             	mov    %rax,%rdi
   186c7:	e8 27 e0 fe ff       	callq  66f3 <transparent_crc>
   186cc:	8b 45 f0             	mov    -0x10(%rbp),%eax
   186cf:	48 63 d0             	movslq %eax,%rdx
   186d2:	48 89 d0             	mov    %rdx,%rax
   186d5:	48 c1 e0 03          	shl    $0x3,%rax
   186d9:	48 29 d0             	sub    %rdx,%rax
   186dc:	48 c1 e0 02          	shl    $0x2,%rax
   186e0:	48 89 c2             	mov    %rax,%rdx
   186e3:	48 8d 05 e6 0d 00 00 	lea    0xde6(%rip),%rax        # 194d0 <g_2129+0x10>
   186ea:	0f b7 44 02 08       	movzwl 0x8(%rdx,%rax,1),%eax
   186ef:	66 c1 e8 05          	shr    $0x5,%ax
   186f3:	80 e4 ff             	and    $0xff,%ah
   186f6:	0f b6 c0             	movzbl %al,%eax
   186f9:	8b 55 fc             	mov    -0x4(%rbp),%edx
   186fc:	48 8d 35 25 3d 00 00 	lea    0x3d25(%rip),%rsi        # 1c428 <g_2129+0x2f68>
   18703:	48 89 c7             	mov    %rax,%rdi
   18706:	e8 e8 df fe ff       	callq  66f3 <transparent_crc>
   1870b:	8b 45 f0             	mov    -0x10(%rbp),%eax
   1870e:	48 63 d0             	movslq %eax,%rdx
   18711:	48 89 d0             	mov    %rdx,%rax
   18714:	48 c1 e0 03          	shl    $0x3,%rax
   18718:	48 29 d0             	sub    %rdx,%rax
   1871b:	48 c1 e0 02          	shl    $0x2,%rax
   1871f:	48 89 c2             	mov    %rax,%rdx
   18722:	48 8d 05 a7 0d 00 00 	lea    0xda7(%rip),%rax        # 194d0 <g_2129+0x10>
   18729:	8b 44 02 08          	mov    0x8(%rdx,%rax,1),%eax
   1872d:	c1 e0 07             	shl    $0x7,%eax
   18730:	c1 f8 14             	sar    $0x14,%eax
   18733:	48 0f bf c0          	movswq %ax,%rax
   18737:	8b 55 fc             	mov    -0x4(%rbp),%edx
   1873a:	48 8d 35 f4 3c 00 00 	lea    0x3cf4(%rip),%rsi        # 1c435 <g_2129+0x2f75>
   18741:	48 89 c7             	mov    %rax,%rdi
   18744:	e8 aa df fe ff       	callq  66f3 <transparent_crc>
   18749:	83 7d fc 00          	cmpl   $0x0,-0x4(%rbp)
   1874d:	74 16                	je     18765 <main+0x459c>
   1874f:	8b 45 f0             	mov    -0x10(%rbp),%eax
   18752:	89 c6                	mov    %eax,%esi
   18754:	48 8d 3d d1 2f 00 00 	lea    0x2fd1(%rip),%rdi        # 1b72c <g_2129+0x226c>
   1875b:	b8 00 00 00 00       	mov    $0x0,%eax
   18760:	e8 1b c9 fe ff       	callq  5080 <printf@plt>
   18765:	83 45 f0 01          	addl   $0x1,-0x10(%rbp)
   18769:	83 7d f0 02          	cmpl   $0x2,-0x10(%rbp)
   1876d:	0f 8e 4b fd ff ff    	jle    184be <main+0x42f5>
   18773:	8b 05 a7 68 00 00    	mov    0x68a7(%rip),%eax        # 1f020 <crc32_context>
   18779:	f7 d0                	not    %eax
   1877b:	89 c2                	mov    %eax,%edx
   1877d:	8b 45 fc             	mov    -0x4(%rbp),%eax
   18780:	89 c6                	mov    %eax,%esi
   18782:	89 d7                	mov    %edx,%edi
   18784:	e8 0b ca fe ff       	callq  5194 <platform_main_end>
   18789:	b8 00 00 00 00       	mov    $0x0,%eax
   1878e:	c9                   	leaveq 
   1878f:	c3                   	retq   

0000000000018790 <__libc_csu_init>:
   18790:	f3 0f 1e fa          	endbr64 
   18794:	41 57                	push   %r15
   18796:	4c 8d 3d f3 65 00 00 	lea    0x65f3(%rip),%r15        # 1ed90 <__frame_dummy_init_array_entry>
   1879d:	41 56                	push   %r14
   1879f:	49 89 d6             	mov    %rdx,%r14
   187a2:	41 55                	push   %r13
   187a4:	49 89 f5             	mov    %rsi,%r13
   187a7:	41 54                	push   %r12
   187a9:	41 89 fc             	mov    %edi,%r12d
   187ac:	55                   	push   %rbp
   187ad:	48 8d 2d e4 65 00 00 	lea    0x65e4(%rip),%rbp        # 1ed98 <__do_global_dtors_aux_fini_array_entry>
   187b4:	53                   	push   %rbx
   187b5:	4c 29 fd             	sub    %r15,%rbp
   187b8:	48 83 ec 08          	sub    $0x8,%rsp
   187bc:	e8 3f c8 fe ff       	callq  5000 <_init>
   187c1:	48 c1 fd 03          	sar    $0x3,%rbp
   187c5:	74 1f                	je     187e6 <__libc_csu_init+0x56>
   187c7:	31 db                	xor    %ebx,%ebx
   187c9:	0f 1f 80 00 00 00 00 	nopl   0x0(%rax)
   187d0:	4c 89 f2             	mov    %r14,%rdx
   187d3:	4c 89 ee             	mov    %r13,%rsi
   187d6:	44 89 e7             	mov    %r12d,%edi
   187d9:	41 ff 14 df          	callq  *(%r15,%rbx,8)
   187dd:	48 83 c3 01          	add    $0x1,%rbx
   187e1:	48 39 dd             	cmp    %rbx,%rbp
   187e4:	75 ea                	jne    187d0 <__libc_csu_init+0x40>
   187e6:	48 83 c4 08          	add    $0x8,%rsp
   187ea:	5b                   	pop    %rbx
   187eb:	5d                   	pop    %rbp
   187ec:	41 5c                	pop    %r12
   187ee:	41 5d                	pop    %r13
   187f0:	41 5e                	pop    %r14
   187f2:	41 5f                	pop    %r15
   187f4:	c3                   	retq   
   187f5:	66 66 2e 0f 1f 84 00 	data16 nopw %cs:0x0(%rax,%rax,1)
   187fc:	00 00 00 00 

0000000000018800 <__libc_csu_fini>:
   18800:	f3 0f 1e fa          	endbr64 
   18804:	c3                   	retq   
