


Disassembly of section .text:

00000000000080a0 <_start>:
    80a0:	f3 0f 1e fa          	endbr64 
    80a4:	31 ed                	xor    %ebp,%ebp
    80a6:	49 89 d1             	mov    %rdx,%r9
    80a9:	5e                   	pop    %rsi
    80aa:	48 89 e2             	mov    %rsp,%rdx
    80ad:	48 83 e4 f0          	and    $0xfffffffffffffff0,%rsp
    80b1:	50                   	push   %rax
    80b2:	54                   	push   %rsp
    80b3:	4c 8d 05 66 b0 00 00 	lea    0xb066(%rip),%r8        # 13120 <__libc_csu_fini>
    80ba:	48 8d 0d ef af 00 00 	lea    0xafef(%rip),%rcx        # 130b0 <__libc_csu_init>
    80c1:	48 8d 3d 3d 9a 00 00 	lea    0x9a3d(%rip),%rdi        # 11b05 <main>
    80c8:	ff 15 02 0f 01 00    	callq  *0x10f02(%rip)        # 18fd0 <__libc_start_main@GLIBC_2.2.5>
    80ce:	f4                   	hlt    
    80cf:	90                   	nop

00000000000080d0 <deregister_tm_clones>:
    80d0:	48 8d 3d 51 47 01 00 	lea    0x14751(%rip),%rdi        # 1c828 <__TMC_END__>
    80d7:	48 8d 05 4a 47 01 00 	lea    0x1474a(%rip),%rax        # 1c828 <__TMC_END__>
    80de:	48 39 f8             	cmp    %rdi,%rax
    80e1:	74 15                	je     80f8 <deregister_tm_clones+0x28>
    80e3:	48 8b 05 de 0e 01 00 	mov    0x10ede(%rip),%rax        # 18fc8 <_ITM_deregisterTMCloneTable>
    80ea:	48 85 c0             	test   %rax,%rax
    80ed:	74 09                	je     80f8 <deregister_tm_clones+0x28>
    80ef:	ff e0                	jmpq   *%rax
    80f1:	0f 1f 80 00 00 00 00 	nopl   0x0(%rax)
    80f8:	c3                   	retq   
    80f9:	0f 1f 80 00 00 00 00 	nopl   0x0(%rax)

0000000000008100 <register_tm_clones>:
    8100:	48 8d 3d 21 47 01 00 	lea    0x14721(%rip),%rdi        # 1c828 <__TMC_END__>
    8107:	48 8d 35 1a 47 01 00 	lea    0x1471a(%rip),%rsi        # 1c828 <__TMC_END__>
    810e:	48 29 fe             	sub    %rdi,%rsi
    8111:	48 89 f0             	mov    %rsi,%rax
    8114:	48 c1 ee 3f          	shr    $0x3f,%rsi
    8118:	48 c1 f8 03          	sar    $0x3,%rax
    811c:	48 01 c6             	add    %rax,%rsi
    811f:	48 d1 fe             	sar    %rsi
    8122:	74 14                	je     8138 <register_tm_clones+0x38>
    8124:	48 8b 05 b5 0e 01 00 	mov    0x10eb5(%rip),%rax        # 18fe0 <_ITM_registerTMCloneTable>
    812b:	48 85 c0             	test   %rax,%rax
    812e:	74 08                	je     8138 <register_tm_clones+0x38>
    8130:	ff e0                	jmpq   *%rax
    8132:	66 0f 1f 44 00 00    	nopw   0x0(%rax,%rax,1)
    8138:	c3                   	retq   
    8139:	0f 1f 80 00 00 00 00 	nopl   0x0(%rax)

0000000000008140 <__do_global_dtors_aux>:
    8140:	f3 0f 1e fa          	endbr64 
    8144:	80 3d f5 46 01 00 00 	cmpb   $0x0,0x146f5(%rip)        # 1c840 <completed.8061>
    814b:	75 2b                	jne    8178 <__do_global_dtors_aux+0x38>
    814d:	55                   	push   %rbp
    814e:	48 83 3d 92 0e 01 00 	cmpq   $0x0,0x10e92(%rip)        # 18fe8 <__cxa_finalize@GLIBC_2.2.5>
    8155:	00 
    8156:	48 89 e5             	mov    %rsp,%rbp
    8159:	74 0c                	je     8167 <__do_global_dtors_aux+0x27>
    815b:	48 8b 3d a6 0e 01 00 	mov    0x10ea6(%rip),%rdi        # 19008 <__dso_handle>
    8162:	e8 f9 fe ff ff       	callq  8060 <__cxa_finalize@plt>
    8167:	e8 64 ff ff ff       	callq  80d0 <deregister_tm_clones>
    816c:	c6 05 cd 46 01 00 01 	movb   $0x1,0x146cd(%rip)        # 1c840 <completed.8061>
    8173:	5d                   	pop    %rbp
    8174:	c3                   	retq   
    8175:	0f 1f 00             	nopl   (%rax)
    8178:	c3                   	retq   
    8179:	0f 1f 80 00 00 00 00 	nopl   0x0(%rax)

0000000000008180 <frame_dummy>:
    8180:	f3 0f 1e fa          	endbr64 
    8184:	e9 77 ff ff ff       	jmpq   8100 <register_tm_clones>

0000000000008189 <platform_main_begin>:
    8189:	f3 0f 1e fa          	endbr64 
    818d:	55                   	push   %rbp
    818e:	48 89 e5             	mov    %rsp,%rbp
    8191:	90                   	nop
    8192:	5d                   	pop    %rbp
    8193:	c3                   	retq   

0000000000008194 <platform_main_end>:
    8194:	f3 0f 1e fa          	endbr64 
    8198:	55                   	push   %rbp
    8199:	48 89 e5             	mov    %rsp,%rbp
    819c:	48 83 ec 10          	sub    $0x10,%rsp
    81a0:	89 7d fc             	mov    %edi,-0x4(%rbp)
    81a3:	89 75 f8             	mov    %esi,-0x8(%rbp)
    81a6:	8b 45 fc             	mov    -0x4(%rbp),%eax
    81a9:	89 c6                	mov    %eax,%esi
    81ab:	48 8d 3d 6e be 00 00 	lea    0xbe6e(%rip),%rdi        # 14020 <_IO_stdin_used+0x20>
    81b2:	b8 00 00 00 00       	mov    $0x0,%eax
    81b7:	e8 c4 fe ff ff       	callq  8080 <printf@plt>
    81bc:	90                   	nop
    81bd:	c9                   	leaveq 
    81be:	c3                   	retq   

00000000000081bf <safe_unary_minus_func_int8_t_s>:
    81bf:	f3 0f 1e fa          	endbr64 
    81c3:	55                   	push   %rbp
    81c4:	48 89 e5             	mov    %rsp,%rbp
    81c7:	89 f8                	mov    %edi,%eax
    81c9:	88 45 fc             	mov    %al,-0x4(%rbp)
    81cc:	0f b6 45 fc          	movzbl -0x4(%rbp),%eax
    81d0:	f7 d8                	neg    %eax
    81d2:	5d                   	pop    %rbp
    81d3:	c3                   	retq   

00000000000081d4 <safe_add_func_int8_t_s_s>:
    81d4:	f3 0f 1e fa          	endbr64 
    81d8:	55                   	push   %rbp
    81d9:	48 89 e5             	mov    %rsp,%rbp
    81dc:	89 fa                	mov    %edi,%edx
    81de:	89 f0                	mov    %esi,%eax
    81e0:	88 55 fc             	mov    %dl,-0x4(%rbp)
    81e3:	88 45 f8             	mov    %al,-0x8(%rbp)
    81e6:	0f b6 55 fc          	movzbl -0x4(%rbp),%edx
    81ea:	0f b6 45 f8          	movzbl -0x8(%rbp),%eax
    81ee:	01 d0                	add    %edx,%eax
    81f0:	5d                   	pop    %rbp
    81f1:	c3                   	retq   

00000000000081f2 <safe_sub_func_int8_t_s_s>:
    81f2:	f3 0f 1e fa          	endbr64 
    81f6:	55                   	push   %rbp
    81f7:	48 89 e5             	mov    %rsp,%rbp
    81fa:	89 fa                	mov    %edi,%edx
    81fc:	89 f0                	mov    %esi,%eax
    81fe:	88 55 fc             	mov    %dl,-0x4(%rbp)
    8201:	88 45 f8             	mov    %al,-0x8(%rbp)
    8204:	0f b6 55 fc          	movzbl -0x4(%rbp),%edx
    8208:	0f b6 45 f8          	movzbl -0x8(%rbp),%eax
    820c:	29 c2                	sub    %eax,%edx
    820e:	89 d0                	mov    %edx,%eax
    8210:	5d                   	pop    %rbp
    8211:	c3                   	retq   

0000000000008212 <safe_mul_func_int8_t_s_s>:
    8212:	f3 0f 1e fa          	endbr64 
    8216:	55                   	push   %rbp
    8217:	48 89 e5             	mov    %rsp,%rbp
    821a:	89 fa                	mov    %edi,%edx
    821c:	89 f0                	mov    %esi,%eax
    821e:	88 55 fc             	mov    %dl,-0x4(%rbp)
    8221:	88 45 f8             	mov    %al,-0x8(%rbp)
    8224:	0f b6 45 fc          	movzbl -0x4(%rbp),%eax
    8228:	0f b6 55 f8          	movzbl -0x8(%rbp),%edx
    822c:	0f af c2             	imul   %edx,%eax
    822f:	5d                   	pop    %rbp
    8230:	c3                   	retq   

0000000000008231 <safe_mod_func_int8_t_s_s>:
    8231:	f3 0f 1e fa          	endbr64 
    8235:	55                   	push   %rbp
    8236:	48 89 e5             	mov    %rsp,%rbp
    8239:	89 fa                	mov    %edi,%edx
    823b:	89 f0                	mov    %esi,%eax
    823d:	88 55 fc             	mov    %dl,-0x4(%rbp)
    8240:	88 45 f8             	mov    %al,-0x8(%rbp)
    8243:	80 7d f8 00          	cmpb   $0x0,-0x8(%rbp)
    8247:	74 1b                	je     8264 <safe_mod_func_int8_t_s_s+0x33>
    8249:	80 7d fc 80          	cmpb   $0x80,-0x4(%rbp)
    824d:	75 06                	jne    8255 <safe_mod_func_int8_t_s_s+0x24>
    824f:	80 7d f8 ff          	cmpb   $0xff,-0x8(%rbp)
    8253:	74 0f                	je     8264 <safe_mod_func_int8_t_s_s+0x33>
    8255:	0f be 45 fc          	movsbl -0x4(%rbp),%eax
    8259:	0f be 4d f8          	movsbl -0x8(%rbp),%ecx
    825d:	99                   	cltd   
    825e:	f7 f9                	idiv   %ecx
    8260:	89 d0                	mov    %edx,%eax
    8262:	eb 04                	jmp    8268 <safe_mod_func_int8_t_s_s+0x37>
    8264:	0f b6 45 fc          	movzbl -0x4(%rbp),%eax
    8268:	5d                   	pop    %rbp
    8269:	c3                   	retq   

000000000000826a <safe_div_func_int8_t_s_s>:
    826a:	f3 0f 1e fa          	endbr64 
    826e:	55                   	push   %rbp
    826f:	48 89 e5             	mov    %rsp,%rbp
    8272:	89 fa                	mov    %edi,%edx
    8274:	89 f0                	mov    %esi,%eax
    8276:	88 55 fc             	mov    %dl,-0x4(%rbp)
    8279:	88 45 f8             	mov    %al,-0x8(%rbp)
    827c:	80 7d f8 00          	cmpb   $0x0,-0x8(%rbp)
    8280:	74 19                	je     829b <safe_div_func_int8_t_s_s+0x31>
    8282:	80 7d fc 80          	cmpb   $0x80,-0x4(%rbp)
    8286:	75 06                	jne    828e <safe_div_func_int8_t_s_s+0x24>
    8288:	80 7d f8 ff          	cmpb   $0xff,-0x8(%rbp)
    828c:	74 0d                	je     829b <safe_div_func_int8_t_s_s+0x31>
    828e:	0f be 45 fc          	movsbl -0x4(%rbp),%eax
    8292:	0f be 4d f8          	movsbl -0x8(%rbp),%ecx
    8296:	99                   	cltd   
    8297:	f7 f9                	idiv   %ecx
    8299:	eb 04                	jmp    829f <safe_div_func_int8_t_s_s+0x35>
    829b:	0f b6 45 fc          	movzbl -0x4(%rbp),%eax
    829f:	5d                   	pop    %rbp
    82a0:	c3                   	retq   

00000000000082a1 <safe_lshift_func_int8_t_s_s>:
    82a1:	f3 0f 1e fa          	endbr64 
    82a5:	55                   	push   %rbp
    82a6:	48 89 e5             	mov    %rsp,%rbp
    82a9:	89 f8                	mov    %edi,%eax
    82ab:	89 75 f8             	mov    %esi,-0x8(%rbp)
    82ae:	88 45 fc             	mov    %al,-0x4(%rbp)
    82b1:	80 7d fc 00          	cmpb   $0x0,-0x4(%rbp)
    82b5:	78 31                	js     82e8 <safe_lshift_func_int8_t_s_s+0x47>
    82b7:	83 7d f8 00          	cmpl   $0x0,-0x8(%rbp)
    82bb:	78 2b                	js     82e8 <safe_lshift_func_int8_t_s_s+0x47>
    82bd:	83 7d f8 1f          	cmpl   $0x1f,-0x8(%rbp)
    82c1:	7f 25                	jg     82e8 <safe_lshift_func_int8_t_s_s+0x47>
    82c3:	0f be 55 fc          	movsbl -0x4(%rbp),%edx
    82c7:	8b 45 f8             	mov    -0x8(%rbp),%eax
    82ca:	be 7f 00 00 00       	mov    $0x7f,%esi
    82cf:	89 c1                	mov    %eax,%ecx
    82d1:	d3 fe                	sar    %cl,%esi
    82d3:	89 f0                	mov    %esi,%eax
    82d5:	39 c2                	cmp    %eax,%edx
    82d7:	7f 0f                	jg     82e8 <safe_lshift_func_int8_t_s_s+0x47>
    82d9:	0f be 55 fc          	movsbl -0x4(%rbp),%edx
    82dd:	8b 45 f8             	mov    -0x8(%rbp),%eax
    82e0:	89 c1                	mov    %eax,%ecx
    82e2:	d3 e2                	shl    %cl,%edx
    82e4:	89 d0                	mov    %edx,%eax
    82e6:	eb 04                	jmp    82ec <safe_lshift_func_int8_t_s_s+0x4b>
    82e8:	0f b6 45 fc          	movzbl -0x4(%rbp),%eax
    82ec:	5d                   	pop    %rbp
    82ed:	c3                   	retq   

00000000000082ee <safe_lshift_func_int8_t_s_u>:
    82ee:	f3 0f 1e fa          	endbr64 
    82f2:	55                   	push   %rbp
    82f3:	48 89 e5             	mov    %rsp,%rbp
    82f6:	89 f8                	mov    %edi,%eax
    82f8:	89 75 f8             	mov    %esi,-0x8(%rbp)
    82fb:	88 45 fc             	mov    %al,-0x4(%rbp)
    82fe:	80 7d fc 00          	cmpb   $0x0,-0x4(%rbp)
    8302:	78 2b                	js     832f <safe_lshift_func_int8_t_s_u+0x41>
    8304:	83 7d f8 1f          	cmpl   $0x1f,-0x8(%rbp)
    8308:	77 25                	ja     832f <safe_lshift_func_int8_t_s_u+0x41>
    830a:	0f be 55 fc          	movsbl -0x4(%rbp),%edx
    830e:	8b 45 f8             	mov    -0x8(%rbp),%eax
    8311:	be 7f 00 00 00       	mov    $0x7f,%esi
    8316:	89 c1                	mov    %eax,%ecx
    8318:	d3 fe                	sar    %cl,%esi
    831a:	89 f0                	mov    %esi,%eax
    831c:	39 c2                	cmp    %eax,%edx
    831e:	7f 0f                	jg     832f <safe_lshift_func_int8_t_s_u+0x41>
    8320:	0f be 55 fc          	movsbl -0x4(%rbp),%edx
    8324:	8b 45 f8             	mov    -0x8(%rbp),%eax
    8327:	89 c1                	mov    %eax,%ecx
    8329:	d3 e2                	shl    %cl,%edx
    832b:	89 d0                	mov    %edx,%eax
    832d:	eb 04                	jmp    8333 <safe_lshift_func_int8_t_s_u+0x45>
    832f:	0f b6 45 fc          	movzbl -0x4(%rbp),%eax
    8333:	5d                   	pop    %rbp
    8334:	c3                   	retq   

0000000000008335 <safe_rshift_func_int8_t_s_s>:
    8335:	f3 0f 1e fa          	endbr64 
    8339:	55                   	push   %rbp
    833a:	48 89 e5             	mov    %rsp,%rbp
    833d:	89 f8                	mov    %edi,%eax
    833f:	89 75 f8             	mov    %esi,-0x8(%rbp)
    8342:	88 45 fc             	mov    %al,-0x4(%rbp)
    8345:	80 7d fc 00          	cmpb   $0x0,-0x4(%rbp)
    8349:	78 1b                	js     8366 <safe_rshift_func_int8_t_s_s+0x31>
    834b:	83 7d f8 00          	cmpl   $0x0,-0x8(%rbp)
    834f:	78 15                	js     8366 <safe_rshift_func_int8_t_s_s+0x31>
    8351:	83 7d f8 1f          	cmpl   $0x1f,-0x8(%rbp)
    8355:	7f 0f                	jg     8366 <safe_rshift_func_int8_t_s_s+0x31>
    8357:	0f be 55 fc          	movsbl -0x4(%rbp),%edx
    835b:	8b 45 f8             	mov    -0x8(%rbp),%eax
    835e:	89 c1                	mov    %eax,%ecx
    8360:	d3 fa                	sar    %cl,%edx
    8362:	89 d0                	mov    %edx,%eax
    8364:	eb 04                	jmp    836a <safe_rshift_func_int8_t_s_s+0x35>
    8366:	0f b6 45 fc          	movzbl -0x4(%rbp),%eax
    836a:	5d                   	pop    %rbp
    836b:	c3                   	retq   

000000000000836c <safe_rshift_func_int8_t_s_u>:
    836c:	f3 0f 1e fa          	endbr64 
    8370:	55                   	push   %rbp
    8371:	48 89 e5             	mov    %rsp,%rbp
    8374:	89 f8                	mov    %edi,%eax
    8376:	89 75 f8             	mov    %esi,-0x8(%rbp)
    8379:	88 45 fc             	mov    %al,-0x4(%rbp)
    837c:	80 7d fc 00          	cmpb   $0x0,-0x4(%rbp)
    8380:	78 15                	js     8397 <safe_rshift_func_int8_t_s_u+0x2b>
    8382:	83 7d f8 1f          	cmpl   $0x1f,-0x8(%rbp)
    8386:	77 0f                	ja     8397 <safe_rshift_func_int8_t_s_u+0x2b>
    8388:	0f be 55 fc          	movsbl -0x4(%rbp),%edx
    838c:	8b 45 f8             	mov    -0x8(%rbp),%eax
    838f:	89 c1                	mov    %eax,%ecx
    8391:	d3 fa                	sar    %cl,%edx
    8393:	89 d0                	mov    %edx,%eax
    8395:	eb 04                	jmp    839b <safe_rshift_func_int8_t_s_u+0x2f>
    8397:	0f b6 45 fc          	movzbl -0x4(%rbp),%eax
    839b:	5d                   	pop    %rbp
    839c:	c3                   	retq   

000000000000839d <safe_unary_minus_func_int16_t_s>:
    839d:	f3 0f 1e fa          	endbr64 
    83a1:	55                   	push   %rbp
    83a2:	48 89 e5             	mov    %rsp,%rbp
    83a5:	89 f8                	mov    %edi,%eax
    83a7:	66 89 45 fc          	mov    %ax,-0x4(%rbp)
    83ab:	0f b7 45 fc          	movzwl -0x4(%rbp),%eax
    83af:	f7 d8                	neg    %eax
    83b1:	5d                   	pop    %rbp
    83b2:	c3                   	retq   

00000000000083b3 <safe_add_func_int16_t_s_s>:
    83b3:	f3 0f 1e fa          	endbr64 
    83b7:	55                   	push   %rbp
    83b8:	48 89 e5             	mov    %rsp,%rbp
    83bb:	89 fa                	mov    %edi,%edx
    83bd:	89 f0                	mov    %esi,%eax
    83bf:	66 89 55 fc          	mov    %dx,-0x4(%rbp)
    83c3:	66 89 45 f8          	mov    %ax,-0x8(%rbp)
    83c7:	0f b7 55 fc          	movzwl -0x4(%rbp),%edx
    83cb:	0f b7 45 f8          	movzwl -0x8(%rbp),%eax
    83cf:	01 d0                	add    %edx,%eax
    83d1:	5d                   	pop    %rbp
    83d2:	c3                   	retq   

00000000000083d3 <safe_sub_func_int16_t_s_s>:
    83d3:	f3 0f 1e fa          	endbr64 
    83d7:	55                   	push   %rbp
    83d8:	48 89 e5             	mov    %rsp,%rbp
    83db:	89 fa                	mov    %edi,%edx
    83dd:	89 f0                	mov    %esi,%eax
    83df:	66 89 55 fc          	mov    %dx,-0x4(%rbp)
    83e3:	66 89 45 f8          	mov    %ax,-0x8(%rbp)
    83e7:	0f b7 55 fc          	movzwl -0x4(%rbp),%edx
    83eb:	0f b7 45 f8          	movzwl -0x8(%rbp),%eax
    83ef:	29 c2                	sub    %eax,%edx
    83f1:	89 d0                	mov    %edx,%eax
    83f3:	5d                   	pop    %rbp
    83f4:	c3                   	retq   

00000000000083f5 <safe_mul_func_int16_t_s_s>:
    83f5:	f3 0f 1e fa          	endbr64 
    83f9:	55                   	push   %rbp
    83fa:	48 89 e5             	mov    %rsp,%rbp
    83fd:	89 fa                	mov    %edi,%edx
    83ff:	89 f0                	mov    %esi,%eax
    8401:	66 89 55 fc          	mov    %dx,-0x4(%rbp)
    8405:	66 89 45 f8          	mov    %ax,-0x8(%rbp)
    8409:	0f b7 55 fc          	movzwl -0x4(%rbp),%edx
    840d:	0f b7 45 f8          	movzwl -0x8(%rbp),%eax
    8411:	0f af c2             	imul   %edx,%eax
    8414:	5d                   	pop    %rbp
    8415:	c3                   	retq   

0000000000008416 <safe_mod_func_int16_t_s_s>:
    8416:	f3 0f 1e fa          	endbr64 
    841a:	55                   	push   %rbp
    841b:	48 89 e5             	mov    %rsp,%rbp
    841e:	89 fa                	mov    %edi,%edx
    8420:	89 f0                	mov    %esi,%eax
    8422:	66 89 55 fc          	mov    %dx,-0x4(%rbp)
    8426:	66 89 45 f8          	mov    %ax,-0x8(%rbp)
    842a:	66 83 7d f8 00       	cmpw   $0x0,-0x8(%rbp)
    842f:	74 1e                	je     844f <safe_mod_func_int16_t_s_s+0x39>
    8431:	66 81 7d fc 00 80    	cmpw   $0x8000,-0x4(%rbp)
    8437:	75 07                	jne    8440 <safe_mod_func_int16_t_s_s+0x2a>
    8439:	66 83 7d f8 ff       	cmpw   $0xffff,-0x8(%rbp)
    843e:	74 0f                	je     844f <safe_mod_func_int16_t_s_s+0x39>
    8440:	0f bf 45 fc          	movswl -0x4(%rbp),%eax
    8444:	0f bf 4d f8          	movswl -0x8(%rbp),%ecx
    8448:	99                   	cltd   
    8449:	f7 f9                	idiv   %ecx
    844b:	89 d0                	mov    %edx,%eax
    844d:	eb 04                	jmp    8453 <safe_mod_func_int16_t_s_s+0x3d>
    844f:	0f b7 45 fc          	movzwl -0x4(%rbp),%eax
    8453:	5d                   	pop    %rbp
    8454:	c3                   	retq   

0000000000008455 <safe_div_func_int16_t_s_s>:
    8455:	f3 0f 1e fa          	endbr64 
    8459:	55                   	push   %rbp
    845a:	48 89 e5             	mov    %rsp,%rbp
    845d:	89 fa                	mov    %edi,%edx
    845f:	89 f0                	mov    %esi,%eax
    8461:	66 89 55 fc          	mov    %dx,-0x4(%rbp)
    8465:	66 89 45 f8          	mov    %ax,-0x8(%rbp)
    8469:	66 83 7d f8 00       	cmpw   $0x0,-0x8(%rbp)
    846e:	74 1c                	je     848c <safe_div_func_int16_t_s_s+0x37>
    8470:	66 81 7d fc 00 80    	cmpw   $0x8000,-0x4(%rbp)
    8476:	75 07                	jne    847f <safe_div_func_int16_t_s_s+0x2a>
    8478:	66 83 7d f8 ff       	cmpw   $0xffff,-0x8(%rbp)
    847d:	74 0d                	je     848c <safe_div_func_int16_t_s_s+0x37>
    847f:	0f bf 45 fc          	movswl -0x4(%rbp),%eax
    8483:	0f bf 4d f8          	movswl -0x8(%rbp),%ecx
    8487:	99                   	cltd   
    8488:	f7 f9                	idiv   %ecx
    848a:	eb 04                	jmp    8490 <safe_div_func_int16_t_s_s+0x3b>
    848c:	0f b7 45 fc          	movzwl -0x4(%rbp),%eax
    8490:	5d                   	pop    %rbp
    8491:	c3                   	retq   

0000000000008492 <safe_lshift_func_int16_t_s_s>:
    8492:	f3 0f 1e fa          	endbr64 
    8496:	55                   	push   %rbp
    8497:	48 89 e5             	mov    %rsp,%rbp
    849a:	89 f8                	mov    %edi,%eax
    849c:	89 75 f8             	mov    %esi,-0x8(%rbp)
    849f:	66 89 45 fc          	mov    %ax,-0x4(%rbp)
    84a3:	66 83 7d fc 00       	cmpw   $0x0,-0x4(%rbp)
    84a8:	78 31                	js     84db <safe_lshift_func_int16_t_s_s+0x49>
    84aa:	83 7d f8 00          	cmpl   $0x0,-0x8(%rbp)
    84ae:	78 2b                	js     84db <safe_lshift_func_int16_t_s_s+0x49>
    84b0:	83 7d f8 1f          	cmpl   $0x1f,-0x8(%rbp)
    84b4:	7f 25                	jg     84db <safe_lshift_func_int16_t_s_s+0x49>
    84b6:	0f bf 55 fc          	movswl -0x4(%rbp),%edx
    84ba:	8b 45 f8             	mov    -0x8(%rbp),%eax
    84bd:	be ff 7f 00 00       	mov    $0x7fff,%esi
    84c2:	89 c1                	mov    %eax,%ecx
    84c4:	d3 fe                	sar    %cl,%esi
    84c6:	89 f0                	mov    %esi,%eax
    84c8:	39 c2                	cmp    %eax,%edx
    84ca:	7f 0f                	jg     84db <safe_lshift_func_int16_t_s_s+0x49>
    84cc:	0f bf 55 fc          	movswl -0x4(%rbp),%edx
    84d0:	8b 45 f8             	mov    -0x8(%rbp),%eax
    84d3:	89 c1                	mov    %eax,%ecx
    84d5:	d3 e2                	shl    %cl,%edx
    84d7:	89 d0                	mov    %edx,%eax
    84d9:	eb 04                	jmp    84df <safe_lshift_func_int16_t_s_s+0x4d>
    84db:	0f b7 45 fc          	movzwl -0x4(%rbp),%eax
    84df:	5d                   	pop    %rbp
    84e0:	c3                   	retq   

00000000000084e1 <safe_lshift_func_int16_t_s_u>:
    84e1:	f3 0f 1e fa          	endbr64 
    84e5:	55                   	push   %rbp
    84e6:	48 89 e5             	mov    %rsp,%rbp
    84e9:	89 f8                	mov    %edi,%eax
    84eb:	89 75 f8             	mov    %esi,-0x8(%rbp)
    84ee:	66 89 45 fc          	mov    %ax,-0x4(%rbp)
    84f2:	66 83 7d fc 00       	cmpw   $0x0,-0x4(%rbp)
    84f7:	78 2b                	js     8524 <safe_lshift_func_int16_t_s_u+0x43>
    84f9:	83 7d f8 1f          	cmpl   $0x1f,-0x8(%rbp)
    84fd:	77 25                	ja     8524 <safe_lshift_func_int16_t_s_u+0x43>
    84ff:	0f bf 55 fc          	movswl -0x4(%rbp),%edx
    8503:	8b 45 f8             	mov    -0x8(%rbp),%eax
    8506:	be ff 7f 00 00       	mov    $0x7fff,%esi
    850b:	89 c1                	mov    %eax,%ecx
    850d:	d3 fe                	sar    %cl,%esi
    850f:	89 f0                	mov    %esi,%eax
    8511:	39 c2                	cmp    %eax,%edx
    8513:	7f 0f                	jg     8524 <safe_lshift_func_int16_t_s_u+0x43>
    8515:	0f bf 55 fc          	movswl -0x4(%rbp),%edx
    8519:	8b 45 f8             	mov    -0x8(%rbp),%eax
    851c:	89 c1                	mov    %eax,%ecx
    851e:	d3 e2                	shl    %cl,%edx
    8520:	89 d0                	mov    %edx,%eax
    8522:	eb 04                	jmp    8528 <safe_lshift_func_int16_t_s_u+0x47>
    8524:	0f b7 45 fc          	movzwl -0x4(%rbp),%eax
    8528:	5d                   	pop    %rbp
    8529:	c3                   	retq   

000000000000852a <safe_rshift_func_int16_t_s_s>:
    852a:	f3 0f 1e fa          	endbr64 
    852e:	55                   	push   %rbp
    852f:	48 89 e5             	mov    %rsp,%rbp
    8532:	89 f8                	mov    %edi,%eax
    8534:	89 75 f8             	mov    %esi,-0x8(%rbp)
    8537:	66 89 45 fc          	mov    %ax,-0x4(%rbp)
    853b:	66 83 7d fc 00       	cmpw   $0x0,-0x4(%rbp)
    8540:	78 1b                	js     855d <safe_rshift_func_int16_t_s_s+0x33>
    8542:	83 7d f8 00          	cmpl   $0x0,-0x8(%rbp)
    8546:	78 15                	js     855d <safe_rshift_func_int16_t_s_s+0x33>
    8548:	83 7d f8 1f          	cmpl   $0x1f,-0x8(%rbp)
    854c:	7f 0f                	jg     855d <safe_rshift_func_int16_t_s_s+0x33>
    854e:	0f bf 55 fc          	movswl -0x4(%rbp),%edx
    8552:	8b 45 f8             	mov    -0x8(%rbp),%eax
    8555:	89 c1                	mov    %eax,%ecx
    8557:	d3 fa                	sar    %cl,%edx
    8559:	89 d0                	mov    %edx,%eax
    855b:	eb 04                	jmp    8561 <safe_rshift_func_int16_t_s_s+0x37>
    855d:	0f b7 45 fc          	movzwl -0x4(%rbp),%eax
    8561:	5d                   	pop    %rbp
    8562:	c3                   	retq   

0000000000008563 <safe_rshift_func_int16_t_s_u>:
    8563:	f3 0f 1e fa          	endbr64 
    8567:	55                   	push   %rbp
    8568:	48 89 e5             	mov    %rsp,%rbp
    856b:	89 f8                	mov    %edi,%eax
    856d:	89 75 f8             	mov    %esi,-0x8(%rbp)
    8570:	66 89 45 fc          	mov    %ax,-0x4(%rbp)
    8574:	66 83 7d fc 00       	cmpw   $0x0,-0x4(%rbp)
    8579:	78 15                	js     8590 <safe_rshift_func_int16_t_s_u+0x2d>
    857b:	83 7d f8 1f          	cmpl   $0x1f,-0x8(%rbp)
    857f:	77 0f                	ja     8590 <safe_rshift_func_int16_t_s_u+0x2d>
    8581:	0f bf 55 fc          	movswl -0x4(%rbp),%edx
    8585:	8b 45 f8             	mov    -0x8(%rbp),%eax
    8588:	89 c1                	mov    %eax,%ecx
    858a:	d3 fa                	sar    %cl,%edx
    858c:	89 d0                	mov    %edx,%eax
    858e:	eb 04                	jmp    8594 <safe_rshift_func_int16_t_s_u+0x31>
    8590:	0f b7 45 fc          	movzwl -0x4(%rbp),%eax
    8594:	5d                   	pop    %rbp
    8595:	c3                   	retq   

0000000000008596 <safe_unary_minus_func_int32_t_s>:
    8596:	f3 0f 1e fa          	endbr64 
    859a:	55                   	push   %rbp
    859b:	48 89 e5             	mov    %rsp,%rbp
    859e:	89 7d fc             	mov    %edi,-0x4(%rbp)
    85a1:	81 7d fc 00 00 00 80 	cmpl   $0x80000000,-0x4(%rbp)
    85a8:	74 07                	je     85b1 <safe_unary_minus_func_int32_t_s+0x1b>
    85aa:	8b 45 fc             	mov    -0x4(%rbp),%eax
    85ad:	f7 d8                	neg    %eax
    85af:	eb 03                	jmp    85b4 <safe_unary_minus_func_int32_t_s+0x1e>
    85b1:	8b 45 fc             	mov    -0x4(%rbp),%eax
    85b4:	5d                   	pop    %rbp
    85b5:	c3                   	retq   

00000000000085b6 <safe_add_func_int32_t_s_s>:
    85b6:	f3 0f 1e fa          	endbr64 
    85ba:	55                   	push   %rbp
    85bb:	48 89 e5             	mov    %rsp,%rbp
    85be:	89 7d fc             	mov    %edi,-0x4(%rbp)
    85c1:	89 75 f8             	mov    %esi,-0x8(%rbp)
    85c4:	83 7d fc 00          	cmpl   $0x0,-0x4(%rbp)
    85c8:	7e 13                	jle    85dd <safe_add_func_int32_t_s_s+0x27>
    85ca:	83 7d f8 00          	cmpl   $0x0,-0x8(%rbp)
    85ce:	7e 0d                	jle    85dd <safe_add_func_int32_t_s_s+0x27>
    85d0:	b8 ff ff ff 7f       	mov    $0x7fffffff,%eax
    85d5:	2b 45 f8             	sub    -0x8(%rbp),%eax
    85d8:	39 45 fc             	cmp    %eax,-0x4(%rbp)
    85db:	7f 23                	jg     8600 <safe_add_func_int32_t_s_s+0x4a>
    85dd:	83 7d fc 00          	cmpl   $0x0,-0x4(%rbp)
    85e1:	79 13                	jns    85f6 <safe_add_func_int32_t_s_s+0x40>
    85e3:	83 7d f8 00          	cmpl   $0x0,-0x8(%rbp)
    85e7:	79 0d                	jns    85f6 <safe_add_func_int32_t_s_s+0x40>
    85e9:	b8 00 00 00 80       	mov    $0x80000000,%eax
    85ee:	2b 45 f8             	sub    -0x8(%rbp),%eax
    85f1:	39 45 fc             	cmp    %eax,-0x4(%rbp)
    85f4:	7c 0a                	jl     8600 <safe_add_func_int32_t_s_s+0x4a>
    85f6:	8b 55 fc             	mov    -0x4(%rbp),%edx
    85f9:	8b 45 f8             	mov    -0x8(%rbp),%eax
    85fc:	01 d0                	add    %edx,%eax
    85fe:	eb 03                	jmp    8603 <safe_add_func_int32_t_s_s+0x4d>
    8600:	8b 45 fc             	mov    -0x4(%rbp),%eax
    8603:	5d                   	pop    %rbp
    8604:	c3                   	retq   

0000000000008605 <safe_sub_func_int32_t_s_s>:
    8605:	f3 0f 1e fa          	endbr64 
    8609:	55                   	push   %rbp
    860a:	48 89 e5             	mov    %rsp,%rbp
    860d:	89 7d fc             	mov    %edi,-0x4(%rbp)
    8610:	89 75 f8             	mov    %esi,-0x8(%rbp)
    8613:	8b 45 fc             	mov    -0x4(%rbp),%eax
    8616:	33 45 f8             	xor    -0x8(%rbp),%eax
    8619:	89 c2                	mov    %eax,%edx
    861b:	8b 45 fc             	mov    -0x4(%rbp),%eax
    861e:	33 45 f8             	xor    -0x8(%rbp),%eax
    8621:	25 00 00 00 80       	and    $0x80000000,%eax
    8626:	33 45 fc             	xor    -0x4(%rbp),%eax
    8629:	2b 45 f8             	sub    -0x8(%rbp),%eax
    862c:	33 45 f8             	xor    -0x8(%rbp),%eax
    862f:	21 d0                	and    %edx,%eax
    8631:	85 c0                	test   %eax,%eax
    8633:	78 08                	js     863d <safe_sub_func_int32_t_s_s+0x38>
    8635:	8b 45 fc             	mov    -0x4(%rbp),%eax
    8638:	2b 45 f8             	sub    -0x8(%rbp),%eax
    863b:	eb 03                	jmp    8640 <safe_sub_func_int32_t_s_s+0x3b>
    863d:	8b 45 fc             	mov    -0x4(%rbp),%eax
    8640:	5d                   	pop    %rbp
    8641:	c3                   	retq   

0000000000008642 <safe_mul_func_int32_t_s_s>:
    8642:	f3 0f 1e fa          	endbr64 
    8646:	55                   	push   %rbp
    8647:	48 89 e5             	mov    %rsp,%rbp
    864a:	89 7d fc             	mov    %edi,-0x4(%rbp)
    864d:	89 75 f8             	mov    %esi,-0x8(%rbp)
    8650:	83 7d fc 00          	cmpl   $0x0,-0x4(%rbp)
    8654:	7e 14                	jle    866a <safe_mul_func_int32_t_s_s+0x28>
    8656:	83 7d f8 00          	cmpl   $0x0,-0x8(%rbp)
    865a:	7e 0e                	jle    866a <safe_mul_func_int32_t_s_s+0x28>
    865c:	b8 ff ff ff 7f       	mov    $0x7fffffff,%eax
    8661:	99                   	cltd   
    8662:	f7 7d f8             	idivl  -0x8(%rbp)
    8665:	39 45 fc             	cmp    %eax,-0x4(%rbp)
    8668:	7f 5d                	jg     86c7 <safe_mul_func_int32_t_s_s+0x85>
    866a:	83 7d fc 00          	cmpl   $0x0,-0x4(%rbp)
    866e:	7e 14                	jle    8684 <safe_mul_func_int32_t_s_s+0x42>
    8670:	83 7d f8 00          	cmpl   $0x0,-0x8(%rbp)
    8674:	7f 0e                	jg     8684 <safe_mul_func_int32_t_s_s+0x42>
    8676:	b8 00 00 00 80       	mov    $0x80000000,%eax
    867b:	99                   	cltd   
    867c:	f7 7d fc             	idivl  -0x4(%rbp)
    867f:	39 45 f8             	cmp    %eax,-0x8(%rbp)
    8682:	7c 43                	jl     86c7 <safe_mul_func_int32_t_s_s+0x85>
    8684:	83 7d fc 00          	cmpl   $0x0,-0x4(%rbp)
    8688:	7f 14                	jg     869e <safe_mul_func_int32_t_s_s+0x5c>
    868a:	83 7d f8 00          	cmpl   $0x0,-0x8(%rbp)
    868e:	7e 0e                	jle    869e <safe_mul_func_int32_t_s_s+0x5c>
    8690:	b8 00 00 00 80       	mov    $0x80000000,%eax
    8695:	99                   	cltd   
    8696:	f7 7d f8             	idivl  -0x8(%rbp)
    8699:	39 45 fc             	cmp    %eax,-0x4(%rbp)
    869c:	7c 29                	jl     86c7 <safe_mul_func_int32_t_s_s+0x85>
    869e:	83 7d fc 00          	cmpl   $0x0,-0x4(%rbp)
    86a2:	7f 1a                	jg     86be <safe_mul_func_int32_t_s_s+0x7c>
    86a4:	83 7d f8 00          	cmpl   $0x0,-0x8(%rbp)
    86a8:	7f 14                	jg     86be <safe_mul_func_int32_t_s_s+0x7c>
    86aa:	83 7d fc 00          	cmpl   $0x0,-0x4(%rbp)
    86ae:	74 0e                	je     86be <safe_mul_func_int32_t_s_s+0x7c>
    86b0:	b8 ff ff ff 7f       	mov    $0x7fffffff,%eax
    86b5:	99                   	cltd   
    86b6:	f7 7d fc             	idivl  -0x4(%rbp)
    86b9:	39 45 f8             	cmp    %eax,-0x8(%rbp)
    86bc:	7c 09                	jl     86c7 <safe_mul_func_int32_t_s_s+0x85>
    86be:	8b 45 fc             	mov    -0x4(%rbp),%eax
    86c1:	0f af 45 f8          	imul   -0x8(%rbp),%eax
    86c5:	eb 03                	jmp    86ca <safe_mul_func_int32_t_s_s+0x88>
    86c7:	8b 45 fc             	mov    -0x4(%rbp),%eax
    86ca:	5d                   	pop    %rbp
    86cb:	c3                   	retq   

00000000000086cc <safe_mod_func_int32_t_s_s>:
    86cc:	f3 0f 1e fa          	endbr64 
    86d0:	55                   	push   %rbp
    86d1:	48 89 e5             	mov    %rsp,%rbp
    86d4:	89 7d fc             	mov    %edi,-0x4(%rbp)
    86d7:	89 75 f8             	mov    %esi,-0x8(%rbp)
    86da:	83 7d f8 00          	cmpl   $0x0,-0x8(%rbp)
    86de:	74 1a                	je     86fa <safe_mod_func_int32_t_s_s+0x2e>
    86e0:	81 7d fc 00 00 00 80 	cmpl   $0x80000000,-0x4(%rbp)
    86e7:	75 06                	jne    86ef <safe_mod_func_int32_t_s_s+0x23>
    86e9:	83 7d f8 ff          	cmpl   $0xffffffff,-0x8(%rbp)
    86ed:	74 0b                	je     86fa <safe_mod_func_int32_t_s_s+0x2e>
    86ef:	8b 45 fc             	mov    -0x4(%rbp),%eax
    86f2:	99                   	cltd   
    86f3:	f7 7d f8             	idivl  -0x8(%rbp)
    86f6:	89 d0                	mov    %edx,%eax
    86f8:	eb 03                	jmp    86fd <safe_mod_func_int32_t_s_s+0x31>
    86fa:	8b 45 fc             	mov    -0x4(%rbp),%eax
    86fd:	5d                   	pop    %rbp
    86fe:	c3                   	retq   

00000000000086ff <safe_div_func_int32_t_s_s>:
    86ff:	f3 0f 1e fa          	endbr64 
    8703:	55                   	push   %rbp
    8704:	48 89 e5             	mov    %rsp,%rbp
    8707:	89 7d fc             	mov    %edi,-0x4(%rbp)
    870a:	89 75 f8             	mov    %esi,-0x8(%rbp)
    870d:	83 7d f8 00          	cmpl   $0x0,-0x8(%rbp)
    8711:	74 18                	je     872b <safe_div_func_int32_t_s_s+0x2c>
    8713:	81 7d fc 00 00 00 80 	cmpl   $0x80000000,-0x4(%rbp)
    871a:	75 06                	jne    8722 <safe_div_func_int32_t_s_s+0x23>
    871c:	83 7d f8 ff          	cmpl   $0xffffffff,-0x8(%rbp)
    8720:	74 09                	je     872b <safe_div_func_int32_t_s_s+0x2c>
    8722:	8b 45 fc             	mov    -0x4(%rbp),%eax
    8725:	99                   	cltd   
    8726:	f7 7d f8             	idivl  -0x8(%rbp)
    8729:	eb 03                	jmp    872e <safe_div_func_int32_t_s_s+0x2f>
    872b:	8b 45 fc             	mov    -0x4(%rbp),%eax
    872e:	5d                   	pop    %rbp
    872f:	c3                   	retq   

0000000000008730 <safe_lshift_func_int32_t_s_s>:
    8730:	f3 0f 1e fa          	endbr64 
    8734:	55                   	push   %rbp
    8735:	48 89 e5             	mov    %rsp,%rbp
    8738:	89 7d fc             	mov    %edi,-0x4(%rbp)
    873b:	89 75 f8             	mov    %esi,-0x8(%rbp)
    873e:	83 7d fc 00          	cmpl   $0x0,-0x4(%rbp)
    8742:	78 2d                	js     8771 <safe_lshift_func_int32_t_s_s+0x41>
    8744:	83 7d f8 00          	cmpl   $0x0,-0x8(%rbp)
    8748:	78 27                	js     8771 <safe_lshift_func_int32_t_s_s+0x41>
    874a:	83 7d f8 1f          	cmpl   $0x1f,-0x8(%rbp)
    874e:	7f 21                	jg     8771 <safe_lshift_func_int32_t_s_s+0x41>
    8750:	8b 45 f8             	mov    -0x8(%rbp),%eax
    8753:	ba ff ff ff 7f       	mov    $0x7fffffff,%edx
    8758:	89 c1                	mov    %eax,%ecx
    875a:	d3 fa                	sar    %cl,%edx
    875c:	89 d0                	mov    %edx,%eax
    875e:	39 45 fc             	cmp    %eax,-0x4(%rbp)
    8761:	7f 0e                	jg     8771 <safe_lshift_func_int32_t_s_s+0x41>
    8763:	8b 45 f8             	mov    -0x8(%rbp),%eax
    8766:	8b 55 fc             	mov    -0x4(%rbp),%edx
    8769:	89 c1                	mov    %eax,%ecx
    876b:	d3 e2                	shl    %cl,%edx
    876d:	89 d0                	mov    %edx,%eax
    876f:	eb 03                	jmp    8774 <safe_lshift_func_int32_t_s_s+0x44>
    8771:	8b 45 fc             	mov    -0x4(%rbp),%eax
    8774:	5d                   	pop    %rbp
    8775:	c3                   	retq   

0000000000008776 <safe_lshift_func_int32_t_s_u>:
    8776:	f3 0f 1e fa          	endbr64 
    877a:	55                   	push   %rbp
    877b:	48 89 e5             	mov    %rsp,%rbp
    877e:	89 7d fc             	mov    %edi,-0x4(%rbp)
    8781:	89 75 f8             	mov    %esi,-0x8(%rbp)
    8784:	83 7d fc 00          	cmpl   $0x0,-0x4(%rbp)
    8788:	78 27                	js     87b1 <safe_lshift_func_int32_t_s_u+0x3b>
    878a:	83 7d f8 1f          	cmpl   $0x1f,-0x8(%rbp)
    878e:	77 21                	ja     87b1 <safe_lshift_func_int32_t_s_u+0x3b>
    8790:	8b 45 f8             	mov    -0x8(%rbp),%eax
    8793:	ba ff ff ff 7f       	mov    $0x7fffffff,%edx
    8798:	89 c1                	mov    %eax,%ecx
    879a:	d3 fa                	sar    %cl,%edx
    879c:	89 d0                	mov    %edx,%eax
    879e:	39 45 fc             	cmp    %eax,-0x4(%rbp)
    87a1:	7f 0e                	jg     87b1 <safe_lshift_func_int32_t_s_u+0x3b>
    87a3:	8b 45 f8             	mov    -0x8(%rbp),%eax
    87a6:	8b 55 fc             	mov    -0x4(%rbp),%edx
    87a9:	89 c1                	mov    %eax,%ecx
    87ab:	d3 e2                	shl    %cl,%edx
    87ad:	89 d0                	mov    %edx,%eax
    87af:	eb 03                	jmp    87b4 <safe_lshift_func_int32_t_s_u+0x3e>
    87b1:	8b 45 fc             	mov    -0x4(%rbp),%eax
    87b4:	5d                   	pop    %rbp
    87b5:	c3                   	retq   

00000000000087b6 <safe_rshift_func_int32_t_s_s>:
    87b6:	f3 0f 1e fa          	endbr64 
    87ba:	55                   	push   %rbp
    87bb:	48 89 e5             	mov    %rsp,%rbp
    87be:	89 7d fc             	mov    %edi,-0x4(%rbp)
    87c1:	89 75 f8             	mov    %esi,-0x8(%rbp)
    87c4:	83 7d fc 00          	cmpl   $0x0,-0x4(%rbp)
    87c8:	78 1a                	js     87e4 <safe_rshift_func_int32_t_s_s+0x2e>
    87ca:	83 7d f8 00          	cmpl   $0x0,-0x8(%rbp)
    87ce:	78 14                	js     87e4 <safe_rshift_func_int32_t_s_s+0x2e>
    87d0:	83 7d f8 1f          	cmpl   $0x1f,-0x8(%rbp)
    87d4:	7f 0e                	jg     87e4 <safe_rshift_func_int32_t_s_s+0x2e>
    87d6:	8b 45 f8             	mov    -0x8(%rbp),%eax
    87d9:	8b 55 fc             	mov    -0x4(%rbp),%edx
    87dc:	89 c1                	mov    %eax,%ecx
    87de:	d3 fa                	sar    %cl,%edx
    87e0:	89 d0                	mov    %edx,%eax
    87e2:	eb 03                	jmp    87e7 <safe_rshift_func_int32_t_s_s+0x31>
    87e4:	8b 45 fc             	mov    -0x4(%rbp),%eax
    87e7:	5d                   	pop    %rbp
    87e8:	c3                   	retq   

00000000000087e9 <safe_rshift_func_int32_t_s_u>:
    87e9:	f3 0f 1e fa          	endbr64 
    87ed:	55                   	push   %rbp
    87ee:	48 89 e5             	mov    %rsp,%rbp
    87f1:	89 7d fc             	mov    %edi,-0x4(%rbp)
    87f4:	89 75 f8             	mov    %esi,-0x8(%rbp)
    87f7:	83 7d fc 00          	cmpl   $0x0,-0x4(%rbp)
    87fb:	78 14                	js     8811 <safe_rshift_func_int32_t_s_u+0x28>
    87fd:	83 7d f8 1f          	cmpl   $0x1f,-0x8(%rbp)
    8801:	77 0e                	ja     8811 <safe_rshift_func_int32_t_s_u+0x28>
    8803:	8b 45 f8             	mov    -0x8(%rbp),%eax
    8806:	8b 55 fc             	mov    -0x4(%rbp),%edx
    8809:	89 c1                	mov    %eax,%ecx
    880b:	d3 fa                	sar    %cl,%edx
    880d:	89 d0                	mov    %edx,%eax
    880f:	eb 03                	jmp    8814 <safe_rshift_func_int32_t_s_u+0x2b>
    8811:	8b 45 fc             	mov    -0x4(%rbp),%eax
    8814:	5d                   	pop    %rbp
    8815:	c3                   	retq   

0000000000008816 <safe_unary_minus_func_int64_t_s>:
    8816:	f3 0f 1e fa          	endbr64 
    881a:	55                   	push   %rbp
    881b:	48 89 e5             	mov    %rsp,%rbp
    881e:	48 89 7d f8          	mov    %rdi,-0x8(%rbp)
    8822:	48 b8 00 00 00 00 00 	movabs $0x8000000000000000,%rax
    8829:	00 00 80 
    882c:	48 39 45 f8          	cmp    %rax,-0x8(%rbp)
    8830:	74 09                	je     883b <safe_unary_minus_func_int64_t_s+0x25>
    8832:	48 8b 45 f8          	mov    -0x8(%rbp),%rax
    8836:	48 f7 d8             	neg    %rax
    8839:	eb 04                	jmp    883f <safe_unary_minus_func_int64_t_s+0x29>
    883b:	48 8b 45 f8          	mov    -0x8(%rbp),%rax
    883f:	5d                   	pop    %rbp
    8840:	c3                   	retq   

0000000000008841 <safe_add_func_int64_t_s_s>:
    8841:	f3 0f 1e fa          	endbr64 
    8845:	55                   	push   %rbp
    8846:	48 89 e5             	mov    %rsp,%rbp
    8849:	48 89 7d f8          	mov    %rdi,-0x8(%rbp)
    884d:	48 89 75 f0          	mov    %rsi,-0x10(%rbp)
    8851:	48 83 7d f8 00       	cmpq   $0x0,-0x8(%rbp)
    8856:	7e 1b                	jle    8873 <safe_add_func_int64_t_s_s+0x32>
    8858:	48 83 7d f0 00       	cmpq   $0x0,-0x10(%rbp)
    885d:	7e 14                	jle    8873 <safe_add_func_int64_t_s_s+0x32>
    885f:	48 b8 ff ff ff ff ff 	movabs $0x7fffffffffffffff,%rax
    8866:	ff ff 7f 
    8869:	48 2b 45 f0          	sub    -0x10(%rbp),%rax
    886d:	48 39 45 f8          	cmp    %rax,-0x8(%rbp)
    8871:	7f 2f                	jg     88a2 <safe_add_func_int64_t_s_s+0x61>
    8873:	48 83 7d f8 00       	cmpq   $0x0,-0x8(%rbp)
    8878:	79 1b                	jns    8895 <safe_add_func_int64_t_s_s+0x54>
    887a:	48 83 7d f0 00       	cmpq   $0x0,-0x10(%rbp)
    887f:	79 14                	jns    8895 <safe_add_func_int64_t_s_s+0x54>
    8881:	48 b8 00 00 00 00 00 	movabs $0x8000000000000000,%rax
    8888:	00 00 80 
    888b:	48 2b 45 f0          	sub    -0x10(%rbp),%rax
    888f:	48 39 45 f8          	cmp    %rax,-0x8(%rbp)
    8893:	7c 0d                	jl     88a2 <safe_add_func_int64_t_s_s+0x61>
    8895:	48 8b 55 f8          	mov    -0x8(%rbp),%rdx
    8899:	48 8b 45 f0          	mov    -0x10(%rbp),%rax
    889d:	48 01 d0             	add    %rdx,%rax
    88a0:	eb 04                	jmp    88a6 <safe_add_func_int64_t_s_s+0x65>
    88a2:	48 8b 45 f8          	mov    -0x8(%rbp),%rax
    88a6:	5d                   	pop    %rbp
    88a7:	c3                   	retq   

00000000000088a8 <safe_sub_func_int64_t_s_s>:
    88a8:	f3 0f 1e fa          	endbr64 
    88ac:	55                   	push   %rbp
    88ad:	48 89 e5             	mov    %rsp,%rbp
    88b0:	48 89 7d f8          	mov    %rdi,-0x8(%rbp)
    88b4:	48 89 75 f0          	mov    %rsi,-0x10(%rbp)
    88b8:	48 8b 45 f8          	mov    -0x8(%rbp),%rax
    88bc:	48 33 45 f0          	xor    -0x10(%rbp),%rax
    88c0:	48 89 c2             	mov    %rax,%rdx
    88c3:	48 8b 45 f8          	mov    -0x8(%rbp),%rax
    88c7:	48 33 45 f0          	xor    -0x10(%rbp),%rax
    88cb:	48 b9 00 00 00 00 00 	movabs $0x8000000000000000,%rcx
    88d2:	00 00 80 
    88d5:	48 21 c8             	and    %rcx,%rax
    88d8:	48 33 45 f8          	xor    -0x8(%rbp),%rax
    88dc:	48 2b 45 f0          	sub    -0x10(%rbp),%rax
    88e0:	48 33 45 f0          	xor    -0x10(%rbp),%rax
    88e4:	48 21 d0             	and    %rdx,%rax
    88e7:	48 85 c0             	test   %rax,%rax
    88ea:	78 0a                	js     88f6 <safe_sub_func_int64_t_s_s+0x4e>
    88ec:	48 8b 45 f8          	mov    -0x8(%rbp),%rax
    88f0:	48 2b 45 f0          	sub    -0x10(%rbp),%rax
    88f4:	eb 04                	jmp    88fa <safe_sub_func_int64_t_s_s+0x52>
    88f6:	48 8b 45 f8          	mov    -0x8(%rbp),%rax
    88fa:	5d                   	pop    %rbp
    88fb:	c3                   	retq   

00000000000088fc <safe_mul_func_int64_t_s_s>:
    88fc:	f3 0f 1e fa          	endbr64 
    8900:	55                   	push   %rbp
    8901:	48 89 e5             	mov    %rsp,%rbp
    8904:	48 89 7d f8          	mov    %rdi,-0x8(%rbp)
    8908:	48 89 75 f0          	mov    %rsi,-0x10(%rbp)
    890c:	48 83 7d f8 00       	cmpq   $0x0,-0x8(%rbp)
    8911:	7e 1d                	jle    8930 <safe_mul_func_int64_t_s_s+0x34>
    8913:	48 83 7d f0 00       	cmpq   $0x0,-0x10(%rbp)
    8918:	7e 16                	jle    8930 <safe_mul_func_int64_t_s_s+0x34>
    891a:	48 b8 ff ff ff ff ff 	movabs $0x7fffffffffffffff,%rax
    8921:	ff ff 7f 
    8924:	48 99                	cqto   
    8926:	48 f7 7d f0          	idivq  -0x10(%rbp)
    892a:	48 39 45 f8          	cmp    %rax,-0x8(%rbp)
    892e:	7f 7e                	jg     89ae <safe_mul_func_int64_t_s_s+0xb2>
    8930:	48 83 7d f8 00       	cmpq   $0x0,-0x8(%rbp)
    8935:	7e 1d                	jle    8954 <safe_mul_func_int64_t_s_s+0x58>
    8937:	48 83 7d f0 00       	cmpq   $0x0,-0x10(%rbp)
    893c:	7f 16                	jg     8954 <safe_mul_func_int64_t_s_s+0x58>
    893e:	48 b8 00 00 00 00 00 	movabs $0x8000000000000000,%rax
    8945:	00 00 80 
    8948:	48 99                	cqto   
    894a:	48 f7 7d f8          	idivq  -0x8(%rbp)
    894e:	48 39 45 f0          	cmp    %rax,-0x10(%rbp)
    8952:	7c 5a                	jl     89ae <safe_mul_func_int64_t_s_s+0xb2>
    8954:	48 83 7d f8 00       	cmpq   $0x0,-0x8(%rbp)
    8959:	7f 1d                	jg     8978 <safe_mul_func_int64_t_s_s+0x7c>
    895b:	48 83 7d f0 00       	cmpq   $0x0,-0x10(%rbp)
    8960:	7e 16                	jle    8978 <safe_mul_func_int64_t_s_s+0x7c>
    8962:	48 b8 00 00 00 00 00 	movabs $0x8000000000000000,%rax
    8969:	00 00 80 
    896c:	48 99                	cqto   
    896e:	48 f7 7d f0          	idivq  -0x10(%rbp)
    8972:	48 39 45 f8          	cmp    %rax,-0x8(%rbp)
    8976:	7c 36                	jl     89ae <safe_mul_func_int64_t_s_s+0xb2>
    8978:	48 83 7d f8 00       	cmpq   $0x0,-0x8(%rbp)
    897d:	7f 24                	jg     89a3 <safe_mul_func_int64_t_s_s+0xa7>
    897f:	48 83 7d f0 00       	cmpq   $0x0,-0x10(%rbp)
    8984:	7f 1d                	jg     89a3 <safe_mul_func_int64_t_s_s+0xa7>
    8986:	48 83 7d f8 00       	cmpq   $0x0,-0x8(%rbp)
    898b:	74 16                	je     89a3 <safe_mul_func_int64_t_s_s+0xa7>
    898d:	48 b8 ff ff ff ff ff 	movabs $0x7fffffffffffffff,%rax
    8994:	ff ff 7f 
    8997:	48 99                	cqto   
    8999:	48 f7 7d f8          	idivq  -0x8(%rbp)
    899d:	48 39 45 f0          	cmp    %rax,-0x10(%rbp)
    89a1:	7c 0b                	jl     89ae <safe_mul_func_int64_t_s_s+0xb2>
    89a3:	48 8b 45 f8          	mov    -0x8(%rbp),%rax
    89a7:	48 0f af 45 f0       	imul   -0x10(%rbp),%rax
    89ac:	eb 04                	jmp    89b2 <safe_mul_func_int64_t_s_s+0xb6>
    89ae:	48 8b 45 f8          	mov    -0x8(%rbp),%rax
    89b2:	5d                   	pop    %rbp
    89b3:	c3                   	retq   

00000000000089b4 <safe_mod_func_int64_t_s_s>:
    89b4:	f3 0f 1e fa          	endbr64 
    89b8:	55                   	push   %rbp
    89b9:	48 89 e5             	mov    %rsp,%rbp
    89bc:	48 89 7d f8          	mov    %rdi,-0x8(%rbp)
    89c0:	48 89 75 f0          	mov    %rsi,-0x10(%rbp)
    89c4:	48 83 7d f0 00       	cmpq   $0x0,-0x10(%rbp)
    89c9:	74 26                	je     89f1 <safe_mod_func_int64_t_s_s+0x3d>
    89cb:	48 b8 00 00 00 00 00 	movabs $0x8000000000000000,%rax
    89d2:	00 00 80 
    89d5:	48 39 45 f8          	cmp    %rax,-0x8(%rbp)
    89d9:	75 07                	jne    89e2 <safe_mod_func_int64_t_s_s+0x2e>
    89db:	48 83 7d f0 ff       	cmpq   $0xffffffffffffffff,-0x10(%rbp)
    89e0:	74 0f                	je     89f1 <safe_mod_func_int64_t_s_s+0x3d>
    89e2:	48 8b 45 f8          	mov    -0x8(%rbp),%rax
    89e6:	48 99                	cqto   
    89e8:	48 f7 7d f0          	idivq  -0x10(%rbp)
    89ec:	48 89 d0             	mov    %rdx,%rax
    89ef:	eb 04                	jmp    89f5 <safe_mod_func_int64_t_s_s+0x41>
    89f1:	48 8b 45 f8          	mov    -0x8(%rbp),%rax
    89f5:	5d                   	pop    %rbp
    89f6:	c3                   	retq   

00000000000089f7 <safe_div_func_int64_t_s_s>:
    89f7:	f3 0f 1e fa          	endbr64 
    89fb:	55                   	push   %rbp
    89fc:	48 89 e5             	mov    %rsp,%rbp
    89ff:	48 89 7d f8          	mov    %rdi,-0x8(%rbp)
    8a03:	48 89 75 f0          	mov    %rsi,-0x10(%rbp)
    8a07:	48 83 7d f0 00       	cmpq   $0x0,-0x10(%rbp)
    8a0c:	74 23                	je     8a31 <safe_div_func_int64_t_s_s+0x3a>
    8a0e:	48 b8 00 00 00 00 00 	movabs $0x8000000000000000,%rax
    8a15:	00 00 80 
    8a18:	48 39 45 f8          	cmp    %rax,-0x8(%rbp)
    8a1c:	75 07                	jne    8a25 <safe_div_func_int64_t_s_s+0x2e>
    8a1e:	48 83 7d f0 ff       	cmpq   $0xffffffffffffffff,-0x10(%rbp)
    8a23:	74 0c                	je     8a31 <safe_div_func_int64_t_s_s+0x3a>
    8a25:	48 8b 45 f8          	mov    -0x8(%rbp),%rax
    8a29:	48 99                	cqto   
    8a2b:	48 f7 7d f0          	idivq  -0x10(%rbp)
    8a2f:	eb 04                	jmp    8a35 <safe_div_func_int64_t_s_s+0x3e>
    8a31:	48 8b 45 f8          	mov    -0x8(%rbp),%rax
    8a35:	5d                   	pop    %rbp
    8a36:	c3                   	retq   

0000000000008a37 <safe_lshift_func_int64_t_s_s>:
    8a37:	f3 0f 1e fa          	endbr64 
    8a3b:	55                   	push   %rbp
    8a3c:	48 89 e5             	mov    %rsp,%rbp
    8a3f:	48 89 7d f8          	mov    %rdi,-0x8(%rbp)
    8a43:	89 75 f4             	mov    %esi,-0xc(%rbp)
    8a46:	48 83 7d f8 00       	cmpq   $0x0,-0x8(%rbp)
    8a4b:	78 38                	js     8a85 <safe_lshift_func_int64_t_s_s+0x4e>
    8a4d:	83 7d f4 00          	cmpl   $0x0,-0xc(%rbp)
    8a51:	78 32                	js     8a85 <safe_lshift_func_int64_t_s_s+0x4e>
    8a53:	83 7d f4 1f          	cmpl   $0x1f,-0xc(%rbp)
    8a57:	7f 2c                	jg     8a85 <safe_lshift_func_int64_t_s_s+0x4e>
    8a59:	8b 45 f4             	mov    -0xc(%rbp),%eax
    8a5c:	48 ba ff ff ff ff ff 	movabs $0x7fffffffffffffff,%rdx
    8a63:	ff ff 7f 
    8a66:	89 c1                	mov    %eax,%ecx
    8a68:	48 d3 fa             	sar    %cl,%rdx
    8a6b:	48 89 d0             	mov    %rdx,%rax
    8a6e:	48 39 45 f8          	cmp    %rax,-0x8(%rbp)
    8a72:	7f 11                	jg     8a85 <safe_lshift_func_int64_t_s_s+0x4e>
    8a74:	8b 45 f4             	mov    -0xc(%rbp),%eax
    8a77:	48 8b 55 f8          	mov    -0x8(%rbp),%rdx
    8a7b:	89 c1                	mov    %eax,%ecx
    8a7d:	48 d3 e2             	shl    %cl,%rdx
    8a80:	48 89 d0             	mov    %rdx,%rax
    8a83:	eb 04                	jmp    8a89 <safe_lshift_func_int64_t_s_s+0x52>
    8a85:	48 8b 45 f8          	mov    -0x8(%rbp),%rax
    8a89:	5d                   	pop    %rbp
    8a8a:	c3                   	retq   

0000000000008a8b <safe_lshift_func_int64_t_s_u>:
    8a8b:	f3 0f 1e fa          	endbr64 
    8a8f:	55                   	push   %rbp
    8a90:	48 89 e5             	mov    %rsp,%rbp
    8a93:	48 89 7d f8          	mov    %rdi,-0x8(%rbp)
    8a97:	89 75 f4             	mov    %esi,-0xc(%rbp)
    8a9a:	48 83 7d f8 00       	cmpq   $0x0,-0x8(%rbp)
    8a9f:	78 32                	js     8ad3 <safe_lshift_func_int64_t_s_u+0x48>
    8aa1:	83 7d f4 1f          	cmpl   $0x1f,-0xc(%rbp)
    8aa5:	77 2c                	ja     8ad3 <safe_lshift_func_int64_t_s_u+0x48>
    8aa7:	8b 45 f4             	mov    -0xc(%rbp),%eax
    8aaa:	48 ba ff ff ff ff ff 	movabs $0x7fffffffffffffff,%rdx
    8ab1:	ff ff 7f 
    8ab4:	89 c1                	mov    %eax,%ecx
    8ab6:	48 d3 fa             	sar    %cl,%rdx
    8ab9:	48 89 d0             	mov    %rdx,%rax
    8abc:	48 39 45 f8          	cmp    %rax,-0x8(%rbp)
    8ac0:	7f 11                	jg     8ad3 <safe_lshift_func_int64_t_s_u+0x48>
    8ac2:	8b 45 f4             	mov    -0xc(%rbp),%eax
    8ac5:	48 8b 55 f8          	mov    -0x8(%rbp),%rdx
    8ac9:	89 c1                	mov    %eax,%ecx
    8acb:	48 d3 e2             	shl    %cl,%rdx
    8ace:	48 89 d0             	mov    %rdx,%rax
    8ad1:	eb 04                	jmp    8ad7 <safe_lshift_func_int64_t_s_u+0x4c>
    8ad3:	48 8b 45 f8          	mov    -0x8(%rbp),%rax
    8ad7:	5d                   	pop    %rbp
    8ad8:	c3                   	retq   

0000000000008ad9 <safe_rshift_func_int64_t_s_s>:
    8ad9:	f3 0f 1e fa          	endbr64 
    8add:	55                   	push   %rbp
    8ade:	48 89 e5             	mov    %rsp,%rbp
    8ae1:	48 89 7d f8          	mov    %rdi,-0x8(%rbp)
    8ae5:	89 75 f4             	mov    %esi,-0xc(%rbp)
    8ae8:	48 83 7d f8 00       	cmpq   $0x0,-0x8(%rbp)
    8aed:	78 1d                	js     8b0c <safe_rshift_func_int64_t_s_s+0x33>
    8aef:	83 7d f4 00          	cmpl   $0x0,-0xc(%rbp)
    8af3:	78 17                	js     8b0c <safe_rshift_func_int64_t_s_s+0x33>
    8af5:	83 7d f4 1f          	cmpl   $0x1f,-0xc(%rbp)
    8af9:	7f 11                	jg     8b0c <safe_rshift_func_int64_t_s_s+0x33>
    8afb:	8b 45 f4             	mov    -0xc(%rbp),%eax
    8afe:	48 8b 55 f8          	mov    -0x8(%rbp),%rdx
    8b02:	89 c1                	mov    %eax,%ecx
    8b04:	48 d3 fa             	sar    %cl,%rdx
    8b07:	48 89 d0             	mov    %rdx,%rax
    8b0a:	eb 04                	jmp    8b10 <safe_rshift_func_int64_t_s_s+0x37>
    8b0c:	48 8b 45 f8          	mov    -0x8(%rbp),%rax
    8b10:	5d                   	pop    %rbp
    8b11:	c3                   	retq   

0000000000008b12 <safe_rshift_func_int64_t_s_u>:
    8b12:	f3 0f 1e fa          	endbr64 
    8b16:	55                   	push   %rbp
    8b17:	48 89 e5             	mov    %rsp,%rbp
    8b1a:	48 89 7d f8          	mov    %rdi,-0x8(%rbp)
    8b1e:	89 75 f4             	mov    %esi,-0xc(%rbp)
    8b21:	48 83 7d f8 00       	cmpq   $0x0,-0x8(%rbp)
    8b26:	78 17                	js     8b3f <safe_rshift_func_int64_t_s_u+0x2d>
    8b28:	83 7d f4 1f          	cmpl   $0x1f,-0xc(%rbp)
    8b2c:	77 11                	ja     8b3f <safe_rshift_func_int64_t_s_u+0x2d>
    8b2e:	8b 45 f4             	mov    -0xc(%rbp),%eax
    8b31:	48 8b 55 f8          	mov    -0x8(%rbp),%rdx
    8b35:	89 c1                	mov    %eax,%ecx
    8b37:	48 d3 fa             	sar    %cl,%rdx
    8b3a:	48 89 d0             	mov    %rdx,%rax
    8b3d:	eb 04                	jmp    8b43 <safe_rshift_func_int64_t_s_u+0x31>
    8b3f:	48 8b 45 f8          	mov    -0x8(%rbp),%rax
    8b43:	5d                   	pop    %rbp
    8b44:	c3                   	retq   

0000000000008b45 <safe_unary_minus_func_uint8_t_u>:
    8b45:	f3 0f 1e fa          	endbr64 
    8b49:	55                   	push   %rbp
    8b4a:	48 89 e5             	mov    %rsp,%rbp
    8b4d:	89 f8                	mov    %edi,%eax
    8b4f:	88 45 fc             	mov    %al,-0x4(%rbp)
    8b52:	0f b6 45 fc          	movzbl -0x4(%rbp),%eax
    8b56:	f7 d8                	neg    %eax
    8b58:	5d                   	pop    %rbp
    8b59:	c3                   	retq   

0000000000008b5a <safe_add_func_uint8_t_u_u>:
    8b5a:	f3 0f 1e fa          	endbr64 
    8b5e:	55                   	push   %rbp
    8b5f:	48 89 e5             	mov    %rsp,%rbp
    8b62:	89 fa                	mov    %edi,%edx
    8b64:	89 f0                	mov    %esi,%eax
    8b66:	88 55 fc             	mov    %dl,-0x4(%rbp)
    8b69:	88 45 f8             	mov    %al,-0x8(%rbp)
    8b6c:	0f b6 55 fc          	movzbl -0x4(%rbp),%edx
    8b70:	0f b6 45 f8          	movzbl -0x8(%rbp),%eax
    8b74:	01 d0                	add    %edx,%eax
    8b76:	5d                   	pop    %rbp
    8b77:	c3                   	retq   

0000000000008b78 <safe_sub_func_uint8_t_u_u>:
    8b78:	f3 0f 1e fa          	endbr64 
    8b7c:	55                   	push   %rbp
    8b7d:	48 89 e5             	mov    %rsp,%rbp
    8b80:	89 fa                	mov    %edi,%edx
    8b82:	89 f0                	mov    %esi,%eax
    8b84:	88 55 fc             	mov    %dl,-0x4(%rbp)
    8b87:	88 45 f8             	mov    %al,-0x8(%rbp)
    8b8a:	0f b6 45 fc          	movzbl -0x4(%rbp),%eax
    8b8e:	2a 45 f8             	sub    -0x8(%rbp),%al
    8b91:	5d                   	pop    %rbp
    8b92:	c3                   	retq   

0000000000008b93 <safe_mul_func_uint8_t_u_u>:
    8b93:	f3 0f 1e fa          	endbr64 
    8b97:	55                   	push   %rbp
    8b98:	48 89 e5             	mov    %rsp,%rbp
    8b9b:	89 fa                	mov    %edi,%edx
    8b9d:	89 f0                	mov    %esi,%eax
    8b9f:	88 55 fc             	mov    %dl,-0x4(%rbp)
    8ba2:	88 45 f8             	mov    %al,-0x8(%rbp)
    8ba5:	0f b6 45 fc          	movzbl -0x4(%rbp),%eax
    8ba9:	f6 65 f8             	mulb   -0x8(%rbp)
    8bac:	5d                   	pop    %rbp
    8bad:	c3                   	retq   

0000000000008bae <safe_mod_func_uint8_t_u_u>:
    8bae:	f3 0f 1e fa          	endbr64 
    8bb2:	55                   	push   %rbp
    8bb3:	48 89 e5             	mov    %rsp,%rbp
    8bb6:	89 fa                	mov    %edi,%edx
    8bb8:	89 f0                	mov    %esi,%eax
    8bba:	88 55 fc             	mov    %dl,-0x4(%rbp)
    8bbd:	88 45 f8             	mov    %al,-0x8(%rbp)
    8bc0:	80 7d f8 00          	cmpb   $0x0,-0x8(%rbp)
    8bc4:	74 0f                	je     8bd5 <safe_mod_func_uint8_t_u_u+0x27>
    8bc6:	0f b6 45 fc          	movzbl -0x4(%rbp),%eax
    8bca:	0f b6 c0             	movzbl %al,%eax
    8bcd:	f6 75 f8             	divb   -0x8(%rbp)
    8bd0:	0f b6 c4             	movzbl %ah,%eax
    8bd3:	eb 04                	jmp    8bd9 <safe_mod_func_uint8_t_u_u+0x2b>
    8bd5:	0f b6 45 fc          	movzbl -0x4(%rbp),%eax
    8bd9:	5d                   	pop    %rbp
    8bda:	c3                   	retq   

0000000000008bdb <safe_div_func_uint8_t_u_u>:
    8bdb:	f3 0f 1e fa          	endbr64 
    8bdf:	55                   	push   %rbp
    8be0:	48 89 e5             	mov    %rsp,%rbp
    8be3:	89 fa                	mov    %edi,%edx
    8be5:	89 f0                	mov    %esi,%eax
    8be7:	88 55 fc             	mov    %dl,-0x4(%rbp)
    8bea:	88 45 f8             	mov    %al,-0x8(%rbp)
    8bed:	80 7d f8 00          	cmpb   $0x0,-0x8(%rbp)
    8bf1:	74 0c                	je     8bff <safe_div_func_uint8_t_u_u+0x24>
    8bf3:	0f b6 45 fc          	movzbl -0x4(%rbp),%eax
    8bf7:	0f b6 c0             	movzbl %al,%eax
    8bfa:	f6 75 f8             	divb   -0x8(%rbp)
    8bfd:	eb 04                	jmp    8c03 <safe_div_func_uint8_t_u_u+0x28>
    8bff:	0f b6 45 fc          	movzbl -0x4(%rbp),%eax
    8c03:	5d                   	pop    %rbp
    8c04:	c3                   	retq   

0000000000008c05 <safe_lshift_func_uint8_t_u_s>:
    8c05:	f3 0f 1e fa          	endbr64 
    8c09:	55                   	push   %rbp
    8c0a:	48 89 e5             	mov    %rsp,%rbp
    8c0d:	89 f8                	mov    %edi,%eax
    8c0f:	89 75 f8             	mov    %esi,-0x8(%rbp)
    8c12:	88 45 fc             	mov    %al,-0x4(%rbp)
    8c15:	83 7d f8 00          	cmpl   $0x0,-0x8(%rbp)
    8c19:	78 2b                	js     8c46 <safe_lshift_func_uint8_t_u_s+0x41>
    8c1b:	83 7d f8 1f          	cmpl   $0x1f,-0x8(%rbp)
    8c1f:	7f 25                	jg     8c46 <safe_lshift_func_uint8_t_u_s+0x41>
    8c21:	0f b6 55 fc          	movzbl -0x4(%rbp),%edx
    8c25:	8b 45 f8             	mov    -0x8(%rbp),%eax
    8c28:	be ff 00 00 00       	mov    $0xff,%esi
    8c2d:	89 c1                	mov    %eax,%ecx
    8c2f:	d3 fe                	sar    %cl,%esi
    8c31:	89 f0                	mov    %esi,%eax
    8c33:	39 c2                	cmp    %eax,%edx
    8c35:	7f 0f                	jg     8c46 <safe_lshift_func_uint8_t_u_s+0x41>
    8c37:	0f b6 55 fc          	movzbl -0x4(%rbp),%edx
    8c3b:	8b 45 f8             	mov    -0x8(%rbp),%eax
    8c3e:	89 c1                	mov    %eax,%ecx
    8c40:	d3 e2                	shl    %cl,%edx
    8c42:	89 d0                	mov    %edx,%eax
    8c44:	eb 04                	jmp    8c4a <safe_lshift_func_uint8_t_u_s+0x45>
    8c46:	0f b6 45 fc          	movzbl -0x4(%rbp),%eax
    8c4a:	5d                   	pop    %rbp
    8c4b:	c3                   	retq   

0000000000008c4c <safe_lshift_func_uint8_t_u_u>:
    8c4c:	f3 0f 1e fa          	endbr64 
    8c50:	55                   	push   %rbp
    8c51:	48 89 e5             	mov    %rsp,%rbp
    8c54:	89 f8                	mov    %edi,%eax
    8c56:	89 75 f8             	mov    %esi,-0x8(%rbp)
    8c59:	88 45 fc             	mov    %al,-0x4(%rbp)
    8c5c:	83 7d f8 1f          	cmpl   $0x1f,-0x8(%rbp)
    8c60:	77 25                	ja     8c87 <safe_lshift_func_uint8_t_u_u+0x3b>
    8c62:	0f b6 55 fc          	movzbl -0x4(%rbp),%edx
    8c66:	8b 45 f8             	mov    -0x8(%rbp),%eax
    8c69:	be ff 00 00 00       	mov    $0xff,%esi
    8c6e:	89 c1                	mov    %eax,%ecx
    8c70:	d3 fe                	sar    %cl,%esi
    8c72:	89 f0                	mov    %esi,%eax
    8c74:	39 c2                	cmp    %eax,%edx
    8c76:	7f 0f                	jg     8c87 <safe_lshift_func_uint8_t_u_u+0x3b>
    8c78:	0f b6 55 fc          	movzbl -0x4(%rbp),%edx
    8c7c:	8b 45 f8             	mov    -0x8(%rbp),%eax
    8c7f:	89 c1                	mov    %eax,%ecx
    8c81:	d3 e2                	shl    %cl,%edx
    8c83:	89 d0                	mov    %edx,%eax
    8c85:	eb 04                	jmp    8c8b <safe_lshift_func_uint8_t_u_u+0x3f>
    8c87:	0f b6 45 fc          	movzbl -0x4(%rbp),%eax
    8c8b:	5d                   	pop    %rbp
    8c8c:	c3                   	retq   

0000000000008c8d <safe_rshift_func_uint8_t_u_s>:
    8c8d:	f3 0f 1e fa          	endbr64 
    8c91:	55                   	push   %rbp
    8c92:	48 89 e5             	mov    %rsp,%rbp
    8c95:	89 f8                	mov    %edi,%eax
    8c97:	89 75 f8             	mov    %esi,-0x8(%rbp)
    8c9a:	88 45 fc             	mov    %al,-0x4(%rbp)
    8c9d:	83 7d f8 00          	cmpl   $0x0,-0x8(%rbp)
    8ca1:	78 15                	js     8cb8 <safe_rshift_func_uint8_t_u_s+0x2b>
    8ca3:	83 7d f8 1f          	cmpl   $0x1f,-0x8(%rbp)
    8ca7:	7f 0f                	jg     8cb8 <safe_rshift_func_uint8_t_u_s+0x2b>
    8ca9:	0f b6 55 fc          	movzbl -0x4(%rbp),%edx
    8cad:	8b 45 f8             	mov    -0x8(%rbp),%eax
    8cb0:	89 c1                	mov    %eax,%ecx
    8cb2:	d3 fa                	sar    %cl,%edx
    8cb4:	89 d0                	mov    %edx,%eax
    8cb6:	eb 04                	jmp    8cbc <safe_rshift_func_uint8_t_u_s+0x2f>
    8cb8:	0f b6 45 fc          	movzbl -0x4(%rbp),%eax
    8cbc:	5d                   	pop    %rbp
    8cbd:	c3                   	retq   

0000000000008cbe <safe_rshift_func_uint8_t_u_u>:
    8cbe:	f3 0f 1e fa          	endbr64 
    8cc2:	55                   	push   %rbp
    8cc3:	48 89 e5             	mov    %rsp,%rbp
    8cc6:	89 f8                	mov    %edi,%eax
    8cc8:	89 75 f8             	mov    %esi,-0x8(%rbp)
    8ccb:	88 45 fc             	mov    %al,-0x4(%rbp)
    8cce:	83 7d f8 1f          	cmpl   $0x1f,-0x8(%rbp)
    8cd2:	77 0f                	ja     8ce3 <safe_rshift_func_uint8_t_u_u+0x25>
    8cd4:	0f b6 55 fc          	movzbl -0x4(%rbp),%edx
    8cd8:	8b 45 f8             	mov    -0x8(%rbp),%eax
    8cdb:	89 c1                	mov    %eax,%ecx
    8cdd:	d3 fa                	sar    %cl,%edx
    8cdf:	89 d0                	mov    %edx,%eax
    8ce1:	eb 04                	jmp    8ce7 <safe_rshift_func_uint8_t_u_u+0x29>
    8ce3:	0f b6 45 fc          	movzbl -0x4(%rbp),%eax
    8ce7:	5d                   	pop    %rbp
    8ce8:	c3                   	retq   

0000000000008ce9 <safe_unary_minus_func_uint16_t_u>:
    8ce9:	f3 0f 1e fa          	endbr64 
    8ced:	55                   	push   %rbp
    8cee:	48 89 e5             	mov    %rsp,%rbp
    8cf1:	89 f8                	mov    %edi,%eax
    8cf3:	66 89 45 fc          	mov    %ax,-0x4(%rbp)
    8cf7:	0f b7 45 fc          	movzwl -0x4(%rbp),%eax
    8cfb:	f7 d8                	neg    %eax
    8cfd:	5d                   	pop    %rbp
    8cfe:	c3                   	retq   

0000000000008cff <safe_add_func_uint16_t_u_u>:
    8cff:	f3 0f 1e fa          	endbr64 
    8d03:	55                   	push   %rbp
    8d04:	48 89 e5             	mov    %rsp,%rbp
    8d07:	89 fa                	mov    %edi,%edx
    8d09:	89 f0                	mov    %esi,%eax
    8d0b:	66 89 55 fc          	mov    %dx,-0x4(%rbp)
    8d0f:	66 89 45 f8          	mov    %ax,-0x8(%rbp)
    8d13:	0f b7 55 fc          	movzwl -0x4(%rbp),%edx
    8d17:	0f b7 45 f8          	movzwl -0x8(%rbp),%eax
    8d1b:	01 d0                	add    %edx,%eax
    8d1d:	5d                   	pop    %rbp
    8d1e:	c3                   	retq   

0000000000008d1f <safe_sub_func_uint16_t_u_u>:
    8d1f:	f3 0f 1e fa          	endbr64 
    8d23:	55                   	push   %rbp
    8d24:	48 89 e5             	mov    %rsp,%rbp
    8d27:	89 fa                	mov    %edi,%edx
    8d29:	89 f0                	mov    %esi,%eax
    8d2b:	66 89 55 fc          	mov    %dx,-0x4(%rbp)
    8d2f:	66 89 45 f8          	mov    %ax,-0x8(%rbp)
    8d33:	0f b7 45 fc          	movzwl -0x4(%rbp),%eax
    8d37:	66 2b 45 f8          	sub    -0x8(%rbp),%ax
    8d3b:	5d                   	pop    %rbp
    8d3c:	c3                   	retq   

0000000000008d3d <safe_mul_func_uint16_t_u_u>:
    8d3d:	f3 0f 1e fa          	endbr64 
    8d41:	55                   	push   %rbp
    8d42:	48 89 e5             	mov    %rsp,%rbp
    8d45:	89 fa                	mov    %edi,%edx
    8d47:	89 f0                	mov    %esi,%eax
    8d49:	66 89 55 fc          	mov    %dx,-0x4(%rbp)
    8d4d:	66 89 45 f8          	mov    %ax,-0x8(%rbp)
    8d51:	0f b7 45 fc          	movzwl -0x4(%rbp),%eax
    8d55:	66 0f af 45 f8       	imul   -0x8(%rbp),%ax
    8d5a:	5d                   	pop    %rbp
    8d5b:	c3                   	retq   

0000000000008d5c <safe_mod_func_uint16_t_u_u>:
    8d5c:	f3 0f 1e fa          	endbr64 
    8d60:	55                   	push   %rbp
    8d61:	48 89 e5             	mov    %rsp,%rbp
    8d64:	89 fa                	mov    %edi,%edx
    8d66:	89 f0                	mov    %esi,%eax
    8d68:	66 89 55 fc          	mov    %dx,-0x4(%rbp)
    8d6c:	66 89 45 f8          	mov    %ax,-0x8(%rbp)
    8d70:	66 83 7d f8 00       	cmpw   $0x0,-0x8(%rbp)
    8d75:	74 11                	je     8d88 <safe_mod_func_uint16_t_u_u+0x2c>
    8d77:	0f b7 45 fc          	movzwl -0x4(%rbp),%eax
    8d7b:	ba 00 00 00 00       	mov    $0x0,%edx
    8d80:	66 f7 75 f8          	divw   -0x8(%rbp)
    8d84:	89 d0                	mov    %edx,%eax
    8d86:	eb 04                	jmp    8d8c <safe_mod_func_uint16_t_u_u+0x30>
    8d88:	0f b7 45 fc          	movzwl -0x4(%rbp),%eax
    8d8c:	5d                   	pop    %rbp
    8d8d:	c3                   	retq   

0000000000008d8e <safe_div_func_uint16_t_u_u>:
    8d8e:	f3 0f 1e fa          	endbr64 
    8d92:	55                   	push   %rbp
    8d93:	48 89 e5             	mov    %rsp,%rbp
    8d96:	89 fa                	mov    %edi,%edx
    8d98:	89 f0                	mov    %esi,%eax
    8d9a:	66 89 55 fc          	mov    %dx,-0x4(%rbp)
    8d9e:	66 89 45 f8          	mov    %ax,-0x8(%rbp)
    8da2:	66 83 7d f8 00       	cmpw   $0x0,-0x8(%rbp)
    8da7:	74 0f                	je     8db8 <safe_div_func_uint16_t_u_u+0x2a>
    8da9:	0f b7 45 fc          	movzwl -0x4(%rbp),%eax
    8dad:	ba 00 00 00 00       	mov    $0x0,%edx
    8db2:	66 f7 75 f8          	divw   -0x8(%rbp)
    8db6:	eb 04                	jmp    8dbc <safe_div_func_uint16_t_u_u+0x2e>
    8db8:	0f b7 45 fc          	movzwl -0x4(%rbp),%eax
    8dbc:	5d                   	pop    %rbp
    8dbd:	c3                   	retq   

0000000000008dbe <safe_lshift_func_uint16_t_u_s>:
    8dbe:	f3 0f 1e fa          	endbr64 
    8dc2:	55                   	push   %rbp
    8dc3:	48 89 e5             	mov    %rsp,%rbp
    8dc6:	89 f8                	mov    %edi,%eax
    8dc8:	89 75 f8             	mov    %esi,-0x8(%rbp)
    8dcb:	66 89 45 fc          	mov    %ax,-0x4(%rbp)
    8dcf:	83 7d f8 00          	cmpl   $0x0,-0x8(%rbp)
    8dd3:	78 2b                	js     8e00 <safe_lshift_func_uint16_t_u_s+0x42>
    8dd5:	83 7d f8 1f          	cmpl   $0x1f,-0x8(%rbp)
    8dd9:	7f 25                	jg     8e00 <safe_lshift_func_uint16_t_u_s+0x42>
    8ddb:	0f b7 55 fc          	movzwl -0x4(%rbp),%edx
    8ddf:	8b 45 f8             	mov    -0x8(%rbp),%eax
    8de2:	be ff ff 00 00       	mov    $0xffff,%esi
    8de7:	89 c1                	mov    %eax,%ecx
    8de9:	d3 fe                	sar    %cl,%esi
    8deb:	89 f0                	mov    %esi,%eax
    8ded:	39 c2                	cmp    %eax,%edx
    8def:	7f 0f                	jg     8e00 <safe_lshift_func_uint16_t_u_s+0x42>
    8df1:	0f b7 55 fc          	movzwl -0x4(%rbp),%edx
    8df5:	8b 45 f8             	mov    -0x8(%rbp),%eax
    8df8:	89 c1                	mov    %eax,%ecx
    8dfa:	d3 e2                	shl    %cl,%edx
    8dfc:	89 d0                	mov    %edx,%eax
    8dfe:	eb 04                	jmp    8e04 <safe_lshift_func_uint16_t_u_s+0x46>
    8e00:	0f b7 45 fc          	movzwl -0x4(%rbp),%eax
    8e04:	5d                   	pop    %rbp
    8e05:	c3                   	retq   

0000000000008e06 <safe_lshift_func_uint16_t_u_u>:
    8e06:	f3 0f 1e fa          	endbr64 
    8e0a:	55                   	push   %rbp
    8e0b:	48 89 e5             	mov    %rsp,%rbp
    8e0e:	89 f8                	mov    %edi,%eax
    8e10:	89 75 f8             	mov    %esi,-0x8(%rbp)
    8e13:	66 89 45 fc          	mov    %ax,-0x4(%rbp)
    8e17:	83 7d f8 1f          	cmpl   $0x1f,-0x8(%rbp)
    8e1b:	77 25                	ja     8e42 <safe_lshift_func_uint16_t_u_u+0x3c>
    8e1d:	0f b7 55 fc          	movzwl -0x4(%rbp),%edx
    8e21:	8b 45 f8             	mov    -0x8(%rbp),%eax
    8e24:	be ff ff 00 00       	mov    $0xffff,%esi
    8e29:	89 c1                	mov    %eax,%ecx
    8e2b:	d3 fe                	sar    %cl,%esi
    8e2d:	89 f0                	mov    %esi,%eax
    8e2f:	39 c2                	cmp    %eax,%edx
    8e31:	7f 0f                	jg     8e42 <safe_lshift_func_uint16_t_u_u+0x3c>
    8e33:	0f b7 55 fc          	movzwl -0x4(%rbp),%edx
    8e37:	8b 45 f8             	mov    -0x8(%rbp),%eax
    8e3a:	89 c1                	mov    %eax,%ecx
    8e3c:	d3 e2                	shl    %cl,%edx
    8e3e:	89 d0                	mov    %edx,%eax
    8e40:	eb 04                	jmp    8e46 <safe_lshift_func_uint16_t_u_u+0x40>
    8e42:	0f b7 45 fc          	movzwl -0x4(%rbp),%eax
    8e46:	5d                   	pop    %rbp
    8e47:	c3                   	retq   

0000000000008e48 <safe_rshift_func_uint16_t_u_s>:
    8e48:	f3 0f 1e fa          	endbr64 
    8e4c:	55                   	push   %rbp
    8e4d:	48 89 e5             	mov    %rsp,%rbp
    8e50:	89 f8                	mov    %edi,%eax
    8e52:	89 75 f8             	mov    %esi,-0x8(%rbp)
    8e55:	66 89 45 fc          	mov    %ax,-0x4(%rbp)
    8e59:	83 7d f8 00          	cmpl   $0x0,-0x8(%rbp)
    8e5d:	78 15                	js     8e74 <safe_rshift_func_uint16_t_u_s+0x2c>
    8e5f:	83 7d f8 1f          	cmpl   $0x1f,-0x8(%rbp)
    8e63:	7f 0f                	jg     8e74 <safe_rshift_func_uint16_t_u_s+0x2c>
    8e65:	0f b7 55 fc          	movzwl -0x4(%rbp),%edx
    8e69:	8b 45 f8             	mov    -0x8(%rbp),%eax
    8e6c:	89 c1                	mov    %eax,%ecx
    8e6e:	d3 fa                	sar    %cl,%edx
    8e70:	89 d0                	mov    %edx,%eax
    8e72:	eb 04                	jmp    8e78 <safe_rshift_func_uint16_t_u_s+0x30>
    8e74:	0f b7 45 fc          	movzwl -0x4(%rbp),%eax
    8e78:	5d                   	pop    %rbp
    8e79:	c3                   	retq   

0000000000008e7a <safe_rshift_func_uint16_t_u_u>:
    8e7a:	f3 0f 1e fa          	endbr64 
    8e7e:	55                   	push   %rbp
    8e7f:	48 89 e5             	mov    %rsp,%rbp
    8e82:	89 f8                	mov    %edi,%eax
    8e84:	89 75 f8             	mov    %esi,-0x8(%rbp)
    8e87:	66 89 45 fc          	mov    %ax,-0x4(%rbp)
    8e8b:	83 7d f8 1f          	cmpl   $0x1f,-0x8(%rbp)
    8e8f:	77 0f                	ja     8ea0 <safe_rshift_func_uint16_t_u_u+0x26>
    8e91:	0f b7 55 fc          	movzwl -0x4(%rbp),%edx
    8e95:	8b 45 f8             	mov    -0x8(%rbp),%eax
    8e98:	89 c1                	mov    %eax,%ecx
    8e9a:	d3 fa                	sar    %cl,%edx
    8e9c:	89 d0                	mov    %edx,%eax
    8e9e:	eb 04                	jmp    8ea4 <safe_rshift_func_uint16_t_u_u+0x2a>
    8ea0:	0f b7 45 fc          	movzwl -0x4(%rbp),%eax
    8ea4:	5d                   	pop    %rbp
    8ea5:	c3                   	retq   

0000000000008ea6 <safe_unary_minus_func_uint32_t_u>:
    8ea6:	f3 0f 1e fa          	endbr64 
    8eaa:	55                   	push   %rbp
    8eab:	48 89 e5             	mov    %rsp,%rbp
    8eae:	89 7d fc             	mov    %edi,-0x4(%rbp)
    8eb1:	8b 45 fc             	mov    -0x4(%rbp),%eax
    8eb4:	f7 d8                	neg    %eax
    8eb6:	5d                   	pop    %rbp
    8eb7:	c3                   	retq   

0000000000008eb8 <safe_add_func_uint32_t_u_u>:
    8eb8:	f3 0f 1e fa          	endbr64 
    8ebc:	55                   	push   %rbp
    8ebd:	48 89 e5             	mov    %rsp,%rbp
    8ec0:	89 7d fc             	mov    %edi,-0x4(%rbp)
    8ec3:	89 75 f8             	mov    %esi,-0x8(%rbp)
    8ec6:	8b 55 fc             	mov    -0x4(%rbp),%edx
    8ec9:	8b 45 f8             	mov    -0x8(%rbp),%eax
    8ecc:	01 d0                	add    %edx,%eax
    8ece:	5d                   	pop    %rbp
    8ecf:	c3                   	retq   

0000000000008ed0 <safe_sub_func_uint32_t_u_u>:
    8ed0:	f3 0f 1e fa          	endbr64 
    8ed4:	55                   	push   %rbp
    8ed5:	48 89 e5             	mov    %rsp,%rbp
    8ed8:	89 7d fc             	mov    %edi,-0x4(%rbp)
    8edb:	89 75 f8             	mov    %esi,-0x8(%rbp)
    8ede:	8b 45 fc             	mov    -0x4(%rbp),%eax
    8ee1:	2b 45 f8             	sub    -0x8(%rbp),%eax
    8ee4:	5d                   	pop    %rbp
    8ee5:	c3                   	retq   

0000000000008ee6 <safe_mul_func_uint32_t_u_u>:
    8ee6:	f3 0f 1e fa          	endbr64 
    8eea:	55                   	push   %rbp
    8eeb:	48 89 e5             	mov    %rsp,%rbp
    8eee:	89 7d fc             	mov    %edi,-0x4(%rbp)
    8ef1:	89 75 f8             	mov    %esi,-0x8(%rbp)
    8ef4:	8b 45 fc             	mov    -0x4(%rbp),%eax
    8ef7:	0f af 45 f8          	imul   -0x8(%rbp),%eax
    8efb:	5d                   	pop    %rbp
    8efc:	c3                   	retq   

0000000000008efd <safe_mod_func_uint32_t_u_u>:
    8efd:	f3 0f 1e fa          	endbr64 
    8f01:	55                   	push   %rbp
    8f02:	48 89 e5             	mov    %rsp,%rbp
    8f05:	89 7d fc             	mov    %edi,-0x4(%rbp)
    8f08:	89 75 f8             	mov    %esi,-0x8(%rbp)
    8f0b:	83 7d f8 00          	cmpl   $0x0,-0x8(%rbp)
    8f0f:	74 0f                	je     8f20 <safe_mod_func_uint32_t_u_u+0x23>
    8f11:	8b 45 fc             	mov    -0x4(%rbp),%eax
    8f14:	ba 00 00 00 00       	mov    $0x0,%edx
    8f19:	f7 75 f8             	divl   -0x8(%rbp)
    8f1c:	89 d0                	mov    %edx,%eax
    8f1e:	eb 03                	jmp    8f23 <safe_mod_func_uint32_t_u_u+0x26>
    8f20:	8b 45 fc             	mov    -0x4(%rbp),%eax
    8f23:	5d                   	pop    %rbp
    8f24:	c3                   	retq   

0000000000008f25 <safe_div_func_uint32_t_u_u>:
    8f25:	f3 0f 1e fa          	endbr64 
    8f29:	55                   	push   %rbp
    8f2a:	48 89 e5             	mov    %rsp,%rbp
    8f2d:	89 7d fc             	mov    %edi,-0x4(%rbp)
    8f30:	89 75 f8             	mov    %esi,-0x8(%rbp)
    8f33:	83 7d f8 00          	cmpl   $0x0,-0x8(%rbp)
    8f37:	74 0d                	je     8f46 <safe_div_func_uint32_t_u_u+0x21>
    8f39:	8b 45 fc             	mov    -0x4(%rbp),%eax
    8f3c:	ba 00 00 00 00       	mov    $0x0,%edx
    8f41:	f7 75 f8             	divl   -0x8(%rbp)
    8f44:	eb 03                	jmp    8f49 <safe_div_func_uint32_t_u_u+0x24>
    8f46:	8b 45 fc             	mov    -0x4(%rbp),%eax
    8f49:	5d                   	pop    %rbp
    8f4a:	c3                   	retq   

0000000000008f4b <safe_lshift_func_uint32_t_u_s>:
    8f4b:	f3 0f 1e fa          	endbr64 
    8f4f:	55                   	push   %rbp
    8f50:	48 89 e5             	mov    %rsp,%rbp
    8f53:	89 7d fc             	mov    %edi,-0x4(%rbp)
    8f56:	89 75 f8             	mov    %esi,-0x8(%rbp)
    8f59:	83 7d f8 00          	cmpl   $0x0,-0x8(%rbp)
    8f5d:	78 27                	js     8f86 <safe_lshift_func_uint32_t_u_s+0x3b>
    8f5f:	83 7d f8 1f          	cmpl   $0x1f,-0x8(%rbp)
    8f63:	7f 21                	jg     8f86 <safe_lshift_func_uint32_t_u_s+0x3b>
    8f65:	8b 45 f8             	mov    -0x8(%rbp),%eax
    8f68:	ba ff ff ff ff       	mov    $0xffffffff,%edx
    8f6d:	89 c1                	mov    %eax,%ecx
    8f6f:	d3 ea                	shr    %cl,%edx
    8f71:	89 d0                	mov    %edx,%eax
    8f73:	39 45 fc             	cmp    %eax,-0x4(%rbp)
    8f76:	77 0e                	ja     8f86 <safe_lshift_func_uint32_t_u_s+0x3b>
    8f78:	8b 45 f8             	mov    -0x8(%rbp),%eax
    8f7b:	8b 55 fc             	mov    -0x4(%rbp),%edx
    8f7e:	89 c1                	mov    %eax,%ecx
    8f80:	d3 e2                	shl    %cl,%edx
    8f82:	89 d0                	mov    %edx,%eax
    8f84:	eb 03                	jmp    8f89 <safe_lshift_func_uint32_t_u_s+0x3e>
    8f86:	8b 45 fc             	mov    -0x4(%rbp),%eax
    8f89:	5d                   	pop    %rbp
    8f8a:	c3                   	retq   

0000000000008f8b <safe_lshift_func_uint32_t_u_u>:
    8f8b:	f3 0f 1e fa          	endbr64 
    8f8f:	55                   	push   %rbp
    8f90:	48 89 e5             	mov    %rsp,%rbp
    8f93:	89 7d fc             	mov    %edi,-0x4(%rbp)
    8f96:	89 75 f8             	mov    %esi,-0x8(%rbp)
    8f99:	83 7d f8 1f          	cmpl   $0x1f,-0x8(%rbp)
    8f9d:	77 21                	ja     8fc0 <safe_lshift_func_uint32_t_u_u+0x35>
    8f9f:	8b 45 f8             	mov    -0x8(%rbp),%eax
    8fa2:	ba ff ff ff ff       	mov    $0xffffffff,%edx
    8fa7:	89 c1                	mov    %eax,%ecx
    8fa9:	d3 ea                	shr    %cl,%edx
    8fab:	89 d0                	mov    %edx,%eax
    8fad:	39 45 fc             	cmp    %eax,-0x4(%rbp)
    8fb0:	77 0e                	ja     8fc0 <safe_lshift_func_uint32_t_u_u+0x35>
    8fb2:	8b 45 f8             	mov    -0x8(%rbp),%eax
    8fb5:	8b 55 fc             	mov    -0x4(%rbp),%edx
    8fb8:	89 c1                	mov    %eax,%ecx
    8fba:	d3 e2                	shl    %cl,%edx
    8fbc:	89 d0                	mov    %edx,%eax
    8fbe:	eb 03                	jmp    8fc3 <safe_lshift_func_uint32_t_u_u+0x38>
    8fc0:	8b 45 fc             	mov    -0x4(%rbp),%eax
    8fc3:	5d                   	pop    %rbp
    8fc4:	c3                   	retq   

0000000000008fc5 <safe_rshift_func_uint32_t_u_s>:
    8fc5:	f3 0f 1e fa          	endbr64 
    8fc9:	55                   	push   %rbp
    8fca:	48 89 e5             	mov    %rsp,%rbp
    8fcd:	89 7d fc             	mov    %edi,-0x4(%rbp)
    8fd0:	89 75 f8             	mov    %esi,-0x8(%rbp)
    8fd3:	83 7d f8 00          	cmpl   $0x0,-0x8(%rbp)
    8fd7:	78 14                	js     8fed <safe_rshift_func_uint32_t_u_s+0x28>
    8fd9:	83 7d f8 1f          	cmpl   $0x1f,-0x8(%rbp)
    8fdd:	7f 0e                	jg     8fed <safe_rshift_func_uint32_t_u_s+0x28>
    8fdf:	8b 45 f8             	mov    -0x8(%rbp),%eax
    8fe2:	8b 55 fc             	mov    -0x4(%rbp),%edx
    8fe5:	89 c1                	mov    %eax,%ecx
    8fe7:	d3 ea                	shr    %cl,%edx
    8fe9:	89 d0                	mov    %edx,%eax
    8feb:	eb 03                	jmp    8ff0 <safe_rshift_func_uint32_t_u_s+0x2b>
    8fed:	8b 45 fc             	mov    -0x4(%rbp),%eax
    8ff0:	5d                   	pop    %rbp
    8ff1:	c3                   	retq   

0000000000008ff2 <safe_rshift_func_uint32_t_u_u>:
    8ff2:	f3 0f 1e fa          	endbr64 
    8ff6:	55                   	push   %rbp
    8ff7:	48 89 e5             	mov    %rsp,%rbp
    8ffa:	89 7d fc             	mov    %edi,-0x4(%rbp)
    8ffd:	89 75 f8             	mov    %esi,-0x8(%rbp)
    9000:	83 7d f8 1f          	cmpl   $0x1f,-0x8(%rbp)
    9004:	77 0e                	ja     9014 <safe_rshift_func_uint32_t_u_u+0x22>
    9006:	8b 45 f8             	mov    -0x8(%rbp),%eax
    9009:	8b 55 fc             	mov    -0x4(%rbp),%edx
    900c:	89 c1                	mov    %eax,%ecx
    900e:	d3 ea                	shr    %cl,%edx
    9010:	89 d0                	mov    %edx,%eax
    9012:	eb 03                	jmp    9017 <safe_rshift_func_uint32_t_u_u+0x25>
    9014:	8b 45 fc             	mov    -0x4(%rbp),%eax
    9017:	5d                   	pop    %rbp
    9018:	c3                   	retq   

0000000000009019 <safe_unary_minus_func_uint64_t_u>:
    9019:	f3 0f 1e fa          	endbr64 
    901d:	55                   	push   %rbp
    901e:	48 89 e5             	mov    %rsp,%rbp
    9021:	48 89 7d f8          	mov    %rdi,-0x8(%rbp)
    9025:	48 8b 45 f8          	mov    -0x8(%rbp),%rax
    9029:	48 f7 d8             	neg    %rax
    902c:	5d                   	pop    %rbp
    902d:	c3                   	retq   

000000000000902e <safe_add_func_uint64_t_u_u>:
    902e:	f3 0f 1e fa          	endbr64 
    9032:	55                   	push   %rbp
    9033:	48 89 e5             	mov    %rsp,%rbp
    9036:	48 89 7d f8          	mov    %rdi,-0x8(%rbp)
    903a:	48 89 75 f0          	mov    %rsi,-0x10(%rbp)
    903e:	48 8b 55 f8          	mov    -0x8(%rbp),%rdx
    9042:	48 8b 45 f0          	mov    -0x10(%rbp),%rax
    9046:	48 01 d0             	add    %rdx,%rax
    9049:	5d                   	pop    %rbp
    904a:	c3                   	retq   

000000000000904b <safe_sub_func_uint64_t_u_u>:
    904b:	f3 0f 1e fa          	endbr64 
    904f:	55                   	push   %rbp
    9050:	48 89 e5             	mov    %rsp,%rbp
    9053:	48 89 7d f8          	mov    %rdi,-0x8(%rbp)
    9057:	48 89 75 f0          	mov    %rsi,-0x10(%rbp)
    905b:	48 8b 45 f8          	mov    -0x8(%rbp),%rax
    905f:	48 2b 45 f0          	sub    -0x10(%rbp),%rax
    9063:	5d                   	pop    %rbp
    9064:	c3                   	retq   

0000000000009065 <safe_mul_func_uint64_t_u_u>:
    9065:	f3 0f 1e fa          	endbr64 
    9069:	55                   	push   %rbp
    906a:	48 89 e5             	mov    %rsp,%rbp
    906d:	48 89 7d f8          	mov    %rdi,-0x8(%rbp)
    9071:	48 89 75 f0          	mov    %rsi,-0x10(%rbp)
    9075:	48 8b 45 f8          	mov    -0x8(%rbp),%rax
    9079:	48 0f af 45 f0       	imul   -0x10(%rbp),%rax
    907e:	5d                   	pop    %rbp
    907f:	c3                   	retq   

0000000000009080 <safe_mod_func_uint64_t_u_u>:
    9080:	f3 0f 1e fa          	endbr64 
    9084:	55                   	push   %rbp
    9085:	48 89 e5             	mov    %rsp,%rbp
    9088:	48 89 7d f8          	mov    %rdi,-0x8(%rbp)
    908c:	48 89 75 f0          	mov    %rsi,-0x10(%rbp)
    9090:	48 83 7d f0 00       	cmpq   $0x0,-0x10(%rbp)
    9095:	74 12                	je     90a9 <safe_mod_func_uint64_t_u_u+0x29>
    9097:	48 8b 45 f8          	mov    -0x8(%rbp),%rax
    909b:	ba 00 00 00 00       	mov    $0x0,%edx
    90a0:	48 f7 75 f0          	divq   -0x10(%rbp)
    90a4:	48 89 d0             	mov    %rdx,%rax
    90a7:	eb 04                	jmp    90ad <safe_mod_func_uint64_t_u_u+0x2d>
    90a9:	48 8b 45 f8          	mov    -0x8(%rbp),%rax
    90ad:	5d                   	pop    %rbp
    90ae:	c3                   	retq   

00000000000090af <safe_div_func_uint64_t_u_u>:
    90af:	f3 0f 1e fa          	endbr64 
    90b3:	55                   	push   %rbp
    90b4:	48 89 e5             	mov    %rsp,%rbp
    90b7:	48 89 7d f8          	mov    %rdi,-0x8(%rbp)
    90bb:	48 89 75 f0          	mov    %rsi,-0x10(%rbp)
    90bf:	48 83 7d f0 00       	cmpq   $0x0,-0x10(%rbp)
    90c4:	74 0f                	je     90d5 <safe_div_func_uint64_t_u_u+0x26>
    90c6:	48 8b 45 f8          	mov    -0x8(%rbp),%rax
    90ca:	ba 00 00 00 00       	mov    $0x0,%edx
    90cf:	48 f7 75 f0          	divq   -0x10(%rbp)
    90d3:	eb 04                	jmp    90d9 <safe_div_func_uint64_t_u_u+0x2a>
    90d5:	48 8b 45 f8          	mov    -0x8(%rbp),%rax
    90d9:	5d                   	pop    %rbp
    90da:	c3                   	retq   

00000000000090db <safe_lshift_func_uint64_t_u_s>:
    90db:	f3 0f 1e fa          	endbr64 
    90df:	55                   	push   %rbp
    90e0:	48 89 e5             	mov    %rsp,%rbp
    90e3:	48 89 7d f8          	mov    %rdi,-0x8(%rbp)
    90e7:	89 75 f4             	mov    %esi,-0xc(%rbp)
    90ea:	83 7d f4 00          	cmpl   $0x0,-0xc(%rbp)
    90ee:	78 2f                	js     911f <safe_lshift_func_uint64_t_u_s+0x44>
    90f0:	83 7d f4 1f          	cmpl   $0x1f,-0xc(%rbp)
    90f4:	7f 29                	jg     911f <safe_lshift_func_uint64_t_u_s+0x44>
    90f6:	8b 45 f4             	mov    -0xc(%rbp),%eax
    90f9:	48 c7 c2 ff ff ff ff 	mov    $0xffffffffffffffff,%rdx
    9100:	89 c1                	mov    %eax,%ecx
    9102:	48 d3 ea             	shr    %cl,%rdx
    9105:	48 89 d0             	mov    %rdx,%rax
    9108:	48 39 45 f8          	cmp    %rax,-0x8(%rbp)
    910c:	77 11                	ja     911f <safe_lshift_func_uint64_t_u_s+0x44>
    910e:	8b 45 f4             	mov    -0xc(%rbp),%eax
    9111:	48 8b 55 f8          	mov    -0x8(%rbp),%rdx
    9115:	89 c1                	mov    %eax,%ecx
    9117:	48 d3 e2             	shl    %cl,%rdx
    911a:	48 89 d0             	mov    %rdx,%rax
    911d:	eb 04                	jmp    9123 <safe_lshift_func_uint64_t_u_s+0x48>
    911f:	48 8b 45 f8          	mov    -0x8(%rbp),%rax
    9123:	5d                   	pop    %rbp
    9124:	c3                   	retq   

0000000000009125 <safe_lshift_func_uint64_t_u_u>:
    9125:	f3 0f 1e fa          	endbr64 
    9129:	55                   	push   %rbp
    912a:	48 89 e5             	mov    %rsp,%rbp
    912d:	48 89 7d f8          	mov    %rdi,-0x8(%rbp)
    9131:	89 75 f4             	mov    %esi,-0xc(%rbp)
    9134:	83 7d f4 1f          	cmpl   $0x1f,-0xc(%rbp)
    9138:	77 29                	ja     9163 <safe_lshift_func_uint64_t_u_u+0x3e>
    913a:	8b 45 f4             	mov    -0xc(%rbp),%eax
    913d:	48 c7 c2 ff ff ff ff 	mov    $0xffffffffffffffff,%rdx
    9144:	89 c1                	mov    %eax,%ecx
    9146:	48 d3 ea             	shr    %cl,%rdx
    9149:	48 89 d0             	mov    %rdx,%rax
    914c:	48 39 45 f8          	cmp    %rax,-0x8(%rbp)
    9150:	77 11                	ja     9163 <safe_lshift_func_uint64_t_u_u+0x3e>
    9152:	8b 45 f4             	mov    -0xc(%rbp),%eax
    9155:	48 8b 55 f8          	mov    -0x8(%rbp),%rdx
    9159:	89 c1                	mov    %eax,%ecx
    915b:	48 d3 e2             	shl    %cl,%rdx
    915e:	48 89 d0             	mov    %rdx,%rax
    9161:	eb 04                	jmp    9167 <safe_lshift_func_uint64_t_u_u+0x42>
    9163:	48 8b 45 f8          	mov    -0x8(%rbp),%rax
    9167:	5d                   	pop    %rbp
    9168:	c3                   	retq   

0000000000009169 <safe_rshift_func_uint64_t_u_s>:
    9169:	f3 0f 1e fa          	endbr64 
    916d:	55                   	push   %rbp
    916e:	48 89 e5             	mov    %rsp,%rbp
    9171:	48 89 7d f8          	mov    %rdi,-0x8(%rbp)
    9175:	89 75 f4             	mov    %esi,-0xc(%rbp)
    9178:	83 7d f4 00          	cmpl   $0x0,-0xc(%rbp)
    917c:	78 17                	js     9195 <safe_rshift_func_uint64_t_u_s+0x2c>
    917e:	83 7d f4 1f          	cmpl   $0x1f,-0xc(%rbp)
    9182:	7f 11                	jg     9195 <safe_rshift_func_uint64_t_u_s+0x2c>
    9184:	8b 45 f4             	mov    -0xc(%rbp),%eax
    9187:	48 8b 55 f8          	mov    -0x8(%rbp),%rdx
    918b:	89 c1                	mov    %eax,%ecx
    918d:	48 d3 ea             	shr    %cl,%rdx
    9190:	48 89 d0             	mov    %rdx,%rax
    9193:	eb 04                	jmp    9199 <safe_rshift_func_uint64_t_u_s+0x30>
    9195:	48 8b 45 f8          	mov    -0x8(%rbp),%rax
    9199:	5d                   	pop    %rbp
    919a:	c3                   	retq   

000000000000919b <safe_rshift_func_uint64_t_u_u>:
    919b:	f3 0f 1e fa          	endbr64 
    919f:	55                   	push   %rbp
    91a0:	48 89 e5             	mov    %rsp,%rbp
    91a3:	48 89 7d f8          	mov    %rdi,-0x8(%rbp)
    91a7:	89 75 f4             	mov    %esi,-0xc(%rbp)
    91aa:	83 7d f4 1f          	cmpl   $0x1f,-0xc(%rbp)
    91ae:	77 11                	ja     91c1 <safe_rshift_func_uint64_t_u_u+0x26>
    91b0:	8b 45 f4             	mov    -0xc(%rbp),%eax
    91b3:	48 8b 55 f8          	mov    -0x8(%rbp),%rdx
    91b7:	89 c1                	mov    %eax,%ecx
    91b9:	48 d3 ea             	shr    %cl,%rdx
    91bc:	48 89 d0             	mov    %rdx,%rax
    91bf:	eb 04                	jmp    91c5 <safe_rshift_func_uint64_t_u_u+0x2a>
    91c1:	48 8b 45 f8          	mov    -0x8(%rbp),%rax
    91c5:	5d                   	pop    %rbp
    91c6:	c3                   	retq   

00000000000091c7 <safe_add_func_float_f_f>:
    91c7:	f3 0f 1e fa          	endbr64 
    91cb:	55                   	push   %rbp
    91cc:	48 89 e5             	mov    %rsp,%rbp
    91cf:	f3 0f 11 45 fc       	movss  %xmm0,-0x4(%rbp)
    91d4:	f3 0f 11 4d f8       	movss  %xmm1,-0x8(%rbp)
    91d9:	f3 0f 10 4d fc       	movss  -0x4(%rbp),%xmm1
    91de:	f3 0f 10 05 92 ca 00 	movss  0xca92(%rip),%xmm0        # 15c78 <l_762.4751+0x18>
    91e5:	00 
    91e6:	f3 0f 59 c8          	mulss  %xmm0,%xmm1
    91ea:	f3 0f 10 55 f8       	movss  -0x8(%rbp),%xmm2
    91ef:	f3 0f 10 05 81 ca 00 	movss  0xca81(%rip),%xmm0        # 15c78 <l_762.4751+0x18>
    91f6:	00 
    91f7:	f3 0f 59 c2          	mulss  %xmm2,%xmm0
    91fb:	f3 0f 58 c1          	addss  %xmm1,%xmm0
    91ff:	f3 0f 10 0d 79 ca 00 	movss  0xca79(%rip),%xmm1        # 15c80 <l_762.4751+0x20>
    9206:	00 
    9207:	0f 54 c1             	andps  %xmm1,%xmm0
    920a:	0f 2f 05 7f ca 00 00 	comiss 0xca7f(%rip),%xmm0        # 15c90 <l_762.4751+0x30>
    9211:	76 07                	jbe    921a <safe_add_func_float_f_f+0x53>
    9213:	f3 0f 10 45 fc       	movss  -0x4(%rbp),%xmm0
    9218:	eb 0a                	jmp    9224 <safe_add_func_float_f_f+0x5d>
    921a:	f3 0f 10 45 fc       	movss  -0x4(%rbp),%xmm0
    921f:	f3 0f 58 45 f8       	addss  -0x8(%rbp),%xmm0
    9224:	5d                   	pop    %rbp
    9225:	c3                   	retq   

0000000000009226 <safe_sub_func_float_f_f>:
    9226:	f3 0f 1e fa          	endbr64 
    922a:	55                   	push   %rbp
    922b:	48 89 e5             	mov    %rsp,%rbp
    922e:	f3 0f 11 45 fc       	movss  %xmm0,-0x4(%rbp)
    9233:	f3 0f 11 4d f8       	movss  %xmm1,-0x8(%rbp)
    9238:	f3 0f 10 4d fc       	movss  -0x4(%rbp),%xmm1
    923d:	f3 0f 10 05 33 ca 00 	movss  0xca33(%rip),%xmm0        # 15c78 <l_762.4751+0x18>
    9244:	00 
    9245:	f3 0f 59 c1          	mulss  %xmm1,%xmm0
    9249:	f3 0f 10 55 f8       	movss  -0x8(%rbp),%xmm2
    924e:	f3 0f 10 0d 22 ca 00 	movss  0xca22(%rip),%xmm1        # 15c78 <l_762.4751+0x18>
    9255:	00 
    9256:	f3 0f 59 ca          	mulss  %xmm2,%xmm1
    925a:	f3 0f 5c c1          	subss  %xmm1,%xmm0
    925e:	f3 0f 10 0d 1a ca 00 	movss  0xca1a(%rip),%xmm1        # 15c80 <l_762.4751+0x20>
    9265:	00 
    9266:	0f 54 c1             	andps  %xmm1,%xmm0
    9269:	0f 2f 05 20 ca 00 00 	comiss 0xca20(%rip),%xmm0        # 15c90 <l_762.4751+0x30>
    9270:	76 07                	jbe    9279 <safe_sub_func_float_f_f+0x53>
    9272:	f3 0f 10 45 fc       	movss  -0x4(%rbp),%xmm0
    9277:	eb 0a                	jmp    9283 <safe_sub_func_float_f_f+0x5d>
    9279:	f3 0f 10 45 fc       	movss  -0x4(%rbp),%xmm0
    927e:	f3 0f 5c 45 f8       	subss  -0x8(%rbp),%xmm0
    9283:	5d                   	pop    %rbp
    9284:	c3                   	retq   

0000000000009285 <safe_mul_func_float_f_f>:
    9285:	f3 0f 1e fa          	endbr64 
    9289:	55                   	push   %rbp
    928a:	48 89 e5             	mov    %rsp,%rbp
    928d:	f3 0f 11 45 fc       	movss  %xmm0,-0x4(%rbp)
    9292:	f3 0f 11 4d f8       	movss  %xmm1,-0x8(%rbp)
    9297:	f3 0f 10 4d fc       	movss  -0x4(%rbp),%xmm1
    929c:	f3 0f 10 05 f0 c9 00 	movss  0xc9f0(%rip),%xmm0        # 15c94 <l_762.4751+0x34>
    92a3:	00 
    92a4:	f3 0f 59 c8          	mulss  %xmm0,%xmm1
    92a8:	f3 0f 10 55 f8       	movss  -0x8(%rbp),%xmm2
    92ad:	f3 0f 10 05 e3 c9 00 	movss  0xc9e3(%rip),%xmm0        # 15c98 <l_762.4751+0x38>
    92b4:	00 
    92b5:	f3 0f 59 c2          	mulss  %xmm2,%xmm0
    92b9:	f3 0f 59 c1          	mulss  %xmm1,%xmm0
    92bd:	f3 0f 10 0d bb c9 00 	movss  0xc9bb(%rip),%xmm1        # 15c80 <l_762.4751+0x20>
    92c4:	00 
    92c5:	0f 54 c1             	andps  %xmm1,%xmm0
    92c8:	0f 2f 05 cd c9 00 00 	comiss 0xc9cd(%rip),%xmm0        # 15c9c <l_762.4751+0x3c>
    92cf:	76 07                	jbe    92d8 <safe_mul_func_float_f_f+0x53>
    92d1:	f3 0f 10 45 fc       	movss  -0x4(%rbp),%xmm0
    92d6:	eb 0a                	jmp    92e2 <safe_mul_func_float_f_f+0x5d>
    92d8:	f3 0f 10 45 fc       	movss  -0x4(%rbp),%xmm0
    92dd:	f3 0f 59 45 f8       	mulss  -0x8(%rbp),%xmm0
    92e2:	5d                   	pop    %rbp
    92e3:	c3                   	retq   

00000000000092e4 <safe_div_func_float_f_f>:
    92e4:	f3 0f 1e fa          	endbr64 
    92e8:	55                   	push   %rbp
    92e9:	48 89 e5             	mov    %rsp,%rbp
    92ec:	f3 0f 11 45 fc       	movss  %xmm0,-0x4(%rbp)
    92f1:	f3 0f 11 4d f8       	movss  %xmm1,-0x8(%rbp)
    92f6:	f3 0f 10 45 f8       	movss  -0x8(%rbp),%xmm0
    92fb:	f3 0f 10 0d 7d c9 00 	movss  0xc97d(%rip),%xmm1        # 15c80 <l_762.4751+0x20>
    9302:	00 
    9303:	0f 54 c8             	andps  %xmm0,%xmm1
    9306:	f3 0f 10 05 92 c9 00 	movss  0xc992(%rip),%xmm0        # 15ca0 <l_762.4751+0x40>
    930d:	00 
    930e:	0f 2f c1             	comiss %xmm1,%xmm0
    9311:	0f 97 c0             	seta   %al
    9314:	83 f0 01             	xor    $0x1,%eax
    9317:	84 c0                	test   %al,%al
    9319:	75 56                	jne    9371 <safe_div_func_float_f_f+0x8d>
    931b:	66 0f ef c0          	pxor   %xmm0,%xmm0
    931f:	0f 2e 45 f8          	ucomiss -0x8(%rbp),%xmm0
    9323:	7a 0a                	jp     932f <safe_div_func_float_f_f+0x4b>
    9325:	66 0f ef c0          	pxor   %xmm0,%xmm0
    9329:	0f 2e 45 f8          	ucomiss -0x8(%rbp),%xmm0
    932d:	74 4e                	je     937d <safe_div_func_float_f_f+0x99>
    932f:	f3 0f 10 4d fc       	movss  -0x4(%rbp),%xmm1
    9334:	f3 0f 10 05 68 c9 00 	movss  0xc968(%rip),%xmm0        # 15ca4 <l_762.4751+0x44>
    933b:	00 
    933c:	f3 0f 59 c1          	mulss  %xmm1,%xmm0
    9340:	f3 0f 10 55 f8       	movss  -0x8(%rbp),%xmm2
    9345:	f3 0f 10 0d 5b c9 00 	movss  0xc95b(%rip),%xmm1        # 15ca8 <l_762.4751+0x48>
    934c:	00 
    934d:	f3 0f 59 ca          	mulss  %xmm2,%xmm1
    9351:	f3 0f 5e c1          	divss  %xmm1,%xmm0
    9355:	f3 0f 10 0d 23 c9 00 	movss  0xc923(%rip),%xmm1        # 15c80 <l_762.4751+0x20>
    935c:	00 
    935d:	0f 54 c1             	andps  %xmm1,%xmm0
    9360:	0f 2f 05 45 c9 00 00 	comiss 0xc945(%rip),%xmm0        # 15cac <l_762.4751+0x4c>
    9367:	0f 97 c0             	seta   %al
    936a:	83 f0 01             	xor    $0x1,%eax
    936d:	84 c0                	test   %al,%al
    936f:	74 0c                	je     937d <safe_div_func_float_f_f+0x99>
    9371:	f3 0f 10 45 fc       	movss  -0x4(%rbp),%xmm0
    9376:	f3 0f 5e 45 f8       	divss  -0x8(%rbp),%xmm0
    937b:	eb 05                	jmp    9382 <safe_div_func_float_f_f+0x9e>
    937d:	f3 0f 10 45 fc       	movss  -0x4(%rbp),%xmm0
    9382:	5d                   	pop    %rbp
    9383:	c3                   	retq   

0000000000009384 <safe_add_func_double_f_f>:
    9384:	f3 0f 1e fa          	endbr64 
    9388:	55                   	push   %rbp
    9389:	48 89 e5             	mov    %rsp,%rbp
    938c:	f2 0f 11 45 f8       	movsd  %xmm0,-0x8(%rbp)
    9391:	f2 0f 11 4d f0       	movsd  %xmm1,-0x10(%rbp)
    9396:	f2 0f 10 4d f8       	movsd  -0x8(%rbp),%xmm1
    939b:	f2 0f 10 05 0d c9 00 	movsd  0xc90d(%rip),%xmm0        # 15cb0 <l_762.4751+0x50>
    93a2:	00 
    93a3:	f2 0f 59 c8          	mulsd  %xmm0,%xmm1
    93a7:	f2 0f 10 55 f0       	movsd  -0x10(%rbp),%xmm2
    93ac:	f2 0f 10 05 fc c8 00 	movsd  0xc8fc(%rip),%xmm0        # 15cb0 <l_762.4751+0x50>
    93b3:	00 
    93b4:	f2 0f 59 c2          	mulsd  %xmm2,%xmm0
    93b8:	f2 0f 58 c1          	addsd  %xmm1,%xmm0
    93bc:	f3 0f 7e 0d fc c8 00 	movq   0xc8fc(%rip),%xmm1        # 15cc0 <l_762.4751+0x60>
    93c3:	00 
    93c4:	66 0f 54 c1          	andpd  %xmm1,%xmm0
    93c8:	66 0f 2f 05 00 c9 00 	comisd 0xc900(%rip),%xmm0        # 15cd0 <l_762.4751+0x70>
    93cf:	00 
    93d0:	76 07                	jbe    93d9 <safe_add_func_double_f_f+0x55>
    93d2:	f2 0f 10 45 f8       	movsd  -0x8(%rbp),%xmm0
    93d7:	eb 0a                	jmp    93e3 <safe_add_func_double_f_f+0x5f>
    93d9:	f2 0f 10 45 f8       	movsd  -0x8(%rbp),%xmm0
    93de:	f2 0f 58 45 f0       	addsd  -0x10(%rbp),%xmm0
    93e3:	5d                   	pop    %rbp
    93e4:	c3                   	retq   

00000000000093e5 <safe_sub_func_double_f_f>:
    93e5:	f3 0f 1e fa          	endbr64 
    93e9:	55                   	push   %rbp
    93ea:	48 89 e5             	mov    %rsp,%rbp
    93ed:	f2 0f 11 45 f8       	movsd  %xmm0,-0x8(%rbp)
    93f2:	f2 0f 11 4d f0       	movsd  %xmm1,-0x10(%rbp)
    93f7:	f2 0f 10 4d f8       	movsd  -0x8(%rbp),%xmm1
    93fc:	f2 0f 10 05 ac c8 00 	movsd  0xc8ac(%rip),%xmm0        # 15cb0 <l_762.4751+0x50>
    9403:	00 
    9404:	f2 0f 59 c1          	mulsd  %xmm1,%xmm0
    9408:	f2 0f 10 55 f0       	movsd  -0x10(%rbp),%xmm2
    940d:	f2 0f 10 0d 9b c8 00 	movsd  0xc89b(%rip),%xmm1        # 15cb0 <l_762.4751+0x50>
    9414:	00 
    9415:	f2 0f 59 ca          	mulsd  %xmm2,%xmm1
    9419:	f2 0f 5c c1          	subsd  %xmm1,%xmm0
    941d:	f3 0f 7e 0d 9b c8 00 	movq   0xc89b(%rip),%xmm1        # 15cc0 <l_762.4751+0x60>
    9424:	00 
    9425:	66 0f 54 c1          	andpd  %xmm1,%xmm0
    9429:	66 0f 2f 05 9f c8 00 	comisd 0xc89f(%rip),%xmm0        # 15cd0 <l_762.4751+0x70>
    9430:	00 
    9431:	76 07                	jbe    943a <safe_sub_func_double_f_f+0x55>
    9433:	f2 0f 10 45 f8       	movsd  -0x8(%rbp),%xmm0
    9438:	eb 0a                	jmp    9444 <safe_sub_func_double_f_f+0x5f>
    943a:	f2 0f 10 45 f8       	movsd  -0x8(%rbp),%xmm0
    943f:	f2 0f 5c 45 f0       	subsd  -0x10(%rbp),%xmm0
    9444:	5d                   	pop    %rbp
    9445:	c3                   	retq   

0000000000009446 <safe_mul_func_double_f_f>:
    9446:	f3 0f 1e fa          	endbr64 
    944a:	55                   	push   %rbp
    944b:	48 89 e5             	mov    %rsp,%rbp
    944e:	f2 0f 11 45 f8       	movsd  %xmm0,-0x8(%rbp)
    9453:	f2 0f 11 4d f0       	movsd  %xmm1,-0x10(%rbp)
    9458:	f2 0f 10 4d f8       	movsd  -0x8(%rbp),%xmm1
    945d:	f2 0f 10 05 73 c8 00 	movsd  0xc873(%rip),%xmm0        # 15cd8 <l_762.4751+0x78>
    9464:	00 
    9465:	f2 0f 59 c8          	mulsd  %xmm0,%xmm1
    9469:	f2 0f 10 55 f0       	movsd  -0x10(%rbp),%xmm2
    946e:	f2 0f 10 05 6a c8 00 	movsd  0xc86a(%rip),%xmm0        # 15ce0 <l_762.4751+0x80>
    9475:	00 
    9476:	f2 0f 59 c2          	mulsd  %xmm2,%xmm0
    947a:	f2 0f 59 c1          	mulsd  %xmm1,%xmm0
    947e:	f3 0f 7e 0d 3a c8 00 	movq   0xc83a(%rip),%xmm1        # 15cc0 <l_762.4751+0x60>
    9485:	00 
    9486:	66 0f 54 c1          	andpd  %xmm1,%xmm0
    948a:	66 0f 2f 05 56 c8 00 	comisd 0xc856(%rip),%xmm0        # 15ce8 <l_762.4751+0x88>
    9491:	00 
    9492:	76 07                	jbe    949b <safe_mul_func_double_f_f+0x55>
    9494:	f2 0f 10 45 f8       	movsd  -0x8(%rbp),%xmm0
    9499:	eb 0a                	jmp    94a5 <safe_mul_func_double_f_f+0x5f>
    949b:	f2 0f 10 45 f8       	movsd  -0x8(%rbp),%xmm0
    94a0:	f2 0f 59 45 f0       	mulsd  -0x10(%rbp),%xmm0
    94a5:	5d                   	pop    %rbp
    94a6:	c3                   	retq   

00000000000094a7 <safe_div_func_double_f_f>:
    94a7:	f3 0f 1e fa          	endbr64 
    94ab:	55                   	push   %rbp
    94ac:	48 89 e5             	mov    %rsp,%rbp
    94af:	f2 0f 11 45 f8       	movsd  %xmm0,-0x8(%rbp)
    94b4:	f2 0f 11 4d f0       	movsd  %xmm1,-0x10(%rbp)
    94b9:	f2 0f 10 45 f0       	movsd  -0x10(%rbp),%xmm0
    94be:	f3 0f 7e 0d fa c7 00 	movq   0xc7fa(%rip),%xmm1        # 15cc0 <l_762.4751+0x60>
    94c5:	00 
    94c6:	66 0f 54 c8          	andpd  %xmm0,%xmm1
    94ca:	f2 0f 10 05 1e c8 00 	movsd  0xc81e(%rip),%xmm0        # 15cf0 <l_762.4751+0x90>
    94d1:	00 
    94d2:	66 0f 2f c1          	comisd %xmm1,%xmm0
    94d6:	0f 97 c0             	seta   %al
    94d9:	83 f0 01             	xor    $0x1,%eax
    94dc:	84 c0                	test   %al,%al
    94de:	75 5a                	jne    953a <safe_div_func_double_f_f+0x93>
    94e0:	66 0f ef c0          	pxor   %xmm0,%xmm0
    94e4:	66 0f 2e 45 f0       	ucomisd -0x10(%rbp),%xmm0
    94e9:	7a 0b                	jp     94f6 <safe_div_func_double_f_f+0x4f>
    94eb:	66 0f ef c0          	pxor   %xmm0,%xmm0
    94ef:	66 0f 2e 45 f0       	ucomisd -0x10(%rbp),%xmm0
    94f4:	74 50                	je     9546 <safe_div_func_double_f_f+0x9f>
    94f6:	f2 0f 10 4d f8       	movsd  -0x8(%rbp),%xmm1
    94fb:	f2 0f 10 05 f5 c7 00 	movsd  0xc7f5(%rip),%xmm0        # 15cf8 <l_762.4751+0x98>
    9502:	00 
    9503:	f2 0f 59 c1          	mulsd  %xmm1,%xmm0
    9507:	f2 0f 10 55 f0       	movsd  -0x10(%rbp),%xmm2
    950c:	f2 0f 10 0d ec c7 00 	movsd  0xc7ec(%rip),%xmm1        # 15d00 <l_762.4751+0xa0>
    9513:	00 
    9514:	f2 0f 59 ca          	mulsd  %xmm2,%xmm1
    9518:	f2 0f 5e c1          	divsd  %xmm1,%xmm0
    951c:	f3 0f 7e 0d 9c c7 00 	movq   0xc79c(%rip),%xmm1        # 15cc0 <l_762.4751+0x60>
    9523:	00 
    9524:	66 0f 54 c1          	andpd  %xmm1,%xmm0
    9528:	66 0f 2f 05 d8 c7 00 	comisd 0xc7d8(%rip),%xmm0        # 15d08 <l_762.4751+0xa8>
    952f:	00 
    9530:	0f 97 c0             	seta   %al
    9533:	83 f0 01             	xor    $0x1,%eax
    9536:	84 c0                	test   %al,%al
    9538:	74 0c                	je     9546 <safe_div_func_double_f_f+0x9f>
    953a:	f2 0f 10 45 f8       	movsd  -0x8(%rbp),%xmm0
    953f:	f2 0f 5e 45 f0       	divsd  -0x10(%rbp),%xmm0
    9544:	eb 05                	jmp    954b <safe_div_func_double_f_f+0xa4>
    9546:	f2 0f 10 45 f8       	movsd  -0x8(%rbp),%xmm0
    954b:	5d                   	pop    %rbp
    954c:	c3                   	retq   

000000000000954d <safe_convert_func_float_to_int32_t>:
    954d:	f3 0f 1e fa          	endbr64 
    9551:	55                   	push   %rbp
    9552:	48 89 e5             	mov    %rsp,%rbp
    9555:	f3 0f 11 45 fc       	movss  %xmm0,-0x4(%rbp)
    955a:	f3 0f 10 05 ae c7 00 	movss  0xc7ae(%rip),%xmm0        # 15d10 <l_762.4751+0xb0>
    9561:	00 
    9562:	0f 2f 45 fc          	comiss -0x4(%rbp),%xmm0
    9566:	0f 93 c0             	setae  %al
    9569:	83 f0 01             	xor    $0x1,%eax
    956c:	84 c0                	test   %al,%al
    956e:	74 21                	je     9591 <safe_convert_func_float_to_int32_t+0x44>
    9570:	f3 0f 10 45 fc       	movss  -0x4(%rbp),%xmm0
    9575:	0f 2f 05 98 c7 00 00 	comiss 0xc798(%rip),%xmm0        # 15d14 <l_762.4751+0xb4>
    957c:	0f 93 c0             	setae  %al
    957f:	83 f0 01             	xor    $0x1,%eax
    9582:	84 c0                	test   %al,%al
    9584:	74 0b                	je     9591 <safe_convert_func_float_to_int32_t+0x44>
    9586:	f3 0f 10 45 fc       	movss  -0x4(%rbp),%xmm0
    958b:	f3 0f 2c c0          	cvttss2si %xmm0,%eax
    958f:	eb 05                	jmp    9596 <safe_convert_func_float_to_int32_t+0x49>
    9591:	b8 ff ff ff 7f       	mov    $0x7fffffff,%eax
    9596:	5d                   	pop    %rbp
    9597:	c3                   	retq   

0000000000009598 <crc32_gentab>:
    9598:	f3 0f 1e fa          	endbr64 
    959c:	55                   	push   %rbp
    959d:	48 89 e5             	mov    %rsp,%rbp
    95a0:	c7 45 fc 20 83 b8 ed 	movl   $0xedb88320,-0x4(%rbp)
    95a7:	c7 45 f4 00 00 00 00 	movl   $0x0,-0xc(%rbp)
    95ae:	eb 51                	jmp    9601 <crc32_gentab+0x69>
    95b0:	8b 45 f4             	mov    -0xc(%rbp),%eax
    95b3:	89 45 f0             	mov    %eax,-0x10(%rbp)
    95b6:	c7 45 f8 08 00 00 00 	movl   $0x8,-0x8(%rbp)
    95bd:	eb 1e                	jmp    95dd <crc32_gentab+0x45>
    95bf:	8b 45 f0             	mov    -0x10(%rbp),%eax
    95c2:	83 e0 01             	and    $0x1,%eax
    95c5:	85 c0                	test   %eax,%eax
    95c7:	74 0d                	je     95d6 <crc32_gentab+0x3e>
    95c9:	8b 45 f0             	mov    -0x10(%rbp),%eax
    95cc:	d1 e8                	shr    %eax
    95ce:	33 45 fc             	xor    -0x4(%rbp),%eax
    95d1:	89 45 f0             	mov    %eax,-0x10(%rbp)
    95d4:	eb 03                	jmp    95d9 <crc32_gentab+0x41>
    95d6:	d1 6d f0             	shrl   -0x10(%rbp)
    95d9:	83 6d f8 01          	subl   $0x1,-0x8(%rbp)
    95dd:	83 7d f8 00          	cmpl   $0x0,-0x8(%rbp)
    95e1:	7f dc                	jg     95bf <crc32_gentab+0x27>
    95e3:	8b 45 f4             	mov    -0xc(%rbp),%eax
    95e6:	48 98                	cltq   
    95e8:	48 8d 0c 85 00 00 00 	lea    0x0(,%rax,4),%rcx
    95ef:	00 
    95f0:	48 8d 15 69 32 01 00 	lea    0x13269(%rip),%rdx        # 1c860 <crc32_tab>
    95f7:	8b 45 f0             	mov    -0x10(%rbp),%eax
    95fa:	89 04 11             	mov    %eax,(%rcx,%rdx,1)
    95fd:	83 45 f4 01          	addl   $0x1,-0xc(%rbp)
    9601:	81 7d f4 ff 00 00 00 	cmpl   $0xff,-0xc(%rbp)
    9608:	7e a6                	jle    95b0 <crc32_gentab+0x18>
    960a:	90                   	nop
    960b:	90                   	nop
    960c:	5d                   	pop    %rbp
    960d:	c3                   	retq   

000000000000960e <crc32_byte>:
    960e:	f3 0f 1e fa          	endbr64 
    9612:	55                   	push   %rbp
    9613:	48 89 e5             	mov    %rsp,%rbp
    9616:	89 f8                	mov    %edi,%eax
    9618:	88 45 fc             	mov    %al,-0x4(%rbp)
    961b:	8b 05 ff f9 00 00    	mov    0xf9ff(%rip),%eax        # 19020 <crc32_context>
    9621:	c1 e8 08             	shr    $0x8,%eax
    9624:	89 c1                	mov    %eax,%ecx
    9626:	0f b6 55 fc          	movzbl -0x4(%rbp),%edx
    962a:	8b 05 f0 f9 00 00    	mov    0xf9f0(%rip),%eax        # 19020 <crc32_context>
    9630:	31 d0                	xor    %edx,%eax
    9632:	0f b6 c0             	movzbl %al,%eax
    9635:	89 c0                	mov    %eax,%eax
    9637:	48 8d 14 85 00 00 00 	lea    0x0(,%rax,4),%rdx
    963e:	00 
    963f:	48 8d 05 1a 32 01 00 	lea    0x1321a(%rip),%rax        # 1c860 <crc32_tab>
    9646:	8b 04 02             	mov    (%rdx,%rax,1),%eax
    9649:	31 c8                	xor    %ecx,%eax
    964b:	89 05 cf f9 00 00    	mov    %eax,0xf9cf(%rip)        # 19020 <crc32_context>
    9651:	90                   	nop
    9652:	5d                   	pop    %rbp
    9653:	c3                   	retq   

0000000000009654 <crc32_8bytes>:
    9654:	f3 0f 1e fa          	endbr64 
    9658:	55                   	push   %rbp
    9659:	48 89 e5             	mov    %rsp,%rbp
    965c:	48 83 ec 08          	sub    $0x8,%rsp
    9660:	48 89 7d f8          	mov    %rdi,-0x8(%rbp)
    9664:	48 8b 45 f8          	mov    -0x8(%rbp),%rax
    9668:	0f b6 c0             	movzbl %al,%eax
    966b:	89 c7                	mov    %eax,%edi
    966d:	e8 9c ff ff ff       	callq  960e <crc32_byte>
    9672:	48 8b 45 f8          	mov    -0x8(%rbp),%rax
    9676:	48 c1 e8 08          	shr    $0x8,%rax
    967a:	0f b6 c0             	movzbl %al,%eax
    967d:	89 c7                	mov    %eax,%edi
    967f:	e8 8a ff ff ff       	callq  960e <crc32_byte>
    9684:	48 8b 45 f8          	mov    -0x8(%rbp),%rax
    9688:	48 c1 e8 10          	shr    $0x10,%rax
    968c:	0f b6 c0             	movzbl %al,%eax
    968f:	89 c7                	mov    %eax,%edi
    9691:	e8 78 ff ff ff       	callq  960e <crc32_byte>
    9696:	48 8b 45 f8          	mov    -0x8(%rbp),%rax
    969a:	48 c1 e8 18          	shr    $0x18,%rax
    969e:	0f b6 c0             	movzbl %al,%eax
    96a1:	89 c7                	mov    %eax,%edi
    96a3:	e8 66 ff ff ff       	callq  960e <crc32_byte>
    96a8:	48 8b 45 f8          	mov    -0x8(%rbp),%rax
    96ac:	48 c1 e8 20          	shr    $0x20,%rax
    96b0:	0f b6 c0             	movzbl %al,%eax
    96b3:	89 c7                	mov    %eax,%edi
    96b5:	e8 54 ff ff ff       	callq  960e <crc32_byte>
    96ba:	48 8b 45 f8          	mov    -0x8(%rbp),%rax
    96be:	48 c1 e8 28          	shr    $0x28,%rax
    96c2:	0f b6 c0             	movzbl %al,%eax
    96c5:	89 c7                	mov    %eax,%edi
    96c7:	e8 42 ff ff ff       	callq  960e <crc32_byte>
    96cc:	48 8b 45 f8          	mov    -0x8(%rbp),%rax
    96d0:	48 c1 e8 30          	shr    $0x30,%rax
    96d4:	0f b6 c0             	movzbl %al,%eax
    96d7:	89 c7                	mov    %eax,%edi
    96d9:	e8 30 ff ff ff       	callq  960e <crc32_byte>
    96de:	48 8b 45 f8          	mov    -0x8(%rbp),%rax
    96e2:	48 c1 e8 38          	shr    $0x38,%rax
    96e6:	0f b6 c0             	movzbl %al,%eax
    96e9:	89 c7                	mov    %eax,%edi
    96eb:	e8 1e ff ff ff       	callq  960e <crc32_byte>
    96f0:	90                   	nop
    96f1:	c9                   	leaveq 
    96f2:	c3                   	retq   

00000000000096f3 <transparent_crc>:
    96f3:	f3 0f 1e fa          	endbr64 
    96f7:	55                   	push   %rbp
    96f8:	48 89 e5             	mov    %rsp,%rbp
    96fb:	48 83 ec 20          	sub    $0x20,%rsp
    96ff:	48 89 7d f8          	mov    %rdi,-0x8(%rbp)
    9703:	48 89 75 f0          	mov    %rsi,-0x10(%rbp)
    9707:	89 55 ec             	mov    %edx,-0x14(%rbp)
    970a:	48 8b 45 f8          	mov    -0x8(%rbp),%rax
    970e:	48 89 c7             	mov    %rax,%rdi
    9711:	e8 3e ff ff ff       	callq  9654 <crc32_8bytes>
    9716:	83 7d ec 00          	cmpl   $0x0,-0x14(%rbp)
    971a:	74 22                	je     973e <transparent_crc+0x4b>
    971c:	8b 05 fe f8 00 00    	mov    0xf8fe(%rip),%eax        # 19020 <crc32_context>
    9722:	f7 d0                	not    %eax
    9724:	89 c2                	mov    %eax,%edx
    9726:	48 8b 45 f0          	mov    -0x10(%rbp),%rax
    972a:	48 89 c6             	mov    %rax,%rsi
    972d:	48 8d 3d fc a8 00 00 	lea    0xa8fc(%rip),%rdi        # 14030 <_IO_stdin_used+0x30>
    9734:	b8 00 00 00 00       	mov    $0x0,%eax
    9739:	e8 42 e9 ff ff       	callq  8080 <printf@plt>
    973e:	90                   	nop
    973f:	c9                   	leaveq 
    9740:	c3                   	retq   

0000000000009741 <transparent_crc_bytes>:
    9741:	f3 0f 1e fa          	endbr64 
    9745:	55                   	push   %rbp
    9746:	48 89 e5             	mov    %rsp,%rbp
    9749:	48 83 ec 30          	sub    $0x30,%rsp
    974d:	48 89 7d e8          	mov    %rdi,-0x18(%rbp)
    9751:	89 75 e4             	mov    %esi,-0x1c(%rbp)
    9754:	48 89 55 d8          	mov    %rdx,-0x28(%rbp)
    9758:	89 4d e0             	mov    %ecx,-0x20(%rbp)
    975b:	c7 45 fc 00 00 00 00 	movl   $0x0,-0x4(%rbp)
    9762:	eb 1e                	jmp    9782 <transparent_crc_bytes+0x41>
    9764:	8b 45 fc             	mov    -0x4(%rbp),%eax
    9767:	48 63 d0             	movslq %eax,%rdx
    976a:	48 8b 45 e8          	mov    -0x18(%rbp),%rax
    976e:	48 01 d0             	add    %rdx,%rax
    9771:	0f b6 00             	movzbl (%rax),%eax
    9774:	0f b6 c0             	movzbl %al,%eax
    9777:	89 c7                	mov    %eax,%edi
    9779:	e8 90 fe ff ff       	callq  960e <crc32_byte>
    977e:	83 45 fc 01          	addl   $0x1,-0x4(%rbp)
    9782:	8b 45 fc             	mov    -0x4(%rbp),%eax
    9785:	3b 45 e4             	cmp    -0x1c(%rbp),%eax
    9788:	7c da                	jl     9764 <transparent_crc_bytes+0x23>
    978a:	83 7d e0 00          	cmpl   $0x0,-0x20(%rbp)
    978e:	74 22                	je     97b2 <transparent_crc_bytes+0x71>
    9790:	8b 05 8a f8 00 00    	mov    0xf88a(%rip),%eax        # 19020 <crc32_context>
    9796:	f7 d0                	not    %eax
    9798:	89 c2                	mov    %eax,%edx
    979a:	48 8b 45 d8          	mov    -0x28(%rbp),%rax
    979e:	48 89 c6             	mov    %rax,%rsi
    97a1:	48 8d 3d 88 a8 00 00 	lea    0xa888(%rip),%rdi        # 14030 <_IO_stdin_used+0x30>
    97a8:	b8 00 00 00 00       	mov    $0x0,%eax
    97ad:	e8 ce e8 ff ff       	callq  8080 <printf@plt>
    97b2:	90                   	nop
    97b3:	c9                   	leaveq 
    97b4:	c3                   	retq   

00000000000097b5 <func_1>:
    97b5:	f3 0f 1e fa          	endbr64 
    97b9:	55                   	push   %rbp
    97ba:	48 89 e5             	mov    %rsp,%rbp
    97bd:	53                   	push   %rbx
    97be:	48 81 ec 58 08 00 00 	sub    $0x858,%rsp
    97c5:	64 48 8b 04 25 28 00 	mov    %fs:0x28,%rax
    97cc:	00 00 
    97ce:	48 89 45 e8          	mov    %rax,-0x18(%rbp)
    97d2:	31 c0                	xor    %eax,%eax
    97d4:	c7 85 00 f8 ff ff f1 	movl   $0xac7a8cf1,-0x800(%rbp)
    97db:	8c 7a ac 
    97de:	c7 85 04 f8 ff ff ff 	movl   $0xffffffff,-0x7fc(%rbp)
    97e5:	ff ff ff 
    97e8:	c7 85 08 f8 ff ff f1 	movl   $0xac7a8cf1,-0x7f8(%rbp)
    97ef:	8c 7a ac 
    97f2:	c7 85 0c f8 ff ff ff 	movl   $0xffffffff,-0x7f4(%rbp)
    97f9:	ff ff ff 
    97fc:	c7 85 10 f8 ff ff f1 	movl   $0xac7a8cf1,-0x7f0(%rbp)
    9803:	8c 7a ac 
    9806:	c7 85 14 f8 ff ff ff 	movl   $0xffffffff,-0x7ec(%rbp)
    980d:	ff ff ff 
    9810:	c7 85 18 f8 ff ff f1 	movl   $0xac7a8cf1,-0x7e8(%rbp)
    9817:	8c 7a ac 
    981a:	c7 85 1c f8 ff ff ff 	movl   $0xffffffff,-0x7e4(%rbp)
    9821:	ff ff ff 
    9824:	c7 85 20 f8 ff ff f1 	movl   $0xac7a8cf1,-0x7e0(%rbp)
    982b:	8c 7a ac 
    982e:	c7 85 24 f8 ff ff ff 	movl   $0xffffffff,-0x7dc(%rbp)
    9835:	ff ff ff 
    9838:	48 8d 05 31 fb 00 00 	lea    0xfb31(%rip),%rax        # 19370 <g_1150>
    983f:	48 89 85 c8 f7 ff ff 	mov    %rax,-0x838(%rbp)
    9846:	48 8d 85 60 f8 ff ff 	lea    -0x7a0(%rbp),%rax
    984d:	48 8d 15 cc ff 00 00 	lea    0xffcc(%rip),%rdx        # 19820 <g_1704+0x18>
    9854:	b9 f0 00 00 00       	mov    $0xf0,%ecx
    9859:	48 89 c7             	mov    %rax,%rdi
    985c:	48 89 d6             	mov    %rdx,%rsi
    985f:	f3 48 a5             	rep movsq %ds:(%rsi),%es:(%rdi)
    9862:	48 8d 85 60 f8 ff ff 	lea    -0x7a0(%rbp),%rax
    9869:	48 05 68 05 00 00    	add    $0x568,%rax
    986f:	48 89 85 b8 f7 ff ff 	mov    %rax,-0x848(%rbp)
    9876:	48 8d 85 b8 f7 ff ff 	lea    -0x848(%rbp),%rax
    987d:	48 89 85 d0 f7 ff ff 	mov    %rax,-0x830(%rbp)
    9884:	48 8d 85 b8 f7 ff ff 	lea    -0x848(%rbp),%rax
    988b:	48 89 85 d8 f7 ff ff 	mov    %rax,-0x828(%rbp)
    9892:	c7 85 b0 f7 ff ff c5 	movl   $0x483111c5,-0x850(%rbp)
    9899:	11 31 48 
    989c:	c7 05 7e f7 00 00 fe 	movl   $0xfffffffe,0xf77e(%rip)        # 19024 <g_2>
    98a3:	ff ff ff 
    98a6:	e9 bc 00 00 00       	jmpq   9967 <func_1+0x1b2>
    98ab:	48 b8 81 cb 32 d8 4e 	movabs $0xcbaa6f4ed832cb81,%rax
    98b2:	6f aa cb 
    98b5:	48 89 85 c0 f7 ff ff 	mov    %rax,-0x840(%rbp)
    98bc:	48 c7 85 e8 f7 ff ff 	movq   $0x0,-0x818(%rbp)
    98c3:	00 00 00 00 
    98c7:	c7 05 57 f7 00 00 08 	movl   $0x8,0xf757(%rip)        # 19028 <g_6>
    98ce:	00 00 00 
    98d1:	eb 5b                	jmp    992e <func_1+0x179>
    98d3:	48 8d 05 d0 33 01 00 	lea    0x133d0(%rip),%rax        # 1ccaa <g_138>
    98da:	48 89 85 f0 f7 ff ff 	mov    %rax,-0x810(%rbp)
    98e1:	48 c7 85 f8 f7 ff ff 	movq   $0x0,-0x808(%rbp)
    98e8:	00 00 00 00 
    98ec:	c7 85 b4 f7 ff ff 00 	movl   $0x0,-0x84c(%rbp)
    98f3:	00 00 00 
    98f6:	eb 1e                	jmp    9916 <func_1+0x161>
    98f8:	8b 85 b4 f7 ff ff    	mov    -0x84c(%rbp),%eax
    98fe:	48 98                	cltq   
    9900:	48 8d 15 79 33 01 00 	lea    0x13379(%rip),%rdx        # 1cc80 <g_12>
    9907:	48 89 94 c5 30 f8 ff 	mov    %rdx,-0x7d0(%rbp,%rax,8)
    990e:	ff 
    990f:	83 85 b4 f7 ff ff 01 	addl   $0x1,-0x84c(%rbp)
    9916:	83 bd b4 f7 ff ff 04 	cmpl   $0x4,-0x84c(%rbp)
    991d:	7e d9                	jle    98f8 <func_1+0x143>
    991f:	8b 05 03 f7 00 00    	mov    0xf703(%rip),%eax        # 19028 <g_6>
    9925:	83 e8 01             	sub    $0x1,%eax
    9928:	89 05 fa f6 00 00    	mov    %eax,0xf6fa(%rip)        # 19028 <g_6>
    992e:	8b 05 f4 f6 00 00    	mov    0xf6f4(%rip),%eax        # 19028 <g_6>
    9934:	85 c0                	test   %eax,%eax
    9936:	7f 9b                	jg     98d3 <func_1+0x11e>
    9938:	48 8b 05 e1 2e 01 00 	mov    0x12ee1(%rip),%rax        # 1c820 <g_1684>
    993f:	48 8b 95 c8 f7 ff ff 	mov    -0x838(%rbp),%rdx
    9946:	48 89 10             	mov    %rdx,(%rax)
    9949:	8b 05 d5 f6 00 00    	mov    0xf6d5(%rip),%eax        # 19024 <g_2>
    994f:	0f b6 c0             	movzbl %al,%eax
    9952:	be 04 00 00 00       	mov    $0x4,%esi
    9957:	89 c7                	mov    %eax,%edi
    9959:	e8 1a f2 ff ff       	callq  8b78 <safe_sub_func_uint8_t_u_u>
    995e:	0f b6 c0             	movzbl %al,%eax
    9961:	89 05 bd f6 00 00    	mov    %eax,0xf6bd(%rip)        # 19024 <g_2>
    9967:	8b 05 b7 f6 00 00    	mov    0xf6b7(%rip),%eax        # 19024 <g_2>
    996d:	83 f8 e8             	cmp    $0xffffffe8,%eax
    9970:	0f 8d 35 ff ff ff    	jge    98ab <func_1+0xf6>
    9976:	48 8b 85 d0 f7 ff ff 	mov    -0x830(%rbp),%rax
    997d:	48 89 05 dc 33 01 00 	mov    %rax,0x133dc(%rip)        # 1cd60 <g_1688>
    9984:	48 8b 05 d5 33 01 00 	mov    0x133d5(%rip),%rax        # 1cd60 <g_1688>
    998b:	48 89 85 d8 f7 ff ff 	mov    %rax,-0x828(%rbp)
    9992:	c7 05 d4 f9 00 00 00 	movl   $0x0,0xf9d4(%rip)        # 19370 <g_1150>
    9999:	00 00 00 
    999c:	e9 56 01 00 00       	jmpq   9af7 <func_1+0x342>
    99a1:	48 8d 05 58 1f 01 00 	lea    0x11f58(%rip),%rax        # 1b900 <g_501>
    99a8:	48 89 85 e0 f7 ff ff 	mov    %rax,-0x820(%rbp)
    99af:	c7 85 30 f8 ff ff 7b 	movl   $0xc258ce7b,-0x7d0(%rbp)
    99b6:	ce 58 c2 
    99b9:	c7 85 34 f8 ff ff d5 	movl   $0x24666bd5,-0x7cc(%rbp)
    99c0:	6b 66 24 
    99c3:	c7 85 38 f8 ff ff f0 	movl   $0xf56933f0,-0x7c8(%rbp)
    99ca:	33 69 f5 
    99cd:	c7 85 3c f8 ff ff 08 	movl   $0x8,-0x7c4(%rbp)
    99d4:	00 00 00 
    99d7:	c7 85 40 f8 ff ff d5 	movl   $0x24666bd5,-0x7c0(%rbp)
    99de:	6b 66 24 
    99e1:	c7 85 44 f8 ff ff 08 	movl   $0x8,-0x7bc(%rbp)
    99e8:	00 00 00 
    99eb:	c7 85 48 f8 ff ff f0 	movl   $0xf56933f0,-0x7b8(%rbp)
    99f2:	33 69 f5 
    99f5:	c7 85 4c f8 ff ff d5 	movl   $0x24666bd5,-0x7b4(%rbp)
    99fc:	6b 66 24 
    99ff:	c7 85 50 f8 ff ff 7b 	movl   $0xc258ce7b,-0x7b0(%rbp)
    9a06:	ce 58 c2 
    9a09:	c7 85 54 f8 ff ff 7b 	movl   $0xc258ce7b,-0x7ac(%rbp)
    9a10:	ce 58 c2 
    9a13:	c7 85 58 f8 ff ff 7b 	movl   $0xc258ce7b,-0x7a8(%rbp)
    9a1a:	ce 58 c2 
    9a1d:	c7 85 5c f8 ff ff d5 	movl   $0x24666bd5,-0x7a4(%rbp)
    9a24:	6b 66 24 
    9a27:	66 c7 85 ae f7 ff ff 	movw   $0x0,-0x852(%rbp)
    9a2e:	00 00 
    9a30:	48 83 bd e0 f7 ff ff 	cmpq   $0x0,-0x820(%rbp)
    9a37:	00 
    9a38:	0f 95 c0             	setne  %al
    9a3b:	0f b6 d8             	movzbl %al,%ebx
    9a3e:	8b 85 50 f8 ff ff    	mov    -0x7b0(%rbp),%eax
    9a44:	0f b7 c0             	movzwl %ax,%eax
    9a47:	be 0c 00 00 00       	mov    $0xc,%esi
    9a4c:	89 c7                	mov    %eax,%edi
    9a4e:	e8 b3 f3 ff ff       	callq  8e06 <safe_lshift_func_uint16_t_u_u>
    9a53:	48 8b 85 c8 f7 ff ff 	mov    -0x838(%rbp),%rax
    9a5a:	8b 00                	mov    (%rax),%eax
    9a5c:	48 98                	cltq   
    9a5e:	48 89 c6             	mov    %rax,%rsi
    9a61:	48 c7 c7 ff ff ff ff 	mov    $0xffffffffffffffff,%rdi
    9a68:	e8 c1 f5 ff ff       	callq  902e <safe_add_func_uint64_t_u_u>
    9a6d:	66 83 bd ae f7 ff ff 	cmpw   $0x0,-0x852(%rbp)
    9a74:	00 
    9a75:	0f 94 c0             	sete   %al
    9a78:	0f b6 c0             	movzbl %al,%eax
    9a7b:	be 8c 00 00 00       	mov    $0x8c,%esi
    9a80:	89 c7                	mov    %eax,%edi
    9a82:	e8 27 f1 ff ff       	callq  8bae <safe_mod_func_uint8_t_u_u>
    9a87:	0f b6 c0             	movzbl %al,%eax
    9a8a:	48 09 c3             	or     %rax,%rbx
    9a8d:	48 89 da             	mov    %rbx,%rdx
    9a90:	48 8b 85 c8 f7 ff ff 	mov    -0x838(%rbp),%rax
    9a97:	8b 00                	mov    (%rax),%eax
    9a99:	48 98                	cltq   
    9a9b:	48 39 c2             	cmp    %rax,%rdx
    9a9e:	0f 92 c2             	setb   %dl
    9aa1:	48 8b 05 60 29 01 00 	mov    0x12960(%rip),%rax        # 1c408 <g_982>
    9aa8:	88 10                	mov    %dl,(%rax)
    9aaa:	0f b6 00             	movzbl (%rax),%eax
    9aad:	0f b6 d0             	movzbl %al,%edx
    9ab0:	48 8b 05 e9 21 01 00 	mov    0x121e9(%rip),%rax        # 1bca0 <g_580>
    9ab7:	0f b6 00             	movzbl (%rax),%eax
    9aba:	89 c1                	mov    %eax,%ecx
    9abc:	48 8b 85 c8 f7 ff ff 	mov    -0x838(%rbp),%rax
    9ac3:	8b 00                	mov    (%rax),%eax
    9ac5:	09 c1                	or     %eax,%ecx
    9ac7:	48 8b 05 d2 21 01 00 	mov    0x121d2(%rip),%rax        # 1bca0 <g_580>
    9ace:	88 08                	mov    %cl,(%rax)
    9ad0:	0f b6 00             	movzbl (%rax),%eax
    9ad3:	0f b6 c0             	movzbl %al,%eax
    9ad6:	89 d6                	mov    %edx,%esi
    9ad8:	89 c7                	mov    %eax,%edi
    9ada:	e8 99 f0 ff ff       	callq  8b78 <safe_sub_func_uint8_t_u_u>
    9adf:	0f b6 c0             	movzbl %al,%eax
    9ae2:	09 85 b0 f7 ff ff    	or     %eax,-0x850(%rbp)
    9ae8:	8b 05 82 f8 00 00    	mov    0xf882(%rip),%eax        # 19370 <g_1150>
    9aee:	83 c0 01             	add    $0x1,%eax
    9af1:	89 05 79 f8 00 00    	mov    %eax,0xf879(%rip)        # 19370 <g_1150>
    9af7:	8b 05 73 f8 00 00    	mov    0xf873(%rip),%eax        # 19370 <g_1150>
    9afd:	85 c0                	test   %eax,%eax
    9aff:	0f 85 9c fe ff ff    	jne    99a1 <func_1+0x1ec>
    9b05:	8b 05 fd fc 00 00    	mov    0xfcfd(%rip),%eax        # 19808 <g_1704>
    9b0b:	48 8b 5d e8          	mov    -0x18(%rbp),%rbx
    9b0f:	64 48 33 1c 25 28 00 	xor    %fs:0x28,%rbx
    9b16:	00 00 
    9b18:	74 05                	je     9b1f <func_1+0x36a>
    9b1a:	e8 51 e5 ff ff       	callq  8070 <__stack_chk_fail@plt>
    9b1f:	48 81 c4 58 08 00 00 	add    $0x858,%rsp
    9b26:	5b                   	pop    %rbx
    9b27:	5d                   	pop    %rbp
    9b28:	c3                   	retq   

0000000000009b29 <func_7>:
    9b29:	f3 0f 1e fa          	endbr64 
    9b2d:	55                   	push   %rbp
    9b2e:	48 89 e5             	mov    %rsp,%rbp
    9b31:	41 56                	push   %r14
    9b33:	41 55                	push   %r13
    9b35:	41 54                	push   %r12
    9b37:	53                   	push   %rbx
    9b38:	48 81 ec 90 04 00 00 	sub    $0x490,%rsp
    9b3f:	48 89 bd 68 fb ff ff 	mov    %rdi,-0x498(%rbp)
    9b46:	48 89 b5 60 fb ff ff 	mov    %rsi,-0x4a0(%rbp)
    9b4d:	89 95 5c fb ff ff    	mov    %edx,-0x4a4(%rbp)
    9b53:	48 89 8d 50 fb ff ff 	mov    %rcx,-0x4b0(%rbp)
    9b5a:	64 48 8b 04 25 28 00 	mov    %fs:0x28,%rax
    9b61:	00 00 
    9b63:	48 89 45 d8          	mov    %rax,-0x28(%rbp)
    9b67:	31 c0                	xor    %eax,%eax
    9b69:	48 8d 85 b0 fc ff ff 	lea    -0x350(%rbp),%rax
    9b70:	48 8d 15 29 04 01 00 	lea    0x10429(%rip),%rdx        # 19fa0 <g_1704+0x798>
    9b77:	b9 64 00 00 00       	mov    $0x64,%ecx
    9b7c:	48 89 c7             	mov    %rax,%rdi
    9b7f:	48 89 d6             	mov    %rdx,%rsi
    9b82:	f3 48 a5             	rep movsq %ds:(%rsi),%es:(%rdi)
    9b85:	48 8d 85 b0 fc ff ff 	lea    -0x350(%rbp),%rax
    9b8c:	48 05 58 02 00 00    	add    $0x258,%rax
    9b92:	48 89 85 80 fb ff ff 	mov    %rax,-0x480(%rbp)
    9b99:	c7 85 74 fb ff ff 19 	movl   $0x12d95a19,-0x48c(%rbp)
    9ba0:	5a d9 12 
    9ba3:	48 bb 73 f9 f0 32 b9 	movabs $0x827d06b932f0f973,%rbx
    9baa:	06 7d 82 
    9bad:	48 89 9d 10 fc ff ff 	mov    %rbx,-0x3f0(%rbp)
    9bb4:	48 be 2b 8f 66 6e 00 	movabs $0x9860d3006e668f2b,%rsi
    9bbb:	d3 60 98 
    9bbe:	48 89 b5 18 fc ff ff 	mov    %rsi,-0x3e8(%rbp)
    9bc5:	48 89 9d 20 fc ff ff 	mov    %rbx,-0x3e0(%rbp)
    9bcc:	48 b8 65 7d b4 2b b7 	movabs $0x5859e9b72bb47d65,%rax
    9bd3:	e9 59 58 
    9bd6:	48 89 85 28 fc ff ff 	mov    %rax,-0x3d8(%rbp)
    9bdd:	48 89 9d 30 fc ff ff 	mov    %rbx,-0x3d0(%rbp)
    9be4:	48 89 85 38 fc ff ff 	mov    %rax,-0x3c8(%rbp)
    9beb:	48 89 85 40 fc ff ff 	mov    %rax,-0x3c0(%rbp)
    9bf2:	48 89 9d 48 fc ff ff 	mov    %rbx,-0x3b8(%rbp)
    9bf9:	48 c7 85 50 fc ff ff 	movq   $0x1,-0x3b0(%rbp)
    9c00:	01 00 00 00 
    9c04:	48 89 85 58 fc ff ff 	mov    %rax,-0x3a8(%rbp)
    9c0b:	48 b9 9e ce c3 b1 d5 	movabs $0x65f3a7d5b1c3ce9e,%rcx
    9c12:	a7 f3 65 
    9c15:	48 89 8d 60 fc ff ff 	mov    %rcx,-0x3a0(%rbp)
    9c1c:	48 89 85 68 fc ff ff 	mov    %rax,-0x398(%rbp)
    9c23:	48 89 85 70 fc ff ff 	mov    %rax,-0x390(%rbp)
    9c2a:	48 89 b5 78 fc ff ff 	mov    %rsi,-0x388(%rbp)
    9c31:	48 89 8d 80 fc ff ff 	mov    %rcx,-0x380(%rbp)
    9c38:	48 89 8d 88 fc ff ff 	mov    %rcx,-0x378(%rbp)
    9c3f:	48 c7 85 90 fc ff ff 	movq   $0x1,-0x370(%rbp)
    9c46:	01 00 00 00 
    9c4a:	48 c7 85 98 fc ff ff 	movq   $0x1,-0x368(%rbp)
    9c51:	01 00 00 00 
    9c55:	48 89 85 a0 fc ff ff 	mov    %rax,-0x360(%rbp)
    9c5c:	48 89 8d a8 fc ff ff 	mov    %rcx,-0x358(%rbp)
    9c63:	c7 85 78 fb ff ff 01 	movl   $0x1,-0x488(%rbp)
    9c6a:	00 00 00 
    9c6d:	48 8d 05 dc f5 00 00 	lea    0xf5dc(%rip),%rax        # 19250 <g_976>
    9c74:	48 89 85 88 fb ff ff 	mov    %rax,-0x478(%rbp)
    9c7b:	48 8d 05 de f3 00 00 	lea    0xf3de(%rip),%rax        # 19060 <g_66>
    9c82:	48 89 85 90 fb ff ff 	mov    %rax,-0x470(%rbp)
    9c89:	c7 85 7c fb ff ff c9 	movl   $0xf0b7bfc9,-0x484(%rbp)
    9c90:	bf b7 f0 
    9c93:	48 8d 05 36 f4 00 00 	lea    0xf436(%rip),%rax        # 190d0 <g_268>
    9c9a:	48 89 85 98 fb ff ff 	mov    %rax,-0x468(%rbp)
    9ca1:	48 8d 05 f0 2f 01 00 	lea    0x12ff0(%rip),%rax        # 1cc98 <g_12+0x18>
    9ca8:	48 89 85 c0 fb ff ff 	mov    %rax,-0x440(%rbp)
    9caf:	48 8d 05 52 27 01 00 	lea    0x12752(%rip),%rax        # 1c408 <g_982>
    9cb6:	48 89 85 c8 fb ff ff 	mov    %rax,-0x438(%rbp)
    9cbd:	48 8d 05 d4 2f 01 00 	lea    0x12fd4(%rip),%rax        # 1cc98 <g_12+0x18>
    9cc4:	48 89 85 d0 fb ff ff 	mov    %rax,-0x430(%rbp)
    9ccb:	48 c7 85 d8 fb ff ff 	movq   $0x0,-0x428(%rbp)
    9cd2:	00 00 00 00 
    9cd6:	48 c7 85 e0 fb ff ff 	movq   $0x0,-0x420(%rbp)
    9cdd:	00 00 00 00 
    9ce1:	48 8d 05 b0 2f 01 00 	lea    0x12fb0(%rip),%rax        # 1cc98 <g_12+0x18>
    9ce8:	48 89 85 e8 fb ff ff 	mov    %rax,-0x418(%rbp)
    9cef:	48 8d 05 12 27 01 00 	lea    0x12712(%rip),%rax        # 1c408 <g_982>
    9cf6:	48 89 85 f0 fb ff ff 	mov    %rax,-0x410(%rbp)
    9cfd:	48 8d 05 94 2f 01 00 	lea    0x12f94(%rip),%rax        # 1cc98 <g_12+0x18>
    9d04:	48 89 85 f8 fb ff ff 	mov    %rax,-0x408(%rbp)
    9d0b:	48 c7 85 00 fc ff ff 	movq   $0x0,-0x400(%rbp)
    9d12:	00 00 00 00 
    9d16:	48 c7 85 08 fc ff ff 	movq   $0x0,-0x3f8(%rbp)
    9d1d:	00 00 00 00 
    9d21:	c7 85 70 fb ff ff 00 	movl   $0x0,-0x490(%rbp)
    9d28:	00 00 00 
    9d2b:	eb 1a                	jmp    9d47 <func_7+0x21e>
    9d2d:	8b 85 70 fb ff ff    	mov    -0x490(%rbp),%eax
    9d33:	48 98                	cltq   
    9d35:	c7 84 85 a0 fb ff ff 	movl   $0x410367b7,-0x460(%rbp,%rax,4)
    9d3c:	b7 67 03 41 
    9d40:	83 85 70 fb ff ff 01 	addl   $0x1,-0x490(%rbp)
    9d47:	83 bd 70 fb ff ff 04 	cmpl   $0x4,-0x490(%rbp)
    9d4e:	7e dd                	jle    9d2d <func_7+0x204>
    9d50:	48 8d 05 c9 26 01 00 	lea    0x126c9(%rip),%rax        # 1c420 <g_1147>
    9d57:	48 39 85 80 fb ff ff 	cmp    %rax,-0x480(%rbp)
    9d5e:	0f 84 0e 01 00 00    	je     9e72 <func_7+0x349>
    9d64:	83 bd 74 fb ff ff 00 	cmpl   $0x0,-0x48c(%rbp)
    9d6b:	0f 85 00 01 00 00    	jne    9e71 <func_7+0x348>
    9d71:	8b 05 65 2f 01 00    	mov    0x12f65(%rip),%eax        # 1ccdc <g_844+0x4>
    9d77:	0f bf d8             	movswl %ax,%ebx
    9d7a:	0f b7 05 27 2f 01 00 	movzwl 0x12f27(%rip),%eax        # 1cca8 <g_105>
    9d81:	66 3d d4 45          	cmp    $0x45d4,%ax
    9d85:	77 09                	ja     9d90 <func_7+0x267>
    9d87:	83 bd 5c fb ff ff 00 	cmpl   $0x0,-0x4a4(%rbp)
    9d8e:	74 07                	je     9d97 <func_7+0x26e>
    9d90:	b8 01 00 00 00       	mov    $0x1,%eax
    9d95:	eb 05                	jmp    9d9c <func_7+0x273>
    9d97:	b8 00 00 00 00       	mov    $0x0,%eax
    9d9c:	89 85 78 fb ff ff    	mov    %eax,-0x488(%rbp)
    9da2:	8b 85 78 fb ff ff    	mov    -0x488(%rbp),%eax
    9da8:	89 c2                	mov    %eax,%edx
    9daa:	48 8b 85 88 fb ff ff 	mov    -0x478(%rbp),%rax
    9db1:	66 89 10             	mov    %dx,(%rax)
    9db4:	48 8b 85 88 fb ff ff 	mov    -0x478(%rbp),%rax
    9dbb:	0f b7 00             	movzwl (%rax),%eax
    9dbe:	0f bf d0             	movswl %ax,%edx
    9dc1:	8b 05 9d f3 00 00    	mov    0xf39d(%rip),%eax        # 19164 <g_843>
    9dc7:	98                   	cwtl   
    9dc8:	89 d6                	mov    %edx,%esi
    9dca:	89 c7                	mov    %eax,%edi
    9dcc:	e8 c1 e6 ff ff       	callq  8492 <safe_lshift_func_int16_t_s_s>
    9dd1:	66 85 c0             	test   %ax,%ax
    9dd4:	74 10                	je     9de6 <func_7+0x2bd>
    9dd6:	83 bd 74 fb ff ff 00 	cmpl   $0x0,-0x48c(%rbp)
    9ddd:	74 07                	je     9de6 <func_7+0x2bd>
    9ddf:	b8 01 00 00 00       	mov    $0x1,%eax
    9de4:	eb 05                	jmp    9deb <func_7+0x2c2>
    9de6:	b8 00 00 00 00       	mov    $0x0,%eax
    9deb:	0f be d0             	movsbl %al,%edx
    9dee:	8b 85 74 fb ff ff    	mov    -0x48c(%rbp),%eax
    9df4:	0f be c0             	movsbl %al,%eax
    9df7:	89 d6                	mov    %edx,%esi
    9df9:	89 c7                	mov    %eax,%edi
    9dfb:	e8 6a e4 ff ff       	callq  826a <safe_div_func_int8_t_s_s>
    9e00:	84 c0                	test   %al,%al
    9e02:	75 0f                	jne    9e13 <func_7+0x2ea>
    9e04:	48 8b 05 15 13 01 00 	mov    0x11315(%rip),%rax        # 1b120 <g_114>
    9e0b:	48 8b 00             	mov    (%rax),%rax
    9e0e:	48 85 c0             	test   %rax,%rax
    9e11:	74 07                	je     9e1a <func_7+0x2f1>
    9e13:	b8 01 00 00 00       	mov    $0x1,%eax
    9e18:	eb 05                	jmp    9e1f <func_7+0x2f6>
    9e1a:	b8 00 00 00 00       	mov    $0x0,%eax
    9e1f:	3b 85 74 fb ff ff    	cmp    -0x48c(%rbp),%eax
    9e25:	0f 95 c0             	setne  %al
    9e28:	0f b6 c0             	movzbl %al,%eax
    9e2b:	89 de                	mov    %ebx,%esi
    9e2d:	89 c7                	mov    %eax,%edi
    9e2f:	e8 21 e6 ff ff       	callq  8455 <safe_div_func_int16_t_s_s>
    9e34:	98                   	cwtl   
    9e35:	be ff ff ff ff       	mov    $0xffffffff,%esi
    9e3a:	89 c7                	mov    %eax,%edi
    9e3c:	e8 bc f0 ff ff       	callq  8efd <safe_mod_func_uint32_t_u_u>
    9e41:	85 c0                	test   %eax,%eax
    9e43:	74 11                	je     9e56 <func_7+0x32d>
    9e45:	8b 05 05 f2 00 00    	mov    0xf205(%rip),%eax        # 19050 <g_42+0x10>
    9e4b:	85 c0                	test   %eax,%eax
    9e4d:	74 07                	je     9e56 <func_7+0x32d>
    9e4f:	b8 01 00 00 00       	mov    $0x1,%eax
    9e54:	eb 05                	jmp    9e5b <func_7+0x332>
    9e56:	b8 00 00 00 00       	mov    $0x0,%eax
    9e5b:	89 c2                	mov    %eax,%edx
    9e5d:	48 8b 85 90 fb ff ff 	mov    -0x470(%rbp),%rax
    9e64:	89 10                	mov    %edx,(%rax)
    9e66:	48 8b 85 90 fb ff ff 	mov    -0x470(%rbp),%rax
    9e6d:	8b 00                	mov    (%rax),%eax
    9e6f:	85 c0                	test   %eax,%eax
    9e71:	90                   	nop
    9e72:	48 8b 85 60 fb ff ff 	mov    -0x4a0(%rbp),%rax
    9e79:	89 85 74 fb ff ff    	mov    %eax,-0x48c(%rbp)
    9e7f:	48 8b 05 1a 1e 01 00 	mov    0x11e1a(%rip),%rax        # 1bca0 <g_580>
    9e86:	0f b6 00             	movzbl (%rax),%eax
    9e89:	0f be d0             	movsbl %al,%edx
    9e8c:	8b 85 ac fb ff ff    	mov    -0x454(%rbp),%eax
    9e92:	0f be c0             	movsbl %al,%eax
    9e95:	89 d6                	mov    %edx,%esi
    9e97:	89 c7                	mov    %eax,%edi
    9e99:	e8 36 e3 ff ff       	callq  81d4 <safe_add_func_int8_t_s_s>
    9e9e:	0f be c0             	movsbl %al,%eax
    9ea1:	be 03 00 00 00       	mov    $0x3,%esi
    9ea6:	89 c7                	mov    %eax,%edi
    9ea8:	e8 41 e4 ff ff       	callq  82ee <safe_lshift_func_int8_t_s_u>
    9ead:	44 0f be f0          	movsbl %al,%r14d
    9eb1:	48 8b 05 60 12 01 00 	mov    0x11260(%rip),%rax        # 1b118 <g_94>
    9eb8:	48 8b 00             	mov    (%rax),%rax
    9ebb:	0f b6 00             	movzbl (%rax),%eax
    9ebe:	0f be d8             	movsbl %al,%ebx
    9ec1:	8b 85 74 fb ff ff    	mov    -0x48c(%rbp),%eax
    9ec7:	44 0f b7 e0          	movzwl %ax,%r12d
    9ecb:	48 8b 05 ce 1d 01 00 	mov    0x11dce(%rip),%rax        # 1bca0 <g_580>
    9ed2:	0f b6 00             	movzbl (%rax),%eax
    9ed5:	44 0f b6 e8          	movzbl %al,%r13d
    9ed9:	48 8b 05 38 12 01 00 	mov    0x11238(%rip),%rax        # 1b118 <g_94>
    9ee0:	48 8b 00             	mov    (%rax),%rax
    9ee3:	0f b6 00             	movzbl (%rax),%eax
    9ee6:	0f be d0             	movsbl %al,%edx
    9ee9:	48 8b 05 20 12 01 00 	mov    0x11220(%rip),%rax        # 1b110 <g_95>
    9ef0:	0f b6 00             	movzbl (%rax),%eax
    9ef3:	0f be c0             	movsbl %al,%eax
    9ef6:	89 d6                	mov    %edx,%esi
    9ef8:	89 c7                	mov    %eax,%edi
    9efa:	e8 36 e4 ff ff       	callq  8335 <safe_rshift_func_int8_t_s_s>
    9eff:	c7 85 78 fb ff ff ff 	movl   $0xffffffff,-0x488(%rbp)
    9f06:	ff ff ff 
    9f09:	48 8b 85 50 fc ff ff 	mov    -0x3b0(%rbp),%rax
    9f10:	0f b7 c0             	movzwl %ax,%eax
    9f13:	be 0c 00 00 00       	mov    $0xc,%esi
    9f18:	89 c7                	mov    %eax,%edi
    9f1a:	e8 5b ef ff ff       	callq  8e7a <safe_rshift_func_uint16_t_u_u>
    9f1f:	0f b7 c0             	movzwl %ax,%eax
    9f22:	48 39 85 60 fb ff ff 	cmp    %rax,-0x4a0(%rbp)
    9f29:	0f 9e c0             	setle  %al
    9f2c:	0f b6 d0             	movzbl %al,%edx
    9f2f:	0f b6 05 ca f8 00 00 	movzbl 0xf8ca(%rip),%eax        # 19800 <g_1646>
    9f36:	0f b6 c8             	movzbl %al,%ecx
    9f39:	8b 85 b0 fb ff ff    	mov    -0x450(%rbp),%eax
    9f3f:	39 c1                	cmp    %eax,%ecx
    9f41:	0f 9d c0             	setge  %al
    9f44:	0f b6 c0             	movzbl %al,%eax
    9f47:	39 c2                	cmp    %eax,%edx
    9f49:	0f 9e c0             	setle  %al
    9f4c:	0f b6 c0             	movzbl %al,%eax
    9f4f:	44 89 ee             	mov    %r13d,%esi
    9f52:	89 c7                	mov    %eax,%edi
    9f54:	e8 01 ec ff ff       	callq  8b5a <safe_add_func_uint8_t_u_u>
    9f59:	0f b6 c0             	movzbl %al,%eax
    9f5c:	be 07 00 00 00       	mov    $0x7,%esi
    9f61:	89 c7                	mov    %eax,%edi
    9f63:	e8 12 ef ff ff       	callq  8e7a <safe_rshift_func_uint16_t_u_u>
    9f68:	0f b7 c0             	movzwl %ax,%eax
    9f6b:	44 89 e6             	mov    %r12d,%esi
    9f6e:	89 c7                	mov    %eax,%edi
    9f70:	e8 19 ee ff ff       	callq  8d8e <safe_div_func_uint16_t_u_u>
    9f75:	0f b7 c0             	movzwl %ax,%eax
    9f78:	48 39 85 60 fb ff ff 	cmp    %rax,-0x4a0(%rbp)
    9f7f:	0f 9f c0             	setg   %al
    9f82:	0f b6 c0             	movzbl %al,%eax
    9f85:	89 de                	mov    %ebx,%esi
    9f87:	89 c7                	mov    %eax,%edi
    9f89:	e8 13 e3 ff ff       	callq  82a1 <safe_lshift_func_int8_t_s_s>
    9f8e:	0f be c0             	movsbl %al,%eax
    9f91:	39 85 5c fb ff ff    	cmp    %eax,-0x4a4(%rbp)
    9f97:	0f 96 c0             	setbe  %al
    9f9a:	0f b6 c0             	movzbl %al,%eax
    9f9d:	39 85 5c fb ff ff    	cmp    %eax,-0x4a4(%rbp)
    9fa3:	77 0b                	ja     9fb0 <func_7+0x487>
    9fa5:	0f b6 05 5c f1 00 00 	movzbl 0xf15c(%rip),%eax        # 19108 <g_578>
    9fac:	84 c0                	test   %al,%al
    9fae:	74 07                	je     9fb7 <func_7+0x48e>
    9fb0:	b8 01 00 00 00       	mov    $0x1,%eax
    9fb5:	eb 05                	jmp    9fbc <func_7+0x493>
    9fb7:	b8 00 00 00 00       	mov    $0x0,%eax
    9fbc:	44 39 f0             	cmp    %r14d,%eax
    9fbf:	74 10                	je     9fd1 <func_7+0x4a8>
    9fc1:	83 bd 7c fb ff ff 00 	cmpl   $0x0,-0x484(%rbp)
    9fc8:	74 07                	je     9fd1 <func_7+0x4a8>
    9fca:	ba 01 00 00 00       	mov    $0x1,%edx
    9fcf:	eb 05                	jmp    9fd6 <func_7+0x4ad>
    9fd1:	ba 00 00 00 00       	mov    $0x0,%edx
    9fd6:	48 8b 85 98 fb ff ff 	mov    -0x468(%rbp),%rax
    9fdd:	89 10                	mov    %edx,(%rax)
    9fdf:	8b 85 b0 fb ff ff    	mov    -0x450(%rbp),%eax
    9fe5:	85 c0                	test   %eax,%eax
    9fe7:	0f 95 c0             	setne  %al
    9fea:	0f b6 c0             	movzbl %al,%eax
    9fed:	0f b7 15 c4 f0 00 00 	movzwl 0xf0c4(%rip),%edx        # 190b8 <g_187>
    9ff4:	0f bf ca             	movswl %dx,%ecx
    9ff7:	0f b6 15 4a f2 00 00 	movzbl 0xf24a(%rip),%edx        # 19248 <g_960>
    9ffe:	0f b6 d2             	movzbl %dl,%edx
    a001:	31 ca                	xor    %ecx,%edx
    a003:	09 d0                	or     %edx,%eax
    a005:	85 c0                	test   %eax,%eax
    a007:	75 0a                	jne    a013 <func_7+0x4ea>
    a009:	8b 85 a8 fb ff ff    	mov    -0x458(%rbp),%eax
    a00f:	85 c0                	test   %eax,%eax
    a011:	74 07                	je     a01a <func_7+0x4f1>
    a013:	b8 01 00 00 00       	mov    $0x1,%eax
    a018:	eb 05                	jmp    a01f <func_7+0x4f6>
    a01a:	b8 00 00 00 00       	mov    $0x0,%eax
    a01f:	89 85 a8 fb ff ff    	mov    %eax,-0x458(%rbp)
    a025:	48 8b 85 08 fc ff ff 	mov    -0x3f8(%rbp),%rax
    a02c:	48 8b 7d d8          	mov    -0x28(%rbp),%rdi
    a030:	64 48 33 3c 25 28 00 	xor    %fs:0x28,%rdi
    a037:	00 00 
    a039:	74 05                	je     a040 <func_7+0x517>
    a03b:	e8 30 e0 ff ff       	callq  8070 <__stack_chk_fail@plt>
    a040:	48 81 c4 90 04 00 00 	add    $0x490,%rsp
    a047:	5b                   	pop    %rbx
    a048:	41 5c                	pop    %r12
    a04a:	41 5d                	pop    %r13
    a04c:	41 5e                	pop    %r14
    a04e:	5d                   	pop    %rbp
    a04f:	c3                   	retq   

000000000000a050 <func_14>:
    a050:	f3 0f 1e fa          	endbr64 
    a054:	55                   	push   %rbp
    a055:	48 89 e5             	mov    %rsp,%rbp
    a058:	41 57                	push   %r15
    a05a:	41 56                	push   %r14
    a05c:	41 55                	push   %r13
    a05e:	41 54                	push   %r12
    a060:	53                   	push   %rbx
    a061:	48 81 ec 00 10 00 00 	sub    $0x1000,%rsp
    a068:	48 83 0c 24 00       	orq    $0x0,(%rsp)
    a06d:	48 81 ec a8 04 00 00 	sub    $0x4a8,%rsp
    a074:	48 89 bd 48 eb ff ff 	mov    %rdi,-0x14b8(%rbp)
    a07b:	48 89 b5 40 eb ff ff 	mov    %rsi,-0x14c0(%rbp)
    a082:	48 89 95 38 eb ff ff 	mov    %rdx,-0x14c8(%rbp)
    a089:	89 c8                	mov    %ecx,%eax
    a08b:	66 89 85 34 eb ff ff 	mov    %ax,-0x14cc(%rbp)
    a092:	64 48 8b 04 25 28 00 	mov    %fs:0x28,%rax
    a099:	00 00 
    a09b:	48 89 45 c8          	mov    %rax,-0x38(%rbp)
    a09f:	31 c0                	xor    %eax,%eax
    a0a1:	66 c7 85 54 eb ff ff 	movw   $0x4,-0x14ac(%rbp)
    a0a8:	04 00 
    a0aa:	48 8d 05 25 f0 00 00 	lea    0xf025(%rip),%rax        # 190d6 <g_282>
    a0b1:	48 89 85 80 ee ff ff 	mov    %rax,-0x1180(%rbp)
    a0b8:	48 8d 05 17 f0 00 00 	lea    0xf017(%rip),%rax        # 190d6 <g_282>
    a0bf:	48 89 85 88 ee ff ff 	mov    %rax,-0x1178(%rbp)
    a0c6:	48 8d 05 09 f0 00 00 	lea    0xf009(%rip),%rax        # 190d6 <g_282>
    a0cd:	48 89 85 90 ee ff ff 	mov    %rax,-0x1170(%rbp)
    a0d4:	48 8d 05 fb ef 00 00 	lea    0xeffb(%rip),%rax        # 190d6 <g_282>
    a0db:	48 89 85 98 ee ff ff 	mov    %rax,-0x1168(%rbp)
    a0e2:	48 8d 05 ed ef 00 00 	lea    0xefed(%rip),%rax        # 190d6 <g_282>
    a0e9:	48 89 85 a0 ee ff ff 	mov    %rax,-0x1160(%rbp)
    a0f0:	48 8d 05 df ef 00 00 	lea    0xefdf(%rip),%rax        # 190d6 <g_282>
    a0f7:	48 89 85 a8 ee ff ff 	mov    %rax,-0x1158(%rbp)
    a0fe:	48 8d 05 d1 ef 00 00 	lea    0xefd1(%rip),%rax        # 190d6 <g_282>
    a105:	48 89 85 b0 ee ff ff 	mov    %rax,-0x1150(%rbp)
    a10c:	48 8d 05 c3 ef 00 00 	lea    0xefc3(%rip),%rax        # 190d6 <g_282>
    a113:	48 89 85 b8 ee ff ff 	mov    %rax,-0x1148(%rbp)
    a11a:	48 8d 05 b5 ef 00 00 	lea    0xefb5(%rip),%rax        # 190d6 <g_282>
    a121:	48 89 85 c0 ee ff ff 	mov    %rax,-0x1140(%rbp)
    a128:	48 c7 85 60 ec ff ff 	movq   $0xfffffffffffffff7,-0x13a0(%rbp)
    a12f:	f7 ff ff ff 
    a133:	48 c7 85 20 ef ff ff 	movq   $0x0,-0x10e0(%rbp)
    a13a:	00 00 00 00 
    a13e:	48 c7 85 28 ef ff ff 	movq   $0x0,-0x10d8(%rbp)
    a145:	00 00 00 00 
    a149:	48 c7 85 30 ef ff ff 	movq   $0x0,-0x10d0(%rbp)
    a150:	00 00 00 00 
    a154:	48 c7 85 38 ef ff ff 	movq   $0x0,-0x10c8(%rbp)
    a15b:	00 00 00 00 
    a15f:	48 c7 85 40 ef ff ff 	movq   $0x0,-0x10c0(%rbp)
    a166:	00 00 00 00 
    a16a:	48 c7 85 48 ef ff ff 	movq   $0x0,-0x10b8(%rbp)
    a171:	00 00 00 00 
    a175:	48 c7 85 50 ef ff ff 	movq   $0x0,-0x10b0(%rbp)
    a17c:	00 00 00 00 
    a180:	48 c7 85 58 ef ff ff 	movq   $0x0,-0x10a8(%rbp)
    a187:	00 00 00 00 
    a18b:	48 c7 85 60 ef ff ff 	movq   $0x0,-0x10a0(%rbp)
    a192:	00 00 00 00 
    a196:	48 c7 85 68 ef ff ff 	movq   $0x0,-0x1098(%rbp)
    a19d:	00 00 00 00 
    a1a1:	48 8d 05 98 18 01 00 	lea    0x11898(%rip),%rax        # 1ba40 <g_508>
    a1a8:	48 89 85 f8 eb ff ff 	mov    %rax,-0x1408(%rbp)
    a1af:	c7 85 5c eb ff ff ff 	movl   $0xffffffff,-0x14a4(%rbp)
    a1b6:	ff ff ff 
    a1b9:	c7 85 60 eb ff ff 01 	movl   $0x1,-0x14a0(%rbp)
    a1c0:	00 00 00 
    a1c3:	48 8d 05 f6 2a 01 00 	lea    0x12af6(%rip),%rax        # 1ccc0 <g_729>
    a1ca:	48 89 85 d0 ee ff ff 	mov    %rax,-0x1130(%rbp)
    a1d1:	48 8d 05 e8 2a 01 00 	lea    0x12ae8(%rip),%rax        # 1ccc0 <g_729>
    a1d8:	48 89 85 d8 ee ff ff 	mov    %rax,-0x1128(%rbp)
    a1df:	48 8d 05 da 2a 01 00 	lea    0x12ada(%rip),%rax        # 1ccc0 <g_729>
    a1e6:	48 89 85 e0 ee ff ff 	mov    %rax,-0x1120(%rbp)
    a1ed:	48 8d 05 cc 2a 01 00 	lea    0x12acc(%rip),%rax        # 1ccc0 <g_729>
    a1f4:	48 89 85 e8 ee ff ff 	mov    %rax,-0x1118(%rbp)
    a1fb:	48 8d 05 be 2a 01 00 	lea    0x12abe(%rip),%rax        # 1ccc0 <g_729>
    a202:	48 89 85 f0 ee ff ff 	mov    %rax,-0x1110(%rbp)
    a209:	48 8d 05 b0 2a 01 00 	lea    0x12ab0(%rip),%rax        # 1ccc0 <g_729>
    a210:	48 89 85 f8 ee ff ff 	mov    %rax,-0x1108(%rbp)
    a217:	48 8d 05 a2 2a 01 00 	lea    0x12aa2(%rip),%rax        # 1ccc0 <g_729>
    a21e:	48 89 85 00 ef ff ff 	mov    %rax,-0x1100(%rbp)
    a225:	48 8d 05 94 2a 01 00 	lea    0x12a94(%rip),%rax        # 1ccc0 <g_729>
    a22c:	48 89 85 08 ef ff ff 	mov    %rax,-0x10f8(%rbp)
    a233:	48 8d 05 86 2a 01 00 	lea    0x12a86(%rip),%rax        # 1ccc0 <g_729>
    a23a:	48 89 85 10 ef ff ff 	mov    %rax,-0x10f0(%rbp)
    a241:	48 8d 05 00 f0 00 00 	lea    0xf000(%rip),%rax        # 19248 <g_960>
    a248:	48 89 85 68 ec ff ff 	mov    %rax,-0x1398(%rbp)
    a24f:	c7 85 70 ef ff ff db 	movl   $0xf2a4cfdb,-0x1090(%rbp)
    a256:	cf a4 f2 
    a259:	c7 85 74 ef ff ff db 	movl   $0xf2a4cfdb,-0x108c(%rbp)
    a260:	cf a4 f2 
    a263:	c7 85 78 ef ff ff db 	movl   $0xf2a4cfdb,-0x1088(%rbp)
    a26a:	cf a4 f2 
    a26d:	c7 85 7c ef ff ff db 	movl   $0xf2a4cfdb,-0x1084(%rbp)
    a274:	cf a4 f2 
    a277:	c7 85 80 ef ff ff db 	movl   $0xf2a4cfdb,-0x1080(%rbp)
    a27e:	cf a4 f2 
    a281:	c7 85 84 ef ff ff db 	movl   $0xf2a4cfdb,-0x107c(%rbp)
    a288:	cf a4 f2 
    a28b:	c7 85 88 ef ff ff db 	movl   $0xf2a4cfdb,-0x1078(%rbp)
    a292:	cf a4 f2 
    a295:	c7 85 8c ef ff ff db 	movl   $0xf2a4cfdb,-0x1074(%rbp)
    a29c:	cf a4 f2 
    a29f:	c7 85 90 ef ff ff db 	movl   $0xf2a4cfdb,-0x1070(%rbp)
    a2a6:	cf a4 f2 
    a2a9:	c7 85 94 ef ff ff db 	movl   $0xf2a4cfdb,-0x106c(%rbp)
    a2b0:	cf a4 f2 
    a2b3:	c7 85 98 ef ff ff db 	movl   $0xf2a4cfdb,-0x1068(%rbp)
    a2ba:	cf a4 f2 
    a2bd:	c7 85 9c ef ff ff db 	movl   $0xf2a4cfdb,-0x1064(%rbp)
    a2c4:	cf a4 f2 
    a2c7:	c7 85 a0 ef ff ff db 	movl   $0xf2a4cfdb,-0x1060(%rbp)
    a2ce:	cf a4 f2 
    a2d1:	c7 85 a4 ef ff ff db 	movl   $0xf2a4cfdb,-0x105c(%rbp)
    a2d8:	cf a4 f2 
    a2db:	c7 85 a8 ef ff ff db 	movl   $0xf2a4cfdb,-0x1058(%rbp)
    a2e2:	cf a4 f2 
    a2e5:	c7 85 ac ef ff ff db 	movl   $0xf2a4cfdb,-0x1054(%rbp)
    a2ec:	cf a4 f2 
    a2ef:	c7 85 b0 ef ff ff db 	movl   $0xf2a4cfdb,-0x1050(%rbp)
    a2f6:	cf a4 f2 
    a2f9:	c7 85 b4 ef ff ff db 	movl   $0xf2a4cfdb,-0x104c(%rbp)
    a300:	cf a4 f2 
    a303:	c7 85 b8 ef ff ff db 	movl   $0xf2a4cfdb,-0x1048(%rbp)
    a30a:	cf a4 f2 
    a30d:	c7 85 bc ef ff ff db 	movl   $0xf2a4cfdb,-0x1044(%rbp)
    a314:	cf a4 f2 
    a317:	c7 85 c0 ef ff ff db 	movl   $0xf2a4cfdb,-0x1040(%rbp)
    a31e:	cf a4 f2 
    a321:	c7 85 c4 ef ff ff db 	movl   $0xf2a4cfdb,-0x103c(%rbp)
    a328:	cf a4 f2 
    a32b:	c7 85 c8 ef ff ff db 	movl   $0xf2a4cfdb,-0x1038(%rbp)
    a332:	cf a4 f2 
    a335:	c7 85 cc ef ff ff db 	movl   $0xf2a4cfdb,-0x1034(%rbp)
    a33c:	cf a4 f2 
    a33f:	48 b8 a8 96 14 d2 a5 	movabs $0x40038ca5d21496a8,%rax
    a346:	8c 03 40 
    a349:	48 89 85 70 ec ff ff 	mov    %rax,-0x1390(%rbp)
    a350:	c7 85 6c eb ff ff a9 	movl   $0xe194b6a9,-0x1494(%rbp)
    a357:	b6 94 e1 
    a35a:	48 8d 05 c7 20 01 00 	lea    0x120c7(%rip),%rax        # 1c428 <g_1213>
    a361:	48 89 85 78 ec ff ff 	mov    %rax,-0x1388(%rbp)
    a368:	48 c7 85 80 ec ff ff 	movq   $0x0,-0x1380(%rbp)
    a36f:	00 00 00 00 
    a373:	48 8d 05 ee ef 00 00 	lea    0xefee(%rip),%rax        # 19368 <g_1067>
    a37a:	48 89 85 88 ec ff ff 	mov    %rax,-0x1378(%rbp)
    a381:	c6 85 50 eb ff ff 03 	movb   $0x3,-0x14b0(%rbp)
    a388:	c6 85 51 eb ff ff 15 	movb   $0x15,-0x14af(%rbp)
    a38f:	48 8d 05 5a f4 00 00 	lea    0xf45a(%rip),%rax        # 197f0 <g_1584>
    a396:	48 89 85 90 ec ff ff 	mov    %rax,-0x1370(%rbp)
    a39d:	48 8d 05 bc ed 00 00 	lea    0xedbc(%rip),%rax        # 19160 <g_842>
    a3a4:	48 89 85 98 ec ff ff 	mov    %rax,-0x1368(%rbp)
    a3ab:	48 c7 85 a0 ec ff ff 	movq   $0x0,-0x1360(%rbp)
    a3b2:	00 00 00 00 
    a3b6:	48 8d 85 40 f8 ff ff 	lea    -0x7c0(%rbp),%rax
    a3bd:	48 8d 15 fc fe 00 00 	lea    0xfefc(%rip),%rdx        # 1a2c0 <g_1704+0xab8>
    a3c4:	b9 70 00 00 00       	mov    $0x70,%ecx
    a3c9:	48 89 c7             	mov    %rax,%rdi
    a3cc:	48 89 d6             	mov    %rdx,%rsi
    a3cf:	f3 48 a5             	rep movsq %ds:(%rsi),%es:(%rdi)
    a3d2:	48 b8 4c 05 51 c1 06 	movabs $0x95123406c151054c,%rax
    a3d9:	34 12 95 
    a3dc:	48 89 85 58 ec ff ff 	mov    %rax,-0x13a8(%rbp)
    a3e3:	c7 85 a0 f0 ff ff f8 	movl   $0xfffffff8,-0xf60(%rbp)
    a3ea:	ff ff ff 
    a3ed:	c7 85 a4 f0 ff ff 00 	movl   $0x0,-0xf5c(%rbp)
    a3f4:	00 00 00 
    a3f7:	c7 85 a8 f0 ff ff a4 	movl   $0x6f8536a4,-0xf58(%rbp)
    a3fe:	36 85 6f 
    a401:	c7 85 ac f0 ff ff 32 	movl   $0xe5adc332,-0xf54(%rbp)
    a408:	c3 ad e5 
    a40b:	c7 85 b0 f0 ff ff 32 	movl   $0xe5adc332,-0xf50(%rbp)
    a412:	c3 ad e5 
    a415:	c7 85 b4 f0 ff ff a4 	movl   $0x6f8536a4,-0xf4c(%rbp)
    a41c:	36 85 6f 
    a41f:	c7 85 b8 f0 ff ff 32 	movl   $0xe5adc332,-0xf48(%rbp)
    a426:	c3 ad e5 
    a429:	c7 85 bc f0 ff ff 32 	movl   $0xe5adc332,-0xf44(%rbp)
    a430:	c3 ad e5 
    a433:	c7 85 c0 f0 ff ff a4 	movl   $0x6f8536a4,-0xf40(%rbp)
    a43a:	36 85 6f 
    a43d:	c7 85 c4 f0 ff ff 00 	movl   $0x0,-0xf3c(%rbp)
    a444:	00 00 00 
    a447:	c7 85 c8 f0 ff ff f8 	movl   $0xfffffff8,-0xf38(%rbp)
    a44e:	ff ff ff 
    a451:	c7 85 cc f0 ff ff a4 	movl   $0x6f8536a4,-0xf34(%rbp)
    a458:	36 85 6f 
    a45b:	c7 85 d0 f0 ff ff 00 	movl   $0x0,-0xf30(%rbp)
    a462:	00 00 00 
    a465:	c7 85 d4 f0 ff ff f8 	movl   $0xfffffff8,-0xf2c(%rbp)
    a46c:	ff ff ff 
    a46f:	c7 85 d8 f0 ff ff a4 	movl   $0x6f8536a4,-0xf28(%rbp)
    a476:	36 85 6f 
    a479:	c7 85 dc f0 ff ff f8 	movl   $0xfffffff8,-0xf24(%rbp)
    a480:	ff ff ff 
    a483:	c7 85 e0 f0 ff ff 00 	movl   $0x0,-0xf20(%rbp)
    a48a:	00 00 00 
    a48d:	c7 85 e4 f0 ff ff a4 	movl   $0x6f8536a4,-0xf1c(%rbp)
    a494:	36 85 6f 
    a497:	c7 85 e8 f0 ff ff f8 	movl   $0xfffffff8,-0xf18(%rbp)
    a49e:	ff ff ff 
    a4a1:	c7 85 ec f0 ff ff 00 	movl   $0x0,-0xf14(%rbp)
    a4a8:	00 00 00 
    a4ab:	c7 85 f0 f0 ff ff a4 	movl   $0x6f8536a4,-0xf10(%rbp)
    a4b2:	36 85 6f 
    a4b5:	c7 85 f4 f0 ff ff 32 	movl   $0xe5adc332,-0xf0c(%rbp)
    a4bc:	c3 ad e5 
    a4bf:	c7 85 f8 f0 ff ff 32 	movl   $0xe5adc332,-0xf08(%rbp)
    a4c6:	c3 ad e5 
    a4c9:	c7 85 fc f0 ff ff a4 	movl   $0x6f8536a4,-0xf04(%rbp)
    a4d0:	36 85 6f 
    a4d3:	c7 85 00 f1 ff ff 32 	movl   $0xe5adc332,-0xf00(%rbp)
    a4da:	c3 ad e5 
    a4dd:	c7 85 04 f1 ff ff 32 	movl   $0xe5adc332,-0xefc(%rbp)
    a4e4:	c3 ad e5 
    a4e7:	c7 85 08 f1 ff ff a4 	movl   $0x6f8536a4,-0xef8(%rbp)
    a4ee:	36 85 6f 
    a4f1:	c7 85 0c f1 ff ff 00 	movl   $0x0,-0xef4(%rbp)
    a4f8:	00 00 00 
    a4fb:	c7 85 10 f1 ff ff f8 	movl   $0xfffffff8,-0xef0(%rbp)
    a502:	ff ff ff 
    a505:	c7 85 14 f1 ff ff a4 	movl   $0x6f8536a4,-0xeec(%rbp)
    a50c:	36 85 6f 
    a50f:	c7 85 18 f1 ff ff 00 	movl   $0x0,-0xee8(%rbp)
    a516:	00 00 00 
    a519:	c7 85 1c f1 ff ff f8 	movl   $0xfffffff8,-0xee4(%rbp)
    a520:	ff ff ff 
    a523:	c7 85 20 f1 ff ff a4 	movl   $0x6f8536a4,-0xee0(%rbp)
    a52a:	36 85 6f 
    a52d:	c7 85 24 f1 ff ff f8 	movl   $0xfffffff8,-0xedc(%rbp)
    a534:	ff ff ff 
    a537:	c7 85 28 f1 ff ff 00 	movl   $0x0,-0xed8(%rbp)
    a53e:	00 00 00 
    a541:	c7 85 2c f1 ff ff a4 	movl   $0x6f8536a4,-0xed4(%rbp)
    a548:	36 85 6f 
    a54b:	c7 85 30 f1 ff ff f8 	movl   $0xfffffff8,-0xed0(%rbp)
    a552:	ff ff ff 
    a555:	c7 85 34 f1 ff ff 00 	movl   $0x0,-0xecc(%rbp)
    a55c:	00 00 00 
    a55f:	c7 85 38 f1 ff ff a4 	movl   $0x6f8536a4,-0xec8(%rbp)
    a566:	36 85 6f 
    a569:	c7 85 3c f1 ff ff 32 	movl   $0xe5adc332,-0xec4(%rbp)
    a570:	c3 ad e5 
    a573:	c7 85 40 f1 ff ff 32 	movl   $0xe5adc332,-0xec0(%rbp)
    a57a:	c3 ad e5 
    a57d:	c7 85 44 f1 ff ff a4 	movl   $0x6f8536a4,-0xebc(%rbp)
    a584:	36 85 6f 
    a587:	c7 85 48 f1 ff ff 32 	movl   $0xe5adc332,-0xeb8(%rbp)
    a58e:	c3 ad e5 
    a591:	c7 85 4c f1 ff ff 32 	movl   $0xe5adc332,-0xeb4(%rbp)
    a598:	c3 ad e5 
    a59b:	c7 85 50 f1 ff ff a4 	movl   $0x6f8536a4,-0xeb0(%rbp)
    a5a2:	36 85 6f 
    a5a5:	c7 85 54 f1 ff ff 00 	movl   $0x0,-0xeac(%rbp)
    a5ac:	00 00 00 
    a5af:	c7 85 58 f1 ff ff f8 	movl   $0xfffffff8,-0xea8(%rbp)
    a5b6:	ff ff ff 
    a5b9:	c7 85 5c f1 ff ff a4 	movl   $0x6f8536a4,-0xea4(%rbp)
    a5c0:	36 85 6f 
    a5c3:	c7 85 60 f1 ff ff 00 	movl   $0x0,-0xea0(%rbp)
    a5ca:	00 00 00 
    a5cd:	c7 85 64 f1 ff ff f8 	movl   $0xfffffff8,-0xe9c(%rbp)
    a5d4:	ff ff ff 
    a5d7:	c7 85 68 f1 ff ff a4 	movl   $0x6f8536a4,-0xe98(%rbp)
    a5de:	36 85 6f 
    a5e1:	c7 85 6c f1 ff ff f8 	movl   $0xfffffff8,-0xe94(%rbp)
    a5e8:	ff ff ff 
    a5eb:	c7 85 70 f1 ff ff 00 	movl   $0x0,-0xe90(%rbp)
    a5f2:	00 00 00 
    a5f5:	c7 85 74 f1 ff ff a4 	movl   $0x6f8536a4,-0xe8c(%rbp)
    a5fc:	36 85 6f 
    a5ff:	c7 85 78 f1 ff ff f8 	movl   $0xfffffff8,-0xe88(%rbp)
    a606:	ff ff ff 
    a609:	c7 85 7c f1 ff ff 00 	movl   $0x0,-0xe84(%rbp)
    a610:	00 00 00 
    a613:	c7 85 80 f1 ff ff a4 	movl   $0x6f8536a4,-0xe80(%rbp)
    a61a:	36 85 6f 
    a61d:	c7 85 84 f1 ff ff 32 	movl   $0xe5adc332,-0xe7c(%rbp)
    a624:	c3 ad e5 
    a627:	c7 85 88 f1 ff ff 32 	movl   $0xe5adc332,-0xe78(%rbp)
    a62e:	c3 ad e5 
    a631:	c7 85 8c f1 ff ff a4 	movl   $0x6f8536a4,-0xe74(%rbp)
    a638:	36 85 6f 
    a63b:	c7 85 90 eb ff ff 06 	movl   $0x6,-0x1470(%rbp)
    a642:	00 00 00 
    a645:	48 8d 05 c4 1d 01 00 	lea    0x11dc4(%rip),%rax        # 1c410 <g_981>
    a64c:	48 89 85 00 ec ff ff 	mov    %rax,-0x1400(%rbp)
    a653:	48 8d 85 00 ec ff ff 	lea    -0x1400(%rbp),%rax
    a65a:	48 89 85 08 ec ff ff 	mov    %rax,-0x13f8(%rbp)
    a661:	c7 85 94 eb ff ff f7 	movl   $0xfffffff7,-0x146c(%rbp)
    a668:	ff ff ff 
    a66b:	c7 05 ef ea 00 00 00 	movl   $0x0,0xeaef(%rip)        # 19164 <g_843>
    a672:	00 00 00 
    a675:	e9 4a 26 00 00       	jmpq   ccc4 <func_14+0x2c74>
    a67a:	c7 85 9c eb ff ff fb 	movl   $0xfffffffb,-0x1464(%rbp)
    a681:	ff ff ff 
    a684:	48 c7 85 b8 ec ff ff 	movq   $0x0,-0x1348(%rbp)
    a68b:	00 00 00 00 
    a68f:	48 8d 05 52 eb 00 00 	lea    0xeb52(%rip),%rax        # 191e8 <g_923>
    a696:	48 89 85 c0 ec ff ff 	mov    %rax,-0x1340(%rbp)
    a69d:	48 8d 05 38 26 01 00 	lea    0x12638(%rip),%rax        # 1ccdc <g_844+0x4>
    a6a4:	48 89 85 10 ec ff ff 	mov    %rax,-0x13f0(%rbp)
    a6ab:	c7 85 64 eb ff ff da 	movl   $0x428b3fda,-0x149c(%rbp)
    a6b2:	3f 8b 42 
    a6b5:	c7 85 d0 ef ff ff 90 	movl   $0x6a570690,-0x1030(%rbp)
    a6bc:	06 57 6a 
    a6bf:	c7 85 d4 ef ff ff 01 	movl   $0x1,-0x102c(%rbp)
    a6c6:	00 00 00 
    a6c9:	c7 85 d8 ef ff ff 08 	movl   $0x8,-0x1028(%rbp)
    a6d0:	00 00 00 
    a6d3:	c7 85 dc ef ff ff 01 	movl   $0x1,-0x1024(%rbp)
    a6da:	00 00 00 
    a6dd:	c7 85 e0 ef ff ff 90 	movl   $0x6a570690,-0x1020(%rbp)
    a6e4:	06 57 6a 
    a6e7:	c7 85 e4 ef ff ff 01 	movl   $0x1,-0x101c(%rbp)
    a6ee:	00 00 00 
    a6f1:	c7 85 e8 ef ff ff 08 	movl   $0x8,-0x1018(%rbp)
    a6f8:	00 00 00 
    a6fb:	c7 85 ec ef ff ff 01 	movl   $0x1,-0x1014(%rbp)
    a702:	00 00 00 
    a705:	c7 85 f0 ef ff ff 90 	movl   $0x6a570690,-0x1010(%rbp)
    a70c:	06 57 6a 
    a70f:	c7 85 f4 ef ff ff 01 	movl   $0x1,-0x100c(%rbp)
    a716:	00 00 00 
    a719:	c7 85 f8 ef ff ff 08 	movl   $0x8,-0x1008(%rbp)
    a720:	00 00 00 
    a723:	c7 85 fc ef ff ff 01 	movl   $0x1,-0x1004(%rbp)
    a72a:	00 00 00 
    a72d:	c7 85 00 f0 ff ff 08 	movl   $0x8,-0x1000(%rbp)
    a734:	00 00 00 
    a737:	c7 85 04 f0 ff ff 00 	movl   $0x0,-0xffc(%rbp)
    a73e:	00 00 00 
    a741:	c7 85 08 f0 ff ff 08 	movl   $0x8,-0xff8(%rbp)
    a748:	00 00 00 
    a74b:	c7 85 0c f0 ff ff 01 	movl   $0x1,-0xff4(%rbp)
    a752:	00 00 00 
    a755:	c7 85 10 f0 ff ff 08 	movl   $0x8,-0xff0(%rbp)
    a75c:	00 00 00 
    a75f:	c7 85 14 f0 ff ff 00 	movl   $0x0,-0xfec(%rbp)
    a766:	00 00 00 
    a769:	c7 85 18 f0 ff ff 08 	movl   $0x8,-0xfe8(%rbp)
    a770:	00 00 00 
    a773:	c7 85 1c f0 ff ff 01 	movl   $0x1,-0xfe4(%rbp)
    a77a:	00 00 00 
    a77d:	c7 85 20 f0 ff ff 90 	movl   $0x6a570690,-0xfe0(%rbp)
    a784:	06 57 6a 
    a787:	c7 85 24 f0 ff ff 00 	movl   $0x0,-0xfdc(%rbp)
    a78e:	00 00 00 
    a791:	c7 85 28 f0 ff ff 08 	movl   $0x8,-0xfd8(%rbp)
    a798:	00 00 00 
    a79b:	c7 85 2c f0 ff ff 00 	movl   $0x0,-0xfd4(%rbp)
    a7a2:	00 00 00 
    a7a5:	c7 85 30 f0 ff ff 90 	movl   $0x6a570690,-0xfd0(%rbp)
    a7ac:	06 57 6a 
    a7af:	c7 85 34 f0 ff ff 00 	movl   $0x0,-0xfcc(%rbp)
    a7b6:	00 00 00 
    a7b9:	c7 85 38 f0 ff ff 08 	movl   $0x8,-0xfc8(%rbp)
    a7c0:	00 00 00 
    a7c3:	c7 85 3c f0 ff ff 00 	movl   $0x0,-0xfc4(%rbp)
    a7ca:	00 00 00 
    a7cd:	c7 85 40 f0 ff ff 90 	movl   $0x6a570690,-0xfc0(%rbp)
    a7d4:	06 57 6a 
    a7d7:	c7 85 44 f0 ff ff 00 	movl   $0x0,-0xfbc(%rbp)
    a7de:	00 00 00 
    a7e1:	c7 85 48 f0 ff ff 08 	movl   $0x8,-0xfb8(%rbp)
    a7e8:	00 00 00 
    a7eb:	c7 85 4c f0 ff ff 00 	movl   $0x0,-0xfb4(%rbp)
    a7f2:	00 00 00 
    a7f5:	c7 85 50 f0 ff ff 08 	movl   $0x8,-0xfb0(%rbp)
    a7fc:	00 00 00 
    a7ff:	c7 85 54 f0 ff ff 01 	movl   $0x1,-0xfac(%rbp)
    a806:	00 00 00 
    a809:	c7 85 58 f0 ff ff 08 	movl   $0x8,-0xfa8(%rbp)
    a810:	00 00 00 
    a813:	c7 85 5c f0 ff ff 00 	movl   $0x0,-0xfa4(%rbp)
    a81a:	00 00 00 
    a81d:	c7 85 60 f0 ff ff 08 	movl   $0x8,-0xfa0(%rbp)
    a824:	00 00 00 
    a827:	c7 85 64 f0 ff ff 01 	movl   $0x1,-0xf9c(%rbp)
    a82e:	00 00 00 
    a831:	c7 85 68 f0 ff ff 08 	movl   $0x8,-0xf98(%rbp)
    a838:	00 00 00 
    a83b:	c7 85 6c f0 ff ff 00 	movl   $0x0,-0xf94(%rbp)
    a842:	00 00 00 
    a845:	c7 85 70 f0 ff ff 90 	movl   $0x6a570690,-0xf90(%rbp)
    a84c:	06 57 6a 
    a84f:	c7 85 74 f0 ff ff 01 	movl   $0x1,-0xf8c(%rbp)
    a856:	00 00 00 
    a859:	c7 85 78 f0 ff ff 08 	movl   $0x8,-0xf88(%rbp)
    a860:	00 00 00 
    a863:	c7 85 7c f0 ff ff 01 	movl   $0x1,-0xf84(%rbp)
    a86a:	00 00 00 
    a86d:	c7 85 80 f0 ff ff 90 	movl   $0x6a570690,-0xf80(%rbp)
    a874:	06 57 6a 
    a877:	c7 85 84 f0 ff ff 01 	movl   $0x1,-0xf7c(%rbp)
    a87e:	00 00 00 
    a881:	c7 85 88 f0 ff ff 08 	movl   $0x8,-0xf78(%rbp)
    a888:	00 00 00 
    a88b:	c7 85 8c f0 ff ff 01 	movl   $0x1,-0xf74(%rbp)
    a892:	00 00 00 
    a895:	c7 85 90 f0 ff ff 90 	movl   $0x6a570690,-0xf70(%rbp)
    a89c:	06 57 6a 
    a89f:	c7 85 94 f0 ff ff 01 	movl   $0x1,-0xf6c(%rbp)
    a8a6:	00 00 00 
    a8a9:	48 8d 05 c4 ea 00 00 	lea    0xeac4(%rip),%rax        # 19374 <g_1192>
    a8b0:	48 89 85 18 ec ff ff 	mov    %rax,-0x13e8(%rbp)
    a8b7:	48 8d 85 18 ec ff ff 	lea    -0x13e8(%rbp),%rax
    a8be:	48 89 85 20 ec ff ff 	mov    %rax,-0x13e0(%rbp)
    a8c5:	48 c7 85 c8 ec ff ff 	movq   $0x2,-0x1338(%rbp)
    a8cc:	02 00 00 00 
    a8d0:	66 c7 85 56 eb ff ff 	movw   $0x40ec,-0x14aa(%rbp)
    a8d7:	ec 40 
    a8d9:	c6 85 52 eb ff ff 25 	movb   $0x25,-0x14ae(%rbp)
    a8e0:	c7 85 70 eb ff ff 00 	movl   $0x0,-0x1490(%rbp)
    a8e7:	00 00 00 
    a8ea:	eb 1e                	jmp    a90a <func_14+0x8ba>
    a8ec:	8b 85 70 eb ff ff    	mov    -0x1490(%rbp),%eax
    a8f2:	48 98                	cltq   
    a8f4:	48 8d 95 20 ec ff ff 	lea    -0x13e0(%rbp),%rdx
    a8fb:	48 89 94 c5 50 ee ff 	mov    %rdx,-0x11b0(%rbp,%rax,8)
    a902:	ff 
    a903:	83 85 70 eb ff ff 01 	addl   $0x1,-0x1490(%rbp)
    a90a:	83 bd 70 eb ff ff 04 	cmpl   $0x4,-0x1490(%rbp)
    a911:	7e d9                	jle    a8ec <func_14+0x89c>
    a913:	66 c7 85 34 eb ff ff 	movw   $0x0,-0x14cc(%rbp)
    a91a:	00 00 
    a91c:	e9 b0 20 00 00       	jmpq   c9d1 <func_14+0x2981>
    a921:	48 8d 05 3c e8 00 00 	lea    0xe83c(%rip),%rax        # 19164 <g_843>
    a928:	48 89 85 28 ec ff ff 	mov    %rax,-0x13d8(%rbp)
    a92f:	48 8d 05 a0 e7 00 00 	lea    0xe7a0(%rip),%rax        # 190d6 <g_282>
    a936:	48 89 85 d0 ec ff ff 	mov    %rax,-0x1330(%rbp)
    a93d:	48 8d 05 fc 10 01 00 	lea    0x110fc(%rip),%rax        # 1ba40 <g_508>
    a944:	48 89 85 d8 ec ff ff 	mov    %rax,-0x1328(%rbp)
    a94b:	c7 85 a0 eb ff ff 08 	movl   $0x8,-0x1460(%rbp)
    a952:	00 00 00 
    a955:	c7 85 10 ee ff ff 00 	movl   $0x0,-0x11f0(%rbp)
    a95c:	00 00 00 
    a95f:	c7 85 14 ee ff ff 00 	movl   $0x0,-0x11ec(%rbp)
    a966:	00 00 00 
    a969:	c7 85 18 ee ff ff 00 	movl   $0x0,-0x11e8(%rbp)
    a970:	00 00 00 
    a973:	c7 85 1c ee ff ff 00 	movl   $0x0,-0x11e4(%rbp)
    a97a:	00 00 00 
    a97d:	c7 85 20 ee ff ff 00 	movl   $0x0,-0x11e0(%rbp)
    a984:	00 00 00 
    a987:	c6 05 4e e7 00 00 00 	movb   $0x0,0xe74e(%rip)        # 190dc <g_411>
    a98e:	90                   	nop
    a98f:	0f b6 05 46 e7 00 00 	movzbl 0xe746(%rip),%eax        # 190dc <g_411>
    a996:	3c 33                	cmp    $0x33,%al
    a998:	0f 87 b4 10 00 00    	ja     ba52 <func_14+0x1a02>
    a99e:	48 8d 85 c0 fb ff ff 	lea    -0x440(%rbp),%rax
    a9a5:	48 8d 15 f4 9d 00 00 	lea    0x9df4(%rip),%rdx        # 147a0 <g_1477+0x18>
    a9ac:	b9 80 00 00 00       	mov    $0x80,%ecx
    a9b1:	48 89 c7             	mov    %rax,%rdi
    a9b4:	48 89 d6             	mov    %rdx,%rsi
    a9b7:	f3 48 a5             	rep movsq %ds:(%rsi),%es:(%rdi)
    a9ba:	48 8d 05 5b e7 00 00 	lea    0xe75b(%rip),%rax        # 1911c <g_718>
    a9c1:	48 89 85 40 ec ff ff 	mov    %rax,-0x13c0(%rbp)
    a9c8:	48 8d 85 40 ec ff ff 	lea    -0x13c0(%rbp),%rax
    a9cf:	48 89 85 48 ec ff ff 	mov    %rax,-0x13b8(%rbp)
    a9d6:	c7 85 d0 eb ff ff 2d 	movl   $0xac71a02d,-0x1430(%rbp)
    a9dd:	a0 71 ac 
    a9e0:	48 8d 05 81 e7 00 00 	lea    0xe781(%rip),%rax        # 19168 <g_845>
    a9e7:	48 89 85 88 ed ff ff 	mov    %rax,-0x1278(%rbp)
    a9ee:	48 c7 05 77 e6 00 00 	movq   $0xd,0xe677(%rip)        # 19070 <g_115>
    a9f5:	0d 00 00 00 
    a9f9:	e9 34 10 00 00       	jmpq   ba32 <func_14+0x19e2>
    a9fe:	48 8d 05 ab e6 00 00 	lea    0xe6ab(%rip),%rax        # 190b0 <g_182>
    aa05:	48 89 85 90 ed ff ff 	mov    %rax,-0x1270(%rbp)
    aa0c:	48 8d 05 c1 e6 00 00 	lea    0xe6c1(%rip),%rax        # 190d4 <g_269>
    aa13:	48 89 85 98 ed ff ff 	mov    %rax,-0x1268(%rbp)
    aa1a:	c7 85 d4 eb ff ff ff 	movl   $0xffffffff,-0x142c(%rbp)
    aa21:	ff ff ff 
    aa24:	c7 85 d8 eb ff ff ff 	movl   $0xffffffff,-0x1428(%rbp)
    aa2b:	ff ff ff 
    aa2e:	48 8d 05 cb 06 01 00 	lea    0x106cb(%rip),%rax        # 1b100 <g_38>
    aa35:	48 89 85 70 f5 ff ff 	mov    %rax,-0xa90(%rbp)
    aa3c:	48 c7 85 78 f5 ff ff 	movq   $0x0,-0xa88(%rbp)
    aa43:	00 00 00 00 
    aa47:	48 8d 85 28 ec ff ff 	lea    -0x13d8(%rbp),%rax
    aa4e:	48 89 85 80 f5 ff ff 	mov    %rax,-0xa80(%rbp)
    aa55:	48 c7 85 88 f5 ff ff 	movq   $0x0,-0xa78(%rbp)
    aa5c:	00 00 00 00 
    aa60:	48 8d 05 99 06 01 00 	lea    0x10699(%rip),%rax        # 1b100 <g_38>
    aa67:	48 89 85 90 f5 ff ff 	mov    %rax,-0xa70(%rbp)
    aa6e:	48 8d 85 28 ec ff ff 	lea    -0x13d8(%rbp),%rax
    aa75:	48 89 85 98 f5 ff ff 	mov    %rax,-0xa68(%rbp)
    aa7c:	48 8d 85 10 ec ff ff 	lea    -0x13f0(%rbp),%rax
    aa83:	48 89 85 a0 f5 ff ff 	mov    %rax,-0xa60(%rbp)
    aa8a:	48 8d 85 10 ec ff ff 	lea    -0x13f0(%rbp),%rax
    aa91:	48 89 85 a8 f5 ff ff 	mov    %rax,-0xa58(%rbp)
    aa98:	48 8d 85 10 ec ff ff 	lea    -0x13f0(%rbp),%rax
    aa9f:	48 89 85 b0 f5 ff ff 	mov    %rax,-0xa50(%rbp)
    aaa6:	48 8d 85 28 ec ff ff 	lea    -0x13d8(%rbp),%rax
    aaad:	48 89 85 b8 f5 ff ff 	mov    %rax,-0xa48(%rbp)
    aab4:	48 8d 05 45 06 01 00 	lea    0x10645(%rip),%rax        # 1b100 <g_38>
    aabb:	48 89 85 c0 f5 ff ff 	mov    %rax,-0xa40(%rbp)
    aac2:	48 c7 85 c8 f5 ff ff 	movq   $0x0,-0xa38(%rbp)
    aac9:	00 00 00 00 
    aacd:	48 8d 85 28 ec ff ff 	lea    -0x13d8(%rbp),%rax
    aad4:	48 89 85 d0 f5 ff ff 	mov    %rax,-0xa30(%rbp)
    aadb:	48 c7 85 d8 f5 ff ff 	movq   $0x0,-0xa28(%rbp)
    aae2:	00 00 00 00 
    aae6:	48 8d 05 13 06 01 00 	lea    0x10613(%rip),%rax        # 1b100 <g_38>
    aaed:	48 89 85 e0 f5 ff ff 	mov    %rax,-0xa20(%rbp)
    aaf4:	48 8d 85 28 ec ff ff 	lea    -0x13d8(%rbp),%rax
    aafb:	48 89 85 e8 f5 ff ff 	mov    %rax,-0xa18(%rbp)
    ab02:	48 8d 85 10 ec ff ff 	lea    -0x13f0(%rbp),%rax
    ab09:	48 89 85 f0 f5 ff ff 	mov    %rax,-0xa10(%rbp)
    ab10:	48 8d 85 10 ec ff ff 	lea    -0x13f0(%rbp),%rax
    ab17:	48 89 85 f8 f5 ff ff 	mov    %rax,-0xa08(%rbp)
    ab1e:	48 8d 85 10 ec ff ff 	lea    -0x13f0(%rbp),%rax
    ab25:	48 89 85 00 f6 ff ff 	mov    %rax,-0xa00(%rbp)
    ab2c:	48 8d 85 28 ec ff ff 	lea    -0x13d8(%rbp),%rax
    ab33:	48 89 85 08 f6 ff ff 	mov    %rax,-0x9f8(%rbp)
    ab3a:	48 8d 05 bf 05 01 00 	lea    0x105bf(%rip),%rax        # 1b100 <g_38>
    ab41:	48 89 85 10 f6 ff ff 	mov    %rax,-0x9f0(%rbp)
    ab48:	48 c7 85 18 f6 ff ff 	movq   $0x0,-0x9e8(%rbp)
    ab4f:	00 00 00 00 
    ab53:	48 8d 85 28 ec ff ff 	lea    -0x13d8(%rbp),%rax
    ab5a:	48 89 85 20 f6 ff ff 	mov    %rax,-0x9e0(%rbp)
    ab61:	48 c7 85 28 f6 ff ff 	movq   $0x0,-0x9d8(%rbp)
    ab68:	00 00 00 00 
    ab6c:	48 8d 05 8d 05 01 00 	lea    0x1058d(%rip),%rax        # 1b100 <g_38>
    ab73:	48 89 85 30 f6 ff ff 	mov    %rax,-0x9d0(%rbp)
    ab7a:	48 8d 85 28 ec ff ff 	lea    -0x13d8(%rbp),%rax
    ab81:	48 89 85 38 f6 ff ff 	mov    %rax,-0x9c8(%rbp)
    ab88:	48 8d 85 10 ec ff ff 	lea    -0x13f0(%rbp),%rax
    ab8f:	48 89 85 40 f6 ff ff 	mov    %rax,-0x9c0(%rbp)
    ab96:	48 8d 85 10 ec ff ff 	lea    -0x13f0(%rbp),%rax
    ab9d:	48 89 85 48 f6 ff ff 	mov    %rax,-0x9b8(%rbp)
    aba4:	48 8d 85 10 ec ff ff 	lea    -0x13f0(%rbp),%rax
    abab:	48 89 85 50 f6 ff ff 	mov    %rax,-0x9b0(%rbp)
    abb2:	48 8d 85 28 ec ff ff 	lea    -0x13d8(%rbp),%rax
    abb9:	48 89 85 58 f6 ff ff 	mov    %rax,-0x9a8(%rbp)
    abc0:	48 8d 05 39 05 01 00 	lea    0x10539(%rip),%rax        # 1b100 <g_38>
    abc7:	48 89 85 60 f6 ff ff 	mov    %rax,-0x9a0(%rbp)
    abce:	48 c7 85 68 f6 ff ff 	movq   $0x0,-0x998(%rbp)
    abd5:	00 00 00 00 
    abd9:	48 8d 85 28 ec ff ff 	lea    -0x13d8(%rbp),%rax
    abe0:	48 89 85 70 f6 ff ff 	mov    %rax,-0x990(%rbp)
    abe7:	48 c7 85 78 f6 ff ff 	movq   $0x0,-0x988(%rbp)
    abee:	00 00 00 00 
    abf2:	48 8d 05 07 05 01 00 	lea    0x10507(%rip),%rax        # 1b100 <g_38>
    abf9:	48 89 85 80 f6 ff ff 	mov    %rax,-0x980(%rbp)
    ac00:	48 8d 85 28 ec ff ff 	lea    -0x13d8(%rbp),%rax
    ac07:	48 89 85 88 f6 ff ff 	mov    %rax,-0x978(%rbp)
    ac0e:	48 8d 85 10 ec ff ff 	lea    -0x13f0(%rbp),%rax
    ac15:	48 89 85 90 f6 ff ff 	mov    %rax,-0x970(%rbp)
    ac1c:	48 8d 85 10 ec ff ff 	lea    -0x13f0(%rbp),%rax
    ac23:	48 89 85 98 f6 ff ff 	mov    %rax,-0x968(%rbp)
    ac2a:	48 8d 85 10 ec ff ff 	lea    -0x13f0(%rbp),%rax
    ac31:	48 89 85 a0 f6 ff ff 	mov    %rax,-0x960(%rbp)
    ac38:	48 8d 85 28 ec ff ff 	lea    -0x13d8(%rbp),%rax
    ac3f:	48 89 85 a8 f6 ff ff 	mov    %rax,-0x958(%rbp)
    ac46:	48 8d 05 b3 04 01 00 	lea    0x104b3(%rip),%rax        # 1b100 <g_38>
    ac4d:	48 89 85 b0 f6 ff ff 	mov    %rax,-0x950(%rbp)
    ac54:	48 c7 85 b8 f6 ff ff 	movq   $0x0,-0x948(%rbp)
    ac5b:	00 00 00 00 
    ac5f:	48 8d 85 28 ec ff ff 	lea    -0x13d8(%rbp),%rax
    ac66:	48 89 85 c0 f6 ff ff 	mov    %rax,-0x940(%rbp)
    ac6d:	48 c7 85 c8 f6 ff ff 	movq   $0x0,-0x938(%rbp)
    ac74:	00 00 00 00 
    ac78:	48 8d 05 81 04 01 00 	lea    0x10481(%rip),%rax        # 1b100 <g_38>
    ac7f:	48 89 85 d0 f6 ff ff 	mov    %rax,-0x930(%rbp)
    ac86:	48 8d 85 28 ec ff ff 	lea    -0x13d8(%rbp),%rax
    ac8d:	48 89 85 d8 f6 ff ff 	mov    %rax,-0x928(%rbp)
    ac94:	48 8d 85 10 ec ff ff 	lea    -0x13f0(%rbp),%rax
    ac9b:	48 89 85 e0 f6 ff ff 	mov    %rax,-0x920(%rbp)
    aca2:	48 8d 85 10 ec ff ff 	lea    -0x13f0(%rbp),%rax
    aca9:	48 89 85 e8 f6 ff ff 	mov    %rax,-0x918(%rbp)
    acb0:	48 8d 85 10 ec ff ff 	lea    -0x13f0(%rbp),%rax
    acb7:	48 89 85 f0 f6 ff ff 	mov    %rax,-0x910(%rbp)
    acbe:	48 8d 85 28 ec ff ff 	lea    -0x13d8(%rbp),%rax
    acc5:	48 89 85 f8 f6 ff ff 	mov    %rax,-0x908(%rbp)
    accc:	48 8d 05 2d 04 01 00 	lea    0x1042d(%rip),%rax        # 1b100 <g_38>
    acd3:	48 89 85 00 f7 ff ff 	mov    %rax,-0x900(%rbp)
    acda:	48 c7 85 08 f7 ff ff 	movq   $0x0,-0x8f8(%rbp)
    ace1:	00 00 00 00 
    ace5:	48 8d 85 28 ec ff ff 	lea    -0x13d8(%rbp),%rax
    acec:	48 89 85 10 f7 ff ff 	mov    %rax,-0x8f0(%rbp)
    acf3:	48 c7 85 18 f7 ff ff 	movq   $0x0,-0x8e8(%rbp)
    acfa:	00 00 00 00 
    acfe:	48 8d 05 fb 03 01 00 	lea    0x103fb(%rip),%rax        # 1b100 <g_38>
    ad05:	48 89 85 20 f7 ff ff 	mov    %rax,-0x8e0(%rbp)
    ad0c:	48 8d 85 28 ec ff ff 	lea    -0x13d8(%rbp),%rax
    ad13:	48 89 85 28 f7 ff ff 	mov    %rax,-0x8d8(%rbp)
    ad1a:	48 8d 85 10 ec ff ff 	lea    -0x13f0(%rbp),%rax
    ad21:	48 89 85 30 f7 ff ff 	mov    %rax,-0x8d0(%rbp)
    ad28:	48 8d 85 10 ec ff ff 	lea    -0x13f0(%rbp),%rax
    ad2f:	48 89 85 38 f7 ff ff 	mov    %rax,-0x8c8(%rbp)
    ad36:	48 8d 85 10 ec ff ff 	lea    -0x13f0(%rbp),%rax
    ad3d:	48 89 85 40 f7 ff ff 	mov    %rax,-0x8c0(%rbp)
    ad44:	48 8d 85 28 ec ff ff 	lea    -0x13d8(%rbp),%rax
    ad4b:	48 89 85 48 f7 ff ff 	mov    %rax,-0x8b8(%rbp)
    ad52:	48 8d 05 a7 03 01 00 	lea    0x103a7(%rip),%rax        # 1b100 <g_38>
    ad59:	48 89 85 50 f7 ff ff 	mov    %rax,-0x8b0(%rbp)
    ad60:	48 c7 85 58 f7 ff ff 	movq   $0x0,-0x8a8(%rbp)
    ad67:	00 00 00 00 
    ad6b:	48 8d 85 28 ec ff ff 	lea    -0x13d8(%rbp),%rax
    ad72:	48 89 85 60 f7 ff ff 	mov    %rax,-0x8a0(%rbp)
    ad79:	48 c7 85 68 f7 ff ff 	movq   $0x0,-0x898(%rbp)
    ad80:	00 00 00 00 
    ad84:	48 8d 05 75 03 01 00 	lea    0x10375(%rip),%rax        # 1b100 <g_38>
    ad8b:	48 89 85 70 f7 ff ff 	mov    %rax,-0x890(%rbp)
    ad92:	48 8d 85 28 ec ff ff 	lea    -0x13d8(%rbp),%rax
    ad99:	48 89 85 78 f7 ff ff 	mov    %rax,-0x888(%rbp)
    ada0:	48 8d 85 10 ec ff ff 	lea    -0x13f0(%rbp),%rax
    ada7:	48 89 85 80 f7 ff ff 	mov    %rax,-0x880(%rbp)
    adae:	48 8d 85 10 ec ff ff 	lea    -0x13f0(%rbp),%rax
    adb5:	48 89 85 88 f7 ff ff 	mov    %rax,-0x878(%rbp)
    adbc:	48 8d 85 10 ec ff ff 	lea    -0x13f0(%rbp),%rax
    adc3:	48 89 85 90 f7 ff ff 	mov    %rax,-0x870(%rbp)
    adca:	48 8d 85 28 ec ff ff 	lea    -0x13d8(%rbp),%rax
    add1:	48 89 85 98 f7 ff ff 	mov    %rax,-0x868(%rbp)
    add8:	48 8d 05 21 03 01 00 	lea    0x10321(%rip),%rax        # 1b100 <g_38>
    addf:	48 89 85 a0 f7 ff ff 	mov    %rax,-0x860(%rbp)
    ade6:	48 c7 85 a8 f7 ff ff 	movq   $0x0,-0x858(%rbp)
    aded:	00 00 00 00 
    adf1:	48 8d 85 28 ec ff ff 	lea    -0x13d8(%rbp),%rax
    adf8:	48 89 85 b0 f7 ff ff 	mov    %rax,-0x850(%rbp)
    adff:	48 c7 85 b8 f7 ff ff 	movq   $0x0,-0x848(%rbp)
    ae06:	00 00 00 00 
    ae0a:	48 8d 05 ef 02 01 00 	lea    0x102ef(%rip),%rax        # 1b100 <g_38>
    ae11:	48 89 85 c0 f7 ff ff 	mov    %rax,-0x840(%rbp)
    ae18:	48 8d 85 28 ec ff ff 	lea    -0x13d8(%rbp),%rax
    ae1f:	48 89 85 c8 f7 ff ff 	mov    %rax,-0x838(%rbp)
    ae26:	48 8d 85 10 ec ff ff 	lea    -0x13f0(%rbp),%rax
    ae2d:	48 89 85 d0 f7 ff ff 	mov    %rax,-0x830(%rbp)
    ae34:	48 8d 85 10 ec ff ff 	lea    -0x13f0(%rbp),%rax
    ae3b:	48 89 85 d8 f7 ff ff 	mov    %rax,-0x828(%rbp)
    ae42:	48 8d 85 10 ec ff ff 	lea    -0x13f0(%rbp),%rax
    ae49:	48 89 85 e0 f7 ff ff 	mov    %rax,-0x820(%rbp)
    ae50:	48 8d 85 28 ec ff ff 	lea    -0x13d8(%rbp),%rax
    ae57:	48 89 85 e8 f7 ff ff 	mov    %rax,-0x818(%rbp)
    ae5e:	48 8d 05 9b 02 01 00 	lea    0x1029b(%rip),%rax        # 1b100 <g_38>
    ae65:	48 89 85 f0 f7 ff ff 	mov    %rax,-0x810(%rbp)
    ae6c:	48 c7 85 f8 f7 ff ff 	movq   $0x0,-0x808(%rbp)
    ae73:	00 00 00 00 
    ae77:	48 8d 85 28 ec ff ff 	lea    -0x13d8(%rbp),%rax
    ae7e:	48 89 85 00 f8 ff ff 	mov    %rax,-0x800(%rbp)
    ae85:	48 c7 85 08 f8 ff ff 	movq   $0x0,-0x7f8(%rbp)
    ae8c:	00 00 00 00 
    ae90:	48 8d 05 69 02 01 00 	lea    0x10269(%rip),%rax        # 1b100 <g_38>
    ae97:	48 89 85 10 f8 ff ff 	mov    %rax,-0x7f0(%rbp)
    ae9e:	48 8d 85 28 ec ff ff 	lea    -0x13d8(%rbp),%rax
    aea5:	48 89 85 18 f8 ff ff 	mov    %rax,-0x7e8(%rbp)
    aeac:	48 8d 85 28 ec ff ff 	lea    -0x13d8(%rbp),%rax
    aeb3:	48 89 85 20 f8 ff ff 	mov    %rax,-0x7e0(%rbp)
    aeba:	48 8d 85 28 ec ff ff 	lea    -0x13d8(%rbp),%rax
    aec1:	48 89 85 28 f8 ff ff 	mov    %rax,-0x7d8(%rbp)
    aec8:	48 8d 85 28 ec ff ff 	lea    -0x13d8(%rbp),%rax
    aecf:	48 89 85 30 f8 ff ff 	mov    %rax,-0x7d0(%rbp)
    aed6:	48 8d 05 23 02 01 00 	lea    0x10223(%rip),%rax        # 1b100 <g_38>
    aedd:	48 89 85 38 f8 ff ff 	mov    %rax,-0x7c8(%rbp)
    aee4:	c7 85 74 eb ff ff 00 	movl   $0x0,-0x148c(%rbp)
    aeeb:	00 00 00 
    aeee:	eb 7e                	jmp    af6e <func_14+0xf1e>
    aef0:	c7 85 78 eb ff ff 00 	movl   $0x0,-0x1488(%rbp)
    aef7:	00 00 00 
    aefa:	eb 62                	jmp    af5e <func_14+0xf0e>
    aefc:	c7 85 7c eb ff ff 00 	movl   $0x0,-0x1484(%rbp)
    af03:	00 00 00 
    af06:	eb 46                	jmp    af4e <func_14+0xefe>
    af08:	8b 85 7c eb ff ff    	mov    -0x1484(%rbp),%eax
    af0e:	48 63 c8             	movslq %eax,%rcx
    af11:	8b 85 74 eb ff ff    	mov    -0x148c(%rbp),%eax
    af17:	48 63 d0             	movslq %eax,%rdx
    af1a:	8b 85 78 eb ff ff    	mov    -0x1488(%rbp),%eax
    af20:	48 63 f0             	movslq %eax,%rsi
    af23:	48 89 d0             	mov    %rdx,%rax
    af26:	48 c1 e0 02          	shl    $0x2,%rax
    af2a:	48 01 d0             	add    %rdx,%rax
    af2d:	48 01 f0             	add    %rsi,%rax
    af30:	48 c1 e0 02          	shl    $0x2,%rax
    af34:	48 8d 14 08          	lea    (%rax,%rcx,1),%rdx
    af38:	48 8d 85 f8 eb ff ff 	lea    -0x1408(%rbp),%rax
    af3f:	48 89 84 d5 90 f1 ff 	mov    %rax,-0xe70(%rbp,%rdx,8)
    af46:	ff 
    af47:	83 85 7c eb ff ff 01 	addl   $0x1,-0x1484(%rbp)
    af4e:	83 bd 7c eb ff ff 03 	cmpl   $0x3,-0x1484(%rbp)
    af55:	7e b1                	jle    af08 <func_14+0xeb8>
    af57:	83 85 78 eb ff ff 01 	addl   $0x1,-0x1488(%rbp)
    af5e:	83 bd 78 eb ff ff 04 	cmpl   $0x4,-0x1488(%rbp)
    af65:	7e 95                	jle    aefc <func_14+0xeac>
    af67:	83 85 74 eb ff ff 01 	addl   $0x1,-0x148c(%rbp)
    af6e:	83 bd 74 eb ff ff 02 	cmpl   $0x2,-0x148c(%rbp)
    af75:	0f 8e 75 ff ff ff    	jle    aef0 <func_14+0xea0>
    af7b:	48 83 bd 48 eb ff ff 	cmpq   $0x0,-0x14b8(%rbp)
    af82:	00 
    af83:	74 2e                	je     afb3 <func_14+0xf63>
    af85:	48 8d 05 74 01 01 00 	lea    0x10174(%rip),%rax        # 1b100 <g_38>
    af8c:	48 89 85 c0 ed ff ff 	mov    %rax,-0x1240(%rbp)
    af93:	48 8b 95 28 ec ff ff 	mov    -0x13d8(%rbp),%rdx
    af9a:	48 8b 85 c0 ed ff ff 	mov    -0x1240(%rbp),%rax
    afa1:	48 89 10             	mov    %rdx,(%rax)
    afa4:	48 8b 85 40 eb ff ff 	mov    -0x14c0(%rbp),%rax
    afab:	48 8b 00             	mov    (%rax),%rax
    afae:	e9 95 1f 00 00       	jmpq   cf48 <func_14+0x2ef8>
    afb3:	c7 85 dc eb ff ff 9b 	movl   $0x441bf89b,-0x1424(%rbp)
    afba:	f8 1b 44 
    afbd:	48 8d 05 12 e1 00 00 	lea    0xe112(%rip),%rax        # 190d6 <g_282>
    afc4:	48 89 85 50 ec ff ff 	mov    %rax,-0x13b0(%rbp)
    afcb:	48 8d 85 50 ec ff ff 	lea    -0x13b0(%rbp),%rax
    afd2:	48 89 85 70 f3 ff ff 	mov    %rax,-0xc90(%rbp)
    afd9:	48 8d 85 50 ec ff ff 	lea    -0x13b0(%rbp),%rax
    afe0:	48 89 85 78 f3 ff ff 	mov    %rax,-0xc88(%rbp)
    afe7:	48 8d 85 50 ec ff ff 	lea    -0x13b0(%rbp),%rax
    afee:	48 89 85 80 f3 ff ff 	mov    %rax,-0xc80(%rbp)
    aff5:	48 8d 85 50 ec ff ff 	lea    -0x13b0(%rbp),%rax
    affc:	48 89 85 88 f3 ff ff 	mov    %rax,-0xc78(%rbp)
    b003:	48 8d 85 50 ec ff ff 	lea    -0x13b0(%rbp),%rax
    b00a:	48 89 85 90 f3 ff ff 	mov    %rax,-0xc70(%rbp)
    b011:	48 8d 85 50 ec ff ff 	lea    -0x13b0(%rbp),%rax
    b018:	48 89 85 98 f3 ff ff 	mov    %rax,-0xc68(%rbp)
    b01f:	48 8d 85 50 ec ff ff 	lea    -0x13b0(%rbp),%rax
    b026:	48 89 85 a0 f3 ff ff 	mov    %rax,-0xc60(%rbp)
    b02d:	48 8d 85 50 ec ff ff 	lea    -0x13b0(%rbp),%rax
    b034:	48 89 85 a8 f3 ff ff 	mov    %rax,-0xc58(%rbp)
    b03b:	48 8d 85 50 ec ff ff 	lea    -0x13b0(%rbp),%rax
    b042:	48 89 85 b0 f3 ff ff 	mov    %rax,-0xc50(%rbp)
    b049:	48 8d 85 50 ec ff ff 	lea    -0x13b0(%rbp),%rax
    b050:	48 89 85 b8 f3 ff ff 	mov    %rax,-0xc48(%rbp)
    b057:	48 8d 85 50 ec ff ff 	lea    -0x13b0(%rbp),%rax
    b05e:	48 89 85 c0 f3 ff ff 	mov    %rax,-0xc40(%rbp)
    b065:	48 8d 85 50 ec ff ff 	lea    -0x13b0(%rbp),%rax
    b06c:	48 89 85 c8 f3 ff ff 	mov    %rax,-0xc38(%rbp)
    b073:	48 8d 85 50 ec ff ff 	lea    -0x13b0(%rbp),%rax
    b07a:	48 89 85 d0 f3 ff ff 	mov    %rax,-0xc30(%rbp)
    b081:	48 8d 85 50 ec ff ff 	lea    -0x13b0(%rbp),%rax
    b088:	48 89 85 d8 f3 ff ff 	mov    %rax,-0xc28(%rbp)
    b08f:	48 8d 85 50 ec ff ff 	lea    -0x13b0(%rbp),%rax
    b096:	48 89 85 e0 f3 ff ff 	mov    %rax,-0xc20(%rbp)
    b09d:	48 8d 85 50 ec ff ff 	lea    -0x13b0(%rbp),%rax
    b0a4:	48 89 85 e8 f3 ff ff 	mov    %rax,-0xc18(%rbp)
    b0ab:	48 8d 05 6a e0 00 00 	lea    0xe06a(%rip),%rax        # 1911c <g_718>
    b0b2:	48 89 85 a0 ed ff ff 	mov    %rax,-0x1260(%rbp)
    b0b9:	48 8d 05 e8 1b 01 00 	lea    0x11be8(%rip),%rax        # 1cca8 <g_105>
    b0c0:	48 89 85 a8 ed ff ff 	mov    %rax,-0x1258(%rbp)
    b0c7:	8b 85 4c fd ff ff    	mov    -0x2b4(%rbp),%eax
    b0cd:	23 85 dc eb ff ff    	and    -0x1424(%rbp),%eax
    b0d3:	89 85 4c fd ff ff    	mov    %eax,-0x2b4(%rbp)
    b0d9:	0f b7 85 34 eb ff ff 	movzwl -0x14cc(%rbp),%eax
    b0e0:	0f be d8             	movsbl %al,%ebx
    b0e3:	8b 05 4f 1c 01 00    	mov    0x11c4f(%rip),%eax        # 1cd38 <g_1168>
    b0e9:	48 8b 85 38 eb ff ff 	mov    -0x14c8(%rbp),%rax
    b0f0:	0f b6 00             	movzbl (%rax),%eax
    b0f3:	0f be d0             	movsbl %al,%edx
    b0f6:	48 8d 05 d9 df 00 00 	lea    0xdfd9(%rip),%rax        # 190d6 <g_282>
    b0fd:	48 89 85 a0 ee ff ff 	mov    %rax,-0x1160(%rbp)
    b104:	48 8b 85 a0 ee ff ff 	mov    -0x1160(%rbp),%rax
    b10b:	48 39 85 d0 ec ff ff 	cmp    %rax,-0x1330(%rbp)
    b112:	0f 95 c0             	setne  %al
    b115:	0f b6 c0             	movzbl %al,%eax
    b118:	89 d6                	mov    %edx,%esi
    b11a:	89 c7                	mov    %eax,%edi
    b11c:	e8 80 d1 ff ff       	callq  82a1 <safe_lshift_func_int8_t_s_s>
    b121:	83 bd 9c eb ff ff 00 	cmpl   $0x0,-0x1464(%rbp)
    b128:	75 5b                	jne    b185 <func_14+0x1135>
    b12a:	66 83 bd 34 eb ff ff 	cmpw   $0x0,-0x14cc(%rbp)
    b131:	00 
    b132:	75 09                	jne    b13d <func_14+0x10ed>
    b134:	83 bd 9c eb ff ff 00 	cmpl   $0x0,-0x1464(%rbp)
    b13b:	74 07                	je     b144 <func_14+0x10f4>
    b13d:	b8 01 00 00 00       	mov    $0x1,%eax
    b142:	eb 05                	jmp    b149 <func_14+0x10f9>
    b144:	b8 00 00 00 00       	mov    $0x0,%eax
    b149:	83 f8 02             	cmp    $0x2,%eax
    b14c:	0f 9e c0             	setle  %al
    b14f:	0f b6 d0             	movzbl %al,%edx
    b152:	48 8b 85 a0 ed ff ff 	mov    -0x1260(%rbp),%rax
    b159:	66 89 10             	mov    %dx,(%rax)
    b15c:	48 8b 05 9d 07 01 00 	mov    0x1079d(%rip),%rax        # 1b900 <g_501>
    b163:	48 8b 95 60 ec ff ff 	mov    -0x13a0(%rbp),%rdx
    b16a:	48 89 10             	mov    %rdx,(%rax)
    b16d:	48 8b 00             	mov    (%rax),%rax
    b170:	48 be 2a 50 29 05 ec 	movabs $0xdb5d56ec0529502a,%rsi
    b177:	56 5d db 
    b17a:	48 89 c7             	mov    %rax,%rdi
    b17d:	e8 c9 de ff ff       	callq  904b <safe_sub_func_uint64_t_u_u>
    b182:	48 85 c0             	test   %rax,%rax
    b185:	48 8b 85 38 eb ff ff 	mov    -0x14c8(%rbp),%rax
    b18c:	0f b6 00             	movzbl (%rax),%eax
    b18f:	48 0f be c0          	movsbq %al,%rax
    b193:	48 33 85 48 eb ff ff 	xor    -0x14b8(%rbp),%rax
    b19a:	48 89 c2             	mov    %rax,%rdx
    b19d:	48 8b 85 a8 ed ff ff 	mov    -0x1258(%rbp),%rax
    b1a4:	0f b7 00             	movzwl (%rax),%eax
    b1a7:	89 c1                	mov    %eax,%ecx
    b1a9:	89 d0                	mov    %edx,%eax
    b1ab:	09 c8                	or     %ecx,%eax
    b1ad:	89 c2                	mov    %eax,%edx
    b1af:	48 8b 85 a8 ed ff ff 	mov    -0x1258(%rbp),%rax
    b1b6:	66 89 10             	mov    %dx,(%rax)
    b1b9:	48 8b 85 a8 ed ff ff 	mov    -0x1258(%rbp),%rax
    b1c0:	0f b7 00             	movzwl (%rax),%eax
    b1c3:	0f b7 c0             	movzwl %ax,%eax
    b1c6:	be 08 00 00 00       	mov    $0x8,%esi
    b1cb:	89 c7                	mov    %eax,%edi
    b1cd:	e8 34 dc ff ff       	callq  8e06 <safe_lshift_func_uint16_t_u_u>
    b1d2:	89 de                	mov    %ebx,%esi
    b1d4:	bf 01 00 00 00       	mov    $0x1,%edi
    b1d9:	e8 34 d0 ff ff       	callq  8212 <safe_mul_func_int8_t_s_s>
    b1de:	c7 85 c8 fc ff ff 01 	movl   $0x1,-0x338(%rbp)
    b1e5:	00 00 00 
    b1e8:	0f b7 9d 34 eb ff ff 	movzwl -0x14cc(%rbp),%ebx
    b1ef:	bf 00 00 00 00       	mov    $0x0,%edi
    b1f4:	e8 4c d9 ff ff       	callq  8b45 <safe_unary_minus_func_uint8_t_u>
    b1f9:	44 8b 25 74 e1 00 00 	mov    0xe174(%rip),%r12d        # 19374 <g_1192>
    b200:	48 8b 95 48 eb ff ff 	mov    -0x14b8(%rbp),%rdx
    b207:	48 0f bf 85 54 eb ff 	movswq -0x14ac(%rbp),%rax
    b20e:	ff 
    b20f:	48 89 d6             	mov    %rdx,%rsi
    b212:	48 89 c7             	mov    %rax,%rdi
    b215:	e8 31 de ff ff       	callq  904b <safe_sub_func_uint64_t_u_u>
    b21a:	48 b8 f9 eb e8 ad 6b 	movabs $0x6f3b0a6bade8ebf9,%rax
    b221:	0a 3b 6f 
    b224:	98                   	cwtl   
    b225:	8b 95 9c eb ff ff    	mov    -0x1464(%rbp),%edx
    b22b:	89 d6                	mov    %edx,%esi
    b22d:	89 c7                	mov    %eax,%edi
    b22f:	e8 ad d2 ff ff       	callq  84e1 <safe_lshift_func_int16_t_s_u>
    b234:	89 c2                	mov    %eax,%edx
    b236:	48 8b 85 90 ed ff ff 	mov    -0x1270(%rbp),%rax
    b23d:	88 10                	mov    %dl,(%rax)
    b23f:	48 8b 85 90 ed ff ff 	mov    -0x1270(%rbp),%rax
    b246:	0f b6 10             	movzbl (%rax),%edx
    b249:	48 8b 85 98 ed ff ff 	mov    -0x1268(%rbp),%rax
    b250:	88 10                	mov    %dl,(%rax)
    b252:	48 8b 85 98 ed ff ff 	mov    -0x1268(%rbp),%rax
    b259:	0f b6 00             	movzbl (%rax),%eax
    b25c:	0f be d0             	movsbl %al,%edx
    b25f:	48 8b 05 b2 fe 00 00 	mov    0xfeb2(%rip),%rax        # 1b118 <g_94>
    b266:	48 8b 00             	mov    (%rax),%rax
    b269:	0f b6 00             	movzbl (%rax),%eax
    b26c:	0f be c0             	movsbl %al,%eax
    b26f:	89 d6                	mov    %edx,%esi
    b271:	89 c7                	mov    %eax,%edi
    b273:	e8 7a cf ff ff       	callq  81f2 <safe_sub_func_int8_t_s_s>
    b278:	0f be d0             	movsbl %al,%edx
    b27b:	48 8b 85 38 eb ff ff 	mov    -0x14c8(%rbp),%rax
    b282:	0f b6 00             	movzbl (%rax),%eax
    b285:	0f be c0             	movsbl %al,%eax
    b288:	48 8b 0d 81 11 01 00 	mov    0x11181(%rip),%rcx        # 1c410 <g_981>
    b28f:	4c 8b 29             	mov    (%rcx),%r13
    b292:	89 d6                	mov    %edx,%esi
    b294:	89 c7                	mov    %eax,%edi
    b296:	e8 96 cf ff ff       	callq  8231 <safe_mod_func_int8_t_s_s>
    b29b:	41 88 45 00          	mov    %al,0x0(%r13)
    b29f:	66 c7 05 18 1a 01 00 	movw   $0x1,0x11a18(%rip)        # 1ccc0 <g_729>
    b2a6:	01 00 
    b2a8:	0f b7 05 11 1a 01 00 	movzwl 0x11a11(%rip),%eax        # 1ccc0 <g_729>
    b2af:	0f b7 c0             	movzwl %ax,%eax
    b2b2:	89 c6                	mov    %eax,%esi
    b2b4:	bf 01 00 00 00       	mov    $0x1,%edi
    b2b9:	e8 61 da ff ff       	callq  8d1f <safe_sub_func_uint16_t_u_u>
    b2be:	0f b7 c0             	movzwl %ax,%eax
    b2c1:	44 89 e6             	mov    %r12d,%esi
    b2c4:	89 c7                	mov    %eax,%edi
    b2c6:	e8 3a d3 ff ff       	callq  8605 <safe_sub_func_int32_t_s_s>
    b2cb:	0f b6 c0             	movzbl %al,%eax
    b2ce:	be f6 00 00 00       	mov    $0xf6,%esi
    b2d3:	89 c7                	mov    %eax,%edi
    b2d5:	e8 d4 d8 ff ff       	callq  8bae <safe_mod_func_uint8_t_u_u>
    b2da:	0f b6 c0             	movzbl %al,%eax
    b2dd:	66 39 85 34 eb ff ff 	cmp    %ax,-0x14cc(%rbp)
    b2e4:	0f 93 c0             	setae  %al
    b2e7:	0f b6 c0             	movzbl %al,%eax
    b2ea:	89 de                	mov    %ebx,%esi
    b2ec:	89 c7                	mov    %eax,%edi
    b2ee:	e8 70 d2 ff ff       	callq  8563 <safe_rshift_func_int16_t_s_u>
    b2f3:	0f bf d0             	movswl %ax,%edx
    b2f6:	0f b7 85 34 eb ff ff 	movzwl -0x14cc(%rbp),%eax
    b2fd:	21 d0                	and    %edx,%eax
    b2ff:	48 63 d0             	movslq %eax,%rdx
    b302:	48 8b 05 17 fe 00 00 	mov    0xfe17(%rip),%rax        # 1b120 <g_114>
    b309:	48 8b 00             	mov    (%rax),%rax
    b30c:	48 31 d0             	xor    %rdx,%rax
    b30f:	48 39 85 48 eb ff ff 	cmp    %rax,-0x14b8(%rbp)
    b316:	0f 9e c0             	setle  %al
    b319:	0f b6 c0             	movzbl %al,%eax
    b31c:	be 86 00 00 00       	mov    $0x86,%esi
    b321:	89 c7                	mov    %eax,%edi
    b323:	e8 b3 d8 ff ff       	callq  8bdb <safe_div_func_uint8_t_u_u>
    b328:	0f b6 c0             	movzbl %al,%eax
    b32b:	ba 2d 22 dc f7       	mov    $0xf7dc222d,%edx
    b330:	48 31 d0             	xor    %rdx,%rax
    b333:	48 89 c2             	mov    %rax,%rdx
    b336:	48 8b 05 fb 06 01 00 	mov    0x106fb(%rip),%rax        # 1ba38 <g_503>
    b33d:	48 8b 00             	mov    (%rax),%rax
    b340:	48 8b 00             	mov    (%rax),%rax
    b343:	48 39 c2             	cmp    %rax,%rdx
    b346:	0f 82 83 05 00 00    	jb     b8cf <func_14+0x187f>
    b34c:	48 8d 85 48 ec ff ff 	lea    -0x13b8(%rbp),%rax
    b353:	48 89 85 70 f3 ff ff 	mov    %rax,-0xc90(%rbp)
    b35a:	48 8d 85 48 ec ff ff 	lea    -0x13b8(%rbp),%rax
    b361:	48 89 85 78 f3 ff ff 	mov    %rax,-0xc88(%rbp)
    b368:	48 8d 85 48 ec ff ff 	lea    -0x13b8(%rbp),%rax
    b36f:	48 89 85 80 f3 ff ff 	mov    %rax,-0xc80(%rbp)
    b376:	48 8d 85 48 ec ff ff 	lea    -0x13b8(%rbp),%rax
    b37d:	48 89 85 88 f3 ff ff 	mov    %rax,-0xc78(%rbp)
    b384:	48 8d 85 48 ec ff ff 	lea    -0x13b8(%rbp),%rax
    b38b:	48 89 85 90 f3 ff ff 	mov    %rax,-0xc70(%rbp)
    b392:	48 8d 85 48 ec ff ff 	lea    -0x13b8(%rbp),%rax
    b399:	48 89 85 98 f3 ff ff 	mov    %rax,-0xc68(%rbp)
    b3a0:	48 8d 85 48 ec ff ff 	lea    -0x13b8(%rbp),%rax
    b3a7:	48 89 85 a0 f3 ff ff 	mov    %rax,-0xc60(%rbp)
    b3ae:	48 8d 85 48 ec ff ff 	lea    -0x13b8(%rbp),%rax
    b3b5:	48 89 85 a8 f3 ff ff 	mov    %rax,-0xc58(%rbp)
    b3bc:	48 8d 85 48 ec ff ff 	lea    -0x13b8(%rbp),%rax
    b3c3:	48 89 85 b0 f3 ff ff 	mov    %rax,-0xc50(%rbp)
    b3ca:	48 8d 85 48 ec ff ff 	lea    -0x13b8(%rbp),%rax
    b3d1:	48 89 85 b8 f3 ff ff 	mov    %rax,-0xc48(%rbp)
    b3d8:	48 8d 85 48 ec ff ff 	lea    -0x13b8(%rbp),%rax
    b3df:	48 89 85 c0 f3 ff ff 	mov    %rax,-0xc40(%rbp)
    b3e6:	48 8d 85 48 ec ff ff 	lea    -0x13b8(%rbp),%rax
    b3ed:	48 89 85 c8 f3 ff ff 	mov    %rax,-0xc38(%rbp)
    b3f4:	48 8d 85 48 ec ff ff 	lea    -0x13b8(%rbp),%rax
    b3fb:	48 89 85 d0 f3 ff ff 	mov    %rax,-0xc30(%rbp)
    b402:	48 8d 85 48 ec ff ff 	lea    -0x13b8(%rbp),%rax
    b409:	48 89 85 d8 f3 ff ff 	mov    %rax,-0xc28(%rbp)
    b410:	48 8d 85 48 ec ff ff 	lea    -0x13b8(%rbp),%rax
    b417:	48 89 85 e0 f3 ff ff 	mov    %rax,-0xc20(%rbp)
    b41e:	48 8d 85 48 ec ff ff 	lea    -0x13b8(%rbp),%rax
    b425:	48 89 85 e8 f3 ff ff 	mov    %rax,-0xc18(%rbp)
    b42c:	48 8d 85 48 ec ff ff 	lea    -0x13b8(%rbp),%rax
    b433:	48 89 85 f0 f3 ff ff 	mov    %rax,-0xc10(%rbp)
    b43a:	48 8d 85 48 ec ff ff 	lea    -0x13b8(%rbp),%rax
    b441:	48 89 85 f8 f3 ff ff 	mov    %rax,-0xc08(%rbp)
    b448:	48 8d 85 48 ec ff ff 	lea    -0x13b8(%rbp),%rax
    b44f:	48 89 85 00 f4 ff ff 	mov    %rax,-0xc00(%rbp)
    b456:	48 8d 85 48 ec ff ff 	lea    -0x13b8(%rbp),%rax
    b45d:	48 89 85 08 f4 ff ff 	mov    %rax,-0xbf8(%rbp)
    b464:	48 8d 85 48 ec ff ff 	lea    -0x13b8(%rbp),%rax
    b46b:	48 89 85 10 f4 ff ff 	mov    %rax,-0xbf0(%rbp)
    b472:	48 8d 85 48 ec ff ff 	lea    -0x13b8(%rbp),%rax
    b479:	48 89 85 18 f4 ff ff 	mov    %rax,-0xbe8(%rbp)
    b480:	48 8d 85 48 ec ff ff 	lea    -0x13b8(%rbp),%rax
    b487:	48 89 85 20 f4 ff ff 	mov    %rax,-0xbe0(%rbp)
    b48e:	48 8d 85 48 ec ff ff 	lea    -0x13b8(%rbp),%rax
    b495:	48 89 85 28 f4 ff ff 	mov    %rax,-0xbd8(%rbp)
    b49c:	48 8d 85 48 ec ff ff 	lea    -0x13b8(%rbp),%rax
    b4a3:	48 89 85 30 f4 ff ff 	mov    %rax,-0xbd0(%rbp)
    b4aa:	48 8d 85 48 ec ff ff 	lea    -0x13b8(%rbp),%rax
    b4b1:	48 89 85 38 f4 ff ff 	mov    %rax,-0xbc8(%rbp)
    b4b8:	48 8d 85 48 ec ff ff 	lea    -0x13b8(%rbp),%rax
    b4bf:	48 89 85 40 f4 ff ff 	mov    %rax,-0xbc0(%rbp)
    b4c6:	48 8d 85 48 ec ff ff 	lea    -0x13b8(%rbp),%rax
    b4cd:	48 89 85 48 f4 ff ff 	mov    %rax,-0xbb8(%rbp)
    b4d4:	48 8d 85 48 ec ff ff 	lea    -0x13b8(%rbp),%rax
    b4db:	48 89 85 50 f4 ff ff 	mov    %rax,-0xbb0(%rbp)
    b4e2:	48 8d 85 48 ec ff ff 	lea    -0x13b8(%rbp),%rax
    b4e9:	48 89 85 58 f4 ff ff 	mov    %rax,-0xba8(%rbp)
    b4f0:	48 8d 85 48 ec ff ff 	lea    -0x13b8(%rbp),%rax
    b4f7:	48 89 85 60 f4 ff ff 	mov    %rax,-0xba0(%rbp)
    b4fe:	48 8d 85 48 ec ff ff 	lea    -0x13b8(%rbp),%rax
    b505:	48 89 85 68 f4 ff ff 	mov    %rax,-0xb98(%rbp)
    b50c:	48 8d 85 48 ec ff ff 	lea    -0x13b8(%rbp),%rax
    b513:	48 89 85 70 f4 ff ff 	mov    %rax,-0xb90(%rbp)
    b51a:	48 8d 85 48 ec ff ff 	lea    -0x13b8(%rbp),%rax
    b521:	48 89 85 78 f4 ff ff 	mov    %rax,-0xb88(%rbp)
    b528:	48 8d 85 48 ec ff ff 	lea    -0x13b8(%rbp),%rax
    b52f:	48 89 85 80 f4 ff ff 	mov    %rax,-0xb80(%rbp)
    b536:	48 8d 85 48 ec ff ff 	lea    -0x13b8(%rbp),%rax
    b53d:	48 89 85 88 f4 ff ff 	mov    %rax,-0xb78(%rbp)
    b544:	48 8d 85 48 ec ff ff 	lea    -0x13b8(%rbp),%rax
    b54b:	48 89 85 90 f4 ff ff 	mov    %rax,-0xb70(%rbp)
    b552:	48 8d 85 48 ec ff ff 	lea    -0x13b8(%rbp),%rax
    b559:	48 89 85 98 f4 ff ff 	mov    %rax,-0xb68(%rbp)
    b560:	48 8d 85 48 ec ff ff 	lea    -0x13b8(%rbp),%rax
    b567:	48 89 85 a0 f4 ff ff 	mov    %rax,-0xb60(%rbp)
    b56e:	48 8d 85 48 ec ff ff 	lea    -0x13b8(%rbp),%rax
    b575:	48 89 85 a8 f4 ff ff 	mov    %rax,-0xb58(%rbp)
    b57c:	48 8d 85 48 ec ff ff 	lea    -0x13b8(%rbp),%rax
    b583:	48 89 85 b0 f4 ff ff 	mov    %rax,-0xb50(%rbp)
    b58a:	48 8d 85 48 ec ff ff 	lea    -0x13b8(%rbp),%rax
    b591:	48 89 85 b8 f4 ff ff 	mov    %rax,-0xb48(%rbp)
    b598:	48 8d 85 48 ec ff ff 	lea    -0x13b8(%rbp),%rax
    b59f:	48 89 85 c0 f4 ff ff 	mov    %rax,-0xb40(%rbp)
    b5a6:	48 8d 85 48 ec ff ff 	lea    -0x13b8(%rbp),%rax
    b5ad:	48 89 85 c8 f4 ff ff 	mov    %rax,-0xb38(%rbp)
    b5b4:	48 8d 85 48 ec ff ff 	lea    -0x13b8(%rbp),%rax
    b5bb:	48 89 85 d0 f4 ff ff 	mov    %rax,-0xb30(%rbp)
    b5c2:	48 8d 85 48 ec ff ff 	lea    -0x13b8(%rbp),%rax
    b5c9:	48 89 85 d8 f4 ff ff 	mov    %rax,-0xb28(%rbp)
    b5d0:	48 8d 85 48 ec ff ff 	lea    -0x13b8(%rbp),%rax
    b5d7:	48 89 85 e0 f4 ff ff 	mov    %rax,-0xb20(%rbp)
    b5de:	48 8d 85 48 ec ff ff 	lea    -0x13b8(%rbp),%rax
    b5e5:	48 89 85 e8 f4 ff ff 	mov    %rax,-0xb18(%rbp)
    b5ec:	48 8d 85 48 ec ff ff 	lea    -0x13b8(%rbp),%rax
    b5f3:	48 89 85 f0 f4 ff ff 	mov    %rax,-0xb10(%rbp)
    b5fa:	48 8d 85 48 ec ff ff 	lea    -0x13b8(%rbp),%rax
    b601:	48 89 85 f8 f4 ff ff 	mov    %rax,-0xb08(%rbp)
    b608:	48 8d 85 48 ec ff ff 	lea    -0x13b8(%rbp),%rax
    b60f:	48 89 85 00 f5 ff ff 	mov    %rax,-0xb00(%rbp)
    b616:	48 8d 85 48 ec ff ff 	lea    -0x13b8(%rbp),%rax
    b61d:	48 89 85 08 f5 ff ff 	mov    %rax,-0xaf8(%rbp)
    b624:	48 8d 85 48 ec ff ff 	lea    -0x13b8(%rbp),%rax
    b62b:	48 89 85 10 f5 ff ff 	mov    %rax,-0xaf0(%rbp)
    b632:	48 8d 85 48 ec ff ff 	lea    -0x13b8(%rbp),%rax
    b639:	48 89 85 18 f5 ff ff 	mov    %rax,-0xae8(%rbp)
    b640:	48 8d 85 48 ec ff ff 	lea    -0x13b8(%rbp),%rax
    b647:	48 89 85 20 f5 ff ff 	mov    %rax,-0xae0(%rbp)
    b64e:	48 8d 85 48 ec ff ff 	lea    -0x13b8(%rbp),%rax
    b655:	48 89 85 28 f5 ff ff 	mov    %rax,-0xad8(%rbp)
    b65c:	48 8d 85 48 ec ff ff 	lea    -0x13b8(%rbp),%rax
    b663:	48 89 85 30 f5 ff ff 	mov    %rax,-0xad0(%rbp)
    b66a:	48 8d 85 48 ec ff ff 	lea    -0x13b8(%rbp),%rax
    b671:	48 89 85 38 f5 ff ff 	mov    %rax,-0xac8(%rbp)
    b678:	48 8d 85 48 ec ff ff 	lea    -0x13b8(%rbp),%rax
    b67f:	48 89 85 40 f5 ff ff 	mov    %rax,-0xac0(%rbp)
    b686:	48 8d 85 48 ec ff ff 	lea    -0x13b8(%rbp),%rax
    b68d:	48 89 85 48 f5 ff ff 	mov    %rax,-0xab8(%rbp)
    b694:	48 8d 85 48 ec ff ff 	lea    -0x13b8(%rbp),%rax
    b69b:	48 89 85 50 f5 ff ff 	mov    %rax,-0xab0(%rbp)
    b6a2:	48 8d 85 48 ec ff ff 	lea    -0x13b8(%rbp),%rax
    b6a9:	48 89 85 58 f5 ff ff 	mov    %rax,-0xaa8(%rbp)
    b6b0:	48 8d 85 48 ec ff ff 	lea    -0x13b8(%rbp),%rax
    b6b7:	48 89 85 60 f5 ff ff 	mov    %rax,-0xaa0(%rbp)
    b6be:	48 8d 85 48 ec ff ff 	lea    -0x13b8(%rbp),%rax
    b6c5:	48 89 85 68 f5 ff ff 	mov    %rax,-0xa98(%rbp)
    b6cc:	c7 85 e4 eb ff ff c3 	movl   $0xf40764c3,-0x141c(%rbp)
    b6d3:	64 07 f4 
    b6d6:	48 8d 85 c0 fb ff ff 	lea    -0x440(%rbp),%rax
    b6dd:	48 05 8c 01 00 00    	add    $0x18c,%rax
    b6e3:	48 89 85 b8 ed ff ff 	mov    %rax,-0x1248(%rbp)
    b6ea:	c7 85 40 fd ff ff 00 	movl   $0x0,-0x2c0(%rbp)
    b6f1:	00 00 00 
    b6f4:	48 8b 85 48 ec ff ff 	mov    -0x13b8(%rbp),%rax
    b6fb:	48 89 05 2e 0d 01 00 	mov    %rax,0x10d2e(%rip)        # 1c430 <g_1212>
    b702:	8b 9d d0 eb ff ff    	mov    -0x1430(%rbp),%ebx
    b708:	48 8b 05 19 0d 01 00 	mov    0x10d19(%rip),%rax        # 1c428 <g_1213>
    b70f:	0f b7 00             	movzwl (%rax),%eax
    b712:	44 0f bf e0          	movswl %ax,%r12d
    b716:	44 8b 2d 47 da 00 00 	mov    0xda47(%rip),%r13d        # 19164 <g_843>
    b71d:	8b 05 45 dc 00 00    	mov    0xdc45(%rip),%eax        # 19368 <g_1067>
    b723:	44 0f bf f0          	movswl %ax,%r14d
    b727:	48 8b 85 48 eb ff ff 	mov    -0x14b8(%rbp),%rax
    b72e:	0f b6 c0             	movzbl %al,%eax
    b731:	be 02 00 00 00       	mov    $0x2,%esi
    b736:	89 c7                	mov    %eax,%edi
    b738:	e8 81 d5 ff ff       	callq  8cbe <safe_rshift_func_uint8_t_u_u>
    b73d:	84 c0                	test   %al,%al
    b73f:	48 8b 05 ba 01 01 00 	mov    0x101ba(%rip),%rax        # 1b900 <g_501>
    b746:	4c 8b 38             	mov    (%rax),%r15
    b749:	48 8b 05 50 05 01 00 	mov    0x10550(%rip),%rax        # 1bca0 <g_580>
    b750:	0f b6 00             	movzbl (%rax),%eax
    b753:	0f b6 d0             	movzbl %al,%edx
    b756:	48 8b 85 60 ec ff ff 	mov    -0x13a0(%rbp),%rax
    b75d:	0f be c0             	movsbl %al,%eax
    b760:	89 d6                	mov    %edx,%esi
    b762:	89 c7                	mov    %eax,%edi
    b764:	e8 85 cb ff ff       	callq  82ee <safe_lshift_func_int8_t_s_u>
    b769:	48 8b 95 98 ed ff ff 	mov    -0x1268(%rbp),%rdx
    b770:	88 02                	mov    %al,(%rdx)
    b772:	48 8b 85 98 ed ff ff 	mov    -0x1268(%rbp),%rax
    b779:	0f b6 00             	movzbl (%rax),%eax
    b77c:	0f be c0             	movsbl %al,%eax
    b77f:	be 03 00 00 00       	mov    $0x3,%esi
    b784:	89 c7                	mov    %eax,%edi
    b786:	e8 aa cb ff ff       	callq  8335 <safe_rshift_func_int8_t_s_s>
    b78b:	48 0f be c0          	movsbq %al,%rax
    b78f:	4c 89 fa             	mov    %r15,%rdx
    b792:	48 21 c2             	and    %rax,%rdx
    b795:	48 8b 05 54 01 01 00 	mov    0x10154(%rip),%rax        # 1b8f0 <g_483>
    b79c:	48 8b 00             	mov    (%rax),%rax
    b79f:	48 21 c2             	and    %rax,%rdx
    b7a2:	48 8b 05 47 01 01 00 	mov    0x10147(%rip),%rax        # 1b8f0 <g_483>
    b7a9:	48 89 10             	mov    %rdx,(%rax)
    b7ac:	48 8b 00             	mov    (%rax),%rax
    b7af:	48 89 c2             	mov    %rax,%rdx
    b7b2:	48 b8 26 be 0e 96 d0 	movabs $0xeb5986d0960ebe26,%rax
    b7b9:	86 59 eb 
    b7bc:	48 21 d0             	and    %rdx,%rax
    b7bf:	48 83 f8 09          	cmp    $0x9,%rax
    b7c3:	0f 96 c0             	setbe  %al
    b7c6:	0f b6 c0             	movzbl %al,%eax
    b7c9:	be 13 00 00 00       	mov    $0x13,%esi
    b7ce:	89 c7                	mov    %eax,%edi
    b7d0:	e8 d9 d3 ff ff       	callq  8bae <safe_mod_func_uint8_t_u_u>
    b7d5:	0f b6 c0             	movzbl %al,%eax
    b7d8:	89 c7                	mov    %eax,%edi
    b7da:	e8 b7 cd ff ff       	callq  8596 <safe_unary_minus_func_int32_t_s>
    b7df:	c7 85 e4 eb ff ff 00 	movl   $0x0,-0x141c(%rbp)
    b7e6:	00 00 00 
    b7e9:	48 8b 05 38 0c 01 00 	mov    0x10c38(%rip),%rax        # 1c428 <g_1213>
    b7f0:	0f b7 00             	movzwl (%rax),%eax
    b7f3:	0f b7 c0             	movzwl %ax,%eax
    b7f6:	48 39 85 48 eb ff ff 	cmp    %rax,-0x14b8(%rbp)
    b7fd:	0f 9d c0             	setge  %al
    b800:	0f b6 d0             	movzbl %al,%edx
    b803:	8b 85 5c eb ff ff    	mov    -0x14a4(%rbp),%eax
    b809:	39 c2                	cmp    %eax,%edx
    b80b:	0f 97 c0             	seta   %al
    b80e:	0f b6 d0             	movzbl %al,%edx
    b811:	48 8b 05 08 f9 00 00 	mov    0xf908(%rip),%rax        # 1b120 <g_114>
    b818:	48 8b 00             	mov    (%rax),%rax
    b81b:	48 39 c2             	cmp    %rax,%rdx
    b81e:	0f 9f c0             	setg   %al
    b821:	0f b6 c0             	movzbl %al,%eax
    b824:	44 89 f6             	mov    %r14d,%esi
    b827:	89 c7                	mov    %eax,%edi
    b829:	e8 c7 cb ff ff       	callq  83f5 <safe_mul_func_int16_t_s_s>
    b82e:	0f b6 c0             	movzbl %al,%eax
    b831:	be ff 00 00 00       	mov    $0xff,%esi
    b836:	89 c7                	mov    %eax,%edi
    b838:	e8 3b d3 ff ff       	callq  8b78 <safe_sub_func_uint8_t_u_u>
    b83d:	0f b6 d0             	movzbl %al,%edx
    b840:	48 8b 85 b8 ed ff ff 	mov    -0x1248(%rbp),%rax
    b847:	89 10                	mov    %edx,(%rax)
    b849:	48 8b 85 b8 ed ff ff 	mov    -0x1248(%rbp),%rax
    b850:	8b 00                	mov    (%rax),%eax
    b852:	44 89 ee             	mov    %r13d,%esi
    b855:	89 c7                	mov    %eax,%edi
    b857:	e8 a3 ce ff ff       	callq  86ff <safe_div_func_int32_t_s_s>
    b85c:	98                   	cwtl   
    b85d:	44 89 e6             	mov    %r12d,%esi
    b860:	89 c7                	mov    %eax,%edi
    b862:	e8 ee cb ff ff       	callq  8455 <safe_div_func_int16_t_s_s>
    b867:	98                   	cwtl   
    b868:	89 05 52 d8 00 00    	mov    %eax,0xd852(%rip)        # 190c0 <g_197>
    b86e:	8b 05 4c d8 00 00    	mov    0xd84c(%rip),%eax        # 190c0 <g_197>
    b874:	85 c0                	test   %eax,%eax
    b876:	74 07                	je     b87f <func_14+0x182f>
    b878:	b8 01 00 00 00       	mov    $0x1,%eax
    b87d:	eb 05                	jmp    b884 <func_14+0x1834>
    b87f:	b8 00 00 00 00       	mov    $0x0,%eax
    b884:	89 c2                	mov    %eax,%edx
    b886:	48 8b 85 48 eb ff ff 	mov    -0x14b8(%rbp),%rax
    b88d:	0f b7 c0             	movzwl %ax,%eax
    b890:	89 d6                	mov    %edx,%esi
    b892:	89 c7                	mov    %eax,%edi
    b894:	e8 6d d5 ff ff       	callq  8e06 <safe_lshift_func_uint16_t_u_u>
    b899:	0f be c0             	movsbl %al,%eax
    b89c:	89 de                	mov    %ebx,%esi
    b89e:	89 c7                	mov    %eax,%edi
    b8a0:	e8 49 ca ff ff       	callq  82ee <safe_lshift_func_int8_t_s_u>
    b8a5:	8b 85 00 fe ff ff    	mov    -0x200(%rbp),%eax
    b8ab:	85 c0                	test   %eax,%eax
    b8ad:	74 10                	je     b8bf <func_14+0x186f>
    b8af:	83 bd 9c eb ff ff 00 	cmpl   $0x0,-0x1464(%rbp)
    b8b6:	74 07                	je     b8bf <func_14+0x186f>
    b8b8:	b8 01 00 00 00       	mov    $0x1,%eax
    b8bd:	eb 05                	jmp    b8c4 <func_14+0x1874>
    b8bf:	b8 00 00 00 00       	mov    $0x0,%eax
    b8c4:	31 85 d4 eb ff ff    	xor    %eax,-0x142c(%rbp)
    b8ca:	e9 43 01 00 00       	jmpq   ba12 <func_14+0x19c2>
    b8cf:	c7 85 e0 eb ff ff 58 	movl   $0x846f4758,-0x1420(%rbp)
    b8d6:	47 6f 84 
    b8d9:	48 8d 05 00 14 01 00 	lea    0x11400(%rip),%rax        # 1cce0 <g_847>
    b8e0:	48 89 85 b0 ed ff ff 	mov    %rax,-0x1250(%rbp)
    b8e7:	8b 05 d7 d7 00 00    	mov    0xd7d7(%rip),%eax        # 190c4 <g_211>
    b8ed:	48 98                	cltq   
    b8ef:	48 39 85 48 eb ff ff 	cmp    %rax,-0x14b8(%rbp)
    b8f6:	0f b7 9d 34 eb ff ff 	movzwl -0x14cc(%rbp),%ebx
    b8fd:	0f b6 05 42 de 00 00 	movzbl 0xde42(%rip),%eax        # 19746 <g_1257+0x6>
    b904:	44 0f be e0          	movsbl %al,%r12d
    b908:	48 8b 05 59 f8 00 00 	mov    0xf859(%rip),%rax        # 1b168 <g_372>
    b90f:	48 8b 00             	mov    (%rax),%rax
    b912:	48 8b 00             	mov    (%rax),%rax
    b915:	44 0f b7 ad 34 eb ff 	movzwl -0x14cc(%rbp),%r13d
    b91c:	ff 
    b91d:	48 8b 05 44 db 00 00 	mov    0xdb44(%rip),%rax        # 19468 <g_1254+0xe8>
    b924:	48 8b 85 48 eb ff ff 	mov    -0x14b8(%rbp),%rax
    b92b:	98                   	cwtl   
    b92c:	be 0b 00 00 00       	mov    $0xb,%esi
    b931:	89 c7                	mov    %eax,%edi
    b933:	e8 5a cb ff ff       	callq  8492 <safe_lshift_func_int16_t_s_s>
    b938:	48 0f bf c0          	movswq %ax,%rax
    b93c:	48 ba ba 66 1c 7e 22 	movabs $0xc4257c227e1c66ba,%rdx
    b943:	7c 25 c4 
    b946:	48 31 d0             	xor    %rdx,%rax
    b949:	4c 89 ee             	mov    %r13,%rsi
    b94c:	48 89 c7             	mov    %rax,%rdi
    b94f:	e8 5b d7 ff ff       	callq  90af <safe_div_func_uint64_t_u_u>
    b954:	be 01 00 00 00       	mov    $0x1,%esi
    b959:	bf 06 00 00 00       	mov    $0x6,%edi
    b95e:	e8 a3 d4 ff ff       	callq  8e06 <safe_lshift_func_uint16_t_u_u>
    b963:	0f b7 c0             	movzwl %ax,%eax
    b966:	be 01 00 00 00       	mov    $0x1,%esi
    b96b:	89 c7                	mov    %eax,%edi
    b96d:	e8 5a cd ff ff       	callq  86cc <safe_mod_func_int32_t_s_s>
    b972:	3d b7 6b 00 00       	cmp    $0x6bb7,%eax
    b977:	0f 9e c0             	setle  %al
    b97a:	0f b6 d0             	movzbl %al,%edx
    b97d:	0f b7 85 34 eb ff ff 	movzwl -0x14cc(%rbp),%eax
    b984:	21 d0                	and    %edx,%eax
    b986:	98                   	cwtl   
    b987:	be 01 00 00 00       	mov    $0x1,%esi
    b98c:	89 c7                	mov    %eax,%edi
    b98e:	e8 c2 ca ff ff       	callq  8455 <safe_div_func_int16_t_s_s>
    b993:	66 85 c0             	test   %ax,%ax
    b996:	74 08                	je     b9a0 <func_14+0x1950>
    b998:	8b 85 60 eb ff ff    	mov    -0x14a0(%rbp),%eax
    b99e:	85 c0                	test   %eax,%eax
    b9a0:	44 89 e6             	mov    %r12d,%esi
    b9a3:	bf 64 00 00 00       	mov    $0x64,%edi
    b9a8:	e8 f4 c8 ff ff       	callq  82a1 <safe_lshift_func_int8_t_s_s>
    b9ad:	48 8b 85 98 ed ff ff 	mov    -0x1268(%rbp),%rax
    b9b4:	c6 00 01             	movb   $0x1,(%rax)
    b9b7:	b8 01 00 00 00       	mov    $0x1,%eax
    b9bc:	0f b7 c0             	movzwl %ax,%eax
    b9bf:	89 de                	mov    %ebx,%esi
    b9c1:	89 c7                	mov    %eax,%edi
    b9c3:	e8 75 d3 ff ff       	callq  8d3d <safe_mul_func_uint16_t_u_u>
    b9c8:	0f b7 d0             	movzwl %ax,%edx
    b9cb:	8b 05 9b d7 00 00    	mov    0xd79b(%rip),%eax        # 1916c <g_846>
    b9d1:	31 d0                	xor    %edx,%eax
    b9d3:	89 05 93 d7 00 00    	mov    %eax,0xd793(%rip)        # 1916c <g_846>
    b9d9:	8b 05 55 d7 00 00    	mov    0xd755(%rip),%eax        # 19134 <g_730+0x14>
    b9df:	98                   	cwtl   
    b9e0:	be 0f 00 00 00       	mov    $0xf,%esi
    b9e5:	89 c7                	mov    %eax,%edi
    b9e7:	e8 a6 ca ff ff       	callq  8492 <safe_lshift_func_int16_t_s_s>
    b9ec:	48 8b 95 b0 ed ff ff 	mov    -0x1250(%rbp),%rdx
    b9f3:	8b 12                	mov    (%rdx),%edx
    b9f5:	98                   	cwtl   
    b9f6:	09 c2                	or     %eax,%edx
    b9f8:	48 8b 85 b0 ed ff ff 	mov    -0x1250(%rbp),%rax
    b9ff:	89 10                	mov    %edx,(%rax)
    ba01:	48 8b 05 e0 fe 00 00 	mov    0xfee0(%rip),%rax        # 1b8e8 <g_379>
    ba08:	48 8b 95 c0 ec ff ff 	mov    -0x1340(%rbp),%rdx
    ba0f:	48 89 10             	mov    %rdx,(%rax)
    ba12:	48 8b 85 10 ec ff ff 	mov    -0x13f0(%rbp),%rax
    ba19:	48 89 85 88 ed ff ff 	mov    %rax,-0x1278(%rbp)
    ba20:	48 8b 05 49 d6 00 00 	mov    0xd649(%rip),%rax        # 19070 <g_115>
    ba27:	48 83 e8 01          	sub    $0x1,%rax
    ba2b:	48 89 05 3e d6 00 00 	mov    %rax,0xd63e(%rip)        # 19070 <g_115>
    ba32:	48 8b 05 37 d6 00 00 	mov    0xd637(%rip),%rax        # 19070 <g_115>
    ba39:	48 83 f8 f1          	cmp    $0xfffffffffffffff1,%rax
    ba3d:	0f 8d bb ef ff ff    	jge    a9fe <func_14+0x9ae>
    ba43:	48 8b 05 c6 09 01 00 	mov    0x109c6(%rip),%rax        # 1c410 <g_981>
    ba4a:	48 8b 00             	mov    (%rax),%rax
    ba4d:	e9 f6 14 00 00       	jmpq   cf48 <func_14+0x2ef8>
    ba52:	48 8b 85 28 ec ff ff 	mov    -0x13d8(%rbp),%rax
    ba59:	8b 00                	mov    (%rax),%eax
    ba5b:	85 c0                	test   %eax,%eax
    ba5d:	0f 84 3f 09 00 00    	je     c3a2 <func_14+0x2352>
    ba63:	48 8d 05 e6 d7 00 00 	lea    0xd7e6(%rip),%rax        # 19250 <g_976>
    ba6a:	48 89 85 18 ed ff ff 	mov    %rax,-0x12e8(%rbp)
    ba71:	c7 85 a8 eb ff ff a4 	movl   $0x7e4ae8a4,-0x1458(%rbp)
    ba78:	e8 4a 7e 
    ba7b:	c7 85 68 eb ff ff 11 	movl   $0x582da411,-0x1498(%rbp)
    ba82:	a4 2d 58 
    ba85:	c7 85 ac eb ff ff 36 	movl   $0x2b6b4436,-0x1454(%rbp)
    ba8c:	44 6b 2b 
    ba8f:	48 c7 85 20 ed ff ff 	movq   $0xffffffffffffffff,-0x12e0(%rbp)
    ba96:	ff ff ff ff 
    ba9a:	48 8d 05 97 ff 00 00 	lea    0xff97(%rip),%rax        # 1ba38 <g_503>
    baa1:	48 89 85 28 ed ff ff 	mov    %rax,-0x12d8(%rbp)
    baa8:	c7 85 80 eb ff ff 00 	movl   $0x0,-0x1480(%rbp)
    baaf:	00 00 00 
    bab2:	eb 1a                	jmp    bace <func_14+0x1a7e>
    bab4:	8b 85 80 eb ff ff    	mov    -0x1480(%rbp),%eax
    baba:	48 98                	cltq   
    babc:	c7 84 85 70 f5 ff ff 	movl   $0x2b7e07d7,-0xa90(%rbp,%rax,4)
    bac3:	d7 07 7e 2b 
    bac7:	83 85 80 eb ff ff 01 	addl   $0x1,-0x1480(%rbp)
    bace:	83 bd 80 eb ff ff 09 	cmpl   $0x9,-0x1480(%rbp)
    bad5:	7e dd                	jle    bab4 <func_14+0x1a64>
    bad7:	c7 85 80 eb ff ff 00 	movl   $0x0,-0x1480(%rbp)
    bade:	00 00 00 
    bae1:	eb 1a                	jmp    bafd <func_14+0x1aad>
    bae3:	8b 85 80 eb ff ff    	mov    -0x1480(%rbp),%eax
    bae9:	48 98                	cltq   
    baeb:	c7 84 85 04 ee ff ff 	movl   $0x3b923694,-0x11fc(%rbp,%rax,4)
    baf2:	94 36 92 3b 
    baf6:	83 85 80 eb ff ff 01 	addl   $0x1,-0x1480(%rbp)
    bafd:	83 bd 80 eb ff ff 02 	cmpl   $0x2,-0x1480(%rbp)
    bb04:	7e dd                	jle    bae3 <func_14+0x1a93>
    bb06:	0f b7 85 34 eb ff ff 	movzwl -0x14cc(%rbp),%eax
    bb0d:	0f b6 d8             	movzbl %al,%ebx
    bb10:	bf de ff ff ff       	mov    $0xffffffde,%edi
    bb15:	e8 a5 c6 ff ff       	callq  81bf <safe_unary_minus_func_int8_t_s>
    bb1a:	4c 0f be e0          	movsbq %al,%r12
    bb1e:	8b 85 74 f5 ff ff    	mov    -0xa8c(%rbp),%eax
    bb24:	0f b6 c0             	movzbl %al,%eax
    bb27:	be 07 00 00 00       	mov    $0x7,%esi
    bb2c:	89 c7                	mov    %eax,%edi
    bb2e:	e8 45 d0 ff ff       	callq  8b78 <safe_sub_func_uint8_t_u_u>
    bb33:	44 0f b6 e8          	movzbl %al,%r13d
    bb37:	48 8b 85 e0 ee ff ff 	mov    -0x1120(%rbp),%rax
    bb3e:	48 39 85 18 ed ff ff 	cmp    %rax,-0x12e8(%rbp)
    bb45:	0f 95 c0             	setne  %al
    bb48:	0f b6 d0             	movzbl %al,%edx
    bb4b:	48 8b 85 48 eb ff ff 	mov    -0x14b8(%rbp),%rax
    bb52:	48 89 d6             	mov    %rdx,%rsi
    bb55:	48 89 c7             	mov    %rax,%rdi
    bb58:	e8 4b cd ff ff       	callq  88a8 <safe_sub_func_int64_t_s_s>
    bb5d:	4c 21 e8             	and    %r13,%rax
    bb60:	49 39 c4             	cmp    %rax,%r12
    bb63:	0f 95 c0             	setne  %al
    bb66:	0f b6 c0             	movzbl %al,%eax
    bb69:	48 39 85 48 eb ff ff 	cmp    %rax,-0x14b8(%rbp)
    bb70:	7d 07                	jge    bb79 <func_14+0x1b29>
    bb72:	ba e1 00 00 00       	mov    $0xe1,%edx
    bb77:	eb 05                	jmp    bb7e <func_14+0x1b2e>
    bb79:	ba e0 00 00 00       	mov    $0xe0,%edx
    bb7e:	0f b7 85 34 eb ff ff 	movzwl -0x14cc(%rbp),%eax
    bb85:	48 39 c2             	cmp    %rax,%rdx
    bb88:	0f 9f c0             	setg   %al
    bb8b:	0f b6 d0             	movzbl %al,%edx
    bb8e:	48 8b 85 28 ec ff ff 	mov    -0x13d8(%rbp),%rax
    bb95:	8b 00                	mov    (%rax),%eax
    bb97:	39 c2                	cmp    %eax,%edx
    bb99:	0f 95 c0             	setne  %al
    bb9c:	0f b6 c0             	movzbl %al,%eax
    bb9f:	be fd ff ff ff       	mov    $0xfffffffd,%esi
    bba4:	89 c7                	mov    %eax,%edi
    bba6:	e8 29 c6 ff ff       	callq  81d4 <safe_add_func_int8_t_s_s>
    bbab:	0f b6 c0             	movzbl %al,%eax
    bbae:	89 de                	mov    %ebx,%esi
    bbb0:	89 c7                	mov    %eax,%edi
    bbb2:	e8 dc cf ff ff       	callq  8b93 <safe_mul_func_uint8_t_u_u>
    bbb7:	0f b6 c0             	movzbl %al,%eax
    bbba:	be b6 93 ff ff       	mov    $0xffff93b6,%esi
    bbbf:	89 c7                	mov    %eax,%edi
    bbc1:	e8 0d c8 ff ff       	callq  83d3 <safe_sub_func_int16_t_s_s>
    bbc6:	0f b7 c0             	movzwl %ax,%eax
    bbc9:	be fa ff 00 00       	mov    $0xfffa,%esi
    bbce:	89 c7                	mov    %eax,%edi
    bbd0:	e8 2a d1 ff ff       	callq  8cff <safe_add_func_uint16_t_u_u>
    bbd5:	0f b7 c0             	movzwl %ax,%eax
    bbd8:	48 23 85 48 eb ff ff 	and    -0x14b8(%rbp),%rax
    bbdf:	48 85 c0             	test   %rax,%rax
    bbe2:	74 0f                	je     bbf3 <func_14+0x1ba3>
    bbe4:	48 8b 85 40 eb ff ff 	mov    -0x14c0(%rbp),%rax
    bbeb:	48 8b 00             	mov    (%rax),%rax
    bbee:	e9 55 13 00 00       	jmpq   cf48 <func_14+0x2ef8>
    bbf3:	c7 85 b0 eb ff ff ff 	movl   $0xffffffff,-0x1450(%rbp)
    bbfa:	ff ff ff 
    bbfd:	48 8d 05 3c 08 01 00 	lea    0x1083c(%rip),%rax        # 1c440 <g_1317>
    bc04:	48 89 85 30 ed ff ff 	mov    %rax,-0x12d0(%rbp)
    bc0b:	48 8d 05 26 08 01 00 	lea    0x10826(%rip),%rax        # 1c438 <g_1318>
    bc12:	48 89 85 30 ec ff ff 	mov    %rax,-0x13d0(%rbp)
    bc19:	c7 85 b4 eb ff ff 04 	movl   $0x4,-0x144c(%rbp)
    bc20:	00 00 00 
    bc23:	c7 85 b8 eb ff ff 00 	movl   $0x0,-0x1448(%rbp)
    bc2a:	00 00 00 
    bc2d:	c7 85 bc eb ff ff 00 	movl   $0x0,-0x1444(%rbp)
    bc34:	00 00 00 
    bc37:	c7 85 c0 eb ff ff 01 	movl   $0x1,-0x1440(%rbp)
    bc3e:	00 00 00 
    bc41:	c7 85 c4 eb ff ff f7 	movl   $0xfffffff7,-0x143c(%rbp)
    bc48:	ff ff ff 
    bc4b:	c7 85 c8 eb ff ff 00 	movl   $0x0,-0x1438(%rbp)
    bc52:	00 00 00 
    bc55:	c7 85 cc eb ff ff d6 	movl   $0x530a6d6,-0x1434(%rbp)
    bc5c:	a6 30 05 
    bc5f:	48 8d 05 7e 10 01 00 	lea    0x1107e(%rip),%rax        # 1cce4 <g_848>
    bc66:	48 89 85 90 f1 ff ff 	mov    %rax,-0xe70(%rbp)
    bc6d:	48 8d 05 b4 d3 00 00 	lea    0xd3b4(%rip),%rax        # 19028 <g_6>
    bc74:	48 89 85 98 f1 ff ff 	mov    %rax,-0xe68(%rbp)
    bc7b:	48 8d 05 62 10 01 00 	lea    0x11062(%rip),%rax        # 1cce4 <g_848>
    bc82:	48 89 85 a0 f1 ff ff 	mov    %rax,-0xe60(%rbp)
    bc89:	48 8d 05 98 d3 00 00 	lea    0xd398(%rip),%rax        # 19028 <g_6>
    bc90:	48 89 85 a8 f1 ff ff 	mov    %rax,-0xe58(%rbp)
    bc97:	c7 85 84 eb ff ff 00 	movl   $0x0,-0x147c(%rbp)
    bc9e:	00 00 00 
    bca1:	eb 1e                	jmp    bcc1 <func_14+0x1c71>
    bca3:	8b 85 84 eb ff ff    	mov    -0x147c(%rbp),%eax
    bca9:	48 98                	cltq   
    bcab:	48 8d 95 30 ec ff ff 	lea    -0x13d0(%rbp),%rdx
    bcb2:	48 89 94 c5 30 ee ff 	mov    %rdx,-0x11d0(%rbp,%rax,8)
    bcb9:	ff 
    bcba:	83 85 84 eb ff ff 01 	addl   $0x1,-0x147c(%rbp)
    bcc1:	83 bd 84 eb ff ff 03 	cmpl   $0x3,-0x147c(%rbp)
    bcc8:	7e d9                	jle    bca3 <func_14+0x1c53>
    bcca:	c7 05 98 d4 00 00 09 	movl   $0x9,0xd498(%rip)        # 1916c <g_846>
    bcd1:	00 00 00 
    bcd4:	90                   	nop
    bcd5:	8b 05 91 d4 00 00    	mov    0xd491(%rip),%eax        # 1916c <g_846>
    bcdb:	83 f8 ff             	cmp    $0xffffffff,%eax
    bcde:	74 39                	je     bd19 <func_14+0x1cc9>
    bce0:	48 8d 05 f9 0f 01 00 	lea    0x10ff9(%rip),%rax        # 1cce0 <g_847>
    bce7:	48 89 85 78 ed ff ff 	mov    %rax,-0x1288(%rbp)
    bcee:	48 8d 05 0b f4 00 00 	lea    0xf40b(%rip),%rax        # 1b100 <g_38>
    bcf5:	48 89 85 80 ed ff ff 	mov    %rax,-0x1280(%rbp)
    bcfc:	48 8b 85 80 ed ff ff 	mov    -0x1280(%rbp),%rax
    bd03:	48 8b 95 78 ed ff ff 	mov    -0x1288(%rbp),%rdx
    bd0a:	48 89 10             	mov    %rdx,(%rax)
    bd0d:	48 8b 85 68 ec ff ff 	mov    -0x1398(%rbp),%rax
    bd14:	e9 2f 12 00 00       	jmpq   cf48 <func_14+0x2ef8>
    bd19:	48 8b 05 d8 fb 00 00 	mov    0xfbd8(%rip),%rax        # 1b8f8 <g_482>
    bd20:	48 8b 00             	mov    (%rax),%rax
    bd23:	48 8b 00             	mov    (%rax),%rax
    bd26:	be 00 00 00 00       	mov    $0x0,%esi
    bd2b:	48 89 c7             	mov    %rax,%rdi
    bd2e:	e8 0e cb ff ff       	callq  8841 <safe_add_func_int64_t_s_s>
    bd33:	09 85 b0 eb ff ff    	or     %eax,-0x1450(%rbp)
    bd39:	48 8b 85 48 eb ff ff 	mov    -0x14b8(%rbp),%rax
    bd40:	41 89 c6             	mov    %eax,%r14d
    bd43:	bf 9a ff ff ff       	mov    $0xffffff9a,%edi
    bd48:	e8 72 c4 ff ff       	callq  81bf <safe_unary_minus_func_int8_t_s>
    bd4d:	0f be c0             	movsbl %al,%eax
    bd50:	8b 15 1a d6 00 00    	mov    0xd61a(%rip),%edx        # 19370 <g_1150>
    bd56:	89 c6                	mov    %eax,%esi
    bd58:	89 d7                	mov    %edx,%edi
    bd5a:	e8 71 d1 ff ff       	callq  8ed0 <safe_sub_func_uint32_t_u_u>
    bd5f:	41 89 c5             	mov    %eax,%r13d
    bd62:	0f b7 9d 34 eb ff ff 	movzwl -0x14cc(%rbp),%ebx
    bd69:	0f b7 85 34 eb ff ff 	movzwl -0x14cc(%rbp),%eax
    bd70:	44 0f b6 e0          	movzbl %al,%r12d
    bd74:	48 8b 85 10 ec ff ff 	mov    -0x13f0(%rbp),%rax
    bd7b:	8b 00                	mov    (%rax),%eax
    bd7d:	48 98                	cltq   
    bd7f:	be 00 00 00 00       	mov    $0x0,%esi
    bd84:	48 89 c7             	mov    %rax,%rdi
    bd87:	e8 1c cb ff ff       	callq  88a8 <safe_sub_func_int64_t_s_s>
    bd8c:	89 c1                	mov    %eax,%ecx
    bd8e:	0f b7 95 34 eb ff ff 	movzwl -0x14cc(%rbp),%edx
    bd95:	48 8b 85 48 eb ff ff 	mov    -0x14b8(%rbp),%rax
    bd9c:	25 41 6f 9a cd       	and    $0xcd9a6f41,%eax
    bda1:	48 39 c2             	cmp    %rax,%rdx
    bda4:	0f 9c c0             	setl   %al
    bda7:	31 c8                	xor    %ecx,%eax
    bda9:	0f b6 c0             	movzbl %al,%eax
    bdac:	44 89 e6             	mov    %r12d,%esi
    bdaf:	89 c7                	mov    %eax,%edi
    bdb1:	e8 dd cd ff ff       	callq  8b93 <safe_mul_func_uint8_t_u_u>
    bdb6:	0f b6 d0             	movzbl %al,%edx
    bdb9:	8b 85 b0 eb ff ff    	mov    -0x1450(%rbp),%eax
    bdbf:	89 d6                	mov    %edx,%esi
    bdc1:	89 c7                	mov    %eax,%edi
    bdc3:	e8 04 c9 ff ff       	callq  86cc <safe_mod_func_int32_t_s_s>
    bdc8:	48 8b 85 10 ec ff ff 	mov    -0x13f0(%rbp),%rax
    bdcf:	8b 00                	mov    (%rax),%eax
    bdd1:	0f b6 c0             	movzbl %al,%eax
    bdd4:	89 de                	mov    %ebx,%esi
    bdd6:	89 c7                	mov    %eax,%edi
    bdd8:	e8 6f ce ff ff       	callq  8c4c <safe_lshift_func_uint8_t_u_u>
    bddd:	0f b6 c0             	movzbl %al,%eax
    bde0:	41 39 c5             	cmp    %eax,%r13d
    bde3:	0f 96 c0             	setbe  %al
    bde6:	0f b6 c0             	movzbl %al,%eax
    bde9:	89 c6                	mov    %eax,%esi
    bdeb:	bf 03 00 00 00       	mov    $0x3,%edi
    bdf0:	e8 2a cf ff ff       	callq  8d1f <safe_sub_func_uint16_t_u_u>
    bdf5:	0f b7 c0             	movzwl %ax,%eax
    bdf8:	44 89 f6             	mov    %r14d,%esi
    bdfb:	89 c7                	mov    %eax,%edi
    bdfd:	e8 23 d1 ff ff       	callq  8f25 <safe_div_func_uint32_t_u_u>
    be02:	89 c2                	mov    %eax,%edx
    be04:	48 8b 85 10 ec ff ff 	mov    -0x13f0(%rbp),%rax
    be0b:	89 10                	mov    %edx,(%rax)
    be0d:	8b 05 29 0f 01 00    	mov    0x10f29(%rip),%eax        # 1cd3c <g_1316>
    be13:	48 8b 15 26 06 01 00 	mov    0x10626(%rip),%rdx        # 1c440 <g_1317>
    be1a:	48 8b 85 30 ed ff ff 	mov    -0x12d0(%rbp),%rax
    be21:	48 89 10             	mov    %rdx,(%rax)
    be24:	48 8b 85 30 ed ff ff 	mov    -0x12d0(%rbp),%rax
    be2b:	48 8b 00             	mov    (%rax),%rax
    be2e:	48 89 05 13 06 01 00 	mov    %rax,0x10613(%rip)        # 1c448 <g_1322>
    be35:	48 8b 05 0c 06 01 00 	mov    0x1060c(%rip),%rax        # 1c448 <g_1322>
    be3c:	48 8d 15 95 01 01 00 	lea    0x10195(%rip),%rdx        # 1bfd8 <g_768+0x18>
    be43:	48 39 d0             	cmp    %rdx,%rax
    be46:	0f 95 c0             	setne  %al
    be49:	0f b6 d8             	movzbl %al,%ebx
    be4c:	8b 05 06 d9 00 00    	mov    0xd906(%rip),%eax        # 19758 <g_1315>
    be52:	89 c2                	mov    %eax,%edx
    be54:	0f b7 85 34 eb ff ff 	movzwl -0x14cc(%rbp),%eax
    be5b:	48 89 d6             	mov    %rdx,%rsi
    be5e:	48 89 c7             	mov    %rax,%rdi
    be61:	e8 4e cb ff ff       	callq  89b4 <safe_mod_func_int64_t_s_s>
    be66:	0f be c0             	movsbl %al,%eax
    be69:	be 02 00 00 00       	mov    $0x2,%esi
    be6e:	89 c7                	mov    %eax,%edi
    be70:	e8 2c c4 ff ff       	callq  82a1 <safe_lshift_func_int8_t_s_s>
    be75:	0f be c0             	movsbl %al,%eax
    be78:	be 02 00 00 00       	mov    $0x2,%esi
    be7d:	89 c7                	mov    %eax,%edi
    be7f:	e8 1d c4 ff ff       	callq  82a1 <safe_lshift_func_int8_t_s_s>
    be84:	84 c0                	test   %al,%al
    be86:	75 0d                	jne    be95 <func_14+0x1e45>
    be88:	48 8b 85 10 ec ff ff 	mov    -0x13f0(%rbp),%rax
    be8f:	8b 00                	mov    (%rax),%eax
    be91:	85 c0                	test   %eax,%eax
    be93:	74 07                	je     be9c <func_14+0x1e4c>
    be95:	b8 01 00 00 00       	mov    $0x1,%eax
    be9a:	eb 05                	jmp    bea1 <func_14+0x1e51>
    be9c:	b8 00 00 00 00       	mov    $0x0,%eax
    bea1:	0f be c0             	movsbl %al,%eax
    bea4:	89 de                	mov    %ebx,%esi
    bea6:	89 c7                	mov    %eax,%edi
    bea8:	e8 65 c3 ff ff       	callq  8212 <safe_mul_func_int8_t_s_s>
    bead:	84 c0                	test   %al,%al
    beaf:	74 16                	je     bec7 <func_14+0x1e77>
    beb1:	48 8b 85 28 ec ff ff 	mov    -0x13d8(%rbp),%rax
    beb8:	8b 00                	mov    (%rax),%eax
    beba:	85 c0                	test   %eax,%eax
    bebc:	0f 84 10 04 00 00    	je     c2d2 <func_14+0x2282>
    bec2:	e9 18 0b 00 00       	jmpq   c9df <func_14+0x298f>
    bec7:	48 8d 05 9a d4 00 00 	lea    0xd49a(%rip),%rax        # 19368 <g_1067>
    bece:	48 89 85 38 ed ff ff 	mov    %rax,-0x12c8(%rbp)
    bed5:	48 8d 05 14 d2 00 00 	lea    0xd214(%rip),%rax        # 190f0 <g_425>
    bedc:	48 89 85 40 ed ff ff 	mov    %rax,-0x12c0(%rbp)
    bee3:	48 8d 05 82 d2 00 00 	lea    0xd282(%rip),%rax        # 1916c <g_846>
    beea:	48 89 85 48 ed ff ff 	mov    %rax,-0x12b8(%rbp)
    bef1:	48 8d 85 68 eb ff ff 	lea    -0x1498(%rbp),%rax
    bef8:	48 89 85 50 ed ff ff 	mov    %rax,-0x12b0(%rbp)
    beff:	48 8d 85 68 eb ff ff 	lea    -0x1498(%rbp),%rax
    bf06:	48 89 85 58 ed ff ff 	mov    %rax,-0x12a8(%rbp)
    bf0d:	48 c7 85 60 ed ff ff 	movq   $0x0,-0x12a0(%rbp)
    bf14:	00 00 00 00 
    bf18:	48 8d 05 45 d1 00 00 	lea    0xd145(%rip),%rax        # 19064 <g_100>
    bf1f:	48 89 85 68 ed ff ff 	mov    %rax,-0x1298(%rbp)
    bf26:	48 8d 05 d3 f1 00 00 	lea    0xf1d3(%rip),%rax        # 1b100 <g_38>
    bf2d:	48 89 85 c0 fb ff ff 	mov    %rax,-0x440(%rbp)
    bf34:	48 8d 85 70 f3 ff ff 	lea    -0xc90(%rbp),%rax
    bf3b:	48 83 c0 18          	add    $0x18,%rax
    bf3f:	48 89 85 c8 fb ff ff 	mov    %rax,-0x438(%rbp)
    bf46:	48 8d 05 b3 f1 00 00 	lea    0xf1b3(%rip),%rax        # 1b100 <g_38>
    bf4d:	48 89 85 d0 fb ff ff 	mov    %rax,-0x430(%rbp)
    bf54:	48 8d 05 a5 f1 00 00 	lea    0xf1a5(%rip),%rax        # 1b100 <g_38>
    bf5b:	48 89 85 d8 fb ff ff 	mov    %rax,-0x428(%rbp)
    bf62:	48 8d 85 70 f3 ff ff 	lea    -0xc90(%rbp),%rax
    bf69:	48 83 c0 18          	add    $0x18,%rax
    bf6d:	48 89 85 e0 fb ff ff 	mov    %rax,-0x420(%rbp)
    bf74:	48 8d 05 85 f1 00 00 	lea    0xf185(%rip),%rax        # 1b100 <g_38>
    bf7b:	48 89 85 e8 fb ff ff 	mov    %rax,-0x418(%rbp)
    bf82:	48 8d 05 27 d1 00 00 	lea    0xd127(%rip),%rax        # 190b0 <g_182>
    bf89:	48 89 85 38 ec ff ff 	mov    %rax,-0x13c8(%rbp)
    bf90:	48 8d 85 38 ec ff ff 	lea    -0x13c8(%rbp),%rax
    bf97:	48 89 85 40 ec ff ff 	mov    %rax,-0x13c0(%rbp)
    bf9e:	48 8d 85 40 ec ff ff 	lea    -0x13c0(%rbp),%rax
    bfa5:	48 89 85 48 ec ff ff 	mov    %rax,-0x13b8(%rbp)
    bfac:	48 8d 85 48 ec ff ff 	lea    -0x13b8(%rbp),%rax
    bfb3:	48 89 85 50 ec ff ff 	mov    %rax,-0x13b0(%rbp)
    bfba:	48 8d 85 50 ec ff ff 	lea    -0x13b0(%rbp),%rax
    bfc1:	48 89 85 70 ed ff ff 	mov    %rax,-0x1290(%rbp)
    bfc8:	c7 85 88 eb ff ff 00 	movl   $0x0,-0x1478(%rbp)
    bfcf:	00 00 00 
    bfd2:	eb 1b                	jmp    bfef <func_14+0x1f9f>
    bfd4:	8b 85 88 eb ff ff    	mov    -0x1478(%rbp),%eax
    bfda:	48 98                	cltq   
    bfdc:	48 c7 84 c5 70 f3 ff 	movq   $0x0,-0xc90(%rbp,%rax,8)
    bfe3:	ff 00 00 00 00 
    bfe8:	83 85 88 eb ff ff 01 	addl   $0x1,-0x1478(%rbp)
    bfef:	83 bd 88 eb ff ff 03 	cmpl   $0x3,-0x1478(%rbp)
    bff6:	7e dc                	jle    bfd4 <func_14+0x1f84>
    bff8:	48 83 ad 60 ed ff ff 	subq   $0x1,-0x12a0(%rbp)
    bfff:	01 
    c000:	48 8b 05 a1 04 01 00 	mov    0x104a1(%rip),%rax        # 1c4a8 <g_1350>
    c007:	48 8d 95 20 ef ff ff 	lea    -0x10e0(%rbp),%rdx
    c00e:	48 83 c2 30          	add    $0x30,%rdx
    c012:	48 89 10             	mov    %rdx,(%rax)
    c015:	8b 05 4d d7 00 00    	mov    0xd74d(%rip),%eax        # 19768 <g_1354>
    c01b:	8b 85 bc eb ff ff    	mov    -0x1444(%rbp),%eax
    c021:	0f b6 d8             	movzbl %al,%ebx
    c024:	0f b7 85 34 eb ff ff 	movzwl -0x14cc(%rbp),%eax
    c02b:	44 0f bf e0          	movswl %ax,%r12d
    c02f:	48 8b 85 38 eb ff ff 	mov    -0x14c8(%rbp),%rax
    c036:	0f b6 00             	movzbl (%rax),%eax
    c039:	44 0f be e8          	movsbl %al,%r13d
    c03d:	48 8b 85 28 ec ff ff 	mov    -0x13d8(%rbp),%rax
    c044:	8b 00                	mov    (%rax),%eax
    c046:	41 89 c6             	mov    %eax,%r14d
    c049:	48 8b 05 d8 03 01 00 	mov    0x103d8(%rip),%rax        # 1c428 <g_1213>
    c050:	48 8b 95 48 eb ff ff 	mov    -0x14b8(%rbp),%rdx
    c057:	66 89 10             	mov    %dx,(%rax)
    c05a:	0f b7 00             	movzwl (%rax),%eax
    c05d:	66 85 c0             	test   %ax,%ax
    c060:	74 4d                	je     c0af <func_14+0x205f>
    c062:	48 8b 85 48 eb ff ff 	mov    -0x14b8(%rbp),%rax
    c069:	48 89 c6             	mov    %rax,%rsi
    c06c:	bf 01 00 00 00       	mov    $0x1,%edi
    c071:	e8 3e c9 ff ff       	callq  89b4 <safe_mod_func_int64_t_s_s>
    c076:	48 8b 95 d0 ec ff ff 	mov    -0x1330(%rbp),%rdx
    c07d:	0f b7 12             	movzwl (%rdx),%edx
    c080:	21 c2                	and    %eax,%edx
    c082:	48 8b 85 d0 ec ff ff 	mov    -0x1330(%rbp),%rax
    c089:	66 89 10             	mov    %dx,(%rax)
    c08c:	48 8b 85 d0 ec ff ff 	mov    -0x1330(%rbp),%rax
    c093:	0f b7 00             	movzwl (%rax),%eax
    c096:	98                   	cwtl   
    c097:	be 0f 00 00 00       	mov    $0xf,%esi
    c09c:	89 c7                	mov    %eax,%edi
    c09e:	e8 ef c3 ff ff       	callq  8492 <safe_lshift_func_int16_t_s_s>
    c0a3:	66 85 c0             	test   %ax,%ax
    c0a6:	74 07                	je     c0af <func_14+0x205f>
    c0a8:	ba 01 00 00 00       	mov    $0x1,%edx
    c0ad:	eb 05                	jmp    c0b4 <func_14+0x2064>
    c0af:	ba 00 00 00 00       	mov    $0x0,%edx
    c0b4:	8b 85 04 ee ff ff    	mov    -0x11fc(%rbp),%eax
    c0ba:	39 c2                	cmp    %eax,%edx
    c0bc:	0f 95 c2             	setne  %dl
    c0bf:	48 8b 05 32 f8 00 00 	mov    0xf832(%rip),%rax        # 1b8f8 <g_482>
    c0c6:	48 8b 00             	mov    (%rax),%rax
    c0c9:	0f b6 d2             	movzbl %dl,%edx
    c0cc:	48 89 10             	mov    %rdx,(%rax)
    c0cf:	48 8b 00             	mov    (%rax),%rax
    c0d2:	48 ba 2a e3 bd 5a 0b 	movabs $0x1058140b5abde32a,%rdx
    c0d9:	14 58 10 
    c0dc:	48 39 d0             	cmp    %rdx,%rax
    c0df:	0f 95 c0             	setne  %al
    c0e2:	0f b6 c0             	movzbl %al,%eax
    c0e5:	44 89 f6             	mov    %r14d,%esi
    c0e8:	89 c7                	mov    %eax,%edi
    c0ea:	e8 36 ce ff ff       	callq  8f25 <safe_div_func_uint32_t_u_u>
    c0ef:	48 8b 95 50 ed ff ff 	mov    -0x12b0(%rbp),%rdx
    c0f6:	8b 12                	mov    (%rdx),%edx
    c0f8:	21 d0                	and    %edx,%eax
    c0fa:	83 f8 05             	cmp    $0x5,%eax
    c0fd:	0f 95 c0             	setne  %al
    c100:	0f b6 d0             	movzbl %al,%edx
    c103:	48 8b 85 68 ed ff ff 	mov    -0x1298(%rbp),%rax
    c10a:	89 10                	mov    %edx,(%rax)
    c10c:	48 8b 85 10 ec ff ff 	mov    -0x13f0(%rbp),%rax
    c113:	8b 10                	mov    (%rax),%edx
    c115:	48 83 bd 28 ed ff ff 	cmpq   $0x0,-0x12d8(%rbp)
    c11c:	00 
    c11d:	0f 95 c0             	setne  %al
    c120:	0f b6 c0             	movzbl %al,%eax
    c123:	39 c2                	cmp    %eax,%edx
    c125:	0f 95 c0             	setne  %al
    c128:	0f b6 c0             	movzbl %al,%eax
    c12b:	44 89 ee             	mov    %r13d,%esi
    c12e:	89 c7                	mov    %eax,%edi
    c130:	e8 35 c1 ff ff       	callq  826a <safe_div_func_int8_t_s_s>
    c135:	48 8b 05 fc f8 00 00 	mov    0xf8fc(%rip),%rax        # 1ba38 <g_503>
    c13c:	48 8b 00             	mov    (%rax),%rax
    c13f:	48 8b 00             	mov    (%rax),%rax
    c142:	48 83 f8 01          	cmp    $0x1,%rax
    c146:	0f 96 c0             	setbe  %al
    c149:	0f b6 c0             	movzbl %al,%eax
    c14c:	44 89 e6             	mov    %r12d,%esi
    c14f:	89 c7                	mov    %eax,%edi
    c151:	e8 9f c2 ff ff       	callq  83f5 <safe_mul_func_int16_t_s_s>
    c156:	98                   	cwtl   
    c157:	be 02 00 00 00       	mov    $0x2,%esi
    c15c:	89 c7                	mov    %eax,%edi
    c15e:	e8 9a cd ff ff       	callq  8efd <safe_mod_func_uint32_t_u_u>
    c163:	89 c2                	mov    %eax,%edx
    c165:	48 8b 05 34 fb 00 00 	mov    0xfb34(%rip),%rax        # 1bca0 <g_580>
    c16c:	0f b6 08             	movzbl (%rax),%ecx
    c16f:	48 8b 05 2a fb 00 00 	mov    0xfb2a(%rip),%rax        # 1bca0 <g_580>
    c176:	31 ca                	xor    %ecx,%edx
    c178:	88 10                	mov    %dl,(%rax)
    c17a:	0f b6 00             	movzbl (%rax),%eax
    c17d:	0f b6 c0             	movzbl %al,%eax
    c180:	89 de                	mov    %ebx,%esi
    c182:	89 c7                	mov    %eax,%edi
    c184:	e8 25 ca ff ff       	callq  8bae <safe_mod_func_uint8_t_u_u>
    c189:	0f b6 d0             	movzbl %al,%edx
    c18c:	0f b7 85 34 eb ff ff 	movzwl -0x14cc(%rbp),%eax
    c193:	39 c2                	cmp    %eax,%edx
    c195:	0f 9e c0             	setle  %al
    c198:	0f b6 d0             	movzbl %al,%edx
    c19b:	8b 85 c0 ef ff ff    	mov    -0x1040(%rbp),%eax
    c1a1:	09 d0                	or     %edx,%eax
    c1a3:	89 85 c0 ef ff ff    	mov    %eax,-0x1040(%rbp)
    c1a9:	48 8b 05 90 0b 01 00 	mov    0x10b90(%rip),%rax        # 1cd40 <g_1377>
    c1b0:	8b 05 a2 d5 00 00    	mov    0xd5a2(%rip),%eax        # 19758 <g_1315>
    c1b6:	0f b7 d8             	movzwl %ax,%ebx
    c1b9:	48 8b 85 48 eb ff ff 	mov    -0x14b8(%rbp),%rax
    c1c0:	41 89 c4             	mov    %eax,%r12d
    c1c3:	0f b7 85 34 eb ff ff 	movzwl -0x14cc(%rbp),%eax
    c1ca:	41 89 c5             	mov    %eax,%r13d
    c1cd:	48 8b 05 9c d5 00 00 	mov    0xd59c(%rip),%rax        # 19770 <g_1389>
    c1d4:	48 8b 05 b5 05 01 00 	mov    0x105b5(%rip),%rax        # 1c790 <g_1386>
    c1db:	48 89 05 ae 05 01 00 	mov    %rax,0x105ae(%rip)        # 1c790 <g_1386>
    c1e2:	48 8b 05 a7 05 01 00 	mov    0x105a7(%rip),%rax        # 1c790 <g_1386>
    c1e9:	48 39 85 70 ed ff ff 	cmp    %rax,-0x1290(%rbp)
    c1f0:	0f 95 c0             	setne  %al
    c1f3:	0f b6 c0             	movzbl %al,%eax
    c1f6:	48 89 c7             	mov    %rax,%rdi
    c1f9:	e8 1b ce ff ff       	callq  9019 <safe_unary_minus_func_uint64_t_u>
    c1fe:	0f be c0             	movsbl %al,%eax
    c201:	be 07 00 00 00       	mov    $0x7,%esi
    c206:	89 c7                	mov    %eax,%edi
    c208:	e8 28 c1 ff ff       	callq  8335 <safe_rshift_func_int8_t_s_s>
    c20d:	48 8b 05 dc f6 00 00 	mov    0xf6dc(%rip),%rax        # 1b8f0 <g_483>
    c214:	48 c7 00 01 00 00 00 	movq   $0x1,(%rax)
    c21b:	48 8b 00             	mov    (%rax),%rax
    c21e:	44 09 e8             	or     %r13d,%eax
    c221:	0f b6 c0             	movzbl %al,%eax
    c224:	44 89 e6             	mov    %r12d,%esi
    c227:	89 c7                	mov    %eax,%edi
    c229:	e8 1e ca ff ff       	callq  8c4c <safe_lshift_func_uint8_t_u_u>
    c22e:	0f b6 c0             	movzbl %al,%eax
    c231:	89 de                	mov    %ebx,%esi
    c233:	89 c7                	mov    %eax,%edi
    c235:	e8 03 cb ff ff       	callq  8d3d <safe_mul_func_uint16_t_u_u>
    c23a:	66 3d 3d 93          	cmp    $0x933d,%ax
    c23e:	76 0a                	jbe    c24a <func_14+0x21fa>
    c240:	66 83 bd 34 eb ff ff 	cmpw   $0x0,-0x14cc(%rbp)
    c247:	00 
    c248:	74 07                	je     c251 <func_14+0x2201>
    c24a:	ba 01 00 00 00       	mov    $0x1,%edx
    c24f:	eb 05                	jmp    c256 <func_14+0x2206>
    c251:	ba 00 00 00 00       	mov    $0x0,%edx
    c256:	48 8b 85 10 ec ff ff 	mov    -0x13f0(%rbp),%rax
    c25d:	8b 00                	mov    (%rax),%eax
    c25f:	09 d0                	or     %edx,%eax
    c261:	48 98                	cltq   
    c263:	48 c7 c6 ff ff ff ff 	mov    $0xffffffffffffffff,%rsi
    c26a:	48 89 c7             	mov    %rax,%rdi
    c26d:	e8 d9 cd ff ff       	callq  904b <safe_sub_func_uint64_t_u_u>
    c272:	0f be d0             	movsbl %al,%edx
    c275:	48 8d 85 04 ee ff ff 	lea    -0x11fc(%rbp),%rax
    c27c:	48 83 c0 04          	add    $0x4,%rax
    c280:	48 89 85 a8 f1 ff ff 	mov    %rax,-0xe58(%rbp)
    c287:	48 8b 8d a8 f1 ff ff 	mov    -0xe58(%rbp),%rcx
    c28e:	48 8d 85 60 eb ff ff 	lea    -0x14a0(%rbp),%rax
    c295:	48 39 c1             	cmp    %rax,%rcx
    c298:	0f 95 c0             	setne  %al
    c29b:	0f b6 c0             	movzbl %al,%eax
    c29e:	89 d6                	mov    %edx,%esi
    c2a0:	89 c7                	mov    %eax,%edi
    c2a2:	e8 8a bf ff ff       	callq  8231 <safe_mod_func_int8_t_s_s>
    c2a7:	0f be d0             	movsbl %al,%edx
    c2aa:	48 8b 85 28 ec ff ff 	mov    -0x13d8(%rbp),%rax
    c2b1:	8b 00                	mov    (%rax),%eax
    c2b3:	09 d0                	or     %edx,%eax
    c2b5:	83 f8 08             	cmp    $0x8,%eax
    c2b8:	0f 97 c0             	seta   %al
    c2bb:	0f b6 d0             	movzbl %al,%edx
    c2be:	48 8b 85 38 ed ff ff 	mov    -0x12c8(%rbp),%rax
    c2c5:	8b 00                	mov    (%rax),%eax
    c2c7:	09 c2                	or     %eax,%edx
    c2c9:	48 8b 85 38 ed ff ff 	mov    -0x12c8(%rbp),%rax
    c2d0:	89 10                	mov    %edx,(%rax)
    c2d2:	48 c7 05 eb cd 00 00 	movq   $0x0,0xcdeb(%rip)        # 190c8 <g_254>
    c2d9:	00 00 00 00 
    c2dd:	e9 9d 00 00 00       	jmpq   c37f <func_14+0x232f>
    c2e2:	66 c7 85 58 eb ff ff 	movw   $0x0,-0x14a8(%rbp)
    c2e9:	00 00 
    c2eb:	c7 05 63 cf 00 00 01 	movl   $0x1,0xcf63(%rip)        # 19258 <g_995>
    c2f2:	00 00 00 
    c2f5:	eb 68                	jmp    c35f <func_14+0x230f>
    c2f7:	66 83 bd 34 eb ff ff 	cmpw   $0x0,-0x14cc(%rbp)
    c2fe:	00 
    c2ff:	75 6b                	jne    c36c <func_14+0x231c>
    c301:	66 81 bd 58 eb ff ff 	cmpw   $0xfa,-0x14a8(%rbp)
    c308:	fa 00 
    c30a:	0f 95 c0             	setne  %al
    c30d:	0f b6 c0             	movzbl %al,%eax
    c310:	48 39 85 48 eb ff ff 	cmp    %rax,-0x14b8(%rbp)
    c317:	0f 9f c0             	setg   %al
    c31a:	0f b6 d8             	movzbl %al,%ebx
    c31d:	48 8b 85 48 eb ff ff 	mov    -0x14b8(%rbp),%rax
    c324:	0f bf d0             	movswl %ax,%edx
    c327:	48 8b 85 10 ec ff ff 	mov    -0x13f0(%rbp),%rax
    c32e:	8b 00                	mov    (%rax),%eax
    c330:	98                   	cwtl   
    c331:	89 d6                	mov    %edx,%esi
    c333:	89 c7                	mov    %eax,%edi
    c335:	e8 1b c1 ff ff       	callq  8455 <safe_div_func_int16_t_s_s>
    c33a:	98                   	cwtl   
    c33b:	39 c3                	cmp    %eax,%ebx
    c33d:	0f 9d c0             	setge  %al
    c340:	0f b6 c8             	movzbl %al,%ecx
    c343:	48 8b 05 4e 04 01 00 	mov    0x1044e(%rip),%rax        # 1c798 <g_1399>
    c34a:	8b 10                	mov    (%rax),%edx
    c34c:	31 ca                	xor    %ecx,%edx
    c34e:	89 10                	mov    %edx,(%rax)
    c350:	8b 05 02 cf 00 00    	mov    0xcf02(%rip),%eax        # 19258 <g_995>
    c356:	83 c0 01             	add    $0x1,%eax
    c359:	89 05 f9 ce 00 00    	mov    %eax,0xcef9(%rip)        # 19258 <g_995>
    c35f:	8b 05 f3 ce 00 00    	mov    0xcef3(%rip),%eax        # 19258 <g_995>
    c365:	83 f8 09             	cmp    $0x9,%eax
    c368:	76 8d                	jbe    c2f7 <func_14+0x22a7>
    c36a:	eb 01                	jmp    c36d <func_14+0x231d>
    c36c:	90                   	nop
    c36d:	48 8b 05 54 cd 00 00 	mov    0xcd54(%rip),%rax        # 190c8 <g_254>
    c374:	48 83 c0 01          	add    $0x1,%rax
    c378:	48 89 05 49 cd 00 00 	mov    %rax,0xcd49(%rip)        # 190c8 <g_254>
    c37f:	48 8b 05 42 cd 00 00 	mov    0xcd42(%rip),%rax        # 190c8 <g_254>
    c386:	48 83 f8 09          	cmp    $0x9,%rax
    c38a:	0f 8e 52 ff ff ff    	jle    c2e2 <func_14+0x2292>
    c390:	48 8b 85 10 ec ff ff 	mov    -0x13f0(%rbp),%rax
    c397:	c7 00 03 00 00 00    	movl   $0x3,(%rax)
    c39d:	e9 1e 06 00 00       	jmpq   c9c0 <func_14+0x2970>
    c3a2:	48 b8 60 5a e5 43 be 	movabs $0x33e4dbe43e55a60,%rax
    c3a9:	4d 3e 03 
    c3ac:	48 89 85 e0 ec ff ff 	mov    %rax,-0x1320(%rbp)
    c3b3:	48 c7 85 e8 ec ff ff 	movq   $0x0,-0x1318(%rbp)
    c3ba:	00 00 00 00 
    c3be:	48 8d 85 70 ef ff ff 	lea    -0x1090(%rbp),%rax
    c3c5:	48 83 c0 24          	add    $0x24,%rax
    c3c9:	48 89 85 f0 ec ff ff 	mov    %rax,-0x1310(%rbp)
    c3d0:	48 c7 85 f8 ec ff ff 	movq   $0x0,-0x1308(%rbp)
    c3d7:	00 00 00 00 
    c3db:	48 c7 85 00 ed ff ff 	movq   $0x0,-0x1300(%rbp)
    c3e2:	00 00 00 00 
    c3e6:	48 8d 05 6b cd 00 00 	lea    0xcd6b(%rip),%rax        # 19158 <g_840>
    c3ed:	48 89 85 08 ed ff ff 	mov    %rax,-0x12f8(%rbp)
    c3f4:	48 8d 05 61 cd 00 00 	lea    0xcd61(%rip),%rax        # 1915c <g_841>
    c3fb:	48 89 85 c0 fb ff ff 	mov    %rax,-0x440(%rbp)
    c402:	48 8d 85 64 eb ff ff 	lea    -0x149c(%rbp),%rax
    c409:	48 89 85 c8 fb ff ff 	mov    %rax,-0x438(%rbp)
    c410:	48 8d 05 4d cd 00 00 	lea    0xcd4d(%rip),%rax        # 19164 <g_843>
    c417:	48 89 85 d0 fb ff ff 	mov    %rax,-0x430(%rbp)
    c41e:	48 8d 85 10 ee ff ff 	lea    -0x11f0(%rbp),%rax
    c425:	48 83 c0 04          	add    $0x4,%rax
    c429:	48 89 85 d8 fb ff ff 	mov    %rax,-0x428(%rbp)
    c430:	48 8d 85 64 eb ff ff 	lea    -0x149c(%rbp),%rax
    c437:	48 89 85 e0 fb ff ff 	mov    %rax,-0x420(%rbp)
    c43e:	48 8d 85 64 eb ff ff 	lea    -0x149c(%rbp),%rax
    c445:	48 89 85 e8 fb ff ff 	mov    %rax,-0x418(%rbp)
    c44c:	48 8d 05 d1 cb 00 00 	lea    0xcbd1(%rip),%rax        # 19024 <g_2>
    c453:	48 89 85 f0 fb ff ff 	mov    %rax,-0x410(%rbp)
    c45a:	48 8d 85 70 ef ff ff 	lea    -0x1090(%rbp),%rax
    c461:	48 83 c0 5c          	add    $0x5c,%rax
    c465:	48 89 85 f8 fb ff ff 	mov    %rax,-0x408(%rbp)
    c46c:	48 8d 05 d1 cb 00 00 	lea    0xcbd1(%rip),%rax        # 19044 <g_42+0x4>
    c473:	48 89 85 00 fc ff ff 	mov    %rax,-0x400(%rbp)
    c47a:	48 8d 85 70 f5 ff ff 	lea    -0xa90(%rbp),%rax
    c481:	48 83 c0 04          	add    $0x4,%rax
    c485:	48 89 85 08 fc ff ff 	mov    %rax,-0x3f8(%rbp)
    c48c:	48 8d 05 d1 cc 00 00 	lea    0xccd1(%rip),%rax        # 19164 <g_843>
    c493:	48 89 85 10 fc ff ff 	mov    %rax,-0x3f0(%rbp)
    c49a:	48 c7 85 18 fc ff ff 	movq   $0x0,-0x3e8(%rbp)
    c4a1:	00 00 00 00 
    c4a5:	48 8d 85 10 ee ff ff 	lea    -0x11f0(%rbp),%rax
    c4ac:	48 83 c0 04          	add    $0x4,%rax
    c4b0:	48 89 85 20 fc ff ff 	mov    %rax,-0x3e0(%rbp)
    c4b7:	48 8d 05 82 cb 00 00 	lea    0xcb82(%rip),%rax        # 19040 <g_42>
    c4be:	48 89 85 28 fc ff ff 	mov    %rax,-0x3d8(%rbp)
    c4c5:	48 8d 05 78 cb 00 00 	lea    0xcb78(%rip),%rax        # 19044 <g_42+0x4>
    c4cc:	48 89 85 30 fc ff ff 	mov    %rax,-0x3d0(%rbp)
    c4d3:	48 8d 85 70 f5 ff ff 	lea    -0xa90(%rbp),%rax
    c4da:	48 89 85 38 fc ff ff 	mov    %rax,-0x3c8(%rbp)
    c4e1:	48 8d 85 64 eb ff ff 	lea    -0x149c(%rbp),%rax
    c4e8:	48 89 85 40 fc ff ff 	mov    %rax,-0x3c0(%rbp)
    c4ef:	48 8d 85 64 eb ff ff 	lea    -0x149c(%rbp),%rax
    c4f6:	48 89 85 48 fc ff ff 	mov    %rax,-0x3b8(%rbp)
    c4fd:	48 8d 05 48 cb 00 00 	lea    0xcb48(%rip),%rax        # 1904c <g_42+0xc>
    c504:	48 89 85 50 fc ff ff 	mov    %rax,-0x3b0(%rbp)
    c50b:	48 c7 85 58 fc ff ff 	movq   $0x0,-0x3a8(%rbp)
    c512:	00 00 00 00 
    c516:	48 c7 85 60 fc ff ff 	movq   $0x0,-0x3a0(%rbp)
    c51d:	00 00 00 00 
    c521:	48 8d 05 24 cb 00 00 	lea    0xcb24(%rip),%rax        # 1904c <g_42+0xc>
    c528:	48 89 85 68 fc ff ff 	mov    %rax,-0x398(%rbp)
    c52f:	48 8d 85 64 eb ff ff 	lea    -0x149c(%rbp),%rax
    c536:	48 89 85 70 fc ff ff 	mov    %rax,-0x390(%rbp)
    c53d:	48 8d 85 64 eb ff ff 	lea    -0x149c(%rbp),%rax
    c544:	48 89 85 78 fc ff ff 	mov    %rax,-0x388(%rbp)
    c54b:	48 8d 85 70 f5 ff ff 	lea    -0xa90(%rbp),%rax
    c552:	48 89 85 80 fc ff ff 	mov    %rax,-0x380(%rbp)
    c559:	48 8d 05 e4 ca 00 00 	lea    0xcae4(%rip),%rax        # 19044 <g_42+0x4>
    c560:	48 89 85 88 fc ff ff 	mov    %rax,-0x378(%rbp)
    c567:	48 8d 05 d2 ca 00 00 	lea    0xcad2(%rip),%rax        # 19040 <g_42>
    c56e:	48 89 85 90 fc ff ff 	mov    %rax,-0x370(%rbp)
    c575:	48 8d 85 10 ee ff ff 	lea    -0x11f0(%rbp),%rax
    c57c:	48 83 c0 04          	add    $0x4,%rax
    c580:	48 89 85 98 fc ff ff 	mov    %rax,-0x368(%rbp)
    c587:	48 c7 85 a0 fc ff ff 	movq   $0x0,-0x360(%rbp)
    c58e:	00 00 00 00 
    c592:	48 8d 05 cb cb 00 00 	lea    0xcbcb(%rip),%rax        # 19164 <g_843>
    c599:	48 89 85 a8 fc ff ff 	mov    %rax,-0x358(%rbp)
    c5a0:	48 8d 85 70 f5 ff ff 	lea    -0xa90(%rbp),%rax
    c5a7:	48 83 c0 04          	add    $0x4,%rax
    c5ab:	48 89 85 b0 fc ff ff 	mov    %rax,-0x350(%rbp)
    c5b2:	48 8d 05 8b ca 00 00 	lea    0xca8b(%rip),%rax        # 19044 <g_42+0x4>
    c5b9:	48 89 85 b8 fc ff ff 	mov    %rax,-0x348(%rbp)
    c5c0:	48 8d 85 70 ef ff ff 	lea    -0x1090(%rbp),%rax
    c5c7:	48 83 c0 5c          	add    $0x5c,%rax
    c5cb:	48 89 85 c0 fc ff ff 	mov    %rax,-0x340(%rbp)
    c5d2:	48 8d 05 4b ca 00 00 	lea    0xca4b(%rip),%rax        # 19024 <g_2>
    c5d9:	48 89 85 c8 fc ff ff 	mov    %rax,-0x338(%rbp)
    c5e0:	48 8d 85 64 eb ff ff 	lea    -0x149c(%rbp),%rax
    c5e7:	48 89 85 d0 fc ff ff 	mov    %rax,-0x330(%rbp)
    c5ee:	48 8d 85 64 eb ff ff 	lea    -0x149c(%rbp),%rax
    c5f5:	48 89 85 d8 fc ff ff 	mov    %rax,-0x328(%rbp)
    c5fc:	48 8d 85 10 ee ff ff 	lea    -0x11f0(%rbp),%rax
    c603:	48 83 c0 04          	add    $0x4,%rax
    c607:	48 89 85 e0 fc ff ff 	mov    %rax,-0x320(%rbp)
    c60e:	48 8d 05 4f cb 00 00 	lea    0xcb4f(%rip),%rax        # 19164 <g_843>
    c615:	48 89 85 e8 fc ff ff 	mov    %rax,-0x318(%rbp)
    c61c:	48 8d 85 64 eb ff ff 	lea    -0x149c(%rbp),%rax
    c623:	48 89 85 f0 fc ff ff 	mov    %rax,-0x310(%rbp)
    c62a:	48 8d 05 2b cb 00 00 	lea    0xcb2b(%rip),%rax        # 1915c <g_841>
    c631:	48 89 85 f8 fc ff ff 	mov    %rax,-0x308(%rbp)
    c638:	48 c7 85 00 fd ff ff 	movq   $0x0,-0x300(%rbp)
    c63f:	00 00 00 00 
    c643:	48 8d 05 fa c9 00 00 	lea    0xc9fa(%rip),%rax        # 19044 <g_42+0x4>
    c64a:	48 89 85 08 fd ff ff 	mov    %rax,-0x2f8(%rbp)
    c651:	48 8d 05 e8 c9 00 00 	lea    0xc9e8(%rip),%rax        # 19040 <g_42>
    c658:	48 89 85 10 fd ff ff 	mov    %rax,-0x2f0(%rbp)
    c65f:	48 8d 85 64 eb ff ff 	lea    -0x149c(%rbp),%rax
    c666:	48 89 85 18 fd ff ff 	mov    %rax,-0x2e8(%rbp)
    c66d:	48 8d 85 70 ef ff ff 	lea    -0x1090(%rbp),%rax
    c674:	48 83 c0 5c          	add    $0x5c,%rax
    c678:	48 89 85 20 fd ff ff 	mov    %rax,-0x2e0(%rbp)
    c67f:	48 8d 05 c6 c9 00 00 	lea    0xc9c6(%rip),%rax        # 1904c <g_42+0xc>
    c686:	48 89 85 28 fd ff ff 	mov    %rax,-0x2d8(%rbp)
    c68d:	48 8d 85 70 ef ff ff 	lea    -0x1090(%rbp),%rax
    c694:	48 83 c0 5c          	add    $0x5c,%rax
    c698:	48 89 85 30 fd ff ff 	mov    %rax,-0x2d0(%rbp)
    c69f:	48 8d 85 64 eb ff ff 	lea    -0x149c(%rbp),%rax
    c6a6:	48 89 85 38 fd ff ff 	mov    %rax,-0x2c8(%rbp)
    c6ad:	48 8d 05 a8 ca 00 00 	lea    0xcaa8(%rip),%rax        # 1915c <g_841>
    c6b4:	48 89 85 40 fd ff ff 	mov    %rax,-0x2c0(%rbp)
    c6bb:	48 8d 85 64 eb ff ff 	lea    -0x149c(%rbp),%rax
    c6c2:	48 89 85 48 fd ff ff 	mov    %rax,-0x2b8(%rbp)
    c6c9:	48 8d 05 8c ca 00 00 	lea    0xca8c(%rip),%rax        # 1915c <g_841>
    c6d0:	48 89 85 50 fd ff ff 	mov    %rax,-0x2b0(%rbp)
    c6d7:	48 8d 85 70 f5 ff ff 	lea    -0xa90(%rbp),%rax
    c6de:	48 89 85 58 fd ff ff 	mov    %rax,-0x2a8(%rbp)
    c6e5:	48 8d 85 d0 ef ff ff 	lea    -0x1030(%rbp),%rax
    c6ec:	48 83 c0 5c          	add    $0x5c,%rax
    c6f0:	48 89 85 60 fd ff ff 	mov    %rax,-0x2a0(%rbp)
    c6f7:	48 8d 05 42 c9 00 00 	lea    0xc942(%rip),%rax        # 19040 <g_42>
    c6fe:	48 89 85 68 fd ff ff 	mov    %rax,-0x298(%rbp)
    c705:	48 8d 85 70 f5 ff ff 	lea    -0xa90(%rbp),%rax
    c70c:	48 83 c0 04          	add    $0x4,%rax
    c710:	48 89 85 70 fd ff ff 	mov    %rax,-0x290(%rbp)
    c717:	48 8d 85 d0 ef ff ff 	lea    -0x1030(%rbp),%rax
    c71e:	48 83 c0 5c          	add    $0x5c,%rax
    c722:	48 89 85 78 fd ff ff 	mov    %rax,-0x288(%rbp)
    c729:	c6 85 53 eb ff ff d3 	movb   $0xd3,-0x14ad(%rbp)
    c730:	c7 85 a4 eb ff ff 30 	movl   $0xe2b62a30,-0x145c(%rbp)
    c737:	2a b6 e2 
    c73a:	48 8d 05 07 cb 00 00 	lea    0xcb07(%rip),%rax        # 19248 <g_960>
    c741:	48 89 85 10 ed ff ff 	mov    %rax,-0x12f0(%rbp)
    c748:	c7 85 8c eb ff ff 00 	movl   $0x0,-0x1474(%rbp)
    c74f:	00 00 00 
    c752:	eb 1a                	jmp    c76e <func_14+0x271e>
    c754:	8b 85 8c eb ff ff    	mov    -0x1474(%rbp),%eax
    c75a:	48 98                	cltq   
    c75c:	c7 84 85 70 f5 ff ff 	movl   $0x7ac65d19,-0xa90(%rbp,%rax,4)
    c763:	19 5d c6 7a 
    c767:	83 85 8c eb ff ff 01 	addl   $0x1,-0x1474(%rbp)
    c76e:	83 bd 8c eb ff ff 01 	cmpl   $0x1,-0x1474(%rbp)
    c775:	7e dd                	jle    c754 <func_14+0x2704>
    c777:	c7 85 8c eb ff ff 00 	movl   $0x0,-0x1474(%rbp)
    c77e:	00 00 00 
    c781:	eb 1b                	jmp    c79e <func_14+0x274e>
    c783:	8b 85 8c eb ff ff    	mov    -0x1474(%rbp),%eax
    c789:	48 98                	cltq   
    c78b:	48 c7 84 c5 70 f3 ff 	movq   $0x0,-0xc90(%rbp,%rax,8)
    c792:	ff 00 00 00 00 
    c797:	83 85 8c eb ff ff 01 	addl   $0x1,-0x1474(%rbp)
    c79e:	83 bd 8c eb ff ff 00 	cmpl   $0x0,-0x1474(%rbp)
    c7a5:	7e dc                	jle    c783 <func_14+0x2733>
    c7a7:	48 8b 85 48 eb ff ff 	mov    -0x14b8(%rbp),%rax
    c7ae:	48 89 85 e0 ec ff ff 	mov    %rax,-0x1320(%rbp)
    c7b5:	83 ad a4 eb ff ff 01 	subl   $0x1,-0x145c(%rbp)
    c7bc:	66 83 bd 34 eb ff ff 	cmpw   $0x0,-0x14cc(%rbp)
    c7c3:	00 
    c7c4:	0f 85 c6 01 00 00    	jne    c990 <func_14+0x2940>
    c7ca:	48 8b 05 cf f4 00 00 	mov    0xf4cf(%rip),%rax        # 1bca0 <g_580>
    c7d1:	c6 00 01             	movb   $0x1,(%rax)
    c7d4:	be 02 00 00 00       	mov    $0x2,%esi
    c7d9:	bf 01 00 00 00       	mov    $0x1,%edi
    c7de:	e8 db c4 ff ff       	callq  8cbe <safe_rshift_func_uint8_t_u_u>
    c7e3:	8b 85 74 ef ff ff    	mov    -0x108c(%rbp),%eax
    c7e9:	89 c2                	mov    %eax,%edx
    c7eb:	48 8b 85 38 eb ff ff 	mov    -0x14c8(%rbp),%rax
    c7f2:	88 10                	mov    %dl,(%rax)
    c7f4:	48 8b 85 38 eb ff ff 	mov    -0x14c8(%rbp),%rax
    c7fb:	0f b6 00             	movzbl (%rax),%eax
    c7fe:	44 0f be f0          	movsbl %al,%r14d
    c802:	be 07 00 00 00       	mov    $0x7,%esi
    c807:	bf 07 00 00 00       	mov    $0x7,%edi
    c80c:	e8 5b bb ff ff       	callq  836c <safe_rshift_func_int8_t_s_u>
    c811:	89 c2                	mov    %eax,%edx
    c813:	48 8b 05 86 f4 00 00 	mov    0xf486(%rip),%rax        # 1bca0 <g_580>
    c81a:	88 10                	mov    %dl,(%rax)
    c81c:	0f b6 10             	movzbl (%rax),%edx
    c81f:	48 8b 85 10 ed ff ff 	mov    -0x12f0(%rbp),%rax
    c826:	88 10                	mov    %dl,(%rax)
    c828:	48 8b 85 10 ed ff ff 	mov    -0x12f0(%rbp),%rax
    c82f:	0f b6 00             	movzbl (%rax),%eax
    c832:	84 c0                	test   %al,%al
    c834:	0f 84 c1 00 00 00    	je     c8fb <func_14+0x28ab>
    c83a:	8b 85 60 eb ff ff    	mov    -0x14a0(%rbp),%eax
    c840:	48 63 d8             	movslq %eax,%rbx
    c843:	48 8b 85 70 ec ff ff 	mov    -0x1390(%rbp),%rax
    c84a:	41 89 c7             	mov    %eax,%r15d
    c84d:	44 0f b7 a5 34 eb ff 	movzwl -0x14cc(%rbp),%r12d
    c854:	ff 
    c855:	44 0f b7 ad 34 eb ff 	movzwl -0x14cc(%rbp),%r13d
    c85c:	ff 
    c85d:	48 8b 05 d4 f1 00 00 	mov    0xf1d4(%rip),%rax        # 1ba38 <g_503>
    c864:	48 8b 00             	mov    (%rax),%rax
    c867:	48 8b 00             	mov    (%rax),%rax
    c86a:	48 89 c2             	mov    %rax,%rdx
    c86d:	8b 85 60 eb ff ff    	mov    -0x14a0(%rbp),%eax
    c873:	48 98                	cltq   
    c875:	48 89 d6             	mov    %rdx,%rsi
    c878:	48 89 c7             	mov    %rax,%rdi
    c87b:	e8 77 c1 ff ff       	callq  89f7 <safe_div_func_int64_t_s_s>
    c880:	48 85 c0             	test   %rax,%rax
    c883:	0f 95 c0             	setne  %al
    c886:	0f b6 c0             	movzbl %al,%eax
    c889:	44 89 ee             	mov    %r13d,%esi
    c88c:	89 c7                	mov    %eax,%edi
    c88e:	e8 25 c6 ff ff       	callq  8eb8 <safe_add_func_uint32_t_u_u>
    c893:	89 c2                	mov    %eax,%edx
    c895:	48 8b 85 48 eb ff ff 	mov    -0x14b8(%rbp),%rax
    c89c:	09 d0                	or     %edx,%eax
    c89e:	0f b6 c0             	movzbl %al,%eax
    c8a1:	44 89 e6             	mov    %r12d,%esi
    c8a4:	89 c7                	mov    %eax,%edi
    c8a6:	e8 5a c3 ff ff       	callq  8c05 <safe_lshift_func_uint8_t_u_s>
    c8ab:	0f b6 c0             	movzbl %al,%eax
    c8ae:	44 89 fe             	mov    %r15d,%esi
    c8b1:	89 c7                	mov    %eax,%edi
    c8b3:	e8 00 c6 ff ff       	callq  8eb8 <safe_add_func_uint32_t_u_u>
    c8b8:	0f b6 c0             	movzbl %al,%eax
    c8bb:	be 01 00 00 00       	mov    $0x1,%esi
    c8c0:	89 c7                	mov    %eax,%edi
    c8c2:	e8 f7 c3 ff ff       	callq  8cbe <safe_rshift_func_uint8_t_u_u>
    c8c7:	0f b6 c0             	movzbl %al,%eax
    c8ca:	66 89 05 05 c8 00 00 	mov    %ax,0xc805(%rip)        # 190d6 <g_282>
    c8d1:	0f b7 05 fe c7 00 00 	movzwl 0xc7fe(%rip),%eax        # 190d6 <g_282>
    c8d8:	48 0f bf c0          	movswq %ax,%rax
    c8dc:	48 89 c7             	mov    %rax,%rdi
    c8df:	e8 35 c7 ff ff       	callq  9019 <safe_unary_minus_func_uint64_t_u>
    c8e4:	48 89 de             	mov    %rbx,%rsi
    c8e7:	48 89 c7             	mov    %rax,%rdi
    c8ea:	e8 b9 bf ff ff       	callq  88a8 <safe_sub_func_int64_t_s_s>
    c8ef:	48 85 c0             	test   %rax,%rax
    c8f2:	74 07                	je     c8fb <func_14+0x28ab>
    c8f4:	b8 01 00 00 00       	mov    $0x1,%eax
    c8f9:	eb 05                	jmp    c900 <func_14+0x28b0>
    c8fb:	b8 00 00 00 00       	mov    $0x0,%eax
    c900:	48 98                	cltq   
    c902:	48 39 85 48 eb ff ff 	cmp    %rax,-0x14b8(%rbp)
    c909:	7e 07                	jle    c912 <func_14+0x28c2>
    c90b:	b8 01 00 00 00       	mov    $0x1,%eax
    c910:	eb 05                	jmp    c917 <func_14+0x28c7>
    c912:	b8 00 00 00 00       	mov    $0x0,%eax
    c917:	44 39 f0             	cmp    %r14d,%eax
    c91a:	0f 94 c0             	sete   %al
    c91d:	0f b6 c0             	movzbl %al,%eax
    c920:	be fb ff 00 00       	mov    $0xfffb,%esi
    c925:	89 c7                	mov    %eax,%edi
    c927:	e8 11 c4 ff ff       	callq  8d3d <safe_mul_func_uint16_t_u_u>
    c92c:	66 85 c0             	test   %ax,%ax
    c92f:	75 0d                	jne    c93e <func_14+0x28ee>
    c931:	48 8b 05 80 f6 00 00 	mov    0xf680(%rip),%rax        # 1bfb8 <g_746>
    c938:	8b 00                	mov    (%rax),%eax
    c93a:	85 c0                	test   %eax,%eax
    c93c:	74 07                	je     c945 <func_14+0x28f5>
    c93e:	b8 01 00 00 00       	mov    $0x1,%eax
    c943:	eb 05                	jmp    c94a <func_14+0x28fa>
    c945:	b8 00 00 00 00       	mov    $0x0,%eax
    c94a:	48 98                	cltq   
    c94c:	48 0b 85 48 eb ff ff 	or     -0x14b8(%rbp),%rax
    c953:	48 89 c2             	mov    %rax,%rdx
    c956:	48 8b 85 10 ec ff ff 	mov    -0x13f0(%rbp),%rax
    c95d:	8b 00                	mov    (%rax),%eax
    c95f:	48 98                	cltq   
    c961:	48 89 d6             	mov    %rdx,%rsi
    c964:	48 89 c7             	mov    %rax,%rdi
    c967:	e8 43 c7 ff ff       	callq  90af <safe_div_func_uint64_t_u_u>
    c96c:	48 8b 95 48 eb ff ff 	mov    -0x14b8(%rbp),%rdx
    c973:	48 09 d0             	or     %rdx,%rax
    c976:	48 85 c0             	test   %rax,%rax
    c979:	74 0b                	je     c986 <func_14+0x2936>
    c97b:	48 8b 85 f0 ec ff ff 	mov    -0x1310(%rbp),%rax
    c982:	8b 00                	mov    (%rax),%eax
    c984:	85 c0                	test   %eax,%eax
    c986:	66 83 bd 34 eb ff ff 	cmpw   $0x0,-0x14cc(%rbp)
    c98d:	00 
    c98e:	74 21                	je     c9b1 <func_14+0x2961>
    c990:	48 8b 85 b8 ec ff ff 	mov    -0x1348(%rbp),%rax
    c997:	48 89 85 70 f3 ff ff 	mov    %rax,-0xc90(%rbp)
    c99e:	48 8b 05 ab fa 00 00 	mov    0xfaab(%rip),%rax        # 1c450 <g_1352>
    c9a5:	48 8b 95 70 f3 ff ff 	mov    -0xc90(%rbp),%rdx
    c9ac:	48 89 10             	mov    %rdx,(%rax)
    c9af:	eb 0f                	jmp    c9c0 <func_14+0x2970>
    c9b1:	48 8b 85 40 eb ff ff 	mov    -0x14c0(%rbp),%rax
    c9b8:	48 8b 00             	mov    (%rax),%rax
    c9bb:	e9 88 05 00 00       	jmpq   cf48 <func_14+0x2ef8>
    c9c0:	0f b7 85 34 eb ff ff 	movzwl -0x14cc(%rbp),%eax
    c9c7:	83 c0 01             	add    $0x1,%eax
    c9ca:	66 89 85 34 eb ff ff 	mov    %ax,-0x14cc(%rbp)
    c9d1:	66 83 bd 34 eb ff ff 	cmpw   $0x23,-0x14cc(%rbp)
    c9d8:	23 
    c9d9:	0f 85 42 df ff ff    	jne    a921 <func_14+0x8d1>
    c9df:	48 c7 05 ce c6 00 00 	movq   $0xfffffffffffffff0,0xc6ce(%rip)        # 190b8 <g_187>
    c9e6:	f0 ff ff ff 
    c9ea:	90                   	nop
    c9eb:	48 8b 05 c6 c6 00 00 	mov    0xc6c6(%rip),%rax        # 190b8 <g_187>
    c9f2:	48 83 f8 f9          	cmp    $0xfffffffffffffff9,%rax
    c9f6:	7c 1a                	jl     ca12 <func_14+0x29c2>
    c9f8:	48 8d 05 ab 02 01 00 	lea    0x102ab(%rip),%rax        # 1ccaa <g_138>
    c9ff:	48 89 85 f8 ed ff ff 	mov    %rax,-0x1208(%rbp)
    ca06:	48 8b 85 f8 ed ff ff 	mov    -0x1208(%rbp),%rax
    ca0d:	e9 36 05 00 00       	jmpq   cf48 <func_14+0x2ef8>
    ca12:	8b 85 5c eb ff ff    	mov    -0x14a4(%rbp),%eax
    ca18:	85 c0                	test   %eax,%eax
    ca1a:	0f 85 88 02 00 00    	jne    cca8 <func_14+0x2c58>
    ca20:	c7 05 2e c7 00 00 01 	movl   $0x1,0xc72e(%rip)        # 19158 <g_840>
    ca27:	00 00 00 
    ca2a:	e9 68 02 00 00       	jmpq   cc97 <func_14+0x2c47>
    ca2f:	48 c7 85 c8 ed ff ff 	movq   $0x0,-0x1238(%rbp)
    ca36:	00 00 00 00 
    ca3a:	48 8d 05 27 c7 00 00 	lea    0xc727(%rip),%rax        # 19168 <g_845>
    ca41:	48 89 85 c0 fb ff ff 	mov    %rax,-0x440(%rbp)
    ca48:	48 8d 05 19 c7 00 00 	lea    0xc719(%rip),%rax        # 19168 <g_845>
    ca4f:	48 89 85 c8 fb ff ff 	mov    %rax,-0x438(%rbp)
    ca56:	48 8d 85 d0 ef ff ff 	lea    -0x1030(%rbp),%rax
    ca5d:	48 05 84 00 00 00    	add    $0x84,%rax
    ca63:	48 89 85 d0 fb ff ff 	mov    %rax,-0x430(%rbp)
    ca6a:	48 8d 85 d0 ef ff ff 	lea    -0x1030(%rbp),%rax
    ca71:	48 05 a4 00 00 00    	add    $0xa4,%rax
    ca77:	48 89 85 d8 fb ff ff 	mov    %rax,-0x428(%rbp)
    ca7e:	48 c7 85 e0 fb ff ff 	movq   $0x0,-0x420(%rbp)
    ca85:	00 00 00 00 
    ca89:	48 c7 85 e8 fb ff ff 	movq   $0x0,-0x418(%rbp)
    ca90:	00 00 00 00 
    ca94:	48 c7 85 f0 fb ff ff 	movq   $0x0,-0x410(%rbp)
    ca9b:	00 00 00 00 
    ca9f:	48 8d 85 d0 ef ff ff 	lea    -0x1030(%rbp),%rax
    caa6:	48 05 84 00 00 00    	add    $0x84,%rax
    caac:	48 89 85 f8 fb ff ff 	mov    %rax,-0x408(%rbp)
    cab3:	48 c7 85 00 fc ff ff 	movq   $0x0,-0x400(%rbp)
    caba:	00 00 00 00 
    cabe:	48 8d 85 d0 ef ff ff 	lea    -0x1030(%rbp),%rax
    cac5:	48 05 84 00 00 00    	add    $0x84,%rax
    cacb:	48 89 85 08 fc ff ff 	mov    %rax,-0x3f8(%rbp)
    cad2:	48 8d 85 d0 ef ff ff 	lea    -0x1030(%rbp),%rax
    cad9:	48 05 84 00 00 00    	add    $0x84,%rax
    cadf:	48 89 85 10 fc ff ff 	mov    %rax,-0x3f0(%rbp)
    cae6:	48 c7 85 18 fc ff ff 	movq   $0x0,-0x3e8(%rbp)
    caed:	00 00 00 00 
    caf1:	48 8d 05 70 c6 00 00 	lea    0xc670(%rip),%rax        # 19168 <g_845>
    caf8:	48 89 85 20 fc ff ff 	mov    %rax,-0x3e0(%rbp)
    caff:	48 8d 85 d0 ef ff ff 	lea    -0x1030(%rbp),%rax
    cb06:	48 05 84 00 00 00    	add    $0x84,%rax
    cb0c:	48 89 85 28 fc ff ff 	mov    %rax,-0x3d8(%rbp)
    cb13:	48 8d 85 d0 ef ff ff 	lea    -0x1030(%rbp),%rax
    cb1a:	48 05 a4 00 00 00    	add    $0xa4,%rax
    cb20:	48 89 85 30 fc ff ff 	mov    %rax,-0x3d0(%rbp)
    cb27:	48 8d 85 d0 ef ff ff 	lea    -0x1030(%rbp),%rax
    cb2e:	48 05 84 00 00 00    	add    $0x84,%rax
    cb34:	48 89 85 38 fc ff ff 	mov    %rax,-0x3c8(%rbp)
    cb3b:	48 8d 85 d0 ef ff ff 	lea    -0x1030(%rbp),%rax
    cb42:	48 05 84 00 00 00    	add    $0x84,%rax
    cb48:	48 89 85 40 fc ff ff 	mov    %rax,-0x3c0(%rbp)
    cb4f:	48 c7 85 48 fc ff ff 	movq   $0x0,-0x3b8(%rbp)
    cb56:	00 00 00 00 
    cb5a:	48 8d 85 d0 ef ff ff 	lea    -0x1030(%rbp),%rax
    cb61:	48 05 a4 00 00 00    	add    $0xa4,%rax
    cb67:	48 89 85 50 fc ff ff 	mov    %rax,-0x3b0(%rbp)
    cb6e:	48 8d 85 d0 ef ff ff 	lea    -0x1030(%rbp),%rax
    cb75:	48 05 a4 00 00 00    	add    $0xa4,%rax
    cb7b:	48 89 85 58 fc ff ff 	mov    %rax,-0x3a8(%rbp)
    cb82:	48 c7 85 d0 ed ff ff 	movq   $0x0,-0x1230(%rbp)
    cb89:	00 00 00 00 
    cb8d:	48 8d 05 88 c5 00 00 	lea    0xc588(%rip),%rax        # 1911c <g_718>
    cb94:	48 89 85 d8 ed ff ff 	mov    %rax,-0x1228(%rbp)
    cb9b:	48 c7 85 e0 ed ff ff 	movq   $0x0,-0x1220(%rbp)
    cba2:	00 00 00 00 
    cba6:	83 ad 6c eb ff ff 01 	subl   $0x1,-0x1494(%rbp)
    cbad:	48 c7 85 60 ec ff ff 	movq   $0x0,-0x13a0(%rbp)
    cbb4:	00 00 00 00 
    cbb8:	e9 9e 00 00 00       	jmpq   cc5b <func_14+0x2c0b>
    cbbd:	c7 85 e8 eb ff ff 51 	movl   $0x556c4951,-0x1418(%rbp)
    cbc4:	49 6c 55 
    cbc7:	c7 85 ec eb ff ff 4c 	movl   $0x1382994c,-0x1414(%rbp)
    cbce:	99 82 13 
    cbd1:	c7 85 f0 eb ff ff 4a 	movl   $0x5caeb34a,-0x1410(%rbp)
    cbd8:	b3 ae 5c 
    cbdb:	48 c7 85 70 f5 ff ff 	movq   $0x0,-0xa90(%rbp)
    cbe2:	00 00 00 00 
    cbe6:	48 c7 85 78 f5 ff ff 	movq   $0x0,-0xa88(%rbp)
    cbed:	00 00 00 00 
    cbf1:	48 c7 85 80 f5 ff ff 	movq   $0x0,-0xa80(%rbp)
    cbf8:	00 00 00 00 
    cbfc:	48 c7 85 88 f5 ff ff 	movq   $0x0,-0xa78(%rbp)
    cc03:	00 00 00 00 
    cc07:	48 c7 85 90 f5 ff ff 	movq   $0x0,-0xa70(%rbp)
    cc0e:	00 00 00 00 
    cc12:	48 8d 05 f7 e4 00 00 	lea    0xe4f7(%rip),%rax        # 1b110 <g_95>
    cc19:	48 89 85 e8 ed ff ff 	mov    %rax,-0x1218(%rbp)
    cc20:	c7 85 f4 eb ff ff ff 	movl   $0xffffffff,-0x140c(%rbp)
    cc27:	ff ff ff 
    cc2a:	66 c7 85 5a eb ff ff 	movw   $0xffff,-0x14a6(%rbp)
    cc31:	ff ff 
    cc33:	48 8d 85 80 ee ff ff 	lea    -0x1180(%rbp),%rax
    cc3a:	48 83 c0 08          	add    $0x8,%rax
    cc3e:	48 89 85 50 ec ff ff 	mov    %rax,-0x13b0(%rbp)
    cc45:	48 8d 85 50 ec ff ff 	lea    -0x13b0(%rbp),%rax
    cc4c:	48 89 85 f0 ed ff ff 	mov    %rax,-0x1210(%rbp)
    cc53:	48 83 85 60 ec ff ff 	addq   $0x1,-0x13a0(%rbp)
    cc5a:	01 
    cc5b:	48 83 bd 60 ec ff ff 	cmpq   $0x5,-0x13a0(%rbp)
    cc62:	05 
    cc63:	0f 86 54 ff ff ff    	jbe    cbbd <func_14+0x2b6d>
    cc69:	66 83 bd 34 eb ff ff 	cmpw   $0x0,-0x14cc(%rbp)
    cc70:	00 
    cc71:	75 14                	jne    cc87 <func_14+0x2c37>
    cc73:	48 8b 85 88 ec ff ff 	mov    -0x1378(%rbp),%rax
    cc7a:	8b 10                	mov    (%rax),%edx
    cc7c:	48 8b 85 88 ec ff ff 	mov    -0x1378(%rbp),%rax
    cc83:	89 10                	mov    %edx,(%rax)
    cc85:	eb 01                	jmp    cc88 <func_14+0x2c38>
    cc87:	90                   	nop
    cc88:	8b 05 ca c4 00 00    	mov    0xc4ca(%rip),%eax        # 19158 <g_840>
    cc8e:	83 c0 01             	add    $0x1,%eax
    cc91:	89 05 c1 c4 00 00    	mov    %eax,0xc4c1(%rip)        # 19158 <g_840>
    cc97:	8b 05 bb c4 00 00    	mov    0xc4bb(%rip),%eax        # 19158 <g_840>
    cc9d:	83 f8 05             	cmp    $0x5,%eax
    cca0:	0f 8e 89 fd ff ff    	jle    ca2f <func_14+0x29df>
    cca6:	eb 01                	jmp    cca9 <func_14+0x2c59>
    cca8:	90                   	nop
    cca9:	8b 05 b5 c4 00 00    	mov    0xc4b5(%rip),%eax        # 19164 <g_843>
    ccaf:	48 98                	cltq   
    ccb1:	be 01 00 00 00       	mov    $0x1,%esi
    ccb6:	48 89 c7             	mov    %rax,%rdi
    ccb9:	e8 83 bb ff ff       	callq  8841 <safe_add_func_int64_t_s_s>
    ccbe:	89 05 a0 c4 00 00    	mov    %eax,0xc4a0(%rip)        # 19164 <g_843>
    ccc4:	8b 05 9a c4 00 00    	mov    0xc49a(%rip),%eax        # 19164 <g_843>
    ccca:	83 f8 15             	cmp    $0x15,%eax
    cccd:	0f 8f a7 d9 ff ff    	jg     a67a <func_14+0x62a>
    ccd3:	83 ad 90 eb ff ff 01 	subl   $0x1,-0x1470(%rbp)
    ccda:	48 8b 05 57 ed 00 00 	mov    0xed57(%rip),%rax        # 1ba38 <g_503>
    cce1:	48 8b 00             	mov    (%rax),%rax
    cce4:	48 8b 18             	mov    (%rax),%rbx
    cce7:	48 8b 05 0a ec 00 00 	mov    0xec0a(%rip),%rax        # 1b8f8 <g_482>
    ccee:	48 8b 00             	mov    (%rax),%rax
    ccf1:	4c 8b 20             	mov    (%rax),%r12
    ccf4:	8b 05 6e ca 00 00    	mov    0xca6e(%rip),%eax        # 19768 <g_1354>
    ccfa:	89 c0                	mov    %eax,%eax
    ccfc:	48 33 85 48 eb ff ff 	xor    -0x14b8(%rbp),%rax
    cd03:	48 85 c0             	test   %rax,%rax
    cd06:	0f 9f c0             	setg   %al
    cd09:	44 0f b6 e8          	movzbl %al,%r13d
    cd0d:	b8 01 00 00 00       	mov    $0x1,%eax
    cd12:	0f b7 d0             	movzwl %ax,%edx
    cd15:	48 8b 05 14 f7 00 00 	mov    0xf714(%rip),%rax        # 1c430 <g_1212>
    cd1c:	48 8b 00             	mov    (%rax),%rax
    cd1f:	0f b7 00             	movzwl (%rax),%eax
    cd22:	0f b7 c0             	movzwl %ax,%eax
    cd25:	89 d6                	mov    %edx,%esi
    cd27:	89 c7                	mov    %eax,%edi
    cd29:	e8 0f c0 ff ff       	callq  8d3d <safe_mul_func_uint16_t_u_u>
    cd2e:	98                   	cwtl   
    cd2f:	be 01 00 00 00       	mov    $0x1,%esi
    cd34:	89 c7                	mov    %eax,%edi
    cd36:	e8 78 b6 ff ff       	callq  83b3 <safe_add_func_int16_t_s_s>
    cd3b:	98                   	cwtl   
    cd3c:	44 21 e8             	and    %r13d,%eax
    cd3f:	48 98                	cltq   
    cd41:	49 39 c4             	cmp    %rax,%r12
    cd44:	74 07                	je     cd4d <func_14+0x2cfd>
    cd46:	b8 01 00 00 00       	mov    $0x1,%eax
    cd4b:	eb 05                	jmp    cd52 <func_14+0x2d02>
    cd4d:	b8 00 00 00 00       	mov    $0x0,%eax
    cd52:	48 39 d8             	cmp    %rbx,%rax
    cd55:	0f 95 c0             	setne  %al
    cd58:	0f b6 c0             	movzbl %al,%eax
    cd5b:	be 09 00 00 00       	mov    $0x9,%esi
    cd60:	89 c7                	mov    %eax,%edi
    cd62:	e8 e1 c0 ff ff       	callq  8e48 <safe_rshift_func_uint16_t_u_s>
    cd67:	48 8b 85 88 ec ff ff 	mov    -0x1378(%rbp),%rax
    cd6e:	8b 10                	mov    (%rax),%edx
    cd70:	48 8b 85 98 ec ff ff 	mov    -0x1368(%rbp),%rax
    cd77:	89 10                	mov    %edx,(%rax)
    cd79:	c6 85 50 eb ff ff 00 	movb   $0x0,-0x14b0(%rbp)
    cd80:	e9 ac 01 00 00       	jmpq   cf31 <func_14+0x2ee1>
    cd85:	48 c7 85 58 ec ff ff 	movq   $0x0,-0x13a8(%rbp)
    cd8c:	00 00 00 00 
    cd90:	e9 87 01 00 00       	jmpq   cf1c <func_14+0x2ecc>
    cd95:	48 c7 05 28 c3 00 00 	movq   $0x0,0xc328(%rip)        # 190c8 <g_254>
    cd9c:	00 00 00 00 
    cda0:	e9 5e 01 00 00       	jmpq   cf03 <func_14+0x2eb3>
    cda5:	48 8d 85 08 ec ff ff 	lea    -0x13f8(%rbp),%rax
    cdac:	48 89 85 a8 ec ff ff 	mov    %rax,-0x1358(%rbp)
    cdb3:	48 8d 85 00 ec ff ff 	lea    -0x1400(%rbp),%rax
    cdba:	48 89 85 b0 ec ff ff 	mov    %rax,-0x1350(%rbp)
    cdc1:	c7 85 98 eb ff ff 03 	movl   $0x3,-0x1468(%rbp)
    cdc8:	00 00 00 
    cdcb:	48 8b 85 38 eb ff ff 	mov    -0x14c8(%rbp),%rax
    cdd2:	0f b6 00             	movzbl (%rax),%eax
    cdd5:	4c 0f be e0          	movsbq %al,%r12
    cdd9:	8b 9d 94 eb ff ff    	mov    -0x146c(%rbp),%ebx
    cddf:	48 8b 85 48 eb ff ff 	mov    -0x14b8(%rbp),%rax
    cde6:	41 89 c5             	mov    %eax,%r13d
    cde9:	48 8b 05 08 ca 00 00 	mov    0xca08(%rip),%rax        # 197f8 <g_1631>
    cdf0:	48 8b 05 59 ff 00 00 	mov    0xff59(%rip),%rax        # 1cd50 <g_1634>
    cdf7:	48 8b 95 08 ec ff ff 	mov    -0x13f8(%rbp),%rdx
    cdfe:	48 8b 85 a8 ec ff ff 	mov    -0x1358(%rbp),%rax
    ce05:	48 89 10             	mov    %rdx,(%rax)
    ce08:	48 8b 85 a8 ec ff ff 	mov    -0x1358(%rbp),%rax
    ce0f:	48 8b 00             	mov    (%rax),%rax
    ce12:	48 39 85 b0 ec ff ff 	cmp    %rax,-0x1350(%rbp)
    ce19:	0f 95 c0             	setne  %al
    ce1c:	0f b6 c0             	movzbl %al,%eax
    ce1f:	be 3d 00 00 00       	mov    $0x3d,%esi
    ce24:	89 c7                	mov    %eax,%edi
    ce26:	e8 e7 b3 ff ff       	callq  8212 <safe_mul_func_int8_t_s_s>
    ce2b:	ba 01 00 00 00       	mov    $0x1,%edx
    ce30:	48 8b 05 69 ee 00 00 	mov    0xee69(%rip),%rax        # 1bca0 <g_580>
    ce37:	0f b6 00             	movzbl (%rax),%eax
    ce3a:	0f b6 c0             	movzbl %al,%eax
    ce3d:	09 d0                	or     %edx,%eax
    ce3f:	48 98                	cltq   
    ce41:	be 04 00 00 00       	mov    $0x4,%esi
    ce46:	48 89 c7             	mov    %rax,%rdi
    ce49:	e8 fd c1 ff ff       	callq  904b <safe_sub_func_uint64_t_u_u>
    ce4e:	89 c2                	mov    %eax,%edx
    ce50:	48 8b 05 49 ee 00 00 	mov    0xee49(%rip),%rax        # 1bca0 <g_580>
    ce57:	0f b6 00             	movzbl (%rax),%eax
    ce5a:	0f b6 c0             	movzbl %al,%eax
    ce5d:	21 d0                	and    %edx,%eax
    ce5f:	44 89 ee             	mov    %r13d,%esi
    ce62:	89 c7                	mov    %eax,%edi
    ce64:	e8 94 c0 ff ff       	callq  8efd <safe_mod_func_uint32_t_u_u>
    ce69:	98                   	cwtl   
    ce6a:	89 de                	mov    %ebx,%esi
    ce6c:	89 c7                	mov    %eax,%edi
    ce6e:	e8 1f b6 ff ff       	callq  8492 <safe_lshift_func_int16_t_s_s>
    ce73:	0f be c0             	movsbl %al,%eax
    ce76:	be 00 00 00 00       	mov    $0x0,%esi
    ce7b:	89 c7                	mov    %eax,%edi
    ce7d:	e8 1f b4 ff ff       	callq  82a1 <safe_lshift_func_int8_t_s_s>
    ce82:	0f be c0             	movsbl %al,%eax
    ce85:	39 85 98 eb ff ff    	cmp    %eax,-0x1468(%rbp)
    ce8b:	0f 9d c0             	setge  %al
    ce8e:	0f b6 c0             	movzbl %al,%eax
    ce91:	be 05 00 00 00       	mov    $0x5,%esi
    ce96:	89 c7                	mov    %eax,%edi
    ce98:	e8 82 be ff ff       	callq  8d1f <safe_sub_func_uint16_t_u_u>
    ce9d:	66 85 c0             	test   %ax,%ax
    cea0:	74 10                	je     ceb2 <func_14+0x2e62>
    cea2:	83 bd 98 eb ff ff 00 	cmpl   $0x0,-0x1468(%rbp)
    cea9:	74 07                	je     ceb2 <func_14+0x2e62>
    ceab:	b8 01 00 00 00       	mov    $0x1,%eax
    ceb0:	eb 05                	jmp    ceb7 <func_14+0x2e67>
    ceb2:	b8 00 00 00 00       	mov    $0x0,%eax
    ceb7:	48 98                	cltq   
    ceb9:	48 89 c6             	mov    %rax,%rsi
    cebc:	48 bf 59 aa 5b b7 57 	movabs $0xbe0aff57b75baa59,%rdi
    cec3:	ff 0a be 
    cec6:	e8 e9 ba ff ff       	callq  89b4 <safe_mod_func_int64_t_s_s>
    cecb:	49 39 c4             	cmp    %rax,%r12
    cece:	0f 9c c0             	setl   %al
    ced1:	0f b6 d0             	movzbl %al,%edx
    ced4:	48 8b 85 48 eb ff ff 	mov    -0x14b8(%rbp),%rax
    cedb:	48 89 d6             	mov    %rdx,%rsi
    cede:	48 89 c7             	mov    %rax,%rdi
    cee1:	e8 65 c1 ff ff       	callq  904b <safe_sub_func_uint64_t_u_u>
    cee6:	89 c2                	mov    %eax,%edx
    cee8:	48 8b 85 88 ec ff ff 	mov    -0x1378(%rbp),%rax
    ceef:	89 10                	mov    %edx,(%rax)
    cef1:	48 8b 05 d0 c1 00 00 	mov    0xc1d0(%rip),%rax        # 190c8 <g_254>
    cef8:	48 83 c0 01          	add    $0x1,%rax
    cefc:	48 89 05 c5 c1 00 00 	mov    %rax,0xc1c5(%rip)        # 190c8 <g_254>
    cf03:	48 8b 05 be c1 00 00 	mov    0xc1be(%rip),%rax        # 190c8 <g_254>
    cf0a:	48 83 f8 08          	cmp    $0x8,%rax
    cf0e:	0f 8e 91 fe ff ff    	jle    cda5 <func_14+0x2d55>
    cf14:	48 83 85 58 ec ff ff 	addq   $0x1,-0x13a8(%rbp)
    cf1b:	01 
    cf1c:	48 83 bd 58 ec ff ff 	cmpq   $0x8,-0x13a8(%rbp)
    cf23:	08 
    cf24:	0f 8e 6b fe ff ff    	jle    cd95 <func_14+0x2d45>
    cf2a:	80 85 50 eb ff ff 01 	addb   $0x1,-0x14b0(%rbp)
    cf31:	80 bd 50 eb ff ff 20 	cmpb   $0x20,-0x14b0(%rbp)
    cf38:	0f 85 47 fe ff ff    	jne    cd85 <func_14+0x2d35>
    cf3e:	48 8b 05 cb f4 00 00 	mov    0xf4cb(%rip),%rax        # 1c410 <g_981>
    cf45:	48 8b 00             	mov    (%rax),%rax
    cf48:	48 8b 4d c8          	mov    -0x38(%rbp),%rcx
    cf4c:	64 48 33 0c 25 28 00 	xor    %fs:0x28,%rcx
    cf53:	00 00 
    cf55:	74 05                	je     cf5c <func_14+0x2f0c>
    cf57:	e8 14 b1 ff ff       	callq  8070 <__stack_chk_fail@plt>
    cf5c:	48 81 c4 a8 14 00 00 	add    $0x14a8,%rsp
    cf63:	5b                   	pop    %rbx
    cf64:	41 5c                	pop    %r12
    cf66:	41 5d                	pop    %r13
    cf68:	41 5e                	pop    %r14
    cf6a:	41 5f                	pop    %r15
    cf6c:	5d                   	pop    %rbp
    cf6d:	c3                   	retq   

000000000000cf6e <func_19>:
    cf6e:	f3 0f 1e fa          	endbr64 
    cf72:	55                   	push   %rbp
    cf73:	48 89 e5             	mov    %rsp,%rbp
    cf76:	48 83 ec 40          	sub    $0x40,%rsp
    cf7a:	48 89 7d d8          	mov    %rdi,-0x28(%rbp)
    cf7e:	89 f0                	mov    %esi,%eax
    cf80:	89 55 d0             	mov    %edx,-0x30(%rbp)
    cf83:	89 4d cc             	mov    %ecx,-0x34(%rbp)
    cf86:	88 45 d4             	mov    %al,-0x2c(%rbp)
    cf89:	64 48 8b 04 25 28 00 	mov    %fs:0x28,%rax
    cf90:	00 00 
    cf92:	48 89 45 f8          	mov    %rax,-0x8(%rbp)
    cf96:	31 c0                	xor    %eax,%eax
    cf98:	48 c7 45 e0 00 00 00 	movq   $0x0,-0x20(%rbp)
    cf9f:	00 
    cfa0:	48 c7 45 e8 00 00 00 	movq   $0x0,-0x18(%rbp)
    cfa7:	00 
    cfa8:	c7 45 f0 00 00 00 00 	movl   $0x0,-0x10(%rbp)
    cfaf:	0f b7 45 e4          	movzwl -0x1c(%rbp),%eax
    cfb3:	0f b7 c0             	movzwl %ax,%eax
    cfb6:	48 8b 55 f8          	mov    -0x8(%rbp),%rdx
    cfba:	64 48 33 14 25 28 00 	xor    %fs:0x28,%rdx
    cfc1:	00 00 
    cfc3:	74 05                	je     cfca <func_19+0x5c>
    cfc5:	e8 a6 b0 ff ff       	callq  8070 <__stack_chk_fail@plt>
    cfca:	c9                   	leaveq 
    cfcb:	c3                   	retq   

000000000000cfcc <func_26>:
    cfcc:	f3 0f 1e fa          	endbr64 
    cfd0:	55                   	push   %rbp
    cfd1:	48 89 e5             	mov    %rsp,%rbp
    cfd4:	53                   	push   %rbx
    cfd5:	48 81 ec 58 01 00 00 	sub    $0x158,%rsp
    cfdc:	89 bd bc fe ff ff    	mov    %edi,-0x144(%rbp)
    cfe2:	89 f0                	mov    %esi,%eax
    cfe4:	48 89 95 b0 fe ff ff 	mov    %rdx,-0x150(%rbp)
    cfeb:	48 89 8d a8 fe ff ff 	mov    %rcx,-0x158(%rbp)
    cff2:	44 89 85 a4 fe ff ff 	mov    %r8d,-0x15c(%rbp)
    cff9:	88 85 b8 fe ff ff    	mov    %al,-0x148(%rbp)
    cfff:	64 48 8b 04 25 28 00 	mov    %fs:0x28,%rax
    d006:	00 00 
    d008:	48 89 45 e8          	mov    %rax,-0x18(%rbp)
    d00c:	31 c0                	xor    %eax,%eax
    d00e:	48 8d 05 0f c0 00 00 	lea    0xc00f(%rip),%rax        # 19024 <g_2>
    d015:	48 89 85 e0 fe ff ff 	mov    %rax,-0x120(%rbp)
    d01c:	c7 85 d4 fe ff ff f7 	movl   $0x103b8af7,-0x12c(%rbp)
    d023:	8a 3b 10 
    d026:	c7 85 d8 fe ff ff 4f 	movl   $0x43c7f34f,-0x128(%rbp)
    d02d:	f3 c7 43 
    d030:	48 c7 85 e8 fe ff ff 	movq   $0xffffffffffffffff,-0x118(%rbp)
    d037:	ff ff ff ff 
    d03b:	48 8d 05 26 c3 00 00 	lea    0xc326(%rip),%rax        # 19368 <g_1067>
    d042:	48 89 45 a0          	mov    %rax,-0x60(%rbp)
    d046:	48 8d 05 1b c3 00 00 	lea    0xc31b(%rip),%rax        # 19368 <g_1067>
    d04d:	48 89 45 a8          	mov    %rax,-0x58(%rbp)
    d051:	48 8d 05 10 c3 00 00 	lea    0xc310(%rip),%rax        # 19368 <g_1067>
    d058:	48 89 45 b0          	mov    %rax,-0x50(%rbp)
    d05c:	48 8d 05 05 c3 00 00 	lea    0xc305(%rip),%rax        # 19368 <g_1067>
    d063:	48 89 45 b8          	mov    %rax,-0x48(%rbp)
    d067:	48 8d 05 fa c2 00 00 	lea    0xc2fa(%rip),%rax        # 19368 <g_1067>
    d06e:	48 89 45 c0          	mov    %rax,-0x40(%rbp)
    d072:	48 8d 05 ef c2 00 00 	lea    0xc2ef(%rip),%rax        # 19368 <g_1067>
    d079:	48 89 45 c8          	mov    %rax,-0x38(%rbp)
    d07d:	48 8d 05 e4 c2 00 00 	lea    0xc2e4(%rip),%rax        # 19368 <g_1067>
    d084:	48 89 45 d0          	mov    %rax,-0x30(%rbp)
    d088:	48 8d 05 d9 c2 00 00 	lea    0xc2d9(%rip),%rax        # 19368 <g_1067>
    d08f:	48 89 45 d8          	mov    %rax,-0x28(%rbp)
    d093:	66 c7 85 c6 fe ff ff 	movw   $0xe4a0,-0x13a(%rbp)
    d09a:	a0 e4 
    d09c:	c7 85 a4 fe ff ff 16 	movl   $0x16,-0x15c(%rbp)
    d0a3:	00 00 00 
    d0a6:	eb 2a                	jmp    d0d2 <func_26+0x106>
    d0a8:	48 8b 05 59 e0 00 00 	mov    0xe059(%rip),%rax        # 1b108 <g_37>
    d0af:	48 8b 95 e0 fe ff ff 	mov    -0x120(%rbp),%rdx
    d0b6:	48 89 10             	mov    %rdx,(%rax)
    d0b9:	8b 85 a4 fe ff ff    	mov    -0x15c(%rbp),%eax
    d0bf:	be 07 00 00 00       	mov    $0x7,%esi
    d0c4:	48 89 c7             	mov    %rax,%rdi
    d0c7:	e8 7f bf ff ff       	callq  904b <safe_sub_func_uint64_t_u_u>
    d0cc:	89 85 a4 fe ff ff    	mov    %eax,-0x15c(%rbp)
    d0d2:	83 bd a4 fe ff ff 0e 	cmpl   $0xe,-0x15c(%rbp)
    d0d9:	77 cd                	ja     d0a8 <func_26+0xdc>
    d0db:	80 bd b8 fe ff ff 00 	cmpb   $0x0,-0x148(%rbp)
    d0e2:	74 0b                	je     d0ef <func_26+0x123>
    d0e4:	8b 05 3e bf 00 00    	mov    0xbf3e(%rip),%eax        # 19028 <g_6>
    d0ea:	e9 41 03 00 00       	jmpq   d430 <func_26+0x464>
    d0ef:	c7 85 c8 fe ff ff f4 	movl   $0xe38b13f4,-0x138(%rbp)
    d0f6:	13 8b e3 
    d0f9:	c7 85 bc fe ff ff 00 	movl   $0x0,-0x144(%rbp)
    d100:	00 00 00 
    d103:	e9 05 03 00 00       	jmpq   d40d <func_26+0x441>
    d108:	48 8d 05 45 bf 00 00 	lea    0xbf45(%rip),%rax        # 19054 <g_42+0x14>
    d10f:	48 89 85 f0 fe ff ff 	mov    %rax,-0x110(%rbp)
    d116:	48 8d 05 3b bf 00 00 	lea    0xbf3b(%rip),%rax        # 19058 <g_42+0x18>
    d11d:	48 89 85 f8 fe ff ff 	mov    %rax,-0x108(%rbp)
    d124:	48 c7 85 00 ff ff ff 	movq   $0x0,-0x100(%rbp)
    d12b:	00 00 00 00 
    d12f:	48 8d 05 1e bf 00 00 	lea    0xbf1e(%rip),%rax        # 19054 <g_42+0x14>
    d136:	48 89 85 08 ff ff ff 	mov    %rax,-0xf8(%rbp)
    d13d:	48 8d 05 10 bf 00 00 	lea    0xbf10(%rip),%rax        # 19054 <g_42+0x14>
    d144:	48 89 85 10 ff ff ff 	mov    %rax,-0xf0(%rbp)
    d14b:	48 8d 05 06 bf 00 00 	lea    0xbf06(%rip),%rax        # 19058 <g_42+0x18>
    d152:	48 89 85 18 ff ff ff 	mov    %rax,-0xe8(%rbp)
    d159:	48 8d 05 e4 be 00 00 	lea    0xbee4(%rip),%rax        # 19044 <g_42+0x4>
    d160:	48 89 85 20 ff ff ff 	mov    %rax,-0xe0(%rbp)
    d167:	48 c7 85 28 ff ff ff 	movq   $0x0,-0xd8(%rbp)
    d16e:	00 00 00 00 
    d172:	48 8d 05 db be 00 00 	lea    0xbedb(%rip),%rax        # 19054 <g_42+0x14>
    d179:	48 89 85 30 ff ff ff 	mov    %rax,-0xd0(%rbp)
    d180:	48 c7 85 38 ff ff ff 	movq   $0x0,-0xc8(%rbp)
    d187:	00 00 00 00 
    d18b:	48 8d 05 c2 be 00 00 	lea    0xbec2(%rip),%rax        # 19054 <g_42+0x14>
    d192:	48 89 85 40 ff ff ff 	mov    %rax,-0xc0(%rbp)
    d199:	48 8d 05 b4 be 00 00 	lea    0xbeb4(%rip),%rax        # 19054 <g_42+0x14>
    d1a0:	48 89 85 48 ff ff ff 	mov    %rax,-0xb8(%rbp)
    d1a7:	c7 85 cc fe ff ff 00 	movl   $0x0,-0x134(%rbp)
    d1ae:	00 00 00 
    d1b1:	eb 1e                	jmp    d1d1 <func_26+0x205>
    d1b3:	8b 85 cc fe ff ff    	mov    -0x134(%rbp),%eax
    d1b9:	48 98                	cltq   
    d1bb:	48 8d 15 82 be 00 00 	lea    0xbe82(%rip),%rdx        # 19044 <g_42+0x4>
    d1c2:	48 89 94 c5 70 ff ff 	mov    %rdx,-0x90(%rbp,%rax,8)
    d1c9:	ff 
    d1ca:	83 85 cc fe ff ff 01 	addl   $0x1,-0x134(%rbp)
    d1d1:	83 bd cc fe ff ff 04 	cmpl   $0x4,-0x134(%rbp)
    d1d8:	7e d9                	jle    d1b3 <func_26+0x1e7>
    d1da:	83 85 c8 fe ff ff 01 	addl   $0x1,-0x138(%rbp)
    d1e1:	c7 85 a4 fe ff ff 00 	movl   $0x0,-0x15c(%rbp)
    d1e8:	00 00 00 
    d1eb:	e9 f5 01 00 00       	jmpq   d3e5 <func_26+0x419>
    d1f0:	48 b8 6c 3c 14 4c d5 	movabs $0x6c2a20d54c143c6c,%rax
    d1f7:	20 2a 6c 
    d1fa:	48 89 85 50 ff ff ff 	mov    %rax,-0xb0(%rbp)
    d201:	c7 85 dc fe ff ff c9 	movl   $0x3fd63c9,-0x124(%rbp)
    d208:	63 fd 03 
    d20b:	c7 85 d0 fe ff ff 00 	movl   $0x0,-0x130(%rbp)
    d212:	00 00 00 
    d215:	eb 1b                	jmp    d232 <func_26+0x266>
    d217:	8b 85 d0 fe ff ff    	mov    -0x130(%rbp),%eax
    d21d:	48 98                	cltq   
    d21f:	48 c7 84 c5 68 ff ff 	movq   $0x0,-0x98(%rbp,%rax,8)
    d226:	ff 00 00 00 00 
    d22b:	83 85 d0 fe ff ff 01 	addl   $0x1,-0x130(%rbp)
    d232:	83 bd d0 fe ff ff 00 	cmpl   $0x0,-0x130(%rbp)
    d239:	7e dc                	jle    d217 <func_26+0x24b>
    d23b:	c7 85 c8 fe ff ff 00 	movl   $0x0,-0x138(%rbp)
    d242:	00 00 00 
    d245:	e9 72 01 00 00       	jmpq   d3bc <func_26+0x3f0>
    d24a:	48 8d 05 0f be 00 00 	lea    0xbe0f(%rip),%rax        # 19060 <g_66>
    d251:	48 89 85 58 ff ff ff 	mov    %rax,-0xa8(%rbp)
    d258:	48 8d 05 bd be 00 00 	lea    0xbebd(%rip),%rax        # 1911c <g_718>
    d25f:	48 89 85 60 ff ff ff 	mov    %rax,-0xa0(%rbp)
    d266:	8b 85 c8 fe ff ff    	mov    -0x138(%rbp),%eax
    d26c:	48 8d 14 85 00 00 00 	lea    0x0(,%rax,4),%rdx
    d273:	00 
    d274:	48 8d 05 c5 bd 00 00 	lea    0xbdc5(%rip),%rax        # 19040 <g_42>
    d27b:	8b 14 02             	mov    (%rdx,%rax,1),%edx
    d27e:	8b 05 a0 bd 00 00    	mov    0xbda0(%rip),%eax        # 19024 <g_2>
    d284:	39 85 a4 fe ff ff    	cmp    %eax,-0x15c(%rbp)
    d28a:	0f 97 c0             	seta   %al
    d28d:	0f b6 c0             	movzbl %al,%eax
    d290:	89 d1                	mov    %edx,%ecx
    d292:	09 c1                	or     %eax,%ecx
    d294:	8b 85 c8 fe ff ff    	mov    -0x138(%rbp),%eax
    d29a:	48 8d 14 85 00 00 00 	lea    0x0(,%rax,4),%rdx
    d2a1:	00 
    d2a2:	48 8d 05 97 bd 00 00 	lea    0xbd97(%rip),%rax        # 19040 <g_42>
    d2a9:	89 0c 02             	mov    %ecx,(%rdx,%rax,1)
    d2ac:	48 8b 85 58 ff ff ff 	mov    -0xa8(%rbp),%rax
    d2b3:	c7 00 ff ff ff ff    	movl   $0xffffffff,(%rax)
    d2b9:	48 8b 85 58 ff ff ff 	mov    -0xa8(%rbp),%rax
    d2c0:	8b 10                	mov    (%rax),%edx
    d2c2:	48 8b 85 28 ff ff ff 	mov    -0xd8(%rbp),%rax
    d2c9:	89 d6                	mov    %edx,%esi
    d2cb:	48 89 c7             	mov    %rax,%rdi
    d2ce:	e8 7b 01 00 00       	callq  d44e <func_62>
    d2d3:	48 8b 85 50 ff ff ff 	mov    -0xb0(%rbp),%rax
    d2da:	48 39 85 e8 fe ff ff 	cmp    %rax,-0x118(%rbp)
    d2e1:	0f 92 c0             	setb   %al
    d2e4:	0f b6 d0             	movzbl %al,%edx
    d2e7:	8b 85 bc fe ff ff    	mov    -0x144(%rbp),%eax
    d2ed:	89 c1                	mov    %eax,%ecx
    d2ef:	48 8b 85 60 ff ff ff 	mov    -0xa0(%rbp),%rax
    d2f6:	66 89 08             	mov    %cx,(%rax)
    d2f9:	48 8b 85 60 ff ff ff 	mov    -0xa0(%rbp),%rax
    d300:	0f b7 00             	movzwl (%rax),%eax
    d303:	0f b7 c0             	movzwl %ax,%eax
    d306:	39 c2                	cmp    %eax,%edx
    d308:	be 01 00 00 00       	mov    $0x1,%esi
    d30d:	bf f2 ff ff ff       	mov    $0xfffffff2,%edi
    d312:	e8 d7 af ff ff       	callq  82ee <safe_lshift_func_int8_t_s_u>
    d317:	0f be d8             	movsbl %al,%ebx
    d31a:	8b 85 c8 fe ff ff    	mov    -0x138(%rbp),%eax
    d320:	89 c6                	mov    %eax,%esi
    d322:	bf 09 00 00 00       	mov    $0x9,%edi
    d327:	e8 92 ba ff ff       	callq  8dbe <safe_lshift_func_uint16_t_u_s>
    d32c:	0f b7 c0             	movzwl %ax,%eax
    d32f:	39 c3                	cmp    %eax,%ebx
    d331:	0f 9f c0             	setg   %al
    d334:	0f b6 d0             	movzbl %al,%edx
    d337:	0f b6 85 b8 fe ff ff 	movzbl -0x148(%rbp),%eax
    d33e:	39 c2                	cmp    %eax,%edx
    d340:	74 10                	je     d352 <func_26+0x386>
    d342:	83 bd bc fe ff ff 00 	cmpl   $0x0,-0x144(%rbp)
    d349:	74 07                	je     d352 <func_26+0x386>
    d34b:	b9 01 00 00 00       	mov    $0x1,%ecx
    d350:	eb 05                	jmp    d357 <func_26+0x38b>
    d352:	b9 00 00 00 00       	mov    $0x0,%ecx
    d357:	8b 85 c8 fe ff ff    	mov    -0x138(%rbp),%eax
    d35d:	48 8d 14 85 00 00 00 	lea    0x0(,%rax,4),%rdx
    d364:	00 
    d365:	48 8d 05 d4 bc 00 00 	lea    0xbcd4(%rip),%rax        # 19040 <g_42>
    d36c:	8b 04 02             	mov    (%rdx,%rax,1),%eax
    d36f:	39 c1                	cmp    %eax,%ecx
    d371:	0f 9e c0             	setle  %al
    d374:	0f b6 c0             	movzbl %al,%eax
    d377:	8b 95 c8 fe ff ff    	mov    -0x138(%rbp),%edx
    d37d:	48 8d 0c 95 00 00 00 	lea    0x0(,%rdx,4),%rcx
    d384:	00 
    d385:	48 8d 15 b4 bc 00 00 	lea    0xbcb4(%rip),%rdx        # 19040 <g_42>
    d38c:	89 04 11             	mov    %eax,(%rcx,%rdx,1)
    d38f:	8b 85 c8 fe ff ff    	mov    -0x138(%rbp),%eax
    d395:	48 8d 14 85 00 00 00 	lea    0x0(,%rax,4),%rdx
    d39c:	00 
    d39d:	48 8d 05 9c bc 00 00 	lea    0xbc9c(%rip),%rax        # 19040 <g_42>
    d3a4:	8b 14 02             	mov    (%rdx,%rax,1),%edx
    d3a7:	8b 05 2f f9 00 00    	mov    0xf92f(%rip),%eax        # 1ccdc <g_844+0x4>
    d3ad:	31 d0                	xor    %edx,%eax
    d3af:	89 05 27 f9 00 00    	mov    %eax,0xf927(%rip)        # 1ccdc <g_844+0x4>
    d3b5:	83 85 c8 fe ff ff 01 	addl   $0x1,-0x138(%rbp)
    d3bc:	83 bd c8 fe ff ff 07 	cmpl   $0x7,-0x138(%rbp)
    d3c3:	0f 86 81 fe ff ff    	jbe    d24a <func_26+0x27e>
    d3c9:	81 8d dc fe ff ff 5e 	orl    $0x3689b55e,-0x124(%rbp)
    d3d0:	b5 89 36 
    d3d3:	48 8b 45 d0          	mov    -0x30(%rbp),%rax
    d3d7:	48 89 05 42 f0 00 00 	mov    %rax,0xf042(%rip)        # 1c420 <g_1147>
    d3de:	83 85 a4 fe ff ff 01 	addl   $0x1,-0x15c(%rbp)
    d3e5:	83 bd a4 fe ff ff 07 	cmpl   $0x7,-0x15c(%rbp)
    d3ec:	0f 86 fe fd ff ff    	jbe    d1f0 <func_26+0x224>
    d3f2:	8b 85 bc fe ff ff    	mov    -0x144(%rbp),%eax
    d3f8:	48 98                	cltq   
    d3fa:	be 08 00 00 00       	mov    $0x8,%esi
    d3ff:	48 89 c7             	mov    %rax,%rdi
    d402:	e8 44 bc ff ff       	callq  904b <safe_sub_func_uint64_t_u_u>
    d407:	89 85 bc fe ff ff    	mov    %eax,-0x144(%rbp)
    d40d:	83 bd bc fe ff ff e5 	cmpl   $0xffffffe5,-0x144(%rbp)
    d414:	0f 8c ee fc ff ff    	jl     d108 <func_26+0x13c>
    d41a:	8b 05 40 bc 00 00    	mov    0xbc40(%rip),%eax        # 19060 <g_66>
    d420:	85 c0                	test   %eax,%eax
    d422:	74 05                	je     d429 <func_26+0x45d>
    d424:	e9 73 fc ff ff       	jmpq   d09c <func_26+0xd0>
    d429:	0f bf 85 c6 fe ff ff 	movswl -0x13a(%rbp),%eax
    d430:	48 8b 5d e8          	mov    -0x18(%rbp),%rbx
    d434:	64 48 33 1c 25 28 00 	xor    %fs:0x28,%rbx
    d43b:	00 00 
    d43d:	74 05                	je     d444 <func_26+0x478>
    d43f:	e8 2c ac ff ff       	callq  8070 <__stack_chk_fail@plt>
    d444:	48 81 c4 58 01 00 00 	add    $0x158,%rsp
    d44b:	5b                   	pop    %rbx
    d44c:	5d                   	pop    %rbp
    d44d:	c3                   	retq   

000000000000d44e <func_62>:
    d44e:	f3 0f 1e fa          	endbr64 
    d452:	55                   	push   %rbp
    d453:	48 89 e5             	mov    %rsp,%rbp
    d456:	48 81 ec 70 01 00 00 	sub    $0x170,%rsp
    d45d:	48 89 bd 98 fe ff ff 	mov    %rdi,-0x168(%rbp)
    d464:	89 b5 94 fe ff ff    	mov    %esi,-0x16c(%rbp)
    d46a:	64 48 8b 04 25 28 00 	mov    %fs:0x28,%rax
    d471:	00 00 
    d473:	48 89 45 f8          	mov    %rax,-0x8(%rbp)
    d477:	31 c0                	xor    %eax,%eax
    d479:	48 b8 8c 0f 4e f8 23 	movabs $0x6cc22523f84e0f8c,%rax
    d480:	25 c2 6c 
    d483:	48 89 85 c0 fe ff ff 	mov    %rax,-0x140(%rbp)
    d48a:	c7 85 ac fe ff ff 06 	movl   $0x6,-0x154(%rbp)
    d491:	00 00 00 
    d494:	48 b8 78 59 38 9c 18 	movabs $0x87549b189c385978,%rax
    d49b:	9b 54 87 
    d49e:	48 89 85 b8 fe ff ff 	mov    %rax,-0x148(%rbp)
    d4a5:	48 8d 05 54 dc 00 00 	lea    0xdc54(%rip),%rax        # 1b100 <g_38>
    d4ac:	48 89 85 c8 fe ff ff 	mov    %rax,-0x138(%rbp)
    d4b3:	48 c7 85 d0 fe ff ff 	movq   $0x0,-0x130(%rbp)
    d4ba:	00 00 00 00 
    d4be:	c7 05 98 bb 00 00 ed 	movl   $0xffffffed,0xbb98(%rip)        # 19060 <g_66>
    d4c5:	ff ff ff 
    d4c8:	e9 3b 02 00 00       	jmpq   d708 <func_62+0x2ba>
    d4cd:	c7 85 60 ff ff ff c2 	movl   $0xff2dc0c2,-0xa0(%rbp)
    d4d4:	c0 2d ff 
    d4d7:	66 c7 85 64 ff ff ff 	movw   $0xffe2,-0x9c(%rbp)
    d4de:	e2 ff 
    d4e0:	c6 85 66 ff ff ff e2 	movb   $0xe2,-0x9a(%rbp)
    d4e7:	c7 85 67 ff ff ff 01 	movl   $0x1f6f601,-0x99(%rbp)
    d4ee:	f6 f6 01 
    d4f1:	66 c7 85 6b ff ff ff 	movw   $0x1723,-0x95(%rbp)
    d4f8:	23 17 
    d4fa:	c6 85 6d ff ff ff 01 	movb   $0x1,-0x93(%rbp)
    d501:	c7 85 6e ff ff ff 2a 	movl   $0xc0ffff2a,-0x92(%rbp)
    d508:	ff ff c0 
    d50b:	66 c7 85 72 ff ff ff 	movw   $0x4606,-0x8e(%rbp)
    d512:	06 46 
    d514:	c6 85 74 ff ff ff e1 	movb   $0xe1,-0x8c(%rbp)
    d51b:	c7 85 75 ff ff ff 01 	movl   $0x1012301,-0x8b(%rbp)
    d522:	23 01 01 
    d525:	66 c7 85 79 ff ff ff 	movw   $0x1fa,-0x87(%rbp)
    d52c:	fa 01 
    d52e:	c6 85 7b ff ff ff 01 	movb   $0x1,-0x85(%rbp)
    d535:	c7 85 7c ff ff ff 2d 	movl   $0x6ed2d2d,-0x84(%rbp)
    d53c:	2d ed 06 
    d53f:	66 c7 45 80 46 6d    	movw   $0x6d46,-0x80(%rbp)
    d545:	c6 45 82 e2          	movb   $0xe2,-0x7e(%rbp)
    d549:	c7 45 83 45 bb 59 f6 	movl   $0xf659bb45,-0x7d(%rbp)
    d550:	66 c7 45 87 01 f7    	movw   $0xf701,-0x79(%rbp)
    d556:	c6 45 89 00          	movb   $0x0,-0x77(%rbp)
    d55a:	c7 45 8a 6d 52 46 e2 	movl   $0xe246526d,-0x76(%rbp)
    d561:	66 c7 45 8e 46 52    	movw   $0x5246,-0x72(%rbp)
    d567:	c6 45 90 6d          	movb   $0x6d,-0x70(%rbp)
    d56b:	c7 45 91 06 01 01 59 	movl   $0x59010106,-0x6f(%rbp)
    d572:	66 c7 45 95 fa 00    	movw   $0xfa,-0x6b(%rbp)
    d578:	c6 45 97 f6          	movb   $0xf6,-0x69(%rbp)
    d57c:	c7 45 98 e1 ff f8 31 	movl   $0x31f8ffe1,-0x68(%rbp)
    d583:	66 c7 45 9c 06 c2    	movw   $0xc206,-0x64(%rbp)
    d589:	c6 45 9e c2          	movb   $0xc2,-0x62(%rbp)
    d58d:	c7 45 9f 23 5e 01 5e 	movl   $0x5e015e23,-0x61(%rbp)
    d594:	66 c7 45 a3 23 45    	movw   $0x4523,-0x5d(%rbp)
    d59a:	c6 45 a5 bb          	movb   $0xbb,-0x5b(%rbp)
    d59e:	c7 45 a6 ed 06 46 6d 	movl   $0x6d4606ed,-0x5a(%rbp)
    d5a5:	66 c7 45 aa e2 47    	movw   $0x47e2,-0x56(%rbp)
    d5ab:	c6 45 ac 06          	movb   $0x6,-0x54(%rbp)
    d5af:	c7 45 ad 5e 06 59 4c 	movl   $0x4c59065e,-0x53(%rbp)
    d5b6:	66 c7 45 b1 01 01    	movw   $0x101,-0x4f(%rbp)
    d5bc:	c6 45 b3 4c          	movb   $0x4c,-0x4d(%rbp)
    d5c0:	c7 45 b4 ed 6d ed 2a 	movl   $0x2aed6ded,-0x4c(%rbp)
    d5c7:	66 c7 45 b8 ff ff    	movw   $0xffff,-0x48(%rbp)
    d5cd:	c6 45 ba c0          	movb   $0xc0,-0x46(%rbp)
    d5d1:	c7 45 bb 23 17 01 45 	movl   $0x45011723,-0x45(%rbp)
    d5d8:	66 c7 45 bf 4c bb    	movw   $0xbb4c,-0x41(%rbp)
    d5de:	c6 45 c1 06          	movb   $0x6,-0x3f(%rbp)
    d5e2:	c7 45 c2 e1 ed ff 52 	movl   $0x52ffede1,-0x3e(%rbp)
    d5e9:	66 c7 45 c6 52 ff    	movw   $0xff52,-0x3a(%rbp)
    d5ef:	c6 45 c8 ed          	movb   $0xed,-0x38(%rbp)
    d5f3:	c7 45 c9 06 fa f6 ff 	movl   $0xfff6fa06,-0x37(%rbp)
    d5fa:	66 c7 45 cd 17 01    	movw   $0x117,-0x33(%rbp)
    d600:	c6 45 cf 01          	movb   $0x1,-0x31(%rbp)
    d604:	c7 45 d0 6d f8 2d 46 	movl   $0x462df86d,-0x30(%rbp)
    d60b:	66 c7 45 d4 c0 47    	movw   $0x47c0,-0x2c(%rbp)
    d611:	c6 45 d6 31          	movb   $0x31,-0x2a(%rbp)
    d615:	c7 45 d7 45 00 ff ff 	movl   $0xffff0045,-0x29(%rbp)
    d61c:	66 c7 45 db 00 45    	movw   $0x4500,-0x25(%rbp)
    d622:	c6 45 dd 01          	movb   $0x1,-0x23(%rbp)
    d626:	c7 45 de 2d 31 e1 52 	movl   $0x52e1312d,-0x22(%rbp)
    d62d:	66 c7 45 e2 2a c2    	movw   $0xc22a,-0x1e(%rbp)
    d633:	c6 45 e4 ff          	movb   $0xff,-0x1c(%rbp)
    d637:	c7 45 e5 01 4c fa 45 	movl   $0x45fa4c01,-0x1b(%rbp)
    d63e:	66 c7 45 e9 59 00    	movw   $0x59,-0x17(%rbp)
    d644:	c6 45 eb 59          	movb   $0x59,-0x15(%rbp)
    d648:	48 8d 05 69 f6 00 00 	lea    0xf669(%rip),%rax        # 1ccb8 <g_505>
    d64f:	48 89 85 d8 fe ff ff 	mov    %rax,-0x128(%rbp)
    d656:	c7 85 b4 fe ff ff 06 	movl   $0x6,-0x14c(%rbp)
    d65d:	00 00 00 
    d660:	48 8d 05 e9 bb 00 00 	lea    0xbbe9(%rip),%rax        # 19250 <g_976>
    d667:	48 89 85 e0 fe ff ff 	mov    %rax,-0x120(%rbp)
    d66e:	66 c7 85 aa fe ff ff 	movw   $0xb65a,-0x156(%rbp)
    d675:	5a b6 
    d677:	48 8d 05 2a f6 00 00 	lea    0xf62a(%rip),%rax        # 1cca8 <g_105>
    d67e:	48 89 85 e8 fe ff ff 	mov    %rax,-0x118(%rbp)
    d685:	c7 85 b0 fe ff ff 00 	movl   $0x0,-0x150(%rbp)
    d68c:	00 00 00 
    d68f:	eb 1e                	jmp    d6af <func_62+0x261>
    d691:	8b 85 b0 fe ff ff    	mov    -0x150(%rbp),%eax
    d697:	48 98                	cltq   
    d699:	48 8d 15 b4 b9 00 00 	lea    0xb9b4(%rip),%rdx        # 19054 <g_42+0x14>
    d6a0:	48 89 94 c5 10 ff ff 	mov    %rdx,-0xf0(%rbp,%rax,8)
    d6a7:	ff 
    d6a8:	83 85 b0 fe ff ff 01 	addl   $0x1,-0x150(%rbp)
    d6af:	83 bd b0 fe ff ff 08 	cmpl   $0x8,-0x150(%rbp)
    d6b6:	7e d9                	jle    d691 <func_62+0x243>
    d6b8:	c7 85 b0 fe ff ff 00 	movl   $0x0,-0x150(%rbp)
    d6bf:	00 00 00 
    d6c2:	eb 1b                	jmp    d6df <func_62+0x291>
    d6c4:	8b 85 b0 fe ff ff    	mov    -0x150(%rbp),%eax
    d6ca:	48 98                	cltq   
    d6cc:	48 c7 84 c5 f0 fe ff 	movq   $0x0,-0x110(%rbp,%rax,8)
    d6d3:	ff 00 00 00 00 
    d6d8:	83 85 b0 fe ff ff 01 	addl   $0x1,-0x150(%rbp)
    d6df:	83 bd b0 fe ff ff 02 	cmpl   $0x2,-0x150(%rbp)
    d6e6:	7e dc                	jle    d6c4 <func_62+0x276>
    d6e8:	48 83 85 c0 fe ff ff 	addq   $0x1,-0x140(%rbp)
    d6ef:	01 
    d6f0:	8b 05 6a b9 00 00    	mov    0xb96a(%rip),%eax        # 19060 <g_66>
    d6f6:	be 08 00 00 00       	mov    $0x8,%esi
    d6fb:	89 c7                	mov    %eax,%edi
    d6fd:	e8 b6 b7 ff ff       	callq  8eb8 <safe_add_func_uint32_t_u_u>
    d702:	89 05 58 b9 00 00    	mov    %eax,0xb958(%rip)        # 19060 <g_66>
    d708:	8b 05 52 b9 00 00    	mov    0xb952(%rip),%eax        # 19060 <g_66>
    d70e:	83 f8 0b             	cmp    $0xb,%eax
    d711:	0f 87 b6 fd ff ff    	ja     d4cd <func_62+0x7f>
    d717:	48 8b 85 c8 fe ff ff 	mov    -0x138(%rbp),%rax
    d71e:	48 8d 95 ac fe ff ff 	lea    -0x154(%rbp),%rdx
    d725:	48 89 10             	mov    %rdx,(%rax)
    d728:	48 8b 85 c8 fe ff ff 	mov    -0x138(%rbp),%rax
    d72f:	48 8b 00             	mov    (%rax),%rax
    d732:	48 89 85 d0 fe ff ff 	mov    %rax,-0x130(%rbp)
    d739:	48 8b 05 78 e8 00 00 	mov    0xe878(%rip),%rax        # 1bfb8 <g_746>
    d740:	8b 00                	mov    (%rax),%eax
    d742:	48 8b 4d f8          	mov    -0x8(%rbp),%rcx
    d746:	64 48 33 0c 25 28 00 	xor    %fs:0x28,%rcx
    d74d:	00 00 
    d74f:	74 05                	je     d756 <func_62+0x308>
    d751:	e8 1a a9 ff ff       	callq  8070 <__stack_chk_fail@plt>
    d756:	c9                   	leaveq 
    d757:	c3                   	retq   

000000000000d758 <func_73>:
    d758:	f3 0f 1e fa          	endbr64 
    d75c:	55                   	push   %rbp
    d75d:	48 89 e5             	mov    %rsp,%rbp
    d760:	41 57                	push   %r15
    d762:	41 56                	push   %r14
    d764:	41 55                	push   %r13
    d766:	41 54                	push   %r12
    d768:	53                   	push   %rbx
    d769:	48 81 ec 00 10 00 00 	sub    $0x1000,%rsp
    d770:	48 83 0c 24 00       	orq    $0x0,(%rsp)
    d775:	48 81 ec e8 08 00 00 	sub    $0x8e8,%rsp
    d77c:	48 89 bd f8 e6 ff ff 	mov    %rdi,-0x1908(%rbp)
    d783:	64 48 8b 04 25 28 00 	mov    %fs:0x28,%rax
    d78a:	00 00 
    d78c:	48 89 45 c8          	mov    %rax,-0x38(%rbp)
    d790:	31 c0                	xor    %eax,%eax
    d792:	48 8d 05 c7 b8 00 00 	lea    0xb8c7(%rip),%rax        # 19060 <g_66>
    d799:	48 89 85 90 e7 ff ff 	mov    %rax,-0x1870(%rbp)
    d7a0:	48 c7 85 50 e7 ff ff 	movq   $0x0,-0x18b0(%rbp)
    d7a7:	00 00 00 00 
    d7ab:	48 8d 05 66 d9 00 00 	lea    0xd966(%rip),%rax        # 1b118 <g_94>
    d7b2:	48 89 85 58 e7 ff ff 	mov    %rax,-0x18a8(%rbp)
    d7b9:	48 8d 85 a0 ea ff ff 	lea    -0x1560(%rbp),%rax
    d7c0:	48 8d 15 d9 73 00 00 	lea    0x73d9(%rip),%rdx        # 14ba0 <g_1477+0x418>
    d7c7:	b9 5a 00 00 00       	mov    $0x5a,%ecx
    d7cc:	48 89 c7             	mov    %rax,%rdi
    d7cf:	48 89 d6             	mov    %rdx,%rsi
    d7d2:	f3 48 a5             	rep movsq %ds:(%rsi),%es:(%rdi)
    d7d5:	c7 85 18 e7 ff ff 07 	movl   $0x7,-0x18e8(%rbp)
    d7dc:	00 00 00 
    d7df:	c7 85 2c e7 ff ff 8d 	movl   $0x966de68d,-0x18d4(%rbp)
    d7e6:	e6 6d 96 
    d7e9:	48 8d 05 80 b8 00 00 	lea    0xb880(%rip),%rax        # 19070 <g_115>
    d7f0:	48 89 85 e0 e8 ff ff 	mov    %rax,-0x1720(%rbp)
    d7f7:	48 8d 05 72 b8 00 00 	lea    0xb872(%rip),%rax        # 19070 <g_115>
    d7fe:	48 89 85 e8 e8 ff ff 	mov    %rax,-0x1718(%rbp)
    d805:	48 8d 05 64 b8 00 00 	lea    0xb864(%rip),%rax        # 19070 <g_115>
    d80c:	48 89 85 f0 e8 ff ff 	mov    %rax,-0x1710(%rbp)
    d813:	48 8d 05 56 b8 00 00 	lea    0xb856(%rip),%rax        # 19070 <g_115>
    d81a:	48 89 85 f8 e8 ff ff 	mov    %rax,-0x1708(%rbp)
    d821:	48 8d 05 48 b8 00 00 	lea    0xb848(%rip),%rax        # 19070 <g_115>
    d828:	48 89 85 00 e9 ff ff 	mov    %rax,-0x1700(%rbp)
    d82f:	c6 85 02 e7 ff ff 01 	movb   $0x1,-0x18fe(%rbp)
    d836:	48 8d 05 63 e4 00 00 	lea    0xe463(%rip),%rax        # 1bca0 <g_580>
    d83d:	48 89 85 98 e7 ff ff 	mov    %rax,-0x1868(%rbp)
    d844:	c7 85 0c e7 ff ff d1 	movl   $0xf61de4d1,-0x18f4(%rbp)
    d84b:	e4 1d f6 
    d84e:	66 c7 85 06 e7 ff ff 	movw   $0x6b7f,-0x18fa(%rbp)
    d855:	7f 6b 
    d857:	c6 85 03 e7 ff ff b8 	movb   $0xb8,-0x18fd(%rbp)
    d85e:	48 c7 85 60 e7 ff ff 	movq   $0x0,-0x18a0(%rbp)
    d865:	00 00 00 00 
    d869:	48 8d 85 60 e7 ff ff 	lea    -0x18a0(%rbp),%rax
    d870:	48 89 85 40 f0 ff ff 	mov    %rax,-0xfc0(%rbp)
    d877:	48 8d 85 60 e7 ff ff 	lea    -0x18a0(%rbp),%rax
    d87e:	48 89 85 48 f0 ff ff 	mov    %rax,-0xfb8(%rbp)
    d885:	48 8d 85 60 e7 ff ff 	lea    -0x18a0(%rbp),%rax
    d88c:	48 89 85 50 f0 ff ff 	mov    %rax,-0xfb0(%rbp)
    d893:	48 8d 85 60 e7 ff ff 	lea    -0x18a0(%rbp),%rax
    d89a:	48 89 85 58 f0 ff ff 	mov    %rax,-0xfa8(%rbp)
    d8a1:	48 c7 85 60 f0 ff ff 	movq   $0x0,-0xfa0(%rbp)
    d8a8:	00 00 00 00 
    d8ac:	48 8d 85 60 e7 ff ff 	lea    -0x18a0(%rbp),%rax
    d8b3:	48 89 85 68 f0 ff ff 	mov    %rax,-0xf98(%rbp)
    d8ba:	48 8d 85 60 e7 ff ff 	lea    -0x18a0(%rbp),%rax
    d8c1:	48 89 85 70 f0 ff ff 	mov    %rax,-0xf90(%rbp)
    d8c8:	48 c7 85 78 f0 ff ff 	movq   $0x0,-0xf88(%rbp)
    d8cf:	00 00 00 00 
    d8d3:	48 c7 85 80 f0 ff ff 	movq   $0x0,-0xf80(%rbp)
    d8da:	00 00 00 00 
    d8de:	48 c7 85 88 f0 ff ff 	movq   $0x0,-0xf78(%rbp)
    d8e5:	00 00 00 00 
    d8e9:	48 c7 85 90 f0 ff ff 	movq   $0x0,-0xf70(%rbp)
    d8f0:	00 00 00 00 
    d8f4:	48 c7 85 98 f0 ff ff 	movq   $0x0,-0xf68(%rbp)
    d8fb:	00 00 00 00 
    d8ff:	48 8d 85 60 e7 ff ff 	lea    -0x18a0(%rbp),%rax
    d906:	48 89 85 a0 f0 ff ff 	mov    %rax,-0xf60(%rbp)
    d90d:	48 c7 85 a8 f0 ff ff 	movq   $0x0,-0xf58(%rbp)
    d914:	00 00 00 00 
    d918:	48 c7 85 b0 f0 ff ff 	movq   $0x0,-0xf50(%rbp)
    d91f:	00 00 00 00 
    d923:	48 8d 85 60 e7 ff ff 	lea    -0x18a0(%rbp),%rax
    d92a:	48 89 85 b8 f0 ff ff 	mov    %rax,-0xf48(%rbp)
    d931:	48 8d 85 60 e7 ff ff 	lea    -0x18a0(%rbp),%rax
    d938:	48 89 85 c0 f0 ff ff 	mov    %rax,-0xf40(%rbp)
    d93f:	48 c7 85 c8 f0 ff ff 	movq   $0x0,-0xf38(%rbp)
    d946:	00 00 00 00 
    d94a:	48 8d 85 60 e7 ff ff 	lea    -0x18a0(%rbp),%rax
    d951:	48 89 85 d0 f0 ff ff 	mov    %rax,-0xf30(%rbp)
    d958:	48 8d 85 60 e7 ff ff 	lea    -0x18a0(%rbp),%rax
    d95f:	48 89 85 d8 f0 ff ff 	mov    %rax,-0xf28(%rbp)
    d966:	48 c7 85 e0 f0 ff ff 	movq   $0x0,-0xf20(%rbp)
    d96d:	00 00 00 00 
    d971:	48 8d 85 60 e7 ff ff 	lea    -0x18a0(%rbp),%rax
    d978:	48 89 85 e8 f0 ff ff 	mov    %rax,-0xf18(%rbp)
    d97f:	48 8d 85 60 e7 ff ff 	lea    -0x18a0(%rbp),%rax
    d986:	48 89 85 f0 f0 ff ff 	mov    %rax,-0xf10(%rbp)
    d98d:	48 8d 85 60 e7 ff ff 	lea    -0x18a0(%rbp),%rax
    d994:	48 89 85 f8 f0 ff ff 	mov    %rax,-0xf08(%rbp)
    d99b:	48 c7 85 00 f1 ff ff 	movq   $0x0,-0xf00(%rbp)
    d9a2:	00 00 00 00 
    d9a6:	48 8d 85 60 e7 ff ff 	lea    -0x18a0(%rbp),%rax
    d9ad:	48 89 85 08 f1 ff ff 	mov    %rax,-0xef8(%rbp)
    d9b4:	48 8d 85 60 e7 ff ff 	lea    -0x18a0(%rbp),%rax
    d9bb:	48 89 85 10 f1 ff ff 	mov    %rax,-0xef0(%rbp)
    d9c2:	48 c7 85 18 f1 ff ff 	movq   $0x0,-0xee8(%rbp)
    d9c9:	00 00 00 00 
    d9cd:	48 c7 85 20 f1 ff ff 	movq   $0x0,-0xee0(%rbp)
    d9d4:	00 00 00 00 
    d9d8:	48 c7 85 28 f1 ff ff 	movq   $0x0,-0xed8(%rbp)
    d9df:	00 00 00 00 
    d9e3:	48 c7 85 30 f1 ff ff 	movq   $0x0,-0xed0(%rbp)
    d9ea:	00 00 00 00 
    d9ee:	48 8d 85 60 e7 ff ff 	lea    -0x18a0(%rbp),%rax
    d9f5:	48 89 85 38 f1 ff ff 	mov    %rax,-0xec8(%rbp)
    d9fc:	48 8d 85 60 e7 ff ff 	lea    -0x18a0(%rbp),%rax
    da03:	48 89 85 40 f1 ff ff 	mov    %rax,-0xec0(%rbp)
    da0a:	48 8d 85 60 e7 ff ff 	lea    -0x18a0(%rbp),%rax
    da11:	48 89 85 48 f1 ff ff 	mov    %rax,-0xeb8(%rbp)
    da18:	48 8d 85 60 e7 ff ff 	lea    -0x18a0(%rbp),%rax
    da1f:	48 89 85 50 f1 ff ff 	mov    %rax,-0xeb0(%rbp)
    da26:	48 8d 85 60 e7 ff ff 	lea    -0x18a0(%rbp),%rax
    da2d:	48 89 85 58 f1 ff ff 	mov    %rax,-0xea8(%rbp)
    da34:	48 c7 85 60 f1 ff ff 	movq   $0x0,-0xea0(%rbp)
    da3b:	00 00 00 00 
    da3f:	48 8d 85 60 e7 ff ff 	lea    -0x18a0(%rbp),%rax
    da46:	48 89 85 68 f1 ff ff 	mov    %rax,-0xe98(%rbp)
    da4d:	48 8d 85 60 e7 ff ff 	lea    -0x18a0(%rbp),%rax
    da54:	48 89 85 70 f1 ff ff 	mov    %rax,-0xe90(%rbp)
    da5b:	48 c7 85 78 f1 ff ff 	movq   $0x0,-0xe88(%rbp)
    da62:	00 00 00 00 
    da66:	48 8d 85 60 e7 ff ff 	lea    -0x18a0(%rbp),%rax
    da6d:	48 89 85 80 f1 ff ff 	mov    %rax,-0xe80(%rbp)
    da74:	48 c7 85 88 f1 ff ff 	movq   $0x0,-0xe78(%rbp)
    da7b:	00 00 00 00 
    da7f:	48 c7 85 90 f1 ff ff 	movq   $0x0,-0xe70(%rbp)
    da86:	00 00 00 00 
    da8a:	48 8d 85 60 e7 ff ff 	lea    -0x18a0(%rbp),%rax
    da91:	48 89 85 98 f1 ff ff 	mov    %rax,-0xe68(%rbp)
    da98:	48 c7 85 a0 f1 ff ff 	movq   $0x0,-0xe60(%rbp)
    da9f:	00 00 00 00 
    daa3:	48 8d 85 60 e7 ff ff 	lea    -0x18a0(%rbp),%rax
    daaa:	48 89 85 a8 f1 ff ff 	mov    %rax,-0xe58(%rbp)
    dab1:	48 8d 85 60 e7 ff ff 	lea    -0x18a0(%rbp),%rax
    dab8:	48 89 85 b0 f1 ff ff 	mov    %rax,-0xe50(%rbp)
    dabf:	48 8d 85 60 e7 ff ff 	lea    -0x18a0(%rbp),%rax
    dac6:	48 89 85 b8 f1 ff ff 	mov    %rax,-0xe48(%rbp)
    dacd:	48 8d 85 60 e7 ff ff 	lea    -0x18a0(%rbp),%rax
    dad4:	48 89 85 c0 f1 ff ff 	mov    %rax,-0xe40(%rbp)
    dadb:	48 8d 85 60 e7 ff ff 	lea    -0x18a0(%rbp),%rax
    dae2:	48 89 85 c8 f1 ff ff 	mov    %rax,-0xe38(%rbp)
    dae9:	48 8d 85 60 e7 ff ff 	lea    -0x18a0(%rbp),%rax
    daf0:	48 89 85 d0 f1 ff ff 	mov    %rax,-0xe30(%rbp)
    daf7:	48 8d 85 60 e7 ff ff 	lea    -0x18a0(%rbp),%rax
    dafe:	48 89 85 d8 f1 ff ff 	mov    %rax,-0xe28(%rbp)
    db05:	48 c7 85 e0 f1 ff ff 	movq   $0x0,-0xe20(%rbp)
    db0c:	00 00 00 00 
    db10:	48 8d 85 60 e7 ff ff 	lea    -0x18a0(%rbp),%rax
    db17:	48 89 85 e8 f1 ff ff 	mov    %rax,-0xe18(%rbp)
    db1e:	48 8d 85 60 e7 ff ff 	lea    -0x18a0(%rbp),%rax
    db25:	48 89 85 f0 f1 ff ff 	mov    %rax,-0xe10(%rbp)
    db2c:	48 8d 85 60 e7 ff ff 	lea    -0x18a0(%rbp),%rax
    db33:	48 89 85 f8 f1 ff ff 	mov    %rax,-0xe08(%rbp)
    db3a:	48 8d 85 60 e7 ff ff 	lea    -0x18a0(%rbp),%rax
    db41:	48 89 85 00 f2 ff ff 	mov    %rax,-0xe00(%rbp)
    db48:	48 8d 85 60 e7 ff ff 	lea    -0x18a0(%rbp),%rax
    db4f:	48 89 85 08 f2 ff ff 	mov    %rax,-0xdf8(%rbp)
    db56:	48 8d 85 60 e7 ff ff 	lea    -0x18a0(%rbp),%rax
    db5d:	48 89 85 10 f2 ff ff 	mov    %rax,-0xdf0(%rbp)
    db64:	48 8d 85 60 e7 ff ff 	lea    -0x18a0(%rbp),%rax
    db6b:	48 89 85 18 f2 ff ff 	mov    %rax,-0xde8(%rbp)
    db72:	48 8d 85 60 e7 ff ff 	lea    -0x18a0(%rbp),%rax
    db79:	48 89 85 20 f2 ff ff 	mov    %rax,-0xde0(%rbp)
    db80:	48 8d 85 60 e7 ff ff 	lea    -0x18a0(%rbp),%rax
    db87:	48 89 85 28 f2 ff ff 	mov    %rax,-0xdd8(%rbp)
    db8e:	48 8d 85 60 e7 ff ff 	lea    -0x18a0(%rbp),%rax
    db95:	48 89 85 30 f2 ff ff 	mov    %rax,-0xdd0(%rbp)
    db9c:	48 8d 85 60 e7 ff ff 	lea    -0x18a0(%rbp),%rax
    dba3:	48 89 85 38 f2 ff ff 	mov    %rax,-0xdc8(%rbp)
    dbaa:	48 8d 85 60 e7 ff ff 	lea    -0x18a0(%rbp),%rax
    dbb1:	48 89 85 40 f2 ff ff 	mov    %rax,-0xdc0(%rbp)
    dbb8:	48 c7 85 48 f2 ff ff 	movq   $0x0,-0xdb8(%rbp)
    dbbf:	00 00 00 00 
    dbc3:	48 8d 85 60 e7 ff ff 	lea    -0x18a0(%rbp),%rax
    dbca:	48 89 85 50 f2 ff ff 	mov    %rax,-0xdb0(%rbp)
    dbd1:	48 8d 85 60 e7 ff ff 	lea    -0x18a0(%rbp),%rax
    dbd8:	48 89 85 58 f2 ff ff 	mov    %rax,-0xda8(%rbp)
    dbdf:	48 8d 85 60 e7 ff ff 	lea    -0x18a0(%rbp),%rax
    dbe6:	48 89 85 60 f2 ff ff 	mov    %rax,-0xda0(%rbp)
    dbed:	48 8d 85 60 e7 ff ff 	lea    -0x18a0(%rbp),%rax
    dbf4:	48 89 85 68 f2 ff ff 	mov    %rax,-0xd98(%rbp)
    dbfb:	48 8d 85 60 e7 ff ff 	lea    -0x18a0(%rbp),%rax
    dc02:	48 89 85 70 f2 ff ff 	mov    %rax,-0xd90(%rbp)
    dc09:	48 8d 85 60 e7 ff ff 	lea    -0x18a0(%rbp),%rax
    dc10:	48 89 85 78 f2 ff ff 	mov    %rax,-0xd88(%rbp)
    dc17:	48 8d 85 60 e7 ff ff 	lea    -0x18a0(%rbp),%rax
    dc1e:	48 89 85 80 f2 ff ff 	mov    %rax,-0xd80(%rbp)
    dc25:	48 8d 85 60 e7 ff ff 	lea    -0x18a0(%rbp),%rax
    dc2c:	48 89 85 88 f2 ff ff 	mov    %rax,-0xd78(%rbp)
    dc33:	48 8d 85 60 e7 ff ff 	lea    -0x18a0(%rbp),%rax
    dc3a:	48 89 85 90 f2 ff ff 	mov    %rax,-0xd70(%rbp)
    dc41:	48 8d 85 60 e7 ff ff 	lea    -0x18a0(%rbp),%rax
    dc48:	48 89 85 98 f2 ff ff 	mov    %rax,-0xd68(%rbp)
    dc4f:	48 8d 85 60 e7 ff ff 	lea    -0x18a0(%rbp),%rax
    dc56:	48 89 85 a0 f2 ff ff 	mov    %rax,-0xd60(%rbp)
    dc5d:	48 8d 85 60 e7 ff ff 	lea    -0x18a0(%rbp),%rax
    dc64:	48 89 85 a8 f2 ff ff 	mov    %rax,-0xd58(%rbp)
    dc6b:	48 8d 85 60 e7 ff ff 	lea    -0x18a0(%rbp),%rax
    dc72:	48 89 85 b0 f2 ff ff 	mov    %rax,-0xd50(%rbp)
    dc79:	48 8d 85 60 e7 ff ff 	lea    -0x18a0(%rbp),%rax
    dc80:	48 89 85 b8 f2 ff ff 	mov    %rax,-0xd48(%rbp)
    dc87:	48 8d 85 60 e7 ff ff 	lea    -0x18a0(%rbp),%rax
    dc8e:	48 89 85 c0 f2 ff ff 	mov    %rax,-0xd40(%rbp)
    dc95:	48 8d 85 60 e7 ff ff 	lea    -0x18a0(%rbp),%rax
    dc9c:	48 89 85 c8 f2 ff ff 	mov    %rax,-0xd38(%rbp)
    dca3:	48 c7 85 d0 f2 ff ff 	movq   $0x0,-0xd30(%rbp)
    dcaa:	00 00 00 00 
    dcae:	48 8d 85 60 e7 ff ff 	lea    -0x18a0(%rbp),%rax
    dcb5:	48 89 85 d8 f2 ff ff 	mov    %rax,-0xd28(%rbp)
    dcbc:	48 8d 85 60 e7 ff ff 	lea    -0x18a0(%rbp),%rax
    dcc3:	48 89 85 e0 f2 ff ff 	mov    %rax,-0xd20(%rbp)
    dcca:	48 8d 85 60 e7 ff ff 	lea    -0x18a0(%rbp),%rax
    dcd1:	48 89 85 e8 f2 ff ff 	mov    %rax,-0xd18(%rbp)
    dcd8:	48 8d 85 60 e7 ff ff 	lea    -0x18a0(%rbp),%rax
    dcdf:	48 89 85 f0 f2 ff ff 	mov    %rax,-0xd10(%rbp)
    dce6:	48 c7 85 f8 f2 ff ff 	movq   $0x0,-0xd08(%rbp)
    dced:	00 00 00 00 
    dcf1:	48 8d 85 60 e7 ff ff 	lea    -0x18a0(%rbp),%rax
    dcf8:	48 89 85 00 f3 ff ff 	mov    %rax,-0xd00(%rbp)
    dcff:	48 8d 85 60 e7 ff ff 	lea    -0x18a0(%rbp),%rax
    dd06:	48 89 85 08 f3 ff ff 	mov    %rax,-0xcf8(%rbp)
    dd0d:	48 c7 85 10 f3 ff ff 	movq   $0x0,-0xcf0(%rbp)
    dd14:	00 00 00 00 
    dd18:	48 8d 85 60 e7 ff ff 	lea    -0x18a0(%rbp),%rax
    dd1f:	48 89 85 18 f3 ff ff 	mov    %rax,-0xce8(%rbp)
    dd26:	48 8d 85 60 e7 ff ff 	lea    -0x18a0(%rbp),%rax
    dd2d:	48 89 85 20 f3 ff ff 	mov    %rax,-0xce0(%rbp)
    dd34:	48 8d 85 60 e7 ff ff 	lea    -0x18a0(%rbp),%rax
    dd3b:	48 89 85 28 f3 ff ff 	mov    %rax,-0xcd8(%rbp)
    dd42:	48 8d 85 60 e7 ff ff 	lea    -0x18a0(%rbp),%rax
    dd49:	48 89 85 30 f3 ff ff 	mov    %rax,-0xcd0(%rbp)
    dd50:	48 8d 85 60 e7 ff ff 	lea    -0x18a0(%rbp),%rax
    dd57:	48 89 85 38 f3 ff ff 	mov    %rax,-0xcc8(%rbp)
    dd5e:	48 8d 85 60 e7 ff ff 	lea    -0x18a0(%rbp),%rax
    dd65:	48 89 85 40 f3 ff ff 	mov    %rax,-0xcc0(%rbp)
    dd6c:	48 8d 85 60 e7 ff ff 	lea    -0x18a0(%rbp),%rax
    dd73:	48 89 85 48 f3 ff ff 	mov    %rax,-0xcb8(%rbp)
    dd7a:	48 8d 85 60 e7 ff ff 	lea    -0x18a0(%rbp),%rax
    dd81:	48 89 85 50 f3 ff ff 	mov    %rax,-0xcb0(%rbp)
    dd88:	48 8d 85 60 e7 ff ff 	lea    -0x18a0(%rbp),%rax
    dd8f:	48 89 85 58 f3 ff ff 	mov    %rax,-0xca8(%rbp)
    dd96:	48 8d 85 60 e7 ff ff 	lea    -0x18a0(%rbp),%rax
    dd9d:	48 89 85 60 f3 ff ff 	mov    %rax,-0xca0(%rbp)
    dda4:	48 8d 85 60 e7 ff ff 	lea    -0x18a0(%rbp),%rax
    ddab:	48 89 85 68 f3 ff ff 	mov    %rax,-0xc98(%rbp)
    ddb2:	48 8d 85 60 e7 ff ff 	lea    -0x18a0(%rbp),%rax
    ddb9:	48 89 85 70 f3 ff ff 	mov    %rax,-0xc90(%rbp)
    ddc0:	48 8d 85 60 e7 ff ff 	lea    -0x18a0(%rbp),%rax
    ddc7:	48 89 85 78 f3 ff ff 	mov    %rax,-0xc88(%rbp)
    ddce:	48 8d 85 60 e7 ff ff 	lea    -0x18a0(%rbp),%rax
    ddd5:	48 89 85 80 f3 ff ff 	mov    %rax,-0xc80(%rbp)
    dddc:	48 8d 85 60 e7 ff ff 	lea    -0x18a0(%rbp),%rax
    dde3:	48 89 85 88 f3 ff ff 	mov    %rax,-0xc78(%rbp)
    ddea:	48 8d 85 60 e7 ff ff 	lea    -0x18a0(%rbp),%rax
    ddf1:	48 89 85 90 f3 ff ff 	mov    %rax,-0xc70(%rbp)
    ddf8:	48 8d 85 60 e7 ff ff 	lea    -0x18a0(%rbp),%rax
    ddff:	48 89 85 98 f3 ff ff 	mov    %rax,-0xc68(%rbp)
    de06:	48 8d 85 60 e7 ff ff 	lea    -0x18a0(%rbp),%rax
    de0d:	48 89 85 a0 f3 ff ff 	mov    %rax,-0xc60(%rbp)
    de14:	48 8d 85 60 e7 ff ff 	lea    -0x18a0(%rbp),%rax
    de1b:	48 89 85 a8 f3 ff ff 	mov    %rax,-0xc58(%rbp)
    de22:	48 8d 85 60 e7 ff ff 	lea    -0x18a0(%rbp),%rax
    de29:	48 89 85 b0 f3 ff ff 	mov    %rax,-0xc50(%rbp)
    de30:	48 8d 85 60 e7 ff ff 	lea    -0x18a0(%rbp),%rax
    de37:	48 89 85 b8 f3 ff ff 	mov    %rax,-0xc48(%rbp)
    de3e:	48 8d 85 60 e7 ff ff 	lea    -0x18a0(%rbp),%rax
    de45:	48 89 85 c0 f3 ff ff 	mov    %rax,-0xc40(%rbp)
    de4c:	48 8d 85 60 e7 ff ff 	lea    -0x18a0(%rbp),%rax
    de53:	48 89 85 c8 f3 ff ff 	mov    %rax,-0xc38(%rbp)
    de5a:	48 c7 85 d0 f3 ff ff 	movq   $0x0,-0xc30(%rbp)
    de61:	00 00 00 00 
    de65:	48 8d 85 60 e7 ff ff 	lea    -0x18a0(%rbp),%rax
    de6c:	48 89 85 d8 f3 ff ff 	mov    %rax,-0xc28(%rbp)
    de73:	48 8d 85 60 e7 ff ff 	lea    -0x18a0(%rbp),%rax
    de7a:	48 89 85 e0 f3 ff ff 	mov    %rax,-0xc20(%rbp)
    de81:	48 8d 85 60 e7 ff ff 	lea    -0x18a0(%rbp),%rax
    de88:	48 89 85 e8 f3 ff ff 	mov    %rax,-0xc18(%rbp)
    de8f:	48 8d 85 60 e7 ff ff 	lea    -0x18a0(%rbp),%rax
    de96:	48 89 85 f0 f3 ff ff 	mov    %rax,-0xc10(%rbp)
    de9d:	48 8d 85 60 e7 ff ff 	lea    -0x18a0(%rbp),%rax
    dea4:	48 89 85 f8 f3 ff ff 	mov    %rax,-0xc08(%rbp)
    deab:	48 c7 85 00 f4 ff ff 	movq   $0x0,-0xc00(%rbp)
    deb2:	00 00 00 00 
    deb6:	48 8d 85 60 e7 ff ff 	lea    -0x18a0(%rbp),%rax
    debd:	48 89 85 08 f4 ff ff 	mov    %rax,-0xbf8(%rbp)
    dec4:	48 c7 85 10 f4 ff ff 	movq   $0x0,-0xbf0(%rbp)
    decb:	00 00 00 00 
    decf:	48 8d 85 60 e7 ff ff 	lea    -0x18a0(%rbp),%rax
    ded6:	48 89 85 18 f4 ff ff 	mov    %rax,-0xbe8(%rbp)
    dedd:	48 c7 85 20 f4 ff ff 	movq   $0x0,-0xbe0(%rbp)
    dee4:	00 00 00 00 
    dee8:	48 8d 85 60 e7 ff ff 	lea    -0x18a0(%rbp),%rax
    deef:	48 89 85 28 f4 ff ff 	mov    %rax,-0xbd8(%rbp)
    def6:	48 8d 85 60 e7 ff ff 	lea    -0x18a0(%rbp),%rax
    defd:	48 89 85 30 f4 ff ff 	mov    %rax,-0xbd0(%rbp)
    df04:	48 c7 85 38 f4 ff ff 	movq   $0x0,-0xbc8(%rbp)
    df0b:	00 00 00 00 
    df0f:	48 8d 85 60 e7 ff ff 	lea    -0x18a0(%rbp),%rax
    df16:	48 89 85 40 f4 ff ff 	mov    %rax,-0xbc0(%rbp)
    df1d:	48 8d 85 60 e7 ff ff 	lea    -0x18a0(%rbp),%rax
    df24:	48 89 85 48 f4 ff ff 	mov    %rax,-0xbb8(%rbp)
    df2b:	48 c7 85 50 f4 ff ff 	movq   $0x0,-0xbb0(%rbp)
    df32:	00 00 00 00 
    df36:	48 8d 85 60 e7 ff ff 	lea    -0x18a0(%rbp),%rax
    df3d:	48 89 85 58 f4 ff ff 	mov    %rax,-0xba8(%rbp)
    df44:	48 8d 85 60 e7 ff ff 	lea    -0x18a0(%rbp),%rax
    df4b:	48 89 85 60 f4 ff ff 	mov    %rax,-0xba0(%rbp)
    df52:	48 8d 85 60 e7 ff ff 	lea    -0x18a0(%rbp),%rax
    df59:	48 89 85 68 f4 ff ff 	mov    %rax,-0xb98(%rbp)
    df60:	48 8d 85 60 e7 ff ff 	lea    -0x18a0(%rbp),%rax
    df67:	48 89 85 70 f4 ff ff 	mov    %rax,-0xb90(%rbp)
    df6e:	48 c7 85 78 f4 ff ff 	movq   $0x0,-0xb88(%rbp)
    df75:	00 00 00 00 
    df79:	48 c7 85 80 f4 ff ff 	movq   $0x0,-0xb80(%rbp)
    df80:	00 00 00 00 
    df84:	48 8d 85 60 e7 ff ff 	lea    -0x18a0(%rbp),%rax
    df8b:	48 89 85 88 f4 ff ff 	mov    %rax,-0xb78(%rbp)
    df92:	48 8d 85 60 e7 ff ff 	lea    -0x18a0(%rbp),%rax
    df99:	48 89 85 90 f4 ff ff 	mov    %rax,-0xb70(%rbp)
    dfa0:	48 c7 85 98 f4 ff ff 	movq   $0x0,-0xb68(%rbp)
    dfa7:	00 00 00 00 
    dfab:	48 c7 85 a0 f4 ff ff 	movq   $0x0,-0xb60(%rbp)
    dfb2:	00 00 00 00 
    dfb6:	48 8d 85 60 e7 ff ff 	lea    -0x18a0(%rbp),%rax
    dfbd:	48 89 85 a8 f4 ff ff 	mov    %rax,-0xb58(%rbp)
    dfc4:	48 8d 85 60 e7 ff ff 	lea    -0x18a0(%rbp),%rax
    dfcb:	48 89 85 b0 f4 ff ff 	mov    %rax,-0xb50(%rbp)
    dfd2:	48 8d 85 60 e7 ff ff 	lea    -0x18a0(%rbp),%rax
    dfd9:	48 89 85 b8 f4 ff ff 	mov    %rax,-0xb48(%rbp)
    dfe0:	48 c7 85 c0 f4 ff ff 	movq   $0x0,-0xb40(%rbp)
    dfe7:	00 00 00 00 
    dfeb:	48 8d 85 60 e7 ff ff 	lea    -0x18a0(%rbp),%rax
    dff2:	48 89 85 c8 f4 ff ff 	mov    %rax,-0xb38(%rbp)
    dff9:	48 8d 85 60 e7 ff ff 	lea    -0x18a0(%rbp),%rax
    e000:	48 89 85 d0 f4 ff ff 	mov    %rax,-0xb30(%rbp)
    e007:	48 8d 85 60 e7 ff ff 	lea    -0x18a0(%rbp),%rax
    e00e:	48 89 85 d8 f4 ff ff 	mov    %rax,-0xb28(%rbp)
    e015:	48 8d 85 60 e7 ff ff 	lea    -0x18a0(%rbp),%rax
    e01c:	48 89 85 e0 f4 ff ff 	mov    %rax,-0xb20(%rbp)
    e023:	48 8d 85 60 e7 ff ff 	lea    -0x18a0(%rbp),%rax
    e02a:	48 89 85 e8 f4 ff ff 	mov    %rax,-0xb18(%rbp)
    e031:	48 8d 85 60 e7 ff ff 	lea    -0x18a0(%rbp),%rax
    e038:	48 89 85 f0 f4 ff ff 	mov    %rax,-0xb10(%rbp)
    e03f:	48 c7 85 f8 f4 ff ff 	movq   $0x0,-0xb08(%rbp)
    e046:	00 00 00 00 
    e04a:	48 8d 85 60 e7 ff ff 	lea    -0x18a0(%rbp),%rax
    e051:	48 89 85 00 f5 ff ff 	mov    %rax,-0xb00(%rbp)
    e058:	48 8d 85 60 e7 ff ff 	lea    -0x18a0(%rbp),%rax
    e05f:	48 89 85 08 f5 ff ff 	mov    %rax,-0xaf8(%rbp)
    e066:	48 8d 85 60 e7 ff ff 	lea    -0x18a0(%rbp),%rax
    e06d:	48 89 85 10 f5 ff ff 	mov    %rax,-0xaf0(%rbp)
    e074:	48 8d 85 60 e7 ff ff 	lea    -0x18a0(%rbp),%rax
    e07b:	48 89 85 18 f5 ff ff 	mov    %rax,-0xae8(%rbp)
    e082:	48 c7 85 20 f5 ff ff 	movq   $0x0,-0xae0(%rbp)
    e089:	00 00 00 00 
    e08d:	48 c7 85 28 f5 ff ff 	movq   $0x0,-0xad8(%rbp)
    e094:	00 00 00 00 
    e098:	48 8d 85 60 e7 ff ff 	lea    -0x18a0(%rbp),%rax
    e09f:	48 89 85 30 f5 ff ff 	mov    %rax,-0xad0(%rbp)
    e0a6:	48 8d 85 60 e7 ff ff 	lea    -0x18a0(%rbp),%rax
    e0ad:	48 89 85 38 f5 ff ff 	mov    %rax,-0xac8(%rbp)
    e0b4:	48 8d 85 60 e7 ff ff 	lea    -0x18a0(%rbp),%rax
    e0bb:	48 89 85 40 f5 ff ff 	mov    %rax,-0xac0(%rbp)
    e0c2:	48 8d 85 60 e7 ff ff 	lea    -0x18a0(%rbp),%rax
    e0c9:	48 89 85 48 f5 ff ff 	mov    %rax,-0xab8(%rbp)
    e0d0:	48 8d 85 60 e7 ff ff 	lea    -0x18a0(%rbp),%rax
    e0d7:	48 89 85 50 f5 ff ff 	mov    %rax,-0xab0(%rbp)
    e0de:	48 8d 85 60 e7 ff ff 	lea    -0x18a0(%rbp),%rax
    e0e5:	48 89 85 58 f5 ff ff 	mov    %rax,-0xaa8(%rbp)
    e0ec:	48 8d 85 60 e7 ff ff 	lea    -0x18a0(%rbp),%rax
    e0f3:	48 89 85 60 f5 ff ff 	mov    %rax,-0xaa0(%rbp)
    e0fa:	48 8d 85 60 e7 ff ff 	lea    -0x18a0(%rbp),%rax
    e101:	48 89 85 68 f5 ff ff 	mov    %rax,-0xa98(%rbp)
    e108:	48 8d 85 60 e7 ff ff 	lea    -0x18a0(%rbp),%rax
    e10f:	48 89 85 70 f5 ff ff 	mov    %rax,-0xa90(%rbp)
    e116:	48 8d 85 60 e7 ff ff 	lea    -0x18a0(%rbp),%rax
    e11d:	48 89 85 78 f5 ff ff 	mov    %rax,-0xa88(%rbp)
    e124:	48 8d 85 60 e7 ff ff 	lea    -0x18a0(%rbp),%rax
    e12b:	48 89 85 80 f5 ff ff 	mov    %rax,-0xa80(%rbp)
    e132:	48 c7 85 88 f5 ff ff 	movq   $0x0,-0xa78(%rbp)
    e139:	00 00 00 00 
    e13d:	48 8d 85 60 e7 ff ff 	lea    -0x18a0(%rbp),%rax
    e144:	48 89 85 90 f5 ff ff 	mov    %rax,-0xa70(%rbp)
    e14b:	48 8d 85 60 e7 ff ff 	lea    -0x18a0(%rbp),%rax
    e152:	48 89 85 98 f5 ff ff 	mov    %rax,-0xa68(%rbp)
    e159:	48 c7 85 a0 f5 ff ff 	movq   $0x0,-0xa60(%rbp)
    e160:	00 00 00 00 
    e164:	48 8d 85 60 e7 ff ff 	lea    -0x18a0(%rbp),%rax
    e16b:	48 89 85 a8 f5 ff ff 	mov    %rax,-0xa58(%rbp)
    e172:	48 8d 85 60 e7 ff ff 	lea    -0x18a0(%rbp),%rax
    e179:	48 89 85 b0 f5 ff ff 	mov    %rax,-0xa50(%rbp)
    e180:	48 8d 85 60 e7 ff ff 	lea    -0x18a0(%rbp),%rax
    e187:	48 89 85 b8 f5 ff ff 	mov    %rax,-0xa48(%rbp)
    e18e:	48 8d 85 60 e7 ff ff 	lea    -0x18a0(%rbp),%rax
    e195:	48 89 85 c0 f5 ff ff 	mov    %rax,-0xa40(%rbp)
    e19c:	48 8d 85 60 e7 ff ff 	lea    -0x18a0(%rbp),%rax
    e1a3:	48 89 85 c8 f5 ff ff 	mov    %rax,-0xa38(%rbp)
    e1aa:	48 c7 85 d0 f5 ff ff 	movq   $0x0,-0xa30(%rbp)
    e1b1:	00 00 00 00 
    e1b5:	48 8d 85 60 e7 ff ff 	lea    -0x18a0(%rbp),%rax
    e1bc:	48 89 85 d8 f5 ff ff 	mov    %rax,-0xa28(%rbp)
    e1c3:	48 c7 85 e0 f5 ff ff 	movq   $0x0,-0xa20(%rbp)
    e1ca:	00 00 00 00 
    e1ce:	48 c7 85 e8 f5 ff ff 	movq   $0x0,-0xa18(%rbp)
    e1d5:	00 00 00 00 
    e1d9:	48 8d 85 60 e7 ff ff 	lea    -0x18a0(%rbp),%rax
    e1e0:	48 89 85 f0 f5 ff ff 	mov    %rax,-0xa10(%rbp)
    e1e7:	48 8d 85 60 e7 ff ff 	lea    -0x18a0(%rbp),%rax
    e1ee:	48 89 85 f8 f5 ff ff 	mov    %rax,-0xa08(%rbp)
    e1f5:	48 c7 85 00 f6 ff ff 	movq   $0x0,-0xa00(%rbp)
    e1fc:	00 00 00 00 
    e200:	48 8d 85 60 e7 ff ff 	lea    -0x18a0(%rbp),%rax
    e207:	48 89 85 08 f6 ff ff 	mov    %rax,-0x9f8(%rbp)
    e20e:	48 8d 85 60 e7 ff ff 	lea    -0x18a0(%rbp),%rax
    e215:	48 89 85 10 f6 ff ff 	mov    %rax,-0x9f0(%rbp)
    e21c:	48 8d 85 60 e7 ff ff 	lea    -0x18a0(%rbp),%rax
    e223:	48 89 85 18 f6 ff ff 	mov    %rax,-0x9e8(%rbp)
    e22a:	48 8d 85 60 e7 ff ff 	lea    -0x18a0(%rbp),%rax
    e231:	48 89 85 20 f6 ff ff 	mov    %rax,-0x9e0(%rbp)
    e238:	48 8d 85 60 e7 ff ff 	lea    -0x18a0(%rbp),%rax
    e23f:	48 89 85 28 f6 ff ff 	mov    %rax,-0x9d8(%rbp)
    e246:	48 8d 85 60 e7 ff ff 	lea    -0x18a0(%rbp),%rax
    e24d:	48 89 85 30 f6 ff ff 	mov    %rax,-0x9d0(%rbp)
    e254:	48 8d 85 60 e7 ff ff 	lea    -0x18a0(%rbp),%rax
    e25b:	48 89 85 38 f6 ff ff 	mov    %rax,-0x9c8(%rbp)
    e262:	48 c7 85 40 f6 ff ff 	movq   $0x0,-0x9c0(%rbp)
    e269:	00 00 00 00 
    e26d:	48 8d 85 60 e7 ff ff 	lea    -0x18a0(%rbp),%rax
    e274:	48 89 85 48 f6 ff ff 	mov    %rax,-0x9b8(%rbp)
    e27b:	48 c7 85 50 f6 ff ff 	movq   $0x0,-0x9b0(%rbp)
    e282:	00 00 00 00 
    e286:	48 8d 85 60 e7 ff ff 	lea    -0x18a0(%rbp),%rax
    e28d:	48 89 85 58 f6 ff ff 	mov    %rax,-0x9a8(%rbp)
    e294:	48 8d 85 60 e7 ff ff 	lea    -0x18a0(%rbp),%rax
    e29b:	48 89 85 60 f6 ff ff 	mov    %rax,-0x9a0(%rbp)
    e2a2:	48 8d 85 60 e7 ff ff 	lea    -0x18a0(%rbp),%rax
    e2a9:	48 89 85 68 f6 ff ff 	mov    %rax,-0x998(%rbp)
    e2b0:	48 8d 85 60 e7 ff ff 	lea    -0x18a0(%rbp),%rax
    e2b7:	48 89 85 70 f6 ff ff 	mov    %rax,-0x990(%rbp)
    e2be:	48 8d 85 60 e7 ff ff 	lea    -0x18a0(%rbp),%rax
    e2c5:	48 89 85 78 f6 ff ff 	mov    %rax,-0x988(%rbp)
    e2cc:	48 c7 85 80 f6 ff ff 	movq   $0x0,-0x980(%rbp)
    e2d3:	00 00 00 00 
    e2d7:	48 8d 85 60 e7 ff ff 	lea    -0x18a0(%rbp),%rax
    e2de:	48 89 85 88 f6 ff ff 	mov    %rax,-0x978(%rbp)
    e2e5:	48 8d 85 60 e7 ff ff 	lea    -0x18a0(%rbp),%rax
    e2ec:	48 89 85 90 f6 ff ff 	mov    %rax,-0x970(%rbp)
    e2f3:	48 8d 85 60 e7 ff ff 	lea    -0x18a0(%rbp),%rax
    e2fa:	48 89 85 98 f6 ff ff 	mov    %rax,-0x968(%rbp)
    e301:	48 8d 85 60 e7 ff ff 	lea    -0x18a0(%rbp),%rax
    e308:	48 89 85 a0 f6 ff ff 	mov    %rax,-0x960(%rbp)
    e30f:	48 8d 85 60 e7 ff ff 	lea    -0x18a0(%rbp),%rax
    e316:	48 89 85 a8 f6 ff ff 	mov    %rax,-0x958(%rbp)
    e31d:	48 8d 85 60 e7 ff ff 	lea    -0x18a0(%rbp),%rax
    e324:	48 89 85 b0 f6 ff ff 	mov    %rax,-0x950(%rbp)
    e32b:	48 8d 85 60 e7 ff ff 	lea    -0x18a0(%rbp),%rax
    e332:	48 89 85 b8 f6 ff ff 	mov    %rax,-0x948(%rbp)
    e339:	48 8d 85 60 e7 ff ff 	lea    -0x18a0(%rbp),%rax
    e340:	48 89 85 c0 f6 ff ff 	mov    %rax,-0x940(%rbp)
    e347:	48 8d 85 60 e7 ff ff 	lea    -0x18a0(%rbp),%rax
    e34e:	48 89 85 c8 f6 ff ff 	mov    %rax,-0x938(%rbp)
    e355:	48 8d 85 60 e7 ff ff 	lea    -0x18a0(%rbp),%rax
    e35c:	48 89 85 d0 f6 ff ff 	mov    %rax,-0x930(%rbp)
    e363:	48 8d 85 60 e7 ff ff 	lea    -0x18a0(%rbp),%rax
    e36a:	48 89 85 d8 f6 ff ff 	mov    %rax,-0x928(%rbp)
    e371:	48 8d 85 60 e7 ff ff 	lea    -0x18a0(%rbp),%rax
    e378:	48 89 85 e0 f6 ff ff 	mov    %rax,-0x920(%rbp)
    e37f:	48 8d 85 60 e7 ff ff 	lea    -0x18a0(%rbp),%rax
    e386:	48 89 85 e8 f6 ff ff 	mov    %rax,-0x918(%rbp)
    e38d:	48 8d 85 60 e7 ff ff 	lea    -0x18a0(%rbp),%rax
    e394:	48 89 85 f0 f6 ff ff 	mov    %rax,-0x910(%rbp)
    e39b:	48 8d 85 60 e7 ff ff 	lea    -0x18a0(%rbp),%rax
    e3a2:	48 89 85 f8 f6 ff ff 	mov    %rax,-0x908(%rbp)
    e3a9:	48 8d 85 60 e7 ff ff 	lea    -0x18a0(%rbp),%rax
    e3b0:	48 89 85 00 f7 ff ff 	mov    %rax,-0x900(%rbp)
    e3b7:	48 8d 85 60 e7 ff ff 	lea    -0x18a0(%rbp),%rax
    e3be:	48 89 85 08 f7 ff ff 	mov    %rax,-0x8f8(%rbp)
    e3c5:	48 8d 85 60 e7 ff ff 	lea    -0x18a0(%rbp),%rax
    e3cc:	48 89 85 10 f7 ff ff 	mov    %rax,-0x8f0(%rbp)
    e3d3:	48 8d 85 60 e7 ff ff 	lea    -0x18a0(%rbp),%rax
    e3da:	48 89 85 18 f7 ff ff 	mov    %rax,-0x8e8(%rbp)
    e3e1:	48 8d 85 60 e7 ff ff 	lea    -0x18a0(%rbp),%rax
    e3e8:	48 89 85 20 f7 ff ff 	mov    %rax,-0x8e0(%rbp)
    e3ef:	48 8d 85 60 e7 ff ff 	lea    -0x18a0(%rbp),%rax
    e3f6:	48 89 85 28 f7 ff ff 	mov    %rax,-0x8d8(%rbp)
    e3fd:	48 8d 85 60 e7 ff ff 	lea    -0x18a0(%rbp),%rax
    e404:	48 89 85 30 f7 ff ff 	mov    %rax,-0x8d0(%rbp)
    e40b:	48 8d 85 60 e7 ff ff 	lea    -0x18a0(%rbp),%rax
    e412:	48 89 85 38 f7 ff ff 	mov    %rax,-0x8c8(%rbp)
    e419:	48 8d 85 60 e7 ff ff 	lea    -0x18a0(%rbp),%rax
    e420:	48 89 85 40 f7 ff ff 	mov    %rax,-0x8c0(%rbp)
    e427:	48 8d 85 60 e7 ff ff 	lea    -0x18a0(%rbp),%rax
    e42e:	48 89 85 48 f7 ff ff 	mov    %rax,-0x8b8(%rbp)
    e435:	48 c7 85 50 f7 ff ff 	movq   $0x0,-0x8b0(%rbp)
    e43c:	00 00 00 00 
    e440:	48 8d 85 60 e7 ff ff 	lea    -0x18a0(%rbp),%rax
    e447:	48 89 85 58 f7 ff ff 	mov    %rax,-0x8a8(%rbp)
    e44e:	48 8d 85 60 e7 ff ff 	lea    -0x18a0(%rbp),%rax
    e455:	48 89 85 60 f7 ff ff 	mov    %rax,-0x8a0(%rbp)
    e45c:	48 8d 85 60 e7 ff ff 	lea    -0x18a0(%rbp),%rax
    e463:	48 89 85 68 f7 ff ff 	mov    %rax,-0x898(%rbp)
    e46a:	48 c7 85 70 f7 ff ff 	movq   $0x0,-0x890(%rbp)
    e471:	00 00 00 00 
    e475:	48 8d 85 60 e7 ff ff 	lea    -0x18a0(%rbp),%rax
    e47c:	48 89 85 78 f7 ff ff 	mov    %rax,-0x888(%rbp)
    e483:	48 8d 85 60 e7 ff ff 	lea    -0x18a0(%rbp),%rax
    e48a:	48 89 85 80 f7 ff ff 	mov    %rax,-0x880(%rbp)
    e491:	48 8d 85 60 e7 ff ff 	lea    -0x18a0(%rbp),%rax
    e498:	48 89 85 88 f7 ff ff 	mov    %rax,-0x878(%rbp)
    e49f:	48 8d 85 60 e7 ff ff 	lea    -0x18a0(%rbp),%rax
    e4a6:	48 89 85 90 f7 ff ff 	mov    %rax,-0x870(%rbp)
    e4ad:	48 8d 85 60 e7 ff ff 	lea    -0x18a0(%rbp),%rax
    e4b4:	48 89 85 98 f7 ff ff 	mov    %rax,-0x868(%rbp)
    e4bb:	48 c7 85 a0 f7 ff ff 	movq   $0x0,-0x860(%rbp)
    e4c2:	00 00 00 00 
    e4c6:	48 c7 85 a8 f7 ff ff 	movq   $0x0,-0x858(%rbp)
    e4cd:	00 00 00 00 
    e4d1:	48 8d 85 60 e7 ff ff 	lea    -0x18a0(%rbp),%rax
    e4d8:	48 89 85 b0 f7 ff ff 	mov    %rax,-0x850(%rbp)
    e4df:	48 8d 85 60 e7 ff ff 	lea    -0x18a0(%rbp),%rax
    e4e6:	48 89 85 b8 f7 ff ff 	mov    %rax,-0x848(%rbp)
    e4ed:	48 8d 85 60 e7 ff ff 	lea    -0x18a0(%rbp),%rax
    e4f4:	48 89 85 c0 f7 ff ff 	mov    %rax,-0x840(%rbp)
    e4fb:	48 8d 85 60 e7 ff ff 	lea    -0x18a0(%rbp),%rax
    e502:	48 89 85 c8 f7 ff ff 	mov    %rax,-0x838(%rbp)
    e509:	48 8d 85 60 e7 ff ff 	lea    -0x18a0(%rbp),%rax
    e510:	48 89 85 d0 f7 ff ff 	mov    %rax,-0x830(%rbp)
    e517:	48 8d 05 ea ab 00 00 	lea    0xabea(%rip),%rax        # 19108 <g_578>
    e51e:	48 89 85 68 e7 ff ff 	mov    %rax,-0x1898(%rbp)
    e525:	48 8d 85 68 e7 ff ff 	lea    -0x1898(%rbp),%rax
    e52c:	48 89 85 a0 e7 ff ff 	mov    %rax,-0x1860(%rbp)
    e533:	48 8d 85 70 ed ff ff 	lea    -0x1290(%rbp),%rax
    e53a:	48 8d 15 ff c0 00 00 	lea    0xc0ff(%rip),%rdx        # 1a640 <g_1704+0xe38>
    e541:	b9 5a 00 00 00       	mov    $0x5a,%ecx
    e546:	48 89 c7             	mov    %rax,%rdi
    e549:	48 89 d6             	mov    %rdx,%rsi
    e54c:	f3 48 a5             	rep movsq %ds:(%rsi),%es:(%rdi)
    e54f:	c7 85 10 e7 ff ff 4a 	movl   $0x125d174a,-0x18f0(%rbp)
    e556:	17 5d 12 
    e559:	48 c7 85 70 e7 ff ff 	movq   $0x0,-0x1890(%rbp)
    e560:	00 00 00 00 
    e564:	48 8d 85 70 e7 ff ff 	lea    -0x1890(%rbp),%rax
    e56b:	48 89 85 a8 e7 ff ff 	mov    %rax,-0x1858(%rbp)
    e572:	48 c7 85 b0 e7 ff ff 	movq   $0x0,-0x1850(%rbp)
    e579:	00 00 00 00 
    e57d:	c6 85 04 e7 ff ff 01 	movb   $0x1,-0x18fc(%rbp)
    e584:	48 c7 85 78 e7 ff ff 	movq   $0x0,-0x1888(%rbp)
    e58b:	00 00 00 00 
    e58f:	48 8d 85 78 e7 ff ff 	lea    -0x1888(%rbp),%rax
    e596:	48 89 85 b8 e7 ff ff 	mov    %rax,-0x1848(%rbp)
    e59d:	48 c7 85 c0 e7 ff ff 	movq   $0x0,-0x1840(%rbp)
    e5a4:	00 00 00 00 
    e5a8:	48 8d 05 11 e7 00 00 	lea    0xe711(%rip),%rax        # 1ccc0 <g_729>
    e5af:	48 89 85 c8 e7 ff ff 	mov    %rax,-0x1838(%rbp)
    e5b6:	48 8d 05 03 e7 00 00 	lea    0xe703(%rip),%rax        # 1ccc0 <g_729>
    e5bd:	48 89 85 d0 e7 ff ff 	mov    %rax,-0x1830(%rbp)
    e5c4:	48 8d 05 0b ab 00 00 	lea    0xab0b(%rip),%rax        # 190d6 <g_282>
    e5cb:	48 89 85 d8 e7 ff ff 	mov    %rax,-0x1828(%rbp)
    e5d2:	c7 85 14 e7 ff ff 00 	movl   $0x0,-0x18ec(%rbp)
    e5d9:	00 00 00 
    e5dc:	eb 1e                	jmp    e5fc <func_73+0xea4>
    e5de:	8b 85 14 e7 ff ff    	mov    -0x18ec(%rbp),%eax
    e5e4:	48 98                	cltq   
    e5e6:	48 8d 15 cb aa 00 00 	lea    0xaacb(%rip),%rdx        # 190b8 <g_187>
    e5ed:	48 89 94 c5 70 e8 ff 	mov    %rdx,-0x1790(%rbp,%rax,8)
    e5f4:	ff 
    e5f5:	83 85 14 e7 ff ff 01 	addl   $0x1,-0x18ec(%rbp)
    e5fc:	83 bd 14 e7 ff ff 01 	cmpl   $0x1,-0x18ec(%rbp)
    e603:	7e d9                	jle    e5de <func_73+0xe86>
    e605:	c7 85 14 e7 ff ff 00 	movl   $0x0,-0x18ec(%rbp)
    e60c:	00 00 00 
    e60f:	eb 46                	jmp    e657 <func_73+0xeff>
    e611:	c7 85 1c e7 ff ff 00 	movl   $0x0,-0x18e4(%rbp)
    e618:	00 00 00 
    e61b:	eb 2a                	jmp    e647 <func_73+0xeef>
    e61d:	8b 85 1c e7 ff ff    	mov    -0x18e4(%rbp),%eax
    e623:	48 98                	cltq   
    e625:	8b 95 14 e7 ff ff    	mov    -0x18ec(%rbp),%edx
    e62b:	48 63 d2             	movslq %edx,%rdx
    e62e:	48 c1 e2 02          	shl    $0x2,%rdx
    e632:	48 01 d0             	add    %rdx,%rax
    e635:	c7 84 85 10 e9 ff ff 	movl   $0x621bec3e,-0x16f0(%rbp,%rax,4)
    e63c:	3e ec 1b 62 
    e640:	83 85 1c e7 ff ff 01 	addl   $0x1,-0x18e4(%rbp)
    e647:	83 bd 1c e7 ff ff 03 	cmpl   $0x3,-0x18e4(%rbp)
    e64e:	7e cd                	jle    e61d <func_73+0xec5>
    e650:	83 85 14 e7 ff ff 01 	addl   $0x1,-0x18ec(%rbp)
    e657:	83 bd 14 e7 ff ff 03 	cmpl   $0x3,-0x18ec(%rbp)
    e65e:	7e b1                	jle    e611 <func_73+0xeb9>
    e660:	c7 85 14 e7 ff ff 00 	movl   $0x0,-0x18ec(%rbp)
    e667:	00 00 00 
    e66a:	eb 1e                	jmp    e68a <func_73+0xf32>
    e66c:	8b 85 14 e7 ff ff    	mov    -0x18ec(%rbp),%eax
    e672:	48 98                	cltq   
    e674:	48 8d 15 a1 aa 00 00 	lea    0xaaa1(%rip),%rdx        # 1911c <g_718>
    e67b:	48 89 94 c5 80 e8 ff 	mov    %rdx,-0x1780(%rbp,%rax,8)
    e682:	ff 
    e683:	83 85 14 e7 ff ff 01 	addl   $0x1,-0x18ec(%rbp)
    e68a:	83 bd 14 e7 ff ff 03 	cmpl   $0x3,-0x18ec(%rbp)
    e691:	7e d9                	jle    e66c <func_73+0xf14>
    e693:	8b 85 f8 ea ff ff    	mov    -0x1508(%rbp),%eax
    e699:	0f b6 d8             	movzbl %al,%ebx
    e69c:	8b 85 70 eb ff ff    	mov    -0x1490(%rbp),%eax
    e6a2:	44 0f b6 e0          	movzbl %al,%r12d
    e6a6:	8b 85 3c ed ff ff    	mov    -0x12c4(%rbp),%eax
    e6ac:	4c 63 e8             	movslq %eax,%r13
    e6af:	8b 85 6c ec ff ff    	mov    -0x1394(%rbp),%eax
    e6b5:	89 c6                	mov    %eax,%esi
    e6b7:	48 8b 85 58 e7 ff ff 	mov    -0x18a8(%rbp),%rax
    e6be:	48 8b 15 53 ca 00 00 	mov    0xca53(%rip),%rdx        # 1b118 <g_94>
    e6c5:	48 89 10             	mov    %rdx,(%rax)
    e6c8:	48 8b 08             	mov    (%rax),%rcx
    e6cb:	48 8b 85 50 e7 ff ff 	mov    -0x18b0(%rbp),%rax
    e6d2:	89 f2                	mov    %esi,%edx
    e6d4:	48 89 ce             	mov    %rcx,%rsi
    e6d7:	48 89 c7             	mov    %rax,%rdi
    e6da:	e8 d5 0f 00 00       	callq  f6b4 <func_89>
    e6df:	48 89 c7             	mov    %rax,%rdi
    e6e2:	48 8d 95 50 e7 ff ff 	lea    -0x18b0(%rbp),%rdx
    e6e9:	48 8b 85 f8 e6 ff ff 	mov    -0x1908(%rbp),%rax
    e6f0:	4c 89 e9             	mov    %r13,%rcx
    e6f3:	48 89 c6             	mov    %rax,%rsi
    e6f6:	e8 e8 0e 00 00       	callq  f5e3 <func_84>
    e6fb:	66 85 c0             	test   %ax,%ax
    e6fe:	74 07                	je     e707 <func_73+0xfaf>
    e700:	b8 01 00 00 00       	mov    $0x1,%eax
    e705:	eb 05                	jmp    e70c <func_73+0xfb4>
    e707:	b8 00 00 00 00       	mov    $0x0,%eax
    e70c:	98                   	cwtl   
    e70d:	be e9 56 00 00       	mov    $0x56e9,%esi
    e712:	89 c7                	mov    %eax,%edi
    e714:	e8 dc 9c ff ff       	callq  83f5 <safe_mul_func_int16_t_s_s>
    e719:	66 83 f8 79          	cmp    $0x79,%ax
    e71d:	0f 95 c0             	setne  %al
    e720:	0f b6 c0             	movzbl %al,%eax
    e723:	44 89 e6             	mov    %r12d,%esi
    e726:	89 c7                	mov    %eax,%edi
    e728:	e8 4b a4 ff ff       	callq  8b78 <safe_sub_func_uint8_t_u_u>
    e72d:	0f b6 c8             	movzbl %al,%ecx
    e730:	48 8b 85 90 e7 ff ff 	mov    -0x1870(%rbp),%rax
    e737:	89 da                	mov    %ebx,%edx
    e739:	89 ce                	mov    %ecx,%esi
    e73b:	48 89 c7             	mov    %rax,%rdi
    e73e:	e8 c1 0d 00 00       	callq  f504 <func_75>
    e743:	85 c0                	test   %eax,%eax
    e745:	74 28                	je     e76f <func_73+0x1017>
    e747:	48 c7 05 76 a9 00 00 	movq   $0x0,0xa976(%rip)        # 190c8 <g_254>
    e74e:	00 00 00 00 
    e752:	90                   	nop
    e753:	48 8b 05 6e a9 00 00 	mov    0xa96e(%rip),%rax        # 190c8 <g_254>
    e75a:	48 83 f8 14          	cmp    $0x14,%rax
    e75e:	0f 84 b3 0a 00 00    	je     f217 <func_73+0x1abf>
    e764:	8b 85 a0 ec ff ff    	mov    -0x1360(%rbp),%eax
    e76a:	e9 6f 0d 00 00       	jmpq   f4de <func_73+0x1d86>
    e76f:	48 8d 85 50 e7 ff ff 	lea    -0x18b0(%rbp),%rax
    e776:	48 89 85 80 e7 ff ff 	mov    %rax,-0x1880(%rbp)
    e77d:	48 8d 85 80 e7 ff ff 	lea    -0x1880(%rbp),%rax
    e784:	48 89 85 e0 e7 ff ff 	mov    %rax,-0x1820(%rbp)
    e78b:	48 8d 05 6e c9 00 00 	lea    0xc96e(%rip),%rax        # 1b100 <g_38>
    e792:	48 89 85 b0 e9 ff ff 	mov    %rax,-0x1650(%rbp)
    e799:	48 c7 85 b8 e9 ff ff 	movq   $0x0,-0x1648(%rbp)
    e7a0:	00 00 00 00 
    e7a4:	48 8d 05 55 c9 00 00 	lea    0xc955(%rip),%rax        # 1b100 <g_38>
    e7ab:	48 89 85 c0 e9 ff ff 	mov    %rax,-0x1640(%rbp)
    e7b2:	48 8d 05 47 c9 00 00 	lea    0xc947(%rip),%rax        # 1b100 <g_38>
    e7b9:	48 89 85 c8 e9 ff ff 	mov    %rax,-0x1638(%rbp)
    e7c0:	48 c7 85 d0 e9 ff ff 	movq   $0x0,-0x1630(%rbp)
    e7c7:	00 00 00 00 
    e7cb:	48 8d 05 2e c9 00 00 	lea    0xc92e(%rip),%rax        # 1b100 <g_38>
    e7d2:	48 89 85 d8 e9 ff ff 	mov    %rax,-0x1628(%rbp)
    e7d9:	48 8d 05 20 c9 00 00 	lea    0xc920(%rip),%rax        # 1b100 <g_38>
    e7e0:	48 89 85 e0 e9 ff ff 	mov    %rax,-0x1620(%rbp)
    e7e7:	48 8d 05 12 c9 00 00 	lea    0xc912(%rip),%rax        # 1b100 <g_38>
    e7ee:	48 89 85 e8 e9 ff ff 	mov    %rax,-0x1618(%rbp)
    e7f5:	48 8d 05 04 c9 00 00 	lea    0xc904(%rip),%rax        # 1b100 <g_38>
    e7fc:	48 89 85 f0 e9 ff ff 	mov    %rax,-0x1610(%rbp)
    e803:	48 8d 05 f6 c8 00 00 	lea    0xc8f6(%rip),%rax        # 1b100 <g_38>
    e80a:	48 89 85 f8 e9 ff ff 	mov    %rax,-0x1608(%rbp)
    e811:	48 8d 05 e8 c8 00 00 	lea    0xc8e8(%rip),%rax        # 1b100 <g_38>
    e818:	48 89 85 00 ea ff ff 	mov    %rax,-0x1600(%rbp)
    e81f:	48 8d 05 da c8 00 00 	lea    0xc8da(%rip),%rax        # 1b100 <g_38>
    e826:	48 89 85 08 ea ff ff 	mov    %rax,-0x15f8(%rbp)
    e82d:	48 8d 05 cc c8 00 00 	lea    0xc8cc(%rip),%rax        # 1b100 <g_38>
    e834:	48 89 85 10 ea ff ff 	mov    %rax,-0x15f0(%rbp)
    e83b:	48 8d 05 be c8 00 00 	lea    0xc8be(%rip),%rax        # 1b100 <g_38>
    e842:	48 89 85 18 ea ff ff 	mov    %rax,-0x15e8(%rbp)
    e849:	48 8d 05 b0 c8 00 00 	lea    0xc8b0(%rip),%rax        # 1b100 <g_38>
    e850:	48 89 85 20 ea ff ff 	mov    %rax,-0x15e0(%rbp)
    e857:	48 8d 05 a2 c8 00 00 	lea    0xc8a2(%rip),%rax        # 1b100 <g_38>
    e85e:	48 89 85 28 ea ff ff 	mov    %rax,-0x15d8(%rbp)
    e865:	48 c7 85 30 ea ff ff 	movq   $0x0,-0x15d0(%rbp)
    e86c:	00 00 00 00 
    e870:	48 8d 05 89 c8 00 00 	lea    0xc889(%rip),%rax        # 1b100 <g_38>
    e877:	48 89 85 38 ea ff ff 	mov    %rax,-0x15c8(%rbp)
    e87e:	48 8d 05 7b c8 00 00 	lea    0xc87b(%rip),%rax        # 1b100 <g_38>
    e885:	48 89 85 40 ea ff ff 	mov    %rax,-0x15c0(%rbp)
    e88c:	48 c7 85 48 ea ff ff 	movq   $0x0,-0x15b8(%rbp)
    e893:	00 00 00 00 
    e897:	48 8d 05 62 c8 00 00 	lea    0xc862(%rip),%rax        # 1b100 <g_38>
    e89e:	48 89 85 50 ea ff ff 	mov    %rax,-0x15b0(%rbp)
    e8a5:	48 8d 05 54 c8 00 00 	lea    0xc854(%rip),%rax        # 1b100 <g_38>
    e8ac:	48 89 85 58 ea ff ff 	mov    %rax,-0x15a8(%rbp)
    e8b3:	48 8d 05 46 c8 00 00 	lea    0xc846(%rip),%rax        # 1b100 <g_38>
    e8ba:	48 89 85 60 ea ff ff 	mov    %rax,-0x15a0(%rbp)
    e8c1:	48 8d 05 38 c8 00 00 	lea    0xc838(%rip),%rax        # 1b100 <g_38>
    e8c8:	48 89 85 68 ea ff ff 	mov    %rax,-0x1598(%rbp)
    e8cf:	48 8d 05 2a c8 00 00 	lea    0xc82a(%rip),%rax        # 1b100 <g_38>
    e8d6:	48 89 85 70 ea ff ff 	mov    %rax,-0x1590(%rbp)
    e8dd:	48 8d 05 1c c8 00 00 	lea    0xc81c(%rip),%rax        # 1b100 <g_38>
    e8e4:	48 89 85 78 ea ff ff 	mov    %rax,-0x1588(%rbp)
    e8eb:	48 8d 05 0e c8 00 00 	lea    0xc80e(%rip),%rax        # 1b100 <g_38>
    e8f2:	48 89 85 80 ea ff ff 	mov    %rax,-0x1580(%rbp)
    e8f9:	48 8d 05 00 c8 00 00 	lea    0xc800(%rip),%rax        # 1b100 <g_38>
    e900:	48 89 85 88 ea ff ff 	mov    %rax,-0x1578(%rbp)
    e907:	48 8d 05 f2 c7 00 00 	lea    0xc7f2(%rip),%rax        # 1b100 <g_38>
    e90e:	48 89 85 90 ea ff ff 	mov    %rax,-0x1570(%rbp)
    e915:	48 8d 05 e4 c7 00 00 	lea    0xc7e4(%rip),%rax        # 1b100 <g_38>
    e91c:	48 89 85 98 ea ff ff 	mov    %rax,-0x1568(%rbp)
    e923:	48 8d 05 16 d1 00 00 	lea    0xd116(%rip),%rax        # 1ba40 <g_508>
    e92a:	48 89 85 e8 e7 ff ff 	mov    %rax,-0x1818(%rbp)
    e931:	48 c7 85 f0 e7 ff ff 	movq   $0x0,-0x1810(%rbp)
    e938:	00 00 00 00 
    e93c:	48 8d 05 5d a8 00 00 	lea    0xa85d(%rip),%rax        # 191a0 <g_883+0x20>
    e943:	48 89 85 f8 e7 ff ff 	mov    %rax,-0x1808(%rbp)
    e94a:	48 c7 85 00 e8 ff ff 	movq   $0x0,-0x1800(%rbp)
    e951:	00 00 00 00 
    e955:	c7 85 30 e7 ff ff 01 	movl   $0x1,-0x18d0(%rbp)
    e95c:	00 00 00 
    e95f:	48 8d 85 50 e7 ff ff 	lea    -0x18b0(%rbp),%rax
    e966:	48 89 85 08 e8 ff ff 	mov    %rax,-0x17f8(%rbp)
    e96d:	c6 85 01 e7 ff ff c6 	movb   $0xc6,-0x18ff(%rbp)
    e974:	48 8d 05 55 e3 00 00 	lea    0xe355(%rip),%rax        # 1ccd0 <g_769>
    e97b:	48 89 85 10 e8 ff ff 	mov    %rax,-0x17f0(%rbp)
    e982:	66 c7 05 1d e3 00 00 	movw   $0x0,0xe31d(%rip)        # 1cca8 <g_105>
    e989:	00 00 
    e98b:	e9 41 01 00 00       	jmpq   ead1 <func_73+0x1379>
    e990:	48 c7 85 40 e8 ff ff 	movq   $0x0,-0x17c0(%rbp)
    e997:	00 00 00 00 
    e99b:	48 c7 85 48 e8 ff ff 	movq   $0x0,-0x17b8(%rbp)
    e9a2:	00 00 00 00 
    e9a6:	c7 85 48 e7 ff ff b3 	movl   $0x847990b3,-0x18b8(%rbp)
    e9ad:	90 79 84 
    e9b0:	48 8d 05 01 e3 00 00 	lea    0xe301(%rip),%rax        # 1ccb8 <g_505>
    e9b7:	48 89 85 50 e8 ff ff 	mov    %rax,-0x17b0(%rbp)
    e9be:	48 c7 85 58 e8 ff ff 	movq   $0xfffffffffffffffd,-0x17a8(%rbp)
    e9c5:	fd ff ff ff 
    e9c9:	c7 85 4c e7 ff ff 05 	movl   $0x5,-0x18b4(%rbp)
    e9d0:	00 00 00 
    e9d3:	48 c7 85 60 e8 ff ff 	movq   $0x0,-0x17a0(%rbp)
    e9da:	00 00 00 00 
    e9de:	66 c7 85 e0 f7 ff ff 	movw   $0x1,-0x820(%rbp)
    e9e5:	01 00 
    e9e7:	66 c7 85 e2 f7 ff ff 	movw   $0x3764,-0x81e(%rbp)
    e9ee:	64 37 
    e9f0:	66 c7 85 e4 f7 ff ff 	movw   $0x1,-0x81c(%rbp)
    e9f7:	01 00 
    e9f9:	66 c7 85 e6 f7 ff ff 	movw   $0x1,-0x81a(%rbp)
    ea00:	01 00 
    ea02:	66 c7 85 e8 f7 ff ff 	movw   $0x3764,-0x818(%rbp)
    ea09:	64 37 
    ea0b:	66 c7 85 ea f7 ff ff 	movw   $0x1,-0x816(%rbp)
    ea12:	01 00 
    ea14:	66 c7 85 ec f7 ff ff 	movw   $0x1,-0x814(%rbp)
    ea1b:	01 00 
    ea1d:	66 c7 85 ee f7 ff ff 	movw   $0x3764,-0x812(%rbp)
    ea24:	64 37 
    ea26:	c7 85 20 e7 ff ff 00 	movl   $0x0,-0x18e0(%rbp)
    ea2d:	00 00 00 
    ea30:	eb 1a                	jmp    ea4c <func_73+0x12f4>
    ea32:	8b 85 20 e7 ff ff    	mov    -0x18e0(%rbp),%eax
    ea38:	48 98                	cltq   
    ea3a:	c7 84 85 50 e9 ff ff 	movl   $0x0,-0x16b0(%rbp,%rax,4)
    ea41:	00 00 00 00 
    ea45:	83 85 20 e7 ff ff 01 	addl   $0x1,-0x18e0(%rbp)
    ea4c:	83 bd 20 e7 ff ff 02 	cmpl   $0x2,-0x18e0(%rbp)
    ea53:	7e dd                	jle    ea32 <func_73+0x12da>
    ea55:	c7 85 20 e7 ff ff 00 	movl   $0x0,-0x18e0(%rbp)
    ea5c:	00 00 00 
    ea5f:	eb 14                	jmp    ea75 <func_73+0x131d>
    ea61:	8b 85 20 e7 ff ff    	mov    -0x18e0(%rbp),%eax
    ea67:	48 98                	cltq   
    ea69:	c6 44 05 c7 01       	movb   $0x1,-0x39(%rbp,%rax,1)
    ea6e:	83 85 20 e7 ff ff 01 	addl   $0x1,-0x18e0(%rbp)
    ea75:	83 bd 20 e7 ff ff 00 	cmpl   $0x0,-0x18e0(%rbp)
    ea7c:	7e e3                	jle    ea61 <func_73+0x1309>
    ea7e:	c7 05 38 a6 00 00 01 	movl   $0x1,0xa638(%rip)        # 190c0 <g_197>
    ea85:	00 00 00 
    ea88:	eb 2b                	jmp    eab5 <func_73+0x135d>
    ea8a:	48 c7 85 68 e8 ff ff 	movq   $0x0,-0x1798(%rbp)
    ea91:	00 00 00 00 
    ea95:	48 8b 05 4c d5 00 00 	mov    0xd54c(%rip),%rax        # 1bfe8 <g_771>
    ea9c:	48 8b 95 40 e8 ff ff 	mov    -0x17c0(%rbp),%rdx
    eaa3:	48 89 10             	mov    %rdx,(%rax)
    eaa6:	8b 05 14 a6 00 00    	mov    0xa614(%rip),%eax        # 190c0 <g_197>
    eaac:	83 c0 01             	add    $0x1,%eax
    eaaf:	89 05 0b a6 00 00    	mov    %eax,0xa60b(%rip)        # 190c0 <g_197>
    eab5:	8b 05 05 a6 00 00    	mov    0xa605(%rip),%eax        # 190c0 <g_197>
    eabb:	83 f8 04             	cmp    $0x4,%eax
    eabe:	76 ca                	jbe    ea8a <func_73+0x1332>
    eac0:	0f b7 05 e1 e1 00 00 	movzwl 0xe1e1(%rip),%eax        # 1cca8 <g_105>
    eac7:	83 c0 01             	add    $0x1,%eax
    eaca:	66 89 05 d7 e1 00 00 	mov    %ax,0xe1d7(%rip)        # 1cca8 <g_105>
    ead1:	0f b7 05 d0 e1 00 00 	movzwl 0xe1d0(%rip),%eax        # 1cca8 <g_105>
    ead8:	66 83 f8 04          	cmp    $0x4,%ax
    eadc:	0f 86 ae fe ff ff    	jbe    e990 <func_73+0x1238>
    eae2:	8b 85 00 ed ff ff    	mov    -0x1300(%rbp),%eax
    eae8:	85 c0                	test   %eax,%eax
    eaea:	0f 84 22 02 00 00    	je     ed12 <func_73+0x15ba>
    eaf0:	48 c7 85 a0 e8 ff ff 	movq   $0x0,-0x1760(%rbp)
    eaf7:	00 00 00 00 
    eafb:	48 c7 85 a8 e8 ff ff 	movq   $0x0,-0x1758(%rbp)
    eb02:	00 00 00 00 
    eb06:	48 c7 85 b0 e8 ff ff 	movq   $0x0,-0x1750(%rbp)
    eb0d:	00 00 00 00 
    eb11:	48 c7 85 b8 e8 ff ff 	movq   $0x0,-0x1748(%rbp)
    eb18:	00 00 00 00 
    eb1c:	48 8d 85 a0 e8 ff ff 	lea    -0x1760(%rbp),%rax
    eb23:	48 89 85 38 e8 ff ff 	mov    %rax,-0x17c8(%rbp)
    eb2a:	48 8d 95 50 e9 ff ff 	lea    -0x16b0(%rbp),%rdx
    eb31:	b8 00 00 00 00       	mov    $0x0,%eax
    eb36:	b9 0c 00 00 00       	mov    $0xc,%ecx
    eb3b:	48 89 d7             	mov    %rdx,%rdi
    eb3e:	f3 48 ab             	rep stos %rax,%es:(%rdi)
    eb41:	48 8d 85 e0 f7 ff ff 	lea    -0x820(%rbp),%rax
    eb48:	48 8d 15 d1 bd 00 00 	lea    0xbdd1(%rip),%rdx        # 1a920 <g_1704+0x1118>
    eb4f:	b9 fc 00 00 00       	mov    $0xfc,%ecx
    eb54:	48 89 c7             	mov    %rax,%rdi
    eb57:	48 89 d6             	mov    %rdx,%rsi
    eb5a:	f3 48 a5             	rep movsq %ds:(%rsi),%es:(%rdi)
    eb5d:	c7 85 44 e7 ff ff 9d 	movl   $0xbc38a99d,-0x18bc(%rbp)
    eb64:	a9 38 bc 
    eb67:	c7 85 24 e7 ff ff 00 	movl   $0x0,-0x18dc(%rbp)
    eb6e:	00 00 00 
    eb71:	eb 1a                	jmp    eb8d <func_73+0x1435>
    eb73:	8b 85 24 e7 ff ff    	mov    -0x18dc(%rbp),%eax
    eb79:	48 98                	cltq   
    eb7b:	c7 84 85 c0 e8 ff ff 	movl   $0xffffffff,-0x1740(%rbp,%rax,4)
    eb82:	ff ff ff ff 
    eb86:	83 85 24 e7 ff ff 01 	addl   $0x1,-0x18dc(%rbp)
    eb8d:	83 bd 24 e7 ff ff 07 	cmpl   $0x7,-0x18dc(%rbp)
    eb94:	7e dd                	jle    eb73 <func_73+0x141b>
    eb96:	48 8b 95 a0 e8 ff ff 	mov    -0x1760(%rbp),%rdx
    eb9d:	48 8b 85 38 e8 ff ff 	mov    -0x17c8(%rbp),%rax
    eba4:	48 89 10             	mov    %rdx,(%rax)
    eba7:	48 8b 85 38 e8 ff ff 	mov    -0x17c8(%rbp),%rax
    ebae:	48 8b 10             	mov    (%rax),%rdx
    ebb1:	48 8b 85 98 e7 ff ff 	mov    -0x1868(%rbp),%rax
    ebb8:	48 89 85 68 e9 ff ff 	mov    %rax,-0x1698(%rbp)
    ebbf:	48 8b 85 68 e9 ff ff 	mov    -0x1698(%rbp),%rax
    ebc6:	48 39 c2             	cmp    %rax,%rdx
    ebc9:	0f 95 c2             	setne  %dl
    ebcc:	48 8b 05 65 d1 00 00 	mov    0xd165(%rip),%rax        # 1bd38 <g_693>
    ebd3:	0f b6 d2             	movzbl %dl,%edx
    ebd6:	89 10                	mov    %edx,(%rax)
    ebd8:	8b 10                	mov    (%rax),%edx
    ebda:	8b 85 6c ec ff ff    	mov    -0x1394(%rbp),%eax
    ebe0:	09 d0                	or     %edx,%eax
    ebe2:	89 85 6c ec ff ff    	mov    %eax,-0x1394(%rbp)
    ebe8:	48 b8 0a 35 8f 4d 9c 	movabs $0x97f7bc9c4d8f350a,%rax
    ebef:	bc f7 97 
    ebf2:	23 85 18 e7 ff ff    	and    -0x18e8(%rbp),%eax
    ebf8:	89 c2                	mov    %eax,%edx
    ebfa:	8b 85 44 e7 ff ff    	mov    -0x18bc(%rbp),%eax
    ec00:	31 d0                	xor    %edx,%eax
    ec02:	83 f0 04             	xor    $0x4,%eax
    ec05:	89 85 44 e7 ff ff    	mov    %eax,-0x18bc(%rbp)
    ec0b:	48 8b 05 f6 c4 00 00 	mov    0xc4f6(%rip),%rax        # 1b108 <g_37>
    ec12:	48 8b 00             	mov    (%rax),%rax
    ec15:	44 8b 20             	mov    (%rax),%r12d
    ec18:	8b 85 c4 e8 ff ff    	mov    -0x173c(%rbp),%eax
    ec1e:	85 c0                	test   %eax,%eax
    ec20:	0f 85 b1 00 00 00    	jne    ecd7 <func_73+0x157f>
    ec26:	8b 85 c4 e8 ff ff    	mov    -0x173c(%rbp),%eax
    ec2c:	48 63 d8             	movslq %eax,%rbx
    ec2f:	48 8b 05 ca c4 00 00 	mov    0xc4ca(%rip),%rax        # 1b100 <g_38>
    ec36:	44 8b 28             	mov    (%rax),%r13d
    ec39:	48 8b 05 c8 d7 00 00 	mov    0xd7c8(%rip),%rax        # 1c408 <g_982>
    ec40:	0f b6 00             	movzbl (%rax),%eax
    ec43:	0f be c0             	movsbl %al,%eax
    ec46:	89 c7                	mov    %eax,%edi
    ec48:	e8 72 95 ff ff       	callq  81bf <safe_unary_minus_func_int8_t_s>
    ec4d:	84 c0                	test   %al,%al
    ec4f:	75 08                	jne    ec59 <func_73+0x1501>
    ec51:	8b 05 09 a5 00 00    	mov    0xa509(%rip),%eax        # 19160 <g_842>
    ec57:	85 c0                	test   %eax,%eax
    ec59:	c7 05 f5 a5 00 00 00 	movl   $0x0,0xa5f5(%rip)        # 19258 <g_995>
    ec60:	00 00 00 
    ec63:	48 8b 05 ce cd 00 00 	mov    0xcdce(%rip),%rax        # 1ba38 <g_503>
    ec6a:	48 8b 00             	mov    (%rax),%rax
    ec6d:	48 c7 00 01 00 00 00 	movq   $0x1,(%rax)
    ec74:	48 8b 00             	mov    (%rax),%rax
    ec77:	89 c2                	mov    %eax,%edx
    ec79:	8b 85 d4 e8 ff ff    	mov    -0x172c(%rbp),%eax
    ec7f:	09 c2                	or     %eax,%edx
    ec81:	48 8b 05 88 d7 00 00 	mov    0xd788(%rip),%rax        # 1c410 <g_981>
    ec88:	48 8b 00             	mov    (%rax),%rax
    ec8b:	88 10                	mov    %dl,(%rax)
    ec8d:	0f b6 00             	movzbl (%rax),%eax
    ec90:	0f be d0             	movsbl %al,%edx
    ec93:	8b 85 6c ec ff ff    	mov    -0x1394(%rbp),%eax
    ec99:	21 d0                	and    %edx,%eax
    ec9b:	41 39 c5             	cmp    %eax,%r13d
    ec9e:	0f 9e c0             	setle  %al
    eca1:	0f b6 d0             	movzbl %al,%edx
    eca4:	8b 85 c4 e8 ff ff    	mov    -0x173c(%rbp),%eax
    ecaa:	21 d0                	and    %edx,%eax
    ecac:	48 98                	cltq   
    ecae:	48 89 de             	mov    %rbx,%rsi
    ecb1:	48 89 c7             	mov    %rax,%rdi
    ecb4:	e8 92 a3 ff ff       	callq  904b <safe_sub_func_uint64_t_u_u>
    ecb9:	0f b6 c0             	movzbl %al,%eax
    ecbc:	be 04 00 00 00       	mov    $0x4,%esi
    ecc1:	89 c7                	mov    %eax,%edi
    ecc3:	e8 84 9f ff ff       	callq  8c4c <safe_lshift_func_uint8_t_u_u>
    ecc8:	0f b6 d0             	movzbl %al,%edx
    eccb:	8b 85 d8 e8 ff ff    	mov    -0x1728(%rbp),%eax
    ecd1:	09 d0                	or     %edx,%eax
    ecd3:	85 c0                	test   %eax,%eax
    ecd5:	74 07                	je     ecde <func_73+0x1586>
    ecd7:	b8 01 00 00 00       	mov    $0x1,%eax
    ecdc:	eb 05                	jmp    ece3 <func_73+0x158b>
    ecde:	b8 00 00 00 00       	mov    $0x0,%eax
    ece3:	44 21 e0             	and    %r12d,%eax
    ece6:	39 85 44 e7 ff ff    	cmp    %eax,-0x18bc(%rbp)
    ecec:	0f 95 c0             	setne  %al
    ecef:	0f b6 c0             	movzbl %al,%eax
    ecf2:	09 85 0c e7 ff ff    	or     %eax,-0x18f4(%rbp)
    ecf8:	48 8b 85 f8 e6 ff ff 	mov    -0x1908(%rbp),%rax
    ecff:	48 8d 95 c0 e8 ff ff 	lea    -0x1740(%rbp),%rdx
    ed06:	48 83 c2 08          	add    $0x8,%rdx
    ed0a:	48 89 10             	mov    %rdx,(%rax)
    ed0d:	e9 05 05 00 00       	jmpq   f217 <func_73+0x1abf>
    ed12:	c7 85 34 e7 ff ff 00 	movl   $0x0,-0x18cc(%rbp)
    ed19:	00 00 00 
    ed1c:	c7 85 38 e7 ff ff 07 	movl   $0x7,-0x18c8(%rbp)
    ed23:	00 00 00 
    ed26:	66 c7 85 08 e7 ff ff 	movw   $0x6d78,-0x18f8(%rbp)
    ed2d:	78 6d 
    ed2f:	48 b8 d8 b2 4a 50 86 	movabs $0x41472786504ab2d8,%rax
    ed36:	27 47 41 
    ed39:	48 89 85 88 e7 ff ff 	mov    %rax,-0x1878(%rbp)
    ed40:	66 c7 85 0a e7 ff ff 	movw   $0x958c,-0x18f6(%rbp)
    ed47:	8c 95 
    ed49:	48 8d 05 70 a3 00 00 	lea    0xa370(%rip),%rax        # 190c0 <g_197>
    ed50:	48 89 85 18 e8 ff ff 	mov    %rax,-0x17e8(%rbp)
    ed57:	c7 85 28 e7 ff ff 00 	movl   $0x0,-0x18d8(%rbp)
    ed5e:	00 00 00 
    ed61:	eb 1a                	jmp    ed7d <func_73+0x1625>
    ed63:	8b 85 28 e7 ff ff    	mov    -0x18d8(%rbp),%eax
    ed69:	48 98                	cltq   
    ed6b:	c7 84 85 50 e9 ff ff 	movl   $0xba8ec906,-0x16b0(%rbp,%rax,4)
    ed72:	06 c9 8e ba 
    ed76:	83 85 28 e7 ff ff 01 	addl   $0x1,-0x18d8(%rbp)
    ed7d:	83 bd 28 e7 ff ff 02 	cmpl   $0x2,-0x18d8(%rbp)
    ed84:	7e dd                	jle    ed63 <func_73+0x160b>
    ed86:	c7 85 28 e7 ff ff 00 	movl   $0x0,-0x18d8(%rbp)
    ed8d:	00 00 00 
    ed90:	eb 1b                	jmp    edad <func_73+0x1655>
    ed92:	8b 85 28 e7 ff ff    	mov    -0x18d8(%rbp),%eax
    ed98:	48 98                	cltq   
    ed9a:	48 c7 84 c5 c0 e8 ff 	movq   $0x0,-0x1740(%rbp,%rax,8)
    eda1:	ff 00 00 00 00 
    eda6:	83 85 28 e7 ff ff 01 	addl   $0x1,-0x18d8(%rbp)
    edad:	83 bd 28 e7 ff ff 00 	cmpl   $0x0,-0x18d8(%rbp)
    edb4:	7e dc                	jle    ed92 <func_73+0x163a>
    edb6:	c7 05 58 a3 00 00 00 	movl   $0x0,0xa358(%rip)        # 19118 <g_654>
    edbd:	00 00 00 
    edc0:	e9 6c 01 00 00       	jmpq   ef31 <func_73+0x17d9>
    edc5:	c6 85 05 e7 ff ff b8 	movb   $0xb8,-0x18fb(%rbp)
    edcc:	c7 85 3c e7 ff ff ff 	movl   $0xffffffff,-0x18c4(%rbp)
    edd3:	ff ff ff 
    edd6:	c7 85 40 e7 ff ff 00 	movl   $0x37586400,-0x18c0(%rbp)
    eddd:	64 58 37 
    ede0:	48 8d 85 e0 f7 ff ff 	lea    -0x820(%rbp),%rax
    ede7:	48 8d 15 92 60 00 00 	lea    0x6092(%rip),%rdx        # 14e80 <g_1477+0x6f8>
    edee:	b9 1f 00 00 00       	mov    $0x1f,%ecx
    edf3:	48 89 c7             	mov    %rax,%rdi
    edf6:	48 89 d6             	mov    %rdx,%rsi
    edf9:	f3 48 a5             	rep movsq %ds:(%rsi),%es:(%rdi)
    edfc:	48 89 f2             	mov    %rsi,%rdx
    edff:	48 89 f8             	mov    %rdi,%rax
    ee02:	8b 0a                	mov    (%rdx),%ecx
    ee04:	89 08                	mov    %ecx,(%rax)
    ee06:	48 c7 85 20 e8 ff ff 	movq   $0x0,-0x17e0(%rbp)
    ee0d:	00 00 00 00 
    ee11:	0f b6 85 01 e7 ff ff 	movzbl -0x18ff(%rbp),%eax
    ee18:	83 e8 01             	sub    $0x1,%eax
    ee1b:	88 85 01 e7 ff ff    	mov    %al,-0x18ff(%rbp)
    ee21:	c7 05 39 a3 00 00 02 	movl   $0x2,0xa339(%rip)        # 19164 <g_843>
    ee28:	00 00 00 
    ee2b:	e9 e4 00 00 00       	jmpq   ef14 <func_73+0x17bc>
    ee30:	48 8d 05 9d a2 00 00 	lea    0xa29d(%rip),%rax        # 190d4 <g_269>
    ee37:	48 89 85 28 e8 ff ff 	mov    %rax,-0x17d8(%rbp)
    ee3e:	48 8b 85 58 e7 ff ff 	mov    -0x18a8(%rbp),%rax
    ee45:	48 8b 00             	mov    (%rax),%rax
    ee48:	48 89 85 20 e8 ff ff 	mov    %rax,-0x17e0(%rbp)
    ee4f:	48 c7 05 0e a2 00 00 	movq   $0x0,0xa20e(%rip)        # 19068 <g_109>
    ee56:	00 00 00 00 
    ee5a:	90                   	nop
    ee5b:	48 8b 05 06 a2 00 00 	mov    0xa206(%rip),%rax        # 19068 <g_109>
    ee62:	48 83 f8 02          	cmp    $0x2,%rax
    ee66:	0f 8f 99 00 00 00    	jg     ef05 <func_73+0x17ad>
    ee6c:	48 8d 05 d5 a3 00 00 	lea    0xa3d5(%rip),%rax        # 19248 <g_960>
    ee73:	48 89 85 30 e8 ff ff 	mov    %rax,-0x17d0(%rbp)
    ee7a:	48 8b 05 8f d5 00 00 	mov    0xd58f(%rip),%rax        # 1c410 <g_981>
    ee81:	48 8b 95 28 e8 ff ff 	mov    -0x17d8(%rbp),%rdx
    ee88:	48 89 10             	mov    %rdx,(%rax)
    ee8b:	48 8b 00             	mov    (%rax),%rax
    ee8e:	48 89 85 30 e8 ff ff 	mov    %rax,-0x17d0(%rbp)
    ee95:	48 8b 85 58 e7 ff ff 	mov    -0x18a8(%rbp),%rax
    ee9c:	48 8b 00             	mov    (%rax),%rax
    ee9f:	48 8b 00             	mov    (%rax),%rax
    eea2:	48 39 85 30 e8 ff ff 	cmp    %rax,-0x17d0(%rbp)
    eea9:	0f 95 c1             	setne  %cl
    eeac:	48 8b 05 b5 a1 00 00 	mov    0xa1b5(%rip),%rax        # 19068 <g_109>
    eeb3:	8b 15 5f a2 00 00    	mov    0xa25f(%rip),%edx        # 19118 <g_654>
    eeb9:	8d 72 02             	lea    0x2(%rdx),%esi
    eebc:	8b 15 56 a2 00 00    	mov    0xa256(%rip),%edx        # 19118 <g_654>
    eec2:	83 c2 01             	add    $0x1,%edx
    eec5:	0f b6 c9             	movzbl %cl,%ecx
    eec8:	89 d7                	mov    %edx,%edi
    eeca:	89 f6                	mov    %esi,%esi
    eecc:	48 89 c2             	mov    %rax,%rdx
    eecf:	48 c1 e2 04          	shl    $0x4,%rdx
    eed3:	48 29 c2             	sub    %rax,%rdx
    eed6:	48 8d 04 95 00 00 00 	lea    0x0(,%rdx,4),%rax
    eedd:	00 
    eede:	48 89 c2             	mov    %rax,%rdx
    eee1:	48 89 f0             	mov    %rsi,%rax
    eee4:	48 01 c0             	add    %rax,%rax
    eee7:	48 01 f0             	add    %rsi,%rax
    eeea:	48 01 c0             	add    %rax,%rax
    eeed:	48 01 d0             	add    %rdx,%rax
    eef0:	48 01 f8             	add    %rdi,%rax
    eef3:	89 8c 85 a0 ea ff ff 	mov    %ecx,-0x1560(%rbp,%rax,4)
    eefa:	8b 85 2c e7 ff ff    	mov    -0x18d4(%rbp),%eax
    ef00:	e9 d9 05 00 00       	jmpq   f4de <func_73+0x1d86>
    ef05:	8b 05 59 a2 00 00    	mov    0xa259(%rip),%eax        # 19164 <g_843>
    ef0b:	83 e8 01             	sub    $0x1,%eax
    ef0e:	89 05 50 a2 00 00    	mov    %eax,0xa250(%rip)        # 19164 <g_843>
    ef14:	8b 05 4a a2 00 00    	mov    0xa24a(%rip),%eax        # 19164 <g_843>
    ef1a:	85 c0                	test   %eax,%eax
    ef1c:	0f 89 0e ff ff ff    	jns    ee30 <func_73+0x16d8>
    ef22:	8b 05 f0 a1 00 00    	mov    0xa1f0(%rip),%eax        # 19118 <g_654>
    ef28:	83 c0 01             	add    $0x1,%eax
    ef2b:	89 05 e7 a1 00 00    	mov    %eax,0xa1e7(%rip)        # 19118 <g_654>
    ef31:	8b 05 e1 a1 00 00    	mov    0xa1e1(%rip),%eax        # 19118 <g_654>
    ef37:	83 f8 02             	cmp    $0x2,%eax
    ef3a:	0f 86 85 fe ff ff    	jbe    edc5 <func_73+0x166d>
    ef40:	8b 1d 1e a2 00 00    	mov    0xa21e(%rip),%ebx        # 19164 <g_843>
    ef46:	44 0f bf a5 08 e7 ff 	movswl -0x18f8(%rbp),%r12d
    ef4d:	ff 
    ef4e:	8b 85 34 e7 ff ff    	mov    -0x18cc(%rbp),%eax
    ef54:	44 0f be e8          	movsbl %al,%r13d
    ef58:	8b 85 38 e7 ff ff    	mov    -0x18c8(%rbp),%eax
    ef5e:	44 0f b7 f0          	movzwl %ax,%r14d
    ef62:	48 8b 05 37 cd 00 00 	mov    0xcd37(%rip),%rax        # 1bca0 <g_580>
    ef69:	0f b6 00             	movzbl (%rax),%eax
    ef6c:	44 0f b6 f8          	movzbl %al,%r15d
    ef70:	be 03 00 00 00       	mov    $0x3,%esi
    ef75:	bf 01 00 00 00       	mov    $0x1,%edi
    ef7a:	e8 cd 9c ff ff       	callq  8c4c <safe_lshift_func_uint8_t_u_u>
    ef7f:	8b 85 38 e7 ff ff    	mov    -0x18c8(%rbp),%eax
    ef85:	0f b7 c0             	movzwl %ax,%eax
    ef88:	89 85 f4 e6 ff ff    	mov    %eax,-0x190c(%rbp)
    ef8e:	8b 05 84 a1 00 00    	mov    0xa184(%rip),%eax        # 19118 <g_654>
    ef94:	98                   	cwtl   
    ef95:	89 85 f0 e6 ff ff    	mov    %eax,-0x1910(%rbp)
    ef9b:	8b 85 2c e7 ff ff    	mov    -0x18d4(%rbp),%eax
    efa1:	0f b7 c0             	movzwl %ax,%eax
    efa4:	89 c6                	mov    %eax,%esi
    efa6:	bf 01 00 00 00       	mov    $0x1,%edi
    efab:	e8 6f 9d ff ff       	callq  8d1f <safe_sub_func_uint16_t_u_u>
    efb0:	98                   	cwtl   
    efb1:	8b b5 f0 e6 ff ff    	mov    -0x1910(%rbp),%esi
    efb7:	89 c7                	mov    %eax,%edi
    efb9:	e8 37 94 ff ff       	callq  83f5 <safe_mul_func_int16_t_s_s>
    efbe:	66 85 c0             	test   %ax,%ax
    efc1:	74 07                	je     efca <func_73+0x1872>
    efc3:	ba 01 00 00 00       	mov    $0x1,%edx
    efc8:	eb 05                	jmp    efcf <func_73+0x1877>
    efca:	ba 00 00 00 00       	mov    $0x0,%edx
    efcf:	0f b6 05 c2 54 00 00 	movzbl 0x54c2(%rip),%eax        # 14498 <g_407+0x418>
    efd6:	0f b6 c0             	movzbl %al,%eax
    efd9:	89 d6                	mov    %edx,%esi
    efdb:	89 c7                	mov    %eax,%edi
    efdd:	e8 ee 9e ff ff       	callq  8ed0 <safe_sub_func_uint32_t_u_u>
    efe2:	f7 d0                	not    %eax
    efe4:	0f b7 c0             	movzwl %ax,%eax
    efe7:	8b b5 f4 e6 ff ff    	mov    -0x190c(%rbp),%esi
    efed:	89 c7                	mov    %eax,%edi
    efef:	e8 49 9d ff ff       	callq  8d3d <safe_mul_func_uint16_t_u_u>
    eff4:	0f b7 c0             	movzwl %ax,%eax
    eff7:	89 85 50 e9 ff ff    	mov    %eax,-0x16b0(%rbp)
    effd:	44 89 fe             	mov    %r15d,%esi
    f000:	bf 01 00 00 00       	mov    $0x1,%edi
    f005:	e8 e4 92 ff ff       	callq  82ee <safe_lshift_func_int8_t_s_u>
    f00a:	66 98                	cbtw   
    f00c:	0f b7 c0             	movzwl %ax,%eax
    f00f:	44 89 f6             	mov    %r14d,%esi
    f012:	89 c7                	mov    %eax,%edi
    f014:	e8 e6 9c ff ff       	callq  8cff <safe_add_func_uint16_t_u_u>
    f019:	44 89 ee             	mov    %r13d,%esi
    f01c:	bf 00 00 00 00       	mov    $0x0,%edi
    f021:	e8 44 92 ff ff       	callq  826a <safe_div_func_int8_t_s_s>
    f026:	8b 05 94 a0 00 00    	mov    0xa094(%rip),%eax        # 190c0 <g_197>
    f02c:	89 c2                	mov    %eax,%edx
    f02e:	0f b7 85 0a e7 ff ff 	movzwl -0x18f6(%rbp),%eax
    f035:	09 d0                	or     %edx,%eax
    f037:	66 89 85 0a e7 ff ff 	mov    %ax,-0x18f6(%rbp)
    f03e:	0f b7 85 0a e7 ff ff 	movzwl -0x18f6(%rbp),%eax
    f045:	0f b7 d0             	movzwl %ax,%edx
    f048:	8b 05 1a a1 00 00    	mov    0xa11a(%rip),%eax        # 19168 <g_845>
    f04e:	0f b7 c0             	movzwl %ax,%eax
    f051:	89 d6                	mov    %edx,%esi
    f053:	89 c7                	mov    %eax,%edi
    f055:	e8 e3 9c ff ff       	callq  8d3d <safe_mul_func_uint16_t_u_u>
    f05a:	66 83 f8 23          	cmp    $0x23,%ax
    f05e:	8b 85 d4 ec ff ff    	mov    -0x132c(%rbp),%eax
    f064:	f7 d0                	not    %eax
    f066:	c1 e8 1f             	shr    $0x1f,%eax
    f069:	89 c2                	mov    %eax,%edx
    f06b:	8b 85 34 e7 ff ff    	mov    -0x18cc(%rbp),%eax
    f071:	09 d0                	or     %edx,%eax
    f073:	0f b6 c0             	movzbl %al,%eax
    f076:	89 c6                	mov    %eax,%esi
    f078:	bf 0b 00 00 00       	mov    $0xb,%edi
    f07d:	e8 2c 9b ff ff       	callq  8bae <safe_mod_func_uint8_t_u_u>
    f082:	44 89 e6             	mov    %r12d,%esi
    f085:	bf 01 00 00 00       	mov    $0x1,%edi
    f08a:	e8 29 9e ff ff       	callq  8eb8 <safe_add_func_uint32_t_u_u>
    f08f:	85 c0                	test   %eax,%eax
    f091:	75 0a                	jne    f09d <func_73+0x1945>
    f093:	8b 85 50 e9 ff ff    	mov    -0x16b0(%rbp),%eax
    f099:	85 c0                	test   %eax,%eax
    f09b:	74 07                	je     f0a4 <func_73+0x194c>
    f09d:	b8 01 00 00 00       	mov    $0x1,%eax
    f0a2:	eb 05                	jmp    f0a9 <func_73+0x1951>
    f0a4:	b8 00 00 00 00       	mov    $0x0,%eax
    f0a9:	0f b7 c0             	movzwl %ax,%eax
    f0ac:	89 de                	mov    %ebx,%esi
    f0ae:	89 c7                	mov    %eax,%edi
    f0b0:	e8 93 9d ff ff       	callq  8e48 <safe_rshift_func_uint16_t_u_s>
    f0b5:	b8 3d 20 bc ef       	mov    $0xefbc203d,%eax
    f0ba:	31 85 18 e7 ff ff    	xor    %eax,-0x18e8(%rbp)
    f0c0:	48 8b 05 51 a2 00 00 	mov    0xa251(%rip),%rax        # 19318 <g_1043+0xb8>
    f0c7:	48 8b 85 f8 e6 ff ff 	mov    -0x1908(%rbp),%rax
    f0ce:	48 8b 00             	mov    (%rax),%rax
    f0d1:	8b 00                	mov    (%rax),%eax
    f0d3:	4c 63 e0             	movslq %eax,%r12
    f0d6:	48 8b 85 18 e8 ff ff 	mov    -0x17e8(%rbp),%rax
    f0dd:	8b 00                	mov    (%rax),%eax
    f0df:	8d 50 ff             	lea    -0x1(%rax),%edx
    f0e2:	48 8b 85 18 e8 ff ff 	mov    -0x17e8(%rbp),%rax
    f0e9:	89 10                	mov    %edx,(%rax)
    f0eb:	48 8b 85 18 e8 ff ff 	mov    -0x17e8(%rbp),%rax
    f0f2:	8b 00                	mov    (%rax),%eax
    f0f4:	41 89 c5             	mov    %eax,%r13d
    f0f7:	48 0f be 9d 03 e7 ff 	movsbq -0x18fd(%rbp),%rbx
    f0fe:	ff 
    f0ff:	48 8b 05 ea c7 00 00 	mov    0xc7ea(%rip),%rax        # 1b8f0 <g_483>
    f106:	48 8b 00             	mov    (%rax),%rax
    f109:	48 ba 6c f8 a2 6b 1f 	movabs $0x6c05861f6ba2f86c,%rdx
    f110:	86 05 6c 
    f113:	48 39 d0             	cmp    %rdx,%rax
    f116:	0f 9e c0             	setle  %al
    f119:	0f b6 d0             	movzbl %al,%edx
    f11c:	8b 85 50 e9 ff ff    	mov    -0x16b0(%rbp),%eax
    f122:	83 f8 01             	cmp    $0x1,%eax
    f125:	0f 9f c0             	setg   %al
    f128:	0f b6 c0             	movzbl %al,%eax
    f12b:	89 d6                	mov    %edx,%esi
    f12d:	89 c7                	mov    %eax,%edi
    f12f:	e8 84 9d ff ff       	callq  8eb8 <safe_add_func_uint32_t_u_u>
    f134:	85 c0                	test   %eax,%eax
    f136:	74 11                	je     f149 <func_73+0x19f1>
    f138:	8b 85 6c ec ff ff    	mov    -0x1394(%rbp),%eax
    f13e:	85 c0                	test   %eax,%eax
    f140:	74 07                	je     f149 <func_73+0x19f1>
    f142:	b8 01 00 00 00       	mov    $0x1,%eax
    f147:	eb 05                	jmp    f14e <func_73+0x19f6>
    f149:	b8 00 00 00 00       	mov    $0x0,%eax
    f14e:	48 98                	cltq   
    f150:	48 89 de             	mov    %rbx,%rsi
    f153:	48 89 c7             	mov    %rax,%rdi
    f156:	e8 9c 98 ff ff       	callq  89f7 <safe_div_func_int64_t_s_s>
    f15b:	4c 89 ea             	mov    %r13,%rdx
    f15e:	48 09 c2             	or     %rax,%rdx
    f161:	48 8b 05 d0 c8 00 00 	mov    0xc8d0(%rip),%rax        # 1ba38 <g_503>
    f168:	48 8b 00             	mov    (%rax),%rax
    f16b:	48 89 10             	mov    %rdx,(%rax)
    f16e:	48 8b 00             	mov    (%rax),%rax
    f171:	48 89 c7             	mov    %rax,%rdi
    f174:	e8 a0 9e ff ff       	callq  9019 <safe_unary_minus_func_uint64_t_u>
    f179:	be 92 cb 3d 39       	mov    $0x393dcb92,%esi
    f17e:	89 c7                	mov    %eax,%edi
    f180:	e8 7a 95 ff ff       	callq  86ff <safe_div_func_int32_t_s_s>
    f185:	89 c2                	mov    %eax,%edx
    f187:	0f b7 05 48 9f 00 00 	movzwl 0x9f48(%rip),%eax        # 190d6 <g_282>
    f18e:	21 d0                	and    %edx,%eax
    f190:	0f b6 c8             	movzbl %al,%ecx
    f193:	48 8b 85 98 e7 ff ff 	mov    -0x1868(%rbp),%rax
    f19a:	48 8b 00             	mov    (%rax),%rax
    f19d:	0f b6 10             	movzbl (%rax),%edx
    f1a0:	8d 72 01             	lea    0x1(%rdx),%esi
    f1a3:	40 88 30             	mov    %sil,(%rax)
    f1a6:	0f b6 c2             	movzbl %dl,%eax
    f1a9:	89 ce                	mov    %ecx,%esi
    f1ab:	89 c7                	mov    %eax,%edi
    f1ad:	e8 e1 99 ff ff       	callq  8b93 <safe_mul_func_uint8_t_u_u>
    f1b2:	0f b6 c0             	movzbl %al,%eax
    f1b5:	be 05 00 00 00       	mov    $0x5,%esi
    f1ba:	89 c7                	mov    %eax,%edi
    f1bc:	e8 69 93 ff ff       	callq  852a <safe_rshift_func_int16_t_s_s>
    f1c1:	89 c2                	mov    %eax,%edx
    f1c3:	48 8b 05 2e c7 00 00 	mov    0xc72e(%rip),%rax        # 1b8f8 <g_482>
    f1ca:	48 8b 00             	mov    (%rax),%rax
    f1cd:	48 0f bf d2          	movswq %dx,%rdx
    f1d1:	48 89 10             	mov    %rdx,(%rax)
    f1d4:	48 8b 00             	mov    (%rax),%rax
    f1d7:	49 39 c4             	cmp    %rax,%r12
    f1da:	0f 93 c0             	setae  %al
    f1dd:	0f b6 c0             	movzbl %al,%eax
    f1e0:	39 85 38 e7 ff ff    	cmp    %eax,-0x18c8(%rbp)
    f1e6:	0f 9f c0             	setg   %al
    f1e9:	0f b6 c0             	movzbl %al,%eax
    f1ec:	48 c7 c6 fb ff ff ff 	mov    $0xfffffffffffffffb,%rsi
    f1f3:	48 89 c7             	mov    %rax,%rdi
    f1f6:	e8 fc 97 ff ff       	callq  89f7 <safe_div_func_int64_t_s_s>
    f1fb:	48 8b 85 58 e7 ff ff 	mov    -0x18a8(%rbp),%rax
    f202:	48 8b 00             	mov    (%rax),%rax
    f205:	48 8b 00             	mov    (%rax),%rax
    f208:	48 85 c0             	test   %rax,%rax
    f20b:	0f 95 c0             	setne  %al
    f20e:	0f b6 c0             	movzbl %al,%eax
    f211:	89 85 50 e9 ff ff    	mov    %eax,-0x16b0(%rbp)
    f217:	be 09 00 00 00       	mov    $0x9,%esi
    f21c:	bf 01 00 00 00       	mov    $0x1,%edi
    f221:	e8 bb 92 ff ff       	callq  84e1 <safe_lshift_func_int16_t_s_u>
    f226:	8b 85 94 eb ff ff    	mov    -0x146c(%rbp),%eax
    f22c:	85 c0                	test   %eax,%eax
    f22e:	0f 85 de 00 00 00    	jne    f312 <func_73+0x1bba>
    f234:	8b 85 6c ec ff ff    	mov    -0x1394(%rbp),%eax
    f23a:	41 89 c5             	mov    %eax,%r13d
    f23d:	8b 85 5c eb ff ff    	mov    -0x14a4(%rbp),%eax
    f243:	41 89 c6             	mov    %eax,%r14d
    f246:	8b 85 6c ec ff ff    	mov    -0x1394(%rbp),%eax
    f24c:	0f be d8             	movsbl %al,%ebx
    f24f:	8b 85 18 e7 ff ff    	mov    -0x18e8(%rbp),%eax
    f255:	4c 63 e0             	movslq %eax,%r12
    f258:	8b 85 6c ec ff ff    	mov    -0x1394(%rbp),%eax
    f25e:	0f bf d0             	movswl %ax,%edx
    f261:	0f b6 05 18 55 00 00 	movzbl 0x5518(%rip),%eax        # 14780 <g_695>
    f268:	84 c0                	test   %al,%al
    f26a:	75 0a                	jne    f276 <func_73+0x1b1e>
    f26c:	8b 85 6c ed ff ff    	mov    -0x1294(%rbp),%eax
    f272:	85 c0                	test   %eax,%eax
    f274:	74 07                	je     f27d <func_73+0x1b25>
    f276:	b8 01 00 00 00       	mov    $0x1,%eax
    f27b:	eb 05                	jmp    f282 <func_73+0x1b2a>
    f27d:	b8 00 00 00 00       	mov    $0x0,%eax
    f282:	3b 85 0c e7 ff ff    	cmp    -0x18f4(%rbp),%eax
    f288:	0f 9f c0             	setg   %al
    f28b:	0f b6 c0             	movzbl %al,%eax
    f28e:	89 d6                	mov    %edx,%esi
    f290:	89 c7                	mov    %eax,%edi
    f292:	e8 1c 91 ff ff       	callq  83b3 <safe_add_func_int16_t_s_s>
    f297:	48 0f bf c0          	movswq %ax,%rax
    f29b:	4c 89 e6             	mov    %r12,%rsi
    f29e:	48 89 c7             	mov    %rax,%rdi
    f2a1:	e8 a5 9d ff ff       	callq  904b <safe_sub_func_uint64_t_u_u>
    f2a6:	0f be c0             	movsbl %al,%eax
    f2a9:	89 de                	mov    %ebx,%esi
    f2ab:	89 c7                	mov    %eax,%edi
    f2ad:	e8 22 8f ff ff       	callq  81d4 <safe_add_func_int8_t_s_s>
    f2b2:	c7 85 10 e7 ff ff 01 	movl   $0x1,-0x18f0(%rbp)
    f2b9:	00 00 00 
    f2bc:	48 83 bd a8 e7 ff ff 	cmpq   $0x0,-0x1858(%rbp)
    f2c3:	00 
    f2c4:	0f 95 c0             	setne  %al
    f2c7:	0f b6 d0             	movzbl %al,%edx
    f2ca:	48 8b 85 d8 f2 ff ff 	mov    -0xd28(%rbp),%rax
    f2d1:	48 39 85 a0 e7 ff ff 	cmp    %rax,-0x1860(%rbp)
    f2d8:	0f 95 c0             	setne  %al
    f2db:	0f b6 c0             	movzbl %al,%eax
    f2de:	89 d6                	mov    %edx,%esi
    f2e0:	89 c7                	mov    %eax,%edi
    f2e2:	e8 56 9a ff ff       	callq  8d3d <safe_mul_func_uint16_t_u_u>
    f2e7:	0f b7 c0             	movzwl %ax,%eax
    f2ea:	44 89 f6             	mov    %r14d,%esi
    f2ed:	89 c7                	mov    %eax,%edi
    f2ef:	e8 12 9b ff ff       	callq  8e06 <safe_lshift_func_uint16_t_u_u>
    f2f4:	0f b6 c0             	movzbl %al,%eax
    f2f7:	44 89 ee             	mov    %r13d,%esi
    f2fa:	89 c7                	mov    %eax,%edi
    f2fc:	e8 bd 99 ff ff       	callq  8cbe <safe_rshift_func_uint8_t_u_u>
    f301:	38 85 02 e7 ff ff    	cmp    %al,-0x18fe(%rbp)
    f307:	75 09                	jne    f312 <func_73+0x1bba>
    f309:	80 bd 03 e7 ff ff 00 	cmpb   $0x0,-0x18fd(%rbp)
    f310:	74 07                	je     f319 <func_73+0x1bc1>
    f312:	b8 01 00 00 00       	mov    $0x1,%eax
    f317:	eb 05                	jmp    f31e <func_73+0x1bc6>
    f319:	b8 00 00 00 00       	mov    $0x0,%eax
    f31e:	0f b6 c0             	movzbl %al,%eax
    f321:	89 c7                	mov    %eax,%edi
    f323:	e8 1d 98 ff ff       	callq  8b45 <safe_unary_minus_func_uint8_t_u>
    f328:	48 8b 05 39 9d 00 00 	mov    0x9d39(%rip),%rax        # 19068 <g_109>
    f32f:	66 35 ff ef          	xor    $0xefff,%ax
    f333:	0f b7 c0             	movzwl %ax,%eax
    f336:	be 5a 5d 00 00       	mov    $0x5d5a,%esi
    f33b:	89 c7                	mov    %eax,%edi
    f33d:	e8 bd 99 ff ff       	callq  8cff <safe_add_func_uint16_t_u_u>
    f342:	8b 95 38 e9 ff ff    	mov    -0x16c8(%rbp),%edx
    f348:	0f b7 c0             	movzwl %ax,%eax
    f34b:	21 d0                	and    %edx,%eax
    f34d:	89 85 38 e9 ff ff    	mov    %eax,-0x16c8(%rbp)
    f353:	0f b6 05 f6 9e 00 00 	movzbl 0x9ef6(%rip),%eax        # 19250 <g_976>
    f35a:	0f b6 d0             	movzbl %al,%edx
    f35d:	0f b7 05 b8 9d 00 00 	movzwl 0x9db8(%rip),%eax        # 1911c <g_718>
    f364:	31 d0                	xor    %edx,%eax
    f366:	66 89 05 af 9d 00 00 	mov    %ax,0x9daf(%rip)        # 1911c <g_718>
    f36d:	0f b7 05 a8 9d 00 00 	movzwl 0x9da8(%rip),%eax        # 1911c <g_718>
    f374:	44 0f b7 e8          	movzwl %ax,%r13d
    f378:	0f b6 85 04 e7 ff ff 	movzbl -0x18fc(%rbp),%eax
    f37f:	8d 50 01             	lea    0x1(%rax),%edx
    f382:	88 95 04 e7 ff ff    	mov    %dl,-0x18fc(%rbp)
    f388:	44 0f b6 f0          	movzbl %al,%r14d
    f38c:	8b 85 10 e7 ff ff    	mov    -0x18f0(%rbp),%eax
    f392:	0f b7 d8             	movzwl %ax,%ebx
    f395:	48 8b 05 04 c9 00 00 	mov    0xc904(%rip),%rax        # 1bca0 <g_580>
    f39c:	0f b6 00             	movzbl (%rax),%eax
    f39f:	44 0f b6 e0          	movzbl %al,%r12d
    f3a3:	48 8b 85 b8 e7 ff ff 	mov    -0x1848(%rbp),%rax
    f3aa:	48 8d 95 58 e7 ff ff 	lea    -0x18a8(%rbp),%rdx
    f3b1:	48 89 10             	mov    %rdx,(%rax)
    f3b4:	48 8b 85 b8 e7 ff ff 	mov    -0x1848(%rbp),%rax
    f3bb:	48 8b 10             	mov    (%rax),%rdx
    f3be:	48 8d 85 58 e7 ff ff 	lea    -0x18a8(%rbp),%rax
    f3c5:	48 39 c2             	cmp    %rax,%rdx
    f3c8:	0f 95 c0             	setne  %al
    f3cb:	0f b6 c0             	movzbl %al,%eax
    f3ce:	be 03 00 00 00       	mov    $0x3,%esi
    f3d3:	89 c7                	mov    %eax,%edi
    f3d5:	e8 63 99 ff ff       	callq  8d3d <safe_mul_func_uint16_t_u_u>
    f3da:	44 89 e6             	mov    %r12d,%esi
    f3dd:	bf 01 00 00 00       	mov    $0x1,%edi
    f3e2:	e8 85 8f ff ff       	callq  836c <safe_rshift_func_int8_t_s_u>
    f3e7:	84 c0                	test   %al,%al
    f3e9:	74 11                	je     f3fc <func_73+0x1ca4>
    f3eb:	66 83 bd 06 e7 ff ff 	cmpw   $0x0,-0x18fa(%rbp)
    f3f2:	00 
    f3f3:	74 07                	je     f3fc <func_73+0x1ca4>
    f3f5:	b8 01 00 00 00       	mov    $0x1,%eax
    f3fa:	eb 05                	jmp    f401 <func_73+0x1ca9>
    f3fc:	b8 00 00 00 00       	mov    $0x0,%eax
    f401:	0f b7 c0             	movzwl %ax,%eax
    f404:	89 de                	mov    %ebx,%esi
    f406:	89 c7                	mov    %eax,%edi
    f408:	e8 30 99 ff ff       	callq  8d3d <safe_mul_func_uint16_t_u_u>
    f40d:	0f b7 d0             	movzwl %ax,%edx
    f410:	0f be 85 03 e7 ff ff 	movsbl -0x18fd(%rbp),%eax
    f417:	39 c2                	cmp    %eax,%edx
    f419:	0f 95 c0             	setne  %al
    f41c:	0f b6 c0             	movzbl %al,%eax
    f41f:	be 05 00 00 00       	mov    $0x5,%esi
    f424:	89 c7                	mov    %eax,%edi
    f426:	e8 1d 9a ff ff       	callq  8e48 <safe_rshift_func_uint16_t_u_s>
    f42b:	8b 85 0c e7 ff ff    	mov    -0x18f4(%rbp),%eax
    f431:	0f be d0             	movsbl %al,%edx
    f434:	8b 85 38 e9 ff ff    	mov    -0x16c8(%rbp),%eax
    f43a:	0f be c0             	movsbl %al,%eax
    f43d:	89 d6                	mov    %edx,%esi
    f43f:	89 c7                	mov    %eax,%edi
    f441:	e8 8e 8d ff ff       	callq  81d4 <safe_add_func_int8_t_s_s>
    f446:	0f be c0             	movsbl %al,%eax
    f449:	41 39 c6             	cmp    %eax,%r14d
    f44c:	0f 95 c0             	setne  %al
    f44f:	0f b6 c0             	movzbl %al,%eax
    f452:	48 89 c7             	mov    %rax,%rdi
    f455:	e8 bc 93 ff ff       	callq  8816 <safe_unary_minus_func_int64_t_s>
    f45a:	0f be c0             	movsbl %al,%eax
    f45d:	8b 95 10 e7 ff ff    	mov    -0x18f0(%rbp),%edx
    f463:	89 d6                	mov    %edx,%esi
    f465:	89 c7                	mov    %eax,%edi
    f467:	e8 00 8f ff ff       	callq  836c <safe_rshift_func_int8_t_s_u>
    f46c:	0f be c0             	movsbl %al,%eax
    f46f:	41 39 c5             	cmp    %eax,%r13d
    f472:	0f 9f c0             	setg   %al
    f475:	0f b6 d0             	movzbl %al,%edx
    f478:	48 8b 85 d8 e7 ff ff 	mov    -0x1828(%rbp),%rax
    f47f:	0f b7 00             	movzwl (%rax),%eax
    f482:	21 c2                	and    %eax,%edx
    f484:	48 8b 85 d8 e7 ff ff 	mov    -0x1828(%rbp),%rax
    f48b:	66 89 10             	mov    %dx,(%rax)
    f48e:	48 8b 85 d8 e7 ff ff 	mov    -0x1828(%rbp),%rax
    f495:	0f b7 00             	movzwl (%rax),%eax
    f498:	0f b7 c0             	movzwl %ax,%eax
    f49b:	89 c6                	mov    %eax,%esi
    f49d:	bf 00 00 00 00       	mov    $0x0,%edi
    f4a2:	e8 e7 98 ff ff       	callq  8d8e <safe_div_func_uint16_t_u_u>
    f4a7:	0f b7 c0             	movzwl %ax,%eax
    f4aa:	89 85 0c e7 ff ff    	mov    %eax,-0x18f4(%rbp)
    f4b0:	83 bd 0c e7 ff ff 00 	cmpl   $0x0,-0x18f4(%rbp)
    f4b7:	74 11                	je     f4ca <func_73+0x1d72>
    f4b9:	8b 05 ad 9c 00 00    	mov    0x9cad(%rip),%eax        # 1916c <g_846>
    f4bf:	85 c0                	test   %eax,%eax
    f4c1:	74 07                	je     f4ca <func_73+0x1d72>
    f4c3:	ba 01 00 00 00       	mov    $0x1,%edx
    f4c8:	eb 05                	jmp    f4cf <func_73+0x1d77>
    f4ca:	ba 00 00 00 00       	mov    $0x0,%edx
    f4cf:	48 8b 05 42 cf 00 00 	mov    0xcf42(%rip),%rax        # 1c418 <g_1116>
    f4d6:	89 10                	mov    %edx,(%rax)
    f4d8:	8b 85 0c e7 ff ff    	mov    -0x18f4(%rbp),%eax
    f4de:	48 8b 5d c8          	mov    -0x38(%rbp),%rbx
    f4e2:	64 48 33 1c 25 28 00 	xor    %fs:0x28,%rbx
    f4e9:	00 00 
    f4eb:	74 05                	je     f4f2 <func_73+0x1d9a>
    f4ed:	e8 7e 8b ff ff       	callq  8070 <__stack_chk_fail@plt>
    f4f2:	48 81 c4 e8 18 00 00 	add    $0x18e8,%rsp
    f4f9:	5b                   	pop    %rbx
    f4fa:	41 5c                	pop    %r12
    f4fc:	41 5d                	pop    %r13
    f4fe:	41 5e                	pop    %r14
    f500:	41 5f                	pop    %r15
    f502:	5d                   	pop    %rbp
    f503:	c3                   	retq   

000000000000f504 <func_75>:
    f504:	f3 0f 1e fa          	endbr64 
    f508:	55                   	push   %rbp
    f509:	48 89 e5             	mov    %rsp,%rbp
    f50c:	48 81 ec c0 03 00 00 	sub    $0x3c0,%rsp
    f513:	48 89 bd 48 fc ff ff 	mov    %rdi,-0x3b8(%rbp)
    f51a:	89 f0                	mov    %esi,%eax
    f51c:	66 89 85 44 fc ff ff 	mov    %ax,-0x3bc(%rbp)
    f523:	89 d0                	mov    %edx,%eax
    f525:	88 85 40 fc ff ff    	mov    %al,-0x3c0(%rbp)
    f52b:	64 48 8b 04 25 28 00 	mov    %fs:0x28,%rax
    f532:	00 00 
    f534:	48 89 45 f8          	mov    %rax,-0x8(%rbp)
    f538:	31 c0                	xor    %eax,%eax
    f53a:	c6 85 5d fc ff ff 01 	movb   $0x1,-0x3a3(%rbp)
    f541:	c7 85 60 fc ff ff 38 	movl   $0xc2e2a438,-0x3a0(%rbp)
    f548:	a4 e2 c2 
    f54b:	48 8d 85 90 fc ff ff 	lea    -0x370(%rbp),%rax
    f552:	48 8d 15 27 5a 00 00 	lea    0x5a27(%rip),%rdx        # 14f80 <g_1477+0x7f8>
    f559:	b9 6c 00 00 00       	mov    $0x6c,%ecx
    f55e:	48 89 c7             	mov    %rax,%rdi
    f561:	48 89 d6             	mov    %rdx,%rsi
    f564:	f3 48 a5             	rep movsq %ds:(%rsi),%es:(%rdi)
    f567:	48 8d 05 82 c3 00 00 	lea    0xc382(%rip),%rax        # 1b8f0 <g_483>
    f56e:	48 89 85 78 fc ff ff 	mov    %rax,-0x388(%rbp)
    f575:	48 b8 7f 46 b9 fc 50 	movabs $0x1aed1250fcb9467f,%rax
    f57c:	12 ed 1a 
    f57f:	48 89 85 68 fc ff ff 	mov    %rax,-0x398(%rbp)
    f586:	48 8d 05 c3 bb 00 00 	lea    0xbbc3(%rip),%rax        # 1b150 <g_189>
    f58d:	48 89 85 80 fc ff ff 	mov    %rax,-0x380(%rbp)
    f594:	48 c7 85 70 fc ff ff 	movq   $0x0,-0x390(%rbp)
    f59b:	00 00 00 00 
    f59f:	48 8d 85 70 fc ff ff 	lea    -0x390(%rbp),%rax
    f5a6:	48 89 85 88 fc ff ff 	mov    %rax,-0x378(%rbp)
    f5ad:	66 c7 85 5e fc ff ff 	movw   $0xfff6,-0x3a2(%rbp)
    f5b4:	f6 ff 
    f5b6:	c7 85 64 fc ff ff 02 	movl   $0x2,-0x39c(%rbp)
    f5bd:	00 00 00 
    f5c0:	80 b5 5d fc ff ff 01 	xorb   $0x1,-0x3a3(%rbp)
    f5c7:	8b 85 64 fc ff ff    	mov    -0x39c(%rbp),%eax
    f5cd:	48 8b 4d f8          	mov    -0x8(%rbp),%rcx
    f5d1:	64 48 33 0c 25 28 00 	xor    %fs:0x28,%rcx
    f5d8:	00 00 
    f5da:	74 05                	je     f5e1 <func_75+0xdd>
    f5dc:	e8 8f 8a ff ff       	callq  8070 <__stack_chk_fail@plt>
    f5e1:	c9                   	leaveq 
    f5e2:	c3                   	retq   

000000000000f5e3 <func_84>:
    f5e3:	f3 0f 1e fa          	endbr64 
    f5e7:	55                   	push   %rbp
    f5e8:	48 89 e5             	mov    %rsp,%rbp
    f5eb:	48 83 ec 40          	sub    $0x40,%rsp
    f5ef:	48 89 7d d8          	mov    %rdi,-0x28(%rbp)
    f5f3:	48 89 75 d0          	mov    %rsi,-0x30(%rbp)
    f5f7:	48 89 55 c8          	mov    %rdx,-0x38(%rbp)
    f5fb:	48 89 4d c0          	mov    %rcx,-0x40(%rbp)
    f5ff:	c7 45 ec 01 00 00 00 	movl   $0x1,-0x14(%rbp)
    f606:	48 8d 05 b3 9a 00 00 	lea    0x9ab3(%rip),%rax        # 190c0 <g_197>
    f60d:	48 89 45 f0          	mov    %rax,-0x10(%rbp)
    f611:	48 8d 05 d8 9a 00 00 	lea    0x9ad8(%rip),%rax        # 190f0 <g_425>
    f618:	48 89 45 f8          	mov    %rax,-0x8(%rbp)
    f61c:	8b 45 ec             	mov    -0x14(%rbp),%eax
    f61f:	0f b6 c0             	movzbl %al,%eax
    f622:	be 00 00 00 00       	mov    $0x0,%esi
    f627:	89 c7                	mov    %eax,%edi
    f629:	e8 90 96 ff ff       	callq  8cbe <safe_rshift_func_uint8_t_u_u>
    f62e:	84 c0                	test   %al,%al
    f630:	74 2b                	je     f65d <func_84+0x7a>
    f632:	48 8b 05 a7 9a 00 00 	mov    0x9aa7(%rip),%rax        # 190e0 <g_421>
    f639:	48 8b 05 a8 9a 00 00 	mov    0x9aa8(%rip),%rax        # 190e8 <g_422>
    f640:	0f b7 05 8f 9a 00 00 	movzwl 0x9a8f(%rip),%eax        # 190d6 <g_282>
    f647:	0f be c0             	movsbl %al,%eax
    f64a:	89 c6                	mov    %eax,%esi
    f64c:	bf 01 00 00 00       	mov    $0x1,%edi
    f651:	e8 14 8c ff ff       	callq  826a <safe_div_func_int8_t_s_s>
    f656:	b8 01 00 00 00       	mov    $0x1,%eax
    f65b:	eb 05                	jmp    f662 <func_84+0x7f>
    f65d:	b8 00 00 00 00       	mov    $0x0,%eax
    f662:	89 c2                	mov    %eax,%edx
    f664:	48 8b 45 f0          	mov    -0x10(%rbp),%rax
    f668:	89 10                	mov    %edx,(%rax)
    f66a:	48 8b 45 f0          	mov    -0x10(%rbp),%rax
    f66e:	8b 00                	mov    (%rax),%eax
    f670:	8b 15 de 99 00 00    	mov    0x99de(%rip),%edx        # 19054 <g_42+0x14>
    f676:	89 c6                	mov    %eax,%esi
    f678:	89 d7                	mov    %edx,%edi
    f67a:	e8 39 98 ff ff       	callq  8eb8 <safe_add_func_uint32_t_u_u>
    f67f:	0f b7 05 22 d6 00 00 	movzwl 0xd622(%rip),%eax        # 1cca8 <g_105>
    f686:	66 83 f8 01          	cmp    $0x1,%ax
    f68a:	0f 95 c0             	setne  %al
    f68d:	0f b6 d0             	movzbl %al,%edx
    f690:	48 8b 05 31 9a 00 00 	mov    0x9a31(%rip),%rax        # 190c8 <g_254>
    f697:	48 09 d0             	or     %rdx,%rax
    f69a:	48 f7 d0             	not    %rax
    f69d:	48 89 c2             	mov    %rax,%rdx
    f6a0:	48 8b 45 f8          	mov    -0x8(%rbp),%rax
    f6a4:	8b 00                	mov    (%rax),%eax
    f6a6:	09 c2                	or     %eax,%edx
    f6a8:	48 8b 45 f8          	mov    -0x8(%rbp),%rax
    f6ac:	89 10                	mov    %edx,(%rax)
    f6ae:	48 8b 45 c0          	mov    -0x40(%rbp),%rax
    f6b2:	c9                   	leaveq 
    f6b3:	c3                   	retq   

000000000000f6b4 <func_89>:
    f6b4:	f3 0f 1e fa          	endbr64 
    f6b8:	55                   	push   %rbp
    f6b9:	48 89 e5             	mov    %rsp,%rbp
    f6bc:	41 57                	push   %r15
    f6be:	41 56                	push   %r14
    f6c0:	41 55                	push   %r13
    f6c2:	41 54                	push   %r12
    f6c4:	53                   	push   %rbx
    f6c5:	48 81 ec 00 10 00 00 	sub    $0x1000,%rsp
    f6cc:	48 83 0c 24 00       	orq    $0x0,(%rsp)
    f6d1:	48 81 ec a8 00 00 00 	sub    $0xa8,%rsp
    f6d8:	48 89 bd 48 ef ff ff 	mov    %rdi,-0x10b8(%rbp)
    f6df:	48 89 b5 40 ef ff ff 	mov    %rsi,-0x10c0(%rbp)
    f6e6:	89 95 3c ef ff ff    	mov    %edx,-0x10c4(%rbp)
    f6ec:	64 48 8b 04 25 28 00 	mov    %fs:0x28,%rax
    f6f3:	00 00 
    f6f5:	48 89 45 c8          	mov    %rax,-0x38(%rbp)
    f6f9:	31 c0                	xor    %eax,%eax
    f6fb:	c7 85 90 ef ff ff 00 	movl   $0x0,-0x1070(%rbp)
    f702:	00 00 00 
    f705:	48 8d 05 48 99 00 00 	lea    0x9948(%rip),%rax        # 19054 <g_42+0x14>
    f70c:	48 89 85 e0 ef ff ff 	mov    %rax,-0x1020(%rbp)
    f713:	48 8d 05 4e 99 00 00 	lea    0x994e(%rip),%rax        # 19068 <g_109>
    f71a:	48 89 85 30 f0 ff ff 	mov    %rax,-0xfd0(%rbp)
    f721:	48 8d 05 f8 b9 00 00 	lea    0xb9f8(%rip),%rax        # 1b120 <g_114>
    f728:	48 89 85 38 f0 ff ff 	mov    %rax,-0xfc8(%rbp)
    f72f:	48 c7 85 40 f0 ff ff 	movq   $0x0,-0xfc0(%rbp)
    f736:	00 00 00 00 
    f73a:	48 8d 05 17 49 00 00 	lea    0x4917(%rip),%rax        # 14058 <g_120>
    f741:	48 89 85 e8 ef ff ff 	mov    %rax,-0x1018(%rbp)
    f748:	48 8d 85 e8 ef ff ff 	lea    -0x1018(%rbp),%rax
    f74f:	48 89 85 10 fa ff ff 	mov    %rax,-0x5f0(%rbp)
    f756:	48 8d 85 e8 ef ff ff 	lea    -0x1018(%rbp),%rax
    f75d:	48 89 85 18 fa ff ff 	mov    %rax,-0x5e8(%rbp)
    f764:	48 c7 85 20 fa ff ff 	movq   $0x0,-0x5e0(%rbp)
    f76b:	00 00 00 00 
    f76f:	48 8d 85 e8 ef ff ff 	lea    -0x1018(%rbp),%rax
    f776:	48 89 85 28 fa ff ff 	mov    %rax,-0x5d8(%rbp)
    f77d:	48 8d 85 e8 ef ff ff 	lea    -0x1018(%rbp),%rax
    f784:	48 89 85 30 fa ff ff 	mov    %rax,-0x5d0(%rbp)
    f78b:	48 c7 85 38 fa ff ff 	movq   $0x0,-0x5c8(%rbp)
    f792:	00 00 00 00 
    f796:	48 8d 85 e8 ef ff ff 	lea    -0x1018(%rbp),%rax
    f79d:	48 89 85 40 fa ff ff 	mov    %rax,-0x5c0(%rbp)
    f7a4:	48 8d 85 e8 ef ff ff 	lea    -0x1018(%rbp),%rax
    f7ab:	48 89 85 48 fa ff ff 	mov    %rax,-0x5b8(%rbp)
    f7b2:	48 8d 85 e8 ef ff ff 	lea    -0x1018(%rbp),%rax
    f7b9:	48 89 85 50 fa ff ff 	mov    %rax,-0x5b0(%rbp)
    f7c0:	48 c7 85 58 fa ff ff 	movq   $0x0,-0x5a8(%rbp)
    f7c7:	00 00 00 00 
    f7cb:	48 8d 85 e8 ef ff ff 	lea    -0x1018(%rbp),%rax
    f7d2:	48 89 85 60 fa ff ff 	mov    %rax,-0x5a0(%rbp)
    f7d9:	48 c7 85 68 fa ff ff 	movq   $0x0,-0x598(%rbp)
    f7e0:	00 00 00 00 
    f7e4:	48 c7 85 70 fa ff ff 	movq   $0x0,-0x590(%rbp)
    f7eb:	00 00 00 00 
    f7ef:	48 8d 85 e8 ef ff ff 	lea    -0x1018(%rbp),%rax
    f7f6:	48 89 85 78 fa ff ff 	mov    %rax,-0x588(%rbp)
    f7fd:	48 c7 85 80 fa ff ff 	movq   $0x0,-0x580(%rbp)
    f804:	00 00 00 00 
    f808:	48 c7 85 88 fa ff ff 	movq   $0x0,-0x578(%rbp)
    f80f:	00 00 00 00 
    f813:	48 8d 85 e8 ef ff ff 	lea    -0x1018(%rbp),%rax
    f81a:	48 89 85 90 fa ff ff 	mov    %rax,-0x570(%rbp)
    f821:	48 8d 85 e8 ef ff ff 	lea    -0x1018(%rbp),%rax
    f828:	48 89 85 98 fa ff ff 	mov    %rax,-0x568(%rbp)
    f82f:	48 c7 85 a0 fa ff ff 	movq   $0x0,-0x560(%rbp)
    f836:	00 00 00 00 
    f83a:	48 8d 85 e8 ef ff ff 	lea    -0x1018(%rbp),%rax
    f841:	48 89 85 a8 fa ff ff 	mov    %rax,-0x558(%rbp)
    f848:	48 8d 85 e8 ef ff ff 	lea    -0x1018(%rbp),%rax
    f84f:	48 89 85 b0 fa ff ff 	mov    %rax,-0x550(%rbp)
    f856:	48 8d 85 e8 ef ff ff 	lea    -0x1018(%rbp),%rax
    f85d:	48 89 85 b8 fa ff ff 	mov    %rax,-0x548(%rbp)
    f864:	48 8d 85 e8 ef ff ff 	lea    -0x1018(%rbp),%rax
    f86b:	48 89 85 c0 fa ff ff 	mov    %rax,-0x540(%rbp)
    f872:	48 8d 85 e8 ef ff ff 	lea    -0x1018(%rbp),%rax
    f879:	48 89 85 c8 fa ff ff 	mov    %rax,-0x538(%rbp)
    f880:	48 8d 85 e8 ef ff ff 	lea    -0x1018(%rbp),%rax
    f887:	48 89 85 d0 fa ff ff 	mov    %rax,-0x530(%rbp)
    f88e:	48 c7 85 d8 fa ff ff 	movq   $0x0,-0x528(%rbp)
    f895:	00 00 00 00 
    f899:	48 c7 85 e0 fa ff ff 	movq   $0x0,-0x520(%rbp)
    f8a0:	00 00 00 00 
    f8a4:	48 8d 85 e8 ef ff ff 	lea    -0x1018(%rbp),%rax
    f8ab:	48 89 85 e8 fa ff ff 	mov    %rax,-0x518(%rbp)
    f8b2:	48 8d 85 e8 ef ff ff 	lea    -0x1018(%rbp),%rax
    f8b9:	48 89 85 f0 fa ff ff 	mov    %rax,-0x510(%rbp)
    f8c0:	48 8d 85 e8 ef ff ff 	lea    -0x1018(%rbp),%rax
    f8c7:	48 89 85 f8 fa ff ff 	mov    %rax,-0x508(%rbp)
    f8ce:	48 c7 85 00 fb ff ff 	movq   $0x0,-0x500(%rbp)
    f8d5:	00 00 00 00 
    f8d9:	48 8d 85 e8 ef ff ff 	lea    -0x1018(%rbp),%rax
    f8e0:	48 89 85 08 fb ff ff 	mov    %rax,-0x4f8(%rbp)
    f8e7:	48 c7 85 10 fb ff ff 	movq   $0x0,-0x4f0(%rbp)
    f8ee:	00 00 00 00 
    f8f2:	48 c7 85 18 fb ff ff 	movq   $0x0,-0x4e8(%rbp)
    f8f9:	00 00 00 00 
    f8fd:	48 8d 85 e8 ef ff ff 	lea    -0x1018(%rbp),%rax
    f904:	48 89 85 20 fb ff ff 	mov    %rax,-0x4e0(%rbp)
    f90b:	48 8d 85 e8 ef ff ff 	lea    -0x1018(%rbp),%rax
    f912:	48 89 85 28 fb ff ff 	mov    %rax,-0x4d8(%rbp)
    f919:	48 8d 85 e8 ef ff ff 	lea    -0x1018(%rbp),%rax
    f920:	48 89 85 30 fb ff ff 	mov    %rax,-0x4d0(%rbp)
    f927:	48 c7 85 38 fb ff ff 	movq   $0x0,-0x4c8(%rbp)
    f92e:	00 00 00 00 
    f932:	48 c7 85 40 fb ff ff 	movq   $0x0,-0x4c0(%rbp)
    f939:	00 00 00 00 
    f93d:	48 8d 85 e8 ef ff ff 	lea    -0x1018(%rbp),%rax
    f944:	48 89 85 48 fb ff ff 	mov    %rax,-0x4b8(%rbp)
    f94b:	48 8d 85 e8 ef ff ff 	lea    -0x1018(%rbp),%rax
    f952:	48 89 85 50 fb ff ff 	mov    %rax,-0x4b0(%rbp)
    f959:	48 c7 85 58 fb ff ff 	movq   $0x0,-0x4a8(%rbp)
    f960:	00 00 00 00 
    f964:	48 c7 85 60 fb ff ff 	movq   $0x0,-0x4a0(%rbp)
    f96b:	00 00 00 00 
    f96f:	48 8d 85 e8 ef ff ff 	lea    -0x1018(%rbp),%rax
    f976:	48 89 85 68 fb ff ff 	mov    %rax,-0x498(%rbp)
    f97d:	48 8d 85 e8 ef ff ff 	lea    -0x1018(%rbp),%rax
    f984:	48 89 85 70 fb ff ff 	mov    %rax,-0x490(%rbp)
    f98b:	48 8d 85 e8 ef ff ff 	lea    -0x1018(%rbp),%rax
    f992:	48 89 85 78 fb ff ff 	mov    %rax,-0x488(%rbp)
    f999:	48 8d 85 e8 ef ff ff 	lea    -0x1018(%rbp),%rax
    f9a0:	48 89 85 80 fb ff ff 	mov    %rax,-0x480(%rbp)
    f9a7:	48 c7 85 88 fb ff ff 	movq   $0x0,-0x478(%rbp)
    f9ae:	00 00 00 00 
    f9b2:	48 8d 85 e8 ef ff ff 	lea    -0x1018(%rbp),%rax
    f9b9:	48 89 85 90 fb ff ff 	mov    %rax,-0x470(%rbp)
    f9c0:	48 c7 85 98 fb ff ff 	movq   $0x0,-0x468(%rbp)
    f9c7:	00 00 00 00 
    f9cb:	48 8d 85 e8 ef ff ff 	lea    -0x1018(%rbp),%rax
    f9d2:	48 89 85 a0 fb ff ff 	mov    %rax,-0x460(%rbp)
    f9d9:	48 8d 85 e8 ef ff ff 	lea    -0x1018(%rbp),%rax
    f9e0:	48 89 85 a8 fb ff ff 	mov    %rax,-0x458(%rbp)
    f9e7:	48 c7 85 b0 fb ff ff 	movq   $0x0,-0x450(%rbp)
    f9ee:	00 00 00 00 
    f9f2:	48 c7 85 b8 fb ff ff 	movq   $0x0,-0x448(%rbp)
    f9f9:	00 00 00 00 
    f9fd:	48 c7 85 c0 fb ff ff 	movq   $0x0,-0x440(%rbp)
    fa04:	00 00 00 00 
    fa08:	48 8d 85 e8 ef ff ff 	lea    -0x1018(%rbp),%rax
    fa0f:	48 89 85 c8 fb ff ff 	mov    %rax,-0x438(%rbp)
    fa16:	48 c7 85 d0 fb ff ff 	movq   $0x0,-0x430(%rbp)
    fa1d:	00 00 00 00 
    fa21:	48 8d 85 e8 ef ff ff 	lea    -0x1018(%rbp),%rax
    fa28:	48 89 85 d8 fb ff ff 	mov    %rax,-0x428(%rbp)
    fa2f:	48 c7 85 e0 fb ff ff 	movq   $0x0,-0x420(%rbp)
    fa36:	00 00 00 00 
    fa3a:	48 8d 85 e8 ef ff ff 	lea    -0x1018(%rbp),%rax
    fa41:	48 89 85 e8 fb ff ff 	mov    %rax,-0x418(%rbp)
    fa48:	48 8d 85 e8 ef ff ff 	lea    -0x1018(%rbp),%rax
    fa4f:	48 89 85 f0 fb ff ff 	mov    %rax,-0x410(%rbp)
    fa56:	48 c7 85 f8 fb ff ff 	movq   $0x0,-0x408(%rbp)
    fa5d:	00 00 00 00 
    fa61:	48 8d 85 e8 ef ff ff 	lea    -0x1018(%rbp),%rax
    fa68:	48 89 85 00 fc ff ff 	mov    %rax,-0x400(%rbp)
    fa6f:	48 c7 85 08 fc ff ff 	movq   $0x0,-0x3f8(%rbp)
    fa76:	00 00 00 00 
    fa7a:	48 8d 85 e8 ef ff ff 	lea    -0x1018(%rbp),%rax
    fa81:	48 89 85 10 fc ff ff 	mov    %rax,-0x3f0(%rbp)
    fa88:	48 c7 85 18 fc ff ff 	movq   $0x0,-0x3e8(%rbp)
    fa8f:	00 00 00 00 
    fa93:	48 c7 85 20 fc ff ff 	movq   $0x0,-0x3e0(%rbp)
    fa9a:	00 00 00 00 
    fa9e:	48 8d 85 e8 ef ff ff 	lea    -0x1018(%rbp),%rax
    faa5:	48 89 85 28 fc ff ff 	mov    %rax,-0x3d8(%rbp)
    faac:	48 8d 85 e8 ef ff ff 	lea    -0x1018(%rbp),%rax
    fab3:	48 89 85 30 fc ff ff 	mov    %rax,-0x3d0(%rbp)
    faba:	48 8d 85 e8 ef ff ff 	lea    -0x1018(%rbp),%rax
    fac1:	48 89 85 38 fc ff ff 	mov    %rax,-0x3c8(%rbp)
    fac8:	48 c7 85 40 fc ff ff 	movq   $0x0,-0x3c0(%rbp)
    facf:	00 00 00 00 
    fad3:	48 c7 85 48 fc ff ff 	movq   $0x0,-0x3b8(%rbp)
    fada:	00 00 00 00 
    fade:	48 c7 85 50 fc ff ff 	movq   $0x0,-0x3b0(%rbp)
    fae5:	00 00 00 00 
    fae9:	48 8d 85 e8 ef ff ff 	lea    -0x1018(%rbp),%rax
    faf0:	48 89 85 58 fc ff ff 	mov    %rax,-0x3a8(%rbp)
    faf7:	48 8d 85 e8 ef ff ff 	lea    -0x1018(%rbp),%rax
    fafe:	48 89 85 60 fc ff ff 	mov    %rax,-0x3a0(%rbp)
    fb05:	48 8d 85 e8 ef ff ff 	lea    -0x1018(%rbp),%rax
    fb0c:	48 89 85 68 fc ff ff 	mov    %rax,-0x398(%rbp)
    fb13:	48 c7 85 70 fc ff ff 	movq   $0x0,-0x390(%rbp)
    fb1a:	00 00 00 00 
    fb1e:	48 8d 85 e8 ef ff ff 	lea    -0x1018(%rbp),%rax
    fb25:	48 89 85 78 fc ff ff 	mov    %rax,-0x388(%rbp)
    fb2c:	48 c7 85 80 fc ff ff 	movq   $0x0,-0x380(%rbp)
    fb33:	00 00 00 00 
    fb37:	48 8d 85 e8 ef ff ff 	lea    -0x1018(%rbp),%rax
    fb3e:	48 89 85 88 fc ff ff 	mov    %rax,-0x378(%rbp)
    fb45:	48 8d 85 e8 ef ff ff 	lea    -0x1018(%rbp),%rax
    fb4c:	48 89 85 90 fc ff ff 	mov    %rax,-0x370(%rbp)
    fb53:	48 8d 85 e8 ef ff ff 	lea    -0x1018(%rbp),%rax
    fb5a:	48 89 85 98 fc ff ff 	mov    %rax,-0x368(%rbp)
    fb61:	48 c7 85 a0 fc ff ff 	movq   $0x0,-0x360(%rbp)
    fb68:	00 00 00 00 
    fb6c:	48 c7 85 a8 fc ff ff 	movq   $0x0,-0x358(%rbp)
    fb73:	00 00 00 00 
    fb77:	48 8d 85 e8 ef ff ff 	lea    -0x1018(%rbp),%rax
    fb7e:	48 89 85 b0 fc ff ff 	mov    %rax,-0x350(%rbp)
    fb85:	48 8d 85 e8 ef ff ff 	lea    -0x1018(%rbp),%rax
    fb8c:	48 89 85 b8 fc ff ff 	mov    %rax,-0x348(%rbp)
    fb93:	48 8d 85 e8 ef ff ff 	lea    -0x1018(%rbp),%rax
    fb9a:	48 89 85 c0 fc ff ff 	mov    %rax,-0x340(%rbp)
    fba1:	48 c7 85 c8 fc ff ff 	movq   $0x0,-0x338(%rbp)
    fba8:	00 00 00 00 
    fbac:	48 8d 85 e8 ef ff ff 	lea    -0x1018(%rbp),%rax
    fbb3:	48 89 85 d0 fc ff ff 	mov    %rax,-0x330(%rbp)
    fbba:	48 8d 85 e8 ef ff ff 	lea    -0x1018(%rbp),%rax
    fbc1:	48 89 85 d8 fc ff ff 	mov    %rax,-0x328(%rbp)
    fbc8:	48 8d 85 e8 ef ff ff 	lea    -0x1018(%rbp),%rax
    fbcf:	48 89 85 e0 fc ff ff 	mov    %rax,-0x320(%rbp)
    fbd6:	48 8d 85 e8 ef ff ff 	lea    -0x1018(%rbp),%rax
    fbdd:	48 89 85 e8 fc ff ff 	mov    %rax,-0x318(%rbp)
    fbe4:	48 c7 85 f0 fc ff ff 	movq   $0x0,-0x310(%rbp)
    fbeb:	00 00 00 00 
    fbef:	48 8d 85 e8 ef ff ff 	lea    -0x1018(%rbp),%rax
    fbf6:	48 89 85 f8 fc ff ff 	mov    %rax,-0x308(%rbp)
    fbfd:	48 c7 85 00 fd ff ff 	movq   $0x0,-0x300(%rbp)
    fc04:	00 00 00 00 
    fc08:	48 8d 85 e8 ef ff ff 	lea    -0x1018(%rbp),%rax
    fc0f:	48 89 85 08 fd ff ff 	mov    %rax,-0x2f8(%rbp)
    fc16:	48 8d 85 e8 ef ff ff 	lea    -0x1018(%rbp),%rax
    fc1d:	48 89 85 10 fd ff ff 	mov    %rax,-0x2f0(%rbp)
    fc24:	48 8d 85 e8 ef ff ff 	lea    -0x1018(%rbp),%rax
    fc2b:	48 89 85 18 fd ff ff 	mov    %rax,-0x2e8(%rbp)
    fc32:	48 c7 85 20 fd ff ff 	movq   $0x0,-0x2e0(%rbp)
    fc39:	00 00 00 00 
    fc3d:	48 c7 85 28 fd ff ff 	movq   $0x0,-0x2d8(%rbp)
    fc44:	00 00 00 00 
    fc48:	48 8d 85 e8 ef ff ff 	lea    -0x1018(%rbp),%rax
    fc4f:	48 89 85 30 fd ff ff 	mov    %rax,-0x2d0(%rbp)
    fc56:	48 8d 85 e8 ef ff ff 	lea    -0x1018(%rbp),%rax
    fc5d:	48 89 85 38 fd ff ff 	mov    %rax,-0x2c8(%rbp)
    fc64:	48 8d 85 e8 ef ff ff 	lea    -0x1018(%rbp),%rax
    fc6b:	48 89 85 40 fd ff ff 	mov    %rax,-0x2c0(%rbp)
    fc72:	48 8d 85 e8 ef ff ff 	lea    -0x1018(%rbp),%rax
    fc79:	48 89 85 48 fd ff ff 	mov    %rax,-0x2b8(%rbp)
    fc80:	48 8d 85 e8 ef ff ff 	lea    -0x1018(%rbp),%rax
    fc87:	48 89 85 50 fd ff ff 	mov    %rax,-0x2b0(%rbp)
    fc8e:	48 8d 85 e8 ef ff ff 	lea    -0x1018(%rbp),%rax
    fc95:	48 89 85 58 fd ff ff 	mov    %rax,-0x2a8(%rbp)
    fc9c:	48 c7 85 60 fd ff ff 	movq   $0x0,-0x2a0(%rbp)
    fca3:	00 00 00 00 
    fca7:	48 8d 85 e8 ef ff ff 	lea    -0x1018(%rbp),%rax
    fcae:	48 89 85 68 fd ff ff 	mov    %rax,-0x298(%rbp)
    fcb5:	48 8d 85 e8 ef ff ff 	lea    -0x1018(%rbp),%rax
    fcbc:	48 89 85 70 fd ff ff 	mov    %rax,-0x290(%rbp)
    fcc3:	48 8d 85 e8 ef ff ff 	lea    -0x1018(%rbp),%rax
    fcca:	48 89 85 78 fd ff ff 	mov    %rax,-0x288(%rbp)
    fcd1:	48 c7 85 80 fd ff ff 	movq   $0x0,-0x280(%rbp)
    fcd8:	00 00 00 00 
    fcdc:	48 8d 85 e8 ef ff ff 	lea    -0x1018(%rbp),%rax
    fce3:	48 89 85 88 fd ff ff 	mov    %rax,-0x278(%rbp)
    fcea:	48 c7 85 90 fd ff ff 	movq   $0x0,-0x270(%rbp)
    fcf1:	00 00 00 00 
    fcf5:	48 8d 85 e8 ef ff ff 	lea    -0x1018(%rbp),%rax
    fcfc:	48 89 85 98 fd ff ff 	mov    %rax,-0x268(%rbp)
    fd03:	48 8d 85 e8 ef ff ff 	lea    -0x1018(%rbp),%rax
    fd0a:	48 89 85 a0 fd ff ff 	mov    %rax,-0x260(%rbp)
    fd11:	48 c7 85 a8 fd ff ff 	movq   $0x0,-0x258(%rbp)
    fd18:	00 00 00 00 
    fd1c:	48 8d 85 e8 ef ff ff 	lea    -0x1018(%rbp),%rax
    fd23:	48 89 85 b0 fd ff ff 	mov    %rax,-0x250(%rbp)
    fd2a:	48 8d 85 e8 ef ff ff 	lea    -0x1018(%rbp),%rax
    fd31:	48 89 85 b8 fd ff ff 	mov    %rax,-0x248(%rbp)
    fd38:	48 c7 85 c0 fd ff ff 	movq   $0x0,-0x240(%rbp)
    fd3f:	00 00 00 00 
    fd43:	48 8d 85 e8 ef ff ff 	lea    -0x1018(%rbp),%rax
    fd4a:	48 89 85 c8 fd ff ff 	mov    %rax,-0x238(%rbp)
    fd51:	48 8d 85 e8 ef ff ff 	lea    -0x1018(%rbp),%rax
    fd58:	48 89 85 d0 fd ff ff 	mov    %rax,-0x230(%rbp)
    fd5f:	48 8d 85 e8 ef ff ff 	lea    -0x1018(%rbp),%rax
    fd66:	48 89 85 d8 fd ff ff 	mov    %rax,-0x228(%rbp)
    fd6d:	48 c7 85 e0 fd ff ff 	movq   $0x0,-0x220(%rbp)
    fd74:	00 00 00 00 
    fd78:	48 8d 85 e8 ef ff ff 	lea    -0x1018(%rbp),%rax
    fd7f:	48 89 85 e8 fd ff ff 	mov    %rax,-0x218(%rbp)
    fd86:	48 8d 85 e8 ef ff ff 	lea    -0x1018(%rbp),%rax
    fd8d:	48 89 85 f0 fd ff ff 	mov    %rax,-0x210(%rbp)
    fd94:	48 8d 85 e8 ef ff ff 	lea    -0x1018(%rbp),%rax
    fd9b:	48 89 85 f8 fd ff ff 	mov    %rax,-0x208(%rbp)
    fda2:	48 8d 85 e8 ef ff ff 	lea    -0x1018(%rbp),%rax
    fda9:	48 89 85 00 fe ff ff 	mov    %rax,-0x200(%rbp)
    fdb0:	48 8d 85 e8 ef ff ff 	lea    -0x1018(%rbp),%rax
    fdb7:	48 89 85 08 fe ff ff 	mov    %rax,-0x1f8(%rbp)
    fdbe:	48 8d 85 e8 ef ff ff 	lea    -0x1018(%rbp),%rax
    fdc5:	48 89 85 10 fe ff ff 	mov    %rax,-0x1f0(%rbp)
    fdcc:	48 8d 85 e8 ef ff ff 	lea    -0x1018(%rbp),%rax
    fdd3:	48 89 85 18 fe ff ff 	mov    %rax,-0x1e8(%rbp)
    fdda:	48 8d 85 e8 ef ff ff 	lea    -0x1018(%rbp),%rax
    fde1:	48 89 85 20 fe ff ff 	mov    %rax,-0x1e0(%rbp)
    fde8:	48 8d 85 e8 ef ff ff 	lea    -0x1018(%rbp),%rax
    fdef:	48 89 85 28 fe ff ff 	mov    %rax,-0x1d8(%rbp)
    fdf6:	48 c7 85 30 fe ff ff 	movq   $0x0,-0x1d0(%rbp)
    fdfd:	00 00 00 00 
    fe01:	48 c7 85 38 fe ff ff 	movq   $0x0,-0x1c8(%rbp)
    fe08:	00 00 00 00 
    fe0c:	48 c7 85 40 fe ff ff 	movq   $0x0,-0x1c0(%rbp)
    fe13:	00 00 00 00 
    fe17:	48 8d 85 e8 ef ff ff 	lea    -0x1018(%rbp),%rax
    fe1e:	48 89 85 48 fe ff ff 	mov    %rax,-0x1b8(%rbp)
    fe25:	48 c7 85 50 fe ff ff 	movq   $0x0,-0x1b0(%rbp)
    fe2c:	00 00 00 00 
    fe30:	48 8d 85 e8 ef ff ff 	lea    -0x1018(%rbp),%rax
    fe37:	48 89 85 58 fe ff ff 	mov    %rax,-0x1a8(%rbp)
    fe3e:	48 c7 85 60 fe ff ff 	movq   $0x0,-0x1a0(%rbp)
    fe45:	00 00 00 00 
    fe49:	48 c7 85 68 fe ff ff 	movq   $0x0,-0x198(%rbp)
    fe50:	00 00 00 00 
    fe54:	48 8d 85 e8 ef ff ff 	lea    -0x1018(%rbp),%rax
    fe5b:	48 89 85 70 fe ff ff 	mov    %rax,-0x190(%rbp)
    fe62:	48 c7 85 78 fe ff ff 	movq   $0x0,-0x188(%rbp)
    fe69:	00 00 00 00 
    fe6d:	48 8d 85 e8 ef ff ff 	lea    -0x1018(%rbp),%rax
    fe74:	48 89 85 80 fe ff ff 	mov    %rax,-0x180(%rbp)
    fe7b:	48 c7 85 88 fe ff ff 	movq   $0x0,-0x178(%rbp)
    fe82:	00 00 00 00 
    fe86:	48 8d 85 e8 ef ff ff 	lea    -0x1018(%rbp),%rax
    fe8d:	48 89 85 90 fe ff ff 	mov    %rax,-0x170(%rbp)
    fe94:	48 8d 85 e8 ef ff ff 	lea    -0x1018(%rbp),%rax
    fe9b:	48 89 85 98 fe ff ff 	mov    %rax,-0x168(%rbp)
    fea2:	48 c7 85 a0 fe ff ff 	movq   $0x0,-0x160(%rbp)
    fea9:	00 00 00 00 
    fead:	48 8d 85 e8 ef ff ff 	lea    -0x1018(%rbp),%rax
    feb4:	48 89 85 a8 fe ff ff 	mov    %rax,-0x158(%rbp)
    febb:	48 8d 85 e8 ef ff ff 	lea    -0x1018(%rbp),%rax
    fec2:	48 89 85 b0 fe ff ff 	mov    %rax,-0x150(%rbp)
    fec9:	48 c7 85 b8 fe ff ff 	movq   $0x0,-0x148(%rbp)
    fed0:	00 00 00 00 
    fed4:	48 c7 85 c0 fe ff ff 	movq   $0x0,-0x140(%rbp)
    fedb:	00 00 00 00 
    fedf:	48 c7 85 c8 fe ff ff 	movq   $0x0,-0x138(%rbp)
    fee6:	00 00 00 00 
    feea:	48 c7 85 d0 fe ff ff 	movq   $0x0,-0x130(%rbp)
    fef1:	00 00 00 00 
    fef5:	48 8d 85 e8 ef ff ff 	lea    -0x1018(%rbp),%rax
    fefc:	48 89 85 d8 fe ff ff 	mov    %rax,-0x128(%rbp)
    ff03:	48 8d 85 e8 ef ff ff 	lea    -0x1018(%rbp),%rax
    ff0a:	48 89 85 e0 fe ff ff 	mov    %rax,-0x120(%rbp)
    ff11:	48 c7 85 e8 fe ff ff 	movq   $0x0,-0x118(%rbp)
    ff18:	00 00 00 00 
    ff1c:	48 c7 85 f0 fe ff ff 	movq   $0x0,-0x110(%rbp)
    ff23:	00 00 00 00 
    ff27:	48 c7 85 f8 fe ff ff 	movq   $0x0,-0x108(%rbp)
    ff2e:	00 00 00 00 
    ff32:	48 c7 85 00 ff ff ff 	movq   $0x0,-0x100(%rbp)
    ff39:	00 00 00 00 
    ff3d:	48 c7 85 08 ff ff ff 	movq   $0x0,-0xf8(%rbp)
    ff44:	00 00 00 00 
    ff48:	48 8d 85 e8 ef ff ff 	lea    -0x1018(%rbp),%rax
    ff4f:	48 89 85 10 ff ff ff 	mov    %rax,-0xf0(%rbp)
    ff56:	48 8d 85 e8 ef ff ff 	lea    -0x1018(%rbp),%rax
    ff5d:	48 89 85 18 ff ff ff 	mov    %rax,-0xe8(%rbp)
    ff64:	48 c7 85 20 ff ff ff 	movq   $0x0,-0xe0(%rbp)
    ff6b:	00 00 00 00 
    ff6f:	48 8d 85 e8 ef ff ff 	lea    -0x1018(%rbp),%rax
    ff76:	48 89 85 28 ff ff ff 	mov    %rax,-0xd8(%rbp)
    ff7d:	48 8d 85 e8 ef ff ff 	lea    -0x1018(%rbp),%rax
    ff84:	48 89 85 30 ff ff ff 	mov    %rax,-0xd0(%rbp)
    ff8b:	48 c7 85 38 ff ff ff 	movq   $0x0,-0xc8(%rbp)
    ff92:	00 00 00 00 
    ff96:	48 8d 85 e8 ef ff ff 	lea    -0x1018(%rbp),%rax
    ff9d:	48 89 85 40 ff ff ff 	mov    %rax,-0xc0(%rbp)
    ffa4:	48 8d 85 e8 ef ff ff 	lea    -0x1018(%rbp),%rax
    ffab:	48 89 85 48 ff ff ff 	mov    %rax,-0xb8(%rbp)
    ffb2:	48 8d 85 e8 ef ff ff 	lea    -0x1018(%rbp),%rax
    ffb9:	48 89 85 50 ff ff ff 	mov    %rax,-0xb0(%rbp)
    ffc0:	48 c7 85 58 ff ff ff 	movq   $0x0,-0xa8(%rbp)
    ffc7:	00 00 00 00 
    ffcb:	48 8d 85 e8 ef ff ff 	lea    -0x1018(%rbp),%rax
    ffd2:	48 89 85 60 ff ff ff 	mov    %rax,-0xa0(%rbp)
    ffd9:	48 c7 85 68 ff ff ff 	movq   $0x0,-0x98(%rbp)
    ffe0:	00 00 00 00 
    ffe4:	48 c7 85 70 ff ff ff 	movq   $0x0,-0x90(%rbp)
    ffeb:	00 00 00 00 
    ffef:	48 8d 85 e8 ef ff ff 	lea    -0x1018(%rbp),%rax
    fff6:	48 89 85 78 ff ff ff 	mov    %rax,-0x88(%rbp)
    fffd:	48 c7 45 80 00 00 00 	movq   $0x0,-0x80(%rbp)
   10004:	00 
   10005:	48 c7 45 88 00 00 00 	movq   $0x0,-0x78(%rbp)
   1000c:	00 
   1000d:	48 8d 85 e8 ef ff ff 	lea    -0x1018(%rbp),%rax
   10014:	48 89 45 90          	mov    %rax,-0x70(%rbp)
   10018:	48 8d 85 e8 ef ff ff 	lea    -0x1018(%rbp),%rax
   1001f:	48 89 45 98          	mov    %rax,-0x68(%rbp)
   10023:	48 c7 45 a0 00 00 00 	movq   $0x0,-0x60(%rbp)
   1002a:	00 
   1002b:	48 8d 85 e8 ef ff ff 	lea    -0x1018(%rbp),%rax
   10032:	48 89 45 a8          	mov    %rax,-0x58(%rbp)
   10036:	c7 85 94 ef ff ff 16 	movl   $0x3630fb16,-0x106c(%rbp)
   1003d:	fb 30 36 
   10040:	c7 85 98 ef ff ff 00 	movl   $0x0,-0x1068(%rbp)
   10047:	00 00 00 
   1004a:	c7 85 5c ef ff ff c6 	movl   $0x94db09c6,-0x10a4(%rbp)
   10051:	09 db 94 
   10054:	c7 85 50 f1 ff ff ea 	movl   $0x9c6da3ea,-0xeb0(%rbp)
   1005b:	a3 6d 9c 
   1005e:	c7 85 54 f1 ff ff ea 	movl   $0x9c6da3ea,-0xeac(%rbp)
   10065:	a3 6d 9c 
   10068:	c7 85 58 f1 ff ff ea 	movl   $0x9c6da3ea,-0xea8(%rbp)
   1006f:	a3 6d 9c 
   10072:	c7 85 5c f1 ff ff ea 	movl   $0x9c6da3ea,-0xea4(%rbp)
   10079:	a3 6d 9c 
   1007c:	c7 85 60 f1 ff ff ea 	movl   $0x9c6da3ea,-0xea0(%rbp)
   10083:	a3 6d 9c 
   10086:	c7 85 64 f1 ff ff ea 	movl   $0x9c6da3ea,-0xe9c(%rbp)
   1008d:	a3 6d 9c 
   10090:	c7 85 9c ef ff ff 29 	movl   $0xf7f01029,-0x1064(%rbp)
   10097:	10 f0 f7 
   1009a:	66 c7 85 50 f3 ff ff 	movw   $0xfff9,-0xcb0(%rbp)
   100a1:	f9 ff 
   100a3:	66 c7 85 52 f3 ff ff 	movw   $0x1,-0xcae(%rbp)
   100aa:	01 00 
   100ac:	66 c7 85 54 f3 ff ff 	movw   $0xfff9,-0xcac(%rbp)
   100b3:	f9 ff 
   100b5:	66 c7 85 56 f3 ff ff 	movw   $0xfffa,-0xcaa(%rbp)
   100bc:	fa ff 
   100be:	66 c7 85 58 f3 ff ff 	movw   $0x2ee2,-0xca8(%rbp)
   100c5:	e2 2e 
   100c7:	66 c7 85 5a f3 ff ff 	movw   $0xfab1,-0xca6(%rbp)
   100ce:	b1 fa 
   100d0:	66 c7 85 5c f3 ff ff 	movw   $0xffff,-0xca4(%rbp)
   100d7:	ff ff 
   100d9:	66 c7 85 5e f3 ff ff 	movw   $0xffff,-0xca2(%rbp)
   100e0:	ff ff 
   100e2:	66 c7 85 60 f3 ff ff 	movw   $0xffff,-0xca0(%rbp)
   100e9:	ff ff 
   100eb:	66 c7 85 62 f3 ff ff 	movw   $0x1,-0xc9e(%rbp)
   100f2:	01 00 
   100f4:	66 c7 85 64 f3 ff ff 	movw   $0xfe6b,-0xc9c(%rbp)
   100fb:	6b fe 
   100fd:	66 c7 85 66 f3 ff ff 	movw   $0xfe6b,-0xc9a(%rbp)
   10104:	6b fe 
   10106:	66 c7 85 68 f3 ff ff 	movw   $0x1,-0xc98(%rbp)
   1010d:	01 00 
   1010f:	66 c7 85 6a f3 ff ff 	movw   $0xffff,-0xc96(%rbp)
   10116:	ff ff 
   10118:	66 c7 85 6c f3 ff ff 	movw   $0x2ee2,-0xc94(%rbp)
   1011f:	e2 2e 
   10121:	66 c7 85 6e f3 ff ff 	movw   $0xb774,-0xc92(%rbp)
   10128:	74 b7 
   1012a:	66 c7 85 70 f3 ff ff 	movw   $0xffff,-0xc90(%rbp)
   10131:	ff ff 
   10133:	66 c7 85 72 f3 ff ff 	movw   $0xffff,-0xc8e(%rbp)
   1013a:	ff ff 
   1013c:	66 c7 85 74 f3 ff ff 	movw   $0x5aea,-0xc8c(%rbp)
   10143:	ea 5a 
   10145:	66 c7 85 76 f3 ff ff 	movw   $0x1,-0xc8a(%rbp)
   1014c:	01 00 
   1014e:	66 c7 85 78 f3 ff ff 	movw   $0x2ee2,-0xc88(%rbp)
   10155:	e2 2e 
   10157:	66 c7 85 7a f3 ff ff 	movw   $0x1,-0xc86(%rbp)
   1015e:	01 00 
   10160:	66 c7 85 7c f3 ff ff 	movw   $0x5aea,-0xc84(%rbp)
   10167:	ea 5a 
   10169:	66 c7 85 7e f3 ff ff 	movw   $0xffff,-0xc82(%rbp)
   10170:	ff ff 
   10172:	66 c7 85 80 f3 ff ff 	movw   $0xfff9,-0xc80(%rbp)
   10179:	f9 ff 
   1017b:	66 c7 85 82 f3 ff ff 	movw   $0x5aea,-0xc7e(%rbp)
   10182:	ea 5a 
   10184:	66 c7 85 84 f3 ff ff 	movw   $0xfab1,-0xc7c(%rbp)
   1018b:	b1 fa 
   1018d:	66 c7 85 86 f3 ff ff 	movw   $0x1,-0xc7a(%rbp)
   10194:	01 00 
   10196:	66 c7 85 88 f3 ff ff 	movw   $0xb774,-0xc78(%rbp)
   1019d:	74 b7 
   1019f:	66 c7 85 8a f3 ff ff 	movw   $0xfffa,-0xc76(%rbp)
   101a6:	fa ff 
   101a8:	66 c7 85 8c f3 ff ff 	movw   $0xfffa,-0xc74(%rbp)
   101af:	fa ff 
   101b1:	66 c7 85 8e f3 ff ff 	movw   $0xb774,-0xc72(%rbp)
   101b8:	74 b7 
   101ba:	66 c7 85 90 f3 ff ff 	movw   $0xfe6b,-0xc70(%rbp)
   101c1:	6b fe 
   101c3:	66 c7 85 92 f3 ff ff 	movw   $0xb774,-0xc6e(%rbp)
   101ca:	74 b7 
   101cc:	66 c7 85 94 f3 ff ff 	movw   $0xb774,-0xc6c(%rbp)
   101d3:	74 b7 
   101d5:	66 c7 85 96 f3 ff ff 	movw   $0xfe6b,-0xc6a(%rbp)
   101dc:	6b fe 
   101de:	66 c7 85 98 f3 ff ff 	movw   $0xfff9,-0xc68(%rbp)
   101e5:	f9 ff 
   101e7:	66 c7 85 9a f3 ff ff 	movw   $0xffff,-0xc66(%rbp)
   101ee:	ff ff 
   101f0:	66 c7 85 9c f3 ff ff 	movw   $0xfffa,-0xc64(%rbp)
   101f7:	fa ff 
   101f9:	66 c7 85 9e f3 ff ff 	movw   $0xffff,-0xc62(%rbp)
   10200:	ff ff 
   10202:	66 c7 85 a0 f3 ff ff 	movw   $0x5aea,-0xc60(%rbp)
   10209:	ea 5a 
   1020b:	66 c7 85 a2 f3 ff ff 	movw   $0xfe6b,-0xc5e(%rbp)
   10212:	6b fe 
   10214:	66 c7 85 a4 f3 ff ff 	movw   $0xfab1,-0xc5c(%rbp)
   1021b:	b1 fa 
   1021d:	66 c7 85 a6 f3 ff ff 	movw   $0xfffa,-0xc5a(%rbp)
   10224:	fa ff 
   10226:	66 c7 85 a8 f3 ff ff 	movw   $0xfab1,-0xc58(%rbp)
   1022d:	b1 fa 
   1022f:	66 c7 85 aa f3 ff ff 	movw   $0xfe6b,-0xc56(%rbp)
   10236:	6b fe 
   10238:	66 c7 85 ac f3 ff ff 	movw   $0x5aea,-0xc54(%rbp)
   1023f:	ea 5a 
   10241:	66 c7 85 ae f3 ff ff 	movw   $0x2ee2,-0xc52(%rbp)
   10248:	e2 2e 
   1024a:	66 c7 85 b0 f3 ff ff 	movw   $0xfab1,-0xc50(%rbp)
   10251:	b1 fa 
   10253:	66 c7 85 b2 f3 ff ff 	movw   $0xfe6b,-0xc4e(%rbp)
   1025a:	6b fe 
   1025c:	66 c7 85 b4 f3 ff ff 	movw   $0x5aea,-0xc4c(%rbp)
   10263:	ea 5a 
   10265:	66 c7 85 b6 f3 ff ff 	movw   $0x2ee2,-0xc4a(%rbp)
   1026c:	e2 2e 
   1026e:	66 c7 85 b8 f3 ff ff 	movw   $0xffff,-0xc48(%rbp)
   10275:	ff ff 
   10277:	66 c7 85 ba f3 ff ff 	movw   $0xffff,-0xc46(%rbp)
   1027e:	ff ff 
   10280:	66 c7 85 bc f3 ff ff 	movw   $0x2ee2,-0xc44(%rbp)
   10287:	e2 2e 
   10289:	66 c7 85 be f3 ff ff 	movw   $0x5aea,-0xc42(%rbp)
   10290:	ea 5a 
   10292:	66 c7 85 c0 f3 ff ff 	movw   $0xb774,-0xc40(%rbp)
   10299:	74 b7 
   1029b:	66 c7 85 c2 f3 ff ff 	movw   $0xb774,-0xc3e(%rbp)
   102a2:	74 b7 
   102a4:	66 c7 85 c4 f3 ff ff 	movw   $0xfe6b,-0xc3c(%rbp)
   102ab:	6b fe 
   102ad:	66 c7 85 c6 f3 ff ff 	movw   $0xfff9,-0xc3a(%rbp)
   102b4:	f9 ff 
   102b6:	66 c7 85 c8 f3 ff ff 	movw   $0xffff,-0xc38(%rbp)
   102bd:	ff ff 
   102bf:	66 c7 85 ca f3 ff ff 	movw   $0xfffa,-0xc36(%rbp)
   102c6:	fa ff 
   102c8:	66 c7 85 cc f3 ff ff 	movw   $0xffff,-0xc34(%rbp)
   102cf:	ff ff 
   102d1:	66 c7 85 ce f3 ff ff 	movw   $0xfffa,-0xc32(%rbp)
   102d8:	fa ff 
   102da:	66 c7 85 d0 f3 ff ff 	movw   $0xfab1,-0xc30(%rbp)
   102e1:	b1 fa 
   102e3:	66 c7 85 d2 f3 ff ff 	movw   $0x5aea,-0xc2e(%rbp)
   102ea:	ea 5a 
   102ec:	66 c7 85 d4 f3 ff ff 	movw   $0xfff9,-0xc2c(%rbp)
   102f3:	f9 ff 
   102f5:	66 c7 85 d6 f3 ff ff 	movw   $0x5aea,-0xc2a(%rbp)
   102fc:	ea 5a 
   102fe:	66 c7 85 d8 f3 ff ff 	movw   $0xfab1,-0xc28(%rbp)
   10305:	b1 fa 
   10307:	66 c7 85 da f3 ff ff 	movw   $0x1,-0xc26(%rbp)
   1030e:	01 00 
   10310:	66 c7 85 dc f3 ff ff 	movw   $0xb774,-0xc24(%rbp)
   10317:	74 b7 
   10319:	66 c7 85 de f3 ff ff 	movw   $0xfffa,-0xc22(%rbp)
   10320:	fa ff 
   10322:	66 c7 85 e0 f3 ff ff 	movw   $0x5aea,-0xc20(%rbp)
   10329:	ea 5a 
   1032b:	66 c7 85 e2 f3 ff ff 	movw   $0xffff,-0xc1e(%rbp)
   10332:	ff ff 
   10334:	66 c7 85 e4 f3 ff ff 	movw   $0xffff,-0xc1c(%rbp)
   1033b:	ff ff 
   1033d:	66 c7 85 e6 f3 ff ff 	movw   $0xfff9,-0xc1a(%rbp)
   10344:	f9 ff 
   10346:	66 c7 85 e8 f3 ff ff 	movw   $0xfff9,-0xc18(%rbp)
   1034d:	f9 ff 
   1034f:	66 c7 85 ea f3 ff ff 	movw   $0xffff,-0xc16(%rbp)
   10356:	ff ff 
   10358:	66 c7 85 ec f3 ff ff 	movw   $0xffff,-0xc14(%rbp)
   1035f:	ff ff 
   10361:	66 c7 85 ee f3 ff ff 	movw   $0x5aea,-0xc12(%rbp)
   10368:	ea 5a 
   1036a:	66 c7 85 f0 f3 ff ff 	movw   $0xfe6b,-0xc10(%rbp)
   10371:	6b fe 
   10373:	66 c7 85 f2 f3 ff ff 	movw   $0x1,-0xc0e(%rbp)
   1037a:	01 00 
   1037c:	66 c7 85 f4 f3 ff ff 	movw   $0xffff,-0xc0c(%rbp)
   10383:	ff ff 
   10385:	66 c7 85 f6 f3 ff ff 	movw   $0xffff,-0xc0a(%rbp)
   1038c:	ff ff 
   1038e:	66 c7 85 f8 f3 ff ff 	movw   $0xfffa,-0xc08(%rbp)
   10395:	fa ff 
   10397:	66 c7 85 fa f3 ff ff 	movw   $0xffff,-0xc06(%rbp)
   1039e:	ff ff 
   103a0:	66 c7 85 fc f3 ff ff 	movw   $0xfffa,-0xc04(%rbp)
   103a7:	fa ff 
   103a9:	66 c7 85 fe f3 ff ff 	movw   $0xffff,-0xc02(%rbp)
   103b0:	ff ff 
   103b2:	66 c7 85 00 f4 ff ff 	movw   $0x1,-0xc00(%rbp)
   103b9:	01 00 
   103bb:	66 c7 85 02 f4 ff ff 	movw   $0x2ee2,-0xbfe(%rbp)
   103c2:	e2 2e 
   103c4:	66 c7 85 04 f4 ff ff 	movw   $0x1,-0xbfc(%rbp)
   103cb:	01 00 
   103cd:	66 c7 85 06 f4 ff ff 	movw   $0x5aea,-0xbfa(%rbp)
   103d4:	ea 5a 
   103d6:	66 c7 85 08 f4 ff ff 	movw   $0xffff,-0xbf8(%rbp)
   103dd:	ff ff 
   103df:	66 c7 85 0a f4 ff ff 	movw   $0xffff,-0xbf6(%rbp)
   103e6:	ff ff 
   103e8:	66 c7 85 0c f4 ff ff 	movw   $0xfff9,-0xbf4(%rbp)
   103ef:	f9 ff 
   103f1:	66 c7 85 0e f4 ff ff 	movw   $0xfff9,-0xbf2(%rbp)
   103f8:	f9 ff 
   103fa:	66 c7 85 10 f4 ff ff 	movw   $0xfff9,-0xbf0(%rbp)
   10401:	f9 ff 
   10403:	66 c7 85 12 f4 ff ff 	movw   $0xfe6b,-0xbee(%rbp)
   1040a:	6b fe 
   1040c:	66 c7 85 14 f4 ff ff 	movw   $0xb774,-0xbec(%rbp)
   10413:	74 b7 
   10415:	66 c7 85 16 f4 ff ff 	movw   $0xb774,-0xbea(%rbp)
   1041c:	74 b7 
   1041e:	66 c7 85 18 f4 ff ff 	movw   $0xfe6b,-0xbe8(%rbp)
   10425:	6b fe 
   10427:	66 c7 85 1a f4 ff ff 	movw   $0xfff9,-0xbe6(%rbp)
   1042e:	f9 ff 
   10430:	66 c7 85 1c f4 ff ff 	movw   $0xffff,-0xbe4(%rbp)
   10437:	ff ff 
   10439:	66 c7 85 1e f4 ff ff 	movw   $0xfffa,-0xbe2(%rbp)
   10440:	fa ff 
   10442:	66 c7 85 20 f4 ff ff 	movw   $0xfff9,-0xbe0(%rbp)
   10449:	f9 ff 
   1044b:	66 c7 85 22 f4 ff ff 	movw   $0xfab1,-0xbde(%rbp)
   10452:	b1 fa 
   10454:	66 c7 85 24 f4 ff ff 	movw   $0x1,-0xbdc(%rbp)
   1045b:	01 00 
   1045d:	66 c7 85 26 f4 ff ff 	movw   $0xfe6b,-0xbda(%rbp)
   10464:	6b fe 
   10466:	66 c7 85 28 f4 ff ff 	movw   $0xffff,-0xbd8(%rbp)
   1046d:	ff ff 
   1046f:	66 c7 85 2a f4 ff ff 	movw   $0xfe6b,-0xbd6(%rbp)
   10476:	6b fe 
   10478:	66 c7 85 2c f4 ff ff 	movw   $0x1,-0xbd4(%rbp)
   1047f:	01 00 
   10481:	66 c7 85 2e f4 ff ff 	movw   $0xfab1,-0xbd2(%rbp)
   10488:	b1 fa 
   1048a:	66 c7 85 30 f4 ff ff 	movw   $0x1,-0xbd0(%rbp)
   10491:	01 00 
   10493:	66 c7 85 32 f4 ff ff 	movw   $0x1,-0xbce(%rbp)
   1049a:	01 00 
   1049c:	66 c7 85 34 f4 ff ff 	movw   $0xffff,-0xbcc(%rbp)
   104a3:	ff ff 
   104a5:	66 c7 85 36 f4 ff ff 	movw   $0xfe6b,-0xbca(%rbp)
   104ac:	6b fe 
   104ae:	66 c7 85 38 f4 ff ff 	movw   $0xfffa,-0xbc8(%rbp)
   104b5:	fa ff 
   104b7:	66 c7 85 3a f4 ff ff 	movw   $0x5aea,-0xbc6(%rbp)
   104be:	ea 5a 
   104c0:	66 c7 85 3c f4 ff ff 	movw   $0x5aea,-0xbc4(%rbp)
   104c7:	ea 5a 
   104c9:	66 c7 85 3e f4 ff ff 	movw   $0xfffa,-0xbc2(%rbp)
   104d0:	fa ff 
   104d2:	8b 05 8c 8b 00 00    	mov    0x8b8c(%rip),%eax        # 19064 <g_100>
   104d8:	33 85 3c ef ff ff    	xor    -0x10c4(%rbp),%eax
   104de:	89 05 80 8b 00 00    	mov    %eax,0x8b80(%rip)        # 19064 <g_100>
   104e4:	48 8b 85 e0 ef ff ff 	mov    -0x1020(%rbp),%rax
   104eb:	8b 95 90 ef ff ff    	mov    -0x1070(%rbp),%edx
   104f1:	89 10                	mov    %edx,(%rax)
   104f3:	8b 00                	mov    (%rax),%eax
   104f5:	85 c0                	test   %eax,%eax
   104f7:	74 07                	je     10500 <func_89+0xe4c>
   104f9:	b8 01 00 00 00       	mov    $0x1,%eax
   104fe:	eb 05                	jmp    10505 <func_89+0xe51>
   10500:	b8 00 00 00 00       	mov    $0x0,%eax
   10505:	66 89 05 9c c7 00 00 	mov    %ax,0xc79c(%rip)        # 1cca8 <g_105>
   1050c:	0f b7 05 95 c7 00 00 	movzwl 0xc795(%rip),%eax        # 1cca8 <g_105>
   10513:	0f b7 c0             	movzwl %ax,%eax
   10516:	89 c6                	mov    %eax,%esi
   10518:	bf 01 00 00 00       	mov    $0x1,%edi
   1051d:	e8 fd 87 ff ff       	callq  8d1f <safe_sub_func_uint16_t_u_u>
   10522:	41 89 c4             	mov    %eax,%r12d
   10525:	48 8b 85 30 f0 ff ff 	mov    -0xfd0(%rbp),%rax
   1052c:	48 8b 00             	mov    (%rax),%rax
   1052f:	48 83 f0 09          	xor    $0x9,%rax
   10533:	48 89 c2             	mov    %rax,%rdx
   10536:	48 8b 85 30 f0 ff ff 	mov    -0xfd0(%rbp),%rax
   1053d:	48 89 10             	mov    %rdx,(%rax)
   10540:	48 8b 85 30 f0 ff ff 	mov    -0xfd0(%rbp),%rax
   10547:	48 8b 10             	mov    (%rax),%rdx
   1054a:	8b 85 3c ef ff ff    	mov    -0x10c4(%rbp),%eax
   10550:	48 89 d6             	mov    %rdx,%rsi
   10553:	48 89 c7             	mov    %rax,%rdi
   10556:	e8 4d 83 ff ff       	callq  88a8 <safe_sub_func_int64_t_s_s>
   1055b:	48 89 c3             	mov    %rax,%rbx
   1055e:	48 8b 05 b3 ab 00 00 	mov    0xabb3(%rip),%rax        # 1b118 <g_94>
   10565:	48 8b 00             	mov    (%rax),%rax
   10568:	0f b6 00             	movzbl (%rax),%eax
   1056b:	0f be d0             	movsbl %al,%edx
   1056e:	48 8b 0d ab ab 00 00 	mov    0xabab(%rip),%rcx        # 1b120 <g_114>
   10575:	48 8b 85 38 f0 ff ff 	mov    -0xfc8(%rbp),%rax
   1057c:	48 89 08             	mov    %rcx,(%rax)
   1057f:	48 8b 85 38 f0 ff ff 	mov    -0xfc8(%rbp),%rax
   10586:	48 8b 00             	mov    (%rax),%rax
   10589:	48 89 05 98 ab 00 00 	mov    %rax,0xab98(%rip)        # 1b128 <g_121>
   10590:	48 8b 05 91 ab 00 00 	mov    0xab91(%rip),%rax        # 1b128 <g_121>
   10597:	48 8d 0d c2 3a 00 00 	lea    0x3ac2(%rip),%rcx        # 14060 <g_122>
   1059e:	48 39 c8             	cmp    %rcx,%rax
   105a1:	0f 95 c0             	setne  %al
   105a4:	0f b6 c8             	movzbl %al,%ecx
   105a7:	0f b6 05 bb c6 00 00 	movzbl 0xc6bb(%rip),%eax        # 1cc69 <g_13+0x1>
   105ae:	0f be c0             	movsbl %al,%eax
   105b1:	39 c1                	cmp    %eax,%ecx
   105b3:	0f 95 c0             	setne  %al
   105b6:	0f b6 c0             	movzbl %al,%eax
   105b9:	89 d6                	mov    %edx,%esi
   105bb:	89 c7                	mov    %eax,%edi
   105bd:	e8 50 7c ff ff       	callq  8212 <safe_mul_func_int8_t_s_s>
   105c2:	be 04 00 00 00       	mov    $0x4,%esi
   105c7:	bf 00 00 00 00       	mov    $0x0,%edi
   105cc:	e8 1d 7d ff ff       	callq  82ee <safe_lshift_func_int8_t_s_u>
   105d1:	48 0f be c0          	movsbq %al,%rax
   105d5:	48 39 c3             	cmp    %rax,%rbx
   105d8:	0f 95 c0             	setne  %al
   105db:	0f b6 c0             	movzbl %al,%eax
   105de:	44 21 e0             	and    %r12d,%eax
   105e1:	98                   	cwtl   
   105e2:	be 02 00 00 00       	mov    $0x2,%esi
   105e7:	89 c7                	mov    %eax,%edi
   105e9:	e8 f3 7e ff ff       	callq  84e1 <safe_lshift_func_int16_t_s_u>
   105ee:	66 85 c0             	test   %ax,%ax
   105f1:	0f 84 da 00 00 00    	je     106d1 <func_89+0x101d>
   105f7:	48 c7 85 20 f1 ff ff 	movq   $0x0,-0xee0(%rbp)
   105fe:	00 00 00 00 
   10602:	48 8d 05 1b 8a 00 00 	lea    0x8a1b(%rip),%rax        # 19024 <g_2>
   10609:	48 89 85 28 f1 ff ff 	mov    %rax,-0xed8(%rbp)
   10610:	48 8d 05 29 8a 00 00 	lea    0x8a29(%rip),%rax        # 19040 <g_42>
   10617:	48 89 85 40 f7 ff ff 	mov    %rax,-0x8c0(%rbp)
   1061e:	48 8d 05 1b 8a 00 00 	lea    0x8a1b(%rip),%rax        # 19040 <g_42>
   10625:	48 89 85 48 f7 ff ff 	mov    %rax,-0x8b8(%rbp)
   1062c:	48 8d 05 0d 8a 00 00 	lea    0x8a0d(%rip),%rax        # 19040 <g_42>
   10633:	48 89 85 50 f7 ff ff 	mov    %rax,-0x8b0(%rbp)
   1063a:	48 8d 05 ff 89 00 00 	lea    0x89ff(%rip),%rax        # 19040 <g_42>
   10641:	48 89 85 58 f7 ff ff 	mov    %rax,-0x8a8(%rbp)
   10648:	48 8d 05 f1 89 00 00 	lea    0x89f1(%rip),%rax        # 19040 <g_42>
   1064f:	48 89 85 60 f7 ff ff 	mov    %rax,-0x8a0(%rbp)
   10656:	48 8d 05 e3 89 00 00 	lea    0x89e3(%rip),%rax        # 19040 <g_42>
   1065d:	48 89 85 68 f7 ff ff 	mov    %rax,-0x898(%rbp)
   10664:	48 8d 05 d5 89 00 00 	lea    0x89d5(%rip),%rax        # 19040 <g_42>
   1066b:	48 89 85 70 f7 ff ff 	mov    %rax,-0x890(%rbp)
   10672:	48 8d 05 c7 89 00 00 	lea    0x89c7(%rip),%rax        # 19040 <g_42>
   10679:	48 89 85 78 f7 ff ff 	mov    %rax,-0x888(%rbp)
   10680:	c7 85 3c ef ff ff 00 	movl   $0x0,-0x10c4(%rbp)
   10687:	00 00 00 
   1068a:	eb 37                	jmp    106c3 <func_89+0x100f>
   1068c:	c7 85 dc ef ff ff 09 	movl   $0x9,-0x1024(%rbp)
   10693:	00 00 00 
   10696:	c7 85 28 f0 ff ff c9 	movl   $0xe09c51c9,-0xfd8(%rbp)
   1069d:	51 9c e0 
   106a0:	48 8d 05 11 8a 00 00 	lea    0x8a11(%rip),%rax        # 190b8 <g_187>
   106a7:	48 89 85 30 f1 ff ff 	mov    %rax,-0xed0(%rbp)
   106ae:	48 8d 85 28 f0 ff ff 	lea    -0xfd8(%rbp),%rax
   106b5:	48 89 85 38 f1 ff ff 	mov    %rax,-0xec8(%rbp)
   106bc:	83 85 3c ef ff ff 01 	addl   $0x1,-0x10c4(%rbp)
   106c3:	83 bd 3c ef ff ff 30 	cmpl   $0x30,-0x10c4(%rbp)
   106ca:	75 c0                	jne    1068c <func_89+0xfd8>
   106cc:	e9 07 14 00 00       	jmpq   11ad8 <func_89+0x2424>
   106d1:	c6 85 54 ef ff ff 63 	movb   $0x63,-0x10ac(%rbp)
   106d8:	48 8d 05 cb c5 00 00 	lea    0xc5cb(%rip),%rax        # 1ccaa <g_138>
   106df:	48 89 85 f0 ef ff ff 	mov    %rax,-0x1010(%rbp)
   106e6:	48 8d 05 d3 89 00 00 	lea    0x89d3(%rip),%rax        # 190c0 <g_197>
   106ed:	48 89 85 48 f0 ff ff 	mov    %rax,-0xfb8(%rbp)
   106f4:	c7 85 60 ef ff ff ad 	movl   $0x30723ead,-0x10a0(%rbp)
   106fb:	3e 72 30 
   106fe:	48 b8 8a 77 48 e1 7d 	movabs $0xd114be7de148778a,%rax
   10705:	be 14 d1 
   10708:	48 89 85 f8 ef ff ff 	mov    %rax,-0x1008(%rbp)
   1070f:	48 8d 05 a2 89 00 00 	lea    0x89a2(%rip),%rax        # 190b8 <g_187>
   10716:	48 89 85 00 f0 ff ff 	mov    %rax,-0x1000(%rbp)
   1071d:	c6 85 55 ef ff ff fb 	movb   $0xfb,-0x10ab(%rbp)
   10724:	48 8d 85 40 f7 ff ff 	lea    -0x8c0(%rbp),%rax
   1072b:	48 8d 15 ae 4b 00 00 	lea    0x4bae(%rip),%rdx        # 152e0 <g_1477+0xb58>
   10732:	b9 5a 00 00 00       	mov    $0x5a,%ecx
   10737:	48 89 c7             	mov    %rax,%rdi
   1073a:	48 89 d6             	mov    %rdx,%rsi
   1073d:	f3 48 a5             	rep movsq %ds:(%rsi),%es:(%rdi)
   10740:	48 8d 85 b0 f2 ff ff 	lea    -0xd50(%rbp),%rax
   10747:	48 83 c0 30          	add    $0x30,%rax
   1074b:	48 89 85 50 f0 ff ff 	mov    %rax,-0xfb0(%rbp)
   10752:	c7 85 a0 ef ff ff 02 	movl   $0x2,-0x1060(%rbp)
   10759:	00 00 00 
   1075c:	48 b8 55 55 9a 55 55 	movabs $0x55559a55559a5555,%rax
   10763:	9a 55 55 
   10766:	48 89 45 bf          	mov    %rax,-0x41(%rbp)
   1076a:	c6 45 c7 9a          	movb   $0x9a,-0x39(%rbp)
   1076e:	c7 85 64 ef ff ff 37 	movl   $0x4dd28137,-0x109c(%rbp)
   10775:	81 d2 4d 
   10778:	c7 85 a4 ef ff ff e2 	movl   $0x878cae2,-0x105c(%rbp)
   1077f:	ca 78 08 
   10782:	c7 85 68 ef ff ff 6e 	movl   $0x423f066e,-0x1098(%rbp)
   10789:	06 3f 42 
   1078c:	c7 85 a8 ef ff ff 00 	movl   $0x0,-0x1058(%rbp)
   10793:	00 00 00 
   10796:	66 c7 85 5a ef ff ff 	movw   $0x0,-0x10a6(%rbp)
   1079d:	00 00 
   1079f:	c7 85 ac ef ff ff 00 	movl   $0x0,-0x1054(%rbp)
   107a6:	00 00 00 
   107a9:	48 8d 05 28 89 00 00 	lea    0x8928(%rip),%rax        # 190d8 <g_375>
   107b0:	48 89 85 58 f0 ff ff 	mov    %rax,-0xfa8(%rbp)
   107b7:	48 c7 85 60 f0 ff ff 	movq   $0x5,-0xfa0(%rbp)
   107be:	05 00 00 00 
   107c2:	48 c7 85 68 f0 ff ff 	movq   $0x8,-0xf98(%rbp)
   107c9:	08 00 00 00 
   107cd:	48 c7 85 70 f0 ff ff 	movq   $0x0,-0xf90(%rbp)
   107d4:	00 00 00 00 
   107d8:	c7 85 7c ef ff ff 00 	movl   $0x0,-0x1084(%rbp)
   107df:	00 00 00 
   107e2:	eb 1e                	jmp    10802 <func_89+0x114e>
   107e4:	8b 85 7c ef ff ff    	mov    -0x1084(%rbp),%eax
   107ea:	48 98                	cltq   
   107ec:	48 8d 15 bd 88 00 00 	lea    0x88bd(%rip),%rdx        # 190b0 <g_182>
   107f3:	48 89 94 c5 b0 f2 ff 	mov    %rdx,-0xd50(%rbp,%rax,8)
   107fa:	ff 
   107fb:	83 85 7c ef ff ff 01 	addl   $0x1,-0x1084(%rbp)
   10802:	83 bd 7c ef ff ff 08 	cmpl   $0x8,-0x1084(%rbp)
   10809:	7e d9                	jle    107e4 <func_89+0x1130>
   1080b:	c7 85 7c ef ff ff 00 	movl   $0x0,-0x1084(%rbp)
   10812:	00 00 00 
   10815:	eb 1a                	jmp    10831 <func_89+0x117d>
   10817:	8b 85 7c ef ff ff    	mov    -0x1084(%rbp),%eax
   1081d:	48 98                	cltq   
   1081f:	c7 84 85 90 f1 ff ff 	movl   $0x656fbfa5,-0xe70(%rbp,%rax,4)
   10826:	a5 bf 6f 65 
   1082a:	83 85 7c ef ff ff 01 	addl   $0x1,-0x1084(%rbp)
   10831:	83 bd 7c ef ff ff 06 	cmpl   $0x6,-0x1084(%rbp)
   10838:	7e dd                	jle    10817 <func_89+0x1163>
   1083a:	c7 85 7c ef ff ff 00 	movl   $0x0,-0x1084(%rbp)
   10841:	00 00 00 
   10844:	eb 21                	jmp    10867 <func_89+0x11b3>
   10846:	8b 85 7c ef ff ff    	mov    -0x1084(%rbp),%eax
   1084c:	48 98                	cltq   
   1084e:	48 bb 6f 2a f7 e7 74 	movabs $0x1527d474e7f72a6f,%rbx
   10855:	d4 27 15 
   10858:	48 89 9c c5 70 f1 ff 	mov    %rbx,-0xe90(%rbp,%rax,8)
   1085f:	ff 
   10860:	83 85 7c ef ff ff 01 	addl   $0x1,-0x1084(%rbp)
   10867:	83 bd 7c ef ff ff 02 	cmpl   $0x2,-0x1084(%rbp)
   1086e:	7e d6                	jle    10846 <func_89+0x1192>
   10870:	8b 05 4e 88 00 00    	mov    0x884e(%rip),%eax        # 190c4 <g_211>
   10876:	0f b6 95 54 ef ff ff 	movzbl -0x10ac(%rbp),%edx
   1087d:	48 8b 05 7c a8 00 00 	mov    0xa87c(%rip),%rax        # 1b100 <g_38>
   10884:	8b 00                	mov    (%rax),%eax
   10886:	89 d6                	mov    %edx,%esi
   10888:	89 c7                	mov    %eax,%edi
   1088a:	e8 76 7d ff ff       	callq  8605 <safe_sub_func_int32_t_s_s>
   1088f:	ba 07 00 00 00       	mov    $0x7,%edx
   10894:	48 8b 05 6d a8 00 00 	mov    0xa86d(%rip),%rax        # 1b108 <g_37>
   1089b:	48 8b 85 48 f0 ff ff 	mov    -0xfb8(%rbp),%rax
   108a2:	8b 00                	mov    (%rax),%eax
   108a4:	21 c2                	and    %eax,%edx
   108a6:	48 8b 85 48 f0 ff ff 	mov    -0xfb8(%rbp),%rax
   108ad:	89 10                	mov    %edx,(%rax)
   108af:	0f b6 05 fa 87 00 00 	movzbl 0x87fa(%rip),%eax        # 190b0 <g_182>
   108b6:	84 c0                	test   %al,%al
   108b8:	0f 95 c0             	setne  %al
   108bb:	0f b6 d0             	movzbl %al,%edx
   108be:	0f b6 85 54 ef ff ff 	movzbl -0x10ac(%rbp),%eax
   108c5:	39 c2                	cmp    %eax,%edx
   108c7:	0f 9d c0             	setge  %al
   108ca:	0f b6 d0             	movzbl %al,%edx
   108cd:	48 8b 85 e0 ef ff ff 	mov    -0x1020(%rbp),%rax
   108d4:	8b 00                	mov    (%rax),%eax
   108d6:	39 c2                	cmp    %eax,%edx
   108d8:	0f 9e c0             	setle  %al
   108db:	0f b6 c0             	movzbl %al,%eax
   108de:	89 c6                	mov    %eax,%esi
   108e0:	bf 00 00 00 00       	mov    $0x0,%edi
   108e5:	e8 cc 7c ff ff       	callq  85b6 <safe_add_func_int32_t_s_s>
   108ea:	89 c2                	mov    %eax,%edx
   108ec:	48 8b 85 f0 ef ff ff 	mov    -0x1010(%rbp),%rax
   108f3:	c6 00 7a             	movb   $0x7a,(%rax)
   108f6:	89 d6                	mov    %edx,%esi
   108f8:	bf 7a 00 00 00       	mov    $0x7a,%edi
   108fd:	e8 ec 79 ff ff       	callq  82ee <safe_lshift_func_int8_t_s_u>
   10902:	83 bd 3c ef ff ff 00 	cmpl   $0x0,-0x10c4(%rbp)
   10909:	74 10                	je     1091b <func_89+0x1267>
   1090b:	83 bd 3c ef ff ff 00 	cmpl   $0x0,-0x10c4(%rbp)
   10912:	74 07                	je     1091b <func_89+0x1267>
   10914:	ba 01 00 00 00       	mov    $0x1,%edx
   10919:	eb 05                	jmp    10920 <func_89+0x126c>
   1091b:	ba 00 00 00 00       	mov    $0x0,%edx
   10920:	0f b6 85 54 ef ff ff 	movzbl -0x10ac(%rbp),%eax
   10927:	09 d0                	or     %edx,%eax
   10929:	3d 35 f8 00 00       	cmp    $0xf835,%eax
   1092e:	0f 95 c0             	setne  %al
   10931:	0f b6 c0             	movzbl %al,%eax
   10934:	39 85 3c ef ff ff    	cmp    %eax,-0x10c4(%rbp)
   1093a:	0f 95 c0             	setne  %al
   1093d:	0f b6 d0             	movzbl %al,%edx
   10940:	0f b6 85 54 ef ff ff 	movzbl -0x10ac(%rbp),%eax
   10947:	31 d0                	xor    %edx,%eax
   10949:	89 c2                	mov    %eax,%edx
   1094b:	8b 85 3c ef ff ff    	mov    -0x10c4(%rbp),%eax
   10951:	09 d0                	or     %edx,%eax
   10953:	98                   	cwtl   
   10954:	8b 95 3c ef ff ff    	mov    -0x10c4(%rbp),%edx
   1095a:	89 d6                	mov    %edx,%esi
   1095c:	89 c7                	mov    %eax,%edi
   1095e:	e8 7e 7b ff ff       	callq  84e1 <safe_lshift_func_int16_t_s_u>
   10963:	66 83 f8 f9          	cmp    $0xfff9,%ax
   10967:	0f 95 c0             	setne  %al
   1096a:	0f b6 d0             	movzbl %al,%edx
   1096d:	8b 85 60 ef ff ff    	mov    -0x10a0(%rbp),%eax
   10973:	09 d0                	or     %edx,%eax
   10975:	89 85 60 ef ff ff    	mov    %eax,-0x10a0(%rbp)
   1097b:	8b 85 3c ef ff ff    	mov    -0x10c4(%rbp),%eax
   10981:	0f b7 d8             	movzwl %ax,%ebx
   10984:	44 0f b6 a5 55 ef ff 	movzbl -0x10ab(%rbp),%r12d
   1098b:	ff 
   1098c:	48 8b 05 7d a7 00 00 	mov    0xa77d(%rip),%rax        # 1b110 <g_95>
   10993:	0f b6 00             	movzbl (%rax),%eax
   10996:	44 0f b6 e8          	movzbl %al,%r13d
   1099a:	48 8b 85 f8 ef ff ff 	mov    -0x1008(%rbp),%rax
   109a1:	41 89 c7             	mov    %eax,%r15d
   109a4:	8b 85 3c ef ff ff    	mov    -0x10c4(%rbp),%eax
   109aa:	44 0f bf f0          	movswl %ax,%r14d
   109ae:	48 8b 85 00 f0 ff ff 	mov    -0x1000(%rbp),%rax
   109b5:	48 85 c0             	test   %rax,%rax
   109b8:	0f 95 c0             	setne  %al
   109bb:	0f b6 c0             	movzbl %al,%eax
   109be:	be 00 00 00 00       	mov    $0x0,%esi
   109c3:	89 c7                	mov    %eax,%edi
   109c5:	e8 55 83 ff ff       	callq  8d1f <safe_sub_func_uint16_t_u_u>
   109ca:	44 89 f6             	mov    %r14d,%esi
   109cd:	bf 01 00 00 00       	mov    $0x1,%edi
   109d2:	e8 1e 7a ff ff       	callq  83f5 <safe_mul_func_int16_t_s_s>
   109d7:	98                   	cwtl   
   109d8:	44 89 fe             	mov    %r15d,%esi
   109db:	89 c7                	mov    %eax,%edi
   109dd:	e8 ff 7a ff ff       	callq  84e1 <safe_lshift_func_int16_t_s_u>
   109e2:	0f b6 c0             	movzbl %al,%eax
   109e5:	44 89 ee             	mov    %r13d,%esi
   109e8:	89 c7                	mov    %eax,%edi
   109ea:	e8 6b 81 ff ff       	callq  8b5a <safe_add_func_uint8_t_u_u>
   109ef:	84 c0                	test   %al,%al
   109f1:	0f 94 c0             	sete   %al
   109f4:	0f b6 c0             	movzbl %al,%eax
   109f7:	44 89 e6             	mov    %r12d,%esi
   109fa:	89 c7                	mov    %eax,%edi
   109fc:	e8 fe 7c ff ff       	callq  86ff <safe_div_func_int32_t_s_s>
   10a01:	0f b6 15 61 c2 00 00 	movzbl 0xc261(%rip),%edx        # 1cc69 <g_13+0x1>
   10a08:	0f be d2             	movsbl %dl,%edx
   10a0b:	39 d0                	cmp    %edx,%eax
   10a0d:	48 8b 05 04 a7 00 00 	mov    0xa704(%rip),%rax        # 1b118 <g_94>
   10a14:	48 8b 00             	mov    (%rax),%rax
   10a17:	48 85 c0             	test   %rax,%rax
   10a1a:	48 8b 85 a8 f7 ff ff 	mov    -0x858(%rbp),%rax
   10a21:	0f b7 c0             	movzwl %ax,%eax
   10a24:	89 de                	mov    %ebx,%esi
   10a26:	89 c7                	mov    %eax,%edi
   10a28:	e8 2f 83 ff ff       	callq  8d5c <safe_mod_func_uint16_t_u_u>
   10a2d:	0f b7 d0             	movzwl %ax,%edx
   10a30:	48 8b 85 a8 f7 ff ff 	mov    -0x858(%rbp),%rax
   10a37:	48 21 d0             	and    %rdx,%rax
   10a3a:	48 85 c0             	test   %rax,%rax
   10a3d:	0f 84 8c 10 00 00    	je     11acf <func_89+0x241b>
   10a43:	66 c7 85 58 ef ff ff 	movw   $0xfffc,-0x10a8(%rbp)
   10a4a:	fc ff 
   10a4c:	c7 85 b0 ef ff ff 01 	movl   $0x1,-0x1050(%rbp)
   10a53:	00 00 00 
   10a56:	48 8d 05 53 86 00 00 	lea    0x8653(%rip),%rax        # 190b0 <g_182>
   10a5d:	48 89 85 08 f0 ff ff 	mov    %rax,-0xff8(%rbp)
   10a64:	48 8d 85 08 f0 ff ff 	lea    -0xff8(%rbp),%rax
   10a6b:	48 89 85 f0 f1 ff ff 	mov    %rax,-0xe10(%rbp)
   10a72:	48 8d 85 08 f0 ff ff 	lea    -0xff8(%rbp),%rax
   10a79:	48 89 85 f8 f1 ff ff 	mov    %rax,-0xe08(%rbp)
   10a80:	48 8d 85 08 f0 ff ff 	lea    -0xff8(%rbp),%rax
   10a87:	48 89 85 00 f2 ff ff 	mov    %rax,-0xe00(%rbp)
   10a8e:	48 8d 85 08 f0 ff ff 	lea    -0xff8(%rbp),%rax
   10a95:	48 89 85 08 f2 ff ff 	mov    %rax,-0xdf8(%rbp)
   10a9c:	48 8d 85 08 f0 ff ff 	lea    -0xff8(%rbp),%rax
   10aa3:	48 89 85 10 f2 ff ff 	mov    %rax,-0xdf0(%rbp)
   10aaa:	48 8d 85 08 f0 ff ff 	lea    -0xff8(%rbp),%rax
   10ab1:	48 89 85 18 f2 ff ff 	mov    %rax,-0xde8(%rbp)
   10ab8:	48 8d 85 08 f0 ff ff 	lea    -0xff8(%rbp),%rax
   10abf:	48 89 85 20 f2 ff ff 	mov    %rax,-0xde0(%rbp)
   10ac6:	48 8d 85 08 f0 ff ff 	lea    -0xff8(%rbp),%rax
   10acd:	48 89 85 28 f2 ff ff 	mov    %rax,-0xdd8(%rbp)
   10ad4:	c7 85 30 f2 ff ff 00 	movl   $0x0,-0xdd0(%rbp)
   10adb:	00 00 00 
   10ade:	c7 85 34 f2 ff ff c7 	movl   $0x922de0c7,-0xdcc(%rbp)
   10ae5:	e0 2d 92 
   10ae8:	c7 85 38 f2 ff ff 4a 	movl   $0xce60b54a,-0xdc8(%rbp)
   10aef:	b5 60 ce 
   10af2:	c7 85 3c f2 ff ff 51 	movl   $0x3809a51,-0xdc4(%rbp)
   10af9:	9a 80 03 
   10afc:	c7 85 40 f2 ff ff 4a 	movl   $0xce60b54a,-0xdc0(%rbp)
   10b03:	b5 60 ce 
   10b06:	c7 85 44 f2 ff ff c7 	movl   $0x922de0c7,-0xdbc(%rbp)
   10b0d:	e0 2d 92 
   10b10:	c7 85 48 f2 ff ff 00 	movl   $0x0,-0xdb8(%rbp)
   10b17:	00 00 00 
   10b1a:	c7 85 4c f2 ff ff c7 	movl   $0x922de0c7,-0xdb4(%rbp)
   10b21:	e0 2d 92 
   10b24:	c7 85 50 f2 ff ff 4a 	movl   $0xce60b54a,-0xdb0(%rbp)
   10b2b:	b5 60 ce 
   10b2e:	c7 85 54 f2 ff ff 51 	movl   $0x3809a51,-0xdac(%rbp)
   10b35:	9a 80 03 
   10b38:	c7 85 58 f2 ff ff 4a 	movl   $0xce60b54a,-0xda8(%rbp)
   10b3f:	b5 60 ce 
   10b42:	c7 85 5c f2 ff ff c7 	movl   $0x922de0c7,-0xda4(%rbp)
   10b49:	e0 2d 92 
   10b4c:	c7 85 60 f2 ff ff 00 	movl   $0x0,-0xda0(%rbp)
   10b53:	00 00 00 
   10b56:	c7 85 64 f2 ff ff c7 	movl   $0x922de0c7,-0xd9c(%rbp)
   10b5d:	e0 2d 92 
   10b60:	c7 85 68 f2 ff ff 4a 	movl   $0xce60b54a,-0xd98(%rbp)
   10b67:	b5 60 ce 
   10b6a:	c7 85 6c f2 ff ff 51 	movl   $0x3809a51,-0xd94(%rbp)
   10b71:	9a 80 03 
   10b74:	c6 85 56 ef ff ff 00 	movb   $0x0,-0x10aa(%rbp)
   10b7b:	48 8d 85 00 f0 ff ff 	lea    -0x1000(%rbp),%rax
   10b82:	48 89 85 78 f0 ff ff 	mov    %rax,-0xf88(%rbp)
   10b89:	48 8d 05 d0 84 00 00 	lea    0x84d0(%rip),%rax        # 19060 <g_66>
   10b90:	48 89 85 80 f0 ff ff 	mov    %rax,-0xf80(%rbp)
   10b97:	c7 85 b4 ef ff ff f7 	movl   $0xfffffff7,-0x104c(%rbp)
   10b9e:	ff ff ff 
   10ba1:	48 c7 85 88 f0 ff ff 	movq   $0x0,-0xf78(%rbp)
   10ba8:	00 00 00 00 
   10bac:	c7 85 80 ef ff ff 00 	movl   $0x0,-0x1080(%rbp)
   10bb3:	00 00 00 
   10bb6:	eb 47                	jmp    10bff <func_89+0x154b>
   10bb8:	c7 85 84 ef ff ff 00 	movl   $0x0,-0x107c(%rbp)
   10bbf:	00 00 00 
   10bc2:	eb 2b                	jmp    10bef <func_89+0x153b>
   10bc4:	8b 85 84 ef ff ff    	mov    -0x107c(%rbp),%eax
   10bca:	48 98                	cltq   
   10bcc:	8b 95 80 ef ff ff    	mov    -0x1080(%rbp),%edx
   10bd2:	48 63 d2             	movslq %edx,%rdx
   10bd5:	48 c1 e2 02          	shl    $0x2,%rdx
   10bd9:	48 01 d0             	add    %rdx,%rax
   10bdc:	48 c7 84 c5 70 f2 ff 	movq   $0x0,-0xd90(%rbp,%rax,8)
   10be3:	ff 00 00 00 00 
   10be8:	83 85 84 ef ff ff 01 	addl   $0x1,-0x107c(%rbp)
   10bef:	83 bd 84 ef ff ff 03 	cmpl   $0x3,-0x107c(%rbp)
   10bf6:	7e cc                	jle    10bc4 <func_89+0x1510>
   10bf8:	83 85 80 ef ff ff 01 	addl   $0x1,-0x1080(%rbp)
   10bff:	83 bd 80 ef ff ff 01 	cmpl   $0x1,-0x1080(%rbp)
   10c06:	7e b0                	jle    10bb8 <func_89+0x1504>
   10c08:	48 8b 85 e0 ef ff ff 	mov    -0x1020(%rbp),%rax
   10c0f:	8b 18                	mov    (%rax),%ebx
   10c11:	be 04 00 00 00       	mov    $0x4,%esi
   10c16:	bf 01 00 00 00       	mov    $0x1,%edi
   10c1b:	e8 e5 7f ff ff       	callq  8c05 <safe_lshift_func_uint8_t_u_s>
   10c20:	0f b6 c0             	movzbl %al,%eax
   10c23:	be 01 00 00 00       	mov    $0x1,%esi
   10c28:	48 89 c7             	mov    %rax,%rdi
   10c2b:	e8 78 7c ff ff       	callq  88a8 <safe_sub_func_int64_t_s_s>
   10c30:	0f b6 85 55 ef ff ff 	movzbl -0x10ab(%rbp),%eax
   10c37:	8b 15 17 84 00 00    	mov    0x8417(%rip),%edx        # 19054 <g_42+0x14>
   10c3d:	83 f2 01             	xor    $0x1,%edx
   10c40:	09 d0                	or     %edx,%eax
   10c42:	98                   	cwtl   
   10c43:	89 de                	mov    %ebx,%esi
   10c45:	89 c7                	mov    %eax,%edi
   10c47:	e8 de 78 ff ff       	callq  852a <safe_rshift_func_int16_t_s_s>
   10c4c:	0f bf d0             	movswl %ax,%edx
   10c4f:	0f b7 85 58 ef ff ff 	movzwl -0x10a8(%rbp),%eax
   10c56:	66 35 a2 93          	xor    $0x93a2,%ax
   10c5a:	66 89 85 58 ef ff ff 	mov    %ax,-0x10a8(%rbp)
   10c61:	0f b7 85 58 ef ff ff 	movzwl -0x10a8(%rbp),%eax
   10c68:	0f b7 c0             	movzwl %ax,%eax
   10c6b:	89 d6                	mov    %edx,%esi
   10c6d:	89 c7                	mov    %eax,%edi
   10c6f:	e8 06 82 ff ff       	callq  8e7a <safe_rshift_func_uint16_t_u_u>
   10c74:	0f b7 c0             	movzwl %ax,%eax
   10c77:	0b 85 b0 ef ff ff    	or     -0x1050(%rbp),%eax
   10c7d:	85 c0                	test   %eax,%eax
   10c7f:	0f 84 29 0e 00 00    	je     11aae <func_89+0x23fa>
   10c85:	c7 85 b8 ef ff ff ff 	movl   $0xffffffff,-0x1048(%rbp)
   10c8c:	ff ff ff 
   10c8f:	c7 85 6c ef ff ff ff 	movl   $0xffffffff,-0x1094(%rbp)
   10c96:	ff ff ff 
   10c99:	c7 85 bc ef ff ff d0 	movl   $0x1ae1d1d0,-0x1044(%rbp)
   10ca0:	d1 e1 1a 
   10ca3:	c7 85 c0 ef ff ff 54 	movl   $0xedc5de54,-0x1040(%rbp)
   10caa:	de c5 ed 
   10cad:	c7 85 c4 ef ff ff fa 	movl   $0xfffffffa,-0x103c(%rbp)
   10cb4:	ff ff ff 
   10cb7:	c7 85 70 ef ff ff fb 	movl   $0xfffffffb,-0x1090(%rbp)
   10cbe:	ff ff ff 
   10cc1:	48 8d 85 40 f4 ff ff 	lea    -0xbc0(%rbp),%rax
   10cc8:	48 8d 15 f1 48 00 00 	lea    0x48f1(%rip),%rdx        # 155c0 <g_1477+0xe38>
   10ccf:	b9 24 00 00 00       	mov    $0x24,%ecx
   10cd4:	48 89 c7             	mov    %rax,%rdi
   10cd7:	48 89 d6             	mov    %rdx,%rsi
   10cda:	f3 48 a5             	rep movsq %ds:(%rsi),%es:(%rdi)
   10cdd:	48 8d 85 b0 f2 ff ff 	lea    -0xd50(%rbp),%rax
   10ce4:	48 83 c0 08          	add    $0x8,%rax
   10ce8:	48 89 85 10 f0 ff ff 	mov    %rax,-0xff0(%rbp)
   10cef:	48 8d 85 10 f0 ff ff 	lea    -0xff0(%rbp),%rax
   10cf6:	48 89 85 18 f0 ff ff 	mov    %rax,-0xfe8(%rbp)
   10cfd:	48 c7 05 68 83 00 00 	movq   $0xfffffffffffffffc,0x8368(%rip)        # 19070 <g_115>
   10d04:	fc ff ff ff 
   10d08:	e9 ce 00 00 00       	jmpq   10ddb <func_89+0x1727>
   10d0d:	48 b8 8d 43 b2 d7 9b 	movabs $0xc1137c9bd7b2438d,%rax
   10d14:	7c 13 c1 
   10d17:	48 89 85 60 f5 ff ff 	mov    %rax,-0xaa0(%rbp)
   10d1e:	48 89 85 68 f5 ff ff 	mov    %rax,-0xa98(%rbp)
   10d25:	48 89 85 70 f5 ff ff 	mov    %rax,-0xa90(%rbp)
   10d2c:	48 89 85 78 f5 ff ff 	mov    %rax,-0xa88(%rbp)
   10d33:	48 8d 05 76 83 00 00 	lea    0x8376(%rip),%rax        # 190b0 <g_182>
   10d3a:	48 89 85 18 f1 ff ff 	mov    %rax,-0xee8(%rbp)
   10d41:	48 8b 05 d8 a3 00 00 	mov    0xa3d8(%rip),%rax        # 1b120 <g_114>
   10d48:	48 8b 00             	mov    (%rax),%rax
   10d4b:	48 85 c0             	test   %rax,%rax
   10d4e:	75 5a                	jne    10daa <func_89+0x16f6>
   10d50:	c7 05 76 83 00 00 01 	movl   $0x1,0x8376(%rip)        # 190d0 <g_268>
   10d57:	00 00 00 
   10d5a:	c6 05 73 83 00 00 01 	movb   $0x1,0x8373(%rip)        # 190d4 <g_269>
   10d61:	b8 01 00 00 00       	mov    $0x1,%eax
   10d66:	98                   	cwtl   
   10d67:	be 71 24 00 00       	mov    $0x2471,%esi
   10d6c:	89 c7                	mov    %eax,%edi
   10d6e:	e8 82 76 ff ff       	callq  83f5 <safe_mul_func_int16_t_s_s>
   10d73:	0f b7 d8             	movzwl %ax,%ebx
   10d76:	8b 85 b0 ef ff ff    	mov    -0x1050(%rbp),%eax
   10d7c:	0f bf d0             	movswl %ax,%edx
   10d7f:	48 8b 85 70 f5 ff ff 	mov    -0xa90(%rbp),%rax
   10d86:	89 c1                	mov    %eax,%ecx
   10d88:	48 8b 05 d9 82 00 00 	mov    0x82d9(%rip),%rax        # 19068 <g_109>
   10d8f:	21 c8                	and    %ecx,%eax
   10d91:	98                   	cwtl   
   10d92:	89 d6                	mov    %edx,%esi
   10d94:	89 c7                	mov    %eax,%edi
   10d96:	e8 38 76 ff ff       	callq  83d3 <safe_sub_func_int16_t_s_s>
   10d9b:	0f b7 c0             	movzwl %ax,%eax
   10d9e:	89 de                	mov    %ebx,%esi
   10da0:	89 c7                	mov    %eax,%edi
   10da2:	e8 e7 7f ff ff       	callq  8d8e <safe_div_func_uint16_t_u_u>
   10da7:	66 85 c0             	test   %ax,%ax
   10daa:	48 8b 85 78 f5 ff ff 	mov    -0xa88(%rbp),%rax
   10db1:	48 83 f8 01          	cmp    $0x1,%rax
   10db5:	0f 95 c0             	setne  %al
   10db8:	0f b6 d0             	movzbl %al,%edx
   10dbb:	8b 85 6c ef ff ff    	mov    -0x1094(%rbp),%eax
   10dc1:	21 d0                	and    %edx,%eax
   10dc3:	89 85 6c ef ff ff    	mov    %eax,-0x1094(%rbp)
   10dc9:	48 8b 05 a0 82 00 00 	mov    0x82a0(%rip),%rax        # 19070 <g_115>
   10dd0:	48 83 e8 01          	sub    $0x1,%rax
   10dd4:	48 89 05 95 82 00 00 	mov    %rax,0x8295(%rip)        # 19070 <g_115>
   10ddb:	48 8b 05 8e 82 00 00 	mov    0x828e(%rip),%rax        # 19070 <g_115>
   10de2:	48 83 f8 e4          	cmp    $0xffffffffffffffe4,%rax
   10de6:	0f 8d 21 ff ff ff    	jge    10d0d <func_89+0x1659>
   10dec:	83 bd 3c ef ff ff 00 	cmpl   $0x0,-0x10c4(%rbp)
   10df3:	0f 84 7f 08 00 00    	je     11678 <func_89+0x1fc4>
   10df9:	48 8d 85 58 ef ff ff 	lea    -0x10a8(%rbp),%rax
   10e00:	48 89 85 c0 f0 ff ff 	mov    %rax,-0xf40(%rbp)
   10e07:	48 8d 05 c8 82 00 00 	lea    0x82c8(%rip),%rax        # 190d6 <g_282>
   10e0e:	48 89 85 c8 f0 ff ff 	mov    %rax,-0xf38(%rbp)
   10e15:	c7 85 74 ef ff ff fa 	movl   $0xfffffffa,-0x108c(%rbp)
   10e1c:	ff ff ff 
   10e1f:	48 8d 05 72 be 00 00 	lea    0xbe72(%rip),%rax        # 1cc98 <g_12+0x18>
   10e26:	48 89 85 60 f5 ff ff 	mov    %rax,-0xaa0(%rbp)
   10e2d:	48 8d 05 64 be 00 00 	lea    0xbe64(%rip),%rax        # 1cc98 <g_12+0x18>
   10e34:	48 89 85 68 f5 ff ff 	mov    %rax,-0xa98(%rbp)
   10e3b:	48 8d 05 56 be 00 00 	lea    0xbe56(%rip),%rax        # 1cc98 <g_12+0x18>
   10e42:	48 89 85 70 f5 ff ff 	mov    %rax,-0xa90(%rbp)
   10e49:	48 8d 85 f0 ef ff ff 	lea    -0x1010(%rbp),%rax
   10e50:	48 89 85 78 f5 ff ff 	mov    %rax,-0xa88(%rbp)
   10e57:	48 8d 05 3a be 00 00 	lea    0xbe3a(%rip),%rax        # 1cc98 <g_12+0x18>
   10e5e:	48 89 85 80 f5 ff ff 	mov    %rax,-0xa80(%rbp)
   10e65:	48 8d 85 f0 ef ff ff 	lea    -0x1010(%rbp),%rax
   10e6c:	48 89 85 88 f5 ff ff 	mov    %rax,-0xa78(%rbp)
   10e73:	48 8d 05 1e be 00 00 	lea    0xbe1e(%rip),%rax        # 1cc98 <g_12+0x18>
   10e7a:	48 89 85 90 f5 ff ff 	mov    %rax,-0xa70(%rbp)
   10e81:	48 8d 05 10 be 00 00 	lea    0xbe10(%rip),%rax        # 1cc98 <g_12+0x18>
   10e88:	48 89 85 98 f5 ff ff 	mov    %rax,-0xa68(%rbp)
   10e8f:	48 8d 05 02 be 00 00 	lea    0xbe02(%rip),%rax        # 1cc98 <g_12+0x18>
   10e96:	48 89 85 a0 f5 ff ff 	mov    %rax,-0xa60(%rbp)
   10e9d:	48 8d 05 f4 bd 00 00 	lea    0xbdf4(%rip),%rax        # 1cc98 <g_12+0x18>
   10ea4:	48 89 85 a8 f5 ff ff 	mov    %rax,-0xa58(%rbp)
   10eab:	48 8d 05 e6 bd 00 00 	lea    0xbde6(%rip),%rax        # 1cc98 <g_12+0x18>
   10eb2:	48 89 85 b0 f5 ff ff 	mov    %rax,-0xa50(%rbp)
   10eb9:	48 8d 85 f0 ef ff ff 	lea    -0x1010(%rbp),%rax
   10ec0:	48 89 85 b8 f5 ff ff 	mov    %rax,-0xa48(%rbp)
   10ec7:	48 8d 05 ba bd 00 00 	lea    0xbdba(%rip),%rax        # 1cc88 <g_12+0x8>
   10ece:	48 89 85 c0 f5 ff ff 	mov    %rax,-0xa40(%rbp)
   10ed5:	48 8d 85 f0 ef ff ff 	lea    -0x1010(%rbp),%rax
   10edc:	48 89 85 c8 f5 ff ff 	mov    %rax,-0xa38(%rbp)
   10ee3:	48 8d 05 ae bd 00 00 	lea    0xbdae(%rip),%rax        # 1cc98 <g_12+0x18>
   10eea:	48 89 85 d0 f5 ff ff 	mov    %rax,-0xa30(%rbp)
   10ef1:	48 8d 05 a0 bd 00 00 	lea    0xbda0(%rip),%rax        # 1cc98 <g_12+0x18>
   10ef8:	48 89 85 d8 f5 ff ff 	mov    %rax,-0xa28(%rbp)
   10eff:	48 8d 05 92 bd 00 00 	lea    0xbd92(%rip),%rax        # 1cc98 <g_12+0x18>
   10f06:	48 89 85 e0 f5 ff ff 	mov    %rax,-0xa20(%rbp)
   10f0d:	48 8d 05 84 bd 00 00 	lea    0xbd84(%rip),%rax        # 1cc98 <g_12+0x18>
   10f14:	48 89 85 e8 f5 ff ff 	mov    %rax,-0xa18(%rbp)
   10f1b:	48 8d 05 76 bd 00 00 	lea    0xbd76(%rip),%rax        # 1cc98 <g_12+0x18>
   10f22:	48 89 85 f0 f5 ff ff 	mov    %rax,-0xa10(%rbp)
   10f29:	48 8d 85 f0 ef ff ff 	lea    -0x1010(%rbp),%rax
   10f30:	48 89 85 f8 f5 ff ff 	mov    %rax,-0xa08(%rbp)
   10f37:	48 8d 05 5a bd 00 00 	lea    0xbd5a(%rip),%rax        # 1cc98 <g_12+0x18>
   10f3e:	48 89 85 00 f6 ff ff 	mov    %rax,-0xa00(%rbp)
   10f45:	48 8d 85 f0 ef ff ff 	lea    -0x1010(%rbp),%rax
   10f4c:	48 89 85 08 f6 ff ff 	mov    %rax,-0x9f8(%rbp)
   10f53:	48 8d 05 3e bd 00 00 	lea    0xbd3e(%rip),%rax        # 1cc98 <g_12+0x18>
   10f5a:	48 89 85 10 f6 ff ff 	mov    %rax,-0x9f0(%rbp)
   10f61:	48 8d 05 30 bd 00 00 	lea    0xbd30(%rip),%rax        # 1cc98 <g_12+0x18>
   10f68:	48 89 85 18 f6 ff ff 	mov    %rax,-0x9e8(%rbp)
   10f6f:	48 8d 05 22 bd 00 00 	lea    0xbd22(%rip),%rax        # 1cc98 <g_12+0x18>
   10f76:	48 89 85 20 f6 ff ff 	mov    %rax,-0x9e0(%rbp)
   10f7d:	48 8d 05 14 bd 00 00 	lea    0xbd14(%rip),%rax        # 1cc98 <g_12+0x18>
   10f84:	48 89 85 28 f6 ff ff 	mov    %rax,-0x9d8(%rbp)
   10f8b:	48 8d 05 06 bd 00 00 	lea    0xbd06(%rip),%rax        # 1cc98 <g_12+0x18>
   10f92:	48 89 85 30 f6 ff ff 	mov    %rax,-0x9d0(%rbp)
   10f99:	48 c7 85 38 f6 ff ff 	movq   $0x0,-0x9c8(%rbp)
   10fa0:	00 00 00 00 
   10fa4:	48 8d 05 ed bc 00 00 	lea    0xbced(%rip),%rax        # 1cc98 <g_12+0x18>
   10fab:	48 89 85 40 f6 ff ff 	mov    %rax,-0x9c0(%rbp)
   10fb2:	48 8d 85 f0 ef ff ff 	lea    -0x1010(%rbp),%rax
   10fb9:	48 89 85 48 f6 ff ff 	mov    %rax,-0x9b8(%rbp)
   10fc0:	48 8d 05 d1 bc 00 00 	lea    0xbcd1(%rip),%rax        # 1cc98 <g_12+0x18>
   10fc7:	48 89 85 50 f6 ff ff 	mov    %rax,-0x9b0(%rbp)
   10fce:	48 8d 05 c3 bc 00 00 	lea    0xbcc3(%rip),%rax        # 1cc98 <g_12+0x18>
   10fd5:	48 89 85 58 f6 ff ff 	mov    %rax,-0x9a8(%rbp)
   10fdc:	48 8d 05 a5 bc 00 00 	lea    0xbca5(%rip),%rax        # 1cc88 <g_12+0x8>
   10fe3:	48 89 85 60 f6 ff ff 	mov    %rax,-0x9a0(%rbp)
   10fea:	48 8d 05 a7 bc 00 00 	lea    0xbca7(%rip),%rax        # 1cc98 <g_12+0x18>
   10ff1:	48 89 85 68 f6 ff ff 	mov    %rax,-0x998(%rbp)
   10ff8:	48 8d 05 99 bc 00 00 	lea    0xbc99(%rip),%rax        # 1cc98 <g_12+0x18>
   10fff:	48 89 85 70 f6 ff ff 	mov    %rax,-0x990(%rbp)
   11006:	48 8d 85 f0 ef ff ff 	lea    -0x1010(%rbp),%rax
   1100d:	48 89 85 78 f6 ff ff 	mov    %rax,-0x988(%rbp)
   11014:	48 8d 05 7d bc 00 00 	lea    0xbc7d(%rip),%rax        # 1cc98 <g_12+0x18>
   1101b:	48 89 85 80 f6 ff ff 	mov    %rax,-0x980(%rbp)
   11022:	48 c7 85 88 f6 ff ff 	movq   $0x0,-0x978(%rbp)
   11029:	00 00 00 00 
   1102d:	48 8d 05 64 bc 00 00 	lea    0xbc64(%rip),%rax        # 1cc98 <g_12+0x18>
   11034:	48 89 85 90 f6 ff ff 	mov    %rax,-0x970(%rbp)
   1103b:	48 8d 05 56 bc 00 00 	lea    0xbc56(%rip),%rax        # 1cc98 <g_12+0x18>
   11042:	48 89 85 98 f6 ff ff 	mov    %rax,-0x968(%rbp)
   11049:	48 8d 05 48 bc 00 00 	lea    0xbc48(%rip),%rax        # 1cc98 <g_12+0x18>
   11050:	48 89 85 a0 f6 ff ff 	mov    %rax,-0x960(%rbp)
   11057:	48 8d 05 3a bc 00 00 	lea    0xbc3a(%rip),%rax        # 1cc98 <g_12+0x18>
   1105e:	48 89 85 a8 f6 ff ff 	mov    %rax,-0x958(%rbp)
   11065:	48 8d 05 2c bc 00 00 	lea    0xbc2c(%rip),%rax        # 1cc98 <g_12+0x18>
   1106c:	48 89 85 b0 f6 ff ff 	mov    %rax,-0x950(%rbp)
   11073:	48 8d 85 f0 ef ff ff 	lea    -0x1010(%rbp),%rax
   1107a:	48 89 85 b8 f6 ff ff 	mov    %rax,-0x948(%rbp)
   11081:	48 8d 05 10 bc 00 00 	lea    0xbc10(%rip),%rax        # 1cc98 <g_12+0x18>
   11088:	48 89 85 c0 f6 ff ff 	mov    %rax,-0x940(%rbp)
   1108f:	48 8d 85 f0 ef ff ff 	lea    -0x1010(%rbp),%rax
   11096:	48 89 85 c8 f6 ff ff 	mov    %rax,-0x938(%rbp)
   1109d:	48 8d 05 f4 bb 00 00 	lea    0xbbf4(%rip),%rax        # 1cc98 <g_12+0x18>
   110a4:	48 89 85 d0 f6 ff ff 	mov    %rax,-0x930(%rbp)
   110ab:	48 8d 05 e6 bb 00 00 	lea    0xbbe6(%rip),%rax        # 1cc98 <g_12+0x18>
   110b2:	48 89 85 d8 f6 ff ff 	mov    %rax,-0x928(%rbp)
   110b9:	48 8d 05 d8 bb 00 00 	lea    0xbbd8(%rip),%rax        # 1cc98 <g_12+0x18>
   110c0:	48 89 85 e0 f6 ff ff 	mov    %rax,-0x920(%rbp)
   110c7:	48 8d 05 ca bb 00 00 	lea    0xbbca(%rip),%rax        # 1cc98 <g_12+0x18>
   110ce:	48 89 85 e8 f6 ff ff 	mov    %rax,-0x918(%rbp)
   110d5:	48 8d 05 bc bb 00 00 	lea    0xbbbc(%rip),%rax        # 1cc98 <g_12+0x18>
   110dc:	48 89 85 f0 f6 ff ff 	mov    %rax,-0x910(%rbp)
   110e3:	48 8d 85 f0 ef ff ff 	lea    -0x1010(%rbp),%rax
   110ea:	48 89 85 f8 f6 ff ff 	mov    %rax,-0x908(%rbp)
   110f1:	48 8d 05 90 bb 00 00 	lea    0xbb90(%rip),%rax        # 1cc88 <g_12+0x8>
   110f8:	48 89 85 00 f7 ff ff 	mov    %rax,-0x900(%rbp)
   110ff:	48 8d 85 f0 ef ff ff 	lea    -0x1010(%rbp),%rax
   11106:	48 89 85 08 f7 ff ff 	mov    %rax,-0x8f8(%rbp)
   1110d:	48 8d 05 84 bb 00 00 	lea    0xbb84(%rip),%rax        # 1cc98 <g_12+0x18>
   11114:	48 89 85 10 f7 ff ff 	mov    %rax,-0x8f0(%rbp)
   1111b:	48 8d 05 76 bb 00 00 	lea    0xbb76(%rip),%rax        # 1cc98 <g_12+0x18>
   11122:	48 89 85 18 f7 ff ff 	mov    %rax,-0x8e8(%rbp)
   11129:	48 8d 05 68 bb 00 00 	lea    0xbb68(%rip),%rax        # 1cc98 <g_12+0x18>
   11130:	48 89 85 20 f7 ff ff 	mov    %rax,-0x8e0(%rbp)
   11137:	48 8d 05 5a bb 00 00 	lea    0xbb5a(%rip),%rax        # 1cc98 <g_12+0x18>
   1113e:	48 89 85 28 f7 ff ff 	mov    %rax,-0x8d8(%rbp)
   11145:	48 8d 05 4c bb 00 00 	lea    0xbb4c(%rip),%rax        # 1cc98 <g_12+0x18>
   1114c:	48 89 85 30 f7 ff ff 	mov    %rax,-0x8d0(%rbp)
   11153:	48 8d 85 f0 ef ff ff 	lea    -0x1010(%rbp),%rax
   1115a:	48 89 85 38 f7 ff ff 	mov    %rax,-0x8c8(%rbp)
   11161:	48 8d 85 60 f5 ff ff 	lea    -0xaa0(%rbp),%rax
   11168:	48 05 98 00 00 00    	add    $0x98,%rax
   1116e:	48 89 85 d0 f0 ff ff 	mov    %rax,-0xf30(%rbp)
   11175:	c7 85 c8 ef ff ff 8f 	movl   $0xd09b6b8f,-0x1038(%rbp)
   1117c:	6b 9b d0 
   1117f:	c7 85 78 ef ff ff 00 	movl   $0x0,-0x1088(%rbp)
   11186:	00 00 00 
   11189:	48 c7 85 20 f0 ff ff 	movq   $0x0,-0xfe0(%rbp)
   11190:	00 00 00 00 
   11194:	48 8d 85 70 ef ff ff 	lea    -0x1090(%rbp),%rax
   1119b:	48 89 85 00 f3 ff ff 	mov    %rax,-0xd00(%rbp)
   111a2:	48 8d 05 ab 7e 00 00 	lea    0x7eab(%rip),%rax        # 19054 <g_42+0x14>
   111a9:	48 89 85 08 f3 ff ff 	mov    %rax,-0xcf8(%rbp)
   111b0:	48 8d 05 9d 7e 00 00 	lea    0x7e9d(%rip),%rax        # 19054 <g_42+0x14>
   111b7:	48 89 85 10 f3 ff ff 	mov    %rax,-0xcf0(%rbp)
   111be:	48 8d 85 70 ef ff ff 	lea    -0x1090(%rbp),%rax
   111c5:	48 89 85 18 f3 ff ff 	mov    %rax,-0xce8(%rbp)
   111cc:	48 8d 05 81 7e 00 00 	lea    0x7e81(%rip),%rax        # 19054 <g_42+0x14>
   111d3:	48 89 85 20 f3 ff ff 	mov    %rax,-0xce0(%rbp)
   111da:	48 8d 05 73 7e 00 00 	lea    0x7e73(%rip),%rax        # 19054 <g_42+0x14>
   111e1:	48 89 85 28 f3 ff ff 	mov    %rax,-0xcd8(%rbp)
   111e8:	48 8d 85 70 ef ff ff 	lea    -0x1090(%rbp),%rax
   111ef:	48 89 85 30 f3 ff ff 	mov    %rax,-0xcd0(%rbp)
   111f6:	48 8d 05 57 7e 00 00 	lea    0x7e57(%rip),%rax        # 19054 <g_42+0x14>
   111fd:	48 89 85 38 f3 ff ff 	mov    %rax,-0xcc8(%rbp)
   11204:	48 8d 05 49 7e 00 00 	lea    0x7e49(%rip),%rax        # 19054 <g_42+0x14>
   1120b:	48 89 85 40 f3 ff ff 	mov    %rax,-0xcc0(%rbp)
   11212:	48 8d 85 20 f0 ff ff 	lea    -0xfe0(%rbp),%rax
   11219:	48 89 85 d8 f0 ff ff 	mov    %rax,-0xf28(%rbp)
   11220:	8b 85 3c ef ff ff    	mov    -0x10c4(%rbp),%eax
   11226:	89 c2                	mov    %eax,%edx
   11228:	48 8b 85 c0 f0 ff ff 	mov    -0xf40(%rbp),%rax
   1122f:	66 89 10             	mov    %dx,(%rax)
   11232:	48 8b 85 c0 f0 ff ff 	mov    -0xf40(%rbp),%rax
   11239:	0f b7 10             	movzwl (%rax),%edx
   1123c:	48 8b 85 c8 f0 ff ff 	mov    -0xf38(%rbp),%rax
   11243:	66 89 10             	mov    %dx,(%rax)
   11246:	48 8b 85 c8 f0 ff ff 	mov    -0xf38(%rbp),%rax
   1124d:	0f b7 00             	movzwl (%rax),%eax
   11250:	98                   	cwtl   
   11251:	89 85 74 ef ff ff    	mov    %eax,-0x108c(%rbp)
   11257:	8b 8d 74 ef ff ff    	mov    -0x108c(%rbp),%ecx
   1125d:	48 83 bd d0 f0 ff ff 	cmpq   $0x0,-0xf30(%rbp)
   11264:	00 
   11265:	74 30                	je     11297 <func_89+0x1be3>
   11267:	48 8b 05 12 7e 00 00 	mov    0x7e12(%rip),%rax        # 19080 <g_173>
   1126e:	48 85 c0             	test   %rax,%rax
   11271:	0f 95 c0             	setne  %al
   11274:	0f b6 d0             	movzbl %al,%edx
   11277:	48 8b 85 48 f0 ff ff 	mov    -0xfb8(%rbp),%rax
   1127e:	89 10                	mov    %edx,(%rax)
   11280:	48 8b 85 48 f0 ff ff 	mov    -0xfb8(%rbp),%rax
   11287:	8b 00                	mov    (%rax),%eax
   11289:	3d bb 9b 3f 16       	cmp    $0x163f9bbb,%eax
   1128e:	77 07                	ja     11297 <func_89+0x1be3>
   11290:	b8 01 00 00 00       	mov    $0x1,%eax
   11295:	eb 05                	jmp    1129c <func_89+0x1be8>
   11297:	b8 00 00 00 00       	mov    $0x0,%eax
   1129c:	39 c8                	cmp    %ecx,%eax
   1129e:	0f 9e c0             	setle  %al
   112a1:	0f b6 c0             	movzbl %al,%eax
   112a4:	89 c6                	mov    %eax,%esi
   112a6:	bf b0 ff ff ff       	mov    $0xffffffb0,%edi
   112ab:	e8 62 6f ff ff       	callq  8212 <safe_mul_func_int8_t_s_s>
   112b0:	66 98                	cbtw   
   112b2:	0f b7 c0             	movzwl %ax,%eax
   112b5:	be fd ff 00 00       	mov    $0xfffd,%esi
   112ba:	89 c7                	mov    %eax,%edi
   112bc:	e8 5e 7a ff ff       	callq  8d1f <safe_sub_func_uint16_t_u_u>
   112c1:	0f be c0             	movsbl %al,%eax
   112c4:	89 c6                	mov    %eax,%esi
   112c6:	bf ff ff ff ff       	mov    $0xffffffff,%edi
   112cb:	e8 04 6f ff ff       	callq  81d4 <safe_add_func_int8_t_s_s>
   112d0:	48 8b 85 e0 ef ff ff 	mov    -0x1020(%rbp),%rax
   112d7:	c7 00 ff ff 00 00    	movl   $0xffff,(%rax)
   112dd:	83 bd b8 ef ff ff 00 	cmpl   $0x0,-0x1048(%rbp)
   112e4:	0f 84 21 02 00 00    	je     1150b <func_89+0x1e57>
   112ea:	48 b8 c3 92 83 16 60 	movabs $0x3036be60168392c3,%rax
   112f1:	be 36 30 
   112f4:	48 89 85 e8 f0 ff ff 	mov    %rax,-0xf18(%rbp)
   112fb:	48 8d 85 f0 f1 ff ff 	lea    -0xe10(%rbp),%rax
   11302:	48 83 c0 20          	add    $0x20,%rax
   11306:	48 89 85 f0 f0 ff ff 	mov    %rax,-0xf10(%rbp)
   1130d:	48 8d 85 08 f0 ff ff 	lea    -0xff8(%rbp),%rax
   11314:	48 89 85 28 f0 ff ff 	mov    %rax,-0xfd8(%rbp)
   1131b:	48 8d 85 28 f0 ff ff 	lea    -0xfd8(%rbp),%rax
   11322:	48 89 85 f8 f0 ff ff 	mov    %rax,-0xf08(%rbp)
   11329:	c7 85 d4 ef ff ff fc 	movl   $0xfffffffc,-0x102c(%rbp)
   11330:	ff ff ff 
   11333:	48 c7 85 00 f1 ff ff 	movq   $0x0,-0xf00(%rbp)
   1133a:	00 00 00 00 
   1133e:	48 8d 85 6c ef ff ff 	lea    -0x1094(%rbp),%rax
   11345:	48 89 85 08 f1 ff ff 	mov    %rax,-0xef8(%rbp)
   1134c:	c7 85 d8 ef ff ff 93 	movl   $0x582eae93,-0x1028(%rbp)
   11353:	ae 2e 58 
   11356:	48 8d 85 e0 ef ff ff 	lea    -0x1020(%rbp),%rax
   1135d:	48 89 85 10 f1 ff ff 	mov    %rax,-0xef0(%rbp)
   11364:	c7 85 88 ef ff ff 00 	movl   $0x0,-0x1078(%rbp)
   1136b:	00 00 00 
   1136e:	eb 1e                	jmp    1138e <func_89+0x1cda>
   11370:	8b 85 88 ef ff ff    	mov    -0x1078(%rbp),%eax
   11376:	48 98                	cltq   
   11378:	48 8d 95 74 ef ff ff 	lea    -0x108c(%rbp),%rdx
   1137f:	48 89 94 c5 b0 f1 ff 	mov    %rdx,-0xe50(%rbp,%rax,8)
   11386:	ff 
   11387:	83 85 88 ef ff ff 01 	addl   $0x1,-0x1078(%rbp)
   1138e:	83 bd 88 ef ff ff 04 	cmpl   $0x4,-0x1078(%rbp)
   11395:	7e d9                	jle    11370 <func_89+0x1cbc>
   11397:	8b 05 33 7d 00 00    	mov    0x7d33(%rip),%eax        # 190d0 <g_268>
   1139d:	0f b7 d8             	movzwl %ax,%ebx
   113a0:	8b 85 74 ef ff ff    	mov    -0x108c(%rbp),%eax
   113a6:	98                   	cwtl   
   113a7:	89 c7                	mov    %eax,%edi
   113a9:	e8 ef 6f ff ff       	callq  839d <safe_unary_minus_func_int16_t_s>
   113ae:	98                   	cwtl   
   113af:	33 85 3c ef ff ff    	xor    -0x10c4(%rbp),%eax
   113b5:	89 c2                	mov    %eax,%edx
   113b7:	48 b8 3c 60 49 0d fd 	movabs $0x80529ffd0d49603c,%rax
   113be:	9f 52 80 
   113c1:	48 21 d0             	and    %rdx,%rax
   113c4:	48 85 c0             	test   %rax,%rax
   113c7:	0f 84 c1 00 00 00    	je     1148e <func_89+0x1dda>
   113cd:	48 8b 95 10 f2 ff ff 	mov    -0xdf0(%rbp),%rdx
   113d4:	48 8b 85 f0 f0 ff ff 	mov    -0xf10(%rbp),%rax
   113db:	48 89 10             	mov    %rdx,(%rax)
   113de:	48 8b 85 f0 f0 ff ff 	mov    -0xf10(%rbp),%rax
   113e5:	48 8b 10             	mov    (%rax),%rdx
   113e8:	48 8b 85 f8 f0 ff ff 	mov    -0xf08(%rbp),%rax
   113ef:	48 89 10             	mov    %rdx,(%rax)
   113f2:	8b 85 60 ef ff ff    	mov    -0x10a0(%rbp),%eax
   113f8:	4c 63 e8             	movslq %eax,%r13
   113fb:	44 8b a5 3c ef ff ff 	mov    -0x10c4(%rbp),%r12d
   11402:	be ff 00 00 00       	mov    $0xff,%esi
   11407:	bf ff 00 00 00       	mov    $0xff,%edi
   1140c:	e8 ca 77 ff ff       	callq  8bdb <safe_div_func_uint8_t_u_u>
   11411:	0f b6 c0             	movzbl %al,%eax
   11414:	be ff ff ff ff       	mov    $0xffffffff,%esi
   11419:	89 c7                	mov    %eax,%edi
   1141b:	e8 98 7a ff ff       	callq  8eb8 <safe_add_func_uint32_t_u_u>
   11420:	44 89 e6             	mov    %r12d,%esi
   11423:	89 c7                	mov    %eax,%edi
   11425:	e8 db 71 ff ff       	callq  8605 <safe_sub_func_int32_t_s_s>
   1142a:	48 98                	cltq   
   1142c:	48 ba a4 4b 47 be 05 	movabs $0x83454c05be474ba4,%rdx
   11433:	4c 45 83 
   11436:	48 31 d0             	xor    %rdx,%rax
   11439:	49 39 c5             	cmp    %rax,%r13
   1143c:	0f 96 c0             	setbe  %al
   1143f:	0f b6 d0             	movzbl %al,%edx
   11442:	48 8b 85 48 f0 ff ff 	mov    -0xfb8(%rbp),%rax
   11449:	8b 00                	mov    (%rax),%eax
   1144b:	09 c2                	or     %eax,%edx
   1144d:	48 8b 85 48 f0 ff ff 	mov    -0xfb8(%rbp),%rax
   11454:	89 10                	mov    %edx,(%rax)
   11456:	48 8b 85 48 f0 ff ff 	mov    -0xfb8(%rbp),%rax
   1145d:	8b 00                	mov    (%rax),%eax
   1145f:	89 c0                	mov    %eax,%eax
   11461:	48 39 85 e8 f0 ff ff 	cmp    %rax,-0xf18(%rbp)
   11468:	0f 97 c0             	seta   %al
   1146b:	0f b6 c0             	movzbl %al,%eax
   1146e:	89 c7                	mov    %eax,%edi
   11470:	e8 28 6f ff ff       	callq  839d <safe_unary_minus_func_int16_t_s>
   11475:	66 85 c0             	test   %ax,%ax
   11478:	48 8b 05 a1 9c 00 00 	mov    0x9ca1(%rip),%rax        # 1b120 <g_114>
   1147f:	48 8b 00             	mov    (%rax),%rax
   11482:	48 85 c0             	test   %rax,%rax
   11485:	74 07                	je     1148e <func_89+0x1dda>
   11487:	b8 01 00 00 00       	mov    $0x1,%eax
   1148c:	eb 05                	jmp    11493 <func_89+0x1ddf>
   1148e:	b8 00 00 00 00       	mov    $0x0,%eax
   11493:	48 63 d0             	movslq %eax,%rdx
   11496:	48 8b 05 8b 9c 00 00 	mov    0x9c8b(%rip),%rax        # 1b128 <g_121>
   1149d:	48 8b 00             	mov    (%rax),%rax
   114a0:	48 39 c2             	cmp    %rax,%rdx
   114a3:	0f 95 c0             	setne  %al
   114a6:	0f b6 c0             	movzbl %al,%eax
   114a9:	89 de                	mov    %ebx,%esi
   114ab:	89 c7                	mov    %eax,%edi
   114ad:	e8 aa 78 ff ff       	callq  8d5c <safe_mod_func_uint16_t_u_u>
   114b2:	89 c2                	mov    %eax,%edx
   114b4:	48 8b 85 e0 ef ff ff 	mov    -0x1020(%rbp),%rax
   114bb:	0f b7 d2             	movzwl %dx,%edx
   114be:	89 10                	mov    %edx,(%rax)
   114c0:	0f b7 85 5a ef ff ff 	movzwl -0x10a6(%rbp),%eax
   114c7:	83 c0 01             	add    $0x1,%eax
   114ca:	66 89 85 5a ef ff ff 	mov    %ax,-0x10a6(%rbp)
   114d1:	8b 85 3c ef ff ff    	mov    -0x10c4(%rbp),%eax
   114d7:	89 85 9c f1 ff ff    	mov    %eax,-0xe64(%rbp)
   114dd:	48 8b 85 10 f1 ff ff 	mov    -0xef0(%rbp),%rax
   114e4:	48 8d 95 78 ef ff ff 	lea    -0x1088(%rbp),%rdx
   114eb:	48 89 10             	mov    %rdx,(%rax)
   114ee:	83 ad ac ef ff ff 01 	subl   $0x1,-0x1054(%rbp)
   114f5:	48 8b 85 d8 f0 ff ff 	mov    -0xf28(%rbp),%rax
   114fc:	48 8d 95 60 ef ff ff 	lea    -0x10a0(%rbp),%rdx
   11503:	48 89 10             	mov    %rdx,(%rax)
   11506:	e9 cd 05 00 00       	jmpq   11ad8 <func_89+0x2424>
   1150b:	c7 85 cc ef ff ff e1 	movl   $0xaed423e1,-0x1034(%rbp)
   11512:	23 d4 ae 
   11515:	c7 85 d0 ef ff ff fc 	movl   $0xfffffffc,-0x1030(%rbp)
   1151c:	ff ff ff 
   1151f:	48 8d 85 70 ef ff ff 	lea    -0x1090(%rbp),%rax
   11526:	48 89 85 e0 f0 ff ff 	mov    %rax,-0xf20(%rbp)
   1152d:	48 8d 85 68 ef ff ff 	lea    -0x1098(%rbp),%rax
   11534:	48 89 85 b0 f1 ff ff 	mov    %rax,-0xe50(%rbp)
   1153b:	48 8d 85 5c ef ff ff 	lea    -0x10a4(%rbp),%rax
   11542:	48 89 85 b8 f1 ff ff 	mov    %rax,-0xe48(%rbp)
   11549:	48 8d 85 5c ef ff ff 	lea    -0x10a4(%rbp),%rax
   11550:	48 89 85 c0 f1 ff ff 	mov    %rax,-0xe40(%rbp)
   11557:	48 8d 85 68 ef ff ff 	lea    -0x1098(%rbp),%rax
   1155e:	48 89 85 c8 f1 ff ff 	mov    %rax,-0xe38(%rbp)
   11565:	48 8d 85 5c ef ff ff 	lea    -0x10a4(%rbp),%rax
   1156c:	48 89 85 d0 f1 ff ff 	mov    %rax,-0xe30(%rbp)
   11573:	48 8d 85 5c ef ff ff 	lea    -0x10a4(%rbp),%rax
   1157a:	48 89 85 d8 f1 ff ff 	mov    %rax,-0xe28(%rbp)
   11581:	48 8d 85 68 ef ff ff 	lea    -0x1098(%rbp),%rax
   11588:	48 89 85 e0 f1 ff ff 	mov    %rax,-0xe20(%rbp)
   1158f:	c7 85 8c ef ff ff 00 	movl   $0x0,-0x1074(%rbp)
   11596:	00 00 00 
   11599:	eb 1e                	jmp    115b9 <func_89+0x1f05>
   1159b:	8b 85 8c ef ff ff    	mov    -0x1074(%rbp),%eax
   115a1:	48 98                	cltq   
   115a3:	48 8d 15 d6 7a 00 00 	lea    0x7ad6(%rip),%rdx        # 19080 <g_173>
   115aa:	48 89 94 c5 40 f1 ff 	mov    %rdx,-0xec0(%rbp,%rax,8)
   115b1:	ff 
   115b2:	83 85 8c ef ff ff 01 	addl   $0x1,-0x1074(%rbp)
   115b9:	83 bd 8c ef ff ff 01 	cmpl   $0x1,-0x1074(%rbp)
   115c0:	7e d9                	jle    1159b <func_89+0x1ee7>
   115c2:	48 8b 85 a8 f2 ff ff 	mov    -0xd58(%rbp),%rax
   115c9:	48 85 c0             	test   %rax,%rax
   115cc:	0f 95 c1             	setne  %cl
   115cf:	48 8d 85 00 f0 ff ff 	lea    -0x1000(%rbp),%rax
   115d6:	48 39 85 78 f0 ff ff 	cmp    %rax,-0xf88(%rbp)
   115dd:	75 1d                	jne    115fc <func_89+0x1f48>
   115df:	48 c7 05 96 7a 00 00 	movq   $0x1,0x7a96(%rip)        # 19080 <g_173>
   115e6:	01 00 00 00 
   115ea:	48 8b 15 8f 7a 00 00 	mov    0x7a8f(%rip),%rdx        # 19080 <g_173>
   115f1:	8b 85 3c ef ff ff    	mov    -0x10c4(%rbp),%eax
   115f7:	48 39 c2             	cmp    %rax,%rdx
   115fa:	73 07                	jae    11603 <func_89+0x1f4f>
   115fc:	b8 01 00 00 00       	mov    $0x1,%eax
   11601:	eb 05                	jmp    11608 <func_89+0x1f54>
   11603:	b8 00 00 00 00       	mov    $0x0,%eax
   11608:	83 e0 01             	and    $0x1,%eax
   1160b:	31 c1                	xor    %eax,%ecx
   1160d:	89 ca                	mov    %ecx,%edx
   1160f:	48 8b 85 e0 ef ff ff 	mov    -0x1020(%rbp),%rax
   11616:	0f b6 d2             	movzbl %dl,%edx
   11619:	89 10                	mov    %edx,(%rax)
   1161b:	8b 00                	mov    (%rax),%eax
   1161d:	83 f8 01             	cmp    $0x1,%eax
   11620:	0f 95 c0             	setne  %al
   11623:	0f b6 d0             	movzbl %al,%edx
   11626:	8b 85 3c ef ff ff    	mov    -0x10c4(%rbp),%eax
   1162c:	0f b7 c0             	movzwl %ax,%eax
   1162f:	89 d6                	mov    %edx,%esi
   11631:	89 c7                	mov    %eax,%edi
   11633:	e8 ce 77 ff ff       	callq  8e06 <safe_lshift_func_uint16_t_u_u>
   11638:	0f b7 c0             	movzwl %ax,%eax
   1163b:	39 85 3c ef ff ff    	cmp    %eax,-0x10c4(%rbp)
   11641:	0f 97 c0             	seta   %al
   11644:	0f b6 c0             	movzbl %al,%eax
   11647:	48 8b 15 7a 7a 00 00 	mov    0x7a7a(%rip),%rdx        # 190c8 <g_254>
   1164e:	48 89 c6             	mov    %rax,%rsi
   11651:	48 89 d7             	mov    %rdx,%rdi
   11654:	e8 d5 79 ff ff       	callq  902e <safe_add_func_uint64_t_u_u>
   11659:	8b 85 cc ef ff ff    	mov    -0x1034(%rbp),%eax
   1165f:	21 85 d0 ef ff ff    	and    %eax,-0x1030(%rbp)
   11665:	83 85 9c ef ff ff 01 	addl   $0x1,-0x1064(%rbp)
   1166c:	48 8b 85 80 f0 ff ff 	mov    -0xf80(%rbp),%rax
   11673:	e9 67 04 00 00       	jmpq   11adf <func_89+0x242b>
   11678:	48 8d 85 58 ef ff ff 	lea    -0x10a8(%rbp),%rax
   1167f:	48 89 85 90 f0 ff ff 	mov    %rax,-0xf70(%rbp)
   11686:	48 8d 85 30 f2 ff ff 	lea    -0xdd0(%rbp),%rax
   1168d:	48 83 c0 18          	add    $0x18,%rax
   11691:	48 89 85 98 f0 ff ff 	mov    %rax,-0xf68(%rbp)
   11698:	48 8d 85 6c ef ff ff 	lea    -0x1094(%rbp),%rax
   1169f:	48 89 85 a0 f0 ff ff 	mov    %rax,-0xf60(%rbp)
   116a6:	48 8d 85 64 ef ff ff 	lea    -0x109c(%rbp),%rax
   116ad:	48 89 85 a8 f0 ff ff 	mov    %rax,-0xf58(%rbp)
   116b4:	48 8d 85 40 f4 ff ff 	lea    -0xbc0(%rbp),%rax
   116bb:	48 05 fc 00 00 00    	add    $0xfc,%rax
   116c1:	48 89 85 60 f5 ff ff 	mov    %rax,-0xaa0(%rbp)
   116c8:	48 8d 85 64 ef ff ff 	lea    -0x109c(%rbp),%rax
   116cf:	48 89 85 68 f5 ff ff 	mov    %rax,-0xa98(%rbp)
   116d6:	48 8d 85 40 f4 ff ff 	lea    -0xbc0(%rbp),%rax
   116dd:	48 05 fc 00 00 00    	add    $0xfc,%rax
   116e3:	48 89 85 70 f5 ff ff 	mov    %rax,-0xa90(%rbp)
   116ea:	48 8d 85 90 f1 ff ff 	lea    -0xe70(%rbp),%rax
   116f1:	48 83 c0 0c          	add    $0xc,%rax
   116f5:	48 89 85 78 f5 ff ff 	mov    %rax,-0xa88(%rbp)
   116fc:	48 8d 85 30 f2 ff ff 	lea    -0xdd0(%rbp),%rax
   11703:	48 83 c0 14          	add    $0x14,%rax
   11707:	48 89 85 80 f5 ff ff 	mov    %rax,-0xa80(%rbp)
   1170e:	48 8d 85 90 f1 ff ff 	lea    -0xe70(%rbp),%rax
   11715:	48 83 c0 0c          	add    $0xc,%rax
   11719:	48 89 85 88 f5 ff ff 	mov    %rax,-0xa78(%rbp)
   11720:	48 8d 85 40 f4 ff ff 	lea    -0xbc0(%rbp),%rax
   11727:	48 05 fc 00 00 00    	add    $0xfc,%rax
   1172d:	48 89 85 90 f5 ff ff 	mov    %rax,-0xa70(%rbp)
   11734:	48 8d 85 64 ef ff ff 	lea    -0x109c(%rbp),%rax
   1173b:	48 89 85 98 f5 ff ff 	mov    %rax,-0xa68(%rbp)
   11742:	48 8d 85 40 f4 ff ff 	lea    -0xbc0(%rbp),%rax
   11749:	48 05 fc 00 00 00    	add    $0xfc,%rax
   1174f:	48 89 85 a0 f5 ff ff 	mov    %rax,-0xa60(%rbp)
   11756:	48 8d 85 90 f1 ff ff 	lea    -0xe70(%rbp),%rax
   1175d:	48 83 c0 0c          	add    $0xc,%rax
   11761:	48 89 85 a8 f5 ff ff 	mov    %rax,-0xa58(%rbp)
   11768:	48 8d 85 30 f2 ff ff 	lea    -0xdd0(%rbp),%rax
   1176f:	48 83 c0 14          	add    $0x14,%rax
   11773:	48 89 85 b0 f5 ff ff 	mov    %rax,-0xa50(%rbp)
   1177a:	48 8d 85 90 f1 ff ff 	lea    -0xe70(%rbp),%rax
   11781:	48 83 c0 0c          	add    $0xc,%rax
   11785:	48 89 85 b8 f5 ff ff 	mov    %rax,-0xa48(%rbp)
   1178c:	c6 85 57 ef ff ff 6a 	movb   $0x6a,-0x10a9(%rbp)
   11793:	48 8d 85 18 f0 ff ff 	lea    -0xfe8(%rbp),%rax
   1179a:	48 89 85 00 f3 ff ff 	mov    %rax,-0xd00(%rbp)
   117a1:	48 8d 85 18 f0 ff ff 	lea    -0xfe8(%rbp),%rax
   117a8:	48 89 85 08 f3 ff ff 	mov    %rax,-0xcf8(%rbp)
   117af:	48 8d 85 18 f0 ff ff 	lea    -0xfe8(%rbp),%rax
   117b6:	48 89 85 10 f3 ff ff 	mov    %rax,-0xcf0(%rbp)
   117bd:	48 8d 85 18 f0 ff ff 	lea    -0xfe8(%rbp),%rax
   117c4:	48 89 85 18 f3 ff ff 	mov    %rax,-0xce8(%rbp)
   117cb:	48 8d 85 18 f0 ff ff 	lea    -0xfe8(%rbp),%rax
   117d2:	48 89 85 20 f3 ff ff 	mov    %rax,-0xce0(%rbp)
   117d9:	48 8d 85 18 f0 ff ff 	lea    -0xfe8(%rbp),%rax
   117e0:	48 89 85 28 f3 ff ff 	mov    %rax,-0xcd8(%rbp)
   117e7:	48 8d 85 18 f0 ff ff 	lea    -0xfe8(%rbp),%rax
   117ee:	48 89 85 30 f3 ff ff 	mov    %rax,-0xcd0(%rbp)
   117f5:	48 8d 85 18 f0 ff ff 	lea    -0xfe8(%rbp),%rax
   117fc:	48 89 85 38 f3 ff ff 	mov    %rax,-0xcc8(%rbp)
   11803:	48 8d 85 18 f0 ff ff 	lea    -0xfe8(%rbp),%rax
   1180a:	48 89 85 40 f3 ff ff 	mov    %rax,-0xcc0(%rbp)
   11811:	48 8d 85 18 f0 ff ff 	lea    -0xfe8(%rbp),%rax
   11818:	48 89 85 48 f3 ff ff 	mov    %rax,-0xcb8(%rbp)
   1181f:	48 b8 52 da ee 58 94 	movabs $0xf7860a9458eeda52,%rax
   11826:	0a 86 f7 
   11829:	48 89 85 b0 f0 ff ff 	mov    %rax,-0xf50(%rbp)
   11830:	48 8d 05 69 78 00 00 	lea    0x7869(%rip),%rax        # 190a0 <g_173+0x20>
   11837:	48 89 85 b8 f0 ff ff 	mov    %rax,-0xf48(%rbp)
   1183e:	83 bd bc ef ff ff ff 	cmpl   $0xffffffff,-0x1044(%rbp)
   11845:	0f 8d ab 00 00 00    	jge    118f6 <func_89+0x2242>
   1184b:	8b 05 6f 78 00 00    	mov    0x786f(%rip),%eax        # 190c0 <g_197>
   11851:	0f b7 d8             	movzwl %ax,%ebx
   11854:	48 8b 05 cd 99 00 00 	mov    0x99cd(%rip),%rax        # 1b228 <g_371+0xa8>
   1185b:	48 85 c0             	test   %rax,%rax
   1185e:	0f 95 c0             	setne  %al
   11861:	0f b6 c0             	movzbl %al,%eax
   11864:	be 02 00 00 00       	mov    $0x2,%esi
   11869:	89 c7                	mov    %eax,%edi
   1186b:	e8 71 6c ff ff       	callq  84e1 <safe_lshift_func_int16_t_s_u>
   11870:	0f b6 05 f2 b3 00 00 	movzbl 0xb3f2(%rip),%eax        # 1cc69 <g_13+0x1>
   11877:	66 98                	cbtw   
   11879:	0f b7 c0             	movzwl %ax,%eax
   1187c:	be 01 00 00 00       	mov    $0x1,%esi
   11881:	89 c7                	mov    %eax,%edi
   11883:	e8 b5 74 ff ff       	callq  8d3d <safe_mul_func_uint16_t_u_u>
   11888:	0f b6 c0             	movzbl %al,%eax
   1188b:	be 00 00 00 00       	mov    $0x0,%esi
   11890:	89 c7                	mov    %eax,%edi
   11892:	e8 e1 72 ff ff       	callq  8b78 <safe_sub_func_uint8_t_u_u>
   11897:	0f b6 c0             	movzbl %al,%eax
   1189a:	89 de                	mov    %ebx,%esi
   1189c:	89 c7                	mov    %eax,%edi
   1189e:	e8 eb 74 ff ff       	callq  8d8e <safe_div_func_uint16_t_u_u>
   118a3:	0f b6 d8             	movzbl %al,%ebx
   118a6:	0f b6 05 be b3 00 00 	movzbl 0xb3be(%rip),%eax        # 1cc6b <g_13+0x3>
   118ad:	0f be c0             	movsbl %al,%eax
   118b0:	89 85 b0 ef ff ff    	mov    %eax,-0x1050(%rbp)
   118b6:	8b 85 b0 ef ff ff    	mov    -0x1050(%rbp),%eax
   118bc:	89 c2                	mov    %eax,%edx
   118be:	48 8b 85 90 f0 ff ff 	mov    -0xf70(%rbp),%rax
   118c5:	66 89 10             	mov    %dx,(%rax)
   118c8:	48 8b 85 90 f0 ff ff 	mov    -0xf70(%rbp),%rax
   118cf:	0f b7 00             	movzwl (%rax),%eax
   118d2:	98                   	cwtl   
   118d3:	be 06 00 00 00       	mov    $0x6,%esi
   118d8:	89 c7                	mov    %eax,%edi
   118da:	e8 02 6c ff ff       	callq  84e1 <safe_lshift_func_int16_t_s_u>
   118df:	0f b6 c0             	movzbl %al,%eax
   118e2:	89 de                	mov    %ebx,%esi
   118e4:	89 c7                	mov    %eax,%edi
   118e6:	e8 8d 72 ff ff       	callq  8b78 <safe_sub_func_uint8_t_u_u>
   118eb:	84 c0                	test   %al,%al
   118ed:	74 07                	je     118f6 <func_89+0x2242>
   118ef:	b8 01 00 00 00       	mov    $0x1,%eax
   118f4:	eb 05                	jmp    118fb <func_89+0x2247>
   118f6:	b8 00 00 00 00       	mov    $0x0,%eax
   118fb:	0f be c0             	movsbl %al,%eax
   118fe:	be 04 00 00 00       	mov    $0x4,%esi
   11903:	89 c7                	mov    %eax,%edi
   11905:	e8 e4 69 ff ff       	callq  82ee <safe_lshift_func_int8_t_s_u>
   1190a:	0f b6 05 99 b3 00 00 	movzbl 0xb399(%rip),%eax        # 1ccaa <g_138>
   11911:	0f be c0             	movsbl %al,%eax
   11914:	89 85 a8 f1 ff ff    	mov    %eax,-0xe58(%rbp)
   1191a:	8b 85 a8 f1 ff ff    	mov    -0xe58(%rbp),%eax
   11920:	85 c0                	test   %eax,%eax
   11922:	0f 84 ac 00 00 00    	je     119d4 <func_89+0x2320>
   11928:	48 8b 05 b9 9f 00 00 	mov    0x9fb9(%rip),%rax        # 1b8e8 <g_379>
   1192f:	48 8b 95 58 f0 ff ff 	mov    -0xfa8(%rbp),%rdx
   11936:	48 89 10             	mov    %rdx,(%rax)
   11939:	48 8b 85 e0 ef ff ff 	mov    -0x1020(%rbp),%rax
   11940:	8b 10                	mov    (%rax),%edx
   11942:	48 8b 85 e0 ef ff ff 	mov    -0x1020(%rbp),%rax
   11949:	81 f2 f3 b1 da 20    	xor    $0x20dab1f3,%edx
   1194f:	89 10                	mov    %edx,(%rax)
   11951:	0f b6 85 57 ef ff ff 	movzbl -0x10a9(%rbp),%eax
   11958:	83 c0 01             	add    $0x1,%eax
   1195b:	88 85 57 ef ff ff    	mov    %al,-0x10a9(%rbp)
   11961:	48 8b 85 e0 ef ff ff 	mov    -0x1020(%rbp),%rax
   11968:	48 8b 95 68 f0 ff ff 	mov    -0xf98(%rbp),%rdx
   1196f:	89 10                	mov    %edx,(%rax)
   11971:	48 8b 85 18 f0 ff ff 	mov    -0xfe8(%rbp),%rax
   11978:	48 89 85 88 f0 ff ff 	mov    %rax,-0xf78(%rbp)
   1197f:	48 83 bd 88 f0 ff ff 	cmpq   $0x0,-0xf78(%rbp)
   11986:	00 
   11987:	0f 95 c2             	setne  %dl
   1198a:	48 8b 85 f0 ef ff ff 	mov    -0x1010(%rbp),%rax
   11991:	88 10                	mov    %dl,(%rax)
   11993:	0f b6 05 42 77 00 00 	movzbl 0x7742(%rip),%eax        # 190dc <g_411>
   1199a:	0f b6 d8             	movzbl %al,%ebx
   1199d:	8b 85 60 ef ff ff    	mov    -0x10a0(%rbp),%eax
   119a3:	0f b6 d0             	movzbl %al,%edx
   119a6:	81 bd 3c ef ff ff c7 	cmpl   $0xc7,-0x10c4(%rbp)
   119ad:	00 00 00 
   119b0:	0f 96 c0             	setbe  %al
   119b3:	0f b6 c8             	movzbl %al,%ecx
   119b6:	0f b7 85 5a ef ff ff 	movzwl -0x10a6(%rbp),%eax
   119bd:	39 c1                	cmp    %eax,%ecx
   119bf:	0f 9f c0             	setg   %al
   119c2:	0f b6 c0             	movzbl %al,%eax
   119c5:	89 d6                	mov    %edx,%esi
   119c7:	89 c7                	mov    %eax,%edi
   119c9:	e8 aa 71 ff ff       	callq  8b78 <safe_sub_func_uint8_t_u_u>
   119ce:	84 c0                	test   %al,%al
   119d0:	75 1b                	jne    119ed <func_89+0x2339>
   119d2:	eb 0c                	jmp    119e0 <func_89+0x232c>
   119d4:	48 8d 05 85 76 00 00 	lea    0x7685(%rip),%rax        # 19060 <g_66>
   119db:	e9 ff 00 00 00       	jmpq   11adf <func_89+0x242b>
   119e0:	48 b8 0a 35 8f 4d 9c 	movabs $0x97f7bc9c4d8f350a,%rax
   119e7:	bc f7 97 
   119ea:	48 85 c0             	test   %rax,%rax
   119ed:	8b 85 5c f2 ff ff    	mov    -0xda4(%rbp),%eax
   119f3:	0f b7 c0             	movzwl %ax,%eax
   119f6:	be 01 00 00 00       	mov    $0x1,%esi
   119fb:	89 c7                	mov    %eax,%edi
   119fd:	e8 04 74 ff ff       	callq  8e06 <safe_lshift_func_uint16_t_u_u>
   11a02:	0f b6 c0             	movzbl %al,%eax
   11a05:	be 00 00 00 00       	mov    $0x0,%esi
   11a0a:	89 c7                	mov    %eax,%edi
   11a0c:	e8 3b 72 ff ff       	callq  8c4c <safe_lshift_func_uint8_t_u_u>
   11a11:	0f b6 c0             	movzbl %al,%eax
   11a14:	be 08 00 00 00       	mov    $0x8,%esi
   11a19:	89 c7                	mov    %eax,%edi
   11a1b:	e8 0a 6b ff ff       	callq  852a <safe_rshift_func_int16_t_s_s>
   11a20:	66 85 c0             	test   %ax,%ax
   11a23:	74 11                	je     11a36 <func_89+0x2382>
   11a25:	48 83 bd b0 f0 ff ff 	cmpq   $0x0,-0xf50(%rbp)
   11a2c:	00 
   11a2d:	74 07                	je     11a36 <func_89+0x2382>
   11a2f:	b8 01 00 00 00       	mov    $0x1,%eax
   11a34:	eb 05                	jmp    11a3b <func_89+0x2387>
   11a36:	b8 00 00 00 00       	mov    $0x0,%eax
   11a3b:	0f be c0             	movsbl %al,%eax
   11a3e:	89 de                	mov    %ebx,%esi
   11a40:	89 c7                	mov    %eax,%edi
   11a42:	e8 5a 68 ff ff       	callq  82a1 <safe_lshift_func_int8_t_s_s>
   11a47:	8b 9d 6c ef ff ff    	mov    -0x1094(%rbp),%ebx
   11a4d:	be 0c 00 00 00       	mov    $0xc,%esi
   11a52:	bf 00 00 00 00       	mov    $0x0,%edi
   11a57:	e8 85 6a ff ff       	callq  84e1 <safe_lshift_func_int16_t_s_u>
   11a5c:	0f bf d0             	movswl %ax,%edx
   11a5f:	48 8b 85 e0 ef ff ff 	mov    -0x1020(%rbp),%rax
   11a66:	8b 00                	mov    (%rax),%eax
   11a68:	48 63 c8             	movslq %eax,%rcx
   11a6b:	48 8b 85 b8 f0 ff ff 	mov    -0xf48(%rbp),%rax
   11a72:	48 8b 30             	mov    (%rax),%rsi
   11a75:	48 63 c3             	movslq %ebx,%rax
   11a78:	48 21 c6             	and    %rax,%rsi
   11a7b:	48 8b 85 b8 f0 ff ff 	mov    -0xf48(%rbp),%rax
   11a82:	48 89 30             	mov    %rsi,(%rax)
   11a85:	48 8b 85 b8 f0 ff ff 	mov    -0xf48(%rbp),%rax
   11a8c:	48 8b 00             	mov    (%rax),%rax
   11a8f:	48 39 c1             	cmp    %rax,%rcx
   11a92:	0f 93 c0             	setae  %al
   11a95:	0f b6 c0             	movzbl %al,%eax
   11a98:	21 d0                	and    %edx,%eax
   11a9a:	83 f8 01             	cmp    $0x1,%eax
   11a9d:	0f 95 c0             	setne  %al
   11aa0:	0f b6 d0             	movzbl %al,%edx
   11aa3:	48 8b 85 a8 f0 ff ff 	mov    -0xf58(%rbp),%rax
   11aaa:	89 10                	mov    %edx,(%rax)
   11aac:	eb 2a                	jmp    11ad8 <func_89+0x2424>
   11aae:	48 8d 85 30 f2 ff ff 	lea    -0xdd0(%rbp),%rax
   11ab5:	48 83 c0 2c          	add    $0x2c,%rax
   11ab9:	48 89 85 e0 ef ff ff 	mov    %rax,-0x1020(%rbp)
   11ac0:	48 8b 85 e0 ef ff ff 	mov    -0x1020(%rbp),%rax
   11ac7:	c7 00 71 0e 62 e3    	movl   $0xe3620e71,(%rax)
   11acd:	eb 09                	jmp    11ad8 <func_89+0x2424>
   11acf:	48 8b 85 e0 ef ff ff 	mov    -0x1020(%rbp),%rax
   11ad6:	eb 07                	jmp    11adf <func_89+0x242b>
   11ad8:	48 8d 05 81 75 00 00 	lea    0x7581(%rip),%rax        # 19060 <g_66>
   11adf:	48 8b 5d c8          	mov    -0x38(%rbp),%rbx
   11ae3:	64 48 33 1c 25 28 00 	xor    %fs:0x28,%rbx
   11aea:	00 00 
   11aec:	74 05                	je     11af3 <func_89+0x243f>
   11aee:	e8 7d 65 ff ff       	callq  8070 <__stack_chk_fail@plt>
   11af3:	48 81 c4 a8 10 00 00 	add    $0x10a8,%rsp
   11afa:	5b                   	pop    %rbx
   11afb:	41 5c                	pop    %r12
   11afd:	41 5d                	pop    %r13
   11aff:	41 5e                	pop    %r14
   11b01:	41 5f                	pop    %r15
   11b03:	5d                   	pop    %rbp
   11b04:	c3                   	retq   

0000000000011b05 <main>:
   11b05:	f3 0f 1e fa          	endbr64 
   11b09:	55                   	push   %rbp
   11b0a:	48 89 e5             	mov    %rsp,%rbp
   11b0d:	48 83 ec 20          	sub    $0x20,%rsp
   11b11:	89 7d ec             	mov    %edi,-0x14(%rbp)
   11b14:	48 89 75 e0          	mov    %rsi,-0x20(%rbp)
   11b18:	c7 45 fc 00 00 00 00 	movl   $0x0,-0x4(%rbp)
   11b1f:	83 7d ec 02          	cmpl   $0x2,-0x14(%rbp)
   11b23:	74 25                	je     11b4a <main+0x45>
   11b25:	48 8b 45 e0          	mov    -0x20(%rbp),%rax
   11b29:	48 83 c0 08          	add    $0x8,%rax
   11b2d:	48 8b 00             	mov    (%rax),%rax
   11b30:	48 8d 35 a9 3b 00 00 	lea    0x3ba9(%rip),%rsi        # 156e0 <g_1477+0xf58>
   11b37:	48 89 c7             	mov    %rax,%rdi
   11b3a:	e8 51 65 ff ff       	callq  8090 <strcmp@plt>
   11b3f:	85 c0                	test   %eax,%eax
   11b41:	74 07                	je     11b4a <main+0x45>
   11b43:	c7 45 fc 01 00 00 00 	movl   $0x1,-0x4(%rbp)
   11b4a:	e8 3a 66 ff ff       	callq  8189 <platform_main_begin>
   11b4f:	e8 44 7a ff ff       	callq  9598 <crc32_gentab>
   11b54:	e8 5c 7c ff ff       	callq  97b5 <func_1>
   11b59:	8b 05 c5 74 00 00    	mov    0x74c5(%rip),%eax        # 19024 <g_2>
   11b5f:	48 98                	cltq   
   11b61:	8b 55 fc             	mov    -0x4(%rbp),%edx
   11b64:	48 8d 35 77 3b 00 00 	lea    0x3b77(%rip),%rsi        # 156e2 <g_1477+0xf5a>
   11b6b:	48 89 c7             	mov    %rax,%rdi
   11b6e:	e8 80 7b ff ff       	callq  96f3 <transparent_crc>
   11b73:	8b 05 af 74 00 00    	mov    0x74af(%rip),%eax        # 19028 <g_6>
   11b79:	48 98                	cltq   
   11b7b:	8b 55 fc             	mov    -0x4(%rbp),%edx
   11b7e:	48 8d 35 61 3b 00 00 	lea    0x3b61(%rip),%rsi        # 156e6 <g_1477+0xf5e>
   11b85:	48 89 c7             	mov    %rax,%rdi
   11b88:	e8 66 7b ff ff       	callq  96f3 <transparent_crc>
   11b8d:	c7 45 f0 00 00 00 00 	movl   $0x0,-0x10(%rbp)
   11b94:	eb 46                	jmp    11bdc <main+0xd7>
   11b96:	8b 45 f0             	mov    -0x10(%rbp),%eax
   11b99:	48 98                	cltq   
   11b9b:	48 8d 15 c6 b0 00 00 	lea    0xb0c6(%rip),%rdx        # 1cc68 <g_13>
   11ba2:	0f b6 04 10          	movzbl (%rax,%rdx,1),%eax
   11ba6:	48 0f be c0          	movsbq %al,%rax
   11baa:	8b 55 fc             	mov    -0x4(%rbp),%edx
   11bad:	48 8d 35 36 3b 00 00 	lea    0x3b36(%rip),%rsi        # 156ea <g_1477+0xf62>
   11bb4:	48 89 c7             	mov    %rax,%rdi
   11bb7:	e8 37 7b ff ff       	callq  96f3 <transparent_crc>
   11bbc:	83 7d fc 00          	cmpl   $0x0,-0x4(%rbp)
   11bc0:	74 16                	je     11bd8 <main+0xd3>
   11bc2:	8b 45 f0             	mov    -0x10(%rbp),%eax
   11bc5:	89 c6                	mov    %eax,%esi
   11bc7:	48 8d 3d 24 3b 00 00 	lea    0x3b24(%rip),%rdi        # 156f2 <g_1477+0xf6a>
   11bce:	b8 00 00 00 00       	mov    $0x0,%eax
   11bd3:	e8 a8 64 ff ff       	callq  8080 <printf@plt>
   11bd8:	83 45 f0 01          	addl   $0x1,-0x10(%rbp)
   11bdc:	83 7d f0 05          	cmpl   $0x5,-0x10(%rbp)
   11be0:	7e b4                	jle    11b96 <main+0x91>
   11be2:	c7 45 f0 00 00 00 00 	movl   $0x0,-0x10(%rbp)
   11be9:	eb 4b                	jmp    11c36 <main+0x131>
   11beb:	8b 45 f0             	mov    -0x10(%rbp),%eax
   11bee:	48 98                	cltq   
   11bf0:	48 8d 14 85 00 00 00 	lea    0x0(,%rax,4),%rdx
   11bf7:	00 
   11bf8:	48 8d 05 41 74 00 00 	lea    0x7441(%rip),%rax        # 19040 <g_42>
   11bff:	8b 04 02             	mov    (%rdx,%rax,1),%eax
   11c02:	48 98                	cltq   
   11c04:	8b 55 fc             	mov    -0x4(%rbp),%edx
   11c07:	48 8d 35 f2 3a 00 00 	lea    0x3af2(%rip),%rsi        # 15700 <g_1477+0xf78>
   11c0e:	48 89 c7             	mov    %rax,%rdi
   11c11:	e8 dd 7a ff ff       	callq  96f3 <transparent_crc>
   11c16:	83 7d fc 00          	cmpl   $0x0,-0x4(%rbp)
   11c1a:	74 16                	je     11c32 <main+0x12d>
   11c1c:	8b 45 f0             	mov    -0x10(%rbp),%eax
   11c1f:	89 c6                	mov    %eax,%esi
   11c21:	48 8d 3d ca 3a 00 00 	lea    0x3aca(%rip),%rdi        # 156f2 <g_1477+0xf6a>
   11c28:	b8 00 00 00 00       	mov    $0x0,%eax
   11c2d:	e8 4e 64 ff ff       	callq  8080 <printf@plt>
   11c32:	83 45 f0 01          	addl   $0x1,-0x10(%rbp)
   11c36:	83 7d f0 07          	cmpl   $0x7,-0x10(%rbp)
   11c3a:	7e af                	jle    11beb <main+0xe6>
   11c3c:	8b 05 1e 74 00 00    	mov    0x741e(%rip),%eax        # 19060 <g_66>
   11c42:	89 c1                	mov    %eax,%ecx
   11c44:	8b 45 fc             	mov    -0x4(%rbp),%eax
   11c47:	89 c2                	mov    %eax,%edx
   11c49:	48 8d 35 b8 3a 00 00 	lea    0x3ab8(%rip),%rsi        # 15708 <g_1477+0xf80>
   11c50:	48 89 cf             	mov    %rcx,%rdi
   11c53:	e8 9b 7a ff ff       	callq  96f3 <transparent_crc>
   11c58:	8b 05 06 74 00 00    	mov    0x7406(%rip),%eax        # 19064 <g_100>
   11c5e:	89 c1                	mov    %eax,%ecx
   11c60:	8b 45 fc             	mov    -0x4(%rbp),%eax
   11c63:	89 c2                	mov    %eax,%edx
   11c65:	48 8d 35 a1 3a 00 00 	lea    0x3aa1(%rip),%rsi        # 1570d <g_1477+0xf85>
   11c6c:	48 89 cf             	mov    %rcx,%rdi
   11c6f:	e8 7f 7a ff ff       	callq  96f3 <transparent_crc>
   11c74:	0f b7 05 2d b0 00 00 	movzwl 0xb02d(%rip),%eax        # 1cca8 <g_105>
   11c7b:	0f b7 c0             	movzwl %ax,%eax
   11c7e:	8b 55 fc             	mov    -0x4(%rbp),%edx
   11c81:	48 8d 35 8b 3a 00 00 	lea    0x3a8b(%rip),%rsi        # 15713 <g_1477+0xf8b>
   11c88:	48 89 c7             	mov    %rax,%rdi
   11c8b:	e8 63 7a ff ff       	callq  96f3 <transparent_crc>
   11c90:	48 8b 05 d1 73 00 00 	mov    0x73d1(%rip),%rax        # 19068 <g_109>
   11c97:	48 89 c1             	mov    %rax,%rcx
   11c9a:	8b 45 fc             	mov    -0x4(%rbp),%eax
   11c9d:	89 c2                	mov    %eax,%edx
   11c9f:	48 8d 35 73 3a 00 00 	lea    0x3a73(%rip),%rsi        # 15719 <g_1477+0xf91>
   11ca6:	48 89 cf             	mov    %rcx,%rdi
   11ca9:	e8 45 7a ff ff       	callq  96f3 <transparent_crc>
   11cae:	48 8b 05 bb 73 00 00 	mov    0x73bb(%rip),%rax        # 19070 <g_115>
   11cb5:	48 89 c1             	mov    %rax,%rcx
   11cb8:	8b 45 fc             	mov    -0x4(%rbp),%eax
   11cbb:	89 c2                	mov    %eax,%edx
   11cbd:	48 8d 35 5b 3a 00 00 	lea    0x3a5b(%rip),%rsi        # 1571f <g_1477+0xf97>
   11cc4:	48 89 cf             	mov    %rcx,%rdi
   11cc7:	e8 27 7a ff ff       	callq  96f3 <transparent_crc>
   11ccc:	48 b8 f9 eb e8 ad 6b 	movabs $0x6f3b0a6bade8ebf9,%rax
   11cd3:	0a 3b 6f 
   11cd6:	48 89 c1             	mov    %rax,%rcx
   11cd9:	8b 45 fc             	mov    -0x4(%rbp),%eax
   11cdc:	89 c2                	mov    %eax,%edx
   11cde:	48 8d 35 40 3a 00 00 	lea    0x3a40(%rip),%rsi        # 15725 <g_1477+0xf9d>
   11ce5:	48 89 cf             	mov    %rcx,%rdi
   11ce8:	e8 06 7a ff ff       	callq  96f3 <transparent_crc>
   11ced:	48 b8 0a 35 8f 4d 9c 	movabs $0x97f7bc9c4d8f350a,%rax
   11cf4:	bc f7 97 
   11cf7:	48 89 c1             	mov    %rax,%rcx
   11cfa:	8b 45 fc             	mov    -0x4(%rbp),%eax
   11cfd:	89 c2                	mov    %eax,%edx
   11cff:	48 8d 35 25 3a 00 00 	lea    0x3a25(%rip),%rsi        # 1572b <g_1477+0xfa3>
   11d06:	48 89 cf             	mov    %rcx,%rdi
   11d09:	e8 e5 79 ff ff       	callq  96f3 <transparent_crc>
   11d0e:	0f b7 05 63 73 00 00 	movzwl 0x7363(%rip),%eax        # 19078 <g_134>
   11d15:	0f b7 c0             	movzwl %ax,%eax
   11d18:	8b 55 fc             	mov    -0x4(%rbp),%edx
   11d1b:	48 8d 35 0f 3a 00 00 	lea    0x3a0f(%rip),%rsi        # 15731 <g_1477+0xfa9>
   11d22:	48 89 c7             	mov    %rax,%rdi
   11d25:	e8 c9 79 ff ff       	callq  96f3 <transparent_crc>
   11d2a:	0f b6 05 47 73 00 00 	movzbl 0x7347(%rip),%eax        # 19078 <g_134>
   11d31:	0f b6 c0             	movzbl %al,%eax
   11d34:	8b 55 fc             	mov    -0x4(%rbp),%edx
   11d37:	48 8d 35 fc 39 00 00 	lea    0x39fc(%rip),%rsi        # 1573a <g_1477+0xfb2>
   11d3e:	48 89 c7             	mov    %rax,%rdi
   11d41:	e8 ad 79 ff ff       	callq  96f3 <transparent_crc>
   11d46:	0f b6 05 2b 73 00 00 	movzbl 0x732b(%rip),%eax        # 19078 <g_134>
   11d4d:	48 0f be c0          	movsbq %al,%rax
   11d51:	8b 55 fc             	mov    -0x4(%rbp),%edx
   11d54:	48 8d 35 e8 39 00 00 	lea    0x39e8(%rip),%rsi        # 15743 <g_1477+0xfbb>
   11d5b:	48 89 c7             	mov    %rax,%rdi
   11d5e:	e8 90 79 ff ff       	callq  96f3 <transparent_crc>
   11d63:	0f b6 05 40 af 00 00 	movzbl 0xaf40(%rip),%eax        # 1ccaa <g_138>
   11d6a:	48 0f be c0          	movsbq %al,%rax
   11d6e:	8b 55 fc             	mov    -0x4(%rbp),%edx
   11d71:	48 8d 35 d4 39 00 00 	lea    0x39d4(%rip),%rsi        # 1574c <g_1477+0xfc4>
   11d78:	48 89 c7             	mov    %rax,%rdi
   11d7b:	e8 73 79 ff ff       	callq  96f3 <transparent_crc>
   11d80:	c7 45 f0 00 00 00 00 	movl   $0x0,-0x10(%rbp)
   11d87:	eb 4a                	jmp    11dd3 <main+0x2ce>
   11d89:	8b 45 f0             	mov    -0x10(%rbp),%eax
   11d8c:	48 98                	cltq   
   11d8e:	48 8d 14 c5 00 00 00 	lea    0x0(,%rax,8),%rdx
   11d95:	00 
   11d96:	48 8d 05 e3 72 00 00 	lea    0x72e3(%rip),%rax        # 19080 <g_173>
   11d9d:	48 8b 04 02          	mov    (%rdx,%rax,1),%rax
   11da1:	8b 55 fc             	mov    -0x4(%rbp),%edx
   11da4:	48 8d 35 a7 39 00 00 	lea    0x39a7(%rip),%rsi        # 15752 <g_1477+0xfca>
   11dab:	48 89 c7             	mov    %rax,%rdi
   11dae:	e8 40 79 ff ff       	callq  96f3 <transparent_crc>
   11db3:	83 7d fc 00          	cmpl   $0x0,-0x4(%rbp)
   11db7:	74 16                	je     11dcf <main+0x2ca>
   11db9:	8b 45 f0             	mov    -0x10(%rbp),%eax
   11dbc:	89 c6                	mov    %eax,%esi
   11dbe:	48 8d 3d 2d 39 00 00 	lea    0x392d(%rip),%rdi        # 156f2 <g_1477+0xf6a>
   11dc5:	b8 00 00 00 00       	mov    $0x0,%eax
   11dca:	e8 b1 62 ff ff       	callq  8080 <printf@plt>
   11dcf:	83 45 f0 01          	addl   $0x1,-0x10(%rbp)
   11dd3:	83 7d f0 05          	cmpl   $0x5,-0x10(%rbp)
   11dd7:	7e b0                	jle    11d89 <main+0x284>
   11dd9:	0f b7 05 d0 72 00 00 	movzwl 0x72d0(%rip),%eax        # 190b0 <g_182>
   11de0:	0f b7 c0             	movzwl %ax,%eax
   11de3:	8b 55 fc             	mov    -0x4(%rbp),%edx
   11de6:	48 8d 35 6e 39 00 00 	lea    0x396e(%rip),%rsi        # 1575b <g_1477+0xfd3>
   11ded:	48 89 c7             	mov    %rax,%rdi
   11df0:	e8 fe 78 ff ff       	callq  96f3 <transparent_crc>
   11df5:	0f b6 05 b4 72 00 00 	movzbl 0x72b4(%rip),%eax        # 190b0 <g_182>
   11dfc:	0f b6 c0             	movzbl %al,%eax
   11dff:	8b 55 fc             	mov    -0x4(%rbp),%edx
   11e02:	48 8d 35 5b 39 00 00 	lea    0x395b(%rip),%rsi        # 15764 <g_1477+0xfdc>
   11e09:	48 89 c7             	mov    %rax,%rdi
   11e0c:	e8 e2 78 ff ff       	callq  96f3 <transparent_crc>
   11e11:	0f b6 05 98 72 00 00 	movzbl 0x7298(%rip),%eax        # 190b0 <g_182>
   11e18:	48 0f be c0          	movsbq %al,%rax
   11e1c:	8b 55 fc             	mov    -0x4(%rbp),%edx
   11e1f:	48 8d 35 47 39 00 00 	lea    0x3947(%rip),%rsi        # 1576d <g_1477+0xfe5>
   11e26:	48 89 c7             	mov    %rax,%rdi
   11e29:	e8 c5 78 ff ff       	callq  96f3 <transparent_crc>
   11e2e:	0f b7 05 83 72 00 00 	movzwl 0x7283(%rip),%eax        # 190b8 <g_187>
   11e35:	48 0f bf c0          	movswq %ax,%rax
   11e39:	8b 55 fc             	mov    -0x4(%rbp),%edx
   11e3c:	48 8d 35 33 39 00 00 	lea    0x3933(%rip),%rsi        # 15776 <g_1477+0xfee>
   11e43:	48 89 c7             	mov    %rax,%rdi
   11e46:	e8 a8 78 ff ff       	callq  96f3 <transparent_crc>
   11e4b:	8b 05 6f 72 00 00    	mov    0x726f(%rip),%eax        # 190c0 <g_197>
   11e51:	89 c1                	mov    %eax,%ecx
   11e53:	8b 45 fc             	mov    -0x4(%rbp),%eax
   11e56:	89 c2                	mov    %eax,%edx
   11e58:	48 8d 35 20 39 00 00 	lea    0x3920(%rip),%rsi        # 1577f <g_1477+0xff7>
   11e5f:	48 89 cf             	mov    %rcx,%rdi
   11e62:	e8 8c 78 ff ff       	callq  96f3 <transparent_crc>
   11e67:	8b 05 57 72 00 00    	mov    0x7257(%rip),%eax        # 190c4 <g_211>
   11e6d:	48 98                	cltq   
   11e6f:	8b 55 fc             	mov    -0x4(%rbp),%edx
   11e72:	48 8d 35 0c 39 00 00 	lea    0x390c(%rip),%rsi        # 15785 <g_1477+0xffd>
   11e79:	48 89 c7             	mov    %rax,%rdi
   11e7c:	e8 72 78 ff ff       	callq  96f3 <transparent_crc>
   11e81:	8b 05 3d 72 00 00    	mov    0x723d(%rip),%eax        # 190c4 <g_211>
   11e87:	89 c1                	mov    %eax,%ecx
   11e89:	8b 45 fc             	mov    -0x4(%rbp),%eax
   11e8c:	89 c2                	mov    %eax,%edx
   11e8e:	48 8d 35 f9 38 00 00 	lea    0x38f9(%rip),%rsi        # 1578e <g_1477+0x1006>
   11e95:	48 89 cf             	mov    %rcx,%rdi
   11e98:	e8 56 78 ff ff       	callq  96f3 <transparent_crc>
   11e9d:	8b 05 21 72 00 00    	mov    0x7221(%rip),%eax        # 190c4 <g_211>
   11ea3:	48 98                	cltq   
   11ea5:	8b 55 fc             	mov    -0x4(%rbp),%edx
   11ea8:	48 8d 35 e8 38 00 00 	lea    0x38e8(%rip),%rsi        # 15797 <g_1477+0x100f>
   11eaf:	48 89 c7             	mov    %rax,%rdi
   11eb2:	e8 3c 78 ff ff       	callq  96f3 <transparent_crc>
   11eb7:	48 8b 05 0a 72 00 00 	mov    0x720a(%rip),%rax        # 190c8 <g_254>
   11ebe:	48 89 c1             	mov    %rax,%rcx
   11ec1:	8b 45 fc             	mov    -0x4(%rbp),%eax
   11ec4:	89 c2                	mov    %eax,%edx
   11ec6:	48 8d 35 d3 38 00 00 	lea    0x38d3(%rip),%rsi        # 157a0 <g_1477+0x1018>
   11ecd:	48 89 cf             	mov    %rcx,%rdi
   11ed0:	e8 1e 78 ff ff       	callq  96f3 <transparent_crc>
   11ed5:	8b 05 f5 71 00 00    	mov    0x71f5(%rip),%eax        # 190d0 <g_268>
   11edb:	48 98                	cltq   
   11edd:	8b 55 fc             	mov    -0x4(%rbp),%edx
   11ee0:	48 8d 35 bf 38 00 00 	lea    0x38bf(%rip),%rsi        # 157a6 <g_1477+0x101e>
   11ee7:	48 89 c7             	mov    %rax,%rdi
   11eea:	e8 04 78 ff ff       	callq  96f3 <transparent_crc>
   11eef:	0f b6 05 de 71 00 00 	movzbl 0x71de(%rip),%eax        # 190d4 <g_269>
   11ef6:	48 0f be c0          	movsbq %al,%rax
   11efa:	8b 55 fc             	mov    -0x4(%rbp),%edx
   11efd:	48 8d 35 a8 38 00 00 	lea    0x38a8(%rip),%rsi        # 157ac <g_1477+0x1024>
   11f04:	48 89 c7             	mov    %rax,%rdi
   11f07:	e8 e7 77 ff ff       	callq  96f3 <transparent_crc>
   11f0c:	0f b7 05 c3 71 00 00 	movzwl 0x71c3(%rip),%eax        # 190d6 <g_282>
   11f13:	48 0f bf c0          	movswq %ax,%rax
   11f17:	8b 55 fc             	mov    -0x4(%rbp),%edx
   11f1a:	48 8d 35 91 38 00 00 	lea    0x3891(%rip),%rsi        # 157b2 <g_1477+0x102a>
   11f21:	48 89 c7             	mov    %rax,%rdi
   11f24:	e8 ca 77 ff ff       	callq  96f3 <transparent_crc>
   11f29:	8b 05 a9 71 00 00    	mov    0x71a9(%rip),%eax        # 190d8 <g_375>
   11f2f:	48 98                	cltq   
   11f31:	8b 55 fc             	mov    -0x4(%rbp),%edx
   11f34:	48 8d 35 7d 38 00 00 	lea    0x387d(%rip),%rsi        # 157b8 <g_1477+0x1030>
   11f3b:	48 89 c7             	mov    %rax,%rdi
   11f3e:	e8 b0 77 ff ff       	callq  96f3 <transparent_crc>
   11f43:	8b 05 8f 71 00 00    	mov    0x718f(%rip),%eax        # 190d8 <g_375>
   11f49:	89 c1                	mov    %eax,%ecx
   11f4b:	8b 45 fc             	mov    -0x4(%rbp),%eax
   11f4e:	89 c2                	mov    %eax,%edx
   11f50:	48 8d 35 6a 38 00 00 	lea    0x386a(%rip),%rsi        # 157c1 <g_1477+0x1039>
   11f57:	48 89 cf             	mov    %rcx,%rdi
   11f5a:	e8 94 77 ff ff       	callq  96f3 <transparent_crc>
   11f5f:	8b 05 73 71 00 00    	mov    0x7173(%rip),%eax        # 190d8 <g_375>
   11f65:	48 98                	cltq   
   11f67:	8b 55 fc             	mov    -0x4(%rbp),%edx
   11f6a:	48 8d 35 59 38 00 00 	lea    0x3859(%rip),%rsi        # 157ca <g_1477+0x1042>
   11f71:	48 89 c7             	mov    %rax,%rdi
   11f74:	e8 7a 77 ff ff       	callq  96f3 <transparent_crc>
   11f79:	c7 45 f0 00 00 00 00 	movl   $0x0,-0x10(%rbp)
   11f80:	e9 9a 00 00 00       	jmpq   1201f <main+0x51a>
   11f85:	c7 45 f4 00 00 00 00 	movl   $0x0,-0xc(%rbp)
   11f8c:	e9 80 00 00 00       	jmpq   12011 <main+0x50c>
   11f91:	c7 45 f8 00 00 00 00 	movl   $0x0,-0x8(%rbp)
   11f98:	eb 6d                	jmp    12007 <main+0x502>
   11f9a:	8b 45 f8             	mov    -0x8(%rbp),%eax
   11f9d:	48 98                	cltq   
   11f9f:	8b 55 f0             	mov    -0x10(%rbp),%edx
   11fa2:	48 63 ca             	movslq %edx,%rcx
   11fa5:	8b 55 f4             	mov    -0xc(%rbp),%edx
   11fa8:	48 63 d2             	movslq %edx,%rdx
   11fab:	48 c1 e1 03          	shl    $0x3,%rcx
   11faf:	48 01 ca             	add    %rcx,%rdx
   11fb2:	48 c1 e2 02          	shl    $0x2,%rdx
   11fb6:	48 01 d0             	add    %rdx,%rax
   11fb9:	48 8d 14 c5 00 00 00 	lea    0x0(,%rax,8),%rdx
   11fc0:	00 
   11fc1:	48 8d 05 b8 20 00 00 	lea    0x20b8(%rip),%rax        # 14080 <g_407>
   11fc8:	0f b6 04 02          	movzbl (%rdx,%rax,1),%eax
   11fcc:	0f b6 c0             	movzbl %al,%eax
   11fcf:	8b 55 fc             	mov    -0x4(%rbp),%edx
   11fd2:	48 8d 35 fa 37 00 00 	lea    0x37fa(%rip),%rsi        # 157d3 <g_1477+0x104b>
   11fd9:	48 89 c7             	mov    %rax,%rdi
   11fdc:	e8 12 77 ff ff       	callq  96f3 <transparent_crc>
   11fe1:	83 7d fc 00          	cmpl   $0x0,-0x4(%rbp)
   11fe5:	74 1c                	je     12003 <main+0x4fe>
   11fe7:	8b 4d f8             	mov    -0x8(%rbp),%ecx
   11fea:	8b 55 f4             	mov    -0xc(%rbp),%edx
   11fed:	8b 45 f0             	mov    -0x10(%rbp),%eax
   11ff0:	89 c6                	mov    %eax,%esi
   11ff2:	48 8d 3d ec 37 00 00 	lea    0x37ec(%rip),%rdi        # 157e5 <g_1477+0x105d>
   11ff9:	b8 00 00 00 00       	mov    $0x0,%eax
   11ffe:	e8 7d 60 ff ff       	callq  8080 <printf@plt>
   12003:	83 45 f8 01          	addl   $0x1,-0x8(%rbp)
   12007:	83 7d f8 03          	cmpl   $0x3,-0x8(%rbp)
   1200b:	7e 8d                	jle    11f9a <main+0x495>
   1200d:	83 45 f4 01          	addl   $0x1,-0xc(%rbp)
   12011:	83 7d f4 07          	cmpl   $0x7,-0xc(%rbp)
   12015:	0f 8e 76 ff ff ff    	jle    11f91 <main+0x48c>
   1201b:	83 45 f0 01          	addl   $0x1,-0x10(%rbp)
   1201f:	83 7d f0 06          	cmpl   $0x6,-0x10(%rbp)
   12023:	0f 8e 5c ff ff ff    	jle    11f85 <main+0x480>
   12029:	0f b6 05 ac 70 00 00 	movzbl 0x70ac(%rip),%eax        # 190dc <g_411>
   12030:	0f b6 c0             	movzbl %al,%eax
   12033:	8b 55 fc             	mov    -0x4(%rbp),%edx
   12036:	48 8d 35 be 37 00 00 	lea    0x37be(%rip),%rsi        # 157fb <g_1477+0x1073>
   1203d:	48 89 c7             	mov    %rax,%rdi
   12040:	e8 ae 76 ff ff       	callq  96f3 <transparent_crc>
   12045:	0f b6 05 94 70 00 00 	movzbl 0x7094(%rip),%eax        # 190e0 <g_421>
   1204c:	48 0f be c0          	movsbq %al,%rax
   12050:	8b 55 fc             	mov    -0x4(%rbp),%edx
   12053:	48 8d 35 a7 37 00 00 	lea    0x37a7(%rip),%rsi        # 15801 <g_1477+0x1079>
   1205a:	48 89 c7             	mov    %rax,%rdi
   1205d:	e8 91 76 ff ff       	callq  96f3 <transparent_crc>
   12062:	0f b7 05 7f 70 00 00 	movzwl 0x707f(%rip),%eax        # 190e8 <g_422>
   12069:	0f b7 c0             	movzwl %ax,%eax
   1206c:	8b 55 fc             	mov    -0x4(%rbp),%edx
   1206f:	48 8d 35 94 37 00 00 	lea    0x3794(%rip),%rsi        # 1580a <g_1477+0x1082>
   12076:	48 89 c7             	mov    %rax,%rdi
   12079:	e8 75 76 ff ff       	callq  96f3 <transparent_crc>
   1207e:	0f b6 05 63 70 00 00 	movzbl 0x7063(%rip),%eax        # 190e8 <g_422>
   12085:	0f b6 c0             	movzbl %al,%eax
   12088:	8b 55 fc             	mov    -0x4(%rbp),%edx
   1208b:	48 8d 35 81 37 00 00 	lea    0x3781(%rip),%rsi        # 15813 <g_1477+0x108b>
   12092:	48 89 c7             	mov    %rax,%rdi
   12095:	e8 59 76 ff ff       	callq  96f3 <transparent_crc>
   1209a:	0f b6 05 47 70 00 00 	movzbl 0x7047(%rip),%eax        # 190e8 <g_422>
   120a1:	48 0f be c0          	movsbq %al,%rax
   120a5:	8b 55 fc             	mov    -0x4(%rbp),%edx
   120a8:	48 8d 35 6d 37 00 00 	lea    0x376d(%rip),%rsi        # 1581c <g_1477+0x1094>
   120af:	48 89 c7             	mov    %rax,%rdi
   120b2:	e8 3c 76 ff ff       	callq  96f3 <transparent_crc>
   120b7:	8b 05 33 70 00 00    	mov    0x7033(%rip),%eax        # 190f0 <g_425>
   120bd:	48 98                	cltq   
   120bf:	8b 55 fc             	mov    -0x4(%rbp),%edx
   120c2:	48 8d 35 5c 37 00 00 	lea    0x375c(%rip),%rsi        # 15825 <g_1477+0x109d>
   120c9:	48 89 c7             	mov    %rax,%rdi
   120cc:	e8 22 76 ff ff       	callq  96f3 <transparent_crc>
   120d1:	8b 05 1d 70 00 00    	mov    0x701d(%rip),%eax        # 190f4 <g_438>
   120d7:	48 98                	cltq   
   120d9:	8b 55 fc             	mov    -0x4(%rbp),%edx
   120dc:	48 8d 35 48 37 00 00 	lea    0x3748(%rip),%rsi        # 1582b <g_1477+0x10a3>
   120e3:	48 89 c7             	mov    %rax,%rdi
   120e6:	e8 08 76 ff ff       	callq  96f3 <transparent_crc>
   120eb:	8b 05 03 70 00 00    	mov    0x7003(%rip),%eax        # 190f4 <g_438>
   120f1:	89 c1                	mov    %eax,%ecx
   120f3:	8b 45 fc             	mov    -0x4(%rbp),%eax
   120f6:	89 c2                	mov    %eax,%edx
   120f8:	48 8d 35 35 37 00 00 	lea    0x3735(%rip),%rsi        # 15834 <g_1477+0x10ac>
   120ff:	48 89 cf             	mov    %rcx,%rdi
   12102:	e8 ec 75 ff ff       	callq  96f3 <transparent_crc>
   12107:	8b 05 e7 6f 00 00    	mov    0x6fe7(%rip),%eax        # 190f4 <g_438>
   1210d:	48 98                	cltq   
   1210f:	8b 55 fc             	mov    -0x4(%rbp),%edx
   12112:	48 8d 35 24 37 00 00 	lea    0x3724(%rip),%rsi        # 1583d <g_1477+0x10b5>
   12119:	48 89 c7             	mov    %rax,%rdi
   1211c:	e8 d2 75 ff ff       	callq  96f3 <transparent_crc>
   12121:	0f b7 05 d0 6f 00 00 	movzwl 0x6fd0(%rip),%eax        # 190f8 <g_458>
   12128:	0f b7 c0             	movzwl %ax,%eax
   1212b:	8b 55 fc             	mov    -0x4(%rbp),%edx
   1212e:	48 8d 35 11 37 00 00 	lea    0x3711(%rip),%rsi        # 15846 <g_1477+0x10be>
   12135:	48 89 c7             	mov    %rax,%rdi
   12138:	e8 b6 75 ff ff       	callq  96f3 <transparent_crc>
   1213d:	0f b6 05 74 ab 00 00 	movzbl 0xab74(%rip),%eax        # 1ccb8 <g_505>
   12144:	48 0f be c0          	movsbq %al,%rax
   12148:	8b 55 fc             	mov    -0x4(%rbp),%edx
   1214b:	48 8d 35 fa 36 00 00 	lea    0x36fa(%rip),%rsi        # 1584c <g_1477+0x10c4>
   12152:	48 89 c7             	mov    %rax,%rdi
   12155:	e8 99 75 ff ff       	callq  96f3 <transparent_crc>
   1215a:	0f b6 05 9f 6f 00 00 	movzbl 0x6f9f(%rip),%eax        # 19100 <g_509>
   12161:	48 0f be c0          	movsbq %al,%rax
   12165:	8b 55 fc             	mov    -0x4(%rbp),%edx
   12168:	48 8d 35 e6 36 00 00 	lea    0x36e6(%rip),%rsi        # 15855 <g_1477+0x10cd>
   1216f:	48 89 c7             	mov    %rax,%rdi
   12172:	e8 7c 75 ff ff       	callq  96f3 <transparent_crc>
   12177:	0f b6 05 8a 6f 00 00 	movzbl 0x6f8a(%rip),%eax        # 19108 <g_578>
   1217e:	0f b6 c0             	movzbl %al,%eax
   12181:	8b 55 fc             	mov    -0x4(%rbp),%edx
   12184:	48 8d 35 d3 36 00 00 	lea    0x36d3(%rip),%rsi        # 1585e <g_1477+0x10d6>
   1218b:	48 89 c7             	mov    %rax,%rdi
   1218e:	e8 60 75 ff ff       	callq  96f3 <transparent_crc>
   12193:	0f b6 05 6e 6f 00 00 	movzbl 0x6f6e(%rip),%eax        # 19108 <g_578>
   1219a:	48 0f be c0          	movsbq %al,%rax
   1219e:	8b 55 fc             	mov    -0x4(%rbp),%edx
   121a1:	48 8d 35 bf 36 00 00 	lea    0x36bf(%rip),%rsi        # 15867 <g_1477+0x10df>
   121a8:	48 89 c7             	mov    %rax,%rdi
   121ab:	e8 43 75 ff ff       	callq  96f3 <transparent_crc>
   121b0:	0f b6 05 59 6f 00 00 	movzbl 0x6f59(%rip),%eax        # 19110 <g_645>
   121b7:	48 0f be c0          	movsbq %al,%rax
   121bb:	8b 55 fc             	mov    -0x4(%rbp),%edx
   121be:	48 8d 35 ab 36 00 00 	lea    0x36ab(%rip),%rsi        # 15870 <g_1477+0x10e8>
   121c5:	48 89 c7             	mov    %rax,%rdi
   121c8:	e8 26 75 ff ff       	callq  96f3 <transparent_crc>
   121cd:	8b 05 45 6f 00 00    	mov    0x6f45(%rip),%eax        # 19118 <g_654>
   121d3:	89 c1                	mov    %eax,%ecx
   121d5:	8b 45 fc             	mov    -0x4(%rbp),%eax
   121d8:	89 c2                	mov    %eax,%edx
   121da:	48 8d 35 98 36 00 00 	lea    0x3698(%rip),%rsi        # 15879 <g_1477+0x10f1>
   121e1:	48 89 cf             	mov    %rcx,%rdi
   121e4:	e8 0a 75 ff ff       	callq  96f3 <transparent_crc>
   121e9:	0f b6 05 90 25 00 00 	movzbl 0x2590(%rip),%eax        # 14780 <g_695>
   121f0:	0f b6 c0             	movzbl %al,%eax
   121f3:	8b 55 fc             	mov    -0x4(%rbp),%edx
   121f6:	48 8d 35 82 36 00 00 	lea    0x3682(%rip),%rsi        # 1587f <g_1477+0x10f7>
   121fd:	48 89 c7             	mov    %rax,%rdi
   12200:	e8 ee 74 ff ff       	callq  96f3 <transparent_crc>
   12205:	0f b7 05 10 6f 00 00 	movzwl 0x6f10(%rip),%eax        # 1911c <g_718>
   1220c:	0f b7 c0             	movzwl %ax,%eax
   1220f:	8b 55 fc             	mov    -0x4(%rbp),%edx
   12212:	48 8d 35 6f 36 00 00 	lea    0x366f(%rip),%rsi        # 15888 <g_1477+0x1100>
   12219:	48 89 c7             	mov    %rax,%rdi
   1221c:	e8 d2 74 ff ff       	callq  96f3 <transparent_crc>
   12221:	0f b6 05 98 aa 00 00 	movzbl 0xaa98(%rip),%eax        # 1ccc0 <g_729>
   12228:	0f b6 c0             	movzbl %al,%eax
   1222b:	8b 55 fc             	mov    -0x4(%rbp),%edx
   1222e:	48 8d 35 59 36 00 00 	lea    0x3659(%rip),%rsi        # 1588e <g_1477+0x1106>
   12235:	48 89 c7             	mov    %rax,%rdi
   12238:	e8 b6 74 ff ff       	callq  96f3 <transparent_crc>
   1223d:	c7 45 f0 00 00 00 00 	movl   $0x0,-0x10(%rbp)
   12244:	e9 a3 00 00 00       	jmpq   122ec <main+0x7e7>
   12249:	8b 45 f0             	mov    -0x10(%rbp),%eax
   1224c:	48 98                	cltq   
   1224e:	48 8d 14 85 00 00 00 	lea    0x0(,%rax,4),%rdx
   12255:	00 
   12256:	48 8d 05 c3 6e 00 00 	lea    0x6ec3(%rip),%rax        # 19120 <g_730>
   1225d:	8b 04 02             	mov    (%rdx,%rax,1),%eax
   12260:	48 98                	cltq   
   12262:	8b 55 fc             	mov    -0x4(%rbp),%edx
   12265:	48 8d 35 2b 36 00 00 	lea    0x362b(%rip),%rsi        # 15897 <g_1477+0x110f>
   1226c:	48 89 c7             	mov    %rax,%rdi
   1226f:	e8 7f 74 ff ff       	callq  96f3 <transparent_crc>
   12274:	8b 45 f0             	mov    -0x10(%rbp),%eax
   12277:	48 98                	cltq   
   12279:	48 8d 14 85 00 00 00 	lea    0x0(,%rax,4),%rdx
   12280:	00 
   12281:	48 8d 05 98 6e 00 00 	lea    0x6e98(%rip),%rax        # 19120 <g_730>
   12288:	8b 04 02             	mov    (%rdx,%rax,1),%eax
   1228b:	89 c1                	mov    %eax,%ecx
   1228d:	8b 45 fc             	mov    -0x4(%rbp),%eax
   12290:	89 c2                	mov    %eax,%edx
   12292:	48 8d 35 0a 36 00 00 	lea    0x360a(%rip),%rsi        # 158a3 <g_1477+0x111b>
   12299:	48 89 cf             	mov    %rcx,%rdi
   1229c:	e8 52 74 ff ff       	callq  96f3 <transparent_crc>
   122a1:	8b 45 f0             	mov    -0x10(%rbp),%eax
   122a4:	48 98                	cltq   
   122a6:	48 8d 14 85 00 00 00 	lea    0x0(,%rax,4),%rdx
   122ad:	00 
   122ae:	48 8d 05 6b 6e 00 00 	lea    0x6e6b(%rip),%rax        # 19120 <g_730>
   122b5:	8b 04 02             	mov    (%rdx,%rax,1),%eax
   122b8:	48 98                	cltq   
   122ba:	8b 55 fc             	mov    -0x4(%rbp),%edx
   122bd:	48 8d 35 eb 35 00 00 	lea    0x35eb(%rip),%rsi        # 158af <g_1477+0x1127>
   122c4:	48 89 c7             	mov    %rax,%rdi
   122c7:	e8 27 74 ff ff       	callq  96f3 <transparent_crc>
   122cc:	83 7d fc 00          	cmpl   $0x0,-0x4(%rbp)
   122d0:	74 16                	je     122e8 <main+0x7e3>
   122d2:	8b 45 f0             	mov    -0x10(%rbp),%eax
   122d5:	89 c6                	mov    %eax,%esi
   122d7:	48 8d 3d 14 34 00 00 	lea    0x3414(%rip),%rdi        # 156f2 <g_1477+0xf6a>
   122de:	b8 00 00 00 00       	mov    $0x0,%eax
   122e3:	e8 98 5d ff ff       	callq  8080 <printf@plt>
   122e8:	83 45 f0 01          	addl   $0x1,-0x10(%rbp)
   122ec:	83 7d f0 07          	cmpl   $0x7,-0x10(%rbp)
   122f0:	0f 8e 53 ff ff ff    	jle    12249 <main+0x744>
   122f6:	0f b7 05 43 6e 00 00 	movzwl 0x6e43(%rip),%eax        # 19140 <g_778>
   122fd:	48 0f bf c0          	movswq %ax,%rax
   12301:	8b 55 fc             	mov    -0x4(%rbp),%edx
   12304:	48 8d 35 b0 35 00 00 	lea    0x35b0(%rip),%rsi        # 158bb <g_1477+0x1133>
   1230b:	48 89 c7             	mov    %rax,%rdi
   1230e:	e8 e0 73 ff ff       	callq  96f3 <transparent_crc>
   12313:	8b 05 2f 6e 00 00    	mov    0x6e2f(%rip),%eax        # 19148 <g_826>
   12319:	48 98                	cltq   
   1231b:	8b 55 fc             	mov    -0x4(%rbp),%edx
   1231e:	48 8d 35 9f 35 00 00 	lea    0x359f(%rip),%rsi        # 158c4 <g_1477+0x113c>
   12325:	48 89 c7             	mov    %rax,%rdi
   12328:	e8 c6 73 ff ff       	callq  96f3 <transparent_crc>
   1232d:	8b 05 15 6e 00 00    	mov    0x6e15(%rip),%eax        # 19148 <g_826>
   12333:	89 c1                	mov    %eax,%ecx
   12335:	8b 45 fc             	mov    -0x4(%rbp),%eax
   12338:	89 c2                	mov    %eax,%edx
   1233a:	48 8d 35 8c 35 00 00 	lea    0x358c(%rip),%rsi        # 158cd <g_1477+0x1145>
   12341:	48 89 cf             	mov    %rcx,%rdi
   12344:	e8 aa 73 ff ff       	callq  96f3 <transparent_crc>
   12349:	8b 05 f9 6d 00 00    	mov    0x6df9(%rip),%eax        # 19148 <g_826>
   1234f:	48 98                	cltq   
   12351:	8b 55 fc             	mov    -0x4(%rbp),%edx
   12354:	48 8d 35 7b 35 00 00 	lea    0x357b(%rip),%rsi        # 158d6 <g_1477+0x114e>
   1235b:	48 89 c7             	mov    %rax,%rdi
   1235e:	e8 90 73 ff ff       	callq  96f3 <transparent_crc>
   12363:	0f b6 05 e6 6d 00 00 	movzbl 0x6de6(%rip),%eax        # 19150 <g_833>
   1236a:	0f b6 c0             	movzbl %al,%eax
   1236d:	8b 55 fc             	mov    -0x4(%rbp),%edx
   12370:	48 8d 35 68 35 00 00 	lea    0x3568(%rip),%rsi        # 158df <g_1477+0x1157>
   12377:	48 89 c7             	mov    %rax,%rdi
   1237a:	e8 74 73 ff ff       	callq  96f3 <transparent_crc>
   1237f:	8b 05 d3 6d 00 00    	mov    0x6dd3(%rip),%eax        # 19158 <g_840>
   12385:	48 98                	cltq   
   12387:	8b 55 fc             	mov    -0x4(%rbp),%edx
   1238a:	48 8d 35 57 35 00 00 	lea    0x3557(%rip),%rsi        # 158e8 <g_1477+0x1160>
   12391:	48 89 c7             	mov    %rax,%rdi
   12394:	e8 5a 73 ff ff       	callq  96f3 <transparent_crc>
   12399:	8b 05 bd 6d 00 00    	mov    0x6dbd(%rip),%eax        # 1915c <g_841>
   1239f:	48 98                	cltq   
   123a1:	8b 55 fc             	mov    -0x4(%rbp),%edx
   123a4:	48 8d 35 43 35 00 00 	lea    0x3543(%rip),%rsi        # 158ee <g_1477+0x1166>
   123ab:	48 89 c7             	mov    %rax,%rdi
   123ae:	e8 40 73 ff ff       	callq  96f3 <transparent_crc>
   123b3:	8b 05 a7 6d 00 00    	mov    0x6da7(%rip),%eax        # 19160 <g_842>
   123b9:	48 98                	cltq   
   123bb:	8b 55 fc             	mov    -0x4(%rbp),%edx
   123be:	48 8d 35 2f 35 00 00 	lea    0x352f(%rip),%rsi        # 158f4 <g_1477+0x116c>
   123c5:	48 89 c7             	mov    %rax,%rdi
   123c8:	e8 26 73 ff ff       	callq  96f3 <transparent_crc>
   123cd:	8b 05 91 6d 00 00    	mov    0x6d91(%rip),%eax        # 19164 <g_843>
   123d3:	48 98                	cltq   
   123d5:	8b 55 fc             	mov    -0x4(%rbp),%edx
   123d8:	48 8d 35 1b 35 00 00 	lea    0x351b(%rip),%rsi        # 158fa <g_1477+0x1172>
   123df:	48 89 c7             	mov    %rax,%rdi
   123e2:	e8 0c 73 ff ff       	callq  96f3 <transparent_crc>
   123e7:	c7 45 f0 00 00 00 00 	movl   $0x0,-0x10(%rbp)
   123ee:	eb 4b                	jmp    1243b <main+0x936>
   123f0:	8b 45 f0             	mov    -0x10(%rbp),%eax
   123f3:	48 98                	cltq   
   123f5:	48 8d 14 85 00 00 00 	lea    0x0(,%rax,4),%rdx
   123fc:	00 
   123fd:	48 8d 05 d4 a8 00 00 	lea    0xa8d4(%rip),%rax        # 1ccd8 <g_844>
   12404:	8b 04 02             	mov    (%rdx,%rax,1),%eax
   12407:	48 98                	cltq   
   12409:	8b 55 fc             	mov    -0x4(%rbp),%edx
   1240c:	48 8d 35 ed 34 00 00 	lea    0x34ed(%rip),%rsi        # 15900 <g_1477+0x1178>
   12413:	48 89 c7             	mov    %rax,%rdi
   12416:	e8 d8 72 ff ff       	callq  96f3 <transparent_crc>
   1241b:	83 7d fc 00          	cmpl   $0x0,-0x4(%rbp)
   1241f:	74 16                	je     12437 <main+0x932>
   12421:	8b 45 f0             	mov    -0x10(%rbp),%eax
   12424:	89 c6                	mov    %eax,%esi
   12426:	48 8d 3d c5 32 00 00 	lea    0x32c5(%rip),%rdi        # 156f2 <g_1477+0xf6a>
   1242d:	b8 00 00 00 00       	mov    $0x0,%eax
   12432:	e8 49 5c ff ff       	callq  8080 <printf@plt>
   12437:	83 45 f0 01          	addl   $0x1,-0x10(%rbp)
   1243b:	83 7d f0 01          	cmpl   $0x1,-0x10(%rbp)
   1243f:	7e af                	jle    123f0 <main+0x8eb>
   12441:	8b 05 21 6d 00 00    	mov    0x6d21(%rip),%eax        # 19168 <g_845>
   12447:	48 98                	cltq   
   12449:	8b 55 fc             	mov    -0x4(%rbp),%edx
   1244c:	48 8d 35 b6 34 00 00 	lea    0x34b6(%rip),%rsi        # 15909 <g_1477+0x1181>
   12453:	48 89 c7             	mov    %rax,%rdi
   12456:	e8 98 72 ff ff       	callq  96f3 <transparent_crc>
   1245b:	8b 05 0b 6d 00 00    	mov    0x6d0b(%rip),%eax        # 1916c <g_846>
   12461:	48 98                	cltq   
   12463:	8b 55 fc             	mov    -0x4(%rbp),%edx
   12466:	48 8d 35 a2 34 00 00 	lea    0x34a2(%rip),%rsi        # 1590f <g_1477+0x1187>
   1246d:	48 89 c7             	mov    %rax,%rdi
   12470:	e8 7e 72 ff ff       	callq  96f3 <transparent_crc>
   12475:	8b 05 65 a8 00 00    	mov    0xa865(%rip),%eax        # 1cce0 <g_847>
   1247b:	48 98                	cltq   
   1247d:	8b 55 fc             	mov    -0x4(%rbp),%edx
   12480:	48 8d 35 8e 34 00 00 	lea    0x348e(%rip),%rsi        # 15915 <g_1477+0x118d>
   12487:	48 89 c7             	mov    %rax,%rdi
   1248a:	e8 64 72 ff ff       	callq  96f3 <transparent_crc>
   1248f:	8b 05 4f a8 00 00    	mov    0xa84f(%rip),%eax        # 1cce4 <g_848>
   12495:	48 98                	cltq   
   12497:	8b 55 fc             	mov    -0x4(%rbp),%edx
   1249a:	48 8d 35 7a 34 00 00 	lea    0x347a(%rip),%rsi        # 1591b <g_1477+0x1193>
   124a1:	48 89 c7             	mov    %rax,%rdi
   124a4:	e8 4a 72 ff ff       	callq  96f3 <transparent_crc>
   124a9:	c7 45 f0 00 00 00 00 	movl   $0x0,-0x10(%rbp)
   124b0:	eb 4e                	jmp    12500 <main+0x9fb>
   124b2:	8b 45 f0             	mov    -0x10(%rbp),%eax
   124b5:	48 98                	cltq   
   124b7:	48 8d 14 c5 00 00 00 	lea    0x0(,%rax,8),%rdx
   124be:	00 
   124bf:	48 8d 05 ba 6c 00 00 	lea    0x6cba(%rip),%rax        # 19180 <g_883>
   124c6:	0f b7 04 02          	movzwl (%rdx,%rax,1),%eax
   124ca:	48 0f bf c0          	movswq %ax,%rax
   124ce:	8b 55 fc             	mov    -0x4(%rbp),%edx
   124d1:	48 8d 35 49 34 00 00 	lea    0x3449(%rip),%rsi        # 15921 <g_1477+0x1199>
   124d8:	48 89 c7             	mov    %rax,%rdi
   124db:	e8 13 72 ff ff       	callq  96f3 <transparent_crc>
   124e0:	83 7d fc 00          	cmpl   $0x0,-0x4(%rbp)
   124e4:	74 16                	je     124fc <main+0x9f7>
   124e6:	8b 45 f0             	mov    -0x10(%rbp),%eax
   124e9:	89 c6                	mov    %eax,%esi
   124eb:	48 8d 3d 00 32 00 00 	lea    0x3200(%rip),%rdi        # 156f2 <g_1477+0xf6a>
   124f2:	b8 00 00 00 00       	mov    $0x0,%eax
   124f7:	e8 84 5b ff ff       	callq  8080 <printf@plt>
   124fc:	83 45 f0 01          	addl   $0x1,-0x10(%rbp)
   12500:	83 7d f0 09          	cmpl   $0x9,-0x10(%rbp)
   12504:	7e ac                	jle    124b2 <main+0x9ad>
   12506:	c7 45 f0 00 00 00 00 	movl   $0x0,-0x10(%rbp)
   1250d:	eb 4d                	jmp    1255c <main+0xa57>
   1250f:	8b 45 f0             	mov    -0x10(%rbp),%eax
   12512:	48 98                	cltq   
   12514:	48 8d 14 c5 00 00 00 	lea    0x0(,%rax,8),%rdx
   1251b:	00 
   1251c:	48 8d 05 ad 6c 00 00 	lea    0x6cad(%rip),%rax        # 191d0 <g_901>
   12523:	0f b6 04 02          	movzbl (%rdx,%rax,1),%eax
   12527:	0f b6 c0             	movzbl %al,%eax
   1252a:	8b 55 fc             	mov    -0x4(%rbp),%edx
   1252d:	48 8d 35 f9 33 00 00 	lea    0x33f9(%rip),%rsi        # 1592d <g_1477+0x11a5>
   12534:	48 89 c7             	mov    %rax,%rdi
   12537:	e8 b7 71 ff ff       	callq  96f3 <transparent_crc>
   1253c:	83 7d fc 00          	cmpl   $0x0,-0x4(%rbp)
   12540:	74 16                	je     12558 <main+0xa53>
   12542:	8b 45 f0             	mov    -0x10(%rbp),%eax
   12545:	89 c6                	mov    %eax,%esi
   12547:	48 8d 3d a4 31 00 00 	lea    0x31a4(%rip),%rdi        # 156f2 <g_1477+0xf6a>
   1254e:	b8 00 00 00 00       	mov    $0x0,%eax
   12553:	e8 28 5b ff ff       	callq  8080 <printf@plt>
   12558:	83 45 f0 01          	addl   $0x1,-0x10(%rbp)
   1255c:	83 7d f0 02          	cmpl   $0x2,-0x10(%rbp)
   12560:	7e ad                	jle    1250f <main+0xa0a>
   12562:	8b 05 80 6c 00 00    	mov    0x6c80(%rip),%eax        # 191e8 <g_923>
   12568:	48 98                	cltq   
   1256a:	8b 55 fc             	mov    -0x4(%rbp),%edx
   1256d:	48 8d 35 c5 33 00 00 	lea    0x33c5(%rip),%rsi        # 15939 <g_1477+0x11b1>
   12574:	48 89 c7             	mov    %rax,%rdi
   12577:	e8 77 71 ff ff       	callq  96f3 <transparent_crc>
   1257c:	8b 05 66 6c 00 00    	mov    0x6c66(%rip),%eax        # 191e8 <g_923>
   12582:	89 c1                	mov    %eax,%ecx
   12584:	8b 45 fc             	mov    -0x4(%rbp),%eax
   12587:	89 c2                	mov    %eax,%edx
   12589:	48 8d 35 b2 33 00 00 	lea    0x33b2(%rip),%rsi        # 15942 <g_1477+0x11ba>
   12590:	48 89 cf             	mov    %rcx,%rdi
   12593:	e8 5b 71 ff ff       	callq  96f3 <transparent_crc>
   12598:	8b 05 4a 6c 00 00    	mov    0x6c4a(%rip),%eax        # 191e8 <g_923>
   1259e:	48 98                	cltq   
   125a0:	8b 55 fc             	mov    -0x4(%rbp),%edx
   125a3:	48 8d 35 a1 33 00 00 	lea    0x33a1(%rip),%rsi        # 1594b <g_1477+0x11c3>
   125aa:	48 89 c7             	mov    %rax,%rdi
   125ad:	e8 41 71 ff ff       	callq  96f3 <transparent_crc>
   125b2:	c7 45 f0 00 00 00 00 	movl   $0x0,-0x10(%rbp)
   125b9:	eb 78                	jmp    12633 <main+0xb2e>
   125bb:	c7 45 f4 00 00 00 00 	movl   $0x0,-0xc(%rbp)
   125c2:	eb 65                	jmp    12629 <main+0xb24>
   125c4:	8b 45 f4             	mov    -0xc(%rbp),%eax
   125c7:	48 63 c8             	movslq %eax,%rcx
   125ca:	8b 45 f0             	mov    -0x10(%rbp),%eax
   125cd:	48 63 d0             	movslq %eax,%rdx
   125d0:	48 89 d0             	mov    %rdx,%rax
   125d3:	48 c1 e0 03          	shl    $0x3,%rax
   125d7:	48 01 d0             	add    %rdx,%rax
   125da:	48 01 c8             	add    %rcx,%rax
   125dd:	48 8d 14 c5 00 00 00 	lea    0x0(,%rax,8),%rdx
   125e4:	00 
   125e5:	48 8d 05 14 6c 00 00 	lea    0x6c14(%rip),%rax        # 19200 <g_937>
   125ec:	0f b6 04 02          	movzbl (%rdx,%rax,1),%eax
   125f0:	48 0f be c0          	movsbq %al,%rax
   125f4:	8b 55 fc             	mov    -0x4(%rbp),%edx
   125f7:	48 8d 35 56 33 00 00 	lea    0x3356(%rip),%rsi        # 15954 <g_1477+0x11cc>
   125fe:	48 89 c7             	mov    %rax,%rdi
   12601:	e8 ed 70 ff ff       	callq  96f3 <transparent_crc>
   12606:	83 7d fc 00          	cmpl   $0x0,-0x4(%rbp)
   1260a:	74 19                	je     12625 <main+0xb20>
   1260c:	8b 55 f4             	mov    -0xc(%rbp),%edx
   1260f:	8b 45 f0             	mov    -0x10(%rbp),%eax
   12612:	89 c6                	mov    %eax,%esi
   12614:	48 8d 3d 48 33 00 00 	lea    0x3348(%rip),%rdi        # 15963 <g_1477+0x11db>
   1261b:	b8 00 00 00 00       	mov    $0x0,%eax
   12620:	e8 5b 5a ff ff       	callq  8080 <printf@plt>
   12625:	83 45 f4 01          	addl   $0x1,-0xc(%rbp)
   12629:	83 7d f4 08          	cmpl   $0x8,-0xc(%rbp)
   1262d:	7e 95                	jle    125c4 <main+0xabf>
   1262f:	83 45 f0 01          	addl   $0x1,-0x10(%rbp)
   12633:	83 7d f0 00          	cmpl   $0x0,-0x10(%rbp)
   12637:	7e 82                	jle    125bb <main+0xab6>
   12639:	0f b7 05 08 6c 00 00 	movzwl 0x6c08(%rip),%eax        # 19248 <g_960>
   12640:	0f b7 c0             	movzwl %ax,%eax
   12643:	8b 55 fc             	mov    -0x4(%rbp),%edx
   12646:	48 8d 35 28 33 00 00 	lea    0x3328(%rip),%rsi        # 15975 <g_1477+0x11ed>
   1264d:	48 89 c7             	mov    %rax,%rdi
   12650:	e8 9e 70 ff ff       	callq  96f3 <transparent_crc>
   12655:	0f b6 05 ec 6b 00 00 	movzbl 0x6bec(%rip),%eax        # 19248 <g_960>
   1265c:	0f b6 c0             	movzbl %al,%eax
   1265f:	8b 55 fc             	mov    -0x4(%rbp),%edx
   12662:	48 8d 35 15 33 00 00 	lea    0x3315(%rip),%rsi        # 1597e <g_1477+0x11f6>
   12669:	48 89 c7             	mov    %rax,%rdi
   1266c:	e8 82 70 ff ff       	callq  96f3 <transparent_crc>
   12671:	0f b6 05 d0 6b 00 00 	movzbl 0x6bd0(%rip),%eax        # 19248 <g_960>
   12678:	48 0f be c0          	movsbq %al,%rax
   1267c:	8b 55 fc             	mov    -0x4(%rbp),%edx
   1267f:	48 8d 35 01 33 00 00 	lea    0x3301(%rip),%rsi        # 15987 <g_1477+0x11ff>
   12686:	48 89 c7             	mov    %rax,%rdi
   12689:	e8 65 70 ff ff       	callq  96f3 <transparent_crc>
   1268e:	c7 45 f0 00 00 00 00 	movl   $0x0,-0x10(%rbp)
   12695:	eb 4a                	jmp    126e1 <main+0xbdc>
   12697:	8b 45 f0             	mov    -0x10(%rbp),%eax
   1269a:	48 98                	cltq   
   1269c:	48 8d 14 c5 00 00 00 	lea    0x0(,%rax,8),%rdx
   126a3:	00 
   126a4:	48 8d 05 55 a6 00 00 	lea    0xa655(%rip),%rax        # 1cd00 <g_975>
   126ab:	48 8b 04 02          	mov    (%rdx,%rax,1),%rax
   126af:	8b 55 fc             	mov    -0x4(%rbp),%edx
   126b2:	48 8d 35 d7 32 00 00 	lea    0x32d7(%rip),%rsi        # 15990 <g_1477+0x1208>
   126b9:	48 89 c7             	mov    %rax,%rdi
   126bc:	e8 32 70 ff ff       	callq  96f3 <transparent_crc>
   126c1:	83 7d fc 00          	cmpl   $0x0,-0x4(%rbp)
   126c5:	74 16                	je     126dd <main+0xbd8>
   126c7:	8b 45 f0             	mov    -0x10(%rbp),%eax
   126ca:	89 c6                	mov    %eax,%esi
   126cc:	48 8d 3d 1f 30 00 00 	lea    0x301f(%rip),%rdi        # 156f2 <g_1477+0xf6a>
   126d3:	b8 00 00 00 00       	mov    $0x0,%eax
   126d8:	e8 a3 59 ff ff       	callq  8080 <printf@plt>
   126dd:	83 45 f0 01          	addl   $0x1,-0x10(%rbp)
   126e1:	83 7d f0 06          	cmpl   $0x6,-0x10(%rbp)
   126e5:	7e b0                	jle    12697 <main+0xb92>
   126e7:	0f b6 05 62 6b 00 00 	movzbl 0x6b62(%rip),%eax        # 19250 <g_976>
   126ee:	0f b6 c0             	movzbl %al,%eax
   126f1:	8b 55 fc             	mov    -0x4(%rbp),%edx
   126f4:	48 8d 35 a1 32 00 00 	lea    0x32a1(%rip),%rsi        # 1599c <g_1477+0x1214>
   126fb:	48 89 c7             	mov    %rax,%rdi
   126fe:	e8 f0 6f ff ff       	callq  96f3 <transparent_crc>
   12703:	8b 05 4f 6b 00 00    	mov    0x6b4f(%rip),%eax        # 19258 <g_995>
   12709:	89 c1                	mov    %eax,%ecx
   1270b:	8b 45 fc             	mov    -0x4(%rbp),%eax
   1270e:	89 c2                	mov    %eax,%edx
   12710:	48 8d 35 8e 32 00 00 	lea    0x328e(%rip),%rsi        # 159a5 <g_1477+0x121d>
   12717:	48 89 cf             	mov    %rcx,%rdi
   1271a:	e8 d4 6f ff ff       	callq  96f3 <transparent_crc>
   1271f:	c7 45 f0 00 00 00 00 	movl   $0x0,-0x10(%rbp)
   12726:	eb 70                	jmp    12798 <main+0xc93>
   12728:	c7 45 f4 00 00 00 00 	movl   $0x0,-0xc(%rbp)
   1272f:	eb 5d                	jmp    1278e <main+0xc89>
   12731:	8b 45 f4             	mov    -0xc(%rbp),%eax
   12734:	48 98                	cltq   
   12736:	8b 55 f0             	mov    -0x10(%rbp),%edx
   12739:	48 63 d2             	movslq %edx,%rdx
   1273c:	48 c1 e2 03          	shl    $0x3,%rdx
   12740:	48 01 d0             	add    %rdx,%rax
   12743:	48 8d 14 c5 00 00 00 	lea    0x0(,%rax,8),%rdx
   1274a:	00 
   1274b:	48 8d 05 0e 6b 00 00 	lea    0x6b0e(%rip),%rax        # 19260 <g_1043>
   12752:	0f b6 04 02          	movzbl (%rdx,%rax,1),%eax
   12756:	0f b6 c0             	movzbl %al,%eax
   12759:	8b 55 fc             	mov    -0x4(%rbp),%edx
   1275c:	48 8d 35 48 32 00 00 	lea    0x3248(%rip),%rsi        # 159ab <g_1477+0x1223>
   12763:	48 89 c7             	mov    %rax,%rdi
   12766:	e8 88 6f ff ff       	callq  96f3 <transparent_crc>
   1276b:	83 7d fc 00          	cmpl   $0x0,-0x4(%rbp)
   1276f:	74 19                	je     1278a <main+0xc85>
   12771:	8b 55 f4             	mov    -0xc(%rbp),%edx
   12774:	8b 45 f0             	mov    -0x10(%rbp),%eax
   12777:	89 c6                	mov    %eax,%esi
   12779:	48 8d 3d e3 31 00 00 	lea    0x31e3(%rip),%rdi        # 15963 <g_1477+0x11db>
   12780:	b8 00 00 00 00       	mov    $0x0,%eax
   12785:	e8 f6 58 ff ff       	callq  8080 <printf@plt>
   1278a:	83 45 f4 01          	addl   $0x1,-0xc(%rbp)
   1278e:	83 7d f4 07          	cmpl   $0x7,-0xc(%rbp)
   12792:	7e 9d                	jle    12731 <main+0xc2c>
   12794:	83 45 f0 01          	addl   $0x1,-0x10(%rbp)
   12798:	83 7d f0 03          	cmpl   $0x3,-0x10(%rbp)
   1279c:	7e 8a                	jle    12728 <main+0xc23>
   1279e:	0f b6 05 bb 6b 00 00 	movzbl 0x6bbb(%rip),%eax        # 19360 <g_1050>
   127a5:	48 0f be c0          	movsbq %al,%rax
   127a9:	8b 55 fc             	mov    -0x4(%rbp),%edx
   127ac:	48 8d 35 08 32 00 00 	lea    0x3208(%rip),%rsi        # 159bb <g_1477+0x1233>
   127b3:	48 89 c7             	mov    %rax,%rdi
   127b6:	e8 38 6f ff ff       	callq  96f3 <transparent_crc>
   127bb:	8b 05 a7 6b 00 00    	mov    0x6ba7(%rip),%eax        # 19368 <g_1067>
   127c1:	48 98                	cltq   
   127c3:	8b 55 fc             	mov    -0x4(%rbp),%edx
   127c6:	48 8d 35 f8 31 00 00 	lea    0x31f8(%rip),%rsi        # 159c5 <g_1477+0x123d>
   127cd:	48 89 c7             	mov    %rax,%rdi
   127d0:	e8 1e 6f ff ff       	callq  96f3 <transparent_crc>
   127d5:	8b 05 8d 6b 00 00    	mov    0x6b8d(%rip),%eax        # 19368 <g_1067>
   127db:	89 c1                	mov    %eax,%ecx
   127dd:	8b 45 fc             	mov    -0x4(%rbp),%eax
   127e0:	89 c2                	mov    %eax,%edx
   127e2:	48 8d 35 e6 31 00 00 	lea    0x31e6(%rip),%rsi        # 159cf <g_1477+0x1247>
   127e9:	48 89 cf             	mov    %rcx,%rdi
   127ec:	e8 02 6f ff ff       	callq  96f3 <transparent_crc>
   127f1:	0f b7 05 70 6b 00 00 	movzwl 0x6b70(%rip),%eax        # 19368 <g_1067>
   127f8:	0f b7 c0             	movzwl %ax,%eax
   127fb:	8b 55 fc             	mov    -0x4(%rbp),%edx
   127fe:	48 8d 35 d4 31 00 00 	lea    0x31d4(%rip),%rsi        # 159d9 <g_1477+0x1251>
   12805:	48 89 c7             	mov    %rax,%rdi
   12808:	e8 e6 6e ff ff       	callq  96f3 <transparent_crc>
   1280d:	8b 05 55 6b 00 00    	mov    0x6b55(%rip),%eax        # 19368 <g_1067>
   12813:	25 ff ff 07 00       	and    $0x7ffff,%eax
   12818:	89 c1                	mov    %eax,%ecx
   1281a:	8b 45 fc             	mov    -0x4(%rbp),%eax
   1281d:	89 c2                	mov    %eax,%edx
   1281f:	48 8d 35 bd 31 00 00 	lea    0x31bd(%rip),%rsi        # 159e3 <g_1477+0x125b>
   12826:	48 89 cf             	mov    %rcx,%rdi
   12829:	e8 c5 6e ff ff       	callq  96f3 <transparent_crc>
   1282e:	8b 05 34 6b 00 00    	mov    0x6b34(%rip),%eax        # 19368 <g_1067>
   12834:	89 c1                	mov    %eax,%ecx
   12836:	8b 45 fc             	mov    -0x4(%rbp),%eax
   12839:	89 c2                	mov    %eax,%edx
   1283b:	48 8d 35 ab 31 00 00 	lea    0x31ab(%rip),%rsi        # 159ed <g_1477+0x1265>
   12842:	48 89 cf             	mov    %rcx,%rdi
   12845:	e8 a9 6e ff ff       	callq  96f3 <transparent_crc>
   1284a:	8b 05 1c 6b 00 00    	mov    0x6b1c(%rip),%eax        # 1936c <g_1128>
   12850:	48 98                	cltq   
   12852:	8b 55 fc             	mov    -0x4(%rbp),%edx
   12855:	48 8d 35 9b 31 00 00 	lea    0x319b(%rip),%rsi        # 159f7 <g_1477+0x126f>
   1285c:	48 89 c7             	mov    %rax,%rdi
   1285f:	e8 8f 6e ff ff       	callq  96f3 <transparent_crc>
   12864:	8b 05 02 6b 00 00    	mov    0x6b02(%rip),%eax        # 1936c <g_1128>
   1286a:	89 c1                	mov    %eax,%ecx
   1286c:	8b 45 fc             	mov    -0x4(%rbp),%eax
   1286f:	89 c2                	mov    %eax,%edx
   12871:	48 8d 35 89 31 00 00 	lea    0x3189(%rip),%rsi        # 15a01 <g_1477+0x1279>
   12878:	48 89 cf             	mov    %rcx,%rdi
   1287b:	e8 73 6e ff ff       	callq  96f3 <transparent_crc>
   12880:	8b 05 e6 6a 00 00    	mov    0x6ae6(%rip),%eax        # 1936c <g_1128>
   12886:	48 98                	cltq   
   12888:	8b 55 fc             	mov    -0x4(%rbp),%edx
   1288b:	48 8d 35 79 31 00 00 	lea    0x3179(%rip),%rsi        # 15a0b <g_1477+0x1283>
   12892:	48 89 c7             	mov    %rax,%rdi
   12895:	e8 59 6e ff ff       	callq  96f3 <transparent_crc>
   1289a:	8b 05 d0 6a 00 00    	mov    0x6ad0(%rip),%eax        # 19370 <g_1150>
   128a0:	48 98                	cltq   
   128a2:	8b 55 fc             	mov    -0x4(%rbp),%edx
   128a5:	48 8d 35 69 31 00 00 	lea    0x3169(%rip),%rsi        # 15a15 <g_1477+0x128d>
   128ac:	48 89 c7             	mov    %rax,%rdi
   128af:	e8 3f 6e ff ff       	callq  96f3 <transparent_crc>
   128b4:	8b 05 7e a4 00 00    	mov    0xa47e(%rip),%eax        # 1cd38 <g_1168>
   128ba:	48 98                	cltq   
   128bc:	8b 55 fc             	mov    -0x4(%rbp),%edx
   128bf:	48 8d 35 56 31 00 00 	lea    0x3156(%rip),%rsi        # 15a1c <g_1477+0x1294>
   128c6:	48 89 c7             	mov    %rax,%rdi
   128c9:	e8 25 6e ff ff       	callq  96f3 <transparent_crc>
   128ce:	8b 05 64 a4 00 00    	mov    0xa464(%rip),%eax        # 1cd38 <g_1168>
   128d4:	89 c1                	mov    %eax,%ecx
   128d6:	8b 45 fc             	mov    -0x4(%rbp),%eax
   128d9:	89 c2                	mov    %eax,%edx
   128db:	48 8d 35 44 31 00 00 	lea    0x3144(%rip),%rsi        # 15a26 <g_1477+0x129e>
   128e2:	48 89 cf             	mov    %rcx,%rdi
   128e5:	e8 09 6e ff ff       	callq  96f3 <transparent_crc>
   128ea:	8b 05 48 a4 00 00    	mov    0xa448(%rip),%eax        # 1cd38 <g_1168>
   128f0:	48 98                	cltq   
   128f2:	8b 55 fc             	mov    -0x4(%rbp),%edx
   128f5:	48 8d 35 34 31 00 00 	lea    0x3134(%rip),%rsi        # 15a30 <g_1477+0x12a8>
   128fc:	48 89 c7             	mov    %rax,%rdi
   128ff:	e8 ef 6d ff ff       	callq  96f3 <transparent_crc>
   12904:	8b 05 6a 6a 00 00    	mov    0x6a6a(%rip),%eax        # 19374 <g_1192>
   1290a:	48 98                	cltq   
   1290c:	8b 55 fc             	mov    -0x4(%rbp),%edx
   1290f:	48 8d 35 24 31 00 00 	lea    0x3124(%rip),%rsi        # 15a3a <g_1477+0x12b2>
   12916:	48 89 c7             	mov    %rax,%rdi
   12919:	e8 d5 6d ff ff       	callq  96f3 <transparent_crc>
   1291e:	8b 05 50 6a 00 00    	mov    0x6a50(%rip),%eax        # 19374 <g_1192>
   12924:	89 c1                	mov    %eax,%ecx
   12926:	8b 45 fc             	mov    -0x4(%rbp),%eax
   12929:	89 c2                	mov    %eax,%edx
   1292b:	48 8d 35 12 31 00 00 	lea    0x3112(%rip),%rsi        # 15a44 <g_1477+0x12bc>
   12932:	48 89 cf             	mov    %rcx,%rdi
   12935:	e8 b9 6d ff ff       	callq  96f3 <transparent_crc>
   1293a:	8b 05 34 6a 00 00    	mov    0x6a34(%rip),%eax        # 19374 <g_1192>
   12940:	48 98                	cltq   
   12942:	8b 55 fc             	mov    -0x4(%rbp),%edx
   12945:	48 8d 35 02 31 00 00 	lea    0x3102(%rip),%rsi        # 15a4e <g_1477+0x12c6>
   1294c:	48 89 c7             	mov    %rax,%rdi
   1294f:	e8 9f 6d ff ff       	callq  96f3 <transparent_crc>
   12954:	c7 45 f0 00 00 00 00 	movl   $0x0,-0x10(%rbp)
   1295b:	e9 78 01 00 00       	jmpq   12ad8 <main+0xfd3>
   12960:	c7 45 f4 00 00 00 00 	movl   $0x0,-0xc(%rbp)
   12967:	e9 5e 01 00 00       	jmpq   12aca <main+0xfc5>
   1296c:	c7 45 f8 00 00 00 00 	movl   $0x0,-0x8(%rbp)
   12973:	e9 44 01 00 00       	jmpq   12abc <main+0xfb7>
   12978:	8b 45 f8             	mov    -0x8(%rbp),%eax
   1297b:	48 63 f0             	movslq %eax,%rsi
   1297e:	8b 45 f0             	mov    -0x10(%rbp),%eax
   12981:	48 98                	cltq   
   12983:	8b 55 f4             	mov    -0xc(%rbp),%edx
   12986:	48 63 ca             	movslq %edx,%rcx
   12989:	48 89 c2             	mov    %rax,%rdx
   1298c:	48 01 d2             	add    %rdx,%rdx
   1298f:	48 01 c2             	add    %rax,%rdx
   12992:	48 8d 04 d5 00 00 00 	lea    0x0(,%rdx,8),%rax
   12999:	00 
   1299a:	48 89 c2             	mov    %rax,%rdx
   1299d:	48 89 c8             	mov    %rcx,%rax
   129a0:	48 01 c0             	add    %rax,%rax
   129a3:	48 01 c8             	add    %rcx,%rax
   129a6:	48 01 c0             	add    %rax,%rax
   129a9:	48 01 d0             	add    %rdx,%rax
   129ac:	48 01 f0             	add    %rsi,%rax
   129af:	48 8d 14 c5 00 00 00 	lea    0x0(,%rax,8),%rdx
   129b6:	00 
   129b7:	48 8d 05 c2 69 00 00 	lea    0x69c2(%rip),%rax        # 19380 <g_1254>
   129be:	0f b7 04 02          	movzwl (%rdx,%rax,1),%eax
   129c2:	0f b7 c0             	movzwl %ax,%eax
   129c5:	8b 55 fc             	mov    -0x4(%rbp),%edx
   129c8:	48 8d 35 89 30 00 00 	lea    0x3089(%rip),%rsi        # 15a58 <g_1477+0x12d0>
   129cf:	48 89 c7             	mov    %rax,%rdi
   129d2:	e8 1c 6d ff ff       	callq  96f3 <transparent_crc>
   129d7:	8b 45 f8             	mov    -0x8(%rbp),%eax
   129da:	48 63 f0             	movslq %eax,%rsi
   129dd:	8b 45 f0             	mov    -0x10(%rbp),%eax
   129e0:	48 98                	cltq   
   129e2:	8b 55 f4             	mov    -0xc(%rbp),%edx
   129e5:	48 63 ca             	movslq %edx,%rcx
   129e8:	48 89 c2             	mov    %rax,%rdx
   129eb:	48 01 d2             	add    %rdx,%rdx
   129ee:	48 01 c2             	add    %rax,%rdx
   129f1:	48 8d 04 d5 00 00 00 	lea    0x0(,%rdx,8),%rax
   129f8:	00 
   129f9:	48 89 c2             	mov    %rax,%rdx
   129fc:	48 89 c8             	mov    %rcx,%rax
   129ff:	48 01 c0             	add    %rax,%rax
   12a02:	48 01 c8             	add    %rcx,%rax
   12a05:	48 01 c0             	add    %rax,%rax
   12a08:	48 01 d0             	add    %rdx,%rax
   12a0b:	48 01 f0             	add    %rsi,%rax
   12a0e:	48 8d 14 c5 00 00 00 	lea    0x0(,%rax,8),%rdx
   12a15:	00 
   12a16:	48 8d 05 63 69 00 00 	lea    0x6963(%rip),%rax        # 19380 <g_1254>
   12a1d:	0f b6 04 02          	movzbl (%rdx,%rax,1),%eax
   12a21:	0f b6 c0             	movzbl %al,%eax
   12a24:	8b 55 fc             	mov    -0x4(%rbp),%edx
   12a27:	48 8d 35 3d 30 00 00 	lea    0x303d(%rip),%rsi        # 15a6b <g_1477+0x12e3>
   12a2e:	48 89 c7             	mov    %rax,%rdi
   12a31:	e8 bd 6c ff ff       	callq  96f3 <transparent_crc>
   12a36:	8b 45 f8             	mov    -0x8(%rbp),%eax
   12a39:	48 63 f0             	movslq %eax,%rsi
   12a3c:	8b 45 f0             	mov    -0x10(%rbp),%eax
   12a3f:	48 98                	cltq   
   12a41:	8b 55 f4             	mov    -0xc(%rbp),%edx
   12a44:	48 63 ca             	movslq %edx,%rcx
   12a47:	48 89 c2             	mov    %rax,%rdx
   12a4a:	48 01 d2             	add    %rdx,%rdx
   12a4d:	48 01 c2             	add    %rax,%rdx
   12a50:	48 8d 04 d5 00 00 00 	lea    0x0(,%rdx,8),%rax
   12a57:	00 
   12a58:	48 89 c2             	mov    %rax,%rdx
   12a5b:	48 89 c8             	mov    %rcx,%rax
   12a5e:	48 01 c0             	add    %rax,%rax
   12a61:	48 01 c8             	add    %rcx,%rax
   12a64:	48 01 c0             	add    %rax,%rax
   12a67:	48 01 d0             	add    %rdx,%rax
   12a6a:	48 01 f0             	add    %rsi,%rax
   12a6d:	48 8d 14 c5 00 00 00 	lea    0x0(,%rax,8),%rdx
   12a74:	00 
   12a75:	48 8d 05 04 69 00 00 	lea    0x6904(%rip),%rax        # 19380 <g_1254>
   12a7c:	0f b6 04 02          	movzbl (%rdx,%rax,1),%eax
   12a80:	48 0f be c0          	movsbq %al,%rax
   12a84:	8b 55 fc             	mov    -0x4(%rbp),%edx
   12a87:	48 8d 35 f0 2f 00 00 	lea    0x2ff0(%rip),%rsi        # 15a7e <g_1477+0x12f6>
   12a8e:	48 89 c7             	mov    %rax,%rdi
   12a91:	e8 5d 6c ff ff       	callq  96f3 <transparent_crc>
   12a96:	83 7d fc 00          	cmpl   $0x0,-0x4(%rbp)
   12a9a:	74 1c                	je     12ab8 <main+0xfb3>
   12a9c:	8b 4d f8             	mov    -0x8(%rbp),%ecx
   12a9f:	8b 55 f4             	mov    -0xc(%rbp),%edx
   12aa2:	8b 45 f0             	mov    -0x10(%rbp),%eax
   12aa5:	89 c6                	mov    %eax,%esi
   12aa7:	48 8d 3d 37 2d 00 00 	lea    0x2d37(%rip),%rdi        # 157e5 <g_1477+0x105d>
   12aae:	b8 00 00 00 00       	mov    $0x0,%eax
   12ab3:	e8 c8 55 ff ff       	callq  8080 <printf@plt>
   12ab8:	83 45 f8 01          	addl   $0x1,-0x8(%rbp)
   12abc:	83 7d f8 05          	cmpl   $0x5,-0x8(%rbp)
   12ac0:	0f 8e b2 fe ff ff    	jle    12978 <main+0xe73>
   12ac6:	83 45 f4 01          	addl   $0x1,-0xc(%rbp)
   12aca:	83 7d f4 03          	cmpl   $0x3,-0xc(%rbp)
   12ace:	0f 8e 98 fe ff ff    	jle    1296c <main+0xe67>
   12ad4:	83 45 f0 01          	addl   $0x1,-0x10(%rbp)
   12ad8:	83 7d f0 04          	cmpl   $0x4,-0x10(%rbp)
   12adc:	0f 8e 7e fe ff ff    	jle    12960 <main+0xe5b>
   12ae2:	c7 45 f0 00 00 00 00 	movl   $0x0,-0x10(%rbp)
   12ae9:	eb 46                	jmp    12b31 <main+0x102c>
   12aeb:	8b 45 f0             	mov    -0x10(%rbp),%eax
   12aee:	48 98                	cltq   
   12af0:	48 8d 15 49 6c 00 00 	lea    0x6c49(%rip),%rdx        # 19740 <g_1257>
   12af7:	0f b6 04 10          	movzbl (%rax,%rdx,1),%eax
   12afb:	48 0f be c0          	movsbq %al,%rax
   12aff:	8b 55 fc             	mov    -0x4(%rbp),%edx
   12b02:	48 8d 35 88 2f 00 00 	lea    0x2f88(%rip),%rsi        # 15a91 <g_1477+0x1309>
   12b09:	48 89 c7             	mov    %rax,%rdi
   12b0c:	e8 e2 6b ff ff       	callq  96f3 <transparent_crc>
   12b11:	83 7d fc 00          	cmpl   $0x0,-0x4(%rbp)
   12b15:	74 16                	je     12b2d <main+0x1028>
   12b17:	8b 45 f0             	mov    -0x10(%rbp),%eax
   12b1a:	89 c6                	mov    %eax,%esi
   12b1c:	48 8d 3d cf 2b 00 00 	lea    0x2bcf(%rip),%rdi        # 156f2 <g_1477+0xf6a>
   12b23:	b8 00 00 00 00       	mov    $0x0,%eax
   12b28:	e8 53 55 ff ff       	callq  8080 <printf@plt>
   12b2d:	83 45 f0 01          	addl   $0x1,-0x10(%rbp)
   12b31:	83 7d f0 08          	cmpl   $0x8,-0x10(%rbp)
   12b35:	7e b4                	jle    12aeb <main+0xfe6>
   12b37:	0f b7 05 12 6c 00 00 	movzwl 0x6c12(%rip),%eax        # 19750 <g_1282>
   12b3e:	48 0f bf c0          	movswq %ax,%rax
   12b42:	8b 55 fc             	mov    -0x4(%rbp),%edx
   12b45:	48 8d 35 4f 2f 00 00 	lea    0x2f4f(%rip),%rsi        # 15a9b <g_1477+0x1313>
   12b4c:	48 89 c7             	mov    %rax,%rdi
   12b4f:	e8 9f 6b ff ff       	callq  96f3 <transparent_crc>
   12b54:	8b 05 fe 6b 00 00    	mov    0x6bfe(%rip),%eax        # 19758 <g_1315>
   12b5a:	89 c1                	mov    %eax,%ecx
   12b5c:	8b 45 fc             	mov    -0x4(%rbp),%eax
   12b5f:	89 c2                	mov    %eax,%edx
   12b61:	48 8d 35 3d 2f 00 00 	lea    0x2f3d(%rip),%rsi        # 15aa5 <g_1477+0x131d>
   12b68:	48 89 cf             	mov    %rcx,%rdi
   12b6b:	e8 83 6b ff ff       	callq  96f3 <transparent_crc>
   12b70:	8b 05 c6 a1 00 00    	mov    0xa1c6(%rip),%eax        # 1cd3c <g_1316>
   12b76:	48 98                	cltq   
   12b78:	8b 55 fc             	mov    -0x4(%rbp),%edx
   12b7b:	48 8d 35 2a 2f 00 00 	lea    0x2f2a(%rip),%rsi        # 15aac <g_1477+0x1324>
   12b82:	48 89 c7             	mov    %rax,%rdi
   12b85:	e8 69 6b ff ff       	callq  96f3 <transparent_crc>
   12b8a:	8b 05 ac a1 00 00    	mov    0xa1ac(%rip),%eax        # 1cd3c <g_1316>
   12b90:	89 c1                	mov    %eax,%ecx
   12b92:	8b 45 fc             	mov    -0x4(%rbp),%eax
   12b95:	89 c2                	mov    %eax,%edx
   12b97:	48 8d 35 18 2f 00 00 	lea    0x2f18(%rip),%rsi        # 15ab6 <g_1477+0x132e>
   12b9e:	48 89 cf             	mov    %rcx,%rdi
   12ba1:	e8 4d 6b ff ff       	callq  96f3 <transparent_crc>
   12ba6:	0f b7 05 8f a1 00 00 	movzwl 0xa18f(%rip),%eax        # 1cd3c <g_1316>
   12bad:	0f b7 c0             	movzwl %ax,%eax
   12bb0:	8b 55 fc             	mov    -0x4(%rbp),%edx
   12bb3:	48 8d 35 06 2f 00 00 	lea    0x2f06(%rip),%rsi        # 15ac0 <g_1477+0x1338>
   12bba:	48 89 c7             	mov    %rax,%rdi
   12bbd:	e8 31 6b ff ff       	callq  96f3 <transparent_crc>
   12bc2:	8b 05 74 a1 00 00    	mov    0xa174(%rip),%eax        # 1cd3c <g_1316>
   12bc8:	25 ff ff 07 00       	and    $0x7ffff,%eax
   12bcd:	89 c1                	mov    %eax,%ecx
   12bcf:	8b 45 fc             	mov    -0x4(%rbp),%eax
   12bd2:	89 c2                	mov    %eax,%edx
   12bd4:	48 8d 35 ef 2e 00 00 	lea    0x2eef(%rip),%rsi        # 15aca <g_1477+0x1342>
   12bdb:	48 89 cf             	mov    %rcx,%rdi
   12bde:	e8 10 6b ff ff       	callq  96f3 <transparent_crc>
   12be3:	8b 05 53 a1 00 00    	mov    0xa153(%rip),%eax        # 1cd3c <g_1316>
   12be9:	89 c1                	mov    %eax,%ecx
   12beb:	8b 45 fc             	mov    -0x4(%rbp),%eax
   12bee:	89 c2                	mov    %eax,%edx
   12bf0:	48 8d 35 dd 2e 00 00 	lea    0x2edd(%rip),%rsi        # 15ad4 <g_1477+0x134c>
   12bf7:	48 89 cf             	mov    %rcx,%rdi
   12bfa:	e8 f4 6a ff ff       	callq  96f3 <transparent_crc>
   12bff:	8b 05 57 6b 00 00    	mov    0x6b57(%rip),%eax        # 1975c <g_1344>
   12c05:	48 98                	cltq   
   12c07:	8b 55 fc             	mov    -0x4(%rbp),%edx
   12c0a:	48 8d 35 cd 2e 00 00 	lea    0x2ecd(%rip),%rsi        # 15ade <g_1477+0x1356>
   12c11:	48 89 c7             	mov    %rax,%rdi
   12c14:	e8 da 6a ff ff       	callq  96f3 <transparent_crc>
   12c19:	0f b7 05 40 6b 00 00 	movzwl 0x6b40(%rip),%eax        # 19760 <g_1353>
   12c20:	48 0f bf c0          	movswq %ax,%rax
   12c24:	8b 55 fc             	mov    -0x4(%rbp),%edx
   12c27:	48 8d 35 b7 2e 00 00 	lea    0x2eb7(%rip),%rsi        # 15ae5 <g_1477+0x135d>
   12c2e:	48 89 c7             	mov    %rax,%rdi
   12c31:	e8 bd 6a ff ff       	callq  96f3 <transparent_crc>
   12c36:	8b 05 2c 6b 00 00    	mov    0x6b2c(%rip),%eax        # 19768 <g_1354>
   12c3c:	48 98                	cltq   
   12c3e:	8b 55 fc             	mov    -0x4(%rbp),%edx
   12c41:	48 8d 35 a7 2e 00 00 	lea    0x2ea7(%rip),%rsi        # 15aef <g_1477+0x1367>
   12c48:	48 89 c7             	mov    %rax,%rdi
   12c4b:	e8 a3 6a ff ff       	callq  96f3 <transparent_crc>
   12c50:	8b 05 12 6b 00 00    	mov    0x6b12(%rip),%eax        # 19768 <g_1354>
   12c56:	89 c1                	mov    %eax,%ecx
   12c58:	8b 45 fc             	mov    -0x4(%rbp),%eax
   12c5b:	89 c2                	mov    %eax,%edx
   12c5d:	48 8d 35 95 2e 00 00 	lea    0x2e95(%rip),%rsi        # 15af9 <g_1477+0x1371>
   12c64:	48 89 cf             	mov    %rcx,%rdi
   12c67:	e8 87 6a ff ff       	callq  96f3 <transparent_crc>
   12c6c:	0f b7 05 f5 6a 00 00 	movzwl 0x6af5(%rip),%eax        # 19768 <g_1354>
   12c73:	0f b7 c0             	movzwl %ax,%eax
   12c76:	8b 55 fc             	mov    -0x4(%rbp),%edx
   12c79:	48 8d 35 83 2e 00 00 	lea    0x2e83(%rip),%rsi        # 15b03 <g_1477+0x137b>
   12c80:	48 89 c7             	mov    %rax,%rdi
   12c83:	e8 6b 6a ff ff       	callq  96f3 <transparent_crc>
   12c88:	8b 05 da 6a 00 00    	mov    0x6ada(%rip),%eax        # 19768 <g_1354>
   12c8e:	25 ff ff 07 00       	and    $0x7ffff,%eax
   12c93:	89 c1                	mov    %eax,%ecx
   12c95:	8b 45 fc             	mov    -0x4(%rbp),%eax
   12c98:	89 c2                	mov    %eax,%edx
   12c9a:	48 8d 35 6c 2e 00 00 	lea    0x2e6c(%rip),%rsi        # 15b0d <g_1477+0x1385>
   12ca1:	48 89 cf             	mov    %rcx,%rdi
   12ca4:	e8 4a 6a ff ff       	callq  96f3 <transparent_crc>
   12ca9:	8b 05 b9 6a 00 00    	mov    0x6ab9(%rip),%eax        # 19768 <g_1354>
   12caf:	89 c1                	mov    %eax,%ecx
   12cb1:	8b 45 fc             	mov    -0x4(%rbp),%eax
   12cb4:	89 c2                	mov    %eax,%edx
   12cb6:	48 8d 35 5a 2e 00 00 	lea    0x2e5a(%rip),%rsi        # 15b17 <g_1477+0x138f>
   12cbd:	48 89 cf             	mov    %rcx,%rdi
   12cc0:	e8 2e 6a ff ff       	callq  96f3 <transparent_crc>
   12cc5:	0f b6 05 74 a0 00 00 	movzbl 0xa074(%rip),%eax        # 1cd40 <g_1377>
   12ccc:	0f b6 c0             	movzbl %al,%eax
   12ccf:	8b 55 fc             	mov    -0x4(%rbp),%edx
   12cd2:	48 8d 35 48 2e 00 00 	lea    0x2e48(%rip),%rsi        # 15b21 <g_1477+0x1399>
   12cd9:	48 89 c7             	mov    %rax,%rdi
   12cdc:	e8 12 6a ff ff       	callq  96f3 <transparent_crc>
   12ce1:	0f b6 05 88 6a 00 00 	movzbl 0x6a88(%rip),%eax        # 19770 <g_1389>
   12ce8:	0f b6 c0             	movzbl %al,%eax
   12ceb:	8b 55 fc             	mov    -0x4(%rbp),%edx
   12cee:	48 8d 35 36 2e 00 00 	lea    0x2e36(%rip),%rsi        # 15b2b <g_1477+0x13a3>
   12cf5:	48 89 c7             	mov    %rax,%rdi
   12cf8:	e8 f6 69 ff ff       	callq  96f3 <transparent_crc>
   12cfd:	0f b7 05 74 6a 00 00 	movzwl 0x6a74(%rip),%eax        # 19778 <g_1473>
   12d04:	48 0f bf c0          	movswq %ax,%rax
   12d08:	8b 55 fc             	mov    -0x4(%rbp),%edx
   12d0b:	48 8d 35 23 2e 00 00 	lea    0x2e23(%rip),%rsi        # 15b35 <g_1477+0x13ad>
   12d12:	48 89 c7             	mov    %rax,%rdi
   12d15:	e8 d9 69 ff ff       	callq  96f3 <transparent_crc>
   12d1a:	0f b6 05 67 1a 00 00 	movzbl 0x1a67(%rip),%eax        # 14788 <g_1477>
   12d21:	0f b6 c0             	movzbl %al,%eax
   12d24:	8b 55 fc             	mov    -0x4(%rbp),%edx
   12d27:	48 8d 35 0e 2e 00 00 	lea    0x2e0e(%rip),%rsi        # 15b3c <g_1477+0x13b4>
   12d2e:	48 89 c7             	mov    %rax,%rdi
   12d31:	e8 bd 69 ff ff       	callq  96f3 <transparent_crc>
   12d36:	48 8b 05 43 6a 00 00 	mov    0x6a43(%rip),%rax        # 19780 <g_1488>
   12d3d:	48 89 c1             	mov    %rax,%rcx
   12d40:	8b 45 fc             	mov    -0x4(%rbp),%eax
   12d43:	89 c2                	mov    %eax,%edx
   12d45:	48 8d 35 fa 2d 00 00 	lea    0x2dfa(%rip),%rsi        # 15b46 <g_1477+0x13be>
   12d4c:	48 89 cf             	mov    %rcx,%rdi
   12d4f:	e8 9f 69 ff ff       	callq  96f3 <transparent_crc>
   12d54:	8b 05 2e 6a 00 00    	mov    0x6a2e(%rip),%eax        # 19788 <g_1511>
   12d5a:	48 98                	cltq   
   12d5c:	8b 55 fc             	mov    -0x4(%rbp),%edx
   12d5f:	48 8d 35 e7 2d 00 00 	lea    0x2de7(%rip),%rsi        # 15b4d <g_1477+0x13c5>
   12d66:	48 89 c7             	mov    %rax,%rdi
   12d69:	e8 85 69 ff ff       	callq  96f3 <transparent_crc>
   12d6e:	8b 05 18 6a 00 00    	mov    0x6a18(%rip),%eax        # 1978c <g_1522>
   12d74:	48 98                	cltq   
   12d76:	8b 55 fc             	mov    -0x4(%rbp),%edx
   12d79:	48 8d 35 d4 2d 00 00 	lea    0x2dd4(%rip),%rsi        # 15b54 <g_1477+0x13cc>
   12d80:	48 89 c7             	mov    %rax,%rdi
   12d83:	e8 6b 69 ff ff       	callq  96f3 <transparent_crc>
   12d88:	8b 05 fe 69 00 00    	mov    0x69fe(%rip),%eax        # 1978c <g_1522>
   12d8e:	89 c1                	mov    %eax,%ecx
   12d90:	8b 45 fc             	mov    -0x4(%rbp),%eax
   12d93:	89 c2                	mov    %eax,%edx
   12d95:	48 8d 35 c2 2d 00 00 	lea    0x2dc2(%rip),%rsi        # 15b5e <g_1477+0x13d6>
   12d9c:	48 89 cf             	mov    %rcx,%rdi
   12d9f:	e8 4f 69 ff ff       	callq  96f3 <transparent_crc>
   12da4:	0f b7 05 e1 69 00 00 	movzwl 0x69e1(%rip),%eax        # 1978c <g_1522>
   12dab:	0f b7 c0             	movzwl %ax,%eax
   12dae:	8b 55 fc             	mov    -0x4(%rbp),%edx
   12db1:	48 8d 35 b0 2d 00 00 	lea    0x2db0(%rip),%rsi        # 15b68 <g_1477+0x13e0>
   12db8:	48 89 c7             	mov    %rax,%rdi
   12dbb:	e8 33 69 ff ff       	callq  96f3 <transparent_crc>
   12dc0:	8b 05 c6 69 00 00    	mov    0x69c6(%rip),%eax        # 1978c <g_1522>
   12dc6:	25 ff ff 07 00       	and    $0x7ffff,%eax
   12dcb:	89 c1                	mov    %eax,%ecx
   12dcd:	8b 45 fc             	mov    -0x4(%rbp),%eax
   12dd0:	89 c2                	mov    %eax,%edx
   12dd2:	48 8d 35 99 2d 00 00 	lea    0x2d99(%rip),%rsi        # 15b72 <g_1477+0x13ea>
   12dd9:	48 89 cf             	mov    %rcx,%rdi
   12ddc:	e8 12 69 ff ff       	callq  96f3 <transparent_crc>
   12de1:	8b 05 a5 69 00 00    	mov    0x69a5(%rip),%eax        # 1978c <g_1522>
   12de7:	89 c1                	mov    %eax,%ecx
   12de9:	8b 45 fc             	mov    -0x4(%rbp),%eax
   12dec:	89 c2                	mov    %eax,%edx
   12dee:	48 8d 35 87 2d 00 00 	lea    0x2d87(%rip),%rsi        # 15b7c <g_1477+0x13f4>
   12df5:	48 89 cf             	mov    %rcx,%rdi
   12df8:	e8 f6 68 ff ff       	callq  96f3 <transparent_crc>
   12dfd:	c7 45 f0 00 00 00 00 	movl   $0x0,-0x10(%rbp)
   12e04:	eb 4a                	jmp    12e50 <main+0x134b>
   12e06:	8b 45 f0             	mov    -0x10(%rbp),%eax
   12e09:	48 98                	cltq   
   12e0b:	48 8d 14 c5 00 00 00 	lea    0x0(,%rax,8),%rdx
   12e12:	00 
   12e13:	48 8d 05 86 69 00 00 	lea    0x6986(%rip),%rax        # 197a0 <g_1531>
   12e1a:	48 8b 04 02          	mov    (%rdx,%rax,1),%rax
   12e1e:	8b 55 fc             	mov    -0x4(%rbp),%edx
   12e21:	48 8d 35 5e 2d 00 00 	lea    0x2d5e(%rip),%rsi        # 15b86 <g_1477+0x13fe>
   12e28:	48 89 c7             	mov    %rax,%rdi
   12e2b:	e8 c3 68 ff ff       	callq  96f3 <transparent_crc>
   12e30:	83 7d fc 00          	cmpl   $0x0,-0x4(%rbp)
   12e34:	74 16                	je     12e4c <main+0x1347>
   12e36:	8b 45 f0             	mov    -0x10(%rbp),%eax
   12e39:	89 c6                	mov    %eax,%esi
   12e3b:	48 8d 3d b0 28 00 00 	lea    0x28b0(%rip),%rdi        # 156f2 <g_1477+0xf6a>
   12e42:	b8 00 00 00 00       	mov    $0x0,%eax
   12e47:	e8 34 52 ff ff       	callq  8080 <printf@plt>
   12e4c:	83 45 f0 01          	addl   $0x1,-0x10(%rbp)
   12e50:	83 7d f0 07          	cmpl   $0x7,-0x10(%rbp)
   12e54:	7e b0                	jle    12e06 <main+0x1301>
   12e56:	8b 05 84 69 00 00    	mov    0x6984(%rip),%eax        # 197e0 <g_1534>
   12e5c:	48 98                	cltq   
   12e5e:	8b 55 fc             	mov    -0x4(%rbp),%edx
   12e61:	48 8d 35 28 2d 00 00 	lea    0x2d28(%rip),%rsi        # 15b90 <g_1477+0x1408>
   12e68:	48 89 c7             	mov    %rax,%rdi
   12e6b:	e8 83 68 ff ff       	callq  96f3 <transparent_crc>
   12e70:	8b 05 6a 69 00 00    	mov    0x696a(%rip),%eax        # 197e0 <g_1534>
   12e76:	89 c1                	mov    %eax,%ecx
   12e78:	8b 45 fc             	mov    -0x4(%rbp),%eax
   12e7b:	89 c2                	mov    %eax,%edx
   12e7d:	48 8d 35 16 2d 00 00 	lea    0x2d16(%rip),%rsi        # 15b9a <g_1477+0x1412>
   12e84:	48 89 cf             	mov    %rcx,%rdi
   12e87:	e8 67 68 ff ff       	callq  96f3 <transparent_crc>
   12e8c:	8b 05 4e 69 00 00    	mov    0x694e(%rip),%eax        # 197e0 <g_1534>
   12e92:	48 98                	cltq   
   12e94:	8b 55 fc             	mov    -0x4(%rbp),%edx
   12e97:	48 8d 35 06 2d 00 00 	lea    0x2d06(%rip),%rsi        # 15ba4 <g_1477+0x141c>
   12e9e:	48 89 c7             	mov    %rax,%rdi
   12ea1:	e8 4d 68 ff ff       	callq  96f3 <transparent_crc>
   12ea6:	8b 05 38 69 00 00    	mov    0x6938(%rip),%eax        # 197e4 <g_1545>
   12eac:	48 98                	cltq   
   12eae:	8b 55 fc             	mov    -0x4(%rbp),%edx
   12eb1:	48 8d 35 f6 2c 00 00 	lea    0x2cf6(%rip),%rsi        # 15bae <g_1477+0x1426>
   12eb8:	48 89 c7             	mov    %rax,%rdi
   12ebb:	e8 33 68 ff ff       	callq  96f3 <transparent_crc>
   12ec0:	8b 05 1e 69 00 00    	mov    0x691e(%rip),%eax        # 197e4 <g_1545>
   12ec6:	89 c1                	mov    %eax,%ecx
   12ec8:	8b 45 fc             	mov    -0x4(%rbp),%eax
   12ecb:	89 c2                	mov    %eax,%edx
   12ecd:	48 8d 35 e4 2c 00 00 	lea    0x2ce4(%rip),%rsi        # 15bb8 <g_1477+0x1430>
   12ed4:	48 89 cf             	mov    %rcx,%rdi
   12ed7:	e8 17 68 ff ff       	callq  96f3 <transparent_crc>
   12edc:	8b 05 02 69 00 00    	mov    0x6902(%rip),%eax        # 197e4 <g_1545>
   12ee2:	48 98                	cltq   
   12ee4:	8b 55 fc             	mov    -0x4(%rbp),%edx
   12ee7:	48 8d 35 d4 2c 00 00 	lea    0x2cd4(%rip),%rsi        # 15bc2 <g_1477+0x143a>
   12eee:	48 89 c7             	mov    %rax,%rdi
   12ef1:	e8 fd 67 ff ff       	callq  96f3 <transparent_crc>
   12ef6:	0f b7 05 eb 68 00 00 	movzwl 0x68eb(%rip),%eax        # 197e8 <g_1546>
   12efd:	48 0f bf c0          	movswq %ax,%rax
   12f01:	8b 55 fc             	mov    -0x4(%rbp),%edx
   12f04:	48 8d 35 c1 2c 00 00 	lea    0x2cc1(%rip),%rsi        # 15bcc <g_1477+0x1444>
   12f0b:	48 89 c7             	mov    %rax,%rdi
   12f0e:	e8 e0 67 ff ff       	callq  96f3 <transparent_crc>
   12f13:	48 8b 05 d6 68 00 00 	mov    0x68d6(%rip),%rax        # 197f0 <g_1584>
   12f1a:	8b 55 fc             	mov    -0x4(%rbp),%edx
   12f1d:	48 8d 35 af 2c 00 00 	lea    0x2caf(%rip),%rsi        # 15bd3 <g_1477+0x144b>
   12f24:	48 89 c7             	mov    %rax,%rdi
   12f27:	e8 c7 67 ff ff       	callq  96f3 <transparent_crc>
   12f2c:	0f b6 05 c5 68 00 00 	movzbl 0x68c5(%rip),%eax        # 197f8 <g_1631>
   12f33:	48 0f be c0          	movsbq %al,%rax
   12f37:	8b 55 fc             	mov    -0x4(%rbp),%edx
   12f3a:	48 8d 35 9c 2c 00 00 	lea    0x2c9c(%rip),%rsi        # 15bdd <g_1477+0x1455>
   12f41:	48 89 c7             	mov    %rax,%rdi
   12f44:	e8 aa 67 ff ff       	callq  96f3 <transparent_crc>
   12f49:	0f b7 05 00 9e 00 00 	movzwl 0x9e00(%rip),%eax        # 1cd50 <g_1634>
   12f50:	0f b7 c0             	movzwl %ax,%eax
   12f53:	8b 55 fc             	mov    -0x4(%rbp),%edx
   12f56:	48 8d 35 8a 2c 00 00 	lea    0x2c8a(%rip),%rsi        # 15be7 <g_1477+0x145f>
   12f5d:	48 89 c7             	mov    %rax,%rdi
   12f60:	e8 8e 67 ff ff       	callq  96f3 <transparent_crc>
   12f65:	0f b6 05 e4 9d 00 00 	movzbl 0x9de4(%rip),%eax        # 1cd50 <g_1634>
   12f6c:	0f b6 c0             	movzbl %al,%eax
   12f6f:	8b 55 fc             	mov    -0x4(%rbp),%edx
   12f72:	48 8d 35 78 2c 00 00 	lea    0x2c78(%rip),%rsi        # 15bf1 <g_1477+0x1469>
   12f79:	48 89 c7             	mov    %rax,%rdi
   12f7c:	e8 72 67 ff ff       	callq  96f3 <transparent_crc>
   12f81:	0f b6 05 c8 9d 00 00 	movzbl 0x9dc8(%rip),%eax        # 1cd50 <g_1634>
   12f88:	48 0f be c0          	movsbq %al,%rax
   12f8c:	8b 55 fc             	mov    -0x4(%rbp),%edx
   12f8f:	48 8d 35 65 2c 00 00 	lea    0x2c65(%rip),%rsi        # 15bfb <g_1477+0x1473>
   12f96:	48 89 c7             	mov    %rax,%rdi
   12f99:	e8 55 67 ff ff       	callq  96f3 <transparent_crc>
   12f9e:	0f b7 05 5b 68 00 00 	movzwl 0x685b(%rip),%eax        # 19800 <g_1646>
   12fa5:	0f b7 c0             	movzwl %ax,%eax
   12fa8:	8b 55 fc             	mov    -0x4(%rbp),%edx
   12fab:	48 8d 35 53 2c 00 00 	lea    0x2c53(%rip),%rsi        # 15c05 <g_1477+0x147d>
   12fb2:	48 89 c7             	mov    %rax,%rdi
   12fb5:	e8 39 67 ff ff       	callq  96f3 <transparent_crc>
   12fba:	0f b6 05 3f 68 00 00 	movzbl 0x683f(%rip),%eax        # 19800 <g_1646>
   12fc1:	0f b6 c0             	movzbl %al,%eax
   12fc4:	8b 55 fc             	mov    -0x4(%rbp),%edx
   12fc7:	48 8d 35 41 2c 00 00 	lea    0x2c41(%rip),%rsi        # 15c0f <g_1477+0x1487>
   12fce:	48 89 c7             	mov    %rax,%rdi
   12fd1:	e8 1d 67 ff ff       	callq  96f3 <transparent_crc>
   12fd6:	0f b6 05 23 68 00 00 	movzbl 0x6823(%rip),%eax        # 19800 <g_1646>
   12fdd:	48 0f be c0          	movsbq %al,%rax
   12fe1:	8b 55 fc             	mov    -0x4(%rbp),%edx
   12fe4:	48 8d 35 2e 2c 00 00 	lea    0x2c2e(%rip),%rsi        # 15c19 <g_1477+0x1491>
   12feb:	48 89 c7             	mov    %rax,%rdi
   12fee:	e8 00 67 ff ff       	callq  96f3 <transparent_crc>
   12ff3:	8b 05 5f 9d 00 00    	mov    0x9d5f(%rip),%eax        # 1cd58 <g_1679>
   12ff9:	48 98                	cltq   
   12ffb:	8b 55 fc             	mov    -0x4(%rbp),%edx
   12ffe:	48 8d 35 1e 2c 00 00 	lea    0x2c1e(%rip),%rsi        # 15c23 <g_1477+0x149b>
   13005:	48 89 c7             	mov    %rax,%rdi
   13008:	e8 e6 66 ff ff       	callq  96f3 <transparent_crc>
   1300d:	8b 05 45 9d 00 00    	mov    0x9d45(%rip),%eax        # 1cd58 <g_1679>
   13013:	89 c1                	mov    %eax,%ecx
   13015:	8b 45 fc             	mov    -0x4(%rbp),%eax
   13018:	89 c2                	mov    %eax,%edx
   1301a:	48 8d 35 0c 2c 00 00 	lea    0x2c0c(%rip),%rsi        # 15c2d <g_1477+0x14a5>
   13021:	48 89 cf             	mov    %rcx,%rdi
   13024:	e8 ca 66 ff ff       	callq  96f3 <transparent_crc>
   13029:	8b 05 29 9d 00 00    	mov    0x9d29(%rip),%eax        # 1cd58 <g_1679>
   1302f:	48 98                	cltq   
   13031:	8b 55 fc             	mov    -0x4(%rbp),%edx
   13034:	48 8d 35 fc 2b 00 00 	lea    0x2bfc(%rip),%rsi        # 15c37 <g_1477+0x14af>
   1303b:	48 89 c7             	mov    %rax,%rdi
   1303e:	e8 b0 66 ff ff       	callq  96f3 <transparent_crc>
   13043:	8b 05 bf 67 00 00    	mov    0x67bf(%rip),%eax        # 19808 <g_1704>
   13049:	48 98                	cltq   
   1304b:	8b 55 fc             	mov    -0x4(%rbp),%edx
   1304e:	48 8d 35 ec 2b 00 00 	lea    0x2bec(%rip),%rsi        # 15c41 <g_1477+0x14b9>
   13055:	48 89 c7             	mov    %rax,%rdi
   13058:	e8 96 66 ff ff       	callq  96f3 <transparent_crc>
   1305d:	8b 05 a5 67 00 00    	mov    0x67a5(%rip),%eax        # 19808 <g_1704>
   13063:	89 c1                	mov    %eax,%ecx
   13065:	8b 45 fc             	mov    -0x4(%rbp),%eax
   13068:	89 c2                	mov    %eax,%edx
   1306a:	48 8d 35 da 2b 00 00 	lea    0x2bda(%rip),%rsi        # 15c4b <g_1477+0x14c3>
   13071:	48 89 cf             	mov    %rcx,%rdi
   13074:	e8 7a 66 ff ff       	callq  96f3 <transparent_crc>
   13079:	8b 05 89 67 00 00    	mov    0x6789(%rip),%eax        # 19808 <g_1704>
   1307f:	48 98                	cltq   
   13081:	8b 55 fc             	mov    -0x4(%rbp),%edx
   13084:	48 8d 35 ca 2b 00 00 	lea    0x2bca(%rip),%rsi        # 15c55 <g_1477+0x14cd>
   1308b:	48 89 c7             	mov    %rax,%rdi
   1308e:	e8 60 66 ff ff       	callq  96f3 <transparent_crc>
   13093:	8b 05 87 5f 00 00    	mov    0x5f87(%rip),%eax        # 19020 <crc32_context>
   13099:	f7 d0                	not    %eax
   1309b:	89 c2                	mov    %eax,%edx
   1309d:	8b 45 fc             	mov    -0x4(%rbp),%eax
   130a0:	89 c6                	mov    %eax,%esi
   130a2:	89 d7                	mov    %edx,%edi
   130a4:	e8 eb 50 ff ff       	callq  8194 <platform_main_end>
   130a9:	b8 00 00 00 00       	mov    $0x0,%eax
   130ae:	c9                   	leaveq 
   130af:	c3                   	retq   

00000000000130b0 <__libc_csu_init>:
   130b0:	f3 0f 1e fa          	endbr64 
   130b4:	41 57                	push   %r15
   130b6:	4c 8d 3d b3 5c 00 00 	lea    0x5cb3(%rip),%r15        # 18d70 <__frame_dummy_init_array_entry>
   130bd:	41 56                	push   %r14
   130bf:	49 89 d6             	mov    %rdx,%r14
   130c2:	41 55                	push   %r13
   130c4:	49 89 f5             	mov    %rsi,%r13
   130c7:	41 54                	push   %r12
   130c9:	41 89 fc             	mov    %edi,%r12d
   130cc:	55                   	push   %rbp
   130cd:	48 8d 2d a4 5c 00 00 	lea    0x5ca4(%rip),%rbp        # 18d78 <__do_global_dtors_aux_fini_array_entry>
   130d4:	53                   	push   %rbx
   130d5:	4c 29 fd             	sub    %r15,%rbp
   130d8:	48 83 ec 08          	sub    $0x8,%rsp
   130dc:	e8 1f 4f ff ff       	callq  8000 <_init>
   130e1:	48 c1 fd 03          	sar    $0x3,%rbp
   130e5:	74 1f                	je     13106 <__libc_csu_init+0x56>
   130e7:	31 db                	xor    %ebx,%ebx
   130e9:	0f 1f 80 00 00 00 00 	nopl   0x0(%rax)
   130f0:	4c 89 f2             	mov    %r14,%rdx
   130f3:	4c 89 ee             	mov    %r13,%rsi
   130f6:	44 89 e7             	mov    %r12d,%edi
   130f9:	41 ff 14 df          	callq  *(%r15,%rbx,8)
   130fd:	48 83 c3 01          	add    $0x1,%rbx
   13101:	48 39 dd             	cmp    %rbx,%rbp
   13104:	75 ea                	jne    130f0 <__libc_csu_init+0x40>
   13106:	48 83 c4 08          	add    $0x8,%rsp
   1310a:	5b                   	pop    %rbx
   1310b:	5d                   	pop    %rbp
   1310c:	41 5c                	pop    %r12
   1310e:	41 5d                	pop    %r13
   13110:	41 5e                	pop    %r14
   13112:	41 5f                	pop    %r15
   13114:	c3                   	retq   
   13115:	66 66 2e 0f 1f 84 00 	data16 nopw %cs:0x0(%rax,%rax,1)
   1311c:	00 00 00 00 

0000000000013120 <__libc_csu_fini>:
   13120:	f3 0f 1e fa          	endbr64 
   13124:	c3                   	retq   
