


Disassembly of section .text:

00000000000090a0 <_start>:
    90a0:	f3 0f 1e fa          	endbr64 
    90a4:	31 ed                	xor    %ebp,%ebp
    90a6:	49 89 d1             	mov    %rdx,%r9
    90a9:	5e                   	pop    %rsi
    90aa:	48 89 e2             	mov    %rsp,%rdx
    90ad:	48 83 e4 f0          	and    $0xfffffffffffffff0,%rsp
    90b1:	50                   	push   %rax
    90b2:	54                   	push   %rsp
    90b3:	4c 8d 05 f6 ce 00 00 	lea    0xcef6(%rip),%r8        # 15fb0 <__libc_csu_fini>
    90ba:	48 8d 0d 7f ce 00 00 	lea    0xce7f(%rip),%rcx        # 15f40 <__libc_csu_init>
    90c1:	48 8d 3d 4e c7 00 00 	lea    0xc74e(%rip),%rdi        # 15816 <main>
    90c8:	ff 15 12 0f 01 00    	callq  *0x10f12(%rip)        # 19fe0 <__libc_start_main@GLIBC_2.2.5>
    90ce:	f4                   	hlt    
    90cf:	90                   	nop

00000000000090d0 <deregister_tm_clones>:
    90d0:	48 8d 3d b1 46 01 00 	lea    0x146b1(%rip),%rdi        # 1d788 <__TMC_END__>
    90d7:	48 8d 05 aa 46 01 00 	lea    0x146aa(%rip),%rax        # 1d788 <__TMC_END__>
    90de:	48 39 f8             	cmp    %rdi,%rax
    90e1:	74 15                	je     90f8 <deregister_tm_clones+0x28>
    90e3:	48 8b 05 ee 0e 01 00 	mov    0x10eee(%rip),%rax        # 19fd8 <_ITM_deregisterTMCloneTable>
    90ea:	48 85 c0             	test   %rax,%rax
    90ed:	74 09                	je     90f8 <deregister_tm_clones+0x28>
    90ef:	ff e0                	jmpq   *%rax
    90f1:	0f 1f 80 00 00 00 00 	nopl   0x0(%rax)
    90f8:	c3                   	retq   
    90f9:	0f 1f 80 00 00 00 00 	nopl   0x0(%rax)

0000000000009100 <register_tm_clones>:
    9100:	48 8d 3d 81 46 01 00 	lea    0x14681(%rip),%rdi        # 1d788 <__TMC_END__>
    9107:	48 8d 35 7a 46 01 00 	lea    0x1467a(%rip),%rsi        # 1d788 <__TMC_END__>
    910e:	48 29 fe             	sub    %rdi,%rsi
    9111:	48 89 f0             	mov    %rsi,%rax
    9114:	48 c1 ee 3f          	shr    $0x3f,%rsi
    9118:	48 c1 f8 03          	sar    $0x3,%rax
    911c:	48 01 c6             	add    %rax,%rsi
    911f:	48 d1 fe             	sar    %rsi
    9122:	74 14                	je     9138 <register_tm_clones+0x38>
    9124:	48 8b 05 c5 0e 01 00 	mov    0x10ec5(%rip),%rax        # 19ff0 <_ITM_registerTMCloneTable>
    912b:	48 85 c0             	test   %rax,%rax
    912e:	74 08                	je     9138 <register_tm_clones+0x38>
    9130:	ff e0                	jmpq   *%rax
    9132:	66 0f 1f 44 00 00    	nopw   0x0(%rax,%rax,1)
    9138:	c3                   	retq   
    9139:	0f 1f 80 00 00 00 00 	nopl   0x0(%rax)

0000000000009140 <__do_global_dtors_aux>:
    9140:	f3 0f 1e fa          	endbr64 
    9144:	80 3d 55 46 01 00 00 	cmpb   $0x0,0x14655(%rip)        # 1d7a0 <completed.8061>
    914b:	75 2b                	jne    9178 <__do_global_dtors_aux+0x38>
    914d:	55                   	push   %rbp
    914e:	48 83 3d a2 0e 01 00 	cmpq   $0x0,0x10ea2(%rip)        # 19ff8 <__cxa_finalize@GLIBC_2.2.5>
    9155:	00 
    9156:	48 89 e5             	mov    %rsp,%rbp
    9159:	74 0c                	je     9167 <__do_global_dtors_aux+0x27>
    915b:	48 8b 3d a6 0e 01 00 	mov    0x10ea6(%rip),%rdi        # 1a008 <__dso_handle>
    9162:	e8 f9 fe ff ff       	callq  9060 <__cxa_finalize@plt>
    9167:	e8 64 ff ff ff       	callq  90d0 <deregister_tm_clones>
    916c:	c6 05 2d 46 01 00 01 	movb   $0x1,0x1462d(%rip)        # 1d7a0 <completed.8061>
    9173:	5d                   	pop    %rbp
    9174:	c3                   	retq   
    9175:	0f 1f 00             	nopl   (%rax)
    9178:	c3                   	retq   
    9179:	0f 1f 80 00 00 00 00 	nopl   0x0(%rax)

0000000000009180 <frame_dummy>:
    9180:	f3 0f 1e fa          	endbr64 
    9184:	e9 77 ff ff ff       	jmpq   9100 <register_tm_clones>

0000000000009189 <platform_main_begin>:
    9189:	f3 0f 1e fa          	endbr64 
    918d:	55                   	push   %rbp
    918e:	48 89 e5             	mov    %rsp,%rbp
    9191:	90                   	nop
    9192:	5d                   	pop    %rbp
    9193:	c3                   	retq   

0000000000009194 <platform_main_end>:
    9194:	f3 0f 1e fa          	endbr64 
    9198:	55                   	push   %rbp
    9199:	48 89 e5             	mov    %rsp,%rbp
    919c:	48 83 ec 10          	sub    $0x10,%rsp
    91a0:	89 7d fc             	mov    %edi,-0x4(%rbp)
    91a3:	89 75 f8             	mov    %esi,-0x8(%rbp)
    91a6:	8b 45 fc             	mov    -0x4(%rbp),%eax
    91a9:	89 c6                	mov    %eax,%esi
    91ab:	48 8d 3d 6e ce 00 00 	lea    0xce6e(%rip),%rdi        # 16020 <_IO_stdin_used+0x20>
    91b2:	b8 00 00 00 00       	mov    $0x0,%eax
    91b7:	e8 c4 fe ff ff       	callq  9080 <printf@plt>
    91bc:	90                   	nop
    91bd:	c9                   	leaveq 
    91be:	c3                   	retq   

00000000000091bf <safe_unary_minus_func_int8_t_s>:
    91bf:	f3 0f 1e fa          	endbr64 
    91c3:	55                   	push   %rbp
    91c4:	48 89 e5             	mov    %rsp,%rbp
    91c7:	89 f8                	mov    %edi,%eax
    91c9:	88 45 fc             	mov    %al,-0x4(%rbp)
    91cc:	0f b6 45 fc          	movzbl -0x4(%rbp),%eax
    91d0:	f7 d8                	neg    %eax
    91d2:	5d                   	pop    %rbp
    91d3:	c3                   	retq   

00000000000091d4 <safe_add_func_int8_t_s_s>:
    91d4:	f3 0f 1e fa          	endbr64 
    91d8:	55                   	push   %rbp
    91d9:	48 89 e5             	mov    %rsp,%rbp
    91dc:	89 fa                	mov    %edi,%edx
    91de:	89 f0                	mov    %esi,%eax
    91e0:	88 55 fc             	mov    %dl,-0x4(%rbp)
    91e3:	88 45 f8             	mov    %al,-0x8(%rbp)
    91e6:	0f b6 55 fc          	movzbl -0x4(%rbp),%edx
    91ea:	0f b6 45 f8          	movzbl -0x8(%rbp),%eax
    91ee:	01 d0                	add    %edx,%eax
    91f0:	5d                   	pop    %rbp
    91f1:	c3                   	retq   

00000000000091f2 <safe_sub_func_int8_t_s_s>:
    91f2:	f3 0f 1e fa          	endbr64 
    91f6:	55                   	push   %rbp
    91f7:	48 89 e5             	mov    %rsp,%rbp
    91fa:	89 fa                	mov    %edi,%edx
    91fc:	89 f0                	mov    %esi,%eax
    91fe:	88 55 fc             	mov    %dl,-0x4(%rbp)
    9201:	88 45 f8             	mov    %al,-0x8(%rbp)
    9204:	0f b6 55 fc          	movzbl -0x4(%rbp),%edx
    9208:	0f b6 45 f8          	movzbl -0x8(%rbp),%eax
    920c:	29 c2                	sub    %eax,%edx
    920e:	89 d0                	mov    %edx,%eax
    9210:	5d                   	pop    %rbp
    9211:	c3                   	retq   

0000000000009212 <safe_mul_func_int8_t_s_s>:
    9212:	f3 0f 1e fa          	endbr64 
    9216:	55                   	push   %rbp
    9217:	48 89 e5             	mov    %rsp,%rbp
    921a:	89 fa                	mov    %edi,%edx
    921c:	89 f0                	mov    %esi,%eax
    921e:	88 55 fc             	mov    %dl,-0x4(%rbp)
    9221:	88 45 f8             	mov    %al,-0x8(%rbp)
    9224:	0f b6 45 fc          	movzbl -0x4(%rbp),%eax
    9228:	0f b6 55 f8          	movzbl -0x8(%rbp),%edx
    922c:	0f af c2             	imul   %edx,%eax
    922f:	5d                   	pop    %rbp
    9230:	c3                   	retq   

0000000000009231 <safe_mod_func_int8_t_s_s>:
    9231:	f3 0f 1e fa          	endbr64 
    9235:	55                   	push   %rbp
    9236:	48 89 e5             	mov    %rsp,%rbp
    9239:	89 fa                	mov    %edi,%edx
    923b:	89 f0                	mov    %esi,%eax
    923d:	88 55 fc             	mov    %dl,-0x4(%rbp)
    9240:	88 45 f8             	mov    %al,-0x8(%rbp)
    9243:	80 7d f8 00          	cmpb   $0x0,-0x8(%rbp)
    9247:	74 1b                	je     9264 <safe_mod_func_int8_t_s_s+0x33>
    9249:	80 7d fc 80          	cmpb   $0x80,-0x4(%rbp)
    924d:	75 06                	jne    9255 <safe_mod_func_int8_t_s_s+0x24>
    924f:	80 7d f8 ff          	cmpb   $0xff,-0x8(%rbp)
    9253:	74 0f                	je     9264 <safe_mod_func_int8_t_s_s+0x33>
    9255:	0f be 45 fc          	movsbl -0x4(%rbp),%eax
    9259:	0f be 4d f8          	movsbl -0x8(%rbp),%ecx
    925d:	99                   	cltd   
    925e:	f7 f9                	idiv   %ecx
    9260:	89 d0                	mov    %edx,%eax
    9262:	eb 04                	jmp    9268 <safe_mod_func_int8_t_s_s+0x37>
    9264:	0f b6 45 fc          	movzbl -0x4(%rbp),%eax
    9268:	5d                   	pop    %rbp
    9269:	c3                   	retq   

000000000000926a <safe_div_func_int8_t_s_s>:
    926a:	f3 0f 1e fa          	endbr64 
    926e:	55                   	push   %rbp
    926f:	48 89 e5             	mov    %rsp,%rbp
    9272:	89 fa                	mov    %edi,%edx
    9274:	89 f0                	mov    %esi,%eax
    9276:	88 55 fc             	mov    %dl,-0x4(%rbp)
    9279:	88 45 f8             	mov    %al,-0x8(%rbp)
    927c:	80 7d f8 00          	cmpb   $0x0,-0x8(%rbp)
    9280:	74 19                	je     929b <safe_div_func_int8_t_s_s+0x31>
    9282:	80 7d fc 80          	cmpb   $0x80,-0x4(%rbp)
    9286:	75 06                	jne    928e <safe_div_func_int8_t_s_s+0x24>
    9288:	80 7d f8 ff          	cmpb   $0xff,-0x8(%rbp)
    928c:	74 0d                	je     929b <safe_div_func_int8_t_s_s+0x31>
    928e:	0f be 45 fc          	movsbl -0x4(%rbp),%eax
    9292:	0f be 4d f8          	movsbl -0x8(%rbp),%ecx
    9296:	99                   	cltd   
    9297:	f7 f9                	idiv   %ecx
    9299:	eb 04                	jmp    929f <safe_div_func_int8_t_s_s+0x35>
    929b:	0f b6 45 fc          	movzbl -0x4(%rbp),%eax
    929f:	5d                   	pop    %rbp
    92a0:	c3                   	retq   

00000000000092a1 <safe_lshift_func_int8_t_s_s>:
    92a1:	f3 0f 1e fa          	endbr64 
    92a5:	55                   	push   %rbp
    92a6:	48 89 e5             	mov    %rsp,%rbp
    92a9:	89 f8                	mov    %edi,%eax
    92ab:	89 75 f8             	mov    %esi,-0x8(%rbp)
    92ae:	88 45 fc             	mov    %al,-0x4(%rbp)
    92b1:	80 7d fc 00          	cmpb   $0x0,-0x4(%rbp)
    92b5:	78 31                	js     92e8 <safe_lshift_func_int8_t_s_s+0x47>
    92b7:	83 7d f8 00          	cmpl   $0x0,-0x8(%rbp)
    92bb:	78 2b                	js     92e8 <safe_lshift_func_int8_t_s_s+0x47>
    92bd:	83 7d f8 1f          	cmpl   $0x1f,-0x8(%rbp)
    92c1:	7f 25                	jg     92e8 <safe_lshift_func_int8_t_s_s+0x47>
    92c3:	0f be 55 fc          	movsbl -0x4(%rbp),%edx
    92c7:	8b 45 f8             	mov    -0x8(%rbp),%eax
    92ca:	be 7f 00 00 00       	mov    $0x7f,%esi
    92cf:	89 c1                	mov    %eax,%ecx
    92d1:	d3 fe                	sar    %cl,%esi
    92d3:	89 f0                	mov    %esi,%eax
    92d5:	39 c2                	cmp    %eax,%edx
    92d7:	7f 0f                	jg     92e8 <safe_lshift_func_int8_t_s_s+0x47>
    92d9:	0f be 55 fc          	movsbl -0x4(%rbp),%edx
    92dd:	8b 45 f8             	mov    -0x8(%rbp),%eax
    92e0:	89 c1                	mov    %eax,%ecx
    92e2:	d3 e2                	shl    %cl,%edx
    92e4:	89 d0                	mov    %edx,%eax
    92e6:	eb 04                	jmp    92ec <safe_lshift_func_int8_t_s_s+0x4b>
    92e8:	0f b6 45 fc          	movzbl -0x4(%rbp),%eax
    92ec:	5d                   	pop    %rbp
    92ed:	c3                   	retq   

00000000000092ee <safe_lshift_func_int8_t_s_u>:
    92ee:	f3 0f 1e fa          	endbr64 
    92f2:	55                   	push   %rbp
    92f3:	48 89 e5             	mov    %rsp,%rbp
    92f6:	89 f8                	mov    %edi,%eax
    92f8:	89 75 f8             	mov    %esi,-0x8(%rbp)
    92fb:	88 45 fc             	mov    %al,-0x4(%rbp)
    92fe:	80 7d fc 00          	cmpb   $0x0,-0x4(%rbp)
    9302:	78 2b                	js     932f <safe_lshift_func_int8_t_s_u+0x41>
    9304:	83 7d f8 1f          	cmpl   $0x1f,-0x8(%rbp)
    9308:	77 25                	ja     932f <safe_lshift_func_int8_t_s_u+0x41>
    930a:	0f be 55 fc          	movsbl -0x4(%rbp),%edx
    930e:	8b 45 f8             	mov    -0x8(%rbp),%eax
    9311:	be 7f 00 00 00       	mov    $0x7f,%esi
    9316:	89 c1                	mov    %eax,%ecx
    9318:	d3 fe                	sar    %cl,%esi
    931a:	89 f0                	mov    %esi,%eax
    931c:	39 c2                	cmp    %eax,%edx
    931e:	7f 0f                	jg     932f <safe_lshift_func_int8_t_s_u+0x41>
    9320:	0f be 55 fc          	movsbl -0x4(%rbp),%edx
    9324:	8b 45 f8             	mov    -0x8(%rbp),%eax
    9327:	89 c1                	mov    %eax,%ecx
    9329:	d3 e2                	shl    %cl,%edx
    932b:	89 d0                	mov    %edx,%eax
    932d:	eb 04                	jmp    9333 <safe_lshift_func_int8_t_s_u+0x45>
    932f:	0f b6 45 fc          	movzbl -0x4(%rbp),%eax
    9333:	5d                   	pop    %rbp
    9334:	c3                   	retq   

0000000000009335 <safe_rshift_func_int8_t_s_s>:
    9335:	f3 0f 1e fa          	endbr64 
    9339:	55                   	push   %rbp
    933a:	48 89 e5             	mov    %rsp,%rbp
    933d:	89 f8                	mov    %edi,%eax
    933f:	89 75 f8             	mov    %esi,-0x8(%rbp)
    9342:	88 45 fc             	mov    %al,-0x4(%rbp)
    9345:	80 7d fc 00          	cmpb   $0x0,-0x4(%rbp)
    9349:	78 1b                	js     9366 <safe_rshift_func_int8_t_s_s+0x31>
    934b:	83 7d f8 00          	cmpl   $0x0,-0x8(%rbp)
    934f:	78 15                	js     9366 <safe_rshift_func_int8_t_s_s+0x31>
    9351:	83 7d f8 1f          	cmpl   $0x1f,-0x8(%rbp)
    9355:	7f 0f                	jg     9366 <safe_rshift_func_int8_t_s_s+0x31>
    9357:	0f be 55 fc          	movsbl -0x4(%rbp),%edx
    935b:	8b 45 f8             	mov    -0x8(%rbp),%eax
    935e:	89 c1                	mov    %eax,%ecx
    9360:	d3 fa                	sar    %cl,%edx
    9362:	89 d0                	mov    %edx,%eax
    9364:	eb 04                	jmp    936a <safe_rshift_func_int8_t_s_s+0x35>
    9366:	0f b6 45 fc          	movzbl -0x4(%rbp),%eax
    936a:	5d                   	pop    %rbp
    936b:	c3                   	retq   

000000000000936c <safe_rshift_func_int8_t_s_u>:
    936c:	f3 0f 1e fa          	endbr64 
    9370:	55                   	push   %rbp
    9371:	48 89 e5             	mov    %rsp,%rbp
    9374:	89 f8                	mov    %edi,%eax
    9376:	89 75 f8             	mov    %esi,-0x8(%rbp)
    9379:	88 45 fc             	mov    %al,-0x4(%rbp)
    937c:	80 7d fc 00          	cmpb   $0x0,-0x4(%rbp)
    9380:	78 15                	js     9397 <safe_rshift_func_int8_t_s_u+0x2b>
    9382:	83 7d f8 1f          	cmpl   $0x1f,-0x8(%rbp)
    9386:	77 0f                	ja     9397 <safe_rshift_func_int8_t_s_u+0x2b>
    9388:	0f be 55 fc          	movsbl -0x4(%rbp),%edx
    938c:	8b 45 f8             	mov    -0x8(%rbp),%eax
    938f:	89 c1                	mov    %eax,%ecx
    9391:	d3 fa                	sar    %cl,%edx
    9393:	89 d0                	mov    %edx,%eax
    9395:	eb 04                	jmp    939b <safe_rshift_func_int8_t_s_u+0x2f>
    9397:	0f b6 45 fc          	movzbl -0x4(%rbp),%eax
    939b:	5d                   	pop    %rbp
    939c:	c3                   	retq   

000000000000939d <safe_unary_minus_func_int16_t_s>:
    939d:	f3 0f 1e fa          	endbr64 
    93a1:	55                   	push   %rbp
    93a2:	48 89 e5             	mov    %rsp,%rbp
    93a5:	89 f8                	mov    %edi,%eax
    93a7:	66 89 45 fc          	mov    %ax,-0x4(%rbp)
    93ab:	0f b7 45 fc          	movzwl -0x4(%rbp),%eax
    93af:	f7 d8                	neg    %eax
    93b1:	5d                   	pop    %rbp
    93b2:	c3                   	retq   

00000000000093b3 <safe_add_func_int16_t_s_s>:
    93b3:	f3 0f 1e fa          	endbr64 
    93b7:	55                   	push   %rbp
    93b8:	48 89 e5             	mov    %rsp,%rbp
    93bb:	89 fa                	mov    %edi,%edx
    93bd:	89 f0                	mov    %esi,%eax
    93bf:	66 89 55 fc          	mov    %dx,-0x4(%rbp)
    93c3:	66 89 45 f8          	mov    %ax,-0x8(%rbp)
    93c7:	0f b7 55 fc          	movzwl -0x4(%rbp),%edx
    93cb:	0f b7 45 f8          	movzwl -0x8(%rbp),%eax
    93cf:	01 d0                	add    %edx,%eax
    93d1:	5d                   	pop    %rbp
    93d2:	c3                   	retq   

00000000000093d3 <safe_sub_func_int16_t_s_s>:
    93d3:	f3 0f 1e fa          	endbr64 
    93d7:	55                   	push   %rbp
    93d8:	48 89 e5             	mov    %rsp,%rbp
    93db:	89 fa                	mov    %edi,%edx
    93dd:	89 f0                	mov    %esi,%eax
    93df:	66 89 55 fc          	mov    %dx,-0x4(%rbp)
    93e3:	66 89 45 f8          	mov    %ax,-0x8(%rbp)
    93e7:	0f b7 55 fc          	movzwl -0x4(%rbp),%edx
    93eb:	0f b7 45 f8          	movzwl -0x8(%rbp),%eax
    93ef:	29 c2                	sub    %eax,%edx
    93f1:	89 d0                	mov    %edx,%eax
    93f3:	5d                   	pop    %rbp
    93f4:	c3                   	retq   

00000000000093f5 <safe_mul_func_int16_t_s_s>:
    93f5:	f3 0f 1e fa          	endbr64 
    93f9:	55                   	push   %rbp
    93fa:	48 89 e5             	mov    %rsp,%rbp
    93fd:	89 fa                	mov    %edi,%edx
    93ff:	89 f0                	mov    %esi,%eax
    9401:	66 89 55 fc          	mov    %dx,-0x4(%rbp)
    9405:	66 89 45 f8          	mov    %ax,-0x8(%rbp)
    9409:	0f b7 55 fc          	movzwl -0x4(%rbp),%edx
    940d:	0f b7 45 f8          	movzwl -0x8(%rbp),%eax
    9411:	0f af c2             	imul   %edx,%eax
    9414:	5d                   	pop    %rbp
    9415:	c3                   	retq   

0000000000009416 <safe_mod_func_int16_t_s_s>:
    9416:	f3 0f 1e fa          	endbr64 
    941a:	55                   	push   %rbp
    941b:	48 89 e5             	mov    %rsp,%rbp
    941e:	89 fa                	mov    %edi,%edx
    9420:	89 f0                	mov    %esi,%eax
    9422:	66 89 55 fc          	mov    %dx,-0x4(%rbp)
    9426:	66 89 45 f8          	mov    %ax,-0x8(%rbp)
    942a:	66 83 7d f8 00       	cmpw   $0x0,-0x8(%rbp)
    942f:	74 1e                	je     944f <safe_mod_func_int16_t_s_s+0x39>
    9431:	66 81 7d fc 00 80    	cmpw   $0x8000,-0x4(%rbp)
    9437:	75 07                	jne    9440 <safe_mod_func_int16_t_s_s+0x2a>
    9439:	66 83 7d f8 ff       	cmpw   $0xffff,-0x8(%rbp)
    943e:	74 0f                	je     944f <safe_mod_func_int16_t_s_s+0x39>
    9440:	0f bf 45 fc          	movswl -0x4(%rbp),%eax
    9444:	0f bf 4d f8          	movswl -0x8(%rbp),%ecx
    9448:	99                   	cltd   
    9449:	f7 f9                	idiv   %ecx
    944b:	89 d0                	mov    %edx,%eax
    944d:	eb 04                	jmp    9453 <safe_mod_func_int16_t_s_s+0x3d>
    944f:	0f b7 45 fc          	movzwl -0x4(%rbp),%eax
    9453:	5d                   	pop    %rbp
    9454:	c3                   	retq   

0000000000009455 <safe_div_func_int16_t_s_s>:
    9455:	f3 0f 1e fa          	endbr64 
    9459:	55                   	push   %rbp
    945a:	48 89 e5             	mov    %rsp,%rbp
    945d:	89 fa                	mov    %edi,%edx
    945f:	89 f0                	mov    %esi,%eax
    9461:	66 89 55 fc          	mov    %dx,-0x4(%rbp)
    9465:	66 89 45 f8          	mov    %ax,-0x8(%rbp)
    9469:	66 83 7d f8 00       	cmpw   $0x0,-0x8(%rbp)
    946e:	74 1c                	je     948c <safe_div_func_int16_t_s_s+0x37>
    9470:	66 81 7d fc 00 80    	cmpw   $0x8000,-0x4(%rbp)
    9476:	75 07                	jne    947f <safe_div_func_int16_t_s_s+0x2a>
    9478:	66 83 7d f8 ff       	cmpw   $0xffff,-0x8(%rbp)
    947d:	74 0d                	je     948c <safe_div_func_int16_t_s_s+0x37>
    947f:	0f bf 45 fc          	movswl -0x4(%rbp),%eax
    9483:	0f bf 4d f8          	movswl -0x8(%rbp),%ecx
    9487:	99                   	cltd   
    9488:	f7 f9                	idiv   %ecx
    948a:	eb 04                	jmp    9490 <safe_div_func_int16_t_s_s+0x3b>
    948c:	0f b7 45 fc          	movzwl -0x4(%rbp),%eax
    9490:	5d                   	pop    %rbp
    9491:	c3                   	retq   

0000000000009492 <safe_lshift_func_int16_t_s_s>:
    9492:	f3 0f 1e fa          	endbr64 
    9496:	55                   	push   %rbp
    9497:	48 89 e5             	mov    %rsp,%rbp
    949a:	89 f8                	mov    %edi,%eax
    949c:	89 75 f8             	mov    %esi,-0x8(%rbp)
    949f:	66 89 45 fc          	mov    %ax,-0x4(%rbp)
    94a3:	66 83 7d fc 00       	cmpw   $0x0,-0x4(%rbp)
    94a8:	78 31                	js     94db <safe_lshift_func_int16_t_s_s+0x49>
    94aa:	83 7d f8 00          	cmpl   $0x0,-0x8(%rbp)
    94ae:	78 2b                	js     94db <safe_lshift_func_int16_t_s_s+0x49>
    94b0:	83 7d f8 1f          	cmpl   $0x1f,-0x8(%rbp)
    94b4:	7f 25                	jg     94db <safe_lshift_func_int16_t_s_s+0x49>
    94b6:	0f bf 55 fc          	movswl -0x4(%rbp),%edx
    94ba:	8b 45 f8             	mov    -0x8(%rbp),%eax
    94bd:	be ff 7f 00 00       	mov    $0x7fff,%esi
    94c2:	89 c1                	mov    %eax,%ecx
    94c4:	d3 fe                	sar    %cl,%esi
    94c6:	89 f0                	mov    %esi,%eax
    94c8:	39 c2                	cmp    %eax,%edx
    94ca:	7f 0f                	jg     94db <safe_lshift_func_int16_t_s_s+0x49>
    94cc:	0f bf 55 fc          	movswl -0x4(%rbp),%edx
    94d0:	8b 45 f8             	mov    -0x8(%rbp),%eax
    94d3:	89 c1                	mov    %eax,%ecx
    94d5:	d3 e2                	shl    %cl,%edx
    94d7:	89 d0                	mov    %edx,%eax
    94d9:	eb 04                	jmp    94df <safe_lshift_func_int16_t_s_s+0x4d>
    94db:	0f b7 45 fc          	movzwl -0x4(%rbp),%eax
    94df:	5d                   	pop    %rbp
    94e0:	c3                   	retq   

00000000000094e1 <safe_lshift_func_int16_t_s_u>:
    94e1:	f3 0f 1e fa          	endbr64 
    94e5:	55                   	push   %rbp
    94e6:	48 89 e5             	mov    %rsp,%rbp
    94e9:	89 f8                	mov    %edi,%eax
    94eb:	89 75 f8             	mov    %esi,-0x8(%rbp)
    94ee:	66 89 45 fc          	mov    %ax,-0x4(%rbp)
    94f2:	66 83 7d fc 00       	cmpw   $0x0,-0x4(%rbp)
    94f7:	78 2b                	js     9524 <safe_lshift_func_int16_t_s_u+0x43>
    94f9:	83 7d f8 1f          	cmpl   $0x1f,-0x8(%rbp)
    94fd:	77 25                	ja     9524 <safe_lshift_func_int16_t_s_u+0x43>
    94ff:	0f bf 55 fc          	movswl -0x4(%rbp),%edx
    9503:	8b 45 f8             	mov    -0x8(%rbp),%eax
    9506:	be ff 7f 00 00       	mov    $0x7fff,%esi
    950b:	89 c1                	mov    %eax,%ecx
    950d:	d3 fe                	sar    %cl,%esi
    950f:	89 f0                	mov    %esi,%eax
    9511:	39 c2                	cmp    %eax,%edx
    9513:	7f 0f                	jg     9524 <safe_lshift_func_int16_t_s_u+0x43>
    9515:	0f bf 55 fc          	movswl -0x4(%rbp),%edx
    9519:	8b 45 f8             	mov    -0x8(%rbp),%eax
    951c:	89 c1                	mov    %eax,%ecx
    951e:	d3 e2                	shl    %cl,%edx
    9520:	89 d0                	mov    %edx,%eax
    9522:	eb 04                	jmp    9528 <safe_lshift_func_int16_t_s_u+0x47>
    9524:	0f b7 45 fc          	movzwl -0x4(%rbp),%eax
    9528:	5d                   	pop    %rbp
    9529:	c3                   	retq   

000000000000952a <safe_rshift_func_int16_t_s_s>:
    952a:	f3 0f 1e fa          	endbr64 
    952e:	55                   	push   %rbp
    952f:	48 89 e5             	mov    %rsp,%rbp
    9532:	89 f8                	mov    %edi,%eax
    9534:	89 75 f8             	mov    %esi,-0x8(%rbp)
    9537:	66 89 45 fc          	mov    %ax,-0x4(%rbp)
    953b:	66 83 7d fc 00       	cmpw   $0x0,-0x4(%rbp)
    9540:	78 1b                	js     955d <safe_rshift_func_int16_t_s_s+0x33>
    9542:	83 7d f8 00          	cmpl   $0x0,-0x8(%rbp)
    9546:	78 15                	js     955d <safe_rshift_func_int16_t_s_s+0x33>
    9548:	83 7d f8 1f          	cmpl   $0x1f,-0x8(%rbp)
    954c:	7f 0f                	jg     955d <safe_rshift_func_int16_t_s_s+0x33>
    954e:	0f bf 55 fc          	movswl -0x4(%rbp),%edx
    9552:	8b 45 f8             	mov    -0x8(%rbp),%eax
    9555:	89 c1                	mov    %eax,%ecx
    9557:	d3 fa                	sar    %cl,%edx
    9559:	89 d0                	mov    %edx,%eax
    955b:	eb 04                	jmp    9561 <safe_rshift_func_int16_t_s_s+0x37>
    955d:	0f b7 45 fc          	movzwl -0x4(%rbp),%eax
    9561:	5d                   	pop    %rbp
    9562:	c3                   	retq   

0000000000009563 <safe_rshift_func_int16_t_s_u>:
    9563:	f3 0f 1e fa          	endbr64 
    9567:	55                   	push   %rbp
    9568:	48 89 e5             	mov    %rsp,%rbp
    956b:	89 f8                	mov    %edi,%eax
    956d:	89 75 f8             	mov    %esi,-0x8(%rbp)
    9570:	66 89 45 fc          	mov    %ax,-0x4(%rbp)
    9574:	66 83 7d fc 00       	cmpw   $0x0,-0x4(%rbp)
    9579:	78 15                	js     9590 <safe_rshift_func_int16_t_s_u+0x2d>
    957b:	83 7d f8 1f          	cmpl   $0x1f,-0x8(%rbp)
    957f:	77 0f                	ja     9590 <safe_rshift_func_int16_t_s_u+0x2d>
    9581:	0f bf 55 fc          	movswl -0x4(%rbp),%edx
    9585:	8b 45 f8             	mov    -0x8(%rbp),%eax
    9588:	89 c1                	mov    %eax,%ecx
    958a:	d3 fa                	sar    %cl,%edx
    958c:	89 d0                	mov    %edx,%eax
    958e:	eb 04                	jmp    9594 <safe_rshift_func_int16_t_s_u+0x31>
    9590:	0f b7 45 fc          	movzwl -0x4(%rbp),%eax
    9594:	5d                   	pop    %rbp
    9595:	c3                   	retq   

0000000000009596 <safe_unary_minus_func_int32_t_s>:
    9596:	f3 0f 1e fa          	endbr64 
    959a:	55                   	push   %rbp
    959b:	48 89 e5             	mov    %rsp,%rbp
    959e:	89 7d fc             	mov    %edi,-0x4(%rbp)
    95a1:	81 7d fc 00 00 00 80 	cmpl   $0x80000000,-0x4(%rbp)
    95a8:	74 07                	je     95b1 <safe_unary_minus_func_int32_t_s+0x1b>
    95aa:	8b 45 fc             	mov    -0x4(%rbp),%eax
    95ad:	f7 d8                	neg    %eax
    95af:	eb 03                	jmp    95b4 <safe_unary_minus_func_int32_t_s+0x1e>
    95b1:	8b 45 fc             	mov    -0x4(%rbp),%eax
    95b4:	5d                   	pop    %rbp
    95b5:	c3                   	retq   

00000000000095b6 <safe_add_func_int32_t_s_s>:
    95b6:	f3 0f 1e fa          	endbr64 
    95ba:	55                   	push   %rbp
    95bb:	48 89 e5             	mov    %rsp,%rbp
    95be:	89 7d fc             	mov    %edi,-0x4(%rbp)
    95c1:	89 75 f8             	mov    %esi,-0x8(%rbp)
    95c4:	83 7d fc 00          	cmpl   $0x0,-0x4(%rbp)
    95c8:	7e 13                	jle    95dd <safe_add_func_int32_t_s_s+0x27>
    95ca:	83 7d f8 00          	cmpl   $0x0,-0x8(%rbp)
    95ce:	7e 0d                	jle    95dd <safe_add_func_int32_t_s_s+0x27>
    95d0:	b8 ff ff ff 7f       	mov    $0x7fffffff,%eax
    95d5:	2b 45 f8             	sub    -0x8(%rbp),%eax
    95d8:	39 45 fc             	cmp    %eax,-0x4(%rbp)
    95db:	7f 23                	jg     9600 <safe_add_func_int32_t_s_s+0x4a>
    95dd:	83 7d fc 00          	cmpl   $0x0,-0x4(%rbp)
    95e1:	79 13                	jns    95f6 <safe_add_func_int32_t_s_s+0x40>
    95e3:	83 7d f8 00          	cmpl   $0x0,-0x8(%rbp)
    95e7:	79 0d                	jns    95f6 <safe_add_func_int32_t_s_s+0x40>
    95e9:	b8 00 00 00 80       	mov    $0x80000000,%eax
    95ee:	2b 45 f8             	sub    -0x8(%rbp),%eax
    95f1:	39 45 fc             	cmp    %eax,-0x4(%rbp)
    95f4:	7c 0a                	jl     9600 <safe_add_func_int32_t_s_s+0x4a>
    95f6:	8b 55 fc             	mov    -0x4(%rbp),%edx
    95f9:	8b 45 f8             	mov    -0x8(%rbp),%eax
    95fc:	01 d0                	add    %edx,%eax
    95fe:	eb 03                	jmp    9603 <safe_add_func_int32_t_s_s+0x4d>
    9600:	8b 45 fc             	mov    -0x4(%rbp),%eax
    9603:	5d                   	pop    %rbp
    9604:	c3                   	retq   

0000000000009605 <safe_sub_func_int32_t_s_s>:
    9605:	f3 0f 1e fa          	endbr64 
    9609:	55                   	push   %rbp
    960a:	48 89 e5             	mov    %rsp,%rbp
    960d:	89 7d fc             	mov    %edi,-0x4(%rbp)
    9610:	89 75 f8             	mov    %esi,-0x8(%rbp)
    9613:	8b 45 fc             	mov    -0x4(%rbp),%eax
    9616:	33 45 f8             	xor    -0x8(%rbp),%eax
    9619:	89 c2                	mov    %eax,%edx
    961b:	8b 45 fc             	mov    -0x4(%rbp),%eax
    961e:	33 45 f8             	xor    -0x8(%rbp),%eax
    9621:	25 00 00 00 80       	and    $0x80000000,%eax
    9626:	33 45 fc             	xor    -0x4(%rbp),%eax
    9629:	2b 45 f8             	sub    -0x8(%rbp),%eax
    962c:	33 45 f8             	xor    -0x8(%rbp),%eax
    962f:	21 d0                	and    %edx,%eax
    9631:	85 c0                	test   %eax,%eax
    9633:	78 08                	js     963d <safe_sub_func_int32_t_s_s+0x38>
    9635:	8b 45 fc             	mov    -0x4(%rbp),%eax
    9638:	2b 45 f8             	sub    -0x8(%rbp),%eax
    963b:	eb 03                	jmp    9640 <safe_sub_func_int32_t_s_s+0x3b>
    963d:	8b 45 fc             	mov    -0x4(%rbp),%eax
    9640:	5d                   	pop    %rbp
    9641:	c3                   	retq   

0000000000009642 <safe_mul_func_int32_t_s_s>:
    9642:	f3 0f 1e fa          	endbr64 
    9646:	55                   	push   %rbp
    9647:	48 89 e5             	mov    %rsp,%rbp
    964a:	89 7d fc             	mov    %edi,-0x4(%rbp)
    964d:	89 75 f8             	mov    %esi,-0x8(%rbp)
    9650:	83 7d fc 00          	cmpl   $0x0,-0x4(%rbp)
    9654:	7e 14                	jle    966a <safe_mul_func_int32_t_s_s+0x28>
    9656:	83 7d f8 00          	cmpl   $0x0,-0x8(%rbp)
    965a:	7e 0e                	jle    966a <safe_mul_func_int32_t_s_s+0x28>
    965c:	b8 ff ff ff 7f       	mov    $0x7fffffff,%eax
    9661:	99                   	cltd   
    9662:	f7 7d f8             	idivl  -0x8(%rbp)
    9665:	39 45 fc             	cmp    %eax,-0x4(%rbp)
    9668:	7f 5d                	jg     96c7 <safe_mul_func_int32_t_s_s+0x85>
    966a:	83 7d fc 00          	cmpl   $0x0,-0x4(%rbp)
    966e:	7e 14                	jle    9684 <safe_mul_func_int32_t_s_s+0x42>
    9670:	83 7d f8 00          	cmpl   $0x0,-0x8(%rbp)
    9674:	7f 0e                	jg     9684 <safe_mul_func_int32_t_s_s+0x42>
    9676:	b8 00 00 00 80       	mov    $0x80000000,%eax
    967b:	99                   	cltd   
    967c:	f7 7d fc             	idivl  -0x4(%rbp)
    967f:	39 45 f8             	cmp    %eax,-0x8(%rbp)
    9682:	7c 43                	jl     96c7 <safe_mul_func_int32_t_s_s+0x85>
    9684:	83 7d fc 00          	cmpl   $0x0,-0x4(%rbp)
    9688:	7f 14                	jg     969e <safe_mul_func_int32_t_s_s+0x5c>
    968a:	83 7d f8 00          	cmpl   $0x0,-0x8(%rbp)
    968e:	7e 0e                	jle    969e <safe_mul_func_int32_t_s_s+0x5c>
    9690:	b8 00 00 00 80       	mov    $0x80000000,%eax
    9695:	99                   	cltd   
    9696:	f7 7d f8             	idivl  -0x8(%rbp)
    9699:	39 45 fc             	cmp    %eax,-0x4(%rbp)
    969c:	7c 29                	jl     96c7 <safe_mul_func_int32_t_s_s+0x85>
    969e:	83 7d fc 00          	cmpl   $0x0,-0x4(%rbp)
    96a2:	7f 1a                	jg     96be <safe_mul_func_int32_t_s_s+0x7c>
    96a4:	83 7d f8 00          	cmpl   $0x0,-0x8(%rbp)
    96a8:	7f 14                	jg     96be <safe_mul_func_int32_t_s_s+0x7c>
    96aa:	83 7d fc 00          	cmpl   $0x0,-0x4(%rbp)
    96ae:	74 0e                	je     96be <safe_mul_func_int32_t_s_s+0x7c>
    96b0:	b8 ff ff ff 7f       	mov    $0x7fffffff,%eax
    96b5:	99                   	cltd   
    96b6:	f7 7d fc             	idivl  -0x4(%rbp)
    96b9:	39 45 f8             	cmp    %eax,-0x8(%rbp)
    96bc:	7c 09                	jl     96c7 <safe_mul_func_int32_t_s_s+0x85>
    96be:	8b 45 fc             	mov    -0x4(%rbp),%eax
    96c1:	0f af 45 f8          	imul   -0x8(%rbp),%eax
    96c5:	eb 03                	jmp    96ca <safe_mul_func_int32_t_s_s+0x88>
    96c7:	8b 45 fc             	mov    -0x4(%rbp),%eax
    96ca:	5d                   	pop    %rbp
    96cb:	c3                   	retq   

00000000000096cc <safe_mod_func_int32_t_s_s>:
    96cc:	f3 0f 1e fa          	endbr64 
    96d0:	55                   	push   %rbp
    96d1:	48 89 e5             	mov    %rsp,%rbp
    96d4:	89 7d fc             	mov    %edi,-0x4(%rbp)
    96d7:	89 75 f8             	mov    %esi,-0x8(%rbp)
    96da:	83 7d f8 00          	cmpl   $0x0,-0x8(%rbp)
    96de:	74 1a                	je     96fa <safe_mod_func_int32_t_s_s+0x2e>
    96e0:	81 7d fc 00 00 00 80 	cmpl   $0x80000000,-0x4(%rbp)
    96e7:	75 06                	jne    96ef <safe_mod_func_int32_t_s_s+0x23>
    96e9:	83 7d f8 ff          	cmpl   $0xffffffff,-0x8(%rbp)
    96ed:	74 0b                	je     96fa <safe_mod_func_int32_t_s_s+0x2e>
    96ef:	8b 45 fc             	mov    -0x4(%rbp),%eax
    96f2:	99                   	cltd   
    96f3:	f7 7d f8             	idivl  -0x8(%rbp)
    96f6:	89 d0                	mov    %edx,%eax
    96f8:	eb 03                	jmp    96fd <safe_mod_func_int32_t_s_s+0x31>
    96fa:	8b 45 fc             	mov    -0x4(%rbp),%eax
    96fd:	5d                   	pop    %rbp
    96fe:	c3                   	retq   

00000000000096ff <safe_div_func_int32_t_s_s>:
    96ff:	f3 0f 1e fa          	endbr64 
    9703:	55                   	push   %rbp
    9704:	48 89 e5             	mov    %rsp,%rbp
    9707:	89 7d fc             	mov    %edi,-0x4(%rbp)
    970a:	89 75 f8             	mov    %esi,-0x8(%rbp)
    970d:	83 7d f8 00          	cmpl   $0x0,-0x8(%rbp)
    9711:	74 18                	je     972b <safe_div_func_int32_t_s_s+0x2c>
    9713:	81 7d fc 00 00 00 80 	cmpl   $0x80000000,-0x4(%rbp)
    971a:	75 06                	jne    9722 <safe_div_func_int32_t_s_s+0x23>
    971c:	83 7d f8 ff          	cmpl   $0xffffffff,-0x8(%rbp)
    9720:	74 09                	je     972b <safe_div_func_int32_t_s_s+0x2c>
    9722:	8b 45 fc             	mov    -0x4(%rbp),%eax
    9725:	99                   	cltd   
    9726:	f7 7d f8             	idivl  -0x8(%rbp)
    9729:	eb 03                	jmp    972e <safe_div_func_int32_t_s_s+0x2f>
    972b:	8b 45 fc             	mov    -0x4(%rbp),%eax
    972e:	5d                   	pop    %rbp
    972f:	c3                   	retq   

0000000000009730 <safe_lshift_func_int32_t_s_s>:
    9730:	f3 0f 1e fa          	endbr64 
    9734:	55                   	push   %rbp
    9735:	48 89 e5             	mov    %rsp,%rbp
    9738:	89 7d fc             	mov    %edi,-0x4(%rbp)
    973b:	89 75 f8             	mov    %esi,-0x8(%rbp)
    973e:	83 7d fc 00          	cmpl   $0x0,-0x4(%rbp)
    9742:	78 2d                	js     9771 <safe_lshift_func_int32_t_s_s+0x41>
    9744:	83 7d f8 00          	cmpl   $0x0,-0x8(%rbp)
    9748:	78 27                	js     9771 <safe_lshift_func_int32_t_s_s+0x41>
    974a:	83 7d f8 1f          	cmpl   $0x1f,-0x8(%rbp)
    974e:	7f 21                	jg     9771 <safe_lshift_func_int32_t_s_s+0x41>
    9750:	8b 45 f8             	mov    -0x8(%rbp),%eax
    9753:	ba ff ff ff 7f       	mov    $0x7fffffff,%edx
    9758:	89 c1                	mov    %eax,%ecx
    975a:	d3 fa                	sar    %cl,%edx
    975c:	89 d0                	mov    %edx,%eax
    975e:	39 45 fc             	cmp    %eax,-0x4(%rbp)
    9761:	7f 0e                	jg     9771 <safe_lshift_func_int32_t_s_s+0x41>
    9763:	8b 45 f8             	mov    -0x8(%rbp),%eax
    9766:	8b 55 fc             	mov    -0x4(%rbp),%edx
    9769:	89 c1                	mov    %eax,%ecx
    976b:	d3 e2                	shl    %cl,%edx
    976d:	89 d0                	mov    %edx,%eax
    976f:	eb 03                	jmp    9774 <safe_lshift_func_int32_t_s_s+0x44>
    9771:	8b 45 fc             	mov    -0x4(%rbp),%eax
    9774:	5d                   	pop    %rbp
    9775:	c3                   	retq   

0000000000009776 <safe_lshift_func_int32_t_s_u>:
    9776:	f3 0f 1e fa          	endbr64 
    977a:	55                   	push   %rbp
    977b:	48 89 e5             	mov    %rsp,%rbp
    977e:	89 7d fc             	mov    %edi,-0x4(%rbp)
    9781:	89 75 f8             	mov    %esi,-0x8(%rbp)
    9784:	83 7d fc 00          	cmpl   $0x0,-0x4(%rbp)
    9788:	78 27                	js     97b1 <safe_lshift_func_int32_t_s_u+0x3b>
    978a:	83 7d f8 1f          	cmpl   $0x1f,-0x8(%rbp)
    978e:	77 21                	ja     97b1 <safe_lshift_func_int32_t_s_u+0x3b>
    9790:	8b 45 f8             	mov    -0x8(%rbp),%eax
    9793:	ba ff ff ff 7f       	mov    $0x7fffffff,%edx
    9798:	89 c1                	mov    %eax,%ecx
    979a:	d3 fa                	sar    %cl,%edx
    979c:	89 d0                	mov    %edx,%eax
    979e:	39 45 fc             	cmp    %eax,-0x4(%rbp)
    97a1:	7f 0e                	jg     97b1 <safe_lshift_func_int32_t_s_u+0x3b>
    97a3:	8b 45 f8             	mov    -0x8(%rbp),%eax
    97a6:	8b 55 fc             	mov    -0x4(%rbp),%edx
    97a9:	89 c1                	mov    %eax,%ecx
    97ab:	d3 e2                	shl    %cl,%edx
    97ad:	89 d0                	mov    %edx,%eax
    97af:	eb 03                	jmp    97b4 <safe_lshift_func_int32_t_s_u+0x3e>
    97b1:	8b 45 fc             	mov    -0x4(%rbp),%eax
    97b4:	5d                   	pop    %rbp
    97b5:	c3                   	retq   

00000000000097b6 <safe_rshift_func_int32_t_s_s>:
    97b6:	f3 0f 1e fa          	endbr64 
    97ba:	55                   	push   %rbp
    97bb:	48 89 e5             	mov    %rsp,%rbp
    97be:	89 7d fc             	mov    %edi,-0x4(%rbp)
    97c1:	89 75 f8             	mov    %esi,-0x8(%rbp)
    97c4:	83 7d fc 00          	cmpl   $0x0,-0x4(%rbp)
    97c8:	78 1a                	js     97e4 <safe_rshift_func_int32_t_s_s+0x2e>
    97ca:	83 7d f8 00          	cmpl   $0x0,-0x8(%rbp)
    97ce:	78 14                	js     97e4 <safe_rshift_func_int32_t_s_s+0x2e>
    97d0:	83 7d f8 1f          	cmpl   $0x1f,-0x8(%rbp)
    97d4:	7f 0e                	jg     97e4 <safe_rshift_func_int32_t_s_s+0x2e>
    97d6:	8b 45 f8             	mov    -0x8(%rbp),%eax
    97d9:	8b 55 fc             	mov    -0x4(%rbp),%edx
    97dc:	89 c1                	mov    %eax,%ecx
    97de:	d3 fa                	sar    %cl,%edx
    97e0:	89 d0                	mov    %edx,%eax
    97e2:	eb 03                	jmp    97e7 <safe_rshift_func_int32_t_s_s+0x31>
    97e4:	8b 45 fc             	mov    -0x4(%rbp),%eax
    97e7:	5d                   	pop    %rbp
    97e8:	c3                   	retq   

00000000000097e9 <safe_rshift_func_int32_t_s_u>:
    97e9:	f3 0f 1e fa          	endbr64 
    97ed:	55                   	push   %rbp
    97ee:	48 89 e5             	mov    %rsp,%rbp
    97f1:	89 7d fc             	mov    %edi,-0x4(%rbp)
    97f4:	89 75 f8             	mov    %esi,-0x8(%rbp)
    97f7:	83 7d fc 00          	cmpl   $0x0,-0x4(%rbp)
    97fb:	78 14                	js     9811 <safe_rshift_func_int32_t_s_u+0x28>
    97fd:	83 7d f8 1f          	cmpl   $0x1f,-0x8(%rbp)
    9801:	77 0e                	ja     9811 <safe_rshift_func_int32_t_s_u+0x28>
    9803:	8b 45 f8             	mov    -0x8(%rbp),%eax
    9806:	8b 55 fc             	mov    -0x4(%rbp),%edx
    9809:	89 c1                	mov    %eax,%ecx
    980b:	d3 fa                	sar    %cl,%edx
    980d:	89 d0                	mov    %edx,%eax
    980f:	eb 03                	jmp    9814 <safe_rshift_func_int32_t_s_u+0x2b>
    9811:	8b 45 fc             	mov    -0x4(%rbp),%eax
    9814:	5d                   	pop    %rbp
    9815:	c3                   	retq   

0000000000009816 <safe_unary_minus_func_int64_t_s>:
    9816:	f3 0f 1e fa          	endbr64 
    981a:	55                   	push   %rbp
    981b:	48 89 e5             	mov    %rsp,%rbp
    981e:	48 89 7d f8          	mov    %rdi,-0x8(%rbp)
    9822:	48 b8 00 00 00 00 00 	movabs $0x8000000000000000,%rax
    9829:	00 00 80 
    982c:	48 39 45 f8          	cmp    %rax,-0x8(%rbp)
    9830:	74 09                	je     983b <safe_unary_minus_func_int64_t_s+0x25>
    9832:	48 8b 45 f8          	mov    -0x8(%rbp),%rax
    9836:	48 f7 d8             	neg    %rax
    9839:	eb 04                	jmp    983f <safe_unary_minus_func_int64_t_s+0x29>
    983b:	48 8b 45 f8          	mov    -0x8(%rbp),%rax
    983f:	5d                   	pop    %rbp
    9840:	c3                   	retq   

0000000000009841 <safe_add_func_int64_t_s_s>:
    9841:	f3 0f 1e fa          	endbr64 
    9845:	55                   	push   %rbp
    9846:	48 89 e5             	mov    %rsp,%rbp
    9849:	48 89 7d f8          	mov    %rdi,-0x8(%rbp)
    984d:	48 89 75 f0          	mov    %rsi,-0x10(%rbp)
    9851:	48 83 7d f8 00       	cmpq   $0x0,-0x8(%rbp)
    9856:	7e 1b                	jle    9873 <safe_add_func_int64_t_s_s+0x32>
    9858:	48 83 7d f0 00       	cmpq   $0x0,-0x10(%rbp)
    985d:	7e 14                	jle    9873 <safe_add_func_int64_t_s_s+0x32>
    985f:	48 b8 ff ff ff ff ff 	movabs $0x7fffffffffffffff,%rax
    9866:	ff ff 7f 
    9869:	48 2b 45 f0          	sub    -0x10(%rbp),%rax
    986d:	48 39 45 f8          	cmp    %rax,-0x8(%rbp)
    9871:	7f 2f                	jg     98a2 <safe_add_func_int64_t_s_s+0x61>
    9873:	48 83 7d f8 00       	cmpq   $0x0,-0x8(%rbp)
    9878:	79 1b                	jns    9895 <safe_add_func_int64_t_s_s+0x54>
    987a:	48 83 7d f0 00       	cmpq   $0x0,-0x10(%rbp)
    987f:	79 14                	jns    9895 <safe_add_func_int64_t_s_s+0x54>
    9881:	48 b8 00 00 00 00 00 	movabs $0x8000000000000000,%rax
    9888:	00 00 80 
    988b:	48 2b 45 f0          	sub    -0x10(%rbp),%rax
    988f:	48 39 45 f8          	cmp    %rax,-0x8(%rbp)
    9893:	7c 0d                	jl     98a2 <safe_add_func_int64_t_s_s+0x61>
    9895:	48 8b 55 f8          	mov    -0x8(%rbp),%rdx
    9899:	48 8b 45 f0          	mov    -0x10(%rbp),%rax
    989d:	48 01 d0             	add    %rdx,%rax
    98a0:	eb 04                	jmp    98a6 <safe_add_func_int64_t_s_s+0x65>
    98a2:	48 8b 45 f8          	mov    -0x8(%rbp),%rax
    98a6:	5d                   	pop    %rbp
    98a7:	c3                   	retq   

00000000000098a8 <safe_sub_func_int64_t_s_s>:
    98a8:	f3 0f 1e fa          	endbr64 
    98ac:	55                   	push   %rbp
    98ad:	48 89 e5             	mov    %rsp,%rbp
    98b0:	48 89 7d f8          	mov    %rdi,-0x8(%rbp)
    98b4:	48 89 75 f0          	mov    %rsi,-0x10(%rbp)
    98b8:	48 8b 45 f8          	mov    -0x8(%rbp),%rax
    98bc:	48 33 45 f0          	xor    -0x10(%rbp),%rax
    98c0:	48 89 c2             	mov    %rax,%rdx
    98c3:	48 8b 45 f8          	mov    -0x8(%rbp),%rax
    98c7:	48 33 45 f0          	xor    -0x10(%rbp),%rax
    98cb:	48 b9 00 00 00 00 00 	movabs $0x8000000000000000,%rcx
    98d2:	00 00 80 
    98d5:	48 21 c8             	and    %rcx,%rax
    98d8:	48 33 45 f8          	xor    -0x8(%rbp),%rax
    98dc:	48 2b 45 f0          	sub    -0x10(%rbp),%rax
    98e0:	48 33 45 f0          	xor    -0x10(%rbp),%rax
    98e4:	48 21 d0             	and    %rdx,%rax
    98e7:	48 85 c0             	test   %rax,%rax
    98ea:	78 0a                	js     98f6 <safe_sub_func_int64_t_s_s+0x4e>
    98ec:	48 8b 45 f8          	mov    -0x8(%rbp),%rax
    98f0:	48 2b 45 f0          	sub    -0x10(%rbp),%rax
    98f4:	eb 04                	jmp    98fa <safe_sub_func_int64_t_s_s+0x52>
    98f6:	48 8b 45 f8          	mov    -0x8(%rbp),%rax
    98fa:	5d                   	pop    %rbp
    98fb:	c3                   	retq   

00000000000098fc <safe_mul_func_int64_t_s_s>:
    98fc:	f3 0f 1e fa          	endbr64 
    9900:	55                   	push   %rbp
    9901:	48 89 e5             	mov    %rsp,%rbp
    9904:	48 89 7d f8          	mov    %rdi,-0x8(%rbp)
    9908:	48 89 75 f0          	mov    %rsi,-0x10(%rbp)
    990c:	48 83 7d f8 00       	cmpq   $0x0,-0x8(%rbp)
    9911:	7e 1d                	jle    9930 <safe_mul_func_int64_t_s_s+0x34>
    9913:	48 83 7d f0 00       	cmpq   $0x0,-0x10(%rbp)
    9918:	7e 16                	jle    9930 <safe_mul_func_int64_t_s_s+0x34>
    991a:	48 b8 ff ff ff ff ff 	movabs $0x7fffffffffffffff,%rax
    9921:	ff ff 7f 
    9924:	48 99                	cqto   
    9926:	48 f7 7d f0          	idivq  -0x10(%rbp)
    992a:	48 39 45 f8          	cmp    %rax,-0x8(%rbp)
    992e:	7f 7e                	jg     99ae <safe_mul_func_int64_t_s_s+0xb2>
    9930:	48 83 7d f8 00       	cmpq   $0x0,-0x8(%rbp)
    9935:	7e 1d                	jle    9954 <safe_mul_func_int64_t_s_s+0x58>
    9937:	48 83 7d f0 00       	cmpq   $0x0,-0x10(%rbp)
    993c:	7f 16                	jg     9954 <safe_mul_func_int64_t_s_s+0x58>
    993e:	48 b8 00 00 00 00 00 	movabs $0x8000000000000000,%rax
    9945:	00 00 80 
    9948:	48 99                	cqto   
    994a:	48 f7 7d f8          	idivq  -0x8(%rbp)
    994e:	48 39 45 f0          	cmp    %rax,-0x10(%rbp)
    9952:	7c 5a                	jl     99ae <safe_mul_func_int64_t_s_s+0xb2>
    9954:	48 83 7d f8 00       	cmpq   $0x0,-0x8(%rbp)
    9959:	7f 1d                	jg     9978 <safe_mul_func_int64_t_s_s+0x7c>
    995b:	48 83 7d f0 00       	cmpq   $0x0,-0x10(%rbp)
    9960:	7e 16                	jle    9978 <safe_mul_func_int64_t_s_s+0x7c>
    9962:	48 b8 00 00 00 00 00 	movabs $0x8000000000000000,%rax
    9969:	00 00 80 
    996c:	48 99                	cqto   
    996e:	48 f7 7d f0          	idivq  -0x10(%rbp)
    9972:	48 39 45 f8          	cmp    %rax,-0x8(%rbp)
    9976:	7c 36                	jl     99ae <safe_mul_func_int64_t_s_s+0xb2>
    9978:	48 83 7d f8 00       	cmpq   $0x0,-0x8(%rbp)
    997d:	7f 24                	jg     99a3 <safe_mul_func_int64_t_s_s+0xa7>
    997f:	48 83 7d f0 00       	cmpq   $0x0,-0x10(%rbp)
    9984:	7f 1d                	jg     99a3 <safe_mul_func_int64_t_s_s+0xa7>
    9986:	48 83 7d f8 00       	cmpq   $0x0,-0x8(%rbp)
    998b:	74 16                	je     99a3 <safe_mul_func_int64_t_s_s+0xa7>
    998d:	48 b8 ff ff ff ff ff 	movabs $0x7fffffffffffffff,%rax
    9994:	ff ff 7f 
    9997:	48 99                	cqto   
    9999:	48 f7 7d f8          	idivq  -0x8(%rbp)
    999d:	48 39 45 f0          	cmp    %rax,-0x10(%rbp)
    99a1:	7c 0b                	jl     99ae <safe_mul_func_int64_t_s_s+0xb2>
    99a3:	48 8b 45 f8          	mov    -0x8(%rbp),%rax
    99a7:	48 0f af 45 f0       	imul   -0x10(%rbp),%rax
    99ac:	eb 04                	jmp    99b2 <safe_mul_func_int64_t_s_s+0xb6>
    99ae:	48 8b 45 f8          	mov    -0x8(%rbp),%rax
    99b2:	5d                   	pop    %rbp
    99b3:	c3                   	retq   

00000000000099b4 <safe_mod_func_int64_t_s_s>:
    99b4:	f3 0f 1e fa          	endbr64 
    99b8:	55                   	push   %rbp
    99b9:	48 89 e5             	mov    %rsp,%rbp
    99bc:	48 89 7d f8          	mov    %rdi,-0x8(%rbp)
    99c0:	48 89 75 f0          	mov    %rsi,-0x10(%rbp)
    99c4:	48 83 7d f0 00       	cmpq   $0x0,-0x10(%rbp)
    99c9:	74 26                	je     99f1 <safe_mod_func_int64_t_s_s+0x3d>
    99cb:	48 b8 00 00 00 00 00 	movabs $0x8000000000000000,%rax
    99d2:	00 00 80 
    99d5:	48 39 45 f8          	cmp    %rax,-0x8(%rbp)
    99d9:	75 07                	jne    99e2 <safe_mod_func_int64_t_s_s+0x2e>
    99db:	48 83 7d f0 ff       	cmpq   $0xffffffffffffffff,-0x10(%rbp)
    99e0:	74 0f                	je     99f1 <safe_mod_func_int64_t_s_s+0x3d>
    99e2:	48 8b 45 f8          	mov    -0x8(%rbp),%rax
    99e6:	48 99                	cqto   
    99e8:	48 f7 7d f0          	idivq  -0x10(%rbp)
    99ec:	48 89 d0             	mov    %rdx,%rax
    99ef:	eb 04                	jmp    99f5 <safe_mod_func_int64_t_s_s+0x41>
    99f1:	48 8b 45 f8          	mov    -0x8(%rbp),%rax
    99f5:	5d                   	pop    %rbp
    99f6:	c3                   	retq   

00000000000099f7 <safe_div_func_int64_t_s_s>:
    99f7:	f3 0f 1e fa          	endbr64 
    99fb:	55                   	push   %rbp
    99fc:	48 89 e5             	mov    %rsp,%rbp
    99ff:	48 89 7d f8          	mov    %rdi,-0x8(%rbp)
    9a03:	48 89 75 f0          	mov    %rsi,-0x10(%rbp)
    9a07:	48 83 7d f0 00       	cmpq   $0x0,-0x10(%rbp)
    9a0c:	74 23                	je     9a31 <safe_div_func_int64_t_s_s+0x3a>
    9a0e:	48 b8 00 00 00 00 00 	movabs $0x8000000000000000,%rax
    9a15:	00 00 80 
    9a18:	48 39 45 f8          	cmp    %rax,-0x8(%rbp)
    9a1c:	75 07                	jne    9a25 <safe_div_func_int64_t_s_s+0x2e>
    9a1e:	48 83 7d f0 ff       	cmpq   $0xffffffffffffffff,-0x10(%rbp)
    9a23:	74 0c                	je     9a31 <safe_div_func_int64_t_s_s+0x3a>
    9a25:	48 8b 45 f8          	mov    -0x8(%rbp),%rax
    9a29:	48 99                	cqto   
    9a2b:	48 f7 7d f0          	idivq  -0x10(%rbp)
    9a2f:	eb 04                	jmp    9a35 <safe_div_func_int64_t_s_s+0x3e>
    9a31:	48 8b 45 f8          	mov    -0x8(%rbp),%rax
    9a35:	5d                   	pop    %rbp
    9a36:	c3                   	retq   

0000000000009a37 <safe_lshift_func_int64_t_s_s>:
    9a37:	f3 0f 1e fa          	endbr64 
    9a3b:	55                   	push   %rbp
    9a3c:	48 89 e5             	mov    %rsp,%rbp
    9a3f:	48 89 7d f8          	mov    %rdi,-0x8(%rbp)
    9a43:	89 75 f4             	mov    %esi,-0xc(%rbp)
    9a46:	48 83 7d f8 00       	cmpq   $0x0,-0x8(%rbp)
    9a4b:	78 38                	js     9a85 <safe_lshift_func_int64_t_s_s+0x4e>
    9a4d:	83 7d f4 00          	cmpl   $0x0,-0xc(%rbp)
    9a51:	78 32                	js     9a85 <safe_lshift_func_int64_t_s_s+0x4e>
    9a53:	83 7d f4 1f          	cmpl   $0x1f,-0xc(%rbp)
    9a57:	7f 2c                	jg     9a85 <safe_lshift_func_int64_t_s_s+0x4e>
    9a59:	8b 45 f4             	mov    -0xc(%rbp),%eax
    9a5c:	48 ba ff ff ff ff ff 	movabs $0x7fffffffffffffff,%rdx
    9a63:	ff ff 7f 
    9a66:	89 c1                	mov    %eax,%ecx
    9a68:	48 d3 fa             	sar    %cl,%rdx
    9a6b:	48 89 d0             	mov    %rdx,%rax
    9a6e:	48 39 45 f8          	cmp    %rax,-0x8(%rbp)
    9a72:	7f 11                	jg     9a85 <safe_lshift_func_int64_t_s_s+0x4e>
    9a74:	8b 45 f4             	mov    -0xc(%rbp),%eax
    9a77:	48 8b 55 f8          	mov    -0x8(%rbp),%rdx
    9a7b:	89 c1                	mov    %eax,%ecx
    9a7d:	48 d3 e2             	shl    %cl,%rdx
    9a80:	48 89 d0             	mov    %rdx,%rax
    9a83:	eb 04                	jmp    9a89 <safe_lshift_func_int64_t_s_s+0x52>
    9a85:	48 8b 45 f8          	mov    -0x8(%rbp),%rax
    9a89:	5d                   	pop    %rbp
    9a8a:	c3                   	retq   

0000000000009a8b <safe_lshift_func_int64_t_s_u>:
    9a8b:	f3 0f 1e fa          	endbr64 
    9a8f:	55                   	push   %rbp
    9a90:	48 89 e5             	mov    %rsp,%rbp
    9a93:	48 89 7d f8          	mov    %rdi,-0x8(%rbp)
    9a97:	89 75 f4             	mov    %esi,-0xc(%rbp)
    9a9a:	48 83 7d f8 00       	cmpq   $0x0,-0x8(%rbp)
    9a9f:	78 32                	js     9ad3 <safe_lshift_func_int64_t_s_u+0x48>
    9aa1:	83 7d f4 1f          	cmpl   $0x1f,-0xc(%rbp)
    9aa5:	77 2c                	ja     9ad3 <safe_lshift_func_int64_t_s_u+0x48>
    9aa7:	8b 45 f4             	mov    -0xc(%rbp),%eax
    9aaa:	48 ba ff ff ff ff ff 	movabs $0x7fffffffffffffff,%rdx
    9ab1:	ff ff 7f 
    9ab4:	89 c1                	mov    %eax,%ecx
    9ab6:	48 d3 fa             	sar    %cl,%rdx
    9ab9:	48 89 d0             	mov    %rdx,%rax
    9abc:	48 39 45 f8          	cmp    %rax,-0x8(%rbp)
    9ac0:	7f 11                	jg     9ad3 <safe_lshift_func_int64_t_s_u+0x48>
    9ac2:	8b 45 f4             	mov    -0xc(%rbp),%eax
    9ac5:	48 8b 55 f8          	mov    -0x8(%rbp),%rdx
    9ac9:	89 c1                	mov    %eax,%ecx
    9acb:	48 d3 e2             	shl    %cl,%rdx
    9ace:	48 89 d0             	mov    %rdx,%rax
    9ad1:	eb 04                	jmp    9ad7 <safe_lshift_func_int64_t_s_u+0x4c>
    9ad3:	48 8b 45 f8          	mov    -0x8(%rbp),%rax
    9ad7:	5d                   	pop    %rbp
    9ad8:	c3                   	retq   

0000000000009ad9 <safe_rshift_func_int64_t_s_s>:
    9ad9:	f3 0f 1e fa          	endbr64 
    9add:	55                   	push   %rbp
    9ade:	48 89 e5             	mov    %rsp,%rbp
    9ae1:	48 89 7d f8          	mov    %rdi,-0x8(%rbp)
    9ae5:	89 75 f4             	mov    %esi,-0xc(%rbp)
    9ae8:	48 83 7d f8 00       	cmpq   $0x0,-0x8(%rbp)
    9aed:	78 1d                	js     9b0c <safe_rshift_func_int64_t_s_s+0x33>
    9aef:	83 7d f4 00          	cmpl   $0x0,-0xc(%rbp)
    9af3:	78 17                	js     9b0c <safe_rshift_func_int64_t_s_s+0x33>
    9af5:	83 7d f4 1f          	cmpl   $0x1f,-0xc(%rbp)
    9af9:	7f 11                	jg     9b0c <safe_rshift_func_int64_t_s_s+0x33>
    9afb:	8b 45 f4             	mov    -0xc(%rbp),%eax
    9afe:	48 8b 55 f8          	mov    -0x8(%rbp),%rdx
    9b02:	89 c1                	mov    %eax,%ecx
    9b04:	48 d3 fa             	sar    %cl,%rdx
    9b07:	48 89 d0             	mov    %rdx,%rax
    9b0a:	eb 04                	jmp    9b10 <safe_rshift_func_int64_t_s_s+0x37>
    9b0c:	48 8b 45 f8          	mov    -0x8(%rbp),%rax
    9b10:	5d                   	pop    %rbp
    9b11:	c3                   	retq   

0000000000009b12 <safe_rshift_func_int64_t_s_u>:
    9b12:	f3 0f 1e fa          	endbr64 
    9b16:	55                   	push   %rbp
    9b17:	48 89 e5             	mov    %rsp,%rbp
    9b1a:	48 89 7d f8          	mov    %rdi,-0x8(%rbp)
    9b1e:	89 75 f4             	mov    %esi,-0xc(%rbp)
    9b21:	48 83 7d f8 00       	cmpq   $0x0,-0x8(%rbp)
    9b26:	78 17                	js     9b3f <safe_rshift_func_int64_t_s_u+0x2d>
    9b28:	83 7d f4 1f          	cmpl   $0x1f,-0xc(%rbp)
    9b2c:	77 11                	ja     9b3f <safe_rshift_func_int64_t_s_u+0x2d>
    9b2e:	8b 45 f4             	mov    -0xc(%rbp),%eax
    9b31:	48 8b 55 f8          	mov    -0x8(%rbp),%rdx
    9b35:	89 c1                	mov    %eax,%ecx
    9b37:	48 d3 fa             	sar    %cl,%rdx
    9b3a:	48 89 d0             	mov    %rdx,%rax
    9b3d:	eb 04                	jmp    9b43 <safe_rshift_func_int64_t_s_u+0x31>
    9b3f:	48 8b 45 f8          	mov    -0x8(%rbp),%rax
    9b43:	5d                   	pop    %rbp
    9b44:	c3                   	retq   

0000000000009b45 <safe_unary_minus_func_uint8_t_u>:
    9b45:	f3 0f 1e fa          	endbr64 
    9b49:	55                   	push   %rbp
    9b4a:	48 89 e5             	mov    %rsp,%rbp
    9b4d:	89 f8                	mov    %edi,%eax
    9b4f:	88 45 fc             	mov    %al,-0x4(%rbp)
    9b52:	0f b6 45 fc          	movzbl -0x4(%rbp),%eax
    9b56:	f7 d8                	neg    %eax
    9b58:	5d                   	pop    %rbp
    9b59:	c3                   	retq   

0000000000009b5a <safe_add_func_uint8_t_u_u>:
    9b5a:	f3 0f 1e fa          	endbr64 
    9b5e:	55                   	push   %rbp
    9b5f:	48 89 e5             	mov    %rsp,%rbp
    9b62:	89 fa                	mov    %edi,%edx
    9b64:	89 f0                	mov    %esi,%eax
    9b66:	88 55 fc             	mov    %dl,-0x4(%rbp)
    9b69:	88 45 f8             	mov    %al,-0x8(%rbp)
    9b6c:	0f b6 55 fc          	movzbl -0x4(%rbp),%edx
    9b70:	0f b6 45 f8          	movzbl -0x8(%rbp),%eax
    9b74:	01 d0                	add    %edx,%eax
    9b76:	5d                   	pop    %rbp
    9b77:	c3                   	retq   

0000000000009b78 <safe_sub_func_uint8_t_u_u>:
    9b78:	f3 0f 1e fa          	endbr64 
    9b7c:	55                   	push   %rbp
    9b7d:	48 89 e5             	mov    %rsp,%rbp
    9b80:	89 fa                	mov    %edi,%edx
    9b82:	89 f0                	mov    %esi,%eax
    9b84:	88 55 fc             	mov    %dl,-0x4(%rbp)
    9b87:	88 45 f8             	mov    %al,-0x8(%rbp)
    9b8a:	0f b6 45 fc          	movzbl -0x4(%rbp),%eax
    9b8e:	2a 45 f8             	sub    -0x8(%rbp),%al
    9b91:	5d                   	pop    %rbp
    9b92:	c3                   	retq   

0000000000009b93 <safe_mul_func_uint8_t_u_u>:
    9b93:	f3 0f 1e fa          	endbr64 
    9b97:	55                   	push   %rbp
    9b98:	48 89 e5             	mov    %rsp,%rbp
    9b9b:	89 fa                	mov    %edi,%edx
    9b9d:	89 f0                	mov    %esi,%eax
    9b9f:	88 55 fc             	mov    %dl,-0x4(%rbp)
    9ba2:	88 45 f8             	mov    %al,-0x8(%rbp)
    9ba5:	0f b6 45 fc          	movzbl -0x4(%rbp),%eax
    9ba9:	f6 65 f8             	mulb   -0x8(%rbp)
    9bac:	5d                   	pop    %rbp
    9bad:	c3                   	retq   

0000000000009bae <safe_mod_func_uint8_t_u_u>:
    9bae:	f3 0f 1e fa          	endbr64 
    9bb2:	55                   	push   %rbp
    9bb3:	48 89 e5             	mov    %rsp,%rbp
    9bb6:	89 fa                	mov    %edi,%edx
    9bb8:	89 f0                	mov    %esi,%eax
    9bba:	88 55 fc             	mov    %dl,-0x4(%rbp)
    9bbd:	88 45 f8             	mov    %al,-0x8(%rbp)
    9bc0:	80 7d f8 00          	cmpb   $0x0,-0x8(%rbp)
    9bc4:	74 0f                	je     9bd5 <safe_mod_func_uint8_t_u_u+0x27>
    9bc6:	0f b6 45 fc          	movzbl -0x4(%rbp),%eax
    9bca:	0f b6 c0             	movzbl %al,%eax
    9bcd:	f6 75 f8             	divb   -0x8(%rbp)
    9bd0:	0f b6 c4             	movzbl %ah,%eax
    9bd3:	eb 04                	jmp    9bd9 <safe_mod_func_uint8_t_u_u+0x2b>
    9bd5:	0f b6 45 fc          	movzbl -0x4(%rbp),%eax
    9bd9:	5d                   	pop    %rbp
    9bda:	c3                   	retq   

0000000000009bdb <safe_div_func_uint8_t_u_u>:
    9bdb:	f3 0f 1e fa          	endbr64 
    9bdf:	55                   	push   %rbp
    9be0:	48 89 e5             	mov    %rsp,%rbp
    9be3:	89 fa                	mov    %edi,%edx
    9be5:	89 f0                	mov    %esi,%eax
    9be7:	88 55 fc             	mov    %dl,-0x4(%rbp)
    9bea:	88 45 f8             	mov    %al,-0x8(%rbp)
    9bed:	80 7d f8 00          	cmpb   $0x0,-0x8(%rbp)
    9bf1:	74 0c                	je     9bff <safe_div_func_uint8_t_u_u+0x24>
    9bf3:	0f b6 45 fc          	movzbl -0x4(%rbp),%eax
    9bf7:	0f b6 c0             	movzbl %al,%eax
    9bfa:	f6 75 f8             	divb   -0x8(%rbp)
    9bfd:	eb 04                	jmp    9c03 <safe_div_func_uint8_t_u_u+0x28>
    9bff:	0f b6 45 fc          	movzbl -0x4(%rbp),%eax
    9c03:	5d                   	pop    %rbp
    9c04:	c3                   	retq   

0000000000009c05 <safe_lshift_func_uint8_t_u_s>:
    9c05:	f3 0f 1e fa          	endbr64 
    9c09:	55                   	push   %rbp
    9c0a:	48 89 e5             	mov    %rsp,%rbp
    9c0d:	89 f8                	mov    %edi,%eax
    9c0f:	89 75 f8             	mov    %esi,-0x8(%rbp)
    9c12:	88 45 fc             	mov    %al,-0x4(%rbp)
    9c15:	83 7d f8 00          	cmpl   $0x0,-0x8(%rbp)
    9c19:	78 2b                	js     9c46 <safe_lshift_func_uint8_t_u_s+0x41>
    9c1b:	83 7d f8 1f          	cmpl   $0x1f,-0x8(%rbp)
    9c1f:	7f 25                	jg     9c46 <safe_lshift_func_uint8_t_u_s+0x41>
    9c21:	0f b6 55 fc          	movzbl -0x4(%rbp),%edx
    9c25:	8b 45 f8             	mov    -0x8(%rbp),%eax
    9c28:	be ff 00 00 00       	mov    $0xff,%esi
    9c2d:	89 c1                	mov    %eax,%ecx
    9c2f:	d3 fe                	sar    %cl,%esi
    9c31:	89 f0                	mov    %esi,%eax
    9c33:	39 c2                	cmp    %eax,%edx
    9c35:	7f 0f                	jg     9c46 <safe_lshift_func_uint8_t_u_s+0x41>
    9c37:	0f b6 55 fc          	movzbl -0x4(%rbp),%edx
    9c3b:	8b 45 f8             	mov    -0x8(%rbp),%eax
    9c3e:	89 c1                	mov    %eax,%ecx
    9c40:	d3 e2                	shl    %cl,%edx
    9c42:	89 d0                	mov    %edx,%eax
    9c44:	eb 04                	jmp    9c4a <safe_lshift_func_uint8_t_u_s+0x45>
    9c46:	0f b6 45 fc          	movzbl -0x4(%rbp),%eax
    9c4a:	5d                   	pop    %rbp
    9c4b:	c3                   	retq   

0000000000009c4c <safe_lshift_func_uint8_t_u_u>:
    9c4c:	f3 0f 1e fa          	endbr64 
    9c50:	55                   	push   %rbp
    9c51:	48 89 e5             	mov    %rsp,%rbp
    9c54:	89 f8                	mov    %edi,%eax
    9c56:	89 75 f8             	mov    %esi,-0x8(%rbp)
    9c59:	88 45 fc             	mov    %al,-0x4(%rbp)
    9c5c:	83 7d f8 1f          	cmpl   $0x1f,-0x8(%rbp)
    9c60:	77 25                	ja     9c87 <safe_lshift_func_uint8_t_u_u+0x3b>
    9c62:	0f b6 55 fc          	movzbl -0x4(%rbp),%edx
    9c66:	8b 45 f8             	mov    -0x8(%rbp),%eax
    9c69:	be ff 00 00 00       	mov    $0xff,%esi
    9c6e:	89 c1                	mov    %eax,%ecx
    9c70:	d3 fe                	sar    %cl,%esi
    9c72:	89 f0                	mov    %esi,%eax
    9c74:	39 c2                	cmp    %eax,%edx
    9c76:	7f 0f                	jg     9c87 <safe_lshift_func_uint8_t_u_u+0x3b>
    9c78:	0f b6 55 fc          	movzbl -0x4(%rbp),%edx
    9c7c:	8b 45 f8             	mov    -0x8(%rbp),%eax
    9c7f:	89 c1                	mov    %eax,%ecx
    9c81:	d3 e2                	shl    %cl,%edx
    9c83:	89 d0                	mov    %edx,%eax
    9c85:	eb 04                	jmp    9c8b <safe_lshift_func_uint8_t_u_u+0x3f>
    9c87:	0f b6 45 fc          	movzbl -0x4(%rbp),%eax
    9c8b:	5d                   	pop    %rbp
    9c8c:	c3                   	retq   

0000000000009c8d <safe_rshift_func_uint8_t_u_s>:
    9c8d:	f3 0f 1e fa          	endbr64 
    9c91:	55                   	push   %rbp
    9c92:	48 89 e5             	mov    %rsp,%rbp
    9c95:	89 f8                	mov    %edi,%eax
    9c97:	89 75 f8             	mov    %esi,-0x8(%rbp)
    9c9a:	88 45 fc             	mov    %al,-0x4(%rbp)
    9c9d:	83 7d f8 00          	cmpl   $0x0,-0x8(%rbp)
    9ca1:	78 15                	js     9cb8 <safe_rshift_func_uint8_t_u_s+0x2b>
    9ca3:	83 7d f8 1f          	cmpl   $0x1f,-0x8(%rbp)
    9ca7:	7f 0f                	jg     9cb8 <safe_rshift_func_uint8_t_u_s+0x2b>
    9ca9:	0f b6 55 fc          	movzbl -0x4(%rbp),%edx
    9cad:	8b 45 f8             	mov    -0x8(%rbp),%eax
    9cb0:	89 c1                	mov    %eax,%ecx
    9cb2:	d3 fa                	sar    %cl,%edx
    9cb4:	89 d0                	mov    %edx,%eax
    9cb6:	eb 04                	jmp    9cbc <safe_rshift_func_uint8_t_u_s+0x2f>
    9cb8:	0f b6 45 fc          	movzbl -0x4(%rbp),%eax
    9cbc:	5d                   	pop    %rbp
    9cbd:	c3                   	retq   

0000000000009cbe <safe_rshift_func_uint8_t_u_u>:
    9cbe:	f3 0f 1e fa          	endbr64 
    9cc2:	55                   	push   %rbp
    9cc3:	48 89 e5             	mov    %rsp,%rbp
    9cc6:	89 f8                	mov    %edi,%eax
    9cc8:	89 75 f8             	mov    %esi,-0x8(%rbp)
    9ccb:	88 45 fc             	mov    %al,-0x4(%rbp)
    9cce:	83 7d f8 1f          	cmpl   $0x1f,-0x8(%rbp)
    9cd2:	77 0f                	ja     9ce3 <safe_rshift_func_uint8_t_u_u+0x25>
    9cd4:	0f b6 55 fc          	movzbl -0x4(%rbp),%edx
    9cd8:	8b 45 f8             	mov    -0x8(%rbp),%eax
    9cdb:	89 c1                	mov    %eax,%ecx
    9cdd:	d3 fa                	sar    %cl,%edx
    9cdf:	89 d0                	mov    %edx,%eax
    9ce1:	eb 04                	jmp    9ce7 <safe_rshift_func_uint8_t_u_u+0x29>
    9ce3:	0f b6 45 fc          	movzbl -0x4(%rbp),%eax
    9ce7:	5d                   	pop    %rbp
    9ce8:	c3                   	retq   

0000000000009ce9 <safe_unary_minus_func_uint16_t_u>:
    9ce9:	f3 0f 1e fa          	endbr64 
    9ced:	55                   	push   %rbp
    9cee:	48 89 e5             	mov    %rsp,%rbp
    9cf1:	89 f8                	mov    %edi,%eax
    9cf3:	66 89 45 fc          	mov    %ax,-0x4(%rbp)
    9cf7:	0f b7 45 fc          	movzwl -0x4(%rbp),%eax
    9cfb:	f7 d8                	neg    %eax
    9cfd:	5d                   	pop    %rbp
    9cfe:	c3                   	retq   

0000000000009cff <safe_add_func_uint16_t_u_u>:
    9cff:	f3 0f 1e fa          	endbr64 
    9d03:	55                   	push   %rbp
    9d04:	48 89 e5             	mov    %rsp,%rbp
    9d07:	89 fa                	mov    %edi,%edx
    9d09:	89 f0                	mov    %esi,%eax
    9d0b:	66 89 55 fc          	mov    %dx,-0x4(%rbp)
    9d0f:	66 89 45 f8          	mov    %ax,-0x8(%rbp)
    9d13:	0f b7 55 fc          	movzwl -0x4(%rbp),%edx
    9d17:	0f b7 45 f8          	movzwl -0x8(%rbp),%eax
    9d1b:	01 d0                	add    %edx,%eax
    9d1d:	5d                   	pop    %rbp
    9d1e:	c3                   	retq   

0000000000009d1f <safe_sub_func_uint16_t_u_u>:
    9d1f:	f3 0f 1e fa          	endbr64 
    9d23:	55                   	push   %rbp
    9d24:	48 89 e5             	mov    %rsp,%rbp
    9d27:	89 fa                	mov    %edi,%edx
    9d29:	89 f0                	mov    %esi,%eax
    9d2b:	66 89 55 fc          	mov    %dx,-0x4(%rbp)
    9d2f:	66 89 45 f8          	mov    %ax,-0x8(%rbp)
    9d33:	0f b7 45 fc          	movzwl -0x4(%rbp),%eax
    9d37:	66 2b 45 f8          	sub    -0x8(%rbp),%ax
    9d3b:	5d                   	pop    %rbp
    9d3c:	c3                   	retq   

0000000000009d3d <safe_mul_func_uint16_t_u_u>:
    9d3d:	f3 0f 1e fa          	endbr64 
    9d41:	55                   	push   %rbp
    9d42:	48 89 e5             	mov    %rsp,%rbp
    9d45:	89 fa                	mov    %edi,%edx
    9d47:	89 f0                	mov    %esi,%eax
    9d49:	66 89 55 fc          	mov    %dx,-0x4(%rbp)
    9d4d:	66 89 45 f8          	mov    %ax,-0x8(%rbp)
    9d51:	0f b7 45 fc          	movzwl -0x4(%rbp),%eax
    9d55:	66 0f af 45 f8       	imul   -0x8(%rbp),%ax
    9d5a:	5d                   	pop    %rbp
    9d5b:	c3                   	retq   

0000000000009d5c <safe_mod_func_uint16_t_u_u>:
    9d5c:	f3 0f 1e fa          	endbr64 
    9d60:	55                   	push   %rbp
    9d61:	48 89 e5             	mov    %rsp,%rbp
    9d64:	89 fa                	mov    %edi,%edx
    9d66:	89 f0                	mov    %esi,%eax
    9d68:	66 89 55 fc          	mov    %dx,-0x4(%rbp)
    9d6c:	66 89 45 f8          	mov    %ax,-0x8(%rbp)
    9d70:	66 83 7d f8 00       	cmpw   $0x0,-0x8(%rbp)
    9d75:	74 11                	je     9d88 <safe_mod_func_uint16_t_u_u+0x2c>
    9d77:	0f b7 45 fc          	movzwl -0x4(%rbp),%eax
    9d7b:	ba 00 00 00 00       	mov    $0x0,%edx
    9d80:	66 f7 75 f8          	divw   -0x8(%rbp)
    9d84:	89 d0                	mov    %edx,%eax
    9d86:	eb 04                	jmp    9d8c <safe_mod_func_uint16_t_u_u+0x30>
    9d88:	0f b7 45 fc          	movzwl -0x4(%rbp),%eax
    9d8c:	5d                   	pop    %rbp
    9d8d:	c3                   	retq   

0000000000009d8e <safe_div_func_uint16_t_u_u>:
    9d8e:	f3 0f 1e fa          	endbr64 
    9d92:	55                   	push   %rbp
    9d93:	48 89 e5             	mov    %rsp,%rbp
    9d96:	89 fa                	mov    %edi,%edx
    9d98:	89 f0                	mov    %esi,%eax
    9d9a:	66 89 55 fc          	mov    %dx,-0x4(%rbp)
    9d9e:	66 89 45 f8          	mov    %ax,-0x8(%rbp)
    9da2:	66 83 7d f8 00       	cmpw   $0x0,-0x8(%rbp)
    9da7:	74 0f                	je     9db8 <safe_div_func_uint16_t_u_u+0x2a>
    9da9:	0f b7 45 fc          	movzwl -0x4(%rbp),%eax
    9dad:	ba 00 00 00 00       	mov    $0x0,%edx
    9db2:	66 f7 75 f8          	divw   -0x8(%rbp)
    9db6:	eb 04                	jmp    9dbc <safe_div_func_uint16_t_u_u+0x2e>
    9db8:	0f b7 45 fc          	movzwl -0x4(%rbp),%eax
    9dbc:	5d                   	pop    %rbp
    9dbd:	c3                   	retq   

0000000000009dbe <safe_lshift_func_uint16_t_u_s>:
    9dbe:	f3 0f 1e fa          	endbr64 
    9dc2:	55                   	push   %rbp
    9dc3:	48 89 e5             	mov    %rsp,%rbp
    9dc6:	89 f8                	mov    %edi,%eax
    9dc8:	89 75 f8             	mov    %esi,-0x8(%rbp)
    9dcb:	66 89 45 fc          	mov    %ax,-0x4(%rbp)
    9dcf:	83 7d f8 00          	cmpl   $0x0,-0x8(%rbp)
    9dd3:	78 2b                	js     9e00 <safe_lshift_func_uint16_t_u_s+0x42>
    9dd5:	83 7d f8 1f          	cmpl   $0x1f,-0x8(%rbp)
    9dd9:	7f 25                	jg     9e00 <safe_lshift_func_uint16_t_u_s+0x42>
    9ddb:	0f b7 55 fc          	movzwl -0x4(%rbp),%edx
    9ddf:	8b 45 f8             	mov    -0x8(%rbp),%eax
    9de2:	be ff ff 00 00       	mov    $0xffff,%esi
    9de7:	89 c1                	mov    %eax,%ecx
    9de9:	d3 fe                	sar    %cl,%esi
    9deb:	89 f0                	mov    %esi,%eax
    9ded:	39 c2                	cmp    %eax,%edx
    9def:	7f 0f                	jg     9e00 <safe_lshift_func_uint16_t_u_s+0x42>
    9df1:	0f b7 55 fc          	movzwl -0x4(%rbp),%edx
    9df5:	8b 45 f8             	mov    -0x8(%rbp),%eax
    9df8:	89 c1                	mov    %eax,%ecx
    9dfa:	d3 e2                	shl    %cl,%edx
    9dfc:	89 d0                	mov    %edx,%eax
    9dfe:	eb 04                	jmp    9e04 <safe_lshift_func_uint16_t_u_s+0x46>
    9e00:	0f b7 45 fc          	movzwl -0x4(%rbp),%eax
    9e04:	5d                   	pop    %rbp
    9e05:	c3                   	retq   

0000000000009e06 <safe_lshift_func_uint16_t_u_u>:
    9e06:	f3 0f 1e fa          	endbr64 
    9e0a:	55                   	push   %rbp
    9e0b:	48 89 e5             	mov    %rsp,%rbp
    9e0e:	89 f8                	mov    %edi,%eax
    9e10:	89 75 f8             	mov    %esi,-0x8(%rbp)
    9e13:	66 89 45 fc          	mov    %ax,-0x4(%rbp)
    9e17:	83 7d f8 1f          	cmpl   $0x1f,-0x8(%rbp)
    9e1b:	77 25                	ja     9e42 <safe_lshift_func_uint16_t_u_u+0x3c>
    9e1d:	0f b7 55 fc          	movzwl -0x4(%rbp),%edx
    9e21:	8b 45 f8             	mov    -0x8(%rbp),%eax
    9e24:	be ff ff 00 00       	mov    $0xffff,%esi
    9e29:	89 c1                	mov    %eax,%ecx
    9e2b:	d3 fe                	sar    %cl,%esi
    9e2d:	89 f0                	mov    %esi,%eax
    9e2f:	39 c2                	cmp    %eax,%edx
    9e31:	7f 0f                	jg     9e42 <safe_lshift_func_uint16_t_u_u+0x3c>
    9e33:	0f b7 55 fc          	movzwl -0x4(%rbp),%edx
    9e37:	8b 45 f8             	mov    -0x8(%rbp),%eax
    9e3a:	89 c1                	mov    %eax,%ecx
    9e3c:	d3 e2                	shl    %cl,%edx
    9e3e:	89 d0                	mov    %edx,%eax
    9e40:	eb 04                	jmp    9e46 <safe_lshift_func_uint16_t_u_u+0x40>
    9e42:	0f b7 45 fc          	movzwl -0x4(%rbp),%eax
    9e46:	5d                   	pop    %rbp
    9e47:	c3                   	retq   

0000000000009e48 <safe_rshift_func_uint16_t_u_s>:
    9e48:	f3 0f 1e fa          	endbr64 
    9e4c:	55                   	push   %rbp
    9e4d:	48 89 e5             	mov    %rsp,%rbp
    9e50:	89 f8                	mov    %edi,%eax
    9e52:	89 75 f8             	mov    %esi,-0x8(%rbp)
    9e55:	66 89 45 fc          	mov    %ax,-0x4(%rbp)
    9e59:	83 7d f8 00          	cmpl   $0x0,-0x8(%rbp)
    9e5d:	78 15                	js     9e74 <safe_rshift_func_uint16_t_u_s+0x2c>
    9e5f:	83 7d f8 1f          	cmpl   $0x1f,-0x8(%rbp)
    9e63:	7f 0f                	jg     9e74 <safe_rshift_func_uint16_t_u_s+0x2c>
    9e65:	0f b7 55 fc          	movzwl -0x4(%rbp),%edx
    9e69:	8b 45 f8             	mov    -0x8(%rbp),%eax
    9e6c:	89 c1                	mov    %eax,%ecx
    9e6e:	d3 fa                	sar    %cl,%edx
    9e70:	89 d0                	mov    %edx,%eax
    9e72:	eb 04                	jmp    9e78 <safe_rshift_func_uint16_t_u_s+0x30>
    9e74:	0f b7 45 fc          	movzwl -0x4(%rbp),%eax
    9e78:	5d                   	pop    %rbp
    9e79:	c3                   	retq   

0000000000009e7a <safe_rshift_func_uint16_t_u_u>:
    9e7a:	f3 0f 1e fa          	endbr64 
    9e7e:	55                   	push   %rbp
    9e7f:	48 89 e5             	mov    %rsp,%rbp
    9e82:	89 f8                	mov    %edi,%eax
    9e84:	89 75 f8             	mov    %esi,-0x8(%rbp)
    9e87:	66 89 45 fc          	mov    %ax,-0x4(%rbp)
    9e8b:	83 7d f8 1f          	cmpl   $0x1f,-0x8(%rbp)
    9e8f:	77 0f                	ja     9ea0 <safe_rshift_func_uint16_t_u_u+0x26>
    9e91:	0f b7 55 fc          	movzwl -0x4(%rbp),%edx
    9e95:	8b 45 f8             	mov    -0x8(%rbp),%eax
    9e98:	89 c1                	mov    %eax,%ecx
    9e9a:	d3 fa                	sar    %cl,%edx
    9e9c:	89 d0                	mov    %edx,%eax
    9e9e:	eb 04                	jmp    9ea4 <safe_rshift_func_uint16_t_u_u+0x2a>
    9ea0:	0f b7 45 fc          	movzwl -0x4(%rbp),%eax
    9ea4:	5d                   	pop    %rbp
    9ea5:	c3                   	retq   

0000000000009ea6 <safe_unary_minus_func_uint32_t_u>:
    9ea6:	f3 0f 1e fa          	endbr64 
    9eaa:	55                   	push   %rbp
    9eab:	48 89 e5             	mov    %rsp,%rbp
    9eae:	89 7d fc             	mov    %edi,-0x4(%rbp)
    9eb1:	8b 45 fc             	mov    -0x4(%rbp),%eax
    9eb4:	f7 d8                	neg    %eax
    9eb6:	5d                   	pop    %rbp
    9eb7:	c3                   	retq   

0000000000009eb8 <safe_add_func_uint32_t_u_u>:
    9eb8:	f3 0f 1e fa          	endbr64 
    9ebc:	55                   	push   %rbp
    9ebd:	48 89 e5             	mov    %rsp,%rbp
    9ec0:	89 7d fc             	mov    %edi,-0x4(%rbp)
    9ec3:	89 75 f8             	mov    %esi,-0x8(%rbp)
    9ec6:	8b 55 fc             	mov    -0x4(%rbp),%edx
    9ec9:	8b 45 f8             	mov    -0x8(%rbp),%eax
    9ecc:	01 d0                	add    %edx,%eax
    9ece:	5d                   	pop    %rbp
    9ecf:	c3                   	retq   

0000000000009ed0 <safe_sub_func_uint32_t_u_u>:
    9ed0:	f3 0f 1e fa          	endbr64 
    9ed4:	55                   	push   %rbp
    9ed5:	48 89 e5             	mov    %rsp,%rbp
    9ed8:	89 7d fc             	mov    %edi,-0x4(%rbp)
    9edb:	89 75 f8             	mov    %esi,-0x8(%rbp)
    9ede:	8b 45 fc             	mov    -0x4(%rbp),%eax
    9ee1:	2b 45 f8             	sub    -0x8(%rbp),%eax
    9ee4:	5d                   	pop    %rbp
    9ee5:	c3                   	retq   

0000000000009ee6 <safe_mul_func_uint32_t_u_u>:
    9ee6:	f3 0f 1e fa          	endbr64 
    9eea:	55                   	push   %rbp
    9eeb:	48 89 e5             	mov    %rsp,%rbp
    9eee:	89 7d fc             	mov    %edi,-0x4(%rbp)
    9ef1:	89 75 f8             	mov    %esi,-0x8(%rbp)
    9ef4:	8b 45 fc             	mov    -0x4(%rbp),%eax
    9ef7:	0f af 45 f8          	imul   -0x8(%rbp),%eax
    9efb:	5d                   	pop    %rbp
    9efc:	c3                   	retq   

0000000000009efd <safe_mod_func_uint32_t_u_u>:
    9efd:	f3 0f 1e fa          	endbr64 
    9f01:	55                   	push   %rbp
    9f02:	48 89 e5             	mov    %rsp,%rbp
    9f05:	89 7d fc             	mov    %edi,-0x4(%rbp)
    9f08:	89 75 f8             	mov    %esi,-0x8(%rbp)
    9f0b:	83 7d f8 00          	cmpl   $0x0,-0x8(%rbp)
    9f0f:	74 0f                	je     9f20 <safe_mod_func_uint32_t_u_u+0x23>
    9f11:	8b 45 fc             	mov    -0x4(%rbp),%eax
    9f14:	ba 00 00 00 00       	mov    $0x0,%edx
    9f19:	f7 75 f8             	divl   -0x8(%rbp)
    9f1c:	89 d0                	mov    %edx,%eax
    9f1e:	eb 03                	jmp    9f23 <safe_mod_func_uint32_t_u_u+0x26>
    9f20:	8b 45 fc             	mov    -0x4(%rbp),%eax
    9f23:	5d                   	pop    %rbp
    9f24:	c3                   	retq   

0000000000009f25 <safe_div_func_uint32_t_u_u>:
    9f25:	f3 0f 1e fa          	endbr64 
    9f29:	55                   	push   %rbp
    9f2a:	48 89 e5             	mov    %rsp,%rbp
    9f2d:	89 7d fc             	mov    %edi,-0x4(%rbp)
    9f30:	89 75 f8             	mov    %esi,-0x8(%rbp)
    9f33:	83 7d f8 00          	cmpl   $0x0,-0x8(%rbp)
    9f37:	74 0d                	je     9f46 <safe_div_func_uint32_t_u_u+0x21>
    9f39:	8b 45 fc             	mov    -0x4(%rbp),%eax
    9f3c:	ba 00 00 00 00       	mov    $0x0,%edx
    9f41:	f7 75 f8             	divl   -0x8(%rbp)
    9f44:	eb 03                	jmp    9f49 <safe_div_func_uint32_t_u_u+0x24>
    9f46:	8b 45 fc             	mov    -0x4(%rbp),%eax
    9f49:	5d                   	pop    %rbp
    9f4a:	c3                   	retq   

0000000000009f4b <safe_lshift_func_uint32_t_u_s>:
    9f4b:	f3 0f 1e fa          	endbr64 
    9f4f:	55                   	push   %rbp
    9f50:	48 89 e5             	mov    %rsp,%rbp
    9f53:	89 7d fc             	mov    %edi,-0x4(%rbp)
    9f56:	89 75 f8             	mov    %esi,-0x8(%rbp)
    9f59:	83 7d f8 00          	cmpl   $0x0,-0x8(%rbp)
    9f5d:	78 27                	js     9f86 <safe_lshift_func_uint32_t_u_s+0x3b>
    9f5f:	83 7d f8 1f          	cmpl   $0x1f,-0x8(%rbp)
    9f63:	7f 21                	jg     9f86 <safe_lshift_func_uint32_t_u_s+0x3b>
    9f65:	8b 45 f8             	mov    -0x8(%rbp),%eax
    9f68:	ba ff ff ff ff       	mov    $0xffffffff,%edx
    9f6d:	89 c1                	mov    %eax,%ecx
    9f6f:	d3 ea                	shr    %cl,%edx
    9f71:	89 d0                	mov    %edx,%eax
    9f73:	39 45 fc             	cmp    %eax,-0x4(%rbp)
    9f76:	77 0e                	ja     9f86 <safe_lshift_func_uint32_t_u_s+0x3b>
    9f78:	8b 45 f8             	mov    -0x8(%rbp),%eax
    9f7b:	8b 55 fc             	mov    -0x4(%rbp),%edx
    9f7e:	89 c1                	mov    %eax,%ecx
    9f80:	d3 e2                	shl    %cl,%edx
    9f82:	89 d0                	mov    %edx,%eax
    9f84:	eb 03                	jmp    9f89 <safe_lshift_func_uint32_t_u_s+0x3e>
    9f86:	8b 45 fc             	mov    -0x4(%rbp),%eax
    9f89:	5d                   	pop    %rbp
    9f8a:	c3                   	retq   

0000000000009f8b <safe_lshift_func_uint32_t_u_u>:
    9f8b:	f3 0f 1e fa          	endbr64 
    9f8f:	55                   	push   %rbp
    9f90:	48 89 e5             	mov    %rsp,%rbp
    9f93:	89 7d fc             	mov    %edi,-0x4(%rbp)
    9f96:	89 75 f8             	mov    %esi,-0x8(%rbp)
    9f99:	83 7d f8 1f          	cmpl   $0x1f,-0x8(%rbp)
    9f9d:	77 21                	ja     9fc0 <safe_lshift_func_uint32_t_u_u+0x35>
    9f9f:	8b 45 f8             	mov    -0x8(%rbp),%eax
    9fa2:	ba ff ff ff ff       	mov    $0xffffffff,%edx
    9fa7:	89 c1                	mov    %eax,%ecx
    9fa9:	d3 ea                	shr    %cl,%edx
    9fab:	89 d0                	mov    %edx,%eax
    9fad:	39 45 fc             	cmp    %eax,-0x4(%rbp)
    9fb0:	77 0e                	ja     9fc0 <safe_lshift_func_uint32_t_u_u+0x35>
    9fb2:	8b 45 f8             	mov    -0x8(%rbp),%eax
    9fb5:	8b 55 fc             	mov    -0x4(%rbp),%edx
    9fb8:	89 c1                	mov    %eax,%ecx
    9fba:	d3 e2                	shl    %cl,%edx
    9fbc:	89 d0                	mov    %edx,%eax
    9fbe:	eb 03                	jmp    9fc3 <safe_lshift_func_uint32_t_u_u+0x38>
    9fc0:	8b 45 fc             	mov    -0x4(%rbp),%eax
    9fc3:	5d                   	pop    %rbp
    9fc4:	c3                   	retq   

0000000000009fc5 <safe_rshift_func_uint32_t_u_s>:
    9fc5:	f3 0f 1e fa          	endbr64 
    9fc9:	55                   	push   %rbp
    9fca:	48 89 e5             	mov    %rsp,%rbp
    9fcd:	89 7d fc             	mov    %edi,-0x4(%rbp)
    9fd0:	89 75 f8             	mov    %esi,-0x8(%rbp)
    9fd3:	83 7d f8 00          	cmpl   $0x0,-0x8(%rbp)
    9fd7:	78 14                	js     9fed <safe_rshift_func_uint32_t_u_s+0x28>
    9fd9:	83 7d f8 1f          	cmpl   $0x1f,-0x8(%rbp)
    9fdd:	7f 0e                	jg     9fed <safe_rshift_func_uint32_t_u_s+0x28>
    9fdf:	8b 45 f8             	mov    -0x8(%rbp),%eax
    9fe2:	8b 55 fc             	mov    -0x4(%rbp),%edx
    9fe5:	89 c1                	mov    %eax,%ecx
    9fe7:	d3 ea                	shr    %cl,%edx
    9fe9:	89 d0                	mov    %edx,%eax
    9feb:	eb 03                	jmp    9ff0 <safe_rshift_func_uint32_t_u_s+0x2b>
    9fed:	8b 45 fc             	mov    -0x4(%rbp),%eax
    9ff0:	5d                   	pop    %rbp
    9ff1:	c3                   	retq   

0000000000009ff2 <safe_rshift_func_uint32_t_u_u>:
    9ff2:	f3 0f 1e fa          	endbr64 
    9ff6:	55                   	push   %rbp
    9ff7:	48 89 e5             	mov    %rsp,%rbp
    9ffa:	89 7d fc             	mov    %edi,-0x4(%rbp)
    9ffd:	89 75 f8             	mov    %esi,-0x8(%rbp)
    a000:	83 7d f8 1f          	cmpl   $0x1f,-0x8(%rbp)
    a004:	77 0e                	ja     a014 <safe_rshift_func_uint32_t_u_u+0x22>
    a006:	8b 45 f8             	mov    -0x8(%rbp),%eax
    a009:	8b 55 fc             	mov    -0x4(%rbp),%edx
    a00c:	89 c1                	mov    %eax,%ecx
    a00e:	d3 ea                	shr    %cl,%edx
    a010:	89 d0                	mov    %edx,%eax
    a012:	eb 03                	jmp    a017 <safe_rshift_func_uint32_t_u_u+0x25>
    a014:	8b 45 fc             	mov    -0x4(%rbp),%eax
    a017:	5d                   	pop    %rbp
    a018:	c3                   	retq   

000000000000a019 <safe_unary_minus_func_uint64_t_u>:
    a019:	f3 0f 1e fa          	endbr64 
    a01d:	55                   	push   %rbp
    a01e:	48 89 e5             	mov    %rsp,%rbp
    a021:	48 89 7d f8          	mov    %rdi,-0x8(%rbp)
    a025:	48 8b 45 f8          	mov    -0x8(%rbp),%rax
    a029:	48 f7 d8             	neg    %rax
    a02c:	5d                   	pop    %rbp
    a02d:	c3                   	retq   

000000000000a02e <safe_add_func_uint64_t_u_u>:
    a02e:	f3 0f 1e fa          	endbr64 
    a032:	55                   	push   %rbp
    a033:	48 89 e5             	mov    %rsp,%rbp
    a036:	48 89 7d f8          	mov    %rdi,-0x8(%rbp)
    a03a:	48 89 75 f0          	mov    %rsi,-0x10(%rbp)
    a03e:	48 8b 55 f8          	mov    -0x8(%rbp),%rdx
    a042:	48 8b 45 f0          	mov    -0x10(%rbp),%rax
    a046:	48 01 d0             	add    %rdx,%rax
    a049:	5d                   	pop    %rbp
    a04a:	c3                   	retq   

000000000000a04b <safe_sub_func_uint64_t_u_u>:
    a04b:	f3 0f 1e fa          	endbr64 
    a04f:	55                   	push   %rbp
    a050:	48 89 e5             	mov    %rsp,%rbp
    a053:	48 89 7d f8          	mov    %rdi,-0x8(%rbp)
    a057:	48 89 75 f0          	mov    %rsi,-0x10(%rbp)
    a05b:	48 8b 45 f8          	mov    -0x8(%rbp),%rax
    a05f:	48 2b 45 f0          	sub    -0x10(%rbp),%rax
    a063:	5d                   	pop    %rbp
    a064:	c3                   	retq   

000000000000a065 <safe_mul_func_uint64_t_u_u>:
    a065:	f3 0f 1e fa          	endbr64 
    a069:	55                   	push   %rbp
    a06a:	48 89 e5             	mov    %rsp,%rbp
    a06d:	48 89 7d f8          	mov    %rdi,-0x8(%rbp)
    a071:	48 89 75 f0          	mov    %rsi,-0x10(%rbp)
    a075:	48 8b 45 f8          	mov    -0x8(%rbp),%rax
    a079:	48 0f af 45 f0       	imul   -0x10(%rbp),%rax
    a07e:	5d                   	pop    %rbp
    a07f:	c3                   	retq   

000000000000a080 <safe_mod_func_uint64_t_u_u>:
    a080:	f3 0f 1e fa          	endbr64 
    a084:	55                   	push   %rbp
    a085:	48 89 e5             	mov    %rsp,%rbp
    a088:	48 89 7d f8          	mov    %rdi,-0x8(%rbp)
    a08c:	48 89 75 f0          	mov    %rsi,-0x10(%rbp)
    a090:	48 83 7d f0 00       	cmpq   $0x0,-0x10(%rbp)
    a095:	74 12                	je     a0a9 <safe_mod_func_uint64_t_u_u+0x29>
    a097:	48 8b 45 f8          	mov    -0x8(%rbp),%rax
    a09b:	ba 00 00 00 00       	mov    $0x0,%edx
    a0a0:	48 f7 75 f0          	divq   -0x10(%rbp)
    a0a4:	48 89 d0             	mov    %rdx,%rax
    a0a7:	eb 04                	jmp    a0ad <safe_mod_func_uint64_t_u_u+0x2d>
    a0a9:	48 8b 45 f8          	mov    -0x8(%rbp),%rax
    a0ad:	5d                   	pop    %rbp
    a0ae:	c3                   	retq   

000000000000a0af <safe_div_func_uint64_t_u_u>:
    a0af:	f3 0f 1e fa          	endbr64 
    a0b3:	55                   	push   %rbp
    a0b4:	48 89 e5             	mov    %rsp,%rbp
    a0b7:	48 89 7d f8          	mov    %rdi,-0x8(%rbp)
    a0bb:	48 89 75 f0          	mov    %rsi,-0x10(%rbp)
    a0bf:	48 83 7d f0 00       	cmpq   $0x0,-0x10(%rbp)
    a0c4:	74 0f                	je     a0d5 <safe_div_func_uint64_t_u_u+0x26>
    a0c6:	48 8b 45 f8          	mov    -0x8(%rbp),%rax
    a0ca:	ba 00 00 00 00       	mov    $0x0,%edx
    a0cf:	48 f7 75 f0          	divq   -0x10(%rbp)
    a0d3:	eb 04                	jmp    a0d9 <safe_div_func_uint64_t_u_u+0x2a>
    a0d5:	48 8b 45 f8          	mov    -0x8(%rbp),%rax
    a0d9:	5d                   	pop    %rbp
    a0da:	c3                   	retq   

000000000000a0db <safe_lshift_func_uint64_t_u_s>:
    a0db:	f3 0f 1e fa          	endbr64 
    a0df:	55                   	push   %rbp
    a0e0:	48 89 e5             	mov    %rsp,%rbp
    a0e3:	48 89 7d f8          	mov    %rdi,-0x8(%rbp)
    a0e7:	89 75 f4             	mov    %esi,-0xc(%rbp)
    a0ea:	83 7d f4 00          	cmpl   $0x0,-0xc(%rbp)
    a0ee:	78 2f                	js     a11f <safe_lshift_func_uint64_t_u_s+0x44>
    a0f0:	83 7d f4 1f          	cmpl   $0x1f,-0xc(%rbp)
    a0f4:	7f 29                	jg     a11f <safe_lshift_func_uint64_t_u_s+0x44>
    a0f6:	8b 45 f4             	mov    -0xc(%rbp),%eax
    a0f9:	48 c7 c2 ff ff ff ff 	mov    $0xffffffffffffffff,%rdx
    a100:	89 c1                	mov    %eax,%ecx
    a102:	48 d3 ea             	shr    %cl,%rdx
    a105:	48 89 d0             	mov    %rdx,%rax
    a108:	48 39 45 f8          	cmp    %rax,-0x8(%rbp)
    a10c:	77 11                	ja     a11f <safe_lshift_func_uint64_t_u_s+0x44>
    a10e:	8b 45 f4             	mov    -0xc(%rbp),%eax
    a111:	48 8b 55 f8          	mov    -0x8(%rbp),%rdx
    a115:	89 c1                	mov    %eax,%ecx
    a117:	48 d3 e2             	shl    %cl,%rdx
    a11a:	48 89 d0             	mov    %rdx,%rax
    a11d:	eb 04                	jmp    a123 <safe_lshift_func_uint64_t_u_s+0x48>
    a11f:	48 8b 45 f8          	mov    -0x8(%rbp),%rax
    a123:	5d                   	pop    %rbp
    a124:	c3                   	retq   

000000000000a125 <safe_lshift_func_uint64_t_u_u>:
    a125:	f3 0f 1e fa          	endbr64 
    a129:	55                   	push   %rbp
    a12a:	48 89 e5             	mov    %rsp,%rbp
    a12d:	48 89 7d f8          	mov    %rdi,-0x8(%rbp)
    a131:	89 75 f4             	mov    %esi,-0xc(%rbp)
    a134:	83 7d f4 1f          	cmpl   $0x1f,-0xc(%rbp)
    a138:	77 29                	ja     a163 <safe_lshift_func_uint64_t_u_u+0x3e>
    a13a:	8b 45 f4             	mov    -0xc(%rbp),%eax
    a13d:	48 c7 c2 ff ff ff ff 	mov    $0xffffffffffffffff,%rdx
    a144:	89 c1                	mov    %eax,%ecx
    a146:	48 d3 ea             	shr    %cl,%rdx
    a149:	48 89 d0             	mov    %rdx,%rax
    a14c:	48 39 45 f8          	cmp    %rax,-0x8(%rbp)
    a150:	77 11                	ja     a163 <safe_lshift_func_uint64_t_u_u+0x3e>
    a152:	8b 45 f4             	mov    -0xc(%rbp),%eax
    a155:	48 8b 55 f8          	mov    -0x8(%rbp),%rdx
    a159:	89 c1                	mov    %eax,%ecx
    a15b:	48 d3 e2             	shl    %cl,%rdx
    a15e:	48 89 d0             	mov    %rdx,%rax
    a161:	eb 04                	jmp    a167 <safe_lshift_func_uint64_t_u_u+0x42>
    a163:	48 8b 45 f8          	mov    -0x8(%rbp),%rax
    a167:	5d                   	pop    %rbp
    a168:	c3                   	retq   

000000000000a169 <safe_rshift_func_uint64_t_u_s>:
    a169:	f3 0f 1e fa          	endbr64 
    a16d:	55                   	push   %rbp
    a16e:	48 89 e5             	mov    %rsp,%rbp
    a171:	48 89 7d f8          	mov    %rdi,-0x8(%rbp)
    a175:	89 75 f4             	mov    %esi,-0xc(%rbp)
    a178:	83 7d f4 00          	cmpl   $0x0,-0xc(%rbp)
    a17c:	78 17                	js     a195 <safe_rshift_func_uint64_t_u_s+0x2c>
    a17e:	83 7d f4 1f          	cmpl   $0x1f,-0xc(%rbp)
    a182:	7f 11                	jg     a195 <safe_rshift_func_uint64_t_u_s+0x2c>
    a184:	8b 45 f4             	mov    -0xc(%rbp),%eax
    a187:	48 8b 55 f8          	mov    -0x8(%rbp),%rdx
    a18b:	89 c1                	mov    %eax,%ecx
    a18d:	48 d3 ea             	shr    %cl,%rdx
    a190:	48 89 d0             	mov    %rdx,%rax
    a193:	eb 04                	jmp    a199 <safe_rshift_func_uint64_t_u_s+0x30>
    a195:	48 8b 45 f8          	mov    -0x8(%rbp),%rax
    a199:	5d                   	pop    %rbp
    a19a:	c3                   	retq   

000000000000a19b <safe_rshift_func_uint64_t_u_u>:
    a19b:	f3 0f 1e fa          	endbr64 
    a19f:	55                   	push   %rbp
    a1a0:	48 89 e5             	mov    %rsp,%rbp
    a1a3:	48 89 7d f8          	mov    %rdi,-0x8(%rbp)
    a1a7:	89 75 f4             	mov    %esi,-0xc(%rbp)
    a1aa:	83 7d f4 1f          	cmpl   $0x1f,-0xc(%rbp)
    a1ae:	77 11                	ja     a1c1 <safe_rshift_func_uint64_t_u_u+0x26>
    a1b0:	8b 45 f4             	mov    -0xc(%rbp),%eax
    a1b3:	48 8b 55 f8          	mov    -0x8(%rbp),%rdx
    a1b7:	89 c1                	mov    %eax,%ecx
    a1b9:	48 d3 ea             	shr    %cl,%rdx
    a1bc:	48 89 d0             	mov    %rdx,%rax
    a1bf:	eb 04                	jmp    a1c5 <safe_rshift_func_uint64_t_u_u+0x2a>
    a1c1:	48 8b 45 f8          	mov    -0x8(%rbp),%rax
    a1c5:	5d                   	pop    %rbp
    a1c6:	c3                   	retq   

000000000000a1c7 <safe_add_func_float_f_f>:
    a1c7:	f3 0f 1e fa          	endbr64 
    a1cb:	55                   	push   %rbp
    a1cc:	48 89 e5             	mov    %rsp,%rbp
    a1cf:	f3 0f 11 45 fc       	movss  %xmm0,-0x4(%rbp)
    a1d4:	f3 0f 11 4d f8       	movss  %xmm1,-0x8(%rbp)
    a1d9:	f3 0f 10 4d fc       	movss  -0x4(%rbp),%xmm1
    a1de:	f3 0f 10 05 96 d7 00 	movss  0xd796(%rip),%xmm0        # 1797c <l_1446.4482+0x6>
    a1e5:	00 
    a1e6:	f3 0f 59 c8          	mulss  %xmm0,%xmm1
    a1ea:	f3 0f 10 55 f8       	movss  -0x8(%rbp),%xmm2
    a1ef:	f3 0f 10 05 85 d7 00 	movss  0xd785(%rip),%xmm0        # 1797c <l_1446.4482+0x6>
    a1f6:	00 
    a1f7:	f3 0f 59 c2          	mulss  %xmm2,%xmm0
    a1fb:	f3 0f 58 c1          	addss  %xmm1,%xmm0
    a1ff:	f3 0f 10 0d 79 d7 00 	movss  0xd779(%rip),%xmm1        # 17980 <l_1446.4482+0xa>
    a206:	00 
    a207:	0f 54 c1             	andps  %xmm1,%xmm0
    a20a:	0f 2f 05 7f d7 00 00 	comiss 0xd77f(%rip),%xmm0        # 17990 <l_1446.4482+0x1a>
    a211:	76 07                	jbe    a21a <safe_add_func_float_f_f+0x53>
    a213:	f3 0f 10 45 fc       	movss  -0x4(%rbp),%xmm0
    a218:	eb 0a                	jmp    a224 <safe_add_func_float_f_f+0x5d>
    a21a:	f3 0f 10 45 fc       	movss  -0x4(%rbp),%xmm0
    a21f:	f3 0f 58 45 f8       	addss  -0x8(%rbp),%xmm0
    a224:	5d                   	pop    %rbp
    a225:	c3                   	retq   

000000000000a226 <safe_sub_func_float_f_f>:
    a226:	f3 0f 1e fa          	endbr64 
    a22a:	55                   	push   %rbp
    a22b:	48 89 e5             	mov    %rsp,%rbp
    a22e:	f3 0f 11 45 fc       	movss  %xmm0,-0x4(%rbp)
    a233:	f3 0f 11 4d f8       	movss  %xmm1,-0x8(%rbp)
    a238:	f3 0f 10 4d fc       	movss  -0x4(%rbp),%xmm1
    a23d:	f3 0f 10 05 37 d7 00 	movss  0xd737(%rip),%xmm0        # 1797c <l_1446.4482+0x6>
    a244:	00 
    a245:	f3 0f 59 c1          	mulss  %xmm1,%xmm0
    a249:	f3 0f 10 55 f8       	movss  -0x8(%rbp),%xmm2
    a24e:	f3 0f 10 0d 26 d7 00 	movss  0xd726(%rip),%xmm1        # 1797c <l_1446.4482+0x6>
    a255:	00 
    a256:	f3 0f 59 ca          	mulss  %xmm2,%xmm1
    a25a:	f3 0f 5c c1          	subss  %xmm1,%xmm0
    a25e:	f3 0f 10 0d 1a d7 00 	movss  0xd71a(%rip),%xmm1        # 17980 <l_1446.4482+0xa>
    a265:	00 
    a266:	0f 54 c1             	andps  %xmm1,%xmm0
    a269:	0f 2f 05 20 d7 00 00 	comiss 0xd720(%rip),%xmm0        # 17990 <l_1446.4482+0x1a>
    a270:	76 07                	jbe    a279 <safe_sub_func_float_f_f+0x53>
    a272:	f3 0f 10 45 fc       	movss  -0x4(%rbp),%xmm0
    a277:	eb 0a                	jmp    a283 <safe_sub_func_float_f_f+0x5d>
    a279:	f3 0f 10 45 fc       	movss  -0x4(%rbp),%xmm0
    a27e:	f3 0f 5c 45 f8       	subss  -0x8(%rbp),%xmm0
    a283:	5d                   	pop    %rbp
    a284:	c3                   	retq   

000000000000a285 <safe_mul_func_float_f_f>:
    a285:	f3 0f 1e fa          	endbr64 
    a289:	55                   	push   %rbp
    a28a:	48 89 e5             	mov    %rsp,%rbp
    a28d:	f3 0f 11 45 fc       	movss  %xmm0,-0x4(%rbp)
    a292:	f3 0f 11 4d f8       	movss  %xmm1,-0x8(%rbp)
    a297:	f3 0f 10 4d fc       	movss  -0x4(%rbp),%xmm1
    a29c:	f3 0f 10 05 f0 d6 00 	movss  0xd6f0(%rip),%xmm0        # 17994 <l_1446.4482+0x1e>
    a2a3:	00 
    a2a4:	f3 0f 59 c8          	mulss  %xmm0,%xmm1
    a2a8:	f3 0f 10 55 f8       	movss  -0x8(%rbp),%xmm2
    a2ad:	f3 0f 10 05 e3 d6 00 	movss  0xd6e3(%rip),%xmm0        # 17998 <l_1446.4482+0x22>
    a2b4:	00 
    a2b5:	f3 0f 59 c2          	mulss  %xmm2,%xmm0
    a2b9:	f3 0f 59 c1          	mulss  %xmm1,%xmm0
    a2bd:	f3 0f 10 0d bb d6 00 	movss  0xd6bb(%rip),%xmm1        # 17980 <l_1446.4482+0xa>
    a2c4:	00 
    a2c5:	0f 54 c1             	andps  %xmm1,%xmm0
    a2c8:	0f 2f 05 cd d6 00 00 	comiss 0xd6cd(%rip),%xmm0        # 1799c <l_1446.4482+0x26>
    a2cf:	76 07                	jbe    a2d8 <safe_mul_func_float_f_f+0x53>
    a2d1:	f3 0f 10 45 fc       	movss  -0x4(%rbp),%xmm0
    a2d6:	eb 0a                	jmp    a2e2 <safe_mul_func_float_f_f+0x5d>
    a2d8:	f3 0f 10 45 fc       	movss  -0x4(%rbp),%xmm0
    a2dd:	f3 0f 59 45 f8       	mulss  -0x8(%rbp),%xmm0
    a2e2:	5d                   	pop    %rbp
    a2e3:	c3                   	retq   

000000000000a2e4 <safe_div_func_float_f_f>:
    a2e4:	f3 0f 1e fa          	endbr64 
    a2e8:	55                   	push   %rbp
    a2e9:	48 89 e5             	mov    %rsp,%rbp
    a2ec:	f3 0f 11 45 fc       	movss  %xmm0,-0x4(%rbp)
    a2f1:	f3 0f 11 4d f8       	movss  %xmm1,-0x8(%rbp)
    a2f6:	f3 0f 10 45 f8       	movss  -0x8(%rbp),%xmm0
    a2fb:	f3 0f 10 0d 7d d6 00 	movss  0xd67d(%rip),%xmm1        # 17980 <l_1446.4482+0xa>
    a302:	00 
    a303:	0f 54 c8             	andps  %xmm0,%xmm1
    a306:	f3 0f 10 05 92 d6 00 	movss  0xd692(%rip),%xmm0        # 179a0 <l_1446.4482+0x2a>
    a30d:	00 
    a30e:	0f 2f c1             	comiss %xmm1,%xmm0
    a311:	0f 97 c0             	seta   %al
    a314:	83 f0 01             	xor    $0x1,%eax
    a317:	84 c0                	test   %al,%al
    a319:	75 56                	jne    a371 <safe_div_func_float_f_f+0x8d>
    a31b:	66 0f ef c0          	pxor   %xmm0,%xmm0
    a31f:	0f 2e 45 f8          	ucomiss -0x8(%rbp),%xmm0
    a323:	7a 0a                	jp     a32f <safe_div_func_float_f_f+0x4b>
    a325:	66 0f ef c0          	pxor   %xmm0,%xmm0
    a329:	0f 2e 45 f8          	ucomiss -0x8(%rbp),%xmm0
    a32d:	74 4e                	je     a37d <safe_div_func_float_f_f+0x99>
    a32f:	f3 0f 10 4d fc       	movss  -0x4(%rbp),%xmm1
    a334:	f3 0f 10 05 68 d6 00 	movss  0xd668(%rip),%xmm0        # 179a4 <l_1446.4482+0x2e>
    a33b:	00 
    a33c:	f3 0f 59 c1          	mulss  %xmm1,%xmm0
    a340:	f3 0f 10 55 f8       	movss  -0x8(%rbp),%xmm2
    a345:	f3 0f 10 0d 5b d6 00 	movss  0xd65b(%rip),%xmm1        # 179a8 <l_1446.4482+0x32>
    a34c:	00 
    a34d:	f3 0f 59 ca          	mulss  %xmm2,%xmm1
    a351:	f3 0f 5e c1          	divss  %xmm1,%xmm0
    a355:	f3 0f 10 0d 23 d6 00 	movss  0xd623(%rip),%xmm1        # 17980 <l_1446.4482+0xa>
    a35c:	00 
    a35d:	0f 54 c1             	andps  %xmm1,%xmm0
    a360:	0f 2f 05 45 d6 00 00 	comiss 0xd645(%rip),%xmm0        # 179ac <l_1446.4482+0x36>
    a367:	0f 97 c0             	seta   %al
    a36a:	83 f0 01             	xor    $0x1,%eax
    a36d:	84 c0                	test   %al,%al
    a36f:	74 0c                	je     a37d <safe_div_func_float_f_f+0x99>
    a371:	f3 0f 10 45 fc       	movss  -0x4(%rbp),%xmm0
    a376:	f3 0f 5e 45 f8       	divss  -0x8(%rbp),%xmm0
    a37b:	eb 05                	jmp    a382 <safe_div_func_float_f_f+0x9e>
    a37d:	f3 0f 10 45 fc       	movss  -0x4(%rbp),%xmm0
    a382:	5d                   	pop    %rbp
    a383:	c3                   	retq   

000000000000a384 <safe_add_func_double_f_f>:
    a384:	f3 0f 1e fa          	endbr64 
    a388:	55                   	push   %rbp
    a389:	48 89 e5             	mov    %rsp,%rbp
    a38c:	f2 0f 11 45 f8       	movsd  %xmm0,-0x8(%rbp)
    a391:	f2 0f 11 4d f0       	movsd  %xmm1,-0x10(%rbp)
    a396:	f2 0f 10 4d f8       	movsd  -0x8(%rbp),%xmm1
    a39b:	f2 0f 10 05 0d d6 00 	movsd  0xd60d(%rip),%xmm0        # 179b0 <l_1446.4482+0x3a>
    a3a2:	00 
    a3a3:	f2 0f 59 c8          	mulsd  %xmm0,%xmm1
    a3a7:	f2 0f 10 55 f0       	movsd  -0x10(%rbp),%xmm2
    a3ac:	f2 0f 10 05 fc d5 00 	movsd  0xd5fc(%rip),%xmm0        # 179b0 <l_1446.4482+0x3a>
    a3b3:	00 
    a3b4:	f2 0f 59 c2          	mulsd  %xmm2,%xmm0
    a3b8:	f2 0f 58 c1          	addsd  %xmm1,%xmm0
    a3bc:	f3 0f 7e 0d fc d5 00 	movq   0xd5fc(%rip),%xmm1        # 179c0 <l_1446.4482+0x4a>
    a3c3:	00 
    a3c4:	66 0f 54 c1          	andpd  %xmm1,%xmm0
    a3c8:	66 0f 2f 05 00 d6 00 	comisd 0xd600(%rip),%xmm0        # 179d0 <l_1446.4482+0x5a>
    a3cf:	00 
    a3d0:	76 07                	jbe    a3d9 <safe_add_func_double_f_f+0x55>
    a3d2:	f2 0f 10 45 f8       	movsd  -0x8(%rbp),%xmm0
    a3d7:	eb 0a                	jmp    a3e3 <safe_add_func_double_f_f+0x5f>
    a3d9:	f2 0f 10 45 f8       	movsd  -0x8(%rbp),%xmm0
    a3de:	f2 0f 58 45 f0       	addsd  -0x10(%rbp),%xmm0
    a3e3:	5d                   	pop    %rbp
    a3e4:	c3                   	retq   

000000000000a3e5 <safe_sub_func_double_f_f>:
    a3e5:	f3 0f 1e fa          	endbr64 
    a3e9:	55                   	push   %rbp
    a3ea:	48 89 e5             	mov    %rsp,%rbp
    a3ed:	f2 0f 11 45 f8       	movsd  %xmm0,-0x8(%rbp)
    a3f2:	f2 0f 11 4d f0       	movsd  %xmm1,-0x10(%rbp)
    a3f7:	f2 0f 10 4d f8       	movsd  -0x8(%rbp),%xmm1
    a3fc:	f2 0f 10 05 ac d5 00 	movsd  0xd5ac(%rip),%xmm0        # 179b0 <l_1446.4482+0x3a>
    a403:	00 
    a404:	f2 0f 59 c1          	mulsd  %xmm1,%xmm0
    a408:	f2 0f 10 55 f0       	movsd  -0x10(%rbp),%xmm2
    a40d:	f2 0f 10 0d 9b d5 00 	movsd  0xd59b(%rip),%xmm1        # 179b0 <l_1446.4482+0x3a>
    a414:	00 
    a415:	f2 0f 59 ca          	mulsd  %xmm2,%xmm1
    a419:	f2 0f 5c c1          	subsd  %xmm1,%xmm0
    a41d:	f3 0f 7e 0d 9b d5 00 	movq   0xd59b(%rip),%xmm1        # 179c0 <l_1446.4482+0x4a>
    a424:	00 
    a425:	66 0f 54 c1          	andpd  %xmm1,%xmm0
    a429:	66 0f 2f 05 9f d5 00 	comisd 0xd59f(%rip),%xmm0        # 179d0 <l_1446.4482+0x5a>
    a430:	00 
    a431:	76 07                	jbe    a43a <safe_sub_func_double_f_f+0x55>
    a433:	f2 0f 10 45 f8       	movsd  -0x8(%rbp),%xmm0
    a438:	eb 0a                	jmp    a444 <safe_sub_func_double_f_f+0x5f>
    a43a:	f2 0f 10 45 f8       	movsd  -0x8(%rbp),%xmm0
    a43f:	f2 0f 5c 45 f0       	subsd  -0x10(%rbp),%xmm0
    a444:	5d                   	pop    %rbp
    a445:	c3                   	retq   

000000000000a446 <safe_mul_func_double_f_f>:
    a446:	f3 0f 1e fa          	endbr64 
    a44a:	55                   	push   %rbp
    a44b:	48 89 e5             	mov    %rsp,%rbp
    a44e:	f2 0f 11 45 f8       	movsd  %xmm0,-0x8(%rbp)
    a453:	f2 0f 11 4d f0       	movsd  %xmm1,-0x10(%rbp)
    a458:	f2 0f 10 4d f8       	movsd  -0x8(%rbp),%xmm1
    a45d:	f2 0f 10 05 73 d5 00 	movsd  0xd573(%rip),%xmm0        # 179d8 <l_1446.4482+0x62>
    a464:	00 
    a465:	f2 0f 59 c8          	mulsd  %xmm0,%xmm1
    a469:	f2 0f 10 55 f0       	movsd  -0x10(%rbp),%xmm2
    a46e:	f2 0f 10 05 6a d5 00 	movsd  0xd56a(%rip),%xmm0        # 179e0 <l_1446.4482+0x6a>
    a475:	00 
    a476:	f2 0f 59 c2          	mulsd  %xmm2,%xmm0
    a47a:	f2 0f 59 c1          	mulsd  %xmm1,%xmm0
    a47e:	f3 0f 7e 0d 3a d5 00 	movq   0xd53a(%rip),%xmm1        # 179c0 <l_1446.4482+0x4a>
    a485:	00 
    a486:	66 0f 54 c1          	andpd  %xmm1,%xmm0
    a48a:	66 0f 2f 05 56 d5 00 	comisd 0xd556(%rip),%xmm0        # 179e8 <l_1446.4482+0x72>
    a491:	00 
    a492:	76 07                	jbe    a49b <safe_mul_func_double_f_f+0x55>
    a494:	f2 0f 10 45 f8       	movsd  -0x8(%rbp),%xmm0
    a499:	eb 0a                	jmp    a4a5 <safe_mul_func_double_f_f+0x5f>
    a49b:	f2 0f 10 45 f8       	movsd  -0x8(%rbp),%xmm0
    a4a0:	f2 0f 59 45 f0       	mulsd  -0x10(%rbp),%xmm0
    a4a5:	5d                   	pop    %rbp
    a4a6:	c3                   	retq   

000000000000a4a7 <safe_div_func_double_f_f>:
    a4a7:	f3 0f 1e fa          	endbr64 
    a4ab:	55                   	push   %rbp
    a4ac:	48 89 e5             	mov    %rsp,%rbp
    a4af:	f2 0f 11 45 f8       	movsd  %xmm0,-0x8(%rbp)
    a4b4:	f2 0f 11 4d f0       	movsd  %xmm1,-0x10(%rbp)
    a4b9:	f2 0f 10 45 f0       	movsd  -0x10(%rbp),%xmm0
    a4be:	f3 0f 7e 0d fa d4 00 	movq   0xd4fa(%rip),%xmm1        # 179c0 <l_1446.4482+0x4a>
    a4c5:	00 
    a4c6:	66 0f 54 c8          	andpd  %xmm0,%xmm1
    a4ca:	f2 0f 10 05 1e d5 00 	movsd  0xd51e(%rip),%xmm0        # 179f0 <l_1446.4482+0x7a>
    a4d1:	00 
    a4d2:	66 0f 2f c1          	comisd %xmm1,%xmm0
    a4d6:	0f 97 c0             	seta   %al
    a4d9:	83 f0 01             	xor    $0x1,%eax
    a4dc:	84 c0                	test   %al,%al
    a4de:	75 5a                	jne    a53a <safe_div_func_double_f_f+0x93>
    a4e0:	66 0f ef c0          	pxor   %xmm0,%xmm0
    a4e4:	66 0f 2e 45 f0       	ucomisd -0x10(%rbp),%xmm0
    a4e9:	7a 0b                	jp     a4f6 <safe_div_func_double_f_f+0x4f>
    a4eb:	66 0f ef c0          	pxor   %xmm0,%xmm0
    a4ef:	66 0f 2e 45 f0       	ucomisd -0x10(%rbp),%xmm0
    a4f4:	74 50                	je     a546 <safe_div_func_double_f_f+0x9f>
    a4f6:	f2 0f 10 4d f8       	movsd  -0x8(%rbp),%xmm1
    a4fb:	f2 0f 10 05 f5 d4 00 	movsd  0xd4f5(%rip),%xmm0        # 179f8 <l_1446.4482+0x82>
    a502:	00 
    a503:	f2 0f 59 c1          	mulsd  %xmm1,%xmm0
    a507:	f2 0f 10 55 f0       	movsd  -0x10(%rbp),%xmm2
    a50c:	f2 0f 10 0d ec d4 00 	movsd  0xd4ec(%rip),%xmm1        # 17a00 <l_1446.4482+0x8a>
    a513:	00 
    a514:	f2 0f 59 ca          	mulsd  %xmm2,%xmm1
    a518:	f2 0f 5e c1          	divsd  %xmm1,%xmm0
    a51c:	f3 0f 7e 0d 9c d4 00 	movq   0xd49c(%rip),%xmm1        # 179c0 <l_1446.4482+0x4a>
    a523:	00 
    a524:	66 0f 54 c1          	andpd  %xmm1,%xmm0
    a528:	66 0f 2f 05 d8 d4 00 	comisd 0xd4d8(%rip),%xmm0        # 17a08 <l_1446.4482+0x92>
    a52f:	00 
    a530:	0f 97 c0             	seta   %al
    a533:	83 f0 01             	xor    $0x1,%eax
    a536:	84 c0                	test   %al,%al
    a538:	74 0c                	je     a546 <safe_div_func_double_f_f+0x9f>
    a53a:	f2 0f 10 45 f8       	movsd  -0x8(%rbp),%xmm0
    a53f:	f2 0f 5e 45 f0       	divsd  -0x10(%rbp),%xmm0
    a544:	eb 05                	jmp    a54b <safe_div_func_double_f_f+0xa4>
    a546:	f2 0f 10 45 f8       	movsd  -0x8(%rbp),%xmm0
    a54b:	5d                   	pop    %rbp
    a54c:	c3                   	retq   

000000000000a54d <safe_convert_func_float_to_int32_t>:
    a54d:	f3 0f 1e fa          	endbr64 
    a551:	55                   	push   %rbp
    a552:	48 89 e5             	mov    %rsp,%rbp
    a555:	f3 0f 11 45 fc       	movss  %xmm0,-0x4(%rbp)
    a55a:	f3 0f 10 05 ae d4 00 	movss  0xd4ae(%rip),%xmm0        # 17a10 <l_1446.4482+0x9a>
    a561:	00 
    a562:	0f 2f 45 fc          	comiss -0x4(%rbp),%xmm0
    a566:	0f 93 c0             	setae  %al
    a569:	83 f0 01             	xor    $0x1,%eax
    a56c:	84 c0                	test   %al,%al
    a56e:	74 21                	je     a591 <safe_convert_func_float_to_int32_t+0x44>
    a570:	f3 0f 10 45 fc       	movss  -0x4(%rbp),%xmm0
    a575:	0f 2f 05 98 d4 00 00 	comiss 0xd498(%rip),%xmm0        # 17a14 <l_1446.4482+0x9e>
    a57c:	0f 93 c0             	setae  %al
    a57f:	83 f0 01             	xor    $0x1,%eax
    a582:	84 c0                	test   %al,%al
    a584:	74 0b                	je     a591 <safe_convert_func_float_to_int32_t+0x44>
    a586:	f3 0f 10 45 fc       	movss  -0x4(%rbp),%xmm0
    a58b:	f3 0f 2c c0          	cvttss2si %xmm0,%eax
    a58f:	eb 05                	jmp    a596 <safe_convert_func_float_to_int32_t+0x49>
    a591:	b8 ff ff ff 7f       	mov    $0x7fffffff,%eax
    a596:	5d                   	pop    %rbp
    a597:	c3                   	retq   

000000000000a598 <crc32_gentab>:
    a598:	f3 0f 1e fa          	endbr64 
    a59c:	55                   	push   %rbp
    a59d:	48 89 e5             	mov    %rsp,%rbp
    a5a0:	c7 45 fc 20 83 b8 ed 	movl   $0xedb88320,-0x4(%rbp)
    a5a7:	c7 45 f4 00 00 00 00 	movl   $0x0,-0xc(%rbp)
    a5ae:	eb 51                	jmp    a601 <crc32_gentab+0x69>
    a5b0:	8b 45 f4             	mov    -0xc(%rbp),%eax
    a5b3:	89 45 f0             	mov    %eax,-0x10(%rbp)
    a5b6:	c7 45 f8 08 00 00 00 	movl   $0x8,-0x8(%rbp)
    a5bd:	eb 1e                	jmp    a5dd <crc32_gentab+0x45>
    a5bf:	8b 45 f0             	mov    -0x10(%rbp),%eax
    a5c2:	83 e0 01             	and    $0x1,%eax
    a5c5:	85 c0                	test   %eax,%eax
    a5c7:	74 0d                	je     a5d6 <crc32_gentab+0x3e>
    a5c9:	8b 45 f0             	mov    -0x10(%rbp),%eax
    a5cc:	d1 e8                	shr    %eax
    a5ce:	33 45 fc             	xor    -0x4(%rbp),%eax
    a5d1:	89 45 f0             	mov    %eax,-0x10(%rbp)
    a5d4:	eb 03                	jmp    a5d9 <crc32_gentab+0x41>
    a5d6:	d1 6d f0             	shrl   -0x10(%rbp)
    a5d9:	83 6d f8 01          	subl   $0x1,-0x8(%rbp)
    a5dd:	83 7d f8 00          	cmpl   $0x0,-0x8(%rbp)
    a5e1:	7f dc                	jg     a5bf <crc32_gentab+0x27>
    a5e3:	8b 45 f4             	mov    -0xc(%rbp),%eax
    a5e6:	48 98                	cltq   
    a5e8:	48 8d 0c 85 00 00 00 	lea    0x0(,%rax,4),%rcx
    a5ef:	00 
    a5f0:	48 8d 15 c9 31 01 00 	lea    0x131c9(%rip),%rdx        # 1d7c0 <crc32_tab>
    a5f7:	8b 45 f0             	mov    -0x10(%rbp),%eax
    a5fa:	89 04 11             	mov    %eax,(%rcx,%rdx,1)
    a5fd:	83 45 f4 01          	addl   $0x1,-0xc(%rbp)
    a601:	81 7d f4 ff 00 00 00 	cmpl   $0xff,-0xc(%rbp)
    a608:	7e a6                	jle    a5b0 <crc32_gentab+0x18>
    a60a:	90                   	nop
    a60b:	90                   	nop
    a60c:	5d                   	pop    %rbp
    a60d:	c3                   	retq   

000000000000a60e <crc32_byte>:
    a60e:	f3 0f 1e fa          	endbr64 
    a612:	55                   	push   %rbp
    a613:	48 89 e5             	mov    %rsp,%rbp
    a616:	89 f8                	mov    %edi,%eax
    a618:	88 45 fc             	mov    %al,-0x4(%rbp)
    a61b:	8b 05 ff f9 00 00    	mov    0xf9ff(%rip),%eax        # 1a020 <crc32_context>
    a621:	c1 e8 08             	shr    $0x8,%eax
    a624:	89 c1                	mov    %eax,%ecx
    a626:	0f b6 55 fc          	movzbl -0x4(%rbp),%edx
    a62a:	8b 05 f0 f9 00 00    	mov    0xf9f0(%rip),%eax        # 1a020 <crc32_context>
    a630:	31 d0                	xor    %edx,%eax
    a632:	0f b6 c0             	movzbl %al,%eax
    a635:	89 c0                	mov    %eax,%eax
    a637:	48 8d 14 85 00 00 00 	lea    0x0(,%rax,4),%rdx
    a63e:	00 
    a63f:	48 8d 05 7a 31 01 00 	lea    0x1317a(%rip),%rax        # 1d7c0 <crc32_tab>
    a646:	8b 04 02             	mov    (%rdx,%rax,1),%eax
    a649:	31 c8                	xor    %ecx,%eax
    a64b:	89 05 cf f9 00 00    	mov    %eax,0xf9cf(%rip)        # 1a020 <crc32_context>
    a651:	90                   	nop
    a652:	5d                   	pop    %rbp
    a653:	c3                   	retq   

000000000000a654 <crc32_8bytes>:
    a654:	f3 0f 1e fa          	endbr64 
    a658:	55                   	push   %rbp
    a659:	48 89 e5             	mov    %rsp,%rbp
    a65c:	48 83 ec 08          	sub    $0x8,%rsp
    a660:	48 89 7d f8          	mov    %rdi,-0x8(%rbp)
    a664:	48 8b 45 f8          	mov    -0x8(%rbp),%rax
    a668:	0f b6 c0             	movzbl %al,%eax
    a66b:	89 c7                	mov    %eax,%edi
    a66d:	e8 9c ff ff ff       	callq  a60e <crc32_byte>
    a672:	48 8b 45 f8          	mov    -0x8(%rbp),%rax
    a676:	48 c1 e8 08          	shr    $0x8,%rax
    a67a:	0f b6 c0             	movzbl %al,%eax
    a67d:	89 c7                	mov    %eax,%edi
    a67f:	e8 8a ff ff ff       	callq  a60e <crc32_byte>
    a684:	48 8b 45 f8          	mov    -0x8(%rbp),%rax
    a688:	48 c1 e8 10          	shr    $0x10,%rax
    a68c:	0f b6 c0             	movzbl %al,%eax
    a68f:	89 c7                	mov    %eax,%edi
    a691:	e8 78 ff ff ff       	callq  a60e <crc32_byte>
    a696:	48 8b 45 f8          	mov    -0x8(%rbp),%rax
    a69a:	48 c1 e8 18          	shr    $0x18,%rax
    a69e:	0f b6 c0             	movzbl %al,%eax
    a6a1:	89 c7                	mov    %eax,%edi
    a6a3:	e8 66 ff ff ff       	callq  a60e <crc32_byte>
    a6a8:	48 8b 45 f8          	mov    -0x8(%rbp),%rax
    a6ac:	48 c1 e8 20          	shr    $0x20,%rax
    a6b0:	0f b6 c0             	movzbl %al,%eax
    a6b3:	89 c7                	mov    %eax,%edi
    a6b5:	e8 54 ff ff ff       	callq  a60e <crc32_byte>
    a6ba:	48 8b 45 f8          	mov    -0x8(%rbp),%rax
    a6be:	48 c1 e8 28          	shr    $0x28,%rax
    a6c2:	0f b6 c0             	movzbl %al,%eax
    a6c5:	89 c7                	mov    %eax,%edi
    a6c7:	e8 42 ff ff ff       	callq  a60e <crc32_byte>
    a6cc:	48 8b 45 f8          	mov    -0x8(%rbp),%rax
    a6d0:	48 c1 e8 30          	shr    $0x30,%rax
    a6d4:	0f b6 c0             	movzbl %al,%eax
    a6d7:	89 c7                	mov    %eax,%edi
    a6d9:	e8 30 ff ff ff       	callq  a60e <crc32_byte>
    a6de:	48 8b 45 f8          	mov    -0x8(%rbp),%rax
    a6e2:	48 c1 e8 38          	shr    $0x38,%rax
    a6e6:	0f b6 c0             	movzbl %al,%eax
    a6e9:	89 c7                	mov    %eax,%edi
    a6eb:	e8 1e ff ff ff       	callq  a60e <crc32_byte>
    a6f0:	90                   	nop
    a6f1:	c9                   	leaveq 
    a6f2:	c3                   	retq   

000000000000a6f3 <transparent_crc>:
    a6f3:	f3 0f 1e fa          	endbr64 
    a6f7:	55                   	push   %rbp
    a6f8:	48 89 e5             	mov    %rsp,%rbp
    a6fb:	48 83 ec 20          	sub    $0x20,%rsp
    a6ff:	48 89 7d f8          	mov    %rdi,-0x8(%rbp)
    a703:	48 89 75 f0          	mov    %rsi,-0x10(%rbp)
    a707:	89 55 ec             	mov    %edx,-0x14(%rbp)
    a70a:	48 8b 45 f8          	mov    -0x8(%rbp),%rax
    a70e:	48 89 c7             	mov    %rax,%rdi
    a711:	e8 3e ff ff ff       	callq  a654 <crc32_8bytes>
    a716:	83 7d ec 00          	cmpl   $0x0,-0x14(%rbp)
    a71a:	74 22                	je     a73e <transparent_crc+0x4b>
    a71c:	8b 05 fe f8 00 00    	mov    0xf8fe(%rip),%eax        # 1a020 <crc32_context>
    a722:	f7 d0                	not    %eax
    a724:	89 c2                	mov    %eax,%edx
    a726:	48 8b 45 f0          	mov    -0x10(%rbp),%rax
    a72a:	48 89 c6             	mov    %rax,%rsi
    a72d:	48 8d 3d fc b8 00 00 	lea    0xb8fc(%rip),%rdi        # 16030 <_IO_stdin_used+0x30>
    a734:	b8 00 00 00 00       	mov    $0x0,%eax
    a739:	e8 42 e9 ff ff       	callq  9080 <printf@plt>
    a73e:	90                   	nop
    a73f:	c9                   	leaveq 
    a740:	c3                   	retq   

000000000000a741 <transparent_crc_bytes>:
    a741:	f3 0f 1e fa          	endbr64 
    a745:	55                   	push   %rbp
    a746:	48 89 e5             	mov    %rsp,%rbp
    a749:	48 83 ec 30          	sub    $0x30,%rsp
    a74d:	48 89 7d e8          	mov    %rdi,-0x18(%rbp)
    a751:	89 75 e4             	mov    %esi,-0x1c(%rbp)
    a754:	48 89 55 d8          	mov    %rdx,-0x28(%rbp)
    a758:	89 4d e0             	mov    %ecx,-0x20(%rbp)
    a75b:	c7 45 fc 00 00 00 00 	movl   $0x0,-0x4(%rbp)
    a762:	eb 1e                	jmp    a782 <transparent_crc_bytes+0x41>
    a764:	8b 45 fc             	mov    -0x4(%rbp),%eax
    a767:	48 63 d0             	movslq %eax,%rdx
    a76a:	48 8b 45 e8          	mov    -0x18(%rbp),%rax
    a76e:	48 01 d0             	add    %rdx,%rax
    a771:	0f b6 00             	movzbl (%rax),%eax
    a774:	0f b6 c0             	movzbl %al,%eax
    a777:	89 c7                	mov    %eax,%edi
    a779:	e8 90 fe ff ff       	callq  a60e <crc32_byte>
    a77e:	83 45 fc 01          	addl   $0x1,-0x4(%rbp)
    a782:	8b 45 fc             	mov    -0x4(%rbp),%eax
    a785:	3b 45 e4             	cmp    -0x1c(%rbp),%eax
    a788:	7c da                	jl     a764 <transparent_crc_bytes+0x23>
    a78a:	83 7d e0 00          	cmpl   $0x0,-0x20(%rbp)
    a78e:	74 22                	je     a7b2 <transparent_crc_bytes+0x71>
    a790:	8b 05 8a f8 00 00    	mov    0xf88a(%rip),%eax        # 1a020 <crc32_context>
    a796:	f7 d0                	not    %eax
    a798:	89 c2                	mov    %eax,%edx
    a79a:	48 8b 45 d8          	mov    -0x28(%rbp),%rax
    a79e:	48 89 c6             	mov    %rax,%rsi
    a7a1:	48 8d 3d 88 b8 00 00 	lea    0xb888(%rip),%rdi        # 16030 <_IO_stdin_used+0x30>
    a7a8:	b8 00 00 00 00       	mov    $0x0,%eax
    a7ad:	e8 ce e8 ff ff       	callq  9080 <printf@plt>
    a7b2:	90                   	nop
    a7b3:	c9                   	leaveq 
    a7b4:	c3                   	retq   

000000000000a7b5 <func_1>:
    a7b5:	f3 0f 1e fa          	endbr64 
    a7b9:	55                   	push   %rbp
    a7ba:	48 89 e5             	mov    %rsp,%rbp
    a7bd:	48 81 ec 40 04 00 00 	sub    $0x440,%rsp
    a7c4:	64 48 8b 04 25 28 00 	mov    %fs:0x28,%rax
    a7cb:	00 00 
    a7cd:	48 89 45 f8          	mov    %rax,-0x8(%rbp)
    a7d1:	31 c0                	xor    %eax,%eax
    a7d3:	c7 85 d4 fb ff ff ff 	movl   $0xffffffff,-0x42c(%rbp)
    a7da:	ff ff ff 
    a7dd:	c7 85 d8 fb ff ff f8 	movl   $0xfffffff8,-0x428(%rbp)
    a7e4:	ff ff ff 
    a7e7:	c7 85 dc fb ff ff ff 	movl   $0xffffffff,-0x424(%rbp)
    a7ee:	ff ff ff 
    a7f1:	48 c7 85 f8 fb ff ff 	movq   $0xffffffffffffffff,-0x408(%rbp)
    a7f8:	ff ff ff ff 
    a7fc:	48 8d 05 a5 0b 01 00 	lea    0x10ba5(%rip),%rax        # 1b3a8 <g_208>
    a803:	48 89 85 00 fc ff ff 	mov    %rax,-0x400(%rbp)
    a80a:	48 8d 05 97 0b 01 00 	lea    0x10b97(%rip),%rax        # 1b3a8 <g_208>
    a811:	48 89 85 08 fc ff ff 	mov    %rax,-0x3f8(%rbp)
    a818:	c7 85 e0 fb ff ff 66 	movl   $0xfd8ace66,-0x420(%rbp)
    a81f:	ce 8a fd 
    a822:	48 c7 85 10 fc ff ff 	movq   $0x0,-0x3f0(%rbp)
    a829:	00 00 00 00 
    a82d:	48 8d 05 24 0c 01 00 	lea    0x10c24(%rip),%rax        # 1b458 <g_492+0x18>
    a834:	48 89 85 18 fc ff ff 	mov    %rax,-0x3e8(%rbp)
    a83b:	c7 85 e4 fb ff ff 09 	movl   $0x9,-0x41c(%rbp)
    a842:	00 00 00 
    a845:	66 c7 85 cc fb ff ff 	movw   $0xfff6,-0x434(%rbp)
    a84c:	f6 ff 
    a84e:	48 8d 85 20 fd ff ff 	lea    -0x2e0(%rbp),%rax
    a855:	48 8d 15 24 b8 00 00 	lea    0xb824(%rip),%rdx        # 16080 <g_1624+0x20>
    a85c:	b9 5a 00 00 00       	mov    $0x5a,%ecx
    a861:	48 89 c7             	mov    %rax,%rdi
    a864:	48 89 d6             	mov    %rdx,%rsi
    a867:	f3 48 a5             	rep movsq %ds:(%rsi),%es:(%rdi)
    a86a:	c7 85 d0 fc ff ff c6 	movl   $0x2b3c28c6,-0x330(%rbp)
    a871:	28 3c 2b 
    a874:	c7 85 d4 fc ff ff ff 	movl   $0xffffffff,-0x32c(%rbp)
    a87b:	ff ff ff 
    a87e:	c7 85 d8 fc ff ff ff 	movl   $0xffffffff,-0x328(%rbp)
    a885:	ff ff ff 
    a888:	c7 85 dc fc ff ff c6 	movl   $0x2b3c28c6,-0x324(%rbp)
    a88f:	28 3c 2b 
    a892:	c7 85 e0 fc ff ff ff 	movl   $0xffffffff,-0x320(%rbp)
    a899:	ff ff ff 
    a89c:	c7 85 e4 fc ff ff c6 	movl   $0x2b3c28c6,-0x31c(%rbp)
    a8a3:	28 3c 2b 
    a8a6:	c7 85 e8 fc ff ff c6 	movl   $0x2b3c28c6,-0x318(%rbp)
    a8ad:	28 3c 2b 
    a8b0:	c7 85 ec fc ff ff 85 	movl   $0x233ed785,-0x314(%rbp)
    a8b7:	d7 3e 23 
    a8ba:	c7 85 f0 fc ff ff c6 	movl   $0x2b3c28c6,-0x310(%rbp)
    a8c1:	28 3c 2b 
    a8c4:	c7 85 f4 fc ff ff c6 	movl   $0x2b3c28c6,-0x30c(%rbp)
    a8cb:	28 3c 2b 
    a8ce:	c7 85 f8 fc ff ff ff 	movl   $0xffffffff,-0x308(%rbp)
    a8d5:	ff ff ff 
    a8d8:	c7 85 fc fc ff ff c6 	movl   $0x2b3c28c6,-0x304(%rbp)
    a8df:	28 3c 2b 
    a8e2:	c7 85 00 fd ff ff ff 	movl   $0xffffffff,-0x300(%rbp)
    a8e9:	ff ff ff 
    a8ec:	c7 85 04 fd ff ff ff 	movl   $0xffffffff,-0x2fc(%rbp)
    a8f3:	ff ff ff 
    a8f6:	c7 85 08 fd ff ff c6 	movl   $0x2b3c28c6,-0x2f8(%rbp)
    a8fd:	28 3c 2b 
    a900:	c7 85 0c fd ff ff c6 	movl   $0x2b3c28c6,-0x2f4(%rbp)
    a907:	28 3c 2b 
    a90a:	c7 85 10 fd ff ff ff 	movl   $0xffffffff,-0x2f0(%rbp)
    a911:	ff ff ff 
    a914:	c7 85 14 fd ff ff ff 	movl   $0xffffffff,-0x2ec(%rbp)
    a91b:	ff ff ff 
    a91e:	c7 85 18 fd ff ff c6 	movl   $0x2b3c28c6,-0x2e8(%rbp)
    a925:	28 3c 2b 
    a928:	c7 85 1c fd ff ff ff 	movl   $0xffffffff,-0x2e4(%rbp)
    a92f:	ff ff ff 
    a932:	66 c7 85 50 fc ff ff 	movw   $0x4,-0x3b0(%rbp)
    a939:	04 00 
    a93b:	66 c7 85 52 fc ff ff 	movw   $0x4,-0x3ae(%rbp)
    a942:	04 00 
    a944:	66 c7 85 54 fc ff ff 	movw   $0x5199,-0x3ac(%rbp)
    a94b:	99 51 
    a94d:	66 c7 85 56 fc ff ff 	movw   $0x4,-0x3aa(%rbp)
    a954:	04 00 
    a956:	66 c7 85 58 fc ff ff 	movw   $0x4,-0x3a8(%rbp)
    a95d:	04 00 
    a95f:	66 c7 85 5a fc ff ff 	movw   $0x5199,-0x3a6(%rbp)
    a966:	99 51 
    a968:	66 c7 85 5c fc ff ff 	movw   $0x4,-0x3a4(%rbp)
    a96f:	04 00 
    a971:	66 c7 85 5e fc ff ff 	movw   $0x4,-0x3a2(%rbp)
    a978:	04 00 
    a97a:	66 c7 85 60 fc ff ff 	movw   $0x5199,-0x3a0(%rbp)
    a981:	99 51 
    a983:	66 c7 85 62 fc ff ff 	movw   $0x4,-0x39e(%rbp)
    a98a:	04 00 
    a98c:	66 c7 85 64 fc ff ff 	movw   $0x4,-0x39c(%rbp)
    a993:	04 00 
    a995:	66 c7 85 66 fc ff ff 	movw   $0x5199,-0x39a(%rbp)
    a99c:	99 51 
    a99e:	66 c7 85 68 fc ff ff 	movw   $0x4,-0x398(%rbp)
    a9a5:	04 00 
    a9a7:	66 c7 85 6a fc ff ff 	movw   $0x4,-0x396(%rbp)
    a9ae:	04 00 
    a9b0:	66 c7 85 6c fc ff ff 	movw   $0x5199,-0x394(%rbp)
    a9b7:	99 51 
    a9b9:	66 c7 85 6e fc ff ff 	movw   $0x4,-0x392(%rbp)
    a9c0:	04 00 
    a9c2:	66 c7 85 70 fc ff ff 	movw   $0x4,-0x390(%rbp)
    a9c9:	04 00 
    a9cb:	66 c7 85 72 fc ff ff 	movw   $0x5199,-0x38e(%rbp)
    a9d2:	99 51 
    a9d4:	48 c7 85 20 fc ff ff 	movq   $0x0,-0x3e0(%rbp)
    a9db:	00 00 00 00 
    a9df:	c7 85 e8 fb ff ff fd 	movl   $0xfffffffd,-0x418(%rbp)
    a9e6:	ff ff ff 
    a9e9:	c7 85 ec fb ff ff bd 	movl   $0xdd35dfbd,-0x414(%rbp)
    a9f0:	df 35 dd 
    a9f3:	66 c7 85 80 fc ff ff 	movw   $0x3,-0x380(%rbp)
    a9fa:	03 00 
    a9fc:	66 c7 85 82 fc ff ff 	movw   $0x0,-0x37e(%rbp)
    aa03:	00 00 
    aa05:	66 c7 85 84 fc ff ff 	movw   $0xffff,-0x37c(%rbp)
    aa0c:	ff ff 
    aa0e:	66 c7 85 86 fc ff ff 	movw   $0x0,-0x37a(%rbp)
    aa15:	00 00 
    aa17:	66 c7 85 88 fc ff ff 	movw   $0x3,-0x378(%rbp)
    aa1e:	03 00 
    aa20:	66 c7 85 8a fc ff ff 	movw   $0x1,-0x376(%rbp)
    aa27:	01 00 
    aa29:	66 c7 85 8c fc ff ff 	movw   $0x1d2b,-0x374(%rbp)
    aa30:	2b 1d 
    aa32:	66 c7 85 8e fc ff ff 	movw   $0x0,-0x372(%rbp)
    aa39:	00 00 
    aa3b:	66 c7 85 90 fc ff ff 	movw   $0x1d2b,-0x370(%rbp)
    aa42:	2b 1d 
    aa44:	66 c7 85 92 fc ff ff 	movw   $0x0,-0x36e(%rbp)
    aa4b:	00 00 
    aa4d:	66 c7 85 94 fc ff ff 	movw   $0x1d2b,-0x36c(%rbp)
    aa54:	2b 1d 
    aa56:	66 c7 85 96 fc ff ff 	movw   $0x1,-0x36a(%rbp)
    aa5d:	01 00 
    aa5f:	66 c7 85 98 fc ff ff 	movw   $0x3,-0x368(%rbp)
    aa66:	03 00 
    aa68:	66 c7 85 9a fc ff ff 	movw   $0x0,-0x366(%rbp)
    aa6f:	00 00 
    aa71:	66 c7 85 9c fc ff ff 	movw   $0xffff,-0x364(%rbp)
    aa78:	ff ff 
    aa7a:	66 c7 85 9e fc ff ff 	movw   $0x0,-0x362(%rbp)
    aa81:	00 00 
    aa83:	66 c7 85 a0 fc ff ff 	movw   $0x3,-0x360(%rbp)
    aa8a:	03 00 
    aa8c:	66 c7 85 a2 fc ff ff 	movw   $0x1,-0x35e(%rbp)
    aa93:	01 00 
    aa95:	66 c7 85 a4 fc ff ff 	movw   $0x1d2b,-0x35c(%rbp)
    aa9c:	2b 1d 
    aa9e:	66 c7 85 a6 fc ff ff 	movw   $0x0,-0x35a(%rbp)
    aaa5:	00 00 
    aaa7:	66 c7 85 a8 fc ff ff 	movw   $0x1d2b,-0x358(%rbp)
    aaae:	2b 1d 
    aab0:	66 c7 85 aa fc ff ff 	movw   $0x0,-0x356(%rbp)
    aab7:	00 00 
    aab9:	66 c7 85 ac fc ff ff 	movw   $0x1d2b,-0x354(%rbp)
    aac0:	2b 1d 
    aac2:	66 c7 85 ae fc ff ff 	movw   $0x1,-0x352(%rbp)
    aac9:	01 00 
    aacb:	66 c7 85 b0 fc ff ff 	movw   $0x3,-0x350(%rbp)
    aad2:	03 00 
    aad4:	66 c7 85 b2 fc ff ff 	movw   $0x0,-0x34e(%rbp)
    aadb:	00 00 
    aadd:	66 c7 85 b4 fc ff ff 	movw   $0xffff,-0x34c(%rbp)
    aae4:	ff ff 
    aae6:	66 c7 85 b6 fc ff ff 	movw   $0x0,-0x34a(%rbp)
    aaed:	00 00 
    aaef:	66 c7 85 b8 fc ff ff 	movw   $0x3,-0x348(%rbp)
    aaf6:	03 00 
    aaf8:	66 c7 85 ba fc ff ff 	movw   $0x1,-0x346(%rbp)
    aaff:	01 00 
    ab01:	66 c7 85 bc fc ff ff 	movw   $0x1d2b,-0x344(%rbp)
    ab08:	2b 1d 
    ab0a:	66 c7 85 be fc ff ff 	movw   $0x0,-0x342(%rbp)
    ab11:	00 00 
    ab13:	66 c7 85 c0 fc ff ff 	movw   $0x1d2b,-0x340(%rbp)
    ab1a:	2b 1d 
    ab1c:	66 c7 85 c2 fc ff ff 	movw   $0x0,-0x33e(%rbp)
    ab23:	00 00 
    ab25:	66 c7 85 c4 fc ff ff 	movw   $0x1d2b,-0x33c(%rbp)
    ab2c:	2b 1d 
    ab2e:	66 c7 85 c6 fc ff ff 	movw   $0x1,-0x33a(%rbp)
    ab35:	01 00 
    ab37:	66 c7 85 ce fb ff ff 	movw   $0xffff,-0x432(%rbp)
    ab3e:	ff ff 
    ab40:	c7 85 f0 fb ff ff 2c 	movl   $0x6154922c,-0x410(%rbp)
    ab47:	92 54 61 
    ab4a:	c6 85 cb fb ff ff 93 	movb   $0x93,-0x435(%rbp)
    ab51:	48 b8 f2 53 3a 4c f2 	movabs $0xa53490f24c3a53f2,%rax
    ab58:	90 34 a5 
    ab5b:	48 89 85 28 fc ff ff 	mov    %rax,-0x3d8(%rbp)
    ab62:	c7 85 f4 fb ff ff ff 	movl   $0xffffffff,-0x40c(%rbp)
    ab69:	ff ff ff 
    ab6c:	48 b8 53 e1 35 3c f2 	movabs $0xf745a5f23c35e153,%rax
    ab73:	a5 45 f7 
    ab76:	48 89 85 30 fc ff ff 	mov    %rax,-0x3d0(%rbp)
    ab7d:	c7 85 d0 fb ff ff 00 	movl   $0x0,-0x430(%rbp)
    ab84:	00 00 00 
    ab87:	eb 1e                	jmp    aba7 <func_1+0x3f2>
    ab89:	8b 85 d0 fb ff ff    	mov    -0x430(%rbp),%eax
    ab8f:	48 98                	cltq   
    ab91:	48 8d 15 a0 f4 00 00 	lea    0xf4a0(%rip),%rdx        # 1a038 <g_9>
    ab98:	48 89 94 c5 40 fc ff 	mov    %rdx,-0x3c0(%rbp,%rax,8)
    ab9f:	ff 
    aba0:	83 85 d0 fb ff ff 01 	addl   $0x1,-0x430(%rbp)
    aba7:	83 bd d0 fb ff ff 01 	cmpl   $0x1,-0x430(%rbp)
    abae:	7e d9                	jle    ab89 <func_1+0x3d4>
    abb0:	c7 85 d0 fb ff ff 00 	movl   $0x0,-0x430(%rbp)
    abb7:	00 00 00 
    abba:	eb 1a                	jmp    abd6 <func_1+0x421>
    abbc:	8b 85 d0 fb ff ff    	mov    -0x430(%rbp),%eax
    abc2:	48 98                	cltq   
    abc4:	c7 84 85 3c fc ff ff 	movl   $0x28b62b5b,-0x3c4(%rbp,%rax,4)
    abcb:	5b 2b b6 28 
    abcf:	83 85 d0 fb ff ff 01 	addl   $0x1,-0x430(%rbp)
    abd6:	83 bd d0 fb ff ff 00 	cmpl   $0x0,-0x430(%rbp)
    abdd:	7e dd                	jle    abbc <func_1+0x407>
    abdf:	48 8b 05 62 19 01 00 	mov    0x11962(%rip),%rax        # 1c548 <g_1316>
    abe6:	48 8b 00             	mov    (%rax),%rax
    abe9:	48 8b 00             	mov    (%rax),%rax
    abec:	48 8b 4d f8          	mov    -0x8(%rbp),%rcx
    abf0:	64 48 33 0c 25 28 00 	xor    %fs:0x28,%rcx
    abf7:	00 00 
    abf9:	74 05                	je     ac00 <func_1+0x44b>
    abfb:	e8 70 e4 ff ff       	callq  9070 <__stack_chk_fail@plt>
    ac00:	c9                   	leaveq 
    ac01:	c3                   	retq   

000000000000ac02 <func_6>:
    ac02:	f3 0f 1e fa          	endbr64 
    ac06:	55                   	push   %rbp
    ac07:	48 89 e5             	mov    %rsp,%rbp
    ac0a:	48 81 ec 80 06 00 00 	sub    $0x680,%rsp
    ac11:	48 89 bd 88 f9 ff ff 	mov    %rdi,-0x678(%rbp)
    ac18:	64 48 8b 04 25 28 00 	mov    %fs:0x28,%rax
    ac1f:	00 00 
    ac21:	48 89 45 f8          	mov    %rax,-0x8(%rbp)
    ac25:	31 c0                	xor    %eax,%eax
    ac27:	48 8d 05 9a 2f 01 00 	lea    0x12f9a(%rip),%rax        # 1dbc8 <g_13>
    ac2e:	48 89 85 a8 f9 ff ff 	mov    %rax,-0x658(%rbp)
    ac35:	48 c7 85 b0 f9 ff ff 	movq   $0x0,-0x650(%rbp)
    ac3c:	00 00 00 00 
    ac40:	48 c7 85 b8 f9 ff ff 	movq   $0x0,-0x648(%rbp)
    ac47:	00 00 00 00 
    ac4b:	48 8d 85 30 fc ff ff 	lea    -0x3d0(%rbp),%rax
    ac52:	48 8d 15 67 f6 00 00 	lea    0xf667(%rip),%rdx        # 1a2c0 <g_2296+0x20>
    ac59:	b9 78 00 00 00       	mov    $0x78,%ecx
    ac5e:	48 89 c7             	mov    %rax,%rdi
    ac61:	48 89 d6             	mov    %rdx,%rsi
    ac64:	f3 48 a5             	rep movsq %ds:(%rsi),%es:(%rdi)
    ac67:	48 8d 85 30 fc ff ff 	lea    -0x3d0(%rbp),%rax
    ac6e:	48 05 70 01 00 00    	add    $0x170,%rax
    ac74:	48 89 85 c0 f9 ff ff 	mov    %rax,-0x640(%rbp)
    ac7b:	c7 85 a0 f9 ff ff e9 	movl   $0xf00bf2e9,-0x660(%rbp)
    ac82:	f2 0b f0 
    ac85:	c7 85 a4 f9 ff ff 28 	movl   $0x8d633328,-0x65c(%rbp)
    ac8c:	33 63 8d 
    ac8f:	c7 85 20 fa ff ff fc 	movl   $0xfffffffc,-0x5e0(%rbp)
    ac96:	ff ff ff 
    ac99:	c7 85 24 fa ff ff f7 	movl   $0xfffffff7,-0x5dc(%rbp)
    aca0:	ff ff ff 
    aca3:	c7 85 28 fa ff ff fc 	movl   $0xfffffffc,-0x5d8(%rbp)
    acaa:	ff ff ff 
    acad:	c7 85 2c fa ff ff f7 	movl   $0xfffffff7,-0x5d4(%rbp)
    acb4:	ff ff ff 
    acb7:	c7 85 30 fa ff ff fc 	movl   $0xfffffffc,-0x5d0(%rbp)
    acbe:	ff ff ff 
    acc1:	c7 85 34 fa ff ff f7 	movl   $0xfffffff7,-0x5cc(%rbp)
    acc8:	ff ff ff 
    accb:	c7 85 38 fa ff ff fc 	movl   $0xfffffffc,-0x5c8(%rbp)
    acd2:	ff ff ff 
    acd5:	c7 85 3c fa ff ff f7 	movl   $0xfffffff7,-0x5c4(%rbp)
    acdc:	ff ff ff 
    acdf:	48 c7 85 c8 f9 ff ff 	movq   $0x0,-0x638(%rbp)
    ace6:	00 00 00 00 
    acea:	66 c7 85 40 fa ff ff 	movw   $0xfff9,-0x5c0(%rbp)
    acf1:	f9 ff 
    acf3:	66 c7 85 42 fa ff ff 	movw   $0x64c6,-0x5be(%rbp)
    acfa:	c6 64 
    acfc:	66 c7 85 44 fa ff ff 	movw   $0x972c,-0x5bc(%rbp)
    ad03:	2c 97 
    ad05:	66 c7 85 46 fa ff ff 	movw   $0x1,-0x5ba(%rbp)
    ad0c:	01 00 
    ad0e:	66 c7 85 48 fa ff ff 	movw   $0x972c,-0x5b8(%rbp)
    ad15:	2c 97 
    ad17:	66 c7 85 4a fa ff ff 	movw   $0x64c6,-0x5b6(%rbp)
    ad1e:	c6 64 
    ad20:	66 c7 85 4c fa ff ff 	movw   $0xfff9,-0x5b4(%rbp)
    ad27:	f9 ff 
    ad29:	66 c7 85 4e fa ff ff 	movw   $0x64c6,-0x5b2(%rbp)
    ad30:	c6 64 
    ad32:	66 c7 85 50 fa ff ff 	movw   $0x972c,-0x5b0(%rbp)
    ad39:	2c 97 
    ad3b:	66 c7 85 52 fa ff ff 	movw   $0x1,-0x5ae(%rbp)
    ad42:	01 00 
    ad44:	66 c7 85 54 fa ff ff 	movw   $0x972c,-0x5ac(%rbp)
    ad4b:	2c 97 
    ad4d:	66 c7 85 56 fa ff ff 	movw   $0x64c6,-0x5aa(%rbp)
    ad54:	c6 64 
    ad56:	66 c7 85 58 fa ff ff 	movw   $0xfff9,-0x5a8(%rbp)
    ad5d:	f9 ff 
    ad5f:	66 c7 85 5a fa ff ff 	movw   $0x64c6,-0x5a6(%rbp)
    ad66:	c6 64 
    ad68:	66 c7 85 5c fa ff ff 	movw   $0x972c,-0x5a4(%rbp)
    ad6f:	2c 97 
    ad71:	66 c7 85 5e fa ff ff 	movw   $0x1,-0x5a2(%rbp)
    ad78:	01 00 
    ad7a:	66 c7 85 60 fa ff ff 	movw   $0x972c,-0x5a0(%rbp)
    ad81:	2c 97 
    ad83:	66 c7 85 62 fa ff ff 	movw   $0x64c6,-0x59e(%rbp)
    ad8a:	c6 64 
    ad8c:	66 c7 85 64 fa ff ff 	movw   $0xfff9,-0x59c(%rbp)
    ad93:	f9 ff 
    ad95:	66 c7 85 66 fa ff ff 	movw   $0x64c6,-0x59a(%rbp)
    ad9c:	c6 64 
    ad9e:	66 c7 85 68 fa ff ff 	movw   $0x972c,-0x598(%rbp)
    ada5:	2c 97 
    ada7:	66 c7 85 6a fa ff ff 	movw   $0x1,-0x596(%rbp)
    adae:	01 00 
    adb0:	66 c7 85 6c fa ff ff 	movw   $0x972c,-0x594(%rbp)
    adb7:	2c 97 
    adb9:	66 c7 85 6e fa ff ff 	movw   $0x64c6,-0x592(%rbp)
    adc0:	c6 64 
    adc2:	66 c7 85 70 fa ff ff 	movw   $0xfff9,-0x590(%rbp)
    adc9:	f9 ff 
    adcb:	66 c7 85 72 fa ff ff 	movw   $0x64c6,-0x58e(%rbp)
    add2:	c6 64 
    add4:	66 c7 85 74 fa ff ff 	movw   $0x972c,-0x58c(%rbp)
    addb:	2c 97 
    addd:	66 c7 85 76 fa ff ff 	movw   $0x1,-0x58a(%rbp)
    ade4:	01 00 
    ade6:	66 c7 85 78 fa ff ff 	movw   $0x972c,-0x588(%rbp)
    aded:	2c 97 
    adef:	66 c7 85 7a fa ff ff 	movw   $0x64c6,-0x586(%rbp)
    adf6:	c6 64 
    adf8:	66 c7 85 7c fa ff ff 	movw   $0xfff9,-0x584(%rbp)
    adff:	f9 ff 
    ae01:	66 c7 85 7e fa ff ff 	movw   $0x64c6,-0x582(%rbp)
    ae08:	c6 64 
    ae0a:	66 c7 85 80 fa ff ff 	movw   $0x972c,-0x580(%rbp)
    ae11:	2c 97 
    ae13:	66 c7 85 82 fa ff ff 	movw   $0x1,-0x57e(%rbp)
    ae1a:	01 00 
    ae1c:	66 c7 85 84 fa ff ff 	movw   $0x972c,-0x57c(%rbp)
    ae23:	2c 97 
    ae25:	66 c7 85 86 fa ff ff 	movw   $0x64c6,-0x57a(%rbp)
    ae2c:	c6 64 
    ae2e:	48 c7 85 90 fa ff ff 	movq   $0x0,-0x570(%rbp)
    ae35:	00 00 00 00 
    ae39:	48 c7 85 98 fa ff ff 	movq   $0x0,-0x568(%rbp)
    ae40:	00 00 00 00 
    ae44:	48 c7 85 a0 fa ff ff 	movq   $0x0,-0x560(%rbp)
    ae4b:	00 00 00 00 
    ae4f:	48 8d 85 20 fa ff ff 	lea    -0x5e0(%rbp),%rax
    ae56:	48 89 85 a8 fa ff ff 	mov    %rax,-0x558(%rbp)
    ae5d:	48 8d 05 2c f2 00 00 	lea    0xf22c(%rip),%rax        # 1a090 <g_99>
    ae64:	48 89 85 b0 fa ff ff 	mov    %rax,-0x550(%rbp)
    ae6b:	48 8d 85 20 fa ff ff 	lea    -0x5e0(%rbp),%rax
    ae72:	48 89 85 b8 fa ff ff 	mov    %rax,-0x548(%rbp)
    ae79:	48 c7 85 c0 fa ff ff 	movq   $0x0,-0x540(%rbp)
    ae80:	00 00 00 00 
    ae84:	48 c7 85 c8 fa ff ff 	movq   $0x0,-0x538(%rbp)
    ae8b:	00 00 00 00 
    ae8f:	48 c7 85 d0 fa ff ff 	movq   $0x0,-0x530(%rbp)
    ae96:	00 00 00 00 
    ae9a:	48 8d 85 20 fa ff ff 	lea    -0x5e0(%rbp),%rax
    aea1:	48 89 85 d8 fa ff ff 	mov    %rax,-0x528(%rbp)
    aea8:	48 8d 05 e1 f1 00 00 	lea    0xf1e1(%rip),%rax        # 1a090 <g_99>
    aeaf:	48 89 85 e0 fa ff ff 	mov    %rax,-0x520(%rbp)
    aeb6:	48 8d 85 20 fa ff ff 	lea    -0x5e0(%rbp),%rax
    aebd:	48 89 85 e8 fa ff ff 	mov    %rax,-0x518(%rbp)
    aec4:	48 c7 85 f0 fa ff ff 	movq   $0x0,-0x510(%rbp)
    aecb:	00 00 00 00 
    aecf:	48 c7 85 f8 fa ff ff 	movq   $0x0,-0x508(%rbp)
    aed6:	00 00 00 00 
    aeda:	48 c7 85 00 fb ff ff 	movq   $0x0,-0x500(%rbp)
    aee1:	00 00 00 00 
    aee5:	48 8d 85 20 fa ff ff 	lea    -0x5e0(%rbp),%rax
    aeec:	48 83 c0 04          	add    $0x4,%rax
    aef0:	48 89 85 d0 f9 ff ff 	mov    %rax,-0x630(%rbp)
    aef7:	48 8d 85 20 fa ff ff 	lea    -0x5e0(%rbp),%rax
    aefe:	48 89 85 d8 f9 ff ff 	mov    %rax,-0x628(%rbp)
    af05:	48 8d 85 20 fa ff ff 	lea    -0x5e0(%rbp),%rax
    af0c:	48 83 c0 08          	add    $0x8,%rax
    af10:	48 89 85 e0 f9 ff ff 	mov    %rax,-0x620(%rbp)
    af17:	48 8d 05 0a f3 00 00 	lea    0xf30a(%rip),%rax        # 1a228 <g_1758>
    af1e:	48 89 85 e8 f9 ff ff 	mov    %rax,-0x618(%rbp)
    af25:	48 8b 85 a8 f9 ff ff 	mov    -0x658(%rbp),%rax
    af2c:	48 89 c7             	mov    %rax,%rdi
    af2f:	e8 a9 04 00 00       	callq  b3dd <func_10>
    af34:	48 8b 95 c0 f9 ff ff 	mov    -0x640(%rbp),%rdx
    af3b:	48 89 02             	mov    %rax,(%rdx)
    af3e:	c6 05 f3 f0 00 00 fc 	movb   $0xfc,0xf0f3(%rip)        # 1a038 <g_9>
    af45:	e9 f8 01 00 00       	jmpq   b142 <func_6+0x540>
    af4a:	48 c7 85 f0 f9 ff ff 	movq   $0x0,-0x610(%rbp)
    af51:	00 00 00 00 
    af55:	48 8d 05 cc f2 00 00 	lea    0xf2cc(%rip),%rax        # 1a228 <g_1758>
    af5c:	48 89 85 f8 f9 ff ff 	mov    %rax,-0x608(%rbp)
    af63:	48 c7 85 00 fa ff ff 	movq   $0x0,-0x600(%rbp)
    af6a:	00 00 00 00 
    af6e:	48 8d 05 1b f1 00 00 	lea    0xf11b(%rip),%rax        # 1a090 <g_99>
    af75:	48 89 85 08 fa ff ff 	mov    %rax,-0x5f8(%rbp)
    af7c:	48 8d 05 0d f1 00 00 	lea    0xf10d(%rip),%rax        # 1a090 <g_99>
    af83:	48 89 85 10 fa ff ff 	mov    %rax,-0x5f0(%rbp)
    af8a:	48 8d 05 4f 2d 01 00 	lea    0x12d4f(%rip),%rax        # 1dce0 <g_1220>
    af91:	48 89 85 10 fb ff ff 	mov    %rax,-0x4f0(%rbp)
    af98:	48 8d 05 89 f2 00 00 	lea    0xf289(%rip),%rax        # 1a228 <g_1758>
    af9f:	48 89 85 18 fb ff ff 	mov    %rax,-0x4e8(%rbp)
    afa6:	48 8d 05 33 2d 01 00 	lea    0x12d33(%rip),%rax        # 1dce0 <g_1220>
    afad:	48 89 85 20 fb ff ff 	mov    %rax,-0x4e0(%rbp)
    afb4:	48 8d 05 25 2d 01 00 	lea    0x12d25(%rip),%rax        # 1dce0 <g_1220>
    afbb:	48 89 85 28 fb ff ff 	mov    %rax,-0x4d8(%rbp)
    afc2:	48 8d 05 5f f2 00 00 	lea    0xf25f(%rip),%rax        # 1a228 <g_1758>
    afc9:	48 89 85 30 fb ff ff 	mov    %rax,-0x4d0(%rbp)
    afd0:	48 8d 05 09 2d 01 00 	lea    0x12d09(%rip),%rax        # 1dce0 <g_1220>
    afd7:	48 89 85 38 fb ff ff 	mov    %rax,-0x4c8(%rbp)
    afde:	48 8d 05 fb 2c 01 00 	lea    0x12cfb(%rip),%rax        # 1dce0 <g_1220>
    afe5:	48 89 85 40 fb ff ff 	mov    %rax,-0x4c0(%rbp)
    afec:	48 8d 05 35 f2 00 00 	lea    0xf235(%rip),%rax        # 1a228 <g_1758>
    aff3:	48 89 85 48 fb ff ff 	mov    %rax,-0x4b8(%rbp)
    affa:	48 8d 05 27 f2 00 00 	lea    0xf227(%rip),%rax        # 1a228 <g_1758>
    b001:	48 89 85 50 fb ff ff 	mov    %rax,-0x4b0(%rbp)
    b008:	48 8d 05 d1 2c 01 00 	lea    0x12cd1(%rip),%rax        # 1dce0 <g_1220>
    b00f:	48 89 85 58 fb ff ff 	mov    %rax,-0x4a8(%rbp)
    b016:	48 8d 05 c3 2c 01 00 	lea    0x12cc3(%rip),%rax        # 1dce0 <g_1220>
    b01d:	48 89 85 60 fb ff ff 	mov    %rax,-0x4a0(%rbp)
    b024:	48 8d 05 fd f1 00 00 	lea    0xf1fd(%rip),%rax        # 1a228 <g_1758>
    b02b:	48 89 85 68 fb ff ff 	mov    %rax,-0x498(%rbp)
    b032:	48 8d 05 a7 2c 01 00 	lea    0x12ca7(%rip),%rax        # 1dce0 <g_1220>
    b039:	48 89 85 70 fb ff ff 	mov    %rax,-0x490(%rbp)
    b040:	48 8d 05 99 2c 01 00 	lea    0x12c99(%rip),%rax        # 1dce0 <g_1220>
    b047:	48 89 85 78 fb ff ff 	mov    %rax,-0x488(%rbp)
    b04e:	48 8d 05 d3 f1 00 00 	lea    0xf1d3(%rip),%rax        # 1a228 <g_1758>
    b055:	48 89 85 80 fb ff ff 	mov    %rax,-0x480(%rbp)
    b05c:	48 8d 05 7d 2c 01 00 	lea    0x12c7d(%rip),%rax        # 1dce0 <g_1220>
    b063:	48 89 85 88 fb ff ff 	mov    %rax,-0x478(%rbp)
    b06a:	48 8d 05 b7 f1 00 00 	lea    0xf1b7(%rip),%rax        # 1a228 <g_1758>
    b071:	48 89 85 90 fb ff ff 	mov    %rax,-0x470(%rbp)
    b078:	48 8d 05 a9 f1 00 00 	lea    0xf1a9(%rip),%rax        # 1a228 <g_1758>
    b07f:	48 89 85 98 fb ff ff 	mov    %rax,-0x468(%rbp)
    b086:	48 8d 05 53 2c 01 00 	lea    0x12c53(%rip),%rax        # 1dce0 <g_1220>
    b08d:	48 89 85 a0 fb ff ff 	mov    %rax,-0x460(%rbp)
    b094:	48 8d 05 8d f1 00 00 	lea    0xf18d(%rip),%rax        # 1a228 <g_1758>
    b09b:	48 89 85 a8 fb ff ff 	mov    %rax,-0x458(%rbp)
    b0a2:	48 8d 05 7f f1 00 00 	lea    0xf17f(%rip),%rax        # 1a228 <g_1758>
    b0a9:	48 89 85 b0 fb ff ff 	mov    %rax,-0x450(%rbp)
    b0b0:	48 8d 05 29 2c 01 00 	lea    0x12c29(%rip),%rax        # 1dce0 <g_1220>
    b0b7:	48 89 85 b8 fb ff ff 	mov    %rax,-0x448(%rbp)
    b0be:	48 8d 05 63 f1 00 00 	lea    0xf163(%rip),%rax        # 1a228 <g_1758>
    b0c5:	48 89 85 c0 fb ff ff 	mov    %rax,-0x440(%rbp)
    b0cc:	48 8d 05 55 f1 00 00 	lea    0xf155(%rip),%rax        # 1a228 <g_1758>
    b0d3:	48 89 85 c8 fb ff ff 	mov    %rax,-0x438(%rbp)
    b0da:	48 c7 85 18 fa ff ff 	movq   $0x8,-0x5e8(%rbp)
    b0e1:	08 00 00 00 
    b0e5:	c7 85 9c f9 ff ff 00 	movl   $0x0,-0x664(%rbp)
    b0ec:	00 00 00 
    b0ef:	eb 14                	jmp    b105 <func_6+0x503>
    b0f1:	8b 85 9c f9 ff ff    	mov    -0x664(%rbp),%eax
    b0f7:	48 98                	cltq   
    b0f9:	c6 44 05 f6 00       	movb   $0x0,-0xa(%rbp,%rax,1)
    b0fe:	83 85 9c f9 ff ff 01 	addl   $0x1,-0x664(%rbp)
    b105:	83 bd 9c f9 ff ff 01 	cmpl   $0x1,-0x664(%rbp)
    b10c:	7e e3                	jle    b0f1 <func_6+0x4ef>
    b10e:	0f b7 85 60 fa ff ff 	movzwl -0x5a0(%rbp),%eax
    b115:	83 e8 01             	sub    $0x1,%eax
    b118:	66 89 85 60 fa ff ff 	mov    %ax,-0x5a0(%rbp)
    b11f:	83 bd a0 f9 ff ff 00 	cmpl   $0x0,-0x660(%rbp)
    b126:	75 2b                	jne    b153 <func_6+0x551>
    b128:	8b 05 f2 2a 01 00    	mov    0x12af2(%rip),%eax        # 1dc20 <g_272>
    b12e:	85 c0                	test   %eax,%eax
    b130:	75 24                	jne    b156 <func_6+0x554>
    b132:	0f b6 05 ff ee 00 00 	movzbl 0xeeff(%rip),%eax        # 1a038 <g_9>
    b139:	83 c0 01             	add    $0x1,%eax
    b13c:	88 05 f6 ee 00 00    	mov    %al,0xeef6(%rip)        # 1a038 <g_9>
    b142:	0f b6 05 ef ee 00 00 	movzbl 0xeeef(%rip),%eax        # 1a038 <g_9>
    b149:	3c 0f                	cmp    $0xf,%al
    b14b:	0f 8e f9 fd ff ff    	jle    af4a <func_6+0x348>
    b151:	eb 04                	jmp    b157 <func_6+0x555>
    b153:	90                   	nop
    b154:	eb 01                	jmp    b157 <func_6+0x555>
    b156:	90                   	nop
    b157:	48 8b 05 aa 13 01 00 	mov    0x113aa(%rip),%rax        # 1c508 <g_1266>
    b15e:	48 8b 00             	mov    (%rax),%rax
    b161:	48 8b 00             	mov    (%rax),%rax
    b164:	48 8d 95 20 fa ff ff 	lea    -0x5e0(%rbp),%rdx
    b16b:	48 83 c2 18          	add    $0x18,%rdx
    b16f:	48 89 10             	mov    %rdx,(%rax)
    b172:	48 c7 05 93 f0 00 00 	movq   $0x0,0xf093(%rip)        # 1a210 <g_805>
    b179:	00 00 00 00 
    b17d:	90                   	nop
    b17e:	48 8b 05 8b f0 00 00 	mov    0xf08b(%rip),%rax        # 1a210 <g_805>
    b185:	48 83 f8 2d          	cmp    $0x2d,%rax
    b189:	0f 87 31 02 00 00    	ja     b3c0 <func_6+0x7be>
    b18f:	48 8d 05 4a 2b 01 00 	lea    0x12b4a(%rip),%rax        # 1dce0 <g_1220>
    b196:	48 89 85 10 fb ff ff 	mov    %rax,-0x4f0(%rbp)
    b19d:	48 8d 85 20 fa ff ff 	lea    -0x5e0(%rbp),%rax
    b1a4:	48 83 c0 0c          	add    $0xc,%rax
    b1a8:	48 89 85 18 fb ff ff 	mov    %rax,-0x4e8(%rbp)
    b1af:	48 8d 05 2a 2b 01 00 	lea    0x12b2a(%rip),%rax        # 1dce0 <g_1220>
    b1b6:	48 89 85 20 fb ff ff 	mov    %rax,-0x4e0(%rbp)
    b1bd:	48 8d 05 1c 2b 01 00 	lea    0x12b1c(%rip),%rax        # 1dce0 <g_1220>
    b1c4:	48 89 85 28 fb ff ff 	mov    %rax,-0x4d8(%rbp)
    b1cb:	48 8d 85 20 fa ff ff 	lea    -0x5e0(%rbp),%rax
    b1d2:	48 83 c0 0c          	add    $0xc,%rax
    b1d6:	48 89 85 30 fb ff ff 	mov    %rax,-0x4d0(%rbp)
    b1dd:	48 8d 05 fc 2a 01 00 	lea    0x12afc(%rip),%rax        # 1dce0 <g_1220>
    b1e4:	48 89 85 38 fb ff ff 	mov    %rax,-0x4c8(%rbp)
    b1eb:	48 8d 05 ee 2a 01 00 	lea    0x12aee(%rip),%rax        # 1dce0 <g_1220>
    b1f2:	48 89 85 40 fb ff ff 	mov    %rax,-0x4c0(%rbp)
    b1f9:	48 8d 85 20 fa ff ff 	lea    -0x5e0(%rbp),%rax
    b200:	48 83 c0 0c          	add    $0xc,%rax
    b204:	48 89 85 48 fb ff ff 	mov    %rax,-0x4b8(%rbp)
    b20b:	48 8d 05 ce 2a 01 00 	lea    0x12ace(%rip),%rax        # 1dce0 <g_1220>
    b212:	48 89 85 50 fb ff ff 	mov    %rax,-0x4b0(%rbp)
    b219:	48 8d 05 c0 2a 01 00 	lea    0x12ac0(%rip),%rax        # 1dce0 <g_1220>
    b220:	48 89 85 58 fb ff ff 	mov    %rax,-0x4a8(%rbp)
    b227:	48 8d 85 20 fa ff ff 	lea    -0x5e0(%rbp),%rax
    b22e:	48 83 c0 0c          	add    $0xc,%rax
    b232:	48 89 85 60 fb ff ff 	mov    %rax,-0x4a0(%rbp)
    b239:	48 8d 05 a0 2a 01 00 	lea    0x12aa0(%rip),%rax        # 1dce0 <g_1220>
    b240:	48 89 85 68 fb ff ff 	mov    %rax,-0x498(%rbp)
    b247:	48 8d 05 92 2a 01 00 	lea    0x12a92(%rip),%rax        # 1dce0 <g_1220>
    b24e:	48 89 85 70 fb ff ff 	mov    %rax,-0x490(%rbp)
    b255:	48 8d 85 20 fa ff ff 	lea    -0x5e0(%rbp),%rax
    b25c:	48 83 c0 0c          	add    $0xc,%rax
    b260:	48 89 85 78 fb ff ff 	mov    %rax,-0x488(%rbp)
    b267:	48 8d 05 72 2a 01 00 	lea    0x12a72(%rip),%rax        # 1dce0 <g_1220>
    b26e:	48 89 85 80 fb ff ff 	mov    %rax,-0x480(%rbp)
    b275:	48 8d 05 64 2a 01 00 	lea    0x12a64(%rip),%rax        # 1dce0 <g_1220>
    b27c:	48 89 85 88 fb ff ff 	mov    %rax,-0x478(%rbp)
    b283:	48 8d 85 20 fa ff ff 	lea    -0x5e0(%rbp),%rax
    b28a:	48 83 c0 0c          	add    $0xc,%rax
    b28e:	48 89 85 90 fb ff ff 	mov    %rax,-0x470(%rbp)
    b295:	48 8d 05 44 2a 01 00 	lea    0x12a44(%rip),%rax        # 1dce0 <g_1220>
    b29c:	48 89 85 98 fb ff ff 	mov    %rax,-0x468(%rbp)
    b2a3:	48 8d 05 36 2a 01 00 	lea    0x12a36(%rip),%rax        # 1dce0 <g_1220>
    b2aa:	48 89 85 a0 fb ff ff 	mov    %rax,-0x460(%rbp)
    b2b1:	48 8d 85 20 fa ff ff 	lea    -0x5e0(%rbp),%rax
    b2b8:	48 83 c0 0c          	add    $0xc,%rax
    b2bc:	48 89 85 a8 fb ff ff 	mov    %rax,-0x458(%rbp)
    b2c3:	48 8d 05 16 2a 01 00 	lea    0x12a16(%rip),%rax        # 1dce0 <g_1220>
    b2ca:	48 89 85 b0 fb ff ff 	mov    %rax,-0x450(%rbp)
    b2d1:	48 8d 05 08 2a 01 00 	lea    0x12a08(%rip),%rax        # 1dce0 <g_1220>
    b2d8:	48 89 85 b8 fb ff ff 	mov    %rax,-0x448(%rbp)
    b2df:	48 8d 85 20 fa ff ff 	lea    -0x5e0(%rbp),%rax
    b2e6:	48 83 c0 0c          	add    $0xc,%rax
    b2ea:	48 89 85 c0 fb ff ff 	mov    %rax,-0x440(%rbp)
    b2f1:	48 8d 05 e8 29 01 00 	lea    0x129e8(%rip),%rax        # 1dce0 <g_1220>
    b2f8:	48 89 85 c8 fb ff ff 	mov    %rax,-0x438(%rbp)
    b2ff:	48 8d 05 da 29 01 00 	lea    0x129da(%rip),%rax        # 1dce0 <g_1220>
    b306:	48 89 85 d0 fb ff ff 	mov    %rax,-0x430(%rbp)
    b30d:	48 8d 85 20 fa ff ff 	lea    -0x5e0(%rbp),%rax
    b314:	48 83 c0 0c          	add    $0xc,%rax
    b318:	48 89 85 d8 fb ff ff 	mov    %rax,-0x428(%rbp)
    b31f:	48 8d 05 ba 29 01 00 	lea    0x129ba(%rip),%rax        # 1dce0 <g_1220>
    b326:	48 89 85 e0 fb ff ff 	mov    %rax,-0x420(%rbp)
    b32d:	48 8d 05 ac 29 01 00 	lea    0x129ac(%rip),%rax        # 1dce0 <g_1220>
    b334:	48 89 85 e8 fb ff ff 	mov    %rax,-0x418(%rbp)
    b33b:	48 8d 85 20 fa ff ff 	lea    -0x5e0(%rbp),%rax
    b342:	48 83 c0 0c          	add    $0xc,%rax
    b346:	48 89 85 f0 fb ff ff 	mov    %rax,-0x410(%rbp)
    b34d:	48 8d 05 8c 29 01 00 	lea    0x1298c(%rip),%rax        # 1dce0 <g_1220>
    b354:	48 89 85 f8 fb ff ff 	mov    %rax,-0x408(%rbp)
    b35b:	48 8d 05 7e 29 01 00 	lea    0x1297e(%rip),%rax        # 1dce0 <g_1220>
    b362:	48 89 85 00 fc ff ff 	mov    %rax,-0x400(%rbp)
    b369:	48 8d 85 20 fa ff ff 	lea    -0x5e0(%rbp),%rax
    b370:	48 83 c0 0c          	add    $0xc,%rax
    b374:	48 89 85 08 fc ff ff 	mov    %rax,-0x3f8(%rbp)
    b37b:	48 8d 05 5e 29 01 00 	lea    0x1295e(%rip),%rax        # 1dce0 <g_1220>
    b382:	48 89 85 10 fc ff ff 	mov    %rax,-0x3f0(%rbp)
    b389:	48 8d 05 50 29 01 00 	lea    0x12950(%rip),%rax        # 1dce0 <g_1220>
    b390:	48 89 85 18 fc ff ff 	mov    %rax,-0x3e8(%rbp)
    b397:	48 8d 85 20 fa ff ff 	lea    -0x5e0(%rbp),%rax
    b39e:	48 83 c0 0c          	add    $0xc,%rax
    b3a2:	48 89 85 20 fc ff ff 	mov    %rax,-0x3e0(%rbp)
    b3a9:	48 8d 05 30 29 01 00 	lea    0x12930(%rip),%rax        # 1dce0 <g_1220>
    b3b0:	48 89 85 28 fc ff ff 	mov    %rax,-0x3d8(%rbp)
    b3b7:	48 8b 05 6a 29 01 00 	mov    0x1296a(%rip),%rax        # 1dd28 <g_1845>
    b3be:	eb 07                	jmp    b3c7 <func_6+0x7c5>
    b3c0:	48 8b 85 e8 f9 ff ff 	mov    -0x618(%rbp),%rax
    b3c7:	48 8b 4d f8          	mov    -0x8(%rbp),%rcx
    b3cb:	64 48 33 0c 25 28 00 	xor    %fs:0x28,%rcx
    b3d2:	00 00 
    b3d4:	74 05                	je     b3db <func_6+0x7d9>
    b3d6:	e8 95 dc ff ff       	callq  9070 <__stack_chk_fail@plt>
    b3db:	c9                   	leaveq 
    b3dc:	c3                   	retq   

000000000000b3dd <func_10>:
    b3dd:	f3 0f 1e fa          	endbr64 
    b3e1:	55                   	push   %rbp
    b3e2:	48 89 e5             	mov    %rsp,%rbp
    b3e5:	41 56                	push   %r14
    b3e7:	41 55                	push   %r13
    b3e9:	41 54                	push   %r12
    b3eb:	53                   	push   %rbx
    b3ec:	48 81 ec 10 03 00 00 	sub    $0x310,%rsp
    b3f3:	48 89 bd d8 fc ff ff 	mov    %rdi,-0x328(%rbp)
    b3fa:	64 48 8b 04 25 28 00 	mov    %fs:0x28,%rax
    b401:	00 00 
    b403:	48 89 45 d8          	mov    %rax,-0x28(%rbp)
    b407:	31 c0                	xor    %eax,%eax
    b409:	48 c7 85 60 fe ff ff 	movq   $0x0,-0x1a0(%rbp)
    b410:	00 00 00 00 
    b414:	48 c7 85 68 fe ff ff 	movq   $0x0,-0x198(%rbp)
    b41b:	00 00 00 00 
    b41f:	48 c7 85 70 fe ff ff 	movq   $0x0,-0x190(%rbp)
    b426:	00 00 00 00 
    b42a:	48 c7 85 78 fe ff ff 	movq   $0x0,-0x188(%rbp)
    b431:	00 00 00 00 
    b435:	48 c7 85 80 fe ff ff 	movq   $0x0,-0x180(%rbp)
    b43c:	00 00 00 00 
    b440:	48 c7 85 88 fe ff ff 	movq   $0x0,-0x178(%rbp)
    b447:	00 00 00 00 
    b44b:	48 c7 85 90 fe ff ff 	movq   $0x0,-0x170(%rbp)
    b452:	00 00 00 00 
    b456:	48 c7 85 98 fe ff ff 	movq   $0x0,-0x168(%rbp)
    b45d:	00 00 00 00 
    b461:	48 8d 05 c8 eb 00 00 	lea    0xebc8(%rip),%rax        # 1a030 <g_5>
    b468:	48 89 85 08 fd ff ff 	mov    %rax,-0x2f8(%rbp)
    b46f:	48 8d 05 2a 28 01 00 	lea    0x1282a(%rip),%rax        # 1dca0 <g_563>
    b476:	48 89 85 10 fd ff ff 	mov    %rax,-0x2f0(%rbp)
    b47d:	48 8d 05 94 28 01 00 	lea    0x12894(%rip),%rax        # 1dd18 <g_1628>
    b484:	48 89 85 18 fd ff ff 	mov    %rax,-0x2e8(%rbp)
    b48b:	48 8d 05 4e 28 01 00 	lea    0x1284e(%rip),%rax        # 1dce0 <g_1220>
    b492:	48 89 85 20 fd ff ff 	mov    %rax,-0x2e0(%rbp)
    b499:	48 8d 05 08 ff 00 00 	lea    0xff08(%rip),%rax        # 1b3a8 <g_208>
    b4a0:	48 89 85 28 fd ff ff 	mov    %rax,-0x2d8(%rbp)
    b4a7:	c7 85 c0 fd ff ff b8 	movl   $0xc1dd2db8,-0x240(%rbp)
    b4ae:	2d dd c1 
    b4b1:	c7 85 c4 fd ff ff b8 	movl   $0xc1dd2db8,-0x23c(%rbp)
    b4b8:	2d dd c1 
    b4bb:	c7 85 c8 fd ff ff 00 	movl   $0x0,-0x238(%rbp)
    b4c2:	00 00 00 
    b4c5:	c7 85 cc fd ff ff bc 	movl   $0x64aac0bc,-0x234(%rbp)
    b4cc:	c0 aa 64 
    b4cf:	c7 85 d0 fd ff ff 00 	movl   $0x0,-0x230(%rbp)
    b4d6:	00 00 00 
    b4d9:	c7 85 d4 fd ff ff b8 	movl   $0xc1dd2db8,-0x22c(%rbp)
    b4e0:	2d dd c1 
    b4e3:	c7 85 d8 fd ff ff b8 	movl   $0xc1dd2db8,-0x228(%rbp)
    b4ea:	2d dd c1 
    b4ed:	c7 85 dc fd ff ff 00 	movl   $0x0,-0x224(%rbp)
    b4f4:	00 00 00 
    b4f7:	c7 85 e0 fd ff ff bc 	movl   $0x64aac0bc,-0x220(%rbp)
    b4fe:	c0 aa 64 
    b501:	c7 85 e4 fd ff ff 00 	movl   $0x0,-0x21c(%rbp)
    b508:	00 00 00 
    b50b:	c7 85 00 fd ff ff bf 	movl   $0x713753bf,-0x300(%rbp)
    b512:	53 37 71 
    b515:	c7 85 10 ff ff ff 01 	movl   $0x1,-0xf0(%rbp)
    b51c:	00 00 00 
    b51f:	c7 85 14 ff ff ff 00 	movl   $0x0,-0xec(%rbp)
    b526:	00 00 00 
    b529:	c7 85 18 ff ff ff 07 	movl   $0x7,-0xe8(%rbp)
    b530:	00 00 00 
    b533:	c7 85 1c ff ff ff 3f 	movl   $0xd1f9723f,-0xe4(%rbp)
    b53a:	72 f9 d1 
    b53d:	c7 85 20 ff ff ff f2 	movl   $0x322179f2,-0xe0(%rbp)
    b544:	79 21 32 
    b547:	c7 85 24 ff ff ff fc 	movl   $0xfffffffc,-0xdc(%rbp)
    b54e:	ff ff ff 
    b551:	c7 85 28 ff ff ff 07 	movl   $0x7,-0xd8(%rbp)
    b558:	00 00 00 
    b55b:	c7 85 2c ff ff ff ff 	movl   $0xffffffff,-0xd4(%rbp)
    b562:	ff ff ff 
    b565:	c7 85 30 ff ff ff 01 	movl   $0x1,-0xd0(%rbp)
    b56c:	00 00 00 
    b56f:	c7 85 34 ff ff ff 38 	movl   $0x56aa3038,-0xcc(%rbp)
    b576:	30 aa 56 
    b579:	c7 85 38 ff ff ff 38 	movl   $0x56aa3038,-0xc8(%rbp)
    b580:	30 aa 56 
    b583:	c7 85 3c ff ff ff 01 	movl   $0x1,-0xc4(%rbp)
    b58a:	00 00 00 
    b58d:	c7 85 40 ff ff ff 00 	movl   $0x0,-0xc0(%rbp)
    b594:	00 00 00 
    b597:	c7 85 44 ff ff ff f2 	movl   $0x322179f2,-0xbc(%rbp)
    b59e:	79 21 32 
    b5a1:	c7 85 48 ff ff ff ff 	movl   $0xffffffff,-0xb8(%rbp)
    b5a8:	ff ff ff 
    b5ab:	c7 85 4c ff ff ff 00 	movl   $0x0,-0xb4(%rbp)
    b5b2:	00 00 00 
    b5b5:	c7 85 50 ff ff ff ff 	movl   $0xffffffff,-0xb0(%rbp)
    b5bc:	ff ff ff 
    b5bf:	c7 85 54 ff ff ff 00 	movl   $0x0,-0xac(%rbp)
    b5c6:	00 00 00 
    b5c9:	c7 85 58 ff ff ff 3f 	movl   $0xd1f9723f,-0xa8(%rbp)
    b5d0:	72 f9 d1 
    b5d3:	c7 85 5c ff ff ff fc 	movl   $0xfffffffc,-0xa4(%rbp)
    b5da:	ff ff ff 
    b5dd:	c7 85 60 ff ff ff 2f 	movl   $0x6644852f,-0xa0(%rbp)
    b5e4:	85 44 66 
    b5e7:	c7 85 64 ff ff ff fd 	movl   $0xfffffffd,-0x9c(%rbp)
    b5ee:	ff ff ff 
    b5f1:	c7 85 68 ff ff ff 50 	movl   $0x88703750,-0x98(%rbp)
    b5f8:	37 70 88 
    b5fb:	c7 85 6c ff ff ff fc 	movl   $0xfffffffc,-0x94(%rbp)
    b602:	ff ff ff 
    b605:	c7 85 70 ff ff ff 5a 	movl   $0xfbe715a,-0x90(%rbp)
    b60c:	71 be 0f 
    b60f:	c7 85 74 ff ff ff 00 	movl   $0x0,-0x8c(%rbp)
    b616:	00 00 00 
    b619:	c7 85 78 ff ff ff 2f 	movl   $0x6644852f,-0x88(%rbp)
    b620:	85 44 66 
    b623:	c7 85 7c ff ff ff 00 	movl   $0x0,-0x84(%rbp)
    b62a:	00 00 00 
    b62d:	c7 45 80 ff ff ff ff 	movl   $0xffffffff,-0x80(%rbp)
    b634:	c7 45 84 f2 79 21 32 	movl   $0x322179f2,-0x7c(%rbp)
    b63b:	c7 45 88 90 87 aa 83 	movl   $0x83aa8790,-0x78(%rbp)
    b642:	c7 45 8c 01 00 00 00 	movl   $0x1,-0x74(%rbp)
    b649:	c7 45 90 3f 72 f9 d1 	movl   $0xd1f9723f,-0x70(%rbp)
    b650:	c7 45 94 38 30 aa 56 	movl   $0x56aa3038,-0x6c(%rbp)
    b657:	c7 45 98 5a 71 be 0f 	movl   $0xfbe715a,-0x68(%rbp)
    b65e:	c7 45 9c ff ff ff ff 	movl   $0xffffffff,-0x64(%rbp)
    b665:	c7 45 a0 fd ff ff ff 	movl   $0xfffffffd,-0x60(%rbp)
    b66c:	c7 45 a4 fc ff ff ff 	movl   $0xfffffffc,-0x5c(%rbp)
    b673:	c7 45 a8 ff ff ff ff 	movl   $0xffffffff,-0x58(%rbp)
    b67a:	c7 45 ac 2f 85 44 66 	movl   $0x6644852f,-0x54(%rbp)
    b681:	c7 45 b0 00 00 00 00 	movl   $0x0,-0x50(%rbp)
    b688:	c7 45 b4 38 30 aa 56 	movl   $0x56aa3038,-0x4c(%rbp)
    b68f:	c7 45 b8 ff ff ff ff 	movl   $0xffffffff,-0x48(%rbp)
    b696:	c7 45 bc ff ff ff ff 	movl   $0xffffffff,-0x44(%rbp)
    b69d:	c7 45 c0 2f 85 44 66 	movl   $0x6644852f,-0x40(%rbp)
    b6a4:	c7 45 c4 2f 85 44 66 	movl   $0x6644852f,-0x3c(%rbp)
    b6ab:	c7 45 c8 fc ff ff ff 	movl   $0xfffffffc,-0x38(%rbp)
    b6b2:	c7 45 cc 00 00 00 00 	movl   $0x0,-0x34(%rbp)
    b6b9:	c6 85 e8 fc ff ff ff 	movb   $0xff,-0x318(%rbp)
    b6c0:	66 c7 85 ea fc ff ff 	movw   $0x1468,-0x316(%rbp)
    b6c7:	68 14 
    b6c9:	48 8d 05 f0 25 01 00 	lea    0x125f0(%rip),%rax        # 1dcc0 <g_904>
    b6d0:	48 89 85 30 fd ff ff 	mov    %rax,-0x2d0(%rbp)
    b6d7:	c7 85 f4 fc ff ff 00 	movl   $0x0,-0x30c(%rbp)
    b6de:	00 00 00 
    b6e1:	eb 21                	jmp    b704 <func_10+0x327>
    b6e3:	8b 85 f4 fc ff ff    	mov    -0x30c(%rbp),%eax
    b6e9:	48 98                	cltq   
    b6eb:	48 bb c3 7b 2d 06 25 	movabs $0x246c3825062d7bc3,%rbx
    b6f2:	38 6c 24 
    b6f5:	48 89 9c c5 20 fe ff 	mov    %rbx,-0x1e0(%rbp,%rax,8)
    b6fc:	ff 
    b6fd:	83 85 f4 fc ff ff 01 	addl   $0x1,-0x30c(%rbp)
    b704:	83 bd f4 fc ff ff 06 	cmpl   $0x6,-0x30c(%rbp)
    b70b:	7e d6                	jle    b6e3 <func_10+0x306>
    b70d:	48 8b 85 40 fe ff ff 	mov    -0x1c0(%rbp),%rax
    b714:	0f b7 d0             	movzwl %ax,%edx
    b717:	48 8b 05 0a e9 00 00 	mov    0xe90a(%rip),%rax        # 1a028 <g_4>
    b71e:	0f b7 c0             	movzwl %ax,%eax
    b721:	89 d6                	mov    %edx,%esi
    b723:	89 c7                	mov    %eax,%edi
    b725:	e8 13 e6 ff ff       	callq  9d3d <safe_mul_func_uint16_t_u_u>
    b72a:	66 85 c0             	test   %ax,%ax
    b72d:	0f 85 9e 00 00 00    	jne    b7d1 <func_10+0x3f4>
    b733:	48 8b 85 40 fe ff ff 	mov    -0x1c0(%rbp),%rax
    b73a:	44 0f bf e0          	movswl %ax,%r12d
    b73e:	48 8b 85 40 fe ff ff 	mov    -0x1c0(%rbp),%rax
    b745:	41 89 c5             	mov    %eax,%r13d
    b748:	0f b6 05 c9 25 01 00 	movzbl 0x125c9(%rip),%eax        # 1dd18 <g_1628>
    b74f:	0f b6 d8             	movzbl %al,%ebx
    b752:	48 8b 85 08 fd ff ff 	mov    -0x2f8(%rbp),%rax
    b759:	48 8b 00             	mov    (%rax),%rax
    b75c:	48 8d 48 ff          	lea    -0x1(%rax),%rcx
    b760:	48 8b 95 08 fd ff ff 	mov    -0x2f8(%rbp),%rdx
    b767:	48 89 0a             	mov    %rcx,(%rdx)
    b76a:	48 8d 35 57 24 01 00 	lea    0x12457(%rip),%rsi        # 1dbc8 <g_13>
    b771:	48 89 c7             	mov    %rax,%rdi
    b774:	e8 be 24 00 00       	callq  dc37 <func_27>
    b779:	48 89 85 10 fd ff ff 	mov    %rax,-0x2f0(%rbp)
    b780:	48 8b 05 01 25 01 00 	mov    0x12501(%rip),%rax        # 1dc88 <g_380+0x8>
    b787:	48 39 85 10 fd ff ff 	cmp    %rax,-0x2f0(%rbp)
    b78e:	0f 94 c0             	sete   %al
    b791:	0f b6 d0             	movzbl %al,%edx
    b794:	48 8b 85 70 fe ff ff 	mov    -0x190(%rbp),%rax
    b79b:	89 d6                	mov    %edx,%esi
    b79d:	48 89 c7             	mov    %rax,%rdi
    b7a0:	e8 21 1a 00 00       	callq  d1c6 <func_23>
    b7a5:	45 89 e0             	mov    %r12d,%r8d
    b7a8:	44 89 e9             	mov    %r13d,%ecx
    b7ab:	89 da                	mov    %ebx,%edx
    b7ad:	48 89 c6             	mov    %rax,%rsi
    b7b0:	bf 01 00 00 00       	mov    $0x1,%edi
    b7b5:	e8 50 07 00 00       	callq  bf0a <func_17>
    b7ba:	48 8b 95 18 fd ff ff 	mov    -0x2e8(%rbp),%rdx
    b7c1:	88 02                	mov    %al,(%rdx)
    b7c3:	48 8b 85 18 fd ff ff 	mov    -0x2e8(%rbp),%rax
    b7ca:	0f b6 00             	movzbl (%rax),%eax
    b7cd:	84 c0                	test   %al,%al
    b7cf:	74 07                	je     b7d8 <func_10+0x3fb>
    b7d1:	ba 01 00 00 00       	mov    $0x1,%edx
    b7d6:	eb 05                	jmp    b7dd <func_10+0x400>
    b7d8:	ba 00 00 00 00       	mov    $0x0,%edx
    b7dd:	48 8b 85 20 fd ff ff 	mov    -0x2e0(%rbp),%rax
    b7e4:	89 10                	mov    %edx,(%rax)
    b7e6:	48 8b 85 20 fd ff ff 	mov    -0x2e0(%rbp),%rax
    b7ed:	8b 00                	mov    (%rax),%eax
    b7ef:	85 c0                	test   %eax,%eax
    b7f1:	0f 84 f2 03 00 00    	je     bbe9 <func_10+0x80c>
    b7f7:	c6 85 e9 fc ff ff 32 	movb   $0x32,-0x317(%rbp)
    b7fe:	c7 85 ec fc ff ff f9 	movl   $0xfffffff9,-0x314(%rbp)
    b805:	ff ff ff 
    b808:	48 8d 05 2d e8 00 00 	lea    0xe82d(%rip),%rax        # 1a03c <g_72>
    b80f:	48 89 85 a0 fe ff ff 	mov    %rax,-0x160(%rbp)
    b816:	48 8d 05 1f e8 00 00 	lea    0xe81f(%rip),%rax        # 1a03c <g_72>
    b81d:	48 89 85 a8 fe ff ff 	mov    %rax,-0x158(%rbp)
    b824:	48 8d 05 11 e8 00 00 	lea    0xe811(%rip),%rax        # 1a03c <g_72>
    b82b:	48 89 85 b0 fe ff ff 	mov    %rax,-0x150(%rbp)
    b832:	48 8d 05 03 e8 00 00 	lea    0xe803(%rip),%rax        # 1a03c <g_72>
    b839:	48 89 85 b8 fe ff ff 	mov    %rax,-0x148(%rbp)
    b840:	48 8d 05 f5 e7 00 00 	lea    0xe7f5(%rip),%rax        # 1a03c <g_72>
    b847:	48 89 85 c0 fe ff ff 	mov    %rax,-0x140(%rbp)
    b84e:	48 8d 05 e7 e7 00 00 	lea    0xe7e7(%rip),%rax        # 1a03c <g_72>
    b855:	48 89 85 c8 fe ff ff 	mov    %rax,-0x138(%rbp)
    b85c:	48 8d 05 d9 e7 00 00 	lea    0xe7d9(%rip),%rax        # 1a03c <g_72>
    b863:	48 89 85 d0 fe ff ff 	mov    %rax,-0x130(%rbp)
    b86a:	48 8d 05 cb e7 00 00 	lea    0xe7cb(%rip),%rax        # 1a03c <g_72>
    b871:	48 89 85 d8 fe ff ff 	mov    %rax,-0x128(%rbp)
    b878:	48 8d 05 bd e7 00 00 	lea    0xe7bd(%rip),%rax        # 1a03c <g_72>
    b87f:	48 89 85 e0 fe ff ff 	mov    %rax,-0x120(%rbp)
    b886:	48 8d 05 97 23 01 00 	lea    0x12397(%rip),%rax        # 1dc24 <g_291>
    b88d:	48 89 85 e8 fe ff ff 	mov    %rax,-0x118(%rbp)
    b894:	48 8d 05 a1 e7 00 00 	lea    0xe7a1(%rip),%rax        # 1a03c <g_72>
    b89b:	48 89 85 f0 fe ff ff 	mov    %rax,-0x110(%rbp)
    b8a2:	48 8d 05 93 e7 00 00 	lea    0xe793(%rip),%rax        # 1a03c <g_72>
    b8a9:	48 89 85 f8 fe ff ff 	mov    %rax,-0x108(%rbp)
    b8b0:	48 8d 05 6d 23 01 00 	lea    0x1236d(%rip),%rax        # 1dc24 <g_291>
    b8b7:	48 89 85 00 ff ff ff 	mov    %rax,-0x100(%rbp)
    b8be:	48 8d 05 77 e7 00 00 	lea    0xe777(%rip),%rax        # 1a03c <g_72>
    b8c5:	48 89 85 08 ff ff ff 	mov    %rax,-0xf8(%rbp)
    b8cc:	c7 85 f0 fc ff ff ff 	movl   $0xffffffff,-0x310(%rbp)
    b8d3:	ff ff ff 
    b8d6:	48 8d 05 e3 e7 00 00 	lea    0xe7e3(%rip),%rax        # 1a0c0 <g_171+0x20>
    b8dd:	48 89 85 78 fd ff ff 	mov    %rax,-0x288(%rbp)
    b8e4:	48 8d 05 a5 e7 00 00 	lea    0xe7a5(%rip),%rax        # 1a090 <g_99>
    b8eb:	48 89 85 80 fd ff ff 	mov    %rax,-0x280(%rbp)
    b8f2:	48 8d 05 2f e9 00 00 	lea    0xe92f(%rip),%rax        # 1a228 <g_1758>
    b8f9:	48 89 85 88 fd ff ff 	mov    %rax,-0x278(%rbp)
    b900:	48 c7 85 90 fd ff ff 	movq   $0x0,-0x270(%rbp)
    b907:	00 00 00 00 
    b90b:	48 8d 85 ec fc ff ff 	lea    -0x314(%rbp),%rax
    b912:	48 89 85 98 fd ff ff 	mov    %rax,-0x268(%rbp)
    b919:	48 8d 85 f0 fc ff ff 	lea    -0x310(%rbp),%rax
    b920:	48 89 85 a0 fd ff ff 	mov    %rax,-0x260(%rbp)
    b927:	48 8d 85 f0 fc ff ff 	lea    -0x310(%rbp),%rax
    b92e:	48 89 85 a8 fd ff ff 	mov    %rax,-0x258(%rbp)
    b935:	48 8d 05 a4 23 01 00 	lea    0x123a4(%rip),%rax        # 1dce0 <g_1220>
    b93c:	48 89 85 b0 fd ff ff 	mov    %rax,-0x250(%rbp)
    b943:	c7 85 f8 fc ff ff 00 	movl   $0x0,-0x308(%rbp)
    b94a:	00 00 00 
    b94d:	eb 54                	jmp    b9a3 <func_10+0x5c6>
    b94f:	c7 85 fc fc ff ff 00 	movl   $0x0,-0x304(%rbp)
    b956:	00 00 00 
    b959:	eb 38                	jmp    b993 <func_10+0x5b6>
    b95b:	8b 85 fc fc ff ff    	mov    -0x304(%rbp),%eax
    b961:	48 63 c8             	movslq %eax,%rcx
    b964:	8b 85 f8 fc ff ff    	mov    -0x308(%rbp),%eax
    b96a:	48 63 d0             	movslq %eax,%rdx
    b96d:	48 89 d0             	mov    %rdx,%rax
    b970:	48 01 c0             	add    %rax,%rax
    b973:	48 01 d0             	add    %rdx,%rax
    b976:	48 01 c0             	add    %rax,%rax
    b979:	48 8d 14 08          	lea    (%rax,%rcx,1),%rdx
    b97d:	48 8d 85 ec fc ff ff 	lea    -0x314(%rbp),%rax
    b984:	48 89 84 d5 f0 fd ff 	mov    %rax,-0x210(%rbp,%rdx,8)
    b98b:	ff 
    b98c:	83 85 fc fc ff ff 01 	addl   $0x1,-0x304(%rbp)
    b993:	83 bd fc fc ff ff 05 	cmpl   $0x5,-0x304(%rbp)
    b99a:	7e bf                	jle    b95b <func_10+0x57e>
    b99c:	83 85 f8 fc ff ff 01 	addl   $0x1,-0x308(%rbp)
    b9a3:	83 bd f8 fc ff ff 00 	cmpl   $0x0,-0x308(%rbp)
    b9aa:	7e a3                	jle    b94f <func_10+0x572>
    b9ac:	48 c7 05 59 e8 00 00 	movq   $0x1,0xe859(%rip)        # 1a210 <g_805>
    b9b3:	01 00 00 00 
    b9b7:	eb 7f                	jmp    ba38 <func_10+0x65b>
    b9b9:	c7 05 5d 22 01 00 01 	movl   $0x1,0x1225d(%rip)        # 1dc20 <g_272>
    b9c0:	00 00 00 
    b9c3:	eb 56                	jmp    ba1b <func_10+0x63e>
    b9c5:	48 8d 05 3e e8 00 00 	lea    0xe83e(%rip),%rax        # 1a20a <g_705>
    b9cc:	48 89 85 b8 fd ff ff 	mov    %rax,-0x248(%rbp)
    b9d3:	48 8b 85 b8 fd ff ff 	mov    -0x248(%rbp),%rax
    b9da:	66 c7 00 ff ff       	movw   $0xffff,(%rax)
    b9df:	48 8b 05 2a e8 00 00 	mov    0xe82a(%rip),%rax        # 1a210 <g_805>
    b9e6:	48 8d 14 c5 00 00 00 	lea    0x0(,%rax,8),%rdx
    b9ed:	00 
    b9ee:	48 8d 05 ab e6 00 00 	lea    0xe6ab(%rip),%rax        # 1a0a0 <g_171>
    b9f5:	48 8b 04 02          	mov    (%rdx,%rax,1),%rax
    b9f9:	48 83 f8 ff          	cmp    $0xffffffffffffffff,%rax
    b9fd:	0f 95 c0             	setne  %al
    ba00:	0f b6 d0             	movzbl %al,%edx
    ba03:	48 8b 85 20 fd ff ff 	mov    -0x2e0(%rbp),%rax
    ba0a:	89 10                	mov    %edx,(%rax)
    ba0c:	8b 05 0e 22 01 00    	mov    0x1220e(%rip),%eax        # 1dc20 <g_272>
    ba12:	83 c0 01             	add    $0x1,%eax
    ba15:	89 05 05 22 01 00    	mov    %eax,0x12205(%rip)        # 1dc20 <g_272>
    ba1b:	8b 05 ff 21 01 00    	mov    0x121ff(%rip),%eax        # 1dc20 <g_272>
    ba21:	83 f8 05             	cmp    $0x5,%eax
    ba24:	76 9f                	jbe    b9c5 <func_10+0x5e8>
    ba26:	48 8b 05 e3 e7 00 00 	mov    0xe7e3(%rip),%rax        # 1a210 <g_805>
    ba2d:	48 83 c0 01          	add    $0x1,%rax
    ba31:	48 89 05 d8 e7 00 00 	mov    %rax,0xe7d8(%rip)        # 1a210 <g_805>
    ba38:	48 8b 05 d1 e7 00 00 	mov    0xe7d1(%rip),%rax        # 1a210 <g_805>
    ba3f:	48 83 f8 05          	cmp    $0x5,%rax
    ba43:	0f 86 70 ff ff ff    	jbe    b9b9 <func_10+0x5dc>
    ba49:	48 8b 85 20 fd ff ff 	mov    -0x2e0(%rbp),%rax
    ba50:	8b 00                	mov    (%rax),%eax
    ba52:	4c 63 e8             	movslq %eax,%r13
    ba55:	0f be 9d e9 fc ff ff 	movsbl -0x317(%rbp),%ebx
    ba5c:	44 0f be b5 e9 fc ff 	movsbl -0x317(%rbp),%r14d
    ba63:	ff 
    ba64:	48 8b 85 20 fd ff ff 	mov    -0x2e0(%rbp),%rax
    ba6b:	8b 10                	mov    (%rax),%edx
    ba6d:	48 8b 85 20 fd ff ff 	mov    -0x2e0(%rbp),%rax
    ba74:	8b 00                	mov    (%rax),%eax
    ba76:	89 d6                	mov    %edx,%esi
    ba78:	89 c7                	mov    %eax,%edi
    ba7a:	e8 37 db ff ff       	callq  95b6 <safe_add_func_int32_t_s_s>
    ba7f:	41 89 c4             	mov    %eax,%r12d
    ba82:	48 8b 85 20 fd ff ff 	mov    -0x2e0(%rbp),%rax
    ba89:	8b 00                	mov    (%rax),%eax
    ba8b:	0f b7 d0             	movzwl %ax,%edx
    ba8e:	0f be 8d e9 fc ff ff 	movsbl -0x317(%rbp),%ecx
    ba95:	48 83 bd 28 fd ff ff 	cmpq   $0x0,-0x2d8(%rbp)
    ba9c:	00 
    ba9d:	0f 94 c0             	sete   %al
    baa0:	0f b6 c0             	movzbl %al,%eax
    baa3:	39 c1                	cmp    %eax,%ecx
    baa5:	0f 9f c0             	setg   %al
    baa8:	0f b6 c0             	movzbl %al,%eax
    baab:	89 d6                	mov    %edx,%esi
    baad:	89 c7                	mov    %eax,%edi
    baaf:	e8 da e2 ff ff       	callq  9d8e <safe_div_func_uint16_t_u_u>
    bab4:	0f b7 c0             	movzwl %ax,%eax
    bab7:	be 08 00 00 00       	mov    $0x8,%esi
    babc:	89 c7                	mov    %eax,%edi
    babe:	e8 fb e2 ff ff       	callq  9dbe <safe_lshift_func_uint16_t_u_s>
    bac3:	0f b7 c0             	movzwl %ax,%eax
    bac6:	44 31 e0             	xor    %r12d,%eax
    bac9:	44 89 f2             	mov    %r14d,%edx
    bacc:	09 c2                	or     %eax,%edx
    bace:	48 8b 85 20 fd ff ff 	mov    -0x2e0(%rbp),%rax
    bad5:	8b 00                	mov    (%rax),%eax
    bad7:	39 c2                	cmp    %eax,%edx
    bad9:	0f 94 c0             	sete   %al
    badc:	0f b6 c0             	movzbl %al,%eax
    badf:	89 de                	mov    %ebx,%esi
    bae1:	89 c7                	mov    %eax,%edi
    bae3:	e8 cb d8 ff ff       	callq  93b3 <safe_add_func_int16_t_s_s>
    bae8:	66 83 f8 fe          	cmp    $0xfffe,%ax
    baec:	0f 9d c2             	setge  %dl
    baef:	48 8b 05 12 0a 01 00 	mov    0x10a12(%rip),%rax        # 1c508 <g_1266>
    baf6:	48 8b 00             	mov    (%rax),%rax
    baf9:	48 8b 00             	mov    (%rax),%rax
    bafc:	48 8b 00             	mov    (%rax),%rax
    baff:	0f b6 d2             	movzbl %dl,%edx
    bb02:	89 10                	mov    %edx,(%rax)
    bb04:	8b 10                	mov    (%rax),%edx
    bb06:	48 8b 85 20 fd ff ff 	mov    -0x2e0(%rbp),%rax
    bb0d:	8b 00                	mov    (%rax),%eax
    bb0f:	39 c2                	cmp    %eax,%edx
    bb11:	0f 9d c0             	setge  %al
    bb14:	0f b6 d0             	movzbl %al,%edx
    bb17:	8b 85 ec fc ff ff    	mov    -0x314(%rbp),%eax
    bb1d:	31 d0                	xor    %edx,%eax
    bb1f:	89 85 ec fc ff ff    	mov    %eax,-0x314(%rbp)
    bb25:	8b 95 ec fc ff ff    	mov    -0x314(%rbp),%edx
    bb2b:	8b 85 f0 fc ff ff    	mov    -0x310(%rbp),%eax
    bb31:	21 d0                	and    %edx,%eax
    bb33:	89 85 f0 fc ff ff    	mov    %eax,-0x310(%rbp)
    bb39:	8b 85 f0 fc ff ff    	mov    -0x310(%rbp),%eax
    bb3f:	85 c0                	test   %eax,%eax
    bb41:	75 1d                	jne    bb60 <func_10+0x783>
    bb43:	8b 85 f0 fc ff ff    	mov    -0x310(%rbp),%eax
    bb49:	85 c0                	test   %eax,%eax
    bb4b:	75 13                	jne    bb60 <func_10+0x783>
    bb4d:	48 8b 05 5c f8 00 00 	mov    0xf85c(%rip),%rax        # 1b3b0 <g_207>
    bb54:	48 8b 00             	mov    (%rax),%rax
    bb57:	48 8b 00             	mov    (%rax),%rax
    bb5a:	8b 00                	mov    (%rax),%eax
    bb5c:	85 c0                	test   %eax,%eax
    bb5e:	74 07                	je     bb67 <func_10+0x78a>
    bb60:	b8 01 00 00 00       	mov    $0x1,%eax
    bb65:	eb 05                	jmp    bb6c <func_10+0x78f>
    bb67:	b8 00 00 00 00       	mov    $0x0,%eax
    bb6c:	48 63 d0             	movslq %eax,%rdx
    bb6f:	48 8b 85 78 fd ff ff 	mov    -0x288(%rbp),%rax
    bb76:	48 89 10             	mov    %rdx,(%rax)
    bb79:	48 8b 85 78 fd ff ff 	mov    -0x288(%rbp),%rax
    bb80:	48 8b 00             	mov    (%rax),%rax
    bb83:	49 39 c5             	cmp    %rax,%r13
    bb86:	0f 9c c0             	setl   %al
    bb89:	0f b6 d0             	movzbl %al,%edx
    bb8c:	48 8b 85 20 fd ff ff 	mov    -0x2e0(%rbp),%rax
    bb93:	89 10                	mov    %edx,(%rax)
    bb95:	48 8b 85 20 fd ff ff 	mov    -0x2e0(%rbp),%rax
    bb9c:	8b 10                	mov    (%rax),%edx
    bb9e:	48 8b 85 80 fd ff ff 	mov    -0x280(%rbp),%rax
    bba5:	89 10                	mov    %edx,(%rax)
    bba7:	48 8b 85 80 fd ff ff 	mov    -0x280(%rbp),%rax
    bbae:	8b 00                	mov    (%rax),%eax
    bbb0:	be 04 00 00 00       	mov    $0x4,%esi
    bbb5:	89 c7                	mov    %eax,%edi
    bbb7:	e8 fa d9 ff ff       	callq  95b6 <safe_add_func_int32_t_s_s>
    bbbc:	48 8b 95 88 fd ff ff 	mov    -0x278(%rbp),%rdx
    bbc3:	89 02                	mov    %eax,(%rdx)
    bbc5:	83 85 00 fd ff ff 01 	addl   $0x1,-0x300(%rbp)
    bbcc:	48 8b 05 fd 09 01 00 	mov    0x109fd(%rip),%rax        # 1c5d0 <g_1458>
    bbd3:	48 8b 00             	mov    (%rax),%rax
    bbd6:	48 8b 00             	mov    (%rax),%rax
    bbd9:	48 8b 95 b0 fd ff ff 	mov    -0x250(%rbp),%rdx
    bbe0:	8b 12                	mov    (%rdx),%edx
    bbe2:	89 10                	mov    %edx,(%rax)
    bbe4:	e9 f3 02 00 00       	jmpq   bedc <func_10+0xaff>
    bbe9:	48 8d 05 20 20 01 00 	lea    0x12020(%rip),%rax        # 1dc10 <g_79>
    bbf0:	48 89 85 38 fd ff ff 	mov    %rax,-0x2c8(%rbp)
    bbf7:	48 8d 05 a2 f7 00 00 	lea    0xf7a2(%rip),%rax        # 1b3a0 <g_209>
    bbfe:	48 89 85 a0 fe ff ff 	mov    %rax,-0x160(%rbp)
    bc05:	48 8d 05 94 f7 00 00 	lea    0xf794(%rip),%rax        # 1b3a0 <g_209>
    bc0c:	48 89 85 a8 fe ff ff 	mov    %rax,-0x158(%rbp)
    bc13:	48 8d 05 86 f7 00 00 	lea    0xf786(%rip),%rax        # 1b3a0 <g_209>
    bc1a:	48 89 85 b0 fe ff ff 	mov    %rax,-0x150(%rbp)
    bc21:	48 8d 05 78 f7 00 00 	lea    0xf778(%rip),%rax        # 1b3a0 <g_209>
    bc28:	48 89 85 b8 fe ff ff 	mov    %rax,-0x148(%rbp)
    bc2f:	48 8d 05 6a f7 00 00 	lea    0xf76a(%rip),%rax        # 1b3a0 <g_209>
    bc36:	48 89 85 c0 fe ff ff 	mov    %rax,-0x140(%rbp)
    bc3d:	48 8d 05 5c f7 00 00 	lea    0xf75c(%rip),%rax        # 1b3a0 <g_209>
    bc44:	48 89 85 c8 fe ff ff 	mov    %rax,-0x138(%rbp)
    bc4b:	48 8d 05 4e f7 00 00 	lea    0xf74e(%rip),%rax        # 1b3a0 <g_209>
    bc52:	48 89 85 d0 fe ff ff 	mov    %rax,-0x130(%rbp)
    bc59:	48 8d 05 40 f7 00 00 	lea    0xf740(%rip),%rax        # 1b3a0 <g_209>
    bc60:	48 89 85 d8 fe ff ff 	mov    %rax,-0x128(%rbp)
    bc67:	48 b8 8f ce ad 2c a0 	movabs $0x2c97cfa02cadce8f,%rax
    bc6e:	cf 97 2c 
    bc71:	48 89 85 40 fd ff ff 	mov    %rax,-0x2c0(%rbp)
    bc78:	c7 85 04 fd ff ff 00 	movl   $0x0,-0x2fc(%rbp)
    bc7f:	00 00 00 
    bc82:	48 c7 85 48 fd ff ff 	movq   $0x1,-0x2b8(%rbp)
    bc89:	01 00 00 00 
    bc8d:	48 8b 05 84 0f 01 00 	mov    0x10f84(%rip),%rax        # 1cc18 <g_1774>
    bc94:	48 8b 95 38 fd ff ff 	mov    -0x2c8(%rbp),%rdx
    bc9b:	48 89 10             	mov    %rdx,(%rax)
    bc9e:	48 83 ad 48 fd ff ff 	subq   $0x1,-0x2b8(%rbp)
    bca5:	01 
    bca6:	80 85 e8 fc ff ff 01 	addb   $0x1,-0x318(%rbp)
    bcad:	66 c7 05 8a e3 00 00 	movw   $0x0,0xe38a(%rip)        # 1a040 <g_75>
    bcb4:	00 00 
    bcb6:	e9 10 02 00 00       	jmpq   becb <func_10+0xaee>
    bcbb:	48 b8 74 6a 70 a5 dd 	movabs $0x943a69dda5706a74,%rax
    bcc2:	69 3a 94 
    bcc5:	48 89 85 50 fd ff ff 	mov    %rax,-0x2b0(%rbp)
    bccc:	48 c7 85 58 fd ff ff 	movq   $0x0,-0x2a8(%rbp)
    bcd3:	00 00 00 00 
    bcd7:	c6 85 e8 fc ff ff e7 	movb   $0xe7,-0x318(%rbp)
    bcde:	eb 20                	jmp    bd00 <func_10+0x923>
    bce0:	48 c7 85 70 fd ff ff 	movq   $0x0,-0x290(%rbp)
    bce7:	00 00 00 00 
    bceb:	48 8d 05 5e 0e 01 00 	lea    0x10e5e(%rip),%rax        # 1cb50 <g_1522>
    bcf2:	48 89 85 70 fd ff ff 	mov    %rax,-0x290(%rbp)
    bcf9:	80 85 e8 fc ff ff 01 	addb   $0x1,-0x318(%rbp)
    bd00:	80 bd e8 fc ff ff 1c 	cmpb   $0x1c,-0x318(%rbp)
    bd07:	75 d7                	jne    bce0 <func_10+0x903>
    bd09:	48 83 bd 58 fd ff ff 	cmpq   $0x0,-0x2a8(%rbp)
    bd10:	00 
    bd11:	74 74                	je     bd87 <func_10+0x9aa>
    bd13:	48 8b 85 50 fd ff ff 	mov    -0x2b0(%rbp),%rax
    bd1a:	0f bf d8             	movswl %ax,%ebx
    bd1d:	48 8b 85 20 fd ff ff 	mov    -0x2e0(%rbp),%rax
    bd24:	8b 00                	mov    (%rax),%eax
    bd26:	0f b6 d0             	movzbl %al,%edx
    bd29:	48 8b 05 60 07 01 00 	mov    0x10760(%rip),%rax        # 1c490 <g_860>
    bd30:	48 8b 85 28 fd ff ff 	mov    -0x2d8(%rbp),%rax
    bd37:	48 8b 00             	mov    (%rax),%rax
    bd3a:	48 8b 00             	mov    (%rax),%rax
    bd3d:	8b 00                	mov    (%rax),%eax
    bd3f:	0f b6 c0             	movzbl %al,%eax
    bd42:	89 d6                	mov    %edx,%esi
    bd44:	89 c7                	mov    %eax,%edi
    bd46:	e8 90 de ff ff       	callq  9bdb <safe_div_func_uint8_t_u_u>
    bd4b:	0f be c0             	movsbl %al,%eax
    bd4e:	be 03 00 00 00       	mov    $0x3,%esi
    bd53:	89 c7                	mov    %eax,%edi
    bd55:	e8 b8 d4 ff ff       	callq  9212 <safe_mul_func_int8_t_s_s>
    bd5a:	3c f6                	cmp    $0xf6,%al
    bd5c:	0f 95 c0             	setne  %al
    bd5f:	0f b6 c0             	movzbl %al,%eax
    bd62:	89 de                	mov    %ebx,%esi
    bd64:	89 c7                	mov    %eax,%edi
    bd66:	e8 68 d6 ff ff       	callq  93d3 <safe_sub_func_int16_t_s_s>
    bd6b:	98                   	cwtl   
    bd6c:	89 c6                	mov    %eax,%esi
    bd6e:	bf 00 00 00 00       	mov    $0x0,%edi
    bd73:	e8 eb d7 ff ff       	callq  9563 <safe_rshift_func_int16_t_s_u>
    bd78:	66 85 c0             	test   %ax,%ax
    bd7b:	75 0a                	jne    bd87 <func_10+0x9aa>
    bd7d:	48 83 bd 50 fd ff ff 	cmpq   $0x0,-0x2b0(%rbp)
    bd84:	00 
    bd85:	74 07                	je     bd8e <func_10+0x9b1>
    bd87:	b8 01 00 00 00       	mov    $0x1,%eax
    bd8c:	eb 05                	jmp    bd93 <func_10+0x9b6>
    bd8e:	b8 00 00 00 00       	mov    $0x0,%eax
    bd93:	48 63 d8             	movslq %eax,%rbx
    bd96:	48 8b 85 20 fd ff ff 	mov    -0x2e0(%rbp),%rax
    bd9d:	8b 00                	mov    (%rax),%eax
    bd9f:	0f b6 d0             	movzbl %al,%edx
    bda2:	48 8b 85 50 fd ff ff 	mov    -0x2b0(%rbp),%rax
    bda9:	0f b6 c0             	movzbl %al,%eax
    bdac:	89 d6                	mov    %edx,%esi
    bdae:	89 c7                	mov    %eax,%edi
    bdb0:	e8 de dd ff ff       	callq  9b93 <safe_mul_func_uint8_t_u_u>
    bdb5:	0f b6 c0             	movzbl %al,%eax
    bdb8:	48 89 de             	mov    %rbx,%rsi
    bdbb:	48 89 c7             	mov    %rax,%rdi
    bdbe:	e8 34 dc ff ff       	callq  99f7 <safe_div_func_int64_t_s_s>
    bdc3:	be 0c 00 00 00       	mov    $0xc,%esi
    bdc8:	bf f7 ff ff ff       	mov    $0xfffffff7,%edi
    bdcd:	e8 c0 d6 ff ff       	callq  9492 <safe_lshift_func_int16_t_s_s>
    bdd2:	98                   	cwtl   
    bdd3:	48 8b 95 50 fd ff ff 	mov    -0x2b0(%rbp),%rdx
    bdda:	89 c6                	mov    %eax,%esi
    bddc:	89 d7                	mov    %edx,%edi
    bdde:	e8 d5 e0 ff ff       	callq  9eb8 <safe_add_func_uint32_t_u_u>
    bde3:	0f bf 85 ea fc ff ff 	movswl -0x316(%rbp),%eax
    bdea:	be 01 00 00 00       	mov    $0x1,%esi
    bdef:	89 c7                	mov    %eax,%edi
    bdf1:	e8 07 e1 ff ff       	callq  9efd <safe_mod_func_uint32_t_u_u>
    bdf6:	85 c0                	test   %eax,%eax
    bdf8:	74 1b                	je     be15 <func_10+0xa38>
    bdfa:	48 b8 84 d6 fb 4b 72 	movabs $0x646cd9724bfbd684,%rax
    be01:	d9 6c 64 
    be04:	48 89 85 60 fd ff ff 	mov    %rax,-0x2a0(%rbp)
    be0b:	48 83 85 60 fd ff ff 	addq   $0x1,-0x2a0(%rbp)
    be12:	01 
    be13:	eb 25                	jmp    be3a <func_10+0xa5d>
    be15:	48 c7 05 f0 e3 00 00 	movq   $0x1,0xe3f0(%rip)        # 1a210 <g_805>
    be1c:	01 00 00 00 
    be20:	90                   	nop
    be21:	48 8b 05 e8 e3 00 00 	mov    0xe3e8(%rip),%rax        # 1a210 <g_805>
    be28:	48 83 f8 04          	cmp    $0x4,%rax
    be2c:	77 0c                	ja     be3a <func_10+0xa5d>
    be2e:	48 8b 85 30 fd ff ff 	mov    -0x2d0(%rbp),%rax
    be35:	e9 ac 00 00 00       	jmpq   bee6 <func_10+0xb09>
    be3a:	48 8b 85 28 fd ff ff 	mov    -0x2d8(%rbp),%rax
    be41:	48 8b 00             	mov    (%rax),%rax
    be44:	48 8b 00             	mov    (%rax),%rax
    be47:	8b 00                	mov    (%rax),%eax
    be49:	85 c0                	test   %eax,%eax
    be4b:	74 61                	je     beae <func_10+0xad1>
    be4d:	48 c7 85 68 fd ff ff 	movq   $0x0,-0x298(%rbp)
    be54:	00 00 00 00 
    be58:	48 8b 85 68 fd ff ff 	mov    -0x298(%rbp),%rax
    be5f:	0f b7 c0             	movzwl %ax,%eax
    be62:	be 03 00 00 00       	mov    $0x3,%esi
    be67:	89 c7                	mov    %eax,%edi
    be69:	e8 da df ff ff       	callq  9e48 <safe_rshift_func_uint16_t_u_s>
    be6e:	89 c2                	mov    %eax,%edx
    be70:	48 8b 05 91 06 01 00 	mov    0x10691(%rip),%rax        # 1c508 <g_1266>
    be77:	48 8b 00             	mov    (%rax),%rax
    be7a:	48 8b 00             	mov    (%rax),%rax
    be7d:	48 8b 00             	mov    (%rax),%rax
    be80:	8b 08                	mov    (%rax),%ecx
    be82:	0f b7 d2             	movzwl %dx,%edx
    be85:	09 ca                	or     %ecx,%edx
    be87:	89 10                	mov    %edx,(%rax)
    be89:	48 8b 05 18 f5 00 00 	mov    0xf518(%rip),%rax        # 1b3a8 <g_208>
    be90:	48 8b 00             	mov    (%rax),%rax
    be93:	c7 00 00 00 00 00    	movl   $0x0,(%rax)
    be99:	48 8b 85 28 fd ff ff 	mov    -0x2d8(%rbp),%rax
    bea0:	48 8b 00             	mov    (%rax),%rax
    bea3:	48 8b 00             	mov    (%rax),%rax
    bea6:	8b 00                	mov    (%rax),%eax
    bea8:	85 c0                	test   %eax,%eax
    beaa:	74 0e                	je     beba <func_10+0xadd>
    beac:	eb 2e                	jmp    bedc <func_10+0xaff>
    beae:	48 8b 05 4b 06 01 00 	mov    0x1064b(%rip),%rax        # 1c500 <g_1144>
    beb5:	48 8b 00             	mov    (%rax),%rax
    beb8:	eb 2c                	jmp    bee6 <func_10+0xb09>
    beba:	0f b7 05 7f e1 00 00 	movzwl 0xe17f(%rip),%eax        # 1a040 <g_75>
    bec1:	83 c0 01             	add    $0x1,%eax
    bec4:	66 89 05 75 e1 00 00 	mov    %ax,0xe175(%rip)        # 1a040 <g_75>
    becb:	0f b7 05 6e e1 00 00 	movzwl 0xe16e(%rip),%eax        # 1a040 <g_75>
    bed2:	66 83 f8 34          	cmp    $0x34,%ax
    bed6:	0f 87 df fd ff ff    	ja     bcbb <func_10+0x8de>
    bedc:	48 8b 05 1d 06 01 00 	mov    0x1061d(%rip),%rax        # 1c500 <g_1144>
    bee3:	48 8b 00             	mov    (%rax),%rax
    bee6:	48 8b 4d d8          	mov    -0x28(%rbp),%rcx
    beea:	64 48 33 0c 25 28 00 	xor    %fs:0x28,%rcx
    bef1:	00 00 
    bef3:	74 05                	je     befa <func_10+0xb1d>
    bef5:	e8 76 d1 ff ff       	callq  9070 <__stack_chk_fail@plt>
    befa:	48 81 c4 10 03 00 00 	add    $0x310,%rsp
    bf01:	5b                   	pop    %rbx
    bf02:	41 5c                	pop    %r12
    bf04:	41 5d                	pop    %r13
    bf06:	41 5e                	pop    %r14
    bf08:	5d                   	pop    %rbp
    bf09:	c3                   	retq   

000000000000bf0a <func_17>:
    bf0a:	f3 0f 1e fa          	endbr64 
    bf0e:	55                   	push   %rbp
    bf0f:	48 89 e5             	mov    %rsp,%rbp
    bf12:	41 57                	push   %r15
    bf14:	41 56                	push   %r14
    bf16:	41 55                	push   %r13
    bf18:	41 54                	push   %r12
    bf1a:	53                   	push   %rbx
    bf1b:	48 81 ec 88 0b 00 00 	sub    $0xb88,%rsp
    bf22:	89 f8                	mov    %edi,%eax
    bf24:	48 89 b5 60 f4 ff ff 	mov    %rsi,-0xba0(%rbp)
    bf2b:	89 95 68 f4 ff ff    	mov    %edx,-0xb98(%rbp)
    bf31:	89 8d 5c f4 ff ff    	mov    %ecx,-0xba4(%rbp)
    bf37:	44 89 c2             	mov    %r8d,%edx
    bf3a:	66 89 85 6c f4 ff ff 	mov    %ax,-0xb94(%rbp)
    bf41:	89 d0                	mov    %edx,%eax
    bf43:	66 89 85 58 f4 ff ff 	mov    %ax,-0xba8(%rbp)
    bf4a:	64 48 8b 04 25 28 00 	mov    %fs:0x28,%rax
    bf51:	00 00 
    bf53:	48 89 45 c8          	mov    %rax,-0x38(%rbp)
    bf57:	31 c0                	xor    %eax,%eax
    bf59:	48 8d 05 30 e1 00 00 	lea    0xe130(%rip),%rax        # 1a090 <g_99>
    bf60:	48 89 85 a8 f4 ff ff 	mov    %rax,-0xb58(%rbp)
    bf67:	48 c7 85 b0 f4 ff ff 	movq   $0x0,-0xb50(%rbp)
    bf6e:	00 00 00 00 
    bf72:	48 8d 05 67 1d 01 00 	lea    0x11d67(%rip),%rax        # 1dce0 <g_1220>
    bf79:	48 89 85 b8 f4 ff ff 	mov    %rax,-0xb48(%rbp)
    bf80:	48 8d 05 09 e1 00 00 	lea    0xe109(%rip),%rax        # 1a090 <g_99>
    bf87:	48 89 85 c0 f4 ff ff 	mov    %rax,-0xb40(%rbp)
    bf8e:	48 8d 05 7b 1c 01 00 	lea    0x11c7b(%rip),%rax        # 1dc10 <g_79>
    bf95:	48 89 85 c8 f4 ff ff 	mov    %rax,-0xb38(%rbp)
    bf9c:	48 8d 05 95 e0 00 00 	lea    0xe095(%rip),%rax        # 1a038 <g_9>
    bfa3:	48 89 85 d0 f4 ff ff 	mov    %rax,-0xb30(%rbp)
    bfaa:	48 c7 85 90 f4 ff ff 	movq   $0x0,-0xb70(%rbp)
    bfb1:	00 00 00 00 
    bfb5:	48 8d 85 90 f4 ff ff 	lea    -0xb70(%rbp),%rax
    bfbc:	48 89 85 d8 f4 ff ff 	mov    %rax,-0xb28(%rbp)
    bfc3:	c6 85 77 f4 ff ff ff 	movb   $0xff,-0xb89(%rbp)
    bfca:	48 8d 85 80 f6 ff ff 	lea    -0x980(%rbp),%rax
    bfd1:	48 8d 15 a8 e6 00 00 	lea    0xe6a8(%rip),%rdx        # 1a680 <g_2296+0x3e0>
    bfd8:	b9 48 00 00 00       	mov    $0x48,%ecx
    bfdd:	48 89 c7             	mov    %rax,%rdi
    bfe0:	48 89 d6             	mov    %rdx,%rsi
    bfe3:	f3 48 a5             	rep movsq %ds:(%rsi),%es:(%rdi)
    bfe6:	48 c7 85 98 f4 ff ff 	movq   $0x0,-0xb68(%rbp)
    bfed:	00 00 00 00 
    bff1:	c6 85 78 f4 ff ff 01 	movb   $0x1,-0xb88(%rbp)
    bff8:	c7 85 7c f4 ff ff 00 	movl   $0x0,-0xb84(%rbp)
    bfff:	00 00 00 
    c002:	eb 1e                	jmp    c022 <func_17+0x118>
    c004:	8b 85 7c f4 ff ff    	mov    -0xb84(%rbp),%eax
    c00a:	48 98                	cltq   
    c00c:	48 8d 15 fd 1b 01 00 	lea    0x11bfd(%rip),%rdx        # 1dc10 <g_79>
    c013:	48 89 94 c5 00 f5 ff 	mov    %rdx,-0xb00(%rbp,%rax,8)
    c01a:	ff 
    c01b:	83 85 7c f4 ff ff 01 	addl   $0x1,-0xb84(%rbp)
    c022:	83 bd 7c f4 ff ff 02 	cmpl   $0x2,-0xb84(%rbp)
    c029:	7e d9                	jle    c004 <func_17+0xfa>
    c02b:	c7 85 7c f4 ff ff 00 	movl   $0x0,-0xb84(%rbp)
    c032:	00 00 00 
    c035:	eb 1a                	jmp    c051 <func_17+0x147>
    c037:	8b 85 7c f4 ff ff    	mov    -0xb84(%rbp),%eax
    c03d:	48 98                	cltq   
    c03f:	c7 84 85 20 f5 ff ff 	movl   $0xffffffff,-0xae0(%rbp,%rax,4)
    c046:	ff ff ff ff 
    c04a:	83 85 7c f4 ff ff 01 	addl   $0x1,-0xb84(%rbp)
    c051:	83 bd 7c f4 ff ff 07 	cmpl   $0x7,-0xb84(%rbp)
    c058:	7e dd                	jle    c037 <func_17+0x12d>
    c05a:	c7 85 7c f4 ff ff 00 	movl   $0x0,-0xb84(%rbp)
    c061:	00 00 00 
    c064:	eb 14                	jmp    c07a <func_17+0x170>
    c066:	8b 85 7c f4 ff ff    	mov    -0xb84(%rbp),%eax
    c06c:	48 98                	cltq   
    c06e:	c6 44 05 c0 14       	movb   $0x14,-0x40(%rbp,%rax,1)
    c073:	83 85 7c f4 ff ff 01 	addl   $0x1,-0xb84(%rbp)
    c07a:	83 bd 7c f4 ff ff 07 	cmpl   $0x7,-0xb84(%rbp)
    c081:	7e e3                	jle    c066 <func_17+0x15c>
    c083:	8b 85 28 f5 ff ff    	mov    -0xad8(%rbp),%eax
    c089:	83 c0 01             	add    $0x1,%eax
    c08c:	89 85 28 f5 ff ff    	mov    %eax,-0xad8(%rbp)
    c092:	66 c7 05 fd df 00 00 	movw   $0x0,0xdffd(%rip)        # 1a098 <g_136>
    c099:	00 00 
    c09b:	e9 b7 10 00 00       	jmpq   d157 <func_17+0x124d>
    c0a0:	c6 85 79 f4 ff ff 01 	movb   $0x1,-0xb87(%rbp)
    c0a7:	48 c7 85 40 f5 ff ff 	movq   $0x0,-0xac0(%rbp)
    c0ae:	00 00 00 00 
    c0b2:	48 8d 05 27 1c 01 00 	lea    0x11c27(%rip),%rax        # 1dce0 <g_1220>
    c0b9:	48 89 85 48 f5 ff ff 	mov    %rax,-0xab8(%rbp)
    c0c0:	48 c7 85 50 f5 ff ff 	movq   $0x0,-0xab0(%rbp)
    c0c7:	00 00 00 00 
    c0cb:	48 8d 05 0e 1c 01 00 	lea    0x11c0e(%rip),%rax        # 1dce0 <g_1220>
    c0d2:	48 89 85 58 f5 ff ff 	mov    %rax,-0xaa8(%rbp)
    c0d9:	c6 85 7a f4 ff ff 25 	movb   $0x25,-0xb86(%rbp)
    c0e0:	48 c7 85 60 f5 ff ff 	movq   $0x0,-0xaa0(%rbp)
    c0e7:	00 00 00 00 
    c0eb:	48 8d 85 98 f4 ff ff 	lea    -0xb68(%rbp),%rax
    c0f2:	48 89 85 68 f5 ff ff 	mov    %rax,-0xa98(%rbp)
    c0f9:	48 8d 05 08 1b 01 00 	lea    0x11b08(%rip),%rax        # 1dc08 <g_77>
    c100:	48 89 85 70 f5 ff ff 	mov    %rax,-0xa90(%rbp)
    c107:	48 8d 05 fa 1a 01 00 	lea    0x11afa(%rip),%rax        # 1dc08 <g_77>
    c10e:	48 89 85 78 f5 ff ff 	mov    %rax,-0xa88(%rbp)
    c115:	48 c7 85 80 f5 ff ff 	movq   $0x0,-0xa80(%rbp)
    c11c:	00 00 00 00 
    c120:	48 8d 85 98 f4 ff ff 	lea    -0xb68(%rbp),%rax
    c127:	48 89 85 88 f5 ff ff 	mov    %rax,-0xa78(%rbp)
    c12e:	48 8d 85 98 f4 ff ff 	lea    -0xb68(%rbp),%rax
    c135:	48 89 85 90 f5 ff ff 	mov    %rax,-0xa70(%rbp)
    c13c:	48 8d 05 c5 1a 01 00 	lea    0x11ac5(%rip),%rax        # 1dc08 <g_77>
    c143:	48 89 85 98 f5 ff ff 	mov    %rax,-0xa68(%rbp)
    c14a:	48 c7 85 a0 f5 ff ff 	movq   $0x0,-0xa60(%rbp)
    c151:	00 00 00 00 
    c155:	48 8d 85 98 f4 ff ff 	lea    -0xb68(%rbp),%rax
    c15c:	48 89 85 a8 f5 ff ff 	mov    %rax,-0xa58(%rbp)
    c163:	48 8d 85 98 f4 ff ff 	lea    -0xb68(%rbp),%rax
    c16a:	48 89 85 b0 f5 ff ff 	mov    %rax,-0xa50(%rbp)
    c171:	48 c7 85 b8 f5 ff ff 	movq   $0x0,-0xa48(%rbp)
    c178:	00 00 00 00 
    c17c:	48 8d 05 85 1a 01 00 	lea    0x11a85(%rip),%rax        # 1dc08 <g_77>
    c183:	48 89 85 c0 f5 ff ff 	mov    %rax,-0xa40(%rbp)
    c18a:	48 8d 05 77 1a 01 00 	lea    0x11a77(%rip),%rax        # 1dc08 <g_77>
    c191:	48 89 85 c8 f5 ff ff 	mov    %rax,-0xa38(%rbp)
    c198:	48 c7 85 d0 f5 ff ff 	movq   $0x0,-0xa30(%rbp)
    c19f:	00 00 00 00 
    c1a3:	48 8d 85 98 f4 ff ff 	lea    -0xb68(%rbp),%rax
    c1aa:	48 89 85 d8 f5 ff ff 	mov    %rax,-0xa28(%rbp)
    c1b1:	48 c7 85 e0 f5 ff ff 	movq   $0x0,-0xa20(%rbp)
    c1b8:	00 00 00 00 
    c1bc:	48 8d 85 98 f4 ff ff 	lea    -0xb68(%rbp),%rax
    c1c3:	48 89 85 e8 f5 ff ff 	mov    %rax,-0xa18(%rbp)
    c1ca:	48 8d 05 37 1a 01 00 	lea    0x11a37(%rip),%rax        # 1dc08 <g_77>
    c1d1:	48 89 85 f0 f5 ff ff 	mov    %rax,-0xa10(%rbp)
    c1d8:	48 8d 85 98 f4 ff ff 	lea    -0xb68(%rbp),%rax
    c1df:	48 89 85 f8 f5 ff ff 	mov    %rax,-0xa08(%rbp)
    c1e6:	48 8d 05 1b 1a 01 00 	lea    0x11a1b(%rip),%rax        # 1dc08 <g_77>
    c1ed:	48 89 85 00 f6 ff ff 	mov    %rax,-0xa00(%rbp)
    c1f4:	48 c7 85 08 f6 ff ff 	movq   $0x0,-0x9f8(%rbp)
    c1fb:	00 00 00 00 
    c1ff:	48 8d 85 98 f4 ff ff 	lea    -0xb68(%rbp),%rax
    c206:	48 89 85 10 f6 ff ff 	mov    %rax,-0x9f0(%rbp)
    c20d:	48 c7 85 18 f6 ff ff 	movq   $0x0,-0x9e8(%rbp)
    c214:	00 00 00 00 
    c218:	48 8d 05 e9 19 01 00 	lea    0x119e9(%rip),%rax        # 1dc08 <g_77>
    c21f:	48 89 85 20 f6 ff ff 	mov    %rax,-0x9e0(%rbp)
    c226:	48 8d 05 db 19 01 00 	lea    0x119db(%rip),%rax        # 1dc08 <g_77>
    c22d:	48 89 85 28 f6 ff ff 	mov    %rax,-0x9d8(%rbp)
    c234:	48 8d 05 cd 19 01 00 	lea    0x119cd(%rip),%rax        # 1dc08 <g_77>
    c23b:	48 89 85 30 f6 ff ff 	mov    %rax,-0x9d0(%rbp)
    c242:	48 8d 85 98 f4 ff ff 	lea    -0xb68(%rbp),%rax
    c249:	48 89 85 38 f6 ff ff 	mov    %rax,-0x9c8(%rbp)
    c250:	48 8d 05 b1 19 01 00 	lea    0x119b1(%rip),%rax        # 1dc08 <g_77>
    c257:	48 89 85 40 f6 ff ff 	mov    %rax,-0x9c0(%rbp)
    c25e:	48 8d 85 98 f4 ff ff 	lea    -0xb68(%rbp),%rax
    c265:	48 89 85 48 f6 ff ff 	mov    %rax,-0x9b8(%rbp)
    c26c:	48 8d 05 95 19 01 00 	lea    0x11995(%rip),%rax        # 1dc08 <g_77>
    c273:	48 89 85 50 f6 ff ff 	mov    %rax,-0x9b0(%rbp)
    c27a:	48 8d 85 98 f4 ff ff 	lea    -0xb68(%rbp),%rax
    c281:	48 89 85 58 f6 ff ff 	mov    %rax,-0x9a8(%rbp)
    c288:	48 c7 85 60 f6 ff ff 	movq   $0x0,-0x9a0(%rbp)
    c28f:	00 00 00 00 
    c293:	48 8d 85 98 f4 ff ff 	lea    -0xb68(%rbp),%rax
    c29a:	48 89 85 68 f6 ff ff 	mov    %rax,-0x998(%rbp)
    c2a1:	48 c7 85 70 f6 ff ff 	movq   $0x0,-0x990(%rbp)
    c2a8:	00 00 00 00 
    c2ac:	48 c7 85 78 f6 ff ff 	movq   $0x0,-0x988(%rbp)
    c2b3:	00 00 00 00 
    c2b7:	48 8d 05 4a 19 01 00 	lea    0x1194a(%rip),%rax        # 1dc08 <g_77>
    c2be:	48 89 85 e0 f4 ff ff 	mov    %rax,-0xb20(%rbp)
    c2c5:	48 8d 05 a4 f1 00 00 	lea    0xf1a4(%rip),%rax        # 1b470 <g_491>
    c2cc:	48 89 85 e8 f4 ff ff 	mov    %rax,-0xb18(%rbp)
    c2d3:	48 8d 05 7e 02 01 00 	lea    0x1027e(%rip),%rax        # 1c558 <g_1317>
    c2da:	48 89 85 f0 f4 ff ff 	mov    %rax,-0xb10(%rbp)
    c2e1:	48 c7 05 34 df 00 00 	movq   $0x0,0xdf34(%rip)        # 1a220 <g_1609>
    c2e8:	00 00 00 00 
    c2ec:	e9 bf 00 00 00       	jmpq   c3b0 <func_17+0x4a6>
    c2f1:	c6 85 7b f4 ff ff 00 	movb   $0x0,-0xb85(%rbp)
    c2f8:	48 8d 05 91 04 01 00 	lea    0x10491(%rip),%rax        # 1c790 <g_1466+0xb0>
    c2ff:	48 89 85 f8 f4 ff ff 	mov    %rax,-0xb08(%rbp)
    c306:	c7 85 84 f4 ff ff ff 	movl   $0xffffffff,-0xb7c(%rbp)
    c30d:	ff ff ff 
    c310:	48 8d 85 c0 f8 ff ff 	lea    -0x740(%rbp),%rax
    c317:	48 8d 15 42 a0 00 00 	lea    0xa042(%rip),%rdx        # 16360 <g_1624+0x300>
    c31e:	b9 25 00 00 00       	mov    $0x25,%ecx
    c323:	48 89 c7             	mov    %rax,%rdi
    c326:	48 89 d6             	mov    %rdx,%rsi
    c329:	f3 48 a5             	rep movsq %ds:(%rsi),%es:(%rdi)
    c32c:	48 89 f2             	mov    %rsi,%rdx
    c32f:	48 89 f8             	mov    %rdi,%rax
    c332:	8b 0a                	mov    (%rdx),%ecx
    c334:	89 08                	mov    %ecx,(%rax)
    c336:	48 8d 40 04          	lea    0x4(%rax),%rax
    c33a:	48 8d 52 04          	lea    0x4(%rdx),%rdx
    c33e:	c7 85 88 f4 ff ff f6 	movl   $0x8d344ff6,-0xb78(%rbp)
    c345:	4f 34 8d 
    c348:	c7 85 8c f4 ff ff ff 	movl   $0xffffffff,-0xb74(%rbp)
    c34f:	ff ff ff 
    c352:	c7 05 34 dd 00 00 02 	movl   $0x2,0xdd34(%rip)        # 1a090 <g_99>
    c359:	00 00 00 
    c35c:	eb 36                	jmp    c394 <func_17+0x48a>
    c35e:	48 8b 05 a3 01 01 00 	mov    0x101a3(%rip),%rax        # 1c508 <g_1266>
    c365:	48 8b 00             	mov    (%rax),%rax
    c368:	48 8b 10             	mov    (%rax),%rdx
    c36b:	48 8b 05 96 01 01 00 	mov    0x10196(%rip),%rax        # 1c508 <g_1266>
    c372:	48 8b 00             	mov    (%rax),%rax
    c375:	48 8b 00             	mov    (%rax),%rax
    c378:	48 8b 12             	mov    (%rdx),%rdx
    c37b:	48 89 10             	mov    %rdx,(%rax)
    c37e:	80 bd 7b f4 ff ff 00 	cmpb   $0x0,-0xb85(%rbp)
    c385:	8b 05 05 dd 00 00    	mov    0xdd05(%rip),%eax        # 1a090 <g_99>
    c38b:	83 e8 01             	sub    $0x1,%eax
    c38e:	89 05 fc dc 00 00    	mov    %eax,0xdcfc(%rip)        # 1a090 <g_99>
    c394:	8b 05 f6 dc 00 00    	mov    0xdcf6(%rip),%eax        # 1a090 <g_99>
    c39a:	85 c0                	test   %eax,%eax
    c39c:	79 c0                	jns    c35e <func_17+0x454>
    c39e:	48 8b 05 7b de 00 00 	mov    0xde7b(%rip),%rax        # 1a220 <g_1609>
    c3a5:	48 83 c0 01          	add    $0x1,%rax
    c3a9:	48 89 05 70 de 00 00 	mov    %rax,0xde70(%rip)        # 1a220 <g_1609>
    c3b0:	48 8b 05 69 de 00 00 	mov    0xde69(%rip),%rax        # 1a220 <g_1609>
    c3b7:	48 83 f8 02          	cmp    $0x2,%rax
    c3bb:	0f 86 30 ff ff ff    	jbe    c2f1 <func_17+0x3e7>
    c3c1:	80 ad 77 f4 ff ff 01 	subb   $0x1,-0xb89(%rbp)
    c3c8:	48 8b 05 11 01 01 00 	mov    0x10111(%rip),%rax        # 1c4e0 <g_887>
    c3cf:	48 8b 00             	mov    (%rax),%rax
    c3d2:	8b 00                	mov    (%rax),%eax
    c3d4:	85 c0                	test   %eax,%eax
    c3d6:	0f 85 8e 0d 00 00    	jne    d16a <func_17+0x1260>
    c3dc:	66 83 bd 6c f4 ff ff 	cmpw   $0x0,-0xb94(%rbp)
    c3e3:	00 
    c3e4:	74 16                	je     c3fc <func_17+0x4f2>
    c3e6:	48 8b 05 db 01 01 00 	mov    0x101db(%rip),%rax        # 1c5c8 <g_1371>
    c3ed:	48 8b 00             	mov    (%rax),%rax
    c3f0:	48 89 85 48 f7 ff ff 	mov    %rax,-0x8b8(%rbp)
    c3f7:	e9 4a 0d 00 00       	jmpq   d146 <func_17+0x123c>
    c3fc:	c7 85 80 f4 ff ff fc 	movl   $0xfffffffc,-0xb80(%rbp)
    c403:	ff ff ff 
    c406:	48 8d 85 98 f4 ff ff 	lea    -0xb68(%rbp),%rax
    c40d:	48 89 85 a0 f4 ff ff 	mov    %rax,-0xb60(%rbp)
    c414:	48 c7 85 c0 f8 ff ff 	movq   $0x0,-0x740(%rbp)
    c41b:	00 00 00 00 
    c41f:	48 8d 85 a0 f4 ff ff 	lea    -0xb60(%rbp),%rax
    c426:	48 89 85 c8 f8 ff ff 	mov    %rax,-0x738(%rbp)
    c42d:	48 8d 85 a0 f4 ff ff 	lea    -0xb60(%rbp),%rax
    c434:	48 89 85 d0 f8 ff ff 	mov    %rax,-0x730(%rbp)
    c43b:	48 8d 85 a0 f4 ff ff 	lea    -0xb60(%rbp),%rax
    c442:	48 89 85 d8 f8 ff ff 	mov    %rax,-0x728(%rbp)
    c449:	48 8d 85 a0 f4 ff ff 	lea    -0xb60(%rbp),%rax
    c450:	48 89 85 e0 f8 ff ff 	mov    %rax,-0x720(%rbp)
    c457:	48 8d 85 a0 f4 ff ff 	lea    -0xb60(%rbp),%rax
    c45e:	48 89 85 e8 f8 ff ff 	mov    %rax,-0x718(%rbp)
    c465:	48 8d 85 a0 f4 ff ff 	lea    -0xb60(%rbp),%rax
    c46c:	48 89 85 f0 f8 ff ff 	mov    %rax,-0x710(%rbp)
    c473:	48 8d 85 a0 f4 ff ff 	lea    -0xb60(%rbp),%rax
    c47a:	48 89 85 f8 f8 ff ff 	mov    %rax,-0x708(%rbp)
    c481:	48 8d 85 a0 f4 ff ff 	lea    -0xb60(%rbp),%rax
    c488:	48 89 85 00 f9 ff ff 	mov    %rax,-0x700(%rbp)
    c48f:	48 8d 85 a0 f4 ff ff 	lea    -0xb60(%rbp),%rax
    c496:	48 89 85 08 f9 ff ff 	mov    %rax,-0x6f8(%rbp)
    c49d:	48 8d 85 a0 f4 ff ff 	lea    -0xb60(%rbp),%rax
    c4a4:	48 89 85 10 f9 ff ff 	mov    %rax,-0x6f0(%rbp)
    c4ab:	48 8d 85 a0 f4 ff ff 	lea    -0xb60(%rbp),%rax
    c4b2:	48 89 85 18 f9 ff ff 	mov    %rax,-0x6e8(%rbp)
    c4b9:	48 8d 85 a0 f4 ff ff 	lea    -0xb60(%rbp),%rax
    c4c0:	48 89 85 20 f9 ff ff 	mov    %rax,-0x6e0(%rbp)
    c4c7:	48 8d 85 a0 f4 ff ff 	lea    -0xb60(%rbp),%rax
    c4ce:	48 89 85 28 f9 ff ff 	mov    %rax,-0x6d8(%rbp)
    c4d5:	48 8d 85 a0 f4 ff ff 	lea    -0xb60(%rbp),%rax
    c4dc:	48 89 85 30 f9 ff ff 	mov    %rax,-0x6d0(%rbp)
    c4e3:	48 8d 85 a0 f4 ff ff 	lea    -0xb60(%rbp),%rax
    c4ea:	48 89 85 38 f9 ff ff 	mov    %rax,-0x6c8(%rbp)
    c4f1:	48 8d 85 a0 f4 ff ff 	lea    -0xb60(%rbp),%rax
    c4f8:	48 89 85 40 f9 ff ff 	mov    %rax,-0x6c0(%rbp)
    c4ff:	48 8d 85 a0 f4 ff ff 	lea    -0xb60(%rbp),%rax
    c506:	48 89 85 48 f9 ff ff 	mov    %rax,-0x6b8(%rbp)
    c50d:	48 8d 85 a0 f4 ff ff 	lea    -0xb60(%rbp),%rax
    c514:	48 89 85 50 f9 ff ff 	mov    %rax,-0x6b0(%rbp)
    c51b:	48 8d 85 a0 f4 ff ff 	lea    -0xb60(%rbp),%rax
    c522:	48 89 85 58 f9 ff ff 	mov    %rax,-0x6a8(%rbp)
    c529:	48 c7 85 60 f9 ff ff 	movq   $0x0,-0x6a0(%rbp)
    c530:	00 00 00 00 
    c534:	48 8d 85 a0 f4 ff ff 	lea    -0xb60(%rbp),%rax
    c53b:	48 89 85 68 f9 ff ff 	mov    %rax,-0x698(%rbp)
    c542:	48 8d 85 a0 f4 ff ff 	lea    -0xb60(%rbp),%rax
    c549:	48 89 85 70 f9 ff ff 	mov    %rax,-0x690(%rbp)
    c550:	48 8d 85 a0 f4 ff ff 	lea    -0xb60(%rbp),%rax
    c557:	48 89 85 78 f9 ff ff 	mov    %rax,-0x688(%rbp)
    c55e:	48 c7 85 80 f9 ff ff 	movq   $0x0,-0x680(%rbp)
    c565:	00 00 00 00 
    c569:	48 8d 85 a0 f4 ff ff 	lea    -0xb60(%rbp),%rax
    c570:	48 89 85 88 f9 ff ff 	mov    %rax,-0x678(%rbp)
    c577:	48 8d 85 a0 f4 ff ff 	lea    -0xb60(%rbp),%rax
    c57e:	48 89 85 90 f9 ff ff 	mov    %rax,-0x670(%rbp)
    c585:	48 c7 85 98 f9 ff ff 	movq   $0x0,-0x668(%rbp)
    c58c:	00 00 00 00 
    c590:	48 8d 85 a0 f4 ff ff 	lea    -0xb60(%rbp),%rax
    c597:	48 89 85 a0 f9 ff ff 	mov    %rax,-0x660(%rbp)
    c59e:	48 8d 85 a0 f4 ff ff 	lea    -0xb60(%rbp),%rax
    c5a5:	48 89 85 a8 f9 ff ff 	mov    %rax,-0x658(%rbp)
    c5ac:	48 8d 85 a0 f4 ff ff 	lea    -0xb60(%rbp),%rax
    c5b3:	48 89 85 b0 f9 ff ff 	mov    %rax,-0x650(%rbp)
    c5ba:	48 8d 85 a0 f4 ff ff 	lea    -0xb60(%rbp),%rax
    c5c1:	48 89 85 b8 f9 ff ff 	mov    %rax,-0x648(%rbp)
    c5c8:	48 8d 85 a0 f4 ff ff 	lea    -0xb60(%rbp),%rax
    c5cf:	48 89 85 c0 f9 ff ff 	mov    %rax,-0x640(%rbp)
    c5d6:	48 8d 85 a0 f4 ff ff 	lea    -0xb60(%rbp),%rax
    c5dd:	48 89 85 c8 f9 ff ff 	mov    %rax,-0x638(%rbp)
    c5e4:	48 8d 85 a0 f4 ff ff 	lea    -0xb60(%rbp),%rax
    c5eb:	48 89 85 d0 f9 ff ff 	mov    %rax,-0x630(%rbp)
    c5f2:	48 8d 85 a0 f4 ff ff 	lea    -0xb60(%rbp),%rax
    c5f9:	48 89 85 d8 f9 ff ff 	mov    %rax,-0x628(%rbp)
    c600:	48 8d 85 a0 f4 ff ff 	lea    -0xb60(%rbp),%rax
    c607:	48 89 85 e0 f9 ff ff 	mov    %rax,-0x620(%rbp)
    c60e:	48 8d 85 a0 f4 ff ff 	lea    -0xb60(%rbp),%rax
    c615:	48 89 85 e8 f9 ff ff 	mov    %rax,-0x618(%rbp)
    c61c:	48 8d 85 a0 f4 ff ff 	lea    -0xb60(%rbp),%rax
    c623:	48 89 85 f0 f9 ff ff 	mov    %rax,-0x610(%rbp)
    c62a:	48 8d 85 a0 f4 ff ff 	lea    -0xb60(%rbp),%rax
    c631:	48 89 85 f8 f9 ff ff 	mov    %rax,-0x608(%rbp)
    c638:	48 8d 85 a0 f4 ff ff 	lea    -0xb60(%rbp),%rax
    c63f:	48 89 85 00 fa ff ff 	mov    %rax,-0x600(%rbp)
    c646:	48 8d 85 a0 f4 ff ff 	lea    -0xb60(%rbp),%rax
    c64d:	48 89 85 08 fa ff ff 	mov    %rax,-0x5f8(%rbp)
    c654:	48 8d 85 a0 f4 ff ff 	lea    -0xb60(%rbp),%rax
    c65b:	48 89 85 10 fa ff ff 	mov    %rax,-0x5f0(%rbp)
    c662:	48 8d 85 a0 f4 ff ff 	lea    -0xb60(%rbp),%rax
    c669:	48 89 85 18 fa ff ff 	mov    %rax,-0x5e8(%rbp)
    c670:	48 c7 85 20 fa ff ff 	movq   $0x0,-0x5e0(%rbp)
    c677:	00 00 00 00 
    c67b:	48 8d 85 a0 f4 ff ff 	lea    -0xb60(%rbp),%rax
    c682:	48 89 85 28 fa ff ff 	mov    %rax,-0x5d8(%rbp)
    c689:	48 8d 85 a0 f4 ff ff 	lea    -0xb60(%rbp),%rax
    c690:	48 89 85 30 fa ff ff 	mov    %rax,-0x5d0(%rbp)
    c697:	48 c7 85 38 fa ff ff 	movq   $0x0,-0x5c8(%rbp)
    c69e:	00 00 00 00 
    c6a2:	48 8d 85 a0 f4 ff ff 	lea    -0xb60(%rbp),%rax
    c6a9:	48 89 85 40 fa ff ff 	mov    %rax,-0x5c0(%rbp)
    c6b0:	48 8d 85 a0 f4 ff ff 	lea    -0xb60(%rbp),%rax
    c6b7:	48 89 85 48 fa ff ff 	mov    %rax,-0x5b8(%rbp)
    c6be:	48 8d 85 a0 f4 ff ff 	lea    -0xb60(%rbp),%rax
    c6c5:	48 89 85 50 fa ff ff 	mov    %rax,-0x5b0(%rbp)
    c6cc:	48 8d 85 a0 f4 ff ff 	lea    -0xb60(%rbp),%rax
    c6d3:	48 89 85 58 fa ff ff 	mov    %rax,-0x5a8(%rbp)
    c6da:	48 8d 85 a0 f4 ff ff 	lea    -0xb60(%rbp),%rax
    c6e1:	48 89 85 60 fa ff ff 	mov    %rax,-0x5a0(%rbp)
    c6e8:	48 8d 85 a0 f4 ff ff 	lea    -0xb60(%rbp),%rax
    c6ef:	48 89 85 68 fa ff ff 	mov    %rax,-0x598(%rbp)
    c6f6:	48 8d 85 a0 f4 ff ff 	lea    -0xb60(%rbp),%rax
    c6fd:	48 89 85 70 fa ff ff 	mov    %rax,-0x590(%rbp)
    c704:	48 8d 85 a0 f4 ff ff 	lea    -0xb60(%rbp),%rax
    c70b:	48 89 85 78 fa ff ff 	mov    %rax,-0x588(%rbp)
    c712:	48 8d 85 a0 f4 ff ff 	lea    -0xb60(%rbp),%rax
    c719:	48 89 85 80 fa ff ff 	mov    %rax,-0x580(%rbp)
    c720:	48 8d 85 a0 f4 ff ff 	lea    -0xb60(%rbp),%rax
    c727:	48 89 85 88 fa ff ff 	mov    %rax,-0x578(%rbp)
    c72e:	48 8d 85 a0 f4 ff ff 	lea    -0xb60(%rbp),%rax
    c735:	48 89 85 90 fa ff ff 	mov    %rax,-0x570(%rbp)
    c73c:	48 8d 85 a0 f4 ff ff 	lea    -0xb60(%rbp),%rax
    c743:	48 89 85 98 fa ff ff 	mov    %rax,-0x568(%rbp)
    c74a:	48 c7 85 a0 fa ff ff 	movq   $0x0,-0x560(%rbp)
    c751:	00 00 00 00 
    c755:	48 8d 85 a0 f4 ff ff 	lea    -0xb60(%rbp),%rax
    c75c:	48 89 85 a8 fa ff ff 	mov    %rax,-0x558(%rbp)
    c763:	48 8d 85 a0 f4 ff ff 	lea    -0xb60(%rbp),%rax
    c76a:	48 89 85 b0 fa ff ff 	mov    %rax,-0x550(%rbp)
    c771:	48 8d 85 a0 f4 ff ff 	lea    -0xb60(%rbp),%rax
    c778:	48 89 85 b8 fa ff ff 	mov    %rax,-0x548(%rbp)
    c77f:	48 8d 85 a0 f4 ff ff 	lea    -0xb60(%rbp),%rax
    c786:	48 89 85 c0 fa ff ff 	mov    %rax,-0x540(%rbp)
    c78d:	48 8d 85 a0 f4 ff ff 	lea    -0xb60(%rbp),%rax
    c794:	48 89 85 c8 fa ff ff 	mov    %rax,-0x538(%rbp)
    c79b:	48 8d 85 a0 f4 ff ff 	lea    -0xb60(%rbp),%rax
    c7a2:	48 89 85 d0 fa ff ff 	mov    %rax,-0x530(%rbp)
    c7a9:	48 8d 85 a0 f4 ff ff 	lea    -0xb60(%rbp),%rax
    c7b0:	48 89 85 d8 fa ff ff 	mov    %rax,-0x528(%rbp)
    c7b7:	48 8d 85 a0 f4 ff ff 	lea    -0xb60(%rbp),%rax
    c7be:	48 89 85 e0 fa ff ff 	mov    %rax,-0x520(%rbp)
    c7c5:	48 8d 85 a0 f4 ff ff 	lea    -0xb60(%rbp),%rax
    c7cc:	48 89 85 e8 fa ff ff 	mov    %rax,-0x518(%rbp)
    c7d3:	48 8d 85 a0 f4 ff ff 	lea    -0xb60(%rbp),%rax
    c7da:	48 89 85 f0 fa ff ff 	mov    %rax,-0x510(%rbp)
    c7e1:	48 8d 85 a0 f4 ff ff 	lea    -0xb60(%rbp),%rax
    c7e8:	48 89 85 f8 fa ff ff 	mov    %rax,-0x508(%rbp)
    c7ef:	48 8d 85 a0 f4 ff ff 	lea    -0xb60(%rbp),%rax
    c7f6:	48 89 85 00 fb ff ff 	mov    %rax,-0x500(%rbp)
    c7fd:	48 8d 85 a0 f4 ff ff 	lea    -0xb60(%rbp),%rax
    c804:	48 89 85 08 fb ff ff 	mov    %rax,-0x4f8(%rbp)
    c80b:	48 8d 85 a0 f4 ff ff 	lea    -0xb60(%rbp),%rax
    c812:	48 89 85 10 fb ff ff 	mov    %rax,-0x4f0(%rbp)
    c819:	48 8d 85 a0 f4 ff ff 	lea    -0xb60(%rbp),%rax
    c820:	48 89 85 18 fb ff ff 	mov    %rax,-0x4e8(%rbp)
    c827:	48 8d 85 a0 f4 ff ff 	lea    -0xb60(%rbp),%rax
    c82e:	48 89 85 20 fb ff ff 	mov    %rax,-0x4e0(%rbp)
    c835:	48 8d 85 a0 f4 ff ff 	lea    -0xb60(%rbp),%rax
    c83c:	48 89 85 28 fb ff ff 	mov    %rax,-0x4d8(%rbp)
    c843:	48 8d 85 a0 f4 ff ff 	lea    -0xb60(%rbp),%rax
    c84a:	48 89 85 30 fb ff ff 	mov    %rax,-0x4d0(%rbp)
    c851:	48 8d 85 a0 f4 ff ff 	lea    -0xb60(%rbp),%rax
    c858:	48 89 85 38 fb ff ff 	mov    %rax,-0x4c8(%rbp)
    c85f:	48 c7 85 40 fb ff ff 	movq   $0x0,-0x4c0(%rbp)
    c866:	00 00 00 00 
    c86a:	48 8d 85 a0 f4 ff ff 	lea    -0xb60(%rbp),%rax
    c871:	48 89 85 48 fb ff ff 	mov    %rax,-0x4b8(%rbp)
    c878:	48 8d 85 a0 f4 ff ff 	lea    -0xb60(%rbp),%rax
    c87f:	48 89 85 50 fb ff ff 	mov    %rax,-0x4b0(%rbp)
    c886:	48 8d 85 a0 f4 ff ff 	lea    -0xb60(%rbp),%rax
    c88d:	48 89 85 58 fb ff ff 	mov    %rax,-0x4a8(%rbp)
    c894:	48 c7 85 60 fb ff ff 	movq   $0x0,-0x4a0(%rbp)
    c89b:	00 00 00 00 
    c89f:	48 8d 85 a0 f4 ff ff 	lea    -0xb60(%rbp),%rax
    c8a6:	48 89 85 68 fb ff ff 	mov    %rax,-0x498(%rbp)
    c8ad:	48 8d 85 a0 f4 ff ff 	lea    -0xb60(%rbp),%rax
    c8b4:	48 89 85 70 fb ff ff 	mov    %rax,-0x490(%rbp)
    c8bb:	48 c7 85 78 fb ff ff 	movq   $0x0,-0x488(%rbp)
    c8c2:	00 00 00 00 
    c8c6:	48 8d 85 a0 f4 ff ff 	lea    -0xb60(%rbp),%rax
    c8cd:	48 89 85 80 fb ff ff 	mov    %rax,-0x480(%rbp)
    c8d4:	48 8d 85 a0 f4 ff ff 	lea    -0xb60(%rbp),%rax
    c8db:	48 89 85 88 fb ff ff 	mov    %rax,-0x478(%rbp)
    c8e2:	48 8d 85 a0 f4 ff ff 	lea    -0xb60(%rbp),%rax
    c8e9:	48 89 85 90 fb ff ff 	mov    %rax,-0x470(%rbp)
    c8f0:	48 8d 85 a0 f4 ff ff 	lea    -0xb60(%rbp),%rax
    c8f7:	48 89 85 98 fb ff ff 	mov    %rax,-0x468(%rbp)
    c8fe:	48 8d 85 a0 f4 ff ff 	lea    -0xb60(%rbp),%rax
    c905:	48 89 85 a0 fb ff ff 	mov    %rax,-0x460(%rbp)
    c90c:	48 8d 85 a0 f4 ff ff 	lea    -0xb60(%rbp),%rax
    c913:	48 89 85 a8 fb ff ff 	mov    %rax,-0x458(%rbp)
    c91a:	48 8d 85 a0 f4 ff ff 	lea    -0xb60(%rbp),%rax
    c921:	48 89 85 b0 fb ff ff 	mov    %rax,-0x450(%rbp)
    c928:	48 8d 85 a0 f4 ff ff 	lea    -0xb60(%rbp),%rax
    c92f:	48 89 85 b8 fb ff ff 	mov    %rax,-0x448(%rbp)
    c936:	48 8d 85 a0 f4 ff ff 	lea    -0xb60(%rbp),%rax
    c93d:	48 89 85 c0 fb ff ff 	mov    %rax,-0x440(%rbp)
    c944:	48 8d 85 a0 f4 ff ff 	lea    -0xb60(%rbp),%rax
    c94b:	48 89 85 c8 fb ff ff 	mov    %rax,-0x438(%rbp)
    c952:	48 8d 85 a0 f4 ff ff 	lea    -0xb60(%rbp),%rax
    c959:	48 89 85 d0 fb ff ff 	mov    %rax,-0x430(%rbp)
    c960:	48 8d 85 a0 f4 ff ff 	lea    -0xb60(%rbp),%rax
    c967:	48 89 85 d8 fb ff ff 	mov    %rax,-0x428(%rbp)
    c96e:	48 8d 85 a0 f4 ff ff 	lea    -0xb60(%rbp),%rax
    c975:	48 89 85 e0 fb ff ff 	mov    %rax,-0x420(%rbp)
    c97c:	48 8d 85 a0 f4 ff ff 	lea    -0xb60(%rbp),%rax
    c983:	48 89 85 e8 fb ff ff 	mov    %rax,-0x418(%rbp)
    c98a:	48 8d 85 a0 f4 ff ff 	lea    -0xb60(%rbp),%rax
    c991:	48 89 85 f0 fb ff ff 	mov    %rax,-0x410(%rbp)
    c998:	48 8d 85 a0 f4 ff ff 	lea    -0xb60(%rbp),%rax
    c99f:	48 89 85 f8 fb ff ff 	mov    %rax,-0x408(%rbp)
    c9a6:	48 c7 85 00 fc ff ff 	movq   $0x0,-0x400(%rbp)
    c9ad:	00 00 00 00 
    c9b1:	48 8d 85 a0 f4 ff ff 	lea    -0xb60(%rbp),%rax
    c9b8:	48 89 85 08 fc ff ff 	mov    %rax,-0x3f8(%rbp)
    c9bf:	48 8d 85 a0 f4 ff ff 	lea    -0xb60(%rbp),%rax
    c9c6:	48 89 85 10 fc ff ff 	mov    %rax,-0x3f0(%rbp)
    c9cd:	48 c7 85 18 fc ff ff 	movq   $0x0,-0x3e8(%rbp)
    c9d4:	00 00 00 00 
    c9d8:	48 8d 85 a0 f4 ff ff 	lea    -0xb60(%rbp),%rax
    c9df:	48 89 85 20 fc ff ff 	mov    %rax,-0x3e0(%rbp)
    c9e6:	48 8d 85 a0 f4 ff ff 	lea    -0xb60(%rbp),%rax
    c9ed:	48 89 85 28 fc ff ff 	mov    %rax,-0x3d8(%rbp)
    c9f4:	48 8d 85 a0 f4 ff ff 	lea    -0xb60(%rbp),%rax
    c9fb:	48 89 85 30 fc ff ff 	mov    %rax,-0x3d0(%rbp)
    ca02:	48 8d 85 a0 f4 ff ff 	lea    -0xb60(%rbp),%rax
    ca09:	48 89 85 38 fc ff ff 	mov    %rax,-0x3c8(%rbp)
    ca10:	48 8d 85 a0 f4 ff ff 	lea    -0xb60(%rbp),%rax
    ca17:	48 89 85 40 fc ff ff 	mov    %rax,-0x3c0(%rbp)
    ca1e:	48 8d 85 a0 f4 ff ff 	lea    -0xb60(%rbp),%rax
    ca25:	48 89 85 48 fc ff ff 	mov    %rax,-0x3b8(%rbp)
    ca2c:	48 8d 85 a0 f4 ff ff 	lea    -0xb60(%rbp),%rax
    ca33:	48 89 85 50 fc ff ff 	mov    %rax,-0x3b0(%rbp)
    ca3a:	48 8d 85 a0 f4 ff ff 	lea    -0xb60(%rbp),%rax
    ca41:	48 89 85 58 fc ff ff 	mov    %rax,-0x3a8(%rbp)
    ca48:	48 8d 85 a0 f4 ff ff 	lea    -0xb60(%rbp),%rax
    ca4f:	48 89 85 60 fc ff ff 	mov    %rax,-0x3a0(%rbp)
    ca56:	48 8d 85 a0 f4 ff ff 	lea    -0xb60(%rbp),%rax
    ca5d:	48 89 85 68 fc ff ff 	mov    %rax,-0x398(%rbp)
    ca64:	48 8d 85 a0 f4 ff ff 	lea    -0xb60(%rbp),%rax
    ca6b:	48 89 85 70 fc ff ff 	mov    %rax,-0x390(%rbp)
    ca72:	48 8d 85 a0 f4 ff ff 	lea    -0xb60(%rbp),%rax
    ca79:	48 89 85 78 fc ff ff 	mov    %rax,-0x388(%rbp)
    ca80:	48 c7 85 80 fc ff ff 	movq   $0x0,-0x380(%rbp)
    ca87:	00 00 00 00 
    ca8b:	48 8d 85 a0 f4 ff ff 	lea    -0xb60(%rbp),%rax
    ca92:	48 89 85 88 fc ff ff 	mov    %rax,-0x378(%rbp)
    ca99:	48 8d 85 a0 f4 ff ff 	lea    -0xb60(%rbp),%rax
    caa0:	48 89 85 90 fc ff ff 	mov    %rax,-0x370(%rbp)
    caa7:	48 8d 85 a0 f4 ff ff 	lea    -0xb60(%rbp),%rax
    caae:	48 89 85 98 fc ff ff 	mov    %rax,-0x368(%rbp)
    cab5:	48 8d 85 a0 f4 ff ff 	lea    -0xb60(%rbp),%rax
    cabc:	48 89 85 a0 fc ff ff 	mov    %rax,-0x360(%rbp)
    cac3:	48 8d 85 a0 f4 ff ff 	lea    -0xb60(%rbp),%rax
    caca:	48 89 85 a8 fc ff ff 	mov    %rax,-0x358(%rbp)
    cad1:	48 8d 85 a0 f4 ff ff 	lea    -0xb60(%rbp),%rax
    cad8:	48 89 85 b0 fc ff ff 	mov    %rax,-0x350(%rbp)
    cadf:	48 8d 85 a0 f4 ff ff 	lea    -0xb60(%rbp),%rax
    cae6:	48 89 85 b8 fc ff ff 	mov    %rax,-0x348(%rbp)
    caed:	48 8d 85 a0 f4 ff ff 	lea    -0xb60(%rbp),%rax
    caf4:	48 89 85 c0 fc ff ff 	mov    %rax,-0x340(%rbp)
    cafb:	48 8d 85 a0 f4 ff ff 	lea    -0xb60(%rbp),%rax
    cb02:	48 89 85 c8 fc ff ff 	mov    %rax,-0x338(%rbp)
    cb09:	48 8d 85 a0 f4 ff ff 	lea    -0xb60(%rbp),%rax
    cb10:	48 89 85 d0 fc ff ff 	mov    %rax,-0x330(%rbp)
    cb17:	48 8d 85 a0 f4 ff ff 	lea    -0xb60(%rbp),%rax
    cb1e:	48 89 85 d8 fc ff ff 	mov    %rax,-0x328(%rbp)
    cb25:	48 8d 85 a0 f4 ff ff 	lea    -0xb60(%rbp),%rax
    cb2c:	48 89 85 e0 fc ff ff 	mov    %rax,-0x320(%rbp)
    cb33:	48 8d 85 a0 f4 ff ff 	lea    -0xb60(%rbp),%rax
    cb3a:	48 89 85 e8 fc ff ff 	mov    %rax,-0x318(%rbp)
    cb41:	48 8d 85 a0 f4 ff ff 	lea    -0xb60(%rbp),%rax
    cb48:	48 89 85 f0 fc ff ff 	mov    %rax,-0x310(%rbp)
    cb4f:	48 8d 85 a0 f4 ff ff 	lea    -0xb60(%rbp),%rax
    cb56:	48 89 85 f8 fc ff ff 	mov    %rax,-0x308(%rbp)
    cb5d:	48 8d 85 a0 f4 ff ff 	lea    -0xb60(%rbp),%rax
    cb64:	48 89 85 00 fd ff ff 	mov    %rax,-0x300(%rbp)
    cb6b:	48 8d 85 a0 f4 ff ff 	lea    -0xb60(%rbp),%rax
    cb72:	48 89 85 08 fd ff ff 	mov    %rax,-0x2f8(%rbp)
    cb79:	48 8d 85 a0 f4 ff ff 	lea    -0xb60(%rbp),%rax
    cb80:	48 89 85 10 fd ff ff 	mov    %rax,-0x2f0(%rbp)
    cb87:	48 8d 85 a0 f4 ff ff 	lea    -0xb60(%rbp),%rax
    cb8e:	48 89 85 18 fd ff ff 	mov    %rax,-0x2e8(%rbp)
    cb95:	48 8d 85 a0 f4 ff ff 	lea    -0xb60(%rbp),%rax
    cb9c:	48 89 85 20 fd ff ff 	mov    %rax,-0x2e0(%rbp)
    cba3:	48 8d 85 a0 f4 ff ff 	lea    -0xb60(%rbp),%rax
    cbaa:	48 89 85 28 fd ff ff 	mov    %rax,-0x2d8(%rbp)
    cbb1:	48 8d 85 a0 f4 ff ff 	lea    -0xb60(%rbp),%rax
    cbb8:	48 89 85 30 fd ff ff 	mov    %rax,-0x2d0(%rbp)
    cbbf:	48 8d 85 a0 f4 ff ff 	lea    -0xb60(%rbp),%rax
    cbc6:	48 89 85 38 fd ff ff 	mov    %rax,-0x2c8(%rbp)
    cbcd:	48 8d 85 a0 f4 ff ff 	lea    -0xb60(%rbp),%rax
    cbd4:	48 89 85 40 fd ff ff 	mov    %rax,-0x2c0(%rbp)
    cbdb:	48 8d 85 a0 f4 ff ff 	lea    -0xb60(%rbp),%rax
    cbe2:	48 89 85 48 fd ff ff 	mov    %rax,-0x2b8(%rbp)
    cbe9:	48 8d 85 a0 f4 ff ff 	lea    -0xb60(%rbp),%rax
    cbf0:	48 89 85 50 fd ff ff 	mov    %rax,-0x2b0(%rbp)
    cbf7:	48 8d 85 a0 f4 ff ff 	lea    -0xb60(%rbp),%rax
    cbfe:	48 89 85 58 fd ff ff 	mov    %rax,-0x2a8(%rbp)
    cc05:	48 8d 85 a0 f4 ff ff 	lea    -0xb60(%rbp),%rax
    cc0c:	48 89 85 60 fd ff ff 	mov    %rax,-0x2a0(%rbp)
    cc13:	48 8d 85 a0 f4 ff ff 	lea    -0xb60(%rbp),%rax
    cc1a:	48 89 85 68 fd ff ff 	mov    %rax,-0x298(%rbp)
    cc21:	48 8d 85 a0 f4 ff ff 	lea    -0xb60(%rbp),%rax
    cc28:	48 89 85 70 fd ff ff 	mov    %rax,-0x290(%rbp)
    cc2f:	48 8d 85 a0 f4 ff ff 	lea    -0xb60(%rbp),%rax
    cc36:	48 89 85 78 fd ff ff 	mov    %rax,-0x288(%rbp)
    cc3d:	48 8d 85 a0 f4 ff ff 	lea    -0xb60(%rbp),%rax
    cc44:	48 89 85 80 fd ff ff 	mov    %rax,-0x280(%rbp)
    cc4b:	48 8d 85 a0 f4 ff ff 	lea    -0xb60(%rbp),%rax
    cc52:	48 89 85 88 fd ff ff 	mov    %rax,-0x278(%rbp)
    cc59:	48 8d 85 a0 f4 ff ff 	lea    -0xb60(%rbp),%rax
    cc60:	48 89 85 90 fd ff ff 	mov    %rax,-0x270(%rbp)
    cc67:	48 8d 85 a0 f4 ff ff 	lea    -0xb60(%rbp),%rax
    cc6e:	48 89 85 98 fd ff ff 	mov    %rax,-0x268(%rbp)
    cc75:	48 8d 85 a0 f4 ff ff 	lea    -0xb60(%rbp),%rax
    cc7c:	48 89 85 a0 fd ff ff 	mov    %rax,-0x260(%rbp)
    cc83:	48 8d 85 a0 f4 ff ff 	lea    -0xb60(%rbp),%rax
    cc8a:	48 89 85 a8 fd ff ff 	mov    %rax,-0x258(%rbp)
    cc91:	48 8d 85 a0 f4 ff ff 	lea    -0xb60(%rbp),%rax
    cc98:	48 89 85 b0 fd ff ff 	mov    %rax,-0x250(%rbp)
    cc9f:	48 8d 85 a0 f4 ff ff 	lea    -0xb60(%rbp),%rax
    cca6:	48 89 85 b8 fd ff ff 	mov    %rax,-0x248(%rbp)
    ccad:	48 8d 85 a0 f4 ff ff 	lea    -0xb60(%rbp),%rax
    ccb4:	48 89 85 c0 fd ff ff 	mov    %rax,-0x240(%rbp)
    ccbb:	48 8d 85 a0 f4 ff ff 	lea    -0xb60(%rbp),%rax
    ccc2:	48 89 85 c8 fd ff ff 	mov    %rax,-0x238(%rbp)
    ccc9:	48 8d 85 a0 f4 ff ff 	lea    -0xb60(%rbp),%rax
    ccd0:	48 89 85 d0 fd ff ff 	mov    %rax,-0x230(%rbp)
    ccd7:	48 8d 85 a0 f4 ff ff 	lea    -0xb60(%rbp),%rax
    ccde:	48 89 85 d8 fd ff ff 	mov    %rax,-0x228(%rbp)
    cce5:	48 8d 85 a0 f4 ff ff 	lea    -0xb60(%rbp),%rax
    ccec:	48 89 85 e0 fd ff ff 	mov    %rax,-0x220(%rbp)
    ccf3:	48 8d 85 a0 f4 ff ff 	lea    -0xb60(%rbp),%rax
    ccfa:	48 89 85 e8 fd ff ff 	mov    %rax,-0x218(%rbp)
    cd01:	48 c7 85 f0 fd ff ff 	movq   $0x0,-0x210(%rbp)
    cd08:	00 00 00 00 
    cd0c:	48 8d 85 a0 f4 ff ff 	lea    -0xb60(%rbp),%rax
    cd13:	48 89 85 f8 fd ff ff 	mov    %rax,-0x208(%rbp)
    cd1a:	48 8d 85 a0 f4 ff ff 	lea    -0xb60(%rbp),%rax
    cd21:	48 89 85 00 fe ff ff 	mov    %rax,-0x200(%rbp)
    cd28:	48 8d 85 a0 f4 ff ff 	lea    -0xb60(%rbp),%rax
    cd2f:	48 89 85 08 fe ff ff 	mov    %rax,-0x1f8(%rbp)
    cd36:	48 8d 85 a0 f4 ff ff 	lea    -0xb60(%rbp),%rax
    cd3d:	48 89 85 10 fe ff ff 	mov    %rax,-0x1f0(%rbp)
    cd44:	48 8d 85 a0 f4 ff ff 	lea    -0xb60(%rbp),%rax
    cd4b:	48 89 85 18 fe ff ff 	mov    %rax,-0x1e8(%rbp)
    cd52:	48 8d 85 a0 f4 ff ff 	lea    -0xb60(%rbp),%rax
    cd59:	48 89 85 20 fe ff ff 	mov    %rax,-0x1e0(%rbp)
    cd60:	48 8d 85 a0 f4 ff ff 	lea    -0xb60(%rbp),%rax
    cd67:	48 89 85 28 fe ff ff 	mov    %rax,-0x1d8(%rbp)
    cd6e:	48 8d 85 a0 f4 ff ff 	lea    -0xb60(%rbp),%rax
    cd75:	48 89 85 30 fe ff ff 	mov    %rax,-0x1d0(%rbp)
    cd7c:	48 8d 85 a0 f4 ff ff 	lea    -0xb60(%rbp),%rax
    cd83:	48 89 85 38 fe ff ff 	mov    %rax,-0x1c8(%rbp)
    cd8a:	48 8d 85 a0 f4 ff ff 	lea    -0xb60(%rbp),%rax
    cd91:	48 89 85 40 fe ff ff 	mov    %rax,-0x1c0(%rbp)
    cd98:	48 8d 85 a0 f4 ff ff 	lea    -0xb60(%rbp),%rax
    cd9f:	48 89 85 48 fe ff ff 	mov    %rax,-0x1b8(%rbp)
    cda6:	48 c7 85 50 fe ff ff 	movq   $0x0,-0x1b0(%rbp)
    cdad:	00 00 00 00 
    cdb1:	48 8d 85 a0 f4 ff ff 	lea    -0xb60(%rbp),%rax
    cdb8:	48 89 85 58 fe ff ff 	mov    %rax,-0x1a8(%rbp)
    cdbf:	48 8d 85 a0 f4 ff ff 	lea    -0xb60(%rbp),%rax
    cdc6:	48 89 85 60 fe ff ff 	mov    %rax,-0x1a0(%rbp)
    cdcd:	48 8d 85 a0 f4 ff ff 	lea    -0xb60(%rbp),%rax
    cdd4:	48 89 85 68 fe ff ff 	mov    %rax,-0x198(%rbp)
    cddb:	48 8d 85 a0 f4 ff ff 	lea    -0xb60(%rbp),%rax
    cde2:	48 89 85 70 fe ff ff 	mov    %rax,-0x190(%rbp)
    cde9:	48 8d 85 a0 f4 ff ff 	lea    -0xb60(%rbp),%rax
    cdf0:	48 89 85 78 fe ff ff 	mov    %rax,-0x188(%rbp)
    cdf7:	48 8d 85 a0 f4 ff ff 	lea    -0xb60(%rbp),%rax
    cdfe:	48 89 85 80 fe ff ff 	mov    %rax,-0x180(%rbp)
    ce05:	48 8d 85 a0 f4 ff ff 	lea    -0xb60(%rbp),%rax
    ce0c:	48 89 85 88 fe ff ff 	mov    %rax,-0x178(%rbp)
    ce13:	48 8d 85 a0 f4 ff ff 	lea    -0xb60(%rbp),%rax
    ce1a:	48 89 85 90 fe ff ff 	mov    %rax,-0x170(%rbp)
    ce21:	48 8d 85 a0 f4 ff ff 	lea    -0xb60(%rbp),%rax
    ce28:	48 89 85 98 fe ff ff 	mov    %rax,-0x168(%rbp)
    ce2f:	48 8d 85 a0 f4 ff ff 	lea    -0xb60(%rbp),%rax
    ce36:	48 89 85 a0 fe ff ff 	mov    %rax,-0x160(%rbp)
    ce3d:	48 8d 85 a0 f4 ff ff 	lea    -0xb60(%rbp),%rax
    ce44:	48 89 85 a8 fe ff ff 	mov    %rax,-0x158(%rbp)
    ce4b:	48 8d 85 a0 f4 ff ff 	lea    -0xb60(%rbp),%rax
    ce52:	48 89 85 b0 fe ff ff 	mov    %rax,-0x150(%rbp)
    ce59:	48 8d 85 a0 f4 ff ff 	lea    -0xb60(%rbp),%rax
    ce60:	48 89 85 b8 fe ff ff 	mov    %rax,-0x148(%rbp)
    ce67:	48 8d 85 a0 f4 ff ff 	lea    -0xb60(%rbp),%rax
    ce6e:	48 89 85 c0 fe ff ff 	mov    %rax,-0x140(%rbp)
    ce75:	48 8d 85 a0 f4 ff ff 	lea    -0xb60(%rbp),%rax
    ce7c:	48 89 85 c8 fe ff ff 	mov    %rax,-0x138(%rbp)
    ce83:	48 8d 85 a0 f4 ff ff 	lea    -0xb60(%rbp),%rax
    ce8a:	48 89 85 d0 fe ff ff 	mov    %rax,-0x130(%rbp)
    ce91:	48 8d 85 a0 f4 ff ff 	lea    -0xb60(%rbp),%rax
    ce98:	48 89 85 d8 fe ff ff 	mov    %rax,-0x128(%rbp)
    ce9f:	48 8d 85 a0 f4 ff ff 	lea    -0xb60(%rbp),%rax
    cea6:	48 89 85 e0 fe ff ff 	mov    %rax,-0x120(%rbp)
    cead:	48 8d 85 a0 f4 ff ff 	lea    -0xb60(%rbp),%rax
    ceb4:	48 89 85 e8 fe ff ff 	mov    %rax,-0x118(%rbp)
    cebb:	48 8d 85 a0 f4 ff ff 	lea    -0xb60(%rbp),%rax
    cec2:	48 89 85 f0 fe ff ff 	mov    %rax,-0x110(%rbp)
    cec9:	48 8d 85 a0 f4 ff ff 	lea    -0xb60(%rbp),%rax
    ced0:	48 89 85 f8 fe ff ff 	mov    %rax,-0x108(%rbp)
    ced7:	48 8d 85 a0 f4 ff ff 	lea    -0xb60(%rbp),%rax
    cede:	48 89 85 00 ff ff ff 	mov    %rax,-0x100(%rbp)
    cee5:	48 8d 85 a0 f4 ff ff 	lea    -0xb60(%rbp),%rax
    ceec:	48 89 85 08 ff ff ff 	mov    %rax,-0xf8(%rbp)
    cef3:	48 8d 85 a0 f4 ff ff 	lea    -0xb60(%rbp),%rax
    cefa:	48 89 85 10 ff ff ff 	mov    %rax,-0xf0(%rbp)
    cf01:	48 8d 85 a0 f4 ff ff 	lea    -0xb60(%rbp),%rax
    cf08:	48 89 85 18 ff ff ff 	mov    %rax,-0xe8(%rbp)
    cf0f:	48 8d 85 a0 f4 ff ff 	lea    -0xb60(%rbp),%rax
    cf16:	48 89 85 20 ff ff ff 	mov    %rax,-0xe0(%rbp)
    cf1d:	48 8d 85 a0 f4 ff ff 	lea    -0xb60(%rbp),%rax
    cf24:	48 89 85 28 ff ff ff 	mov    %rax,-0xd8(%rbp)
    cf2b:	48 8d 85 a0 f4 ff ff 	lea    -0xb60(%rbp),%rax
    cf32:	48 89 85 30 ff ff ff 	mov    %rax,-0xd0(%rbp)
    cf39:	48 8d 85 a0 f4 ff ff 	lea    -0xb60(%rbp),%rax
    cf40:	48 89 85 38 ff ff ff 	mov    %rax,-0xc8(%rbp)
    cf47:	48 8d 85 a0 f4 ff ff 	lea    -0xb60(%rbp),%rax
    cf4e:	48 89 85 40 ff ff ff 	mov    %rax,-0xc0(%rbp)
    cf55:	48 8d 85 a0 f4 ff ff 	lea    -0xb60(%rbp),%rax
    cf5c:	48 89 85 48 ff ff ff 	mov    %rax,-0xb8(%rbp)
    cf63:	48 8d 85 a0 f4 ff ff 	lea    -0xb60(%rbp),%rax
    cf6a:	48 89 85 50 ff ff ff 	mov    %rax,-0xb0(%rbp)
    cf71:	48 8d 85 a0 f4 ff ff 	lea    -0xb60(%rbp),%rax
    cf78:	48 89 85 58 ff ff ff 	mov    %rax,-0xa8(%rbp)
    cf7f:	48 8d 85 a0 f4 ff ff 	lea    -0xb60(%rbp),%rax
    cf86:	48 89 85 60 ff ff ff 	mov    %rax,-0xa0(%rbp)
    cf8d:	48 8d 85 a0 f4 ff ff 	lea    -0xb60(%rbp),%rax
    cf94:	48 89 85 68 ff ff ff 	mov    %rax,-0x98(%rbp)
    cf9b:	48 8d 85 a0 f4 ff ff 	lea    -0xb60(%rbp),%rax
    cfa2:	48 89 85 70 ff ff ff 	mov    %rax,-0x90(%rbp)
    cfa9:	48 8d 85 a0 f4 ff ff 	lea    -0xb60(%rbp),%rax
    cfb0:	48 89 85 78 ff ff ff 	mov    %rax,-0x88(%rbp)
    cfb7:	48 8d 85 a0 f4 ff ff 	lea    -0xb60(%rbp),%rax
    cfbe:	48 89 45 80          	mov    %rax,-0x80(%rbp)
    cfc2:	48 8d 85 a0 f4 ff ff 	lea    -0xb60(%rbp),%rax
    cfc9:	48 89 45 88          	mov    %rax,-0x78(%rbp)
    cfcd:	48 8d 85 a0 f4 ff ff 	lea    -0xb60(%rbp),%rax
    cfd4:	48 89 45 90          	mov    %rax,-0x70(%rbp)
    cfd8:	48 8d 85 a0 f4 ff ff 	lea    -0xb60(%rbp),%rax
    cfdf:	48 89 45 98          	mov    %rax,-0x68(%rbp)
    cfe3:	48 8d 85 a0 f4 ff ff 	lea    -0xb60(%rbp),%rax
    cfea:	48 89 45 a0          	mov    %rax,-0x60(%rbp)
    cfee:	48 8d 85 a0 f4 ff ff 	lea    -0xb60(%rbp),%rax
    cff5:	48 89 45 a8          	mov    %rax,-0x58(%rbp)
    cff9:	48 8d 85 a0 f4 ff ff 	lea    -0xb60(%rbp),%rax
    d000:	48 89 45 b0          	mov    %rax,-0x50(%rbp)
    d004:	48 8d 85 a0 f4 ff ff 	lea    -0xb60(%rbp),%rax
    d00b:	48 89 45 b8          	mov    %rax,-0x48(%rbp)
    d00f:	48 8b 85 a8 f4 ff ff 	mov    -0xb58(%rbp),%rax
    d016:	8b 00                	mov    (%rax),%eax
    d018:	85 c0                	test   %eax,%eax
    d01a:	0f 85 4d 01 00 00    	jne    d16d <func_17+0x1263>
    d020:	8b 85 68 f4 ff ff    	mov    -0xb98(%rbp),%eax
    d026:	44 0f b6 f8          	movzbl %al,%r15d
    d02a:	48 8b 05 77 e3 00 00 	mov    0xe377(%rip),%rax        # 1b3a8 <g_208>
    d031:	4c 8b 28             	mov    (%rax),%r13
    d034:	48 8d 85 98 f4 ff ff 	lea    -0xb68(%rbp),%rax
    d03b:	48 89 85 70 f5 ff ff 	mov    %rax,-0xa90(%rbp)
    d042:	48 8b 85 70 f5 ff ff 	mov    -0xa90(%rbp),%rax
    d049:	48 8d 15 b8 0b 01 00 	lea    0x10bb8(%rip),%rdx        # 1dc08 <g_77>
    d050:	48 89 95 e0 f4 ff ff 	mov    %rdx,-0xb20(%rbp)
    d057:	48 39 85 e0 f4 ff ff 	cmp    %rax,-0xb20(%rbp)
    d05e:	0f 95 c0             	setne  %al
    d061:	0f b6 c0             	movzbl %al,%eax
    d064:	39 85 80 f4 ff ff    	cmp    %eax,-0xb80(%rbp)
    d06a:	7c 2e                	jl     d09a <func_17+0x1190>
    d06c:	48 8b 05 85 f4 00 00 	mov    0xf485(%rip),%rax        # 1c4f8 <g_1106>
    d073:	48 8b 00             	mov    (%rax),%rax
    d076:	48 8b 10             	mov    (%rax),%rdx
    d079:	0f b7 05 f0 a8 00 00 	movzwl 0xa8f0(%rip),%eax        # 17970 <l_1729.4356+0x30>
    d080:	0f b7 c0             	movzwl %ax,%eax
    d083:	48 89 d6             	mov    %rdx,%rsi
    d086:	48 89 c7             	mov    %rax,%rdi
    d089:	e8 f2 cf ff ff       	callq  a080 <safe_mod_func_uint64_t_u_u>
    d08e:	48 85 c0             	test   %rax,%rax
    d091:	74 07                	je     d09a <func_17+0x1190>
    d093:	b8 01 00 00 00       	mov    $0x1,%eax
    d098:	eb 05                	jmp    d09f <func_17+0x1195>
    d09a:	b8 00 00 00 00       	mov    $0x0,%eax
    d09f:	be c0 81 f3 9d       	mov    $0x9df381c0,%esi
    d0a4:	89 c7                	mov    %eax,%edi
    d0a6:	e8 54 c6 ff ff       	callq  96ff <safe_div_func_int32_t_s_s>
    d0ab:	3d d1 00 00 00       	cmp    $0xd1,%eax
    d0b0:	0f 9e c0             	setle  %al
    d0b3:	44 0f b6 e0          	movzbl %al,%r12d
    d0b7:	48 8b 9d 98 f4 ff ff 	mov    -0xb68(%rbp),%rbx
    d0be:	8b 85 80 f4 ff ff    	mov    -0xb80(%rbp),%eax
    d0c4:	98                   	cwtl   
    d0c5:	be 85 3d 00 00       	mov    $0x3d85,%esi
    d0ca:	89 c7                	mov    %eax,%edi
    d0cc:	e8 e2 c2 ff ff       	callq  93b3 <safe_add_func_int16_t_s_s>
    d0d1:	0f b7 d0             	movzwl %ax,%edx
    d0d4:	8b 85 68 f4 ff ff    	mov    -0xb98(%rbp),%eax
    d0da:	0f b7 c0             	movzwl %ax,%eax
    d0dd:	89 d6                	mov    %edx,%esi
    d0df:	89 c7                	mov    %eax,%edi
    d0e1:	e8 19 cc ff ff       	callq  9cff <safe_add_func_uint16_t_u_u>
    d0e6:	0f b7 c0             	movzwl %ax,%eax
    d0e9:	4c 8b 35 b8 e2 00 00 	mov    0xe2b8(%rip),%r14        # 1b3a8 <g_208>
    d0f0:	45 89 f8             	mov    %r15d,%r8d
    d0f3:	4c 89 e9             	mov    %r13,%rcx
    d0f6:	4c 89 e2             	mov    %r12,%rdx
    d0f9:	48 89 de             	mov    %rbx,%rsi
    d0fc:	89 c7                	mov    %eax,%edi
    d0fe:	e8 db 86 00 00       	callq  157de <func_58>
    d103:	49 89 06             	mov    %rax,(%r14)
    d106:	83 bd 80 f4 ff ff 00 	cmpl   $0x0,-0xb80(%rbp)
    d10d:	75 34                	jne    d143 <func_17+0x1239>
    d10f:	c6 05 22 cf 00 00 00 	movb   $0x0,0xcf22(%rip)        # 1a038 <g_9>
    d116:	eb 1e                	jmp    d136 <func_17+0x122c>
    d118:	48 8d 05 39 f4 00 00 	lea    0xf439(%rip),%rax        # 1c558 <g_1317>
    d11f:	48 89 85 f0 f4 ff ff 	mov    %rax,-0xb10(%rbp)
    d126:	0f b6 05 0b cf 00 00 	movzbl 0xcf0b(%rip),%eax        # 1a038 <g_9>
    d12d:	83 e8 01             	sub    $0x1,%eax
    d130:	88 05 02 cf 00 00    	mov    %al,0xcf02(%rip)        # 1a038 <g_9>
    d136:	0f b6 05 fb ce 00 00 	movzbl 0xcefb(%rip),%eax        # 1a038 <g_9>
    d13d:	3c f9                	cmp    $0xf9,%al
    d13f:	7c d7                	jl     d118 <func_17+0x120e>
    d141:	eb 03                	jmp    d146 <func_17+0x123c>
    d143:	90                   	nop
    d144:	eb 24                	jmp    d16a <func_17+0x1260>
    d146:	0f b7 05 4b cf 00 00 	movzwl 0xcf4b(%rip),%eax        # 1a098 <g_136>
    d14d:	83 c0 01             	add    $0x1,%eax
    d150:	66 89 05 41 cf 00 00 	mov    %ax,0xcf41(%rip)        # 1a098 <g_136>
    d157:	0f b7 05 3a cf 00 00 	movzwl 0xcf3a(%rip),%eax        # 1a098 <g_136>
    d15e:	66 83 f8 02          	cmp    $0x2,%ax
    d162:	0f 8e 38 ef ff ff    	jle    c0a0 <func_17+0x196>
    d168:	eb 04                	jmp    d16e <func_17+0x1264>
    d16a:	90                   	nop
    d16b:	eb 01                	jmp    d16e <func_17+0x1264>
    d16d:	90                   	nop
    d16e:	48 8d 05 53 0b 01 00 	lea    0x10b53(%rip),%rax        # 1dcc8 <g_1006>
    d175:	48 89 05 14 fa 00 00 	mov    %rax,0xfa14(%rip)        # 1cb90 <g_1734>
    d17c:	48 8b 05 0d fa 00 00 	mov    0xfa0d(%rip),%rax        # 1cb90 <g_1734>
    d183:	48 8d 15 3e 0b 01 00 	lea    0x10b3e(%rip),%rdx        # 1dcc8 <g_1006>
    d18a:	48 39 d0             	cmp    %rdx,%rax
    d18d:	0f 94 c0             	sete   %al
    d190:	0f b6 c0             	movzbl %al,%eax
    d193:	89 85 68 f4 ff ff    	mov    %eax,-0xb98(%rbp)
    d199:	0f b6 85 78 f4 ff ff 	movzbl -0xb88(%rbp),%eax
    d1a0:	48 8b 5d c8          	mov    -0x38(%rbp),%rbx
    d1a4:	64 48 33 1c 25 28 00 	xor    %fs:0x28,%rbx
    d1ab:	00 00 
    d1ad:	74 05                	je     d1b4 <func_17+0x12aa>
    d1af:	e8 bc be ff ff       	callq  9070 <__stack_chk_fail@plt>
    d1b4:	48 81 c4 88 0b 00 00 	add    $0xb88,%rsp
    d1bb:	5b                   	pop    %rbx
    d1bc:	41 5c                	pop    %r12
    d1be:	41 5d                	pop    %r13
    d1c0:	41 5e                	pop    %r14
    d1c2:	41 5f                	pop    %r15
    d1c4:	5d                   	pop    %rbp
    d1c5:	c3                   	retq   

000000000000d1c6 <func_23>:
    d1c6:	f3 0f 1e fa          	endbr64 
    d1ca:	55                   	push   %rbp
    d1cb:	48 89 e5             	mov    %rsp,%rbp
    d1ce:	41 57                	push   %r15
    d1d0:	41 56                	push   %r14
    d1d2:	41 55                	push   %r13
    d1d4:	41 54                	push   %r12
    d1d6:	53                   	push   %rbx
    d1d7:	48 81 ec 28 02 00 00 	sub    $0x228,%rsp
    d1de:	48 89 bd b8 fd ff ff 	mov    %rdi,-0x248(%rbp)
    d1e5:	89 b5 b4 fd ff ff    	mov    %esi,-0x24c(%rbp)
    d1eb:	64 48 8b 04 25 28 00 	mov    %fs:0x28,%rax
    d1f2:	00 00 
    d1f4:	48 89 45 c8          	mov    %rax,-0x38(%rbp)
    d1f8:	31 c0                	xor    %eax,%eax
    d1fa:	c7 85 cc fd ff ff ff 	movl   $0xffffffff,-0x234(%rbp)
    d201:	ff ff ff 
    d204:	c7 85 d0 fd ff ff 09 	movl   $0x9,-0x230(%rbp)
    d20b:	00 00 00 
    d20e:	c6 85 c8 fd ff ff d6 	movb   $0xd6,-0x238(%rbp)
    d215:	48 c7 85 e8 fd ff ff 	movq   $0x0,-0x218(%rbp)
    d21c:	00 00 00 00 
    d220:	48 c7 85 f0 fd ff ff 	movq   $0x0,-0x210(%rbp)
    d227:	00 00 00 00 
    d22b:	48 8d 05 f2 09 01 00 	lea    0x109f2(%rip),%rax        # 1dc24 <g_291>
    d232:	48 89 85 f8 fd ff ff 	mov    %rax,-0x208(%rbp)
    d239:	c7 85 d4 fd ff ff a2 	movl   $0x18efd7a2,-0x22c(%rbp)
    d240:	d7 ef 18 
    d243:	48 8d 05 c0 cf 00 00 	lea    0xcfc0(%rip),%rax        # 1a20a <g_705>
    d24a:	48 89 85 e0 fd ff ff 	mov    %rax,-0x220(%rbp)
    d251:	48 8d 05 48 e1 00 00 	lea    0xe148(%rip),%rax        # 1b3a0 <g_209>
    d258:	48 89 85 00 fe ff ff 	mov    %rax,-0x200(%rbp)
    d25f:	c6 85 c9 fd ff ff 4b 	movb   $0x4b,-0x237(%rbp)
    d266:	c7 85 d8 fd ff ff b9 	movl   $0x12c59cb9,-0x228(%rbp)
    d26d:	9c c5 12 
    d270:	48 c7 85 08 fe ff ff 	movq   $0x1,-0x1f8(%rbp)
    d277:	01 00 00 00 
    d27b:	48 8d 85 d4 fd ff ff 	lea    -0x22c(%rbp),%rax
    d282:	48 89 85 10 fe ff ff 	mov    %rax,-0x1f0(%rbp)
    d289:	8b 85 b4 fd ff ff    	mov    -0x24c(%rbp),%eax
    d28f:	89 85 cc fd ff ff    	mov    %eax,-0x234(%rbp)
    d295:	83 bd b4 fd ff ff 00 	cmpl   $0x0,-0x24c(%rbp)
    d29c:	0f 84 b2 00 00 00    	je     d354 <func_23+0x18e>
    d2a2:	81 bd b4 fd ff ff 64 	cmpl   $0x2ee9fe64,-0x24c(%rbp)
    d2a9:	fe e9 2e 
    d2ac:	0f 95 c0             	setne  %al
    d2af:	0f b6 c0             	movzbl %al,%eax
    d2b2:	39 85 b4 fd ff ff    	cmp    %eax,-0x24c(%rbp)
    d2b8:	74 7f                	je     d339 <func_23+0x173>
    d2ba:	8b 95 d0 fd ff ff    	mov    -0x230(%rbp),%edx
    d2c0:	8b 85 cc fd ff ff    	mov    -0x234(%rbp),%eax
    d2c6:	21 d0                	and    %edx,%eax
    d2c8:	89 85 d0 fd ff ff    	mov    %eax,-0x230(%rbp)
    d2ce:	8b 9d d0 fd ff ff    	mov    -0x230(%rbp),%ebx
    d2d4:	8b 85 cc fd ff ff    	mov    -0x234(%rbp),%eax
    d2da:	89 c2                	mov    %eax,%edx
    d2dc:	48 8b 85 f8 fd ff ff 	mov    -0x208(%rbp),%rax
    d2e3:	89 10                	mov    %edx,(%rax)
    d2e5:	48 8b 85 f8 fd ff ff 	mov    -0x208(%rbp),%rax
    d2ec:	8b 00                	mov    (%rax),%eax
    d2ee:	3d a3 3b ab 49       	cmp    $0x49ab3ba3,%eax
    d2f3:	0f 96 c0             	setbe  %al
    d2f6:	0f b6 c0             	movzbl %al,%eax
    d2f9:	89 85 d4 fd ff ff    	mov    %eax,-0x22c(%rbp)
    d2ff:	8b 85 d4 fd ff ff    	mov    -0x22c(%rbp),%eax
    d305:	0f b7 c0             	movzwl %ax,%eax
    d308:	83 e0 01             	and    $0x1,%eax
    d30b:	89 c2                	mov    %eax,%edx
    d30d:	0f b6 85 c8 fd ff ff 	movzbl -0x238(%rbp),%eax
    d314:	89 d6                	mov    %edx,%esi
    d316:	89 c7                	mov    %eax,%edi
    d318:	e8 3f ca ff ff       	callq  9d5c <safe_mod_func_uint16_t_u_u>
    d31d:	0f b7 d0             	movzwl %ax,%edx
    d320:	8b 85 b4 fd ff ff    	mov    -0x24c(%rbp),%eax
    d326:	0f b7 c0             	movzwl %ax,%eax
    d329:	89 d6                	mov    %edx,%esi
    d32b:	89 c7                	mov    %eax,%edi
    d32d:	e8 0b ca ff ff       	callq  9d3d <safe_mul_func_uint16_t_u_u>
    d332:	0f b7 c0             	movzwl %ax,%eax
    d335:	39 c3                	cmp    %eax,%ebx
    d337:	74 07                	je     d340 <func_23+0x17a>
    d339:	b8 01 00 00 00       	mov    $0x1,%eax
    d33e:	eb 05                	jmp    d345 <func_23+0x17f>
    d340:	b8 00 00 00 00       	mov    $0x0,%eax
    d345:	39 85 b4 fd ff ff    	cmp    %eax,-0x24c(%rbp)
    d34b:	76 07                	jbe    d354 <func_23+0x18e>
    d34d:	b8 01 00 00 00       	mov    $0x1,%eax
    d352:	eb 05                	jmp    d359 <func_23+0x193>
    d354:	b8 00 00 00 00       	mov    $0x0,%eax
    d359:	0d 1f 4c ff fb       	or     $0xfbff4c1f,%eax
    d35e:	89 85 cc fd ff ff    	mov    %eax,-0x234(%rbp)
    d364:	8b 85 d4 fd ff ff    	mov    -0x22c(%rbp),%eax
    d36a:	33 85 b4 fd ff ff    	xor    -0x24c(%rbp),%eax
    d370:	89 85 d4 fd ff ff    	mov    %eax,-0x22c(%rbp)
    d376:	8b 9d d4 fd ff ff    	mov    -0x22c(%rbp),%ebx
    d37c:	48 83 bd 00 fe ff ff 	cmpq   $0x0,-0x200(%rbp)
    d383:	00 
    d384:	0f 95 c0             	setne  %al
    d387:	0f b6 d0             	movzbl %al,%edx
    d38a:	8b 85 cc fd ff ff    	mov    -0x234(%rbp),%eax
    d390:	39 85 b4 fd ff ff    	cmp    %eax,-0x24c(%rbp)
    d396:	0f 92 c1             	setb   %cl
    d399:	48 8b 85 e0 fd ff ff 	mov    -0x220(%rbp),%rax
    d3a0:	0f b6 c9             	movzbl %cl,%ecx
    d3a3:	66 89 08             	mov    %cx,(%rax)
    d3a6:	0f b7 00             	movzwl (%rax),%eax
    d3a9:	98                   	cwtl   
    d3aa:	89 d6                	mov    %edx,%esi
    d3ac:	89 c7                	mov    %eax,%edi
    d3ae:	e8 42 c0 ff ff       	callq  93f5 <safe_mul_func_int16_t_s_s>
    d3b3:	98                   	cwtl   
    d3b4:	39 c3                	cmp    %eax,%ebx
    d3b6:	0f 84 af 02 00 00    	je     d66b <func_23+0x4a5>
    d3bc:	48 c7 85 58 fe ff ff 	movq   $0x0,-0x1a8(%rbp)
    d3c3:	00 00 00 00 
    d3c7:	48 8d 05 d2 08 01 00 	lea    0x108d2(%rip),%rax        # 1dca0 <g_563>
    d3ce:	48 89 85 60 fe ff ff 	mov    %rax,-0x1a0(%rbp)
    d3d5:	48 8d 05 5c cc 00 00 	lea    0xcc5c(%rip),%rax        # 1a038 <g_9>
    d3dc:	48 89 85 a0 fe ff ff 	mov    %rax,-0x160(%rbp)
    d3e3:	48 8d 05 4e cc 00 00 	lea    0xcc4e(%rip),%rax        # 1a038 <g_9>
    d3ea:	48 89 85 a8 fe ff ff 	mov    %rax,-0x158(%rbp)
    d3f1:	48 8d 05 40 cc 00 00 	lea    0xcc40(%rip),%rax        # 1a038 <g_9>
    d3f8:	48 89 85 b0 fe ff ff 	mov    %rax,-0x150(%rbp)
    d3ff:	48 8d 05 32 cc 00 00 	lea    0xcc32(%rip),%rax        # 1a038 <g_9>
    d406:	48 89 85 b8 fe ff ff 	mov    %rax,-0x148(%rbp)
    d40d:	48 8d 05 24 cc 00 00 	lea    0xcc24(%rip),%rax        # 1a038 <g_9>
    d414:	48 89 85 c0 fe ff ff 	mov    %rax,-0x140(%rbp)
    d41b:	48 8d 05 16 cc 00 00 	lea    0xcc16(%rip),%rax        # 1a038 <g_9>
    d422:	48 89 85 c8 fe ff ff 	mov    %rax,-0x138(%rbp)
    d429:	48 8d 05 08 cc 00 00 	lea    0xcc08(%rip),%rax        # 1a038 <g_9>
    d430:	48 89 85 d0 fe ff ff 	mov    %rax,-0x130(%rbp)
    d437:	48 8d 05 fa cb 00 00 	lea    0xcbfa(%rip),%rax        # 1a038 <g_9>
    d43e:	48 89 85 d8 fe ff ff 	mov    %rax,-0x128(%rbp)
    d445:	48 8d 05 ec cb 00 00 	lea    0xcbec(%rip),%rax        # 1a038 <g_9>
    d44c:	48 89 85 e0 fe ff ff 	mov    %rax,-0x120(%rbp)
    d453:	c7 85 70 fe ff ff fc 	movl   $0xfffffffc,-0x190(%rbp)
    d45a:	ff ff ff 
    d45d:	c7 85 74 fe ff ff fc 	movl   $0xfffffffc,-0x18c(%rbp)
    d464:	ff ff ff 
    d467:	c7 85 78 fe ff ff 00 	movl   $0x0,-0x188(%rbp)
    d46e:	00 00 00 
    d471:	c7 85 7c fe ff ff fc 	movl   $0xfffffffc,-0x184(%rbp)
    d478:	ff ff ff 
    d47b:	c7 85 80 fe ff ff fc 	movl   $0xfffffffc,-0x180(%rbp)
    d482:	ff ff ff 
    d485:	c7 85 84 fe ff ff 00 	movl   $0x0,-0x17c(%rbp)
    d48c:	00 00 00 
    d48f:	c7 85 88 fe ff ff fc 	movl   $0xfffffffc,-0x178(%rbp)
    d496:	ff ff ff 
    d499:	c7 85 8c fe ff ff fc 	movl   $0xfffffffc,-0x174(%rbp)
    d4a0:	ff ff ff 
    d4a3:	c7 85 90 fe ff ff 00 	movl   $0x0,-0x170(%rbp)
    d4aa:	00 00 00 
    d4ad:	48 8d 05 2c 08 01 00 	lea    0x1082c(%rip),%rax        # 1dce0 <g_1220>
    d4b4:	48 89 85 68 fe ff ff 	mov    %rax,-0x198(%rbp)
    d4bb:	8b 85 b4 fd ff ff    	mov    -0x24c(%rbp),%eax
    d4c1:	44 0f b6 f8          	movzbl %al,%r15d
    d4c5:	8b 05 c5 cb 00 00    	mov    0xcbc5(%rip),%eax        # 1a090 <g_99>
    d4cb:	4c 63 e8             	movslq %eax,%r13
    d4ce:	4c 8b 25 33 07 01 00 	mov    0x10733(%rip),%r12        # 1dc08 <g_77>
    d4d5:	48 8b 85 00 fe ff ff 	mov    -0x200(%rbp),%rax
    d4dc:	48 8b 00             	mov    (%rax),%rax
    d4df:	8b 00                	mov    (%rax),%eax
    d4e1:	85 c0                	test   %eax,%eax
    d4e3:	75 25                	jne    d50a <func_23+0x344>
    d4e5:	48 8b 85 e0 fd ff ff 	mov    -0x220(%rbp),%rax
    d4ec:	8b 95 b4 fd ff ff    	mov    -0x24c(%rbp),%edx
    d4f2:	66 89 10             	mov    %dx,(%rax)
    d4f5:	0f b7 00             	movzwl (%rax),%eax
    d4f8:	98                   	cwtl   
    d4f9:	be 01 00 00 00       	mov    $0x1,%esi
    d4fe:	89 c7                	mov    %eax,%edi
    d500:	e8 f0 be ff ff       	callq  93f5 <safe_mul_func_int16_t_s_s>
    d505:	66 85 c0             	test   %ax,%ax
    d508:	74 07                	je     d511 <func_23+0x34b>
    d50a:	bb 01 00 00 00       	mov    $0x1,%ebx
    d50f:	eb 05                	jmp    d516 <func_23+0x350>
    d511:	bb 00 00 00 00       	mov    $0x0,%ebx
    d516:	0f b7 05 b9 cb 00 00 	movzwl 0xcbb9(%rip),%eax        # 1a0d6 <g_172+0x6>
    d51d:	89 c2                	mov    %eax,%edx
    d51f:	0f b6 05 12 cb 00 00 	movzbl 0xcb12(%rip),%eax        # 1a038 <g_9>
    d526:	09 d0                	or     %edx,%eax
    d528:	88 05 0a cb 00 00    	mov    %al,0xcb0a(%rip)        # 1a038 <g_9>
    d52e:	0f b6 05 03 cb 00 00 	movzbl 0xcb03(%rip),%eax        # 1a038 <g_9>
    d535:	0f be c0             	movsbl %al,%eax
    d538:	be 04 00 00 00       	mov    $0x4,%esi
    d53d:	89 c7                	mov    %eax,%edi
    d53f:	e8 5d bd ff ff       	callq  92a1 <safe_lshift_func_int8_t_s_s>
    d544:	0f be c0             	movsbl %al,%eax
    d547:	39 c3                	cmp    %eax,%ebx
    d549:	0f 95 c0             	setne  %al
    d54c:	0f b6 d0             	movzbl %al,%edx
    d54f:	48 8b 85 60 fe ff ff 	mov    -0x1a0(%rbp),%rax
    d556:	0f b6 00             	movzbl (%rax),%eax
    d559:	89 c1                	mov    %eax,%ecx
    d55b:	8b 85 b4 fd ff ff    	mov    -0x24c(%rbp),%eax
    d561:	21 c8                	and    %ecx,%eax
    d563:	89 c1                	mov    %eax,%ecx
    d565:	48 8b 85 60 fe ff ff 	mov    -0x1a0(%rbp),%rax
    d56c:	88 08                	mov    %cl,(%rax)
    d56e:	48 8b 85 60 fe ff ff 	mov    -0x1a0(%rbp),%rax
    d575:	0f b6 00             	movzbl (%rax),%eax
    d578:	0f be c0             	movsbl %al,%eax
    d57b:	89 d6                	mov    %edx,%esi
    d57d:	89 c7                	mov    %eax,%edi
    d57f:	e8 6e bc ff ff       	callq  91f2 <safe_sub_func_int8_t_s_s>
    d584:	89 c2                	mov    %eax,%edx
    d586:	48 8b 05 a3 ca 00 00 	mov    0xcaa3(%rip),%rax        # 1a030 <g_5>
    d58d:	09 d0                	or     %edx,%eax
    d58f:	0f be c0             	movsbl %al,%eax
    d592:	be 6f 00 00 00       	mov    $0x6f,%esi
    d597:	89 c7                	mov    %eax,%edi
    d599:	e8 74 bc ff ff       	callq  9212 <safe_mul_func_int8_t_s_s>
    d59e:	48 8b 85 00 fe ff ff 	mov    -0x200(%rbp),%rax
    d5a5:	48 8b 00             	mov    (%rax),%rax
    d5a8:	8b 00                	mov    (%rax),%eax
    d5aa:	85 c0                	test   %eax,%eax
    d5ac:	74 10                	je     d5be <func_23+0x3f8>
    d5ae:	83 bd b4 fd ff ff 00 	cmpl   $0x0,-0x24c(%rbp)
    d5b5:	74 07                	je     d5be <func_23+0x3f8>
    d5b7:	ba 01 00 00 00       	mov    $0x1,%edx
    d5bc:	eb 05                	jmp    d5c3 <func_23+0x3fd>
    d5be:	ba 00 00 00 00       	mov    $0x0,%edx
    d5c3:	8b 85 88 fe ff ff    	mov    -0x178(%rbp),%eax
    d5c9:	39 c2                	cmp    %eax,%edx
    d5cb:	0f 95 c0             	setne  %al
    d5ce:	44 0f b6 f0          	movzbl %al,%r14d
    d5d2:	8b 85 b4 fd ff ff    	mov    -0x24c(%rbp),%eax
    d5d8:	0f be c0             	movsbl %al,%eax
    d5db:	be 05 00 00 00       	mov    $0x5,%esi
    d5e0:	89 c7                	mov    %eax,%edi
    d5e2:	e8 07 bd ff ff       	callq  92ee <safe_lshift_func_int8_t_s_u>
    d5e7:	0f be c0             	movsbl %al,%eax
    d5ea:	48 8b 15 b7 dd 00 00 	mov    0xddb7(%rip),%rdx        # 1b3a8 <g_208>
    d5f1:	48 8b 1a             	mov    (%rdx),%rbx
    d5f4:	44 89 f6             	mov    %r14d,%esi
    d5f7:	89 c7                	mov    %eax,%edi
    d5f9:	e8 b8 bf ff ff       	callq  95b6 <safe_add_func_int32_t_s_s>
    d5fe:	89 03                	mov    %eax,(%rbx)
    d600:	8b 03                	mov    (%rbx),%eax
    d602:	89 85 70 fe ff ff    	mov    %eax,-0x190(%rbp)
    d608:	48 8b 05 f9 ee 00 00 	mov    0xeef9(%rip),%rax        # 1c508 <g_1266>
    d60f:	48 8b 00             	mov    (%rax),%rax
    d612:	48 8d 15 8f dd 00 00 	lea    0xdd8f(%rip),%rdx        # 1b3a8 <g_208>
    d619:	48 39 d0             	cmp    %rdx,%rax
    d61c:	48 8b 85 00 fe ff ff 	mov    -0x200(%rbp),%rax
    d623:	48 8b 00             	mov    (%rax),%rax
    d626:	8b 00                	mov    (%rax),%eax
    d628:	f7 d0                	not    %eax
    d62a:	c1 e8 1f             	shr    $0x1f,%eax
    d62d:	0f b6 d0             	movzbl %al,%edx
    d630:	48 8b 85 f8 fd ff ff 	mov    -0x208(%rbp),%rax
    d637:	89 10                	mov    %edx,(%rax)
    d639:	48 8b 85 f8 fd ff ff 	mov    -0x208(%rbp),%rax
    d640:	8b 00                	mov    (%rax),%eax
    d642:	48 8b 1d 5f dd 00 00 	mov    0xdd5f(%rip),%rbx        # 1b3a8 <g_208>
    d649:	48 8b 95 68 fe ff ff 	mov    -0x198(%rbp),%rdx
    d650:	45 89 f8             	mov    %r15d,%r8d
    d653:	48 89 d1             	mov    %rdx,%rcx
    d656:	4c 89 ea             	mov    %r13,%rdx
    d659:	4c 89 e6             	mov    %r12,%rsi
    d65c:	89 c7                	mov    %eax,%edi
    d65e:	e8 7b 81 00 00       	callq  157de <func_58>
    d663:	48 89 03             	mov    %rax,(%rbx)
    d666:	e9 9f 05 00 00       	jmpq   dc0a <func_23+0xa44>
    d66b:	c7 85 dc fd ff ff 00 	movl   $0x27bc4300,-0x224(%rbp)
    d672:	43 bc 27 
    d675:	66 c7 85 ca fd ff ff 	movw   $0xffff,-0x236(%rbp)
    d67c:	ff ff 
    d67e:	48 8d 05 5a ca 00 00 	lea    0xca5a(%rip),%rax        # 1a0df <g_290>
    d685:	48 89 85 18 fe ff ff 	mov    %rax,-0x1e8(%rbp)
    d68c:	48 c7 85 20 fe ff ff 	movq   $0x0,-0x1e0(%rbp)
    d693:	00 00 00 00 
    d697:	48 8d 05 38 ca 00 00 	lea    0xca38(%rip),%rax        # 1a0d6 <g_172+0x6>
    d69e:	48 89 85 28 fe ff ff 	mov    %rax,-0x1d8(%rbp)
    d6a5:	48 8d 05 ec c9 00 00 	lea    0xc9ec(%rip),%rax        # 1a098 <g_136>
    d6ac:	48 89 85 30 fe ff ff 	mov    %rax,-0x1d0(%rbp)
    d6b3:	48 8d 85 cc fd ff ff 	lea    -0x234(%rbp),%rax
    d6ba:	48 89 85 38 fe ff ff 	mov    %rax,-0x1c8(%rbp)
    d6c1:	48 8d 05 00 05 01 00 	lea    0x10500(%rip),%rax        # 1dbc8 <g_13>
    d6c8:	48 89 85 40 fe ff ff 	mov    %rax,-0x1c0(%rbp)
    d6cf:	48 8d 05 5a c9 00 00 	lea    0xc95a(%rip),%rax        # 1a030 <g_5>
    d6d6:	48 89 85 48 fe ff ff 	mov    %rax,-0x1b8(%rbp)
    d6dd:	48 c7 85 50 fe ff ff 	movq   $0xfffffffffffffff9,-0x1b0(%rbp)
    d6e4:	f9 ff ff ff 
    d6e8:	48 8d 85 d0 fd ff ff 	lea    -0x230(%rbp),%rax
    d6ef:	48 89 85 a0 fe ff ff 	mov    %rax,-0x160(%rbp)
    d6f6:	48 8d 85 cc fd ff ff 	lea    -0x234(%rbp),%rax
    d6fd:	48 89 85 a8 fe ff ff 	mov    %rax,-0x158(%rbp)
    d704:	48 8d 85 d4 fd ff ff 	lea    -0x22c(%rbp),%rax
    d70b:	48 89 85 b0 fe ff ff 	mov    %rax,-0x150(%rbp)
    d712:	48 8d 85 d0 fd ff ff 	lea    -0x230(%rbp),%rax
    d719:	48 89 85 b8 fe ff ff 	mov    %rax,-0x148(%rbp)
    d720:	48 8d 85 d0 fd ff ff 	lea    -0x230(%rbp),%rax
    d727:	48 89 85 c0 fe ff ff 	mov    %rax,-0x140(%rbp)
    d72e:	48 8d 85 cc fd ff ff 	lea    -0x234(%rbp),%rax
    d735:	48 89 85 c8 fe ff ff 	mov    %rax,-0x138(%rbp)
    d73c:	48 8d 85 cc fd ff ff 	lea    -0x234(%rbp),%rax
    d743:	48 89 85 d0 fe ff ff 	mov    %rax,-0x130(%rbp)
    d74a:	48 8d 85 d0 fd ff ff 	lea    -0x230(%rbp),%rax
    d751:	48 89 85 d8 fe ff ff 	mov    %rax,-0x128(%rbp)
    d758:	48 8d 85 d0 fd ff ff 	lea    -0x230(%rbp),%rax
    d75f:	48 89 85 e0 fe ff ff 	mov    %rax,-0x120(%rbp)
    d766:	48 8d 85 cc fd ff ff 	lea    -0x234(%rbp),%rax
    d76d:	48 89 85 e8 fe ff ff 	mov    %rax,-0x118(%rbp)
    d774:	48 8d 85 d4 fd ff ff 	lea    -0x22c(%rbp),%rax
    d77b:	48 89 85 f0 fe ff ff 	mov    %rax,-0x110(%rbp)
    d782:	48 8d 85 d0 fd ff ff 	lea    -0x230(%rbp),%rax
    d789:	48 89 85 f8 fe ff ff 	mov    %rax,-0x108(%rbp)
    d790:	48 8d 85 d0 fd ff ff 	lea    -0x230(%rbp),%rax
    d797:	48 89 85 00 ff ff ff 	mov    %rax,-0x100(%rbp)
    d79e:	48 8d 85 cc fd ff ff 	lea    -0x234(%rbp),%rax
    d7a5:	48 89 85 08 ff ff ff 	mov    %rax,-0xf8(%rbp)
    d7ac:	48 8d 85 cc fd ff ff 	lea    -0x234(%rbp),%rax
    d7b3:	48 89 85 10 ff ff ff 	mov    %rax,-0xf0(%rbp)
    d7ba:	48 8d 85 d0 fd ff ff 	lea    -0x230(%rbp),%rax
    d7c1:	48 89 85 18 ff ff ff 	mov    %rax,-0xe8(%rbp)
    d7c8:	48 8d 85 d0 fd ff ff 	lea    -0x230(%rbp),%rax
    d7cf:	48 89 85 20 ff ff ff 	mov    %rax,-0xe0(%rbp)
    d7d6:	48 8d 85 cc fd ff ff 	lea    -0x234(%rbp),%rax
    d7dd:	48 89 85 28 ff ff ff 	mov    %rax,-0xd8(%rbp)
    d7e4:	48 8d 85 d4 fd ff ff 	lea    -0x22c(%rbp),%rax
    d7eb:	48 89 85 30 ff ff ff 	mov    %rax,-0xd0(%rbp)
    d7f2:	48 8d 85 d0 fd ff ff 	lea    -0x230(%rbp),%rax
    d7f9:	48 89 85 38 ff ff ff 	mov    %rax,-0xc8(%rbp)
    d800:	48 8d 85 d0 fd ff ff 	lea    -0x230(%rbp),%rax
    d807:	48 89 85 40 ff ff ff 	mov    %rax,-0xc0(%rbp)
    d80e:	48 8d 85 cc fd ff ff 	lea    -0x234(%rbp),%rax
    d815:	48 89 85 48 ff ff ff 	mov    %rax,-0xb8(%rbp)
    d81c:	48 8d 85 cc fd ff ff 	lea    -0x234(%rbp),%rax
    d823:	48 89 85 50 ff ff ff 	mov    %rax,-0xb0(%rbp)
    d82a:	48 8d 85 d0 fd ff ff 	lea    -0x230(%rbp),%rax
    d831:	48 89 85 58 ff ff ff 	mov    %rax,-0xa8(%rbp)
    d838:	48 8d 85 d0 fd ff ff 	lea    -0x230(%rbp),%rax
    d83f:	48 89 85 60 ff ff ff 	mov    %rax,-0xa0(%rbp)
    d846:	48 8d 85 cc fd ff ff 	lea    -0x234(%rbp),%rax
    d84d:	48 89 85 68 ff ff ff 	mov    %rax,-0x98(%rbp)
    d854:	48 8d 85 d4 fd ff ff 	lea    -0x22c(%rbp),%rax
    d85b:	48 89 85 70 ff ff ff 	mov    %rax,-0x90(%rbp)
    d862:	48 8d 85 d0 fd ff ff 	lea    -0x230(%rbp),%rax
    d869:	48 89 85 78 ff ff ff 	mov    %rax,-0x88(%rbp)
    d870:	48 8d 85 d0 fd ff ff 	lea    -0x230(%rbp),%rax
    d877:	48 89 45 80          	mov    %rax,-0x80(%rbp)
    d87b:	48 8d 85 cc fd ff ff 	lea    -0x234(%rbp),%rax
    d882:	48 89 45 88          	mov    %rax,-0x78(%rbp)
    d886:	48 8d 85 cc fd ff ff 	lea    -0x234(%rbp),%rax
    d88d:	48 89 45 90          	mov    %rax,-0x70(%rbp)
    d891:	48 8d 85 d0 fd ff ff 	lea    -0x230(%rbp),%rax
    d898:	48 89 45 98          	mov    %rax,-0x68(%rbp)
    d89c:	48 8d 85 d0 fd ff ff 	lea    -0x230(%rbp),%rax
    d8a3:	48 89 45 a0          	mov    %rax,-0x60(%rbp)
    d8a7:	48 8d 85 cc fd ff ff 	lea    -0x234(%rbp),%rax
    d8ae:	48 89 45 a8          	mov    %rax,-0x58(%rbp)
    d8b2:	48 8d 85 d4 fd ff ff 	lea    -0x22c(%rbp),%rax
    d8b9:	48 89 45 b0          	mov    %rax,-0x50(%rbp)
    d8bd:	48 8d 85 d0 fd ff ff 	lea    -0x230(%rbp),%rax
    d8c4:	48 89 45 b8          	mov    %rax,-0x48(%rbp)
    d8c8:	48 8b 85 10 fe ff ff 	mov    -0x1f0(%rbp),%rax
    d8cf:	8b 00                	mov    (%rax),%eax
    d8d1:	44 0f b6 f0          	movzbl %al,%r14d
    d8d5:	8b 9d b4 fd ff ff    	mov    -0x24c(%rbp),%ebx
    d8db:	8b 85 b4 fd ff ff    	mov    -0x24c(%rbp),%eax
    d8e1:	44 0f b7 e0          	movzwl %ax,%r12d
    d8e5:	48 8b 85 f8 fd ff ff 	mov    -0x208(%rbp),%rax
    d8ec:	8b 00                	mov    (%rax),%eax
    d8ee:	8d 50 01             	lea    0x1(%rax),%edx
    d8f1:	48 8b 85 f8 fd ff ff 	mov    -0x208(%rbp),%rax
    d8f8:	89 10                	mov    %edx,(%rax)
    d8fa:	48 8b 85 f8 fd ff ff 	mov    -0x208(%rbp),%rax
    d901:	8b 00                	mov    (%rax),%eax
    d903:	85 c0                	test   %eax,%eax
    d905:	0f 84 a7 02 00 00    	je     dbb2 <func_23+0x9ec>
    d90b:	48 8b 85 08 fe ff ff 	mov    -0x1f8(%rbp),%rax
    d912:	41 89 c7             	mov    %eax,%r15d
    d915:	48 8b 85 00 fe ff ff 	mov    -0x200(%rbp),%rax
    d91c:	48 8b 00             	mov    (%rax),%rax
    d91f:	8b 00                	mov    (%rax),%eax
    d921:	39 85 dc fd ff ff    	cmp    %eax,-0x224(%rbp)
    d927:	48 8b 85 00 fe ff ff 	mov    -0x200(%rbp),%rax
    d92e:	48 8b 00             	mov    (%rax),%rax
    d931:	8b 00                	mov    (%rax),%eax
    d933:	44 0f b7 e8          	movzwl %ax,%r13d
    d937:	8b 85 dc fd ff ff    	mov    -0x224(%rbp),%eax
    d93d:	0b 85 b4 fd ff ff    	or     -0x24c(%rbp),%eax
    d943:	85 c0                	test   %eax,%eax
    d945:	0f 85 42 01 00 00    	jne    da8d <func_23+0x8c7>
    d94b:	48 8b 85 00 fe ff ff 	mov    -0x200(%rbp),%rax
    d952:	48 8b 00             	mov    (%rax),%rax
    d955:	8b 00                	mov    (%rax),%eax
    d957:	39 85 dc fd ff ff    	cmp    %eax,-0x224(%rbp)
    d95d:	0f 94 c0             	sete   %al
    d960:	0f b6 c0             	movzbl %al,%eax
    d963:	33 85 b4 fd ff ff    	xor    -0x24c(%rbp),%eax
    d969:	89 c2                	mov    %eax,%edx
    d96b:	48 8b 85 00 fe ff ff 	mov    -0x200(%rbp),%rax
    d972:	48 8b 00             	mov    (%rax),%rax
    d975:	8b 00                	mov    (%rax),%eax
    d977:	39 c2                	cmp    %eax,%edx
    d979:	0f 95 c0             	setne  %al
    d97c:	0f b6 d0             	movzbl %al,%edx
    d97f:	48 8b 85 00 fe ff ff 	mov    -0x200(%rbp),%rax
    d986:	48 8b 00             	mov    (%rax),%rax
    d989:	8b 00                	mov    (%rax),%eax
    d98b:	39 c2                	cmp    %eax,%edx
    d98d:	0f 9e c0             	setle  %al
    d990:	0f b6 c0             	movzbl %al,%eax
    d993:	be 5a a8 00 00       	mov    $0xa85a,%esi
    d998:	89 c7                	mov    %eax,%edi
    d99a:	e8 80 c3 ff ff       	callq  9d1f <safe_sub_func_uint16_t_u_u>
    d99f:	48 8b 15 52 eb 00 00 	mov    0xeb52(%rip),%rdx        # 1c4f8 <g_1106>
    d9a6:	48 8b 12             	mov    (%rdx),%rdx
    d9a9:	48 8b 12             	mov    (%rdx),%rdx
    d9ac:	09 d0                	or     %edx,%eax
    d9ae:	0f b7 c0             	movzwl %ax,%eax
    d9b1:	be 41 78 00 00       	mov    $0x7841,%esi
    d9b6:	89 c7                	mov    %eax,%edi
    d9b8:	e8 d1 c3 ff ff       	callq  9d8e <safe_div_func_uint16_t_u_u>
    d9bd:	89 c2                	mov    %eax,%edx
    d9bf:	48 8b 85 e0 fd ff ff 	mov    -0x220(%rbp),%rax
    d9c6:	66 89 10             	mov    %dx,(%rax)
    d9c9:	0f b7 00             	movzwl (%rax),%eax
    d9cc:	98                   	cwtl   
    d9cd:	39 85 b4 fd ff ff    	cmp    %eax,-0x24c(%rbp)
    d9d3:	72 0a                	jb     d9df <func_23+0x819>
    d9d5:	0f b7 85 ca fd ff ff 	movzwl -0x236(%rbp),%eax
    d9dc:	66 85 c0             	test   %ax,%ax
    d9df:	8b 95 b4 fd ff ff    	mov    -0x24c(%rbp),%edx
    d9e5:	48 8b 85 18 fe ff ff 	mov    -0x1e8(%rbp),%rax
    d9ec:	0f b6 00             	movzbl (%rax),%eax
    d9ef:	31 c2                	xor    %eax,%edx
    d9f1:	48 8b 85 18 fe ff ff 	mov    -0x1e8(%rbp),%rax
    d9f8:	88 10                	mov    %dl,(%rax)
    d9fa:	48 8b 85 18 fe ff ff 	mov    -0x1e8(%rbp),%rax
    da01:	0f b6 00             	movzbl (%rax),%eax
    da04:	0f b6 d0             	movzbl %al,%edx
    da07:	48 8b 85 00 fe ff ff 	mov    -0x200(%rbp),%rax
    da0e:	48 8b 00             	mov    (%rax),%rax
    da11:	8b 00                	mov    (%rax),%eax
    da13:	39 c2                	cmp    %eax,%edx
    da15:	0f 9c c0             	setl   %al
    da18:	0f b6 c0             	movzbl %al,%eax
    da1b:	48 89 05 fe c7 00 00 	mov    %rax,0xc7fe(%rip)        # 1a220 <g_1609>
    da22:	83 bd b4 fd ff ff 01 	cmpl   $0x1,-0x24c(%rbp)
    da29:	8b 85 dc fd ff ff    	mov    -0x224(%rbp),%eax
    da2f:	0f be d0             	movsbl %al,%edx
    da32:	48 8b 85 00 fe ff ff 	mov    -0x200(%rbp),%rax
    da39:	48 8b 00             	mov    (%rax),%rax
    da3c:	8b 00                	mov    (%rax),%eax
    da3e:	0f be c0             	movsbl %al,%eax
    da41:	89 d6                	mov    %edx,%esi
    da43:	89 c7                	mov    %eax,%edi
    da45:	e8 20 b8 ff ff       	callq  926a <safe_div_func_int8_t_s_s>
    da4a:	0f be c0             	movsbl %al,%eax
    da4d:	89 85 d8 fd ff ff    	mov    %eax,-0x228(%rbp)
    da53:	48 8b 05 76 eb 00 00 	mov    0xeb76(%rip),%rax        # 1c5d0 <g_1458>
    da5a:	48 8b 00             	mov    (%rax),%rax
    da5d:	48 8b 00             	mov    (%rax),%rax
    da60:	8b 00                	mov    (%rax),%eax
    da62:	23 85 d8 fd ff ff    	and    -0x228(%rbp),%eax
    da68:	89 c2                	mov    %eax,%edx
    da6a:	48 8b 85 00 fe ff ff 	mov    -0x200(%rbp),%rax
    da71:	48 8b 00             	mov    (%rax),%rax
    da74:	8b 00                	mov    (%rax),%eax
    da76:	0f be c0             	movsbl %al,%eax
    da79:	89 d6                	mov    %edx,%esi
    da7b:	89 c7                	mov    %eax,%edi
    da7d:	e8 ea b8 ff ff       	callq  936c <safe_rshift_func_int8_t_s_u>
    da82:	84 c0                	test   %al,%al
    da84:	75 07                	jne    da8d <func_23+0x8c7>
    da86:	b8 01 00 00 00       	mov    $0x1,%eax
    da8b:	eb 05                	jmp    da92 <func_23+0x8cc>
    da8d:	b8 00 00 00 00       	mov    $0x0,%eax
    da92:	48 98                	cltq   
    da94:	be 06 00 00 00       	mov    $0x6,%esi
    da99:	48 89 c7             	mov    %rax,%rdi
    da9c:	e8 a0 bd ff ff       	callq  9841 <safe_add_func_int64_t_s_s>
    daa1:	48 8b 95 28 fe ff ff 	mov    -0x1d8(%rbp),%rdx
    daa8:	0f b7 12             	movzwl (%rdx),%edx
    daab:	09 d0                	or     %edx,%eax
    daad:	89 c2                	mov    %eax,%edx
    daaf:	48 8b 85 28 fe ff ff 	mov    -0x1d8(%rbp),%rax
    dab6:	66 89 10             	mov    %dx,(%rax)
    dab9:	48 8b 85 28 fe ff ff 	mov    -0x1d8(%rbp),%rax
    dac0:	0f b7 00             	movzwl (%rax),%eax
    dac3:	0f b7 c0             	movzwl %ax,%eax
    dac6:	89 c7                	mov    %eax,%edi
    dac8:	e8 1c c2 ff ff       	callq  9ce9 <safe_unary_minus_func_uint16_t_u>
    dacd:	0f b7 c0             	movzwl %ax,%eax
    dad0:	39 85 b4 fd ff ff    	cmp    %eax,-0x24c(%rbp)
    dad6:	0f 96 c0             	setbe  %al
    dad9:	89 c2                	mov    %eax,%edx
    dadb:	48 8b 85 00 fe ff ff 	mov    -0x200(%rbp),%rax
    dae2:	48 8b 00             	mov    (%rax),%rax
    dae5:	8b 00                	mov    (%rax),%eax
    dae7:	31 d0                	xor    %edx,%eax
    dae9:	0f b6 c0             	movzbl %al,%eax
    daec:	be 01 00 00 00       	mov    $0x1,%esi
    daf1:	89 c7                	mov    %eax,%edi
    daf3:	e8 80 c0 ff ff       	callq  9b78 <safe_sub_func_uint8_t_u_u>
    daf8:	0f b6 d0             	movzbl %al,%edx
    dafb:	48 8b 85 00 fe ff ff 	mov    -0x200(%rbp),%rax
    db02:	48 8b 00             	mov    (%rax),%rax
    db05:	8b 00                	mov    (%rax),%eax
    db07:	31 d0                	xor    %edx,%eax
    db09:	3d 7f c0 4e 07       	cmp    $0x74ec07f,%eax
    db0e:	0f 9f c0             	setg   %al
    db11:	0f b6 c0             	movzbl %al,%eax
    db14:	44 89 ee             	mov    %r13d,%esi
    db17:	89 c7                	mov    %eax,%edi
    db19:	e8 1f c2 ff ff       	callq  9d3d <safe_mul_func_uint16_t_u_u>
    db1e:	8b 95 b4 fd ff ff    	mov    -0x24c(%rbp),%edx
    db24:	21 d0                	and    %edx,%eax
    db26:	89 c2                	mov    %eax,%edx
    db28:	48 8b 85 30 fe ff ff 	mov    -0x1d0(%rbp),%rax
    db2f:	66 89 10             	mov    %dx,(%rax)
    db32:	48 8b 95 e0 fd ff ff 	mov    -0x220(%rbp),%rdx
    db39:	48 8d 85 ca fd ff ff 	lea    -0x236(%rbp),%rax
    db40:	48 39 c2             	cmp    %rax,%rdx
    db43:	0f 95 c2             	setne  %dl
    db46:	48 8b 05 5b d8 00 00 	mov    0xd85b(%rip),%rax        # 1b3a8 <g_208>
    db4d:	48 8b 00             	mov    (%rax),%rax
    db50:	0f b6 d2             	movzbl %dl,%edx
    db53:	89 10                	mov    %edx,(%rax)
    db55:	8b 10                	mov    (%rax),%edx
    db57:	48 8b 85 38 fe ff ff 	mov    -0x1c8(%rbp),%rax
    db5e:	89 10                	mov    %edx,(%rax)
    db60:	48 8b 85 38 fe ff ff 	mov    -0x1c8(%rbp),%rax
    db67:	8b 00                	mov    (%rax),%eax
    db69:	44 89 fe             	mov    %r15d,%esi
    db6c:	89 c7                	mov    %eax,%edi
    db6e:	e8 92 ba ff ff       	callq  9605 <safe_sub_func_int32_t_s_s>
    db73:	48 8b 05 ce e9 00 00 	mov    0xe9ce(%rip),%rax        # 1c548 <g_1316>
    db7a:	48 8b 00             	mov    (%rax),%rax
    db7d:	48 39 85 40 fe ff ff 	cmp    %rax,-0x1c0(%rbp)
    db84:	0f 95 c0             	setne  %al
    db87:	0f b6 c0             	movzbl %al,%eax
    db8a:	0b 85 b4 fd ff ff    	or     -0x24c(%rbp),%eax
    db90:	89 c2                	mov    %eax,%edx
    db92:	0f b6 85 c8 fd ff ff 	movzbl -0x238(%rbp),%eax
    db99:	39 c2                	cmp    %eax,%edx
    db9b:	0f 92 c0             	setb   %al
    db9e:	0f b6 d0             	movzbl %al,%edx
    dba1:	8b 05 ed c4 00 00    	mov    0xc4ed(%rip),%eax        # 1a094 <g_100>
    dba7:	39 c2                	cmp    %eax,%edx
    dba9:	7d 07                	jge    dbb2 <func_23+0x9ec>
    dbab:	b8 01 00 00 00       	mov    $0x1,%eax
    dbb0:	eb 05                	jmp    dbb7 <func_23+0x9f1>
    dbb2:	b8 00 00 00 00       	mov    $0x0,%eax
    dbb7:	0f b7 c0             	movzwl %ax,%eax
    dbba:	44 89 e6             	mov    %r12d,%esi
    dbbd:	89 c7                	mov    %eax,%edi
    dbbf:	e8 79 c1 ff ff       	callq  9d3d <safe_mul_func_uint16_t_u_u>
    dbc4:	48 8b 05 05 ea 00 00 	mov    0xea05(%rip),%rax        # 1c5d0 <g_1458>
    dbcb:	4c 8b 20             	mov    (%rax),%r12
    dbce:	48 8b 95 10 fe ff ff 	mov    -0x1f0(%rbp),%rdx
    dbd5:	48 8b 85 40 fe ff ff 	mov    -0x1c0(%rbp),%rax
    dbdc:	45 89 f0             	mov    %r14d,%r8d
    dbdf:	48 89 d1             	mov    %rdx,%rcx
    dbe2:	48 89 da             	mov    %rbx,%rdx
    dbe5:	48 89 c6             	mov    %rax,%rsi
    dbe8:	bf 00 00 00 00       	mov    $0x0,%edi
    dbed:	e8 ec 7b 00 00       	callq  157de <func_58>
    dbf2:	49 89 04 24          	mov    %rax,(%r12)
    dbf6:	48 8b 05 7b ef 00 00 	mov    0xef7b(%rip),%rax        # 1cb78 <g_1627>
    dbfd:	48 8b 95 00 fe ff ff 	mov    -0x200(%rbp),%rdx
    dc04:	48 8b 12             	mov    (%rdx),%rdx
    dc07:	48 89 10             	mov    %rdx,(%rax)
    dc0a:	48 8b 85 b8 fd ff ff 	mov    -0x248(%rbp),%rax
    dc11:	48 8b 4d c8          	mov    -0x38(%rbp),%rcx
    dc15:	64 48 33 0c 25 28 00 	xor    %fs:0x28,%rcx
    dc1c:	00 00 
    dc1e:	74 05                	je     dc25 <func_23+0xa5f>
    dc20:	e8 4b b4 ff ff       	callq  9070 <__stack_chk_fail@plt>
    dc25:	48 81 c4 28 02 00 00 	add    $0x228,%rsp
    dc2c:	5b                   	pop    %rbx
    dc2d:	41 5c                	pop    %r12
    dc2f:	41 5d                	pop    %r13
    dc31:	41 5e                	pop    %r14
    dc33:	41 5f                	pop    %r15
    dc35:	5d                   	pop    %rbp
    dc36:	c3                   	retq   

000000000000dc37 <func_27>:
    dc37:	f3 0f 1e fa          	endbr64 
    dc3b:	55                   	push   %rbp
    dc3c:	48 89 e5             	mov    %rsp,%rbp
    dc3f:	41 57                	push   %r15
    dc41:	41 56                	push   %r14
    dc43:	41 55                	push   %r13
    dc45:	41 54                	push   %r12
    dc47:	53                   	push   %rbx
    dc48:	48 81 ec 00 10 00 00 	sub    $0x1000,%rsp
    dc4f:	48 83 0c 24 00       	orq    $0x0,(%rsp)
    dc54:	48 81 ec e8 00 00 00 	sub    $0xe8,%rsp
    dc5b:	48 89 bd 08 ef ff ff 	mov    %rdi,-0x10f8(%rbp)
    dc62:	48 89 b5 00 ef ff ff 	mov    %rsi,-0x1100(%rbp)
    dc69:	64 48 8b 04 25 28 00 	mov    %fs:0x28,%rax
    dc70:	00 00 
    dc72:	48 89 45 c8          	mov    %rax,-0x38(%rbp)
    dc76:	31 c0                	xor    %eax,%eax
    dc78:	48 c7 85 08 f0 ff ff 	movq   $0x1,-0xff8(%rbp)
    dc7f:	01 00 00 00 
    dc83:	48 b8 0e 7a e9 13 ba 	movabs $0x5e714aba13e97a0e,%rax
    dc8a:	4a 71 5e 
    dc8d:	48 89 85 a8 f0 ff ff 	mov    %rax,-0xf58(%rbp)
    dc94:	48 8d 05 2d ff 00 00 	lea    0xff2d(%rip),%rax        # 1dbc8 <g_13>
    dc9b:	48 89 85 d0 f2 ff ff 	mov    %rax,-0xd30(%rbp)
    dca2:	48 8d 05 1f ff 00 00 	lea    0xff1f(%rip),%rax        # 1dbc8 <g_13>
    dca9:	48 89 85 d8 f2 ff ff 	mov    %rax,-0xd28(%rbp)
    dcb0:	48 8d 05 11 ff 00 00 	lea    0xff11(%rip),%rax        # 1dbc8 <g_13>
    dcb7:	48 89 85 e0 f2 ff ff 	mov    %rax,-0xd20(%rbp)
    dcbe:	48 8d 05 03 ff 00 00 	lea    0xff03(%rip),%rax        # 1dbc8 <g_13>
    dcc5:	48 89 85 e8 f2 ff ff 	mov    %rax,-0xd18(%rbp)
    dccc:	48 8d 05 f5 fe 00 00 	lea    0xfef5(%rip),%rax        # 1dbc8 <g_13>
    dcd3:	48 89 85 f0 f2 ff ff 	mov    %rax,-0xd10(%rbp)
    dcda:	48 8d 05 e7 fe 00 00 	lea    0xfee7(%rip),%rax        # 1dbc8 <g_13>
    dce1:	48 89 85 f8 f2 ff ff 	mov    %rax,-0xd08(%rbp)
    dce8:	48 8d 05 d9 fe 00 00 	lea    0xfed9(%rip),%rax        # 1dbc8 <g_13>
    dcef:	48 89 85 00 f3 ff ff 	mov    %rax,-0xd00(%rbp)
    dcf6:	48 8d 05 cb fe 00 00 	lea    0xfecb(%rip),%rax        # 1dbc8 <g_13>
    dcfd:	48 89 85 08 f3 ff ff 	mov    %rax,-0xcf8(%rbp)
    dd04:	48 8d 05 bd fe 00 00 	lea    0xfebd(%rip),%rax        # 1dbc8 <g_13>
    dd0b:	48 89 85 10 f3 ff ff 	mov    %rax,-0xcf0(%rbp)
    dd12:	48 8d 05 af fe 00 00 	lea    0xfeaf(%rip),%rax        # 1dbc8 <g_13>
    dd19:	48 89 85 18 f3 ff ff 	mov    %rax,-0xce8(%rbp)
    dd20:	48 8d 05 a1 fe 00 00 	lea    0xfea1(%rip),%rax        # 1dbc8 <g_13>
    dd27:	48 89 85 20 f3 ff ff 	mov    %rax,-0xce0(%rbp)
    dd2e:	48 8d 05 93 fe 00 00 	lea    0xfe93(%rip),%rax        # 1dbc8 <g_13>
    dd35:	48 89 85 28 f3 ff ff 	mov    %rax,-0xcd8(%rbp)
    dd3c:	48 8d 05 85 fe 00 00 	lea    0xfe85(%rip),%rax        # 1dbc8 <g_13>
    dd43:	48 89 85 30 f3 ff ff 	mov    %rax,-0xcd0(%rbp)
    dd4a:	48 8d 05 77 fe 00 00 	lea    0xfe77(%rip),%rax        # 1dbc8 <g_13>
    dd51:	48 89 85 38 f3 ff ff 	mov    %rax,-0xcc8(%rbp)
    dd58:	48 8d 05 d9 c2 00 00 	lea    0xc2d9(%rip),%rax        # 1a038 <g_9>
    dd5f:	48 89 85 a0 f0 ff ff 	mov    %rax,-0xf60(%rbp)
    dd66:	66 c7 85 40 f3 ff ff 	movw   $0xceab,-0xcc0(%rbp)
    dd6d:	ab ce 
    dd6f:	66 c7 85 42 f3 ff ff 	movw   $0x3,-0xcbe(%rbp)
    dd76:	03 00 
    dd78:	66 c7 85 44 f3 ff ff 	movw   $0xc63f,-0xcbc(%rbp)
    dd7f:	3f c6 
    dd81:	66 c7 85 46 f3 ff ff 	movw   $0xfff9,-0xcba(%rbp)
    dd88:	f9 ff 
    dd8a:	66 c7 85 48 f3 ff ff 	movw   $0x870,-0xcb8(%rbp)
    dd91:	70 08 
    dd93:	66 c7 85 4a f3 ff ff 	movw   $0xe33e,-0xcb6(%rbp)
    dd9a:	3e e3 
    dd9c:	66 c7 85 4c f3 ff ff 	movw   $0xdc71,-0xcb4(%rbp)
    dda3:	71 dc 
    dda5:	66 c7 85 4e f3 ff ff 	movw   $0xfff9,-0xcb2(%rbp)
    ddac:	f9 ff 
    ddae:	66 c7 85 50 f3 ff ff 	movw   $0xfffc,-0xcb0(%rbp)
    ddb5:	fc ff 
    ddb7:	66 c7 85 52 f3 ff ff 	movw   $0x3,-0xcae(%rbp)
    ddbe:	03 00 
    ddc0:	66 c7 85 54 f3 ff ff 	movw   $0x4aa2,-0xcac(%rbp)
    ddc7:	a2 4a 
    ddc9:	66 c7 85 56 f3 ff ff 	movw   $0xf87d,-0xcaa(%rbp)
    ddd0:	7d f8 
    ddd2:	66 c7 85 58 f3 ff ff 	movw   $0xa3cb,-0xca8(%rbp)
    ddd9:	cb a3 
    dddb:	66 c7 85 5a f3 ff ff 	movw   $0xfffc,-0xca6(%rbp)
    dde2:	fc ff 
    dde4:	66 c7 85 5c f3 ff ff 	movw   $0xa3cb,-0xca4(%rbp)
    ddeb:	cb a3 
    dded:	66 c7 85 5e f3 ff ff 	movw   $0x4,-0xca2(%rbp)
    ddf4:	04 00 
    ddf6:	66 c7 85 60 f3 ff ff 	movw   $0xdc71,-0xca0(%rbp)
    ddfd:	71 dc 
    ddff:	66 c7 85 62 f3 ff ff 	movw   $0x8f10,-0xc9e(%rbp)
    de06:	10 8f 
    de08:	66 c7 85 64 f3 ff ff 	movw   $0xffff,-0xc9c(%rbp)
    de0f:	ff ff 
    de11:	66 c7 85 66 f3 ff ff 	movw   $0x3,-0xc9a(%rbp)
    de18:	03 00 
    de1a:	66 c7 85 68 f3 ff ff 	movw   $0xfff9,-0xc98(%rbp)
    de21:	f9 ff 
    de23:	66 c7 85 6a f3 ff ff 	movw   $0xa3cb,-0xc96(%rbp)
    de2a:	cb a3 
    de2c:	66 c7 85 6c f3 ff ff 	movw   $0xf87d,-0xc94(%rbp)
    de33:	7d f8 
    de35:	66 c7 85 6e f3 ff ff 	movw   $0x8f10,-0xc92(%rbp)
    de3c:	10 8f 
    de3e:	66 c7 85 70 f3 ff ff 	movw   $0x1d73,-0xc90(%rbp)
    de45:	73 1d 
    de47:	66 c7 85 72 f3 ff ff 	movw   $0x3aa6,-0xc8e(%rbp)
    de4e:	a6 3a 
    de50:	66 c7 85 74 f3 ff ff 	movw   $0xf87d,-0xc8c(%rbp)
    de57:	7d f8 
    de59:	66 c7 85 76 f3 ff ff 	movw   $0xe33e,-0xc8a(%rbp)
    de60:	3e e3 
    de62:	66 c7 85 78 f3 ff ff 	movw   $0xfff9,-0xc88(%rbp)
    de69:	f9 ff 
    de6b:	66 c7 85 7a f3 ff ff 	movw   $0x5ea0,-0xc86(%rbp)
    de72:	a0 5e 
    de74:	66 c7 85 7c f3 ff ff 	movw   $0xffff,-0xc84(%rbp)
    de7b:	ff ff 
    de7d:	66 c7 85 7e f3 ff ff 	movw   $0xffff,-0xc82(%rbp)
    de84:	ff ff 
    de86:	66 c7 85 80 f3 ff ff 	movw   $0xdc71,-0xc80(%rbp)
    de8d:	71 dc 
    de8f:	66 c7 85 82 f3 ff ff 	movw   $0xdc71,-0xc7e(%rbp)
    de96:	71 dc 
    de98:	66 c7 85 84 f3 ff ff 	movw   $0xa3cb,-0xc7c(%rbp)
    de9f:	cb a3 
    dea1:	66 c7 85 86 f3 ff ff 	movw   $0x8f10,-0xc7a(%rbp)
    dea8:	10 8f 
    deaa:	66 c7 85 88 f3 ff ff 	movw   $0x6e18,-0xc78(%rbp)
    deb1:	18 6e 
    deb3:	66 c7 85 8a f3 ff ff 	movw   $0x8f10,-0xc76(%rbp)
    deba:	10 8f 
    debc:	66 c7 85 8c f3 ff ff 	movw   $0xceab,-0xc74(%rbp)
    dec3:	ab ce 
    dec5:	66 c7 85 8e f3 ff ff 	movw   $0x3aa6,-0xc72(%rbp)
    decc:	a6 3a 
    dece:	66 c7 85 90 f3 ff ff 	movw   $0x3aa6,-0xc70(%rbp)
    ded5:	a6 3a 
    ded7:	66 c7 85 92 f3 ff ff 	movw   $0x1d73,-0xc6e(%rbp)
    dede:	73 1d 
    dee0:	66 c7 85 94 f3 ff ff 	movw   $0x870,-0xc6c(%rbp)
    dee7:	70 08 
    dee9:	66 c7 85 96 f3 ff ff 	movw   $0xceab,-0xc6a(%rbp)
    def0:	ab ce 
    def2:	66 c7 85 98 f3 ff ff 	movw   $0xaeab,-0xc68(%rbp)
    def9:	ab ae 
    defb:	66 c7 85 9a f3 ff ff 	movw   $0x1d73,-0xc66(%rbp)
    df02:	73 1d 
    df04:	66 c7 85 9c f3 ff ff 	movw   $0xfffc,-0xc64(%rbp)
    df0b:	fc ff 
    df0d:	66 c7 85 9e f3 ff ff 	movw   $0x3aa6,-0xc62(%rbp)
    df14:	a6 3a 
    df16:	66 c7 85 a0 f3 ff ff 	movw   $0x1d73,-0xc60(%rbp)
    df1d:	73 1d 
    df1f:	66 c7 85 a2 f3 ff ff 	movw   $0x8f10,-0xc5e(%rbp)
    df26:	10 8f 
    df28:	66 c7 85 a4 f3 ff ff 	movw   $0xa3cb,-0xc5c(%rbp)
    df2f:	cb a3 
    df31:	66 c7 85 a6 f3 ff ff 	movw   $0x8f10,-0xc5a(%rbp)
    df38:	10 8f 
    df3a:	66 c7 85 a8 f3 ff ff 	movw   $0x3,-0xc58(%rbp)
    df41:	03 00 
    df43:	66 c7 85 aa f3 ff ff 	movw   $0x870,-0xc56(%rbp)
    df4a:	70 08 
    df4c:	66 c7 85 ac f3 ff ff 	movw   $0xdc71,-0xc54(%rbp)
    df53:	71 dc 
    df55:	66 c7 85 ae f3 ff ff 	movw   $0x4,-0xc52(%rbp)
    df5c:	04 00 
    df5e:	66 c7 85 b0 f3 ff ff 	movw   $0xa3cb,-0xc50(%rbp)
    df65:	cb a3 
    df67:	66 c7 85 b2 f3 ff ff 	movw   $0xe33e,-0xc4e(%rbp)
    df6e:	3e e3 
    df70:	66 c7 85 b4 f3 ff ff 	movw   $0xfff9,-0xc4c(%rbp)
    df77:	f9 ff 
    df79:	66 c7 85 b6 f3 ff ff 	movw   $0xc63f,-0xc4a(%rbp)
    df80:	3f c6 
    df82:	c7 85 28 ef ff ff ff 	movl   $0xffffffff,-0x10d8(%rbp)
    df89:	ff ff ff 
    df8c:	c7 85 70 ef ff ff db 	movl   $0x351932db,-0x1090(%rbp)
    df93:	32 19 35 
    df96:	66 c7 85 34 f1 ff ff 	movw   $0x89f9,-0xecc(%rbp)
    df9d:	f9 89 
    df9f:	66 c7 85 36 f1 ff ff 	movw   $0x1,-0xeca(%rbp)
    dfa6:	01 00 
    dfa8:	66 c7 85 38 f1 ff ff 	movw   $0x89f9,-0xec8(%rbp)
    dfaf:	f9 89 
    dfb1:	66 c7 85 3a f1 ff ff 	movw   $0x89f9,-0xec6(%rbp)
    dfb8:	f9 89 
    dfba:	66 c7 85 3c f1 ff ff 	movw   $0x1,-0xec4(%rbp)
    dfc1:	01 00 
    dfc3:	66 c7 85 3e f1 ff ff 	movw   $0x89f9,-0xec2(%rbp)
    dfca:	f9 89 
    dfcc:	c6 85 21 ef ff ff 01 	movb   $0x1,-0x10df(%rbp)
    dfd3:	c6 85 1e ef ff ff 01 	movb   $0x1,-0x10e2(%rbp)
    dfda:	48 8d 05 8f d4 00 00 	lea    0xd48f(%rip),%rax        # 1b470 <g_491>
    dfe1:	48 89 85 a0 ef ff ff 	mov    %rax,-0x1060(%rbp)
    dfe8:	48 c7 85 a8 ef ff ff 	movq   $0x0,-0x1058(%rbp)
    dfef:	00 00 00 00 
    dff3:	48 8d 85 a8 ef ff ff 	lea    -0x1058(%rbp),%rax
    dffa:	48 89 85 b0 ef ff ff 	mov    %rax,-0x1050(%rbp)
    e001:	48 8d 85 b0 ef ff ff 	lea    -0x1050(%rbp),%rax
    e008:	48 89 85 b8 ef ff ff 	mov    %rax,-0x1048(%rbp)
    e00f:	48 8d 85 b8 ef ff ff 	lea    -0x1048(%rbp),%rax
    e016:	48 89 85 c0 ef ff ff 	mov    %rax,-0x1040(%rbp)
    e01d:	c7 85 2c ef ff ff 01 	movl   $0x1,-0x10d4(%rbp)
    e024:	00 00 00 
    e027:	48 c7 85 98 f0 ff ff 	movq   $0x0,-0xf68(%rbp)
    e02e:	00 00 00 00 
    e032:	48 8d 85 b0 ef ff ff 	lea    -0x1050(%rbp),%rax
    e039:	48 89 85 c8 ef ff ff 	mov    %rax,-0x1038(%rbp)
    e040:	c7 85 74 ef ff ff e1 	movl   $0x5e7b5ee1,-0x108c(%rbp)
    e047:	5e 7b 5e 
    e04a:	c6 85 22 ef ff ff 01 	movb   $0x1,-0x10de(%rbp)
    e051:	c6 85 23 ef ff ff f9 	movb   $0xf9,-0x10dd(%rbp)
    e058:	c7 85 6c ef ff ff 00 	movl   $0x0,-0x1094(%rbp)
    e05f:	00 00 00 
    e062:	eb 1a                	jmp    e07e <func_27+0x447>
    e064:	8b 85 6c ef ff ff    	mov    -0x1094(%rbp),%eax
    e06a:	48 98                	cltq   
    e06c:	c7 84 85 2c f1 ff ff 	movl   $0x5,-0xed4(%rbp,%rax,4)
    e073:	05 00 00 00 
    e077:	83 85 6c ef ff ff 01 	addl   $0x1,-0x1094(%rbp)
    e07e:	83 bd 6c ef ff ff 01 	cmpl   $0x1,-0x1094(%rbp)
    e085:	7e dd                	jle    e064 <func_27+0x42d>
    e087:	c7 85 6c ef ff ff 00 	movl   $0x0,-0x1094(%rbp)
    e08e:	00 00 00 
    e091:	eb 1e                	jmp    e0b1 <func_27+0x47a>
    e093:	8b 85 6c ef ff ff    	mov    -0x1094(%rbp),%eax
    e099:	48 98                	cltq   
    e09b:	48 8d 95 c0 ef ff ff 	lea    -0x1040(%rbp),%rdx
    e0a2:	48 89 94 c5 30 f2 ff 	mov    %rdx,-0xdd0(%rbp,%rax,8)
    e0a9:	ff 
    e0aa:	83 85 6c ef ff ff 01 	addl   $0x1,-0x1094(%rbp)
    e0b1:	83 bd 6c ef ff ff 09 	cmpl   $0x9,-0x1094(%rbp)
    e0b8:	7e d9                	jle    e093 <func_27+0x45c>
    e0ba:	c6 05 77 bf 00 00 00 	movb   $0x0,0xbf77(%rip)        # 1a038 <g_9>
    e0c1:	e9 f7 1b 00 00       	jmpq   fcbd <func_27+0x2086>
    e0c6:	48 b8 16 e1 d7 89 c4 	movabs $0xce2f32c489d7e116,%rax
    e0cd:	32 2f ce 
    e0d0:	48 89 85 d0 ef ff ff 	mov    %rax,-0x1030(%rbp)
    e0d7:	c7 85 68 ef ff ff 9a 	movl   $0xaf1689a,-0x1098(%rbp)
    e0de:	68 f1 0a 
    e0e1:	c7 85 60 f1 ff ff 9f 	movl   $0x1a653c9f,-0xea0(%rbp)
    e0e8:	3c 65 1a 
    e0eb:	c7 85 64 f1 ff ff 9f 	movl   $0x1a653c9f,-0xe9c(%rbp)
    e0f2:	3c 65 1a 
    e0f5:	c7 85 68 f1 ff ff 9f 	movl   $0x1a653c9f,-0xe98(%rbp)
    e0fc:	3c 65 1a 
    e0ff:	c7 85 6c f1 ff ff 9f 	movl   $0x1a653c9f,-0xe94(%rbp)
    e106:	3c 65 1a 
    e109:	c7 85 70 f1 ff ff 9f 	movl   $0x1a653c9f,-0xe90(%rbp)
    e110:	3c 65 1a 
    e113:	c7 85 74 f1 ff ff 9f 	movl   $0x1a653c9f,-0xe8c(%rbp)
    e11a:	3c 65 1a 
    e11d:	c7 85 78 f1 ff ff 9f 	movl   $0x1a653c9f,-0xe88(%rbp)
    e124:	3c 65 1a 
    e127:	c7 85 7c f1 ff ff 9f 	movl   $0x1a653c9f,-0xe84(%rbp)
    e12e:	3c 65 1a 
    e131:	c7 85 80 f1 ff ff 9f 	movl   $0x1a653c9f,-0xe80(%rbp)
    e138:	3c 65 1a 
    e13b:	c7 85 84 f1 ff ff 9f 	movl   $0x1a653c9f,-0xe7c(%rbp)
    e142:	3c 65 1a 
    e145:	c7 85 30 ef ff ff ff 	movl   $0xffffffff,-0x10d0(%rbp)
    e14c:	ff ff ff 
    e14f:	48 c7 85 78 f0 ff ff 	movq   $0x9,-0xf88(%rbp)
    e156:	09 00 00 00 
    e15a:	48 c7 85 d8 ef ff ff 	movq   $0xffffffffffffffff,-0x1028(%rbp)
    e161:	ff ff ff ff 
    e165:	48 8d 05 80 c0 00 00 	lea    0xc080(%rip),%rax        # 1a1ec <g_378+0xec>
    e16c:	48 89 85 e0 ef ff ff 	mov    %rax,-0x1020(%rbp)
    e173:	48 c7 85 80 f0 ff ff 	movq   $0xfffffffffffffffa,-0xf80(%rbp)
    e17a:	fa ff ff ff 
    e17e:	48 8d 05 eb d2 00 00 	lea    0xd2eb(%rip),%rax        # 1b470 <g_491>
    e185:	48 89 85 88 f0 ff ff 	mov    %rax,-0xf78(%rbp)
    e18c:	48 c7 85 90 f0 ff ff 	movq   $0x0,-0xf70(%rbp)
    e193:	00 00 00 00 
    e197:	48 8d 05 92 be 00 00 	lea    0xbe92(%rip),%rax        # 1a030 <g_5>
    e19e:	48 89 85 f0 f1 ff ff 	mov    %rax,-0xe10(%rbp)
    e1a5:	48 8d 05 84 be 00 00 	lea    0xbe84(%rip),%rax        # 1a030 <g_5>
    e1ac:	48 89 85 f8 f1 ff ff 	mov    %rax,-0xe08(%rbp)
    e1b3:	48 8d 05 76 be 00 00 	lea    0xbe76(%rip),%rax        # 1a030 <g_5>
    e1ba:	48 89 85 00 f2 ff ff 	mov    %rax,-0xe00(%rbp)
    e1c1:	48 8d 05 68 be 00 00 	lea    0xbe68(%rip),%rax        # 1a030 <g_5>
    e1c8:	48 89 85 08 f2 ff ff 	mov    %rax,-0xdf8(%rbp)
    e1cf:	48 8d 05 5a be 00 00 	lea    0xbe5a(%rip),%rax        # 1a030 <g_5>
    e1d6:	48 89 85 10 f2 ff ff 	mov    %rax,-0xdf0(%rbp)
    e1dd:	48 8d 05 4c be 00 00 	lea    0xbe4c(%rip),%rax        # 1a030 <g_5>
    e1e4:	48 89 85 18 f2 ff ff 	mov    %rax,-0xde8(%rbp)
    e1eb:	48 8d 05 3e be 00 00 	lea    0xbe3e(%rip),%rax        # 1a030 <g_5>
    e1f2:	48 89 85 20 f2 ff ff 	mov    %rax,-0xde0(%rbp)
    e1f9:	48 8d 05 30 be 00 00 	lea    0xbe30(%rip),%rax        # 1a030 <g_5>
    e200:	48 89 85 28 f2 ff ff 	mov    %rax,-0xdd8(%rbp)
    e207:	48 8d 85 f0 f1 ff ff 	lea    -0xe10(%rbp),%rax
    e20e:	48 83 c0 18          	add    $0x18,%rax
    e212:	48 89 85 e8 ef ff ff 	mov    %rax,-0x1018(%rbp)
    e219:	48 c7 85 f0 ef ff ff 	movq   $0x0,-0x1010(%rbp)
    e220:	00 00 00 00 
    e224:	48 8d 85 f0 ef ff ff 	lea    -0x1010(%rbp),%rax
    e22b:	48 89 85 58 f0 ff ff 	mov    %rax,-0xfa8(%rbp)
    e232:	48 c7 85 f8 ef ff ff 	movq   $0x0,-0x1008(%rbp)
    e239:	00 00 00 00 
    e23d:	48 8d 85 40 f5 ff ff 	lea    -0xac0(%rbp),%rax
    e244:	48 8d 15 75 c6 00 00 	lea    0xc675(%rip),%rdx        # 1a8c0 <g_2296+0x620>
    e24b:	b9 2a 00 00 00       	mov    $0x2a,%ecx
    e250:	48 89 c7             	mov    %rax,%rdi
    e253:	48 89 d6             	mov    %rdx,%rsi
    e256:	f3 48 a5             	rep movsq %ds:(%rsi),%es:(%rdi)
    e259:	48 8d 85 b0 ef ff ff 	lea    -0x1050(%rbp),%rax
    e260:	48 89 85 60 f0 ff ff 	mov    %rax,-0xfa0(%rbp)
    e267:	48 8d 05 d2 e7 00 00 	lea    0xe7d2(%rip),%rax        # 1ca40 <g_1465>
    e26e:	48 89 85 68 f0 ff ff 	mov    %rax,-0xf98(%rbp)
    e275:	c7 85 90 f1 ff ff ff 	movl   $0xffffffff,-0xe70(%rbp)
    e27c:	ff ff ff 
    e27f:	c7 85 94 f1 ff ff fe 	movl   $0xfffffffe,-0xe6c(%rbp)
    e286:	ff ff ff 
    e289:	c7 85 98 f1 ff ff ff 	movl   $0xffffffff,-0xe68(%rbp)
    e290:	ff ff ff 
    e293:	c7 85 9c f1 ff ff 08 	movl   $0x8,-0xe64(%rbp)
    e29a:	00 00 00 
    e29d:	c7 85 a0 f1 ff ff 08 	movl   $0x8,-0xe60(%rbp)
    e2a4:	00 00 00 
    e2a7:	c7 85 a4 f1 ff ff ff 	movl   $0xffffffff,-0xe5c(%rbp)
    e2ae:	ff ff ff 
    e2b1:	c7 85 a8 f1 ff ff fe 	movl   $0xfffffffe,-0xe58(%rbp)
    e2b8:	ff ff ff 
    e2bb:	c7 85 ac f1 ff ff ff 	movl   $0xffffffff,-0xe54(%rbp)
    e2c2:	ff ff ff 
    e2c5:	c7 85 b0 f1 ff ff 08 	movl   $0x8,-0xe50(%rbp)
    e2cc:	00 00 00 
    e2cf:	c7 85 b4 f1 ff ff 08 	movl   $0x8,-0xe4c(%rbp)
    e2d6:	00 00 00 
    e2d9:	48 8d 05 40 f9 00 00 	lea    0xf940(%rip),%rax        # 1dc20 <g_272>
    e2e0:	48 89 85 70 f0 ff ff 	mov    %rax,-0xf90(%rbp)
    e2e7:	c7 85 64 ef ff ff 07 	movl   $0x7,-0x109c(%rbp)
    e2ee:	00 00 00 
    e2f1:	48 c7 85 c0 f3 ff ff 	movq   $0x4,-0xc40(%rbp)
    e2f8:	04 00 00 00 
    e2fc:	48 c7 85 c8 f3 ff ff 	movq   $0xfffffffffffffff7,-0xc38(%rbp)
    e303:	f7 ff ff ff 
    e307:	48 c7 85 d0 f3 ff ff 	movq   $0x4,-0xc30(%rbp)
    e30e:	04 00 00 00 
    e312:	48 c7 85 d8 f3 ff ff 	movq   $0x4,-0xc28(%rbp)
    e319:	04 00 00 00 
    e31d:	48 c7 85 e0 f3 ff ff 	movq   $0xfffffffffffffff7,-0xc20(%rbp)
    e324:	f7 ff ff ff 
    e328:	48 c7 85 e8 f3 ff ff 	movq   $0x4,-0xc18(%rbp)
    e32f:	04 00 00 00 
    e333:	48 c7 85 f0 f3 ff ff 	movq   $0xfffffffffffffffe,-0xc10(%rbp)
    e33a:	fe ff ff ff 
    e33e:	48 c7 85 f8 f3 ff ff 	movq   $0x4,-0xc08(%rbp)
    e345:	04 00 00 00 
    e349:	48 c7 85 00 f4 ff ff 	movq   $0x4,-0xc00(%rbp)
    e350:	04 00 00 00 
    e354:	48 c7 85 08 f4 ff ff 	movq   $0x4,-0xbf8(%rbp)
    e35b:	04 00 00 00 
    e35f:	48 c7 85 10 f4 ff ff 	movq   $0x4,-0xbf0(%rbp)
    e366:	04 00 00 00 
    e36a:	48 c7 85 18 f4 ff ff 	movq   $0x4,-0xbe8(%rbp)
    e371:	04 00 00 00 
    e375:	48 c7 85 20 f4 ff ff 	movq   $0x1,-0xbe0(%rbp)
    e37c:	01 00 00 00 
    e380:	48 c7 85 28 f4 ff ff 	movq   $0xfffffffffffffff7,-0xbd8(%rbp)
    e387:	f7 ff ff ff 
    e38b:	48 b8 7d ca 6b 54 9f 	movabs $0x8156819f546bca7d,%rax
    e392:	81 56 81 
    e395:	48 89 85 30 f4 ff ff 	mov    %rax,-0xbd0(%rbp)
    e39c:	48 c7 85 38 f4 ff ff 	movq   $0x4,-0xbc8(%rbp)
    e3a3:	04 00 00 00 
    e3a7:	48 89 85 40 f4 ff ff 	mov    %rax,-0xbc0(%rbp)
    e3ae:	48 c7 85 48 f4 ff ff 	movq   $0x4,-0xbb8(%rbp)
    e3b5:	04 00 00 00 
    e3b9:	48 c7 85 50 f4 ff ff 	movq   $0x4,-0xbb0(%rbp)
    e3c0:	04 00 00 00 
    e3c4:	48 89 85 58 f4 ff ff 	mov    %rax,-0xba8(%rbp)
    e3cb:	c7 85 60 ef ff ff 00 	movl   $0x0,-0x10a0(%rbp)
    e3d2:	00 00 00 
    e3d5:	eb 1a                	jmp    e3f1 <func_27+0x7ba>
    e3d7:	8b 85 60 ef ff ff    	mov    -0x10a0(%rbp),%eax
    e3dd:	48 98                	cltq   
    e3df:	c7 84 85 40 f1 ff ff 	movl   $0x3,-0xec0(%rbp,%rax,4)
    e3e6:	03 00 00 00 
    e3ea:	83 85 60 ef ff ff 01 	addl   $0x1,-0x10a0(%rbp)
    e3f1:	83 bd 60 ef ff ff 06 	cmpl   $0x6,-0x10a0(%rbp)
    e3f8:	7e dd                	jle    e3d7 <func_27+0x7a0>
    e3fa:	48 c7 05 2b bc 00 00 	movq   $0x0,0xbc2b(%rip)        # 1a030 <g_5>
    e401:	00 00 00 00 
    e405:	e9 f4 00 00 00       	jmpq   e4fe <func_27+0x8c7>
    e40a:	48 b8 e7 c4 07 d9 0b 	movabs $0xba928f0bd907c4e7,%rax
    e411:	8f 92 ba 
    e414:	48 89 85 18 f1 ff ff 	mov    %rax,-0xee8(%rbp)
    e41b:	c7 85 98 ef ff ff 48 	movl   $0x7e871b48,-0x1068(%rbp)
    e422:	1b 87 7e 
    e425:	c7 85 9c ef ff ff 87 	movl   $0xcfd96b87,-0x1064(%rbp)
    e42c:	6b d9 cf 
    e42f:	c7 85 40 f8 ff ff 4c 	movl   $0x8323f44c,-0x7c0(%rbp)
    e436:	f4 23 83 
    e439:	c7 85 44 f8 ff ff b4 	movl   $0xd2d096b4,-0x7bc(%rbp)
    e440:	96 d0 d2 
    e443:	c7 85 48 f8 ff ff b4 	movl   $0xd2d096b4,-0x7b8(%rbp)
    e44a:	96 d0 d2 
    e44d:	c7 85 4c f8 ff ff 4c 	movl   $0x8323f44c,-0x7b4(%rbp)
    e454:	f4 23 83 
    e457:	c7 85 50 f8 ff ff b4 	movl   $0xd2d096b4,-0x7b0(%rbp)
    e45e:	96 d0 d2 
    e461:	c7 85 54 f8 ff ff b4 	movl   $0xd2d096b4,-0x7ac(%rbp)
    e468:	96 d0 d2 
    e46b:	c7 85 58 f8 ff ff 4c 	movl   $0x8323f44c,-0x7a8(%rbp)
    e472:	f4 23 83 
    e475:	c7 85 5c f8 ff ff b4 	movl   $0xd2d096b4,-0x7a4(%rbp)
    e47c:	96 d0 d2 
    e47f:	c7 85 60 f8 ff ff b4 	movl   $0xd2d096b4,-0x7a0(%rbp)
    e486:	96 d0 d2 
    e489:	c7 85 64 f8 ff ff 4c 	movl   $0x8323f44c,-0x79c(%rbp)
    e490:	f4 23 83 
    e493:	48 8d 05 76 bd 00 00 	lea    0xbd76(%rip),%rax        # 1a210 <g_805>
    e49a:	48 89 85 00 f0 ff ff 	mov    %rax,-0x1000(%rbp)
    e4a1:	48 8d 85 00 f0 ff ff 	lea    -0x1000(%rbp),%rax
    e4a8:	48 89 85 20 f1 ff ff 	mov    %rax,-0xee0(%rbp)
    e4af:	c7 85 78 ef ff ff 00 	movl   $0x0,-0x1088(%rbp)
    e4b6:	00 00 00 
    e4b9:	eb 1a                	jmp    e4d5 <func_27+0x89e>
    e4bb:	8b 85 78 ef ff ff    	mov    -0x1088(%rbp),%eax
    e4c1:	48 98                	cltq   
    e4c3:	c7 84 85 90 f6 ff ff 	movl   $0x7fe9d4e3,-0x970(%rbp,%rax,4)
    e4ca:	e3 d4 e9 7f 
    e4ce:	83 85 78 ef ff ff 01 	addl   $0x1,-0x1088(%rbp)
    e4d5:	83 bd 78 ef ff ff 01 	cmpl   $0x1,-0x1088(%rbp)
    e4dc:	7e dd                	jle    e4bb <func_27+0x884>
    e4de:	48 8b 05 4b bb 00 00 	mov    0xbb4b(%rip),%rax        # 1a030 <g_5>
    e4e5:	0f b6 c0             	movzbl %al,%eax
    e4e8:	be 04 00 00 00       	mov    $0x4,%esi
    e4ed:	89 c7                	mov    %eax,%edi
    e4ef:	e8 66 b6 ff ff       	callq  9b5a <safe_add_func_uint8_t_u_u>
    e4f4:	0f b6 c0             	movzbl %al,%eax
    e4f7:	48 89 05 32 bb 00 00 	mov    %rax,0xbb32(%rip)        # 1a030 <g_5>
    e4fe:	48 8b 05 2b bb 00 00 	mov    0xbb2b(%rip),%rax        # 1a030 <g_5>
    e505:	48 83 f8 3c          	cmp    $0x3c,%rax
    e509:	0f 87 fb fe ff ff    	ja     e40a <func_27+0x7d3>
    e50f:	48 8b 85 e0 ef ff ff 	mov    -0x1020(%rbp),%rax
    e516:	0f b6 10             	movzbl (%rax),%edx
    e519:	83 ea 01             	sub    $0x1,%edx
    e51c:	88 10                	mov    %dl,(%rax)
    e51e:	0f b6 00             	movzbl (%rax),%eax
    e521:	0f b6 c0             	movzbl %al,%eax
    e524:	89 c6                	mov    %eax,%esi
    e526:	bf 01 00 00 00       	mov    $0x1,%edi
    e52b:	e8 63 b6 ff ff       	callq  9b93 <safe_mul_func_uint8_t_u_u>
    e530:	0f b6 c0             	movzbl %al,%eax
    e533:	89 85 2c f1 ff ff    	mov    %eax,-0xed4(%rbp)
    e539:	8b 85 2c f1 ff ff    	mov    -0xed4(%rbp),%eax
    e53f:	85 c0                	test   %eax,%eax
    e541:	0f 84 98 0f 00 00    	je     f4df <func_27+0x18a8>
    e547:	48 c7 85 48 f0 ff ff 	movq   $0x0,-0xfb8(%rbp)
    e54e:	00 00 00 00 
    e552:	48 8d 85 d8 ef ff ff 	lea    -0x1028(%rbp),%rax
    e559:	48 89 85 40 f0 ff ff 	mov    %rax,-0xfc0(%rbp)
    e560:	48 8d 05 a9 bc 00 00 	lea    0xbca9(%rip),%rax        # 1a210 <g_805>
    e567:	48 89 85 80 f2 ff ff 	mov    %rax,-0xd80(%rbp)
    e56e:	48 8d 05 9b bc 00 00 	lea    0xbc9b(%rip),%rax        # 1a210 <g_805>
    e575:	48 89 85 88 f2 ff ff 	mov    %rax,-0xd78(%rbp)
    e57c:	48 8d 05 8d bc 00 00 	lea    0xbc8d(%rip),%rax        # 1a210 <g_805>
    e583:	48 89 85 90 f2 ff ff 	mov    %rax,-0xd70(%rbp)
    e58a:	48 8d 05 7f bc 00 00 	lea    0xbc7f(%rip),%rax        # 1a210 <g_805>
    e591:	48 89 85 98 f2 ff ff 	mov    %rax,-0xd68(%rbp)
    e598:	48 8d 05 71 bc 00 00 	lea    0xbc71(%rip),%rax        # 1a210 <g_805>
    e59f:	48 89 85 a0 f2 ff ff 	mov    %rax,-0xd60(%rbp)
    e5a6:	48 8d 05 63 bc 00 00 	lea    0xbc63(%rip),%rax        # 1a210 <g_805>
    e5ad:	48 89 85 a8 f2 ff ff 	mov    %rax,-0xd58(%rbp)
    e5b4:	48 8d 05 55 bc 00 00 	lea    0xbc55(%rip),%rax        # 1a210 <g_805>
    e5bb:	48 89 85 b0 f2 ff ff 	mov    %rax,-0xd50(%rbp)
    e5c2:	48 8d 05 47 bc 00 00 	lea    0xbc47(%rip),%rax        # 1a210 <g_805>
    e5c9:	48 89 85 b8 f2 ff ff 	mov    %rax,-0xd48(%rbp)
    e5d0:	48 8d 05 39 bc 00 00 	lea    0xbc39(%rip),%rax        # 1a210 <g_805>
    e5d7:	48 89 85 c0 f2 ff ff 	mov    %rax,-0xd40(%rbp)
    e5de:	48 8d 05 2b bc 00 00 	lea    0xbc2b(%rip),%rax        # 1a210 <g_805>
    e5e5:	48 89 85 c8 f2 ff ff 	mov    %rax,-0xd38(%rbp)
    e5ec:	48 8d 05 ad f6 00 00 	lea    0xf6ad(%rip),%rax        # 1dca0 <g_563>
    e5f3:	48 89 85 38 f0 ff ff 	mov    %rax,-0xfc8(%rbp)
    e5fa:	48 8d 85 d0 ef ff ff 	lea    -0x1030(%rbp),%rax
    e601:	48 89 85 18 f0 ff ff 	mov    %rax,-0xfe8(%rbp)
    e608:	c7 85 34 ef ff ff eb 	movl   $0xd67723eb,-0x10cc(%rbp)
    e60f:	23 77 d6 
    e612:	c7 85 58 ef ff ff 7b 	movl   $0xbfe8a57b,-0x10a8(%rbp)
    e619:	a5 e8 bf 
    e61c:	c7 85 38 ef ff ff a1 	movl   $0x4842bba1,-0x10c8(%rbp)
    e623:	bb 42 48 
    e626:	66 c7 85 24 ef ff ff 	movw   $0xf5ed,-0x10dc(%rbp)
    e62d:	ed f5 
    e62f:	c7 85 5c ef ff ff d6 	movl   $0xb07232d6,-0x10a4(%rbp)
    e636:	32 72 b0 
    e639:	48 8d 85 34 ef ff ff 	lea    -0x10cc(%rbp),%rax
    e640:	48 89 85 20 f0 ff ff 	mov    %rax,-0xfe0(%rbp)
    e647:	48 8d 05 22 ce 00 00 	lea    0xce22(%rip),%rax        # 1b470 <g_491>
    e64e:	48 89 85 28 f0 ff ff 	mov    %rax,-0xfd8(%rbp)
    e655:	c7 85 3c ef ff ff f2 	movl   $0xbe24bdf2,-0x10c4(%rbp)
    e65c:	bd 24 be 
    e65f:	c6 85 20 ef ff ff 00 	movb   $0x0,-0x10e0(%rbp)
    e666:	48 8d 85 b0 ef ff ff 	lea    -0x1050(%rbp),%rax
    e66d:	48 89 85 30 f0 ff ff 	mov    %rax,-0xfd0(%rbp)
    e674:	66 c7 85 60 f4 ff ff 	movw   $0x8ff,-0xba0(%rbp)
    e67b:	ff 08 
    e67d:	c6 85 62 f4 ff ff fe 	movb   $0xfe,-0xb9e(%rbp)
    e684:	66 c7 85 63 f4 ff ff 	movw   $0x6e,-0xb9d(%rbp)
    e68b:	6e 00 
    e68d:	c6 85 65 f4 ff ff 65 	movb   $0x65,-0xb9b(%rbp)
    e694:	66 c7 85 66 f4 ff ff 	movw   $0x808,-0xb9a(%rbp)
    e69b:	08 08 
    e69d:	c6 85 68 f4 ff ff fe 	movb   $0xfe,-0xb98(%rbp)
    e6a4:	66 c7 85 69 f4 ff ff 	movw   $0x6e00,-0xb97(%rbp)
    e6ab:	00 6e 
    e6ad:	c6 85 6b f4 ff ff 65 	movb   $0x65,-0xb95(%rbp)
    e6b4:	66 c7 85 6c f4 ff ff 	movw   $0xff08,-0xb94(%rbp)
    e6bb:	08 ff 
    e6bd:	c6 85 6e f4 ff ff fe 	movb   $0xfe,-0xb92(%rbp)
    e6c4:	66 c7 85 6f f4 ff ff 	movw   $0x5858,-0xb91(%rbp)
    e6cb:	58 58 
    e6cd:	c6 85 71 f4 ff ff 65 	movb   $0x65,-0xb8f(%rbp)
    e6d4:	66 c7 85 72 f4 ff ff 	movw   $0x8ff,-0xb8e(%rbp)
    e6db:	ff 08 
    e6dd:	c6 85 74 f4 ff ff fe 	movb   $0xfe,-0xb8c(%rbp)
    e6e4:	66 c7 85 75 f4 ff ff 	movw   $0x6e,-0xb8b(%rbp)
    e6eb:	6e 00 
    e6ed:	c6 85 77 f4 ff ff 65 	movb   $0x65,-0xb89(%rbp)
    e6f4:	66 c7 85 78 f4 ff ff 	movw   $0x808,-0xb88(%rbp)
    e6fb:	08 08 
    e6fd:	c6 85 7a f4 ff ff fe 	movb   $0xfe,-0xb86(%rbp)
    e704:	66 c7 85 7b f4 ff ff 	movw   $0x6e00,-0xb85(%rbp)
    e70b:	00 6e 
    e70d:	c6 85 7d f4 ff ff 65 	movb   $0x65,-0xb83(%rbp)
    e714:	66 c7 85 7e f4 ff ff 	movw   $0xff08,-0xb82(%rbp)
    e71b:	08 ff 
    e71d:	c6 85 80 f4 ff ff fe 	movb   $0xfe,-0xb80(%rbp)
    e724:	66 c7 85 81 f4 ff ff 	movw   $0x5858,-0xb7f(%rbp)
    e72b:	58 58 
    e72d:	c6 85 83 f4 ff ff 65 	movb   $0x65,-0xb7d(%rbp)
    e734:	66 c7 85 84 f4 ff ff 	movw   $0x8ff,-0xb7c(%rbp)
    e73b:	ff 08 
    e73d:	c6 85 86 f4 ff ff fe 	movb   $0xfe,-0xb7a(%rbp)
    e744:	66 c7 85 87 f4 ff ff 	movw   $0x6e,-0xb79(%rbp)
    e74b:	6e 00 
    e74d:	c6 85 89 f4 ff ff 65 	movb   $0x65,-0xb77(%rbp)
    e754:	66 c7 85 8a f4 ff ff 	movw   $0x808,-0xb76(%rbp)
    e75b:	08 08 
    e75d:	c6 85 8c f4 ff ff fe 	movb   $0xfe,-0xb74(%rbp)
    e764:	66 c7 85 8d f4 ff ff 	movw   $0x6e00,-0xb73(%rbp)
    e76b:	00 6e 
    e76d:	c6 85 8f f4 ff ff 65 	movb   $0x65,-0xb71(%rbp)
    e774:	66 c7 85 90 f4 ff ff 	movw   $0x0,-0xb70(%rbp)
    e77b:	00 00 
    e77d:	c6 85 92 f4 ff ff 08 	movb   $0x8,-0xb6e(%rbp)
    e784:	66 c7 85 93 f4 ff ff 	movw   $0x404,-0xb6d(%rbp)
    e78b:	04 04 
    e78d:	c6 85 95 f4 ff ff 58 	movb   $0x58,-0xb6b(%rbp)
    e794:	66 c7 85 96 f4 ff ff 	movw   $0x0,-0xb6a(%rbp)
    e79b:	00 00 
    e79d:	c6 85 98 f4 ff ff 08 	movb   $0x8,-0xb68(%rbp)
    e7a4:	66 c7 85 99 f4 ff ff 	movw   $0xc7ff,-0xb67(%rbp)
    e7ab:	ff c7 
    e7ad:	c6 85 9b f4 ff ff 58 	movb   $0x58,-0xb65(%rbp)
    e7b4:	66 c7 85 9c f4 ff ff 	movw   $0x101,-0xb64(%rbp)
    e7bb:	01 01 
    e7bd:	c6 85 9e f4 ff ff 08 	movb   $0x8,-0xb62(%rbp)
    e7c4:	66 c7 85 9f f4 ff ff 	movw   $0xffc7,-0xb61(%rbp)
    e7cb:	c7 ff 
    e7cd:	c6 85 a1 f4 ff ff 58 	movb   $0x58,-0xb5f(%rbp)
    e7d4:	66 c7 85 a2 f4 ff ff 	movw   $0x0,-0xb5e(%rbp)
    e7db:	00 00 
    e7dd:	c6 85 a4 f4 ff ff 08 	movb   $0x8,-0xb5c(%rbp)
    e7e4:	66 c7 85 a5 f4 ff ff 	movw   $0x404,-0xb5b(%rbp)
    e7eb:	04 04 
    e7ed:	c6 85 a7 f4 ff ff 58 	movb   $0x58,-0xb59(%rbp)
    e7f4:	66 c7 85 a8 f4 ff ff 	movw   $0x0,-0xb58(%rbp)
    e7fb:	00 00 
    e7fd:	c6 85 aa f4 ff ff 08 	movb   $0x8,-0xb56(%rbp)
    e804:	66 c7 85 ab f4 ff ff 	movw   $0xc7ff,-0xb55(%rbp)
    e80b:	ff c7 
    e80d:	c6 85 ad f4 ff ff 58 	movb   $0x58,-0xb53(%rbp)
    e814:	66 c7 85 ae f4 ff ff 	movw   $0x101,-0xb52(%rbp)
    e81b:	01 01 
    e81d:	c6 85 b0 f4 ff ff 08 	movb   $0x8,-0xb50(%rbp)
    e824:	66 c7 85 b1 f4 ff ff 	movw   $0xffc7,-0xb4f(%rbp)
    e82b:	c7 ff 
    e82d:	c6 85 b3 f4 ff ff 58 	movb   $0x58,-0xb4d(%rbp)
    e834:	66 c7 85 b4 f4 ff ff 	movw   $0x0,-0xb4c(%rbp)
    e83b:	00 00 
    e83d:	c6 85 b6 f4 ff ff 08 	movb   $0x8,-0xb4a(%rbp)
    e844:	66 c7 85 b7 f4 ff ff 	movw   $0x404,-0xb49(%rbp)
    e84b:	04 04 
    e84d:	c6 85 b9 f4 ff ff 58 	movb   $0x58,-0xb47(%rbp)
    e854:	66 c7 85 ba f4 ff ff 	movw   $0x0,-0xb46(%rbp)
    e85b:	00 00 
    e85d:	c6 85 bc f4 ff ff 08 	movb   $0x8,-0xb44(%rbp)
    e864:	66 c7 85 bd f4 ff ff 	movw   $0xc7ff,-0xb43(%rbp)
    e86b:	ff c7 
    e86d:	c6 85 bf f4 ff ff 58 	movb   $0x58,-0xb41(%rbp)
    e874:	66 c7 85 c0 f4 ff ff 	movw   $0x101,-0xb40(%rbp)
    e87b:	01 01 
    e87d:	c6 85 c2 f4 ff ff 08 	movb   $0x8,-0xb3e(%rbp)
    e884:	66 c7 85 c3 f4 ff ff 	movw   $0xffc7,-0xb3d(%rbp)
    e88b:	c7 ff 
    e88d:	c6 85 c5 f4 ff ff 58 	movb   $0x58,-0xb3b(%rbp)
    e894:	66 c7 85 c6 f4 ff ff 	movw   $0x0,-0xb3a(%rbp)
    e89b:	00 00 
    e89d:	c6 85 c8 f4 ff ff 08 	movb   $0x8,-0xb38(%rbp)
    e8a4:	66 c7 85 c9 f4 ff ff 	movw   $0x404,-0xb37(%rbp)
    e8ab:	04 04 
    e8ad:	c6 85 cb f4 ff ff 58 	movb   $0x58,-0xb35(%rbp)
    e8b4:	66 c7 85 cc f4 ff ff 	movw   $0x0,-0xb34(%rbp)
    e8bb:	00 00 
    e8bd:	c6 85 ce f4 ff ff 08 	movb   $0x8,-0xb32(%rbp)
    e8c4:	66 c7 85 cf f4 ff ff 	movw   $0xc7ff,-0xb31(%rbp)
    e8cb:	ff c7 
    e8cd:	c6 85 d1 f4 ff ff 58 	movb   $0x58,-0xb2f(%rbp)
    e8d4:	66 c7 85 d2 f4 ff ff 	movw   $0x101,-0xb2e(%rbp)
    e8db:	01 01 
    e8dd:	c6 85 d4 f4 ff ff 08 	movb   $0x8,-0xb2c(%rbp)
    e8e4:	66 c7 85 d5 f4 ff ff 	movw   $0xffc7,-0xb2b(%rbp)
    e8eb:	c7 ff 
    e8ed:	c6 85 d7 f4 ff ff 58 	movb   $0x58,-0xb29(%rbp)
    e8f4:	66 c7 85 d8 f4 ff ff 	movw   $0x0,-0xb28(%rbp)
    e8fb:	00 00 
    e8fd:	c6 85 da f4 ff ff 08 	movb   $0x8,-0xb26(%rbp)
    e904:	66 c7 85 db f4 ff ff 	movw   $0x404,-0xb25(%rbp)
    e90b:	04 04 
    e90d:	c6 85 dd f4 ff ff 58 	movb   $0x58,-0xb23(%rbp)
    e914:	66 c7 85 de f4 ff ff 	movw   $0x0,-0xb22(%rbp)
    e91b:	00 00 
    e91d:	c6 85 e0 f4 ff ff 08 	movb   $0x8,-0xb20(%rbp)
    e924:	66 c7 85 e1 f4 ff ff 	movw   $0xc7ff,-0xb1f(%rbp)
    e92b:	ff c7 
    e92d:	c6 85 e3 f4 ff ff 58 	movb   $0x58,-0xb1d(%rbp)
    e934:	66 c7 85 e4 f4 ff ff 	movw   $0x101,-0xb1c(%rbp)
    e93b:	01 01 
    e93d:	c6 85 e6 f4 ff ff 08 	movb   $0x8,-0xb1a(%rbp)
    e944:	66 c7 85 e7 f4 ff ff 	movw   $0xffc7,-0xb19(%rbp)
    e94b:	c7 ff 
    e94d:	c6 85 e9 f4 ff ff 58 	movb   $0x58,-0xb17(%rbp)
    e954:	66 c7 85 ea f4 ff ff 	movw   $0x0,-0xb16(%rbp)
    e95b:	00 00 
    e95d:	c6 85 ec f4 ff ff 08 	movb   $0x8,-0xb14(%rbp)
    e964:	66 c7 85 ed f4 ff ff 	movw   $0x404,-0xb13(%rbp)
    e96b:	04 04 
    e96d:	c6 85 ef f4 ff ff 58 	movb   $0x58,-0xb11(%rbp)
    e974:	66 c7 85 f0 f4 ff ff 	movw   $0x0,-0xb10(%rbp)
    e97b:	00 00 
    e97d:	c6 85 f2 f4 ff ff 08 	movb   $0x8,-0xb0e(%rbp)
    e984:	66 c7 85 f3 f4 ff ff 	movw   $0xc7ff,-0xb0d(%rbp)
    e98b:	ff c7 
    e98d:	c6 85 f5 f4 ff ff 58 	movb   $0x58,-0xb0b(%rbp)
    e994:	66 c7 85 f6 f4 ff ff 	movw   $0x101,-0xb0a(%rbp)
    e99b:	01 01 
    e99d:	c6 85 f8 f4 ff ff 08 	movb   $0x8,-0xb08(%rbp)
    e9a4:	66 c7 85 f9 f4 ff ff 	movw   $0xffc7,-0xb07(%rbp)
    e9ab:	c7 ff 
    e9ad:	c6 85 fb f4 ff ff 58 	movb   $0x58,-0xb05(%rbp)
    e9b4:	66 c7 85 fc f4 ff ff 	movw   $0x0,-0xb04(%rbp)
    e9bb:	00 00 
    e9bd:	c6 85 fe f4 ff ff 08 	movb   $0x8,-0xb02(%rbp)
    e9c4:	66 c7 85 ff f4 ff ff 	movw   $0x404,-0xb01(%rbp)
    e9cb:	04 04 
    e9cd:	c6 85 01 f5 ff ff 58 	movb   $0x58,-0xaff(%rbp)
    e9d4:	66 c7 85 02 f5 ff ff 	movw   $0x0,-0xafe(%rbp)
    e9db:	00 00 
    e9dd:	c6 85 04 f5 ff ff 08 	movb   $0x8,-0xafc(%rbp)
    e9e4:	66 c7 85 05 f5 ff ff 	movw   $0xc7ff,-0xafb(%rbp)
    e9eb:	ff c7 
    e9ed:	c6 85 07 f5 ff ff 58 	movb   $0x58,-0xaf9(%rbp)
    e9f4:	66 c7 85 08 f5 ff ff 	movw   $0x101,-0xaf8(%rbp)
    e9fb:	01 01 
    e9fd:	c6 85 0a f5 ff ff 08 	movb   $0x8,-0xaf6(%rbp)
    ea04:	66 c7 85 0b f5 ff ff 	movw   $0xffc7,-0xaf5(%rbp)
    ea0b:	c7 ff 
    ea0d:	c6 85 0d f5 ff ff 58 	movb   $0x58,-0xaf3(%rbp)
    ea14:	66 c7 85 0e f5 ff ff 	movw   $0x0,-0xaf2(%rbp)
    ea1b:	00 00 
    ea1d:	c6 85 10 f5 ff ff 08 	movb   $0x8,-0xaf0(%rbp)
    ea24:	66 c7 85 11 f5 ff ff 	movw   $0x404,-0xaef(%rbp)
    ea2b:	04 04 
    ea2d:	c6 85 13 f5 ff ff 58 	movb   $0x58,-0xaed(%rbp)
    ea34:	66 c7 85 14 f5 ff ff 	movw   $0x0,-0xaec(%rbp)
    ea3b:	00 00 
    ea3d:	c6 85 16 f5 ff ff 08 	movb   $0x8,-0xaea(%rbp)
    ea44:	66 c7 85 17 f5 ff ff 	movw   $0xc7ff,-0xae9(%rbp)
    ea4b:	ff c7 
    ea4d:	c6 85 19 f5 ff ff 58 	movb   $0x58,-0xae7(%rbp)
    ea54:	66 c7 85 1a f5 ff ff 	movw   $0x101,-0xae6(%rbp)
    ea5b:	01 01 
    ea5d:	c6 85 1c f5 ff ff 08 	movb   $0x8,-0xae4(%rbp)
    ea64:	66 c7 85 1d f5 ff ff 	movw   $0xffc7,-0xae3(%rbp)
    ea6b:	c7 ff 
    ea6d:	c6 85 1f f5 ff ff 58 	movb   $0x58,-0xae1(%rbp)
    ea74:	66 c7 85 20 f5 ff ff 	movw   $0x0,-0xae0(%rbp)
    ea7b:	00 00 
    ea7d:	c6 85 22 f5 ff ff 08 	movb   $0x8,-0xade(%rbp)
    ea84:	66 c7 85 23 f5 ff ff 	movw   $0x404,-0xadd(%rbp)
    ea8b:	04 04 
    ea8d:	c6 85 25 f5 ff ff 58 	movb   $0x58,-0xadb(%rbp)
    ea94:	66 c7 85 26 f5 ff ff 	movw   $0x0,-0xada(%rbp)
    ea9b:	00 00 
    ea9d:	c6 85 28 f5 ff ff 08 	movb   $0x8,-0xad8(%rbp)
    eaa4:	66 c7 85 29 f5 ff ff 	movw   $0xc7ff,-0xad7(%rbp)
    eaab:	ff c7 
    eaad:	c6 85 2b f5 ff ff 58 	movb   $0x58,-0xad5(%rbp)
    eab4:	66 c7 85 2c f5 ff ff 	movw   $0x101,-0xad4(%rbp)
    eabb:	01 01 
    eabd:	c6 85 2e f5 ff ff 08 	movb   $0x8,-0xad2(%rbp)
    eac4:	66 c7 85 2f f5 ff ff 	movw   $0xffc7,-0xad1(%rbp)
    eacb:	c7 ff 
    eacd:	c6 85 31 f5 ff ff 58 	movb   $0x58,-0xacf(%rbp)
    ead4:	48 8b 05 ad d9 00 00 	mov    0xd9ad(%rip),%rax        # 1c488 <g_861>
    eadb:	48 8b 95 48 f0 ff ff 	mov    -0xfb8(%rbp),%rdx
    eae2:	48 89 10             	mov    %rdx,(%rax)
    eae5:	48 8b 05 b4 c8 00 00 	mov    0xc8b4(%rip),%rax        # 1b3a0 <g_209>
    eaec:	8b 00                	mov    (%rax),%eax
    eaee:	41 89 c5             	mov    %eax,%r13d
    eaf1:	48 8b 05 18 b7 00 00 	mov    0xb718(%rip),%rax        # 1a210 <g_805>
    eaf8:	0f bf d8             	movswl %ax,%ebx
    eafb:	8b 85 28 ef ff ff    	mov    -0x10d8(%rbp),%eax
    eb01:	85 c0                	test   %eax,%eax
    eb03:	75 75                	jne    eb7a <func_27+0xf43>
    eb05:	0f b7 05 fa b6 00 00 	movzwl 0xb6fa(%rip),%eax        # 1a206 <g_475>
    eb0c:	44 0f bf e0          	movswl %ax,%r12d
    eb10:	48 83 bd a8 f0 ff ff 	cmpq   $0x0,-0xf58(%rbp)
    eb17:	00 
    eb18:	0f 95 c0             	setne  %al
    eb1b:	0f b6 d0             	movzbl %al,%edx
    eb1e:	48 8b 85 18 f0 ff ff 	mov    -0xfe8(%rbp),%rax
    eb25:	48 89 10             	mov    %rdx,(%rax)
    eb28:	8b 85 34 ef ff ff    	mov    -0x10cc(%rbp),%eax
    eb2e:	0f be d0             	movsbl %al,%edx
    eb31:	48 8b 85 a8 f0 ff ff 	mov    -0xf58(%rbp),%rax
    eb38:	89 c1                	mov    %eax,%ecx
    eb3a:	48 8b 85 38 f0 ff ff 	mov    -0xfc8(%rbp),%rax
    eb41:	88 08                	mov    %cl,(%rax)
    eb43:	48 8b 85 38 f0 ff ff 	mov    -0xfc8(%rbp),%rax
    eb4a:	0f b6 00             	movzbl (%rax),%eax
    eb4d:	0f be c0             	movsbl %al,%eax
    eb50:	89 d6                	mov    %edx,%esi
    eb52:	89 c7                	mov    %eax,%edi
    eb54:	e8 b9 a6 ff ff       	callq  9212 <safe_mul_func_int8_t_s_s>
    eb59:	48 8b 05 60 b5 00 00 	mov    0xb560(%rip),%rax        # 1a0c0 <g_171+0x20>
    eb60:	0f b6 c0             	movzbl %al,%eax
    eb63:	44 89 e6             	mov    %r12d,%esi
    eb66:	89 c7                	mov    %eax,%edi
    eb68:	e8 51 b1 ff ff       	callq  9cbe <safe_rshift_func_uint8_t_u_u>
    eb6d:	48 8b 05 2c c8 00 00 	mov    0xc82c(%rip),%rax        # 1b3a0 <g_209>
    eb74:	8b 00                	mov    (%rax),%eax
    eb76:	85 c0                	test   %eax,%eax
    eb78:	74 07                	je     eb81 <func_27+0xf4a>
    eb7a:	b8 01 00 00 00       	mov    $0x1,%eax
    eb7f:	eb 05                	jmp    eb86 <func_27+0xf4f>
    eb81:	b8 00 00 00 00       	mov    $0x0,%eax
    eb86:	98                   	cwtl   
    eb87:	89 de                	mov    %ebx,%esi
    eb89:	89 c7                	mov    %eax,%edi
    eb8b:	e8 c5 a8 ff ff       	callq  9455 <safe_div_func_int16_t_s_s>
    eb90:	89 c2                	mov    %eax,%edx
    eb92:	48 8b 05 0f c8 00 00 	mov    0xc80f(%rip),%rax        # 1b3a8 <g_208>
    eb99:	48 8b 00             	mov    (%rax),%rax
    eb9c:	8b 00                	mov    (%rax),%eax
    eb9e:	09 d0                	or     %edx,%eax
    eba0:	0f be d0             	movsbl %al,%edx
    eba3:	48 8b 85 40 f0 ff ff 	mov    -0xfc0(%rbp),%rax
    ebaa:	48 8b 00             	mov    (%rax),%rax
    ebad:	48 8d 70 ff          	lea    -0x1(%rax),%rsi
    ebb1:	48 8b 8d 40 f0 ff ff 	mov    -0xfc0(%rbp),%rcx
    ebb8:	48 89 31             	mov    %rsi,(%rcx)
    ebbb:	8b 8d 30 f1 ff ff    	mov    -0xed0(%rbp),%ecx
    ebc1:	21 c8                	and    %ecx,%eax
    ebc3:	89 85 30 f1 ff ff    	mov    %eax,-0xed0(%rbp)
    ebc9:	8b 85 30 f1 ff ff    	mov    -0xed0(%rbp),%eax
    ebcf:	89 c1                	mov    %eax,%ecx
    ebd1:	48 8b 05 20 d9 00 00 	mov    0xd920(%rip),%rax        # 1c4f8 <g_1106>
    ebd8:	48 8b 00             	mov    (%rax),%rax
    ebdb:	48 85 c0             	test   %rax,%rax
    ebde:	0f 95 c0             	setne  %al
    ebe1:	21 c8                	and    %ecx,%eax
    ebe3:	0f be c0             	movsbl %al,%eax
    ebe6:	89 d6                	mov    %edx,%esi
    ebe8:	89 c7                	mov    %eax,%edi
    ebea:	e8 e5 a5 ff ff       	callq  91d4 <safe_add_func_int8_t_s_s>
    ebef:	0f be d0             	movsbl %al,%edx
    ebf2:	8b 05 a4 b4 00 00    	mov    0xb4a4(%rip),%eax        # 1a09c <g_169>
    ebf8:	39 c2                	cmp    %eax,%edx
    ebfa:	75 07                	jne    ec03 <func_27+0xfcc>
    ebfc:	b8 92 00 00 00       	mov    $0x92,%eax
    ec01:	eb 05                	jmp    ec08 <func_27+0xfd1>
    ec03:	b8 93 00 00 00       	mov    $0x93,%eax
    ec08:	44 89 ee             	mov    %r13d,%esi
    ec0b:	89 c7                	mov    %eax,%edi
    ec0d:	e8 a6 b2 ff ff       	callq  9eb8 <safe_add_func_uint32_t_u_u>
    ec12:	85 c0                	test   %eax,%eax
    ec14:	75 10                	jne    ec26 <func_27+0xfef>
    ec16:	48 8b 05 db d8 00 00 	mov    0xd8db(%rip),%rax        # 1c4f8 <g_1106>
    ec1d:	48 8b 00             	mov    (%rax),%rax
    ec20:	48 8b 00             	mov    (%rax),%rax
    ec23:	48 85 c0             	test   %rax,%rax
    ec26:	c6 85 1f ef ff ff ff 	movb   $0xff,-0x10e1(%rbp)
    ec2d:	c7 85 40 ef ff ff 36 	movl   $0x49087d36,-0x10c0(%rbp)
    ec34:	7d 08 49 
    ec37:	c7 85 44 ef ff ff 01 	movl   $0x1,-0x10bc(%rbp)
    ec3e:	00 00 00 
    ec41:	c7 85 48 ef ff ff 01 	movl   $0x1,-0x10b8(%rbp)
    ec48:	00 00 00 
    ec4b:	c7 85 4c ef ff ff 72 	movl   $0xcec21072,-0x10b4(%rbp)
    ec52:	10 c2 ce 
    ec55:	c7 85 50 ef ff ff fb 	movl   $0xfffffffb,-0x10b0(%rbp)
    ec5c:	ff ff ff 
    ec5f:	c7 85 54 ef ff ff c2 	movl   $0xc89c17c2,-0x10ac(%rbp)
    ec66:	17 9c c8 
    ec69:	48 c7 85 10 f0 ff ff 	movq   $0x0,-0xff0(%rbp)
    ec70:	00 00 00 00 
    ec74:	48 c7 85 08 f0 ff ff 	movq   $0xffffffffffffffed,-0xff8(%rbp)
    ec7b:	ed ff ff ff 
    ec7f:	e9 38 08 00 00       	jmpq   f4bc <func_27+0x1885>
    ec84:	48 b8 2f b2 6b 00 20 	movabs $0x9b2e6420006bb22f,%rax
    ec8b:	64 2e 9b 
    ec8e:	48 89 85 b0 f0 ff ff 	mov    %rax,-0xf50(%rbp)
    ec95:	c7 85 c0 f1 ff ff 07 	movl   $0x7,-0xe40(%rbp)
    ec9c:	00 00 00 
    ec9f:	c7 85 c4 f1 ff ff 4e 	movl   $0x4205694e,-0xe3c(%rbp)
    eca6:	69 05 42 
    eca9:	c7 85 c8 f1 ff ff 07 	movl   $0x7,-0xe38(%rbp)
    ecb0:	00 00 00 
    ecb3:	c7 85 cc f1 ff ff f6 	movl   $0xfffffff6,-0xe34(%rbp)
    ecba:	ff ff ff 
    ecbd:	c7 85 d0 f1 ff ff f6 	movl   $0xfffffff6,-0xe30(%rbp)
    ecc4:	ff ff ff 
    ecc7:	c7 85 d4 f1 ff ff 07 	movl   $0x7,-0xe2c(%rbp)
    ecce:	00 00 00 
    ecd1:	c7 85 d8 f1 ff ff 4e 	movl   $0x4205694e,-0xe28(%rbp)
    ecd8:	69 05 42 
    ecdb:	c7 85 dc f1 ff ff 07 	movl   $0x7,-0xe24(%rbp)
    ece2:	00 00 00 
    ece5:	c7 85 e0 f1 ff ff f6 	movl   $0xfffffff6,-0xe20(%rbp)
    ecec:	ff ff ff 
    ecef:	c7 85 e4 f1 ff ff f6 	movl   $0xfffffff6,-0xe1c(%rbp)
    ecf6:	ff ff ff 
    ecf9:	48 c7 85 b8 f0 ff ff 	movq   $0x0,-0xf48(%rbp)
    ed00:	00 00 00 00 
    ed04:	48 8d 05 d1 b3 00 00 	lea    0xb3d1(%rip),%rax        # 1a0dc <g_172+0xc>
    ed0b:	48 89 85 00 f0 ff ff 	mov    %rax,-0x1000(%rbp)
    ed12:	48 8d 85 00 f0 ff ff 	lea    -0x1000(%rbp),%rax
    ed19:	48 89 85 90 f6 ff ff 	mov    %rax,-0x970(%rbp)
    ed20:	48 8d 85 00 f0 ff ff 	lea    -0x1000(%rbp),%rax
    ed27:	48 89 85 98 f6 ff ff 	mov    %rax,-0x968(%rbp)
    ed2e:	48 c7 85 a0 f6 ff ff 	movq   $0x0,-0x960(%rbp)
    ed35:	00 00 00 00 
    ed39:	48 8d 85 00 f0 ff ff 	lea    -0x1000(%rbp),%rax
    ed40:	48 89 85 a8 f6 ff ff 	mov    %rax,-0x958(%rbp)
    ed47:	48 8d 85 00 f0 ff ff 	lea    -0x1000(%rbp),%rax
    ed4e:	48 89 85 b0 f6 ff ff 	mov    %rax,-0x950(%rbp)
    ed55:	48 8d 85 00 f0 ff ff 	lea    -0x1000(%rbp),%rax
    ed5c:	48 89 85 b8 f6 ff ff 	mov    %rax,-0x948(%rbp)
    ed63:	48 8d 85 00 f0 ff ff 	lea    -0x1000(%rbp),%rax
    ed6a:	48 89 85 c0 f6 ff ff 	mov    %rax,-0x940(%rbp)
    ed71:	48 8d 85 00 f0 ff ff 	lea    -0x1000(%rbp),%rax
    ed78:	48 89 85 c8 f6 ff ff 	mov    %rax,-0x938(%rbp)
    ed7f:	48 8d 85 00 f0 ff ff 	lea    -0x1000(%rbp),%rax
    ed86:	48 89 85 d0 f6 ff ff 	mov    %rax,-0x930(%rbp)
    ed8d:	48 8d 85 00 f0 ff ff 	lea    -0x1000(%rbp),%rax
    ed94:	48 89 85 d8 f6 ff ff 	mov    %rax,-0x928(%rbp)
    ed9b:	48 8d 85 00 f0 ff ff 	lea    -0x1000(%rbp),%rax
    eda2:	48 89 85 e0 f6 ff ff 	mov    %rax,-0x920(%rbp)
    eda9:	48 8d 85 00 f0 ff ff 	lea    -0x1000(%rbp),%rax
    edb0:	48 89 85 e8 f6 ff ff 	mov    %rax,-0x918(%rbp)
    edb7:	48 8d 85 00 f0 ff ff 	lea    -0x1000(%rbp),%rax
    edbe:	48 89 85 f0 f6 ff ff 	mov    %rax,-0x910(%rbp)
    edc5:	48 c7 85 f8 f6 ff ff 	movq   $0x0,-0x908(%rbp)
    edcc:	00 00 00 00 
    edd0:	48 8d 85 00 f0 ff ff 	lea    -0x1000(%rbp),%rax
    edd7:	48 89 85 00 f7 ff ff 	mov    %rax,-0x900(%rbp)
    edde:	48 8d 85 00 f0 ff ff 	lea    -0x1000(%rbp),%rax
    ede5:	48 89 85 08 f7 ff ff 	mov    %rax,-0x8f8(%rbp)
    edec:	48 8d 85 00 f0 ff ff 	lea    -0x1000(%rbp),%rax
    edf3:	48 89 85 10 f7 ff ff 	mov    %rax,-0x8f0(%rbp)
    edfa:	48 8d 85 00 f0 ff ff 	lea    -0x1000(%rbp),%rax
    ee01:	48 89 85 18 f7 ff ff 	mov    %rax,-0x8e8(%rbp)
    ee08:	48 8d 85 00 f0 ff ff 	lea    -0x1000(%rbp),%rax
    ee0f:	48 89 85 20 f7 ff ff 	mov    %rax,-0x8e0(%rbp)
    ee16:	48 8d 85 00 f0 ff ff 	lea    -0x1000(%rbp),%rax
    ee1d:	48 89 85 28 f7 ff ff 	mov    %rax,-0x8d8(%rbp)
    ee24:	48 c7 85 30 f7 ff ff 	movq   $0x0,-0x8d0(%rbp)
    ee2b:	00 00 00 00 
    ee2f:	48 8d 85 00 f0 ff ff 	lea    -0x1000(%rbp),%rax
    ee36:	48 89 85 38 f7 ff ff 	mov    %rax,-0x8c8(%rbp)
    ee3d:	48 8d 85 00 f0 ff ff 	lea    -0x1000(%rbp),%rax
    ee44:	48 89 85 40 f7 ff ff 	mov    %rax,-0x8c0(%rbp)
    ee4b:	48 8d 85 00 f0 ff ff 	lea    -0x1000(%rbp),%rax
    ee52:	48 89 85 48 f7 ff ff 	mov    %rax,-0x8b8(%rbp)
    ee59:	48 8d 85 00 f0 ff ff 	lea    -0x1000(%rbp),%rax
    ee60:	48 89 85 50 f7 ff ff 	mov    %rax,-0x8b0(%rbp)
    ee67:	48 8d 85 00 f0 ff ff 	lea    -0x1000(%rbp),%rax
    ee6e:	48 89 85 58 f7 ff ff 	mov    %rax,-0x8a8(%rbp)
    ee75:	48 8d 85 00 f0 ff ff 	lea    -0x1000(%rbp),%rax
    ee7c:	48 89 85 60 f7 ff ff 	mov    %rax,-0x8a0(%rbp)
    ee83:	48 8d 85 00 f0 ff ff 	lea    -0x1000(%rbp),%rax
    ee8a:	48 89 85 68 f7 ff ff 	mov    %rax,-0x898(%rbp)
    ee91:	48 8d 85 00 f0 ff ff 	lea    -0x1000(%rbp),%rax
    ee98:	48 89 85 70 f7 ff ff 	mov    %rax,-0x890(%rbp)
    ee9f:	48 8d 85 00 f0 ff ff 	lea    -0x1000(%rbp),%rax
    eea6:	48 89 85 78 f7 ff ff 	mov    %rax,-0x888(%rbp)
    eead:	48 8d 85 00 f0 ff ff 	lea    -0x1000(%rbp),%rax
    eeb4:	48 89 85 80 f7 ff ff 	mov    %rax,-0x880(%rbp)
    eebb:	48 8d 85 00 f0 ff ff 	lea    -0x1000(%rbp),%rax
    eec2:	48 89 85 88 f7 ff ff 	mov    %rax,-0x878(%rbp)
    eec9:	48 8d 85 00 f0 ff ff 	lea    -0x1000(%rbp),%rax
    eed0:	48 89 85 90 f7 ff ff 	mov    %rax,-0x870(%rbp)
    eed7:	48 8d 85 00 f0 ff ff 	lea    -0x1000(%rbp),%rax
    eede:	48 89 85 98 f7 ff ff 	mov    %rax,-0x868(%rbp)
    eee5:	48 8d 85 00 f0 ff ff 	lea    -0x1000(%rbp),%rax
    eeec:	48 89 85 a0 f7 ff ff 	mov    %rax,-0x860(%rbp)
    eef3:	48 c7 85 a8 f7 ff ff 	movq   $0x0,-0x858(%rbp)
    eefa:	00 00 00 00 
    eefe:	48 8d 85 00 f0 ff ff 	lea    -0x1000(%rbp),%rax
    ef05:	48 89 85 b0 f7 ff ff 	mov    %rax,-0x850(%rbp)
    ef0c:	48 8d 85 00 f0 ff ff 	lea    -0x1000(%rbp),%rax
    ef13:	48 89 85 b8 f7 ff ff 	mov    %rax,-0x848(%rbp)
    ef1a:	48 8d 85 00 f0 ff ff 	lea    -0x1000(%rbp),%rax
    ef21:	48 89 85 c0 f7 ff ff 	mov    %rax,-0x840(%rbp)
    ef28:	48 8d 85 00 f0 ff ff 	lea    -0x1000(%rbp),%rax
    ef2f:	48 89 85 c8 f7 ff ff 	mov    %rax,-0x838(%rbp)
    ef36:	48 8d 85 00 f0 ff ff 	lea    -0x1000(%rbp),%rax
    ef3d:	48 89 85 d0 f7 ff ff 	mov    %rax,-0x830(%rbp)
    ef44:	48 8d 85 00 f0 ff ff 	lea    -0x1000(%rbp),%rax
    ef4b:	48 89 85 d8 f7 ff ff 	mov    %rax,-0x828(%rbp)
    ef52:	48 8d 85 00 f0 ff ff 	lea    -0x1000(%rbp),%rax
    ef59:	48 89 85 e0 f7 ff ff 	mov    %rax,-0x820(%rbp)
    ef60:	48 8d 85 00 f0 ff ff 	lea    -0x1000(%rbp),%rax
    ef67:	48 89 85 e8 f7 ff ff 	mov    %rax,-0x818(%rbp)
    ef6e:	48 8d 85 00 f0 ff ff 	lea    -0x1000(%rbp),%rax
    ef75:	48 89 85 f0 f7 ff ff 	mov    %rax,-0x810(%rbp)
    ef7c:	48 8d 85 00 f0 ff ff 	lea    -0x1000(%rbp),%rax
    ef83:	48 89 85 f8 f7 ff ff 	mov    %rax,-0x808(%rbp)
    ef8a:	48 8d 85 00 f0 ff ff 	lea    -0x1000(%rbp),%rax
    ef91:	48 89 85 00 f8 ff ff 	mov    %rax,-0x800(%rbp)
    ef98:	48 c7 85 08 f8 ff ff 	movq   $0x0,-0x7f8(%rbp)
    ef9f:	00 00 00 00 
    efa3:	48 8d 85 00 f0 ff ff 	lea    -0x1000(%rbp),%rax
    efaa:	48 89 85 10 f8 ff ff 	mov    %rax,-0x7f0(%rbp)
    efb1:	48 8d 85 00 f0 ff ff 	lea    -0x1000(%rbp),%rax
    efb8:	48 89 85 18 f8 ff ff 	mov    %rax,-0x7e8(%rbp)
    efbf:	48 8d 85 00 f0 ff ff 	lea    -0x1000(%rbp),%rax
    efc6:	48 89 85 20 f8 ff ff 	mov    %rax,-0x7e0(%rbp)
    efcd:	48 8d 85 00 f0 ff ff 	lea    -0x1000(%rbp),%rax
    efd4:	48 89 85 28 f8 ff ff 	mov    %rax,-0x7d8(%rbp)
    efdb:	48 8d 85 00 f0 ff ff 	lea    -0x1000(%rbp),%rax
    efe2:	48 89 85 30 f8 ff ff 	mov    %rax,-0x7d0(%rbp)
    efe9:	48 8d 85 00 f0 ff ff 	lea    -0x1000(%rbp),%rax
    eff0:	48 89 85 38 f8 ff ff 	mov    %rax,-0x7c8(%rbp)
    eff7:	48 8d 85 90 f6 ff ff 	lea    -0x970(%rbp),%rax
    effe:	48 89 85 c0 f0 ff ff 	mov    %rax,-0xf40(%rbp)
    f005:	c7 85 84 ef ff ff 01 	movl   $0x1,-0x107c(%rbp)
    f00c:	00 00 00 
    f00f:	be 06 00 00 00       	mov    $0x6,%esi
    f014:	bf fd 00 00 00       	mov    $0xfd,%edi
    f019:	e8 a0 ac ff ff       	callq  9cbe <safe_rshift_func_uint8_t_u_u>
    f01e:	84 c0                	test   %al,%al
    f020:	0f 84 c0 00 00 00    	je     f0e6 <func_27+0x14af>
    f026:	48 8d 05 13 b0 00 00 	lea    0xb013(%rip),%rax        # 1a040 <g_75>
    f02d:	48 89 85 d8 f0 ff ff 	mov    %rax,-0xf28(%rbp)
    f034:	c7 85 7c ef ff ff 00 	movl   $0x0,-0x1084(%rbp)
    f03b:	00 00 00 
    f03e:	eb 1e                	jmp    f05e <func_27+0x1427>
    f040:	8b 85 7c ef ff ff    	mov    -0x1084(%rbp),%eax
    f046:	48 98                	cltq   
    f048:	48 8d 15 41 b0 00 00 	lea    0xb041(%rip),%rdx        # 1a090 <g_99>
    f04f:	48 89 94 c5 40 f8 ff 	mov    %rdx,-0x7c0(%rbp,%rax,8)
    f056:	ff 
    f057:	83 85 7c ef ff ff 01 	addl   $0x1,-0x1084(%rbp)
    f05e:	83 bd 7c ef ff ff 02 	cmpl   $0x2,-0x1084(%rbp)
    f065:	7e d9                	jle    f040 <func_27+0x1409>
    f067:	48 83 ad 80 f0 ff ff 	subq   $0x1,-0xf80(%rbp)
    f06e:	01 
    f06f:	48 8b 05 32 c3 00 00 	mov    0xc332(%rip),%rax        # 1b3a8 <g_208>
    f076:	48 8b 00             	mov    (%rax),%rax
    f079:	0f b6 95 1f ef ff ff 	movzbl -0x10e1(%rbp),%edx
    f080:	89 10                	mov    %edx,(%rax)
    f082:	8b 85 4c f1 ff ff    	mov    -0xeb4(%rbp),%eax
    f088:	89 c2                	mov    %eax,%edx
    f08a:	48 8b 85 b0 f0 ff ff 	mov    -0xf50(%rbp),%rax
    f091:	0f b6 c0             	movzbl %al,%eax
    f094:	89 d6                	mov    %edx,%esi
    f096:	89 c7                	mov    %eax,%edi
    f098:	e8 21 ac ff ff       	callq  9cbe <safe_rshift_func_uint8_t_u_u>
    f09d:	0f b6 d8             	movzbl %al,%ebx
    f0a0:	0f b7 85 3e f1 ff ff 	movzwl -0xec2(%rbp),%eax
    f0a7:	48 0f bf c0          	movswq %ax,%rax
    f0ab:	48 8b 15 46 d4 00 00 	mov    0xd446(%rip),%rdx        # 1c4f8 <g_1106>
    f0b2:	48 8b 12             	mov    (%rdx),%rdx
    f0b5:	48 8b 12             	mov    (%rdx),%rdx
    f0b8:	48 8b 95 b0 f0 ff ff 	mov    -0xf50(%rbp),%rdx
    f0bf:	81 e2 c9 ba 00 00    	and    $0xbac9,%edx
    f0c5:	48 89 c6             	mov    %rax,%rsi
    f0c8:	48 89 d7             	mov    %rdx,%rdi
    f0cb:	e8 71 a7 ff ff       	callq  9841 <safe_add_func_int64_t_s_s>
    f0d0:	48 39 c3             	cmp    %rax,%rbx
    f0d3:	0f 9c c0             	setl   %al
    f0d6:	0f b6 c0             	movzbl %al,%eax
    f0d9:	f7 d0                	not    %eax
    f0db:	89 85 2c f1 ff ff    	mov    %eax,-0xed4(%rbp)
    f0e1:	e9 ba 03 00 00       	jmpq   f4a0 <func_27+0x1869>
    f0e6:	48 c7 85 c8 f0 ff ff 	movq   $0x0,-0xf38(%rbp)
    f0ed:	00 00 00 00 
    f0f1:	48 8d 85 c0 f1 ff ff 	lea    -0xe40(%rbp),%rax
    f0f8:	48 89 85 d0 f0 ff ff 	mov    %rax,-0xf30(%rbp)
    f0ff:	48 8d 85 2c f1 ff ff 	lea    -0xed4(%rbp),%rax
    f106:	48 83 c0 04          	add    $0x4,%rax
    f10a:	48 89 85 40 f8 ff ff 	mov    %rax,-0x7c0(%rbp)
    f111:	48 8d 85 30 ef ff ff 	lea    -0x10d0(%rbp),%rax
    f118:	48 89 85 48 f8 ff ff 	mov    %rax,-0x7b8(%rbp)
    f11f:	48 8d 85 2c f1 ff ff 	lea    -0xed4(%rbp),%rax
    f126:	48 83 c0 04          	add    $0x4,%rax
    f12a:	48 89 85 50 f8 ff ff 	mov    %rax,-0x7b0(%rbp)
    f131:	48 c7 85 58 f8 ff ff 	movq   $0x0,-0x7a8(%rbp)
    f138:	00 00 00 00 
    f13c:	48 8d 85 40 f1 ff ff 	lea    -0xec0(%rbp),%rax
    f143:	48 83 c0 0c          	add    $0xc,%rax
    f147:	48 89 85 60 f8 ff ff 	mov    %rax,-0x7a0(%rbp)
    f14e:	48 8d 85 2c f1 ff ff 	lea    -0xed4(%rbp),%rax
    f155:	48 89 85 68 f8 ff ff 	mov    %rax,-0x798(%rbp)
    f15c:	48 8d 85 40 f1 ff ff 	lea    -0xec0(%rbp),%rax
    f163:	48 83 c0 0c          	add    $0xc,%rax
    f167:	48 89 85 70 f8 ff ff 	mov    %rax,-0x790(%rbp)
    f16e:	48 8d 85 40 f1 ff ff 	lea    -0xec0(%rbp),%rax
    f175:	48 83 c0 08          	add    $0x8,%rax
    f179:	48 89 85 78 f8 ff ff 	mov    %rax,-0x788(%rbp)
    f180:	48 8d 85 60 f1 ff ff 	lea    -0xea0(%rbp),%rax
    f187:	48 89 85 80 f8 ff ff 	mov    %rax,-0x780(%rbp)
    f18e:	48 8d 85 40 f1 ff ff 	lea    -0xec0(%rbp),%rax
    f195:	48 83 c0 0c          	add    $0xc,%rax
    f199:	48 89 85 88 f8 ff ff 	mov    %rax,-0x778(%rbp)
    f1a0:	48 8d 85 60 f1 ff ff 	lea    -0xea0(%rbp),%rax
    f1a7:	48 83 c0 1c          	add    $0x1c,%rax
    f1ab:	48 89 85 90 f8 ff ff 	mov    %rax,-0x770(%rbp)
    f1b2:	48 8d 85 2c f1 ff ff 	lea    -0xed4(%rbp),%rax
    f1b9:	48 89 85 98 f8 ff ff 	mov    %rax,-0x768(%rbp)
    f1c0:	48 8d 85 2c f1 ff ff 	lea    -0xed4(%rbp),%rax
    f1c7:	48 89 85 a0 f8 ff ff 	mov    %rax,-0x760(%rbp)
    f1ce:	48 8d 85 60 f1 ff ff 	lea    -0xea0(%rbp),%rax
    f1d5:	48 83 c0 1c          	add    $0x1c,%rax
    f1d9:	48 89 85 a8 f8 ff ff 	mov    %rax,-0x758(%rbp)
    f1e0:	48 8d 85 40 f1 ff ff 	lea    -0xec0(%rbp),%rax
    f1e7:	48 83 c0 0c          	add    $0xc,%rax
    f1eb:	48 89 85 b0 f8 ff ff 	mov    %rax,-0x750(%rbp)
    f1f2:	48 8d 85 60 f1 ff ff 	lea    -0xea0(%rbp),%rax
    f1f9:	48 89 85 b8 f8 ff ff 	mov    %rax,-0x748(%rbp)
    f200:	48 8d 85 60 f1 ff ff 	lea    -0xea0(%rbp),%rax
    f207:	48 89 85 c0 f8 ff ff 	mov    %rax,-0x740(%rbp)
    f20e:	48 c7 85 c8 f8 ff ff 	movq   $0x0,-0x738(%rbp)
    f215:	00 00 00 00 
    f219:	48 8d 85 c0 f1 ff ff 	lea    -0xe40(%rbp),%rax
    f220:	48 83 c0 24          	add    $0x24,%rax
    f224:	48 89 85 d0 f8 ff ff 	mov    %rax,-0x730(%rbp)
    f22b:	48 8d 85 2c f1 ff ff 	lea    -0xed4(%rbp),%rax
    f232:	48 83 c0 04          	add    $0x4,%rax
    f236:	48 89 85 d8 f8 ff ff 	mov    %rax,-0x728(%rbp)
    f23d:	48 8d 85 40 f1 ff ff 	lea    -0xec0(%rbp),%rax
    f244:	48 83 c0 0c          	add    $0xc,%rax
    f248:	48 89 85 e0 f8 ff ff 	mov    %rax,-0x720(%rbp)
    f24f:	48 8d 85 2c f1 ff ff 	lea    -0xed4(%rbp),%rax
    f256:	48 89 85 e8 f8 ff ff 	mov    %rax,-0x718(%rbp)
    f25d:	48 8d 85 60 f1 ff ff 	lea    -0xea0(%rbp),%rax
    f264:	48 83 c0 1c          	add    $0x1c,%rax
    f268:	48 89 85 f0 f8 ff ff 	mov    %rax,-0x710(%rbp)
    f26f:	48 8d 85 2c f1 ff ff 	lea    -0xed4(%rbp),%rax
    f276:	48 89 85 f8 f8 ff ff 	mov    %rax,-0x708(%rbp)
    f27d:	48 8d 85 2c f1 ff ff 	lea    -0xed4(%rbp),%rax
    f284:	48 83 c0 04          	add    $0x4,%rax
    f288:	48 89 85 00 f9 ff ff 	mov    %rax,-0x700(%rbp)
    f28f:	48 8d 85 2c f1 ff ff 	lea    -0xed4(%rbp),%rax
    f296:	48 89 85 08 f9 ff ff 	mov    %rax,-0x6f8(%rbp)
    f29d:	48 8d 85 40 f1 ff ff 	lea    -0xec0(%rbp),%rax
    f2a4:	48 83 c0 08          	add    $0x8,%rax
    f2a8:	48 89 85 10 f9 ff ff 	mov    %rax,-0x6f0(%rbp)
    f2af:	48 8d 85 2c f1 ff ff 	lea    -0xed4(%rbp),%rax
    f2b6:	48 89 85 18 f9 ff ff 	mov    %rax,-0x6e8(%rbp)
    f2bd:	48 8d 85 2c f1 ff ff 	lea    -0xed4(%rbp),%rax
    f2c4:	48 83 c0 04          	add    $0x4,%rax
    f2c8:	48 89 85 20 f9 ff ff 	mov    %rax,-0x6e0(%rbp)
    f2cf:	48 8d 85 2c f1 ff ff 	lea    -0xed4(%rbp),%rax
    f2d6:	48 89 85 28 f9 ff ff 	mov    %rax,-0x6d8(%rbp)
    f2dd:	48 8d 85 30 ef ff ff 	lea    -0x10d0(%rbp),%rax
    f2e4:	48 89 85 30 f9 ff ff 	mov    %rax,-0x6d0(%rbp)
    f2eb:	48 8d 85 40 f1 ff ff 	lea    -0xec0(%rbp),%rax
    f2f2:	48 83 c0 0c          	add    $0xc,%rax
    f2f6:	48 89 85 38 f9 ff ff 	mov    %rax,-0x6c8(%rbp)
    f2fd:	48 8d 85 40 f1 ff ff 	lea    -0xec0(%rbp),%rax
    f304:	48 83 c0 0c          	add    $0xc,%rax
    f308:	48 89 85 40 f9 ff ff 	mov    %rax,-0x6c0(%rbp)
    f30f:	48 c7 85 48 f9 ff ff 	movq   $0x0,-0x6b8(%rbp)
    f316:	00 00 00 00 
    f31a:	48 8d 85 2c f1 ff ff 	lea    -0xed4(%rbp),%rax
    f321:	48 89 85 50 f9 ff ff 	mov    %rax,-0x6b0(%rbp)
    f328:	48 8d 85 34 ef ff ff 	lea    -0x10cc(%rbp),%rax
    f32f:	48 89 85 58 f9 ff ff 	mov    %rax,-0x6a8(%rbp)
    f336:	48 8d 85 60 f1 ff ff 	lea    -0xea0(%rbp),%rax
    f33d:	48 83 c0 1c          	add    $0x1c,%rax
    f341:	48 89 85 60 f9 ff ff 	mov    %rax,-0x6a0(%rbp)
    f348:	48 8d 85 60 f1 ff ff 	lea    -0xea0(%rbp),%rax
    f34f:	48 83 c0 1c          	add    $0x1c,%rax
    f353:	48 89 85 68 f9 ff ff 	mov    %rax,-0x698(%rbp)
    f35a:	48 8d 85 34 ef ff ff 	lea    -0x10cc(%rbp),%rax
    f361:	48 89 85 70 f9 ff ff 	mov    %rax,-0x690(%rbp)
    f368:	48 8d 85 2c f1 ff ff 	lea    -0xed4(%rbp),%rax
    f36f:	48 89 85 78 f9 ff ff 	mov    %rax,-0x688(%rbp)
    f376:	48 8d 85 40 f1 ff ff 	lea    -0xec0(%rbp),%rax
    f37d:	48 83 c0 0c          	add    $0xc,%rax
    f381:	48 89 85 80 f9 ff ff 	mov    %rax,-0x680(%rbp)
    f388:	48 8d 85 40 f1 ff ff 	lea    -0xec0(%rbp),%rax
    f38f:	48 83 c0 0c          	add    $0xc,%rax
    f393:	48 89 85 88 f9 ff ff 	mov    %rax,-0x678(%rbp)
    f39a:	48 8d 85 2c f1 ff ff 	lea    -0xed4(%rbp),%rax
    f3a1:	48 89 85 90 f9 ff ff 	mov    %rax,-0x670(%rbp)
    f3a8:	48 8d 85 60 f1 ff ff 	lea    -0xea0(%rbp),%rax
    f3af:	48 89 85 98 f9 ff ff 	mov    %rax,-0x668(%rbp)
    f3b6:	48 8d 85 c0 f1 ff ff 	lea    -0xe40(%rbp),%rax
    f3bd:	48 83 c0 24          	add    $0x24,%rax
    f3c1:	48 89 85 a0 f9 ff ff 	mov    %rax,-0x660(%rbp)
    f3c8:	48 8d 85 2c f1 ff ff 	lea    -0xed4(%rbp),%rax
    f3cf:	48 89 85 a8 f9 ff ff 	mov    %rax,-0x658(%rbp)
    f3d6:	48 8d 85 30 ef ff ff 	lea    -0x10d0(%rbp),%rax
    f3dd:	48 89 85 b0 f9 ff ff 	mov    %rax,-0x650(%rbp)
    f3e4:	48 8d 85 40 f1 ff ff 	lea    -0xec0(%rbp),%rax
    f3eb:	48 83 c0 0c          	add    $0xc,%rax
    f3ef:	48 89 85 b8 f9 ff ff 	mov    %rax,-0x648(%rbp)
    f3f6:	48 8d 85 60 f1 ff ff 	lea    -0xea0(%rbp),%rax
    f3fd:	48 83 c0 1c          	add    $0x1c,%rax
    f401:	48 89 85 c0 f9 ff ff 	mov    %rax,-0x640(%rbp)
    f408:	48 8d 85 30 ef ff ff 	lea    -0x10d0(%rbp),%rax
    f40f:	48 89 85 c8 f9 ff ff 	mov    %rax,-0x638(%rbp)
    f416:	48 8d 85 40 f1 ff ff 	lea    -0xec0(%rbp),%rax
    f41d:	48 83 c0 08          	add    $0x8,%rax
    f421:	48 89 85 d0 f9 ff ff 	mov    %rax,-0x630(%rbp)
    f428:	48 8d 85 40 f1 ff ff 	lea    -0xec0(%rbp),%rax
    f42f:	48 83 c0 0c          	add    $0xc,%rax
    f433:	48 89 85 d8 f9 ff ff 	mov    %rax,-0x628(%rbp)
    f43a:	48 8d 85 40 f1 ff ff 	lea    -0xec0(%rbp),%rax
    f441:	48 83 c0 08          	add    $0x8,%rax
    f445:	48 89 85 e0 f9 ff ff 	mov    %rax,-0x620(%rbp)
    f44c:	48 8d 85 30 ef ff ff 	lea    -0x10d0(%rbp),%rax
    f453:	48 89 85 e8 f9 ff ff 	mov    %rax,-0x618(%rbp)
    f45a:	48 8d 85 60 f1 ff ff 	lea    -0xea0(%rbp),%rax
    f461:	48 83 c0 1c          	add    $0x1c,%rax
    f465:	48 89 85 f0 f9 ff ff 	mov    %rax,-0x610(%rbp)
    f46c:	48 8d 85 40 f1 ff ff 	lea    -0xec0(%rbp),%rax
    f473:	48 83 c0 0c          	add    $0xc,%rax
    f477:	48 89 85 f8 f9 ff ff 	mov    %rax,-0x608(%rbp)
    f47e:	0f b6 85 1e ef ff ff 	movzbl -0x10e2(%rbp),%eax
    f485:	83 c0 01             	add    $0x1,%eax
    f488:	88 85 1e ef ff ff    	mov    %al,-0x10e2(%rbp)
    f48e:	48 8d 85 40 f1 ff ff 	lea    -0xec0(%rbp),%rax
    f495:	48 83 c0 08          	add    $0x8,%rax
    f499:	48 89 85 10 f0 ff ff 	mov    %rax,-0xff0(%rbp)
    f4a0:	48 8b 15 d9 cf 00 00 	mov    0xcfd9(%rip),%rdx        # 1c480 <g_835>
    f4a7:	48 8b 05 fa be 00 00 	mov    0xbefa(%rip),%rax        # 1b3a8 <g_208>
    f4ae:	48 8b 12             	mov    (%rdx),%rdx
    f4b1:	48 89 10             	mov    %rdx,(%rax)
    f4b4:	48 83 85 08 f0 ff ff 	addq   $0x1,-0xff8(%rbp)
    f4bb:	01 
    f4bc:	48 83 bd 08 f0 ff ff 	cmpq   $0x0,-0xff8(%rbp)
    f4c3:	00 
    f4c4:	0f 84 ba f7 ff ff    	je     ec84 <func_27+0x104d>
    f4ca:	48 8b 05 0f d0 00 00 	mov    0xd00f(%rip),%rax        # 1c4e0 <g_887>
    f4d1:	48 8b 00             	mov    (%rax),%rax
    f4d4:	8b 00                	mov    (%rax),%eax
    f4d6:	85 c0                	test   %eax,%eax
    f4d8:	74 32                	je     f50c <func_27+0x18d5>
    f4da:	e9 c2 07 00 00       	jmpq   fca1 <func_27+0x206a>
    f4df:	48 8d 05 c2 be 00 00 	lea    0xbec2(%rip),%rax        # 1b3a8 <g_208>
    f4e6:	48 89 85 00 f0 ff ff 	mov    %rax,-0x1000(%rbp)
    f4ed:	48 8d 85 00 f0 ff ff 	lea    -0x1000(%rbp),%rax
    f4f4:	48 89 85 50 f0 ff ff 	mov    %rax,-0xfb0(%rbp)
    f4fb:	48 8b 05 ce d1 00 00 	mov    0xd1ce(%rip),%rax        # 1c6d0 <g_1459>
    f502:	48 8b 95 50 f0 ff ff 	mov    -0xfb0(%rbp),%rdx
    f509:	48 89 10             	mov    %rdx,(%rax)
    f50c:	48 8b 05 a5 be 00 00 	mov    0xbea5(%rip),%rax        # 1b3b8 <g_259>
    f513:	0f b6 00             	movzbl (%rax),%eax
    f516:	84 c0                	test   %al,%al
    f518:	0f 84 91 00 00 00    	je     f5af <func_27+0x1978>
    f51e:	48 8b 85 a8 f0 ff ff 	mov    -0xf58(%rbp),%rax
    f525:	0f b6 c0             	movzbl %al,%eax
    f528:	89 c6                	mov    %eax,%esi
    f52a:	bf 01 00 00 00       	mov    $0x1,%edi
    f52f:	e8 26 a6 ff ff       	callq  9b5a <safe_add_func_uint8_t_u_u>
    f534:	0f b6 d0             	movzbl %al,%edx
    f537:	8b 85 30 f1 ff ff    	mov    -0xed0(%rbp),%eax
    f53d:	39 c2                	cmp    %eax,%edx
    f53f:	0f 9f c0             	setg   %al
    f542:	0f b6 d0             	movzbl %al,%edx
    f545:	8b 85 a4 f1 ff ff    	mov    -0xe5c(%rbp),%eax
    f54b:	89 c1                	mov    %eax,%ecx
    f54d:	48 8b 85 70 f0 ff ff 	mov    -0xf90(%rbp),%rax
    f554:	89 08                	mov    %ecx,(%rax)
    f556:	48 8b 0d e3 d4 00 00 	mov    0xd4e3(%rip),%rcx        # 1ca40 <g_1465>
    f55d:	48 8b 85 68 f0 ff ff 	mov    -0xf98(%rbp),%rax
    f564:	48 89 08             	mov    %rcx,(%rax)
    f567:	48 8b 85 68 f0 ff ff 	mov    -0xf98(%rbp),%rax
    f56e:	48 8b 08             	mov    (%rax),%rcx
    f571:	48 8d 85 f8 ef ff ff 	lea    -0x1008(%rbp),%rax
    f578:	48 39 c1             	cmp    %rax,%rcx
    f57b:	0f 94 c0             	sete   %al
    f57e:	0f b6 c0             	movzbl %al,%eax
    f581:	89 d6                	mov    %edx,%esi
    f583:	89 c7                	mov    %eax,%edi
    f585:	e8 4a 9c ff ff       	callq  91d4 <safe_add_func_int8_t_s_s>
    f58a:	48 0f be c0          	movsbq %al,%rax
    f58e:	48 39 85 08 ef ff ff 	cmp    %rax,-0x10f8(%rbp)
    f595:	0f 97 c0             	seta   %al
    f598:	0f b6 c0             	movzbl %al,%eax
    f59b:	be 02 00 00 00       	mov    $0x2,%esi
    f5a0:	89 c7                	mov    %eax,%edi
    f5a2:	e8 4b 9c ff ff       	callq  91f2 <safe_sub_func_int8_t_s_s>
    f5a7:	84 c0                	test   %al,%al
    f5a9:	0f 84 69 01 00 00    	je     f718 <func_27+0x1ae1>
    f5af:	48 b8 ce fb 69 51 1d 	movabs $0x3cbf9f1d5169fbce,%rax
    f5b6:	9f bf 3c 
    f5b9:	48 89 85 08 f1 ff ff 	mov    %rax,-0xef8(%rbp)
    f5c0:	c7 85 94 ef ff ff c9 	movl   $0xdcdb28c9,-0x106c(%rbp)
    f5c7:	28 db dc 
    f5ca:	8b 05 cc aa 00 00    	mov    0xaacc(%rip),%eax        # 1a09c <g_169>
    f5d0:	0f b6 c0             	movzbl %al,%eax
    f5d3:	89 85 fc ee ff ff    	mov    %eax,-0x1104(%rbp)
    f5d9:	48 8b 85 08 f1 ff ff 	mov    -0xef8(%rbp),%rax
    f5e0:	0f b6 c0             	movzbl %al,%eax
    f5e3:	89 85 f8 ee ff ff    	mov    %eax,-0x1108(%rbp)
    f5e9:	48 8b 05 b8 bd 00 00 	mov    0xbdb8(%rip),%rax        # 1b3a8 <g_208>
    f5f0:	4c 8b 28             	mov    (%rax),%r13
    f5f3:	4c 8b a5 08 f1 ff ff 	mov    -0xef8(%rbp),%r12
    f5fa:	48 8b 1d 07 e6 00 00 	mov    0xe607(%rip),%rbx        # 1dc08 <g_77>
    f601:	48 8b 85 08 f1 ff ff 	mov    -0xef8(%rbp),%rax
    f608:	44 0f b7 f0          	movzwl %ax,%r14d
    f60c:	0f b7 05 65 83 00 00 	movzwl 0x8365(%rip),%eax        # 17978 <l_1446.4482+0x2>
    f613:	44 0f bf f8          	movswl %ax,%r15d
    f617:	48 8b 05 82 bd 00 00 	mov    0xbd82(%rip),%rax        # 1b3a0 <g_209>
    f61e:	8b 00                	mov    (%rax),%eax
    f620:	66 89 85 f6 ee ff ff 	mov    %ax,-0x110a(%rbp)
    f627:	be e8 be ff ff       	mov    $0xffffbee8,%esi
    f62c:	bf 00 00 00 00       	mov    $0x0,%edi
    f631:	e8 bf 9d ff ff       	callq  93f5 <safe_mul_func_int16_t_s_s>
    f636:	48 8b 85 08 ef ff ff 	mov    -0x10f8(%rbp),%rax
    f63d:	89 85 94 ef ff ff    	mov    %eax,-0x106c(%rbp)
    f643:	8b 85 70 ef ff ff    	mov    -0x1090(%rbp),%eax
    f649:	98                   	cwtl   
    f64a:	be 00 00 00 00       	mov    $0x0,%esi
    f64f:	89 c7                	mov    %eax,%edi
    f651:	e8 5d 9d ff ff       	callq  93b3 <safe_add_func_int16_t_s_s>
    f656:	66 33 85 f6 ee ff ff 	xor    -0x110a(%rbp),%ax
    f65d:	0f b7 c0             	movzwl %ax,%eax
    f660:	44 89 fe             	mov    %r15d,%esi
    f663:	89 c7                	mov    %eax,%edi
    f665:	e8 10 a8 ff ff       	callq  9e7a <safe_rshift_func_uint16_t_u_u>
    f66a:	66 85 c0             	test   %ax,%ax
    f66d:	75 07                	jne    f676 <func_27+0x1a3f>
    f66f:	b8 79 00 00 00       	mov    $0x79,%eax
    f674:	eb 05                	jmp    f67b <func_27+0x1a44>
    f676:	b8 78 00 00 00       	mov    $0x78,%eax
    f67b:	48 3b 85 08 ef ff ff 	cmp    -0x10f8(%rbp),%rax
    f682:	0f 92 c0             	setb   %al
    f685:	0f b6 c0             	movzbl %al,%eax
    f688:	44 89 f6             	mov    %r14d,%esi
    f68b:	89 c7                	mov    %eax,%edi
    f68d:	e8 ca a6 ff ff       	callq  9d5c <safe_mod_func_uint16_t_u_u>
    f692:	0f b7 c0             	movzwl %ax,%eax
    f695:	48 8b 95 08 ef ff ff 	mov    -0x10f8(%rbp),%rdx
    f69c:	21 d0                	and    %edx,%eax
    f69e:	44 8b 85 f8 ee ff ff 	mov    -0x1108(%rbp),%r8d
    f6a5:	4c 89 e9             	mov    %r13,%rcx
    f6a8:	4c 89 e2             	mov    %r12,%rdx
    f6ab:	48 89 de             	mov    %rbx,%rsi
    f6ae:	89 c7                	mov    %eax,%edi
    f6b0:	e8 29 61 00 00       	callq  157de <func_58>
    f6b5:	48 89 c6             	mov    %rax,%rsi
    f6b8:	48 b8 7a 87 ec 26 d0 	movabs $0xe81432d026ec877a,%rax
    f6bf:	32 14 e8 
    f6c2:	48 89 05 f7 a9 00 00 	mov    %rax,0xa9f7(%rip)        # 1a0c0 <g_171+0x20>
    f6c9:	48 8b 15 f0 a9 00 00 	mov    0xa9f0(%rip),%rdx        # 1a0c0 <g_171+0x20>
    f6d0:	48 8b 05 29 e6 00 00 	mov    0xe629(%rip),%rax        # 1dd00 <g_1473>
    f6d7:	48 8b 05 22 ce 00 00 	mov    0xce22(%rip),%rax        # 1c500 <g_1144>
    f6de:	48 8b 00             	mov    (%rax),%rax
    f6e1:	48 8b 8d 08 f1 ff ff 	mov    -0xef8(%rbp),%rcx
    f6e8:	89 cf                	mov    %ecx,%edi
    f6ea:	48 8b 0d 17 ce 00 00 	mov    0xce17(%rip),%rcx        # 1c508 <g_1266>
    f6f1:	48 8b 09             	mov    (%rcx),%rcx
    f6f4:	48 8b 19             	mov    (%rcx),%rbx
    f6f7:	44 8b 85 fc ee ff ff 	mov    -0x1104(%rbp),%r8d
    f6fe:	48 89 f1             	mov    %rsi,%rcx
    f701:	48 89 c6             	mov    %rax,%rsi
    f704:	e8 d5 60 00 00       	callq  157de <func_58>
    f709:	48 89 03             	mov    %rax,(%rbx)
    f70c:	83 ad 64 ef ff ff 01 	subl   $0x1,-0x109c(%rbp)
    f713:	e9 8a 02 00 00       	jmpq   f9a2 <func_27+0x1d6b>
    f718:	48 c7 85 e0 f0 ff ff 	movq   $0x0,-0xf20(%rbp)
    f71f:	00 00 00 00 
    f723:	48 8d 85 e0 ef ff ff 	lea    -0x1020(%rbp),%rax
    f72a:	48 89 85 e8 f0 ff ff 	mov    %rax,-0xf18(%rbp)
    f731:	48 8d 85 c8 ef ff ff 	lea    -0x1038(%rbp),%rax
    f738:	48 89 85 f0 f0 ff ff 	mov    %rax,-0xf10(%rbp)
    f73f:	48 83 bd 08 ef ff ff 	cmpq   $0x0,-0x10f8(%rbp)
    f746:	00 
    f747:	0f 85 81 05 00 00    	jne    fcce <func_27+0x2097>
    f74d:	8b 9d 74 ef ff ff    	mov    -0x108c(%rbp),%ebx
    f753:	48 8b 85 e8 f0 ff ff 	mov    -0xf18(%rbp),%rax
    f75a:	48 8d 15 89 aa 00 00 	lea    0xaa89(%rip),%rdx        # 1a1ea <g_378+0xea>
    f761:	48 89 10             	mov    %rdx,(%rax)
    f764:	48 8b 85 e8 f0 ff ff 	mov    -0xf18(%rbp),%rax
    f76b:	48 8b 00             	mov    (%rax),%rax
    f76e:	48 39 85 e0 f0 ff ff 	cmp    %rax,-0xf20(%rbp)
    f775:	0f 95 c0             	setne  %al
    f778:	44 0f b6 e0          	movzbl %al,%r12d
    f77c:	48 83 bd 08 ef ff ff 	cmpq   $0x0,-0x10f8(%rbp)
    f783:	00 
    f784:	75 4e                	jne    f7d4 <func_27+0x1b9d>
    f786:	48 8b 05 5b cd 00 00 	mov    0xcd5b(%rip),%rax        # 1c4e8 <g_1005>
    f78d:	48 8b 00             	mov    (%rax),%rax
    f790:	48 39 85 f0 f0 ff ff 	cmp    %rax,-0xf10(%rbp)
    f797:	0f 95 c0             	setne  %al
    f79a:	0f b6 c0             	movzbl %al,%eax
    f79d:	89 85 64 f1 ff ff    	mov    %eax,-0xe9c(%rbp)
    f7a3:	be 03 00 00 00       	mov    $0x3,%esi
    f7a8:	bf 01 00 00 00       	mov    $0x1,%edi
    f7ad:	e8 3c 9b ff ff       	callq  92ee <safe_lshift_func_int8_t_s_u>
    f7b2:	48 0f be c0          	movsbq %al,%rax
    f7b6:	48 39 85 08 ef ff ff 	cmp    %rax,-0x10f8(%rbp)
    f7bd:	0f 95 c0             	setne  %al
    f7c0:	0f b6 c0             	movzbl %al,%eax
    f7c3:	be 04 00 00 00       	mov    $0x4,%esi
    f7c8:	89 c7                	mov    %eax,%edi
    f7ca:	e8 6e a5 ff ff       	callq  9d3d <safe_mul_func_uint16_t_u_u>
    f7cf:	66 85 c0             	test   %ax,%ax
    f7d2:	74 07                	je     f7db <func_27+0x1ba4>
    f7d4:	b8 01 00 00 00       	mov    $0x1,%eax
    f7d9:	eb 05                	jmp    f7e0 <func_27+0x1ba9>
    f7db:	b8 00 00 00 00       	mov    $0x0,%eax
    f7e0:	44 31 e0             	xor    %r12d,%eax
    f7e3:	89 de                	mov    %ebx,%esi
    f7e5:	89 c7                	mov    %eax,%edi
    f7e7:	e8 e4 a6 ff ff       	callq  9ed0 <safe_sub_func_uint32_t_u_u>
    f7ec:	89 c2                	mov    %eax,%edx
    f7ee:	48 8b 85 50 f4 ff ff 	mov    -0xbb0(%rbp),%rax
    f7f5:	48 89 d6             	mov    %rdx,%rsi
    f7f8:	48 89 c7             	mov    %rax,%rdi
    f7fb:	e8 f7 a1 ff ff       	callq  99f7 <safe_div_func_int64_t_s_s>
    f800:	48 85 c0             	test   %rax,%rax
    f803:	0f 84 8d 01 00 00    	je     f996 <func_27+0x1d5f>
    f809:	48 c7 85 f8 f0 ff ff 	movq   $0x8,-0xf08(%rbp)
    f810:	08 00 00 00 
    f814:	c7 85 88 ef ff ff 00 	movl   $0x0,-0x1078(%rbp)
    f81b:	00 00 00 
    f81e:	48 c7 85 a8 f0 ff ff 	movq   $0xffffffffffffffe9,-0xf58(%rbp)
    f825:	e9 ff ff ff 
    f829:	e9 58 01 00 00       	jmpq   f986 <func_27+0x1d4f>
    f82e:	c7 85 8c ef ff ff ff 	movl   $0xffffffff,-0x1074(%rbp)
    f835:	ff ff ff 
    f838:	c7 85 90 ef ff ff 2f 	movl   $0x58ef982f,-0x1070(%rbp)
    f83f:	98 ef 58 
    f842:	c7 85 64 ef ff ff 00 	movl   $0x0,-0x109c(%rbp)
    f849:	00 00 00 
    f84c:	e9 20 01 00 00       	jmpq   f971 <func_27+0x1d3a>
    f851:	48 8d 85 90 f1 ff ff 	lea    -0xe70(%rbp),%rax
    f858:	48 83 c0 14          	add    $0x14,%rax
    f85c:	48 89 85 00 f1 ff ff 	mov    %rax,-0xf00(%rbp)
    f863:	48 8b 05 8e cc 00 00 	mov    0xcc8e(%rip),%rax        # 1c4f8 <g_1106>
    f86a:	48 8b 00             	mov    (%rax),%rax
    f86d:	48 8b 00             	mov    (%rax),%rax
    f870:	48 85 c0             	test   %rax,%rax
    f873:	0f 84 b9 00 00 00    	je     f932 <func_27+0x1cfb>
    f879:	48 8b 05 d0 cc 00 00 	mov    0xccd0(%rip),%rax        # 1c550 <g_1315>
    f880:	48 8b 00             	mov    (%rax),%rax
    f883:	48 85 c0             	test   %rax,%rax
    f886:	48 8b 85 08 ef ff ff 	mov    -0x10f8(%rbp),%rax
    f88d:	0f be d0             	movsbl %al,%edx
    f890:	48 8b 85 50 f4 ff ff 	mov    -0xbb0(%rbp),%rax
    f897:	0f be c0             	movsbl %al,%eax
    f89a:	89 d6                	mov    %edx,%esi
    f89c:	89 c7                	mov    %eax,%edi
    f89e:	e8 4f 99 ff ff       	callq  91f2 <safe_sub_func_int8_t_s_s>
    f8a3:	48 8b 85 f8 f0 ff ff 	mov    -0xf08(%rbp),%rax
    f8aa:	0f be d8             	movsbl %al,%ebx
    f8ad:	48 8b 85 08 ef ff ff 	mov    -0x10f8(%rbp),%rax
    f8b4:	0f b7 d0             	movzwl %ax,%edx
    f8b7:	48 8b 85 08 ef ff ff 	mov    -0x10f8(%rbp),%rax
    f8be:	83 c8 02             	or     $0x2,%eax
    f8c1:	0f b7 c0             	movzwl %ax,%eax
    f8c4:	89 d6                	mov    %edx,%esi
    f8c6:	89 c7                	mov    %eax,%edi
    f8c8:	e8 8f a4 ff ff       	callq  9d5c <safe_mod_func_uint16_t_u_u>
    f8cd:	0f be c0             	movsbl %al,%eax
    f8d0:	89 de                	mov    %ebx,%esi
    f8d2:	89 c7                	mov    %eax,%edi
    f8d4:	e8 58 99 ff ff       	callq  9231 <safe_mod_func_int8_t_s_s>
    f8d9:	0f be c0             	movsbl %al,%eax
    f8dc:	89 85 88 ef ff ff    	mov    %eax,-0x1078(%rbp)
    f8e2:	48 8b 05 37 bb 00 00 	mov    0xbb37(%rip),%rax        # 1b420 <g_466>
    f8e9:	48 8b 00             	mov    (%rax),%rax
    f8ec:	48 8b 95 f8 f0 ff ff 	mov    -0xf08(%rbp),%rdx
    f8f3:	89 10                	mov    %edx,(%rax)
    f8f5:	8b 85 8c ef ff ff    	mov    -0x1074(%rbp),%eax
    f8fb:	48 98                	cltq   
    f8fd:	48 be bc 81 b3 3f 35 	movabs $0x1e6dea353fb381bc,%rsi
    f904:	ea 6d 1e 
    f907:	48 89 c7             	mov    %rax,%rdi
    f90a:	e8 a5 a0 ff ff       	callq  99b4 <safe_mod_func_int64_t_s_s>
    f90f:	89 c2                	mov    %eax,%edx
    f911:	8b 85 88 ef ff ff    	mov    -0x1078(%rbp),%eax
    f917:	89 c6                	mov    %eax,%esi
    f919:	89 d7                	mov    %edx,%edi
    f91b:	e8 e5 9c ff ff       	callq  9605 <safe_sub_func_int32_t_s_s>
    f920:	48 98                	cltq   
    f922:	48 39 85 08 ef ff ff 	cmp    %rax,-0x10f8(%rbp)
    f929:	74 07                	je     f932 <func_27+0x1cfb>
    f92b:	ba 01 00 00 00       	mov    $0x1,%edx
    f930:	eb 05                	jmp    f937 <func_27+0x1d00>
    f932:	ba 00 00 00 00       	mov    $0x0,%edx
    f937:	48 8b 05 6a ba 00 00 	mov    0xba6a(%rip),%rax        # 1b3a8 <g_208>
    f93e:	48 8b 00             	mov    (%rax),%rax
    f941:	89 10                	mov    %edx,(%rax)
    f943:	8b 10                	mov    (%rax),%edx
    f945:	48 8b 85 00 f1 ff ff 	mov    -0xf00(%rbp),%rax
    f94c:	89 10                	mov    %edx,(%rax)
    f94e:	48 8b 05 03 d2 00 00 	mov    0xd203(%rip),%rax        # 1cb58 <g_1521>
    f955:	48 8d 95 a0 ef ff ff 	lea    -0x1060(%rbp),%rdx
    f95c:	48 89 10             	mov    %rdx,(%rax)
    f95f:	48 8b 85 00 f1 ff ff 	mov    -0xf00(%rbp),%rax
    f966:	8b 00                	mov    (%rax),%eax
    f968:	85 c0                	test   %eax,%eax
    f96a:	83 85 64 ef ff ff 01 	addl   $0x1,-0x109c(%rbp)
    f971:	83 bd 64 ef ff ff 04 	cmpl   $0x4,-0x109c(%rbp)
    f978:	0f 86 d3 fe ff ff    	jbe    f851 <func_27+0x1c1a>
    f97e:	48 83 85 a8 f0 ff ff 	addq   $0x1,-0xf58(%rbp)
    f985:	01 
    f986:	48 83 bd a8 f0 ff ff 	cmpq   $0x1d,-0xf58(%rbp)
    f98d:	1d 
    f98e:	0f 8f 9a fe ff ff    	jg     f82e <func_27+0x1bf7>
    f994:	eb 0c                	jmp    f9a2 <func_27+0x1d6b>
    f996:	48 8d 05 9b a6 00 00 	lea    0xa69b(%rip),%rax        # 1a038 <g_9>
    f99d:	e9 34 03 00 00       	jmpq   fcd6 <func_27+0x209f>
    f9a2:	48 8b 9d d0 ef ff ff 	mov    -0x1030(%rbp),%rbx
    f9a9:	0f b7 85 52 f3 ff ff 	movzwl -0xcae(%rbp),%eax
    f9b0:	44 0f bf e0          	movswl %ax,%r12d
    f9b4:	48 8b 85 08 ef ff ff 	mov    -0x10f8(%rbp),%rax
    f9bb:	0f b7 c0             	movzwl %ax,%eax
    f9be:	89 c6                	mov    %eax,%esi
    f9c0:	bf 01 00 00 00       	mov    $0x1,%edi
    f9c5:	e8 c4 a3 ff ff       	callq  9d8e <safe_div_func_uint16_t_u_u>
    f9ca:	0f b7 d0             	movzwl %ax,%edx
    f9cd:	8b 85 48 f1 ff ff    	mov    -0xeb8(%rbp),%eax
    f9d3:	09 d0                	or     %edx,%eax
    f9d5:	85 c0                	test   %eax,%eax
    f9d7:	74 11                	je     f9ea <func_27+0x1db3>
    f9d9:	48 83 bd 08 ef ff ff 	cmpq   $0x0,-0x10f8(%rbp)
    f9e0:	00 
    f9e1:	74 07                	je     f9ea <func_27+0x1db3>
    f9e3:	b8 01 00 00 00       	mov    $0x1,%eax
    f9e8:	eb 05                	jmp    f9ef <func_27+0x1db8>
    f9ea:	b8 00 00 00 00       	mov    $0x0,%eax
    f9ef:	44 39 e0             	cmp    %r12d,%eax
    f9f2:	7c 11                	jl     fa05 <func_27+0x1dce>
    f9f4:	8b 85 2c ef ff ff    	mov    -0x10d4(%rbp),%eax
    f9fa:	85 c0                	test   %eax,%eax
    f9fc:	74 07                	je     fa05 <func_27+0x1dce>
    f9fe:	b8 01 00 00 00       	mov    $0x1,%eax
    fa03:	eb 05                	jmp    fa0a <func_27+0x1dd3>
    fa05:	b8 00 00 00 00       	mov    $0x0,%eax
    fa0a:	89 c2                	mov    %eax,%edx
    fa0c:	48 8b 85 08 ef ff ff 	mov    -0x10f8(%rbp),%rax
    fa13:	21 d0                	and    %edx,%eax
    fa15:	0f b6 d0             	movzbl %al,%edx
    fa18:	0f b6 85 1e ef ff ff 	movzbl -0x10e2(%rbp),%eax
    fa1f:	0f b6 c0             	movzbl %al,%eax
    fa22:	89 d6                	mov    %edx,%esi
    fa24:	89 c7                	mov    %eax,%edi
    fa26:	e8 68 a1 ff ff       	callq  9b93 <safe_mul_func_uint8_t_u_u>
    fa2b:	0f b6 c0             	movzbl %al,%eax
    fa2e:	89 85 30 ef ff ff    	mov    %eax,-0x10d0(%rbp)
    fa34:	48 89 de             	mov    %rbx,%rsi
    fa37:	bf 01 00 00 00       	mov    $0x1,%edi
    fa3c:	e8 67 9e ff ff       	callq  98a8 <safe_sub_func_int64_t_s_s>
    fa41:	48 83 c8 fa          	or     $0xfffffffffffffffa,%rax
    fa45:	48 89 c2             	mov    %rax,%rdx
    fa48:	48 8b 85 08 ef ff ff 	mov    -0x10f8(%rbp),%rax
    fa4f:	48 39 c2             	cmp    %rax,%rdx
    fa52:	0f 85 69 01 00 00    	jne    fbc1 <func_27+0x1f8a>
    fa58:	48 8d 85 60 f1 ff ff 	lea    -0xea0(%rbp),%rax
    fa5f:	48 83 c0 0c          	add    $0xc,%rax
    fa63:	48 89 85 10 f1 ff ff 	mov    %rax,-0xef0(%rbp)
    fa6a:	c7 85 80 ef ff ff 00 	movl   $0x0,-0x1080(%rbp)
    fa71:	00 00 00 
    fa74:	eb 1e                	jmp    fa94 <func_27+0x1e5d>
    fa76:	8b 85 80 ef ff ff    	mov    -0x1080(%rbp),%eax
    fa7c:	48 98                	cltq   
    fa7e:	48 8d 95 2c f1 ff ff 	lea    -0xed4(%rbp),%rdx
    fa85:	48 89 94 c5 40 f8 ff 	mov    %rdx,-0x7c0(%rbp,%rax,8)
    fa8c:	ff 
    fa8d:	83 85 80 ef ff ff 01 	addl   $0x1,-0x1080(%rbp)
    fa94:	83 bd 80 ef ff ff 00 	cmpl   $0x0,-0x1080(%rbp)
    fa9b:	7e d9                	jle    fa76 <func_27+0x1e3f>
    fa9d:	80 85 23 ef ff ff 01 	addb   $0x1,-0x10dd(%rbp)
    faa4:	8b 05 f2 a5 00 00    	mov    0xa5f2(%rip),%eax        # 1a09c <g_169>
    faaa:	44 0f b6 e8          	movzbl %al,%r13d
    faae:	0f b6 05 37 a7 00 00 	movzbl 0xa737(%rip),%eax        # 1a1ec <g_378+0xec>
    fab5:	0f b6 d8             	movzbl %al,%ebx
    fab8:	48 8b 85 08 ef ff ff 	mov    -0x10f8(%rbp),%rax
    fabf:	89 c2                	mov    %eax,%edx
    fac1:	8b 85 2c f1 ff ff    	mov    -0xed4(%rbp),%eax
    fac7:	85 c0                	test   %eax,%eax
    fac9:	75 2f                	jne    fafa <func_27+0x1ec3>
    facb:	0f b7 05 a4 7e 00 00 	movzwl 0x7ea4(%rip),%eax        # 17976 <l_1446.4482>
    fad2:	48 0f bf c0          	movswq %ax,%rax
    fad6:	48 89 05 1b e2 00 00 	mov    %rax,0xe21b(%rip)        # 1dcf8 <g_1364>
    fadd:	48 8b 05 14 e2 00 00 	mov    0xe214(%rip),%rax        # 1dcf8 <g_1364>
    fae4:	48 23 85 08 ef ff ff 	and    -0x10f8(%rbp),%rax
    faeb:	48 85 c0             	test   %rax,%rax
    faee:	74 11                	je     fb01 <func_27+0x1eca>
    faf0:	48 83 bd 08 ef ff ff 	cmpq   $0x0,-0x10f8(%rbp)
    faf7:	00 
    faf8:	74 07                	je     fb01 <func_27+0x1eca>
    fafa:	b8 01 00 00 00       	mov    $0x1,%eax
    faff:	eb 05                	jmp    fb06 <func_27+0x1ecf>
    fb01:	b8 00 00 00 00       	mov    $0x0,%eax
    fb06:	89 d6                	mov    %edx,%esi
    fb08:	89 c7                	mov    %eax,%edi
    fb0a:	e8 f0 9b ff ff       	callq  96ff <safe_div_func_int32_t_s_s>
    fb0f:	48 98                	cltq   
    fb11:	48 89 de             	mov    %rbx,%rsi
    fb14:	48 89 c7             	mov    %rax,%rdi
    fb17:	e8 12 a5 ff ff       	callq  a02e <safe_add_func_uint64_t_u_u>
    fb1c:	0f b6 05 09 a6 00 00 	movzbl 0xa609(%rip),%eax        # 1a12c <g_378+0x2c>
    fb23:	83 c8 c7             	or     $0xffffffc7,%eax
    fb26:	0f b6 c0             	movzbl %al,%eax
    fb29:	8b 95 70 ef ff ff    	mov    -0x1090(%rbp),%edx
    fb2f:	48 39 95 08 ef ff ff 	cmp    %rdx,-0x10f8(%rbp)
    fb36:	0f 97 c2             	seta   %dl
    fb39:	0f b6 ca             	movzbl %dl,%ecx
    fb3c:	8b 15 4e a5 00 00    	mov    0xa54e(%rip),%edx        # 1a090 <g_99>
    fb42:	39 d1                	cmp    %edx,%ecx
    fb44:	7f 07                	jg     fb4d <func_27+0x1f16>
    fb46:	ba fe 00 00 00       	mov    $0xfe,%edx
    fb4b:	eb 05                	jmp    fb52 <func_27+0x1f1b>
    fb4d:	ba ff 00 00 00       	mov    $0xff,%edx
    fb52:	89 c6                	mov    %eax,%esi
    fb54:	89 d7                	mov    %edx,%edi
    fb56:	e8 1d a0 ff ff       	callq  9b78 <safe_sub_func_uint8_t_u_u>
    fb5b:	0f b6 c0             	movzbl %al,%eax
    fb5e:	48 39 85 08 ef ff ff 	cmp    %rax,-0x10f8(%rbp)
    fb65:	0f 97 c0             	seta   %al
    fb68:	0f b6 c0             	movzbl %al,%eax
    fb6b:	48 0b 85 08 ef ff ff 	or     -0x10f8(%rbp),%rax
    fb72:	49 89 c6             	mov    %rax,%r14
    fb75:	48 8b 1d 8c e0 00 00 	mov    0xe08c(%rip),%rbx        # 1dc08 <g_77>
    fb7c:	48 8b 05 5d c9 00 00 	mov    0xc95d(%rip),%rax        # 1c4e0 <g_887>
    fb83:	48 8b 00             	mov    (%rax),%rax
    fb86:	8b 00                	mov    (%rax),%eax
    fb88:	be ff ff ff ff       	mov    $0xffffffff,%esi
    fb8d:	89 c7                	mov    %eax,%edi
    fb8f:	e8 38 9b ff ff       	callq  96cc <safe_mod_func_int32_t_s_s>
    fb94:	89 c7                	mov    %eax,%edi
    fb96:	48 8b 05 33 ca 00 00 	mov    0xca33(%rip),%rax        # 1c5d0 <g_1458>
    fb9d:	4c 8b 20             	mov    (%rax),%r12
    fba0:	48 8d 85 2c f1 ff ff 	lea    -0xed4(%rbp),%rax
    fba7:	45 89 e8             	mov    %r13d,%r8d
    fbaa:	48 89 c1             	mov    %rax,%rcx
    fbad:	4c 89 f2             	mov    %r14,%rdx
    fbb0:	48 89 de             	mov    %rbx,%rsi
    fbb3:	e8 26 5c 00 00       	callq  157de <func_58>
    fbb8:	49 89 04 24          	mov    %rax,(%r12)
    fbbc:	e9 e0 00 00 00       	jmpq   fca1 <func_27+0x206a>
    fbc1:	66 c7 85 26 ef ff ff 	movw   $0x511b,-0x10da(%rbp)
    fbc8:	1b 51 
    fbca:	48 c7 85 d0 ef ff ff 	movq   $0x0,-0x1030(%rbp)
    fbd1:	00 00 00 00 
    fbd5:	eb 5a                	jmp    fc31 <func_27+0x1ffa>
    fbd7:	c6 85 23 ef ff ff 00 	movb   $0x0,-0x10dd(%rbp)
    fbde:	eb 36                	jmp    fc16 <func_27+0x1fdf>
    fbe0:	48 8b 95 d0 ef ff ff 	mov    -0x1030(%rbp),%rdx
    fbe7:	0f b6 85 23 ef ff ff 	movzbl -0x10dd(%rbp),%eax
    fbee:	48 63 c8             	movslq %eax,%rcx
    fbf1:	48 89 d0             	mov    %rdx,%rax
    fbf4:	48 01 c0             	add    %rax,%rax
    fbf7:	48 01 d0             	add    %rdx,%rax
    fbfa:	48 01 c0             	add    %rax,%rax
    fbfd:	48 01 c8             	add    %rcx,%rax
    fc00:	48 8d 15 b9 e0 00 00 	lea    0xe0b9(%rip),%rdx        # 1dcc0 <g_904>
    fc07:	48 89 94 c5 40 f5 ff 	mov    %rdx,-0xac0(%rbp,%rax,8)
    fc0e:	ff 
    fc0f:	80 85 23 ef ff ff 01 	addb   $0x1,-0x10dd(%rbp)
    fc16:	80 bd 23 ef ff ff 05 	cmpb   $0x5,-0x10dd(%rbp)
    fc1d:	76 c1                	jbe    fbe0 <func_27+0x1fa9>
    fc1f:	48 8b 85 d0 ef ff ff 	mov    -0x1030(%rbp),%rax
    fc26:	48 83 c0 01          	add    $0x1,%rax
    fc2a:	48 89 85 d0 ef ff ff 	mov    %rax,-0x1030(%rbp)
    fc31:	48 8b 85 d0 ef ff ff 	mov    -0x1030(%rbp),%rax
    fc38:	48 83 f8 06          	cmp    $0x6,%rax
    fc3c:	7e 99                	jle    fbd7 <func_27+0x1fa0>
    fc3e:	48 c7 85 d0 ef ff ff 	movq   $0xd,-0x1030(%rbp)
    fc45:	0d 00 00 00 
    fc49:	eb 49                	jmp    fc94 <func_27+0x205d>
    fc4b:	48 8b 05 4e b7 00 00 	mov    0xb74e(%rip),%rax        # 1b3a0 <g_209>
    fc52:	8b 00                	mov    (%rax),%eax
    fc54:	89 c2                	mov    %eax,%edx
    fc56:	48 8b 85 08 ef ff ff 	mov    -0x10f8(%rbp),%rax
    fc5d:	89 d6                	mov    %edx,%esi
    fc5f:	89 c7                	mov    %eax,%edi
    fc61:	e8 6a a2 ff ff       	callq  9ed0 <safe_sub_func_uint32_t_u_u>
    fc66:	89 c2                	mov    %eax,%edx
    fc68:	0f b7 85 26 ef ff ff 	movzwl -0x10da(%rbp),%eax
    fc6f:	21 d0                	and    %edx,%eax
    fc71:	66 89 85 26 ef ff ff 	mov    %ax,-0x10da(%rbp)
    fc78:	48 8b 85 d0 ef ff ff 	mov    -0x1030(%rbp),%rax
    fc7f:	be 01 00 00 00       	mov    $0x1,%esi
    fc84:	89 c7                	mov    %eax,%edi
    fc86:	e8 45 a2 ff ff       	callq  9ed0 <safe_sub_func_uint32_t_u_u>
    fc8b:	89 c0                	mov    %eax,%eax
    fc8d:	48 89 85 d0 ef ff ff 	mov    %rax,-0x1030(%rbp)
    fc94:	48 8b 85 d0 ef ff ff 	mov    -0x1030(%rbp),%rax
    fc9b:	48 83 f8 0a          	cmp    $0xa,%rax
    fc9f:	74 aa                	je     fc4b <func_27+0x2014>
    fca1:	0f b6 05 90 a3 00 00 	movzbl 0xa390(%rip),%eax        # 1a038 <g_9>
    fca8:	0f be c0             	movsbl %al,%eax
    fcab:	be 01 00 00 00       	mov    $0x1,%esi
    fcb0:	89 c7                	mov    %eax,%edi
    fcb2:	e8 ff 98 ff ff       	callq  95b6 <safe_add_func_int32_t_s_s>
    fcb7:	88 05 7b a3 00 00    	mov    %al,0xa37b(%rip)        # 1a038 <g_9>
    fcbd:	0f b6 05 74 a3 00 00 	movzbl 0xa374(%rip),%eax        # 1a038 <g_9>
    fcc4:	3c 02                	cmp    $0x2,%al
    fcc6:	0f 8f fa e3 ff ff    	jg     e0c6 <func_27+0x48f>
    fccc:	eb 01                	jmp    fccf <func_27+0x2098>
    fcce:	90                   	nop
    fccf:	48 8d 05 ca df 00 00 	lea    0xdfca(%rip),%rax        # 1dca0 <g_563>
    fcd6:	48 8b 5d c8          	mov    -0x38(%rbp),%rbx
    fcda:	64 48 33 1c 25 28 00 	xor    %fs:0x28,%rbx
    fce1:	00 00 
    fce3:	74 05                	je     fcea <func_27+0x20b3>
    fce5:	e8 86 93 ff ff       	callq  9070 <__stack_chk_fail@plt>
    fcea:	48 81 c4 e8 10 00 00 	add    $0x10e8,%rsp
    fcf1:	5b                   	pop    %rbx
    fcf2:	41 5c                	pop    %r12
    fcf4:	41 5d                	pop    %r13
    fcf6:	41 5e                	pop    %r14
    fcf8:	41 5f                	pop    %r15
    fcfa:	5d                   	pop    %rbp
    fcfb:	c3                   	retq   

000000000000fcfc <func_45>:
    fcfc:	f3 0f 1e fa          	endbr64 
    fd00:	55                   	push   %rbp
    fd01:	48 89 e5             	mov    %rsp,%rbp
    fd04:	41 57                	push   %r15
    fd06:	41 56                	push   %r14
    fd08:	41 55                	push   %r13
    fd0a:	41 54                	push   %r12
    fd0c:	53                   	push   %rbx
    fd0d:	48 81 ec 58 0c 00 00 	sub    $0xc58,%rsp
    fd14:	48 89 bd 98 f3 ff ff 	mov    %rdi,-0xc68(%rbp)
    fd1b:	48 89 b5 90 f3 ff ff 	mov    %rsi,-0xc70(%rbp)
    fd22:	48 89 95 88 f3 ff ff 	mov    %rdx,-0xc78(%rbp)
    fd29:	64 48 8b 04 25 28 00 	mov    %fs:0x28,%rax
    fd30:	00 00 
    fd32:	48 89 45 c8          	mov    %rax,-0x38(%rbp)
    fd36:	31 c0                	xor    %eax,%eax
    fd38:	48 8d 05 01 b7 00 00 	lea    0xb701(%rip),%rax        # 1b440 <g_492>
    fd3f:	48 89 85 78 f4 ff ff 	mov    %rax,-0xb88(%rbp)
    fd46:	48 c7 85 38 f4 ff ff 	movq   $0x0,-0xbc8(%rbp)
    fd4d:	00 00 00 00 
    fd51:	48 8d 85 38 f4 ff ff 	lea    -0xbc8(%rbp),%rax
    fd58:	48 89 85 40 f4 ff ff 	mov    %rax,-0xbc0(%rbp)
    fd5f:	48 8d 85 40 f4 ff ff 	lea    -0xbc0(%rbp),%rax
    fd66:	48 89 85 48 f4 ff ff 	mov    %rax,-0xbb8(%rbp)
    fd6d:	48 8d 85 d0 fb ff ff 	lea    -0x430(%rbp),%rax
    fd74:	48 8d 15 25 67 00 00 	lea    0x6725(%rip),%rdx        # 164a0 <g_1624+0x440>
    fd7b:	b9 38 00 00 00       	mov    $0x38,%ecx
    fd80:	48 89 c7             	mov    %rax,%rdi
    fd83:	48 89 d6             	mov    %rdx,%rsi
    fd86:	f3 48 a5             	rep movsq %ds:(%rsi),%es:(%rdi)
    fd89:	66 c7 85 b0 f3 ff ff 	movw   $0x1,-0xc50(%rbp)
    fd90:	01 00 
    fd92:	48 8d 05 37 c5 00 00 	lea    0xc537(%rip),%rax        # 1c2d0 <g_793+0x210>
    fd99:	48 89 85 80 f4 ff ff 	mov    %rax,-0xb80(%rbp)
    fda0:	48 8d 85 c0 f5 ff ff 	lea    -0xa40(%rbp),%rax
    fda7:	48 83 c0 08          	add    $0x8,%rax
    fdab:	48 89 85 88 f4 ff ff 	mov    %rax,-0xb78(%rbp)
    fdb2:	48 b8 55 67 40 08 21 	movabs $0x6d1f222108406755,%rax
    fdb9:	22 1f 6d 
    fdbc:	48 89 85 90 f4 ff ff 	mov    %rax,-0xb70(%rbp)
    fdc3:	c7 85 d0 f3 ff ff 00 	movl   $0x0,-0xc30(%rbp)
    fdca:	00 00 00 
    fdcd:	eb 1a                	jmp    fde9 <func_45+0xed>
    fdcf:	8b 85 d0 f3 ff ff    	mov    -0xc30(%rbp),%eax
    fdd5:	48 98                	cltq   
    fdd7:	c7 84 85 64 f5 ff ff 	movl   $0xfffffff7,-0xa9c(%rbp,%rax,4)
    fdde:	f7 ff ff ff 
    fde2:	83 85 d0 f3 ff ff 01 	addl   $0x1,-0xc30(%rbp)
    fde9:	83 bd d0 f3 ff ff 02 	cmpl   $0x2,-0xc30(%rbp)
    fdf0:	7e dd                	jle    fdcf <func_45+0xd3>
    fdf2:	c7 85 d0 f3 ff ff 00 	movl   $0x0,-0xc30(%rbp)
    fdf9:	00 00 00 
    fdfc:	eb 22                	jmp    fe20 <func_45+0x124>
    fdfe:	8b 85 d0 f3 ff ff    	mov    -0xc30(%rbp),%eax
    fe04:	48 98                	cltq   
    fe06:	48 8d 95 64 f5 ff ff 	lea    -0xa9c(%rbp),%rdx
    fe0d:	48 83 c2 08          	add    $0x8,%rdx
    fe11:	48 89 94 c5 c0 f5 ff 	mov    %rdx,-0xa40(%rbp,%rax,8)
    fe18:	ff 
    fe19:	83 85 d0 f3 ff ff 01 	addl   $0x1,-0xc30(%rbp)
    fe20:	83 bd d0 f3 ff ff 04 	cmpl   $0x4,-0xc30(%rbp)
    fe27:	7e d5                	jle    fdfe <func_45+0x102>
    fe29:	66 c7 05 0e a2 00 00 	movw   $0x0,0xa20e(%rip)        # 1a040 <g_75>
    fe30:	00 00 
    fe32:	e9 69 15 00 00       	jmpq   113a0 <func_45+0x16a4>
    fe37:	c7 85 b8 f3 ff ff 01 	movl   $0x1,-0xc48(%rbp)
    fe3e:	00 00 00 
    fe41:	48 8d 85 d0 f8 ff ff 	lea    -0x730(%rbp),%rax
    fe48:	48 8d 15 11 68 00 00 	lea    0x6811(%rip),%rdx        # 16660 <g_1624+0x600>
    fe4f:	b9 28 00 00 00       	mov    $0x28,%ecx
    fe54:	48 89 c7             	mov    %rax,%rdi
    fe57:	48 89 d6             	mov    %rdx,%rsi
    fe5a:	f3 48 a5             	rep movsq %ds:(%rsi),%es:(%rdi)
    fe5d:	48 89 f2             	mov    %rsi,%rdx
    fe60:	48 89 f8             	mov    %rdi,%rax
    fe63:	8b 0a                	mov    (%rdx),%ecx
    fe65:	89 08                	mov    %ecx,(%rax)
    fe67:	48 8d 05 c2 a1 00 00 	lea    0xa1c2(%rip),%rax        # 1a030 <g_5>
    fe6e:	48 89 85 50 f4 ff ff 	mov    %rax,-0xbb0(%rbp)
    fe75:	48 8d 85 50 f4 ff ff 	lea    -0xbb0(%rbp),%rax
    fe7c:	48 89 85 98 f4 ff ff 	mov    %rax,-0xb68(%rbp)
    fe83:	48 8d 05 9e b5 00 00 	lea    0xb59e(%rip),%rax        # 1b428 <g_469>
    fe8a:	48 89 85 a0 f4 ff ff 	mov    %rax,-0xb60(%rbp)
    fe91:	c7 85 e8 f3 ff ff 01 	movl   $0x1,-0xc18(%rbp)
    fe98:	00 00 00 
    fe9b:	48 8d 85 b0 f7 ff ff 	lea    -0x850(%rbp),%rax
    fea2:	48 8d 15 17 69 00 00 	lea    0x6917(%rip),%rdx        # 167c0 <g_1624+0x760>
    fea9:	b9 24 00 00 00       	mov    $0x24,%ecx
    feae:	48 89 c7             	mov    %rax,%rdi
    feb1:	48 89 d6             	mov    %rdx,%rsi
    feb4:	f3 48 a5             	rep movsq %ds:(%rsi),%es:(%rdi)
    feb7:	48 8d 05 62 b9 00 00 	lea    0xb962(%rip),%rax        # 1b820 <g_490+0x3a0>
    febe:	48 89 85 a8 f4 ff ff 	mov    %rax,-0xb58(%rbp)
    fec5:	48 8d 05 9c b5 00 00 	lea    0xb59c(%rip),%rax        # 1b468 <g_492+0x28>
    fecc:	48 89 85 b0 f4 ff ff 	mov    %rax,-0xb50(%rbp)
    fed3:	c6 85 af f3 ff ff 45 	movb   $0x45,-0xc51(%rbp)
    feda:	48 b8 eb 32 05 1d 50 	movabs $0xe7ff1e501d0532eb,%rax
    fee1:	1e ff e7 
    fee4:	48 89 85 70 f4 ff ff 	mov    %rax,-0xb90(%rbp)
    feeb:	48 8d 05 de dd 00 00 	lea    0xddde(%rip),%rax        # 1dcd0 <g_1012>
    fef2:	48 89 85 b8 f4 ff ff 	mov    %rax,-0xb48(%rbp)
    fef9:	c7 85 c4 f3 ff ff 00 	movl   $0x0,-0xc3c(%rbp)
    ff00:	00 00 00 
    ff03:	eb 46                	jmp    ff4b <func_45+0x24f>
    ff05:	c7 85 c8 f3 ff ff 00 	movl   $0x0,-0xc38(%rbp)
    ff0c:	00 00 00 
    ff0f:	eb 2a                	jmp    ff3b <func_45+0x23f>
    ff11:	8b 85 c8 f3 ff ff    	mov    -0xc38(%rbp),%eax
    ff17:	48 98                	cltq   
    ff19:	8b 95 c4 f3 ff ff    	mov    -0xc3c(%rbp),%edx
    ff1f:	48 63 d2             	movslq %edx,%rdx
    ff22:	48 01 d2             	add    %rdx,%rdx
    ff25:	48 01 d0             	add    %rdx,%rax
    ff28:	48 c7 84 c5 80 f5 ff 	movq   $0x1,-0xa80(%rbp,%rax,8)
    ff2f:	ff 01 00 00 00 
    ff34:	83 85 c8 f3 ff ff 01 	addl   $0x1,-0xc38(%rbp)
    ff3b:	83 bd c8 f3 ff ff 01 	cmpl   $0x1,-0xc38(%rbp)
    ff42:	7e cd                	jle    ff11 <func_45+0x215>
    ff44:	83 85 c4 f3 ff ff 01 	addl   $0x1,-0xc3c(%rbp)
    ff4b:	83 bd c4 f3 ff ff 00 	cmpl   $0x0,-0xc3c(%rbp)
    ff52:	7e b1                	jle    ff05 <func_45+0x209>
    ff54:	8b 85 b8 f3 ff ff    	mov    -0xc48(%rbp),%eax
    ff5a:	85 c0                	test   %eax,%eax
    ff5c:	0f 85 51 14 00 00    	jne    113b3 <func_45+0x16b7>
    ff62:	c7 05 24 a1 00 00 05 	movl   $0x5,0xa124(%rip)        # 1a090 <g_99>
    ff69:	00 00 00 
    ff6c:	e9 3f 11 00 00       	jmpq   110b0 <func_45+0x13b4>
    ff71:	48 8d 85 b8 f3 ff ff 	lea    -0xc48(%rbp),%rax
    ff78:	48 89 85 58 f4 ff ff 	mov    %rax,-0xba8(%rbp)
    ff7f:	48 8d 05 50 a1 00 00 	lea    0xa150(%rip),%rax        # 1a0d6 <g_172+0x6>
    ff86:	48 89 85 c0 f4 ff ff 	mov    %rax,-0xb40(%rbp)
    ff8d:	c7 85 bc f3 ff ff 04 	movl   $0xce2e3f04,-0xc44(%rbp)
    ff94:	3f 2e ce 
    ff97:	66 c7 85 b2 f3 ff ff 	movw   $0xd844,-0xc4e(%rbp)
    ff9e:	44 d8 
    ffa0:	48 8d 05 c9 b4 00 00 	lea    0xb4c9(%rip),%rax        # 1b470 <g_491>
    ffa7:	48 89 85 c8 f4 ff ff 	mov    %rax,-0xb38(%rbp)
    ffae:	48 b8 db 70 62 65 b8 	movabs $0xdc9a49b8656270db,%rax
    ffb5:	49 9a dc 
    ffb8:	48 89 85 d0 f4 ff ff 	mov    %rax,-0xb30(%rbp)
    ffbf:	c7 85 cc f3 ff ff 00 	movl   $0x0,-0xc34(%rbp)
    ffc6:	00 00 00 
    ffc9:	eb 1e                	jmp    ffe9 <func_45+0x2ed>
    ffcb:	8b 85 cc f3 ff ff    	mov    -0xc34(%rbp),%eax
    ffd1:	48 98                	cltq   
    ffd3:	48 8d 15 36 dc 00 00 	lea    0xdc36(%rip),%rdx        # 1dc10 <g_79>
    ffda:	48 89 94 c5 20 f6 ff 	mov    %rdx,-0x9e0(%rbp,%rax,8)
    ffe1:	ff 
    ffe2:	83 85 cc f3 ff ff 01 	addl   $0x1,-0xc34(%rbp)
    ffe9:	83 bd cc f3 ff ff 06 	cmpl   $0x6,-0xc34(%rbp)
    fff0:	7e d9                	jle    ffcb <func_45+0x2cf>
    fff2:	c7 85 cc f3 ff ff 00 	movl   $0x0,-0xc34(%rbp)
    fff9:	00 00 00 
    fffc:	eb 1e                	jmp    1001c <func_45+0x320>
    fffe:	8b 85 cc f3 ff ff    	mov    -0xc34(%rbp),%eax
   10004:	48 98                	cltq   
   10006:	48 8d 15 b3 dc 00 00 	lea    0xdcb3(%rip),%rdx        # 1dcc0 <g_904>
   1000d:	48 89 94 c5 60 f6 ff 	mov    %rdx,-0x9a0(%rbp,%rax,8)
   10014:	ff 
   10015:	83 85 cc f3 ff ff 01 	addl   $0x1,-0xc34(%rbp)
   1001c:	83 bd cc f3 ff ff 06 	cmpl   $0x6,-0xc34(%rbp)
   10023:	7e d9                	jle    fffe <func_45+0x302>
   10025:	48 8b 85 58 f4 ff ff 	mov    -0xba8(%rbp),%rax
   1002c:	c7 00 05 00 00 00    	movl   $0x5,(%rax)
   10032:	48 8b 05 f7 9f 00 00 	mov    0x9ff7(%rip),%rax        # 1a030 <g_5>
   10039:	89 c3                	mov    %eax,%ebx
   1003b:	48 8b 85 88 f3 ff ff 	mov    -0xc78(%rbp),%rax
   10042:	0f b6 00             	movzbl (%rax),%eax
   10045:	84 c0                	test   %al,%al
   10047:	75 5c                	jne    100a5 <func_45+0x3a9>
   10049:	48 8b 85 88 f3 ff ff 	mov    -0xc78(%rbp),%rax
   10050:	0f b6 00             	movzbl (%rax),%eax
   10053:	0f b6 c0             	movzbl %al,%eax
   10056:	48 8b 95 c0 f4 ff ff 	mov    -0xb40(%rbp),%rdx
   1005d:	66 c7 02 82 4c       	movw   $0x4c82,(%rdx)
   10062:	48 8b 15 3f dc 00 00 	mov    0xdc3f(%rip),%rdx        # 1dca8 <g_780>
   10069:	48 8b 95 88 f3 ff ff 	mov    -0xc78(%rbp),%rdx
   10070:	0f b6 12             	movzbl (%rdx),%edx
   10073:	48 0f be d2          	movsbq %dl,%rdx
   10077:	48 39 95 90 f3 ff ff 	cmp    %rdx,-0xc70(%rbp)
   1007e:	0f 9e c1             	setle  %cl
   10081:	48 8b 95 58 f4 ff ff 	mov    -0xba8(%rbp),%rdx
   10088:	0f b6 c9             	movzbl %cl,%ecx
   1008b:	89 0a                	mov    %ecx,(%rdx)
   1008d:	48 83 bd 90 f3 ff ff 	cmpq   $0x8,-0xc70(%rbp)
   10094:	08 
   10095:	89 c6                	mov    %eax,%esi
   10097:	bf 00 00 00 00       	mov    $0x0,%edi
   1009c:	e8 b9 9a ff ff       	callq  9b5a <safe_add_func_uint8_t_u_u>
   100a1:	84 c0                	test   %al,%al
   100a3:	74 07                	je     100ac <func_45+0x3b0>
   100a5:	b8 01 00 00 00       	mov    $0x1,%eax
   100aa:	eb 05                	jmp    100b1 <func_45+0x3b5>
   100ac:	b8 00 00 00 00       	mov    $0x0,%eax
   100b1:	0f b6 c0             	movzbl %al,%eax
   100b4:	89 de                	mov    %ebx,%esi
   100b6:	89 c7                	mov    %eax,%edi
   100b8:	e8 01 9c ff ff       	callq  9cbe <safe_rshift_func_uint8_t_u_u>
   100bd:	0f b6 c0             	movzbl %al,%eax
   100c0:	be 45 64 28 d9       	mov    $0xd9286445,%esi
   100c5:	89 c7                	mov    %eax,%edi
   100c7:	e8 31 9e ff ff       	callq  9efd <safe_mod_func_uint32_t_u_u>
   100cc:	8b 95 bc f3 ff ff    	mov    -0xc44(%rbp),%edx
   100d2:	39 d0                	cmp    %edx,%eax
   100d4:	0f 97 c0             	seta   %al
   100d7:	0f b6 c0             	movzbl %al,%eax
   100da:	48 39 85 90 f3 ff ff 	cmp    %rax,-0xc70(%rbp)
   100e1:	0f 9e c0             	setle  %al
   100e4:	0f b6 d0             	movzbl %al,%edx
   100e7:	8b 85 04 f9 ff ff    	mov    -0x6fc(%rbp),%eax
   100ed:	31 d0                	xor    %edx,%eax
   100ef:	89 85 04 f9 ff ff    	mov    %eax,-0x6fc(%rbp)
   100f5:	8b 85 6c f5 ff ff    	mov    -0xa94(%rbp),%eax
   100fb:	0f bf d0             	movswl %ax,%edx
   100fe:	48 83 bd 78 f4 ff ff 	cmpq   $0x0,-0xb88(%rbp)
   10105:	00 
   10106:	0f 95 c0             	setne  %al
   10109:	0f b6 c0             	movzbl %al,%eax
   1010c:	89 d6                	mov    %edx,%esi
   1010e:	89 c7                	mov    %eax,%edi
   10110:	e8 e0 92 ff ff       	callq  93f5 <safe_mul_func_int16_t_s_s>
   10115:	66 3d f4 00          	cmp    $0xf4,%ax
   10119:	0f 9e c0             	setle  %al
   1011c:	0f b6 d8             	movzbl %al,%ebx
   1011f:	8b 95 68 f5 ff ff    	mov    -0xa98(%rbp),%edx
   10125:	48 8b 85 58 f4 ff ff 	mov    -0xba8(%rbp),%rax
   1012c:	8b 30                	mov    (%rax),%esi
   1012e:	48 8b 0d 9b c1 00 00 	mov    0xc19b(%rip),%rcx        # 1c2d0 <g_793+0x210>
   10135:	48 8b 85 48 f4 ff ff 	mov    -0xbb8(%rbp),%rax
   1013c:	48 39 c1             	cmp    %rax,%rcx
   1013f:	0f 95 c0             	setne  %al
   10142:	0f b6 c8             	movzbl %al,%ecx
   10145:	48 8b 85 58 f4 ff ff 	mov    -0xba8(%rbp),%rax
   1014c:	31 f1                	xor    %esi,%ecx
   1014e:	89 08                	mov    %ecx,(%rax)
   10150:	8b 00                	mov    (%rax),%eax
   10152:	89 d6                	mov    %edx,%esi
   10154:	89 c7                	mov    %eax,%edi
   10156:	e8 5b 94 ff ff       	callq  95b6 <safe_add_func_int32_t_s_s>
   1015b:	48 98                	cltq   
   1015d:	48 33 85 90 f3 ff ff 	xor    -0xc70(%rbp),%rax
   10164:	ba 5c b8 05 e1       	mov    $0xe105b85c,%edx
   10169:	48 09 d0             	or     %rdx,%rax
   1016c:	48 39 c3             	cmp    %rax,%rbx
   1016f:	0f 8e c7 04 00 00    	jle    1063c <func_45+0x940>
   10175:	48 8d 05 94 a0 00 00 	lea    0xa094(%rip),%rax        # 1a210 <g_805>
   1017c:	48 89 85 60 f4 ff ff 	mov    %rax,-0xba0(%rbp)
   10183:	c7 85 c0 f3 ff ff 66 	movl   $0x82cb8e66,-0xc40(%rbp)
   1018a:	8e cb 82 
   1018d:	48 8d 05 cc 9e 00 00 	lea    0x9ecc(%rip),%rax        # 1a060 <g_97>
   10194:	48 89 85 68 f4 ff ff 	mov    %rax,-0xb98(%rbp)
   1019b:	48 8d 05 7e da 00 00 	lea    0xda7e(%rip),%rax        # 1dc20 <g_272>
   101a2:	48 89 85 08 f5 ff ff 	mov    %rax,-0xaf8(%rbp)
   101a9:	c7 45 c2 07 01 01 07 	movl   $0x7010107,-0x3e(%rbp)
   101b0:	66 c7 45 c6 01 01    	movw   $0x101,-0x3a(%rbp)
   101b6:	48 c7 85 10 f5 ff ff 	movq   $0x0,-0xaf0(%rbp)
   101bd:	00 00 00 00 
   101c1:	48 8b 85 90 f3 ff ff 	mov    -0xc70(%rbp),%rax
   101c8:	0f be d0             	movsbl %al,%edx
   101cb:	48 8b 85 88 f3 ff ff 	mov    -0xc78(%rbp),%rax
   101d2:	0f b6 00             	movzbl (%rax),%eax
   101d5:	0f be c0             	movsbl %al,%eax
   101d8:	89 d6                	mov    %edx,%esi
   101da:	89 c7                	mov    %eax,%edi
   101dc:	e8 89 90 ff ff       	callq  926a <safe_div_func_int8_t_s_s>
   101e1:	44 0f be e0          	movsbl %al,%r12d
   101e5:	8b 1d b1 9e 00 00    	mov    0x9eb1(%rip),%ebx        # 1a09c <g_169>
   101eb:	48 8b 85 90 f3 ff ff 	mov    -0xc70(%rbp),%rax
   101f2:	41 89 c5             	mov    %eax,%r13d
   101f5:	48 8b 85 60 f4 ff ff 	mov    -0xba0(%rbp),%rax
   101fc:	48 c7 00 01 00 00 00 	movq   $0x1,(%rax)
   10203:	48 8b 85 c0 f4 ff ff 	mov    -0xb40(%rbp),%rax
   1020a:	0f b7 00             	movzwl (%rax),%eax
   1020d:	8d 48 01             	lea    0x1(%rax),%ecx
   10210:	48 8b 95 c0 f4 ff ff 	mov    -0xb40(%rbp),%rdx
   10217:	66 89 0a             	mov    %cx,(%rdx)
   1021a:	0f b7 c0             	movzwl %ax,%eax
   1021d:	be 01 00 00 00       	mov    $0x1,%esi
   10222:	89 c7                	mov    %eax,%edi
   10224:	e8 f6 9a ff ff       	callq  9d1f <safe_sub_func_uint16_t_u_u>
   10229:	0f b7 d0             	movzwl %ax,%edx
   1022c:	8b 85 c0 f3 ff ff    	mov    -0xc40(%rbp),%eax
   10232:	39 c2                	cmp    %eax,%edx
   10234:	0f 94 c2             	sete   %dl
   10237:	48 8b 85 68 f4 ff ff 	mov    -0xb98(%rbp),%rax
   1023e:	0f b6 d2             	movzbl %dl,%edx
   10241:	48 89 10             	mov    %rdx,(%rax)
   10244:	48 8b 00             	mov    (%rax),%rax
   10247:	48 c7 c6 f7 ff ff ff 	mov    $0xfffffffffffffff7,%rsi
   1024e:	48 89 c7             	mov    %rax,%rdi
   10251:	e8 eb 95 ff ff       	callq  9841 <safe_add_func_int64_t_s_s>
   10256:	8b 95 6c f5 ff ff    	mov    -0xa94(%rbp),%edx
   1025c:	48 63 d2             	movslq %edx,%rdx
   1025f:	48 39 d0             	cmp    %rdx,%rax
   10262:	48 8b 95 90 f3 ff ff 	mov    -0xc70(%rbp),%rdx
   10269:	48 8b 85 90 f3 ff ff 	mov    -0xc70(%rbp),%rax
   10270:	48 89 d6             	mov    %rdx,%rsi
   10273:	48 89 c7             	mov    %rax,%rdi
   10276:	e8 c6 95 ff ff       	callq  9841 <safe_add_func_int64_t_s_s>
   1027b:	89 c2                	mov    %eax,%edx
   1027d:	8b 85 c0 f3 ff ff    	mov    -0xc40(%rbp),%eax
   10283:	09 d0                	or     %edx,%eax
   10285:	44 89 ee             	mov    %r13d,%esi
   10288:	89 c7                	mov    %eax,%edi
   1028a:	e8 29 9c ff ff       	callq  9eb8 <safe_add_func_uint32_t_u_u>
   1028f:	98                   	cwtl   
   10290:	89 de                	mov    %ebx,%esi
   10292:	89 c7                	mov    %eax,%edi
   10294:	e8 f9 91 ff ff       	callq  9492 <safe_lshift_func_int16_t_s_s>
   10299:	48 8b 95 08 f5 ff ff 	mov    -0xaf8(%rbp),%rdx
   102a0:	8b 12                	mov    (%rdx),%edx
   102a2:	98                   	cwtl   
   102a3:	21 c2                	and    %eax,%edx
   102a5:	48 8b 85 08 f5 ff ff 	mov    -0xaf8(%rbp),%rax
   102ac:	89 10                	mov    %edx,(%rax)
   102ae:	48 8b 85 08 f5 ff ff 	mov    -0xaf8(%rbp),%rax
   102b5:	8b 00                	mov    (%rax),%eax
   102b7:	85 c0                	test   %eax,%eax
   102b9:	74 11                	je     102cc <func_45+0x5d0>
   102bb:	8b 85 68 f5 ff ff    	mov    -0xa98(%rbp),%eax
   102c1:	85 c0                	test   %eax,%eax
   102c3:	74 07                	je     102cc <func_45+0x5d0>
   102c5:	b8 01 00 00 00       	mov    $0x1,%eax
   102ca:	eb 05                	jmp    102d1 <func_45+0x5d5>
   102cc:	b8 00 00 00 00       	mov    $0x0,%eax
   102d1:	44 39 e0             	cmp    %r12d,%eax
   102d4:	75 0e                	jne    102e4 <func_45+0x5e8>
   102d6:	8b 85 6c f5 ff ff    	mov    -0xa94(%rbp),%eax
   102dc:	85 c0                	test   %eax,%eax
   102de:	0f 84 09 03 00 00    	je     105ed <func_45+0x8f1>
   102e4:	48 8d 05 25 9f 00 00 	lea    0x9f25(%rip),%rax        # 1a210 <g_805>
   102eb:	48 89 85 18 f5 ff ff 	mov    %rax,-0xae8(%rbp)
   102f2:	48 c7 85 20 f5 ff ff 	movq   $0x3,-0xae0(%rbp)
   102f9:	03 00 00 00 
   102fd:	48 8d 85 68 f4 ff ff 	lea    -0xb98(%rbp),%rax
   10304:	48 89 85 28 f5 ff ff 	mov    %rax,-0xad8(%rbp)
   1030b:	c7 85 d4 f3 ff ff 00 	movl   $0x0,-0xc2c(%rbp)
   10312:	00 00 00 
   10315:	eb 1a                	jmp    10331 <func_45+0x635>
   10317:	8b 85 d4 f3 ff ff    	mov    -0xc2c(%rbp),%eax
   1031d:	48 98                	cltq   
   1031f:	c7 84 85 20 fa ff ff 	movl   $0x1,-0x5e0(%rbp,%rax,4)
   10326:	01 00 00 00 
   1032a:	83 85 d4 f3 ff ff 01 	addl   $0x1,-0xc2c(%rbp)
   10331:	83 bd d4 f3 ff ff 00 	cmpl   $0x0,-0xc2c(%rbp)
   10338:	7e dd                	jle    10317 <func_45+0x61b>
   1033a:	c7 85 d4 f3 ff ff 00 	movl   $0x0,-0xc2c(%rbp)
   10341:	00 00 00 
   10344:	eb 1a                	jmp    10360 <func_45+0x664>
   10346:	8b 85 d4 f3 ff ff    	mov    -0xc2c(%rbp),%eax
   1034c:	48 98                	cltq   
   1034e:	c7 84 85 90 fd ff ff 	movl   $0xb7bfa683,-0x270(%rbp,%rax,4)
   10355:	83 a6 bf b7 
   10359:	83 85 d4 f3 ff ff 01 	addl   $0x1,-0xc2c(%rbp)
   10360:	83 bd d4 f3 ff ff 02 	cmpl   $0x2,-0xc2c(%rbp)
   10367:	7e dd                	jle    10346 <func_45+0x64a>
   10369:	48 c7 05 9c 9e 00 00 	movq   $0x0,0x9e9c(%rip)        # 1a210 <g_805>
   10370:	00 00 00 00 
   10374:	e9 36 01 00 00       	jmpq   104af <func_45+0x7b3>
   10379:	c7 85 28 f4 ff ff 5f 	movl   $0x715f465f,-0xbd8(%rbp)
   10380:	46 5f 71 
   10383:	8b 9d 68 f5 ff ff    	mov    -0xa98(%rbp),%ebx
   10389:	48 8b 85 90 f3 ff ff 	mov    -0xc70(%rbp),%rax
   10390:	44 0f b7 e0          	movzwl %ax,%r12d
   10394:	48 8b 85 68 f4 ff ff 	mov    -0xb98(%rbp),%rax
   1039b:	48 8b 95 90 f3 ff ff 	mov    -0xc70(%rbp),%rdx
   103a2:	48 89 10             	mov    %rdx,(%rax)
   103a5:	48 83 bd 18 f5 ff ff 	cmpq   $0x0,-0xae8(%rbp)
   103ac:	00 
   103ad:	0f 94 c0             	sete   %al
   103b0:	0f b6 c0             	movzbl %al,%eax
   103b3:	be 79 31 00 00       	mov    $0x3179,%esi
   103b8:	89 c7                	mov    %eax,%edi
   103ba:	e8 f4 8f ff ff       	callq  93b3 <safe_add_func_int16_t_s_s>
   103bf:	0f b7 c0             	movzwl %ax,%eax
   103c2:	be 01 00 00 00       	mov    $0x1,%esi
   103c7:	89 c7                	mov    %eax,%edi
   103c9:	e8 ac 9a ff ff       	callq  9e7a <safe_rshift_func_uint16_t_u_u>
   103ce:	0f b6 55 c3          	movzbl -0x3d(%rbp),%edx
   103d2:	0f b6 d2             	movzbl %dl,%edx
   103d5:	66 39 d0             	cmp    %dx,%ax
   103d8:	8b 85 6c f5 ff ff    	mov    -0xa94(%rbp),%eax
   103de:	48 98                	cltq   
   103e0:	48 39 85 90 f3 ff ff 	cmp    %rax,-0xc70(%rbp)
   103e7:	0f 9c c0             	setl   %al
   103ea:	0f b6 c0             	movzbl %al,%eax
   103ed:	44 89 e6             	mov    %r12d,%esi
   103f0:	89 c7                	mov    %eax,%edi
   103f2:	e8 46 99 ff ff       	callq  9d3d <safe_mul_func_uint16_t_u_u>
   103f7:	41 89 c4             	mov    %eax,%r12d
   103fa:	48 8b 85 90 f3 ff ff 	mov    -0xc70(%rbp),%rax
   10401:	0f be d0             	movsbl %al,%edx
   10404:	48 81 bd 90 f3 ff ff 	cmpq   $0xb9ad,-0xc70(%rbp)
   1040b:	ad b9 00 00 
   1040f:	0f 9f c0             	setg   %al
   10412:	0f b6 c0             	movzbl %al,%eax
   10415:	89 d6                	mov    %edx,%esi
   10417:	89 c7                	mov    %eax,%edi
   10419:	e8 d4 8d ff ff       	callq  91f2 <safe_sub_func_int8_t_s_s>
   1041e:	48 0f be c0          	movsbq %al,%rax
   10422:	48 8b 95 90 f3 ff ff 	mov    -0xc70(%rbp),%rdx
   10429:	48 89 d6             	mov    %rdx,%rsi
   1042c:	48 89 c7             	mov    %rax,%rdi
   1042f:	e8 80 95 ff ff       	callq  99b4 <safe_mod_func_int64_t_s_s>
   10434:	48 8b 85 58 f4 ff ff 	mov    -0xba8(%rbp),%rax
   1043b:	8b 08                	mov    (%rax),%ecx
   1043d:	41 0f b7 d4          	movzwl %r12w,%edx
   10441:	48 8b 85 58 f4 ff ff 	mov    -0xba8(%rbp),%rax
   10448:	31 ca                	xor    %ecx,%edx
   1044a:	89 10                	mov    %edx,(%rax)
   1044c:	8b 85 6c f5 ff ff    	mov    -0xa94(%rbp),%eax
   10452:	85 c0                	test   %eax,%eax
   10454:	74 07                	je     1045d <func_45+0x761>
   10456:	b8 01 00 00 00       	mov    $0x1,%eax
   1045b:	eb 05                	jmp    10462 <func_45+0x766>
   1045d:	b8 00 00 00 00       	mov    $0x0,%eax
   10462:	89 c2                	mov    %eax,%edx
   10464:	0f b6 45 c3          	movzbl -0x3d(%rbp),%eax
   10468:	09 d0                	or     %edx,%eax
   1046a:	0f be c0             	movsbl %al,%eax
   1046d:	89 de                	mov    %ebx,%esi
   1046f:	89 c7                	mov    %eax,%edi
   10471:	e8 bf 8e ff ff       	callq  9335 <safe_rshift_func_int8_t_s_s>
   10476:	0f be d0             	movsbl %al,%edx
   10479:	8b 85 28 f4 ff ff    	mov    -0xbd8(%rbp),%eax
   1047f:	89 d6                	mov    %edx,%esi
   10481:	89 c7                	mov    %eax,%edi
   10483:	e8 9d 9a ff ff       	callq  9f25 <safe_div_func_uint32_t_u_u>
   10488:	89 c7                	mov    %eax,%edi
   1048a:	e8 17 9a ff ff       	callq  9ea6 <safe_unary_minus_func_uint32_t_u>
   1048f:	8b 95 a4 fc ff ff    	mov    -0x35c(%rbp),%edx
   10495:	09 d0                	or     %edx,%eax
   10497:	89 85 a4 fc ff ff    	mov    %eax,-0x35c(%rbp)
   1049d:	48 8b 05 6c 9d 00 00 	mov    0x9d6c(%rip),%rax        # 1a210 <g_805>
   104a4:	48 83 c0 01          	add    $0x1,%rax
   104a8:	48 89 05 61 9d 00 00 	mov    %rax,0x9d61(%rip)        # 1a210 <g_805>
   104af:	48 8b 05 5a 9d 00 00 	mov    0x9d5a(%rip),%rax        # 1a210 <g_805>
   104b6:	48 83 f8 03          	cmp    $0x3,%rax
   104ba:	0f 86 b9 fe ff ff    	jbe    10379 <func_45+0x67d>
   104c0:	48 8b 05 b9 bf 00 00 	mov    0xbfb9(%rip),%rax        # 1c480 <g_835>
   104c7:	48 8d 95 d0 fb ff ff 	lea    -0x430(%rbp),%rdx
   104ce:	48 81 c2 d4 00 00 00 	add    $0xd4,%rdx
   104d5:	48 89 10             	mov    %rdx,(%rax)
   104d8:	48 8b 85 90 f3 ff ff 	mov    -0xc70(%rbp),%rax
   104df:	89 c3                	mov    %eax,%ebx
   104e1:	48 8b 85 20 f5 ff ff 	mov    -0xae0(%rbp),%rax
   104e8:	41 89 c4             	mov    %eax,%r12d
   104eb:	be 02 00 00 00       	mov    $0x2,%esi
   104f0:	bf 2f 00 00 00       	mov    $0x2f,%edi
   104f5:	e8 c4 97 ff ff       	callq  9cbe <safe_rshift_func_uint8_t_u_u>
   104fa:	8b 85 90 fd ff ff    	mov    -0x270(%rbp),%eax
   10500:	83 f0 08             	xor    $0x8,%eax
   10503:	89 85 90 fd ff ff    	mov    %eax,-0x270(%rbp)
   10509:	48 83 bd 10 f5 ff ff 	cmpq   $0x0,-0xaf0(%rbp)
   10510:	00 
   10511:	0f 95 c0             	setne  %al
   10514:	0f b6 c0             	movzbl %al,%eax
   10517:	be 06 00 00 00       	mov    $0x6,%esi
   1051c:	89 c7                	mov    %eax,%edi
   1051e:	e8 d2 8e ff ff       	callq  93f5 <safe_mul_func_int16_t_s_s>
   10523:	be 01 00 00 00       	mov    $0x1,%esi
   10528:	bf fa 00 00 00       	mov    $0xfa,%edi
   1052d:	e8 61 96 ff ff       	callq  9b93 <safe_mul_func_uint8_t_u_u>
   10532:	0f b6 c0             	movzbl %al,%eax
   10535:	48 be 00 8c d3 52 51 	movabs $0xdaf0835152d38c00,%rsi
   1053c:	83 f0 da 
   1053f:	48 89 c7             	mov    %rax,%rdi
   10542:	e8 04 9b ff ff       	callq  a04b <safe_sub_func_uint64_t_u_u>
   10547:	48 83 f8 04          	cmp    $0x4,%rax
   1054b:	48 8d 85 60 f4 ff ff 	lea    -0xba0(%rbp),%rax
   10552:	48 39 85 98 f4 ff ff 	cmp    %rax,-0xb68(%rbp)
   10559:	0f 95 c0             	setne  %al
   1055c:	0f b6 c0             	movzbl %al,%eax
   1055f:	be 01 00 00 00       	mov    $0x1,%esi
   10564:	89 c7                	mov    %eax,%edi
   10566:	e8 dd 98 ff ff       	callq  9e48 <safe_rshift_func_uint16_t_u_s>
   1056b:	0f b6 c0             	movzbl %al,%eax
   1056e:	44 89 e6             	mov    %r12d,%esi
   10571:	89 c7                	mov    %eax,%edi
   10573:	e8 8d 96 ff ff       	callq  9c05 <safe_lshift_func_uint8_t_u_s>
   10578:	8b 85 a4 fc ff ff    	mov    -0x35c(%rbp),%eax
   1057e:	0f bf d0             	movswl %ax,%edx
   10581:	48 83 bd 88 f3 ff ff 	cmpq   $0x0,-0xc78(%rbp)
   10588:	00 
   10589:	0f 95 c0             	setne  %al
   1058c:	0f b6 c0             	movzbl %al,%eax
   1058f:	89 d6                	mov    %edx,%esi
   10591:	89 c7                	mov    %eax,%edi
   10593:	e8 7e 8e ff ff       	callq  9416 <safe_mod_func_int16_t_s_s>
   10598:	98                   	cwtl   
   10599:	89 de                	mov    %ebx,%esi
   1059b:	89 c7                	mov    %eax,%edi
   1059d:	e8 63 90 ff ff       	callq  9605 <safe_sub_func_int32_t_s_s>
   105a2:	85 c0                	test   %eax,%eax
   105a4:	74 3c                	je     105e2 <func_45+0x8e6>
   105a6:	48 8d 85 c0 f3 ff ff 	lea    -0xc40(%rbp),%rax
   105ad:	48 89 85 30 f5 ff ff 	mov    %rax,-0xad0(%rbp)
   105b4:	48 8b 05 d5 be 00 00 	mov    0xbed5(%rip),%rax        # 1c490 <g_860>
   105bb:	48 8b 95 a0 f4 ff ff 	mov    -0xb60(%rbp),%rdx
   105c2:	48 89 10             	mov    %rdx,(%rax)
   105c5:	48 8b 85 30 f5 ff ff 	mov    -0xad0(%rbp),%rax
   105cc:	48 89 85 c8 f5 ff ff 	mov    %rax,-0xa38(%rbp)
   105d3:	48 83 bd 90 f3 ff ff 	cmpq   $0x0,-0xc70(%rbp)
   105da:	00 
   105db:	74 4b                	je     10628 <func_45+0x92c>
   105dd:	e9 dc 0a 00 00       	jmpq   110be <func_45+0x13c2>
   105e2:	8b 85 e8 f3 ff ff    	mov    -0xc18(%rbp),%eax
   105e8:	e9 14 0e 00 00       	jmpq   11401 <func_45+0x1705>
   105ed:	c7 85 20 f4 ff ff fa 	movl   $0xfffffffa,-0xbe0(%rbp)
   105f4:	ff ff ff 
   105f7:	c7 85 24 f4 ff ff 01 	movl   $0x1,-0xbdc(%rbp)
   105fe:	00 00 00 
   10601:	48 8b 85 90 f3 ff ff 	mov    -0xc70(%rbp),%rax
   10608:	89 c2                	mov    %eax,%edx
   1060a:	8b 05 00 d6 00 00    	mov    0xd600(%rip),%eax        # 1dc10 <g_79>
   10610:	31 d0                	xor    %edx,%eax
   10612:	89 05 f8 d5 00 00    	mov    %eax,0xd5f8(%rip)        # 1dc10 <g_79>
   10618:	48 83 bd 90 f3 ff ff 	cmpq   $0x0,-0xc70(%rbp)
   1061f:	00 
   10620:	0f 85 7a 0a 00 00    	jne    110a0 <func_45+0x13a4>
   10626:	eb 01                	jmp    10629 <func_45+0x92d>
   10628:	90                   	nop
   10629:	48 83 bd 90 f3 ff ff 	cmpq   $0x0,-0xc70(%rbp)
   10630:	00 
   10631:	0f 84 cf 09 00 00    	je     11006 <func_45+0x130a>
   10637:	e9 65 0a 00 00       	jmpq   110a1 <func_45+0x13a5>
   1063c:	48 8d 05 c3 9b 00 00 	lea    0x9bc3(%rip),%rax        # 1a206 <g_475>
   10643:	48 89 85 d8 f4 ff ff 	mov    %rax,-0xb28(%rbp)
   1064a:	c7 85 60 f4 ff ff 29 	movl   $0xc4deb429,-0xba0(%rbp)
   10651:	b4 de c4 
   10654:	48 8d 85 40 f4 ff ff 	lea    -0xbc0(%rbp),%rax
   1065b:	48 89 85 e0 f4 ff ff 	mov    %rax,-0xb20(%rbp)
   10662:	48 8d 05 d3 99 00 00 	lea    0x99d3(%rip),%rax        # 1a03c <g_72>
   10669:	48 89 85 a0 f6 ff ff 	mov    %rax,-0x960(%rbp)
   10670:	48 8d 05 c5 99 00 00 	lea    0x99c5(%rip),%rax        # 1a03c <g_72>
   10677:	48 89 85 a8 f6 ff ff 	mov    %rax,-0x958(%rbp)
   1067e:	48 8d 05 b7 99 00 00 	lea    0x99b7(%rip),%rax        # 1a03c <g_72>
   10685:	48 89 85 b0 f6 ff ff 	mov    %rax,-0x950(%rbp)
   1068c:	48 8d 05 a9 99 00 00 	lea    0x99a9(%rip),%rax        # 1a03c <g_72>
   10693:	48 89 85 b8 f6 ff ff 	mov    %rax,-0x948(%rbp)
   1069a:	48 8d 05 9b 99 00 00 	lea    0x999b(%rip),%rax        # 1a03c <g_72>
   106a1:	48 89 85 c0 f6 ff ff 	mov    %rax,-0x940(%rbp)
   106a8:	48 8d 05 8d 99 00 00 	lea    0x998d(%rip),%rax        # 1a03c <g_72>
   106af:	48 89 85 c8 f6 ff ff 	mov    %rax,-0x938(%rbp)
   106b6:	48 8d 05 7f 99 00 00 	lea    0x997f(%rip),%rax        # 1a03c <g_72>
   106bd:	48 89 85 d0 f6 ff ff 	mov    %rax,-0x930(%rbp)
   106c4:	48 8d 05 45 9b 00 00 	lea    0x9b45(%rip),%rax        # 1a210 <g_805>
   106cb:	48 89 85 e8 f4 ff ff 	mov    %rax,-0xb18(%rbp)
   106d2:	c7 85 ec f3 ff ff 00 	movl   $0x0,-0xc14(%rbp)
   106d9:	00 00 00 
   106dc:	c7 85 f0 f3 ff ff 00 	movl   $0x0,-0xc10(%rbp)
   106e3:	00 00 00 
   106e6:	c7 85 f4 f3 ff ff 01 	movl   $0x1,-0xc0c(%rbp)
   106ed:	00 00 00 
   106f0:	c7 85 f8 f3 ff ff 87 	movl   $0x1e0f9d87,-0xc08(%rbp)
   106f7:	9d 0f 1e 
   106fa:	c7 85 fc f3 ff ff 07 	movl   $0x7,-0xc04(%rbp)
   10701:	00 00 00 
   10704:	66 c7 85 b4 f3 ff ff 	movw   $0xec3a,-0xc4c(%rbp)
   1070b:	3a ec 
   1070d:	c7 85 f0 f5 ff ff 01 	movl   $0x1,-0xa10(%rbp)
   10714:	00 00 00 
   10717:	c7 85 f4 f5 ff ff 08 	movl   $0x8,-0xa0c(%rbp)
   1071e:	00 00 00 
   10721:	c7 85 f8 f5 ff ff 01 	movl   $0x1,-0xa08(%rbp)
   10728:	00 00 00 
   1072b:	c7 85 fc f5 ff ff 01 	movl   $0x1,-0xa04(%rbp)
   10732:	00 00 00 
   10735:	c7 85 00 f6 ff ff 08 	movl   $0x8,-0xa00(%rbp)
   1073c:	00 00 00 
   1073f:	c7 85 04 f6 ff ff 01 	movl   $0x1,-0x9fc(%rbp)
   10746:	00 00 00 
   10749:	c7 85 08 f6 ff ff 01 	movl   $0x1,-0x9f8(%rbp)
   10750:	00 00 00 
   10753:	c7 85 0c f6 ff ff 08 	movl   $0x8,-0x9f4(%rbp)
   1075a:	00 00 00 
   1075d:	c7 85 10 f6 ff ff 01 	movl   $0x1,-0x9f0(%rbp)
   10764:	00 00 00 
   10767:	c7 85 14 f6 ff ff 01 	movl   $0x1,-0x9ec(%rbp)
   1076e:	00 00 00 
   10771:	c7 85 d8 f3 ff ff 00 	movl   $0x0,-0xc28(%rbp)
   10778:	00 00 00 
   1077b:	eb 53                	jmp    107d0 <func_45+0xad4>
   1077d:	c7 85 dc f3 ff ff 00 	movl   $0x0,-0xc24(%rbp)
   10784:	00 00 00 
   10787:	eb 37                	jmp    107c0 <func_45+0xac4>
   10789:	8b 85 dc f3 ff ff    	mov    -0xc24(%rbp),%eax
   1078f:	48 63 c8             	movslq %eax,%rcx
   10792:	8b 85 d8 f3 ff ff    	mov    -0xc28(%rbp),%eax
   10798:	48 63 d0             	movslq %eax,%rdx
   1079b:	48 89 d0             	mov    %rdx,%rax
   1079e:	48 01 c0             	add    %rax,%rax
   107a1:	48 01 d0             	add    %rdx,%rax
   107a4:	48 01 c0             	add    %rax,%rax
   107a7:	48 01 c8             	add    %rcx,%rax
   107aa:	48 8d 15 bf 98 00 00 	lea    0x98bf(%rip),%rdx        # 1a070 <g_97+0x10>
   107b1:	48 89 94 c5 20 fa ff 	mov    %rdx,-0x5e0(%rbp,%rax,8)
   107b8:	ff 
   107b9:	83 85 dc f3 ff ff 01 	addl   $0x1,-0xc24(%rbp)
   107c0:	83 bd dc f3 ff ff 05 	cmpl   $0x5,-0xc24(%rbp)
   107c7:	7e c0                	jle    10789 <func_45+0xa8d>
   107c9:	83 85 d8 f3 ff ff 01 	addl   $0x1,-0xc28(%rbp)
   107d0:	83 bd d8 f3 ff ff 08 	cmpl   $0x8,-0xc28(%rbp)
   107d7:	7e a4                	jle    1077d <func_45+0xa81>
   107d9:	c7 85 d8 f3 ff ff 00 	movl   $0x0,-0xc28(%rbp)
   107e0:	00 00 00 
   107e3:	eb 4a                	jmp    1082f <func_45+0xb33>
   107e5:	c7 85 dc f3 ff ff 00 	movl   $0x0,-0xc24(%rbp)
   107ec:	00 00 00 
   107ef:	eb 2e                	jmp    1081f <func_45+0xb23>
   107f1:	8b 85 dc f3 ff ff    	mov    -0xc24(%rbp),%eax
   107f7:	48 98                	cltq   
   107f9:	8b 95 d8 f3 ff ff    	mov    -0xc28(%rbp),%edx
   107ff:	48 63 d2             	movslq %edx,%rdx
   10802:	48 01 d2             	add    %rdx,%rdx
   10805:	48 8d 5d d0          	lea    -0x30(%rbp),%rbx
   10809:	48 01 da             	add    %rbx,%rdx
   1080c:	48 01 d0             	add    %rdx,%rax
   1080f:	48 2d 72 0a 00 00    	sub    $0xa72,%rax
   10815:	c6 00 da             	movb   $0xda,(%rax)
   10818:	83 85 dc f3 ff ff 01 	addl   $0x1,-0xc24(%rbp)
   1081f:	83 bd dc f3 ff ff 01 	cmpl   $0x1,-0xc24(%rbp)
   10826:	7e c9                	jle    107f1 <func_45+0xaf5>
   10828:	83 85 d8 f3 ff ff 01 	addl   $0x1,-0xc28(%rbp)
   1082f:	83 bd d8 f3 ff ff 02 	cmpl   $0x2,-0xc28(%rbp)
   10836:	7e ad                	jle    107e5 <func_45+0xae9>
   10838:	48 8b 05 a1 bc 00 00 	mov    0xbca1(%rip),%rax        # 1c4e0 <g_887>
   1083f:	48 8d 95 d0 f8 ff ff 	lea    -0x730(%rbp),%rdx
   10846:	48 83 c2 34          	add    $0x34,%rdx
   1084a:	48 89 10             	mov    %rdx,(%rax)
   1084d:	48 8b 05 dc 97 00 00 	mov    0x97dc(%rip),%rax        # 1a030 <g_5>
   10854:	44 0f b6 f0          	movzbl %al,%r14d
   10858:	8b 85 e8 f3 ff ff    	mov    -0xc18(%rbp),%eax
   1085e:	4c 63 e0             	movslq %eax,%r12
   10861:	48 8b 9d 80 f6 ff ff 	mov    -0x980(%rbp),%rbx
   10868:	48 8b 85 08 f8 ff ff 	mov    -0x7f8(%rbp),%rax
   1086f:	48 83 c8 f7          	or     $0xfffffffffffffff7,%rax
   10873:	48 89 85 08 f8 ff ff 	mov    %rax,-0x7f8(%rbp)
   1087a:	8b 85 60 f4 ff ff    	mov    -0xba0(%rbp),%eax
   10880:	48 63 d0             	movslq %eax,%rdx
   10883:	48 b8 84 8b 36 30 ca 	movabs $0x25a5c9ca30368b84,%rax
   1088a:	c9 a5 25 
   1088d:	48 89 85 90 f3 ff ff 	mov    %rax,-0xc70(%rbp)
   10894:	48 8b 8d 90 f3 ff ff 	mov    -0xc70(%rbp),%rcx
   1089b:	8b 85 04 f9 ff ff    	mov    -0x6fc(%rbp),%eax
   108a1:	31 c8                	xor    %ecx,%eax
   108a3:	89 85 04 f9 ff ff    	mov    %eax,-0x6fc(%rbp)
   108a9:	8b 85 04 f9 ff ff    	mov    -0x6fc(%rbp),%eax
   108af:	85 c0                	test   %eax,%eax
   108b1:	74 58                	je     1090b <func_45+0xc0f>
   108b3:	48 83 bd a8 f4 ff ff 	cmpq   $0x0,-0xb58(%rbp)
   108ba:	00 
   108bb:	0f 95 c0             	setne  %al
   108be:	0f b6 c8             	movzbl %al,%ecx
   108c1:	48 8b 85 d8 f4 ff ff 	mov    -0xb28(%rbp),%rax
   108c8:	66 89 08             	mov    %cx,(%rax)
   108cb:	48 8b 85 d8 f4 ff ff 	mov    -0xb28(%rbp),%rax
   108d2:	0f b7 00             	movzwl (%rax),%eax
   108d5:	66 85 c0             	test   %ax,%ax
   108d8:	74 23                	je     108fd <func_45+0xc01>
   108da:	48 8b 85 c0 f4 ff ff 	mov    -0xb40(%rbp),%rax
   108e1:	0f b7 00             	movzwl (%rax),%eax
   108e4:	8d 70 ff             	lea    -0x1(%rax),%esi
   108e7:	48 8b 8d c0 f4 ff ff 	mov    -0xb40(%rbp),%rcx
   108ee:	66 89 31             	mov    %si,(%rcx)
   108f1:	66 85 c0             	test   %ax,%ax
   108f4:	74 07                	je     108fd <func_45+0xc01>
   108f6:	b8 01 00 00 00       	mov    $0x1,%eax
   108fb:	eb 05                	jmp    10902 <func_45+0xc06>
   108fd:	b8 00 00 00 00       	mov    $0x0,%eax
   10902:	48 98                	cltq   
   10904:	48 39 85 90 f3 ff ff 	cmp    %rax,-0xc70(%rbp)
   1090b:	48 83 bd c8 f4 ff ff 	cmpq   $0x0,-0xb38(%rbp)
   10912:	00 
   10913:	0f 94 c0             	sete   %al
   10916:	0f b6 c0             	movzbl %al,%eax
   10919:	48 89 d6             	mov    %rdx,%rsi
   1091c:	48 89 c7             	mov    %rax,%rdi
   1091f:	e8 0a 97 ff ff       	callq  a02e <safe_add_func_uint64_t_u_u>
   10924:	48 8b 05 b5 bb 00 00 	mov    0xbbb5(%rip),%rax        # 1c4e0 <g_887>
   1092b:	48 8b 10             	mov    (%rax),%rdx
   1092e:	48 8d 85 bc f3 ff ff 	lea    -0xc44(%rbp),%rax
   10935:	48 39 c2             	cmp    %rax,%rdx
   10938:	0f 94 c0             	sete   %al
   1093b:	0f b6 d0             	movzbl %al,%edx
   1093e:	8b 85 60 f4 ff ff    	mov    -0xba0(%rbp),%eax
   10944:	39 c2                	cmp    %eax,%edx
   10946:	0f 95 c0             	setne  %al
   10949:	0f b6 c0             	movzbl %al,%eax
   1094c:	be ff ff ff ff       	mov    $0xffffffff,%esi
   10951:	89 c7                	mov    %eax,%edi
   10953:	e8 9d 8a ff ff       	callq  93f5 <safe_mul_func_int16_t_s_s>
   10958:	66 85 c0             	test   %ax,%ax
   1095b:	74 0c                	je     10969 <func_45+0xc6d>
   1095d:	48 8b 85 88 f3 ff ff 	mov    -0xc78(%rbp),%rax
   10964:	0f b6 00             	movzbl (%rax),%eax
   10967:	84 c0                	test   %al,%al
   10969:	48 83 bd e0 f4 ff ff 	cmpq   $0x0,-0xb20(%rbp)
   10970:	00 
   10971:	0f 94 c0             	sete   %al
   10974:	0f b6 c0             	movzbl %al,%eax
   10977:	89 85 b8 f3 ff ff    	mov    %eax,-0xc48(%rbp)
   1097d:	8b 85 b8 f3 ff ff    	mov    -0xc48(%rbp),%eax
   10983:	89 c7                	mov    %eax,%edi
   10985:	0f b7 05 b4 96 00 00 	movzwl 0x96b4(%rip),%eax        # 1a040 <g_75>
   1098c:	44 0f b7 e8          	movzwl %ax,%r13d
   10990:	48 8d 85 60 f4 ff ff 	lea    -0xba0(%rbp),%rax
   10997:	45 89 f0             	mov    %r14d,%r8d
   1099a:	48 89 c1             	mov    %rax,%rcx
   1099d:	4c 89 e2             	mov    %r12,%rdx
   109a0:	48 89 de             	mov    %rbx,%rsi
   109a3:	e8 36 4e 00 00       	callq  157de <func_58>
   109a8:	49 63 d5             	movslq %r13d,%rdx
   109ab:	48 8d 0c d5 00 00 00 	lea    0x0(,%rdx,8),%rcx
   109b2:	00 
   109b3:	48 8d 15 26 aa 00 00 	lea    0xaa26(%rip),%rdx        # 1b3e0 <g_430>
   109ba:	48 89 04 11          	mov    %rax,(%rcx,%rdx,1)
   109be:	48 8b 95 90 f3 ff ff 	mov    -0xc70(%rbp),%rdx
   109c5:	48 8b 85 e8 f4 ff ff 	mov    -0xb18(%rbp),%rax
   109cc:	48 89 10             	mov    %rdx,(%rax)
   109cf:	48 8b 85 90 f3 ff ff 	mov    -0xc70(%rbp),%rax
   109d6:	0f b6 d8             	movzbl %al,%ebx
   109d9:	48 8b 85 b0 f4 ff ff 	mov    -0xb50(%rbp),%rax
   109e0:	48 3b 85 78 f4 ff ff 	cmp    -0xb88(%rbp),%rax
   109e7:	0f 95 c0             	setne  %al
   109ea:	44 0f b6 e0          	movzbl %al,%r12d
   109ee:	8b 85 60 f4 ff ff    	mov    -0xba0(%rbp),%eax
   109f4:	0f be d0             	movsbl %al,%edx
   109f7:	48 8b 85 88 f3 ff ff 	mov    -0xc78(%rbp),%rax
   109fe:	0f b6 00             	movzbl (%rax),%eax
   10a01:	0f be c0             	movsbl %al,%eax
   10a04:	89 d6                	mov    %edx,%esi
   10a06:	89 c7                	mov    %eax,%edi
   10a08:	e8 24 88 ff ff       	callq  9231 <safe_mod_func_int8_t_s_s>
   10a0d:	0f be c0             	movsbl %al,%eax
   10a10:	89 c6                	mov    %eax,%esi
   10a12:	bf 01 00 00 00       	mov    $0x1,%edi
   10a17:	e8 ea 93 ff ff       	callq  9e06 <safe_lshift_func_uint16_t_u_u>
   10a1c:	0f be c0             	movsbl %al,%eax
   10a1f:	be 01 00 00 00       	mov    $0x1,%esi
   10a24:	89 c7                	mov    %eax,%edi
   10a26:	e8 c3 88 ff ff       	callq  92ee <safe_lshift_func_int8_t_s_u>
   10a2b:	0f be c0             	movsbl %al,%eax
   10a2e:	44 21 e0             	and    %r12d,%eax
   10a31:	48 98                	cltq   
   10a33:	48 39 85 90 f3 ff ff 	cmp    %rax,-0xc70(%rbp)
   10a3a:	0f 9d c0             	setge  %al
   10a3d:	0f b6 d0             	movzbl %al,%edx
   10a40:	48 8b 05 59 a9 00 00 	mov    0xa959(%rip),%rax        # 1b3a0 <g_209>
   10a47:	c7 00 00 00 00 00    	movl   $0x0,(%rax)
   10a4d:	8b 00                	mov    (%rax),%eax
   10a4f:	89 d6                	mov    %edx,%esi
   10a51:	89 c7                	mov    %eax,%edi
   10a53:	e8 ea 8b ff ff       	callq  9642 <safe_mul_func_int32_t_s_s>
   10a58:	89 c2                	mov    %eax,%edx
   10a5a:	8b 85 60 f4 ff ff    	mov    -0xba0(%rbp),%eax
   10a60:	31 d0                	xor    %edx,%eax
   10a62:	0f b6 c0             	movzbl %al,%eax
   10a65:	89 de                	mov    %ebx,%esi
   10a67:	89 c7                	mov    %eax,%edi
   10a69:	e8 25 91 ff ff       	callq  9b93 <safe_mul_func_uint8_t_u_u>
   10a6e:	c7 85 00 f4 ff ff 7f 	movl   $0xdd45fb7f,-0xc00(%rbp)
   10a75:	fb 45 dd 
   10a78:	c7 85 04 f4 ff ff fd 	movl   $0xfffffffd,-0xbfc(%rbp)
   10a7f:	ff ff ff 
   10a82:	c7 85 08 f4 ff ff ae 	movl   $0xd6243aae,-0xbf8(%rbp)
   10a89:	3a 24 d6 
   10a8c:	c7 85 0c f4 ff ff a9 	movl   $0x2573d4a9,-0xbf4(%rbp)
   10a93:	d4 73 25 
   10a96:	48 8d 85 90 fd ff ff 	lea    -0x270(%rbp),%rax
   10a9d:	48 8d 15 3c 5e 00 00 	lea    0x5e3c(%rip),%rdx        # 168e0 <g_1624+0x880>
   10aa4:	b9 46 00 00 00       	mov    $0x46,%ecx
   10aa9:	48 89 c7             	mov    %rax,%rdi
   10aac:	48 89 d6             	mov    %rdx,%rsi
   10aaf:	f3 48 a5             	rep movsq %ds:(%rsi),%es:(%rdi)
   10ab2:	48 c7 85 68 f4 ff ff 	movq   $0x0,-0xb98(%rbp)
   10ab9:	00 00 00 00 
   10abd:	48 8d 85 a0 f5 ff ff 	lea    -0xa60(%rbp),%rax
   10ac4:	48 83 c0 10          	add    $0x10,%rax
   10ac8:	48 89 85 e0 f6 ff ff 	mov    %rax,-0x920(%rbp)
   10acf:	48 8d 85 a0 f5 ff ff 	lea    -0xa60(%rbp),%rax
   10ad6:	48 83 c0 10          	add    $0x10,%rax
   10ada:	48 89 85 e8 f6 ff ff 	mov    %rax,-0x918(%rbp)
   10ae1:	48 8d 85 a0 f5 ff ff 	lea    -0xa60(%rbp),%rax
   10ae8:	48 83 c0 10          	add    $0x10,%rax
   10aec:	48 89 85 f0 f6 ff ff 	mov    %rax,-0x910(%rbp)
   10af3:	48 8d 85 a0 f5 ff ff 	lea    -0xa60(%rbp),%rax
   10afa:	48 89 85 f8 f6 ff ff 	mov    %rax,-0x908(%rbp)
   10b01:	48 8d 85 a0 f5 ff ff 	lea    -0xa60(%rbp),%rax
   10b08:	48 83 c0 10          	add    $0x10,%rax
   10b0c:	48 89 85 00 f7 ff ff 	mov    %rax,-0x900(%rbp)
   10b13:	48 8d 85 a0 f5 ff ff 	lea    -0xa60(%rbp),%rax
   10b1a:	48 83 c0 10          	add    $0x10,%rax
   10b1e:	48 89 85 08 f7 ff ff 	mov    %rax,-0x8f8(%rbp)
   10b25:	48 8d 85 a0 f5 ff ff 	lea    -0xa60(%rbp),%rax
   10b2c:	48 89 85 10 f7 ff ff 	mov    %rax,-0x8f0(%rbp)
   10b33:	48 8d 85 a0 f5 ff ff 	lea    -0xa60(%rbp),%rax
   10b3a:	48 83 c0 10          	add    $0x10,%rax
   10b3e:	48 89 85 18 f7 ff ff 	mov    %rax,-0x8e8(%rbp)
   10b45:	48 8d 85 a0 f5 ff ff 	lea    -0xa60(%rbp),%rax
   10b4c:	48 83 c0 10          	add    $0x10,%rax
   10b50:	48 89 85 20 f7 ff ff 	mov    %rax,-0x8e0(%rbp)
   10b57:	48 8d 85 a0 f5 ff ff 	lea    -0xa60(%rbp),%rax
   10b5e:	48 89 85 28 f7 ff ff 	mov    %rax,-0x8d8(%rbp)
   10b65:	48 8d 85 a0 f5 ff ff 	lea    -0xa60(%rbp),%rax
   10b6c:	48 83 c0 10          	add    $0x10,%rax
   10b70:	48 89 85 30 f7 ff ff 	mov    %rax,-0x8d0(%rbp)
   10b77:	48 8d 85 a0 f5 ff ff 	lea    -0xa60(%rbp),%rax
   10b7e:	48 83 c0 10          	add    $0x10,%rax
   10b82:	48 89 85 38 f7 ff ff 	mov    %rax,-0x8c8(%rbp)
   10b89:	c7 85 90 f5 ff ff ea 	movl   $0x73a7d2ea,-0xa70(%rbp)
   10b90:	d2 a7 73 
   10b93:	c7 85 94 f5 ff ff ea 	movl   $0x73a7d2ea,-0xa6c(%rbp)
   10b9a:	d2 a7 73 
   10b9d:	c7 85 98 f5 ff ff ea 	movl   $0x73a7d2ea,-0xa68(%rbp)
   10ba4:	d2 a7 73 
   10ba7:	c7 85 9c f5 ff ff ea 	movl   $0x73a7d2ea,-0xa64(%rbp)
   10bae:	d2 a7 73 
   10bb1:	48 c7 85 f0 f4 ff ff 	movq   $0x0,-0xb10(%rbp)
   10bb8:	00 00 00 00 
   10bbc:	c7 85 e0 f3 ff ff 00 	movl   $0x0,-0xc20(%rbp)
   10bc3:	00 00 00 
   10bc6:	eb 1e                	jmp    10be6 <func_45+0xeea>
   10bc8:	8b 85 e0 f3 ff ff    	mov    -0xc20(%rbp),%eax
   10bce:	48 98                	cltq   
   10bd0:	48 8d 95 68 f4 ff ff 	lea    -0xb98(%rbp),%rdx
   10bd7:	48 89 94 c5 a0 f5 ff 	mov    %rdx,-0xa60(%rbp,%rax,8)
   10bde:	ff 
   10bdf:	83 85 e0 f3 ff ff 01 	addl   $0x1,-0xc20(%rbp)
   10be6:	83 bd e0 f3 ff ff 02 	cmpl   $0x2,-0xc20(%rbp)
   10bed:	7e d9                	jle    10bc8 <func_45+0xecc>
   10bef:	48 8b 05 8a b8 00 00 	mov    0xb88a(%rip),%rax        # 1c480 <g_835>
   10bf6:	48 8b 00             	mov    (%rax),%rax
   10bf9:	8b 00                	mov    (%rax),%eax
   10bfb:	85 c0                	test   %eax,%eax
   10bfd:	74 20                	je     10c1f <func_45+0xf23>
   10bff:	c7 85 14 f4 ff ff 00 	movl   $0x0,-0xbec(%rbp)
   10c06:	00 00 00 
   10c09:	c7 85 18 f4 ff ff 00 	movl   $0x0,-0xbe8(%rbp)
   10c10:	00 00 00 
   10c13:	83 ad 00 f4 ff ff 01 	subl   $0x1,-0xc00(%rbp)
   10c1a:	e9 fc 02 00 00       	jmpq   10f1b <func_45+0x121f>
   10c1f:	66 c7 85 72 f5 ff ff 	movw   $0x0,-0xa8e(%rbp)
   10c26:	00 00 
   10c28:	66 c7 85 74 f5 ff ff 	movw   $0x0,-0xa8c(%rbp)
   10c2f:	00 00 
   10c31:	66 c7 85 76 f5 ff ff 	movw   $0x0,-0xa8a(%rbp)
   10c38:	00 00 
   10c3a:	66 c7 85 78 f5 ff ff 	movw   $0x0,-0xa88(%rbp)
   10c41:	00 00 
   10c43:	66 c7 85 7a f5 ff ff 	movw   $0x0,-0xa86(%rbp)
   10c4a:	00 00 
   10c4c:	66 c7 85 7c f5 ff ff 	movw   $0x0,-0xa84(%rbp)
   10c53:	00 00 
   10c55:	66 c7 85 7e f5 ff ff 	movw   $0x0,-0xa82(%rbp)
   10c5c:	00 00 
   10c5e:	c7 85 40 f7 ff ff 05 	movl   $0x5,-0x8c0(%rbp)
   10c65:	00 00 00 
   10c68:	c7 85 44 f7 ff ff f6 	movl   $0xfffffff6,-0x8bc(%rbp)
   10c6f:	ff ff ff 
   10c72:	c7 85 48 f7 ff ff 05 	movl   $0x5,-0x8b8(%rbp)
   10c79:	00 00 00 
   10c7c:	c7 85 4c f7 ff ff ff 	movl   $0xffffffff,-0x8b4(%rbp)
   10c83:	ff ff ff 
   10c86:	c7 85 50 f7 ff ff a1 	movl   $0x2d77e4a1,-0x8b0(%rbp)
   10c8d:	e4 77 2d 
   10c90:	c7 85 54 f7 ff ff 95 	movl   $0x75ea5295,-0x8ac(%rbp)
   10c97:	52 ea 75 
   10c9a:	c7 85 58 f7 ff ff ff 	movl   $0xffffffff,-0x8a8(%rbp)
   10ca1:	ff ff ff 
   10ca4:	c7 85 5c f7 ff ff ff 	movl   $0xffffffff,-0x8a4(%rbp)
   10cab:	ff ff ff 
   10cae:	c7 85 60 f7 ff ff a1 	movl   $0x2d77e4a1,-0x8a0(%rbp)
   10cb5:	e4 77 2d 
   10cb8:	c7 85 64 f7 ff ff 05 	movl   $0x5,-0x89c(%rbp)
   10cbf:	00 00 00 
   10cc2:	c7 85 68 f7 ff ff a1 	movl   $0x2d77e4a1,-0x898(%rbp)
   10cc9:	e4 77 2d 
   10ccc:	c7 85 6c f7 ff ff a1 	movl   $0x2d77e4a1,-0x894(%rbp)
   10cd3:	e4 77 2d 
   10cd6:	c7 85 70 f7 ff ff a1 	movl   $0x2d77e4a1,-0x890(%rbp)
   10cdd:	e4 77 2d 
   10ce0:	c7 85 74 f7 ff ff f6 	movl   $0xfffffff6,-0x88c(%rbp)
   10ce7:	ff ff ff 
   10cea:	c7 85 78 f7 ff ff 95 	movl   $0x75ea5295,-0x888(%rbp)
   10cf1:	52 ea 75 
   10cf4:	c7 85 7c f7 ff ff 05 	movl   $0x5,-0x884(%rbp)
   10cfb:	00 00 00 
   10cfe:	c7 85 80 f7 ff ff f6 	movl   $0xfffffff6,-0x880(%rbp)
   10d05:	ff ff ff 
   10d08:	c7 85 84 f7 ff ff 05 	movl   $0x5,-0x87c(%rbp)
   10d0f:	00 00 00 
   10d12:	c7 85 88 f7 ff ff ff 	movl   $0xffffffff,-0x878(%rbp)
   10d19:	ff ff ff 
   10d1c:	c7 85 8c f7 ff ff a1 	movl   $0x2d77e4a1,-0x874(%rbp)
   10d23:	e4 77 2d 
   10d26:	c7 85 90 f7 ff ff 95 	movl   $0x75ea5295,-0x870(%rbp)
   10d2d:	52 ea 75 
   10d30:	c7 85 94 f7 ff ff ff 	movl   $0xffffffff,-0x86c(%rbp)
   10d37:	ff ff ff 
   10d3a:	c7 85 98 f7 ff ff ff 	movl   $0xffffffff,-0x868(%rbp)
   10d41:	ff ff ff 
   10d44:	c7 85 9c f7 ff ff a1 	movl   $0x2d77e4a1,-0x864(%rbp)
   10d4b:	e4 77 2d 
   10d4e:	c7 85 a0 f7 ff ff 05 	movl   $0x5,-0x860(%rbp)
   10d55:	00 00 00 
   10d58:	c7 85 a4 f7 ff ff a1 	movl   $0x2d77e4a1,-0x85c(%rbp)
   10d5f:	e4 77 2d 
   10d62:	c7 85 a8 f7 ff ff a1 	movl   $0x2d77e4a1,-0x858(%rbp)
   10d69:	e4 77 2d 
   10d6c:	48 8d 05 2d cf 00 00 	lea    0xcf2d(%rip),%rax        # 1dca0 <g_563>
   10d73:	48 89 85 f8 f4 ff ff 	mov    %rax,-0xb08(%rbp)
   10d7a:	c7 85 10 f4 ff ff f7 	movl   $0xfffffff7,-0xbf0(%rbp)
   10d81:	ff ff ff 
   10d84:	0f b6 85 af f3 ff ff 	movzbl -0xc51(%rbp),%eax
   10d8b:	83 e8 01             	sub    $0x1,%eax
   10d8e:	88 85 af f3 ff ff    	mov    %al,-0xc51(%rbp)
   10d94:	48 8b 85 88 f3 ff ff 	mov    -0xc78(%rbp),%rax
   10d9b:	44 0f b6 30          	movzbl (%rax),%r14d
   10d9f:	0f b7 05 f2 92 00 00 	movzwl 0x92f2(%rip),%eax        # 1a098 <g_136>
   10da6:	48 0f bf d8          	movswq %ax,%rbx
   10daa:	0f b6 05 02 94 00 00 	movzbl 0x9402(%rip),%eax        # 1a1b3 <g_378+0xb3>
   10db1:	44 0f be e0          	movsbl %al,%r12d
   10db5:	48 8b 85 90 f3 ff ff 	mov    -0xc70(%rbp),%rax
   10dbc:	44 0f be e8          	movsbl %al,%r13d
   10dc0:	48 8b 85 d8 f4 ff ff 	mov    -0xb28(%rbp),%rax
   10dc7:	66 c7 00 01 00       	movw   $0x1,(%rax)
   10dcc:	48 8b 85 58 f4 ff ff 	mov    -0xba8(%rbp),%rax
   10dd3:	8b 10                	mov    (%rax),%edx
   10dd5:	48 8b 85 90 f3 ff ff 	mov    -0xc70(%rbp),%rax
   10ddc:	89 c1                	mov    %eax,%ecx
   10dde:	48 8b 85 58 f4 ff ff 	mov    -0xba8(%rbp),%rax
   10de5:	09 ca                	or     %ecx,%edx
   10de7:	89 10                	mov    %edx,(%rax)
   10de9:	8b 00                	mov    (%rax),%eax
   10deb:	89 c1                	mov    %eax,%ecx
   10ded:	48 8b 85 e0 f6 ff ff 	mov    -0x920(%rbp),%rax
   10df4:	48 8d 15 b5 a5 00 00 	lea    0xa5b5(%rip),%rdx        # 1b3b0 <g_207>
   10dfb:	48 39 d0             	cmp    %rdx,%rax
   10dfe:	0f 94 c0             	sete   %al
   10e01:	0f b6 c0             	movzbl %al,%eax
   10e04:	89 ce                	mov    %ecx,%esi
   10e06:	89 c7                	mov    %eax,%edi
   10e08:	e8 c3 90 ff ff       	callq  9ed0 <safe_sub_func_uint32_t_u_u>
   10e0d:	0f b7 c0             	movzwl %ax,%eax
   10e10:	be 01 00 00 00       	mov    $0x1,%esi
   10e15:	89 c7                	mov    %eax,%edi
   10e17:	e8 03 8f ff ff       	callq  9d1f <safe_sub_func_uint16_t_u_u>
   10e1c:	48 83 bd d0 f4 ff ff 	cmpq   $0x0,-0xb30(%rbp)
   10e23:	00 
   10e24:	48 8b 85 88 f3 ff ff 	mov    -0xc78(%rbp),%rax
   10e2b:	0f b6 10             	movzbl (%rax),%edx
   10e2e:	48 8b 85 f8 f4 ff ff 	mov    -0xb08(%rbp),%rax
   10e35:	88 10                	mov    %dl,(%rax)
   10e37:	48 8b 85 f8 f4 ff ff 	mov    -0xb08(%rbp),%rax
   10e3e:	0f b6 00             	movzbl (%rax),%eax
   10e41:	0f be c0             	movsbl %al,%eax
   10e44:	be 06 00 00 00       	mov    $0x6,%esi
   10e49:	89 c7                	mov    %eax,%edi
   10e4b:	e8 1c 85 ff ff       	callq  936c <safe_rshift_func_int8_t_s_u>
   10e50:	0f be c0             	movsbl %al,%eax
   10e53:	be 0d 00 00 00       	mov    $0xd,%esi
   10e58:	89 c7                	mov    %eax,%edi
   10e5a:	e8 04 87 ff ff       	callq  9563 <safe_rshift_func_int16_t_s_u>
   10e5f:	98                   	cwtl   
   10e60:	be 02 00 00 00       	mov    $0x2,%esi
   10e65:	89 c7                	mov    %eax,%edi
   10e67:	e8 e9 85 ff ff       	callq  9455 <safe_div_func_int16_t_s_s>
   10e6c:	0f be c0             	movsbl %al,%eax
   10e6f:	44 89 ee             	mov    %r13d,%esi
   10e72:	89 c7                	mov    %eax,%edi
   10e74:	e8 99 83 ff ff       	callq  9212 <safe_mul_func_int8_t_s_s>
   10e79:	48 8b 05 40 a5 00 00 	mov    0xa540(%rip),%rax        # 1b3c0 <g_258>
   10e80:	48 8b 00             	mov    (%rax),%rax
   10e83:	0f b6 00             	movzbl (%rax),%eax
   10e86:	0f be c0             	movsbl %al,%eax
   10e89:	44 89 e6             	mov    %r12d,%esi
   10e8c:	89 c7                	mov    %eax,%edi
   10e8e:	e8 41 83 ff ff       	callq  91d4 <safe_add_func_int8_t_s_s>
   10e93:	0f be d0             	movsbl %al,%edx
   10e96:	0f b6 05 82 92 00 00 	movzbl 0x9282(%rip),%eax        # 1a11f <g_378+0x1f>
   10e9d:	0f b6 c0             	movzbl %al,%eax
   10ea0:	09 d0                	or     %edx,%eax
   10ea2:	48 98                	cltq   
   10ea4:	48 89 de             	mov    %rbx,%rsi
   10ea7:	48 89 c7             	mov    %rax,%rdi
   10eaa:	e8 05 8b ff ff       	callq  99b4 <safe_mod_func_int64_t_s_s>
   10eaf:	89 85 10 f4 ff ff    	mov    %eax,-0xbf0(%rbp)
   10eb5:	48 8b 85 88 f3 ff ff 	mov    -0xc78(%rbp),%rax
   10ebc:	0f b6 00             	movzbl (%rax),%eax
   10ebf:	0f be c0             	movsbl %al,%eax
   10ec2:	39 85 10 f4 ff ff    	cmp    %eax,-0xbf0(%rbp)
   10ec8:	0f 9f c0             	setg   %al
   10ecb:	89 c2                	mov    %eax,%edx
   10ecd:	0f b6 85 7c f5 ff ff 	movzbl -0xa84(%rbp),%eax
   10ed4:	21 d0                	and    %edx,%eax
   10ed6:	0f be c0             	movsbl %al,%eax
   10ed9:	be 03 00 00 00       	mov    $0x3,%esi
   10ede:	89 c7                	mov    %eax,%edi
   10ee0:	e8 ef 82 ff ff       	callq  91d4 <safe_add_func_int8_t_s_s>
   10ee5:	44 21 f0             	and    %r14d,%eax
   10ee8:	48 0f be c0          	movsbq %al,%rax
   10eec:	48 0b 85 90 f3 ff ff 	or     -0xc70(%rbp),%rax
   10ef3:	48 89 c2             	mov    %rax,%rdx
   10ef6:	8b 05 a0 91 00 00    	mov    0x91a0(%rip),%eax        # 1a09c <g_169>
   10efc:	48 98                	cltq   
   10efe:	48 39 c2             	cmp    %rax,%rdx
   10f01:	0f 95 c0             	setne  %al
   10f04:	0f b6 c8             	movzbl %al,%ecx
   10f07:	48 8b 05 92 a4 00 00 	mov    0xa492(%rip),%rax        # 1b3a0 <g_209>
   10f0e:	8b 10                	mov    (%rax),%edx
   10f10:	48 8b 05 89 a4 00 00 	mov    0xa489(%rip),%rax        # 1b3a0 <g_209>
   10f17:	31 ca                	xor    %ecx,%edx
   10f19:	89 10                	mov    %edx,(%rax)
   10f1b:	c7 05 17 91 00 00 00 	movl   $0x0,0x9117(%rip)        # 1a03c <g_72>
   10f22:	00 00 00 
   10f25:	eb 2f                	jmp    10f56 <func_45+0x125a>
   10f27:	48 8d 85 60 f6 ff ff 	lea    -0x9a0(%rbp),%rax
   10f2e:	48 83 c0 10          	add    $0x10,%rax
   10f32:	48 89 85 00 f5 ff ff 	mov    %rax,-0xb00(%rbp)
   10f39:	48 8b 85 00 f5 ff ff 	mov    -0xb00(%rbp),%rax
   10f40:	48 c7 00 00 00 00 00 	movq   $0x0,(%rax)
   10f47:	8b 05 ef 90 00 00    	mov    0x90ef(%rip),%eax        # 1a03c <g_72>
   10f4d:	83 c0 01             	add    $0x1,%eax
   10f50:	89 05 e6 90 00 00    	mov    %eax,0x90e6(%rip)        # 1a03c <g_72>
   10f56:	8b 05 e0 90 00 00    	mov    0x90e0(%rip),%eax        # 1a03c <g_72>
   10f5c:	83 f8 03             	cmp    $0x3,%eax
   10f5f:	76 c6                	jbe    10f27 <func_45+0x122b>
   10f61:	c7 85 60 f4 ff ff 04 	movl   $0x4,-0xba0(%rbp)
   10f68:	00 00 00 
   10f6b:	eb 76                	jmp    10fe3 <func_45+0x12e7>
   10f6d:	48 c7 85 40 f7 ff ff 	movq   $0x0,-0x8c0(%rbp)
   10f74:	00 00 00 00 
   10f78:	48 8d 85 af f3 ff ff 	lea    -0xc51(%rbp),%rax
   10f7f:	48 89 85 48 f7 ff ff 	mov    %rax,-0x8b8(%rbp)
   10f86:	48 c7 85 50 f7 ff ff 	movq   $0x0,-0x8b0(%rbp)
   10f8d:	00 00 00 00 
   10f91:	48 c7 85 58 f7 ff ff 	movq   $0x0,-0x8a8(%rbp)
   10f98:	00 00 00 00 
   10f9c:	48 8d 85 af f3 ff ff 	lea    -0xc51(%rbp),%rax
   10fa3:	48 89 85 60 f7 ff ff 	mov    %rax,-0x8a0(%rbp)
   10faa:	48 c7 85 68 f7 ff ff 	movq   $0x0,-0x898(%rbp)
   10fb1:	00 00 00 00 
   10fb5:	c7 85 1c f4 ff ff 55 	movl   $0xe52d655,-0xbe4(%rbp)
   10fbc:	d6 52 0e 
   10fbf:	48 8b 85 58 f4 ff ff 	mov    -0xba8(%rbp),%rax
   10fc6:	c7 00 00 00 00 00    	movl   $0x0,(%rax)
   10fcc:	48 83 bd 90 f3 ff ff 	cmpq   $0x0,-0xc70(%rbp)
   10fd3:	00 
   10fd4:	8b 85 60 f4 ff ff    	mov    -0xba0(%rbp),%eax
   10fda:	83 e8 01             	sub    $0x1,%eax
   10fdd:	89 85 60 f4 ff ff    	mov    %eax,-0xba0(%rbp)
   10fe3:	8b 85 60 f4 ff ff    	mov    -0xba0(%rbp),%eax
   10fe9:	85 c0                	test   %eax,%eax
   10feb:	79 80                	jns    10f6d <func_45+0x1271>
   10fed:	48 83 85 f0 f4 ff ff 	addq   $0x1,-0xb10(%rbp)
   10ff4:	01 
   10ff5:	48 8b 05 ec b4 00 00 	mov    0xb4ec(%rip),%rax        # 1c4e8 <g_1005>
   10ffc:	48 8d 95 48 f4 ff ff 	lea    -0xbb8(%rbp),%rdx
   11003:	48 89 10             	mov    %rdx,(%rax)
   11006:	48 c7 85 70 f4 ff ff 	movq   $0x3,-0xb90(%rbp)
   1100d:	03 00 00 00 
   11011:	eb 7d                	jmp    11090 <func_45+0x1394>
   11013:	66 c7 85 b6 f3 ff ff 	movw   $0xe37d,-0xc4a(%rbp)
   1101a:	7d e3 
   1101c:	48 8d 85 58 f4 ff ff 	lea    -0xba8(%rbp),%rax
   11023:	48 89 85 38 f5 ff ff 	mov    %rax,-0xac8(%rbp)
   1102a:	66 c7 05 d3 91 00 00 	movw   $0x2,0x91d3(%rip)        # 1a206 <g_475>
   11031:	02 00 
   11033:	90                   	nop
   11034:	0f b7 05 cb 91 00 00 	movzwl 0x91cb(%rip),%eax        # 1a206 <g_475>
   1103b:	66 85 c0             	test   %ax,%ax
   1103e:	78 15                	js     11055 <func_45+0x1359>
   11040:	c7 85 2c f4 ff ff 06 	movl   $0x6,-0xbd4(%rbp)
   11047:	00 00 00 
   1104a:	8b 85 2c f4 ff ff    	mov    -0xbd4(%rbp),%eax
   11050:	e9 ac 03 00 00       	jmpq   11401 <func_45+0x1705>
   11055:	66 c7 85 b6 f3 ff ff 	movw   $0x1,-0xc4a(%rbp)
   1105c:	01 00 
   1105e:	48 8b 85 38 f5 ff ff 	mov    -0xac8(%rbp),%rax
   11065:	48 8d 95 64 f5 ff ff 	lea    -0xa9c(%rbp),%rdx
   1106c:	48 83 c2 04          	add    $0x4,%rdx
   11070:	48 89 10             	mov    %rdx,(%rax)
   11073:	48 8b 85 58 f4 ff ff 	mov    -0xba8(%rbp),%rax
   1107a:	8b 10                	mov    (%rax),%edx
   1107c:	48 8b 85 58 f4 ff ff 	mov    -0xba8(%rbp),%rax
   11083:	83 ca fb             	or     $0xfffffffb,%edx
   11086:	89 10                	mov    %edx,(%rax)
   11088:	48 83 ad 70 f4 ff ff 	subq   $0x1,-0xb90(%rbp)
   1108f:	01 
   11090:	48 83 bd 70 f4 ff ff 	cmpq   $0x0,-0xb90(%rbp)
   11097:	00 
   11098:	0f 89 75 ff ff ff    	jns    11013 <func_45+0x1317>
   1109e:	eb 01                	jmp    110a1 <func_45+0x13a5>
   110a0:	90                   	nop
   110a1:	8b 05 e9 8f 00 00    	mov    0x8fe9(%rip),%eax        # 1a090 <g_99>
   110a7:	83 e8 01             	sub    $0x1,%eax
   110aa:	89 05 e0 8f 00 00    	mov    %eax,0x8fe0(%rip)        # 1a090 <g_99>
   110b0:	8b 05 da 8f 00 00    	mov    0x8fda(%rip),%eax        # 1a090 <g_99>
   110b6:	85 c0                	test   %eax,%eax
   110b8:	0f 89 b3 ee ff ff    	jns    ff71 <func_45+0x275>
   110be:	8b 85 e4 f8 ff ff    	mov    -0x71c(%rbp),%eax
   110c4:	83 e0 01             	and    $0x1,%eax
   110c7:	89 85 e4 f8 ff ff    	mov    %eax,-0x71c(%rbp)
   110cd:	c7 85 b8 f3 ff ff 00 	movl   $0x0,-0xc48(%rbp)
   110d4:	00 00 00 
   110d7:	90                   	nop
   110d8:	8b 85 b8 f3 ff ff    	mov    -0xc48(%rbp),%eax
   110de:	83 f8 02             	cmp    $0x2,%eax
   110e1:	0f 8f a8 02 00 00    	jg     1138f <func_45+0x1693>
   110e7:	c7 85 30 f4 ff ff 68 	movl   $0xa354cd68,-0xbd0(%rbp)
   110ee:	cd 54 a3 
   110f1:	c7 85 90 fd ff ff f7 	movl   $0xfffffff7,-0x270(%rbp)
   110f8:	ff ff ff 
   110fb:	c7 85 94 fd ff ff 0d 	movl   $0xdd84800d,-0x26c(%rbp)
   11102:	80 84 dd 
   11105:	c7 85 98 fd ff ff f7 	movl   $0xfffffff7,-0x268(%rbp)
   1110c:	ff ff ff 
   1110f:	c7 85 9c fd ff ff f7 	movl   $0xfffffff7,-0x264(%rbp)
   11116:	ff ff ff 
   11119:	c7 85 a0 fd ff ff 0d 	movl   $0xdd84800d,-0x260(%rbp)
   11120:	80 84 dd 
   11123:	c7 85 a4 fd ff ff f7 	movl   $0xfffffff7,-0x25c(%rbp)
   1112a:	ff ff ff 
   1112d:	c7 85 a8 fd ff ff f7 	movl   $0xfffffff7,-0x258(%rbp)
   11134:	ff ff ff 
   11137:	c7 85 ac fd ff ff 0d 	movl   $0xdd84800d,-0x254(%rbp)
   1113e:	80 84 dd 
   11141:	c7 85 b0 fd ff ff f7 	movl   $0xfffffff7,-0x250(%rbp)
   11148:	ff ff ff 
   1114b:	c7 85 b4 fd ff ff f7 	movl   $0xfffffff7,-0x24c(%rbp)
   11152:	ff ff ff 
   11155:	48 8d 05 ac ca 00 00 	lea    0xcaac(%rip),%rax        # 1dc08 <g_77>
   1115c:	48 89 85 40 f5 ff ff 	mov    %rax,-0xac0(%rbp)
   11163:	c7 85 34 f4 ff ff 06 	movl   $0x6,-0xbcc(%rbp)
   1116a:	00 00 00 
   1116d:	48 8d 05 92 90 00 00 	lea    0x9092(%rip),%rax        # 1a206 <g_475>
   11174:	48 89 85 48 f5 ff ff 	mov    %rax,-0xab8(%rbp)
   1117b:	48 8d 05 1e a2 00 00 	lea    0xa21e(%rip),%rax        # 1b3a0 <g_209>
   11182:	48 89 85 50 f5 ff ff 	mov    %rax,-0xab0(%rbp)
   11189:	c7 85 e4 f3 ff ff 00 	movl   $0x0,-0xc1c(%rbp)
   11190:	00 00 00 
   11193:	eb 1e                	jmp    111b3 <func_45+0x14b7>
   11195:	8b 85 e4 f3 ff ff    	mov    -0xc1c(%rbp),%eax
   1119b:	48 98                	cltq   
   1119d:	48 8d 15 fc ca 00 00 	lea    0xcafc(%rip),%rdx        # 1dca0 <g_563>
   111a4:	48 89 94 c5 20 fa ff 	mov    %rdx,-0x5e0(%rbp,%rax,8)
   111ab:	ff 
   111ac:	83 85 e4 f3 ff ff 01 	addl   $0x1,-0xc1c(%rbp)
   111b3:	83 bd e4 f3 ff ff 00 	cmpl   $0x0,-0xc1c(%rbp)
   111ba:	7e d9                	jle    11195 <func_45+0x1499>
   111bc:	83 bd 30 f4 ff ff 00 	cmpl   $0x0,-0xbd0(%rbp)
   111c3:	0f 85 c5 01 00 00    	jne    1138e <func_45+0x1692>
   111c9:	48 8b 85 90 f3 ff ff 	mov    -0xc70(%rbp),%rax
   111d0:	44 0f b6 f0          	movzbl %al,%r14d
   111d4:	48 8b 85 90 f3 ff ff 	mov    -0xc70(%rbp),%rax
   111db:	41 89 c7             	mov    %eax,%r15d
   111de:	0f b7 05 b3 8e 00 00 	movzwl 0x8eb3(%rip),%eax        # 1a098 <g_136>
   111e5:	48 0f bf c0          	movswq %ax,%rax
   111e9:	48 39 85 90 f3 ff ff 	cmp    %rax,-0xc70(%rbp)
   111f0:	0f 94 c0             	sete   %al
   111f3:	88 05 a7 ca 00 00    	mov    %al,0xcaa7(%rip)        # 1dca0 <g_563>
   111f9:	0f b6 05 a0 ca 00 00 	movzbl 0xcaa0(%rip),%eax        # 1dca0 <g_563>
   11200:	44 0f be e0          	movsbl %al,%r12d
   11204:	8b 05 8a 8e 00 00    	mov    0x8e8a(%rip),%eax        # 1a094 <g_100>
   1120a:	0f b6 d8             	movzbl %al,%ebx
   1120d:	48 8b 85 90 f3 ff ff 	mov    -0xc70(%rbp),%rax
   11214:	89 05 f6 c9 00 00    	mov    %eax,0xc9f6(%rip)        # 1dc10 <g_79>
   1121a:	44 8b 2d ef c9 00 00 	mov    0xc9ef(%rip),%r13d        # 1dc10 <g_79>
   11221:	48 8b 85 90 f3 ff ff 	mov    -0xc70(%rbp),%rax
   11228:	89 85 84 f3 ff ff    	mov    %eax,-0xc7c(%rbp)
   1122e:	8b 85 08 fa ff ff    	mov    -0x5f8(%rbp),%eax
   11234:	89 85 80 f3 ff ff    	mov    %eax,-0xc80(%rbp)
   1123a:	48 8b 15 c7 c9 00 00 	mov    0xc9c7(%rip),%rdx        # 1dc08 <g_77>
   11241:	48 8b 85 40 f5 ff ff 	mov    -0xac0(%rbp),%rax
   11248:	48 89 10             	mov    %rdx,(%rax)
   1124b:	48 8b 85 40 f5 ff ff 	mov    -0xac0(%rbp),%rax
   11252:	48 8b 00             	mov    (%rax),%rax
   11255:	48 85 c0             	test   %rax,%rax
   11258:	0f 95 c0             	setne  %al
   1125b:	0f b6 c0             	movzbl %al,%eax
   1125e:	be 19 0f 00 00       	mov    $0xf19,%esi
   11263:	89 c7                	mov    %eax,%edi
   11265:	e8 d3 8a ff ff       	callq  9d3d <safe_mul_func_uint16_t_u_u>
   1126a:	48 8b 85 80 f5 ff ff 	mov    -0xa80(%rbp),%rax
   11271:	8b b5 80 f3 ff ff    	mov    -0xc80(%rbp),%esi
   11277:	89 c7                	mov    %eax,%edi
   11279:	e8 a7 8c ff ff       	callq  9f25 <safe_div_func_uint32_t_u_u>
   1127e:	89 c2                	mov    %eax,%edx
   11280:	8b 85 9c fd ff ff    	mov    -0x264(%rbp),%eax
   11286:	98                   	cwtl   
   11287:	83 e0 43             	and    $0x43,%eax
   1128a:	89 d6                	mov    %edx,%esi
   1128c:	89 c7                	mov    %eax,%edi
   1128e:	e8 ff 81 ff ff       	callq  9492 <safe_lshift_func_int16_t_s_s>
   11293:	66 3d d3 00          	cmp    $0xd3,%ax
   11297:	0f 9e c0             	setle  %al
   1129a:	0f b6 c0             	movzbl %al,%eax
   1129d:	8b b5 84 f3 ff ff    	mov    -0xc7c(%rbp),%esi
   112a3:	89 c7                	mov    %eax,%edi
   112a5:	e8 26 8c ff ff       	callq  9ed0 <safe_sub_func_uint32_t_u_u>
   112aa:	48 8b 85 90 f3 ff ff 	mov    -0xc70(%rbp),%rax
   112b1:	0f b6 c0             	movzbl %al,%eax
   112b4:	be 70 00 00 00       	mov    $0x70,%esi
   112b9:	89 c7                	mov    %eax,%edi
   112bb:	e8 b8 88 ff ff       	callq  9b78 <safe_sub_func_uint8_t_u_u>
   112c0:	0f b6 c0             	movzbl %al,%eax
   112c3:	be ff 00 00 00       	mov    $0xff,%esi
   112c8:	89 c7                	mov    %eax,%edi
   112ca:	e8 8b 88 ff ff       	callq  9b5a <safe_add_func_uint8_t_u_u>
   112cf:	0f b6 c0             	movzbl %al,%eax
   112d2:	44 21 e8             	and    %r13d,%eax
   112d5:	39 85 e8 f3 ff ff    	cmp    %eax,-0xc18(%rbp)
   112db:	0f 94 c0             	sete   %al
   112de:	0f b6 c0             	movzbl %al,%eax
   112e1:	89 de                	mov    %ebx,%esi
   112e3:	89 c7                	mov    %eax,%edi
   112e5:	e8 70 88 ff ff       	callq  9b5a <safe_add_func_uint8_t_u_u>
   112ea:	0f b6 d0             	movzbl %al,%edx
   112ed:	0f b7 05 dc 8d 00 00 	movzwl 0x8ddc(%rip),%eax        # 1a0d0 <g_172>
   112f4:	66 39 c2             	cmp    %ax,%dx
   112f7:	0f 96 c0             	setbe  %al
   112fa:	0f b6 c0             	movzbl %al,%eax
   112fd:	89 85 34 f4 ff ff    	mov    %eax,-0xbcc(%rbp)
   11303:	44 39 a5 34 f4 ff ff 	cmp    %r12d,-0xbcc(%rbp)
   1130a:	0f 9d c0             	setge  %al
   1130d:	0f b6 c0             	movzbl %al,%eax
   11310:	66 89 85 b0 f3 ff ff 	mov    %ax,-0xc50(%rbp)
   11317:	0f b7 85 b0 f3 ff ff 	movzwl -0xc50(%rbp),%eax
   1131e:	44 89 fe             	mov    %r15d,%esi
   11321:	89 c7                	mov    %eax,%edi
   11323:	e8 dd 82 ff ff       	callq  9605 <safe_sub_func_int32_t_s_s>
   11328:	89 c2                	mov    %eax,%edx
   1132a:	48 8b 85 48 f5 ff ff 	mov    -0xab8(%rbp),%rax
   11331:	66 89 10             	mov    %dx,(%rax)
   11334:	bf 00 00 00 00       	mov    $0x0,%edi
   11339:	e8 68 8b ff ff       	callq  9ea6 <safe_unary_minus_func_uint32_t_u>
   1133e:	be 01 00 00 00       	mov    $0x1,%esi
   11343:	bf 01 00 00 00       	mov    $0x1,%edi
   11348:	e8 67 86 ff ff       	callq  99b4 <safe_mod_func_int64_t_s_s>
   1134d:	48 89 c2             	mov    %rax,%rdx
   11350:	48 8b 05 09 ad 00 00 	mov    0xad09(%rip),%rax        # 1c060 <g_766>
   11357:	48 8b 00             	mov    (%rax),%rax
   1135a:	48 8b 00             	mov    (%rax),%rax
   1135d:	8b 85 30 f4 ff ff    	mov    -0xbd0(%rbp),%eax
   11363:	48 8b b5 b8 f4 ff ff 	mov    -0xb48(%rbp),%rsi
   1136a:	45 89 f0             	mov    %r14d,%r8d
   1136d:	48 8d 0d 1c 8d 00 00 	lea    0x8d1c(%rip),%rcx        # 1a090 <g_99>
   11374:	89 c7                	mov    %eax,%edi
   11376:	e8 63 44 00 00       	callq  157de <func_58>
   1137b:	48 8b 95 50 f5 ff ff 	mov    -0xab0(%rbp),%rdx
   11382:	48 89 02             	mov    %rax,(%rdx)
   11385:	0f b7 05 4c 8d 00 00 	movzwl 0x8d4c(%rip),%eax        # 1a0d8 <g_172+0x8>
   1138c:	eb 73                	jmp    11401 <func_45+0x1705>
   1138e:	90                   	nop
   1138f:	0f b7 05 aa 8c 00 00 	movzwl 0x8caa(%rip),%eax        # 1a040 <g_75>
   11396:	83 c0 01             	add    $0x1,%eax
   11399:	66 89 05 a0 8c 00 00 	mov    %ax,0x8ca0(%rip)        # 1a040 <g_75>
   113a0:	0f b7 05 99 8c 00 00 	movzwl 0x8c99(%rip),%eax        # 1a040 <g_75>
   113a7:	66 83 f8 03          	cmp    $0x3,%ax
   113ab:	0f 86 86 ea ff ff    	jbe    fe37 <func_45+0x13b>
   113b1:	eb 01                	jmp    113b4 <func_45+0x16b8>
   113b3:	90                   	nop
   113b4:	48 8b 85 80 f4 ff ff 	mov    -0xb80(%rbp),%rax
   113bb:	48 8d 15 be ac 00 00 	lea    0xacbe(%rip),%rdx        # 1c080 <g_794>
   113c2:	48 89 10             	mov    %rdx,(%rax)
   113c5:	48 8b 85 88 f4 ff ff 	mov    -0xb78(%rbp),%rax
   113cc:	48 8d 95 64 f5 ff ff 	lea    -0xa9c(%rbp),%rdx
   113d3:	48 83 c2 08          	add    $0x8,%rdx
   113d7:	48 89 10             	mov    %rdx,(%rax)
   113da:	66 c7 05 27 8e 00 00 	movw   $0x17,0x8e27(%rip)        # 1a20a <g_705>
   113e1:	17 00 
   113e3:	90                   	nop
   113e4:	0f b7 05 1f 8e 00 00 	movzwl 0x8e1f(%rip),%eax        # 1a20a <g_705>
   113eb:	66 83 f8 fe          	cmp    $0xfffe,%ax
   113ef:	7c 09                	jl     113fa <func_45+0x16fe>
   113f1:	48 8b 85 90 f4 ff ff 	mov    -0xb70(%rbp),%rax
   113f8:	eb 07                	jmp    11401 <func_45+0x1705>
   113fa:	48 8b 85 90 f3 ff ff 	mov    -0xc70(%rbp),%rax
   11401:	48 8b 5d c8          	mov    -0x38(%rbp),%rbx
   11405:	64 48 33 1c 25 28 00 	xor    %fs:0x28,%rbx
   1140c:	00 00 
   1140e:	74 05                	je     11415 <func_45+0x1719>
   11410:	e8 5b 7c ff ff       	callq  9070 <__stack_chk_fail@plt>
   11415:	48 81 c4 58 0c 00 00 	add    $0xc58,%rsp
   1141c:	5b                   	pop    %rbx
   1141d:	41 5c                	pop    %r12
   1141f:	41 5d                	pop    %r13
   11421:	41 5e                	pop    %r14
   11423:	41 5f                	pop    %r15
   11425:	5d                   	pop    %rbp
   11426:	c3                   	retq   

0000000000011427 <func_49>:
   11427:	f3 0f 1e fa          	endbr64 
   1142b:	55                   	push   %rbp
   1142c:	48 89 e5             	mov    %rsp,%rbp
   1142f:	41 57                	push   %r15
   11431:	41 56                	push   %r14
   11433:	41 55                	push   %r13
   11435:	41 54                	push   %r12
   11437:	53                   	push   %rbx
   11438:	48 81 ec 00 10 00 00 	sub    $0x1000,%rsp
   1143f:	48 83 0c 24 00       	orq    $0x0,(%rsp)
   11444:	48 81 ec 48 0c 00 00 	sub    $0xc48,%rsp
   1144b:	48 89 bd a8 e3 ff ff 	mov    %rdi,-0x1c58(%rbp)
   11452:	48 89 b5 a0 e3 ff ff 	mov    %rsi,-0x1c60(%rbp)
   11459:	89 d0                	mov    %edx,%eax
   1145b:	48 89 8d 90 e3 ff ff 	mov    %rcx,-0x1c70(%rbp)
   11462:	44 89 85 98 e3 ff ff 	mov    %r8d,-0x1c68(%rbp)
   11469:	66 89 85 9c e3 ff ff 	mov    %ax,-0x1c64(%rbp)
   11470:	64 48 8b 04 25 28 00 	mov    %fs:0x28,%rax
   11477:	00 00 
   11479:	48 89 45 c8          	mov    %rax,-0x38(%rbp)
   1147d:	31 c0                	xor    %eax,%eax
   1147f:	66 c7 85 be e3 ff ff 	movw   $0x34dc,-0x1c42(%rbp)
   11486:	dc 34 
   11488:	c7 85 c4 e3 ff ff 08 	movl   $0x8,-0x1c3c(%rbp)
   1148f:	00 00 00 
   11492:	48 b8 d7 f6 cd 06 1c 	movabs $0x812e441c06cdf6d7,%rax
   11499:	44 2e 81 
   1149c:	48 89 85 80 e4 ff ff 	mov    %rax,-0x1b80(%rbp)
   114a3:	48 8d 05 96 8b 00 00 	lea    0x8b96(%rip),%rax        # 1a040 <g_75>
   114aa:	48 89 85 20 e4 ff ff 	mov    %rax,-0x1be0(%rbp)
   114b1:	c7 85 ec e3 ff ff 5c 	movl   $0xd3fd685c,-0x1c14(%rbp)
   114b8:	68 fd d3 
   114bb:	48 8d 85 40 ee ff ff 	lea    -0x11c0(%rbp),%rax
   114c2:	48 8d 15 57 56 00 00 	lea    0x5657(%rip),%rdx        # 16b20 <g_1624+0xac0>
   114c9:	b9 78 00 00 00       	mov    $0x78,%ecx
   114ce:	48 89 c7             	mov    %rax,%rdi
   114d1:	48 89 d6             	mov    %rdx,%rsi
   114d4:	f3 48 a5             	rep movsq %ds:(%rsi),%es:(%rdi)
   114d7:	48 8d 05 4a 9f 00 00 	lea    0x9f4a(%rip),%rax        # 1b428 <g_469>
   114de:	48 89 85 88 e4 ff ff 	mov    %rax,-0x1b78(%rbp)
   114e5:	48 c7 85 28 e4 ff ff 	movq   $0x0,-0x1bd8(%rbp)
   114ec:	00 00 00 00 
   114f0:	48 8d 85 28 e4 ff ff 	lea    -0x1bd8(%rbp),%rax
   114f7:	48 89 85 90 e4 ff ff 	mov    %rax,-0x1b70(%rbp)
   114fe:	48 8d 05 5b 8b 00 00 	lea    0x8b5b(%rip),%rax        # 1a060 <g_97>
   11505:	48 89 85 30 e4 ff ff 	mov    %rax,-0x1bd0(%rbp)
   1150c:	48 8d 85 30 e4 ff ff 	lea    -0x1bd0(%rbp),%rax
   11513:	48 89 85 38 e4 ff ff 	mov    %rax,-0x1bc8(%rbp)
   1151a:	48 8d 85 38 e4 ff ff 	lea    -0x1bc8(%rbp),%rax
   11521:	48 89 85 40 e4 ff ff 	mov    %rax,-0x1bc0(%rbp)
   11528:	48 8d 05 01 8b 00 00 	lea    0x8b01(%rip),%rax        # 1a030 <g_5>
   1152f:	48 89 85 48 e4 ff ff 	mov    %rax,-0x1bb8(%rbp)
   11536:	48 8d 85 48 e4 ff ff 	lea    -0x1bb8(%rbp),%rax
   1153d:	48 89 85 40 e6 ff ff 	mov    %rax,-0x19c0(%rbp)
   11544:	48 8d 85 48 e4 ff ff 	lea    -0x1bb8(%rbp),%rax
   1154b:	48 89 85 48 e6 ff ff 	mov    %rax,-0x19b8(%rbp)
   11552:	48 8d 85 48 e4 ff ff 	lea    -0x1bb8(%rbp),%rax
   11559:	48 89 85 50 e6 ff ff 	mov    %rax,-0x19b0(%rbp)
   11560:	48 8d 85 48 e4 ff ff 	lea    -0x1bb8(%rbp),%rax
   11567:	48 89 85 58 e6 ff ff 	mov    %rax,-0x19a8(%rbp)
   1156e:	48 8d 85 48 e4 ff ff 	lea    -0x1bb8(%rbp),%rax
   11575:	48 89 85 60 e6 ff ff 	mov    %rax,-0x19a0(%rbp)
   1157c:	48 8d 85 48 e4 ff ff 	lea    -0x1bb8(%rbp),%rax
   11583:	48 89 85 68 e6 ff ff 	mov    %rax,-0x1998(%rbp)
   1158a:	48 8d 85 48 e4 ff ff 	lea    -0x1bb8(%rbp),%rax
   11591:	48 89 85 70 e6 ff ff 	mov    %rax,-0x1990(%rbp)
   11598:	48 8d 85 48 e4 ff ff 	lea    -0x1bb8(%rbp),%rax
   1159f:	48 89 85 78 e6 ff ff 	mov    %rax,-0x1988(%rbp)
   115a6:	c7 85 d4 e3 ff ff 00 	movl   $0x0,-0x1c2c(%rbp)
   115ad:	00 00 00 
   115b0:	eb 1a                	jmp    115cc <func_49+0x1a5>
   115b2:	8b 85 d4 e3 ff ff    	mov    -0x1c2c(%rbp),%eax
   115b8:	48 98                	cltq   
   115ba:	c7 84 85 20 e6 ff ff 	movl   $0x9d02ff6b,-0x19e0(%rbp,%rax,4)
   115c1:	6b ff 02 9d 
   115c5:	83 85 d4 e3 ff ff 01 	addl   $0x1,-0x1c2c(%rbp)
   115cc:	83 bd d4 e3 ff ff 04 	cmpl   $0x4,-0x1c2c(%rbp)
   115d3:	7e dd                	jle    115b2 <func_49+0x18b>
   115d5:	0f b7 85 be e3 ff ff 	movzwl -0x1c42(%rbp),%eax
   115dc:	66 85 c0             	test   %ax,%ax
   115df:	0f 84 5e 02 00 00    	je     11843 <func_49+0x41c>
   115e5:	66 c7 85 c2 e3 ff ff 	movw   $0x1,-0x1c3e(%rbp)
   115ec:	01 00 
   115ee:	48 8d 85 c0 f8 ff ff 	lea    -0x740(%rbp),%rax
   115f5:	48 89 85 e8 e5 ff ff 	mov    %rax,-0x1a18(%rbp)
   115fc:	48 c7 85 f0 e5 ff ff 	movq   $0x0,-0x1a10(%rbp)
   11603:	00 00 00 00 
   11607:	48 8d 05 c4 8a 00 00 	lea    0x8ac4(%rip),%rax        # 1a0d2 <g_172+0x2>
   1160e:	48 89 85 f8 e5 ff ff 	mov    %rax,-0x1a08(%rbp)
   11615:	48 8d 05 7c 8a 00 00 	lea    0x8a7c(%rip),%rax        # 1a098 <g_136>
   1161c:	48 89 85 00 e6 ff ff 	mov    %rax,-0x1a00(%rbp)
   11623:	48 8d 05 dc 8b 00 00 	lea    0x8bdc(%rip),%rax        # 1a206 <g_475>
   1162a:	48 89 85 08 e6 ff ff 	mov    %rax,-0x19f8(%rbp)
   11631:	48 8d 05 04 8a 00 00 	lea    0x8a04(%rip),%rax        # 1a03c <g_72>
   11638:	48 89 85 10 e6 ff ff 	mov    %rax,-0x19f0(%rbp)
   1163f:	c7 85 d8 e3 ff ff 00 	movl   $0x0,-0x1c28(%rbp)
   11646:	00 00 00 
   11649:	eb 1e                	jmp    11669 <func_49+0x242>
   1164b:	8b 85 d8 e3 ff ff    	mov    -0x1c28(%rbp),%eax
   11651:	48 98                	cltq   
   11653:	48 8d 15 d6 89 00 00 	lea    0x89d6(%rip),%rdx        # 1a030 <g_5>
   1165a:	48 89 94 c5 c0 f8 ff 	mov    %rdx,-0x740(%rbp,%rax,8)
   11661:	ff 
   11662:	83 85 d8 e3 ff ff 01 	addl   $0x1,-0x1c28(%rbp)
   11669:	83 bd d8 e3 ff ff 07 	cmpl   $0x7,-0x1c28(%rbp)
   11670:	7e d9                	jle    1164b <func_49+0x224>
   11672:	48 8b 95 f8 f8 ff ff 	mov    -0x708(%rbp),%rdx
   11679:	48 8b 85 e8 e5 ff ff 	mov    -0x1a18(%rbp),%rax
   11680:	48 89 10             	mov    %rdx,(%rax)
   11683:	48 8b 85 e8 e5 ff ff 	mov    -0x1a18(%rbp),%rax
   1168a:	48 8b 00             	mov    (%rax),%rax
   1168d:	48 8d 15 9c 89 00 00 	lea    0x899c(%rip),%rdx        # 1a030 <g_5>
   11694:	48 39 d0             	cmp    %rdx,%rax
   11697:	66 83 bd 9c e3 ff ff 	cmpw   $0x0,-0x1c64(%rbp)
   1169e:	00 
   1169f:	b9 01 00 00 00       	mov    $0x1,%ecx
   116a4:	48 8b 85 f8 e5 ff ff 	mov    -0x1a08(%rbp),%rax
   116ab:	0f b7 00             	movzwl (%rax),%eax
   116ae:	89 c2                	mov    %eax,%edx
   116b0:	89 c8                	mov    %ecx,%eax
   116b2:	21 d0                	and    %edx,%eax
   116b4:	89 c2                	mov    %eax,%edx
   116b6:	48 8b 85 f8 e5 ff ff 	mov    -0x1a08(%rbp),%rax
   116bd:	66 89 10             	mov    %dx,(%rax)
   116c0:	48 8b 85 f8 e5 ff ff 	mov    -0x1a08(%rbp),%rax
   116c7:	0f b7 00             	movzwl (%rax),%eax
   116ca:	66 85 c0             	test   %ax,%ax
   116cd:	74 0a                	je     116d9 <func_49+0x2b2>
   116cf:	0f b7 85 be e3 ff ff 	movzwl -0x1c42(%rbp),%eax
   116d6:	66 85 c0             	test   %ax,%ax
   116d9:	48 8d 85 be e3 ff ff 	lea    -0x1c42(%rbp),%rax
   116e0:	48 39 85 f0 e5 ff ff 	cmp    %rax,-0x1a10(%rbp)
   116e7:	74 0a                	je     116f3 <func_49+0x2cc>
   116e9:	66 83 bd c2 e3 ff ff 	cmpw   $0x0,-0x1c3e(%rbp)
   116f0:	00 
   116f1:	74 08                	je     116fb <func_49+0x2d4>
   116f3:	66 83 bd c2 e3 ff ff 	cmpw   $0x0,-0x1c3e(%rbp)
   116fa:	00 
   116fb:	b9 09 00 00 00       	mov    $0x9,%ecx
   11700:	48 8b 05 99 9c 00 00 	mov    0x9c99(%rip),%rax        # 1b3a0 <g_209>
   11707:	8b 10                	mov    (%rax),%edx
   11709:	48 8b 05 90 9c 00 00 	mov    0x9c90(%rip),%rax        # 1b3a0 <g_209>
   11710:	31 ca                	xor    %ecx,%edx
   11712:	89 10                	mov    %edx,(%rax)
   11714:	44 0f b7 a5 9c e3 ff 	movzwl -0x1c64(%rbp),%r12d
   1171b:	ff 
   1171c:	0f b7 85 be e3 ff ff 	movzwl -0x1c42(%rbp),%eax
   11723:	0f bf d8             	movswl %ax,%ebx
   11726:	0f b7 85 be e3 ff ff 	movzwl -0x1c42(%rbp),%eax
   1172d:	98                   	cwtl   
   1172e:	89 85 c4 e3 ff ff    	mov    %eax,-0x1c3c(%rbp)
   11734:	8b 85 c4 e3 ff ff    	mov    -0x1c3c(%rbp),%eax
   1173a:	be ae ef d9 87       	mov    $0x87d9efae,%esi
   1173f:	89 c7                	mov    %eax,%edi
   11741:	e8 bf 7e ff ff       	callq  9605 <safe_sub_func_int32_t_s_s>
   11746:	89 de                	mov    %ebx,%esi
   11748:	89 c7                	mov    %eax,%edi
   1174a:	e8 ae 87 ff ff       	callq  9efd <safe_mod_func_uint32_t_u_u>
   1174f:	48 8b 05 8a c4 00 00 	mov    0xc48a(%rip),%rax        # 1dbe0 <g_73>
   11756:	48 8b 85 08 e6 ff ff 	mov    -0x19f8(%rbp),%rax
   1175d:	66 c7 00 75 a8       	movw   $0xa875,(%rax)
   11762:	48 8b 85 08 e6 ff ff 	mov    -0x19f8(%rbp),%rax
   11769:	0f b7 00             	movzwl (%rax),%eax
   1176c:	98                   	cwtl   
   1176d:	f7 d0                	not    %eax
   1176f:	89 c2                	mov    %eax,%edx
   11771:	0f b6 05 67 89 00 00 	movzbl 0x8967(%rip),%eax        # 1a0df <g_290>
   11778:	0f b6 c0             	movzbl %al,%eax
   1177b:	25 f5 0c 00 00       	and    $0xcf5,%eax
   11780:	48 89 c1             	mov    %rax,%rcx
   11783:	48 8b 05 26 89 00 00 	mov    0x8926(%rip),%rax        # 1a0b0 <g_171+0x10>
   1178a:	48 39 c1             	cmp    %rax,%rcx
   1178d:	0f 94 c0             	sete   %al
   11790:	0f b6 c0             	movzbl %al,%eax
   11793:	39 c2                	cmp    %eax,%edx
   11795:	7c 0a                	jl     117a1 <func_49+0x37a>
   11797:	66 83 bd c2 e3 ff ff 	cmpw   $0x0,-0x1c3e(%rbp)
   1179e:	00 
   1179f:	74 07                	je     117a8 <func_49+0x381>
   117a1:	b8 01 00 00 00       	mov    $0x1,%eax
   117a6:	eb 05                	jmp    117ad <func_49+0x386>
   117a8:	b8 00 00 00 00       	mov    $0x0,%eax
   117ad:	89 c2                	mov    %eax,%edx
   117af:	48 8b 85 10 e6 ff ff 	mov    -0x19f0(%rbp),%rax
   117b6:	89 10                	mov    %edx,(%rax)
   117b8:	8b 05 52 c4 00 00    	mov    0xc452(%rip),%eax        # 1dc10 <g_79>
   117be:	48 98                	cltq   
   117c0:	83 e0 01             	and    $0x1,%eax
   117c3:	48 89 c2             	mov    %rax,%rdx
   117c6:	48 8b 85 a0 e3 ff ff 	mov    -0x1c60(%rbp),%rax
   117cd:	48 8b 00             	mov    (%rax),%rax
   117d0:	48 39 c2             	cmp    %rax,%rdx
   117d3:	0f 95 c0             	setne  %al
   117d6:	0f b6 c0             	movzbl %al,%eax
   117d9:	be f6 00 00 00       	mov    $0xf6,%esi
   117de:	89 c7                	mov    %eax,%edi
   117e0:	e8 75 83 ff ff       	callq  9b5a <safe_add_func_uint8_t_u_u>
   117e5:	0f b6 d0             	movzbl %al,%edx
   117e8:	0f b7 85 9c e3 ff ff 	movzwl -0x1c64(%rbp),%eax
   117ef:	21 d0                	and    %edx,%eax
   117f1:	89 c3                	mov    %eax,%ebx
   117f3:	8b 85 98 e3 ff ff    	mov    -0x1c68(%rbp),%eax
   117f9:	89 c2                	mov    %eax,%edx
   117fb:	48 8b 85 00 e6 ff ff 	mov    -0x1a00(%rbp),%rax
   11802:	66 89 10             	mov    %dx,(%rax)
   11805:	be f7 ff ff ff       	mov    $0xfffffff7,%esi
   1180a:	bf ff ff ff ff       	mov    $0xffffffff,%edi
   1180f:	e8 f1 7d ff ff       	callq  9605 <safe_sub_func_int32_t_s_s>
   11814:	89 de                	mov    %ebx,%esi
   11816:	89 c7                	mov    %eax,%edi
   11818:	e8 08 87 ff ff       	callq  9f25 <safe_div_func_uint32_t_u_u>
   1181d:	35 54 18 dd 1e       	xor    $0x1edd1854,%eax
   11822:	89 85 24 e6 ff ff    	mov    %eax,-0x19dc(%rbp)
   11828:	8b 85 24 e6 ff ff    	mov    -0x19dc(%rbp),%eax
   1182e:	41 39 c4             	cmp    %eax,%r12d
   11831:	48 8b 05 68 9b 00 00 	mov    0x9b68(%rip),%rax        # 1b3a0 <g_209>
   11838:	c7 00 00 00 00 00    	movl   $0x0,(%rax)
   1183e:	e9 64 26 00 00       	jmpq   13ea7 <func_49+0x2a80>
   11843:	c7 85 f0 e3 ff ff fb 	movl   $0xfffffffb,-0x1c10(%rbp)
   1184a:	ff ff ff 
   1184d:	48 8d 05 ec 9b 00 00 	lea    0x9bec(%rip),%rax        # 1b440 <g_492>
   11854:	48 89 85 50 e4 ff ff 	mov    %rax,-0x1bb0(%rbp)
   1185b:	c7 85 f4 e3 ff ff 92 	movl   $0x1b980992,-0x1c0c(%rbp)
   11862:	09 98 1b 
   11865:	c7 85 f8 e3 ff ff 8a 	movl   $0xfd80428a,-0x1c08(%rbp)
   1186c:	42 80 fd 
   1186f:	c7 85 c8 e3 ff ff 1b 	movl   $0xe5235e1b,-0x1c38(%rbp)
   11876:	5e 23 e5 
   11879:	48 8d 85 70 eb ff ff 	lea    -0x1490(%rbp),%rax
   11880:	48 8d 15 59 56 00 00 	lea    0x5659(%rip),%rdx        # 16ee0 <g_1624+0xe80>
   11887:	b9 5a 00 00 00       	mov    $0x5a,%ecx
   1188c:	48 89 c7             	mov    %rax,%rdi
   1188f:	48 89 d6             	mov    %rdx,%rsi
   11892:	f3 48 a5             	rep movsq %ds:(%rsi),%es:(%rdi)
   11895:	c7 85 cc e3 ff ff 00 	movl   $0x0,-0x1c34(%rbp)
   1189c:	00 00 00 
   1189f:	48 c7 85 58 e4 ff ff 	movq   $0x0,-0x1ba8(%rbp)
   118a6:	00 00 00 00 
   118aa:	48 8d 85 58 e4 ff ff 	lea    -0x1ba8(%rbp),%rax
   118b1:	48 89 85 98 e4 ff ff 	mov    %rax,-0x1b68(%rbp)
   118b8:	48 8d 85 1c e6 ff ff 	lea    -0x19e4(%rbp),%rax
   118bf:	48 89 85 a0 e4 ff ff 	mov    %rax,-0x1b60(%rbp)
   118c6:	48 c7 85 a8 e4 ff ff 	movq   $0x0,-0x1b58(%rbp)
   118cd:	00 00 00 00 
   118d1:	48 8d 85 00 f2 ff ff 	lea    -0xe00(%rbp),%rax
   118d8:	48 8d 15 41 91 00 00 	lea    0x9141(%rip),%rdx        # 1aa20 <g_2296+0x780>
   118df:	b9 d8 00 00 00       	mov    $0xd8,%ecx
   118e4:	48 89 c7             	mov    %rax,%rdi
   118e7:	48 89 d6             	mov    %rdx,%rsi
   118ea:	f3 48 a5             	rep movsq %ds:(%rsi),%es:(%rdi)
   118ed:	48 8d 05 12 89 00 00 	lea    0x8912(%rip),%rax        # 1a206 <g_475>
   118f4:	48 89 85 b0 e4 ff ff 	mov    %rax,-0x1b50(%rbp)
   118fb:	48 8d 85 70 eb ff ff 	lea    -0x1490(%rbp),%rax
   11902:	48 05 a8 01 00 00    	add    $0x1a8,%rax
   11908:	48 89 85 60 e4 ff ff 	mov    %rax,-0x1ba0(%rbp)
   1190f:	48 8d 85 60 e4 ff ff 	lea    -0x1ba0(%rbp),%rax
   11916:	48 89 85 68 e4 ff ff 	mov    %rax,-0x1b98(%rbp)
   1191d:	c7 85 dc e3 ff ff 00 	movl   $0x0,-0x1c24(%rbp)
   11924:	00 00 00 
   11927:	eb 1a                	jmp    11943 <func_49+0x51c>
   11929:	8b 85 dc e3 ff ff    	mov    -0x1c24(%rbp),%eax
   1192f:	48 98                	cltq   
   11931:	c7 84 85 1c e6 ff ff 	movl   $0x3,-0x19e4(%rbp,%rax,4)
   11938:	03 00 00 00 
   1193c:	83 85 dc e3 ff ff 01 	addl   $0x1,-0x1c24(%rbp)
   11943:	83 bd dc e3 ff ff 00 	cmpl   $0x0,-0x1c24(%rbp)
   1194a:	7e dd                	jle    11929 <func_49+0x502>
   1194c:	c7 85 dc e3 ff ff 00 	movl   $0x0,-0x1c24(%rbp)
   11953:	00 00 00 
   11956:	eb 49                	jmp    119a1 <func_49+0x57a>
   11958:	c7 85 e0 e3 ff ff 00 	movl   $0x0,-0x1c20(%rbp)
   1195f:	00 00 00 
   11962:	eb 2d                	jmp    11991 <func_49+0x56a>
   11964:	8b 85 e0 e3 ff ff    	mov    -0x1c20(%rbp),%eax
   1196a:	48 98                	cltq   
   1196c:	8b 95 dc e3 ff ff    	mov    -0x1c24(%rbp),%edx
   11972:	48 63 d2             	movslq %edx,%rdx
   11975:	48 01 d2             	add    %rdx,%rdx
   11978:	48 01 d0             	add    %rdx,%rax
   1197b:	48 8d 15 a6 9a 00 00 	lea    0x9aa6(%rip),%rdx        # 1b428 <g_469>
   11982:	48 89 94 c5 80 e6 ff 	mov    %rdx,-0x1980(%rbp,%rax,8)
   11989:	ff 
   1198a:	83 85 e0 e3 ff ff 01 	addl   $0x1,-0x1c20(%rbp)
   11991:	83 bd e0 e3 ff ff 01 	cmpl   $0x1,-0x1c20(%rbp)
   11998:	7e ca                	jle    11964 <func_49+0x53d>
   1199a:	83 85 dc e3 ff ff 01 	addl   $0x1,-0x1c24(%rbp)
   119a1:	83 bd dc e3 ff ff 04 	cmpl   $0x4,-0x1c24(%rbp)
   119a8:	7e ae                	jle    11958 <func_49+0x531>
   119aa:	c7 05 6c c2 00 00 01 	movl   $0x1,0xc26c(%rip)        # 1dc20 <g_272>
   119b1:	00 00 00 
   119b4:	e9 60 08 00 00       	jmpq   12219 <func_49+0xdf2>
   119b9:	c7 85 fc e3 ff ff f6 	movl   $0xfffffff6,-0x1c04(%rbp)
   119c0:	ff ff ff 
   119c3:	48 c7 85 70 e4 ff ff 	movq   $0x0,-0x1b90(%rbp)
   119ca:	00 00 00 00 
   119ce:	48 c7 85 b8 e4 ff ff 	movq   $0x0,-0x1b48(%rbp)
   119d5:	00 00 00 00 
   119d9:	c7 85 00 e4 ff ff fb 	movl   $0xfffffffb,-0x1c00(%rbp)
   119e0:	ff ff ff 
   119e3:	c7 85 c0 f8 ff ff ff 	movl   $0xffffffff,-0x740(%rbp)
   119ea:	ff ff ff 
   119ed:	c7 85 c4 f8 ff ff 01 	movl   $0x1,-0x73c(%rbp)
   119f4:	00 00 00 
   119f7:	c7 85 c8 f8 ff ff 01 	movl   $0x1,-0x738(%rbp)
   119fe:	00 00 00 
   11a01:	c7 85 cc f8 ff ff f7 	movl   $0xfffffff7,-0x734(%rbp)
   11a08:	ff ff ff 
   11a0b:	c7 85 d0 f8 ff ff 07 	movl   $0x7,-0x730(%rbp)
   11a12:	00 00 00 
   11a15:	c7 85 d4 f8 ff ff ff 	movl   $0xffffffff,-0x72c(%rbp)
   11a1c:	ff ff ff 
   11a1f:	c7 85 d8 f8 ff ff ff 	movl   $0xffffffff,-0x728(%rbp)
   11a26:	ff ff ff 
   11a29:	c7 85 dc f8 ff ff 07 	movl   $0x7,-0x724(%rbp)
   11a30:	00 00 00 
   11a33:	c7 85 e0 f8 ff ff ff 	movl   $0xffffffff,-0x720(%rbp)
   11a3a:	ff ff ff 
   11a3d:	c7 85 e4 f8 ff ff f7 	movl   $0xfffffff7,-0x71c(%rbp)
   11a44:	ff ff ff 
   11a47:	c7 85 e8 f8 ff ff ff 	movl   $0xffffffff,-0x718(%rbp)
   11a4e:	ff ff ff 
   11a51:	c7 85 ec f8 ff ff 07 	movl   $0x7,-0x714(%rbp)
   11a58:	00 00 00 
   11a5b:	c7 85 f0 f8 ff ff ff 	movl   $0xffffffff,-0x710(%rbp)
   11a62:	ff ff ff 
   11a65:	c7 85 f4 f8 ff ff ff 	movl   $0xffffffff,-0x70c(%rbp)
   11a6c:	ff ff ff 
   11a6f:	c7 85 f8 f8 ff ff 07 	movl   $0x7,-0x708(%rbp)
   11a76:	00 00 00 
   11a79:	c7 85 fc f8 ff ff f7 	movl   $0xfffffff7,-0x704(%rbp)
   11a80:	ff ff ff 
   11a83:	c7 85 00 f9 ff ff 01 	movl   $0x1,-0x700(%rbp)
   11a8a:	00 00 00 
   11a8d:	c7 85 04 f9 ff ff 01 	movl   $0x1,-0x6fc(%rbp)
   11a94:	00 00 00 
   11a97:	c7 85 08 f9 ff ff ff 	movl   $0xffffffff,-0x6f8(%rbp)
   11a9e:	ff ff ff 
   11aa1:	c7 85 0c f9 ff ff 01 	movl   $0x1,-0x6f4(%rbp)
   11aa8:	00 00 00 
   11aab:	c7 85 10 f9 ff ff 01 	movl   $0x1,-0x6f0(%rbp)
   11ab2:	00 00 00 
   11ab5:	c7 85 14 f9 ff ff f7 	movl   $0xfffffff7,-0x6ec(%rbp)
   11abc:	ff ff ff 
   11abf:	c7 85 18 f9 ff ff 07 	movl   $0x7,-0x6e8(%rbp)
   11ac6:	00 00 00 
   11ac9:	c7 85 1c f9 ff ff ff 	movl   $0xffffffff,-0x6e4(%rbp)
   11ad0:	ff ff ff 
   11ad3:	c7 85 20 f9 ff ff ff 	movl   $0xffffffff,-0x6e0(%rbp)
   11ada:	ff ff ff 
   11add:	c7 85 24 f9 ff ff 07 	movl   $0x7,-0x6dc(%rbp)
   11ae4:	00 00 00 
   11ae7:	c7 85 28 f9 ff ff ff 	movl   $0xffffffff,-0x6d8(%rbp)
   11aee:	ff ff ff 
   11af1:	c7 85 2c f9 ff ff f7 	movl   $0xfffffff7,-0x6d4(%rbp)
   11af8:	ff ff ff 
   11afb:	c7 85 30 f9 ff ff ff 	movl   $0xffffffff,-0x6d0(%rbp)
   11b02:	ff ff ff 
   11b05:	c7 85 34 f9 ff ff 07 	movl   $0x7,-0x6cc(%rbp)
   11b0c:	00 00 00 
   11b0f:	c7 85 38 f9 ff ff ff 	movl   $0xffffffff,-0x6c8(%rbp)
   11b16:	ff ff ff 
   11b19:	c7 85 3c f9 ff ff ff 	movl   $0xffffffff,-0x6c4(%rbp)
   11b20:	ff ff ff 
   11b23:	c7 85 40 f9 ff ff 07 	movl   $0x7,-0x6c0(%rbp)
   11b2a:	00 00 00 
   11b2d:	c7 85 44 f9 ff ff f7 	movl   $0xfffffff7,-0x6bc(%rbp)
   11b34:	ff ff ff 
   11b37:	c7 85 48 f9 ff ff 01 	movl   $0x1,-0x6b8(%rbp)
   11b3e:	00 00 00 
   11b41:	c7 85 4c f9 ff ff 01 	movl   $0x1,-0x6b4(%rbp)
   11b48:	00 00 00 
   11b4b:	c7 05 47 85 00 00 00 	movl   $0x0,0x8547(%rip)        # 1a09c <g_169>
   11b52:	00 00 00 
   11b55:	e9 97 06 00 00       	jmpq   121f1 <func_49+0xdca>
   11b5a:	48 8d 05 3f 98 00 00 	lea    0x983f(%rip),%rax        # 1b3a0 <g_209>
   11b61:	48 89 85 c0 e4 ff ff 	mov    %rax,-0x1b40(%rbp)
   11b68:	48 c7 85 c8 e4 ff ff 	movq   $0x0,-0x1b38(%rbp)
   11b6f:	00 00 00 00 
   11b73:	48 8d 05 5a 85 00 00 	lea    0x855a(%rip),%rax        # 1a0d4 <g_172+0x4>
   11b7a:	48 89 85 d0 e4 ff ff 	mov    %rax,-0x1b30(%rbp)
   11b81:	48 8d 05 e8 98 00 00 	lea    0x98e8(%rip),%rax        # 1b470 <g_491>
   11b88:	48 89 85 d8 e4 ff ff 	mov    %rax,-0x1b28(%rbp)
   11b8f:	48 8d 05 8a 98 00 00 	lea    0x988a(%rip),%rax        # 1b420 <g_466>
   11b96:	48 89 85 e0 e4 ff ff 	mov    %rax,-0x1b20(%rbp)
   11b9d:	48 8d 85 70 e4 ff ff 	lea    -0x1b90(%rbp),%rax
   11ba4:	48 89 85 e8 e4 ff ff 	mov    %rax,-0x1b18(%rbp)
   11bab:	48 8d 05 ee c0 00 00 	lea    0xc0ee(%rip),%rax        # 1dca0 <g_563>
   11bb2:	48 89 85 78 e4 ff ff 	mov    %rax,-0x1b88(%rbp)
   11bb9:	48 8d 45 c2          	lea    -0x3e(%rbp),%rax
   11bbd:	48 83 c0 05          	add    $0x5,%rax
   11bc1:	48 89 85 f0 e4 ff ff 	mov    %rax,-0x1b10(%rbp)
   11bc8:	c7 85 04 e4 ff ff ff 	movl   $0xffffffff,-0x1bfc(%rbp)
   11bcf:	ff ff ff 
   11bd2:	c7 85 08 e4 ff ff fa 	movl   $0xfffffffa,-0x1bf8(%rbp)
   11bd9:	ff ff ff 
   11bdc:	c7 85 0c e4 ff ff 25 	movl   $0x25273525,-0x1bf4(%rbp)
   11be3:	35 27 25 
   11be6:	c7 85 e4 e3 ff ff 00 	movl   $0x0,-0x1c1c(%rbp)
   11bed:	00 00 00 
   11bf0:	eb 14                	jmp    11c06 <func_49+0x7df>
   11bf2:	8b 85 e4 e3 ff ff    	mov    -0x1c1c(%rbp),%eax
   11bf8:	48 98                	cltq   
   11bfa:	c6 44 05 c2 01       	movb   $0x1,-0x3e(%rbp,%rax,1)
   11bff:	83 85 e4 e3 ff ff 01 	addl   $0x1,-0x1c1c(%rbp)
   11c06:	83 bd e4 e3 ff ff 05 	cmpl   $0x5,-0x1c1c(%rbp)
   11c0d:	7e e3                	jle    11bf2 <func_49+0x7cb>
   11c0f:	8b 05 87 84 00 00    	mov    0x8487(%rip),%eax        # 1a09c <g_169>
   11c15:	48 98                	cltq   
   11c17:	8b 94 85 20 e6 ff ff 	mov    -0x19e0(%rbp,%rax,4),%edx
   11c1e:	8b 05 78 84 00 00    	mov    0x8478(%rip),%eax        # 1a09c <g_169>
   11c24:	83 f2 fd             	xor    $0xfffffffd,%edx
   11c27:	48 98                	cltq   
   11c29:	89 94 85 20 e6 ff ff 	mov    %edx,-0x19e0(%rbp,%rax,4)
   11c30:	c7 85 98 e3 ff ff 01 	movl   $0x1,-0x1c68(%rbp)
   11c37:	00 00 00 
   11c3a:	e9 d4 01 00 00       	jmpq   11e13 <func_49+0x9ec>
   11c3f:	48 8b 05 22 9c 00 00 	mov    0x9c22(%rip),%rax        # 1b868 <g_517>
   11c46:	8b 95 98 e3 ff ff    	mov    -0x1c68(%rbp),%edx
   11c4c:	48 8d 0c d5 00 00 00 	lea    0x0(,%rdx,8),%rcx
   11c53:	00 
   11c54:	48 8d 15 85 bf 00 00 	lea    0xbf85(%rip),%rdx        # 1dbe0 <g_73>
   11c5b:	48 01 ca             	add    %rcx,%rdx
   11c5e:	48 89 10             	mov    %rdx,(%rax)
   11c61:	66 c7 05 2e 84 00 00 	movw   $0x0,0x842e(%rip)        # 1a098 <g_136>
   11c68:	00 00 
   11c6a:	e9 82 01 00 00       	jmpq   11df1 <func_49+0x9ca>
   11c6f:	48 8d 05 bf 84 00 00 	lea    0x84bf(%rip),%rax        # 1a135 <g_378+0x35>
   11c76:	48 89 85 f8 e4 ff ff 	mov    %rax,-0x1b08(%rbp)
   11c7d:	48 8d 05 0c 84 00 00 	lea    0x840c(%rip),%rax        # 1a090 <g_99>
   11c84:	48 89 85 00 e5 ff ff 	mov    %rax,-0x1b00(%rbp)
   11c8b:	8b 05 8f bf 00 00    	mov    0xbf8f(%rip),%eax        # 1dc20 <g_272>
   11c91:	0f bf d8             	movswl %ax,%ebx
   11c94:	8b 85 fc e3 ff ff    	mov    -0x1c04(%rbp),%eax
   11c9a:	89 c2                	mov    %eax,%edx
   11c9c:	48 8b 85 f8 e4 ff ff 	mov    -0x1b08(%rbp),%rax
   11ca3:	88 10                	mov    %dl,(%rax)
   11ca5:	48 8b 85 f8 e4 ff ff 	mov    -0x1b08(%rbp),%rax
   11cac:	0f b6 00             	movzbl (%rax),%eax
   11caf:	44 0f b6 e0          	movzbl %al,%r12d
   11cb3:	48 8b 85 a0 e3 ff ff 	mov    -0x1c60(%rbp),%rax
   11cba:	48 8b 00             	mov    (%rax),%rax
   11cbd:	89 c2                	mov    %eax,%edx
   11cbf:	48 8b 05 f2 96 00 00 	mov    0x96f2(%rip),%rax        # 1b3b8 <g_259>
   11cc6:	0f b6 00             	movzbl (%rax),%eax
   11cc9:	48 0f be c0          	movsbq %al,%rax
   11ccd:	48 39 85 80 e4 ff ff 	cmp    %rax,-0x1b80(%rbp)
   11cd4:	0f 93 c0             	setae  %al
   11cd7:	0f b6 c0             	movzbl %al,%eax
   11cda:	31 d0                	xor    %edx,%eax
   11cdc:	98                   	cwtl   
   11cdd:	be 05 00 00 00       	mov    $0x5,%esi
   11ce2:	89 c7                	mov    %eax,%edi
   11ce4:	e8 2d 77 ff ff       	callq  9416 <safe_mod_func_int16_t_s_s>
   11ce9:	98                   	cwtl   
   11cea:	39 85 f0 e3 ff ff    	cmp    %eax,-0x1c10(%rbp)
   11cf0:	0f 94 c0             	sete   %al
   11cf3:	0f b6 c0             	movzbl %al,%eax
   11cf6:	8b 95 98 e3 ff ff    	mov    -0x1c68(%rbp),%edx
   11cfc:	89 d6                	mov    %edx,%esi
   11cfe:	89 c7                	mov    %eax,%edi
   11d00:	e8 b3 81 ff ff       	callq  9eb8 <safe_add_func_uint32_t_u_u>
   11d05:	89 c2                	mov    %eax,%edx
   11d07:	48 8b 85 70 e4 ff ff 	mov    -0x1b90(%rbp),%rax
   11d0e:	48 39 c2             	cmp    %rax,%rdx
   11d11:	0f 92 c0             	setb   %al
   11d14:	0f b6 c0             	movzbl %al,%eax
   11d17:	48 c7 c6 ff ff ff ff 	mov    $0xffffffffffffffff,%rsi
   11d1e:	48 89 c7             	mov    %rax,%rdi
   11d21:	e8 5a 83 ff ff       	callq  a080 <safe_mod_func_uint64_t_u_u>
   11d26:	49 39 c4             	cmp    %rax,%r12
   11d29:	0f 94 c0             	sete   %al
   11d2c:	0f b6 c0             	movzbl %al,%eax
   11d2f:	89 de                	mov    %ebx,%esi
   11d31:	89 c7                	mov    %eax,%edi
   11d33:	e8 1d 77 ff ff       	callq  9455 <safe_div_func_int16_t_s_s>
   11d38:	be f0 ce ff ff       	mov    $0xffffcef0,%esi
   11d3d:	bf 01 00 00 00       	mov    $0x1,%edi
   11d42:	e8 0e 77 ff ff       	callq  9455 <safe_div_func_int16_t_s_s>
   11d47:	be 4c 00 00 00       	mov    $0x4c,%esi
   11d4c:	bf 01 00 00 00       	mov    $0x1,%edi
   11d51:	e8 bc 74 ff ff       	callq  9212 <safe_mul_func_int8_t_s_s>
   11d56:	8b 85 98 e3 ff ff    	mov    -0x1c68(%rbp),%eax
   11d5c:	48 8d 14 c5 00 00 00 	lea    0x0(,%rax,8),%rdx
   11d63:	00 
   11d64:	48 8d 05 35 83 00 00 	lea    0x8335(%rip),%rax        # 1a0a0 <g_171>
   11d6b:	48 8b 04 02          	mov    (%rdx,%rax,1),%rax
   11d6f:	48 85 c0             	test   %rax,%rax
   11d72:	0f 94 c0             	sete   %al
   11d75:	0f b6 d0             	movzbl %al,%edx
   11d78:	8b 05 1e 83 00 00    	mov    0x831e(%rip),%eax        # 1a09c <g_169>
   11d7e:	48 98                	cltq   
   11d80:	8b 84 85 20 e6 ff ff 	mov    -0x19e0(%rbp,%rax,4),%eax
   11d87:	0f b6 c0             	movzbl %al,%eax
   11d8a:	89 d6                	mov    %edx,%esi
   11d8c:	89 c7                	mov    %eax,%edi
   11d8e:	e8 00 7e ff ff       	callq  9b93 <safe_mul_func_uint8_t_u_u>
   11d93:	0f b6 d8             	movzbl %al,%ebx
   11d96:	be 02 00 00 00       	mov    $0x2,%esi
   11d9b:	bf ff ff ff ff       	mov    $0xffffffff,%edi
   11da0:	e8 49 75 ff ff       	callq  92ee <safe_lshift_func_int8_t_s_u>
   11da5:	66 98                	cbtw   
   11da7:	0f b7 c0             	movzwl %ax,%eax
   11daa:	89 de                	mov    %ebx,%esi
   11dac:	89 c7                	mov    %eax,%edi
   11dae:	e8 6c 7f ff ff       	callq  9d1f <safe_sub_func_uint16_t_u_u>
   11db3:	0f b7 d0             	movzwl %ax,%edx
   11db6:	48 8b 85 a0 e3 ff ff 	mov    -0x1c60(%rbp),%rax
   11dbd:	48 8b 00             	mov    (%rax),%rax
   11dc0:	48 83 f8 04          	cmp    $0x4,%rax
   11dc4:	0f 95 c0             	setne  %al
   11dc7:	0f b6 c0             	movzbl %al,%eax
   11dca:	21 c2                	and    %eax,%edx
   11dcc:	48 8b 85 00 e5 ff ff 	mov    -0x1b00(%rbp),%rax
   11dd3:	8b 00                	mov    (%rax),%eax
   11dd5:	09 c2                	or     %eax,%edx
   11dd7:	48 8b 85 00 e5 ff ff 	mov    -0x1b00(%rbp),%rax
   11dde:	89 10                	mov    %edx,(%rax)
   11de0:	0f b7 05 b1 82 00 00 	movzwl 0x82b1(%rip),%eax        # 1a098 <g_136>
   11de7:	83 c0 01             	add    $0x1,%eax
   11dea:	66 89 05 a7 82 00 00 	mov    %ax,0x82a7(%rip)        # 1a098 <g_136>
   11df1:	0f b7 05 a0 82 00 00 	movzwl 0x82a0(%rip),%eax        # 1a098 <g_136>
   11df8:	66 83 f8 05          	cmp    $0x5,%ax
   11dfc:	0f 8e 6d fe ff ff    	jle    11c6f <func_49+0x848>
   11e02:	66 83 bd 9c e3 ff ff 	cmpw   $0x0,-0x1c64(%rbp)
   11e09:	00 
   11e0a:	75 16                	jne    11e22 <func_49+0x9fb>
   11e0c:	83 85 98 e3 ff ff 01 	addl   $0x1,-0x1c68(%rbp)
   11e13:	83 bd 98 e3 ff ff 04 	cmpl   $0x4,-0x1c68(%rbp)
   11e1a:	0f 86 1f fe ff ff    	jbe    11c3f <func_49+0x818>
   11e20:	eb 01                	jmp    11e23 <func_49+0x9fc>
   11e22:	90                   	nop
   11e23:	48 8b 85 c0 e4 ff ff 	mov    -0x1b40(%rbp),%rax
   11e2a:	48 8b 95 b8 e4 ff ff 	mov    -0x1b48(%rbp),%rdx
   11e31:	48 89 10             	mov    %rdx,(%rax)
   11e34:	48 8b 95 50 e4 ff ff 	mov    -0x1bb0(%rbp),%rdx
   11e3b:	48 8b 85 d8 e4 ff ff 	mov    -0x1b28(%rbp),%rax
   11e42:	48 89 10             	mov    %rdx,(%rax)
   11e45:	48 83 bd e0 e4 ff ff 	cmpq   $0x0,-0x1b20(%rbp)
   11e4c:	00 
   11e4d:	0f 95 c0             	setne  %al
   11e50:	0f b6 d0             	movzbl %al,%edx
   11e53:	48 8b 85 e8 e4 ff ff 	mov    -0x1b18(%rbp),%rax
   11e5a:	48 89 10             	mov    %rdx,(%rax)
   11e5d:	48 8b 85 e8 e4 ff ff 	mov    -0x1b18(%rbp),%rax
   11e64:	48 8b 00             	mov    (%rax),%rax
   11e67:	48 83 c8 01          	or     $0x1,%rax
   11e6b:	48 83 f8 ff          	cmp    $0xffffffffffffffff,%rax
   11e6f:	0f 95 c0             	setne  %al
   11e72:	0f b6 c8             	movzbl %al,%ecx
   11e75:	48 8b 85 78 e4 ff ff 	mov    -0x1b88(%rbp),%rax
   11e7c:	0f b6 10             	movzbl (%rax),%edx
   11e7f:	48 8b 85 78 e4 ff ff 	mov    -0x1b88(%rbp),%rax
   11e86:	21 ca                	and    %ecx,%edx
   11e88:	88 10                	mov    %dl,(%rax)
   11e8a:	0f b6 00             	movzbl (%rax),%eax
   11e8d:	3c 0a                	cmp    $0xa,%al
   11e8f:	8b 85 98 e3 ff ff    	mov    -0x1c68(%rbp),%eax
   11e95:	66 0b 85 9c e3 ff ff 	or     -0x1c64(%rbp),%ax
   11e9c:	0f b7 c0             	movzwl %ax,%eax
   11e9f:	be ff ff 00 00       	mov    $0xffff,%esi
   11ea4:	89 c7                	mov    %eax,%edi
   11ea6:	e8 74 7e ff ff       	callq  9d1f <safe_sub_func_uint16_t_u_u>
   11eab:	66 85 c0             	test   %ax,%ax
   11eae:	75 09                	jne    11eb9 <func_49+0xa92>
   11eb0:	83 bd 98 e3 ff ff 00 	cmpl   $0x0,-0x1c68(%rbp)
   11eb7:	74 07                	je     11ec0 <func_49+0xa99>
   11eb9:	b8 01 00 00 00       	mov    $0x1,%eax
   11ebe:	eb 05                	jmp    11ec5 <func_49+0xa9e>
   11ec0:	b8 00 00 00 00       	mov    $0x0,%eax
   11ec5:	89 c2                	mov    %eax,%edx
   11ec7:	48 8b 85 f0 e4 ff ff 	mov    -0x1b10(%rbp),%rax
   11ece:	88 10                	mov    %dl,(%rax)
   11ed0:	48 8b 85 d0 e4 ff ff 	mov    -0x1b30(%rbp),%rax
   11ed7:	0f b7 00             	movzwl (%rax),%eax
   11eda:	8d 48 ff             	lea    -0x1(%rax),%ecx
   11edd:	48 8b 95 d0 e4 ff ff 	mov    -0x1b30(%rbp),%rdx
   11ee4:	66 89 0a             	mov    %cx,(%rdx)
   11ee7:	0f b7 c0             	movzwl %ax,%eax
   11eea:	be 01 00 00 00       	mov    $0x1,%esi
   11eef:	89 c7                	mov    %eax,%edi
   11ef1:	e8 84 7f ff ff       	callq  9e7a <safe_rshift_func_uint16_t_u_u>
   11ef6:	66 3d c4 00          	cmp    $0xc4,%ax
   11efa:	0f 87 f8 01 00 00    	ja     120f8 <func_49+0xcd1>
   11f00:	48 b8 07 94 9b 84 f8 	movabs $0xf80808f8849b9407,%rax
   11f07:	08 08 f8 
   11f0a:	48 89 85 b0 e7 ff ff 	mov    %rax,-0x1850(%rbp)
   11f11:	c6 85 b8 e7 ff ff 84 	movb   $0x84,-0x1848(%rbp)
   11f18:	48 bb fa ba fa 08 5b 	movabs $0x4089b5b08fabafa,%rbx
   11f1f:	9b 08 04 
   11f22:	48 89 9d b9 e7 ff ff 	mov    %rbx,-0x1847(%rbp)
   11f29:	c6 85 c1 e7 ff ff 04 	movb   $0x4,-0x183f(%rbp)
   11f30:	48 b9 04 04 08 9b 5b 	movabs $0xbafa085b9b080404,%rcx
   11f37:	08 fa ba 
   11f3a:	48 89 8d c2 e7 ff ff 	mov    %rcx,-0x183e(%rbp)
   11f41:	c6 85 ca e7 ff ff fa 	movb   $0xfa,-0x1836(%rbp)
   11f48:	48 bf 84 f8 08 08 f8 	movabs $0x949b84f80808f884,%rdi
   11f4f:	84 9b 94 
   11f52:	48 89 bd cb e7 ff ff 	mov    %rdi,-0x1835(%rbp)
   11f59:	c6 85 d3 e7 ff ff 07 	movb   $0x7,-0x182d(%rbp)
   11f60:	48 bf 84 04 fa 84 ba 	movabs $0x940407ba84fa0484,%rdi
   11f67:	07 04 94 
   11f6a:	48 89 bd d4 e7 ff ff 	mov    %rdi,-0x182c(%rbp)
   11f71:	c6 85 dc e7 ff ff fa 	movb   $0xfa,-0x1824(%rbp)
   11f78:	48 be 04 ba 9b 07 fe 	movabs $0xba9b07fe079bba04,%rsi
   11f7f:	07 9b ba 
   11f82:	48 89 b5 dd e7 ff ff 	mov    %rsi,-0x1823(%rbp)
   11f89:	c6 85 e5 e7 ff ff 04 	movb   $0x4,-0x181b(%rbp)
   11f90:	48 bf fa 94 04 07 ba 	movabs $0x4fa84ba070494fa,%rdi
   11f97:	84 fa 04 
   11f9a:	48 89 bd e6 e7 ff ff 	mov    %rdi,-0x181a(%rbp)
   11fa1:	c6 85 ee e7 ff ff 84 	movb   $0x84,-0x1812(%rbp)
   11fa8:	48 89 85 ef e7 ff ff 	mov    %rax,-0x1811(%rbp)
   11faf:	c6 85 f7 e7 ff ff 84 	movb   $0x84,-0x1809(%rbp)
   11fb6:	48 89 9d f8 e7 ff ff 	mov    %rbx,-0x1808(%rbp)
   11fbd:	c6 85 00 e8 ff ff 04 	movb   $0x4,-0x1800(%rbp)
   11fc4:	48 89 8d 01 e8 ff ff 	mov    %rcx,-0x17ff(%rbp)
   11fcb:	c6 85 09 e8 ff ff fa 	movb   $0xfa,-0x17f7(%rbp)
   11fd2:	8b 15 c4 80 00 00    	mov    0x80c4(%rip),%edx        # 1a09c <g_169>
   11fd8:	48 8d 85 20 e6 ff ff 	lea    -0x19e0(%rbp),%rax
   11fdf:	48 63 d2             	movslq %edx,%rdx
   11fe2:	48 c1 e2 02          	shl    $0x2,%rdx
   11fe6:	48 01 d0             	add    %rdx,%rax
   11fe9:	48 89 85 48 e5 ff ff 	mov    %rax,-0x1ab8(%rbp)
   11ff0:	48 c7 85 50 e5 ff ff 	movq   $0x0,-0x1ab0(%rbp)
   11ff7:	00 00 00 00 
   11ffb:	48 8d 05 8e 80 00 00 	lea    0x808e(%rip),%rax        # 1a090 <g_99>
   12002:	48 89 85 58 e5 ff ff 	mov    %rax,-0x1aa8(%rbp)
   12009:	48 8d 85 20 e6 ff ff 	lea    -0x19e0(%rbp),%rax
   12010:	48 83 c0 04          	add    $0x4,%rax
   12014:	48 89 85 60 e5 ff ff 	mov    %rax,-0x1aa0(%rbp)
   1201b:	48 8d 85 c4 e3 ff ff 	lea    -0x1c3c(%rbp),%rax
   12022:	48 89 85 30 e9 ff ff 	mov    %rax,-0x16d0(%rbp)
   12029:	48 c7 85 38 e9 ff ff 	movq   $0x0,-0x16c8(%rbp)
   12030:	00 00 00 00 
   12034:	48 8d 85 c4 e3 ff ff 	lea    -0x1c3c(%rbp),%rax
   1203b:	48 89 85 40 e9 ff ff 	mov    %rax,-0x16c0(%rbp)
   12042:	48 c7 85 48 e9 ff ff 	movq   $0x0,-0x16b8(%rbp)
   12049:	00 00 00 00 
   1204d:	48 8d 85 c4 e3 ff ff 	lea    -0x1c3c(%rbp),%rax
   12054:	48 89 85 50 e9 ff ff 	mov    %rax,-0x16b0(%rbp)
   1205b:	48 c7 85 58 e9 ff ff 	movq   $0x0,-0x16a8(%rbp)
   12062:	00 00 00 00 
   12066:	48 8d 85 c4 e3 ff ff 	lea    -0x1c3c(%rbp),%rax
   1206d:	48 89 85 60 e9 ff ff 	mov    %rax,-0x16a0(%rbp)
   12074:	48 c7 85 68 e9 ff ff 	movq   $0x0,-0x1698(%rbp)
   1207b:	00 00 00 00 
   1207f:	48 8d 85 c4 e3 ff ff 	lea    -0x1c3c(%rbp),%rax
   12086:	48 89 85 70 e9 ff ff 	mov    %rax,-0x1690(%rbp)
   1208d:	48 c7 85 78 e9 ff ff 	movq   $0x0,-0x1688(%rbp)
   12094:	00 00 00 00 
   12098:	48 8d 85 c4 e3 ff ff 	lea    -0x1c3c(%rbp),%rax
   1209f:	48 89 85 80 e9 ff ff 	mov    %rax,-0x1680(%rbp)
   120a6:	48 c7 85 88 e9 ff ff 	movq   $0x0,-0x1678(%rbp)
   120ad:	00 00 00 00 
   120b1:	48 8d 85 c4 e3 ff ff 	lea    -0x1c3c(%rbp),%rax
   120b8:	48 89 85 90 e9 ff ff 	mov    %rax,-0x1670(%rbp)
   120bf:	48 c7 85 98 e9 ff ff 	movq   $0x0,-0x1668(%rbp)
   120c6:	00 00 00 00 
   120ca:	48 8d 85 c4 e3 ff ff 	lea    -0x1c3c(%rbp),%rax
   120d1:	48 89 85 a0 e9 ff ff 	mov    %rax,-0x1660(%rbp)
   120d8:	48 c7 85 a8 e9 ff ff 	movq   $0x0,-0x1658(%rbp)
   120df:	00 00 00 00 
   120e3:	0f b6 05 1e 81 00 00 	movzbl 0x811e(%rip),%eax        # 1a208 <g_580>
   120ea:	83 c0 01             	add    $0x1,%eax
   120ed:	88 05 15 81 00 00    	mov    %al,0x8115(%rip)        # 1a208 <g_580>
   120f3:	e9 ea 00 00 00       	jmpq   121e2 <func_49+0xdbb>
   120f8:	48 c7 85 08 e5 ff ff 	movq   $0x0,-0x1af8(%rbp)
   120ff:	00 00 00 00 
   12103:	48 c7 85 90 e3 ff ff 	movq   $0x0,-0x1c70(%rbp)
   1210a:	00 00 00 00 
   1210e:	e9 c1 00 00 00       	jmpq   121d4 <func_49+0xdad>
   12113:	48 8d 85 78 e4 ff ff 	lea    -0x1b88(%rbp),%rax
   1211a:	48 89 85 10 e5 ff ff 	mov    %rax,-0x1af0(%rbp)
   12121:	48 8d 85 c0 f8 ff ff 	lea    -0x740(%rbp),%rax
   12128:	48 83 c0 70          	add    $0x70,%rax
   1212c:	48 89 85 18 e5 ff ff 	mov    %rax,-0x1ae8(%rbp)
   12133:	48 c7 85 20 e5 ff ff 	movq   $0x0,-0x1ae0(%rbp)
   1213a:	00 00 00 00 
   1213e:	48 c7 85 28 e5 ff ff 	movq   $0x0,-0x1ad8(%rbp)
   12145:	00 00 00 00 
   12149:	48 c7 85 30 e5 ff ff 	movq   $0x0,-0x1ad0(%rbp)
   12150:	00 00 00 00 
   12154:	48 8d 05 e1 7e 00 00 	lea    0x7ee1(%rip),%rax        # 1a03c <g_72>
   1215b:	48 89 85 38 e5 ff ff 	mov    %rax,-0x1ac8(%rbp)
   12162:	48 c7 85 40 e5 ff ff 	movq   $0x0,-0x1ac0(%rbp)
   12169:	00 00 00 00 
   1216d:	48 8b 85 78 e4 ff ff 	mov    -0x1b88(%rbp),%rax
   12174:	0f b6 00             	movzbl (%rax),%eax
   12177:	89 c2                	mov    %eax,%edx
   12179:	8b 85 98 e3 ff ff    	mov    -0x1c68(%rbp),%eax
   1217f:	09 d0                	or     %edx,%eax
   12181:	83 c8 01             	or     $0x1,%eax
   12184:	89 c2                	mov    %eax,%edx
   12186:	48 8b 85 78 e4 ff ff 	mov    -0x1b88(%rbp),%rax
   1218d:	88 10                	mov    %dl,(%rax)
   1218f:	48 8d 85 78 e4 ff ff 	lea    -0x1b88(%rbp),%rax
   12196:	48 39 85 10 e5 ff ff 	cmp    %rax,-0x1af0(%rbp)
   1219d:	0f 94 c2             	sete   %dl
   121a0:	48 8b 05 69 92 00 00 	mov    0x9269(%rip),%rax        # 1b410 <g_431>
   121a7:	0f b6 d2             	movzbl %dl,%edx
   121aa:	89 10                	mov    %edx,(%rax)
   121ac:	8b 10                	mov    (%rax),%edx
   121ae:	48 8b 85 18 e5 ff ff 	mov    -0x1ae8(%rbp),%rax
   121b5:	89 10                	mov    %edx,(%rax)
   121b7:	48 8b 85 c0 e4 ff ff 	mov    -0x1b40(%rbp),%rax
   121be:	48 8d 95 20 e6 ff ff 	lea    -0x19e0(%rbp),%rdx
   121c5:	48 83 c2 08          	add    $0x8,%rdx
   121c9:	48 89 10             	mov    %rdx,(%rax)
   121cc:	48 83 85 90 e3 ff ff 	addq   $0x1,-0x1c70(%rbp)
   121d3:	01 
   121d4:	48 83 bd 90 e3 ff ff 	cmpq   $0x4,-0x1c70(%rbp)
   121db:	04 
   121dc:	0f 86 31 ff ff ff    	jbe    12113 <func_49+0xcec>
   121e2:	8b 05 b4 7e 00 00    	mov    0x7eb4(%rip),%eax        # 1a09c <g_169>
   121e8:	83 c0 01             	add    $0x1,%eax
   121eb:	89 05 ab 7e 00 00    	mov    %eax,0x7eab(%rip)        # 1a09c <g_169>
   121f1:	8b 05 a5 7e 00 00    	mov    0x7ea5(%rip),%eax        # 1a09c <g_169>
   121f7:	83 f8 04             	cmp    $0x4,%eax
   121fa:	0f 8e 5a f9 ff ff    	jle    11b5a <func_49+0x733>
   12200:	8b 85 cc e3 ff ff    	mov    -0x1c34(%rbp),%eax
   12206:	85 c0                	test   %eax,%eax
   12208:	75 20                	jne    1222a <func_49+0xe03>
   1220a:	8b 05 10 ba 00 00    	mov    0xba10(%rip),%eax        # 1dc20 <g_272>
   12210:	83 c0 01             	add    $0x1,%eax
   12213:	89 05 07 ba 00 00    	mov    %eax,0xba07(%rip)        # 1dc20 <g_272>
   12219:	8b 05 01 ba 00 00    	mov    0xba01(%rip),%eax        # 1dc20 <g_272>
   1221f:	83 f8 04             	cmp    $0x4,%eax
   12222:	0f 86 91 f7 ff ff    	jbe    119b9 <func_49+0x592>
   12228:	eb 01                	jmp    1222b <func_49+0xe04>
   1222a:	90                   	nop
   1222b:	48 8b 95 58 e4 ff ff 	mov    -0x1ba8(%rbp),%rdx
   12232:	48 8b 85 98 e4 ff ff 	mov    -0x1b68(%rbp),%rax
   12239:	48 89 10             	mov    %rdx,(%rax)
   1223c:	48 8b 85 20 e4 ff ff 	mov    -0x1be0(%rbp),%rax
   12243:	48 85 c0             	test   %rax,%rax
   12246:	0f 94 c0             	sete   %al
   12249:	44 0f b6 f0          	movzbl %al,%r14d
   1224d:	48 8b 85 a0 e3 ff ff 	mov    -0x1c60(%rbp),%rax
   12254:	48 8b 18             	mov    (%rax),%rbx
   12257:	48 8b 85 80 e4 ff ff 	mov    -0x1b80(%rbp),%rax
   1225e:	41 89 c7             	mov    %eax,%r15d
   12261:	48 8b 05 f8 7d 00 00 	mov    0x7df8(%rip),%rax        # 1a060 <g_97>
   12268:	44 0f bf e0          	movswl %ax,%r12d
   1226c:	4c 8b 2d ed 7d 00 00 	mov    0x7ded(%rip),%r13        # 1a060 <g_97>
   12273:	8b 95 98 e3 ff ff    	mov    -0x1c68(%rbp),%edx
   12279:	8b 85 98 e3 ff ff    	mov    -0x1c68(%rbp),%eax
   1227f:	89 85 24 e6 ff ff    	mov    %eax,-0x19dc(%rbp)
   12285:	8b 85 24 e6 ff ff    	mov    -0x19dc(%rbp),%eax
   1228b:	85 c0                	test   %eax,%eax
   1228d:	75 20                	jne    122af <func_49+0xe88>
   1228f:	0f b7 85 9c e3 ff ff 	movzwl -0x1c64(%rbp),%eax
   12296:	39 85 98 e3 ff ff    	cmp    %eax,-0x1c68(%rbp)
   1229c:	0f 95 c0             	setne  %al
   1229f:	0f b6 c0             	movzbl %al,%eax
   122a2:	89 85 f0 e3 ff ff    	mov    %eax,-0x1c10(%rbp)
   122a8:	83 bd f0 e3 ff ff 00 	cmpl   $0x0,-0x1c10(%rbp)
   122af:	48 8b 85 20 e4 ff ff 	mov    -0x1be0(%rbp),%rax
   122b6:	66 c7 00 01 00       	movw   $0x1,(%rax)
   122bb:	48 8b 85 a0 e4 ff ff 	mov    -0x1b60(%rbp),%rax
   122c2:	8b 00                	mov    (%rax),%eax
   122c4:	33 85 98 e3 ff ff    	xor    -0x1c68(%rbp),%eax
   122ca:	89 c1                	mov    %eax,%ecx
   122cc:	48 8b 85 a0 e4 ff ff 	mov    -0x1b60(%rbp),%rax
   122d3:	89 08                	mov    %ecx,(%rax)
   122d5:	48 8b 85 a0 e4 ff ff 	mov    -0x1b60(%rbp),%rax
   122dc:	8b 00                	mov    (%rax),%eax
   122de:	48 98                	cltq   
   122e0:	48 8b 0d 79 7d 00 00 	mov    0x7d79(%rip),%rcx        # 1a060 <g_97>
   122e7:	48 89 ce             	mov    %rcx,%rsi
   122ea:	48 8b 0d cf 7d 00 00 	mov    0x7dcf(%rip),%rcx        # 1a0c0 <g_171+0x20>
   122f1:	48 21 ce             	and    %rcx,%rsi
   122f4:	48 b9 69 ab d4 f3 c3 	movabs $0x97af00c3f3d4ab69,%rcx
   122fb:	00 af 97 
   122fe:	48 21 f1             	and    %rsi,%rcx
   12301:	48 39 c8             	cmp    %rcx,%rax
   12304:	0f 97 c0             	seta   %al
   12307:	0f b6 c0             	movzbl %al,%eax
   1230a:	89 d6                	mov    %edx,%esi
   1230c:	89 c7                	mov    %eax,%edi
   1230e:	e8 8e 6f ff ff       	callq  92a1 <safe_lshift_func_int8_t_s_s>
   12313:	48 0f be c0          	movsbq %al,%rax
   12317:	48 39 85 80 e4 ff ff 	cmp    %rax,-0x1b80(%rbp)
   1231e:	0f 97 c0             	seta   %al
   12321:	0f b6 c0             	movzbl %al,%eax
   12324:	89 85 c4 e3 ff ff    	mov    %eax,-0x1c3c(%rbp)
   1232a:	8b 85 c4 e3 ff ff    	mov    -0x1c3c(%rbp),%eax
   12330:	48 98                	cltq   
   12332:	4c 89 ee             	mov    %r13,%rsi
   12335:	48 89 c7             	mov    %rax,%rdi
   12338:	e8 ba 76 ff ff       	callq  99f7 <safe_div_func_int64_t_s_s>
   1233d:	98                   	cwtl   
   1233e:	44 89 e6             	mov    %r12d,%esi
   12341:	89 c7                	mov    %eax,%edi
   12343:	e8 0d 71 ff ff       	callq  9455 <safe_div_func_int16_t_s_s>
   12348:	98                   	cwtl   
   12349:	be e8 95 57 57       	mov    $0x575795e8,%esi
   1234e:	89 c7                	mov    %eax,%edi
   12350:	e8 63 7b ff ff       	callq  9eb8 <safe_add_func_uint32_t_u_u>
   12355:	83 bd 98 e3 ff ff 00 	cmpl   $0x0,-0x1c68(%rbp)
   1235c:	74 07                	je     12365 <func_49+0xf3e>
   1235e:	b8 01 00 00 00       	mov    $0x1,%eax
   12363:	eb 05                	jmp    1236a <func_49+0xf43>
   12365:	b8 00 00 00 00       	mov    $0x0,%eax
   1236a:	09 85 ec e3 ff ff    	or     %eax,-0x1c14(%rbp)
   12370:	8b 85 ec e3 ff ff    	mov    -0x1c14(%rbp),%eax
   12376:	89 c2                	mov    %eax,%edx
   12378:	8b 05 a6 b8 00 00    	mov    0xb8a6(%rip),%eax        # 1dc24 <g_291>
   1237e:	31 d0                	xor    %edx,%eax
   12380:	0f b7 c0             	movzwl %ax,%eax
   12383:	be 0a 00 00 00       	mov    $0xa,%esi
   12388:	89 c7                	mov    %eax,%edi
   1238a:	e8 77 7a ff ff       	callq  9e06 <safe_lshift_func_uint16_t_u_u>
   1238f:	0f b7 c0             	movzwl %ax,%eax
   12392:	be e9 94 00 00       	mov    $0x94e9,%esi
   12397:	89 c7                	mov    %eax,%edi
   12399:	e8 f0 79 ff ff       	callq  9d8e <safe_div_func_uint16_t_u_u>
   1239e:	0f b7 c0             	movzwl %ax,%eax
   123a1:	39 85 98 e3 ff ff    	cmp    %eax,-0x1c68(%rbp)
   123a7:	0f 94 c0             	sete   %al
   123aa:	0f b6 d0             	movzbl %al,%edx
   123ad:	48 8b 85 b0 e4 ff ff 	mov    -0x1b50(%rbp),%rax
   123b4:	0f b7 00             	movzwl (%rax),%eax
   123b7:	09 c2                	or     %eax,%edx
   123b9:	48 8b 85 b0 e4 ff ff 	mov    -0x1b50(%rbp),%rax
   123c0:	66 89 10             	mov    %dx,(%rax)
   123c3:	be 6c 3b 00 00       	mov    $0x3b6c,%esi
   123c8:	bf 01 00 00 00       	mov    $0x1,%edi
   123cd:	e8 4d 79 ff ff       	callq  9d1f <safe_sub_func_uint16_t_u_u>
   123d2:	0f b7 c0             	movzwl %ax,%eax
   123d5:	48 39 85 80 e4 ff ff 	cmp    %rax,-0x1b80(%rbp)
   123dc:	0f 97 c0             	seta   %al
   123df:	0f b6 c0             	movzbl %al,%eax
   123e2:	44 89 fe             	mov    %r15d,%esi
   123e5:	89 c7                	mov    %eax,%edi
   123e7:	e8 b5 6e ff ff       	callq  92a1 <safe_lshift_func_int8_t_s_s>
   123ec:	48 0f be c0          	movsbq %al,%rax
   123f0:	48 89 de             	mov    %rbx,%rsi
   123f3:	48 89 c7             	mov    %rax,%rdi
   123f6:	e8 50 7c ff ff       	callq  a04b <safe_sub_func_uint64_t_u_u>
   123fb:	48 39 85 90 e3 ff ff 	cmp    %rax,-0x1c70(%rbp)
   12402:	0f 95 c0             	setne  %al
   12405:	0f b6 c0             	movzbl %al,%eax
   12408:	be 07 00 00 00       	mov    $0x7,%esi
   1240d:	89 c7                	mov    %eax,%edi
   1240f:	e8 aa 78 ff ff       	callq  9cbe <safe_rshift_func_uint8_t_u_u>
   12414:	0f b6 c0             	movzbl %al,%eax
   12417:	41 39 c6             	cmp    %eax,%r14d
   1241a:	75 12                	jne    1242e <func_49+0x1007>
   1241c:	48 8b 85 a0 e4 ff ff 	mov    -0x1b60(%rbp),%rax
   12423:	c7 00 29 7a 60 9a    	movl   $0x9a607a29,(%rax)
   12429:	e9 79 1a 00 00       	jmpq   13ea7 <func_49+0x2a80>
   1242e:	48 8d 85 c8 e3 ff ff 	lea    -0x1c38(%rbp),%rax
   12435:	48 89 85 70 e4 ff ff 	mov    %rax,-0x1b90(%rbp)
   1243c:	48 8d 05 5d 8f 00 00 	lea    0x8f5d(%rip),%rax        # 1b3a0 <g_209>
   12443:	48 89 85 68 e5 ff ff 	mov    %rax,-0x1a98(%rbp)
   1244a:	48 c7 85 b0 e7 ff ff 	movq   $0x0,-0x1850(%rbp)
   12451:	00 00 00 00 
   12455:	48 8d 05 fc 8f 00 00 	lea    0x8ffc(%rip),%rax        # 1b458 <g_492+0x18>
   1245c:	48 89 85 b8 e7 ff ff 	mov    %rax,-0x1848(%rbp)
   12463:	48 8d 05 de 8f 00 00 	lea    0x8fde(%rip),%rax        # 1b448 <g_492+0x8>
   1246a:	48 89 85 c0 e7 ff ff 	mov    %rax,-0x1840(%rbp)
   12471:	48 8d 05 e0 8f 00 00 	lea    0x8fe0(%rip),%rax        # 1b458 <g_492+0x18>
   12478:	48 89 85 c8 e7 ff ff 	mov    %rax,-0x1838(%rbp)
   1247f:	48 c7 85 d0 e7 ff ff 	movq   $0x0,-0x1830(%rbp)
   12486:	00 00 00 00 
   1248a:	48 8d 85 20 e4 ff ff 	lea    -0x1be0(%rbp),%rax
   12491:	48 89 85 d8 e7 ff ff 	mov    %rax,-0x1828(%rbp)
   12498:	48 8d 85 20 e4 ff ff 	lea    -0x1be0(%rbp),%rax
   1249f:	48 89 85 e0 e7 ff ff 	mov    %rax,-0x1820(%rbp)
   124a6:	48 8d 05 ab 8f 00 00 	lea    0x8fab(%rip),%rax        # 1b458 <g_492+0x18>
   124ad:	48 89 85 e8 e7 ff ff 	mov    %rax,-0x1818(%rbp)
   124b4:	48 c7 85 f0 e7 ff ff 	movq   $0x0,-0x1810(%rbp)
   124bb:	00 00 00 00 
   124bf:	48 8d 05 92 8f 00 00 	lea    0x8f92(%rip),%rax        # 1b458 <g_492+0x18>
   124c6:	48 89 85 f8 e7 ff ff 	mov    %rax,-0x1808(%rbp)
   124cd:	48 8d 85 20 e4 ff ff 	lea    -0x1be0(%rbp),%rax
   124d4:	48 89 85 00 e8 ff ff 	mov    %rax,-0x1800(%rbp)
   124db:	48 8d 85 20 e4 ff ff 	lea    -0x1be0(%rbp),%rax
   124e2:	48 89 85 08 e8 ff ff 	mov    %rax,-0x17f8(%rbp)
   124e9:	48 c7 85 10 e8 ff ff 	movq   $0x0,-0x17f0(%rbp)
   124f0:	00 00 00 00 
   124f4:	48 8d 05 5d 8f 00 00 	lea    0x8f5d(%rip),%rax        # 1b458 <g_492+0x18>
   124fb:	48 89 85 18 e8 ff ff 	mov    %rax,-0x17e8(%rbp)
   12502:	48 8d 05 3f 8f 00 00 	lea    0x8f3f(%rip),%rax        # 1b448 <g_492+0x8>
   12509:	48 89 85 20 e8 ff ff 	mov    %rax,-0x17e0(%rbp)
   12510:	48 8d 05 41 8f 00 00 	lea    0x8f41(%rip),%rax        # 1b458 <g_492+0x18>
   12517:	48 89 85 28 e8 ff ff 	mov    %rax,-0x17d8(%rbp)
   1251e:	48 c7 85 30 e8 ff ff 	movq   $0x0,-0x17d0(%rbp)
   12525:	00 00 00 00 
   12529:	48 8d 85 20 e4 ff ff 	lea    -0x1be0(%rbp),%rax
   12530:	48 89 85 38 e8 ff ff 	mov    %rax,-0x17c8(%rbp)
   12537:	48 8d 85 20 e4 ff ff 	lea    -0x1be0(%rbp),%rax
   1253e:	48 89 85 40 e8 ff ff 	mov    %rax,-0x17c0(%rbp)
   12545:	48 8d 05 0c 8f 00 00 	lea    0x8f0c(%rip),%rax        # 1b458 <g_492+0x18>
   1254c:	48 89 85 48 e8 ff ff 	mov    %rax,-0x17b8(%rbp)
   12553:	48 c7 85 50 e8 ff ff 	movq   $0x0,-0x17b0(%rbp)
   1255a:	00 00 00 00 
   1255e:	48 8d 05 f3 8e 00 00 	lea    0x8ef3(%rip),%rax        # 1b458 <g_492+0x18>
   12565:	48 89 85 58 e8 ff ff 	mov    %rax,-0x17a8(%rbp)
   1256c:	48 8d 85 20 e4 ff ff 	lea    -0x1be0(%rbp),%rax
   12573:	48 89 85 60 e8 ff ff 	mov    %rax,-0x17a0(%rbp)
   1257a:	48 8d 85 20 e4 ff ff 	lea    -0x1be0(%rbp),%rax
   12581:	48 89 85 68 e8 ff ff 	mov    %rax,-0x1798(%rbp)
   12588:	48 c7 85 70 e8 ff ff 	movq   $0x0,-0x1790(%rbp)
   1258f:	00 00 00 00 
   12593:	48 8d 05 be 8e 00 00 	lea    0x8ebe(%rip),%rax        # 1b458 <g_492+0x18>
   1259a:	48 89 85 78 e8 ff ff 	mov    %rax,-0x1788(%rbp)
   125a1:	48 8d 05 a0 8e 00 00 	lea    0x8ea0(%rip),%rax        # 1b448 <g_492+0x8>
   125a8:	48 89 85 80 e8 ff ff 	mov    %rax,-0x1780(%rbp)
   125af:	48 8d 05 a2 8e 00 00 	lea    0x8ea2(%rip),%rax        # 1b458 <g_492+0x18>
   125b6:	48 89 85 88 e8 ff ff 	mov    %rax,-0x1778(%rbp)
   125bd:	48 c7 85 90 e8 ff ff 	movq   $0x0,-0x1770(%rbp)
   125c4:	00 00 00 00 
   125c8:	48 8d 85 20 e4 ff ff 	lea    -0x1be0(%rbp),%rax
   125cf:	48 89 85 98 e8 ff ff 	mov    %rax,-0x1768(%rbp)
   125d6:	48 8d 85 20 e4 ff ff 	lea    -0x1be0(%rbp),%rax
   125dd:	48 89 85 a0 e8 ff ff 	mov    %rax,-0x1760(%rbp)
   125e4:	48 8d 05 6d 8e 00 00 	lea    0x8e6d(%rip),%rax        # 1b458 <g_492+0x18>
   125eb:	48 89 85 a8 e8 ff ff 	mov    %rax,-0x1758(%rbp)
   125f2:	48 c7 85 b0 e8 ff ff 	movq   $0x0,-0x1750(%rbp)
   125f9:	00 00 00 00 
   125fd:	48 8d 05 54 8e 00 00 	lea    0x8e54(%rip),%rax        # 1b458 <g_492+0x18>
   12604:	48 89 85 b8 e8 ff ff 	mov    %rax,-0x1748(%rbp)
   1260b:	48 8d 85 20 e4 ff ff 	lea    -0x1be0(%rbp),%rax
   12612:	48 89 85 c0 e8 ff ff 	mov    %rax,-0x1740(%rbp)
   12619:	48 8d 85 20 e4 ff ff 	lea    -0x1be0(%rbp),%rax
   12620:	48 89 85 c8 e8 ff ff 	mov    %rax,-0x1738(%rbp)
   12627:	48 c7 85 d0 e8 ff ff 	movq   $0x0,-0x1730(%rbp)
   1262e:	00 00 00 00 
   12632:	48 8d 05 1f 8e 00 00 	lea    0x8e1f(%rip),%rax        # 1b458 <g_492+0x18>
   12639:	48 89 85 d8 e8 ff ff 	mov    %rax,-0x1728(%rbp)
   12640:	48 8d 05 01 8e 00 00 	lea    0x8e01(%rip),%rax        # 1b448 <g_492+0x8>
   12647:	48 89 85 e0 e8 ff ff 	mov    %rax,-0x1720(%rbp)
   1264e:	48 8d 05 03 8e 00 00 	lea    0x8e03(%rip),%rax        # 1b458 <g_492+0x18>
   12655:	48 89 85 e8 e8 ff ff 	mov    %rax,-0x1718(%rbp)
   1265c:	48 c7 85 f0 e8 ff ff 	movq   $0x0,-0x1710(%rbp)
   12663:	00 00 00 00 
   12667:	48 8d 85 20 e4 ff ff 	lea    -0x1be0(%rbp),%rax
   1266e:	48 89 85 f8 e8 ff ff 	mov    %rax,-0x1708(%rbp)
   12675:	48 8d 85 20 e4 ff ff 	lea    -0x1be0(%rbp),%rax
   1267c:	48 89 85 00 e9 ff ff 	mov    %rax,-0x1700(%rbp)
   12683:	48 8d 05 ce 8d 00 00 	lea    0x8dce(%rip),%rax        # 1b458 <g_492+0x18>
   1268a:	48 89 85 08 e9 ff ff 	mov    %rax,-0x16f8(%rbp)
   12691:	48 c7 85 10 e9 ff ff 	movq   $0x0,-0x16f0(%rbp)
   12698:	00 00 00 00 
   1269c:	48 8d 05 b5 8d 00 00 	lea    0x8db5(%rip),%rax        # 1b458 <g_492+0x18>
   126a3:	48 89 85 18 e9 ff ff 	mov    %rax,-0x16e8(%rbp)
   126aa:	48 8d 85 20 e4 ff ff 	lea    -0x1be0(%rbp),%rax
   126b1:	48 89 85 20 e9 ff ff 	mov    %rax,-0x16e0(%rbp)
   126b8:	48 8d 85 20 e4 ff ff 	lea    -0x1be0(%rbp),%rax
   126bf:	48 89 85 28 e9 ff ff 	mov    %rax,-0x16d8(%rbp)
   126c6:	48 8d 05 13 b5 00 00 	lea    0xb513(%rip),%rax        # 1dbe0 <g_73>
   126cd:	48 89 85 70 e5 ff ff 	mov    %rax,-0x1a90(%rbp)
   126d4:	48 c7 85 78 e5 ff ff 	movq   $0x0,-0x1a88(%rbp)
   126db:	00 00 00 00 
   126df:	48 8d 85 60 e4 ff ff 	lea    -0x1ba0(%rbp),%rax
   126e6:	48 89 85 78 e4 ff ff 	mov    %rax,-0x1b88(%rbp)
   126ed:	48 8d 85 78 e4 ff ff 	lea    -0x1b88(%rbp),%rax
   126f4:	48 89 85 c0 f8 ff ff 	mov    %rax,-0x740(%rbp)
   126fb:	48 8d 85 78 e4 ff ff 	lea    -0x1b88(%rbp),%rax
   12702:	48 89 85 c8 f8 ff ff 	mov    %rax,-0x738(%rbp)
   12709:	48 8d 85 78 e4 ff ff 	lea    -0x1b88(%rbp),%rax
   12710:	48 89 85 d0 f8 ff ff 	mov    %rax,-0x730(%rbp)
   12717:	48 8d 85 68 e4 ff ff 	lea    -0x1b98(%rbp),%rax
   1271e:	48 89 85 d8 f8 ff ff 	mov    %rax,-0x728(%rbp)
   12725:	48 8d 85 78 e4 ff ff 	lea    -0x1b88(%rbp),%rax
   1272c:	48 89 85 e0 f8 ff ff 	mov    %rax,-0x720(%rbp)
   12733:	48 8d 85 78 e4 ff ff 	lea    -0x1b88(%rbp),%rax
   1273a:	48 89 85 e8 f8 ff ff 	mov    %rax,-0x718(%rbp)
   12741:	48 8d 85 78 e4 ff ff 	lea    -0x1b88(%rbp),%rax
   12748:	48 89 85 f0 f8 ff ff 	mov    %rax,-0x710(%rbp)
   1274f:	48 8d 85 68 e4 ff ff 	lea    -0x1b98(%rbp),%rax
   12756:	48 89 85 f8 f8 ff ff 	mov    %rax,-0x708(%rbp)
   1275d:	48 8d 85 68 e4 ff ff 	lea    -0x1b98(%rbp),%rax
   12764:	48 89 85 00 f9 ff ff 	mov    %rax,-0x700(%rbp)
   1276b:	48 8d 85 78 e4 ff ff 	lea    -0x1b88(%rbp),%rax
   12772:	48 89 85 08 f9 ff ff 	mov    %rax,-0x6f8(%rbp)
   12779:	48 8d 85 68 e4 ff ff 	lea    -0x1b98(%rbp),%rax
   12780:	48 89 85 10 f9 ff ff 	mov    %rax,-0x6f0(%rbp)
   12787:	48 8d 85 68 e4 ff ff 	lea    -0x1b98(%rbp),%rax
   1278e:	48 89 85 18 f9 ff ff 	mov    %rax,-0x6e8(%rbp)
   12795:	48 8d 85 68 e4 ff ff 	lea    -0x1b98(%rbp),%rax
   1279c:	48 89 85 20 f9 ff ff 	mov    %rax,-0x6e0(%rbp)
   127a3:	48 c7 85 28 f9 ff ff 	movq   $0x0,-0x6d8(%rbp)
   127aa:	00 00 00 00 
   127ae:	48 8d 85 68 e4 ff ff 	lea    -0x1b98(%rbp),%rax
   127b5:	48 89 85 30 f9 ff ff 	mov    %rax,-0x6d0(%rbp)
   127bc:	48 8d 85 78 e4 ff ff 	lea    -0x1b88(%rbp),%rax
   127c3:	48 89 85 38 f9 ff ff 	mov    %rax,-0x6c8(%rbp)
   127ca:	48 8d 85 78 e4 ff ff 	lea    -0x1b88(%rbp),%rax
   127d1:	48 89 85 40 f9 ff ff 	mov    %rax,-0x6c0(%rbp)
   127d8:	48 c7 85 48 f9 ff ff 	movq   $0x0,-0x6b8(%rbp)
   127df:	00 00 00 00 
   127e3:	48 8d 85 78 e4 ff ff 	lea    -0x1b88(%rbp),%rax
   127ea:	48 89 85 50 f9 ff ff 	mov    %rax,-0x6b0(%rbp)
   127f1:	48 8d 85 78 e4 ff ff 	lea    -0x1b88(%rbp),%rax
   127f8:	48 89 85 58 f9 ff ff 	mov    %rax,-0x6a8(%rbp)
   127ff:	48 8d 85 78 e4 ff ff 	lea    -0x1b88(%rbp),%rax
   12806:	48 89 85 60 f9 ff ff 	mov    %rax,-0x6a0(%rbp)
   1280d:	48 8d 85 68 e4 ff ff 	lea    -0x1b98(%rbp),%rax
   12814:	48 89 85 68 f9 ff ff 	mov    %rax,-0x698(%rbp)
   1281b:	48 8d 85 68 e4 ff ff 	lea    -0x1b98(%rbp),%rax
   12822:	48 89 85 70 f9 ff ff 	mov    %rax,-0x690(%rbp)
   12829:	48 c7 85 78 f9 ff ff 	movq   $0x0,-0x688(%rbp)
   12830:	00 00 00 00 
   12834:	48 8d 85 78 e4 ff ff 	lea    -0x1b88(%rbp),%rax
   1283b:	48 89 85 80 f9 ff ff 	mov    %rax,-0x680(%rbp)
   12842:	48 8d 85 78 e4 ff ff 	lea    -0x1b88(%rbp),%rax
   12849:	48 89 85 88 f9 ff ff 	mov    %rax,-0x678(%rbp)
   12850:	48 8d 85 78 e4 ff ff 	lea    -0x1b88(%rbp),%rax
   12857:	48 89 85 90 f9 ff ff 	mov    %rax,-0x670(%rbp)
   1285e:	48 8d 85 68 e4 ff ff 	lea    -0x1b98(%rbp),%rax
   12865:	48 89 85 98 f9 ff ff 	mov    %rax,-0x668(%rbp)
   1286c:	48 8d 85 78 e4 ff ff 	lea    -0x1b88(%rbp),%rax
   12873:	48 89 85 a0 f9 ff ff 	mov    %rax,-0x660(%rbp)
   1287a:	48 8d 85 68 e4 ff ff 	lea    -0x1b98(%rbp),%rax
   12881:	48 89 85 a8 f9 ff ff 	mov    %rax,-0x658(%rbp)
   12888:	48 8d 85 68 e4 ff ff 	lea    -0x1b98(%rbp),%rax
   1288f:	48 89 85 b0 f9 ff ff 	mov    %rax,-0x650(%rbp)
   12896:	48 c7 85 b8 f9 ff ff 	movq   $0x0,-0x648(%rbp)
   1289d:	00 00 00 00 
   128a1:	48 8d 85 68 e4 ff ff 	lea    -0x1b98(%rbp),%rax
   128a8:	48 89 85 c0 f9 ff ff 	mov    %rax,-0x640(%rbp)
   128af:	48 8d 85 78 e4 ff ff 	lea    -0x1b88(%rbp),%rax
   128b6:	48 89 85 c8 f9 ff ff 	mov    %rax,-0x638(%rbp)
   128bd:	48 8d 85 78 e4 ff ff 	lea    -0x1b88(%rbp),%rax
   128c4:	48 89 85 d0 f9 ff ff 	mov    %rax,-0x630(%rbp)
   128cb:	48 8d 85 78 e4 ff ff 	lea    -0x1b88(%rbp),%rax
   128d2:	48 89 85 d8 f9 ff ff 	mov    %rax,-0x628(%rbp)
   128d9:	48 8d 85 68 e4 ff ff 	lea    -0x1b98(%rbp),%rax
   128e0:	48 89 85 e0 f9 ff ff 	mov    %rax,-0x620(%rbp)
   128e7:	48 c7 85 e8 f9 ff ff 	movq   $0x0,-0x618(%rbp)
   128ee:	00 00 00 00 
   128f2:	48 8d 85 78 e4 ff ff 	lea    -0x1b88(%rbp),%rax
   128f9:	48 89 85 f0 f9 ff ff 	mov    %rax,-0x610(%rbp)
   12900:	48 8d 85 68 e4 ff ff 	lea    -0x1b98(%rbp),%rax
   12907:	48 89 85 f8 f9 ff ff 	mov    %rax,-0x608(%rbp)
   1290e:	48 8d 85 68 e4 ff ff 	lea    -0x1b98(%rbp),%rax
   12915:	48 89 85 00 fa ff ff 	mov    %rax,-0x600(%rbp)
   1291c:	48 8d 85 78 e4 ff ff 	lea    -0x1b88(%rbp),%rax
   12923:	48 89 85 08 fa ff ff 	mov    %rax,-0x5f8(%rbp)
   1292a:	48 8d 85 68 e4 ff ff 	lea    -0x1b98(%rbp),%rax
   12931:	48 89 85 10 fa ff ff 	mov    %rax,-0x5f0(%rbp)
   12938:	48 c7 85 18 fa ff ff 	movq   $0x0,-0x5e8(%rbp)
   1293f:	00 00 00 00 
   12943:	48 8d 85 78 e4 ff ff 	lea    -0x1b88(%rbp),%rax
   1294a:	48 89 85 20 fa ff ff 	mov    %rax,-0x5e0(%rbp)
   12951:	48 8d 85 68 e4 ff ff 	lea    -0x1b98(%rbp),%rax
   12958:	48 89 85 28 fa ff ff 	mov    %rax,-0x5d8(%rbp)
   1295f:	48 8d 85 78 e4 ff ff 	lea    -0x1b88(%rbp),%rax
   12966:	48 89 85 30 fa ff ff 	mov    %rax,-0x5d0(%rbp)
   1296d:	48 8d 85 68 e4 ff ff 	lea    -0x1b98(%rbp),%rax
   12974:	48 89 85 38 fa ff ff 	mov    %rax,-0x5c8(%rbp)
   1297b:	48 8d 85 78 e4 ff ff 	lea    -0x1b88(%rbp),%rax
   12982:	48 89 85 40 fa ff ff 	mov    %rax,-0x5c0(%rbp)
   12989:	48 c7 85 48 fa ff ff 	movq   $0x0,-0x5b8(%rbp)
   12990:	00 00 00 00 
   12994:	48 8d 85 78 e4 ff ff 	lea    -0x1b88(%rbp),%rax
   1299b:	48 89 85 50 fa ff ff 	mov    %rax,-0x5b0(%rbp)
   129a2:	48 8d 85 68 e4 ff ff 	lea    -0x1b98(%rbp),%rax
   129a9:	48 89 85 58 fa ff ff 	mov    %rax,-0x5a8(%rbp)
   129b0:	48 8d 85 68 e4 ff ff 	lea    -0x1b98(%rbp),%rax
   129b7:	48 89 85 60 fa ff ff 	mov    %rax,-0x5a0(%rbp)
   129be:	48 8d 85 68 e4 ff ff 	lea    -0x1b98(%rbp),%rax
   129c5:	48 89 85 68 fa ff ff 	mov    %rax,-0x598(%rbp)
   129cc:	48 8d 85 78 e4 ff ff 	lea    -0x1b88(%rbp),%rax
   129d3:	48 89 85 70 fa ff ff 	mov    %rax,-0x590(%rbp)
   129da:	48 8d 85 68 e4 ff ff 	lea    -0x1b98(%rbp),%rax
   129e1:	48 89 85 78 fa ff ff 	mov    %rax,-0x588(%rbp)
   129e8:	48 8d 85 78 e4 ff ff 	lea    -0x1b88(%rbp),%rax
   129ef:	48 89 85 80 fa ff ff 	mov    %rax,-0x580(%rbp)
   129f6:	48 c7 85 88 fa ff ff 	movq   $0x0,-0x578(%rbp)
   129fd:	00 00 00 00 
   12a01:	48 8d 85 78 e4 ff ff 	lea    -0x1b88(%rbp),%rax
   12a08:	48 89 85 90 fa ff ff 	mov    %rax,-0x570(%rbp)
   12a0f:	48 8d 85 68 e4 ff ff 	lea    -0x1b98(%rbp),%rax
   12a16:	48 89 85 98 fa ff ff 	mov    %rax,-0x568(%rbp)
   12a1d:	48 c7 85 a0 fa ff ff 	movq   $0x0,-0x560(%rbp)
   12a24:	00 00 00 00 
   12a28:	48 c7 85 a8 fa ff ff 	movq   $0x0,-0x558(%rbp)
   12a2f:	00 00 00 00 
   12a33:	48 8d 85 78 e4 ff ff 	lea    -0x1b88(%rbp),%rax
   12a3a:	48 89 85 b0 fa ff ff 	mov    %rax,-0x550(%rbp)
   12a41:	48 8d 85 68 e4 ff ff 	lea    -0x1b98(%rbp),%rax
   12a48:	48 89 85 b8 fa ff ff 	mov    %rax,-0x548(%rbp)
   12a4f:	48 8d 85 78 e4 ff ff 	lea    -0x1b88(%rbp),%rax
   12a56:	48 89 85 c0 fa ff ff 	mov    %rax,-0x540(%rbp)
   12a5d:	48 c7 85 c8 fa ff ff 	movq   $0x0,-0x538(%rbp)
   12a64:	00 00 00 00 
   12a68:	48 8d 85 78 e4 ff ff 	lea    -0x1b88(%rbp),%rax
   12a6f:	48 89 85 d0 fa ff ff 	mov    %rax,-0x530(%rbp)
   12a76:	48 c7 85 d8 fa ff ff 	movq   $0x0,-0x528(%rbp)
   12a7d:	00 00 00 00 
   12a81:	48 8d 85 68 e4 ff ff 	lea    -0x1b98(%rbp),%rax
   12a88:	48 89 85 e0 fa ff ff 	mov    %rax,-0x520(%rbp)
   12a8f:	48 8d 85 68 e4 ff ff 	lea    -0x1b98(%rbp),%rax
   12a96:	48 89 85 e8 fa ff ff 	mov    %rax,-0x518(%rbp)
   12a9d:	48 8d 85 78 e4 ff ff 	lea    -0x1b88(%rbp),%rax
   12aa4:	48 89 85 f0 fa ff ff 	mov    %rax,-0x510(%rbp)
   12aab:	48 8d 85 78 e4 ff ff 	lea    -0x1b88(%rbp),%rax
   12ab2:	48 89 85 f8 fa ff ff 	mov    %rax,-0x508(%rbp)
   12ab9:	48 8d 85 78 e4 ff ff 	lea    -0x1b88(%rbp),%rax
   12ac0:	48 89 85 00 fb ff ff 	mov    %rax,-0x500(%rbp)
   12ac7:	48 8d 85 78 e4 ff ff 	lea    -0x1b88(%rbp),%rax
   12ace:	48 89 85 08 fb ff ff 	mov    %rax,-0x4f8(%rbp)
   12ad5:	48 8d 85 78 e4 ff ff 	lea    -0x1b88(%rbp),%rax
   12adc:	48 89 85 10 fb ff ff 	mov    %rax,-0x4f0(%rbp)
   12ae3:	48 8d 85 78 e4 ff ff 	lea    -0x1b88(%rbp),%rax
   12aea:	48 89 85 18 fb ff ff 	mov    %rax,-0x4e8(%rbp)
   12af1:	48 8d 85 78 e4 ff ff 	lea    -0x1b88(%rbp),%rax
   12af8:	48 89 85 20 fb ff ff 	mov    %rax,-0x4e0(%rbp)
   12aff:	48 8d 85 78 e4 ff ff 	lea    -0x1b88(%rbp),%rax
   12b06:	48 89 85 28 fb ff ff 	mov    %rax,-0x4d8(%rbp)
   12b0d:	48 8d 85 68 e4 ff ff 	lea    -0x1b98(%rbp),%rax
   12b14:	48 89 85 30 fb ff ff 	mov    %rax,-0x4d0(%rbp)
   12b1b:	48 8d 85 78 e4 ff ff 	lea    -0x1b88(%rbp),%rax
   12b22:	48 89 85 38 fb ff ff 	mov    %rax,-0x4c8(%rbp)
   12b29:	48 8d 85 68 e4 ff ff 	lea    -0x1b98(%rbp),%rax
   12b30:	48 89 85 40 fb ff ff 	mov    %rax,-0x4c0(%rbp)
   12b37:	48 c7 85 48 fb ff ff 	movq   $0x0,-0x4b8(%rbp)
   12b3e:	00 00 00 00 
   12b42:	48 8d 85 78 e4 ff ff 	lea    -0x1b88(%rbp),%rax
   12b49:	48 89 85 50 fb ff ff 	mov    %rax,-0x4b0(%rbp)
   12b50:	48 8d 85 78 e4 ff ff 	lea    -0x1b88(%rbp),%rax
   12b57:	48 89 85 58 fb ff ff 	mov    %rax,-0x4a8(%rbp)
   12b5e:	48 8d 85 68 e4 ff ff 	lea    -0x1b98(%rbp),%rax
   12b65:	48 89 85 60 fb ff ff 	mov    %rax,-0x4a0(%rbp)
   12b6c:	48 8d 85 78 e4 ff ff 	lea    -0x1b88(%rbp),%rax
   12b73:	48 89 85 68 fb ff ff 	mov    %rax,-0x498(%rbp)
   12b7a:	48 8d 85 78 e4 ff ff 	lea    -0x1b88(%rbp),%rax
   12b81:	48 89 85 70 fb ff ff 	mov    %rax,-0x490(%rbp)
   12b88:	48 c7 85 78 fb ff ff 	movq   $0x0,-0x488(%rbp)
   12b8f:	00 00 00 00 
   12b93:	48 8d 85 68 e4 ff ff 	lea    -0x1b98(%rbp),%rax
   12b9a:	48 89 85 80 fb ff ff 	mov    %rax,-0x480(%rbp)
   12ba1:	48 8d 85 78 e4 ff ff 	lea    -0x1b88(%rbp),%rax
   12ba8:	48 89 85 88 fb ff ff 	mov    %rax,-0x478(%rbp)
   12baf:	48 8d 85 68 e4 ff ff 	lea    -0x1b98(%rbp),%rax
   12bb6:	48 89 85 90 fb ff ff 	mov    %rax,-0x470(%rbp)
   12bbd:	48 8d 85 68 e4 ff ff 	lea    -0x1b98(%rbp),%rax
   12bc4:	48 89 85 98 fb ff ff 	mov    %rax,-0x468(%rbp)
   12bcb:	48 8d 85 78 e4 ff ff 	lea    -0x1b88(%rbp),%rax
   12bd2:	48 89 85 a0 fb ff ff 	mov    %rax,-0x460(%rbp)
   12bd9:	48 8d 85 68 e4 ff ff 	lea    -0x1b98(%rbp),%rax
   12be0:	48 89 85 a8 fb ff ff 	mov    %rax,-0x458(%rbp)
   12be7:	48 8d 85 78 e4 ff ff 	lea    -0x1b88(%rbp),%rax
   12bee:	48 89 85 b0 fb ff ff 	mov    %rax,-0x450(%rbp)
   12bf5:	48 8d 85 68 e4 ff ff 	lea    -0x1b98(%rbp),%rax
   12bfc:	48 89 85 b8 fb ff ff 	mov    %rax,-0x448(%rbp)
   12c03:	48 8d 85 78 e4 ff ff 	lea    -0x1b88(%rbp),%rax
   12c0a:	48 89 85 c0 fb ff ff 	mov    %rax,-0x440(%rbp)
   12c11:	48 8d 85 68 e4 ff ff 	lea    -0x1b98(%rbp),%rax
   12c18:	48 89 85 c8 fb ff ff 	mov    %rax,-0x438(%rbp)
   12c1f:	48 8d 85 68 e4 ff ff 	lea    -0x1b98(%rbp),%rax
   12c26:	48 89 85 d0 fb ff ff 	mov    %rax,-0x430(%rbp)
   12c2d:	48 8d 85 68 e4 ff ff 	lea    -0x1b98(%rbp),%rax
   12c34:	48 89 85 d8 fb ff ff 	mov    %rax,-0x428(%rbp)
   12c3b:	48 8d 85 78 e4 ff ff 	lea    -0x1b88(%rbp),%rax
   12c42:	48 89 85 e0 fb ff ff 	mov    %rax,-0x420(%rbp)
   12c49:	48 8d 85 78 e4 ff ff 	lea    -0x1b88(%rbp),%rax
   12c50:	48 89 85 e8 fb ff ff 	mov    %rax,-0x418(%rbp)
   12c57:	48 8d 85 78 e4 ff ff 	lea    -0x1b88(%rbp),%rax
   12c5e:	48 89 85 f0 fb ff ff 	mov    %rax,-0x410(%rbp)
   12c65:	48 8d 85 78 e4 ff ff 	lea    -0x1b88(%rbp),%rax
   12c6c:	48 89 85 f8 fb ff ff 	mov    %rax,-0x408(%rbp)
   12c73:	48 8d 85 78 e4 ff ff 	lea    -0x1b88(%rbp),%rax
   12c7a:	48 89 85 00 fc ff ff 	mov    %rax,-0x400(%rbp)
   12c81:	48 8d 85 78 e4 ff ff 	lea    -0x1b88(%rbp),%rax
   12c88:	48 89 85 08 fc ff ff 	mov    %rax,-0x3f8(%rbp)
   12c8f:	48 8d 85 68 e4 ff ff 	lea    -0x1b98(%rbp),%rax
   12c96:	48 89 85 10 fc ff ff 	mov    %rax,-0x3f0(%rbp)
   12c9d:	48 8d 85 68 e4 ff ff 	lea    -0x1b98(%rbp),%rax
   12ca4:	48 89 85 18 fc ff ff 	mov    %rax,-0x3e8(%rbp)
   12cab:	48 8d 85 68 e4 ff ff 	lea    -0x1b98(%rbp),%rax
   12cb2:	48 89 85 20 fc ff ff 	mov    %rax,-0x3e0(%rbp)
   12cb9:	48 8d 85 68 e4 ff ff 	lea    -0x1b98(%rbp),%rax
   12cc0:	48 89 85 28 fc ff ff 	mov    %rax,-0x3d8(%rbp)
   12cc7:	48 8d 85 68 e4 ff ff 	lea    -0x1b98(%rbp),%rax
   12cce:	48 89 85 30 fc ff ff 	mov    %rax,-0x3d0(%rbp)
   12cd5:	48 c7 85 38 fc ff ff 	movq   $0x0,-0x3c8(%rbp)
   12cdc:	00 00 00 00 
   12ce0:	48 8d 85 68 e4 ff ff 	lea    -0x1b98(%rbp),%rax
   12ce7:	48 89 85 40 fc ff ff 	mov    %rax,-0x3c0(%rbp)
   12cee:	48 8d 85 78 e4 ff ff 	lea    -0x1b88(%rbp),%rax
   12cf5:	48 89 85 48 fc ff ff 	mov    %rax,-0x3b8(%rbp)
   12cfc:	48 8d 85 78 e4 ff ff 	lea    -0x1b88(%rbp),%rax
   12d03:	48 89 85 50 fc ff ff 	mov    %rax,-0x3b0(%rbp)
   12d0a:	48 8d 85 68 e4 ff ff 	lea    -0x1b98(%rbp),%rax
   12d11:	48 89 85 58 fc ff ff 	mov    %rax,-0x3a8(%rbp)
   12d18:	48 8d 85 78 e4 ff ff 	lea    -0x1b88(%rbp),%rax
   12d1f:	48 89 85 60 fc ff ff 	mov    %rax,-0x3a0(%rbp)
   12d26:	48 8d 85 78 e4 ff ff 	lea    -0x1b88(%rbp),%rax
   12d2d:	48 89 85 68 fc ff ff 	mov    %rax,-0x398(%rbp)
   12d34:	48 8d 85 78 e4 ff ff 	lea    -0x1b88(%rbp),%rax
   12d3b:	48 89 85 70 fc ff ff 	mov    %rax,-0x390(%rbp)
   12d42:	48 c7 85 78 fc ff ff 	movq   $0x0,-0x388(%rbp)
   12d49:	00 00 00 00 
   12d4d:	48 8d 85 78 e4 ff ff 	lea    -0x1b88(%rbp),%rax
   12d54:	48 89 85 80 fc ff ff 	mov    %rax,-0x380(%rbp)
   12d5b:	48 8d 85 68 e4 ff ff 	lea    -0x1b98(%rbp),%rax
   12d62:	48 89 85 88 fc ff ff 	mov    %rax,-0x378(%rbp)
   12d69:	48 8d 85 68 e4 ff ff 	lea    -0x1b98(%rbp),%rax
   12d70:	48 89 85 90 fc ff ff 	mov    %rax,-0x370(%rbp)
   12d77:	48 8d 85 68 e4 ff ff 	lea    -0x1b98(%rbp),%rax
   12d7e:	48 89 85 98 fc ff ff 	mov    %rax,-0x368(%rbp)
   12d85:	48 8d 85 68 e4 ff ff 	lea    -0x1b98(%rbp),%rax
   12d8c:	48 89 85 a0 fc ff ff 	mov    %rax,-0x360(%rbp)
   12d93:	48 8d 85 78 e4 ff ff 	lea    -0x1b88(%rbp),%rax
   12d9a:	48 89 85 a8 fc ff ff 	mov    %rax,-0x358(%rbp)
   12da1:	48 c7 85 b0 fc ff ff 	movq   $0x0,-0x350(%rbp)
   12da8:	00 00 00 00 
   12dac:	48 8d 85 78 e4 ff ff 	lea    -0x1b88(%rbp),%rax
   12db3:	48 89 85 b8 fc ff ff 	mov    %rax,-0x348(%rbp)
   12dba:	48 8d 85 78 e4 ff ff 	lea    -0x1b88(%rbp),%rax
   12dc1:	48 89 85 c0 fc ff ff 	mov    %rax,-0x340(%rbp)
   12dc8:	48 8d 85 78 e4 ff ff 	lea    -0x1b88(%rbp),%rax
   12dcf:	48 89 85 c8 fc ff ff 	mov    %rax,-0x338(%rbp)
   12dd6:	48 8d 85 68 e4 ff ff 	lea    -0x1b98(%rbp),%rax
   12ddd:	48 89 85 d0 fc ff ff 	mov    %rax,-0x330(%rbp)
   12de4:	48 8d 85 68 e4 ff ff 	lea    -0x1b98(%rbp),%rax
   12deb:	48 89 85 d8 fc ff ff 	mov    %rax,-0x328(%rbp)
   12df2:	48 8d 85 68 e4 ff ff 	lea    -0x1b98(%rbp),%rax
   12df9:	48 89 85 e0 fc ff ff 	mov    %rax,-0x320(%rbp)
   12e00:	48 8d 85 68 e4 ff ff 	lea    -0x1b98(%rbp),%rax
   12e07:	48 89 85 e8 fc ff ff 	mov    %rax,-0x318(%rbp)
   12e0e:	48 8d 85 78 e4 ff ff 	lea    -0x1b88(%rbp),%rax
   12e15:	48 89 85 f0 fc ff ff 	mov    %rax,-0x310(%rbp)
   12e1c:	48 8d 85 68 e4 ff ff 	lea    -0x1b98(%rbp),%rax
   12e23:	48 89 85 f8 fc ff ff 	mov    %rax,-0x308(%rbp)
   12e2a:	48 8d 85 78 e4 ff ff 	lea    -0x1b88(%rbp),%rax
   12e31:	48 89 85 00 fd ff ff 	mov    %rax,-0x300(%rbp)
   12e38:	48 8d 85 68 e4 ff ff 	lea    -0x1b98(%rbp),%rax
   12e3f:	48 89 85 08 fd ff ff 	mov    %rax,-0x2f8(%rbp)
   12e46:	48 8d 85 78 e4 ff ff 	lea    -0x1b88(%rbp),%rax
   12e4d:	48 89 85 10 fd ff ff 	mov    %rax,-0x2f0(%rbp)
   12e54:	48 8d 85 68 e4 ff ff 	lea    -0x1b98(%rbp),%rax
   12e5b:	48 89 85 18 fd ff ff 	mov    %rax,-0x2e8(%rbp)
   12e62:	48 8d 85 68 e4 ff ff 	lea    -0x1b98(%rbp),%rax
   12e69:	48 89 85 20 fd ff ff 	mov    %rax,-0x2e0(%rbp)
   12e70:	48 8d 85 78 e4 ff ff 	lea    -0x1b88(%rbp),%rax
   12e77:	48 89 85 28 fd ff ff 	mov    %rax,-0x2d8(%rbp)
   12e7e:	48 c7 85 30 fd ff ff 	movq   $0x0,-0x2d0(%rbp)
   12e85:	00 00 00 00 
   12e89:	48 8d 85 68 e4 ff ff 	lea    -0x1b98(%rbp),%rax
   12e90:	48 89 85 38 fd ff ff 	mov    %rax,-0x2c8(%rbp)
   12e97:	48 8d 85 78 e4 ff ff 	lea    -0x1b88(%rbp),%rax
   12e9e:	48 89 85 40 fd ff ff 	mov    %rax,-0x2c0(%rbp)
   12ea5:	48 8d 85 68 e4 ff ff 	lea    -0x1b98(%rbp),%rax
   12eac:	48 89 85 48 fd ff ff 	mov    %rax,-0x2b8(%rbp)
   12eb3:	48 c7 85 50 fd ff ff 	movq   $0x0,-0x2b0(%rbp)
   12eba:	00 00 00 00 
   12ebe:	48 c7 85 58 fd ff ff 	movq   $0x0,-0x2a8(%rbp)
   12ec5:	00 00 00 00 
   12ec9:	48 8d 85 68 e4 ff ff 	lea    -0x1b98(%rbp),%rax
   12ed0:	48 89 85 60 fd ff ff 	mov    %rax,-0x2a0(%rbp)
   12ed7:	48 8d 85 68 e4 ff ff 	lea    -0x1b98(%rbp),%rax
   12ede:	48 89 85 68 fd ff ff 	mov    %rax,-0x298(%rbp)
   12ee5:	48 8d 85 78 e4 ff ff 	lea    -0x1b88(%rbp),%rax
   12eec:	48 89 85 70 fd ff ff 	mov    %rax,-0x290(%rbp)
   12ef3:	48 8d 85 78 e4 ff ff 	lea    -0x1b88(%rbp),%rax
   12efa:	48 89 85 78 fd ff ff 	mov    %rax,-0x288(%rbp)
   12f01:	48 8d 85 68 e4 ff ff 	lea    -0x1b98(%rbp),%rax
   12f08:	48 89 85 80 fd ff ff 	mov    %rax,-0x280(%rbp)
   12f0f:	48 8d 85 68 e4 ff ff 	lea    -0x1b98(%rbp),%rax
   12f16:	48 89 85 88 fd ff ff 	mov    %rax,-0x278(%rbp)
   12f1d:	48 c7 85 90 fd ff ff 	movq   $0x0,-0x270(%rbp)
   12f24:	00 00 00 00 
   12f28:	48 8d 85 78 e4 ff ff 	lea    -0x1b88(%rbp),%rax
   12f2f:	48 89 85 98 fd ff ff 	mov    %rax,-0x268(%rbp)
   12f36:	48 8d 85 78 e4 ff ff 	lea    -0x1b88(%rbp),%rax
   12f3d:	48 89 85 a0 fd ff ff 	mov    %rax,-0x260(%rbp)
   12f44:	48 c7 85 a8 fd ff ff 	movq   $0x0,-0x258(%rbp)
   12f4b:	00 00 00 00 
   12f4f:	48 8d 85 78 e4 ff ff 	lea    -0x1b88(%rbp),%rax
   12f56:	48 89 85 b0 fd ff ff 	mov    %rax,-0x250(%rbp)
   12f5d:	48 c7 85 b8 fd ff ff 	movq   $0x0,-0x248(%rbp)
   12f64:	00 00 00 00 
   12f68:	48 8d 85 78 e4 ff ff 	lea    -0x1b88(%rbp),%rax
   12f6f:	48 89 85 c0 fd ff ff 	mov    %rax,-0x240(%rbp)
   12f76:	48 8d 85 78 e4 ff ff 	lea    -0x1b88(%rbp),%rax
   12f7d:	48 89 85 c8 fd ff ff 	mov    %rax,-0x238(%rbp)
   12f84:	48 8d 85 78 e4 ff ff 	lea    -0x1b88(%rbp),%rax
   12f8b:	48 89 85 d0 fd ff ff 	mov    %rax,-0x230(%rbp)
   12f92:	48 8d 85 78 e4 ff ff 	lea    -0x1b88(%rbp),%rax
   12f99:	48 89 85 d8 fd ff ff 	mov    %rax,-0x228(%rbp)
   12fa0:	48 8d 85 68 e4 ff ff 	lea    -0x1b98(%rbp),%rax
   12fa7:	48 89 85 e0 fd ff ff 	mov    %rax,-0x220(%rbp)
   12fae:	48 8d 85 78 e4 ff ff 	lea    -0x1b88(%rbp),%rax
   12fb5:	48 89 85 e8 fd ff ff 	mov    %rax,-0x218(%rbp)
   12fbc:	48 8d 85 78 e4 ff ff 	lea    -0x1b88(%rbp),%rax
   12fc3:	48 89 85 f0 fd ff ff 	mov    %rax,-0x210(%rbp)
   12fca:	48 8d 85 78 e4 ff ff 	lea    -0x1b88(%rbp),%rax
   12fd1:	48 89 85 f8 fd ff ff 	mov    %rax,-0x208(%rbp)
   12fd8:	48 8d 85 78 e4 ff ff 	lea    -0x1b88(%rbp),%rax
   12fdf:	48 89 85 00 fe ff ff 	mov    %rax,-0x200(%rbp)
   12fe6:	48 8d 85 68 e4 ff ff 	lea    -0x1b98(%rbp),%rax
   12fed:	48 89 85 08 fe ff ff 	mov    %rax,-0x1f8(%rbp)
   12ff4:	48 8d 85 68 e4 ff ff 	lea    -0x1b98(%rbp),%rax
   12ffb:	48 89 85 10 fe ff ff 	mov    %rax,-0x1f0(%rbp)
   13002:	48 c7 85 18 fe ff ff 	movq   $0x0,-0x1e8(%rbp)
   13009:	00 00 00 00 
   1300d:	48 8d 85 78 e4 ff ff 	lea    -0x1b88(%rbp),%rax
   13014:	48 89 85 20 fe ff ff 	mov    %rax,-0x1e0(%rbp)
   1301b:	48 8d 85 78 e4 ff ff 	lea    -0x1b88(%rbp),%rax
   13022:	48 89 85 28 fe ff ff 	mov    %rax,-0x1d8(%rbp)
   13029:	48 8d 85 78 e4 ff ff 	lea    -0x1b88(%rbp),%rax
   13030:	48 89 85 30 fe ff ff 	mov    %rax,-0x1d0(%rbp)
   13037:	48 c7 85 38 fe ff ff 	movq   $0x0,-0x1c8(%rbp)
   1303e:	00 00 00 00 
   13042:	48 8d 85 68 e4 ff ff 	lea    -0x1b98(%rbp),%rax
   13049:	48 89 85 40 fe ff ff 	mov    %rax,-0x1c0(%rbp)
   13050:	48 c7 85 48 fe ff ff 	movq   $0x0,-0x1b8(%rbp)
   13057:	00 00 00 00 
   1305b:	48 8d 85 78 e4 ff ff 	lea    -0x1b88(%rbp),%rax
   13062:	48 89 85 50 fe ff ff 	mov    %rax,-0x1b0(%rbp)
   13069:	48 8d 85 68 e4 ff ff 	lea    -0x1b98(%rbp),%rax
   13070:	48 89 85 58 fe ff ff 	mov    %rax,-0x1a8(%rbp)
   13077:	48 8d 85 78 e4 ff ff 	lea    -0x1b88(%rbp),%rax
   1307e:	48 89 85 60 fe ff ff 	mov    %rax,-0x1a0(%rbp)
   13085:	48 8d 85 78 e4 ff ff 	lea    -0x1b88(%rbp),%rax
   1308c:	48 89 85 68 fe ff ff 	mov    %rax,-0x198(%rbp)
   13093:	48 8d 85 78 e4 ff ff 	lea    -0x1b88(%rbp),%rax
   1309a:	48 89 85 70 fe ff ff 	mov    %rax,-0x190(%rbp)
   130a1:	48 8d 85 68 e4 ff ff 	lea    -0x1b98(%rbp),%rax
   130a8:	48 89 85 78 fe ff ff 	mov    %rax,-0x188(%rbp)
   130af:	48 8d 85 78 e4 ff ff 	lea    -0x1b88(%rbp),%rax
   130b6:	48 89 85 80 fe ff ff 	mov    %rax,-0x180(%rbp)
   130bd:	48 c7 85 88 fe ff ff 	movq   $0x0,-0x178(%rbp)
   130c4:	00 00 00 00 
   130c8:	48 c7 85 90 fe ff ff 	movq   $0x0,-0x170(%rbp)
   130cf:	00 00 00 00 
   130d3:	48 8d 85 68 e4 ff ff 	lea    -0x1b98(%rbp),%rax
   130da:	48 89 85 98 fe ff ff 	mov    %rax,-0x168(%rbp)
   130e1:	48 8d 85 68 e4 ff ff 	lea    -0x1b98(%rbp),%rax
   130e8:	48 89 85 a0 fe ff ff 	mov    %rax,-0x160(%rbp)
   130ef:	48 8d 85 68 e4 ff ff 	lea    -0x1b98(%rbp),%rax
   130f6:	48 89 85 a8 fe ff ff 	mov    %rax,-0x158(%rbp)
   130fd:	48 8d 85 78 e4 ff ff 	lea    -0x1b88(%rbp),%rax
   13104:	48 89 85 b0 fe ff ff 	mov    %rax,-0x150(%rbp)
   1310b:	48 c7 85 b8 fe ff ff 	movq   $0x0,-0x148(%rbp)
   13112:	00 00 00 00 
   13116:	48 8d 85 68 e4 ff ff 	lea    -0x1b98(%rbp),%rax
   1311d:	48 89 85 c0 fe ff ff 	mov    %rax,-0x140(%rbp)
   13124:	48 8d 85 68 e4 ff ff 	lea    -0x1b98(%rbp),%rax
   1312b:	48 89 85 c8 fe ff ff 	mov    %rax,-0x138(%rbp)
   13132:	48 c7 85 d0 fe ff ff 	movq   $0x0,-0x130(%rbp)
   13139:	00 00 00 00 
   1313d:	48 c7 85 d8 fe ff ff 	movq   $0x0,-0x128(%rbp)
   13144:	00 00 00 00 
   13148:	48 8d 85 78 e4 ff ff 	lea    -0x1b88(%rbp),%rax
   1314f:	48 89 85 e0 fe ff ff 	mov    %rax,-0x120(%rbp)
   13156:	48 8d 85 68 e4 ff ff 	lea    -0x1b98(%rbp),%rax
   1315d:	48 89 85 e8 fe ff ff 	mov    %rax,-0x118(%rbp)
   13164:	48 c7 85 f0 fe ff ff 	movq   $0x0,-0x110(%rbp)
   1316b:	00 00 00 00 
   1316f:	48 8d 85 78 e4 ff ff 	lea    -0x1b88(%rbp),%rax
   13176:	48 89 85 f8 fe ff ff 	mov    %rax,-0x108(%rbp)
   1317d:	48 8d 85 68 e4 ff ff 	lea    -0x1b98(%rbp),%rax
   13184:	48 89 85 00 ff ff ff 	mov    %rax,-0x100(%rbp)
   1318b:	48 8d 85 78 e4 ff ff 	lea    -0x1b88(%rbp),%rax
   13192:	48 89 85 08 ff ff ff 	mov    %rax,-0xf8(%rbp)
   13199:	48 8d 85 78 e4 ff ff 	lea    -0x1b88(%rbp),%rax
   131a0:	48 89 85 10 ff ff ff 	mov    %rax,-0xf0(%rbp)
   131a7:	48 c7 85 18 ff ff ff 	movq   $0x0,-0xe8(%rbp)
   131ae:	00 00 00 00 
   131b2:	48 c7 85 20 ff ff ff 	movq   $0x0,-0xe0(%rbp)
   131b9:	00 00 00 00 
   131bd:	48 8d 85 68 e4 ff ff 	lea    -0x1b98(%rbp),%rax
   131c4:	48 89 85 28 ff ff ff 	mov    %rax,-0xd8(%rbp)
   131cb:	48 8d 85 68 e4 ff ff 	lea    -0x1b98(%rbp),%rax
   131d2:	48 89 85 30 ff ff ff 	mov    %rax,-0xd0(%rbp)
   131d9:	48 8d 85 78 e4 ff ff 	lea    -0x1b88(%rbp),%rax
   131e0:	48 89 85 38 ff ff ff 	mov    %rax,-0xc8(%rbp)
   131e7:	48 c7 85 40 ff ff ff 	movq   $0x0,-0xc0(%rbp)
   131ee:	00 00 00 00 
   131f2:	48 8d 85 78 e4 ff ff 	lea    -0x1b88(%rbp),%rax
   131f9:	48 89 85 48 ff ff ff 	mov    %rax,-0xb8(%rbp)
   13200:	48 8d 85 68 e4 ff ff 	lea    -0x1b98(%rbp),%rax
   13207:	48 89 85 50 ff ff ff 	mov    %rax,-0xb0(%rbp)
   1320e:	48 8d 85 78 e4 ff ff 	lea    -0x1b88(%rbp),%rax
   13215:	48 89 85 58 ff ff ff 	mov    %rax,-0xa8(%rbp)
   1321c:	48 8d 85 78 e4 ff ff 	lea    -0x1b88(%rbp),%rax
   13223:	48 89 85 60 ff ff ff 	mov    %rax,-0xa0(%rbp)
   1322a:	48 8d 85 68 e4 ff ff 	lea    -0x1b98(%rbp),%rax
   13231:	48 89 85 68 ff ff ff 	mov    %rax,-0x98(%rbp)
   13238:	48 8d 85 68 e4 ff ff 	lea    -0x1b98(%rbp),%rax
   1323f:	48 89 85 70 ff ff ff 	mov    %rax,-0x90(%rbp)
   13246:	48 8d 85 78 e4 ff ff 	lea    -0x1b88(%rbp),%rax
   1324d:	48 89 85 78 ff ff ff 	mov    %rax,-0x88(%rbp)
   13254:	48 c7 45 80 00 00 00 	movq   $0x0,-0x80(%rbp)
   1325b:	00 
   1325c:	48 8d 85 78 e4 ff ff 	lea    -0x1b88(%rbp),%rax
   13263:	48 89 45 88          	mov    %rax,-0x78(%rbp)
   13267:	48 8d 85 78 e4 ff ff 	lea    -0x1b88(%rbp),%rax
   1326e:	48 89 45 90          	mov    %rax,-0x70(%rbp)
   13272:	48 8d 85 78 e4 ff ff 	lea    -0x1b88(%rbp),%rax
   13279:	48 89 45 98          	mov    %rax,-0x68(%rbp)
   1327d:	48 c7 45 a0 00 00 00 	movq   $0x0,-0x60(%rbp)
   13284:	00 
   13285:	48 8d 85 78 e4 ff ff 	lea    -0x1b88(%rbp),%rax
   1328c:	48 89 45 a8          	mov    %rax,-0x58(%rbp)
   13290:	48 8d 85 78 e4 ff ff 	lea    -0x1b88(%rbp),%rax
   13297:	48 89 45 b0          	mov    %rax,-0x50(%rbp)
   1329b:	48 8d 85 68 e4 ff ff 	lea    -0x1b98(%rbp),%rax
   132a2:	48 89 45 b8          	mov    %rax,-0x48(%rbp)
   132a6:	48 8d 05 09 6f 00 00 	lea    0x6f09(%rip),%rax        # 1a1b6 <g_378+0xb6>
   132ad:	48 89 85 80 e5 ff ff 	mov    %rax,-0x1a80(%rbp)
   132b4:	48 8b 95 70 e4 ff ff 	mov    -0x1b90(%rbp),%rdx
   132bb:	48 8b 85 68 e5 ff ff 	mov    -0x1a98(%rbp),%rax
   132c2:	48 89 10             	mov    %rdx,(%rax)
   132c5:	c7 05 c1 6d 00 00 02 	movl   $0x2,0x6dc1(%rip)        # 1a090 <g_99>
   132cc:	00 00 00 
   132cf:	e9 8b 0b 00 00       	jmpq   13e5f <func_49+0x2a38>
   132d4:	48 8d 05 61 6d 00 00 	lea    0x6d61(%rip),%rax        # 1a03c <g_72>
   132db:	48 89 85 88 e5 ff ff 	mov    %rax,-0x1a78(%rbp)
   132e2:	c7 85 d0 e3 ff ff fc 	movl   $0xc66186fc,-0x1c30(%rbp)
   132e9:	86 61 c6 
   132ec:	48 c7 85 90 e5 ff ff 	movq   $0x0,-0x1a70(%rbp)
   132f3:	00 00 00 00 
   132f7:	48 c7 85 98 e5 ff ff 	movq   $0x0,-0x1a68(%rbp)
   132fe:	00 00 00 00 
   13302:	48 8d 05 1b a9 00 00 	lea    0xa91b(%rip),%rax        # 1dc24 <g_291>
   13309:	48 89 85 30 e9 ff ff 	mov    %rax,-0x16d0(%rbp)
   13310:	48 8d 05 0d a9 00 00 	lea    0xa90d(%rip),%rax        # 1dc24 <g_291>
   13317:	48 89 85 38 e9 ff ff 	mov    %rax,-0x16c8(%rbp)
   1331e:	48 8d 05 fb a8 00 00 	lea    0xa8fb(%rip),%rax        # 1dc20 <g_272>
   13325:	48 89 85 40 e9 ff ff 	mov    %rax,-0x16c0(%rbp)
   1332c:	48 8d 85 cc e3 ff ff 	lea    -0x1c34(%rbp),%rax
   13333:	48 89 85 48 e9 ff ff 	mov    %rax,-0x16b8(%rbp)
   1333a:	48 8d 05 e3 a8 00 00 	lea    0xa8e3(%rip),%rax        # 1dc24 <g_291>
   13341:	48 89 85 50 e9 ff ff 	mov    %rax,-0x16b0(%rbp)
   13348:	48 8d 85 cc e3 ff ff 	lea    -0x1c34(%rbp),%rax
   1334f:	48 89 85 58 e9 ff ff 	mov    %rax,-0x16a8(%rbp)
   13356:	48 c7 85 60 e9 ff ff 	movq   $0x0,-0x16a0(%rbp)
   1335d:	00 00 00 00 
   13361:	48 8d 85 cc e3 ff ff 	lea    -0x1c34(%rbp),%rax
   13368:	48 89 85 68 e9 ff ff 	mov    %rax,-0x1698(%rbp)
   1336f:	48 8d 05 ae a8 00 00 	lea    0xa8ae(%rip),%rax        # 1dc24 <g_291>
   13376:	48 89 85 70 e9 ff ff 	mov    %rax,-0x1690(%rbp)
   1337d:	48 c7 85 78 e9 ff ff 	movq   $0x0,-0x1688(%rbp)
   13384:	00 00 00 00 
   13388:	48 8d 05 95 a8 00 00 	lea    0xa895(%rip),%rax        # 1dc24 <g_291>
   1338f:	48 89 85 80 e9 ff ff 	mov    %rax,-0x1680(%rbp)
   13396:	48 c7 85 88 e9 ff ff 	movq   $0x0,-0x1678(%rbp)
   1339d:	00 00 00 00 
   133a1:	48 8d 05 78 a8 00 00 	lea    0xa878(%rip),%rax        # 1dc20 <g_272>
   133a8:	48 89 85 90 e9 ff ff 	mov    %rax,-0x1670(%rbp)
   133af:	48 8d 85 cc e3 ff ff 	lea    -0x1c34(%rbp),%rax
   133b6:	48 89 85 98 e9 ff ff 	mov    %rax,-0x1668(%rbp)
   133bd:	48 8d 85 cc e3 ff ff 	lea    -0x1c34(%rbp),%rax
   133c4:	48 89 85 a0 e9 ff ff 	mov    %rax,-0x1660(%rbp)
   133cb:	48 8d 05 4e a8 00 00 	lea    0xa84e(%rip),%rax        # 1dc20 <g_272>
   133d2:	48 89 85 a8 e9 ff ff 	mov    %rax,-0x1658(%rbp)
   133d9:	48 c7 85 b0 e9 ff ff 	movq   $0x0,-0x1650(%rbp)
   133e0:	00 00 00 00 
   133e4:	48 8d 05 39 a8 00 00 	lea    0xa839(%rip),%rax        # 1dc24 <g_291>
   133eb:	48 89 85 b8 e9 ff ff 	mov    %rax,-0x1648(%rbp)
   133f2:	48 c7 85 c0 e9 ff ff 	movq   $0x0,-0x1640(%rbp)
   133f9:	00 00 00 00 
   133fd:	48 8d 05 20 a8 00 00 	lea    0xa820(%rip),%rax        # 1dc24 <g_291>
   13404:	48 89 85 c8 e9 ff ff 	mov    %rax,-0x1638(%rbp)
   1340b:	48 8d 05 0e a8 00 00 	lea    0xa80e(%rip),%rax        # 1dc20 <g_272>
   13412:	48 89 85 d0 e9 ff ff 	mov    %rax,-0x1630(%rbp)
   13419:	48 8d 05 00 a8 00 00 	lea    0xa800(%rip),%rax        # 1dc20 <g_272>
   13420:	48 89 85 d8 e9 ff ff 	mov    %rax,-0x1628(%rbp)
   13427:	48 8d 05 f6 a7 00 00 	lea    0xa7f6(%rip),%rax        # 1dc24 <g_291>
   1342e:	48 89 85 e0 e9 ff ff 	mov    %rax,-0x1620(%rbp)
   13435:	48 8d 85 cc e3 ff ff 	lea    -0x1c34(%rbp),%rax
   1343c:	48 89 85 e8 e9 ff ff 	mov    %rax,-0x1618(%rbp)
   13443:	48 8d 05 da a7 00 00 	lea    0xa7da(%rip),%rax        # 1dc24 <g_291>
   1344a:	48 89 85 f0 e9 ff ff 	mov    %rax,-0x1610(%rbp)
   13451:	48 c7 85 f8 e9 ff ff 	movq   $0x0,-0x1608(%rbp)
   13458:	00 00 00 00 
   1345c:	48 8d 05 bd a7 00 00 	lea    0xa7bd(%rip),%rax        # 1dc20 <g_272>
   13463:	48 89 85 00 ea ff ff 	mov    %rax,-0x1600(%rbp)
   1346a:	48 8d 85 cc e3 ff ff 	lea    -0x1c34(%rbp),%rax
   13471:	48 89 85 08 ea ff ff 	mov    %rax,-0x15f8(%rbp)
   13478:	48 c7 85 10 ea ff ff 	movq   $0x0,-0x15f0(%rbp)
   1347f:	00 00 00 00 
   13483:	48 8d 05 9a a7 00 00 	lea    0xa79a(%rip),%rax        # 1dc24 <g_291>
   1348a:	48 89 85 18 ea ff ff 	mov    %rax,-0x15e8(%rbp)
   13491:	48 8d 05 8c a7 00 00 	lea    0xa78c(%rip),%rax        # 1dc24 <g_291>
   13498:	48 89 85 20 ea ff ff 	mov    %rax,-0x15e0(%rbp)
   1349f:	48 8d 85 cc e3 ff ff 	lea    -0x1c34(%rbp),%rax
   134a6:	48 89 85 28 ea ff ff 	mov    %rax,-0x15d8(%rbp)
   134ad:	48 8d 05 70 a7 00 00 	lea    0xa770(%rip),%rax        # 1dc24 <g_291>
   134b4:	48 89 85 30 ea ff ff 	mov    %rax,-0x15d0(%rbp)
   134bb:	48 8d 05 62 a7 00 00 	lea    0xa762(%rip),%rax        # 1dc24 <g_291>
   134c2:	48 89 85 38 ea ff ff 	mov    %rax,-0x15c8(%rbp)
   134c9:	48 c7 85 40 ea ff ff 	movq   $0x0,-0x15c0(%rbp)
   134d0:	00 00 00 00 
   134d4:	48 8d 85 cc e3 ff ff 	lea    -0x1c34(%rbp),%rax
   134db:	48 89 85 48 ea ff ff 	mov    %rax,-0x15b8(%rbp)
   134e2:	48 8d 05 3b a7 00 00 	lea    0xa73b(%rip),%rax        # 1dc24 <g_291>
   134e9:	48 89 85 50 ea ff ff 	mov    %rax,-0x15b0(%rbp)
   134f0:	48 8d 05 2d a7 00 00 	lea    0xa72d(%rip),%rax        # 1dc24 <g_291>
   134f7:	48 89 85 58 ea ff ff 	mov    %rax,-0x15a8(%rbp)
   134fe:	48 8d 85 cc e3 ff ff 	lea    -0x1c34(%rbp),%rax
   13505:	48 89 85 60 ea ff ff 	mov    %rax,-0x15a0(%rbp)
   1350c:	48 8d 85 cc e3 ff ff 	lea    -0x1c34(%rbp),%rax
   13513:	48 89 85 68 ea ff ff 	mov    %rax,-0x1598(%rbp)
   1351a:	48 8d 05 03 a7 00 00 	lea    0xa703(%rip),%rax        # 1dc24 <g_291>
   13521:	48 89 85 70 ea ff ff 	mov    %rax,-0x1590(%rbp)
   13528:	48 8d 85 cc e3 ff ff 	lea    -0x1c34(%rbp),%rax
   1352f:	48 89 85 78 ea ff ff 	mov    %rax,-0x1588(%rbp)
   13536:	48 8d 05 e7 a6 00 00 	lea    0xa6e7(%rip),%rax        # 1dc24 <g_291>
   1353d:	48 89 85 80 ea ff ff 	mov    %rax,-0x1580(%rbp)
   13544:	48 8d 05 d5 a6 00 00 	lea    0xa6d5(%rip),%rax        # 1dc20 <g_272>
   1354b:	48 89 85 88 ea ff ff 	mov    %rax,-0x1578(%rbp)
   13552:	48 8d 05 c7 a6 00 00 	lea    0xa6c7(%rip),%rax        # 1dc20 <g_272>
   13559:	48 89 85 90 ea ff ff 	mov    %rax,-0x1570(%rbp)
   13560:	48 8d 85 cc e3 ff ff 	lea    -0x1c34(%rbp),%rax
   13567:	48 89 85 98 ea ff ff 	mov    %rax,-0x1568(%rbp)
   1356e:	48 8d 05 af a6 00 00 	lea    0xa6af(%rip),%rax        # 1dc24 <g_291>
   13575:	48 89 85 a0 ea ff ff 	mov    %rax,-0x1560(%rbp)
   1357c:	48 8d 05 a1 a6 00 00 	lea    0xa6a1(%rip),%rax        # 1dc24 <g_291>
   13583:	48 89 85 a8 ea ff ff 	mov    %rax,-0x1558(%rbp)
   1358a:	48 c7 85 b0 ea ff ff 	movq   $0x0,-0x1550(%rbp)
   13591:	00 00 00 00 
   13595:	48 c7 85 b8 ea ff ff 	movq   $0x0,-0x1548(%rbp)
   1359c:	00 00 00 00 
   135a0:	48 8d 05 7d a6 00 00 	lea    0xa67d(%rip),%rax        # 1dc24 <g_291>
   135a7:	48 89 85 c0 ea ff ff 	mov    %rax,-0x1540(%rbp)
   135ae:	48 8d 05 6f a6 00 00 	lea    0xa66f(%rip),%rax        # 1dc24 <g_291>
   135b5:	48 89 85 c8 ea ff ff 	mov    %rax,-0x1538(%rbp)
   135bc:	48 8d 85 cc e3 ff ff 	lea    -0x1c34(%rbp),%rax
   135c3:	48 89 85 d0 ea ff ff 	mov    %rax,-0x1530(%rbp)
   135ca:	48 8d 05 53 a6 00 00 	lea    0xa653(%rip),%rax        # 1dc24 <g_291>
   135d1:	48 89 85 d8 ea ff ff 	mov    %rax,-0x1528(%rbp)
   135d8:	48 8d 05 45 a6 00 00 	lea    0xa645(%rip),%rax        # 1dc24 <g_291>
   135df:	48 89 85 e0 ea ff ff 	mov    %rax,-0x1520(%rbp)
   135e6:	48 8d 05 37 a6 00 00 	lea    0xa637(%rip),%rax        # 1dc24 <g_291>
   135ed:	48 89 85 e8 ea ff ff 	mov    %rax,-0x1518(%rbp)
   135f4:	48 8d 05 29 a6 00 00 	lea    0xa629(%rip),%rax        # 1dc24 <g_291>
   135fb:	48 89 85 f0 ea ff ff 	mov    %rax,-0x1510(%rbp)
   13602:	48 8d 05 1b a6 00 00 	lea    0xa61b(%rip),%rax        # 1dc24 <g_291>
   13609:	48 89 85 f8 ea ff ff 	mov    %rax,-0x1508(%rbp)
   13610:	48 8d 05 0d a6 00 00 	lea    0xa60d(%rip),%rax        # 1dc24 <g_291>
   13617:	48 89 85 00 eb ff ff 	mov    %rax,-0x1500(%rbp)
   1361e:	48 c7 85 08 eb ff ff 	movq   $0x0,-0x14f8(%rbp)
   13625:	00 00 00 00 
   13629:	48 8d 05 f0 a5 00 00 	lea    0xa5f0(%rip),%rax        # 1dc20 <g_272>
   13630:	48 89 85 10 eb ff ff 	mov    %rax,-0x14f0(%rbp)
   13637:	48 8d 85 cc e3 ff ff 	lea    -0x1c34(%rbp),%rax
   1363e:	48 89 85 18 eb ff ff 	mov    %rax,-0x14e8(%rbp)
   13645:	48 8d 85 cc e3 ff ff 	lea    -0x1c34(%rbp),%rax
   1364c:	48 89 85 20 eb ff ff 	mov    %rax,-0x14e0(%rbp)
   13653:	48 8d 85 cc e3 ff ff 	lea    -0x1c34(%rbp),%rax
   1365a:	48 89 85 28 eb ff ff 	mov    %rax,-0x14d8(%rbp)
   13661:	48 8d 05 bc a5 00 00 	lea    0xa5bc(%rip),%rax        # 1dc24 <g_291>
   13668:	48 89 85 30 eb ff ff 	mov    %rax,-0x14d0(%rbp)
   1366f:	48 8d 05 aa a5 00 00 	lea    0xa5aa(%rip),%rax        # 1dc20 <g_272>
   13676:	48 89 85 38 eb ff ff 	mov    %rax,-0x14c8(%rbp)
   1367d:	48 8d 85 cc e3 ff ff 	lea    -0x1c34(%rbp),%rax
   13684:	48 89 85 40 eb ff ff 	mov    %rax,-0x14c0(%rbp)
   1368b:	48 8d 05 8e a5 00 00 	lea    0xa58e(%rip),%rax        # 1dc20 <g_272>
   13692:	48 89 85 48 eb ff ff 	mov    %rax,-0x14b8(%rbp)
   13699:	48 8d 05 84 a5 00 00 	lea    0xa584(%rip),%rax        # 1dc24 <g_291>
   136a0:	48 89 85 50 eb ff ff 	mov    %rax,-0x14b0(%rbp)
   136a7:	48 8d 85 cc e3 ff ff 	lea    -0x1c34(%rbp),%rax
   136ae:	48 89 85 58 eb ff ff 	mov    %rax,-0x14a8(%rbp)
   136b5:	48 8d 85 cc e3 ff ff 	lea    -0x1c34(%rbp),%rax
   136bc:	48 89 85 60 eb ff ff 	mov    %rax,-0x14a0(%rbp)
   136c3:	48 8d 05 5a a5 00 00 	lea    0xa55a(%rip),%rax        # 1dc24 <g_291>
   136ca:	48 89 85 68 eb ff ff 	mov    %rax,-0x1498(%rbp)
   136d1:	48 8d 85 50 e4 ff ff 	lea    -0x1bb0(%rbp),%rax
   136d8:	48 89 85 a0 e5 ff ff 	mov    %rax,-0x1a60(%rbp)
   136df:	c7 85 e8 e3 ff ff a5 	movl   $0x121299a5,-0x1c18(%rbp)
   136e6:	99 12 12 
   136e9:	48 8b 85 68 e5 ff ff 	mov    -0x1a98(%rbp),%rax
   136f0:	48 8d 95 d0 e3 ff ff 	lea    -0x1c30(%rbp),%rdx
   136f7:	48 89 10             	mov    %rdx,(%rax)
   136fa:	48 8b 05 9f 7c 00 00 	mov    0x7c9f(%rip),%rax        # 1b3a0 <g_209>
   13701:	8b 00                	mov    (%rax),%eax
   13703:	89 85 d0 e3 ff ff    	mov    %eax,-0x1c30(%rbp)
   13709:	48 8b 05 58 81 00 00 	mov    0x8158(%rip),%rax        # 1b868 <g_517>
   13710:	48 8b 00             	mov    (%rax),%rax
   13713:	48 8b 00             	mov    (%rax),%rax
   13716:	48 8b 95 70 e4 ff ff 	mov    -0x1b90(%rbp),%rdx
   1371d:	48 8b 85 70 e4 ff ff 	mov    -0x1b90(%rbp),%rax
   13724:	8b 12                	mov    (%rdx),%edx
   13726:	89 10                	mov    %edx,(%rax)
   13728:	66 c7 85 be e3 ff ff 	movw   $0x0,-0x1c42(%rbp)
   1372f:	00 00 
   13731:	e9 09 07 00 00       	jmpq   13e3f <func_49+0x2a18>
   13736:	c7 85 10 e4 ff ff 2d 	movl   $0x6253f52d,-0x1bf0(%rbp)
   1373d:	f5 53 62 
   13740:	c7 85 14 e4 ff ff 49 	movl   $0xa8f96049,-0x1bec(%rbp)
   13747:	60 f9 a8 
   1374a:	c7 85 18 e4 ff ff 03 	movl   $0x3,-0x1be8(%rbp)
   13751:	00 00 00 
   13754:	48 8d 85 70 e4 ff ff 	lea    -0x1b90(%rbp),%rax
   1375b:	48 89 85 a8 e5 ff ff 	mov    %rax,-0x1a58(%rbp)
   13762:	48 8d 85 be e3 ff ff 	lea    -0x1c42(%rbp),%rax
   13769:	48 89 85 b0 e5 ff ff 	mov    %rax,-0x1a50(%rbp)
   13770:	c7 85 1c e4 ff ff 04 	movl   $0x39a98004,-0x1be4(%rbp)
   13777:	80 a9 39 
   1377a:	8b 05 90 a4 00 00    	mov    0xa490(%rip),%eax        # 1dc10 <g_79>
   13780:	85 c0                	test   %eax,%eax
   13782:	74 05                	je     13789 <func_49+0x2362>
   13784:	e9 2b fb ff ff       	jmpq   132b4 <func_49+0x1e8d>
   13789:	c6 05 4f 69 00 00 00 	movb   $0x0,0x694f(%rip)        # 1a0df <g_290>
   13790:	e9 56 02 00 00       	jmpq   139eb <func_49+0x25c4>
   13795:	48 8d 05 50 6a 00 00 	lea    0x6a50(%rip),%rax        # 1a1ec <g_378+0xec>
   1379c:	48 89 85 d0 e6 ff ff 	mov    %rax,-0x1930(%rbp)
   137a3:	48 8d 05 35 69 00 00 	lea    0x6935(%rip),%rax        # 1a0df <g_290>
   137aa:	48 89 85 d8 e6 ff ff 	mov    %rax,-0x1928(%rbp)
   137b1:	48 8d 05 34 6a 00 00 	lea    0x6a34(%rip),%rax        # 1a1ec <g_378+0xec>
   137b8:	48 89 85 e0 e6 ff ff 	mov    %rax,-0x1920(%rbp)
   137bf:	48 8d 05 26 6a 00 00 	lea    0x6a26(%rip),%rax        # 1a1ec <g_378+0xec>
   137c6:	48 89 85 e8 e6 ff ff 	mov    %rax,-0x1918(%rbp)
   137cd:	48 8d 05 0b 69 00 00 	lea    0x690b(%rip),%rax        # 1a0df <g_290>
   137d4:	48 89 85 f0 e6 ff ff 	mov    %rax,-0x1910(%rbp)
   137db:	48 8d 05 0a 6a 00 00 	lea    0x6a0a(%rip),%rax        # 1a1ec <g_378+0xec>
   137e2:	48 89 85 f8 e6 ff ff 	mov    %rax,-0x1908(%rbp)
   137e9:	48 8d 05 fc 69 00 00 	lea    0x69fc(%rip),%rax        # 1a1ec <g_378+0xec>
   137f0:	48 89 85 00 e7 ff ff 	mov    %rax,-0x1900(%rbp)
   137f7:	48 8d 05 e1 68 00 00 	lea    0x68e1(%rip),%rax        # 1a0df <g_290>
   137fe:	48 89 85 08 e7 ff ff 	mov    %rax,-0x18f8(%rbp)
   13805:	48 8b 05 04 7c 00 00 	mov    0x7c04(%rip),%rax        # 1b410 <g_431>
   1380c:	8b 00                	mov    (%rax),%eax
   1380e:	85 c0                	test   %eax,%eax
   13810:	0f 85 e6 01 00 00    	jne    139fc <func_49+0x25d5>
   13816:	8b 1d 74 68 00 00    	mov    0x6874(%rip),%ebx        # 1a090 <g_99>
   1381c:	0f b6 05 e5 69 00 00 	movzbl 0x69e5(%rip),%eax        # 1a208 <g_580>
   13823:	83 e8 01             	sub    $0x1,%eax
   13826:	88 05 dc 69 00 00    	mov    %al,0x69dc(%rip)        # 1a208 <g_580>
   1382c:	8b 85 98 e3 ff ff    	mov    -0x1c68(%rbp),%eax
   13832:	0f b6 d0             	movzbl %al,%edx
   13835:	0f b6 05 b0 69 00 00 	movzbl 0x69b0(%rip),%eax        # 1a1ec <g_378+0xec>
   1383c:	8d 48 01             	lea    0x1(%rax),%ecx
   1383f:	88 0d a7 69 00 00    	mov    %cl,0x69a7(%rip)        # 1a1ec <g_378+0xec>
   13845:	0f b6 c0             	movzbl %al,%eax
   13848:	89 d6                	mov    %edx,%esi
   1384a:	89 c7                	mov    %eax,%edi
   1384c:	e8 09 63 ff ff       	callq  9b5a <safe_add_func_uint8_t_u_u>
   13851:	44 0f b6 f0          	movzbl %al,%r14d
   13855:	0f b7 05 7a 68 00 00 	movzwl 0x687a(%rip),%eax        # 1a0d6 <g_172+0x6>
   1385c:	44 0f b7 f8          	movzwl %ax,%r15d
   13860:	44 0f b7 a5 9c e3 ff 	movzwl -0x1c64(%rbp),%r12d
   13867:	ff 
   13868:	44 8b ad 94 ee ff ff 	mov    -0x116c(%rbp),%r13d
   1386f:	8b 05 9b a3 00 00    	mov    0xa39b(%rip),%eax        # 1dc10 <g_79>
   13875:	48 63 d0             	movslq %eax,%rdx
   13878:	48 8b 85 20 e4 ff ff 	mov    -0x1be0(%rbp),%rax
   1387f:	66 c7 00 3d 87       	movw   $0x873d,(%rax)
   13884:	48 8b 85 a8 e5 ff ff 	mov    -0x1a58(%rbp),%rax
   1388b:	48 8b 00             	mov    (%rax),%rax
   1388e:	8b 08                	mov    (%rax),%ecx
   13890:	8b 05 fa 67 00 00    	mov    0x67fa(%rip),%eax        # 1a090 <g_99>
   13896:	3d 3d 87 00 00       	cmp    $0x873d,%eax
   1389b:	0f 95 c0             	setne  %al
   1389e:	0f b6 c0             	movzbl %al,%eax
   138a1:	39 c1                	cmp    %eax,%ecx
   138a3:	75 0a                	jne    138af <func_49+0x2488>
   138a5:	66 83 bd 9c e3 ff ff 	cmpw   $0x0,-0x1c64(%rbp)
   138ac:	00 
   138ad:	74 07                	je     138b6 <func_49+0x248f>
   138af:	b8 01 00 00 00       	mov    $0x1,%eax
   138b4:	eb 05                	jmp    138bb <func_49+0x2494>
   138b6:	b8 00 00 00 00       	mov    $0x0,%eax
   138bb:	48 98                	cltq   
   138bd:	48 89 d6             	mov    %rdx,%rsi
   138c0:	48 89 c7             	mov    %rax,%rdi
   138c3:	e8 ec 60 ff ff       	callq  99b4 <safe_mod_func_int64_t_s_s>
   138c8:	44 89 ee             	mov    %r13d,%esi
   138cb:	bf 00 00 00 00       	mov    $0x0,%edi
   138d0:	e8 60 5a ff ff       	callq  9335 <safe_rshift_func_int8_t_s_s>
   138d5:	0f be c0             	movsbl %al,%eax
   138d8:	44 89 e6             	mov    %r12d,%esi
   138db:	89 c7                	mov    %eax,%edi
   138dd:	e8 d6 65 ff ff       	callq  9eb8 <safe_add_func_uint32_t_u_u>
   138e2:	0f b6 15 13 69 00 00 	movzbl 0x6913(%rip),%edx        # 1a1fc <g_391>
   138e9:	0f be d2             	movsbl %dl,%edx
   138ec:	21 d0                	and    %edx,%eax
   138ee:	89 85 d0 e3 ff ff    	mov    %eax,-0x1c30(%rbp)
   138f4:	8b 85 d0 e3 ff ff    	mov    -0x1c30(%rbp),%eax
   138fa:	44 21 f8             	and    %r15d,%eax
   138fd:	89 85 fc f1 ff ff    	mov    %eax,-0xe04(%rbp)
   13903:	8b 85 fc f1 ff ff    	mov    -0xe04(%rbp),%eax
   13909:	3d 8e 00 00 00       	cmp    $0x8e,%eax
   1390e:	0f 9f c0             	setg   %al
   13911:	0f b6 c0             	movzbl %al,%eax
   13914:	be 02 00 00 00       	mov    $0x2,%esi
   13919:	89 c7                	mov    %eax,%edi
   1391b:	e8 df 5d ff ff       	callq  96ff <safe_div_func_int32_t_s_s>
   13920:	89 c2                	mov    %eax,%edx
   13922:	8b 85 98 e3 ff ff    	mov    -0x1c68(%rbp),%eax
   13928:	31 d0                	xor    %edx,%eax
   1392a:	44 0f bf e0          	movswl %ax,%r12d
   1392e:	8b 85 98 e3 ff ff    	mov    -0x1c68(%rbp),%eax
   13934:	98                   	cwtl   
   13935:	be 0d 00 00 00       	mov    $0xd,%esi
   1393a:	89 c7                	mov    %eax,%edi
   1393c:	e8 a0 5b ff ff       	callq  94e1 <safe_lshift_func_int16_t_s_u>
   13941:	0f bf d0             	movswl %ax,%edx
   13944:	48 8d 85 70 e4 ff ff 	lea    -0x1b90(%rbp),%rax
   1394b:	48 39 85 a8 e5 ff ff 	cmp    %rax,-0x1a58(%rbp)
   13952:	0f 94 c0             	sete   %al
   13955:	0f b6 c0             	movzbl %al,%eax
   13958:	39 c2                	cmp    %eax,%edx
   1395a:	0f 9f c0             	setg   %al
   1395d:	0f b6 c0             	movzbl %al,%eax
   13960:	44 89 e6             	mov    %r12d,%esi
   13963:	89 c7                	mov    %eax,%edi
   13965:	e8 eb 5a ff ff       	callq  9455 <safe_div_func_int16_t_s_s>
   1396a:	48 83 bd b0 e5 ff ff 	cmpq   $0x0,-0x1a50(%rbp)
   13971:	00 
   13972:	0f 94 c0             	sete   %al
   13975:	0f b6 c0             	movzbl %al,%eax
   13978:	be 66 d3 00 00       	mov    $0xd366,%esi
   1397d:	89 c7                	mov    %eax,%edi
   1397f:	e8 b9 63 ff ff       	callq  9d3d <safe_mul_func_uint16_t_u_u>
   13984:	66 41 39 c6          	cmp    %ax,%r14w
   13988:	72 11                	jb     1399b <func_49+0x2574>
   1398a:	66 83 bd 9c e3 ff ff 	cmpw   $0x0,-0x1c64(%rbp)
   13991:	00 
   13992:	74 07                	je     1399b <func_49+0x2574>
   13994:	b8 01 00 00 00       	mov    $0x1,%eax
   13999:	eb 05                	jmp    139a0 <func_49+0x2579>
   1399b:	b8 00 00 00 00       	mov    $0x0,%eax
   139a0:	98                   	cwtl   
   139a1:	89 de                	mov    %ebx,%esi
   139a3:	89 c7                	mov    %eax,%edi
   139a5:	e8 e8 5a ff ff       	callq  9492 <safe_lshift_func_int16_t_s_s>
   139aa:	66 83 f8 f8          	cmp    $0xfff8,%ax
   139ae:	75 08                	jne    139b8 <func_49+0x2591>
   139b0:	66 83 bd 9c e3 ff ff 	cmpw   $0x0,-0x1c64(%rbp)
   139b7:	00 
   139b8:	48 8b 85 70 e4 ff ff 	mov    -0x1b90(%rbp),%rax
   139bf:	48 8b 95 a0 e4 ff ff 	mov    -0x1b60(%rbp),%rdx
   139c6:	8b 12                	mov    (%rdx),%edx
   139c8:	89 10                	mov    %edx,(%rax)
   139ca:	48 8b 05 97 7e 00 00 	mov    0x7e97(%rip),%rax        # 1b868 <g_517>
   139d1:	48 8b 00             	mov    (%rax),%rax
   139d4:	48 89 85 70 e5 ff ff 	mov    %rax,-0x1a90(%rbp)
   139db:	0f b6 05 fd 66 00 00 	movzbl 0x66fd(%rip),%eax        # 1a0df <g_290>
   139e2:	83 c0 01             	add    $0x1,%eax
   139e5:	88 05 f4 66 00 00    	mov    %al,0x66f4(%rip)        # 1a0df <g_290>
   139eb:	0f b6 05 ed 66 00 00 	movzbl 0x66ed(%rip),%eax        # 1a0df <g_290>
   139f2:	3c 02                	cmp    $0x2,%al
   139f4:	0f 86 9b fd ff ff    	jbe    13795 <func_49+0x236e>
   139fa:	eb 01                	jmp    139fd <func_49+0x25d6>
   139fc:	90                   	nop
   139fd:	c7 05 35 66 00 00 00 	movl   $0x0,0x6635(%rip)        # 1a03c <g_72>
   13a04:	00 00 00 
   13a07:	e9 13 04 00 00       	jmpq   13e1f <func_49+0x29f8>
   13a0c:	66 c7 85 c0 e3 ff ff 	movw   $0x6f2d,-0x1c40(%rbp)
   13a13:	2d 6f 
   13a15:	48 8d 05 7c 66 00 00 	lea    0x667c(%rip),%rax        # 1a098 <g_136>
   13a1c:	48 89 85 b8 e5 ff ff 	mov    %rax,-0x1a48(%rbp)
   13a23:	48 8d 85 80 e6 ff ff 	lea    -0x1980(%rbp),%rax
   13a2a:	48 83 c0 08          	add    $0x8,%rax
   13a2e:	48 89 85 d0 e6 ff ff 	mov    %rax,-0x1930(%rbp)
   13a35:	48 c7 85 d8 e6 ff ff 	movq   $0x0,-0x1928(%rbp)
   13a3c:	00 00 00 00 
   13a40:	48 c7 85 e0 e6 ff ff 	movq   $0x0,-0x1920(%rbp)
   13a47:	00 00 00 00 
   13a4b:	48 8d 85 80 e6 ff ff 	lea    -0x1980(%rbp),%rax
   13a52:	48 83 c0 08          	add    $0x8,%rax
   13a56:	48 89 85 e8 e6 ff ff 	mov    %rax,-0x1918(%rbp)
   13a5d:	48 8d 85 80 e6 ff ff 	lea    -0x1980(%rbp),%rax
   13a64:	48 83 c0 38          	add    $0x38,%rax
   13a68:	48 89 85 f0 e6 ff ff 	mov    %rax,-0x1910(%rbp)
   13a6f:	48 8d 85 80 e6 ff ff 	lea    -0x1980(%rbp),%rax
   13a76:	48 83 c0 38          	add    $0x38,%rax
   13a7a:	48 89 85 f8 e6 ff ff 	mov    %rax,-0x1908(%rbp)
   13a81:	48 8d 85 80 e6 ff ff 	lea    -0x1980(%rbp),%rax
   13a88:	48 83 c0 08          	add    $0x8,%rax
   13a8c:	48 89 85 00 e7 ff ff 	mov    %rax,-0x1900(%rbp)
   13a93:	48 c7 85 08 e7 ff ff 	movq   $0x0,-0x18f8(%rbp)
   13a9a:	00 00 00 00 
   13a9e:	48 c7 85 10 e7 ff ff 	movq   $0x0,-0x18f0(%rbp)
   13aa5:	00 00 00 00 
   13aa9:	48 8d 85 80 e6 ff ff 	lea    -0x1980(%rbp),%rax
   13ab0:	48 83 c0 08          	add    $0x8,%rax
   13ab4:	48 89 85 18 e7 ff ff 	mov    %rax,-0x18e8(%rbp)
   13abb:	48 8d 85 80 e6 ff ff 	lea    -0x1980(%rbp),%rax
   13ac2:	48 83 c0 38          	add    $0x38,%rax
   13ac6:	48 89 85 20 e7 ff ff 	mov    %rax,-0x18e0(%rbp)
   13acd:	48 8d 85 80 e6 ff ff 	lea    -0x1980(%rbp),%rax
   13ad4:	48 83 c0 38          	add    $0x38,%rax
   13ad8:	48 89 85 28 e7 ff ff 	mov    %rax,-0x18d8(%rbp)
   13adf:	48 8d 85 80 e6 ff ff 	lea    -0x1980(%rbp),%rax
   13ae6:	48 83 c0 08          	add    $0x8,%rax
   13aea:	48 89 85 30 e7 ff ff 	mov    %rax,-0x18d0(%rbp)
   13af1:	48 c7 85 38 e7 ff ff 	movq   $0x0,-0x18c8(%rbp)
   13af8:	00 00 00 00 
   13afc:	48 c7 85 40 e7 ff ff 	movq   $0x0,-0x18c0(%rbp)
   13b03:	00 00 00 00 
   13b07:	48 8d 85 80 e6 ff ff 	lea    -0x1980(%rbp),%rax
   13b0e:	48 83 c0 08          	add    $0x8,%rax
   13b12:	48 89 85 48 e7 ff ff 	mov    %rax,-0x18b8(%rbp)
   13b19:	48 8d 85 80 e6 ff ff 	lea    -0x1980(%rbp),%rax
   13b20:	48 83 c0 38          	add    $0x38,%rax
   13b24:	48 89 85 50 e7 ff ff 	mov    %rax,-0x18b0(%rbp)
   13b2b:	48 8d 85 80 e6 ff ff 	lea    -0x1980(%rbp),%rax
   13b32:	48 83 c0 38          	add    $0x38,%rax
   13b36:	48 89 85 58 e7 ff ff 	mov    %rax,-0x18a8(%rbp)
   13b3d:	48 8d 85 80 e6 ff ff 	lea    -0x1980(%rbp),%rax
   13b44:	48 83 c0 08          	add    $0x8,%rax
   13b48:	48 89 85 60 e7 ff ff 	mov    %rax,-0x18a0(%rbp)
   13b4f:	48 c7 85 68 e7 ff ff 	movq   $0x0,-0x1898(%rbp)
   13b56:	00 00 00 00 
   13b5a:	48 c7 85 70 e7 ff ff 	movq   $0x0,-0x1890(%rbp)
   13b61:	00 00 00 00 
   13b65:	48 8d 85 80 e6 ff ff 	lea    -0x1980(%rbp),%rax
   13b6c:	48 83 c0 08          	add    $0x8,%rax
   13b70:	48 89 85 78 e7 ff ff 	mov    %rax,-0x1888(%rbp)
   13b77:	48 8d 85 80 e6 ff ff 	lea    -0x1980(%rbp),%rax
   13b7e:	48 83 c0 38          	add    $0x38,%rax
   13b82:	48 89 85 80 e7 ff ff 	mov    %rax,-0x1880(%rbp)
   13b89:	48 8d 85 80 e6 ff ff 	lea    -0x1980(%rbp),%rax
   13b90:	48 83 c0 38          	add    $0x38,%rax
   13b94:	48 89 85 88 e7 ff ff 	mov    %rax,-0x1878(%rbp)
   13b9b:	48 8d 85 80 e6 ff ff 	lea    -0x1980(%rbp),%rax
   13ba2:	48 83 c0 08          	add    $0x8,%rax
   13ba6:	48 89 85 90 e7 ff ff 	mov    %rax,-0x1870(%rbp)
   13bad:	48 8d 85 80 e6 ff ff 	lea    -0x1980(%rbp),%rax
   13bb4:	48 83 c0 08          	add    $0x8,%rax
   13bb8:	48 89 85 98 e7 ff ff 	mov    %rax,-0x1868(%rbp)
   13bbf:	48 8d 85 80 e6 ff ff 	lea    -0x1980(%rbp),%rax
   13bc6:	48 83 c0 08          	add    $0x8,%rax
   13bca:	48 89 85 a0 e7 ff ff 	mov    %rax,-0x1860(%rbp)
   13bd1:	48 8d 05 32 66 00 00 	lea    0x6632(%rip),%rax        # 1a20a <g_705>
   13bd8:	48 89 85 c0 e5 ff ff 	mov    %rax,-0x1a40(%rbp)
   13bdf:	48 8d 85 40 e4 ff ff 	lea    -0x1bc0(%rbp),%rax
   13be6:	48 89 85 c8 e5 ff ff 	mov    %rax,-0x1a38(%rbp)
   13bed:	48 c7 85 d0 e5 ff ff 	movq   $0x0,-0x1a30(%rbp)
   13bf4:	00 00 00 00 
   13bf8:	48 8d 05 a1 a0 00 00 	lea    0xa0a1(%rip),%rax        # 1dca0 <g_563>
   13bff:	48 89 85 d8 e5 ff ff 	mov    %rax,-0x1a28(%rbp)
   13c06:	48 8d 85 70 eb ff ff 	lea    -0x1490(%rbp),%rax
   13c0d:	48 05 a8 01 00 00    	add    $0x1a8,%rax
   13c13:	48 89 85 e0 e5 ff ff 	mov    %rax,-0x1a20(%rbp)
   13c1a:	8b 85 d0 e3 ff ff    	mov    -0x1c30(%rbp),%eax
   13c20:	0f b6 d8             	movzbl %al,%ebx
   13c23:	0f b7 85 c0 e3 ff ff 	movzwl -0x1c40(%rbp),%eax
   13c2a:	0f b6 c0             	movzbl %al,%eax
   13c2d:	be 00 00 00 00       	mov    $0x0,%esi
   13c32:	89 c7                	mov    %eax,%edi
   13c34:	e8 13 60 ff ff       	callq  9c4c <safe_lshift_func_uint8_t_u_u>
   13c39:	0f b6 c0             	movzbl %al,%eax
   13c3c:	89 de                	mov    %ebx,%esi
   13c3e:	89 c7                	mov    %eax,%edi
   13c40:	e8 4e 5f ff ff       	callq  9b93 <safe_mul_func_uint8_t_u_u>
   13c45:	0f b6 05 b0 65 00 00 	movzbl 0x65b0(%rip),%eax        # 1a1fc <g_391>
   13c4c:	66 98                	cbtw   
   13c4e:	0f b7 d8             	movzwl %ax,%ebx
   13c51:	be 01 00 00 00       	mov    $0x1,%esi
   13c56:	bf 03 00 00 00       	mov    $0x3,%edi
   13c5b:	e8 c5 62 ff ff       	callq  9f25 <safe_div_func_uint32_t_u_u>
   13c60:	48 8b 95 a8 e5 ff ff 	mov    -0x1a58(%rbp),%rdx
   13c67:	48 8b 12             	mov    (%rdx),%rdx
   13c6a:	8b 12                	mov    (%rdx),%edx
   13c6c:	21 c2                	and    %eax,%edx
   13c6e:	48 8b 85 80 e4 ff ff 	mov    -0x1b80(%rbp),%rax
   13c75:	31 d0                	xor    %edx,%eax
   13c77:	be ec 66 d1 83       	mov    $0x83d166ec,%esi
   13c7c:	89 c7                	mov    %eax,%edi
   13c7e:	e8 4d 62 ff ff       	callq  9ed0 <safe_sub_func_uint32_t_u_u>
   13c83:	0f bf d0             	movswl %ax,%edx
   13c86:	8b 8d 28 e6 ff ff    	mov    -0x19d8(%rbp),%ecx
   13c8c:	48 8b 85 a8 e5 ff ff 	mov    -0x1a58(%rbp),%rax
   13c93:	48 8b 00             	mov    (%rax),%rax
   13c96:	8b 00                	mov    (%rax),%eax
   13c98:	39 c1                	cmp    %eax,%ecx
   13c9a:	0f 94 c0             	sete   %al
   13c9d:	0f b6 c8             	movzbl %al,%ecx
   13ca0:	48 8b 85 b0 e4 ff ff 	mov    -0x1b50(%rbp),%rax
   13ca7:	66 89 08             	mov    %cx,(%rax)
   13caa:	48 8b 85 b0 e4 ff ff 	mov    -0x1b50(%rbp),%rax
   13cb1:	0f b7 08             	movzwl (%rax),%ecx
   13cb4:	48 8b 85 b8 e5 ff ff 	mov    -0x1a48(%rbp),%rax
   13cbb:	66 89 08             	mov    %cx,(%rax)
   13cbe:	48 8b 85 b8 e5 ff ff 	mov    -0x1a48(%rbp),%rax
   13cc5:	0f b7 00             	movzwl (%rax),%eax
   13cc8:	98                   	cwtl   
   13cc9:	89 d6                	mov    %edx,%esi
   13ccb:	89 c7                	mov    %eax,%edi
   13ccd:	e8 23 57 ff ff       	callq  93f5 <safe_mul_func_int16_t_s_s>
   13cd2:	98                   	cwtl   
   13cd3:	39 85 98 e3 ff ff    	cmp    %eax,-0x1c68(%rbp)
   13cd9:	0f 94 c0             	sete   %al
   13cdc:	0f b6 c0             	movzbl %al,%eax
   13cdf:	89 de                	mov    %ebx,%esi
   13ce1:	89 c7                	mov    %eax,%edi
   13ce3:	e8 37 60 ff ff       	callq  9d1f <safe_sub_func_uint16_t_u_u>
   13ce8:	48 8b 95 40 e4 ff ff 	mov    -0x1bc0(%rbp),%rdx
   13cef:	48 8b 85 c8 e5 ff ff 	mov    -0x1a38(%rbp),%rax
   13cf6:	48 89 10             	mov    %rdx,(%rax)
   13cf9:	0f b7 9d c0 e3 ff ff 	movzwl -0x1c40(%rbp),%ebx
   13d00:	0f b7 05 39 63 00 00 	movzwl 0x6339(%rip),%eax        # 1a040 <g_75>
   13d07:	44 0f be e0          	movsbl %al,%r12d
   13d0b:	0f b6 05 cd 63 00 00 	movzbl 0x63cd(%rip),%eax        # 1a0df <g_290>
   13d12:	8d 50 01             	lea    0x1(%rax),%edx
   13d15:	88 15 c4 63 00 00    	mov    %dl,0x63c4(%rip)        # 1a0df <g_290>
   13d1b:	0f b6 c0             	movzbl %al,%eax
   13d1e:	be 00 00 00 00       	mov    $0x0,%esi
   13d23:	89 c7                	mov    %eax,%edi
   13d25:	e8 69 5e ff ff       	callq  9b93 <safe_mul_func_uint8_t_u_u>
   13d2a:	be 47 00 00 00       	mov    $0x47,%esi
   13d2f:	bf 01 00 00 00       	mov    $0x1,%edi
   13d34:	e8 9b 54 ff ff       	callq  91d4 <safe_add_func_int8_t_s_s>
   13d39:	0f be c0             	movsbl %al,%eax
   13d3c:	89 c6                	mov    %eax,%esi
   13d3e:	bf 7a 00 00 00       	mov    $0x7a,%edi
   13d43:	e8 22 55 ff ff       	callq  926a <safe_div_func_int8_t_s_s>
   13d48:	48 0f be c0          	movsbq %al,%rax
   13d4c:	48 23 85 90 e3 ff ff 	and    -0x1c70(%rbp),%rax
   13d53:	48 85 c0             	test   %rax,%rax
   13d56:	74 07                	je     13d5f <func_49+0x2938>
   13d58:	b8 01 00 00 00       	mov    $0x1,%eax
   13d5d:	eb 05                	jmp    13d64 <func_49+0x293d>
   13d5f:	b8 00 00 00 00       	mov    $0x0,%eax
   13d64:	0f be c0             	movsbl %al,%eax
   13d67:	83 e0 25             	and    $0x25,%eax
   13d6a:	44 89 e6             	mov    %r12d,%esi
   13d6d:	89 c7                	mov    %eax,%edi
   13d6f:	e8 9e 54 ff ff       	callq  9212 <safe_mul_func_int8_t_s_s>
   13d74:	0f be d0             	movsbl %al,%edx
   13d77:	0f b6 05 6e 64 00 00 	movzbl 0x646e(%rip),%eax        # 1a1ec <g_378+0xec>
   13d7e:	0f b6 c0             	movzbl %al,%eax
   13d81:	39 c2                	cmp    %eax,%edx
   13d83:	7d 11                	jge    13d96 <func_49+0x296f>
   13d85:	8b 85 24 e6 ff ff    	mov    -0x19dc(%rbp),%eax
   13d8b:	85 c0                	test   %eax,%eax
   13d8d:	74 07                	je     13d96 <func_49+0x296f>
   13d8f:	b8 01 00 00 00       	mov    $0x1,%eax
   13d94:	eb 05                	jmp    13d9b <func_49+0x2974>
   13d96:	b8 00 00 00 00       	mov    $0x0,%eax
   13d9b:	83 f8 fb             	cmp    $0xfffffffb,%eax
   13d9e:	7d 07                	jge    13da7 <func_49+0x2980>
   13da0:	b8 01 00 00 00       	mov    $0x1,%eax
   13da5:	eb 05                	jmp    13dac <func_49+0x2985>
   13da7:	b8 00 00 00 00       	mov    $0x0,%eax
   13dac:	98                   	cwtl   
   13dad:	89 de                	mov    %ebx,%esi
   13daf:	89 c7                	mov    %eax,%edi
   13db1:	e8 ad 57 ff ff       	callq  9563 <safe_rshift_func_int16_t_s_u>
   13db6:	98                   	cwtl   
   13db7:	89 85 24 e6 ff ff    	mov    %eax,-0x19dc(%rbp)
   13dbd:	8b 85 24 e6 ff ff    	mov    -0x19dc(%rbp),%eax
   13dc3:	89 c2                	mov    %eax,%edx
   13dc5:	48 8b 85 d8 e5 ff ff 	mov    -0x1a28(%rbp),%rax
   13dcc:	88 10                	mov    %dl,(%rax)
   13dce:	48 8b 95 50 e4 ff ff 	mov    -0x1bb0(%rbp),%rdx
   13dd5:	48 8d 85 20 e4 ff ff 	lea    -0x1be0(%rbp),%rax
   13ddc:	48 39 c2             	cmp    %rax,%rdx
   13ddf:	48 8b 85 e0 e5 ff ff 	mov    -0x1a20(%rbp),%rax
   13de6:	48 bb 70 95 2a ab 75 	movabs $0x3038b475ab2a9570,%rbx
   13ded:	b4 38 30 
   13df0:	48 89 18             	mov    %rbx,(%rax)
   13df3:	48 8b 85 e0 e5 ff ff 	mov    -0x1a20(%rbp),%rax
   13dfa:	48 8b 00             	mov    (%rax),%rax
   13dfd:	48 39 85 90 e3 ff ff 	cmp    %rax,-0x1c70(%rbp)
   13e04:	0f 96 c0             	setbe  %al
   13e07:	0f b6 c0             	movzbl %al,%eax
   13e0a:	21 85 e8 e3 ff ff    	and    %eax,-0x1c18(%rbp)
   13e10:	8b 05 26 62 00 00    	mov    0x6226(%rip),%eax        # 1a03c <g_72>
   13e16:	83 c0 01             	add    $0x1,%eax
   13e19:	89 05 1d 62 00 00    	mov    %eax,0x621d(%rip)        # 1a03c <g_72>
   13e1f:	8b 05 17 62 00 00    	mov    0x6217(%rip),%eax        # 1a03c <g_72>
   13e25:	83 f8 02             	cmp    $0x2,%eax
   13e28:	0f 86 de fb ff ff    	jbe    13a0c <func_49+0x25e5>
   13e2e:	0f b7 85 be e3 ff ff 	movzwl -0x1c42(%rbp),%eax
   13e35:	83 c0 01             	add    $0x1,%eax
   13e38:	66 89 85 be e3 ff ff 	mov    %ax,-0x1c42(%rbp)
   13e3f:	0f b7 85 be e3 ff ff 	movzwl -0x1c42(%rbp),%eax
   13e46:	66 83 f8 02          	cmp    $0x2,%ax
   13e4a:	0f 8e e6 f8 ff ff    	jle    13736 <func_49+0x230f>
   13e50:	8b 05 3a 62 00 00    	mov    0x623a(%rip),%eax        # 1a090 <g_99>
   13e56:	83 e8 01             	sub    $0x1,%eax
   13e59:	89 05 31 62 00 00    	mov    %eax,0x6231(%rip)        # 1a090 <g_99>
   13e5f:	8b 05 2b 62 00 00    	mov    0x622b(%rip),%eax        # 1a090 <g_99>
   13e65:	85 c0                	test   %eax,%eax
   13e67:	0f 89 67 f4 ff ff    	jns    132d4 <func_49+0x1ead>
   13e6d:	be 09 00 00 00       	mov    $0x9,%esi
   13e72:	bf d3 ff ff ff       	mov    $0xffffffd3,%edi
   13e77:	e8 58 53 ff ff       	callq  91d4 <safe_add_func_int8_t_s_s>
   13e7c:	48 8b 95 a0 e4 ff ff 	mov    -0x1b60(%rbp),%rdx
   13e83:	8b 12                	mov    (%rdx),%edx
   13e85:	0f be c0             	movsbl %al,%eax
   13e88:	09 c2                	or     %eax,%edx
   13e8a:	48 8b 85 a0 e4 ff ff 	mov    -0x1b60(%rbp),%rax
   13e91:	89 10                	mov    %edx,(%rax)
   13e93:	48 8b 15 ce 79 00 00 	mov    0x79ce(%rip),%rdx        # 1b868 <g_517>
   13e9a:	48 8b 05 bf 81 00 00 	mov    0x81bf(%rip),%rax        # 1c060 <g_766>
   13ea1:	48 8b 12             	mov    (%rdx),%rdx
   13ea4:	48 89 10             	mov    %rdx,(%rax)
   13ea7:	8b 85 94 ee ff ff    	mov    -0x116c(%rbp),%eax
   13ead:	48 8b 5d c8          	mov    -0x38(%rbp),%rbx
   13eb1:	64 48 33 1c 25 28 00 	xor    %fs:0x28,%rbx
   13eb8:	00 00 
   13eba:	74 05                	je     13ec1 <func_49+0x2a9a>
   13ebc:	e8 af 51 ff ff       	callq  9070 <__stack_chk_fail@plt>
   13ec1:	48 81 c4 48 1c 00 00 	add    $0x1c48,%rsp
   13ec8:	5b                   	pop    %rbx
   13ec9:	41 5c                	pop    %r12
   13ecb:	41 5d                	pop    %r13
   13ecd:	41 5e                	pop    %r14
   13ecf:	41 5f                	pop    %r15
   13ed1:	5d                   	pop    %rbp
   13ed2:	c3                   	retq   

0000000000013ed3 <func_56>:
   13ed3:	f3 0f 1e fa          	endbr64 
   13ed7:	55                   	push   %rbp
   13ed8:	48 89 e5             	mov    %rsp,%rbp
   13edb:	41 57                	push   %r15
   13edd:	41 56                	push   %r14
   13edf:	41 55                	push   %r13
   13ee1:	41 54                	push   %r12
   13ee3:	53                   	push   %rbx
   13ee4:	48 81 ec c8 0c 00 00 	sub    $0xcc8,%rsp
   13eeb:	48 89 bd 28 f3 ff ff 	mov    %rdi,-0xcd8(%rbp)
   13ef2:	64 48 8b 04 25 28 00 	mov    %fs:0x28,%rax
   13ef9:	00 00 
   13efb:	48 89 45 c8          	mov    %rax,-0x38(%rbp)
   13eff:	31 c0                	xor    %eax,%eax
   13f01:	48 8d 85 a0 f5 ff ff 	lea    -0xa60(%rbp),%rax
   13f08:	48 83 c0 10          	add    $0x10,%rax
   13f0c:	48 89 85 d8 f3 ff ff 	mov    %rax,-0xc28(%rbp)
   13f13:	c7 85 70 f3 ff ff f7 	movl   $0xfffffff7,-0xc90(%rbp)
   13f1a:	ff ff ff 
   13f1d:	48 c7 85 e0 f3 ff ff 	movq   $0x0,-0xc20(%rbp)
   13f24:	00 00 00 00 
   13f28:	48 8d 85 b0 fc ff ff 	lea    -0x350(%rbp),%rax
   13f2f:	48 8d 15 8a 32 00 00 	lea    0x328a(%rip),%rdx        # 171c0 <g_1624+0x1160>
   13f36:	b9 62 00 00 00       	mov    $0x62,%ecx
   13f3b:	48 89 c7             	mov    %rax,%rdi
   13f3e:	48 89 d6             	mov    %rdx,%rsi
   13f41:	f3 48 a5             	rep movsq %ds:(%rsi),%es:(%rdi)
   13f44:	c7 85 40 f3 ff ff ff 	movl   $0xffffffff,-0xcc0(%rbp)
   13f4b:	ff ff ff 
   13f4e:	48 8d 05 0b 61 00 00 	lea    0x610b(%rip),%rax        # 1a060 <g_97>
   13f55:	48 89 85 e8 f3 ff ff 	mov    %rax,-0xc18(%rbp)
   13f5c:	48 8d 85 b0 f9 ff ff 	lea    -0x650(%rbp),%rax
   13f63:	48 8d 15 76 35 00 00 	lea    0x3576(%rip),%rdx        # 174e0 <g_1624+0x1480>
   13f6a:	b9 30 00 00 00       	mov    $0x30,%ecx
   13f6f:	48 89 c7             	mov    %rax,%rdi
   13f72:	48 89 d6             	mov    %rdx,%rsi
   13f75:	f3 48 a5             	rep movsq %ds:(%rsi),%es:(%rdi)
   13f78:	48 8d 05 49 9c 00 00 	lea    0x9c49(%rip),%rax        # 1dbc8 <g_13>
   13f7f:	48 89 85 98 f3 ff ff 	mov    %rax,-0xc68(%rbp)
   13f86:	48 c7 85 30 f5 ff ff 	movq   $0x0,-0xad0(%rbp)
   13f8d:	00 00 00 00 
   13f91:	48 c7 85 38 f5 ff ff 	movq   $0x0,-0xac8(%rbp)
   13f98:	00 00 00 00 
   13f9c:	c7 85 40 f5 ff ff 00 	movl   $0x0,-0xac0(%rbp)
   13fa3:	00 00 00 
   13fa6:	48 b8 c9 61 21 98 18 	movabs $0xb380c518982161c9,%rax
   13fad:	c5 80 b3 
   13fb0:	48 89 85 a0 f3 ff ff 	mov    %rax,-0xc60(%rbp)
   13fb7:	48 8d 05 da 60 00 00 	lea    0x60da(%rip),%rax        # 1a098 <g_136>
   13fbe:	48 89 85 f0 f3 ff ff 	mov    %rax,-0xc10(%rbp)
   13fc5:	48 8d 05 d4 73 00 00 	lea    0x73d4(%rip),%rax        # 1b3a0 <g_209>
   13fcc:	48 89 85 a8 f3 ff ff 	mov    %rax,-0xc58(%rbp)
   13fd3:	48 8d 85 40 f8 ff ff 	lea    -0x7c0(%rbp),%rax
   13fda:	48 8d 15 ff 70 00 00 	lea    0x70ff(%rip),%rdx        # 1b0e0 <g_2296+0xe40>
   13fe1:	b9 2d 00 00 00       	mov    $0x2d,%ecx
   13fe6:	48 89 c7             	mov    %rax,%rdi
   13fe9:	48 89 d6             	mov    %rdx,%rsi
   13fec:	f3 48 a5             	rep movsq %ds:(%rsi),%es:(%rdi)
   13fef:	48 c7 85 b0 f3 ff ff 	movq   $0x0,-0xc50(%rbp)
   13ff6:	00 00 00 00 
   13ffa:	48 c7 85 b8 f3 ff ff 	movq   $0x0,-0xc48(%rbp)
   14001:	00 00 00 00 
   14005:	48 8d 85 b8 f3 ff ff 	lea    -0xc48(%rbp),%rax
   1400c:	48 89 85 c0 f3 ff ff 	mov    %rax,-0xc40(%rbp)
   14013:	48 8d 85 a0 f3 ff ff 	lea    -0xc60(%rbp),%rax
   1401a:	48 89 85 f8 f3 ff ff 	mov    %rax,-0xc08(%rbp)
   14021:	c7 85 74 f3 ff ff 7e 	movl   $0x3d42a87e,-0xc8c(%rbp)
   14028:	a8 42 3d 
   1402b:	48 c7 85 00 f4 ff ff 	movq   $0x0,-0xc00(%rbp)
   14032:	00 00 00 00 
   14036:	48 8d 05 6b 73 00 00 	lea    0x736b(%rip),%rax        # 1b3a8 <g_208>
   1403d:	48 89 85 08 f4 ff ff 	mov    %rax,-0xbf8(%rbp)
   14044:	48 8d 85 b0 f3 ff ff 	lea    -0xc50(%rbp),%rax
   1404b:	48 89 85 c8 f3 ff ff 	mov    %rax,-0xc38(%rbp)
   14052:	48 8d 85 c8 f3 ff ff 	lea    -0xc38(%rbp),%rax
   14059:	48 89 85 d0 f5 ff ff 	mov    %rax,-0xa30(%rbp)
   14060:	48 8d 85 c8 f3 ff ff 	lea    -0xc38(%rbp),%rax
   14067:	48 89 85 d8 f5 ff ff 	mov    %rax,-0xa28(%rbp)
   1406e:	48 8d 85 c8 f3 ff ff 	lea    -0xc38(%rbp),%rax
   14075:	48 89 85 e0 f5 ff ff 	mov    %rax,-0xa20(%rbp)
   1407c:	48 8d 85 c8 f3 ff ff 	lea    -0xc38(%rbp),%rax
   14083:	48 89 85 e8 f5 ff ff 	mov    %rax,-0xa18(%rbp)
   1408a:	48 8d 85 c8 f3 ff ff 	lea    -0xc38(%rbp),%rax
   14091:	48 89 85 f0 f5 ff ff 	mov    %rax,-0xa10(%rbp)
   14098:	48 8d 85 c8 f3 ff ff 	lea    -0xc38(%rbp),%rax
   1409f:	48 89 85 f8 f5 ff ff 	mov    %rax,-0xa08(%rbp)
   140a6:	48 8d 85 c8 f3 ff ff 	lea    -0xc38(%rbp),%rax
   140ad:	48 89 85 00 f6 ff ff 	mov    %rax,-0xa00(%rbp)
   140b4:	c7 85 58 f3 ff ff 00 	movl   $0x0,-0xca8(%rbp)
   140bb:	00 00 00 
   140be:	eb 1e                	jmp    140de <func_56+0x20b>
   140c0:	8b 85 58 f3 ff ff    	mov    -0xca8(%rbp),%eax
   140c6:	48 98                	cltq   
   140c8:	48 8d 15 69 5f 00 00 	lea    0x5f69(%rip),%rdx        # 1a038 <g_9>
   140cf:	48 89 94 c5 a0 f5 ff 	mov    %rdx,-0xa60(%rbp,%rax,8)
   140d6:	ff 
   140d7:	83 85 58 f3 ff ff 01 	addl   $0x1,-0xca8(%rbp)
   140de:	83 bd 58 f3 ff ff 04 	cmpl   $0x4,-0xca8(%rbp)
   140e5:	7e d9                	jle    140c0 <func_56+0x1ed>
   140e7:	8b 85 8c fa ff ff    	mov    -0x574(%rbp),%eax
   140ed:	48 63 d8             	movslq %eax,%rbx
   140f0:	83 bd 70 f3 ff ff 00 	cmpl   $0x0,-0xc90(%rbp)
   140f7:	74 11                	je     1410a <func_56+0x237>
   140f9:	8b 05 3d 5f 00 00    	mov    0x5f3d(%rip),%eax        # 1a03c <g_72>
   140ff:	85 c0                	test   %eax,%eax
   14101:	74 07                	je     1410a <func_56+0x237>
   14103:	b8 01 00 00 00       	mov    $0x1,%eax
   14108:	eb 05                	jmp    1410f <func_56+0x23c>
   1410a:	b8 00 00 00 00       	mov    $0x0,%eax
   1410f:	89 85 70 f3 ff ff    	mov    %eax,-0xc90(%rbp)
   14115:	48 8b 95 b0 f5 ff ff 	mov    -0xa50(%rbp),%rdx
   1411c:	48 8b 85 d8 f3 ff ff 	mov    -0xc28(%rbp),%rax
   14123:	48 89 10             	mov    %rdx,(%rax)
   14126:	48 8b 85 d8 f3 ff ff 	mov    -0xc28(%rbp),%rax
   1412d:	48 8b 00             	mov    (%rax),%rax
   14130:	48 8d 15 01 5f 00 00 	lea    0x5f01(%rip),%rdx        # 1a038 <g_9>
   14137:	48 39 d0             	cmp    %rdx,%rax
   1413a:	41 0f 94 c4          	sete   %r12b
   1413e:	c7 85 40 f3 ff ff b4 	movl   $0xb4,-0xcc0(%rbp)
   14145:	00 00 00 
   14148:	0f b6 05 e9 5e 00 00 	movzbl 0x5ee9(%rip),%eax        # 1a038 <g_9>
   1414f:	0f b6 c0             	movzbl %al,%eax
   14152:	be b4 00 00 00       	mov    $0xb4,%esi
   14157:	89 c7                	mov    %eax,%edi
   14159:	e8 7d 5a ff ff       	callq  9bdb <safe_div_func_uint8_t_u_u>
   1415e:	8b 85 70 f3 ff ff    	mov    -0xc90(%rbp),%eax
   14164:	89 85 c4 fe ff ff    	mov    %eax,-0x13c(%rbp)
   1416a:	8b 95 c4 fe ff ff    	mov    -0x13c(%rbp),%edx
   14170:	8b 85 70 f3 ff ff    	mov    -0xc90(%rbp),%eax
   14176:	89 d6                	mov    %edx,%esi
   14178:	89 c7                	mov    %eax,%edi
   1417a:	e8 37 54 ff ff       	callq  95b6 <safe_add_func_int32_t_s_s>
   1417f:	48 8b 85 28 f3 ff ff 	mov    -0xcd8(%rbp),%rax
   14186:	8b 00                	mov    (%rax),%eax
   14188:	85 c0                	test   %eax,%eax
   1418a:	be ff ff ff ff       	mov    $0xffffffff,%esi
   1418f:	bf 00 00 00 00       	mov    $0x0,%edi
   14194:	e8 64 5d ff ff       	callq  9efd <safe_mod_func_uint32_t_u_u>
   14199:	89 c2                	mov    %eax,%edx
   1419b:	48 8b 05 8e 5e 00 00 	mov    0x5e8e(%rip),%rax        # 1a030 <g_5>
   141a2:	48 39 c2             	cmp    %rax,%rdx
   141a5:	0f 96 c0             	setbe  %al
   141a8:	44 31 e0             	xor    %r12d,%eax
   141ab:	0f b6 d0             	movzbl %al,%edx
   141ae:	48 8b 85 e8 f3 ff ff 	mov    -0xc18(%rbp),%rax
   141b5:	48 89 10             	mov    %rdx,(%rax)
   141b8:	48 8b 85 e8 f3 ff ff 	mov    -0xc18(%rbp),%rax
   141bf:	48 8b 00             	mov    (%rax),%rax
   141c2:	48 89 de             	mov    %rbx,%rsi
   141c5:	48 89 c7             	mov    %rax,%rdi
   141c8:	e8 2a 58 ff ff       	callq  99f7 <safe_div_func_int64_t_s_s>
   141cd:	8b 15 bd 5e 00 00    	mov    0x5ebd(%rip),%edx        # 1a090 <g_99>
   141d3:	8b 05 bb 5e 00 00    	mov    0x5ebb(%rip),%eax        # 1a094 <g_100>
   141d9:	39 c2                	cmp    %eax,%edx
   141db:	0f 8d 9f 15 00 00    	jge    15780 <func_56+0x18ad>
   141e1:	c7 85 44 f3 ff ff 00 	movl   $0x0,-0xcbc(%rbp)
   141e8:	00 00 00 
   141eb:	c7 85 48 f3 ff ff b0 	movl   $0xc63a23b0,-0xcb8(%rbp)
   141f2:	23 3a c6 
   141f5:	48 8d 85 a0 f5 ff ff 	lea    -0xa60(%rbp),%rax
   141fc:	48 83 c0 10          	add    $0x10,%rax
   14200:	48 89 85 10 f4 ff ff 	mov    %rax,-0xbf0(%rbp)
   14207:	48 8d 05 8a 5e 00 00 	lea    0x5e8a(%rip),%rax        # 1a098 <g_136>
   1420e:	48 89 85 18 f4 ff ff 	mov    %rax,-0xbe8(%rbp)
   14215:	48 8d 85 44 f3 ff ff 	lea    -0xcbc(%rbp),%rax
   1421c:	48 89 85 20 f4 ff ff 	mov    %rax,-0xbe0(%rbp)
   14223:	48 8d 85 00 f7 ff ff 	lea    -0x900(%rbp),%rax
   1422a:	48 8d 15 2f 70 00 00 	lea    0x702f(%rip),%rdx        # 1b260 <g_2296+0xfc0>
   14231:	b9 28 00 00 00       	mov    $0x28,%ecx
   14236:	48 89 c7             	mov    %rax,%rdi
   14239:	48 89 d6             	mov    %rdx,%rsi
   1423c:	f3 48 a5             	rep movsq %ds:(%rsi),%es:(%rdi)
   1423f:	c7 85 78 f3 ff ff e6 	movl   $0x109721e6,-0xc88(%rbp)
   14246:	21 97 10 
   14249:	48 8d 85 30 fb ff ff 	lea    -0x4d0(%rbp),%rax
   14250:	48 8d 15 09 34 00 00 	lea    0x3409(%rip),%rdx        # 17660 <g_1624+0x1600>
   14257:	b9 30 00 00 00       	mov    $0x30,%ecx
   1425c:	48 89 c7             	mov    %rax,%rdi
   1425f:	48 89 d6             	mov    %rdx,%rsi
   14262:	f3 48 a5             	rep movsq %ds:(%rsi),%es:(%rdi)
   14265:	8b 05 25 5e 00 00    	mov    0x5e25(%rip),%eax        # 1a090 <g_99>
   1426b:	85 c0                	test   %eax,%eax
   1426d:	0f 84 20 03 00 00    	je     14593 <func_56+0x6c0>
   14273:	48 c7 85 10 f5 ff ff 	movq   $0xfffffffffffffffa,-0xaf0(%rbp)
   1427a:	fa ff ff ff 
   1427e:	48 8d 05 b7 5d 00 00 	lea    0x5db7(%rip),%rax        # 1a03c <g_72>
   14285:	48 89 85 18 f5 ff ff 	mov    %rax,-0xae8(%rbp)
   1428c:	48 c7 85 20 f5 ff ff 	movq   $0x0,-0xae0(%rbp)
   14293:	00 00 00 00 
   14297:	c7 85 10 f6 ff ff 04 	movl   $0x4,-0x9f0(%rbp)
   1429e:	00 00 00 
   142a1:	c7 85 14 f6 ff ff fa 	movl   $0xf20acefa,-0x9ec(%rbp)
   142a8:	ce 0a f2 
   142ab:	c7 85 18 f6 ff ff 04 	movl   $0x4,-0x9e8(%rbp)
   142b2:	00 00 00 
   142b5:	c7 85 1c f6 ff ff 04 	movl   $0x4,-0x9e4(%rbp)
   142bc:	00 00 00 
   142bf:	c7 85 20 f6 ff ff fa 	movl   $0xf20acefa,-0x9e0(%rbp)
   142c6:	ce 0a f2 
   142c9:	c7 85 24 f6 ff ff 04 	movl   $0x4,-0x9dc(%rbp)
   142d0:	00 00 00 
   142d3:	c7 85 28 f6 ff ff 04 	movl   $0x4,-0x9d8(%rbp)
   142da:	00 00 00 
   142dd:	c7 85 5c f3 ff ff 00 	movl   $0x0,-0xca4(%rbp)
   142e4:	00 00 00 
   142e7:	eb 1e                	jmp    14307 <func_56+0x434>
   142e9:	8b 85 5c f3 ff ff    	mov    -0xca4(%rbp),%eax
   142ef:	48 98                	cltq   
   142f1:	48 8d 15 a0 5d 00 00 	lea    0x5da0(%rip),%rdx        # 1a098 <g_136>
   142f8:	48 89 94 c5 60 f6 ff 	mov    %rdx,-0x9a0(%rbp,%rax,8)
   142ff:	ff 
   14300:	83 85 5c f3 ff ff 01 	addl   $0x1,-0xca4(%rbp)
   14307:	83 bd 5c f3 ff ff 04 	cmpl   $0x4,-0xca4(%rbp)
   1430e:	7e d9                	jle    142e9 <func_56+0x416>
   14310:	8b 05 fa 98 00 00    	mov    0x98fa(%rip),%eax        # 1dc10 <g_79>
   14316:	0f b7 d8             	movzwl %ax,%ebx
   14319:	44 8b a5 44 f3 ff ff 	mov    -0xcbc(%rbp),%r12d
   14320:	48 8b 05 09 5d 00 00 	mov    0x5d09(%rip),%rax        # 1a030 <g_5>
   14327:	89 85 24 f3 ff ff    	mov    %eax,-0xcdc(%rbp)
   1432d:	48 8b 85 28 f3 ff ff 	mov    -0xcd8(%rbp),%rax
   14334:	8b 00                	mov    (%rax),%eax
   14336:	48 98                	cltq   
   14338:	48 89 85 18 f3 ff ff 	mov    %rax,-0xce8(%rbp)
   1433f:	8b 85 2c fa ff ff    	mov    -0x5d4(%rbp),%eax
   14345:	89 85 20 f3 ff ff    	mov    %eax,-0xce0(%rbp)
   1434b:	0f b7 05 ee 5c 00 00 	movzwl 0x5cee(%rip),%eax        # 1a040 <g_75>
   14352:	44 0f bf e8          	movswl %ax,%r13d
   14356:	0f b7 05 e3 5c 00 00 	movzwl 0x5ce3(%rip),%eax        # 1a040 <g_75>
   1435d:	44 0f be f0          	movsbl %al,%r14d
   14361:	48 8b 05 c0 5c 00 00 	mov    0x5cc0(%rip),%rax        # 1a028 <g_4>
   14368:	44 0f bf f8          	movswl %ax,%r15d
   1436c:	8b 85 c4 fe ff ff    	mov    -0x13c(%rbp),%eax
   14372:	85 c0                	test   %eax,%eax
   14374:	0f 84 dc 00 00 00    	je     14456 <func_56+0x583>
   1437a:	8b 85 8c fa ff ff    	mov    -0x574(%rbp),%eax
   14380:	89 85 14 f3 ff ff    	mov    %eax,-0xcec(%rbp)
   14386:	48 8b 85 10 f5 ff ff 	mov    -0xaf0(%rbp),%rax
   1438d:	89 85 10 f3 ff ff    	mov    %eax,-0xcf0(%rbp)
   14393:	8b 85 44 f3 ff ff    	mov    -0xcbc(%rbp),%eax
   14399:	85 c0                	test   %eax,%eax
   1439b:	74 33                	je     143d0 <func_56+0x4fd>
   1439d:	8b 85 48 fe ff ff    	mov    -0x1b8(%rbp),%eax
   143a3:	48 63 d0             	movslq %eax,%rdx
   143a6:	8b 85 8c fa ff ff    	mov    -0x574(%rbp),%eax
   143ac:	35 9c 61 b7 24       	xor    $0x24b7619c,%eax
   143b1:	48 98                	cltq   
   143b3:	48 89 d6             	mov    %rdx,%rsi
   143b6:	48 89 c7             	mov    %rax,%rdi
   143b9:	e8 39 56 ff ff       	callq  99f7 <safe_div_func_int64_t_s_s>
   143be:	25 1b 0a 34 40       	and    $0x40340a1b,%eax
   143c3:	48 83 f8 02          	cmp    $0x2,%rax
   143c7:	74 07                	je     143d0 <func_56+0x4fd>
   143c9:	b8 01 00 00 00       	mov    $0x1,%eax
   143ce:	eb 05                	jmp    143d5 <func_56+0x502>
   143d0:	b8 00 00 00 00       	mov    $0x0,%eax
   143d5:	8b b5 10 f3 ff ff    	mov    -0xcf0(%rbp),%esi
   143db:	89 c7                	mov    %eax,%edi
   143dd:	e8 d6 5a ff ff       	callq  9eb8 <safe_add_func_uint32_t_u_u>
   143e2:	0f b6 c0             	movzbl %al,%eax
   143e5:	be 06 00 00 00       	mov    $0x6,%esi
   143ea:	89 c7                	mov    %eax,%edi
   143ec:	e8 9c 58 ff ff       	callq  9c8d <safe_rshift_func_uint8_t_u_s>
   143f1:	8b b5 14 f3 ff ff    	mov    -0xcec(%rbp),%esi
   143f7:	bf 00 00 00 00       	mov    $0x0,%edi
   143fc:	e8 fc 5a ff ff       	callq  9efd <safe_mod_func_uint32_t_u_u>
   14401:	48 8b 95 18 f5 ff ff 	mov    -0xae8(%rbp),%rdx
   14408:	8b 12                	mov    (%rdx),%edx
   1440a:	31 c2                	xor    %eax,%edx
   1440c:	48 8b 85 18 f5 ff ff 	mov    -0xae8(%rbp),%rax
   14413:	89 10                	mov    %edx,(%rax)
   14415:	48 8b 85 18 f5 ff ff 	mov    -0xae8(%rbp),%rax
   1441c:	8b 10                	mov    (%rax),%edx
   1441e:	48 8b 85 28 f3 ff ff 	mov    -0xcd8(%rbp),%rax
   14425:	8b 00                	mov    (%rax),%eax
   14427:	39 c2                	cmp    %eax,%edx
   14429:	0f 92 c0             	setb   %al
   1442c:	0f b6 d0             	movzbl %al,%edx
   1442f:	48 8b 85 10 f5 ff ff 	mov    -0xaf0(%rbp),%rax
   14436:	0f be c0             	movsbl %al,%eax
   14439:	89 d6                	mov    %edx,%esi
   1443b:	89 c7                	mov    %eax,%edi
   1443d:	e8 d0 4d ff ff       	callq  9212 <safe_mul_func_int8_t_s_s>
   14442:	0f be d0             	movsbl %al,%edx
   14445:	8b 85 c4 fe ff ff    	mov    -0x13c(%rbp),%eax
   1444b:	39 c2                	cmp    %eax,%edx
   1444d:	7e 07                	jle    14456 <func_56+0x583>
   1444f:	b8 01 00 00 00       	mov    $0x1,%eax
   14454:	eb 05                	jmp    1445b <func_56+0x588>
   14456:	b8 00 00 00 00       	mov    $0x0,%eax
   1445b:	89 85 70 f3 ff ff    	mov    %eax,-0xc90(%rbp)
   14461:	8b 85 70 f3 ff ff    	mov    -0xc90(%rbp),%eax
   14467:	89 85 40 f3 ff ff    	mov    %eax,-0xcc0(%rbp)
   1446d:	8b 85 40 f3 ff ff    	mov    -0xcc0(%rbp),%eax
   14473:	89 85 c4 fe ff ff    	mov    %eax,-0x13c(%rbp)
   14479:	ba 00 00 00 00       	mov    $0x0,%edx
   1447e:	8b 85 1c f6 ff ff    	mov    -0x9e4(%rbp),%eax
   14484:	09 d0                	or     %edx,%eax
   14486:	89 85 1c f6 ff ff    	mov    %eax,-0x9e4(%rbp)
   1448c:	8b 85 8c fa ff ff    	mov    -0x574(%rbp),%eax
   14492:	83 f8 5b             	cmp    $0x5b,%eax
   14495:	0f 9f c0             	setg   %al
   14498:	0f b6 d0             	movzbl %al,%edx
   1449b:	48 8b 85 28 f3 ff ff 	mov    -0xcd8(%rbp),%rax
   144a2:	8b 00                	mov    (%rax),%eax
   144a4:	31 d0                	xor    %edx,%eax
   144a6:	66 89 05 eb 5b 00 00 	mov    %ax,0x5beb(%rip)        # 1a098 <g_136>
   144ad:	0f b7 05 e4 5b 00 00 	movzwl 0x5be4(%rip),%eax        # 1a098 <g_136>
   144b4:	98                   	cwtl   
   144b5:	44 89 fe             	mov    %r15d,%esi
   144b8:	89 c7                	mov    %eax,%edi
   144ba:	e8 57 4f ff ff       	callq  9416 <safe_mod_func_int16_t_s_s>
   144bf:	0f be c0             	movsbl %al,%eax
   144c2:	44 89 f6             	mov    %r14d,%esi
   144c5:	89 c7                	mov    %eax,%edi
   144c7:	e8 26 4d ff ff       	callq  91f2 <safe_sub_func_int8_t_s_s>
   144cc:	0f be c0             	movsbl %al,%eax
   144cf:	44 89 ee             	mov    %r13d,%esi
   144d2:	89 c7                	mov    %eax,%edi
   144d4:	e8 7c 4f ff ff       	callq  9455 <safe_div_func_int16_t_s_s>
   144d9:	0f be d0             	movsbl %al,%edx
   144dc:	48 8b 85 10 f5 ff ff 	mov    -0xaf0(%rbp),%rax
   144e3:	0f be c0             	movsbl %al,%eax
   144e6:	89 d6                	mov    %edx,%esi
   144e8:	89 c7                	mov    %eax,%edi
   144ea:	e8 23 4d ff ff       	callq  9212 <safe_mul_func_int8_t_s_s>
   144ef:	0f be c0             	movsbl %al,%eax
   144f2:	89 85 48 f3 ff ff    	mov    %eax,-0xcb8(%rbp)
   144f8:	8b 85 48 f3 ff ff    	mov    -0xcb8(%rbp),%eax
   144fe:	98                   	cwtl   
   144ff:	8b b5 20 f3 ff ff    	mov    -0xce0(%rbp),%esi
   14505:	89 c7                	mov    %eax,%edi
   14507:	e8 57 50 ff ff       	callq  9563 <safe_rshift_func_int16_t_s_u>
   1450c:	0f be c0             	movsbl %al,%eax
   1450f:	be 00 00 00 00       	mov    $0x0,%esi
   14514:	89 c7                	mov    %eax,%edi
   14516:	e8 b9 4c ff ff       	callq  91d4 <safe_add_func_int8_t_s_s>
   1451b:	c0 e8 07             	shr    $0x7,%al
   1451e:	0f b6 d0             	movzbl %al,%edx
   14521:	48 8b 85 10 f5 ff ff 	mov    -0xaf0(%rbp),%rax
   14528:	48 89 d6             	mov    %rdx,%rsi
   1452b:	48 89 c7             	mov    %rax,%rdi
   1452e:	e8 fb 5a ff ff       	callq  a02e <safe_add_func_uint64_t_u_u>
   14533:	48 39 85 18 f3 ff ff 	cmp    %rax,-0xce8(%rbp)
   1453a:	74 07                	je     14543 <func_56+0x670>
   1453c:	b8 01 00 00 00       	mov    $0x1,%eax
   14541:	eb 05                	jmp    14548 <func_56+0x675>
   14543:	b8 00 00 00 00       	mov    $0x0,%eax
   14548:	8b b5 24 f3 ff ff    	mov    -0xcdc(%rbp),%esi
   1454e:	89 c7                	mov    %eax,%edi
   14550:	e8 a8 59 ff ff       	callq  9efd <safe_mod_func_uint32_t_u_u>
   14555:	85 c0                	test   %eax,%eax
   14557:	74 07                	je     14560 <func_56+0x68d>
   14559:	b8 01 00 00 00       	mov    $0x1,%eax
   1455e:	eb 05                	jmp    14565 <func_56+0x692>
   14560:	b8 00 00 00 00       	mov    $0x0,%eax
   14565:	25 af 00 00 00       	and    $0xaf,%eax
   1456a:	44 89 e6             	mov    %r12d,%esi
   1456d:	89 c7                	mov    %eax,%edi
   1456f:	e8 44 59 ff ff       	callq  9eb8 <safe_add_func_uint32_t_u_u>
   14574:	0f b7 c0             	movzwl %ax,%eax
   14577:	89 de                	mov    %ebx,%esi
   14579:	89 c7                	mov    %eax,%edi
   1457b:	e8 bd 57 ff ff       	callq  9d3d <safe_mul_func_uint16_t_u_u>
   14580:	89 c2                	mov    %eax,%edx
   14582:	48 8b 85 28 f3 ff ff 	mov    -0xcd8(%rbp),%rax
   14589:	0f b7 d2             	movzwl %dx,%edx
   1458c:	89 10                	mov    %edx,(%rax)
   1458e:	e9 c6 10 00 00       	jmpq   15659 <func_56+0x1786>
   14593:	c7 85 4c f3 ff ff ff 	movl   $0xffffffff,-0xcb4(%rbp)
   1459a:	ff ff ff 
   1459d:	66 c7 85 38 f3 ff ff 	movw   $0x9,-0xcc8(%rbp)
   145a4:	09 00 
   145a6:	48 8d 85 98 f3 ff ff 	lea    -0xc68(%rbp),%rax
   145ad:	48 89 85 28 f4 ff ff 	mov    %rax,-0xbd8(%rbp)
   145b4:	66 c7 85 3a f3 ff ff 	movw   $0xffff,-0xcc6(%rbp)
   145bb:	ff ff 
   145bd:	c7 85 70 f5 ff ff 9a 	movl   $0x4517339a,-0xa90(%rbp)
   145c4:	33 17 45 
   145c7:	c7 85 74 f5 ff ff 9a 	movl   $0x4517339a,-0xa8c(%rbp)
   145ce:	33 17 45 
   145d1:	c7 85 78 f5 ff ff 9a 	movl   $0x4517339a,-0xa88(%rbp)
   145d8:	33 17 45 
   145db:	c7 85 7c f5 ff ff 9a 	movl   $0x4517339a,-0xa84(%rbp)
   145e2:	33 17 45 
   145e5:	c7 85 80 f5 ff ff 9a 	movl   $0x4517339a,-0xa80(%rbp)
   145ec:	33 17 45 
   145ef:	c7 85 84 f5 ff ff 9a 	movl   $0x4517339a,-0xa7c(%rbp)
   145f6:	33 17 45 
   145f9:	c7 85 88 f5 ff ff 9a 	movl   $0x4517339a,-0xa78(%rbp)
   14600:	33 17 45 
   14603:	c7 85 8c f5 ff ff 9a 	movl   $0x4517339a,-0xa74(%rbp)
   1460a:	33 17 45 
   1460d:	c7 85 90 f5 ff ff 9a 	movl   $0x4517339a,-0xa70(%rbp)
   14614:	33 17 45 
   14617:	c6 85 36 f3 ff ff 00 	movb   $0x0,-0xcca(%rbp)
   1461e:	48 8d 85 a8 f3 ff ff 	lea    -0xc58(%rbp),%rax
   14625:	48 89 85 30 f4 ff ff 	mov    %rax,-0xbd0(%rbp)
   1462c:	48 8d 05 ac 5a 00 00 	lea    0x5aac(%rip),%rax        # 1a0df <g_290>
   14633:	48 89 85 38 f4 ff ff 	mov    %rax,-0xbc8(%rbp)
   1463a:	66 c7 85 3c f3 ff ff 	movw   $0x7,-0xcc4(%rbp)
   14641:	07 00 
   14643:	c7 85 60 f3 ff ff 3b 	movl   $0x9300b03b,-0xca0(%rbp)
   1464a:	b0 00 93 
   1464d:	c7 85 64 f3 ff ff 00 	movl   $0x0,-0xc9c(%rbp)
   14654:	00 00 00 
   14657:	eb 1a                	jmp    14673 <func_56+0x7a0>
   14659:	8b 85 64 f3 ff ff    	mov    -0xc9c(%rbp),%eax
   1465f:	48 98                	cltq   
   14661:	c7 84 85 50 f5 ff ff 	movl   $0x2,-0xab0(%rbp,%rax,4)
   14668:	02 00 00 00 
   1466c:	83 85 64 f3 ff ff 01 	addl   $0x1,-0xc9c(%rbp)
   14673:	83 bd 64 f3 ff ff 04 	cmpl   $0x4,-0xc9c(%rbp)
   1467a:	7e dd                	jle    14659 <func_56+0x786>
   1467c:	90                   	nop
   1467d:	c7 85 40 f3 ff ff 00 	movl   $0x0,-0xcc0(%rbp)
   14684:	00 00 00 
   14687:	e9 2d 04 00 00       	jmpq   14ab9 <func_56+0xbe6>
   1468c:	48 b8 57 e6 ec 5f d3 	movabs $0x20052cd35fece657,%rax
   14693:	2c 05 20 
   14696:	48 89 85 d0 f3 ff ff 	mov    %rax,-0xc30(%rbp)
   1469d:	48 8d 05 24 95 00 00 	lea    0x9524(%rip),%rax        # 1dbc8 <g_13>
   146a4:	48 89 85 40 f4 ff ff 	mov    %rax,-0xbc0(%rbp)
   146ab:	c7 85 7c f3 ff ff a0 	movl   $0xc36249a0,-0xc84(%rbp)
   146b2:	49 62 c3 
   146b5:	48 c7 85 48 f4 ff ff 	movq   $0xfffffffffffffffb,-0xbb8(%rbp)
   146bc:	fb ff ff ff 
   146c0:	48 8b 85 28 f3 ff ff 	mov    -0xcd8(%rbp),%rax
   146c7:	48 89 85 28 f3 ff ff 	mov    %rax,-0xcd8(%rbp)
   146ce:	48 8b 85 28 f3 ff ff 	mov    -0xcd8(%rbp),%rax
   146d5:	8b 00                	mov    (%rax),%eax
   146d7:	85 c0                	test   %eax,%eax
   146d9:	0f 85 eb 03 00 00    	jne    14aca <func_56+0xbf7>
   146df:	c7 05 27 95 00 00 0f 	movl   $0xf,0x9527(%rip)        # 1dc10 <g_79>
   146e6:	00 00 00 
   146e9:	e9 0c 02 00 00       	jmpq   148fa <func_56+0xa27>
   146ee:	c7 85 80 f3 ff ff 37 	movl   $0xadad7837,-0xc80(%rbp)
   146f5:	78 ad ad 
   146f8:	c7 85 10 f6 ff ff 00 	movl   $0x0,-0x9f0(%rbp)
   146ff:	00 00 00 
   14702:	c7 85 14 f6 ff ff 00 	movl   $0x0,-0x9ec(%rbp)
   14709:	00 00 00 
   1470c:	c7 85 18 f6 ff ff 01 	movl   $0x1,-0x9e8(%rbp)
   14713:	00 00 00 
   14716:	c7 85 1c f6 ff ff 00 	movl   $0x0,-0x9e4(%rbp)
   1471d:	00 00 00 
   14720:	c7 85 20 f6 ff ff 00 	movl   $0x0,-0x9e0(%rbp)
   14727:	00 00 00 
   1472a:	c7 85 24 f6 ff ff 01 	movl   $0x1,-0x9dc(%rbp)
   14731:	00 00 00 
   14734:	c7 85 28 f6 ff ff 00 	movl   $0x0,-0x9d8(%rbp)
   1473b:	00 00 00 
   1473e:	c7 85 2c f6 ff ff 00 	movl   $0x0,-0x9d4(%rbp)
   14745:	00 00 00 
   14748:	c7 85 30 f6 ff ff 01 	movl   $0x1,-0x9d0(%rbp)
   1474f:	00 00 00 
   14752:	48 c7 85 50 f4 ff ff 	movq   $0x0,-0xbb0(%rbp)
   14759:	00 00 00 00 
   1475d:	48 c7 85 58 f4 ff ff 	movq   $0x0,-0xba8(%rbp)
   14764:	00 00 00 00 
   14768:	48 8d 05 d1 58 00 00 	lea    0x58d1(%rip),%rax        # 1a040 <g_75>
   1476f:	48 89 85 60 f4 ff ff 	mov    %rax,-0xba0(%rbp)
   14776:	48 8d 85 d0 f3 ff ff 	lea    -0xc30(%rbp),%rax
   1477d:	48 89 85 68 f4 ff ff 	mov    %rax,-0xb98(%rbp)
   14784:	c7 85 84 f3 ff ff 68 	movl   $0xe61d3f68,-0xc7c(%rbp)
   1478b:	3f 1d e6 
   1478e:	48 8d 85 a0 f5 ff ff 	lea    -0xa60(%rbp),%rax
   14795:	48 83 c0 20          	add    $0x20,%rax
   14799:	48 89 85 70 f4 ff ff 	mov    %rax,-0xb90(%rbp)
   147a0:	48 8d 05 79 94 00 00 	lea    0x9479(%rip),%rax        # 1dc20 <g_272>
   147a7:	48 89 85 78 f4 ff ff 	mov    %rax,-0xb88(%rbp)
   147ae:	48 8d 05 db 58 00 00 	lea    0x58db(%rip),%rax        # 1a090 <g_99>
   147b5:	48 89 85 60 f6 ff ff 	mov    %rax,-0x9a0(%rbp)
   147bc:	48 8d 05 cd 58 00 00 	lea    0x58cd(%rip),%rax        # 1a090 <g_99>
   147c3:	48 89 85 68 f6 ff ff 	mov    %rax,-0x998(%rbp)
   147ca:	48 8d 85 4c f3 ff ff 	lea    -0xcb4(%rbp),%rax
   147d1:	48 89 85 70 f6 ff ff 	mov    %rax,-0x990(%rbp)
   147d8:	48 8d 05 b1 58 00 00 	lea    0x58b1(%rip),%rax        # 1a090 <g_99>
   147df:	48 89 85 78 f6 ff ff 	mov    %rax,-0x988(%rbp)
   147e6:	48 8d 05 a3 58 00 00 	lea    0x58a3(%rip),%rax        # 1a090 <g_99>
   147ed:	48 89 85 80 f6 ff ff 	mov    %rax,-0x980(%rbp)
   147f4:	48 8d 85 4c f3 ff ff 	lea    -0xcb4(%rbp),%rax
   147fb:	48 89 85 88 f6 ff ff 	mov    %rax,-0x978(%rbp)
   14802:	48 8d 05 87 58 00 00 	lea    0x5887(%rip),%rax        # 1a090 <g_99>
   14809:	48 89 85 90 f6 ff ff 	mov    %rax,-0x970(%rbp)
   14810:	48 8d 05 79 58 00 00 	lea    0x5879(%rip),%rax        # 1a090 <g_99>
   14817:	48 89 85 98 f6 ff ff 	mov    %rax,-0x968(%rbp)
   1481e:	48 8d 85 4c f3 ff ff 	lea    -0xcb4(%rbp),%rax
   14825:	48 89 85 a0 f6 ff ff 	mov    %rax,-0x960(%rbp)
   1482c:	48 8d 05 5d 58 00 00 	lea    0x585d(%rip),%rax        # 1a090 <g_99>
   14833:	48 89 85 a8 f6 ff ff 	mov    %rax,-0x958(%rbp)
   1483a:	48 8d 05 4f 58 00 00 	lea    0x584f(%rip),%rax        # 1a090 <g_99>
   14841:	48 89 85 b0 f6 ff ff 	mov    %rax,-0x950(%rbp)
   14848:	48 8d 85 4c f3 ff ff 	lea    -0xcb4(%rbp),%rax
   1484f:	48 89 85 b8 f6 ff ff 	mov    %rax,-0x948(%rbp)
   14856:	48 8d 05 33 58 00 00 	lea    0x5833(%rip),%rax        # 1a090 <g_99>
   1485d:	48 89 85 c0 f6 ff ff 	mov    %rax,-0x940(%rbp)
   14864:	48 8d 05 25 58 00 00 	lea    0x5825(%rip),%rax        # 1a090 <g_99>
   1486b:	48 89 85 c8 f6 ff ff 	mov    %rax,-0x938(%rbp)
   14872:	48 8d 85 4c f3 ff ff 	lea    -0xcb4(%rbp),%rax
   14879:	48 89 85 d0 f6 ff ff 	mov    %rax,-0x930(%rbp)
   14880:	48 8d 05 09 58 00 00 	lea    0x5809(%rip),%rax        # 1a090 <g_99>
   14887:	48 89 85 d8 f6 ff ff 	mov    %rax,-0x928(%rbp)
   1488e:	48 8d 05 fb 57 00 00 	lea    0x57fb(%rip),%rax        # 1a090 <g_99>
   14895:	48 89 85 e0 f6 ff ff 	mov    %rax,-0x920(%rbp)
   1489c:	48 8d 85 4c f3 ff ff 	lea    -0xcb4(%rbp),%rax
   148a3:	48 89 85 e8 f6 ff ff 	mov    %rax,-0x918(%rbp)
   148aa:	48 8d 05 df 57 00 00 	lea    0x57df(%rip),%rax        # 1a090 <g_99>
   148b1:	48 89 85 f0 f6 ff ff 	mov    %rax,-0x910(%rbp)
   148b8:	48 8d 05 d1 57 00 00 	lea    0x57d1(%rip),%rax        # 1a090 <g_99>
   148bf:	48 89 85 f8 f6 ff ff 	mov    %rax,-0x908(%rbp)
   148c6:	c7 85 88 f3 ff ff 01 	movl   $0x1,-0xc78(%rbp)
   148cd:	00 00 00 
   148d0:	48 8b 85 d0 f3 ff ff 	mov    -0xc30(%rbp),%rax
   148d7:	48 85 c0             	test   %rax,%rax
   148da:	75 2f                	jne    1490b <func_56+0xa38>
   148dc:	8b 05 2e 93 00 00    	mov    0x932e(%rip),%eax        # 1dc10 <g_79>
   148e2:	0f be c0             	movsbl %al,%eax
   148e5:	be 01 00 00 00       	mov    $0x1,%esi
   148ea:	89 c7                	mov    %eax,%edi
   148ec:	e8 01 49 ff ff       	callq  91f2 <safe_sub_func_int8_t_s_s>
   148f1:	0f be c0             	movsbl %al,%eax
   148f4:	89 05 16 93 00 00    	mov    %eax,0x9316(%rip)        # 1dc10 <g_79>
   148fa:	8b 05 10 93 00 00    	mov    0x9310(%rip),%eax        # 1dc10 <g_79>
   14900:	83 f8 06             	cmp    $0x6,%eax
   14903:	0f 85 e5 fd ff ff    	jne    146ee <func_56+0x81b>
   14909:	eb 01                	jmp    1490c <func_56+0xa39>
   1490b:	90                   	nop
   1490c:	8b 85 44 f3 ff ff    	mov    -0xcbc(%rbp),%eax
   14912:	89 c3                	mov    %eax,%ebx
   14914:	48 8b 05 15 57 00 00 	mov    0x5715(%rip),%rax        # 1a030 <g_5>
   1491b:	41 89 c4             	mov    %eax,%r12d
   1491e:	48 8b 05 3b 57 00 00 	mov    0x573b(%rip),%rax        # 1a060 <g_97>
   14925:	89 c2                	mov    %eax,%edx
   14927:	48 8b 85 18 f4 ff ff 	mov    -0xbe8(%rbp),%rax
   1492e:	66 89 10             	mov    %dx,(%rax)
   14931:	48 8b 85 18 f4 ff ff 	mov    -0xbe8(%rbp),%rax
   14938:	0f b7 00             	movzwl (%rax),%eax
   1493b:	98                   	cwtl   
   1493c:	89 85 48 f3 ff ff    	mov    %eax,-0xcb8(%rbp)
   14942:	8b 85 48 f3 ff ff    	mov    -0xcb8(%rbp),%eax
   14948:	3d 31 e8 00 00       	cmp    $0xe831,%eax
   1494d:	0f 8f a0 00 00 00    	jg     149f3 <func_56+0xb20>
   14953:	66 83 bd 38 f3 ff ff 	cmpw   $0x0,-0xcc8(%rbp)
   1495a:	00 
   1495b:	74 67                	je     149c4 <func_56+0xaf1>
   1495d:	48 8b 85 10 f4 ff ff 	mov    -0xbf0(%rbp),%rax
   14964:	48 8b 10             	mov    (%rax),%rdx
   14967:	48 8b 85 d8 f3 ff ff 	mov    -0xc28(%rbp),%rax
   1496e:	48 89 10             	mov    %rdx,(%rax)
   14971:	48 8b 85 d8 f3 ff ff 	mov    -0xc28(%rbp),%rax
   14978:	48 8b 00             	mov    (%rax),%rax
   1497b:	48 85 c0             	test   %rax,%rax
   1497e:	0f 94 c0             	sete   %al
   14981:	0f b6 d0             	movzbl %al,%edx
   14984:	48 8b 85 18 f4 ff ff 	mov    -0xbe8(%rbp),%rax
   1498b:	66 89 10             	mov    %dx,(%rax)
   1498e:	48 8b 85 18 f4 ff ff 	mov    -0xbe8(%rbp),%rax
   14995:	0f b7 00             	movzwl (%rax),%eax
   14998:	0f bf d0             	movswl %ax,%edx
   1499b:	0f b7 05 38 57 00 00 	movzwl 0x5738(%rip),%eax        # 1a0da <g_172+0xa>
   149a2:	0f b7 c0             	movzwl %ax,%eax
   149a5:	39 c2                	cmp    %eax,%edx
   149a7:	0f 95 c0             	setne  %al
   149aa:	0f b6 c0             	movzbl %al,%eax
   149ad:	be 70 00 00 00       	mov    $0x70,%esi
   149b2:	89 c7                	mov    %eax,%edi
   149b4:	e8 1b 48 ff ff       	callq  91d4 <safe_add_func_int8_t_s_s>
   149b9:	84 c0                	test   %al,%al
   149bb:	74 07                	je     149c4 <func_56+0xaf1>
   149bd:	b8 01 00 00 00       	mov    $0x1,%eax
   149c2:	eb 05                	jmp    149c9 <func_56+0xaf6>
   149c4:	b8 00 00 00 00       	mov    $0x0,%eax
   149c9:	48 63 d0             	movslq %eax,%rdx
   149cc:	0f b7 05 03 57 00 00 	movzwl 0x5703(%rip),%eax        # 1a0d6 <g_172+0x6>
   149d3:	0f b7 c0             	movzwl %ax,%eax
   149d6:	48 89 d6             	mov    %rdx,%rsi
   149d9:	48 89 c7             	mov    %rax,%rdi
   149dc:	e8 d3 4f ff ff       	callq  99b4 <safe_mod_func_int64_t_s_s>
   149e1:	48 89 c2             	mov    %rax,%rdx
   149e4:	48 8b 85 d0 f3 ff ff 	mov    -0xc30(%rbp),%rax
   149eb:	48 21 d0             	and    %rdx,%rax
   149ee:	48 85 c0             	test   %rax,%rax
   149f1:	74 07                	je     149fa <func_56+0xb27>
   149f3:	ba 01 00 00 00       	mov    $0x1,%edx
   149f8:	eb 05                	jmp    149ff <func_56+0xb2c>
   149fa:	ba 00 00 00 00       	mov    $0x0,%edx
   149ff:	0f b7 05 3a 56 00 00 	movzwl 0x563a(%rip),%eax        # 1a040 <g_75>
   14a06:	0f b7 c0             	movzwl %ax,%eax
   14a09:	39 c2                	cmp    %eax,%edx
   14a0b:	0f 94 c0             	sete   %al
   14a0e:	0f b6 c0             	movzbl %al,%eax
   14a11:	48 89 c7             	mov    %rax,%rdi
   14a14:	e8 fd 4d ff ff       	callq  9816 <safe_unary_minus_func_int64_t_s>
   14a19:	89 c2                	mov    %eax,%edx
   14a1b:	48 8b 05 06 56 00 00 	mov    0x5606(%rip),%rax        # 1a028 <g_4>
   14a22:	0f b6 c0             	movzbl %al,%eax
   14a25:	89 d6                	mov    %edx,%esi
   14a27:	89 c7                	mov    %eax,%edi
   14a29:	e8 90 52 ff ff       	callq  9cbe <safe_rshift_func_uint8_t_u_u>
   14a2e:	0f be c0             	movsbl %al,%eax
   14a31:	44 89 e6             	mov    %r12d,%esi
   14a34:	89 c7                	mov    %eax,%edi
   14a36:	e8 b3 48 ff ff       	callq  92ee <safe_lshift_func_int8_t_s_u>
   14a3b:	b8 01 00 00 00       	mov    $0x1,%eax
   14a40:	48 98                	cltq   
   14a42:	ba aa 46 b5 f5       	mov    $0xf5b546aa,%edx
   14a47:	48 31 d0             	xor    %rdx,%rax
   14a4a:	48 3d 06 8a 00 00    	cmp    $0x8a06,%rax
   14a50:	0f 9f c0             	setg   %al
   14a53:	0f b6 c0             	movzbl %al,%eax
   14a56:	be 07 00 00 00       	mov    $0x7,%esi
   14a5b:	89 c7                	mov    %eax,%edi
   14a5d:	e8 5c 53 ff ff       	callq  9dbe <safe_lshift_func_uint16_t_u_s>
   14a62:	0f b7 d0             	movzwl %ax,%edx
   14a65:	0f b7 85 3a f3 ff ff 	movzwl -0xcc6(%rbp),%eax
   14a6c:	39 85 7c f3 ff ff    	cmp    %eax,-0xc84(%rbp)
   14a72:	0f 95 c0             	setne  %al
   14a75:	0f b6 c0             	movzbl %al,%eax
   14a78:	89 d6                	mov    %edx,%esi
   14a7a:	89 c7                	mov    %eax,%edi
   14a7c:	e8 a9 4a ff ff       	callq  952a <safe_rshift_func_int16_t_s_s>
   14a81:	48 0f bf c0          	movswq %ax,%rax
   14a85:	48 89 de             	mov    %rbx,%rsi
   14a88:	48 89 c7             	mov    %rax,%rdi
   14a8b:	e8 9e 55 ff ff       	callq  a02e <safe_add_func_uint64_t_u_u>
   14a90:	48 89 c2             	mov    %rax,%rdx
   14a93:	48 8b 05 0e 69 00 00 	mov    0x690e(%rip),%rax        # 1b3a8 <g_208>
   14a9a:	48 8b 00             	mov    (%rax),%rax
   14a9d:	89 10                	mov    %edx,(%rax)
   14a9f:	8b 85 40 f3 ff ff    	mov    -0xcc0(%rbp),%eax
   14aa5:	98                   	cwtl   
   14aa6:	be 06 00 00 00       	mov    $0x6,%esi
   14aab:	89 c7                	mov    %eax,%edi
   14aad:	e8 21 49 ff ff       	callq  93d3 <safe_sub_func_int16_t_s_s>
   14ab2:	98                   	cwtl   
   14ab3:	89 85 40 f3 ff ff    	mov    %eax,-0xcc0(%rbp)
   14ab9:	8b 85 40 f3 ff ff    	mov    -0xcc0(%rbp),%eax
   14abf:	83 f8 f4             	cmp    $0xfffffff4,%eax
   14ac2:	0f 8c c4 fb ff ff    	jl     1468c <func_56+0x7b9>
   14ac8:	eb 01                	jmp    14acb <func_56+0xbf8>
   14aca:	90                   	nop
   14acb:	c7 05 4b 91 00 00 00 	movl   $0x0,0x914b(%rip)        # 1dc20 <g_272>
   14ad2:	00 00 00 
   14ad5:	e9 5e 0b 00 00       	jmpq   15638 <func_56+0x1765>
   14ada:	66 c7 85 3e f3 ff ff 	movw   $0xffff,-0xcc2(%rbp)
   14ae1:	ff ff 
   14ae3:	c7 85 50 f3 ff ff 4c 	movl   $0x7167734c,-0xcb0(%rbp)
   14aea:	73 67 71 
   14aed:	48 8d 05 ac 68 00 00 	lea    0x68ac(%rip),%rax        # 1b3a0 <g_209>
   14af4:	48 89 85 80 f4 ff ff 	mov    %rax,-0xb80(%rbp)
   14afb:	48 8d 05 dd 55 00 00 	lea    0x55dd(%rip),%rax        # 1a0df <g_290>
   14b02:	48 89 85 88 f4 ff ff 	mov    %rax,-0xb78(%rbp)
   14b09:	c7 85 68 f3 ff ff 5d 	movl   $0xb426675d,-0xc98(%rbp)
   14b10:	67 26 b4 
   14b13:	48 8d 85 50 f5 ff ff 	lea    -0xab0(%rbp),%rax
   14b1a:	48 83 c0 0c          	add    $0xc,%rax
   14b1e:	48 89 85 90 f4 ff ff 	mov    %rax,-0xb70(%rbp)
   14b25:	c6 85 37 f3 ff ff bc 	movb   $0xbc,-0xcc9(%rbp)
   14b2c:	c7 85 6c f3 ff ff 00 	movl   $0x0,-0xc94(%rbp)
   14b33:	00 00 00 
   14b36:	eb 1a                	jmp    14b52 <func_56+0xc7f>
   14b38:	8b 85 6c f3 ff ff    	mov    -0xc94(%rbp),%eax
   14b3e:	48 98                	cltq   
   14b40:	c7 84 85 2c f5 ff ff 	movl   $0x29122180,-0xad4(%rbp,%rax,4)
   14b47:	80 21 12 29 
   14b4b:	83 85 6c f3 ff ff 01 	addl   $0x1,-0xc94(%rbp)
   14b52:	83 bd 6c f3 ff ff 00 	cmpl   $0x0,-0xc94(%rbp)
   14b59:	7e dd                	jle    14b38 <func_56+0xc65>
   14b5b:	8b 05 bf 90 00 00    	mov    0x90bf(%rip),%eax        # 1dc20 <g_272>
   14b61:	83 c0 02             	add    $0x2,%eax
   14b64:	89 c0                	mov    %eax,%eax
   14b66:	48 8d 14 00          	lea    (%rax,%rax,1),%rdx
   14b6a:	48 8d 05 5f 55 00 00 	lea    0x555f(%rip),%rax        # 1a0d0 <g_172>
   14b71:	0f b7 04 02          	movzwl (%rdx,%rax,1),%eax
   14b75:	66 85 c0             	test   %ax,%ax
   14b78:	0f 85 b3 03 00 00    	jne    14f31 <func_56+0x105e>
   14b7e:	48 c7 85 a0 f4 ff ff 	movq   $0x0,-0xb60(%rbp)
   14b85:	00 00 00 00 
   14b89:	48 8d 85 00 f7 ff ff 	lea    -0x900(%rbp),%rax
   14b90:	48 05 28 01 00 00    	add    $0x128,%rax
   14b96:	48 89 85 a8 f4 ff ff 	mov    %rax,-0xb58(%rbp)
   14b9d:	c7 85 54 f3 ff ff 5a 	movl   $0xe1a12c5a,-0xcac(%rbp)
   14ba4:	2c a1 e1 
   14ba7:	48 8d 05 31 55 00 00 	lea    0x5531(%rip),%rax        # 1a0df <g_290>
   14bae:	48 89 85 d0 f3 ff ff 	mov    %rax,-0xc30(%rbp)
   14bb5:	48 8d 85 d0 f3 ff ff 	lea    -0xc30(%rbp),%rax
   14bbc:	48 89 85 b0 f4 ff ff 	mov    %rax,-0xb50(%rbp)
   14bc3:	48 8d 05 22 56 00 00 	lea    0x5622(%rip),%rax        # 1a1ec <g_378+0xec>
   14bca:	48 89 85 b8 f4 ff ff 	mov    %rax,-0xb48(%rbp)
   14bd1:	48 8d 85 54 f3 ff ff 	lea    -0xcac(%rbp),%rax
   14bd8:	48 89 85 c0 f4 ff ff 	mov    %rax,-0xb40(%rbp)
   14bdf:	48 8d 85 b0 fc ff ff 	lea    -0x350(%rbp),%rax
   14be6:	48 05 f0 02 00 00    	add    $0x2f0,%rax
   14bec:	48 89 85 c8 f4 ff ff 	mov    %rax,-0xb38(%rbp)
   14bf3:	48 8d 85 40 f3 ff ff 	lea    -0xcc0(%rbp),%rax
   14bfa:	48 89 85 d0 f4 ff ff 	mov    %rax,-0xb30(%rbp)
   14c01:	48 8d 85 50 f3 ff ff 	lea    -0xcb0(%rbp),%rax
   14c08:	48 89 85 d8 f4 ff ff 	mov    %rax,-0xb28(%rbp)
   14c0f:	48 8d 85 b0 f9 ff ff 	lea    -0x650(%rbp),%rax
   14c16:	48 05 dc 00 00 00    	add    $0xdc,%rax
   14c1c:	48 89 85 e0 f4 ff ff 	mov    %rax,-0xb20(%rbp)
   14c23:	48 c7 85 e8 f4 ff ff 	movq   $0x0,-0xb18(%rbp)
   14c2a:	00 00 00 00 
   14c2e:	48 8d 85 b0 f9 ff ff 	lea    -0x650(%rbp),%rax
   14c35:	48 83 c0 5c          	add    $0x5c,%rax
   14c39:	48 89 85 f0 f4 ff ff 	mov    %rax,-0xb10(%rbp)
   14c40:	48 c7 85 60 f6 ff ff 	movq   $0x0,-0x9a0(%rbp)
   14c47:	00 00 00 00 
   14c4b:	48 c7 85 68 f6 ff ff 	movq   $0x0,-0x998(%rbp)
   14c52:	00 00 00 00 
   14c56:	48 c7 85 70 f6 ff ff 	movq   $0x0,-0x990(%rbp)
   14c5d:	00 00 00 00 
   14c61:	48 c7 85 78 f6 ff ff 	movq   $0x0,-0x988(%rbp)
   14c68:	00 00 00 00 
   14c6c:	c7 05 1a 54 00 00 00 	movl   $0x0,0x541a(%rip)        # 1a090 <g_99>
   14c73:	00 00 00 
   14c76:	eb 47                	jmp    14cbf <func_56+0xdec>
   14c78:	8b 05 12 54 00 00    	mov    0x5412(%rip),%eax        # 1a090 <g_99>
   14c7e:	48 98                	cltq   
   14c80:	48 8d 14 00          	lea    (%rax,%rax,1),%rdx
   14c84:	48 8d 05 45 54 00 00 	lea    0x5445(%rip),%rax        # 1a0d0 <g_172>
   14c8b:	0f b7 04 02          	movzwl (%rdx,%rax,1),%eax
   14c8f:	66 85 c0             	test   %ax,%ax
   14c92:	75 38                	jne    14ccc <func_56+0xdf9>
   14c94:	8b 05 f6 53 00 00    	mov    0x53f6(%rip),%eax        # 1a090 <g_99>
   14c9a:	48 98                	cltq   
   14c9c:	48 8d 14 00          	lea    (%rax,%rax,1),%rdx
   14ca0:	48 8d 05 29 54 00 00 	lea    0x5429(%rip),%rax        # 1a0d0 <g_172>
   14ca7:	0f b7 04 02          	movzwl (%rdx,%rax,1),%eax
   14cab:	66 85 c0             	test   %ax,%ax
   14cae:	75 1f                	jne    14ccf <func_56+0xdfc>
   14cb0:	8b 05 da 53 00 00    	mov    0x53da(%rip),%eax        # 1a090 <g_99>
   14cb6:	83 c0 01             	add    $0x1,%eax
   14cb9:	89 05 d1 53 00 00    	mov    %eax,0x53d1(%rip)        # 1a090 <g_99>
   14cbf:	8b 05 cb 53 00 00    	mov    0x53cb(%rip),%eax        # 1a090 <g_99>
   14cc5:	83 f8 06             	cmp    $0x6,%eax
   14cc8:	7e ae                	jle    14c78 <func_56+0xda5>
   14cca:	eb 04                	jmp    14cd0 <func_56+0xdfd>
   14ccc:	90                   	nop
   14ccd:	eb 01                	jmp    14cd0 <func_56+0xdfd>
   14ccf:	90                   	nop
   14cd0:	8b 85 48 f3 ff ff    	mov    -0xcb8(%rbp),%eax
   14cd6:	89 c7                	mov    %eax,%edi
   14cd8:	e8 c9 51 ff ff       	callq  9ea6 <safe_unary_minus_func_uint32_t_u>
   14cdd:	89 c2                	mov    %eax,%edx
   14cdf:	48 8b 05 ba 66 00 00 	mov    0x66ba(%rip),%rax        # 1b3a0 <g_209>
   14ce6:	8b 00                	mov    (%rax),%eax
   14ce8:	89 d6                	mov    %edx,%esi
   14cea:	89 c7                	mov    %eax,%edi
   14cec:	e8 c5 48 ff ff       	callq  95b6 <safe_add_func_int32_t_s_s>
   14cf1:	48 8b 95 e8 f7 ff ff 	mov    -0x818(%rbp),%rdx
   14cf8:	48 8b 85 a8 f4 ff ff 	mov    -0xb58(%rbp),%rax
   14cff:	48 89 10             	mov    %rdx,(%rax)
   14d02:	48 8b 85 a8 f4 ff ff 	mov    -0xb58(%rbp),%rax
   14d09:	48 8b 00             	mov    (%rax),%rax
   14d0c:	48 8d 15 4d 53 00 00 	lea    0x534d(%rip),%rdx        # 1a060 <g_97>
   14d13:	48 39 d0             	cmp    %rdx,%rax
   14d16:	0f 95 c0             	setne  %al
   14d19:	0f b6 d0             	movzbl %al,%edx
   14d1c:	48 8b 85 f0 f3 ff ff 	mov    -0xc10(%rbp),%rax
   14d23:	0f b7 08             	movzwl (%rax),%ecx
   14d26:	8b 85 54 f3 ff ff    	mov    -0xcac(%rbp),%eax
   14d2c:	3d e0 28 00 00       	cmp    $0x28e0,%eax
   14d31:	0f 9f c0             	setg   %al
   14d34:	0f b6 c0             	movzbl %al,%eax
   14d37:	31 c1                	xor    %eax,%ecx
   14d39:	48 8b 85 f0 f3 ff ff 	mov    -0xc10(%rbp),%rax
   14d40:	66 89 08             	mov    %cx,(%rax)
   14d43:	48 8b 85 f0 f3 ff ff 	mov    -0xc10(%rbp),%rax
   14d4a:	0f b7 00             	movzwl (%rax),%eax
   14d4d:	98                   	cwtl   
   14d4e:	39 c2                	cmp    %eax,%edx
   14d50:	0f 9c c0             	setl   %al
   14d53:	0f b6 d0             	movzbl %al,%edx
   14d56:	8b 85 44 f3 ff ff    	mov    -0xcbc(%rbp),%eax
   14d5c:	39 c2                	cmp    %eax,%edx
   14d5e:	0f 94 c0             	sete   %al
   14d61:	0f b6 c0             	movzbl %al,%eax
   14d64:	48 8b 15 bd 52 00 00 	mov    0x52bd(%rip),%rdx        # 1a028 <g_4>
   14d6b:	48 89 c6             	mov    %rax,%rsi
   14d6e:	48 89 d7             	mov    %rdx,%rdi
   14d71:	e8 b8 52 ff ff       	callq  a02e <safe_add_func_uint64_t_u_u>
   14d76:	48 3d fc ff 00 00    	cmp    $0xfffc,%rax
   14d7c:	0f 95 c2             	setne  %dl
   14d7f:	48 8b 05 1a 66 00 00 	mov    0x661a(%rip),%rax        # 1b3a0 <g_209>
   14d86:	0f b6 d2             	movzbl %dl,%edx
   14d89:	89 10                	mov    %edx,(%rax)
   14d8b:	48 8b 85 b0 f4 ff ff 	mov    -0xb50(%rbp),%rax
   14d92:	48 8d 15 46 53 00 00 	lea    0x5346(%rip),%rdx        # 1a0df <g_290>
   14d99:	48 89 10             	mov    %rdx,(%rax)
   14d9c:	48 8b 85 b0 f5 ff ff 	mov    -0xa50(%rbp),%rax
   14da3:	48 8d 15 35 53 00 00 	lea    0x5335(%rip),%rdx        # 1a0df <g_290>
   14daa:	48 39 d0             	cmp    %rdx,%rax
   14dad:	0f 95 c2             	setne  %dl
   14db0:	48 8b 05 f1 65 00 00 	mov    0x65f1(%rip),%rax        # 1b3a8 <g_208>
   14db7:	48 8b 00             	mov    (%rax),%rax
   14dba:	0f b6 d2             	movzbl %dl,%edx
   14dbd:	89 10                	mov    %edx,(%rax)
   14dbf:	8b 00                	mov    (%rax),%eax
   14dc1:	83 f8 01             	cmp    $0x1,%eax
   14dc4:	0f 8f 15 01 00 00    	jg     14edf <func_56+0x100c>
   14dca:	8b 85 7c fa ff ff    	mov    -0x584(%rbp),%eax
   14dd0:	48 63 d8             	movslq %eax,%rbx
   14dd3:	44 8b a5 44 f3 ff ff 	mov    -0xcbc(%rbp),%r12d
   14dda:	8b 05 5c 52 00 00    	mov    0x525c(%rip),%eax        # 1a03c <g_72>
   14de0:	44 0f b6 e8          	movzbl %al,%r13d
   14de4:	44 0f b7 b5 3e f3 ff 	movzwl -0xcc2(%rbp),%r14d
   14deb:	ff 
   14dec:	0f b7 95 3e f3 ff ff 	movzwl -0xcc2(%rbp),%edx
   14df3:	8b 85 44 f3 ff ff    	mov    -0xcbc(%rbp),%eax
   14df9:	09 d0                	or     %edx,%eax
   14dfb:	83 f8 06             	cmp    $0x6,%eax
   14dfe:	0f 97 c0             	seta   %al
   14e01:	0f b6 d0             	movzbl %al,%edx
   14e04:	8b 85 38 ff ff ff    	mov    -0xc8(%rbp),%eax
   14e0a:	0f be c0             	movsbl %al,%eax
   14e0d:	89 d6                	mov    %edx,%esi
   14e0f:	89 c7                	mov    %eax,%edi
   14e11:	e8 56 45 ff ff       	callq  936c <safe_rshift_func_int8_t_s_u>
   14e16:	66 98                	cbtw   
   14e18:	0f b7 c0             	movzwl %ax,%eax
   14e1b:	be 03 00 00 00       	mov    $0x3,%esi
   14e20:	89 c7                	mov    %eax,%edi
   14e22:	e8 21 50 ff ff       	callq  9e48 <safe_rshift_func_uint16_t_u_s>
   14e27:	0f b7 c0             	movzwl %ax,%eax
   14e2a:	be 36 1a f7 6e       	mov    $0x6ef71a36,%esi
   14e2f:	89 c7                	mov    %eax,%edi
   14e31:	e8 c9 48 ff ff       	callq  96ff <safe_div_func_int32_t_s_s>
   14e36:	8b 95 54 f3 ff ff    	mov    -0xcac(%rbp),%edx
   14e3c:	39 d0                	cmp    %edx,%eax
   14e3e:	0f 9e c0             	setle  %al
   14e41:	0f b6 d0             	movzbl %al,%edx
   14e44:	48 8b 05 5d 65 00 00 	mov    0x655d(%rip),%rax        # 1b3a8 <g_208>
   14e4b:	48 8b 00             	mov    (%rax),%rax
   14e4e:	8b 00                	mov    (%rax),%eax
   14e50:	39 c2                	cmp    %eax,%edx
   14e52:	0f 9d c0             	setge  %al
   14e55:	0f b6 c0             	movzbl %al,%eax
   14e58:	be a7 7f 1a 4f       	mov    $0x4f1a7fa7,%esi
   14e5d:	89 c7                	mov    %eax,%edi
   14e5f:	e8 9b 48 ff ff       	callq  96ff <safe_div_func_int32_t_s_s>
   14e64:	0f b7 c0             	movzwl %ax,%eax
   14e67:	44 89 f6             	mov    %r14d,%esi
   14e6a:	89 c7                	mov    %eax,%edi
   14e6c:	e8 d7 4f ff ff       	callq  9e48 <safe_rshift_func_uint16_t_u_s>
   14e71:	89 c2                	mov    %eax,%edx
   14e73:	48 8b 85 b0 f4 ff ff 	mov    -0xb50(%rbp),%rax
   14e7a:	48 8b 00             	mov    (%rax),%rax
   14e7d:	0f b6 08             	movzbl (%rax),%ecx
   14e80:	48 8b 85 b0 f4 ff ff 	mov    -0xb50(%rbp),%rax
   14e87:	48 8b 00             	mov    (%rax),%rax
   14e8a:	31 ca                	xor    %ecx,%edx
   14e8c:	88 10                	mov    %dl,(%rax)
   14e8e:	0f b6 10             	movzbl (%rax),%edx
   14e91:	48 8b 85 b8 f4 ff ff 	mov    -0xb48(%rbp),%rax
   14e98:	88 10                	mov    %dl,(%rax)
   14e9a:	48 8b 85 b8 f4 ff ff 	mov    -0xb48(%rbp),%rax
   14ea1:	0f b6 00             	movzbl (%rax),%eax
   14ea4:	0f b6 c0             	movzbl %al,%eax
   14ea7:	44 89 ee             	mov    %r13d,%esi
   14eaa:	89 c7                	mov    %eax,%edi
   14eac:	e8 fd 4c ff ff       	callq  9bae <safe_mod_func_uint8_t_u_u>
   14eb1:	48 8b 05 10 65 00 00 	mov    0x6510(%rip),%rax        # 1b3c8 <g_379>
   14eb8:	48 85 c0             	test   %rax,%rax
   14ebb:	0f 95 c0             	setne  %al
   14ebe:	0f b6 c0             	movzbl %al,%eax
   14ec1:	44 89 e6             	mov    %r12d,%esi
   14ec4:	89 c7                	mov    %eax,%edi
   14ec6:	e8 a1 44 ff ff       	callq  936c <safe_rshift_func_int8_t_s_u>
   14ecb:	48 0f be c0          	movsbq %al,%rax
   14ecf:	48 89 de             	mov    %rbx,%rsi
   14ed2:	48 89 c7             	mov    %rax,%rdi
   14ed5:	e8 1d 4b ff ff       	callq  99f7 <safe_div_func_int64_t_s_s>
   14eda:	48 85 c0             	test   %rax,%rax
   14edd:	74 07                	je     14ee6 <func_56+0x1013>
   14edf:	b8 01 00 00 00       	mov    $0x1,%eax
   14ee4:	eb 05                	jmp    14eeb <func_56+0x1018>
   14ee6:	b8 00 00 00 00       	mov    $0x0,%eax
   14eeb:	89 c2                	mov    %eax,%edx
   14eed:	8b 85 4c f3 ff ff    	mov    -0xcb4(%rbp),%eax
   14ef3:	89 d6                	mov    %edx,%esi
   14ef5:	89 c7                	mov    %eax,%edi
   14ef7:	e8 01 50 ff ff       	callq  9efd <safe_mod_func_uint32_t_u_u>
   14efc:	34 84                	xor    $0x84,%al
   14efe:	89 c0                	mov    %eax,%eax
   14f00:	89 c2                	mov    %eax,%edx
   14f02:	8b 85 50 f3 ff ff    	mov    -0xcb0(%rbp),%eax
   14f08:	09 d0                	or     %edx,%eax
   14f0a:	89 85 50 f3 ff ff    	mov    %eax,-0xcb0(%rbp)
   14f10:	48 8b 85 c0 f4 ff ff 	mov    -0xb40(%rbp),%rax
   14f17:	c7 00 01 00 00 00    	movl   $0x1,(%rax)
   14f1d:	8b 05 dd 52 00 00    	mov    0x52dd(%rip),%eax        # 1a200 <g_392>
   14f23:	83 e8 01             	sub    $0x1,%eax
   14f26:	89 05 d4 52 00 00    	mov    %eax,0x52d4(%rip)        # 1a200 <g_392>
   14f2c:	e9 e1 00 00 00       	jmpq   15012 <func_56+0x113f>
   14f31:	48 8d 85 b0 f9 ff ff 	lea    -0x650(%rbp),%rax
   14f38:	48 05 dc 00 00 00    	add    $0xdc,%rax
   14f3e:	48 89 85 98 f4 ff ff 	mov    %rax,-0xb68(%rbp)
   14f45:	48 c7 85 60 f6 ff ff 	movq   $0x0,-0x9a0(%rbp)
   14f4c:	00 00 00 00 
   14f50:	48 8d 85 70 f5 ff ff 	lea    -0xa90(%rbp),%rax
   14f57:	48 83 c0 14          	add    $0x14,%rax
   14f5b:	48 89 85 68 f6 ff ff 	mov    %rax,-0x998(%rbp)
   14f62:	48 c7 85 70 f6 ff ff 	movq   $0x0,-0x990(%rbp)
   14f69:	00 00 00 00 
   14f6d:	48 c7 85 78 f6 ff ff 	movq   $0x0,-0x988(%rbp)
   14f74:	00 00 00 00 
   14f78:	48 8d 85 70 f5 ff ff 	lea    -0xa90(%rbp),%rax
   14f7f:	48 83 c0 14          	add    $0x14,%rax
   14f83:	48 89 85 80 f6 ff ff 	mov    %rax,-0x980(%rbp)
   14f8a:	48 c7 85 88 f6 ff ff 	movq   $0x0,-0x978(%rbp)
   14f91:	00 00 00 00 
   14f95:	48 8d 85 70 f5 ff ff 	lea    -0xa90(%rbp),%rax
   14f9c:	48 83 c0 14          	add    $0x14,%rax
   14fa0:	48 89 85 90 f6 ff ff 	mov    %rax,-0x970(%rbp)
   14fa7:	48 c7 85 98 f6 ff ff 	movq   $0x0,-0x968(%rbp)
   14fae:	00 00 00 00 
   14fb2:	48 c7 85 a0 f6 ff ff 	movq   $0x0,-0x960(%rbp)
   14fb9:	00 00 00 00 
   14fbd:	48 8d 85 70 f5 ff ff 	lea    -0xa90(%rbp),%rax
   14fc4:	48 83 c0 14          	add    $0x14,%rax
   14fc8:	48 89 85 a8 f6 ff ff 	mov    %rax,-0x958(%rbp)
   14fcf:	0f b7 05 2e 52 00 00 	movzwl 0x522e(%rip),%eax        # 1a204 <g_397>
   14fd6:	83 c0 01             	add    $0x1,%eax
   14fd9:	66 89 05 24 52 00 00 	mov    %ax,0x5224(%rip)        # 1a204 <g_397>
   14fe0:	48 8b 05 c1 63 00 00 	mov    0x63c1(%rip),%rax        # 1b3a8 <g_208>
   14fe7:	48 8b 10             	mov    (%rax),%rdx
   14fea:	48 8b 05 af 63 00 00 	mov    0x63af(%rip),%rax        # 1b3a0 <g_209>
   14ff1:	8b 12                	mov    (%rdx),%edx
   14ff3:	89 10                	mov    %edx,(%rax)
   14ff5:	48 8b 85 80 f4 ff ff 	mov    -0xb80(%rbp),%rax
   14ffc:	48 89 85 a8 f3 ff ff 	mov    %rax,-0xc58(%rbp)
   15003:	66 83 bd 3a f3 ff ff 	cmpw   $0x0,-0xcc6(%rbp)
   1500a:	00 
   1500b:	74 05                	je     15012 <func_56+0x113f>
   1500d:	e9 6b f6 ff ff       	jmpq   1467d <func_56+0x7aa>
   15012:	bf d4 ff ff ff       	mov    $0xffffffd4,%edi
   15017:	e8 a3 41 ff ff       	callq  91bf <safe_unary_minus_func_int8_t_s>
   1501c:	44 0f be e8          	movsbl %al,%r13d
   15020:	48 8b 85 28 f3 ff ff 	mov    -0xcd8(%rbp),%rax
   15027:	8b 10                	mov    (%rax),%edx
   15029:	48 8b 05 78 63 00 00 	mov    0x6378(%rip),%rax        # 1b3a8 <g_208>
   15030:	48 8b 00             	mov    (%rax),%rax
   15033:	8b 00                	mov    (%rax),%eax
   15035:	21 d0                	and    %edx,%eax
   15037:	85 c0                	test   %eax,%eax
   15039:	0f 85 f1 00 00 00    	jne    15130 <func_56+0x125d>
   1503f:	0f b6 05 a6 51 00 00 	movzbl 0x51a6(%rip),%eax        # 1a1ec <g_378+0xec>
   15046:	0f b6 d8             	movzbl %al,%ebx
   15049:	8b 85 44 f3 ff ff    	mov    -0xcbc(%rbp),%eax
   1504f:	44 0f bf e0          	movswl %ax,%r12d
   15053:	48 8b 85 90 f4 ff ff 	mov    -0xb70(%rbp),%rax
   1505a:	8b 10                	mov    (%rax),%edx
   1505c:	8b 85 44 f3 ff ff    	mov    -0xcbc(%rbp),%eax
   15062:	31 c2                	xor    %eax,%edx
   15064:	48 8b 85 90 f4 ff ff 	mov    -0xb70(%rbp),%rax
   1506b:	89 10                	mov    %edx,(%rax)
   1506d:	48 8b 85 80 f4 ff ff 	mov    -0xb80(%rbp),%rax
   15074:	48 8b 00             	mov    (%rax),%rax
   15077:	8b 00                	mov    (%rax),%eax
   15079:	48 63 d0             	movslq %eax,%rdx
   1507c:	0f b7 05 bd 4f 00 00 	movzwl 0x4fbd(%rip),%eax        # 1a040 <g_75>
   15083:	0f b7 c0             	movzwl %ax,%eax
   15086:	48 89 d6             	mov    %rdx,%rsi
   15089:	48 89 c7             	mov    %rax,%rdi
   1508c:	e8 17 48 ff ff       	callq  98a8 <safe_sub_func_int64_t_s_s>
   15091:	30 85 36 f3 ff ff    	xor    %al,-0xcca(%rbp)
   15097:	66 0f be 95 37 f3 ff 	movsbw -0xcc9(%rbp),%dx
   1509e:	ff 
   1509f:	48 8b 85 a8 f3 ff ff 	mov    -0xc58(%rbp),%rax
   150a6:	48 8b 00             	mov    (%rax),%rax
   150a9:	8b 00                	mov    (%rax),%eax
   150ab:	31 d0                	xor    %edx,%eax
   150ad:	98                   	cwtl   
   150ae:	44 89 e6             	mov    %r12d,%esi
   150b1:	89 c7                	mov    %eax,%edi
   150b3:	e8 fb 42 ff ff       	callq  93b3 <safe_add_func_int16_t_s_s>
   150b8:	48 89 de             	mov    %rbx,%rsi
   150bb:	48 c7 c7 fd ff ff ff 	mov    $0xfffffffffffffffd,%rdi
   150c2:	e8 7a 47 ff ff       	callq  9841 <safe_add_func_int64_t_s_s>
   150c7:	48 8b 85 a8 f3 ff ff 	mov    -0xc58(%rbp),%rax
   150ce:	48 8b 00             	mov    (%rax),%rax
   150d1:	8b 00                	mov    (%rax),%eax
   150d3:	be 02 00 00 00       	mov    $0x2,%esi
   150d8:	89 c7                	mov    %eax,%edi
   150da:	e8 d9 4d ff ff       	callq  9eb8 <safe_add_func_uint32_t_u_u>
   150df:	85 c0                	test   %eax,%eax
   150e1:	0f 94 c2             	sete   %dl
   150e4:	8b 05 36 8b 00 00    	mov    0x8b36(%rip),%eax        # 1dc20 <g_272>
   150ea:	8d 70 01             	lea    0x1(%rax),%esi
   150ed:	0f b6 c2             	movzbl %dl,%eax
   150f0:	89 f2                	mov    %esi,%edx
   150f2:	48 8d 0c d5 00 00 00 	lea    0x0(,%rdx,8),%rcx
   150f9:	00 
   150fa:	48 8d 15 9f 4f 00 00 	lea    0x4f9f(%rip),%rdx        # 1a0a0 <g_171>
   15101:	48 89 04 11          	mov    %rax,(%rcx,%rdx,1)
   15105:	89 f0                	mov    %esi,%eax
   15107:	48 8d 14 c5 00 00 00 	lea    0x0(,%rax,8),%rdx
   1510e:	00 
   1510f:	48 8d 05 8a 4f 00 00 	lea    0x4f8a(%rip),%rax        # 1a0a0 <g_171>
   15116:	48 8b 14 02          	mov    (%rdx,%rax,1),%rdx
   1511a:	8b 85 68 f3 ff ff    	mov    -0xc98(%rbp),%eax
   15120:	48 89 d6             	mov    %rdx,%rsi
   15123:	48 89 c7             	mov    %rax,%rdi
   15126:	e8 16 47 ff ff       	callq  9841 <safe_add_func_int64_t_s_s>
   1512b:	48 85 c0             	test   %rax,%rax
   1512e:	74 07                	je     15137 <func_56+0x1264>
   15130:	b8 01 00 00 00       	mov    $0x1,%eax
   15135:	eb 05                	jmp    1513c <func_56+0x1269>
   15137:	b8 00 00 00 00       	mov    $0x0,%eax
   1513c:	83 f8 73             	cmp    $0x73,%eax
   1513f:	0f 94 c0             	sete   %al
   15142:	0f b6 d0             	movzbl %al,%edx
   15145:	48 8b 85 88 f4 ff ff 	mov    -0xb78(%rbp),%rax
   1514c:	0f b6 00             	movzbl (%rax),%eax
   1514f:	8d 48 01             	lea    0x1(%rax),%ecx
   15152:	48 8b 85 88 f4 ff ff 	mov    -0xb78(%rbp),%rax
   15159:	88 08                	mov    %cl,(%rax)
   1515b:	48 8b 85 88 f4 ff ff 	mov    -0xb78(%rbp),%rax
   15162:	0f b6 00             	movzbl (%rax),%eax
   15165:	0f b6 c0             	movzbl %al,%eax
   15168:	89 d6                	mov    %edx,%esi
   1516a:	89 c7                	mov    %eax,%edi
   1516c:	e8 07 4a ff ff       	callq  9b78 <safe_sub_func_uint8_t_u_u>
   15171:	48 8b 85 28 f3 ff ff 	mov    -0xcd8(%rbp),%rax
   15178:	8b 00                	mov    (%rax),%eax
   1517a:	89 c7                	mov    %eax,%edi
   1517c:	e8 15 44 ff ff       	callq  9596 <safe_unary_minus_func_int32_t_s>
   15181:	41 39 c5             	cmp    %eax,%r13d
   15184:	0f 95 c0             	setne  %al
   15187:	0f b6 c0             	movzbl %al,%eax
   1518a:	be 05 00 00 00       	mov    $0x5,%esi
   1518f:	89 c7                	mov    %eax,%edi
   15191:	e8 0b 41 ff ff       	callq  92a1 <safe_lshift_func_int8_t_s_s>
   15196:	84 c0                	test   %al,%al
   15198:	74 11                	je     151ab <func_56+0x12d8>
   1519a:	8b 05 60 50 00 00    	mov    0x5060(%rip),%eax        # 1a200 <g_392>
   151a0:	85 c0                	test   %eax,%eax
   151a2:	74 07                	je     151ab <func_56+0x12d8>
   151a4:	ba 01 00 00 00       	mov    $0x1,%edx
   151a9:	eb 05                	jmp    151b0 <func_56+0x12dd>
   151ab:	ba 00 00 00 00       	mov    $0x0,%edx
   151b0:	48 8b 85 a8 f3 ff ff 	mov    -0xc58(%rbp),%rax
   151b7:	48 8b 00             	mov    (%rax),%rax
   151ba:	89 10                	mov    %edx,(%rax)
   151bc:	c7 85 68 f3 ff ff 00 	movl   $0x0,-0xc98(%rbp)
   151c3:	00 00 00 
   151c6:	e9 51 04 00 00       	jmpq   1561c <func_56+0x1749>
   151cb:	c7 85 8c f3 ff ff 82 	movl   $0xd3f83382,-0xc74(%rbp)
   151d2:	33 f8 d3 
   151d5:	c7 85 90 f3 ff ff 8a 	movl   $0x391c3c8a,-0xc70(%rbp)
   151dc:	3c 1c 39 
   151df:	c7 85 10 f6 ff ff 61 	movl   $0x10ff5b61,-0x9f0(%rbp)
   151e6:	5b ff 10 
   151e9:	c7 85 14 f6 ff ff c7 	movl   $0xce2a92c7,-0x9ec(%rbp)
   151f0:	92 2a ce 
   151f3:	c7 85 18 f6 ff ff a0 	movl   $0xbcd6cea0,-0x9e8(%rbp)
   151fa:	ce d6 bc 
   151fd:	c7 85 1c f6 ff ff c7 	movl   $0xce2a92c7,-0x9e4(%rbp)
   15204:	92 2a ce 
   15207:	c7 85 20 f6 ff ff 61 	movl   $0x10ff5b61,-0x9e0(%rbp)
   1520e:	5b ff 10 
   15211:	c7 85 24 f6 ff ff ff 	movl   $0xffffffff,-0x9dc(%rbp)
   15218:	ff ff ff 
   1521b:	c7 85 28 f6 ff ff ff 	movl   $0xffffffff,-0x9d8(%rbp)
   15222:	ff ff ff 
   15225:	c7 85 2c f6 ff ff 61 	movl   $0x10ff5b61,-0x9d4(%rbp)
   1522c:	5b ff 10 
   1522f:	c7 85 30 f6 ff ff c7 	movl   $0xce2a92c7,-0x9d0(%rbp)
   15236:	92 2a ce 
   15239:	c7 85 34 f6 ff ff a0 	movl   $0xbcd6cea0,-0x9cc(%rbp)
   15240:	ce d6 bc 
   15243:	c7 85 38 f6 ff ff c7 	movl   $0xce2a92c7,-0x9c8(%rbp)
   1524a:	92 2a ce 
   1524d:	c7 85 3c f6 ff ff 61 	movl   $0x10ff5b61,-0x9c4(%rbp)
   15254:	5b ff 10 
   15257:	c7 85 40 f6 ff ff ff 	movl   $0xffffffff,-0x9c0(%rbp)
   1525e:	ff ff ff 
   15261:	c7 85 44 f6 ff ff ff 	movl   $0xffffffff,-0x9bc(%rbp)
   15268:	ff ff ff 
   1526b:	c7 85 48 f6 ff ff 61 	movl   $0x10ff5b61,-0x9b8(%rbp)
   15272:	5b ff 10 
   15275:	c7 85 4c f6 ff ff c7 	movl   $0xce2a92c7,-0x9b4(%rbp)
   1527c:	92 2a ce 
   1527f:	c7 85 50 f6 ff ff a0 	movl   $0xbcd6cea0,-0x9b0(%rbp)
   15286:	ce d6 bc 
   15289:	c7 85 54 f6 ff ff c7 	movl   $0xce2a92c7,-0x9ac(%rbp)
   15290:	92 2a ce 
   15293:	c7 05 87 89 00 00 00 	movl   $0x0,0x8987(%rip)        # 1dc24 <g_291>
   1529a:	00 00 00 
   1529d:	e9 83 00 00 00       	jmpq   15325 <func_56+0x1452>
   152a2:	48 8d 85 a8 f3 ff ff 	lea    -0xc58(%rbp),%rax
   152a9:	48 89 85 d0 f3 ff ff 	mov    %rax,-0xc30(%rbp)
   152b0:	48 8d 85 d0 f3 ff ff 	lea    -0xc30(%rbp),%rax
   152b7:	48 89 85 08 f5 ff ff 	mov    %rax,-0xaf8(%rbp)
   152be:	48 8b 85 08 f5 ff ff 	mov    -0xaf8(%rbp),%rax
   152c5:	48 8d 15 dc 60 00 00 	lea    0x60dc(%rip),%rdx        # 1b3a8 <g_208>
   152cc:	48 89 10             	mov    %rdx,(%rax)
   152cf:	48 8b 05 d2 60 00 00 	mov    0x60d2(%rip),%rax        # 1b3a8 <g_208>
   152d6:	48 8b 00             	mov    (%rax),%rax
   152d9:	c7 00 01 00 00 00    	movl   $0x1,(%rax)
   152df:	48 8b 05 2a 61 00 00 	mov    0x612a(%rip),%rax        # 1b410 <g_431>
   152e6:	8b 08                	mov    (%rax),%ecx
   152e8:	48 8b 95 d0 f3 ff ff 	mov    -0xc30(%rbp),%rdx
   152ef:	48 8b 12             	mov    (%rdx),%rdx
   152f2:	48 8b 12             	mov    (%rdx),%rdx
   152f5:	8b 12                	mov    (%rdx),%edx
   152f7:	31 ca                	xor    %ecx,%edx
   152f9:	89 10                	mov    %edx,(%rax)
   152fb:	48 8b 85 28 f3 ff ff 	mov    -0xcd8(%rbp),%rax
   15302:	8b 00                	mov    (%rax),%eax
   15304:	85 c0                	test   %eax,%eax
   15306:	74 11                	je     15319 <func_56+0x1446>
   15308:	8b 05 16 89 00 00    	mov    0x8916(%rip),%eax        # 1dc24 <g_291>
   1530e:	83 c0 01             	add    $0x1,%eax
   15311:	89 05 0d 89 00 00    	mov    %eax,0x890d(%rip)        # 1dc24 <g_291>
   15317:	eb 0c                	jmp    15325 <func_56+0x1452>
   15319:	48 8d 05 10 4d 00 00 	lea    0x4d10(%rip),%rax        # 1a030 <g_5>
   15320:	e9 93 04 00 00       	jmpq   157b8 <func_56+0x18e5>
   15325:	8b 05 f9 88 00 00    	mov    0x88f9(%rip),%eax        # 1dc24 <g_291>
   1532b:	83 f8 05             	cmp    $0x5,%eax
   1532e:	0f 86 6e ff ff ff    	jbe    152a2 <func_56+0x13cf>
   15334:	c7 05 e6 88 00 00 01 	movl   $0x1,0x88e6(%rip)        # 1dc24 <g_291>
   1533b:	00 00 00 
   1533e:	eb 4a                	jmp    1538a <func_56+0x14b7>
   15340:	48 8b 85 30 f4 ff ff 	mov    -0xbd0(%rbp),%rax
   15347:	48 8b 00             	mov    (%rax),%rax
   1534a:	48 8b 00             	mov    (%rax),%rax
   1534d:	8b 10                	mov    (%rax),%edx
   1534f:	8b 85 68 f3 ff ff    	mov    -0xc98(%rbp),%eax
   15355:	48 8d 0c c5 00 00 00 	lea    0x0(,%rax,8),%rcx
   1535c:	00 
   1535d:	48 8d 05 3c 4d 00 00 	lea    0x4d3c(%rip),%rax        # 1a0a0 <g_171>
   15364:	48 8b 04 01          	mov    (%rcx,%rax,1),%rax
   15368:	89 c1                	mov    %eax,%ecx
   1536a:	48 8b 85 30 f4 ff ff 	mov    -0xbd0(%rbp),%rax
   15371:	48 8b 00             	mov    (%rax),%rax
   15374:	48 8b 00             	mov    (%rax),%rax
   15377:	21 ca                	and    %ecx,%edx
   15379:	89 10                	mov    %edx,(%rax)
   1537b:	8b 05 a3 88 00 00    	mov    0x88a3(%rip),%eax        # 1dc24 <g_291>
   15381:	83 c0 01             	add    $0x1,%eax
   15384:	89 05 9a 88 00 00    	mov    %eax,0x889a(%rip)        # 1dc24 <g_291>
   1538a:	8b 05 94 88 00 00    	mov    0x8894(%rip),%eax        # 1dc24 <g_291>
   15390:	83 f8 04             	cmp    $0x4,%eax
   15393:	76 ab                	jbe    15340 <func_56+0x146d>
   15395:	c6 85 37 f3 ff ff 04 	movb   $0x4,-0xcc9(%rbp)
   1539c:	e9 64 02 00 00       	jmpq   15605 <func_56+0x1732>
   153a1:	c7 85 94 f3 ff ff ff 	movl   $0xffffffff,-0xc6c(%rbp)
   153a8:	ff ff ff 
   153ab:	48 8d 85 48 f3 ff ff 	lea    -0xcb8(%rbp),%rax
   153b2:	48 89 85 f8 f4 ff ff 	mov    %rax,-0xb08(%rbp)
   153b9:	48 8d 85 b0 fc ff ff 	lea    -0x350(%rbp),%rax
   153c0:	48 05 14 02 00 00    	add    $0x214,%rax
   153c6:	48 89 85 00 f5 ff ff 	mov    %rax,-0xb00(%rbp)
   153cd:	48 c7 85 60 f6 ff ff 	movq   $0x0,-0x9a0(%rbp)
   153d4:	00 00 00 00 
   153d8:	48 c7 85 68 f6 ff ff 	movq   $0x0,-0x998(%rbp)
   153df:	00 00 00 00 
   153e3:	48 c7 85 70 f6 ff ff 	movq   $0x0,-0x990(%rbp)
   153ea:	00 00 00 00 
   153ee:	48 c7 85 78 f6 ff ff 	movq   $0x0,-0x988(%rbp)
   153f5:	00 00 00 00 
   153f9:	48 c7 85 80 f6 ff ff 	movq   $0x0,-0x980(%rbp)
   15400:	00 00 00 00 
   15404:	48 c7 85 88 f6 ff ff 	movq   $0x0,-0x978(%rbp)
   1540b:	00 00 00 00 
   1540f:	48 c7 85 90 f6 ff ff 	movq   $0x0,-0x970(%rbp)
   15416:	00 00 00 00 
   1541a:	48 c7 85 98 f6 ff ff 	movq   $0x0,-0x968(%rbp)
   15421:	00 00 00 00 
   15425:	48 c7 85 a0 f6 ff ff 	movq   $0x0,-0x960(%rbp)
   1542c:	00 00 00 00 
   15430:	48 c7 85 a8 f6 ff ff 	movq   $0x0,-0x958(%rbp)
   15437:	00 00 00 00 
   1543b:	8b 85 8c f3 ff ff    	mov    -0xc74(%rbp),%eax
   15441:	0f b6 c0             	movzbl %al,%eax
   15444:	89 85 24 f3 ff ff    	mov    %eax,-0xcdc(%rbp)
   1544a:	48 8b 85 30 f4 ff ff 	mov    -0xbd0(%rbp),%rax
   15451:	48 8b 00             	mov    (%rax),%rax
   15454:	48 8b 00             	mov    (%rax),%rax
   15457:	8b 00                	mov    (%rax),%eax
   15459:	0f b6 d8             	movzbl %al,%ebx
   1545c:	8b 85 94 f3 ff ff    	mov    -0xc6c(%rbp),%eax
   15462:	48 ba 5f 0d c8 a9 bc 	movabs $0xeb7da8bca9c80d5f,%rdx
   15469:	a8 7d eb 
   1546c:	48 09 c2             	or     %rax,%rdx
   1546f:	0f b7 05 22 4c 00 00 	movzwl 0x4c22(%rip),%eax        # 1a098 <g_136>
   15476:	48 0f bf c0          	movswq %ax,%rax
   1547a:	48 39 c2             	cmp    %rax,%rdx
   1547d:	0f 95 c0             	setne  %al
   15480:	44 0f b6 f0          	movzbl %al,%r14d
   15484:	48 83 bd 38 f4 ff ff 	cmpq   $0x0,-0xbc8(%rbp)
   1548b:	00 
   1548c:	0f 94 c0             	sete   %al
   1548f:	0f b6 c0             	movzbl %al,%eax
   15492:	be 03 00 00 00       	mov    $0x3,%esi
   15497:	89 c7                	mov    %eax,%edi
   15499:	e8 c5 40 ff ff       	callq  9563 <safe_rshift_func_int16_t_s_u>
   1549e:	44 0f bf f8          	movswl %ax,%r15d
   154a2:	44 8b a5 94 f3 ff ff 	mov    -0xc6c(%rbp),%r12d
   154a9:	0f b6 05 2f 4c 00 00 	movzbl 0x4c2f(%rip),%eax        # 1a0df <g_290>
   154b0:	44 0f b6 e8          	movzbl %al,%r13d
   154b4:	48 8b 85 80 f4 ff ff 	mov    -0xb80(%rbp),%rax
   154bb:	48 8b 00             	mov    (%rax),%rax
   154be:	8b 00                	mov    (%rax),%eax
   154c0:	89 c2                	mov    %eax,%edx
   154c2:	8b 85 94 f3 ff ff    	mov    -0xc6c(%rbp),%eax
   154c8:	89 d6                	mov    %edx,%esi
   154ca:	89 c7                	mov    %eax,%edi
   154cc:	e8 e7 49 ff ff       	callq  9eb8 <safe_add_func_uint32_t_u_u>
   154d1:	83 f8 fe             	cmp    $0xfffffffe,%eax
   154d4:	0f 94 c0             	sete   %al
   154d7:	0f b6 c0             	movzbl %al,%eax
   154da:	4c 89 ee             	mov    %r13,%rsi
   154dd:	48 89 c7             	mov    %rax,%rdi
   154e0:	e8 c3 43 ff ff       	callq  98a8 <safe_sub_func_int64_t_s_s>
   154e5:	48 8b 95 80 f4 ff ff 	mov    -0xb80(%rbp),%rdx
   154ec:	48 8b 12             	mov    (%rdx),%rdx
   154ef:	8b 12                	mov    (%rdx),%edx
   154f1:	48 63 d2             	movslq %edx,%rdx
   154f4:	48 09 d0             	or     %rdx,%rax
   154f7:	4c 89 e6             	mov    %r12,%rsi
   154fa:	48 89 c7             	mov    %rax,%rdi
   154fd:	e8 b2 44 ff ff       	callq  99b4 <safe_mod_func_int64_t_s_s>
   15502:	44 09 f8             	or     %r15d,%eax
   15505:	89 c2                	mov    %eax,%edx
   15507:	48 8b 85 20 f4 ff ff 	mov    -0xbe0(%rbp),%rax
   1550e:	89 10                	mov    %edx,(%rax)
   15510:	48 8b 85 20 f4 ff ff 	mov    -0xbe0(%rbp),%rax
   15517:	8b 00                	mov    (%rax),%eax
   15519:	41 39 c6             	cmp    %eax,%r14d
   1551c:	0f 95 c0             	setne  %al
   1551f:	0f b6 c0             	movzbl %al,%eax
   15522:	be 8c 00 00 00       	mov    $0x8c,%esi
   15527:	89 c7                	mov    %eax,%edi
   15529:	e8 80 46 ff ff       	callq  9bae <safe_mod_func_uint8_t_u_u>
   1552e:	f7 d0                	not    %eax
   15530:	0f b6 c0             	movzbl %al,%eax
   15533:	89 de                	mov    %ebx,%esi
   15535:	89 c7                	mov    %eax,%edi
   15537:	e8 9f 46 ff ff       	callq  9bdb <safe_div_func_uint8_t_u_u>
   1553c:	48 8b 8d 28 f3 ff ff 	mov    -0xcd8(%rbp),%rcx
   15543:	0f b6 05 65 4c 00 00 	movzbl 0x4c65(%rip),%eax        # 1a1af <g_378+0xaf>
   1554a:	0f b6 d0             	movzbl %al,%edx
   1554d:	48 8b 85 98 f3 ff ff 	mov    -0xc68(%rbp),%rax
   15554:	8b b5 48 f3 ff ff    	mov    -0xcb8(%rbp),%esi
   1555a:	89 f7                	mov    %esi,%edi
   1555c:	48 8b b5 30 f4 ff ff 	mov    -0xbd0(%rbp),%rsi
   15563:	48 8b 1e             	mov    (%rsi),%rbx
   15566:	44 8b 85 24 f3 ff ff 	mov    -0xcdc(%rbp),%r8d
   1556d:	48 89 c6             	mov    %rax,%rsi
   15570:	e8 69 02 00 00       	callq  157de <func_58>
   15575:	48 89 03             	mov    %rax,(%rbx)
   15578:	8b 85 44 f3 ff ff    	mov    -0xcbc(%rbp),%eax
   1557e:	f7 d0                	not    %eax
   15580:	89 c6                	mov    %eax,%esi
   15582:	bf ff ff ff ff       	mov    $0xffffffff,%edi
   15587:	e8 2a 40 ff ff       	callq  95b6 <safe_add_func_int32_t_s_s>
   1558c:	85 c0                	test   %eax,%eax
   1558e:	74 3c                	je     155cc <func_56+0x16f9>
   15590:	48 8b 85 a8 f3 ff ff 	mov    -0xc58(%rbp),%rax
   15597:	48 8b 00             	mov    (%rax),%rax
   1559a:	8b 10                	mov    (%rax),%edx
   1559c:	48 8b 85 28 f3 ff ff 	mov    -0xcd8(%rbp),%rax
   155a3:	48 85 c0             	test   %rax,%rax
   155a6:	0f 95 c0             	setne  %al
   155a9:	0f b6 c0             	movzbl %al,%eax
   155ac:	89 d6                	mov    %edx,%esi
   155ae:	89 c7                	mov    %eax,%edi
   155b0:	e8 80 3d ff ff       	callq  9335 <safe_rshift_func_int8_t_s_s>
   155b5:	0f be d0             	movsbl %al,%edx
   155b8:	48 8b 85 20 f4 ff ff 	mov    -0xbe0(%rbp),%rax
   155bf:	89 10                	mov    %edx,(%rax)
   155c1:	48 8b 85 20 f4 ff ff 	mov    -0xbe0(%rbp),%rax
   155c8:	8b 00                	mov    (%rax),%eax
   155ca:	85 c0                	test   %eax,%eax
   155cc:	48 8b 95 28 f3 ff ff 	mov    -0xcd8(%rbp),%rdx
   155d3:	48 8b 85 a8 f3 ff ff 	mov    -0xc58(%rbp),%rax
   155da:	48 8b 00             	mov    (%rax),%rax
   155dd:	8b 12                	mov    (%rdx),%edx
   155df:	89 10                	mov    %edx,(%rax)
   155e1:	83 ad 60 f3 ff ff 01 	subl   $0x1,-0xca0(%rbp)
   155e8:	48 8b 85 28 f3 ff ff 	mov    -0xcd8(%rbp),%rax
   155ef:	8b 00                	mov    (%rax),%eax
   155f1:	85 c0                	test   %eax,%eax
   155f3:	75 1f                	jne    15614 <func_56+0x1741>
   155f5:	0f b6 85 37 f3 ff ff 	movzbl -0xcc9(%rbp),%eax
   155fc:	83 e8 01             	sub    $0x1,%eax
   155ff:	88 85 37 f3 ff ff    	mov    %al,-0xcc9(%rbp)
   15605:	80 bd 37 f3 ff ff 00 	cmpb   $0x0,-0xcc9(%rbp)
   1560c:	0f 89 8f fd ff ff    	jns    153a1 <func_56+0x14ce>
   15612:	eb 01                	jmp    15615 <func_56+0x1742>
   15614:	90                   	nop
   15615:	83 85 68 f3 ff ff 01 	addl   $0x1,-0xc98(%rbp)
   1561c:	83 bd 68 f3 ff ff 05 	cmpl   $0x5,-0xc98(%rbp)
   15623:	0f 86 a2 fb ff ff    	jbe    151cb <func_56+0x12f8>
   15629:	8b 05 f1 85 00 00    	mov    0x85f1(%rip),%eax        # 1dc20 <g_272>
   1562f:	83 c0 01             	add    $0x1,%eax
   15632:	89 05 e8 85 00 00    	mov    %eax,0x85e8(%rip)        # 1dc20 <g_272>
   15638:	8b 05 e2 85 00 00    	mov    0x85e2(%rip),%eax        # 1dc20 <g_272>
   1563e:	83 f8 04             	cmp    $0x4,%eax
   15641:	0f 86 93 f4 ff ff    	jbe    14ada <func_56+0xc07>
   15647:	48 8b 15 52 5d 00 00 	mov    0x5d52(%rip),%rdx        # 1b3a0 <g_209>
   1564e:	48 8b 85 28 f3 ff ff 	mov    -0xcd8(%rbp),%rax
   15655:	8b 12                	mov    (%rdx),%edx
   15657:	89 10                	mov    %edx,(%rax)
   15659:	48 8b 85 28 f3 ff ff 	mov    -0xcd8(%rbp),%rax
   15660:	c7 00 ff ff ff ff    	movl   $0xffffffff,(%rax)
   15666:	48 8b 85 a8 f3 ff ff 	mov    -0xc58(%rbp),%rax
   1566d:	48 8b 00             	mov    (%rax),%rax
   15670:	8b 00                	mov    (%rax),%eax
   15672:	be 01 00 00 00       	mov    $0x1,%esi
   15677:	89 c7                	mov    %eax,%edi
   15679:	e8 a7 48 ff ff       	callq  9f25 <safe_div_func_uint32_t_u_u>
   1567e:	89 c3                	mov    %eax,%ebx
   15680:	48 8b 85 c0 f3 ff ff 	mov    -0xc40(%rbp),%rax
   15687:	48 8d 15 48 4a 00 00 	lea    0x4a48(%rip),%rdx        # 1a0d6 <g_172+0x6>
   1568e:	48 89 10             	mov    %rdx,(%rax)
   15691:	be 01 00 00 00       	mov    $0x1,%esi
   15696:	bf 00 00 00 00       	mov    $0x0,%edi
   1569b:	e8 8e 49 ff ff       	callq  a02e <safe_add_func_uint64_t_u_u>
   156a0:	0f bf d0             	movswl %ax,%edx
   156a3:	48 8b 85 a8 f3 ff ff 	mov    -0xc58(%rbp),%rax
   156aa:	48 8b 00             	mov    (%rax),%rax
   156ad:	8b 00                	mov    (%rax),%eax
   156af:	89 c1                	mov    %eax,%ecx
   156b1:	48 8b 85 f0 f3 ff ff 	mov    -0xc10(%rbp),%rax
   156b8:	66 89 08             	mov    %cx,(%rax)
   156bb:	48 8b 85 f0 f3 ff ff 	mov    -0xc10(%rbp),%rax
   156c2:	0f b7 00             	movzwl (%rax),%eax
   156c5:	8b 8d 00 fb ff ff    	mov    -0x500(%rbp),%ecx
   156cb:	98                   	cwtl   
   156cc:	21 c8                	and    %ecx,%eax
   156ce:	89 85 00 fb ff ff    	mov    %eax,-0x500(%rbp)
   156d4:	8b 85 00 fb ff ff    	mov    -0x500(%rbp),%eax
   156da:	98                   	cwtl   
   156db:	89 d6                	mov    %edx,%esi
   156dd:	89 c7                	mov    %eax,%edi
   156df:	e8 cf 3c ff ff       	callq  93b3 <safe_add_func_int16_t_s_s>
   156e4:	48 8b 85 f8 f3 ff ff 	mov    -0xc08(%rbp),%rax
   156eb:	48 8b 00             	mov    (%rax),%rax
   156ee:	89 da                	mov    %ebx,%edx
   156f0:	48 31 c2             	xor    %rax,%rdx
   156f3:	48 8b 85 f8 f3 ff ff 	mov    -0xc08(%rbp),%rax
   156fa:	48 89 10             	mov    %rdx,(%rax)
   156fd:	48 8b 85 f8 f3 ff ff 	mov    -0xc08(%rbp),%rax
   15704:	48 8b 10             	mov    (%rax),%rdx
   15707:	48 8b 85 a8 f3 ff ff 	mov    -0xc58(%rbp),%rax
   1570e:	48 8b 00             	mov    (%rax),%rax
   15711:	8b 00                	mov    (%rax),%eax
   15713:	48 98                	cltq   
   15715:	48 39 c2             	cmp    %rax,%rdx
   15718:	0f 96 c0             	setbe  %al
   1571b:	0f b6 d0             	movzbl %al,%edx
   1571e:	0f b7 05 e1 4a 00 00 	movzwl 0x4ae1(%rip),%eax        # 1a206 <g_475>
   15725:	98                   	cwtl   
   15726:	39 c2                	cmp    %eax,%edx
   15728:	0f 9c c0             	setl   %al
   1572b:	0f b6 d0             	movzbl %al,%edx
   1572e:	48 8b 85 a8 f3 ff ff 	mov    -0xc58(%rbp),%rax
   15735:	48 8b 00             	mov    (%rax),%rax
   15738:	8b 00                	mov    (%rax),%eax
   1573a:	39 c2                	cmp    %eax,%edx
   1573c:	c7 85 74 f3 ff ff 00 	movl   $0x0,-0xc8c(%rbp)
   15743:	00 00 00 
   15746:	48 8b 85 08 f4 ff ff 	mov    -0xbf8(%rbp),%rax
   1574d:	48 8d 95 28 f3 ff ff 	lea    -0xcd8(%rbp),%rdx
   15754:	48 89 10             	mov    %rdx,(%rax)
   15757:	48 8b 15 42 5c 00 00 	mov    0x5c42(%rip),%rdx        # 1b3a0 <g_209>
   1575e:	48 8b 85 28 f3 ff ff 	mov    -0xcd8(%rbp),%rax
   15765:	8b 12                	mov    (%rdx),%edx
   15767:	89 10                	mov    %edx,(%rax)
   15769:	48 8d 85 c0 f3 ff ff 	lea    -0xc40(%rbp),%rax
   15770:	48 89 05 71 60 00 00 	mov    %rax,0x6071(%rip)        # 1b7e8 <g_490+0x368>
   15777:	48 8d 05 b2 48 00 00 	lea    0x48b2(%rip),%rax        # 1a030 <g_5>
   1577e:	eb 38                	jmp    157b8 <func_56+0x18e5>
   15780:	48 8b 95 28 f3 ff ff 	mov    -0xcd8(%rbp),%rdx
   15787:	48 8b 85 28 f3 ff ff 	mov    -0xcd8(%rbp),%rax
   1578e:	8b 12                	mov    (%rdx),%edx
   15790:	89 10                	mov    %edx,(%rax)
   15792:	48 8b 05 87 5c 00 00 	mov    0x5c87(%rip),%rax        # 1b420 <g_466>
   15799:	48 89 05 80 5c 00 00 	mov    %rax,0x5c80(%rip)        # 1b420 <g_466>
   157a0:	48 8b 05 89 5c 00 00 	mov    0x5c89(%rip),%rax        # 1b430 <g_468>
   157a7:	48 8b 15 72 5c 00 00 	mov    0x5c72(%rip),%rdx        # 1b420 <g_466>
   157ae:	48 89 10             	mov    %rdx,(%rax)
   157b1:	48 8d 05 78 48 00 00 	lea    0x4878(%rip),%rax        # 1a030 <g_5>
   157b8:	48 8b 5d c8          	mov    -0x38(%rbp),%rbx
   157bc:	64 48 33 1c 25 28 00 	xor    %fs:0x28,%rbx
   157c3:	00 00 
   157c5:	74 05                	je     157cc <func_56+0x18f9>
   157c7:	e8 a4 38 ff ff       	callq  9070 <__stack_chk_fail@plt>
   157cc:	48 81 c4 c8 0c 00 00 	add    $0xcc8,%rsp
   157d3:	5b                   	pop    %rbx
   157d4:	41 5c                	pop    %r12
   157d6:	41 5d                	pop    %r13
   157d8:	41 5e                	pop    %r14
   157da:	41 5f                	pop    %r15
   157dc:	5d                   	pop    %rbp
   157dd:	c3                   	retq   

00000000000157de <func_58>:
   157de:	f3 0f 1e fa          	endbr64 
   157e2:	55                   	push   %rbp
   157e3:	48 89 e5             	mov    %rsp,%rbp
   157e6:	89 7d ec             	mov    %edi,-0x14(%rbp)
   157e9:	48 89 75 e0          	mov    %rsi,-0x20(%rbp)
   157ed:	48 89 55 d8          	mov    %rdx,-0x28(%rbp)
   157f1:	48 89 4d d0          	mov    %rcx,-0x30(%rbp)
   157f5:	44 89 c0             	mov    %r8d,%eax
   157f8:	88 45 e8             	mov    %al,-0x18(%rbp)
   157fb:	48 8d 05 0e 84 00 00 	lea    0x840e(%rip),%rax        # 1dc10 <g_79>
   15802:	48 89 45 f8          	mov    %rax,-0x8(%rbp)
   15806:	48 8b 45 d0          	mov    -0x30(%rbp),%rax
   1580a:	c7 00 07 00 00 00    	movl   $0x7,(%rax)
   15810:	48 8b 45 f8          	mov    -0x8(%rbp),%rax
   15814:	5d                   	pop    %rbp
   15815:	c3                   	retq   

0000000000015816 <main>:
   15816:	f3 0f 1e fa          	endbr64 
   1581a:	55                   	push   %rbp
   1581b:	48 89 e5             	mov    %rsp,%rbp
   1581e:	48 83 ec 20          	sub    $0x20,%rsp
   15822:	89 7d ec             	mov    %edi,-0x14(%rbp)
   15825:	48 89 75 e0          	mov    %rsi,-0x20(%rbp)
   15829:	c7 45 fc 00 00 00 00 	movl   $0x0,-0x4(%rbp)
   15830:	83 7d ec 02          	cmpl   $0x2,-0x14(%rbp)
   15834:	75 25                	jne    1585b <main+0x45>
   15836:	48 8b 45 e0          	mov    -0x20(%rbp),%rax
   1583a:	48 83 c0 08          	add    $0x8,%rax
   1583e:	48 8b 00             	mov    (%rax),%rax
   15841:	48 8d 35 98 1f 00 00 	lea    0x1f98(%rip),%rsi        # 177e0 <g_1624+0x1780>
   15848:	48 89 c7             	mov    %rax,%rdi
   1584b:	e8 40 38 ff ff       	callq  9090 <strcmp@plt>
   15850:	85 c0                	test   %eax,%eax
   15852:	75 07                	jne    1585b <main+0x45>
   15854:	c7 45 fc 01 00 00 00 	movl   $0x1,-0x4(%rbp)
   1585b:	e8 29 39 ff ff       	callq  9189 <platform_main_begin>
   15860:	e8 33 4d ff ff       	callq  a598 <crc32_gentab>
   15865:	e8 4b 4f ff ff       	callq  a7b5 <func_1>
   1586a:	48 8b 05 b7 47 00 00 	mov    0x47b7(%rip),%rax        # 1a028 <g_4>
   15871:	48 89 c1             	mov    %rax,%rcx
   15874:	8b 45 fc             	mov    -0x4(%rbp),%eax
   15877:	89 c2                	mov    %eax,%edx
   15879:	48 8d 35 62 1f 00 00 	lea    0x1f62(%rip),%rsi        # 177e2 <g_1624+0x1782>
   15880:	48 89 cf             	mov    %rcx,%rdi
   15883:	e8 6b 4e ff ff       	callq  a6f3 <transparent_crc>
   15888:	48 8b 05 a1 47 00 00 	mov    0x47a1(%rip),%rax        # 1a030 <g_5>
   1588f:	8b 55 fc             	mov    -0x4(%rbp),%edx
   15892:	48 8d 35 4d 1f 00 00 	lea    0x1f4d(%rip),%rsi        # 177e6 <g_1624+0x1786>
   15899:	48 89 c7             	mov    %rax,%rdi
   1589c:	e8 52 4e ff ff       	callq  a6f3 <transparent_crc>
   158a1:	0f b6 05 90 47 00 00 	movzbl 0x4790(%rip),%eax        # 1a038 <g_9>
   158a8:	48 0f be c0          	movsbq %al,%rax
   158ac:	8b 55 fc             	mov    -0x4(%rbp),%edx
   158af:	48 8d 35 34 1f 00 00 	lea    0x1f34(%rip),%rsi        # 177ea <g_1624+0x178a>
   158b6:	48 89 c7             	mov    %rax,%rdi
   158b9:	e8 35 4e ff ff       	callq  a6f3 <transparent_crc>
   158be:	8b 05 78 47 00 00    	mov    0x4778(%rip),%eax        # 1a03c <g_72>
   158c4:	89 c1                	mov    %eax,%ecx
   158c6:	8b 45 fc             	mov    -0x4(%rbp),%eax
   158c9:	89 c2                	mov    %eax,%edx
   158cb:	48 8d 35 1c 1f 00 00 	lea    0x1f1c(%rip),%rsi        # 177ee <g_1624+0x178e>
   158d2:	48 89 cf             	mov    %rcx,%rdi
   158d5:	e8 19 4e ff ff       	callq  a6f3 <transparent_crc>
   158da:	0f b7 05 5f 47 00 00 	movzwl 0x475f(%rip),%eax        # 1a040 <g_75>
   158e1:	0f b7 c0             	movzwl %ax,%eax
   158e4:	8b 55 fc             	mov    -0x4(%rbp),%edx
   158e7:	48 8d 35 05 1f 00 00 	lea    0x1f05(%rip),%rsi        # 177f3 <g_1624+0x1793>
   158ee:	48 89 c7             	mov    %rax,%rdi
   158f1:	e8 fd 4d ff ff       	callq  a6f3 <transparent_crc>
   158f6:	8b 05 14 83 00 00    	mov    0x8314(%rip),%eax        # 1dc10 <g_79>
   158fc:	48 98                	cltq   
   158fe:	8b 55 fc             	mov    -0x4(%rbp),%edx
   15901:	48 8d 35 f0 1e 00 00 	lea    0x1ef0(%rip),%rsi        # 177f8 <g_1624+0x1798>
   15908:	48 89 c7             	mov    %rax,%rdi
   1590b:	e8 e3 4d ff ff       	callq  a6f3 <transparent_crc>
   15910:	c7 45 f0 00 00 00 00 	movl   $0x0,-0x10(%rbp)
   15917:	eb 7b                	jmp    15994 <main+0x17e>
   15919:	c7 45 f4 00 00 00 00 	movl   $0x0,-0xc(%rbp)
   15920:	eb 68                	jmp    1598a <main+0x174>
   15922:	8b 45 f4             	mov    -0xc(%rbp),%eax
   15925:	48 63 c8             	movslq %eax,%rcx
   15928:	8b 45 f0             	mov    -0x10(%rbp),%eax
   1592b:	48 63 d0             	movslq %eax,%rdx
   1592e:	48 89 d0             	mov    %rdx,%rax
   15931:	48 01 c0             	add    %rax,%rax
   15934:	48 01 d0             	add    %rdx,%rax
   15937:	48 01 c0             	add    %rax,%rax
   1593a:	48 01 c8             	add    %rcx,%rax
   1593d:	48 8d 14 c5 00 00 00 	lea    0x0(,%rax,8),%rdx
   15944:	00 
   15945:	48 8d 05 14 47 00 00 	lea    0x4714(%rip),%rax        # 1a060 <g_97>
   1594c:	48 8b 04 02          	mov    (%rdx,%rax,1),%rax
   15950:	48 89 c1             	mov    %rax,%rcx
   15953:	8b 45 fc             	mov    -0x4(%rbp),%eax
   15956:	89 c2                	mov    %eax,%edx
   15958:	48 8d 35 9e 1e 00 00 	lea    0x1e9e(%rip),%rsi        # 177fd <g_1624+0x179d>
   1595f:	48 89 cf             	mov    %rcx,%rdi
   15962:	e8 8c 4d ff ff       	callq  a6f3 <transparent_crc>
   15967:	83 7d fc 00          	cmpl   $0x0,-0x4(%rbp)
   1596b:	74 19                	je     15986 <main+0x170>
   1596d:	8b 55 f4             	mov    -0xc(%rbp),%edx
   15970:	8b 45 f0             	mov    -0x10(%rbp),%eax
   15973:	89 c6                	mov    %eax,%esi
   15975:	48 8d 3d 8c 1e 00 00 	lea    0x1e8c(%rip),%rdi        # 17808 <g_1624+0x17a8>
   1597c:	b8 00 00 00 00       	mov    $0x0,%eax
   15981:	e8 fa 36 ff ff       	callq  9080 <printf@plt>
   15986:	83 45 f4 01          	addl   $0x1,-0xc(%rbp)
   1598a:	83 7d f4 05          	cmpl   $0x5,-0xc(%rbp)
   1598e:	7e 92                	jle    15922 <main+0x10c>
   15990:	83 45 f0 01          	addl   $0x1,-0x10(%rbp)
   15994:	83 7d f0 00          	cmpl   $0x0,-0x10(%rbp)
   15998:	0f 8e 7b ff ff ff    	jle    15919 <main+0x103>
   1599e:	8b 05 ec 46 00 00    	mov    0x46ec(%rip),%eax        # 1a090 <g_99>
   159a4:	48 98                	cltq   
   159a6:	8b 55 fc             	mov    -0x4(%rbp),%edx
   159a9:	48 8d 35 6a 1e 00 00 	lea    0x1e6a(%rip),%rsi        # 1781a <g_1624+0x17ba>
   159b0:	48 89 c7             	mov    %rax,%rdi
   159b3:	e8 3b 4d ff ff       	callq  a6f3 <transparent_crc>
   159b8:	8b 05 d6 46 00 00    	mov    0x46d6(%rip),%eax        # 1a094 <g_100>
   159be:	48 98                	cltq   
   159c0:	8b 55 fc             	mov    -0x4(%rbp),%edx
   159c3:	48 8d 35 55 1e 00 00 	lea    0x1e55(%rip),%rsi        # 1781f <g_1624+0x17bf>
   159ca:	48 89 c7             	mov    %rax,%rdi
   159cd:	e8 21 4d ff ff       	callq  a6f3 <transparent_crc>
   159d2:	0f b7 05 bf 46 00 00 	movzwl 0x46bf(%rip),%eax        # 1a098 <g_136>
   159d9:	48 0f bf c0          	movswq %ax,%rax
   159dd:	8b 55 fc             	mov    -0x4(%rbp),%edx
   159e0:	48 8d 35 3e 1e 00 00 	lea    0x1e3e(%rip),%rsi        # 17825 <g_1624+0x17c5>
   159e7:	48 89 c7             	mov    %rax,%rdi
   159ea:	e8 04 4d ff ff       	callq  a6f3 <transparent_crc>
   159ef:	8b 05 a7 46 00 00    	mov    0x46a7(%rip),%eax        # 1a09c <g_169>
   159f5:	48 98                	cltq   
   159f7:	8b 55 fc             	mov    -0x4(%rbp),%edx
   159fa:	48 8d 35 2a 1e 00 00 	lea    0x1e2a(%rip),%rsi        # 1782b <g_1624+0x17cb>
   15a01:	48 89 c7             	mov    %rax,%rdi
   15a04:	e8 ea 4c ff ff       	callq  a6f3 <transparent_crc>
   15a09:	c7 45 f0 00 00 00 00 	movl   $0x0,-0x10(%rbp)
   15a10:	eb 4f                	jmp    15a61 <main+0x24b>
   15a12:	8b 45 f0             	mov    -0x10(%rbp),%eax
   15a15:	48 98                	cltq   
   15a17:	48 8d 14 c5 00 00 00 	lea    0x0(,%rax,8),%rdx
   15a1e:	00 
   15a1f:	48 8d 05 7a 46 00 00 	lea    0x467a(%rip),%rax        # 1a0a0 <g_171>
   15a26:	48 8b 04 02          	mov    (%rdx,%rax,1),%rax
   15a2a:	48 89 c1             	mov    %rax,%rcx
   15a2d:	8b 45 fc             	mov    -0x4(%rbp),%eax
   15a30:	89 c2                	mov    %eax,%edx
   15a32:	48 8d 35 f8 1d 00 00 	lea    0x1df8(%rip),%rsi        # 17831 <g_1624+0x17d1>
   15a39:	48 89 cf             	mov    %rcx,%rdi
   15a3c:	e8 b2 4c ff ff       	callq  a6f3 <transparent_crc>
   15a41:	83 7d fc 00          	cmpl   $0x0,-0x4(%rbp)
   15a45:	74 16                	je     15a5d <main+0x247>
   15a47:	8b 45 f0             	mov    -0x10(%rbp),%eax
   15a4a:	89 c6                	mov    %eax,%esi
   15a4c:	48 8d 3d e7 1d 00 00 	lea    0x1de7(%rip),%rdi        # 1783a <g_1624+0x17da>
   15a53:	b8 00 00 00 00       	mov    $0x0,%eax
   15a58:	e8 23 36 ff ff       	callq  9080 <printf@plt>
   15a5d:	83 45 f0 01          	addl   $0x1,-0x10(%rbp)
   15a61:	83 7d f0 05          	cmpl   $0x5,-0x10(%rbp)
   15a65:	7e ab                	jle    15a12 <main+0x1fc>
   15a67:	c7 45 f0 00 00 00 00 	movl   $0x0,-0x10(%rbp)
   15a6e:	eb 49                	jmp    15ab9 <main+0x2a3>
   15a70:	8b 45 f0             	mov    -0x10(%rbp),%eax
   15a73:	48 98                	cltq   
   15a75:	48 8d 14 00          	lea    (%rax,%rax,1),%rdx
   15a79:	48 8d 05 50 46 00 00 	lea    0x4650(%rip),%rax        # 1a0d0 <g_172>
   15a80:	0f b7 04 02          	movzwl (%rdx,%rax,1),%eax
   15a84:	0f b7 c0             	movzwl %ax,%eax
   15a87:	8b 55 fc             	mov    -0x4(%rbp),%edx
   15a8a:	48 8d 35 b7 1d 00 00 	lea    0x1db7(%rip),%rsi        # 17848 <g_1624+0x17e8>
   15a91:	48 89 c7             	mov    %rax,%rdi
   15a94:	e8 5a 4c ff ff       	callq  a6f3 <transparent_crc>
   15a99:	83 7d fc 00          	cmpl   $0x0,-0x4(%rbp)
   15a9d:	74 16                	je     15ab5 <main+0x29f>
   15a9f:	8b 45 f0             	mov    -0x10(%rbp),%eax
   15aa2:	89 c6                	mov    %eax,%esi
   15aa4:	48 8d 3d 8f 1d 00 00 	lea    0x1d8f(%rip),%rdi        # 1783a <g_1624+0x17da>
   15aab:	b8 00 00 00 00       	mov    $0x0,%eax
   15ab0:	e8 cb 35 ff ff       	callq  9080 <printf@plt>
   15ab5:	83 45 f0 01          	addl   $0x1,-0x10(%rbp)
   15ab9:	83 7d f0 06          	cmpl   $0x6,-0x10(%rbp)
   15abd:	7e b1                	jle    15a70 <main+0x25a>
   15abf:	0f b6 05 18 46 00 00 	movzbl 0x4618(%rip),%eax        # 1a0de <g_260>
   15ac6:	48 0f be c0          	movsbq %al,%rax
   15aca:	8b 55 fc             	mov    -0x4(%rbp),%edx
   15acd:	48 8d 35 7d 1d 00 00 	lea    0x1d7d(%rip),%rsi        # 17851 <g_1624+0x17f1>
   15ad4:	48 89 c7             	mov    %rax,%rdi
   15ad7:	e8 17 4c ff ff       	callq  a6f3 <transparent_crc>
   15adc:	8b 05 3e 81 00 00    	mov    0x813e(%rip),%eax        # 1dc20 <g_272>
   15ae2:	89 c1                	mov    %eax,%ecx
   15ae4:	8b 45 fc             	mov    -0x4(%rbp),%eax
   15ae7:	89 c2                	mov    %eax,%edx
   15ae9:	48 8d 35 67 1d 00 00 	lea    0x1d67(%rip),%rsi        # 17857 <g_1624+0x17f7>
   15af0:	48 89 cf             	mov    %rcx,%rdi
   15af3:	e8 fb 4b ff ff       	callq  a6f3 <transparent_crc>
   15af8:	0f b6 05 e0 45 00 00 	movzbl 0x45e0(%rip),%eax        # 1a0df <g_290>
   15aff:	0f b6 c0             	movzbl %al,%eax
   15b02:	8b 55 fc             	mov    -0x4(%rbp),%edx
   15b05:	48 8d 35 51 1d 00 00 	lea    0x1d51(%rip),%rsi        # 1785d <g_1624+0x17fd>
   15b0c:	48 89 c7             	mov    %rax,%rdi
   15b0f:	e8 df 4b ff ff       	callq  a6f3 <transparent_crc>
   15b14:	8b 05 0a 81 00 00    	mov    0x810a(%rip),%eax        # 1dc24 <g_291>
   15b1a:	89 c1                	mov    %eax,%ecx
   15b1c:	8b 45 fc             	mov    -0x4(%rbp),%eax
   15b1f:	89 c2                	mov    %eax,%edx
   15b21:	48 8d 35 3b 1d 00 00 	lea    0x1d3b(%rip),%rsi        # 17863 <g_1624+0x1803>
   15b28:	48 89 cf             	mov    %rcx,%rdi
   15b2b:	e8 c3 4b ff ff       	callq  a6f3 <transparent_crc>
   15b30:	8b 05 aa 45 00 00    	mov    0x45aa(%rip),%eax        # 1a0e0 <g_313>
   15b36:	89 c1                	mov    %eax,%ecx
   15b38:	8b 45 fc             	mov    -0x4(%rbp),%eax
   15b3b:	89 c2                	mov    %eax,%edx
   15b3d:	48 8d 35 25 1d 00 00 	lea    0x1d25(%rip),%rsi        # 17869 <g_1624+0x1809>
   15b44:	48 89 cf             	mov    %rcx,%rdi
   15b47:	e8 a7 4b ff ff       	callq  a6f3 <transparent_crc>
   15b4c:	c7 45 f0 00 00 00 00 	movl   $0x0,-0x10(%rbp)
   15b53:	e9 9c 00 00 00       	jmpq   15bf4 <main+0x3de>
   15b58:	c7 45 f4 00 00 00 00 	movl   $0x0,-0xc(%rbp)
   15b5f:	e9 82 00 00 00       	jmpq   15be6 <main+0x3d0>
   15b64:	c7 45 f8 00 00 00 00 	movl   $0x0,-0x8(%rbp)
   15b6b:	eb 6f                	jmp    15bdc <main+0x3c6>
   15b6d:	8b 45 f8             	mov    -0x8(%rbp),%eax
   15b70:	48 63 c8             	movslq %eax,%rcx
   15b73:	8b 45 f0             	mov    -0x10(%rbp),%eax
   15b76:	48 63 d0             	movslq %eax,%rdx
   15b79:	8b 45 f4             	mov    -0xc(%rbp),%eax
   15b7c:	48 63 f0             	movslq %eax,%rsi
   15b7f:	48 89 d0             	mov    %rdx,%rax
   15b82:	48 c1 e0 03          	shl    $0x3,%rax
   15b86:	48 01 d0             	add    %rdx,%rax
   15b89:	48 01 f0             	add    %rsi,%rax
   15b8c:	48 c1 e0 02          	shl    $0x2,%rax
   15b90:	48 8d 14 08          	lea    (%rax,%rcx,1),%rdx
   15b94:	48 8d 05 65 45 00 00 	lea    0x4565(%rip),%rax        # 1a100 <g_378>
   15b9b:	48 01 d0             	add    %rdx,%rax
   15b9e:	0f b6 00             	movzbl (%rax),%eax
   15ba1:	0f b6 c0             	movzbl %al,%eax
   15ba4:	8b 55 fc             	mov    -0x4(%rbp),%edx
   15ba7:	48 8d 35 c1 1c 00 00 	lea    0x1cc1(%rip),%rsi        # 1786f <g_1624+0x180f>
   15bae:	48 89 c7             	mov    %rax,%rdi
   15bb1:	e8 3d 4b ff ff       	callq  a6f3 <transparent_crc>
   15bb6:	83 7d fc 00          	cmpl   $0x0,-0x4(%rbp)
   15bba:	74 1c                	je     15bd8 <main+0x3c2>
   15bbc:	8b 4d f8             	mov    -0x8(%rbp),%ecx
   15bbf:	8b 55 f4             	mov    -0xc(%rbp),%edx
   15bc2:	8b 45 f0             	mov    -0x10(%rbp),%eax
   15bc5:	89 c6                	mov    %eax,%esi
   15bc7:	48 8d 3d b0 1c 00 00 	lea    0x1cb0(%rip),%rdi        # 1787e <g_1624+0x181e>
   15bce:	b8 00 00 00 00       	mov    $0x0,%eax
   15bd3:	e8 a8 34 ff ff       	callq  9080 <printf@plt>
   15bd8:	83 45 f8 01          	addl   $0x1,-0x8(%rbp)
   15bdc:	83 7d f8 03          	cmpl   $0x3,-0x8(%rbp)
   15be0:	7e 8b                	jle    15b6d <main+0x357>
   15be2:	83 45 f4 01          	addl   $0x1,-0xc(%rbp)
   15be6:	83 7d f4 08          	cmpl   $0x8,-0xc(%rbp)
   15bea:	0f 8e 74 ff ff ff    	jle    15b64 <main+0x34e>
   15bf0:	83 45 f0 01          	addl   $0x1,-0x10(%rbp)
   15bf4:	83 7d f0 06          	cmpl   $0x6,-0x10(%rbp)
   15bf8:	0f 8e 5a ff ff ff    	jle    15b58 <main+0x342>
   15bfe:	0f b6 05 f7 45 00 00 	movzbl 0x45f7(%rip),%eax        # 1a1fc <g_391>
   15c05:	48 0f be c0          	movsbq %al,%rax
   15c09:	8b 55 fc             	mov    -0x4(%rbp),%edx
   15c0c:	48 8d 35 81 1c 00 00 	lea    0x1c81(%rip),%rsi        # 17894 <g_1624+0x1834>
   15c13:	48 89 c7             	mov    %rax,%rdi
   15c16:	e8 d8 4a ff ff       	callq  a6f3 <transparent_crc>
   15c1b:	8b 05 df 45 00 00    	mov    0x45df(%rip),%eax        # 1a200 <g_392>
   15c21:	89 c1                	mov    %eax,%ecx
   15c23:	8b 45 fc             	mov    -0x4(%rbp),%eax
   15c26:	89 c2                	mov    %eax,%edx
   15c28:	48 8d 35 6b 1c 00 00 	lea    0x1c6b(%rip),%rsi        # 1789a <g_1624+0x183a>
   15c2f:	48 89 cf             	mov    %rcx,%rdi
   15c32:	e8 bc 4a ff ff       	callq  a6f3 <transparent_crc>
   15c37:	0f b7 05 c6 45 00 00 	movzwl 0x45c6(%rip),%eax        # 1a204 <g_397>
   15c3e:	0f b7 c0             	movzwl %ax,%eax
   15c41:	8b 55 fc             	mov    -0x4(%rbp),%edx
   15c44:	48 8d 35 55 1c 00 00 	lea    0x1c55(%rip),%rsi        # 178a0 <g_1624+0x1840>
   15c4b:	48 89 c7             	mov    %rax,%rdi
   15c4e:	e8 a0 4a ff ff       	callq  a6f3 <transparent_crc>
   15c53:	0f b7 05 ac 45 00 00 	movzwl 0x45ac(%rip),%eax        # 1a206 <g_475>
   15c5a:	48 0f bf c0          	movswq %ax,%rax
   15c5e:	8b 55 fc             	mov    -0x4(%rbp),%edx
   15c61:	48 8d 35 3e 1c 00 00 	lea    0x1c3e(%rip),%rsi        # 178a6 <g_1624+0x1846>
   15c68:	48 89 c7             	mov    %rax,%rdi
   15c6b:	e8 83 4a ff ff       	callq  a6f3 <transparent_crc>
   15c70:	0f b6 05 29 80 00 00 	movzbl 0x8029(%rip),%eax        # 1dca0 <g_563>
   15c77:	48 0f be c0          	movsbq %al,%rax
   15c7b:	8b 55 fc             	mov    -0x4(%rbp),%edx
   15c7e:	48 8d 35 27 1c 00 00 	lea    0x1c27(%rip),%rsi        # 178ac <g_1624+0x184c>
   15c85:	48 89 c7             	mov    %rax,%rdi
   15c88:	e8 66 4a ff ff       	callq  a6f3 <transparent_crc>
   15c8d:	0f b6 05 74 45 00 00 	movzbl 0x4574(%rip),%eax        # 1a208 <g_580>
   15c94:	0f b6 c0             	movzbl %al,%eax
   15c97:	8b 55 fc             	mov    -0x4(%rbp),%edx
   15c9a:	48 8d 35 11 1c 00 00 	lea    0x1c11(%rip),%rsi        # 178b2 <g_1624+0x1852>
   15ca1:	48 89 c7             	mov    %rax,%rdi
   15ca4:	e8 4a 4a ff ff       	callq  a6f3 <transparent_crc>
   15ca9:	0f b7 05 5a 45 00 00 	movzwl 0x455a(%rip),%eax        # 1a20a <g_705>
   15cb0:	48 0f bf c0          	movswq %ax,%rax
   15cb4:	8b 55 fc             	mov    -0x4(%rbp),%edx
   15cb7:	48 8d 35 fa 1b 00 00 	lea    0x1bfa(%rip),%rsi        # 178b8 <g_1624+0x1858>
   15cbe:	48 89 c7             	mov    %rax,%rdi
   15cc1:	e8 2d 4a ff ff       	callq  a6f3 <transparent_crc>
   15cc6:	48 8b 05 43 45 00 00 	mov    0x4543(%rip),%rax        # 1a210 <g_805>
   15ccd:	8b 55 fc             	mov    -0x4(%rbp),%edx
   15cd0:	48 8d 35 e7 1b 00 00 	lea    0x1be7(%rip),%rsi        # 178be <g_1624+0x185e>
   15cd7:	48 89 c7             	mov    %rax,%rdi
   15cda:	e8 14 4a ff ff       	callq  a6f3 <transparent_crc>
   15cdf:	8b 05 33 45 00 00    	mov    0x4533(%rip),%eax        # 1a218 <g_928>
   15ce5:	48 98                	cltq   
   15ce7:	8b 55 fc             	mov    -0x4(%rbp),%edx
   15cea:	48 8d 35 d3 1b 00 00 	lea    0x1bd3(%rip),%rsi        # 178c4 <g_1624+0x1864>
   15cf1:	48 89 c7             	mov    %rax,%rdi
   15cf4:	e8 fa 49 ff ff       	callq  a6f3 <transparent_crc>
   15cf9:	48 8b 05 d8 7f 00 00 	mov    0x7fd8(%rip),%rax        # 1dcd8 <g_1108>
   15d00:	8b 55 fc             	mov    -0x4(%rbp),%edx
   15d03:	48 8d 35 c0 1b 00 00 	lea    0x1bc0(%rip),%rsi        # 178ca <g_1624+0x186a>
   15d0a:	48 89 c7             	mov    %rax,%rdi
   15d0d:	e8 e1 49 ff ff       	callq  a6f3 <transparent_crc>
   15d12:	8b 05 c8 7f 00 00    	mov    0x7fc8(%rip),%eax        # 1dce0 <g_1220>
   15d18:	48 98                	cltq   
   15d1a:	8b 55 fc             	mov    -0x4(%rbp),%edx
   15d1d:	48 8d 35 ad 1b 00 00 	lea    0x1bad(%rip),%rsi        # 178d1 <g_1624+0x1871>
   15d24:	48 89 c7             	mov    %rax,%rdi
   15d27:	e8 c7 49 ff ff       	callq  a6f3 <transparent_crc>
   15d2c:	48 8b 05 c5 7f 00 00 	mov    0x7fc5(%rip),%rax        # 1dcf8 <g_1364>
   15d33:	48 89 c1             	mov    %rax,%rcx
   15d36:	8b 45 fc             	mov    -0x4(%rbp),%eax
   15d39:	89 c2                	mov    %eax,%edx
   15d3b:	48 8d 35 96 1b 00 00 	lea    0x1b96(%rip),%rsi        # 178d8 <g_1624+0x1878>
   15d42:	48 89 cf             	mov    %rcx,%rdi
   15d45:	e8 a9 49 ff ff       	callq  a6f3 <transparent_crc>
   15d4a:	48 8b 05 cf 44 00 00 	mov    0x44cf(%rip),%rax        # 1a220 <g_1609>
   15d51:	8b 55 fc             	mov    -0x4(%rbp),%edx
   15d54:	48 8d 35 84 1b 00 00 	lea    0x1b84(%rip),%rsi        # 178df <g_1624+0x187f>
   15d5b:	48 89 c7             	mov    %rax,%rdi
   15d5e:	e8 90 49 ff ff       	callq  a6f3 <transparent_crc>
   15d63:	c7 45 f0 00 00 00 00 	movl   $0x0,-0x10(%rbp)
   15d6a:	eb 4d                	jmp    15db9 <main+0x5a3>
   15d6c:	8b 45 f0             	mov    -0x10(%rbp),%eax
   15d6f:	48 98                	cltq   
   15d71:	48 8d 14 85 00 00 00 	lea    0x0(,%rax,4),%rdx
   15d78:	00 
   15d79:	48 8d 05 e0 02 00 00 	lea    0x2e0(%rip),%rax        # 16060 <g_1624>
   15d80:	8b 04 02             	mov    (%rdx,%rax,1),%eax
   15d83:	89 c1                	mov    %eax,%ecx
   15d85:	8b 45 fc             	mov    -0x4(%rbp),%eax
   15d88:	89 c2                	mov    %eax,%edx
   15d8a:	48 8d 35 55 1b 00 00 	lea    0x1b55(%rip),%rsi        # 178e6 <g_1624+0x1886>
   15d91:	48 89 cf             	mov    %rcx,%rdi
   15d94:	e8 5a 49 ff ff       	callq  a6f3 <transparent_crc>
   15d99:	83 7d fc 00          	cmpl   $0x0,-0x4(%rbp)
   15d9d:	74 16                	je     15db5 <main+0x59f>
   15d9f:	8b 45 f0             	mov    -0x10(%rbp),%eax
   15da2:	89 c6                	mov    %eax,%esi
   15da4:	48 8d 3d 8f 1a 00 00 	lea    0x1a8f(%rip),%rdi        # 1783a <g_1624+0x17da>
   15dab:	b8 00 00 00 00       	mov    $0x0,%eax
   15db0:	e8 cb 32 ff ff       	callq  9080 <printf@plt>
   15db5:	83 45 f0 01          	addl   $0x1,-0x10(%rbp)
   15db9:	83 7d f0 05          	cmpl   $0x5,-0x10(%rbp)
   15dbd:	7e ad                	jle    15d6c <main+0x556>
   15dbf:	0f b6 05 52 7f 00 00 	movzbl 0x7f52(%rip),%eax        # 1dd18 <g_1628>
   15dc6:	0f b6 c0             	movzbl %al,%eax
   15dc9:	8b 55 fc             	mov    -0x4(%rbp),%edx
   15dcc:	48 8d 35 1d 1b 00 00 	lea    0x1b1d(%rip),%rsi        # 178f0 <g_1624+0x1890>
   15dd3:	48 89 c7             	mov    %rax,%rdi
   15dd6:	e8 18 49 ff ff       	callq  a6f3 <transparent_crc>
   15ddb:	8b 05 47 44 00 00    	mov    0x4447(%rip),%eax        # 1a228 <g_1758>
   15de1:	48 98                	cltq   
   15de3:	8b 55 fc             	mov    -0x4(%rbp),%edx
   15de6:	48 8d 35 0a 1b 00 00 	lea    0x1b0a(%rip),%rsi        # 178f7 <g_1624+0x1897>
   15ded:	48 89 c7             	mov    %rax,%rdi
   15df0:	e8 fe 48 ff ff       	callq  a6f3 <transparent_crc>
   15df5:	c7 45 f0 00 00 00 00 	movl   $0x0,-0x10(%rbp)
   15dfc:	eb 67                	jmp    15e65 <main+0x64f>
   15dfe:	c7 45 f4 00 00 00 00 	movl   $0x0,-0xc(%rbp)
   15e05:	eb 54                	jmp    15e5b <main+0x645>
   15e07:	8b 45 f4             	mov    -0xc(%rbp),%eax
   15e0a:	48 63 d0             	movslq %eax,%rdx
   15e0d:	8b 45 f0             	mov    -0x10(%rbp),%eax
   15e10:	48 98                	cltq   
   15e12:	48 01 c2             	add    %rax,%rdx
   15e15:	48 8d 05 1c 44 00 00 	lea    0x441c(%rip),%rax        # 1a238 <g_1834>
   15e1c:	48 01 d0             	add    %rdx,%rax
   15e1f:	0f b6 00             	movzbl (%rax),%eax
   15e22:	48 0f be c0          	movsbq %al,%rax
   15e26:	8b 55 fc             	mov    -0x4(%rbp),%edx
   15e29:	48 8d 35 ce 1a 00 00 	lea    0x1ace(%rip),%rsi        # 178fe <g_1624+0x189e>
   15e30:	48 89 c7             	mov    %rax,%rdi
   15e33:	e8 bb 48 ff ff       	callq  a6f3 <transparent_crc>
   15e38:	83 7d fc 00          	cmpl   $0x0,-0x4(%rbp)
   15e3c:	74 19                	je     15e57 <main+0x641>
   15e3e:	8b 55 f4             	mov    -0xc(%rbp),%edx
   15e41:	8b 45 f0             	mov    -0x10(%rbp),%eax
   15e44:	89 c6                	mov    %eax,%esi
   15e46:	48 8d 3d bb 19 00 00 	lea    0x19bb(%rip),%rdi        # 17808 <g_1624+0x17a8>
   15e4d:	b8 00 00 00 00       	mov    $0x0,%eax
   15e52:	e8 29 32 ff ff       	callq  9080 <printf@plt>
   15e57:	83 45 f4 01          	addl   $0x1,-0xc(%rbp)
   15e5b:	83 7d f4 00          	cmpl   $0x0,-0xc(%rbp)
   15e5f:	7e a6                	jle    15e07 <main+0x5f1>
   15e61:	83 45 f0 01          	addl   $0x1,-0x10(%rbp)
   15e65:	83 7d f0 06          	cmpl   $0x6,-0x10(%rbp)
   15e69:	7e 93                	jle    15dfe <main+0x5e8>
   15e6b:	0f b7 05 ce 43 00 00 	movzwl 0x43ce(%rip),%eax        # 1a240 <g_1836>
   15e72:	48 0f bf c0          	movswq %ax,%rax
   15e76:	8b 55 fc             	mov    -0x4(%rbp),%edx
   15e79:	48 8d 35 8b 1a 00 00 	lea    0x1a8b(%rip),%rsi        # 1790b <g_1624+0x18ab>
   15e80:	48 89 c7             	mov    %rax,%rdi
   15e83:	e8 6b 48 ff ff       	callq  a6f3 <transparent_crc>
   15e88:	0f b6 05 21 7f 00 00 	movzbl 0x7f21(%rip),%eax        # 1ddb0 <g_2061>
   15e8f:	0f b6 c0             	movzbl %al,%eax
   15e92:	8b 55 fc             	mov    -0x4(%rbp),%edx
   15e95:	48 8d 35 76 1a 00 00 	lea    0x1a76(%rip),%rsi        # 17912 <g_1624+0x18b2>
   15e9c:	48 89 c7             	mov    %rax,%rdi
   15e9f:	e8 4f 48 ff ff       	callq  a6f3 <transparent_crc>
   15ea4:	0f b6 05 06 7f 00 00 	movzbl 0x7f06(%rip),%eax        # 1ddb1 <g_2108>
   15eab:	0f b6 c0             	movzbl %al,%eax
   15eae:	8b 55 fc             	mov    -0x4(%rbp),%edx
   15eb1:	48 8d 35 61 1a 00 00 	lea    0x1a61(%rip),%rsi        # 17919 <g_1624+0x18b9>
   15eb8:	48 89 c7             	mov    %rax,%rdi
   15ebb:	e8 33 48 ff ff       	callq  a6f3 <transparent_crc>
   15ec0:	0f b7 05 d1 43 00 00 	movzwl 0x43d1(%rip),%eax        # 1a298 <g_2210>
   15ec7:	48 0f bf c0          	movswq %ax,%rax
   15ecb:	8b 55 fc             	mov    -0x4(%rbp),%edx
   15ece:	48 8d 35 4b 1a 00 00 	lea    0x1a4b(%rip),%rsi        # 17920 <g_1624+0x18c0>
   15ed5:	48 89 c7             	mov    %rax,%rdi
   15ed8:	e8 16 48 ff ff       	callq  a6f3 <transparent_crc>
   15edd:	8b 05 b9 43 00 00    	mov    0x43b9(%rip),%eax        # 1a29c <g_2242>
   15ee3:	89 c1                	mov    %eax,%ecx
   15ee5:	8b 45 fc             	mov    -0x4(%rbp),%eax
   15ee8:	89 c2                	mov    %eax,%edx
   15eea:	48 8d 35 36 1a 00 00 	lea    0x1a36(%rip),%rsi        # 17927 <g_1624+0x18c7>
   15ef1:	48 89 cf             	mov    %rcx,%rdi
   15ef4:	e8 fa 47 ff ff       	callq  a6f3 <transparent_crc>
   15ef9:	0f b7 05 a0 43 00 00 	movzwl 0x43a0(%rip),%eax        # 1a2a0 <g_2296>
   15f00:	48 0f bf c0          	movswq %ax,%rax
   15f04:	8b 55 fc             	mov    -0x4(%rbp),%edx
   15f07:	48 8d 35 20 1a 00 00 	lea    0x1a20(%rip),%rsi        # 1792e <g_1624+0x18ce>
   15f0e:	48 89 c7             	mov    %rax,%rdi
   15f11:	e8 dd 47 ff ff       	callq  a6f3 <transparent_crc>
   15f16:	8b 05 04 41 00 00    	mov    0x4104(%rip),%eax        # 1a020 <crc32_context>
   15f1c:	f7 d0                	not    %eax
   15f1e:	89 c2                	mov    %eax,%edx
   15f20:	8b 45 fc             	mov    -0x4(%rbp),%eax
   15f23:	89 c6                	mov    %eax,%esi
   15f25:	89 d7                	mov    %edx,%edi
   15f27:	e8 68 32 ff ff       	callq  9194 <platform_main_end>
   15f2c:	b8 00 00 00 00       	mov    $0x0,%eax
   15f31:	c9                   	leaveq 
   15f32:	c3                   	retq   
   15f33:	66 2e 0f 1f 84 00 00 	nopw   %cs:0x0(%rax,%rax,1)
   15f3a:	00 00 00 
   15f3d:	0f 1f 00             	nopl   (%rax)

0000000000015f40 <__libc_csu_init>:
   15f40:	f3 0f 1e fa          	endbr64 
   15f44:	41 57                	push   %r15
   15f46:	4c 8d 3d 53 3e 00 00 	lea    0x3e53(%rip),%r15        # 19da0 <__frame_dummy_init_array_entry>
   15f4d:	41 56                	push   %r14
   15f4f:	49 89 d6             	mov    %rdx,%r14
   15f52:	41 55                	push   %r13
   15f54:	49 89 f5             	mov    %rsi,%r13
   15f57:	41 54                	push   %r12
   15f59:	41 89 fc             	mov    %edi,%r12d
   15f5c:	55                   	push   %rbp
   15f5d:	48 8d 2d 44 3e 00 00 	lea    0x3e44(%rip),%rbp        # 19da8 <__do_global_dtors_aux_fini_array_entry>
   15f64:	53                   	push   %rbx
   15f65:	4c 29 fd             	sub    %r15,%rbp
   15f68:	48 83 ec 08          	sub    $0x8,%rsp
   15f6c:	e8 8f 30 ff ff       	callq  9000 <_init>
   15f71:	48 c1 fd 03          	sar    $0x3,%rbp
   15f75:	74 1f                	je     15f96 <__libc_csu_init+0x56>
   15f77:	31 db                	xor    %ebx,%ebx
   15f79:	0f 1f 80 00 00 00 00 	nopl   0x0(%rax)
   15f80:	4c 89 f2             	mov    %r14,%rdx
   15f83:	4c 89 ee             	mov    %r13,%rsi
   15f86:	44 89 e7             	mov    %r12d,%edi
   15f89:	41 ff 14 df          	callq  *(%r15,%rbx,8)
   15f8d:	48 83 c3 01          	add    $0x1,%rbx
   15f91:	48 39 dd             	cmp    %rbx,%rbp
   15f94:	75 ea                	jne    15f80 <__libc_csu_init+0x40>
   15f96:	48 83 c4 08          	add    $0x8,%rsp
   15f9a:	5b                   	pop    %rbx
   15f9b:	5d                   	pop    %rbp
   15f9c:	41 5c                	pop    %r12
   15f9e:	41 5d                	pop    %r13
   15fa0:	41 5e                	pop    %r14
   15fa2:	41 5f                	pop    %r15
   15fa4:	c3                   	retq   
   15fa5:	66 66 2e 0f 1f 84 00 	data16 nopw %cs:0x0(%rax,%rax,1)
   15fac:	00 00 00 00 

0000000000015fb0 <__libc_csu_fini>:
   15fb0:	f3 0f 1e fa          	endbr64 
   15fb4:	c3                   	retq   
