


Disassembly of section .text:

00000000000050a0 <_start>:
    50a0:	f3 0f 1e fa          	endbr64 
    50a4:	31 ed                	xor    %ebp,%ebp
    50a6:	49 89 d1             	mov    %rdx,%r9
    50a9:	5e                   	pop    %rsi
    50aa:	48 89 e2             	mov    %rsp,%rdx
    50ad:	48 83 e4 f0          	and    $0xfffffffffffffff0,%rsp
    50b1:	50                   	push   %rax
    50b2:	54                   	push   %rsp
    50b3:	4c 8d 05 16 7d 00 00 	lea    0x7d16(%rip),%r8        # cdd0 <__libc_csu_fini>
    50ba:	48 8d 0d 9f 7c 00 00 	lea    0x7c9f(%rip),%rcx        # cd60 <__libc_csu_init>
    50c1:	48 8d 3d 63 65 00 00 	lea    0x6563(%rip),%rdi        # b62b <main>
    50c8:	ff 15 12 bf 00 00    	callq  *0xbf12(%rip)        # 10fe0 <__libc_start_main@GLIBC_2.2.5>
    50ce:	f4                   	hlt    
    50cf:	90                   	nop

00000000000050d0 <deregister_tm_clones>:
    50d0:	48 8d 3d 99 e3 00 00 	lea    0xe399(%rip),%rdi        # 13470 <__TMC_END__>
    50d7:	48 8d 05 92 e3 00 00 	lea    0xe392(%rip),%rax        # 13470 <__TMC_END__>
    50de:	48 39 f8             	cmp    %rdi,%rax
    50e1:	74 15                	je     50f8 <deregister_tm_clones+0x28>
    50e3:	48 8b 05 ee be 00 00 	mov    0xbeee(%rip),%rax        # 10fd8 <_ITM_deregisterTMCloneTable>
    50ea:	48 85 c0             	test   %rax,%rax
    50ed:	74 09                	je     50f8 <deregister_tm_clones+0x28>
    50ef:	ff e0                	jmpq   *%rax
    50f1:	0f 1f 80 00 00 00 00 	nopl   0x0(%rax)
    50f8:	c3                   	retq   
    50f9:	0f 1f 80 00 00 00 00 	nopl   0x0(%rax)

0000000000005100 <register_tm_clones>:
    5100:	48 8d 3d 69 e3 00 00 	lea    0xe369(%rip),%rdi        # 13470 <__TMC_END__>
    5107:	48 8d 35 62 e3 00 00 	lea    0xe362(%rip),%rsi        # 13470 <__TMC_END__>
    510e:	48 29 fe             	sub    %rdi,%rsi
    5111:	48 89 f0             	mov    %rsi,%rax
    5114:	48 c1 ee 3f          	shr    $0x3f,%rsi
    5118:	48 c1 f8 03          	sar    $0x3,%rax
    511c:	48 01 c6             	add    %rax,%rsi
    511f:	48 d1 fe             	sar    %rsi
    5122:	74 14                	je     5138 <register_tm_clones+0x38>
    5124:	48 8b 05 c5 be 00 00 	mov    0xbec5(%rip),%rax        # 10ff0 <_ITM_registerTMCloneTable>
    512b:	48 85 c0             	test   %rax,%rax
    512e:	74 08                	je     5138 <register_tm_clones+0x38>
    5130:	ff e0                	jmpq   *%rax
    5132:	66 0f 1f 44 00 00    	nopw   0x0(%rax,%rax,1)
    5138:	c3                   	retq   
    5139:	0f 1f 80 00 00 00 00 	nopl   0x0(%rax)

0000000000005140 <__do_global_dtors_aux>:
    5140:	f3 0f 1e fa          	endbr64 
    5144:	80 3d 35 e3 00 00 00 	cmpb   $0x0,0xe335(%rip)        # 13480 <completed.8061>
    514b:	75 2b                	jne    5178 <__do_global_dtors_aux+0x38>
    514d:	55                   	push   %rbp
    514e:	48 83 3d a2 be 00 00 	cmpq   $0x0,0xbea2(%rip)        # 10ff8 <__cxa_finalize@GLIBC_2.2.5>
    5155:	00 
    5156:	48 89 e5             	mov    %rsp,%rbp
    5159:	74 0c                	je     5167 <__do_global_dtors_aux+0x27>
    515b:	48 8b 3d a6 be 00 00 	mov    0xbea6(%rip),%rdi        # 11008 <__dso_handle>
    5162:	e8 f9 fe ff ff       	callq  5060 <__cxa_finalize@plt>
    5167:	e8 64 ff ff ff       	callq  50d0 <deregister_tm_clones>
    516c:	c6 05 0d e3 00 00 01 	movb   $0x1,0xe30d(%rip)        # 13480 <completed.8061>
    5173:	5d                   	pop    %rbp
    5174:	c3                   	retq   
    5175:	0f 1f 00             	nopl   (%rax)
    5178:	c3                   	retq   
    5179:	0f 1f 80 00 00 00 00 	nopl   0x0(%rax)

0000000000005180 <frame_dummy>:
    5180:	f3 0f 1e fa          	endbr64 
    5184:	e9 77 ff ff ff       	jmpq   5100 <register_tm_clones>

0000000000005189 <platform_main_begin>:
    5189:	f3 0f 1e fa          	endbr64 
    518d:	55                   	push   %rbp
    518e:	48 89 e5             	mov    %rsp,%rbp
    5191:	90                   	nop
    5192:	5d                   	pop    %rbp
    5193:	c3                   	retq   

0000000000005194 <platform_main_end>:
    5194:	f3 0f 1e fa          	endbr64 
    5198:	55                   	push   %rbp
    5199:	48 89 e5             	mov    %rsp,%rbp
    519c:	48 83 ec 10          	sub    $0x10,%rsp
    51a0:	89 7d fc             	mov    %edi,-0x4(%rbp)
    51a3:	89 75 f8             	mov    %esi,-0x8(%rbp)
    51a6:	8b 45 fc             	mov    -0x4(%rbp),%eax
    51a9:	89 c6                	mov    %eax,%esi
    51ab:	48 8d 3d 6e 7e 00 00 	lea    0x7e6e(%rip),%rdi        # d020 <_IO_stdin_used+0x20>
    51b2:	b8 00 00 00 00       	mov    $0x0,%eax
    51b7:	e8 c4 fe ff ff       	callq  5080 <printf@plt>
    51bc:	90                   	nop
    51bd:	c9                   	leaveq 
    51be:	c3                   	retq   

00000000000051bf <safe_unary_minus_func_int8_t_s>:
    51bf:	f3 0f 1e fa          	endbr64 
    51c3:	55                   	push   %rbp
    51c4:	48 89 e5             	mov    %rsp,%rbp
    51c7:	89 f8                	mov    %edi,%eax
    51c9:	88 45 fc             	mov    %al,-0x4(%rbp)
    51cc:	0f b6 45 fc          	movzbl -0x4(%rbp),%eax
    51d0:	f7 d8                	neg    %eax
    51d2:	5d                   	pop    %rbp
    51d3:	c3                   	retq   

00000000000051d4 <safe_add_func_int8_t_s_s>:
    51d4:	f3 0f 1e fa          	endbr64 
    51d8:	55                   	push   %rbp
    51d9:	48 89 e5             	mov    %rsp,%rbp
    51dc:	89 fa                	mov    %edi,%edx
    51de:	89 f0                	mov    %esi,%eax
    51e0:	88 55 fc             	mov    %dl,-0x4(%rbp)
    51e3:	88 45 f8             	mov    %al,-0x8(%rbp)
    51e6:	0f b6 55 fc          	movzbl -0x4(%rbp),%edx
    51ea:	0f b6 45 f8          	movzbl -0x8(%rbp),%eax
    51ee:	01 d0                	add    %edx,%eax
    51f0:	5d                   	pop    %rbp
    51f1:	c3                   	retq   

00000000000051f2 <safe_sub_func_int8_t_s_s>:
    51f2:	f3 0f 1e fa          	endbr64 
    51f6:	55                   	push   %rbp
    51f7:	48 89 e5             	mov    %rsp,%rbp
    51fa:	89 fa                	mov    %edi,%edx
    51fc:	89 f0                	mov    %esi,%eax
    51fe:	88 55 fc             	mov    %dl,-0x4(%rbp)
    5201:	88 45 f8             	mov    %al,-0x8(%rbp)
    5204:	0f b6 55 fc          	movzbl -0x4(%rbp),%edx
    5208:	0f b6 45 f8          	movzbl -0x8(%rbp),%eax
    520c:	29 c2                	sub    %eax,%edx
    520e:	89 d0                	mov    %edx,%eax
    5210:	5d                   	pop    %rbp
    5211:	c3                   	retq   

0000000000005212 <safe_mul_func_int8_t_s_s>:
    5212:	f3 0f 1e fa          	endbr64 
    5216:	55                   	push   %rbp
    5217:	48 89 e5             	mov    %rsp,%rbp
    521a:	89 fa                	mov    %edi,%edx
    521c:	89 f0                	mov    %esi,%eax
    521e:	88 55 fc             	mov    %dl,-0x4(%rbp)
    5221:	88 45 f8             	mov    %al,-0x8(%rbp)
    5224:	0f b6 45 fc          	movzbl -0x4(%rbp),%eax
    5228:	0f b6 55 f8          	movzbl -0x8(%rbp),%edx
    522c:	0f af c2             	imul   %edx,%eax
    522f:	5d                   	pop    %rbp
    5230:	c3                   	retq   

0000000000005231 <safe_mod_func_int8_t_s_s>:
    5231:	f3 0f 1e fa          	endbr64 
    5235:	55                   	push   %rbp
    5236:	48 89 e5             	mov    %rsp,%rbp
    5239:	89 fa                	mov    %edi,%edx
    523b:	89 f0                	mov    %esi,%eax
    523d:	88 55 fc             	mov    %dl,-0x4(%rbp)
    5240:	88 45 f8             	mov    %al,-0x8(%rbp)
    5243:	80 7d f8 00          	cmpb   $0x0,-0x8(%rbp)
    5247:	74 1b                	je     5264 <safe_mod_func_int8_t_s_s+0x33>
    5249:	80 7d fc 80          	cmpb   $0x80,-0x4(%rbp)
    524d:	75 06                	jne    5255 <safe_mod_func_int8_t_s_s+0x24>
    524f:	80 7d f8 ff          	cmpb   $0xff,-0x8(%rbp)
    5253:	74 0f                	je     5264 <safe_mod_func_int8_t_s_s+0x33>
    5255:	0f be 45 fc          	movsbl -0x4(%rbp),%eax
    5259:	0f be 4d f8          	movsbl -0x8(%rbp),%ecx
    525d:	99                   	cltd   
    525e:	f7 f9                	idiv   %ecx
    5260:	89 d0                	mov    %edx,%eax
    5262:	eb 04                	jmp    5268 <safe_mod_func_int8_t_s_s+0x37>
    5264:	0f b6 45 fc          	movzbl -0x4(%rbp),%eax
    5268:	5d                   	pop    %rbp
    5269:	c3                   	retq   

000000000000526a <safe_div_func_int8_t_s_s>:
    526a:	f3 0f 1e fa          	endbr64 
    526e:	55                   	push   %rbp
    526f:	48 89 e5             	mov    %rsp,%rbp
    5272:	89 fa                	mov    %edi,%edx
    5274:	89 f0                	mov    %esi,%eax
    5276:	88 55 fc             	mov    %dl,-0x4(%rbp)
    5279:	88 45 f8             	mov    %al,-0x8(%rbp)
    527c:	80 7d f8 00          	cmpb   $0x0,-0x8(%rbp)
    5280:	74 19                	je     529b <safe_div_func_int8_t_s_s+0x31>
    5282:	80 7d fc 80          	cmpb   $0x80,-0x4(%rbp)
    5286:	75 06                	jne    528e <safe_div_func_int8_t_s_s+0x24>
    5288:	80 7d f8 ff          	cmpb   $0xff,-0x8(%rbp)
    528c:	74 0d                	je     529b <safe_div_func_int8_t_s_s+0x31>
    528e:	0f be 45 fc          	movsbl -0x4(%rbp),%eax
    5292:	0f be 4d f8          	movsbl -0x8(%rbp),%ecx
    5296:	99                   	cltd   
    5297:	f7 f9                	idiv   %ecx
    5299:	eb 04                	jmp    529f <safe_div_func_int8_t_s_s+0x35>
    529b:	0f b6 45 fc          	movzbl -0x4(%rbp),%eax
    529f:	5d                   	pop    %rbp
    52a0:	c3                   	retq   

00000000000052a1 <safe_lshift_func_int8_t_s_s>:
    52a1:	f3 0f 1e fa          	endbr64 
    52a5:	55                   	push   %rbp
    52a6:	48 89 e5             	mov    %rsp,%rbp
    52a9:	89 f8                	mov    %edi,%eax
    52ab:	89 75 f8             	mov    %esi,-0x8(%rbp)
    52ae:	88 45 fc             	mov    %al,-0x4(%rbp)
    52b1:	80 7d fc 00          	cmpb   $0x0,-0x4(%rbp)
    52b5:	78 31                	js     52e8 <safe_lshift_func_int8_t_s_s+0x47>
    52b7:	83 7d f8 00          	cmpl   $0x0,-0x8(%rbp)
    52bb:	78 2b                	js     52e8 <safe_lshift_func_int8_t_s_s+0x47>
    52bd:	83 7d f8 1f          	cmpl   $0x1f,-0x8(%rbp)
    52c1:	7f 25                	jg     52e8 <safe_lshift_func_int8_t_s_s+0x47>
    52c3:	0f be 55 fc          	movsbl -0x4(%rbp),%edx
    52c7:	8b 45 f8             	mov    -0x8(%rbp),%eax
    52ca:	be 7f 00 00 00       	mov    $0x7f,%esi
    52cf:	89 c1                	mov    %eax,%ecx
    52d1:	d3 fe                	sar    %cl,%esi
    52d3:	89 f0                	mov    %esi,%eax
    52d5:	39 c2                	cmp    %eax,%edx
    52d7:	7f 0f                	jg     52e8 <safe_lshift_func_int8_t_s_s+0x47>
    52d9:	0f be 55 fc          	movsbl -0x4(%rbp),%edx
    52dd:	8b 45 f8             	mov    -0x8(%rbp),%eax
    52e0:	89 c1                	mov    %eax,%ecx
    52e2:	d3 e2                	shl    %cl,%edx
    52e4:	89 d0                	mov    %edx,%eax
    52e6:	eb 04                	jmp    52ec <safe_lshift_func_int8_t_s_s+0x4b>
    52e8:	0f b6 45 fc          	movzbl -0x4(%rbp),%eax
    52ec:	5d                   	pop    %rbp
    52ed:	c3                   	retq   

00000000000052ee <safe_lshift_func_int8_t_s_u>:
    52ee:	f3 0f 1e fa          	endbr64 
    52f2:	55                   	push   %rbp
    52f3:	48 89 e5             	mov    %rsp,%rbp
    52f6:	89 f8                	mov    %edi,%eax
    52f8:	89 75 f8             	mov    %esi,-0x8(%rbp)
    52fb:	88 45 fc             	mov    %al,-0x4(%rbp)
    52fe:	80 7d fc 00          	cmpb   $0x0,-0x4(%rbp)
    5302:	78 2b                	js     532f <safe_lshift_func_int8_t_s_u+0x41>
    5304:	83 7d f8 1f          	cmpl   $0x1f,-0x8(%rbp)
    5308:	77 25                	ja     532f <safe_lshift_func_int8_t_s_u+0x41>
    530a:	0f be 55 fc          	movsbl -0x4(%rbp),%edx
    530e:	8b 45 f8             	mov    -0x8(%rbp),%eax
    5311:	be 7f 00 00 00       	mov    $0x7f,%esi
    5316:	89 c1                	mov    %eax,%ecx
    5318:	d3 fe                	sar    %cl,%esi
    531a:	89 f0                	mov    %esi,%eax
    531c:	39 c2                	cmp    %eax,%edx
    531e:	7f 0f                	jg     532f <safe_lshift_func_int8_t_s_u+0x41>
    5320:	0f be 55 fc          	movsbl -0x4(%rbp),%edx
    5324:	8b 45 f8             	mov    -0x8(%rbp),%eax
    5327:	89 c1                	mov    %eax,%ecx
    5329:	d3 e2                	shl    %cl,%edx
    532b:	89 d0                	mov    %edx,%eax
    532d:	eb 04                	jmp    5333 <safe_lshift_func_int8_t_s_u+0x45>
    532f:	0f b6 45 fc          	movzbl -0x4(%rbp),%eax
    5333:	5d                   	pop    %rbp
    5334:	c3                   	retq   

0000000000005335 <safe_rshift_func_int8_t_s_s>:
    5335:	f3 0f 1e fa          	endbr64 
    5339:	55                   	push   %rbp
    533a:	48 89 e5             	mov    %rsp,%rbp
    533d:	89 f8                	mov    %edi,%eax
    533f:	89 75 f8             	mov    %esi,-0x8(%rbp)
    5342:	88 45 fc             	mov    %al,-0x4(%rbp)
    5345:	80 7d fc 00          	cmpb   $0x0,-0x4(%rbp)
    5349:	78 1b                	js     5366 <safe_rshift_func_int8_t_s_s+0x31>
    534b:	83 7d f8 00          	cmpl   $0x0,-0x8(%rbp)
    534f:	78 15                	js     5366 <safe_rshift_func_int8_t_s_s+0x31>
    5351:	83 7d f8 1f          	cmpl   $0x1f,-0x8(%rbp)
    5355:	7f 0f                	jg     5366 <safe_rshift_func_int8_t_s_s+0x31>
    5357:	0f be 55 fc          	movsbl -0x4(%rbp),%edx
    535b:	8b 45 f8             	mov    -0x8(%rbp),%eax
    535e:	89 c1                	mov    %eax,%ecx
    5360:	d3 fa                	sar    %cl,%edx
    5362:	89 d0                	mov    %edx,%eax
    5364:	eb 04                	jmp    536a <safe_rshift_func_int8_t_s_s+0x35>
    5366:	0f b6 45 fc          	movzbl -0x4(%rbp),%eax
    536a:	5d                   	pop    %rbp
    536b:	c3                   	retq   

000000000000536c <safe_rshift_func_int8_t_s_u>:
    536c:	f3 0f 1e fa          	endbr64 
    5370:	55                   	push   %rbp
    5371:	48 89 e5             	mov    %rsp,%rbp
    5374:	89 f8                	mov    %edi,%eax
    5376:	89 75 f8             	mov    %esi,-0x8(%rbp)
    5379:	88 45 fc             	mov    %al,-0x4(%rbp)
    537c:	80 7d fc 00          	cmpb   $0x0,-0x4(%rbp)
    5380:	78 15                	js     5397 <safe_rshift_func_int8_t_s_u+0x2b>
    5382:	83 7d f8 1f          	cmpl   $0x1f,-0x8(%rbp)
    5386:	77 0f                	ja     5397 <safe_rshift_func_int8_t_s_u+0x2b>
    5388:	0f be 55 fc          	movsbl -0x4(%rbp),%edx
    538c:	8b 45 f8             	mov    -0x8(%rbp),%eax
    538f:	89 c1                	mov    %eax,%ecx
    5391:	d3 fa                	sar    %cl,%edx
    5393:	89 d0                	mov    %edx,%eax
    5395:	eb 04                	jmp    539b <safe_rshift_func_int8_t_s_u+0x2f>
    5397:	0f b6 45 fc          	movzbl -0x4(%rbp),%eax
    539b:	5d                   	pop    %rbp
    539c:	c3                   	retq   

000000000000539d <safe_unary_minus_func_int16_t_s>:
    539d:	f3 0f 1e fa          	endbr64 
    53a1:	55                   	push   %rbp
    53a2:	48 89 e5             	mov    %rsp,%rbp
    53a5:	89 f8                	mov    %edi,%eax
    53a7:	66 89 45 fc          	mov    %ax,-0x4(%rbp)
    53ab:	0f b7 45 fc          	movzwl -0x4(%rbp),%eax
    53af:	f7 d8                	neg    %eax
    53b1:	5d                   	pop    %rbp
    53b2:	c3                   	retq   

00000000000053b3 <safe_add_func_int16_t_s_s>:
    53b3:	f3 0f 1e fa          	endbr64 
    53b7:	55                   	push   %rbp
    53b8:	48 89 e5             	mov    %rsp,%rbp
    53bb:	89 fa                	mov    %edi,%edx
    53bd:	89 f0                	mov    %esi,%eax
    53bf:	66 89 55 fc          	mov    %dx,-0x4(%rbp)
    53c3:	66 89 45 f8          	mov    %ax,-0x8(%rbp)
    53c7:	0f b7 55 fc          	movzwl -0x4(%rbp),%edx
    53cb:	0f b7 45 f8          	movzwl -0x8(%rbp),%eax
    53cf:	01 d0                	add    %edx,%eax
    53d1:	5d                   	pop    %rbp
    53d2:	c3                   	retq   

00000000000053d3 <safe_sub_func_int16_t_s_s>:
    53d3:	f3 0f 1e fa          	endbr64 
    53d7:	55                   	push   %rbp
    53d8:	48 89 e5             	mov    %rsp,%rbp
    53db:	89 fa                	mov    %edi,%edx
    53dd:	89 f0                	mov    %esi,%eax
    53df:	66 89 55 fc          	mov    %dx,-0x4(%rbp)
    53e3:	66 89 45 f8          	mov    %ax,-0x8(%rbp)
    53e7:	0f b7 55 fc          	movzwl -0x4(%rbp),%edx
    53eb:	0f b7 45 f8          	movzwl -0x8(%rbp),%eax
    53ef:	29 c2                	sub    %eax,%edx
    53f1:	89 d0                	mov    %edx,%eax
    53f3:	5d                   	pop    %rbp
    53f4:	c3                   	retq   

00000000000053f5 <safe_mul_func_int16_t_s_s>:
    53f5:	f3 0f 1e fa          	endbr64 
    53f9:	55                   	push   %rbp
    53fa:	48 89 e5             	mov    %rsp,%rbp
    53fd:	89 fa                	mov    %edi,%edx
    53ff:	89 f0                	mov    %esi,%eax
    5401:	66 89 55 fc          	mov    %dx,-0x4(%rbp)
    5405:	66 89 45 f8          	mov    %ax,-0x8(%rbp)
    5409:	0f b7 55 fc          	movzwl -0x4(%rbp),%edx
    540d:	0f b7 45 f8          	movzwl -0x8(%rbp),%eax
    5411:	0f af c2             	imul   %edx,%eax
    5414:	5d                   	pop    %rbp
    5415:	c3                   	retq   

0000000000005416 <safe_mod_func_int16_t_s_s>:
    5416:	f3 0f 1e fa          	endbr64 
    541a:	55                   	push   %rbp
    541b:	48 89 e5             	mov    %rsp,%rbp
    541e:	89 fa                	mov    %edi,%edx
    5420:	89 f0                	mov    %esi,%eax
    5422:	66 89 55 fc          	mov    %dx,-0x4(%rbp)
    5426:	66 89 45 f8          	mov    %ax,-0x8(%rbp)
    542a:	66 83 7d f8 00       	cmpw   $0x0,-0x8(%rbp)
    542f:	74 1e                	je     544f <safe_mod_func_int16_t_s_s+0x39>
    5431:	66 81 7d fc 00 80    	cmpw   $0x8000,-0x4(%rbp)
    5437:	75 07                	jne    5440 <safe_mod_func_int16_t_s_s+0x2a>
    5439:	66 83 7d f8 ff       	cmpw   $0xffff,-0x8(%rbp)
    543e:	74 0f                	je     544f <safe_mod_func_int16_t_s_s+0x39>
    5440:	0f bf 45 fc          	movswl -0x4(%rbp),%eax
    5444:	0f bf 4d f8          	movswl -0x8(%rbp),%ecx
    5448:	99                   	cltd   
    5449:	f7 f9                	idiv   %ecx
    544b:	89 d0                	mov    %edx,%eax
    544d:	eb 04                	jmp    5453 <safe_mod_func_int16_t_s_s+0x3d>
    544f:	0f b7 45 fc          	movzwl -0x4(%rbp),%eax
    5453:	5d                   	pop    %rbp
    5454:	c3                   	retq   

0000000000005455 <safe_div_func_int16_t_s_s>:
    5455:	f3 0f 1e fa          	endbr64 
    5459:	55                   	push   %rbp
    545a:	48 89 e5             	mov    %rsp,%rbp
    545d:	89 fa                	mov    %edi,%edx
    545f:	89 f0                	mov    %esi,%eax
    5461:	66 89 55 fc          	mov    %dx,-0x4(%rbp)
    5465:	66 89 45 f8          	mov    %ax,-0x8(%rbp)
    5469:	66 83 7d f8 00       	cmpw   $0x0,-0x8(%rbp)
    546e:	74 1c                	je     548c <safe_div_func_int16_t_s_s+0x37>
    5470:	66 81 7d fc 00 80    	cmpw   $0x8000,-0x4(%rbp)
    5476:	75 07                	jne    547f <safe_div_func_int16_t_s_s+0x2a>
    5478:	66 83 7d f8 ff       	cmpw   $0xffff,-0x8(%rbp)
    547d:	74 0d                	je     548c <safe_div_func_int16_t_s_s+0x37>
    547f:	0f bf 45 fc          	movswl -0x4(%rbp),%eax
    5483:	0f bf 4d f8          	movswl -0x8(%rbp),%ecx
    5487:	99                   	cltd   
    5488:	f7 f9                	idiv   %ecx
    548a:	eb 04                	jmp    5490 <safe_div_func_int16_t_s_s+0x3b>
    548c:	0f b7 45 fc          	movzwl -0x4(%rbp),%eax
    5490:	5d                   	pop    %rbp
    5491:	c3                   	retq   

0000000000005492 <safe_lshift_func_int16_t_s_s>:
    5492:	f3 0f 1e fa          	endbr64 
    5496:	55                   	push   %rbp
    5497:	48 89 e5             	mov    %rsp,%rbp
    549a:	89 f8                	mov    %edi,%eax
    549c:	89 75 f8             	mov    %esi,-0x8(%rbp)
    549f:	66 89 45 fc          	mov    %ax,-0x4(%rbp)
    54a3:	66 83 7d fc 00       	cmpw   $0x0,-0x4(%rbp)
    54a8:	78 31                	js     54db <safe_lshift_func_int16_t_s_s+0x49>
    54aa:	83 7d f8 00          	cmpl   $0x0,-0x8(%rbp)
    54ae:	78 2b                	js     54db <safe_lshift_func_int16_t_s_s+0x49>
    54b0:	83 7d f8 1f          	cmpl   $0x1f,-0x8(%rbp)
    54b4:	7f 25                	jg     54db <safe_lshift_func_int16_t_s_s+0x49>
    54b6:	0f bf 55 fc          	movswl -0x4(%rbp),%edx
    54ba:	8b 45 f8             	mov    -0x8(%rbp),%eax
    54bd:	be ff 7f 00 00       	mov    $0x7fff,%esi
    54c2:	89 c1                	mov    %eax,%ecx
    54c4:	d3 fe                	sar    %cl,%esi
    54c6:	89 f0                	mov    %esi,%eax
    54c8:	39 c2                	cmp    %eax,%edx
    54ca:	7f 0f                	jg     54db <safe_lshift_func_int16_t_s_s+0x49>
    54cc:	0f bf 55 fc          	movswl -0x4(%rbp),%edx
    54d0:	8b 45 f8             	mov    -0x8(%rbp),%eax
    54d3:	89 c1                	mov    %eax,%ecx
    54d5:	d3 e2                	shl    %cl,%edx
    54d7:	89 d0                	mov    %edx,%eax
    54d9:	eb 04                	jmp    54df <safe_lshift_func_int16_t_s_s+0x4d>
    54db:	0f b7 45 fc          	movzwl -0x4(%rbp),%eax
    54df:	5d                   	pop    %rbp
    54e0:	c3                   	retq   

00000000000054e1 <safe_lshift_func_int16_t_s_u>:
    54e1:	f3 0f 1e fa          	endbr64 
    54e5:	55                   	push   %rbp
    54e6:	48 89 e5             	mov    %rsp,%rbp
    54e9:	89 f8                	mov    %edi,%eax
    54eb:	89 75 f8             	mov    %esi,-0x8(%rbp)
    54ee:	66 89 45 fc          	mov    %ax,-0x4(%rbp)
    54f2:	66 83 7d fc 00       	cmpw   $0x0,-0x4(%rbp)
    54f7:	78 2b                	js     5524 <safe_lshift_func_int16_t_s_u+0x43>
    54f9:	83 7d f8 1f          	cmpl   $0x1f,-0x8(%rbp)
    54fd:	77 25                	ja     5524 <safe_lshift_func_int16_t_s_u+0x43>
    54ff:	0f bf 55 fc          	movswl -0x4(%rbp),%edx
    5503:	8b 45 f8             	mov    -0x8(%rbp),%eax
    5506:	be ff 7f 00 00       	mov    $0x7fff,%esi
    550b:	89 c1                	mov    %eax,%ecx
    550d:	d3 fe                	sar    %cl,%esi
    550f:	89 f0                	mov    %esi,%eax
    5511:	39 c2                	cmp    %eax,%edx
    5513:	7f 0f                	jg     5524 <safe_lshift_func_int16_t_s_u+0x43>
    5515:	0f bf 55 fc          	movswl -0x4(%rbp),%edx
    5519:	8b 45 f8             	mov    -0x8(%rbp),%eax
    551c:	89 c1                	mov    %eax,%ecx
    551e:	d3 e2                	shl    %cl,%edx
    5520:	89 d0                	mov    %edx,%eax
    5522:	eb 04                	jmp    5528 <safe_lshift_func_int16_t_s_u+0x47>
    5524:	0f b7 45 fc          	movzwl -0x4(%rbp),%eax
    5528:	5d                   	pop    %rbp
    5529:	c3                   	retq   

000000000000552a <safe_rshift_func_int16_t_s_s>:
    552a:	f3 0f 1e fa          	endbr64 
    552e:	55                   	push   %rbp
    552f:	48 89 e5             	mov    %rsp,%rbp
    5532:	89 f8                	mov    %edi,%eax
    5534:	89 75 f8             	mov    %esi,-0x8(%rbp)
    5537:	66 89 45 fc          	mov    %ax,-0x4(%rbp)
    553b:	66 83 7d fc 00       	cmpw   $0x0,-0x4(%rbp)
    5540:	78 1b                	js     555d <safe_rshift_func_int16_t_s_s+0x33>
    5542:	83 7d f8 00          	cmpl   $0x0,-0x8(%rbp)
    5546:	78 15                	js     555d <safe_rshift_func_int16_t_s_s+0x33>
    5548:	83 7d f8 1f          	cmpl   $0x1f,-0x8(%rbp)
    554c:	7f 0f                	jg     555d <safe_rshift_func_int16_t_s_s+0x33>
    554e:	0f bf 55 fc          	movswl -0x4(%rbp),%edx
    5552:	8b 45 f8             	mov    -0x8(%rbp),%eax
    5555:	89 c1                	mov    %eax,%ecx
    5557:	d3 fa                	sar    %cl,%edx
    5559:	89 d0                	mov    %edx,%eax
    555b:	eb 04                	jmp    5561 <safe_rshift_func_int16_t_s_s+0x37>
    555d:	0f b7 45 fc          	movzwl -0x4(%rbp),%eax
    5561:	5d                   	pop    %rbp
    5562:	c3                   	retq   

0000000000005563 <safe_rshift_func_int16_t_s_u>:
    5563:	f3 0f 1e fa          	endbr64 
    5567:	55                   	push   %rbp
    5568:	48 89 e5             	mov    %rsp,%rbp
    556b:	89 f8                	mov    %edi,%eax
    556d:	89 75 f8             	mov    %esi,-0x8(%rbp)
    5570:	66 89 45 fc          	mov    %ax,-0x4(%rbp)
    5574:	66 83 7d fc 00       	cmpw   $0x0,-0x4(%rbp)
    5579:	78 15                	js     5590 <safe_rshift_func_int16_t_s_u+0x2d>
    557b:	83 7d f8 1f          	cmpl   $0x1f,-0x8(%rbp)
    557f:	77 0f                	ja     5590 <safe_rshift_func_int16_t_s_u+0x2d>
    5581:	0f bf 55 fc          	movswl -0x4(%rbp),%edx
    5585:	8b 45 f8             	mov    -0x8(%rbp),%eax
    5588:	89 c1                	mov    %eax,%ecx
    558a:	d3 fa                	sar    %cl,%edx
    558c:	89 d0                	mov    %edx,%eax
    558e:	eb 04                	jmp    5594 <safe_rshift_func_int16_t_s_u+0x31>
    5590:	0f b7 45 fc          	movzwl -0x4(%rbp),%eax
    5594:	5d                   	pop    %rbp
    5595:	c3                   	retq   

0000000000005596 <safe_unary_minus_func_int32_t_s>:
    5596:	f3 0f 1e fa          	endbr64 
    559a:	55                   	push   %rbp
    559b:	48 89 e5             	mov    %rsp,%rbp
    559e:	89 7d fc             	mov    %edi,-0x4(%rbp)
    55a1:	81 7d fc 00 00 00 80 	cmpl   $0x80000000,-0x4(%rbp)
    55a8:	74 07                	je     55b1 <safe_unary_minus_func_int32_t_s+0x1b>
    55aa:	8b 45 fc             	mov    -0x4(%rbp),%eax
    55ad:	f7 d8                	neg    %eax
    55af:	eb 03                	jmp    55b4 <safe_unary_minus_func_int32_t_s+0x1e>
    55b1:	8b 45 fc             	mov    -0x4(%rbp),%eax
    55b4:	5d                   	pop    %rbp
    55b5:	c3                   	retq   

00000000000055b6 <safe_add_func_int32_t_s_s>:
    55b6:	f3 0f 1e fa          	endbr64 
    55ba:	55                   	push   %rbp
    55bb:	48 89 e5             	mov    %rsp,%rbp
    55be:	89 7d fc             	mov    %edi,-0x4(%rbp)
    55c1:	89 75 f8             	mov    %esi,-0x8(%rbp)
    55c4:	83 7d fc 00          	cmpl   $0x0,-0x4(%rbp)
    55c8:	7e 13                	jle    55dd <safe_add_func_int32_t_s_s+0x27>
    55ca:	83 7d f8 00          	cmpl   $0x0,-0x8(%rbp)
    55ce:	7e 0d                	jle    55dd <safe_add_func_int32_t_s_s+0x27>
    55d0:	b8 ff ff ff 7f       	mov    $0x7fffffff,%eax
    55d5:	2b 45 f8             	sub    -0x8(%rbp),%eax
    55d8:	39 45 fc             	cmp    %eax,-0x4(%rbp)
    55db:	7f 23                	jg     5600 <safe_add_func_int32_t_s_s+0x4a>
    55dd:	83 7d fc 00          	cmpl   $0x0,-0x4(%rbp)
    55e1:	79 13                	jns    55f6 <safe_add_func_int32_t_s_s+0x40>
    55e3:	83 7d f8 00          	cmpl   $0x0,-0x8(%rbp)
    55e7:	79 0d                	jns    55f6 <safe_add_func_int32_t_s_s+0x40>
    55e9:	b8 00 00 00 80       	mov    $0x80000000,%eax
    55ee:	2b 45 f8             	sub    -0x8(%rbp),%eax
    55f1:	39 45 fc             	cmp    %eax,-0x4(%rbp)
    55f4:	7c 0a                	jl     5600 <safe_add_func_int32_t_s_s+0x4a>
    55f6:	8b 55 fc             	mov    -0x4(%rbp),%edx
    55f9:	8b 45 f8             	mov    -0x8(%rbp),%eax
    55fc:	01 d0                	add    %edx,%eax
    55fe:	eb 03                	jmp    5603 <safe_add_func_int32_t_s_s+0x4d>
    5600:	8b 45 fc             	mov    -0x4(%rbp),%eax
    5603:	5d                   	pop    %rbp
    5604:	c3                   	retq   

0000000000005605 <safe_sub_func_int32_t_s_s>:
    5605:	f3 0f 1e fa          	endbr64 
    5609:	55                   	push   %rbp
    560a:	48 89 e5             	mov    %rsp,%rbp
    560d:	89 7d fc             	mov    %edi,-0x4(%rbp)
    5610:	89 75 f8             	mov    %esi,-0x8(%rbp)
    5613:	8b 45 fc             	mov    -0x4(%rbp),%eax
    5616:	33 45 f8             	xor    -0x8(%rbp),%eax
    5619:	89 c2                	mov    %eax,%edx
    561b:	8b 45 fc             	mov    -0x4(%rbp),%eax
    561e:	33 45 f8             	xor    -0x8(%rbp),%eax
    5621:	25 00 00 00 80       	and    $0x80000000,%eax
    5626:	33 45 fc             	xor    -0x4(%rbp),%eax
    5629:	2b 45 f8             	sub    -0x8(%rbp),%eax
    562c:	33 45 f8             	xor    -0x8(%rbp),%eax
    562f:	21 d0                	and    %edx,%eax
    5631:	85 c0                	test   %eax,%eax
    5633:	78 08                	js     563d <safe_sub_func_int32_t_s_s+0x38>
    5635:	8b 45 fc             	mov    -0x4(%rbp),%eax
    5638:	2b 45 f8             	sub    -0x8(%rbp),%eax
    563b:	eb 03                	jmp    5640 <safe_sub_func_int32_t_s_s+0x3b>
    563d:	8b 45 fc             	mov    -0x4(%rbp),%eax
    5640:	5d                   	pop    %rbp
    5641:	c3                   	retq   

0000000000005642 <safe_mul_func_int32_t_s_s>:
    5642:	f3 0f 1e fa          	endbr64 
    5646:	55                   	push   %rbp
    5647:	48 89 e5             	mov    %rsp,%rbp
    564a:	89 7d fc             	mov    %edi,-0x4(%rbp)
    564d:	89 75 f8             	mov    %esi,-0x8(%rbp)
    5650:	83 7d fc 00          	cmpl   $0x0,-0x4(%rbp)
    5654:	7e 14                	jle    566a <safe_mul_func_int32_t_s_s+0x28>
    5656:	83 7d f8 00          	cmpl   $0x0,-0x8(%rbp)
    565a:	7e 0e                	jle    566a <safe_mul_func_int32_t_s_s+0x28>
    565c:	b8 ff ff ff 7f       	mov    $0x7fffffff,%eax
    5661:	99                   	cltd   
    5662:	f7 7d f8             	idivl  -0x8(%rbp)
    5665:	39 45 fc             	cmp    %eax,-0x4(%rbp)
    5668:	7f 5d                	jg     56c7 <safe_mul_func_int32_t_s_s+0x85>
    566a:	83 7d fc 00          	cmpl   $0x0,-0x4(%rbp)
    566e:	7e 14                	jle    5684 <safe_mul_func_int32_t_s_s+0x42>
    5670:	83 7d f8 00          	cmpl   $0x0,-0x8(%rbp)
    5674:	7f 0e                	jg     5684 <safe_mul_func_int32_t_s_s+0x42>
    5676:	b8 00 00 00 80       	mov    $0x80000000,%eax
    567b:	99                   	cltd   
    567c:	f7 7d fc             	idivl  -0x4(%rbp)
    567f:	39 45 f8             	cmp    %eax,-0x8(%rbp)
    5682:	7c 43                	jl     56c7 <safe_mul_func_int32_t_s_s+0x85>
    5684:	83 7d fc 00          	cmpl   $0x0,-0x4(%rbp)
    5688:	7f 14                	jg     569e <safe_mul_func_int32_t_s_s+0x5c>
    568a:	83 7d f8 00          	cmpl   $0x0,-0x8(%rbp)
    568e:	7e 0e                	jle    569e <safe_mul_func_int32_t_s_s+0x5c>
    5690:	b8 00 00 00 80       	mov    $0x80000000,%eax
    5695:	99                   	cltd   
    5696:	f7 7d f8             	idivl  -0x8(%rbp)
    5699:	39 45 fc             	cmp    %eax,-0x4(%rbp)
    569c:	7c 29                	jl     56c7 <safe_mul_func_int32_t_s_s+0x85>
    569e:	83 7d fc 00          	cmpl   $0x0,-0x4(%rbp)
    56a2:	7f 1a                	jg     56be <safe_mul_func_int32_t_s_s+0x7c>
    56a4:	83 7d f8 00          	cmpl   $0x0,-0x8(%rbp)
    56a8:	7f 14                	jg     56be <safe_mul_func_int32_t_s_s+0x7c>
    56aa:	83 7d fc 00          	cmpl   $0x0,-0x4(%rbp)
    56ae:	74 0e                	je     56be <safe_mul_func_int32_t_s_s+0x7c>
    56b0:	b8 ff ff ff 7f       	mov    $0x7fffffff,%eax
    56b5:	99                   	cltd   
    56b6:	f7 7d fc             	idivl  -0x4(%rbp)
    56b9:	39 45 f8             	cmp    %eax,-0x8(%rbp)
    56bc:	7c 09                	jl     56c7 <safe_mul_func_int32_t_s_s+0x85>
    56be:	8b 45 fc             	mov    -0x4(%rbp),%eax
    56c1:	0f af 45 f8          	imul   -0x8(%rbp),%eax
    56c5:	eb 03                	jmp    56ca <safe_mul_func_int32_t_s_s+0x88>
    56c7:	8b 45 fc             	mov    -0x4(%rbp),%eax
    56ca:	5d                   	pop    %rbp
    56cb:	c3                   	retq   

00000000000056cc <safe_mod_func_int32_t_s_s>:
    56cc:	f3 0f 1e fa          	endbr64 
    56d0:	55                   	push   %rbp
    56d1:	48 89 e5             	mov    %rsp,%rbp
    56d4:	89 7d fc             	mov    %edi,-0x4(%rbp)
    56d7:	89 75 f8             	mov    %esi,-0x8(%rbp)
    56da:	83 7d f8 00          	cmpl   $0x0,-0x8(%rbp)
    56de:	74 1a                	je     56fa <safe_mod_func_int32_t_s_s+0x2e>
    56e0:	81 7d fc 00 00 00 80 	cmpl   $0x80000000,-0x4(%rbp)
    56e7:	75 06                	jne    56ef <safe_mod_func_int32_t_s_s+0x23>
    56e9:	83 7d f8 ff          	cmpl   $0xffffffff,-0x8(%rbp)
    56ed:	74 0b                	je     56fa <safe_mod_func_int32_t_s_s+0x2e>
    56ef:	8b 45 fc             	mov    -0x4(%rbp),%eax
    56f2:	99                   	cltd   
    56f3:	f7 7d f8             	idivl  -0x8(%rbp)
    56f6:	89 d0                	mov    %edx,%eax
    56f8:	eb 03                	jmp    56fd <safe_mod_func_int32_t_s_s+0x31>
    56fa:	8b 45 fc             	mov    -0x4(%rbp),%eax
    56fd:	5d                   	pop    %rbp
    56fe:	c3                   	retq   

00000000000056ff <safe_div_func_int32_t_s_s>:
    56ff:	f3 0f 1e fa          	endbr64 
    5703:	55                   	push   %rbp
    5704:	48 89 e5             	mov    %rsp,%rbp
    5707:	89 7d fc             	mov    %edi,-0x4(%rbp)
    570a:	89 75 f8             	mov    %esi,-0x8(%rbp)
    570d:	83 7d f8 00          	cmpl   $0x0,-0x8(%rbp)
    5711:	74 18                	je     572b <safe_div_func_int32_t_s_s+0x2c>
    5713:	81 7d fc 00 00 00 80 	cmpl   $0x80000000,-0x4(%rbp)
    571a:	75 06                	jne    5722 <safe_div_func_int32_t_s_s+0x23>
    571c:	83 7d f8 ff          	cmpl   $0xffffffff,-0x8(%rbp)
    5720:	74 09                	je     572b <safe_div_func_int32_t_s_s+0x2c>
    5722:	8b 45 fc             	mov    -0x4(%rbp),%eax
    5725:	99                   	cltd   
    5726:	f7 7d f8             	idivl  -0x8(%rbp)
    5729:	eb 03                	jmp    572e <safe_div_func_int32_t_s_s+0x2f>
    572b:	8b 45 fc             	mov    -0x4(%rbp),%eax
    572e:	5d                   	pop    %rbp
    572f:	c3                   	retq   

0000000000005730 <safe_lshift_func_int32_t_s_s>:
    5730:	f3 0f 1e fa          	endbr64 
    5734:	55                   	push   %rbp
    5735:	48 89 e5             	mov    %rsp,%rbp
    5738:	89 7d fc             	mov    %edi,-0x4(%rbp)
    573b:	89 75 f8             	mov    %esi,-0x8(%rbp)
    573e:	83 7d fc 00          	cmpl   $0x0,-0x4(%rbp)
    5742:	78 2d                	js     5771 <safe_lshift_func_int32_t_s_s+0x41>
    5744:	83 7d f8 00          	cmpl   $0x0,-0x8(%rbp)
    5748:	78 27                	js     5771 <safe_lshift_func_int32_t_s_s+0x41>
    574a:	83 7d f8 1f          	cmpl   $0x1f,-0x8(%rbp)
    574e:	7f 21                	jg     5771 <safe_lshift_func_int32_t_s_s+0x41>
    5750:	8b 45 f8             	mov    -0x8(%rbp),%eax
    5753:	ba ff ff ff 7f       	mov    $0x7fffffff,%edx
    5758:	89 c1                	mov    %eax,%ecx
    575a:	d3 fa                	sar    %cl,%edx
    575c:	89 d0                	mov    %edx,%eax
    575e:	39 45 fc             	cmp    %eax,-0x4(%rbp)
    5761:	7f 0e                	jg     5771 <safe_lshift_func_int32_t_s_s+0x41>
    5763:	8b 45 f8             	mov    -0x8(%rbp),%eax
    5766:	8b 55 fc             	mov    -0x4(%rbp),%edx
    5769:	89 c1                	mov    %eax,%ecx
    576b:	d3 e2                	shl    %cl,%edx
    576d:	89 d0                	mov    %edx,%eax
    576f:	eb 03                	jmp    5774 <safe_lshift_func_int32_t_s_s+0x44>
    5771:	8b 45 fc             	mov    -0x4(%rbp),%eax
    5774:	5d                   	pop    %rbp
    5775:	c3                   	retq   

0000000000005776 <safe_lshift_func_int32_t_s_u>:
    5776:	f3 0f 1e fa          	endbr64 
    577a:	55                   	push   %rbp
    577b:	48 89 e5             	mov    %rsp,%rbp
    577e:	89 7d fc             	mov    %edi,-0x4(%rbp)
    5781:	89 75 f8             	mov    %esi,-0x8(%rbp)
    5784:	83 7d fc 00          	cmpl   $0x0,-0x4(%rbp)
    5788:	78 27                	js     57b1 <safe_lshift_func_int32_t_s_u+0x3b>
    578a:	83 7d f8 1f          	cmpl   $0x1f,-0x8(%rbp)
    578e:	77 21                	ja     57b1 <safe_lshift_func_int32_t_s_u+0x3b>
    5790:	8b 45 f8             	mov    -0x8(%rbp),%eax
    5793:	ba ff ff ff 7f       	mov    $0x7fffffff,%edx
    5798:	89 c1                	mov    %eax,%ecx
    579a:	d3 fa                	sar    %cl,%edx
    579c:	89 d0                	mov    %edx,%eax
    579e:	39 45 fc             	cmp    %eax,-0x4(%rbp)
    57a1:	7f 0e                	jg     57b1 <safe_lshift_func_int32_t_s_u+0x3b>
    57a3:	8b 45 f8             	mov    -0x8(%rbp),%eax
    57a6:	8b 55 fc             	mov    -0x4(%rbp),%edx
    57a9:	89 c1                	mov    %eax,%ecx
    57ab:	d3 e2                	shl    %cl,%edx
    57ad:	89 d0                	mov    %edx,%eax
    57af:	eb 03                	jmp    57b4 <safe_lshift_func_int32_t_s_u+0x3e>
    57b1:	8b 45 fc             	mov    -0x4(%rbp),%eax
    57b4:	5d                   	pop    %rbp
    57b5:	c3                   	retq   

00000000000057b6 <safe_rshift_func_int32_t_s_s>:
    57b6:	f3 0f 1e fa          	endbr64 
    57ba:	55                   	push   %rbp
    57bb:	48 89 e5             	mov    %rsp,%rbp
    57be:	89 7d fc             	mov    %edi,-0x4(%rbp)
    57c1:	89 75 f8             	mov    %esi,-0x8(%rbp)
    57c4:	83 7d fc 00          	cmpl   $0x0,-0x4(%rbp)
    57c8:	78 1a                	js     57e4 <safe_rshift_func_int32_t_s_s+0x2e>
    57ca:	83 7d f8 00          	cmpl   $0x0,-0x8(%rbp)
    57ce:	78 14                	js     57e4 <safe_rshift_func_int32_t_s_s+0x2e>
    57d0:	83 7d f8 1f          	cmpl   $0x1f,-0x8(%rbp)
    57d4:	7f 0e                	jg     57e4 <safe_rshift_func_int32_t_s_s+0x2e>
    57d6:	8b 45 f8             	mov    -0x8(%rbp),%eax
    57d9:	8b 55 fc             	mov    -0x4(%rbp),%edx
    57dc:	89 c1                	mov    %eax,%ecx
    57de:	d3 fa                	sar    %cl,%edx
    57e0:	89 d0                	mov    %edx,%eax
    57e2:	eb 03                	jmp    57e7 <safe_rshift_func_int32_t_s_s+0x31>
    57e4:	8b 45 fc             	mov    -0x4(%rbp),%eax
    57e7:	5d                   	pop    %rbp
    57e8:	c3                   	retq   

00000000000057e9 <safe_rshift_func_int32_t_s_u>:
    57e9:	f3 0f 1e fa          	endbr64 
    57ed:	55                   	push   %rbp
    57ee:	48 89 e5             	mov    %rsp,%rbp
    57f1:	89 7d fc             	mov    %edi,-0x4(%rbp)
    57f4:	89 75 f8             	mov    %esi,-0x8(%rbp)
    57f7:	83 7d fc 00          	cmpl   $0x0,-0x4(%rbp)
    57fb:	78 14                	js     5811 <safe_rshift_func_int32_t_s_u+0x28>
    57fd:	83 7d f8 1f          	cmpl   $0x1f,-0x8(%rbp)
    5801:	77 0e                	ja     5811 <safe_rshift_func_int32_t_s_u+0x28>
    5803:	8b 45 f8             	mov    -0x8(%rbp),%eax
    5806:	8b 55 fc             	mov    -0x4(%rbp),%edx
    5809:	89 c1                	mov    %eax,%ecx
    580b:	d3 fa                	sar    %cl,%edx
    580d:	89 d0                	mov    %edx,%eax
    580f:	eb 03                	jmp    5814 <safe_rshift_func_int32_t_s_u+0x2b>
    5811:	8b 45 fc             	mov    -0x4(%rbp),%eax
    5814:	5d                   	pop    %rbp
    5815:	c3                   	retq   

0000000000005816 <safe_unary_minus_func_int64_t_s>:
    5816:	f3 0f 1e fa          	endbr64 
    581a:	55                   	push   %rbp
    581b:	48 89 e5             	mov    %rsp,%rbp
    581e:	48 89 7d f8          	mov    %rdi,-0x8(%rbp)
    5822:	48 b8 00 00 00 00 00 	movabs $0x8000000000000000,%rax
    5829:	00 00 80 
    582c:	48 39 45 f8          	cmp    %rax,-0x8(%rbp)
    5830:	74 09                	je     583b <safe_unary_minus_func_int64_t_s+0x25>
    5832:	48 8b 45 f8          	mov    -0x8(%rbp),%rax
    5836:	48 f7 d8             	neg    %rax
    5839:	eb 04                	jmp    583f <safe_unary_minus_func_int64_t_s+0x29>
    583b:	48 8b 45 f8          	mov    -0x8(%rbp),%rax
    583f:	5d                   	pop    %rbp
    5840:	c3                   	retq   

0000000000005841 <safe_add_func_int64_t_s_s>:
    5841:	f3 0f 1e fa          	endbr64 
    5845:	55                   	push   %rbp
    5846:	48 89 e5             	mov    %rsp,%rbp
    5849:	48 89 7d f8          	mov    %rdi,-0x8(%rbp)
    584d:	48 89 75 f0          	mov    %rsi,-0x10(%rbp)
    5851:	48 83 7d f8 00       	cmpq   $0x0,-0x8(%rbp)
    5856:	7e 1b                	jle    5873 <safe_add_func_int64_t_s_s+0x32>
    5858:	48 83 7d f0 00       	cmpq   $0x0,-0x10(%rbp)
    585d:	7e 14                	jle    5873 <safe_add_func_int64_t_s_s+0x32>
    585f:	48 b8 ff ff ff ff ff 	movabs $0x7fffffffffffffff,%rax
    5866:	ff ff 7f 
    5869:	48 2b 45 f0          	sub    -0x10(%rbp),%rax
    586d:	48 39 45 f8          	cmp    %rax,-0x8(%rbp)
    5871:	7f 2f                	jg     58a2 <safe_add_func_int64_t_s_s+0x61>
    5873:	48 83 7d f8 00       	cmpq   $0x0,-0x8(%rbp)
    5878:	79 1b                	jns    5895 <safe_add_func_int64_t_s_s+0x54>
    587a:	48 83 7d f0 00       	cmpq   $0x0,-0x10(%rbp)
    587f:	79 14                	jns    5895 <safe_add_func_int64_t_s_s+0x54>
    5881:	48 b8 00 00 00 00 00 	movabs $0x8000000000000000,%rax
    5888:	00 00 80 
    588b:	48 2b 45 f0          	sub    -0x10(%rbp),%rax
    588f:	48 39 45 f8          	cmp    %rax,-0x8(%rbp)
    5893:	7c 0d                	jl     58a2 <safe_add_func_int64_t_s_s+0x61>
    5895:	48 8b 55 f8          	mov    -0x8(%rbp),%rdx
    5899:	48 8b 45 f0          	mov    -0x10(%rbp),%rax
    589d:	48 01 d0             	add    %rdx,%rax
    58a0:	eb 04                	jmp    58a6 <safe_add_func_int64_t_s_s+0x65>
    58a2:	48 8b 45 f8          	mov    -0x8(%rbp),%rax
    58a6:	5d                   	pop    %rbp
    58a7:	c3                   	retq   

00000000000058a8 <safe_sub_func_int64_t_s_s>:
    58a8:	f3 0f 1e fa          	endbr64 
    58ac:	55                   	push   %rbp
    58ad:	48 89 e5             	mov    %rsp,%rbp
    58b0:	48 89 7d f8          	mov    %rdi,-0x8(%rbp)
    58b4:	48 89 75 f0          	mov    %rsi,-0x10(%rbp)
    58b8:	48 8b 45 f8          	mov    -0x8(%rbp),%rax
    58bc:	48 33 45 f0          	xor    -0x10(%rbp),%rax
    58c0:	48 89 c2             	mov    %rax,%rdx
    58c3:	48 8b 45 f8          	mov    -0x8(%rbp),%rax
    58c7:	48 33 45 f0          	xor    -0x10(%rbp),%rax
    58cb:	48 b9 00 00 00 00 00 	movabs $0x8000000000000000,%rcx
    58d2:	00 00 80 
    58d5:	48 21 c8             	and    %rcx,%rax
    58d8:	48 33 45 f8          	xor    -0x8(%rbp),%rax
    58dc:	48 2b 45 f0          	sub    -0x10(%rbp),%rax
    58e0:	48 33 45 f0          	xor    -0x10(%rbp),%rax
    58e4:	48 21 d0             	and    %rdx,%rax
    58e7:	48 85 c0             	test   %rax,%rax
    58ea:	78 0a                	js     58f6 <safe_sub_func_int64_t_s_s+0x4e>
    58ec:	48 8b 45 f8          	mov    -0x8(%rbp),%rax
    58f0:	48 2b 45 f0          	sub    -0x10(%rbp),%rax
    58f4:	eb 04                	jmp    58fa <safe_sub_func_int64_t_s_s+0x52>
    58f6:	48 8b 45 f8          	mov    -0x8(%rbp),%rax
    58fa:	5d                   	pop    %rbp
    58fb:	c3                   	retq   

00000000000058fc <safe_mul_func_int64_t_s_s>:
    58fc:	f3 0f 1e fa          	endbr64 
    5900:	55                   	push   %rbp
    5901:	48 89 e5             	mov    %rsp,%rbp
    5904:	48 89 7d f8          	mov    %rdi,-0x8(%rbp)
    5908:	48 89 75 f0          	mov    %rsi,-0x10(%rbp)
    590c:	48 83 7d f8 00       	cmpq   $0x0,-0x8(%rbp)
    5911:	7e 1d                	jle    5930 <safe_mul_func_int64_t_s_s+0x34>
    5913:	48 83 7d f0 00       	cmpq   $0x0,-0x10(%rbp)
    5918:	7e 16                	jle    5930 <safe_mul_func_int64_t_s_s+0x34>
    591a:	48 b8 ff ff ff ff ff 	movabs $0x7fffffffffffffff,%rax
    5921:	ff ff 7f 
    5924:	48 99                	cqto   
    5926:	48 f7 7d f0          	idivq  -0x10(%rbp)
    592a:	48 39 45 f8          	cmp    %rax,-0x8(%rbp)
    592e:	7f 7e                	jg     59ae <safe_mul_func_int64_t_s_s+0xb2>
    5930:	48 83 7d f8 00       	cmpq   $0x0,-0x8(%rbp)
    5935:	7e 1d                	jle    5954 <safe_mul_func_int64_t_s_s+0x58>
    5937:	48 83 7d f0 00       	cmpq   $0x0,-0x10(%rbp)
    593c:	7f 16                	jg     5954 <safe_mul_func_int64_t_s_s+0x58>
    593e:	48 b8 00 00 00 00 00 	movabs $0x8000000000000000,%rax
    5945:	00 00 80 
    5948:	48 99                	cqto   
    594a:	48 f7 7d f8          	idivq  -0x8(%rbp)
    594e:	48 39 45 f0          	cmp    %rax,-0x10(%rbp)
    5952:	7c 5a                	jl     59ae <safe_mul_func_int64_t_s_s+0xb2>
    5954:	48 83 7d f8 00       	cmpq   $0x0,-0x8(%rbp)
    5959:	7f 1d                	jg     5978 <safe_mul_func_int64_t_s_s+0x7c>
    595b:	48 83 7d f0 00       	cmpq   $0x0,-0x10(%rbp)
    5960:	7e 16                	jle    5978 <safe_mul_func_int64_t_s_s+0x7c>
    5962:	48 b8 00 00 00 00 00 	movabs $0x8000000000000000,%rax
    5969:	00 00 80 
    596c:	48 99                	cqto   
    596e:	48 f7 7d f0          	idivq  -0x10(%rbp)
    5972:	48 39 45 f8          	cmp    %rax,-0x8(%rbp)
    5976:	7c 36                	jl     59ae <safe_mul_func_int64_t_s_s+0xb2>
    5978:	48 83 7d f8 00       	cmpq   $0x0,-0x8(%rbp)
    597d:	7f 24                	jg     59a3 <safe_mul_func_int64_t_s_s+0xa7>
    597f:	48 83 7d f0 00       	cmpq   $0x0,-0x10(%rbp)
    5984:	7f 1d                	jg     59a3 <safe_mul_func_int64_t_s_s+0xa7>
    5986:	48 83 7d f8 00       	cmpq   $0x0,-0x8(%rbp)
    598b:	74 16                	je     59a3 <safe_mul_func_int64_t_s_s+0xa7>
    598d:	48 b8 ff ff ff ff ff 	movabs $0x7fffffffffffffff,%rax
    5994:	ff ff 7f 
    5997:	48 99                	cqto   
    5999:	48 f7 7d f8          	idivq  -0x8(%rbp)
    599d:	48 39 45 f0          	cmp    %rax,-0x10(%rbp)
    59a1:	7c 0b                	jl     59ae <safe_mul_func_int64_t_s_s+0xb2>
    59a3:	48 8b 45 f8          	mov    -0x8(%rbp),%rax
    59a7:	48 0f af 45 f0       	imul   -0x10(%rbp),%rax
    59ac:	eb 04                	jmp    59b2 <safe_mul_func_int64_t_s_s+0xb6>
    59ae:	48 8b 45 f8          	mov    -0x8(%rbp),%rax
    59b2:	5d                   	pop    %rbp
    59b3:	c3                   	retq   

00000000000059b4 <safe_mod_func_int64_t_s_s>:
    59b4:	f3 0f 1e fa          	endbr64 
    59b8:	55                   	push   %rbp
    59b9:	48 89 e5             	mov    %rsp,%rbp
    59bc:	48 89 7d f8          	mov    %rdi,-0x8(%rbp)
    59c0:	48 89 75 f0          	mov    %rsi,-0x10(%rbp)
    59c4:	48 83 7d f0 00       	cmpq   $0x0,-0x10(%rbp)
    59c9:	74 26                	je     59f1 <safe_mod_func_int64_t_s_s+0x3d>
    59cb:	48 b8 00 00 00 00 00 	movabs $0x8000000000000000,%rax
    59d2:	00 00 80 
    59d5:	48 39 45 f8          	cmp    %rax,-0x8(%rbp)
    59d9:	75 07                	jne    59e2 <safe_mod_func_int64_t_s_s+0x2e>
    59db:	48 83 7d f0 ff       	cmpq   $0xffffffffffffffff,-0x10(%rbp)
    59e0:	74 0f                	je     59f1 <safe_mod_func_int64_t_s_s+0x3d>
    59e2:	48 8b 45 f8          	mov    -0x8(%rbp),%rax
    59e6:	48 99                	cqto   
    59e8:	48 f7 7d f0          	idivq  -0x10(%rbp)
    59ec:	48 89 d0             	mov    %rdx,%rax
    59ef:	eb 04                	jmp    59f5 <safe_mod_func_int64_t_s_s+0x41>
    59f1:	48 8b 45 f8          	mov    -0x8(%rbp),%rax
    59f5:	5d                   	pop    %rbp
    59f6:	c3                   	retq   

00000000000059f7 <safe_div_func_int64_t_s_s>:
    59f7:	f3 0f 1e fa          	endbr64 
    59fb:	55                   	push   %rbp
    59fc:	48 89 e5             	mov    %rsp,%rbp
    59ff:	48 89 7d f8          	mov    %rdi,-0x8(%rbp)
    5a03:	48 89 75 f0          	mov    %rsi,-0x10(%rbp)
    5a07:	48 83 7d f0 00       	cmpq   $0x0,-0x10(%rbp)
    5a0c:	74 23                	je     5a31 <safe_div_func_int64_t_s_s+0x3a>
    5a0e:	48 b8 00 00 00 00 00 	movabs $0x8000000000000000,%rax
    5a15:	00 00 80 
    5a18:	48 39 45 f8          	cmp    %rax,-0x8(%rbp)
    5a1c:	75 07                	jne    5a25 <safe_div_func_int64_t_s_s+0x2e>
    5a1e:	48 83 7d f0 ff       	cmpq   $0xffffffffffffffff,-0x10(%rbp)
    5a23:	74 0c                	je     5a31 <safe_div_func_int64_t_s_s+0x3a>
    5a25:	48 8b 45 f8          	mov    -0x8(%rbp),%rax
    5a29:	48 99                	cqto   
    5a2b:	48 f7 7d f0          	idivq  -0x10(%rbp)
    5a2f:	eb 04                	jmp    5a35 <safe_div_func_int64_t_s_s+0x3e>
    5a31:	48 8b 45 f8          	mov    -0x8(%rbp),%rax
    5a35:	5d                   	pop    %rbp
    5a36:	c3                   	retq   

0000000000005a37 <safe_lshift_func_int64_t_s_s>:
    5a37:	f3 0f 1e fa          	endbr64 
    5a3b:	55                   	push   %rbp
    5a3c:	48 89 e5             	mov    %rsp,%rbp
    5a3f:	48 89 7d f8          	mov    %rdi,-0x8(%rbp)
    5a43:	89 75 f4             	mov    %esi,-0xc(%rbp)
    5a46:	48 83 7d f8 00       	cmpq   $0x0,-0x8(%rbp)
    5a4b:	78 38                	js     5a85 <safe_lshift_func_int64_t_s_s+0x4e>
    5a4d:	83 7d f4 00          	cmpl   $0x0,-0xc(%rbp)
    5a51:	78 32                	js     5a85 <safe_lshift_func_int64_t_s_s+0x4e>
    5a53:	83 7d f4 1f          	cmpl   $0x1f,-0xc(%rbp)
    5a57:	7f 2c                	jg     5a85 <safe_lshift_func_int64_t_s_s+0x4e>
    5a59:	8b 45 f4             	mov    -0xc(%rbp),%eax
    5a5c:	48 ba ff ff ff ff ff 	movabs $0x7fffffffffffffff,%rdx
    5a63:	ff ff 7f 
    5a66:	89 c1                	mov    %eax,%ecx
    5a68:	48 d3 fa             	sar    %cl,%rdx
    5a6b:	48 89 d0             	mov    %rdx,%rax
    5a6e:	48 39 45 f8          	cmp    %rax,-0x8(%rbp)
    5a72:	7f 11                	jg     5a85 <safe_lshift_func_int64_t_s_s+0x4e>
    5a74:	8b 45 f4             	mov    -0xc(%rbp),%eax
    5a77:	48 8b 55 f8          	mov    -0x8(%rbp),%rdx
    5a7b:	89 c1                	mov    %eax,%ecx
    5a7d:	48 d3 e2             	shl    %cl,%rdx
    5a80:	48 89 d0             	mov    %rdx,%rax
    5a83:	eb 04                	jmp    5a89 <safe_lshift_func_int64_t_s_s+0x52>
    5a85:	48 8b 45 f8          	mov    -0x8(%rbp),%rax
    5a89:	5d                   	pop    %rbp
    5a8a:	c3                   	retq   

0000000000005a8b <safe_lshift_func_int64_t_s_u>:
    5a8b:	f3 0f 1e fa          	endbr64 
    5a8f:	55                   	push   %rbp
    5a90:	48 89 e5             	mov    %rsp,%rbp
    5a93:	48 89 7d f8          	mov    %rdi,-0x8(%rbp)
    5a97:	89 75 f4             	mov    %esi,-0xc(%rbp)
    5a9a:	48 83 7d f8 00       	cmpq   $0x0,-0x8(%rbp)
    5a9f:	78 32                	js     5ad3 <safe_lshift_func_int64_t_s_u+0x48>
    5aa1:	83 7d f4 1f          	cmpl   $0x1f,-0xc(%rbp)
    5aa5:	77 2c                	ja     5ad3 <safe_lshift_func_int64_t_s_u+0x48>
    5aa7:	8b 45 f4             	mov    -0xc(%rbp),%eax
    5aaa:	48 ba ff ff ff ff ff 	movabs $0x7fffffffffffffff,%rdx
    5ab1:	ff ff 7f 
    5ab4:	89 c1                	mov    %eax,%ecx
    5ab6:	48 d3 fa             	sar    %cl,%rdx
    5ab9:	48 89 d0             	mov    %rdx,%rax
    5abc:	48 39 45 f8          	cmp    %rax,-0x8(%rbp)
    5ac0:	7f 11                	jg     5ad3 <safe_lshift_func_int64_t_s_u+0x48>
    5ac2:	8b 45 f4             	mov    -0xc(%rbp),%eax
    5ac5:	48 8b 55 f8          	mov    -0x8(%rbp),%rdx
    5ac9:	89 c1                	mov    %eax,%ecx
    5acb:	48 d3 e2             	shl    %cl,%rdx
    5ace:	48 89 d0             	mov    %rdx,%rax
    5ad1:	eb 04                	jmp    5ad7 <safe_lshift_func_int64_t_s_u+0x4c>
    5ad3:	48 8b 45 f8          	mov    -0x8(%rbp),%rax
    5ad7:	5d                   	pop    %rbp
    5ad8:	c3                   	retq   

0000000000005ad9 <safe_rshift_func_int64_t_s_s>:
    5ad9:	f3 0f 1e fa          	endbr64 
    5add:	55                   	push   %rbp
    5ade:	48 89 e5             	mov    %rsp,%rbp
    5ae1:	48 89 7d f8          	mov    %rdi,-0x8(%rbp)
    5ae5:	89 75 f4             	mov    %esi,-0xc(%rbp)
    5ae8:	48 83 7d f8 00       	cmpq   $0x0,-0x8(%rbp)
    5aed:	78 1d                	js     5b0c <safe_rshift_func_int64_t_s_s+0x33>
    5aef:	83 7d f4 00          	cmpl   $0x0,-0xc(%rbp)
    5af3:	78 17                	js     5b0c <safe_rshift_func_int64_t_s_s+0x33>
    5af5:	83 7d f4 1f          	cmpl   $0x1f,-0xc(%rbp)
    5af9:	7f 11                	jg     5b0c <safe_rshift_func_int64_t_s_s+0x33>
    5afb:	8b 45 f4             	mov    -0xc(%rbp),%eax
    5afe:	48 8b 55 f8          	mov    -0x8(%rbp),%rdx
    5b02:	89 c1                	mov    %eax,%ecx
    5b04:	48 d3 fa             	sar    %cl,%rdx
    5b07:	48 89 d0             	mov    %rdx,%rax
    5b0a:	eb 04                	jmp    5b10 <safe_rshift_func_int64_t_s_s+0x37>
    5b0c:	48 8b 45 f8          	mov    -0x8(%rbp),%rax
    5b10:	5d                   	pop    %rbp
    5b11:	c3                   	retq   

0000000000005b12 <safe_rshift_func_int64_t_s_u>:
    5b12:	f3 0f 1e fa          	endbr64 
    5b16:	55                   	push   %rbp
    5b17:	48 89 e5             	mov    %rsp,%rbp
    5b1a:	48 89 7d f8          	mov    %rdi,-0x8(%rbp)
    5b1e:	89 75 f4             	mov    %esi,-0xc(%rbp)
    5b21:	48 83 7d f8 00       	cmpq   $0x0,-0x8(%rbp)
    5b26:	78 17                	js     5b3f <safe_rshift_func_int64_t_s_u+0x2d>
    5b28:	83 7d f4 1f          	cmpl   $0x1f,-0xc(%rbp)
    5b2c:	77 11                	ja     5b3f <safe_rshift_func_int64_t_s_u+0x2d>
    5b2e:	8b 45 f4             	mov    -0xc(%rbp),%eax
    5b31:	48 8b 55 f8          	mov    -0x8(%rbp),%rdx
    5b35:	89 c1                	mov    %eax,%ecx
    5b37:	48 d3 fa             	sar    %cl,%rdx
    5b3a:	48 89 d0             	mov    %rdx,%rax
    5b3d:	eb 04                	jmp    5b43 <safe_rshift_func_int64_t_s_u+0x31>
    5b3f:	48 8b 45 f8          	mov    -0x8(%rbp),%rax
    5b43:	5d                   	pop    %rbp
    5b44:	c3                   	retq   

0000000000005b45 <safe_unary_minus_func_uint8_t_u>:
    5b45:	f3 0f 1e fa          	endbr64 
    5b49:	55                   	push   %rbp
    5b4a:	48 89 e5             	mov    %rsp,%rbp
    5b4d:	89 f8                	mov    %edi,%eax
    5b4f:	88 45 fc             	mov    %al,-0x4(%rbp)
    5b52:	0f b6 45 fc          	movzbl -0x4(%rbp),%eax
    5b56:	f7 d8                	neg    %eax
    5b58:	5d                   	pop    %rbp
    5b59:	c3                   	retq   

0000000000005b5a <safe_add_func_uint8_t_u_u>:
    5b5a:	f3 0f 1e fa          	endbr64 
    5b5e:	55                   	push   %rbp
    5b5f:	48 89 e5             	mov    %rsp,%rbp
    5b62:	89 fa                	mov    %edi,%edx
    5b64:	89 f0                	mov    %esi,%eax
    5b66:	88 55 fc             	mov    %dl,-0x4(%rbp)
    5b69:	88 45 f8             	mov    %al,-0x8(%rbp)
    5b6c:	0f b6 55 fc          	movzbl -0x4(%rbp),%edx
    5b70:	0f b6 45 f8          	movzbl -0x8(%rbp),%eax
    5b74:	01 d0                	add    %edx,%eax
    5b76:	5d                   	pop    %rbp
    5b77:	c3                   	retq   

0000000000005b78 <safe_sub_func_uint8_t_u_u>:
    5b78:	f3 0f 1e fa          	endbr64 
    5b7c:	55                   	push   %rbp
    5b7d:	48 89 e5             	mov    %rsp,%rbp
    5b80:	89 fa                	mov    %edi,%edx
    5b82:	89 f0                	mov    %esi,%eax
    5b84:	88 55 fc             	mov    %dl,-0x4(%rbp)
    5b87:	88 45 f8             	mov    %al,-0x8(%rbp)
    5b8a:	0f b6 45 fc          	movzbl -0x4(%rbp),%eax
    5b8e:	2a 45 f8             	sub    -0x8(%rbp),%al
    5b91:	5d                   	pop    %rbp
    5b92:	c3                   	retq   

0000000000005b93 <safe_mul_func_uint8_t_u_u>:
    5b93:	f3 0f 1e fa          	endbr64 
    5b97:	55                   	push   %rbp
    5b98:	48 89 e5             	mov    %rsp,%rbp
    5b9b:	89 fa                	mov    %edi,%edx
    5b9d:	89 f0                	mov    %esi,%eax
    5b9f:	88 55 fc             	mov    %dl,-0x4(%rbp)
    5ba2:	88 45 f8             	mov    %al,-0x8(%rbp)
    5ba5:	0f b6 45 fc          	movzbl -0x4(%rbp),%eax
    5ba9:	f6 65 f8             	mulb   -0x8(%rbp)
    5bac:	5d                   	pop    %rbp
    5bad:	c3                   	retq   

0000000000005bae <safe_mod_func_uint8_t_u_u>:
    5bae:	f3 0f 1e fa          	endbr64 
    5bb2:	55                   	push   %rbp
    5bb3:	48 89 e5             	mov    %rsp,%rbp
    5bb6:	89 fa                	mov    %edi,%edx
    5bb8:	89 f0                	mov    %esi,%eax
    5bba:	88 55 fc             	mov    %dl,-0x4(%rbp)
    5bbd:	88 45 f8             	mov    %al,-0x8(%rbp)
    5bc0:	80 7d f8 00          	cmpb   $0x0,-0x8(%rbp)
    5bc4:	74 0f                	je     5bd5 <safe_mod_func_uint8_t_u_u+0x27>
    5bc6:	0f b6 45 fc          	movzbl -0x4(%rbp),%eax
    5bca:	0f b6 c0             	movzbl %al,%eax
    5bcd:	f6 75 f8             	divb   -0x8(%rbp)
    5bd0:	0f b6 c4             	movzbl %ah,%eax
    5bd3:	eb 04                	jmp    5bd9 <safe_mod_func_uint8_t_u_u+0x2b>
    5bd5:	0f b6 45 fc          	movzbl -0x4(%rbp),%eax
    5bd9:	5d                   	pop    %rbp
    5bda:	c3                   	retq   

0000000000005bdb <safe_div_func_uint8_t_u_u>:
    5bdb:	f3 0f 1e fa          	endbr64 
    5bdf:	55                   	push   %rbp
    5be0:	48 89 e5             	mov    %rsp,%rbp
    5be3:	89 fa                	mov    %edi,%edx
    5be5:	89 f0                	mov    %esi,%eax
    5be7:	88 55 fc             	mov    %dl,-0x4(%rbp)
    5bea:	88 45 f8             	mov    %al,-0x8(%rbp)
    5bed:	80 7d f8 00          	cmpb   $0x0,-0x8(%rbp)
    5bf1:	74 0c                	je     5bff <safe_div_func_uint8_t_u_u+0x24>
    5bf3:	0f b6 45 fc          	movzbl -0x4(%rbp),%eax
    5bf7:	0f b6 c0             	movzbl %al,%eax
    5bfa:	f6 75 f8             	divb   -0x8(%rbp)
    5bfd:	eb 04                	jmp    5c03 <safe_div_func_uint8_t_u_u+0x28>
    5bff:	0f b6 45 fc          	movzbl -0x4(%rbp),%eax
    5c03:	5d                   	pop    %rbp
    5c04:	c3                   	retq   

0000000000005c05 <safe_lshift_func_uint8_t_u_s>:
    5c05:	f3 0f 1e fa          	endbr64 
    5c09:	55                   	push   %rbp
    5c0a:	48 89 e5             	mov    %rsp,%rbp
    5c0d:	89 f8                	mov    %edi,%eax
    5c0f:	89 75 f8             	mov    %esi,-0x8(%rbp)
    5c12:	88 45 fc             	mov    %al,-0x4(%rbp)
    5c15:	83 7d f8 00          	cmpl   $0x0,-0x8(%rbp)
    5c19:	78 2b                	js     5c46 <safe_lshift_func_uint8_t_u_s+0x41>
    5c1b:	83 7d f8 1f          	cmpl   $0x1f,-0x8(%rbp)
    5c1f:	7f 25                	jg     5c46 <safe_lshift_func_uint8_t_u_s+0x41>
    5c21:	0f b6 55 fc          	movzbl -0x4(%rbp),%edx
    5c25:	8b 45 f8             	mov    -0x8(%rbp),%eax
    5c28:	be ff 00 00 00       	mov    $0xff,%esi
    5c2d:	89 c1                	mov    %eax,%ecx
    5c2f:	d3 fe                	sar    %cl,%esi
    5c31:	89 f0                	mov    %esi,%eax
    5c33:	39 c2                	cmp    %eax,%edx
    5c35:	7f 0f                	jg     5c46 <safe_lshift_func_uint8_t_u_s+0x41>
    5c37:	0f b6 55 fc          	movzbl -0x4(%rbp),%edx
    5c3b:	8b 45 f8             	mov    -0x8(%rbp),%eax
    5c3e:	89 c1                	mov    %eax,%ecx
    5c40:	d3 e2                	shl    %cl,%edx
    5c42:	89 d0                	mov    %edx,%eax
    5c44:	eb 04                	jmp    5c4a <safe_lshift_func_uint8_t_u_s+0x45>
    5c46:	0f b6 45 fc          	movzbl -0x4(%rbp),%eax
    5c4a:	5d                   	pop    %rbp
    5c4b:	c3                   	retq   

0000000000005c4c <safe_lshift_func_uint8_t_u_u>:
    5c4c:	f3 0f 1e fa          	endbr64 
    5c50:	55                   	push   %rbp
    5c51:	48 89 e5             	mov    %rsp,%rbp
    5c54:	89 f8                	mov    %edi,%eax
    5c56:	89 75 f8             	mov    %esi,-0x8(%rbp)
    5c59:	88 45 fc             	mov    %al,-0x4(%rbp)
    5c5c:	83 7d f8 1f          	cmpl   $0x1f,-0x8(%rbp)
    5c60:	77 25                	ja     5c87 <safe_lshift_func_uint8_t_u_u+0x3b>
    5c62:	0f b6 55 fc          	movzbl -0x4(%rbp),%edx
    5c66:	8b 45 f8             	mov    -0x8(%rbp),%eax
    5c69:	be ff 00 00 00       	mov    $0xff,%esi
    5c6e:	89 c1                	mov    %eax,%ecx
    5c70:	d3 fe                	sar    %cl,%esi
    5c72:	89 f0                	mov    %esi,%eax
    5c74:	39 c2                	cmp    %eax,%edx
    5c76:	7f 0f                	jg     5c87 <safe_lshift_func_uint8_t_u_u+0x3b>
    5c78:	0f b6 55 fc          	movzbl -0x4(%rbp),%edx
    5c7c:	8b 45 f8             	mov    -0x8(%rbp),%eax
    5c7f:	89 c1                	mov    %eax,%ecx
    5c81:	d3 e2                	shl    %cl,%edx
    5c83:	89 d0                	mov    %edx,%eax
    5c85:	eb 04                	jmp    5c8b <safe_lshift_func_uint8_t_u_u+0x3f>
    5c87:	0f b6 45 fc          	movzbl -0x4(%rbp),%eax
    5c8b:	5d                   	pop    %rbp
    5c8c:	c3                   	retq   

0000000000005c8d <safe_rshift_func_uint8_t_u_s>:
    5c8d:	f3 0f 1e fa          	endbr64 
    5c91:	55                   	push   %rbp
    5c92:	48 89 e5             	mov    %rsp,%rbp
    5c95:	89 f8                	mov    %edi,%eax
    5c97:	89 75 f8             	mov    %esi,-0x8(%rbp)
    5c9a:	88 45 fc             	mov    %al,-0x4(%rbp)
    5c9d:	83 7d f8 00          	cmpl   $0x0,-0x8(%rbp)
    5ca1:	78 15                	js     5cb8 <safe_rshift_func_uint8_t_u_s+0x2b>
    5ca3:	83 7d f8 1f          	cmpl   $0x1f,-0x8(%rbp)
    5ca7:	7f 0f                	jg     5cb8 <safe_rshift_func_uint8_t_u_s+0x2b>
    5ca9:	0f b6 55 fc          	movzbl -0x4(%rbp),%edx
    5cad:	8b 45 f8             	mov    -0x8(%rbp),%eax
    5cb0:	89 c1                	mov    %eax,%ecx
    5cb2:	d3 fa                	sar    %cl,%edx
    5cb4:	89 d0                	mov    %edx,%eax
    5cb6:	eb 04                	jmp    5cbc <safe_rshift_func_uint8_t_u_s+0x2f>
    5cb8:	0f b6 45 fc          	movzbl -0x4(%rbp),%eax
    5cbc:	5d                   	pop    %rbp
    5cbd:	c3                   	retq   

0000000000005cbe <safe_rshift_func_uint8_t_u_u>:
    5cbe:	f3 0f 1e fa          	endbr64 
    5cc2:	55                   	push   %rbp
    5cc3:	48 89 e5             	mov    %rsp,%rbp
    5cc6:	89 f8                	mov    %edi,%eax
    5cc8:	89 75 f8             	mov    %esi,-0x8(%rbp)
    5ccb:	88 45 fc             	mov    %al,-0x4(%rbp)
    5cce:	83 7d f8 1f          	cmpl   $0x1f,-0x8(%rbp)
    5cd2:	77 0f                	ja     5ce3 <safe_rshift_func_uint8_t_u_u+0x25>
    5cd4:	0f b6 55 fc          	movzbl -0x4(%rbp),%edx
    5cd8:	8b 45 f8             	mov    -0x8(%rbp),%eax
    5cdb:	89 c1                	mov    %eax,%ecx
    5cdd:	d3 fa                	sar    %cl,%edx
    5cdf:	89 d0                	mov    %edx,%eax
    5ce1:	eb 04                	jmp    5ce7 <safe_rshift_func_uint8_t_u_u+0x29>
    5ce3:	0f b6 45 fc          	movzbl -0x4(%rbp),%eax
    5ce7:	5d                   	pop    %rbp
    5ce8:	c3                   	retq   

0000000000005ce9 <safe_unary_minus_func_uint16_t_u>:
    5ce9:	f3 0f 1e fa          	endbr64 
    5ced:	55                   	push   %rbp
    5cee:	48 89 e5             	mov    %rsp,%rbp
    5cf1:	89 f8                	mov    %edi,%eax
    5cf3:	66 89 45 fc          	mov    %ax,-0x4(%rbp)
    5cf7:	0f b7 45 fc          	movzwl -0x4(%rbp),%eax
    5cfb:	f7 d8                	neg    %eax
    5cfd:	5d                   	pop    %rbp
    5cfe:	c3                   	retq   

0000000000005cff <safe_add_func_uint16_t_u_u>:
    5cff:	f3 0f 1e fa          	endbr64 
    5d03:	55                   	push   %rbp
    5d04:	48 89 e5             	mov    %rsp,%rbp
    5d07:	89 fa                	mov    %edi,%edx
    5d09:	89 f0                	mov    %esi,%eax
    5d0b:	66 89 55 fc          	mov    %dx,-0x4(%rbp)
    5d0f:	66 89 45 f8          	mov    %ax,-0x8(%rbp)
    5d13:	0f b7 55 fc          	movzwl -0x4(%rbp),%edx
    5d17:	0f b7 45 f8          	movzwl -0x8(%rbp),%eax
    5d1b:	01 d0                	add    %edx,%eax
    5d1d:	5d                   	pop    %rbp
    5d1e:	c3                   	retq   

0000000000005d1f <safe_sub_func_uint16_t_u_u>:
    5d1f:	f3 0f 1e fa          	endbr64 
    5d23:	55                   	push   %rbp
    5d24:	48 89 e5             	mov    %rsp,%rbp
    5d27:	89 fa                	mov    %edi,%edx
    5d29:	89 f0                	mov    %esi,%eax
    5d2b:	66 89 55 fc          	mov    %dx,-0x4(%rbp)
    5d2f:	66 89 45 f8          	mov    %ax,-0x8(%rbp)
    5d33:	0f b7 45 fc          	movzwl -0x4(%rbp),%eax
    5d37:	66 2b 45 f8          	sub    -0x8(%rbp),%ax
    5d3b:	5d                   	pop    %rbp
    5d3c:	c3                   	retq   

0000000000005d3d <safe_mul_func_uint16_t_u_u>:
    5d3d:	f3 0f 1e fa          	endbr64 
    5d41:	55                   	push   %rbp
    5d42:	48 89 e5             	mov    %rsp,%rbp
    5d45:	89 fa                	mov    %edi,%edx
    5d47:	89 f0                	mov    %esi,%eax
    5d49:	66 89 55 fc          	mov    %dx,-0x4(%rbp)
    5d4d:	66 89 45 f8          	mov    %ax,-0x8(%rbp)
    5d51:	0f b7 45 fc          	movzwl -0x4(%rbp),%eax
    5d55:	66 0f af 45 f8       	imul   -0x8(%rbp),%ax
    5d5a:	5d                   	pop    %rbp
    5d5b:	c3                   	retq   

0000000000005d5c <safe_mod_func_uint16_t_u_u>:
    5d5c:	f3 0f 1e fa          	endbr64 
    5d60:	55                   	push   %rbp
    5d61:	48 89 e5             	mov    %rsp,%rbp
    5d64:	89 fa                	mov    %edi,%edx
    5d66:	89 f0                	mov    %esi,%eax
    5d68:	66 89 55 fc          	mov    %dx,-0x4(%rbp)
    5d6c:	66 89 45 f8          	mov    %ax,-0x8(%rbp)
    5d70:	66 83 7d f8 00       	cmpw   $0x0,-0x8(%rbp)
    5d75:	74 11                	je     5d88 <safe_mod_func_uint16_t_u_u+0x2c>
    5d77:	0f b7 45 fc          	movzwl -0x4(%rbp),%eax
    5d7b:	ba 00 00 00 00       	mov    $0x0,%edx
    5d80:	66 f7 75 f8          	divw   -0x8(%rbp)
    5d84:	89 d0                	mov    %edx,%eax
    5d86:	eb 04                	jmp    5d8c <safe_mod_func_uint16_t_u_u+0x30>
    5d88:	0f b7 45 fc          	movzwl -0x4(%rbp),%eax
    5d8c:	5d                   	pop    %rbp
    5d8d:	c3                   	retq   

0000000000005d8e <safe_div_func_uint16_t_u_u>:
    5d8e:	f3 0f 1e fa          	endbr64 
    5d92:	55                   	push   %rbp
    5d93:	48 89 e5             	mov    %rsp,%rbp
    5d96:	89 fa                	mov    %edi,%edx
    5d98:	89 f0                	mov    %esi,%eax
    5d9a:	66 89 55 fc          	mov    %dx,-0x4(%rbp)
    5d9e:	66 89 45 f8          	mov    %ax,-0x8(%rbp)
    5da2:	66 83 7d f8 00       	cmpw   $0x0,-0x8(%rbp)
    5da7:	74 0f                	je     5db8 <safe_div_func_uint16_t_u_u+0x2a>
    5da9:	0f b7 45 fc          	movzwl -0x4(%rbp),%eax
    5dad:	ba 00 00 00 00       	mov    $0x0,%edx
    5db2:	66 f7 75 f8          	divw   -0x8(%rbp)
    5db6:	eb 04                	jmp    5dbc <safe_div_func_uint16_t_u_u+0x2e>
    5db8:	0f b7 45 fc          	movzwl -0x4(%rbp),%eax
    5dbc:	5d                   	pop    %rbp
    5dbd:	c3                   	retq   

0000000000005dbe <safe_lshift_func_uint16_t_u_s>:
    5dbe:	f3 0f 1e fa          	endbr64 
    5dc2:	55                   	push   %rbp
    5dc3:	48 89 e5             	mov    %rsp,%rbp
    5dc6:	89 f8                	mov    %edi,%eax
    5dc8:	89 75 f8             	mov    %esi,-0x8(%rbp)
    5dcb:	66 89 45 fc          	mov    %ax,-0x4(%rbp)
    5dcf:	83 7d f8 00          	cmpl   $0x0,-0x8(%rbp)
    5dd3:	78 2b                	js     5e00 <safe_lshift_func_uint16_t_u_s+0x42>
    5dd5:	83 7d f8 1f          	cmpl   $0x1f,-0x8(%rbp)
    5dd9:	7f 25                	jg     5e00 <safe_lshift_func_uint16_t_u_s+0x42>
    5ddb:	0f b7 55 fc          	movzwl -0x4(%rbp),%edx
    5ddf:	8b 45 f8             	mov    -0x8(%rbp),%eax
    5de2:	be ff ff 00 00       	mov    $0xffff,%esi
    5de7:	89 c1                	mov    %eax,%ecx
    5de9:	d3 fe                	sar    %cl,%esi
    5deb:	89 f0                	mov    %esi,%eax
    5ded:	39 c2                	cmp    %eax,%edx
    5def:	7f 0f                	jg     5e00 <safe_lshift_func_uint16_t_u_s+0x42>
    5df1:	0f b7 55 fc          	movzwl -0x4(%rbp),%edx
    5df5:	8b 45 f8             	mov    -0x8(%rbp),%eax
    5df8:	89 c1                	mov    %eax,%ecx
    5dfa:	d3 e2                	shl    %cl,%edx
    5dfc:	89 d0                	mov    %edx,%eax
    5dfe:	eb 04                	jmp    5e04 <safe_lshift_func_uint16_t_u_s+0x46>
    5e00:	0f b7 45 fc          	movzwl -0x4(%rbp),%eax
    5e04:	5d                   	pop    %rbp
    5e05:	c3                   	retq   

0000000000005e06 <safe_lshift_func_uint16_t_u_u>:
    5e06:	f3 0f 1e fa          	endbr64 
    5e0a:	55                   	push   %rbp
    5e0b:	48 89 e5             	mov    %rsp,%rbp
    5e0e:	89 f8                	mov    %edi,%eax
    5e10:	89 75 f8             	mov    %esi,-0x8(%rbp)
    5e13:	66 89 45 fc          	mov    %ax,-0x4(%rbp)
    5e17:	83 7d f8 1f          	cmpl   $0x1f,-0x8(%rbp)
    5e1b:	77 25                	ja     5e42 <safe_lshift_func_uint16_t_u_u+0x3c>
    5e1d:	0f b7 55 fc          	movzwl -0x4(%rbp),%edx
    5e21:	8b 45 f8             	mov    -0x8(%rbp),%eax
    5e24:	be ff ff 00 00       	mov    $0xffff,%esi
    5e29:	89 c1                	mov    %eax,%ecx
    5e2b:	d3 fe                	sar    %cl,%esi
    5e2d:	89 f0                	mov    %esi,%eax
    5e2f:	39 c2                	cmp    %eax,%edx
    5e31:	7f 0f                	jg     5e42 <safe_lshift_func_uint16_t_u_u+0x3c>
    5e33:	0f b7 55 fc          	movzwl -0x4(%rbp),%edx
    5e37:	8b 45 f8             	mov    -0x8(%rbp),%eax
    5e3a:	89 c1                	mov    %eax,%ecx
    5e3c:	d3 e2                	shl    %cl,%edx
    5e3e:	89 d0                	mov    %edx,%eax
    5e40:	eb 04                	jmp    5e46 <safe_lshift_func_uint16_t_u_u+0x40>
    5e42:	0f b7 45 fc          	movzwl -0x4(%rbp),%eax
    5e46:	5d                   	pop    %rbp
    5e47:	c3                   	retq   

0000000000005e48 <safe_rshift_func_uint16_t_u_s>:
    5e48:	f3 0f 1e fa          	endbr64 
    5e4c:	55                   	push   %rbp
    5e4d:	48 89 e5             	mov    %rsp,%rbp
    5e50:	89 f8                	mov    %edi,%eax
    5e52:	89 75 f8             	mov    %esi,-0x8(%rbp)
    5e55:	66 89 45 fc          	mov    %ax,-0x4(%rbp)
    5e59:	83 7d f8 00          	cmpl   $0x0,-0x8(%rbp)
    5e5d:	78 15                	js     5e74 <safe_rshift_func_uint16_t_u_s+0x2c>
    5e5f:	83 7d f8 1f          	cmpl   $0x1f,-0x8(%rbp)
    5e63:	7f 0f                	jg     5e74 <safe_rshift_func_uint16_t_u_s+0x2c>
    5e65:	0f b7 55 fc          	movzwl -0x4(%rbp),%edx
    5e69:	8b 45 f8             	mov    -0x8(%rbp),%eax
    5e6c:	89 c1                	mov    %eax,%ecx
    5e6e:	d3 fa                	sar    %cl,%edx
    5e70:	89 d0                	mov    %edx,%eax
    5e72:	eb 04                	jmp    5e78 <safe_rshift_func_uint16_t_u_s+0x30>
    5e74:	0f b7 45 fc          	movzwl -0x4(%rbp),%eax
    5e78:	5d                   	pop    %rbp
    5e79:	c3                   	retq   

0000000000005e7a <safe_rshift_func_uint16_t_u_u>:
    5e7a:	f3 0f 1e fa          	endbr64 
    5e7e:	55                   	push   %rbp
    5e7f:	48 89 e5             	mov    %rsp,%rbp
    5e82:	89 f8                	mov    %edi,%eax
    5e84:	89 75 f8             	mov    %esi,-0x8(%rbp)
    5e87:	66 89 45 fc          	mov    %ax,-0x4(%rbp)
    5e8b:	83 7d f8 1f          	cmpl   $0x1f,-0x8(%rbp)
    5e8f:	77 0f                	ja     5ea0 <safe_rshift_func_uint16_t_u_u+0x26>
    5e91:	0f b7 55 fc          	movzwl -0x4(%rbp),%edx
    5e95:	8b 45 f8             	mov    -0x8(%rbp),%eax
    5e98:	89 c1                	mov    %eax,%ecx
    5e9a:	d3 fa                	sar    %cl,%edx
    5e9c:	89 d0                	mov    %edx,%eax
    5e9e:	eb 04                	jmp    5ea4 <safe_rshift_func_uint16_t_u_u+0x2a>
    5ea0:	0f b7 45 fc          	movzwl -0x4(%rbp),%eax
    5ea4:	5d                   	pop    %rbp
    5ea5:	c3                   	retq   

0000000000005ea6 <safe_unary_minus_func_uint32_t_u>:
    5ea6:	f3 0f 1e fa          	endbr64 
    5eaa:	55                   	push   %rbp
    5eab:	48 89 e5             	mov    %rsp,%rbp
    5eae:	89 7d fc             	mov    %edi,-0x4(%rbp)
    5eb1:	8b 45 fc             	mov    -0x4(%rbp),%eax
    5eb4:	f7 d8                	neg    %eax
    5eb6:	5d                   	pop    %rbp
    5eb7:	c3                   	retq   

0000000000005eb8 <safe_add_func_uint32_t_u_u>:
    5eb8:	f3 0f 1e fa          	endbr64 
    5ebc:	55                   	push   %rbp
    5ebd:	48 89 e5             	mov    %rsp,%rbp
    5ec0:	89 7d fc             	mov    %edi,-0x4(%rbp)
    5ec3:	89 75 f8             	mov    %esi,-0x8(%rbp)
    5ec6:	8b 55 fc             	mov    -0x4(%rbp),%edx
    5ec9:	8b 45 f8             	mov    -0x8(%rbp),%eax
    5ecc:	01 d0                	add    %edx,%eax
    5ece:	5d                   	pop    %rbp
    5ecf:	c3                   	retq   

0000000000005ed0 <safe_sub_func_uint32_t_u_u>:
    5ed0:	f3 0f 1e fa          	endbr64 
    5ed4:	55                   	push   %rbp
    5ed5:	48 89 e5             	mov    %rsp,%rbp
    5ed8:	89 7d fc             	mov    %edi,-0x4(%rbp)
    5edb:	89 75 f8             	mov    %esi,-0x8(%rbp)
    5ede:	8b 45 fc             	mov    -0x4(%rbp),%eax
    5ee1:	2b 45 f8             	sub    -0x8(%rbp),%eax
    5ee4:	5d                   	pop    %rbp
    5ee5:	c3                   	retq   

0000000000005ee6 <safe_mul_func_uint32_t_u_u>:
    5ee6:	f3 0f 1e fa          	endbr64 
    5eea:	55                   	push   %rbp
    5eeb:	48 89 e5             	mov    %rsp,%rbp
    5eee:	89 7d fc             	mov    %edi,-0x4(%rbp)
    5ef1:	89 75 f8             	mov    %esi,-0x8(%rbp)
    5ef4:	8b 45 fc             	mov    -0x4(%rbp),%eax
    5ef7:	0f af 45 f8          	imul   -0x8(%rbp),%eax
    5efb:	5d                   	pop    %rbp
    5efc:	c3                   	retq   

0000000000005efd <safe_mod_func_uint32_t_u_u>:
    5efd:	f3 0f 1e fa          	endbr64 
    5f01:	55                   	push   %rbp
    5f02:	48 89 e5             	mov    %rsp,%rbp
    5f05:	89 7d fc             	mov    %edi,-0x4(%rbp)
    5f08:	89 75 f8             	mov    %esi,-0x8(%rbp)
    5f0b:	83 7d f8 00          	cmpl   $0x0,-0x8(%rbp)
    5f0f:	74 0f                	je     5f20 <safe_mod_func_uint32_t_u_u+0x23>
    5f11:	8b 45 fc             	mov    -0x4(%rbp),%eax
    5f14:	ba 00 00 00 00       	mov    $0x0,%edx
    5f19:	f7 75 f8             	divl   -0x8(%rbp)
    5f1c:	89 d0                	mov    %edx,%eax
    5f1e:	eb 03                	jmp    5f23 <safe_mod_func_uint32_t_u_u+0x26>
    5f20:	8b 45 fc             	mov    -0x4(%rbp),%eax
    5f23:	5d                   	pop    %rbp
    5f24:	c3                   	retq   

0000000000005f25 <safe_div_func_uint32_t_u_u>:
    5f25:	f3 0f 1e fa          	endbr64 
    5f29:	55                   	push   %rbp
    5f2a:	48 89 e5             	mov    %rsp,%rbp
    5f2d:	89 7d fc             	mov    %edi,-0x4(%rbp)
    5f30:	89 75 f8             	mov    %esi,-0x8(%rbp)
    5f33:	83 7d f8 00          	cmpl   $0x0,-0x8(%rbp)
    5f37:	74 0d                	je     5f46 <safe_div_func_uint32_t_u_u+0x21>
    5f39:	8b 45 fc             	mov    -0x4(%rbp),%eax
    5f3c:	ba 00 00 00 00       	mov    $0x0,%edx
    5f41:	f7 75 f8             	divl   -0x8(%rbp)
    5f44:	eb 03                	jmp    5f49 <safe_div_func_uint32_t_u_u+0x24>
    5f46:	8b 45 fc             	mov    -0x4(%rbp),%eax
    5f49:	5d                   	pop    %rbp
    5f4a:	c3                   	retq   

0000000000005f4b <safe_lshift_func_uint32_t_u_s>:
    5f4b:	f3 0f 1e fa          	endbr64 
    5f4f:	55                   	push   %rbp
    5f50:	48 89 e5             	mov    %rsp,%rbp
    5f53:	89 7d fc             	mov    %edi,-0x4(%rbp)
    5f56:	89 75 f8             	mov    %esi,-0x8(%rbp)
    5f59:	83 7d f8 00          	cmpl   $0x0,-0x8(%rbp)
    5f5d:	78 27                	js     5f86 <safe_lshift_func_uint32_t_u_s+0x3b>
    5f5f:	83 7d f8 1f          	cmpl   $0x1f,-0x8(%rbp)
    5f63:	7f 21                	jg     5f86 <safe_lshift_func_uint32_t_u_s+0x3b>
    5f65:	8b 45 f8             	mov    -0x8(%rbp),%eax
    5f68:	ba ff ff ff ff       	mov    $0xffffffff,%edx
    5f6d:	89 c1                	mov    %eax,%ecx
    5f6f:	d3 ea                	shr    %cl,%edx
    5f71:	89 d0                	mov    %edx,%eax
    5f73:	39 45 fc             	cmp    %eax,-0x4(%rbp)
    5f76:	77 0e                	ja     5f86 <safe_lshift_func_uint32_t_u_s+0x3b>
    5f78:	8b 45 f8             	mov    -0x8(%rbp),%eax
    5f7b:	8b 55 fc             	mov    -0x4(%rbp),%edx
    5f7e:	89 c1                	mov    %eax,%ecx
    5f80:	d3 e2                	shl    %cl,%edx
    5f82:	89 d0                	mov    %edx,%eax
    5f84:	eb 03                	jmp    5f89 <safe_lshift_func_uint32_t_u_s+0x3e>
    5f86:	8b 45 fc             	mov    -0x4(%rbp),%eax
    5f89:	5d                   	pop    %rbp
    5f8a:	c3                   	retq   

0000000000005f8b <safe_lshift_func_uint32_t_u_u>:
    5f8b:	f3 0f 1e fa          	endbr64 
    5f8f:	55                   	push   %rbp
    5f90:	48 89 e5             	mov    %rsp,%rbp
    5f93:	89 7d fc             	mov    %edi,-0x4(%rbp)
    5f96:	89 75 f8             	mov    %esi,-0x8(%rbp)
    5f99:	83 7d f8 1f          	cmpl   $0x1f,-0x8(%rbp)
    5f9d:	77 21                	ja     5fc0 <safe_lshift_func_uint32_t_u_u+0x35>
    5f9f:	8b 45 f8             	mov    -0x8(%rbp),%eax
    5fa2:	ba ff ff ff ff       	mov    $0xffffffff,%edx
    5fa7:	89 c1                	mov    %eax,%ecx
    5fa9:	d3 ea                	shr    %cl,%edx
    5fab:	89 d0                	mov    %edx,%eax
    5fad:	39 45 fc             	cmp    %eax,-0x4(%rbp)
    5fb0:	77 0e                	ja     5fc0 <safe_lshift_func_uint32_t_u_u+0x35>
    5fb2:	8b 45 f8             	mov    -0x8(%rbp),%eax
    5fb5:	8b 55 fc             	mov    -0x4(%rbp),%edx
    5fb8:	89 c1                	mov    %eax,%ecx
    5fba:	d3 e2                	shl    %cl,%edx
    5fbc:	89 d0                	mov    %edx,%eax
    5fbe:	eb 03                	jmp    5fc3 <safe_lshift_func_uint32_t_u_u+0x38>
    5fc0:	8b 45 fc             	mov    -0x4(%rbp),%eax
    5fc3:	5d                   	pop    %rbp
    5fc4:	c3                   	retq   

0000000000005fc5 <safe_rshift_func_uint32_t_u_s>:
    5fc5:	f3 0f 1e fa          	endbr64 
    5fc9:	55                   	push   %rbp
    5fca:	48 89 e5             	mov    %rsp,%rbp
    5fcd:	89 7d fc             	mov    %edi,-0x4(%rbp)
    5fd0:	89 75 f8             	mov    %esi,-0x8(%rbp)
    5fd3:	83 7d f8 00          	cmpl   $0x0,-0x8(%rbp)
    5fd7:	78 14                	js     5fed <safe_rshift_func_uint32_t_u_s+0x28>
    5fd9:	83 7d f8 1f          	cmpl   $0x1f,-0x8(%rbp)
    5fdd:	7f 0e                	jg     5fed <safe_rshift_func_uint32_t_u_s+0x28>
    5fdf:	8b 45 f8             	mov    -0x8(%rbp),%eax
    5fe2:	8b 55 fc             	mov    -0x4(%rbp),%edx
    5fe5:	89 c1                	mov    %eax,%ecx
    5fe7:	d3 ea                	shr    %cl,%edx
    5fe9:	89 d0                	mov    %edx,%eax
    5feb:	eb 03                	jmp    5ff0 <safe_rshift_func_uint32_t_u_s+0x2b>
    5fed:	8b 45 fc             	mov    -0x4(%rbp),%eax
    5ff0:	5d                   	pop    %rbp
    5ff1:	c3                   	retq   

0000000000005ff2 <safe_rshift_func_uint32_t_u_u>:
    5ff2:	f3 0f 1e fa          	endbr64 
    5ff6:	55                   	push   %rbp
    5ff7:	48 89 e5             	mov    %rsp,%rbp
    5ffa:	89 7d fc             	mov    %edi,-0x4(%rbp)
    5ffd:	89 75 f8             	mov    %esi,-0x8(%rbp)
    6000:	83 7d f8 1f          	cmpl   $0x1f,-0x8(%rbp)
    6004:	77 0e                	ja     6014 <safe_rshift_func_uint32_t_u_u+0x22>
    6006:	8b 45 f8             	mov    -0x8(%rbp),%eax
    6009:	8b 55 fc             	mov    -0x4(%rbp),%edx
    600c:	89 c1                	mov    %eax,%ecx
    600e:	d3 ea                	shr    %cl,%edx
    6010:	89 d0                	mov    %edx,%eax
    6012:	eb 03                	jmp    6017 <safe_rshift_func_uint32_t_u_u+0x25>
    6014:	8b 45 fc             	mov    -0x4(%rbp),%eax
    6017:	5d                   	pop    %rbp
    6018:	c3                   	retq   

0000000000006019 <safe_unary_minus_func_uint64_t_u>:
    6019:	f3 0f 1e fa          	endbr64 
    601d:	55                   	push   %rbp
    601e:	48 89 e5             	mov    %rsp,%rbp
    6021:	48 89 7d f8          	mov    %rdi,-0x8(%rbp)
    6025:	48 8b 45 f8          	mov    -0x8(%rbp),%rax
    6029:	48 f7 d8             	neg    %rax
    602c:	5d                   	pop    %rbp
    602d:	c3                   	retq   

000000000000602e <safe_add_func_uint64_t_u_u>:
    602e:	f3 0f 1e fa          	endbr64 
    6032:	55                   	push   %rbp
    6033:	48 89 e5             	mov    %rsp,%rbp
    6036:	48 89 7d f8          	mov    %rdi,-0x8(%rbp)
    603a:	48 89 75 f0          	mov    %rsi,-0x10(%rbp)
    603e:	48 8b 55 f8          	mov    -0x8(%rbp),%rdx
    6042:	48 8b 45 f0          	mov    -0x10(%rbp),%rax
    6046:	48 01 d0             	add    %rdx,%rax
    6049:	5d                   	pop    %rbp
    604a:	c3                   	retq   

000000000000604b <safe_sub_func_uint64_t_u_u>:
    604b:	f3 0f 1e fa          	endbr64 
    604f:	55                   	push   %rbp
    6050:	48 89 e5             	mov    %rsp,%rbp
    6053:	48 89 7d f8          	mov    %rdi,-0x8(%rbp)
    6057:	48 89 75 f0          	mov    %rsi,-0x10(%rbp)
    605b:	48 8b 45 f8          	mov    -0x8(%rbp),%rax
    605f:	48 2b 45 f0          	sub    -0x10(%rbp),%rax
    6063:	5d                   	pop    %rbp
    6064:	c3                   	retq   

0000000000006065 <safe_mul_func_uint64_t_u_u>:
    6065:	f3 0f 1e fa          	endbr64 
    6069:	55                   	push   %rbp
    606a:	48 89 e5             	mov    %rsp,%rbp
    606d:	48 89 7d f8          	mov    %rdi,-0x8(%rbp)
    6071:	48 89 75 f0          	mov    %rsi,-0x10(%rbp)
    6075:	48 8b 45 f8          	mov    -0x8(%rbp),%rax
    6079:	48 0f af 45 f0       	imul   -0x10(%rbp),%rax
    607e:	5d                   	pop    %rbp
    607f:	c3                   	retq   

0000000000006080 <safe_mod_func_uint64_t_u_u>:
    6080:	f3 0f 1e fa          	endbr64 
    6084:	55                   	push   %rbp
    6085:	48 89 e5             	mov    %rsp,%rbp
    6088:	48 89 7d f8          	mov    %rdi,-0x8(%rbp)
    608c:	48 89 75 f0          	mov    %rsi,-0x10(%rbp)
    6090:	48 83 7d f0 00       	cmpq   $0x0,-0x10(%rbp)
    6095:	74 12                	je     60a9 <safe_mod_func_uint64_t_u_u+0x29>
    6097:	48 8b 45 f8          	mov    -0x8(%rbp),%rax
    609b:	ba 00 00 00 00       	mov    $0x0,%edx
    60a0:	48 f7 75 f0          	divq   -0x10(%rbp)
    60a4:	48 89 d0             	mov    %rdx,%rax
    60a7:	eb 04                	jmp    60ad <safe_mod_func_uint64_t_u_u+0x2d>
    60a9:	48 8b 45 f8          	mov    -0x8(%rbp),%rax
    60ad:	5d                   	pop    %rbp
    60ae:	c3                   	retq   

00000000000060af <safe_div_func_uint64_t_u_u>:
    60af:	f3 0f 1e fa          	endbr64 
    60b3:	55                   	push   %rbp
    60b4:	48 89 e5             	mov    %rsp,%rbp
    60b7:	48 89 7d f8          	mov    %rdi,-0x8(%rbp)
    60bb:	48 89 75 f0          	mov    %rsi,-0x10(%rbp)
    60bf:	48 83 7d f0 00       	cmpq   $0x0,-0x10(%rbp)
    60c4:	74 0f                	je     60d5 <safe_div_func_uint64_t_u_u+0x26>
    60c6:	48 8b 45 f8          	mov    -0x8(%rbp),%rax
    60ca:	ba 00 00 00 00       	mov    $0x0,%edx
    60cf:	48 f7 75 f0          	divq   -0x10(%rbp)
    60d3:	eb 04                	jmp    60d9 <safe_div_func_uint64_t_u_u+0x2a>
    60d5:	48 8b 45 f8          	mov    -0x8(%rbp),%rax
    60d9:	5d                   	pop    %rbp
    60da:	c3                   	retq   

00000000000060db <safe_lshift_func_uint64_t_u_s>:
    60db:	f3 0f 1e fa          	endbr64 
    60df:	55                   	push   %rbp
    60e0:	48 89 e5             	mov    %rsp,%rbp
    60e3:	48 89 7d f8          	mov    %rdi,-0x8(%rbp)
    60e7:	89 75 f4             	mov    %esi,-0xc(%rbp)
    60ea:	83 7d f4 00          	cmpl   $0x0,-0xc(%rbp)
    60ee:	78 2f                	js     611f <safe_lshift_func_uint64_t_u_s+0x44>
    60f0:	83 7d f4 1f          	cmpl   $0x1f,-0xc(%rbp)
    60f4:	7f 29                	jg     611f <safe_lshift_func_uint64_t_u_s+0x44>
    60f6:	8b 45 f4             	mov    -0xc(%rbp),%eax
    60f9:	48 c7 c2 ff ff ff ff 	mov    $0xffffffffffffffff,%rdx
    6100:	89 c1                	mov    %eax,%ecx
    6102:	48 d3 ea             	shr    %cl,%rdx
    6105:	48 89 d0             	mov    %rdx,%rax
    6108:	48 39 45 f8          	cmp    %rax,-0x8(%rbp)
    610c:	77 11                	ja     611f <safe_lshift_func_uint64_t_u_s+0x44>
    610e:	8b 45 f4             	mov    -0xc(%rbp),%eax
    6111:	48 8b 55 f8          	mov    -0x8(%rbp),%rdx
    6115:	89 c1                	mov    %eax,%ecx
    6117:	48 d3 e2             	shl    %cl,%rdx
    611a:	48 89 d0             	mov    %rdx,%rax
    611d:	eb 04                	jmp    6123 <safe_lshift_func_uint64_t_u_s+0x48>
    611f:	48 8b 45 f8          	mov    -0x8(%rbp),%rax
    6123:	5d                   	pop    %rbp
    6124:	c3                   	retq   

0000000000006125 <safe_lshift_func_uint64_t_u_u>:
    6125:	f3 0f 1e fa          	endbr64 
    6129:	55                   	push   %rbp
    612a:	48 89 e5             	mov    %rsp,%rbp
    612d:	48 89 7d f8          	mov    %rdi,-0x8(%rbp)
    6131:	89 75 f4             	mov    %esi,-0xc(%rbp)
    6134:	83 7d f4 1f          	cmpl   $0x1f,-0xc(%rbp)
    6138:	77 29                	ja     6163 <safe_lshift_func_uint64_t_u_u+0x3e>
    613a:	8b 45 f4             	mov    -0xc(%rbp),%eax
    613d:	48 c7 c2 ff ff ff ff 	mov    $0xffffffffffffffff,%rdx
    6144:	89 c1                	mov    %eax,%ecx
    6146:	48 d3 ea             	shr    %cl,%rdx
    6149:	48 89 d0             	mov    %rdx,%rax
    614c:	48 39 45 f8          	cmp    %rax,-0x8(%rbp)
    6150:	77 11                	ja     6163 <safe_lshift_func_uint64_t_u_u+0x3e>
    6152:	8b 45 f4             	mov    -0xc(%rbp),%eax
    6155:	48 8b 55 f8          	mov    -0x8(%rbp),%rdx
    6159:	89 c1                	mov    %eax,%ecx
    615b:	48 d3 e2             	shl    %cl,%rdx
    615e:	48 89 d0             	mov    %rdx,%rax
    6161:	eb 04                	jmp    6167 <safe_lshift_func_uint64_t_u_u+0x42>
    6163:	48 8b 45 f8          	mov    -0x8(%rbp),%rax
    6167:	5d                   	pop    %rbp
    6168:	c3                   	retq   

0000000000006169 <safe_rshift_func_uint64_t_u_s>:
    6169:	f3 0f 1e fa          	endbr64 
    616d:	55                   	push   %rbp
    616e:	48 89 e5             	mov    %rsp,%rbp
    6171:	48 89 7d f8          	mov    %rdi,-0x8(%rbp)
    6175:	89 75 f4             	mov    %esi,-0xc(%rbp)
    6178:	83 7d f4 00          	cmpl   $0x0,-0xc(%rbp)
    617c:	78 17                	js     6195 <safe_rshift_func_uint64_t_u_s+0x2c>
    617e:	83 7d f4 1f          	cmpl   $0x1f,-0xc(%rbp)
    6182:	7f 11                	jg     6195 <safe_rshift_func_uint64_t_u_s+0x2c>
    6184:	8b 45 f4             	mov    -0xc(%rbp),%eax
    6187:	48 8b 55 f8          	mov    -0x8(%rbp),%rdx
    618b:	89 c1                	mov    %eax,%ecx
    618d:	48 d3 ea             	shr    %cl,%rdx
    6190:	48 89 d0             	mov    %rdx,%rax
    6193:	eb 04                	jmp    6199 <safe_rshift_func_uint64_t_u_s+0x30>
    6195:	48 8b 45 f8          	mov    -0x8(%rbp),%rax
    6199:	5d                   	pop    %rbp
    619a:	c3                   	retq   

000000000000619b <safe_rshift_func_uint64_t_u_u>:
    619b:	f3 0f 1e fa          	endbr64 
    619f:	55                   	push   %rbp
    61a0:	48 89 e5             	mov    %rsp,%rbp
    61a3:	48 89 7d f8          	mov    %rdi,-0x8(%rbp)
    61a7:	89 75 f4             	mov    %esi,-0xc(%rbp)
    61aa:	83 7d f4 1f          	cmpl   $0x1f,-0xc(%rbp)
    61ae:	77 11                	ja     61c1 <safe_rshift_func_uint64_t_u_u+0x26>
    61b0:	8b 45 f4             	mov    -0xc(%rbp),%eax
    61b3:	48 8b 55 f8          	mov    -0x8(%rbp),%rdx
    61b7:	89 c1                	mov    %eax,%ecx
    61b9:	48 d3 ea             	shr    %cl,%rdx
    61bc:	48 89 d0             	mov    %rdx,%rax
    61bf:	eb 04                	jmp    61c5 <safe_rshift_func_uint64_t_u_u+0x2a>
    61c1:	48 8b 45 f8          	mov    -0x8(%rbp),%rax
    61c5:	5d                   	pop    %rbp
    61c6:	c3                   	retq   

00000000000061c7 <safe_add_func_float_f_f>:
    61c7:	f3 0f 1e fa          	endbr64 
    61cb:	55                   	push   %rbp
    61cc:	48 89 e5             	mov    %rsp,%rbp
    61cf:	f3 0f 11 45 fc       	movss  %xmm0,-0x4(%rbp)
    61d4:	f3 0f 11 4d f8       	movss  %xmm1,-0x8(%rbp)
    61d9:	f3 0f 10 4d fc       	movss  -0x4(%rbp),%xmm1
    61de:	f3 0f 10 05 ba 88 00 	movss  0x88ba(%rip),%xmm0        # eaa0 <l_1301.4593+0x40>
    61e5:	00 
    61e6:	f3 0f 59 c8          	mulss  %xmm0,%xmm1
    61ea:	f3 0f 10 55 f8       	movss  -0x8(%rbp),%xmm2
    61ef:	f3 0f 10 05 a9 88 00 	movss  0x88a9(%rip),%xmm0        # eaa0 <l_1301.4593+0x40>
    61f6:	00 
    61f7:	f3 0f 59 c2          	mulss  %xmm2,%xmm0
    61fb:	f3 0f 58 c1          	addss  %xmm1,%xmm0
    61ff:	f3 0f 10 0d a9 88 00 	movss  0x88a9(%rip),%xmm1        # eab0 <l_1301.4593+0x50>
    6206:	00 
    6207:	0f 54 c1             	andps  %xmm1,%xmm0
    620a:	0f 2f 05 af 88 00 00 	comiss 0x88af(%rip),%xmm0        # eac0 <l_1301.4593+0x60>
    6211:	76 07                	jbe    621a <safe_add_func_float_f_f+0x53>
    6213:	f3 0f 10 45 fc       	movss  -0x4(%rbp),%xmm0
    6218:	eb 0a                	jmp    6224 <safe_add_func_float_f_f+0x5d>
    621a:	f3 0f 10 45 fc       	movss  -0x4(%rbp),%xmm0
    621f:	f3 0f 58 45 f8       	addss  -0x8(%rbp),%xmm0
    6224:	5d                   	pop    %rbp
    6225:	c3                   	retq   

0000000000006226 <safe_sub_func_float_f_f>:
    6226:	f3 0f 1e fa          	endbr64 
    622a:	55                   	push   %rbp
    622b:	48 89 e5             	mov    %rsp,%rbp
    622e:	f3 0f 11 45 fc       	movss  %xmm0,-0x4(%rbp)
    6233:	f3 0f 11 4d f8       	movss  %xmm1,-0x8(%rbp)
    6238:	f3 0f 10 4d fc       	movss  -0x4(%rbp),%xmm1
    623d:	f3 0f 10 05 5b 88 00 	movss  0x885b(%rip),%xmm0        # eaa0 <l_1301.4593+0x40>
    6244:	00 
    6245:	f3 0f 59 c1          	mulss  %xmm1,%xmm0
    6249:	f3 0f 10 55 f8       	movss  -0x8(%rbp),%xmm2
    624e:	f3 0f 10 0d 4a 88 00 	movss  0x884a(%rip),%xmm1        # eaa0 <l_1301.4593+0x40>
    6255:	00 
    6256:	f3 0f 59 ca          	mulss  %xmm2,%xmm1
    625a:	f3 0f 5c c1          	subss  %xmm1,%xmm0
    625e:	f3 0f 10 0d 4a 88 00 	movss  0x884a(%rip),%xmm1        # eab0 <l_1301.4593+0x50>
    6265:	00 
    6266:	0f 54 c1             	andps  %xmm1,%xmm0
    6269:	0f 2f 05 50 88 00 00 	comiss 0x8850(%rip),%xmm0        # eac0 <l_1301.4593+0x60>
    6270:	76 07                	jbe    6279 <safe_sub_func_float_f_f+0x53>
    6272:	f3 0f 10 45 fc       	movss  -0x4(%rbp),%xmm0
    6277:	eb 0a                	jmp    6283 <safe_sub_func_float_f_f+0x5d>
    6279:	f3 0f 10 45 fc       	movss  -0x4(%rbp),%xmm0
    627e:	f3 0f 5c 45 f8       	subss  -0x8(%rbp),%xmm0
    6283:	5d                   	pop    %rbp
    6284:	c3                   	retq   

0000000000006285 <safe_mul_func_float_f_f>:
    6285:	f3 0f 1e fa          	endbr64 
    6289:	55                   	push   %rbp
    628a:	48 89 e5             	mov    %rsp,%rbp
    628d:	f3 0f 11 45 fc       	movss  %xmm0,-0x4(%rbp)
    6292:	f3 0f 11 4d f8       	movss  %xmm1,-0x8(%rbp)
    6297:	f3 0f 10 4d fc       	movss  -0x4(%rbp),%xmm1
    629c:	f3 0f 10 05 20 88 00 	movss  0x8820(%rip),%xmm0        # eac4 <l_1301.4593+0x64>
    62a3:	00 
    62a4:	f3 0f 59 c8          	mulss  %xmm0,%xmm1
    62a8:	f3 0f 10 55 f8       	movss  -0x8(%rbp),%xmm2
    62ad:	f3 0f 10 05 13 88 00 	movss  0x8813(%rip),%xmm0        # eac8 <l_1301.4593+0x68>
    62b4:	00 
    62b5:	f3 0f 59 c2          	mulss  %xmm2,%xmm0
    62b9:	f3 0f 59 c1          	mulss  %xmm1,%xmm0
    62bd:	f3 0f 10 0d eb 87 00 	movss  0x87eb(%rip),%xmm1        # eab0 <l_1301.4593+0x50>
    62c4:	00 
    62c5:	0f 54 c1             	andps  %xmm1,%xmm0
    62c8:	0f 2f 05 fd 87 00 00 	comiss 0x87fd(%rip),%xmm0        # eacc <l_1301.4593+0x6c>
    62cf:	76 07                	jbe    62d8 <safe_mul_func_float_f_f+0x53>
    62d1:	f3 0f 10 45 fc       	movss  -0x4(%rbp),%xmm0
    62d6:	eb 0a                	jmp    62e2 <safe_mul_func_float_f_f+0x5d>
    62d8:	f3 0f 10 45 fc       	movss  -0x4(%rbp),%xmm0
    62dd:	f3 0f 59 45 f8       	mulss  -0x8(%rbp),%xmm0
    62e2:	5d                   	pop    %rbp
    62e3:	c3                   	retq   

00000000000062e4 <safe_div_func_float_f_f>:
    62e4:	f3 0f 1e fa          	endbr64 
    62e8:	55                   	push   %rbp
    62e9:	48 89 e5             	mov    %rsp,%rbp
    62ec:	f3 0f 11 45 fc       	movss  %xmm0,-0x4(%rbp)
    62f1:	f3 0f 11 4d f8       	movss  %xmm1,-0x8(%rbp)
    62f6:	f3 0f 10 45 f8       	movss  -0x8(%rbp),%xmm0
    62fb:	f3 0f 10 0d ad 87 00 	movss  0x87ad(%rip),%xmm1        # eab0 <l_1301.4593+0x50>
    6302:	00 
    6303:	0f 54 c8             	andps  %xmm0,%xmm1
    6306:	f3 0f 10 05 c2 87 00 	movss  0x87c2(%rip),%xmm0        # ead0 <l_1301.4593+0x70>
    630d:	00 
    630e:	0f 2f c1             	comiss %xmm1,%xmm0
    6311:	0f 97 c0             	seta   %al
    6314:	83 f0 01             	xor    $0x1,%eax
    6317:	84 c0                	test   %al,%al
    6319:	75 56                	jne    6371 <safe_div_func_float_f_f+0x8d>
    631b:	66 0f ef c0          	pxor   %xmm0,%xmm0
    631f:	0f 2e 45 f8          	ucomiss -0x8(%rbp),%xmm0
    6323:	7a 0a                	jp     632f <safe_div_func_float_f_f+0x4b>
    6325:	66 0f ef c0          	pxor   %xmm0,%xmm0
    6329:	0f 2e 45 f8          	ucomiss -0x8(%rbp),%xmm0
    632d:	74 4e                	je     637d <safe_div_func_float_f_f+0x99>
    632f:	f3 0f 10 4d fc       	movss  -0x4(%rbp),%xmm1
    6334:	f3 0f 10 05 98 87 00 	movss  0x8798(%rip),%xmm0        # ead4 <l_1301.4593+0x74>
    633b:	00 
    633c:	f3 0f 59 c1          	mulss  %xmm1,%xmm0
    6340:	f3 0f 10 55 f8       	movss  -0x8(%rbp),%xmm2
    6345:	f3 0f 10 0d 8b 87 00 	movss  0x878b(%rip),%xmm1        # ead8 <l_1301.4593+0x78>
    634c:	00 
    634d:	f3 0f 59 ca          	mulss  %xmm2,%xmm1
    6351:	f3 0f 5e c1          	divss  %xmm1,%xmm0
    6355:	f3 0f 10 0d 53 87 00 	movss  0x8753(%rip),%xmm1        # eab0 <l_1301.4593+0x50>
    635c:	00 
    635d:	0f 54 c1             	andps  %xmm1,%xmm0
    6360:	0f 2f 05 75 87 00 00 	comiss 0x8775(%rip),%xmm0        # eadc <l_1301.4593+0x7c>
    6367:	0f 97 c0             	seta   %al
    636a:	83 f0 01             	xor    $0x1,%eax
    636d:	84 c0                	test   %al,%al
    636f:	74 0c                	je     637d <safe_div_func_float_f_f+0x99>
    6371:	f3 0f 10 45 fc       	movss  -0x4(%rbp),%xmm0
    6376:	f3 0f 5e 45 f8       	divss  -0x8(%rbp),%xmm0
    637b:	eb 05                	jmp    6382 <safe_div_func_float_f_f+0x9e>
    637d:	f3 0f 10 45 fc       	movss  -0x4(%rbp),%xmm0
    6382:	5d                   	pop    %rbp
    6383:	c3                   	retq   

0000000000006384 <safe_add_func_double_f_f>:
    6384:	f3 0f 1e fa          	endbr64 
    6388:	55                   	push   %rbp
    6389:	48 89 e5             	mov    %rsp,%rbp
    638c:	f2 0f 11 45 f8       	movsd  %xmm0,-0x8(%rbp)
    6391:	f2 0f 11 4d f0       	movsd  %xmm1,-0x10(%rbp)
    6396:	f2 0f 10 4d f8       	movsd  -0x8(%rbp),%xmm1
    639b:	f2 0f 10 05 3d 87 00 	movsd  0x873d(%rip),%xmm0        # eae0 <l_1301.4593+0x80>
    63a2:	00 
    63a3:	f2 0f 59 c8          	mulsd  %xmm0,%xmm1
    63a7:	f2 0f 10 55 f0       	movsd  -0x10(%rbp),%xmm2
    63ac:	f2 0f 10 05 2c 87 00 	movsd  0x872c(%rip),%xmm0        # eae0 <l_1301.4593+0x80>
    63b3:	00 
    63b4:	f2 0f 59 c2          	mulsd  %xmm2,%xmm0
    63b8:	f2 0f 58 c1          	addsd  %xmm1,%xmm0
    63bc:	f3 0f 7e 0d 2c 87 00 	movq   0x872c(%rip),%xmm1        # eaf0 <l_1301.4593+0x90>
    63c3:	00 
    63c4:	66 0f 54 c1          	andpd  %xmm1,%xmm0
    63c8:	66 0f 2f 05 30 87 00 	comisd 0x8730(%rip),%xmm0        # eb00 <l_1301.4593+0xa0>
    63cf:	00 
    63d0:	76 07                	jbe    63d9 <safe_add_func_double_f_f+0x55>
    63d2:	f2 0f 10 45 f8       	movsd  -0x8(%rbp),%xmm0
    63d7:	eb 0a                	jmp    63e3 <safe_add_func_double_f_f+0x5f>
    63d9:	f2 0f 10 45 f8       	movsd  -0x8(%rbp),%xmm0
    63de:	f2 0f 58 45 f0       	addsd  -0x10(%rbp),%xmm0
    63e3:	5d                   	pop    %rbp
    63e4:	c3                   	retq   

00000000000063e5 <safe_sub_func_double_f_f>:
    63e5:	f3 0f 1e fa          	endbr64 
    63e9:	55                   	push   %rbp
    63ea:	48 89 e5             	mov    %rsp,%rbp
    63ed:	f2 0f 11 45 f8       	movsd  %xmm0,-0x8(%rbp)
    63f2:	f2 0f 11 4d f0       	movsd  %xmm1,-0x10(%rbp)
    63f7:	f2 0f 10 4d f8       	movsd  -0x8(%rbp),%xmm1
    63fc:	f2 0f 10 05 dc 86 00 	movsd  0x86dc(%rip),%xmm0        # eae0 <l_1301.4593+0x80>
    6403:	00 
    6404:	f2 0f 59 c1          	mulsd  %xmm1,%xmm0
    6408:	f2 0f 10 55 f0       	movsd  -0x10(%rbp),%xmm2
    640d:	f2 0f 10 0d cb 86 00 	movsd  0x86cb(%rip),%xmm1        # eae0 <l_1301.4593+0x80>
    6414:	00 
    6415:	f2 0f 59 ca          	mulsd  %xmm2,%xmm1
    6419:	f2 0f 5c c1          	subsd  %xmm1,%xmm0
    641d:	f3 0f 7e 0d cb 86 00 	movq   0x86cb(%rip),%xmm1        # eaf0 <l_1301.4593+0x90>
    6424:	00 
    6425:	66 0f 54 c1          	andpd  %xmm1,%xmm0
    6429:	66 0f 2f 05 cf 86 00 	comisd 0x86cf(%rip),%xmm0        # eb00 <l_1301.4593+0xa0>
    6430:	00 
    6431:	76 07                	jbe    643a <safe_sub_func_double_f_f+0x55>
    6433:	f2 0f 10 45 f8       	movsd  -0x8(%rbp),%xmm0
    6438:	eb 0a                	jmp    6444 <safe_sub_func_double_f_f+0x5f>
    643a:	f2 0f 10 45 f8       	movsd  -0x8(%rbp),%xmm0
    643f:	f2 0f 5c 45 f0       	subsd  -0x10(%rbp),%xmm0
    6444:	5d                   	pop    %rbp
    6445:	c3                   	retq   

0000000000006446 <safe_mul_func_double_f_f>:
    6446:	f3 0f 1e fa          	endbr64 
    644a:	55                   	push   %rbp
    644b:	48 89 e5             	mov    %rsp,%rbp
    644e:	f2 0f 11 45 f8       	movsd  %xmm0,-0x8(%rbp)
    6453:	f2 0f 11 4d f0       	movsd  %xmm1,-0x10(%rbp)
    6458:	f2 0f 10 4d f8       	movsd  -0x8(%rbp),%xmm1
    645d:	f2 0f 10 05 a3 86 00 	movsd  0x86a3(%rip),%xmm0        # eb08 <l_1301.4593+0xa8>
    6464:	00 
    6465:	f2 0f 59 c8          	mulsd  %xmm0,%xmm1
    6469:	f2 0f 10 55 f0       	movsd  -0x10(%rbp),%xmm2
    646e:	f2 0f 10 05 9a 86 00 	movsd  0x869a(%rip),%xmm0        # eb10 <l_1301.4593+0xb0>
    6475:	00 
    6476:	f2 0f 59 c2          	mulsd  %xmm2,%xmm0
    647a:	f2 0f 59 c1          	mulsd  %xmm1,%xmm0
    647e:	f3 0f 7e 0d 6a 86 00 	movq   0x866a(%rip),%xmm1        # eaf0 <l_1301.4593+0x90>
    6485:	00 
    6486:	66 0f 54 c1          	andpd  %xmm1,%xmm0
    648a:	66 0f 2f 05 86 86 00 	comisd 0x8686(%rip),%xmm0        # eb18 <l_1301.4593+0xb8>
    6491:	00 
    6492:	76 07                	jbe    649b <safe_mul_func_double_f_f+0x55>
    6494:	f2 0f 10 45 f8       	movsd  -0x8(%rbp),%xmm0
    6499:	eb 0a                	jmp    64a5 <safe_mul_func_double_f_f+0x5f>
    649b:	f2 0f 10 45 f8       	movsd  -0x8(%rbp),%xmm0
    64a0:	f2 0f 59 45 f0       	mulsd  -0x10(%rbp),%xmm0
    64a5:	5d                   	pop    %rbp
    64a6:	c3                   	retq   

00000000000064a7 <safe_div_func_double_f_f>:
    64a7:	f3 0f 1e fa          	endbr64 
    64ab:	55                   	push   %rbp
    64ac:	48 89 e5             	mov    %rsp,%rbp
    64af:	f2 0f 11 45 f8       	movsd  %xmm0,-0x8(%rbp)
    64b4:	f2 0f 11 4d f0       	movsd  %xmm1,-0x10(%rbp)
    64b9:	f2 0f 10 45 f0       	movsd  -0x10(%rbp),%xmm0
    64be:	f3 0f 7e 0d 2a 86 00 	movq   0x862a(%rip),%xmm1        # eaf0 <l_1301.4593+0x90>
    64c5:	00 
    64c6:	66 0f 54 c8          	andpd  %xmm0,%xmm1
    64ca:	f2 0f 10 05 4e 86 00 	movsd  0x864e(%rip),%xmm0        # eb20 <l_1301.4593+0xc0>
    64d1:	00 
    64d2:	66 0f 2f c1          	comisd %xmm1,%xmm0
    64d6:	0f 97 c0             	seta   %al
    64d9:	83 f0 01             	xor    $0x1,%eax
    64dc:	84 c0                	test   %al,%al
    64de:	75 5a                	jne    653a <safe_div_func_double_f_f+0x93>
    64e0:	66 0f ef c0          	pxor   %xmm0,%xmm0
    64e4:	66 0f 2e 45 f0       	ucomisd -0x10(%rbp),%xmm0
    64e9:	7a 0b                	jp     64f6 <safe_div_func_double_f_f+0x4f>
    64eb:	66 0f ef c0          	pxor   %xmm0,%xmm0
    64ef:	66 0f 2e 45 f0       	ucomisd -0x10(%rbp),%xmm0
    64f4:	74 50                	je     6546 <safe_div_func_double_f_f+0x9f>
    64f6:	f2 0f 10 4d f8       	movsd  -0x8(%rbp),%xmm1
    64fb:	f2 0f 10 05 25 86 00 	movsd  0x8625(%rip),%xmm0        # eb28 <l_1301.4593+0xc8>
    6502:	00 
    6503:	f2 0f 59 c1          	mulsd  %xmm1,%xmm0
    6507:	f2 0f 10 55 f0       	movsd  -0x10(%rbp),%xmm2
    650c:	f2 0f 10 0d 1c 86 00 	movsd  0x861c(%rip),%xmm1        # eb30 <l_1301.4593+0xd0>
    6513:	00 
    6514:	f2 0f 59 ca          	mulsd  %xmm2,%xmm1
    6518:	f2 0f 5e c1          	divsd  %xmm1,%xmm0
    651c:	f3 0f 7e 0d cc 85 00 	movq   0x85cc(%rip),%xmm1        # eaf0 <l_1301.4593+0x90>
    6523:	00 
    6524:	66 0f 54 c1          	andpd  %xmm1,%xmm0
    6528:	66 0f 2f 05 08 86 00 	comisd 0x8608(%rip),%xmm0        # eb38 <l_1301.4593+0xd8>
    652f:	00 
    6530:	0f 97 c0             	seta   %al
    6533:	83 f0 01             	xor    $0x1,%eax
    6536:	84 c0                	test   %al,%al
    6538:	74 0c                	je     6546 <safe_div_func_double_f_f+0x9f>
    653a:	f2 0f 10 45 f8       	movsd  -0x8(%rbp),%xmm0
    653f:	f2 0f 5e 45 f0       	divsd  -0x10(%rbp),%xmm0
    6544:	eb 05                	jmp    654b <safe_div_func_double_f_f+0xa4>
    6546:	f2 0f 10 45 f8       	movsd  -0x8(%rbp),%xmm0
    654b:	5d                   	pop    %rbp
    654c:	c3                   	retq   

000000000000654d <safe_convert_func_float_to_int32_t>:
    654d:	f3 0f 1e fa          	endbr64 
    6551:	55                   	push   %rbp
    6552:	48 89 e5             	mov    %rsp,%rbp
    6555:	f3 0f 11 45 fc       	movss  %xmm0,-0x4(%rbp)
    655a:	f3 0f 10 05 de 85 00 	movss  0x85de(%rip),%xmm0        # eb40 <l_1301.4593+0xe0>
    6561:	00 
    6562:	0f 2f 45 fc          	comiss -0x4(%rbp),%xmm0
    6566:	0f 93 c0             	setae  %al
    6569:	83 f0 01             	xor    $0x1,%eax
    656c:	84 c0                	test   %al,%al
    656e:	74 21                	je     6591 <safe_convert_func_float_to_int32_t+0x44>
    6570:	f3 0f 10 45 fc       	movss  -0x4(%rbp),%xmm0
    6575:	0f 2f 05 c8 85 00 00 	comiss 0x85c8(%rip),%xmm0        # eb44 <l_1301.4593+0xe4>
    657c:	0f 93 c0             	setae  %al
    657f:	83 f0 01             	xor    $0x1,%eax
    6582:	84 c0                	test   %al,%al
    6584:	74 0b                	je     6591 <safe_convert_func_float_to_int32_t+0x44>
    6586:	f3 0f 10 45 fc       	movss  -0x4(%rbp),%xmm0
    658b:	f3 0f 2c c0          	cvttss2si %xmm0,%eax
    658f:	eb 05                	jmp    6596 <safe_convert_func_float_to_int32_t+0x49>
    6591:	b8 ff ff ff 7f       	mov    $0x7fffffff,%eax
    6596:	5d                   	pop    %rbp
    6597:	c3                   	retq   

0000000000006598 <crc32_gentab>:
    6598:	f3 0f 1e fa          	endbr64 
    659c:	55                   	push   %rbp
    659d:	48 89 e5             	mov    %rsp,%rbp
    65a0:	c7 45 fc 20 83 b8 ed 	movl   $0xedb88320,-0x4(%rbp)
    65a7:	c7 45 f4 00 00 00 00 	movl   $0x0,-0xc(%rbp)
    65ae:	eb 51                	jmp    6601 <crc32_gentab+0x69>
    65b0:	8b 45 f4             	mov    -0xc(%rbp),%eax
    65b3:	89 45 f0             	mov    %eax,-0x10(%rbp)
    65b6:	c7 45 f8 08 00 00 00 	movl   $0x8,-0x8(%rbp)
    65bd:	eb 1e                	jmp    65dd <crc32_gentab+0x45>
    65bf:	8b 45 f0             	mov    -0x10(%rbp),%eax
    65c2:	83 e0 01             	and    $0x1,%eax
    65c5:	85 c0                	test   %eax,%eax
    65c7:	74 0d                	je     65d6 <crc32_gentab+0x3e>
    65c9:	8b 45 f0             	mov    -0x10(%rbp),%eax
    65cc:	d1 e8                	shr    %eax
    65ce:	33 45 fc             	xor    -0x4(%rbp),%eax
    65d1:	89 45 f0             	mov    %eax,-0x10(%rbp)
    65d4:	eb 03                	jmp    65d9 <crc32_gentab+0x41>
    65d6:	d1 6d f0             	shrl   -0x10(%rbp)
    65d9:	83 6d f8 01          	subl   $0x1,-0x8(%rbp)
    65dd:	83 7d f8 00          	cmpl   $0x0,-0x8(%rbp)
    65e1:	7f dc                	jg     65bf <crc32_gentab+0x27>
    65e3:	8b 45 f4             	mov    -0xc(%rbp),%eax
    65e6:	48 98                	cltq   
    65e8:	48 8d 0c 85 00 00 00 	lea    0x0(,%rax,4),%rcx
    65ef:	00 
    65f0:	48 8d 15 a9 ce 00 00 	lea    0xcea9(%rip),%rdx        # 134a0 <crc32_tab>
    65f7:	8b 45 f0             	mov    -0x10(%rbp),%eax
    65fa:	89 04 11             	mov    %eax,(%rcx,%rdx,1)
    65fd:	83 45 f4 01          	addl   $0x1,-0xc(%rbp)
    6601:	81 7d f4 ff 00 00 00 	cmpl   $0xff,-0xc(%rbp)
    6608:	7e a6                	jle    65b0 <crc32_gentab+0x18>
    660a:	90                   	nop
    660b:	90                   	nop
    660c:	5d                   	pop    %rbp
    660d:	c3                   	retq   

000000000000660e <crc32_byte>:
    660e:	f3 0f 1e fa          	endbr64 
    6612:	55                   	push   %rbp
    6613:	48 89 e5             	mov    %rsp,%rbp
    6616:	89 f8                	mov    %edi,%eax
    6618:	88 45 fc             	mov    %al,-0x4(%rbp)
    661b:	8b 05 ff a9 00 00    	mov    0xa9ff(%rip),%eax        # 11020 <crc32_context>
    6621:	c1 e8 08             	shr    $0x8,%eax
    6624:	89 c1                	mov    %eax,%ecx
    6626:	0f b6 55 fc          	movzbl -0x4(%rbp),%edx
    662a:	8b 05 f0 a9 00 00    	mov    0xa9f0(%rip),%eax        # 11020 <crc32_context>
    6630:	31 d0                	xor    %edx,%eax
    6632:	0f b6 c0             	movzbl %al,%eax
    6635:	89 c0                	mov    %eax,%eax
    6637:	48 8d 14 85 00 00 00 	lea    0x0(,%rax,4),%rdx
    663e:	00 
    663f:	48 8d 05 5a ce 00 00 	lea    0xce5a(%rip),%rax        # 134a0 <crc32_tab>
    6646:	8b 04 02             	mov    (%rdx,%rax,1),%eax
    6649:	31 c8                	xor    %ecx,%eax
    664b:	89 05 cf a9 00 00    	mov    %eax,0xa9cf(%rip)        # 11020 <crc32_context>
    6651:	90                   	nop
    6652:	5d                   	pop    %rbp
    6653:	c3                   	retq   

0000000000006654 <crc32_8bytes>:
    6654:	f3 0f 1e fa          	endbr64 
    6658:	55                   	push   %rbp
    6659:	48 89 e5             	mov    %rsp,%rbp
    665c:	48 83 ec 08          	sub    $0x8,%rsp
    6660:	48 89 7d f8          	mov    %rdi,-0x8(%rbp)
    6664:	48 8b 45 f8          	mov    -0x8(%rbp),%rax
    6668:	0f b6 c0             	movzbl %al,%eax
    666b:	89 c7                	mov    %eax,%edi
    666d:	e8 9c ff ff ff       	callq  660e <crc32_byte>
    6672:	48 8b 45 f8          	mov    -0x8(%rbp),%rax
    6676:	48 c1 e8 08          	shr    $0x8,%rax
    667a:	0f b6 c0             	movzbl %al,%eax
    667d:	89 c7                	mov    %eax,%edi
    667f:	e8 8a ff ff ff       	callq  660e <crc32_byte>
    6684:	48 8b 45 f8          	mov    -0x8(%rbp),%rax
    6688:	48 c1 e8 10          	shr    $0x10,%rax
    668c:	0f b6 c0             	movzbl %al,%eax
    668f:	89 c7                	mov    %eax,%edi
    6691:	e8 78 ff ff ff       	callq  660e <crc32_byte>
    6696:	48 8b 45 f8          	mov    -0x8(%rbp),%rax
    669a:	48 c1 e8 18          	shr    $0x18,%rax
    669e:	0f b6 c0             	movzbl %al,%eax
    66a1:	89 c7                	mov    %eax,%edi
    66a3:	e8 66 ff ff ff       	callq  660e <crc32_byte>
    66a8:	48 8b 45 f8          	mov    -0x8(%rbp),%rax
    66ac:	48 c1 e8 20          	shr    $0x20,%rax
    66b0:	0f b6 c0             	movzbl %al,%eax
    66b3:	89 c7                	mov    %eax,%edi
    66b5:	e8 54 ff ff ff       	callq  660e <crc32_byte>
    66ba:	48 8b 45 f8          	mov    -0x8(%rbp),%rax
    66be:	48 c1 e8 28          	shr    $0x28,%rax
    66c2:	0f b6 c0             	movzbl %al,%eax
    66c5:	89 c7                	mov    %eax,%edi
    66c7:	e8 42 ff ff ff       	callq  660e <crc32_byte>
    66cc:	48 8b 45 f8          	mov    -0x8(%rbp),%rax
    66d0:	48 c1 e8 30          	shr    $0x30,%rax
    66d4:	0f b6 c0             	movzbl %al,%eax
    66d7:	89 c7                	mov    %eax,%edi
    66d9:	e8 30 ff ff ff       	callq  660e <crc32_byte>
    66de:	48 8b 45 f8          	mov    -0x8(%rbp),%rax
    66e2:	48 c1 e8 38          	shr    $0x38,%rax
    66e6:	0f b6 c0             	movzbl %al,%eax
    66e9:	89 c7                	mov    %eax,%edi
    66eb:	e8 1e ff ff ff       	callq  660e <crc32_byte>
    66f0:	90                   	nop
    66f1:	c9                   	leaveq 
    66f2:	c3                   	retq   

00000000000066f3 <transparent_crc>:
    66f3:	f3 0f 1e fa          	endbr64 
    66f7:	55                   	push   %rbp
    66f8:	48 89 e5             	mov    %rsp,%rbp
    66fb:	48 83 ec 20          	sub    $0x20,%rsp
    66ff:	48 89 7d f8          	mov    %rdi,-0x8(%rbp)
    6703:	48 89 75 f0          	mov    %rsi,-0x10(%rbp)
    6707:	89 55 ec             	mov    %edx,-0x14(%rbp)
    670a:	48 8b 45 f8          	mov    -0x8(%rbp),%rax
    670e:	48 89 c7             	mov    %rax,%rdi
    6711:	e8 3e ff ff ff       	callq  6654 <crc32_8bytes>
    6716:	83 7d ec 00          	cmpl   $0x0,-0x14(%rbp)
    671a:	74 22                	je     673e <transparent_crc+0x4b>
    671c:	8b 05 fe a8 00 00    	mov    0xa8fe(%rip),%eax        # 11020 <crc32_context>
    6722:	f7 d0                	not    %eax
    6724:	89 c2                	mov    %eax,%edx
    6726:	48 8b 45 f0          	mov    -0x10(%rbp),%rax
    672a:	48 89 c6             	mov    %rax,%rsi
    672d:	48 8d 3d fc 68 00 00 	lea    0x68fc(%rip),%rdi        # d030 <_IO_stdin_used+0x30>
    6734:	b8 00 00 00 00       	mov    $0x0,%eax
    6739:	e8 42 e9 ff ff       	callq  5080 <printf@plt>
    673e:	90                   	nop
    673f:	c9                   	leaveq 
    6740:	c3                   	retq   

0000000000006741 <transparent_crc_bytes>:
    6741:	f3 0f 1e fa          	endbr64 
    6745:	55                   	push   %rbp
    6746:	48 89 e5             	mov    %rsp,%rbp
    6749:	48 83 ec 30          	sub    $0x30,%rsp
    674d:	48 89 7d e8          	mov    %rdi,-0x18(%rbp)
    6751:	89 75 e4             	mov    %esi,-0x1c(%rbp)
    6754:	48 89 55 d8          	mov    %rdx,-0x28(%rbp)
    6758:	89 4d e0             	mov    %ecx,-0x20(%rbp)
    675b:	c7 45 fc 00 00 00 00 	movl   $0x0,-0x4(%rbp)
    6762:	eb 1e                	jmp    6782 <transparent_crc_bytes+0x41>
    6764:	8b 45 fc             	mov    -0x4(%rbp),%eax
    6767:	48 63 d0             	movslq %eax,%rdx
    676a:	48 8b 45 e8          	mov    -0x18(%rbp),%rax
    676e:	48 01 d0             	add    %rdx,%rax
    6771:	0f b6 00             	movzbl (%rax),%eax
    6774:	0f b6 c0             	movzbl %al,%eax
    6777:	89 c7                	mov    %eax,%edi
    6779:	e8 90 fe ff ff       	callq  660e <crc32_byte>
    677e:	83 45 fc 01          	addl   $0x1,-0x4(%rbp)
    6782:	8b 45 fc             	mov    -0x4(%rbp),%eax
    6785:	3b 45 e4             	cmp    -0x1c(%rbp),%eax
    6788:	7c da                	jl     6764 <transparent_crc_bytes+0x23>
    678a:	83 7d e0 00          	cmpl   $0x0,-0x20(%rbp)
    678e:	74 22                	je     67b2 <transparent_crc_bytes+0x71>
    6790:	8b 05 8a a8 00 00    	mov    0xa88a(%rip),%eax        # 11020 <crc32_context>
    6796:	f7 d0                	not    %eax
    6798:	89 c2                	mov    %eax,%edx
    679a:	48 8b 45 d8          	mov    -0x28(%rbp),%rax
    679e:	48 89 c6             	mov    %rax,%rsi
    67a1:	48 8d 3d 88 68 00 00 	lea    0x6888(%rip),%rdi        # d030 <_IO_stdin_used+0x30>
    67a8:	b8 00 00 00 00       	mov    $0x0,%eax
    67ad:	e8 ce e8 ff ff       	callq  5080 <printf@plt>
    67b2:	90                   	nop
    67b3:	c9                   	leaveq 
    67b4:	c3                   	retq   

00000000000067b5 <func_1>:
    67b5:	f3 0f 1e fa          	endbr64 
    67b9:	55                   	push   %rbp
    67ba:	48 89 e5             	mov    %rsp,%rbp
    67bd:	41 57                	push   %r15
    67bf:	41 56                	push   %r14
    67c1:	41 55                	push   %r13
    67c3:	41 54                	push   %r12
    67c5:	53                   	push   %rbx
    67c6:	48 81 ec 00 10 00 00 	sub    $0x1000,%rsp
    67cd:	48 83 0c 24 00       	orq    $0x0,(%rsp)
    67d2:	48 81 ec 58 04 00 00 	sub    $0x458,%rsp
    67d9:	64 48 8b 04 25 28 00 	mov    %fs:0x28,%rax
    67e0:	00 00 
    67e2:	48 89 45 c8          	mov    %rax,-0x38(%rbp)
    67e6:	31 c0                	xor    %eax,%eax
    67e8:	48 8d 05 35 a8 00 00 	lea    0xa835(%rip),%rax        # 11024 <g_4>
    67ef:	48 89 85 c0 ec ff ff 	mov    %rax,-0x1340(%rbp)
    67f6:	48 8d 85 c0 ec ff ff 	lea    -0x1340(%rbp),%rax
    67fd:	48 89 85 f8 ec ff ff 	mov    %rax,-0x1308(%rbp)
    6804:	c7 85 20 ef ff ff 01 	movl   $0x1,-0x10e0(%rbp)
    680b:	00 00 00 
    680e:	c7 85 24 ef ff ff 01 	movl   $0x1,-0x10dc(%rbp)
    6815:	00 00 00 
    6818:	c7 85 28 ef ff ff f8 	movl   $0xfffffff8,-0x10d8(%rbp)
    681f:	ff ff ff 
    6822:	c7 85 2c ef ff ff 01 	movl   $0x1,-0x10d4(%rbp)
    6829:	00 00 00 
    682c:	c7 85 30 ef ff ff 01 	movl   $0x1,-0x10d0(%rbp)
    6833:	00 00 00 
    6836:	c7 85 34 ef ff ff f8 	movl   $0xfffffff8,-0x10cc(%rbp)
    683d:	ff ff ff 
    6840:	c7 85 38 ef ff ff 01 	movl   $0x1,-0x10c8(%rbp)
    6847:	00 00 00 
    684a:	c7 85 b8 eb ff ff 00 	movl   $0x0,-0x1448(%rbp)
    6851:	00 00 00 
    6854:	c6 85 9b eb ff ff bf 	movb   $0xbf,-0x1465(%rbp)
    685b:	48 8d 05 1a a8 00 00 	lea    0xa81a(%rip),%rax        # 1107c <g_81>
    6862:	48 89 85 00 ed ff ff 	mov    %rax,-0x1300(%rbp)
    6869:	c7 85 bc eb ff ff 2c 	movl   $0xb815122c,-0x1444(%rbp)
    6870:	12 15 b8 
    6873:	c6 85 97 eb ff ff a0 	movb   $0xa0,-0x1469(%rbp)
    687a:	48 8d 85 50 f3 ff ff 	lea    -0xcb0(%rbp),%rax
    6881:	48 8d 15 58 ac 00 00 	lea    0xac58(%rip),%rdx        # 114e0 <g_2155+0x30>
    6888:	b9 48 00 00 00       	mov    $0x48,%ecx
    688d:	48 89 c7             	mov    %rax,%rdi
    6890:	48 89 d6             	mov    %rdx,%rsi
    6893:	f3 48 a5             	rep movsq %ds:(%rsi),%es:(%rdi)
    6896:	48 8d 85 50 f3 ff ff 	lea    -0xcb0(%rbp),%rax
    689d:	48 05 38 01 00 00    	add    $0x138,%rax
    68a3:	48 89 85 c8 ec ff ff 	mov    %rax,-0x1338(%rbp)
    68aa:	c7 85 04 ec ff ff 86 	movl   $0x8747aa86,-0x13fc(%rbp)
    68b1:	aa 47 87 
    68b4:	48 b8 ab 33 71 97 5d 	movabs $0x22e5ab5d977133ab,%rax
    68bb:	ab e5 22 
    68be:	48 89 85 08 ed ff ff 	mov    %rax,-0x12f8(%rbp)
    68c5:	66 c7 85 00 ef ff ff 	movw   $0xec92,-0x1100(%rbp)
    68cc:	92 ec 
    68ce:	66 c7 85 02 ef ff ff 	movw   $0x101,-0x10fe(%rbp)
    68d5:	01 01 
    68d7:	66 c7 85 04 ef ff ff 	movw   $0xec01,-0x10fc(%rbp)
    68de:	01 ec 
    68e0:	66 c7 85 06 ef ff ff 	movw   $0x792,-0x10fa(%rbp)
    68e7:	92 07 
    68e9:	66 c7 85 08 ef ff ff 	movw   $0x7ec,-0x10f8(%rbp)
    68f0:	ec 07 
    68f2:	66 c7 85 0a ef ff ff 	movw   $0xec92,-0x10f6(%rbp)
    68f9:	92 ec 
    68fb:	66 c7 85 0c ef ff ff 	movw   $0x101,-0x10f4(%rbp)
    6902:	01 01 
    6904:	66 c7 85 0e ef ff ff 	movw   $0xec01,-0x10f2(%rbp)
    690b:	01 ec 
    690d:	66 c7 85 10 ef ff ff 	movw   $0x792,-0x10f0(%rbp)
    6914:	92 07 
    6916:	66 c7 85 12 ef ff ff 	movw   $0x7ec,-0x10ee(%rbp)
    691d:	ec 07 
    691f:	c6 85 9c eb ff ff fd 	movb   $0xfd,-0x1464(%rbp)
    6926:	c7 85 cc eb ff ff ff 	movl   $0xffffffff,-0x1434(%rbp)
    692d:	ff ff ff 
    6930:	c7 85 e0 ee ff ff cb 	movl   $0x1785e4cb,-0x1120(%rbp)
    6937:	e4 85 17 
    693a:	c7 85 e4 ee ff ff cb 	movl   $0x1785e4cb,-0x111c(%rbp)
    6941:	e4 85 17 
    6944:	c7 85 e8 ee ff ff cb 	movl   $0x1785e4cb,-0x1118(%rbp)
    694b:	e4 85 17 
    694e:	c7 85 ec ee ff ff cb 	movl   $0x1785e4cb,-0x1114(%rbp)
    6955:	e4 85 17 
    6958:	48 b8 01 c8 27 c3 aa 	movabs $0xf510ffaac327c801,%rax
    695f:	ff 10 f5 
    6962:	48 89 85 10 ed ff ff 	mov    %rax,-0x12f0(%rbp)
    6969:	c7 85 08 ec ff ff 7a 	movl   $0xcf862a7a,-0x13f8(%rbp)
    6970:	2a 86 cf 
    6973:	66 c7 85 a2 eb ff ff 	movw   $0x2c73,-0x145e(%rbp)
    697a:	73 2c 
    697c:	48 b8 6d 9b 60 f0 79 	movabs $0xa2126a79f0609b6d,%rax
    6983:	6a 12 a2 
    6986:	48 89 85 a0 ef ff ff 	mov    %rax,-0x1060(%rbp)
    698d:	48 89 85 a8 ef ff ff 	mov    %rax,-0x1058(%rbp)
    6994:	48 bb 9f 29 19 26 e7 	movabs $0xef8e83e72619299f,%rbx
    699b:	83 8e ef 
    699e:	48 89 9d b0 ef ff ff 	mov    %rbx,-0x1050(%rbp)
    69a5:	48 89 85 b8 ef ff ff 	mov    %rax,-0x1048(%rbp)
    69ac:	48 89 85 c0 ef ff ff 	mov    %rax,-0x1040(%rbp)
    69b3:	48 89 9d c8 ef ff ff 	mov    %rbx,-0x1038(%rbp)
    69ba:	48 c7 85 18 ed ff ff 	movq   $0x0,-0x12e8(%rbp)
    69c1:	00 00 00 00 
    69c5:	c6 85 9d eb ff ff 43 	movb   $0x43,-0x1463(%rbp)
    69cc:	c7 85 0c ec ff ff 8d 	movl   $0xf49a8f8d,-0x13f4(%rbp)
    69d3:	8f 9a f4 
    69d6:	c7 85 d0 eb ff ff 12 	movl   $0x11251512,-0x1430(%rbp)
    69dd:	15 25 11 
    69e0:	48 c7 85 20 ed ff ff 	movq   $0x7,-0x12e0(%rbp)
    69e7:	07 00 00 00 
    69eb:	c6 85 9e eb ff ff ff 	movb   $0xff,-0x1462(%rbp)
    69f2:	48 c7 85 28 ed ff ff 	movq   $0x1,-0x12d8(%rbp)
    69f9:	01 00 00 00 
    69fd:	c7 85 10 ec ff ff 2c 	movl   $0xba69ba2c,-0x13f0(%rbp)
    6a04:	ba 69 ba 
    6a07:	c7 85 60 ef ff ff 01 	movl   $0x1,-0x10a0(%rbp)
    6a0e:	00 00 00 
    6a11:	c7 85 64 ef ff ff 01 	movl   $0x1,-0x109c(%rbp)
    6a18:	00 00 00 
    6a1b:	c7 85 68 ef ff ff 01 	movl   $0x1,-0x1098(%rbp)
    6a22:	00 00 00 
    6a25:	c7 85 6c ef ff ff 01 	movl   $0x1,-0x1094(%rbp)
    6a2c:	00 00 00 
    6a2f:	c7 85 70 ef ff ff 01 	movl   $0x1,-0x1090(%rbp)
    6a36:	00 00 00 
    6a39:	c7 85 74 ef ff ff 01 	movl   $0x1,-0x108c(%rbp)
    6a40:	00 00 00 
    6a43:	c7 85 78 ef ff ff 01 	movl   $0x1,-0x1088(%rbp)
    6a4a:	00 00 00 
    6a4d:	c6 85 9f eb ff ff 89 	movb   $0x89,-0x1461(%rbp)
    6a54:	c7 85 14 ec ff ff 7c 	movl   $0x8075297c,-0x13ec(%rbp)
    6a5b:	29 75 80 
    6a5e:	48 8d 05 0b c0 00 00 	lea    0xc00b(%rip),%rax        # 12a70 <g_1398>
    6a65:	48 89 85 40 f0 ff ff 	mov    %rax,-0xfc0(%rbp)
    6a6c:	48 c7 85 48 f0 ff ff 	movq   $0x0,-0xfb8(%rbp)
    6a73:	00 00 00 00 
    6a77:	48 8d 05 f2 bf 00 00 	lea    0xbff2(%rip),%rax        # 12a70 <g_1398>
    6a7e:	48 89 85 50 f0 ff ff 	mov    %rax,-0xfb0(%rbp)
    6a85:	48 8d 05 e4 bf 00 00 	lea    0xbfe4(%rip),%rax        # 12a70 <g_1398>
    6a8c:	48 89 85 58 f0 ff ff 	mov    %rax,-0xfa8(%rbp)
    6a93:	48 8d 05 d6 bf 00 00 	lea    0xbfd6(%rip),%rax        # 12a70 <g_1398>
    6a9a:	48 89 85 60 f0 ff ff 	mov    %rax,-0xfa0(%rbp)
    6aa1:	48 c7 85 68 f0 ff ff 	movq   $0x0,-0xf98(%rbp)
    6aa8:	00 00 00 00 
    6aac:	48 c7 85 70 f0 ff ff 	movq   $0x0,-0xf90(%rbp)
    6ab3:	00 00 00 00 
    6ab7:	48 8d 05 b2 bf 00 00 	lea    0xbfb2(%rip),%rax        # 12a70 <g_1398>
    6abe:	48 89 85 78 f0 ff ff 	mov    %rax,-0xf88(%rbp)
    6ac5:	48 c7 85 80 f0 ff ff 	movq   $0x0,-0xf80(%rbp)
    6acc:	00 00 00 00 
    6ad0:	48 8d 05 99 bf 00 00 	lea    0xbf99(%rip),%rax        # 12a70 <g_1398>
    6ad7:	48 89 85 88 f0 ff ff 	mov    %rax,-0xf78(%rbp)
    6ade:	48 8d 05 8b bf 00 00 	lea    0xbf8b(%rip),%rax        # 12a70 <g_1398>
    6ae5:	48 89 85 90 f0 ff ff 	mov    %rax,-0xf70(%rbp)
    6aec:	48 8d 05 7d bf 00 00 	lea    0xbf7d(%rip),%rax        # 12a70 <g_1398>
    6af3:	48 89 85 98 f0 ff ff 	mov    %rax,-0xf68(%rbp)
    6afa:	48 c7 85 a0 f0 ff ff 	movq   $0x0,-0xf60(%rbp)
    6b01:	00 00 00 00 
    6b05:	48 8d 05 64 bf 00 00 	lea    0xbf64(%rip),%rax        # 12a70 <g_1398>
    6b0c:	48 89 85 a8 f0 ff ff 	mov    %rax,-0xf58(%rbp)
    6b13:	48 c7 85 b0 f0 ff ff 	movq   $0x0,-0xf50(%rbp)
    6b1a:	00 00 00 00 
    6b1e:	48 8d 05 4b bf 00 00 	lea    0xbf4b(%rip),%rax        # 12a70 <g_1398>
    6b25:	48 89 85 b8 f0 ff ff 	mov    %rax,-0xf48(%rbp)
    6b2c:	48 8d 05 3d bf 00 00 	lea    0xbf3d(%rip),%rax        # 12a70 <g_1398>
    6b33:	48 89 85 c0 f0 ff ff 	mov    %rax,-0xf40(%rbp)
    6b3a:	48 8d 05 2f bf 00 00 	lea    0xbf2f(%rip),%rax        # 12a70 <g_1398>
    6b41:	48 89 85 c8 f0 ff ff 	mov    %rax,-0xf38(%rbp)
    6b48:	48 8d 05 21 bf 00 00 	lea    0xbf21(%rip),%rax        # 12a70 <g_1398>
    6b4f:	48 89 85 d0 f0 ff ff 	mov    %rax,-0xf30(%rbp)
    6b56:	48 8d 05 13 bf 00 00 	lea    0xbf13(%rip),%rax        # 12a70 <g_1398>
    6b5d:	48 89 85 d8 f0 ff ff 	mov    %rax,-0xf28(%rbp)
    6b64:	48 8d 05 05 bf 00 00 	lea    0xbf05(%rip),%rax        # 12a70 <g_1398>
    6b6b:	48 89 85 e0 f0 ff ff 	mov    %rax,-0xf20(%rbp)
    6b72:	48 8d 05 f7 be 00 00 	lea    0xbef7(%rip),%rax        # 12a70 <g_1398>
    6b79:	48 89 85 e8 f0 ff ff 	mov    %rax,-0xf18(%rbp)
    6b80:	48 8d 05 e9 be 00 00 	lea    0xbee9(%rip),%rax        # 12a70 <g_1398>
    6b87:	48 89 85 f0 f0 ff ff 	mov    %rax,-0xf10(%rbp)
    6b8e:	48 8d 05 db be 00 00 	lea    0xbedb(%rip),%rax        # 12a70 <g_1398>
    6b95:	48 89 85 f8 f0 ff ff 	mov    %rax,-0xf08(%rbp)
    6b9c:	48 8d 05 cd be 00 00 	lea    0xbecd(%rip),%rax        # 12a70 <g_1398>
    6ba3:	48 89 85 00 f1 ff ff 	mov    %rax,-0xf00(%rbp)
    6baa:	48 8d 05 bf be 00 00 	lea    0xbebf(%rip),%rax        # 12a70 <g_1398>
    6bb1:	48 89 85 08 f1 ff ff 	mov    %rax,-0xef8(%rbp)
    6bb8:	48 8d 05 b1 be 00 00 	lea    0xbeb1(%rip),%rax        # 12a70 <g_1398>
    6bbf:	48 89 85 10 f1 ff ff 	mov    %rax,-0xef0(%rbp)
    6bc6:	48 8d 05 a3 be 00 00 	lea    0xbea3(%rip),%rax        # 12a70 <g_1398>
    6bcd:	48 89 85 18 f1 ff ff 	mov    %rax,-0xee8(%rbp)
    6bd4:	48 8d 85 40 f0 ff ff 	lea    -0xfc0(%rbp),%rax
    6bdb:	48 83 c0 60          	add    $0x60,%rax
    6bdf:	48 89 85 d0 ef ff ff 	mov    %rax,-0x1030(%rbp)
    6be6:	48 8d 85 40 f0 ff ff 	lea    -0xfc0(%rbp),%rax
    6bed:	48 83 c0 48          	add    $0x48,%rax
    6bf1:	48 89 85 d8 ef ff ff 	mov    %rax,-0x1028(%rbp)
    6bf8:	48 8d 85 40 f0 ff ff 	lea    -0xfc0(%rbp),%rax
    6bff:	48 83 c0 60          	add    $0x60,%rax
    6c03:	48 89 85 e0 ef ff ff 	mov    %rax,-0x1020(%rbp)
    6c0a:	48 8d 85 40 f0 ff ff 	lea    -0xfc0(%rbp),%rax
    6c11:	48 83 c0 60          	add    $0x60,%rax
    6c15:	48 89 85 e8 ef ff ff 	mov    %rax,-0x1018(%rbp)
    6c1c:	48 8d 85 40 f0 ff ff 	lea    -0xfc0(%rbp),%rax
    6c23:	48 83 c0 48          	add    $0x48,%rax
    6c27:	48 89 85 f0 ef ff ff 	mov    %rax,-0x1010(%rbp)
    6c2e:	48 8d 85 40 f0 ff ff 	lea    -0xfc0(%rbp),%rax
    6c35:	48 83 c0 60          	add    $0x60,%rax
    6c39:	48 89 85 f8 ef ff ff 	mov    %rax,-0x1008(%rbp)
    6c40:	c7 85 18 ec ff ff ae 	movl   $0xe2bdc7ae,-0x13e8(%rbp)
    6c47:	c7 bd e2 
    6c4a:	c7 85 1c ec ff ff fd 	movl   $0xfffffffd,-0x13e4(%rbp)
    6c51:	ff ff ff 
    6c54:	c7 85 20 ec ff ff 03 	movl   $0x3,-0x13e0(%rbp)
    6c5b:	00 00 00 
    6c5e:	c7 85 d4 eb ff ff 00 	movl   $0x0,-0x142c(%rbp)
    6c65:	00 00 00 
    6c68:	eb 19                	jmp    6c83 <func_1+0x4ce>
    6c6a:	8b 85 d4 eb ff ff    	mov    -0x142c(%rbp),%eax
    6c70:	48 98                	cltq   
    6c72:	66 c7 84 45 dc ee ff 	movw   $0xf4f3,-0x1124(%rbp,%rax,2)
    6c79:	ff f3 f4 
    6c7c:	83 85 d4 eb ff ff 01 	addl   $0x1,-0x142c(%rbp)
    6c83:	83 bd d4 eb ff ff 01 	cmpl   $0x1,-0x142c(%rbp)
    6c8a:	7e de                	jle    6c6a <func_1+0x4b5>
    6c8c:	c7 85 d4 eb ff ff 00 	movl   $0x0,-0x142c(%rbp)
    6c93:	00 00 00 
    6c96:	eb 1a                	jmp    6cb2 <func_1+0x4fd>
    6c98:	8b 85 d4 eb ff ff    	mov    -0x142c(%rbp),%eax
    6c9e:	48 98                	cltq   
    6ca0:	c7 84 85 40 ef ff ff 	movl   $0x0,-0x10c0(%rbp,%rax,4)
    6ca7:	00 00 00 00 
    6cab:	83 85 d4 eb ff ff 01 	addl   $0x1,-0x142c(%rbp)
    6cb2:	83 bd d4 eb ff ff 06 	cmpl   $0x6,-0x142c(%rbp)
    6cb9:	7e dd                	jle    6c98 <func_1+0x4e3>
    6cbb:	48 8b 85 f8 ec ff ff 	mov    -0x1308(%rbp),%rax
    6cc2:	48 c7 00 00 00 00 00 	movq   $0x0,(%rax)
    6cc9:	c7 05 51 a3 00 00 1d 	movl   $0x1d,0xa351(%rip)        # 11024 <g_4>
    6cd0:	00 00 00 
    6cd3:	e9 2f 04 00 00       	jmpq   7107 <func_1+0x952>
    6cd8:	c7 85 94 ec ff ff 01 	movl   $0x1,-0x136c(%rbp)
    6cdf:	00 00 00 
    6ce2:	66 c7 85 ac eb ff ff 	movw   $0x519c,-0x1454(%rbp)
    6ce9:	9c 51 
    6ceb:	c7 85 98 ec ff ff 01 	movl   $0x1,-0x1368(%rbp)
    6cf2:	00 00 00 
    6cf5:	48 8d 85 b8 eb ff ff 	lea    -0x1448(%rbp),%rax
    6cfc:	48 89 85 48 ee ff ff 	mov    %rax,-0x11b8(%rbp)
    6d03:	66 c7 85 ae eb ff ff 	movw   $0x3a03,-0x1452(%rbp)
    6d0a:	03 3a 
    6d0c:	c7 85 9c ec ff ff 24 	movl   $0xf2419624,-0x1364(%rbp)
    6d13:	96 41 f2 
    6d16:	c7 85 a0 ec ff ff 00 	movl   $0x0,-0x1360(%rbp)
    6d1d:	00 00 00 
    6d20:	c7 85 a4 ec ff ff 2d 	movl   $0xa162d2d,-0x135c(%rbp)
    6d27:	2d 16 0a 
    6d2a:	c7 85 a8 ec ff ff 35 	movl   $0xafe1ce35,-0x1358(%rbp)
    6d31:	ce e1 af 
    6d34:	c7 85 ac ec ff ff 7a 	movl   $0x863f9a7a,-0x1354(%rbp)
    6d3b:	9a 3f 86 
    6d3e:	48 c7 85 50 ee ff ff 	movq   $0x1,-0x11b0(%rbp)
    6d45:	01 00 00 00 
    6d49:	c7 85 b0 ec ff ff 0b 	movl   $0xfda3630b,-0x1350(%rbp)
    6d50:	63 a3 fd 
    6d53:	48 c7 85 58 ee ff ff 	movq   $0x0,-0x11a8(%rbp)
    6d5a:	00 00 00 00 
    6d5e:	48 c7 85 60 ee ff ff 	movq   $0x0,-0x11a0(%rbp)
    6d65:	00 00 00 00 
    6d69:	48 c7 85 68 ee ff ff 	movq   $0x0,-0x1198(%rbp)
    6d70:	00 00 00 00 
    6d74:	66 c7 85 b0 eb ff ff 	movw   $0x1,-0x1450(%rbp)
    6d7b:	01 00 
    6d7d:	c7 85 d8 eb ff ff 00 	movl   $0x0,-0x1428(%rbp)
    6d84:	00 00 00 
    6d87:	eb 1a                	jmp    6da3 <func_1+0x5ee>
    6d89:	8b 85 d8 eb ff ff    	mov    -0x1428(%rbp),%eax
    6d8f:	48 98                	cltq   
    6d91:	c7 84 85 f0 ee ff ff 	movl   $0x0,-0x1110(%rbp,%rax,4)
    6d98:	00 00 00 00 
    6d9c:	83 85 d8 eb ff ff 01 	addl   $0x1,-0x1428(%rbp)
    6da3:	83 bd d8 eb ff ff 01 	cmpl   $0x1,-0x1428(%rbp)
    6daa:	7e dd                	jle    6d89 <func_1+0x5d4>
    6dac:	48 8b 05 cd b2 00 00 	mov    0xb2cd(%rip),%rax        # 12080 <g_7>
    6db3:	8b 15 6b a2 00 00    	mov    0xa26b(%rip),%edx        # 11024 <g_4>
    6db9:	89 10                	mov    %edx,(%rax)
    6dbb:	c7 05 63 a2 00 00 00 	movl   $0x0,0xa263(%rip)        # 11028 <g_8>
    6dc2:	00 00 00 
    6dc5:	e9 11 03 00 00       	jmpq   70db <func_1+0x926>
    6dca:	48 8d 05 93 a2 00 00 	lea    0xa293(%rip),%rax        # 11064 <g_13+0x24>
    6dd1:	48 89 85 e8 ec ff ff 	mov    %rax,-0x1318(%rbp)
    6dd8:	c7 85 b4 ec ff ff 00 	movl   $0x0,-0x134c(%rbp)
    6ddf:	00 00 00 
    6de2:	48 c7 85 70 ee ff ff 	movq   $0x0,-0x1190(%rbp)
    6de9:	00 00 00 00 
    6ded:	48 8d 05 b4 ca 00 00 	lea    0xcab4(%rip),%rax        # 138a8 <g_25>
    6df4:	48 89 85 78 ee ff ff 	mov    %rax,-0x1188(%rbp)
    6dfb:	48 8d 05 a6 a2 00 00 	lea    0xa2a6(%rip),%rax        # 110a8 <g_170>
    6e02:	48 89 85 80 ee ff ff 	mov    %rax,-0x1180(%rbp)
    6e09:	48 c7 85 88 ee ff ff 	movq   $0x0,-0x1178(%rbp)
    6e10:	00 00 00 00 
    6e14:	48 8d 05 85 a2 00 00 	lea    0xa285(%rip),%rax        # 110a0 <g_165>
    6e1b:	48 89 85 90 ee ff ff 	mov    %rax,-0x1170(%rbp)
    6e22:	48 8d 05 9f a2 00 00 	lea    0xa29f(%rip),%rax        # 110c8 <g_584>
    6e29:	48 89 85 98 ee ff ff 	mov    %rax,-0x1168(%rbp)
    6e30:	48 8d 05 e1 a2 00 00 	lea    0xa2e1(%rip),%rax        # 11118 <g_1367>
    6e37:	48 89 85 a0 ee ff ff 	mov    %rax,-0x1160(%rbp)
    6e3e:	48 8d 05 db a2 00 00 	lea    0xa2db(%rip),%rax        # 11120 <g_1369>
    6e45:	48 89 85 a8 ee ff ff 	mov    %rax,-0x1158(%rbp)
    6e4c:	48 8d 85 e8 ec ff ff 	lea    -0x1318(%rbp),%rax
    6e53:	48 89 85 b0 ee ff ff 	mov    %rax,-0x1150(%rbp)
    6e5a:	66 c7 85 b2 eb ff ff 	movw   $0xd3d3,-0x144e(%rbp)
    6e61:	d3 d3 
    6e63:	48 8d 05 a4 a2 00 00 	lea    0xa2a4(%rip),%rax        # 1110e <g_1262>
    6e6a:	48 89 85 b8 ee ff ff 	mov    %rax,-0x1148(%rbp)
    6e71:	48 8d 85 80 f9 ff ff 	lea    -0x680(%rbp),%rax
    6e78:	48 8d 15 01 62 00 00 	lea    0x6201(%rip),%rdx        # d080 <g_599+0x20>
    6e7f:	b9 b4 00 00 00       	mov    $0xb4,%ecx
    6e84:	48 89 c7             	mov    %rax,%rdi
    6e87:	48 89 d6             	mov    %rdx,%rsi
    6e8a:	f3 48 a5             	rep movsq %ds:(%rsi),%es:(%rdi)
    6e8d:	c7 85 b8 ec ff ff ff 	movl   $0xffffffff,-0x1348(%rbp)
    6e94:	ff ff ff 
    6e97:	c7 85 bc ec ff ff ec 	movl   $0xc75023ec,-0x1344(%rbp)
    6e9e:	23 50 c7 
    6ea1:	48 8d 85 20 f1 ff ff 	lea    -0xee0(%rbp),%rax
    6ea8:	48 8d 15 71 67 00 00 	lea    0x6771(%rip),%rdx        # d620 <g_599+0x5c0>
    6eaf:	b9 46 00 00 00       	mov    $0x46,%ecx
    6eb4:	48 89 c7             	mov    %rax,%rdi
    6eb7:	48 89 d6             	mov    %rdx,%rsi
    6eba:	f3 48 a5             	rep movsq %ds:(%rsi),%es:(%rdi)
    6ebd:	66 c7 85 b4 eb ff ff 	movw   $0xfd12,-0x144c(%rbp)
    6ec4:	12 fd 
    6ec6:	48 b8 02 d6 1d 17 5f 	movabs $0x58bf905f171dd602,%rax
    6ecd:	90 bf 58 
    6ed0:	48 89 85 c0 ee ff ff 	mov    %rax,-0x1140(%rbp)
    6ed7:	66 c7 85 b6 eb ff ff 	movw   $0xb7c7,-0x144a(%rbp)
    6ede:	c7 b7 
    6ee0:	c7 85 dc eb ff ff 00 	movl   $0x0,-0x1424(%rbp)
    6ee7:	00 00 00 
    6eea:	eb 1e                	jmp    6f0a <func_1+0x755>
    6eec:	8b 85 dc eb ff ff    	mov    -0x1424(%rbp),%eax
    6ef2:	48 98                	cltq   
    6ef4:	48 8d 15 2d a2 00 00 	lea    0xa22d(%rip),%rdx        # 11128 <g_1434>
    6efb:	48 89 94 c5 80 ef ff 	mov    %rdx,-0x1080(%rbp,%rax,8)
    6f02:	ff 
    6f03:	83 85 dc eb ff ff 01 	addl   $0x1,-0x1424(%rbp)
    6f0a:	83 bd dc eb ff ff 02 	cmpl   $0x2,-0x1424(%rbp)
    6f11:	7e d9                	jle    6eec <func_1+0x737>
    6f13:	8b 05 0f a1 00 00    	mov    0xa10f(%rip),%eax        # 11028 <g_8>
    6f19:	48 98                	cltq   
    6f1b:	8b 84 85 20 ef ff ff 	mov    -0x10e0(%rbp,%rax,4),%eax
    6f22:	0f b7 c8             	movzwl %ax,%ecx
    6f25:	48 8b 85 e8 ec ff ff 	mov    -0x1318(%rbp),%rax
    6f2c:	0f b7 10             	movzwl (%rax),%edx
    6f2f:	8d 72 ff             	lea    -0x1(%rdx),%esi
    6f32:	66 89 30             	mov    %si,(%rax)
    6f35:	0f b7 c2             	movzwl %dx,%eax
    6f38:	89 ce                	mov    %ecx,%esi
    6f3a:	89 c7                	mov    %eax,%edi
    6f3c:	e8 fc ed ff ff       	callq  5d3d <safe_mul_func_uint16_t_u_u>
    6f41:	89 c2                	mov    %eax,%edx
    6f43:	48 8b 05 3e b1 00 00 	mov    0xb13e(%rip),%rax        # 12088 <g_16>
    6f4a:	0f b7 d2             	movzwl %dx,%edx
    6f4d:	89 10                	mov    %edx,(%rax)
    6f4f:	c7 05 1f a1 00 00 02 	movl   $0x2,0xa11f(%rip)        # 11078 <g_17>
    6f56:	00 00 00 
    6f59:	e9 60 01 00 00       	jmpq   70be <func_1+0x909>
    6f5e:	48 8d 05 c3 a0 00 00 	lea    0xa0c3(%rip),%rax        # 11028 <g_8>
    6f65:	48 89 85 c8 ee ff ff 	mov    %rax,-0x1138(%rbp)
    6f6c:	48 8d 85 90 f5 ff ff 	lea    -0xa70(%rbp),%rax
    6f73:	48 8d 15 e6 68 00 00 	lea    0x68e6(%rip),%rdx        # d860 <g_599+0x800>
    6f7a:	b9 7e 00 00 00       	mov    $0x7e,%ecx
    6f7f:	48 89 c7             	mov    %rax,%rdi
    6f82:	48 89 d6             	mov    %rdx,%rsi
    6f85:	f3 48 a5             	rep movsq %ds:(%rsi),%es:(%rdi)
    6f88:	8b 05 9a a0 00 00    	mov    0xa09a(%rip),%eax        # 11028 <g_8>
    6f8e:	48 98                	cltq   
    6f90:	8b 84 85 20 ef ff ff 	mov    -0x10e0(%rbp,%rax,4),%eax
    6f97:	85 c0                	test   %eax,%eax
    6f99:	74 3a                	je     6fd5 <func_1+0x820>
    6f9b:	8b 05 87 a0 00 00    	mov    0xa087(%rip),%eax        # 11028 <g_8>
    6fa1:	8d 50 02             	lea    0x2(%rax),%edx
    6fa4:	8b 05 ce a0 00 00    	mov    0xa0ce(%rip),%eax        # 11078 <g_17>
    6faa:	48 63 c8             	movslq %eax,%rcx
    6fad:	48 63 d2             	movslq %edx,%rdx
    6fb0:	48 89 d0             	mov    %rdx,%rax
    6fb3:	48 01 c0             	add    %rax,%rax
    6fb6:	48 01 d0             	add    %rdx,%rax
    6fb9:	48 01 c8             	add    %rcx,%rax
    6fbc:	48 8d 14 00          	lea    (%rax,%rax,1),%rdx
    6fc0:	48 8d 05 79 a0 00 00 	lea    0xa079(%rip),%rax        # 11040 <g_13>
    6fc7:	0f b7 04 02          	movzwl (%rdx,%rax,1),%eax
    6fcb:	66 85 c0             	test   %ax,%ax
    6fce:	74 11                	je     6fe1 <func_1+0x82c>
    6fd0:	e9 f7 00 00 00       	jmpq   70cc <func_1+0x917>
    6fd5:	0f b7 05 88 a0 00 00 	movzwl 0xa088(%rip),%eax        # 11064 <g_13+0x24>
    6fdc:	e9 46 20 00 00       	jmpq   9027 <func_1+0x2872>
    6fe1:	48 8b 85 f8 ec ff ff 	mov    -0x1308(%rbp),%rax
    6fe8:	48 8b 95 c8 ee ff ff 	mov    -0x1138(%rbp),%rdx
    6fef:	48 89 10             	mov    %rdx,(%rax)
    6ff2:	48 8b 05 8f b0 00 00 	mov    0xb08f(%rip),%rax        # 12088 <g_16>
    6ff9:	8b 00                	mov    (%rax),%eax
    6ffb:	85 c0                	test   %eax,%eax
    6ffd:	0f 84 af 00 00 00    	je     70b2 <func_1+0x8fd>
    7003:	c7 85 e0 ec ff ff 00 	movl   $0x0,-0x1320(%rbp)
    700a:	00 00 00 
    700d:	48 8d 85 90 f5 ff ff 	lea    -0xa70(%rbp),%rax
    7014:	48 05 a8 00 00 00    	add    $0xa8,%rax
    701a:	48 89 85 d0 ee ff ff 	mov    %rax,-0x1130(%rbp)
    7021:	48 8d 05 50 a0 00 00 	lea    0xa050(%rip),%rax        # 11078 <g_17>
    7028:	48 89 85 00 f0 ff ff 	mov    %rax,-0x1000(%rbp)
    702f:	48 8d 05 42 a0 00 00 	lea    0xa042(%rip),%rax        # 11078 <g_17>
    7036:	48 89 85 08 f0 ff ff 	mov    %rax,-0xff8(%rbp)
    703d:	48 8d 05 e0 9f 00 00 	lea    0x9fe0(%rip),%rax        # 11024 <g_4>
    7044:	48 89 85 10 f0 ff ff 	mov    %rax,-0xff0(%rbp)
    704b:	48 8d 05 26 a0 00 00 	lea    0xa026(%rip),%rax        # 11078 <g_17>
    7052:	48 89 85 18 f0 ff ff 	mov    %rax,-0xfe8(%rbp)
    7059:	48 8d 05 18 a0 00 00 	lea    0xa018(%rip),%rax        # 11078 <g_17>
    7060:	48 89 85 20 f0 ff ff 	mov    %rax,-0xfe0(%rbp)
    7067:	48 8d 85 e0 ec ff ff 	lea    -0x1320(%rbp),%rax
    706e:	48 89 85 28 f0 ff ff 	mov    %rax,-0xfd8(%rbp)
    7075:	48 8d 85 e0 ec ff ff 	lea    -0x1320(%rbp),%rax
    707c:	48 89 85 30 f0 ff ff 	mov    %rax,-0xfd0(%rbp)
    7083:	48 8d 05 ee 9f 00 00 	lea    0x9fee(%rip),%rax        # 11078 <g_17>
    708a:	48 89 85 38 f0 ff ff 	mov    %rax,-0xfc8(%rbp)
    7091:	0f b6 05 10 c8 00 00 	movzbl 0xc810(%rip),%eax        # 138a8 <g_25>
    7098:	83 e8 01             	sub    $0x1,%eax
    709b:	88 05 07 c8 00 00    	mov    %al,0xc807(%rip)        # 138a8 <g_25>
    70a1:	8b 05 d1 9f 00 00    	mov    0x9fd1(%rip),%eax        # 11078 <g_17>
    70a7:	83 e8 01             	sub    $0x1,%eax
    70aa:	89 05 c8 9f 00 00    	mov    %eax,0x9fc8(%rip)        # 11078 <g_17>
    70b0:	eb 0c                	jmp    70be <func_1+0x909>
    70b2:	0f b7 05 8f 9f 00 00 	movzwl 0x9f8f(%rip),%eax        # 11048 <g_13+0x8>
    70b9:	e9 69 1f 00 00       	jmpq   9027 <func_1+0x2872>
    70be:	8b 05 b4 9f 00 00    	mov    0x9fb4(%rip),%eax        # 11078 <g_17>
    70c4:	85 c0                	test   %eax,%eax
    70c6:	0f 89 92 fe ff ff    	jns    6f5e <func_1+0x7a9>
    70cc:	8b 05 56 9f 00 00    	mov    0x9f56(%rip),%eax        # 11028 <g_8>
    70d2:	83 c0 01             	add    $0x1,%eax
    70d5:	89 05 4d 9f 00 00    	mov    %eax,0x9f4d(%rip)        # 11028 <g_8>
    70db:	8b 05 47 9f 00 00    	mov    0x9f47(%rip),%eax        # 11028 <g_8>
    70e1:	83 f8 06             	cmp    $0x6,%eax
    70e4:	0f 8e e0 fc ff ff    	jle    6dca <func_1+0x615>
    70ea:	48 8b 85 f8 ec ff ff 	mov    -0x1308(%rbp),%rax
    70f1:	48 c7 00 00 00 00 00 	movq   $0x0,(%rax)
    70f8:	8b 05 26 9f 00 00    	mov    0x9f26(%rip),%eax        # 11024 <g_4>
    70fe:	83 e8 01             	sub    $0x1,%eax
    7101:	89 05 1d 9f 00 00    	mov    %eax,0x9f1d(%rip)        # 11024 <g_4>
    7107:	8b 05 17 9f 00 00    	mov    0x9f17(%rip),%eax        # 11024 <g_4>
    710d:	83 f8 1a             	cmp    $0x1a,%eax
    7110:	0f 8e c2 fb ff ff    	jle    6cd8 <func_1+0x523>
    7116:	c7 85 b8 eb ff ff 13 	movl   $0x13,-0x1448(%rbp)
    711d:	00 00 00 
    7120:	eb 64                	jmp    7186 <func_1+0x9d1>
    7122:	c6 05 7f c7 00 00 00 	movb   $0x0,0xc77f(%rip)        # 138a8 <g_25>
    7129:	eb 36                	jmp    7161 <func_1+0x9ac>
    712b:	8b 0d 03 a0 00 00    	mov    0xa003(%rip),%ecx        # 11134 <g_1666>
    7131:	48 8b 05 28 b4 00 00 	mov    0xb428(%rip),%rax        # 12560 <g_635>
    7138:	8b 10                	mov    (%rax),%edx
    713a:	48 8b 05 1f b4 00 00 	mov    0xb41f(%rip),%rax        # 12560 <g_635>
    7141:	31 ca                	xor    %ecx,%edx
    7143:	89 10                	mov    %edx,(%rax)
    7145:	0f b6 05 5c c7 00 00 	movzbl 0xc75c(%rip),%eax        # 138a8 <g_25>
    714c:	0f be c0             	movsbl %al,%eax
    714f:	be 01 00 00 00       	mov    $0x1,%esi
    7154:	89 c7                	mov    %eax,%edi
    7156:	e8 79 e0 ff ff       	callq  51d4 <safe_add_func_int8_t_s_s>
    715b:	88 05 47 c7 00 00    	mov    %al,0xc747(%rip)        # 138a8 <g_25>
    7161:	0f b6 05 40 c7 00 00 	movzbl 0xc740(%rip),%eax        # 138a8 <g_25>
    7168:	3c 24                	cmp    $0x24,%al
    716a:	76 bf                	jbe    712b <func_1+0x976>
    716c:	8b 85 b8 eb ff ff    	mov    -0x1448(%rbp),%eax
    7172:	98                   	cwtl   
    7173:	be 04 00 00 00       	mov    $0x4,%esi
    7178:	89 c7                	mov    %eax,%edi
    717a:	e8 54 e2 ff ff       	callq  53d3 <safe_sub_func_int16_t_s_s>
    717f:	98                   	cwtl   
    7180:	89 85 b8 eb ff ff    	mov    %eax,-0x1448(%rbp)
    7186:	8b 85 b8 eb ff ff    	mov    -0x1448(%rbp),%eax
    718c:	83 f8 01             	cmp    $0x1,%eax
    718f:	74 91                	je     7122 <func_1+0x96d>
    7191:	48 8b 1d 40 c7 00 00 	mov    0xc740(%rip),%rbx        # 138d8 <g_143+0x18>
    7198:	8b 85 08 ec ff ff    	mov    -0x13f8(%rbp),%eax
    719e:	83 c8 5d             	or     $0x5d,%eax
    71a1:	0f be d0             	movsbl %al,%edx
    71a4:	48 8b 05 dd 75 00 00 	mov    0x75dd(%rip),%rax        # e788 <l_1683.4212+0x128>
    71ab:	89 c1                	mov    %eax,%ecx
    71ad:	8b 05 6d c7 00 00    	mov    0xc76d(%rip),%eax        # 13920 <g_631>
    71b3:	09 c8                	or     %ecx,%eax
    71b5:	0f be c0             	movsbl %al,%eax
    71b8:	89 d6                	mov    %edx,%esi
    71ba:	89 c7                	mov    %eax,%edi
    71bc:	e8 51 e0 ff ff       	callq  5212 <safe_mul_func_int8_t_s_s>
    71c1:	84 c0                	test   %al,%al
    71c3:	74 12                	je     71d7 <func_1+0xa22>
    71c5:	0f b6 85 97 eb ff ff 	movzbl -0x1469(%rbp),%eax
    71cc:	84 c0                	test   %al,%al
    71ce:	74 07                	je     71d7 <func_1+0xa22>
    71d0:	b8 01 00 00 00       	mov    $0x1,%eax
    71d5:	eb 05                	jmp    71dc <func_1+0xa27>
    71d7:	b8 00 00 00 00       	mov    $0x0,%eax
    71dc:	3d af bb 00 00       	cmp    $0xbbaf,%eax
    71e1:	0f 9e c0             	setle  %al
    71e4:	0f b6 c0             	movzbl %al,%eax
    71e7:	48 8b 15 32 9f 00 00 	mov    0x9f32(%rip),%rdx        # 11120 <g_1369>
    71ee:	48 89 c6             	mov    %rax,%rsi
    71f1:	48 89 d7             	mov    %rdx,%rdi
    71f4:	e8 52 ee ff ff       	callq  604b <safe_sub_func_uint64_t_u_u>
    71f9:	48 8b 15 c8 9e 00 00 	mov    0x9ec8(%rip),%rdx        # 110c8 <g_584>
    7200:	48 09 d0             	or     %rdx,%rax
    7203:	48 89 05 be 9e 00 00 	mov    %rax,0x9ebe(%rip)        # 110c8 <g_584>
    720a:	be ff ff ff ff       	mov    $0xffffffff,%esi
    720f:	bf 00 00 00 00       	mov    $0x0,%edi
    7214:	e8 3c e2 ff ff       	callq  5455 <safe_div_func_int16_t_s_s>
    7219:	66 85 c0             	test   %ax,%ax
    721c:	0f 9f c0             	setg   %al
    721f:	0f b6 c0             	movzbl %al,%eax
    7222:	48 89 de             	mov    %rbx,%rsi
    7225:	48 89 c7             	mov    %rax,%rdi
    7228:	e8 1e ee ff ff       	callq  604b <safe_sub_func_uint64_t_u_u>
    722d:	0f bf d0             	movswl %ax,%edx
    7230:	0f b7 05 29 9e 00 00 	movzwl 0x9e29(%rip),%eax        # 11060 <g_13+0x20>
    7237:	98                   	cwtl   
    7238:	89 d6                	mov    %edx,%esi
    723a:	89 c7                	mov    %eax,%edi
    723c:	e8 b4 e1 ff ff       	callq  53f5 <safe_mul_func_int16_t_s_s>
    7241:	0f bf d0             	movswl %ax,%edx
    7244:	48 8b 05 15 b3 00 00 	mov    0xb315(%rip),%rax        # 12560 <g_635>
    724b:	8b 00                	mov    (%rax),%eax
    724d:	21 c2                	and    %eax,%edx
    724f:	48 8b 05 12 b3 00 00 	mov    0xb312(%rip),%rax        # 12568 <g_778>
    7256:	0f b6 00             	movzbl (%rax),%eax
    7259:	0f b6 c0             	movzbl %al,%eax
    725c:	39 c2                	cmp    %eax,%edx
    725e:	0f 9f c0             	setg   %al
    7261:	0f b6 c0             	movzbl %al,%eax
    7264:	be 06 00 00 00       	mov    $0x6,%esi
    7269:	89 c7                	mov    %eax,%edi
    726b:	e8 96 eb ff ff       	callq  5e06 <safe_lshift_func_uint16_t_u_u>
    7270:	0f b7 c0             	movzwl %ax,%eax
    7273:	8b 95 e4 ee ff ff    	mov    -0x111c(%rbp),%edx
    7279:	89 c6                	mov    %eax,%esi
    727b:	89 d7                	mov    %edx,%edi
    727d:	e8 4e ec ff ff       	callq  5ed0 <safe_sub_func_uint32_t_u_u>
    7282:	85 c0                	test   %eax,%eax
    7284:	74 3f                	je     72c5 <func_1+0xb10>
    7286:	c7 85 90 ec ff ff 00 	movl   $0x0,-0x1370(%rbp)
    728d:	00 00 00 
    7290:	8b 85 90 ec ff ff    	mov    -0x1370(%rbp),%eax
    7296:	0f bf c8             	movswl %ax,%ecx
    7299:	8b 85 90 ec ff ff    	mov    -0x1370(%rbp),%eax
    729f:	0f be d0             	movsbl %al,%edx
    72a2:	48 8d b5 97 eb ff ff 	lea    -0x1469(%rbp),%rsi
    72a9:	8b 85 90 ec ff ff    	mov    -0x1370(%rbp),%eax
    72af:	89 c7                	mov    %eax,%edi
    72b1:	e8 e5 34 00 00       	callq  a79b <func_66>
    72b6:	48 8b 95 f8 ec ff ff 	mov    -0x1308(%rbp),%rdx
    72bd:	48 89 02             	mov    %rax,(%rdx)
    72c0:	e9 55 1d 00 00       	jmpq   901a <func_1+0x2865>
    72c5:	c7 85 24 ec ff ff ff 	movl   $0xffffffff,-0x13dc(%rbp)
    72cc:	ff ff ff 
    72cf:	48 c7 85 30 ed ff ff 	movq   $0x0,-0x12d0(%rbp)
    72d6:	00 00 00 00 
    72da:	48 8d 05 d7 9d 00 00 	lea    0x9dd7(%rip),%rax        # 110b8 <g_459>
    72e1:	48 89 85 38 ed ff ff 	mov    %rax,-0x12c8(%rbp)
    72e8:	48 8d 05 bf 9d 00 00 	lea    0x9dbf(%rip),%rax        # 110ae <g_211>
    72ef:	48 89 85 40 ed ff ff 	mov    %rax,-0x12c0(%rbp)
    72f6:	c7 85 c0 eb ff ff 5b 	movl   $0x8206b05b,-0x1440(%rbp)
    72fd:	b0 06 82 
    7300:	48 8d 85 c0 eb ff ff 	lea    -0x1440(%rbp),%rax
    7307:	48 89 85 20 f1 ff ff 	mov    %rax,-0xee0(%rbp)
    730e:	48 8d 05 cf 9d 00 00 	lea    0x9dcf(%rip),%rax        # 110e4 <g_1107>
    7315:	48 89 85 28 f1 ff ff 	mov    %rax,-0xed8(%rbp)
    731c:	48 8d 85 c0 eb ff ff 	lea    -0x1440(%rbp),%rax
    7323:	48 89 85 30 f1 ff ff 	mov    %rax,-0xed0(%rbp)
    732a:	48 8d 85 c0 eb ff ff 	lea    -0x1440(%rbp),%rax
    7331:	48 89 85 38 f1 ff ff 	mov    %rax,-0xec8(%rbp)
    7338:	48 8d 05 a5 9d 00 00 	lea    0x9da5(%rip),%rax        # 110e4 <g_1107>
    733f:	48 89 85 40 f1 ff ff 	mov    %rax,-0xec0(%rbp)
    7346:	48 8d 85 c0 eb ff ff 	lea    -0x1440(%rbp),%rax
    734d:	48 89 85 48 f1 ff ff 	mov    %rax,-0xeb8(%rbp)
    7354:	48 8d 85 c0 eb ff ff 	lea    -0x1440(%rbp),%rax
    735b:	48 89 85 50 f1 ff ff 	mov    %rax,-0xeb0(%rbp)
    7362:	c6 85 98 eb ff ff ff 	movb   $0xff,-0x1468(%rbp)
    7369:	48 b8 04 ee be ba e4 	movabs $0x8267ce4babeee04,%rax
    7370:	7c 26 08 
    7373:	48 89 85 f0 ec ff ff 	mov    %rax,-0x1310(%rbp)
    737a:	48 8d 05 f7 b6 00 00 	lea    0xb6f7(%rip),%rax        # 12a78 <g_1397>
    7381:	48 89 85 48 ed ff ff 	mov    %rax,-0x12b8(%rbp)
    7388:	c7 85 28 ec ff ff ff 	movl   $0xffffffff,-0x13d8(%rbp)
    738f:	ff ff ff 
    7392:	48 c7 85 50 ed ff ff 	movq   $0x9,-0x12b0(%rbp)
    7399:	09 00 00 00 
    739d:	48 c7 85 d0 ec ff ff 	movq   $0x0,-0x1330(%rbp)
    73a4:	00 00 00 00 
    73a8:	48 8d 05 99 c0 00 00 	lea    0xc099(%rip),%rax        # 13448 <g_1959>
    73af:	48 89 85 58 ed ff ff 	mov    %rax,-0x12a8(%rbp)
    73b6:	48 b8 f6 21 54 49 47 	movabs $0x7203ce47495421f6,%rax
    73bd:	ce 03 72 
    73c0:	48 89 85 60 ed ff ff 	mov    %rax,-0x12a0(%rbp)
    73c7:	c7 85 2c ec ff ff 06 	movl   $0x6,-0x13d4(%rbp)
    73ce:	00 00 00 
    73d1:	c7 85 30 ec ff ff ff 	movl   $0xffffffff,-0x13d0(%rbp)
    73d8:	ff ff ff 
    73db:	48 c7 85 68 ed ff ff 	movq   $0x0,-0x1298(%rbp)
    73e2:	00 00 00 00 
    73e6:	c6 85 a0 eb ff ff 00 	movb   $0x0,-0x1460(%rbp)
    73ed:	48 c7 85 70 ed ff ff 	movq   $0x0,-0x1290(%rbp)
    73f4:	00 00 00 00 
    73f8:	48 c7 85 78 ed ff ff 	movq   $0x0,-0x1288(%rbp)
    73ff:	00 00 00 00 
    7403:	48 8d 85 d0 ec ff ff 	lea    -0x1330(%rbp),%rax
    740a:	48 89 85 80 ed ff ff 	mov    %rax,-0x1280(%rbp)
    7411:	c7 85 f0 ee ff ff 2e 	movl   $0x9453c72e,-0x1110(%rbp)
    7418:	c7 53 94 
    741b:	c7 85 f4 ee ff ff 2e 	movl   $0x9453c72e,-0x110c(%rbp)
    7422:	c7 53 94 
    7425:	c7 85 f8 ee ff ff 2e 	movl   $0x9453c72e,-0x1108(%rbp)
    742c:	c7 53 94 
    742f:	c7 85 fc ee ff ff 2e 	movl   $0x9453c72e,-0x1104(%rbp)
    7436:	c7 53 94 
    7439:	48 8b 85 38 ed ff ff 	mov    -0x12c8(%rbp),%rax
    7440:	48 8b 18             	mov    (%rax),%rbx
    7443:	48 8d 53 01          	lea    0x1(%rbx),%rdx
    7447:	48 8b 85 38 ed ff ff 	mov    -0x12c8(%rbp),%rax
    744e:	48 89 10             	mov    %rdx,(%rax)
    7451:	48 8b 05 20 b6 00 00 	mov    0xb620(%rip),%rax        # 12a78 <g_1397>
    7458:	48 8b 00             	mov    (%rax),%rax
    745b:	0f b7 10             	movzwl (%rax),%edx
    745e:	83 c2 01             	add    $0x1,%edx
    7461:	66 89 10             	mov    %dx,(%rax)
    7464:	0f b7 00             	movzwl (%rax),%eax
    7467:	98                   	cwtl   
    7468:	89 c6                	mov    %eax,%esi
    746a:	bf 80 2a 00 00       	mov    $0x2a80,%edi
    746f:	e8 e1 df ff ff       	callq  5455 <safe_div_func_int16_t_s_s>
    7474:	98                   	cwtl   
    7475:	f7 d0                	not    %eax
    7477:	89 c6                	mov    %eax,%esi
    7479:	48 8b 05 e8 b5 00 00 	mov    0xb5e8(%rip),%rax        # 12a68 <g_870>
    7480:	48 8b 00             	mov    (%rax),%rax
    7483:	48 8b 10             	mov    (%rax),%rdx
    7486:	48 8d 85 c0 ec ff ff 	lea    -0x1340(%rbp),%rax
    748d:	48 39 c2             	cmp    %rax,%rdx
    7490:	0f 94 c0             	sete   %al
    7493:	0f b6 d0             	movzbl %al,%edx
    7496:	48 8b 05 c3 b0 00 00 	mov    0xb0c3(%rip),%rax        # 12560 <g_635>
    749d:	8b 08                	mov    (%rax),%ecx
    749f:	48 8b 05 ba b0 00 00 	mov    0xb0ba(%rip),%rax        # 12560 <g_635>
    74a6:	09 f1                	or     %esi,%ecx
    74a8:	89 08                	mov    %ecx,(%rax)
    74aa:	8b 00                	mov    (%rax),%eax
    74ac:	21 d0                	and    %edx,%eax
    74ae:	f7 d0                	not    %eax
    74b0:	89 c2                	mov    %eax,%edx
    74b2:	48 8b 85 40 ed ff ff 	mov    -0x12c0(%rbp),%rax
    74b9:	66 89 10             	mov    %dx,(%rax)
    74bc:	48 8b 85 40 ed ff ff 	mov    -0x12c0(%rbp),%rax
    74c3:	0f b7 00             	movzwl (%rax),%eax
    74c6:	98                   	cwtl   
    74c7:	89 85 24 ec ff ff    	mov    %eax,-0x13dc(%rbp)
    74cd:	b8 94 ff ff ff       	mov    $0xffffff94,%eax
    74d2:	44 0f be e0          	movsbl %al,%r12d
    74d6:	8b 85 c0 eb ff ff    	mov    -0x1440(%rbp),%eax
    74dc:	0f be c0             	movsbl %al,%eax
    74df:	be 02 00 00 00       	mov    $0x2,%esi
    74e4:	89 c7                	mov    %eax,%edi
    74e6:	e8 e9 dc ff ff       	callq  51d4 <safe_add_func_int8_t_s_s>
    74eb:	0f b6 c0             	movzbl %al,%eax
    74ee:	be 60 00 00 00       	mov    $0x60,%esi
    74f3:	89 c7                	mov    %eax,%edi
    74f5:	e8 99 e6 ff ff       	callq  5b93 <safe_mul_func_uint8_t_u_u>
    74fa:	0f b6 d0             	movzbl %al,%edx
    74fd:	48 8b 85 c0 ec ff ff 	mov    -0x1340(%rbp),%rax
    7504:	48 85 c0             	test   %rax,%rax
    7507:	0f 95 c0             	setne  %al
    750a:	0f b6 c0             	movzbl %al,%eax
    750d:	39 c2                	cmp    %eax,%edx
    750f:	0f 9e c0             	setle  %al
    7512:	0f b6 c0             	movzbl %al,%eax
    7515:	41 39 c4             	cmp    %eax,%r12d
    7518:	0f 9f c0             	setg   %al
    751b:	0f b6 c0             	movzbl %al,%eax
    751e:	39 85 24 ec ff ff    	cmp    %eax,-0x13dc(%rbp)
    7524:	0f 9e c0             	setle  %al
    7527:	0f b6 c0             	movzbl %al,%eax
    752a:	48 39 c3             	cmp    %rax,%rbx
    752d:	0f 94 c0             	sete   %al
    7530:	0f b6 c0             	movzbl %al,%eax
    7533:	89 85 e4 ee ff ff    	mov    %eax,-0x111c(%rbp)
    7539:	8b 85 e4 ee ff ff    	mov    -0x111c(%rbp),%eax
    753f:	85 c0                	test   %eax,%eax
    7541:	0f 84 ff 02 00 00    	je     7846 <func_1+0x1091>
    7547:	c7 85 80 ec ff ff f8 	movl   $0xfffffff8,-0x1380(%rbp)
    754e:	ff ff ff 
    7551:	48 8d 05 12 9b 00 00 	lea    0x9b12(%rip),%rax        # 1106a <g_13+0x2a>
    7558:	48 89 85 18 ee ff ff 	mov    %rax,-0x11e8(%rbp)
    755f:	48 8d 05 3a 9b 00 00 	lea    0x9b3a(%rip),%rax        # 110a0 <g_165>
    7566:	48 89 85 20 ee ff ff 	mov    %rax,-0x11e0(%rbp)
    756d:	c7 85 80 f9 ff ff 02 	movl   $0x2,-0x680(%rbp)
    7574:	00 00 00 
    7577:	c7 85 84 f9 ff ff 01 	movl   $0x1,-0x67c(%rbp)
    757e:	00 00 00 
    7581:	c7 85 88 f9 ff ff 02 	movl   $0x2,-0x678(%rbp)
    7588:	00 00 00 
    758b:	c7 85 8c f9 ff ff 01 	movl   $0x1,-0x674(%rbp)
    7592:	00 00 00 
    7595:	c7 85 90 f9 ff ff 02 	movl   $0x2,-0x670(%rbp)
    759c:	00 00 00 
    759f:	c7 85 94 f9 ff ff 01 	movl   $0x1,-0x66c(%rbp)
    75a6:	00 00 00 
    75a9:	c7 85 98 f9 ff ff 02 	movl   $0x2,-0x668(%rbp)
    75b0:	00 00 00 
    75b3:	c7 85 9c f9 ff ff 01 	movl   $0x1,-0x664(%rbp)
    75ba:	00 00 00 
    75bd:	c7 85 a0 f9 ff ff 02 	movl   $0x2,-0x660(%rbp)
    75c4:	00 00 00 
    75c7:	c7 85 e0 eb ff ff 00 	movl   $0x0,-0x1420(%rbp)
    75ce:	00 00 00 
    75d1:	eb 1a                	jmp    75ed <func_1+0xe38>
    75d3:	8b 85 e0 eb ff ff    	mov    -0x1420(%rbp),%eax
    75d9:	48 98                	cltq   
    75db:	c7 84 85 90 f5 ff ff 	movl   $0x1ed47ea8,-0xa70(%rbp,%rax,4)
    75e2:	a8 7e d4 1e 
    75e6:	83 85 e0 eb ff ff 01 	addl   $0x1,-0x1420(%rbp)
    75ed:	83 bd e0 eb ff ff 00 	cmpl   $0x0,-0x1420(%rbp)
    75f4:	7e dd                	jle    75d3 <func_1+0xe1e>
    75f6:	8b 85 80 ec ff ff    	mov    -0x1380(%rbp),%eax
    75fc:	4c 63 e0             	movslq %eax,%r12
    75ff:	8b 85 80 ec ff ff    	mov    -0x1380(%rbp),%eax
    7605:	48 63 d8             	movslq %eax,%rbx
    7608:	8b 85 80 ec ff ff    	mov    -0x1380(%rbp),%eax
    760e:	0f be c0             	movsbl %al,%eax
    7611:	be 06 00 00 00       	mov    $0x6,%esi
    7616:	89 c7                	mov    %eax,%edi
    7618:	e8 84 dc ff ff       	callq  52a1 <safe_lshift_func_int8_t_s_s>
    761d:	8b 05 19 9b 00 00    	mov    0x9b19(%rip),%eax        # 1113c <g_1724>
    7623:	8b 15 0f 9b 00 00    	mov    0x9b0f(%rip),%edx        # 11138 <g_1721>
    7629:	39 d0                	cmp    %edx,%eax
    762b:	76 0b                	jbe    7638 <func_1+0xe83>
    762d:	0f b6 85 98 eb ff ff 	movzbl -0x1468(%rbp),%eax
    7634:	84 c0                	test   %al,%al
    7636:	75 09                	jne    7641 <func_1+0xe8c>
    7638:	83 bd 80 ec ff ff 00 	cmpl   $0x0,-0x1380(%rbp)
    763f:	74 07                	je     7648 <func_1+0xe93>
    7641:	b8 01 00 00 00       	mov    $0x1,%eax
    7646:	eb 05                	jmp    764d <func_1+0xe98>
    7648:	b8 00 00 00 00       	mov    $0x0,%eax
    764d:	33 85 80 ec ff ff    	xor    -0x1380(%rbp),%eax
    7653:	89 c2                	mov    %eax,%edx
    7655:	48 8b 85 18 ee ff ff 	mov    -0x11e8(%rbp),%rax
    765c:	0f b7 00             	movzwl (%rax),%eax
    765f:	89 c1                	mov    %eax,%ecx
    7661:	89 d0                	mov    %edx,%eax
    7663:	09 c8                	or     %ecx,%eax
    7665:	89 c2                	mov    %eax,%edx
    7667:	48 8b 85 18 ee ff ff 	mov    -0x11e8(%rbp),%rax
    766e:	66 89 10             	mov    %dx,(%rax)
    7671:	48 8b 85 18 ee ff ff 	mov    -0x11e8(%rbp),%rax
    7678:	0f b7 00             	movzwl (%rax),%eax
    767b:	0f b7 c0             	movzwl %ax,%eax
    767e:	be 00 00 00 00       	mov    $0x0,%esi
    7683:	89 c7                	mov    %eax,%edi
    7685:	e8 f0 e7 ff ff       	callq  5e7a <safe_rshift_func_uint16_t_u_u>
    768a:	0f b7 d0             	movzwl %ax,%edx
    768d:	8b 05 91 99 00 00    	mov    0x9991(%rip),%eax        # 11024 <g_4>
    7693:	48 98                	cltq   
    7695:	48 21 c2             	and    %rax,%rdx
    7698:	48 b8 dd 6f 5d c0 fa 	movabs $0xea99eefac05d6fdd,%rax
    769f:	ee 99 ea 
    76a2:	48 21 d0             	and    %rdx,%rax
    76a5:	48 39 c3             	cmp    %rax,%rbx
    76a8:	0f 96 c0             	setbe  %al
    76ab:	0f b6 c0             	movzbl %al,%eax
    76ae:	48 63 d0             	movslq %eax,%rdx
    76b1:	48 8b 05 68 9a 00 00 	mov    0x9a68(%rip),%rax        # 11120 <g_1369>
    76b8:	48 09 d0             	or     %rdx,%rax
    76bb:	48 89 05 5e 9a 00 00 	mov    %rax,0x9a5e(%rip)        # 11120 <g_1369>
    76c2:	48 8b 05 a7 ae 00 00 	mov    0xaea7(%rip),%rax        # 12570 <g_777>
    76c9:	48 8b 00             	mov    (%rax),%rax
    76cc:	0f b6 00             	movzbl (%rax),%eax
    76cf:	3c d1                	cmp    $0xd1,%al
    76d1:	77 07                	ja     76da <func_1+0xf25>
    76d3:	ba 01 00 00 00       	mov    $0x1,%edx
    76d8:	eb 05                	jmp    76df <func_1+0xf2a>
    76da:	ba 00 00 00 00       	mov    $0x0,%edx
    76df:	48 8b 05 7a ae 00 00 	mov    0xae7a(%rip),%rax        # 12560 <g_635>
    76e6:	89 10                	mov    %edx,(%rax)
    76e8:	8b 00                	mov    (%rax),%eax
    76ea:	89 c2                	mov    %eax,%edx
    76ec:	8b 05 16 9a 00 00    	mov    0x9a16(%rip),%eax        # 11108 <g_1182+0x18>
    76f2:	39 c2                	cmp    %eax,%edx
    76f4:	0f 93 c0             	setae  %al
    76f7:	0f b6 d0             	movzbl %al,%edx
    76fa:	0f b6 05 07 c2 00 00 	movzbl 0xc207(%rip),%eax        # 13908 <g_252>
    7701:	0f b6 c0             	movzbl %al,%eax
    7704:	31 d0                	xor    %edx,%eax
    7706:	48 63 d8             	movslq %eax,%rbx
    7709:	48 8b 05 60 b3 00 00 	mov    0xb360(%rip),%rax        # 12a70 <g_1398>
    7710:	0f b7 00             	movzwl (%rax),%eax
    7713:	0f b7 c0             	movzwl %ax,%eax
    7716:	89 c7                	mov    %eax,%edi
    7718:	e8 cc e5 ff ff       	callq  5ce9 <safe_unary_minus_func_uint16_t_u>
    771d:	0f b7 c0             	movzwl %ax,%eax
    7720:	48 89 de             	mov    %rbx,%rsi
    7723:	48 89 c7             	mov    %rax,%rdi
    7726:	e8 7d e1 ff ff       	callq  58a8 <safe_sub_func_int64_t_s_s>
    772b:	49 39 c4             	cmp    %rax,%r12
    772e:	0f 95 c0             	setne  %al
    7731:	0f b6 c0             	movzbl %al,%eax
    7734:	be 03 00 00 00       	mov    $0x3,%esi
    7739:	89 c7                	mov    %eax,%edi
    773b:	e8 4d e5 ff ff       	callq  5c8d <safe_rshift_func_uint8_t_u_s>
    7740:	0f b6 d0             	movzbl %al,%edx
    7743:	8b 05 47 99 00 00    	mov    0x9947(%rip),%eax        # 11090 <g_113>
    7749:	39 c2                	cmp    %eax,%edx
    774b:	0f 97 c0             	seta   %al
    774e:	0f b6 c0             	movzbl %al,%eax
    7751:	be 00 00 00 00       	mov    $0x0,%esi
    7756:	89 c7                	mov    %eax,%edi
    7758:	e8 b5 da ff ff       	callq  5212 <safe_mul_func_int8_t_s_s>
    775d:	0f be d0             	movsbl %al,%edx
    7760:	8b 85 80 ec ff ff    	mov    -0x1380(%rbp),%eax
    7766:	98                   	cwtl   
    7767:	89 d6                	mov    %edx,%esi
    7769:	89 c7                	mov    %eax,%edi
    776b:	e8 85 dc ff ff       	callq  53f5 <safe_mul_func_int16_t_s_s>
    7770:	98                   	cwtl   
    7771:	39 85 cc eb ff ff    	cmp    %eax,-0x1434(%rbp)
    7777:	0f 9c c0             	setl   %al
    777a:	89 c2                	mov    %eax,%edx
    777c:	48 8b 85 20 ee ff ff 	mov    -0x11e0(%rbp),%rax
    7783:	88 10                	mov    %dl,(%rax)
    7785:	48 8b 85 20 ee ff ff 	mov    -0x11e0(%rbp),%rax
    778c:	0f b6 00             	movzbl (%rax),%eax
    778f:	0f be d0             	movsbl %al,%edx
    7792:	8b 05 14 c1 00 00    	mov    0xc114(%rip),%eax        # 138ac <g_57>
    7798:	39 c2                	cmp    %eax,%edx
    779a:	0f 92 c0             	setb   %al
    779d:	0f b6 d0             	movzbl %al,%edx
    77a0:	8b 85 90 f5 ff ff    	mov    -0xa70(%rbp),%eax
    77a6:	09 d0                	or     %edx,%eax
    77a8:	89 85 90 f5 ff ff    	mov    %eax,-0xa70(%rbp)
    77ae:	8b 95 90 f5 ff ff    	mov    -0xa70(%rbp),%edx
    77b4:	b8 94 ff ff ff       	mov    $0xffffff94,%eax
    77b9:	0f be c0             	movsbl %al,%eax
    77bc:	39 c2                	cmp    %eax,%edx
    77be:	be 01 00 00 00       	mov    $0x1,%esi
    77c3:	bf 94 f3 00 00       	mov    $0xf394,%edi
    77c8:	e8 e9 dd ff ff       	callq  55b6 <safe_add_func_int32_t_s_s>
    77cd:	85 c0                	test   %eax,%eax
    77cf:	0f 94 c0             	sete   %al
    77d2:	0f b6 c0             	movzbl %al,%eax
    77d5:	23 85 80 ec ff ff    	and    -0x1380(%rbp),%eax
    77db:	89 c2                	mov    %eax,%edx
    77dd:	8b 85 90 f9 ff ff    	mov    -0x670(%rbp),%eax
    77e3:	09 d0                	or     %edx,%eax
    77e5:	89 85 90 f9 ff ff    	mov    %eax,-0x670(%rbp)
    77eb:	0f b6 85 97 eb ff ff 	movzbl -0x1469(%rbp),%eax
    77f2:	84 c0                	test   %al,%al
    77f4:	75 21                	jne    7817 <func_1+0x1062>
    77f6:	48 8b 85 f8 ec ff ff 	mov    -0x1308(%rbp),%rax
    77fd:	48 c7 00 00 00 00 00 	movq   $0x0,(%rax)
    7804:	48 8b 85 f8 ec ff ff 	mov    -0x1308(%rbp),%rax
    780b:	48 8b 00             	mov    (%rax),%rax
    780e:	48 89 85 48 f1 ff ff 	mov    %rax,-0xeb8(%rbp)
    7815:	eb 01                	jmp    7818 <func_1+0x1063>
    7817:	90                   	nop
    7818:	48 8b 05 d9 a8 00 00 	mov    0xa8d9(%rip),%rax        # 120f8 <g_566>
    781f:	48 8b 10             	mov    (%rax),%rdx
    7822:	48 8b 85 f8 ec ff ff 	mov    -0x1308(%rbp),%rax
    7829:	48 89 10             	mov    %rdx,(%rax)
    782c:	48 8b 05 2d ad 00 00 	mov    0xad2d(%rip),%rax        # 12560 <g_635>
    7833:	8b 10                	mov    (%rax),%edx
    7835:	48 8b 05 24 ad 00 00 	mov    0xad24(%rip),%rax        # 12560 <g_635>
    783c:	83 e2 01             	and    $0x1,%edx
    783f:	89 10                	mov    %edx,(%rax)
    7841:	e9 fb 11 00 00       	jmpq   8a41 <func_1+0x228c>
    7846:	c7 85 34 ec ff ff 01 	movl   $0x1,-0x13cc(%rbp)
    784d:	00 00 00 
    7850:	c7 85 c4 eb ff ff fd 	movl   $0xfffffffd,-0x143c(%rbp)
    7857:	ff ff ff 
    785a:	c7 85 38 ec ff ff 00 	movl   $0x0,-0x13c8(%rbp)
    7861:	00 00 00 
    7864:	c7 85 c8 eb ff ff 56 	movl   $0x285ae356,-0x1438(%rbp)
    786b:	e3 5a 28 
    786e:	c7 85 e4 eb ff ff 05 	movl   $0x5,-0x141c(%rbp)
    7875:	00 00 00 
    7878:	c7 85 3c ec ff ff 3f 	movl   $0xfebc43f,-0x13c4(%rbp)
    787f:	c4 eb 0f 
    7882:	c7 85 40 ec ff ff 00 	movl   $0x0,-0x13c0(%rbp)
    7889:	00 00 00 
    788c:	c7 85 44 ec ff ff 54 	movl   $0xf6070f54,-0x13bc(%rbp)
    7893:	0f 07 f6 
    7896:	c6 85 9a eb ff ff 08 	movb   $0x8,-0x1466(%rbp)
    789d:	c7 85 48 ec ff ff 8b 	movl   $0xea3b508b,-0x13b8(%rbp)
    78a4:	50 3b ea 
    78a7:	48 8d 85 c8 ec ff ff 	lea    -0x1338(%rbp),%rax
    78ae:	48 89 85 88 ed ff ff 	mov    %rax,-0x1278(%rbp)
    78b5:	c7 85 e8 eb ff ff 00 	movl   $0x0,-0x1418(%rbp)
    78bc:	00 00 00 
    78bf:	eb 21                	jmp    78e2 <func_1+0x112d>
    78c1:	8b 85 e8 eb ff ff    	mov    -0x1418(%rbp),%eax
    78c7:	48 98                	cltq   
    78c9:	48 bb 87 b6 f8 58 b5 	movabs $0x920535b558f8b687,%rbx
    78d0:	35 05 92 
    78d3:	48 89 9c c5 00 f0 ff 	mov    %rbx,-0x1000(%rbp,%rax,8)
    78da:	ff 
    78db:	83 85 e8 eb ff ff 01 	addl   $0x1,-0x1418(%rbp)
    78e2:	83 bd e8 eb ff ff 04 	cmpl   $0x4,-0x1418(%rbp)
    78e9:	7e d6                	jle    78c1 <func_1+0x110c>
    78eb:	c7 85 cc eb ff ff 07 	movl   $0x7,-0x1434(%rbp)
    78f2:	00 00 00 
    78f5:	e9 37 11 00 00       	jmpq   8a31 <func_1+0x227c>
    78fa:	c6 85 99 eb ff ff 08 	movb   $0x8,-0x1467(%rbp)
    7901:	c7 85 ec eb ff ff 0f 	movl   $0xf1a9820f,-0x1414(%rbp)
    7908:	82 a9 f1 
    790b:	48 b8 db cb de 04 29 	movabs $0x1e35692904decbdb,%rax
    7912:	69 35 1e 
    7915:	48 89 85 90 ed ff ff 	mov    %rax,-0x1270(%rbp)
    791c:	66 c7 85 a4 eb ff ff 	movw   $0xffff,-0x145c(%rbp)
    7923:	ff ff 
    7925:	48 8d 05 c4 bf 00 00 	lea    0xbfc4(%rip),%rax        # 138f0 <g_143+0x30>
    792c:	48 89 85 98 ed ff ff 	mov    %rax,-0x1268(%rbp)
    7933:	48 8d 05 66 97 00 00 	lea    0x9766(%rip),%rax        # 110a0 <g_165>
    793a:	48 89 85 d8 ec ff ff 	mov    %rax,-0x1328(%rbp)
    7941:	48 8d 85 d8 ec ff ff 	lea    -0x1328(%rbp),%rax
    7948:	48 89 85 e0 ec ff ff 	mov    %rax,-0x1320(%rbp)
    794f:	48 8d 85 e0 ec ff ff 	lea    -0x1320(%rbp),%rax
    7956:	48 89 85 a0 ed ff ff 	mov    %rax,-0x1260(%rbp)
    795d:	c7 85 4c ec ff ff fc 	movl   $0xfffffffc,-0x13b4(%rbp)
    7964:	ff ff ff 
    7967:	c7 85 50 ec ff ff fa 	movl   $0xfffffffa,-0x13b0(%rbp)
    796e:	ff ff ff 
    7971:	c7 85 54 ec ff ff 04 	movl   $0x4,-0x13ac(%rbp)
    7978:	00 00 00 
    797b:	48 c7 85 a8 ed ff ff 	movq   $0x6,-0x1258(%rbp)
    7982:	06 00 00 00 
    7986:	48 c7 85 b0 ed ff ff 	movq   $0x0,-0x1250(%rbp)
    798d:	00 00 00 00 
    7991:	0f b6 85 99 eb ff ff 	movzbl -0x1467(%rbp),%eax
    7998:	48 0f be d0          	movsbq %al,%rdx
    799c:	48 8b 05 f5 96 00 00 	mov    0x96f5(%rip),%rax        # 11098 <g_116>
    79a3:	48 39 c2             	cmp    %rax,%rdx
    79a6:	0f 86 3c 04 00 00    	jbe    7de8 <func_1+0x1633>
    79ac:	c6 45 c0 95          	movb   $0x95,-0x40(%rbp)
    79b0:	48 8d 85 bc eb ff ff 	lea    -0x1444(%rbp),%rax
    79b7:	48 89 85 c8 ed ff ff 	mov    %rax,-0x1238(%rbp)
    79be:	48 8b 05 cb a6 00 00 	mov    0xa6cb(%rip),%rax        # 12090 <g_119>
    79c5:	c7 00 1b a8 aa 99    	movl   $0x99aaa81b,(%rax)
    79cb:	48 8b 05 8e ab 00 00 	mov    0xab8e(%rip),%rax        # 12560 <g_635>
    79d2:	8b 00                	mov    (%rax),%eax
    79d4:	41 89 c7             	mov    %eax,%r15d
    79d7:	48 8b 05 9a b0 00 00 	mov    0xb09a(%rip),%rax        # 12a78 <g_1397>
    79de:	48 8b 00             	mov    (%rax),%rax
    79e1:	0f b7 00             	movzwl (%rax),%eax
    79e4:	0f bf d8             	movswl %ax,%ebx
    79e7:	0f b6 85 99 eb ff ff 	movzbl -0x1467(%rbp),%eax
    79ee:	4c 0f be e0          	movsbq %al,%r12
    79f2:	0f b6 45 c0          	movzbl -0x40(%rbp),%eax
    79f6:	44 0f b6 e8          	movzbl %al,%r13d
    79fa:	44 0f b7 b5 a2 eb ff 	movzwl -0x145e(%rbp),%r14d
    7a01:	ff 
    7a02:	0f b6 85 99 eb ff ff 	movzbl -0x1467(%rbp),%eax
    7a09:	f7 d0                	not    %eax
    7a0b:	c0 e8 07             	shr    $0x7,%al
    7a0e:	0f b6 c0             	movzbl %al,%eax
    7a11:	be 00 00 00 00       	mov    $0x0,%esi
    7a16:	89 c7                	mov    %eax,%edi
    7a18:	e8 76 e1 ff ff       	callq  5b93 <safe_mul_func_uint8_t_u_u>
    7a1d:	0f b6 c0             	movzbl %al,%eax
    7a20:	44 31 f0             	xor    %r14d,%eax
    7a23:	f7 d0                	not    %eax
    7a25:	48 63 d0             	movslq %eax,%rdx
    7a28:	0f b6 85 99 eb ff ff 	movzbl -0x1467(%rbp),%eax
    7a2f:	48 0f be c0          	movsbq %al,%rax
    7a33:	48 89 d6             	mov    %rdx,%rsi
    7a36:	48 89 c7             	mov    %rax,%rdi
    7a39:	e8 6a de ff ff       	callq  58a8 <safe_sub_func_int64_t_s_s>
    7a3e:	48 85 c0             	test   %rax,%rax
    7a41:	0f 94 c0             	sete   %al
    7a44:	0f b6 c0             	movzbl %al,%eax
    7a47:	44 89 ee             	mov    %r13d,%esi
    7a4a:	89 c7                	mov    %eax,%edi
    7a4c:	e8 29 e4 ff ff       	callq  5e7a <safe_rshift_func_uint16_t_u_u>
    7a51:	66 83 f8 1a          	cmp    $0x1a,%ax
    7a55:	0f 97 c0             	seta   %al
    7a58:	0f b6 c0             	movzbl %al,%eax
    7a5b:	4c 89 e6             	mov    %r12,%rsi
    7a5e:	48 89 c7             	mov    %rax,%rdi
    7a61:	e8 4e df ff ff       	callq  59b4 <safe_mod_func_int64_t_s_s>
    7a66:	98                   	cwtl   
    7a67:	89 de                	mov    %ebx,%esi
    7a69:	89 c7                	mov    %eax,%edi
    7a6b:	e8 e5 d9 ff ff       	callq  5455 <safe_div_func_int16_t_s_s>
    7a70:	98                   	cwtl   
    7a71:	25 48 ae 00 00       	and    $0xae48,%eax
    7a76:	44 89 fe             	mov    %r15d,%esi
    7a79:	89 c7                	mov    %eax,%edi
    7a7b:	e8 50 e4 ff ff       	callq  5ed0 <safe_sub_func_uint32_t_u_u>
    7a80:	89 c2                	mov    %eax,%edx
    7a82:	48 8b 05 07 a6 00 00 	mov    0xa607(%rip),%rax        # 12090 <g_119>
    7a89:	89 10                	mov    %edx,(%rax)
    7a8b:	66 c7 05 78 96 00 00 	movw   $0x0,0x9678(%rip)        # 1110c <g_1245>
    7a92:	00 00 
    7a94:	e9 1e 01 00 00       	jmpq   7bb7 <func_1+0x1402>
    7a99:	c7 85 90 f5 ff ff 59 	movl   $0x4b89ed59,-0xa70(%rbp)
    7aa0:	ed 89 4b 
    7aa3:	c7 85 94 f5 ff ff 1b 	movl   $0x26bc131b,-0xa6c(%rbp)
    7aaa:	13 bc 26 
    7aad:	c7 85 98 f5 ff ff 59 	movl   $0x4b89ed59,-0xa68(%rbp)
    7ab4:	ed 89 4b 
    7ab7:	c7 85 9c f5 ff ff 59 	movl   $0x4b89ed59,-0xa64(%rbp)
    7abe:	ed 89 4b 
    7ac1:	c7 85 a0 f5 ff ff 1b 	movl   $0x26bc131b,-0xa60(%rbp)
    7ac8:	13 bc 26 
    7acb:	c7 85 a4 f5 ff ff 59 	movl   $0x4b89ed59,-0xa5c(%rbp)
    7ad2:	ed 89 4b 
    7ad5:	c7 85 a8 f5 ff ff 59 	movl   $0x4b89ed59,-0xa58(%rbp)
    7adc:	ed 89 4b 
    7adf:	c7 85 ac f5 ff ff 1b 	movl   $0x26bc131b,-0xa54(%rbp)
    7ae6:	13 bc 26 
    7ae9:	c7 85 b0 f5 ff ff 59 	movl   $0x4b89ed59,-0xa50(%rbp)
    7af0:	ed 89 4b 
    7af3:	c7 85 b4 f5 ff ff 59 	movl   $0x4b89ed59,-0xa4c(%rbp)
    7afa:	ed 89 4b 
    7afd:	48 c7 85 d0 ed ff ff 	movq   $0x0,-0x1230(%rbp)
    7b04:	00 00 00 00 
    7b08:	48 8d 85 80 f9 ff ff 	lea    -0x680(%rbp),%rax
    7b0f:	48 83 c0 28          	add    $0x28,%rax
    7b13:	48 89 85 d8 ed ff ff 	mov    %rax,-0x1228(%rbp)
    7b1a:	c7 85 f0 eb ff ff 00 	movl   $0x0,-0x1410(%rbp)
    7b21:	00 00 00 
    7b24:	eb 4d                	jmp    7b73 <func_1+0x13be>
    7b26:	c7 85 f4 eb ff ff 00 	movl   $0x0,-0x140c(%rbp)
    7b2d:	00 00 00 
    7b30:	eb 31                	jmp    7b63 <func_1+0x13ae>
    7b32:	8b 85 f4 eb ff ff    	mov    -0x140c(%rbp),%eax
    7b38:	48 63 c8             	movslq %eax,%rcx
    7b3b:	8b 85 f0 eb ff ff    	mov    -0x1410(%rbp),%eax
    7b41:	48 63 d0             	movslq %eax,%rdx
    7b44:	48 89 d0             	mov    %rdx,%rax
    7b47:	48 01 c0             	add    %rax,%rax
    7b4a:	48 01 d0             	add    %rdx,%rax
    7b4d:	48 01 c8             	add    %rcx,%rax
    7b50:	48 c7 84 c5 80 f9 ff 	movq   $0x0,-0x680(%rbp,%rax,8)
    7b57:	ff 00 00 00 00 
    7b5c:	83 85 f4 eb ff ff 01 	addl   $0x1,-0x140c(%rbp)
    7b63:	83 bd f4 eb ff ff 02 	cmpl   $0x2,-0x140c(%rbp)
    7b6a:	7e c6                	jle    7b32 <func_1+0x137d>
    7b6c:	83 85 f0 eb ff ff 01 	addl   $0x1,-0x1410(%rbp)
    7b73:	83 bd f0 eb ff ff 03 	cmpl   $0x3,-0x1410(%rbp)
    7b7a:	7e aa                	jle    7b26 <func_1+0x1371>
    7b7c:	8b 85 94 f5 ff ff    	mov    -0xa6c(%rbp),%eax
    7b82:	8b 95 c4 eb ff ff    	mov    -0x143c(%rbp),%edx
    7b88:	31 d0                	xor    %edx,%eax
    7b8a:	89 85 94 f5 ff ff    	mov    %eax,-0xa6c(%rbp)
    7b90:	48 83 85 f0 ec ff ff 	addq   $0x1,-0x1310(%rbp)
    7b97:	01 
    7b98:	48 8b 85 d8 ed ff ff 	mov    -0x1228(%rbp),%rax
    7b9f:	48 c7 00 00 00 00 00 	movq   $0x0,(%rax)
    7ba6:	0f b7 05 5f 95 00 00 	movzwl 0x955f(%rip),%eax        # 1110c <g_1245>
    7bad:	83 c0 01             	add    $0x1,%eax
    7bb0:	66 89 05 55 95 00 00 	mov    %ax,0x9555(%rip)        # 1110c <g_1245>
    7bb7:	0f b7 05 4e 95 00 00 	movzwl 0x954e(%rip),%eax        # 1110c <g_1245>
    7bbe:	66 83 f8 07          	cmp    $0x7,%ax
    7bc2:	0f 86 d1 fe ff ff    	jbe    7a99 <func_1+0x12e4>
    7bc8:	0f b6 85 99 eb ff ff 	movzbl -0x1467(%rbp),%eax
    7bcf:	84 c0                	test   %al,%al
    7bd1:	0f 84 fc 01 00 00    	je     7dd3 <func_1+0x161e>
    7bd7:	c7 85 58 ec ff ff 07 	movl   $0x7,-0x13a8(%rbp)
    7bde:	00 00 00 
    7be1:	c7 85 5c ec ff ff e8 	movl   $0x8d8ecee8,-0x13a4(%rbp)
    7be8:	ce 8e 8d 
    7beb:	48 8b 85 c8 ed ff ff 	mov    -0x1238(%rbp),%rax
    7bf2:	8b 00                	mov    (%rax),%eax
    7bf4:	89 85 8c eb ff ff    	mov    %eax,-0x1474(%rbp)
    7bfa:	8b 85 58 ec ff ff    	mov    -0x13a8(%rbp),%eax
    7c00:	48 63 d8             	movslq %eax,%rbx
    7c03:	8b 05 23 95 00 00    	mov    0x9523(%rip),%eax        # 1112c <g_1506>
    7c09:	44 0f b7 e0          	movzwl %ax,%r12d
    7c0d:	0f b6 45 c0          	movzbl -0x40(%rbp),%eax
    7c11:	44 0f b6 f8          	movzbl %al,%r15d
    7c15:	48 8b 85 40 ed ff ff 	mov    -0x12c0(%rbp),%rax
    7c1c:	0f b7 10             	movzwl (%rax),%edx
    7c1f:	48 8b 85 40 ed ff ff 	mov    -0x12c0(%rbp),%rax
    7c26:	66 89 10             	mov    %dx,(%rax)
    7c29:	48 8b 85 40 ed ff ff 	mov    -0x12c0(%rbp),%rax
    7c30:	0f b7 00             	movzwl (%rax),%eax
    7c33:	98                   	cwtl   
    7c34:	89 85 88 eb ff ff    	mov    %eax,-0x1478(%rbp)
    7c3a:	48 8b 05 77 94 00 00 	mov    0x9477(%rip),%rax        # 110b8 <g_459>
    7c41:	44 0f b7 e8          	movzwl %ax,%r13d
    7c45:	0f b6 45 c0          	movzbl -0x40(%rbp),%eax
    7c49:	44 0f b6 f0          	movzbl %al,%r14d
    7c4d:	8b 85 c4 eb ff ff    	mov    -0x143c(%rbp),%eax
    7c53:	85 c0                	test   %eax,%eax
    7c55:	74 33                	je     7c8a <func_1+0x14d5>
    7c57:	48 8b 05 2a 94 00 00 	mov    0x942a(%rip),%rax        # 11088 <g_103>
    7c5e:	48 89 c2             	mov    %rax,%rdx
    7c61:	b9 94 ff ff ff       	mov    $0xffffff94,%ecx
    7c66:	0f b6 85 99 eb ff ff 	movzbl -0x1467(%rbp),%eax
    7c6d:	21 c8                	and    %ecx,%eax
    7c6f:	48 0f be c0          	movsbq %al,%rax
    7c73:	48 89 d6             	mov    %rdx,%rsi
    7c76:	48 89 c7             	mov    %rax,%rdi
    7c79:	e8 c3 db ff ff       	callq  5841 <safe_add_func_int64_t_s_s>
    7c7e:	48 85 c0             	test   %rax,%rax
    7c81:	74 07                	je     7c8a <func_1+0x14d5>
    7c83:	ba 01 00 00 00       	mov    $0x1,%edx
    7c88:	eb 05                	jmp    7c8f <func_1+0x14da>
    7c8a:	ba 00 00 00 00       	mov    $0x0,%edx
    7c8f:	8b 05 8f 93 00 00    	mov    0x938f(%rip),%eax        # 11024 <g_4>
    7c95:	09 d0                	or     %edx,%eax
    7c97:	39 85 ec eb ff ff    	cmp    %eax,-0x1414(%rbp)
    7c9d:	0f 95 c0             	setne  %al
    7ca0:	0f b6 c0             	movzbl %al,%eax
    7ca3:	44 89 f6             	mov    %r14d,%esi
    7ca6:	89 c7                	mov    %eax,%edi
    7ca8:	e8 48 d7 ff ff       	callq  53f5 <safe_mul_func_int16_t_s_s>
    7cad:	0f b6 c0             	movzbl %al,%eax
    7cb0:	89 c6                	mov    %eax,%esi
    7cb2:	bf f9 00 00 00       	mov    $0xf9,%edi
    7cb7:	e8 f2 de ff ff       	callq  5bae <safe_mod_func_uint8_t_u_u>
    7cbc:	8b 85 34 ec ff ff    	mov    -0x13cc(%rbp),%eax
    7cc2:	0f b7 c0             	movzwl %ax,%eax
    7cc5:	44 89 ee             	mov    %r13d,%esi
    7cc8:	89 c7                	mov    %eax,%edi
    7cca:	e8 8d e0 ff ff       	callq  5d5c <safe_mod_func_uint16_t_u_u>
    7ccf:	0f b7 c0             	movzwl %ax,%eax
    7cd2:	39 85 88 eb ff ff    	cmp    %eax,-0x1478(%rbp)
    7cd8:	0f 9d c0             	setge  %al
    7cdb:	0f b6 c0             	movzbl %al,%eax
    7cde:	39 85 ec eb ff ff    	cmp    %eax,-0x1414(%rbp)
    7ce4:	0f 95 c0             	setne  %al
    7ce7:	0f b6 d0             	movzbl %al,%edx
    7cea:	8b 85 c4 eb ff ff    	mov    -0x143c(%rbp),%eax
    7cf0:	39 c2                	cmp    %eax,%edx
    7cf2:	7e 16                	jle    7d0a <func_1+0x1555>
    7cf4:	48 8b 05 75 ad 00 00 	mov    0xad75(%rip),%rax        # 12a70 <g_1398>
    7cfb:	0f b7 00             	movzwl (%rax),%eax
    7cfe:	66 85 c0             	test   %ax,%ax
    7d01:	74 07                	je     7d0a <func_1+0x1555>
    7d03:	b8 01 00 00 00       	mov    $0x1,%eax
    7d08:	eb 05                	jmp    7d0f <func_1+0x155a>
    7d0a:	b8 00 00 00 00       	mov    $0x0,%eax
    7d0f:	0f be d0             	movsbl %al,%edx
    7d12:	0f b6 85 99 eb ff ff 	movzbl -0x1467(%rbp),%eax
    7d19:	0f be c0             	movsbl %al,%eax
    7d1c:	89 d6                	mov    %edx,%esi
    7d1e:	89 c7                	mov    %eax,%edi
    7d20:	e8 cd d4 ff ff       	callq  51f2 <safe_sub_func_int8_t_s_s>
    7d25:	0f be c0             	movsbl %al,%eax
    7d28:	41 39 c7             	cmp    %eax,%r15d
    7d2b:	0f 95 c2             	setne  %dl
    7d2e:	48 8b 05 43 ad 00 00 	mov    0xad43(%rip),%rax        # 12a78 <g_1397>
    7d35:	48 8b 00             	mov    (%rax),%rax
    7d38:	0f b6 d2             	movzbl %dl,%edx
    7d3b:	66 89 10             	mov    %dx,(%rax)
    7d3e:	48 8b 85 a8 ef ff ff 	mov    -0x1058(%rbp),%rax
    7d45:	0f b7 c0             	movzwl %ax,%eax
    7d48:	44 89 e6             	mov    %r12d,%esi
    7d4b:	89 c7                	mov    %eax,%edi
    7d4d:	e8 eb df ff ff       	callq  5d3d <safe_mul_func_uint16_t_u_u>
    7d52:	66 85 c0             	test   %ax,%ax
    7d55:	74 10                	je     7d67 <func_1+0x15b2>
    7d57:	83 bd 58 ec ff ff 00 	cmpl   $0x0,-0x13a8(%rbp)
    7d5e:	74 07                	je     7d67 <func_1+0x15b2>
    7d60:	b8 01 00 00 00       	mov    $0x1,%eax
    7d65:	eb 05                	jmp    7d6c <func_1+0x15b7>
    7d67:	b8 00 00 00 00       	mov    $0x0,%eax
    7d6c:	0f b6 d0             	movzbl %al,%edx
    7d6f:	48 8b 05 fa a7 00 00 	mov    0xa7fa(%rip),%rax        # 12570 <g_777>
    7d76:	48 8b 00             	mov    (%rax),%rax
    7d79:	0f b6 00             	movzbl (%rax),%eax
    7d7c:	0f b6 c0             	movzbl %al,%eax
    7d7f:	89 d6                	mov    %edx,%esi
    7d81:	89 c7                	mov    %eax,%edi
    7d83:	e8 f0 dd ff ff       	callq  5b78 <safe_sub_func_uint8_t_u_u>
    7d88:	0f b6 c0             	movzbl %al,%eax
    7d8b:	48 89 de             	mov    %rbx,%rsi
    7d8e:	48 89 c7             	mov    %rax,%rdi
    7d91:	e8 1e dc ff ff       	callq  59b4 <safe_mod_func_int64_t_s_s>
    7d96:	8b b5 8c eb ff ff    	mov    -0x1474(%rbp),%esi
    7d9c:	bf 01 00 00 00       	mov    $0x1,%edi
    7da1:	e8 7f e1 ff ff       	callq  5f25 <safe_div_func_uint32_t_u_u>
    7da6:	8b 95 5c ec ff ff    	mov    -0x13a4(%rbp),%edx
    7dac:	21 d0                	and    %edx,%eax
    7dae:	89 85 5c ec ff ff    	mov    %eax,-0x13a4(%rbp)
    7db4:	48 8b 05 a5 a7 00 00 	mov    0xa7a5(%rip),%rax        # 12560 <g_635>
    7dbb:	8b 00                	mov    (%rax),%eax
    7dbd:	33 85 34 ec ff ff    	xor    -0x13cc(%rbp),%eax
    7dc3:	89 c2                	mov    %eax,%edx
    7dc5:	48 8b 05 94 a7 00 00 	mov    0xa794(%rip),%rax        # 12560 <g_635>
    7dcc:	89 10                	mov    %edx,(%rax)
    7dce:	e9 7e 04 00 00       	jmpq   8251 <func_1+0x1a9c>
    7dd3:	48 8b 05 9e a7 00 00 	mov    0xa79e(%rip),%rax        # 12578 <g_776>
    7dda:	48 8b 00             	mov    (%rax),%rax
    7ddd:	48 8b 00             	mov    (%rax),%rax
    7de0:	0f b6 00             	movzbl (%rax),%eax
    7de3:	e9 3f 12 00 00       	jmpq   9027 <func_1+0x2872>
    7de8:	c7 85 80 ef ff ff ff 	movl   $0xffffffff,-0x1080(%rbp)
    7def:	ff ff ff 
    7df2:	c7 85 84 ef ff ff ff 	movl   $0xffffffff,-0x107c(%rbp)
    7df9:	ff ff ff 
    7dfc:	c7 85 88 ef ff ff ff 	movl   $0xffffffff,-0x1078(%rbp)
    7e03:	ff ff ff 
    7e06:	c7 85 8c ef ff ff ff 	movl   $0xffffffff,-0x1074(%rbp)
    7e0d:	ff ff ff 
    7e10:	c7 85 90 ef ff ff ff 	movl   $0xffffffff,-0x1070(%rbp)
    7e17:	ff ff ff 
    7e1a:	c7 85 94 ef ff ff ff 	movl   $0xffffffff,-0x106c(%rbp)
    7e21:	ff ff ff 
    7e24:	c7 85 98 ef ff ff ff 	movl   $0xffffffff,-0x1068(%rbp)
    7e2b:	ff ff ff 
    7e2e:	c7 85 9c ef ff ff ff 	movl   $0xffffffff,-0x1064(%rbp)
    7e35:	ff ff ff 
    7e38:	48 8d 05 e9 ac 00 00 	lea    0xace9(%rip),%rax        # 12b28 <g_1816>
    7e3f:	48 89 85 b8 ed ff ff 	mov    %rax,-0x1248(%rbp)
    7e46:	48 8d 85 00 ef ff ff 	lea    -0x1100(%rbp),%rax
    7e4d:	48 83 c0 11          	add    $0x11,%rax
    7e51:	48 89 85 c0 ed ff ff 	mov    %rax,-0x1240(%rbp)
    7e58:	48 8d 85 97 eb ff ff 	lea    -0x1469(%rbp),%rax
    7e5f:	48 89 85 90 f5 ff ff 	mov    %rax,-0xa70(%rbp)
    7e66:	48 8d 05 3b ba 00 00 	lea    0xba3b(%rip),%rax        # 138a8 <g_25>
    7e6d:	48 89 85 98 f5 ff ff 	mov    %rax,-0xa68(%rbp)
    7e74:	48 8d 85 97 eb ff ff 	lea    -0x1469(%rbp),%rax
    7e7b:	48 89 85 a0 f5 ff ff 	mov    %rax,-0xa60(%rbp)
    7e82:	48 8d 85 97 eb ff ff 	lea    -0x1469(%rbp),%rax
    7e89:	48 89 85 a8 f5 ff ff 	mov    %rax,-0xa58(%rbp)
    7e90:	48 8d 05 11 ba 00 00 	lea    0xba11(%rip),%rax        # 138a8 <g_25>
    7e97:	48 89 85 b0 f5 ff ff 	mov    %rax,-0xa50(%rbp)
    7e9e:	48 8d 85 97 eb ff ff 	lea    -0x1469(%rbp),%rax
    7ea5:	48 89 85 b8 f5 ff ff 	mov    %rax,-0xa48(%rbp)
    7eac:	48 8d 85 97 eb ff ff 	lea    -0x1469(%rbp),%rax
    7eb3:	48 89 85 c0 f5 ff ff 	mov    %rax,-0xa40(%rbp)
    7eba:	48 8d 85 80 f9 ff ff 	lea    -0x680(%rbp),%rax
    7ec1:	48 8d 15 98 5d 00 00 	lea    0x5d98(%rip),%rdx        # dc60 <g_599+0xc00>
    7ec8:	b9 70 00 00 00       	mov    $0x70,%ecx
    7ecd:	48 89 c7             	mov    %rax,%rdi
    7ed0:	48 89 d6             	mov    %rdx,%rsi
    7ed3:	f3 48 a5             	rep movsq %ds:(%rsi),%es:(%rdi)
    7ed6:	48 89 f2             	mov    %rsi,%rdx
    7ed9:	48 89 f8             	mov    %rdi,%rax
    7edc:	8b 0a                	mov    (%rdx),%ecx
    7ede:	89 08                	mov    %ecx,(%rax)
    7ee0:	0f b6 85 99 eb ff ff 	movzbl -0x1467(%rbp),%eax
    7ee7:	0f be d8             	movsbl %al,%ebx
    7eea:	44 8b a5 34 ec ff ff 	mov    -0x13cc(%rbp),%r12d
    7ef1:	0f b6 85 99 eb ff ff 	movzbl -0x1467(%rbp),%eax
    7ef8:	44 0f be f0          	movsbl %al,%r14d
    7efc:	0f b6 05 05 ba 00 00 	movzbl 0xba05(%rip),%eax        # 13908 <g_252>
    7f03:	84 c0                	test   %al,%al
    7f05:	0f 95 c0             	setne  %al
    7f08:	0f b6 c0             	movzbl %al,%eax
    7f0b:	48 98                	cltq   
    7f0d:	48 39 85 90 ed ff ff 	cmp    %rax,-0x1270(%rbp)
    7f14:	0f 9f c0             	setg   %al
    7f17:	44 0f b6 e8          	movzbl %al,%r13d
    7f1b:	8b 85 34 ec ff ff    	mov    -0x13cc(%rbp),%eax
    7f21:	0f be c0             	movsbl %al,%eax
    7f24:	89 c6                	mov    %eax,%esi
    7f26:	bf ba ff ff ff       	mov    $0xffffffba,%edi
    7f2b:	e8 a4 d2 ff ff       	callq  51d4 <safe_add_func_int8_t_s_s>
    7f30:	0f b6 c0             	movzbl %al,%eax
    7f33:	44 89 ee             	mov    %r13d,%esi
    7f36:	89 c7                	mov    %eax,%edi
    7f38:	e8 56 dc ff ff       	callq  5b93 <safe_mul_func_uint8_t_u_u>
    7f3d:	0f b6 c0             	movzbl %al,%eax
    7f40:	89 c6                	mov    %eax,%esi
    7f42:	bf ff ff ff ff       	mov    $0xffffffff,%edi
    7f47:	e8 b3 d7 ff ff       	callq  56ff <safe_div_func_int32_t_s_s>
    7f4c:	48 8b 15 25 ab 00 00 	mov    0xab25(%rip),%rdx        # 12a78 <g_1397>
    7f53:	48 8b 12             	mov    (%rdx),%rdx
    7f56:	0f b7 12             	movzwl (%rdx),%edx
    7f59:	21 c2                	and    %eax,%edx
    7f5b:	48 8b 05 16 ab 00 00 	mov    0xab16(%rip),%rax        # 12a78 <g_1397>
    7f62:	48 8b 00             	mov    (%rax),%rax
    7f65:	66 89 10             	mov    %dx,(%rax)
    7f68:	0f b7 00             	movzwl (%rax),%eax
    7f6b:	0f b7 d0             	movzwl %ax,%edx
    7f6e:	8b 85 c4 eb ff ff    	mov    -0x143c(%rbp),%eax
    7f74:	39 c2                	cmp    %eax,%edx
    7f76:	75 19                	jne    7f91 <func_1+0x17dc>
    7f78:	48 8b 05 f9 aa 00 00 	mov    0xaaf9(%rip),%rax        # 12a78 <g_1397>
    7f7f:	48 8b 00             	mov    (%rax),%rax
    7f82:	0f b7 00             	movzwl (%rax),%eax
    7f85:	66 85 c0             	test   %ax,%ax
    7f88:	74 07                	je     7f91 <func_1+0x17dc>
    7f8a:	b8 01 00 00 00       	mov    $0x1,%eax
    7f8f:	eb 05                	jmp    7f96 <func_1+0x17e1>
    7f91:	b8 00 00 00 00       	mov    $0x0,%eax
    7f96:	44 31 f0             	xor    %r14d,%eax
    7f99:	89 c1                	mov    %eax,%ecx
    7f9b:	48 8b 05 de a0 00 00 	mov    0xa0de(%rip),%rax        # 12080 <g_7>
    7fa2:	8b 10                	mov    (%rax),%edx
    7fa4:	31 ca                	xor    %ecx,%edx
    7fa6:	89 10                	mov    %edx,(%rax)
    7fa8:	8b 00                	mov    (%rax),%eax
    7faa:	0f b6 c0             	movzbl %al,%eax
    7fad:	44 89 e6             	mov    %r12d,%esi
    7fb0:	89 c7                	mov    %eax,%edi
    7fb2:	e8 48 d7 ff ff       	callq  56ff <safe_div_func_int32_t_s_s>
    7fb7:	48 8b 15 ca a0 00 00 	mov    0xa0ca(%rip),%rdx        # 12088 <g_16>
    7fbe:	48 8b 05 9b a5 00 00 	mov    0xa59b(%rip),%rax        # 12560 <g_635>
    7fc5:	8b 12                	mov    (%rdx),%edx
    7fc7:	89 10                	mov    %edx,(%rax)
    7fc9:	8b 00                	mov    (%rax),%eax
    7fcb:	89 de                	mov    %ebx,%esi
    7fcd:	89 c7                	mov    %eax,%edi
    7fcf:	e8 31 d6 ff ff       	callq  5605 <safe_sub_func_int32_t_s_s>
    7fd4:	8b 85 34 ec ff ff    	mov    -0x13cc(%rbp),%eax
    7fda:	0f b7 c0             	movzwl %ax,%eax
    7fdd:	be 00 00 00 00       	mov    $0x0,%esi
    7fe2:	89 c7                	mov    %eax,%edi
    7fe4:	e8 54 dd ff ff       	callq  5d3d <safe_mul_func_uint16_t_u_u>
    7fe9:	0f b7 d0             	movzwl %ax,%edx
    7fec:	8b 85 9c ef ff ff    	mov    -0x1064(%rbp),%eax
    7ff2:	89 d1                	mov    %edx,%ecx
    7ff4:	21 c1                	and    %eax,%ecx
    7ff6:	48 8b 85 38 ed ff ff 	mov    -0x12c8(%rbp),%rax
    7ffd:	48 8b 10             	mov    (%rax),%rdx
    8000:	48 63 c1             	movslq %ecx,%rax
    8003:	48 21 c2             	and    %rax,%rdx
    8006:	48 8b 85 38 ed ff ff 	mov    -0x12c8(%rbp),%rax
    800d:	48 89 10             	mov    %rdx,(%rax)
    8010:	48 8b 85 b8 ed ff ff 	mov    -0x1248(%rbp),%rax
    8017:	48 8b 95 18 ed ff ff 	mov    -0x12e8(%rbp),%rdx
    801e:	48 89 10             	mov    %rdx,(%rax)
    8021:	8b 05 11 91 00 00    	mov    0x9111(%rip),%eax        # 11138 <g_1721>
    8027:	0f b6 d8             	movzbl %al,%ebx
    802a:	8b 85 34 ec ff ff    	mov    -0x13cc(%rbp),%eax
    8030:	44 0f be e0          	movsbl %al,%r12d
    8034:	48 8b 05 3d a5 00 00 	mov    0xa53d(%rip),%rax        # 12578 <g_776>
    803b:	48 8b 00             	mov    (%rax),%rax
    803e:	48 8b 10             	mov    (%rax),%rdx
    8041:	48 8b 05 20 a5 00 00 	mov    0xa520(%rip),%rax        # 12568 <g_778>
    8048:	0f b6 12             	movzbl (%rdx),%edx
    804b:	88 10                	mov    %dl,(%rax)
    804d:	0f b6 00             	movzbl (%rax),%eax
    8050:	0f b6 c0             	movzbl %al,%eax
    8053:	89 85 8c eb ff ff    	mov    %eax,-0x1474(%rbp)
    8059:	8b 05 31 90 00 00    	mov    0x9031(%rip),%eax        # 11090 <g_113>
    805f:	44 0f be e8          	movsbl %al,%r13d
    8063:	0f b7 05 c8 90 00 00 	movzwl 0x90c8(%rip),%eax        # 11132 <g_1643>
    806a:	44 0f b7 f0          	movzwl %ax,%r14d
    806e:	48 8b 05 ab aa 00 00 	mov    0xaaab(%rip),%rax        # 12b20 <g_1817>
    8075:	8b 00                	mov    (%rax),%eax
    8077:	3d aa e2 0f 39       	cmp    $0x390fe2aa,%eax
    807c:	0f 87 d9 00 00 00    	ja     815b <func_1+0x19a6>
    8082:	8b 85 8c ef ff ff    	mov    -0x1074(%rbp),%eax
    8088:	89 85 88 eb ff ff    	mov    %eax,-0x1478(%rbp)
    808e:	44 8b bd c4 eb ff ff 	mov    -0x143c(%rbp),%r15d
    8095:	0f b7 85 a4 eb ff ff 	movzwl -0x145c(%rbp),%eax
    809c:	0f b6 c8             	movzbl %al,%ecx
    809f:	89 8d 84 eb ff ff    	mov    %ecx,-0x147c(%rbp)
    80a5:	8b 95 28 ec ff ff    	mov    -0x13d8(%rbp),%edx
    80ab:	0f b6 05 ca 8f 00 00 	movzbl 0x8fca(%rip),%eax        # 1107c <g_81>
    80b2:	0f b6 c8             	movzbl %al,%ecx
    80b5:	48 8b 05 a4 a4 00 00 	mov    0xa4a4(%rip),%rax        # 12560 <g_635>
    80bc:	8b 38                	mov    (%rax),%edi
    80be:	0f be b5 9d eb ff ff 	movsbl -0x1463(%rbp),%esi
    80c5:	48 8b 05 94 a4 00 00 	mov    0xa494(%rip),%rax        # 12560 <g_635>
    80cc:	09 fe                	or     %edi,%esi
    80ce:	89 30                	mov    %esi,(%rax)
    80d0:	8b 00                	mov    (%rax),%eax
    80d2:	85 c0                	test   %eax,%eax
    80d4:	0f 9e c0             	setle  %al
    80d7:	0f b6 c0             	movzbl %al,%eax
    80da:	39 c1                	cmp    %eax,%ecx
    80dc:	8b 85 c4 eb ff ff    	mov    -0x143c(%rbp),%eax
    80e2:	0f be c0             	movsbl %al,%eax
    80e5:	89 d6                	mov    %edx,%esi
    80e7:	89 c7                	mov    %eax,%edi
    80e9:	e8 7e d2 ff ff       	callq  536c <safe_rshift_func_int8_t_s_u>
    80ee:	0f b6 c0             	movzbl %al,%eax
    80f1:	8b b5 84 eb ff ff    	mov    -0x147c(%rbp),%esi
    80f7:	89 c7                	mov    %eax,%edi
    80f9:	e8 dd da ff ff       	callq  5bdb <safe_div_func_uint8_t_u_u>
    80fe:	84 c0                	test   %al,%al
    8100:	0f 95 c0             	setne  %al
    8103:	0f b6 c0             	movzbl %al,%eax
    8106:	44 89 fe             	mov    %r15d,%esi
    8109:	89 c7                	mov    %eax,%edi
    810b:	e8 bc d5 ff ff       	callq  56cc <safe_mod_func_int32_t_s_s>
    8110:	8b 05 ca 8f 00 00    	mov    0x8fca(%rip),%eax        # 110e0 <g_1106>
    8116:	0f be c0             	movsbl %al,%eax
    8119:	8b b5 88 eb ff ff    	mov    -0x1478(%rbp),%esi
    811f:	89 c7                	mov    %eax,%edi
    8121:	e8 46 d2 ff ff       	callq  536c <safe_rshift_func_int8_t_s_u>
    8126:	8b 85 c8 eb ff ff    	mov    -0x1438(%rbp),%eax
    812c:	89 c2                	mov    %eax,%edx
    812e:	48 8b 85 c0 ed ff ff 	mov    -0x1240(%rbp),%rax
    8135:	88 10                	mov    %dl,(%rax)
    8137:	48 8b 85 c0 ed ff ff 	mov    -0x1240(%rbp),%rax
    813e:	0f b6 00             	movzbl (%rax),%eax
    8141:	0f b6 c0             	movzbl %al,%eax
    8144:	be fc 00 00 00       	mov    $0xfc,%esi
    8149:	89 c7                	mov    %eax,%edi
    814b:	e8 43 da ff ff       	callq  5b93 <safe_mul_func_uint8_t_u_u>
    8150:	84 c0                	test   %al,%al
    8152:	74 07                	je     815b <func_1+0x19a6>
    8154:	b8 01 00 00 00       	mov    $0x1,%eax
    8159:	eb 05                	jmp    8160 <func_1+0x19ab>
    815b:	b8 00 00 00 00       	mov    $0x0,%eax
    8160:	89 c2                	mov    %eax,%edx
    8162:	8b 05 68 8f 00 00    	mov    0x8f68(%rip),%eax        # 110d0 <g_593>
    8168:	21 d0                	and    %edx,%eax
    816a:	0f be c0             	movsbl %al,%eax
    816d:	44 89 f6             	mov    %r14d,%esi
    8170:	89 c7                	mov    %eax,%edi
    8172:	e8 be d1 ff ff       	callq  5335 <safe_rshift_func_int8_t_s_s>
    8177:	0f be c0             	movsbl %al,%eax
    817a:	44 89 ee             	mov    %r13d,%esi
    817d:	89 c7                	mov    %eax,%edi
    817f:	e8 8e d0 ff ff       	callq  5212 <safe_mul_func_int8_t_s_s>
    8184:	84 c0                	test   %al,%al
    8186:	74 07                	je     818f <func_1+0x19da>
    8188:	b8 01 00 00 00       	mov    $0x1,%eax
    818d:	eb 05                	jmp    8194 <func_1+0x19df>
    818f:	b8 00 00 00 00       	mov    $0x0,%eax
    8194:	89 85 ec eb ff ff    	mov    %eax,-0x1414(%rbp)
    819a:	8b 85 8c eb ff ff    	mov    -0x1474(%rbp),%eax
    81a0:	39 85 ec eb ff ff    	cmp    %eax,-0x1414(%rbp)
    81a6:	0f 94 c2             	sete   %dl
    81a9:	48 8b 85 48 ed ff ff 	mov    -0x12b8(%rbp),%rax
    81b0:	48 8b 00             	mov    (%rax),%rax
    81b3:	48 8b 00             	mov    (%rax),%rax
    81b6:	0f b6 d2             	movzbl %dl,%edx
    81b9:	66 89 10             	mov    %dx,(%rax)
    81bc:	44 89 e6             	mov    %r12d,%esi
    81bf:	bf 01 00 00 00       	mov    $0x1,%edi
    81c4:	e8 68 d0 ff ff       	callq  5231 <safe_mod_func_int8_t_s_s>
    81c9:	8b 95 7c fc ff ff    	mov    -0x384(%rbp),%edx
    81cf:	0f be c0             	movsbl %al,%eax
    81d2:	21 d0                	and    %edx,%eax
    81d4:	89 85 7c fc ff ff    	mov    %eax,-0x384(%rbp)
    81da:	8b 85 7c fc ff ff    	mov    -0x384(%rbp),%eax
    81e0:	83 f0 8c             	xor    $0xffffff8c,%eax
    81e3:	0f b6 c0             	movzbl %al,%eax
    81e6:	89 de                	mov    %ebx,%esi
    81e8:	89 c7                	mov    %eax,%edi
    81ea:	e8 bf d9 ff ff       	callq  5bae <safe_mod_func_uint8_t_u_u>
    81ef:	0f b6 c0             	movzbl %al,%eax
    81f2:	21 85 e4 eb ff ff    	and    %eax,-0x141c(%rbp)
    81f8:	48 8b 05 91 9e 00 00 	mov    0x9e91(%rip),%rax        # 12090 <g_119>
    81ff:	8b 95 e4 eb ff ff    	mov    -0x141c(%rbp),%edx
    8205:	89 10                	mov    %edx,(%rax)
    8207:	c6 05 9a b6 00 00 01 	movb   $0x1,0xb69a(%rip)        # 138a8 <g_25>
    820e:	90                   	nop
    820f:	0f b6 05 92 b6 00 00 	movzbl 0xb692(%rip),%eax        # 138a8 <g_25>
    8216:	3c 04                	cmp    $0x4,%al
    8218:	77 37                	ja     8251 <func_1+0x1a9c>
    821a:	66 c7 85 a6 eb ff ff 	movw   $0x675e,-0x145a(%rbp)
    8221:	5e 67 
    8223:	0f b7 85 a6 eb ff ff 	movzwl -0x145a(%rbp),%eax
    822a:	83 c0 01             	add    $0x1,%eax
    822d:	66 89 85 a6 eb ff ff 	mov    %ax,-0x145a(%rbp)
    8234:	48 83 85 50 ed ff ff 	addq   $0x1,-0x12b0(%rbp)
    823b:	01 
    823c:	48 8b 05 35 a3 00 00 	mov    0xa335(%rip),%rax        # 12578 <g_776>
    8243:	48 8b 00             	mov    (%rax),%rax
    8246:	48 8b 00             	mov    (%rax),%rax
    8249:	0f b6 00             	movzbl (%rax),%eax
    824c:	e9 d6 0d 00 00       	jmpq   9027 <func_1+0x2872>
    8251:	48 8b 85 f8 ec ff ff 	mov    -0x1308(%rbp),%rax
    8258:	48 8d 95 c8 eb ff ff 	lea    -0x1438(%rbp),%rdx
    825f:	48 89 10             	mov    %rdx,(%rax)
    8262:	48 8b 9d 20 f0 ff ff 	mov    -0xfe0(%rbp),%rbx
    8269:	48 8b 05 f8 a2 00 00 	mov    0xa2f8(%rip),%rax        # 12568 <g_778>
    8270:	0f b6 00             	movzbl (%rax),%eax
    8273:	44 0f b6 f8          	movzbl %al,%r15d
    8277:	48 8b 85 f8 ec ff ff 	mov    -0x1308(%rbp),%rax
    827e:	48 8b 00             	mov    (%rax),%rax
    8281:	8b 00                	mov    (%rax),%eax
    8283:	4c 63 e0             	movslq %eax,%r12
    8286:	48 8b 05 63 9e 00 00 	mov    0x9e63(%rip),%rax        # 120f0 <g_434>
    828d:	48 8b 00             	mov    (%rax),%rax
    8290:	48 39 85 98 ed ff ff 	cmp    %rax,-0x1268(%rbp)
    8297:	0f 95 85 8c eb ff ff 	setne  -0x1474(%rbp)
    829e:	0f b6 85 99 eb ff ff 	movzbl -0x1467(%rbp),%eax
    82a5:	44 0f b6 e8          	movzbl %al,%r13d
    82a9:	4c 8b b5 90 ed ff ff 	mov    -0x1270(%rbp),%r14
    82b0:	48 8b 05 a9 a2 00 00 	mov    0xa2a9(%rip),%rax        # 12560 <g_635>
    82b7:	c7 00 01 00 00 00    	movl   $0x1,(%rax)
    82bd:	48 8d 05 64 8e 00 00 	lea    0x8e64(%rip),%rax        # 11128 <g_1434>
    82c4:	48 39 85 40 ed ff ff 	cmp    %rax,-0x12c0(%rbp)
    82cb:	0f 94 c0             	sete   %al
    82ce:	0f b6 c0             	movzbl %al,%eax
    82d1:	be 00 00 00 00       	mov    $0x0,%esi
    82d6:	89 c7                	mov    %eax,%edi
    82d8:	e8 15 cf ff ff       	callq  51f2 <safe_sub_func_int8_t_s_s>
    82dd:	84 c0                	test   %al,%al
    82df:	0f 9f c0             	setg   %al
    82e2:	0f b6 d0             	movzbl %al,%edx
    82e5:	8b 05 1d 8e 00 00    	mov    0x8e1d(%rip),%eax        # 11108 <g_1182+0x18>
    82eb:	98                   	cwtl   
    82ec:	89 d6                	mov    %edx,%esi
    82ee:	89 c7                	mov    %eax,%edi
    82f0:	e8 00 d1 ff ff       	callq  53f5 <safe_mul_func_int16_t_s_s>
    82f5:	83 c8 01             	or     $0x1,%eax
    82f8:	89 c2                	mov    %eax,%edx
    82fa:	48 8b 85 f8 ec ff ff 	mov    -0x1308(%rbp),%rax
    8301:	48 8b 00             	mov    (%rax),%rax
    8304:	8b 00                	mov    (%rax),%eax
    8306:	21 d0                	and    %edx,%eax
    8308:	66 89 05 19 8e 00 00 	mov    %ax,0x8e19(%rip)        # 11128 <g_1434>
    830f:	0f b7 05 12 8e 00 00 	movzwl 0x8e12(%rip),%eax        # 11128 <g_1434>
    8316:	0f bf d0             	movswl %ax,%edx
    8319:	48 8b 85 c0 ec ff ff 	mov    -0x1340(%rbp),%rax
    8320:	8b 00                	mov    (%rax),%eax
    8322:	39 c2                	cmp    %eax,%edx
    8324:	0f 9f c0             	setg   %al
    8327:	0f b6 c0             	movzbl %al,%eax
    832a:	4c 89 f6             	mov    %r14,%rsi
    832d:	48 89 c7             	mov    %rax,%rdi
    8330:	e8 f9 dc ff ff       	callq  602e <safe_add_func_uint64_t_u_u>
    8335:	0f b6 c0             	movzbl %al,%eax
    8338:	44 89 ee             	mov    %r13d,%esi
    833b:	89 c7                	mov    %eax,%edi
    833d:	e8 51 d8 ff ff       	callq  5b93 <safe_mul_func_uint8_t_u_u>
    8342:	0f be c0             	movsbl %al,%eax
    8345:	be 02 00 00 00       	mov    $0x2,%esi
    834a:	89 c7                	mov    %eax,%edi
    834c:	e8 1b d0 ff ff       	callq  536c <safe_rshift_func_int8_t_s_u>
    8351:	4c 0f be e8          	movsbq %al,%r13
    8355:	48 8b 05 0c a2 00 00 	mov    0xa20c(%rip),%rax        # 12568 <g_778>
    835c:	0f b6 00             	movzbl (%rax),%eax
    835f:	0f b6 c0             	movzbl %al,%eax
    8362:	89 c6                	mov    %eax,%esi
    8364:	bf f5 ff ff ff       	mov    $0xfffffff5,%edi
    8369:	e8 80 cf ff ff       	callq  52ee <safe_lshift_func_int8_t_s_u>
    836e:	0f be d0             	movsbl %al,%edx
    8371:	8b 05 19 8d 00 00    	mov    0x8d19(%rip),%eax        # 11090 <g_113>
    8377:	39 c2                	cmp    %eax,%edx
    8379:	0f 96 c0             	setbe  %al
    837c:	0f b6 c0             	movzbl %al,%eax
    837f:	4c 89 ee             	mov    %r13,%rsi
    8382:	48 89 c7             	mov    %rax,%rdi
    8385:	e8 1e d5 ff ff       	callq  58a8 <safe_sub_func_int64_t_s_s>
    838a:	48 3d aa 76 00 00    	cmp    $0x76aa,%rax
    8390:	0f 95 c0             	setne  %al
    8393:	0a 85 8c eb ff ff    	or     -0x1474(%rbp),%al
    8399:	0f b6 d0             	movzbl %al,%edx
    839c:	48 8b 85 20 f0 ff ff 	mov    -0xfe0(%rbp),%rax
    83a3:	48 39 c2             	cmp    %rax,%rdx
    83a6:	0f 9d c0             	setge  %al
    83a9:	0f b6 d0             	movzbl %al,%edx
    83ac:	48 8b 05 bd a1 00 00 	mov    0xa1bd(%rip),%rax        # 12570 <g_777>
    83b3:	48 8b 00             	mov    (%rax),%rax
    83b6:	0f b6 00             	movzbl (%rax),%eax
    83b9:	0f b6 c0             	movzbl %al,%eax
    83bc:	89 d6                	mov    %edx,%esi
    83be:	89 c7                	mov    %eax,%edi
    83c0:	e8 95 d7 ff ff       	callq  5b5a <safe_add_func_uint8_t_u_u>
    83c5:	0f b6 d0             	movzbl %al,%edx
    83c8:	48 8b 85 c0 ec ff ff 	mov    -0x1340(%rbp),%rax
    83cf:	8b 00                	mov    (%rax),%eax
    83d1:	39 c2                	cmp    %eax,%edx
    83d3:	0f 9e c0             	setle  %al
    83d6:	0f b6 c0             	movzbl %al,%eax
    83d9:	4c 89 e6             	mov    %r12,%rsi
    83dc:	48 89 c7             	mov    %rax,%rdi
    83df:	e8 4a dc ff ff       	callq  602e <safe_add_func_uint64_t_u_u>
    83e4:	48 8b 15 8d a6 00 00 	mov    0xa68d(%rip),%rdx        # 12a78 <g_1397>
    83eb:	48 8b 12             	mov    (%rdx),%rdx
    83ee:	0f b7 12             	movzwl (%rdx),%edx
    83f1:	0f b7 d2             	movzwl %dx,%edx
    83f4:	48 39 d0             	cmp    %rdx,%rax
    83f7:	0f 97 c0             	seta   %al
    83fa:	0f b6 d0             	movzbl %al,%edx
    83fd:	48 8b 85 f8 ec ff ff 	mov    -0x1308(%rbp),%rax
    8404:	48 8b 00             	mov    (%rax),%rax
    8407:	8b 00                	mov    (%rax),%eax
    8409:	39 c2                	cmp    %eax,%edx
    840b:	0f 9c c0             	setl   %al
    840e:	0f b6 c0             	movzbl %al,%eax
    8411:	41 39 c7             	cmp    %eax,%r15d
    8414:	0f 9e c0             	setle  %al
    8417:	0f b6 c0             	movzbl %al,%eax
    841a:	48 89 de             	mov    %rbx,%rsi
    841d:	48 89 c7             	mov    %rax,%rdi
    8420:	e8 1c d4 ff ff       	callq  5841 <safe_add_func_int64_t_s_s>
    8425:	48 85 c0             	test   %rax,%rax
    8428:	0f 84 03 05 00 00    	je     8931 <func_1+0x217c>
    842e:	48 8b 85 f8 ec ff ff 	mov    -0x1308(%rbp),%rax
    8435:	48 8b 00             	mov    (%rax),%rax
    8438:	8b 00                	mov    (%rax),%eax
    843a:	85 c0                	test   %eax,%eax
    843c:	0f 84 ef 04 00 00    	je     8931 <func_1+0x217c>
    8442:	c6 85 a1 eb ff ff ff 	movb   $0xff,-0x145f(%rbp)
    8449:	48 c7 85 e0 ed ff ff 	movq   $0x0,-0x1220(%rbp)
    8450:	00 00 00 00 
    8454:	48 8d 85 99 eb ff ff 	lea    -0x1467(%rbp),%rax
    845b:	48 89 85 e8 ed ff ff 	mov    %rax,-0x1218(%rbp)
    8462:	48 8d 05 37 8c 00 00 	lea    0x8c37(%rip),%rax        # 110a0 <g_165>
    8469:	48 89 85 f0 ed ff ff 	mov    %rax,-0x1210(%rbp)
    8470:	c7 85 60 ec ff ff 00 	movl   $0x0,-0x13a0(%rbp)
    8477:	00 00 00 
    847a:	48 8d 85 b8 eb ff ff 	lea    -0x1448(%rbp),%rax
    8481:	48 89 85 f8 ed ff ff 	mov    %rax,-0x1208(%rbp)
    8488:	48 c7 85 80 f9 ff ff 	movq   $0x0,-0x680(%rbp)
    848f:	00 00 00 00 
    8493:	48 c7 85 88 f9 ff ff 	movq   $0x0,-0x678(%rbp)
    849a:	00 00 00 00 
    849e:	48 8d 05 73 8c 00 00 	lea    0x8c73(%rip),%rax        # 11118 <g_1367>
    84a5:	48 89 85 90 f9 ff ff 	mov    %rax,-0x670(%rbp)
    84ac:	48 c7 85 98 f9 ff ff 	movq   $0x0,-0x668(%rbp)
    84b3:	00 00 00 00 
    84b7:	48 c7 85 a0 f9 ff ff 	movq   $0x0,-0x660(%rbp)
    84be:	00 00 00 00 
    84c2:	48 8d 05 4f 8c 00 00 	lea    0x8c4f(%rip),%rax        # 11118 <g_1367>
    84c9:	48 89 85 a8 f9 ff ff 	mov    %rax,-0x658(%rbp)
    84d0:	48 c7 85 b0 f9 ff ff 	movq   $0x0,-0x650(%rbp)
    84d7:	00 00 00 00 
    84db:	48 c7 85 b8 f9 ff ff 	movq   $0x0,-0x648(%rbp)
    84e2:	00 00 00 00 
    84e6:	48 8d 05 2b 8c 00 00 	lea    0x8c2b(%rip),%rax        # 11118 <g_1367>
    84ed:	48 89 85 c0 f9 ff ff 	mov    %rax,-0x640(%rbp)
    84f4:	48 c7 85 c8 f9 ff ff 	movq   $0x0,-0x638(%rbp)
    84fb:	00 00 00 00 
    84ff:	48 c7 85 d0 f9 ff ff 	movq   $0x0,-0x630(%rbp)
    8506:	00 00 00 00 
    850a:	48 8d 05 07 8c 00 00 	lea    0x8c07(%rip),%rax        # 11118 <g_1367>
    8511:	48 89 85 d8 f9 ff ff 	mov    %rax,-0x628(%rbp)
    8518:	48 c7 85 e0 f9 ff ff 	movq   $0x0,-0x620(%rbp)
    851f:	00 00 00 00 
    8523:	48 c7 85 e8 f9 ff ff 	movq   $0x0,-0x618(%rbp)
    852a:	00 00 00 00 
    852e:	48 8d 05 e3 8b 00 00 	lea    0x8be3(%rip),%rax        # 11118 <g_1367>
    8535:	48 89 85 f0 f9 ff ff 	mov    %rax,-0x610(%rbp)
    853c:	48 c7 85 f8 f9 ff ff 	movq   $0x0,-0x608(%rbp)
    8543:	00 00 00 00 
    8547:	c7 85 64 ec ff ff 2e 	movl   $0xae03dd2e,-0x139c(%rbp)
    854e:	dd 03 ae 
    8551:	c7 85 68 ec ff ff f6 	movl   $0x25fa68f6,-0x1398(%rbp)
    8558:	68 fa 25 
    855b:	c7 85 6c ec ff ff 90 	movl   $0x8353f90,-0x1394(%rbp)
    8562:	3f 35 08 
    8565:	c7 85 70 ec ff ff 01 	movl   $0x1,-0x1390(%rbp)
    856c:	00 00 00 
    856f:	c7 85 74 ec ff ff c1 	movl   $0x6e9ff9c1,-0x138c(%rbp)
    8576:	f9 9f 6e 
    8579:	c7 85 78 ec ff ff ed 	movl   $0x909905ed,-0x1388(%rbp)
    8580:	05 99 90 
    8583:	c7 85 90 f5 ff ff b4 	movl   $0x3fc420b4,-0xa70(%rbp)
    858a:	20 c4 3f 
    858d:	c7 85 94 f5 ff ff 0d 	movl   $0xb55dbe0d,-0xa6c(%rbp)
    8594:	be 5d b5 
    8597:	c7 85 98 f5 ff ff b4 	movl   $0x3fc420b4,-0xa68(%rbp)
    859e:	20 c4 3f 
    85a1:	c7 85 9c f5 ff ff 0d 	movl   $0xb55dbe0d,-0xa64(%rbp)
    85a8:	be 5d b5 
    85ab:	c7 85 a0 f5 ff ff b4 	movl   $0x3fc420b4,-0xa60(%rbp)
    85b2:	20 c4 3f 
    85b5:	c7 85 a4 f5 ff ff 0d 	movl   $0xb55dbe0d,-0xa5c(%rbp)
    85bc:	be 5d b5 
    85bf:	c7 85 a8 f5 ff ff b4 	movl   $0x3fc420b4,-0xa58(%rbp)
    85c6:	20 c4 3f 
    85c9:	c7 85 ac f5 ff ff 0d 	movl   $0xb55dbe0d,-0xa54(%rbp)
    85d0:	be 5d b5 
    85d3:	c7 85 b0 f5 ff ff b4 	movl   $0x3fc420b4,-0xa50(%rbp)
    85da:	20 c4 3f 
    85dd:	c7 85 b4 f5 ff ff 45 	movl   $0x44425345,-0xa4c(%rbp)
    85e4:	53 42 44 
    85e7:	c7 85 b8 f5 ff ff 45 	movl   $0x44425345,-0xa48(%rbp)
    85ee:	53 42 44 
    85f1:	c7 85 bc f5 ff ff 45 	movl   $0x44425345,-0xa44(%rbp)
    85f8:	53 42 44 
    85fb:	c7 85 c0 f5 ff ff 45 	movl   $0x44425345,-0xa40(%rbp)
    8602:	53 42 44 
    8605:	c7 85 c4 f5 ff ff 45 	movl   $0x44425345,-0xa3c(%rbp)
    860c:	53 42 44 
    860f:	c7 85 c8 f5 ff ff 45 	movl   $0x44425345,-0xa38(%rbp)
    8616:	53 42 44 
    8619:	c7 85 cc f5 ff ff 45 	movl   $0x44425345,-0xa34(%rbp)
    8620:	53 42 44 
    8623:	c7 85 d0 f5 ff ff 45 	movl   $0x44425345,-0xa30(%rbp)
    862a:	53 42 44 
    862d:	c7 85 d4 f5 ff ff 45 	movl   $0x44425345,-0xa2c(%rbp)
    8634:	53 42 44 
    8637:	c7 85 d8 f5 ff ff b4 	movl   $0x3fc420b4,-0xa28(%rbp)
    863e:	20 c4 3f 
    8641:	c7 85 dc f5 ff ff 0d 	movl   $0xb55dbe0d,-0xa24(%rbp)
    8648:	be 5d b5 
    864b:	c7 85 e0 f5 ff ff b4 	movl   $0x3fc420b4,-0xa20(%rbp)
    8652:	20 c4 3f 
    8655:	c7 85 e4 f5 ff ff 0d 	movl   $0xb55dbe0d,-0xa1c(%rbp)
    865c:	be 5d b5 
    865f:	c7 85 e8 f5 ff ff b4 	movl   $0x3fc420b4,-0xa18(%rbp)
    8666:	20 c4 3f 
    8669:	c7 85 ec f5 ff ff 0d 	movl   $0xb55dbe0d,-0xa14(%rbp)
    8670:	be 5d b5 
    8673:	c7 85 f0 f5 ff ff b4 	movl   $0x3fc420b4,-0xa10(%rbp)
    867a:	20 c4 3f 
    867d:	c7 85 f4 f5 ff ff 0d 	movl   $0xb55dbe0d,-0xa0c(%rbp)
    8684:	be 5d b5 
    8687:	c7 85 f8 f5 ff ff b4 	movl   $0x3fc420b4,-0xa08(%rbp)
    868e:	20 c4 3f 
    8691:	48 8d 05 30 8a 00 00 	lea    0x8a30(%rip),%rax        # 110c8 <g_584>
    8698:	48 89 85 d0 ec ff ff 	mov    %rax,-0x1330(%rbp)
    869f:	0f b6 9d a1 eb ff ff 	movzbl -0x145f(%rbp),%ebx
    86a6:	8b 05 14 8a 00 00    	mov    0x8a14(%rip),%eax        # 110c0 <g_573>
    86ac:	98                   	cwtl   
    86ad:	89 c6                	mov    %eax,%esi
    86af:	bf 01 00 00 00       	mov    $0x1,%edi
    86b4:	e8 3c cd ff ff       	callq  53f5 <safe_mul_func_int16_t_s_s>
    86b9:	89 c2                	mov    %eax,%edx
    86bb:	48 8b 85 e8 ed ff ff 	mov    -0x1218(%rbp),%rax
    86c2:	88 10                	mov    %dl,(%rax)
    86c4:	48 8b 85 e8 ed ff ff 	mov    -0x1218(%rbp),%rax
    86cb:	0f b6 00             	movzbl (%rax),%eax
    86ce:	0f be c0             	movsbl %al,%eax
    86d1:	39 85 e4 eb ff ff    	cmp    %eax,-0x141c(%rbp)
    86d7:	7e 07                	jle    86e0 <func_1+0x1f2b>
    86d9:	ba 01 00 00 00       	mov    $0x1,%edx
    86de:	eb 05                	jmp    86e5 <func_1+0x1f30>
    86e0:	ba 00 00 00 00       	mov    $0x0,%edx
    86e5:	48 8b 85 f0 ed ff ff 	mov    -0x1210(%rbp),%rax
    86ec:	0f b6 00             	movzbl (%rax),%eax
    86ef:	09 c2                	or     %eax,%edx
    86f1:	48 8b 85 f0 ed ff ff 	mov    -0x1210(%rbp),%rax
    86f8:	88 10                	mov    %dl,(%rax)
    86fa:	48 8b 85 f0 ed ff ff 	mov    -0x1210(%rbp),%rax
    8701:	0f b6 00             	movzbl (%rax),%eax
    8704:	48 0f be c0          	movsbq %al,%rax
    8708:	48 89 05 31 8a 00 00 	mov    %rax,0x8a31(%rip)        # 11140 <g_1896>
    870f:	0f b6 95 a1 eb ff ff 	movzbl -0x145f(%rbp),%edx
    8716:	48 8b 05 03 a4 00 00 	mov    0xa403(%rip),%rax        # 12b20 <g_1817>
    871d:	8b 00                	mov    (%rax),%eax
    871f:	89 d6                	mov    %edx,%esi
    8721:	89 c7                	mov    %eax,%edi
    8723:	e8 a8 d7 ff ff       	callq  5ed0 <safe_sub_func_uint32_t_u_u>
    8728:	89 c1                	mov    %eax,%ecx
    872a:	48 8b 05 cf a8 00 00 	mov    0xa8cf(%rip),%rax        # 13000 <g_1887+0x3a0>
    8731:	48 89 05 90 a8 00 00 	mov    %rax,0xa890(%rip)        # 12fc8 <g_1887+0x368>
    8738:	48 8b 05 89 a8 00 00 	mov    0xa889(%rip),%rax        # 12fc8 <g_1887+0x368>
    873f:	48 8d 15 32 9e 00 00 	lea    0x9e32(%rip),%rdx        # 12578 <g_776>
    8746:	48 39 d0             	cmp    %rdx,%rax
    8749:	0f 95 c0             	setne  %al
    874c:	0f b6 c0             	movzbl %al,%eax
    874f:	48 89 ce             	mov    %rcx,%rsi
    8752:	48 89 c7             	mov    %rax,%rdi
    8755:	e8 f1 d8 ff ff       	callq  604b <safe_sub_func_uint64_t_u_u>
    875a:	89 de                	mov    %ebx,%esi
    875c:	bf 57 fc 27 d1       	mov    $0xd127fc57,%edi
    8761:	e8 52 d7 ff ff       	callq  5eb8 <safe_add_func_uint32_t_u_u>
    8766:	0f b7 d0             	movzwl %ax,%edx
    8769:	48 8b 85 90 ed ff ff 	mov    -0x1270(%rbp),%rax
    8770:	0f b7 c0             	movzwl %ax,%eax
    8773:	89 d6                	mov    %edx,%esi
    8775:	89 c7                	mov    %eax,%edi
    8777:	e8 12 d6 ff ff       	callq  5d8e <safe_div_func_uint16_t_u_u>
    877c:	0f b6 c0             	movzbl %al,%eax
    877f:	89 c6                	mov    %eax,%esi
    8781:	bf bb 00 00 00       	mov    $0xbb,%edi
    8786:	e8 50 d4 ff ff       	callq  5bdb <safe_div_func_uint8_t_u_u>
    878b:	48 b8 8a 05 fb 91 11 	movabs $0xbad17e1191fb058a,%rax
    8792:	7e d1 ba 
    8795:	48 89 85 00 ee ff ff 	mov    %rax,-0x1200(%rbp)
    879c:	48 8d 85 20 ef ff ff 	lea    -0x10e0(%rbp),%rax
    87a3:	48 83 c0 0c          	add    $0xc,%rax
    87a7:	48 89 85 e8 ec ff ff 	mov    %rax,-0x1318(%rbp)
    87ae:	48 8d 85 e8 ec ff ff 	lea    -0x1318(%rbp),%rax
    87b5:	48 89 85 08 ee ff ff 	mov    %rax,-0x11f8(%rbp)
    87bc:	48 8b 85 c0 ec ff ff 	mov    -0x1340(%rbp),%rax
    87c3:	44 8b 28             	mov    (%rax),%r13d
    87c6:	48 8b 05 bb 9a 00 00 	mov    0x9abb(%rip),%rax        # 12288 <g_629>
    87cd:	48 8b 10             	mov    (%rax),%rdx
    87d0:	48 8d 85 c4 eb ff ff 	lea    -0x143c(%rbp),%rax
    87d7:	48 39 c2             	cmp    %rax,%rdx
    87da:	0f 94 c0             	sete   %al
    87dd:	44 0f b6 f0          	movzbl %al,%r14d
    87e1:	8b 85 d0 eb ff ff    	mov    -0x1430(%rbp),%eax
    87e7:	0f b6 d8             	movzbl %al,%ebx
    87ea:	8b 05 a0 88 00 00    	mov    0x88a0(%rip),%eax        # 11090 <g_113>
    87f0:	44 0f bf e0          	movswl %ax,%r12d
    87f4:	8b 85 0c ec ff ff    	mov    -0x13f4(%rbp),%eax
    87fa:	89 c2                	mov    %eax,%edx
    87fc:	8b 05 a2 88 00 00    	mov    0x88a2(%rip),%eax        # 110a4 <g_167>
    8802:	31 d0                	xor    %edx,%eax
    8804:	0f b6 c0             	movzbl %al,%eax
    8807:	25 d4 00 00 00       	and    $0xd4,%eax
    880c:	be 6a 00 00 00       	mov    $0x6a,%esi
    8811:	89 c7                	mov    %eax,%edi
    8813:	e8 c3 d3 ff ff       	callq  5bdb <safe_div_func_uint8_t_u_u>
    8818:	0f b6 95 a1 eb ff ff 	movzbl -0x145f(%rbp),%edx
    881f:	48 8b 85 c0 ec ff ff 	mov    -0x1340(%rbp),%rax
    8826:	8b 00                	mov    (%rax),%eax
    8828:	09 d0                	or     %edx,%eax
    882a:	85 c0                	test   %eax,%eax
    882c:	74 18                	je     8846 <func_1+0x2091>
    882e:	48 8b 05 3b 9d 00 00 	mov    0x9d3b(%rip),%rax        # 12570 <g_777>
    8835:	48 8b 00             	mov    (%rax),%rax
    8838:	0f b6 00             	movzbl (%rax),%eax
    883b:	84 c0                	test   %al,%al
    883d:	74 07                	je     8846 <func_1+0x2091>
    883f:	b8 01 00 00 00       	mov    $0x1,%eax
    8844:	eb 05                	jmp    884b <func_1+0x2096>
    8846:	b8 00 00 00 00       	mov    $0x0,%eax
    884b:	98                   	cwtl   
    884c:	44 89 e6             	mov    %r12d,%esi
    884f:	89 c7                	mov    %eax,%edi
    8851:	e8 c0 cb ff ff       	callq  5416 <safe_mod_func_int16_t_s_s>
    8856:	0f b6 85 a1 eb ff ff 	movzbl -0x145f(%rbp),%eax
    885d:	83 e0 01             	and    $0x1,%eax
    8860:	89 c2                	mov    %eax,%edx
    8862:	8b 85 ec eb ff ff    	mov    -0x1414(%rbp),%eax
    8868:	31 d0                	xor    %edx,%eax
    886a:	0f b6 c0             	movzbl %al,%eax
    886d:	89 de                	mov    %ebx,%esi
    886f:	89 c7                	mov    %eax,%edi
    8871:	e8 1d d3 ff ff       	callq  5b93 <safe_mul_func_uint8_t_u_u>
    8876:	0f b6 d0             	movzbl %al,%edx
    8879:	48 8b 85 f8 ec ff ff 	mov    -0x1308(%rbp),%rax
    8880:	48 8b 00             	mov    (%rax),%rax
    8883:	8b 00                	mov    (%rax),%eax
    8885:	21 d0                	and    %edx,%eax
    8887:	0f b7 c0             	movzwl %ax,%eax
    888a:	be 04 00 00 00       	mov    $0x4,%esi
    888f:	89 c7                	mov    %eax,%edi
    8891:	e8 70 d5 ff ff       	callq  5e06 <safe_lshift_func_uint16_t_u_u>
    8896:	0f b7 d0             	movzwl %ax,%edx
    8899:	8b 85 44 ef ff ff    	mov    -0x10bc(%rbp),%eax
    889f:	39 c2                	cmp    %eax,%edx
    88a1:	0f 95 c0             	setne  %al
    88a4:	0f b6 d0             	movzbl %al,%edx
    88a7:	48 8b 85 20 f0 ff ff 	mov    -0xfe0(%rbp),%rax
    88ae:	48 39 c2             	cmp    %rax,%rdx
    88b1:	0f 94 c0             	sete   %al
    88b4:	0f b6 c0             	movzbl %al,%eax
    88b7:	41 39 c6             	cmp    %eax,%r14d
    88ba:	0f 9d c0             	setge  %al
    88bd:	0f b6 c0             	movzbl %al,%eax
    88c0:	41 39 c5             	cmp    %eax,%r13d
    88c3:	0f 9e c0             	setle  %al
    88c6:	0f b6 c8             	movzbl %al,%ecx
    88c9:	0f b6 95 a1 eb ff ff 	movzbl -0x145f(%rbp),%edx
    88d0:	48 8b 85 c0 ec ff ff 	mov    -0x1340(%rbp),%rax
    88d7:	21 ca                	and    %ecx,%edx
    88d9:	89 10                	mov    %edx,(%rax)
    88db:	48 8b 85 08 ee ff ff 	mov    -0x11f8(%rbp),%rax
    88e2:	48 8d 15 4f 88 00 00 	lea    0x884f(%rip),%rdx        # 11138 <g_1721>
    88e9:	48 89 10             	mov    %rdx,(%rax)
    88ec:	48 8b 05 95 99 00 00 	mov    0x9995(%rip),%rax        # 12288 <g_629>
    88f3:	48 8b 00             	mov    (%rax),%rax
    88f6:	48 8d 15 3b 88 00 00 	lea    0x883b(%rip),%rdx        # 11138 <g_1721>
    88fd:	48 39 d0             	cmp    %rdx,%rax
    8900:	48 8b 85 f8 ec ff ff 	mov    -0x1308(%rbp),%rax
    8907:	48 8b 95 f8 ed ff ff 	mov    -0x1208(%rbp),%rdx
    890e:	48 89 10             	mov    %rdx,(%rax)
    8911:	80 85 9a eb ff ff 01 	addb   $0x1,-0x1466(%rbp)
    8918:	48 8b 05 71 97 00 00 	mov    0x9771(%rip),%rax        # 12090 <g_119>
    891f:	8b 95 38 ec ff ff    	mov    -0x13c8(%rbp),%edx
    8925:	89 10                	mov    %edx,(%rax)
    8927:	48 83 ad a8 ed ff ff 	subq   $0x1,-0x1258(%rbp)
    892e:	01 
    892f:	eb 19                	jmp    894a <func_1+0x2195>
    8931:	48 c7 85 10 ee ff ff 	movq   $0xfffffffffffffffc,-0x11f0(%rbp)
    8938:	fc ff ff ff 
    893c:	48 83 bd 10 ee ff ff 	cmpq   $0x0,-0x11f0(%rbp)
    8943:	00 
    8944:	0f 85 f6 00 00 00    	jne    8a40 <func_1+0x228b>
    894a:	bf a6 c2 b7 c1       	mov    $0xc1b7c2a6,%edi
    894f:	e8 52 d5 ff ff       	callq  5ea6 <safe_unary_minus_func_uint32_t_u>
    8954:	89 c0                	mov    %eax,%eax
    8956:	48 0b 85 90 ed ff ff 	or     -0x1270(%rbp),%rax
    895d:	48 85 c0             	test   %rax,%rax
    8960:	0f 84 ae 00 00 00    	je     8a14 <func_1+0x225f>
    8966:	c7 85 f8 eb ff ff 00 	movl   $0x0,-0x1408(%rbp)
    896d:	00 00 00 
    8970:	eb 52                	jmp    89c4 <func_1+0x220f>
    8972:	c7 85 fc eb ff ff 00 	movl   $0x0,-0x1404(%rbp)
    8979:	00 00 00 
    897c:	eb 36                	jmp    89b4 <func_1+0x21ff>
    897e:	8b 85 fc eb ff ff    	mov    -0x1404(%rbp),%eax
    8984:	48 63 c8             	movslq %eax,%rcx
    8987:	8b 85 f8 eb ff ff    	mov    -0x1408(%rbp),%eax
    898d:	48 63 d0             	movslq %eax,%rdx
    8990:	48 89 d0             	mov    %rdx,%rax
    8993:	48 c1 e0 03          	shl    $0x3,%rax
    8997:	48 01 d0             	add    %rdx,%rax
    899a:	48 8d 5d d0          	lea    -0x30(%rbp),%rbx
    899e:	48 01 d8             	add    %rbx,%rax
    89a1:	48 01 c8             	add    %rcx,%rax
    89a4:	48 2d 50 06 00 00    	sub    $0x650,%rax
    89aa:	c6 00 7c             	movb   $0x7c,(%rax)
    89ad:	83 85 fc eb ff ff 01 	addl   $0x1,-0x1404(%rbp)
    89b4:	83 bd fc eb ff ff 08 	cmpl   $0x8,-0x1404(%rbp)
    89bb:	7e c1                	jle    897e <func_1+0x21c9>
    89bd:	83 85 f8 eb ff ff 01 	addl   $0x1,-0x1408(%rbp)
    89c4:	83 bd f8 eb ff ff 04 	cmpl   $0x4,-0x1408(%rbp)
    89cb:	7e a5                	jle    8972 <func_1+0x21bd>
    89cd:	c7 85 d0 eb ff ff 00 	movl   $0x0,-0x1430(%rbp)
    89d4:	00 00 00 
    89d7:	83 bd d0 eb ff ff 1c 	cmpl   $0x1c,-0x1430(%rbp)
    89de:	76 29                	jbe    8a09 <func_1+0x2254>
    89e0:	0f b6 85 97 f9 ff ff 	movzbl -0x669(%rbp),%eax
    89e7:	83 c0 01             	add    $0x1,%eax
    89ea:	88 85 97 f9 ff ff    	mov    %al,-0x669(%rbp)
    89f0:	48 8b 85 88 ed ff ff 	mov    -0x1278(%rbp),%rax
    89f7:	48 89 85 b0 ed ff ff 	mov    %rax,-0x1250(%rbp)
    89fe:	8b 05 48 87 00 00    	mov    0x8748(%rip),%eax        # 1114c <g_2003>
    8a04:	e9 1e 06 00 00       	jmpq   9027 <func_1+0x2872>
    8a09:	0f b6 85 97 f9 ff ff 	movzbl -0x669(%rbp),%eax
    8a10:	84 c0                	test   %al,%al
    8a12:	eb 16                	jmp    8a2a <func_1+0x2275>
    8a14:	c7 85 7c ec ff ff ff 	movl   $0xffffffff,-0x1384(%rbp)
    8a1b:	ff ff ff 
    8a1e:	8b 85 7c ec ff ff    	mov    -0x1384(%rbp),%eax
    8a24:	21 85 4c ec ff ff    	and    %eax,-0x13b4(%rbp)
    8a2a:	83 ad cc eb ff ff 01 	subl   $0x1,-0x1434(%rbp)
    8a31:	83 bd cc eb ff ff 00 	cmpl   $0x0,-0x1434(%rbp)
    8a38:	0f 89 bc ee ff ff    	jns    78fa <func_1+0x1145>
    8a3e:	eb 01                	jmp    8a41 <func_1+0x228c>
    8a40:	90                   	nop
    8a41:	48 8b 05 00 aa 00 00 	mov    0xaa00(%rip),%rax        # 13448 <g_1959>
    8a48:	48 8b 00             	mov    (%rax),%rax
    8a4b:	0f b6 00             	movzbl (%rax),%eax
    8a4e:	0f be d8             	movsbl %al,%ebx
    8a51:	48 8b 05 30 96 00 00 	mov    0x9630(%rip),%rax        # 12088 <g_16>
    8a58:	8b 00                	mov    (%rax),%eax
    8a5a:	89 c6                	mov    %eax,%esi
    8a5c:	bf 69 44 18 61       	mov    $0x61184469,%edi
    8a61:	e8 52 d4 ff ff       	callq  5eb8 <safe_add_func_uint32_t_u_u>
    8a66:	85 c0                	test   %eax,%eax
    8a68:	0f 84 1b 01 00 00    	je     8b89 <func_1+0x23d4>
    8a6e:	8b 85 70 ef ff ff    	mov    -0x1090(%rbp),%eax
    8a74:	85 c0                	test   %eax,%eax
    8a76:	0f 84 ba 00 00 00    	je     8b36 <func_1+0x2381>
    8a7c:	48 8b 05 0d 96 00 00 	mov    0x960d(%rip),%rax        # 12090 <g_119>
    8a83:	44 8b 28             	mov    (%rax),%r13d
    8a86:	8b 05 bc 86 00 00    	mov    0x86bc(%rip),%eax        # 11148 <g_1965>
    8a8c:	48 98                	cltq   
    8a8e:	48 89 c7             	mov    %rax,%rdi
    8a91:	e8 83 d5 ff ff       	callq  6019 <safe_unary_minus_func_uint64_t_u>
    8a96:	8b 85 14 ec ff ff    	mov    -0x13ec(%rbp),%eax
    8a9c:	89 c2                	mov    %eax,%edx
    8a9e:	48 8b 85 40 ed ff ff 	mov    -0x12c0(%rbp),%rax
    8aa5:	66 89 10             	mov    %dx,(%rax)
    8aa8:	48 8b 85 d0 ef ff ff 	mov    -0x1030(%rbp),%rax
    8aaf:	48 85 c0             	test   %rax,%rax
    8ab2:	75 09                	jne    8abd <func_1+0x2308>
    8ab4:	b8 94 ff ff ff       	mov    $0xffffff94,%eax
    8ab9:	84 c0                	test   %al,%al
    8abb:	74 07                	je     8ac4 <func_1+0x230f>
    8abd:	b8 01 00 00 00       	mov    $0x1,%eax
    8ac2:	eb 05                	jmp    8ac9 <func_1+0x2314>
    8ac4:	b8 00 00 00 00       	mov    $0x0,%eax
    8ac9:	89 c2                	mov    %eax,%edx
    8acb:	48 8b 05 4e a0 00 00 	mov    0xa04e(%rip),%rax        # 12b20 <g_1817>
    8ad2:	8b 00                	mov    (%rax),%eax
    8ad4:	39 c2                	cmp    %eax,%edx
    8ad6:	0f 92 c0             	setb   %al
    8ad9:	44 0f b6 e0          	movzbl %al,%r12d
    8add:	48 8b 05 5c a9 00 00 	mov    0xa95c(%rip),%rax        # 13440 <g_1960>
    8ae4:	0f b6 00             	movzbl (%rax),%eax
    8ae7:	0f b6 d0             	movzbl %al,%edx
    8aea:	48 8b 05 77 9a 00 00 	mov    0x9a77(%rip),%rax        # 12568 <g_778>
    8af1:	0f b6 8d 9f eb ff ff 	movzbl -0x1461(%rbp),%ecx
    8af8:	88 08                	mov    %cl,(%rax)
    8afa:	0f b6 00             	movzbl (%rax),%eax
    8afd:	0f b6 c0             	movzbl %al,%eax
    8b00:	89 d6                	mov    %edx,%esi
    8b02:	89 c7                	mov    %eax,%edi
    8b04:	e8 d2 d0 ff ff       	callq  5bdb <safe_div_func_uint8_t_u_u>
    8b09:	0f b6 c0             	movzbl %al,%eax
    8b0c:	44 89 e6             	mov    %r12d,%esi
    8b0f:	89 c7                	mov    %eax,%edi
    8b11:	e8 a8 d1 ff ff       	callq  5cbe <safe_rshift_func_uint8_t_u_u>
    8b16:	3c 01                	cmp    $0x1,%al
    8b18:	0f 95 c0             	setne  %al
    8b1b:	0f b6 c0             	movzbl %al,%eax
    8b1e:	39 85 30 ec ff ff    	cmp    %eax,-0x13d0(%rbp)
    8b24:	0f 95 c0             	setne  %al
    8b27:	0f b6 c0             	movzbl %al,%eax
    8b2a:	41 39 c5             	cmp    %eax,%r13d
    8b2d:	7d 07                	jge    8b36 <func_1+0x2381>
    8b2f:	b8 01 00 00 00       	mov    $0x1,%eax
    8b34:	eb 05                	jmp    8b3b <func_1+0x2386>
    8b36:	b8 00 00 00 00       	mov    $0x0,%eax
    8b3b:	39 85 18 ec ff ff    	cmp    %eax,-0x13e8(%rbp)
    8b41:	72 07                	jb     8b4a <func_1+0x2395>
    8b43:	b8 01 00 00 00       	mov    $0x1,%eax
    8b48:	eb 05                	jmp    8b4f <func_1+0x239a>
    8b4a:	b8 00 00 00 00       	mov    $0x0,%eax
    8b4f:	89 c2                	mov    %eax,%edx
    8b51:	0f b7 05 b6 85 00 00 	movzwl 0x85b6(%rip),%eax        # 1110e <g_1262>
    8b58:	21 d0                	and    %edx,%eax
    8b5a:	66 89 05 ad 85 00 00 	mov    %ax,0x85ad(%rip)        # 1110e <g_1262>
    8b61:	0f b7 05 a6 85 00 00 	movzwl 0x85a6(%rip),%eax        # 1110e <g_1262>
    8b68:	0f b7 d0             	movzwl %ax,%edx
    8b6b:	8b 85 e8 ee ff ff    	mov    -0x1118(%rbp),%eax
    8b71:	0f b7 c0             	movzwl %ax,%eax
    8b74:	89 d6                	mov    %edx,%esi
    8b76:	89 c7                	mov    %eax,%edi
    8b78:	e8 11 d2 ff ff       	callq  5d8e <safe_div_func_uint16_t_u_u>
    8b7d:	66 85 c0             	test   %ax,%ax
    8b80:	74 07                	je     8b89 <func_1+0x23d4>
    8b82:	b8 01 00 00 00       	mov    $0x1,%eax
    8b87:	eb 05                	jmp    8b8e <func_1+0x23d9>
    8b89:	b8 00 00 00 00       	mov    $0x0,%eax
    8b8e:	0f be c0             	movsbl %al,%eax
    8b91:	89 de                	mov    %ebx,%esi
    8b93:	89 c7                	mov    %eax,%edi
    8b95:	e8 78 c6 ff ff       	callq  5212 <safe_mul_func_int8_t_s_s>
    8b9a:	84 c0                	test   %al,%al
    8b9c:	74 0b                	je     8ba9 <func_1+0x23f4>
    8b9e:	8b 85 1c ec ff ff    	mov    -0x13e4(%rbp),%eax
    8ba4:	e9 7e 04 00 00       	jmpq   9027 <func_1+0x2872>
    8ba9:	66 c7 85 a8 eb ff ff 	movw   $0x0,-0x1458(%rbp)
    8bb0:	00 00 
    8bb2:	c7 85 80 f9 ff ff 05 	movl   $0x9b52c605,-0x680(%rbp)
    8bb9:	c6 52 9b 
    8bbc:	c7 85 84 f9 ff ff 05 	movl   $0x9b52c605,-0x67c(%rbp)
    8bc3:	c6 52 9b 
    8bc6:	c7 85 88 f9 ff ff 05 	movl   $0x9b52c605,-0x678(%rbp)
    8bcd:	c6 52 9b 
    8bd0:	c7 85 8c f9 ff ff 05 	movl   $0x9b52c605,-0x674(%rbp)
    8bd7:	c6 52 9b 
    8bda:	c7 85 90 f9 ff ff 05 	movl   $0x9b52c605,-0x670(%rbp)
    8be1:	c6 52 9b 
    8be4:	c7 85 94 f9 ff ff 05 	movl   $0x9b52c605,-0x66c(%rbp)
    8beb:	c6 52 9b 
    8bee:	c7 85 98 f9 ff ff 05 	movl   $0x9b52c605,-0x668(%rbp)
    8bf5:	c6 52 9b 
    8bf8:	c7 85 9c f9 ff ff 05 	movl   $0x9b52c605,-0x664(%rbp)
    8bff:	c6 52 9b 
    8c02:	80 85 a0 eb ff ff 01 	addb   $0x1,-0x1460(%rbp)
    8c09:	8b 85 80 f9 ff ff    	mov    -0x680(%rbp),%eax
    8c0f:	44 0f bf e0          	movswl %ax,%r12d
    8c13:	8b 85 84 f9 ff ff    	mov    -0x67c(%rbp),%eax
    8c19:	3d 58 d8 00 00       	cmp    $0xd858,%eax
    8c1e:	0f 9f c0             	setg   %al
    8c21:	0f b6 c0             	movzbl %al,%eax
    8c24:	89 c6                	mov    %eax,%esi
    8c26:	bf ff ff ff ff       	mov    $0xffffffff,%edi
    8c2b:	e8 83 c7 ff ff       	callq  53b3 <safe_add_func_int16_t_s_s>
    8c30:	48 0f bf c0          	movswq %ax,%rax
    8c34:	48 31 85 70 ed ff ff 	xor    %rax,-0x1290(%rbp)
    8c3b:	48 8b 85 70 ed ff ff 	mov    -0x1290(%rbp),%rax
    8c42:	83 e0 f9             	and    $0xfffffff9,%eax
    8c45:	89 c6                	mov    %eax,%esi
    8c47:	bf ff ff ff ff       	mov    $0xffffffff,%edi
    8c4c:	e8 ae ca ff ff       	callq  56ff <safe_div_func_int32_t_s_s>
    8c51:	48 8b 85 58 ed ff ff 	mov    -0x12a8(%rbp),%rax
    8c58:	48 8b 00             	mov    (%rax),%rax
    8c5b:	48 8b 00             	mov    (%rax),%rax
    8c5e:	c6 00 00             	movb   $0x0,(%rax)
    8c61:	0f b6 00             	movzbl (%rax),%eax
    8c64:	0f be d8             	movsbl %al,%ebx
    8c67:	48 8b 05 fa 98 00 00 	mov    0x98fa(%rip),%rax        # 12568 <g_778>
    8c6e:	0f b6 00             	movzbl (%rax),%eax
    8c71:	0f b6 c0             	movzbl %al,%eax
    8c74:	be 07 00 00 00       	mov    $0x7,%esi
    8c79:	89 c7                	mov    %eax,%edi
    8c7b:	e8 0d d0 ff ff       	callq  5c8d <safe_rshift_func_uint8_t_u_s>
    8c80:	8b 85 90 f9 ff ff    	mov    -0x670(%rbp),%eax
    8c86:	89 c7                	mov    %eax,%edi
    8c88:	4c 8b 2d 69 94 00 00 	mov    0x9469(%rip),%r13        # 120f8 <g_566>
    8c8f:	48 8d 85 98 eb ff ff 	lea    -0x1468(%rbp),%rax
    8c96:	44 89 e1             	mov    %r12d,%ecx
    8c99:	89 da                	mov    %ebx,%edx
    8c9b:	48 89 c6             	mov    %rax,%rsi
    8c9e:	e8 f8 1a 00 00       	callq  a79b <func_66>
    8ca3:	49 89 45 00          	mov    %rax,0x0(%r13)
    8ca7:	66 c7 05 64 84 00 00 	movw   $0x0,0x8464(%rip)        # 11114 <g_1363>
    8cae:	00 00 
    8cb0:	e9 4e 01 00 00       	jmpq   8e03 <func_1+0x264e>
    8cb5:	48 b8 6a 6a 6a 6a 6a 	movabs $0x6a6a6a6a6a6a6a6a,%rax
    8cbc:	6a 6a 6a 
    8cbf:	48 89 45 c0          	mov    %rax,-0x40(%rbp)
    8cc3:	48 b8 5f 32 9b 4d 85 	movabs $0x8a3cee854d9b325f,%rax
    8cca:	ee 3c 8a 
    8ccd:	48 89 85 30 ee ff ff 	mov    %rax,-0x11d0(%rbp)
    8cd4:	66 c7 85 aa eb ff ff 	movw   $0x1,-0x1456(%rbp)
    8cdb:	01 00 
    8cdd:	48 8d 05 5c a7 00 00 	lea    0xa75c(%rip),%rax        # 13440 <g_1960>
    8ce4:	48 89 85 38 ee ff ff 	mov    %rax,-0x11c8(%rbp)
    8ceb:	48 8d 85 80 f9 ff ff 	lea    -0x680(%rbp),%rax
    8cf2:	48 8d 15 27 8a 00 00 	lea    0x8a27(%rip),%rdx        # 11720 <g_2155+0x270>
    8cf9:	b9 c8 00 00 00       	mov    $0xc8,%ecx
    8cfe:	48 89 c7             	mov    %rax,%rdi
    8d01:	48 89 d6             	mov    %rdx,%rsi
    8d04:	f3 48 a5             	rep movsq %ds:(%rsi),%es:(%rdi)
    8d07:	48 8d 85 80 f9 ff ff 	lea    -0x680(%rbp),%rax
    8d0e:	48 05 e8 01 00 00    	add    $0x1e8,%rax
    8d14:	48 89 85 e8 ec ff ff 	mov    %rax,-0x1318(%rbp)
    8d1b:	48 8d 85 e8 ec ff ff 	lea    -0x1318(%rbp),%rax
    8d22:	48 89 85 40 ee ff ff 	mov    %rax,-0x11c0(%rbp)
    8d29:	c7 85 00 ec ff ff 00 	movl   $0x0,-0x1400(%rbp)
    8d30:	00 00 00 
    8d33:	eb 1a                	jmp    8d4f <func_1+0x259a>
    8d35:	8b 85 00 ec ff ff    	mov    -0x1400(%rbp),%eax
    8d3b:	48 98                	cltq   
    8d3d:	c7 84 85 90 f5 ff ff 	movl   $0x1ff38044,-0xa70(%rbp,%rax,4)
    8d44:	44 80 f3 1f 
    8d48:	83 85 00 ec ff ff 01 	addl   $0x1,-0x1400(%rbp)
    8d4f:	83 bd 00 ec ff ff 09 	cmpl   $0x9,-0x1400(%rbp)
    8d56:	7e dd                	jle    8d35 <func_1+0x2580>
    8d58:	8b 05 1a ac 00 00    	mov    0xac1a(%rip),%eax        # 13978 <g_2045>
    8d5e:	83 c0 01             	add    $0x1,%eax
    8d61:	89 05 11 ac 00 00    	mov    %eax,0xac11(%rip)        # 13978 <g_2045>
    8d67:	48 8b 05 8a 93 00 00 	mov    0x938a(%rip),%rax        # 120f8 <g_566>
    8d6e:	48 8b 00             	mov    (%rax),%rax
    8d71:	8b 08                	mov    (%rax),%ecx
    8d73:	0f b6 45 c4          	movzbl -0x3c(%rbp),%eax
    8d77:	0f be d0             	movsbl %al,%edx
    8d7a:	48 8b 05 77 93 00 00 	mov    0x9377(%rip),%rax        # 120f8 <g_566>
    8d81:	48 8b 00             	mov    (%rax),%rax
    8d84:	31 ca                	xor    %ecx,%edx
    8d86:	89 10                	mov    %edx,(%rax)
    8d88:	8b 85 b0 f5 ff ff    	mov    -0xa50(%rbp),%eax
    8d8e:	0f b7 c0             	movzwl %ax,%eax
    8d91:	be 0e 00 00 00       	mov    $0xe,%esi
    8d96:	89 c7                	mov    %eax,%edi
    8d98:	e8 69 d0 ff ff       	callq  5e06 <safe_lshift_func_uint16_t_u_u>
    8d9d:	89 c2                	mov    %eax,%edx
    8d9f:	48 8b 05 ba 97 00 00 	mov    0x97ba(%rip),%rax        # 12560 <g_635>
    8da6:	0f b7 d2             	movzwl %dx,%edx
    8da9:	89 10                	mov    %edx,(%rax)
    8dab:	48 8b 85 40 ee ff ff 	mov    -0x11c0(%rbp),%rax
    8db2:	48 c7 00 00 00 00 00 	movq   $0x0,(%rax)
    8db9:	48 8b 85 40 ee ff ff 	mov    -0x11c0(%rbp),%rax
    8dc0:	48 8b 00             	mov    (%rax),%rax
    8dc3:	48 39 85 38 ee ff ff 	cmp    %rax,-0x11c8(%rbp)
    8dca:	0f 94 c0             	sete   %al
    8dcd:	0f b6 c8             	movzbl %al,%ecx
    8dd0:	48 8b 05 89 97 00 00 	mov    0x9789(%rip),%rax        # 12560 <g_635>
    8dd7:	8b 10                	mov    (%rax),%edx
    8dd9:	48 8b 05 80 97 00 00 	mov    0x9780(%rip),%rax        # 12560 <g_635>
    8de0:	31 ca                	xor    %ecx,%edx
    8de2:	89 10                	mov    %edx,(%rax)
    8de4:	0f b7 05 29 83 00 00 	movzwl 0x8329(%rip),%eax        # 11114 <g_1363>
    8deb:	0f be c0             	movsbl %al,%eax
    8dee:	be 03 00 00 00       	mov    $0x3,%esi
    8df3:	89 c7                	mov    %eax,%edi
    8df5:	e8 da c3 ff ff       	callq  51d4 <safe_add_func_int8_t_s_s>
    8dfa:	66 98                	cbtw   
    8dfc:	66 89 05 11 83 00 00 	mov    %ax,0x8311(%rip)        # 11114 <g_1363>
    8e03:	0f b7 05 0a 83 00 00 	movzwl 0x830a(%rip),%eax        # 11114 <g_1363>
    8e0a:	66 83 f8 26          	cmp    $0x26,%ax
    8e0e:	0f 87 a1 fe ff ff    	ja     8cb5 <func_1+0x2500>
    8e14:	c7 05 2e 83 00 00 00 	movl   $0x0,0x832e(%rip)        # 1114c <g_2003>
    8e1b:	00 00 00 
    8e1e:	e9 e8 01 00 00       	jmpq   900b <func_1+0x2856>
    8e23:	48 8d 05 3e a6 00 00 	lea    0xa63e(%rip),%rax        # 13468 <g_2133>
    8e2a:	48 89 85 28 ee ff ff 	mov    %rax,-0x11d8(%rbp)
    8e31:	c7 85 84 ec ff ff de 	movl   $0x7a7b67de,-0x137c(%rbp)
    8e38:	67 7b 7a 
    8e3b:	c7 85 88 ec ff ff db 	movl   $0xdefa42db,-0x1378(%rbp)
    8e42:	42 fa de 
    8e45:	c7 85 8c ec ff ff ce 	movl   $0xfc7fc2ce,-0x1374(%rbp)
    8e4c:	c2 7f fc 
    8e4f:	48 8b 05 12 a6 00 00 	mov    0xa612(%rip),%rax        # 13468 <g_2133>
    8e56:	48 89 85 78 ed ff ff 	mov    %rax,-0x1288(%rbp)
    8e5d:	48 8b 85 28 ee ff ff 	mov    -0x11d8(%rbp),%rax
    8e64:	48 8b 95 78 ed ff ff 	mov    -0x1288(%rbp),%rdx
    8e6b:	48 89 10             	mov    %rdx,(%rax)
    8e6e:	48 8b 85 28 ee ff ff 	mov    -0x11d8(%rbp),%rax
    8e75:	48 8b 00             	mov    (%rax),%rax
    8e78:	48 8d 15 e1 a5 00 00 	lea    0xa5e1(%rip),%rdx        # 13460 <g_2134>
    8e7f:	48 39 d0             	cmp    %rdx,%rax
    8e82:	0f 95 c0             	setne  %al
    8e85:	0f b6 d0             	movzbl %al,%edx
    8e88:	48 8b 05 b1 a5 00 00 	mov    0xa5b1(%rip),%rax        # 13440 <g_1960>
    8e8f:	0f b6 00             	movzbl (%rax),%eax
    8e92:	0f be c0             	movsbl %al,%eax
    8e95:	21 c2                	and    %eax,%edx
    8e97:	48 8b 05 82 9c 00 00 	mov    0x9c82(%rip),%rax        # 12b20 <g_1817>
    8e9e:	89 10                	mov    %edx,(%rax)
    8ea0:	48 8b 15 d9 91 00 00 	mov    0x91d9(%rip),%rdx        # 12080 <g_7>
    8ea7:	48 8b 05 b2 96 00 00 	mov    0x96b2(%rip),%rax        # 12560 <g_635>
    8eae:	8b 12                	mov    (%rdx),%edx
    8eb0:	89 10                	mov    %edx,(%rax)
    8eb2:	0f b6 05 34 84 00 00 	movzbl 0x8434(%rip),%eax        # 112ed <g_2101>
    8eb9:	0f be d8             	movsbl %al,%ebx
    8ebc:	48 8b 85 58 ed ff ff 	mov    -0x12a8(%rbp),%rax
    8ec3:	48 8b 00             	mov    (%rax),%rax
    8ec6:	48 8b 00             	mov    (%rax),%rax
    8ec9:	c6 00 d4             	movb   $0xd4,(%rax)
    8ecc:	8b 85 8c ec ff ff    	mov    -0x1374(%rbp),%eax
    8ed2:	44 0f bf e0          	movswl %ax,%r12d
    8ed6:	44 8b ad d0 eb ff ff 	mov    -0x1430(%rbp),%r13d
    8edd:	48 8b 05 84 a5 00 00 	mov    0xa584(%rip),%rax        # 13468 <g_2133>
    8ee4:	48 8b 00             	mov    (%rax),%rax
    8ee7:	48 39 85 80 ed ff ff 	cmp    %rax,-0x1280(%rbp)
    8eee:	0f 95 c0             	setne  %al
    8ef1:	0f b6 c0             	movzbl %al,%eax
    8ef4:	be 04 00 00 00       	mov    $0x4,%esi
    8ef9:	89 c7                	mov    %eax,%edi
    8efb:	e8 92 c5 ff ff       	callq  5492 <safe_lshift_func_int16_t_s_s>
    8f00:	41 89 c6             	mov    %eax,%r14d
    8f03:	8b 15 ab 85 00 00    	mov    0x85ab(%rip),%edx        # 114b4 <g_2155+0x4>
    8f09:	8b 85 f4 ee ff ff    	mov    -0x110c(%rbp),%eax
    8f0f:	39 c2                	cmp    %eax,%edx
    8f11:	0f b6 05 3a 82 00 00 	movzbl 0x823a(%rip),%eax        # 11152 <g_2057>
    8f18:	84 c0                	test   %al,%al
    8f1a:	74 39                	je     8f55 <func_1+0x27a0>
    8f1c:	48 8b 05 45 96 00 00 	mov    0x9645(%rip),%rax        # 12568 <g_778>
    8f23:	0f b6 00             	movzbl (%rax),%eax
    8f26:	0f b6 d0             	movzbl %al,%edx
    8f29:	48 8b 05 48 9b 00 00 	mov    0x9b48(%rip),%rax        # 12a78 <g_1397>
    8f30:	48 8b 00             	mov    (%rax),%rax
    8f33:	0f b7 00             	movzwl (%rax),%eax
    8f36:	66 35 23 04          	xor    $0x423,%ax
    8f3a:	0f b7 c0             	movzwl %ax,%eax
    8f3d:	09 d0                	or     %edx,%eax
    8f3f:	31 85 84 ec ff ff    	xor    %eax,-0x137c(%rbp)
    8f45:	83 bd 84 ec ff ff 00 	cmpl   $0x0,-0x137c(%rbp)
    8f4c:	75 07                	jne    8f55 <func_1+0x27a0>
    8f4e:	b8 01 00 00 00       	mov    $0x1,%eax
    8f53:	eb 05                	jmp    8f5a <func_1+0x27a5>
    8f55:	b8 00 00 00 00       	mov    $0x0,%eax
    8f5a:	89 85 88 ec ff ff    	mov    %eax,-0x1378(%rbp)
    8f60:	0f b6 05 1d aa 00 00 	movzbl 0xaa1d(%rip),%eax        # 13984 <g_2162>
    8f67:	0f be c0             	movsbl %al,%eax
    8f6a:	39 85 88 ec ff ff    	cmp    %eax,-0x1378(%rbp)
    8f70:	0f 94 c0             	sete   %al
    8f73:	0f b6 c0             	movzbl %al,%eax
    8f76:	be 00 00 00 00       	mov    $0x0,%esi
    8f7b:	89 c7                	mov    %eax,%edi
    8f7d:	e8 90 c2 ff ff       	callq  5212 <safe_mul_func_int8_t_s_s>
    8f82:	66 98                	cbtw   
    8f84:	44 21 f0             	and    %r14d,%eax
    8f87:	98                   	cwtl   
    8f88:	be 08 00 00 00       	mov    $0x8,%esi
    8f8d:	89 c7                	mov    %eax,%edi
    8f8f:	e8 cf c5 ff ff       	callq  5563 <safe_rshift_func_int16_t_s_u>
    8f94:	0f be c0             	movsbl %al,%eax
    8f97:	be 01 00 00 00       	mov    $0x1,%esi
    8f9c:	89 c7                	mov    %eax,%edi
    8f9e:	e8 4b c3 ff ff       	callq  52ee <safe_lshift_func_int8_t_s_u>
    8fa3:	0f be c0             	movsbl %al,%eax
    8fa6:	44 89 ee             	mov    %r13d,%esi
    8fa9:	89 c7                	mov    %eax,%edi
    8fab:	e8 55 c6 ff ff       	callq  5605 <safe_sub_func_int32_t_s_s>
    8fb0:	98                   	cwtl   
    8fb1:	44 89 e6             	mov    %r12d,%esi
    8fb4:	89 c7                	mov    %eax,%edi
    8fb6:	e8 3a c4 ff ff       	callq  53f5 <safe_mul_func_int16_t_s_s>
    8fbb:	0f b6 05 1b 83 00 00 	movzbl 0x831b(%rip),%eax        # 112dd <g_2093+0x7d>
    8fc2:	48 0f be c0          	movsbq %al,%rax
    8fc6:	be 00 00 00 00       	mov    $0x0,%esi
    8fcb:	48 89 c7             	mov    %rax,%rdi
    8fce:	e8 5b d0 ff ff       	callq  602e <safe_add_func_uint64_t_u_u>
    8fd3:	98                   	cwtl   
    8fd4:	89 de                	mov    %ebx,%esi
    8fd6:	89 c7                	mov    %eax,%edi
    8fd8:	e8 18 c4 ff ff       	callq  53f5 <safe_mul_func_int16_t_s_s>
    8fdd:	98                   	cwtl   
    8fde:	39 85 8c ec ff ff    	cmp    %eax,-0x1374(%rbp)
    8fe4:	0f 9e c2             	setle  %dl
    8fe7:	48 8b 05 2a a9 00 00 	mov    0xa92a(%rip),%rax        # 13918 <g_567>
    8fee:	0f b6 d2             	movzbl %dl,%edx
    8ff1:	89 10                	mov    %edx,(%rax)
    8ff3:	8b 05 53 81 00 00    	mov    0x8153(%rip),%eax        # 1114c <g_2003>
    8ff9:	be 06 00 00 00       	mov    $0x6,%esi
    8ffe:	89 c7                	mov    %eax,%edi
    9000:	e8 00 c6 ff ff       	callq  5605 <safe_sub_func_int32_t_s_s>
    9005:	89 05 41 81 00 00    	mov    %eax,0x8141(%rip)        # 1114c <g_2003>
    900b:	8b 05 3b 81 00 00    	mov    0x813b(%rip),%eax        # 1114c <g_2003>
    9011:	83 f8 eb             	cmp    $0xffffffeb,%eax
    9014:	0f 8c 09 fe ff ff    	jl     8e23 <func_1+0x266e>
    901a:	48 8b 05 4f 95 00 00 	mov    0x954f(%rip),%rax        # 12570 <g_777>
    9021:	48 8b 00             	mov    (%rax),%rax
    9024:	0f b6 00             	movzbl (%rax),%eax
    9027:	48 8b 5d c8          	mov    -0x38(%rbp),%rbx
    902b:	64 48 33 1c 25 28 00 	xor    %fs:0x28,%rbx
    9032:	00 00 
    9034:	74 05                	je     903b <func_1+0x2886>
    9036:	e8 35 c0 ff ff       	callq  5070 <__stack_chk_fail@plt>
    903b:	48 81 c4 58 14 00 00 	add    $0x1458,%rsp
    9042:	5b                   	pop    %rbx
    9043:	41 5c                	pop    %r12
    9045:	41 5d                	pop    %r13
    9047:	41 5e                	pop    %r14
    9049:	41 5f                	pop    %r15
    904b:	5d                   	pop    %rbp
    904c:	c3                   	retq   

000000000000904d <func_32>:
    904d:	f3 0f 1e fa          	endbr64 
    9051:	55                   	push   %rbp
    9052:	48 89 e5             	mov    %rsp,%rbp
    9055:	89 f8                	mov    %edi,%eax
    9057:	48 89 75 f0          	mov    %rsi,-0x10(%rbp)
    905b:	89 55 f8             	mov    %edx,-0x8(%rbp)
    905e:	89 ca                	mov    %ecx,%edx
    9060:	4c 89 45 e0          	mov    %r8,-0x20(%rbp)
    9064:	66 89 45 fc          	mov    %ax,-0x4(%rbp)
    9068:	89 d0                	mov    %edx,%eax
    906a:	88 45 ec             	mov    %al,-0x14(%rbp)
    906d:	48 8b 05 1c 90 00 00 	mov    0x901c(%rip),%rax        # 12090 <g_119>
    9074:	8b 08                	mov    (%rax),%ecx
    9076:	48 8b 45 e0          	mov    -0x20(%rbp),%rax
    907a:	48 8b 00             	mov    (%rax),%rax
    907d:	8b 10                	mov    (%rax),%edx
    907f:	48 8b 05 0a 90 00 00 	mov    0x900a(%rip),%rax        # 12090 <g_119>
    9086:	31 ca                	xor    %ecx,%edx
    9088:	89 10                	mov    %edx,(%rax)
    908a:	0f b6 05 eb 7f 00 00 	movzbl 0x7feb(%rip),%eax        # 1107c <g_81>
    9091:	0f b6 c0             	movzbl %al,%eax
    9094:	5d                   	pop    %rbp
    9095:	c3                   	retq   

0000000000009096 <func_40>:
    9096:	f3 0f 1e fa          	endbr64 
    909a:	55                   	push   %rbp
    909b:	48 89 e5             	mov    %rsp,%rbp
    909e:	53                   	push   %rbx
    909f:	48 81 ec 48 01 00 00 	sub    $0x148,%rsp
    90a6:	48 89 bd b8 fe ff ff 	mov    %rdi,-0x148(%rbp)
    90ad:	64 48 8b 04 25 28 00 	mov    %fs:0x28,%rax
    90b4:	00 00 
    90b6:	48 89 45 e8          	mov    %rax,-0x18(%rbp)
    90ba:	31 c0                	xor    %eax,%eax
    90bc:	66 c7 85 10 ff ff ff 	movw   $0xff6c,-0xf0(%rbp)
    90c3:	6c ff 
    90c5:	c6 85 12 ff ff ff fc 	movb   $0xfc,-0xee(%rbp)
    90cc:	66 c7 85 13 ff ff ff 	movw   $0x936c,-0xed(%rbp)
    90d3:	6c 93 
    90d5:	c6 85 15 ff ff ff 00 	movb   $0x0,-0xeb(%rbp)
    90dc:	66 c7 85 16 ff ff ff 	movw   $0x4d5,-0xea(%rbp)
    90e3:	d5 04 
    90e5:	c6 85 18 ff ff ff c5 	movb   $0xc5,-0xe8(%rbp)
    90ec:	66 c7 85 19 ff ff ff 	movw   $0xaf,-0xe7(%rbp)
    90f3:	af 00 
    90f5:	c6 85 1b ff ff ff 01 	movb   $0x1,-0xe5(%rbp)
    90fc:	66 c7 85 1c ff ff ff 	movw   $0x59ce,-0xe4(%rbp)
    9103:	ce 59 
    9105:	c6 85 1e ff ff ff 94 	movb   $0x94,-0xe2(%rbp)
    910c:	66 c7 85 1f ff ff ff 	movw   $0xbfe,-0xe1(%rbp)
    9113:	fe 0b 
    9115:	c6 85 21 ff ff ff 51 	movb   $0x51,-0xdf(%rbp)
    911c:	66 c7 85 22 ff ff ff 	movw   $0x4c,-0xde(%rbp)
    9123:	4c 00 
    9125:	c6 85 24 ff ff ff 5a 	movb   $0x5a,-0xdc(%rbp)
    912c:	66 c7 85 25 ff ff ff 	movw   $0x1f3,-0xdb(%rbp)
    9133:	f3 01 
    9135:	c6 85 27 ff ff ff af 	movb   $0xaf,-0xd9(%rbp)
    913c:	66 c7 85 28 ff ff ff 	movw   $0x797,-0xd8(%rbp)
    9143:	97 07 
    9145:	c6 85 2a ff ff ff 07 	movb   $0x7,-0xd6(%rbp)
    914c:	66 c7 85 2b ff ff ff 	movw   $0x8b01,-0xd5(%rbp)
    9153:	01 8b 
    9155:	c6 85 2d ff ff ff 00 	movb   $0x0,-0xd3(%rbp)
    915c:	66 c7 85 2e ff ff ff 	movw   $0x251,-0xd2(%rbp)
    9163:	51 02 
    9165:	c6 85 30 ff ff ff bb 	movb   $0xbb,-0xd0(%rbp)
    916c:	66 c7 85 31 ff ff ff 	movw   $0xc5,-0xcf(%rbp)
    9173:	c5 00 
    9175:	c6 85 33 ff ff ff ee 	movb   $0xee,-0xcd(%rbp)
    917c:	66 c7 85 34 ff ff ff 	movw   $0x1fb,-0xcc(%rbp)
    9183:	fb 01 
    9185:	c6 85 36 ff ff ff 4c 	movb   $0x4c,-0xca(%rbp)
    918c:	66 c7 85 37 ff ff ff 	movw   $0x93,-0xc9(%rbp)
    9193:	93 00 
    9195:	c6 85 39 ff ff ff d6 	movb   $0xd6,-0xc7(%rbp)
    919c:	66 c7 85 3a ff ff ff 	movw   $0x2ff,-0xc6(%rbp)
    91a3:	ff 02 
    91a5:	c6 85 3c ff ff ff 30 	movb   $0x30,-0xc4(%rbp)
    91ac:	66 c7 85 3d ff ff ff 	movw   $0x4f6,-0xc3(%rbp)
    91b3:	f6 04 
    91b5:	c6 85 3f ff ff ff 06 	movb   $0x6,-0xc1(%rbp)
    91bc:	66 c7 85 40 ff ff ff 	movw   $0xdfc9,-0xc0(%rbp)
    91c3:	c9 df 
    91c5:	c6 85 42 ff ff ff fc 	movb   $0xfc,-0xbe(%rbp)
    91cc:	66 c7 85 43 ff ff ff 	movw   $0xff0b,-0xbd(%rbp)
    91d3:	0b ff 
    91d5:	c6 85 45 ff ff ff d5 	movb   $0xd5,-0xbb(%rbp)
    91dc:	66 c7 85 46 ff ff ff 	movw   $0xfb09,-0xba(%rbp)
    91e3:	09 fb 
    91e5:	c6 85 48 ff ff ff 00 	movb   $0x0,-0xb8(%rbp)
    91ec:	66 c7 85 49 ff ff ff 	movw   $0x5a01,-0xb7(%rbp)
    91f3:	01 5a 
    91f5:	c6 85 4b ff ff ff 93 	movb   $0x93,-0xb5(%rbp)
    91fc:	66 c7 85 4c ff ff ff 	movw   $0xaffc,-0xb4(%rbp)
    9203:	fc af 
    9205:	c6 85 4e ff ff ff 00 	movb   $0x0,-0xb2(%rbp)
    920c:	66 c7 85 4f ff ff ff 	movw   $0xf6af,-0xb1(%rbp)
    9213:	af f6 
    9215:	c6 85 51 ff ff ff 0b 	movb   $0xb,-0xaf(%rbp)
    921c:	66 c7 85 52 ff ff ff 	movw   $0x9fb,-0xae(%rbp)
    9223:	fb 09 
    9225:	c6 85 54 ff ff ff 07 	movb   $0x7,-0xac(%rbp)
    922c:	66 c7 85 55 ff ff ff 	movw   $0x876c,-0xab(%rbp)
    9233:	6c 87 
    9235:	c6 85 57 ff ff ff 59 	movb   $0x59,-0xa9(%rbp)
    923c:	66 c7 85 58 ff ff ff 	movw   $0xafbb,-0xa8(%rbp)
    9243:	bb af 
    9245:	c6 85 5a ff ff ff 94 	movb   $0x94,-0xa6(%rbp)
    924c:	66 c7 85 5b ff ff ff 	movw   $0x1e9a,-0xa5(%rbp)
    9253:	9a 1e 
    9255:	c6 85 5d ff ff ff 30 	movb   $0x30,-0xa3(%rbp)
    925c:	66 c7 85 5e ff ff ff 	movw   $0xff9a,-0xa2(%rbp)
    9263:	9a ff 
    9265:	c6 85 60 ff ff ff 6c 	movb   $0x6c,-0xa0(%rbp)
    926c:	66 c7 85 61 ff ff ff 	movw   $0x1bb,-0x9f(%rbp)
    9273:	bb 01 
    9275:	c6 85 63 ff ff ff 6f 	movb   $0x6f,-0x9d(%rbp)
    927c:	66 c7 85 64 ff ff ff 	movw   $0x966c,-0x9c(%rbp)
    9283:	6c 96 
    9285:	c6 85 66 ff ff ff ff 	movb   $0xff,-0x9a(%rbp)
    928c:	66 c7 85 67 ff ff ff 	movw   $0x59fb,-0x99(%rbp)
    9293:	fb 59 
    9295:	c6 85 69 ff ff ff 05 	movb   $0x5,-0x97(%rbp)
    929c:	66 c7 85 6a ff ff ff 	movw   $0x47af,-0x96(%rbp)
    92a3:	af 47 
    92a5:	c6 85 6c ff ff ff 5a 	movb   $0x5a,-0x94(%rbp)
    92ac:	66 c7 85 6d ff ff ff 	movw   $0xd6fc,-0x93(%rbp)
    92b3:	fc d6 
    92b5:	c6 85 6f ff ff ff f7 	movb   $0xf7,-0x91(%rbp)
    92bc:	66 c7 85 70 ff ff ff 	movw   $0xc501,-0x90(%rbp)
    92c3:	01 c5 
    92c5:	c6 85 72 ff ff ff 09 	movb   $0x9,-0x8e(%rbp)
    92cc:	66 c7 85 73 ff ff ff 	movw   $0xbb09,-0x8d(%rbp)
    92d3:	09 bb 
    92d5:	c6 85 75 ff ff ff 01 	movb   $0x1,-0x8b(%rbp)
    92dc:	66 c7 85 76 ff ff ff 	movw   $0x10b,-0x8a(%rbp)
    92e3:	0b 01 
    92e5:	c6 85 78 ff ff ff 07 	movb   $0x7,-0x88(%rbp)
    92ec:	66 c7 85 79 ff ff ff 	movw   $0xc9c9,-0x87(%rbp)
    92f3:	c9 c9 
    92f5:	c6 85 7b ff ff ff 77 	movb   $0x77,-0x85(%rbp)
    92fc:	66 c7 85 7c ff ff ff 	movw   $0x9430,-0x84(%rbp)
    9303:	30 94 
    9305:	c6 85 7e ff ff ff 00 	movb   $0x0,-0x82(%rbp)
    930c:	66 c7 85 7f ff ff ff 	movw   $0x1e,-0x81(%rbp)
    9313:	1e 00 
    9315:	c6 45 81 af          	movb   $0xaf,-0x7f(%rbp)
    9319:	66 c7 45 82 87 9a    	movw   $0x9a87,-0x7e(%rbp)
    931f:	c6 45 84 af          	movb   $0xaf,-0x7c(%rbp)
    9323:	66 c7 45 85 00 1e    	movw   $0x1e00,-0x7b(%rbp)
    9329:	c6 45 87 af          	movb   $0xaf,-0x79(%rbp)
    932d:	66 c7 45 88 4c 77    	movw   $0x774c,-0x78(%rbp)
    9333:	c6 45 8a 00          	movb   $0x0,-0x76(%rbp)
    9337:	66 c7 45 8b b6 1d    	movw   $0x1db6,-0x75(%rbp)
    933d:	c6 45 8d 77          	movb   $0x77,-0x73(%rbp)
    9341:	66 c7 45 8e 6c d5    	movw   $0xd56c,-0x72(%rbp)
    9347:	c6 45 90 07          	movb   $0x7,-0x70(%rbp)
    934b:	66 c7 45 91 f7 01    	movw   $0x1f7,-0x6f(%rbp)
    9351:	c6 45 93 01          	movb   $0x1,-0x6d(%rbp)
    9355:	66 c7 45 94 ee 8b    	movw   $0x8bee,-0x6c(%rbp)
    935b:	c6 45 96 09          	movb   $0x9,-0x6a(%rbp)
    935f:	66 c7 45 97 90 18    	movw   $0x1890,-0x69(%rbp)
    9365:	c6 45 99 f7          	movb   $0xf7,-0x67(%rbp)
    9369:	66 c7 45 9a 00 6c    	movw   $0x6c00,-0x66(%rbp)
    936f:	c6 45 9c 5a          	movb   $0x5a,-0x64(%rbp)
    9373:	66 c7 45 9d fe 06    	movw   $0x6fe,-0x63(%rbp)
    9379:	c6 45 9f 05          	movb   $0x5,-0x61(%rbp)
    937d:	66 c7 45 a0 8b fe    	movw   $0xfe8b,-0x60(%rbp)
    9383:	c6 45 a2 ff          	movb   $0xff,-0x5e(%rbp)
    9387:	66 c7 45 a3 01 2a    	movw   $0x2a01,-0x5d(%rbp)
    938d:	c6 45 a5 6f          	movb   $0x6f,-0x5b(%rbp)
    9391:	66 c7 45 a6 53 97    	movw   $0x9753,-0x5a(%rbp)
    9397:	c6 45 a8 6c          	movb   $0x6c,-0x58(%rbp)
    939b:	66 c7 45 a9 18 ce    	movw   $0xce18,-0x57(%rbp)
    93a1:	c6 45 ab 30          	movb   $0x30,-0x55(%rbp)
    93a5:	66 c7 45 ac 51 ce    	movw   $0xce51,-0x54(%rbp)
    93ab:	c6 45 ae 94          	movb   $0x94,-0x52(%rbp)
    93af:	66 c7 45 af 01 97    	movw   $0x9701,-0x51(%rbp)
    93b5:	c6 45 b1 59          	movb   $0x59,-0x4f(%rbp)
    93b9:	66 c7 45 b2 05 2a    	movw   $0x2a05,-0x4e(%rbp)
    93bf:	c6 45 b4 07          	movb   $0x7,-0x4c(%rbp)
    93c3:	66 c7 45 b5 d6 fe    	movw   $0xfed6,-0x4b(%rbp)
    93c9:	c6 45 b7 0b          	movb   $0xb,-0x49(%rbp)
    93cd:	66 c7 45 b8 2a 06    	movw   $0x62a,-0x48(%rbp)
    93d3:	c6 45 ba 00          	movb   $0x0,-0x46(%rbp)
    93d7:	66 c7 45 bb 04 6c    	movw   $0x6c04,-0x45(%rbp)
    93dd:	c6 45 bd 93          	movb   $0x93,-0x43(%rbp)
    93e1:	66 c7 45 be 77 18    	movw   $0x1877,-0x42(%rbp)
    93e7:	c6 45 c0 00          	movb   $0x0,-0x40(%rbp)
    93eb:	66 c7 45 c1 27 8b    	movw   $0x8b27,-0x3f(%rbp)
    93f1:	c6 45 c3 d5          	movb   $0xd5,-0x3d(%rbp)
    93f5:	66 c7 45 c4 5a 01    	movw   $0x15a,-0x3c(%rbp)
    93fb:	c6 45 c6 fc          	movb   $0xfc,-0x3a(%rbp)
    93ff:	66 c7 45 c7 06 d5    	movw   $0xd506,-0x39(%rbp)
    9405:	c6 45 c9 06          	movb   $0x6,-0x37(%rbp)
    9409:	66 c7 45 ca c1 1d    	movw   $0x1dc1,-0x36(%rbp)
    940f:	c6 45 cc 47          	movb   $0x47,-0x34(%rbp)
    9413:	66 c7 45 cd ff 77    	movw   $0x77ff,-0x33(%rbp)
    9419:	c6 45 cf fe          	movb   $0xfe,-0x31(%rbp)
    941d:	66 c7 45 d0 ff 1e    	movw   $0x1eff,-0x30(%rbp)
    9423:	c6 45 d2 90          	movb   $0x90,-0x2e(%rbp)
    9427:	66 c7 45 d3 00 9a    	movw   $0x9a00,-0x2d(%rbp)
    942d:	c6 45 d5 03          	movb   $0x3,-0x2b(%rbp)
    9431:	66 c7 45 d6 ff 00    	movw   $0xff,-0x2a(%rbp)
    9437:	c6 45 d8 f3          	movb   $0xf3,-0x28(%rbp)
    943b:	66 c7 45 d9 ff 94    	movw   $0x94ff,-0x27(%rbp)
    9441:	c6 45 db fb          	movb   $0xfb,-0x25(%rbp)
    9445:	66 c7 45 dc c1 c9    	movw   $0xc9c1,-0x24(%rbp)
    944b:	c6 45 de df          	movb   $0xdf,-0x22(%rbp)
    944f:	66 c7 45 df 06 01    	movw   $0x106,-0x21(%rbp)
    9455:	c6 45 e1 00          	movb   $0x0,-0x1f(%rbp)
    9459:	66 c7 45 e2 5a bb    	movw   $0xbb5a,-0x1e(%rbp)
    945f:	c6 45 e4 1a          	movb   $0x1a,-0x1c(%rbp)
    9463:	66 c7 45 e5 27 c5    	movw   $0xc527,-0x1b(%rbp)
    9469:	c6 45 e7 b6          	movb   $0xb6,-0x19(%rbp)
    946d:	48 8d 05 2c 7c 00 00 	lea    0x7c2c(%rip),%rax        # 110a0 <g_165>
    9474:	48 89 85 d0 fe ff ff 	mov    %rax,-0x130(%rbp)
    947b:	c7 85 c8 fe ff ff 00 	movl   $0x0,-0x138(%rbp)
    9482:	00 00 00 
    9485:	c6 85 c7 fe ff ff f7 	movb   $0xf7,-0x139(%rbp)
    948c:	48 c7 85 d8 fe ff ff 	movq   $0x0,-0x128(%rbp)
    9493:	00 00 00 00 
    9497:	48 c7 85 e0 fe ff ff 	movq   $0x0,-0x120(%rbp)
    949e:	00 00 00 00 
    94a2:	48 8d 85 c8 fe ff ff 	lea    -0x138(%rbp),%rax
    94a9:	48 89 85 e8 fe ff ff 	mov    %rax,-0x118(%rbp)
    94b0:	c7 85 cc fe ff ff 00 	movl   $0x0,-0x134(%rbp)
    94b7:	00 00 00 
    94ba:	eb 1e                	jmp    94da <func_40+0x444>
    94bc:	8b 85 cc fe ff ff    	mov    -0x134(%rbp),%eax
    94c2:	48 98                	cltq   
    94c4:	48 8d 15 05 7c 00 00 	lea    0x7c05(%rip),%rdx        # 110d0 <g_593>
    94cb:	48 89 94 c5 f0 fe ff 	mov    %rdx,-0x110(%rbp,%rax,8)
    94d2:	ff 
    94d3:	83 85 cc fe ff ff 01 	addl   $0x1,-0x134(%rbp)
    94da:	83 bd cc fe ff ff 02 	cmpl   $0x2,-0x134(%rbp)
    94e1:	7e d9                	jle    94bc <func_40+0x426>
    94e3:	0f b6 85 33 ff ff ff 	movzbl -0xcd(%rbp),%eax
    94ea:	0f b6 c0             	movzbl %al,%eax
    94ed:	89 c6                	mov    %eax,%esi
    94ef:	bf 70 fe ff ff       	mov    $0xfffffe70,%edi
    94f4:	e8 ba be ff ff       	callq  53b3 <safe_add_func_int16_t_s_s>
    94f9:	0f b6 85 33 ff ff ff 	movzbl -0xcd(%rbp),%eax
    9500:	84 c0                	test   %al,%al
    9502:	74 2b                	je     952f <func_40+0x499>
    9504:	0f b6 85 7d ff ff ff 	movzbl -0x83(%rbp),%eax
    950b:	89 c2                	mov    %eax,%edx
    950d:	48 8b 85 d0 fe ff ff 	mov    -0x130(%rbp),%rax
    9514:	88 10                	mov    %dl,(%rax)
    9516:	48 8b 85 d0 fe ff ff 	mov    -0x130(%rbp),%rax
    951d:	0f b6 00             	movzbl (%rax),%eax
    9520:	0f be d0             	movsbl %al,%edx
    9523:	0f b6 85 33 ff ff ff 	movzbl -0xcd(%rbp),%eax
    952a:	0f b6 c0             	movzbl %al,%eax
    952d:	39 c2                	cmp    %eax,%edx
    952f:	48 8b 85 b8 fe ff ff 	mov    -0x148(%rbp),%rax
    9536:	48 be 46 d2 1f 2b 49 	movabs $0xb856b492b1fd246,%rsi
    953d:	6b 85 0b 
    9540:	48 89 c7             	mov    %rax,%rdi
    9543:	e8 67 cb ff ff       	callq  60af <safe_div_func_uint64_t_u_u>
    9548:	48 8b 95 b8 fe ff ff 	mov    -0x148(%rbp),%rdx
    954f:	48 09 d0             	or     %rdx,%rax
    9552:	48 be 94 9c f2 a3 7e 	movabs $0xd230357ea3f29c94,%rsi
    9559:	35 30 d2 
    955c:	48 89 c7             	mov    %rax,%rdi
    955f:	e8 dd c2 ff ff       	callq  5841 <safe_add_func_int64_t_s_s>
    9564:	b8 d1 48 32 8b       	mov    $0x8b3248d1,%eax
    9569:	48 39 85 b8 fe ff ff 	cmp    %rax,-0x148(%rbp)
    9570:	0f 9e c0             	setle  %al
    9573:	0f b6 c0             	movzbl %al,%eax
    9576:	89 c6                	mov    %eax,%esi
    9578:	bf dc 00 00 00       	mov    $0xdc,%edi
    957d:	e8 f6 c5 ff ff       	callq  5b78 <safe_sub_func_uint8_t_u_u>
    9582:	48 8b 15 07 8b 00 00 	mov    0x8b07(%rip),%rdx        # 12090 <g_119>
    9589:	8b 0a                	mov    (%rdx),%ecx
    958b:	0f b6 d0             	movzbl %al,%edx
    958e:	48 8b 05 fb 8a 00 00 	mov    0x8afb(%rip),%rax        # 12090 <g_119>
    9595:	09 ca                	or     %ecx,%edx
    9597:	89 10                	mov    %edx,(%rax)
    9599:	48 8b 85 b8 fe ff ff 	mov    -0x148(%rbp),%rax
    95a0:	0f b6 d8             	movzbl %al,%ebx
    95a3:	48 83 bd d8 fe ff ff 	cmpq   $0x0,-0x128(%rbp)
    95aa:	00 
    95ab:	75 13                	jne    95c0 <func_40+0x52a>
    95ad:	48 8b 05 64 7b 00 00 	mov    0x7b64(%rip),%rax        # 11118 <g_1367>
    95b4:	48 85 c0             	test   %rax,%rax
    95b7:	74 07                	je     95c0 <func_40+0x52a>
    95b9:	b8 01 00 00 00       	mov    $0x1,%eax
    95be:	eb 05                	jmp    95c5 <func_40+0x52f>
    95c0:	b8 00 00 00 00       	mov    $0x0,%eax
    95c5:	83 f8 02             	cmp    $0x2,%eax
    95c8:	0f 97 c0             	seta   %al
    95cb:	0f b6 d0             	movzbl %al,%edx
    95ce:	48 8b 05 9b 8f 00 00 	mov    0x8f9b(%rip),%rax        # 12570 <g_777>
    95d5:	48 8b 00             	mov    (%rax),%rax
    95d8:	0f b6 08             	movzbl (%rax),%ecx
    95db:	48 8b 05 96 8f 00 00 	mov    0x8f96(%rip),%rax        # 12578 <g_776>
    95e2:	48 8b 00             	mov    (%rax),%rax
    95e5:	48 8b 00             	mov    (%rax),%rax
    95e8:	0f b6 00             	movzbl (%rax),%eax
    95eb:	38 c1                	cmp    %al,%cl
    95ed:	0f 92 c0             	setb   %al
    95f0:	0f b6 c0             	movzbl %al,%eax
    95f3:	89 d6                	mov    %edx,%esi
    95f5:	89 c7                	mov    %eax,%edi
    95f7:	e8 f9 bd ff ff       	callq  53f5 <safe_mul_func_int16_t_s_s>
    95fc:	0f b6 85 5f ff ff ff 	movzbl -0xa1(%rbp),%eax
    9603:	0f b6 c0             	movzbl %al,%eax
    9606:	89 85 c8 fe ff ff    	mov    %eax,-0x138(%rbp)
    960c:	8b 85 c8 fe ff ff    	mov    -0x138(%rbp),%eax
    9612:	be 01 00 00 00       	mov    $0x1,%esi
    9617:	89 c7                	mov    %eax,%edi
    9619:	e8 df c8 ff ff       	callq  5efd <safe_mod_func_uint32_t_u_u>
    961e:	89 de                	mov    %ebx,%esi
    9620:	bf 01 00 00 00       	mov    $0x1,%edi
    9625:	e8 84 c5 ff ff       	callq  5bae <safe_mod_func_uint8_t_u_u>
    962a:	0f b6 d0             	movzbl %al,%edx
    962d:	0f b6 45 e1          	movzbl -0x1f(%rbp),%eax
    9631:	0f b6 c0             	movzbl %al,%eax
    9634:	89 d6                	mov    %edx,%esi
    9636:	89 c7                	mov    %eax,%edi
    9638:	e8 c2 c6 ff ff       	callq  5cff <safe_add_func_uint16_t_u_u>
    963d:	66 85 c0             	test   %ax,%ax
    9640:	74 2b                	je     966d <func_40+0x5d7>
    9642:	48 8b 05 17 8f 00 00 	mov    0x8f17(%rip),%rax        # 12560 <g_635>
    9649:	8b 08                	mov    (%rax),%ecx
    964b:	8b 05 7f 7a 00 00    	mov    0x7a7f(%rip),%eax        # 110d0 <g_593>
    9651:	89 c0                	mov    %eax,%eax
    9653:	48 39 85 b8 fe ff ff 	cmp    %rax,-0x148(%rbp)
    965a:	0f 9c c0             	setl   %al
    965d:	0f b6 d0             	movzbl %al,%edx
    9660:	48 8b 05 f9 8e 00 00 	mov    0x8ef9(%rip),%rax        # 12560 <g_635>
    9667:	09 ca                	or     %ecx,%edx
    9669:	89 10                	mov    %edx,(%rax)
    966b:	eb 10                	jmp    967d <func_40+0x5e7>
    966d:	48 8b 05 ec 8e 00 00 	mov    0x8eec(%rip),%rax        # 12560 <g_635>
    9674:	48 8b 95 b8 fe ff ff 	mov    -0x148(%rbp),%rdx
    967b:	89 10                	mov    %edx,(%rax)
    967d:	48 8b 05 74 8a 00 00 	mov    0x8a74(%rip),%rax        # 120f8 <g_566>
    9684:	48 8b 95 e8 fe ff ff 	mov    -0x118(%rbp),%rdx
    968b:	48 89 10             	mov    %rdx,(%rax)
    968e:	0f b7 05 cf 79 00 00 	movzwl 0x79cf(%rip),%eax        # 11064 <g_13+0x24>
    9695:	0f b7 c0             	movzwl %ax,%eax
    9698:	48 8b 5d e8          	mov    -0x18(%rbp),%rbx
    969c:	64 48 33 1c 25 28 00 	xor    %fs:0x28,%rbx
    96a3:	00 00 
    96a5:	74 05                	je     96ac <func_40+0x616>
    96a7:	e8 c4 b9 ff ff       	callq  5070 <__stack_chk_fail@plt>
    96ac:	48 81 c4 48 01 00 00 	add    $0x148,%rsp
    96b3:	5b                   	pop    %rbx
    96b4:	5d                   	pop    %rbp
    96b5:	c3                   	retq   

00000000000096b6 <func_42>:
    96b6:	f3 0f 1e fa          	endbr64 
    96ba:	55                   	push   %rbp
    96bb:	48 89 e5             	mov    %rsp,%rbp
    96be:	41 55                	push   %r13
    96c0:	41 54                	push   %r12
    96c2:	53                   	push   %rbx
    96c3:	48 81 ec a8 00 00 00 	sub    $0xa8,%rsp
    96ca:	48 89 bd 48 ff ff ff 	mov    %rdi,-0xb8(%rbp)
    96d1:	64 48 8b 04 25 28 00 	mov    %fs:0x28,%rax
    96d8:	00 00 
    96da:	48 89 45 d8          	mov    %rax,-0x28(%rbp)
    96de:	31 c0                	xor    %eax,%eax
    96e0:	48 8d 05 95 79 00 00 	lea    0x7995(%rip),%rax        # 1107c <g_81>
    96e7:	48 89 85 78 ff ff ff 	mov    %rax,-0x88(%rbp)
    96ee:	c7 85 64 ff ff ff fc 	movl   $0xfffffffc,-0x9c(%rbp)
    96f5:	ff ff ff 
    96f8:	48 8d 05 af 79 00 00 	lea    0x79af(%rip),%rax        # 110ae <g_211>
    96ff:	48 89 45 80          	mov    %rax,-0x80(%rbp)
    9703:	48 8d 05 5a 79 00 00 	lea    0x795a(%rip),%rax        # 11064 <g_13+0x24>
    970a:	48 89 85 68 ff ff ff 	mov    %rax,-0x98(%rbp)
    9711:	48 8d 05 c8 79 00 00 	lea    0x79c8(%rip),%rax        # 110e0 <g_1106>
    9718:	48 89 85 70 ff ff ff 	mov    %rax,-0x90(%rbp)
    971f:	48 8d 85 70 ff ff ff 	lea    -0x90(%rbp),%rax
    9726:	48 89 45 88          	mov    %rax,-0x78(%rbp)
    972a:	c7 85 5c ff ff ff 00 	movl   $0x0,-0xa4(%rbp)
    9731:	00 00 00 
    9734:	eb 17                	jmp    974d <func_42+0x97>
    9736:	8b 85 5c ff ff ff    	mov    -0xa4(%rbp),%eax
    973c:	48 98                	cltq   
    973e:	c7 44 85 a0 b6 b7 b0 	movl   $0x1bb0b7b6,-0x60(%rbp,%rax,4)
    9745:	1b 
    9746:	83 85 5c ff ff ff 01 	addl   $0x1,-0xa4(%rbp)
    974d:	83 bd 5c ff ff ff 04 	cmpl   $0x4,-0xa4(%rbp)
    9754:	7e e0                	jle    9736 <func_42+0x80>
    9756:	c7 85 5c ff ff ff 00 	movl   $0x0,-0xa4(%rbp)
    975d:	00 00 00 
    9760:	eb 1b                	jmp    977d <func_42+0xc7>
    9762:	8b 85 5c ff ff ff    	mov    -0xa4(%rbp),%eax
    9768:	48 98                	cltq   
    976a:	48 8d 95 68 ff ff ff 	lea    -0x98(%rbp),%rdx
    9771:	48 89 54 c5 98       	mov    %rdx,-0x68(%rbp,%rax,8)
    9776:	83 85 5c ff ff ff 01 	addl   $0x1,-0xa4(%rbp)
    977d:	83 bd 5c ff ff ff 00 	cmpl   $0x0,-0xa4(%rbp)
    9784:	7e dc                	jle    9762 <func_42+0xac>
    9786:	48 c7 05 07 79 00 00 	movq   $0xfffffffffffffff4,0x7907(%rip)        # 11098 <g_116>
    978d:	f4 ff ff ff 
    9791:	eb 2b                	jmp    97be <func_42+0x108>
    9793:	48 8d 05 a6 a1 00 00 	lea    0xa1a6(%rip),%rax        # 13940 <g_992>
    979a:	48 89 45 90          	mov    %rax,-0x70(%rbp)
    979e:	48 8b 05 53 89 00 00 	mov    0x8953(%rip),%rax        # 120f8 <g_566>
    97a5:	48 8b 00             	mov    (%rax),%rax
    97a8:	48 89 45 90          	mov    %rax,-0x70(%rbp)
    97ac:	48 8b 05 e5 78 00 00 	mov    0x78e5(%rip),%rax        # 11098 <g_116>
    97b3:	48 83 c0 01          	add    $0x1,%rax
    97b7:	48 89 05 da 78 00 00 	mov    %rax,0x78da(%rip)        # 11098 <g_116>
    97be:	48 8b 05 d3 78 00 00 	mov    0x78d3(%rip),%rax        # 11098 <g_116>
    97c5:	48 83 f8 17          	cmp    $0x17,%rax
    97c9:	77 c8                	ja     9793 <func_42+0xdd>
    97cb:	8b 05 53 78 00 00    	mov    0x7853(%rip),%eax        # 11024 <g_4>
    97d1:	0f b7 d8             	movzwl %ax,%ebx
    97d4:	8b 85 64 ff ff ff    	mov    -0x9c(%rbp),%eax
    97da:	4c 63 e0             	movslq %eax,%r12
    97dd:	83 bd 64 ff ff ff 00 	cmpl   $0x0,-0x9c(%rbp)
    97e4:	75 17                	jne    97fd <func_42+0x147>
    97e6:	8b 55 a8             	mov    -0x58(%rbp),%edx
    97e9:	0f b7 05 78 78 00 00 	movzwl 0x7878(%rip),%eax        # 11068 <g_13+0x28>
    97f0:	0f b7 c0             	movzwl %ax,%eax
    97f3:	09 d0                	or     %edx,%eax
    97f5:	89 45 a8             	mov    %eax,-0x58(%rbp)
    97f8:	8b 45 a8             	mov    -0x58(%rbp),%eax
    97fb:	85 c0                	test   %eax,%eax
    97fd:	8b 45 a8             	mov    -0x58(%rbp),%eax
    9800:	44 0f b6 e8          	movzbl %al,%r13d
    9804:	8b 85 64 ff ff ff    	mov    -0x9c(%rbp),%eax
    980a:	0f be d0             	movsbl %al,%edx
    980d:	48 8b 4d 98          	mov    -0x68(%rbp),%rcx
    9811:	48 c7 05 5c 92 00 00 	movq   $0x0,0x925c(%rip)        # 12a78 <g_1397>
    9818:	00 00 00 00 
    981c:	48 8b 05 55 92 00 00 	mov    0x9255(%rip),%rax        # 12a78 <g_1397>
    9823:	48 39 c1             	cmp    %rax,%rcx
    9826:	0f 94 c0             	sete   %al
    9829:	0f b6 c0             	movzbl %al,%eax
    982c:	89 d6                	mov    %edx,%esi
    982e:	89 c7                	mov    %eax,%edi
    9830:	e8 9f b9 ff ff       	callq  51d4 <safe_add_func_int8_t_s_s>
    9835:	0f be c0             	movsbl %al,%eax
    9838:	be 1b 00 00 00       	mov    $0x1b,%esi
    983d:	89 c7                	mov    %eax,%edi
    983f:	e8 90 b9 ff ff       	callq  51d4 <safe_add_func_int8_t_s_s>
    9844:	0f b6 c0             	movzbl %al,%eax
    9847:	44 89 ee             	mov    %r13d,%esi
    984a:	89 c7                	mov    %eax,%edi
    984c:	e8 27 c3 ff ff       	callq  5b78 <safe_sub_func_uint8_t_u_u>
    9851:	8b 85 64 ff ff ff    	mov    -0x9c(%rbp),%eax
    9857:	89 c2                	mov    %eax,%edx
    9859:	48 8b 45 80          	mov    -0x80(%rbp),%rax
    985d:	66 89 10             	mov    %dx,(%rax)
    9860:	48 8b 45 80          	mov    -0x80(%rbp),%rax
    9864:	0f b7 00             	movzwl (%rax),%eax
    9867:	98                   	cwtl   
    9868:	be 00 00 00 00       	mov    $0x0,%esi
    986d:	89 c7                	mov    %eax,%edi
    986f:	e8 6d bc ff ff       	callq  54e1 <safe_lshift_func_int16_t_s_u>
    9874:	0f b7 c0             	movzwl %ax,%eax
    9877:	89 c7                	mov    %eax,%edi
    9879:	e8 6b c4 ff ff       	callq  5ce9 <safe_unary_minus_func_uint16_t_u>
    987e:	8b 45 a8             	mov    -0x58(%rbp),%eax
    9881:	39 85 64 ff ff ff    	cmp    %eax,-0x9c(%rbp)
    9887:	83 bd 64 ff ff ff 00 	cmpl   $0x0,-0x9c(%rbp)
    988e:	74 07                	je     9897 <func_42+0x1e1>
    9890:	b8 01 00 00 00       	mov    $0x1,%eax
    9895:	eb 05                	jmp    989c <func_42+0x1e6>
    9897:	b8 00 00 00 00       	mov    $0x0,%eax
    989c:	0f b7 c0             	movzwl %ax,%eax
    989f:	89 c6                	mov    %eax,%esi
    98a1:	bf f6 ff 00 00       	mov    $0xfff6,%edi
    98a6:	e8 74 c4 ff ff       	callq  5d1f <safe_sub_func_uint16_t_u_u>
    98ab:	89 c2                	mov    %eax,%edx
    98ad:	8b 85 64 ff ff ff    	mov    -0x9c(%rbp),%eax
    98b3:	21 d0                	and    %edx,%eax
    98b5:	0f b7 d0             	movzwl %ax,%edx
    98b8:	48 8b 85 48 ff ff ff 	mov    -0xb8(%rbp),%rax
    98bf:	0f b7 00             	movzwl (%rax),%eax
    98c2:	0f b7 c0             	movzwl %ax,%eax
    98c5:	89 d6                	mov    %edx,%esi
    98c7:	89 c7                	mov    %eax,%edi
    98c9:	e8 51 c4 ff ff       	callq  5d1f <safe_sub_func_uint16_t_u_u>
    98ce:	0f b7 d0             	movzwl %ax,%edx
    98d1:	48 8b 05 90 8c 00 00 	mov    0x8c90(%rip),%rax        # 12568 <g_778>
    98d8:	0f b6 00             	movzbl (%rax),%eax
    98db:	0f b6 c0             	movzbl %al,%eax
    98de:	31 d0                	xor    %edx,%eax
    98e0:	48 98                	cltq   
    98e2:	4c 89 e6             	mov    %r12,%rsi
    98e5:	48 89 c7             	mov    %rax,%rdi
    98e8:	e8 c2 c7 ff ff       	callq  60af <safe_div_func_uint64_t_u_u>
    98ed:	0f b7 c0             	movzwl %ax,%eax
    98f0:	89 de                	mov    %ebx,%esi
    98f2:	89 c7                	mov    %eax,%edi
    98f4:	e8 44 c4 ff ff       	callq  5d3d <safe_mul_func_uint16_t_u_u>
    98f9:	66 85 c0             	test   %ax,%ax
    98fc:	74 65                	je     9963 <func_42+0x2ad>
    98fe:	66 c7 05 05 78 00 00 	movw   $0x0,0x7805(%rip)        # 1110c <g_1245>
    9905:	00 00 
    9907:	eb 29                	jmp    9932 <func_42+0x27c>
    9909:	83 bd 64 ff ff ff 00 	cmpl   $0x0,-0x9c(%rbp)
    9910:	75 2f                	jne    9941 <func_42+0x28b>
    9912:	0f b7 05 f3 77 00 00 	movzwl 0x77f3(%rip),%eax        # 1110c <g_1245>
    9919:	0f b6 c0             	movzbl %al,%eax
    991c:	be 01 00 00 00       	mov    $0x1,%esi
    9921:	89 c7                	mov    %eax,%edi
    9923:	e8 32 c2 ff ff       	callq  5b5a <safe_add_func_uint8_t_u_u>
    9928:	0f b6 c0             	movzbl %al,%eax
    992b:	66 89 05 da 77 00 00 	mov    %ax,0x77da(%rip)        # 1110c <g_1245>
    9932:	0f b7 05 d3 77 00 00 	movzwl 0x77d3(%rip),%eax        # 1110c <g_1245>
    9939:	66 83 f8 24          	cmp    $0x24,%ax
    993d:	77 ca                	ja     9909 <func_42+0x253>
    993f:	eb 01                	jmp    9942 <func_42+0x28c>
    9941:	90                   	nop
    9942:	48 8b 05 17 8c 00 00 	mov    0x8c17(%rip),%rax        # 12560 <g_635>
    9949:	8b 08                	mov    (%rax),%ecx
    994b:	48 83 7d 88 00       	cmpq   $0x0,-0x78(%rbp)
    9950:	0f 94 c0             	sete   %al
    9953:	0f b6 d0             	movzbl %al,%edx
    9956:	48 8b 05 03 8c 00 00 	mov    0x8c03(%rip),%rax        # 12560 <g_635>
    995d:	09 ca                	or     %ecx,%edx
    995f:	89 10                	mov    %edx,(%rax)
    9961:	eb 3b                	jmp    999e <func_42+0x2e8>
    9963:	c7 85 60 ff ff ff 00 	movl   $0x0,-0xa0(%rbp)
    996a:	00 00 00 
    996d:	eb 18                	jmp    9987 <func_42+0x2d1>
    996f:	8b 85 60 ff ff ff    	mov    -0xa0(%rbp),%eax
    9975:	48 98                	cltq   
    9977:	48 c7 44 c5 c0 00 00 	movq   $0x0,-0x40(%rbp,%rax,8)
    997e:	00 00 
    9980:	83 85 60 ff ff ff 01 	addl   $0x1,-0xa0(%rbp)
    9987:	83 bd 60 ff ff ff 02 	cmpl   $0x2,-0xa0(%rbp)
    998e:	7e df                	jle    996f <func_42+0x2b9>
    9990:	48 8b 05 61 87 00 00 	mov    0x8761(%rip),%rax        # 120f8 <g_566>
    9997:	48 8b 55 d0          	mov    -0x30(%rbp),%rdx
    999b:	48 89 10             	mov    %rdx,(%rax)
    999e:	48 8b 05 cb 90 00 00 	mov    0x90cb(%rip),%rax        # 12a70 <g_1398>
    99a5:	0f b7 00             	movzwl (%rax),%eax
    99a8:	48 8b 5d d8          	mov    -0x28(%rbp),%rbx
    99ac:	64 48 33 1c 25 28 00 	xor    %fs:0x28,%rbx
    99b3:	00 00 
    99b5:	74 05                	je     99bc <func_42+0x306>
    99b7:	e8 b4 b6 ff ff       	callq  5070 <__stack_chk_fail@plt>
    99bc:	48 81 c4 a8 00 00 00 	add    $0xa8,%rsp
    99c3:	5b                   	pop    %rbx
    99c4:	41 5c                	pop    %r12
    99c6:	41 5d                	pop    %r13
    99c8:	5d                   	pop    %rbp
    99c9:	c3                   	retq   

00000000000099ca <func_44>:
    99ca:	f3 0f 1e fa          	endbr64 
    99ce:	55                   	push   %rbp
    99cf:	48 89 e5             	mov    %rsp,%rbp
    99d2:	48 81 ec 40 05 00 00 	sub    $0x540,%rsp
    99d9:	48 89 bd c8 fa ff ff 	mov    %rdi,-0x538(%rbp)
    99e0:	64 48 8b 04 25 28 00 	mov    %fs:0x28,%rax
    99e7:	00 00 
    99e9:	48 89 45 f8          	mov    %rax,-0x8(%rbp)
    99ed:	31 c0                	xor    %eax,%eax
    99ef:	c6 85 db fa ff ff 01 	movb   $0x1,-0x525(%rbp)
    99f6:	48 c7 85 30 fc ff ff 	movq   $0x0,-0x3d0(%rbp)
    99fd:	00 00 00 00 
    9a01:	48 8d 85 db fa ff ff 	lea    -0x525(%rbp),%rax
    9a08:	48 89 85 38 fc ff ff 	mov    %rax,-0x3c8(%rbp)
    9a0f:	48 c7 85 40 fc ff ff 	movq   $0x0,-0x3c0(%rbp)
    9a16:	00 00 00 00 
    9a1a:	48 c7 85 48 fc ff ff 	movq   $0x0,-0x3b8(%rbp)
    9a21:	00 00 00 00 
    9a25:	48 8d 85 db fa ff ff 	lea    -0x525(%rbp),%rax
    9a2c:	48 89 85 50 fc ff ff 	mov    %rax,-0x3b0(%rbp)
    9a33:	48 c7 85 58 fc ff ff 	movq   $0x0,-0x3a8(%rbp)
    9a3a:	00 00 00 00 
    9a3e:	48 c7 85 60 fc ff ff 	movq   $0x0,-0x3a0(%rbp)
    9a45:	00 00 00 00 
    9a49:	c7 85 00 fb ff ff df 	movl   $0x12106df,-0x500(%rbp)
    9a50:	06 21 01 
    9a53:	c7 85 04 fb ff ff c5 	movl   $0x3d476fc5,-0x4fc(%rbp)
    9a5a:	6f 47 3d 
    9a5d:	c7 85 e0 fb ff ff 63 	movl   $0x4484a863,-0x420(%rbp)
    9a64:	a8 84 44 
    9a67:	c7 85 e4 fb ff ff 63 	movl   $0x4484a863,-0x41c(%rbp)
    9a6e:	a8 84 44 
    9a71:	c7 85 e8 fb ff ff 03 	movl   $0x3,-0x418(%rbp)
    9a78:	00 00 00 
    9a7b:	c7 85 ec fb ff ff 63 	movl   $0x4484a863,-0x414(%rbp)
    9a82:	a8 84 44 
    9a85:	c7 85 f0 fb ff ff 63 	movl   $0x4484a863,-0x410(%rbp)
    9a8c:	a8 84 44 
    9a8f:	c7 85 f4 fb ff ff 03 	movl   $0x3,-0x40c(%rbp)
    9a96:	00 00 00 
    9a99:	48 8d 05 00 76 00 00 	lea    0x7600(%rip),%rax        # 110a0 <g_165>
    9aa0:	48 89 85 38 fb ff ff 	mov    %rax,-0x4c8(%rbp)
    9aa7:	48 8d 85 38 fb ff ff 	lea    -0x4c8(%rbp),%rax
    9aae:	48 89 85 58 fb ff ff 	mov    %rax,-0x4a8(%rbp)
    9ab5:	c7 85 08 fb ff ff 00 	movl   $0x0,-0x4f8(%rbp)
    9abc:	00 00 00 
    9abf:	c6 85 dc fa ff ff 00 	movb   $0x0,-0x524(%rbp)
    9ac6:	c7 85 0c fb ff ff 1f 	movl   $0x99a62c1f,-0x4f4(%rbp)
    9acd:	2c a6 99 
    9ad0:	c6 85 dd fa ff ff 74 	movb   $0x74,-0x523(%rbp)
    9ad7:	48 8d 85 c0 fc ff ff 	lea    -0x340(%rbp),%rax
    9ade:	48 83 c0 14          	add    $0x14,%rax
    9ae2:	48 89 85 b0 fe ff ff 	mov    %rax,-0x150(%rbp)
    9ae9:	48 8d 85 e0 fb ff ff 	lea    -0x420(%rbp),%rax
    9af0:	48 83 c0 14          	add    $0x14,%rax
    9af4:	48 89 85 b8 fe ff ff 	mov    %rax,-0x148(%rbp)
    9afb:	48 8d 05 26 75 00 00 	lea    0x7526(%rip),%rax        # 11028 <g_8>
    9b02:	48 89 85 c0 fe ff ff 	mov    %rax,-0x140(%rbp)
    9b09:	48 8d 85 e0 fb ff ff 	lea    -0x420(%rbp),%rax
    9b10:	48 83 c0 14          	add    $0x14,%rax
    9b14:	48 89 85 c8 fe ff ff 	mov    %rax,-0x138(%rbp)
    9b1b:	48 8d 85 c0 fc ff ff 	lea    -0x340(%rbp),%rax
    9b22:	48 83 c0 14          	add    $0x14,%rax
    9b26:	48 89 85 d0 fe ff ff 	mov    %rax,-0x130(%rbp)
    9b2d:	48 8d 85 c0 fc ff ff 	lea    -0x340(%rbp),%rax
    9b34:	48 83 c0 2c          	add    $0x2c,%rax
    9b38:	48 89 85 d8 fe ff ff 	mov    %rax,-0x128(%rbp)
    9b3f:	48 8d 85 c0 fc ff ff 	lea    -0x340(%rbp),%rax
    9b46:	48 83 c0 14          	add    $0x14,%rax
    9b4a:	48 89 85 e0 fe ff ff 	mov    %rax,-0x120(%rbp)
    9b51:	48 8d 85 e0 fb ff ff 	lea    -0x420(%rbp),%rax
    9b58:	48 83 c0 14          	add    $0x14,%rax
    9b5c:	48 89 85 e8 fe ff ff 	mov    %rax,-0x118(%rbp)
    9b63:	48 8d 85 c0 fc ff ff 	lea    -0x340(%rbp),%rax
    9b6a:	48 83 c0 14          	add    $0x14,%rax
    9b6e:	48 89 85 f0 fe ff ff 	mov    %rax,-0x110(%rbp)
    9b75:	48 c7 85 f8 fe ff ff 	movq   $0x0,-0x108(%rbp)
    9b7c:	00 00 00 00 
    9b80:	48 c7 85 00 ff ff ff 	movq   $0x0,-0x100(%rbp)
    9b87:	00 00 00 00 
    9b8b:	48 8d 85 c0 fc ff ff 	lea    -0x340(%rbp),%rax
    9b92:	48 83 c0 2c          	add    $0x2c,%rax
    9b96:	48 89 85 08 ff ff ff 	mov    %rax,-0xf8(%rbp)
    9b9d:	48 8d 05 84 74 00 00 	lea    0x7484(%rip),%rax        # 11028 <g_8>
    9ba4:	48 89 85 10 ff ff ff 	mov    %rax,-0xf0(%rbp)
    9bab:	48 c7 85 18 ff ff ff 	movq   $0x0,-0xe8(%rbp)
    9bb2:	00 00 00 00 
    9bb6:	48 8d 05 6b 74 00 00 	lea    0x746b(%rip),%rax        # 11028 <g_8>
    9bbd:	48 89 85 20 ff ff ff 	mov    %rax,-0xe0(%rbp)
    9bc4:	48 8d 85 c0 fc ff ff 	lea    -0x340(%rbp),%rax
    9bcb:	48 83 c0 2c          	add    $0x2c,%rax
    9bcf:	48 89 85 28 ff ff ff 	mov    %rax,-0xd8(%rbp)
    9bd6:	48 c7 85 30 ff ff ff 	movq   $0x0,-0xd0(%rbp)
    9bdd:	00 00 00 00 
    9be1:	48 8d 85 c0 fc ff ff 	lea    -0x340(%rbp),%rax
    9be8:	48 83 c0 2c          	add    $0x2c,%rax
    9bec:	48 89 85 38 ff ff ff 	mov    %rax,-0xc8(%rbp)
    9bf3:	48 8d 05 2e 74 00 00 	lea    0x742e(%rip),%rax        # 11028 <g_8>
    9bfa:	48 89 85 40 ff ff ff 	mov    %rax,-0xc0(%rbp)
    9c01:	48 c7 85 48 ff ff ff 	movq   $0x0,-0xb8(%rbp)
    9c08:	00 00 00 00 
    9c0c:	48 8d 05 15 74 00 00 	lea    0x7415(%rip),%rax        # 11028 <g_8>
    9c13:	48 89 85 50 ff ff ff 	mov    %rax,-0xb0(%rbp)
    9c1a:	48 c7 85 58 ff ff ff 	movq   $0x0,-0xa8(%rbp)
    9c21:	00 00 00 00 
    9c25:	48 8d 05 fc 73 00 00 	lea    0x73fc(%rip),%rax        # 11028 <g_8>
    9c2c:	48 89 85 60 ff ff ff 	mov    %rax,-0xa0(%rbp)
    9c33:	48 8d 85 c0 fc ff ff 	lea    -0x340(%rbp),%rax
    9c3a:	48 83 c0 2c          	add    $0x2c,%rax
    9c3e:	48 89 85 68 ff ff ff 	mov    %rax,-0x98(%rbp)
    9c45:	48 c7 85 70 ff ff ff 	movq   $0x0,-0x90(%rbp)
    9c4c:	00 00 00 00 
    9c50:	48 8d 85 c0 fc ff ff 	lea    -0x340(%rbp),%rax
    9c57:	48 83 c0 2c          	add    $0x2c,%rax
    9c5b:	48 89 85 78 ff ff ff 	mov    %rax,-0x88(%rbp)
    9c62:	48 8d 05 bf 73 00 00 	lea    0x73bf(%rip),%rax        # 11028 <g_8>
    9c69:	48 89 45 80          	mov    %rax,-0x80(%rbp)
    9c6d:	48 c7 45 88 00 00 00 	movq   $0x0,-0x78(%rbp)
    9c74:	00 
    9c75:	48 8d 05 ac 73 00 00 	lea    0x73ac(%rip),%rax        # 11028 <g_8>
    9c7c:	48 89 45 90          	mov    %rax,-0x70(%rbp)
    9c80:	48 8d 85 c0 fc ff ff 	lea    -0x340(%rbp),%rax
    9c87:	48 83 c0 2c          	add    $0x2c,%rax
    9c8b:	48 89 45 98          	mov    %rax,-0x68(%rbp)
    9c8f:	48 c7 45 a0 00 00 00 	movq   $0x0,-0x60(%rbp)
    9c96:	00 
    9c97:	48 c7 45 a8 00 00 00 	movq   $0x0,-0x58(%rbp)
    9c9e:	00 
    9c9f:	48 8d 85 c0 fc ff ff 	lea    -0x340(%rbp),%rax
    9ca6:	48 83 c0 14          	add    $0x14,%rax
    9caa:	48 89 45 b0          	mov    %rax,-0x50(%rbp)
    9cae:	48 c7 45 b8 00 00 00 	movq   $0x0,-0x48(%rbp)
    9cb5:	00 
    9cb6:	48 c7 45 c0 00 00 00 	movq   $0x0,-0x40(%rbp)
    9cbd:	00 
    9cbe:	48 8d 85 e0 fb ff ff 	lea    -0x420(%rbp),%rax
    9cc5:	48 83 c0 14          	add    $0x14,%rax
    9cc9:	48 89 45 c8          	mov    %rax,-0x38(%rbp)
    9ccd:	48 c7 45 d0 00 00 00 	movq   $0x0,-0x30(%rbp)
    9cd4:	00 
    9cd5:	48 c7 45 d8 00 00 00 	movq   $0x0,-0x28(%rbp)
    9cdc:	00 
    9cdd:	48 8d 85 c0 fc ff ff 	lea    -0x340(%rbp),%rax
    9ce4:	48 83 c0 14          	add    $0x14,%rax
    9ce8:	48 89 45 e0          	mov    %rax,-0x20(%rbp)
    9cec:	48 c7 45 e8 00 00 00 	movq   $0x0,-0x18(%rbp)
    9cf3:	00 
    9cf4:	48 8d 85 b0 fe ff ff 	lea    -0x150(%rbp),%rax
    9cfb:	48 05 30 01 00 00    	add    $0x130,%rax
    9d01:	48 89 85 90 fd ff ff 	mov    %rax,-0x270(%rbp)
    9d08:	48 8d 85 b0 fe ff ff 	lea    -0x150(%rbp),%rax
    9d0f:	48 05 a8 00 00 00    	add    $0xa8,%rax
    9d15:	48 89 85 98 fd ff ff 	mov    %rax,-0x268(%rbp)
    9d1c:	48 8d 85 b0 fe ff ff 	lea    -0x150(%rbp),%rax
    9d23:	48 05 30 01 00 00    	add    $0x130,%rax
    9d29:	48 89 85 a0 fd ff ff 	mov    %rax,-0x260(%rbp)
    9d30:	48 8d 85 b0 fe ff ff 	lea    -0x150(%rbp),%rax
    9d37:	48 05 a8 00 00 00    	add    $0xa8,%rax
    9d3d:	48 89 85 a8 fd ff ff 	mov    %rax,-0x258(%rbp)
    9d44:	48 8d 85 b0 fe ff ff 	lea    -0x150(%rbp),%rax
    9d4b:	48 05 30 01 00 00    	add    $0x130,%rax
    9d51:	48 89 85 b0 fd ff ff 	mov    %rax,-0x250(%rbp)
    9d58:	48 8d 85 b0 fe ff ff 	lea    -0x150(%rbp),%rax
    9d5f:	48 05 a8 00 00 00    	add    $0xa8,%rax
    9d65:	48 89 85 b8 fd ff ff 	mov    %rax,-0x248(%rbp)
    9d6c:	48 c7 85 c0 fd ff ff 	movq   $0x0,-0x240(%rbp)
    9d73:	00 00 00 00 
    9d77:	48 8d 85 b0 fe ff ff 	lea    -0x150(%rbp),%rax
    9d7e:	48 05 a8 00 00 00    	add    $0xa8,%rax
    9d84:	48 89 85 c8 fd ff ff 	mov    %rax,-0x238(%rbp)
    9d8b:	48 c7 85 d0 fd ff ff 	movq   $0x0,-0x230(%rbp)
    9d92:	00 00 00 00 
    9d96:	48 8d 85 b0 fe ff ff 	lea    -0x150(%rbp),%rax
    9d9d:	48 05 a8 00 00 00    	add    $0xa8,%rax
    9da3:	48 89 85 d8 fd ff ff 	mov    %rax,-0x228(%rbp)
    9daa:	48 c7 85 e0 fd ff ff 	movq   $0x0,-0x220(%rbp)
    9db1:	00 00 00 00 
    9db5:	48 8d 85 b0 fe ff ff 	lea    -0x150(%rbp),%rax
    9dbc:	48 05 a8 00 00 00    	add    $0xa8,%rax
    9dc2:	48 89 85 e8 fd ff ff 	mov    %rax,-0x218(%rbp)
    9dc9:	48 8d 85 b0 fe ff ff 	lea    -0x150(%rbp),%rax
    9dd0:	48 05 30 01 00 00    	add    $0x130,%rax
    9dd6:	48 89 85 f0 fd ff ff 	mov    %rax,-0x210(%rbp)
    9ddd:	48 8d 85 b0 fe ff ff 	lea    -0x150(%rbp),%rax
    9de4:	48 05 a8 00 00 00    	add    $0xa8,%rax
    9dea:	48 89 85 f8 fd ff ff 	mov    %rax,-0x208(%rbp)
    9df1:	48 8d 85 b0 fe ff ff 	lea    -0x150(%rbp),%rax
    9df8:	48 05 30 01 00 00    	add    $0x130,%rax
    9dfe:	48 89 85 00 fe ff ff 	mov    %rax,-0x200(%rbp)
    9e05:	48 8d 85 b0 fe ff ff 	lea    -0x150(%rbp),%rax
    9e0c:	48 05 a8 00 00 00    	add    $0xa8,%rax
    9e12:	48 89 85 08 fe ff ff 	mov    %rax,-0x1f8(%rbp)
    9e19:	48 8d 85 b0 fe ff ff 	lea    -0x150(%rbp),%rax
    9e20:	48 05 30 01 00 00    	add    $0x130,%rax
    9e26:	48 89 85 10 fe ff ff 	mov    %rax,-0x1f0(%rbp)
    9e2d:	48 8d 85 b0 fe ff ff 	lea    -0x150(%rbp),%rax
    9e34:	48 05 a8 00 00 00    	add    $0xa8,%rax
    9e3a:	48 89 85 18 fe ff ff 	mov    %rax,-0x1e8(%rbp)
    9e41:	48 8d 85 90 fd ff ff 	lea    -0x270(%rbp),%rax
    9e48:	48 83 c0 50          	add    $0x50,%rax
    9e4c:	48 89 85 60 fb ff ff 	mov    %rax,-0x4a0(%rbp)
    9e53:	48 8d 05 7e 9a 00 00 	lea    0x9a7e(%rip),%rax        # 138d8 <g_143+0x18>
    9e5a:	48 89 85 68 fb ff ff 	mov    %rax,-0x498(%rbp)
    9e61:	c7 85 f0 fa ff ff 00 	movl   $0x0,-0x510(%rbp)
    9e68:	00 00 00 
    9e6b:	c6 85 de fa ff ff 2d 	movb   $0x2d,-0x522(%rbp)
    9e72:	48 8d 85 f0 fa ff ff 	lea    -0x510(%rbp),%rax
    9e79:	48 89 85 40 fb ff ff 	mov    %rax,-0x4c0(%rbp)
    9e80:	48 8d 85 40 fb ff ff 	lea    -0x4c0(%rbp),%rax
    9e87:	48 89 85 70 fb ff ff 	mov    %rax,-0x490(%rbp)
    9e8e:	66 c7 85 e2 fa ff ff 	movw   $0x6,-0x51e(%rbp)
    9e95:	06 00 
    9e97:	48 c7 85 78 fb ff ff 	movq   $0x0,-0x488(%rbp)
    9e9e:	00 00 00 00 
    9ea2:	48 8d 05 ff 71 00 00 	lea    0x71ff(%rip),%rax        # 110a8 <g_170>
    9ea9:	48 89 85 20 fe ff ff 	mov    %rax,-0x1e0(%rbp)
    9eb0:	48 c7 85 28 fe ff ff 	movq   $0x0,-0x1d8(%rbp)
    9eb7:	00 00 00 00 
    9ebb:	48 c7 85 30 fe ff ff 	movq   $0x0,-0x1d0(%rbp)
    9ec2:	00 00 00 00 
    9ec6:	48 8d 05 db 71 00 00 	lea    0x71db(%rip),%rax        # 110a8 <g_170>
    9ecd:	48 89 85 38 fe ff ff 	mov    %rax,-0x1c8(%rbp)
    9ed4:	48 c7 85 40 fe ff ff 	movq   $0x0,-0x1c0(%rbp)
    9edb:	00 00 00 00 
    9edf:	48 c7 85 48 fe ff ff 	movq   $0x0,-0x1b8(%rbp)
    9ee6:	00 00 00 00 
    9eea:	48 8d 05 b7 71 00 00 	lea    0x71b7(%rip),%rax        # 110a8 <g_170>
    9ef1:	48 89 85 50 fe ff ff 	mov    %rax,-0x1b0(%rbp)
    9ef8:	48 c7 85 58 fe ff ff 	movq   $0x0,-0x1a8(%rbp)
    9eff:	00 00 00 00 
    9f03:	48 c7 85 60 fe ff ff 	movq   $0x0,-0x1a0(%rbp)
    9f0a:	00 00 00 00 
    9f0e:	48 8d 05 93 71 00 00 	lea    0x7193(%rip),%rax        # 110a8 <g_170>
    9f15:	48 89 85 68 fe ff ff 	mov    %rax,-0x198(%rbp)
    9f1c:	48 c7 85 70 fe ff ff 	movq   $0x0,-0x190(%rbp)
    9f23:	00 00 00 00 
    9f27:	48 c7 85 78 fe ff ff 	movq   $0x0,-0x188(%rbp)
    9f2e:	00 00 00 00 
    9f32:	48 8d 05 6f 71 00 00 	lea    0x716f(%rip),%rax        # 110a8 <g_170>
    9f39:	48 89 85 80 fe ff ff 	mov    %rax,-0x180(%rbp)
    9f40:	48 c7 85 88 fe ff ff 	movq   $0x0,-0x178(%rbp)
    9f47:	00 00 00 00 
    9f4b:	48 c7 85 90 fe ff ff 	movq   $0x0,-0x170(%rbp)
    9f52:	00 00 00 00 
    9f56:	48 8d 05 4b 71 00 00 	lea    0x714b(%rip),%rax        # 110a8 <g_170>
    9f5d:	48 89 85 98 fe ff ff 	mov    %rax,-0x168(%rbp)
    9f64:	48 c7 85 a0 fe ff ff 	movq   $0x0,-0x160(%rbp)
    9f6b:	00 00 00 00 
    9f6f:	48 c7 85 a8 fe ff ff 	movq   $0x0,-0x158(%rbp)
    9f76:	00 00 00 00 
    9f7a:	48 8d 85 20 fe ff ff 	lea    -0x1e0(%rbp),%rax
    9f81:	48 83 c0 20          	add    $0x20,%rax
    9f85:	48 89 85 80 fb ff ff 	mov    %rax,-0x480(%rbp)
    9f8c:	48 8d 85 d0 fb ff ff 	lea    -0x430(%rbp),%rax
    9f93:	48 89 85 88 fb ff ff 	mov    %rax,-0x478(%rbp)
    9f9a:	c7 85 10 fb ff ff 84 	movl   $0x65864a84,-0x4f0(%rbp)
    9fa1:	4a 86 65 
    9fa4:	66 c7 85 e4 fa ff ff 	movw   $0x6736,-0x51c(%rbp)
    9fab:	36 67 
    9fad:	c7 85 14 fb ff ff 00 	movl   $0x0,-0x4ec(%rbp)
    9fb4:	00 00 00 
    9fb7:	48 8d 05 9c 70 00 00 	lea    0x709c(%rip),%rax        # 1105a <g_13+0x1a>
    9fbe:	48 89 85 48 fb ff ff 	mov    %rax,-0x4b8(%rbp)
    9fc5:	48 8d 85 48 fb ff ff 	lea    -0x4b8(%rbp),%rax
    9fcc:	48 89 85 50 fb ff ff 	mov    %rax,-0x4b0(%rbp)
    9fd3:	48 8d 85 50 fb ff ff 	lea    -0x4b0(%rbp),%rax
    9fda:	48 89 85 90 fb ff ff 	mov    %rax,-0x470(%rbp)
    9fe1:	c7 85 18 fb ff ff 04 	movl   $0x4,-0x4e8(%rbp)
    9fe8:	00 00 00 
    9feb:	48 b8 e6 4a a4 15 a5 	movabs $0x5b4c28a515a44ae6,%rax
    9ff2:	28 4c 5b 
    9ff5:	48 89 85 98 fb ff ff 	mov    %rax,-0x468(%rbp)
    9ffc:	48 c7 85 a0 fb ff ff 	movq   $0x0,-0x460(%rbp)
    a003:	00 00 00 00 
    a007:	48 c7 85 a8 fb ff ff 	movq   $0x0,-0x458(%rbp)
    a00e:	00 00 00 00 
    a012:	c6 85 df fa ff ff 07 	movb   $0x7,-0x521(%rbp)
    a019:	48 b8 21 fd 1e d2 35 	movabs $0x21756a35d21efd21,%rax
    a020:	6a 75 21 
    a023:	48 89 85 b0 fb ff ff 	mov    %rax,-0x450(%rbp)
    a02a:	c7 85 1c fb ff ff 71 	movl   $0x15efee71,-0x4e4(%rbp)
    a031:	ee ef 15 
    a034:	c7 85 20 fb ff ff 5d 	movl   $0x23a94e5d,-0x4e0(%rbp)
    a03b:	4e a9 23 
    a03e:	66 c7 85 e6 fa ff ff 	movw   $0xfffe,-0x51a(%rbp)
    a045:	fe ff 
    a047:	c7 85 24 fb ff ff ff 	movl   $0xffffffff,-0x4dc(%rbp)
    a04e:	ff ff ff 
    a051:	c6 85 e0 fa ff ff d5 	movb   $0xd5,-0x520(%rbp)
    a058:	c7 85 28 fb ff ff db 	movl   $0xc4750cdb,-0x4d8(%rbp)
    a05f:	0c 75 c4 
    a062:	66 c7 85 e8 fa ff ff 	movw   $0x0,-0x518(%rbp)
    a069:	00 00 
    a06b:	66 c7 85 ea fa ff ff 	movw   $0x0,-0x516(%rbp)
    a072:	00 00 
    a074:	c7 85 2c fb ff ff 89 	movl   $0xb20a4b89,-0x4d4(%rbp)
    a07b:	4b 0a b2 
    a07e:	48 8d 85 ce fb ff ff 	lea    -0x432(%rbp),%rax
    a085:	48 89 85 b8 fb ff ff 	mov    %rax,-0x448(%rbp)
    a08c:	c7 85 30 fb ff ff 00 	movl   $0x0,-0x4d0(%rbp)
    a093:	00 00 00 
    a096:	66 c7 85 ec fa ff ff 	movw   $0xd869,-0x514(%rbp)
    a09d:	69 d8 
    a09f:	66 c7 85 ee fa ff ff 	movw   $0xfffc,-0x512(%rbp)
    a0a6:	fc ff 
    a0a8:	48 b8 ce 8b b0 25 a1 	movabs $0xa0b30fa125b08bce,%rax
    a0af:	0f b3 a0 
    a0b2:	48 89 85 c0 fb ff ff 	mov    %rax,-0x440(%rbp)
    a0b9:	c6 85 e1 fa ff ff 92 	movb   $0x92,-0x51f(%rbp)
    a0c0:	c7 85 34 fb ff ff aa 	movl   $0xf42fafaa,-0x4cc(%rbp)
    a0c7:	af 2f f4 
    a0ca:	48 c7 85 70 fc ff ff 	movq   $0x0,-0x390(%rbp)
    a0d1:	00 00 00 00 
    a0d5:	48 c7 85 78 fc ff ff 	movq   $0x0,-0x388(%rbp)
    a0dc:	00 00 00 00 
    a0e0:	48 c7 85 80 fc ff ff 	movq   $0x0,-0x380(%rbp)
    a0e7:	00 00 00 00 
    a0eb:	48 c7 85 88 fc ff ff 	movq   $0x0,-0x378(%rbp)
    a0f2:	00 00 00 00 
    a0f6:	48 c7 85 90 fc ff ff 	movq   $0x0,-0x370(%rbp)
    a0fd:	00 00 00 00 
    a101:	48 c7 85 98 fc ff ff 	movq   $0x0,-0x368(%rbp)
    a108:	00 00 00 00 
    a10c:	48 c7 85 a0 fc ff ff 	movq   $0x0,-0x360(%rbp)
    a113:	00 00 00 00 
    a117:	48 c7 85 a8 fc ff ff 	movq   $0x0,-0x358(%rbp)
    a11e:	00 00 00 00 
    a122:	48 c7 85 b0 fc ff ff 	movq   $0x0,-0x350(%rbp)
    a129:	00 00 00 00 
    a12d:	48 c7 85 b8 fc ff ff 	movq   $0x0,-0x348(%rbp)
    a134:	00 00 00 00 
    a138:	c7 85 20 fd ff ff 08 	movl   $0x95080008,-0x2e0(%rbp)
    a13f:	00 08 95 
    a142:	66 c7 85 24 fd ff ff 	movw   $0x895,-0x2dc(%rbp)
    a149:	95 08 
    a14b:	c7 85 26 fd ff ff 78 	movl   $0x957878,-0x2da(%rbp)
    a152:	78 95 00 
    a155:	66 c7 85 2a fd ff ff 	movw   $0x7895,-0x2d6(%rbp)
    a15c:	95 78 
    a15e:	c7 85 2c fd ff ff 95 	movl   $0x95,-0x2d4(%rbp)
    a165:	00 00 00 
    a168:	66 c7 85 30 fd ff ff 	movw   $0x9500,-0x2d0(%rbp)
    a16f:	00 95 
    a171:	c7 85 32 fd ff ff 78 	movl   $0x95009578,-0x2ce(%rbp)
    a178:	95 00 95 
    a17b:	66 c7 85 36 fd ff ff 	movw   $0x7878,-0x2ca(%rbp)
    a182:	78 78 
    a184:	c7 85 38 fd ff ff 08 	movl   $0x8959508,-0x2c8(%rbp)
    a18b:	95 95 08 
    a18e:	66 c7 85 3c fd ff ff 	movw   $0x800,-0x2c4(%rbp)
    a195:	00 08 
    a197:	c7 85 3e fd ff ff 08 	movl   $0x95080008,-0x2c2(%rbp)
    a19e:	00 08 95 
    a1a1:	66 c7 85 42 fd ff ff 	movw   $0x895,-0x2be(%rbp)
    a1a8:	95 08 
    a1aa:	c7 85 44 fd ff ff 78 	movl   $0x957878,-0x2bc(%rbp)
    a1b1:	78 95 00 
    a1b4:	66 c7 85 48 fd ff ff 	movw   $0x7895,-0x2b8(%rbp)
    a1bb:	95 78 
    a1bd:	c7 85 4a fd ff ff 95 	movl   $0x95,-0x2b6(%rbp)
    a1c4:	00 00 00 
    a1c7:	66 c7 85 4e fd ff ff 	movw   $0x9500,-0x2b2(%rbp)
    a1ce:	00 95 
    a1d0:	c7 85 50 fd ff ff 78 	movl   $0x95009578,-0x2b0(%rbp)
    a1d7:	95 00 95 
    a1da:	66 c7 85 54 fd ff ff 	movw   $0x7878,-0x2ac(%rbp)
    a1e1:	78 78 
    a1e3:	c7 85 56 fd ff ff 08 	movl   $0x8959508,-0x2aa(%rbp)
    a1ea:	95 95 08 
    a1ed:	66 c7 85 5a fd ff ff 	movw   $0x800,-0x2a6(%rbp)
    a1f4:	00 08 
    a1f6:	c7 85 5c fd ff ff 08 	movl   $0x95080008,-0x2a4(%rbp)
    a1fd:	00 08 95 
    a200:	66 c7 85 60 fd ff ff 	movw   $0x895,-0x2a0(%rbp)
    a207:	95 08 
    a209:	c7 85 62 fd ff ff 78 	movl   $0x957878,-0x29e(%rbp)
    a210:	78 95 00 
    a213:	66 c7 85 66 fd ff ff 	movw   $0x7895,-0x29a(%rbp)
    a21a:	95 78 
    a21c:	c7 85 68 fd ff ff 95 	movl   $0x95,-0x298(%rbp)
    a223:	00 00 00 
    a226:	66 c7 85 6c fd ff ff 	movw   $0x9500,-0x294(%rbp)
    a22d:	00 95 
    a22f:	c7 85 6e fd ff ff 78 	movl   $0x95009578,-0x292(%rbp)
    a236:	95 00 95 
    a239:	66 c7 85 72 fd ff ff 	movw   $0x7878,-0x28e(%rbp)
    a240:	78 78 
    a242:	c7 85 74 fd ff ff 08 	movl   $0x8959508,-0x28c(%rbp)
    a249:	95 95 08 
    a24c:	66 c7 85 78 fd ff ff 	movw   $0x800,-0x288(%rbp)
    a253:	00 08 
    a255:	c7 85 7a fd ff ff 08 	movl   $0x95080008,-0x286(%rbp)
    a25c:	00 08 95 
    a25f:	66 c7 85 7e fd ff ff 	movw   $0x895,-0x282(%rbp)
    a266:	95 08 
    a268:	c7 85 80 fd ff ff 78 	movl   $0x957878,-0x280(%rbp)
    a26f:	78 95 00 
    a272:	66 c7 85 84 fd ff ff 	movw   $0x7895,-0x27c(%rbp)
    a279:	95 78 
    a27b:	c7 85 86 fd ff ff 95 	movl   $0x95,-0x27a(%rbp)
    a282:	00 00 00 
    a285:	66 c7 85 8a fd ff ff 	movw   $0x878,-0x276(%rbp)
    a28c:	78 08 
    a28e:	c7 85 f4 fa ff ff 00 	movl   $0x0,-0x50c(%rbp)
    a295:	00 00 00 
    a298:	e9 86 00 00 00       	jmpq   a323 <func_44+0x959>
    a29d:	c7 85 f8 fa ff ff 00 	movl   $0x0,-0x508(%rbp)
    a2a4:	00 00 00 
    a2a7:	eb 6a                	jmp    a313 <func_44+0x949>
    a2a9:	c7 85 fc fa ff ff 00 	movl   $0x0,-0x504(%rbp)
    a2b0:	00 00 00 
    a2b3:	eb 4e                	jmp    a303 <func_44+0x939>
    a2b5:	8b 85 fc fa ff ff    	mov    -0x504(%rbp),%eax
    a2bb:	48 63 f0             	movslq %eax,%rsi
    a2be:	8b 85 f4 fa ff ff    	mov    -0x50c(%rbp),%eax
    a2c4:	48 63 d0             	movslq %eax,%rdx
    a2c7:	8b 85 f8 fa ff ff    	mov    -0x508(%rbp),%eax
    a2cd:	48 63 c8             	movslq %eax,%rcx
    a2d0:	48 89 d0             	mov    %rdx,%rax
    a2d3:	48 c1 e0 02          	shl    $0x2,%rax
    a2d7:	48 01 d0             	add    %rdx,%rax
    a2da:	48 c1 e0 02          	shl    $0x2,%rax
    a2de:	48 01 d0             	add    %rdx,%rax
    a2e1:	48 89 ca             	mov    %rcx,%rdx
    a2e4:	48 c1 e2 03          	shl    $0x3,%rdx
    a2e8:	48 29 ca             	sub    %rcx,%rdx
    a2eb:	48 01 d0             	add    %rdx,%rax
    a2ee:	48 01 f0             	add    %rsi,%rax
    a2f1:	c7 84 85 c0 fc ff ff 	movl   $0xe8d8232c,-0x340(%rbp,%rax,4)
    a2f8:	2c 23 d8 e8 
    a2fc:	83 85 fc fa ff ff 01 	addl   $0x1,-0x504(%rbp)
    a303:	83 bd fc fa ff ff 06 	cmpl   $0x6,-0x504(%rbp)
    a30a:	7e a9                	jle    a2b5 <func_44+0x8eb>
    a30c:	83 85 f8 fa ff ff 01 	addl   $0x1,-0x508(%rbp)
    a313:	83 bd f8 fa ff ff 02 	cmpl   $0x2,-0x508(%rbp)
    a31a:	7e 8d                	jle    a2a9 <func_44+0x8df>
    a31c:	83 85 f4 fa ff ff 01 	addl   $0x1,-0x50c(%rbp)
    a323:	83 bd f4 fa ff ff 00 	cmpl   $0x0,-0x50c(%rbp)
    a32a:	0f 8e 6d ff ff ff    	jle    a29d <func_44+0x8d3>
    a330:	c7 85 f4 fa ff ff 00 	movl   $0x0,-0x50c(%rbp)
    a337:	00 00 00 
    a33a:	eb 1e                	jmp    a35a <func_44+0x990>
    a33c:	8b 85 f4 fa ff ff    	mov    -0x50c(%rbp),%eax
    a342:	48 98                	cltq   
    a344:	48 8d 95 40 fb ff ff 	lea    -0x4c0(%rbp),%rdx
    a34b:	48 89 94 c5 00 fc ff 	mov    %rdx,-0x400(%rbp,%rax,8)
    a352:	ff 
    a353:	83 85 f4 fa ff ff 01 	addl   $0x1,-0x50c(%rbp)
    a35a:	83 bd f4 fa ff ff 04 	cmpl   $0x4,-0x50c(%rbp)
    a361:	7e d9                	jle    a33c <func_44+0x972>
    a363:	c7 85 f4 fa ff ff 00 	movl   $0x0,-0x50c(%rbp)
    a36a:	00 00 00 
    a36d:	eb 1e                	jmp    a38d <func_44+0x9c3>
    a36f:	8b 85 f4 fa ff ff    	mov    -0x50c(%rbp),%eax
    a375:	48 98                	cltq   
    a377:	48 8d 15 52 6d 00 00 	lea    0x6d52(%rip),%rdx        # 110d0 <g_593>
    a37e:	48 89 94 c5 d0 fb ff 	mov    %rdx,-0x430(%rbp,%rax,8)
    a385:	ff 
    a386:	83 85 f4 fa ff ff 01 	addl   $0x1,-0x50c(%rbp)
    a38d:	83 bd f4 fa ff ff 00 	cmpl   $0x0,-0x50c(%rbp)
    a394:	7e d9                	jle    a36f <func_44+0x9a5>
    a396:	c7 85 f4 fa ff ff 00 	movl   $0x0,-0x50c(%rbp)
    a39d:	00 00 00 
    a3a0:	eb 1a                	jmp    a3bc <func_44+0x9f2>
    a3a2:	8b 85 f4 fa ff ff    	mov    -0x50c(%rbp),%eax
    a3a8:	48 98                	cltq   
    a3aa:	c7 84 85 d8 fb ff ff 	movl   $0x0,-0x428(%rbp,%rax,4)
    a3b1:	00 00 00 00 
    a3b5:	83 85 f4 fa ff ff 01 	addl   $0x1,-0x50c(%rbp)
    a3bc:	83 bd f4 fa ff ff 01 	cmpl   $0x1,-0x50c(%rbp)
    a3c3:	7e dd                	jle    a3a2 <func_44+0x9d8>
    a3c5:	c7 85 f4 fa ff ff 00 	movl   $0x0,-0x50c(%rbp)
    a3cc:	00 00 00 
    a3cf:	eb 19                	jmp    a3ea <func_44+0xa20>
    a3d1:	8b 85 f4 fa ff ff    	mov    -0x50c(%rbp),%eax
    a3d7:	48 98                	cltq   
    a3d9:	66 c7 84 45 ce fb ff 	movw   $0x65b8,-0x432(%rbp,%rax,2)
    a3e0:	ff b8 65 
    a3e3:	83 85 f4 fa ff ff 01 	addl   $0x1,-0x50c(%rbp)
    a3ea:	83 bd f4 fa ff ff 00 	cmpl   $0x0,-0x50c(%rbp)
    a3f1:	7e de                	jle    a3d1 <func_44+0xa07>
    a3f3:	c7 85 f4 fa ff ff 00 	movl   $0x0,-0x50c(%rbp)
    a3fa:	00 00 00 
    a3fd:	eb 14                	jmp    a413 <func_44+0xa49>
    a3ff:	8b 85 f4 fa ff ff    	mov    -0x50c(%rbp),%eax
    a405:	48 98                	cltq   
    a407:	c6 44 05 f3 1b       	movb   $0x1b,-0xd(%rbp,%rax,1)
    a40c:	83 85 f4 fa ff ff 01 	addl   $0x1,-0x50c(%rbp)
    a413:	83 bd f4 fa ff ff 04 	cmpl   $0x4,-0x50c(%rbp)
    a41a:	7e e3                	jle    a3ff <func_44+0xa35>
    a41c:	48 8b 05 9d 94 00 00 	mov    0x949d(%rip),%rax        # 138c0 <g_143>
    a423:	48 8b 7d f8          	mov    -0x8(%rbp),%rdi
    a427:	64 48 33 3c 25 28 00 	xor    %fs:0x28,%rdi
    a42e:	00 00 
    a430:	74 05                	je     a437 <func_44+0xa6d>
    a432:	e8 39 ac ff ff       	callq  5070 <__stack_chk_fail@plt>
    a437:	c9                   	leaveq 
    a438:	c3                   	retq   

000000000000a439 <func_46>:
    a439:	f3 0f 1e fa          	endbr64 
    a43d:	55                   	push   %rbp
    a43e:	48 89 e5             	mov    %rsp,%rbp
    a441:	89 7d fc             	mov    %edi,-0x4(%rbp)
    a444:	48 8d 05 f9 6b 00 00 	lea    0x6bf9(%rip),%rax        # 11044 <g_13+0x4>
    a44b:	5d                   	pop    %rbp
    a44c:	c3                   	retq   

000000000000a44d <func_60>:
    a44d:	f3 0f 1e fa          	endbr64 
    a451:	55                   	push   %rbp
    a452:	48 89 e5             	mov    %rsp,%rbp
    a455:	41 56                	push   %r14
    a457:	41 55                	push   %r13
    a459:	41 54                	push   %r12
    a45b:	53                   	push   %rbx
    a45c:	48 81 ec c0 00 00 00 	sub    $0xc0,%rsp
    a463:	48 89 bd 38 ff ff ff 	mov    %rdi,-0xc8(%rbp)
    a46a:	48 89 b5 30 ff ff ff 	mov    %rsi,-0xd0(%rbp)
    a471:	89 d0                	mov    %edx,%eax
    a473:	48 89 8d 20 ff ff ff 	mov    %rcx,-0xe0(%rbp)
    a47a:	88 85 2c ff ff ff    	mov    %al,-0xd4(%rbp)
    a480:	64 48 8b 04 25 28 00 	mov    %fs:0x28,%rax
    a487:	00 00 
    a489:	48 89 45 d8          	mov    %rax,-0x28(%rbp)
    a48d:	31 c0                	xor    %eax,%eax
    a48f:	c7 85 54 ff ff ff 00 	movl   $0x0,-0xac(%rbp)
    a496:	00 00 00 
    a499:	66 c7 85 50 ff ff ff 	movw   $0xa264,-0xb0(%rbp)
    a4a0:	64 a2 
    a4a2:	c6 85 4f ff ff ff 01 	movb   $0x1,-0xb1(%rbp)
    a4a9:	c7 85 5c ff ff ff 15 	movl   $0xfd0f9b15,-0xa4(%rbp)
    a4b0:	9b 0f fd 
    a4b3:	48 8d 05 2e 94 00 00 	lea    0x942e(%rip),%rax        # 138e8 <g_143+0x28>
    a4ba:	48 89 85 70 ff ff ff 	mov    %rax,-0x90(%rbp)
    a4c1:	c7 85 58 ff ff ff 00 	movl   $0x0,-0xa8(%rbp)
    a4c8:	00 00 00 
    a4cb:	eb 1b                	jmp    a4e8 <func_60+0x9b>
    a4cd:	8b 85 58 ff ff ff    	mov    -0xa8(%rbp),%eax
    a4d3:	48 98                	cltq   
    a4d5:	48 8d 15 9c 6b 00 00 	lea    0x6b9c(%rip),%rdx        # 11078 <g_17>
    a4dc:	48 89 54 c5 80       	mov    %rdx,-0x80(%rbp,%rax,8)
    a4e1:	83 85 58 ff ff ff 01 	addl   $0x1,-0xa8(%rbp)
    a4e8:	83 bd 58 ff ff ff 09 	cmpl   $0x9,-0xa8(%rbp)
    a4ef:	7e dc                	jle    a4cd <func_60+0x80>
    a4f1:	83 ad 5c ff ff ff 01 	subl   $0x1,-0xa4(%rbp)
    a4f8:	48 8b 85 20 ff ff ff 	mov    -0xe0(%rbp),%rax
    a4ff:	48 89 85 38 ff ff ff 	mov    %rax,-0xc8(%rbp)
    a506:	48 8b 8d 38 ff ff ff 	mov    -0xc8(%rbp),%rcx
    a50d:	48 8b 05 74 7b 00 00 	mov    0x7b74(%rip),%rax        # 12088 <g_16>
    a514:	8b 00                	mov    (%rax),%eax
    a516:	48 98                	cltq   
    a518:	48 23 85 20 ff ff ff 	and    -0xe0(%rbp),%rax
    a51f:	48 3d ab 39 93 65    	cmp    $0x659339ab,%rax
    a525:	0f 94 c0             	sete   %al
    a528:	0f b6 d0             	movzbl %al,%edx
    a52b:	48 8b 85 70 ff ff ff 	mov    -0x90(%rbp),%rax
    a532:	48 89 10             	mov    %rdx,(%rax)
    a535:	48 8b 85 70 ff ff ff 	mov    -0x90(%rbp),%rax
    a53c:	48 8b 00             	mov    (%rax),%rax
    a53f:	48 39 c1             	cmp    %rax,%rcx
    a542:	0f 92 c2             	setb   %dl
    a545:	48 8b 05 44 7b 00 00 	mov    0x7b44(%rip),%rax        # 12090 <g_119>
    a54c:	0f b6 d2             	movzbl %dl,%edx
    a54f:	89 10                	mov    %edx,(%rax)
    a551:	c7 85 54 ff ff ff 00 	movl   $0x0,-0xac(%rbp)
    a558:	00 00 00 
    a55b:	e9 03 02 00 00       	jmpq   a763 <func_60+0x316>
    a560:	48 8d 05 ef 2a 00 00 	lea    0x2aef(%rip),%rax        # d056 <g_194+0x1>
    a567:	48 89 85 68 ff ff ff 	mov    %rax,-0x98(%rbp)
    a56e:	48 8d 85 68 ff ff ff 	lea    -0x98(%rbp),%rax
    a575:	48 89 85 78 ff ff ff 	mov    %rax,-0x88(%rbp)
    a57c:	c7 85 60 ff ff ff f9 	movl   $0xfffffff9,-0xa0(%rbp)
    a583:	ff ff ff 
    a586:	66 c7 85 52 ff ff ff 	movw   $0x1,-0xae(%rbp)
    a58d:	01 00 
    a58f:	c7 85 64 ff ff ff 4a 	movl   $0xad34ea4a,-0x9c(%rbp)
    a596:	ea 34 ad 
    a599:	8b 05 0d 93 00 00    	mov    0x930d(%rip),%eax        # 138ac <g_57>
    a59f:	0f be d8             	movsbl %al,%ebx
    a5a2:	0f b6 05 d3 6a 00 00 	movzbl 0x6ad3(%rip),%eax        # 1107c <g_81>
    a5a9:	44 0f b6 e0          	movzbl %al,%r12d
    a5ad:	0f b6 85 2c ff ff ff 	movzbl -0xd4(%rbp),%eax
    a5b4:	4c 0f be e8          	movsbq %al,%r13
    a5b8:	48 8b 85 78 ff ff ff 	mov    -0x88(%rbp),%rax
    a5bf:	48 8d 95 2c ff ff ff 	lea    -0xd4(%rbp),%rdx
    a5c6:	48 89 10             	mov    %rdx,(%rax)
    a5c9:	48 8b 85 78 ff ff ff 	mov    -0x88(%rbp),%rax
    a5d0:	48 8b 00             	mov    (%rax),%rax
    a5d3:	8b 95 54 ff ff ff    	mov    -0xac(%rbp),%edx
    a5d9:	48 63 d2             	movslq %edx,%rdx
    a5dc:	48 8d 0d bd 6a 00 00 	lea    0x6abd(%rip),%rcx        # 110a0 <g_165>
    a5e3:	48 01 ca             	add    %rcx,%rdx
    a5e6:	48 39 d0             	cmp    %rdx,%rax
    a5e9:	0f 95 c0             	setne  %al
    a5ec:	0f b6 c0             	movzbl %al,%eax
    a5ef:	be 06 00 00 00       	mov    $0x6,%esi
    a5f4:	89 c7                	mov    %eax,%edi
    a5f6:	e8 3a ad ff ff       	callq  5335 <safe_rshift_func_int8_t_s_s>
    a5fb:	0f be d0             	movsbl %al,%edx
    a5fe:	0f b7 05 5f 6a 00 00 	movzwl 0x6a5f(%rip),%eax        # 11064 <g_13+0x24>
    a605:	0f b7 c0             	movzwl %ax,%eax
    a608:	39 c2                	cmp    %eax,%edx
    a60a:	0f 9c c0             	setl   %al
    a60d:	0f b6 c0             	movzbl %al,%eax
    a610:	be 02 00 00 00       	mov    $0x2,%esi
    a615:	89 c7                	mov    %eax,%edi
    a617:	e8 b0 b0 ff ff       	callq  56cc <safe_mod_func_int32_t_s_s>
    a61c:	0f b7 85 52 ff ff ff 	movzwl -0xae(%rbp),%eax
    a623:	44 0f b6 f0          	movzbl %al,%r14d
    a627:	48 8b 05 92 92 00 00 	mov    0x9292(%rip),%rax        # 138c0 <g_143>
    a62e:	0f b7 c0             	movzwl %ax,%eax
    a631:	89 c6                	mov    %eax,%esi
    a633:	bf 01 00 00 00       	mov    $0x1,%edi
    a638:	e8 51 b7 ff ff       	callq  5d8e <safe_div_func_uint16_t_u_u>
    a63d:	0f b7 c0             	movzwl %ax,%eax
    a640:	48 be a0 ec e6 61 63 	movabs $0x3815406361e6eca0,%rsi
    a647:	40 15 38 
    a64a:	48 89 c7             	mov    %rax,%rdi
    a64d:	e8 5d ba ff ff       	callq  60af <safe_div_func_uint64_t_u_u>
    a652:	48 8b 85 30 ff ff ff 	mov    -0xd0(%rbp),%rax
    a659:	8b 00                	mov    (%rax),%eax
    a65b:	85 c0                	test   %eax,%eax
    a65d:	74 14                	je     a673 <func_60+0x226>
    a65f:	48 8b 85 30 ff ff ff 	mov    -0xd0(%rbp),%rax
    a666:	8b 00                	mov    (%rax),%eax
    a668:	85 c0                	test   %eax,%eax
    a66a:	74 07                	je     a673 <func_60+0x226>
    a66c:	b8 01 00 00 00       	mov    $0x1,%eax
    a671:	eb 05                	jmp    a678 <func_60+0x22b>
    a673:	b8 00 00 00 00       	mov    $0x0,%eax
    a678:	0f b7 c0             	movzwl %ax,%eax
    a67b:	89 c7                	mov    %eax,%edi
    a67d:	e8 67 b6 ff ff       	callq  5ce9 <safe_unary_minus_func_uint16_t_u>
    a682:	0f b7 d0             	movzwl %ax,%edx
    a685:	0f b6 85 2c ff ff ff 	movzbl -0xd4(%rbp),%eax
    a68c:	0f be c0             	movsbl %al,%eax
    a68f:	39 c2                	cmp    %eax,%edx
    a691:	7f 0b                	jg     a69e <func_60+0x251>
    a693:	48 8b 85 30 ff ff ff 	mov    -0xd0(%rbp),%rax
    a69a:	8b 00                	mov    (%rax),%eax
    a69c:	85 c0                	test   %eax,%eax
    a69e:	0f b7 05 07 6a 00 00 	movzwl 0x6a07(%rip),%eax        # 110ac <g_207>
    a6a5:	0f b6 c0             	movzbl %al,%eax
    a6a8:	44 89 f6             	mov    %r14d,%esi
    a6ab:	89 c7                	mov    %eax,%edi
    a6ad:	e8 29 b5 ff ff       	callq  5bdb <safe_div_func_uint8_t_u_u>
    a6b2:	0f b6 c0             	movzbl %al,%eax
    a6b5:	be be 00 00 00       	mov    $0xbe,%esi
    a6ba:	89 c7                	mov    %eax,%edi
    a6bc:	e8 1a b5 ff ff       	callq  5bdb <safe_div_func_uint8_t_u_u>
    a6c1:	0f b6 d0             	movzbl %al,%edx
    a6c4:	8b 05 de 69 00 00    	mov    0x69de(%rip),%eax        # 110a8 <g_170>
    a6ca:	39 c2                	cmp    %eax,%edx
    a6cc:	0f 92 c0             	setb   %al
    a6cf:	0f b6 d0             	movzbl %al,%edx
    a6d2:	83 b5 60 ff ff ff fc 	xorl   $0xfffffffc,-0xa0(%rbp)
    a6d9:	8b 85 60 ff ff ff    	mov    -0xa0(%rbp),%eax
    a6df:	89 d6                	mov    %edx,%esi
    a6e1:	89 c7                	mov    %eax,%edi
    a6e3:	e8 ce ae ff ff       	callq  55b6 <safe_add_func_int32_t_s_s>
    a6e8:	4c 89 ee             	mov    %r13,%rsi
    a6eb:	bf 01 00 00 00       	mov    $0x1,%edi
    a6f0:	e8 ba b9 ff ff       	callq  60af <safe_div_func_uint64_t_u_u>
    a6f5:	0f b7 c0             	movzwl %ax,%eax
    a6f8:	44 89 e6             	mov    %r12d,%esi
    a6fb:	89 c7                	mov    %eax,%edi
    a6fd:	e8 04 b7 ff ff       	callq  5e06 <safe_lshift_func_uint16_t_u_u>
    a702:	0f b7 d0             	movzwl %ax,%edx
    a705:	0f b6 85 2c ff ff ff 	movzbl -0xd4(%rbp),%eax
    a70c:	0f be c0             	movsbl %al,%eax
    a70f:	39 c2                	cmp    %eax,%edx
    a711:	0f 95 c0             	setne  %al
    a714:	0f b6 c0             	movzbl %al,%eax
    a717:	39 85 64 ff ff ff    	cmp    %eax,-0x9c(%rbp)
    a71d:	0f 94 c0             	sete   %al
    a720:	0f b6 c0             	movzbl %al,%eax
    a723:	89 de                	mov    %ebx,%esi
    a725:	89 c7                	mov    %eax,%edi
    a727:	e8 e6 aa ff ff       	callq  5212 <safe_mul_func_int8_t_s_s>
    a72c:	89 c2                	mov    %eax,%edx
    a72e:	48 8b 05 5b 79 00 00 	mov    0x795b(%rip),%rax        # 12090 <g_119>
    a735:	0f be d2             	movsbl %dl,%edx
    a738:	89 10                	mov    %edx,(%rax)
    a73a:	8b 85 60 ff ff ff    	mov    -0xa0(%rbp),%eax
    a740:	48 63 d0             	movslq %eax,%rdx
    a743:	48 8b 05 3e 69 00 00 	mov    0x693e(%rip),%rax        # 11088 <g_103>
    a74a:	48 39 c2             	cmp    %rax,%rdx
    a74d:	0f 95 c2             	setne  %dl
    a750:	48 8b 05 39 79 00 00 	mov    0x7939(%rip),%rax        # 12090 <g_119>
    a757:	0f b6 d2             	movzbl %dl,%edx
    a75a:	89 10                	mov    %edx,(%rax)
    a75c:	83 ad 54 ff ff ff 01 	subl   $0x1,-0xac(%rbp)
    a763:	83 bd 54 ff ff ff 00 	cmpl   $0x0,-0xac(%rbp)
    a76a:	0f 89 f0 fd ff ff    	jns    a560 <func_60+0x113>
    a770:	48 8b 85 38 ff ff ff 	mov    -0xc8(%rbp),%rax
    a777:	48 8b 5d d8          	mov    -0x28(%rbp),%rbx
    a77b:	64 48 33 1c 25 28 00 	xor    %fs:0x28,%rbx
    a782:	00 00 
    a784:	74 05                	je     a78b <func_60+0x33e>
    a786:	e8 e5 a8 ff ff       	callq  5070 <__stack_chk_fail@plt>
    a78b:	48 81 c4 c0 00 00 00 	add    $0xc0,%rsp
    a792:	5b                   	pop    %rbx
    a793:	41 5c                	pop    %r12
    a795:	41 5d                	pop    %r13
    a797:	41 5e                	pop    %r14
    a799:	5d                   	pop    %rbp
    a79a:	c3                   	retq   

000000000000a79b <func_66>:
    a79b:	f3 0f 1e fa          	endbr64 
    a79f:	55                   	push   %rbp
    a7a0:	48 89 e5             	mov    %rsp,%rbp
    a7a3:	41 54                	push   %r12
    a7a5:	53                   	push   %rbx
    a7a6:	48 81 ec 30 05 00 00 	sub    $0x530,%rsp
    a7ad:	89 bd dc fa ff ff    	mov    %edi,-0x524(%rbp)
    a7b3:	48 89 b5 d0 fa ff ff 	mov    %rsi,-0x530(%rbp)
    a7ba:	89 c8                	mov    %ecx,%eax
    a7bc:	88 95 d8 fa ff ff    	mov    %dl,-0x528(%rbp)
    a7c2:	66 89 85 cc fa ff ff 	mov    %ax,-0x534(%rbp)
    a7c9:	64 48 8b 04 25 28 00 	mov    %fs:0x28,%rax
    a7d0:	00 00 
    a7d2:	48 89 45 e8          	mov    %rax,-0x18(%rbp)
    a7d6:	31 c0                	xor    %eax,%eax
    a7d8:	48 8d 05 75 28 00 00 	lea    0x2875(%rip),%rax        # d054 <g_132>
    a7df:	48 89 85 70 fb ff ff 	mov    %rax,-0x490(%rbp)
    a7e6:	48 8d 05 67 28 00 00 	lea    0x2867(%rip),%rax        # d054 <g_132>
    a7ed:	48 89 85 78 fb ff ff 	mov    %rax,-0x488(%rbp)
    a7f4:	48 8d 05 59 28 00 00 	lea    0x2859(%rip),%rax        # d054 <g_132>
    a7fb:	48 89 85 80 fb ff ff 	mov    %rax,-0x480(%rbp)
    a802:	48 8d 05 4b 28 00 00 	lea    0x284b(%rip),%rax        # d054 <g_132>
    a809:	48 89 85 88 fb ff ff 	mov    %rax,-0x478(%rbp)
    a810:	48 8d 05 3d 28 00 00 	lea    0x283d(%rip),%rax        # d054 <g_132>
    a817:	48 89 85 90 fb ff ff 	mov    %rax,-0x470(%rbp)
    a81e:	48 8d 05 2f 28 00 00 	lea    0x282f(%rip),%rax        # d054 <g_132>
    a825:	48 89 85 98 fb ff ff 	mov    %rax,-0x468(%rbp)
    a82c:	48 8d 05 21 28 00 00 	lea    0x2821(%rip),%rax        # d054 <g_132>
    a833:	48 89 85 a0 fb ff ff 	mov    %rax,-0x460(%rbp)
    a83a:	48 8d 05 13 28 00 00 	lea    0x2813(%rip),%rax        # d054 <g_132>
    a841:	48 89 85 f8 fa ff ff 	mov    %rax,-0x508(%rbp)
    a848:	48 8d 85 f8 fa ff ff 	lea    -0x508(%rbp),%rax
    a84f:	48 89 85 08 fb ff ff 	mov    %rax,-0x4f8(%rbp)
    a856:	c7 85 ec fa ff ff 01 	movl   $0x1,-0x514(%rbp)
    a85d:	00 00 00 
    a860:	48 8d 05 11 68 00 00 	lea    0x6811(%rip),%rax        # 11078 <g_17>
    a867:	48 89 85 40 fb ff ff 	mov    %rax,-0x4c0(%rbp)
    a86e:	48 8d 05 b3 67 00 00 	lea    0x67b3(%rip),%rax        # 11028 <g_8>
    a875:	48 89 85 48 fb ff ff 	mov    %rax,-0x4b8(%rbp)
    a87c:	48 8d 05 f5 67 00 00 	lea    0x67f5(%rip),%rax        # 11078 <g_17>
    a883:	48 89 85 50 fb ff ff 	mov    %rax,-0x4b0(%rbp)
    a88a:	48 8d 05 e7 67 00 00 	lea    0x67e7(%rip),%rax        # 11078 <g_17>
    a891:	48 89 85 58 fb ff ff 	mov    %rax,-0x4a8(%rbp)
    a898:	48 8d 05 89 67 00 00 	lea    0x6789(%rip),%rax        # 11028 <g_8>
    a89f:	48 89 85 60 fb ff ff 	mov    %rax,-0x4a0(%rbp)
    a8a6:	48 8d 05 cb 67 00 00 	lea    0x67cb(%rip),%rax        # 11078 <g_17>
    a8ad:	48 89 85 68 fb ff ff 	mov    %rax,-0x498(%rbp)
    a8b4:	48 8d 85 40 fb ff ff 	lea    -0x4c0(%rbp),%rax
    a8bb:	48 83 c0 20          	add    $0x20,%rax
    a8bf:	48 89 85 00 fb ff ff 	mov    %rax,-0x500(%rbp)
    a8c6:	48 8d 85 00 fb ff ff 	lea    -0x500(%rbp),%rax
    a8cd:	48 89 85 f0 fb ff ff 	mov    %rax,-0x410(%rbp)
    a8d4:	48 8d 85 00 fb ff ff 	lea    -0x500(%rbp),%rax
    a8db:	48 89 85 f8 fb ff ff 	mov    %rax,-0x408(%rbp)
    a8e2:	48 8d 85 00 fb ff ff 	lea    -0x500(%rbp),%rax
    a8e9:	48 89 85 00 fc ff ff 	mov    %rax,-0x400(%rbp)
    a8f0:	48 8d 85 00 fb ff ff 	lea    -0x500(%rbp),%rax
    a8f7:	48 89 85 08 fc ff ff 	mov    %rax,-0x3f8(%rbp)
    a8fe:	48 8d 85 00 fb ff ff 	lea    -0x500(%rbp),%rax
    a905:	48 89 85 10 fc ff ff 	mov    %rax,-0x3f0(%rbp)
    a90c:	48 8d 85 00 fb ff ff 	lea    -0x500(%rbp),%rax
    a913:	48 89 85 18 fc ff ff 	mov    %rax,-0x3e8(%rbp)
    a91a:	48 8d 85 00 fb ff ff 	lea    -0x500(%rbp),%rax
    a921:	48 89 85 20 fc ff ff 	mov    %rax,-0x3e0(%rbp)
    a928:	48 8d 85 00 fb ff ff 	lea    -0x500(%rbp),%rax
    a92f:	48 89 85 28 fc ff ff 	mov    %rax,-0x3d8(%rbp)
    a936:	48 8d 85 00 fb ff ff 	lea    -0x500(%rbp),%rax
    a93d:	48 89 85 30 fc ff ff 	mov    %rax,-0x3d0(%rbp)
    a944:	48 c7 85 38 fc ff ff 	movq   $0x0,-0x3c8(%rbp)
    a94b:	00 00 00 00 
    a94f:	48 c7 85 40 fc ff ff 	movq   $0x0,-0x3c0(%rbp)
    a956:	00 00 00 00 
    a95a:	48 c7 85 48 fc ff ff 	movq   $0x0,-0x3b8(%rbp)
    a961:	00 00 00 00 
    a965:	48 c7 85 50 fc ff ff 	movq   $0x0,-0x3b0(%rbp)
    a96c:	00 00 00 00 
    a970:	48 c7 85 58 fc ff ff 	movq   $0x0,-0x3a8(%rbp)
    a977:	00 00 00 00 
    a97b:	48 c7 85 60 fc ff ff 	movq   $0x0,-0x3a0(%rbp)
    a982:	00 00 00 00 
    a986:	48 c7 85 68 fc ff ff 	movq   $0x0,-0x398(%rbp)
    a98d:	00 00 00 00 
    a991:	48 c7 85 70 fc ff ff 	movq   $0x0,-0x390(%rbp)
    a998:	00 00 00 00 
    a99c:	48 c7 85 78 fc ff ff 	movq   $0x0,-0x388(%rbp)
    a9a3:	00 00 00 00 
    a9a7:	48 8d 85 00 fb ff ff 	lea    -0x500(%rbp),%rax
    a9ae:	48 89 85 80 fc ff ff 	mov    %rax,-0x380(%rbp)
    a9b5:	48 8d 85 00 fb ff ff 	lea    -0x500(%rbp),%rax
    a9bc:	48 89 85 88 fc ff ff 	mov    %rax,-0x378(%rbp)
    a9c3:	48 8d 85 00 fb ff ff 	lea    -0x500(%rbp),%rax
    a9ca:	48 89 85 90 fc ff ff 	mov    %rax,-0x370(%rbp)
    a9d1:	48 8d 85 00 fb ff ff 	lea    -0x500(%rbp),%rax
    a9d8:	48 89 85 98 fc ff ff 	mov    %rax,-0x368(%rbp)
    a9df:	48 8d 85 00 fb ff ff 	lea    -0x500(%rbp),%rax
    a9e6:	48 89 85 a0 fc ff ff 	mov    %rax,-0x360(%rbp)
    a9ed:	48 8d 85 00 fb ff ff 	lea    -0x500(%rbp),%rax
    a9f4:	48 89 85 a8 fc ff ff 	mov    %rax,-0x358(%rbp)
    a9fb:	48 8d 85 00 fb ff ff 	lea    -0x500(%rbp),%rax
    aa02:	48 89 85 b0 fc ff ff 	mov    %rax,-0x350(%rbp)
    aa09:	48 8d 85 00 fb ff ff 	lea    -0x500(%rbp),%rax
    aa10:	48 89 85 b8 fc ff ff 	mov    %rax,-0x348(%rbp)
    aa17:	48 8d 85 00 fb ff ff 	lea    -0x500(%rbp),%rax
    aa1e:	48 89 85 c0 fc ff ff 	mov    %rax,-0x340(%rbp)
    aa25:	48 c7 85 c8 fc ff ff 	movq   $0x0,-0x338(%rbp)
    aa2c:	00 00 00 00 
    aa30:	48 c7 85 d0 fc ff ff 	movq   $0x0,-0x330(%rbp)
    aa37:	00 00 00 00 
    aa3b:	48 8d 85 00 fb ff ff 	lea    -0x500(%rbp),%rax
    aa42:	48 89 85 d8 fc ff ff 	mov    %rax,-0x328(%rbp)
    aa49:	48 c7 85 e0 fc ff ff 	movq   $0x0,-0x320(%rbp)
    aa50:	00 00 00 00 
    aa54:	48 c7 85 e8 fc ff ff 	movq   $0x0,-0x318(%rbp)
    aa5b:	00 00 00 00 
    aa5f:	48 c7 85 f0 fc ff ff 	movq   $0x0,-0x310(%rbp)
    aa66:	00 00 00 00 
    aa6a:	48 c7 85 f8 fc ff ff 	movq   $0x0,-0x308(%rbp)
    aa71:	00 00 00 00 
    aa75:	48 8d 85 00 fb ff ff 	lea    -0x500(%rbp),%rax
    aa7c:	48 89 85 00 fd ff ff 	mov    %rax,-0x300(%rbp)
    aa83:	48 c7 85 08 fd ff ff 	movq   $0x0,-0x2f8(%rbp)
    aa8a:	00 00 00 00 
    aa8e:	48 8d 85 00 fb ff ff 	lea    -0x500(%rbp),%rax
    aa95:	48 89 85 10 fd ff ff 	mov    %rax,-0x2f0(%rbp)
    aa9c:	48 8d 85 00 fb ff ff 	lea    -0x500(%rbp),%rax
    aaa3:	48 89 85 18 fd ff ff 	mov    %rax,-0x2e8(%rbp)
    aaaa:	48 8d 85 00 fb ff ff 	lea    -0x500(%rbp),%rax
    aab1:	48 89 85 20 fd ff ff 	mov    %rax,-0x2e0(%rbp)
    aab8:	48 8d 85 00 fb ff ff 	lea    -0x500(%rbp),%rax
    aabf:	48 89 85 28 fd ff ff 	mov    %rax,-0x2d8(%rbp)
    aac6:	48 8d 85 00 fb ff ff 	lea    -0x500(%rbp),%rax
    aacd:	48 89 85 30 fd ff ff 	mov    %rax,-0x2d0(%rbp)
    aad4:	48 8d 85 00 fb ff ff 	lea    -0x500(%rbp),%rax
    aadb:	48 89 85 38 fd ff ff 	mov    %rax,-0x2c8(%rbp)
    aae2:	48 8d 85 00 fb ff ff 	lea    -0x500(%rbp),%rax
    aae9:	48 89 85 40 fd ff ff 	mov    %rax,-0x2c0(%rbp)
    aaf0:	48 8d 85 00 fb ff ff 	lea    -0x500(%rbp),%rax
    aaf7:	48 89 85 48 fd ff ff 	mov    %rax,-0x2b8(%rbp)
    aafe:	48 8d 85 00 fb ff ff 	lea    -0x500(%rbp),%rax
    ab05:	48 89 85 50 fd ff ff 	mov    %rax,-0x2b0(%rbp)
    ab0c:	48 c7 85 58 fd ff ff 	movq   $0x0,-0x2a8(%rbp)
    ab13:	00 00 00 00 
    ab17:	48 c7 85 60 fd ff ff 	movq   $0x0,-0x2a0(%rbp)
    ab1e:	00 00 00 00 
    ab22:	48 c7 85 68 fd ff ff 	movq   $0x0,-0x298(%rbp)
    ab29:	00 00 00 00 
    ab2d:	48 8d 85 00 fb ff ff 	lea    -0x500(%rbp),%rax
    ab34:	48 89 85 70 fd ff ff 	mov    %rax,-0x290(%rbp)
    ab3b:	48 c7 85 78 fd ff ff 	movq   $0x0,-0x288(%rbp)
    ab42:	00 00 00 00 
    ab46:	48 c7 85 80 fd ff ff 	movq   $0x0,-0x280(%rbp)
    ab4d:	00 00 00 00 
    ab51:	48 c7 85 88 fd ff ff 	movq   $0x0,-0x278(%rbp)
    ab58:	00 00 00 00 
    ab5c:	48 c7 85 90 fd ff ff 	movq   $0x0,-0x270(%rbp)
    ab63:	00 00 00 00 
    ab67:	48 8d 85 00 fb ff ff 	lea    -0x500(%rbp),%rax
    ab6e:	48 89 85 98 fd ff ff 	mov    %rax,-0x268(%rbp)
    ab75:	48 8d 85 00 fb ff ff 	lea    -0x500(%rbp),%rax
    ab7c:	48 89 85 a0 fd ff ff 	mov    %rax,-0x260(%rbp)
    ab83:	48 8d 85 00 fb ff ff 	lea    -0x500(%rbp),%rax
    ab8a:	48 89 85 a8 fd ff ff 	mov    %rax,-0x258(%rbp)
    ab91:	48 8d 85 00 fb ff ff 	lea    -0x500(%rbp),%rax
    ab98:	48 89 85 b0 fd ff ff 	mov    %rax,-0x250(%rbp)
    ab9f:	48 8d 85 00 fb ff ff 	lea    -0x500(%rbp),%rax
    aba6:	48 89 85 b8 fd ff ff 	mov    %rax,-0x248(%rbp)
    abad:	48 8d 85 00 fb ff ff 	lea    -0x500(%rbp),%rax
    abb4:	48 89 85 c0 fd ff ff 	mov    %rax,-0x240(%rbp)
    abbb:	48 8d 85 00 fb ff ff 	lea    -0x500(%rbp),%rax
    abc2:	48 89 85 c8 fd ff ff 	mov    %rax,-0x238(%rbp)
    abc9:	48 8d 85 00 fb ff ff 	lea    -0x500(%rbp),%rax
    abd0:	48 89 85 d0 fd ff ff 	mov    %rax,-0x230(%rbp)
    abd7:	48 8d 85 00 fb ff ff 	lea    -0x500(%rbp),%rax
    abde:	48 89 85 d8 fd ff ff 	mov    %rax,-0x228(%rbp)
    abe5:	48 8d 85 00 fb ff ff 	lea    -0x500(%rbp),%rax
    abec:	48 89 85 e0 fd ff ff 	mov    %rax,-0x220(%rbp)
    abf3:	48 c7 85 e8 fd ff ff 	movq   $0x0,-0x218(%rbp)
    abfa:	00 00 00 00 
    abfe:	48 c7 85 f0 fd ff ff 	movq   $0x0,-0x210(%rbp)
    ac05:	00 00 00 00 
    ac09:	48 c7 85 f8 fd ff ff 	movq   $0x0,-0x208(%rbp)
    ac10:	00 00 00 00 
    ac14:	48 c7 85 00 fe ff ff 	movq   $0x0,-0x200(%rbp)
    ac1b:	00 00 00 00 
    ac1f:	48 c7 85 08 fe ff ff 	movq   $0x0,-0x1f8(%rbp)
    ac26:	00 00 00 00 
    ac2a:	48 c7 85 10 fe ff ff 	movq   $0x0,-0x1f0(%rbp)
    ac31:	00 00 00 00 
    ac35:	48 c7 85 18 fe ff ff 	movq   $0x0,-0x1e8(%rbp)
    ac3c:	00 00 00 00 
    ac40:	48 c7 85 20 fe ff ff 	movq   $0x0,-0x1e0(%rbp)
    ac47:	00 00 00 00 
    ac4b:	48 c7 85 28 fe ff ff 	movq   $0x0,-0x1d8(%rbp)
    ac52:	00 00 00 00 
    ac56:	48 8d 85 00 fb ff ff 	lea    -0x500(%rbp),%rax
    ac5d:	48 89 85 30 fe ff ff 	mov    %rax,-0x1d0(%rbp)
    ac64:	48 8d 85 00 fb ff ff 	lea    -0x500(%rbp),%rax
    ac6b:	48 89 85 38 fe ff ff 	mov    %rax,-0x1c8(%rbp)
    ac72:	48 8d 85 00 fb ff ff 	lea    -0x500(%rbp),%rax
    ac79:	48 89 85 40 fe ff ff 	mov    %rax,-0x1c0(%rbp)
    ac80:	48 8d 85 00 fb ff ff 	lea    -0x500(%rbp),%rax
    ac87:	48 89 85 48 fe ff ff 	mov    %rax,-0x1b8(%rbp)
    ac8e:	48 8d 85 00 fb ff ff 	lea    -0x500(%rbp),%rax
    ac95:	48 89 85 50 fe ff ff 	mov    %rax,-0x1b0(%rbp)
    ac9c:	48 8d 85 00 fb ff ff 	lea    -0x500(%rbp),%rax
    aca3:	48 89 85 58 fe ff ff 	mov    %rax,-0x1a8(%rbp)
    acaa:	48 8d 85 00 fb ff ff 	lea    -0x500(%rbp),%rax
    acb1:	48 89 85 60 fe ff ff 	mov    %rax,-0x1a0(%rbp)
    acb8:	48 8d 85 00 fb ff ff 	lea    -0x500(%rbp),%rax
    acbf:	48 89 85 68 fe ff ff 	mov    %rax,-0x198(%rbp)
    acc6:	48 8d 85 00 fb ff ff 	lea    -0x500(%rbp),%rax
    accd:	48 89 85 70 fe ff ff 	mov    %rax,-0x190(%rbp)
    acd4:	48 c7 85 78 fe ff ff 	movq   $0x0,-0x188(%rbp)
    acdb:	00 00 00 00 
    acdf:	48 c7 85 80 fe ff ff 	movq   $0x0,-0x180(%rbp)
    ace6:	00 00 00 00 
    acea:	48 8d 85 00 fb ff ff 	lea    -0x500(%rbp),%rax
    acf1:	48 89 85 88 fe ff ff 	mov    %rax,-0x178(%rbp)
    acf8:	48 8d 85 00 fb ff ff 	lea    -0x500(%rbp),%rax
    acff:	48 89 85 90 fe ff ff 	mov    %rax,-0x170(%rbp)
    ad06:	48 c7 85 98 fe ff ff 	movq   $0x0,-0x168(%rbp)
    ad0d:	00 00 00 00 
    ad11:	48 c7 85 a0 fe ff ff 	movq   $0x0,-0x160(%rbp)
    ad18:	00 00 00 00 
    ad1c:	48 c7 85 a8 fe ff ff 	movq   $0x0,-0x158(%rbp)
    ad23:	00 00 00 00 
    ad27:	48 8d 85 00 fb ff ff 	lea    -0x500(%rbp),%rax
    ad2e:	48 89 85 b0 fe ff ff 	mov    %rax,-0x150(%rbp)
    ad35:	48 8d 85 00 fb ff ff 	lea    -0x500(%rbp),%rax
    ad3c:	48 89 85 b8 fe ff ff 	mov    %rax,-0x148(%rbp)
    ad43:	48 8d 85 00 fb ff ff 	lea    -0x500(%rbp),%rax
    ad4a:	48 89 85 c0 fe ff ff 	mov    %rax,-0x140(%rbp)
    ad51:	48 8d 85 00 fb ff ff 	lea    -0x500(%rbp),%rax
    ad58:	48 89 85 c8 fe ff ff 	mov    %rax,-0x138(%rbp)
    ad5f:	48 8d 85 00 fb ff ff 	lea    -0x500(%rbp),%rax
    ad66:	48 89 85 d0 fe ff ff 	mov    %rax,-0x130(%rbp)
    ad6d:	48 8d 85 00 fb ff ff 	lea    -0x500(%rbp),%rax
    ad74:	48 89 85 d8 fe ff ff 	mov    %rax,-0x128(%rbp)
    ad7b:	48 8d 85 00 fb ff ff 	lea    -0x500(%rbp),%rax
    ad82:	48 89 85 e0 fe ff ff 	mov    %rax,-0x120(%rbp)
    ad89:	48 8d 85 00 fb ff ff 	lea    -0x500(%rbp),%rax
    ad90:	48 89 85 e8 fe ff ff 	mov    %rax,-0x118(%rbp)
    ad97:	48 8d 85 00 fb ff ff 	lea    -0x500(%rbp),%rax
    ad9e:	48 89 85 f0 fe ff ff 	mov    %rax,-0x110(%rbp)
    ada5:	48 8d 85 00 fb ff ff 	lea    -0x500(%rbp),%rax
    adac:	48 89 85 f8 fe ff ff 	mov    %rax,-0x108(%rbp)
    adb3:	48 8d 85 00 fb ff ff 	lea    -0x500(%rbp),%rax
    adba:	48 89 85 00 ff ff ff 	mov    %rax,-0x100(%rbp)
    adc1:	48 c7 85 08 ff ff ff 	movq   $0x0,-0xf8(%rbp)
    adc8:	00 00 00 00 
    adcc:	48 c7 85 10 ff ff ff 	movq   $0x0,-0xf0(%rbp)
    add3:	00 00 00 00 
    add7:	48 c7 85 18 ff ff ff 	movq   $0x0,-0xe8(%rbp)
    adde:	00 00 00 00 
    ade2:	48 c7 85 20 ff ff ff 	movq   $0x0,-0xe0(%rbp)
    ade9:	00 00 00 00 
    aded:	48 c7 85 28 ff ff ff 	movq   $0x0,-0xd8(%rbp)
    adf4:	00 00 00 00 
    adf8:	48 c7 85 30 ff ff ff 	movq   $0x0,-0xd0(%rbp)
    adff:	00 00 00 00 
    ae03:	48 c7 85 38 ff ff ff 	movq   $0x0,-0xc8(%rbp)
    ae0a:	00 00 00 00 
    ae0e:	48 c7 85 40 ff ff ff 	movq   $0x0,-0xc0(%rbp)
    ae15:	00 00 00 00 
    ae19:	48 c7 85 48 ff ff ff 	movq   $0x0,-0xb8(%rbp)
    ae20:	00 00 00 00 
    ae24:	48 8d 85 00 fb ff ff 	lea    -0x500(%rbp),%rax
    ae2b:	48 89 85 50 ff ff ff 	mov    %rax,-0xb0(%rbp)
    ae32:	48 8d 85 00 fb ff ff 	lea    -0x500(%rbp),%rax
    ae39:	48 89 85 58 ff ff ff 	mov    %rax,-0xa8(%rbp)
    ae40:	48 8d 85 00 fb ff ff 	lea    -0x500(%rbp),%rax
    ae47:	48 89 85 60 ff ff ff 	mov    %rax,-0xa0(%rbp)
    ae4e:	48 8d 85 00 fb ff ff 	lea    -0x500(%rbp),%rax
    ae55:	48 89 85 68 ff ff ff 	mov    %rax,-0x98(%rbp)
    ae5c:	48 8d 85 00 fb ff ff 	lea    -0x500(%rbp),%rax
    ae63:	48 89 85 70 ff ff ff 	mov    %rax,-0x90(%rbp)
    ae6a:	48 8d 85 00 fb ff ff 	lea    -0x500(%rbp),%rax
    ae71:	48 89 85 78 ff ff ff 	mov    %rax,-0x88(%rbp)
    ae78:	48 8d 85 00 fb ff ff 	lea    -0x500(%rbp),%rax
    ae7f:	48 89 45 80          	mov    %rax,-0x80(%rbp)
    ae83:	48 8d 85 00 fb ff ff 	lea    -0x500(%rbp),%rax
    ae8a:	48 89 45 88          	mov    %rax,-0x78(%rbp)
    ae8e:	48 8d 85 00 fb ff ff 	lea    -0x500(%rbp),%rax
    ae95:	48 89 45 90          	mov    %rax,-0x70(%rbp)
    ae99:	48 c7 45 98 00 00 00 	movq   $0x0,-0x68(%rbp)
    aea0:	00 
    aea1:	48 c7 45 a0 00 00 00 	movq   $0x0,-0x60(%rbp)
    aea8:	00 
    aea9:	48 8d 85 00 fb ff ff 	lea    -0x500(%rbp),%rax
    aeb0:	48 89 45 a8          	mov    %rax,-0x58(%rbp)
    aeb4:	48 c7 45 b0 00 00 00 	movq   $0x0,-0x50(%rbp)
    aebb:	00 
    aebc:	48 c7 45 b8 00 00 00 	movq   $0x0,-0x48(%rbp)
    aec3:	00 
    aec4:	48 c7 45 c0 00 00 00 	movq   $0x0,-0x40(%rbp)
    aecb:	00 
    aecc:	48 c7 45 c8 00 00 00 	movq   $0x0,-0x38(%rbp)
    aed3:	00 
    aed4:	48 8d 85 00 fb ff ff 	lea    -0x500(%rbp),%rax
    aedb:	48 89 45 d0          	mov    %rax,-0x30(%rbp)
    aedf:	48 c7 45 d8 00 00 00 	movq   $0x0,-0x28(%rbp)
    aee6:	00 
    aee7:	c7 85 e8 fa ff ff b8 	movl   $0xdba62eb8,-0x518(%rbp)
    aeee:	2e a6 db 
    aef1:	c7 85 20 fb ff ff f8 	movl   $0xfffffff8,-0x4e0(%rbp)
    aef8:	ff ff ff 
    aefb:	c7 85 24 fb ff ff f8 	movl   $0xfffffff8,-0x4dc(%rbp)
    af02:	ff ff ff 
    af05:	c7 85 28 fb ff ff f8 	movl   $0xfffffff8,-0x4d8(%rbp)
    af0c:	ff ff ff 
    af0f:	c7 85 2c fb ff ff f8 	movl   $0xfffffff8,-0x4d4(%rbp)
    af16:	ff ff ff 
    af19:	c7 85 30 fb ff ff f8 	movl   $0xfffffff8,-0x4d0(%rbp)
    af20:	ff ff ff 
    af23:	c7 85 34 fb ff ff f8 	movl   $0xfffffff8,-0x4cc(%rbp)
    af2a:	ff ff ff 
    af2d:	c7 85 38 fb ff ff f8 	movl   $0xfffffff8,-0x4c8(%rbp)
    af34:	ff ff ff 
    af37:	48 8b 05 4a 61 00 00 	mov    0x614a(%rip),%rax        # 11088 <g_103>
    af3e:	41 89 c4             	mov    %eax,%r12d
    af41:	48 8d 05 34 61 00 00 	lea    0x6134(%rip),%rax        # 1107c <g_81>
    af48:	48 89 85 90 fb ff ff 	mov    %rax,-0x470(%rbp)
    af4f:	48 8b 95 90 fb ff ff 	mov    -0x470(%rbp),%rdx
    af56:	48 8b 85 08 fb ff ff 	mov    -0x4f8(%rbp),%rax
    af5d:	48 89 10             	mov    %rdx,(%rax)
    af60:	48 8b 85 08 fb ff ff 	mov    -0x4f8(%rbp),%rax
    af67:	48 8b 00             	mov    (%rax),%rax
    af6a:	48 39 85 d0 fa ff ff 	cmp    %rax,-0x530(%rbp)
    af71:	74 10                	je     af83 <func_66+0x7e8>
    af73:	83 bd ec fa ff ff 00 	cmpl   $0x0,-0x514(%rbp)
    af7a:	74 07                	je     af83 <func_66+0x7e8>
    af7c:	ba 01 00 00 00       	mov    $0x1,%edx
    af81:	eb 05                	jmp    af88 <func_66+0x7ed>
    af83:	ba 00 00 00 00       	mov    $0x0,%edx
    af88:	8b 05 ea 60 00 00    	mov    0x60ea(%rip),%eax        # 11078 <g_17>
    af8e:	39 c2                	cmp    %eax,%edx
    af90:	0f 94 c0             	sete   %al
    af93:	89 c2                	mov    %eax,%edx
    af95:	48 8b 85 d0 fa ff ff 	mov    -0x530(%rbp),%rax
    af9c:	88 10                	mov    %dl,(%rax)
    af9e:	48 8b 85 d0 fa ff ff 	mov    -0x530(%rbp),%rax
    afa5:	0f b6 00             	movzbl (%rax),%eax
    afa8:	0f b6 c0             	movzbl %al,%eax
    afab:	be f9 00 00 00       	mov    $0xf9,%esi
    afb0:	89 c7                	mov    %eax,%edi
    afb2:	e8 f7 ab ff ff       	callq  5bae <safe_mod_func_uint8_t_u_u>
    afb7:	8b 85 ec fa ff ff    	mov    -0x514(%rbp),%eax
    afbd:	0f b6 d8             	movzbl %al,%ebx
    afc0:	8b 05 62 60 00 00    	mov    0x6062(%rip),%eax        # 11028 <g_8>
    afc6:	0f bf d0             	movswl %ax,%edx
    afc9:	0f b6 05 ac 60 00 00 	movzbl 0x60ac(%rip),%eax        # 1107c <g_81>
    afd0:	0f b6 c8             	movzbl %al,%ecx
    afd3:	8b 05 b7 60 00 00    	mov    0x60b7(%rip),%eax        # 11090 <g_113>
    afd9:	39 c1                	cmp    %eax,%ecx
    afdb:	0f 93 c0             	setae  %al
    afde:	0f b6 c0             	movzbl %al,%eax
    afe1:	89 d6                	mov    %edx,%esi
    afe3:	89 c7                	mov    %eax,%edi
    afe5:	e8 c9 a3 ff ff       	callq  53b3 <safe_add_func_int16_t_s_s>
    afea:	8b 85 ec fa ff ff    	mov    -0x514(%rbp),%eax
    aff0:	48 98                	cltq   
    aff2:	ba ff ff ff ff       	mov    $0xffffffff,%edx
    aff7:	48 39 d0             	cmp    %rdx,%rax
    affa:	0f 95 c0             	setne  %al
    affd:	0f b6 c0             	movzbl %al,%eax
    b000:	39 85 ec fa ff ff    	cmp    %eax,-0x514(%rbp)
    b006:	0f 9e c0             	setle  %al
    b009:	0f b6 c0             	movzbl %al,%eax
    b00c:	89 de                	mov    %ebx,%esi
    b00e:	89 c7                	mov    %eax,%edi
    b010:	e8 63 ab ff ff       	callq  5b78 <safe_sub_func_uint8_t_u_u>
    b015:	48 8b 85 f8 fc ff ff 	mov    -0x308(%rbp),%rax
    b01c:	48 85 c0             	test   %rax,%rax
    b01f:	0f 94 c0             	sete   %al
    b022:	0f b6 c0             	movzbl %al,%eax
    b025:	be 06 00 00 00       	mov    $0x6,%esi
    b02a:	89 c7                	mov    %eax,%edi
    b02c:	e8 8d ac ff ff       	callq  5cbe <safe_rshift_func_uint8_t_u_u>
    b031:	0f b7 05 2c 60 00 00 	movzwl 0x602c(%rip),%eax        # 11064 <g_13+0x24>
    b038:	0f b7 c0             	movzwl %ax,%eax
    b03b:	44 89 e6             	mov    %r12d,%esi
    b03e:	89 c7                	mov    %eax,%edi
    b040:	e8 03 ae ff ff       	callq  5e48 <safe_rshift_func_uint16_t_u_s>
    b045:	48 8b 15 8c 88 00 00 	mov    0x888c(%rip),%rdx        # 138d8 <g_143+0x18>
    b04c:	0f b7 c0             	movzwl %ax,%eax
    b04f:	48 31 d0             	xor    %rdx,%rax
    b052:	48 89 05 7f 88 00 00 	mov    %rax,0x887f(%rip)        # 138d8 <g_143+0x18>
    b059:	48 8b 05 78 88 00 00 	mov    0x8878(%rip),%rax        # 138d8 <g_143+0x18>
    b060:	89 c2                	mov    %eax,%edx
    b062:	8b 85 e8 fa ff ff    	mov    -0x518(%rbp),%eax
    b068:	21 d0                	and    %edx,%eax
    b06a:	89 85 e8 fa ff ff    	mov    %eax,-0x518(%rbp)
    b070:	48 8b 05 19 70 00 00 	mov    0x7019(%rip),%rax        # 12090 <g_119>
    b077:	8b 95 e8 fa ff ff    	mov    -0x518(%rbp),%edx
    b07d:	89 10                	mov    %edx,(%rax)
    b07f:	c7 85 e8 fa ff ff 00 	movl   $0x0,-0x518(%rbp)
    b086:	00 00 00 
    b089:	e9 c5 00 00 00       	jmpq   b153 <func_66+0x9b8>
    b08e:	c7 85 f0 fa ff ff 79 	movl   $0x6a86d779,-0x510(%rbp)
    b095:	d7 86 6a 
    b098:	48 8d 05 01 60 00 00 	lea    0x6001(%rip),%rax        # 110a0 <g_165>
    b09f:	48 89 85 10 fb ff ff 	mov    %rax,-0x4f0(%rbp)
    b0a6:	c7 85 e4 fa ff ff a5 	movl   $0xf6a51da5,-0x51c(%rbp)
    b0ad:	1d a5 f6 
    b0b0:	48 8d 05 f1 5f 00 00 	lea    0x5ff1(%rip),%rax        # 110a8 <g_170>
    b0b7:	48 89 85 18 fb ff ff 	mov    %rax,-0x4e8(%rbp)
    b0be:	48 c7 85 b0 fb ff ff 	movq   $0x0,-0x450(%rbp)
    b0c5:	00 00 00 00 
    b0c9:	48 8d 05 9a 5f 00 00 	lea    0x5f9a(%rip),%rax        # 1106a <g_13+0x2a>
    b0d0:	48 89 85 b8 fb ff ff 	mov    %rax,-0x448(%rbp)
    b0d7:	48 c7 85 c0 fb ff ff 	movq   $0x0,-0x440(%rbp)
    b0de:	00 00 00 00 
    b0e2:	48 8d 05 81 5f 00 00 	lea    0x5f81(%rip),%rax        # 1106a <g_13+0x2a>
    b0e9:	48 89 85 c8 fb ff ff 	mov    %rax,-0x438(%rbp)
    b0f0:	48 c7 85 d0 fb ff ff 	movq   $0x0,-0x430(%rbp)
    b0f7:	00 00 00 00 
    b0fb:	48 8d 05 68 5f 00 00 	lea    0x5f68(%rip),%rax        # 1106a <g_13+0x2a>
    b102:	48 89 85 d8 fb ff ff 	mov    %rax,-0x428(%rbp)
    b109:	48 c7 85 e0 fb ff ff 	movq   $0x0,-0x420(%rbp)
    b110:	00 00 00 00 
    b114:	48 8d 05 4f 5f 00 00 	lea    0x5f4f(%rip),%rax        # 1106a <g_13+0x2a>
    b11b:	48 89 85 e8 fb ff ff 	mov    %rax,-0x418(%rbp)
    b122:	c7 85 f4 fa ff ff 62 	movl   $0x718b62,-0x50c(%rbp)
    b129:	8b 71 00 
    b12c:	be 01 00 00 00       	mov    $0x1,%esi
    b131:	bf f9 ff ff ff       	mov    $0xfffffff9,%edi
    b136:	e8 31 a2 ff ff       	callq  536c <safe_rshift_func_int8_t_s_u>
    b13b:	48 8b 85 00 fb ff ff 	mov    -0x500(%rbp),%rax
    b142:	48 8d 95 e4 fa ff ff 	lea    -0x51c(%rbp),%rdx
    b149:	48 89 10             	mov    %rdx,(%rax)
    b14c:	83 85 e8 fa ff ff 01 	addl   $0x1,-0x518(%rbp)
    b153:	83 bd e8 fa ff ff 0b 	cmpl   $0xb,-0x518(%rbp)
    b15a:	0f 8e 2e ff ff ff    	jle    b08e <func_66+0x8f3>
    b160:	48 8b 05 29 6f 00 00 	mov    0x6f29(%rip),%rax        # 12090 <g_119>
    b167:	8b 10                	mov    (%rax),%edx
    b169:	48 8b 05 20 6f 00 00 	mov    0x6f20(%rip),%rax        # 12090 <g_119>
    b170:	83 f2 fd             	xor    $0xfffffffd,%edx
    b173:	89 10                	mov    %edx,(%rax)
    b175:	48 8d 05 a8 5e 00 00 	lea    0x5ea8(%rip),%rax        # 11024 <g_4>
    b17c:	48 8b 5d e8          	mov    -0x18(%rbp),%rbx
    b180:	64 48 33 1c 25 28 00 	xor    %fs:0x28,%rbx
    b187:	00 00 
    b189:	74 05                	je     b190 <func_66+0x9f5>
    b18b:	e8 e0 9e ff ff       	callq  5070 <__stack_chk_fail@plt>
    b190:	48 81 c4 30 05 00 00 	add    $0x530,%rsp
    b197:	5b                   	pop    %rbx
    b198:	41 5c                	pop    %r12
    b19a:	5d                   	pop    %rbp
    b19b:	c3                   	retq   

000000000000b19c <func_71>:
    b19c:	f3 0f 1e fa          	endbr64 
    b1a0:	55                   	push   %rbp
    b1a1:	48 89 e5             	mov    %rsp,%rbp
    b1a4:	48 83 ec 60          	sub    $0x60,%rsp
    b1a8:	48 89 7d a8          	mov    %rdi,-0x58(%rbp)
    b1ac:	64 48 8b 04 25 28 00 	mov    %fs:0x28,%rax
    b1b3:	00 00 
    b1b5:	48 89 45 f8          	mov    %rax,-0x8(%rbp)
    b1b9:	31 c0                	xor    %eax,%eax
    b1bb:	48 8d 05 ce 6e 00 00 	lea    0x6ece(%rip),%rax        # 12090 <g_119>
    b1c2:	48 89 45 c0          	mov    %rax,-0x40(%rbp)
    b1c6:	48 8d 05 c3 6e 00 00 	lea    0x6ec3(%rip),%rax        # 12090 <g_119>
    b1cd:	48 89 45 c8          	mov    %rax,-0x38(%rbp)
    b1d1:	48 8d 05 b8 6e 00 00 	lea    0x6eb8(%rip),%rax        # 12090 <g_119>
    b1d8:	48 89 45 d0          	mov    %rax,-0x30(%rbp)
    b1dc:	48 8d 05 ad 6e 00 00 	lea    0x6ead(%rip),%rax        # 12090 <g_119>
    b1e3:	48 89 45 d8          	mov    %rax,-0x28(%rbp)
    b1e7:	48 8d 05 a2 6e 00 00 	lea    0x6ea2(%rip),%rax        # 12090 <g_119>
    b1ee:	48 89 45 e0          	mov    %rax,-0x20(%rbp)
    b1f2:	48 8d 05 97 6e 00 00 	lea    0x6e97(%rip),%rax        # 12090 <g_119>
    b1f9:	48 89 45 e8          	mov    %rax,-0x18(%rbp)
    b1fd:	48 8d 05 8c 6e 00 00 	lea    0x6e8c(%rip),%rax        # 12090 <g_119>
    b204:	48 89 45 f0          	mov    %rax,-0x10(%rbp)
    b208:	48 8d 05 71 5e 00 00 	lea    0x5e71(%rip),%rax        # 11080 <g_94>
    b20f:	48 89 45 b8          	mov    %rax,-0x48(%rbp)
    b213:	48 8d 05 66 5e 00 00 	lea    0x5e66(%rip),%rax        # 11080 <g_94>
    b21a:	48 89 45 b8          	mov    %rax,-0x48(%rbp)
    b21e:	48 8b 45 a8          	mov    -0x58(%rbp),%rax
    b222:	48 8b 55 f8          	mov    -0x8(%rbp),%rdx
    b226:	64 48 33 14 25 28 00 	xor    %fs:0x28,%rdx
    b22d:	00 00 
    b22f:	74 05                	je     b236 <func_71+0x9a>
    b231:	e8 3a 9e ff ff       	callq  5070 <__stack_chk_fail@plt>
    b236:	c9                   	leaveq 
    b237:	c3                   	retq   

000000000000b238 <func_77>:
    b238:	f3 0f 1e fa          	endbr64 
    b23c:	55                   	push   %rbp
    b23d:	48 89 e5             	mov    %rsp,%rbp
    b240:	41 54                	push   %r12
    b242:	53                   	push   %rbx
    b243:	48 81 ec b0 06 00 00 	sub    $0x6b0,%rsp
    b24a:	89 f8                	mov    %edi,%eax
    b24c:	66 89 85 4c f9 ff ff 	mov    %ax,-0x6b4(%rbp)
    b253:	64 48 8b 04 25 28 00 	mov    %fs:0x28,%rax
    b25a:	00 00 
    b25c:	48 89 45 e8          	mov    %rax,-0x18(%rbp)
    b260:	31 c0                	xor    %eax,%eax
    b262:	48 8d 05 0f 5e 00 00 	lea    0x5e0f(%rip),%rax        # 11078 <g_17>
    b269:	48 89 85 60 f9 ff ff 	mov    %rax,-0x6a0(%rbp)
    b270:	48 8d 85 d0 fc ff ff 	lea    -0x330(%rbp),%rax
    b277:	48 8d 15 e2 6a 00 00 	lea    0x6ae2(%rip),%rdx        # 11d60 <g_2155+0x8b0>
    b27e:	b9 62 00 00 00       	mov    $0x62,%ecx
    b283:	48 89 c7             	mov    %rax,%rdi
    b286:	48 89 d6             	mov    %rdx,%rsi
    b289:	f3 48 a5             	rep movsq %ds:(%rsi),%es:(%rdi)
    b28c:	66 c7 85 5e f9 ff ff 	movw   $0x4,-0x6a2(%rbp)
    b293:	04 00 
    b295:	48 8d 05 e4 5d 00 00 	lea    0x5de4(%rip),%rax        # 11080 <g_94>
    b29c:	48 89 85 90 f9 ff ff 	mov    %rax,-0x670(%rbp)
    b2a3:	48 8d 05 d6 5d 00 00 	lea    0x5dd6(%rip),%rax        # 11080 <g_94>
    b2aa:	48 89 85 98 f9 ff ff 	mov    %rax,-0x668(%rbp)
    b2b1:	48 8d 05 c8 5d 00 00 	lea    0x5dc8(%rip),%rax        # 11080 <g_94>
    b2b8:	48 89 85 a0 f9 ff ff 	mov    %rax,-0x660(%rbp)
    b2bf:	48 8d 05 ba 5d 00 00 	lea    0x5dba(%rip),%rax        # 11080 <g_94>
    b2c6:	48 89 85 a8 f9 ff ff 	mov    %rax,-0x658(%rbp)
    b2cd:	48 8d 05 ac 5d 00 00 	lea    0x5dac(%rip),%rax        # 11080 <g_94>
    b2d4:	48 89 85 b0 f9 ff ff 	mov    %rax,-0x650(%rbp)
    b2db:	48 8d 05 9e 5d 00 00 	lea    0x5d9e(%rip),%rax        # 11080 <g_94>
    b2e2:	48 89 85 b8 f9 ff ff 	mov    %rax,-0x648(%rbp)
    b2e9:	48 8d 05 90 5d 00 00 	lea    0x5d90(%rip),%rax        # 11080 <g_94>
    b2f0:	48 89 85 c0 f9 ff ff 	mov    %rax,-0x640(%rbp)
    b2f7:	48 8d 05 82 5d 00 00 	lea    0x5d82(%rip),%rax        # 11080 <g_94>
    b2fe:	48 89 85 c8 f9 ff ff 	mov    %rax,-0x638(%rbp)
    b305:	48 8d 05 74 5d 00 00 	lea    0x5d74(%rip),%rax        # 11080 <g_94>
    b30c:	48 89 85 d0 f9 ff ff 	mov    %rax,-0x630(%rbp)
    b313:	48 8d 05 66 5d 00 00 	lea    0x5d66(%rip),%rax        # 11080 <g_94>
    b31a:	48 89 85 d8 f9 ff ff 	mov    %rax,-0x628(%rbp)
    b321:	48 8d 05 58 5d 00 00 	lea    0x5d58(%rip),%rax        # 11080 <g_94>
    b328:	48 89 85 e0 f9 ff ff 	mov    %rax,-0x620(%rbp)
    b32f:	48 8d 05 4a 5d 00 00 	lea    0x5d4a(%rip),%rax        # 11080 <g_94>
    b336:	48 89 85 e8 f9 ff ff 	mov    %rax,-0x618(%rbp)
    b33d:	48 8d 05 3c 5d 00 00 	lea    0x5d3c(%rip),%rax        # 11080 <g_94>
    b344:	48 89 85 f0 f9 ff ff 	mov    %rax,-0x610(%rbp)
    b34b:	48 8d 05 2e 5d 00 00 	lea    0x5d2e(%rip),%rax        # 11080 <g_94>
    b352:	48 89 85 f8 f9 ff ff 	mov    %rax,-0x608(%rbp)
    b359:	48 8d 05 20 5d 00 00 	lea    0x5d20(%rip),%rax        # 11080 <g_94>
    b360:	48 89 85 00 fa ff ff 	mov    %rax,-0x600(%rbp)
    b367:	48 8d 05 12 5d 00 00 	lea    0x5d12(%rip),%rax        # 11080 <g_94>
    b36e:	48 89 85 08 fa ff ff 	mov    %rax,-0x5f8(%rbp)
    b375:	48 8d 05 04 5d 00 00 	lea    0x5d04(%rip),%rax        # 11080 <g_94>
    b37c:	48 89 85 10 fa ff ff 	mov    %rax,-0x5f0(%rbp)
    b383:	48 8d 05 f6 5c 00 00 	lea    0x5cf6(%rip),%rax        # 11080 <g_94>
    b38a:	48 89 85 18 fa ff ff 	mov    %rax,-0x5e8(%rbp)
    b391:	48 c7 85 20 fa ff ff 	movq   $0x0,-0x5e0(%rbp)
    b398:	00 00 00 00 
    b39c:	48 8d 05 dd 5c 00 00 	lea    0x5cdd(%rip),%rax        # 11080 <g_94>
    b3a3:	48 89 85 28 fa ff ff 	mov    %rax,-0x5d8(%rbp)
    b3aa:	48 8d 05 cf 5c 00 00 	lea    0x5ccf(%rip),%rax        # 11080 <g_94>
    b3b1:	48 89 85 30 fa ff ff 	mov    %rax,-0x5d0(%rbp)
    b3b8:	48 c7 85 38 fa ff ff 	movq   $0x0,-0x5c8(%rbp)
    b3bf:	00 00 00 00 
    b3c3:	48 8d 05 b6 5c 00 00 	lea    0x5cb6(%rip),%rax        # 11080 <g_94>
    b3ca:	48 89 85 40 fa ff ff 	mov    %rax,-0x5c0(%rbp)
    b3d1:	48 8d 05 a8 5c 00 00 	lea    0x5ca8(%rip),%rax        # 11080 <g_94>
    b3d8:	48 89 85 48 fa ff ff 	mov    %rax,-0x5b8(%rbp)
    b3df:	48 8d 05 9a 5c 00 00 	lea    0x5c9a(%rip),%rax        # 11080 <g_94>
    b3e6:	48 89 85 50 fa ff ff 	mov    %rax,-0x5b0(%rbp)
    b3ed:	48 8d 05 8c 5c 00 00 	lea    0x5c8c(%rip),%rax        # 11080 <g_94>
    b3f4:	48 89 85 58 fa ff ff 	mov    %rax,-0x5a8(%rbp)
    b3fb:	48 8d 05 7e 5c 00 00 	lea    0x5c7e(%rip),%rax        # 11080 <g_94>
    b402:	48 89 85 60 fa ff ff 	mov    %rax,-0x5a0(%rbp)
    b409:	48 8d 05 70 5c 00 00 	lea    0x5c70(%rip),%rax        # 11080 <g_94>
    b410:	48 89 85 68 fa ff ff 	mov    %rax,-0x598(%rbp)
    b417:	48 8d 05 62 5c 00 00 	lea    0x5c62(%rip),%rax        # 11080 <g_94>
    b41e:	48 89 85 70 fa ff ff 	mov    %rax,-0x590(%rbp)
    b425:	48 8d 05 54 5c 00 00 	lea    0x5c54(%rip),%rax        # 11080 <g_94>
    b42c:	48 89 85 78 fa ff ff 	mov    %rax,-0x588(%rbp)
    b433:	48 8d 05 46 5c 00 00 	lea    0x5c46(%rip),%rax        # 11080 <g_94>
    b43a:	48 89 85 80 fa ff ff 	mov    %rax,-0x580(%rbp)
    b441:	48 8d 05 38 5c 00 00 	lea    0x5c38(%rip),%rax        # 11080 <g_94>
    b448:	48 89 85 88 fa ff ff 	mov    %rax,-0x578(%rbp)
    b44f:	48 8d 85 90 f9 ff ff 	lea    -0x670(%rbp),%rax
    b456:	48 83 c0 18          	add    $0x18,%rax
    b45a:	48 89 85 68 f9 ff ff 	mov    %rax,-0x698(%rbp)
    b461:	48 8d 05 20 5c 00 00 	lea    0x5c20(%rip),%rax        # 11088 <g_103>
    b468:	48 89 85 70 f9 ff ff 	mov    %rax,-0x690(%rbp)
    b46f:	48 8d 85 5e f9 ff ff 	lea    -0x6a2(%rbp),%rax
    b476:	48 89 85 78 f9 ff ff 	mov    %rax,-0x688(%rbp)
    b47d:	48 8d 05 0c 5c 00 00 	lea    0x5c0c(%rip),%rax        # 11090 <g_113>
    b484:	48 89 85 80 f9 ff ff 	mov    %rax,-0x680(%rbp)
    b48b:	48 8d 05 ea 5b 00 00 	lea    0x5bea(%rip),%rax        # 1107c <g_81>
    b492:	48 89 85 88 f9 ff ff 	mov    %rax,-0x678(%rbp)
    b499:	48 8d 85 90 fa ff ff 	lea    -0x570(%rbp),%rax
    b4a0:	48 8d 15 59 2b 00 00 	lea    0x2b59(%rip),%rdx        # e000 <g_599+0xfa0>
    b4a7:	b9 48 00 00 00       	mov    $0x48,%ecx
    b4ac:	48 89 c7             	mov    %rax,%rdi
    b4af:	48 89 d6             	mov    %rdx,%rsi
    b4b2:	f3 48 a5             	rep movsq %ds:(%rsi),%es:(%rdi)
    b4b5:	0f b7 85 5e f9 ff ff 	movzwl -0x6a2(%rbp),%eax
    b4bc:	83 e8 01             	sub    $0x1,%eax
    b4bf:	66 89 85 5e f9 ff ff 	mov    %ax,-0x6a2(%rbp)
    b4c6:	48 8b 85 68 f9 ff ff 	mov    -0x698(%rbp),%rax
    b4cd:	48 8d 15 ac 5b 00 00 	lea    0x5bac(%rip),%rdx        # 11080 <g_94>
    b4d4:	48 89 10             	mov    %rdx,(%rax)
    b4d7:	48 8b 85 60 f9 ff ff 	mov    -0x6a0(%rbp),%rax
    b4de:	c7 00 f8 ff ff ff    	movl   $0xfffffff8,(%rax)
    b4e4:	8b 05 3e 5b 00 00    	mov    0x5b3e(%rip),%eax        # 11028 <g_8>
    b4ea:	89 c2                	mov    %eax,%edx
    b4ec:	48 8b 85 78 f9 ff ff 	mov    -0x688(%rbp),%rax
    b4f3:	66 89 10             	mov    %dx,(%rax)
    b4f6:	48 8b 85 78 f9 ff ff 	mov    -0x688(%rbp),%rax
    b4fd:	0f b7 00             	movzwl (%rax),%eax
    b500:	0f bf d0             	movswl %ax,%edx
    b503:	8b 05 a3 83 00 00    	mov    0x83a3(%rip),%eax        # 138ac <g_57>
    b509:	85 c0                	test   %eax,%eax
    b50b:	75 33                	jne    b540 <func_77+0x308>
    b50d:	8b 05 15 5b 00 00    	mov    0x5b15(%rip),%eax        # 11028 <g_8>
    b513:	48 63 c8             	movslq %eax,%rcx
    b516:	48 8b 85 70 f9 ff ff 	mov    -0x690(%rbp),%rax
    b51d:	48 8b 00             	mov    (%rax),%rax
    b520:	48 8d 70 01          	lea    0x1(%rax),%rsi
    b524:	48 8b 85 70 f9 ff ff 	mov    -0x690(%rbp),%rax
    b52b:	48 89 30             	mov    %rsi,(%rax)
    b52e:	48 8b 85 70 f9 ff ff 	mov    -0x690(%rbp),%rax
    b535:	48 8b 00             	mov    (%rax),%rax
    b538:	48 09 c8             	or     %rcx,%rax
    b53b:	48 85 c0             	test   %rax,%rax
    b53e:	74 07                	je     b547 <func_77+0x30f>
    b540:	b8 01 00 00 00       	mov    $0x1,%eax
    b545:	eb 05                	jmp    b54c <func_77+0x314>
    b547:	b8 00 00 00 00       	mov    $0x0,%eax
    b54c:	98                   	cwtl   
    b54d:	89 d6                	mov    %edx,%esi
    b54f:	89 c7                	mov    %eax,%edi
    b551:	e8 7d 9e ff ff       	callq  53d3 <safe_sub_func_int16_t_s_s>
    b556:	8b 1d 50 83 00 00    	mov    0x8350(%rip),%ebx        # 138ac <g_57>
    b55c:	8b 05 1e 5b 00 00    	mov    0x5b1e(%rip),%eax        # 11080 <g_94>
    b562:	85 c0                	test   %eax,%eax
    b564:	75 72                	jne    b5d8 <func_77+0x3a0>
    b566:	48 8b 85 80 f9 ff ff 	mov    -0x680(%rbp),%rax
    b56d:	c7 00 fa ff ff ff    	movl   $0xfffffffa,(%rax)
    b573:	48 8b 85 88 f9 ff ff 	mov    -0x678(%rbp),%rax
    b57a:	c6 00 01             	movb   $0x1,(%rax)
    b57d:	8b 05 fd 5a 00 00    	mov    0x5afd(%rip),%eax        # 11080 <g_94>
    b583:	89 c2                	mov    %eax,%edx
    b585:	48 8b 85 30 fb ff ff 	mov    -0x4d0(%rbp),%rax
    b58c:	21 d0                	and    %edx,%eax
    b58e:	44 0f be e0          	movsbl %al,%r12d
    b592:	bf c4 f6 39 ac       	mov    $0xac39f6c4,%edi
    b597:	e8 0a a9 ff ff       	callq  5ea6 <safe_unary_minus_func_uint32_t_u>
    b59c:	85 c0                	test   %eax,%eax
    b59e:	75 14                	jne    b5b4 <func_77+0x37c>
    b5a0:	8b 05 06 83 00 00    	mov    0x8306(%rip),%eax        # 138ac <g_57>
    b5a6:	85 c0                	test   %eax,%eax
    b5a8:	74 11                	je     b5bb <func_77+0x383>
    b5aa:	66 83 bd 4c f9 ff ff 	cmpw   $0x0,-0x6b4(%rbp)
    b5b1:	00 
    b5b2:	74 07                	je     b5bb <func_77+0x383>
    b5b4:	b8 01 00 00 00       	mov    $0x1,%eax
    b5b9:	eb 05                	jmp    b5c0 <func_77+0x388>
    b5bb:	b8 00 00 00 00       	mov    $0x0,%eax
    b5c0:	0f be c0             	movsbl %al,%eax
    b5c3:	44 89 e6             	mov    %r12d,%esi
    b5c6:	89 c7                	mov    %eax,%edi
    b5c8:	e8 45 9c ff ff       	callq  5212 <safe_mul_func_int8_t_s_s>
    b5cd:	66 98                	cbtw   
    b5cf:	66 39 85 4c f9 ff ff 	cmp    %ax,-0x6b4(%rbp)
    b5d6:	7e 07                	jle    b5df <func_77+0x3a7>
    b5d8:	b8 01 00 00 00       	mov    $0x1,%eax
    b5dd:	eb 05                	jmp    b5e4 <func_77+0x3ac>
    b5df:	b8 00 00 00 00       	mov    $0x0,%eax
    b5e4:	48 98                	cltq   
    b5e6:	48 89 05 ab 5a 00 00 	mov    %rax,0x5aab(%rip)        # 11098 <g_116>
    b5ed:	89 de                	mov    %ebx,%esi
    b5ef:	bf 01 00 00 00       	mov    $0x1,%edi
    b5f4:	e8 bf a8 ff ff       	callq  5eb8 <safe_add_func_uint32_t_u_u>
    b5f9:	89 c2                	mov    %eax,%edx
    b5fb:	48 8b 85 60 f9 ff ff 	mov    -0x6a0(%rbp),%rax
    b602:	89 10                	mov    %edx,(%rax)
    b604:	0f b7 85 4c f9 ff ff 	movzwl -0x6b4(%rbp),%eax
    b60b:	48 8b 5d e8          	mov    -0x18(%rbp),%rbx
    b60f:	64 48 33 1c 25 28 00 	xor    %fs:0x28,%rbx
    b616:	00 00 
    b618:	74 05                	je     b61f <func_77+0x3e7>
    b61a:	e8 51 9a ff ff       	callq  5070 <__stack_chk_fail@plt>
    b61f:	48 81 c4 b0 06 00 00 	add    $0x6b0,%rsp
    b626:	5b                   	pop    %rbx
    b627:	41 5c                	pop    %r12
    b629:	5d                   	pop    %rbp
    b62a:	c3                   	retq   

000000000000b62b <main>:
    b62b:	f3 0f 1e fa          	endbr64 
    b62f:	55                   	push   %rbp
    b630:	48 89 e5             	mov    %rsp,%rbp
    b633:	48 83 ec 20          	sub    $0x20,%rsp
    b637:	89 7d ec             	mov    %edi,-0x14(%rbp)
    b63a:	48 89 75 e0          	mov    %rsi,-0x20(%rbp)
    b63e:	c7 45 fc 00 00 00 00 	movl   $0x0,-0x4(%rbp)
    b645:	83 7d ec 02          	cmpl   $0x2,-0x14(%rbp)
    b649:	75 25                	jne    b670 <main+0x45>
    b64b:	48 8b 45 e0          	mov    -0x20(%rbp),%rax
    b64f:	48 83 c0 08          	add    $0x8,%rax
    b653:	48 8b 00             	mov    (%rax),%rax
    b656:	48 8d 35 e3 2b 00 00 	lea    0x2be3(%rip),%rsi        # e240 <g_599+0x11e0>
    b65d:	48 89 c7             	mov    %rax,%rdi
    b660:	e8 2b 9a ff ff       	callq  5090 <strcmp@plt>
    b665:	85 c0                	test   %eax,%eax
    b667:	75 07                	jne    b670 <main+0x45>
    b669:	c7 45 fc 01 00 00 00 	movl   $0x1,-0x4(%rbp)
    b670:	e8 14 9b ff ff       	callq  5189 <platform_main_begin>
    b675:	e8 1e af ff ff       	callq  6598 <crc32_gentab>
    b67a:	e8 36 b1 ff ff       	callq  67b5 <func_1>
    b67f:	8b 05 9f 59 00 00    	mov    0x599f(%rip),%eax        # 11024 <g_4>
    b685:	48 98                	cltq   
    b687:	8b 55 fc             	mov    -0x4(%rbp),%edx
    b68a:	48 8d 35 b1 2b 00 00 	lea    0x2bb1(%rip),%rsi        # e242 <g_599+0x11e2>
    b691:	48 89 c7             	mov    %rax,%rdi
    b694:	e8 5a b0 ff ff       	callq  66f3 <transparent_crc>
    b699:	8b 05 89 59 00 00    	mov    0x5989(%rip),%eax        # 11028 <g_8>
    b69f:	48 98                	cltq   
    b6a1:	8b 55 fc             	mov    -0x4(%rbp),%edx
    b6a4:	48 8d 35 9b 2b 00 00 	lea    0x2b9b(%rip),%rsi        # e246 <g_599+0x11e6>
    b6ab:	48 89 c7             	mov    %rax,%rdi
    b6ae:	e8 40 b0 ff ff       	callq  66f3 <transparent_crc>
    b6b3:	c7 45 f0 00 00 00 00 	movl   $0x0,-0x10(%rbp)
    b6ba:	eb 72                	jmp    b72e <main+0x103>
    b6bc:	c7 45 f4 00 00 00 00 	movl   $0x0,-0xc(%rbp)
    b6c3:	eb 5f                	jmp    b724 <main+0xf9>
    b6c5:	8b 45 f4             	mov    -0xc(%rbp),%eax
    b6c8:	48 63 c8             	movslq %eax,%rcx
    b6cb:	8b 45 f0             	mov    -0x10(%rbp),%eax
    b6ce:	48 63 d0             	movslq %eax,%rdx
    b6d1:	48 89 d0             	mov    %rdx,%rax
    b6d4:	48 01 c0             	add    %rax,%rax
    b6d7:	48 01 d0             	add    %rdx,%rax
    b6da:	48 01 c8             	add    %rcx,%rax
    b6dd:	48 8d 14 00          	lea    (%rax,%rax,1),%rdx
    b6e1:	48 8d 05 58 59 00 00 	lea    0x5958(%rip),%rax        # 11040 <g_13>
    b6e8:	0f b7 04 02          	movzwl (%rdx,%rax,1),%eax
    b6ec:	0f b7 c0             	movzwl %ax,%eax
    b6ef:	8b 55 fc             	mov    -0x4(%rbp),%edx
    b6f2:	48 8d 35 51 2b 00 00 	lea    0x2b51(%rip),%rsi        # e24a <g_599+0x11ea>
    b6f9:	48 89 c7             	mov    %rax,%rdi
    b6fc:	e8 f2 af ff ff       	callq  66f3 <transparent_crc>
    b701:	83 7d fc 00          	cmpl   $0x0,-0x4(%rbp)
    b705:	74 19                	je     b720 <main+0xf5>
    b707:	8b 55 f4             	mov    -0xc(%rbp),%edx
    b70a:	8b 45 f0             	mov    -0x10(%rbp),%eax
    b70d:	89 c6                	mov    %eax,%esi
    b70f:	48 8d 3d 3f 2b 00 00 	lea    0x2b3f(%rip),%rdi        # e255 <g_599+0x11f5>
    b716:	b8 00 00 00 00       	mov    $0x0,%eax
    b71b:	e8 60 99 ff ff       	callq  5080 <printf@plt>
    b720:	83 45 f4 01          	addl   $0x1,-0xc(%rbp)
    b724:	83 7d f4 02          	cmpl   $0x2,-0xc(%rbp)
    b728:	7e 9b                	jle    b6c5 <main+0x9a>
    b72a:	83 45 f0 01          	addl   $0x1,-0x10(%rbp)
    b72e:	83 7d f0 08          	cmpl   $0x8,-0x10(%rbp)
    b732:	7e 88                	jle    b6bc <main+0x91>
    b734:	8b 05 3e 59 00 00    	mov    0x593e(%rip),%eax        # 11078 <g_17>
    b73a:	48 98                	cltq   
    b73c:	8b 55 fc             	mov    -0x4(%rbp),%edx
    b73f:	48 8d 35 21 2b 00 00 	lea    0x2b21(%rip),%rsi        # e267 <g_599+0x1207>
    b746:	48 89 c7             	mov    %rax,%rdi
    b749:	e8 a5 af ff ff       	callq  66f3 <transparent_crc>
    b74e:	0f b6 05 53 81 00 00 	movzbl 0x8153(%rip),%eax        # 138a8 <g_25>
    b755:	0f b6 c0             	movzbl %al,%eax
    b758:	8b 55 fc             	mov    -0x4(%rbp),%edx
    b75b:	48 8d 35 0a 2b 00 00 	lea    0x2b0a(%rip),%rsi        # e26c <g_599+0x120c>
    b762:	48 89 c7             	mov    %rax,%rdi
    b765:	e8 89 af ff ff       	callq  66f3 <transparent_crc>
    b76a:	8b 05 3c 81 00 00    	mov    0x813c(%rip),%eax        # 138ac <g_57>
    b770:	89 c1                	mov    %eax,%ecx
    b772:	8b 45 fc             	mov    -0x4(%rbp),%eax
    b775:	89 c2                	mov    %eax,%edx
    b777:	48 8d 35 f3 2a 00 00 	lea    0x2af3(%rip),%rsi        # e271 <g_599+0x1211>
    b77e:	48 89 cf             	mov    %rcx,%rdi
    b781:	e8 6d af ff ff       	callq  66f3 <transparent_crc>
    b786:	0f b6 05 ef 58 00 00 	movzbl 0x58ef(%rip),%eax        # 1107c <g_81>
    b78d:	0f b6 c0             	movzbl %al,%eax
    b790:	8b 55 fc             	mov    -0x4(%rbp),%edx
    b793:	48 8d 35 dc 2a 00 00 	lea    0x2adc(%rip),%rsi        # e276 <g_599+0x1216>
    b79a:	48 89 c7             	mov    %rax,%rdi
    b79d:	e8 51 af ff ff       	callq  66f3 <transparent_crc>
    b7a2:	c7 45 f0 00 00 00 00 	movl   $0x0,-0x10(%rbp)
    b7a9:	eb 6a                	jmp    b815 <main+0x1ea>
    b7ab:	c7 45 f4 00 00 00 00 	movl   $0x0,-0xc(%rbp)
    b7b2:	eb 57                	jmp    b80b <main+0x1e0>
    b7b4:	8b 45 f4             	mov    -0xc(%rbp),%eax
    b7b7:	48 63 d0             	movslq %eax,%rdx
    b7ba:	8b 45 f0             	mov    -0x10(%rbp),%eax
    b7bd:	48 98                	cltq   
    b7bf:	48 01 d0             	add    %rdx,%rax
    b7c2:	48 8d 14 85 00 00 00 	lea    0x0(,%rax,4),%rdx
    b7c9:	00 
    b7ca:	48 8d 05 af 58 00 00 	lea    0x58af(%rip),%rax        # 11080 <g_94>
    b7d1:	8b 04 02             	mov    (%rdx,%rax,1),%eax
    b7d4:	48 98                	cltq   
    b7d6:	8b 55 fc             	mov    -0x4(%rbp),%edx
    b7d9:	48 8d 35 9b 2a 00 00 	lea    0x2a9b(%rip),%rsi        # e27b <g_599+0x121b>
    b7e0:	48 89 c7             	mov    %rax,%rdi
    b7e3:	e8 0b af ff ff       	callq  66f3 <transparent_crc>
    b7e8:	83 7d fc 00          	cmpl   $0x0,-0x4(%rbp)
    b7ec:	74 19                	je     b807 <main+0x1dc>
    b7ee:	8b 55 f4             	mov    -0xc(%rbp),%edx
    b7f1:	8b 45 f0             	mov    -0x10(%rbp),%eax
    b7f4:	89 c6                	mov    %eax,%esi
    b7f6:	48 8d 3d 58 2a 00 00 	lea    0x2a58(%rip),%rdi        # e255 <g_599+0x11f5>
    b7fd:	b8 00 00 00 00       	mov    $0x0,%eax
    b802:	e8 79 98 ff ff       	callq  5080 <printf@plt>
    b807:	83 45 f4 01          	addl   $0x1,-0xc(%rbp)
    b80b:	83 7d f4 00          	cmpl   $0x0,-0xc(%rbp)
    b80f:	7e a3                	jle    b7b4 <main+0x189>
    b811:	83 45 f0 01          	addl   $0x1,-0x10(%rbp)
    b815:	83 7d f0 01          	cmpl   $0x1,-0x10(%rbp)
    b819:	7e 90                	jle    b7ab <main+0x180>
    b81b:	48 8b 05 66 58 00 00 	mov    0x5866(%rip),%rax        # 11088 <g_103>
    b822:	8b 55 fc             	mov    -0x4(%rbp),%edx
    b825:	48 8d 35 5a 2a 00 00 	lea    0x2a5a(%rip),%rsi        # e286 <g_599+0x1226>
    b82c:	48 89 c7             	mov    %rax,%rdi
    b82f:	e8 bf ae ff ff       	callq  66f3 <transparent_crc>
    b834:	8b 05 56 58 00 00    	mov    0x5856(%rip),%eax        # 11090 <g_113>
    b83a:	89 c1                	mov    %eax,%ecx
    b83c:	8b 45 fc             	mov    -0x4(%rbp),%eax
    b83f:	89 c2                	mov    %eax,%edx
    b841:	48 8d 35 44 2a 00 00 	lea    0x2a44(%rip),%rsi        # e28c <g_599+0x122c>
    b848:	48 89 cf             	mov    %rcx,%rdi
    b84b:	e8 a3 ae ff ff       	callq  66f3 <transparent_crc>
    b850:	48 8b 05 41 58 00 00 	mov    0x5841(%rip),%rax        # 11098 <g_116>
    b857:	8b 55 fc             	mov    -0x4(%rbp),%edx
    b85a:	48 8d 35 31 2a 00 00 	lea    0x2a31(%rip),%rsi        # e292 <g_599+0x1232>
    b861:	48 89 c7             	mov    %rax,%rdi
    b864:	e8 8a ae ff ff       	callq  66f3 <transparent_crc>
    b869:	b8 07 00 00 00       	mov    $0x7,%eax
    b86e:	0f b6 c0             	movzbl %al,%eax
    b871:	8b 55 fc             	mov    -0x4(%rbp),%edx
    b874:	48 8d 35 1d 2a 00 00 	lea    0x2a1d(%rip),%rsi        # e298 <g_599+0x1238>
    b87b:	48 89 c7             	mov    %rax,%rdi
    b87e:	e8 70 ae ff ff       	callq  66f3 <transparent_crc>
    b883:	c7 45 f0 00 00 00 00 	movl   $0x0,-0x10(%rbp)
    b88a:	eb 69                	jmp    b8f5 <main+0x2ca>
    b88c:	c7 45 f4 00 00 00 00 	movl   $0x0,-0xc(%rbp)
    b893:	eb 56                	jmp    b8eb <main+0x2c0>
    b895:	8b 45 f4             	mov    -0xc(%rbp),%eax
    b898:	48 63 d0             	movslq %eax,%rdx
    b89b:	8b 45 f0             	mov    -0x10(%rbp),%eax
    b89e:	48 98                	cltq   
    b8a0:	48 01 d0             	add    %rdx,%rax
    b8a3:	48 8d 14 c5 00 00 00 	lea    0x0(,%rax,8),%rdx
    b8aa:	00 
    b8ab:	48 8d 05 0e 80 00 00 	lea    0x800e(%rip),%rax        # 138c0 <g_143>
    b8b2:	48 8b 04 02          	mov    (%rdx,%rax,1),%rax
    b8b6:	8b 55 fc             	mov    -0x4(%rbp),%edx
    b8b9:	48 8d 35 de 29 00 00 	lea    0x29de(%rip),%rsi        # e29e <g_599+0x123e>
    b8c0:	48 89 c7             	mov    %rax,%rdi
    b8c3:	e8 2b ae ff ff       	callq  66f3 <transparent_crc>
    b8c8:	83 7d fc 00          	cmpl   $0x0,-0x4(%rbp)
    b8cc:	74 19                	je     b8e7 <main+0x2bc>
    b8ce:	8b 55 f4             	mov    -0xc(%rbp),%edx
    b8d1:	8b 45 f0             	mov    -0x10(%rbp),%eax
    b8d4:	89 c6                	mov    %eax,%esi
    b8d6:	48 8d 3d 78 29 00 00 	lea    0x2978(%rip),%rdi        # e255 <g_599+0x11f5>
    b8dd:	b8 00 00 00 00       	mov    $0x0,%eax
    b8e2:	e8 99 97 ff ff       	callq  5080 <printf@plt>
    b8e7:	83 45 f4 01          	addl   $0x1,-0xc(%rbp)
    b8eb:	83 7d f4 00          	cmpl   $0x0,-0xc(%rbp)
    b8ef:	7e a4                	jle    b895 <main+0x26a>
    b8f1:	83 45 f0 01          	addl   $0x1,-0x10(%rbp)
    b8f5:	83 7d f0 08          	cmpl   $0x8,-0x10(%rbp)
    b8f9:	7e 91                	jle    b88c <main+0x261>
    b8fb:	c7 45 f0 00 00 00 00 	movl   $0x0,-0x10(%rbp)
    b902:	eb 46                	jmp    b94a <main+0x31f>
    b904:	8b 45 f0             	mov    -0x10(%rbp),%eax
    b907:	48 98                	cltq   
    b909:	48 8d 15 90 57 00 00 	lea    0x5790(%rip),%rdx        # 110a0 <g_165>
    b910:	0f b6 04 10          	movzbl (%rax,%rdx,1),%eax
    b914:	48 0f be c0          	movsbq %al,%rax
    b918:	8b 55 fc             	mov    -0x4(%rbp),%edx
    b91b:	48 8d 35 88 29 00 00 	lea    0x2988(%rip),%rsi        # e2aa <g_599+0x124a>
    b922:	48 89 c7             	mov    %rax,%rdi
    b925:	e8 c9 ad ff ff       	callq  66f3 <transparent_crc>
    b92a:	83 7d fc 00          	cmpl   $0x0,-0x4(%rbp)
    b92e:	74 16                	je     b946 <main+0x31b>
    b930:	8b 45 f0             	mov    -0x10(%rbp),%eax
    b933:	89 c6                	mov    %eax,%esi
    b935:	48 8d 3d 77 29 00 00 	lea    0x2977(%rip),%rdi        # e2b3 <g_599+0x1253>
    b93c:	b8 00 00 00 00       	mov    $0x0,%eax
    b941:	e8 3a 97 ff ff       	callq  5080 <printf@plt>
    b946:	83 45 f0 01          	addl   $0x1,-0x10(%rbp)
    b94a:	83 7d f0 00          	cmpl   $0x0,-0x10(%rbp)
    b94e:	7e b4                	jle    b904 <main+0x2d9>
    b950:	8b 05 4e 57 00 00    	mov    0x574e(%rip),%eax        # 110a4 <g_167>
    b956:	89 c1                	mov    %eax,%ecx
    b958:	8b 45 fc             	mov    -0x4(%rbp),%eax
    b95b:	89 c2                	mov    %eax,%edx
    b95d:	48 8d 35 5d 29 00 00 	lea    0x295d(%rip),%rsi        # e2c1 <g_599+0x1261>
    b964:	48 89 cf             	mov    %rcx,%rdi
    b967:	e8 87 ad ff ff       	callq  66f3 <transparent_crc>
    b96c:	8b 05 36 57 00 00    	mov    0x5736(%rip),%eax        # 110a8 <g_170>
    b972:	89 c1                	mov    %eax,%ecx
    b974:	8b 45 fc             	mov    -0x4(%rbp),%eax
    b977:	89 c2                	mov    %eax,%edx
    b979:	48 8d 35 47 29 00 00 	lea    0x2947(%rip),%rsi        # e2c7 <g_599+0x1267>
    b980:	48 89 cf             	mov    %rcx,%rdi
    b983:	e8 6b ad ff ff       	callq  66f3 <transparent_crc>
    b988:	c7 45 f0 00 00 00 00 	movl   $0x0,-0x10(%rbp)
    b98f:	eb 46                	jmp    b9d7 <main+0x3ac>
    b991:	8b 45 f0             	mov    -0x10(%rbp),%eax
    b994:	48 98                	cltq   
    b996:	48 8d 15 b8 16 00 00 	lea    0x16b8(%rip),%rdx        # d055 <g_194>
    b99d:	0f b6 04 10          	movzbl (%rax,%rdx,1),%eax
    b9a1:	48 0f be c0          	movsbq %al,%rax
    b9a5:	8b 55 fc             	mov    -0x4(%rbp),%edx
    b9a8:	48 8d 35 1e 29 00 00 	lea    0x291e(%rip),%rsi        # e2cd <g_599+0x126d>
    b9af:	48 89 c7             	mov    %rax,%rdi
    b9b2:	e8 3c ad ff ff       	callq  66f3 <transparent_crc>
    b9b7:	83 7d fc 00          	cmpl   $0x0,-0x4(%rbp)
    b9bb:	74 16                	je     b9d3 <main+0x3a8>
    b9bd:	8b 45 f0             	mov    -0x10(%rbp),%eax
    b9c0:	89 c6                	mov    %eax,%esi
    b9c2:	48 8d 3d ea 28 00 00 	lea    0x28ea(%rip),%rdi        # e2b3 <g_599+0x1253>
    b9c9:	b8 00 00 00 00       	mov    $0x0,%eax
    b9ce:	e8 ad 96 ff ff       	callq  5080 <printf@plt>
    b9d3:	83 45 f0 01          	addl   $0x1,-0x10(%rbp)
    b9d7:	83 7d f0 03          	cmpl   $0x3,-0x10(%rbp)
    b9db:	7e b4                	jle    b991 <main+0x366>
    b9dd:	0f b7 05 c8 56 00 00 	movzwl 0x56c8(%rip),%eax        # 110ac <g_207>
    b9e4:	0f b7 c0             	movzwl %ax,%eax
    b9e7:	8b 55 fc             	mov    -0x4(%rbp),%edx
    b9ea:	48 8d 35 e5 28 00 00 	lea    0x28e5(%rip),%rsi        # e2d6 <g_599+0x1276>
    b9f1:	48 89 c7             	mov    %rax,%rdi
    b9f4:	e8 fa ac ff ff       	callq  66f3 <transparent_crc>
    b9f9:	0f b7 05 ae 56 00 00 	movzwl 0x56ae(%rip),%eax        # 110ae <g_211>
    ba00:	48 0f bf c0          	movswq %ax,%rax
    ba04:	8b 55 fc             	mov    -0x4(%rbp),%edx
    ba07:	48 8d 35 ce 28 00 00 	lea    0x28ce(%rip),%rsi        # e2dc <g_599+0x127c>
    ba0e:	48 89 c7             	mov    %rax,%rdi
    ba11:	e8 dd ac ff ff       	callq  66f3 <transparent_crc>
    ba16:	0f b6 05 eb 7e 00 00 	movzbl 0x7eeb(%rip),%eax        # 13908 <g_252>
    ba1d:	0f b6 c0             	movzbl %al,%eax
    ba20:	8b 55 fc             	mov    -0x4(%rbp),%edx
    ba23:	48 8d 35 b8 28 00 00 	lea    0x28b8(%rip),%rsi        # e2e2 <g_599+0x1282>
    ba2a:	48 89 c7             	mov    %rax,%rdi
    ba2d:	e8 c1 ac ff ff       	callq  66f3 <transparent_crc>
    ba32:	0f b6 05 77 56 00 00 	movzbl 0x5677(%rip),%eax        # 110b0 <g_321>
    ba39:	48 0f be c0          	movsbq %al,%rax
    ba3d:	8b 55 fc             	mov    -0x4(%rbp),%edx
    ba40:	48 8d 35 a1 28 00 00 	lea    0x28a1(%rip),%rsi        # e2e8 <g_599+0x1288>
    ba47:	48 89 c7             	mov    %rax,%rdi
    ba4a:	e8 a4 ac ff ff       	callq  66f3 <transparent_crc>
    ba4f:	48 8b 05 62 56 00 00 	mov    0x5662(%rip),%rax        # 110b8 <g_459>
    ba56:	8b 55 fc             	mov    -0x4(%rbp),%edx
    ba59:	48 8d 35 8e 28 00 00 	lea    0x288e(%rip),%rsi        # e2ee <g_599+0x128e>
    ba60:	48 89 c7             	mov    %rax,%rdi
    ba63:	e8 8b ac ff ff       	callq  66f3 <transparent_crc>
    ba68:	8b 05 52 56 00 00    	mov    0x5652(%rip),%eax        # 110c0 <g_573>
    ba6e:	48 98                	cltq   
    ba70:	8b 55 fc             	mov    -0x4(%rbp),%edx
    ba73:	48 8d 35 7a 28 00 00 	lea    0x287a(%rip),%rsi        # e2f4 <g_599+0x1294>
    ba7a:	48 89 c7             	mov    %rax,%rdi
    ba7d:	e8 71 ac ff ff       	callq  66f3 <transparent_crc>
    ba82:	48 8b 05 3f 56 00 00 	mov    0x563f(%rip),%rax        # 110c8 <g_584>
    ba89:	48 89 c1             	mov    %rax,%rcx
    ba8c:	8b 45 fc             	mov    -0x4(%rbp),%eax
    ba8f:	89 c2                	mov    %eax,%edx
    ba91:	48 8d 35 62 28 00 00 	lea    0x2862(%rip),%rsi        # e2fa <g_599+0x129a>
    ba98:	48 89 cf             	mov    %rcx,%rdi
    ba9b:	e8 53 ac ff ff       	callq  66f3 <transparent_crc>
    baa0:	8b 05 2a 56 00 00    	mov    0x562a(%rip),%eax        # 110d0 <g_593>
    baa6:	89 c1                	mov    %eax,%ecx
    baa8:	8b 45 fc             	mov    -0x4(%rbp),%eax
    baab:	89 c2                	mov    %eax,%edx
    baad:	48 8d 35 4c 28 00 00 	lea    0x284c(%rip),%rsi        # e300 <g_599+0x12a0>
    bab4:	48 89 cf             	mov    %rcx,%rdi
    bab7:	e8 37 ac ff ff       	callq  66f3 <transparent_crc>
    babc:	8b 05 5e 7e 00 00    	mov    0x7e5e(%rip),%eax        # 13920 <g_631>
    bac2:	48 98                	cltq   
    bac4:	8b 55 fc             	mov    -0x4(%rbp),%edx
    bac7:	48 8d 35 38 28 00 00 	lea    0x2838(%rip),%rsi        # e306 <g_599+0x12a6>
    bace:	48 89 c7             	mov    %rax,%rdi
    bad1:	e8 1d ac ff ff       	callq  66f3 <transparent_crc>
    bad6:	8b 05 f8 55 00 00    	mov    0x55f8(%rip),%eax        # 110d4 <g_744>
    badc:	89 c1                	mov    %eax,%ecx
    bade:	8b 45 fc             	mov    -0x4(%rbp),%eax
    bae1:	89 c2                	mov    %eax,%edx
    bae3:	48 8d 35 22 28 00 00 	lea    0x2822(%rip),%rsi        # e30c <g_599+0x12ac>
    baea:	48 89 cf             	mov    %rcx,%rdi
    baed:	e8 01 ac ff ff       	callq  66f3 <transparent_crc>
    baf2:	8b 05 48 7e 00 00    	mov    0x7e48(%rip),%eax        # 13940 <g_992>
    baf8:	48 98                	cltq   
    bafa:	8b 55 fc             	mov    -0x4(%rbp),%edx
    bafd:	48 8d 35 0e 28 00 00 	lea    0x280e(%rip),%rsi        # e312 <g_599+0x12b2>
    bb04:	48 89 c7             	mov    %rax,%rdi
    bb07:	e8 e7 ab ff ff       	callq  66f3 <transparent_crc>
    bb0c:	48 8b 05 c5 55 00 00 	mov    0x55c5(%rip),%rax        # 110d8 <g_1105>
    bb13:	48 89 c1             	mov    %rax,%rcx
    bb16:	8b 45 fc             	mov    -0x4(%rbp),%eax
    bb19:	89 c2                	mov    %eax,%edx
    bb1b:	48 8d 35 f6 27 00 00 	lea    0x27f6(%rip),%rsi        # e318 <g_599+0x12b8>
    bb22:	48 89 cf             	mov    %rcx,%rdi
    bb25:	e8 c9 ab ff ff       	callq  66f3 <transparent_crc>
    bb2a:	8b 05 b0 55 00 00    	mov    0x55b0(%rip),%eax        # 110e0 <g_1106>
    bb30:	48 98                	cltq   
    bb32:	8b 55 fc             	mov    -0x4(%rbp),%edx
    bb35:	48 8d 35 e3 27 00 00 	lea    0x27e3(%rip),%rsi        # e31f <g_599+0x12bf>
    bb3c:	48 89 c7             	mov    %rax,%rdi
    bb3f:	e8 af ab ff ff       	callq  66f3 <transparent_crc>
    bb44:	8b 05 9a 55 00 00    	mov    0x559a(%rip),%eax        # 110e4 <g_1107>
    bb4a:	48 98                	cltq   
    bb4c:	8b 55 fc             	mov    -0x4(%rbp),%edx
    bb4f:	48 8d 35 d0 27 00 00 	lea    0x27d0(%rip),%rsi        # e326 <g_599+0x12c6>
    bb56:	48 89 c7             	mov    %rax,%rdi
    bb59:	e8 95 ab ff ff       	callq  66f3 <transparent_crc>
    bb5e:	8b 05 84 55 00 00    	mov    0x5584(%rip),%eax        # 110e8 <g_1131>
    bb64:	89 c1                	mov    %eax,%ecx
    bb66:	8b 45 fc             	mov    -0x4(%rbp),%eax
    bb69:	89 c2                	mov    %eax,%edx
    bb6b:	48 8d 35 bb 27 00 00 	lea    0x27bb(%rip),%rsi        # e32d <g_599+0x12cd>
    bb72:	48 89 cf             	mov    %rcx,%rdi
    bb75:	e8 79 ab ff ff       	callq  66f3 <transparent_crc>
    bb7a:	c7 45 f0 00 00 00 00 	movl   $0x0,-0x10(%rbp)
    bb81:	eb 4d                	jmp    bbd0 <main+0x5a5>
    bb83:	8b 45 f0             	mov    -0x10(%rbp),%eax
    bb86:	48 98                	cltq   
    bb88:	48 8d 14 85 00 00 00 	lea    0x0(,%rax,4),%rdx
    bb8f:	00 
    bb90:	48 8d 05 59 55 00 00 	lea    0x5559(%rip),%rax        # 110f0 <g_1182>
    bb97:	8b 04 02             	mov    (%rdx,%rax,1),%eax
    bb9a:	89 c1                	mov    %eax,%ecx
    bb9c:	8b 45 fc             	mov    -0x4(%rbp),%eax
    bb9f:	89 c2                	mov    %eax,%edx
    bba1:	48 8d 35 8c 27 00 00 	lea    0x278c(%rip),%rsi        # e334 <g_599+0x12d4>
    bba8:	48 89 cf             	mov    %rcx,%rdi
    bbab:	e8 43 ab ff ff       	callq  66f3 <transparent_crc>
    bbb0:	83 7d fc 00          	cmpl   $0x0,-0x4(%rbp)
    bbb4:	74 16                	je     bbcc <main+0x5a1>
    bbb6:	8b 45 f0             	mov    -0x10(%rbp),%eax
    bbb9:	89 c6                	mov    %eax,%esi
    bbbb:	48 8d 3d f1 26 00 00 	lea    0x26f1(%rip),%rdi        # e2b3 <g_599+0x1253>
    bbc2:	b8 00 00 00 00       	mov    $0x0,%eax
    bbc7:	e8 b4 94 ff ff       	callq  5080 <printf@plt>
    bbcc:	83 45 f0 01          	addl   $0x1,-0x10(%rbp)
    bbd0:	83 7d f0 06          	cmpl   $0x6,-0x10(%rbp)
    bbd4:	7e ad                	jle    bb83 <main+0x558>
    bbd6:	0f b7 05 2f 55 00 00 	movzwl 0x552f(%rip),%eax        # 1110c <g_1245>
    bbdd:	0f b7 c0             	movzwl %ax,%eax
    bbe0:	8b 55 fc             	mov    -0x4(%rbp),%edx
    bbe3:	48 8d 35 54 27 00 00 	lea    0x2754(%rip),%rsi        # e33e <g_599+0x12de>
    bbea:	48 89 c7             	mov    %rax,%rdi
    bbed:	e8 01 ab ff ff       	callq  66f3 <transparent_crc>
    bbf2:	0f b7 05 15 55 00 00 	movzwl 0x5515(%rip),%eax        # 1110e <g_1262>
    bbf9:	48 0f bf c0          	movswq %ax,%rax
    bbfd:	8b 55 fc             	mov    -0x4(%rbp),%edx
    bc00:	48 8d 35 3e 27 00 00 	lea    0x273e(%rip),%rsi        # e345 <g_599+0x12e5>
    bc07:	48 89 c7             	mov    %rax,%rdi
    bc0a:	e8 e4 aa ff ff       	callq  66f3 <transparent_crc>
    bc0f:	8b 05 fb 54 00 00    	mov    0x54fb(%rip),%eax        # 11110 <g_1305>
    bc15:	48 98                	cltq   
    bc17:	8b 55 fc             	mov    -0x4(%rbp),%edx
    bc1a:	48 8d 35 2b 27 00 00 	lea    0x272b(%rip),%rsi        # e34c <g_599+0x12ec>
    bc21:	48 89 c7             	mov    %rax,%rdi
    bc24:	e8 ca aa ff ff       	callq  66f3 <transparent_crc>
    bc29:	0f b7 05 e4 54 00 00 	movzwl 0x54e4(%rip),%eax        # 11114 <g_1363>
    bc30:	0f b7 c0             	movzwl %ax,%eax
    bc33:	8b 55 fc             	mov    -0x4(%rbp),%edx
    bc36:	48 8d 35 16 27 00 00 	lea    0x2716(%rip),%rsi        # e353 <g_599+0x12f3>
    bc3d:	48 89 c7             	mov    %rax,%rdi
    bc40:	e8 ae aa ff ff       	callq  66f3 <transparent_crc>
    bc45:	48 8b 05 cc 54 00 00 	mov    0x54cc(%rip),%rax        # 11118 <g_1367>
    bc4c:	48 89 c1             	mov    %rax,%rcx
    bc4f:	8b 45 fc             	mov    -0x4(%rbp),%eax
    bc52:	89 c2                	mov    %eax,%edx
    bc54:	48 8d 35 ff 26 00 00 	lea    0x26ff(%rip),%rsi        # e35a <g_599+0x12fa>
    bc5b:	48 89 cf             	mov    %rcx,%rdi
    bc5e:	e8 90 aa ff ff       	callq  66f3 <transparent_crc>
    bc63:	48 8b 05 b6 54 00 00 	mov    0x54b6(%rip),%rax        # 11120 <g_1369>
    bc6a:	48 89 c1             	mov    %rax,%rcx
    bc6d:	8b 45 fc             	mov    -0x4(%rbp),%eax
    bc70:	89 c2                	mov    %eax,%edx
    bc72:	48 8d 35 e8 26 00 00 	lea    0x26e8(%rip),%rsi        # e361 <g_599+0x1301>
    bc79:	48 89 cf             	mov    %rcx,%rdi
    bc7c:	e8 72 aa ff ff       	callq  66f3 <transparent_crc>
    bc81:	0f b7 05 a0 54 00 00 	movzwl 0x54a0(%rip),%eax        # 11128 <g_1434>
    bc88:	48 0f bf c0          	movswq %ax,%rax
    bc8c:	8b 55 fc             	mov    -0x4(%rbp),%edx
    bc8f:	48 8d 35 d2 26 00 00 	lea    0x26d2(%rip),%rsi        # e368 <g_599+0x1308>
    bc96:	48 89 c7             	mov    %rax,%rdi
    bc99:	e8 55 aa ff ff       	callq  66f3 <transparent_crc>
    bc9e:	8b 05 88 54 00 00    	mov    0x5488(%rip),%eax        # 1112c <g_1506>
    bca4:	89 c1                	mov    %eax,%ecx
    bca6:	8b 45 fc             	mov    -0x4(%rbp),%eax
    bca9:	89 c2                	mov    %eax,%edx
    bcab:	48 8d 35 bd 26 00 00 	lea    0x26bd(%rip),%rsi        # e36f <g_599+0x130f>
    bcb2:	48 89 cf             	mov    %rcx,%rdi
    bcb5:	e8 39 aa ff ff       	callq  66f3 <transparent_crc>
    bcba:	0f b7 05 6f 54 00 00 	movzwl 0x546f(%rip),%eax        # 11130 <g_1512>
    bcc1:	0f b7 c0             	movzwl %ax,%eax
    bcc4:	8b 55 fc             	mov    -0x4(%rbp),%edx
    bcc7:	48 8d 35 a8 26 00 00 	lea    0x26a8(%rip),%rsi        # e376 <g_599+0x1316>
    bcce:	48 89 c7             	mov    %rax,%rdi
    bcd1:	e8 1d aa ff ff       	callq  66f3 <transparent_crc>
    bcd6:	0f b7 05 55 54 00 00 	movzwl 0x5455(%rip),%eax        # 11132 <g_1643>
    bcdd:	0f b7 c0             	movzwl %ax,%eax
    bce0:	8b 55 fc             	mov    -0x4(%rbp),%edx
    bce3:	48 8d 35 93 26 00 00 	lea    0x2693(%rip),%rsi        # e37d <g_599+0x131d>
    bcea:	48 89 c7             	mov    %rax,%rdi
    bced:	e8 01 aa ff ff       	callq  66f3 <transparent_crc>
    bcf2:	8b 05 3c 54 00 00    	mov    0x543c(%rip),%eax        # 11134 <g_1666>
    bcf8:	48 98                	cltq   
    bcfa:	8b 55 fc             	mov    -0x4(%rbp),%edx
    bcfd:	48 8d 35 80 26 00 00 	lea    0x2680(%rip),%rsi        # e384 <g_599+0x1324>
    bd04:	48 89 c7             	mov    %rax,%rdi
    bd07:	e8 e7 a9 ff ff       	callq  66f3 <transparent_crc>
    bd0c:	8b 05 26 54 00 00    	mov    0x5426(%rip),%eax        # 11138 <g_1721>
    bd12:	48 98                	cltq   
    bd14:	8b 55 fc             	mov    -0x4(%rbp),%edx
    bd17:	48 8d 35 6d 26 00 00 	lea    0x266d(%rip),%rsi        # e38b <g_599+0x132b>
    bd1e:	48 89 c7             	mov    %rax,%rdi
    bd21:	e8 cd a9 ff ff       	callq  66f3 <transparent_crc>
    bd26:	8b 05 10 54 00 00    	mov    0x5410(%rip),%eax        # 1113c <g_1724>
    bd2c:	89 c1                	mov    %eax,%ecx
    bd2e:	8b 45 fc             	mov    -0x4(%rbp),%eax
    bd31:	89 c2                	mov    %eax,%edx
    bd33:	48 8d 35 58 26 00 00 	lea    0x2658(%rip),%rsi        # e392 <g_599+0x1332>
    bd3a:	48 89 cf             	mov    %rcx,%rdi
    bd3d:	e8 b1 a9 ff ff       	callq  66f3 <transparent_crc>
    bd42:	48 8b 05 f7 53 00 00 	mov    0x53f7(%rip),%rax        # 11140 <g_1896>
    bd49:	48 89 c1             	mov    %rax,%rcx
    bd4c:	8b 45 fc             	mov    -0x4(%rbp),%eax
    bd4f:	89 c2                	mov    %eax,%edx
    bd51:	48 8d 35 41 26 00 00 	lea    0x2641(%rip),%rsi        # e399 <g_599+0x1339>
    bd58:	48 89 cf             	mov    %rcx,%rdi
    bd5b:	e8 93 a9 ff ff       	callq  66f3 <transparent_crc>
    bd60:	8b 05 e2 53 00 00    	mov    0x53e2(%rip),%eax        # 11148 <g_1965>
    bd66:	48 98                	cltq   
    bd68:	8b 55 fc             	mov    -0x4(%rbp),%edx
    bd6b:	48 8d 35 2e 26 00 00 	lea    0x262e(%rip),%rsi        # e3a0 <g_599+0x1340>
    bd72:	48 89 c7             	mov    %rax,%rdi
    bd75:	e8 79 a9 ff ff       	callq  66f3 <transparent_crc>
    bd7a:	8b 05 cc 53 00 00    	mov    0x53cc(%rip),%eax        # 1114c <g_2003>
    bd80:	48 98                	cltq   
    bd82:	8b 55 fc             	mov    -0x4(%rbp),%edx
    bd85:	48 8d 35 1b 26 00 00 	lea    0x261b(%rip),%rsi        # e3a7 <g_599+0x1347>
    bd8c:	48 89 c7             	mov    %rax,%rdi
    bd8f:	e8 5f a9 ff ff       	callq  66f3 <transparent_crc>
    bd94:	8b 05 de 7b 00 00    	mov    0x7bde(%rip),%eax        # 13978 <g_2045>
    bd9a:	89 c1                	mov    %eax,%ecx
    bd9c:	8b 45 fc             	mov    -0x4(%rbp),%eax
    bd9f:	89 c2                	mov    %eax,%edx
    bda1:	48 8d 35 06 26 00 00 	lea    0x2606(%rip),%rsi        # e3ae <g_599+0x134e>
    bda8:	48 89 cf             	mov    %rcx,%rdi
    bdab:	e8 43 a9 ff ff       	callq  66f3 <transparent_crc>
    bdb0:	0f b6 05 c5 7b 00 00 	movzbl 0x7bc5(%rip),%eax        # 1397c <g_2054>
    bdb7:	48 0f be c0          	movsbq %al,%rax
    bdbb:	8b 55 fc             	mov    -0x4(%rbp),%edx
    bdbe:	48 8d 35 f0 25 00 00 	lea    0x25f0(%rip),%rsi        # e3b5 <g_599+0x1355>
    bdc5:	48 89 c7             	mov    %rax,%rdi
    bdc8:	e8 26 a9 ff ff       	callq  66f3 <transparent_crc>
    bdcd:	0f b6 05 7c 53 00 00 	movzbl 0x537c(%rip),%eax        # 11150 <g_2055>
    bdd4:	48 0f be c0          	movsbq %al,%rax
    bdd8:	8b 55 fc             	mov    -0x4(%rbp),%edx
    bddb:	48 8d 35 da 25 00 00 	lea    0x25da(%rip),%rsi        # e3bc <g_599+0x135c>
    bde2:	48 89 c7             	mov    %rax,%rdi
    bde5:	e8 09 a9 ff ff       	callq  66f3 <transparent_crc>
    bdea:	0f b6 05 60 53 00 00 	movzbl 0x5360(%rip),%eax        # 11151 <g_2056>
    bdf1:	48 0f be c0          	movsbq %al,%rax
    bdf5:	8b 55 fc             	mov    -0x4(%rbp),%edx
    bdf8:	48 8d 35 c4 25 00 00 	lea    0x25c4(%rip),%rsi        # e3c3 <g_599+0x1363>
    bdff:	48 89 c7             	mov    %rax,%rdi
    be02:	e8 ec a8 ff ff       	callq  66f3 <transparent_crc>
    be07:	0f b6 05 44 53 00 00 	movzbl 0x5344(%rip),%eax        # 11152 <g_2057>
    be0e:	48 0f be c0          	movsbq %al,%rax
    be12:	8b 55 fc             	mov    -0x4(%rbp),%edx
    be15:	48 8d 35 ae 25 00 00 	lea    0x25ae(%rip),%rsi        # e3ca <g_599+0x136a>
    be1c:	48 89 c7             	mov    %rax,%rdi
    be1f:	e8 cf a8 ff ff       	callq  66f3 <transparent_crc>
    be24:	0f b6 05 28 53 00 00 	movzbl 0x5328(%rip),%eax        # 11153 <g_2058>
    be2b:	48 0f be c0          	movsbq %al,%rax
    be2f:	8b 55 fc             	mov    -0x4(%rbp),%edx
    be32:	48 8d 35 98 25 00 00 	lea    0x2598(%rip),%rsi        # e3d1 <g_599+0x1371>
    be39:	48 89 c7             	mov    %rax,%rdi
    be3c:	e8 b2 a8 ff ff       	callq  66f3 <transparent_crc>
    be41:	c7 45 f0 00 00 00 00 	movl   $0x0,-0x10(%rbp)
    be48:	eb 73                	jmp    bebd <main+0x892>
    be4a:	c7 45 f4 00 00 00 00 	movl   $0x0,-0xc(%rbp)
    be51:	eb 60                	jmp    beb3 <main+0x888>
    be53:	8b 45 f4             	mov    -0xc(%rbp),%eax
    be56:	48 63 c8             	movslq %eax,%rcx
    be59:	8b 45 f0             	mov    -0x10(%rbp),%eax
    be5c:	48 63 d0             	movslq %eax,%rdx
    be5f:	48 89 d0             	mov    %rdx,%rax
    be62:	48 c1 e0 03          	shl    $0x3,%rax
    be66:	48 01 d0             	add    %rdx,%rax
    be69:	48 8d 14 08          	lea    (%rax,%rcx,1),%rdx
    be6d:	48 8d 05 e4 52 00 00 	lea    0x52e4(%rip),%rax        # 11158 <g_2059>
    be74:	48 01 d0             	add    %rdx,%rax
    be77:	0f b6 00             	movzbl (%rax),%eax
    be7a:	48 0f be c0          	movsbq %al,%rax
    be7e:	8b 55 fc             	mov    -0x4(%rbp),%edx
    be81:	48 8d 35 50 25 00 00 	lea    0x2550(%rip),%rsi        # e3d8 <g_599+0x1378>
    be88:	48 89 c7             	mov    %rax,%rdi
    be8b:	e8 63 a8 ff ff       	callq  66f3 <transparent_crc>
    be90:	83 7d fc 00          	cmpl   $0x0,-0x4(%rbp)
    be94:	74 19                	je     beaf <main+0x884>
    be96:	8b 55 f4             	mov    -0xc(%rbp),%edx
    be99:	8b 45 f0             	mov    -0x10(%rbp),%eax
    be9c:	89 c6                	mov    %eax,%esi
    be9e:	48 8d 3d b0 23 00 00 	lea    0x23b0(%rip),%rdi        # e255 <g_599+0x11f5>
    bea5:	b8 00 00 00 00       	mov    $0x0,%eax
    beaa:	e8 d1 91 ff ff       	callq  5080 <printf@plt>
    beaf:	83 45 f4 01          	addl   $0x1,-0xc(%rbp)
    beb3:	83 7d f4 08          	cmpl   $0x8,-0xc(%rbp)
    beb7:	7e 9a                	jle    be53 <main+0x828>
    beb9:	83 45 f0 01          	addl   $0x1,-0x10(%rbp)
    bebd:	83 7d f0 00          	cmpl   $0x0,-0x10(%rbp)
    bec1:	7e 87                	jle    be4a <main+0x81f>
    bec3:	0f b6 05 b3 7a 00 00 	movzbl 0x7ab3(%rip),%eax        # 1397d <g_2060>
    beca:	48 0f be c0          	movsbq %al,%rax
    bece:	8b 55 fc             	mov    -0x4(%rbp),%edx
    bed1:	48 8d 35 0d 25 00 00 	lea    0x250d(%rip),%rsi        # e3e5 <g_599+0x1385>
    bed8:	48 89 c7             	mov    %rax,%rdi
    bedb:	e8 13 a8 ff ff       	callq  66f3 <transparent_crc>
    bee0:	0f b6 05 7a 52 00 00 	movzbl 0x527a(%rip),%eax        # 11161 <g_2061>
    bee7:	48 0f be c0          	movsbq %al,%rax
    beeb:	8b 55 fc             	mov    -0x4(%rbp),%edx
    beee:	48 8d 35 f7 24 00 00 	lea    0x24f7(%rip),%rsi        # e3ec <g_599+0x138c>
    bef5:	48 89 c7             	mov    %rax,%rdi
    bef8:	e8 f6 a7 ff ff       	callq  66f3 <transparent_crc>
    befd:	0f b6 05 5e 52 00 00 	movzbl 0x525e(%rip),%eax        # 11162 <g_2062>
    bf04:	48 0f be c0          	movsbq %al,%rax
    bf08:	8b 55 fc             	mov    -0x4(%rbp),%edx
    bf0b:	48 8d 35 e1 24 00 00 	lea    0x24e1(%rip),%rsi        # e3f3 <g_599+0x1393>
    bf12:	48 89 c7             	mov    %rax,%rdi
    bf15:	e8 d9 a7 ff ff       	callq  66f3 <transparent_crc>
    bf1a:	c7 45 f0 00 00 00 00 	movl   $0x0,-0x10(%rbp)
    bf21:	eb 46                	jmp    bf69 <main+0x93e>
    bf23:	8b 45 f0             	mov    -0x10(%rbp),%eax
    bf26:	48 98                	cltq   
    bf28:	48 8d 15 34 52 00 00 	lea    0x5234(%rip),%rdx        # 11163 <g_2063>
    bf2f:	0f b6 04 10          	movzbl (%rax,%rdx,1),%eax
    bf33:	48 0f be c0          	movsbq %al,%rax
    bf37:	8b 55 fc             	mov    -0x4(%rbp),%edx
    bf3a:	48 8d 35 b9 24 00 00 	lea    0x24b9(%rip),%rsi        # e3fa <g_599+0x139a>
    bf41:	48 89 c7             	mov    %rax,%rdi
    bf44:	e8 aa a7 ff ff       	callq  66f3 <transparent_crc>
    bf49:	83 7d fc 00          	cmpl   $0x0,-0x4(%rbp)
    bf4d:	74 16                	je     bf65 <main+0x93a>
    bf4f:	8b 45 f0             	mov    -0x10(%rbp),%eax
    bf52:	89 c6                	mov    %eax,%esi
    bf54:	48 8d 3d 58 23 00 00 	lea    0x2358(%rip),%rdi        # e2b3 <g_599+0x1253>
    bf5b:	b8 00 00 00 00       	mov    $0x0,%eax
    bf60:	e8 1b 91 ff ff       	callq  5080 <printf@plt>
    bf65:	83 45 f0 01          	addl   $0x1,-0x10(%rbp)
    bf69:	83 7d f0 02          	cmpl   $0x2,-0x10(%rbp)
    bf6d:	7e b4                	jle    bf23 <main+0x8f8>
    bf6f:	0f b6 05 f0 51 00 00 	movzbl 0x51f0(%rip),%eax        # 11166 <g_2064>
    bf76:	48 0f be c0          	movsbq %al,%rax
    bf7a:	8b 55 fc             	mov    -0x4(%rbp),%edx
    bf7d:	48 8d 35 80 24 00 00 	lea    0x2480(%rip),%rsi        # e404 <g_599+0x13a4>
    bf84:	48 89 c7             	mov    %rax,%rdi
    bf87:	e8 67 a7 ff ff       	callq  66f3 <transparent_crc>
    bf8c:	0f b6 05 d4 51 00 00 	movzbl 0x51d4(%rip),%eax        # 11167 <g_2065>
    bf93:	48 0f be c0          	movsbq %al,%rax
    bf97:	8b 55 fc             	mov    -0x4(%rbp),%edx
    bf9a:	48 8d 35 6a 24 00 00 	lea    0x246a(%rip),%rsi        # e40b <g_599+0x13ab>
    bfa1:	48 89 c7             	mov    %rax,%rdi
    bfa4:	e8 4a a7 ff ff       	callq  66f3 <transparent_crc>
    bfa9:	0f b6 05 b8 51 00 00 	movzbl 0x51b8(%rip),%eax        # 11168 <g_2066>
    bfb0:	48 0f be c0          	movsbq %al,%rax
    bfb4:	8b 55 fc             	mov    -0x4(%rbp),%edx
    bfb7:	48 8d 35 54 24 00 00 	lea    0x2454(%rip),%rsi        # e412 <g_599+0x13b2>
    bfbe:	48 89 c7             	mov    %rax,%rdi
    bfc1:	e8 2d a7 ff ff       	callq  66f3 <transparent_crc>
    bfc6:	0f b6 05 9c 51 00 00 	movzbl 0x519c(%rip),%eax        # 11169 <g_2067>
    bfcd:	48 0f be c0          	movsbq %al,%rax
    bfd1:	8b 55 fc             	mov    -0x4(%rbp),%edx
    bfd4:	48 8d 35 3e 24 00 00 	lea    0x243e(%rip),%rsi        # e419 <g_599+0x13b9>
    bfdb:	48 89 c7             	mov    %rax,%rdi
    bfde:	e8 10 a7 ff ff       	callq  66f3 <transparent_crc>
    bfe3:	0f b6 05 80 51 00 00 	movzbl 0x5180(%rip),%eax        # 1116a <g_2068>
    bfea:	48 0f be c0          	movsbq %al,%rax
    bfee:	8b 55 fc             	mov    -0x4(%rbp),%edx
    bff1:	48 8d 35 28 24 00 00 	lea    0x2428(%rip),%rsi        # e420 <g_599+0x13c0>
    bff8:	48 89 c7             	mov    %rax,%rdi
    bffb:	e8 f3 a6 ff ff       	callq  66f3 <transparent_crc>
    c000:	0f b6 05 64 51 00 00 	movzbl 0x5164(%rip),%eax        # 1116b <g_2069>
    c007:	48 0f be c0          	movsbq %al,%rax
    c00b:	8b 55 fc             	mov    -0x4(%rbp),%edx
    c00e:	48 8d 35 12 24 00 00 	lea    0x2412(%rip),%rsi        # e427 <g_599+0x13c7>
    c015:	48 89 c7             	mov    %rax,%rdi
    c018:	e8 d6 a6 ff ff       	callq  66f3 <transparent_crc>
    c01d:	0f b6 05 5a 79 00 00 	movzbl 0x795a(%rip),%eax        # 1397e <g_2070>
    c024:	48 0f be c0          	movsbq %al,%rax
    c028:	8b 55 fc             	mov    -0x4(%rbp),%edx
    c02b:	48 8d 35 fc 23 00 00 	lea    0x23fc(%rip),%rsi        # e42e <g_599+0x13ce>
    c032:	48 89 c7             	mov    %rax,%rdi
    c035:	e8 b9 a6 ff ff       	callq  66f3 <transparent_crc>
    c03a:	0f b6 05 2b 51 00 00 	movzbl 0x512b(%rip),%eax        # 1116c <g_2071>
    c041:	48 0f be c0          	movsbq %al,%rax
    c045:	8b 55 fc             	mov    -0x4(%rbp),%edx
    c048:	48 8d 35 e6 23 00 00 	lea    0x23e6(%rip),%rsi        # e435 <g_599+0x13d5>
    c04f:	48 89 c7             	mov    %rax,%rdi
    c052:	e8 9c a6 ff ff       	callq  66f3 <transparent_crc>
    c057:	c7 45 f0 00 00 00 00 	movl   $0x0,-0x10(%rbp)
    c05e:	eb 46                	jmp    c0a6 <main+0xa7b>
    c060:	8b 45 f0             	mov    -0x10(%rbp),%eax
    c063:	48 98                	cltq   
    c065:	48 8d 15 01 51 00 00 	lea    0x5101(%rip),%rdx        # 1116d <g_2072>
    c06c:	0f b6 04 10          	movzbl (%rax,%rdx,1),%eax
    c070:	48 0f be c0          	movsbq %al,%rax
    c074:	8b 55 fc             	mov    -0x4(%rbp),%edx
    c077:	48 8d 35 be 23 00 00 	lea    0x23be(%rip),%rsi        # e43c <g_599+0x13dc>
    c07e:	48 89 c7             	mov    %rax,%rdi
    c081:	e8 6d a6 ff ff       	callq  66f3 <transparent_crc>
    c086:	83 7d fc 00          	cmpl   $0x0,-0x4(%rbp)
    c08a:	74 16                	je     c0a2 <main+0xa77>
    c08c:	8b 45 f0             	mov    -0x10(%rbp),%eax
    c08f:	89 c6                	mov    %eax,%esi
    c091:	48 8d 3d 1b 22 00 00 	lea    0x221b(%rip),%rdi        # e2b3 <g_599+0x1253>
    c098:	b8 00 00 00 00       	mov    $0x0,%eax
    c09d:	e8 de 8f ff ff       	callq  5080 <printf@plt>
    c0a2:	83 45 f0 01          	addl   $0x1,-0x10(%rbp)
    c0a6:	83 7d f0 00          	cmpl   $0x0,-0x10(%rbp)
    c0aa:	7e b4                	jle    c060 <main+0xa35>
    c0ac:	0f b6 05 bb 50 00 00 	movzbl 0x50bb(%rip),%eax        # 1116e <g_2073>
    c0b3:	48 0f be c0          	movsbq %al,%rax
    c0b7:	8b 55 fc             	mov    -0x4(%rbp),%edx
    c0ba:	48 8d 35 85 23 00 00 	lea    0x2385(%rip),%rsi        # e446 <g_599+0x13e6>
    c0c1:	48 89 c7             	mov    %rax,%rdi
    c0c4:	e8 2a a6 ff ff       	callq  66f3 <transparent_crc>
    c0c9:	c7 45 f0 00 00 00 00 	movl   $0x0,-0x10(%rbp)
    c0d0:	eb 76                	jmp    c148 <main+0xb1d>
    c0d2:	c7 45 f4 00 00 00 00 	movl   $0x0,-0xc(%rbp)
    c0d9:	eb 63                	jmp    c13e <main+0xb13>
    c0db:	8b 45 f4             	mov    -0xc(%rbp),%eax
    c0de:	48 63 c8             	movslq %eax,%rcx
    c0e1:	8b 45 f0             	mov    -0x10(%rbp),%eax
    c0e4:	48 63 d0             	movslq %eax,%rdx
    c0e7:	48 89 d0             	mov    %rdx,%rax
    c0ea:	48 c1 e0 02          	shl    $0x2,%rax
    c0ee:	48 01 d0             	add    %rdx,%rax
    c0f1:	48 01 c0             	add    %rax,%rax
    c0f4:	48 8d 14 08          	lea    (%rax,%rcx,1),%rdx
    c0f8:	48 8d 05 71 50 00 00 	lea    0x5071(%rip),%rax        # 11170 <g_2074>
    c0ff:	48 01 d0             	add    %rdx,%rax
    c102:	0f b6 00             	movzbl (%rax),%eax
    c105:	48 0f be c0          	movsbq %al,%rax
    c109:	8b 55 fc             	mov    -0x4(%rbp),%edx
    c10c:	48 8d 35 3a 23 00 00 	lea    0x233a(%rip),%rsi        # e44d <g_599+0x13ed>
    c113:	48 89 c7             	mov    %rax,%rdi
    c116:	e8 d8 a5 ff ff       	callq  66f3 <transparent_crc>
    c11b:	83 7d fc 00          	cmpl   $0x0,-0x4(%rbp)
    c11f:	74 19                	je     c13a <main+0xb0f>
    c121:	8b 55 f4             	mov    -0xc(%rbp),%edx
    c124:	8b 45 f0             	mov    -0x10(%rbp),%eax
    c127:	89 c6                	mov    %eax,%esi
    c129:	48 8d 3d 25 21 00 00 	lea    0x2125(%rip),%rdi        # e255 <g_599+0x11f5>
    c130:	b8 00 00 00 00       	mov    $0x0,%eax
    c135:	e8 46 8f ff ff       	callq  5080 <printf@plt>
    c13a:	83 45 f4 01          	addl   $0x1,-0xc(%rbp)
    c13e:	83 7d f4 09          	cmpl   $0x9,-0xc(%rbp)
    c142:	7e 97                	jle    c0db <main+0xab0>
    c144:	83 45 f0 01          	addl   $0x1,-0x10(%rbp)
    c148:	83 7d f0 00          	cmpl   $0x0,-0x10(%rbp)
    c14c:	7e 84                	jle    c0d2 <main+0xaa7>
    c14e:	0f b6 05 25 50 00 00 	movzbl 0x5025(%rip),%eax        # 1117a <g_2075>
    c155:	48 0f be c0          	movsbq %al,%rax
    c159:	8b 55 fc             	mov    -0x4(%rbp),%edx
    c15c:	48 8d 35 f7 22 00 00 	lea    0x22f7(%rip),%rsi        # e45a <g_599+0x13fa>
    c163:	48 89 c7             	mov    %rax,%rdi
    c166:	e8 88 a5 ff ff       	callq  66f3 <transparent_crc>
    c16b:	0f b6 05 09 50 00 00 	movzbl 0x5009(%rip),%eax        # 1117b <g_2076>
    c172:	48 0f be c0          	movsbq %al,%rax
    c176:	8b 55 fc             	mov    -0x4(%rbp),%edx
    c179:	48 8d 35 e1 22 00 00 	lea    0x22e1(%rip),%rsi        # e461 <g_599+0x1401>
    c180:	48 89 c7             	mov    %rax,%rdi
    c183:	e8 6b a5 ff ff       	callq  66f3 <transparent_crc>
    c188:	0f b6 05 ed 4f 00 00 	movzbl 0x4fed(%rip),%eax        # 1117c <g_2077>
    c18f:	48 0f be c0          	movsbq %al,%rax
    c193:	8b 55 fc             	mov    -0x4(%rbp),%edx
    c196:	48 8d 35 cb 22 00 00 	lea    0x22cb(%rip),%rsi        # e468 <g_599+0x1408>
    c19d:	48 89 c7             	mov    %rax,%rdi
    c1a0:	e8 4e a5 ff ff       	callq  66f3 <transparent_crc>
    c1a5:	0f b6 05 d1 4f 00 00 	movzbl 0x4fd1(%rip),%eax        # 1117d <g_2078>
    c1ac:	48 0f be c0          	movsbq %al,%rax
    c1b0:	8b 55 fc             	mov    -0x4(%rbp),%edx
    c1b3:	48 8d 35 b5 22 00 00 	lea    0x22b5(%rip),%rsi        # e46f <g_599+0x140f>
    c1ba:	48 89 c7             	mov    %rax,%rdi
    c1bd:	e8 31 a5 ff ff       	callq  66f3 <transparent_crc>
    c1c2:	0f b6 05 b5 4f 00 00 	movzbl 0x4fb5(%rip),%eax        # 1117e <g_2079>
    c1c9:	48 0f be c0          	movsbq %al,%rax
    c1cd:	8b 55 fc             	mov    -0x4(%rbp),%edx
    c1d0:	48 8d 35 9f 22 00 00 	lea    0x229f(%rip),%rsi        # e476 <g_599+0x1416>
    c1d7:	48 89 c7             	mov    %rax,%rdi
    c1da:	e8 14 a5 ff ff       	callq  66f3 <transparent_crc>
    c1df:	0f b6 05 99 4f 00 00 	movzbl 0x4f99(%rip),%eax        # 1117f <g_2080>
    c1e6:	48 0f be c0          	movsbq %al,%rax
    c1ea:	8b 55 fc             	mov    -0x4(%rbp),%edx
    c1ed:	48 8d 35 89 22 00 00 	lea    0x2289(%rip),%rsi        # e47d <g_599+0x141d>
    c1f4:	48 89 c7             	mov    %rax,%rdi
    c1f7:	e8 f7 a4 ff ff       	callq  66f3 <transparent_crc>
    c1fc:	0f b6 05 7d 4f 00 00 	movzbl 0x4f7d(%rip),%eax        # 11180 <g_2081>
    c203:	48 0f be c0          	movsbq %al,%rax
    c207:	8b 55 fc             	mov    -0x4(%rbp),%edx
    c20a:	48 8d 35 73 22 00 00 	lea    0x2273(%rip),%rsi        # e484 <g_599+0x1424>
    c211:	48 89 c7             	mov    %rax,%rdi
    c214:	e8 da a4 ff ff       	callq  66f3 <transparent_crc>
    c219:	c7 45 f0 00 00 00 00 	movl   $0x0,-0x10(%rbp)
    c220:	eb 75                	jmp    c297 <main+0xc6c>
    c222:	c7 45 f4 00 00 00 00 	movl   $0x0,-0xc(%rbp)
    c229:	eb 62                	jmp    c28d <main+0xc62>
    c22b:	8b 45 f4             	mov    -0xc(%rbp),%eax
    c22e:	48 63 c8             	movslq %eax,%rcx
    c231:	8b 45 f0             	mov    -0x10(%rbp),%eax
    c234:	48 63 d0             	movslq %eax,%rdx
    c237:	48 89 d0             	mov    %rdx,%rax
    c23a:	48 01 c0             	add    %rax,%rax
    c23d:	48 01 d0             	add    %rdx,%rax
    c240:	48 01 c0             	add    %rax,%rax
    c243:	48 8d 14 08          	lea    (%rax,%rcx,1),%rdx
    c247:	48 8d 05 52 4f 00 00 	lea    0x4f52(%rip),%rax        # 111a0 <g_2082>
    c24e:	48 01 d0             	add    %rdx,%rax
    c251:	0f b6 00             	movzbl (%rax),%eax
    c254:	48 0f be c0          	movsbq %al,%rax
    c258:	8b 55 fc             	mov    -0x4(%rbp),%edx
    c25b:	48 8d 35 29 22 00 00 	lea    0x2229(%rip),%rsi        # e48b <g_599+0x142b>
    c262:	48 89 c7             	mov    %rax,%rdi
    c265:	e8 89 a4 ff ff       	callq  66f3 <transparent_crc>
    c26a:	83 7d fc 00          	cmpl   $0x0,-0x4(%rbp)
    c26e:	74 19                	je     c289 <main+0xc5e>
    c270:	8b 55 f4             	mov    -0xc(%rbp),%edx
    c273:	8b 45 f0             	mov    -0x10(%rbp),%eax
    c276:	89 c6                	mov    %eax,%esi
    c278:	48 8d 3d d6 1f 00 00 	lea    0x1fd6(%rip),%rdi        # e255 <g_599+0x11f5>
    c27f:	b8 00 00 00 00       	mov    $0x0,%eax
    c284:	e8 f7 8d ff ff       	callq  5080 <printf@plt>
    c289:	83 45 f4 01          	addl   $0x1,-0xc(%rbp)
    c28d:	83 7d f4 05          	cmpl   $0x5,-0xc(%rbp)
    c291:	7e 98                	jle    c22b <main+0xc00>
    c293:	83 45 f0 01          	addl   $0x1,-0x10(%rbp)
    c297:	83 7d f0 08          	cmpl   $0x8,-0x10(%rbp)
    c29b:	7e 85                	jle    c222 <main+0xbf7>
    c29d:	0f b6 05 32 4f 00 00 	movzbl 0x4f32(%rip),%eax        # 111d6 <g_2083>
    c2a4:	48 0f be c0          	movsbq %al,%rax
    c2a8:	8b 55 fc             	mov    -0x4(%rbp),%edx
    c2ab:	48 8d 35 e6 21 00 00 	lea    0x21e6(%rip),%rsi        # e498 <g_599+0x1438>
    c2b2:	48 89 c7             	mov    %rax,%rdi
    c2b5:	e8 39 a4 ff ff       	callq  66f3 <transparent_crc>
    c2ba:	c7 45 f0 00 00 00 00 	movl   $0x0,-0x10(%rbp)
    c2c1:	eb 6b                	jmp    c32e <main+0xd03>
    c2c3:	c7 45 f4 00 00 00 00 	movl   $0x0,-0xc(%rbp)
    c2ca:	eb 58                	jmp    c324 <main+0xcf9>
    c2cc:	8b 45 f4             	mov    -0xc(%rbp),%eax
    c2cf:	48 98                	cltq   
    c2d1:	8b 55 f0             	mov    -0x10(%rbp),%edx
    c2d4:	48 63 d2             	movslq %edx,%rdx
    c2d7:	48 c1 e2 02          	shl    $0x2,%rdx
    c2db:	48 01 c2             	add    %rax,%rdx
    c2de:	48 8d 05 fb 4e 00 00 	lea    0x4efb(%rip),%rax        # 111e0 <g_2084>
    c2e5:	48 01 d0             	add    %rdx,%rax
    c2e8:	0f b6 00             	movzbl (%rax),%eax
    c2eb:	48 0f be c0          	movsbq %al,%rax
    c2ef:	8b 55 fc             	mov    -0x4(%rbp),%edx
    c2f2:	48 8d 35 a6 21 00 00 	lea    0x21a6(%rip),%rsi        # e49f <g_599+0x143f>
    c2f9:	48 89 c7             	mov    %rax,%rdi
    c2fc:	e8 f2 a3 ff ff       	callq  66f3 <transparent_crc>
    c301:	83 7d fc 00          	cmpl   $0x0,-0x4(%rbp)
    c305:	74 19                	je     c320 <main+0xcf5>
    c307:	8b 55 f4             	mov    -0xc(%rbp),%edx
    c30a:	8b 45 f0             	mov    -0x10(%rbp),%eax
    c30d:	89 c6                	mov    %eax,%esi
    c30f:	48 8d 3d 3f 1f 00 00 	lea    0x1f3f(%rip),%rdi        # e255 <g_599+0x11f5>
    c316:	b8 00 00 00 00       	mov    $0x0,%eax
    c31b:	e8 60 8d ff ff       	callq  5080 <printf@plt>
    c320:	83 45 f4 01          	addl   $0x1,-0xc(%rbp)
    c324:	83 7d f4 03          	cmpl   $0x3,-0xc(%rbp)
    c328:	7e a2                	jle    c2cc <main+0xca1>
    c32a:	83 45 f0 01          	addl   $0x1,-0x10(%rbp)
    c32e:	83 7d f0 08          	cmpl   $0x8,-0x10(%rbp)
    c332:	7e 8f                	jle    c2c3 <main+0xc98>
    c334:	0f b6 05 c9 4e 00 00 	movzbl 0x4ec9(%rip),%eax        # 11204 <g_2085>
    c33b:	48 0f be c0          	movsbq %al,%rax
    c33f:	8b 55 fc             	mov    -0x4(%rbp),%edx
    c342:	48 8d 35 63 21 00 00 	lea    0x2163(%rip),%rsi        # e4ac <g_599+0x144c>
    c349:	48 89 c7             	mov    %rax,%rdi
    c34c:	e8 a2 a3 ff ff       	callq  66f3 <transparent_crc>
    c351:	c7 45 f0 00 00 00 00 	movl   $0x0,-0x10(%rbp)
    c358:	eb 46                	jmp    c3a0 <main+0xd75>
    c35a:	8b 45 f0             	mov    -0x10(%rbp),%eax
    c35d:	48 98                	cltq   
    c35f:	48 8d 15 9f 4e 00 00 	lea    0x4e9f(%rip),%rdx        # 11205 <g_2086>
    c366:	0f b6 04 10          	movzbl (%rax,%rdx,1),%eax
    c36a:	48 0f be c0          	movsbq %al,%rax
    c36e:	8b 55 fc             	mov    -0x4(%rbp),%edx
    c371:	48 8d 35 3b 21 00 00 	lea    0x213b(%rip),%rsi        # e4b3 <g_599+0x1453>
    c378:	48 89 c7             	mov    %rax,%rdi
    c37b:	e8 73 a3 ff ff       	callq  66f3 <transparent_crc>
    c380:	83 7d fc 00          	cmpl   $0x0,-0x4(%rbp)
    c384:	74 16                	je     c39c <main+0xd71>
    c386:	8b 45 f0             	mov    -0x10(%rbp),%eax
    c389:	89 c6                	mov    %eax,%esi
    c38b:	48 8d 3d 21 1f 00 00 	lea    0x1f21(%rip),%rdi        # e2b3 <g_599+0x1253>
    c392:	b8 00 00 00 00       	mov    $0x0,%eax
    c397:	e8 e4 8c ff ff       	callq  5080 <printf@plt>
    c39c:	83 45 f0 01          	addl   $0x1,-0x10(%rbp)
    c3a0:	83 7d f0 05          	cmpl   $0x5,-0x10(%rbp)
    c3a4:	7e b4                	jle    c35a <main+0xd2f>
    c3a6:	0f b6 05 5e 4e 00 00 	movzbl 0x4e5e(%rip),%eax        # 1120b <g_2087>
    c3ad:	48 0f be c0          	movsbq %al,%rax
    c3b1:	8b 55 fc             	mov    -0x4(%rbp),%edx
    c3b4:	48 8d 35 02 21 00 00 	lea    0x2102(%rip),%rsi        # e4bd <g_599+0x145d>
    c3bb:	48 89 c7             	mov    %rax,%rdi
    c3be:	e8 30 a3 ff ff       	callq  66f3 <transparent_crc>
    c3c3:	0f b6 05 42 4e 00 00 	movzbl 0x4e42(%rip),%eax        # 1120c <g_2088>
    c3ca:	48 0f be c0          	movsbq %al,%rax
    c3ce:	8b 55 fc             	mov    -0x4(%rbp),%edx
    c3d1:	48 8d 35 ec 20 00 00 	lea    0x20ec(%rip),%rsi        # e4c4 <g_599+0x1464>
    c3d8:	48 89 c7             	mov    %rax,%rdi
    c3db:	e8 13 a3 ff ff       	callq  66f3 <transparent_crc>
    c3e0:	c7 45 f0 00 00 00 00 	movl   $0x0,-0x10(%rbp)
    c3e7:	e9 9b 00 00 00       	jmpq   c487 <main+0xe5c>
    c3ec:	c7 45 f4 00 00 00 00 	movl   $0x0,-0xc(%rbp)
    c3f3:	e9 81 00 00 00       	jmpq   c479 <main+0xe4e>
    c3f8:	c7 45 f8 00 00 00 00 	movl   $0x0,-0x8(%rbp)
    c3ff:	eb 6e                	jmp    c46f <main+0xe44>
    c401:	8b 45 f8             	mov    -0x8(%rbp),%eax
    c404:	48 63 c8             	movslq %eax,%rcx
    c407:	8b 45 f0             	mov    -0x10(%rbp),%eax
    c40a:	48 63 d0             	movslq %eax,%rdx
    c40d:	8b 45 f4             	mov    -0xc(%rbp),%eax
    c410:	48 63 f0             	movslq %eax,%rsi
    c413:	48 89 d0             	mov    %rdx,%rax
    c416:	48 01 c0             	add    %rax,%rax
    c419:	48 01 d0             	add    %rdx,%rax
    c41c:	48 01 f0             	add    %rsi,%rax
    c41f:	48 01 c0             	add    %rax,%rax
    c422:	48 8d 14 08          	lea    (%rax,%rcx,1),%rdx
    c426:	48 8d 05 f3 4d 00 00 	lea    0x4df3(%rip),%rax        # 11220 <g_2089>
    c42d:	48 01 d0             	add    %rdx,%rax
    c430:	0f b6 00             	movzbl (%rax),%eax
    c433:	48 0f be c0          	movsbq %al,%rax
    c437:	8b 55 fc             	mov    -0x4(%rbp),%edx
    c43a:	48 8d 35 8a 20 00 00 	lea    0x208a(%rip),%rsi        # e4cb <g_599+0x146b>
    c441:	48 89 c7             	mov    %rax,%rdi
    c444:	e8 aa a2 ff ff       	callq  66f3 <transparent_crc>
    c449:	83 7d fc 00          	cmpl   $0x0,-0x4(%rbp)
    c44d:	74 1c                	je     c46b <main+0xe40>
    c44f:	8b 4d f8             	mov    -0x8(%rbp),%ecx
    c452:	8b 55 f4             	mov    -0xc(%rbp),%edx
    c455:	8b 45 f0             	mov    -0x10(%rbp),%eax
    c458:	89 c6                	mov    %eax,%esi
    c45a:	48 8d 3d 7a 20 00 00 	lea    0x207a(%rip),%rdi        # e4db <g_599+0x147b>
    c461:	b8 00 00 00 00       	mov    $0x0,%eax
    c466:	e8 15 8c ff ff       	callq  5080 <printf@plt>
    c46b:	83 45 f8 01          	addl   $0x1,-0x8(%rbp)
    c46f:	83 7d f8 01          	cmpl   $0x1,-0x8(%rbp)
    c473:	7e 8c                	jle    c401 <main+0xdd6>
    c475:	83 45 f4 01          	addl   $0x1,-0xc(%rbp)
    c479:	83 7d f4 02          	cmpl   $0x2,-0xc(%rbp)
    c47d:	0f 8e 75 ff ff ff    	jle    c3f8 <main+0xdcd>
    c483:	83 45 f0 01          	addl   $0x1,-0x10(%rbp)
    c487:	83 7d f0 06          	cmpl   $0x6,-0x10(%rbp)
    c48b:	0f 8e 5b ff ff ff    	jle    c3ec <main+0xdc1>
    c491:	0f b6 05 b2 4d 00 00 	movzbl 0x4db2(%rip),%eax        # 1124a <g_2090>
    c498:	48 0f be c0          	movsbq %al,%rax
    c49c:	8b 55 fc             	mov    -0x4(%rbp),%edx
    c49f:	48 8d 35 4b 20 00 00 	lea    0x204b(%rip),%rsi        # e4f1 <g_599+0x1491>
    c4a6:	48 89 c7             	mov    %rax,%rdi
    c4a9:	e8 45 a2 ff ff       	callq  66f3 <transparent_crc>
    c4ae:	0f b6 05 96 4d 00 00 	movzbl 0x4d96(%rip),%eax        # 1124b <g_2091>
    c4b5:	48 0f be c0          	movsbq %al,%rax
    c4b9:	8b 55 fc             	mov    -0x4(%rbp),%edx
    c4bc:	48 8d 35 35 20 00 00 	lea    0x2035(%rip),%rsi        # e4f8 <g_599+0x1498>
    c4c3:	48 89 c7             	mov    %rax,%rdi
    c4c6:	e8 28 a2 ff ff       	callq  66f3 <transparent_crc>
    c4cb:	0f b6 05 7a 4d 00 00 	movzbl 0x4d7a(%rip),%eax        # 1124c <g_2092>
    c4d2:	48 0f be c0          	movsbq %al,%rax
    c4d6:	8b 55 fc             	mov    -0x4(%rbp),%edx
    c4d9:	48 8d 35 1f 20 00 00 	lea    0x201f(%rip),%rsi        # e4ff <g_599+0x149f>
    c4e0:	48 89 c7             	mov    %rax,%rdi
    c4e3:	e8 0b a2 ff ff       	callq  66f3 <transparent_crc>
    c4e8:	c7 45 f0 00 00 00 00 	movl   $0x0,-0x10(%rbp)
    c4ef:	e9 b0 00 00 00       	jmpq   c5a4 <main+0xf79>
    c4f4:	c7 45 f4 00 00 00 00 	movl   $0x0,-0xc(%rbp)
    c4fb:	e9 96 00 00 00       	jmpq   c596 <main+0xf6b>
    c500:	c7 45 f8 00 00 00 00 	movl   $0x0,-0x8(%rbp)
    c507:	eb 7f                	jmp    c588 <main+0xf5d>
    c509:	8b 45 f8             	mov    -0x8(%rbp),%eax
    c50c:	48 63 f0             	movslq %eax,%rsi
    c50f:	8b 45 f0             	mov    -0x10(%rbp),%eax
    c512:	48 63 d0             	movslq %eax,%rdx
    c515:	8b 45 f4             	mov    -0xc(%rbp),%eax
    c518:	48 63 c8             	movslq %eax,%rcx
    c51b:	48 89 d0             	mov    %rdx,%rax
    c51e:	48 01 c0             	add    %rax,%rax
    c521:	48 01 d0             	add    %rdx,%rax
    c524:	48 89 c2             	mov    %rax,%rdx
    c527:	48 c1 e2 04          	shl    $0x4,%rdx
    c52b:	48 29 c2             	sub    %rax,%rdx
    c52e:	48 89 c8             	mov    %rcx,%rax
    c531:	48 c1 e0 03          	shl    $0x3,%rax
    c535:	48 01 c8             	add    %rcx,%rax
    c538:	48 01 d0             	add    %rdx,%rax
    c53b:	48 8d 14 30          	lea    (%rax,%rsi,1),%rdx
    c53f:	48 8d 05 1a 4d 00 00 	lea    0x4d1a(%rip),%rax        # 11260 <g_2093>
    c546:	48 01 d0             	add    %rdx,%rax
    c549:	0f b6 00             	movzbl (%rax),%eax
    c54c:	48 0f be c0          	movsbq %al,%rax
    c550:	8b 55 fc             	mov    -0x4(%rbp),%edx
    c553:	48 8d 35 ac 1f 00 00 	lea    0x1fac(%rip),%rsi        # e506 <g_599+0x14a6>
    c55a:	48 89 c7             	mov    %rax,%rdi
    c55d:	e8 91 a1 ff ff       	callq  66f3 <transparent_crc>
    c562:	83 7d fc 00          	cmpl   $0x0,-0x4(%rbp)
    c566:	74 1c                	je     c584 <main+0xf59>
    c568:	8b 4d f8             	mov    -0x8(%rbp),%ecx
    c56b:	8b 55 f4             	mov    -0xc(%rbp),%edx
    c56e:	8b 45 f0             	mov    -0x10(%rbp),%eax
    c571:	89 c6                	mov    %eax,%esi
    c573:	48 8d 3d 61 1f 00 00 	lea    0x1f61(%rip),%rdi        # e4db <g_599+0x147b>
    c57a:	b8 00 00 00 00       	mov    $0x0,%eax
    c57f:	e8 fc 8a ff ff       	callq  5080 <printf@plt>
    c584:	83 45 f8 01          	addl   $0x1,-0x8(%rbp)
    c588:	83 7d f8 08          	cmpl   $0x8,-0x8(%rbp)
    c58c:	0f 8e 77 ff ff ff    	jle    c509 <main+0xede>
    c592:	83 45 f4 01          	addl   $0x1,-0xc(%rbp)
    c596:	83 7d f4 04          	cmpl   $0x4,-0xc(%rbp)
    c59a:	0f 8e 60 ff ff ff    	jle    c500 <main+0xed5>
    c5a0:	83 45 f0 01          	addl   $0x1,-0x10(%rbp)
    c5a4:	83 7d f0 02          	cmpl   $0x2,-0x10(%rbp)
    c5a8:	0f 8e 46 ff ff ff    	jle    c4f4 <main+0xec9>
    c5ae:	0f b6 05 32 4d 00 00 	movzbl 0x4d32(%rip),%eax        # 112e7 <g_2094>
    c5b5:	48 0f be c0          	movsbq %al,%rax
    c5b9:	8b 55 fc             	mov    -0x4(%rbp),%edx
    c5bc:	48 8d 35 53 1f 00 00 	lea    0x1f53(%rip),%rsi        # e516 <g_599+0x14b6>
    c5c3:	48 89 c7             	mov    %rax,%rdi
    c5c6:	e8 28 a1 ff ff       	callq  66f3 <transparent_crc>
    c5cb:	0f b6 05 16 4d 00 00 	movzbl 0x4d16(%rip),%eax        # 112e8 <g_2095>
    c5d2:	48 0f be c0          	movsbq %al,%rax
    c5d6:	8b 55 fc             	mov    -0x4(%rbp),%edx
    c5d9:	48 8d 35 3d 1f 00 00 	lea    0x1f3d(%rip),%rsi        # e51d <g_599+0x14bd>
    c5e0:	48 89 c7             	mov    %rax,%rdi
    c5e3:	e8 0b a1 ff ff       	callq  66f3 <transparent_crc>
    c5e8:	0f b6 05 fa 4c 00 00 	movzbl 0x4cfa(%rip),%eax        # 112e9 <g_2096>
    c5ef:	48 0f be c0          	movsbq %al,%rax
    c5f3:	8b 55 fc             	mov    -0x4(%rbp),%edx
    c5f6:	48 8d 35 27 1f 00 00 	lea    0x1f27(%rip),%rsi        # e524 <g_599+0x14c4>
    c5fd:	48 89 c7             	mov    %rax,%rdi
    c600:	e8 ee a0 ff ff       	callq  66f3 <transparent_crc>
    c605:	0f b6 05 de 4c 00 00 	movzbl 0x4cde(%rip),%eax        # 112ea <g_2097>
    c60c:	48 0f be c0          	movsbq %al,%rax
    c610:	8b 55 fc             	mov    -0x4(%rbp),%edx
    c613:	48 8d 35 11 1f 00 00 	lea    0x1f11(%rip),%rsi        # e52b <g_599+0x14cb>
    c61a:	48 89 c7             	mov    %rax,%rdi
    c61d:	e8 d1 a0 ff ff       	callq  66f3 <transparent_crc>
    c622:	0f b6 05 56 73 00 00 	movzbl 0x7356(%rip),%eax        # 1397f <g_2098>
    c629:	48 0f be c0          	movsbq %al,%rax
    c62d:	8b 55 fc             	mov    -0x4(%rbp),%edx
    c630:	48 8d 35 fb 1e 00 00 	lea    0x1efb(%rip),%rsi        # e532 <g_599+0x14d2>
    c637:	48 89 c7             	mov    %rax,%rdi
    c63a:	e8 b4 a0 ff ff       	callq  66f3 <transparent_crc>
    c63f:	0f b6 05 a5 4c 00 00 	movzbl 0x4ca5(%rip),%eax        # 112eb <g_2099>
    c646:	48 0f be c0          	movsbq %al,%rax
    c64a:	8b 55 fc             	mov    -0x4(%rbp),%edx
    c64d:	48 8d 35 e5 1e 00 00 	lea    0x1ee5(%rip),%rsi        # e539 <g_599+0x14d9>
    c654:	48 89 c7             	mov    %rax,%rdi
    c657:	e8 97 a0 ff ff       	callq  66f3 <transparent_crc>
    c65c:	0f b6 05 89 4c 00 00 	movzbl 0x4c89(%rip),%eax        # 112ec <g_2100>
    c663:	48 0f be c0          	movsbq %al,%rax
    c667:	8b 55 fc             	mov    -0x4(%rbp),%edx
    c66a:	48 8d 35 cf 1e 00 00 	lea    0x1ecf(%rip),%rsi        # e540 <g_599+0x14e0>
    c671:	48 89 c7             	mov    %rax,%rdi
    c674:	e8 7a a0 ff ff       	callq  66f3 <transparent_crc>
    c679:	0f b6 05 6d 4c 00 00 	movzbl 0x4c6d(%rip),%eax        # 112ed <g_2101>
    c680:	48 0f be c0          	movsbq %al,%rax
    c684:	8b 55 fc             	mov    -0x4(%rbp),%edx
    c687:	48 8d 35 b9 1e 00 00 	lea    0x1eb9(%rip),%rsi        # e547 <g_599+0x14e7>
    c68e:	48 89 c7             	mov    %rax,%rdi
    c691:	e8 5d a0 ff ff       	callq  66f3 <transparent_crc>
    c696:	0f b6 05 51 4c 00 00 	movzbl 0x4c51(%rip),%eax        # 112ee <g_2102>
    c69d:	48 0f be c0          	movsbq %al,%rax
    c6a1:	8b 55 fc             	mov    -0x4(%rbp),%edx
    c6a4:	48 8d 35 a3 1e 00 00 	lea    0x1ea3(%rip),%rsi        # e54e <g_599+0x14ee>
    c6ab:	48 89 c7             	mov    %rax,%rdi
    c6ae:	e8 40 a0 ff ff       	callq  66f3 <transparent_crc>
    c6b3:	0f b6 05 35 4c 00 00 	movzbl 0x4c35(%rip),%eax        # 112ef <g_2103>
    c6ba:	48 0f be c0          	movsbq %al,%rax
    c6be:	8b 55 fc             	mov    -0x4(%rbp),%edx
    c6c1:	48 8d 35 8d 1e 00 00 	lea    0x1e8d(%rip),%rsi        # e555 <g_599+0x14f5>
    c6c8:	48 89 c7             	mov    %rax,%rdi
    c6cb:	e8 23 a0 ff ff       	callq  66f3 <transparent_crc>
    c6d0:	0f b6 05 19 4c 00 00 	movzbl 0x4c19(%rip),%eax        # 112f0 <g_2104>
    c6d7:	48 0f be c0          	movsbq %al,%rax
    c6db:	8b 55 fc             	mov    -0x4(%rbp),%edx
    c6de:	48 8d 35 77 1e 00 00 	lea    0x1e77(%rip),%rsi        # e55c <g_599+0x14fc>
    c6e5:	48 89 c7             	mov    %rax,%rdi
    c6e8:	e8 06 a0 ff ff       	callq  66f3 <transparent_crc>
    c6ed:	0f b6 05 fd 4b 00 00 	movzbl 0x4bfd(%rip),%eax        # 112f1 <g_2105>
    c6f4:	48 0f be c0          	movsbq %al,%rax
    c6f8:	8b 55 fc             	mov    -0x4(%rbp),%edx
    c6fb:	48 8d 35 61 1e 00 00 	lea    0x1e61(%rip),%rsi        # e563 <g_599+0x1503>
    c702:	48 89 c7             	mov    %rax,%rdi
    c705:	e8 e9 9f ff ff       	callq  66f3 <transparent_crc>
    c70a:	0f b6 05 e1 4b 00 00 	movzbl 0x4be1(%rip),%eax        # 112f2 <g_2106>
    c711:	48 0f be c0          	movsbq %al,%rax
    c715:	8b 55 fc             	mov    -0x4(%rbp),%edx
    c718:	48 8d 35 4b 1e 00 00 	lea    0x1e4b(%rip),%rsi        # e56a <g_599+0x150a>
    c71f:	48 89 c7             	mov    %rax,%rdi
    c722:	e8 cc 9f ff ff       	callq  66f3 <transparent_crc>
    c727:	0f b6 05 c5 4b 00 00 	movzbl 0x4bc5(%rip),%eax        # 112f3 <g_2107>
    c72e:	48 0f be c0          	movsbq %al,%rax
    c732:	8b 55 fc             	mov    -0x4(%rbp),%edx
    c735:	48 8d 35 35 1e 00 00 	lea    0x1e35(%rip),%rsi        # e571 <g_599+0x1511>
    c73c:	48 89 c7             	mov    %rax,%rdi
    c73f:	e8 af 9f ff ff       	callq  66f3 <transparent_crc>
    c744:	0f b6 05 a9 4b 00 00 	movzbl 0x4ba9(%rip),%eax        # 112f4 <g_2108>
    c74b:	48 0f be c0          	movsbq %al,%rax
    c74f:	8b 55 fc             	mov    -0x4(%rbp),%edx
    c752:	48 8d 35 1f 1e 00 00 	lea    0x1e1f(%rip),%rsi        # e578 <g_599+0x1518>
    c759:	48 89 c7             	mov    %rax,%rdi
    c75c:	e8 92 9f ff ff       	callq  66f3 <transparent_crc>
    c761:	0f b6 05 8d 4b 00 00 	movzbl 0x4b8d(%rip),%eax        # 112f5 <g_2109>
    c768:	48 0f be c0          	movsbq %al,%rax
    c76c:	8b 55 fc             	mov    -0x4(%rbp),%edx
    c76f:	48 8d 35 09 1e 00 00 	lea    0x1e09(%rip),%rsi        # e57f <g_599+0x151f>
    c776:	48 89 c7             	mov    %rax,%rdi
    c779:	e8 75 9f ff ff       	callq  66f3 <transparent_crc>
    c77e:	0f b6 05 71 4b 00 00 	movzbl 0x4b71(%rip),%eax        # 112f6 <g_2110>
    c785:	48 0f be c0          	movsbq %al,%rax
    c789:	8b 55 fc             	mov    -0x4(%rbp),%edx
    c78c:	48 8d 35 f3 1d 00 00 	lea    0x1df3(%rip),%rsi        # e586 <g_599+0x1526>
    c793:	48 89 c7             	mov    %rax,%rdi
    c796:	e8 58 9f ff ff       	callq  66f3 <transparent_crc>
    c79b:	0f b6 05 de 71 00 00 	movzbl 0x71de(%rip),%eax        # 13980 <g_2111>
    c7a2:	48 0f be c0          	movsbq %al,%rax
    c7a6:	8b 55 fc             	mov    -0x4(%rbp),%edx
    c7a9:	48 8d 35 dd 1d 00 00 	lea    0x1ddd(%rip),%rsi        # e58d <g_599+0x152d>
    c7b0:	48 89 c7             	mov    %rax,%rdi
    c7b3:	e8 3b 9f ff ff       	callq  66f3 <transparent_crc>
    c7b8:	0f b6 05 38 4b 00 00 	movzbl 0x4b38(%rip),%eax        # 112f7 <g_2112>
    c7bf:	48 0f be c0          	movsbq %al,%rax
    c7c3:	8b 55 fc             	mov    -0x4(%rbp),%edx
    c7c6:	48 8d 35 c7 1d 00 00 	lea    0x1dc7(%rip),%rsi        # e594 <g_599+0x1534>
    c7cd:	48 89 c7             	mov    %rax,%rdi
    c7d0:	e8 1e 9f ff ff       	callq  66f3 <transparent_crc>
    c7d5:	c7 45 f0 00 00 00 00 	movl   $0x0,-0x10(%rbp)
    c7dc:	eb 46                	jmp    c824 <main+0x11f9>
    c7de:	8b 45 f0             	mov    -0x10(%rbp),%eax
    c7e1:	48 98                	cltq   
    c7e3:	48 8d 15 0e 4b 00 00 	lea    0x4b0e(%rip),%rdx        # 112f8 <g_2113>
    c7ea:	0f b6 04 10          	movzbl (%rax,%rdx,1),%eax
    c7ee:	48 0f be c0          	movsbq %al,%rax
    c7f2:	8b 55 fc             	mov    -0x4(%rbp),%edx
    c7f5:	48 8d 35 9f 1d 00 00 	lea    0x1d9f(%rip),%rsi        # e59b <g_599+0x153b>
    c7fc:	48 89 c7             	mov    %rax,%rdi
    c7ff:	e8 ef 9e ff ff       	callq  66f3 <transparent_crc>
    c804:	83 7d fc 00          	cmpl   $0x0,-0x4(%rbp)
    c808:	74 16                	je     c820 <main+0x11f5>
    c80a:	8b 45 f0             	mov    -0x10(%rbp),%eax
    c80d:	89 c6                	mov    %eax,%esi
    c80f:	48 8d 3d 9d 1a 00 00 	lea    0x1a9d(%rip),%rdi        # e2b3 <g_599+0x1253>
    c816:	b8 00 00 00 00       	mov    $0x0,%eax
    c81b:	e8 60 88 ff ff       	callq  5080 <printf@plt>
    c820:	83 45 f0 01          	addl   $0x1,-0x10(%rbp)
    c824:	83 7d f0 09          	cmpl   $0x9,-0x10(%rbp)
    c828:	7e b4                	jle    c7de <main+0x11b3>
    c82a:	0f b6 05 d1 4a 00 00 	movzbl 0x4ad1(%rip),%eax        # 11302 <g_2114>
    c831:	48 0f be c0          	movsbq %al,%rax
    c835:	8b 55 fc             	mov    -0x4(%rbp),%edx
    c838:	48 8d 35 66 1d 00 00 	lea    0x1d66(%rip),%rsi        # e5a5 <g_599+0x1545>
    c83f:	48 89 c7             	mov    %rax,%rdi
    c842:	e8 ac 9e ff ff       	callq  66f3 <transparent_crc>
    c847:	c7 45 f0 00 00 00 00 	movl   $0x0,-0x10(%rbp)
    c84e:	eb 73                	jmp    c8c3 <main+0x1298>
    c850:	c7 45 f4 00 00 00 00 	movl   $0x0,-0xc(%rbp)
    c857:	eb 60                	jmp    c8b9 <main+0x128e>
    c859:	8b 45 f4             	mov    -0xc(%rbp),%eax
    c85c:	48 63 c8             	movslq %eax,%rcx
    c85f:	8b 45 f0             	mov    -0x10(%rbp),%eax
    c862:	48 63 d0             	movslq %eax,%rdx
    c865:	48 89 d0             	mov    %rdx,%rax
    c868:	48 c1 e0 03          	shl    $0x3,%rax
    c86c:	48 29 d0             	sub    %rdx,%rax
    c86f:	48 8d 14 08          	lea    (%rax,%rcx,1),%rdx
    c873:	48 8d 05 8e 4a 00 00 	lea    0x4a8e(%rip),%rax        # 11308 <g_2115>
    c87a:	48 01 d0             	add    %rdx,%rax
    c87d:	0f b6 00             	movzbl (%rax),%eax
    c880:	48 0f be c0          	movsbq %al,%rax
    c884:	8b 55 fc             	mov    -0x4(%rbp),%edx
    c887:	48 8d 35 1e 1d 00 00 	lea    0x1d1e(%rip),%rsi        # e5ac <g_599+0x154c>
    c88e:	48 89 c7             	mov    %rax,%rdi
    c891:	e8 5d 9e ff ff       	callq  66f3 <transparent_crc>
    c896:	83 7d fc 00          	cmpl   $0x0,-0x4(%rbp)
    c89a:	74 19                	je     c8b5 <main+0x128a>
    c89c:	8b 55 f4             	mov    -0xc(%rbp),%edx
    c89f:	8b 45 f0             	mov    -0x10(%rbp),%eax
    c8a2:	89 c6                	mov    %eax,%esi
    c8a4:	48 8d 3d aa 19 00 00 	lea    0x19aa(%rip),%rdi        # e255 <g_599+0x11f5>
    c8ab:	b8 00 00 00 00       	mov    $0x0,%eax
    c8b0:	e8 cb 87 ff ff       	callq  5080 <printf@plt>
    c8b5:	83 45 f4 01          	addl   $0x1,-0xc(%rbp)
    c8b9:	83 7d f4 06          	cmpl   $0x6,-0xc(%rbp)
    c8bd:	7e 9a                	jle    c859 <main+0x122e>
    c8bf:	83 45 f0 01          	addl   $0x1,-0x10(%rbp)
    c8c3:	83 7d f0 01          	cmpl   $0x1,-0x10(%rbp)
    c8c7:	7e 87                	jle    c850 <main+0x1225>
    c8c9:	c7 45 f0 00 00 00 00 	movl   $0x0,-0x10(%rbp)
    c8d0:	e9 a2 00 00 00       	jmpq   c977 <main+0x134c>
    c8d5:	c7 45 f4 00 00 00 00 	movl   $0x0,-0xc(%rbp)
    c8dc:	e9 88 00 00 00       	jmpq   c969 <main+0x133e>
    c8e1:	c7 45 f8 00 00 00 00 	movl   $0x0,-0x8(%rbp)
    c8e8:	eb 75                	jmp    c95f <main+0x1334>
    c8ea:	8b 45 f8             	mov    -0x8(%rbp),%eax
    c8ed:	48 63 f0             	movslq %eax,%rsi
    c8f0:	8b 45 f0             	mov    -0x10(%rbp),%eax
    c8f3:	48 98                	cltq   
    c8f5:	8b 55 f4             	mov    -0xc(%rbp),%edx
    c8f8:	48 63 ca             	movslq %edx,%rcx
    c8fb:	48 89 c2             	mov    %rax,%rdx
    c8fe:	48 c1 e2 04          	shl    $0x4,%rdx
    c902:	48 29 c2             	sub    %rax,%rdx
    c905:	48 89 c8             	mov    %rcx,%rax
    c908:	48 c1 e0 02          	shl    $0x2,%rax
    c90c:	48 01 c8             	add    %rcx,%rax
    c90f:	48 01 d0             	add    %rdx,%rax
    c912:	48 8d 14 30          	lea    (%rax,%rsi,1),%rdx
    c916:	48 8d 05 03 4a 00 00 	lea    0x4a03(%rip),%rax        # 11320 <g_2116>
    c91d:	48 01 d0             	add    %rdx,%rax
    c920:	0f b6 00             	movzbl (%rax),%eax
    c923:	48 0f be c0          	movsbq %al,%rax
    c927:	8b 55 fc             	mov    -0x4(%rbp),%edx
    c92a:	48 8d 35 88 1c 00 00 	lea    0x1c88(%rip),%rsi        # e5b9 <g_599+0x1559>
    c931:	48 89 c7             	mov    %rax,%rdi
    c934:	e8 ba 9d ff ff       	callq  66f3 <transparent_crc>
    c939:	83 7d fc 00          	cmpl   $0x0,-0x4(%rbp)
    c93d:	74 1c                	je     c95b <main+0x1330>
    c93f:	8b 4d f8             	mov    -0x8(%rbp),%ecx
    c942:	8b 55 f4             	mov    -0xc(%rbp),%edx
    c945:	8b 45 f0             	mov    -0x10(%rbp),%eax
    c948:	89 c6                	mov    %eax,%esi
    c94a:	48 8d 3d 8a 1b 00 00 	lea    0x1b8a(%rip),%rdi        # e4db <g_599+0x147b>
    c951:	b8 00 00 00 00       	mov    $0x0,%eax
    c956:	e8 25 87 ff ff       	callq  5080 <printf@plt>
    c95b:	83 45 f8 01          	addl   $0x1,-0x8(%rbp)
    c95f:	83 7d f8 04          	cmpl   $0x4,-0x8(%rbp)
    c963:	7e 85                	jle    c8ea <main+0x12bf>
    c965:	83 45 f4 01          	addl   $0x1,-0xc(%rbp)
    c969:	83 7d f4 02          	cmpl   $0x2,-0xc(%rbp)
    c96d:	0f 8e 6e ff ff ff    	jle    c8e1 <main+0x12b6>
    c973:	83 45 f0 01          	addl   $0x1,-0x10(%rbp)
    c977:	83 7d f0 07          	cmpl   $0x7,-0x10(%rbp)
    c97b:	0f 8e 54 ff ff ff    	jle    c8d5 <main+0x12aa>
    c981:	0f b6 05 10 4a 00 00 	movzbl 0x4a10(%rip),%eax        # 11398 <g_2117>
    c988:	48 0f be c0          	movsbq %al,%rax
    c98c:	8b 55 fc             	mov    -0x4(%rbp),%edx
    c98f:	48 8d 35 33 1c 00 00 	lea    0x1c33(%rip),%rsi        # e5c9 <g_599+0x1569>
    c996:	48 89 c7             	mov    %rax,%rdi
    c999:	e8 55 9d ff ff       	callq  66f3 <transparent_crc>
    c99e:	c7 45 f0 00 00 00 00 	movl   $0x0,-0x10(%rbp)
    c9a5:	eb 6a                	jmp    ca11 <main+0x13e6>
    c9a7:	c7 45 f4 00 00 00 00 	movl   $0x0,-0xc(%rbp)
    c9ae:	eb 57                	jmp    ca07 <main+0x13dc>
    c9b0:	8b 45 f4             	mov    -0xc(%rbp),%eax
    c9b3:	48 98                	cltq   
    c9b5:	8b 55 f0             	mov    -0x10(%rbp),%edx
    c9b8:	48 63 d2             	movslq %edx,%rdx
    c9bb:	48 01 d2             	add    %rdx,%rdx
    c9be:	48 01 c2             	add    %rax,%rdx
    c9c1:	48 8d 05 d8 49 00 00 	lea    0x49d8(%rip),%rax        # 113a0 <g_2118>
    c9c8:	48 01 d0             	add    %rdx,%rax
    c9cb:	0f b6 00             	movzbl (%rax),%eax
    c9ce:	48 0f be c0          	movsbq %al,%rax
    c9d2:	8b 55 fc             	mov    -0x4(%rbp),%edx
    c9d5:	48 8d 35 f4 1b 00 00 	lea    0x1bf4(%rip),%rsi        # e5d0 <g_599+0x1570>
    c9dc:	48 89 c7             	mov    %rax,%rdi
    c9df:	e8 0f 9d ff ff       	callq  66f3 <transparent_crc>
    c9e4:	83 7d fc 00          	cmpl   $0x0,-0x4(%rbp)
    c9e8:	74 19                	je     ca03 <main+0x13d8>
    c9ea:	8b 55 f4             	mov    -0xc(%rbp),%edx
    c9ed:	8b 45 f0             	mov    -0x10(%rbp),%eax
    c9f0:	89 c6                	mov    %eax,%esi
    c9f2:	48 8d 3d 5c 18 00 00 	lea    0x185c(%rip),%rdi        # e255 <g_599+0x11f5>
    c9f9:	b8 00 00 00 00       	mov    $0x0,%eax
    c9fe:	e8 7d 86 ff ff       	callq  5080 <printf@plt>
    ca03:	83 45 f4 01          	addl   $0x1,-0xc(%rbp)
    ca07:	83 7d f4 01          	cmpl   $0x1,-0xc(%rbp)
    ca0b:	7e a3                	jle    c9b0 <main+0x1385>
    ca0d:	83 45 f0 01          	addl   $0x1,-0x10(%rbp)
    ca11:	83 7d f0 09          	cmpl   $0x9,-0x10(%rbp)
    ca15:	7e 90                	jle    c9a7 <main+0x137c>
    ca17:	c7 45 f0 00 00 00 00 	movl   $0x0,-0x10(%rbp)
    ca1e:	eb 46                	jmp    ca66 <main+0x143b>
    ca20:	8b 45 f0             	mov    -0x10(%rbp),%eax
    ca23:	48 98                	cltq   
    ca25:	48 8d 15 88 49 00 00 	lea    0x4988(%rip),%rdx        # 113b4 <g_2119>
    ca2c:	0f b6 04 10          	movzbl (%rax,%rdx,1),%eax
    ca30:	48 0f be c0          	movsbq %al,%rax
    ca34:	8b 55 fc             	mov    -0x4(%rbp),%edx
    ca37:	48 8d 35 9f 1b 00 00 	lea    0x1b9f(%rip),%rsi        # e5dd <g_599+0x157d>
    ca3e:	48 89 c7             	mov    %rax,%rdi
    ca41:	e8 ad 9c ff ff       	callq  66f3 <transparent_crc>
    ca46:	83 7d fc 00          	cmpl   $0x0,-0x4(%rbp)
    ca4a:	74 16                	je     ca62 <main+0x1437>
    ca4c:	8b 45 f0             	mov    -0x10(%rbp),%eax
    ca4f:	89 c6                	mov    %eax,%esi
    ca51:	48 8d 3d 5b 18 00 00 	lea    0x185b(%rip),%rdi        # e2b3 <g_599+0x1253>
    ca58:	b8 00 00 00 00       	mov    $0x0,%eax
    ca5d:	e8 1e 86 ff ff       	callq  5080 <printf@plt>
    ca62:	83 45 f0 01          	addl   $0x1,-0x10(%rbp)
    ca66:	83 7d f0 02          	cmpl   $0x2,-0x10(%rbp)
    ca6a:	7e b4                	jle    ca20 <main+0x13f5>
    ca6c:	0f b6 05 44 49 00 00 	movzbl 0x4944(%rip),%eax        # 113b7 <g_2120>
    ca73:	48 0f be c0          	movsbq %al,%rax
    ca77:	8b 55 fc             	mov    -0x4(%rbp),%edx
    ca7a:	48 8d 35 66 1b 00 00 	lea    0x1b66(%rip),%rsi        # e5e7 <g_599+0x1587>
    ca81:	48 89 c7             	mov    %rax,%rdi
    ca84:	e8 6a 9c ff ff       	callq  66f3 <transparent_crc>
    ca89:	0f b6 05 28 49 00 00 	movzbl 0x4928(%rip),%eax        # 113b8 <g_2121>
    ca90:	48 0f be c0          	movsbq %al,%rax
    ca94:	8b 55 fc             	mov    -0x4(%rbp),%edx
    ca97:	48 8d 35 50 1b 00 00 	lea    0x1b50(%rip),%rsi        # e5ee <g_599+0x158e>
    ca9e:	48 89 c7             	mov    %rax,%rdi
    caa1:	e8 4d 9c ff ff       	callq  66f3 <transparent_crc>
    caa6:	0f b6 05 0c 49 00 00 	movzbl 0x490c(%rip),%eax        # 113b9 <g_2122>
    caad:	48 0f be c0          	movsbq %al,%rax
    cab1:	8b 55 fc             	mov    -0x4(%rbp),%edx
    cab4:	48 8d 35 3a 1b 00 00 	lea    0x1b3a(%rip),%rsi        # e5f5 <g_599+0x1595>
    cabb:	48 89 c7             	mov    %rax,%rdi
    cabe:	e8 30 9c ff ff       	callq  66f3 <transparent_crc>
    cac3:	0f b6 05 f0 48 00 00 	movzbl 0x48f0(%rip),%eax        # 113ba <g_2123>
    caca:	48 0f be c0          	movsbq %al,%rax
    cace:	8b 55 fc             	mov    -0x4(%rbp),%edx
    cad1:	48 8d 35 24 1b 00 00 	lea    0x1b24(%rip),%rsi        # e5fc <g_599+0x159c>
    cad8:	48 89 c7             	mov    %rax,%rdi
    cadb:	e8 13 9c ff ff       	callq  66f3 <transparent_crc>
    cae0:	0f b6 05 d4 48 00 00 	movzbl 0x48d4(%rip),%eax        # 113bb <g_2124>
    cae7:	48 0f be c0          	movsbq %al,%rax
    caeb:	8b 55 fc             	mov    -0x4(%rbp),%edx
    caee:	48 8d 35 0e 1b 00 00 	lea    0x1b0e(%rip),%rsi        # e603 <g_599+0x15a3>
    caf5:	48 89 c7             	mov    %rax,%rdi
    caf8:	e8 f6 9b ff ff       	callq  66f3 <transparent_crc>
    cafd:	c7 45 f0 00 00 00 00 	movl   $0x0,-0x10(%rbp)
    cb04:	e9 a7 00 00 00       	jmpq   cbb0 <main+0x1585>
    cb09:	c7 45 f4 00 00 00 00 	movl   $0x0,-0xc(%rbp)
    cb10:	e9 8d 00 00 00       	jmpq   cba2 <main+0x1577>
    cb15:	c7 45 f8 00 00 00 00 	movl   $0x0,-0x8(%rbp)
    cb1c:	eb 7a                	jmp    cb98 <main+0x156d>
    cb1e:	8b 45 f8             	mov    -0x8(%rbp),%eax
    cb21:	48 63 f0             	movslq %eax,%rsi
    cb24:	8b 45 f0             	mov    -0x10(%rbp),%eax
    cb27:	48 63 d0             	movslq %eax,%rdx
    cb2a:	8b 45 f4             	mov    -0xc(%rbp),%eax
    cb2d:	48 63 c8             	movslq %eax,%rcx
    cb30:	48 89 d0             	mov    %rdx,%rax
    cb33:	48 c1 e0 03          	shl    $0x3,%rax
    cb37:	48 29 d0             	sub    %rdx,%rax
    cb3a:	48 c1 e0 03          	shl    $0x3,%rax
    cb3e:	48 89 ca             	mov    %rcx,%rdx
    cb41:	48 c1 e2 03          	shl    $0x3,%rdx
    cb45:	48 29 ca             	sub    %rcx,%rdx
    cb48:	48 01 d0             	add    %rdx,%rax
    cb4b:	48 8d 14 30          	lea    (%rax,%rsi,1),%rdx
    cb4f:	48 8d 05 6a 48 00 00 	lea    0x486a(%rip),%rax        # 113c0 <g_2125>
    cb56:	48 01 d0             	add    %rdx,%rax
    cb59:	0f b6 00             	movzbl (%rax),%eax
    cb5c:	48 0f be c0          	movsbq %al,%rax
    cb60:	8b 55 fc             	mov    -0x4(%rbp),%edx
    cb63:	48 8d 35 a0 1a 00 00 	lea    0x1aa0(%rip),%rsi        # e60a <g_599+0x15aa>
    cb6a:	48 89 c7             	mov    %rax,%rdi
    cb6d:	e8 81 9b ff ff       	callq  66f3 <transparent_crc>
    cb72:	83 7d fc 00          	cmpl   $0x0,-0x4(%rbp)
    cb76:	74 1c                	je     cb94 <main+0x1569>
    cb78:	8b 4d f8             	mov    -0x8(%rbp),%ecx
    cb7b:	8b 55 f4             	mov    -0xc(%rbp),%edx
    cb7e:	8b 45 f0             	mov    -0x10(%rbp),%eax
    cb81:	89 c6                	mov    %eax,%esi
    cb83:	48 8d 3d 51 19 00 00 	lea    0x1951(%rip),%rdi        # e4db <g_599+0x147b>
    cb8a:	b8 00 00 00 00       	mov    $0x0,%eax
    cb8f:	e8 ec 84 ff ff       	callq  5080 <printf@plt>
    cb94:	83 45 f8 01          	addl   $0x1,-0x8(%rbp)
    cb98:	83 7d f8 06          	cmpl   $0x6,-0x8(%rbp)
    cb9c:	7e 80                	jle    cb1e <main+0x14f3>
    cb9e:	83 45 f4 01          	addl   $0x1,-0xc(%rbp)
    cba2:	83 7d f4 07          	cmpl   $0x7,-0xc(%rbp)
    cba6:	0f 8e 69 ff ff ff    	jle    cb15 <main+0x14ea>
    cbac:	83 45 f0 01          	addl   $0x1,-0x10(%rbp)
    cbb0:	83 7d f0 03          	cmpl   $0x3,-0x10(%rbp)
    cbb4:	0f 8e 4f ff ff ff    	jle    cb09 <main+0x14de>
    cbba:	c7 45 f0 00 00 00 00 	movl   $0x0,-0x10(%rbp)
    cbc1:	eb 72                	jmp    cc35 <main+0x160a>
    cbc3:	c7 45 f4 00 00 00 00 	movl   $0x0,-0xc(%rbp)
    cbca:	eb 5f                	jmp    cc2b <main+0x1600>
    cbcc:	8b 45 f4             	mov    -0xc(%rbp),%eax
    cbcf:	48 63 c8             	movslq %eax,%rcx
    cbd2:	8b 45 f0             	mov    -0x10(%rbp),%eax
    cbd5:	48 63 d0             	movslq %eax,%rdx
    cbd8:	48 89 d0             	mov    %rdx,%rax
    cbdb:	48 01 c0             	add    %rax,%rax
    cbde:	48 01 d0             	add    %rdx,%rax
    cbe1:	48 8d 14 08          	lea    (%rax,%rcx,1),%rdx
    cbe5:	48 8d 05 95 6d 00 00 	lea    0x6d95(%rip),%rax        # 13981 <g_2126>
    cbec:	48 01 d0             	add    %rdx,%rax
    cbef:	0f b6 00             	movzbl (%rax),%eax
    cbf2:	48 0f be c0          	movsbq %al,%rax
    cbf6:	8b 55 fc             	mov    -0x4(%rbp),%edx
    cbf9:	48 8d 35 1a 1a 00 00 	lea    0x1a1a(%rip),%rsi        # e61a <g_599+0x15ba>
    cc00:	48 89 c7             	mov    %rax,%rdi
    cc03:	e8 eb 9a ff ff       	callq  66f3 <transparent_crc>
    cc08:	83 7d fc 00          	cmpl   $0x0,-0x4(%rbp)
    cc0c:	74 19                	je     cc27 <main+0x15fc>
    cc0e:	8b 55 f4             	mov    -0xc(%rbp),%edx
    cc11:	8b 45 f0             	mov    -0x10(%rbp),%eax
    cc14:	89 c6                	mov    %eax,%esi
    cc16:	48 8d 3d 38 16 00 00 	lea    0x1638(%rip),%rdi        # e255 <g_599+0x11f5>
    cc1d:	b8 00 00 00 00       	mov    $0x0,%eax
    cc22:	e8 59 84 ff ff       	callq  5080 <printf@plt>
    cc27:	83 45 f4 01          	addl   $0x1,-0xc(%rbp)
    cc2b:	83 7d f4 02          	cmpl   $0x2,-0xc(%rbp)
    cc2f:	7e 9b                	jle    cbcc <main+0x15a1>
    cc31:	83 45 f0 01          	addl   $0x1,-0x10(%rbp)
    cc35:	83 7d f0 00          	cmpl   $0x0,-0x10(%rbp)
    cc39:	7e 88                	jle    cbc3 <main+0x1598>
    cc3b:	0f b6 05 5e 48 00 00 	movzbl 0x485e(%rip),%eax        # 114a0 <g_2127>
    cc42:	48 0f be c0          	movsbq %al,%rax
    cc46:	8b 55 fc             	mov    -0x4(%rbp),%edx
    cc49:	48 8d 35 d7 19 00 00 	lea    0x19d7(%rip),%rsi        # e627 <g_599+0x15c7>
    cc50:	48 89 c7             	mov    %rax,%rdi
    cc53:	e8 9b 9a ff ff       	callq  66f3 <transparent_crc>
    cc58:	0f b6 05 42 48 00 00 	movzbl 0x4842(%rip),%eax        # 114a1 <g_2128>
    cc5f:	48 0f be c0          	movsbq %al,%rax
    cc63:	8b 55 fc             	mov    -0x4(%rbp),%edx
    cc66:	48 8d 35 c1 19 00 00 	lea    0x19c1(%rip),%rsi        # e62e <g_599+0x15ce>
    cc6d:	48 89 c7             	mov    %rax,%rdi
    cc70:	e8 7e 9a ff ff       	callq  66f3 <transparent_crc>
    cc75:	c7 45 f0 00 00 00 00 	movl   $0x0,-0x10(%rbp)
    cc7c:	eb 46                	jmp    ccc4 <main+0x1699>
    cc7e:	8b 45 f0             	mov    -0x10(%rbp),%eax
    cc81:	48 98                	cltq   
    cc83:	48 8d 15 18 48 00 00 	lea    0x4818(%rip),%rdx        # 114a2 <g_2129>
    cc8a:	0f b6 04 10          	movzbl (%rax,%rdx,1),%eax
    cc8e:	48 0f be c0          	movsbq %al,%rax
    cc92:	8b 55 fc             	mov    -0x4(%rbp),%edx
    cc95:	48 8d 35 99 19 00 00 	lea    0x1999(%rip),%rsi        # e635 <g_599+0x15d5>
    cc9c:	48 89 c7             	mov    %rax,%rdi
    cc9f:	e8 4f 9a ff ff       	callq  66f3 <transparent_crc>
    cca4:	83 7d fc 00          	cmpl   $0x0,-0x4(%rbp)
    cca8:	74 16                	je     ccc0 <main+0x1695>
    ccaa:	8b 45 f0             	mov    -0x10(%rbp),%eax
    ccad:	89 c6                	mov    %eax,%esi
    ccaf:	48 8d 3d fd 15 00 00 	lea    0x15fd(%rip),%rdi        # e2b3 <g_599+0x1253>
    ccb6:	b8 00 00 00 00       	mov    $0x0,%eax
    ccbb:	e8 c0 83 ff ff       	callq  5080 <printf@plt>
    ccc0:	83 45 f0 01          	addl   $0x1,-0x10(%rbp)
    ccc4:	83 7d f0 00          	cmpl   $0x0,-0x10(%rbp)
    ccc8:	7e b4                	jle    cc7e <main+0x1653>
    ccca:	c7 45 f0 00 00 00 00 	movl   $0x0,-0x10(%rbp)
    ccd1:	eb 4d                	jmp    cd20 <main+0x16f5>
    ccd3:	8b 45 f0             	mov    -0x10(%rbp),%eax
    ccd6:	48 98                	cltq   
    ccd8:	48 8d 14 85 00 00 00 	lea    0x0(,%rax,4),%rdx
    ccdf:	00 
    cce0:	48 8d 05 c9 47 00 00 	lea    0x47c9(%rip),%rax        # 114b0 <g_2155>
    cce7:	8b 04 02             	mov    (%rdx,%rax,1),%eax
    ccea:	89 c1                	mov    %eax,%ecx
    ccec:	8b 45 fc             	mov    -0x4(%rbp),%eax
    ccef:	89 c2                	mov    %eax,%edx
    ccf1:	48 8d 35 47 19 00 00 	lea    0x1947(%rip),%rsi        # e63f <g_599+0x15df>
    ccf8:	48 89 cf             	mov    %rcx,%rdi
    ccfb:	e8 f3 99 ff ff       	callq  66f3 <transparent_crc>
    cd00:	83 7d fc 00          	cmpl   $0x0,-0x4(%rbp)
    cd04:	74 16                	je     cd1c <main+0x16f1>
    cd06:	8b 45 f0             	mov    -0x10(%rbp),%eax
    cd09:	89 c6                	mov    %eax,%esi
    cd0b:	48 8d 3d a1 15 00 00 	lea    0x15a1(%rip),%rdi        # e2b3 <g_599+0x1253>
    cd12:	b8 00 00 00 00       	mov    $0x0,%eax
    cd17:	e8 64 83 ff ff       	callq  5080 <printf@plt>
    cd1c:	83 45 f0 01          	addl   $0x1,-0x10(%rbp)
    cd20:	83 7d f0 04          	cmpl   $0x4,-0x10(%rbp)
    cd24:	7e ad                	jle    ccd3 <main+0x16a8>
    cd26:	0f b6 05 57 6c 00 00 	movzbl 0x6c57(%rip),%eax        # 13984 <g_2162>
    cd2d:	48 0f be c0          	movsbq %al,%rax
    cd31:	8b 55 fc             	mov    -0x4(%rbp),%edx
    cd34:	48 8d 35 0e 19 00 00 	lea    0x190e(%rip),%rsi        # e649 <g_599+0x15e9>
    cd3b:	48 89 c7             	mov    %rax,%rdi
    cd3e:	e8 b0 99 ff ff       	callq  66f3 <transparent_crc>
    cd43:	8b 05 d7 42 00 00    	mov    0x42d7(%rip),%eax        # 11020 <crc32_context>
    cd49:	f7 d0                	not    %eax
    cd4b:	89 c2                	mov    %eax,%edx
    cd4d:	8b 45 fc             	mov    -0x4(%rbp),%eax
    cd50:	89 c6                	mov    %eax,%esi
    cd52:	89 d7                	mov    %edx,%edi
    cd54:	e8 3b 84 ff ff       	callq  5194 <platform_main_end>
    cd59:	b8 00 00 00 00       	mov    $0x0,%eax
    cd5e:	c9                   	leaveq 
    cd5f:	c3                   	retq   

000000000000cd60 <__libc_csu_init>:
    cd60:	f3 0f 1e fa          	endbr64 
    cd64:	41 57                	push   %r15
    cd66:	4c 8d 3d 3b 40 00 00 	lea    0x403b(%rip),%r15        # 10da8 <__frame_dummy_init_array_entry>
    cd6d:	41 56                	push   %r14
    cd6f:	49 89 d6             	mov    %rdx,%r14
    cd72:	41 55                	push   %r13
    cd74:	49 89 f5             	mov    %rsi,%r13
    cd77:	41 54                	push   %r12
    cd79:	41 89 fc             	mov    %edi,%r12d
    cd7c:	55                   	push   %rbp
    cd7d:	48 8d 2d 2c 40 00 00 	lea    0x402c(%rip),%rbp        # 10db0 <__do_global_dtors_aux_fini_array_entry>
    cd84:	53                   	push   %rbx
    cd85:	4c 29 fd             	sub    %r15,%rbp
    cd88:	48 83 ec 08          	sub    $0x8,%rsp
    cd8c:	e8 6f 82 ff ff       	callq  5000 <_init>
    cd91:	48 c1 fd 03          	sar    $0x3,%rbp
    cd95:	74 1f                	je     cdb6 <__libc_csu_init+0x56>
    cd97:	31 db                	xor    %ebx,%ebx
    cd99:	0f 1f 80 00 00 00 00 	nopl   0x0(%rax)
    cda0:	4c 89 f2             	mov    %r14,%rdx
    cda3:	4c 89 ee             	mov    %r13,%rsi
    cda6:	44 89 e7             	mov    %r12d,%edi
    cda9:	41 ff 14 df          	callq  *(%r15,%rbx,8)
    cdad:	48 83 c3 01          	add    $0x1,%rbx
    cdb1:	48 39 dd             	cmp    %rbx,%rbp
    cdb4:	75 ea                	jne    cda0 <__libc_csu_init+0x40>
    cdb6:	48 83 c4 08          	add    $0x8,%rsp
    cdba:	5b                   	pop    %rbx
    cdbb:	5d                   	pop    %rbp
    cdbc:	41 5c                	pop    %r12
    cdbe:	41 5d                	pop    %r13
    cdc0:	41 5e                	pop    %r14
    cdc2:	41 5f                	pop    %r15
    cdc4:	c3                   	retq   
    cdc5:	66 66 2e 0f 1f 84 00 	data16 nopw %cs:0x0(%rax,%rax,1)
    cdcc:	00 00 00 00 

000000000000cdd0 <__libc_csu_fini>:
    cdd0:	f3 0f 1e fa          	endbr64 
    cdd4:	c3                   	retq   
