


Disassembly of section .text:

00000000000030a0 <_start>:
    30a0:	f3 0f 1e fa          	endbr64 
    30a4:	31 ed                	xor    %ebp,%ebp
    30a6:	49 89 d1             	mov    %rdx,%r9
    30a9:	5e                   	pop    %rsi
    30aa:	48 89 e2             	mov    %rsp,%rdx
    30ad:	48 83 e4 f0          	and    $0xfffffffffffffff0,%rsp
    30b1:	50                   	push   %rax
    30b2:	54                   	push   %rsp
    30b3:	4c 8d 05 96 5f 00 00 	lea    0x5f96(%rip),%r8        # 9050 <__libc_csu_fini>
    30ba:	48 8d 0d 1f 5f 00 00 	lea    0x5f1f(%rip),%rcx        # 8fe0 <__libc_csu_init>
    30c1:	48 8d 3d 44 52 00 00 	lea    0x5244(%rip),%rdi        # 830c <main>
    30c8:	ff 15 fa ae 00 00    	callq  *0xaefa(%rip)        # dfc8 <__libc_start_main@GLIBC_2.2.5>
    30ce:	f4                   	hlt    
    30cf:	90                   	nop

00000000000030d0 <deregister_tm_clones>:
    30d0:	48 8d 3d a1 ba 00 00 	lea    0xbaa1(%rip),%rdi        # eb78 <__TMC_END__>
    30d7:	48 8d 05 9a ba 00 00 	lea    0xba9a(%rip),%rax        # eb78 <__TMC_END__>
    30de:	48 39 f8             	cmp    %rdi,%rax
    30e1:	74 15                	je     30f8 <deregister_tm_clones+0x28>
    30e3:	48 8b 05 d6 ae 00 00 	mov    0xaed6(%rip),%rax        # dfc0 <_ITM_deregisterTMCloneTable>
    30ea:	48 85 c0             	test   %rax,%rax
    30ed:	74 09                	je     30f8 <deregister_tm_clones+0x28>
    30ef:	ff e0                	jmpq   *%rax
    30f1:	0f 1f 80 00 00 00 00 	nopl   0x0(%rax)
    30f8:	c3                   	retq   
    30f9:	0f 1f 80 00 00 00 00 	nopl   0x0(%rax)

0000000000003100 <register_tm_clones>:
    3100:	48 8d 3d 71 ba 00 00 	lea    0xba71(%rip),%rdi        # eb78 <__TMC_END__>
    3107:	48 8d 35 6a ba 00 00 	lea    0xba6a(%rip),%rsi        # eb78 <__TMC_END__>
    310e:	48 29 fe             	sub    %rdi,%rsi
    3111:	48 89 f0             	mov    %rsi,%rax
    3114:	48 c1 ee 3f          	shr    $0x3f,%rsi
    3118:	48 c1 f8 03          	sar    $0x3,%rax
    311c:	48 01 c6             	add    %rax,%rsi
    311f:	48 d1 fe             	sar    %rsi
    3122:	74 14                	je     3138 <register_tm_clones+0x38>
    3124:	48 8b 05 ad ae 00 00 	mov    0xaead(%rip),%rax        # dfd8 <_ITM_registerTMCloneTable>
    312b:	48 85 c0             	test   %rax,%rax
    312e:	74 08                	je     3138 <register_tm_clones+0x38>
    3130:	ff e0                	jmpq   *%rax
    3132:	66 0f 1f 44 00 00    	nopw   0x0(%rax,%rax,1)
    3138:	c3                   	retq   
    3139:	0f 1f 80 00 00 00 00 	nopl   0x0(%rax)

0000000000003140 <__do_global_dtors_aux>:
    3140:	f3 0f 1e fa          	endbr64 
    3144:	80 3d 35 ba 00 00 00 	cmpb   $0x0,0xba35(%rip)        # eb80 <completed.8061>
    314b:	75 2b                	jne    3178 <__do_global_dtors_aux+0x38>
    314d:	55                   	push   %rbp
    314e:	48 83 3d 8a ae 00 00 	cmpq   $0x0,0xae8a(%rip)        # dfe0 <__cxa_finalize@GLIBC_2.2.5>
    3155:	00 
    3156:	48 89 e5             	mov    %rsp,%rbp
    3159:	74 0c                	je     3167 <__do_global_dtors_aux+0x27>
    315b:	48 8b 3d a6 ae 00 00 	mov    0xaea6(%rip),%rdi        # e008 <__dso_handle>
    3162:	e8 f9 fe ff ff       	callq  3060 <__cxa_finalize@plt>
    3167:	e8 64 ff ff ff       	callq  30d0 <deregister_tm_clones>
    316c:	c6 05 0d ba 00 00 01 	movb   $0x1,0xba0d(%rip)        # eb80 <completed.8061>
    3173:	5d                   	pop    %rbp
    3174:	c3                   	retq   
    3175:	0f 1f 00             	nopl   (%rax)
    3178:	c3                   	retq   
    3179:	0f 1f 80 00 00 00 00 	nopl   0x0(%rax)

0000000000003180 <frame_dummy>:
    3180:	f3 0f 1e fa          	endbr64 
    3184:	e9 77 ff ff ff       	jmpq   3100 <register_tm_clones>

0000000000003189 <platform_main_begin>:
    3189:	f3 0f 1e fa          	endbr64 
    318d:	55                   	push   %rbp
    318e:	48 89 e5             	mov    %rsp,%rbp
    3191:	90                   	nop
    3192:	5d                   	pop    %rbp
    3193:	c3                   	retq   

0000000000003194 <platform_main_end>:
    3194:	f3 0f 1e fa          	endbr64 
    3198:	55                   	push   %rbp
    3199:	48 89 e5             	mov    %rsp,%rbp
    319c:	48 83 ec 10          	sub    $0x10,%rsp
    31a0:	89 7d fc             	mov    %edi,-0x4(%rbp)
    31a3:	89 75 f8             	mov    %esi,-0x8(%rbp)
    31a6:	8b 45 fc             	mov    -0x4(%rbp),%eax
    31a9:	89 c6                	mov    %eax,%esi
    31ab:	48 8d 3d 6e 6e 00 00 	lea    0x6e6e(%rip),%rdi        # a020 <_IO_stdin_used+0x20>
    31b2:	b8 00 00 00 00       	mov    $0x0,%eax
    31b7:	e8 c4 fe ff ff       	callq  3080 <printf@plt>
    31bc:	90                   	nop
    31bd:	c9                   	leaveq 
    31be:	c3                   	retq   

00000000000031bf <safe_unary_minus_func_int8_t_s>:
    31bf:	f3 0f 1e fa          	endbr64 
    31c3:	55                   	push   %rbp
    31c4:	48 89 e5             	mov    %rsp,%rbp
    31c7:	89 f8                	mov    %edi,%eax
    31c9:	88 45 fc             	mov    %al,-0x4(%rbp)
    31cc:	0f b6 45 fc          	movzbl -0x4(%rbp),%eax
    31d0:	f7 d8                	neg    %eax
    31d2:	5d                   	pop    %rbp
    31d3:	c3                   	retq   

00000000000031d4 <safe_add_func_int8_t_s_s>:
    31d4:	f3 0f 1e fa          	endbr64 
    31d8:	55                   	push   %rbp
    31d9:	48 89 e5             	mov    %rsp,%rbp
    31dc:	89 fa                	mov    %edi,%edx
    31de:	89 f0                	mov    %esi,%eax
    31e0:	88 55 fc             	mov    %dl,-0x4(%rbp)
    31e3:	88 45 f8             	mov    %al,-0x8(%rbp)
    31e6:	0f b6 55 fc          	movzbl -0x4(%rbp),%edx
    31ea:	0f b6 45 f8          	movzbl -0x8(%rbp),%eax
    31ee:	01 d0                	add    %edx,%eax
    31f0:	5d                   	pop    %rbp
    31f1:	c3                   	retq   

00000000000031f2 <safe_sub_func_int8_t_s_s>:
    31f2:	f3 0f 1e fa          	endbr64 
    31f6:	55                   	push   %rbp
    31f7:	48 89 e5             	mov    %rsp,%rbp
    31fa:	89 fa                	mov    %edi,%edx
    31fc:	89 f0                	mov    %esi,%eax
    31fe:	88 55 fc             	mov    %dl,-0x4(%rbp)
    3201:	88 45 f8             	mov    %al,-0x8(%rbp)
    3204:	0f b6 55 fc          	movzbl -0x4(%rbp),%edx
    3208:	0f b6 45 f8          	movzbl -0x8(%rbp),%eax
    320c:	29 c2                	sub    %eax,%edx
    320e:	89 d0                	mov    %edx,%eax
    3210:	5d                   	pop    %rbp
    3211:	c3                   	retq   

0000000000003212 <safe_mul_func_int8_t_s_s>:
    3212:	f3 0f 1e fa          	endbr64 
    3216:	55                   	push   %rbp
    3217:	48 89 e5             	mov    %rsp,%rbp
    321a:	89 fa                	mov    %edi,%edx
    321c:	89 f0                	mov    %esi,%eax
    321e:	88 55 fc             	mov    %dl,-0x4(%rbp)
    3221:	88 45 f8             	mov    %al,-0x8(%rbp)
    3224:	0f b6 45 fc          	movzbl -0x4(%rbp),%eax
    3228:	0f b6 55 f8          	movzbl -0x8(%rbp),%edx
    322c:	0f af c2             	imul   %edx,%eax
    322f:	5d                   	pop    %rbp
    3230:	c3                   	retq   

0000000000003231 <safe_mod_func_int8_t_s_s>:
    3231:	f3 0f 1e fa          	endbr64 
    3235:	55                   	push   %rbp
    3236:	48 89 e5             	mov    %rsp,%rbp
    3239:	89 fa                	mov    %edi,%edx
    323b:	89 f0                	mov    %esi,%eax
    323d:	88 55 fc             	mov    %dl,-0x4(%rbp)
    3240:	88 45 f8             	mov    %al,-0x8(%rbp)
    3243:	80 7d f8 00          	cmpb   $0x0,-0x8(%rbp)
    3247:	74 1b                	je     3264 <safe_mod_func_int8_t_s_s+0x33>
    3249:	80 7d fc 80          	cmpb   $0x80,-0x4(%rbp)
    324d:	75 06                	jne    3255 <safe_mod_func_int8_t_s_s+0x24>
    324f:	80 7d f8 ff          	cmpb   $0xff,-0x8(%rbp)
    3253:	74 0f                	je     3264 <safe_mod_func_int8_t_s_s+0x33>
    3255:	0f be 45 fc          	movsbl -0x4(%rbp),%eax
    3259:	0f be 4d f8          	movsbl -0x8(%rbp),%ecx
    325d:	99                   	cltd   
    325e:	f7 f9                	idiv   %ecx
    3260:	89 d0                	mov    %edx,%eax
    3262:	eb 04                	jmp    3268 <safe_mod_func_int8_t_s_s+0x37>
    3264:	0f b6 45 fc          	movzbl -0x4(%rbp),%eax
    3268:	5d                   	pop    %rbp
    3269:	c3                   	retq   

000000000000326a <safe_div_func_int8_t_s_s>:
    326a:	f3 0f 1e fa          	endbr64 
    326e:	55                   	push   %rbp
    326f:	48 89 e5             	mov    %rsp,%rbp
    3272:	89 fa                	mov    %edi,%edx
    3274:	89 f0                	mov    %esi,%eax
    3276:	88 55 fc             	mov    %dl,-0x4(%rbp)
    3279:	88 45 f8             	mov    %al,-0x8(%rbp)
    327c:	80 7d f8 00          	cmpb   $0x0,-0x8(%rbp)
    3280:	74 19                	je     329b <safe_div_func_int8_t_s_s+0x31>
    3282:	80 7d fc 80          	cmpb   $0x80,-0x4(%rbp)
    3286:	75 06                	jne    328e <safe_div_func_int8_t_s_s+0x24>
    3288:	80 7d f8 ff          	cmpb   $0xff,-0x8(%rbp)
    328c:	74 0d                	je     329b <safe_div_func_int8_t_s_s+0x31>
    328e:	0f be 45 fc          	movsbl -0x4(%rbp),%eax
    3292:	0f be 4d f8          	movsbl -0x8(%rbp),%ecx
    3296:	99                   	cltd   
    3297:	f7 f9                	idiv   %ecx
    3299:	eb 04                	jmp    329f <safe_div_func_int8_t_s_s+0x35>
    329b:	0f b6 45 fc          	movzbl -0x4(%rbp),%eax
    329f:	5d                   	pop    %rbp
    32a0:	c3                   	retq   

00000000000032a1 <safe_lshift_func_int8_t_s_s>:
    32a1:	f3 0f 1e fa          	endbr64 
    32a5:	55                   	push   %rbp
    32a6:	48 89 e5             	mov    %rsp,%rbp
    32a9:	89 f8                	mov    %edi,%eax
    32ab:	89 75 f8             	mov    %esi,-0x8(%rbp)
    32ae:	88 45 fc             	mov    %al,-0x4(%rbp)
    32b1:	80 7d fc 00          	cmpb   $0x0,-0x4(%rbp)
    32b5:	78 31                	js     32e8 <safe_lshift_func_int8_t_s_s+0x47>
    32b7:	83 7d f8 00          	cmpl   $0x0,-0x8(%rbp)
    32bb:	78 2b                	js     32e8 <safe_lshift_func_int8_t_s_s+0x47>
    32bd:	83 7d f8 1f          	cmpl   $0x1f,-0x8(%rbp)
    32c1:	7f 25                	jg     32e8 <safe_lshift_func_int8_t_s_s+0x47>
    32c3:	0f be 55 fc          	movsbl -0x4(%rbp),%edx
    32c7:	8b 45 f8             	mov    -0x8(%rbp),%eax
    32ca:	be 7f 00 00 00       	mov    $0x7f,%esi
    32cf:	89 c1                	mov    %eax,%ecx
    32d1:	d3 fe                	sar    %cl,%esi
    32d3:	89 f0                	mov    %esi,%eax
    32d5:	39 c2                	cmp    %eax,%edx
    32d7:	7f 0f                	jg     32e8 <safe_lshift_func_int8_t_s_s+0x47>
    32d9:	0f be 55 fc          	movsbl -0x4(%rbp),%edx
    32dd:	8b 45 f8             	mov    -0x8(%rbp),%eax
    32e0:	89 c1                	mov    %eax,%ecx
    32e2:	d3 e2                	shl    %cl,%edx
    32e4:	89 d0                	mov    %edx,%eax
    32e6:	eb 04                	jmp    32ec <safe_lshift_func_int8_t_s_s+0x4b>
    32e8:	0f b6 45 fc          	movzbl -0x4(%rbp),%eax
    32ec:	5d                   	pop    %rbp
    32ed:	c3                   	retq   

00000000000032ee <safe_lshift_func_int8_t_s_u>:
    32ee:	f3 0f 1e fa          	endbr64 
    32f2:	55                   	push   %rbp
    32f3:	48 89 e5             	mov    %rsp,%rbp
    32f6:	89 f8                	mov    %edi,%eax
    32f8:	89 75 f8             	mov    %esi,-0x8(%rbp)
    32fb:	88 45 fc             	mov    %al,-0x4(%rbp)
    32fe:	80 7d fc 00          	cmpb   $0x0,-0x4(%rbp)
    3302:	78 2b                	js     332f <safe_lshift_func_int8_t_s_u+0x41>
    3304:	83 7d f8 1f          	cmpl   $0x1f,-0x8(%rbp)
    3308:	77 25                	ja     332f <safe_lshift_func_int8_t_s_u+0x41>
    330a:	0f be 55 fc          	movsbl -0x4(%rbp),%edx
    330e:	8b 45 f8             	mov    -0x8(%rbp),%eax
    3311:	be 7f 00 00 00       	mov    $0x7f,%esi
    3316:	89 c1                	mov    %eax,%ecx
    3318:	d3 fe                	sar    %cl,%esi
    331a:	89 f0                	mov    %esi,%eax
    331c:	39 c2                	cmp    %eax,%edx
    331e:	7f 0f                	jg     332f <safe_lshift_func_int8_t_s_u+0x41>
    3320:	0f be 55 fc          	movsbl -0x4(%rbp),%edx
    3324:	8b 45 f8             	mov    -0x8(%rbp),%eax
    3327:	89 c1                	mov    %eax,%ecx
    3329:	d3 e2                	shl    %cl,%edx
    332b:	89 d0                	mov    %edx,%eax
    332d:	eb 04                	jmp    3333 <safe_lshift_func_int8_t_s_u+0x45>
    332f:	0f b6 45 fc          	movzbl -0x4(%rbp),%eax
    3333:	5d                   	pop    %rbp
    3334:	c3                   	retq   

0000000000003335 <safe_rshift_func_int8_t_s_s>:
    3335:	f3 0f 1e fa          	endbr64 
    3339:	55                   	push   %rbp
    333a:	48 89 e5             	mov    %rsp,%rbp
    333d:	89 f8                	mov    %edi,%eax
    333f:	89 75 f8             	mov    %esi,-0x8(%rbp)
    3342:	88 45 fc             	mov    %al,-0x4(%rbp)
    3345:	80 7d fc 00          	cmpb   $0x0,-0x4(%rbp)
    3349:	78 1b                	js     3366 <safe_rshift_func_int8_t_s_s+0x31>
    334b:	83 7d f8 00          	cmpl   $0x0,-0x8(%rbp)
    334f:	78 15                	js     3366 <safe_rshift_func_int8_t_s_s+0x31>
    3351:	83 7d f8 1f          	cmpl   $0x1f,-0x8(%rbp)
    3355:	7f 0f                	jg     3366 <safe_rshift_func_int8_t_s_s+0x31>
    3357:	0f be 55 fc          	movsbl -0x4(%rbp),%edx
    335b:	8b 45 f8             	mov    -0x8(%rbp),%eax
    335e:	89 c1                	mov    %eax,%ecx
    3360:	d3 fa                	sar    %cl,%edx
    3362:	89 d0                	mov    %edx,%eax
    3364:	eb 04                	jmp    336a <safe_rshift_func_int8_t_s_s+0x35>
    3366:	0f b6 45 fc          	movzbl -0x4(%rbp),%eax
    336a:	5d                   	pop    %rbp
    336b:	c3                   	retq   

000000000000336c <safe_rshift_func_int8_t_s_u>:
    336c:	f3 0f 1e fa          	endbr64 
    3370:	55                   	push   %rbp
    3371:	48 89 e5             	mov    %rsp,%rbp
    3374:	89 f8                	mov    %edi,%eax
    3376:	89 75 f8             	mov    %esi,-0x8(%rbp)
    3379:	88 45 fc             	mov    %al,-0x4(%rbp)
    337c:	80 7d fc 00          	cmpb   $0x0,-0x4(%rbp)
    3380:	78 15                	js     3397 <safe_rshift_func_int8_t_s_u+0x2b>
    3382:	83 7d f8 1f          	cmpl   $0x1f,-0x8(%rbp)
    3386:	77 0f                	ja     3397 <safe_rshift_func_int8_t_s_u+0x2b>
    3388:	0f be 55 fc          	movsbl -0x4(%rbp),%edx
    338c:	8b 45 f8             	mov    -0x8(%rbp),%eax
    338f:	89 c1                	mov    %eax,%ecx
    3391:	d3 fa                	sar    %cl,%edx
    3393:	89 d0                	mov    %edx,%eax
    3395:	eb 04                	jmp    339b <safe_rshift_func_int8_t_s_u+0x2f>
    3397:	0f b6 45 fc          	movzbl -0x4(%rbp),%eax
    339b:	5d                   	pop    %rbp
    339c:	c3                   	retq   

000000000000339d <safe_unary_minus_func_int16_t_s>:
    339d:	f3 0f 1e fa          	endbr64 
    33a1:	55                   	push   %rbp
    33a2:	48 89 e5             	mov    %rsp,%rbp
    33a5:	89 f8                	mov    %edi,%eax
    33a7:	66 89 45 fc          	mov    %ax,-0x4(%rbp)
    33ab:	0f b7 45 fc          	movzwl -0x4(%rbp),%eax
    33af:	f7 d8                	neg    %eax
    33b1:	5d                   	pop    %rbp
    33b2:	c3                   	retq   

00000000000033b3 <safe_add_func_int16_t_s_s>:
    33b3:	f3 0f 1e fa          	endbr64 
    33b7:	55                   	push   %rbp
    33b8:	48 89 e5             	mov    %rsp,%rbp
    33bb:	89 fa                	mov    %edi,%edx
    33bd:	89 f0                	mov    %esi,%eax
    33bf:	66 89 55 fc          	mov    %dx,-0x4(%rbp)
    33c3:	66 89 45 f8          	mov    %ax,-0x8(%rbp)
    33c7:	0f b7 55 fc          	movzwl -0x4(%rbp),%edx
    33cb:	0f b7 45 f8          	movzwl -0x8(%rbp),%eax
    33cf:	01 d0                	add    %edx,%eax
    33d1:	5d                   	pop    %rbp
    33d2:	c3                   	retq   

00000000000033d3 <safe_sub_func_int16_t_s_s>:
    33d3:	f3 0f 1e fa          	endbr64 
    33d7:	55                   	push   %rbp
    33d8:	48 89 e5             	mov    %rsp,%rbp
    33db:	89 fa                	mov    %edi,%edx
    33dd:	89 f0                	mov    %esi,%eax
    33df:	66 89 55 fc          	mov    %dx,-0x4(%rbp)
    33e3:	66 89 45 f8          	mov    %ax,-0x8(%rbp)
    33e7:	0f b7 55 fc          	movzwl -0x4(%rbp),%edx
    33eb:	0f b7 45 f8          	movzwl -0x8(%rbp),%eax
    33ef:	29 c2                	sub    %eax,%edx
    33f1:	89 d0                	mov    %edx,%eax
    33f3:	5d                   	pop    %rbp
    33f4:	c3                   	retq   

00000000000033f5 <safe_mul_func_int16_t_s_s>:
    33f5:	f3 0f 1e fa          	endbr64 
    33f9:	55                   	push   %rbp
    33fa:	48 89 e5             	mov    %rsp,%rbp
    33fd:	89 fa                	mov    %edi,%edx
    33ff:	89 f0                	mov    %esi,%eax
    3401:	66 89 55 fc          	mov    %dx,-0x4(%rbp)
    3405:	66 89 45 f8          	mov    %ax,-0x8(%rbp)
    3409:	0f b7 55 fc          	movzwl -0x4(%rbp),%edx
    340d:	0f b7 45 f8          	movzwl -0x8(%rbp),%eax
    3411:	0f af c2             	imul   %edx,%eax
    3414:	5d                   	pop    %rbp
    3415:	c3                   	retq   

0000000000003416 <safe_mod_func_int16_t_s_s>:
    3416:	f3 0f 1e fa          	endbr64 
    341a:	55                   	push   %rbp
    341b:	48 89 e5             	mov    %rsp,%rbp
    341e:	89 fa                	mov    %edi,%edx
    3420:	89 f0                	mov    %esi,%eax
    3422:	66 89 55 fc          	mov    %dx,-0x4(%rbp)
    3426:	66 89 45 f8          	mov    %ax,-0x8(%rbp)
    342a:	66 83 7d f8 00       	cmpw   $0x0,-0x8(%rbp)
    342f:	74 1e                	je     344f <safe_mod_func_int16_t_s_s+0x39>
    3431:	66 81 7d fc 00 80    	cmpw   $0x8000,-0x4(%rbp)
    3437:	75 07                	jne    3440 <safe_mod_func_int16_t_s_s+0x2a>
    3439:	66 83 7d f8 ff       	cmpw   $0xffff,-0x8(%rbp)
    343e:	74 0f                	je     344f <safe_mod_func_int16_t_s_s+0x39>
    3440:	0f bf 45 fc          	movswl -0x4(%rbp),%eax
    3444:	0f bf 4d f8          	movswl -0x8(%rbp),%ecx
    3448:	99                   	cltd   
    3449:	f7 f9                	idiv   %ecx
    344b:	89 d0                	mov    %edx,%eax
    344d:	eb 04                	jmp    3453 <safe_mod_func_int16_t_s_s+0x3d>
    344f:	0f b7 45 fc          	movzwl -0x4(%rbp),%eax
    3453:	5d                   	pop    %rbp
    3454:	c3                   	retq   

0000000000003455 <safe_div_func_int16_t_s_s>:
    3455:	f3 0f 1e fa          	endbr64 
    3459:	55                   	push   %rbp
    345a:	48 89 e5             	mov    %rsp,%rbp
    345d:	89 fa                	mov    %edi,%edx
    345f:	89 f0                	mov    %esi,%eax
    3461:	66 89 55 fc          	mov    %dx,-0x4(%rbp)
    3465:	66 89 45 f8          	mov    %ax,-0x8(%rbp)
    3469:	66 83 7d f8 00       	cmpw   $0x0,-0x8(%rbp)
    346e:	74 1c                	je     348c <safe_div_func_int16_t_s_s+0x37>
    3470:	66 81 7d fc 00 80    	cmpw   $0x8000,-0x4(%rbp)
    3476:	75 07                	jne    347f <safe_div_func_int16_t_s_s+0x2a>
    3478:	66 83 7d f8 ff       	cmpw   $0xffff,-0x8(%rbp)
    347d:	74 0d                	je     348c <safe_div_func_int16_t_s_s+0x37>
    347f:	0f bf 45 fc          	movswl -0x4(%rbp),%eax
    3483:	0f bf 4d f8          	movswl -0x8(%rbp),%ecx
    3487:	99                   	cltd   
    3488:	f7 f9                	idiv   %ecx
    348a:	eb 04                	jmp    3490 <safe_div_func_int16_t_s_s+0x3b>
    348c:	0f b7 45 fc          	movzwl -0x4(%rbp),%eax
    3490:	5d                   	pop    %rbp
    3491:	c3                   	retq   

0000000000003492 <safe_lshift_func_int16_t_s_s>:
    3492:	f3 0f 1e fa          	endbr64 
    3496:	55                   	push   %rbp
    3497:	48 89 e5             	mov    %rsp,%rbp
    349a:	89 f8                	mov    %edi,%eax
    349c:	89 75 f8             	mov    %esi,-0x8(%rbp)
    349f:	66 89 45 fc          	mov    %ax,-0x4(%rbp)
    34a3:	66 83 7d fc 00       	cmpw   $0x0,-0x4(%rbp)
    34a8:	78 31                	js     34db <safe_lshift_func_int16_t_s_s+0x49>
    34aa:	83 7d f8 00          	cmpl   $0x0,-0x8(%rbp)
    34ae:	78 2b                	js     34db <safe_lshift_func_int16_t_s_s+0x49>
    34b0:	83 7d f8 1f          	cmpl   $0x1f,-0x8(%rbp)
    34b4:	7f 25                	jg     34db <safe_lshift_func_int16_t_s_s+0x49>
    34b6:	0f bf 55 fc          	movswl -0x4(%rbp),%edx
    34ba:	8b 45 f8             	mov    -0x8(%rbp),%eax
    34bd:	be ff 7f 00 00       	mov    $0x7fff,%esi
    34c2:	89 c1                	mov    %eax,%ecx
    34c4:	d3 fe                	sar    %cl,%esi
    34c6:	89 f0                	mov    %esi,%eax
    34c8:	39 c2                	cmp    %eax,%edx
    34ca:	7f 0f                	jg     34db <safe_lshift_func_int16_t_s_s+0x49>
    34cc:	0f bf 55 fc          	movswl -0x4(%rbp),%edx
    34d0:	8b 45 f8             	mov    -0x8(%rbp),%eax
    34d3:	89 c1                	mov    %eax,%ecx
    34d5:	d3 e2                	shl    %cl,%edx
    34d7:	89 d0                	mov    %edx,%eax
    34d9:	eb 04                	jmp    34df <safe_lshift_func_int16_t_s_s+0x4d>
    34db:	0f b7 45 fc          	movzwl -0x4(%rbp),%eax
    34df:	5d                   	pop    %rbp
    34e0:	c3                   	retq   

00000000000034e1 <safe_lshift_func_int16_t_s_u>:
    34e1:	f3 0f 1e fa          	endbr64 
    34e5:	55                   	push   %rbp
    34e6:	48 89 e5             	mov    %rsp,%rbp
    34e9:	89 f8                	mov    %edi,%eax
    34eb:	89 75 f8             	mov    %esi,-0x8(%rbp)
    34ee:	66 89 45 fc          	mov    %ax,-0x4(%rbp)
    34f2:	66 83 7d fc 00       	cmpw   $0x0,-0x4(%rbp)
    34f7:	78 2b                	js     3524 <safe_lshift_func_int16_t_s_u+0x43>
    34f9:	83 7d f8 1f          	cmpl   $0x1f,-0x8(%rbp)
    34fd:	77 25                	ja     3524 <safe_lshift_func_int16_t_s_u+0x43>
    34ff:	0f bf 55 fc          	movswl -0x4(%rbp),%edx
    3503:	8b 45 f8             	mov    -0x8(%rbp),%eax
    3506:	be ff 7f 00 00       	mov    $0x7fff,%esi
    350b:	89 c1                	mov    %eax,%ecx
    350d:	d3 fe                	sar    %cl,%esi
    350f:	89 f0                	mov    %esi,%eax
    3511:	39 c2                	cmp    %eax,%edx
    3513:	7f 0f                	jg     3524 <safe_lshift_func_int16_t_s_u+0x43>
    3515:	0f bf 55 fc          	movswl -0x4(%rbp),%edx
    3519:	8b 45 f8             	mov    -0x8(%rbp),%eax
    351c:	89 c1                	mov    %eax,%ecx
    351e:	d3 e2                	shl    %cl,%edx
    3520:	89 d0                	mov    %edx,%eax
    3522:	eb 04                	jmp    3528 <safe_lshift_func_int16_t_s_u+0x47>
    3524:	0f b7 45 fc          	movzwl -0x4(%rbp),%eax
    3528:	5d                   	pop    %rbp
    3529:	c3                   	retq   

000000000000352a <safe_rshift_func_int16_t_s_s>:
    352a:	f3 0f 1e fa          	endbr64 
    352e:	55                   	push   %rbp
    352f:	48 89 e5             	mov    %rsp,%rbp
    3532:	89 f8                	mov    %edi,%eax
    3534:	89 75 f8             	mov    %esi,-0x8(%rbp)
    3537:	66 89 45 fc          	mov    %ax,-0x4(%rbp)
    353b:	66 83 7d fc 00       	cmpw   $0x0,-0x4(%rbp)
    3540:	78 1b                	js     355d <safe_rshift_func_int16_t_s_s+0x33>
    3542:	83 7d f8 00          	cmpl   $0x0,-0x8(%rbp)
    3546:	78 15                	js     355d <safe_rshift_func_int16_t_s_s+0x33>
    3548:	83 7d f8 1f          	cmpl   $0x1f,-0x8(%rbp)
    354c:	7f 0f                	jg     355d <safe_rshift_func_int16_t_s_s+0x33>
    354e:	0f bf 55 fc          	movswl -0x4(%rbp),%edx
    3552:	8b 45 f8             	mov    -0x8(%rbp),%eax
    3555:	89 c1                	mov    %eax,%ecx
    3557:	d3 fa                	sar    %cl,%edx
    3559:	89 d0                	mov    %edx,%eax
    355b:	eb 04                	jmp    3561 <safe_rshift_func_int16_t_s_s+0x37>
    355d:	0f b7 45 fc          	movzwl -0x4(%rbp),%eax
    3561:	5d                   	pop    %rbp
    3562:	c3                   	retq   

0000000000003563 <safe_rshift_func_int16_t_s_u>:
    3563:	f3 0f 1e fa          	endbr64 
    3567:	55                   	push   %rbp
    3568:	48 89 e5             	mov    %rsp,%rbp
    356b:	89 f8                	mov    %edi,%eax
    356d:	89 75 f8             	mov    %esi,-0x8(%rbp)
    3570:	66 89 45 fc          	mov    %ax,-0x4(%rbp)
    3574:	66 83 7d fc 00       	cmpw   $0x0,-0x4(%rbp)
    3579:	78 15                	js     3590 <safe_rshift_func_int16_t_s_u+0x2d>
    357b:	83 7d f8 1f          	cmpl   $0x1f,-0x8(%rbp)
    357f:	77 0f                	ja     3590 <safe_rshift_func_int16_t_s_u+0x2d>
    3581:	0f bf 55 fc          	movswl -0x4(%rbp),%edx
    3585:	8b 45 f8             	mov    -0x8(%rbp),%eax
    3588:	89 c1                	mov    %eax,%ecx
    358a:	d3 fa                	sar    %cl,%edx
    358c:	89 d0                	mov    %edx,%eax
    358e:	eb 04                	jmp    3594 <safe_rshift_func_int16_t_s_u+0x31>
    3590:	0f b7 45 fc          	movzwl -0x4(%rbp),%eax
    3594:	5d                   	pop    %rbp
    3595:	c3                   	retq   

0000000000003596 <safe_unary_minus_func_int32_t_s>:
    3596:	f3 0f 1e fa          	endbr64 
    359a:	55                   	push   %rbp
    359b:	48 89 e5             	mov    %rsp,%rbp
    359e:	89 7d fc             	mov    %edi,-0x4(%rbp)
    35a1:	81 7d fc 00 00 00 80 	cmpl   $0x80000000,-0x4(%rbp)
    35a8:	74 07                	je     35b1 <safe_unary_minus_func_int32_t_s+0x1b>
    35aa:	8b 45 fc             	mov    -0x4(%rbp),%eax
    35ad:	f7 d8                	neg    %eax
    35af:	eb 03                	jmp    35b4 <safe_unary_minus_func_int32_t_s+0x1e>
    35b1:	8b 45 fc             	mov    -0x4(%rbp),%eax
    35b4:	5d                   	pop    %rbp
    35b5:	c3                   	retq   

00000000000035b6 <safe_add_func_int32_t_s_s>:
    35b6:	f3 0f 1e fa          	endbr64 
    35ba:	55                   	push   %rbp
    35bb:	48 89 e5             	mov    %rsp,%rbp
    35be:	89 7d fc             	mov    %edi,-0x4(%rbp)
    35c1:	89 75 f8             	mov    %esi,-0x8(%rbp)
    35c4:	83 7d fc 00          	cmpl   $0x0,-0x4(%rbp)
    35c8:	7e 13                	jle    35dd <safe_add_func_int32_t_s_s+0x27>
    35ca:	83 7d f8 00          	cmpl   $0x0,-0x8(%rbp)
    35ce:	7e 0d                	jle    35dd <safe_add_func_int32_t_s_s+0x27>
    35d0:	b8 ff ff ff 7f       	mov    $0x7fffffff,%eax
    35d5:	2b 45 f8             	sub    -0x8(%rbp),%eax
    35d8:	39 45 fc             	cmp    %eax,-0x4(%rbp)
    35db:	7f 23                	jg     3600 <safe_add_func_int32_t_s_s+0x4a>
    35dd:	83 7d fc 00          	cmpl   $0x0,-0x4(%rbp)
    35e1:	79 13                	jns    35f6 <safe_add_func_int32_t_s_s+0x40>
    35e3:	83 7d f8 00          	cmpl   $0x0,-0x8(%rbp)
    35e7:	79 0d                	jns    35f6 <safe_add_func_int32_t_s_s+0x40>
    35e9:	b8 00 00 00 80       	mov    $0x80000000,%eax
    35ee:	2b 45 f8             	sub    -0x8(%rbp),%eax
    35f1:	39 45 fc             	cmp    %eax,-0x4(%rbp)
    35f4:	7c 0a                	jl     3600 <safe_add_func_int32_t_s_s+0x4a>
    35f6:	8b 55 fc             	mov    -0x4(%rbp),%edx
    35f9:	8b 45 f8             	mov    -0x8(%rbp),%eax
    35fc:	01 d0                	add    %edx,%eax
    35fe:	eb 03                	jmp    3603 <safe_add_func_int32_t_s_s+0x4d>
    3600:	8b 45 fc             	mov    -0x4(%rbp),%eax
    3603:	5d                   	pop    %rbp
    3604:	c3                   	retq   

0000000000003605 <safe_sub_func_int32_t_s_s>:
    3605:	f3 0f 1e fa          	endbr64 
    3609:	55                   	push   %rbp
    360a:	48 89 e5             	mov    %rsp,%rbp
    360d:	89 7d fc             	mov    %edi,-0x4(%rbp)
    3610:	89 75 f8             	mov    %esi,-0x8(%rbp)
    3613:	8b 45 fc             	mov    -0x4(%rbp),%eax
    3616:	33 45 f8             	xor    -0x8(%rbp),%eax
    3619:	89 c2                	mov    %eax,%edx
    361b:	8b 45 fc             	mov    -0x4(%rbp),%eax
    361e:	33 45 f8             	xor    -0x8(%rbp),%eax
    3621:	25 00 00 00 80       	and    $0x80000000,%eax
    3626:	33 45 fc             	xor    -0x4(%rbp),%eax
    3629:	2b 45 f8             	sub    -0x8(%rbp),%eax
    362c:	33 45 f8             	xor    -0x8(%rbp),%eax
    362f:	21 d0                	and    %edx,%eax
    3631:	85 c0                	test   %eax,%eax
    3633:	78 08                	js     363d <safe_sub_func_int32_t_s_s+0x38>
    3635:	8b 45 fc             	mov    -0x4(%rbp),%eax
    3638:	2b 45 f8             	sub    -0x8(%rbp),%eax
    363b:	eb 03                	jmp    3640 <safe_sub_func_int32_t_s_s+0x3b>
    363d:	8b 45 fc             	mov    -0x4(%rbp),%eax
    3640:	5d                   	pop    %rbp
    3641:	c3                   	retq   

0000000000003642 <safe_mul_func_int32_t_s_s>:
    3642:	f3 0f 1e fa          	endbr64 
    3646:	55                   	push   %rbp
    3647:	48 89 e5             	mov    %rsp,%rbp
    364a:	89 7d fc             	mov    %edi,-0x4(%rbp)
    364d:	89 75 f8             	mov    %esi,-0x8(%rbp)
    3650:	83 7d fc 00          	cmpl   $0x0,-0x4(%rbp)
    3654:	7e 14                	jle    366a <safe_mul_func_int32_t_s_s+0x28>
    3656:	83 7d f8 00          	cmpl   $0x0,-0x8(%rbp)
    365a:	7e 0e                	jle    366a <safe_mul_func_int32_t_s_s+0x28>
    365c:	b8 ff ff ff 7f       	mov    $0x7fffffff,%eax
    3661:	99                   	cltd   
    3662:	f7 7d f8             	idivl  -0x8(%rbp)
    3665:	39 45 fc             	cmp    %eax,-0x4(%rbp)
    3668:	7f 5d                	jg     36c7 <safe_mul_func_int32_t_s_s+0x85>
    366a:	83 7d fc 00          	cmpl   $0x0,-0x4(%rbp)
    366e:	7e 14                	jle    3684 <safe_mul_func_int32_t_s_s+0x42>
    3670:	83 7d f8 00          	cmpl   $0x0,-0x8(%rbp)
    3674:	7f 0e                	jg     3684 <safe_mul_func_int32_t_s_s+0x42>
    3676:	b8 00 00 00 80       	mov    $0x80000000,%eax
    367b:	99                   	cltd   
    367c:	f7 7d fc             	idivl  -0x4(%rbp)
    367f:	39 45 f8             	cmp    %eax,-0x8(%rbp)
    3682:	7c 43                	jl     36c7 <safe_mul_func_int32_t_s_s+0x85>
    3684:	83 7d fc 00          	cmpl   $0x0,-0x4(%rbp)
    3688:	7f 14                	jg     369e <safe_mul_func_int32_t_s_s+0x5c>
    368a:	83 7d f8 00          	cmpl   $0x0,-0x8(%rbp)
    368e:	7e 0e                	jle    369e <safe_mul_func_int32_t_s_s+0x5c>
    3690:	b8 00 00 00 80       	mov    $0x80000000,%eax
    3695:	99                   	cltd   
    3696:	f7 7d f8             	idivl  -0x8(%rbp)
    3699:	39 45 fc             	cmp    %eax,-0x4(%rbp)
    369c:	7c 29                	jl     36c7 <safe_mul_func_int32_t_s_s+0x85>
    369e:	83 7d fc 00          	cmpl   $0x0,-0x4(%rbp)
    36a2:	7f 1a                	jg     36be <safe_mul_func_int32_t_s_s+0x7c>
    36a4:	83 7d f8 00          	cmpl   $0x0,-0x8(%rbp)
    36a8:	7f 14                	jg     36be <safe_mul_func_int32_t_s_s+0x7c>
    36aa:	83 7d fc 00          	cmpl   $0x0,-0x4(%rbp)
    36ae:	74 0e                	je     36be <safe_mul_func_int32_t_s_s+0x7c>
    36b0:	b8 ff ff ff 7f       	mov    $0x7fffffff,%eax
    36b5:	99                   	cltd   
    36b6:	f7 7d fc             	idivl  -0x4(%rbp)
    36b9:	39 45 f8             	cmp    %eax,-0x8(%rbp)
    36bc:	7c 09                	jl     36c7 <safe_mul_func_int32_t_s_s+0x85>
    36be:	8b 45 fc             	mov    -0x4(%rbp),%eax
    36c1:	0f af 45 f8          	imul   -0x8(%rbp),%eax
    36c5:	eb 03                	jmp    36ca <safe_mul_func_int32_t_s_s+0x88>
    36c7:	8b 45 fc             	mov    -0x4(%rbp),%eax
    36ca:	5d                   	pop    %rbp
    36cb:	c3                   	retq   

00000000000036cc <safe_mod_func_int32_t_s_s>:
    36cc:	f3 0f 1e fa          	endbr64 
    36d0:	55                   	push   %rbp
    36d1:	48 89 e5             	mov    %rsp,%rbp
    36d4:	89 7d fc             	mov    %edi,-0x4(%rbp)
    36d7:	89 75 f8             	mov    %esi,-0x8(%rbp)
    36da:	83 7d f8 00          	cmpl   $0x0,-0x8(%rbp)
    36de:	74 1a                	je     36fa <safe_mod_func_int32_t_s_s+0x2e>
    36e0:	81 7d fc 00 00 00 80 	cmpl   $0x80000000,-0x4(%rbp)
    36e7:	75 06                	jne    36ef <safe_mod_func_int32_t_s_s+0x23>
    36e9:	83 7d f8 ff          	cmpl   $0xffffffff,-0x8(%rbp)
    36ed:	74 0b                	je     36fa <safe_mod_func_int32_t_s_s+0x2e>
    36ef:	8b 45 fc             	mov    -0x4(%rbp),%eax
    36f2:	99                   	cltd   
    36f3:	f7 7d f8             	idivl  -0x8(%rbp)
    36f6:	89 d0                	mov    %edx,%eax
    36f8:	eb 03                	jmp    36fd <safe_mod_func_int32_t_s_s+0x31>
    36fa:	8b 45 fc             	mov    -0x4(%rbp),%eax
    36fd:	5d                   	pop    %rbp
    36fe:	c3                   	retq   

00000000000036ff <safe_div_func_int32_t_s_s>:
    36ff:	f3 0f 1e fa          	endbr64 
    3703:	55                   	push   %rbp
    3704:	48 89 e5             	mov    %rsp,%rbp
    3707:	89 7d fc             	mov    %edi,-0x4(%rbp)
    370a:	89 75 f8             	mov    %esi,-0x8(%rbp)
    370d:	83 7d f8 00          	cmpl   $0x0,-0x8(%rbp)
    3711:	74 18                	je     372b <safe_div_func_int32_t_s_s+0x2c>
    3713:	81 7d fc 00 00 00 80 	cmpl   $0x80000000,-0x4(%rbp)
    371a:	75 06                	jne    3722 <safe_div_func_int32_t_s_s+0x23>
    371c:	83 7d f8 ff          	cmpl   $0xffffffff,-0x8(%rbp)
    3720:	74 09                	je     372b <safe_div_func_int32_t_s_s+0x2c>
    3722:	8b 45 fc             	mov    -0x4(%rbp),%eax
    3725:	99                   	cltd   
    3726:	f7 7d f8             	idivl  -0x8(%rbp)
    3729:	eb 03                	jmp    372e <safe_div_func_int32_t_s_s+0x2f>
    372b:	8b 45 fc             	mov    -0x4(%rbp),%eax
    372e:	5d                   	pop    %rbp
    372f:	c3                   	retq   

0000000000003730 <safe_lshift_func_int32_t_s_s>:
    3730:	f3 0f 1e fa          	endbr64 
    3734:	55                   	push   %rbp
    3735:	48 89 e5             	mov    %rsp,%rbp
    3738:	89 7d fc             	mov    %edi,-0x4(%rbp)
    373b:	89 75 f8             	mov    %esi,-0x8(%rbp)
    373e:	83 7d fc 00          	cmpl   $0x0,-0x4(%rbp)
    3742:	78 2d                	js     3771 <safe_lshift_func_int32_t_s_s+0x41>
    3744:	83 7d f8 00          	cmpl   $0x0,-0x8(%rbp)
    3748:	78 27                	js     3771 <safe_lshift_func_int32_t_s_s+0x41>
    374a:	83 7d f8 1f          	cmpl   $0x1f,-0x8(%rbp)
    374e:	7f 21                	jg     3771 <safe_lshift_func_int32_t_s_s+0x41>
    3750:	8b 45 f8             	mov    -0x8(%rbp),%eax
    3753:	ba ff ff ff 7f       	mov    $0x7fffffff,%edx
    3758:	89 c1                	mov    %eax,%ecx
    375a:	d3 fa                	sar    %cl,%edx
    375c:	89 d0                	mov    %edx,%eax
    375e:	39 45 fc             	cmp    %eax,-0x4(%rbp)
    3761:	7f 0e                	jg     3771 <safe_lshift_func_int32_t_s_s+0x41>
    3763:	8b 45 f8             	mov    -0x8(%rbp),%eax
    3766:	8b 55 fc             	mov    -0x4(%rbp),%edx
    3769:	89 c1                	mov    %eax,%ecx
    376b:	d3 e2                	shl    %cl,%edx
    376d:	89 d0                	mov    %edx,%eax
    376f:	eb 03                	jmp    3774 <safe_lshift_func_int32_t_s_s+0x44>
    3771:	8b 45 fc             	mov    -0x4(%rbp),%eax
    3774:	5d                   	pop    %rbp
    3775:	c3                   	retq   

0000000000003776 <safe_lshift_func_int32_t_s_u>:
    3776:	f3 0f 1e fa          	endbr64 
    377a:	55                   	push   %rbp
    377b:	48 89 e5             	mov    %rsp,%rbp
    377e:	89 7d fc             	mov    %edi,-0x4(%rbp)
    3781:	89 75 f8             	mov    %esi,-0x8(%rbp)
    3784:	83 7d fc 00          	cmpl   $0x0,-0x4(%rbp)
    3788:	78 27                	js     37b1 <safe_lshift_func_int32_t_s_u+0x3b>
    378a:	83 7d f8 1f          	cmpl   $0x1f,-0x8(%rbp)
    378e:	77 21                	ja     37b1 <safe_lshift_func_int32_t_s_u+0x3b>
    3790:	8b 45 f8             	mov    -0x8(%rbp),%eax
    3793:	ba ff ff ff 7f       	mov    $0x7fffffff,%edx
    3798:	89 c1                	mov    %eax,%ecx
    379a:	d3 fa                	sar    %cl,%edx
    379c:	89 d0                	mov    %edx,%eax
    379e:	39 45 fc             	cmp    %eax,-0x4(%rbp)
    37a1:	7f 0e                	jg     37b1 <safe_lshift_func_int32_t_s_u+0x3b>
    37a3:	8b 45 f8             	mov    -0x8(%rbp),%eax
    37a6:	8b 55 fc             	mov    -0x4(%rbp),%edx
    37a9:	89 c1                	mov    %eax,%ecx
    37ab:	d3 e2                	shl    %cl,%edx
    37ad:	89 d0                	mov    %edx,%eax
    37af:	eb 03                	jmp    37b4 <safe_lshift_func_int32_t_s_u+0x3e>
    37b1:	8b 45 fc             	mov    -0x4(%rbp),%eax
    37b4:	5d                   	pop    %rbp
    37b5:	c3                   	retq   

00000000000037b6 <safe_rshift_func_int32_t_s_s>:
    37b6:	f3 0f 1e fa          	endbr64 
    37ba:	55                   	push   %rbp
    37bb:	48 89 e5             	mov    %rsp,%rbp
    37be:	89 7d fc             	mov    %edi,-0x4(%rbp)
    37c1:	89 75 f8             	mov    %esi,-0x8(%rbp)
    37c4:	83 7d fc 00          	cmpl   $0x0,-0x4(%rbp)
    37c8:	78 1a                	js     37e4 <safe_rshift_func_int32_t_s_s+0x2e>
    37ca:	83 7d f8 00          	cmpl   $0x0,-0x8(%rbp)
    37ce:	78 14                	js     37e4 <safe_rshift_func_int32_t_s_s+0x2e>
    37d0:	83 7d f8 1f          	cmpl   $0x1f,-0x8(%rbp)
    37d4:	7f 0e                	jg     37e4 <safe_rshift_func_int32_t_s_s+0x2e>
    37d6:	8b 45 f8             	mov    -0x8(%rbp),%eax
    37d9:	8b 55 fc             	mov    -0x4(%rbp),%edx
    37dc:	89 c1                	mov    %eax,%ecx
    37de:	d3 fa                	sar    %cl,%edx
    37e0:	89 d0                	mov    %edx,%eax
    37e2:	eb 03                	jmp    37e7 <safe_rshift_func_int32_t_s_s+0x31>
    37e4:	8b 45 fc             	mov    -0x4(%rbp),%eax
    37e7:	5d                   	pop    %rbp
    37e8:	c3                   	retq   

00000000000037e9 <safe_rshift_func_int32_t_s_u>:
    37e9:	f3 0f 1e fa          	endbr64 
    37ed:	55                   	push   %rbp
    37ee:	48 89 e5             	mov    %rsp,%rbp
    37f1:	89 7d fc             	mov    %edi,-0x4(%rbp)
    37f4:	89 75 f8             	mov    %esi,-0x8(%rbp)
    37f7:	83 7d fc 00          	cmpl   $0x0,-0x4(%rbp)
    37fb:	78 14                	js     3811 <safe_rshift_func_int32_t_s_u+0x28>
    37fd:	83 7d f8 1f          	cmpl   $0x1f,-0x8(%rbp)
    3801:	77 0e                	ja     3811 <safe_rshift_func_int32_t_s_u+0x28>
    3803:	8b 45 f8             	mov    -0x8(%rbp),%eax
    3806:	8b 55 fc             	mov    -0x4(%rbp),%edx
    3809:	89 c1                	mov    %eax,%ecx
    380b:	d3 fa                	sar    %cl,%edx
    380d:	89 d0                	mov    %edx,%eax
    380f:	eb 03                	jmp    3814 <safe_rshift_func_int32_t_s_u+0x2b>
    3811:	8b 45 fc             	mov    -0x4(%rbp),%eax
    3814:	5d                   	pop    %rbp
    3815:	c3                   	retq   

0000000000003816 <safe_unary_minus_func_int64_t_s>:
    3816:	f3 0f 1e fa          	endbr64 
    381a:	55                   	push   %rbp
    381b:	48 89 e5             	mov    %rsp,%rbp
    381e:	48 89 7d f8          	mov    %rdi,-0x8(%rbp)
    3822:	48 b8 00 00 00 00 00 	movabs $0x8000000000000000,%rax
    3829:	00 00 80 
    382c:	48 39 45 f8          	cmp    %rax,-0x8(%rbp)
    3830:	74 09                	je     383b <safe_unary_minus_func_int64_t_s+0x25>
    3832:	48 8b 45 f8          	mov    -0x8(%rbp),%rax
    3836:	48 f7 d8             	neg    %rax
    3839:	eb 04                	jmp    383f <safe_unary_minus_func_int64_t_s+0x29>
    383b:	48 8b 45 f8          	mov    -0x8(%rbp),%rax
    383f:	5d                   	pop    %rbp
    3840:	c3                   	retq   

0000000000003841 <safe_add_func_int64_t_s_s>:
    3841:	f3 0f 1e fa          	endbr64 
    3845:	55                   	push   %rbp
    3846:	48 89 e5             	mov    %rsp,%rbp
    3849:	48 89 7d f8          	mov    %rdi,-0x8(%rbp)
    384d:	48 89 75 f0          	mov    %rsi,-0x10(%rbp)
    3851:	48 83 7d f8 00       	cmpq   $0x0,-0x8(%rbp)
    3856:	7e 1b                	jle    3873 <safe_add_func_int64_t_s_s+0x32>
    3858:	48 83 7d f0 00       	cmpq   $0x0,-0x10(%rbp)
    385d:	7e 14                	jle    3873 <safe_add_func_int64_t_s_s+0x32>
    385f:	48 b8 ff ff ff ff ff 	movabs $0x7fffffffffffffff,%rax
    3866:	ff ff 7f 
    3869:	48 2b 45 f0          	sub    -0x10(%rbp),%rax
    386d:	48 39 45 f8          	cmp    %rax,-0x8(%rbp)
    3871:	7f 2f                	jg     38a2 <safe_add_func_int64_t_s_s+0x61>
    3873:	48 83 7d f8 00       	cmpq   $0x0,-0x8(%rbp)
    3878:	79 1b                	jns    3895 <safe_add_func_int64_t_s_s+0x54>
    387a:	48 83 7d f0 00       	cmpq   $0x0,-0x10(%rbp)
    387f:	79 14                	jns    3895 <safe_add_func_int64_t_s_s+0x54>
    3881:	48 b8 00 00 00 00 00 	movabs $0x8000000000000000,%rax
    3888:	00 00 80 
    388b:	48 2b 45 f0          	sub    -0x10(%rbp),%rax
    388f:	48 39 45 f8          	cmp    %rax,-0x8(%rbp)
    3893:	7c 0d                	jl     38a2 <safe_add_func_int64_t_s_s+0x61>
    3895:	48 8b 55 f8          	mov    -0x8(%rbp),%rdx
    3899:	48 8b 45 f0          	mov    -0x10(%rbp),%rax
    389d:	48 01 d0             	add    %rdx,%rax
    38a0:	eb 04                	jmp    38a6 <safe_add_func_int64_t_s_s+0x65>
    38a2:	48 8b 45 f8          	mov    -0x8(%rbp),%rax
    38a6:	5d                   	pop    %rbp
    38a7:	c3                   	retq   

00000000000038a8 <safe_sub_func_int64_t_s_s>:
    38a8:	f3 0f 1e fa          	endbr64 
    38ac:	55                   	push   %rbp
    38ad:	48 89 e5             	mov    %rsp,%rbp
    38b0:	48 89 7d f8          	mov    %rdi,-0x8(%rbp)
    38b4:	48 89 75 f0          	mov    %rsi,-0x10(%rbp)
    38b8:	48 8b 45 f8          	mov    -0x8(%rbp),%rax
    38bc:	48 33 45 f0          	xor    -0x10(%rbp),%rax
    38c0:	48 89 c2             	mov    %rax,%rdx
    38c3:	48 8b 45 f8          	mov    -0x8(%rbp),%rax
    38c7:	48 33 45 f0          	xor    -0x10(%rbp),%rax
    38cb:	48 b9 00 00 00 00 00 	movabs $0x8000000000000000,%rcx
    38d2:	00 00 80 
    38d5:	48 21 c8             	and    %rcx,%rax
    38d8:	48 33 45 f8          	xor    -0x8(%rbp),%rax
    38dc:	48 2b 45 f0          	sub    -0x10(%rbp),%rax
    38e0:	48 33 45 f0          	xor    -0x10(%rbp),%rax
    38e4:	48 21 d0             	and    %rdx,%rax
    38e7:	48 85 c0             	test   %rax,%rax
    38ea:	78 0a                	js     38f6 <safe_sub_func_int64_t_s_s+0x4e>
    38ec:	48 8b 45 f8          	mov    -0x8(%rbp),%rax
    38f0:	48 2b 45 f0          	sub    -0x10(%rbp),%rax
    38f4:	eb 04                	jmp    38fa <safe_sub_func_int64_t_s_s+0x52>
    38f6:	48 8b 45 f8          	mov    -0x8(%rbp),%rax
    38fa:	5d                   	pop    %rbp
    38fb:	c3                   	retq   

00000000000038fc <safe_mul_func_int64_t_s_s>:
    38fc:	f3 0f 1e fa          	endbr64 
    3900:	55                   	push   %rbp
    3901:	48 89 e5             	mov    %rsp,%rbp
    3904:	48 89 7d f8          	mov    %rdi,-0x8(%rbp)
    3908:	48 89 75 f0          	mov    %rsi,-0x10(%rbp)
    390c:	48 83 7d f8 00       	cmpq   $0x0,-0x8(%rbp)
    3911:	7e 1d                	jle    3930 <safe_mul_func_int64_t_s_s+0x34>
    3913:	48 83 7d f0 00       	cmpq   $0x0,-0x10(%rbp)
    3918:	7e 16                	jle    3930 <safe_mul_func_int64_t_s_s+0x34>
    391a:	48 b8 ff ff ff ff ff 	movabs $0x7fffffffffffffff,%rax
    3921:	ff ff 7f 
    3924:	48 99                	cqto   
    3926:	48 f7 7d f0          	idivq  -0x10(%rbp)
    392a:	48 39 45 f8          	cmp    %rax,-0x8(%rbp)
    392e:	7f 7e                	jg     39ae <safe_mul_func_int64_t_s_s+0xb2>
    3930:	48 83 7d f8 00       	cmpq   $0x0,-0x8(%rbp)
    3935:	7e 1d                	jle    3954 <safe_mul_func_int64_t_s_s+0x58>
    3937:	48 83 7d f0 00       	cmpq   $0x0,-0x10(%rbp)
    393c:	7f 16                	jg     3954 <safe_mul_func_int64_t_s_s+0x58>
    393e:	48 b8 00 00 00 00 00 	movabs $0x8000000000000000,%rax
    3945:	00 00 80 
    3948:	48 99                	cqto   
    394a:	48 f7 7d f8          	idivq  -0x8(%rbp)
    394e:	48 39 45 f0          	cmp    %rax,-0x10(%rbp)
    3952:	7c 5a                	jl     39ae <safe_mul_func_int64_t_s_s+0xb2>
    3954:	48 83 7d f8 00       	cmpq   $0x0,-0x8(%rbp)
    3959:	7f 1d                	jg     3978 <safe_mul_func_int64_t_s_s+0x7c>
    395b:	48 83 7d f0 00       	cmpq   $0x0,-0x10(%rbp)
    3960:	7e 16                	jle    3978 <safe_mul_func_int64_t_s_s+0x7c>
    3962:	48 b8 00 00 00 00 00 	movabs $0x8000000000000000,%rax
    3969:	00 00 80 
    396c:	48 99                	cqto   
    396e:	48 f7 7d f0          	idivq  -0x10(%rbp)
    3972:	48 39 45 f8          	cmp    %rax,-0x8(%rbp)
    3976:	7c 36                	jl     39ae <safe_mul_func_int64_t_s_s+0xb2>
    3978:	48 83 7d f8 00       	cmpq   $0x0,-0x8(%rbp)
    397d:	7f 24                	jg     39a3 <safe_mul_func_int64_t_s_s+0xa7>
    397f:	48 83 7d f0 00       	cmpq   $0x0,-0x10(%rbp)
    3984:	7f 1d                	jg     39a3 <safe_mul_func_int64_t_s_s+0xa7>
    3986:	48 83 7d f8 00       	cmpq   $0x0,-0x8(%rbp)
    398b:	74 16                	je     39a3 <safe_mul_func_int64_t_s_s+0xa7>
    398d:	48 b8 ff ff ff ff ff 	movabs $0x7fffffffffffffff,%rax
    3994:	ff ff 7f 
    3997:	48 99                	cqto   
    3999:	48 f7 7d f8          	idivq  -0x8(%rbp)
    399d:	48 39 45 f0          	cmp    %rax,-0x10(%rbp)
    39a1:	7c 0b                	jl     39ae <safe_mul_func_int64_t_s_s+0xb2>
    39a3:	48 8b 45 f8          	mov    -0x8(%rbp),%rax
    39a7:	48 0f af 45 f0       	imul   -0x10(%rbp),%rax
    39ac:	eb 04                	jmp    39b2 <safe_mul_func_int64_t_s_s+0xb6>
    39ae:	48 8b 45 f8          	mov    -0x8(%rbp),%rax
    39b2:	5d                   	pop    %rbp
    39b3:	c3                   	retq   

00000000000039b4 <safe_mod_func_int64_t_s_s>:
    39b4:	f3 0f 1e fa          	endbr64 
    39b8:	55                   	push   %rbp
    39b9:	48 89 e5             	mov    %rsp,%rbp
    39bc:	48 89 7d f8          	mov    %rdi,-0x8(%rbp)
    39c0:	48 89 75 f0          	mov    %rsi,-0x10(%rbp)
    39c4:	48 83 7d f0 00       	cmpq   $0x0,-0x10(%rbp)
    39c9:	74 26                	je     39f1 <safe_mod_func_int64_t_s_s+0x3d>
    39cb:	48 b8 00 00 00 00 00 	movabs $0x8000000000000000,%rax
    39d2:	00 00 80 
    39d5:	48 39 45 f8          	cmp    %rax,-0x8(%rbp)
    39d9:	75 07                	jne    39e2 <safe_mod_func_int64_t_s_s+0x2e>
    39db:	48 83 7d f0 ff       	cmpq   $0xffffffffffffffff,-0x10(%rbp)
    39e0:	74 0f                	je     39f1 <safe_mod_func_int64_t_s_s+0x3d>
    39e2:	48 8b 45 f8          	mov    -0x8(%rbp),%rax
    39e6:	48 99                	cqto   
    39e8:	48 f7 7d f0          	idivq  -0x10(%rbp)
    39ec:	48 89 d0             	mov    %rdx,%rax
    39ef:	eb 04                	jmp    39f5 <safe_mod_func_int64_t_s_s+0x41>
    39f1:	48 8b 45 f8          	mov    -0x8(%rbp),%rax
    39f5:	5d                   	pop    %rbp
    39f6:	c3                   	retq   

00000000000039f7 <safe_div_func_int64_t_s_s>:
    39f7:	f3 0f 1e fa          	endbr64 
    39fb:	55                   	push   %rbp
    39fc:	48 89 e5             	mov    %rsp,%rbp
    39ff:	48 89 7d f8          	mov    %rdi,-0x8(%rbp)
    3a03:	48 89 75 f0          	mov    %rsi,-0x10(%rbp)
    3a07:	48 83 7d f0 00       	cmpq   $0x0,-0x10(%rbp)
    3a0c:	74 23                	je     3a31 <safe_div_func_int64_t_s_s+0x3a>
    3a0e:	48 b8 00 00 00 00 00 	movabs $0x8000000000000000,%rax
    3a15:	00 00 80 
    3a18:	48 39 45 f8          	cmp    %rax,-0x8(%rbp)
    3a1c:	75 07                	jne    3a25 <safe_div_func_int64_t_s_s+0x2e>
    3a1e:	48 83 7d f0 ff       	cmpq   $0xffffffffffffffff,-0x10(%rbp)
    3a23:	74 0c                	je     3a31 <safe_div_func_int64_t_s_s+0x3a>
    3a25:	48 8b 45 f8          	mov    -0x8(%rbp),%rax
    3a29:	48 99                	cqto   
    3a2b:	48 f7 7d f0          	idivq  -0x10(%rbp)
    3a2f:	eb 04                	jmp    3a35 <safe_div_func_int64_t_s_s+0x3e>
    3a31:	48 8b 45 f8          	mov    -0x8(%rbp),%rax
    3a35:	5d                   	pop    %rbp
    3a36:	c3                   	retq   

0000000000003a37 <safe_lshift_func_int64_t_s_s>:
    3a37:	f3 0f 1e fa          	endbr64 
    3a3b:	55                   	push   %rbp
    3a3c:	48 89 e5             	mov    %rsp,%rbp
    3a3f:	48 89 7d f8          	mov    %rdi,-0x8(%rbp)
    3a43:	89 75 f4             	mov    %esi,-0xc(%rbp)
    3a46:	48 83 7d f8 00       	cmpq   $0x0,-0x8(%rbp)
    3a4b:	78 38                	js     3a85 <safe_lshift_func_int64_t_s_s+0x4e>
    3a4d:	83 7d f4 00          	cmpl   $0x0,-0xc(%rbp)
    3a51:	78 32                	js     3a85 <safe_lshift_func_int64_t_s_s+0x4e>
    3a53:	83 7d f4 1f          	cmpl   $0x1f,-0xc(%rbp)
    3a57:	7f 2c                	jg     3a85 <safe_lshift_func_int64_t_s_s+0x4e>
    3a59:	8b 45 f4             	mov    -0xc(%rbp),%eax
    3a5c:	48 ba ff ff ff ff ff 	movabs $0x7fffffffffffffff,%rdx
    3a63:	ff ff 7f 
    3a66:	89 c1                	mov    %eax,%ecx
    3a68:	48 d3 fa             	sar    %cl,%rdx
    3a6b:	48 89 d0             	mov    %rdx,%rax
    3a6e:	48 39 45 f8          	cmp    %rax,-0x8(%rbp)
    3a72:	7f 11                	jg     3a85 <safe_lshift_func_int64_t_s_s+0x4e>
    3a74:	8b 45 f4             	mov    -0xc(%rbp),%eax
    3a77:	48 8b 55 f8          	mov    -0x8(%rbp),%rdx
    3a7b:	89 c1                	mov    %eax,%ecx
    3a7d:	48 d3 e2             	shl    %cl,%rdx
    3a80:	48 89 d0             	mov    %rdx,%rax
    3a83:	eb 04                	jmp    3a89 <safe_lshift_func_int64_t_s_s+0x52>
    3a85:	48 8b 45 f8          	mov    -0x8(%rbp),%rax
    3a89:	5d                   	pop    %rbp
    3a8a:	c3                   	retq   

0000000000003a8b <safe_lshift_func_int64_t_s_u>:
    3a8b:	f3 0f 1e fa          	endbr64 
    3a8f:	55                   	push   %rbp
    3a90:	48 89 e5             	mov    %rsp,%rbp
    3a93:	48 89 7d f8          	mov    %rdi,-0x8(%rbp)
    3a97:	89 75 f4             	mov    %esi,-0xc(%rbp)
    3a9a:	48 83 7d f8 00       	cmpq   $0x0,-0x8(%rbp)
    3a9f:	78 32                	js     3ad3 <safe_lshift_func_int64_t_s_u+0x48>
    3aa1:	83 7d f4 1f          	cmpl   $0x1f,-0xc(%rbp)
    3aa5:	77 2c                	ja     3ad3 <safe_lshift_func_int64_t_s_u+0x48>
    3aa7:	8b 45 f4             	mov    -0xc(%rbp),%eax
    3aaa:	48 ba ff ff ff ff ff 	movabs $0x7fffffffffffffff,%rdx
    3ab1:	ff ff 7f 
    3ab4:	89 c1                	mov    %eax,%ecx
    3ab6:	48 d3 fa             	sar    %cl,%rdx
    3ab9:	48 89 d0             	mov    %rdx,%rax
    3abc:	48 39 45 f8          	cmp    %rax,-0x8(%rbp)
    3ac0:	7f 11                	jg     3ad3 <safe_lshift_func_int64_t_s_u+0x48>
    3ac2:	8b 45 f4             	mov    -0xc(%rbp),%eax
    3ac5:	48 8b 55 f8          	mov    -0x8(%rbp),%rdx
    3ac9:	89 c1                	mov    %eax,%ecx
    3acb:	48 d3 e2             	shl    %cl,%rdx
    3ace:	48 89 d0             	mov    %rdx,%rax
    3ad1:	eb 04                	jmp    3ad7 <safe_lshift_func_int64_t_s_u+0x4c>
    3ad3:	48 8b 45 f8          	mov    -0x8(%rbp),%rax
    3ad7:	5d                   	pop    %rbp
    3ad8:	c3                   	retq   

0000000000003ad9 <safe_rshift_func_int64_t_s_s>:
    3ad9:	f3 0f 1e fa          	endbr64 
    3add:	55                   	push   %rbp
    3ade:	48 89 e5             	mov    %rsp,%rbp
    3ae1:	48 89 7d f8          	mov    %rdi,-0x8(%rbp)
    3ae5:	89 75 f4             	mov    %esi,-0xc(%rbp)
    3ae8:	48 83 7d f8 00       	cmpq   $0x0,-0x8(%rbp)
    3aed:	78 1d                	js     3b0c <safe_rshift_func_int64_t_s_s+0x33>
    3aef:	83 7d f4 00          	cmpl   $0x0,-0xc(%rbp)
    3af3:	78 17                	js     3b0c <safe_rshift_func_int64_t_s_s+0x33>
    3af5:	83 7d f4 1f          	cmpl   $0x1f,-0xc(%rbp)
    3af9:	7f 11                	jg     3b0c <safe_rshift_func_int64_t_s_s+0x33>
    3afb:	8b 45 f4             	mov    -0xc(%rbp),%eax
    3afe:	48 8b 55 f8          	mov    -0x8(%rbp),%rdx
    3b02:	89 c1                	mov    %eax,%ecx
    3b04:	48 d3 fa             	sar    %cl,%rdx
    3b07:	48 89 d0             	mov    %rdx,%rax
    3b0a:	eb 04                	jmp    3b10 <safe_rshift_func_int64_t_s_s+0x37>
    3b0c:	48 8b 45 f8          	mov    -0x8(%rbp),%rax
    3b10:	5d                   	pop    %rbp
    3b11:	c3                   	retq   

0000000000003b12 <safe_rshift_func_int64_t_s_u>:
    3b12:	f3 0f 1e fa          	endbr64 
    3b16:	55                   	push   %rbp
    3b17:	48 89 e5             	mov    %rsp,%rbp
    3b1a:	48 89 7d f8          	mov    %rdi,-0x8(%rbp)
    3b1e:	89 75 f4             	mov    %esi,-0xc(%rbp)
    3b21:	48 83 7d f8 00       	cmpq   $0x0,-0x8(%rbp)
    3b26:	78 17                	js     3b3f <safe_rshift_func_int64_t_s_u+0x2d>
    3b28:	83 7d f4 1f          	cmpl   $0x1f,-0xc(%rbp)
    3b2c:	77 11                	ja     3b3f <safe_rshift_func_int64_t_s_u+0x2d>
    3b2e:	8b 45 f4             	mov    -0xc(%rbp),%eax
    3b31:	48 8b 55 f8          	mov    -0x8(%rbp),%rdx
    3b35:	89 c1                	mov    %eax,%ecx
    3b37:	48 d3 fa             	sar    %cl,%rdx
    3b3a:	48 89 d0             	mov    %rdx,%rax
    3b3d:	eb 04                	jmp    3b43 <safe_rshift_func_int64_t_s_u+0x31>
    3b3f:	48 8b 45 f8          	mov    -0x8(%rbp),%rax
    3b43:	5d                   	pop    %rbp
    3b44:	c3                   	retq   

0000000000003b45 <safe_unary_minus_func_uint8_t_u>:
    3b45:	f3 0f 1e fa          	endbr64 
    3b49:	55                   	push   %rbp
    3b4a:	48 89 e5             	mov    %rsp,%rbp
    3b4d:	89 f8                	mov    %edi,%eax
    3b4f:	88 45 fc             	mov    %al,-0x4(%rbp)
    3b52:	0f b6 45 fc          	movzbl -0x4(%rbp),%eax
    3b56:	f7 d8                	neg    %eax
    3b58:	5d                   	pop    %rbp
    3b59:	c3                   	retq   

0000000000003b5a <safe_add_func_uint8_t_u_u>:
    3b5a:	f3 0f 1e fa          	endbr64 
    3b5e:	55                   	push   %rbp
    3b5f:	48 89 e5             	mov    %rsp,%rbp
    3b62:	89 fa                	mov    %edi,%edx
    3b64:	89 f0                	mov    %esi,%eax
    3b66:	88 55 fc             	mov    %dl,-0x4(%rbp)
    3b69:	88 45 f8             	mov    %al,-0x8(%rbp)
    3b6c:	0f b6 55 fc          	movzbl -0x4(%rbp),%edx
    3b70:	0f b6 45 f8          	movzbl -0x8(%rbp),%eax
    3b74:	01 d0                	add    %edx,%eax
    3b76:	5d                   	pop    %rbp
    3b77:	c3                   	retq   

0000000000003b78 <safe_sub_func_uint8_t_u_u>:
    3b78:	f3 0f 1e fa          	endbr64 
    3b7c:	55                   	push   %rbp
    3b7d:	48 89 e5             	mov    %rsp,%rbp
    3b80:	89 fa                	mov    %edi,%edx
    3b82:	89 f0                	mov    %esi,%eax
    3b84:	88 55 fc             	mov    %dl,-0x4(%rbp)
    3b87:	88 45 f8             	mov    %al,-0x8(%rbp)
    3b8a:	0f b6 45 fc          	movzbl -0x4(%rbp),%eax
    3b8e:	2a 45 f8             	sub    -0x8(%rbp),%al
    3b91:	5d                   	pop    %rbp
    3b92:	c3                   	retq   

0000000000003b93 <safe_mul_func_uint8_t_u_u>:
    3b93:	f3 0f 1e fa          	endbr64 
    3b97:	55                   	push   %rbp
    3b98:	48 89 e5             	mov    %rsp,%rbp
    3b9b:	89 fa                	mov    %edi,%edx
    3b9d:	89 f0                	mov    %esi,%eax
    3b9f:	88 55 fc             	mov    %dl,-0x4(%rbp)
    3ba2:	88 45 f8             	mov    %al,-0x8(%rbp)
    3ba5:	0f b6 45 fc          	movzbl -0x4(%rbp),%eax
    3ba9:	f6 65 f8             	mulb   -0x8(%rbp)
    3bac:	5d                   	pop    %rbp
    3bad:	c3                   	retq   

0000000000003bae <safe_mod_func_uint8_t_u_u>:
    3bae:	f3 0f 1e fa          	endbr64 
    3bb2:	55                   	push   %rbp
    3bb3:	48 89 e5             	mov    %rsp,%rbp
    3bb6:	89 fa                	mov    %edi,%edx
    3bb8:	89 f0                	mov    %esi,%eax
    3bba:	88 55 fc             	mov    %dl,-0x4(%rbp)
    3bbd:	88 45 f8             	mov    %al,-0x8(%rbp)
    3bc0:	80 7d f8 00          	cmpb   $0x0,-0x8(%rbp)
    3bc4:	74 0f                	je     3bd5 <safe_mod_func_uint8_t_u_u+0x27>
    3bc6:	0f b6 45 fc          	movzbl -0x4(%rbp),%eax
    3bca:	0f b6 c0             	movzbl %al,%eax
    3bcd:	f6 75 f8             	divb   -0x8(%rbp)
    3bd0:	0f b6 c4             	movzbl %ah,%eax
    3bd3:	eb 04                	jmp    3bd9 <safe_mod_func_uint8_t_u_u+0x2b>
    3bd5:	0f b6 45 fc          	movzbl -0x4(%rbp),%eax
    3bd9:	5d                   	pop    %rbp
    3bda:	c3                   	retq   

0000000000003bdb <safe_div_func_uint8_t_u_u>:
    3bdb:	f3 0f 1e fa          	endbr64 
    3bdf:	55                   	push   %rbp
    3be0:	48 89 e5             	mov    %rsp,%rbp
    3be3:	89 fa                	mov    %edi,%edx
    3be5:	89 f0                	mov    %esi,%eax
    3be7:	88 55 fc             	mov    %dl,-0x4(%rbp)
    3bea:	88 45 f8             	mov    %al,-0x8(%rbp)
    3bed:	80 7d f8 00          	cmpb   $0x0,-0x8(%rbp)
    3bf1:	74 0c                	je     3bff <safe_div_func_uint8_t_u_u+0x24>
    3bf3:	0f b6 45 fc          	movzbl -0x4(%rbp),%eax
    3bf7:	0f b6 c0             	movzbl %al,%eax
    3bfa:	f6 75 f8             	divb   -0x8(%rbp)
    3bfd:	eb 04                	jmp    3c03 <safe_div_func_uint8_t_u_u+0x28>
    3bff:	0f b6 45 fc          	movzbl -0x4(%rbp),%eax
    3c03:	5d                   	pop    %rbp
    3c04:	c3                   	retq   

0000000000003c05 <safe_lshift_func_uint8_t_u_s>:
    3c05:	f3 0f 1e fa          	endbr64 
    3c09:	55                   	push   %rbp
    3c0a:	48 89 e5             	mov    %rsp,%rbp
    3c0d:	89 f8                	mov    %edi,%eax
    3c0f:	89 75 f8             	mov    %esi,-0x8(%rbp)
    3c12:	88 45 fc             	mov    %al,-0x4(%rbp)
    3c15:	83 7d f8 00          	cmpl   $0x0,-0x8(%rbp)
    3c19:	78 2b                	js     3c46 <safe_lshift_func_uint8_t_u_s+0x41>
    3c1b:	83 7d f8 1f          	cmpl   $0x1f,-0x8(%rbp)
    3c1f:	7f 25                	jg     3c46 <safe_lshift_func_uint8_t_u_s+0x41>
    3c21:	0f b6 55 fc          	movzbl -0x4(%rbp),%edx
    3c25:	8b 45 f8             	mov    -0x8(%rbp),%eax
    3c28:	be ff 00 00 00       	mov    $0xff,%esi
    3c2d:	89 c1                	mov    %eax,%ecx
    3c2f:	d3 fe                	sar    %cl,%esi
    3c31:	89 f0                	mov    %esi,%eax
    3c33:	39 c2                	cmp    %eax,%edx
    3c35:	7f 0f                	jg     3c46 <safe_lshift_func_uint8_t_u_s+0x41>
    3c37:	0f b6 55 fc          	movzbl -0x4(%rbp),%edx
    3c3b:	8b 45 f8             	mov    -0x8(%rbp),%eax
    3c3e:	89 c1                	mov    %eax,%ecx
    3c40:	d3 e2                	shl    %cl,%edx
    3c42:	89 d0                	mov    %edx,%eax
    3c44:	eb 04                	jmp    3c4a <safe_lshift_func_uint8_t_u_s+0x45>
    3c46:	0f b6 45 fc          	movzbl -0x4(%rbp),%eax
    3c4a:	5d                   	pop    %rbp
    3c4b:	c3                   	retq   

0000000000003c4c <safe_lshift_func_uint8_t_u_u>:
    3c4c:	f3 0f 1e fa          	endbr64 
    3c50:	55                   	push   %rbp
    3c51:	48 89 e5             	mov    %rsp,%rbp
    3c54:	89 f8                	mov    %edi,%eax
    3c56:	89 75 f8             	mov    %esi,-0x8(%rbp)
    3c59:	88 45 fc             	mov    %al,-0x4(%rbp)
    3c5c:	83 7d f8 1f          	cmpl   $0x1f,-0x8(%rbp)
    3c60:	77 25                	ja     3c87 <safe_lshift_func_uint8_t_u_u+0x3b>
    3c62:	0f b6 55 fc          	movzbl -0x4(%rbp),%edx
    3c66:	8b 45 f8             	mov    -0x8(%rbp),%eax
    3c69:	be ff 00 00 00       	mov    $0xff,%esi
    3c6e:	89 c1                	mov    %eax,%ecx
    3c70:	d3 fe                	sar    %cl,%esi
    3c72:	89 f0                	mov    %esi,%eax
    3c74:	39 c2                	cmp    %eax,%edx
    3c76:	7f 0f                	jg     3c87 <safe_lshift_func_uint8_t_u_u+0x3b>
    3c78:	0f b6 55 fc          	movzbl -0x4(%rbp),%edx
    3c7c:	8b 45 f8             	mov    -0x8(%rbp),%eax
    3c7f:	89 c1                	mov    %eax,%ecx
    3c81:	d3 e2                	shl    %cl,%edx
    3c83:	89 d0                	mov    %edx,%eax
    3c85:	eb 04                	jmp    3c8b <safe_lshift_func_uint8_t_u_u+0x3f>
    3c87:	0f b6 45 fc          	movzbl -0x4(%rbp),%eax
    3c8b:	5d                   	pop    %rbp
    3c8c:	c3                   	retq   

0000000000003c8d <safe_rshift_func_uint8_t_u_s>:
    3c8d:	f3 0f 1e fa          	endbr64 
    3c91:	55                   	push   %rbp
    3c92:	48 89 e5             	mov    %rsp,%rbp
    3c95:	89 f8                	mov    %edi,%eax
    3c97:	89 75 f8             	mov    %esi,-0x8(%rbp)
    3c9a:	88 45 fc             	mov    %al,-0x4(%rbp)
    3c9d:	83 7d f8 00          	cmpl   $0x0,-0x8(%rbp)
    3ca1:	78 15                	js     3cb8 <safe_rshift_func_uint8_t_u_s+0x2b>
    3ca3:	83 7d f8 1f          	cmpl   $0x1f,-0x8(%rbp)
    3ca7:	7f 0f                	jg     3cb8 <safe_rshift_func_uint8_t_u_s+0x2b>
    3ca9:	0f b6 55 fc          	movzbl -0x4(%rbp),%edx
    3cad:	8b 45 f8             	mov    -0x8(%rbp),%eax
    3cb0:	89 c1                	mov    %eax,%ecx
    3cb2:	d3 fa                	sar    %cl,%edx
    3cb4:	89 d0                	mov    %edx,%eax
    3cb6:	eb 04                	jmp    3cbc <safe_rshift_func_uint8_t_u_s+0x2f>
    3cb8:	0f b6 45 fc          	movzbl -0x4(%rbp),%eax
    3cbc:	5d                   	pop    %rbp
    3cbd:	c3                   	retq   

0000000000003cbe <safe_rshift_func_uint8_t_u_u>:
    3cbe:	f3 0f 1e fa          	endbr64 
    3cc2:	55                   	push   %rbp
    3cc3:	48 89 e5             	mov    %rsp,%rbp
    3cc6:	89 f8                	mov    %edi,%eax
    3cc8:	89 75 f8             	mov    %esi,-0x8(%rbp)
    3ccb:	88 45 fc             	mov    %al,-0x4(%rbp)
    3cce:	83 7d f8 1f          	cmpl   $0x1f,-0x8(%rbp)
    3cd2:	77 0f                	ja     3ce3 <safe_rshift_func_uint8_t_u_u+0x25>
    3cd4:	0f b6 55 fc          	movzbl -0x4(%rbp),%edx
    3cd8:	8b 45 f8             	mov    -0x8(%rbp),%eax
    3cdb:	89 c1                	mov    %eax,%ecx
    3cdd:	d3 fa                	sar    %cl,%edx
    3cdf:	89 d0                	mov    %edx,%eax
    3ce1:	eb 04                	jmp    3ce7 <safe_rshift_func_uint8_t_u_u+0x29>
    3ce3:	0f b6 45 fc          	movzbl -0x4(%rbp),%eax
    3ce7:	5d                   	pop    %rbp
    3ce8:	c3                   	retq   

0000000000003ce9 <safe_unary_minus_func_uint16_t_u>:
    3ce9:	f3 0f 1e fa          	endbr64 
    3ced:	55                   	push   %rbp
    3cee:	48 89 e5             	mov    %rsp,%rbp
    3cf1:	89 f8                	mov    %edi,%eax
    3cf3:	66 89 45 fc          	mov    %ax,-0x4(%rbp)
    3cf7:	0f b7 45 fc          	movzwl -0x4(%rbp),%eax
    3cfb:	f7 d8                	neg    %eax
    3cfd:	5d                   	pop    %rbp
    3cfe:	c3                   	retq   

0000000000003cff <safe_add_func_uint16_t_u_u>:
    3cff:	f3 0f 1e fa          	endbr64 
    3d03:	55                   	push   %rbp
    3d04:	48 89 e5             	mov    %rsp,%rbp
    3d07:	89 fa                	mov    %edi,%edx
    3d09:	89 f0                	mov    %esi,%eax
    3d0b:	66 89 55 fc          	mov    %dx,-0x4(%rbp)
    3d0f:	66 89 45 f8          	mov    %ax,-0x8(%rbp)
    3d13:	0f b7 55 fc          	movzwl -0x4(%rbp),%edx
    3d17:	0f b7 45 f8          	movzwl -0x8(%rbp),%eax
    3d1b:	01 d0                	add    %edx,%eax
    3d1d:	5d                   	pop    %rbp
    3d1e:	c3                   	retq   

0000000000003d1f <safe_sub_func_uint16_t_u_u>:
    3d1f:	f3 0f 1e fa          	endbr64 
    3d23:	55                   	push   %rbp
    3d24:	48 89 e5             	mov    %rsp,%rbp
    3d27:	89 fa                	mov    %edi,%edx
    3d29:	89 f0                	mov    %esi,%eax
    3d2b:	66 89 55 fc          	mov    %dx,-0x4(%rbp)
    3d2f:	66 89 45 f8          	mov    %ax,-0x8(%rbp)
    3d33:	0f b7 45 fc          	movzwl -0x4(%rbp),%eax
    3d37:	66 2b 45 f8          	sub    -0x8(%rbp),%ax
    3d3b:	5d                   	pop    %rbp
    3d3c:	c3                   	retq   

0000000000003d3d <safe_mul_func_uint16_t_u_u>:
    3d3d:	f3 0f 1e fa          	endbr64 
    3d41:	55                   	push   %rbp
    3d42:	48 89 e5             	mov    %rsp,%rbp
    3d45:	89 fa                	mov    %edi,%edx
    3d47:	89 f0                	mov    %esi,%eax
    3d49:	66 89 55 fc          	mov    %dx,-0x4(%rbp)
    3d4d:	66 89 45 f8          	mov    %ax,-0x8(%rbp)
    3d51:	0f b7 45 fc          	movzwl -0x4(%rbp),%eax
    3d55:	66 0f af 45 f8       	imul   -0x8(%rbp),%ax
    3d5a:	5d                   	pop    %rbp
    3d5b:	c3                   	retq   

0000000000003d5c <safe_mod_func_uint16_t_u_u>:
    3d5c:	f3 0f 1e fa          	endbr64 
    3d60:	55                   	push   %rbp
    3d61:	48 89 e5             	mov    %rsp,%rbp
    3d64:	89 fa                	mov    %edi,%edx
    3d66:	89 f0                	mov    %esi,%eax
    3d68:	66 89 55 fc          	mov    %dx,-0x4(%rbp)
    3d6c:	66 89 45 f8          	mov    %ax,-0x8(%rbp)
    3d70:	66 83 7d f8 00       	cmpw   $0x0,-0x8(%rbp)
    3d75:	74 11                	je     3d88 <safe_mod_func_uint16_t_u_u+0x2c>
    3d77:	0f b7 45 fc          	movzwl -0x4(%rbp),%eax
    3d7b:	ba 00 00 00 00       	mov    $0x0,%edx
    3d80:	66 f7 75 f8          	divw   -0x8(%rbp)
    3d84:	89 d0                	mov    %edx,%eax
    3d86:	eb 04                	jmp    3d8c <safe_mod_func_uint16_t_u_u+0x30>
    3d88:	0f b7 45 fc          	movzwl -0x4(%rbp),%eax
    3d8c:	5d                   	pop    %rbp
    3d8d:	c3                   	retq   

0000000000003d8e <safe_div_func_uint16_t_u_u>:
    3d8e:	f3 0f 1e fa          	endbr64 
    3d92:	55                   	push   %rbp
    3d93:	48 89 e5             	mov    %rsp,%rbp
    3d96:	89 fa                	mov    %edi,%edx
    3d98:	89 f0                	mov    %esi,%eax
    3d9a:	66 89 55 fc          	mov    %dx,-0x4(%rbp)
    3d9e:	66 89 45 f8          	mov    %ax,-0x8(%rbp)
    3da2:	66 83 7d f8 00       	cmpw   $0x0,-0x8(%rbp)
    3da7:	74 0f                	je     3db8 <safe_div_func_uint16_t_u_u+0x2a>
    3da9:	0f b7 45 fc          	movzwl -0x4(%rbp),%eax
    3dad:	ba 00 00 00 00       	mov    $0x0,%edx
    3db2:	66 f7 75 f8          	divw   -0x8(%rbp)
    3db6:	eb 04                	jmp    3dbc <safe_div_func_uint16_t_u_u+0x2e>
    3db8:	0f b7 45 fc          	movzwl -0x4(%rbp),%eax
    3dbc:	5d                   	pop    %rbp
    3dbd:	c3                   	retq   

0000000000003dbe <safe_lshift_func_uint16_t_u_s>:
    3dbe:	f3 0f 1e fa          	endbr64 
    3dc2:	55                   	push   %rbp
    3dc3:	48 89 e5             	mov    %rsp,%rbp
    3dc6:	89 f8                	mov    %edi,%eax
    3dc8:	89 75 f8             	mov    %esi,-0x8(%rbp)
    3dcb:	66 89 45 fc          	mov    %ax,-0x4(%rbp)
    3dcf:	83 7d f8 00          	cmpl   $0x0,-0x8(%rbp)
    3dd3:	78 2b                	js     3e00 <safe_lshift_func_uint16_t_u_s+0x42>
    3dd5:	83 7d f8 1f          	cmpl   $0x1f,-0x8(%rbp)
    3dd9:	7f 25                	jg     3e00 <safe_lshift_func_uint16_t_u_s+0x42>
    3ddb:	0f b7 55 fc          	movzwl -0x4(%rbp),%edx
    3ddf:	8b 45 f8             	mov    -0x8(%rbp),%eax
    3de2:	be ff ff 00 00       	mov    $0xffff,%esi
    3de7:	89 c1                	mov    %eax,%ecx
    3de9:	d3 fe                	sar    %cl,%esi
    3deb:	89 f0                	mov    %esi,%eax
    3ded:	39 c2                	cmp    %eax,%edx
    3def:	7f 0f                	jg     3e00 <safe_lshift_func_uint16_t_u_s+0x42>
    3df1:	0f b7 55 fc          	movzwl -0x4(%rbp),%edx
    3df5:	8b 45 f8             	mov    -0x8(%rbp),%eax
    3df8:	89 c1                	mov    %eax,%ecx
    3dfa:	d3 e2                	shl    %cl,%edx
    3dfc:	89 d0                	mov    %edx,%eax
    3dfe:	eb 04                	jmp    3e04 <safe_lshift_func_uint16_t_u_s+0x46>
    3e00:	0f b7 45 fc          	movzwl -0x4(%rbp),%eax
    3e04:	5d                   	pop    %rbp
    3e05:	c3                   	retq   

0000000000003e06 <safe_lshift_func_uint16_t_u_u>:
    3e06:	f3 0f 1e fa          	endbr64 
    3e0a:	55                   	push   %rbp
    3e0b:	48 89 e5             	mov    %rsp,%rbp
    3e0e:	89 f8                	mov    %edi,%eax
    3e10:	89 75 f8             	mov    %esi,-0x8(%rbp)
    3e13:	66 89 45 fc          	mov    %ax,-0x4(%rbp)
    3e17:	83 7d f8 1f          	cmpl   $0x1f,-0x8(%rbp)
    3e1b:	77 25                	ja     3e42 <safe_lshift_func_uint16_t_u_u+0x3c>
    3e1d:	0f b7 55 fc          	movzwl -0x4(%rbp),%edx
    3e21:	8b 45 f8             	mov    -0x8(%rbp),%eax
    3e24:	be ff ff 00 00       	mov    $0xffff,%esi
    3e29:	89 c1                	mov    %eax,%ecx
    3e2b:	d3 fe                	sar    %cl,%esi
    3e2d:	89 f0                	mov    %esi,%eax
    3e2f:	39 c2                	cmp    %eax,%edx
    3e31:	7f 0f                	jg     3e42 <safe_lshift_func_uint16_t_u_u+0x3c>
    3e33:	0f b7 55 fc          	movzwl -0x4(%rbp),%edx
    3e37:	8b 45 f8             	mov    -0x8(%rbp),%eax
    3e3a:	89 c1                	mov    %eax,%ecx
    3e3c:	d3 e2                	shl    %cl,%edx
    3e3e:	89 d0                	mov    %edx,%eax
    3e40:	eb 04                	jmp    3e46 <safe_lshift_func_uint16_t_u_u+0x40>
    3e42:	0f b7 45 fc          	movzwl -0x4(%rbp),%eax
    3e46:	5d                   	pop    %rbp
    3e47:	c3                   	retq   

0000000000003e48 <safe_rshift_func_uint16_t_u_s>:
    3e48:	f3 0f 1e fa          	endbr64 
    3e4c:	55                   	push   %rbp
    3e4d:	48 89 e5             	mov    %rsp,%rbp
    3e50:	89 f8                	mov    %edi,%eax
    3e52:	89 75 f8             	mov    %esi,-0x8(%rbp)
    3e55:	66 89 45 fc          	mov    %ax,-0x4(%rbp)
    3e59:	83 7d f8 00          	cmpl   $0x0,-0x8(%rbp)
    3e5d:	78 15                	js     3e74 <safe_rshift_func_uint16_t_u_s+0x2c>
    3e5f:	83 7d f8 1f          	cmpl   $0x1f,-0x8(%rbp)
    3e63:	7f 0f                	jg     3e74 <safe_rshift_func_uint16_t_u_s+0x2c>
    3e65:	0f b7 55 fc          	movzwl -0x4(%rbp),%edx
    3e69:	8b 45 f8             	mov    -0x8(%rbp),%eax
    3e6c:	89 c1                	mov    %eax,%ecx
    3e6e:	d3 fa                	sar    %cl,%edx
    3e70:	89 d0                	mov    %edx,%eax
    3e72:	eb 04                	jmp    3e78 <safe_rshift_func_uint16_t_u_s+0x30>
    3e74:	0f b7 45 fc          	movzwl -0x4(%rbp),%eax
    3e78:	5d                   	pop    %rbp
    3e79:	c3                   	retq   

0000000000003e7a <safe_rshift_func_uint16_t_u_u>:
    3e7a:	f3 0f 1e fa          	endbr64 
    3e7e:	55                   	push   %rbp
    3e7f:	48 89 e5             	mov    %rsp,%rbp
    3e82:	89 f8                	mov    %edi,%eax
    3e84:	89 75 f8             	mov    %esi,-0x8(%rbp)
    3e87:	66 89 45 fc          	mov    %ax,-0x4(%rbp)
    3e8b:	83 7d f8 1f          	cmpl   $0x1f,-0x8(%rbp)
    3e8f:	77 0f                	ja     3ea0 <safe_rshift_func_uint16_t_u_u+0x26>
    3e91:	0f b7 55 fc          	movzwl -0x4(%rbp),%edx
    3e95:	8b 45 f8             	mov    -0x8(%rbp),%eax
    3e98:	89 c1                	mov    %eax,%ecx
    3e9a:	d3 fa                	sar    %cl,%edx
    3e9c:	89 d0                	mov    %edx,%eax
    3e9e:	eb 04                	jmp    3ea4 <safe_rshift_func_uint16_t_u_u+0x2a>
    3ea0:	0f b7 45 fc          	movzwl -0x4(%rbp),%eax
    3ea4:	5d                   	pop    %rbp
    3ea5:	c3                   	retq   

0000000000003ea6 <safe_unary_minus_func_uint32_t_u>:
    3ea6:	f3 0f 1e fa          	endbr64 
    3eaa:	55                   	push   %rbp
    3eab:	48 89 e5             	mov    %rsp,%rbp
    3eae:	89 7d fc             	mov    %edi,-0x4(%rbp)
    3eb1:	8b 45 fc             	mov    -0x4(%rbp),%eax
    3eb4:	f7 d8                	neg    %eax
    3eb6:	5d                   	pop    %rbp
    3eb7:	c3                   	retq   

0000000000003eb8 <safe_add_func_uint32_t_u_u>:
    3eb8:	f3 0f 1e fa          	endbr64 
    3ebc:	55                   	push   %rbp
    3ebd:	48 89 e5             	mov    %rsp,%rbp
    3ec0:	89 7d fc             	mov    %edi,-0x4(%rbp)
    3ec3:	89 75 f8             	mov    %esi,-0x8(%rbp)
    3ec6:	8b 55 fc             	mov    -0x4(%rbp),%edx
    3ec9:	8b 45 f8             	mov    -0x8(%rbp),%eax
    3ecc:	01 d0                	add    %edx,%eax
    3ece:	5d                   	pop    %rbp
    3ecf:	c3                   	retq   

0000000000003ed0 <safe_sub_func_uint32_t_u_u>:
    3ed0:	f3 0f 1e fa          	endbr64 
    3ed4:	55                   	push   %rbp
    3ed5:	48 89 e5             	mov    %rsp,%rbp
    3ed8:	89 7d fc             	mov    %edi,-0x4(%rbp)
    3edb:	89 75 f8             	mov    %esi,-0x8(%rbp)
    3ede:	8b 45 fc             	mov    -0x4(%rbp),%eax
    3ee1:	2b 45 f8             	sub    -0x8(%rbp),%eax
    3ee4:	5d                   	pop    %rbp
    3ee5:	c3                   	retq   

0000000000003ee6 <safe_mul_func_uint32_t_u_u>:
    3ee6:	f3 0f 1e fa          	endbr64 
    3eea:	55                   	push   %rbp
    3eeb:	48 89 e5             	mov    %rsp,%rbp
    3eee:	89 7d fc             	mov    %edi,-0x4(%rbp)
    3ef1:	89 75 f8             	mov    %esi,-0x8(%rbp)
    3ef4:	8b 45 fc             	mov    -0x4(%rbp),%eax
    3ef7:	0f af 45 f8          	imul   -0x8(%rbp),%eax
    3efb:	5d                   	pop    %rbp
    3efc:	c3                   	retq   

0000000000003efd <safe_mod_func_uint32_t_u_u>:
    3efd:	f3 0f 1e fa          	endbr64 
    3f01:	55                   	push   %rbp
    3f02:	48 89 e5             	mov    %rsp,%rbp
    3f05:	89 7d fc             	mov    %edi,-0x4(%rbp)
    3f08:	89 75 f8             	mov    %esi,-0x8(%rbp)
    3f0b:	83 7d f8 00          	cmpl   $0x0,-0x8(%rbp)
    3f0f:	74 0f                	je     3f20 <safe_mod_func_uint32_t_u_u+0x23>
    3f11:	8b 45 fc             	mov    -0x4(%rbp),%eax
    3f14:	ba 00 00 00 00       	mov    $0x0,%edx
    3f19:	f7 75 f8             	divl   -0x8(%rbp)
    3f1c:	89 d0                	mov    %edx,%eax
    3f1e:	eb 03                	jmp    3f23 <safe_mod_func_uint32_t_u_u+0x26>
    3f20:	8b 45 fc             	mov    -0x4(%rbp),%eax
    3f23:	5d                   	pop    %rbp
    3f24:	c3                   	retq   

0000000000003f25 <safe_div_func_uint32_t_u_u>:
    3f25:	f3 0f 1e fa          	endbr64 
    3f29:	55                   	push   %rbp
    3f2a:	48 89 e5             	mov    %rsp,%rbp
    3f2d:	89 7d fc             	mov    %edi,-0x4(%rbp)
    3f30:	89 75 f8             	mov    %esi,-0x8(%rbp)
    3f33:	83 7d f8 00          	cmpl   $0x0,-0x8(%rbp)
    3f37:	74 0d                	je     3f46 <safe_div_func_uint32_t_u_u+0x21>
    3f39:	8b 45 fc             	mov    -0x4(%rbp),%eax
    3f3c:	ba 00 00 00 00       	mov    $0x0,%edx
    3f41:	f7 75 f8             	divl   -0x8(%rbp)
    3f44:	eb 03                	jmp    3f49 <safe_div_func_uint32_t_u_u+0x24>
    3f46:	8b 45 fc             	mov    -0x4(%rbp),%eax
    3f49:	5d                   	pop    %rbp
    3f4a:	c3                   	retq   

0000000000003f4b <safe_lshift_func_uint32_t_u_s>:
    3f4b:	f3 0f 1e fa          	endbr64 
    3f4f:	55                   	push   %rbp
    3f50:	48 89 e5             	mov    %rsp,%rbp
    3f53:	89 7d fc             	mov    %edi,-0x4(%rbp)
    3f56:	89 75 f8             	mov    %esi,-0x8(%rbp)
    3f59:	83 7d f8 00          	cmpl   $0x0,-0x8(%rbp)
    3f5d:	78 27                	js     3f86 <safe_lshift_func_uint32_t_u_s+0x3b>
    3f5f:	83 7d f8 1f          	cmpl   $0x1f,-0x8(%rbp)
    3f63:	7f 21                	jg     3f86 <safe_lshift_func_uint32_t_u_s+0x3b>
    3f65:	8b 45 f8             	mov    -0x8(%rbp),%eax
    3f68:	ba ff ff ff ff       	mov    $0xffffffff,%edx
    3f6d:	89 c1                	mov    %eax,%ecx
    3f6f:	d3 ea                	shr    %cl,%edx
    3f71:	89 d0                	mov    %edx,%eax
    3f73:	39 45 fc             	cmp    %eax,-0x4(%rbp)
    3f76:	77 0e                	ja     3f86 <safe_lshift_func_uint32_t_u_s+0x3b>
    3f78:	8b 45 f8             	mov    -0x8(%rbp),%eax
    3f7b:	8b 55 fc             	mov    -0x4(%rbp),%edx
    3f7e:	89 c1                	mov    %eax,%ecx
    3f80:	d3 e2                	shl    %cl,%edx
    3f82:	89 d0                	mov    %edx,%eax
    3f84:	eb 03                	jmp    3f89 <safe_lshift_func_uint32_t_u_s+0x3e>
    3f86:	8b 45 fc             	mov    -0x4(%rbp),%eax
    3f89:	5d                   	pop    %rbp
    3f8a:	c3                   	retq   

0000000000003f8b <safe_lshift_func_uint32_t_u_u>:
    3f8b:	f3 0f 1e fa          	endbr64 
    3f8f:	55                   	push   %rbp
    3f90:	48 89 e5             	mov    %rsp,%rbp
    3f93:	89 7d fc             	mov    %edi,-0x4(%rbp)
    3f96:	89 75 f8             	mov    %esi,-0x8(%rbp)
    3f99:	83 7d f8 1f          	cmpl   $0x1f,-0x8(%rbp)
    3f9d:	77 21                	ja     3fc0 <safe_lshift_func_uint32_t_u_u+0x35>
    3f9f:	8b 45 f8             	mov    -0x8(%rbp),%eax
    3fa2:	ba ff ff ff ff       	mov    $0xffffffff,%edx
    3fa7:	89 c1                	mov    %eax,%ecx
    3fa9:	d3 ea                	shr    %cl,%edx
    3fab:	89 d0                	mov    %edx,%eax
    3fad:	39 45 fc             	cmp    %eax,-0x4(%rbp)
    3fb0:	77 0e                	ja     3fc0 <safe_lshift_func_uint32_t_u_u+0x35>
    3fb2:	8b 45 f8             	mov    -0x8(%rbp),%eax
    3fb5:	8b 55 fc             	mov    -0x4(%rbp),%edx
    3fb8:	89 c1                	mov    %eax,%ecx
    3fba:	d3 e2                	shl    %cl,%edx
    3fbc:	89 d0                	mov    %edx,%eax
    3fbe:	eb 03                	jmp    3fc3 <safe_lshift_func_uint32_t_u_u+0x38>
    3fc0:	8b 45 fc             	mov    -0x4(%rbp),%eax
    3fc3:	5d                   	pop    %rbp
    3fc4:	c3                   	retq   

0000000000003fc5 <safe_rshift_func_uint32_t_u_s>:
    3fc5:	f3 0f 1e fa          	endbr64 
    3fc9:	55                   	push   %rbp
    3fca:	48 89 e5             	mov    %rsp,%rbp
    3fcd:	89 7d fc             	mov    %edi,-0x4(%rbp)
    3fd0:	89 75 f8             	mov    %esi,-0x8(%rbp)
    3fd3:	83 7d f8 00          	cmpl   $0x0,-0x8(%rbp)
    3fd7:	78 14                	js     3fed <safe_rshift_func_uint32_t_u_s+0x28>
    3fd9:	83 7d f8 1f          	cmpl   $0x1f,-0x8(%rbp)
    3fdd:	7f 0e                	jg     3fed <safe_rshift_func_uint32_t_u_s+0x28>
    3fdf:	8b 45 f8             	mov    -0x8(%rbp),%eax
    3fe2:	8b 55 fc             	mov    -0x4(%rbp),%edx
    3fe5:	89 c1                	mov    %eax,%ecx
    3fe7:	d3 ea                	shr    %cl,%edx
    3fe9:	89 d0                	mov    %edx,%eax
    3feb:	eb 03                	jmp    3ff0 <safe_rshift_func_uint32_t_u_s+0x2b>
    3fed:	8b 45 fc             	mov    -0x4(%rbp),%eax
    3ff0:	5d                   	pop    %rbp
    3ff1:	c3                   	retq   

0000000000003ff2 <safe_rshift_func_uint32_t_u_u>:
    3ff2:	f3 0f 1e fa          	endbr64 
    3ff6:	55                   	push   %rbp
    3ff7:	48 89 e5             	mov    %rsp,%rbp
    3ffa:	89 7d fc             	mov    %edi,-0x4(%rbp)
    3ffd:	89 75 f8             	mov    %esi,-0x8(%rbp)
    4000:	83 7d f8 1f          	cmpl   $0x1f,-0x8(%rbp)
    4004:	77 0e                	ja     4014 <safe_rshift_func_uint32_t_u_u+0x22>
    4006:	8b 45 f8             	mov    -0x8(%rbp),%eax
    4009:	8b 55 fc             	mov    -0x4(%rbp),%edx
    400c:	89 c1                	mov    %eax,%ecx
    400e:	d3 ea                	shr    %cl,%edx
    4010:	89 d0                	mov    %edx,%eax
    4012:	eb 03                	jmp    4017 <safe_rshift_func_uint32_t_u_u+0x25>
    4014:	8b 45 fc             	mov    -0x4(%rbp),%eax
    4017:	5d                   	pop    %rbp
    4018:	c3                   	retq   

0000000000004019 <safe_unary_minus_func_uint64_t_u>:
    4019:	f3 0f 1e fa          	endbr64 
    401d:	55                   	push   %rbp
    401e:	48 89 e5             	mov    %rsp,%rbp
    4021:	48 89 7d f8          	mov    %rdi,-0x8(%rbp)
    4025:	48 8b 45 f8          	mov    -0x8(%rbp),%rax
    4029:	48 f7 d8             	neg    %rax
    402c:	5d                   	pop    %rbp
    402d:	c3                   	retq   

000000000000402e <safe_add_func_uint64_t_u_u>:
    402e:	f3 0f 1e fa          	endbr64 
    4032:	55                   	push   %rbp
    4033:	48 89 e5             	mov    %rsp,%rbp
    4036:	48 89 7d f8          	mov    %rdi,-0x8(%rbp)
    403a:	48 89 75 f0          	mov    %rsi,-0x10(%rbp)
    403e:	48 8b 55 f8          	mov    -0x8(%rbp),%rdx
    4042:	48 8b 45 f0          	mov    -0x10(%rbp),%rax
    4046:	48 01 d0             	add    %rdx,%rax
    4049:	5d                   	pop    %rbp
    404a:	c3                   	retq   

000000000000404b <safe_sub_func_uint64_t_u_u>:
    404b:	f3 0f 1e fa          	endbr64 
    404f:	55                   	push   %rbp
    4050:	48 89 e5             	mov    %rsp,%rbp
    4053:	48 89 7d f8          	mov    %rdi,-0x8(%rbp)
    4057:	48 89 75 f0          	mov    %rsi,-0x10(%rbp)
    405b:	48 8b 45 f8          	mov    -0x8(%rbp),%rax
    405f:	48 2b 45 f0          	sub    -0x10(%rbp),%rax
    4063:	5d                   	pop    %rbp
    4064:	c3                   	retq   

0000000000004065 <safe_mul_func_uint64_t_u_u>:
    4065:	f3 0f 1e fa          	endbr64 
    4069:	55                   	push   %rbp
    406a:	48 89 e5             	mov    %rsp,%rbp
    406d:	48 89 7d f8          	mov    %rdi,-0x8(%rbp)
    4071:	48 89 75 f0          	mov    %rsi,-0x10(%rbp)
    4075:	48 8b 45 f8          	mov    -0x8(%rbp),%rax
    4079:	48 0f af 45 f0       	imul   -0x10(%rbp),%rax
    407e:	5d                   	pop    %rbp
    407f:	c3                   	retq   

0000000000004080 <safe_mod_func_uint64_t_u_u>:
    4080:	f3 0f 1e fa          	endbr64 
    4084:	55                   	push   %rbp
    4085:	48 89 e5             	mov    %rsp,%rbp
    4088:	48 89 7d f8          	mov    %rdi,-0x8(%rbp)
    408c:	48 89 75 f0          	mov    %rsi,-0x10(%rbp)
    4090:	48 83 7d f0 00       	cmpq   $0x0,-0x10(%rbp)
    4095:	74 12                	je     40a9 <safe_mod_func_uint64_t_u_u+0x29>
    4097:	48 8b 45 f8          	mov    -0x8(%rbp),%rax
    409b:	ba 00 00 00 00       	mov    $0x0,%edx
    40a0:	48 f7 75 f0          	divq   -0x10(%rbp)
    40a4:	48 89 d0             	mov    %rdx,%rax
    40a7:	eb 04                	jmp    40ad <safe_mod_func_uint64_t_u_u+0x2d>
    40a9:	48 8b 45 f8          	mov    -0x8(%rbp),%rax
    40ad:	5d                   	pop    %rbp
    40ae:	c3                   	retq   

00000000000040af <safe_div_func_uint64_t_u_u>:
    40af:	f3 0f 1e fa          	endbr64 
    40b3:	55                   	push   %rbp
    40b4:	48 89 e5             	mov    %rsp,%rbp
    40b7:	48 89 7d f8          	mov    %rdi,-0x8(%rbp)
    40bb:	48 89 75 f0          	mov    %rsi,-0x10(%rbp)
    40bf:	48 83 7d f0 00       	cmpq   $0x0,-0x10(%rbp)
    40c4:	74 0f                	je     40d5 <safe_div_func_uint64_t_u_u+0x26>
    40c6:	48 8b 45 f8          	mov    -0x8(%rbp),%rax
    40ca:	ba 00 00 00 00       	mov    $0x0,%edx
    40cf:	48 f7 75 f0          	divq   -0x10(%rbp)
    40d3:	eb 04                	jmp    40d9 <safe_div_func_uint64_t_u_u+0x2a>
    40d5:	48 8b 45 f8          	mov    -0x8(%rbp),%rax
    40d9:	5d                   	pop    %rbp
    40da:	c3                   	retq   

00000000000040db <safe_lshift_func_uint64_t_u_s>:
    40db:	f3 0f 1e fa          	endbr64 
    40df:	55                   	push   %rbp
    40e0:	48 89 e5             	mov    %rsp,%rbp
    40e3:	48 89 7d f8          	mov    %rdi,-0x8(%rbp)
    40e7:	89 75 f4             	mov    %esi,-0xc(%rbp)
    40ea:	83 7d f4 00          	cmpl   $0x0,-0xc(%rbp)
    40ee:	78 2f                	js     411f <safe_lshift_func_uint64_t_u_s+0x44>
    40f0:	83 7d f4 1f          	cmpl   $0x1f,-0xc(%rbp)
    40f4:	7f 29                	jg     411f <safe_lshift_func_uint64_t_u_s+0x44>
    40f6:	8b 45 f4             	mov    -0xc(%rbp),%eax
    40f9:	48 c7 c2 ff ff ff ff 	mov    $0xffffffffffffffff,%rdx
    4100:	89 c1                	mov    %eax,%ecx
    4102:	48 d3 ea             	shr    %cl,%rdx
    4105:	48 89 d0             	mov    %rdx,%rax
    4108:	48 39 45 f8          	cmp    %rax,-0x8(%rbp)
    410c:	77 11                	ja     411f <safe_lshift_func_uint64_t_u_s+0x44>
    410e:	8b 45 f4             	mov    -0xc(%rbp),%eax
    4111:	48 8b 55 f8          	mov    -0x8(%rbp),%rdx
    4115:	89 c1                	mov    %eax,%ecx
    4117:	48 d3 e2             	shl    %cl,%rdx
    411a:	48 89 d0             	mov    %rdx,%rax
    411d:	eb 04                	jmp    4123 <safe_lshift_func_uint64_t_u_s+0x48>
    411f:	48 8b 45 f8          	mov    -0x8(%rbp),%rax
    4123:	5d                   	pop    %rbp
    4124:	c3                   	retq   

0000000000004125 <safe_lshift_func_uint64_t_u_u>:
    4125:	f3 0f 1e fa          	endbr64 
    4129:	55                   	push   %rbp
    412a:	48 89 e5             	mov    %rsp,%rbp
    412d:	48 89 7d f8          	mov    %rdi,-0x8(%rbp)
    4131:	89 75 f4             	mov    %esi,-0xc(%rbp)
    4134:	83 7d f4 1f          	cmpl   $0x1f,-0xc(%rbp)
    4138:	77 29                	ja     4163 <safe_lshift_func_uint64_t_u_u+0x3e>
    413a:	8b 45 f4             	mov    -0xc(%rbp),%eax
    413d:	48 c7 c2 ff ff ff ff 	mov    $0xffffffffffffffff,%rdx
    4144:	89 c1                	mov    %eax,%ecx
    4146:	48 d3 ea             	shr    %cl,%rdx
    4149:	48 89 d0             	mov    %rdx,%rax
    414c:	48 39 45 f8          	cmp    %rax,-0x8(%rbp)
    4150:	77 11                	ja     4163 <safe_lshift_func_uint64_t_u_u+0x3e>
    4152:	8b 45 f4             	mov    -0xc(%rbp),%eax
    4155:	48 8b 55 f8          	mov    -0x8(%rbp),%rdx
    4159:	89 c1                	mov    %eax,%ecx
    415b:	48 d3 e2             	shl    %cl,%rdx
    415e:	48 89 d0             	mov    %rdx,%rax
    4161:	eb 04                	jmp    4167 <safe_lshift_func_uint64_t_u_u+0x42>
    4163:	48 8b 45 f8          	mov    -0x8(%rbp),%rax
    4167:	5d                   	pop    %rbp
    4168:	c3                   	retq   

0000000000004169 <safe_rshift_func_uint64_t_u_s>:
    4169:	f3 0f 1e fa          	endbr64 
    416d:	55                   	push   %rbp
    416e:	48 89 e5             	mov    %rsp,%rbp
    4171:	48 89 7d f8          	mov    %rdi,-0x8(%rbp)
    4175:	89 75 f4             	mov    %esi,-0xc(%rbp)
    4178:	83 7d f4 00          	cmpl   $0x0,-0xc(%rbp)
    417c:	78 17                	js     4195 <safe_rshift_func_uint64_t_u_s+0x2c>
    417e:	83 7d f4 1f          	cmpl   $0x1f,-0xc(%rbp)
    4182:	7f 11                	jg     4195 <safe_rshift_func_uint64_t_u_s+0x2c>
    4184:	8b 45 f4             	mov    -0xc(%rbp),%eax
    4187:	48 8b 55 f8          	mov    -0x8(%rbp),%rdx
    418b:	89 c1                	mov    %eax,%ecx
    418d:	48 d3 ea             	shr    %cl,%rdx
    4190:	48 89 d0             	mov    %rdx,%rax
    4193:	eb 04                	jmp    4199 <safe_rshift_func_uint64_t_u_s+0x30>
    4195:	48 8b 45 f8          	mov    -0x8(%rbp),%rax
    4199:	5d                   	pop    %rbp
    419a:	c3                   	retq   

000000000000419b <safe_rshift_func_uint64_t_u_u>:
    419b:	f3 0f 1e fa          	endbr64 
    419f:	55                   	push   %rbp
    41a0:	48 89 e5             	mov    %rsp,%rbp
    41a3:	48 89 7d f8          	mov    %rdi,-0x8(%rbp)
    41a7:	89 75 f4             	mov    %esi,-0xc(%rbp)
    41aa:	83 7d f4 1f          	cmpl   $0x1f,-0xc(%rbp)
    41ae:	77 11                	ja     41c1 <safe_rshift_func_uint64_t_u_u+0x26>
    41b0:	8b 45 f4             	mov    -0xc(%rbp),%eax
    41b3:	48 8b 55 f8          	mov    -0x8(%rbp),%rdx
    41b7:	89 c1                	mov    %eax,%ecx
    41b9:	48 d3 ea             	shr    %cl,%rdx
    41bc:	48 89 d0             	mov    %rdx,%rax
    41bf:	eb 04                	jmp    41c5 <safe_rshift_func_uint64_t_u_u+0x2a>
    41c1:	48 8b 45 f8          	mov    -0x8(%rbp),%rax
    41c5:	5d                   	pop    %rbp
    41c6:	c3                   	retq   

00000000000041c7 <safe_add_func_float_f_f>:
    41c7:	f3 0f 1e fa          	endbr64 
    41cb:	55                   	push   %rbp
    41cc:	48 89 e5             	mov    %rsp,%rbp
    41cf:	f3 0f 11 45 fc       	movss  %xmm0,-0x4(%rbp)
    41d4:	f3 0f 11 4d f8       	movss  %xmm1,-0x8(%rbp)
    41d9:	f3 0f 10 4d fc       	movss  -0x4(%rbp),%xmm1
    41de:	f3 0f 10 05 ee 74 00 	movss  0x74ee(%rip),%xmm0        # b6d4 <l_1802.4371+0xb4>
    41e5:	00 
    41e6:	f3 0f 59 c8          	mulss  %xmm0,%xmm1
    41ea:	f3 0f 10 55 f8       	movss  -0x8(%rbp),%xmm2
    41ef:	f3 0f 10 05 dd 74 00 	movss  0x74dd(%rip),%xmm0        # b6d4 <l_1802.4371+0xb4>
    41f6:	00 
    41f7:	f3 0f 59 c2          	mulss  %xmm2,%xmm0
    41fb:	f3 0f 58 c1          	addss  %xmm1,%xmm0
    41ff:	f3 0f 10 0d d9 74 00 	movss  0x74d9(%rip),%xmm1        # b6e0 <l_1802.4371+0xc0>
    4206:	00 
    4207:	0f 54 c1             	andps  %xmm1,%xmm0
    420a:	0f 2f 05 df 74 00 00 	comiss 0x74df(%rip),%xmm0        # b6f0 <l_1802.4371+0xd0>
    4211:	76 07                	jbe    421a <safe_add_func_float_f_f+0x53>
    4213:	f3 0f 10 45 fc       	movss  -0x4(%rbp),%xmm0
    4218:	eb 0a                	jmp    4224 <safe_add_func_float_f_f+0x5d>
    421a:	f3 0f 10 45 fc       	movss  -0x4(%rbp),%xmm0
    421f:	f3 0f 58 45 f8       	addss  -0x8(%rbp),%xmm0
    4224:	5d                   	pop    %rbp
    4225:	c3                   	retq   

0000000000004226 <safe_sub_func_float_f_f>:
    4226:	f3 0f 1e fa          	endbr64 
    422a:	55                   	push   %rbp
    422b:	48 89 e5             	mov    %rsp,%rbp
    422e:	f3 0f 11 45 fc       	movss  %xmm0,-0x4(%rbp)
    4233:	f3 0f 11 4d f8       	movss  %xmm1,-0x8(%rbp)
    4238:	f3 0f 10 4d fc       	movss  -0x4(%rbp),%xmm1
    423d:	f3 0f 10 05 8f 74 00 	movss  0x748f(%rip),%xmm0        # b6d4 <l_1802.4371+0xb4>
    4244:	00 
    4245:	f3 0f 59 c1          	mulss  %xmm1,%xmm0
    4249:	f3 0f 10 55 f8       	movss  -0x8(%rbp),%xmm2
    424e:	f3 0f 10 0d 7e 74 00 	movss  0x747e(%rip),%xmm1        # b6d4 <l_1802.4371+0xb4>
    4255:	00 
    4256:	f3 0f 59 ca          	mulss  %xmm2,%xmm1
    425a:	f3 0f 5c c1          	subss  %xmm1,%xmm0
    425e:	f3 0f 10 0d 7a 74 00 	movss  0x747a(%rip),%xmm1        # b6e0 <l_1802.4371+0xc0>
    4265:	00 
    4266:	0f 54 c1             	andps  %xmm1,%xmm0
    4269:	0f 2f 05 80 74 00 00 	comiss 0x7480(%rip),%xmm0        # b6f0 <l_1802.4371+0xd0>
    4270:	76 07                	jbe    4279 <safe_sub_func_float_f_f+0x53>
    4272:	f3 0f 10 45 fc       	movss  -0x4(%rbp),%xmm0
    4277:	eb 0a                	jmp    4283 <safe_sub_func_float_f_f+0x5d>
    4279:	f3 0f 10 45 fc       	movss  -0x4(%rbp),%xmm0
    427e:	f3 0f 5c 45 f8       	subss  -0x8(%rbp),%xmm0
    4283:	5d                   	pop    %rbp
    4284:	c3                   	retq   

0000000000004285 <safe_mul_func_float_f_f>:
    4285:	f3 0f 1e fa          	endbr64 
    4289:	55                   	push   %rbp
    428a:	48 89 e5             	mov    %rsp,%rbp
    428d:	f3 0f 11 45 fc       	movss  %xmm0,-0x4(%rbp)
    4292:	f3 0f 11 4d f8       	movss  %xmm1,-0x8(%rbp)
    4297:	f3 0f 10 4d fc       	movss  -0x4(%rbp),%xmm1
    429c:	f3 0f 10 05 50 74 00 	movss  0x7450(%rip),%xmm0        # b6f4 <l_1802.4371+0xd4>
    42a3:	00 
    42a4:	f3 0f 59 c8          	mulss  %xmm0,%xmm1
    42a8:	f3 0f 10 55 f8       	movss  -0x8(%rbp),%xmm2
    42ad:	f3 0f 10 05 43 74 00 	movss  0x7443(%rip),%xmm0        # b6f8 <l_1802.4371+0xd8>
    42b4:	00 
    42b5:	f3 0f 59 c2          	mulss  %xmm2,%xmm0
    42b9:	f3 0f 59 c1          	mulss  %xmm1,%xmm0
    42bd:	f3 0f 10 0d 1b 74 00 	movss  0x741b(%rip),%xmm1        # b6e0 <l_1802.4371+0xc0>
    42c4:	00 
    42c5:	0f 54 c1             	andps  %xmm1,%xmm0
    42c8:	0f 2f 05 2d 74 00 00 	comiss 0x742d(%rip),%xmm0        # b6fc <l_1802.4371+0xdc>
    42cf:	76 07                	jbe    42d8 <safe_mul_func_float_f_f+0x53>
    42d1:	f3 0f 10 45 fc       	movss  -0x4(%rbp),%xmm0
    42d6:	eb 0a                	jmp    42e2 <safe_mul_func_float_f_f+0x5d>
    42d8:	f3 0f 10 45 fc       	movss  -0x4(%rbp),%xmm0
    42dd:	f3 0f 59 45 f8       	mulss  -0x8(%rbp),%xmm0
    42e2:	5d                   	pop    %rbp
    42e3:	c3                   	retq   

00000000000042e4 <safe_div_func_float_f_f>:
    42e4:	f3 0f 1e fa          	endbr64 
    42e8:	55                   	push   %rbp
    42e9:	48 89 e5             	mov    %rsp,%rbp
    42ec:	f3 0f 11 45 fc       	movss  %xmm0,-0x4(%rbp)
    42f1:	f3 0f 11 4d f8       	movss  %xmm1,-0x8(%rbp)
    42f6:	f3 0f 10 45 f8       	movss  -0x8(%rbp),%xmm0
    42fb:	f3 0f 10 0d dd 73 00 	movss  0x73dd(%rip),%xmm1        # b6e0 <l_1802.4371+0xc0>
    4302:	00 
    4303:	0f 54 c8             	andps  %xmm0,%xmm1
    4306:	f3 0f 10 05 f2 73 00 	movss  0x73f2(%rip),%xmm0        # b700 <l_1802.4371+0xe0>
    430d:	00 
    430e:	0f 2f c1             	comiss %xmm1,%xmm0
    4311:	0f 97 c0             	seta   %al
    4314:	83 f0 01             	xor    $0x1,%eax
    4317:	84 c0                	test   %al,%al
    4319:	75 56                	jne    4371 <safe_div_func_float_f_f+0x8d>
    431b:	66 0f ef c0          	pxor   %xmm0,%xmm0
    431f:	0f 2e 45 f8          	ucomiss -0x8(%rbp),%xmm0
    4323:	7a 0a                	jp     432f <safe_div_func_float_f_f+0x4b>
    4325:	66 0f ef c0          	pxor   %xmm0,%xmm0
    4329:	0f 2e 45 f8          	ucomiss -0x8(%rbp),%xmm0
    432d:	74 4e                	je     437d <safe_div_func_float_f_f+0x99>
    432f:	f3 0f 10 4d fc       	movss  -0x4(%rbp),%xmm1
    4334:	f3 0f 10 05 c8 73 00 	movss  0x73c8(%rip),%xmm0        # b704 <l_1802.4371+0xe4>
    433b:	00 
    433c:	f3 0f 59 c1          	mulss  %xmm1,%xmm0
    4340:	f3 0f 10 55 f8       	movss  -0x8(%rbp),%xmm2
    4345:	f3 0f 10 0d bb 73 00 	movss  0x73bb(%rip),%xmm1        # b708 <l_1802.4371+0xe8>
    434c:	00 
    434d:	f3 0f 59 ca          	mulss  %xmm2,%xmm1
    4351:	f3 0f 5e c1          	divss  %xmm1,%xmm0
    4355:	f3 0f 10 0d 83 73 00 	movss  0x7383(%rip),%xmm1        # b6e0 <l_1802.4371+0xc0>
    435c:	00 
    435d:	0f 54 c1             	andps  %xmm1,%xmm0
    4360:	0f 2f 05 a5 73 00 00 	comiss 0x73a5(%rip),%xmm0        # b70c <l_1802.4371+0xec>
    4367:	0f 97 c0             	seta   %al
    436a:	83 f0 01             	xor    $0x1,%eax
    436d:	84 c0                	test   %al,%al
    436f:	74 0c                	je     437d <safe_div_func_float_f_f+0x99>
    4371:	f3 0f 10 45 fc       	movss  -0x4(%rbp),%xmm0
    4376:	f3 0f 5e 45 f8       	divss  -0x8(%rbp),%xmm0
    437b:	eb 05                	jmp    4382 <safe_div_func_float_f_f+0x9e>
    437d:	f3 0f 10 45 fc       	movss  -0x4(%rbp),%xmm0
    4382:	5d                   	pop    %rbp
    4383:	c3                   	retq   

0000000000004384 <safe_add_func_double_f_f>:
    4384:	f3 0f 1e fa          	endbr64 
    4388:	55                   	push   %rbp
    4389:	48 89 e5             	mov    %rsp,%rbp
    438c:	f2 0f 11 45 f8       	movsd  %xmm0,-0x8(%rbp)
    4391:	f2 0f 11 4d f0       	movsd  %xmm1,-0x10(%rbp)
    4396:	f2 0f 10 4d f8       	movsd  -0x8(%rbp),%xmm1
    439b:	f2 0f 10 05 6d 73 00 	movsd  0x736d(%rip),%xmm0        # b710 <l_1802.4371+0xf0>
    43a2:	00 
    43a3:	f2 0f 59 c8          	mulsd  %xmm0,%xmm1
    43a7:	f2 0f 10 55 f0       	movsd  -0x10(%rbp),%xmm2
    43ac:	f2 0f 10 05 5c 73 00 	movsd  0x735c(%rip),%xmm0        # b710 <l_1802.4371+0xf0>
    43b3:	00 
    43b4:	f2 0f 59 c2          	mulsd  %xmm2,%xmm0
    43b8:	f2 0f 58 c1          	addsd  %xmm1,%xmm0
    43bc:	f3 0f 7e 0d 5c 73 00 	movq   0x735c(%rip),%xmm1        # b720 <l_1802.4371+0x100>
    43c3:	00 
    43c4:	66 0f 54 c1          	andpd  %xmm1,%xmm0
    43c8:	66 0f 2f 05 60 73 00 	comisd 0x7360(%rip),%xmm0        # b730 <l_1802.4371+0x110>
    43cf:	00 
    43d0:	76 07                	jbe    43d9 <safe_add_func_double_f_f+0x55>
    43d2:	f2 0f 10 45 f8       	movsd  -0x8(%rbp),%xmm0
    43d7:	eb 0a                	jmp    43e3 <safe_add_func_double_f_f+0x5f>
    43d9:	f2 0f 10 45 f8       	movsd  -0x8(%rbp),%xmm0
    43de:	f2 0f 58 45 f0       	addsd  -0x10(%rbp),%xmm0
    43e3:	5d                   	pop    %rbp
    43e4:	c3                   	retq   

00000000000043e5 <safe_sub_func_double_f_f>:
    43e5:	f3 0f 1e fa          	endbr64 
    43e9:	55                   	push   %rbp
    43ea:	48 89 e5             	mov    %rsp,%rbp
    43ed:	f2 0f 11 45 f8       	movsd  %xmm0,-0x8(%rbp)
    43f2:	f2 0f 11 4d f0       	movsd  %xmm1,-0x10(%rbp)
    43f7:	f2 0f 10 4d f8       	movsd  -0x8(%rbp),%xmm1
    43fc:	f2 0f 10 05 0c 73 00 	movsd  0x730c(%rip),%xmm0        # b710 <l_1802.4371+0xf0>
    4403:	00 
    4404:	f2 0f 59 c1          	mulsd  %xmm1,%xmm0
    4408:	f2 0f 10 55 f0       	movsd  -0x10(%rbp),%xmm2
    440d:	f2 0f 10 0d fb 72 00 	movsd  0x72fb(%rip),%xmm1        # b710 <l_1802.4371+0xf0>
    4414:	00 
    4415:	f2 0f 59 ca          	mulsd  %xmm2,%xmm1
    4419:	f2 0f 5c c1          	subsd  %xmm1,%xmm0
    441d:	f3 0f 7e 0d fb 72 00 	movq   0x72fb(%rip),%xmm1        # b720 <l_1802.4371+0x100>
    4424:	00 
    4425:	66 0f 54 c1          	andpd  %xmm1,%xmm0
    4429:	66 0f 2f 05 ff 72 00 	comisd 0x72ff(%rip),%xmm0        # b730 <l_1802.4371+0x110>
    4430:	00 
    4431:	76 07                	jbe    443a <safe_sub_func_double_f_f+0x55>
    4433:	f2 0f 10 45 f8       	movsd  -0x8(%rbp),%xmm0
    4438:	eb 0a                	jmp    4444 <safe_sub_func_double_f_f+0x5f>
    443a:	f2 0f 10 45 f8       	movsd  -0x8(%rbp),%xmm0
    443f:	f2 0f 5c 45 f0       	subsd  -0x10(%rbp),%xmm0
    4444:	5d                   	pop    %rbp
    4445:	c3                   	retq   

0000000000004446 <safe_mul_func_double_f_f>:
    4446:	f3 0f 1e fa          	endbr64 
    444a:	55                   	push   %rbp
    444b:	48 89 e5             	mov    %rsp,%rbp
    444e:	f2 0f 11 45 f8       	movsd  %xmm0,-0x8(%rbp)
    4453:	f2 0f 11 4d f0       	movsd  %xmm1,-0x10(%rbp)
    4458:	f2 0f 10 4d f8       	movsd  -0x8(%rbp),%xmm1
    445d:	f2 0f 10 05 d3 72 00 	movsd  0x72d3(%rip),%xmm0        # b738 <l_1802.4371+0x118>
    4464:	00 
    4465:	f2 0f 59 c8          	mulsd  %xmm0,%xmm1
    4469:	f2 0f 10 55 f0       	movsd  -0x10(%rbp),%xmm2
    446e:	f2 0f 10 05 ca 72 00 	movsd  0x72ca(%rip),%xmm0        # b740 <l_1802.4371+0x120>
    4475:	00 
    4476:	f2 0f 59 c2          	mulsd  %xmm2,%xmm0
    447a:	f2 0f 59 c1          	mulsd  %xmm1,%xmm0
    447e:	f3 0f 7e 0d 9a 72 00 	movq   0x729a(%rip),%xmm1        # b720 <l_1802.4371+0x100>
    4485:	00 
    4486:	66 0f 54 c1          	andpd  %xmm1,%xmm0
    448a:	66 0f 2f 05 b6 72 00 	comisd 0x72b6(%rip),%xmm0        # b748 <l_1802.4371+0x128>
    4491:	00 
    4492:	76 07                	jbe    449b <safe_mul_func_double_f_f+0x55>
    4494:	f2 0f 10 45 f8       	movsd  -0x8(%rbp),%xmm0
    4499:	eb 0a                	jmp    44a5 <safe_mul_func_double_f_f+0x5f>
    449b:	f2 0f 10 45 f8       	movsd  -0x8(%rbp),%xmm0
    44a0:	f2 0f 59 45 f0       	mulsd  -0x10(%rbp),%xmm0
    44a5:	5d                   	pop    %rbp
    44a6:	c3                   	retq   

00000000000044a7 <safe_div_func_double_f_f>:
    44a7:	f3 0f 1e fa          	endbr64 
    44ab:	55                   	push   %rbp
    44ac:	48 89 e5             	mov    %rsp,%rbp
    44af:	f2 0f 11 45 f8       	movsd  %xmm0,-0x8(%rbp)
    44b4:	f2 0f 11 4d f0       	movsd  %xmm1,-0x10(%rbp)
    44b9:	f2 0f 10 45 f0       	movsd  -0x10(%rbp),%xmm0
    44be:	f3 0f 7e 0d 5a 72 00 	movq   0x725a(%rip),%xmm1        # b720 <l_1802.4371+0x100>
    44c5:	00 
    44c6:	66 0f 54 c8          	andpd  %xmm0,%xmm1
    44ca:	f2 0f 10 05 7e 72 00 	movsd  0x727e(%rip),%xmm0        # b750 <l_1802.4371+0x130>
    44d1:	00 
    44d2:	66 0f 2f c1          	comisd %xmm1,%xmm0
    44d6:	0f 97 c0             	seta   %al
    44d9:	83 f0 01             	xor    $0x1,%eax
    44dc:	84 c0                	test   %al,%al
    44de:	75 5a                	jne    453a <safe_div_func_double_f_f+0x93>
    44e0:	66 0f ef c0          	pxor   %xmm0,%xmm0
    44e4:	66 0f 2e 45 f0       	ucomisd -0x10(%rbp),%xmm0
    44e9:	7a 0b                	jp     44f6 <safe_div_func_double_f_f+0x4f>
    44eb:	66 0f ef c0          	pxor   %xmm0,%xmm0
    44ef:	66 0f 2e 45 f0       	ucomisd -0x10(%rbp),%xmm0
    44f4:	74 50                	je     4546 <safe_div_func_double_f_f+0x9f>
    44f6:	f2 0f 10 4d f8       	movsd  -0x8(%rbp),%xmm1
    44fb:	f2 0f 10 05 55 72 00 	movsd  0x7255(%rip),%xmm0        # b758 <l_1802.4371+0x138>
    4502:	00 
    4503:	f2 0f 59 c1          	mulsd  %xmm1,%xmm0
    4507:	f2 0f 10 55 f0       	movsd  -0x10(%rbp),%xmm2
    450c:	f2 0f 10 0d 4c 72 00 	movsd  0x724c(%rip),%xmm1        # b760 <l_1802.4371+0x140>
    4513:	00 
    4514:	f2 0f 59 ca          	mulsd  %xmm2,%xmm1
    4518:	f2 0f 5e c1          	divsd  %xmm1,%xmm0
    451c:	f3 0f 7e 0d fc 71 00 	movq   0x71fc(%rip),%xmm1        # b720 <l_1802.4371+0x100>
    4523:	00 
    4524:	66 0f 54 c1          	andpd  %xmm1,%xmm0
    4528:	66 0f 2f 05 38 72 00 	comisd 0x7238(%rip),%xmm0        # b768 <l_1802.4371+0x148>
    452f:	00 
    4530:	0f 97 c0             	seta   %al
    4533:	83 f0 01             	xor    $0x1,%eax
    4536:	84 c0                	test   %al,%al
    4538:	74 0c                	je     4546 <safe_div_func_double_f_f+0x9f>
    453a:	f2 0f 10 45 f8       	movsd  -0x8(%rbp),%xmm0
    453f:	f2 0f 5e 45 f0       	divsd  -0x10(%rbp),%xmm0
    4544:	eb 05                	jmp    454b <safe_div_func_double_f_f+0xa4>
    4546:	f2 0f 10 45 f8       	movsd  -0x8(%rbp),%xmm0
    454b:	5d                   	pop    %rbp
    454c:	c3                   	retq   

000000000000454d <safe_convert_func_float_to_int32_t>:
    454d:	f3 0f 1e fa          	endbr64 
    4551:	55                   	push   %rbp
    4552:	48 89 e5             	mov    %rsp,%rbp
    4555:	f3 0f 11 45 fc       	movss  %xmm0,-0x4(%rbp)
    455a:	f3 0f 10 05 0e 72 00 	movss  0x720e(%rip),%xmm0        # b770 <l_1802.4371+0x150>
    4561:	00 
    4562:	0f 2f 45 fc          	comiss -0x4(%rbp),%xmm0
    4566:	0f 93 c0             	setae  %al
    4569:	83 f0 01             	xor    $0x1,%eax
    456c:	84 c0                	test   %al,%al
    456e:	74 21                	je     4591 <safe_convert_func_float_to_int32_t+0x44>
    4570:	f3 0f 10 45 fc       	movss  -0x4(%rbp),%xmm0
    4575:	0f 2f 05 f8 71 00 00 	comiss 0x71f8(%rip),%xmm0        # b774 <l_1802.4371+0x154>
    457c:	0f 93 c0             	setae  %al
    457f:	83 f0 01             	xor    $0x1,%eax
    4582:	84 c0                	test   %al,%al
    4584:	74 0b                	je     4591 <safe_convert_func_float_to_int32_t+0x44>
    4586:	f3 0f 10 45 fc       	movss  -0x4(%rbp),%xmm0
    458b:	f3 0f 2c c0          	cvttss2si %xmm0,%eax
    458f:	eb 05                	jmp    4596 <safe_convert_func_float_to_int32_t+0x49>
    4591:	b8 ff ff ff 7f       	mov    $0x7fffffff,%eax
    4596:	5d                   	pop    %rbp
    4597:	c3                   	retq   

0000000000004598 <crc32_gentab>:
    4598:	f3 0f 1e fa          	endbr64 
    459c:	55                   	push   %rbp
    459d:	48 89 e5             	mov    %rsp,%rbp
    45a0:	c7 45 fc 20 83 b8 ed 	movl   $0xedb88320,-0x4(%rbp)
    45a7:	c7 45 f4 00 00 00 00 	movl   $0x0,-0xc(%rbp)
    45ae:	eb 51                	jmp    4601 <crc32_gentab+0x69>
    45b0:	8b 45 f4             	mov    -0xc(%rbp),%eax
    45b3:	89 45 f0             	mov    %eax,-0x10(%rbp)
    45b6:	c7 45 f8 08 00 00 00 	movl   $0x8,-0x8(%rbp)
    45bd:	eb 1e                	jmp    45dd <crc32_gentab+0x45>
    45bf:	8b 45 f0             	mov    -0x10(%rbp),%eax
    45c2:	83 e0 01             	and    $0x1,%eax
    45c5:	85 c0                	test   %eax,%eax
    45c7:	74 0d                	je     45d6 <crc32_gentab+0x3e>
    45c9:	8b 45 f0             	mov    -0x10(%rbp),%eax
    45cc:	d1 e8                	shr    %eax
    45ce:	33 45 fc             	xor    -0x4(%rbp),%eax
    45d1:	89 45 f0             	mov    %eax,-0x10(%rbp)
    45d4:	eb 03                	jmp    45d9 <crc32_gentab+0x41>
    45d6:	d1 6d f0             	shrl   -0x10(%rbp)
    45d9:	83 6d f8 01          	subl   $0x1,-0x8(%rbp)
    45dd:	83 7d f8 00          	cmpl   $0x0,-0x8(%rbp)
    45e1:	7f dc                	jg     45bf <crc32_gentab+0x27>
    45e3:	8b 45 f4             	mov    -0xc(%rbp),%eax
    45e6:	48 98                	cltq   
    45e8:	48 8d 0c 85 00 00 00 	lea    0x0(,%rax,4),%rcx
    45ef:	00 
    45f0:	48 8d 15 a9 a5 00 00 	lea    0xa5a9(%rip),%rdx        # eba0 <crc32_tab>
    45f7:	8b 45 f0             	mov    -0x10(%rbp),%eax
    45fa:	89 04 11             	mov    %eax,(%rcx,%rdx,1)
    45fd:	83 45 f4 01          	addl   $0x1,-0xc(%rbp)
    4601:	81 7d f4 ff 00 00 00 	cmpl   $0xff,-0xc(%rbp)
    4608:	7e a6                	jle    45b0 <crc32_gentab+0x18>
    460a:	90                   	nop
    460b:	90                   	nop
    460c:	5d                   	pop    %rbp
    460d:	c3                   	retq   

000000000000460e <crc32_byte>:
    460e:	f3 0f 1e fa          	endbr64 
    4612:	55                   	push   %rbp
    4613:	48 89 e5             	mov    %rsp,%rbp
    4616:	89 f8                	mov    %edi,%eax
    4618:	88 45 fc             	mov    %al,-0x4(%rbp)
    461b:	8b 05 ff 99 00 00    	mov    0x99ff(%rip),%eax        # e020 <crc32_context>
    4621:	c1 e8 08             	shr    $0x8,%eax
    4624:	89 c1                	mov    %eax,%ecx
    4626:	0f b6 55 fc          	movzbl -0x4(%rbp),%edx
    462a:	8b 05 f0 99 00 00    	mov    0x99f0(%rip),%eax        # e020 <crc32_context>
    4630:	31 d0                	xor    %edx,%eax
    4632:	0f b6 c0             	movzbl %al,%eax
    4635:	89 c0                	mov    %eax,%eax
    4637:	48 8d 14 85 00 00 00 	lea    0x0(,%rax,4),%rdx
    463e:	00 
    463f:	48 8d 05 5a a5 00 00 	lea    0xa55a(%rip),%rax        # eba0 <crc32_tab>
    4646:	8b 04 02             	mov    (%rdx,%rax,1),%eax
    4649:	31 c8                	xor    %ecx,%eax
    464b:	89 05 cf 99 00 00    	mov    %eax,0x99cf(%rip)        # e020 <crc32_context>
    4651:	90                   	nop
    4652:	5d                   	pop    %rbp
    4653:	c3                   	retq   

0000000000004654 <crc32_8bytes>:
    4654:	f3 0f 1e fa          	endbr64 
    4658:	55                   	push   %rbp
    4659:	48 89 e5             	mov    %rsp,%rbp
    465c:	48 83 ec 08          	sub    $0x8,%rsp
    4660:	48 89 7d f8          	mov    %rdi,-0x8(%rbp)
    4664:	48 8b 45 f8          	mov    -0x8(%rbp),%rax
    4668:	0f b6 c0             	movzbl %al,%eax
    466b:	89 c7                	mov    %eax,%edi
    466d:	e8 9c ff ff ff       	callq  460e <crc32_byte>
    4672:	48 8b 45 f8          	mov    -0x8(%rbp),%rax
    4676:	48 c1 e8 08          	shr    $0x8,%rax
    467a:	0f b6 c0             	movzbl %al,%eax
    467d:	89 c7                	mov    %eax,%edi
    467f:	e8 8a ff ff ff       	callq  460e <crc32_byte>
    4684:	48 8b 45 f8          	mov    -0x8(%rbp),%rax
    4688:	48 c1 e8 10          	shr    $0x10,%rax
    468c:	0f b6 c0             	movzbl %al,%eax
    468f:	89 c7                	mov    %eax,%edi
    4691:	e8 78 ff ff ff       	callq  460e <crc32_byte>
    4696:	48 8b 45 f8          	mov    -0x8(%rbp),%rax
    469a:	48 c1 e8 18          	shr    $0x18,%rax
    469e:	0f b6 c0             	movzbl %al,%eax
    46a1:	89 c7                	mov    %eax,%edi
    46a3:	e8 66 ff ff ff       	callq  460e <crc32_byte>
    46a8:	48 8b 45 f8          	mov    -0x8(%rbp),%rax
    46ac:	48 c1 e8 20          	shr    $0x20,%rax
    46b0:	0f b6 c0             	movzbl %al,%eax
    46b3:	89 c7                	mov    %eax,%edi
    46b5:	e8 54 ff ff ff       	callq  460e <crc32_byte>
    46ba:	48 8b 45 f8          	mov    -0x8(%rbp),%rax
    46be:	48 c1 e8 28          	shr    $0x28,%rax
    46c2:	0f b6 c0             	movzbl %al,%eax
    46c5:	89 c7                	mov    %eax,%edi
    46c7:	e8 42 ff ff ff       	callq  460e <crc32_byte>
    46cc:	48 8b 45 f8          	mov    -0x8(%rbp),%rax
    46d0:	48 c1 e8 30          	shr    $0x30,%rax
    46d4:	0f b6 c0             	movzbl %al,%eax
    46d7:	89 c7                	mov    %eax,%edi
    46d9:	e8 30 ff ff ff       	callq  460e <crc32_byte>
    46de:	48 8b 45 f8          	mov    -0x8(%rbp),%rax
    46e2:	48 c1 e8 38          	shr    $0x38,%rax
    46e6:	0f b6 c0             	movzbl %al,%eax
    46e9:	89 c7                	mov    %eax,%edi
    46eb:	e8 1e ff ff ff       	callq  460e <crc32_byte>
    46f0:	90                   	nop
    46f1:	c9                   	leaveq 
    46f2:	c3                   	retq   

00000000000046f3 <transparent_crc>:
    46f3:	f3 0f 1e fa          	endbr64 
    46f7:	55                   	push   %rbp
    46f8:	48 89 e5             	mov    %rsp,%rbp
    46fb:	48 83 ec 20          	sub    $0x20,%rsp
    46ff:	48 89 7d f8          	mov    %rdi,-0x8(%rbp)
    4703:	48 89 75 f0          	mov    %rsi,-0x10(%rbp)
    4707:	89 55 ec             	mov    %edx,-0x14(%rbp)
    470a:	48 8b 45 f8          	mov    -0x8(%rbp),%rax
    470e:	48 89 c7             	mov    %rax,%rdi
    4711:	e8 3e ff ff ff       	callq  4654 <crc32_8bytes>
    4716:	83 7d ec 00          	cmpl   $0x0,-0x14(%rbp)
    471a:	74 22                	je     473e <transparent_crc+0x4b>
    471c:	8b 05 fe 98 00 00    	mov    0x98fe(%rip),%eax        # e020 <crc32_context>
    4722:	f7 d0                	not    %eax
    4724:	89 c2                	mov    %eax,%edx
    4726:	48 8b 45 f0          	mov    -0x10(%rbp),%rax
    472a:	48 89 c6             	mov    %rax,%rsi
    472d:	48 8d 3d fc 58 00 00 	lea    0x58fc(%rip),%rdi        # a030 <_IO_stdin_used+0x30>
    4734:	b8 00 00 00 00       	mov    $0x0,%eax
    4739:	e8 42 e9 ff ff       	callq  3080 <printf@plt>
    473e:	90                   	nop
    473f:	c9                   	leaveq 
    4740:	c3                   	retq   

0000000000004741 <transparent_crc_bytes>:
    4741:	f3 0f 1e fa          	endbr64 
    4745:	55                   	push   %rbp
    4746:	48 89 e5             	mov    %rsp,%rbp
    4749:	48 83 ec 30          	sub    $0x30,%rsp
    474d:	48 89 7d e8          	mov    %rdi,-0x18(%rbp)
    4751:	89 75 e4             	mov    %esi,-0x1c(%rbp)
    4754:	48 89 55 d8          	mov    %rdx,-0x28(%rbp)
    4758:	89 4d e0             	mov    %ecx,-0x20(%rbp)
    475b:	c7 45 fc 00 00 00 00 	movl   $0x0,-0x4(%rbp)
    4762:	eb 1e                	jmp    4782 <transparent_crc_bytes+0x41>
    4764:	8b 45 fc             	mov    -0x4(%rbp),%eax
    4767:	48 63 d0             	movslq %eax,%rdx
    476a:	48 8b 45 e8          	mov    -0x18(%rbp),%rax
    476e:	48 01 d0             	add    %rdx,%rax
    4771:	0f b6 00             	movzbl (%rax),%eax
    4774:	0f b6 c0             	movzbl %al,%eax
    4777:	89 c7                	mov    %eax,%edi
    4779:	e8 90 fe ff ff       	callq  460e <crc32_byte>
    477e:	83 45 fc 01          	addl   $0x1,-0x4(%rbp)
    4782:	8b 45 fc             	mov    -0x4(%rbp),%eax
    4785:	3b 45 e4             	cmp    -0x1c(%rbp),%eax
    4788:	7c da                	jl     4764 <transparent_crc_bytes+0x23>
    478a:	83 7d e0 00          	cmpl   $0x0,-0x20(%rbp)
    478e:	74 22                	je     47b2 <transparent_crc_bytes+0x71>
    4790:	8b 05 8a 98 00 00    	mov    0x988a(%rip),%eax        # e020 <crc32_context>
    4796:	f7 d0                	not    %eax
    4798:	89 c2                	mov    %eax,%edx
    479a:	48 8b 45 d8          	mov    -0x28(%rbp),%rax
    479e:	48 89 c6             	mov    %rax,%rsi
    47a1:	48 8d 3d 88 58 00 00 	lea    0x5888(%rip),%rdi        # a030 <_IO_stdin_used+0x30>
    47a8:	b8 00 00 00 00       	mov    $0x0,%eax
    47ad:	e8 ce e8 ff ff       	callq  3080 <printf@plt>
    47b2:	90                   	nop
    47b3:	c9                   	leaveq 
    47b4:	c3                   	retq   

00000000000047b5 <func_1>:
    47b5:	f3 0f 1e fa          	endbr64 
    47b9:	55                   	push   %rbp
    47ba:	48 89 e5             	mov    %rsp,%rbp
    47bd:	41 54                	push   %r12
    47bf:	53                   	push   %rbx
    47c0:	48 83 ec 50          	sub    $0x50,%rsp
    47c4:	64 48 8b 04 25 28 00 	mov    %fs:0x28,%rax
    47cb:	00 00 
    47cd:	48 89 45 e8          	mov    %rax,-0x18(%rbp)
    47d1:	31 c0                	xor    %eax,%eax
    47d3:	48 c7 45 b0 00 00 00 	movq   $0x0,-0x50(%rbp)
    47da:	00 
    47db:	48 8d 45 b0          	lea    -0x50(%rbp),%rax
    47df:	48 89 45 b8          	mov    %rax,-0x48(%rbp)
    47e3:	c7 45 a8 c2 15 77 95 	movl   $0x957715c2,-0x58(%rbp)
    47ea:	c6 45 a7 f9          	movb   $0xf9,-0x59(%rbp)
    47ee:	48 8d 05 43 98 00 00 	lea    0x9843(%rip),%rax        # e038 <g_148>
    47f5:	48 89 45 c0          	mov    %rax,-0x40(%rbp)
    47f9:	48 8d 45 a8          	lea    -0x58(%rbp),%rax
    47fd:	48 89 45 c8          	mov    %rax,-0x38(%rbp)
    4801:	c7 45 ac 00 00 00 00 	movl   $0x0,-0x54(%rbp)
    4808:	eb 12                	jmp    481c <func_1+0x67>
    480a:	8b 45 ac             	mov    -0x54(%rbp),%eax
    480d:	48 98                	cltq   
    480f:	48 c7 44 c5 d0 00 00 	movq   $0x0,-0x30(%rbp,%rax,8)
    4816:	00 00 
    4818:	83 45 ac 01          	addl   $0x1,-0x54(%rbp)
    481c:	83 7d ac 02          	cmpl   $0x2,-0x54(%rbp)
    4820:	7e e8                	jle    480a <func_1+0x55>
    4822:	4c 8b 25 7f 9e 00 00 	mov    0x9e7f(%rip),%r12        # e6a8 <g_669>
    4829:	48 8b 05 b8 9e 00 00 	mov    0x9eb8(%rip),%rax        # e6e8 <g_1063>
    4830:	48 8b 00             	mov    (%rax),%rax
    4833:	48 8b 10             	mov    (%rax),%rdx
    4836:	48 8b 05 ab 9e 00 00 	mov    0x9eab(%rip),%rax        # e6e8 <g_1063>
    483d:	48 8b 00             	mov    (%rax),%rax
    4840:	48 8b 00             	mov    (%rax),%rax
    4843:	48 8b 12             	mov    (%rdx),%rdx
    4846:	48 89 10             	mov    %rdx,(%rax)
    4849:	48 8b 18             	mov    (%rax),%rbx
    484c:	48 8b 05 d5 97 00 00 	mov    0x97d5(%rip),%rax        # e028 <g_16>
    4853:	89 c7                	mov    %eax,%edi
    4855:	e8 dc 1f 00 00       	callq  6836 <func_14>
    485a:	0f b6 d0             	movzbl %al,%edx
    485d:	8b 45 a8             	mov    -0x58(%rbp),%eax
    4860:	21 d0                	and    %edx,%eax
    4862:	89 45 a8             	mov    %eax,-0x58(%rbp)
    4865:	48 8b 05 a4 9d 00 00 	mov    0x9da4(%rip),%rax        # e610 <g_438>
    486c:	48 8b 00             	mov    (%rax),%rax
    486f:	48 85 c0             	test   %rax,%rax
    4872:	66 0f be 45 a7       	movsbw -0x59(%rbp),%ax
    4877:	0f b7 c0             	movzwl %ax,%eax
    487a:	be 09 00 00 00       	mov    $0x9,%esi
    487f:	89 c7                	mov    %eax,%edi
    4881:	e8 80 f5 ff ff       	callq  3e06 <safe_lshift_func_uint16_t_u_u>
    4886:	89 c2                	mov    %eax,%edx
    4888:	48 8b 45 c0          	mov    -0x40(%rbp),%rax
    488c:	66 89 10             	mov    %dx,(%rax)
    488f:	48 8b 45 c0          	mov    -0x40(%rbp),%rax
    4893:	0f b7 00             	movzwl (%rax),%eax
    4896:	98                   	cwtl   
    4897:	be 00 00 00 00       	mov    $0x0,%esi
    489c:	89 c7                	mov    %eax,%edi
    489e:	e8 3e ec ff ff       	callq  34e1 <safe_lshift_func_int16_t_s_u>
    48a3:	0f b7 c8             	movzwl %ax,%ecx
    48a6:	48 8b 45 b8          	mov    -0x48(%rbp),%rax
    48aa:	48 c7 00 00 00 00 00 	movq   $0x0,(%rax)
    48b1:	48 8b 45 b8          	mov    -0x48(%rbp),%rax
    48b5:	48 8b 00             	mov    (%rax),%rax
    48b8:	48 89 da             	mov    %rbx,%rdx
    48bb:	89 ce                	mov    %ecx,%esi
    48bd:	48 89 c7             	mov    %rax,%rdi
    48c0:	e8 55 13 00 00       	callq  5c1a <func_6>
    48c5:	49 8b 14 24          	mov    (%r12),%rdx
    48c9:	be 00 00 00 00       	mov    $0x0,%esi
    48ce:	48 89 c7             	mov    %rax,%rdi
    48d1:	e8 2b 00 00 00       	callq  4901 <func_2>
    48d6:	48 89 45 c8          	mov    %rax,-0x38(%rbp)
    48da:	48 8b 05 c7 9d 00 00 	mov    0x9dc7(%rip),%rax        # e6a8 <g_669>
    48e1:	48 8b 00             	mov    (%rax),%rax
    48e4:	48 8b 4d e8          	mov    -0x18(%rbp),%rcx
    48e8:	64 48 33 0c 25 28 00 	xor    %fs:0x28,%rcx
    48ef:	00 00 
    48f1:	74 05                	je     48f8 <func_1+0x143>
    48f3:	e8 78 e7 ff ff       	callq  3070 <__stack_chk_fail@plt>
    48f8:	48 83 c4 50          	add    $0x50,%rsp
    48fc:	5b                   	pop    %rbx
    48fd:	41 5c                	pop    %r12
    48ff:	5d                   	pop    %rbp
    4900:	c3                   	retq   

0000000000004901 <func_2>:
    4901:	f3 0f 1e fa          	endbr64 
    4905:	55                   	push   %rbp
    4906:	48 89 e5             	mov    %rsp,%rbp
    4909:	53                   	push   %rbx
    490a:	48 81 ec 48 05 00 00 	sub    $0x548,%rsp
    4911:	48 89 bd c8 fa ff ff 	mov    %rdi,-0x538(%rbp)
    4918:	48 89 b5 c0 fa ff ff 	mov    %rsi,-0x540(%rbp)
    491f:	48 89 95 b8 fa ff ff 	mov    %rdx,-0x548(%rbp)
    4926:	64 48 8b 04 25 28 00 	mov    %fs:0x28,%rax
    492d:	00 00 
    492f:	48 89 45 e8          	mov    %rax,-0x18(%rbp)
    4933:	31 c0                	xor    %eax,%eax
    4935:	c7 85 10 fb ff ff 07 	movl   $0x7,-0x4f0(%rbp)
    493c:	00 00 00 
    493f:	c7 85 e0 fc ff ff 35 	movl   $0x3b22e235,-0x320(%rbp)
    4946:	e2 22 3b 
    4949:	c7 85 e4 fc ff ff 35 	movl   $0x3b22e235,-0x31c(%rbp)
    4950:	e2 22 3b 
    4953:	c7 85 e8 fc ff ff 35 	movl   $0x3b22e235,-0x318(%rbp)
    495a:	e2 22 3b 
    495d:	c7 85 ec fc ff ff 35 	movl   $0x3b22e235,-0x314(%rbp)
    4964:	e2 22 3b 
    4967:	c7 85 f0 fc ff ff 35 	movl   $0x3b22e235,-0x310(%rbp)
    496e:	e2 22 3b 
    4971:	c7 85 f4 fc ff ff 35 	movl   $0x3b22e235,-0x30c(%rbp)
    4978:	e2 22 3b 
    497b:	c7 85 f8 fc ff ff 35 	movl   $0x3b22e235,-0x308(%rbp)
    4982:	e2 22 3b 
    4985:	48 8d 85 e0 fc ff ff 	lea    -0x320(%rbp),%rax
    498c:	48 83 c0 08          	add    $0x8,%rax
    4990:	48 89 85 50 fb ff ff 	mov    %rax,-0x4b0(%rbp)
    4997:	48 b8 72 e2 27 fc 24 	movabs $0xd4874224fc27e272,%rax
    499e:	42 87 d4 
    49a1:	48 89 85 90 fb ff ff 	mov    %rax,-0x470(%rbp)
    49a8:	48 8d 05 59 9f 00 00 	lea    0x9f59(%rip),%rax        # e908 <g_1395>
    49af:	48 89 85 98 fb ff ff 	mov    %rax,-0x468(%rbp)
    49b6:	48 8d 05 48 97 00 00 	lea    0x9748(%rip),%rax        # e105 <g_1402+0x5>
    49bd:	48 89 85 90 fe ff ff 	mov    %rax,-0x170(%rbp)
    49c4:	48 8d 05 3a 97 00 00 	lea    0x973a(%rip),%rax        # e105 <g_1402+0x5>
    49cb:	48 89 85 98 fe ff ff 	mov    %rax,-0x168(%rbp)
    49d2:	48 8d 05 59 97 00 00 	lea    0x9759(%rip),%rax        # e132 <g_1419>
    49d9:	48 89 85 a0 fe ff ff 	mov    %rax,-0x160(%rbp)
    49e0:	48 8d 05 c1 a5 00 00 	lea    0xa5c1(%rip),%rax        # efa8 <g_100>
    49e7:	48 89 85 a8 fe ff ff 	mov    %rax,-0x158(%rbp)
    49ee:	48 8d 05 3d 97 00 00 	lea    0x973d(%rip),%rax        # e132 <g_1419>
    49f5:	48 89 85 b0 fe ff ff 	mov    %rax,-0x150(%rbp)
    49fc:	48 8d 05 02 97 00 00 	lea    0x9702(%rip),%rax        # e105 <g_1402+0x5>
    4a03:	48 89 85 b8 fe ff ff 	mov    %rax,-0x148(%rbp)
    4a0a:	48 8d 05 f4 96 00 00 	lea    0x96f4(%rip),%rax        # e105 <g_1402+0x5>
    4a11:	48 89 85 c0 fe ff ff 	mov    %rax,-0x140(%rbp)
    4a18:	48 8d 05 13 97 00 00 	lea    0x9713(%rip),%rax        # e132 <g_1419>
    4a1f:	48 89 85 c8 fe ff ff 	mov    %rax,-0x138(%rbp)
    4a26:	48 8d 05 7b a5 00 00 	lea    0xa57b(%rip),%rax        # efa8 <g_100>
    4a2d:	48 89 85 d0 fe ff ff 	mov    %rax,-0x130(%rbp)
    4a34:	48 8d 05 f7 96 00 00 	lea    0x96f7(%rip),%rax        # e132 <g_1419>
    4a3b:	48 89 85 d8 fe ff ff 	mov    %rax,-0x128(%rbp)
    4a42:	48 8d 05 bc 96 00 00 	lea    0x96bc(%rip),%rax        # e105 <g_1402+0x5>
    4a49:	48 89 85 e0 fe ff ff 	mov    %rax,-0x120(%rbp)
    4a50:	48 8d 05 ae 96 00 00 	lea    0x96ae(%rip),%rax        # e105 <g_1402+0x5>
    4a57:	48 89 85 e8 fe ff ff 	mov    %rax,-0x118(%rbp)
    4a5e:	48 8d 05 cd 96 00 00 	lea    0x96cd(%rip),%rax        # e132 <g_1419>
    4a65:	48 89 85 f0 fe ff ff 	mov    %rax,-0x110(%rbp)
    4a6c:	48 8d 05 35 a5 00 00 	lea    0xa535(%rip),%rax        # efa8 <g_100>
    4a73:	48 89 85 f8 fe ff ff 	mov    %rax,-0x108(%rbp)
    4a7a:	48 8d 05 b1 96 00 00 	lea    0x96b1(%rip),%rax        # e132 <g_1419>
    4a81:	48 89 85 00 ff ff ff 	mov    %rax,-0x100(%rbp)
    4a88:	48 8d 05 76 96 00 00 	lea    0x9676(%rip),%rax        # e105 <g_1402+0x5>
    4a8f:	48 89 85 08 ff ff ff 	mov    %rax,-0xf8(%rbp)
    4a96:	48 8d 05 68 96 00 00 	lea    0x9668(%rip),%rax        # e105 <g_1402+0x5>
    4a9d:	48 89 85 10 ff ff ff 	mov    %rax,-0xf0(%rbp)
    4aa4:	48 8d 05 87 96 00 00 	lea    0x9687(%rip),%rax        # e132 <g_1419>
    4aab:	48 89 85 18 ff ff ff 	mov    %rax,-0xe8(%rbp)
    4ab2:	48 8d 05 ef a4 00 00 	lea    0xa4ef(%rip),%rax        # efa8 <g_100>
    4ab9:	48 89 85 20 ff ff ff 	mov    %rax,-0xe0(%rbp)
    4ac0:	48 8d 05 6b 96 00 00 	lea    0x966b(%rip),%rax        # e132 <g_1419>
    4ac7:	48 89 85 28 ff ff ff 	mov    %rax,-0xd8(%rbp)
    4ace:	48 8d 05 2b 63 00 00 	lea    0x632b(%rip),%rax        # ae00 <g_1874>
    4ad5:	48 89 85 a0 fb ff ff 	mov    %rax,-0x460(%rbp)
    4adc:	48 c7 85 a8 fb ff ff 	movq   $0x0,-0x458(%rbp)
    4ae3:	00 00 00 00 
    4ae7:	c6 05 5a 95 00 00 09 	movb   $0x9,0x955a(%rip)        # e048 <g_165>
    4aee:	e9 2e 0e 00 00       	jmpq   5921 <func_2+0x1020>
    4af3:	48 b8 8a 0a 43 d8 ec 	movabs $0x72766cecd8430a8a,%rax
    4afa:	6c 76 72 
    4afd:	48 89 85 c0 fb ff ff 	mov    %rax,-0x440(%rbp)
    4b04:	c7 85 e0 fa ff ff 00 	movl   $0x0,-0x520(%rbp)
    4b0b:	00 00 00 
    4b0e:	48 8d 05 1b 95 00 00 	lea    0x951b(%rip),%rax        # e030 <g_23>
    4b15:	48 89 85 c8 fb ff ff 	mov    %rax,-0x438(%rbp)
    4b1c:	48 8d 05 0d 95 00 00 	lea    0x950d(%rip),%rax        # e030 <g_23>
    4b23:	48 89 85 d0 fb ff ff 	mov    %rax,-0x430(%rbp)
    4b2a:	48 8d 85 e0 fa ff ff 	lea    -0x520(%rbp),%rax
    4b31:	48 89 85 d8 fb ff ff 	mov    %rax,-0x428(%rbp)
    4b38:	c7 85 fc fa ff ff 8e 	movl   $0x45c52b8e,-0x504(%rbp)
    4b3f:	2b c5 45 
    4b42:	48 c7 85 58 fb ff ff 	movq   $0x0,-0x4a8(%rbp)
    4b49:	00 00 00 00 
    4b4d:	48 8d 85 e0 fa ff ff 	lea    -0x520(%rbp),%rax
    4b54:	48 89 85 e0 fb ff ff 	mov    %rax,-0x420(%rbp)
    4b5b:	48 c7 85 e8 fb ff ff 	movq   $0x0,-0x418(%rbp)
    4b62:	00 00 00 00 
    4b66:	48 8d 05 d3 97 00 00 	lea    0x97d3(%rip),%rax        # e340 <g_1869+0xe0>
    4b6d:	48 89 85 f0 fb ff ff 	mov    %rax,-0x410(%rbp)
    4b74:	c7 85 e4 fa ff ff f7 	movl   $0xfffffff7,-0x51c(%rbp)
    4b7b:	ff ff ff 
    4b7e:	48 b8 ae 30 e1 95 22 	movabs $0xb5290f2295e130ae,%rax
    4b85:	0f 29 b5 
    4b88:	48 89 85 60 fb ff ff 	mov    %rax,-0x4a0(%rbp)
    4b8f:	48 c7 85 f8 fb ff ff 	movq   $0x0,-0x408(%rbp)
    4b96:	00 00 00 00 
    4b9a:	66 c7 85 da fa ff ff 	movw   $0xffff,-0x526(%rbp)
    4ba1:	ff ff 
    4ba3:	48 8d 05 16 a4 00 00 	lea    0xa416(%rip),%rax        # efc0 <g_331>
    4baa:	48 89 85 68 fb ff ff 	mov    %rax,-0x498(%rbp)
    4bb1:	48 8d 85 68 fb ff ff 	lea    -0x498(%rbp),%rax
    4bb8:	48 89 85 00 fc ff ff 	mov    %rax,-0x400(%rbp)
    4bbf:	c6 85 d8 fa ff ff e4 	movb   $0xe4,-0x528(%rbp)
    4bc6:	48 c7 85 08 fc ff ff 	movq   $0x0,-0x3f8(%rbp)
    4bcd:	00 00 00 00 
    4bd1:	48 8d 05 50 9b 00 00 	lea    0x9b50(%rip),%rax        # e728 <g_1341>
    4bd8:	48 89 85 10 fc ff ff 	mov    %rax,-0x3f0(%rbp)
    4bdf:	48 c7 85 18 fc ff ff 	movq   $0x0,-0x3e8(%rbp)
    4be6:	00 00 00 00 
    4bea:	48 b8 63 90 30 a4 0b 	movabs $0x2e7c650ba4309063,%rax
    4bf1:	65 7c 2e 
    4bf4:	48 89 85 20 fc ff ff 	mov    %rax,-0x3e0(%rbp)
    4bfb:	c7 85 00 fb ff ff 01 	movl   $0x1,-0x500(%rbp)
    4c02:	00 00 00 
    4c05:	c7 85 04 fb ff ff 00 	movl   $0x0,-0x4fc(%rbp)
    4c0c:	00 00 00 
    4c0f:	eb 1e                	jmp    4c2f <func_2+0x32e>
    4c11:	8b 85 04 fb ff ff    	mov    -0x4fc(%rbp),%eax
    4c17:	48 98                	cltq   
    4c19:	48 8d 15 14 94 00 00 	lea    0x9414(%rip),%rdx        # e034 <g_121>
    4c20:	48 89 94 c5 c8 fc ff 	mov    %rdx,-0x338(%rbp,%rax,8)
    4c27:	ff 
    4c28:	83 85 04 fb ff ff 01 	addl   $0x1,-0x4fc(%rbp)
    4c2f:	83 bd 04 fb ff ff 00 	cmpl   $0x0,-0x4fc(%rbp)
    4c36:	7e d9                	jle    4c11 <func_2+0x310>
    4c38:	c7 85 04 fb ff ff 00 	movl   $0x0,-0x4fc(%rbp)
    4c3f:	00 00 00 
    4c42:	eb 4c                	jmp    4c90 <func_2+0x38f>
    4c44:	c7 85 08 fb ff ff 00 	movl   $0x0,-0x4f8(%rbp)
    4c4b:	00 00 00 
    4c4e:	eb 30                	jmp    4c80 <func_2+0x37f>
    4c50:	8b 85 08 fb ff ff    	mov    -0x4f8(%rbp),%eax
    4c56:	48 63 c8             	movslq %eax,%rcx
    4c59:	8b 85 04 fb ff ff    	mov    -0x4fc(%rbp),%eax
    4c5f:	48 63 d0             	movslq %eax,%rdx
    4c62:	48 89 d0             	mov    %rdx,%rax
    4c65:	48 c1 e0 03          	shl    $0x3,%rax
    4c69:	48 01 d0             	add    %rdx,%rax
    4c6c:	48 01 c8             	add    %rcx,%rax
    4c6f:	66 c7 84 45 00 fe ff 	movw   $0xe89b,-0x200(%rbp,%rax,2)
    4c76:	ff 9b e8 
    4c79:	83 85 08 fb ff ff 01 	addl   $0x1,-0x4f8(%rbp)
    4c80:	83 bd 08 fb ff ff 08 	cmpl   $0x8,-0x4f8(%rbp)
    4c87:	7e c7                	jle    4c50 <func_2+0x34f>
    4c89:	83 85 04 fb ff ff 01 	addl   $0x1,-0x4fc(%rbp)
    4c90:	83 bd 04 fb ff ff 07 	cmpl   $0x7,-0x4fc(%rbp)
    4c97:	7e ab                	jle    4c44 <func_2+0x343>
    4c99:	b9 01 00 00 00       	mov    $0x1,%ecx
    4c9e:	48 8b 05 83 9a 00 00 	mov    0x9a83(%rip),%rax        # e728 <g_1341>
    4ca5:	8b 10                	mov    (%rax),%edx
    4ca7:	48 8b 05 7a 9a 00 00 	mov    0x9a7a(%rip),%rax        # e728 <g_1341>
    4cae:	09 ca                	or     %ecx,%edx
    4cb0:	89 10                	mov    %edx,(%rax)
    4cb2:	0f b7 85 6c fe ff ff 	movzwl -0x194(%rbp),%eax
    4cb9:	83 c0 01             	add    $0x1,%eax
    4cbc:	66 89 85 6c fe ff ff 	mov    %ax,-0x194(%rbp)
    4cc3:	48 8b 05 86 95 00 00 	mov    0x9586(%rip),%rax        # e250 <g_1866>
    4cca:	48 85 c0             	test   %rax,%rax
    4ccd:	0f 95 c0             	setne  %al
    4cd0:	0f b6 c0             	movzbl %al,%eax
    4cd3:	89 05 db 93 00 00    	mov    %eax,0x93db(%rip)        # e0b4 <g_750+0x14>
    4cd9:	8b 05 d5 93 00 00    	mov    0x93d5(%rip),%eax        # e0b4 <g_750+0x14>
    4cdf:	83 f0 f7             	xor    $0xfffffff7,%eax
    4ce2:	0f b6 d8             	movzbl %al,%ebx
    4ce5:	be 01 00 00 00       	mov    $0x1,%esi
    4cea:	bf 17 f9 ff ff       	mov    $0xfffff917,%edi
    4cef:	e8 6f e8 ff ff       	callq  3563 <safe_rshift_func_int16_t_s_u>
    4cf4:	0f b6 d0             	movzbl %al,%edx
    4cf7:	48 8b 85 b8 fa ff ff 	mov    -0x548(%rbp),%rax
    4cfe:	0f b6 c0             	movzbl %al,%eax
    4d01:	89 d6                	mov    %edx,%esi
    4d03:	89 c7                	mov    %eax,%edi
    4d05:	e8 89 ee ff ff       	callq  3b93 <safe_mul_func_uint8_t_u_u>
    4d0a:	8b 95 f4 fc ff ff    	mov    -0x30c(%rbp),%edx
    4d10:	8b 85 ec fc ff ff    	mov    -0x314(%rbp),%eax
    4d16:	39 c2                	cmp    %eax,%edx
    4d18:	0f 95 c0             	setne  %al
    4d1b:	0f b6 c0             	movzbl %al,%eax
    4d1e:	89 de                	mov    %ebx,%esi
    4d20:	89 c7                	mov    %eax,%edi
    4d22:	e8 51 ee ff ff       	callq  3b78 <safe_sub_func_uint8_t_u_u>
    4d27:	be 01 00 00 00       	mov    $0x1,%esi
    4d2c:	bf b4 10 ca 19       	mov    $0x19ca10b4,%edi
    4d31:	e8 82 f1 ff ff       	callq  3eb8 <safe_add_func_uint32_t_u_u>
    4d36:	48 8b 95 f0 fb ff ff 	mov    -0x410(%rbp),%rdx
    4d3d:	89 02                	mov    %eax,(%rdx)
    4d3f:	48 8b 05 a2 99 00 00 	mov    0x99a2(%rip),%rax        # e6e8 <g_1063>
    4d46:	48 8b 00             	mov    (%rax),%rax
    4d49:	48 8b 10             	mov    (%rax),%rdx
    4d4c:	48 8b 05 bd 98 00 00 	mov    0x98bd(%rip),%rax        # e610 <g_438>
    4d53:	48 8b 00             	mov    (%rax),%rax
    4d56:	48 8b 12             	mov    (%rdx),%rdx
    4d59:	48 89 10             	mov    %rdx,(%rax)
    4d5c:	c6 05 45 a2 00 00 f8 	movb   $0xf8,0xa245(%rip)        # efa8 <g_100>
    4d63:	e9 9a 0b 00 00       	jmpq   5902 <func_2+0x1001>
    4d68:	48 8d 05 3d 93 00 00 	lea    0x933d(%rip),%rax        # e0ac <g_750+0xc>
    4d6f:	48 89 85 28 fc ff ff 	mov    %rax,-0x3d8(%rbp)
    4d76:	c7 85 20 fb ff ff b2 	movl   $0x7f2915b2,-0x4e0(%rbp)
    4d7d:	15 29 7f 
    4d80:	48 8d 05 d9 55 00 00 	lea    0x55d9(%rip),%rax        # a360 <g_1168>
    4d87:	48 89 85 30 fc ff ff 	mov    %rax,-0x3d0(%rbp)
    4d8e:	48 8d 05 9b 92 00 00 	lea    0x929b(%rip),%rax        # e030 <g_23>
    4d95:	48 89 85 38 fc ff ff 	mov    %rax,-0x3c8(%rbp)
    4d9c:	c7 85 24 fb ff ff 02 	movl   $0x2,-0x4dc(%rbp)
    4da3:	00 00 00 
    4da6:	c7 85 28 fb ff ff 4f 	movl   $0x5c91074f,-0x4d8(%rbp)
    4dad:	07 91 5c 
    4db0:	c7 85 2c fb ff ff 8d 	movl   $0xd307438d,-0x4d4(%rbp)
    4db7:	43 07 d3 
    4dba:	c7 85 30 fb ff ff 63 	movl   $0x257bf763,-0x4d0(%rbp)
    4dc1:	f7 7b 25 
    4dc4:	c7 85 34 fb ff ff 05 	movl   $0x5,-0x4cc(%rbp)
    4dcb:	00 00 00 
    4dce:	c7 85 38 fb ff ff 30 	movl   $0xe6877d30,-0x4c8(%rbp)
    4dd5:	7d 87 e6 
    4dd8:	c7 85 0c fb ff ff ff 	movl   $0xffffffff,-0x4f4(%rbp)
    4ddf:	ff ff ff 
    4de2:	48 8d 05 ff 98 00 00 	lea    0x98ff(%rip),%rax        # e6e8 <g_1063>
    4de9:	48 89 85 40 fc ff ff 	mov    %rax,-0x3c0(%rbp)
    4df0:	48 c7 85 70 fb ff ff 	movq   $0xfffffffffffffff7,-0x490(%rbp)
    4df7:	f7 ff ff ff 
    4dfb:	48 8d 05 9e 98 00 00 	lea    0x989e(%rip),%rax        # e6a0 <g_660+0x40>
    4e02:	48 89 85 48 fc ff ff 	mov    %rax,-0x3b8(%rbp)
    4e09:	48 c7 85 78 fb ff ff 	movq   $0x0,-0x488(%rbp)
    4e10:	00 00 00 00 
    4e14:	48 8d 85 78 fb ff ff 	lea    -0x488(%rbp),%rax
    4e1b:	48 89 85 50 fc ff ff 	mov    %rax,-0x3b0(%rbp)
    4e22:	48 8d 85 e4 fa ff ff 	lea    -0x51c(%rbp),%rax
    4e29:	48 89 85 80 fb ff ff 	mov    %rax,-0x480(%rbp)
    4e30:	48 8d 85 80 fb ff ff 	lea    -0x480(%rbp),%rax
    4e37:	48 89 85 88 fb ff ff 	mov    %rax,-0x478(%rbp)
    4e3e:	48 8d 85 88 fb ff ff 	lea    -0x478(%rbp),%rax
    4e45:	48 89 85 58 fc ff ff 	mov    %rax,-0x3a8(%rbp)
    4e4c:	48 8d 05 85 98 00 00 	lea    0x9885(%rip),%rax        # e6d8 <g_828>
    4e53:	48 89 85 60 fc ff ff 	mov    %rax,-0x3a0(%rbp)
    4e5a:	48 8d 05 d7 91 00 00 	lea    0x91d7(%rip),%rax        # e038 <g_148>
    4e61:	48 89 85 68 fc ff ff 	mov    %rax,-0x398(%rbp)
    4e68:	48 c7 85 70 fc ff ff 	movq   $0xfffffffffffffff9,-0x390(%rbp)
    4e6f:	f9 ff ff ff 
    4e73:	c7 85 e8 fa ff ff 00 	movl   $0x0,-0x518(%rbp)
    4e7a:	00 00 00 
    4e7d:	eb 1a                	jmp    4e99 <func_2+0x598>
    4e7f:	8b 85 e8 fa ff ff    	mov    -0x518(%rbp),%eax
    4e85:	48 98                	cltq   
    4e87:	c7 84 85 00 fd ff ff 	movl   $0xb4baaedf,-0x300(%rbp,%rax,4)
    4e8e:	df ae ba b4 
    4e92:	83 85 e8 fa ff ff 01 	addl   $0x1,-0x518(%rbp)
    4e99:	83 bd e8 fa ff ff 08 	cmpl   $0x8,-0x518(%rbp)
    4ea0:	7e dd                	jle    4e7f <func_2+0x57e>
    4ea2:	48 8b 05 77 97 00 00 	mov    0x9777(%rip),%rax        # e620 <g_523>
    4ea9:	48 8b 00             	mov    (%rax),%rax
    4eac:	0f b7 00             	movzwl (%rax),%eax
    4eaf:	0f b7 d0             	movzwl %ax,%edx
    4eb2:	48 8b 85 e0 fb ff ff 	mov    -0x420(%rbp),%rax
    4eb9:	8b 00                	mov    (%rax),%eax
    4ebb:	39 c2                	cmp    %eax,%edx
    4ebd:	0f 9c c0             	setl   %al
    4ec0:	0f b6 d0             	movzbl %al,%edx
    4ec3:	48 8b 85 b8 fa ff ff 	mov    -0x548(%rbp),%rax
    4eca:	48 39 c2             	cmp    %rax,%rdx
    4ecd:	0f 95 c0             	setne  %al
    4ed0:	0f b6 d8             	movzbl %al,%ebx
    4ed3:	8b 85 f4 fc ff ff    	mov    -0x30c(%rbp),%eax
    4ed9:	89 c2                	mov    %eax,%edx
    4edb:	b8 04 00 00 00       	mov    $0x4,%eax
    4ee0:	98                   	cwtl   
    4ee1:	89 d6                	mov    %edx,%esi
    4ee3:	89 c7                	mov    %eax,%edi
    4ee5:	e8 3b f0 ff ff       	callq  3f25 <safe_div_func_uint32_t_u_u>
    4eea:	48 8b 95 28 fc ff ff 	mov    -0x3d8(%rbp),%rdx
    4ef1:	89 02                	mov    %eax,(%rdx)
    4ef3:	48 8b 85 28 fc ff ff 	mov    -0x3d8(%rbp),%rax
    4efa:	8b 08                	mov    (%rax),%ecx
    4efc:	48 8b 05 2d 97 00 00 	mov    0x972d(%rip),%rax        # e630 <g_541>
    4f03:	48 8b 10             	mov    (%rax),%rdx
    4f06:	48 8b 05 23 97 00 00 	mov    0x9723(%rip),%rax        # e630 <g_541>
    4f0d:	48 8b 00             	mov    (%rax),%rax
    4f10:	48 8b 12             	mov    (%rdx),%rdx
    4f13:	48 89 10             	mov    %rdx,(%rax)
    4f16:	48 8b 00             	mov    (%rax),%rax
    4f19:	48 39 85 30 fc ff ff 	cmp    %rax,-0x3d0(%rbp)
    4f20:	0f 95 c0             	setne  %al
    4f23:	0f b6 c0             	movzbl %al,%eax
    4f26:	39 c1                	cmp    %eax,%ecx
    4f28:	0f 92 c2             	setb   %dl
    4f2b:	48 8d 05 1e 9a 00 00 	lea    0x9a1e(%rip),%rax        # e950 <g_1674>
    4f32:	48 8b 00             	mov    (%rax),%rax
    4f35:	88 10                	mov    %dl,(%rax)
    4f37:	0f b6 00             	movzbl (%rax),%eax
    4f3a:	0f be c0             	movsbl %al,%eax
    4f3d:	39 c3                	cmp    %eax,%ebx
    4f3f:	0f 8f 83 08 00 00    	jg     57c8 <func_2+0xec7>
    4f45:	48 b8 d9 5c cd c1 5a 	movabs $0xbce93a5ac1cd5cd9,%rax
    4f4c:	3a e9 bc 
    4f4f:	48 89 85 90 fd ff ff 	mov    %rax,-0x270(%rbp)
    4f56:	48 89 85 98 fd ff ff 	mov    %rax,-0x268(%rbp)
    4f5d:	48 89 85 a0 fd ff ff 	mov    %rax,-0x260(%rbp)
    4f64:	48 c7 85 a8 fd ff ff 	movq   $0x1,-0x258(%rbp)
    4f6b:	01 00 00 00 
    4f6f:	48 bb 23 e0 8c 8e 86 	movabs $0x5a28f6868e8ce023,%rbx
    4f76:	f6 28 5a 
    4f79:	48 89 9d b0 fd ff ff 	mov    %rbx,-0x250(%rbp)
    4f80:	48 b9 f9 8f e3 09 58 	movabs $0xa8a4585809e38ff9,%rcx
    4f87:	58 a4 a8 
    4f8a:	48 89 8d b8 fd ff ff 	mov    %rcx,-0x248(%rbp)
    4f91:	48 c7 85 c0 fd ff ff 	movq   $0x1,-0x240(%rbp)
    4f98:	01 00 00 00 
    4f9c:	48 89 8d c8 fd ff ff 	mov    %rcx,-0x238(%rbp)
    4fa3:	48 89 9d d0 fd ff ff 	mov    %rbx,-0x230(%rbp)
    4faa:	48 c7 85 d8 fd ff ff 	movq   $0x1,-0x228(%rbp)
    4fb1:	01 00 00 00 
    4fb5:	48 89 85 e0 fd ff ff 	mov    %rax,-0x220(%rbp)
    4fbc:	48 89 85 e8 fd ff ff 	mov    %rax,-0x218(%rbp)
    4fc3:	48 89 85 f0 fd ff ff 	mov    %rax,-0x210(%rbp)
    4fca:	48 c7 85 f8 fd ff ff 	movq   $0x1,-0x208(%rbp)
    4fd1:	01 00 00 00 
    4fd5:	c7 85 30 fd ff ff 74 	movl   $0xe7a96c74,-0x2d0(%rbp)
    4fdc:	6c a9 e7 
    4fdf:	c7 85 34 fd ff ff 74 	movl   $0xe7a96c74,-0x2cc(%rbp)
    4fe6:	6c a9 e7 
    4fe9:	c7 85 38 fd ff ff 74 	movl   $0xe7a96c74,-0x2c8(%rbp)
    4ff0:	6c a9 e7 
    4ff3:	c7 85 3c fd ff ff 74 	movl   $0xe7a96c74,-0x2c4(%rbp)
    4ffa:	6c a9 e7 
    4ffd:	c7 85 40 fd ff ff 74 	movl   $0xe7a96c74,-0x2c0(%rbp)
    5004:	6c a9 e7 
    5007:	c7 85 44 fd ff ff 74 	movl   $0xe7a96c74,-0x2bc(%rbp)
    500e:	6c a9 e7 
    5011:	c7 85 48 fd ff ff 74 	movl   $0xe7a96c74,-0x2b8(%rbp)
    5018:	6c a9 e7 
    501b:	c7 85 4c fd ff ff 74 	movl   $0xe7a96c74,-0x2b4(%rbp)
    5022:	6c a9 e7 
    5025:	c7 85 50 fd ff ff 74 	movl   $0xe7a96c74,-0x2b0(%rbp)
    502c:	6c a9 e7 
    502f:	48 8d 05 da 95 00 00 	lea    0x95da(%rip),%rax        # e610 <g_438>
    5036:	48 89 85 88 fc ff ff 	mov    %rax,-0x378(%rbp)
    503d:	48 8d 05 ee 90 00 00 	lea    0x90ee(%rip),%rax        # e132 <g_1419>
    5044:	48 89 85 90 fc ff ff 	mov    %rax,-0x370(%rbp)
    504b:	c7 85 ec fa ff ff 00 	movl   $0x0,-0x514(%rbp)
    5052:	00 00 00 
    5055:	eb 71                	jmp    50c8 <func_2+0x7c7>
    5057:	c7 85 f0 fa ff ff 00 	movl   $0x0,-0x510(%rbp)
    505e:	00 00 00 
    5061:	eb 55                	jmp    50b8 <func_2+0x7b7>
    5063:	c7 85 f4 fa ff ff 00 	movl   $0x0,-0x50c(%rbp)
    506a:	00 00 00 
    506d:	eb 39                	jmp    50a8 <func_2+0x7a7>
    506f:	8b 85 f4 fa ff ff    	mov    -0x50c(%rbp),%eax
    5075:	48 98                	cltq   
    5077:	8b 95 ec fa ff ff    	mov    -0x514(%rbp),%edx
    507d:	48 63 ca             	movslq %edx,%rcx
    5080:	8b 95 f0 fa ff ff    	mov    -0x510(%rbp),%edx
    5086:	48 63 d2             	movslq %edx,%rdx
    5089:	48 01 ca             	add    %rcx,%rdx
    508c:	48 01 d2             	add    %rdx,%rdx
    508f:	48 01 d0             	add    %rdx,%rax
    5092:	48 8d 15 b7 91 00 00 	lea    0x91b7(%rip),%rdx        # e250 <g_1866>
    5099:	48 89 94 c5 d0 fc ff 	mov    %rdx,-0x330(%rbp,%rax,8)
    50a0:	ff 
    50a1:	83 85 f4 fa ff ff 01 	addl   $0x1,-0x50c(%rbp)
    50a8:	83 bd f4 fa ff ff 01 	cmpl   $0x1,-0x50c(%rbp)
    50af:	7e be                	jle    506f <func_2+0x76e>
    50b1:	83 85 f0 fa ff ff 01 	addl   $0x1,-0x510(%rbp)
    50b8:	83 bd f0 fa ff ff 00 	cmpl   $0x0,-0x510(%rbp)
    50bf:	7e a2                	jle    5063 <func_2+0x762>
    50c1:	83 85 ec fa ff ff 01 	addl   $0x1,-0x514(%rbp)
    50c8:	83 bd ec fa ff ff 00 	cmpl   $0x0,-0x514(%rbp)
    50cf:	7e 86                	jle    5057 <func_2+0x756>
    50d1:	48 8b 85 c0 fa ff ff 	mov    -0x540(%rbp),%rax
    50d8:	48 89 85 38 fc ff ff 	mov    %rax,-0x3c8(%rbp)
    50df:	be 01 00 00 00       	mov    $0x1,%esi
    50e4:	bf 01 00 00 00       	mov    $0x1,%edi
    50e9:	e8 09 e9 ff ff       	callq  39f7 <safe_div_func_int64_t_s_s>
    50ee:	48 89 c2             	mov    %rax,%rdx
    50f1:	48 8b 85 b8 fa ff ff 	mov    -0x548(%rbp),%rax
    50f8:	48 39 c2             	cmp    %rax,%rdx
    50fb:	48 8b 85 b8 fa ff ff 	mov    -0x548(%rbp),%rax
    5102:	48 89 c6             	mov    %rax,%rsi
    5105:	48 bf 28 4a 3a 12 ed 	movabs $0xcc6caaed123a4a28,%rdi
    510c:	aa 6c cc 
    510f:	e8 9b ef ff ff       	callq  40af <safe_div_func_uint64_t_u_u>
    5114:	48 89 c2             	mov    %rax,%rdx
    5117:	48 8b 85 50 fb ff ff 	mov    -0x4b0(%rbp),%rax
    511e:	89 10                	mov    %edx,(%rax)
    5120:	c7 85 fc fa ff ff 01 	movl   $0x1,-0x504(%rbp)
    5127:	00 00 00 
    512a:	e9 0c 05 00 00       	jmpq   563b <func_2+0xd3a>
    512f:	c7 85 40 fb ff ff 38 	movl   $0x2d374e38,-0x4c0(%rbp)
    5136:	4e 37 2d 
    5139:	c7 85 44 fb ff ff ad 	movl   $0xd5ac09ad,-0x4bc(%rbp)
    5140:	09 ac d5 
    5143:	c7 85 48 fb ff ff 04 	movl   $0x8c95dc04,-0x4b8(%rbp)
    514a:	dc 95 8c 
    514d:	48 c7 85 60 fd ff ff 	movq   $0x0,-0x2a0(%rbp)
    5154:	00 00 00 00 
    5158:	48 c7 85 68 fd ff ff 	movq   $0x0,-0x298(%rbp)
    515f:	00 00 00 00 
    5163:	48 c7 85 70 fd ff ff 	movq   $0x0,-0x290(%rbp)
    516a:	00 00 00 00 
    516e:	48 c7 85 78 fd ff ff 	movq   $0x0,-0x288(%rbp)
    5175:	00 00 00 00 
    5179:	48 c7 85 80 fd ff ff 	movq   $0x0,-0x280(%rbp)
    5180:	00 00 00 00 
    5184:	48 c7 85 98 fc ff ff 	movq   $0x0,-0x368(%rbp)
    518b:	00 00 00 00 
    518f:	8b 85 fc fa ff ff    	mov    -0x504(%rbp),%eax
    5195:	83 c0 04             	add    $0x4,%eax
    5198:	48 98                	cltq   
    519a:	8b 84 85 e0 fc ff ff 	mov    -0x320(%rbp,%rax,4),%eax
    51a1:	85 c0                	test   %eax,%eax
    51a3:	0f 84 c6 01 00 00    	je     536f <func_2+0xa6e>
    51a9:	c7 85 30 ff ff ff ff 	movl   $0xffffffff,-0xd0(%rbp)
    51b0:	ff ff ff 
    51b3:	c7 85 34 ff ff ff ff 	movl   $0xffffffff,-0xcc(%rbp)
    51ba:	ff ff ff 
    51bd:	c7 85 38 ff ff ff ff 	movl   $0xffffffff,-0xc8(%rbp)
    51c4:	ff ff ff 
    51c7:	c7 85 3c ff ff ff ff 	movl   $0xffffffff,-0xc4(%rbp)
    51ce:	ff ff ff 
    51d1:	c7 85 40 ff ff ff ff 	movl   $0xffffffff,-0xc0(%rbp)
    51d8:	ff ff ff 
    51db:	c7 85 44 ff ff ff ff 	movl   $0xffffffff,-0xbc(%rbp)
    51e2:	ff ff ff 
    51e5:	c7 85 48 ff ff ff ff 	movl   $0xffffffff,-0xb8(%rbp)
    51ec:	ff ff ff 
    51ef:	c7 85 4c ff ff ff ff 	movl   $0xffffffff,-0xb4(%rbp)
    51f6:	ff ff ff 
    51f9:	c7 85 50 ff ff ff ff 	movl   $0xffffffff,-0xb0(%rbp)
    5200:	ff ff ff 
    5203:	c7 85 54 ff ff ff ff 	movl   $0xffffffff,-0xac(%rbp)
    520a:	ff ff ff 
    520d:	48 8d 05 14 90 00 00 	lea    0x9014(%rip),%rax        # e228 <g_1498+0xe8>
    5214:	48 89 85 c0 fc ff ff 	mov    %rax,-0x340(%rbp)
    521b:	83 85 0c fb ff ff 01 	addl   $0x1,-0x4f4(%rbp)
    5222:	8b 85 fc fa ff ff    	mov    -0x504(%rbp),%eax
    5228:	83 c0 04             	add    $0x4,%eax
    522b:	48 98                	cltq   
    522d:	8b 84 85 e0 fc ff ff 	mov    -0x320(%rbp,%rax,4),%eax
    5234:	85 c0                	test   %eax,%eax
    5236:	0f 85 f4 03 00 00    	jne    5630 <func_2+0xd2f>
    523c:	48 8b 85 b8 fa ff ff 	mov    -0x548(%rbp),%rax
    5243:	0f b7 d8             	movzwl %ax,%ebx
    5246:	8b 85 fc fa ff ff    	mov    -0x504(%rbp),%eax
    524c:	48 98                	cltq   
    524e:	48 8d 14 85 00 00 00 	lea    0x0(,%rax,4),%rdx
    5255:	00 
    5256:	48 8d 05 9b 9d 00 00 	lea    0x9d9b(%rip),%rax        # eff8 <g_949>
    525d:	8b 04 02             	mov    (%rdx,%rax,1),%eax
    5260:	85 c0                	test   %eax,%eax
    5262:	75 1e                	jne    5282 <func_2+0x981>
    5264:	48 8b 85 68 fd ff ff 	mov    -0x298(%rbp),%rax
    526b:	48 89 85 40 fc ff ff 	mov    %rax,-0x3c0(%rbp)
    5272:	48 8d 05 6f 94 00 00 	lea    0x946f(%rip),%rax        # e6e8 <g_1063>
    5279:	48 39 85 40 fc ff ff 	cmp    %rax,-0x3c0(%rbp)
    5280:	74 07                	je     5289 <func_2+0x988>
    5282:	b8 01 00 00 00       	mov    $0x1,%eax
    5287:	eb 05                	jmp    528e <func_2+0x98d>
    5289:	b8 00 00 00 00       	mov    $0x0,%eax
    528e:	0f b7 c0             	movzwl %ax,%eax
    5291:	be 00 00 00 00       	mov    $0x0,%esi
    5296:	89 c7                	mov    %eax,%edi
    5298:	e8 ab eb ff ff       	callq  3e48 <safe_rshift_func_uint16_t_u_s>
    529d:	89 c2                	mov    %eax,%edx
    529f:	48 8d 05 aa 96 00 00 	lea    0x96aa(%rip),%rax        # e950 <g_1674>
    52a6:	48 8b 00             	mov    (%rax),%rax
    52a9:	88 10                	mov    %dl,(%rax)
    52ab:	0f b6 00             	movzbl (%rax),%eax
    52ae:	84 c0                	test   %al,%al
    52b0:	74 3d                	je     52ef <func_2+0x9ee>
    52b2:	48 8b 05 97 96 00 00 	mov    0x9697(%rip),%rax        # e950 <g_1674>
    52b9:	0f b6 00             	movzbl (%rax),%eax
    52bc:	89 c2                	mov    %eax,%edx
    52be:	48 8b 85 b8 fa ff ff 	mov    -0x548(%rbp),%rax
    52c5:	09 c2                	or     %eax,%edx
    52c7:	48 8b 05 82 96 00 00 	mov    0x9682(%rip),%rax        # e950 <g_1674>
    52ce:	88 10                	mov    %dl,(%rax)
    52d0:	0f b6 10             	movzbl (%rax),%edx
    52d3:	48 8b 85 c0 fc ff ff 	mov    -0x340(%rbp),%rax
    52da:	88 10                	mov    %dl,(%rax)
    52dc:	48 8b 85 b8 fa ff ff 	mov    -0x548(%rbp),%rax
    52e3:	48 85 c0             	test   %rax,%rax
    52e6:	74 07                	je     52ef <func_2+0x9ee>
    52e8:	b8 01 00 00 00       	mov    $0x1,%eax
    52ed:	eb 05                	jmp    52f4 <func_2+0x9f3>
    52ef:	b8 00 00 00 00       	mov    $0x0,%eax
    52f4:	f7 d0                	not    %eax
    52f6:	0f b7 c0             	movzwl %ax,%eax
    52f9:	89 de                	mov    %ebx,%esi
    52fb:	89 c7                	mov    %eax,%edi
    52fd:	e8 1d ea ff ff       	callq  3d1f <safe_sub_func_uint16_t_u_u>
    5302:	66 83 f8 05          	cmp    $0x5,%ax
    5306:	0f 95 c0             	setne  %al
    5309:	0f b6 d0             	movzbl %al,%edx
    530c:	48 8b 85 98 fd ff ff 	mov    -0x268(%rbp),%rax
    5313:	48 31 c2             	xor    %rax,%rdx
    5316:	8b 85 fc fa ff ff    	mov    -0x504(%rbp),%eax
    531c:	83 c0 01             	add    $0x1,%eax
    531f:	48 98                	cltq   
    5321:	8b 84 85 e0 fc ff ff 	mov    -0x320(%rbp,%rax,4),%eax
    5328:	48 98                	cltq   
    532a:	48 39 c2             	cmp    %rax,%rdx
    532d:	0f 95 c0             	setne  %al
    5330:	0f b6 d0             	movzbl %al,%edx
    5333:	48 8b 85 50 fb ff ff 	mov    -0x4b0(%rbp),%rax
    533a:	8b 00                	mov    (%rax),%eax
    533c:	39 c2                	cmp    %eax,%edx
    533e:	0f 9f c0             	setg   %al
    5341:	0f b6 c8             	movzbl %al,%ecx
    5344:	48 8b 05 9d 93 00 00 	mov    0x939d(%rip),%rax        # e6e8 <g_1063>
    534b:	48 8b 00             	mov    (%rax),%rax
    534e:	48 8b 00             	mov    (%rax),%rax
    5351:	48 8b 00             	mov    (%rax),%rax
    5354:	8b 10                	mov    (%rax),%edx
    5356:	48 8b 05 8b 93 00 00 	mov    0x938b(%rip),%rax        # e6e8 <g_1063>
    535d:	48 8b 00             	mov    (%rax),%rax
    5360:	48 8b 00             	mov    (%rax),%rax
    5363:	48 8b 00             	mov    (%rax),%rax
    5366:	31 ca                	xor    %ecx,%edx
    5368:	89 10                	mov    %edx,(%rax)
    536a:	e9 c5 02 00 00       	jmpq   5634 <func_2+0xd33>
    536f:	c6 85 d9 fa ff ff ae 	movb   $0xae,-0x527(%rbp)
    5376:	c7 85 4c fb ff ff 3b 	movl   $0xb3cad3b,-0x4b4(%rbp)
    537d:	ad 3c 0b 
    5380:	c7 85 30 ff ff ff b7 	movl   $0xfdb701b7,-0xd0(%rbp)
    5387:	01 b7 fd 
    538a:	c6 85 34 ff ff ff f9 	movb   $0xf9,-0xcc(%rbp)
    5391:	c7 85 35 ff ff ff 5e 	movl   $0xd4fc5e,-0xcb(%rbp)
    5398:	fc d4 00 
    539b:	c6 85 39 ff ff ff f5 	movb   $0xf5,-0xc7(%rbp)
    53a2:	c7 85 3a ff ff ff 00 	movl   $0xff86ff00,-0xc6(%rbp)
    53a9:	ff 86 ff 
    53ac:	c6 85 3e ff ff ff c0 	movb   $0xc0,-0xc2(%rbp)
    53b3:	c7 85 3f ff ff ff ff 	movl   $0xfbd4fbff,-0xc1(%rbp)
    53ba:	fb d4 fb 
    53bd:	c6 85 43 ff ff ff ff 	movb   $0xff,-0xbd(%rbp)
    53c4:	c7 85 44 ff ff ff 06 	movl   $0x64b76e06,-0xbc(%rbp)
    53cb:	6e b7 64 
    53ce:	c6 85 48 ff ff ff ff 	movb   $0xff,-0xb8(%rbp)
    53d5:	c7 85 49 ff ff ff 70 	movl   $0x7583170,-0xb7(%rbp)
    53dc:	31 58 07 
    53df:	c6 85 4d ff ff ff 00 	movb   $0x0,-0xb3(%rbp)
    53e6:	c7 85 4e ff ff ff ba 	movl   $0x6effb7ba,-0xb2(%rbp)
    53ed:	b7 ff 6e 
    53f0:	c6 85 52 ff ff ff ff 	movb   $0xff,-0xae(%rbp)
    53f7:	c7 85 53 ff ff ff ff 	movl   $0x50907ff,-0xad(%rbp)
    53fe:	07 09 05 
    5401:	c6 85 57 ff ff ff ff 	movb   $0xff,-0xa9(%rbp)
    5408:	c7 85 58 ff ff ff ff 	movl   $0x86fa60ff,-0xa8(%rbp)
    540f:	60 fa 86 
    5412:	c6 85 5c ff ff ff c0 	movb   $0xc0,-0xa4(%rbp)
    5419:	c7 85 5d ff ff ff d4 	movl   $0xff00ffd4,-0xa3(%rbp)
    5420:	ff 00 ff 
    5423:	c6 85 61 ff ff ff f5 	movb   $0xf5,-0x9f(%rbp)
    542a:	c7 85 62 ff ff ff 68 	movl   $0x68606068,-0x9e(%rbp)
    5431:	60 60 68 
    5434:	c6 85 66 ff ff ff f9 	movb   $0xf9,-0x9a(%rbp)
    543b:	c7 85 67 ff ff ff 00 	movl   $0xe4870700,-0x99(%rbp)
    5442:	07 87 e4 
    5445:	c6 85 6b ff ff ff 77 	movb   $0x77,-0x95(%rbp)
    544c:	c7 85 6c ff ff ff fa 	movl   $0xbaffb7fa,-0x94(%rbp)
    5453:	b7 ff ba 
    5456:	c6 85 70 ff ff ff 60 	movb   $0x60,-0x90(%rbp)
    545d:	c7 85 71 ff ff ff 03 	movl   $0xe4ff3103,-0x8f(%rbp)
    5464:	31 ff e4 
    5467:	c6 85 75 ff ff ff 00 	movb   $0x0,-0x8b(%rbp)
    546e:	c7 85 76 ff ff ff c0 	movl   $0x68016ec0,-0x8a(%rbp)
    5475:	6e 01 68 
    5478:	c6 85 7a ff ff ff 06 	movb   $0x6,-0x86(%rbp)
    547f:	c7 85 7b ff ff ff 7d 	movl   $0xfffffb7d,-0x85(%rbp)
    5486:	fb ff ff 
    5489:	c6 85 7f ff ff ff 87 	movb   $0x87,-0x81(%rbp)
    5490:	c7 45 80 6e ff fd 86 	movl   $0x86fdff6e,-0x80(%rbp)
    5497:	c6 45 84 86          	movb   $0x86,-0x7c(%rbp)
    549b:	c7 45 85 7d fc 7d 05 	movl   $0x57dfc7d,-0x7b(%rbp)
    54a2:	c6 45 89 38          	movb   $0x38,-0x77(%rbp)
    54a6:	c7 45 8a c0 01 ba 6e 	movl   $0x6eba01c0,-0x76(%rbp)
    54ad:	c6 45 8e 64          	movb   $0x64,-0x72(%rbp)
    54b1:	c7 45 8f 03 ff 77 07 	movl   $0x777ff03,-0x71(%rbp)
    54b8:	c6 45 93 5e          	movb   $0x5e,-0x6d(%rbp)
    54bc:	c7 45 94 fa 64 ba 64 	movl   $0x64ba64fa,-0x6c(%rbp)
    54c3:	c6 45 98 fa          	movb   $0xfa,-0x68(%rbp)
    54c7:	c7 45 99 00 00 7d fb 	movl   $0xfb7d0000,-0x67(%rbp)
    54ce:	c6 45 9d ff          	movb   $0xff,-0x63(%rbp)
    54d2:	c7 45 9e 68 06 fd ff 	movl   $0xfffd0668,-0x62(%rbp)
    54d9:	c6 45 a2 ff          	movb   $0xff,-0x5e(%rbp)
    54dd:	c7 45 a3 d4 fb ff 00 	movl   $0xfffbd4,-0x5d(%rbp)
    54e4:	c6 45 a7 ff          	movb   $0xff,-0x59(%rbp)
    54e8:	c7 45 a8 ff ff 01 fd 	movl   $0xfd01ffff,-0x58(%rbp)
    54ef:	c6 45 ac fa          	movb   $0xfa,-0x54(%rbp)
    54f3:	c7 45 ad ff 08 ff ff 	movl   $0xffff08ff,-0x53(%rbp)
    54fa:	c6 45 b1 5e          	movb   $0x5e,-0x4f(%rbp)
    54fe:	c7 45 b2 ba 00 ff ff 	movl   $0xffff00ba,-0x4e(%rbp)
    5505:	c6 45 b6 64          	movb   $0x64,-0x4a(%rbp)
    5509:	c7 45 b7 70 08 87 05 	movl   $0x5870870,-0x49(%rbp)
    5510:	c6 45 bb 38          	movb   $0x38,-0x45(%rbp)
    5514:	c7 45 bc 06 ff 60 fa 	movl   $0xfa60ff06,-0x44(%rbp)
    551b:	c6 45 c0 86          	movb   $0x86,-0x40(%rbp)
    551f:	c7 45 c1 ff fb 00 06 	movl   $0x600fbff,-0x3f(%rbp)
    5526:	c6 45 c5 87          	movb   $0x87,-0x3b(%rbp)
    552a:	c7 45 c6 00 06 fa fa 	movl   $0xfafa0600,-0x3a(%rbp)
    5531:	c6 45 ca 06          	movb   $0x6,-0x36(%rbp)
    5535:	c7 45 cb 5e 00 09 05 	movl   $0x509005e,-0x35(%rbp)
    553c:	c6 45 cf 00          	movb   $0x0,-0x31(%rbp)
    5540:	c7 45 d0 b7 64 ff ff 	movl   $0xffff64b7,-0x30(%rbp)
    5547:	c6 45 d4 60          	movb   $0x60,-0x2c(%rbp)
    554b:	c7 45 d5 ff ff 58 ff 	movl   $0xff58ffff,-0x2b(%rbp)
    5552:	c6 45 d9 77          	movb   $0x77,-0x27(%rbp)
    5556:	c7 45 da b7 01 b7 fd 	movl   $0xfdb701b7,-0x26(%rbp)
    555d:	c6 45 de f9          	movb   $0xf9,-0x22(%rbp)
    5561:	c7 45 df 5e fc d4 00 	movl   $0xd4fc5e,-0x21(%rbp)
    5568:	c6 45 e3 f5          	movb   $0xf5,-0x1d(%rbp)
    556c:	48 c7 85 a0 fc ff ff 	movq   $0x0,-0x360(%rbp)
    5573:	00 00 00 00 
    5577:	48 8d 05 ba 8a 00 00 	lea    0x8aba(%rip),%rax        # e038 <g_148>
    557e:	48 89 85 a8 fc ff ff 	mov    %rax,-0x358(%rbp)
    5585:	48 c7 85 b0 fc ff ff 	movq   $0x0,-0x350(%rbp)
    558c:	00 00 00 00 
    5590:	48 8d 05 d8 8b 00 00 	lea    0x8bd8(%rip),%rax        # e16f <g_1498+0x2f>
    5597:	48 89 85 b8 fc ff ff 	mov    %rax,-0x348(%rbp)
    559e:	48 8b 85 c8 fa ff ff 	mov    -0x538(%rbp),%rax
    55a5:	8b 00                	mov    (%rax),%eax
    55a7:	89 c7                	mov    %eax,%edi
    55a9:	e8 e8 df ff ff       	callq  3596 <safe_unary_minus_func_int32_t_s>
    55ae:	89 c2                	mov    %eax,%edx
    55b0:	48 8b 85 50 fb ff ff 	mov    -0x4b0(%rbp),%rax
    55b7:	8b 08                	mov    (%rax),%ecx
    55b9:	48 8b 85 50 fb ff ff 	mov    -0x4b0(%rbp),%rax
    55c0:	09 ca                	or     %ecx,%edx
    55c2:	89 10                	mov    %edx,(%rax)
    55c4:	80 bd d9 fa ff ff 00 	cmpb   $0x0,-0x527(%rbp)
    55cb:	75 66                	jne    5633 <func_2+0xd32>
    55cd:	0f b6 85 3c ff ff ff 	movzbl -0xc4(%rbp),%eax
    55d4:	83 e8 01             	sub    $0x1,%eax
    55d7:	88 85 3c ff ff ff    	mov    %al,-0xc4(%rbp)
    55dd:	48 8b 85 a8 fd ff ff 	mov    -0x258(%rbp),%rax
    55e4:	48 89 c2             	mov    %rax,%rdx
    55e7:	48 8b 85 b8 fa ff ff 	mov    -0x548(%rbp),%rax
    55ee:	48 39 c2             	cmp    %rax,%rdx
    55f1:	0f 97 c2             	seta   %dl
    55f4:	48 8b 05 2d 93 00 00 	mov    0x932d(%rip),%rax        # e928 <g_1537>
    55fb:	48 8b 00             	mov    (%rax),%rax
    55fe:	48 8b 00             	mov    (%rax),%rax
    5601:	0f b6 d2             	movzbl %dl,%edx
    5604:	48 89 10             	mov    %rdx,(%rax)
    5607:	48 8b 10             	mov    (%rax),%rdx
    560a:	48 8b 85 f8 fb ff ff 	mov    -0x408(%rbp),%rax
    5611:	48 39 c2             	cmp    %rax,%rdx
    5614:	76 0a                	jbe    5620 <func_2+0xd1f>
    5616:	48 8b 05 03 90 00 00 	mov    0x9003(%rip),%rax        # e620 <g_523>
    561d:	48 8b 00             	mov    (%rax),%rax
    5620:	ba 00 00 00 00       	mov    $0x0,%edx
    5625:	48 8b 85 50 fb ff ff 	mov    -0x4b0(%rbp),%rax
    562c:	89 10                	mov    %edx,(%rax)
    562e:	eb 04                	jmp    5634 <func_2+0xd33>
    5630:	90                   	nop
    5631:	eb 01                	jmp    5634 <func_2+0xd33>
    5633:	90                   	nop
    5634:	83 ad fc fa ff ff 01 	subl   $0x1,-0x504(%rbp)
    563b:	83 bd fc fa ff ff 00 	cmpl   $0x0,-0x504(%rbp)
    5642:	0f 89 e7 fa ff ff    	jns    512f <func_2+0x82e>
    5648:	48 b8 2d 53 ff 60 c6 	movabs $0x857099c660ff532d,%rax
    564f:	99 70 85 
    5652:	89 c1                	mov    %eax,%ecx
    5654:	48 8b 95 b8 fa ff ff 	mov    -0x548(%rbp),%rdx
    565b:	48 8b 85 88 fc ff ff 	mov    -0x378(%rbp),%rax
    5662:	48 8b 00             	mov    (%rax),%rax
    5665:	48 8b 00             	mov    (%rax),%rax
    5668:	48 8b 00             	mov    (%rax),%rax
    566b:	8b 30                	mov    (%rax),%esi
    566d:	48 8d 05 dc 92 00 00 	lea    0x92dc(%rip),%rax        # e950 <g_1674>
    5674:	48 8b 00             	mov    (%rax),%rax
    5677:	40 88 30             	mov    %sil,(%rax)
    567a:	0f b6 00             	movzbl (%rax),%eax
    567d:	48 0f be c0          	movsbq %al,%rax
    5681:	48 09 c2             	or     %rax,%rdx
    5684:	48 8b 85 b8 fa ff ff 	mov    -0x548(%rbp),%rax
    568b:	48 39 c2             	cmp    %rax,%rdx
    568e:	0f 97 c0             	seta   %al
    5691:	0f b6 d0             	movzbl %al,%edx
    5694:	48 8b 85 28 fc ff ff 	mov    -0x3d8(%rbp),%rax
    569b:	8b 00                	mov    (%rax),%eax
    569d:	09 c2                	or     %eax,%edx
    569f:	48 8b 85 28 fc ff ff 	mov    -0x3d8(%rbp),%rax
    56a6:	89 10                	mov    %edx,(%rax)
    56a8:	48 8b 85 28 fc ff ff 	mov    -0x3d8(%rbp),%rax
    56af:	8b 00                	mov    (%rax),%eax
    56b1:	89 ce                	mov    %ecx,%esi
    56b3:	89 c7                	mov    %eax,%edi
    56b5:	e8 fe e7 ff ff       	callq  3eb8 <safe_add_func_uint32_t_u_u>
    56ba:	48 8b 05 2f 90 00 00 	mov    0x902f(%rip),%rax        # e6f0 <g_1104>
    56c1:	48 8b 00             	mov    (%rax),%rax
    56c4:	48 39 85 50 fc ff ff 	cmp    %rax,-0x3b0(%rbp)
    56cb:	48 8b 85 98 fb ff ff 	mov    -0x468(%rbp),%rax
    56d2:	48 3b 85 00 fc ff ff 	cmp    -0x400(%rbp),%rax
    56d9:	0f 95 c0             	setne  %al
    56dc:	0f b6 d0             	movzbl %al,%edx
    56df:	48 8b 8d b8 fa ff ff 	mov    -0x548(%rbp),%rcx
    56e6:	48 8b 85 88 fc ff ff 	mov    -0x378(%rbp),%rax
    56ed:	48 8b 00             	mov    (%rax),%rax
    56f0:	48 8b 00             	mov    (%rax),%rax
    56f3:	48 8b 00             	mov    (%rax),%rax
    56f6:	8b 00                	mov    (%rax),%eax
    56f8:	48 98                	cltq   
    56fa:	48 39 c1             	cmp    %rax,%rcx
    56fd:	0f 96 c0             	setbe  %al
    5700:	0f b6 c0             	movzbl %al,%eax
    5703:	89 d6                	mov    %edx,%esi
    5705:	89 c7                	mov    %eax,%edi
    5707:	e8 f9 de ff ff       	callq  3605 <safe_sub_func_int32_t_s_s>
    570c:	48 63 d0             	movslq %eax,%rdx
    570f:	48 8b 85 b8 fa ff ff 	mov    -0x548(%rbp),%rax
    5716:	48 39 c2             	cmp    %rax,%rdx
    5719:	0f 92 c0             	setb   %al
    571c:	89 c2                	mov    %eax,%edx
    571e:	48 8b 85 90 fc ff ff 	mov    -0x370(%rbp),%rax
    5725:	88 10                	mov    %dl,(%rax)
    5727:	48 8b 85 90 fc ff ff 	mov    -0x370(%rbp),%rax
    572e:	0f b6 10             	movzbl (%rax),%edx
    5731:	48 8b 85 88 fc ff ff 	mov    -0x378(%rbp),%rax
    5738:	48 8b 00             	mov    (%rax),%rax
    573b:	48 8b 00             	mov    (%rax),%rax
    573e:	48 8b 00             	mov    (%rax),%rax
    5741:	0f b6 d2             	movzbl %dl,%edx
    5744:	89 10                	mov    %edx,(%rax)
    5746:	8b 10                	mov    (%rax),%edx
    5748:	0f be 85 d8 fa ff ff 	movsbl -0x528(%rbp),%eax
    574f:	39 c2                	cmp    %eax,%edx
    5751:	0f 9c c0             	setl   %al
    5754:	0f b6 d0             	movzbl %al,%edx
    5757:	48 8b 05 7a 8f 00 00 	mov    0x8f7a(%rip),%rax        # e6d8 <g_828>
    575e:	48 8b 00             	mov    (%rax),%rax
    5761:	48 8b 08             	mov    (%rax),%rcx
    5764:	48 63 d2             	movslq %edx,%rdx
    5767:	48 8b 05 6a 8f 00 00 	mov    0x8f6a(%rip),%rax        # e6d8 <g_828>
    576e:	48 8b 00             	mov    (%rax),%rax
    5771:	48 21 ca             	and    %rcx,%rdx
    5774:	48 89 10             	mov    %rdx,(%rax)
    5777:	48 8b 10             	mov    (%rax),%rdx
    577a:	48 8b 85 50 fb ff ff 	mov    -0x4b0(%rbp),%rax
    5781:	89 10                	mov    %edx,(%rax)
    5783:	8b 00                	mov    (%rax),%eax
    5785:	48 63 d0             	movslq %eax,%rdx
    5788:	48 8b 85 b8 fa ff ff 	mov    -0x548(%rbp),%rax
    578f:	48 39 c2             	cmp    %rax,%rdx
    5792:	0f 97 c0             	seta   %al
    5795:	0f b6 d0             	movzbl %al,%edx
    5798:	48 8b 85 d8 fb ff ff 	mov    -0x428(%rbp),%rax
    579f:	89 10                	mov    %edx,(%rax)
    57a1:	48 8b 05 80 8f 00 00 	mov    0x8f80(%rip),%rax        # e728 <g_1341>
    57a8:	48 8b 95 d8 fb ff ff 	mov    -0x428(%rbp),%rdx
    57af:	8b 12                	mov    (%rdx),%edx
    57b1:	89 10                	mov    %edx,(%rax)
    57b3:	8b 10                	mov    (%rax),%edx
    57b5:	8b 85 38 fd ff ff    	mov    -0x2c8(%rbp),%eax
    57bb:	09 d0                	or     %edx,%eax
    57bd:	89 85 38 fd ff ff    	mov    %eax,-0x2c8(%rbp)
    57c3:	e9 17 01 00 00       	jmpq   58df <func_2+0xfde>
    57c8:	66 c7 85 dc fa ff ff 	movw   $0x9,-0x524(%rbp)
    57cf:	09 00 
    57d1:	48 8d 05 44 89 00 00 	lea    0x8944(%rip),%rax        # e11c <g_1402+0x1c>
    57d8:	48 89 85 78 fc ff ff 	mov    %rax,-0x388(%rbp)
    57df:	66 c7 85 de fa ff ff 	movw   $0x1,-0x522(%rbp)
    57e6:	01 00 
    57e8:	48 8b 85 b8 fa ff ff 	mov    -0x548(%rbp),%rax
    57ef:	0f bf d0             	movswl %ax,%edx
    57f2:	48 8b 85 58 fc ff ff 	mov    -0x3a8(%rbp),%rax
    57f9:	48 3b 85 08 fc ff ff 	cmp    -0x3f8(%rbp),%rax
    5800:	0f 94 c0             	sete   %al
    5803:	89 c1                	mov    %eax,%ecx
    5805:	48 8b 85 78 fc ff ff 	mov    -0x388(%rbp),%rax
    580c:	88 08                	mov    %cl,(%rax)
    580e:	48 8b 05 fb 8d 00 00 	mov    0x8dfb(%rip),%rax        # e610 <g_438>
    5815:	48 8b 00             	mov    (%rax),%rax
    5818:	48 39 85 10 fc ff ff 	cmp    %rax,-0x3f0(%rbp)
    581f:	0f 95 c0             	setne  %al
    5822:	0f b6 c0             	movzbl %al,%eax
    5825:	89 d6                	mov    %edx,%esi
    5827:	89 c7                	mov    %eax,%edi
    5829:	e8 85 db ff ff       	callq  33b3 <safe_add_func_int16_t_s_s>
    582e:	0f be d0             	movsbl %al,%edx
    5831:	48 8b 85 d8 fb ff ff 	mov    -0x428(%rbp),%rax
    5838:	8b 08                	mov    (%rax),%ecx
    583a:	48 8d 05 0f 91 00 00 	lea    0x910f(%rip),%rax        # e950 <g_1674>
    5841:	48 8b 00             	mov    (%rax),%rax
    5844:	88 08                	mov    %cl,(%rax)
    5846:	0f b6 00             	movzbl (%rax),%eax
    5849:	0f be c0             	movsbl %al,%eax
    584c:	89 d6                	mov    %edx,%esi
    584e:	89 c7                	mov    %eax,%edi
    5850:	e8 dc d9 ff ff       	callq  3231 <safe_mod_func_int8_t_s_s>
    5855:	0f be d8             	movsbl %al,%ebx
    5858:	48 8b 85 50 fb ff ff 	mov    -0x4b0(%rbp),%rax
    585f:	8b 00                	mov    (%rax),%eax
    5861:	0f be c0             	movsbl %al,%eax
    5864:	be a0 ff ff ff       	mov    $0xffffffa0,%esi
    5869:	89 c7                	mov    %eax,%edi
    586b:	e8 c1 d9 ff ff       	callq  3231 <safe_mod_func_int8_t_s_s>
    5870:	66 98                	cbtw   
    5872:	0f b7 c0             	movzwl %ax,%eax
    5875:	89 de                	mov    %ebx,%esi
    5877:	89 c7                	mov    %eax,%edi
    5879:	e8 fc e5 ff ff       	callq  3e7a <safe_rshift_func_uint16_t_u_u>
    587e:	0f b7 d0             	movzwl %ax,%edx
    5881:	48 8b 85 d8 fb ff ff 	mov    -0x428(%rbp),%rax
    5888:	89 10                	mov    %edx,(%rax)
    588a:	48 c7 05 ab 89 00 00 	movq   $0x0,0x89ab(%rip)        # e240 <g_1540>
    5891:	00 00 00 00 
    5895:	eb 2a                	jmp    58c1 <func_2+0xfc0>
    5897:	48 8d 05 72 8d 00 00 	lea    0x8d72(%rip),%rax        # e610 <g_438>
    589e:	48 89 85 80 fc ff ff 	mov    %rax,-0x380(%rbp)
    58a5:	c7 85 3c fb ff ff 5f 	movl   $0x20f90f5f,-0x4c4(%rbp)
    58ac:	0f f9 20 
    58af:	48 8b 05 8a 89 00 00 	mov    0x898a(%rip),%rax        # e240 <g_1540>
    58b6:	48 83 c0 01          	add    $0x1,%rax
    58ba:	48 89 05 7f 89 00 00 	mov    %rax,0x897f(%rip)        # e240 <g_1540>
    58c1:	48 8b 05 78 89 00 00 	mov    0x8978(%rip),%rax        # e240 <g_1540>
    58c8:	48 85 c0             	test   %rax,%rax
    58cb:	74 ca                	je     5897 <func_2+0xf96>
    58cd:	48 8b 85 50 fb ff ff 	mov    -0x4b0(%rbp),%rax
    58d4:	8b 10                	mov    (%rax),%edx
    58d6:	48 8b 85 e0 fb ff ff 	mov    -0x420(%rbp),%rax
    58dd:	89 10                	mov    %edx,(%rax)
    58df:	83 ad 00 fb ff ff 01 	subl   $0x1,-0x500(%rbp)
    58e6:	0f b6 05 bb 96 00 00 	movzbl 0x96bb(%rip),%eax        # efa8 <g_100>
    58ed:	0f b6 c0             	movzbl %al,%eax
    58f0:	be 06 00 00 00       	mov    $0x6,%esi
    58f5:	89 c7                	mov    %eax,%edi
    58f7:	e8 ba dc ff ff       	callq  35b6 <safe_add_func_int32_t_s_s>
    58fc:	88 05 a6 96 00 00    	mov    %al,0x96a6(%rip)        # efa8 <g_100>
    5902:	0f b6 05 9f 96 00 00 	movzbl 0x969f(%rip),%eax        # efa8 <g_100>
    5909:	3c 17                	cmp    $0x17,%al
    590b:	0f 87 57 f4 ff ff    	ja     4d68 <func_2+0x467>
    5911:	0f b6 05 30 87 00 00 	movzbl 0x8730(%rip),%eax        # e048 <g_165>
    5918:	83 e8 01             	sub    $0x1,%eax
    591b:	88 05 27 87 00 00    	mov    %al,0x8727(%rip)        # e048 <g_165>
    5921:	0f b6 05 20 87 00 00 	movzbl 0x8720(%rip),%eax        # e048 <g_165>
    5928:	84 c0                	test   %al,%al
    592a:	0f 89 c3 f1 ff ff    	jns    4af3 <func_2+0x1f2>
    5930:	48 c7 05 45 87 00 00 	movq   $0x0,0x8745(%rip)        # e080 <g_699>
    5937:	00 00 00 00 
    593b:	e9 a4 02 00 00       	jmpq   5be4 <func_2+0x12e3>
    5940:	48 c7 85 b0 fb ff ff 	movq   $0x0,-0x450(%rbp)
    5947:	00 00 00 00 
    594b:	c7 85 14 fb ff ff bd 	movl   $0x319573bd,-0x4ec(%rbp)
    5952:	73 95 31 
    5955:	c7 85 10 fb ff ff 1a 	movl   $0x1a,-0x4f0(%rbp)
    595c:	00 00 00 
    595f:	e9 4f 02 00 00       	jmpq   5bb3 <func_2+0x12b2>
    5964:	c7 85 18 fb ff ff 04 	movl   $0x4,-0x4e8(%rbp)
    596b:	00 00 00 
    596e:	48 c7 85 88 fb ff ff 	movq   $0x0,-0x478(%rbp)
    5975:	00 00 00 00 
    5979:	48 8d 85 88 fb ff ff 	lea    -0x478(%rbp),%rax
    5980:	48 89 85 b8 fb ff ff 	mov    %rax,-0x448(%rbp)
    5987:	c7 85 1c fb ff ff 01 	movl   $0x1,-0x4e4(%rbp)
    598e:	00 00 00 
    5991:	c7 85 f8 fa ff ff 00 	movl   $0x0,-0x508(%rbp)
    5998:	00 00 00 
    599b:	eb 19                	jmp    59b6 <func_2+0x10b5>
    599d:	8b 85 f8 fa ff ff    	mov    -0x508(%rbp),%eax
    59a3:	48 98                	cltq   
    59a5:	66 c7 84 45 30 ff ff 	movw   $0x7d76,-0xd0(%rbp,%rax,2)
    59ac:	ff 76 7d 
    59af:	83 85 f8 fa ff ff 01 	addl   $0x1,-0x508(%rbp)
    59b6:	83 bd f8 fa ff ff 02 	cmpl   $0x2,-0x508(%rbp)
    59bd:	7e de                	jle    599d <func_2+0x109c>
    59bf:	c6 05 6c 87 00 00 ff 	movb   $0xff,0x876c(%rip)        # e132 <g_1419>
    59c6:	eb 39                	jmp    5a01 <func_2+0x1100>
    59c8:	48 8b 05 b1 86 00 00 	mov    0x86b1(%rip),%rax        # e080 <g_699>
    59cf:	48 85 c0             	test   %rax,%rax
    59d2:	0f 85 cf 01 00 00    	jne    5ba7 <func_2+0x12a6>
    59d8:	83 bd 10 fb ff ff 00 	cmpl   $0x0,-0x4f0(%rbp)
    59df:	0f 85 c8 01 00 00    	jne    5bad <func_2+0x12ac>
    59e5:	0f b6 05 46 87 00 00 	movzbl 0x8746(%rip),%eax        # e132 <g_1419>
    59ec:	0f b6 c0             	movzbl %al,%eax
    59ef:	be 05 00 00 00       	mov    $0x5,%esi
    59f4:	89 c7                	mov    %eax,%edi
    59f6:	e8 b8 d9 ff ff       	callq  33b3 <safe_add_func_int16_t_s_s>
    59fb:	88 05 31 87 00 00    	mov    %al,0x8731(%rip)        # e132 <g_1419>
    5a01:	0f b6 05 2a 87 00 00 	movzbl 0x872a(%rip),%eax        # e132 <g_1419>
    5a08:	3c 3b                	cmp    $0x3b,%al
    5a0a:	75 bc                	jne    59c8 <func_2+0x10c7>
    5a0c:	0f b7 85 34 ff ff ff 	movzwl -0xcc(%rbp),%eax
    5a13:	0f b6 d8             	movzbl %al,%ebx
    5a16:	83 bd 14 fb ff ff 05 	cmpl   $0x5,-0x4ec(%rbp)
    5a1d:	0f 95 c0             	setne  %al
    5a20:	0f b6 d0             	movzbl %al,%edx
    5a23:	48 8d 05 e6 8d 00 00 	lea    0x8de6(%rip),%rax        # e810 <g_1363+0xd0>
    5a2a:	48 39 85 b0 fb ff ff 	cmp    %rax,-0x450(%rbp)
    5a31:	0f 95 c0             	setne  %al
    5a34:	0f b6 c0             	movzbl %al,%eax
    5a37:	89 d6                	mov    %edx,%esi
    5a39:	89 c7                	mov    %eax,%edi
    5a3b:	e8 93 d9 ff ff       	callq  33d3 <safe_sub_func_int16_t_s_s>
    5a40:	0f be c0             	movsbl %al,%eax
    5a43:	89 c6                	mov    %eax,%esi
    5a45:	bf 00 00 00 00       	mov    $0x0,%edi
    5a4a:	e8 1b d8 ff ff       	callq  326a <safe_div_func_int8_t_s_s>
    5a4f:	0f b6 c0             	movzbl %al,%eax
    5a52:	89 de                	mov    %ebx,%esi
    5a54:	89 c7                	mov    %eax,%edi
    5a56:	e8 80 e1 ff ff       	callq  3bdb <safe_div_func_uint8_t_u_u>
    5a5b:	0f b6 c0             	movzbl %al,%eax
    5a5e:	be 01 00 00 00       	mov    $0x1,%esi
    5a63:	48 89 c7             	mov    %rax,%rdi
    5a66:	e8 3d de ff ff       	callq  38a8 <safe_sub_func_int64_t_s_s>
    5a6b:	48 8b 15 e6 8e 00 00 	mov    0x8ee6(%rip),%rdx        # e958 <g_1672>
    5a72:	48 8b 12             	mov    (%rdx),%rdx
    5a75:	48 8b 12             	mov    (%rdx),%rdx
    5a78:	0f b6 12             	movzbl (%rdx),%edx
    5a7b:	48 0f be d2          	movsbq %dl,%rdx
    5a7f:	48 21 d0             	and    %rdx,%rax
    5a82:	48 85 c0             	test   %rax,%rax
    5a85:	75 0a                	jne    5a91 <func_2+0x1190>
    5a87:	48 8b 85 b8 fa ff ff 	mov    -0x548(%rbp),%rax
    5a8e:	48 85 c0             	test   %rax,%rax
    5a91:	48 8b 85 b8 fa ff ff 	mov    -0x548(%rbp),%rax
    5a98:	89 85 1c fb ff ff    	mov    %eax,-0x4e4(%rbp)
    5a9e:	0f b7 85 32 ff ff ff 	movzwl -0xce(%rbp),%eax
    5aa5:	66 83 f8 fa          	cmp    $0xfffa,%ax
    5aa9:	0f 94 c0             	sete   %al
    5aac:	0f b6 c0             	movzbl %al,%eax
    5aaf:	be 12 19 00 00       	mov    $0x1912,%esi
    5ab4:	89 c7                	mov    %eax,%edi
    5ab6:	e8 5b d9 ff ff       	callq  3416 <safe_mod_func_int16_t_s_s>
    5abb:	66 85 c0             	test   %ax,%ax
    5abe:	0f 94 c0             	sete   %al
    5ac1:	0f b6 d8             	movzbl %al,%ebx
    5ac4:	48 8b 85 b8 fb ff ff 	mov    -0x448(%rbp),%rax
    5acb:	48 8b 95 c0 fa ff ff 	mov    -0x540(%rbp),%rdx
    5ad2:	48 89 10             	mov    %rdx,(%rax)
    5ad5:	48 8b 85 b8 fb ff ff 	mov    -0x448(%rbp),%rax
    5adc:	48 8b 00             	mov    (%rax),%rax
    5adf:	48 8d 15 12 95 00 00 	lea    0x9512(%rip),%rdx        # eff8 <g_949>
    5ae6:	48 39 d0             	cmp    %rdx,%rax
    5ae9:	0f 95 c0             	setne  %al
    5aec:	0f b6 c0             	movzbl %al,%eax
    5aef:	48 8b 95 50 fb ff ff 	mov    -0x4b0(%rbp),%rdx
    5af6:	c7 02 ff ff 00 00    	movl   $0xffff,(%rdx)
    5afc:	89 c6                	mov    %eax,%esi
    5afe:	bf ff ff 00 00       	mov    $0xffff,%edi
    5b03:	e8 35 e2 ff ff       	callq  3d3d <safe_mul_func_uint16_t_u_u>
    5b08:	0f be c0             	movsbl %al,%eax
    5b0b:	89 de                	mov    %ebx,%esi
    5b0d:	89 c7                	mov    %eax,%edi
    5b0f:	e8 fe d6 ff ff       	callq  3212 <safe_mul_func_int8_t_s_s>
    5b14:	83 bd 18 fb ff ff 00 	cmpl   $0x0,-0x4e8(%rbp)
    5b1b:	75 11                	jne    5b2e <func_2+0x122d>
    5b1d:	b8 00 00 00 00       	mov    $0x0,%eax
    5b22:	48 85 c0             	test   %rax,%rax
    5b25:	74 07                	je     5b2e <func_2+0x122d>
    5b27:	b8 01 00 00 00       	mov    $0x1,%eax
    5b2c:	eb 05                	jmp    5b33 <func_2+0x1232>
    5b2e:	b8 00 00 00 00       	mov    $0x0,%eax
    5b33:	48 63 d0             	movslq %eax,%rdx
    5b36:	8b 85 18 fb ff ff    	mov    -0x4e8(%rbp),%eax
    5b3c:	48 89 d6             	mov    %rdx,%rsi
    5b3f:	48 89 c7             	mov    %rax,%rdi
    5b42:	e8 fa dc ff ff       	callq  3841 <safe_add_func_int64_t_s_s>
    5b47:	48 85 c0             	test   %rax,%rax
    5b4a:	75 10                	jne    5b5c <func_2+0x125b>
    5b4c:	48 8b 05 cd 8a 00 00 	mov    0x8acd(%rip),%rax        # e620 <g_523>
    5b53:	48 8b 00             	mov    (%rax),%rax
    5b56:	0f b7 00             	movzwl (%rax),%eax
    5b59:	66 85 c0             	test   %ax,%ax
    5b5c:	48 8b 85 b8 fa ff ff 	mov    -0x548(%rbp),%rax
    5b63:	48 83 f8 04          	cmp    $0x4,%rax
    5b67:	0f 97 c2             	seta   %dl
    5b6a:	48 8b 05 2f 89 00 00 	mov    0x892f(%rip),%rax        # e4a0 <g_68>
    5b71:	0f b6 d2             	movzbl %dl,%edx
    5b74:	89 10                	mov    %edx,(%rax)
    5b76:	8b 08                	mov    (%rax),%ecx
    5b78:	48 8b 05 a9 8b 00 00 	mov    0x8ba9(%rip),%rax        # e728 <g_1341>
    5b7f:	8b 10                	mov    (%rax),%edx
    5b81:	48 8b 05 a0 8b 00 00 	mov    0x8ba0(%rip),%rax        # e728 <g_1341>
    5b88:	09 ca                	or     %ecx,%edx
    5b8a:	89 10                	mov    %edx,(%rax)
    5b8c:	8b 85 10 fb ff ff    	mov    -0x4f0(%rbp),%eax
    5b92:	be 04 00 00 00       	mov    $0x4,%esi
    5b97:	48 89 c7             	mov    %rax,%rdi
    5b9a:	e8 ac e4 ff ff       	callq  404b <safe_sub_func_uint64_t_u_u>
    5b9f:	89 85 10 fb ff ff    	mov    %eax,-0x4f0(%rbp)
    5ba5:	eb 0c                	jmp    5bb3 <func_2+0x12b2>
    5ba7:	90                   	nop
    5ba8:	e9 3a ef ff ff       	jmpq   4ae7 <func_2+0x1e6>
    5bad:	90                   	nop
    5bae:	e9 34 ef ff ff       	jmpq   4ae7 <func_2+0x1e6>
    5bb3:	83 bd 10 fb ff ff 0c 	cmpl   $0xc,-0x4f0(%rbp)
    5bba:	0f 87 a4 fd ff ff    	ja     5964 <func_2+0x1063>
    5bc0:	48 8b 95 50 fb ff ff 	mov    -0x4b0(%rbp),%rdx
    5bc7:	48 8b 05 d2 88 00 00 	mov    0x88d2(%rip),%rax        # e4a0 <g_68>
    5bce:	8b 12                	mov    (%rdx),%edx
    5bd0:	89 10                	mov    %edx,(%rax)
    5bd2:	48 8b 05 a7 84 00 00 	mov    0x84a7(%rip),%rax        # e080 <g_699>
    5bd9:	48 83 c0 01          	add    $0x1,%rax
    5bdd:	48 89 05 9c 84 00 00 	mov    %rax,0x849c(%rip)        # e080 <g_699>
    5be4:	48 8b 05 95 84 00 00 	mov    0x8495(%rip),%rax        # e080 <g_699>
    5beb:	48 83 f8 12          	cmp    $0x12,%rax
    5bef:	0f 8f 4b fd ff ff    	jg     5940 <func_2+0x103f>
    5bf5:	48 8b 85 c0 fa ff ff 	mov    -0x540(%rbp),%rax
    5bfc:	48 8b 5d e8          	mov    -0x18(%rbp),%rbx
    5c00:	64 48 33 1c 25 28 00 	xor    %fs:0x28,%rbx
    5c07:	00 00 
    5c09:	74 05                	je     5c10 <func_2+0x130f>
    5c0b:	e8 60 d4 ff ff       	callq  3070 <__stack_chk_fail@plt>
    5c10:	48 81 c4 48 05 00 00 	add    $0x548,%rsp
    5c17:	5b                   	pop    %rbx
    5c18:	5d                   	pop    %rbp
    5c19:	c3                   	retq   

0000000000005c1a <func_6>:
    5c1a:	f3 0f 1e fa          	endbr64 
    5c1e:	55                   	push   %rbp
    5c1f:	48 89 e5             	mov    %rsp,%rbp
    5c22:	41 57                	push   %r15
    5c24:	41 56                	push   %r14
    5c26:	41 55                	push   %r13
    5c28:	41 54                	push   %r12
    5c2a:	53                   	push   %rbx
    5c2b:	48 81 ec 78 07 00 00 	sub    $0x778,%rsp
    5c32:	48 89 bd 78 f8 ff ff 	mov    %rdi,-0x788(%rbp)
    5c39:	89 f0                	mov    %esi,%eax
    5c3b:	48 89 95 68 f8 ff ff 	mov    %rdx,-0x798(%rbp)
    5c42:	66 89 85 74 f8 ff ff 	mov    %ax,-0x78c(%rbp)
    5c49:	64 48 8b 04 25 28 00 	mov    %fs:0x28,%rax
    5c50:	00 00 
    5c52:	48 89 45 c8          	mov    %rax,-0x38(%rbp)
    5c56:	31 c0                	xor    %eax,%eax
    5c58:	c7 85 b0 f9 ff ff f6 	movl   $0xfffffff6,-0x650(%rbp)
    5c5f:	ff ff ff 
    5c62:	c7 85 b4 f9 ff ff 01 	movl   $0x1,-0x64c(%rbp)
    5c69:	00 00 00 
    5c6c:	c7 85 b8 f9 ff ff 63 	movl   $0xac8c0a63,-0x648(%rbp)
    5c73:	0a 8c ac 
    5c76:	c7 85 bc f9 ff ff f9 	movl   $0xfffffff9,-0x644(%rbp)
    5c7d:	ff ff ff 
    5c80:	c7 85 c0 f9 ff ff 01 	movl   $0x1,-0x640(%rbp)
    5c87:	00 00 00 
    5c8a:	c7 85 c4 f9 ff ff 00 	movl   $0x0,-0x63c(%rbp)
    5c91:	00 00 00 
    5c94:	c7 85 c8 f9 ff ff fb 	movl   $0xfffffffb,-0x638(%rbp)
    5c9b:	ff ff ff 
    5c9e:	c7 85 cc f9 ff ff d9 	movl   $0x4906bd9,-0x634(%rbp)
    5ca5:	6b 90 04 
    5ca8:	c7 85 d0 f9 ff ff 06 	movl   $0x6,-0x630(%rbp)
    5caf:	00 00 00 
    5cb2:	c7 85 d4 f9 ff ff e8 	movl   $0xbbfccfe8,-0x62c(%rbp)
    5cb9:	cf fc bb 
    5cbc:	c7 85 d8 f9 ff ff 01 	movl   $0x1,-0x628(%rbp)
    5cc3:	00 00 00 
    5cc6:	c7 85 dc f9 ff ff 01 	movl   $0x1,-0x624(%rbp)
    5ccd:	00 00 00 
    5cd0:	c7 85 e0 f9 ff ff 01 	movl   $0x1,-0x620(%rbp)
    5cd7:	00 00 00 
    5cda:	c7 85 e4 f9 ff ff 63 	movl   $0xac8c0a63,-0x61c(%rbp)
    5ce1:	0a 8c ac 
    5ce4:	c7 85 e8 f9 ff ff 00 	movl   $0x0,-0x618(%rbp)
    5ceb:	00 00 00 
    5cee:	c7 85 ec f9 ff ff 9c 	movl   $0xc423449c,-0x614(%rbp)
    5cf5:	44 23 c4 
    5cf8:	c7 85 f0 f9 ff ff fb 	movl   $0xfffffffb,-0x610(%rbp)
    5cff:	ff ff ff 
    5d02:	c7 85 f4 f9 ff ff 00 	movl   $0x0,-0x60c(%rbp)
    5d09:	00 00 00 
    5d0c:	c7 85 f8 f9 ff ff 01 	movl   $0x1,-0x608(%rbp)
    5d13:	00 00 00 
    5d16:	c7 85 fc f9 ff ff 00 	movl   $0x0,-0x604(%rbp)
    5d1d:	00 00 00 
    5d20:	c7 85 00 fa ff ff 01 	movl   $0x1,-0x600(%rbp)
    5d27:	00 00 00 
    5d2a:	c7 85 04 fa ff ff 55 	movl   $0x98d24a55,-0x5fc(%rbp)
    5d31:	4a d2 98 
    5d34:	c7 85 08 fa ff ff d9 	movl   $0x4906bd9,-0x5f8(%rbp)
    5d3b:	6b 90 04 
    5d3e:	c7 85 0c fa ff ff f9 	movl   $0xfffffff9,-0x5f4(%rbp)
    5d45:	ff ff ff 
    5d48:	c7 85 10 fa ff ff 00 	movl   $0x0,-0x5f0(%rbp)
    5d4f:	00 00 00 
    5d52:	c7 85 14 fa ff ff 00 	movl   $0x0,-0x5ec(%rbp)
    5d59:	00 00 00 
    5d5c:	c7 85 18 fa ff ff d9 	movl   $0x4906bd9,-0x5e8(%rbp)
    5d63:	6b 90 04 
    5d66:	c7 85 8c f8 ff ff 03 	movl   $0xdf320603,-0x774(%rbp)
    5d6d:	06 32 df 
    5d70:	48 c7 85 b0 f8 ff ff 	movq   $0x0,-0x750(%rbp)
    5d77:	00 00 00 00 
    5d7b:	48 c7 85 a0 f8 ff ff 	movq   $0x1,-0x760(%rbp)
    5d82:	01 00 00 00 
    5d86:	48 b8 0b 34 58 cc 90 	movabs $0x6fc53290cc58340b,%rax
    5d8d:	32 c5 6f 
    5d90:	48 89 85 b8 f8 ff ff 	mov    %rax,-0x748(%rbp)
    5d97:	48 8d 05 4a 89 00 00 	lea    0x894a(%rip),%rax        # e6e8 <g_1063>
    5d9e:	48 89 85 c0 f8 ff ff 	mov    %rax,-0x740(%rbp)
    5da5:	48 b8 c9 73 df d4 02 	movabs $0xa83fb702d4df73c9,%rax
    5dac:	b7 3f a8 
    5daf:	48 89 85 a8 f8 ff ff 	mov    %rax,-0x758(%rbp)
    5db6:	48 8d 05 73 82 00 00 	lea    0x8273(%rip),%rax        # e030 <g_23>
    5dbd:	48 89 85 c8 f8 ff ff 	mov    %rax,-0x738(%rbp)
    5dc4:	c7 85 88 f8 ff ff 00 	movl   $0x0,-0x778(%rbp)
    5dcb:	00 00 00 
    5dce:	eb 1a                	jmp    5dea <func_6+0x1d0>
    5dd0:	8b 85 88 f8 ff ff    	mov    -0x778(%rbp),%eax
    5dd6:	48 98                	cltq   
    5dd8:	c7 84 85 14 f9 ff ff 	movl   $0x3343b9ae,-0x6ec(%rbp,%rax,4)
    5ddf:	ae b9 43 33 
    5de3:	83 85 88 f8 ff ff 01 	addl   $0x1,-0x778(%rbp)
    5dea:	83 bd 88 f8 ff ff 02 	cmpl   $0x2,-0x778(%rbp)
    5df1:	7e dd                	jle    5dd0 <func_6+0x1b6>
    5df3:	44 8b ad 14 f9 ff ff 	mov    -0x6ec(%rbp),%r13d
    5dfa:	0f b7 85 74 f8 ff ff 	movzwl -0x78c(%rbp),%eax
    5e01:	0f bf d8             	movswl %ax,%ebx
    5e04:	0f b6 05 64 83 00 00 	movzbl 0x8364(%rip),%eax        # e16f <g_1498+0x2f>
    5e0b:	44 0f be e0          	movsbl %al,%r12d
    5e0f:	48 8b 15 fa 86 00 00 	mov    0x86fa(%rip),%rdx        # e510 <g_120>
    5e16:	48 8b 05 cb 88 00 00 	mov    0x88cb(%rip),%rax        # e6e8 <g_1063>
    5e1d:	48 8b 00             	mov    (%rax),%rax
    5e20:	48 8b 00             	mov    (%rax),%rax
    5e23:	48 8b 00             	mov    (%rax),%rax
    5e26:	8b 12                	mov    (%rdx),%edx
    5e28:	89 10                	mov    %edx,(%rax)
    5e2a:	8b 00                	mov    (%rax),%eax
    5e2c:	83 f0 fe             	xor    $0xfffffffe,%eax
    5e2f:	0f b7 d0             	movzwl %ax,%edx
    5e32:	8b 85 14 f9 ff ff    	mov    -0x6ec(%rbp),%eax
    5e38:	0f b7 c0             	movzwl %ax,%eax
    5e3b:	89 d6                	mov    %edx,%esi
    5e3d:	89 c7                	mov    %eax,%edi
    5e3f:	e8 f9 de ff ff       	callq  3d3d <safe_mul_func_uint16_t_u_u>
    5e44:	0f b7 d0             	movzwl %ax,%edx
    5e47:	8b 85 1c f9 ff ff    	mov    -0x6e4(%rbp),%eax
    5e4d:	21 d0                	and    %edx,%eax
    5e4f:	89 85 b0 f9 ff ff    	mov    %eax,-0x650(%rbp)
    5e55:	8b 85 b0 f9 ff ff    	mov    -0x650(%rbp),%eax
    5e5b:	98                   	cwtl   
    5e5c:	be d4 59 00 00       	mov    $0x59d4,%esi
    5e61:	89 c7                	mov    %eax,%edi
    5e63:	e8 8d d5 ff ff       	callq  33f5 <safe_mul_func_int16_t_s_s>
    5e68:	0f b6 c0             	movzbl %al,%eax
    5e6b:	8b 95 8c f8 ff ff    	mov    -0x774(%rbp),%edx
    5e71:	89 d6                	mov    %edx,%esi
    5e73:	89 c7                	mov    %eax,%edi
    5e75:	e8 13 de ff ff       	callq  3c8d <safe_rshift_func_uint8_t_u_s>
    5e7a:	0f b6 c0             	movzbl %al,%eax
    5e7d:	66 0b 85 74 f8 ff ff 	or     -0x78c(%rbp),%ax
    5e84:	98                   	cwtl   
    5e85:	44 89 e6             	mov    %r12d,%esi
    5e88:	89 c7                	mov    %eax,%edi
    5e8a:	e8 d4 d6 ff ff       	callq  3563 <safe_rshift_func_int16_t_s_u>
    5e8f:	48 0f bf d0          	movswq %ax,%rdx
    5e93:	48 8b 05 26 88 00 00 	mov    0x8826(%rip),%rax        # e6c0 <g_712>
    5e9a:	8b 00                	mov    (%rax),%eax
    5e9c:	f7 d0                	not    %eax
    5e9e:	48 98                	cltq   
    5ea0:	48 89 d6             	mov    %rdx,%rsi
    5ea3:	48 89 c7             	mov    %rax,%rdi
    5ea6:	e8 4c db ff ff       	callq  39f7 <safe_div_func_int64_t_s_s>
    5eab:	98                   	cwtl   
    5eac:	89 de                	mov    %ebx,%esi
    5eae:	89 c7                	mov    %eax,%edi
    5eb0:	e8 1e d5 ff ff       	callq  33d3 <safe_sub_func_int16_t_s_s>
    5eb5:	66 85 c0             	test   %ax,%ax
    5eb8:	75 08                	jne    5ec2 <func_6+0x2a8>
    5eba:	66 83 bd 74 f8 ff ff 	cmpw   $0x0,-0x78c(%rbp)
    5ec1:	00 
    5ec2:	0f b7 85 74 f8 ff ff 	movzwl -0x78c(%rbp),%eax
    5ec9:	98                   	cwtl   
    5eca:	be 00 00 00 00       	mov    $0x0,%esi
    5ecf:	89 c7                	mov    %eax,%edi
    5ed1:	e8 1f d5 ff ff       	callq  33f5 <safe_mul_func_int16_t_s_s>
    5ed6:	0f b6 d8             	movzbl %al,%ebx
    5ed9:	be 00 00 00 00       	mov    $0x0,%esi
    5ede:	bf 03 00 00 00       	mov    $0x3,%edi
    5ee3:	e8 a5 dd ff ff       	callq  3c8d <safe_rshift_func_uint8_t_u_s>
    5ee8:	0f b6 c0             	movzbl %al,%eax
    5eeb:	89 de                	mov    %ebx,%esi
    5eed:	89 c7                	mov    %eax,%edi
    5eef:	e8 9f dc ff ff       	callq  3b93 <safe_mul_func_uint8_t_u_u>
    5ef4:	84 c0                	test   %al,%al
    5ef6:	74 07                	je     5eff <func_6+0x2e5>
    5ef8:	b8 01 00 00 00       	mov    $0x1,%eax
    5efd:	eb 05                	jmp    5f04 <func_6+0x2ea>
    5eff:	b8 00 00 00 00       	mov    $0x0,%eax
    5f04:	41 39 c5             	cmp    %eax,%r13d
    5f07:	0f 93 c0             	setae  %al
    5f0a:	0f b6 d0             	movzbl %al,%edx
    5f0d:	8b 85 18 f9 ff ff    	mov    -0x6e8(%rbp),%eax
    5f13:	39 c2                	cmp    %eax,%edx
    5f15:	0f 92 c0             	setb   %al
    5f18:	0f b6 d0             	movzbl %al,%edx
    5f1b:	8b 85 14 f9 ff ff    	mov    -0x6ec(%rbp),%eax
    5f21:	39 c2                	cmp    %eax,%edx
    5f23:	0f 95 c0             	setne  %al
    5f26:	0f b6 d0             	movzbl %al,%edx
    5f29:	48 8b 05 28 86 00 00 	mov    0x8628(%rip),%rax        # e558 <g_203>
    5f30:	48 8b 00             	mov    (%rax),%rax
    5f33:	0f b6 00             	movzbl (%rax),%eax
    5f36:	0f b6 c0             	movzbl %al,%eax
    5f39:	09 d0                	or     %edx,%eax
    5f3b:	85 c0                	test   %eax,%eax
    5f3d:	0f 84 a1 08 00 00    	je     67e4 <func_6+0xbca>
    5f43:	c7 85 90 f8 ff ff f6 	movl   $0xfffffff6,-0x770(%rbp)
    5f4a:	ff ff ff 
    5f4d:	48 8d 05 e4 80 00 00 	lea    0x80e4(%rip),%rax        # e038 <g_148>
    5f54:	48 89 85 d0 f8 ff ff 	mov    %rax,-0x730(%rbp)
    5f5b:	48 8d 05 86 87 00 00 	lea    0x8786(%rip),%rax        # e6e8 <g_1063>
    5f62:	48 89 85 d8 f8 ff ff 	mov    %rax,-0x728(%rbp)
    5f69:	48 8d 05 88 89 00 00 	lea    0x8988(%rip),%rax        # e8f8 <g_1377>
    5f70:	48 89 85 e0 f8 ff ff 	mov    %rax,-0x720(%rbp)
    5f77:	c7 85 94 f8 ff ff 00 	movl   $0x0,-0x76c(%rbp)
    5f7e:	00 00 00 
    5f81:	c7 85 98 f8 ff ff f9 	movl   $0xfffffff9,-0x768(%rbp)
    5f88:	ff ff ff 
    5f8b:	48 8d 85 d0 fb ff ff 	lea    -0x430(%rbp),%rax
    5f92:	48 8d 15 87 4e 00 00 	lea    0x4e87(%rip),%rdx        # ae20 <g_1874+0x20>
    5f99:	b9 7e 00 00 00       	mov    $0x7e,%ecx
    5f9e:	48 89 c7             	mov    %rax,%rdi
    5fa1:	48 89 d6             	mov    %rdx,%rsi
    5fa4:	f3 48 a5             	rep movsq %ds:(%rsi),%es:(%rdi)
    5fa7:	48 8b 85 b8 f8 ff ff 	mov    -0x748(%rbp),%rax
    5fae:	41 89 c5             	mov    %eax,%r13d
    5fb1:	48 8b 05 10 87 00 00 	mov    0x8710(%rip),%rax        # e6c8 <g_711>
    5fb8:	48 8b 00             	mov    (%rax),%rax
    5fbb:	8b 10                	mov    (%rax),%edx
    5fbd:	0f b7 8d 74 f8 ff ff 	movzwl -0x78c(%rbp),%ecx
    5fc4:	48 8b 85 d0 f8 ff ff 	mov    -0x730(%rbp),%rax
    5fcb:	0f b7 00             	movzwl (%rax),%eax
    5fce:	89 c6                	mov    %eax,%esi
    5fd0:	8b 85 90 f8 ff ff    	mov    -0x770(%rbp),%eax
    5fd6:	31 f0                	xor    %esi,%eax
    5fd8:	89 c6                	mov    %eax,%esi
    5fda:	48 8b 85 d0 f8 ff ff 	mov    -0x730(%rbp),%rax
    5fe1:	66 89 30             	mov    %si,(%rax)
    5fe4:	48 8b 85 d0 f8 ff ff 	mov    -0x730(%rbp),%rax
    5feb:	0f b7 00             	movzwl (%rax),%eax
    5fee:	0f bf f0             	movswl %ax,%esi
    5ff1:	48 83 bd b0 f8 ff ff 	cmpq   $0x0,-0x750(%rbp)
    5ff8:	00 
    5ff9:	0f 95 c0             	setne  %al
    5ffc:	0f b6 c0             	movzbl %al,%eax
    5fff:	21 f0                	and    %esi,%eax
    6001:	39 c1                	cmp    %eax,%ecx
    6003:	0f 9e c0             	setle  %al
    6006:	0f b6 c8             	movzbl %al,%ecx
    6009:	48 8b 85 68 f8 ff ff 	mov    -0x798(%rbp),%rax
    6010:	89 08                	mov    %ecx,(%rax)
    6012:	48 8b 85 68 f8 ff ff 	mov    -0x798(%rbp),%rax
    6019:	8b 00                	mov    (%rax),%eax
    601b:	89 d6                	mov    %edx,%esi
    601d:	89 c7                	mov    %eax,%edi
    601f:	e8 92 d5 ff ff       	callq  35b6 <safe_add_func_int32_t_s_s>
    6024:	0f b7 9d 74 f8 ff ff 	movzwl -0x78c(%rbp),%ebx
    602b:	0f b7 85 74 f8 ff ff 	movzwl -0x78c(%rbp),%eax
    6032:	44 0f bf e0          	movswl %ax,%r12d
    6036:	0f b7 85 74 f8 ff ff 	movzwl -0x78c(%rbp),%eax
    603d:	0f be c0             	movsbl %al,%eax
    6040:	8b 95 8c f8 ff ff    	mov    -0x774(%rbp),%edx
    6046:	89 d6                	mov    %edx,%esi
    6048:	89 c7                	mov    %eax,%edi
    604a:	e8 52 d2 ff ff       	callq  32a1 <safe_lshift_func_int8_t_s_s>
    604f:	0f be c0             	movsbl %al,%eax
    6052:	44 89 e6             	mov    %r12d,%esi
    6055:	89 c7                	mov    %eax,%edi
    6057:	e8 99 d3 ff ff       	callq  33f5 <safe_mul_func_int16_t_s_s>
    605c:	98                   	cwtl   
    605d:	89 de                	mov    %ebx,%esi
    605f:	89 c7                	mov    %eax,%edi
    6061:	e8 fd d4 ff ff       	callq  3563 <safe_rshift_func_int16_t_s_u>
    6066:	0f be c0             	movsbl %al,%eax
    6069:	be 0f 00 00 00       	mov    $0xf,%esi
    606e:	89 c7                	mov    %eax,%edi
    6070:	e8 f5 d1 ff ff       	callq  326a <safe_div_func_int8_t_s_s>
    6075:	44 89 ee             	mov    %r13d,%esi
    6078:	bf 01 00 00 00       	mov    $0x1,%edi
    607d:	e8 c6 dd ff ff       	callq  3e48 <safe_rshift_func_uint16_t_u_s>
    6082:	66 85 c0             	test   %ax,%ax
    6085:	74 11                	je     6098 <func_6+0x47e>
    6087:	48 83 bd b8 f8 ff ff 	cmpq   $0x0,-0x748(%rbp)
    608e:	00 
    608f:	74 07                	je     6098 <func_6+0x47e>
    6091:	ba 01 00 00 00       	mov    $0x1,%edx
    6096:	eb 05                	jmp    609d <func_6+0x483>
    6098:	ba 00 00 00 00       	mov    $0x0,%edx
    609d:	48 8b 05 74 85 00 00 	mov    0x8574(%rip),%rax        # e618 <g_524>
    60a4:	66 89 10             	mov    %dx,(%rax)
    60a7:	8b 85 b0 f9 ff ff    	mov    -0x650(%rbp),%eax
    60ad:	be 00 00 00 00       	mov    $0x0,%esi
    60b2:	89 c7                	mov    %eax,%edi
    60b4:	e8 fd d4 ff ff       	callq  35b6 <safe_add_func_int32_t_s_s>
    60b9:	35 f7 ff 00 00       	xor    $0xfff7,%eax
    60be:	48 63 d0             	movslq %eax,%rdx
    60c1:	8b 85 90 f8 ff ff    	mov    -0x770(%rbp),%eax
    60c7:	48 39 c2             	cmp    %rax,%rdx
    60ca:	48 c7 85 c0 f8 ff ff 	movq   $0x0,-0x740(%rbp)
    60d1:	00 00 00 00 
    60d5:	48 8b 85 c0 f8 ff ff 	mov    -0x740(%rbp),%rax
    60dc:	48 3b 85 d8 f8 ff ff 	cmp    -0x728(%rbp),%rax
    60e3:	0f 95 c0             	setne  %al
    60e6:	0f b6 c0             	movzbl %al,%eax
    60e9:	89 85 08 fa ff ff    	mov    %eax,-0x5f8(%rbp)
    60ef:	48 8b 85 d8 f8 ff ff 	mov    -0x728(%rbp),%rax
    60f6:	48 8b 00             	mov    (%rax),%rax
    60f9:	48 8b 00             	mov    (%rax),%rax
    60fc:	48 8b 00             	mov    (%rax),%rax
    60ff:	48 8b 00             	mov    (%rax),%rax
    6102:	8b 00                	mov    (%rax),%eax
    6104:	89 c2                	mov    %eax,%edx
    6106:	48 8b 85 d0 f8 ff ff 	mov    -0x730(%rbp),%rax
    610d:	66 89 10             	mov    %dx,(%rax)
    6110:	48 8b 85 d0 f8 ff ff 	mov    -0x730(%rbp),%rax
    6117:	0f b7 00             	movzwl (%rax),%eax
    611a:	98                   	cwtl   
    611b:	be 0a 00 00 00       	mov    $0xa,%esi
    6120:	89 c7                	mov    %eax,%edi
    6122:	e8 6b d3 ff ff       	callq  3492 <safe_lshift_func_int16_t_s_s>
    6127:	48 8b 15 fa 85 00 00 	mov    0x85fa(%rip),%rdx        # e728 <g_1341>
    612e:	8b 0a                	mov    (%rdx),%ecx
    6130:	0f bf d0             	movswl %ax,%edx
    6133:	48 8b 05 ee 85 00 00 	mov    0x85ee(%rip),%rax        # e728 <g_1341>
    613a:	09 ca                	or     %ecx,%edx
    613c:	89 10                	mov    %edx,(%rax)
    613e:	c6 05 13 7f 00 00 e9 	movb   $0xe9,0x7f13(%rip)        # e058 <g_198>
    6145:	e9 89 06 00 00       	jmpq   67d3 <func_6+0xbb9>
    614a:	c6 85 83 f8 ff ff 44 	movb   $0x44,-0x77d(%rbp)
    6151:	c7 85 30 f9 ff ff a2 	movl   $0xbf3ba2a2,-0x6d0(%rbp)
    6158:	a2 3b bf 
    615b:	c7 85 34 f9 ff ff a2 	movl   $0x7b90dba2,-0x6cc(%rbp)
    6162:	db 90 7b 
    6165:	c7 85 38 f9 ff ff f6 	movl   $0xfffffff6,-0x6c8(%rbp)
    616c:	ff ff ff 
    616f:	c7 85 3c f9 ff ff a2 	movl   $0x7b90dba2,-0x6c4(%rbp)
    6176:	db 90 7b 
    6179:	c7 85 40 f9 ff ff a2 	movl   $0xbf3ba2a2,-0x6c0(%rbp)
    6180:	a2 3b bf 
    6183:	c7 85 44 f9 ff ff a2 	movl   $0xbf3ba2a2,-0x6bc(%rbp)
    618a:	a2 3b bf 
    618d:	c7 85 48 f9 ff ff a2 	movl   $0x7b90dba2,-0x6b8(%rbp)
    6194:	db 90 7b 
    6197:	c7 85 4c f9 ff ff f6 	movl   $0xfffffff6,-0x6b4(%rbp)
    619e:	ff ff ff 
    61a1:	c7 85 50 f9 ff ff a2 	movl   $0x7b90dba2,-0x6b0(%rbp)
    61a8:	db 90 7b 
    61ab:	c7 85 54 f9 ff ff a2 	movl   $0xbf3ba2a2,-0x6ac(%rbp)
    61b2:	a2 3b bf 
    61b5:	c7 85 20 f9 ff ff 00 	movl   $0x0,-0x6e0(%rbp)
    61bc:	00 00 00 
    61bf:	c7 85 24 f9 ff ff 00 	movl   $0x0,-0x6dc(%rbp)
    61c6:	00 00 00 
    61c9:	c7 85 28 f9 ff ff 00 	movl   $0x0,-0x6d8(%rbp)
    61d0:	00 00 00 
    61d3:	c7 85 2c f9 ff ff 00 	movl   $0x0,-0x6d4(%rbp)
    61da:	00 00 00 
    61dd:	48 c7 05 68 7e 00 00 	movq   $0x4,0x7e68(%rip)        # e050 <g_196>
    61e4:	04 00 00 00 
    61e8:	e9 aa 03 00 00       	jmpq   6597 <func_6+0x97d>
    61ed:	48 c7 85 e8 f8 ff ff 	movq   $0x0,-0x718(%rbp)
    61f4:	00 00 00 00 
    61f8:	48 c7 85 f0 f8 ff ff 	movq   $0xfffffffffffffffd,-0x710(%rbp)
    61ff:	fd ff ff ff 
    6203:	48 8d 85 20 fa ff ff 	lea    -0x5e0(%rbp),%rax
    620a:	48 8d 15 0f 50 00 00 	lea    0x500f(%rip),%rdx        # b220 <g_1874+0x420>
    6211:	b9 34 00 00 00       	mov    $0x34,%ecx
    6216:	48 89 c7             	mov    %rax,%rdi
    6219:	48 89 d6             	mov    %rdx,%rsi
    621c:	f3 48 a5             	rep movsq %ds:(%rsi),%es:(%rdi)
    621f:	48 89 f2             	mov    %rsi,%rdx
    6222:	48 89 f8             	mov    %rdi,%rax
    6225:	8b 0a                	mov    (%rdx),%ecx
    6227:	89 08                	mov    %ecx,(%rax)
    6229:	48 8b 15 98 84 00 00 	mov    0x8498(%rip),%rdx        # e6c8 <g_711>
    6230:	48 8b 05 29 87 00 00 	mov    0x8729(%rip),%rax        # e960 <g_1772>
    6237:	48 8b 12             	mov    (%rdx),%rdx
    623a:	48 89 10             	mov    %rdx,(%rax)
    623d:	48 c7 05 f8 7d 00 00 	movq   $0x0,0x7df8(%rip)        # e040 <g_162>
    6244:	00 00 00 00 
    6248:	e9 24 03 00 00       	jmpq   6571 <func_6+0x957>
    624d:	66 c7 85 86 f8 ff ff 	movw   $0xffff,-0x77a(%rbp)
    6254:	ff ff 
    6256:	48 8d 05 5b 8d 00 00 	lea    0x8d5b(%rip),%rax        # efb8 <g_272>
    625d:	48 89 85 f8 f8 ff ff 	mov    %rax,-0x708(%rbp)
    6264:	48 8d 85 30 f9 ff ff 	lea    -0x6d0(%rbp),%rax
    626b:	48 83 c0 10          	add    $0x10,%rax
    626f:	48 89 85 00 f9 ff ff 	mov    %rax,-0x700(%rbp)
    6276:	48 8d 85 30 f9 ff ff 	lea    -0x6d0(%rbp),%rax
    627d:	48 83 c0 10          	add    $0x10,%rax
    6281:	48 89 85 08 f9 ff ff 	mov    %rax,-0x6f8(%rbp)
    6288:	48 8d 05 a5 7d 00 00 	lea    0x7da5(%rip),%rax        # e034 <g_121>
    628f:	48 89 85 60 f9 ff ff 	mov    %rax,-0x6a0(%rbp)
    6296:	48 8d 05 97 7d 00 00 	lea    0x7d97(%rip),%rax        # e034 <g_121>
    629d:	48 89 85 68 f9 ff ff 	mov    %rax,-0x698(%rbp)
    62a4:	48 8d 05 89 7d 00 00 	lea    0x7d89(%rip),%rax        # e034 <g_121>
    62ab:	48 89 85 70 f9 ff ff 	mov    %rax,-0x690(%rbp)
    62b2:	48 8d 05 7b 7d 00 00 	lea    0x7d7b(%rip),%rax        # e034 <g_121>
    62b9:	48 89 85 78 f9 ff ff 	mov    %rax,-0x688(%rbp)
    62c0:	48 8d 05 6d 7d 00 00 	lea    0x7d6d(%rip),%rax        # e034 <g_121>
    62c7:	48 89 85 80 f9 ff ff 	mov    %rax,-0x680(%rbp)
    62ce:	48 8d 05 5f 7d 00 00 	lea    0x7d5f(%rip),%rax        # e034 <g_121>
    62d5:	48 89 85 88 f9 ff ff 	mov    %rax,-0x678(%rbp)
    62dc:	48 8d 05 51 7d 00 00 	lea    0x7d51(%rip),%rax        # e034 <g_121>
    62e3:	48 89 85 90 f9 ff ff 	mov    %rax,-0x670(%rbp)
    62ea:	48 8d 05 43 7d 00 00 	lea    0x7d43(%rip),%rax        # e034 <g_121>
    62f1:	48 89 85 98 f9 ff ff 	mov    %rax,-0x668(%rbp)
    62f8:	48 8d 05 35 7d 00 00 	lea    0x7d35(%rip),%rax        # e034 <g_121>
    62ff:	48 89 85 a0 f9 ff ff 	mov    %rax,-0x660(%rbp)
    6306:	c7 85 9c f8 ff ff 01 	movl   $0x1,-0x764(%rbp)
    630d:	00 00 00 
    6310:	c6 85 84 f8 ff ff fb 	movb   $0xfb,-0x77c(%rbp)
    6317:	48 8b 05 22 7d 00 00 	mov    0x7d22(%rip),%rax        # e040 <g_162>
    631e:	48 8d 48 04          	lea    0x4(%rax),%rcx
    6322:	48 8b 05 17 7d 00 00 	mov    0x7d17(%rip),%rax        # e040 <g_162>
    6329:	48 8d 50 02          	lea    0x2(%rax),%rdx
    632d:	48 8b 05 0c 7d 00 00 	mov    0x7d0c(%rip),%rax        # e040 <g_162>
    6334:	48 c1 e1 03          	shl    $0x3,%rcx
    6338:	48 01 ca             	add    %rcx,%rdx
    633b:	48 c1 e2 02          	shl    $0x2,%rdx
    633f:	48 01 c2             	add    %rax,%rdx
    6342:	48 8d 05 f7 7d 00 00 	lea    0x7df7(%rip),%rax        # e140 <g_1498>
    6349:	48 01 d0             	add    %rdx,%rax
    634c:	0f b6 00             	movzbl (%rax),%eax
    634f:	0f be c0             	movsbl %al,%eax
    6352:	89 85 64 f8 ff ff    	mov    %eax,-0x79c(%rbp)
    6358:	48 8b 85 d8 f8 ff ff 	mov    -0x728(%rbp),%rax
    635f:	48 8b 00             	mov    (%rax),%rax
    6362:	48 8b 00             	mov    (%rax),%rax
    6365:	48 8b 00             	mov    (%rax),%rax
    6368:	48 8b 00             	mov    (%rax),%rax
    636b:	8b 00                	mov    (%rax),%eax
    636d:	0f b6 d8             	movzbl %al,%ebx
    6370:	0f b7 85 74 f8 ff ff 	movzwl -0x78c(%rbp),%eax
    6377:	44 0f bf e0          	movswl %ax,%r12d
    637b:	4c 0f bf ad 86 f8 ff 	movswq -0x77a(%rbp),%r13
    6382:	ff 
    6383:	0f b7 85 74 f8 ff ff 	movzwl -0x78c(%rbp),%eax
    638a:	44 0f b6 f0          	movzbl %al,%r14d
    638e:	48 8b 85 f0 f8 ff ff 	mov    -0x710(%rbp),%rax
    6395:	89 c2                	mov    %eax,%edx
    6397:	48 8b 85 68 f8 ff ff 	mov    -0x798(%rbp),%rax
    639e:	8b 00                	mov    (%rax),%eax
    63a0:	89 d6                	mov    %edx,%esi
    63a2:	89 c7                	mov    %eax,%edi
    63a4:	e8 0d d2 ff ff       	callq  35b6 <safe_add_func_int32_t_s_s>
    63a9:	98                   	cwtl   
    63aa:	be ff ff ff ff       	mov    $0xffffffff,%esi
    63af:	89 c7                	mov    %eax,%edi
    63b1:	e8 60 d0 ff ff       	callq  3416 <safe_mod_func_int16_t_s_s>
    63b6:	44 0f b7 bd 74 f8 ff 	movzwl -0x78c(%rbp),%r15d
    63bd:	ff 
    63be:	0f b7 85 74 f8 ff ff 	movzwl -0x78c(%rbp),%eax
    63c5:	0f bf d0             	movswl %ax,%edx
    63c8:	48 83 bd e0 f8 ff ff 	cmpq   $0x0,-0x720(%rbp)
    63cf:	00 
    63d0:	0f 95 c0             	setne  %al
    63d3:	0f b6 c8             	movzbl %al,%ecx
    63d6:	48 8b 85 d0 f8 ff ff 	mov    -0x730(%rbp),%rax
    63dd:	66 89 08             	mov    %cx,(%rax)
    63e0:	48 8b 85 d0 f8 ff ff 	mov    -0x730(%rbp),%rax
    63e7:	0f b7 00             	movzwl (%rax),%eax
    63ea:	98                   	cwtl   
    63eb:	89 d6                	mov    %edx,%esi
    63ed:	89 c7                	mov    %eax,%edi
    63ef:	e8 01 d0 ff ff       	callq  33f5 <safe_mul_func_int16_t_s_s>
    63f4:	48 0f bf c0          	movswq %ax,%rax
    63f8:	4c 89 fe             	mov    %r15,%rsi
    63fb:	48 89 c7             	mov    %rax,%rdi
    63fe:	e8 7d dc ff ff       	callq  4080 <safe_mod_func_uint64_t_u_u>
    6403:	48 8b 05 16 82 00 00 	mov    0x8216(%rip),%rax        # e620 <g_523>
    640a:	48 8b 00             	mov    (%rax),%rax
    640d:	66 c7 00 00 00       	movw   $0x0,(%rax)
    6412:	0f b7 00             	movzwl (%rax),%eax
    6415:	22 85 83 f8 ff ff    	and    -0x77d(%rbp),%al
    641b:	0f b6 c0             	movzbl %al,%eax
    641e:	44 89 f6             	mov    %r14d,%esi
    6421:	89 c7                	mov    %eax,%edi
    6423:	e8 50 d7 ff ff       	callq  3b78 <safe_sub_func_uint8_t_u_u>
    6428:	0f b6 c0             	movzbl %al,%eax
    642b:	4c 89 ee             	mov    %r13,%rsi
    642e:	48 89 c7             	mov    %rax,%rdi
    6431:	e8 15 dc ff ff       	callq  404b <safe_sub_func_uint64_t_u_u>
    6436:	44 89 e6             	mov    %r12d,%esi
    6439:	bf 00 00 00 00       	mov    $0x0,%edi
    643e:	e8 b2 cf ff ff       	callq  33f5 <safe_mul_func_int16_t_s_s>
    6443:	89 c2                	mov    %eax,%edx
    6445:	48 8b 85 f8 f8 ff ff 	mov    -0x708(%rbp),%rax
    644c:	66 89 10             	mov    %dx,(%rax)
    644f:	48 8b 85 f8 f8 ff ff 	mov    -0x708(%rbp),%rax
    6456:	0f b7 00             	movzwl (%rax),%eax
    6459:	0f b7 c0             	movzwl %ax,%eax
    645c:	be ff ff 00 00       	mov    $0xffff,%esi
    6461:	89 c7                	mov    %eax,%edi
    6463:	e8 d5 d8 ff ff       	callq  3d3d <safe_mul_func_uint16_t_u_u>
    6468:	66 83 bd 74 f8 ff ff 	cmpw   $0x0,-0x78c(%rbp)
    646f:	00 
    6470:	66 c7 85 74 f8 ff ff 	movw   $0xfffa,-0x78c(%rbp)
    6477:	fa ff 
    6479:	be b4 00 00 00       	mov    $0xb4,%esi
    647e:	bf 00 00 00 00       	mov    $0x0,%edi
    6483:	e8 26 d7 ff ff       	callq  3bae <safe_mod_func_uint8_t_u_u>
    6488:	0f b6 d0             	movzbl %al,%edx
    648b:	48 8b 05 ae 7b 00 00 	mov    0x7bae(%rip),%rax        # e040 <g_162>
    6492:	48 8d 70 01          	lea    0x1(%rax),%rsi
    6496:	48 8b 05 a3 7b 00 00 	mov    0x7ba3(%rip),%rax        # e040 <g_162>
    649d:	48 8d 48 03          	lea    0x3(%rax),%rcx
    64a1:	48 8b 05 98 7b 00 00 	mov    0x7b98(%rip),%rax        # e040 <g_162>
    64a8:	48 c1 e6 03          	shl    $0x3,%rsi
    64ac:	48 01 f1             	add    %rsi,%rcx
    64af:	48 c1 e1 02          	shl    $0x2,%rcx
    64b3:	48 01 c1             	add    %rax,%rcx
    64b6:	48 8d 05 83 7c 00 00 	lea    0x7c83(%rip),%rax        # e140 <g_1498>
    64bd:	48 01 c8             	add    %rcx,%rax
    64c0:	0f b6 00             	movzbl (%rax),%eax
    64c3:	0f be c0             	movsbl %al,%eax
    64c6:	89 d6                	mov    %edx,%esi
    64c8:	89 c7                	mov    %eax,%edi
    64ca:	e8 86 cf ff ff       	callq  3455 <safe_div_func_int16_t_s_s>
    64cf:	98                   	cwtl   
    64d0:	be ff ff ff ff       	mov    $0xffffffff,%esi
    64d5:	89 c7                	mov    %eax,%edi
    64d7:	e8 19 cf ff ff       	callq  33f5 <safe_mul_func_int16_t_s_s>
    64dc:	0f b6 c0             	movzbl %al,%eax
    64df:	89 de                	mov    %ebx,%esi
    64e1:	89 c7                	mov    %eax,%edi
    64e3:	e8 c6 d6 ff ff       	callq  3bae <safe_mod_func_uint8_t_u_u>
    64e8:	0f b6 d0             	movzbl %al,%edx
    64eb:	8b 85 b0 f9 ff ff    	mov    -0x650(%rbp),%eax
    64f1:	39 c2                	cmp    %eax,%edx
    64f3:	0f 9d c0             	setge  %al
    64f6:	0f b6 c0             	movzbl %al,%eax
    64f9:	39 85 64 f8 ff ff    	cmp    %eax,-0x79c(%rbp)
    64ff:	7e 3a                	jle    653b <func_6+0x921>
    6501:	c6 85 85 f8 ff ff ff 	movb   $0xff,-0x77b(%rbp)
    6508:	48 8b 85 68 f8 ff ff 	mov    -0x798(%rbp),%rax
    650f:	8b 10                	mov    (%rax),%edx
    6511:	0f be 85 85 f8 ff ff 	movsbl -0x77b(%rbp),%eax
    6518:	21 c2                	and    %eax,%edx
    651a:	48 8b 85 68 f8 ff ff 	mov    -0x798(%rbp),%rax
    6521:	89 10                	mov    %edx,(%rax)
    6523:	48 8b 85 d8 f8 ff ff 	mov    -0x728(%rbp),%rax
    652a:	48 8b 00             	mov    (%rax),%rax
    652d:	48 8b 00             	mov    (%rax),%rax
    6530:	48 8b 00             	mov    (%rax),%rax
    6533:	48 8b 00             	mov    (%rax),%rax
    6536:	e9 d5 02 00 00       	jmpq   6810 <func_6+0xbf6>
    653b:	48 8b 85 68 f8 ff ff 	mov    -0x798(%rbp),%rax
    6542:	8b 00                	mov    (%rax),%eax
    6544:	85 c0                	test   %eax,%eax
    6546:	75 3c                	jne    6584 <func_6+0x96a>
    6548:	8b 85 2c f9 ff ff    	mov    -0x6d4(%rbp),%eax
    654e:	83 e8 01             	sub    $0x1,%eax
    6551:	89 85 2c f9 ff ff    	mov    %eax,-0x6d4(%rbp)
    6557:	48 83 85 a8 f8 ff ff 	addq   $0x1,-0x758(%rbp)
    655e:	01 
    655f:	48 8b 05 da 7a 00 00 	mov    0x7ada(%rip),%rax        # e040 <g_162>
    6566:	48 83 c0 01          	add    $0x1,%rax
    656a:	48 89 05 cf 7a 00 00 	mov    %rax,0x7acf(%rip)        # e040 <g_162>
    6571:	48 8b 05 c8 7a 00 00 	mov    0x7ac8(%rip),%rax        # e040 <g_162>
    6578:	48 83 f8 03          	cmp    $0x3,%rax
    657c:	0f 86 cb fc ff ff    	jbe    624d <func_6+0x633>
    6582:	eb 01                	jmp    6585 <func_6+0x96b>
    6584:	90                   	nop
    6585:	48 8b 05 c4 7a 00 00 	mov    0x7ac4(%rip),%rax        # e050 <g_196>
    658c:	48 83 c0 01          	add    $0x1,%rax
    6590:	48 89 05 b9 7a 00 00 	mov    %rax,0x7ab9(%rip)        # e050 <g_196>
    6597:	48 8b 05 b2 7a 00 00 	mov    0x7ab2(%rip),%rax        # e050 <g_196>
    659e:	48 83 f8 0d          	cmp    $0xd,%rax
    65a2:	0f 87 45 fc ff ff    	ja     61ed <func_6+0x5d3>
    65a8:	48 c7 05 8d 7c 00 00 	movq   $0x0,0x7c8d(%rip)        # e240 <g_1540>
    65af:	00 00 00 00 
    65b3:	e9 d7 01 00 00       	jmpq   678f <func_6+0xb75>
    65b8:	66 c7 85 74 f8 ff ff 	movw   $0x0,-0x78c(%rbp)
    65bf:	00 00 
    65c1:	e9 a9 01 00 00       	jmpq   676f <func_6+0xb55>
    65c6:	48 8b 05 73 7c 00 00 	mov    0x7c73(%rip),%rax        # e240 <g_1540>
    65cd:	48 8d 50 03          	lea    0x3(%rax),%rdx
    65d1:	0f b7 85 74 f8 ff ff 	movzwl -0x78c(%rbp),%eax
    65d8:	0f b7 8d 74 f8 ff ff 	movzwl -0x78c(%rbp),%ecx
    65df:	83 c1 01             	add    $0x1,%ecx
    65e2:	48 63 f1             	movslq %ecx,%rsi
    65e5:	48 63 c8             	movslq %eax,%rcx
    65e8:	48 89 d0             	mov    %rdx,%rax
    65eb:	48 c1 e0 03          	shl    $0x3,%rax
    65ef:	48 29 d0             	sub    %rdx,%rax
    65f2:	48 c1 e0 02          	shl    $0x2,%rax
    65f6:	48 89 ca             	mov    %rcx,%rdx
    65f9:	48 c1 e2 03          	shl    $0x3,%rdx
    65fd:	48 29 ca             	sub    %rcx,%rdx
    6600:	48 01 d0             	add    %rdx,%rax
    6603:	48 01 f0             	add    %rsi,%rax
    6606:	8b 8c 85 d0 fb ff ff 	mov    -0x430(%rbp,%rax,4),%ecx
    660d:	48 8b 05 2c 7c 00 00 	mov    0x7c2c(%rip),%rax        # e240 <g_1540>
    6614:	48 8d 50 03          	lea    0x3(%rax),%rdx
    6618:	0f b7 85 74 f8 ff ff 	movzwl -0x78c(%rbp),%eax
    661f:	0f b7 b5 74 f8 ff ff 	movzwl -0x78c(%rbp),%esi
    6626:	8d 7e 01             	lea    0x1(%rsi),%edi
    6629:	83 e1 f8             	and    $0xfffffff8,%ecx
    662c:	89 ce                	mov    %ecx,%esi
    662e:	48 63 ff             	movslq %edi,%rdi
    6631:	48 63 c8             	movslq %eax,%rcx
    6634:	48 89 d0             	mov    %rdx,%rax
    6637:	48 c1 e0 03          	shl    $0x3,%rax
    663b:	48 29 d0             	sub    %rdx,%rax
    663e:	48 c1 e0 02          	shl    $0x2,%rax
    6642:	48 89 ca             	mov    %rcx,%rdx
    6645:	48 c1 e2 03          	shl    $0x3,%rdx
    6649:	48 29 ca             	sub    %rcx,%rdx
    664c:	48 01 d0             	add    %rdx,%rax
    664f:	48 01 f8             	add    %rdi,%rax
    6652:	89 b4 85 d0 fb ff ff 	mov    %esi,-0x430(%rbp,%rax,4)
    6659:	c7 05 cd 79 00 00 03 	movl   $0x3,0x79cd(%rip)        # e030 <g_23>
    6660:	00 00 00 
    6663:	90                   	nop
    6664:	8b 05 c6 79 00 00    	mov    0x79c6(%rip),%eax        # e030 <g_23>
    666a:	85 c0                	test   %eax,%eax
    666c:	0f 88 f5 00 00 00    	js     6767 <func_6+0xb4d>
    6672:	8b 05 b8 79 00 00    	mov    0x79b8(%rip),%eax        # e030 <g_23>
    6678:	8d 48 05             	lea    0x5(%rax),%ecx
    667b:	8b 05 af 79 00 00    	mov    0x79af(%rip),%eax        # e030 <g_23>
    6681:	0f b7 95 74 f8 ff ff 	movzwl -0x78c(%rbp),%edx
    6688:	83 c2 02             	add    $0x2,%edx
    668b:	48 63 f2             	movslq %edx,%rsi
    668e:	48 63 d1             	movslq %ecx,%rdx
    6691:	48 63 c8             	movslq %eax,%rcx
    6694:	48 89 d0             	mov    %rdx,%rax
    6697:	48 c1 e0 03          	shl    $0x3,%rax
    669b:	48 29 d0             	sub    %rdx,%rax
    669e:	48 c1 e0 02          	shl    $0x2,%rax
    66a2:	48 89 ca             	mov    %rcx,%rdx
    66a5:	48 c1 e2 03          	shl    $0x3,%rdx
    66a9:	48 29 ca             	sub    %rcx,%rdx
    66ac:	48 01 d0             	add    %rdx,%rax
    66af:	48 01 f0             	add    %rsi,%rax
    66b2:	8b 84 85 d0 fb ff ff 	mov    -0x430(%rbp,%rax,4),%eax
    66b9:	0f bf f0             	movswl %ax,%esi
    66bc:	8b 05 6e 79 00 00    	mov    0x796e(%rip),%eax        # e030 <g_23>
    66c2:	8d 48 03             	lea    0x3(%rax),%ecx
    66c5:	8b 05 65 79 00 00    	mov    0x7965(%rip),%eax        # e030 <g_23>
    66cb:	0f b7 95 74 f8 ff ff 	movzwl -0x78c(%rbp),%edx
    66d2:	83 c2 03             	add    $0x3,%edx
    66d5:	48 63 fa             	movslq %edx,%rdi
    66d8:	48 63 d1             	movslq %ecx,%rdx
    66db:	48 63 c8             	movslq %eax,%rcx
    66de:	48 89 d0             	mov    %rdx,%rax
    66e1:	48 c1 e0 03          	shl    $0x3,%rax
    66e5:	48 29 d0             	sub    %rdx,%rax
    66e8:	48 c1 e0 02          	shl    $0x2,%rax
    66ec:	48 89 ca             	mov    %rcx,%rdx
    66ef:	48 c1 e2 03          	shl    $0x3,%rdx
    66f3:	48 29 ca             	sub    %rcx,%rdx
    66f6:	48 01 d0             	add    %rdx,%rax
    66f9:	48 01 f8             	add    %rdi,%rax
    66fc:	8b 84 85 d0 fb ff ff 	mov    -0x430(%rbp,%rax,4),%eax
    6703:	98                   	cwtl   
    6704:	89 c7                	mov    %eax,%edi
    6706:	e8 ea cc ff ff       	callq  33f5 <safe_mul_func_int16_t_s_s>
    670b:	0f b7 95 74 f8 ff ff 	movzwl -0x78c(%rbp),%edx
    6712:	44 8d 42 04          	lea    0x4(%rdx),%r8d
    6716:	0f b7 8d 74 f8 ff ff 	movzwl -0x78c(%rbp),%ecx
    671d:	0f b7 95 74 f8 ff ff 	movzwl -0x78c(%rbp),%edx
    6724:	83 c2 02             	add    $0x2,%edx
    6727:	0f bf f0             	movswl %ax,%esi
    672a:	48 63 fa             	movslq %edx,%rdi
    672d:	49 63 d0             	movslq %r8d,%rdx
    6730:	48 63 c9             	movslq %ecx,%rcx
    6733:	48 89 d0             	mov    %rdx,%rax
    6736:	48 c1 e0 03          	shl    $0x3,%rax
    673a:	48 29 d0             	sub    %rdx,%rax
    673d:	48 c1 e0 02          	shl    $0x2,%rax
    6741:	48 89 ca             	mov    %rcx,%rdx
    6744:	48 c1 e2 03          	shl    $0x3,%rdx
    6748:	48 29 ca             	sub    %rcx,%rdx
    674b:	48 01 d0             	add    %rdx,%rax
    674e:	48 01 f8             	add    %rdi,%rax
    6751:	89 b4 85 d0 fb ff ff 	mov    %esi,-0x430(%rbp,%rax,4)
    6758:	48 8b 05 59 7f 00 00 	mov    0x7f59(%rip),%rax        # e6b8 <g_695>
    675f:	48 8b 00             	mov    (%rax),%rax
    6762:	e9 a9 00 00 00       	jmpq   6810 <func_6+0xbf6>
    6767:	66 83 85 74 f8 ff ff 	addw   $0x1,-0x78c(%rbp)
    676e:	01 
    676f:	66 83 bd 74 f8 ff ff 	cmpw   $0x3,-0x78c(%rbp)
    6776:	03 
    6777:	0f 86 49 fe ff ff    	jbe    65c6 <func_6+0x9ac>
    677d:	48 8b 05 bc 7a 00 00 	mov    0x7abc(%rip),%rax        # e240 <g_1540>
    6784:	48 83 c0 01          	add    $0x1,%rax
    6788:	48 89 05 b1 7a 00 00 	mov    %rax,0x7ab1(%rip)        # e240 <g_1540>
    678f:	48 8b 05 aa 7a 00 00 	mov    0x7aaa(%rip),%rax        # e240 <g_1540>
    6796:	48 83 f8 04          	cmp    $0x4,%rax
    679a:	0f 86 18 fe ff ff    	jbe    65b8 <func_6+0x99e>
    67a0:	48 8b 85 d8 f8 ff ff 	mov    -0x728(%rbp),%rax
    67a7:	48 8b 00             	mov    (%rax),%rax
    67aa:	48 8b 00             	mov    (%rax),%rax
    67ad:	48 8b 00             	mov    (%rax),%rax
    67b0:	48 8b 00             	mov    (%rax),%rax
    67b3:	8b 00                	mov    (%rax),%eax
    67b5:	85 c0                	test   %eax,%eax
    67b7:	0f b6 05 9a 78 00 00 	movzbl 0x789a(%rip),%eax        # e058 <g_198>
    67be:	0f b6 c0             	movzbl %al,%eax
    67c1:	be 07 00 00 00       	mov    $0x7,%esi
    67c6:	89 c7                	mov    %eax,%edi
    67c8:	e8 e9 cd ff ff       	callq  35b6 <safe_add_func_int32_t_s_s>
    67cd:	88 05 85 78 00 00    	mov    %al,0x7885(%rip)        # e058 <g_198>
    67d3:	0f b6 05 7e 78 00 00 	movzbl 0x787e(%rip),%eax        # e058 <g_198>
    67da:	3c 3b                	cmp    $0x3b,%al
    67dc:	0f 87 68 f9 ff ff    	ja     614a <func_6+0x530>
    67e2:	eb 25                	jmp    6809 <func_6+0xbef>
    67e4:	48 8d 95 d0 fb ff ff 	lea    -0x430(%rbp),%rdx
    67eb:	b8 00 00 00 00       	mov    $0x0,%eax
    67f0:	b9 18 00 00 00       	mov    $0x18,%ecx
    67f5:	48 89 d7             	mov    %rdx,%rdi
    67f8:	f3 48 ab             	rep stos %rax,%es:(%rdi)
    67fb:	48 8b 85 78 f8 ff ff 	mov    -0x788(%rbp),%rax
    6802:	48 89 85 c8 f8 ff ff 	mov    %rax,-0x738(%rbp)
    6809:	48 8b 85 68 f8 ff ff 	mov    -0x798(%rbp),%rax
    6810:	48 8b 5d c8          	mov    -0x38(%rbp),%rbx
    6814:	64 48 33 1c 25 28 00 	xor    %fs:0x28,%rbx
    681b:	00 00 
    681d:	74 05                	je     6824 <func_6+0xc0a>
    681f:	e8 4c c8 ff ff       	callq  3070 <__stack_chk_fail@plt>
    6824:	48 81 c4 78 07 00 00 	add    $0x778,%rsp
    682b:	5b                   	pop    %rbx
    682c:	41 5c                	pop    %r12
    682e:	41 5d                	pop    %r13
    6830:	41 5e                	pop    %r14
    6832:	41 5f                	pop    %r15
    6834:	5d                   	pop    %rbp
    6835:	c3                   	retq   

0000000000006836 <func_14>:
    6836:	f3 0f 1e fa          	endbr64 
    683a:	55                   	push   %rbp
    683b:	48 89 e5             	mov    %rsp,%rbp
    683e:	48 81 ec 30 03 00 00 	sub    $0x330,%rsp
    6845:	89 bd dc fc ff ff    	mov    %edi,-0x324(%rbp)
    684b:	64 48 8b 04 25 28 00 	mov    %fs:0x28,%rax
    6852:	00 00 
    6854:	48 89 45 f8          	mov    %rax,-0x8(%rbp)
    6858:	31 c0                	xor    %eax,%eax
    685a:	48 b8 7c c1 a1 46 47 	movabs $0x7182b4746a1c17c,%rax
    6861:	2b 18 07 
    6864:	48 89 85 10 fd ff ff 	mov    %rax,-0x2f0(%rbp)
    686b:	48 8d 05 be 77 00 00 	lea    0x77be(%rip),%rax        # e030 <g_23>
    6872:	48 89 85 18 fd ff ff 	mov    %rax,-0x2e8(%rbp)
    6879:	c7 85 fc fc ff ff ff 	movl   $0xffffffff,-0x304(%rbp)
    6880:	ff ff ff 
    6883:	48 8d 05 9e 7d 00 00 	lea    0x7d9e(%rip),%rax        # e628 <g_542>
    688a:	48 89 85 30 fd ff ff 	mov    %rax,-0x2d0(%rbp)
    6891:	48 b8 2b fd 41 f8 ff 	movabs $0xef99cfff841fd2b,%rax
    6898:	9c f9 0e 
    689b:	48 89 85 38 fd ff ff 	mov    %rax,-0x2c8(%rbp)
    68a2:	c7 85 70 fd ff ff 32 	movl   $0x5b5c0e32,-0x290(%rbp)
    68a9:	0e 5c 5b 
    68ac:	c7 85 74 fd ff ff 32 	movl   $0x5b5c0e32,-0x28c(%rbp)
    68b3:	0e 5c 5b 
    68b6:	c7 85 78 fd ff ff 32 	movl   $0x5b5c0e32,-0x288(%rbp)
    68bd:	0e 5c 5b 
    68c0:	c7 85 7c fd ff ff 32 	movl   $0x5b5c0e32,-0x284(%rbp)
    68c7:	0e 5c 5b 
    68ca:	c7 85 00 fd ff ff 00 	movl   $0x0,-0x300(%rbp)
    68d1:	00 00 00 
    68d4:	c6 85 e8 fc ff ff f8 	movb   $0xf8,-0x318(%rbp)
    68db:	48 8d 05 2e 7d 00 00 	lea    0x7d2e(%rip),%rax        # e610 <g_438>
    68e2:	48 89 85 40 fd ff ff 	mov    %rax,-0x2c0(%rbp)
    68e9:	48 8d 05 58 7c 00 00 	lea    0x7c58(%rip),%rax        # e548 <g_169+0x28>
    68f0:	48 89 85 48 fd ff ff 	mov    %rax,-0x2b8(%rbp)
    68f7:	48 c7 85 20 fd ff ff 	movq   $0x0,-0x2e0(%rbp)
    68fe:	00 00 00 00 
    6902:	48 8d 85 20 fd ff ff 	lea    -0x2e0(%rbp),%rax
    6909:	48 89 85 50 fd ff ff 	mov    %rax,-0x2b0(%rbp)
    6910:	48 8d 05 31 77 00 00 	lea    0x7731(%rip),%rax        # e048 <g_165>
    6917:	48 89 85 58 fd ff ff 	mov    %rax,-0x2a8(%rbp)
    691e:	66 c7 85 ea fc ff ff 	movw   $0xffff,-0x316(%rbp)
    6925:	ff ff 
    6927:	48 c7 85 60 fd ff ff 	movq   $0x9,-0x2a0(%rbp)
    692e:	09 00 00 00 
    6932:	c7 85 04 fd ff ff 01 	movl   $0x1,-0x2fc(%rbp)
    6939:	00 00 00 
    693c:	c6 85 e9 fc ff ff 03 	movb   $0x3,-0x317(%rbp)
    6943:	66 c7 85 ec fc ff ff 	movw   $0x6636,-0x314(%rbp)
    694a:	36 66 
    694c:	48 8d 05 2d 7d 00 00 	lea    0x7d2d(%rip),%rax        # e680 <g_660+0x20>
    6953:	48 89 85 28 fd ff ff 	mov    %rax,-0x2d8(%rbp)
    695a:	48 8d 85 28 fd ff ff 	lea    -0x2d8(%rbp),%rax
    6961:	48 89 85 60 fe ff ff 	mov    %rax,-0x1a0(%rbp)
    6968:	48 8d 85 28 fd ff ff 	lea    -0x2d8(%rbp),%rax
    696f:	48 89 85 68 fe ff ff 	mov    %rax,-0x198(%rbp)
    6976:	48 8d 85 28 fd ff ff 	lea    -0x2d8(%rbp),%rax
    697d:	48 89 85 70 fe ff ff 	mov    %rax,-0x190(%rbp)
    6984:	48 8d 85 28 fd ff ff 	lea    -0x2d8(%rbp),%rax
    698b:	48 89 85 78 fe ff ff 	mov    %rax,-0x188(%rbp)
    6992:	48 8d 85 28 fd ff ff 	lea    -0x2d8(%rbp),%rax
    6999:	48 89 85 80 fe ff ff 	mov    %rax,-0x180(%rbp)
    69a0:	48 c7 85 88 fe ff ff 	movq   $0x0,-0x178(%rbp)
    69a7:	00 00 00 00 
    69ab:	48 c7 85 90 fe ff ff 	movq   $0x0,-0x170(%rbp)
    69b2:	00 00 00 00 
    69b6:	48 c7 85 98 fe ff ff 	movq   $0x0,-0x168(%rbp)
    69bd:	00 00 00 00 
    69c1:	48 c7 85 a0 fe ff ff 	movq   $0x0,-0x160(%rbp)
    69c8:	00 00 00 00 
    69cc:	48 c7 85 a8 fe ff ff 	movq   $0x0,-0x158(%rbp)
    69d3:	00 00 00 00 
    69d7:	48 8d 85 28 fd ff ff 	lea    -0x2d8(%rbp),%rax
    69de:	48 89 85 b0 fe ff ff 	mov    %rax,-0x150(%rbp)
    69e5:	48 c7 85 b8 fe ff ff 	movq   $0x0,-0x148(%rbp)
    69ec:	00 00 00 00 
    69f0:	48 8d 85 28 fd ff ff 	lea    -0x2d8(%rbp),%rax
    69f7:	48 89 85 c0 fe ff ff 	mov    %rax,-0x140(%rbp)
    69fe:	48 8d 85 28 fd ff ff 	lea    -0x2d8(%rbp),%rax
    6a05:	48 89 85 c8 fe ff ff 	mov    %rax,-0x138(%rbp)
    6a0c:	48 8d 85 28 fd ff ff 	lea    -0x2d8(%rbp),%rax
    6a13:	48 89 85 d0 fe ff ff 	mov    %rax,-0x130(%rbp)
    6a1a:	48 c7 85 d8 fe ff ff 	movq   $0x0,-0x128(%rbp)
    6a21:	00 00 00 00 
    6a25:	48 c7 85 e0 fe ff ff 	movq   $0x0,-0x120(%rbp)
    6a2c:	00 00 00 00 
    6a30:	48 8d 85 28 fd ff ff 	lea    -0x2d8(%rbp),%rax
    6a37:	48 89 85 e8 fe ff ff 	mov    %rax,-0x118(%rbp)
    6a3e:	48 c7 85 f0 fe ff ff 	movq   $0x0,-0x110(%rbp)
    6a45:	00 00 00 00 
    6a49:	48 c7 85 f8 fe ff ff 	movq   $0x0,-0x108(%rbp)
    6a50:	00 00 00 00 
    6a54:	48 8d 85 28 fd ff ff 	lea    -0x2d8(%rbp),%rax
    6a5b:	48 89 85 00 ff ff ff 	mov    %rax,-0x100(%rbp)
    6a62:	48 8d 85 28 fd ff ff 	lea    -0x2d8(%rbp),%rax
    6a69:	48 89 85 08 ff ff ff 	mov    %rax,-0xf8(%rbp)
    6a70:	48 8d 85 28 fd ff ff 	lea    -0x2d8(%rbp),%rax
    6a77:	48 89 85 10 ff ff ff 	mov    %rax,-0xf0(%rbp)
    6a7e:	48 c7 85 18 ff ff ff 	movq   $0x0,-0xe8(%rbp)
    6a85:	00 00 00 00 
    6a89:	48 8d 85 28 fd ff ff 	lea    -0x2d8(%rbp),%rax
    6a90:	48 89 85 20 ff ff ff 	mov    %rax,-0xe0(%rbp)
    6a97:	48 c7 85 28 ff ff ff 	movq   $0x0,-0xd8(%rbp)
    6a9e:	00 00 00 00 
    6aa2:	48 c7 85 30 ff ff ff 	movq   $0x0,-0xd0(%rbp)
    6aa9:	00 00 00 00 
    6aad:	48 c7 85 38 ff ff ff 	movq   $0x0,-0xc8(%rbp)
    6ab4:	00 00 00 00 
    6ab8:	48 c7 85 40 ff ff ff 	movq   $0x0,-0xc0(%rbp)
    6abf:	00 00 00 00 
    6ac3:	48 c7 85 48 ff ff ff 	movq   $0x0,-0xb8(%rbp)
    6aca:	00 00 00 00 
    6ace:	48 8d 85 28 fd ff ff 	lea    -0x2d8(%rbp),%rax
    6ad5:	48 89 85 50 ff ff ff 	mov    %rax,-0xb0(%rbp)
    6adc:	48 8d 85 28 fd ff ff 	lea    -0x2d8(%rbp),%rax
    6ae3:	48 89 85 58 ff ff ff 	mov    %rax,-0xa8(%rbp)
    6aea:	48 8d 85 28 fd ff ff 	lea    -0x2d8(%rbp),%rax
    6af1:	48 89 85 60 ff ff ff 	mov    %rax,-0xa0(%rbp)
    6af8:	48 8d 85 28 fd ff ff 	lea    -0x2d8(%rbp),%rax
    6aff:	48 89 85 68 ff ff ff 	mov    %rax,-0x98(%rbp)
    6b06:	48 8d 85 28 fd ff ff 	lea    -0x2d8(%rbp),%rax
    6b0d:	48 89 85 70 ff ff ff 	mov    %rax,-0x90(%rbp)
    6b14:	48 c7 85 78 ff ff ff 	movq   $0x0,-0x88(%rbp)
    6b1b:	00 00 00 00 
    6b1f:	48 c7 45 80 00 00 00 	movq   $0x0,-0x80(%rbp)
    6b26:	00 
    6b27:	48 c7 45 88 00 00 00 	movq   $0x0,-0x78(%rbp)
    6b2e:	00 
    6b2f:	48 c7 45 90 00 00 00 	movq   $0x0,-0x70(%rbp)
    6b36:	00 
    6b37:	48 c7 45 98 00 00 00 	movq   $0x0,-0x68(%rbp)
    6b3e:	00 
    6b3f:	48 8d 85 28 fd ff ff 	lea    -0x2d8(%rbp),%rax
    6b46:	48 89 45 a0          	mov    %rax,-0x60(%rbp)
    6b4a:	48 c7 45 a8 00 00 00 	movq   $0x0,-0x58(%rbp)
    6b51:	00 
    6b52:	48 8d 85 28 fd ff ff 	lea    -0x2d8(%rbp),%rax
    6b59:	48 89 45 b0          	mov    %rax,-0x50(%rbp)
    6b5d:	48 8d 85 28 fd ff ff 	lea    -0x2d8(%rbp),%rax
    6b64:	48 89 45 b8          	mov    %rax,-0x48(%rbp)
    6b68:	48 8d 85 28 fd ff ff 	lea    -0x2d8(%rbp),%rax
    6b6f:	48 89 45 c0          	mov    %rax,-0x40(%rbp)
    6b73:	48 c7 45 c8 00 00 00 	movq   $0x0,-0x38(%rbp)
    6b7a:	00 
    6b7b:	48 c7 45 d0 00 00 00 	movq   $0x0,-0x30(%rbp)
    6b82:	00 
    6b83:	48 8d 85 28 fd ff ff 	lea    -0x2d8(%rbp),%rax
    6b8a:	48 89 45 d8          	mov    %rax,-0x28(%rbp)
    6b8e:	48 c7 45 e0 00 00 00 	movq   $0x0,-0x20(%rbp)
    6b95:	00 
    6b96:	48 c7 45 e8 00 00 00 	movq   $0x0,-0x18(%rbp)
    6b9d:	00 
    6b9e:	48 8d 05 5b 84 00 00 	lea    0x845b(%rip),%rax        # f000 <g_1086>
    6ba5:	48 89 85 68 fd ff ff 	mov    %rax,-0x298(%rbp)
    6bac:	c7 85 d0 fd ff ff 00 	movl   $0x3e00f700,-0x230(%rbp)
    6bb3:	f7 00 3e 
    6bb6:	c7 85 d4 fd ff ff 00 	movl   $0xffff7600,-0x22c(%rbp)
    6bbd:	76 ff ff 
    6bc0:	c7 85 d8 fd ff ff 09 	movl   $0x3ef70909,-0x228(%rbp)
    6bc7:	09 f7 3e 
    6bca:	c7 85 dc fd ff ff 3e 	movl   $0xf7003e,-0x224(%rbp)
    6bd1:	00 f7 00 
    6bd4:	c7 85 e0 fd ff ff 09 	movl   $0xf7ff7609,-0x220(%rbp)
    6bdb:	76 ff f7 
    6bde:	c7 85 e4 fd ff ff 00 	movl   $0x767600,-0x21c(%rbp)
    6be5:	76 76 00 
    6be8:	c7 85 e8 fd ff ff 76 	movl   $0x3e090076,-0x218(%rbp)
    6bef:	00 09 3e 
    6bf2:	c7 85 ec fd ff ff 76 	movl   $0xff760976,-0x214(%rbp)
    6bf9:	09 76 ff 
    6bfc:	c7 85 f0 fd ff ff 00 	movl   $0xffff3e00,-0x210(%rbp)
    6c03:	3e ff ff 
    6c06:	c7 85 f4 fd ff ff 09 	movl   $0x3ef70909,-0x20c(%rbp)
    6c0d:	09 f7 3e 
    6c10:	c7 85 f8 fd ff ff 3e 	movl   $0xf7003e,-0x208(%rbp)
    6c17:	00 f7 00 
    6c1a:	c7 85 fc fd ff ff 09 	movl   $0xf7ff7609,-0x204(%rbp)
    6c21:	76 ff f7 
    6c24:	c7 85 00 fe ff ff 00 	movl   $0x767600,-0x200(%rbp)
    6c2b:	76 76 00 
    6c2e:	c7 85 04 fe ff ff 76 	movl   $0x3e090076,-0x1fc(%rbp)
    6c35:	00 09 3e 
    6c38:	c7 85 08 fe ff ff 76 	movl   $0xff760976,-0x1f8(%rbp)
    6c3f:	09 76 ff 
    6c42:	c7 85 0c fe ff ff 00 	movl   $0xffff3e00,-0x1f4(%rbp)
    6c49:	3e ff ff 
    6c4c:	c7 85 10 fe ff ff 09 	movl   $0x3ef70909,-0x1f0(%rbp)
    6c53:	09 f7 3e 
    6c56:	c7 85 14 fe ff ff 3e 	movl   $0xf7003e,-0x1ec(%rbp)
    6c5d:	00 f7 00 
    6c60:	c7 85 18 fe ff ff 09 	movl   $0xf7ff7609,-0x1e8(%rbp)
    6c67:	76 ff f7 
    6c6a:	c7 85 1c fe ff ff 00 	movl   $0x767600,-0x1e4(%rbp)
    6c71:	76 76 00 
    6c74:	c7 85 20 fe ff ff 76 	movl   $0x3e090076,-0x1e0(%rbp)
    6c7b:	00 09 3e 
    6c7e:	c7 85 24 fe ff ff 76 	movl   $0xff760976,-0x1dc(%rbp)
    6c85:	09 76 ff 
    6c88:	c7 85 28 fe ff ff 00 	movl   $0xffff3e00,-0x1d8(%rbp)
    6c8f:	3e ff ff 
    6c92:	c7 85 2c fe ff ff 09 	movl   $0x3ef70909,-0x1d4(%rbp)
    6c99:	09 f7 3e 
    6c9c:	c7 85 30 fe ff ff 3e 	movl   $0xf7003e,-0x1d0(%rbp)
    6ca3:	00 f7 00 
    6ca6:	c7 85 34 fe ff ff 09 	movl   $0xf7ff7609,-0x1cc(%rbp)
    6cad:	76 ff f7 
    6cb0:	c7 85 38 fe ff ff 00 	movl   $0x767600,-0x1c8(%rbp)
    6cb7:	76 76 00 
    6cba:	c7 85 3c fe ff ff 76 	movl   $0x3e090076,-0x1c4(%rbp)
    6cc1:	00 09 3e 
    6cc4:	c7 85 40 fe ff ff 76 	movl   $0xff760976,-0x1c0(%rbp)
    6ccb:	09 76 ff 
    6cce:	c7 85 44 fe ff ff 00 	movl   $0xffff3e00,-0x1bc(%rbp)
    6cd5:	3e ff ff 
    6cd8:	c7 85 48 fe ff ff 09 	movl   $0x3ef70909,-0x1b8(%rbp)
    6cdf:	09 f7 3e 
    6ce2:	c7 85 4c fe ff ff 3e 	movl   $0xf7003e,-0x1b4(%rbp)
    6ce9:	00 f7 00 
    6cec:	c7 85 50 fe ff ff 09 	movl   $0xf7ff7609,-0x1b0(%rbp)
    6cf3:	76 ff f7 
    6cf6:	c7 85 54 fe ff ff 00 	movl   $0x767600,-0x1ac(%rbp)
    6cfd:	76 76 00 
    6d00:	c7 85 58 fe ff ff 76 	movl   $0x3e090076,-0x1a8(%rbp)
    6d07:	00 09 3e 
    6d0a:	66 c7 85 ee fc ff ff 	movw   $0x1,-0x312(%rbp)
    6d11:	01 00 
    6d13:	66 c7 85 f0 fc ff ff 	movw   $0x3732,-0x310(%rbp)
    6d1a:	32 37 
    6d1c:	c7 85 08 fd ff ff 3a 	movl   $0x24776d3a,-0x2f8(%rbp)
    6d23:	6d 77 24 
    6d26:	c7 85 0c fd ff ff 07 	movl   $0x7,-0x2f4(%rbp)
    6d2d:	00 00 00 
    6d30:	66 c7 85 f2 fc ff ff 	movw   $0x3,-0x30e(%rbp)
    6d37:	03 00 
    6d39:	c7 85 f4 fc ff ff 00 	movl   $0x0,-0x30c(%rbp)
    6d40:	00 00 00 
    6d43:	eb 49                	jmp    6d8e <func_14+0x558>
    6d45:	c7 85 f8 fc ff ff 00 	movl   $0x0,-0x308(%rbp)
    6d4c:	00 00 00 
    6d4f:	eb 2d                	jmp    6d7e <func_14+0x548>
    6d51:	8b 85 f8 fc ff ff    	mov    -0x308(%rbp),%eax
    6d57:	48 98                	cltq   
    6d59:	8b 95 f4 fc ff ff    	mov    -0x30c(%rbp),%edx
    6d5f:	48 63 d2             	movslq %edx,%rdx
    6d62:	48 01 d2             	add    %rdx,%rdx
    6d65:	48 01 c2             	add    %rax,%rdx
    6d68:	48 8d 85 18 fd ff ff 	lea    -0x2e8(%rbp),%rax
    6d6f:	48 89 84 d5 80 fd ff 	mov    %rax,-0x280(%rbp,%rdx,8)
    6d76:	ff 
    6d77:	83 85 f8 fc ff ff 01 	addl   $0x1,-0x308(%rbp)
    6d7e:	83 bd f8 fc ff ff 01 	cmpl   $0x1,-0x308(%rbp)
    6d85:	7e ca                	jle    6d51 <func_14+0x51b>
    6d87:	83 85 f4 fc ff ff 01 	addl   $0x1,-0x30c(%rbp)
    6d8e:	83 bd f4 fc ff ff 01 	cmpl   $0x1,-0x30c(%rbp)
    6d95:	7e ae                	jle    6d45 <func_14+0x50f>
    6d97:	c7 85 f4 fc ff ff 00 	movl   $0x0,-0x30c(%rbp)
    6d9e:	00 00 00 
    6da1:	eb 1a                	jmp    6dbd <func_14+0x587>
    6da3:	8b 85 f4 fc ff ff    	mov    -0x30c(%rbp),%eax
    6da9:	48 98                	cltq   
    6dab:	c7 84 85 a0 fd ff ff 	movl   $0x2,-0x260(%rbp,%rax,4)
    6db2:	02 00 00 00 
    6db6:	83 85 f4 fc ff ff 01 	addl   $0x1,-0x30c(%rbp)
    6dbd:	83 bd f4 fc ff ff 08 	cmpl   $0x8,-0x30c(%rbp)
    6dc4:	7e dd                	jle    6da3 <func_14+0x56d>
    6dc6:	48 8b 05 83 77 00 00 	mov    0x7783(%rip),%rax        # e550 <g_204>
    6dcd:	0f b6 00             	movzbl (%rax),%eax
    6dd0:	48 8b 4d f8          	mov    -0x8(%rbp),%rcx
    6dd4:	64 48 33 0c 25 28 00 	xor    %fs:0x28,%rcx
    6ddb:	00 00 
    6ddd:	74 05                	je     6de4 <func_14+0x5ae>
    6ddf:	e8 8c c2 ff ff       	callq  3070 <__stack_chk_fail@plt>
    6de4:	c9                   	leaveq 
    6de5:	c3                   	retq   

0000000000006de6 <func_17>:
    6de6:	f3 0f 1e fa          	endbr64 
    6dea:	55                   	push   %rbp
    6deb:	48 89 e5             	mov    %rsp,%rbp
    6dee:	48 81 ec b0 00 00 00 	sub    $0xb0,%rsp
    6df5:	48 89 bd 58 ff ff ff 	mov    %rdi,-0xa8(%rbp)
    6dfc:	64 48 8b 04 25 28 00 	mov    %fs:0x28,%rax
    6e03:	00 00 
    6e05:	48 89 45 f8          	mov    %rax,-0x8(%rbp)
    6e09:	31 c0                	xor    %eax,%eax
    6e0b:	48 c7 85 70 ff ff ff 	movq   $0x0,-0x90(%rbp)
    6e12:	00 00 00 00 
    6e16:	48 c7 85 78 ff ff ff 	movq   $0x0,-0x88(%rbp)
    6e1d:	00 00 00 00 
    6e21:	48 8d 05 08 72 00 00 	lea    0x7208(%rip),%rax        # e030 <g_23>
    6e28:	48 89 45 80          	mov    %rax,-0x80(%rbp)
    6e2c:	48 8d 05 fd 71 00 00 	lea    0x71fd(%rip),%rax        # e030 <g_23>
    6e33:	48 89 45 88          	mov    %rax,-0x78(%rbp)
    6e37:	48 8d 05 f2 71 00 00 	lea    0x71f2(%rip),%rax        # e030 <g_23>
    6e3e:	48 89 45 90          	mov    %rax,-0x70(%rbp)
    6e42:	48 8d 05 e7 71 00 00 	lea    0x71e7(%rip),%rax        # e030 <g_23>
    6e49:	48 89 45 98          	mov    %rax,-0x68(%rbp)
    6e4d:	48 8d 05 dc 71 00 00 	lea    0x71dc(%rip),%rax        # e030 <g_23>
    6e54:	48 89 45 a0          	mov    %rax,-0x60(%rbp)
    6e58:	48 b8 3d 06 73 99 3e 	movabs $0xa4b15d3e9973063d,%rax
    6e5f:	5d b1 a4 
    6e62:	48 89 45 b0          	mov    %rax,-0x50(%rbp)
    6e66:	48 c7 45 b8 ff ff ff 	movq   $0xffffffffffffffff,-0x48(%rbp)
    6e6d:	ff 
    6e6e:	48 c7 45 c0 ff ff ff 	movq   $0xffffffffffffffff,-0x40(%rbp)
    6e75:	ff 
    6e76:	48 89 45 c8          	mov    %rax,-0x38(%rbp)
    6e7a:	48 c7 45 d0 ff ff ff 	movq   $0xffffffffffffffff,-0x30(%rbp)
    6e81:	ff 
    6e82:	48 c7 45 d8 ff ff ff 	movq   $0xffffffffffffffff,-0x28(%rbp)
    6e89:	ff 
    6e8a:	48 89 45 e0          	mov    %rax,-0x20(%rbp)
    6e8e:	48 c7 45 e8 ff ff ff 	movq   $0xffffffffffffffff,-0x18(%rbp)
    6e95:	ff 
    6e96:	48 c7 45 f0 ff ff ff 	movq   $0xffffffffffffffff,-0x10(%rbp)
    6e9d:	ff 
    6e9e:	c7 85 6c ff ff ff 00 	movl   $0x0,-0x94(%rbp)
    6ea5:	00 00 00 
    6ea8:	eb 1b                	jmp    6ec5 <func_17+0xdf>
    6eaa:	8b 85 6c ff ff ff    	mov    -0x94(%rbp),%eax
    6eb0:	48 98                	cltq   
    6eb2:	48 8d 15 77 71 00 00 	lea    0x7177(%rip),%rdx        # e030 <g_23>
    6eb9:	48 89 54 c5 a8       	mov    %rdx,-0x58(%rbp,%rax,8)
    6ebe:	83 85 6c ff ff ff 01 	addl   $0x1,-0x94(%rbp)
    6ec5:	83 bd 6c ff ff ff 00 	cmpl   $0x0,-0x94(%rbp)
    6ecc:	7e dc                	jle    6eaa <func_17+0xc4>
    6ece:	48 8b 45 e0          	mov    -0x20(%rbp),%rax
    6ed2:	48 83 e8 01          	sub    $0x1,%rax
    6ed6:	48 89 45 e0          	mov    %rax,-0x20(%rbp)
    6eda:	48 8b 45 90          	mov    -0x70(%rbp),%rax
    6ede:	8b 00                	mov    (%rax),%eax
    6ee0:	48 8b 4d f8          	mov    -0x8(%rbp),%rcx
    6ee4:	64 48 33 0c 25 28 00 	xor    %fs:0x28,%rcx
    6eeb:	00 00 
    6eed:	74 05                	je     6ef4 <func_17+0x10e>
    6eef:	e8 7c c1 ff ff       	callq  3070 <__stack_chk_fail@plt>
    6ef4:	c9                   	leaveq 
    6ef5:	c3                   	retq   

0000000000006ef6 <func_34>:
    6ef6:	f3 0f 1e fa          	endbr64 
    6efa:	55                   	push   %rbp
    6efb:	48 89 e5             	mov    %rsp,%rbp
    6efe:	48 83 ec 70          	sub    $0x70,%rsp
    6f02:	48 89 7d a8          	mov    %rdi,-0x58(%rbp)
    6f06:	89 75 a4             	mov    %esi,-0x5c(%rbp)
    6f09:	48 89 55 98          	mov    %rdx,-0x68(%rbp)
    6f0d:	89 c8                	mov    %ecx,%eax
    6f0f:	4c 89 45 90          	mov    %r8,-0x70(%rbp)
    6f13:	88 45 a0             	mov    %al,-0x60(%rbp)
    6f16:	64 48 8b 04 25 28 00 	mov    %fs:0x28,%rax
    6f1d:	00 00 
    6f1f:	48 89 45 f8          	mov    %rax,-0x8(%rbp)
    6f23:	31 c0                	xor    %eax,%eax
    6f25:	c7 45 bc 00 00 00 00 	movl   $0x0,-0x44(%rbp)
    6f2c:	eb 15                	jmp    6f43 <func_34+0x4d>
    6f2e:	8b 45 bc             	mov    -0x44(%rbp),%eax
    6f31:	48 98                	cltq   
    6f33:	48 8d 15 fa 70 00 00 	lea    0x70fa(%rip),%rdx        # e034 <g_121>
    6f3a:	48 89 54 c5 c0       	mov    %rdx,-0x40(%rbp,%rax,8)
    6f3f:	83 45 bc 01          	addl   $0x1,-0x44(%rbp)
    6f43:	83 7d bc 05          	cmpl   $0x5,-0x44(%rbp)
    6f47:	7e e5                	jle    6f2e <func_34+0x38>
    6f49:	48 8b 45 e8          	mov    -0x18(%rbp),%rax
    6f4d:	48 89 05 94 80 00 00 	mov    %rax,0x8094(%rip)        # efe8 <g_710>
    6f54:	48 8b 05 6d 77 00 00 	mov    0x776d(%rip),%rax        # e6c8 <g_711>
    6f5b:	48 8b 15 86 80 00 00 	mov    0x8086(%rip),%rdx        # efe8 <g_710>
    6f62:	48 89 10             	mov    %rdx,(%rax)
    6f65:	48 8b 05 3c 77 00 00 	mov    0x773c(%rip),%rax        # e6a8 <g_669>
    6f6c:	48 8b 00             	mov    (%rax),%rax
    6f6f:	48 8b 4d f8          	mov    -0x8(%rbp),%rcx
    6f73:	64 48 33 0c 25 28 00 	xor    %fs:0x28,%rcx
    6f7a:	00 00 
    6f7c:	74 05                	je     6f83 <func_34+0x8d>
    6f7e:	e8 ed c0 ff ff       	callq  3070 <__stack_chk_fail@plt>
    6f83:	c9                   	leaveq 
    6f84:	c3                   	retq   

0000000000006f85 <func_43>:
    6f85:	f3 0f 1e fa          	endbr64 
    6f89:	55                   	push   %rbp
    6f8a:	48 89 e5             	mov    %rsp,%rbp
    6f8d:	48 81 ec 50 08 00 00 	sub    $0x850,%rsp
    6f94:	48 89 bd c8 f7 ff ff 	mov    %rdi,-0x838(%rbp)
    6f9b:	48 89 b5 c0 f7 ff ff 	mov    %rsi,-0x840(%rbp)
    6fa2:	48 89 95 b8 f7 ff ff 	mov    %rdx,-0x848(%rbp)
    6fa9:	89 8d b4 f7 ff ff    	mov    %ecx,-0x84c(%rbp)
    6faf:	64 48 8b 04 25 28 00 	mov    %fs:0x28,%rax
    6fb6:	00 00 
    6fb8:	48 89 45 f8          	mov    %rax,-0x8(%rbp)
    6fbc:	31 c0                	xor    %eax,%eax
    6fbe:	48 c7 85 50 f8 ff ff 	movq   $0x8,-0x7b0(%rbp)
    6fc5:	08 00 00 00 
    6fc9:	c7 85 f0 f7 ff ff 06 	movl   $0x6,-0x810(%rbp)
    6fd0:	00 00 00 
    6fd3:	48 8d 85 50 f8 ff ff 	lea    -0x7b0(%rbp),%rax
    6fda:	48 89 85 f0 f9 ff ff 	mov    %rax,-0x610(%rbp)
    6fe1:	48 8d 85 50 f8 ff ff 	lea    -0x7b0(%rbp),%rax
    6fe8:	48 89 85 f8 f9 ff ff 	mov    %rax,-0x608(%rbp)
    6fef:	48 8d 85 50 f8 ff ff 	lea    -0x7b0(%rbp),%rax
    6ff6:	48 89 85 00 fa ff ff 	mov    %rax,-0x600(%rbp)
    6ffd:	48 8d 85 50 f8 ff ff 	lea    -0x7b0(%rbp),%rax
    7004:	48 89 85 08 fa ff ff 	mov    %rax,-0x5f8(%rbp)
    700b:	48 8d 85 50 f8 ff ff 	lea    -0x7b0(%rbp),%rax
    7012:	48 89 85 10 fa ff ff 	mov    %rax,-0x5f0(%rbp)
    7019:	48 8d 85 50 f8 ff ff 	lea    -0x7b0(%rbp),%rax
    7020:	48 89 85 18 fa ff ff 	mov    %rax,-0x5e8(%rbp)
    7027:	48 8d 85 50 f8 ff ff 	lea    -0x7b0(%rbp),%rax
    702e:	48 89 85 20 fa ff ff 	mov    %rax,-0x5e0(%rbp)
    7035:	48 8d 85 50 f8 ff ff 	lea    -0x7b0(%rbp),%rax
    703c:	48 89 85 28 fa ff ff 	mov    %rax,-0x5d8(%rbp)
    7043:	48 8d 85 50 f8 ff ff 	lea    -0x7b0(%rbp),%rax
    704a:	48 89 85 30 fa ff ff 	mov    %rax,-0x5d0(%rbp)
    7051:	48 8d 85 50 f8 ff ff 	lea    -0x7b0(%rbp),%rax
    7058:	48 89 85 38 fa ff ff 	mov    %rax,-0x5c8(%rbp)
    705f:	48 8d 85 50 f8 ff ff 	lea    -0x7b0(%rbp),%rax
    7066:	48 89 85 40 fa ff ff 	mov    %rax,-0x5c0(%rbp)
    706d:	48 8d 85 50 f8 ff ff 	lea    -0x7b0(%rbp),%rax
    7074:	48 89 85 48 fa ff ff 	mov    %rax,-0x5b8(%rbp)
    707b:	48 8d 85 50 f8 ff ff 	lea    -0x7b0(%rbp),%rax
    7082:	48 89 85 50 fa ff ff 	mov    %rax,-0x5b0(%rbp)
    7089:	48 8d 85 50 f8 ff ff 	lea    -0x7b0(%rbp),%rax
    7090:	48 89 85 58 fa ff ff 	mov    %rax,-0x5a8(%rbp)
    7097:	48 8d 85 50 f8 ff ff 	lea    -0x7b0(%rbp),%rax
    709e:	48 89 85 60 fa ff ff 	mov    %rax,-0x5a0(%rbp)
    70a5:	48 8d 85 50 f8 ff ff 	lea    -0x7b0(%rbp),%rax
    70ac:	48 89 85 68 fa ff ff 	mov    %rax,-0x598(%rbp)
    70b3:	48 8d 85 50 f8 ff ff 	lea    -0x7b0(%rbp),%rax
    70ba:	48 89 85 70 fa ff ff 	mov    %rax,-0x590(%rbp)
    70c1:	48 8d 85 50 f8 ff ff 	lea    -0x7b0(%rbp),%rax
    70c8:	48 89 85 78 fa ff ff 	mov    %rax,-0x588(%rbp)
    70cf:	48 8d 85 50 f8 ff ff 	lea    -0x7b0(%rbp),%rax
    70d6:	48 89 85 80 fa ff ff 	mov    %rax,-0x580(%rbp)
    70dd:	48 8d 85 50 f8 ff ff 	lea    -0x7b0(%rbp),%rax
    70e4:	48 89 85 88 fa ff ff 	mov    %rax,-0x578(%rbp)
    70eb:	48 8d 85 50 f8 ff ff 	lea    -0x7b0(%rbp),%rax
    70f2:	48 89 85 90 fa ff ff 	mov    %rax,-0x570(%rbp)
    70f9:	48 8d 85 50 f8 ff ff 	lea    -0x7b0(%rbp),%rax
    7100:	48 89 85 98 fa ff ff 	mov    %rax,-0x568(%rbp)
    7107:	48 8d 85 50 f8 ff ff 	lea    -0x7b0(%rbp),%rax
    710e:	48 89 85 a0 fa ff ff 	mov    %rax,-0x560(%rbp)
    7115:	48 8d 85 50 f8 ff ff 	lea    -0x7b0(%rbp),%rax
    711c:	48 89 85 a8 fa ff ff 	mov    %rax,-0x558(%rbp)
    7123:	48 8d 85 50 f8 ff ff 	lea    -0x7b0(%rbp),%rax
    712a:	48 89 85 b0 fa ff ff 	mov    %rax,-0x550(%rbp)
    7131:	48 8d 85 50 f8 ff ff 	lea    -0x7b0(%rbp),%rax
    7138:	48 89 85 b8 fa ff ff 	mov    %rax,-0x548(%rbp)
    713f:	48 8d 85 50 f8 ff ff 	lea    -0x7b0(%rbp),%rax
    7146:	48 89 85 c0 fa ff ff 	mov    %rax,-0x540(%rbp)
    714d:	48 8d 85 50 f8 ff ff 	lea    -0x7b0(%rbp),%rax
    7154:	48 89 85 c8 fa ff ff 	mov    %rax,-0x538(%rbp)
    715b:	48 8d 85 50 f8 ff ff 	lea    -0x7b0(%rbp),%rax
    7162:	48 89 85 d0 fa ff ff 	mov    %rax,-0x530(%rbp)
    7169:	48 8d 85 50 f8 ff ff 	lea    -0x7b0(%rbp),%rax
    7170:	48 89 85 d8 fa ff ff 	mov    %rax,-0x528(%rbp)
    7177:	48 8d 85 50 f8 ff ff 	lea    -0x7b0(%rbp),%rax
    717e:	48 89 85 e0 fa ff ff 	mov    %rax,-0x520(%rbp)
    7185:	48 8d 85 50 f8 ff ff 	lea    -0x7b0(%rbp),%rax
    718c:	48 89 85 e8 fa ff ff 	mov    %rax,-0x518(%rbp)
    7193:	48 8d 85 50 f8 ff ff 	lea    -0x7b0(%rbp),%rax
    719a:	48 89 85 f0 fa ff ff 	mov    %rax,-0x510(%rbp)
    71a1:	48 8d 85 50 f8 ff ff 	lea    -0x7b0(%rbp),%rax
    71a8:	48 89 85 f8 fa ff ff 	mov    %rax,-0x508(%rbp)
    71af:	48 8d 85 50 f8 ff ff 	lea    -0x7b0(%rbp),%rax
    71b6:	48 89 85 00 fb ff ff 	mov    %rax,-0x500(%rbp)
    71bd:	48 8d 85 50 f8 ff ff 	lea    -0x7b0(%rbp),%rax
    71c4:	48 89 85 08 fb ff ff 	mov    %rax,-0x4f8(%rbp)
    71cb:	48 8d 85 50 f8 ff ff 	lea    -0x7b0(%rbp),%rax
    71d2:	48 89 85 10 fb ff ff 	mov    %rax,-0x4f0(%rbp)
    71d9:	48 8d 85 50 f8 ff ff 	lea    -0x7b0(%rbp),%rax
    71e0:	48 89 85 18 fb ff ff 	mov    %rax,-0x4e8(%rbp)
    71e7:	48 8d 85 50 f8 ff ff 	lea    -0x7b0(%rbp),%rax
    71ee:	48 89 85 20 fb ff ff 	mov    %rax,-0x4e0(%rbp)
    71f5:	48 8d 85 50 f8 ff ff 	lea    -0x7b0(%rbp),%rax
    71fc:	48 89 85 28 fb ff ff 	mov    %rax,-0x4d8(%rbp)
    7203:	48 8d 85 50 f8 ff ff 	lea    -0x7b0(%rbp),%rax
    720a:	48 89 85 30 fb ff ff 	mov    %rax,-0x4d0(%rbp)
    7211:	48 8d 85 50 f8 ff ff 	lea    -0x7b0(%rbp),%rax
    7218:	48 89 85 38 fb ff ff 	mov    %rax,-0x4c8(%rbp)
    721f:	48 8d 85 50 f8 ff ff 	lea    -0x7b0(%rbp),%rax
    7226:	48 89 85 40 fb ff ff 	mov    %rax,-0x4c0(%rbp)
    722d:	48 8d 85 50 f8 ff ff 	lea    -0x7b0(%rbp),%rax
    7234:	48 89 85 48 fb ff ff 	mov    %rax,-0x4b8(%rbp)
    723b:	48 8d 85 50 f8 ff ff 	lea    -0x7b0(%rbp),%rax
    7242:	48 89 85 50 fb ff ff 	mov    %rax,-0x4b0(%rbp)
    7249:	48 8d 85 50 f8 ff ff 	lea    -0x7b0(%rbp),%rax
    7250:	48 89 85 58 fb ff ff 	mov    %rax,-0x4a8(%rbp)
    7257:	48 8d 85 50 f8 ff ff 	lea    -0x7b0(%rbp),%rax
    725e:	48 89 85 60 fb ff ff 	mov    %rax,-0x4a0(%rbp)
    7265:	48 8d 85 50 f8 ff ff 	lea    -0x7b0(%rbp),%rax
    726c:	48 89 85 68 fb ff ff 	mov    %rax,-0x498(%rbp)
    7273:	48 8d 85 f0 f9 ff ff 	lea    -0x610(%rbp),%rax
    727a:	48 83 c0 78          	add    $0x78,%rax
    727e:	48 89 85 80 f8 ff ff 	mov    %rax,-0x780(%rbp)
    7285:	c7 85 f4 f7 ff ff 08 	movl   $0x8,-0x80c(%rbp)
    728c:	00 00 00 
    728f:	48 c7 85 58 f8 ff ff 	movq   $0x0,-0x7a8(%rbp)
    7296:	00 00 00 00 
    729a:	48 c7 85 60 f8 ff ff 	movq   $0x0,-0x7a0(%rbp)
    72a1:	00 00 00 00 
    72a5:	c7 85 f8 f7 ff ff 05 	movl   $0x5,-0x808(%rbp)
    72ac:	00 00 00 
    72af:	c7 85 60 f9 ff ff 00 	movl   $0x0,-0x6a0(%rbp)
    72b6:	00 00 00 
    72b9:	c7 85 64 f9 ff ff 7f 	movl   $0xf10777f,-0x69c(%rbp)
    72c0:	77 10 0f 
    72c3:	c7 85 68 f9 ff ff 00 	movl   $0x0,-0x698(%rbp)
    72ca:	00 00 00 
    72cd:	c7 85 6c f9 ff ff 00 	movl   $0x0,-0x694(%rbp)
    72d4:	00 00 00 
    72d7:	c7 85 70 f9 ff ff 00 	movl   $0x0,-0x690(%rbp)
    72de:	00 00 00 
    72e1:	c7 85 74 f9 ff ff 7f 	movl   $0xf10777f,-0x68c(%rbp)
    72e8:	77 10 0f 
    72eb:	c7 85 78 f9 ff ff 00 	movl   $0x0,-0x688(%rbp)
    72f2:	00 00 00 
    72f5:	c7 85 7c f9 ff ff 00 	movl   $0x0,-0x684(%rbp)
    72fc:	00 00 00 
    72ff:	c7 85 80 f9 ff ff 00 	movl   $0x0,-0x680(%rbp)
    7306:	00 00 00 
    7309:	c7 85 84 f9 ff ff 7f 	movl   $0xf10777f,-0x67c(%rbp)
    7310:	77 10 0f 
    7313:	c7 85 88 f9 ff ff 00 	movl   $0x0,-0x678(%rbp)
    731a:	00 00 00 
    731d:	c7 85 8c f9 ff ff 00 	movl   $0x0,-0x674(%rbp)
    7324:	00 00 00 
    7327:	c7 85 90 f9 ff ff 00 	movl   $0x0,-0x670(%rbp)
    732e:	00 00 00 
    7331:	c7 85 94 f9 ff ff 7f 	movl   $0xf10777f,-0x66c(%rbp)
    7338:	77 10 0f 
    733b:	c7 85 98 f9 ff ff 00 	movl   $0x0,-0x668(%rbp)
    7342:	00 00 00 
    7345:	c7 85 9c f9 ff ff 00 	movl   $0x0,-0x664(%rbp)
    734c:	00 00 00 
    734f:	48 8d 85 58 f8 ff ff 	lea    -0x7a8(%rbp),%rax
    7356:	48 89 85 88 f8 ff ff 	mov    %rax,-0x778(%rbp)
    735d:	c6 85 d9 f7 ff ff fc 	movb   $0xfc,-0x827(%rbp)
    7364:	48 8d 85 60 f9 ff ff 	lea    -0x6a0(%rbp),%rax
    736b:	48 83 c0 18          	add    $0x18,%rax
    736f:	48 89 85 90 f8 ff ff 	mov    %rax,-0x770(%rbp)
    7376:	48 c7 85 98 f8 ff ff 	movq   $0x0,-0x768(%rbp)
    737d:	00 00 00 00 
    7381:	c7 85 fc f7 ff ff 8f 	movl   $0xd643438f,-0x804(%rbp)
    7388:	43 43 d6 
    738b:	c7 85 00 f8 ff ff ff 	movl   $0xffffffff,-0x800(%rbp)
    7392:	ff ff ff 
    7395:	c7 85 04 f8 ff ff 24 	movl   $0x3bb4b24,-0x7fc(%rbp)
    739c:	4b bb 03 
    739f:	48 c7 85 a0 f8 ff ff 	movq   $0x0,-0x760(%rbp)
    73a6:	00 00 00 00 
    73aa:	c7 85 08 f8 ff ff 04 	movl   $0x4,-0x7f8(%rbp)
    73b1:	00 00 00 
    73b4:	c7 85 0c f8 ff ff ac 	movl   $0x62e39dac,-0x7f4(%rbp)
    73bb:	9d e3 62 
    73be:	66 c7 85 dc f7 ff ff 	movw   $0xfe62,-0x824(%rbp)
    73c5:	62 fe 
    73c7:	c7 85 10 f8 ff ff bd 	movl   $0xaab8ffbd,-0x7f0(%rbp)
    73ce:	ff b8 aa 
    73d1:	48 c7 85 a8 f8 ff ff 	movq   $0x2,-0x758(%rbp)
    73d8:	02 00 00 00 
    73dc:	66 c7 85 00 f9 ff ff 	movw   $0x880d,-0x700(%rbp)
    73e3:	0d 88 
    73e5:	66 c7 85 02 f9 ff ff 	movw   $0xffff,-0x6fe(%rbp)
    73ec:	ff ff 
    73ee:	66 c7 85 04 f9 ff ff 	movw   $0x880d,-0x6fc(%rbp)
    73f5:	0d 88 
    73f7:	66 c7 85 06 f9 ff ff 	movw   $0x880d,-0x6fa(%rbp)
    73fe:	0d 88 
    7400:	66 c7 85 08 f9 ff ff 	movw   $0xffff,-0x6f8(%rbp)
    7407:	ff ff 
    7409:	66 c7 85 0a f9 ff ff 	movw   $0x880d,-0x6f6(%rbp)
    7410:	0d 88 
    7412:	66 c7 85 0c f9 ff ff 	movw   $0x880d,-0x6f4(%rbp)
    7419:	0d 88 
    741b:	66 c7 85 0e f9 ff ff 	movw   $0xffff,-0x6f2(%rbp)
    7422:	ff ff 
    7424:	66 c7 85 10 f9 ff ff 	movw   $0x880d,-0x6f0(%rbp)
    742b:	0d 88 
    742d:	c6 85 da f7 ff ff fd 	movb   $0xfd,-0x826(%rbp)
    7434:	c7 85 e4 f7 ff ff 00 	movl   $0x0,-0x81c(%rbp)
    743b:	00 00 00 
    743e:	eb 1b                	jmp    745b <func_43+0x4d6>
    7440:	8b 85 e4 f7 ff ff    	mov    -0x81c(%rbp),%eax
    7446:	48 98                	cltq   
    7448:	48 c7 84 c5 20 f9 ff 	movq   $0x0,-0x6e0(%rbp,%rax,8)
    744f:	ff 00 00 00 00 
    7454:	83 85 e4 f7 ff ff 01 	addl   $0x1,-0x81c(%rbp)
    745b:	83 bd e4 f7 ff ff 07 	cmpl   $0x7,-0x81c(%rbp)
    7462:	7e dc                	jle    7440 <func_43+0x4bb>
    7464:	c7 85 e4 f7 ff ff 00 	movl   $0x0,-0x81c(%rbp)
    746b:	00 00 00 
    746e:	eb 22                	jmp    7492 <func_43+0x50d>
    7470:	8b 85 e4 f7 ff ff    	mov    -0x81c(%rbp),%eax
    7476:	48 98                	cltq   
    7478:	48 8d 95 20 f9 ff ff 	lea    -0x6e0(%rbp),%rdx
    747f:	48 83 c2 10          	add    $0x10,%rdx
    7483:	48 89 94 c5 d0 f8 ff 	mov    %rdx,-0x730(%rbp,%rax,8)
    748a:	ff 
    748b:	83 85 e4 f7 ff ff 01 	addl   $0x1,-0x81c(%rbp)
    7492:	83 bd e4 f7 ff ff 01 	cmpl   $0x1,-0x81c(%rbp)
    7499:	7e d5                	jle    7470 <func_43+0x4eb>
    749b:	c7 85 e4 f7 ff ff 00 	movl   $0x0,-0x81c(%rbp)
    74a2:	00 00 00 
    74a5:	eb 49                	jmp    74f0 <func_43+0x56b>
    74a7:	c7 85 e8 f7 ff ff 00 	movl   $0x0,-0x818(%rbp)
    74ae:	00 00 00 
    74b1:	eb 2d                	jmp    74e0 <func_43+0x55b>
    74b3:	8b 85 e8 f7 ff ff    	mov    -0x818(%rbp),%eax
    74b9:	48 98                	cltq   
    74bb:	8b 95 e4 f7 ff ff    	mov    -0x81c(%rbp),%edx
    74c1:	48 63 d2             	movslq %edx,%rdx
    74c4:	48 01 d2             	add    %rdx,%rdx
    74c7:	48 01 d0             	add    %rdx,%rax
    74ca:	48 8d 15 2f 70 00 00 	lea    0x702f(%rip),%rdx        # e500 <g_67+0x40>
    74d1:	48 89 94 c5 e0 f8 ff 	mov    %rdx,-0x720(%rbp,%rax,8)
    74d8:	ff 
    74d9:	83 85 e8 f7 ff ff 01 	addl   $0x1,-0x818(%rbp)
    74e0:	83 bd e8 f7 ff ff 01 	cmpl   $0x1,-0x818(%rbp)
    74e7:	7e ca                	jle    74b3 <func_43+0x52e>
    74e9:	83 85 e4 f7 ff ff 01 	addl   $0x1,-0x81c(%rbp)
    74f0:	83 bd e4 f7 ff ff 00 	cmpl   $0x0,-0x81c(%rbp)
    74f7:	7e ae                	jle    74a7 <func_43+0x522>
    74f9:	c7 85 e4 f7 ff ff 00 	movl   $0x0,-0x81c(%rbp)
    7500:	00 00 00 
    7503:	eb 14                	jmp    7519 <func_43+0x594>
    7505:	8b 85 e4 f7 ff ff    	mov    -0x81c(%rbp),%eax
    750b:	48 98                	cltq   
    750d:	c6 44 05 f3 ff       	movb   $0xff,-0xd(%rbp,%rax,1)
    7512:	83 85 e4 f7 ff ff 01 	addl   $0x1,-0x81c(%rbp)
    7519:	83 bd e4 f7 ff ff 04 	cmpl   $0x4,-0x81c(%rbp)
    7520:	7e e3                	jle    7505 <func_43+0x580>
    7522:	c7 05 04 6b 00 00 00 	movl   $0x0,0x6b04(%rip)        # e030 <g_23>
    7529:	00 00 00 
    752c:	e9 60 09 00 00       	jmpq   7e91 <func_43+0xf0c>
    7531:	48 c7 85 b0 f8 ff ff 	movq   $0x0,-0x750(%rbp)
    7538:	00 00 00 00 
    753c:	48 8d 05 e5 6a 00 00 	lea    0x6ae5(%rip),%rax        # e028 <g_16>
    7543:	48 89 85 70 fb ff ff 	mov    %rax,-0x490(%rbp)
    754a:	48 8d 85 50 f8 ff ff 	lea    -0x7b0(%rbp),%rax
    7551:	48 89 85 78 fb ff ff 	mov    %rax,-0x488(%rbp)
    7558:	48 8d 85 50 f8 ff ff 	lea    -0x7b0(%rbp),%rax
    755f:	48 89 85 80 fb ff ff 	mov    %rax,-0x480(%rbp)
    7566:	48 8d 85 50 f8 ff ff 	lea    -0x7b0(%rbp),%rax
    756d:	48 89 85 88 fb ff ff 	mov    %rax,-0x478(%rbp)
    7574:	48 8d 05 ad 6a 00 00 	lea    0x6aad(%rip),%rax        # e028 <g_16>
    757b:	48 89 85 90 fb ff ff 	mov    %rax,-0x470(%rbp)
    7582:	48 8d 05 9f 6a 00 00 	lea    0x6a9f(%rip),%rax        # e028 <g_16>
    7589:	48 89 85 98 fb ff ff 	mov    %rax,-0x468(%rbp)
    7590:	48 8d 05 91 6a 00 00 	lea    0x6a91(%rip),%rax        # e028 <g_16>
    7597:	48 89 85 a0 fb ff ff 	mov    %rax,-0x460(%rbp)
    759e:	48 c7 85 a8 fb ff ff 	movq   $0x0,-0x458(%rbp)
    75a5:	00 00 00 00 
    75a9:	48 8d 05 78 6a 00 00 	lea    0x6a78(%rip),%rax        # e028 <g_16>
    75b0:	48 89 85 b0 fb ff ff 	mov    %rax,-0x450(%rbp)
    75b7:	48 8d 85 50 f8 ff ff 	lea    -0x7b0(%rbp),%rax
    75be:	48 89 85 b8 fb ff ff 	mov    %rax,-0x448(%rbp)
    75c5:	48 8d 85 50 f8 ff ff 	lea    -0x7b0(%rbp),%rax
    75cc:	48 89 85 c0 fb ff ff 	mov    %rax,-0x440(%rbp)
    75d3:	48 8d 05 4e 6a 00 00 	lea    0x6a4e(%rip),%rax        # e028 <g_16>
    75da:	48 89 85 c8 fb ff ff 	mov    %rax,-0x438(%rbp)
    75e1:	48 8d 85 50 f8 ff ff 	lea    -0x7b0(%rbp),%rax
    75e8:	48 89 85 d0 fb ff ff 	mov    %rax,-0x430(%rbp)
    75ef:	48 8d 85 50 f8 ff ff 	lea    -0x7b0(%rbp),%rax
    75f6:	48 89 85 d8 fb ff ff 	mov    %rax,-0x428(%rbp)
    75fd:	48 8d 85 50 f8 ff ff 	lea    -0x7b0(%rbp),%rax
    7604:	48 89 85 e0 fb ff ff 	mov    %rax,-0x420(%rbp)
    760b:	48 c7 85 e8 fb ff ff 	movq   $0x0,-0x418(%rbp)
    7612:	00 00 00 00 
    7616:	48 8d 85 50 f8 ff ff 	lea    -0x7b0(%rbp),%rax
    761d:	48 89 85 f0 fb ff ff 	mov    %rax,-0x410(%rbp)
    7624:	48 8d 05 fd 69 00 00 	lea    0x69fd(%rip),%rax        # e028 <g_16>
    762b:	48 89 85 f8 fb ff ff 	mov    %rax,-0x408(%rbp)
    7632:	48 8d 05 ef 69 00 00 	lea    0x69ef(%rip),%rax        # e028 <g_16>
    7639:	48 89 85 00 fc ff ff 	mov    %rax,-0x400(%rbp)
    7640:	48 8d 05 e1 69 00 00 	lea    0x69e1(%rip),%rax        # e028 <g_16>
    7647:	48 89 85 08 fc ff ff 	mov    %rax,-0x3f8(%rbp)
    764e:	48 8d 05 d3 69 00 00 	lea    0x69d3(%rip),%rax        # e028 <g_16>
    7655:	48 89 85 10 fc ff ff 	mov    %rax,-0x3f0(%rbp)
    765c:	48 8d 05 c5 69 00 00 	lea    0x69c5(%rip),%rax        # e028 <g_16>
    7663:	48 89 85 18 fc ff ff 	mov    %rax,-0x3e8(%rbp)
    766a:	48 8d 05 b7 69 00 00 	lea    0x69b7(%rip),%rax        # e028 <g_16>
    7671:	48 89 85 20 fc ff ff 	mov    %rax,-0x3e0(%rbp)
    7678:	48 8d 05 a9 69 00 00 	lea    0x69a9(%rip),%rax        # e028 <g_16>
    767f:	48 89 85 28 fc ff ff 	mov    %rax,-0x3d8(%rbp)
    7686:	48 8d 85 50 f8 ff ff 	lea    -0x7b0(%rbp),%rax
    768d:	48 89 85 30 fc ff ff 	mov    %rax,-0x3d0(%rbp)
    7694:	48 8d 85 50 f8 ff ff 	lea    -0x7b0(%rbp),%rax
    769b:	48 89 85 38 fc ff ff 	mov    %rax,-0x3c8(%rbp)
    76a2:	48 8d 85 50 f8 ff ff 	lea    -0x7b0(%rbp),%rax
    76a9:	48 89 85 40 fc ff ff 	mov    %rax,-0x3c0(%rbp)
    76b0:	48 8d 85 50 f8 ff ff 	lea    -0x7b0(%rbp),%rax
    76b7:	48 89 85 48 fc ff ff 	mov    %rax,-0x3b8(%rbp)
    76be:	48 8d 05 63 69 00 00 	lea    0x6963(%rip),%rax        # e028 <g_16>
    76c5:	48 89 85 50 fc ff ff 	mov    %rax,-0x3b0(%rbp)
    76cc:	48 c7 85 58 fc ff ff 	movq   $0x0,-0x3a8(%rbp)
    76d3:	00 00 00 00 
    76d7:	48 8d 05 4a 69 00 00 	lea    0x694a(%rip),%rax        # e028 <g_16>
    76de:	48 89 85 60 fc ff ff 	mov    %rax,-0x3a0(%rbp)
    76e5:	48 8d 05 3c 69 00 00 	lea    0x693c(%rip),%rax        # e028 <g_16>
    76ec:	48 89 85 68 fc ff ff 	mov    %rax,-0x398(%rbp)
    76f3:	48 8d 05 2e 69 00 00 	lea    0x692e(%rip),%rax        # e028 <g_16>
    76fa:	48 89 85 70 fc ff ff 	mov    %rax,-0x390(%rbp)
    7701:	48 8d 05 20 69 00 00 	lea    0x6920(%rip),%rax        # e028 <g_16>
    7708:	48 89 85 78 fc ff ff 	mov    %rax,-0x388(%rbp)
    770f:	48 8d 85 50 f8 ff ff 	lea    -0x7b0(%rbp),%rax
    7716:	48 89 85 80 fc ff ff 	mov    %rax,-0x380(%rbp)
    771d:	48 8d 85 50 f8 ff ff 	lea    -0x7b0(%rbp),%rax
    7724:	48 89 85 88 fc ff ff 	mov    %rax,-0x378(%rbp)
    772b:	48 8d 85 50 f8 ff ff 	lea    -0x7b0(%rbp),%rax
    7732:	48 89 85 90 fc ff ff 	mov    %rax,-0x370(%rbp)
    7739:	48 8d 85 50 f8 ff ff 	lea    -0x7b0(%rbp),%rax
    7740:	48 89 85 98 fc ff ff 	mov    %rax,-0x368(%rbp)
    7747:	48 8d 85 50 f8 ff ff 	lea    -0x7b0(%rbp),%rax
    774e:	48 89 85 a0 fc ff ff 	mov    %rax,-0x360(%rbp)
    7755:	48 8d 05 cc 68 00 00 	lea    0x68cc(%rip),%rax        # e028 <g_16>
    775c:	48 89 85 a8 fc ff ff 	mov    %rax,-0x358(%rbp)
    7763:	48 8d 85 50 f8 ff ff 	lea    -0x7b0(%rbp),%rax
    776a:	48 89 85 b0 fc ff ff 	mov    %rax,-0x350(%rbp)
    7771:	48 8d 85 50 f8 ff ff 	lea    -0x7b0(%rbp),%rax
    7778:	48 89 85 b8 fc ff ff 	mov    %rax,-0x348(%rbp)
    777f:	48 8d 05 a2 68 00 00 	lea    0x68a2(%rip),%rax        # e028 <g_16>
    7786:	48 89 85 c0 fc ff ff 	mov    %rax,-0x340(%rbp)
    778d:	48 c7 85 c8 fc ff ff 	movq   $0x0,-0x338(%rbp)
    7794:	00 00 00 00 
    7798:	48 8d 05 89 68 00 00 	lea    0x6889(%rip),%rax        # e028 <g_16>
    779f:	48 89 85 d0 fc ff ff 	mov    %rax,-0x330(%rbp)
    77a6:	48 8d 85 50 f8 ff ff 	lea    -0x7b0(%rbp),%rax
    77ad:	48 89 85 d8 fc ff ff 	mov    %rax,-0x328(%rbp)
    77b4:	48 8d 05 6d 68 00 00 	lea    0x686d(%rip),%rax        # e028 <g_16>
    77bb:	48 89 85 e0 fc ff ff 	mov    %rax,-0x320(%rbp)
    77c2:	48 c7 85 e8 fc ff ff 	movq   $0x0,-0x318(%rbp)
    77c9:	00 00 00 00 
    77cd:	48 8d 85 50 f8 ff ff 	lea    -0x7b0(%rbp),%rax
    77d4:	48 89 85 f0 fc ff ff 	mov    %rax,-0x310(%rbp)
    77db:	48 8d 85 50 f8 ff ff 	lea    -0x7b0(%rbp),%rax
    77e2:	48 89 85 f8 fc ff ff 	mov    %rax,-0x308(%rbp)
    77e9:	48 8d 05 38 68 00 00 	lea    0x6838(%rip),%rax        # e028 <g_16>
    77f0:	48 89 85 00 fd ff ff 	mov    %rax,-0x300(%rbp)
    77f7:	48 8d 05 2a 68 00 00 	lea    0x682a(%rip),%rax        # e028 <g_16>
    77fe:	48 89 85 08 fd ff ff 	mov    %rax,-0x2f8(%rbp)
    7805:	48 8d 85 50 f8 ff ff 	lea    -0x7b0(%rbp),%rax
    780c:	48 89 85 10 fd ff ff 	mov    %rax,-0x2f0(%rbp)
    7813:	48 8d 85 50 f8 ff ff 	lea    -0x7b0(%rbp),%rax
    781a:	48 89 85 18 fd ff ff 	mov    %rax,-0x2e8(%rbp)
    7821:	48 8d 05 00 68 00 00 	lea    0x6800(%rip),%rax        # e028 <g_16>
    7828:	48 89 85 20 fd ff ff 	mov    %rax,-0x2e0(%rbp)
    782f:	48 8d 05 f2 67 00 00 	lea    0x67f2(%rip),%rax        # e028 <g_16>
    7836:	48 89 85 28 fd ff ff 	mov    %rax,-0x2d8(%rbp)
    783d:	48 8d 85 50 f8 ff ff 	lea    -0x7b0(%rbp),%rax
    7844:	48 89 85 30 fd ff ff 	mov    %rax,-0x2d0(%rbp)
    784b:	48 c7 85 38 fd ff ff 	movq   $0x0,-0x2c8(%rbp)
    7852:	00 00 00 00 
    7856:	48 8d 85 50 f8 ff ff 	lea    -0x7b0(%rbp),%rax
    785d:	48 89 85 40 fd ff ff 	mov    %rax,-0x2c0(%rbp)
    7864:	48 8d 85 50 f8 ff ff 	lea    -0x7b0(%rbp),%rax
    786b:	48 89 85 48 fd ff ff 	mov    %rax,-0x2b8(%rbp)
    7872:	48 8d 85 50 f8 ff ff 	lea    -0x7b0(%rbp),%rax
    7879:	48 89 85 50 fd ff ff 	mov    %rax,-0x2b0(%rbp)
    7880:	48 8d 05 a1 67 00 00 	lea    0x67a1(%rip),%rax        # e028 <g_16>
    7887:	48 89 85 58 fd ff ff 	mov    %rax,-0x2a8(%rbp)
    788e:	48 8d 05 93 67 00 00 	lea    0x6793(%rip),%rax        # e028 <g_16>
    7895:	48 89 85 60 fd ff ff 	mov    %rax,-0x2a0(%rbp)
    789c:	48 8d 85 50 f8 ff ff 	lea    -0x7b0(%rbp),%rax
    78a3:	48 89 85 68 fd ff ff 	mov    %rax,-0x298(%rbp)
    78aa:	48 8d 85 50 f8 ff ff 	lea    -0x7b0(%rbp),%rax
    78b1:	48 89 85 70 fd ff ff 	mov    %rax,-0x290(%rbp)
    78b8:	48 c7 85 78 fd ff ff 	movq   $0x0,-0x288(%rbp)
    78bf:	00 00 00 00 
    78c3:	48 8d 05 5e 67 00 00 	lea    0x675e(%rip),%rax        # e028 <g_16>
    78ca:	48 89 85 80 fd ff ff 	mov    %rax,-0x280(%rbp)
    78d1:	48 8d 85 50 f8 ff ff 	lea    -0x7b0(%rbp),%rax
    78d8:	48 89 85 88 fd ff ff 	mov    %rax,-0x278(%rbp)
    78df:	48 8d 85 50 f8 ff ff 	lea    -0x7b0(%rbp),%rax
    78e6:	48 89 85 90 fd ff ff 	mov    %rax,-0x270(%rbp)
    78ed:	48 8d 85 50 f8 ff ff 	lea    -0x7b0(%rbp),%rax
    78f4:	48 89 85 98 fd ff ff 	mov    %rax,-0x268(%rbp)
    78fb:	48 8d 05 26 67 00 00 	lea    0x6726(%rip),%rax        # e028 <g_16>
    7902:	48 89 85 a0 fd ff ff 	mov    %rax,-0x260(%rbp)
    7909:	48 8d 05 18 67 00 00 	lea    0x6718(%rip),%rax        # e028 <g_16>
    7910:	48 89 85 a8 fd ff ff 	mov    %rax,-0x258(%rbp)
    7917:	48 8d 05 0a 67 00 00 	lea    0x670a(%rip),%rax        # e028 <g_16>
    791e:	48 89 85 b0 fd ff ff 	mov    %rax,-0x250(%rbp)
    7925:	48 c7 85 b8 fd ff ff 	movq   $0x0,-0x248(%rbp)
    792c:	00 00 00 00 
    7930:	48 8d 05 f1 66 00 00 	lea    0x66f1(%rip),%rax        # e028 <g_16>
    7937:	48 89 85 c0 fd ff ff 	mov    %rax,-0x240(%rbp)
    793e:	48 8d 85 50 f8 ff ff 	lea    -0x7b0(%rbp),%rax
    7945:	48 89 85 c8 fd ff ff 	mov    %rax,-0x238(%rbp)
    794c:	48 8d 85 50 f8 ff ff 	lea    -0x7b0(%rbp),%rax
    7953:	48 89 85 d0 fd ff ff 	mov    %rax,-0x230(%rbp)
    795a:	48 8d 05 c7 66 00 00 	lea    0x66c7(%rip),%rax        # e028 <g_16>
    7961:	48 89 85 d8 fd ff ff 	mov    %rax,-0x228(%rbp)
    7968:	48 8d 85 50 f8 ff ff 	lea    -0x7b0(%rbp),%rax
    796f:	48 89 85 e0 fd ff ff 	mov    %rax,-0x220(%rbp)
    7976:	48 8d 85 50 f8 ff ff 	lea    -0x7b0(%rbp),%rax
    797d:	48 89 85 e8 fd ff ff 	mov    %rax,-0x218(%rbp)
    7984:	48 8d 85 50 f8 ff ff 	lea    -0x7b0(%rbp),%rax
    798b:	48 89 85 f0 fd ff ff 	mov    %rax,-0x210(%rbp)
    7992:	48 c7 85 f8 fd ff ff 	movq   $0x0,-0x208(%rbp)
    7999:	00 00 00 00 
    799d:	48 8d 85 50 f8 ff ff 	lea    -0x7b0(%rbp),%rax
    79a4:	48 89 85 00 fe ff ff 	mov    %rax,-0x200(%rbp)
    79ab:	48 8d 05 76 66 00 00 	lea    0x6676(%rip),%rax        # e028 <g_16>
    79b2:	48 89 85 08 fe ff ff 	mov    %rax,-0x1f8(%rbp)
    79b9:	48 8d 05 68 66 00 00 	lea    0x6668(%rip),%rax        # e028 <g_16>
    79c0:	48 89 85 10 fe ff ff 	mov    %rax,-0x1f0(%rbp)
    79c7:	48 8d 05 5a 66 00 00 	lea    0x665a(%rip),%rax        # e028 <g_16>
    79ce:	48 89 85 18 fe ff ff 	mov    %rax,-0x1e8(%rbp)
    79d5:	48 8d 05 4c 66 00 00 	lea    0x664c(%rip),%rax        # e028 <g_16>
    79dc:	48 89 85 20 fe ff ff 	mov    %rax,-0x1e0(%rbp)
    79e3:	48 8d 05 3e 66 00 00 	lea    0x663e(%rip),%rax        # e028 <g_16>
    79ea:	48 89 85 28 fe ff ff 	mov    %rax,-0x1d8(%rbp)
    79f1:	48 8d 05 30 66 00 00 	lea    0x6630(%rip),%rax        # e028 <g_16>
    79f8:	48 89 85 30 fe ff ff 	mov    %rax,-0x1d0(%rbp)
    79ff:	48 8d 05 22 66 00 00 	lea    0x6622(%rip),%rax        # e028 <g_16>
    7a06:	48 89 85 38 fe ff ff 	mov    %rax,-0x1c8(%rbp)
    7a0d:	48 8d 85 50 f8 ff ff 	lea    -0x7b0(%rbp),%rax
    7a14:	48 89 85 40 fe ff ff 	mov    %rax,-0x1c0(%rbp)
    7a1b:	48 8d 85 50 f8 ff ff 	lea    -0x7b0(%rbp),%rax
    7a22:	48 89 85 48 fe ff ff 	mov    %rax,-0x1b8(%rbp)
    7a29:	48 8d 85 50 f8 ff ff 	lea    -0x7b0(%rbp),%rax
    7a30:	48 89 85 50 fe ff ff 	mov    %rax,-0x1b0(%rbp)
    7a37:	48 8d 85 50 f8 ff ff 	lea    -0x7b0(%rbp),%rax
    7a3e:	48 89 85 58 fe ff ff 	mov    %rax,-0x1a8(%rbp)
    7a45:	48 8d 05 dc 65 00 00 	lea    0x65dc(%rip),%rax        # e028 <g_16>
    7a4c:	48 89 85 60 fe ff ff 	mov    %rax,-0x1a0(%rbp)
    7a53:	48 c7 85 68 fe ff ff 	movq   $0x0,-0x198(%rbp)
    7a5a:	00 00 00 00 
    7a5e:	48 8d 05 c3 65 00 00 	lea    0x65c3(%rip),%rax        # e028 <g_16>
    7a65:	48 89 85 70 fe ff ff 	mov    %rax,-0x190(%rbp)
    7a6c:	48 8d 05 b5 65 00 00 	lea    0x65b5(%rip),%rax        # e028 <g_16>
    7a73:	48 89 85 78 fe ff ff 	mov    %rax,-0x188(%rbp)
    7a7a:	48 8d 05 a7 65 00 00 	lea    0x65a7(%rip),%rax        # e028 <g_16>
    7a81:	48 89 85 80 fe ff ff 	mov    %rax,-0x180(%rbp)
    7a88:	48 8d 05 99 65 00 00 	lea    0x6599(%rip),%rax        # e028 <g_16>
    7a8f:	48 89 85 88 fe ff ff 	mov    %rax,-0x178(%rbp)
    7a96:	48 8d 85 50 f8 ff ff 	lea    -0x7b0(%rbp),%rax
    7a9d:	48 89 85 90 fe ff ff 	mov    %rax,-0x170(%rbp)
    7aa4:	48 8d 85 50 f8 ff ff 	lea    -0x7b0(%rbp),%rax
    7aab:	48 89 85 98 fe ff ff 	mov    %rax,-0x168(%rbp)
    7ab2:	48 8d 85 50 f8 ff ff 	lea    -0x7b0(%rbp),%rax
    7ab9:	48 89 85 a0 fe ff ff 	mov    %rax,-0x160(%rbp)
    7ac0:	48 8d 85 50 f8 ff ff 	lea    -0x7b0(%rbp),%rax
    7ac7:	48 89 85 a8 fe ff ff 	mov    %rax,-0x158(%rbp)
    7ace:	48 8d 85 50 f8 ff ff 	lea    -0x7b0(%rbp),%rax
    7ad5:	48 89 85 b0 fe ff ff 	mov    %rax,-0x150(%rbp)
    7adc:	48 8d 05 45 65 00 00 	lea    0x6545(%rip),%rax        # e028 <g_16>
    7ae3:	48 89 85 b8 fe ff ff 	mov    %rax,-0x148(%rbp)
    7aea:	48 8d 85 50 f8 ff ff 	lea    -0x7b0(%rbp),%rax
    7af1:	48 89 85 c0 fe ff ff 	mov    %rax,-0x140(%rbp)
    7af8:	48 8d 85 50 f8 ff ff 	lea    -0x7b0(%rbp),%rax
    7aff:	48 89 85 c8 fe ff ff 	mov    %rax,-0x138(%rbp)
    7b06:	48 8d 05 1b 65 00 00 	lea    0x651b(%rip),%rax        # e028 <g_16>
    7b0d:	48 89 85 d0 fe ff ff 	mov    %rax,-0x130(%rbp)
    7b14:	48 c7 85 d8 fe ff ff 	movq   $0x0,-0x128(%rbp)
    7b1b:	00 00 00 00 
    7b1f:	48 8d 05 02 65 00 00 	lea    0x6502(%rip),%rax        # e028 <g_16>
    7b26:	48 89 85 e0 fe ff ff 	mov    %rax,-0x120(%rbp)
    7b2d:	48 8d 85 50 f8 ff ff 	lea    -0x7b0(%rbp),%rax
    7b34:	48 89 85 e8 fe ff ff 	mov    %rax,-0x118(%rbp)
    7b3b:	48 8d 05 e6 64 00 00 	lea    0x64e6(%rip),%rax        # e028 <g_16>
    7b42:	48 89 85 f0 fe ff ff 	mov    %rax,-0x110(%rbp)
    7b49:	48 c7 85 f8 fe ff ff 	movq   $0x0,-0x108(%rbp)
    7b50:	00 00 00 00 
    7b54:	48 8d 85 50 f8 ff ff 	lea    -0x7b0(%rbp),%rax
    7b5b:	48 89 85 00 ff ff ff 	mov    %rax,-0x100(%rbp)
    7b62:	48 8d 85 50 f8 ff ff 	lea    -0x7b0(%rbp),%rax
    7b69:	48 89 85 08 ff ff ff 	mov    %rax,-0xf8(%rbp)
    7b70:	48 8d 05 b1 64 00 00 	lea    0x64b1(%rip),%rax        # e028 <g_16>
    7b77:	48 89 85 10 ff ff ff 	mov    %rax,-0xf0(%rbp)
    7b7e:	48 8d 05 a3 64 00 00 	lea    0x64a3(%rip),%rax        # e028 <g_16>
    7b85:	48 89 85 18 ff ff ff 	mov    %rax,-0xe8(%rbp)
    7b8c:	48 8d 85 50 f8 ff ff 	lea    -0x7b0(%rbp),%rax
    7b93:	48 89 85 20 ff ff ff 	mov    %rax,-0xe0(%rbp)
    7b9a:	48 8d 85 50 f8 ff ff 	lea    -0x7b0(%rbp),%rax
    7ba1:	48 89 85 28 ff ff ff 	mov    %rax,-0xd8(%rbp)
    7ba8:	48 8d 05 79 64 00 00 	lea    0x6479(%rip),%rax        # e028 <g_16>
    7baf:	48 89 85 30 ff ff ff 	mov    %rax,-0xd0(%rbp)
    7bb6:	48 8d 05 6b 64 00 00 	lea    0x646b(%rip),%rax        # e028 <g_16>
    7bbd:	48 89 85 38 ff ff ff 	mov    %rax,-0xc8(%rbp)
    7bc4:	48 8d 85 50 f8 ff ff 	lea    -0x7b0(%rbp),%rax
    7bcb:	48 89 85 40 ff ff ff 	mov    %rax,-0xc0(%rbp)
    7bd2:	48 c7 85 48 ff ff ff 	movq   $0x0,-0xb8(%rbp)
    7bd9:	00 00 00 00 
    7bdd:	48 8d 85 50 f8 ff ff 	lea    -0x7b0(%rbp),%rax
    7be4:	48 89 85 50 ff ff ff 	mov    %rax,-0xb0(%rbp)
    7beb:	48 8d 85 50 f8 ff ff 	lea    -0x7b0(%rbp),%rax
    7bf2:	48 89 85 58 ff ff ff 	mov    %rax,-0xa8(%rbp)
    7bf9:	48 8d 85 50 f8 ff ff 	lea    -0x7b0(%rbp),%rax
    7c00:	48 89 85 60 ff ff ff 	mov    %rax,-0xa0(%rbp)
    7c07:	48 8d 05 1a 64 00 00 	lea    0x641a(%rip),%rax        # e028 <g_16>
    7c0e:	48 89 85 68 ff ff ff 	mov    %rax,-0x98(%rbp)
    7c15:	48 8d 05 0c 64 00 00 	lea    0x640c(%rip),%rax        # e028 <g_16>
    7c1c:	48 89 85 70 ff ff ff 	mov    %rax,-0x90(%rbp)
    7c23:	48 8d 85 50 f8 ff ff 	lea    -0x7b0(%rbp),%rax
    7c2a:	48 89 85 78 ff ff ff 	mov    %rax,-0x88(%rbp)
    7c31:	48 8d 85 50 f8 ff ff 	lea    -0x7b0(%rbp),%rax
    7c38:	48 89 45 80          	mov    %rax,-0x80(%rbp)
    7c3c:	48 c7 45 88 00 00 00 	movq   $0x0,-0x78(%rbp)
    7c43:	00 
    7c44:	48 8d 05 dd 63 00 00 	lea    0x63dd(%rip),%rax        # e028 <g_16>
    7c4b:	48 89 45 90          	mov    %rax,-0x70(%rbp)
    7c4f:	48 8d 85 50 f8 ff ff 	lea    -0x7b0(%rbp),%rax
    7c56:	48 89 45 98          	mov    %rax,-0x68(%rbp)
    7c5a:	48 8d 85 50 f8 ff ff 	lea    -0x7b0(%rbp),%rax
    7c61:	48 89 45 a0          	mov    %rax,-0x60(%rbp)
    7c65:	48 8d 85 50 f8 ff ff 	lea    -0x7b0(%rbp),%rax
    7c6c:	48 89 45 a8          	mov    %rax,-0x58(%rbp)
    7c70:	48 8d 05 b1 63 00 00 	lea    0x63b1(%rip),%rax        # e028 <g_16>
    7c77:	48 89 45 b0          	mov    %rax,-0x50(%rbp)
    7c7b:	48 8d 05 a6 63 00 00 	lea    0x63a6(%rip),%rax        # e028 <g_16>
    7c82:	48 89 45 b8          	mov    %rax,-0x48(%rbp)
    7c86:	48 8d 05 9b 63 00 00 	lea    0x639b(%rip),%rax        # e028 <g_16>
    7c8d:	48 89 45 c0          	mov    %rax,-0x40(%rbp)
    7c91:	48 c7 45 c8 00 00 00 	movq   $0x0,-0x38(%rbp)
    7c98:	00 
    7c99:	48 8d 05 88 63 00 00 	lea    0x6388(%rip),%rax        # e028 <g_16>
    7ca0:	48 89 45 d0          	mov    %rax,-0x30(%rbp)
    7ca4:	48 8d 85 50 f8 ff ff 	lea    -0x7b0(%rbp),%rax
    7cab:	48 89 45 d8          	mov    %rax,-0x28(%rbp)
    7caf:	48 8d 85 50 f8 ff ff 	lea    -0x7b0(%rbp),%rax
    7cb6:	48 89 45 e0          	mov    %rax,-0x20(%rbp)
    7cba:	48 8d 05 67 63 00 00 	lea    0x6367(%rip),%rax        # e028 <g_16>
    7cc1:	48 89 45 e8          	mov    %rax,-0x18(%rbp)
    7cc5:	c7 85 e0 f7 ff ff ed 	movl   $0x363870ed,-0x820(%rbp)
    7ccc:	70 38 36 
    7ccf:	48 8d 85 e0 f7 ff ff 	lea    -0x820(%rbp),%rax
    7cd6:	48 89 85 b8 f8 ff ff 	mov    %rax,-0x748(%rbp)
    7cdd:	c7 85 14 f8 ff ff 28 	movl   $0x6772ac28,-0x7ec(%rbp)
    7ce4:	ac 72 67 
    7ce7:	48 8d 85 d0 f8 ff ff 	lea    -0x730(%rbp),%rax
    7cee:	48 89 85 c0 f8 ff ff 	mov    %rax,-0x740(%rbp)
    7cf5:	48 8d 05 38 63 00 00 	lea    0x6338(%rip),%rax        # e034 <g_121>
    7cfc:	48 89 85 68 f8 ff ff 	mov    %rax,-0x798(%rbp)
    7d03:	48 8d 85 58 f8 ff ff 	lea    -0x7a8(%rbp),%rax
    7d0a:	48 89 85 c8 f8 ff ff 	mov    %rax,-0x738(%rbp)
    7d11:	c7 85 18 f8 ff ff ff 	movl   $0xffffffff,-0x7e8(%rbp)
    7d18:	ff ff ff 
    7d1b:	c7 85 1c f8 ff ff b9 	movl   $0xcd7120b9,-0x7e4(%rbp)
    7d22:	20 71 cd 
    7d25:	c7 85 20 f8 ff ff d6 	movl   $0xe661a0d6,-0x7e0(%rbp)
    7d2c:	a0 61 e6 
    7d2f:	c7 85 24 f8 ff ff 72 	movl   $0x7a361f72,-0x7dc(%rbp)
    7d36:	1f 36 7a 
    7d39:	c7 85 28 f8 ff ff 08 	movl   $0x8,-0x7d8(%rbp)
    7d40:	00 00 00 
    7d43:	c7 85 2c f8 ff ff f7 	movl   $0xfffffff7,-0x7d4(%rbp)
    7d4a:	ff ff ff 
    7d4d:	c7 85 30 f8 ff ff 95 	movl   $0xa3a97d95,-0x7d0(%rbp)
    7d54:	7d a9 a3 
    7d57:	c7 85 34 f8 ff ff ff 	movl   $0xffffffff,-0x7cc(%rbp)
    7d5e:	ff ff ff 
    7d61:	c7 85 38 f8 ff ff 46 	movl   $0x525aa446,-0x7c8(%rbp)
    7d68:	a4 5a 52 
    7d6b:	c7 85 3c f8 ff ff e1 	movl   $0x57d9f7e1,-0x7c4(%rbp)
    7d72:	f7 d9 57 
    7d75:	c6 85 db f7 ff ff f9 	movb   $0xf9,-0x825(%rbp)
    7d7c:	c7 85 40 f8 ff ff f5 	movl   $0x2d60aef5,-0x7c0(%rbp)
    7d83:	ae 60 2d 
    7d86:	48 c7 85 70 f8 ff ff 	movq   $0x0,-0x790(%rbp)
    7d8d:	00 00 00 00 
    7d91:	48 8d 85 70 f8 ff ff 	lea    -0x790(%rbp),%rax
    7d98:	48 89 85 a0 f9 ff ff 	mov    %rax,-0x660(%rbp)
    7d9f:	48 8d 85 70 f8 ff ff 	lea    -0x790(%rbp),%rax
    7da6:	48 89 85 a8 f9 ff ff 	mov    %rax,-0x658(%rbp)
    7dad:	48 8d 85 70 f8 ff ff 	lea    -0x790(%rbp),%rax
    7db4:	48 89 85 b0 f9 ff ff 	mov    %rax,-0x650(%rbp)
    7dbb:	48 c7 85 b8 f9 ff ff 	movq   $0x0,-0x648(%rbp)
    7dc2:	00 00 00 00 
    7dc6:	48 c7 85 c0 f9 ff ff 	movq   $0x0,-0x640(%rbp)
    7dcd:	00 00 00 00 
    7dd1:	48 8d 85 70 f8 ff ff 	lea    -0x790(%rbp),%rax
    7dd8:	48 89 85 c8 f9 ff ff 	mov    %rax,-0x638(%rbp)
    7ddf:	48 8d 85 70 f8 ff ff 	lea    -0x790(%rbp),%rax
    7de6:	48 89 85 d0 f9 ff ff 	mov    %rax,-0x630(%rbp)
    7ded:	48 8d 85 70 f8 ff ff 	lea    -0x790(%rbp),%rax
    7df4:	48 89 85 d8 f9 ff ff 	mov    %rax,-0x628(%rbp)
    7dfb:	48 c7 85 e0 f9 ff ff 	movq   $0x0,-0x620(%rbp)
    7e02:	00 00 00 00 
    7e06:	48 c7 85 e8 f9 ff ff 	movq   $0x0,-0x618(%rbp)
    7e0d:	00 00 00 00 
    7e11:	c7 85 44 f8 ff ff f5 	movl   $0xa9f40f5,-0x7bc(%rbp)
    7e18:	40 9f 0a 
    7e1b:	c7 85 48 f8 ff ff 8a 	movl   $0xde1ebe8a,-0x7b8(%rbp)
    7e22:	be 1e de 
    7e25:	c7 85 4c f8 ff ff 01 	movl   $0x1,-0x7b4(%rbp)
    7e2c:	00 00 00 
    7e2f:	48 c7 85 78 f8 ff ff 	movq   $0xffffffffffffffff,-0x788(%rbp)
    7e36:	ff ff ff ff 
    7e3a:	66 c7 85 de f7 ff ff 	movw   $0xaba6,-0x822(%rbp)
    7e41:	a6 ab 
    7e43:	c7 85 ec f7 ff ff 00 	movl   $0x0,-0x814(%rbp)
    7e4a:	00 00 00 
    7e4d:	eb 1e                	jmp    7e6d <func_43+0xee8>
    7e4f:	8b 85 ec f7 ff ff    	mov    -0x814(%rbp),%eax
    7e55:	48 98                	cltq   
    7e57:	48 8d 95 68 f8 ff ff 	lea    -0x798(%rbp),%rdx
    7e5e:	48 89 94 c5 f0 f8 ff 	mov    %rdx,-0x710(%rbp,%rax,8)
    7e65:	ff 
    7e66:	83 85 ec f7 ff ff 01 	addl   $0x1,-0x814(%rbp)
    7e6d:	83 bd ec f7 ff ff 01 	cmpl   $0x1,-0x814(%rbp)
    7e74:	7e d9                	jle    7e4f <func_43+0xeca>
    7e76:	8b 05 b4 61 00 00    	mov    0x61b4(%rip),%eax        # e030 <g_23>
    7e7c:	48 98                	cltq   
    7e7e:	be 07 00 00 00       	mov    $0x7,%esi
    7e83:	48 89 c7             	mov    %rax,%rdi
    7e86:	e8 b6 b9 ff ff       	callq  3841 <safe_add_func_int64_t_s_s>
    7e8b:	89 05 9f 61 00 00    	mov    %eax,0x619f(%rip)        # e030 <g_23>
    7e91:	8b 05 99 61 00 00    	mov    0x6199(%rip),%eax        # e030 <g_23>
    7e97:	83 f8 02             	cmp    $0x2,%eax
    7e9a:	0f 8e 91 f6 ff ff    	jle    7531 <func_43+0x5ac>
    7ea0:	8b 05 8a 61 00 00    	mov    0x618a(%rip),%eax        # e030 <g_23>
    7ea6:	85 c0                	test   %eax,%eax
    7ea8:	90                   	nop
    7ea9:	f3 0f 1e fa          	endbr64 
    7ead:	0f b6 45 f7          	movzbl -0x9(%rbp),%eax
    7eb1:	83 c0 01             	add    $0x1,%eax
    7eb4:	88 45 f7             	mov    %al,-0x9(%rbp)
    7eb7:	48 8b 15 fa 67 00 00 	mov    0x67fa(%rip),%rdx        # e6b8 <g_695>
    7ebe:	48 8b 05 4b 67 00 00 	mov    0x674b(%rip),%rax        # e610 <g_438>
    7ec5:	48 8b 00             	mov    (%rax),%rax
    7ec8:	48 8b 12             	mov    (%rdx),%rdx
    7ecb:	48 89 10             	mov    %rdx,(%rax)
    7ece:	8b 85 b4 f7 ff ff    	mov    -0x84c(%rbp),%eax
    7ed4:	48 8b 4d f8          	mov    -0x8(%rbp),%rcx
    7ed8:	64 48 33 0c 25 28 00 	xor    %fs:0x28,%rcx
    7edf:	00 00 
    7ee1:	74 05                	je     7ee8 <func_43+0xf63>
    7ee3:	e8 88 b1 ff ff       	callq  3070 <__stack_chk_fail@plt>
    7ee8:	c9                   	leaveq 
    7ee9:	c3                   	retq   

0000000000007eea <func_48>:
    7eea:	f3 0f 1e fa          	endbr64 
    7eee:	55                   	push   %rbp
    7eef:	48 89 e5             	mov    %rsp,%rbp
    7ef2:	48 89 7d e8          	mov    %rdi,-0x18(%rbp)
    7ef6:	48 89 75 e0          	mov    %rsi,-0x20(%rbp)
    7efa:	48 89 55 d8          	mov    %rdx,-0x28(%rbp)
    7efe:	48 89 4d d0          	mov    %rcx,-0x30(%rbp)
    7f02:	4c 89 45 c8          	mov    %r8,-0x38(%rbp)
    7f06:	c7 45 fc 00 00 00 00 	movl   $0x0,-0x4(%rbp)
    7f0d:	c6 05 94 70 00 00 00 	movb   $0x0,0x7094(%rip)        # efa8 <g_100>
    7f14:	90                   	nop
    7f15:	0f b6 05 8c 70 00 00 	movzbl 0x708c(%rip),%eax        # efa8 <g_100>
    7f1c:	3c 0d                	cmp    $0xd,%al
    7f1e:	74 10                	je     7f30 <func_48+0x46>
    7f20:	83 7d fc 00          	cmpl   $0x0,-0x4(%rbp)
    7f24:	75 09                	jne    7f2f <func_48+0x45>
    7f26:	48 8d 05 73 65 00 00 	lea    0x6573(%rip),%rax        # e4a0 <g_68>
    7f2d:	eb 08                	jmp    7f37 <func_48+0x4d>
    7f2f:	90                   	nop
    7f30:	48 8d 05 69 65 00 00 	lea    0x6569(%rip),%rax        # e4a0 <g_68>
    7f37:	5d                   	pop    %rbp
    7f38:	c3                   	retq   

0000000000007f39 <func_54>:
    7f39:	f3 0f 1e fa          	endbr64 
    7f3d:	55                   	push   %rbp
    7f3e:	48 89 e5             	mov    %rsp,%rbp
    7f41:	41 54                	push   %r12
    7f43:	53                   	push   %rbx
    7f44:	48 81 ec 90 00 00 00 	sub    $0x90,%rsp
    7f4b:	48 89 7d 88          	mov    %rdi,-0x78(%rbp)
    7f4f:	48 89 75 80          	mov    %rsi,-0x80(%rbp)
    7f53:	48 89 95 78 ff ff ff 	mov    %rdx,-0x88(%rbp)
    7f5a:	48 89 8d 70 ff ff ff 	mov    %rcx,-0x90(%rbp)
    7f61:	4c 89 85 68 ff ff ff 	mov    %r8,-0x98(%rbp)
    7f68:	64 48 8b 04 25 28 00 	mov    %fs:0x28,%rax
    7f6f:	00 00 
    7f71:	48 89 45 e8          	mov    %rax,-0x18(%rbp)
    7f75:	31 c0                	xor    %eax,%eax
    7f77:	48 8d 05 aa 60 00 00 	lea    0x60aa(%rip),%rax        # e028 <g_16>
    7f7e:	48 89 45 a0          	mov    %rax,-0x60(%rbp)
    7f82:	48 8d 05 17 65 00 00 	lea    0x6517(%rip),%rax        # e4a0 <g_68>
    7f89:	48 89 45 b8          	mov    %rax,-0x48(%rbp)
    7f8d:	48 c7 45 a8 07 00 00 	movq   $0x7,-0x58(%rbp)
    7f94:	00 
    7f95:	48 8b 55 a0          	mov    -0x60(%rbp),%rdx
    7f99:	48 8b 05 58 65 00 00 	mov    0x6558(%rip),%rax        # e4f8 <g_67+0x38>
    7fa0:	48 8d 35 81 60 00 00 	lea    0x6081(%rip),%rsi        # e028 <g_16>
    7fa7:	48 89 c7             	mov    %rax,%rdi
    7faa:	e8 70 01 00 00       	callq  811f <func_63>
    7faf:	85 c0                	test   %eax,%eax
    7fb1:	0f 84 29 01 00 00    	je     80e0 <func_54+0x1a7>
    7fb7:	48 8d 05 72 60 00 00 	lea    0x6072(%rip),%rax        # e030 <g_23>
    7fbe:	48 89 45 c0          	mov    %rax,-0x40(%rbp)
    7fc2:	48 8d 45 a0          	lea    -0x60(%rbp),%rax
    7fc6:	48 89 45 c8          	mov    %rax,-0x38(%rbp)
    7fca:	48 c7 45 d0 00 00 00 	movq   $0x0,-0x30(%rbp)
    7fd1:	00 
    7fd2:	48 8d 05 4f 60 00 00 	lea    0x604f(%rip),%rax        # e028 <g_16>
    7fd9:	48 89 45 b0          	mov    %rax,-0x50(%rbp)
    7fdd:	48 8d 45 b0          	lea    -0x50(%rbp),%rax
    7fe1:	48 89 45 d8          	mov    %rax,-0x28(%rbp)
    7fe5:	48 8d 05 bc 6f 00 00 	lea    0x6fbc(%rip),%rax        # efa8 <g_100>
    7fec:	48 89 45 e0          	mov    %rax,-0x20(%rbp)
    7ff0:	c7 45 9c 15 9f e3 9b 	movl   $0x9be39f15,-0x64(%rbp)
    7ff7:	48 8b 45 c0          	mov    -0x40(%rbp),%rax
    7ffb:	8b 18                	mov    (%rax),%ebx
    7ffd:	48 8b 45 88          	mov    -0x78(%rbp),%rax
    8001:	41 89 c4             	mov    %eax,%r12d
    8004:	48 8b 45 c8          	mov    -0x38(%rbp),%rax
    8008:	48 8d 15 19 60 00 00 	lea    0x6019(%rip),%rdx        # e028 <g_16>
    800f:	48 89 10             	mov    %rdx,(%rax)
    8012:	48 8b 45 c8          	mov    -0x38(%rbp),%rax
    8016:	48 8b 10             	mov    (%rax),%rdx
    8019:	48 8b 45 d8          	mov    -0x28(%rbp),%rax
    801d:	48 89 10             	mov    %rdx,(%rax)
    8020:	48 8b 45 d8          	mov    -0x28(%rbp),%rax
    8024:	48 8b 10             	mov    (%rax),%rdx
    8027:	48 8d 85 68 ff ff ff 	lea    -0x98(%rbp),%rax
    802e:	48 39 c2             	cmp    %rax,%rdx
    8031:	0f 95 c0             	setne  %al
    8034:	0f b6 c0             	movzbl %al,%eax
    8037:	89 c7                	mov    %eax,%edi
    8039:	e8 81 b1 ff ff       	callq  31bf <safe_unary_minus_func_int8_t_s>
    803e:	48 8d 05 5b 64 00 00 	lea    0x645b(%rip),%rax        # e4a0 <g_68>
    8045:	48 39 45 b8          	cmp    %rax,-0x48(%rbp)
    8049:	0f 95 c0             	setne  %al
    804c:	0f b6 c0             	movzbl %al,%eax
    804f:	be 01 00 00 00       	mov    $0x1,%esi
    8054:	48 89 c7             	mov    %rax,%rdi
    8057:	e8 53 c0 ff ff       	callq  40af <safe_div_func_uint64_t_u_u>
    805c:	48 8b 55 b8          	mov    -0x48(%rbp),%rdx
    8060:	48 8b 12             	mov    (%rdx),%rdx
    8063:	8b 12                	mov    (%rdx),%edx
    8065:	48 63 d2             	movslq %edx,%rdx
    8068:	48 39 d0             	cmp    %rdx,%rax
    806b:	0f 95 c0             	setne  %al
    806e:	0f b6 c0             	movzbl %al,%eax
    8071:	be 01 00 00 00       	mov    $0x1,%esi
    8076:	89 c7                	mov    %eax,%edi
    8078:	e8 95 b1 ff ff       	callq  3212 <safe_mul_func_int8_t_s_s>
    807d:	0f be d0             	movsbl %al,%edx
    8080:	b8 09 00 00 00       	mov    $0x9,%eax
    8085:	0f b7 c0             	movzwl %ax,%eax
    8088:	89 d6                	mov    %edx,%esi
    808a:	89 c7                	mov    %eax,%edi
    808c:	e8 b7 bd ff ff       	callq  3e48 <safe_rshift_func_uint16_t_u_s>
    8091:	48 8b 45 b8          	mov    -0x48(%rbp),%rax
    8095:	48 8b 00             	mov    (%rax),%rax
    8098:	8b 00                	mov    (%rax),%eax
    809a:	83 f8 01             	cmp    $0x1,%eax
    809d:	0f 95 c0             	setne  %al
    80a0:	0f b6 d0             	movzbl %al,%edx
    80a3:	48 8b 05 7e 5f 00 00 	mov    0x5f7e(%rip),%rax        # e028 <g_16>
    80aa:	48 39 c2             	cmp    %rax,%rdx
    80ad:	0f 9f c0             	setg   %al
    80b0:	89 c2                	mov    %eax,%edx
    80b2:	48 8b 45 e0          	mov    -0x20(%rbp),%rax
    80b6:	88 10                	mov    %dl,(%rax)
    80b8:	48 8b 45 e0          	mov    -0x20(%rbp),%rax
    80bc:	0f b6 00             	movzbl (%rax),%eax
    80bf:	0f b6 c0             	movzbl %al,%eax
    80c2:	44 89 e6             	mov    %r12d,%esi
    80c5:	89 c7                	mov    %eax,%edi
    80c7:	e8 80 bb ff ff       	callq  3c4c <safe_lshift_func_uint8_t_u_u>
    80cc:	0f be c0             	movsbl %al,%eax
    80cf:	89 de                	mov    %ebx,%esi
    80d1:	89 c7                	mov    %eax,%edi
    80d3:	e8 c9 b1 ff ff       	callq  32a1 <safe_lshift_func_int8_t_s_s>
    80d8:	0f be c0             	movsbl %al,%eax
    80db:	31 45 9c             	xor    %eax,-0x64(%rbp)
    80de:	eb 0d                	jmp    80ed <func_54+0x1b4>
    80e0:	48 8b 05 b9 63 00 00 	mov    0x63b9(%rip),%rax        # e4a0 <g_68>
    80e7:	c7 00 01 00 00 00    	movl   $0x1,(%rax)
    80ed:	48 8b 45 b8          	mov    -0x48(%rbp),%rax
    80f1:	48 8b 10             	mov    (%rax),%rdx
    80f4:	48 8b 45 b8          	mov    -0x48(%rbp),%rax
    80f8:	48 89 10             	mov    %rdx,(%rax)
    80fb:	48 8b 45 a8          	mov    -0x58(%rbp),%rax
    80ff:	48 8b 4d e8          	mov    -0x18(%rbp),%rcx
    8103:	64 48 33 0c 25 28 00 	xor    %fs:0x28,%rcx
    810a:	00 00 
    810c:	74 05                	je     8113 <func_54+0x1da>
    810e:	e8 5d af ff ff       	callq  3070 <__stack_chk_fail@plt>
    8113:	48 81 c4 90 00 00 00 	add    $0x90,%rsp
    811a:	5b                   	pop    %rbx
    811b:	41 5c                	pop    %r12
    811d:	5d                   	pop    %rbp
    811e:	c3                   	retq   

000000000000811f <func_63>:
    811f:	f3 0f 1e fa          	endbr64 
    8123:	55                   	push   %rbp
    8124:	48 89 e5             	mov    %rsp,%rbp
    8127:	48 81 ec 40 01 00 00 	sub    $0x140,%rsp
    812e:	48 89 bd d8 fe ff ff 	mov    %rdi,-0x128(%rbp)
    8135:	48 89 b5 d0 fe ff ff 	mov    %rsi,-0x130(%rbp)
    813c:	48 89 95 c8 fe ff ff 	mov    %rdx,-0x138(%rbp)
    8143:	64 48 8b 04 25 28 00 	mov    %fs:0x28,%rax
    814a:	00 00 
    814c:	48 89 45 f8          	mov    %rax,-0x8(%rbp)
    8150:	31 c0                	xor    %eax,%eax
    8152:	48 8d 05 d7 5e 00 00 	lea    0x5ed7(%rip),%rax        # e030 <g_23>
    8159:	48 89 85 f8 fe ff ff 	mov    %rax,-0x108(%rbp)
    8160:	c7 85 e8 fe ff ff 96 	movl   $0x3333db96,-0x118(%rbp)
    8167:	db 33 33 
    816a:	48 8d 05 bf 5e 00 00 	lea    0x5ebf(%rip),%rax        # e030 <g_23>
    8171:	48 89 85 00 ff ff ff 	mov    %rax,-0x100(%rbp)
    8178:	c7 85 f0 fe ff ff 18 	movl   $0x91cddc18,-0x110(%rbp)
    817f:	dc cd 91 
    8182:	48 c7 85 08 ff ff ff 	movq   $0x1,-0xf8(%rbp)
    8189:	01 00 00 00 
    818d:	c7 85 f4 fe ff ff 01 	movl   $0x1,-0x10c(%rbp)
    8194:	00 00 00 
    8197:	c7 85 60 ff ff ff 01 	movl   $0x1,-0xa0(%rbp)
    819e:	00 00 00 
    81a1:	c7 85 64 ff ff ff 06 	movl   $0x6,-0x9c(%rbp)
    81a8:	00 00 00 
    81ab:	c7 85 68 ff ff ff 82 	movl   $0x42138682,-0x98(%rbp)
    81b2:	86 13 42 
    81b5:	c7 85 6c ff ff ff 06 	movl   $0x6,-0x94(%rbp)
    81bc:	00 00 00 
    81bf:	c7 85 70 ff ff ff 01 	movl   $0x1,-0x90(%rbp)
    81c6:	00 00 00 
    81c9:	c7 85 74 ff ff ff 06 	movl   $0x6,-0x8c(%rbp)
    81d0:	00 00 00 
    81d3:	c7 85 78 ff ff ff 82 	movl   $0x42138682,-0x88(%rbp)
    81da:	86 13 42 
    81dd:	c7 85 7c ff ff ff 0a 	movl   $0x75a0760a,-0x84(%rbp)
    81e4:	76 a0 75 
    81e7:	c7 45 80 0f f4 f7 ec 	movl   $0xecf7f40f,-0x80(%rbp)
    81ee:	c7 45 84 ff ff ff ff 	movl   $0xffffffff,-0x7c(%rbp)
    81f5:	c7 45 88 ff ff ff ff 	movl   $0xffffffff,-0x78(%rbp)
    81fc:	c7 45 8c 0f f4 f7 ec 	movl   $0xecf7f40f,-0x74(%rbp)
    8203:	c7 45 90 0a 76 a0 75 	movl   $0x75a0760a,-0x70(%rbp)
    820a:	c7 45 94 f8 ff ff ff 	movl   $0xfffffff8,-0x6c(%rbp)
    8211:	c7 45 98 fd ff ff ff 	movl   $0xfffffffd,-0x68(%rbp)
    8218:	c7 45 9c a9 50 9a 59 	movl   $0x599a50a9,-0x64(%rbp)
    821f:	c7 45 a0 fd ff ff ff 	movl   $0xfffffffd,-0x60(%rbp)
    8226:	c7 45 a4 06 00 00 00 	movl   $0x6,-0x5c(%rbp)
    822d:	c7 45 a8 fd ff ff ff 	movl   $0xfffffffd,-0x58(%rbp)
    8234:	c7 45 ac a9 50 9a 59 	movl   $0x599a50a9,-0x54(%rbp)
    823b:	c7 45 b0 fd ff ff ff 	movl   $0xfffffffd,-0x50(%rbp)
    8242:	c7 45 b4 0a 76 a0 75 	movl   $0x75a0760a,-0x4c(%rbp)
    8249:	c7 45 b8 ff ff ff ff 	movl   $0xffffffff,-0x48(%rbp)
    8250:	c7 45 bc f8 ff ff ff 	movl   $0xfffffff8,-0x44(%rbp)
    8257:	c7 45 c0 0f f4 f7 ec 	movl   $0xecf7f40f,-0x40(%rbp)
    825e:	c7 45 c4 0f f4 f7 ec 	movl   $0xecf7f40f,-0x3c(%rbp)
    8265:	c7 45 c8 f8 ff ff ff 	movl   $0xfffffff8,-0x38(%rbp)
    826c:	c7 45 cc ff ff ff ff 	movl   $0xffffffff,-0x34(%rbp)
    8273:	c7 45 d0 01 00 00 00 	movl   $0x1,-0x30(%rbp)
    827a:	c7 45 d4 a9 50 9a 59 	movl   $0x599a50a9,-0x2c(%rbp)
    8281:	c7 45 d8 82 86 13 42 	movl   $0x42138682,-0x28(%rbp)
    8288:	c7 45 dc a9 50 9a 59 	movl   $0x599a50a9,-0x24(%rbp)
    828f:	c7 45 e0 01 00 00 00 	movl   $0x1,-0x20(%rbp)
    8296:	c7 45 e4 a9 50 9a 59 	movl   $0x599a50a9,-0x1c(%rbp)
    829d:	c7 45 e8 82 86 13 42 	movl   $0x42138682,-0x18(%rbp)
    82a4:	c7 85 ec fe ff ff 00 	movl   $0x0,-0x114(%rbp)
    82ab:	00 00 00 
    82ae:	eb 1e                	jmp    82ce <func_63+0x1af>
    82b0:	8b 85 ec fe ff ff    	mov    -0x114(%rbp),%eax
    82b6:	48 98                	cltq   
    82b8:	48 8d 95 e8 fe ff ff 	lea    -0x118(%rbp),%rdx
    82bf:	48 89 94 c5 10 ff ff 	mov    %rdx,-0xf0(%rbp,%rax,8)
    82c6:	ff 
    82c7:	83 85 ec fe ff ff 01 	addl   $0x1,-0x114(%rbp)
    82ce:	83 bd ec fe ff ff 08 	cmpl   $0x8,-0x114(%rbp)
    82d5:	7e d9                	jle    82b0 <func_63+0x191>
    82d7:	83 85 f4 fe ff ff 01 	addl   $0x1,-0x10c(%rbp)
    82de:	8b 85 60 ff ff ff    	mov    -0xa0(%rbp),%eax
    82e4:	83 e8 01             	sub    $0x1,%eax
    82e7:	89 85 60 ff ff ff    	mov    %eax,-0xa0(%rbp)
    82ed:	48 8b 05 ac 61 00 00 	mov    0x61ac(%rip),%rax        # e4a0 <g_68>
    82f4:	8b 00                	mov    (%rax),%eax
    82f6:	48 8b 4d f8          	mov    -0x8(%rbp),%rcx
    82fa:	64 48 33 0c 25 28 00 	xor    %fs:0x28,%rcx
    8301:	00 00 
    8303:	74 05                	je     830a <func_63+0x1eb>
    8305:	e8 66 ad ff ff       	callq  3070 <__stack_chk_fail@plt>
    830a:	c9                   	leaveq 
    830b:	c3                   	retq   

000000000000830c <main>:
    830c:	f3 0f 1e fa          	endbr64 
    8310:	55                   	push   %rbp
    8311:	48 89 e5             	mov    %rsp,%rbp
    8314:	48 83 ec 20          	sub    $0x20,%rsp
    8318:	89 7d ec             	mov    %edi,-0x14(%rbp)
    831b:	48 89 75 e0          	mov    %rsi,-0x20(%rbp)
    831f:	c7 45 fc 00 00 00 00 	movl   $0x0,-0x4(%rbp)
    8326:	83 7d ec 02          	cmpl   $0x2,-0x14(%rbp)
    832a:	74 25                	je     8351 <main+0x45>
    832c:	48 8b 45 e0          	mov    -0x20(%rbp),%rax
    8330:	48 83 c0 08          	add    $0x8,%rax
    8334:	48 8b 00             	mov    (%rax),%rax
    8337:	48 8d 35 86 30 00 00 	lea    0x3086(%rip),%rsi        # b3c4 <g_1874+0x5c4>
    833e:	48 89 c7             	mov    %rax,%rdi
    8341:	e8 4a ad ff ff       	callq  3090 <strcmp@plt>
    8346:	85 c0                	test   %eax,%eax
    8348:	74 07                	je     8351 <main+0x45>
    834a:	c7 45 fc 01 00 00 00 	movl   $0x1,-0x4(%rbp)
    8351:	e8 33 ae ff ff       	callq  3189 <platform_main_begin>
    8356:	e8 3d c2 ff ff       	callq  4598 <crc32_gentab>
    835b:	e8 55 c4 ff ff       	callq  47b5 <func_1>
    8360:	48 8b 05 c1 5c 00 00 	mov    0x5cc1(%rip),%rax        # e028 <g_16>
    8367:	48 89 c1             	mov    %rax,%rcx
    836a:	8b 45 fc             	mov    -0x4(%rbp),%eax
    836d:	89 c2                	mov    %eax,%edx
    836f:	48 8d 35 50 30 00 00 	lea    0x3050(%rip),%rsi        # b3c6 <g_1874+0x5c6>
    8376:	48 89 cf             	mov    %rcx,%rdi
    8379:	e8 75 c3 ff ff       	callq  46f3 <transparent_crc>
    837e:	8b 05 ac 5c 00 00    	mov    0x5cac(%rip),%eax        # e030 <g_23>
    8384:	48 98                	cltq   
    8386:	8b 55 fc             	mov    -0x4(%rbp),%edx
    8389:	48 8d 35 3b 30 00 00 	lea    0x303b(%rip),%rsi        # b3cb <g_1874+0x5cb>
    8390:	48 89 c7             	mov    %rax,%rdi
    8393:	e8 5b c3 ff ff       	callq  46f3 <transparent_crc>
    8398:	b9 09 00 00 00       	mov    $0x9,%ecx
    839d:	8b 45 fc             	mov    -0x4(%rbp),%eax
    83a0:	89 c2                	mov    %eax,%edx
    83a2:	48 8d 35 27 30 00 00 	lea    0x3027(%rip),%rsi        # b3d0 <g_1874+0x5d0>
    83a9:	48 89 cf             	mov    %rcx,%rdi
    83ac:	e8 42 c3 ff ff       	callq  46f3 <transparent_crc>
    83b1:	0f b6 05 f0 6b 00 00 	movzbl 0x6bf0(%rip),%eax        # efa8 <g_100>
    83b8:	0f b6 c0             	movzbl %al,%eax
    83bb:	8b 55 fc             	mov    -0x4(%rbp),%edx
    83be:	48 8d 35 13 30 00 00 	lea    0x3013(%rip),%rsi        # b3d8 <g_1874+0x5d8>
    83c5:	48 89 c7             	mov    %rax,%rdi
    83c8:	e8 26 c3 ff ff       	callq  46f3 <transparent_crc>
    83cd:	8b 05 61 5c 00 00    	mov    0x5c61(%rip),%eax        # e034 <g_121>
    83d3:	48 98                	cltq   
    83d5:	8b 55 fc             	mov    -0x4(%rbp),%edx
    83d8:	48 8d 35 ff 2f 00 00 	lea    0x2fff(%rip),%rsi        # b3de <g_1874+0x5de>
    83df:	48 89 c7             	mov    %rax,%rdi
    83e2:	e8 0c c3 ff ff       	callq  46f3 <transparent_crc>
    83e7:	0f b7 05 4a 5c 00 00 	movzwl 0x5c4a(%rip),%eax        # e038 <g_148>
    83ee:	48 0f bf c0          	movswq %ax,%rax
    83f2:	8b 55 fc             	mov    -0x4(%rbp),%edx
    83f5:	48 8d 35 e8 2f 00 00 	lea    0x2fe8(%rip),%rsi        # b3e4 <g_1874+0x5e4>
    83fc:	48 89 c7             	mov    %rax,%rdi
    83ff:	e8 ef c2 ff ff       	callq  46f3 <transparent_crc>
    8404:	48 8b 05 35 5c 00 00 	mov    0x5c35(%rip),%rax        # e040 <g_162>
    840b:	8b 55 fc             	mov    -0x4(%rbp),%edx
    840e:	48 8d 35 d5 2f 00 00 	lea    0x2fd5(%rip),%rsi        # b3ea <g_1874+0x5ea>
    8415:	48 89 c7             	mov    %rax,%rdi
    8418:	e8 d6 c2 ff ff       	callq  46f3 <transparent_crc>
    841d:	0f b6 05 24 5c 00 00 	movzbl 0x5c24(%rip),%eax        # e048 <g_165>
    8424:	48 0f be c0          	movsbq %al,%rax
    8428:	8b 55 fc             	mov    -0x4(%rbp),%edx
    842b:	48 8d 35 be 2f 00 00 	lea    0x2fbe(%rip),%rsi        # b3f0 <g_1874+0x5f0>
    8432:	48 89 c7             	mov    %rax,%rdi
    8435:	e8 b9 c2 ff ff       	callq  46f3 <transparent_crc>
    843a:	0f b7 05 09 5c 00 00 	movzwl 0x5c09(%rip),%eax        # e04a <g_172>
    8441:	0f b7 c0             	movzwl %ax,%eax
    8444:	8b 55 fc             	mov    -0x4(%rbp),%edx
    8447:	48 8d 35 a8 2f 00 00 	lea    0x2fa8(%rip),%rsi        # b3f6 <g_1874+0x5f6>
    844e:	48 89 c7             	mov    %rax,%rdi
    8451:	e8 9d c2 ff ff       	callq  46f3 <transparent_crc>
    8456:	8b 05 f0 5b 00 00    	mov    0x5bf0(%rip),%eax        # e04c <g_191>
    845c:	48 98                	cltq   
    845e:	8b 55 fc             	mov    -0x4(%rbp),%edx
    8461:	48 8d 35 94 2f 00 00 	lea    0x2f94(%rip),%rsi        # b3fc <g_1874+0x5fc>
    8468:	48 89 c7             	mov    %rax,%rdi
    846b:	e8 83 c2 ff ff       	callq  46f3 <transparent_crc>
    8470:	48 8b 05 d9 5b 00 00 	mov    0x5bd9(%rip),%rax        # e050 <g_196>
    8477:	8b 55 fc             	mov    -0x4(%rbp),%edx
    847a:	48 8d 35 81 2f 00 00 	lea    0x2f81(%rip),%rsi        # b402 <g_1874+0x602>
    8481:	48 89 c7             	mov    %rax,%rdi
    8484:	e8 6a c2 ff ff       	callq  46f3 <transparent_crc>
    8489:	0f b6 05 c8 5b 00 00 	movzbl 0x5bc8(%rip),%eax        # e058 <g_198>
    8490:	0f b6 c0             	movzbl %al,%eax
    8493:	8b 55 fc             	mov    -0x4(%rbp),%edx
    8496:	48 8d 35 6b 2f 00 00 	lea    0x2f6b(%rip),%rsi        # b408 <g_1874+0x608>
    849d:	48 89 c7             	mov    %rax,%rdi
    84a0:	e8 4e c2 ff ff       	callq  46f3 <transparent_crc>
    84a5:	0f b7 05 0c 6b 00 00 	movzwl 0x6b0c(%rip),%eax        # efb8 <g_272>
    84ac:	0f b7 c0             	movzwl %ax,%eax
    84af:	8b 55 fc             	mov    -0x4(%rbp),%edx
    84b2:	48 8d 35 55 2f 00 00 	lea    0x2f55(%rip),%rsi        # b40e <g_1874+0x60e>
    84b9:	48 89 c7             	mov    %rax,%rdi
    84bc:	e8 32 c2 ff ff       	callq  46f3 <transparent_crc>
    84c1:	0f b7 05 92 5b 00 00 	movzwl 0x5b92(%rip),%eax        # e05a <g_296>
    84c8:	0f b7 c0             	movzwl %ax,%eax
    84cb:	8b 55 fc             	mov    -0x4(%rbp),%edx
    84ce:	48 8d 35 3f 2f 00 00 	lea    0x2f3f(%rip),%rsi        # b414 <g_1874+0x614>
    84d5:	48 89 c7             	mov    %rax,%rdi
    84d8:	e8 16 c2 ff ff       	callq  46f3 <transparent_crc>
    84dd:	8b 05 85 5b 00 00    	mov    0x5b85(%rip),%eax        # e068 <g_471>
    84e3:	89 c1                	mov    %eax,%ecx
    84e5:	8b 45 fc             	mov    -0x4(%rbp),%eax
    84e8:	89 c2                	mov    %eax,%edx
    84ea:	48 8d 35 29 2f 00 00 	lea    0x2f29(%rip),%rsi        # b41a <g_1874+0x61a>
    84f1:	48 89 cf             	mov    %rcx,%rdi
    84f4:	e8 fa c1 ff ff       	callq  46f3 <transparent_crc>
    84f9:	0f b6 05 6c 5b 00 00 	movzbl 0x5b6c(%rip),%eax        # e06c <g_496>
    8500:	0f b6 c0             	movzbl %al,%eax
    8503:	8b 55 fc             	mov    -0x4(%rbp),%edx
    8506:	48 8d 35 13 2f 00 00 	lea    0x2f13(%rip),%rsi        # b420 <g_1874+0x620>
    850d:	48 89 c7             	mov    %rax,%rdi
    8510:	e8 de c1 ff ff       	callq  46f3 <transparent_crc>
    8515:	48 8b 05 54 5b 00 00 	mov    0x5b54(%rip),%rax        # e070 <g_578>
    851c:	48 89 c1             	mov    %rax,%rcx
    851f:	8b 45 fc             	mov    -0x4(%rbp),%eax
    8522:	89 c2                	mov    %eax,%edx
    8524:	48 8d 35 fb 2e 00 00 	lea    0x2efb(%rip),%rsi        # b426 <g_1874+0x626>
    852b:	48 89 cf             	mov    %rcx,%rdi
    852e:	e8 c0 c1 ff ff       	callq  46f3 <transparent_crc>
    8533:	48 8b 05 3e 5b 00 00 	mov    0x5b3e(%rip),%rax        # e078 <g_589>
    853a:	48 89 c1             	mov    %rax,%rcx
    853d:	8b 45 fc             	mov    -0x4(%rbp),%eax
    8540:	89 c2                	mov    %eax,%edx
    8542:	48 8d 35 e3 2e 00 00 	lea    0x2ee3(%rip),%rsi        # b42c <g_1874+0x62c>
    8549:	48 89 cf             	mov    %rcx,%rdi
    854c:	e8 a2 c1 ff ff       	callq  46f3 <transparent_crc>
    8551:	48 8b 05 78 6a 00 00 	mov    0x6a78(%rip),%rax        # efd0 <g_670>
    8558:	8b 55 fc             	mov    -0x4(%rbp),%edx
    855b:	48 8d 35 d0 2e 00 00 	lea    0x2ed0(%rip),%rsi        # b432 <g_1874+0x632>
    8562:	48 89 c7             	mov    %rax,%rdi
    8565:	e8 89 c1 ff ff       	callq  46f3 <transparent_crc>
    856a:	48 8b 05 0f 5b 00 00 	mov    0x5b0f(%rip),%rax        # e080 <g_699>
    8571:	48 89 c1             	mov    %rax,%rcx
    8574:	8b 45 fc             	mov    -0x4(%rbp),%eax
    8577:	89 c2                	mov    %eax,%edx
    8579:	48 8d 35 bb 2e 00 00 	lea    0x2ebb(%rip),%rsi        # b43b <g_1874+0x63b>
    8580:	48 89 cf             	mov    %rcx,%rdi
    8583:	e8 6b c1 ff ff       	callq  46f3 <transparent_crc>
    8588:	c7 45 f0 00 00 00 00 	movl   $0x0,-0x10(%rbp)
    858f:	eb 70                	jmp    8601 <main+0x2f5>
    8591:	c7 45 f4 00 00 00 00 	movl   $0x0,-0xc(%rbp)
    8598:	eb 5d                	jmp    85f7 <main+0x2eb>
    859a:	8b 45 f4             	mov    -0xc(%rbp),%eax
    859d:	48 98                	cltq   
    859f:	8b 55 f0             	mov    -0x10(%rbp),%edx
    85a2:	48 63 d2             	movslq %edx,%rdx
    85a5:	48 c1 e2 03          	shl    $0x3,%rdx
    85a9:	48 01 d0             	add    %rdx,%rax
    85ac:	48 8d 14 85 00 00 00 	lea    0x0(,%rax,4),%rdx
    85b3:	00 
    85b4:	48 8d 05 e5 5a 00 00 	lea    0x5ae5(%rip),%rax        # e0a0 <g_750>
    85bb:	8b 04 02             	mov    (%rdx,%rax,1),%eax
    85be:	89 c1                	mov    %eax,%ecx
    85c0:	8b 45 fc             	mov    -0x4(%rbp),%eax
    85c3:	89 c2                	mov    %eax,%edx
    85c5:	48 8d 35 75 2e 00 00 	lea    0x2e75(%rip),%rsi        # b441 <g_1874+0x641>
    85cc:	48 89 cf             	mov    %rcx,%rdi
    85cf:	e8 1f c1 ff ff       	callq  46f3 <transparent_crc>
    85d4:	83 7d fc 00          	cmpl   $0x0,-0x4(%rbp)
    85d8:	74 19                	je     85f3 <main+0x2e7>
    85da:	8b 55 f4             	mov    -0xc(%rbp),%edx
    85dd:	8b 45 f0             	mov    -0x10(%rbp),%eax
    85e0:	89 c6                	mov    %eax,%esi
    85e2:	48 8d 3d 64 2e 00 00 	lea    0x2e64(%rip),%rdi        # b44d <g_1874+0x64d>
    85e9:	b8 00 00 00 00       	mov    $0x0,%eax
    85ee:	e8 8d aa ff ff       	callq  3080 <printf@plt>
    85f3:	83 45 f4 01          	addl   $0x1,-0xc(%rbp)
    85f7:	83 7d f4 07          	cmpl   $0x7,-0xc(%rbp)
    85fb:	7e 9d                	jle    859a <main+0x28e>
    85fd:	83 45 f0 01          	addl   $0x1,-0x10(%rbp)
    8601:	83 7d f0 01          	cmpl   $0x1,-0x10(%rbp)
    8605:	7e 8a                	jle    8591 <main+0x285>
    8607:	8b 05 d3 5a 00 00    	mov    0x5ad3(%rip),%eax        # e0e0 <g_751>
    860d:	89 c1                	mov    %eax,%ecx
    860f:	8b 45 fc             	mov    -0x4(%rbp),%eax
    8612:	89 c2                	mov    %eax,%edx
    8614:	48 8d 35 44 2e 00 00 	lea    0x2e44(%rip),%rsi        # b45f <g_1874+0x65f>
    861b:	48 89 cf             	mov    %rcx,%rdi
    861e:	e8 d0 c0 ff ff       	callq  46f3 <transparent_crc>
    8623:	8b 05 c7 69 00 00    	mov    0x69c7(%rip),%eax        # eff0 <g_900>
    8629:	89 c1                	mov    %eax,%ecx
    862b:	8b 45 fc             	mov    -0x4(%rbp),%eax
    862e:	89 c2                	mov    %eax,%edx
    8630:	48 8d 35 2e 2e 00 00 	lea    0x2e2e(%rip),%rsi        # b465 <g_1874+0x665>
    8637:	48 89 cf             	mov    %rcx,%rdi
    863a:	e8 b4 c0 ff ff       	callq  46f3 <transparent_crc>
    863f:	c7 45 f0 00 00 00 00 	movl   $0x0,-0x10(%rbp)
    8646:	eb 4b                	jmp    8693 <main+0x387>
    8648:	8b 45 f0             	mov    -0x10(%rbp),%eax
    864b:	48 98                	cltq   
    864d:	48 8d 14 85 00 00 00 	lea    0x0(,%rax,4),%rdx
    8654:	00 
    8655:	48 8d 05 9c 69 00 00 	lea    0x699c(%rip),%rax        # eff8 <g_949>
    865c:	8b 04 02             	mov    (%rdx,%rax,1),%eax
    865f:	48 98                	cltq   
    8661:	8b 55 fc             	mov    -0x4(%rbp),%edx
    8664:	48 8d 35 00 2e 00 00 	lea    0x2e00(%rip),%rsi        # b46b <g_1874+0x66b>
    866b:	48 89 c7             	mov    %rax,%rdi
    866e:	e8 80 c0 ff ff       	callq  46f3 <transparent_crc>
    8673:	83 7d fc 00          	cmpl   $0x0,-0x4(%rbp)
    8677:	74 16                	je     868f <main+0x383>
    8679:	8b 45 f0             	mov    -0x10(%rbp),%eax
    867c:	89 c6                	mov    %eax,%esi
    867e:	48 8d 3d ef 2d 00 00 	lea    0x2def(%rip),%rdi        # b474 <g_1874+0x674>
    8685:	b8 00 00 00 00       	mov    $0x0,%eax
    868a:	e8 f1 a9 ff ff       	callq  3080 <printf@plt>
    868f:	83 45 f0 01          	addl   $0x1,-0x10(%rbp)
    8693:	83 7d f0 01          	cmpl   $0x1,-0x10(%rbp)
    8697:	7e af                	jle    8648 <main+0x33c>
    8699:	b8 ff ff ff ff       	mov    $0xffffffff,%eax
    869e:	48 0f be c0          	movsbq %al,%rax
    86a2:	8b 55 fc             	mov    -0x4(%rbp),%edx
    86a5:	48 8d 35 d6 2d 00 00 	lea    0x2dd6(%rip),%rsi        # b482 <g_1874+0x682>
    86ac:	48 89 c7             	mov    %rax,%rdi
    86af:	e8 3f c0 ff ff       	callq  46f3 <transparent_crc>
    86b4:	b8 35 4a c2 b8       	mov    $0xb8c24a35,%eax
    86b9:	48 98                	cltq   
    86bb:	8b 55 fc             	mov    -0x4(%rbp),%edx
    86be:	48 8d 35 c4 2d 00 00 	lea    0x2dc4(%rip),%rsi        # b489 <g_1874+0x689>
    86c5:	48 89 c7             	mov    %rax,%rdi
    86c8:	e8 26 c0 ff ff       	callq  46f3 <transparent_crc>
    86cd:	b9 00 00 00 00       	mov    $0x0,%ecx
    86d2:	8b 45 fc             	mov    -0x4(%rbp),%eax
    86d5:	89 c2                	mov    %eax,%edx
    86d7:	48 8d 35 b2 2d 00 00 	lea    0x2db2(%rip),%rsi        # b490 <g_1874+0x690>
    86de:	48 89 cf             	mov    %rcx,%rdi
    86e1:	e8 0d c0 ff ff       	callq  46f3 <transparent_crc>
    86e6:	48 c7 c1 ff ff ff ff 	mov    $0xffffffffffffffff,%rcx
    86ed:	8b 45 fc             	mov    -0x4(%rbp),%eax
    86f0:	89 c2                	mov    %eax,%edx
    86f2:	48 8d 35 9e 2d 00 00 	lea    0x2d9e(%rip),%rsi        # b497 <g_1874+0x697>
    86f9:	48 89 cf             	mov    %rcx,%rdi
    86fc:	e8 f2 bf ff ff       	callq  46f3 <transparent_crc>
    8701:	c7 45 f0 00 00 00 00 	movl   $0x0,-0x10(%rbp)
    8708:	e9 a3 00 00 00       	jmpq   87b0 <main+0x4a4>
    870d:	c7 45 f4 00 00 00 00 	movl   $0x0,-0xc(%rbp)
    8714:	e9 89 00 00 00       	jmpq   87a2 <main+0x496>
    8719:	c7 45 f8 00 00 00 00 	movl   $0x0,-0x8(%rbp)
    8720:	eb 76                	jmp    8798 <main+0x48c>
    8722:	8b 45 f8             	mov    -0x8(%rbp),%eax
    8725:	48 63 f0             	movslq %eax,%rsi
    8728:	8b 45 f0             	mov    -0x10(%rbp),%eax
    872b:	48 98                	cltq   
    872d:	8b 55 f4             	mov    -0xc(%rbp),%edx
    8730:	48 63 ca             	movslq %edx,%rcx
    8733:	48 89 c2             	mov    %rax,%rdx
    8736:	48 c1 e2 04          	shl    $0x4,%rdx
    873a:	48 29 c2             	sub    %rax,%rdx
    873d:	48 89 c8             	mov    %rcx,%rax
    8740:	48 c1 e0 02          	shl    $0x2,%rax
    8744:	48 01 c8             	add    %rcx,%rax
    8747:	48 01 d0             	add    %rdx,%rax
    874a:	48 01 f0             	add    %rsi,%rax
    874d:	48 8d 14 c5 00 00 00 	lea    0x0(,%rax,8),%rdx
    8754:	00 
    8755:	48 8d 05 24 19 00 00 	lea    0x1924(%rip),%rax        # a080 <g_1165>
    875c:	48 8b 04 02          	mov    (%rdx,%rax,1),%rax
    8760:	8b 55 fc             	mov    -0x4(%rbp),%edx
    8763:	48 8d 35 34 2d 00 00 	lea    0x2d34(%rip),%rsi        # b49e <g_1874+0x69e>
    876a:	48 89 c7             	mov    %rax,%rdi
    876d:	e8 81 bf ff ff       	callq  46f3 <transparent_crc>
    8772:	83 7d fc 00          	cmpl   $0x0,-0x4(%rbp)
    8776:	74 1c                	je     8794 <main+0x488>
    8778:	8b 4d f8             	mov    -0x8(%rbp),%ecx
    877b:	8b 55 f4             	mov    -0xc(%rbp),%edx
    877e:	8b 45 f0             	mov    -0x10(%rbp),%eax
    8781:	89 c6                	mov    %eax,%esi
    8783:	48 8d 3d 24 2d 00 00 	lea    0x2d24(%rip),%rdi        # b4ae <g_1874+0x6ae>
    878a:	b8 00 00 00 00       	mov    $0x0,%eax
    878f:	e8 ec a8 ff ff       	callq  3080 <printf@plt>
    8794:	83 45 f8 01          	addl   $0x1,-0x8(%rbp)
    8798:	83 7d f8 04          	cmpl   $0x4,-0x8(%rbp)
    879c:	7e 84                	jle    8722 <main+0x416>
    879e:	83 45 f4 01          	addl   $0x1,-0xc(%rbp)
    87a2:	83 7d f4 02          	cmpl   $0x2,-0xc(%rbp)
    87a6:	0f 8e 6d ff ff ff    	jle    8719 <main+0x40d>
    87ac:	83 45 f0 01          	addl   $0x1,-0x10(%rbp)
    87b0:	83 7d f0 05          	cmpl   $0x5,-0x10(%rbp)
    87b4:	0f 8e 53 ff ff ff    	jle    870d <main+0x401>
    87ba:	48 b9 2d 53 ff 60 c6 	movabs $0x857099c660ff532d,%rcx
    87c1:	99 70 85 
    87c4:	8b 45 fc             	mov    -0x4(%rbp),%eax
    87c7:	89 c2                	mov    %eax,%edx
    87c9:	48 8d 35 f4 2c 00 00 	lea    0x2cf4(%rip),%rsi        # b4c4 <g_1874+0x6c4>
    87d0:	48 89 cf             	mov    %rcx,%rdi
    87d3:	e8 1b bf ff ff       	callq  46f3 <transparent_crc>
    87d8:	b9 00 00 00 00       	mov    $0x0,%ecx
    87dd:	8b 45 fc             	mov    -0x4(%rbp),%eax
    87e0:	89 c2                	mov    %eax,%edx
    87e2:	48 8d 35 e2 2c 00 00 	lea    0x2ce2(%rip),%rsi        # b4cb <g_1874+0x6cb>
    87e9:	48 89 cf             	mov    %rcx,%rdi
    87ec:	e8 02 bf ff ff       	callq  46f3 <transparent_crc>
    87f1:	48 b9 32 5f df 80 22 	movabs $0x58a64d2280df5f32,%rcx
    87f8:	4d a6 58 
    87fb:	8b 45 fc             	mov    -0x4(%rbp),%eax
    87fe:	89 c2                	mov    %eax,%edx
    8800:	48 8d 35 cb 2c 00 00 	lea    0x2ccb(%rip),%rsi        # b4d2 <g_1874+0x6d2>
    8807:	48 89 cf             	mov    %rcx,%rdi
    880a:	e8 e4 be ff ff       	callq  46f3 <transparent_crc>
    880f:	c7 45 f0 00 00 00 00 	movl   $0x0,-0x10(%rbp)
    8816:	eb 4a                	jmp    8862 <main+0x556>
    8818:	8b 45 f0             	mov    -0x10(%rbp),%eax
    881b:	48 98                	cltq   
    881d:	48 8d 14 c5 00 00 00 	lea    0x0(,%rax,8),%rdx
    8824:	00 
    8825:	48 8d 05 54 1b 00 00 	lea    0x1b54(%rip),%rax        # a380 <g_1169>
    882c:	48 8b 04 02          	mov    (%rdx,%rax,1),%rax
    8830:	8b 55 fc             	mov    -0x4(%rbp),%edx
    8833:	48 8d 35 9f 2c 00 00 	lea    0x2c9f(%rip),%rsi        # b4d9 <g_1874+0x6d9>
    883a:	48 89 c7             	mov    %rax,%rdi
    883d:	e8 b1 be ff ff       	callq  46f3 <transparent_crc>
    8842:	83 7d fc 00          	cmpl   $0x0,-0x4(%rbp)
    8846:	74 16                	je     885e <main+0x552>
    8848:	8b 45 f0             	mov    -0x10(%rbp),%eax
    884b:	89 c6                	mov    %eax,%esi
    884d:	48 8d 3d 20 2c 00 00 	lea    0x2c20(%rip),%rdi        # b474 <g_1874+0x674>
    8854:	b8 00 00 00 00       	mov    $0x0,%eax
    8859:	e8 22 a8 ff ff       	callq  3080 <printf@plt>
    885e:	83 45 f0 01          	addl   $0x1,-0x10(%rbp)
    8862:	83 7d f0 09          	cmpl   $0x9,-0x10(%rbp)
    8866:	7e b0                	jle    8818 <main+0x50c>
    8868:	48 c7 c1 ff ff ff ff 	mov    $0xffffffffffffffff,%rcx
    886f:	8b 45 fc             	mov    -0x4(%rbp),%eax
    8872:	89 c2                	mov    %eax,%edx
    8874:	48 8d 35 68 2c 00 00 	lea    0x2c68(%rip),%rsi        # b4e3 <g_1874+0x6e3>
    887b:	48 89 cf             	mov    %rcx,%rdi
    887e:	e8 70 be ff ff       	callq  46f3 <transparent_crc>
    8883:	48 b9 40 3e 77 54 7d 	movabs $0xd693527d54773e40,%rcx
    888a:	52 93 d6 
    888d:	8b 45 fc             	mov    -0x4(%rbp),%eax
    8890:	89 c2                	mov    %eax,%edx
    8892:	48 8d 35 51 2c 00 00 	lea    0x2c51(%rip),%rsi        # b4ea <g_1874+0x6ea>
    8899:	48 89 cf             	mov    %rcx,%rdi
    889c:	e8 52 be ff ff       	callq  46f3 <transparent_crc>
    88a1:	b9 01 00 00 00       	mov    $0x1,%ecx
    88a6:	8b 45 fc             	mov    -0x4(%rbp),%eax
    88a9:	89 c2                	mov    %eax,%edx
    88ab:	48 8d 35 3f 2c 00 00 	lea    0x2c3f(%rip),%rsi        # b4f1 <g_1874+0x6f1>
    88b2:	48 89 cf             	mov    %rcx,%rdi
    88b5:	e8 39 be ff ff       	callq  46f3 <transparent_crc>
    88ba:	48 b9 43 4c 34 4f 40 	movabs $0x2f7a24404f344c43,%rcx
    88c1:	24 7a 2f 
    88c4:	8b 45 fc             	mov    -0x4(%rbp),%eax
    88c7:	89 c2                	mov    %eax,%edx
    88c9:	48 8d 35 28 2c 00 00 	lea    0x2c28(%rip),%rsi        # b4f8 <g_1874+0x6f8>
    88d0:	48 89 cf             	mov    %rcx,%rdi
    88d3:	e8 1b be ff ff       	callq  46f3 <transparent_crc>
    88d8:	48 c7 c1 ff ff ff ff 	mov    $0xffffffffffffffff,%rcx
    88df:	8b 45 fc             	mov    -0x4(%rbp),%eax
    88e2:	89 c2                	mov    %eax,%edx
    88e4:	48 8d 35 14 2c 00 00 	lea    0x2c14(%rip),%rsi        # b4ff <g_1874+0x6ff>
    88eb:	48 89 cf             	mov    %rcx,%rdi
    88ee:	e8 00 be ff ff       	callq  46f3 <transparent_crc>
    88f3:	48 b9 d6 bb 64 b2 c5 	movabs $0xc9f5aac5b264bbd6,%rcx
    88fa:	aa f5 c9 
    88fd:	8b 45 fc             	mov    -0x4(%rbp),%eax
    8900:	89 c2                	mov    %eax,%edx
    8902:	48 8d 35 fd 2b 00 00 	lea    0x2bfd(%rip),%rsi        # b506 <g_1874+0x706>
    8909:	48 89 cf             	mov    %rcx,%rdi
    890c:	e8 e2 bd ff ff       	callq  46f3 <transparent_crc>
    8911:	48 b9 43 ee f2 69 f1 	movabs $0xb3bf96f169f2ee43,%rcx
    8918:	96 bf b3 
    891b:	8b 45 fc             	mov    -0x4(%rbp),%eax
    891e:	89 c2                	mov    %eax,%edx
    8920:	48 8d 35 e6 2b 00 00 	lea    0x2be6(%rip),%rsi        # b50d <g_1874+0x70d>
    8927:	48 89 cf             	mov    %rcx,%rdi
    892a:	e8 c4 bd ff ff       	callq  46f3 <transparent_crc>
    892f:	48 b9 b0 60 66 1a 6b 	movabs $0xb46ac06b1a6660b0,%rcx
    8936:	c0 6a b4 
    8939:	8b 45 fc             	mov    -0x4(%rbp),%eax
    893c:	89 c2                	mov    %eax,%edx
    893e:	48 8d 35 cf 2b 00 00 	lea    0x2bcf(%rip),%rsi        # b514 <g_1874+0x714>
    8945:	48 89 cf             	mov    %rcx,%rdi
    8948:	e8 a6 bd ff ff       	callq  46f3 <transparent_crc>
    894d:	b9 01 00 00 00       	mov    $0x1,%ecx
    8952:	8b 45 fc             	mov    -0x4(%rbp),%eax
    8955:	89 c2                	mov    %eax,%edx
    8957:	48 8d 35 bd 2b 00 00 	lea    0x2bbd(%rip),%rsi        # b51b <g_1874+0x71b>
    895e:	48 89 cf             	mov    %rcx,%rdi
    8961:	e8 8d bd ff ff       	callq  46f3 <transparent_crc>
    8966:	48 c7 c1 f9 ff ff ff 	mov    $0xfffffffffffffff9,%rcx
    896d:	8b 45 fc             	mov    -0x4(%rbp),%eax
    8970:	89 c2                	mov    %eax,%edx
    8972:	48 8d 35 a9 2b 00 00 	lea    0x2ba9(%rip),%rsi        # b522 <g_1874+0x722>
    8979:	48 89 cf             	mov    %rcx,%rdi
    897c:	e8 72 bd ff ff       	callq  46f3 <transparent_crc>
    8981:	b9 02 00 00 00       	mov    $0x2,%ecx
    8986:	8b 45 fc             	mov    -0x4(%rbp),%eax
    8989:	89 c2                	mov    %eax,%edx
    898b:	48 8d 35 97 2b 00 00 	lea    0x2b97(%rip),%rsi        # b529 <g_1874+0x729>
    8992:	48 89 cf             	mov    %rcx,%rdi
    8995:	e8 59 bd ff ff       	callq  46f3 <transparent_crc>
    899a:	48 c7 c1 ff ff ff ff 	mov    $0xffffffffffffffff,%rcx
    89a1:	8b 45 fc             	mov    -0x4(%rbp),%eax
    89a4:	89 c2                	mov    %eax,%edx
    89a6:	48 8d 35 83 2b 00 00 	lea    0x2b83(%rip),%rsi        # b530 <g_1874+0x730>
    89ad:	48 89 cf             	mov    %rcx,%rdi
    89b0:	e8 3e bd ff ff       	callq  46f3 <transparent_crc>
    89b5:	c7 45 f0 00 00 00 00 	movl   $0x0,-0x10(%rbp)
    89bc:	eb 4a                	jmp    8a08 <main+0x6fc>
    89be:	8b 45 f0             	mov    -0x10(%rbp),%eax
    89c1:	48 98                	cltq   
    89c3:	48 8d 14 c5 00 00 00 	lea    0x0(,%rax,8),%rdx
    89ca:	00 
    89cb:	48 8d 05 6e 1a 00 00 	lea    0x1a6e(%rip),%rax        # a440 <g_1182>
    89d2:	48 8b 04 02          	mov    (%rdx,%rax,1),%rax
    89d6:	8b 55 fc             	mov    -0x4(%rbp),%edx
    89d9:	48 8d 35 57 2b 00 00 	lea    0x2b57(%rip),%rsi        # b537 <g_1874+0x737>
    89e0:	48 89 c7             	mov    %rax,%rdi
    89e3:	e8 0b bd ff ff       	callq  46f3 <transparent_crc>
    89e8:	83 7d fc 00          	cmpl   $0x0,-0x4(%rbp)
    89ec:	74 16                	je     8a04 <main+0x6f8>
    89ee:	8b 45 f0             	mov    -0x10(%rbp),%eax
    89f1:	89 c6                	mov    %eax,%esi
    89f3:	48 8d 3d 7a 2a 00 00 	lea    0x2a7a(%rip),%rdi        # b474 <g_1874+0x674>
    89fa:	b8 00 00 00 00       	mov    $0x0,%eax
    89ff:	e8 7c a6 ff ff       	callq  3080 <printf@plt>
    8a04:	83 45 f0 01          	addl   $0x1,-0x10(%rbp)
    8a08:	83 7d f0 05          	cmpl   $0x5,-0x10(%rbp)
    8a0c:	7e b0                	jle    89be <main+0x6b2>
    8a0e:	b9 00 00 00 00       	mov    $0x0,%ecx
    8a13:	8b 45 fc             	mov    -0x4(%rbp),%eax
    8a16:	89 c2                	mov    %eax,%edx
    8a18:	48 8d 35 22 2b 00 00 	lea    0x2b22(%rip),%rsi        # b541 <g_1874+0x741>
    8a1f:	48 89 cf             	mov    %rcx,%rdi
    8a22:	e8 cc bc ff ff       	callq  46f3 <transparent_crc>
    8a27:	b9 01 00 00 00       	mov    $0x1,%ecx
    8a2c:	8b 45 fc             	mov    -0x4(%rbp),%eax
    8a2f:	89 c2                	mov    %eax,%edx
    8a31:	48 8d 35 10 2b 00 00 	lea    0x2b10(%rip),%rsi        # b548 <g_1874+0x748>
    8a38:	48 89 cf             	mov    %rcx,%rdi
    8a3b:	e8 b3 bc ff ff       	callq  46f3 <transparent_crc>
    8a40:	48 c7 c1 ff ff ff ff 	mov    $0xffffffffffffffff,%rcx
    8a47:	8b 45 fc             	mov    -0x4(%rbp),%eax
    8a4a:	89 c2                	mov    %eax,%edx
    8a4c:	48 8d 35 fc 2a 00 00 	lea    0x2afc(%rip),%rsi        # b54f <g_1874+0x74f>
    8a53:	48 89 cf             	mov    %rcx,%rdi
    8a56:	e8 98 bc ff ff       	callq  46f3 <transparent_crc>
    8a5b:	48 c7 c1 fd ff ff ff 	mov    $0xfffffffffffffffd,%rcx
    8a62:	8b 45 fc             	mov    -0x4(%rbp),%eax
    8a65:	89 c2                	mov    %eax,%edx
    8a67:	48 8d 35 e8 2a 00 00 	lea    0x2ae8(%rip),%rsi        # b556 <g_1874+0x756>
    8a6e:	48 89 cf             	mov    %rcx,%rdi
    8a71:	e8 7d bc ff ff       	callq  46f3 <transparent_crc>
    8a76:	c7 45 f0 00 00 00 00 	movl   $0x0,-0x10(%rbp)
    8a7d:	eb 6d                	jmp    8aec <main+0x7e0>
    8a7f:	c7 45 f4 00 00 00 00 	movl   $0x0,-0xc(%rbp)
    8a86:	eb 5a                	jmp    8ae2 <main+0x7d6>
    8a88:	8b 45 f4             	mov    -0xc(%rbp),%eax
    8a8b:	48 98                	cltq   
    8a8d:	8b 55 f0             	mov    -0x10(%rbp),%edx
    8a90:	48 63 d2             	movslq %edx,%rdx
    8a93:	48 c1 e2 03          	shl    $0x3,%rdx
    8a97:	48 01 d0             	add    %rdx,%rax
    8a9a:	48 8d 14 c5 00 00 00 	lea    0x0(,%rax,8),%rdx
    8aa1:	00 
    8aa2:	48 8d 05 f7 19 00 00 	lea    0x19f7(%rip),%rax        # a4a0 <g_1187>
    8aa9:	48 8b 04 02          	mov    (%rdx,%rax,1),%rax
    8aad:	8b 55 fc             	mov    -0x4(%rbp),%edx
    8ab0:	48 8d 35 a6 2a 00 00 	lea    0x2aa6(%rip),%rsi        # b55d <g_1874+0x75d>
    8ab7:	48 89 c7             	mov    %rax,%rdi
    8aba:	e8 34 bc ff ff       	callq  46f3 <transparent_crc>
    8abf:	83 7d fc 00          	cmpl   $0x0,-0x4(%rbp)
    8ac3:	74 19                	je     8ade <main+0x7d2>
    8ac5:	8b 55 f4             	mov    -0xc(%rbp),%edx
    8ac8:	8b 45 f0             	mov    -0x10(%rbp),%eax
    8acb:	89 c6                	mov    %eax,%esi
    8acd:	48 8d 3d 79 29 00 00 	lea    0x2979(%rip),%rdi        # b44d <g_1874+0x64d>
    8ad4:	b8 00 00 00 00       	mov    $0x0,%eax
    8ad9:	e8 a2 a5 ff ff       	callq  3080 <printf@plt>
    8ade:	83 45 f4 01          	addl   $0x1,-0xc(%rbp)
    8ae2:	83 7d f4 07          	cmpl   $0x7,-0xc(%rbp)
    8ae6:	7e a0                	jle    8a88 <main+0x77c>
    8ae8:	83 45 f0 01          	addl   $0x1,-0x10(%rbp)
    8aec:	83 7d f0 02          	cmpl   $0x2,-0x10(%rbp)
    8af0:	7e 8d                	jle    8a7f <main+0x773>
    8af2:	c7 45 f0 00 00 00 00 	movl   $0x0,-0x10(%rbp)
    8af9:	eb 4a                	jmp    8b45 <main+0x839>
    8afb:	8b 45 f0             	mov    -0x10(%rbp),%eax
    8afe:	48 98                	cltq   
    8b00:	48 8d 14 c5 00 00 00 	lea    0x0(,%rax,8),%rdx
    8b07:	00 
    8b08:	48 8d 05 51 1a 00 00 	lea    0x1a51(%rip),%rax        # a560 <g_1188>
    8b0f:	48 8b 04 02          	mov    (%rdx,%rax,1),%rax
    8b13:	8b 55 fc             	mov    -0x4(%rbp),%edx
    8b16:	48 8d 35 4d 2a 00 00 	lea    0x2a4d(%rip),%rsi        # b56a <g_1874+0x76a>
    8b1d:	48 89 c7             	mov    %rax,%rdi
    8b20:	e8 ce bb ff ff       	callq  46f3 <transparent_crc>
    8b25:	83 7d fc 00          	cmpl   $0x0,-0x4(%rbp)
    8b29:	74 16                	je     8b41 <main+0x835>
    8b2b:	8b 45 f0             	mov    -0x10(%rbp),%eax
    8b2e:	89 c6                	mov    %eax,%esi
    8b30:	48 8d 3d 3d 29 00 00 	lea    0x293d(%rip),%rdi        # b474 <g_1874+0x674>
    8b37:	b8 00 00 00 00       	mov    $0x0,%eax
    8b3c:	e8 3f a5 ff ff       	callq  3080 <printf@plt>
    8b41:	83 45 f0 01          	addl   $0x1,-0x10(%rbp)
    8b45:	83 7d f0 07          	cmpl   $0x7,-0x10(%rbp)
    8b49:	7e b0                	jle    8afb <main+0x7ef>
    8b4b:	c7 45 f0 00 00 00 00 	movl   $0x0,-0x10(%rbp)
    8b52:	e9 9e 00 00 00       	jmpq   8bf5 <main+0x8e9>
    8b57:	c7 45 f4 00 00 00 00 	movl   $0x0,-0xc(%rbp)
    8b5e:	e9 84 00 00 00       	jmpq   8be7 <main+0x8db>
    8b63:	c7 45 f8 00 00 00 00 	movl   $0x0,-0x8(%rbp)
    8b6a:	eb 71                	jmp    8bdd <main+0x8d1>
    8b6c:	8b 45 f8             	mov    -0x8(%rbp),%eax
    8b6f:	48 63 c8             	movslq %eax,%rcx
    8b72:	8b 45 f0             	mov    -0x10(%rbp),%eax
    8b75:	48 63 d0             	movslq %eax,%rdx
    8b78:	8b 45 f4             	mov    -0xc(%rbp),%eax
    8b7b:	48 63 f0             	movslq %eax,%rsi
    8b7e:	48 89 d0             	mov    %rdx,%rax
    8b81:	48 c1 e0 03          	shl    $0x3,%rax
    8b85:	48 01 d0             	add    %rdx,%rax
    8b88:	48 01 f0             	add    %rsi,%rax
    8b8b:	48 c1 e0 02          	shl    $0x2,%rax
    8b8f:	48 01 c8             	add    %rcx,%rax
    8b92:	48 8d 14 c5 00 00 00 	lea    0x0(,%rax,8),%rdx
    8b99:	00 
    8b9a:	48 8d 05 ff 19 00 00 	lea    0x19ff(%rip),%rax        # a5a0 <g_1189>
    8ba1:	48 8b 04 02          	mov    (%rdx,%rax,1),%rax
    8ba5:	8b 55 fc             	mov    -0x4(%rbp),%edx
    8ba8:	48 8d 35 c5 29 00 00 	lea    0x29c5(%rip),%rsi        # b574 <g_1874+0x774>
    8baf:	48 89 c7             	mov    %rax,%rdi
    8bb2:	e8 3c bb ff ff       	callq  46f3 <transparent_crc>
    8bb7:	83 7d fc 00          	cmpl   $0x0,-0x4(%rbp)
    8bbb:	74 1c                	je     8bd9 <main+0x8cd>
    8bbd:	8b 4d f8             	mov    -0x8(%rbp),%ecx
    8bc0:	8b 55 f4             	mov    -0xc(%rbp),%edx
    8bc3:	8b 45 f0             	mov    -0x10(%rbp),%eax
    8bc6:	89 c6                	mov    %eax,%esi
    8bc8:	48 8d 3d df 28 00 00 	lea    0x28df(%rip),%rdi        # b4ae <g_1874+0x6ae>
    8bcf:	b8 00 00 00 00       	mov    $0x0,%eax
    8bd4:	e8 a7 a4 ff ff       	callq  3080 <printf@plt>
    8bd9:	83 45 f8 01          	addl   $0x1,-0x8(%rbp)
    8bdd:	83 7d f8 03          	cmpl   $0x3,-0x8(%rbp)
    8be1:	7e 89                	jle    8b6c <main+0x860>
    8be3:	83 45 f4 01          	addl   $0x1,-0xc(%rbp)
    8be7:	83 7d f4 08          	cmpl   $0x8,-0xc(%rbp)
    8beb:	0f 8e 72 ff ff ff    	jle    8b63 <main+0x857>
    8bf1:	83 45 f0 01          	addl   $0x1,-0x10(%rbp)
    8bf5:	83 7d f0 06          	cmpl   $0x6,-0x10(%rbp)
    8bf9:	0f 8e 58 ff ff ff    	jle    8b57 <main+0x84b>
    8bff:	c7 45 f0 00 00 00 00 	movl   $0x0,-0x10(%rbp)
    8c06:	eb 73                	jmp    8c7b <main+0x96f>
    8c08:	c7 45 f4 00 00 00 00 	movl   $0x0,-0xc(%rbp)
    8c0f:	eb 60                	jmp    8c71 <main+0x965>
    8c11:	8b 45 f4             	mov    -0xc(%rbp),%eax
    8c14:	48 63 c8             	movslq %eax,%rcx
    8c17:	8b 45 f0             	mov    -0x10(%rbp),%eax
    8c1a:	48 63 d0             	movslq %eax,%rdx
    8c1d:	48 89 d0             	mov    %rdx,%rax
    8c20:	48 01 c0             	add    %rax,%rax
    8c23:	48 01 d0             	add    %rdx,%rax
    8c26:	48 01 c8             	add    %rcx,%rax
    8c29:	48 8d 14 c5 00 00 00 	lea    0x0(,%rax,8),%rdx
    8c30:	00 
    8c31:	48 8d 05 48 21 00 00 	lea    0x2148(%rip),%rax        # ad80 <g_1190>
    8c38:	48 8b 04 02          	mov    (%rdx,%rax,1),%rax
    8c3c:	8b 55 fc             	mov    -0x4(%rbp),%edx
    8c3f:	48 8d 35 3e 29 00 00 	lea    0x293e(%rip),%rsi        # b584 <g_1874+0x784>
    8c46:	48 89 c7             	mov    %rax,%rdi
    8c49:	e8 a5 ba ff ff       	callq  46f3 <transparent_crc>
    8c4e:	83 7d fc 00          	cmpl   $0x0,-0x4(%rbp)
    8c52:	74 19                	je     8c6d <main+0x961>
    8c54:	8b 55 f4             	mov    -0xc(%rbp),%edx
    8c57:	8b 45 f0             	mov    -0x10(%rbp),%eax
    8c5a:	89 c6                	mov    %eax,%esi
    8c5c:	48 8d 3d ea 27 00 00 	lea    0x27ea(%rip),%rdi        # b44d <g_1874+0x64d>
    8c63:	b8 00 00 00 00       	mov    $0x0,%eax
    8c68:	e8 13 a4 ff ff       	callq  3080 <printf@plt>
    8c6d:	83 45 f4 01          	addl   $0x1,-0xc(%rbp)
    8c71:	83 7d f4 02          	cmpl   $0x2,-0xc(%rbp)
    8c75:	7e 9a                	jle    8c11 <main+0x905>
    8c77:	83 45 f0 01          	addl   $0x1,-0x10(%rbp)
    8c7b:	83 7d f0 02          	cmpl   $0x2,-0x10(%rbp)
    8c7f:	7e 87                	jle    8c08 <main+0x8fc>
    8c81:	b9 01 00 00 00       	mov    $0x1,%ecx
    8c86:	8b 45 fc             	mov    -0x4(%rbp),%eax
    8c89:	89 c2                	mov    %eax,%edx
    8c8b:	48 8d 35 ff 28 00 00 	lea    0x28ff(%rip),%rsi        # b591 <g_1874+0x791>
    8c92:	48 89 cf             	mov    %rcx,%rdi
    8c95:	e8 59 ba ff ff       	callq  46f3 <transparent_crc>
    8c9a:	b9 04 00 00 00       	mov    $0x4,%ecx
    8c9f:	8b 45 fc             	mov    -0x4(%rbp),%eax
    8ca2:	89 c2                	mov    %eax,%edx
    8ca4:	48 8d 35 ed 28 00 00 	lea    0x28ed(%rip),%rsi        # b598 <g_1874+0x798>
    8cab:	48 89 cf             	mov    %rcx,%rdi
    8cae:	e8 40 ba ff ff       	callq  46f3 <transparent_crc>
    8cb3:	b9 05 00 00 00       	mov    $0x5,%ecx
    8cb8:	8b 45 fc             	mov    -0x4(%rbp),%eax
    8cbb:	89 c2                	mov    %eax,%edx
    8cbd:	48 8d 35 db 28 00 00 	lea    0x28db(%rip),%rsi        # b59f <g_1874+0x79f>
    8cc4:	48 89 cf             	mov    %rcx,%rdi
    8cc7:	e8 27 ba ff ff       	callq  46f3 <transparent_crc>
    8ccc:	b9 01 00 00 00       	mov    $0x1,%ecx
    8cd1:	8b 45 fc             	mov    -0x4(%rbp),%eax
    8cd4:	89 c2                	mov    %eax,%edx
    8cd6:	48 8d 35 c9 28 00 00 	lea    0x28c9(%rip),%rsi        # b5a6 <g_1874+0x7a6>
    8cdd:	48 89 cf             	mov    %rcx,%rdi
    8ce0:	e8 0e ba ff ff       	callq  46f3 <transparent_crc>
    8ce5:	48 b9 f4 c8 0c c0 ce 	movabs $0x7ae7d9cec00cc8f4,%rcx
    8cec:	d9 e7 7a 
    8cef:	8b 45 fc             	mov    -0x4(%rbp),%eax
    8cf2:	89 c2                	mov    %eax,%edx
    8cf4:	48 8d 35 b2 28 00 00 	lea    0x28b2(%rip),%rsi        # b5ad <g_1874+0x7ad>
    8cfb:	48 89 cf             	mov    %rcx,%rdi
    8cfe:	e8 f0 b9 ff ff       	callq  46f3 <transparent_crc>
    8d03:	48 b9 6f db d4 3b 85 	movabs $0xb89c08853bd4db6f,%rcx
    8d0a:	08 9c b8 
    8d0d:	8b 45 fc             	mov    -0x4(%rbp),%eax
    8d10:	89 c2                	mov    %eax,%edx
    8d12:	48 8d 35 9b 28 00 00 	lea    0x289b(%rip),%rsi        # b5b4 <g_1874+0x7b4>
    8d19:	48 89 cf             	mov    %rcx,%rdi
    8d1c:	e8 d2 b9 ff ff       	callq  46f3 <transparent_crc>
    8d21:	48 b9 94 7a 85 ba fd 	movabs $0xf1bc9fdba857a94,%rcx
    8d28:	c9 1b 0f 
    8d2b:	8b 45 fc             	mov    -0x4(%rbp),%eax
    8d2e:	89 c2                	mov    %eax,%edx
    8d30:	48 8d 35 84 28 00 00 	lea    0x2884(%rip),%rsi        # b5bb <g_1874+0x7bb>
    8d37:	48 89 cf             	mov    %rcx,%rdi
    8d3a:	e8 b4 b9 ff ff       	callq  46f3 <transparent_crc>
    8d3f:	c7 45 f0 00 00 00 00 	movl   $0x0,-0x10(%rbp)
    8d46:	eb 75                	jmp    8dbd <main+0xab1>
    8d48:	c7 45 f4 00 00 00 00 	movl   $0x0,-0xc(%rbp)
    8d4f:	eb 62                	jmp    8db3 <main+0xaa7>
    8d51:	8b 45 f4             	mov    -0xc(%rbp),%eax
    8d54:	48 63 c8             	movslq %eax,%rcx
    8d57:	8b 45 f0             	mov    -0x10(%rbp),%eax
    8d5a:	48 63 d0             	movslq %eax,%rdx
    8d5d:	48 89 d0             	mov    %rdx,%rax
    8d60:	48 c1 e0 02          	shl    $0x2,%rax
    8d64:	48 01 d0             	add    %rdx,%rax
    8d67:	48 01 c0             	add    %rax,%rax
    8d6a:	48 8d 14 08          	lea    (%rax,%rcx,1),%rdx
    8d6e:	48 8d 05 8b 53 00 00 	lea    0x538b(%rip),%rax        # e100 <g_1402>
    8d75:	48 01 d0             	add    %rdx,%rax
    8d78:	0f b6 00             	movzbl (%rax),%eax
    8d7b:	0f b6 c0             	movzbl %al,%eax
    8d7e:	8b 55 fc             	mov    -0x4(%rbp),%edx
    8d81:	48 8d 35 3a 28 00 00 	lea    0x283a(%rip),%rsi        # b5c2 <g_1874+0x7c2>
    8d88:	48 89 c7             	mov    %rax,%rdi
    8d8b:	e8 63 b9 ff ff       	callq  46f3 <transparent_crc>
    8d90:	83 7d fc 00          	cmpl   $0x0,-0x4(%rbp)
    8d94:	74 19                	je     8daf <main+0xaa3>
    8d96:	8b 55 f4             	mov    -0xc(%rbp),%edx
    8d99:	8b 45 f0             	mov    -0x10(%rbp),%eax
    8d9c:	89 c6                	mov    %eax,%esi
    8d9e:	48 8d 3d a8 26 00 00 	lea    0x26a8(%rip),%rdi        # b44d <g_1874+0x64d>
    8da5:	b8 00 00 00 00       	mov    $0x0,%eax
    8daa:	e8 d1 a2 ff ff       	callq  3080 <printf@plt>
    8daf:	83 45 f4 01          	addl   $0x1,-0xc(%rbp)
    8db3:	83 7d f4 09          	cmpl   $0x9,-0xc(%rbp)
    8db7:	7e 98                	jle    8d51 <main+0xa45>
    8db9:	83 45 f0 01          	addl   $0x1,-0x10(%rbp)
    8dbd:	83 7d f0 04          	cmpl   $0x4,-0x10(%rbp)
    8dc1:	7e 85                	jle    8d48 <main+0xa3c>
    8dc3:	0f b6 05 68 53 00 00 	movzbl 0x5368(%rip),%eax        # e132 <g_1419>
    8dca:	0f b6 c0             	movzbl %al,%eax
    8dcd:	8b 55 fc             	mov    -0x4(%rbp),%edx
    8dd0:	48 8d 35 f8 27 00 00 	lea    0x27f8(%rip),%rsi        # b5cf <g_1874+0x7cf>
    8dd7:	48 89 c7             	mov    %rax,%rdi
    8dda:	e8 14 b9 ff ff       	callq  46f3 <transparent_crc>
    8ddf:	0f b6 05 4d 53 00 00 	movzbl 0x534d(%rip),%eax        # e133 <g_1497>
    8de6:	48 0f be c0          	movsbq %al,%rax
    8dea:	8b 55 fc             	mov    -0x4(%rbp),%edx
    8ded:	48 8d 35 e2 27 00 00 	lea    0x27e2(%rip),%rsi        # b5d6 <g_1874+0x7d6>
    8df4:	48 89 c7             	mov    %rax,%rdi
    8df7:	e8 f7 b8 ff ff       	callq  46f3 <transparent_crc>
    8dfc:	c7 45 f0 00 00 00 00 	movl   $0x0,-0x10(%rbp)
    8e03:	e9 92 00 00 00       	jmpq   8e9a <main+0xb8e>
    8e08:	c7 45 f4 00 00 00 00 	movl   $0x0,-0xc(%rbp)
    8e0f:	eb 7b                	jmp    8e8c <main+0xb80>
    8e11:	c7 45 f8 00 00 00 00 	movl   $0x0,-0x8(%rbp)
    8e18:	eb 68                	jmp    8e82 <main+0xb76>
    8e1a:	8b 45 f8             	mov    -0x8(%rbp),%eax
    8e1d:	48 98                	cltq   
    8e1f:	8b 55 f0             	mov    -0x10(%rbp),%edx
    8e22:	48 63 ca             	movslq %edx,%rcx
    8e25:	8b 55 f4             	mov    -0xc(%rbp),%edx
    8e28:	48 63 d2             	movslq %edx,%rdx
    8e2b:	48 c1 e1 03          	shl    $0x3,%rcx
    8e2f:	48 01 ca             	add    %rcx,%rdx
    8e32:	48 c1 e2 02          	shl    $0x2,%rdx
    8e36:	48 01 c2             	add    %rax,%rdx
    8e39:	48 8d 05 00 53 00 00 	lea    0x5300(%rip),%rax        # e140 <g_1498>
    8e40:	48 01 d0             	add    %rdx,%rax
    8e43:	0f b6 00             	movzbl (%rax),%eax
    8e46:	48 0f be c0          	movsbq %al,%rax
    8e4a:	8b 55 fc             	mov    -0x4(%rbp),%edx
    8e4d:	48 8d 35 89 27 00 00 	lea    0x2789(%rip),%rsi        # b5dd <g_1874+0x7dd>
    8e54:	48 89 c7             	mov    %rax,%rdi
    8e57:	e8 97 b8 ff ff       	callq  46f3 <transparent_crc>
    8e5c:	83 7d fc 00          	cmpl   $0x0,-0x4(%rbp)
    8e60:	74 1c                	je     8e7e <main+0xb72>
    8e62:	8b 4d f8             	mov    -0x8(%rbp),%ecx
    8e65:	8b 55 f4             	mov    -0xc(%rbp),%edx
    8e68:	8b 45 f0             	mov    -0x10(%rbp),%eax
    8e6b:	89 c6                	mov    %eax,%esi
    8e6d:	48 8d 3d 3a 26 00 00 	lea    0x263a(%rip),%rdi        # b4ae <g_1874+0x6ae>
    8e74:	b8 00 00 00 00       	mov    $0x0,%eax
    8e79:	e8 02 a2 ff ff       	callq  3080 <printf@plt>
    8e7e:	83 45 f8 01          	addl   $0x1,-0x8(%rbp)
    8e82:	83 7d f8 03          	cmpl   $0x3,-0x8(%rbp)
    8e86:	7e 92                	jle    8e1a <main+0xb0e>
    8e88:	83 45 f4 01          	addl   $0x1,-0xc(%rbp)
    8e8c:	83 7d f4 07          	cmpl   $0x7,-0xc(%rbp)
    8e90:	0f 8e 7b ff ff ff    	jle    8e11 <main+0xb05>
    8e96:	83 45 f0 01          	addl   $0x1,-0x10(%rbp)
    8e9a:	83 7d f0 07          	cmpl   $0x7,-0x10(%rbp)
    8e9e:	0f 8e 64 ff ff ff    	jle    8e08 <main+0xafc>
    8ea4:	48 8b 05 95 53 00 00 	mov    0x5395(%rip),%rax        # e240 <g_1540>
    8eab:	8b 55 fc             	mov    -0x4(%rbp),%edx
    8eae:	48 8d 35 38 27 00 00 	lea    0x2738(%rip),%rsi        # b5ed <g_1874+0x7ed>
    8eb5:	48 89 c7             	mov    %rax,%rdi
    8eb8:	e8 36 b8 ff ff       	callq  46f3 <transparent_crc>
    8ebd:	48 8b 05 8c 53 00 00 	mov    0x538c(%rip),%rax        # e250 <g_1866>
    8ec4:	48 89 c1             	mov    %rax,%rcx
    8ec7:	8b 45 fc             	mov    -0x4(%rbp),%eax
    8eca:	89 c2                	mov    %eax,%edx
    8ecc:	48 8d 35 21 27 00 00 	lea    0x2721(%rip),%rsi        # b5f4 <g_1874+0x7f4>
    8ed3:	48 89 cf             	mov    %rcx,%rdi
    8ed6:	e8 18 b8 ff ff       	callq  46f3 <transparent_crc>
    8edb:	c7 45 f0 00 00 00 00 	movl   $0x0,-0x10(%rbp)
    8ee2:	e9 af 00 00 00       	jmpq   8f96 <main+0xc8a>
    8ee7:	c7 45 f4 00 00 00 00 	movl   $0x0,-0xc(%rbp)
    8eee:	e9 95 00 00 00       	jmpq   8f88 <main+0xc7c>
    8ef3:	c7 45 f8 00 00 00 00 	movl   $0x0,-0x8(%rbp)
    8efa:	eb 7e                	jmp    8f7a <main+0xc6e>
    8efc:	8b 45 f8             	mov    -0x8(%rbp),%eax
    8eff:	48 63 f0             	movslq %eax,%rsi
    8f02:	8b 45 f0             	mov    -0x10(%rbp),%eax
    8f05:	48 63 d0             	movslq %eax,%rdx
    8f08:	8b 45 f4             	mov    -0xc(%rbp),%eax
    8f0b:	48 63 c8             	movslq %eax,%rcx
    8f0e:	48 89 d0             	mov    %rdx,%rax
    8f11:	48 c1 e0 02          	shl    $0x2,%rax
    8f15:	48 01 d0             	add    %rdx,%rax
    8f18:	48 c1 e0 02          	shl    $0x2,%rax
    8f1c:	48 89 ca             	mov    %rcx,%rdx
    8f1f:	48 c1 e2 02          	shl    $0x2,%rdx
    8f23:	48 01 ca             	add    %rcx,%rdx
    8f26:	48 01 d0             	add    %rdx,%rax
    8f29:	48 01 f0             	add    %rsi,%rax
    8f2c:	48 8d 14 85 00 00 00 	lea    0x0(,%rax,4),%rdx
    8f33:	00 
    8f34:	48 8d 05 25 53 00 00 	lea    0x5325(%rip),%rax        # e260 <g_1869>
    8f3b:	8b 04 02             	mov    (%rdx,%rax,1),%eax
    8f3e:	89 c1                	mov    %eax,%ecx
    8f40:	8b 45 fc             	mov    -0x4(%rbp),%eax
    8f43:	89 c2                	mov    %eax,%edx
    8f45:	48 8d 35 af 26 00 00 	lea    0x26af(%rip),%rsi        # b5fb <g_1874+0x7fb>
    8f4c:	48 89 cf             	mov    %rcx,%rdi
    8f4f:	e8 9f b7 ff ff       	callq  46f3 <transparent_crc>
    8f54:	83 7d fc 00          	cmpl   $0x0,-0x4(%rbp)
    8f58:	74 1c                	je     8f76 <main+0xc6a>
    8f5a:	8b 4d f8             	mov    -0x8(%rbp),%ecx
    8f5d:	8b 55 f4             	mov    -0xc(%rbp),%edx
    8f60:	8b 45 f0             	mov    -0x10(%rbp),%eax
    8f63:	89 c6                	mov    %eax,%esi
    8f65:	48 8d 3d 42 25 00 00 	lea    0x2542(%rip),%rdi        # b4ae <g_1874+0x6ae>
    8f6c:	b8 00 00 00 00       	mov    $0x0,%eax
    8f71:	e8 0a a1 ff ff       	callq  3080 <printf@plt>
    8f76:	83 45 f8 01          	addl   $0x1,-0x8(%rbp)
    8f7a:	83 7d f8 04          	cmpl   $0x4,-0x8(%rbp)
    8f7e:	0f 8e 78 ff ff ff    	jle    8efc <main+0xbf0>
    8f84:	83 45 f4 01          	addl   $0x1,-0xc(%rbp)
    8f88:	83 7d f4 03          	cmpl   $0x3,-0xc(%rbp)
    8f8c:	0f 8e 61 ff ff ff    	jle    8ef3 <main+0xbe7>
    8f92:	83 45 f0 01          	addl   $0x1,-0x10(%rbp)
    8f96:	83 7d f0 06          	cmpl   $0x6,-0x10(%rbp)
    8f9a:	0f 8e 47 ff ff ff    	jle    8ee7 <main+0xbdb>
    8fa0:	b8 04 00 00 00       	mov    $0x4,%eax
    8fa5:	48 0f bf c0          	movswq %ax,%rax
    8fa9:	8b 55 fc             	mov    -0x4(%rbp),%edx
    8fac:	48 8d 35 58 26 00 00 	lea    0x2658(%rip),%rsi        # b60b <g_1874+0x80b>
    8fb3:	48 89 c7             	mov    %rax,%rdi
    8fb6:	e8 38 b7 ff ff       	callq  46f3 <transparent_crc>
    8fbb:	8b 05 5f 50 00 00    	mov    0x505f(%rip),%eax        # e020 <crc32_context>
    8fc1:	f7 d0                	not    %eax
    8fc3:	89 c2                	mov    %eax,%edx
    8fc5:	8b 45 fc             	mov    -0x4(%rbp),%eax
    8fc8:	89 c6                	mov    %eax,%esi
    8fca:	89 d7                	mov    %edx,%edi
    8fcc:	e8 c3 a1 ff ff       	callq  3194 <platform_main_end>
    8fd1:	b8 00 00 00 00       	mov    $0x0,%eax
    8fd6:	c9                   	leaveq 
    8fd7:	c3                   	retq   
    8fd8:	0f 1f 84 00 00 00 00 	nopl   0x0(%rax,%rax,1)
    8fdf:	00 

0000000000008fe0 <__libc_csu_init>:
    8fe0:	f3 0f 1e fa          	endbr64 
    8fe4:	41 57                	push   %r15
    8fe6:	4c 8d 3d 23 4a 00 00 	lea    0x4a23(%rip),%r15        # da10 <__frame_dummy_init_array_entry>
    8fed:	41 56                	push   %r14
    8fef:	49 89 d6             	mov    %rdx,%r14
    8ff2:	41 55                	push   %r13
    8ff4:	49 89 f5             	mov    %rsi,%r13
    8ff7:	41 54                	push   %r12
    8ff9:	41 89 fc             	mov    %edi,%r12d
    8ffc:	55                   	push   %rbp
    8ffd:	48 8d 2d 14 4a 00 00 	lea    0x4a14(%rip),%rbp        # da18 <__do_global_dtors_aux_fini_array_entry>
    9004:	53                   	push   %rbx
    9005:	4c 29 fd             	sub    %r15,%rbp
    9008:	48 83 ec 08          	sub    $0x8,%rsp
    900c:	e8 ef 9f ff ff       	callq  3000 <_init>
    9011:	48 c1 fd 03          	sar    $0x3,%rbp
    9015:	74 1f                	je     9036 <__libc_csu_init+0x56>
    9017:	31 db                	xor    %ebx,%ebx
    9019:	0f 1f 80 00 00 00 00 	nopl   0x0(%rax)
    9020:	4c 89 f2             	mov    %r14,%rdx
    9023:	4c 89 ee             	mov    %r13,%rsi
    9026:	44 89 e7             	mov    %r12d,%edi
    9029:	41 ff 14 df          	callq  *(%r15,%rbx,8)
    902d:	48 83 c3 01          	add    $0x1,%rbx
    9031:	48 39 dd             	cmp    %rbx,%rbp
    9034:	75 ea                	jne    9020 <__libc_csu_init+0x40>
    9036:	48 83 c4 08          	add    $0x8,%rsp
    903a:	5b                   	pop    %rbx
    903b:	5d                   	pop    %rbp
    903c:	41 5c                	pop    %r12
    903e:	41 5d                	pop    %r13
    9040:	41 5e                	pop    %r14
    9042:	41 5f                	pop    %r15
    9044:	c3                   	retq   
    9045:	66 66 2e 0f 1f 84 00 	data16 nopw %cs:0x0(%rax,%rax,1)
    904c:	00 00 00 00 

0000000000009050 <__libc_csu_fini>:
    9050:	f3 0f 1e fa          	endbr64 
    9054:	c3                   	retq   
