


Disassembly of section .text:

00000000000080a0 <_start>:
    80a0:	f3 0f 1e fa          	endbr64 
    80a4:	31 ed                	xor    %ebp,%ebp
    80a6:	49 89 d1             	mov    %rdx,%r9
    80a9:	5e                   	pop    %rsi
    80aa:	48 89 e2             	mov    %rsp,%rdx
    80ad:	48 83 e4 f0          	and    $0xfffffffffffffff0,%rsp
    80b1:	50                   	push   %rax
    80b2:	54                   	push   %rsp
    80b3:	4c 8d 05 26 a9 00 00 	lea    0xa926(%rip),%r8        # 129e0 <__libc_csu_fini>
    80ba:	48 8d 0d af a8 00 00 	lea    0xa8af(%rip),%rcx        # 12970 <__libc_csu_init>
    80c1:	48 8d 3d 24 4b 00 00 	lea    0x4b24(%rip),%rdi        # cbec <main>
    80c8:	ff 15 12 ff 00 00    	callq  *0xff12(%rip)        # 17fe0 <__libc_start_main@GLIBC_2.2.5>
    80ce:	f4                   	hlt    
    80cf:	90                   	nop

00000000000080d0 <deregister_tm_clones>:
    80d0:	48 8d 3d d1 8a 01 00 	lea    0x18ad1(%rip),%rdi        # 20ba8 <__TMC_END__>
    80d7:	48 8d 05 ca 8a 01 00 	lea    0x18aca(%rip),%rax        # 20ba8 <__TMC_END__>
    80de:	48 39 f8             	cmp    %rdi,%rax
    80e1:	74 15                	je     80f8 <deregister_tm_clones+0x28>
    80e3:	48 8b 05 ee fe 00 00 	mov    0xfeee(%rip),%rax        # 17fd8 <_ITM_deregisterTMCloneTable>
    80ea:	48 85 c0             	test   %rax,%rax
    80ed:	74 09                	je     80f8 <deregister_tm_clones+0x28>
    80ef:	ff e0                	jmpq   *%rax
    80f1:	0f 1f 80 00 00 00 00 	nopl   0x0(%rax)
    80f8:	c3                   	retq   
    80f9:	0f 1f 80 00 00 00 00 	nopl   0x0(%rax)

0000000000008100 <register_tm_clones>:
    8100:	48 8d 3d a1 8a 01 00 	lea    0x18aa1(%rip),%rdi        # 20ba8 <__TMC_END__>
    8107:	48 8d 35 9a 8a 01 00 	lea    0x18a9a(%rip),%rsi        # 20ba8 <__TMC_END__>
    810e:	48 29 fe             	sub    %rdi,%rsi
    8111:	48 89 f0             	mov    %rsi,%rax
    8114:	48 c1 ee 3f          	shr    $0x3f,%rsi
    8118:	48 c1 f8 03          	sar    $0x3,%rax
    811c:	48 01 c6             	add    %rax,%rsi
    811f:	48 d1 fe             	sar    %rsi
    8122:	74 14                	je     8138 <register_tm_clones+0x38>
    8124:	48 8b 05 c5 fe 00 00 	mov    0xfec5(%rip),%rax        # 17ff0 <_ITM_registerTMCloneTable>
    812b:	48 85 c0             	test   %rax,%rax
    812e:	74 08                	je     8138 <register_tm_clones+0x38>
    8130:	ff e0                	jmpq   *%rax
    8132:	66 0f 1f 44 00 00    	nopw   0x0(%rax,%rax,1)
    8138:	c3                   	retq   
    8139:	0f 1f 80 00 00 00 00 	nopl   0x0(%rax)

0000000000008140 <__do_global_dtors_aux>:
    8140:	f3 0f 1e fa          	endbr64 
    8144:	80 3d 75 8a 01 00 00 	cmpb   $0x0,0x18a75(%rip)        # 20bc0 <completed.8061>
    814b:	75 2b                	jne    8178 <__do_global_dtors_aux+0x38>
    814d:	55                   	push   %rbp
    814e:	48 83 3d a2 fe 00 00 	cmpq   $0x0,0xfea2(%rip)        # 17ff8 <__cxa_finalize@GLIBC_2.2.5>
    8155:	00 
    8156:	48 89 e5             	mov    %rsp,%rbp
    8159:	74 0c                	je     8167 <__do_global_dtors_aux+0x27>
    815b:	48 8b 3d a6 fe 00 00 	mov    0xfea6(%rip),%rdi        # 18008 <__dso_handle>
    8162:	e8 f9 fe ff ff       	callq  8060 <__cxa_finalize@plt>
    8167:	e8 64 ff ff ff       	callq  80d0 <deregister_tm_clones>
    816c:	c6 05 4d 8a 01 00 01 	movb   $0x1,0x18a4d(%rip)        # 20bc0 <completed.8061>
    8173:	5d                   	pop    %rbp
    8174:	c3                   	retq   
    8175:	0f 1f 00             	nopl   (%rax)
    8178:	c3                   	retq   
    8179:	0f 1f 80 00 00 00 00 	nopl   0x0(%rax)

0000000000008180 <frame_dummy>:
    8180:	f3 0f 1e fa          	endbr64 
    8184:	e9 77 ff ff ff       	jmpq   8100 <register_tm_clones>

0000000000008189 <platform_main_begin>:
    8189:	f3 0f 1e fa          	endbr64 
    818d:	55                   	push   %rbp
    818e:	48 89 e5             	mov    %rsp,%rbp
    8191:	90                   	nop
    8192:	5d                   	pop    %rbp
    8193:	c3                   	retq   

0000000000008194 <platform_main_end>:
    8194:	f3 0f 1e fa          	endbr64 
    8198:	55                   	push   %rbp
    8199:	48 89 e5             	mov    %rsp,%rbp
    819c:	48 83 ec 10          	sub    $0x10,%rsp
    81a0:	89 7d fc             	mov    %edi,-0x4(%rbp)
    81a3:	89 75 f8             	mov    %esi,-0x8(%rbp)
    81a6:	8b 45 fc             	mov    -0x4(%rbp),%eax
    81a9:	89 c6                	mov    %eax,%esi
    81ab:	48 8d 3d 6e ae 00 00 	lea    0xae6e(%rip),%rdi        # 13020 <_IO_stdin_used+0x20>
    81b2:	b8 00 00 00 00       	mov    $0x0,%eax
    81b7:	e8 c4 fe ff ff       	callq  8080 <printf@plt>
    81bc:	90                   	nop
    81bd:	c9                   	leaveq 
    81be:	c3                   	retq   

00000000000081bf <safe_unary_minus_func_int8_t_s>:
    81bf:	f3 0f 1e fa          	endbr64 
    81c3:	55                   	push   %rbp
    81c4:	48 89 e5             	mov    %rsp,%rbp
    81c7:	89 f8                	mov    %edi,%eax
    81c9:	88 45 fc             	mov    %al,-0x4(%rbp)
    81cc:	0f b6 45 fc          	movzbl -0x4(%rbp),%eax
    81d0:	f7 d8                	neg    %eax
    81d2:	5d                   	pop    %rbp
    81d3:	c3                   	retq   

00000000000081d4 <safe_add_func_int8_t_s_s>:
    81d4:	f3 0f 1e fa          	endbr64 
    81d8:	55                   	push   %rbp
    81d9:	48 89 e5             	mov    %rsp,%rbp
    81dc:	89 fa                	mov    %edi,%edx
    81de:	89 f0                	mov    %esi,%eax
    81e0:	88 55 fc             	mov    %dl,-0x4(%rbp)
    81e3:	88 45 f8             	mov    %al,-0x8(%rbp)
    81e6:	0f b6 55 fc          	movzbl -0x4(%rbp),%edx
    81ea:	0f b6 45 f8          	movzbl -0x8(%rbp),%eax
    81ee:	01 d0                	add    %edx,%eax
    81f0:	5d                   	pop    %rbp
    81f1:	c3                   	retq   

00000000000081f2 <safe_sub_func_int8_t_s_s>:
    81f2:	f3 0f 1e fa          	endbr64 
    81f6:	55                   	push   %rbp
    81f7:	48 89 e5             	mov    %rsp,%rbp
    81fa:	89 fa                	mov    %edi,%edx
    81fc:	89 f0                	mov    %esi,%eax
    81fe:	88 55 fc             	mov    %dl,-0x4(%rbp)
    8201:	88 45 f8             	mov    %al,-0x8(%rbp)
    8204:	0f b6 55 fc          	movzbl -0x4(%rbp),%edx
    8208:	0f b6 45 f8          	movzbl -0x8(%rbp),%eax
    820c:	29 c2                	sub    %eax,%edx
    820e:	89 d0                	mov    %edx,%eax
    8210:	5d                   	pop    %rbp
    8211:	c3                   	retq   

0000000000008212 <safe_mul_func_int8_t_s_s>:
    8212:	f3 0f 1e fa          	endbr64 
    8216:	55                   	push   %rbp
    8217:	48 89 e5             	mov    %rsp,%rbp
    821a:	89 fa                	mov    %edi,%edx
    821c:	89 f0                	mov    %esi,%eax
    821e:	88 55 fc             	mov    %dl,-0x4(%rbp)
    8221:	88 45 f8             	mov    %al,-0x8(%rbp)
    8224:	0f b6 45 fc          	movzbl -0x4(%rbp),%eax
    8228:	0f b6 55 f8          	movzbl -0x8(%rbp),%edx
    822c:	0f af c2             	imul   %edx,%eax
    822f:	5d                   	pop    %rbp
    8230:	c3                   	retq   

0000000000008231 <safe_mod_func_int8_t_s_s>:
    8231:	f3 0f 1e fa          	endbr64 
    8235:	55                   	push   %rbp
    8236:	48 89 e5             	mov    %rsp,%rbp
    8239:	89 fa                	mov    %edi,%edx
    823b:	89 f0                	mov    %esi,%eax
    823d:	88 55 fc             	mov    %dl,-0x4(%rbp)
    8240:	88 45 f8             	mov    %al,-0x8(%rbp)
    8243:	80 7d f8 00          	cmpb   $0x0,-0x8(%rbp)
    8247:	74 1b                	je     8264 <safe_mod_func_int8_t_s_s+0x33>
    8249:	80 7d fc 80          	cmpb   $0x80,-0x4(%rbp)
    824d:	75 06                	jne    8255 <safe_mod_func_int8_t_s_s+0x24>
    824f:	80 7d f8 ff          	cmpb   $0xff,-0x8(%rbp)
    8253:	74 0f                	je     8264 <safe_mod_func_int8_t_s_s+0x33>
    8255:	0f be 45 fc          	movsbl -0x4(%rbp),%eax
    8259:	0f be 4d f8          	movsbl -0x8(%rbp),%ecx
    825d:	99                   	cltd   
    825e:	f7 f9                	idiv   %ecx
    8260:	89 d0                	mov    %edx,%eax
    8262:	eb 04                	jmp    8268 <safe_mod_func_int8_t_s_s+0x37>
    8264:	0f b6 45 fc          	movzbl -0x4(%rbp),%eax
    8268:	5d                   	pop    %rbp
    8269:	c3                   	retq   

000000000000826a <safe_div_func_int8_t_s_s>:
    826a:	f3 0f 1e fa          	endbr64 
    826e:	55                   	push   %rbp
    826f:	48 89 e5             	mov    %rsp,%rbp
    8272:	89 fa                	mov    %edi,%edx
    8274:	89 f0                	mov    %esi,%eax
    8276:	88 55 fc             	mov    %dl,-0x4(%rbp)
    8279:	88 45 f8             	mov    %al,-0x8(%rbp)
    827c:	80 7d f8 00          	cmpb   $0x0,-0x8(%rbp)
    8280:	74 19                	je     829b <safe_div_func_int8_t_s_s+0x31>
    8282:	80 7d fc 80          	cmpb   $0x80,-0x4(%rbp)
    8286:	75 06                	jne    828e <safe_div_func_int8_t_s_s+0x24>
    8288:	80 7d f8 ff          	cmpb   $0xff,-0x8(%rbp)
    828c:	74 0d                	je     829b <safe_div_func_int8_t_s_s+0x31>
    828e:	0f be 45 fc          	movsbl -0x4(%rbp),%eax
    8292:	0f be 4d f8          	movsbl -0x8(%rbp),%ecx
    8296:	99                   	cltd   
    8297:	f7 f9                	idiv   %ecx
    8299:	eb 04                	jmp    829f <safe_div_func_int8_t_s_s+0x35>
    829b:	0f b6 45 fc          	movzbl -0x4(%rbp),%eax
    829f:	5d                   	pop    %rbp
    82a0:	c3                   	retq   

00000000000082a1 <safe_lshift_func_int8_t_s_s>:
    82a1:	f3 0f 1e fa          	endbr64 
    82a5:	55                   	push   %rbp
    82a6:	48 89 e5             	mov    %rsp,%rbp
    82a9:	89 f8                	mov    %edi,%eax
    82ab:	89 75 f8             	mov    %esi,-0x8(%rbp)
    82ae:	88 45 fc             	mov    %al,-0x4(%rbp)
    82b1:	80 7d fc 00          	cmpb   $0x0,-0x4(%rbp)
    82b5:	78 31                	js     82e8 <safe_lshift_func_int8_t_s_s+0x47>
    82b7:	83 7d f8 00          	cmpl   $0x0,-0x8(%rbp)
    82bb:	78 2b                	js     82e8 <safe_lshift_func_int8_t_s_s+0x47>
    82bd:	83 7d f8 1f          	cmpl   $0x1f,-0x8(%rbp)
    82c1:	7f 25                	jg     82e8 <safe_lshift_func_int8_t_s_s+0x47>
    82c3:	0f be 55 fc          	movsbl -0x4(%rbp),%edx
    82c7:	8b 45 f8             	mov    -0x8(%rbp),%eax
    82ca:	be 7f 00 00 00       	mov    $0x7f,%esi
    82cf:	89 c1                	mov    %eax,%ecx
    82d1:	d3 fe                	sar    %cl,%esi
    82d3:	89 f0                	mov    %esi,%eax
    82d5:	39 c2                	cmp    %eax,%edx
    82d7:	7f 0f                	jg     82e8 <safe_lshift_func_int8_t_s_s+0x47>
    82d9:	0f be 55 fc          	movsbl -0x4(%rbp),%edx
    82dd:	8b 45 f8             	mov    -0x8(%rbp),%eax
    82e0:	89 c1                	mov    %eax,%ecx
    82e2:	d3 e2                	shl    %cl,%edx
    82e4:	89 d0                	mov    %edx,%eax
    82e6:	eb 04                	jmp    82ec <safe_lshift_func_int8_t_s_s+0x4b>
    82e8:	0f b6 45 fc          	movzbl -0x4(%rbp),%eax
    82ec:	5d                   	pop    %rbp
    82ed:	c3                   	retq   

00000000000082ee <safe_lshift_func_int8_t_s_u>:
    82ee:	f3 0f 1e fa          	endbr64 
    82f2:	55                   	push   %rbp
    82f3:	48 89 e5             	mov    %rsp,%rbp
    82f6:	89 f8                	mov    %edi,%eax
    82f8:	89 75 f8             	mov    %esi,-0x8(%rbp)
    82fb:	88 45 fc             	mov    %al,-0x4(%rbp)
    82fe:	80 7d fc 00          	cmpb   $0x0,-0x4(%rbp)
    8302:	78 2b                	js     832f <safe_lshift_func_int8_t_s_u+0x41>
    8304:	83 7d f8 1f          	cmpl   $0x1f,-0x8(%rbp)
    8308:	77 25                	ja     832f <safe_lshift_func_int8_t_s_u+0x41>
    830a:	0f be 55 fc          	movsbl -0x4(%rbp),%edx
    830e:	8b 45 f8             	mov    -0x8(%rbp),%eax
    8311:	be 7f 00 00 00       	mov    $0x7f,%esi
    8316:	89 c1                	mov    %eax,%ecx
    8318:	d3 fe                	sar    %cl,%esi
    831a:	89 f0                	mov    %esi,%eax
    831c:	39 c2                	cmp    %eax,%edx
    831e:	7f 0f                	jg     832f <safe_lshift_func_int8_t_s_u+0x41>
    8320:	0f be 55 fc          	movsbl -0x4(%rbp),%edx
    8324:	8b 45 f8             	mov    -0x8(%rbp),%eax
    8327:	89 c1                	mov    %eax,%ecx
    8329:	d3 e2                	shl    %cl,%edx
    832b:	89 d0                	mov    %edx,%eax
    832d:	eb 04                	jmp    8333 <safe_lshift_func_int8_t_s_u+0x45>
    832f:	0f b6 45 fc          	movzbl -0x4(%rbp),%eax
    8333:	5d                   	pop    %rbp
    8334:	c3                   	retq   

0000000000008335 <safe_rshift_func_int8_t_s_s>:
    8335:	f3 0f 1e fa          	endbr64 
    8339:	55                   	push   %rbp
    833a:	48 89 e5             	mov    %rsp,%rbp
    833d:	89 f8                	mov    %edi,%eax
    833f:	89 75 f8             	mov    %esi,-0x8(%rbp)
    8342:	88 45 fc             	mov    %al,-0x4(%rbp)
    8345:	80 7d fc 00          	cmpb   $0x0,-0x4(%rbp)
    8349:	78 1b                	js     8366 <safe_rshift_func_int8_t_s_s+0x31>
    834b:	83 7d f8 00          	cmpl   $0x0,-0x8(%rbp)
    834f:	78 15                	js     8366 <safe_rshift_func_int8_t_s_s+0x31>
    8351:	83 7d f8 1f          	cmpl   $0x1f,-0x8(%rbp)
    8355:	7f 0f                	jg     8366 <safe_rshift_func_int8_t_s_s+0x31>
    8357:	0f be 55 fc          	movsbl -0x4(%rbp),%edx
    835b:	8b 45 f8             	mov    -0x8(%rbp),%eax
    835e:	89 c1                	mov    %eax,%ecx
    8360:	d3 fa                	sar    %cl,%edx
    8362:	89 d0                	mov    %edx,%eax
    8364:	eb 04                	jmp    836a <safe_rshift_func_int8_t_s_s+0x35>
    8366:	0f b6 45 fc          	movzbl -0x4(%rbp),%eax
    836a:	5d                   	pop    %rbp
    836b:	c3                   	retq   

000000000000836c <safe_rshift_func_int8_t_s_u>:
    836c:	f3 0f 1e fa          	endbr64 
    8370:	55                   	push   %rbp
    8371:	48 89 e5             	mov    %rsp,%rbp
    8374:	89 f8                	mov    %edi,%eax
    8376:	89 75 f8             	mov    %esi,-0x8(%rbp)
    8379:	88 45 fc             	mov    %al,-0x4(%rbp)
    837c:	80 7d fc 00          	cmpb   $0x0,-0x4(%rbp)
    8380:	78 15                	js     8397 <safe_rshift_func_int8_t_s_u+0x2b>
    8382:	83 7d f8 1f          	cmpl   $0x1f,-0x8(%rbp)
    8386:	77 0f                	ja     8397 <safe_rshift_func_int8_t_s_u+0x2b>
    8388:	0f be 55 fc          	movsbl -0x4(%rbp),%edx
    838c:	8b 45 f8             	mov    -0x8(%rbp),%eax
    838f:	89 c1                	mov    %eax,%ecx
    8391:	d3 fa                	sar    %cl,%edx
    8393:	89 d0                	mov    %edx,%eax
    8395:	eb 04                	jmp    839b <safe_rshift_func_int8_t_s_u+0x2f>
    8397:	0f b6 45 fc          	movzbl -0x4(%rbp),%eax
    839b:	5d                   	pop    %rbp
    839c:	c3                   	retq   

000000000000839d <safe_unary_minus_func_int16_t_s>:
    839d:	f3 0f 1e fa          	endbr64 
    83a1:	55                   	push   %rbp
    83a2:	48 89 e5             	mov    %rsp,%rbp
    83a5:	89 f8                	mov    %edi,%eax
    83a7:	66 89 45 fc          	mov    %ax,-0x4(%rbp)
    83ab:	0f b7 45 fc          	movzwl -0x4(%rbp),%eax
    83af:	f7 d8                	neg    %eax
    83b1:	5d                   	pop    %rbp
    83b2:	c3                   	retq   

00000000000083b3 <safe_add_func_int16_t_s_s>:
    83b3:	f3 0f 1e fa          	endbr64 
    83b7:	55                   	push   %rbp
    83b8:	48 89 e5             	mov    %rsp,%rbp
    83bb:	89 fa                	mov    %edi,%edx
    83bd:	89 f0                	mov    %esi,%eax
    83bf:	66 89 55 fc          	mov    %dx,-0x4(%rbp)
    83c3:	66 89 45 f8          	mov    %ax,-0x8(%rbp)
    83c7:	0f b7 55 fc          	movzwl -0x4(%rbp),%edx
    83cb:	0f b7 45 f8          	movzwl -0x8(%rbp),%eax
    83cf:	01 d0                	add    %edx,%eax
    83d1:	5d                   	pop    %rbp
    83d2:	c3                   	retq   

00000000000083d3 <safe_sub_func_int16_t_s_s>:
    83d3:	f3 0f 1e fa          	endbr64 
    83d7:	55                   	push   %rbp
    83d8:	48 89 e5             	mov    %rsp,%rbp
    83db:	89 fa                	mov    %edi,%edx
    83dd:	89 f0                	mov    %esi,%eax
    83df:	66 89 55 fc          	mov    %dx,-0x4(%rbp)
    83e3:	66 89 45 f8          	mov    %ax,-0x8(%rbp)
    83e7:	0f b7 55 fc          	movzwl -0x4(%rbp),%edx
    83eb:	0f b7 45 f8          	movzwl -0x8(%rbp),%eax
    83ef:	29 c2                	sub    %eax,%edx
    83f1:	89 d0                	mov    %edx,%eax
    83f3:	5d                   	pop    %rbp
    83f4:	c3                   	retq   

00000000000083f5 <safe_mul_func_int16_t_s_s>:
    83f5:	f3 0f 1e fa          	endbr64 
    83f9:	55                   	push   %rbp
    83fa:	48 89 e5             	mov    %rsp,%rbp
    83fd:	89 fa                	mov    %edi,%edx
    83ff:	89 f0                	mov    %esi,%eax
    8401:	66 89 55 fc          	mov    %dx,-0x4(%rbp)
    8405:	66 89 45 f8          	mov    %ax,-0x8(%rbp)
    8409:	0f b7 55 fc          	movzwl -0x4(%rbp),%edx
    840d:	0f b7 45 f8          	movzwl -0x8(%rbp),%eax
    8411:	0f af c2             	imul   %edx,%eax
    8414:	5d                   	pop    %rbp
    8415:	c3                   	retq   

0000000000008416 <safe_mod_func_int16_t_s_s>:
    8416:	f3 0f 1e fa          	endbr64 
    841a:	55                   	push   %rbp
    841b:	48 89 e5             	mov    %rsp,%rbp
    841e:	89 fa                	mov    %edi,%edx
    8420:	89 f0                	mov    %esi,%eax
    8422:	66 89 55 fc          	mov    %dx,-0x4(%rbp)
    8426:	66 89 45 f8          	mov    %ax,-0x8(%rbp)
    842a:	66 83 7d f8 00       	cmpw   $0x0,-0x8(%rbp)
    842f:	74 1e                	je     844f <safe_mod_func_int16_t_s_s+0x39>
    8431:	66 81 7d fc 00 80    	cmpw   $0x8000,-0x4(%rbp)
    8437:	75 07                	jne    8440 <safe_mod_func_int16_t_s_s+0x2a>
    8439:	66 83 7d f8 ff       	cmpw   $0xffff,-0x8(%rbp)
    843e:	74 0f                	je     844f <safe_mod_func_int16_t_s_s+0x39>
    8440:	0f bf 45 fc          	movswl -0x4(%rbp),%eax
    8444:	0f bf 4d f8          	movswl -0x8(%rbp),%ecx
    8448:	99                   	cltd   
    8449:	f7 f9                	idiv   %ecx
    844b:	89 d0                	mov    %edx,%eax
    844d:	eb 04                	jmp    8453 <safe_mod_func_int16_t_s_s+0x3d>
    844f:	0f b7 45 fc          	movzwl -0x4(%rbp),%eax
    8453:	5d                   	pop    %rbp
    8454:	c3                   	retq   

0000000000008455 <safe_div_func_int16_t_s_s>:
    8455:	f3 0f 1e fa          	endbr64 
    8459:	55                   	push   %rbp
    845a:	48 89 e5             	mov    %rsp,%rbp
    845d:	89 fa                	mov    %edi,%edx
    845f:	89 f0                	mov    %esi,%eax
    8461:	66 89 55 fc          	mov    %dx,-0x4(%rbp)
    8465:	66 89 45 f8          	mov    %ax,-0x8(%rbp)
    8469:	66 83 7d f8 00       	cmpw   $0x0,-0x8(%rbp)
    846e:	74 1c                	je     848c <safe_div_func_int16_t_s_s+0x37>
    8470:	66 81 7d fc 00 80    	cmpw   $0x8000,-0x4(%rbp)
    8476:	75 07                	jne    847f <safe_div_func_int16_t_s_s+0x2a>
    8478:	66 83 7d f8 ff       	cmpw   $0xffff,-0x8(%rbp)
    847d:	74 0d                	je     848c <safe_div_func_int16_t_s_s+0x37>
    847f:	0f bf 45 fc          	movswl -0x4(%rbp),%eax
    8483:	0f bf 4d f8          	movswl -0x8(%rbp),%ecx
    8487:	99                   	cltd   
    8488:	f7 f9                	idiv   %ecx
    848a:	eb 04                	jmp    8490 <safe_div_func_int16_t_s_s+0x3b>
    848c:	0f b7 45 fc          	movzwl -0x4(%rbp),%eax
    8490:	5d                   	pop    %rbp
    8491:	c3                   	retq   

0000000000008492 <safe_lshift_func_int16_t_s_s>:
    8492:	f3 0f 1e fa          	endbr64 
    8496:	55                   	push   %rbp
    8497:	48 89 e5             	mov    %rsp,%rbp
    849a:	89 f8                	mov    %edi,%eax
    849c:	89 75 f8             	mov    %esi,-0x8(%rbp)
    849f:	66 89 45 fc          	mov    %ax,-0x4(%rbp)
    84a3:	66 83 7d fc 00       	cmpw   $0x0,-0x4(%rbp)
    84a8:	78 31                	js     84db <safe_lshift_func_int16_t_s_s+0x49>
    84aa:	83 7d f8 00          	cmpl   $0x0,-0x8(%rbp)
    84ae:	78 2b                	js     84db <safe_lshift_func_int16_t_s_s+0x49>
    84b0:	83 7d f8 1f          	cmpl   $0x1f,-0x8(%rbp)
    84b4:	7f 25                	jg     84db <safe_lshift_func_int16_t_s_s+0x49>
    84b6:	0f bf 55 fc          	movswl -0x4(%rbp),%edx
    84ba:	8b 45 f8             	mov    -0x8(%rbp),%eax
    84bd:	be ff 7f 00 00       	mov    $0x7fff,%esi
    84c2:	89 c1                	mov    %eax,%ecx
    84c4:	d3 fe                	sar    %cl,%esi
    84c6:	89 f0                	mov    %esi,%eax
    84c8:	39 c2                	cmp    %eax,%edx
    84ca:	7f 0f                	jg     84db <safe_lshift_func_int16_t_s_s+0x49>
    84cc:	0f bf 55 fc          	movswl -0x4(%rbp),%edx
    84d0:	8b 45 f8             	mov    -0x8(%rbp),%eax
    84d3:	89 c1                	mov    %eax,%ecx
    84d5:	d3 e2                	shl    %cl,%edx
    84d7:	89 d0                	mov    %edx,%eax
    84d9:	eb 04                	jmp    84df <safe_lshift_func_int16_t_s_s+0x4d>
    84db:	0f b7 45 fc          	movzwl -0x4(%rbp),%eax
    84df:	5d                   	pop    %rbp
    84e0:	c3                   	retq   

00000000000084e1 <safe_lshift_func_int16_t_s_u>:
    84e1:	f3 0f 1e fa          	endbr64 
    84e5:	55                   	push   %rbp
    84e6:	48 89 e5             	mov    %rsp,%rbp
    84e9:	89 f8                	mov    %edi,%eax
    84eb:	89 75 f8             	mov    %esi,-0x8(%rbp)
    84ee:	66 89 45 fc          	mov    %ax,-0x4(%rbp)
    84f2:	66 83 7d fc 00       	cmpw   $0x0,-0x4(%rbp)
    84f7:	78 2b                	js     8524 <safe_lshift_func_int16_t_s_u+0x43>
    84f9:	83 7d f8 1f          	cmpl   $0x1f,-0x8(%rbp)
    84fd:	77 25                	ja     8524 <safe_lshift_func_int16_t_s_u+0x43>
    84ff:	0f bf 55 fc          	movswl -0x4(%rbp),%edx
    8503:	8b 45 f8             	mov    -0x8(%rbp),%eax
    8506:	be ff 7f 00 00       	mov    $0x7fff,%esi
    850b:	89 c1                	mov    %eax,%ecx
    850d:	d3 fe                	sar    %cl,%esi
    850f:	89 f0                	mov    %esi,%eax
    8511:	39 c2                	cmp    %eax,%edx
    8513:	7f 0f                	jg     8524 <safe_lshift_func_int16_t_s_u+0x43>
    8515:	0f bf 55 fc          	movswl -0x4(%rbp),%edx
    8519:	8b 45 f8             	mov    -0x8(%rbp),%eax
    851c:	89 c1                	mov    %eax,%ecx
    851e:	d3 e2                	shl    %cl,%edx
    8520:	89 d0                	mov    %edx,%eax
    8522:	eb 04                	jmp    8528 <safe_lshift_func_int16_t_s_u+0x47>
    8524:	0f b7 45 fc          	movzwl -0x4(%rbp),%eax
    8528:	5d                   	pop    %rbp
    8529:	c3                   	retq   

000000000000852a <safe_rshift_func_int16_t_s_s>:
    852a:	f3 0f 1e fa          	endbr64 
    852e:	55                   	push   %rbp
    852f:	48 89 e5             	mov    %rsp,%rbp
    8532:	89 f8                	mov    %edi,%eax
    8534:	89 75 f8             	mov    %esi,-0x8(%rbp)
    8537:	66 89 45 fc          	mov    %ax,-0x4(%rbp)
    853b:	66 83 7d fc 00       	cmpw   $0x0,-0x4(%rbp)
    8540:	78 1b                	js     855d <safe_rshift_func_int16_t_s_s+0x33>
    8542:	83 7d f8 00          	cmpl   $0x0,-0x8(%rbp)
    8546:	78 15                	js     855d <safe_rshift_func_int16_t_s_s+0x33>
    8548:	83 7d f8 1f          	cmpl   $0x1f,-0x8(%rbp)
    854c:	7f 0f                	jg     855d <safe_rshift_func_int16_t_s_s+0x33>
    854e:	0f bf 55 fc          	movswl -0x4(%rbp),%edx
    8552:	8b 45 f8             	mov    -0x8(%rbp),%eax
    8555:	89 c1                	mov    %eax,%ecx
    8557:	d3 fa                	sar    %cl,%edx
    8559:	89 d0                	mov    %edx,%eax
    855b:	eb 04                	jmp    8561 <safe_rshift_func_int16_t_s_s+0x37>
    855d:	0f b7 45 fc          	movzwl -0x4(%rbp),%eax
    8561:	5d                   	pop    %rbp
    8562:	c3                   	retq   

0000000000008563 <safe_rshift_func_int16_t_s_u>:
    8563:	f3 0f 1e fa          	endbr64 
    8567:	55                   	push   %rbp
    8568:	48 89 e5             	mov    %rsp,%rbp
    856b:	89 f8                	mov    %edi,%eax
    856d:	89 75 f8             	mov    %esi,-0x8(%rbp)
    8570:	66 89 45 fc          	mov    %ax,-0x4(%rbp)
    8574:	66 83 7d fc 00       	cmpw   $0x0,-0x4(%rbp)
    8579:	78 15                	js     8590 <safe_rshift_func_int16_t_s_u+0x2d>
    857b:	83 7d f8 1f          	cmpl   $0x1f,-0x8(%rbp)
    857f:	77 0f                	ja     8590 <safe_rshift_func_int16_t_s_u+0x2d>
    8581:	0f bf 55 fc          	movswl -0x4(%rbp),%edx
    8585:	8b 45 f8             	mov    -0x8(%rbp),%eax
    8588:	89 c1                	mov    %eax,%ecx
    858a:	d3 fa                	sar    %cl,%edx
    858c:	89 d0                	mov    %edx,%eax
    858e:	eb 04                	jmp    8594 <safe_rshift_func_int16_t_s_u+0x31>
    8590:	0f b7 45 fc          	movzwl -0x4(%rbp),%eax
    8594:	5d                   	pop    %rbp
    8595:	c3                   	retq   

0000000000008596 <safe_unary_minus_func_int32_t_s>:
    8596:	f3 0f 1e fa          	endbr64 
    859a:	55                   	push   %rbp
    859b:	48 89 e5             	mov    %rsp,%rbp
    859e:	89 7d fc             	mov    %edi,-0x4(%rbp)
    85a1:	81 7d fc 00 00 00 80 	cmpl   $0x80000000,-0x4(%rbp)
    85a8:	74 07                	je     85b1 <safe_unary_minus_func_int32_t_s+0x1b>
    85aa:	8b 45 fc             	mov    -0x4(%rbp),%eax
    85ad:	f7 d8                	neg    %eax
    85af:	eb 03                	jmp    85b4 <safe_unary_minus_func_int32_t_s+0x1e>
    85b1:	8b 45 fc             	mov    -0x4(%rbp),%eax
    85b4:	5d                   	pop    %rbp
    85b5:	c3                   	retq   

00000000000085b6 <safe_add_func_int32_t_s_s>:
    85b6:	f3 0f 1e fa          	endbr64 
    85ba:	55                   	push   %rbp
    85bb:	48 89 e5             	mov    %rsp,%rbp
    85be:	89 7d fc             	mov    %edi,-0x4(%rbp)
    85c1:	89 75 f8             	mov    %esi,-0x8(%rbp)
    85c4:	83 7d fc 00          	cmpl   $0x0,-0x4(%rbp)
    85c8:	7e 13                	jle    85dd <safe_add_func_int32_t_s_s+0x27>
    85ca:	83 7d f8 00          	cmpl   $0x0,-0x8(%rbp)
    85ce:	7e 0d                	jle    85dd <safe_add_func_int32_t_s_s+0x27>
    85d0:	b8 ff ff ff 7f       	mov    $0x7fffffff,%eax
    85d5:	2b 45 f8             	sub    -0x8(%rbp),%eax
    85d8:	39 45 fc             	cmp    %eax,-0x4(%rbp)
    85db:	7f 23                	jg     8600 <safe_add_func_int32_t_s_s+0x4a>
    85dd:	83 7d fc 00          	cmpl   $0x0,-0x4(%rbp)
    85e1:	79 13                	jns    85f6 <safe_add_func_int32_t_s_s+0x40>
    85e3:	83 7d f8 00          	cmpl   $0x0,-0x8(%rbp)
    85e7:	79 0d                	jns    85f6 <safe_add_func_int32_t_s_s+0x40>
    85e9:	b8 00 00 00 80       	mov    $0x80000000,%eax
    85ee:	2b 45 f8             	sub    -0x8(%rbp),%eax
    85f1:	39 45 fc             	cmp    %eax,-0x4(%rbp)
    85f4:	7c 0a                	jl     8600 <safe_add_func_int32_t_s_s+0x4a>
    85f6:	8b 55 fc             	mov    -0x4(%rbp),%edx
    85f9:	8b 45 f8             	mov    -0x8(%rbp),%eax
    85fc:	01 d0                	add    %edx,%eax
    85fe:	eb 03                	jmp    8603 <safe_add_func_int32_t_s_s+0x4d>
    8600:	8b 45 fc             	mov    -0x4(%rbp),%eax
    8603:	5d                   	pop    %rbp
    8604:	c3                   	retq   

0000000000008605 <safe_sub_func_int32_t_s_s>:
    8605:	f3 0f 1e fa          	endbr64 
    8609:	55                   	push   %rbp
    860a:	48 89 e5             	mov    %rsp,%rbp
    860d:	89 7d fc             	mov    %edi,-0x4(%rbp)
    8610:	89 75 f8             	mov    %esi,-0x8(%rbp)
    8613:	8b 45 fc             	mov    -0x4(%rbp),%eax
    8616:	33 45 f8             	xor    -0x8(%rbp),%eax
    8619:	89 c2                	mov    %eax,%edx
    861b:	8b 45 fc             	mov    -0x4(%rbp),%eax
    861e:	33 45 f8             	xor    -0x8(%rbp),%eax
    8621:	25 00 00 00 80       	and    $0x80000000,%eax
    8626:	33 45 fc             	xor    -0x4(%rbp),%eax
    8629:	2b 45 f8             	sub    -0x8(%rbp),%eax
    862c:	33 45 f8             	xor    -0x8(%rbp),%eax
    862f:	21 d0                	and    %edx,%eax
    8631:	85 c0                	test   %eax,%eax
    8633:	78 08                	js     863d <safe_sub_func_int32_t_s_s+0x38>
    8635:	8b 45 fc             	mov    -0x4(%rbp),%eax
    8638:	2b 45 f8             	sub    -0x8(%rbp),%eax
    863b:	eb 03                	jmp    8640 <safe_sub_func_int32_t_s_s+0x3b>
    863d:	8b 45 fc             	mov    -0x4(%rbp),%eax
    8640:	5d                   	pop    %rbp
    8641:	c3                   	retq   

0000000000008642 <safe_mul_func_int32_t_s_s>:
    8642:	f3 0f 1e fa          	endbr64 
    8646:	55                   	push   %rbp
    8647:	48 89 e5             	mov    %rsp,%rbp
    864a:	89 7d fc             	mov    %edi,-0x4(%rbp)
    864d:	89 75 f8             	mov    %esi,-0x8(%rbp)
    8650:	83 7d fc 00          	cmpl   $0x0,-0x4(%rbp)
    8654:	7e 14                	jle    866a <safe_mul_func_int32_t_s_s+0x28>
    8656:	83 7d f8 00          	cmpl   $0x0,-0x8(%rbp)
    865a:	7e 0e                	jle    866a <safe_mul_func_int32_t_s_s+0x28>
    865c:	b8 ff ff ff 7f       	mov    $0x7fffffff,%eax
    8661:	99                   	cltd   
    8662:	f7 7d f8             	idivl  -0x8(%rbp)
    8665:	39 45 fc             	cmp    %eax,-0x4(%rbp)
    8668:	7f 5d                	jg     86c7 <safe_mul_func_int32_t_s_s+0x85>
    866a:	83 7d fc 00          	cmpl   $0x0,-0x4(%rbp)
    866e:	7e 14                	jle    8684 <safe_mul_func_int32_t_s_s+0x42>
    8670:	83 7d f8 00          	cmpl   $0x0,-0x8(%rbp)
    8674:	7f 0e                	jg     8684 <safe_mul_func_int32_t_s_s+0x42>
    8676:	b8 00 00 00 80       	mov    $0x80000000,%eax
    867b:	99                   	cltd   
    867c:	f7 7d fc             	idivl  -0x4(%rbp)
    867f:	39 45 f8             	cmp    %eax,-0x8(%rbp)
    8682:	7c 43                	jl     86c7 <safe_mul_func_int32_t_s_s+0x85>
    8684:	83 7d fc 00          	cmpl   $0x0,-0x4(%rbp)
    8688:	7f 14                	jg     869e <safe_mul_func_int32_t_s_s+0x5c>
    868a:	83 7d f8 00          	cmpl   $0x0,-0x8(%rbp)
    868e:	7e 0e                	jle    869e <safe_mul_func_int32_t_s_s+0x5c>
    8690:	b8 00 00 00 80       	mov    $0x80000000,%eax
    8695:	99                   	cltd   
    8696:	f7 7d f8             	idivl  -0x8(%rbp)
    8699:	39 45 fc             	cmp    %eax,-0x4(%rbp)
    869c:	7c 29                	jl     86c7 <safe_mul_func_int32_t_s_s+0x85>
    869e:	83 7d fc 00          	cmpl   $0x0,-0x4(%rbp)
    86a2:	7f 1a                	jg     86be <safe_mul_func_int32_t_s_s+0x7c>
    86a4:	83 7d f8 00          	cmpl   $0x0,-0x8(%rbp)
    86a8:	7f 14                	jg     86be <safe_mul_func_int32_t_s_s+0x7c>
    86aa:	83 7d fc 00          	cmpl   $0x0,-0x4(%rbp)
    86ae:	74 0e                	je     86be <safe_mul_func_int32_t_s_s+0x7c>
    86b0:	b8 ff ff ff 7f       	mov    $0x7fffffff,%eax
    86b5:	99                   	cltd   
    86b6:	f7 7d fc             	idivl  -0x4(%rbp)
    86b9:	39 45 f8             	cmp    %eax,-0x8(%rbp)
    86bc:	7c 09                	jl     86c7 <safe_mul_func_int32_t_s_s+0x85>
    86be:	8b 45 fc             	mov    -0x4(%rbp),%eax
    86c1:	0f af 45 f8          	imul   -0x8(%rbp),%eax
    86c5:	eb 03                	jmp    86ca <safe_mul_func_int32_t_s_s+0x88>
    86c7:	8b 45 fc             	mov    -0x4(%rbp),%eax
    86ca:	5d                   	pop    %rbp
    86cb:	c3                   	retq   

00000000000086cc <safe_mod_func_int32_t_s_s>:
    86cc:	f3 0f 1e fa          	endbr64 
    86d0:	55                   	push   %rbp
    86d1:	48 89 e5             	mov    %rsp,%rbp
    86d4:	89 7d fc             	mov    %edi,-0x4(%rbp)
    86d7:	89 75 f8             	mov    %esi,-0x8(%rbp)
    86da:	83 7d f8 00          	cmpl   $0x0,-0x8(%rbp)
    86de:	74 1a                	je     86fa <safe_mod_func_int32_t_s_s+0x2e>
    86e0:	81 7d fc 00 00 00 80 	cmpl   $0x80000000,-0x4(%rbp)
    86e7:	75 06                	jne    86ef <safe_mod_func_int32_t_s_s+0x23>
    86e9:	83 7d f8 ff          	cmpl   $0xffffffff,-0x8(%rbp)
    86ed:	74 0b                	je     86fa <safe_mod_func_int32_t_s_s+0x2e>
    86ef:	8b 45 fc             	mov    -0x4(%rbp),%eax
    86f2:	99                   	cltd   
    86f3:	f7 7d f8             	idivl  -0x8(%rbp)
    86f6:	89 d0                	mov    %edx,%eax
    86f8:	eb 03                	jmp    86fd <safe_mod_func_int32_t_s_s+0x31>
    86fa:	8b 45 fc             	mov    -0x4(%rbp),%eax
    86fd:	5d                   	pop    %rbp
    86fe:	c3                   	retq   

00000000000086ff <safe_div_func_int32_t_s_s>:
    86ff:	f3 0f 1e fa          	endbr64 
    8703:	55                   	push   %rbp
    8704:	48 89 e5             	mov    %rsp,%rbp
    8707:	89 7d fc             	mov    %edi,-0x4(%rbp)
    870a:	89 75 f8             	mov    %esi,-0x8(%rbp)
    870d:	83 7d f8 00          	cmpl   $0x0,-0x8(%rbp)
    8711:	74 18                	je     872b <safe_div_func_int32_t_s_s+0x2c>
    8713:	81 7d fc 00 00 00 80 	cmpl   $0x80000000,-0x4(%rbp)
    871a:	75 06                	jne    8722 <safe_div_func_int32_t_s_s+0x23>
    871c:	83 7d f8 ff          	cmpl   $0xffffffff,-0x8(%rbp)
    8720:	74 09                	je     872b <safe_div_func_int32_t_s_s+0x2c>
    8722:	8b 45 fc             	mov    -0x4(%rbp),%eax
    8725:	99                   	cltd   
    8726:	f7 7d f8             	idivl  -0x8(%rbp)
    8729:	eb 03                	jmp    872e <safe_div_func_int32_t_s_s+0x2f>
    872b:	8b 45 fc             	mov    -0x4(%rbp),%eax
    872e:	5d                   	pop    %rbp
    872f:	c3                   	retq   

0000000000008730 <safe_lshift_func_int32_t_s_s>:
    8730:	f3 0f 1e fa          	endbr64 
    8734:	55                   	push   %rbp
    8735:	48 89 e5             	mov    %rsp,%rbp
    8738:	89 7d fc             	mov    %edi,-0x4(%rbp)
    873b:	89 75 f8             	mov    %esi,-0x8(%rbp)
    873e:	83 7d fc 00          	cmpl   $0x0,-0x4(%rbp)
    8742:	78 2d                	js     8771 <safe_lshift_func_int32_t_s_s+0x41>
    8744:	83 7d f8 00          	cmpl   $0x0,-0x8(%rbp)
    8748:	78 27                	js     8771 <safe_lshift_func_int32_t_s_s+0x41>
    874a:	83 7d f8 1f          	cmpl   $0x1f,-0x8(%rbp)
    874e:	7f 21                	jg     8771 <safe_lshift_func_int32_t_s_s+0x41>
    8750:	8b 45 f8             	mov    -0x8(%rbp),%eax
    8753:	ba ff ff ff 7f       	mov    $0x7fffffff,%edx
    8758:	89 c1                	mov    %eax,%ecx
    875a:	d3 fa                	sar    %cl,%edx
    875c:	89 d0                	mov    %edx,%eax
    875e:	39 45 fc             	cmp    %eax,-0x4(%rbp)
    8761:	7f 0e                	jg     8771 <safe_lshift_func_int32_t_s_s+0x41>
    8763:	8b 45 f8             	mov    -0x8(%rbp),%eax
    8766:	8b 55 fc             	mov    -0x4(%rbp),%edx
    8769:	89 c1                	mov    %eax,%ecx
    876b:	d3 e2                	shl    %cl,%edx
    876d:	89 d0                	mov    %edx,%eax
    876f:	eb 03                	jmp    8774 <safe_lshift_func_int32_t_s_s+0x44>
    8771:	8b 45 fc             	mov    -0x4(%rbp),%eax
    8774:	5d                   	pop    %rbp
    8775:	c3                   	retq   

0000000000008776 <safe_lshift_func_int32_t_s_u>:
    8776:	f3 0f 1e fa          	endbr64 
    877a:	55                   	push   %rbp
    877b:	48 89 e5             	mov    %rsp,%rbp
    877e:	89 7d fc             	mov    %edi,-0x4(%rbp)
    8781:	89 75 f8             	mov    %esi,-0x8(%rbp)
    8784:	83 7d fc 00          	cmpl   $0x0,-0x4(%rbp)
    8788:	78 27                	js     87b1 <safe_lshift_func_int32_t_s_u+0x3b>
    878a:	83 7d f8 1f          	cmpl   $0x1f,-0x8(%rbp)
    878e:	77 21                	ja     87b1 <safe_lshift_func_int32_t_s_u+0x3b>
    8790:	8b 45 f8             	mov    -0x8(%rbp),%eax
    8793:	ba ff ff ff 7f       	mov    $0x7fffffff,%edx
    8798:	89 c1                	mov    %eax,%ecx
    879a:	d3 fa                	sar    %cl,%edx
    879c:	89 d0                	mov    %edx,%eax
    879e:	39 45 fc             	cmp    %eax,-0x4(%rbp)
    87a1:	7f 0e                	jg     87b1 <safe_lshift_func_int32_t_s_u+0x3b>
    87a3:	8b 45 f8             	mov    -0x8(%rbp),%eax
    87a6:	8b 55 fc             	mov    -0x4(%rbp),%edx
    87a9:	89 c1                	mov    %eax,%ecx
    87ab:	d3 e2                	shl    %cl,%edx
    87ad:	89 d0                	mov    %edx,%eax
    87af:	eb 03                	jmp    87b4 <safe_lshift_func_int32_t_s_u+0x3e>
    87b1:	8b 45 fc             	mov    -0x4(%rbp),%eax
    87b4:	5d                   	pop    %rbp
    87b5:	c3                   	retq   

00000000000087b6 <safe_rshift_func_int32_t_s_s>:
    87b6:	f3 0f 1e fa          	endbr64 
    87ba:	55                   	push   %rbp
    87bb:	48 89 e5             	mov    %rsp,%rbp
    87be:	89 7d fc             	mov    %edi,-0x4(%rbp)
    87c1:	89 75 f8             	mov    %esi,-0x8(%rbp)
    87c4:	83 7d fc 00          	cmpl   $0x0,-0x4(%rbp)
    87c8:	78 1a                	js     87e4 <safe_rshift_func_int32_t_s_s+0x2e>
    87ca:	83 7d f8 00          	cmpl   $0x0,-0x8(%rbp)
    87ce:	78 14                	js     87e4 <safe_rshift_func_int32_t_s_s+0x2e>
    87d0:	83 7d f8 1f          	cmpl   $0x1f,-0x8(%rbp)
    87d4:	7f 0e                	jg     87e4 <safe_rshift_func_int32_t_s_s+0x2e>
    87d6:	8b 45 f8             	mov    -0x8(%rbp),%eax
    87d9:	8b 55 fc             	mov    -0x4(%rbp),%edx
    87dc:	89 c1                	mov    %eax,%ecx
    87de:	d3 fa                	sar    %cl,%edx
    87e0:	89 d0                	mov    %edx,%eax
    87e2:	eb 03                	jmp    87e7 <safe_rshift_func_int32_t_s_s+0x31>
    87e4:	8b 45 fc             	mov    -0x4(%rbp),%eax
    87e7:	5d                   	pop    %rbp
    87e8:	c3                   	retq   

00000000000087e9 <safe_rshift_func_int32_t_s_u>:
    87e9:	f3 0f 1e fa          	endbr64 
    87ed:	55                   	push   %rbp
    87ee:	48 89 e5             	mov    %rsp,%rbp
    87f1:	89 7d fc             	mov    %edi,-0x4(%rbp)
    87f4:	89 75 f8             	mov    %esi,-0x8(%rbp)
    87f7:	83 7d fc 00          	cmpl   $0x0,-0x4(%rbp)
    87fb:	78 14                	js     8811 <safe_rshift_func_int32_t_s_u+0x28>
    87fd:	83 7d f8 1f          	cmpl   $0x1f,-0x8(%rbp)
    8801:	77 0e                	ja     8811 <safe_rshift_func_int32_t_s_u+0x28>
    8803:	8b 45 f8             	mov    -0x8(%rbp),%eax
    8806:	8b 55 fc             	mov    -0x4(%rbp),%edx
    8809:	89 c1                	mov    %eax,%ecx
    880b:	d3 fa                	sar    %cl,%edx
    880d:	89 d0                	mov    %edx,%eax
    880f:	eb 03                	jmp    8814 <safe_rshift_func_int32_t_s_u+0x2b>
    8811:	8b 45 fc             	mov    -0x4(%rbp),%eax
    8814:	5d                   	pop    %rbp
    8815:	c3                   	retq   

0000000000008816 <safe_unary_minus_func_int64_t_s>:
    8816:	f3 0f 1e fa          	endbr64 
    881a:	55                   	push   %rbp
    881b:	48 89 e5             	mov    %rsp,%rbp
    881e:	48 89 7d f8          	mov    %rdi,-0x8(%rbp)
    8822:	48 b8 00 00 00 00 00 	movabs $0x8000000000000000,%rax
    8829:	00 00 80 
    882c:	48 39 45 f8          	cmp    %rax,-0x8(%rbp)
    8830:	74 09                	je     883b <safe_unary_minus_func_int64_t_s+0x25>
    8832:	48 8b 45 f8          	mov    -0x8(%rbp),%rax
    8836:	48 f7 d8             	neg    %rax
    8839:	eb 04                	jmp    883f <safe_unary_minus_func_int64_t_s+0x29>
    883b:	48 8b 45 f8          	mov    -0x8(%rbp),%rax
    883f:	5d                   	pop    %rbp
    8840:	c3                   	retq   

0000000000008841 <safe_add_func_int64_t_s_s>:
    8841:	f3 0f 1e fa          	endbr64 
    8845:	55                   	push   %rbp
    8846:	48 89 e5             	mov    %rsp,%rbp
    8849:	48 89 7d f8          	mov    %rdi,-0x8(%rbp)
    884d:	48 89 75 f0          	mov    %rsi,-0x10(%rbp)
    8851:	48 83 7d f8 00       	cmpq   $0x0,-0x8(%rbp)
    8856:	7e 1b                	jle    8873 <safe_add_func_int64_t_s_s+0x32>
    8858:	48 83 7d f0 00       	cmpq   $0x0,-0x10(%rbp)
    885d:	7e 14                	jle    8873 <safe_add_func_int64_t_s_s+0x32>
    885f:	48 b8 ff ff ff ff ff 	movabs $0x7fffffffffffffff,%rax
    8866:	ff ff 7f 
    8869:	48 2b 45 f0          	sub    -0x10(%rbp),%rax
    886d:	48 39 45 f8          	cmp    %rax,-0x8(%rbp)
    8871:	7f 2f                	jg     88a2 <safe_add_func_int64_t_s_s+0x61>
    8873:	48 83 7d f8 00       	cmpq   $0x0,-0x8(%rbp)
    8878:	79 1b                	jns    8895 <safe_add_func_int64_t_s_s+0x54>
    887a:	48 83 7d f0 00       	cmpq   $0x0,-0x10(%rbp)
    887f:	79 14                	jns    8895 <safe_add_func_int64_t_s_s+0x54>
    8881:	48 b8 00 00 00 00 00 	movabs $0x8000000000000000,%rax
    8888:	00 00 80 
    888b:	48 2b 45 f0          	sub    -0x10(%rbp),%rax
    888f:	48 39 45 f8          	cmp    %rax,-0x8(%rbp)
    8893:	7c 0d                	jl     88a2 <safe_add_func_int64_t_s_s+0x61>
    8895:	48 8b 55 f8          	mov    -0x8(%rbp),%rdx
    8899:	48 8b 45 f0          	mov    -0x10(%rbp),%rax
    889d:	48 01 d0             	add    %rdx,%rax
    88a0:	eb 04                	jmp    88a6 <safe_add_func_int64_t_s_s+0x65>
    88a2:	48 8b 45 f8          	mov    -0x8(%rbp),%rax
    88a6:	5d                   	pop    %rbp
    88a7:	c3                   	retq   

00000000000088a8 <safe_sub_func_int64_t_s_s>:
    88a8:	f3 0f 1e fa          	endbr64 
    88ac:	55                   	push   %rbp
    88ad:	48 89 e5             	mov    %rsp,%rbp
    88b0:	48 89 7d f8          	mov    %rdi,-0x8(%rbp)
    88b4:	48 89 75 f0          	mov    %rsi,-0x10(%rbp)
    88b8:	48 8b 45 f8          	mov    -0x8(%rbp),%rax
    88bc:	48 33 45 f0          	xor    -0x10(%rbp),%rax
    88c0:	48 89 c2             	mov    %rax,%rdx
    88c3:	48 8b 45 f8          	mov    -0x8(%rbp),%rax
    88c7:	48 33 45 f0          	xor    -0x10(%rbp),%rax
    88cb:	48 b9 00 00 00 00 00 	movabs $0x8000000000000000,%rcx
    88d2:	00 00 80 
    88d5:	48 21 c8             	and    %rcx,%rax
    88d8:	48 33 45 f8          	xor    -0x8(%rbp),%rax
    88dc:	48 2b 45 f0          	sub    -0x10(%rbp),%rax
    88e0:	48 33 45 f0          	xor    -0x10(%rbp),%rax
    88e4:	48 21 d0             	and    %rdx,%rax
    88e7:	48 85 c0             	test   %rax,%rax
    88ea:	78 0a                	js     88f6 <safe_sub_func_int64_t_s_s+0x4e>
    88ec:	48 8b 45 f8          	mov    -0x8(%rbp),%rax
    88f0:	48 2b 45 f0          	sub    -0x10(%rbp),%rax
    88f4:	eb 04                	jmp    88fa <safe_sub_func_int64_t_s_s+0x52>
    88f6:	48 8b 45 f8          	mov    -0x8(%rbp),%rax
    88fa:	5d                   	pop    %rbp
    88fb:	c3                   	retq   

00000000000088fc <safe_mul_func_int64_t_s_s>:
    88fc:	f3 0f 1e fa          	endbr64 
    8900:	55                   	push   %rbp
    8901:	48 89 e5             	mov    %rsp,%rbp
    8904:	48 89 7d f8          	mov    %rdi,-0x8(%rbp)
    8908:	48 89 75 f0          	mov    %rsi,-0x10(%rbp)
    890c:	48 83 7d f8 00       	cmpq   $0x0,-0x8(%rbp)
    8911:	7e 1d                	jle    8930 <safe_mul_func_int64_t_s_s+0x34>
    8913:	48 83 7d f0 00       	cmpq   $0x0,-0x10(%rbp)
    8918:	7e 16                	jle    8930 <safe_mul_func_int64_t_s_s+0x34>
    891a:	48 b8 ff ff ff ff ff 	movabs $0x7fffffffffffffff,%rax
    8921:	ff ff 7f 
    8924:	48 99                	cqto   
    8926:	48 f7 7d f0          	idivq  -0x10(%rbp)
    892a:	48 39 45 f8          	cmp    %rax,-0x8(%rbp)
    892e:	7f 7e                	jg     89ae <safe_mul_func_int64_t_s_s+0xb2>
    8930:	48 83 7d f8 00       	cmpq   $0x0,-0x8(%rbp)
    8935:	7e 1d                	jle    8954 <safe_mul_func_int64_t_s_s+0x58>
    8937:	48 83 7d f0 00       	cmpq   $0x0,-0x10(%rbp)
    893c:	7f 16                	jg     8954 <safe_mul_func_int64_t_s_s+0x58>
    893e:	48 b8 00 00 00 00 00 	movabs $0x8000000000000000,%rax
    8945:	00 00 80 
    8948:	48 99                	cqto   
    894a:	48 f7 7d f8          	idivq  -0x8(%rbp)
    894e:	48 39 45 f0          	cmp    %rax,-0x10(%rbp)
    8952:	7c 5a                	jl     89ae <safe_mul_func_int64_t_s_s+0xb2>
    8954:	48 83 7d f8 00       	cmpq   $0x0,-0x8(%rbp)
    8959:	7f 1d                	jg     8978 <safe_mul_func_int64_t_s_s+0x7c>
    895b:	48 83 7d f0 00       	cmpq   $0x0,-0x10(%rbp)
    8960:	7e 16                	jle    8978 <safe_mul_func_int64_t_s_s+0x7c>
    8962:	48 b8 00 00 00 00 00 	movabs $0x8000000000000000,%rax
    8969:	00 00 80 
    896c:	48 99                	cqto   
    896e:	48 f7 7d f0          	idivq  -0x10(%rbp)
    8972:	48 39 45 f8          	cmp    %rax,-0x8(%rbp)
    8976:	7c 36                	jl     89ae <safe_mul_func_int64_t_s_s+0xb2>
    8978:	48 83 7d f8 00       	cmpq   $0x0,-0x8(%rbp)
    897d:	7f 24                	jg     89a3 <safe_mul_func_int64_t_s_s+0xa7>
    897f:	48 83 7d f0 00       	cmpq   $0x0,-0x10(%rbp)
    8984:	7f 1d                	jg     89a3 <safe_mul_func_int64_t_s_s+0xa7>
    8986:	48 83 7d f8 00       	cmpq   $0x0,-0x8(%rbp)
    898b:	74 16                	je     89a3 <safe_mul_func_int64_t_s_s+0xa7>
    898d:	48 b8 ff ff ff ff ff 	movabs $0x7fffffffffffffff,%rax
    8994:	ff ff 7f 
    8997:	48 99                	cqto   
    8999:	48 f7 7d f8          	idivq  -0x8(%rbp)
    899d:	48 39 45 f0          	cmp    %rax,-0x10(%rbp)
    89a1:	7c 0b                	jl     89ae <safe_mul_func_int64_t_s_s+0xb2>
    89a3:	48 8b 45 f8          	mov    -0x8(%rbp),%rax
    89a7:	48 0f af 45 f0       	imul   -0x10(%rbp),%rax
    89ac:	eb 04                	jmp    89b2 <safe_mul_func_int64_t_s_s+0xb6>
    89ae:	48 8b 45 f8          	mov    -0x8(%rbp),%rax
    89b2:	5d                   	pop    %rbp
    89b3:	c3                   	retq   

00000000000089b4 <safe_mod_func_int64_t_s_s>:
    89b4:	f3 0f 1e fa          	endbr64 
    89b8:	55                   	push   %rbp
    89b9:	48 89 e5             	mov    %rsp,%rbp
    89bc:	48 89 7d f8          	mov    %rdi,-0x8(%rbp)
    89c0:	48 89 75 f0          	mov    %rsi,-0x10(%rbp)
    89c4:	48 83 7d f0 00       	cmpq   $0x0,-0x10(%rbp)
    89c9:	74 26                	je     89f1 <safe_mod_func_int64_t_s_s+0x3d>
    89cb:	48 b8 00 00 00 00 00 	movabs $0x8000000000000000,%rax
    89d2:	00 00 80 
    89d5:	48 39 45 f8          	cmp    %rax,-0x8(%rbp)
    89d9:	75 07                	jne    89e2 <safe_mod_func_int64_t_s_s+0x2e>
    89db:	48 83 7d f0 ff       	cmpq   $0xffffffffffffffff,-0x10(%rbp)
    89e0:	74 0f                	je     89f1 <safe_mod_func_int64_t_s_s+0x3d>
    89e2:	48 8b 45 f8          	mov    -0x8(%rbp),%rax
    89e6:	48 99                	cqto   
    89e8:	48 f7 7d f0          	idivq  -0x10(%rbp)
    89ec:	48 89 d0             	mov    %rdx,%rax
    89ef:	eb 04                	jmp    89f5 <safe_mod_func_int64_t_s_s+0x41>
    89f1:	48 8b 45 f8          	mov    -0x8(%rbp),%rax
    89f5:	5d                   	pop    %rbp
    89f6:	c3                   	retq   

00000000000089f7 <safe_div_func_int64_t_s_s>:
    89f7:	f3 0f 1e fa          	endbr64 
    89fb:	55                   	push   %rbp
    89fc:	48 89 e5             	mov    %rsp,%rbp
    89ff:	48 89 7d f8          	mov    %rdi,-0x8(%rbp)
    8a03:	48 89 75 f0          	mov    %rsi,-0x10(%rbp)
    8a07:	48 83 7d f0 00       	cmpq   $0x0,-0x10(%rbp)
    8a0c:	74 23                	je     8a31 <safe_div_func_int64_t_s_s+0x3a>
    8a0e:	48 b8 00 00 00 00 00 	movabs $0x8000000000000000,%rax
    8a15:	00 00 80 
    8a18:	48 39 45 f8          	cmp    %rax,-0x8(%rbp)
    8a1c:	75 07                	jne    8a25 <safe_div_func_int64_t_s_s+0x2e>
    8a1e:	48 83 7d f0 ff       	cmpq   $0xffffffffffffffff,-0x10(%rbp)
    8a23:	74 0c                	je     8a31 <safe_div_func_int64_t_s_s+0x3a>
    8a25:	48 8b 45 f8          	mov    -0x8(%rbp),%rax
    8a29:	48 99                	cqto   
    8a2b:	48 f7 7d f0          	idivq  -0x10(%rbp)
    8a2f:	eb 04                	jmp    8a35 <safe_div_func_int64_t_s_s+0x3e>
    8a31:	48 8b 45 f8          	mov    -0x8(%rbp),%rax
    8a35:	5d                   	pop    %rbp
    8a36:	c3                   	retq   

0000000000008a37 <safe_lshift_func_int64_t_s_s>:
    8a37:	f3 0f 1e fa          	endbr64 
    8a3b:	55                   	push   %rbp
    8a3c:	48 89 e5             	mov    %rsp,%rbp
    8a3f:	48 89 7d f8          	mov    %rdi,-0x8(%rbp)
    8a43:	89 75 f4             	mov    %esi,-0xc(%rbp)
    8a46:	48 83 7d f8 00       	cmpq   $0x0,-0x8(%rbp)
    8a4b:	78 38                	js     8a85 <safe_lshift_func_int64_t_s_s+0x4e>
    8a4d:	83 7d f4 00          	cmpl   $0x0,-0xc(%rbp)
    8a51:	78 32                	js     8a85 <safe_lshift_func_int64_t_s_s+0x4e>
    8a53:	83 7d f4 1f          	cmpl   $0x1f,-0xc(%rbp)
    8a57:	7f 2c                	jg     8a85 <safe_lshift_func_int64_t_s_s+0x4e>
    8a59:	8b 45 f4             	mov    -0xc(%rbp),%eax
    8a5c:	48 ba ff ff ff ff ff 	movabs $0x7fffffffffffffff,%rdx
    8a63:	ff ff 7f 
    8a66:	89 c1                	mov    %eax,%ecx
    8a68:	48 d3 fa             	sar    %cl,%rdx
    8a6b:	48 89 d0             	mov    %rdx,%rax
    8a6e:	48 39 45 f8          	cmp    %rax,-0x8(%rbp)
    8a72:	7f 11                	jg     8a85 <safe_lshift_func_int64_t_s_s+0x4e>
    8a74:	8b 45 f4             	mov    -0xc(%rbp),%eax
    8a77:	48 8b 55 f8          	mov    -0x8(%rbp),%rdx
    8a7b:	89 c1                	mov    %eax,%ecx
    8a7d:	48 d3 e2             	shl    %cl,%rdx
    8a80:	48 89 d0             	mov    %rdx,%rax
    8a83:	eb 04                	jmp    8a89 <safe_lshift_func_int64_t_s_s+0x52>
    8a85:	48 8b 45 f8          	mov    -0x8(%rbp),%rax
    8a89:	5d                   	pop    %rbp
    8a8a:	c3                   	retq   

0000000000008a8b <safe_lshift_func_int64_t_s_u>:
    8a8b:	f3 0f 1e fa          	endbr64 
    8a8f:	55                   	push   %rbp
    8a90:	48 89 e5             	mov    %rsp,%rbp
    8a93:	48 89 7d f8          	mov    %rdi,-0x8(%rbp)
    8a97:	89 75 f4             	mov    %esi,-0xc(%rbp)
    8a9a:	48 83 7d f8 00       	cmpq   $0x0,-0x8(%rbp)
    8a9f:	78 32                	js     8ad3 <safe_lshift_func_int64_t_s_u+0x48>
    8aa1:	83 7d f4 1f          	cmpl   $0x1f,-0xc(%rbp)
    8aa5:	77 2c                	ja     8ad3 <safe_lshift_func_int64_t_s_u+0x48>
    8aa7:	8b 45 f4             	mov    -0xc(%rbp),%eax
    8aaa:	48 ba ff ff ff ff ff 	movabs $0x7fffffffffffffff,%rdx
    8ab1:	ff ff 7f 
    8ab4:	89 c1                	mov    %eax,%ecx
    8ab6:	48 d3 fa             	sar    %cl,%rdx
    8ab9:	48 89 d0             	mov    %rdx,%rax
    8abc:	48 39 45 f8          	cmp    %rax,-0x8(%rbp)
    8ac0:	7f 11                	jg     8ad3 <safe_lshift_func_int64_t_s_u+0x48>
    8ac2:	8b 45 f4             	mov    -0xc(%rbp),%eax
    8ac5:	48 8b 55 f8          	mov    -0x8(%rbp),%rdx
    8ac9:	89 c1                	mov    %eax,%ecx
    8acb:	48 d3 e2             	shl    %cl,%rdx
    8ace:	48 89 d0             	mov    %rdx,%rax
    8ad1:	eb 04                	jmp    8ad7 <safe_lshift_func_int64_t_s_u+0x4c>
    8ad3:	48 8b 45 f8          	mov    -0x8(%rbp),%rax
    8ad7:	5d                   	pop    %rbp
    8ad8:	c3                   	retq   

0000000000008ad9 <safe_rshift_func_int64_t_s_s>:
    8ad9:	f3 0f 1e fa          	endbr64 
    8add:	55                   	push   %rbp
    8ade:	48 89 e5             	mov    %rsp,%rbp
    8ae1:	48 89 7d f8          	mov    %rdi,-0x8(%rbp)
    8ae5:	89 75 f4             	mov    %esi,-0xc(%rbp)
    8ae8:	48 83 7d f8 00       	cmpq   $0x0,-0x8(%rbp)
    8aed:	78 1d                	js     8b0c <safe_rshift_func_int64_t_s_s+0x33>
    8aef:	83 7d f4 00          	cmpl   $0x0,-0xc(%rbp)
    8af3:	78 17                	js     8b0c <safe_rshift_func_int64_t_s_s+0x33>
    8af5:	83 7d f4 1f          	cmpl   $0x1f,-0xc(%rbp)
    8af9:	7f 11                	jg     8b0c <safe_rshift_func_int64_t_s_s+0x33>
    8afb:	8b 45 f4             	mov    -0xc(%rbp),%eax
    8afe:	48 8b 55 f8          	mov    -0x8(%rbp),%rdx
    8b02:	89 c1                	mov    %eax,%ecx
    8b04:	48 d3 fa             	sar    %cl,%rdx
    8b07:	48 89 d0             	mov    %rdx,%rax
    8b0a:	eb 04                	jmp    8b10 <safe_rshift_func_int64_t_s_s+0x37>
    8b0c:	48 8b 45 f8          	mov    -0x8(%rbp),%rax
    8b10:	5d                   	pop    %rbp
    8b11:	c3                   	retq   

0000000000008b12 <safe_rshift_func_int64_t_s_u>:
    8b12:	f3 0f 1e fa          	endbr64 
    8b16:	55                   	push   %rbp
    8b17:	48 89 e5             	mov    %rsp,%rbp
    8b1a:	48 89 7d f8          	mov    %rdi,-0x8(%rbp)
    8b1e:	89 75 f4             	mov    %esi,-0xc(%rbp)
    8b21:	48 83 7d f8 00       	cmpq   $0x0,-0x8(%rbp)
    8b26:	78 17                	js     8b3f <safe_rshift_func_int64_t_s_u+0x2d>
    8b28:	83 7d f4 1f          	cmpl   $0x1f,-0xc(%rbp)
    8b2c:	77 11                	ja     8b3f <safe_rshift_func_int64_t_s_u+0x2d>
    8b2e:	8b 45 f4             	mov    -0xc(%rbp),%eax
    8b31:	48 8b 55 f8          	mov    -0x8(%rbp),%rdx
    8b35:	89 c1                	mov    %eax,%ecx
    8b37:	48 d3 fa             	sar    %cl,%rdx
    8b3a:	48 89 d0             	mov    %rdx,%rax
    8b3d:	eb 04                	jmp    8b43 <safe_rshift_func_int64_t_s_u+0x31>
    8b3f:	48 8b 45 f8          	mov    -0x8(%rbp),%rax
    8b43:	5d                   	pop    %rbp
    8b44:	c3                   	retq   

0000000000008b45 <safe_unary_minus_func_uint8_t_u>:
    8b45:	f3 0f 1e fa          	endbr64 
    8b49:	55                   	push   %rbp
    8b4a:	48 89 e5             	mov    %rsp,%rbp
    8b4d:	89 f8                	mov    %edi,%eax
    8b4f:	88 45 fc             	mov    %al,-0x4(%rbp)
    8b52:	0f b6 45 fc          	movzbl -0x4(%rbp),%eax
    8b56:	f7 d8                	neg    %eax
    8b58:	5d                   	pop    %rbp
    8b59:	c3                   	retq   

0000000000008b5a <safe_add_func_uint8_t_u_u>:
    8b5a:	f3 0f 1e fa          	endbr64 
    8b5e:	55                   	push   %rbp
    8b5f:	48 89 e5             	mov    %rsp,%rbp
    8b62:	89 fa                	mov    %edi,%edx
    8b64:	89 f0                	mov    %esi,%eax
    8b66:	88 55 fc             	mov    %dl,-0x4(%rbp)
    8b69:	88 45 f8             	mov    %al,-0x8(%rbp)
    8b6c:	0f b6 55 fc          	movzbl -0x4(%rbp),%edx
    8b70:	0f b6 45 f8          	movzbl -0x8(%rbp),%eax
    8b74:	01 d0                	add    %edx,%eax
    8b76:	5d                   	pop    %rbp
    8b77:	c3                   	retq   

0000000000008b78 <safe_sub_func_uint8_t_u_u>:
    8b78:	f3 0f 1e fa          	endbr64 
    8b7c:	55                   	push   %rbp
    8b7d:	48 89 e5             	mov    %rsp,%rbp
    8b80:	89 fa                	mov    %edi,%edx
    8b82:	89 f0                	mov    %esi,%eax
    8b84:	88 55 fc             	mov    %dl,-0x4(%rbp)
    8b87:	88 45 f8             	mov    %al,-0x8(%rbp)
    8b8a:	0f b6 45 fc          	movzbl -0x4(%rbp),%eax
    8b8e:	2a 45 f8             	sub    -0x8(%rbp),%al
    8b91:	5d                   	pop    %rbp
    8b92:	c3                   	retq   

0000000000008b93 <safe_mul_func_uint8_t_u_u>:
    8b93:	f3 0f 1e fa          	endbr64 
    8b97:	55                   	push   %rbp
    8b98:	48 89 e5             	mov    %rsp,%rbp
    8b9b:	89 fa                	mov    %edi,%edx
    8b9d:	89 f0                	mov    %esi,%eax
    8b9f:	88 55 fc             	mov    %dl,-0x4(%rbp)
    8ba2:	88 45 f8             	mov    %al,-0x8(%rbp)
    8ba5:	0f b6 45 fc          	movzbl -0x4(%rbp),%eax
    8ba9:	f6 65 f8             	mulb   -0x8(%rbp)
    8bac:	5d                   	pop    %rbp
    8bad:	c3                   	retq   

0000000000008bae <safe_mod_func_uint8_t_u_u>:
    8bae:	f3 0f 1e fa          	endbr64 
    8bb2:	55                   	push   %rbp
    8bb3:	48 89 e5             	mov    %rsp,%rbp
    8bb6:	89 fa                	mov    %edi,%edx
    8bb8:	89 f0                	mov    %esi,%eax
    8bba:	88 55 fc             	mov    %dl,-0x4(%rbp)
    8bbd:	88 45 f8             	mov    %al,-0x8(%rbp)
    8bc0:	80 7d f8 00          	cmpb   $0x0,-0x8(%rbp)
    8bc4:	74 0f                	je     8bd5 <safe_mod_func_uint8_t_u_u+0x27>
    8bc6:	0f b6 45 fc          	movzbl -0x4(%rbp),%eax
    8bca:	0f b6 c0             	movzbl %al,%eax
    8bcd:	f6 75 f8             	divb   -0x8(%rbp)
    8bd0:	0f b6 c4             	movzbl %ah,%eax
    8bd3:	eb 04                	jmp    8bd9 <safe_mod_func_uint8_t_u_u+0x2b>
    8bd5:	0f b6 45 fc          	movzbl -0x4(%rbp),%eax
    8bd9:	5d                   	pop    %rbp
    8bda:	c3                   	retq   

0000000000008bdb <safe_div_func_uint8_t_u_u>:
    8bdb:	f3 0f 1e fa          	endbr64 
    8bdf:	55                   	push   %rbp
    8be0:	48 89 e5             	mov    %rsp,%rbp
    8be3:	89 fa                	mov    %edi,%edx
    8be5:	89 f0                	mov    %esi,%eax
    8be7:	88 55 fc             	mov    %dl,-0x4(%rbp)
    8bea:	88 45 f8             	mov    %al,-0x8(%rbp)
    8bed:	80 7d f8 00          	cmpb   $0x0,-0x8(%rbp)
    8bf1:	74 0c                	je     8bff <safe_div_func_uint8_t_u_u+0x24>
    8bf3:	0f b6 45 fc          	movzbl -0x4(%rbp),%eax
    8bf7:	0f b6 c0             	movzbl %al,%eax
    8bfa:	f6 75 f8             	divb   -0x8(%rbp)
    8bfd:	eb 04                	jmp    8c03 <safe_div_func_uint8_t_u_u+0x28>
    8bff:	0f b6 45 fc          	movzbl -0x4(%rbp),%eax
    8c03:	5d                   	pop    %rbp
    8c04:	c3                   	retq   

0000000000008c05 <safe_lshift_func_uint8_t_u_s>:
    8c05:	f3 0f 1e fa          	endbr64 
    8c09:	55                   	push   %rbp
    8c0a:	48 89 e5             	mov    %rsp,%rbp
    8c0d:	89 f8                	mov    %edi,%eax
    8c0f:	89 75 f8             	mov    %esi,-0x8(%rbp)
    8c12:	88 45 fc             	mov    %al,-0x4(%rbp)
    8c15:	83 7d f8 00          	cmpl   $0x0,-0x8(%rbp)
    8c19:	78 2b                	js     8c46 <safe_lshift_func_uint8_t_u_s+0x41>
    8c1b:	83 7d f8 1f          	cmpl   $0x1f,-0x8(%rbp)
    8c1f:	7f 25                	jg     8c46 <safe_lshift_func_uint8_t_u_s+0x41>
    8c21:	0f b6 55 fc          	movzbl -0x4(%rbp),%edx
    8c25:	8b 45 f8             	mov    -0x8(%rbp),%eax
    8c28:	be ff 00 00 00       	mov    $0xff,%esi
    8c2d:	89 c1                	mov    %eax,%ecx
    8c2f:	d3 fe                	sar    %cl,%esi
    8c31:	89 f0                	mov    %esi,%eax
    8c33:	39 c2                	cmp    %eax,%edx
    8c35:	7f 0f                	jg     8c46 <safe_lshift_func_uint8_t_u_s+0x41>
    8c37:	0f b6 55 fc          	movzbl -0x4(%rbp),%edx
    8c3b:	8b 45 f8             	mov    -0x8(%rbp),%eax
    8c3e:	89 c1                	mov    %eax,%ecx
    8c40:	d3 e2                	shl    %cl,%edx
    8c42:	89 d0                	mov    %edx,%eax
    8c44:	eb 04                	jmp    8c4a <safe_lshift_func_uint8_t_u_s+0x45>
    8c46:	0f b6 45 fc          	movzbl -0x4(%rbp),%eax
    8c4a:	5d                   	pop    %rbp
    8c4b:	c3                   	retq   

0000000000008c4c <safe_lshift_func_uint8_t_u_u>:
    8c4c:	f3 0f 1e fa          	endbr64 
    8c50:	55                   	push   %rbp
    8c51:	48 89 e5             	mov    %rsp,%rbp
    8c54:	89 f8                	mov    %edi,%eax
    8c56:	89 75 f8             	mov    %esi,-0x8(%rbp)
    8c59:	88 45 fc             	mov    %al,-0x4(%rbp)
    8c5c:	83 7d f8 1f          	cmpl   $0x1f,-0x8(%rbp)
    8c60:	77 25                	ja     8c87 <safe_lshift_func_uint8_t_u_u+0x3b>
    8c62:	0f b6 55 fc          	movzbl -0x4(%rbp),%edx
    8c66:	8b 45 f8             	mov    -0x8(%rbp),%eax
    8c69:	be ff 00 00 00       	mov    $0xff,%esi
    8c6e:	89 c1                	mov    %eax,%ecx
    8c70:	d3 fe                	sar    %cl,%esi
    8c72:	89 f0                	mov    %esi,%eax
    8c74:	39 c2                	cmp    %eax,%edx
    8c76:	7f 0f                	jg     8c87 <safe_lshift_func_uint8_t_u_u+0x3b>
    8c78:	0f b6 55 fc          	movzbl -0x4(%rbp),%edx
    8c7c:	8b 45 f8             	mov    -0x8(%rbp),%eax
    8c7f:	89 c1                	mov    %eax,%ecx
    8c81:	d3 e2                	shl    %cl,%edx
    8c83:	89 d0                	mov    %edx,%eax
    8c85:	eb 04                	jmp    8c8b <safe_lshift_func_uint8_t_u_u+0x3f>
    8c87:	0f b6 45 fc          	movzbl -0x4(%rbp),%eax
    8c8b:	5d                   	pop    %rbp
    8c8c:	c3                   	retq   

0000000000008c8d <safe_rshift_func_uint8_t_u_s>:
    8c8d:	f3 0f 1e fa          	endbr64 
    8c91:	55                   	push   %rbp
    8c92:	48 89 e5             	mov    %rsp,%rbp
    8c95:	89 f8                	mov    %edi,%eax
    8c97:	89 75 f8             	mov    %esi,-0x8(%rbp)
    8c9a:	88 45 fc             	mov    %al,-0x4(%rbp)
    8c9d:	83 7d f8 00          	cmpl   $0x0,-0x8(%rbp)
    8ca1:	78 15                	js     8cb8 <safe_rshift_func_uint8_t_u_s+0x2b>
    8ca3:	83 7d f8 1f          	cmpl   $0x1f,-0x8(%rbp)
    8ca7:	7f 0f                	jg     8cb8 <safe_rshift_func_uint8_t_u_s+0x2b>
    8ca9:	0f b6 55 fc          	movzbl -0x4(%rbp),%edx
    8cad:	8b 45 f8             	mov    -0x8(%rbp),%eax
    8cb0:	89 c1                	mov    %eax,%ecx
    8cb2:	d3 fa                	sar    %cl,%edx
    8cb4:	89 d0                	mov    %edx,%eax
    8cb6:	eb 04                	jmp    8cbc <safe_rshift_func_uint8_t_u_s+0x2f>
    8cb8:	0f b6 45 fc          	movzbl -0x4(%rbp),%eax
    8cbc:	5d                   	pop    %rbp
    8cbd:	c3                   	retq   

0000000000008cbe <safe_rshift_func_uint8_t_u_u>:
    8cbe:	f3 0f 1e fa          	endbr64 
    8cc2:	55                   	push   %rbp
    8cc3:	48 89 e5             	mov    %rsp,%rbp
    8cc6:	89 f8                	mov    %edi,%eax
    8cc8:	89 75 f8             	mov    %esi,-0x8(%rbp)
    8ccb:	88 45 fc             	mov    %al,-0x4(%rbp)
    8cce:	83 7d f8 1f          	cmpl   $0x1f,-0x8(%rbp)
    8cd2:	77 0f                	ja     8ce3 <safe_rshift_func_uint8_t_u_u+0x25>
    8cd4:	0f b6 55 fc          	movzbl -0x4(%rbp),%edx
    8cd8:	8b 45 f8             	mov    -0x8(%rbp),%eax
    8cdb:	89 c1                	mov    %eax,%ecx
    8cdd:	d3 fa                	sar    %cl,%edx
    8cdf:	89 d0                	mov    %edx,%eax
    8ce1:	eb 04                	jmp    8ce7 <safe_rshift_func_uint8_t_u_u+0x29>
    8ce3:	0f b6 45 fc          	movzbl -0x4(%rbp),%eax
    8ce7:	5d                   	pop    %rbp
    8ce8:	c3                   	retq   

0000000000008ce9 <safe_unary_minus_func_uint16_t_u>:
    8ce9:	f3 0f 1e fa          	endbr64 
    8ced:	55                   	push   %rbp
    8cee:	48 89 e5             	mov    %rsp,%rbp
    8cf1:	89 f8                	mov    %edi,%eax
    8cf3:	66 89 45 fc          	mov    %ax,-0x4(%rbp)
    8cf7:	0f b7 45 fc          	movzwl -0x4(%rbp),%eax
    8cfb:	f7 d8                	neg    %eax
    8cfd:	5d                   	pop    %rbp
    8cfe:	c3                   	retq   

0000000000008cff <safe_add_func_uint16_t_u_u>:
    8cff:	f3 0f 1e fa          	endbr64 
    8d03:	55                   	push   %rbp
    8d04:	48 89 e5             	mov    %rsp,%rbp
    8d07:	89 fa                	mov    %edi,%edx
    8d09:	89 f0                	mov    %esi,%eax
    8d0b:	66 89 55 fc          	mov    %dx,-0x4(%rbp)
    8d0f:	66 89 45 f8          	mov    %ax,-0x8(%rbp)
    8d13:	0f b7 55 fc          	movzwl -0x4(%rbp),%edx
    8d17:	0f b7 45 f8          	movzwl -0x8(%rbp),%eax
    8d1b:	01 d0                	add    %edx,%eax
    8d1d:	5d                   	pop    %rbp
    8d1e:	c3                   	retq   

0000000000008d1f <safe_sub_func_uint16_t_u_u>:
    8d1f:	f3 0f 1e fa          	endbr64 
    8d23:	55                   	push   %rbp
    8d24:	48 89 e5             	mov    %rsp,%rbp
    8d27:	89 fa                	mov    %edi,%edx
    8d29:	89 f0                	mov    %esi,%eax
    8d2b:	66 89 55 fc          	mov    %dx,-0x4(%rbp)
    8d2f:	66 89 45 f8          	mov    %ax,-0x8(%rbp)
    8d33:	0f b7 45 fc          	movzwl -0x4(%rbp),%eax
    8d37:	66 2b 45 f8          	sub    -0x8(%rbp),%ax
    8d3b:	5d                   	pop    %rbp
    8d3c:	c3                   	retq   

0000000000008d3d <safe_mul_func_uint16_t_u_u>:
    8d3d:	f3 0f 1e fa          	endbr64 
    8d41:	55                   	push   %rbp
    8d42:	48 89 e5             	mov    %rsp,%rbp
    8d45:	89 fa                	mov    %edi,%edx
    8d47:	89 f0                	mov    %esi,%eax
    8d49:	66 89 55 fc          	mov    %dx,-0x4(%rbp)
    8d4d:	66 89 45 f8          	mov    %ax,-0x8(%rbp)
    8d51:	0f b7 45 fc          	movzwl -0x4(%rbp),%eax
    8d55:	66 0f af 45 f8       	imul   -0x8(%rbp),%ax
    8d5a:	5d                   	pop    %rbp
    8d5b:	c3                   	retq   

0000000000008d5c <safe_mod_func_uint16_t_u_u>:
    8d5c:	f3 0f 1e fa          	endbr64 
    8d60:	55                   	push   %rbp
    8d61:	48 89 e5             	mov    %rsp,%rbp
    8d64:	89 fa                	mov    %edi,%edx
    8d66:	89 f0                	mov    %esi,%eax
    8d68:	66 89 55 fc          	mov    %dx,-0x4(%rbp)
    8d6c:	66 89 45 f8          	mov    %ax,-0x8(%rbp)
    8d70:	66 83 7d f8 00       	cmpw   $0x0,-0x8(%rbp)
    8d75:	74 11                	je     8d88 <safe_mod_func_uint16_t_u_u+0x2c>
    8d77:	0f b7 45 fc          	movzwl -0x4(%rbp),%eax
    8d7b:	ba 00 00 00 00       	mov    $0x0,%edx
    8d80:	66 f7 75 f8          	divw   -0x8(%rbp)
    8d84:	89 d0                	mov    %edx,%eax
    8d86:	eb 04                	jmp    8d8c <safe_mod_func_uint16_t_u_u+0x30>
    8d88:	0f b7 45 fc          	movzwl -0x4(%rbp),%eax
    8d8c:	5d                   	pop    %rbp
    8d8d:	c3                   	retq   

0000000000008d8e <safe_div_func_uint16_t_u_u>:
    8d8e:	f3 0f 1e fa          	endbr64 
    8d92:	55                   	push   %rbp
    8d93:	48 89 e5             	mov    %rsp,%rbp
    8d96:	89 fa                	mov    %edi,%edx
    8d98:	89 f0                	mov    %esi,%eax
    8d9a:	66 89 55 fc          	mov    %dx,-0x4(%rbp)
    8d9e:	66 89 45 f8          	mov    %ax,-0x8(%rbp)
    8da2:	66 83 7d f8 00       	cmpw   $0x0,-0x8(%rbp)
    8da7:	74 0f                	je     8db8 <safe_div_func_uint16_t_u_u+0x2a>
    8da9:	0f b7 45 fc          	movzwl -0x4(%rbp),%eax
    8dad:	ba 00 00 00 00       	mov    $0x0,%edx
    8db2:	66 f7 75 f8          	divw   -0x8(%rbp)
    8db6:	eb 04                	jmp    8dbc <safe_div_func_uint16_t_u_u+0x2e>
    8db8:	0f b7 45 fc          	movzwl -0x4(%rbp),%eax
    8dbc:	5d                   	pop    %rbp
    8dbd:	c3                   	retq   

0000000000008dbe <safe_lshift_func_uint16_t_u_s>:
    8dbe:	f3 0f 1e fa          	endbr64 
    8dc2:	55                   	push   %rbp
    8dc3:	48 89 e5             	mov    %rsp,%rbp
    8dc6:	89 f8                	mov    %edi,%eax
    8dc8:	89 75 f8             	mov    %esi,-0x8(%rbp)
    8dcb:	66 89 45 fc          	mov    %ax,-0x4(%rbp)
    8dcf:	83 7d f8 00          	cmpl   $0x0,-0x8(%rbp)
    8dd3:	78 2b                	js     8e00 <safe_lshift_func_uint16_t_u_s+0x42>
    8dd5:	83 7d f8 1f          	cmpl   $0x1f,-0x8(%rbp)
    8dd9:	7f 25                	jg     8e00 <safe_lshift_func_uint16_t_u_s+0x42>
    8ddb:	0f b7 55 fc          	movzwl -0x4(%rbp),%edx
    8ddf:	8b 45 f8             	mov    -0x8(%rbp),%eax
    8de2:	be ff ff 00 00       	mov    $0xffff,%esi
    8de7:	89 c1                	mov    %eax,%ecx
    8de9:	d3 fe                	sar    %cl,%esi
    8deb:	89 f0                	mov    %esi,%eax
    8ded:	39 c2                	cmp    %eax,%edx
    8def:	7f 0f                	jg     8e00 <safe_lshift_func_uint16_t_u_s+0x42>
    8df1:	0f b7 55 fc          	movzwl -0x4(%rbp),%edx
    8df5:	8b 45 f8             	mov    -0x8(%rbp),%eax
    8df8:	89 c1                	mov    %eax,%ecx
    8dfa:	d3 e2                	shl    %cl,%edx
    8dfc:	89 d0                	mov    %edx,%eax
    8dfe:	eb 04                	jmp    8e04 <safe_lshift_func_uint16_t_u_s+0x46>
    8e00:	0f b7 45 fc          	movzwl -0x4(%rbp),%eax
    8e04:	5d                   	pop    %rbp
    8e05:	c3                   	retq   

0000000000008e06 <safe_lshift_func_uint16_t_u_u>:
    8e06:	f3 0f 1e fa          	endbr64 
    8e0a:	55                   	push   %rbp
    8e0b:	48 89 e5             	mov    %rsp,%rbp
    8e0e:	89 f8                	mov    %edi,%eax
    8e10:	89 75 f8             	mov    %esi,-0x8(%rbp)
    8e13:	66 89 45 fc          	mov    %ax,-0x4(%rbp)
    8e17:	83 7d f8 1f          	cmpl   $0x1f,-0x8(%rbp)
    8e1b:	77 25                	ja     8e42 <safe_lshift_func_uint16_t_u_u+0x3c>
    8e1d:	0f b7 55 fc          	movzwl -0x4(%rbp),%edx
    8e21:	8b 45 f8             	mov    -0x8(%rbp),%eax
    8e24:	be ff ff 00 00       	mov    $0xffff,%esi
    8e29:	89 c1                	mov    %eax,%ecx
    8e2b:	d3 fe                	sar    %cl,%esi
    8e2d:	89 f0                	mov    %esi,%eax
    8e2f:	39 c2                	cmp    %eax,%edx
    8e31:	7f 0f                	jg     8e42 <safe_lshift_func_uint16_t_u_u+0x3c>
    8e33:	0f b7 55 fc          	movzwl -0x4(%rbp),%edx
    8e37:	8b 45 f8             	mov    -0x8(%rbp),%eax
    8e3a:	89 c1                	mov    %eax,%ecx
    8e3c:	d3 e2                	shl    %cl,%edx
    8e3e:	89 d0                	mov    %edx,%eax
    8e40:	eb 04                	jmp    8e46 <safe_lshift_func_uint16_t_u_u+0x40>
    8e42:	0f b7 45 fc          	movzwl -0x4(%rbp),%eax
    8e46:	5d                   	pop    %rbp
    8e47:	c3                   	retq   

0000000000008e48 <safe_rshift_func_uint16_t_u_s>:
    8e48:	f3 0f 1e fa          	endbr64 
    8e4c:	55                   	push   %rbp
    8e4d:	48 89 e5             	mov    %rsp,%rbp
    8e50:	89 f8                	mov    %edi,%eax
    8e52:	89 75 f8             	mov    %esi,-0x8(%rbp)
    8e55:	66 89 45 fc          	mov    %ax,-0x4(%rbp)
    8e59:	83 7d f8 00          	cmpl   $0x0,-0x8(%rbp)
    8e5d:	78 15                	js     8e74 <safe_rshift_func_uint16_t_u_s+0x2c>
    8e5f:	83 7d f8 1f          	cmpl   $0x1f,-0x8(%rbp)
    8e63:	7f 0f                	jg     8e74 <safe_rshift_func_uint16_t_u_s+0x2c>
    8e65:	0f b7 55 fc          	movzwl -0x4(%rbp),%edx
    8e69:	8b 45 f8             	mov    -0x8(%rbp),%eax
    8e6c:	89 c1                	mov    %eax,%ecx
    8e6e:	d3 fa                	sar    %cl,%edx
    8e70:	89 d0                	mov    %edx,%eax
    8e72:	eb 04                	jmp    8e78 <safe_rshift_func_uint16_t_u_s+0x30>
    8e74:	0f b7 45 fc          	movzwl -0x4(%rbp),%eax
    8e78:	5d                   	pop    %rbp
    8e79:	c3                   	retq   

0000000000008e7a <safe_rshift_func_uint16_t_u_u>:
    8e7a:	f3 0f 1e fa          	endbr64 
    8e7e:	55                   	push   %rbp
    8e7f:	48 89 e5             	mov    %rsp,%rbp
    8e82:	89 f8                	mov    %edi,%eax
    8e84:	89 75 f8             	mov    %esi,-0x8(%rbp)
    8e87:	66 89 45 fc          	mov    %ax,-0x4(%rbp)
    8e8b:	83 7d f8 1f          	cmpl   $0x1f,-0x8(%rbp)
    8e8f:	77 0f                	ja     8ea0 <safe_rshift_func_uint16_t_u_u+0x26>
    8e91:	0f b7 55 fc          	movzwl -0x4(%rbp),%edx
    8e95:	8b 45 f8             	mov    -0x8(%rbp),%eax
    8e98:	89 c1                	mov    %eax,%ecx
    8e9a:	d3 fa                	sar    %cl,%edx
    8e9c:	89 d0                	mov    %edx,%eax
    8e9e:	eb 04                	jmp    8ea4 <safe_rshift_func_uint16_t_u_u+0x2a>
    8ea0:	0f b7 45 fc          	movzwl -0x4(%rbp),%eax
    8ea4:	5d                   	pop    %rbp
    8ea5:	c3                   	retq   

0000000000008ea6 <safe_unary_minus_func_uint32_t_u>:
    8ea6:	f3 0f 1e fa          	endbr64 
    8eaa:	55                   	push   %rbp
    8eab:	48 89 e5             	mov    %rsp,%rbp
    8eae:	89 7d fc             	mov    %edi,-0x4(%rbp)
    8eb1:	8b 45 fc             	mov    -0x4(%rbp),%eax
    8eb4:	f7 d8                	neg    %eax
    8eb6:	5d                   	pop    %rbp
    8eb7:	c3                   	retq   

0000000000008eb8 <safe_add_func_uint32_t_u_u>:
    8eb8:	f3 0f 1e fa          	endbr64 
    8ebc:	55                   	push   %rbp
    8ebd:	48 89 e5             	mov    %rsp,%rbp
    8ec0:	89 7d fc             	mov    %edi,-0x4(%rbp)
    8ec3:	89 75 f8             	mov    %esi,-0x8(%rbp)
    8ec6:	8b 55 fc             	mov    -0x4(%rbp),%edx
    8ec9:	8b 45 f8             	mov    -0x8(%rbp),%eax
    8ecc:	01 d0                	add    %edx,%eax
    8ece:	5d                   	pop    %rbp
    8ecf:	c3                   	retq   

0000000000008ed0 <safe_sub_func_uint32_t_u_u>:
    8ed0:	f3 0f 1e fa          	endbr64 
    8ed4:	55                   	push   %rbp
    8ed5:	48 89 e5             	mov    %rsp,%rbp
    8ed8:	89 7d fc             	mov    %edi,-0x4(%rbp)
    8edb:	89 75 f8             	mov    %esi,-0x8(%rbp)
    8ede:	8b 45 fc             	mov    -0x4(%rbp),%eax
    8ee1:	2b 45 f8             	sub    -0x8(%rbp),%eax
    8ee4:	5d                   	pop    %rbp
    8ee5:	c3                   	retq   

0000000000008ee6 <safe_mul_func_uint32_t_u_u>:
    8ee6:	f3 0f 1e fa          	endbr64 
    8eea:	55                   	push   %rbp
    8eeb:	48 89 e5             	mov    %rsp,%rbp
    8eee:	89 7d fc             	mov    %edi,-0x4(%rbp)
    8ef1:	89 75 f8             	mov    %esi,-0x8(%rbp)
    8ef4:	8b 45 fc             	mov    -0x4(%rbp),%eax
    8ef7:	0f af 45 f8          	imul   -0x8(%rbp),%eax
    8efb:	5d                   	pop    %rbp
    8efc:	c3                   	retq   

0000000000008efd <safe_mod_func_uint32_t_u_u>:
    8efd:	f3 0f 1e fa          	endbr64 
    8f01:	55                   	push   %rbp
    8f02:	48 89 e5             	mov    %rsp,%rbp
    8f05:	89 7d fc             	mov    %edi,-0x4(%rbp)
    8f08:	89 75 f8             	mov    %esi,-0x8(%rbp)
    8f0b:	83 7d f8 00          	cmpl   $0x0,-0x8(%rbp)
    8f0f:	74 0f                	je     8f20 <safe_mod_func_uint32_t_u_u+0x23>
    8f11:	8b 45 fc             	mov    -0x4(%rbp),%eax
    8f14:	ba 00 00 00 00       	mov    $0x0,%edx
    8f19:	f7 75 f8             	divl   -0x8(%rbp)
    8f1c:	89 d0                	mov    %edx,%eax
    8f1e:	eb 03                	jmp    8f23 <safe_mod_func_uint32_t_u_u+0x26>
    8f20:	8b 45 fc             	mov    -0x4(%rbp),%eax
    8f23:	5d                   	pop    %rbp
    8f24:	c3                   	retq   

0000000000008f25 <safe_div_func_uint32_t_u_u>:
    8f25:	f3 0f 1e fa          	endbr64 
    8f29:	55                   	push   %rbp
    8f2a:	48 89 e5             	mov    %rsp,%rbp
    8f2d:	89 7d fc             	mov    %edi,-0x4(%rbp)
    8f30:	89 75 f8             	mov    %esi,-0x8(%rbp)
    8f33:	83 7d f8 00          	cmpl   $0x0,-0x8(%rbp)
    8f37:	74 0d                	je     8f46 <safe_div_func_uint32_t_u_u+0x21>
    8f39:	8b 45 fc             	mov    -0x4(%rbp),%eax
    8f3c:	ba 00 00 00 00       	mov    $0x0,%edx
    8f41:	f7 75 f8             	divl   -0x8(%rbp)
    8f44:	eb 03                	jmp    8f49 <safe_div_func_uint32_t_u_u+0x24>
    8f46:	8b 45 fc             	mov    -0x4(%rbp),%eax
    8f49:	5d                   	pop    %rbp
    8f4a:	c3                   	retq   

0000000000008f4b <safe_lshift_func_uint32_t_u_s>:
    8f4b:	f3 0f 1e fa          	endbr64 
    8f4f:	55                   	push   %rbp
    8f50:	48 89 e5             	mov    %rsp,%rbp
    8f53:	89 7d fc             	mov    %edi,-0x4(%rbp)
    8f56:	89 75 f8             	mov    %esi,-0x8(%rbp)
    8f59:	83 7d f8 00          	cmpl   $0x0,-0x8(%rbp)
    8f5d:	78 27                	js     8f86 <safe_lshift_func_uint32_t_u_s+0x3b>
    8f5f:	83 7d f8 1f          	cmpl   $0x1f,-0x8(%rbp)
    8f63:	7f 21                	jg     8f86 <safe_lshift_func_uint32_t_u_s+0x3b>
    8f65:	8b 45 f8             	mov    -0x8(%rbp),%eax
    8f68:	ba ff ff ff ff       	mov    $0xffffffff,%edx
    8f6d:	89 c1                	mov    %eax,%ecx
    8f6f:	d3 ea                	shr    %cl,%edx
    8f71:	89 d0                	mov    %edx,%eax
    8f73:	39 45 fc             	cmp    %eax,-0x4(%rbp)
    8f76:	77 0e                	ja     8f86 <safe_lshift_func_uint32_t_u_s+0x3b>
    8f78:	8b 45 f8             	mov    -0x8(%rbp),%eax
    8f7b:	8b 55 fc             	mov    -0x4(%rbp),%edx
    8f7e:	89 c1                	mov    %eax,%ecx
    8f80:	d3 e2                	shl    %cl,%edx
    8f82:	89 d0                	mov    %edx,%eax
    8f84:	eb 03                	jmp    8f89 <safe_lshift_func_uint32_t_u_s+0x3e>
    8f86:	8b 45 fc             	mov    -0x4(%rbp),%eax
    8f89:	5d                   	pop    %rbp
    8f8a:	c3                   	retq   

0000000000008f8b <safe_lshift_func_uint32_t_u_u>:
    8f8b:	f3 0f 1e fa          	endbr64 
    8f8f:	55                   	push   %rbp
    8f90:	48 89 e5             	mov    %rsp,%rbp
    8f93:	89 7d fc             	mov    %edi,-0x4(%rbp)
    8f96:	89 75 f8             	mov    %esi,-0x8(%rbp)
    8f99:	83 7d f8 1f          	cmpl   $0x1f,-0x8(%rbp)
    8f9d:	77 21                	ja     8fc0 <safe_lshift_func_uint32_t_u_u+0x35>
    8f9f:	8b 45 f8             	mov    -0x8(%rbp),%eax
    8fa2:	ba ff ff ff ff       	mov    $0xffffffff,%edx
    8fa7:	89 c1                	mov    %eax,%ecx
    8fa9:	d3 ea                	shr    %cl,%edx
    8fab:	89 d0                	mov    %edx,%eax
    8fad:	39 45 fc             	cmp    %eax,-0x4(%rbp)
    8fb0:	77 0e                	ja     8fc0 <safe_lshift_func_uint32_t_u_u+0x35>
    8fb2:	8b 45 f8             	mov    -0x8(%rbp),%eax
    8fb5:	8b 55 fc             	mov    -0x4(%rbp),%edx
    8fb8:	89 c1                	mov    %eax,%ecx
    8fba:	d3 e2                	shl    %cl,%edx
    8fbc:	89 d0                	mov    %edx,%eax
    8fbe:	eb 03                	jmp    8fc3 <safe_lshift_func_uint32_t_u_u+0x38>
    8fc0:	8b 45 fc             	mov    -0x4(%rbp),%eax
    8fc3:	5d                   	pop    %rbp
    8fc4:	c3                   	retq   

0000000000008fc5 <safe_rshift_func_uint32_t_u_s>:
    8fc5:	f3 0f 1e fa          	endbr64 
    8fc9:	55                   	push   %rbp
    8fca:	48 89 e5             	mov    %rsp,%rbp
    8fcd:	89 7d fc             	mov    %edi,-0x4(%rbp)
    8fd0:	89 75 f8             	mov    %esi,-0x8(%rbp)
    8fd3:	83 7d f8 00          	cmpl   $0x0,-0x8(%rbp)
    8fd7:	78 14                	js     8fed <safe_rshift_func_uint32_t_u_s+0x28>
    8fd9:	83 7d f8 1f          	cmpl   $0x1f,-0x8(%rbp)
    8fdd:	7f 0e                	jg     8fed <safe_rshift_func_uint32_t_u_s+0x28>
    8fdf:	8b 45 f8             	mov    -0x8(%rbp),%eax
    8fe2:	8b 55 fc             	mov    -0x4(%rbp),%edx
    8fe5:	89 c1                	mov    %eax,%ecx
    8fe7:	d3 ea                	shr    %cl,%edx
    8fe9:	89 d0                	mov    %edx,%eax
    8feb:	eb 03                	jmp    8ff0 <safe_rshift_func_uint32_t_u_s+0x2b>
    8fed:	8b 45 fc             	mov    -0x4(%rbp),%eax
    8ff0:	5d                   	pop    %rbp
    8ff1:	c3                   	retq   

0000000000008ff2 <safe_rshift_func_uint32_t_u_u>:
    8ff2:	f3 0f 1e fa          	endbr64 
    8ff6:	55                   	push   %rbp
    8ff7:	48 89 e5             	mov    %rsp,%rbp
    8ffa:	89 7d fc             	mov    %edi,-0x4(%rbp)
    8ffd:	89 75 f8             	mov    %esi,-0x8(%rbp)
    9000:	83 7d f8 1f          	cmpl   $0x1f,-0x8(%rbp)
    9004:	77 0e                	ja     9014 <safe_rshift_func_uint32_t_u_u+0x22>
    9006:	8b 45 f8             	mov    -0x8(%rbp),%eax
    9009:	8b 55 fc             	mov    -0x4(%rbp),%edx
    900c:	89 c1                	mov    %eax,%ecx
    900e:	d3 ea                	shr    %cl,%edx
    9010:	89 d0                	mov    %edx,%eax
    9012:	eb 03                	jmp    9017 <safe_rshift_func_uint32_t_u_u+0x25>
    9014:	8b 45 fc             	mov    -0x4(%rbp),%eax
    9017:	5d                   	pop    %rbp
    9018:	c3                   	retq   

0000000000009019 <safe_unary_minus_func_uint64_t_u>:
    9019:	f3 0f 1e fa          	endbr64 
    901d:	55                   	push   %rbp
    901e:	48 89 e5             	mov    %rsp,%rbp
    9021:	48 89 7d f8          	mov    %rdi,-0x8(%rbp)
    9025:	48 8b 45 f8          	mov    -0x8(%rbp),%rax
    9029:	48 f7 d8             	neg    %rax
    902c:	5d                   	pop    %rbp
    902d:	c3                   	retq   

000000000000902e <safe_add_func_uint64_t_u_u>:
    902e:	f3 0f 1e fa          	endbr64 
    9032:	55                   	push   %rbp
    9033:	48 89 e5             	mov    %rsp,%rbp
    9036:	48 89 7d f8          	mov    %rdi,-0x8(%rbp)
    903a:	48 89 75 f0          	mov    %rsi,-0x10(%rbp)
    903e:	48 8b 55 f8          	mov    -0x8(%rbp),%rdx
    9042:	48 8b 45 f0          	mov    -0x10(%rbp),%rax
    9046:	48 01 d0             	add    %rdx,%rax
    9049:	5d                   	pop    %rbp
    904a:	c3                   	retq   

000000000000904b <safe_sub_func_uint64_t_u_u>:
    904b:	f3 0f 1e fa          	endbr64 
    904f:	55                   	push   %rbp
    9050:	48 89 e5             	mov    %rsp,%rbp
    9053:	48 89 7d f8          	mov    %rdi,-0x8(%rbp)
    9057:	48 89 75 f0          	mov    %rsi,-0x10(%rbp)
    905b:	48 8b 45 f8          	mov    -0x8(%rbp),%rax
    905f:	48 2b 45 f0          	sub    -0x10(%rbp),%rax
    9063:	5d                   	pop    %rbp
    9064:	c3                   	retq   

0000000000009065 <safe_mul_func_uint64_t_u_u>:
    9065:	f3 0f 1e fa          	endbr64 
    9069:	55                   	push   %rbp
    906a:	48 89 e5             	mov    %rsp,%rbp
    906d:	48 89 7d f8          	mov    %rdi,-0x8(%rbp)
    9071:	48 89 75 f0          	mov    %rsi,-0x10(%rbp)
    9075:	48 8b 45 f8          	mov    -0x8(%rbp),%rax
    9079:	48 0f af 45 f0       	imul   -0x10(%rbp),%rax
    907e:	5d                   	pop    %rbp
    907f:	c3                   	retq   

0000000000009080 <safe_mod_func_uint64_t_u_u>:
    9080:	f3 0f 1e fa          	endbr64 
    9084:	55                   	push   %rbp
    9085:	48 89 e5             	mov    %rsp,%rbp
    9088:	48 89 7d f8          	mov    %rdi,-0x8(%rbp)
    908c:	48 89 75 f0          	mov    %rsi,-0x10(%rbp)
    9090:	48 83 7d f0 00       	cmpq   $0x0,-0x10(%rbp)
    9095:	74 12                	je     90a9 <safe_mod_func_uint64_t_u_u+0x29>
    9097:	48 8b 45 f8          	mov    -0x8(%rbp),%rax
    909b:	ba 00 00 00 00       	mov    $0x0,%edx
    90a0:	48 f7 75 f0          	divq   -0x10(%rbp)
    90a4:	48 89 d0             	mov    %rdx,%rax
    90a7:	eb 04                	jmp    90ad <safe_mod_func_uint64_t_u_u+0x2d>
    90a9:	48 8b 45 f8          	mov    -0x8(%rbp),%rax
    90ad:	5d                   	pop    %rbp
    90ae:	c3                   	retq   

00000000000090af <safe_div_func_uint64_t_u_u>:
    90af:	f3 0f 1e fa          	endbr64 
    90b3:	55                   	push   %rbp
    90b4:	48 89 e5             	mov    %rsp,%rbp
    90b7:	48 89 7d f8          	mov    %rdi,-0x8(%rbp)
    90bb:	48 89 75 f0          	mov    %rsi,-0x10(%rbp)
    90bf:	48 83 7d f0 00       	cmpq   $0x0,-0x10(%rbp)
    90c4:	74 0f                	je     90d5 <safe_div_func_uint64_t_u_u+0x26>
    90c6:	48 8b 45 f8          	mov    -0x8(%rbp),%rax
    90ca:	ba 00 00 00 00       	mov    $0x0,%edx
    90cf:	48 f7 75 f0          	divq   -0x10(%rbp)
    90d3:	eb 04                	jmp    90d9 <safe_div_func_uint64_t_u_u+0x2a>
    90d5:	48 8b 45 f8          	mov    -0x8(%rbp),%rax
    90d9:	5d                   	pop    %rbp
    90da:	c3                   	retq   

00000000000090db <safe_lshift_func_uint64_t_u_s>:
    90db:	f3 0f 1e fa          	endbr64 
    90df:	55                   	push   %rbp
    90e0:	48 89 e5             	mov    %rsp,%rbp
    90e3:	48 89 7d f8          	mov    %rdi,-0x8(%rbp)
    90e7:	89 75 f4             	mov    %esi,-0xc(%rbp)
    90ea:	83 7d f4 00          	cmpl   $0x0,-0xc(%rbp)
    90ee:	78 2f                	js     911f <safe_lshift_func_uint64_t_u_s+0x44>
    90f0:	83 7d f4 1f          	cmpl   $0x1f,-0xc(%rbp)
    90f4:	7f 29                	jg     911f <safe_lshift_func_uint64_t_u_s+0x44>
    90f6:	8b 45 f4             	mov    -0xc(%rbp),%eax
    90f9:	48 c7 c2 ff ff ff ff 	mov    $0xffffffffffffffff,%rdx
    9100:	89 c1                	mov    %eax,%ecx
    9102:	48 d3 ea             	shr    %cl,%rdx
    9105:	48 89 d0             	mov    %rdx,%rax
    9108:	48 39 45 f8          	cmp    %rax,-0x8(%rbp)
    910c:	77 11                	ja     911f <safe_lshift_func_uint64_t_u_s+0x44>
    910e:	8b 45 f4             	mov    -0xc(%rbp),%eax
    9111:	48 8b 55 f8          	mov    -0x8(%rbp),%rdx
    9115:	89 c1                	mov    %eax,%ecx
    9117:	48 d3 e2             	shl    %cl,%rdx
    911a:	48 89 d0             	mov    %rdx,%rax
    911d:	eb 04                	jmp    9123 <safe_lshift_func_uint64_t_u_s+0x48>
    911f:	48 8b 45 f8          	mov    -0x8(%rbp),%rax
    9123:	5d                   	pop    %rbp
    9124:	c3                   	retq   

0000000000009125 <safe_lshift_func_uint64_t_u_u>:
    9125:	f3 0f 1e fa          	endbr64 
    9129:	55                   	push   %rbp
    912a:	48 89 e5             	mov    %rsp,%rbp
    912d:	48 89 7d f8          	mov    %rdi,-0x8(%rbp)
    9131:	89 75 f4             	mov    %esi,-0xc(%rbp)
    9134:	83 7d f4 1f          	cmpl   $0x1f,-0xc(%rbp)
    9138:	77 29                	ja     9163 <safe_lshift_func_uint64_t_u_u+0x3e>
    913a:	8b 45 f4             	mov    -0xc(%rbp),%eax
    913d:	48 c7 c2 ff ff ff ff 	mov    $0xffffffffffffffff,%rdx
    9144:	89 c1                	mov    %eax,%ecx
    9146:	48 d3 ea             	shr    %cl,%rdx
    9149:	48 89 d0             	mov    %rdx,%rax
    914c:	48 39 45 f8          	cmp    %rax,-0x8(%rbp)
    9150:	77 11                	ja     9163 <safe_lshift_func_uint64_t_u_u+0x3e>
    9152:	8b 45 f4             	mov    -0xc(%rbp),%eax
    9155:	48 8b 55 f8          	mov    -0x8(%rbp),%rdx
    9159:	89 c1                	mov    %eax,%ecx
    915b:	48 d3 e2             	shl    %cl,%rdx
    915e:	48 89 d0             	mov    %rdx,%rax
    9161:	eb 04                	jmp    9167 <safe_lshift_func_uint64_t_u_u+0x42>
    9163:	48 8b 45 f8          	mov    -0x8(%rbp),%rax
    9167:	5d                   	pop    %rbp
    9168:	c3                   	retq   

0000000000009169 <safe_rshift_func_uint64_t_u_s>:
    9169:	f3 0f 1e fa          	endbr64 
    916d:	55                   	push   %rbp
    916e:	48 89 e5             	mov    %rsp,%rbp
    9171:	48 89 7d f8          	mov    %rdi,-0x8(%rbp)
    9175:	89 75 f4             	mov    %esi,-0xc(%rbp)
    9178:	83 7d f4 00          	cmpl   $0x0,-0xc(%rbp)
    917c:	78 17                	js     9195 <safe_rshift_func_uint64_t_u_s+0x2c>
    917e:	83 7d f4 1f          	cmpl   $0x1f,-0xc(%rbp)
    9182:	7f 11                	jg     9195 <safe_rshift_func_uint64_t_u_s+0x2c>
    9184:	8b 45 f4             	mov    -0xc(%rbp),%eax
    9187:	48 8b 55 f8          	mov    -0x8(%rbp),%rdx
    918b:	89 c1                	mov    %eax,%ecx
    918d:	48 d3 ea             	shr    %cl,%rdx
    9190:	48 89 d0             	mov    %rdx,%rax
    9193:	eb 04                	jmp    9199 <safe_rshift_func_uint64_t_u_s+0x30>
    9195:	48 8b 45 f8          	mov    -0x8(%rbp),%rax
    9199:	5d                   	pop    %rbp
    919a:	c3                   	retq   

000000000000919b <safe_rshift_func_uint64_t_u_u>:
    919b:	f3 0f 1e fa          	endbr64 
    919f:	55                   	push   %rbp
    91a0:	48 89 e5             	mov    %rsp,%rbp
    91a3:	48 89 7d f8          	mov    %rdi,-0x8(%rbp)
    91a7:	89 75 f4             	mov    %esi,-0xc(%rbp)
    91aa:	83 7d f4 1f          	cmpl   $0x1f,-0xc(%rbp)
    91ae:	77 11                	ja     91c1 <safe_rshift_func_uint64_t_u_u+0x26>
    91b0:	8b 45 f4             	mov    -0xc(%rbp),%eax
    91b3:	48 8b 55 f8          	mov    -0x8(%rbp),%rdx
    91b7:	89 c1                	mov    %eax,%ecx
    91b9:	48 d3 ea             	shr    %cl,%rdx
    91bc:	48 89 d0             	mov    %rdx,%rax
    91bf:	eb 04                	jmp    91c5 <safe_rshift_func_uint64_t_u_u+0x2a>
    91c1:	48 8b 45 f8          	mov    -0x8(%rbp),%rax
    91c5:	5d                   	pop    %rbp
    91c6:	c3                   	retq   

00000000000091c7 <safe_add_func_float_f_f>:
    91c7:	f3 0f 1e fa          	endbr64 
    91cb:	55                   	push   %rbp
    91cc:	48 89 e5             	mov    %rsp,%rbp
    91cf:	f3 0f 11 45 fc       	movss  %xmm0,-0x4(%rbp)
    91d4:	f3 0f 11 4d f8       	movss  %xmm1,-0x8(%rbp)
    91d9:	f3 0f 10 4d fc       	movss  -0x4(%rbp),%xmm1
    91de:	f3 0f 10 05 ce bd 00 	movss  0xbdce(%rip),%xmm0        # 14fb4 <l_655.4596+0x14>
    91e5:	00 
    91e6:	f3 0f 59 c8          	mulss  %xmm0,%xmm1
    91ea:	f3 0f 10 55 f8       	movss  -0x8(%rbp),%xmm2
    91ef:	f3 0f 10 05 bd bd 00 	movss  0xbdbd(%rip),%xmm0        # 14fb4 <l_655.4596+0x14>
    91f6:	00 
    91f7:	f3 0f 59 c2          	mulss  %xmm2,%xmm0
    91fb:	f3 0f 58 c1          	addss  %xmm1,%xmm0
    91ff:	f3 0f 10 0d b9 bd 00 	movss  0xbdb9(%rip),%xmm1        # 14fc0 <l_655.4596+0x20>
    9206:	00 
    9207:	0f 54 c1             	andps  %xmm1,%xmm0
    920a:	0f 2f 05 bf bd 00 00 	comiss 0xbdbf(%rip),%xmm0        # 14fd0 <l_655.4596+0x30>
    9211:	76 07                	jbe    921a <safe_add_func_float_f_f+0x53>
    9213:	f3 0f 10 45 fc       	movss  -0x4(%rbp),%xmm0
    9218:	eb 0a                	jmp    9224 <safe_add_func_float_f_f+0x5d>
    921a:	f3 0f 10 45 fc       	movss  -0x4(%rbp),%xmm0
    921f:	f3 0f 58 45 f8       	addss  -0x8(%rbp),%xmm0
    9224:	5d                   	pop    %rbp
    9225:	c3                   	retq   

0000000000009226 <safe_sub_func_float_f_f>:
    9226:	f3 0f 1e fa          	endbr64 
    922a:	55                   	push   %rbp
    922b:	48 89 e5             	mov    %rsp,%rbp
    922e:	f3 0f 11 45 fc       	movss  %xmm0,-0x4(%rbp)
    9233:	f3 0f 11 4d f8       	movss  %xmm1,-0x8(%rbp)
    9238:	f3 0f 10 4d fc       	movss  -0x4(%rbp),%xmm1
    923d:	f3 0f 10 05 6f bd 00 	movss  0xbd6f(%rip),%xmm0        # 14fb4 <l_655.4596+0x14>
    9244:	00 
    9245:	f3 0f 59 c1          	mulss  %xmm1,%xmm0
    9249:	f3 0f 10 55 f8       	movss  -0x8(%rbp),%xmm2
    924e:	f3 0f 10 0d 5e bd 00 	movss  0xbd5e(%rip),%xmm1        # 14fb4 <l_655.4596+0x14>
    9255:	00 
    9256:	f3 0f 59 ca          	mulss  %xmm2,%xmm1
    925a:	f3 0f 5c c1          	subss  %xmm1,%xmm0
    925e:	f3 0f 10 0d 5a bd 00 	movss  0xbd5a(%rip),%xmm1        # 14fc0 <l_655.4596+0x20>
    9265:	00 
    9266:	0f 54 c1             	andps  %xmm1,%xmm0
    9269:	0f 2f 05 60 bd 00 00 	comiss 0xbd60(%rip),%xmm0        # 14fd0 <l_655.4596+0x30>
    9270:	76 07                	jbe    9279 <safe_sub_func_float_f_f+0x53>
    9272:	f3 0f 10 45 fc       	movss  -0x4(%rbp),%xmm0
    9277:	eb 0a                	jmp    9283 <safe_sub_func_float_f_f+0x5d>
    9279:	f3 0f 10 45 fc       	movss  -0x4(%rbp),%xmm0
    927e:	f3 0f 5c 45 f8       	subss  -0x8(%rbp),%xmm0
    9283:	5d                   	pop    %rbp
    9284:	c3                   	retq   

0000000000009285 <safe_mul_func_float_f_f>:
    9285:	f3 0f 1e fa          	endbr64 
    9289:	55                   	push   %rbp
    928a:	48 89 e5             	mov    %rsp,%rbp
    928d:	f3 0f 11 45 fc       	movss  %xmm0,-0x4(%rbp)
    9292:	f3 0f 11 4d f8       	movss  %xmm1,-0x8(%rbp)
    9297:	f3 0f 10 4d fc       	movss  -0x4(%rbp),%xmm1
    929c:	f3 0f 10 05 30 bd 00 	movss  0xbd30(%rip),%xmm0        # 14fd4 <l_655.4596+0x34>
    92a3:	00 
    92a4:	f3 0f 59 c8          	mulss  %xmm0,%xmm1
    92a8:	f3 0f 10 55 f8       	movss  -0x8(%rbp),%xmm2
    92ad:	f3 0f 10 05 23 bd 00 	movss  0xbd23(%rip),%xmm0        # 14fd8 <l_655.4596+0x38>
    92b4:	00 
    92b5:	f3 0f 59 c2          	mulss  %xmm2,%xmm0
    92b9:	f3 0f 59 c1          	mulss  %xmm1,%xmm0
    92bd:	f3 0f 10 0d fb bc 00 	movss  0xbcfb(%rip),%xmm1        # 14fc0 <l_655.4596+0x20>
    92c4:	00 
    92c5:	0f 54 c1             	andps  %xmm1,%xmm0
    92c8:	0f 2f 05 0d bd 00 00 	comiss 0xbd0d(%rip),%xmm0        # 14fdc <l_655.4596+0x3c>
    92cf:	76 07                	jbe    92d8 <safe_mul_func_float_f_f+0x53>
    92d1:	f3 0f 10 45 fc       	movss  -0x4(%rbp),%xmm0
    92d6:	eb 0a                	jmp    92e2 <safe_mul_func_float_f_f+0x5d>
    92d8:	f3 0f 10 45 fc       	movss  -0x4(%rbp),%xmm0
    92dd:	f3 0f 59 45 f8       	mulss  -0x8(%rbp),%xmm0
    92e2:	5d                   	pop    %rbp
    92e3:	c3                   	retq   

00000000000092e4 <safe_div_func_float_f_f>:
    92e4:	f3 0f 1e fa          	endbr64 
    92e8:	55                   	push   %rbp
    92e9:	48 89 e5             	mov    %rsp,%rbp
    92ec:	f3 0f 11 45 fc       	movss  %xmm0,-0x4(%rbp)
    92f1:	f3 0f 11 4d f8       	movss  %xmm1,-0x8(%rbp)
    92f6:	f3 0f 10 45 f8       	movss  -0x8(%rbp),%xmm0
    92fb:	f3 0f 10 0d bd bc 00 	movss  0xbcbd(%rip),%xmm1        # 14fc0 <l_655.4596+0x20>
    9302:	00 
    9303:	0f 54 c8             	andps  %xmm0,%xmm1
    9306:	f3 0f 10 05 d2 bc 00 	movss  0xbcd2(%rip),%xmm0        # 14fe0 <l_655.4596+0x40>
    930d:	00 
    930e:	0f 2f c1             	comiss %xmm1,%xmm0
    9311:	0f 97 c0             	seta   %al
    9314:	83 f0 01             	xor    $0x1,%eax
    9317:	84 c0                	test   %al,%al
    9319:	75 56                	jne    9371 <safe_div_func_float_f_f+0x8d>
    931b:	66 0f ef c0          	pxor   %xmm0,%xmm0
    931f:	0f 2e 45 f8          	ucomiss -0x8(%rbp),%xmm0
    9323:	7a 0a                	jp     932f <safe_div_func_float_f_f+0x4b>
    9325:	66 0f ef c0          	pxor   %xmm0,%xmm0
    9329:	0f 2e 45 f8          	ucomiss -0x8(%rbp),%xmm0
    932d:	74 4e                	je     937d <safe_div_func_float_f_f+0x99>
    932f:	f3 0f 10 4d fc       	movss  -0x4(%rbp),%xmm1
    9334:	f3 0f 10 05 a8 bc 00 	movss  0xbca8(%rip),%xmm0        # 14fe4 <l_655.4596+0x44>
    933b:	00 
    933c:	f3 0f 59 c1          	mulss  %xmm1,%xmm0
    9340:	f3 0f 10 55 f8       	movss  -0x8(%rbp),%xmm2
    9345:	f3 0f 10 0d 9b bc 00 	movss  0xbc9b(%rip),%xmm1        # 14fe8 <l_655.4596+0x48>
    934c:	00 
    934d:	f3 0f 59 ca          	mulss  %xmm2,%xmm1
    9351:	f3 0f 5e c1          	divss  %xmm1,%xmm0
    9355:	f3 0f 10 0d 63 bc 00 	movss  0xbc63(%rip),%xmm1        # 14fc0 <l_655.4596+0x20>
    935c:	00 
    935d:	0f 54 c1             	andps  %xmm1,%xmm0
    9360:	0f 2f 05 85 bc 00 00 	comiss 0xbc85(%rip),%xmm0        # 14fec <l_655.4596+0x4c>
    9367:	0f 97 c0             	seta   %al
    936a:	83 f0 01             	xor    $0x1,%eax
    936d:	84 c0                	test   %al,%al
    936f:	74 0c                	je     937d <safe_div_func_float_f_f+0x99>
    9371:	f3 0f 10 45 fc       	movss  -0x4(%rbp),%xmm0
    9376:	f3 0f 5e 45 f8       	divss  -0x8(%rbp),%xmm0
    937b:	eb 05                	jmp    9382 <safe_div_func_float_f_f+0x9e>
    937d:	f3 0f 10 45 fc       	movss  -0x4(%rbp),%xmm0
    9382:	5d                   	pop    %rbp
    9383:	c3                   	retq   

0000000000009384 <safe_add_func_double_f_f>:
    9384:	f3 0f 1e fa          	endbr64 
    9388:	55                   	push   %rbp
    9389:	48 89 e5             	mov    %rsp,%rbp
    938c:	f2 0f 11 45 f8       	movsd  %xmm0,-0x8(%rbp)
    9391:	f2 0f 11 4d f0       	movsd  %xmm1,-0x10(%rbp)
    9396:	f2 0f 10 4d f8       	movsd  -0x8(%rbp),%xmm1
    939b:	f2 0f 10 05 4d bc 00 	movsd  0xbc4d(%rip),%xmm0        # 14ff0 <l_655.4596+0x50>
    93a2:	00 
    93a3:	f2 0f 59 c8          	mulsd  %xmm0,%xmm1
    93a7:	f2 0f 10 55 f0       	movsd  -0x10(%rbp),%xmm2
    93ac:	f2 0f 10 05 3c bc 00 	movsd  0xbc3c(%rip),%xmm0        # 14ff0 <l_655.4596+0x50>
    93b3:	00 
    93b4:	f2 0f 59 c2          	mulsd  %xmm2,%xmm0
    93b8:	f2 0f 58 c1          	addsd  %xmm1,%xmm0
    93bc:	f3 0f 7e 0d 3c bc 00 	movq   0xbc3c(%rip),%xmm1        # 15000 <l_655.4596+0x60>
    93c3:	00 
    93c4:	66 0f 54 c1          	andpd  %xmm1,%xmm0
    93c8:	66 0f 2f 05 40 bc 00 	comisd 0xbc40(%rip),%xmm0        # 15010 <l_655.4596+0x70>
    93cf:	00 
    93d0:	76 07                	jbe    93d9 <safe_add_func_double_f_f+0x55>
    93d2:	f2 0f 10 45 f8       	movsd  -0x8(%rbp),%xmm0
    93d7:	eb 0a                	jmp    93e3 <safe_add_func_double_f_f+0x5f>
    93d9:	f2 0f 10 45 f8       	movsd  -0x8(%rbp),%xmm0
    93de:	f2 0f 58 45 f0       	addsd  -0x10(%rbp),%xmm0
    93e3:	5d                   	pop    %rbp
    93e4:	c3                   	retq   

00000000000093e5 <safe_sub_func_double_f_f>:
    93e5:	f3 0f 1e fa          	endbr64 
    93e9:	55                   	push   %rbp
    93ea:	48 89 e5             	mov    %rsp,%rbp
    93ed:	f2 0f 11 45 f8       	movsd  %xmm0,-0x8(%rbp)
    93f2:	f2 0f 11 4d f0       	movsd  %xmm1,-0x10(%rbp)
    93f7:	f2 0f 10 4d f8       	movsd  -0x8(%rbp),%xmm1
    93fc:	f2 0f 10 05 ec bb 00 	movsd  0xbbec(%rip),%xmm0        # 14ff0 <l_655.4596+0x50>
    9403:	00 
    9404:	f2 0f 59 c1          	mulsd  %xmm1,%xmm0
    9408:	f2 0f 10 55 f0       	movsd  -0x10(%rbp),%xmm2
    940d:	f2 0f 10 0d db bb 00 	movsd  0xbbdb(%rip),%xmm1        # 14ff0 <l_655.4596+0x50>
    9414:	00 
    9415:	f2 0f 59 ca          	mulsd  %xmm2,%xmm1
    9419:	f2 0f 5c c1          	subsd  %xmm1,%xmm0
    941d:	f3 0f 7e 0d db bb 00 	movq   0xbbdb(%rip),%xmm1        # 15000 <l_655.4596+0x60>
    9424:	00 
    9425:	66 0f 54 c1          	andpd  %xmm1,%xmm0
    9429:	66 0f 2f 05 df bb 00 	comisd 0xbbdf(%rip),%xmm0        # 15010 <l_655.4596+0x70>
    9430:	00 
    9431:	76 07                	jbe    943a <safe_sub_func_double_f_f+0x55>
    9433:	f2 0f 10 45 f8       	movsd  -0x8(%rbp),%xmm0
    9438:	eb 0a                	jmp    9444 <safe_sub_func_double_f_f+0x5f>
    943a:	f2 0f 10 45 f8       	movsd  -0x8(%rbp),%xmm0
    943f:	f2 0f 5c 45 f0       	subsd  -0x10(%rbp),%xmm0
    9444:	5d                   	pop    %rbp
    9445:	c3                   	retq   

0000000000009446 <safe_mul_func_double_f_f>:
    9446:	f3 0f 1e fa          	endbr64 
    944a:	55                   	push   %rbp
    944b:	48 89 e5             	mov    %rsp,%rbp
    944e:	f2 0f 11 45 f8       	movsd  %xmm0,-0x8(%rbp)
    9453:	f2 0f 11 4d f0       	movsd  %xmm1,-0x10(%rbp)
    9458:	f2 0f 10 4d f8       	movsd  -0x8(%rbp),%xmm1
    945d:	f2 0f 10 05 b3 bb 00 	movsd  0xbbb3(%rip),%xmm0        # 15018 <l_655.4596+0x78>
    9464:	00 
    9465:	f2 0f 59 c8          	mulsd  %xmm0,%xmm1
    9469:	f2 0f 10 55 f0       	movsd  -0x10(%rbp),%xmm2
    946e:	f2 0f 10 05 aa bb 00 	movsd  0xbbaa(%rip),%xmm0        # 15020 <l_655.4596+0x80>
    9475:	00 
    9476:	f2 0f 59 c2          	mulsd  %xmm2,%xmm0
    947a:	f2 0f 59 c1          	mulsd  %xmm1,%xmm0
    947e:	f3 0f 7e 0d 7a bb 00 	movq   0xbb7a(%rip),%xmm1        # 15000 <l_655.4596+0x60>
    9485:	00 
    9486:	66 0f 54 c1          	andpd  %xmm1,%xmm0
    948a:	66 0f 2f 05 96 bb 00 	comisd 0xbb96(%rip),%xmm0        # 15028 <l_655.4596+0x88>
    9491:	00 
    9492:	76 07                	jbe    949b <safe_mul_func_double_f_f+0x55>
    9494:	f2 0f 10 45 f8       	movsd  -0x8(%rbp),%xmm0
    9499:	eb 0a                	jmp    94a5 <safe_mul_func_double_f_f+0x5f>
    949b:	f2 0f 10 45 f8       	movsd  -0x8(%rbp),%xmm0
    94a0:	f2 0f 59 45 f0       	mulsd  -0x10(%rbp),%xmm0
    94a5:	5d                   	pop    %rbp
    94a6:	c3                   	retq   

00000000000094a7 <safe_div_func_double_f_f>:
    94a7:	f3 0f 1e fa          	endbr64 
    94ab:	55                   	push   %rbp
    94ac:	48 89 e5             	mov    %rsp,%rbp
    94af:	f2 0f 11 45 f8       	movsd  %xmm0,-0x8(%rbp)
    94b4:	f2 0f 11 4d f0       	movsd  %xmm1,-0x10(%rbp)
    94b9:	f2 0f 10 45 f0       	movsd  -0x10(%rbp),%xmm0
    94be:	f3 0f 7e 0d 3a bb 00 	movq   0xbb3a(%rip),%xmm1        # 15000 <l_655.4596+0x60>
    94c5:	00 
    94c6:	66 0f 54 c8          	andpd  %xmm0,%xmm1
    94ca:	f2 0f 10 05 5e bb 00 	movsd  0xbb5e(%rip),%xmm0        # 15030 <l_655.4596+0x90>
    94d1:	00 
    94d2:	66 0f 2f c1          	comisd %xmm1,%xmm0
    94d6:	0f 97 c0             	seta   %al
    94d9:	83 f0 01             	xor    $0x1,%eax
    94dc:	84 c0                	test   %al,%al
    94de:	75 5a                	jne    953a <safe_div_func_double_f_f+0x93>
    94e0:	66 0f ef c0          	pxor   %xmm0,%xmm0
    94e4:	66 0f 2e 45 f0       	ucomisd -0x10(%rbp),%xmm0
    94e9:	7a 0b                	jp     94f6 <safe_div_func_double_f_f+0x4f>
    94eb:	66 0f ef c0          	pxor   %xmm0,%xmm0
    94ef:	66 0f 2e 45 f0       	ucomisd -0x10(%rbp),%xmm0
    94f4:	74 50                	je     9546 <safe_div_func_double_f_f+0x9f>
    94f6:	f2 0f 10 4d f8       	movsd  -0x8(%rbp),%xmm1
    94fb:	f2 0f 10 05 35 bb 00 	movsd  0xbb35(%rip),%xmm0        # 15038 <l_655.4596+0x98>
    9502:	00 
    9503:	f2 0f 59 c1          	mulsd  %xmm1,%xmm0
    9507:	f2 0f 10 55 f0       	movsd  -0x10(%rbp),%xmm2
    950c:	f2 0f 10 0d 2c bb 00 	movsd  0xbb2c(%rip),%xmm1        # 15040 <l_655.4596+0xa0>
    9513:	00 
    9514:	f2 0f 59 ca          	mulsd  %xmm2,%xmm1
    9518:	f2 0f 5e c1          	divsd  %xmm1,%xmm0
    951c:	f3 0f 7e 0d dc ba 00 	movq   0xbadc(%rip),%xmm1        # 15000 <l_655.4596+0x60>
    9523:	00 
    9524:	66 0f 54 c1          	andpd  %xmm1,%xmm0
    9528:	66 0f 2f 05 18 bb 00 	comisd 0xbb18(%rip),%xmm0        # 15048 <l_655.4596+0xa8>
    952f:	00 
    9530:	0f 97 c0             	seta   %al
    9533:	83 f0 01             	xor    $0x1,%eax
    9536:	84 c0                	test   %al,%al
    9538:	74 0c                	je     9546 <safe_div_func_double_f_f+0x9f>
    953a:	f2 0f 10 45 f8       	movsd  -0x8(%rbp),%xmm0
    953f:	f2 0f 5e 45 f0       	divsd  -0x10(%rbp),%xmm0
    9544:	eb 05                	jmp    954b <safe_div_func_double_f_f+0xa4>
    9546:	f2 0f 10 45 f8       	movsd  -0x8(%rbp),%xmm0
    954b:	5d                   	pop    %rbp
    954c:	c3                   	retq   

000000000000954d <safe_convert_func_float_to_int32_t>:
    954d:	f3 0f 1e fa          	endbr64 
    9551:	55                   	push   %rbp
    9552:	48 89 e5             	mov    %rsp,%rbp
    9555:	f3 0f 11 45 fc       	movss  %xmm0,-0x4(%rbp)
    955a:	f3 0f 10 05 ee ba 00 	movss  0xbaee(%rip),%xmm0        # 15050 <l_655.4596+0xb0>
    9561:	00 
    9562:	0f 2f 45 fc          	comiss -0x4(%rbp),%xmm0
    9566:	0f 93 c0             	setae  %al
    9569:	83 f0 01             	xor    $0x1,%eax
    956c:	84 c0                	test   %al,%al
    956e:	74 21                	je     9591 <safe_convert_func_float_to_int32_t+0x44>
    9570:	f3 0f 10 45 fc       	movss  -0x4(%rbp),%xmm0
    9575:	0f 2f 05 d8 ba 00 00 	comiss 0xbad8(%rip),%xmm0        # 15054 <l_655.4596+0xb4>
    957c:	0f 93 c0             	setae  %al
    957f:	83 f0 01             	xor    $0x1,%eax
    9582:	84 c0                	test   %al,%al
    9584:	74 0b                	je     9591 <safe_convert_func_float_to_int32_t+0x44>
    9586:	f3 0f 10 45 fc       	movss  -0x4(%rbp),%xmm0
    958b:	f3 0f 2c c0          	cvttss2si %xmm0,%eax
    958f:	eb 05                	jmp    9596 <safe_convert_func_float_to_int32_t+0x49>
    9591:	b8 ff ff ff 7f       	mov    $0x7fffffff,%eax
    9596:	5d                   	pop    %rbp
    9597:	c3                   	retq   

0000000000009598 <crc32_gentab>:
    9598:	f3 0f 1e fa          	endbr64 
    959c:	55                   	push   %rbp
    959d:	48 89 e5             	mov    %rsp,%rbp
    95a0:	c7 45 fc 20 83 b8 ed 	movl   $0xedb88320,-0x4(%rbp)
    95a7:	c7 45 f4 00 00 00 00 	movl   $0x0,-0xc(%rbp)
    95ae:	eb 51                	jmp    9601 <crc32_gentab+0x69>
    95b0:	8b 45 f4             	mov    -0xc(%rbp),%eax
    95b3:	89 45 f0             	mov    %eax,-0x10(%rbp)
    95b6:	c7 45 f8 08 00 00 00 	movl   $0x8,-0x8(%rbp)
    95bd:	eb 1e                	jmp    95dd <crc32_gentab+0x45>
    95bf:	8b 45 f0             	mov    -0x10(%rbp),%eax
    95c2:	83 e0 01             	and    $0x1,%eax
    95c5:	85 c0                	test   %eax,%eax
    95c7:	74 0d                	je     95d6 <crc32_gentab+0x3e>
    95c9:	8b 45 f0             	mov    -0x10(%rbp),%eax
    95cc:	d1 e8                	shr    %eax
    95ce:	33 45 fc             	xor    -0x4(%rbp),%eax
    95d1:	89 45 f0             	mov    %eax,-0x10(%rbp)
    95d4:	eb 03                	jmp    95d9 <crc32_gentab+0x41>
    95d6:	d1 6d f0             	shrl   -0x10(%rbp)
    95d9:	83 6d f8 01          	subl   $0x1,-0x8(%rbp)
    95dd:	83 7d f8 00          	cmpl   $0x0,-0x8(%rbp)
    95e1:	7f dc                	jg     95bf <crc32_gentab+0x27>
    95e3:	8b 45 f4             	mov    -0xc(%rbp),%eax
    95e6:	48 98                	cltq   
    95e8:	48 8d 0c 85 00 00 00 	lea    0x0(,%rax,4),%rcx
    95ef:	00 
    95f0:	48 8d 15 e9 75 01 00 	lea    0x175e9(%rip),%rdx        # 20be0 <crc32_tab>
    95f7:	8b 45 f0             	mov    -0x10(%rbp),%eax
    95fa:	89 04 11             	mov    %eax,(%rcx,%rdx,1)
    95fd:	83 45 f4 01          	addl   $0x1,-0xc(%rbp)
    9601:	81 7d f4 ff 00 00 00 	cmpl   $0xff,-0xc(%rbp)
    9608:	7e a6                	jle    95b0 <crc32_gentab+0x18>
    960a:	90                   	nop
    960b:	90                   	nop
    960c:	5d                   	pop    %rbp
    960d:	c3                   	retq   

000000000000960e <crc32_byte>:
    960e:	f3 0f 1e fa          	endbr64 
    9612:	55                   	push   %rbp
    9613:	48 89 e5             	mov    %rsp,%rbp
    9616:	89 f8                	mov    %edi,%eax
    9618:	88 45 fc             	mov    %al,-0x4(%rbp)
    961b:	8b 05 ff e9 00 00    	mov    0xe9ff(%rip),%eax        # 18020 <crc32_context>
    9621:	c1 e8 08             	shr    $0x8,%eax
    9624:	89 c1                	mov    %eax,%ecx
    9626:	0f b6 55 fc          	movzbl -0x4(%rbp),%edx
    962a:	8b 05 f0 e9 00 00    	mov    0xe9f0(%rip),%eax        # 18020 <crc32_context>
    9630:	31 d0                	xor    %edx,%eax
    9632:	0f b6 c0             	movzbl %al,%eax
    9635:	89 c0                	mov    %eax,%eax
    9637:	48 8d 14 85 00 00 00 	lea    0x0(,%rax,4),%rdx
    963e:	00 
    963f:	48 8d 05 9a 75 01 00 	lea    0x1759a(%rip),%rax        # 20be0 <crc32_tab>
    9646:	8b 04 02             	mov    (%rdx,%rax,1),%eax
    9649:	31 c8                	xor    %ecx,%eax
    964b:	89 05 cf e9 00 00    	mov    %eax,0xe9cf(%rip)        # 18020 <crc32_context>
    9651:	90                   	nop
    9652:	5d                   	pop    %rbp
    9653:	c3                   	retq   

0000000000009654 <crc32_8bytes>:
    9654:	f3 0f 1e fa          	endbr64 
    9658:	55                   	push   %rbp
    9659:	48 89 e5             	mov    %rsp,%rbp
    965c:	48 83 ec 08          	sub    $0x8,%rsp
    9660:	48 89 7d f8          	mov    %rdi,-0x8(%rbp)
    9664:	48 8b 45 f8          	mov    -0x8(%rbp),%rax
    9668:	0f b6 c0             	movzbl %al,%eax
    966b:	89 c7                	mov    %eax,%edi
    966d:	e8 9c ff ff ff       	callq  960e <crc32_byte>
    9672:	48 8b 45 f8          	mov    -0x8(%rbp),%rax
    9676:	48 c1 e8 08          	shr    $0x8,%rax
    967a:	0f b6 c0             	movzbl %al,%eax
    967d:	89 c7                	mov    %eax,%edi
    967f:	e8 8a ff ff ff       	callq  960e <crc32_byte>
    9684:	48 8b 45 f8          	mov    -0x8(%rbp),%rax
    9688:	48 c1 e8 10          	shr    $0x10,%rax
    968c:	0f b6 c0             	movzbl %al,%eax
    968f:	89 c7                	mov    %eax,%edi
    9691:	e8 78 ff ff ff       	callq  960e <crc32_byte>
    9696:	48 8b 45 f8          	mov    -0x8(%rbp),%rax
    969a:	48 c1 e8 18          	shr    $0x18,%rax
    969e:	0f b6 c0             	movzbl %al,%eax
    96a1:	89 c7                	mov    %eax,%edi
    96a3:	e8 66 ff ff ff       	callq  960e <crc32_byte>
    96a8:	48 8b 45 f8          	mov    -0x8(%rbp),%rax
    96ac:	48 c1 e8 20          	shr    $0x20,%rax
    96b0:	0f b6 c0             	movzbl %al,%eax
    96b3:	89 c7                	mov    %eax,%edi
    96b5:	e8 54 ff ff ff       	callq  960e <crc32_byte>
    96ba:	48 8b 45 f8          	mov    -0x8(%rbp),%rax
    96be:	48 c1 e8 28          	shr    $0x28,%rax
    96c2:	0f b6 c0             	movzbl %al,%eax
    96c5:	89 c7                	mov    %eax,%edi
    96c7:	e8 42 ff ff ff       	callq  960e <crc32_byte>
    96cc:	48 8b 45 f8          	mov    -0x8(%rbp),%rax
    96d0:	48 c1 e8 30          	shr    $0x30,%rax
    96d4:	0f b6 c0             	movzbl %al,%eax
    96d7:	89 c7                	mov    %eax,%edi
    96d9:	e8 30 ff ff ff       	callq  960e <crc32_byte>
    96de:	48 8b 45 f8          	mov    -0x8(%rbp),%rax
    96e2:	48 c1 e8 38          	shr    $0x38,%rax
    96e6:	0f b6 c0             	movzbl %al,%eax
    96e9:	89 c7                	mov    %eax,%edi
    96eb:	e8 1e ff ff ff       	callq  960e <crc32_byte>
    96f0:	90                   	nop
    96f1:	c9                   	leaveq 
    96f2:	c3                   	retq   

00000000000096f3 <transparent_crc>:
    96f3:	f3 0f 1e fa          	endbr64 
    96f7:	55                   	push   %rbp
    96f8:	48 89 e5             	mov    %rsp,%rbp
    96fb:	48 83 ec 20          	sub    $0x20,%rsp
    96ff:	48 89 7d f8          	mov    %rdi,-0x8(%rbp)
    9703:	48 89 75 f0          	mov    %rsi,-0x10(%rbp)
    9707:	89 55 ec             	mov    %edx,-0x14(%rbp)
    970a:	48 8b 45 f8          	mov    -0x8(%rbp),%rax
    970e:	48 89 c7             	mov    %rax,%rdi
    9711:	e8 3e ff ff ff       	callq  9654 <crc32_8bytes>
    9716:	83 7d ec 00          	cmpl   $0x0,-0x14(%rbp)
    971a:	74 22                	je     973e <transparent_crc+0x4b>
    971c:	8b 05 fe e8 00 00    	mov    0xe8fe(%rip),%eax        # 18020 <crc32_context>
    9722:	f7 d0                	not    %eax
    9724:	89 c2                	mov    %eax,%edx
    9726:	48 8b 45 f0          	mov    -0x10(%rbp),%rax
    972a:	48 89 c6             	mov    %rax,%rsi
    972d:	48 8d 3d fc 98 00 00 	lea    0x98fc(%rip),%rdi        # 13030 <_IO_stdin_used+0x30>
    9734:	b8 00 00 00 00       	mov    $0x0,%eax
    9739:	e8 42 e9 ff ff       	callq  8080 <printf@plt>
    973e:	90                   	nop
    973f:	c9                   	leaveq 
    9740:	c3                   	retq   

0000000000009741 <transparent_crc_bytes>:
    9741:	f3 0f 1e fa          	endbr64 
    9745:	55                   	push   %rbp
    9746:	48 89 e5             	mov    %rsp,%rbp
    9749:	48 83 ec 30          	sub    $0x30,%rsp
    974d:	48 89 7d e8          	mov    %rdi,-0x18(%rbp)
    9751:	89 75 e4             	mov    %esi,-0x1c(%rbp)
    9754:	48 89 55 d8          	mov    %rdx,-0x28(%rbp)
    9758:	89 4d e0             	mov    %ecx,-0x20(%rbp)
    975b:	c7 45 fc 00 00 00 00 	movl   $0x0,-0x4(%rbp)
    9762:	eb 1e                	jmp    9782 <transparent_crc_bytes+0x41>
    9764:	8b 45 fc             	mov    -0x4(%rbp),%eax
    9767:	48 63 d0             	movslq %eax,%rdx
    976a:	48 8b 45 e8          	mov    -0x18(%rbp),%rax
    976e:	48 01 d0             	add    %rdx,%rax
    9771:	0f b6 00             	movzbl (%rax),%eax
    9774:	0f b6 c0             	movzbl %al,%eax
    9777:	89 c7                	mov    %eax,%edi
    9779:	e8 90 fe ff ff       	callq  960e <crc32_byte>
    977e:	83 45 fc 01          	addl   $0x1,-0x4(%rbp)
    9782:	8b 45 fc             	mov    -0x4(%rbp),%eax
    9785:	3b 45 e4             	cmp    -0x1c(%rbp),%eax
    9788:	7c da                	jl     9764 <transparent_crc_bytes+0x23>
    978a:	83 7d e0 00          	cmpl   $0x0,-0x20(%rbp)
    978e:	74 22                	je     97b2 <transparent_crc_bytes+0x71>
    9790:	8b 05 8a e8 00 00    	mov    0xe88a(%rip),%eax        # 18020 <crc32_context>
    9796:	f7 d0                	not    %eax
    9798:	89 c2                	mov    %eax,%edx
    979a:	48 8b 45 d8          	mov    -0x28(%rbp),%rax
    979e:	48 89 c6             	mov    %rax,%rsi
    97a1:	48 8d 3d 88 98 00 00 	lea    0x9888(%rip),%rdi        # 13030 <_IO_stdin_used+0x30>
    97a8:	b8 00 00 00 00       	mov    $0x0,%eax
    97ad:	e8 ce e8 ff ff       	callq  8080 <printf@plt>
    97b2:	90                   	nop
    97b3:	c9                   	leaveq 
    97b4:	c3                   	retq   

00000000000097b5 <func_1>:
    97b5:	f3 0f 1e fa          	endbr64 
    97b9:	55                   	push   %rbp
    97ba:	48 89 e5             	mov    %rsp,%rbp
    97bd:	41 57                	push   %r15
    97bf:	41 56                	push   %r14
    97c1:	41 55                	push   %r13
    97c3:	41 54                	push   %r12
    97c5:	53                   	push   %rbx
    97c6:	48 81 ec d8 04 00 00 	sub    $0x4d8,%rsp
    97cd:	64 48 8b 04 25 28 00 	mov    %fs:0x28,%rax
    97d4:	00 00 
    97d6:	48 89 45 c8          	mov    %rax,-0x38(%rbp)
    97da:	31 c0                	xor    %eax,%eax
    97dc:	c6 85 10 fb ff ff 79 	movb   $0x79,-0x4f0(%rbp)
    97e3:	c7 85 20 fb ff ff f9 	movl   $0xb3b8a3f9,-0x4e0(%rbp)
    97ea:	a3 b8 b3 
    97ed:	48 8d 05 49 18 01 00 	lea    0x11849(%rip),%rax        # 1b03d <g_1256+0xd>
    97f4:	48 89 85 48 fb ff ff 	mov    %rax,-0x4b8(%rbp)
    97fb:	48 8d 05 e6 0b 01 00 	lea    0x10be6(%rip),%rax        # 1a3e8 <g_395>
    9802:	48 89 85 50 fb ff ff 	mov    %rax,-0x4b0(%rbp)
    9809:	48 c7 85 58 fb ff ff 	movq   $0x0,-0x4a8(%rbp)
    9810:	00 00 00 00 
    9814:	48 8d 05 0b e9 00 00 	lea    0xe90b(%rip),%rax        # 18126 <g_132>
    981b:	48 89 85 60 fb ff ff 	mov    %rax,-0x4a0(%rbp)
    9822:	c6 85 11 fb ff ff 09 	movb   $0x9,-0x4ef(%rbp)
    9829:	48 c7 85 68 fb ff ff 	movq   $0x0,-0x498(%rbp)
    9830:	00 00 00 00 
    9834:	48 8d 85 10 fb ff ff 	lea    -0x4f0(%rbp),%rax
    983b:	48 89 85 70 fb ff ff 	mov    %rax,-0x490(%rbp)
    9842:	48 c7 85 78 fb ff ff 	movq   $0xfffffffffffffffa,-0x488(%rbp)
    9849:	fa ff ff ff 
    984d:	66 c7 85 b4 fb ff ff 	movw   $0x2,-0x44c(%rbp)
    9854:	02 00 
    9856:	8b 85 b8 fb ff ff    	mov    -0x448(%rbp),%eax
    985c:	25 00 00 fe ff       	and    $0xfffe0000,%eax
    9861:	0c cf                	or     $0xcf,%al
    9863:	89 85 b8 fb ff ff    	mov    %eax,-0x448(%rbp)
    9869:	0f b6 85 ba fb ff ff 	movzbl -0x446(%rbp),%eax
    9870:	83 e0 f1             	and    $0xfffffff1,%eax
    9873:	88 85 ba fb ff ff    	mov    %al,-0x446(%rbp)
    9879:	8b 85 bc fb ff ff    	mov    -0x444(%rbp),%eax
    987f:	25 00 00 e0 ff       	and    $0xffe00000,%eax
    9884:	0d a7 05 00 00       	or     $0x5a7,%eax
    9889:	89 85 bc fb ff ff    	mov    %eax,-0x444(%rbp)
    988f:	c7 85 24 fb ff ff cd 	movl   $0x54508ecd,-0x4dc(%rbp)
    9896:	8e 50 54 
    9899:	c6 85 12 fb ff ff 06 	movb   $0x6,-0x4ee(%rbp)
    98a0:	c6 85 13 fb ff ff 98 	movb   $0x98,-0x4ed(%rbp)
    98a7:	c7 85 18 fb ff ff 00 	movl   $0x0,-0x4e8(%rbp)
    98ae:	00 00 00 
    98b1:	eb 1e                	jmp    98d1 <func_1+0x11c>
    98b3:	8b 85 18 fb ff ff    	mov    -0x4e8(%rbp),%eax
    98b9:	48 98                	cltq   
    98bb:	48 8d 15 ed 0a 01 00 	lea    0x10aed(%rip),%rdx        # 1a3af <g_329+0x2f>
    98c2:	48 89 94 c5 c0 fb ff 	mov    %rdx,-0x440(%rbp,%rax,8)
    98c9:	ff 
    98ca:	83 85 18 fb ff ff 01 	addl   $0x1,-0x4e8(%rbp)
    98d1:	83 bd 18 fb ff ff 02 	cmpl   $0x2,-0x4e8(%rbp)
    98d8:	7e d9                	jle    98b3 <func_1+0xfe>
    98da:	c7 05 40 e7 00 00 00 	movl   $0x0,0xe740(%rip)        # 18024 <g_2>
    98e1:	00 00 00 
    98e4:	e9 40 01 00 00       	jmpq   9a29 <func_1+0x274>
    98e9:	48 8d 85 00 fc ff ff 	lea    -0x400(%rbp),%rax
    98f0:	48 8d 15 89 98 00 00 	lea    0x9889(%rip),%rdx        # 13180 <g_1647+0x40>
    98f7:	b9 78 00 00 00       	mov    $0x78,%ecx
    98fc:	48 89 c7             	mov    %rax,%rdi
    98ff:	48 89 d6             	mov    %rdx,%rsi
    9902:	f3 48 a5             	rep movsq %ds:(%rsi),%es:(%rdi)
    9905:	c7 85 28 fb ff ff 00 	movl   $0x0,-0x4d8(%rbp)
    990c:	00 00 00 
    990f:	66 c7 85 16 fb ff ff 	movw   $0xfff6,-0x4ea(%rbp)
    9916:	f6 ff 
    9918:	c7 85 2c fb ff ff ce 	movl   $0xa556ebce,-0x4d4(%rbp)
    991f:	eb 56 a5 
    9922:	c7 85 30 fb ff ff 09 	movl   $0x9,-0x4d0(%rbp)
    9929:	00 00 00 
    992c:	c7 85 1c fb ff ff 00 	movl   $0x0,-0x4e4(%rbp)
    9933:	00 00 00 
    9936:	eb 1e                	jmp    9956 <func_1+0x1a1>
    9938:	8b 85 1c fb ff ff    	mov    -0x4e4(%rbp),%eax
    993e:	48 98                	cltq   
    9940:	48 8d 15 b9 e7 00 00 	lea    0xe7b9(%rip),%rdx        # 18100 <g_73>
    9947:	48 89 94 c5 e0 fb ff 	mov    %rdx,-0x420(%rbp,%rax,8)
    994e:	ff 
    994f:	83 85 1c fb ff ff 01 	addl   $0x1,-0x4e4(%rbp)
    9956:	83 bd 1c fb ff ff 03 	cmpl   $0x3,-0x4e4(%rbp)
    995d:	7e d9                	jle    9938 <func_1+0x183>
    995f:	c7 05 c3 e6 00 00 00 	movl   $0x0,0xe6c3(%rip)        # 1802c <g_6>
    9966:	00 00 00 
    9969:	e9 94 00 00 00       	jmpq   9a02 <func_1+0x24d>
    996e:	c6 85 14 fb ff ff f4 	movb   $0xf4,-0x4ec(%rbp)
    9975:	48 8d 05 15 3e 01 00 	lea    0x13e15(%rip),%rax        # 1d791 <g_1892+0x11>
    997c:	48 89 85 80 fb ff ff 	mov    %rax,-0x480(%rbp)
    9983:	48 8d 05 56 6a 01 00 	lea    0x16a56(%rip),%rax        # 203e0 <g_916>
    998a:	48 89 85 88 fb ff ff 	mov    %rax,-0x478(%rbp)
    9991:	c7 85 34 fb ff ff 07 	movl   $0x7,-0x4cc(%rbp)
    9998:	00 00 00 
    999b:	48 c7 85 90 fb ff ff 	movq   $0x0,-0x470(%rbp)
    99a2:	00 00 00 00 
    99a6:	c7 85 38 fb ff ff 00 	movl   $0x0,-0x4c8(%rbp)
    99ad:	00 00 00 
    99b0:	c7 85 3c fb ff ff 58 	movl   $0xa8a45858,-0x4c4(%rbp)
    99b7:	58 a4 a8 
    99ba:	48 c7 85 98 fb ff ff 	movq   $0x0,-0x468(%rbp)
    99c1:	00 00 00 00 
    99c5:	48 c7 85 a0 fb ff ff 	movq   $0x0,-0x460(%rbp)
    99cc:	00 00 00 00 
    99d0:	48 8d 05 49 16 01 00 	lea    0x11649(%rip),%rax        # 1b020 <g_1102>
    99d7:	48 89 85 40 fb ff ff 	mov    %rax,-0x4c0(%rbp)
    99de:	48 8d 85 40 fb ff ff 	lea    -0x4c0(%rbp),%rax
    99e5:	48 89 85 a8 fb ff ff 	mov    %rax,-0x458(%rbp)
    99ec:	c6 85 15 fb ff ff 6b 	movb   $0x6b,-0x4eb(%rbp)
    99f3:	8b 05 33 e6 00 00    	mov    0xe633(%rip),%eax        # 1802c <g_6>
    99f9:	83 e8 01             	sub    $0x1,%eax
    99fc:	89 05 2a e6 00 00    	mov    %eax,0xe62a(%rip)        # 1802c <g_6>
    9a02:	8b 05 24 e6 00 00    	mov    0xe624(%rip),%eax        # 1802c <g_6>
    9a08:	83 f8 e6             	cmp    $0xffffffe6,%eax
    9a0b:	0f 85 5d ff ff ff    	jne    996e <func_1+0x1b9>
    9a11:	8b 05 0d e6 00 00    	mov    0xe60d(%rip),%eax        # 18024 <g_2>
    9a17:	be 01 00 00 00       	mov    $0x1,%esi
    9a1c:	89 c7                	mov    %eax,%edi
    9a1e:	e8 93 eb ff ff       	callq  85b6 <safe_add_func_int32_t_s_s>
    9a23:	89 05 fb e5 00 00    	mov    %eax,0xe5fb(%rip)        # 18024 <g_2>
    9a29:	8b 05 f5 e5 00 00    	mov    0xe5f5(%rip),%eax        # 18024 <g_2>
    9a2f:	83 f8 0a             	cmp    $0xa,%eax
    9a32:	0f 8f b1 fe ff ff    	jg     98e9 <func_1+0x134>
    9a38:	48 8b 85 48 fb ff ff 	mov    -0x4b8(%rbp),%rax
    9a3f:	8b 18                	mov    (%rax),%ebx
    9a41:	48 8b 85 48 fb ff ff 	mov    -0x4b8(%rbp),%rax
    9a48:	8b 00                	mov    (%rax),%eax
    9a4a:	44 0f be e0          	movsbl %al,%r12d
    9a4e:	48 8b 85 48 fb ff ff 	mov    -0x4b8(%rbp),%rax
    9a55:	44 8b 28             	mov    (%rax),%r13d
    9a58:	48 8b 85 48 fb ff ff 	mov    -0x4b8(%rbp),%rax
    9a5f:	8b 00                	mov    (%rax),%eax
    9a61:	89 85 0c fb ff ff    	mov    %eax,-0x4f4(%rbp)
    9a67:	0f b7 05 8a 0a 01 00 	movzwl 0x10a8a(%rip),%eax        # 1a4f8 <g_610+0x8>
    9a6e:	44 0f bf f0          	movswl %ax,%r14d
    9a72:	48 8b 85 48 fb ff ff 	mov    -0x4b8(%rbp),%rax
    9a79:	44 8b 38             	mov    (%rax),%r15d
    9a7c:	48 8b 85 48 fb ff ff 	mov    -0x4b8(%rbp),%rax
    9a83:	8b 00                	mov    (%rax),%eax
    9a85:	85 c0                	test   %eax,%eax
    9a87:	75 0d                	jne    9a96 <func_1+0x2e1>
    9a89:	48 8b 85 48 fb ff ff 	mov    -0x4b8(%rbp),%rax
    9a90:	8b 00                	mov    (%rax),%eax
    9a92:	85 c0                	test   %eax,%eax
    9a94:	74 07                	je     9a9d <func_1+0x2e8>
    9a96:	b8 01 00 00 00       	mov    $0x1,%eax
    9a9b:	eb 05                	jmp    9aa2 <func_1+0x2ed>
    9a9d:	b8 00 00 00 00       	mov    $0x0,%eax
    9aa2:	89 85 08 fb ff ff    	mov    %eax,-0x4f8(%rbp)
    9aa8:	48 8b 85 48 fb ff ff 	mov    -0x4b8(%rbp),%rax
    9aaf:	8b 00                	mov    (%rax),%eax
    9ab1:	48 98                	cltq   
    9ab3:	48 89 85 00 fb ff ff 	mov    %rax,-0x500(%rbp)
    9aba:	0f b6 85 11 fb ff ff 	movzbl -0x4ef(%rbp),%eax
    9ac1:	0f be c0             	movsbl %al,%eax
    9ac4:	be 05 00 00 00       	mov    $0x5,%esi
    9ac9:	89 c7                	mov    %eax,%edi
    9acb:	e8 65 e8 ff ff       	callq  8335 <safe_rshift_func_int8_t_s_s>
    9ad0:	48 8b b5 00 fb ff ff 	mov    -0x500(%rbp),%rsi
    9ad7:	48 bf e8 6d 66 24 fe 	movabs $0x7673adfe24666de8,%rdi
    9ade:	ad 73 76 
    9ae1:	e8 65 f5 ff ff       	callq  904b <safe_sub_func_uint64_t_u_u>
    9ae6:	48 8b 85 50 fb ff ff 	mov    -0x4b0(%rbp),%rax
    9aed:	48 c7 00 01 00 00 00 	movq   $0x1,(%rax)
    9af4:	48 8b 85 50 fb ff ff 	mov    -0x4b0(%rbp),%rax
    9afb:	48 8b 10             	mov    (%rax),%rdx
    9afe:	48 8b 05 7b 62 01 00 	mov    0x1627b(%rip),%rax        # 1fd80 <g_898>
    9b05:	48 8b 00             	mov    (%rax),%rax
    9b08:	48 39 c2             	cmp    %rax,%rdx
    9b0b:	75 0b                	jne    9b18 <func_1+0x363>
    9b0d:	48 8b 85 48 fb ff ff 	mov    -0x4b8(%rbp),%rax
    9b14:	8b 00                	mov    (%rax),%eax
    9b16:	85 c0                	test   %eax,%eax
    9b18:	ba 00 00 00 00       	mov    $0x0,%edx
    9b1d:	48 8b 85 48 fb ff ff 	mov    -0x4b8(%rbp),%rax
    9b24:	8b 00                	mov    (%rax),%eax
    9b26:	39 c2                	cmp    %eax,%edx
    9b28:	0f 9d c0             	setge  %al
    9b2b:	0f b6 c0             	movzbl %al,%eax
    9b2e:	be 49 12 40 f5       	mov    $0xf5401249,%esi
    9b33:	89 c7                	mov    %eax,%edi
    9b35:	e8 7e f3 ff ff       	callq  8eb8 <safe_add_func_uint32_t_u_u>
    9b3a:	39 85 08 fb ff ff    	cmp    %eax,-0x4f8(%rbp)
    9b40:	75 0d                	jne    9b4f <func_1+0x39a>
    9b42:	48 8b 05 4f 70 01 00 	mov    0x1704f(%rip),%rax        # 20b98 <g_1939>
    9b49:	8b 00                	mov    (%rax),%eax
    9b4b:	85 c0                	test   %eax,%eax
    9b4d:	74 07                	je     9b56 <func_1+0x3a1>
    9b4f:	b8 01 00 00 00       	mov    $0x1,%eax
    9b54:	eb 05                	jmp    9b5b <func_1+0x3a6>
    9b56:	b8 00 00 00 00       	mov    $0x0,%eax
    9b5b:	44 89 fe             	mov    %r15d,%esi
    9b5e:	89 c7                	mov    %eax,%edi
    9b60:	e8 67 eb ff ff       	callq  86cc <safe_mod_func_int32_t_s_s>
    9b65:	48 63 d0             	movslq %eax,%rdx
    9b68:	48 8b 05 11 62 01 00 	mov    0x16211(%rip),%rax        # 1fd80 <g_898>
    9b6f:	48 8b 00             	mov    (%rax),%rax
    9b72:	48 39 c2             	cmp    %rax,%rdx
    9b75:	0f 9c c2             	setl   %dl
    9b78:	48 8b 05 01 62 01 00 	mov    0x16201(%rip),%rax        # 1fd80 <g_898>
    9b7f:	0f b6 d2             	movzbl %dl,%edx
    9b82:	48 89 10             	mov    %rdx,(%rax)
    9b85:	44 89 f6             	mov    %r14d,%esi
    9b88:	bf 85 24 00 00       	mov    $0x2485,%edi
    9b8d:	e8 63 e8 ff ff       	callq  83f5 <safe_mul_func_int16_t_s_s>
    9b92:	0f b6 c0             	movzbl %al,%eax
    9b95:	8b b5 0c fb ff ff    	mov    -0x4f4(%rbp),%esi
    9b9b:	89 c7                	mov    %eax,%edi
    9b9d:	e8 1c f1 ff ff       	callq  8cbe <safe_rshift_func_uint8_t_u_u>
    9ba2:	0f b6 c0             	movzbl %al,%eax
    9ba5:	44 89 ee             	mov    %r13d,%esi
    9ba8:	89 c7                	mov    %eax,%edi
    9baa:	e8 07 ea ff ff       	callq  85b6 <safe_add_func_int32_t_s_s>
    9baf:	0f be c0             	movsbl %al,%eax
    9bb2:	44 89 e6             	mov    %r12d,%esi
    9bb5:	89 c7                	mov    %eax,%edi
    9bb7:	e8 56 e6 ff ff       	callq  8212 <safe_mul_func_int8_t_s_s>
    9bbc:	48 0f be d0          	movsbq %al,%rdx
    9bc0:	48 8b 05 b1 5f 01 00 	mov    0x15fb1(%rip),%rax        # 1fb78 <g_879>
    9bc7:	48 8b 00             	mov    (%rax),%rax
    9bca:	48 8b 00             	mov    (%rax),%rax
    9bcd:	48 89 d6             	mov    %rdx,%rsi
    9bd0:	48 89 c7             	mov    %rax,%rdi
    9bd3:	e8 a8 f4 ff ff       	callq  9080 <safe_mod_func_uint64_t_u_u>
    9bd8:	89 c2                	mov    %eax,%edx
    9bda:	48 8b 85 48 fb ff ff 	mov    -0x4b8(%rbp),%rax
    9be1:	8b 00                	mov    (%rax),%eax
    9be3:	21 d0                	and    %edx,%eax
    9be5:	48 8b 95 48 fb ff ff 	mov    -0x4b8(%rbp),%rdx
    9bec:	8b 12                	mov    (%rdx),%edx
    9bee:	89 c6                	mov    %eax,%esi
    9bf0:	89 d7                	mov    %edx,%edi
    9bf2:	e8 2e f3 ff ff       	callq  8f25 <safe_div_func_uint32_t_u_u>
    9bf7:	83 f8 07             	cmp    $0x7,%eax
    9bfa:	0f 94 c0             	sete   %al
    9bfd:	0f b6 c0             	movzbl %al,%eax
    9c00:	be 13 00 00 00       	mov    $0x13,%esi
    9c05:	89 c7                	mov    %eax,%edi
    9c07:	e8 87 ef ff ff       	callq  8b93 <safe_mul_func_uint8_t_u_u>
    9c0c:	0f b6 c0             	movzbl %al,%eax
    9c0f:	89 de                	mov    %ebx,%esi
    9c11:	89 c7                	mov    %eax,%edi
    9c13:	e8 e7 ea ff ff       	callq  86ff <safe_div_func_int32_t_s_s>
    9c18:	89 c2                	mov    %eax,%edx
    9c1a:	48 8b 85 70 fb ff ff 	mov    -0x490(%rbp),%rax
    9c21:	0f b6 00             	movzbl (%rax),%eax
    9c24:	09 c2                	or     %eax,%edx
    9c26:	48 8b 85 70 fb ff ff 	mov    -0x490(%rbp),%rax
    9c2d:	88 10                	mov    %dl,(%rax)
    9c2f:	48 8b 85 70 fb ff ff 	mov    -0x490(%rbp),%rax
    9c36:	0f b6 00             	movzbl (%rax),%eax
    9c39:	0f be c0             	movsbl %al,%eax
    9c3c:	be 00 00 00 00       	mov    $0x0,%esi
    9c41:	89 c7                	mov    %eax,%edi
    9c43:	e8 ca e5 ff ff       	callq  8212 <safe_mul_func_int8_t_s_s>
    9c48:	84 c0                	test   %al,%al
    9c4a:	74 17                	je     9c63 <func_1+0x4ae>
    9c4c:	48 8b 05 dd 5d 01 00 	mov    0x15ddd(%rip),%rax        # 1fa30 <g_730>
    9c53:	48 8b 00             	mov    (%rax),%rax
    9c56:	8b 00                	mov    (%rax),%eax
    9c58:	85 c0                	test   %eax,%eax
    9c5a:	74 07                	je     9c63 <func_1+0x4ae>
    9c5c:	b8 01 00 00 00       	mov    $0x1,%eax
    9c61:	eb 05                	jmp    9c68 <func_1+0x4b3>
    9c63:	b8 00 00 00 00       	mov    $0x0,%eax
    9c68:	85 c0                	test   %eax,%eax
    9c6a:	0f 9e c0             	setle  %al
    9c6d:	0f b6 d0             	movzbl %al,%edx
    9c70:	48 8b 05 c1 5c 01 00 	mov    0x15cc1(%rip),%rax        # 1f938 <g_320>
    9c77:	8b 00                	mov    (%rax),%eax
    9c79:	31 d0                	xor    %edx,%eax
    9c7b:	85 c0                	test   %eax,%eax
    9c7d:	0f 9f c0             	setg   %al
    9c80:	0f b6 c0             	movzbl %al,%eax
    9c83:	48 98                	cltq   
    9c85:	48 31 85 78 fb ff ff 	xor    %rax,-0x488(%rbp)
    9c8c:	48 8b 05 cd 60 01 00 	mov    0x160cd(%rip),%rax        # 1fd60 <g_881>
    9c93:	48 8b 00             	mov    (%rax),%rax
    9c96:	48 8b 00             	mov    (%rax),%rax
    9c99:	4c 8b 28             	mov    (%rax),%r13
    9c9c:	48 8b 85 48 fb ff ff 	mov    -0x4b8(%rbp),%rax
    9ca3:	8b 00                	mov    (%rax),%eax
    9ca5:	48 63 d8             	movslq %eax,%rbx
    9ca8:	48 8b 05 91 5c 01 00 	mov    0x15c91(%rip),%rax        # 1f940 <g_372>
    9caf:	48 8b 85 48 fb ff ff 	mov    -0x4b8(%rbp),%rax
    9cb6:	44 8b 20             	mov    (%rax),%r12d
    9cb9:	44 8b b5 24 fb ff ff 	mov    -0x4dc(%rbp),%r14d
    9cc0:	48 8b 05 b9 60 01 00 	mov    0x160b9(%rip),%rax        # 1fd80 <g_898>
    9cc7:	48 8b 00             	mov    (%rax),%rax
    9cca:	48 85 c0             	test   %rax,%rax
    9ccd:	0f 9f c0             	setg   %al
    9cd0:	0f b6 d0             	movzbl %al,%edx
    9cd3:	48 8b 05 8e 60 01 00 	mov    0x1608e(%rip),%rax        # 1fd68 <g_882>
    9cda:	48 8b 00             	mov    (%rax),%rax
    9cdd:	48 8b 00             	mov    (%rax),%rax
    9ce0:	48 8b 00             	mov    (%rax),%rax
    9ce3:	48 89 d6             	mov    %rdx,%rsi
    9ce6:	48 89 c7             	mov    %rax,%rdi
    9ce9:	e8 40 f3 ff ff       	callq  902e <safe_add_func_uint64_t_u_u>
    9cee:	4c 89 f2             	mov    %r14,%rdx
    9cf1:	48 31 c2             	xor    %rax,%rdx
    9cf4:	48 0f be 85 12 fb ff 	movsbq -0x4ee(%rbp),%rax
    9cfb:	ff 
    9cfc:	48 39 c2             	cmp    %rax,%rdx
    9cff:	73 07                	jae    9d08 <func_1+0x553>
    9d01:	ba 52 00 00 00       	mov    $0x52,%edx
    9d06:	eb 05                	jmp    9d0d <func_1+0x558>
    9d08:	ba 53 00 00 00       	mov    $0x53,%edx
    9d0d:	48 8b 85 70 fb ff ff 	mov    -0x490(%rbp),%rax
    9d14:	88 10                	mov    %dl,(%rax)
    9d16:	48 8b 05 5b 5e 01 00 	mov    0x15e5b(%rip),%rax        # 1fb78 <g_879>
    9d1d:	48 8b 00             	mov    (%rax),%rax
    9d20:	48 8b 00             	mov    (%rax),%rax
    9d23:	be 6b 8a 7c 2c       	mov    $0x2c7c8a6b,%esi
    9d28:	48 89 c7             	mov    %rax,%rdi
    9d2b:	e8 fe f2 ff ff       	callq  902e <safe_add_func_uint64_t_u_u>
    9d30:	0f b7 c0             	movzwl %ax,%eax
    9d33:	44 89 e6             	mov    %r12d,%esi
    9d36:	89 c7                	mov    %eax,%edi
    9d38:	e8 0b f1 ff ff       	callq  8e48 <safe_rshift_func_uint16_t_u_s>
    9d3d:	48 8b 85 48 fb ff ff 	mov    -0x4b8(%rbp),%rax
    9d44:	8b 00                	mov    (%rax),%eax
    9d46:	83 f0 01             	xor    $0x1,%eax
    9d49:	48 98                	cltq   
    9d4b:	48 89 de             	mov    %rbx,%rsi
    9d4e:	48 89 c7             	mov    %rax,%rdi
    9d51:	e8 52 eb ff ff       	callq  88a8 <safe_sub_func_int64_t_s_s>
    9d56:	48 85 c0             	test   %rax,%rax
    9d59:	75 0f                	jne    9d6a <func_1+0x5b5>
    9d5b:	48 8b 05 0e 5b 01 00 	mov    0x15b0e(%rip),%rax        # 1f870 <g_251>
    9d62:	48 8b 00             	mov    (%rax),%rax
    9d65:	48 85 c0             	test   %rax,%rax
    9d68:	74 07                	je     9d71 <func_1+0x5bc>
    9d6a:	b8 01 00 00 00       	mov    $0x1,%eax
    9d6f:	eb 05                	jmp    9d76 <func_1+0x5c1>
    9d71:	b8 00 00 00 00       	mov    $0x0,%eax
    9d76:	48 98                	cltq   
    9d78:	49 39 c5             	cmp    %rax,%r13
    9d7b:	72 14                	jb     9d91 <func_1+0x5dc>
    9d7d:	48 8b 85 48 fb ff ff 	mov    -0x4b8(%rbp),%rax
    9d84:	8b 00                	mov    (%rax),%eax
    9d86:	85 c0                	test   %eax,%eax
    9d88:	74 07                	je     9d91 <func_1+0x5dc>
    9d8a:	b8 01 00 00 00       	mov    $0x1,%eax
    9d8f:	eb 05                	jmp    9d96 <func_1+0x5e1>
    9d91:	b8 00 00 00 00       	mov    $0x0,%eax
    9d96:	30 85 13 fb ff ff    	xor    %al,-0x4ed(%rbp)
    9d9c:	48 8d 05 7f e3 00 00 	lea    0xe37f(%rip),%rax        # 18122 <g_122>
    9da3:	0f b7 00             	movzwl (%rax),%eax
    9da6:	48 8b 4d c8          	mov    -0x38(%rbp),%rcx
    9daa:	64 48 33 0c 25 28 00 	xor    %fs:0x28,%rcx
    9db1:	00 00 
    9db3:	74 05                	je     9dba <func_1+0x605>
    9db5:	e8 b6 e2 ff ff       	callq  8070 <__stack_chk_fail@plt>
    9dba:	48 81 c4 d8 04 00 00 	add    $0x4d8,%rsp
    9dc1:	5b                   	pop    %rbx
    9dc2:	41 5c                	pop    %r12
    9dc4:	41 5d                	pop    %r13
    9dc6:	41 5e                	pop    %r14
    9dc8:	41 5f                	pop    %r15
    9dca:	5d                   	pop    %rbp
    9dcb:	c3                   	retq   

0000000000009dcc <func_17>:
    9dcc:	f3 0f 1e fa          	endbr64 
    9dd0:	55                   	push   %rbp
    9dd1:	48 89 e5             	mov    %rsp,%rbp
    9dd4:	41 54                	push   %r12
    9dd6:	53                   	push   %rbx
    9dd7:	48 81 ec a0 0c 00 00 	sub    $0xca0,%rsp
    9dde:	89 bd 5c f3 ff ff    	mov    %edi,-0xca4(%rbp)
    9de4:	89 b5 58 f3 ff ff    	mov    %esi,-0xca8(%rbp)
    9dea:	48 89 95 50 f3 ff ff 	mov    %rdx,-0xcb0(%rbp)
    9df1:	64 48 8b 04 25 28 00 	mov    %fs:0x28,%rax
    9df8:	00 00 
    9dfa:	48 89 45 e8          	mov    %rax,-0x18(%rbp)
    9dfe:	31 c0                	xor    %eax,%eax
    9e00:	48 c7 85 d8 f3 ff ff 	movq   $0x0,-0xc28(%rbp)
    9e07:	00 00 00 00 
    9e0b:	48 8d 85 d8 f3 ff ff 	lea    -0xc28(%rbp),%rax
    9e12:	48 89 85 08 f4 ff ff 	mov    %rax,-0xbf8(%rbp)
    9e19:	48 8d 05 80 04 01 00 	lea    0x10480(%rip),%rax        # 1a2a0 <g_300>
    9e20:	48 89 85 e0 f3 ff ff 	mov    %rax,-0xc20(%rbp)
    9e27:	48 8d 85 e0 f3 ff ff 	lea    -0xc20(%rbp),%rax
    9e2e:	48 89 85 10 f4 ff ff 	mov    %rax,-0xbf0(%rbp)
    9e35:	c7 85 80 f3 ff ff c5 	movl   $0xf46f6bc5,-0xc80(%rbp)
    9e3c:	6b 6f f4 
    9e3f:	c7 85 84 f3 ff ff 23 	movl   $0xf7e5f23,-0xc7c(%rbp)
    9e46:	5f 7e 0f 
    9e49:	c7 85 88 f3 ff ff 1d 	movl   $0x5b00fa1d,-0xc78(%rbp)
    9e50:	fa 00 5b 
    9e53:	48 8d 05 1e 5d 01 00 	lea    0x15d1e(%rip),%rax        # 1fb78 <g_879>
    9e5a:	48 89 85 18 f4 ff ff 	mov    %rax,-0xbe8(%rbp)
    9e61:	0f b7 85 70 f3 ff ff 	movzwl -0xc90(%rbp),%eax
    9e68:	66 25 00 f8          	and    $0xf800,%ax
    9e6c:	66 0d e9 07          	or     $0x7e9,%ax
    9e70:	66 89 85 70 f3 ff ff 	mov    %ax,-0xc90(%rbp)
    9e77:	8b 85 70 f3 ff ff    	mov    -0xc90(%rbp),%eax
    9e7d:	25 ff 07 fe ff       	and    $0xfffe07ff,%eax
    9e82:	89 85 70 f3 ff ff    	mov    %eax,-0xc90(%rbp)
    9e88:	66 c7 85 40 f6 ff ff 	movw   $0x9dee,-0x9c0(%rbp)
    9e8f:	ee 9d 
    9e91:	66 c7 85 42 f6 ff ff 	movw   $0x2706,-0x9be(%rbp)
    9e98:	06 27 
    9e9a:	66 c7 85 44 f6 ff ff 	movw   $0x2706,-0x9bc(%rbp)
    9ea1:	06 27 
    9ea3:	66 c7 85 46 f6 ff ff 	movw   $0x9325,-0x9ba(%rbp)
    9eaa:	25 93 
    9eac:	66 c7 85 48 f6 ff ff 	movw   $0x7,-0x9b8(%rbp)
    9eb3:	07 00 
    9eb5:	66 c7 85 4a f6 ff ff 	movw   $0x25d7,-0x9b6(%rbp)
    9ebc:	d7 25 
    9ebe:	66 c7 85 4c f6 ff ff 	movw   $0x9dee,-0x9b4(%rbp)
    9ec5:	ee 9d 
    9ec7:	66 c7 85 4e f6 ff ff 	movw   $0x2706,-0x9b2(%rbp)
    9ece:	06 27 
    9ed0:	66 c7 85 50 f6 ff ff 	movw   $0x2706,-0x9b0(%rbp)
    9ed7:	06 27 
    9ed9:	66 c7 85 52 f6 ff ff 	movw   $0x9325,-0x9ae(%rbp)
    9ee0:	25 93 
    9ee2:	66 c7 85 54 f6 ff ff 	movw   $0x7,-0x9ac(%rbp)
    9ee9:	07 00 
    9eeb:	66 c7 85 56 f6 ff ff 	movw   $0x25d7,-0x9aa(%rbp)
    9ef2:	d7 25 
    9ef4:	66 c7 85 58 f6 ff ff 	movw   $0x9dee,-0x9a8(%rbp)
    9efb:	ee 9d 
    9efd:	66 c7 85 5a f6 ff ff 	movw   $0x2706,-0x9a6(%rbp)
    9f04:	06 27 
    9f06:	66 c7 85 5c f6 ff ff 	movw   $0x2706,-0x9a4(%rbp)
    9f0d:	06 27 
    9f0f:	66 c7 85 5e f6 ff ff 	movw   $0x9325,-0x9a2(%rbp)
    9f16:	25 93 
    9f18:	66 c7 85 60 f6 ff ff 	movw   $0x7,-0x9a0(%rbp)
    9f1f:	07 00 
    9f21:	66 c7 85 62 f6 ff ff 	movw   $0x25d7,-0x99e(%rbp)
    9f28:	d7 25 
    9f2a:	66 c7 85 64 f6 ff ff 	movw   $0x9dee,-0x99c(%rbp)
    9f31:	ee 9d 
    9f33:	66 c7 85 66 f6 ff ff 	movw   $0x2706,-0x99a(%rbp)
    9f3a:	06 27 
    9f3c:	66 c7 85 68 f6 ff ff 	movw   $0x2706,-0x998(%rbp)
    9f43:	06 27 
    9f45:	66 c7 85 6a f6 ff ff 	movw   $0x9325,-0x996(%rbp)
    9f4c:	25 93 
    9f4e:	66 c7 85 6c f6 ff ff 	movw   $0x7,-0x994(%rbp)
    9f55:	07 00 
    9f57:	66 c7 85 6e f6 ff ff 	movw   $0x25d7,-0x992(%rbp)
    9f5e:	d7 25 
    9f60:	66 c7 85 70 f6 ff ff 	movw   $0x9dee,-0x990(%rbp)
    9f67:	ee 9d 
    9f69:	66 c7 85 72 f6 ff ff 	movw   $0x2706,-0x98e(%rbp)
    9f70:	06 27 
    9f72:	66 c7 85 74 f6 ff ff 	movw   $0x2706,-0x98c(%rbp)
    9f79:	06 27 
    9f7b:	66 c7 85 76 f6 ff ff 	movw   $0x9325,-0x98a(%rbp)
    9f82:	25 93 
    9f84:	66 c7 85 78 f6 ff ff 	movw   $0x7,-0x988(%rbp)
    9f8b:	07 00 
    9f8d:	66 c7 85 7a f6 ff ff 	movw   $0x25d7,-0x986(%rbp)
    9f94:	d7 25 
    9f96:	66 c7 85 7c f6 ff ff 	movw   $0x9dee,-0x984(%rbp)
    9f9d:	ee 9d 
    9f9f:	66 c7 85 7e f6 ff ff 	movw   $0x2706,-0x982(%rbp)
    9fa6:	06 27 
    9fa8:	66 c7 85 80 f6 ff ff 	movw   $0x2706,-0x980(%rbp)
    9faf:	06 27 
    9fb1:	66 c7 85 82 f6 ff ff 	movw   $0x9325,-0x97e(%rbp)
    9fb8:	25 93 
    9fba:	66 c7 85 84 f6 ff ff 	movw   $0x7,-0x97c(%rbp)
    9fc1:	07 00 
    9fc3:	66 c7 85 86 f6 ff ff 	movw   $0x25d7,-0x97a(%rbp)
    9fca:	d7 25 
    9fcc:	66 c7 85 88 f6 ff ff 	movw   $0x9dee,-0x978(%rbp)
    9fd3:	ee 9d 
    9fd5:	66 c7 85 8a f6 ff ff 	movw   $0x2706,-0x976(%rbp)
    9fdc:	06 27 
    9fde:	66 c7 85 8c f6 ff ff 	movw   $0x2706,-0x974(%rbp)
    9fe5:	06 27 
    9fe7:	66 c7 85 8e f6 ff ff 	movw   $0x9325,-0x972(%rbp)
    9fee:	25 93 
    9ff0:	66 c7 85 90 f6 ff ff 	movw   $0x7,-0x970(%rbp)
    9ff7:	07 00 
    9ff9:	66 c7 85 92 f6 ff ff 	movw   $0x25d7,-0x96e(%rbp)
    a000:	d7 25 
    a002:	66 c7 85 94 f6 ff ff 	movw   $0x9dee,-0x96c(%rbp)
    a009:	ee 9d 
    a00b:	66 c7 85 96 f6 ff ff 	movw   $0x2706,-0x96a(%rbp)
    a012:	06 27 
    a014:	66 c7 85 98 f6 ff ff 	movw   $0x2706,-0x968(%rbp)
    a01b:	06 27 
    a01d:	66 c7 85 9a f6 ff ff 	movw   $0x9325,-0x966(%rbp)
    a024:	25 93 
    a026:	66 c7 85 9c f6 ff ff 	movw   $0x7,-0x964(%rbp)
    a02d:	07 00 
    a02f:	66 c7 85 9e f6 ff ff 	movw   $0x25d7,-0x962(%rbp)
    a036:	d7 25 
    a038:	48 c7 85 20 f4 ff ff 	movq   $0x0,-0xbe0(%rbp)
    a03f:	00 00 00 00 
    a043:	c7 85 8c f3 ff ff 96 	movl   $0x64b3bf96,-0xc74(%rbp)
    a04a:	bf b3 64 
    a04d:	48 8d 05 4c e0 00 00 	lea    0xe04c(%rip),%rax        # 180a0 <g_49+0x40>
    a054:	48 89 85 28 f4 ff ff 	mov    %rax,-0xbd8(%rbp)
    a05b:	c7 85 90 f3 ff ff e9 	movl   $0x563302e9,-0xc70(%rbp)
    a062:	02 33 56 
    a065:	c7 85 94 f3 ff ff e8 	movl   $0x487785e8,-0xc6c(%rbp)
    a06c:	85 77 48 
    a06f:	c7 85 98 f3 ff ff f0 	movl   $0xdb582ef0,-0xc68(%rbp)
    a076:	2e 58 db 
    a079:	c7 85 9c f3 ff ff e2 	movl   $0x610da1e2,-0xc64(%rbp)
    a080:	a1 0d 61 
    a083:	c7 85 a0 f3 ff ff 4c 	movl   $0xec049a4c,-0xc60(%rbp)
    a08a:	9a 04 ec 
    a08d:	48 c7 85 e8 f3 ff ff 	movq   $0x0,-0xc18(%rbp)
    a094:	00 00 00 00 
    a098:	48 8d 85 e8 f3 ff ff 	lea    -0xc18(%rbp),%rax
    a09f:	48 89 85 30 f4 ff ff 	mov    %rax,-0xbd0(%rbp)
    a0a6:	48 c7 85 38 f4 ff ff 	movq   $0x0,-0xbc8(%rbp)
    a0ad:	00 00 00 00 
    a0b1:	66 c7 85 66 f3 ff ff 	movw   $0xfffa,-0xc9a(%rbp)
    a0b8:	fa ff 
    a0ba:	48 8d 05 0f 59 01 00 	lea    0x1590f(%rip),%rax        # 1f9d0 <g_706>
    a0c1:	48 89 85 40 f4 ff ff 	mov    %rax,-0xbc0(%rbp)
    a0c8:	66 c7 85 68 f3 ff ff 	movw   $0xffff,-0xc98(%rbp)
    a0cf:	ff ff 
    a0d1:	66 c7 85 6a f3 ff ff 	movw   $0xecc6,-0xc96(%rbp)
    a0d8:	c6 ec 
    a0da:	66 c7 85 20 f7 ff ff 	movw   $0x2,-0x8e0(%rbp)
    a0e1:	02 00 
    a0e3:	8b 85 24 f7 ff ff    	mov    -0x8dc(%rbp),%eax
    a0e9:	25 00 00 fe ff       	and    $0xfffe0000,%eax
    a0ee:	0d 9c fe 01 00       	or     $0x1fe9c,%eax
    a0f3:	89 85 24 f7 ff ff    	mov    %eax,-0x8dc(%rbp)
    a0f9:	0f b6 85 26 f7 ff ff 	movzbl -0x8da(%rbp),%eax
    a100:	83 e0 f1             	and    $0xfffffff1,%eax
    a103:	83 c8 02             	or     $0x2,%eax
    a106:	88 85 26 f7 ff ff    	mov    %al,-0x8da(%rbp)
    a10c:	8b 85 28 f7 ff ff    	mov    -0x8d8(%rbp),%eax
    a112:	25 00 00 e0 ff       	and    $0xffe00000,%eax
    a117:	0d d9 02 00 00       	or     $0x2d9,%eax
    a11c:	89 85 28 f7 ff ff    	mov    %eax,-0x8d8(%rbp)
    a122:	66 c7 85 2c f7 ff ff 	movw   $0x2,-0x8d4(%rbp)
    a129:	02 00 
    a12b:	8b 85 30 f7 ff ff    	mov    -0x8d0(%rbp),%eax
    a131:	25 00 00 fe ff       	and    $0xfffe0000,%eax
    a136:	0d 9c fe 01 00       	or     $0x1fe9c,%eax
    a13b:	89 85 30 f7 ff ff    	mov    %eax,-0x8d0(%rbp)
    a141:	0f b6 85 32 f7 ff ff 	movzbl -0x8ce(%rbp),%eax
    a148:	83 e0 f1             	and    $0xfffffff1,%eax
    a14b:	83 c8 02             	or     $0x2,%eax
    a14e:	88 85 32 f7 ff ff    	mov    %al,-0x8ce(%rbp)
    a154:	8b 85 34 f7 ff ff    	mov    -0x8cc(%rbp),%eax
    a15a:	25 00 00 e0 ff       	and    $0xffe00000,%eax
    a15f:	0d d9 02 00 00       	or     $0x2d9,%eax
    a164:	89 85 34 f7 ff ff    	mov    %eax,-0x8cc(%rbp)
    a16a:	66 c7 85 38 f7 ff ff 	movw   $0x2,-0x8c8(%rbp)
    a171:	02 00 
    a173:	8b 85 3c f7 ff ff    	mov    -0x8c4(%rbp),%eax
    a179:	25 00 00 fe ff       	and    $0xfffe0000,%eax
    a17e:	0d 9c fe 01 00       	or     $0x1fe9c,%eax
    a183:	89 85 3c f7 ff ff    	mov    %eax,-0x8c4(%rbp)
    a189:	0f b6 85 3e f7 ff ff 	movzbl -0x8c2(%rbp),%eax
    a190:	83 e0 f1             	and    $0xfffffff1,%eax
    a193:	83 c8 02             	or     $0x2,%eax
    a196:	88 85 3e f7 ff ff    	mov    %al,-0x8c2(%rbp)
    a19c:	8b 85 40 f7 ff ff    	mov    -0x8c0(%rbp),%eax
    a1a2:	25 00 00 e0 ff       	and    $0xffe00000,%eax
    a1a7:	0d d9 02 00 00       	or     $0x2d9,%eax
    a1ac:	89 85 40 f7 ff ff    	mov    %eax,-0x8c0(%rbp)
    a1b2:	66 c7 85 44 f7 ff ff 	movw   $0x2,-0x8bc(%rbp)
    a1b9:	02 00 
    a1bb:	8b 85 48 f7 ff ff    	mov    -0x8b8(%rbp),%eax
    a1c1:	25 00 00 fe ff       	and    $0xfffe0000,%eax
    a1c6:	0d 9c fe 01 00       	or     $0x1fe9c,%eax
    a1cb:	89 85 48 f7 ff ff    	mov    %eax,-0x8b8(%rbp)
    a1d1:	0f b6 85 4a f7 ff ff 	movzbl -0x8b6(%rbp),%eax
    a1d8:	83 e0 f1             	and    $0xfffffff1,%eax
    a1db:	83 c8 02             	or     $0x2,%eax
    a1de:	88 85 4a f7 ff ff    	mov    %al,-0x8b6(%rbp)
    a1e4:	8b 85 4c f7 ff ff    	mov    -0x8b4(%rbp),%eax
    a1ea:	25 00 00 e0 ff       	and    $0xffe00000,%eax
    a1ef:	0d d9 02 00 00       	or     $0x2d9,%eax
    a1f4:	89 85 4c f7 ff ff    	mov    %eax,-0x8b4(%rbp)
    a1fa:	66 c7 85 50 f7 ff ff 	movw   $0x2,-0x8b0(%rbp)
    a201:	02 00 
    a203:	8b 85 54 f7 ff ff    	mov    -0x8ac(%rbp),%eax
    a209:	25 00 00 fe ff       	and    $0xfffe0000,%eax
    a20e:	0d 9c fe 01 00       	or     $0x1fe9c,%eax
    a213:	89 85 54 f7 ff ff    	mov    %eax,-0x8ac(%rbp)
    a219:	0f b6 85 56 f7 ff ff 	movzbl -0x8aa(%rbp),%eax
    a220:	83 e0 f1             	and    $0xfffffff1,%eax
    a223:	83 c8 02             	or     $0x2,%eax
    a226:	88 85 56 f7 ff ff    	mov    %al,-0x8aa(%rbp)
    a22c:	8b 85 58 f7 ff ff    	mov    -0x8a8(%rbp),%eax
    a232:	25 00 00 e0 ff       	and    $0xffe00000,%eax
    a237:	0d d9 02 00 00       	or     $0x2d9,%eax
    a23c:	89 85 58 f7 ff ff    	mov    %eax,-0x8a8(%rbp)
    a242:	66 c7 85 5c f7 ff ff 	movw   $0x2,-0x8a4(%rbp)
    a249:	02 00 
    a24b:	8b 85 60 f7 ff ff    	mov    -0x8a0(%rbp),%eax
    a251:	25 00 00 fe ff       	and    $0xfffe0000,%eax
    a256:	0d 9c fe 01 00       	or     $0x1fe9c,%eax
    a25b:	89 85 60 f7 ff ff    	mov    %eax,-0x8a0(%rbp)
    a261:	0f b6 85 62 f7 ff ff 	movzbl -0x89e(%rbp),%eax
    a268:	83 e0 f1             	and    $0xfffffff1,%eax
    a26b:	83 c8 02             	or     $0x2,%eax
    a26e:	88 85 62 f7 ff ff    	mov    %al,-0x89e(%rbp)
    a274:	8b 85 64 f7 ff ff    	mov    -0x89c(%rbp),%eax
    a27a:	25 00 00 e0 ff       	and    $0xffe00000,%eax
    a27f:	0d d9 02 00 00       	or     $0x2d9,%eax
    a284:	89 85 64 f7 ff ff    	mov    %eax,-0x89c(%rbp)
    a28a:	66 c7 85 68 f7 ff ff 	movw   $0x2,-0x898(%rbp)
    a291:	02 00 
    a293:	8b 85 6c f7 ff ff    	mov    -0x894(%rbp),%eax
    a299:	25 00 00 fe ff       	and    $0xfffe0000,%eax
    a29e:	0d 9c fe 01 00       	or     $0x1fe9c,%eax
    a2a3:	89 85 6c f7 ff ff    	mov    %eax,-0x894(%rbp)
    a2a9:	0f b6 85 6e f7 ff ff 	movzbl -0x892(%rbp),%eax
    a2b0:	83 e0 f1             	and    $0xfffffff1,%eax
    a2b3:	83 c8 02             	or     $0x2,%eax
    a2b6:	88 85 6e f7 ff ff    	mov    %al,-0x892(%rbp)
    a2bc:	8b 85 70 f7 ff ff    	mov    -0x890(%rbp),%eax
    a2c2:	25 00 00 e0 ff       	and    $0xffe00000,%eax
    a2c7:	0d d9 02 00 00       	or     $0x2d9,%eax
    a2cc:	89 85 70 f7 ff ff    	mov    %eax,-0x890(%rbp)
    a2d2:	66 c7 85 74 f7 ff ff 	movw   $0x2,-0x88c(%rbp)
    a2d9:	02 00 
    a2db:	8b 85 78 f7 ff ff    	mov    -0x888(%rbp),%eax
    a2e1:	25 00 00 fe ff       	and    $0xfffe0000,%eax
    a2e6:	0d 9c fe 01 00       	or     $0x1fe9c,%eax
    a2eb:	89 85 78 f7 ff ff    	mov    %eax,-0x888(%rbp)
    a2f1:	0f b6 85 7a f7 ff ff 	movzbl -0x886(%rbp),%eax
    a2f8:	83 e0 f1             	and    $0xfffffff1,%eax
    a2fb:	83 c8 02             	or     $0x2,%eax
    a2fe:	88 85 7a f7 ff ff    	mov    %al,-0x886(%rbp)
    a304:	8b 85 7c f7 ff ff    	mov    -0x884(%rbp),%eax
    a30a:	25 00 00 e0 ff       	and    $0xffe00000,%eax
    a30f:	0d d9 02 00 00       	or     $0x2d9,%eax
    a314:	89 85 7c f7 ff ff    	mov    %eax,-0x884(%rbp)
    a31a:	66 c7 85 80 f7 ff ff 	movw   $0x2,-0x880(%rbp)
    a321:	02 00 
    a323:	8b 85 84 f7 ff ff    	mov    -0x87c(%rbp),%eax
    a329:	25 00 00 fe ff       	and    $0xfffe0000,%eax
    a32e:	0d 9c fe 01 00       	or     $0x1fe9c,%eax
    a333:	89 85 84 f7 ff ff    	mov    %eax,-0x87c(%rbp)
    a339:	0f b6 85 86 f7 ff ff 	movzbl -0x87a(%rbp),%eax
    a340:	83 e0 f1             	and    $0xfffffff1,%eax
    a343:	83 c8 02             	or     $0x2,%eax
    a346:	88 85 86 f7 ff ff    	mov    %al,-0x87a(%rbp)
    a34c:	8b 85 88 f7 ff ff    	mov    -0x878(%rbp),%eax
    a352:	25 00 00 e0 ff       	and    $0xffe00000,%eax
    a357:	0d d9 02 00 00       	or     $0x2d9,%eax
    a35c:	89 85 88 f7 ff ff    	mov    %eax,-0x878(%rbp)
    a362:	66 c7 85 8c f7 ff ff 	movw   $0x2,-0x874(%rbp)
    a369:	02 00 
    a36b:	8b 85 90 f7 ff ff    	mov    -0x870(%rbp),%eax
    a371:	25 00 00 fe ff       	and    $0xfffe0000,%eax
    a376:	0d 9c fe 01 00       	or     $0x1fe9c,%eax
    a37b:	89 85 90 f7 ff ff    	mov    %eax,-0x870(%rbp)
    a381:	0f b6 85 92 f7 ff ff 	movzbl -0x86e(%rbp),%eax
    a388:	83 e0 f1             	and    $0xfffffff1,%eax
    a38b:	83 c8 02             	or     $0x2,%eax
    a38e:	88 85 92 f7 ff ff    	mov    %al,-0x86e(%rbp)
    a394:	8b 85 94 f7 ff ff    	mov    -0x86c(%rbp),%eax
    a39a:	25 00 00 e0 ff       	and    $0xffe00000,%eax
    a39f:	0d d9 02 00 00       	or     $0x2d9,%eax
    a3a4:	89 85 94 f7 ff ff    	mov    %eax,-0x86c(%rbp)
    a3aa:	66 c7 85 98 f7 ff ff 	movw   $0x2,-0x868(%rbp)
    a3b1:	02 00 
    a3b3:	8b 85 9c f7 ff ff    	mov    -0x864(%rbp),%eax
    a3b9:	25 00 00 fe ff       	and    $0xfffe0000,%eax
    a3be:	0d 9c fe 01 00       	or     $0x1fe9c,%eax
    a3c3:	89 85 9c f7 ff ff    	mov    %eax,-0x864(%rbp)
    a3c9:	0f b6 85 9e f7 ff ff 	movzbl -0x862(%rbp),%eax
    a3d0:	83 e0 f1             	and    $0xfffffff1,%eax
    a3d3:	83 c8 02             	or     $0x2,%eax
    a3d6:	88 85 9e f7 ff ff    	mov    %al,-0x862(%rbp)
    a3dc:	8b 85 a0 f7 ff ff    	mov    -0x860(%rbp),%eax
    a3e2:	25 00 00 e0 ff       	and    $0xffe00000,%eax
    a3e7:	0d d9 02 00 00       	or     $0x2d9,%eax
    a3ec:	89 85 a0 f7 ff ff    	mov    %eax,-0x860(%rbp)
    a3f2:	66 c7 85 a4 f7 ff ff 	movw   $0x2,-0x85c(%rbp)
    a3f9:	02 00 
    a3fb:	8b 85 a8 f7 ff ff    	mov    -0x858(%rbp),%eax
    a401:	25 00 00 fe ff       	and    $0xfffe0000,%eax
    a406:	0d 9c fe 01 00       	or     $0x1fe9c,%eax
    a40b:	89 85 a8 f7 ff ff    	mov    %eax,-0x858(%rbp)
    a411:	0f b6 85 aa f7 ff ff 	movzbl -0x856(%rbp),%eax
    a418:	83 e0 f1             	and    $0xfffffff1,%eax
    a41b:	83 c8 02             	or     $0x2,%eax
    a41e:	88 85 aa f7 ff ff    	mov    %al,-0x856(%rbp)
    a424:	8b 85 ac f7 ff ff    	mov    -0x854(%rbp),%eax
    a42a:	25 00 00 e0 ff       	and    $0xffe00000,%eax
    a42f:	0d d9 02 00 00       	or     $0x2d9,%eax
    a434:	89 85 ac f7 ff ff    	mov    %eax,-0x854(%rbp)
    a43a:	66 c7 85 b0 f7 ff ff 	movw   $0x2,-0x850(%rbp)
    a441:	02 00 
    a443:	8b 85 b4 f7 ff ff    	mov    -0x84c(%rbp),%eax
    a449:	25 00 00 fe ff       	and    $0xfffe0000,%eax
    a44e:	0d 9c fe 01 00       	or     $0x1fe9c,%eax
    a453:	89 85 b4 f7 ff ff    	mov    %eax,-0x84c(%rbp)
    a459:	0f b6 85 b6 f7 ff ff 	movzbl -0x84a(%rbp),%eax
    a460:	83 e0 f1             	and    $0xfffffff1,%eax
    a463:	83 c8 02             	or     $0x2,%eax
    a466:	88 85 b6 f7 ff ff    	mov    %al,-0x84a(%rbp)
    a46c:	8b 85 b8 f7 ff ff    	mov    -0x848(%rbp),%eax
    a472:	25 00 00 e0 ff       	and    $0xffe00000,%eax
    a477:	0d d9 02 00 00       	or     $0x2d9,%eax
    a47c:	89 85 b8 f7 ff ff    	mov    %eax,-0x848(%rbp)
    a482:	66 c7 85 bc f7 ff ff 	movw   $0x2,-0x844(%rbp)
    a489:	02 00 
    a48b:	8b 85 c0 f7 ff ff    	mov    -0x840(%rbp),%eax
    a491:	25 00 00 fe ff       	and    $0xfffe0000,%eax
    a496:	0d 9c fe 01 00       	or     $0x1fe9c,%eax
    a49b:	89 85 c0 f7 ff ff    	mov    %eax,-0x840(%rbp)
    a4a1:	0f b6 85 c2 f7 ff ff 	movzbl -0x83e(%rbp),%eax
    a4a8:	83 e0 f1             	and    $0xfffffff1,%eax
    a4ab:	83 c8 02             	or     $0x2,%eax
    a4ae:	88 85 c2 f7 ff ff    	mov    %al,-0x83e(%rbp)
    a4b4:	8b 85 c4 f7 ff ff    	mov    -0x83c(%rbp),%eax
    a4ba:	25 00 00 e0 ff       	and    $0xffe00000,%eax
    a4bf:	0d d9 02 00 00       	or     $0x2d9,%eax
    a4c4:	89 85 c4 f7 ff ff    	mov    %eax,-0x83c(%rbp)
    a4ca:	66 c7 85 c8 f7 ff ff 	movw   $0x2,-0x838(%rbp)
    a4d1:	02 00 
    a4d3:	8b 85 cc f7 ff ff    	mov    -0x834(%rbp),%eax
    a4d9:	25 00 00 fe ff       	and    $0xfffe0000,%eax
    a4de:	0d 9c fe 01 00       	or     $0x1fe9c,%eax
    a4e3:	89 85 cc f7 ff ff    	mov    %eax,-0x834(%rbp)
    a4e9:	0f b6 85 ce f7 ff ff 	movzbl -0x832(%rbp),%eax
    a4f0:	83 e0 f1             	and    $0xfffffff1,%eax
    a4f3:	83 c8 02             	or     $0x2,%eax
    a4f6:	88 85 ce f7 ff ff    	mov    %al,-0x832(%rbp)
    a4fc:	8b 85 d0 f7 ff ff    	mov    -0x830(%rbp),%eax
    a502:	25 00 00 e0 ff       	and    $0xffe00000,%eax
    a507:	0d d9 02 00 00       	or     $0x2d9,%eax
    a50c:	89 85 d0 f7 ff ff    	mov    %eax,-0x830(%rbp)
    a512:	66 c7 85 d4 f7 ff ff 	movw   $0x2,-0x82c(%rbp)
    a519:	02 00 
    a51b:	8b 85 d8 f7 ff ff    	mov    -0x828(%rbp),%eax
    a521:	25 00 00 fe ff       	and    $0xfffe0000,%eax
    a526:	0d 9c fe 01 00       	or     $0x1fe9c,%eax
    a52b:	89 85 d8 f7 ff ff    	mov    %eax,-0x828(%rbp)
    a531:	0f b6 85 da f7 ff ff 	movzbl -0x826(%rbp),%eax
    a538:	83 e0 f1             	and    $0xfffffff1,%eax
    a53b:	83 c8 02             	or     $0x2,%eax
    a53e:	88 85 da f7 ff ff    	mov    %al,-0x826(%rbp)
    a544:	8b 85 dc f7 ff ff    	mov    -0x824(%rbp),%eax
    a54a:	25 00 00 e0 ff       	and    $0xffe00000,%eax
    a54f:	0d d9 02 00 00       	or     $0x2d9,%eax
    a554:	89 85 dc f7 ff ff    	mov    %eax,-0x824(%rbp)
    a55a:	48 c7 85 20 f5 ff ff 	movq   $0x8,-0xae0(%rbp)
    a561:	08 00 00 00 
    a565:	48 c7 85 28 f5 ff ff 	movq   $0x8,-0xad8(%rbp)
    a56c:	08 00 00 00 
    a570:	48 c7 85 30 f5 ff ff 	movq   $0x8,-0xad0(%rbp)
    a577:	08 00 00 00 
    a57b:	48 c7 85 38 f5 ff ff 	movq   $0x8,-0xac8(%rbp)
    a582:	08 00 00 00 
    a586:	48 c7 85 40 f5 ff ff 	movq   $0x8,-0xac0(%rbp)
    a58d:	08 00 00 00 
    a591:	c7 85 a4 f3 ff ff 53 	movl   $0x6fd0053,-0xc5c(%rbp)
    a598:	00 fd 06 
    a59b:	c7 85 a8 f3 ff ff 37 	movl   $0x66f08437,-0xc58(%rbp)
    a5a2:	84 f0 66 
    a5a5:	48 c7 85 48 f4 ff ff 	movq   $0xfffffffffffffff7,-0xbb8(%rbp)
    a5ac:	f7 ff ff ff 
    a5b0:	48 8d 05 89 54 01 00 	lea    0x15489(%rip),%rax        # 1fa40 <g_786>
    a5b7:	48 89 85 f0 f3 ff ff 	mov    %rax,-0xc10(%rbp)
    a5be:	48 8d 85 f0 f3 ff ff 	lea    -0xc10(%rbp),%rax
    a5c5:	48 89 85 50 f4 ff ff 	mov    %rax,-0xbb0(%rbp)
    a5cc:	c7 85 5c f3 ff ff 00 	movl   $0x0,-0xca4(%rbp)
    a5d3:	00 00 00 
    a5d6:	e9 22 07 00 00       	jmpq   acfd <func_17+0xf31>
    a5db:	c7 85 b0 f3 ff ff 06 	movl   $0x6,-0xc50(%rbp)
    a5e2:	00 00 00 
    a5e5:	c7 85 b4 f3 ff ff fc 	movl   $0xfffffffc,-0xc4c(%rbp)
    a5ec:	ff ff ff 
    a5ef:	48 b8 c2 e2 9d 9a fb 	movabs $0xe29d9afb9a9de2c2,%rax
    a5f6:	9a 9d e2 
    a5f9:	48 89 85 50 f5 ff ff 	mov    %rax,-0xab0(%rbp)
    a600:	66 c7 85 58 f5 ff ff 	movw   $0xffc2,-0xaa8(%rbp)
    a607:	c2 ff 
    a609:	48 b8 c2 84 33 e3 9a 	movabs $0x9affff9ae33384c2,%rax
    a610:	ff ff 9a 
    a613:	48 89 85 5a f5 ff ff 	mov    %rax,-0xaa6(%rbp)
    a61a:	66 c7 85 62 f5 ff ff 	movw   $0x33e3,-0xa9e(%rbp)
    a621:	e3 33 
    a623:	48 b8 ff ff 9a e3 33 	movabs $0xf6c28433e39affff,%rax
    a62a:	84 c2 f6 
    a62d:	48 89 85 64 f5 ff ff 	mov    %rax,-0xa9c(%rbp)
    a634:	66 c7 85 6c f5 ff ff 	movw   $0x84c2,-0xa94(%rbp)
    a63b:	c2 84 
    a63d:	48 b8 9d 9a fb 9a 9d 	movabs $0x9ae3339d9afb9a9d,%rax
    a644:	33 e3 9a 
    a647:	48 89 85 6e f5 ff ff 	mov    %rax,-0xa92(%rbp)
    a64e:	66 c7 85 76 f5 ff ff 	movw   $0xffff,-0xa8a(%rbp)
    a655:	ff ff 
    a657:	48 b8 6a 64 8e 66 bf 	movabs $0x152e87bf668e646a,%rax
    a65e:	87 2e 15 
    a661:	48 89 85 80 f4 ff ff 	mov    %rax,-0xb80(%rbp)
    a668:	48 8d 85 20 f9 ff ff 	lea    -0x6e0(%rbp),%rax
    a66f:	48 8d 15 0a 38 01 00 	lea    0x1380a(%rip),%rdx        # 1de80 <g_2093+0x40>
    a676:	b9 d8 00 00 00       	mov    $0xd8,%ecx
    a67b:	48 89 c7             	mov    %rax,%rdi
    a67e:	48 89 d6             	mov    %rdx,%rsi
    a681:	f3 48 a5             	rep movsq %ds:(%rsi),%es:(%rdi)
    a684:	c7 85 b8 f3 ff ff ff 	movl   $0xffffffff,-0xc48(%rbp)
    a68b:	ff ff ff 
    a68e:	48 c7 85 88 f4 ff ff 	movq   $0x3,-0xb78(%rbp)
    a695:	03 00 00 00 
    a699:	48 8d 05 d8 54 01 00 	lea    0x154d8(%rip),%rax        # 1fb78 <g_879>
    a6a0:	48 89 85 90 f4 ff ff 	mov    %rax,-0xb70(%rbp)
    a6a7:	0f b7 85 80 f5 ff ff 	movzwl -0xa80(%rbp),%eax
    a6ae:	66 25 00 f8          	and    $0xf800,%ax
    a6b2:	66 0d ea 07          	or     $0x7ea,%ax
    a6b6:	66 89 85 80 f5 ff ff 	mov    %ax,-0xa80(%rbp)
    a6bd:	8b 85 80 f5 ff ff    	mov    -0xa80(%rbp),%eax
    a6c3:	25 ff 07 fe ff       	and    $0xfffe07ff,%eax
    a6c8:	80 cc 28             	or     $0x28,%ah
    a6cb:	89 85 80 f5 ff ff    	mov    %eax,-0xa80(%rbp)
    a6d1:	0f b7 85 84 f5 ff ff 	movzwl -0xa7c(%rbp),%eax
    a6d8:	66 25 00 f8          	and    $0xf800,%ax
    a6dc:	66 0d ef 07          	or     $0x7ef,%ax
    a6e0:	66 89 85 84 f5 ff ff 	mov    %ax,-0xa7c(%rbp)
    a6e7:	8b 85 84 f5 ff ff    	mov    -0xa7c(%rbp),%eax
    a6ed:	25 ff 07 fe ff       	and    $0xfffe07ff,%eax
    a6f2:	89 85 84 f5 ff ff    	mov    %eax,-0xa7c(%rbp)
    a6f8:	0f b7 85 88 f5 ff ff 	movzwl -0xa78(%rbp),%eax
    a6ff:	66 25 00 f8          	and    $0xf800,%ax
    a703:	66 0d ea 07          	or     $0x7ea,%ax
    a707:	66 89 85 88 f5 ff ff 	mov    %ax,-0xa78(%rbp)
    a70e:	8b 85 88 f5 ff ff    	mov    -0xa78(%rbp),%eax
    a714:	25 ff 07 fe ff       	and    $0xfffe07ff,%eax
    a719:	80 cc 28             	or     $0x28,%ah
    a71c:	89 85 88 f5 ff ff    	mov    %eax,-0xa78(%rbp)
    a722:	0f b7 85 8c f5 ff ff 	movzwl -0xa74(%rbp),%eax
    a729:	66 25 00 f8          	and    $0xf800,%ax
    a72d:	66 0d ef 07          	or     $0x7ef,%ax
    a731:	66 89 85 8c f5 ff ff 	mov    %ax,-0xa74(%rbp)
    a738:	8b 85 8c f5 ff ff    	mov    -0xa74(%rbp),%eax
    a73e:	25 ff 07 fe ff       	and    $0xfffe07ff,%eax
    a743:	89 85 8c f5 ff ff    	mov    %eax,-0xa74(%rbp)
    a749:	0f b7 85 90 f5 ff ff 	movzwl -0xa70(%rbp),%eax
    a750:	66 25 00 f8          	and    $0xf800,%ax
    a754:	66 0d ea 07          	or     $0x7ea,%ax
    a758:	66 89 85 90 f5 ff ff 	mov    %ax,-0xa70(%rbp)
    a75f:	8b 85 90 f5 ff ff    	mov    -0xa70(%rbp),%eax
    a765:	25 ff 07 fe ff       	and    $0xfffe07ff,%eax
    a76a:	80 cc 28             	or     $0x28,%ah
    a76d:	89 85 90 f5 ff ff    	mov    %eax,-0xa70(%rbp)
    a773:	0f b7 85 94 f5 ff ff 	movzwl -0xa6c(%rbp),%eax
    a77a:	66 25 00 f8          	and    $0xf800,%ax
    a77e:	66 0d ef 07          	or     $0x7ef,%ax
    a782:	66 89 85 94 f5 ff ff 	mov    %ax,-0xa6c(%rbp)
    a789:	8b 85 94 f5 ff ff    	mov    -0xa6c(%rbp),%eax
    a78f:	25 ff 07 fe ff       	and    $0xfffe07ff,%eax
    a794:	89 85 94 f5 ff ff    	mov    %eax,-0xa6c(%rbp)
    a79a:	0f b7 85 98 f5 ff ff 	movzwl -0xa68(%rbp),%eax
    a7a1:	66 25 00 f8          	and    $0xf800,%ax
    a7a5:	66 0d ea 07          	or     $0x7ea,%ax
    a7a9:	66 89 85 98 f5 ff ff 	mov    %ax,-0xa68(%rbp)
    a7b0:	8b 85 98 f5 ff ff    	mov    -0xa68(%rbp),%eax
    a7b6:	25 ff 07 fe ff       	and    $0xfffe07ff,%eax
    a7bb:	80 cc 28             	or     $0x28,%ah
    a7be:	89 85 98 f5 ff ff    	mov    %eax,-0xa68(%rbp)
    a7c4:	0f b7 85 9c f5 ff ff 	movzwl -0xa64(%rbp),%eax
    a7cb:	66 25 00 f8          	and    $0xf800,%ax
    a7cf:	66 0d ef 07          	or     $0x7ef,%ax
    a7d3:	66 89 85 9c f5 ff ff 	mov    %ax,-0xa64(%rbp)
    a7da:	8b 85 9c f5 ff ff    	mov    -0xa64(%rbp),%eax
    a7e0:	25 ff 07 fe ff       	and    $0xfffe07ff,%eax
    a7e5:	89 85 9c f5 ff ff    	mov    %eax,-0xa64(%rbp)
    a7eb:	0f b7 85 a0 f5 ff ff 	movzwl -0xa60(%rbp),%eax
    a7f2:	66 25 00 f8          	and    $0xf800,%ax
    a7f6:	66 0d ea 07          	or     $0x7ea,%ax
    a7fa:	66 89 85 a0 f5 ff ff 	mov    %ax,-0xa60(%rbp)
    a801:	8b 85 a0 f5 ff ff    	mov    -0xa60(%rbp),%eax
    a807:	25 ff 07 fe ff       	and    $0xfffe07ff,%eax
    a80c:	80 cc 28             	or     $0x28,%ah
    a80f:	89 85 a0 f5 ff ff    	mov    %eax,-0xa60(%rbp)
    a815:	0f b7 85 a4 f5 ff ff 	movzwl -0xa5c(%rbp),%eax
    a81c:	66 25 00 f8          	and    $0xf800,%ax
    a820:	66 0d ef 07          	or     $0x7ef,%ax
    a824:	66 89 85 a4 f5 ff ff 	mov    %ax,-0xa5c(%rbp)
    a82b:	8b 85 a4 f5 ff ff    	mov    -0xa5c(%rbp),%eax
    a831:	25 ff 07 fe ff       	and    $0xfffe07ff,%eax
    a836:	89 85 a4 f5 ff ff    	mov    %eax,-0xa5c(%rbp)
    a83c:	c7 85 bc f3 ff ff 01 	movl   $0x1,-0xc44(%rbp)
    a843:	00 00 00 
    a846:	48 8d 05 73 4f 01 00 	lea    0x14f73(%rip),%rax        # 1f7c0 <g_48>
    a84d:	48 89 85 f8 f3 ff ff 	mov    %rax,-0xc08(%rbp)
    a854:	48 8d 05 0d 51 01 00 	lea    0x1510d(%rip),%rax        # 1f968 <g_631>
    a85b:	48 89 85 98 f4 ff ff 	mov    %rax,-0xb68(%rbp)
    a862:	66 c7 85 6c f3 ff ff 	movw   $0x89dc,-0xc94(%rbp)
    a869:	dc 89 
    a86b:	48 8d 85 f8 f3 ff ff 	lea    -0xc08(%rbp),%rax
    a872:	48 89 85 b0 f5 ff ff 	mov    %rax,-0xa50(%rbp)
    a879:	48 8d 85 f8 f3 ff ff 	lea    -0xc08(%rbp),%rax
    a880:	48 89 85 b8 f5 ff ff 	mov    %rax,-0xa48(%rbp)
    a887:	48 8d 85 f8 f3 ff ff 	lea    -0xc08(%rbp),%rax
    a88e:	48 89 85 c0 f5 ff ff 	mov    %rax,-0xa40(%rbp)
    a895:	48 8d 85 f8 f3 ff ff 	lea    -0xc08(%rbp),%rax
    a89c:	48 89 85 c8 f5 ff ff 	mov    %rax,-0xa38(%rbp)
    a8a3:	48 8d 85 f8 f3 ff ff 	lea    -0xc08(%rbp),%rax
    a8aa:	48 89 85 d0 f5 ff ff 	mov    %rax,-0xa30(%rbp)
    a8b1:	48 8d 85 f8 f3 ff ff 	lea    -0xc08(%rbp),%rax
    a8b8:	48 89 85 d8 f5 ff ff 	mov    %rax,-0xa28(%rbp)
    a8bf:	48 8d 85 f8 f3 ff ff 	lea    -0xc08(%rbp),%rax
    a8c6:	48 89 85 e0 f5 ff ff 	mov    %rax,-0xa20(%rbp)
    a8cd:	48 8d 85 b0 f5 ff ff 	lea    -0xa50(%rbp),%rax
    a8d4:	48 89 85 a0 f4 ff ff 	mov    %rax,-0xb60(%rbp)
    a8db:	c7 85 c0 f3 ff ff 33 	movl   $0x1d3ec233,-0xc40(%rbp)
    a8e2:	c2 3e 1d 
    a8e5:	c7 85 c4 f3 ff ff 97 	movl   $0x39689c97,-0xc3c(%rbp)
    a8ec:	9c 68 39 
    a8ef:	c7 85 c8 f3 ff ff ff 	movl   $0xffffffff,-0xc38(%rbp)
    a8f6:	ff ff ff 
    a8f9:	c7 85 cc f3 ff ff ff 	movl   $0xffffffff,-0xc34(%rbp)
    a900:	ff ff ff 
    a903:	c7 85 d0 f3 ff ff 00 	movl   $0x0,-0xc30(%rbp)
    a90a:	00 00 00 
    a90d:	c7 85 d4 f3 ff ff 07 	movl   $0x1f5dc07,-0xc2c(%rbp)
    a914:	dc f5 01 
    a917:	48 8d 85 e0 f7 ff ff 	lea    -0x820(%rbp),%rax
    a91e:	48 8d 15 1b 3c 01 00 	lea    0x13c1b(%rip),%rdx        # 1e540 <g_2093+0x700>
    a925:	b9 28 00 00 00       	mov    $0x28,%ecx
    a92a:	48 89 c7             	mov    %rax,%rdi
    a92d:	48 89 d6             	mov    %rdx,%rsi
    a930:	f3 48 a5             	rep movsq %ds:(%rsi),%es:(%rdi)
    a933:	48 8d 05 06 d8 00 00 	lea    0xd806(%rip),%rax        # 18140 <g_184>
    a93a:	48 89 85 a8 f4 ff ff 	mov    %rax,-0xb58(%rbp)
    a941:	48 c7 85 b0 f4 ff ff 	movq   $0x1,-0xb50(%rbp)
    a948:	01 00 00 00 
    a94c:	48 8d 05 9d 5a 01 00 	lea    0x15a9d(%rip),%rax        # 203f0 <g_984>
    a953:	48 89 85 f0 f5 ff ff 	mov    %rax,-0xa10(%rbp)
    a95a:	48 8d 05 8f 5a 01 00 	lea    0x15a8f(%rip),%rax        # 203f0 <g_984>
    a961:	48 89 85 f8 f5 ff ff 	mov    %rax,-0xa08(%rbp)
    a968:	48 8d 05 81 5a 01 00 	lea    0x15a81(%rip),%rax        # 203f0 <g_984>
    a96f:	48 89 85 00 f6 ff ff 	mov    %rax,-0xa00(%rbp)
    a976:	48 8d 05 73 5a 01 00 	lea    0x15a73(%rip),%rax        # 203f0 <g_984>
    a97d:	48 89 85 08 f6 ff ff 	mov    %rax,-0x9f8(%rbp)
    a984:	48 8d 05 65 5a 01 00 	lea    0x15a65(%rip),%rax        # 203f0 <g_984>
    a98b:	48 89 85 10 f6 ff ff 	mov    %rax,-0x9f0(%rbp)
    a992:	48 8d 05 57 5a 01 00 	lea    0x15a57(%rip),%rax        # 203f0 <g_984>
    a999:	48 89 85 18 f6 ff ff 	mov    %rax,-0x9e8(%rbp)
    a9a0:	48 8d 05 49 5a 01 00 	lea    0x15a49(%rip),%rax        # 203f0 <g_984>
    a9a7:	48 89 85 20 f6 ff ff 	mov    %rax,-0x9e0(%rbp)
    a9ae:	48 8d 05 3b 5a 01 00 	lea    0x15a3b(%rip),%rax        # 203f0 <g_984>
    a9b5:	48 89 85 28 f6 ff ff 	mov    %rax,-0x9d8(%rbp)
    a9bc:	48 8d 05 2d 5a 01 00 	lea    0x15a2d(%rip),%rax        # 203f0 <g_984>
    a9c3:	48 89 85 30 f6 ff ff 	mov    %rax,-0x9d0(%rbp)
    a9ca:	48 8d 05 1f 5a 01 00 	lea    0x15a1f(%rip),%rax        # 203f0 <g_984>
    a9d1:	48 89 85 38 f6 ff ff 	mov    %rax,-0x9c8(%rbp)
    a9d8:	66 c7 85 a0 f6 ff ff 	movw   $0xcb4e,-0x960(%rbp)
    a9df:	4e cb 
    a9e1:	66 c7 85 a2 f6 ff ff 	movw   $0x7002,-0x95e(%rbp)
    a9e8:	02 70 
    a9ea:	66 c7 85 a4 f6 ff ff 	movw   $0xadb,-0x95c(%rbp)
    a9f1:	db 0a 
    a9f3:	66 c7 85 a6 f6 ff ff 	movw   $0x8873,-0x95a(%rbp)
    a9fa:	73 88 
    a9fc:	66 c7 85 a8 f6 ff ff 	movw   $0xdcc2,-0x958(%rbp)
    aa03:	c2 dc 
    aa05:	66 c7 85 aa f6 ff ff 	movw   $0xad27,-0x956(%rbp)
    aa0c:	27 ad 
    aa0e:	66 c7 85 ac f6 ff ff 	movw   $0x6,-0x954(%rbp)
    aa15:	06 00 
    aa17:	66 c7 85 ae f6 ff ff 	movw   $0xb07f,-0x952(%rbp)
    aa1e:	7f b0 
    aa20:	66 c7 85 b0 f6 ff ff 	movw   $0xa839,-0x950(%rbp)
    aa27:	39 a8 
    aa29:	66 c7 85 b2 f6 ff ff 	movw   $0xed61,-0x94e(%rbp)
    aa30:	61 ed 
    aa32:	66 c7 85 b4 f6 ff ff 	movw   $0xcb4e,-0x94c(%rbp)
    aa39:	4e cb 
    aa3b:	66 c7 85 b6 f6 ff ff 	movw   $0x7a9a,-0x94a(%rbp)
    aa42:	9a 7a 
    aa44:	66 c7 85 b8 f6 ff ff 	movw   $0xbb0d,-0x948(%rbp)
    aa4b:	0d bb 
    aa4d:	66 c7 85 ba f6 ff ff 	movw   $0xcb4e,-0x946(%rbp)
    aa54:	4e cb 
    aa56:	66 c7 85 bc f6 ff ff 	movw   $0xfffa,-0x944(%rbp)
    aa5d:	fa ff 
    aa5f:	66 c7 85 be f6 ff ff 	movw   $0x8873,-0x942(%rbp)
    aa66:	73 88 
    aa68:	66 c7 85 c0 f6 ff ff 	movw   $0xffff,-0x940(%rbp)
    aa6f:	ff ff 
    aa71:	66 c7 85 c2 f6 ff ff 	movw   $0xadb,-0x93e(%rbp)
    aa78:	db 0a 
    aa7a:	66 c7 85 c4 f6 ff ff 	movw   $0x6,-0x93c(%rbp)
    aa81:	06 00 
    aa83:	66 c7 85 c6 f6 ff ff 	movw   $0x6,-0x93a(%rbp)
    aa8a:	06 00 
    aa8c:	66 c7 85 c8 f6 ff ff 	movw   $0xffff,-0x938(%rbp)
    aa93:	ff ff 
    aa95:	66 c7 85 ca f6 ff ff 	movw   $0xffff,-0x936(%rbp)
    aa9c:	ff ff 
    aa9e:	66 c7 85 cc f6 ff ff 	movw   $0xffff,-0x934(%rbp)
    aaa5:	ff ff 
    aaa7:	66 c7 85 ce f6 ff ff 	movw   $0xfffa,-0x932(%rbp)
    aaae:	fa ff 
    aab0:	66 c7 85 d0 f6 ff ff 	movw   $0xcb4e,-0x930(%rbp)
    aab7:	4e cb 
    aab9:	66 c7 85 d2 f6 ff ff 	movw   $0x6,-0x92e(%rbp)
    aac0:	06 00 
    aac2:	66 c7 85 d4 f6 ff ff 	movw   $0x7a9a,-0x92c(%rbp)
    aac9:	9a 7a 
    aacb:	66 c7 85 d6 f6 ff ff 	movw   $0xfffa,-0x92a(%rbp)
    aad2:	fa ff 
    aad4:	66 c7 85 d8 f6 ff ff 	movw   $0xed61,-0x928(%rbp)
    aadb:	61 ed 
    aadd:	66 c7 85 da f6 ff ff 	movw   $0xa839,-0x926(%rbp)
    aae4:	39 a8 
    aae6:	66 c7 85 dc f6 ff ff 	movw   $0xed61,-0x924(%rbp)
    aaed:	61 ed 
    aaef:	66 c7 85 de f6 ff ff 	movw   $0x6,-0x922(%rbp)
    aaf6:	06 00 
    aaf8:	66 c7 85 e0 f6 ff ff 	movw   $0xf5c2,-0x920(%rbp)
    aaff:	c2 f5 
    ab01:	66 c7 85 e2 f6 ff ff 	movw   $0xdcc2,-0x91e(%rbp)
    ab08:	c2 dc 
    ab0a:	66 c7 85 e4 f6 ff ff 	movw   $0x8873,-0x91c(%rbp)
    ab11:	73 88 
    ab13:	66 c7 85 e6 f6 ff ff 	movw   $0xffff,-0x91a(%rbp)
    ab1a:	ff ff 
    ab1c:	66 c7 85 e8 f6 ff ff 	movw   $0x7002,-0x918(%rbp)
    ab23:	02 70 
    ab25:	66 c7 85 ea f6 ff ff 	movw   $0xfffa,-0x916(%rbp)
    ab2c:	fa ff 
    ab2e:	66 c7 85 ec f6 ff ff 	movw   $0xa839,-0x914(%rbp)
    ab35:	39 a8 
    ab37:	66 c7 85 ee f6 ff ff 	movw   $0x7002,-0x912(%rbp)
    ab3e:	02 70 
    ab40:	66 c7 85 f0 f6 ff ff 	movw   $0x7002,-0x910(%rbp)
    ab47:	02 70 
    ab49:	66 c7 85 f2 f6 ff ff 	movw   $0xb07f,-0x90e(%rbp)
    ab50:	7f b0 
    ab52:	66 c7 85 f4 f6 ff ff 	movw   $0xffff,-0x90c(%rbp)
    ab59:	ff ff 
    ab5b:	66 c7 85 f6 f6 ff ff 	movw   $0x1d80,-0x90a(%rbp)
    ab62:	80 1d 
    ab64:	66 c7 85 f8 f6 ff ff 	movw   $0xa839,-0x908(%rbp)
    ab6b:	39 a8 
    ab6d:	66 c7 85 fa f6 ff ff 	movw   $0xffff,-0x906(%rbp)
    ab74:	ff ff 
    ab76:	66 c7 85 fc f6 ff ff 	movw   $0x1d80,-0x904(%rbp)
    ab7d:	80 1d 
    ab7f:	66 c7 85 fe f6 ff ff 	movw   $0xadb,-0x902(%rbp)
    ab86:	db 0a 
    ab88:	66 c7 85 00 f7 ff ff 	movw   $0x1d80,-0x900(%rbp)
    ab8f:	80 1d 
    ab91:	66 c7 85 02 f7 ff ff 	movw   $0xffff,-0x8fe(%rbp)
    ab98:	ff ff 
    ab9a:	66 c7 85 04 f7 ff ff 	movw   $0xad27,-0x8fc(%rbp)
    aba1:	27 ad 
    aba3:	66 c7 85 06 f7 ff ff 	movw   $0xed61,-0x8fa(%rbp)
    abaa:	61 ed 
    abac:	66 c7 85 08 f7 ff ff 	movw   $0xbb0d,-0x8f8(%rbp)
    abb3:	0d bb 
    abb5:	66 c7 85 0a f7 ff ff 	movw   $0xa839,-0x8f6(%rbp)
    abbc:	39 a8 
    abbe:	66 c7 85 0c f7 ff ff 	movw   $0xffff,-0x8f4(%rbp)
    abc5:	ff ff 
    abc7:	66 c7 85 0e f7 ff ff 	movw   $0xdcc2,-0x8f2(%rbp)
    abce:	c2 dc 
    abd0:	66 c7 85 10 f7 ff ff 	movw   $0x7a9a,-0x8f0(%rbp)
    abd7:	9a 7a 
    abd9:	66 c7 85 12 f7 ff ff 	movw   $0xb07f,-0x8ee(%rbp)
    abe0:	7f b0 
    abe2:	66 c7 85 14 f7 ff ff 	movw   $0xdcc2,-0x8ec(%rbp)
    abe9:	c2 dc 
    abeb:	66 c7 85 16 f7 ff ff 	movw   $0xfffa,-0x8ea(%rbp)
    abf2:	fa ff 
    abf4:	48 8d 05 5d 64 01 00 	lea    0x1645d(%rip),%rax        # 21058 <g_1041>
    abfb:	48 89 85 00 f4 ff ff 	mov    %rax,-0xc00(%rbp)
    ac02:	48 8d 85 00 f4 ff ff 	lea    -0xc00(%rbp),%rax
    ac09:	48 89 85 b8 f4 ff ff 	mov    %rax,-0xb48(%rbp)
    ac10:	48 8d 05 21 4d 01 00 	lea    0x14d21(%rip),%rax        # 1f938 <g_320>
    ac17:	48 89 85 c0 f4 ff ff 	mov    %rax,-0xb40(%rbp)
    ac1e:	66 c7 85 6e f3 ff ff 	movw   $0xfade,-0xc92(%rbp)
    ac25:	de fa 
    ac27:	48 8d 05 e2 4c 01 00 	lea    0x14ce2(%rip),%rax        # 1f910 <g_318+0x10>
    ac2e:	48 89 85 c8 f4 ff ff 	mov    %rax,-0xb38(%rbp)
    ac35:	c7 85 74 f3 ff ff 00 	movl   $0x0,-0xc8c(%rbp)
    ac3c:	00 00 00 
    ac3f:	eb 4d                	jmp    ac8e <func_17+0xec2>
    ac41:	c7 85 78 f3 ff ff 00 	movl   $0x0,-0xc88(%rbp)
    ac48:	00 00 00 
    ac4b:	eb 31                	jmp    ac7e <func_17+0xeb2>
    ac4d:	8b 85 78 f3 ff ff    	mov    -0xc88(%rbp),%eax
    ac53:	48 63 c8             	movslq %eax,%rcx
    ac56:	8b 85 74 f3 ff ff    	mov    -0xc8c(%rbp),%eax
    ac5c:	48 63 d0             	movslq %eax,%rdx
    ac5f:	48 89 d0             	mov    %rdx,%rax
    ac62:	48 01 c0             	add    %rax,%rax
    ac65:	48 01 d0             	add    %rdx,%rax
    ac68:	48 01 c8             	add    %rcx,%rax
    ac6b:	48 c7 84 c5 e0 f4 ff 	movq   $0x0,-0xb20(%rbp,%rax,8)
    ac72:	ff 00 00 00 00 
    ac77:	83 85 78 f3 ff ff 01 	addl   $0x1,-0xc88(%rbp)
    ac7e:	83 bd 78 f3 ff ff 02 	cmpl   $0x2,-0xc88(%rbp)
    ac85:	7e c6                	jle    ac4d <func_17+0xe81>
    ac87:	83 85 74 f3 ff ff 01 	addl   $0x1,-0xc8c(%rbp)
    ac8e:	83 bd 74 f3 ff ff 00 	cmpl   $0x0,-0xc8c(%rbp)
    ac95:	7e aa                	jle    ac41 <func_17+0xe75>
    ac97:	c7 85 74 f3 ff ff 00 	movl   $0x0,-0xc8c(%rbp)
    ac9e:	00 00 00 
    aca1:	eb 1b                	jmp    acbe <func_17+0xef2>
    aca3:	8b 85 74 f3 ff ff    	mov    -0xc8c(%rbp),%eax
    aca9:	48 98                	cltq   
    acab:	48 c7 84 c5 d0 f4 ff 	movq   $0x1,-0xb30(%rbp,%rax,8)
    acb2:	ff 01 00 00 00 
    acb7:	83 85 74 f3 ff ff 01 	addl   $0x1,-0xc8c(%rbp)
    acbe:	83 bd 74 f3 ff ff 01 	cmpl   $0x1,-0xc8c(%rbp)
    acc5:	7e dc                	jle    aca3 <func_17+0xed7>
    acc7:	c7 85 74 f3 ff ff 00 	movl   $0x0,-0xc8c(%rbp)
    acce:	00 00 00 
    acd1:	eb 1a                	jmp    aced <func_17+0xf21>
    acd3:	8b 85 74 f3 ff ff    	mov    -0xc8c(%rbp),%eax
    acd9:	48 98                	cltq   
    acdb:	c7 84 85 00 f5 ff ff 	movl   $0x9,-0xb00(%rbp,%rax,4)
    ace2:	09 00 00 00 
    ace6:	83 85 74 f3 ff ff 01 	addl   $0x1,-0xc8c(%rbp)
    aced:	83 bd 74 f3 ff ff 06 	cmpl   $0x6,-0xc8c(%rbp)
    acf4:	7e dd                	jle    acd3 <func_17+0xf07>
    acf6:	83 85 5c f3 ff ff 01 	addl   $0x1,-0xca4(%rbp)
    acfd:	83 bd 5c f3 ff ff 20 	cmpl   $0x20,-0xca4(%rbp)
    ad04:	0f 85 d1 f8 ff ff    	jne    a5db <func_17+0x80f>
    ad0a:	c7 05 4c 63 01 00 e9 	movl   $0xffffffe9,0x1634c(%rip)        # 21060 <g_1288>
    ad11:	ff ff ff 
    ad14:	90                   	nop
    ad15:	8b 05 45 63 01 00    	mov    0x16345(%rip),%eax        # 21060 <g_1288>
    ad1b:	83 f8 12             	cmp    $0x12,%eax
    ad1e:	0f 86 58 02 00 00    	jbe    af7c <func_17+0x11b0>
    ad24:	c6 85 65 f3 ff ff ff 	movb   $0xff,-0xc9b(%rbp)
    ad2b:	48 8d 05 ae 56 01 00 	lea    0x156ae(%rip),%rax        # 203e0 <g_916>
    ad32:	48 89 85 58 f4 ff ff 	mov    %rax,-0xba8(%rbp)
    ad39:	c7 85 ac f3 ff ff 0a 	movl   $0x4088c00a,-0xc54(%rbp)
    ad40:	c0 88 40 
    ad43:	48 c7 85 60 f4 ff ff 	movq   $0x0,-0xba0(%rbp)
    ad4a:	00 00 00 00 
    ad4e:	48 8d 05 ab 29 01 00 	lea    0x129ab(%rip),%rax        # 1d700 <g_1836+0x40>
    ad55:	48 89 85 68 f4 ff ff 	mov    %rax,-0xb98(%rbp)
    ad5c:	48 c7 85 70 f4 ff ff 	movq   $0x0,-0xb90(%rbp)
    ad63:	00 00 00 00 
    ad67:	48 8d 05 74 28 01 00 	lea    0x12874(%rip),%rax        # 1d5e2 <g_1699+0x42>
    ad6e:	48 89 85 78 f4 ff ff 	mov    %rax,-0xb88(%rbp)
    ad75:	c7 85 7c f3 ff ff 00 	movl   $0x0,-0xc84(%rbp)
    ad7c:	00 00 00 
    ad7f:	eb 1a                	jmp    ad9b <func_17+0xfcf>
    ad81:	8b 85 7c f3 ff ff    	mov    -0xc84(%rbp),%eax
    ad87:	48 98                	cltq   
    ad89:	c7 84 85 20 f9 ff ff 	movl   $0x0,-0x6e0(%rbp,%rax,4)
    ad90:	00 00 00 00 
    ad94:	83 85 7c f3 ff ff 01 	addl   $0x1,-0xc84(%rbp)
    ad9b:	83 bd 7c f3 ff ff 08 	cmpl   $0x8,-0xc84(%rbp)
    ada2:	7e dd                	jle    ad81 <func_17+0xfb5>
    ada4:	0f b6 85 65 f3 ff ff 	movzbl -0xc9b(%rbp),%eax
    adab:	8d 50 01             	lea    0x1(%rax),%edx
    adae:	88 95 65 f3 ff ff    	mov    %dl,-0xc9b(%rbp)
    adb4:	44 0f b6 e0          	movzbl %al,%r12d
    adb8:	8b 9d ac f3 ff ff    	mov    -0xc54(%rbp),%ebx
    adbe:	0f b7 85 58 f3 ff ff 	movzwl -0xca8(%rbp),%eax
    adc5:	c1 e0 05             	shl    $0x5,%eax
    adc8:	66 c1 f8 05          	sar    $0x5,%ax
    adcc:	98                   	cwtl   
    adcd:	be ac 86 c7 e5       	mov    $0xe5c786ac,%esi
    add2:	89 c7                	mov    %eax,%edi
    add4:	e8 f7 e0 ff ff       	callq  8ed0 <safe_sub_func_uint32_t_u_u>
    add9:	0f b7 c0             	movzwl %ax,%eax
    addc:	be ca a2 00 00       	mov    $0xa2ca,%esi
    ade1:	89 c7                	mov    %eax,%edi
    ade3:	e8 55 df ff ff       	callq  8d3d <safe_mul_func_uint16_t_u_u>
    ade8:	48 8b 85 30 f4 ff ff 	mov    -0xbd0(%rbp),%rax
    adef:	48 8b 00             	mov    (%rax),%rax
    adf2:	48 39 85 58 f4 ff ff 	cmp    %rax,-0xba8(%rbp)
    adf9:	0f 95 c0             	setne  %al
    adfc:	0f b6 c0             	movzbl %al,%eax
    adff:	c1 e0 05             	shl    $0x5,%eax
    ae02:	66 c1 f8 05          	sar    $0x5,%ax
    ae06:	66 25 ff 07          	and    $0x7ff,%ax
    ae0a:	89 c2                	mov    %eax,%edx
    ae0c:	0f b7 85 70 f3 ff ff 	movzwl -0xc90(%rbp),%eax
    ae13:	66 25 00 f8          	and    $0xf800,%ax
    ae17:	09 d0                	or     %edx,%eax
    ae19:	66 89 85 70 f3 ff ff 	mov    %ax,-0xc90(%rbp)
    ae20:	48 8d 85 f0 f3 ff ff 	lea    -0xc10(%rbp),%rax
    ae27:	48 39 85 50 f4 ff ff 	cmp    %rax,-0xbb0(%rbp)
    ae2e:	0f 95 c0             	setne  %al
    ae31:	0f b6 c0             	movzbl %al,%eax
    ae34:	89 de                	mov    %ebx,%esi
    ae36:	89 c7                	mov    %eax,%edi
    ae38:	e8 7b e0 ff ff       	callq  8eb8 <safe_add_func_uint32_t_u_u>
    ae3d:	83 bd 5c f3 ff ff 00 	cmpl   $0x0,-0xca4(%rbp)
    ae44:	74 4a                	je     ae90 <func_17+0x10c4>
    ae46:	c7 85 20 f9 ff ff f8 	movl   $0xf8,-0x6e0(%rbp)
    ae4d:	00 00 00 
    ae50:	be f8 00 00 00       	mov    $0xf8,%esi
    ae55:	bf 00 00 00 00       	mov    $0x0,%edi
    ae5a:	e8 fb dc ff ff       	callq  8b5a <safe_add_func_uint8_t_u_u>
    ae5f:	0f b6 d0             	movzbl %al,%edx
    ae62:	8b 85 58 f3 ff ff    	mov    -0xca8(%rbp),%eax
    ae68:	c1 e8 0b             	shr    $0xb,%eax
    ae6b:	83 e0 3f             	and    $0x3f,%eax
    ae6e:	0f b6 c0             	movzbl %al,%eax
    ae71:	89 d6                	mov    %edx,%esi
    ae73:	89 c7                	mov    %eax,%edi
    ae75:	e8 39 d5 ff ff       	callq  83b3 <safe_add_func_int16_t_s_s>
    ae7a:	66 85 c0             	test   %ax,%ax
    ae7d:	75 0a                	jne    ae89 <func_17+0x10bd>
    ae7f:	8b 85 20 f9 ff ff    	mov    -0x6e0(%rbp),%eax
    ae85:	85 c0                	test   %eax,%eax
    ae87:	74 07                	je     ae90 <func_17+0x10c4>
    ae89:	b8 01 00 00 00       	mov    $0x1,%eax
    ae8e:	eb 05                	jmp    ae95 <func_17+0x10c9>
    ae90:	b8 00 00 00 00       	mov    $0x0,%eax
    ae95:	3d 1b c2 f7 1a       	cmp    $0x1af7c21b,%eax
    ae9a:	0f 9e c0             	setle  %al
    ae9d:	0f b6 c0             	movzbl %al,%eax
    aea0:	be 03 00 00 00       	mov    $0x3,%esi
    aea5:	89 c7                	mov    %eax,%edi
    aea7:	e8 42 d4 ff ff       	callq  82ee <safe_lshift_func_int8_t_s_u>
    aeac:	66 98                	cbtw   
    aeae:	44 21 e0             	and    %r12d,%eax
    aeb1:	0f b7 c0             	movzwl %ax,%eax
    aeb4:	8b 95 ac f3 ff ff    	mov    -0xc54(%rbp),%edx
    aeba:	89 d6                	mov    %edx,%esi
    aebc:	89 c7                	mov    %eax,%edi
    aebe:	e8 fb de ff ff       	callq  8dbe <safe_lshift_func_uint16_t_u_s>
    aec3:	48 8b 15 6e 4a 01 00 	mov    0x14a6e(%rip),%rdx        # 1f938 <g_320>
    aeca:	8b 0a                	mov    (%rdx),%ecx
    aecc:	0f b7 d0             	movzwl %ax,%edx
    aecf:	48 8b 05 62 4a 01 00 	mov    0x14a62(%rip),%rax        # 1f938 <g_320>
    aed6:	31 ca                	xor    %ecx,%edx
    aed8:	89 10                	mov    %edx,(%rax)
    aeda:	80 bd 65 f3 ff ff 00 	cmpb   $0x0,-0xc9b(%rbp)
    aee1:	0f 85 94 00 00 00    	jne    af7b <func_17+0x11af>
    aee7:	8b 85 58 f3 ff ff    	mov    -0xca8(%rbp),%eax
    aeed:	c1 e8 0b             	shr    $0xb,%eax
    aef0:	83 e0 3f             	and    $0x3f,%eax
    aef3:	0f b6 f0             	movzbl %al,%esi
    aef6:	48 8b 85 68 f4 ff ff 	mov    -0xb98(%rbp),%rax
    aefd:	0f b6 00             	movzbl (%rax),%eax
    af00:	8d 48 01             	lea    0x1(%rax),%ecx
    af03:	48 8b 95 68 f4 ff ff 	mov    -0xb98(%rbp),%rdx
    af0a:	88 0a                	mov    %cl,(%rdx)
    af0c:	84 c0                	test   %al,%al
    af0e:	75 09                	jne    af19 <func_17+0x114d>
    af10:	83 bd 5c f3 ff ff 00 	cmpl   $0x0,-0xca4(%rbp)
    af17:	74 07                	je     af20 <func_17+0x1154>
    af19:	b8 01 00 00 00       	mov    $0x1,%eax
    af1e:	eb 05                	jmp    af25 <func_17+0x1159>
    af20:	b8 00 00 00 00       	mov    $0x0,%eax
    af25:	39 f0                	cmp    %esi,%eax
    af27:	74 0a                	je     af33 <func_17+0x1167>
    af29:	0f b7 05 e2 27 01 00 	movzwl 0x127e2(%rip),%eax        # 1d712 <g_1836+0x52>
    af30:	66 85 c0             	test   %ax,%ax
    af33:	8b 95 5c f3 ff ff    	mov    -0xca4(%rbp),%edx
    af39:	8b 85 5c f3 ff ff    	mov    -0xca4(%rbp),%eax
    af3f:	48 89 d6             	mov    %rdx,%rsi
    af42:	48 89 c7             	mov    %rax,%rdi
    af45:	e8 36 e1 ff ff       	callq  9080 <safe_mod_func_uint64_t_u_u>
    af4a:	48 8b 85 78 f4 ff ff 	mov    -0xb88(%rbp),%rax
    af51:	0f b6 00             	movzbl (%rax),%eax
    af54:	8d 48 ff             	lea    -0x1(%rax),%ecx
    af57:	48 8b 95 78 f4 ff ff 	mov    -0xb88(%rbp),%rdx
    af5e:	88 0a                	mov    %cl,(%rdx)
    af60:	0f b6 c0             	movzbl %al,%eax
    af63:	83 f0 fe             	xor    $0xfffffffe,%eax
    af66:	89 85 98 f3 ff ff    	mov    %eax,-0xc68(%rbp)
    af6c:	48 8b 85 58 f4 ff ff 	mov    -0xba8(%rbp),%rax
    af73:	48 8b 00             	mov    (%rax),%rax
    af76:	48 8b 00             	mov    (%rax),%rax
    af79:	eb 08                	jmp    af83 <func_17+0x11b7>
    af7b:	90                   	nop
    af7c:	48 8b 85 28 f4 ff ff 	mov    -0xbd8(%rbp),%rax
    af83:	48 8b 5d e8          	mov    -0x18(%rbp),%rbx
    af87:	64 48 33 1c 25 28 00 	xor    %fs:0x28,%rbx
    af8e:	00 00 
    af90:	74 05                	je     af97 <func_17+0x11cb>
    af92:	e8 d9 d0 ff ff       	callq  8070 <__stack_chk_fail@plt>
    af97:	48 81 c4 a0 0c 00 00 	add    $0xca0,%rsp
    af9e:	5b                   	pop    %rbx
    af9f:	41 5c                	pop    %r12
    afa1:	5d                   	pop    %rbp
    afa2:	c3                   	retq   

000000000000afa3 <func_33>:
    afa3:	f3 0f 1e fa          	endbr64 
    afa7:	55                   	push   %rbp
    afa8:	48 89 e5             	mov    %rsp,%rbp
    afab:	41 57                	push   %r15
    afad:	41 56                	push   %r14
    afaf:	41 55                	push   %r13
    afb1:	41 54                	push   %r12
    afb3:	53                   	push   %rbx
    afb4:	48 81 ec e8 05 00 00 	sub    $0x5e8,%rsp
    afbb:	48 89 bd 08 fa ff ff 	mov    %rdi,-0x5f8(%rbp)
    afc2:	48 89 b5 00 fa ff ff 	mov    %rsi,-0x600(%rbp)
    afc9:	64 48 8b 04 25 28 00 	mov    %fs:0x28,%rax
    afd0:	00 00 
    afd2:	48 89 45 c8          	mov    %rax,-0x38(%rbp)
    afd6:	31 c0                	xor    %eax,%eax
    afd8:	48 8d 05 41 00 01 00 	lea    0x10041(%rip),%rax        # 1b020 <g_1102>
    afdf:	48 89 85 18 fa ff ff 	mov    %rax,-0x5e8(%rbp)
    afe6:	c7 85 60 fa ff ff fc 	movl   $0xfffffffc,-0x5a0(%rbp)
    afed:	ff ff ff 
    aff0:	c7 85 64 fa ff ff e0 	movl   $0x5d11b9e0,-0x59c(%rbp)
    aff7:	b9 11 5d 
    affa:	c7 85 68 fa ff ff 78 	movl   $0x811cd278,-0x598(%rbp)
    b001:	d2 1c 81 
    b004:	c7 85 6c fa ff ff f6 	movl   $0xfffffff6,-0x594(%rbp)
    b00b:	ff ff ff 
    b00e:	c7 85 70 fa ff ff f6 	movl   $0xfffffff6,-0x590(%rbp)
    b015:	ff ff ff 
    b018:	c7 85 74 fa ff ff 78 	movl   $0x811cd278,-0x58c(%rbp)
    b01f:	d2 1c 81 
    b022:	c7 85 78 fa ff ff fc 	movl   $0xfffffffc,-0x588(%rbp)
    b029:	ff ff ff 
    b02c:	c7 85 7c fa ff ff fc 	movl   $0xfffffffc,-0x584(%rbp)
    b033:	ff ff ff 
    b036:	c7 85 80 fa ff ff f6 	movl   $0xfffffff6,-0x580(%rbp)
    b03d:	ff ff ff 
    b040:	c7 85 84 fa ff ff 32 	movl   $0x2dd7b32,-0x57c(%rbp)
    b047:	7b dd 02 
    b04a:	c7 85 88 fa ff ff 4b 	movl   $0xc958574b,-0x578(%rbp)
    b051:	57 58 c9 
    b054:	c7 85 8c fa ff ff 32 	movl   $0x2dd7b32,-0x574(%rbp)
    b05b:	7b dd 02 
    b05e:	c7 85 90 fa ff ff e0 	movl   $0x5d11b9e0,-0x570(%rbp)
    b065:	b9 11 5d 
    b068:	c7 85 94 fa ff ff fc 	movl   $0xfffffffc,-0x56c(%rbp)
    b06f:	ff ff ff 
    b072:	c7 85 98 fa ff ff e0 	movl   $0x5d11b9e0,-0x568(%rbp)
    b079:	b9 11 5d 
    b07c:	c7 85 9c fa ff ff 78 	movl   $0x811cd278,-0x564(%rbp)
    b083:	d2 1c 81 
    b086:	c7 85 a0 fa ff ff f6 	movl   $0xfffffff6,-0x560(%rbp)
    b08d:	ff ff ff 
    b090:	c7 85 a4 fa ff ff f6 	movl   $0xfffffff6,-0x55c(%rbp)
    b097:	ff ff ff 
    b09a:	c7 85 a8 fa ff ff 1e 	movl   $0xd026271e,-0x558(%rbp)
    b0a1:	27 26 d0 
    b0a4:	c7 85 ac fa ff ff e0 	movl   $0x5d11b9e0,-0x554(%rbp)
    b0ab:	b9 11 5d 
    b0ae:	c7 85 b0 fa ff ff e0 	movl   $0x5d11b9e0,-0x550(%rbp)
    b0b5:	b9 11 5d 
    b0b8:	c7 85 b4 fa ff ff 1e 	movl   $0xd026271e,-0x54c(%rbp)
    b0bf:	27 26 d0 
    b0c2:	c7 85 b8 fa ff ff fc 	movl   $0xfffffffc,-0x548(%rbp)
    b0c9:	ff ff ff 
    b0cc:	c7 85 bc fa ff ff 32 	movl   $0x2dd7b32,-0x544(%rbp)
    b0d3:	7b dd 02 
    b0d6:	c7 85 c0 fa ff ff 32 	movl   $0x2dd7b32,-0x540(%rbp)
    b0dd:	7b dd 02 
    b0e0:	c7 85 c4 fa ff ff 1e 	movl   $0xd026271e,-0x53c(%rbp)
    b0e7:	27 26 d0 
    b0ea:	c7 85 c8 fa ff ff f6 	movl   $0xfffffff6,-0x538(%rbp)
    b0f1:	ff ff ff 
    b0f4:	c7 85 cc fa ff ff 1e 	movl   $0xd026271e,-0x534(%rbp)
    b0fb:	27 26 d0 
    b0fe:	c7 85 d0 fa ff ff 32 	movl   $0x2dd7b32,-0x530(%rbp)
    b105:	7b dd 02 
    b108:	c7 85 d4 fa ff ff 78 	movl   $0x811cd278,-0x52c(%rbp)
    b10f:	d2 1c 81 
    b112:	c7 85 d8 fa ff ff 1e 	movl   $0xd026271e,-0x528(%rbp)
    b119:	27 26 d0 
    b11c:	c7 85 dc fa ff ff 32 	movl   $0x2dd7b32,-0x524(%rbp)
    b123:	7b dd 02 
    b126:	c7 85 e0 fa ff ff 78 	movl   $0x811cd278,-0x520(%rbp)
    b12d:	d2 1c 81 
    b130:	c7 85 e4 fa ff ff 78 	movl   $0x811cd278,-0x51c(%rbp)
    b137:	d2 1c 81 
    b13a:	c7 85 e8 fa ff ff 78 	movl   $0x811cd278,-0x518(%rbp)
    b141:	d2 1c 81 
    b144:	c7 85 ec fa ff ff e0 	movl   $0x5d11b9e0,-0x514(%rbp)
    b14b:	b9 11 5d 
    b14e:	48 8d 05 7a fc 00 00 	lea    0xfc7a(%rip),%rax        # 1adcf <g_899+0x2f>
    b155:	48 89 85 20 fa ff ff 	mov    %rax,-0x5e0(%rbp)
    b15c:	48 8d 85 40 fd ff ff 	lea    -0x2c0(%rbp),%rax
    b163:	48 8d 15 16 35 01 00 	lea    0x13516(%rip),%rdx        # 1e680 <g_2093+0x840>
    b16a:	b9 50 00 00 00       	mov    $0x50,%ecx
    b16f:	48 89 c7             	mov    %rax,%rdi
    b172:	48 89 d6             	mov    %rdx,%rsi
    b175:	f3 48 a5             	rep movsq %ds:(%rsi),%es:(%rdi)
    b178:	48 8d 85 f0 fb ff ff 	lea    -0x410(%rbp),%rax
    b17f:	48 8d 15 ba 83 00 00 	lea    0x83ba(%rip),%rdx        # 13540 <g_1647+0x400>
    b186:	b9 28 00 00 00       	mov    $0x28,%ecx
    b18b:	48 89 c7             	mov    %rax,%rdi
    b18e:	48 89 d6             	mov    %rdx,%rsi
    b191:	f3 48 a5             	rep movsq %ds:(%rsi),%es:(%rdi)
    b194:	48 89 f2             	mov    %rsi,%rdx
    b197:	48 89 f8             	mov    %rdi,%rax
    b19a:	8b 0a                	mov    (%rdx),%ecx
    b19c:	89 08                	mov    %ecx,(%rax)
    b19e:	c7 85 10 fa ff ff fc 	movl   $0xfffffffc,-0x5f0(%rbp)
    b1a5:	ff ff ff 
    b1a8:	48 8d 05 5b f5 00 00 	lea    0xf55b(%rip),%rax        # 1a70a <g_887+0x8a>
    b1af:	48 89 85 f0 fa ff ff 	mov    %rax,-0x510(%rbp)
    b1b6:	48 c7 85 f8 fa ff ff 	movq   $0x0,-0x508(%rbp)
    b1bd:	00 00 00 00 
    b1c1:	48 8d 05 42 f5 00 00 	lea    0xf542(%rip),%rax        # 1a70a <g_887+0x8a>
    b1c8:	48 89 85 00 fb ff ff 	mov    %rax,-0x500(%rbp)
    b1cf:	48 8d 05 34 f5 00 00 	lea    0xf534(%rip),%rax        # 1a70a <g_887+0x8a>
    b1d6:	48 89 85 08 fb ff ff 	mov    %rax,-0x4f8(%rbp)
    b1dd:	48 c7 85 10 fb ff ff 	movq   $0x0,-0x4f0(%rbp)
    b1e4:	00 00 00 00 
    b1e8:	48 8d 05 1b f5 00 00 	lea    0xf51b(%rip),%rax        # 1a70a <g_887+0x8a>
    b1ef:	48 89 85 18 fb ff ff 	mov    %rax,-0x4e8(%rbp)
    b1f6:	48 8d 05 0d f5 00 00 	lea    0xf50d(%rip),%rax        # 1a70a <g_887+0x8a>
    b1fd:	48 89 85 20 fb ff ff 	mov    %rax,-0x4e0(%rbp)
    b204:	48 c7 85 28 fb ff ff 	movq   $0x0,-0x4d8(%rbp)
    b20b:	00 00 00 00 
    b20f:	48 c7 85 30 fb ff ff 	movq   $0x0,-0x4d0(%rbp)
    b216:	00 00 00 00 
    b21a:	48 8d 05 e9 f4 00 00 	lea    0xf4e9(%rip),%rax        # 1a70a <g_887+0x8a>
    b221:	48 89 85 38 fb ff ff 	mov    %rax,-0x4c8(%rbp)
    b228:	48 8d 05 db f4 00 00 	lea    0xf4db(%rip),%rax        # 1a70a <g_887+0x8a>
    b22f:	48 89 85 40 fb ff ff 	mov    %rax,-0x4c0(%rbp)
    b236:	48 c7 85 48 fb ff ff 	movq   $0x0,-0x4b8(%rbp)
    b23d:	00 00 00 00 
    b241:	48 8d 05 c2 f4 00 00 	lea    0xf4c2(%rip),%rax        # 1a70a <g_887+0x8a>
    b248:	48 89 85 50 fb ff ff 	mov    %rax,-0x4b0(%rbp)
    b24f:	48 8d 05 b4 f4 00 00 	lea    0xf4b4(%rip),%rax        # 1a70a <g_887+0x8a>
    b256:	48 89 85 58 fb ff ff 	mov    %rax,-0x4a8(%rbp)
    b25d:	48 c7 85 60 fb ff ff 	movq   $0x0,-0x4a0(%rbp)
    b264:	00 00 00 00 
    b268:	48 8d 05 9b f4 00 00 	lea    0xf49b(%rip),%rax        # 1a70a <g_887+0x8a>
    b26f:	48 89 85 68 fb ff ff 	mov    %rax,-0x498(%rbp)
    b276:	48 c7 85 70 fb ff ff 	movq   $0x0,-0x490(%rbp)
    b27d:	00 00 00 00 
    b281:	48 c7 85 78 fb ff ff 	movq   $0x0,-0x488(%rbp)
    b288:	00 00 00 00 
    b28c:	48 8d 05 77 f2 00 00 	lea    0xf277(%rip),%rax        # 1a50a <g_632+0x2>
    b293:	48 89 85 80 fb ff ff 	mov    %rax,-0x480(%rbp)
    b29a:	48 c7 85 88 fb ff ff 	movq   $0x0,-0x478(%rbp)
    b2a1:	00 00 00 00 
    b2a5:	48 c7 85 90 fb ff ff 	movq   $0x0,-0x470(%rbp)
    b2ac:	00 00 00 00 
    b2b0:	48 8d 05 53 f2 00 00 	lea    0xf253(%rip),%rax        # 1a50a <g_632+0x2>
    b2b7:	48 89 85 98 fb ff ff 	mov    %rax,-0x468(%rbp)
    b2be:	48 c7 85 a0 fb ff ff 	movq   $0x0,-0x460(%rbp)
    b2c5:	00 00 00 00 
    b2c9:	48 c7 85 a8 fb ff ff 	movq   $0x0,-0x458(%rbp)
    b2d0:	00 00 00 00 
    b2d4:	48 8d 05 2f f4 00 00 	lea    0xf42f(%rip),%rax        # 1a70a <g_887+0x8a>
    b2db:	48 89 85 b0 fb ff ff 	mov    %rax,-0x450(%rbp)
    b2e2:	48 c7 85 b8 fb ff ff 	movq   $0x0,-0x448(%rbp)
    b2e9:	00 00 00 00 
    b2ed:	48 8d 05 16 f4 00 00 	lea    0xf416(%rip),%rax        # 1a70a <g_887+0x8a>
    b2f4:	48 89 85 c0 fb ff ff 	mov    %rax,-0x440(%rbp)
    b2fb:	48 8d 05 08 f2 00 00 	lea    0xf208(%rip),%rax        # 1a50a <g_632+0x2>
    b302:	48 89 85 c8 fb ff ff 	mov    %rax,-0x438(%rbp)
    b309:	48 8d 05 fa f3 00 00 	lea    0xf3fa(%rip),%rax        # 1a70a <g_887+0x8a>
    b310:	48 89 85 d0 fb ff ff 	mov    %rax,-0x430(%rbp)
    b317:	48 8d 05 ec f1 00 00 	lea    0xf1ec(%rip),%rax        # 1a50a <g_632+0x2>
    b31e:	48 89 85 d8 fb ff ff 	mov    %rax,-0x428(%rbp)
    b325:	48 8d 05 de f1 00 00 	lea    0xf1de(%rip),%rax        # 1a50a <g_632+0x2>
    b32c:	48 89 85 e0 fb ff ff 	mov    %rax,-0x420(%rbp)
    b333:	48 8d 05 d0 f3 00 00 	lea    0xf3d0(%rip),%rax        # 1a70a <g_887+0x8a>
    b33a:	48 89 85 e8 fb ff ff 	mov    %rax,-0x418(%rbp)
    b341:	c7 85 14 fa ff ff 38 	movl   $0x70de7938,-0x5ec(%rbp)
    b348:	79 de 70 
    b34b:	48 c7 85 30 fa ff ff 	movq   $0x0,-0x5d0(%rbp)
    b352:	00 00 00 00 
    b356:	48 c7 85 38 fa ff ff 	movq   $0x0,-0x5c8(%rbp)
    b35d:	00 00 00 00 
    b361:	48 c7 85 40 fa ff ff 	movq   $0x0,-0x5c0(%rbp)
    b368:	00 00 00 00 
    b36c:	48 c7 85 48 fa ff ff 	movq   $0x0,-0x5b8(%rbp)
    b373:	00 00 00 00 
    b377:	48 c7 85 50 fa ff ff 	movq   $0x0,-0x5b0(%rbp)
    b37e:	00 00 00 00 
    b382:	48 c7 85 58 fa ff ff 	movq   $0x0,-0x5a8(%rbp)
    b389:	00 00 00 00 
    b38d:	48 c7 85 28 fa ff ff 	movq   $0xfffffffffffffffc,-0x5d8(%rbp)
    b394:	fc ff ff ff 
    b398:	48 8b 85 18 fa ff ff 	mov    -0x5e8(%rbp),%rax
    b39f:	8b 15 cf 7c 00 00    	mov    0x7ccf(%rip),%edx        # 13074 <g_256+0x14>
    b3a5:	89 10                	mov    %edx,(%rax)
    b3a7:	8b 85 a0 fa ff ff    	mov    -0x560(%rbp),%eax
    b3ad:	0f bf d8             	movswl %ax,%ebx
    b3b0:	48 8b 85 08 fa ff ff 	mov    -0x5f8(%rbp),%rax
    b3b7:	44 0f b6 e0          	movzbl %al,%r12d
    b3bb:	8b 85 9c fa ff ff    	mov    -0x564(%rbp),%eax
    b3c1:	0f b6 d0             	movzbl %al,%edx
    b3c4:	48 8b 85 20 fa ff ff 	mov    -0x5e0(%rbp),%rax
    b3cb:	0f b6 00             	movzbl (%rax),%eax
    b3ce:	8d 48 01             	lea    0x1(%rax),%ecx
    b3d1:	48 8b 85 20 fa ff ff 	mov    -0x5e0(%rbp),%rax
    b3d8:	88 08                	mov    %cl,(%rax)
    b3da:	48 8b 85 20 fa ff ff 	mov    -0x5e0(%rbp),%rax
    b3e1:	0f b6 00             	movzbl (%rax),%eax
    b3e4:	0f b6 c0             	movzbl %al,%eax
    b3e7:	89 d6                	mov    %edx,%esi
    b3e9:	89 c7                	mov    %eax,%edi
    b3eb:	e8 6a d7 ff ff       	callq  8b5a <safe_add_func_uint8_t_u_u>
    b3f0:	44 0f b6 f8          	movzbl %al,%r15d
    b3f4:	0f b7 05 89 cd 00 00 	movzwl 0xcd89(%rip),%eax        # 18184 <g_184+0x44>
    b3fb:	c1 e0 05             	shl    $0x5,%eax
    b3fe:	66 c1 f8 05          	sar    $0x5,%ax
    b402:	44 0f b7 e8          	movzwl %ax,%r13d
    b406:	8b 95 9c fa ff ff    	mov    -0x564(%rbp),%edx
    b40c:	48 8b 05 bd 45 01 00 	mov    0x145bd(%rip),%rax        # 1f9d0 <g_706>
    b413:	89 10                	mov    %edx,(%rax)
    b415:	8b 00                	mov    (%rax),%eax
    b417:	89 85 fc f9 ff ff    	mov    %eax,-0x604(%rbp)
    b41d:	48 8b 85 08 fa ff ff 	mov    -0x5f8(%rbp),%rax
    b424:	44 0f bf f0          	movswl %ax,%r14d
    b428:	0f b7 05 81 ed 00 00 	movzwl 0xed81(%rip),%eax        # 1a1b0 <g_260+0x1f0>
    b42f:	0f b7 c0             	movzwl %ax,%eax
    b432:	89 85 b0 fc ff ff    	mov    %eax,-0x350(%rbp)
    b438:	8b 85 b0 fc ff ff    	mov    -0x350(%rbp),%eax
    b43e:	31 85 10 fa ff ff    	xor    %eax,-0x5f0(%rbp)
    b444:	8b 85 10 fa ff ff    	mov    -0x5f0(%rbp),%eax
    b44a:	0f be c0             	movsbl %al,%eax
    b44d:	be 06 00 00 00       	mov    $0x6,%esi
    b452:	89 c7                	mov    %eax,%edi
    b454:	e8 48 ce ff ff       	callq  82a1 <safe_lshift_func_int8_t_s_s>
    b459:	44 89 f6             	mov    %r14d,%esi
    b45c:	bf 01 00 00 00       	mov    $0x1,%edi
    b461:	e8 4d cf ff ff       	callq  83b3 <safe_add_func_int16_t_s_s>
    b466:	66 85 c0             	test   %ax,%ax
    b469:	0f 95 c0             	setne  %al
    b46c:	0f b6 c0             	movzbl %al,%eax
    b46f:	39 85 fc f9 ff ff    	cmp    %eax,-0x604(%rbp)
    b475:	0f 97 c0             	seta   %al
    b478:	0f b6 c0             	movzbl %al,%eax
    b47b:	89 85 14 fa ff ff    	mov    %eax,-0x5ec(%rbp)
    b481:	8b 85 14 fa ff ff    	mov    -0x5ec(%rbp),%eax
    b487:	98                   	cwtl   
    b488:	be 01 00 00 00       	mov    $0x1,%esi
    b48d:	89 c7                	mov    %eax,%edi
    b48f:	e8 96 d0 ff ff       	callq  852a <safe_rshift_func_int16_t_s_s>
    b494:	8b 85 b0 fc ff ff    	mov    -0x350(%rbp),%eax
    b49a:	85 c0                	test   %eax,%eax
    b49c:	74 07                	je     b4a5 <func_33+0x502>
    b49e:	b8 01 00 00 00       	mov    $0x1,%eax
    b4a3:	eb 05                	jmp    b4aa <func_33+0x507>
    b4a5:	b8 00 00 00 00       	mov    $0x0,%eax
    b4aa:	3d ff ff 00 00       	cmp    $0xffff,%eax
    b4af:	0f 97 c0             	seta   %al
    b4b2:	0f b6 c0             	movzbl %al,%eax
    b4b5:	44 89 ee             	mov    %r13d,%esi
    b4b8:	89 c7                	mov    %eax,%edi
    b4ba:	e8 60 d8 ff ff       	callq  8d1f <safe_sub_func_uint16_t_u_u>
    b4bf:	66 41 39 c7          	cmp    %ax,%r15w
    b4c3:	0f 92 c0             	setb   %al
    b4c6:	0f b6 c0             	movzbl %al,%eax
    b4c9:	44 89 e6             	mov    %r12d,%esi
    b4cc:	89 c7                	mov    %eax,%edi
    b4ce:	e8 c0 d6 ff ff       	callq  8b93 <safe_mul_func_uint8_t_u_u>
    b4d3:	0f b6 c0             	movzbl %al,%eax
    b4d6:	48 8b 95 08 fa ff ff 	mov    -0x5f8(%rbp),%rdx
    b4dd:	09 d0                	or     %edx,%eax
    b4df:	98                   	cwtl   
    b4e0:	89 de                	mov    %ebx,%esi
    b4e2:	89 c7                	mov    %eax,%edi
    b4e4:	e8 ca ce ff ff       	callq  83b3 <safe_add_func_int16_t_s_s>
    b4e9:	66 c1 e8 0f          	shr    $0xf,%ax
    b4ed:	0f b6 c0             	movzbl %al,%eax
    b4f0:	48 39 85 08 fa ff ff 	cmp    %rax,-0x5f8(%rbp)
    b4f7:	0f 95 c0             	setne  %al
    b4fa:	0f b6 d0             	movzbl %al,%edx
    b4fd:	48 8b 05 64 48 01 00 	mov    0x14864(%rip),%rax        # 1fd68 <g_882>
    b504:	48 8b 00             	mov    (%rax),%rax
    b507:	48 8b 00             	mov    (%rax),%rax
    b50a:	48 8b 00             	mov    (%rax),%rax
    b50d:	48 39 c2             	cmp    %rax,%rdx
    b510:	0f 92 c0             	setb   %al
    b513:	0f b6 d8             	movzbl %al,%ebx
    b516:	44 8b a5 9c fa ff ff 	mov    -0x564(%rbp),%r12d
    b51d:	8b 85 80 fa ff ff    	mov    -0x580(%rbp),%eax
    b523:	48 98                	cltq   
    b525:	48 39 85 08 fa ff ff 	cmp    %rax,-0x5f8(%rbp)
    b52c:	0f 95 c0             	setne  %al
    b52f:	0f b6 c0             	movzbl %al,%eax
    b532:	be 04 00 00 00       	mov    $0x4,%esi
    b537:	89 c7                	mov    %eax,%edi
    b539:	e8 2e ce ff ff       	callq  836c <safe_rshift_func_int8_t_s_u>
    b53e:	0f be c0             	movsbl %al,%eax
    b541:	41 39 c4             	cmp    %eax,%r12d
    b544:	0f 9d c0             	setge  %al
    b547:	0f b6 c0             	movzbl %al,%eax
    b54a:	89 de                	mov    %ebx,%esi
    b54c:	89 c7                	mov    %eax,%edi
    b54e:	e8 10 d0 ff ff       	callq  8563 <safe_rshift_func_int16_t_s_u>
    b553:	48 8b 15 de 43 01 00 	mov    0x143de(%rip),%rdx        # 1f938 <g_320>
    b55a:	8b 0a                	mov    (%rdx),%ecx
    b55c:	0f bf d0             	movswl %ax,%edx
    b55f:	48 8b 05 d2 43 01 00 	mov    0x143d2(%rip),%rax        # 1f938 <g_320>
    b566:	09 ca                	or     %ecx,%edx
    b568:	89 10                	mov    %edx,(%rax)
    b56a:	48 83 85 28 fa ff ff 	addq   $0x1,-0x5d8(%rbp)
    b571:	01 
    b572:	48 8b 85 08 fa ff ff 	mov    -0x5f8(%rbp),%rax
    b579:	48 8b 5d c8          	mov    -0x38(%rbp),%rbx
    b57d:	64 48 33 1c 25 28 00 	xor    %fs:0x28,%rbx
    b584:	00 00 
    b586:	74 05                	je     b58d <func_33+0x5ea>
    b588:	e8 e3 ca ff ff       	callq  8070 <__stack_chk_fail@plt>
    b58d:	48 81 c4 e8 05 00 00 	add    $0x5e8,%rsp
    b594:	5b                   	pop    %rbx
    b595:	41 5c                	pop    %r12
    b597:	41 5d                	pop    %r13
    b599:	41 5e                	pop    %r14
    b59b:	41 5f                	pop    %r15
    b59d:	5d                   	pop    %rbp
    b59e:	c3                   	retq   

000000000000b59f <func_36>:
    b59f:	f3 0f 1e fa          	endbr64 
    b5a3:	55                   	push   %rbp
    b5a4:	48 89 e5             	mov    %rsp,%rbp
    b5a7:	41 56                	push   %r14
    b5a9:	41 55                	push   %r13
    b5ab:	41 54                	push   %r12
    b5ad:	53                   	push   %rbx
    b5ae:	48 81 ec 30 01 00 00 	sub    $0x130,%rsp
    b5b5:	48 89 bd f8 fe ff ff 	mov    %rdi,-0x108(%rbp)
    b5bc:	48 89 b5 f0 fe ff ff 	mov    %rsi,-0x110(%rbp)
    b5c3:	48 89 95 e8 fe ff ff 	mov    %rdx,-0x118(%rbp)
    b5ca:	48 89 8d e0 fe ff ff 	mov    %rcx,-0x120(%rbp)
    b5d1:	4c 89 85 d8 fe ff ff 	mov    %r8,-0x128(%rbp)
    b5d8:	64 48 8b 04 25 28 00 	mov    %fs:0x28,%rax
    b5df:	00 00 
    b5e1:	48 89 45 d8          	mov    %rax,-0x28(%rbp)
    b5e5:	31 c0                	xor    %eax,%eax
    b5e7:	48 8d 05 fa 4d 01 00 	lea    0x14dfa(%rip),%rax        # 203e8 <g_985>
    b5ee:	48 89 85 28 ff ff ff 	mov    %rax,-0xd8(%rbp)
    b5f5:	48 c7 85 20 ff ff ff 	movq   $0x0,-0xe0(%rbp)
    b5fc:	00 00 00 00 
    b600:	48 8d 45 a0          	lea    -0x60(%rbp),%rax
    b604:	48 83 c0 10          	add    $0x10,%rax
    b608:	48 89 85 30 ff ff ff 	mov    %rax,-0xd0(%rbp)
    b60f:	c7 85 18 ff ff ff f9 	movl   $0x3402f7f9,-0xe8(%rbp)
    b616:	f7 02 34 
    b619:	48 8d 05 0a cb 00 00 	lea    0xcb0a(%rip),%rax        # 1812a <g_173+0x2>
    b620:	48 89 85 38 ff ff ff 	mov    %rax,-0xc8(%rbp)
    b627:	48 c7 85 40 ff ff ff 	movq   $0x0,-0xc0(%rbp)
    b62e:	00 00 00 00 
    b632:	c7 85 0c ff ff ff 01 	movl   $0x1,-0xf4(%rbp)
    b639:	00 00 00 
    b63c:	c7 85 10 ff ff ff 00 	movl   $0x0,-0xf0(%rbp)
    b643:	00 00 00 
    b646:	eb 18                	jmp    b660 <func_36+0xc1>
    b648:	8b 85 10 ff ff ff    	mov    -0xf0(%rbp),%eax
    b64e:	48 98                	cltq   
    b650:	48 c7 44 c5 80 00 00 	movq   $0x0,-0x80(%rbp,%rax,8)
    b657:	00 00 
    b659:	83 85 10 ff ff ff 01 	addl   $0x1,-0xf0(%rbp)
    b660:	83 bd 10 ff ff ff 02 	cmpl   $0x2,-0xf0(%rbp)
    b667:	7e df                	jle    b648 <func_36+0xa9>
    b669:	c7 85 10 ff ff ff 00 	movl   $0x0,-0xf0(%rbp)
    b670:	00 00 00 
    b673:	eb 1b                	jmp    b690 <func_36+0xf1>
    b675:	8b 85 10 ff ff ff    	mov    -0xf0(%rbp),%eax
    b67b:	48 98                	cltq   
    b67d:	48 8d 95 20 ff ff ff 	lea    -0xe0(%rbp),%rdx
    b684:	48 89 54 c5 a0       	mov    %rdx,-0x60(%rbp,%rax,8)
    b689:	83 85 10 ff ff ff 01 	addl   $0x1,-0xf0(%rbp)
    b690:	83 bd 10 ff ff ff 06 	cmpl   $0x6,-0xf0(%rbp)
    b697:	7e dc                	jle    b675 <func_36+0xd6>
    b699:	48 8d 05 90 59 01 00 	lea    0x15990(%rip),%rax        # 21030 <g_749>
    b6a0:	48 89 05 89 4d 01 00 	mov    %rax,0x14d89(%rip)        # 20430 <g_1067+0x10>
    b6a7:	48 8b 85 30 ff ff ff 	mov    -0xd0(%rbp),%rax
    b6ae:	48 8d 15 7b 59 01 00 	lea    0x1597b(%rip),%rdx        # 21030 <g_749>
    b6b5:	48 89 10             	mov    %rdx,(%rax)
    b6b8:	48 8b 85 30 ff ff ff 	mov    -0xd0(%rbp),%rax
    b6bf:	48 8b 00             	mov    (%rax),%rax
    b6c2:	48 8d 15 67 59 01 00 	lea    0x15967(%rip),%rdx        # 21030 <g_749>
    b6c9:	48 39 d0             	cmp    %rdx,%rax
    b6cc:	0f 95 c0             	setne  %al
    b6cf:	0f b6 d0             	movzbl %al,%edx
    b6d2:	8b 85 18 ff ff ff    	mov    -0xe8(%rbp),%eax
    b6d8:	89 c1                	mov    %eax,%ecx
    b6da:	48 8b 85 38 ff ff ff 	mov    -0xc8(%rbp),%rax
    b6e1:	66 89 08             	mov    %cx,(%rax)
    b6e4:	48 8b 85 38 ff ff ff 	mov    -0xc8(%rbp),%rax
    b6eb:	0f b7 00             	movzwl (%rax),%eax
    b6ee:	98                   	cwtl   
    b6ef:	39 c2                	cmp    %eax,%edx
    b6f1:	74 6b                	je     b75e <func_36+0x1bf>
    b6f3:	48 8d 05 ca ec 00 00 	lea    0xecca(%rip),%rax        # 1a3c4 <g_352>
    b6fa:	48 89 85 58 ff ff ff 	mov    %rax,-0xa8(%rbp)
    b701:	48 8d 05 85 f6 00 00 	lea    0xf685(%rip),%rax        # 1ad8d <g_888+0xd>
    b708:	48 89 85 60 ff ff ff 	mov    %rax,-0xa0(%rbp)
    b70f:	c6 85 0b ff ff ff 00 	movb   $0x0,-0xf5(%rbp)
    b716:	c7 85 14 ff ff ff 00 	movl   $0x0,-0xec(%rbp)
    b71d:	00 00 00 
    b720:	eb 1e                	jmp    b740 <func_36+0x1a1>
    b722:	8b 85 14 ff ff ff    	mov    -0xec(%rbp),%eax
    b728:	48 98                	cltq   
    b72a:	48 8d 15 fc f7 00 00 	lea    0xf7fc(%rip),%rdx        # 1af2d <g_1052+0xd>
    b731:	48 89 94 c5 78 ff ff 	mov    %rdx,-0x88(%rbp,%rax,8)
    b738:	ff 
    b739:	83 85 14 ff ff ff 01 	addl   $0x1,-0xec(%rbp)
    b740:	83 bd 14 ff ff ff 00 	cmpl   $0x0,-0xec(%rbp)
    b747:	7e d9                	jle    b722 <func_36+0x183>
    b749:	0f b6 85 0b ff ff ff 	movzbl -0xf5(%rbp),%eax
    b750:	83 e8 01             	sub    $0x1,%eax
    b753:	88 85 0b ff ff ff    	mov    %al,-0xf5(%rbp)
    b759:	e9 2a 01 00 00       	jmpq   b888 <func_36+0x2e9>
    b75e:	c6 85 09 ff ff ff 30 	movb   $0x30,-0xf7(%rbp)
    b765:	48 8d 85 20 ff ff ff 	lea    -0xe0(%rbp),%rax
    b76c:	48 89 85 48 ff ff ff 	mov    %rax,-0xb8(%rbp)
    b773:	c6 85 0a ff ff ff 00 	movb   $0x0,-0xf6(%rbp)
    b77a:	48 c7 85 50 ff ff ff 	movq   $0x0,-0xb0(%rbp)
    b781:	00 00 00 00 
    b785:	8b 05 b1 c8 00 00    	mov    0xc8b1(%rip),%eax        # 1803c <g_14>
    b78b:	41 89 c6             	mov    %eax,%r14d
    b78e:	8b 85 18 ff ff ff    	mov    -0xe8(%rbp),%eax
    b794:	4c 63 e0             	movslq %eax,%r12
    b797:	4c 0f be ad 0a ff ff 	movsbq -0xf6(%rbp),%r13
    b79e:	ff 
    b79f:	66 0f be 85 0a ff ff 	movsbw -0xf6(%rbp),%ax
    b7a6:	ff 
    b7a7:	0f b7 d8             	movzwl %ax,%ebx
    b7aa:	be fd ff 00 00       	mov    $0xfffd,%esi
    b7af:	bf 01 00 00 00       	mov    $0x1,%edi
    b7b4:	e8 d5 d5 ff ff       	callq  8d8e <safe_div_func_uint16_t_u_u>
    b7b9:	0f be 85 09 ff ff ff 	movsbl -0xf7(%rbp),%eax
    b7c0:	be 00 00 00 00       	mov    $0x0,%esi
    b7c5:	89 c7                	mov    %eax,%edi
    b7c7:	e8 5e cd ff ff       	callq  852a <safe_rshift_func_int16_t_s_s>
    b7cc:	48 8b 05 ad e9 00 00 	mov    0xe9ad(%rip),%rax        # 1a180 <g_260+0x1c0>
    b7d3:	66 0f be 85 09 ff ff 	movsbw -0xf7(%rbp),%ax
    b7da:	ff 
    b7db:	0f b7 f0             	movzwl %ax,%esi
    b7de:	48 8b 8d e8 fe ff ff 	mov    -0x118(%rbp),%rcx
    b7e5:	48 8b 95 50 ff ff ff 	mov    -0xb0(%rbp),%rdx
    b7ec:	48 8b 85 40 ff ff ff 	mov    -0xc0(%rbp),%rax
    b7f3:	49 89 c8             	mov    %rcx,%r8
    b7f6:	48 89 d1             	mov    %rdx,%rcx
    b7f9:	89 da                	mov    %ebx,%edx
    b7fb:	48 89 c7             	mov    %rax,%rdi
    b7fe:	e8 e1 07 00 00       	callq  bfe4 <func_55>
    b803:	48 89 85 6c ff ff ff 	mov    %rax,-0x94(%rbp)
    b80a:	8b 85 74 ff ff ff    	mov    -0x8c(%rbp),%eax
    b810:	83 e0 00             	and    $0x0,%eax
    b813:	09 d0                	or     %edx,%eax
    b815:	89 85 74 ff ff ff    	mov    %eax,-0x8c(%rbp)
    b81b:	48 8b 95 40 ff ff ff 	mov    -0xc0(%rbp),%rdx
    b822:	48 8b b5 6c ff ff ff 	mov    -0x94(%rbp),%rsi
    b829:	8b 85 74 ff ff ff    	mov    -0x8c(%rbp),%eax
    b82f:	4d 89 e8             	mov    %r13,%r8
    b832:	48 8d 0d 87 3f 01 00 	lea    0x13f87(%rip),%rcx        # 1f7c0 <g_48>
    b839:	48 89 f7             	mov    %rsi,%rdi
    b83c:	89 c6                	mov    %eax,%esi
    b83e:	e8 0c 0a 00 00       	callq  c24f <func_64>
    b843:	48 89 c6             	mov    %rax,%rsi
    b846:	48 8b 1d f3 4b 01 00 	mov    0x14bf3(%rip),%rbx        # 20440 <g_1090>
    b84d:	48 8d 85 b0 fe ff ff 	lea    -0x150(%rbp),%rax
    b854:	48 8b 95 d8 fe ff ff 	mov    -0x128(%rbp),%rdx
    b85b:	45 89 f0             	mov    %r14d,%r8d
    b85e:	4c 89 e1             	mov    %r12,%rcx
    b861:	48 89 c7             	mov    %rax,%rdi
    b864:	e8 06 01 00 00       	callq  b96f <func_41>
    b869:	48 8b 85 b0 fe ff ff 	mov    -0x150(%rbp),%rax
    b870:	48 8b 95 b8 fe ff ff 	mov    -0x148(%rbp),%rdx
    b877:	48 89 03             	mov    %rax,(%rbx)
    b87a:	48 89 53 08          	mov    %rdx,0x8(%rbx)
    b87e:	0f b6 85 c0 fe ff ff 	movzbl -0x140(%rbp),%eax
    b885:	88 43 10             	mov    %al,0x10(%rbx)
    b888:	66 c7 05 81 ec 00 00 	movw   $0x0,0xec81(%rip)        # 1a512 <g_634+0x2>
    b88f:	00 00 
    b891:	eb 72                	jmp    b905 <func_36+0x366>
    b893:	c7 85 1c ff ff ff 26 	movl   $0xd1e15c26,-0xe4(%rbp)
    b89a:	5c e1 d1 
    b89d:	8b 05 71 ec 00 00    	mov    0xec71(%rip),%eax        # 1a514 <g_634+0x4>
    b8a3:	25 ff ff 3f 00       	and    $0x3fffff,%eax
    b8a8:	89 c1                	mov    %eax,%ecx
    b8aa:	8b 95 18 ff ff ff    	mov    -0xe8(%rbp),%edx
    b8b0:	8b 05 2a f7 00 00    	mov    0xf72a(%rip),%eax        # 1afe0 <g_1097>
    b8b6:	39 c2                	cmp    %eax,%edx
    b8b8:	77 07                	ja     b8c1 <func_36+0x322>
    b8ba:	b8 01 00 00 00       	mov    $0x1,%eax
    b8bf:	eb 05                	jmp    b8c6 <func_36+0x327>
    b8c1:	b8 00 00 00 00       	mov    $0x0,%eax
    b8c6:	0f be c0             	movsbl %al,%eax
    b8c9:	89 ce                	mov    %ecx,%esi
    b8cb:	89 c7                	mov    %eax,%edi
    b8cd:	e8 cf c9 ff ff       	callq  82a1 <safe_lshift_func_int8_t_s_s>
    b8d2:	be 03 00 00 00       	mov    $0x3,%esi
    b8d7:	bf 01 00 00 00       	mov    $0x1,%edi
    b8dc:	e8 67 d5 ff ff       	callq  8e48 <safe_rshift_func_uint16_t_u_s>
    b8e1:	0f b7 c0             	movzwl %ax,%eax
    b8e4:	21 85 0c ff ff ff    	and    %eax,-0xf4(%rbp)
    b8ea:	0f b7 05 21 ec 00 00 	movzwl 0xec21(%rip),%eax        # 1a512 <g_634+0x2>
    b8f1:	98                   	cwtl   
    b8f2:	be 09 00 00 00       	mov    $0x9,%esi
    b8f7:	89 c7                	mov    %eax,%edi
    b8f9:	e8 b5 ca ff ff       	callq  83b3 <safe_add_func_int16_t_s_s>
    b8fe:	66 89 05 0d ec 00 00 	mov    %ax,0xec0d(%rip)        # 1a512 <g_634+0x2>
    b905:	0f b7 05 06 ec 00 00 	movzwl 0xec06(%rip),%eax        # 1a512 <g_634+0x2>
    b90c:	66 83 f8 16          	cmp    $0x16,%ax
    b910:	7e 81                	jle    b893 <func_36+0x2f4>
    b912:	48 8b 8d f8 fe ff ff 	mov    -0x108(%rbp),%rcx
    b919:	48 8b 05 e0 f6 00 00 	mov    0xf6e0(%rip),%rax        # 1b000 <g_1100>
    b920:	48 8b 15 e1 f6 00 00 	mov    0xf6e1(%rip),%rdx        # 1b008 <g_1100+0x8>
    b927:	48 89 01             	mov    %rax,(%rcx)
    b92a:	48 89 51 08          	mov    %rdx,0x8(%rcx)
    b92e:	48 8b 05 db f6 00 00 	mov    0xf6db(%rip),%rax        # 1b010 <g_1100+0x10>
    b935:	48 8b 15 dc f6 00 00 	mov    0xf6dc(%rip),%rdx        # 1b018 <g_1100+0x18>
    b93c:	48 89 41 10          	mov    %rax,0x10(%rcx)
    b940:	48 89 51 18          	mov    %rdx,0x18(%rcx)
    b944:	48 8b 45 d8          	mov    -0x28(%rbp),%rax
    b948:	64 48 33 04 25 28 00 	xor    %fs:0x28,%rax
    b94f:	00 00 
    b951:	74 05                	je     b958 <func_36+0x3b9>
    b953:	e8 18 c7 ff ff       	callq  8070 <__stack_chk_fail@plt>
    b958:	48 8b 85 f8 fe ff ff 	mov    -0x108(%rbp),%rax
    b95f:	48 81 c4 30 01 00 00 	add    $0x130,%rsp
    b966:	5b                   	pop    %rbx
    b967:	41 5c                	pop    %r12
    b969:	41 5d                	pop    %r13
    b96b:	41 5e                	pop    %r14
    b96d:	5d                   	pop    %rbp
    b96e:	c3                   	retq   

000000000000b96f <func_41>:
    b96f:	f3 0f 1e fa          	endbr64 
    b973:	55                   	push   %rbp
    b974:	48 89 e5             	mov    %rsp,%rbp
    b977:	41 54                	push   %r12
    b979:	53                   	push   %rbx
    b97a:	48 81 ec 20 0d 00 00 	sub    $0xd20,%rsp
    b981:	48 89 bd f8 f2 ff ff 	mov    %rdi,-0xd08(%rbp)
    b988:	48 89 b5 f0 f2 ff ff 	mov    %rsi,-0xd10(%rbp)
    b98f:	48 89 95 e8 f2 ff ff 	mov    %rdx,-0xd18(%rbp)
    b996:	48 89 8d e0 f2 ff ff 	mov    %rcx,-0xd20(%rbp)
    b99d:	44 89 85 dc f2 ff ff 	mov    %r8d,-0xd24(%rbp)
    b9a4:	64 48 8b 04 25 28 00 	mov    %fs:0x28,%rax
    b9ab:	00 00 
    b9ad:	48 89 45 e8          	mov    %rax,-0x18(%rbp)
    b9b1:	31 c0                	xor    %eax,%eax
    b9b3:	66 c7 85 0e f3 ff ff 	movw   $0xefc0,-0xcf2(%rbp)
    b9ba:	c0 ef 
    b9bc:	48 8d 05 7d c7 00 00 	lea    0xc77d(%rip),%rax        # 18140 <g_184>
    b9c3:	48 89 85 20 f3 ff ff 	mov    %rax,-0xce0(%rbp)
    b9ca:	48 8d 85 20 f3 ff ff 	lea    -0xce0(%rbp),%rax
    b9d1:	48 89 85 38 f3 ff ff 	mov    %rax,-0xcc8(%rbp)
    b9d8:	48 8d 05 01 4a 01 00 	lea    0x14a01(%rip),%rax        # 203e0 <g_916>
    b9df:	48 89 85 28 f3 ff ff 	mov    %rax,-0xcd8(%rbp)
    b9e6:	48 8d 85 28 f3 ff ff 	lea    -0xcd8(%rbp),%rax
    b9ed:	48 89 85 40 f3 ff ff 	mov    %rax,-0xcc0(%rbp)
    b9f4:	48 8d 05 a5 e5 00 00 	lea    0xe5a5(%rip),%rax        # 19fa0 <g_257>
    b9fb:	48 89 85 30 f3 ff ff 	mov    %rax,-0xcd0(%rbp)
    ba02:	48 c7 85 f0 f3 ff ff 	movq   $0x0,-0xc10(%rbp)
    ba09:	00 00 00 00 
    ba0d:	48 8d 85 30 f3 ff ff 	lea    -0xcd0(%rbp),%rax
    ba14:	48 89 85 f8 f3 ff ff 	mov    %rax,-0xc08(%rbp)
    ba1b:	48 c7 85 00 f4 ff ff 	movq   $0x0,-0xc00(%rbp)
    ba22:	00 00 00 00 
    ba26:	48 8d 85 30 f3 ff ff 	lea    -0xcd0(%rbp),%rax
    ba2d:	48 89 85 08 f4 ff ff 	mov    %rax,-0xbf8(%rbp)
    ba34:	48 c7 85 10 f4 ff ff 	movq   $0x0,-0xbf0(%rbp)
    ba3b:	00 00 00 00 
    ba3f:	48 8d 85 30 f3 ff ff 	lea    -0xcd0(%rbp),%rax
    ba46:	48 89 85 18 f4 ff ff 	mov    %rax,-0xbe8(%rbp)
    ba4d:	48 c7 85 20 f4 ff ff 	movq   $0x0,-0xbe0(%rbp)
    ba54:	00 00 00 00 
    ba58:	48 8d 85 30 f3 ff ff 	lea    -0xcd0(%rbp),%rax
    ba5f:	48 89 85 28 f4 ff ff 	mov    %rax,-0xbd8(%rbp)
    ba66:	48 c7 85 30 f4 ff ff 	movq   $0x0,-0xbd0(%rbp)
    ba6d:	00 00 00 00 
    ba71:	48 8d 85 30 f3 ff ff 	lea    -0xcd0(%rbp),%rax
    ba78:	48 89 85 38 f4 ff ff 	mov    %rax,-0xbc8(%rbp)
    ba7f:	c7 85 10 f3 ff ff ff 	movl   $0xffffffff,-0xcf0(%rbp)
    ba86:	ff ff ff 
    ba89:	48 c7 85 48 f3 ff ff 	movq   $0x1,-0xcb8(%rbp)
    ba90:	01 00 00 00 
    ba94:	48 8d 05 d2 ea 00 00 	lea    0xead2(%rip),%rax        # 1a56d <g_699+0xd>
    ba9b:	48 89 85 50 f3 ff ff 	mov    %rax,-0xcb0(%rbp)
    baa2:	48 c7 85 58 f3 ff ff 	movq   $0x0,-0xca8(%rbp)
    baa9:	00 00 00 00 
    baad:	48 8d 05 fb e8 00 00 	lea    0xe8fb(%rip),%rax        # 1a3af <g_329+0x2f>
    bab4:	48 89 85 60 f3 ff ff 	mov    %rax,-0xca0(%rbp)
    babb:	48 8d 05 46 c6 00 00 	lea    0xc646(%rip),%rax        # 18108 <g_77>
    bac2:	48 89 85 68 f3 ff ff 	mov    %rax,-0xc98(%rbp)
    bac9:	48 8d 05 df e8 00 00 	lea    0xe8df(%rip),%rax        # 1a3af <g_329+0x2f>
    bad0:	48 89 85 70 f3 ff ff 	mov    %rax,-0xc90(%rbp)
    bad7:	48 8d 05 8f eb 00 00 	lea    0xeb8f(%rip),%rax        # 1a66d <g_861+0xd>
    bade:	48 89 85 78 f3 ff ff 	mov    %rax,-0xc88(%rbp)
    bae5:	48 8d 85 10 f3 ff ff 	lea    -0xcf0(%rbp),%rax
    baec:	48 89 85 80 f3 ff ff 	mov    %rax,-0xc80(%rbp)
    baf3:	48 8d 85 00 f8 ff ff 	lea    -0x800(%rbp),%rax
    bafa:	48 8d 15 ff 2d 01 00 	lea    0x12dff(%rip),%rdx        # 1e900 <g_2093+0xac0>
    bb01:	b9 fc 00 00 00       	mov    $0xfc,%ecx
    bb06:	48 89 c7             	mov    %rax,%rdi
    bb09:	48 89 d6             	mov    %rdx,%rsi
    bb0c:	f3 48 a5             	rep movsq %ds:(%rsi),%es:(%rdi)
    bb0f:	c7 85 1c f3 ff ff 36 	movl   $0x878f7836,-0xce4(%rbp)
    bb16:	78 8f 87 
    bb19:	c7 85 14 f3 ff ff 00 	movl   $0x0,-0xcec(%rbp)
    bb20:	00 00 00 
    bb23:	eb 46                	jmp    bb6b <func_41+0x1fc>
    bb25:	c7 85 18 f3 ff ff 00 	movl   $0x0,-0xce8(%rbp)
    bb2c:	00 00 00 
    bb2f:	eb 2a                	jmp    bb5b <func_41+0x1ec>
    bb31:	8b 85 18 f3 ff ff    	mov    -0xce8(%rbp),%eax
    bb37:	48 63 d0             	movslq %eax,%rdx
    bb3a:	8b 85 14 f3 ff ff    	mov    -0xcec(%rbp),%eax
    bb40:	48 98                	cltq   
    bb42:	48 01 d0             	add    %rdx,%rax
    bb45:	48 8d 15 e4 54 01 00 	lea    0x154e4(%rip),%rdx        # 21030 <g_749>
    bb4c:	48 89 94 c5 a0 f3 ff 	mov    %rdx,-0xc60(%rbp,%rax,8)
    bb53:	ff 
    bb54:	83 85 18 f3 ff ff 01 	addl   $0x1,-0xce8(%rbp)
    bb5b:	83 bd 18 f3 ff ff 00 	cmpl   $0x0,-0xce8(%rbp)
    bb62:	7e cd                	jle    bb31 <func_41+0x1c2>
    bb64:	83 85 14 f3 ff ff 01 	addl   $0x1,-0xcec(%rbp)
    bb6b:	83 bd 14 f3 ff ff 02 	cmpl   $0x2,-0xcec(%rbp)
    bb72:	7e b1                	jle    bb25 <func_41+0x1b6>
    bb74:	66 c7 85 0e f3 ff ff 	movw   $0xc149,-0xcf2(%rbp)
    bb7b:	49 c1 
    bb7d:	48 8b 95 20 f3 ff ff 	mov    -0xce0(%rbp),%rdx
    bb84:	48 8b 85 38 f3 ff ff 	mov    -0xcc8(%rbp),%rax
    bb8b:	48 89 10             	mov    %rdx,(%rax)
    bb8e:	48 8b 85 38 f3 ff ff 	mov    -0xcc8(%rbp),%rax
    bb95:	48 8b 00             	mov    (%rax),%rax
    bb98:	48 8d 15 01 e7 00 00 	lea    0xe701(%rip),%rdx        # 1a2a0 <g_300>
    bb9f:	48 39 d0             	cmp    %rdx,%rax
    bba2:	0f 95 c0             	setne  %al
    bba5:	0f b6 d8             	movzbl %al,%ebx
    bba8:	8b 05 f2 e5 00 00    	mov    0xe5f2(%rip),%eax        # 1a1a0 <g_260+0x1e0>
    bbae:	85 c0                	test   %eax,%eax
    bbb0:	74 13                	je     bbc5 <func_41+0x256>
    bbb2:	48 8b 85 20 f4 ff ff 	mov    -0xbe0(%rbp),%rax
    bbb9:	48 85 c0             	test   %rax,%rax
    bbbc:	74 07                	je     bbc5 <func_41+0x256>
    bbbe:	b8 01 00 00 00       	mov    $0x1,%eax
    bbc3:	eb 05                	jmp    bbca <func_41+0x25b>
    bbc5:	b8 00 00 00 00       	mov    $0x0,%eax
    bbca:	41 89 c4             	mov    %eax,%r12d
    bbcd:	48 8d 05 04 3d 01 00 	lea    0x13d04(%rip),%rax        # 1f8d8 <g_305>
    bbd4:	48 39 85 40 f3 ff ff 	cmp    %rax,-0xcc0(%rbp)
    bbdb:	0f 95 c0             	setne  %al
    bbde:	0f b6 c0             	movzbl %al,%eax
    bbe1:	be 07 00 00 00       	mov    $0x7,%esi
    bbe6:	89 c7                	mov    %eax,%edi
    bbe8:	e8 5f d0 ff ff       	callq  8c4c <safe_lshift_func_uint8_t_u_u>
    bbed:	0f b6 c0             	movzbl %al,%eax
    bbf0:	44 89 e6             	mov    %r12d,%esi
    bbf3:	89 c7                	mov    %eax,%edi
    bbf5:	e8 69 c9 ff ff       	callq  8563 <safe_rshift_func_int16_t_s_u>
    bbfa:	66 85 c0             	test   %ax,%ax
    bbfd:	75 11                	jne    bc10 <func_41+0x2a1>
    bbff:	48 8b 95 a0 f3 ff ff 	mov    -0xc60(%rbp),%rdx
    bc06:	48 8b 85 b0 f3 ff ff 	mov    -0xc50(%rbp),%rax
    bc0d:	48 39 c2             	cmp    %rax,%rdx
    bc10:	b8 01 00 00 00       	mov    $0x1,%eax
    bc15:	83 f0 24             	xor    $0x24,%eax
    bc18:	48 98                	cltq   
    bc1a:	48 21 c3             	and    %rax,%rbx
    bc1d:	48 89 d9             	mov    %rbx,%rcx
    bc20:	48 8b 05 11 3d 01 00 	mov    0x13d11(%rip),%rax        # 1f938 <g_320>
    bc27:	8b 10                	mov    (%rax),%edx
    bc29:	48 8b 05 08 3d 01 00 	mov    0x13d08(%rip),%rax        # 1f938 <g_320>
    bc30:	09 ca                	or     %ecx,%edx
    bc32:	89 10                	mov    %edx,(%rax)
    bc34:	66 c7 85 0e f3 ff ff 	movw   $0x0,-0xcf2(%rbp)
    bc3b:	00 00 
    bc3d:	e9 ba 00 00 00       	jmpq   bcfc <func_41+0x38d>
    bc42:	48 8d 85 40 f4 ff ff 	lea    -0xbc0(%rbp),%rax
    bc49:	48 8d 15 90 34 01 00 	lea    0x13490(%rip),%rdx        # 1f0e0 <g_2093+0x12a0>
    bc50:	b9 78 00 00 00       	mov    $0x78,%ecx
    bc55:	48 89 c7             	mov    %rax,%rdi
    bc58:	48 89 d6             	mov    %rdx,%rsi
    bc5b:	f3 48 a5             	rep movsq %ds:(%rsi),%es:(%rdi)
    bc5e:	c7 85 c0 f3 ff ff 09 	movl   $0x9,-0xc40(%rbp)
    bc65:	00 00 00 
    bc68:	c7 85 c4 f3 ff ff 06 	movl   $0xdeb87206,-0xc3c(%rbp)
    bc6f:	72 b8 de 
    bc72:	c7 85 c8 f3 ff ff 09 	movl   $0x9,-0xc38(%rbp)
    bc79:	00 00 00 
    bc7c:	c7 85 cc f3 ff ff 09 	movl   $0x9,-0xc34(%rbp)
    bc83:	00 00 00 
    bc86:	c7 85 d0 f3 ff ff 06 	movl   $0xdeb87206,-0xc30(%rbp)
    bc8d:	72 b8 de 
    bc90:	c7 85 d4 f3 ff ff 09 	movl   $0x9,-0xc2c(%rbp)
    bc97:	00 00 00 
    bc9a:	c7 85 d8 f3 ff ff 09 	movl   $0x9,-0xc28(%rbp)
    bca1:	00 00 00 
    bca4:	c7 85 dc f3 ff ff 06 	movl   $0xdeb87206,-0xc24(%rbp)
    bcab:	72 b8 de 
    bcae:	c7 85 e0 f3 ff ff 09 	movl   $0x9,-0xc20(%rbp)
    bcb5:	00 00 00 
    bcb8:	48 8d 05 61 f1 00 00 	lea    0xf161(%rip),%rax        # 1ae20 <g_993>
    bcbf:	48 89 85 88 f3 ff ff 	mov    %rax,-0xc78(%rbp)
    bcc6:	48 c7 85 90 f3 ff ff 	movq   $0x1,-0xc70(%rbp)
    bccd:	01 00 00 00 
    bcd1:	48 8d 05 60 3c 01 00 	lea    0x13c60(%rip),%rax        # 1f938 <g_320>
    bcd8:	48 89 85 98 f3 ff ff 	mov    %rax,-0xc68(%rbp)
    bcdf:	0f b7 85 0e f3 ff ff 	movzwl -0xcf2(%rbp),%eax
    bce6:	0f b7 c0             	movzwl %ax,%eax
    bce9:	be 09 00 00 00       	mov    $0x9,%esi
    bcee:	89 c7                	mov    %eax,%edi
    bcf0:	e8 2a d0 ff ff       	callq  8d1f <safe_sub_func_uint16_t_u_u>
    bcf5:	66 89 85 0e f3 ff ff 	mov    %ax,-0xcf2(%rbp)
    bcfc:	66 83 bd 0e f3 ff ff 	cmpw   $0xffe7,-0xcf2(%rbp)
    bd03:	e7 
    bd04:	0f 8c 38 ff ff ff    	jl     bc42 <func_41+0x2d3>
    bd0a:	83 85 1c f3 ff ff 01 	addl   $0x1,-0xce4(%rbp)
    bd11:	48 8b 8d f8 f2 ff ff 	mov    -0xd08(%rbp),%rcx
    bd18:	48 8b 05 31 f2 00 00 	mov    0xf231(%rip),%rax        # 1af50 <g_1064>
    bd1f:	48 8b 15 32 f2 00 00 	mov    0xf232(%rip),%rdx        # 1af58 <g_1064+0x8>
    bd26:	48 89 01             	mov    %rax,(%rcx)
    bd29:	48 89 51 08          	mov    %rdx,0x8(%rcx)
    bd2d:	0f b6 05 2c f2 00 00 	movzbl 0xf22c(%rip),%eax        # 1af60 <g_1064+0x10>
    bd34:	88 41 10             	mov    %al,0x10(%rcx)
    bd37:	48 8b 45 e8          	mov    -0x18(%rbp),%rax
    bd3b:	64 48 33 04 25 28 00 	xor    %fs:0x28,%rax
    bd42:	00 00 
    bd44:	74 05                	je     bd4b <func_41+0x3dc>
    bd46:	e8 25 c3 ff ff       	callq  8070 <__stack_chk_fail@plt>
    bd4b:	48 8b 85 f8 f2 ff ff 	mov    -0xd08(%rbp),%rax
    bd52:	48 81 c4 20 0d 00 00 	add    $0xd20,%rsp
    bd59:	5b                   	pop    %rbx
    bd5a:	41 5c                	pop    %r12
    bd5c:	5d                   	pop    %rbp
    bd5d:	c3                   	retq   

000000000000bd5e <func_46>:
    bd5e:	f3 0f 1e fa          	endbr64 
    bd62:	55                   	push   %rbp
    bd63:	48 89 e5             	mov    %rsp,%rbp
    bd66:	41 57                	push   %r15
    bd68:	41 56                	push   %r14
    bd6a:	41 55                	push   %r13
    bd6c:	41 54                	push   %r12
    bd6e:	53                   	push   %rbx
    bd6f:	48 81 ec 98 03 00 00 	sub    $0x398,%rsp
    bd76:	48 89 bd 58 fc ff ff 	mov    %rdi,-0x3a8(%rbp)
    bd7d:	64 48 8b 04 25 28 00 	mov    %fs:0x28,%rax
    bd84:	00 00 
    bd86:	48 89 45 c8          	mov    %rax,-0x38(%rbp)
    bd8a:	31 c0                	xor    %eax,%eax
    bd8c:	66 c7 85 88 fc ff ff 	movw   $0xffff,-0x378(%rbp)
    bd93:	ff ff 
    bd95:	8b 85 8c fc ff ff    	mov    -0x374(%rbp),%eax
    bd9b:	25 00 00 fe ff       	and    $0xfffe0000,%eax
    bda0:	83 c8 2f             	or     $0x2f,%eax
    bda3:	89 85 8c fc ff ff    	mov    %eax,-0x374(%rbp)
    bda9:	0f b6 85 8e fc ff ff 	movzbl -0x372(%rbp),%eax
    bdb0:	83 e0 f1             	and    $0xfffffff1,%eax
    bdb3:	83 c8 02             	or     $0x2,%eax
    bdb6:	88 85 8e fc ff ff    	mov    %al,-0x372(%rbp)
    bdbc:	8b 85 90 fc ff ff    	mov    -0x370(%rbp),%eax
    bdc2:	25 00 00 e0 ff       	and    $0xffe00000,%eax
    bdc7:	0d 1a fb 1f 00       	or     $0x1ffb1a,%eax
    bdcc:	89 85 90 fc ff ff    	mov    %eax,-0x370(%rbp)
    bdd2:	48 8d 85 a0 fc ff ff 	lea    -0x360(%rbp),%rax
    bdd9:	48 8d 15 c0 36 01 00 	lea    0x136c0(%rip),%rdx        # 1f4a0 <g_2093+0x1660>
    bde0:	b9 64 00 00 00       	mov    $0x64,%ecx
    bde5:	48 89 c7             	mov    %rax,%rdi
    bde8:	48 89 d6             	mov    %rdx,%rsi
    bdeb:	f3 48 a5             	rep movsq %ds:(%rsi),%es:(%rdi)
    bdee:	0f b7 85 64 fc ff ff 	movzwl -0x39c(%rbp),%eax
    bdf5:	66 25 00 f8          	and    $0xf800,%ax
    bdf9:	66 0d d9 07          	or     $0x7d9,%ax
    bdfd:	66 89 85 64 fc ff ff 	mov    %ax,-0x39c(%rbp)
    be04:	8b 85 64 fc ff ff    	mov    -0x39c(%rbp),%eax
    be0a:	25 ff 07 fe ff       	and    $0xfffe07ff,%eax
    be0f:	80 cc 10             	or     $0x10,%ah
    be12:	89 85 64 fc ff ff    	mov    %eax,-0x39c(%rbp)
    be18:	c6 85 63 fc ff ff b2 	movb   $0xb2,-0x39d(%rbp)
    be1f:	48 8d 05 9a 39 01 00 	lea    0x1399a(%rip),%rax        # 1f7c0 <g_48>
    be26:	48 89 85 68 fc ff ff 	mov    %rax,-0x398(%rbp)
    be2d:	48 8d 85 68 fc ff ff 	lea    -0x398(%rbp),%rax
    be34:	48 89 85 70 fc ff ff 	mov    %rax,-0x390(%rbp)
    be3b:	48 c7 85 78 fc ff ff 	movq   $0x0,-0x388(%rbp)
    be42:	00 00 00 00 
    be46:	48 8d 05 fb 51 01 00 	lea    0x151fb(%rip),%rax        # 21048 <g_924>
    be4d:	48 89 85 80 fc ff ff 	mov    %rax,-0x380(%rbp)
    be54:	0f b6 85 63 fc ff ff 	movzbl -0x39d(%rbp),%eax
    be5b:	89 85 54 fc ff ff    	mov    %eax,-0x3ac(%rbp)
    be61:	48 8b 9d 30 ff ff ff 	mov    -0xd0(%rbp),%rbx
    be68:	48 8b 8d 58 fc ff ff 	mov    -0x3a8(%rbp),%rcx
    be6f:	48 89 8d 48 fc ff ff 	mov    %rcx,-0x3b8(%rbp)
    be76:	4c 8b 35 63 45 01 00 	mov    0x14563(%rip),%r14        # 203e0 <g_916>
    be7d:	0f b7 05 5e e4 00 00 	movzwl 0xe45e(%rip),%eax        # 1a2e2 <g_300+0x42>
    be84:	44 0f b7 e8          	movzwl %ax,%r13d
    be88:	8b 85 90 fc ff ff    	mov    -0x370(%rbp),%eax
    be8e:	c1 e0 0b             	shl    $0xb,%eax
    be91:	c1 f8 0b             	sar    $0xb,%eax
    be94:	44 0f b7 e0          	movzwl %ax,%r12d
    be98:	8b 05 96 c2 00 00    	mov    0xc296(%rip),%eax        # 18134 <g_178>
    be9e:	44 0f be f8          	movsbl %al,%r15d
    bea2:	48 8b 05 57 c2 00 00 	mov    0xc257(%rip),%rax        # 18100 <g_73>
    bea9:	0f be c0             	movsbl %al,%eax
    beac:	89 c6                	mov    %eax,%esi
    beae:	bf 01 00 00 00       	mov    $0x1,%edi
    beb3:	e8 5a c3 ff ff       	callq  8212 <safe_mul_func_int8_t_s_s>
    beb8:	48 0f be f8          	movsbq %al,%rdi
    bebc:	48 8b 95 30 ff ff ff 	mov    -0xd0(%rbp),%rdx
    bec3:	48 8d 8d 58 fc ff ff 	lea    -0x3a8(%rbp),%rcx
    beca:	48 8b b5 88 fc ff ff 	mov    -0x378(%rbp),%rsi
    bed1:	8b 85 90 fc ff ff    	mov    -0x370(%rbp),%eax
    bed7:	49 89 f8             	mov    %rdi,%r8
    beda:	48 89 f7             	mov    %rsi,%rdi
    bedd:	89 c6                	mov    %eax,%esi
    bedf:	e8 6b 03 00 00       	callq  c24f <func_64>
    bee4:	48 89 05 d5 38 01 00 	mov    %rax,0x138d5(%rip)        # 1f7c0 <g_48>
    beeb:	48 8b 05 ce 38 01 00 	mov    0x138ce(%rip),%rax        # 1f7c0 <g_48>
    bef2:	44 89 fe             	mov    %r15d,%esi
    bef5:	48 89 c7             	mov    %rax,%rdi
    bef8:	e8 5f 01 00 00       	callq  c05c <func_61>
    befd:	4c 8b 85 48 fc ff ff 	mov    -0x3b8(%rbp),%r8
    bf04:	4c 89 f1             	mov    %r14,%rcx
    bf07:	44 89 ea             	mov    %r13d,%edx
    bf0a:	44 89 e6             	mov    %r12d,%esi
    bf0d:	48 89 c7             	mov    %rax,%rdi
    bf10:	e8 cf 00 00 00       	callq  bfe4 <func_55>
    bf15:	48 89 85 94 fc ff ff 	mov    %rax,-0x36c(%rbp)
    bf1c:	8b 85 9c fc ff ff    	mov    -0x364(%rbp),%eax
    bf22:	83 e0 00             	and    $0x0,%eax
    bf25:	09 d0                	or     %edx,%eax
    bf27:	89 85 9c fc ff ff    	mov    %eax,-0x364(%rbp)
    bf2d:	8b 95 64 fc ff ff    	mov    -0x39c(%rbp),%edx
    bf33:	48 8b b5 94 fc ff ff 	mov    -0x36c(%rbp),%rsi
    bf3a:	8b 85 9c fc ff ff    	mov    -0x364(%rbp),%eax
    bf40:	44 8b 85 54 fc ff ff 	mov    -0x3ac(%rbp),%r8d
    bf47:	48 89 d9             	mov    %rbx,%rcx
    bf4a:	48 89 f7             	mov    %rsi,%rdi
    bf4d:	89 c6                	mov    %eax,%esi
    bf4f:	e8 4b 00 00 00       	callq  bf9f <func_50>
    bf54:	48 8b 95 70 fc ff ff 	mov    -0x390(%rbp),%rdx
    bf5b:	48 89 02             	mov    %rax,(%rdx)
    bf5e:	48 8b 15 e3 50 01 00 	mov    0x150e3(%rip),%rdx        # 21048 <g_924>
    bf65:	48 8b 85 80 fc ff ff 	mov    -0x380(%rbp),%rax
    bf6c:	48 89 10             	mov    %rdx,(%rax)
    bf6f:	48 8b 05 6a 44 01 00 	mov    0x1446a(%rip),%rax        # 203e0 <g_916>
    bf76:	48 8b 00             	mov    (%rax),%rax
    bf79:	48 8b 5d c8          	mov    -0x38(%rbp),%rbx
    bf7d:	64 48 33 1c 25 28 00 	xor    %fs:0x28,%rbx
    bf84:	00 00 
    bf86:	74 05                	je     bf8d <func_46+0x22f>
    bf88:	e8 e3 c0 ff ff       	callq  8070 <__stack_chk_fail@plt>
    bf8d:	48 81 c4 98 03 00 00 	add    $0x398,%rsp
    bf94:	5b                   	pop    %rbx
    bf95:	41 5c                	pop    %r12
    bf97:	41 5d                	pop    %r13
    bf99:	41 5e                	pop    %r14
    bf9b:	41 5f                	pop    %r15
    bf9d:	5d                   	pop    %rbp
    bf9e:	c3                   	retq   

000000000000bf9f <func_50>:
    bf9f:	f3 0f 1e fa          	endbr64 
    bfa3:	55                   	push   %rbp
    bfa4:	48 89 e5             	mov    %rsp,%rbp
    bfa7:	89 f0                	mov    %esi,%eax
    bfa9:	89 55 ec             	mov    %edx,-0x14(%rbp)
    bfac:	48 89 4d e0          	mov    %rcx,-0x20(%rbp)
    bfb0:	44 89 45 e8          	mov    %r8d,-0x18(%rbp)
    bfb4:	48 89 7d f0          	mov    %rdi,-0x10(%rbp)
    bfb8:	89 45 f8             	mov    %eax,-0x8(%rbp)
    bfbb:	48 8b 05 76 39 01 00 	mov    0x13976(%rip),%rax        # 1f938 <g_320>
    bfc2:	8b 08                	mov    (%rax),%ecx
    bfc4:	0f b6 45 f6          	movzbl -0xa(%rbp),%eax
    bfc8:	d0 e8                	shr    %al
    bfca:	83 e0 07             	and    $0x7,%eax
    bfcd:	0f b6 d0             	movzbl %al,%edx
    bfd0:	48 8b 05 61 39 01 00 	mov    0x13961(%rip),%rax        # 1f938 <g_320>
    bfd7:	09 ca                	or     %ecx,%edx
    bfd9:	89 10                	mov    %edx,(%rax)
    bfdb:	48 8d 05 5e 50 01 00 	lea    0x1505e(%rip),%rax        # 21040 <g_917>
    bfe2:	5d                   	pop    %rbp
    bfe3:	c3                   	retq   

000000000000bfe4 <func_55>:
    bfe4:	f3 0f 1e fa          	endbr64 
    bfe8:	55                   	push   %rbp
    bfe9:	48 89 e5             	mov    %rsp,%rbp
    bfec:	48 89 7d d8          	mov    %rdi,-0x28(%rbp)
    bff0:	89 d0                	mov    %edx,%eax
    bff2:	48 89 4d c8          	mov    %rcx,-0x38(%rbp)
    bff6:	4c 89 45 c0          	mov    %r8,-0x40(%rbp)
    bffa:	89 f2                	mov    %esi,%edx
    bffc:	66 89 55 d4          	mov    %dx,-0x2c(%rbp)
    c000:	66 89 45 d0          	mov    %ax,-0x30(%rbp)
    c004:	66 c7 45 e8 80 91    	movw   $0x9180,-0x18(%rbp)
    c00a:	8b 45 ec             	mov    -0x14(%rbp),%eax
    c00d:	25 00 00 fe ff       	and    $0xfffe0000,%eax
    c012:	0c 88                	or     $0x88,%al
    c014:	89 45 ec             	mov    %eax,-0x14(%rbp)
    c017:	0f b6 45 ee          	movzbl -0x12(%rbp),%eax
    c01b:	83 e0 f1             	and    $0xfffffff1,%eax
    c01e:	88 45 ee             	mov    %al,-0x12(%rbp)
    c021:	8b 45 f0             	mov    -0x10(%rbp),%eax
    c024:	25 00 00 e0 ff       	and    $0xffe00000,%eax
    c029:	0d 36 05 00 00       	or     $0x536,%eax
    c02e:	89 45 f0             	mov    %eax,-0x10(%rbp)
    c031:	48 8b 05 08 3a 01 00 	mov    0x13a08(%rip),%rax        # 1fa40 <g_786>
    c038:	48 8b 15 d1 ed 00 00 	mov    0xedd1(%rip),%rdx        # 1ae10 <g_918+0x10>
    c03f:	48 89 10             	mov    %rdx,(%rax)
    c042:	48 8b 45 e8          	mov    -0x18(%rbp),%rax
    c046:	48 89 45 f4          	mov    %rax,-0xc(%rbp)
    c04a:	8b 45 f0             	mov    -0x10(%rbp),%eax
    c04d:	89 45 fc             	mov    %eax,-0x4(%rbp)
    c050:	48 8b 45 f4          	mov    -0xc(%rbp),%rax
    c054:	8b 4d fc             	mov    -0x4(%rbp),%ecx
    c057:	48 89 ca             	mov    %rcx,%rdx
    c05a:	5d                   	pop    %rbp
    c05b:	c3                   	retq   

000000000000c05c <func_61>:
    c05c:	f3 0f 1e fa          	endbr64 
    c060:	55                   	push   %rbp
    c061:	48 89 e5             	mov    %rsp,%rbp
    c064:	48 81 ec d0 00 00 00 	sub    $0xd0,%rsp
    c06b:	48 89 bd 38 ff ff ff 	mov    %rdi,-0xc8(%rbp)
    c072:	89 f0                	mov    %esi,%eax
    c074:	88 85 34 ff ff ff    	mov    %al,-0xcc(%rbp)
    c07a:	64 48 8b 04 25 28 00 	mov    %fs:0x28,%rax
    c081:	00 00 
    c083:	48 89 45 f8          	mov    %rax,-0x8(%rbp)
    c087:	31 c0                	xor    %eax,%eax
    c089:	c7 85 5c ff ff ff 87 	movl   $0x8e8c6b87,-0xa4(%rbp)
    c090:	6b 8c 8e 
    c093:	48 8d 05 2e c0 00 00 	lea    0xc02e(%rip),%rax        # 180c8 <g_49+0x68>
    c09a:	48 89 45 80          	mov    %rax,-0x80(%rbp)
    c09e:	48 c7 45 88 00 00 00 	movq   $0x0,-0x78(%rbp)
    c0a5:	00 
    c0a6:	48 8d 05 5b c0 00 00 	lea    0xc05b(%rip),%rax        # 18108 <g_77>
    c0ad:	48 89 45 90          	mov    %rax,-0x70(%rbp)
    c0b1:	48 8d 05 72 c0 00 00 	lea    0xc072(%rip),%rax        # 1812a <g_173+0x2>
    c0b8:	48 89 45 98          	mov    %rax,-0x68(%rbp)
    c0bc:	66 c7 45 e0 01 00    	movw   $0x1,-0x20(%rbp)
    c0c2:	8b 45 e4             	mov    -0x1c(%rbp),%eax
    c0c5:	25 00 00 fe ff       	and    $0xfffe0000,%eax
    c0ca:	0d a7 ff 01 00       	or     $0x1ffa7,%eax
    c0cf:	89 45 e4             	mov    %eax,-0x1c(%rbp)
    c0d2:	0f b6 45 e6          	movzbl -0x1a(%rbp),%eax
    c0d6:	83 e0 f1             	and    $0xfffffff1,%eax
    c0d9:	88 45 e6             	mov    %al,-0x1a(%rbp)
    c0dc:	8b 45 e8             	mov    -0x18(%rbp),%eax
    c0df:	25 00 00 e0 ff       	and    $0xffe00000,%eax
    c0e4:	0d bf fa 1f 00       	or     $0x1ffabf,%eax
    c0e9:	89 45 e8             	mov    %eax,-0x18(%rbp)
    c0ec:	48 8d 05 cd 36 01 00 	lea    0x136cd(%rip),%rax        # 1f7c0 <g_48>
    c0f3:	48 89 45 a0          	mov    %rax,-0x60(%rbp)
    c0f7:	48 8d 05 d2 37 01 00 	lea    0x137d2(%rip),%rax        # 1f8d0 <g_254>
    c0fe:	48 89 45 a8          	mov    %rax,-0x58(%rbp)
    c102:	48 8d 05 f7 bf 00 00 	lea    0xbff7(%rip),%rax        # 18100 <g_73>
    c109:	48 89 45 b0          	mov    %rax,-0x50(%rbp)
    c10d:	c6 85 4d ff ff ff 45 	movb   $0x45,-0xb3(%rbp)
    c114:	48 c7 45 b8 fe ff ff 	movq   $0xfffffffffffffffe,-0x48(%rbp)
    c11b:	ff 
    c11c:	66 c7 85 50 ff ff ff 	movw   $0x0,-0xb0(%rbp)
    c123:	00 00 
    c125:	c7 85 60 ff ff ff 89 	movl   $0xf2bce489,-0xa0(%rbp)
    c12c:	e4 bc f2 
    c12f:	c6 85 4e ff ff ff ff 	movb   $0xff,-0xb2(%rbp)
    c136:	c7 85 64 ff ff ff 9d 	movl   $0x493f199d,-0x9c(%rbp)
    c13d:	19 3f 49 
    c140:	c7 85 68 ff ff ff ff 	movl   $0xffffffff,-0x98(%rbp)
    c147:	ff ff ff 
    c14a:	c7 85 6c ff ff ff fe 	movl   $0xfffffffe,-0x94(%rbp)
    c151:	ff ff ff 
    c154:	c7 85 70 ff ff ff 03 	movl   $0x3,-0x90(%rbp)
    c15b:	00 00 00 
    c15e:	0f b7 85 54 ff ff ff 	movzwl -0xac(%rbp),%eax
    c165:	66 25 00 f8          	and    $0xf800,%ax
    c169:	83 c8 0e             	or     $0xe,%eax
    c16c:	66 89 85 54 ff ff ff 	mov    %ax,-0xac(%rbp)
    c173:	8b 85 54 ff ff ff    	mov    -0xac(%rbp),%eax
    c179:	25 ff 07 fe ff       	and    $0xfffe07ff,%eax
    c17e:	89 85 54 ff ff ff    	mov    %eax,-0xac(%rbp)
    c184:	c7 85 74 ff ff ff 01 	movl   $0x1,-0x8c(%rbp)
    c18b:	00 00 00 
    c18e:	66 c7 85 52 ff ff ff 	movw   $0xffff,-0xae(%rbp)
    c195:	ff ff 
    c197:	c6 85 4f ff ff ff 01 	movb   $0x1,-0xb1(%rbp)
    c19e:	c7 85 78 ff ff ff f6 	movl   $0xc3e5d5f6,-0x88(%rbp)
    c1a5:	d5 e5 c3 
    c1a8:	48 8d 05 81 4e 01 00 	lea    0x14e81(%rip),%rax        # 21030 <g_749>
    c1af:	48 89 45 c0          	mov    %rax,-0x40(%rbp)
    c1b3:	c7 85 7c ff ff ff 38 	movl   $0x5cdf2638,-0x84(%rbp)
    c1ba:	26 df 5c 
    c1bd:	48 c7 45 c8 00 00 00 	movq   $0x0,-0x38(%rbp)
    c1c4:	00 
    c1c5:	48 8d 05 5c e4 00 00 	lea    0xe45c(%rip),%rax        # 1a628 <g_809>
    c1cc:	48 89 45 d0          	mov    %rax,-0x30(%rbp)
    c1d0:	48 8d 05 79 3f 01 00 	lea    0x13f79(%rip),%rax        # 20150 <g_897+0x3b0>
    c1d7:	48 89 45 d8          	mov    %rax,-0x28(%rbp)
    c1db:	c7 85 58 ff ff ff 00 	movl   $0x0,-0xa8(%rbp)
    c1e2:	00 00 00 
    c1e5:	eb 16                	jmp    c1fd <func_61+0x1a1>
    c1e7:	8b 85 58 ff ff ff    	mov    -0xa8(%rbp),%eax
    c1ed:	48 98                	cltq   
    c1ef:	66 c7 44 45 f0 01 00 	movw   $0x1,-0x10(%rbp,%rax,2)
    c1f6:	83 85 58 ff ff ff 01 	addl   $0x1,-0xa8(%rbp)
    c1fd:	83 bd 58 ff ff ff 03 	cmpl   $0x3,-0xa8(%rbp)
    c204:	7e e1                	jle    c1e7 <func_61+0x18b>
    c206:	c7 85 58 ff ff ff 00 	movl   $0x0,-0xa8(%rbp)
    c20d:	00 00 00 
    c210:	eb 17                	jmp    c229 <func_61+0x1cd>
    c212:	8b 85 58 ff ff ff    	mov    -0xa8(%rbp),%eax
    c218:	48 98                	cltq   
    c21a:	c7 44 85 ec 08 00 00 	movl   $0x8,-0x14(%rbp,%rax,4)
    c221:	00 
    c222:	83 85 58 ff ff ff 01 	addl   $0x1,-0xa8(%rbp)
    c229:	83 bd 58 ff ff ff 00 	cmpl   $0x0,-0xa8(%rbp)
    c230:	7e e0                	jle    c212 <func_61+0x1b6>
    c232:	48 8d 05 87 35 01 00 	lea    0x13587(%rip),%rax        # 1f7c0 <g_48>
    c239:	48 8b 55 f8          	mov    -0x8(%rbp),%rdx
    c23d:	64 48 33 14 25 28 00 	xor    %fs:0x28,%rdx
    c244:	00 00 
    c246:	74 05                	je     c24d <func_61+0x1f1>
    c248:	e8 23 be ff ff       	callq  8070 <__stack_chk_fail@plt>
    c24d:	c9                   	leaveq 
    c24e:	c3                   	retq   

000000000000c24f <func_64>:
    c24f:	f3 0f 1e fa          	endbr64 
    c253:	55                   	push   %rbp
    c254:	48 89 e5             	mov    %rsp,%rbp
    c257:	41 57                	push   %r15
    c259:	41 56                	push   %r14
    c25b:	41 55                	push   %r13
    c25d:	41 54                	push   %r12
    c25f:	53                   	push   %rbx
    c260:	48 81 ec 48 02 00 00 	sub    $0x248,%rsp
    c267:	89 f0                	mov    %esi,%eax
    c269:	48 89 95 a8 fd ff ff 	mov    %rdx,-0x258(%rbp)
    c270:	48 89 8d a0 fd ff ff 	mov    %rcx,-0x260(%rbp)
    c277:	4c 89 85 98 fd ff ff 	mov    %r8,-0x268(%rbp)
    c27e:	48 89 bd b0 fd ff ff 	mov    %rdi,-0x250(%rbp)
    c285:	89 85 b8 fd ff ff    	mov    %eax,-0x248(%rbp)
    c28b:	64 48 8b 04 25 28 00 	mov    %fs:0x28,%rax
    c292:	00 00 
    c294:	48 89 45 c8          	mov    %rax,-0x38(%rbp)
    c298:	31 c0                	xor    %eax,%eax
    c29a:	66 c7 85 c8 fd ff ff 	movw   $0xfffb,-0x238(%rbp)
    c2a1:	fb ff 
    c2a3:	c7 85 cc fd ff ff 2e 	movl   $0x5ee192e,-0x234(%rbp)
    c2aa:	19 ee 05 
    c2ad:	c7 85 d4 fd ff ff 00 	movl   $0x0,-0x22c(%rbp)
    c2b4:	00 00 00 
    c2b7:	c7 85 dc fd ff ff ff 	movl   $0xffffffff,-0x224(%rbp)
    c2be:	ff ff ff 
    c2c1:	48 8d 05 38 be 00 00 	lea    0xbe38(%rip),%rax        # 18100 <g_73>
    c2c8:	48 89 85 f0 fd ff ff 	mov    %rax,-0x210(%rbp)
    c2cf:	48 8d 05 32 be 00 00 	lea    0xbe32(%rip),%rax        # 18108 <g_77>
    c2d6:	48 89 85 f8 fd ff ff 	mov    %rax,-0x208(%rbp)
    c2dd:	48 8d 05 dc bd 00 00 	lea    0xbddc(%rip),%rax        # 180c0 <g_49+0x60>
    c2e4:	48 89 85 00 fe ff ff 	mov    %rax,-0x200(%rbp)
    c2eb:	66 c7 85 b0 fd ff ff 	movw   $0xfff5,-0x250(%rbp)
    c2f2:	f5 ff 
    c2f4:	e9 dc 00 00 00       	jmpq   c3d5 <func_64+0x186>
    c2f9:	48 8d 05 08 be 00 00 	lea    0xbe08(%rip),%rax        # 18108 <g_77>
    c300:	48 89 85 68 fe ff ff 	mov    %rax,-0x198(%rbp)
    c307:	48 8d 05 16 bd 00 00 	lea    0xbd16(%rip),%rax        # 18024 <g_2>
    c30e:	48 89 85 d0 fe ff ff 	mov    %rax,-0x130(%rbp)
    c315:	48 8d 05 14 bd 00 00 	lea    0xbd14(%rip),%rax        # 18030 <g_9>
    c31c:	48 89 85 d8 fe ff ff 	mov    %rax,-0x128(%rbp)
    c323:	48 8d 05 fa bc 00 00 	lea    0xbcfa(%rip),%rax        # 18024 <g_2>
    c32a:	48 89 85 e0 fe ff ff 	mov    %rax,-0x120(%rbp)
    c331:	48 8d 05 f8 bc 00 00 	lea    0xbcf8(%rip),%rax        # 18030 <g_9>
    c338:	48 89 85 e8 fe ff ff 	mov    %rax,-0x118(%rbp)
    c33f:	48 8d 05 de bc 00 00 	lea    0xbcde(%rip),%rax        # 18024 <g_2>
    c346:	48 89 85 f0 fe ff ff 	mov    %rax,-0x110(%rbp)
    c34d:	48 8d 05 dc bc 00 00 	lea    0xbcdc(%rip),%rax        # 18030 <g_9>
    c354:	48 89 85 f8 fe ff ff 	mov    %rax,-0x108(%rbp)
    c35b:	48 8d 05 c2 bc 00 00 	lea    0xbcc2(%rip),%rax        # 18024 <g_2>
    c362:	48 89 85 00 ff ff ff 	mov    %rax,-0x100(%rbp)
    c369:	48 8d 05 c0 bc 00 00 	lea    0xbcc0(%rip),%rax        # 18030 <g_9>
    c370:	48 89 85 08 ff ff ff 	mov    %rax,-0xf8(%rbp)
    c377:	83 85 d4 fd ff ff 01 	addl   $0x1,-0x22c(%rbp)
    c37e:	48 83 bd 68 fe ff ff 	cmpq   $0x0,-0x198(%rbp)
    c385:	00 
    c386:	0f 95 c0             	setne  %al
    c389:	0f b6 d0             	movzbl %al,%edx
    c38c:	8b 05 b2 bc 00 00    	mov    0xbcb2(%rip),%eax        # 18044 <g_26+0x4>
    c392:	0f b7 c0             	movzwl %ax,%eax
    c395:	89 d6                	mov    %edx,%esi
    c397:	89 c7                	mov    %eax,%edi
    c399:	e8 61 c9 ff ff       	callq  8cff <safe_add_func_uint16_t_u_u>
    c39e:	48 8b 95 68 fe ff ff 	mov    -0x198(%rbp),%rdx
    c3a5:	8b 12                	mov    (%rdx),%edx
    c3a7:	0f b7 c0             	movzwl %ax,%eax
    c3aa:	31 c2                	xor    %eax,%edx
    c3ac:	48 8b 85 68 fe ff ff 	mov    -0x198(%rbp),%rax
    c3b3:	89 10                	mov    %edx,(%rax)
    c3b5:	0f b7 85 b0 fd ff ff 	movzwl -0x250(%rbp),%eax
    c3bc:	0f b6 c0             	movzbl %al,%eax
    c3bf:	be 01 00 00 00       	mov    $0x1,%esi
    c3c4:	89 c7                	mov    %eax,%edi
    c3c6:	e8 8f c7 ff ff       	callq  8b5a <safe_add_func_uint8_t_u_u>
    c3cb:	0f b6 c0             	movzbl %al,%eax
    c3ce:	66 89 85 b0 fd ff ff 	mov    %ax,-0x250(%rbp)
    c3d5:	0f b7 85 b0 fd ff ff 	movzwl -0x250(%rbp),%eax
    c3dc:	66 83 f8 39          	cmp    $0x39,%ax
    c3e0:	0f 87 13 ff ff ff    	ja     c2f9 <func_64+0xaa>
    c3e6:	48 c7 85 98 fd ff ff 	movq   $0x0,-0x268(%rbp)
    c3ed:	00 00 00 00 
    c3f1:	e9 89 07 00 00       	jmpq   cb7f <func_64+0x930>
    c3f6:	c7 85 d0 fd ff ff 5a 	movl   $0x8c104d5a,-0x230(%rbp)
    c3fd:	4d 10 8c 
    c400:	c7 85 e0 fd ff ff 01 	movl   $0x1,-0x220(%rbp)
    c407:	00 00 00 
    c40a:	48 8d 05 f7 bc 00 00 	lea    0xbcf7(%rip),%rax        # 18108 <g_77>
    c411:	48 89 85 a0 fe ff ff 	mov    %rax,-0x160(%rbp)
    c418:	48 8d 05 e9 bc 00 00 	lea    0xbce9(%rip),%rax        # 18108 <g_77>
    c41f:	48 89 85 a8 fe ff ff 	mov    %rax,-0x158(%rbp)
    c426:	48 8d 05 db bc 00 00 	lea    0xbcdb(%rip),%rax        # 18108 <g_77>
    c42d:	48 89 85 b0 fe ff ff 	mov    %rax,-0x150(%rbp)
    c434:	48 8d 05 cd bc 00 00 	lea    0xbccd(%rip),%rax        # 18108 <g_77>
    c43b:	48 89 85 b8 fe ff ff 	mov    %rax,-0x148(%rbp)
    c442:	48 8d 05 bf bc 00 00 	lea    0xbcbf(%rip),%rax        # 18108 <g_77>
    c449:	48 89 85 c0 fe ff ff 	mov    %rax,-0x140(%rbp)
    c450:	66 c7 85 b0 fd ff ff 	movw   $0xfff2,-0x250(%rbp)
    c457:	f2 ff 
    c459:	e9 08 07 00 00       	jmpq   cb66 <func_64+0x917>
    c45e:	66 c7 85 ca fd ff ff 	movw   $0x1,-0x236(%rbp)
    c465:	01 00 
    c467:	c7 85 e4 fd ff ff 15 	movl   $0x972ae315,-0x21c(%rbp)
    c46e:	e3 2a 97 
    c471:	c7 85 80 fe ff ff a3 	movl   $0x52a806a3,-0x180(%rbp)
    c478:	06 a8 52 
    c47b:	c7 85 84 fe ff ff a3 	movl   $0x52a806a3,-0x17c(%rbp)
    c482:	06 a8 52 
    c485:	c7 85 88 fe ff ff a3 	movl   $0x52a806a3,-0x178(%rbp)
    c48c:	06 a8 52 
    c48f:	c7 85 8c fe ff ff a3 	movl   $0x52a806a3,-0x174(%rbp)
    c496:	06 a8 52 
    c499:	c7 85 90 fe ff ff a3 	movl   $0x52a806a3,-0x170(%rbp)
    c4a0:	06 a8 52 
    c4a3:	c7 85 94 fe ff ff a3 	movl   $0x52a806a3,-0x16c(%rbp)
    c4aa:	06 a8 52 
    c4ad:	c7 85 98 fe ff ff a3 	movl   $0x52a806a3,-0x168(%rbp)
    c4b4:	06 a8 52 
    c4b7:	48 c7 85 08 fe ff ff 	movq   $0x0,-0x1f8(%rbp)
    c4be:	00 00 00 00 
    c4c2:	48 8d 85 c8 fd ff ff 	lea    -0x238(%rbp),%rax
    c4c9:	48 89 85 d0 fe ff ff 	mov    %rax,-0x130(%rbp)
    c4d0:	48 8d 85 c8 fd ff ff 	lea    -0x238(%rbp),%rax
    c4d7:	48 89 85 d8 fe ff ff 	mov    %rax,-0x128(%rbp)
    c4de:	48 8d 85 c8 fd ff ff 	lea    -0x238(%rbp),%rax
    c4e5:	48 89 85 e0 fe ff ff 	mov    %rax,-0x120(%rbp)
    c4ec:	48 8d 85 c8 fd ff ff 	lea    -0x238(%rbp),%rax
    c4f3:	48 89 85 e8 fe ff ff 	mov    %rax,-0x118(%rbp)
    c4fa:	48 8d 85 c8 fd ff ff 	lea    -0x238(%rbp),%rax
    c501:	48 89 85 f0 fe ff ff 	mov    %rax,-0x110(%rbp)
    c508:	48 8d 85 c8 fd ff ff 	lea    -0x238(%rbp),%rax
    c50f:	48 89 85 f8 fe ff ff 	mov    %rax,-0x108(%rbp)
    c516:	48 8d 85 c8 fd ff ff 	lea    -0x238(%rbp),%rax
    c51d:	48 89 85 00 ff ff ff 	mov    %rax,-0x100(%rbp)
    c524:	48 8d 85 c8 fd ff ff 	lea    -0x238(%rbp),%rax
    c52b:	48 89 85 08 ff ff ff 	mov    %rax,-0xf8(%rbp)
    c532:	48 8d 85 c8 fd ff ff 	lea    -0x238(%rbp),%rax
    c539:	48 89 85 10 ff ff ff 	mov    %rax,-0xf0(%rbp)
    c540:	48 8d 85 c8 fd ff ff 	lea    -0x238(%rbp),%rax
    c547:	48 89 85 18 ff ff ff 	mov    %rax,-0xe8(%rbp)
    c54e:	48 8d 85 c8 fd ff ff 	lea    -0x238(%rbp),%rax
    c555:	48 89 85 20 ff ff ff 	mov    %rax,-0xe0(%rbp)
    c55c:	48 8d 85 c8 fd ff ff 	lea    -0x238(%rbp),%rax
    c563:	48 89 85 28 ff ff ff 	mov    %rax,-0xd8(%rbp)
    c56a:	48 8d 85 c8 fd ff ff 	lea    -0x238(%rbp),%rax
    c571:	48 89 85 30 ff ff ff 	mov    %rax,-0xd0(%rbp)
    c578:	48 8d 85 c8 fd ff ff 	lea    -0x238(%rbp),%rax
    c57f:	48 89 85 38 ff ff ff 	mov    %rax,-0xc8(%rbp)
    c586:	48 8d 85 c8 fd ff ff 	lea    -0x238(%rbp),%rax
    c58d:	48 89 85 40 ff ff ff 	mov    %rax,-0xc0(%rbp)
    c594:	48 8d 85 c8 fd ff ff 	lea    -0x238(%rbp),%rax
    c59b:	48 89 85 48 ff ff ff 	mov    %rax,-0xb8(%rbp)
    c5a2:	48 8d 85 c8 fd ff ff 	lea    -0x238(%rbp),%rax
    c5a9:	48 89 85 50 ff ff ff 	mov    %rax,-0xb0(%rbp)
    c5b0:	48 8d 85 c8 fd ff ff 	lea    -0x238(%rbp),%rax
    c5b7:	48 89 85 58 ff ff ff 	mov    %rax,-0xa8(%rbp)
    c5be:	48 8d 85 c8 fd ff ff 	lea    -0x238(%rbp),%rax
    c5c5:	48 89 85 60 ff ff ff 	mov    %rax,-0xa0(%rbp)
    c5cc:	48 8d 85 c8 fd ff ff 	lea    -0x238(%rbp),%rax
    c5d3:	48 89 85 68 ff ff ff 	mov    %rax,-0x98(%rbp)
    c5da:	48 8d 85 c8 fd ff ff 	lea    -0x238(%rbp),%rax
    c5e1:	48 89 85 70 ff ff ff 	mov    %rax,-0x90(%rbp)
    c5e8:	48 8d 85 c8 fd ff ff 	lea    -0x238(%rbp),%rax
    c5ef:	48 89 85 78 ff ff ff 	mov    %rax,-0x88(%rbp)
    c5f6:	48 8d 85 c8 fd ff ff 	lea    -0x238(%rbp),%rax
    c5fd:	48 89 45 80          	mov    %rax,-0x80(%rbp)
    c601:	48 8d 85 c8 fd ff ff 	lea    -0x238(%rbp),%rax
    c608:	48 89 45 88          	mov    %rax,-0x78(%rbp)
    c60c:	48 8d 85 c8 fd ff ff 	lea    -0x238(%rbp),%rax
    c613:	48 89 45 90          	mov    %rax,-0x70(%rbp)
    c617:	48 8d 85 c8 fd ff ff 	lea    -0x238(%rbp),%rax
    c61e:	48 89 45 98          	mov    %rax,-0x68(%rbp)
    c622:	48 8d 85 c8 fd ff ff 	lea    -0x238(%rbp),%rax
    c629:	48 89 45 a0          	mov    %rax,-0x60(%rbp)
    c62d:	48 8d 85 c8 fd ff ff 	lea    -0x238(%rbp),%rax
    c634:	48 89 45 a8          	mov    %rax,-0x58(%rbp)
    c638:	48 8d 85 c8 fd ff ff 	lea    -0x238(%rbp),%rax
    c63f:	48 89 45 b0          	mov    %rax,-0x50(%rbp)
    c643:	48 8d 85 c8 fd ff ff 	lea    -0x238(%rbp),%rax
    c64a:	48 89 45 b8          	mov    %rax,-0x48(%rbp)
    c64e:	c7 05 b0 ba 00 00 00 	movl   $0x0,0xbab0(%rip)        # 18108 <g_77>
    c655:	00 00 00 
    c658:	90                   	nop
    c659:	8b 05 a9 ba 00 00    	mov    0xbaa9(%rip),%eax        # 18108 <g_77>
    c65f:	83 f8 ee             	cmp    $0xffffffee,%eax
    c662:	0f 84 83 03 00 00    	je     c9eb <func_64+0x79c>
    c668:	48 8d 85 cc fd ff ff 	lea    -0x234(%rbp),%rax
    c66f:	48 89 85 10 fe ff ff 	mov    %rax,-0x1f0(%rbp)
    c676:	48 8d 85 cc fd ff ff 	lea    -0x234(%rbp),%rax
    c67d:	48 89 85 18 fe ff ff 	mov    %rax,-0x1e8(%rbp)
    c684:	48 8d 85 cc fd ff ff 	lea    -0x234(%rbp),%rax
    c68b:	48 89 85 20 fe ff ff 	mov    %rax,-0x1e0(%rbp)
    c692:	48 8d 85 cc fd ff ff 	lea    -0x234(%rbp),%rax
    c699:	48 89 85 28 fe ff ff 	mov    %rax,-0x1d8(%rbp)
    c6a0:	48 8d 85 cc fd ff ff 	lea    -0x234(%rbp),%rax
    c6a7:	48 89 85 30 fe ff ff 	mov    %rax,-0x1d0(%rbp)
    c6ae:	48 8d 85 cc fd ff ff 	lea    -0x234(%rbp),%rax
    c6b5:	48 89 85 38 fe ff ff 	mov    %rax,-0x1c8(%rbp)
    c6bc:	48 8d 85 cc fd ff ff 	lea    -0x234(%rbp),%rax
    c6c3:	48 89 85 40 fe ff ff 	mov    %rax,-0x1c0(%rbp)
    c6ca:	48 8d 85 cc fd ff ff 	lea    -0x234(%rbp),%rax
    c6d1:	48 89 85 48 fe ff ff 	mov    %rax,-0x1b8(%rbp)
    c6d8:	48 c7 85 50 fe ff ff 	movq   $0x0,-0x1b0(%rbp)
    c6df:	00 00 00 00 
    c6e3:	c7 85 d8 fd ff ff 00 	movl   $0x0,-0x228(%rbp)
    c6ea:	00 00 00 
    c6ed:	eb 1e                	jmp    c70d <func_64+0x4be>
    c6ef:	8b 85 d8 fd ff ff    	mov    -0x228(%rbp),%eax
    c6f5:	48 98                	cltq   
    c6f7:	48 8d 95 cc fd ff ff 	lea    -0x234(%rbp),%rdx
    c6fe:	48 89 94 c5 70 fe ff 	mov    %rdx,-0x190(%rbp,%rax,8)
    c705:	ff 
    c706:	83 85 d8 fd ff ff 01 	addl   $0x1,-0x228(%rbp)
    c70d:	83 bd d8 fd ff ff 01 	cmpl   $0x1,-0x228(%rbp)
    c714:	7e d9                	jle    c6ef <func_64+0x4a0>
    c716:	8b 85 d0 fd ff ff    	mov    -0x230(%rbp),%eax
    c71c:	83 c0 01             	add    $0x1,%eax
    c71f:	89 85 d0 fd ff ff    	mov    %eax,-0x230(%rbp)
    c725:	66 83 bd ca fd ff ff 	cmpw   $0x0,-0x236(%rbp)
    c72c:	00 
    c72d:	74 3c                	je     c76b <func_64+0x51c>
    c72f:	8b 05 a3 b9 00 00    	mov    0xb9a3(%rip),%eax        # 180d8 <g_49+0x78>
    c735:	89 c6                	mov    %eax,%esi
    c737:	bf a9 a6 19 ee       	mov    $0xee19a6a9,%edi
    c73c:	e8 8f c7 ff ff       	callq  8ed0 <safe_sub_func_uint32_t_u_u>
    c741:	0f bf d0             	movswl %ax,%edx
    c744:	8b 85 b4 fd ff ff    	mov    -0x24c(%rbp),%eax
    c74a:	c1 e0 0f             	shl    $0xf,%eax
    c74d:	c1 f8 0f             	sar    $0xf,%eax
    c750:	98                   	cwtl   
    c751:	89 d6                	mov    %edx,%esi
    c753:	89 c7                	mov    %eax,%edi
    c755:	e8 9b bc ff ff       	callq  83f5 <safe_mul_func_int16_t_s_s>
    c75a:	0f be c0             	movsbl %al,%eax
    c75d:	be 02 00 00 00       	mov    $0x2,%esi
    c762:	89 c7                	mov    %eax,%edi
    c764:	e8 cc bb ff ff       	callq  8335 <safe_rshift_func_int8_t_s_s>
    c769:	84 c0                	test   %al,%al
    c76b:	48 8b 85 40 fe ff ff 	mov    -0x1c0(%rbp),%rax
    c772:	48 3b 85 10 fe ff ff 	cmp    -0x1f0(%rbp),%rax
    c779:	0f 84 1f 02 00 00    	je     c99e <func_64+0x74f>
    c77f:	48 8d 05 7a b9 00 00 	lea    0xb97a(%rip),%rax        # 18100 <g_73>
    c786:	48 89 85 58 fe ff ff 	mov    %rax,-0x1a8(%rbp)
    c78d:	c7 85 e8 fd ff ff f8 	movl   $0x77a2fdf8,-0x218(%rbp)
    c794:	fd a2 77 
    c797:	c7 85 ec fd ff ff 0e 	movl   $0xf612420e,-0x214(%rbp)
    c79e:	42 12 f6 
    c7a1:	48 8d 85 d0 fd ff ff 	lea    -0x230(%rbp),%rax
    c7a8:	48 89 85 60 fe ff ff 	mov    %rax,-0x1a0(%rbp)
    c7af:	0f b7 85 ca fd ff ff 	movzwl -0x236(%rbp),%eax
    c7b6:	48 8b 95 58 fe ff ff 	mov    -0x1a8(%rbp),%rdx
    c7bd:	48 b9 3e 68 a5 a4 8b 	movabs $0x1c119c8ba4a5683e,%rcx
    c7c4:	9c 11 1c 
    c7c7:	48 89 0a             	mov    %rcx,(%rdx)
    c7ca:	89 c6                	mov    %eax,%esi
    c7cc:	bf 00 00 00 00       	mov    $0x0,%edi
    c7d1:	e8 2f be ff ff       	callq  8605 <safe_sub_func_int32_t_s_s>
    c7d6:	89 c2                	mov    %eax,%edx
    c7d8:	8b 85 b4 fd ff ff    	mov    -0x24c(%rbp),%eax
    c7de:	c1 e0 0f             	shl    $0xf,%eax
    c7e1:	c1 f8 0f             	sar    $0xf,%eax
    c7e4:	83 f8 f6             	cmp    $0xfffffff6,%eax
    c7e7:	0f 9d c0             	setge  %al
    c7ea:	0f b6 c0             	movzbl %al,%eax
    c7ed:	31 c2                	xor    %eax,%edx
    c7ef:	48 8b 85 40 fe ff ff 	mov    -0x1c0(%rbp),%rax
    c7f6:	8b 00                	mov    (%rax),%eax
    c7f8:	21 c2                	and    %eax,%edx
    c7fa:	48 8b 85 40 fe ff ff 	mov    -0x1c0(%rbp),%rax
    c801:	89 10                	mov    %edx,(%rax)
    c803:	0f b7 05 18 b9 00 00 	movzwl 0xb918(%rip),%eax        # 18122 <g_122>
    c80a:	83 c0 01             	add    $0x1,%eax
    c80d:	66 89 05 0e b9 00 00 	mov    %ax,0xb90e(%rip)        # 18122 <g_122>
    c814:	8b 05 2a b8 00 00    	mov    0xb82a(%rip),%eax        # 18044 <g_26+0x4>
    c81a:	21 85 dc fd ff ff    	and    %eax,-0x224(%rbp)
    c820:	8b 85 dc fd ff ff    	mov    -0x224(%rbp),%eax
    c826:	89 c2                	mov    %eax,%edx
    c828:	0f b7 05 f7 b8 00 00 	movzwl 0xb8f7(%rip),%eax        # 18126 <g_132>
    c82f:	09 d0                	or     %edx,%eax
    c831:	66 89 05 ee b8 00 00 	mov    %ax,0xb8ee(%rip)        # 18126 <g_132>
    c838:	0f b7 05 e7 b8 00 00 	movzwl 0xb8e7(%rip),%eax        # 18126 <g_132>
    c83f:	0f b7 c0             	movzwl %ax,%eax
    c842:	c1 e0 0b             	shl    $0xb,%eax
    c845:	c1 f8 0b             	sar    $0xb,%eax
    c848:	25 ff ff 1f 00       	and    $0x1fffff,%eax
    c84d:	89 c2                	mov    %eax,%edx
    c84f:	8b 85 b8 fd ff ff    	mov    -0x248(%rbp),%eax
    c855:	25 00 00 e0 ff       	and    $0xffe00000,%eax
    c85a:	09 d0                	or     %edx,%eax
    c85c:	89 85 b8 fd ff ff    	mov    %eax,-0x248(%rbp)
    c862:	8b 85 b8 fd ff ff    	mov    -0x248(%rbp),%eax
    c868:	c1 e0 0b             	shl    $0xb,%eax
    c86b:	c1 f8 0b             	sar    $0xb,%eax
    c86e:	89 c2                	mov    %eax,%edx
    c870:	8b 85 e8 fd ff ff    	mov    -0x218(%rbp),%eax
    c876:	89 c6                	mov    %eax,%esi
    c878:	89 d7                	mov    %edx,%edi
    c87a:	e8 4d be ff ff       	callq  86cc <safe_mod_func_int32_t_s_s>
    c87f:	41 89 c6             	mov    %eax,%r14d
    c882:	48 8b 85 10 fe ff ff 	mov    -0x1f0(%rbp),%rax
    c889:	44 8b 20             	mov    (%rax),%r12d
    c88c:	0f b6 85 b6 fd ff ff 	movzbl -0x24a(%rbp),%eax
    c893:	d0 e8                	shr    %al
    c895:	83 e0 07             	and    $0x7,%eax
    c898:	44 0f b6 e8          	movzbl %al,%r13d
    c89c:	48 83 bd 98 fd ff ff 	cmpq   $0x0,-0x268(%rbp)
    c8a3:	00 
    c8a4:	75 0f                	jne    c8b5 <func_64+0x666>
    c8a6:	8b 05 28 b8 00 00    	mov    0xb828(%rip),%eax        # 180d4 <g_49+0x74>
    c8ac:	25 00 f8 01 00       	and    $0x1f800,%eax
    c8b1:	85 c0                	test   %eax,%eax
    c8b3:	74 07                	je     c8bc <func_64+0x66d>
    c8b5:	b8 01 00 00 00       	mov    $0x1,%eax
    c8ba:	eb 05                	jmp    c8c1 <func_64+0x672>
    c8bc:	b8 00 00 00 00       	mov    $0x0,%eax
    c8c1:	41 89 c7             	mov    %eax,%r15d
    c8c4:	48 8b 85 60 fe ff ff 	mov    -0x1a0(%rbp),%rax
    c8cb:	8b 18                	mov    (%rax),%ebx
    c8cd:	8d 53 ff             	lea    -0x1(%rbx),%edx
    c8d0:	48 8b 85 60 fe ff ff 	mov    -0x1a0(%rbp),%rax
    c8d7:	89 10                	mov    %edx,(%rax)
    c8d9:	be 0d 00 00 00       	mov    $0xd,%esi
    c8de:	bf 00 00 00 00       	mov    $0x0,%edi
    c8e3:	e8 42 bc ff ff       	callq  852a <safe_rshift_func_int16_t_s_s>
    c8e8:	98                   	cwtl   
    c8e9:	39 c3                	cmp    %eax,%ebx
    c8eb:	0f 92 c0             	setb   %al
    c8ee:	0f b6 c0             	movzbl %al,%eax
    c8f1:	44 89 fe             	mov    %r15d,%esi
    c8f4:	89 c7                	mov    %eax,%edi
    c8f6:	e8 7f c5 ff ff       	callq  8e7a <safe_rshift_func_uint16_t_u_u>
    c8fb:	0f b7 d0             	movzwl %ax,%edx
    c8fe:	b8 05 00 00 00       	mov    $0x5,%eax
    c903:	0f b6 c0             	movzbl %al,%eax
    c906:	31 d0                	xor    %edx,%eax
    c908:	f7 d0                	not    %eax
    c90a:	89 c2                	mov    %eax,%edx
    c90c:	8b 85 b4 fd ff ff    	mov    -0x24c(%rbp),%eax
    c912:	c1 e0 0f             	shl    $0xf,%eax
    c915:	c1 f8 0f             	sar    $0xf,%eax
    c918:	21 c2                	and    %eax,%edx
    c91a:	8b 05 14 b7 00 00    	mov    0xb714(%rip),%eax        # 18034 <g_12>
    c920:	89 d6                	mov    %edx,%esi
    c922:	89 c7                	mov    %eax,%edi
    c924:	e8 8d bc ff ff       	callq  85b6 <safe_add_func_int32_t_s_s>
    c929:	0f be c0             	movsbl %al,%eax
    c92c:	44 89 ee             	mov    %r13d,%esi
    c92f:	89 c7                	mov    %eax,%edi
    c931:	e8 bc b8 ff ff       	callq  81f2 <safe_sub_func_int8_t_s_s>
    c936:	8b 85 e8 fd ff ff    	mov    -0x218(%rbp),%eax
    c93c:	44 89 e6             	mov    %r12d,%esi
    c93f:	89 c7                	mov    %eax,%edi
    c941:	e8 86 bd ff ff       	callq  86cc <safe_mod_func_int32_t_s_s>
    c946:	89 c6                	mov    %eax,%esi
    c948:	bf 02 00 00 00       	mov    $0x2,%edi
    c94d:	e8 4f b9 ff ff       	callq  82a1 <safe_lshift_func_int8_t_s_s>
    c952:	0f be c0             	movsbl %al,%eax
    c955:	41 39 c6             	cmp    %eax,%r14d
    c958:	0f 9d c0             	setge  %al
    c95b:	0f b6 d0             	movzbl %al,%edx
    c95e:	8b 0d c8 b6 00 00    	mov    0xb6c8(%rip),%ecx        # 1802c <g_6>
    c964:	8b 85 cc fd ff ff    	mov    -0x234(%rbp),%eax
    c96a:	39 c1                	cmp    %eax,%ecx
    c96c:	0f 9d c0             	setge  %al
    c96f:	0f b6 c0             	movzbl %al,%eax
    c972:	48 89 d6             	mov    %rdx,%rsi
    c975:	48 89 c7             	mov    %rax,%rdi
    c978:	e8 b1 c6 ff ff       	callq  902e <safe_add_func_uint64_t_u_u>
    c97d:	b8 00 00 00 00       	mov    $0x0,%eax
    c982:	be 02 00 00 00       	mov    $0x2,%esi
    c987:	89 c7                	mov    %eax,%edi
    c989:	e8 42 c5 ff ff       	callq  8ed0 <safe_sub_func_uint32_t_u_u>
    c98e:	8b 95 e4 fd ff ff    	mov    -0x21c(%rbp),%edx
    c994:	09 d0                	or     %edx,%eax
    c996:	89 85 e4 fd ff ff    	mov    %eax,-0x21c(%rbp)
    c99c:	eb 3e                	jmp    c9dc <func_64+0x78d>
    c99e:	48 c7 05 57 b7 00 00 	movq   $0x0,0xb757(%rip)        # 18100 <g_73>
    c9a5:	00 00 00 00 
    c9a9:	eb 24                	jmp    c9cf <func_64+0x780>
    c9ab:	48 8b 05 4e b7 00 00 	mov    0xb74e(%rip),%rax        # 18100 <g_73>
    c9b2:	c7 84 85 80 fe ff ff 	movl   $0xffffffff,-0x180(%rbp,%rax,4)
    c9b9:	ff ff ff ff 
    c9bd:	48 8b 05 3c b7 00 00 	mov    0xb73c(%rip),%rax        # 18100 <g_73>
    c9c4:	48 83 c0 01          	add    $0x1,%rax
    c9c8:	48 89 05 31 b7 00 00 	mov    %rax,0xb731(%rip)        # 18100 <g_73>
    c9cf:	48 8b 05 2a b7 00 00 	mov    0xb72a(%rip),%rax        # 18100 <g_73>
    c9d6:	48 83 f8 06          	cmp    $0x6,%rax
    c9da:	76 cf                	jbe    c9ab <func_64+0x75c>
    c9dc:	48 8b 85 a0 fd ff ff 	mov    -0x260(%rbp),%rax
    c9e3:	48 8b 00             	mov    (%rax),%rax
    c9e6:	e9 db 01 00 00       	jmpq   cbc6 <func_64+0x977>
    c9eb:	8b 05 e3 b6 00 00    	mov    0xb6e3(%rip),%eax        # 180d4 <g_49+0x74>
    c9f1:	c1 e8 0b             	shr    $0xb,%eax
    c9f4:	83 e0 3f             	and    $0x3f,%eax
    c9f7:	0f b6 d8             	movzbl %al,%ebx
    c9fa:	0f b6 85 b6 fd ff ff 	movzbl -0x24a(%rbp),%eax
    ca01:	d0 e8                	shr    %al
    ca03:	83 e0 07             	and    $0x7,%eax
    ca06:	44 0f b6 e0          	movzbl %al,%r12d
    ca0a:	48 8d 05 ef b6 00 00 	lea    0xb6ef(%rip),%rax        # 18100 <g_73>
    ca11:	48 39 85 f0 fd ff ff 	cmp    %rax,-0x210(%rbp)
    ca18:	0f 95 c0             	setne  %al
    ca1b:	0f b6 d0             	movzbl %al,%edx
    ca1e:	b8 05 00 00 00       	mov    $0x5,%eax
    ca23:	0f b6 c0             	movzbl %al,%eax
    ca26:	21 d0                	and    %edx,%eax
    ca28:	0f b7 c0             	movzwl %ax,%eax
    ca2b:	be 0c 00 00 00       	mov    $0xc,%esi
    ca30:	89 c7                	mov    %eax,%edi
    ca32:	e8 43 c4 ff ff       	callq  8e7a <safe_rshift_func_uint16_t_u_u>
    ca37:	44 0f b7 e8          	movzwl %ax,%r13d
    ca3b:	c7 85 e0 fd ff ff ae 	movl   $0x17ae,-0x220(%rbp)
    ca42:	17 00 00 
    ca45:	be ae 17 00 00       	mov    $0x17ae,%esi
    ca4a:	bf 43 e9 ff ff       	mov    $0xffffe943,%edi
    ca4f:	e8 a1 b9 ff ff       	callq  83f5 <safe_mul_func_int16_t_s_s>
    ca54:	48 8b 85 c0 fe ff ff 	mov    -0x140(%rbp),%rax
    ca5b:	48 8d 15 a6 b6 00 00 	lea    0xb6a6(%rip),%rdx        # 18108 <g_77>
    ca62:	48 39 d0             	cmp    %rdx,%rax
    ca65:	0f 95 c0             	setne  %al
    ca68:	0f b6 c0             	movzbl %al,%eax
    ca6b:	44 89 ee             	mov    %r13d,%esi
    ca6e:	89 c7                	mov    %eax,%edi
    ca70:	e8 49 c2 ff ff       	callq  8cbe <safe_rshift_func_uint8_t_u_u>
    ca75:	0f b6 c0             	movzbl %al,%eax
    ca78:	21 85 e4 fd ff ff    	and    %eax,-0x21c(%rbp)
    ca7e:	8b 85 e4 fd ff ff    	mov    -0x21c(%rbp),%eax
    ca84:	89 85 cc fd ff ff    	mov    %eax,-0x234(%rbp)
    ca8a:	8b 85 cc fd ff ff    	mov    -0x234(%rbp),%eax
    ca90:	98                   	cwtl   
    ca91:	44 89 e6             	mov    %r12d,%esi
    ca94:	89 c7                	mov    %eax,%edi
    ca96:	e8 8f ba ff ff       	callq  852a <safe_rshift_func_int16_t_s_s>
    ca9b:	0f b7 c0             	movzwl %ax,%eax
    ca9e:	be 07 00 00 00       	mov    $0x7,%esi
    caa3:	89 c7                	mov    %eax,%edi
    caa5:	e8 9e c3 ff ff       	callq  8e48 <safe_rshift_func_uint16_t_u_s>
    caaa:	44 0f b7 e0          	movzwl %ax,%r12d
    caae:	8b 05 80 b5 00 00    	mov    0xb580(%rip),%eax        # 18034 <g_12>
    cab4:	48 8b 15 0d b6 00 00 	mov    0xb60d(%rip),%rdx        # 180c8 <g_49+0x68>
    cabb:	89 c6                	mov    %eax,%esi
    cabd:	89 d7                	mov    %edx,%edi
    cabf:	e8 3b bc ff ff       	callq  86ff <safe_div_func_int32_t_s_s>
    cac4:	98                   	cwtl   
    cac5:	44 89 e6             	mov    %r12d,%esi
    cac8:	89 c7                	mov    %eax,%edi
    caca:	e8 94 ba ff ff       	callq  8563 <safe_rshift_func_int16_t_s_u>
    cacf:	98                   	cwtl   
    cad0:	39 85 dc fd ff ff    	cmp    %eax,-0x224(%rbp)
    cad6:	0f 9e c0             	setle  %al
    cad9:	0f b6 d0             	movzbl %al,%edx
    cadc:	0f b6 85 b6 fd ff ff 	movzbl -0x24a(%rbp),%eax
    cae3:	d0 e8                	shr    %al
    cae5:	83 e0 07             	and    $0x7,%eax
    cae8:	0f b6 c0             	movzbl %al,%eax
    caeb:	39 c2                	cmp    %eax,%edx
    caed:	0f 9f c0             	setg   %al
    caf0:	0f b6 c0             	movzbl %al,%eax
    caf3:	be 07 00 00 00       	mov    $0x7,%esi
    caf8:	89 c7                	mov    %eax,%edi
    cafa:	e8 4d c1 ff ff       	callq  8c4c <safe_lshift_func_uint8_t_u_u>
    caff:	84 c0                	test   %al,%al
    cb01:	75 10                	jne    cb13 <func_64+0x8c4>
    cb03:	0f b7 05 4a 65 00 00 	movzwl 0x654a(%rip),%eax        # 13054 <g_21>
    cb0a:	66 25 ff 07          	and    $0x7ff,%ax
    cb0e:	66 85 c0             	test   %ax,%ax
    cb11:	74 07                	je     cb1a <func_64+0x8cb>
    cb13:	b8 01 00 00 00       	mov    $0x1,%eax
    cb18:	eb 05                	jmp    cb1f <func_64+0x8d0>
    cb1a:	b8 00 00 00 00       	mov    $0x0,%eax
    cb1f:	0f b6 c0             	movzbl %al,%eax
    cb22:	89 de                	mov    %ebx,%esi
    cb24:	89 c7                	mov    %eax,%edi
    cb26:	e8 4d c0 ff ff       	callq  8b78 <safe_sub_func_uint8_t_u_u>
    cb2b:	84 c0                	test   %al,%al
    cb2d:	74 13                	je     cb42 <func_64+0x8f3>
    cb2f:	0f b7 05 9c b5 00 00 	movzwl 0xb59c(%rip),%eax        # 180d2 <g_49+0x72>
    cb36:	66 85 c0             	test   %ax,%ax
    cb39:	74 07                	je     cb42 <func_64+0x8f3>
    cb3b:	ba 01 00 00 00       	mov    $0x1,%edx
    cb40:	eb 05                	jmp    cb47 <func_64+0x8f8>
    cb42:	ba 00 00 00 00       	mov    $0x0,%edx
    cb47:	8b 05 bb b5 00 00    	mov    0xb5bb(%rip),%eax        # 18108 <g_77>
    cb4d:	21 d0                	and    %edx,%eax
    cb4f:	89 05 b3 b5 00 00    	mov    %eax,0xb5b3(%rip)        # 18108 <g_77>
    cb55:	0f b7 85 b0 fd ff ff 	movzwl -0x250(%rbp),%eax
    cb5c:	83 c0 01             	add    $0x1,%eax
    cb5f:	66 89 85 b0 fd ff ff 	mov    %ax,-0x250(%rbp)
    cb66:	0f b7 85 b0 fd ff ff 	movzwl -0x250(%rbp),%eax
    cb6d:	66 83 f8 19          	cmp    $0x19,%ax
    cb71:	0f 85 e7 f8 ff ff    	jne    c45e <func_64+0x20f>
    cb77:	48 83 ad 98 fd ff ff 	subq   $0x1,-0x268(%rbp)
    cb7e:	01 
    cb7f:	48 83 bd 98 fd ff ff 	cmpq   $0xffffffffffffffe3,-0x268(%rbp)
    cb86:	e3 
    cb87:	0f 85 69 f8 ff ff    	jne    c3f6 <func_64+0x1a7>
    cb8d:	48 8b 85 f8 fd ff ff 	mov    -0x208(%rbp),%rax
    cb94:	8b 00                	mov    (%rax),%eax
    cb96:	8b 15 90 b5 00 00    	mov    0xb590(%rip),%edx        # 1812c <g_173+0x4>
    cb9c:	81 e2 ff ff 3f 00    	and    $0x3fffff,%edx
    cba2:	31 c2                	xor    %eax,%edx
    cba4:	48 8b 85 f8 fd ff ff 	mov    -0x208(%rbp),%rax
    cbab:	89 10                	mov    %edx,(%rax)
    cbad:	48 8b 05 14 2c 01 00 	mov    0x12c14(%rip),%rax        # 1f7c8 <g_175>
    cbb4:	48 8b 95 f8 fd ff ff 	mov    -0x208(%rbp),%rdx
    cbbb:	8b 12                	mov    (%rdx),%edx
    cbbd:	89 10                	mov    %edx,(%rax)
    cbbf:	48 8b 85 00 fe ff ff 	mov    -0x200(%rbp),%rax
    cbc6:	48 8b 4d c8          	mov    -0x38(%rbp),%rcx
    cbca:	64 48 33 0c 25 28 00 	xor    %fs:0x28,%rcx
    cbd1:	00 00 
    cbd3:	74 05                	je     cbda <func_64+0x98b>
    cbd5:	e8 96 b4 ff ff       	callq  8070 <__stack_chk_fail@plt>
    cbda:	48 81 c4 48 02 00 00 	add    $0x248,%rsp
    cbe1:	5b                   	pop    %rbx
    cbe2:	41 5c                	pop    %r12
    cbe4:	41 5d                	pop    %r13
    cbe6:	41 5e                	pop    %r14
    cbe8:	41 5f                	pop    %r15
    cbea:	5d                   	pop    %rbp
    cbeb:	c3                   	retq   

000000000000cbec <main>:
    cbec:	f3 0f 1e fa          	endbr64 
    cbf0:	55                   	push   %rbp
    cbf1:	48 89 e5             	mov    %rsp,%rbp
    cbf4:	48 83 ec 20          	sub    $0x20,%rsp
    cbf8:	89 7d ec             	mov    %edi,-0x14(%rbp)
    cbfb:	48 89 75 e0          	mov    %rsi,-0x20(%rbp)
    cbff:	c7 45 fc 00 00 00 00 	movl   $0x0,-0x4(%rbp)
    cc06:	83 7d ec 02          	cmpl   $0x2,-0x14(%rbp)
    cc0a:	74 25                	je     cc31 <main+0x45>
    cc0c:	48 8b 45 e0          	mov    -0x20(%rbp),%rax
    cc10:	48 83 c0 08          	add    $0x8,%rax
    cc14:	48 8b 00             	mov    (%rax),%rax
    cc17:	48 8d 35 66 6a 00 00 	lea    0x6a66(%rip),%rsi        # 13684 <g_1647+0x544>
    cc1e:	48 89 c7             	mov    %rax,%rdi
    cc21:	e8 6a b4 ff ff       	callq  8090 <strcmp@plt>
    cc26:	85 c0                	test   %eax,%eax
    cc28:	74 07                	je     cc31 <main+0x45>
    cc2a:	c7 45 fc 01 00 00 00 	movl   $0x1,-0x4(%rbp)
    cc31:	e8 53 b5 ff ff       	callq  8189 <platform_main_begin>
    cc36:	e8 5d c9 ff ff       	callq  9598 <crc32_gentab>
    cc3b:	e8 75 cb ff ff       	callq  97b5 <func_1>
    cc40:	8b 05 de b3 00 00    	mov    0xb3de(%rip),%eax        # 18024 <g_2>
    cc46:	48 98                	cltq   
    cc48:	8b 55 fc             	mov    -0x4(%rbp),%edx
    cc4b:	48 8d 35 34 6a 00 00 	lea    0x6a34(%rip),%rsi        # 13686 <g_1647+0x546>
    cc52:	48 89 c7             	mov    %rax,%rdi
    cc55:	e8 99 ca ff ff       	callq  96f3 <transparent_crc>
    cc5a:	8b 05 c8 b3 00 00    	mov    0xb3c8(%rip),%eax        # 18028 <g_5>
    cc60:	48 98                	cltq   
    cc62:	8b 55 fc             	mov    -0x4(%rbp),%edx
    cc65:	48 8d 35 1e 6a 00 00 	lea    0x6a1e(%rip),%rsi        # 1368a <g_1647+0x54a>
    cc6c:	48 89 c7             	mov    %rax,%rdi
    cc6f:	e8 7f ca ff ff       	callq  96f3 <transparent_crc>
    cc74:	8b 05 b2 b3 00 00    	mov    0xb3b2(%rip),%eax        # 1802c <g_6>
    cc7a:	48 98                	cltq   
    cc7c:	8b 55 fc             	mov    -0x4(%rbp),%edx
    cc7f:	48 8d 35 08 6a 00 00 	lea    0x6a08(%rip),%rsi        # 1368e <g_1647+0x54e>
    cc86:	48 89 c7             	mov    %rax,%rdi
    cc89:	e8 65 ca ff ff       	callq  96f3 <transparent_crc>
    cc8e:	8b 05 9c b3 00 00    	mov    0xb39c(%rip),%eax        # 18030 <g_9>
    cc94:	48 98                	cltq   
    cc96:	8b 55 fc             	mov    -0x4(%rbp),%edx
    cc99:	48 8d 35 f2 69 00 00 	lea    0x69f2(%rip),%rsi        # 13692 <g_1647+0x552>
    cca0:	48 89 c7             	mov    %rax,%rdi
    cca3:	e8 4b ca ff ff       	callq  96f3 <transparent_crc>
    cca8:	8b 05 86 b3 00 00    	mov    0xb386(%rip),%eax        # 18034 <g_12>
    ccae:	48 98                	cltq   
    ccb0:	8b 55 fc             	mov    -0x4(%rbp),%edx
    ccb3:	48 8d 35 dc 69 00 00 	lea    0x69dc(%rip),%rsi        # 13696 <g_1647+0x556>
    ccba:	48 89 c7             	mov    %rax,%rdi
    ccbd:	e8 31 ca ff ff       	callq  96f3 <transparent_crc>
    ccc2:	8b 05 70 b3 00 00    	mov    0xb370(%rip),%eax        # 18038 <g_13>
    ccc8:	48 98                	cltq   
    ccca:	8b 55 fc             	mov    -0x4(%rbp),%edx
    cccd:	48 8d 35 c7 69 00 00 	lea    0x69c7(%rip),%rsi        # 1369b <g_1647+0x55b>
    ccd4:	48 89 c7             	mov    %rax,%rdi
    ccd7:	e8 17 ca ff ff       	callq  96f3 <transparent_crc>
    ccdc:	8b 05 5a b3 00 00    	mov    0xb35a(%rip),%eax        # 1803c <g_14>
    cce2:	48 98                	cltq   
    cce4:	8b 55 fc             	mov    -0x4(%rbp),%edx
    cce7:	48 8d 35 b2 69 00 00 	lea    0x69b2(%rip),%rsi        # 136a0 <g_1647+0x560>
    ccee:	48 89 c7             	mov    %rax,%rdi
    ccf1:	e8 fd c9 ff ff       	callq  96f3 <transparent_crc>
    ccf6:	b8 fb ff ff ff       	mov    $0xfffffffb,%eax
    ccfb:	48 0f bf c0          	movswq %ax,%rax
    ccff:	8b 55 fc             	mov    -0x4(%rbp),%edx
    cd02:	48 8d 35 9c 69 00 00 	lea    0x699c(%rip),%rsi        # 136a5 <g_1647+0x565>
    cd09:	48 89 c7             	mov    %rax,%rdi
    cd0c:	e8 e2 c9 ff ff       	callq  96f3 <transparent_crc>
    cd11:	b8 05 00 00 00       	mov    $0x5,%eax
    cd16:	0f b6 c0             	movzbl %al,%eax
    cd19:	8b 55 fc             	mov    -0x4(%rbp),%edx
    cd1c:	48 8d 35 8a 69 00 00 	lea    0x698a(%rip),%rsi        # 136ad <g_1647+0x56d>
    cd23:	48 89 c7             	mov    %rax,%rdi
    cd26:	e8 c8 c9 ff ff       	callq  96f3 <transparent_crc>
    cd2b:	c7 45 f0 00 00 00 00 	movl   $0x0,-0x10(%rbp)
    cd32:	eb 4b                	jmp    cd7f <main+0x193>
    cd34:	8b 45 f0             	mov    -0x10(%rbp),%eax
    cd37:	48 98                	cltq   
    cd39:	48 8d 14 85 00 00 00 	lea    0x0(,%rax,4),%rdx
    cd40:	00 
    cd41:	48 8d 05 f8 b2 00 00 	lea    0xb2f8(%rip),%rax        # 18040 <g_26>
    cd48:	8b 04 02             	mov    (%rdx,%rax,1),%eax
    cd4b:	48 98                	cltq   
    cd4d:	8b 55 fc             	mov    -0x4(%rbp),%edx
    cd50:	48 8d 35 5e 69 00 00 	lea    0x695e(%rip),%rsi        # 136b5 <g_1647+0x575>
    cd57:	48 89 c7             	mov    %rax,%rdi
    cd5a:	e8 94 c9 ff ff       	callq  96f3 <transparent_crc>
    cd5f:	83 7d fc 00          	cmpl   $0x0,-0x4(%rbp)
    cd63:	74 16                	je     cd7b <main+0x18f>
    cd65:	8b 45 f0             	mov    -0x10(%rbp),%eax
    cd68:	89 c6                	mov    %eax,%esi
    cd6a:	48 8d 3d 4c 69 00 00 	lea    0x694c(%rip),%rdi        # 136bd <g_1647+0x57d>
    cd71:	b8 00 00 00 00       	mov    $0x0,%eax
    cd76:	e8 05 b3 ff ff       	callq  8080 <printf@plt>
    cd7b:	83 45 f0 01          	addl   $0x1,-0x10(%rbp)
    cd7f:	83 7d f0 05          	cmpl   $0x5,-0x10(%rbp)
    cd83:	7e af                	jle    cd34 <main+0x148>
    cd85:	c7 45 f0 00 00 00 00 	movl   $0x0,-0x10(%rbp)
    cd8c:	e9 66 01 00 00       	jmpq   cef7 <main+0x30b>
    cd91:	8b 45 f0             	mov    -0x10(%rbp),%eax
    cd94:	48 98                	cltq   
    cd96:	48 c1 e0 05          	shl    $0x5,%rax
    cd9a:	48 89 c2             	mov    %rax,%rdx
    cd9d:	48 8d 05 bc b2 00 00 	lea    0xb2bc(%rip),%rax        # 18060 <g_49>
    cda4:	0f b6 04 02          	movzbl (%rdx,%rax,1),%eax
    cda8:	0f b6 c0             	movzbl %al,%eax
    cdab:	8b 55 fc             	mov    -0x4(%rbp),%edx
    cdae:	48 8d 35 16 69 00 00 	lea    0x6916(%rip),%rsi        # 136cb <g_1647+0x58b>
    cdb5:	48 89 c7             	mov    %rax,%rdi
    cdb8:	e8 36 c9 ff ff       	callq  96f3 <transparent_crc>
    cdbd:	8b 45 f0             	mov    -0x10(%rbp),%eax
    cdc0:	48 98                	cltq   
    cdc2:	48 c1 e0 05          	shl    $0x5,%rax
    cdc6:	48 89 c2             	mov    %rax,%rdx
    cdc9:	48 8d 05 98 b2 00 00 	lea    0xb298(%rip),%rax        # 18068 <g_49+0x8>
    cdd0:	48 8b 04 02          	mov    (%rdx,%rax,1),%rax
    cdd4:	48 89 c1             	mov    %rax,%rcx
    cdd7:	8b 45 fc             	mov    -0x4(%rbp),%eax
    cdda:	89 c2                	mov    %eax,%edx
    cddc:	48 8d 35 f3 68 00 00 	lea    0x68f3(%rip),%rsi        # 136d6 <g_1647+0x596>
    cde3:	48 89 cf             	mov    %rcx,%rdi
    cde6:	e8 08 c9 ff ff       	callq  96f3 <transparent_crc>
    cdeb:	8b 45 f0             	mov    -0x10(%rbp),%eax
    cdee:	48 98                	cltq   
    cdf0:	48 c1 e0 05          	shl    $0x5,%rax
    cdf4:	48 89 c2             	mov    %rax,%rdx
    cdf7:	48 8d 05 72 b2 00 00 	lea    0xb272(%rip),%rax        # 18070 <g_49+0x10>
    cdfe:	0f b6 04 02          	movzbl (%rdx,%rax,1),%eax
    ce02:	48 0f be c0          	movsbq %al,%rax
    ce06:	8b 55 fc             	mov    -0x4(%rbp),%edx
    ce09:	48 8d 35 d1 68 00 00 	lea    0x68d1(%rip),%rsi        # 136e1 <g_1647+0x5a1>
    ce10:	48 89 c7             	mov    %rax,%rdi
    ce13:	e8 db c8 ff ff       	callq  96f3 <transparent_crc>
    ce18:	8b 45 f0             	mov    -0x10(%rbp),%eax
    ce1b:	48 98                	cltq   
    ce1d:	48 c1 e0 05          	shl    $0x5,%rax
    ce21:	48 89 c2             	mov    %rax,%rdx
    ce24:	48 8d 05 47 b2 00 00 	lea    0xb247(%rip),%rax        # 18072 <g_49+0x12>
    ce2b:	0f b7 04 02          	movzwl (%rdx,%rax,1),%eax
    ce2f:	0f b7 c0             	movzwl %ax,%eax
    ce32:	8b 55 fc             	mov    -0x4(%rbp),%edx
    ce35:	48 8d 35 b0 68 00 00 	lea    0x68b0(%rip),%rsi        # 136ec <g_1647+0x5ac>
    ce3c:	48 89 c7             	mov    %rax,%rdi
    ce3f:	e8 af c8 ff ff       	callq  96f3 <transparent_crc>
    ce44:	8b 45 f0             	mov    -0x10(%rbp),%eax
    ce47:	48 98                	cltq   
    ce49:	48 c1 e0 05          	shl    $0x5,%rax
    ce4d:	48 89 c2             	mov    %rax,%rdx
    ce50:	48 8d 05 19 b2 00 00 	lea    0xb219(%rip),%rax        # 18070 <g_49+0x10>
    ce57:	0f b7 44 02 04       	movzwl 0x4(%rdx,%rax,1),%eax
    ce5c:	c1 e0 05             	shl    $0x5,%eax
    ce5f:	66 c1 f8 05          	sar    $0x5,%ax
    ce63:	48 0f bf c0          	movswq %ax,%rax
    ce67:	8b 55 fc             	mov    -0x4(%rbp),%edx
    ce6a:	48 8d 35 86 68 00 00 	lea    0x6886(%rip),%rsi        # 136f7 <g_1647+0x5b7>
    ce71:	48 89 c7             	mov    %rax,%rdi
    ce74:	e8 7a c8 ff ff       	callq  96f3 <transparent_crc>
    ce79:	8b 45 f0             	mov    -0x10(%rbp),%eax
    ce7c:	48 98                	cltq   
    ce7e:	48 c1 e0 05          	shl    $0x5,%rax
    ce82:	48 89 c2             	mov    %rax,%rdx
    ce85:	48 8d 05 e4 b1 00 00 	lea    0xb1e4(%rip),%rax        # 18070 <g_49+0x10>
    ce8c:	8b 44 02 04          	mov    0x4(%rdx,%rax,1),%eax
    ce90:	c1 e8 0b             	shr    $0xb,%eax
    ce93:	83 e0 3f             	and    $0x3f,%eax
    ce96:	0f b6 c0             	movzbl %al,%eax
    ce99:	8b 55 fc             	mov    -0x4(%rbp),%edx
    ce9c:	48 8d 35 62 68 00 00 	lea    0x6862(%rip),%rsi        # 13705 <g_1647+0x5c5>
    cea3:	48 89 c7             	mov    %rax,%rdi
    cea6:	e8 48 c8 ff ff       	callq  96f3 <transparent_crc>
    ceab:	8b 45 f0             	mov    -0x10(%rbp),%eax
    ceae:	48 98                	cltq   
    ceb0:	48 c1 e0 05          	shl    $0x5,%rax
    ceb4:	48 89 c2             	mov    %rax,%rdx
    ceb7:	48 8d 05 ba b1 00 00 	lea    0xb1ba(%rip),%rax        # 18078 <g_49+0x18>
    cebe:	8b 04 02             	mov    (%rdx,%rax,1),%eax
    cec1:	89 c1                	mov    %eax,%ecx
    cec3:	8b 45 fc             	mov    -0x4(%rbp),%eax
    cec6:	89 c2                	mov    %eax,%edx
    cec8:	48 8d 35 44 68 00 00 	lea    0x6844(%rip),%rsi        # 13713 <g_1647+0x5d3>
    cecf:	48 89 cf             	mov    %rcx,%rdi
    ced2:	e8 1c c8 ff ff       	callq  96f3 <transparent_crc>
    ced7:	83 7d fc 00          	cmpl   $0x0,-0x4(%rbp)
    cedb:	74 16                	je     cef3 <main+0x307>
    cedd:	8b 45 f0             	mov    -0x10(%rbp),%eax
    cee0:	89 c6                	mov    %eax,%esi
    cee2:	48 8d 3d d4 67 00 00 	lea    0x67d4(%rip),%rdi        # 136bd <g_1647+0x57d>
    cee9:	b8 00 00 00 00       	mov    $0x0,%eax
    ceee:	e8 8d b1 ff ff       	callq  8080 <printf@plt>
    cef3:	83 45 f0 01          	addl   $0x1,-0x10(%rbp)
    cef7:	83 7d f0 04          	cmpl   $0x4,-0x10(%rbp)
    cefb:	0f 8e 90 fe ff ff    	jle    cd91 <main+0x1a5>
    cf01:	48 8b 05 f8 b1 00 00 	mov    0xb1f8(%rip),%rax        # 18100 <g_73>
    cf08:	8b 55 fc             	mov    -0x4(%rbp),%edx
    cf0b:	48 8d 35 0c 68 00 00 	lea    0x680c(%rip),%rsi        # 1371e <g_1647+0x5de>
    cf12:	48 89 c7             	mov    %rax,%rdi
    cf15:	e8 d9 c7 ff ff       	callq  96f3 <transparent_crc>
    cf1a:	8b 05 e8 b1 00 00    	mov    0xb1e8(%rip),%eax        # 18108 <g_77>
    cf20:	48 98                	cltq   
    cf22:	8b 55 fc             	mov    -0x4(%rbp),%edx
    cf25:	48 8d 35 f7 67 00 00 	lea    0x67f7(%rip),%rsi        # 13723 <g_1647+0x5e3>
    cf2c:	48 89 c7             	mov    %rax,%rdi
    cf2f:	e8 bf c7 ff ff       	callq  96f3 <transparent_crc>
    cf34:	48 8b 05 d5 b1 00 00 	mov    0xb1d5(%rip),%rax        # 18110 <g_110>
    cf3b:	8b 55 fc             	mov    -0x4(%rbp),%edx
    cf3e:	48 8d 35 e3 67 00 00 	lea    0x67e3(%rip),%rsi        # 13728 <g_1647+0x5e8>
    cf45:	48 89 c7             	mov    %rax,%rdi
    cf48:	e8 a6 c7 ff ff       	callq  96f3 <transparent_crc>
    cf4d:	0f b7 05 c4 b1 00 00 	movzwl 0xb1c4(%rip),%eax        # 18118 <g_110+0x8>
    cf54:	0f b7 c0             	movzwl %ax,%eax
    cf57:	8b 55 fc             	mov    -0x4(%rbp),%edx
    cf5a:	48 8d 35 d0 67 00 00 	lea    0x67d0(%rip),%rsi        # 13731 <g_1647+0x5f1>
    cf61:	48 89 c7             	mov    %rax,%rdi
    cf64:	e8 8a c7 ff ff       	callq  96f3 <transparent_crc>
    cf69:	48 8b 05 a8 b1 00 00 	mov    0xb1a8(%rip),%rax        # 18118 <g_110+0x8>
    cf70:	48 c1 e0 1a          	shl    $0x1a,%rax
    cf74:	48 c1 f8 2a          	sar    $0x2a,%rax
    cf78:	48 98                	cltq   
    cf7a:	8b 55 fc             	mov    -0x4(%rbp),%edx
    cf7d:	48 8d 35 b6 67 00 00 	lea    0x67b6(%rip),%rsi        # 1373a <g_1647+0x5fa>
    cf84:	48 89 c7             	mov    %rax,%rdi
    cf87:	e8 67 c7 ff ff       	callq  96f3 <transparent_crc>
    cf8c:	8b 05 8b b1 00 00    	mov    0xb18b(%rip),%eax        # 1811d <g_110+0xd>
    cf92:	48 98                	cltq   
    cf94:	8b 55 fc             	mov    -0x4(%rbp),%edx
    cf97:	48 8d 35 a5 67 00 00 	lea    0x67a5(%rip),%rsi        # 13743 <g_1647+0x603>
    cf9e:	48 89 c7             	mov    %rax,%rdi
    cfa1:	e8 4d c7 ff ff       	callq  96f3 <transparent_crc>
    cfa6:	c7 45 f0 00 00 00 00 	movl   $0x0,-0x10(%rbp)
    cfad:	eb 49                	jmp    cff8 <main+0x40c>
    cfaf:	8b 45 f0             	mov    -0x10(%rbp),%eax
    cfb2:	48 98                	cltq   
    cfb4:	48 8d 14 00          	lea    (%rax,%rax,1),%rdx
    cfb8:	48 8d 05 63 b1 00 00 	lea    0xb163(%rip),%rax        # 18122 <g_122>
    cfbf:	0f b7 04 02          	movzwl (%rdx,%rax,1),%eax
    cfc3:	0f b7 c0             	movzwl %ax,%eax
    cfc6:	8b 55 fc             	mov    -0x4(%rbp),%edx
    cfc9:	48 8d 35 7c 67 00 00 	lea    0x677c(%rip),%rsi        # 1374c <g_1647+0x60c>
    cfd0:	48 89 c7             	mov    %rax,%rdi
    cfd3:	e8 1b c7 ff ff       	callq  96f3 <transparent_crc>
    cfd8:	83 7d fc 00          	cmpl   $0x0,-0x4(%rbp)
    cfdc:	74 16                	je     cff4 <main+0x408>
    cfde:	8b 45 f0             	mov    -0x10(%rbp),%eax
    cfe1:	89 c6                	mov    %eax,%esi
    cfe3:	48 8d 3d d3 66 00 00 	lea    0x66d3(%rip),%rdi        # 136bd <g_1647+0x57d>
    cfea:	b8 00 00 00 00       	mov    $0x0,%eax
    cfef:	e8 8c b0 ff ff       	callq  8080 <printf@plt>
    cff4:	83 45 f0 01          	addl   $0x1,-0x10(%rbp)
    cff8:	83 7d f0 01          	cmpl   $0x1,-0x10(%rbp)
    cffc:	7e b1                	jle    cfaf <main+0x3c3>
    cffe:	0f b7 05 21 b1 00 00 	movzwl 0xb121(%rip),%eax        # 18126 <g_132>
    d005:	0f b7 c0             	movzwl %ax,%eax
    d008:	8b 55 fc             	mov    -0x4(%rbp),%edx
    d00b:	48 8d 35 43 67 00 00 	lea    0x6743(%rip),%rsi        # 13755 <g_1647+0x615>
    d012:	48 89 c7             	mov    %rax,%rdi
    d015:	e8 d9 c6 ff ff       	callq  96f3 <transparent_crc>
    d01a:	48 8b 05 07 b1 00 00 	mov    0xb107(%rip),%rax        # 18128 <g_173>
    d021:	c1 e0 03             	shl    $0x3,%eax
    d024:	66 c1 f8 03          	sar    $0x3,%ax
    d028:	48 0f bf c0          	movswq %ax,%rax
    d02c:	8b 55 fc             	mov    -0x4(%rbp),%edx
    d02f:	48 8d 35 25 67 00 00 	lea    0x6725(%rip),%rsi        # 1375b <g_1647+0x61b>
    d036:	48 89 c7             	mov    %rax,%rdi
    d039:	e8 b5 c6 ff ff       	callq  96f3 <transparent_crc>
    d03e:	0f b7 05 e5 b0 00 00 	movzwl 0xb0e5(%rip),%eax        # 1812a <g_173+0x2>
    d045:	48 0f bf c0          	movswq %ax,%rax
    d049:	8b 55 fc             	mov    -0x4(%rbp),%edx
    d04c:	48 8d 35 11 67 00 00 	lea    0x6711(%rip),%rsi        # 13764 <g_1647+0x624>
    d053:	48 89 c7             	mov    %rax,%rdi
    d056:	e8 98 c6 ff ff       	callq  96f3 <transparent_crc>
    d05b:	8b 05 cb b0 00 00    	mov    0xb0cb(%rip),%eax        # 1812c <g_173+0x4>
    d061:	25 ff ff 3f 00       	and    $0x3fffff,%eax
    d066:	89 c1                	mov    %eax,%ecx
    d068:	8b 45 fc             	mov    -0x4(%rbp),%eax
    d06b:	89 c2                	mov    %eax,%edx
    d06d:	48 8d 35 f9 66 00 00 	lea    0x66f9(%rip),%rsi        # 1376d <g_1647+0x62d>
    d074:	48 89 cf             	mov    %rcx,%rdi
    d077:	e8 77 c6 ff ff       	callq  96f3 <transparent_crc>
    d07c:	8b 05 ae b0 00 00    	mov    0xb0ae(%rip),%eax        # 18130 <g_176>
    d082:	48 98                	cltq   
    d084:	8b 55 fc             	mov    -0x4(%rbp),%edx
    d087:	48 8d 35 e8 66 00 00 	lea    0x66e8(%rip),%rsi        # 13776 <g_1647+0x636>
    d08e:	48 89 c7             	mov    %rax,%rdi
    d091:	e8 5d c6 ff ff       	callq  96f3 <transparent_crc>
    d096:	8b 05 98 b0 00 00    	mov    0xb098(%rip),%eax        # 18134 <g_178>
    d09c:	48 98                	cltq   
    d09e:	8b 55 fc             	mov    -0x4(%rbp),%edx
    d0a1:	48 8d 35 d4 66 00 00 	lea    0x66d4(%rip),%rsi        # 1377c <g_1647+0x63c>
    d0a8:	48 89 c7             	mov    %rax,%rdi
    d0ab:	e8 43 c6 ff ff       	callq  96f3 <transparent_crc>
    d0b0:	48 8b 05 81 b0 00 00 	mov    0xb081(%rip),%rax        # 18138 <g_181>
    d0b7:	c1 e0 03             	shl    $0x3,%eax
    d0ba:	66 c1 f8 03          	sar    $0x3,%ax
    d0be:	48 0f bf c0          	movswq %ax,%rax
    d0c2:	8b 55 fc             	mov    -0x4(%rbp),%edx
    d0c5:	48 8d 35 b6 66 00 00 	lea    0x66b6(%rip),%rsi        # 13782 <g_1647+0x642>
    d0cc:	48 89 c7             	mov    %rax,%rdi
    d0cf:	e8 1f c6 ff ff       	callq  96f3 <transparent_crc>
    d0d4:	0f b7 05 5f b0 00 00 	movzwl 0xb05f(%rip),%eax        # 1813a <g_181+0x2>
    d0db:	48 0f bf c0          	movswq %ax,%rax
    d0df:	8b 55 fc             	mov    -0x4(%rbp),%edx
    d0e2:	48 8d 35 a2 66 00 00 	lea    0x66a2(%rip),%rsi        # 1378b <g_1647+0x64b>
    d0e9:	48 89 c7             	mov    %rax,%rdi
    d0ec:	e8 02 c6 ff ff       	callq  96f3 <transparent_crc>
    d0f1:	8b 05 45 b0 00 00    	mov    0xb045(%rip),%eax        # 1813c <g_181+0x4>
    d0f7:	25 ff ff 3f 00       	and    $0x3fffff,%eax
    d0fc:	89 c1                	mov    %eax,%ecx
    d0fe:	8b 45 fc             	mov    -0x4(%rbp),%eax
    d101:	89 c2                	mov    %eax,%edx
    d103:	48 8d 35 8a 66 00 00 	lea    0x668a(%rip),%rsi        # 13794 <g_1647+0x654>
    d10a:	48 89 cf             	mov    %rcx,%rdi
    d10d:	e8 e1 c5 ff ff       	callq  96f3 <transparent_crc>
    d112:	48 8b 05 27 b0 00 00 	mov    0xb027(%rip),%rax        # 18140 <g_184>
    d119:	8b 55 fc             	mov    -0x4(%rbp),%edx
    d11c:	48 8d 35 7a 66 00 00 	lea    0x667a(%rip),%rsi        # 1379d <g_1647+0x65d>
    d123:	48 89 c7             	mov    %rax,%rdi
    d126:	e8 c8 c5 ff ff       	callq  96f3 <transparent_crc>
    d12b:	0f b7 05 16 b0 00 00 	movzwl 0xb016(%rip),%eax        # 18148 <g_184+0x8>
    d132:	66 25 ff 3f          	and    $0x3fff,%ax
    d136:	0f b7 c0             	movzwl %ax,%eax
    d139:	8b 55 fc             	mov    -0x4(%rbp),%edx
    d13c:	48 8d 35 63 66 00 00 	lea    0x6663(%rip),%rsi        # 137a6 <g_1647+0x666>
    d143:	48 89 c7             	mov    %rax,%rdi
    d146:	e8 a8 c5 ff ff       	callq  96f3 <transparent_crc>
    d14b:	48 8b 05 f6 af 00 00 	mov    0xaff6(%rip),%rax        # 18148 <g_184+0x8>
    d152:	48 c1 e0 03          	shl    $0x3,%rax
    d156:	48 c1 f8 23          	sar    $0x23,%rax
    d15a:	48 98                	cltq   
    d15c:	8b 55 fc             	mov    -0x4(%rbp),%edx
    d15f:	48 8d 35 4c 66 00 00 	lea    0x664c(%rip),%rsi        # 137b2 <g_1647+0x672>
    d166:	48 89 c7             	mov    %rax,%rdi
    d169:	e8 85 c5 ff ff       	callq  96f3 <transparent_crc>
    d16e:	8b 05 dc af 00 00    	mov    0xafdc(%rip),%eax        # 18150 <g_184+0x10>
    d174:	25 ff ff 7f 00       	and    $0x7fffff,%eax
    d179:	89 c1                	mov    %eax,%ecx
    d17b:	8b 45 fc             	mov    -0x4(%rbp),%eax
    d17e:	89 c2                	mov    %eax,%edx
    d180:	48 8d 35 37 66 00 00 	lea    0x6637(%rip),%rsi        # 137be <g_1647+0x67e>
    d187:	48 89 cf             	mov    %rcx,%rdi
    d18a:	e8 64 c5 ff ff       	callq  96f3 <transparent_crc>
    d18f:	48 8b 05 ba af 00 00 	mov    0xafba(%rip),%rax        # 18150 <g_184+0x10>
    d196:	48 c1 e8 20          	shr    $0x20,%rax
    d19a:	66 25 ff 0f          	and    $0xfff,%ax
    d19e:	0f b7 c0             	movzwl %ax,%eax
    d1a1:	8b 55 fc             	mov    -0x4(%rbp),%edx
    d1a4:	48 8d 35 1f 66 00 00 	lea    0x661f(%rip),%rsi        # 137ca <g_1647+0x68a>
    d1ab:	48 89 c7             	mov    %rax,%rdi
    d1ae:	e8 40 c5 ff ff       	callq  96f3 <transparent_crc>
    d1b3:	8b 05 9f af 00 00    	mov    0xaf9f(%rip),%eax        # 18158 <g_184+0x18>
    d1b9:	c1 e0 05             	shl    $0x5,%eax
    d1bc:	c1 f8 05             	sar    $0x5,%eax
    d1bf:	48 98                	cltq   
    d1c1:	8b 55 fc             	mov    -0x4(%rbp),%edx
    d1c4:	48 8d 35 0b 66 00 00 	lea    0x660b(%rip),%rsi        # 137d6 <g_1647+0x696>
    d1cb:	48 89 c7             	mov    %rax,%rdi
    d1ce:	e8 20 c5 ff ff       	callq  96f3 <transparent_crc>
    d1d3:	8b 05 83 af 00 00    	mov    0xaf83(%rip),%eax        # 1815c <g_184+0x1c>
    d1d9:	25 ff ff 07 00       	and    $0x7ffff,%eax
    d1de:	89 c1                	mov    %eax,%ecx
    d1e0:	8b 45 fc             	mov    -0x4(%rbp),%eax
    d1e3:	89 c2                	mov    %eax,%edx
    d1e5:	48 8d 35 f6 65 00 00 	lea    0x65f6(%rip),%rsi        # 137e2 <g_1647+0x6a2>
    d1ec:	48 89 cf             	mov    %rcx,%rdi
    d1ef:	e8 ff c4 ff ff       	callq  96f3 <transparent_crc>
    d1f4:	48 8b 05 65 af 00 00 	mov    0xaf65(%rip),%rax        # 18160 <g_184+0x20>
    d1fb:	66 25 ff 3f          	and    $0x3fff,%ax
    d1ff:	0f b7 c0             	movzwl %ax,%eax
    d202:	8b 55 fc             	mov    -0x4(%rbp),%edx
    d205:	48 8d 35 e2 65 00 00 	lea    0x65e2(%rip),%rsi        # 137ee <g_1647+0x6ae>
    d20c:	48 89 c7             	mov    %rax,%rdi
    d20f:	e8 df c4 ff ff       	callq  96f3 <transparent_crc>
    d214:	8b 05 4a af 00 00    	mov    0xaf4a(%rip),%eax        # 18164 <g_184+0x24>
    d21a:	c1 e0 0b             	shl    $0xb,%eax
    d21d:	c1 f8 0b             	sar    $0xb,%eax
    d220:	48 98                	cltq   
    d222:	8b 55 fc             	mov    -0x4(%rbp),%edx
    d225:	48 8d 35 ce 65 00 00 	lea    0x65ce(%rip),%rsi        # 137fa <g_1647+0x6ba>
    d22c:	48 89 c7             	mov    %rax,%rdi
    d22f:	e8 bf c4 ff ff       	callq  96f3 <transparent_crc>
    d234:	48 8b 05 2d af 00 00 	mov    0xaf2d(%rip),%rax        # 18168 <g_184+0x28>
    d23b:	c1 e0 0c             	shl    $0xc,%eax
    d23e:	c1 f8 0c             	sar    $0xc,%eax
    d241:	48 98                	cltq   
    d243:	8b 55 fc             	mov    -0x4(%rbp),%edx
    d246:	48 8d 35 b9 65 00 00 	lea    0x65b9(%rip),%rsi        # 13806 <g_1647+0x6c6>
    d24d:	48 89 c7             	mov    %rax,%rdi
    d250:	e8 9e c4 ff ff       	callq  96f3 <transparent_crc>
    d255:	0f b7 05 0e af 00 00 	movzwl 0xaf0e(%rip),%eax        # 1816a <g_184+0x2a>
    d25c:	66 c1 f8 04          	sar    $0x4,%ax
    d260:	48 0f bf c0          	movswq %ax,%rax
    d264:	8b 55 fc             	mov    -0x4(%rbp),%edx
    d267:	48 8d 35 a4 65 00 00 	lea    0x65a4(%rip),%rsi        # 13812 <g_1647+0x6d2>
    d26e:	48 89 c7             	mov    %rax,%rdi
    d271:	e8 7d c4 ff ff       	callq  96f3 <transparent_crc>
    d276:	0f b6 05 f3 ae 00 00 	movzbl 0xaef3(%rip),%eax        # 18170 <g_184+0x30>
    d27d:	0f b6 c0             	movzbl %al,%eax
    d280:	8b 55 fc             	mov    -0x4(%rbp),%edx
    d283:	48 8d 35 94 65 00 00 	lea    0x6594(%rip),%rsi        # 1381e <g_1647+0x6de>
    d28a:	48 89 c7             	mov    %rax,%rdi
    d28d:	e8 61 c4 ff ff       	callq  96f3 <transparent_crc>
    d292:	48 8b 05 df ae 00 00 	mov    0xaedf(%rip),%rax        # 18178 <g_184+0x38>
    d299:	48 89 c1             	mov    %rax,%rcx
    d29c:	8b 45 fc             	mov    -0x4(%rbp),%eax
    d29f:	89 c2                	mov    %eax,%edx
    d2a1:	48 8d 35 82 65 00 00 	lea    0x6582(%rip),%rsi        # 1382a <g_1647+0x6ea>
    d2a8:	48 89 cf             	mov    %rcx,%rdi
    d2ab:	e8 43 c4 ff ff       	callq  96f3 <transparent_crc>
    d2b0:	0f b6 05 c9 ae 00 00 	movzbl 0xaec9(%rip),%eax        # 18180 <g_184+0x40>
    d2b7:	48 0f be c0          	movsbq %al,%rax
    d2bb:	8b 55 fc             	mov    -0x4(%rbp),%edx
    d2be:	48 8d 35 71 65 00 00 	lea    0x6571(%rip),%rsi        # 13836 <g_1647+0x6f6>
    d2c5:	48 89 c7             	mov    %rax,%rdi
    d2c8:	e8 26 c4 ff ff       	callq  96f3 <transparent_crc>
    d2cd:	0f b7 05 ae ae 00 00 	movzwl 0xaeae(%rip),%eax        # 18182 <g_184+0x42>
    d2d4:	0f b7 c0             	movzwl %ax,%eax
    d2d7:	8b 55 fc             	mov    -0x4(%rbp),%edx
    d2da:	48 8d 35 61 65 00 00 	lea    0x6561(%rip),%rsi        # 13842 <g_1647+0x702>
    d2e1:	48 89 c7             	mov    %rax,%rdi
    d2e4:	e8 0a c4 ff ff       	callq  96f3 <transparent_crc>
    d2e9:	0f b7 05 94 ae 00 00 	movzwl 0xae94(%rip),%eax        # 18184 <g_184+0x44>
    d2f0:	c1 e0 05             	shl    $0x5,%eax
    d2f3:	66 c1 f8 05          	sar    $0x5,%ax
    d2f7:	48 0f bf c0          	movswq %ax,%rax
    d2fb:	8b 55 fc             	mov    -0x4(%rbp),%edx
    d2fe:	48 8d 35 49 65 00 00 	lea    0x6549(%rip),%rsi        # 1384e <g_1647+0x70e>
    d305:	48 89 c7             	mov    %rax,%rdi
    d308:	e8 e6 c3 ff ff       	callq  96f3 <transparent_crc>
    d30d:	8b 05 71 ae 00 00    	mov    0xae71(%rip),%eax        # 18184 <g_184+0x44>
    d313:	c1 e8 0b             	shr    $0xb,%eax
    d316:	83 e0 3f             	and    $0x3f,%eax
    d319:	0f b6 c0             	movzbl %al,%eax
    d31c:	8b 55 fc             	mov    -0x4(%rbp),%edx
    d31f:	48 8d 35 37 65 00 00 	lea    0x6537(%rip),%rsi        # 1385d <g_1647+0x71d>
    d326:	48 89 c7             	mov    %rax,%rdi
    d329:	e8 c5 c3 ff ff       	callq  96f3 <transparent_crc>
    d32e:	8b 05 54 ae 00 00    	mov    0xae54(%rip),%eax        # 18188 <g_184+0x48>
    d334:	89 c1                	mov    %eax,%ecx
    d336:	8b 45 fc             	mov    -0x4(%rbp),%eax
    d339:	89 c2                	mov    %eax,%edx
    d33b:	48 8d 35 2a 65 00 00 	lea    0x652a(%rip),%rsi        # 1386c <g_1647+0x72c>
    d342:	48 89 cf             	mov    %rcx,%rdi
    d345:	e8 a9 c3 ff ff       	callq  96f3 <transparent_crc>
    d34a:	48 8b 05 3f ae 00 00 	mov    0xae3f(%rip),%rax        # 18190 <g_184+0x50>
    d351:	8b 55 fc             	mov    -0x4(%rbp),%edx
    d354:	48 8d 35 1d 65 00 00 	lea    0x651d(%rip),%rsi        # 13878 <g_1647+0x738>
    d35b:	48 89 c7             	mov    %rax,%rdi
    d35e:	e8 90 c3 ff ff       	callq  96f3 <transparent_crc>
    d363:	0f b7 05 2e ae 00 00 	movzwl 0xae2e(%rip),%eax        # 18198 <g_184+0x58>
    d36a:	0f b7 c0             	movzwl %ax,%eax
    d36d:	8b 55 fc             	mov    -0x4(%rbp),%edx
    d370:	48 8d 35 0d 65 00 00 	lea    0x650d(%rip),%rsi        # 13884 <g_1647+0x744>
    d377:	48 89 c7             	mov    %rax,%rdi
    d37a:	e8 74 c3 ff ff       	callq  96f3 <transparent_crc>
    d37f:	48 8b 05 12 ae 00 00 	mov    0xae12(%rip),%rax        # 18198 <g_184+0x58>
    d386:	48 c1 e0 1a          	shl    $0x1a,%rax
    d38a:	48 c1 f8 2a          	sar    $0x2a,%rax
    d38e:	48 98                	cltq   
    d390:	8b 55 fc             	mov    -0x4(%rbp),%edx
    d393:	48 8d 35 f6 64 00 00 	lea    0x64f6(%rip),%rsi        # 13890 <g_1647+0x750>
    d39a:	48 89 c7             	mov    %rax,%rdi
    d39d:	e8 51 c3 ff ff       	callq  96f3 <transparent_crc>
    d3a2:	8b 05 f5 ad 00 00    	mov    0xadf5(%rip),%eax        # 1819d <g_184+0x5d>
    d3a8:	48 98                	cltq   
    d3aa:	8b 55 fc             	mov    -0x4(%rbp),%edx
    d3ad:	48 8d 35 e8 64 00 00 	lea    0x64e8(%rip),%rsi        # 1389c <g_1647+0x75c>
    d3b4:	48 89 c7             	mov    %rax,%rdi
    d3b7:	e8 37 c3 ff ff       	callq  96f3 <transparent_crc>
    d3bc:	8b 05 e2 ad 00 00    	mov    0xade2(%rip),%eax        # 181a4 <g_184+0x64>
    d3c2:	48 98                	cltq   
    d3c4:	8b 55 fc             	mov    -0x4(%rbp),%edx
    d3c7:	48 8d 35 da 64 00 00 	lea    0x64da(%rip),%rsi        # 138a8 <g_1647+0x768>
    d3ce:	48 89 c7             	mov    %rax,%rdi
    d3d1:	e8 1d c3 ff ff       	callq  96f3 <transparent_crc>
    d3d6:	0f b7 05 cb ad 00 00 	movzwl 0xadcb(%rip),%eax        # 181a8 <g_184+0x68>
    d3dd:	0f b7 c0             	movzwl %ax,%eax
    d3e0:	8b 55 fc             	mov    -0x4(%rbp),%edx
    d3e3:	48 8d 35 c7 64 00 00 	lea    0x64c7(%rip),%rsi        # 138b1 <g_1647+0x771>
    d3ea:	48 89 c7             	mov    %rax,%rdi
    d3ed:	e8 01 c3 ff ff       	callq  96f3 <transparent_crc>
    d3f2:	8b 05 b4 ad 00 00    	mov    0xadb4(%rip),%eax        # 181ac <g_184+0x6c>
    d3f8:	25 ff ff ff 00       	and    $0xffffff,%eax
    d3fd:	89 c1                	mov    %eax,%ecx
    d3ff:	8b 45 fc             	mov    -0x4(%rbp),%eax
    d402:	89 c2                	mov    %eax,%edx
    d404:	48 8d 35 af 64 00 00 	lea    0x64af(%rip),%rsi        # 138ba <g_1647+0x77a>
    d40b:	48 89 cf             	mov    %rcx,%rdi
    d40e:	e8 e0 c2 ff ff       	callq  96f3 <transparent_crc>
    d413:	0f b7 05 96 ad 00 00 	movzwl 0xad96(%rip),%eax        # 181b0 <g_184+0x70>
    d41a:	0f b7 c0             	movzwl %ax,%eax
    d41d:	8b 55 fc             	mov    -0x4(%rbp),%edx
    d420:	48 8d 35 9c 64 00 00 	lea    0x649c(%rip),%rsi        # 138c3 <g_1647+0x783>
    d427:	48 89 c7             	mov    %rax,%rdi
    d42a:	e8 c4 c2 ff ff       	callq  96f3 <transparent_crc>
    d42f:	48 8b 05 7a ad 00 00 	mov    0xad7a(%rip),%rax        # 181b0 <g_184+0x70>
    d436:	48 c1 e0 0f          	shl    $0xf,%rax
    d43a:	48 c1 f8 2f          	sar    $0x2f,%rax
    d43e:	48 98                	cltq   
    d440:	8b 55 fc             	mov    -0x4(%rbp),%edx
    d443:	48 8d 35 85 64 00 00 	lea    0x6485(%rip),%rsi        # 138cf <g_1647+0x78f>
    d44a:	48 89 c7             	mov    %rax,%rdi
    d44d:	e8 a1 c2 ff ff       	callq  96f3 <transparent_crc>
    d452:	48 8b 05 57 ad 00 00 	mov    0xad57(%rip),%rax        # 181b0 <g_184+0x70>
    d459:	48 c1 e8 31          	shr    $0x31,%rax
    d45d:	83 e0 07             	and    $0x7,%eax
    d460:	0f b6 c0             	movzbl %al,%eax
    d463:	8b 55 fc             	mov    -0x4(%rbp),%edx
    d466:	48 8d 35 6e 64 00 00 	lea    0x646e(%rip),%rsi        # 138db <g_1647+0x79b>
    d46d:	48 89 c7             	mov    %rax,%rdi
    d470:	e8 7e c2 ff ff       	callq  96f3 <transparent_crc>
    d475:	48 8b 05 3c ad 00 00 	mov    0xad3c(%rip),%rax        # 181b8 <g_184+0x78>
    d47c:	c1 e0 0b             	shl    $0xb,%eax
    d47f:	c1 f8 0b             	sar    $0xb,%eax
    d482:	48 98                	cltq   
    d484:	8b 55 fc             	mov    -0x4(%rbp),%edx
    d487:	48 8d 35 59 64 00 00 	lea    0x6459(%rip),%rsi        # 138e7 <g_1647+0x7a7>
    d48e:	48 89 c7             	mov    %rax,%rdi
    d491:	e8 5d c2 ff ff       	callq  96f3 <transparent_crc>
    d496:	8b 05 20 ad 00 00    	mov    0xad20(%rip),%eax        # 181bc <g_184+0x7c>
    d49c:	89 c1                	mov    %eax,%ecx
    d49e:	8b 45 fc             	mov    -0x4(%rbp),%eax
    d4a1:	89 c2                	mov    %eax,%edx
    d4a3:	48 8d 35 49 64 00 00 	lea    0x6449(%rip),%rsi        # 138f3 <g_1647+0x7b3>
    d4aa:	48 89 cf             	mov    %rcx,%rdi
    d4ad:	e8 41 c2 ff ff       	callq  96f3 <transparent_crc>
    d4b2:	8b 05 08 ad 00 00    	mov    0xad08(%rip),%eax        # 181c0 <g_184+0x80>
    d4b8:	89 c1                	mov    %eax,%ecx
    d4ba:	8b 45 fc             	mov    -0x4(%rbp),%eax
    d4bd:	89 c2                	mov    %eax,%edx
    d4bf:	48 8d 35 36 64 00 00 	lea    0x6436(%rip),%rsi        # 138fc <g_1647+0x7bc>
    d4c6:	48 89 cf             	mov    %rcx,%rdi
    d4c9:	e8 25 c2 ff ff       	callq  96f3 <transparent_crc>
    d4ce:	c7 45 f0 00 00 00 00 	movl   $0x0,-0x10(%rbp)
    d4d5:	e9 2e 09 00 00       	jmpq   de08 <main+0x121c>
    d4da:	c7 45 f4 00 00 00 00 	movl   $0x0,-0xc(%rbp)
    d4e1:	e9 14 09 00 00       	jmpq   ddfa <main+0x120e>
    d4e6:	8b 45 f4             	mov    -0xc(%rbp),%eax
    d4e9:	48 63 d0             	movslq %eax,%rdx
    d4ec:	8b 45 f0             	mov    -0x10(%rbp),%eax
    d4ef:	48 63 c8             	movslq %eax,%rcx
    d4f2:	48 89 d0             	mov    %rdx,%rax
    d4f5:	48 c1 e0 04          	shl    $0x4,%rax
    d4f9:	48 01 d0             	add    %rdx,%rax
    d4fc:	48 c1 e0 03          	shl    $0x3,%rax
    d500:	48 69 d1 b8 03 00 00 	imul   $0x3b8,%rcx,%rdx
    d507:	48 01 c2             	add    %rax,%rdx
    d50a:	48 8d 05 cf ac 00 00 	lea    0xaccf(%rip),%rax        # 181e0 <g_230>
    d511:	48 01 d0             	add    %rdx,%rax
    d514:	48 8b 00             	mov    (%rax),%rax
    d517:	8b 55 fc             	mov    -0x4(%rbp),%edx
    d51a:	48 8d 35 e4 63 00 00 	lea    0x63e4(%rip),%rsi        # 13905 <g_1647+0x7c5>
    d521:	48 89 c7             	mov    %rax,%rdi
    d524:	e8 ca c1 ff ff       	callq  96f3 <transparent_crc>
    d529:	8b 45 f4             	mov    -0xc(%rbp),%eax
    d52c:	48 63 d0             	movslq %eax,%rdx
    d52f:	8b 45 f0             	mov    -0x10(%rbp),%eax
    d532:	48 63 c8             	movslq %eax,%rcx
    d535:	48 89 d0             	mov    %rdx,%rax
    d538:	48 c1 e0 04          	shl    $0x4,%rax
    d53c:	48 01 d0             	add    %rdx,%rax
    d53f:	48 c1 e0 03          	shl    $0x3,%rax
    d543:	48 69 d1 b8 03 00 00 	imul   $0x3b8,%rcx,%rdx
    d54a:	48 01 c2             	add    %rax,%rdx
    d54d:	48 8d 05 8c ac 00 00 	lea    0xac8c(%rip),%rax        # 181e0 <g_230>
    d554:	48 01 d0             	add    %rdx,%rax
    d557:	48 8b 40 08          	mov    0x8(%rax),%rax
    d55b:	66 25 ff 3f          	and    $0x3fff,%ax
    d55f:	0f b7 c0             	movzwl %ax,%eax
    d562:	8b 55 fc             	mov    -0x4(%rbp),%edx
    d565:	48 8d 35 a8 63 00 00 	lea    0x63a8(%rip),%rsi        # 13914 <g_1647+0x7d4>
    d56c:	48 89 c7             	mov    %rax,%rdi
    d56f:	e8 7f c1 ff ff       	callq  96f3 <transparent_crc>
    d574:	8b 45 f4             	mov    -0xc(%rbp),%eax
    d577:	48 63 d0             	movslq %eax,%rdx
    d57a:	8b 45 f0             	mov    -0x10(%rbp),%eax
    d57d:	48 63 c8             	movslq %eax,%rcx
    d580:	48 89 d0             	mov    %rdx,%rax
    d583:	48 c1 e0 04          	shl    $0x4,%rax
    d587:	48 01 d0             	add    %rdx,%rax
    d58a:	48 c1 e0 03          	shl    $0x3,%rax
    d58e:	48 69 d1 b8 03 00 00 	imul   $0x3b8,%rcx,%rdx
    d595:	48 01 c2             	add    %rax,%rdx
    d598:	48 8d 05 41 ac 00 00 	lea    0xac41(%rip),%rax        # 181e0 <g_230>
    d59f:	48 01 d0             	add    %rdx,%rax
    d5a2:	48 8b 40 08          	mov    0x8(%rax),%rax
    d5a6:	48 c1 e0 03          	shl    $0x3,%rax
    d5aa:	48 c1 f8 23          	sar    $0x23,%rax
    d5ae:	48 98                	cltq   
    d5b0:	8b 55 fc             	mov    -0x4(%rbp),%edx
    d5b3:	48 8d 35 6c 63 00 00 	lea    0x636c(%rip),%rsi        # 13926 <g_1647+0x7e6>
    d5ba:	48 89 c7             	mov    %rax,%rdi
    d5bd:	e8 31 c1 ff ff       	callq  96f3 <transparent_crc>
    d5c2:	8b 45 f4             	mov    -0xc(%rbp),%eax
    d5c5:	48 63 d0             	movslq %eax,%rdx
    d5c8:	8b 45 f0             	mov    -0x10(%rbp),%eax
    d5cb:	48 63 c8             	movslq %eax,%rcx
    d5ce:	48 89 d0             	mov    %rdx,%rax
    d5d1:	48 c1 e0 04          	shl    $0x4,%rax
    d5d5:	48 01 d0             	add    %rdx,%rax
    d5d8:	48 c1 e0 03          	shl    $0x3,%rax
    d5dc:	48 69 d1 b8 03 00 00 	imul   $0x3b8,%rcx,%rdx
    d5e3:	48 01 c2             	add    %rax,%rdx
    d5e6:	48 8d 05 f3 ab 00 00 	lea    0xabf3(%rip),%rax        # 181e0 <g_230>
    d5ed:	48 01 d0             	add    %rdx,%rax
    d5f0:	48 8b 40 10          	mov    0x10(%rax),%rax
    d5f4:	25 ff ff 7f 00       	and    $0x7fffff,%eax
    d5f9:	89 c1                	mov    %eax,%ecx
    d5fb:	8b 45 fc             	mov    -0x4(%rbp),%eax
    d5fe:	89 c2                	mov    %eax,%edx
    d600:	48 8d 35 31 63 00 00 	lea    0x6331(%rip),%rsi        # 13938 <g_1647+0x7f8>
    d607:	48 89 cf             	mov    %rcx,%rdi
    d60a:	e8 e4 c0 ff ff       	callq  96f3 <transparent_crc>
    d60f:	8b 45 f4             	mov    -0xc(%rbp),%eax
    d612:	48 63 d0             	movslq %eax,%rdx
    d615:	8b 45 f0             	mov    -0x10(%rbp),%eax
    d618:	48 63 c8             	movslq %eax,%rcx
    d61b:	48 89 d0             	mov    %rdx,%rax
    d61e:	48 c1 e0 04          	shl    $0x4,%rax
    d622:	48 01 d0             	add    %rdx,%rax
    d625:	48 c1 e0 03          	shl    $0x3,%rax
    d629:	48 69 d1 b8 03 00 00 	imul   $0x3b8,%rcx,%rdx
    d630:	48 01 c2             	add    %rax,%rdx
    d633:	48 8d 05 a6 ab 00 00 	lea    0xaba6(%rip),%rax        # 181e0 <g_230>
    d63a:	48 01 d0             	add    %rdx,%rax
    d63d:	48 8b 40 10          	mov    0x10(%rax),%rax
    d641:	48 c1 e8 20          	shr    $0x20,%rax
    d645:	66 25 ff 0f          	and    $0xfff,%ax
    d649:	0f b7 c0             	movzwl %ax,%eax
    d64c:	8b 55 fc             	mov    -0x4(%rbp),%edx
    d64f:	48 8d 35 f4 62 00 00 	lea    0x62f4(%rip),%rsi        # 1394a <g_1647+0x80a>
    d656:	48 89 c7             	mov    %rax,%rdi
    d659:	e8 95 c0 ff ff       	callq  96f3 <transparent_crc>
    d65e:	8b 45 f4             	mov    -0xc(%rbp),%eax
    d661:	48 63 d0             	movslq %eax,%rdx
    d664:	8b 45 f0             	mov    -0x10(%rbp),%eax
    d667:	48 63 c8             	movslq %eax,%rcx
    d66a:	48 89 d0             	mov    %rdx,%rax
    d66d:	48 c1 e0 04          	shl    $0x4,%rax
    d671:	48 01 d0             	add    %rdx,%rax
    d674:	48 c1 e0 03          	shl    $0x3,%rax
    d678:	48 69 d1 b8 03 00 00 	imul   $0x3b8,%rcx,%rdx
    d67f:	48 01 c2             	add    %rax,%rdx
    d682:	48 8d 05 67 ab 00 00 	lea    0xab67(%rip),%rax        # 181f0 <g_230+0x10>
    d689:	48 01 d0             	add    %rdx,%rax
    d68c:	48 8b 40 08          	mov    0x8(%rax),%rax
    d690:	c1 e0 05             	shl    $0x5,%eax
    d693:	c1 f8 05             	sar    $0x5,%eax
    d696:	48 98                	cltq   
    d698:	8b 55 fc             	mov    -0x4(%rbp),%edx
    d69b:	48 8d 35 ba 62 00 00 	lea    0x62ba(%rip),%rsi        # 1395c <g_1647+0x81c>
    d6a2:	48 89 c7             	mov    %rax,%rdi
    d6a5:	e8 49 c0 ff ff       	callq  96f3 <transparent_crc>
    d6aa:	8b 45 f4             	mov    -0xc(%rbp),%eax
    d6ad:	48 63 d0             	movslq %eax,%rdx
    d6b0:	8b 45 f0             	mov    -0x10(%rbp),%eax
    d6b3:	48 63 c8             	movslq %eax,%rcx
    d6b6:	48 89 d0             	mov    %rdx,%rax
    d6b9:	48 c1 e0 04          	shl    $0x4,%rax
    d6bd:	48 01 d0             	add    %rdx,%rax
    d6c0:	48 c1 e0 03          	shl    $0x3,%rax
    d6c4:	48 69 d1 b8 03 00 00 	imul   $0x3b8,%rcx,%rdx
    d6cb:	48 01 c2             	add    %rax,%rdx
    d6ce:	48 8d 05 1b ab 00 00 	lea    0xab1b(%rip),%rax        # 181f0 <g_230+0x10>
    d6d5:	48 01 d0             	add    %rdx,%rax
    d6d8:	48 8b 40 08          	mov    0x8(%rax),%rax
    d6dc:	48 c1 e8 20          	shr    $0x20,%rax
    d6e0:	25 ff ff 07 00       	and    $0x7ffff,%eax
    d6e5:	89 c1                	mov    %eax,%ecx
    d6e7:	8b 45 fc             	mov    -0x4(%rbp),%eax
    d6ea:	89 c2                	mov    %eax,%edx
    d6ec:	48 8d 35 7b 62 00 00 	lea    0x627b(%rip),%rsi        # 1396e <g_1647+0x82e>
    d6f3:	48 89 cf             	mov    %rcx,%rdi
    d6f6:	e8 f8 bf ff ff       	callq  96f3 <transparent_crc>
    d6fb:	8b 45 f4             	mov    -0xc(%rbp),%eax
    d6fe:	48 63 d0             	movslq %eax,%rdx
    d701:	8b 45 f0             	mov    -0x10(%rbp),%eax
    d704:	48 63 c8             	movslq %eax,%rcx
    d707:	48 89 d0             	mov    %rdx,%rax
    d70a:	48 c1 e0 04          	shl    $0x4,%rax
    d70e:	48 01 d0             	add    %rdx,%rax
    d711:	48 c1 e0 03          	shl    $0x3,%rax
    d715:	48 69 d1 b8 03 00 00 	imul   $0x3b8,%rcx,%rdx
    d71c:	48 01 c2             	add    %rax,%rdx
    d71f:	48 8d 05 ca aa 00 00 	lea    0xaaca(%rip),%rax        # 181f0 <g_230+0x10>
    d726:	48 01 d0             	add    %rdx,%rax
    d729:	48 8b 40 10          	mov    0x10(%rax),%rax
    d72d:	66 25 ff 3f          	and    $0x3fff,%ax
    d731:	0f b7 c0             	movzwl %ax,%eax
    d734:	8b 55 fc             	mov    -0x4(%rbp),%edx
    d737:	48 8d 35 42 62 00 00 	lea    0x6242(%rip),%rsi        # 13980 <g_1647+0x840>
    d73e:	48 89 c7             	mov    %rax,%rdi
    d741:	e8 ad bf ff ff       	callq  96f3 <transparent_crc>
    d746:	8b 45 f4             	mov    -0xc(%rbp),%eax
    d749:	48 63 d0             	movslq %eax,%rdx
    d74c:	8b 45 f0             	mov    -0x10(%rbp),%eax
    d74f:	48 63 c8             	movslq %eax,%rcx
    d752:	48 89 d0             	mov    %rdx,%rax
    d755:	48 c1 e0 04          	shl    $0x4,%rax
    d759:	48 01 d0             	add    %rdx,%rax
    d75c:	48 c1 e0 03          	shl    $0x3,%rax
    d760:	48 69 d1 b8 03 00 00 	imul   $0x3b8,%rcx,%rdx
    d767:	48 01 c2             	add    %rax,%rdx
    d76a:	48 8d 05 7f aa 00 00 	lea    0xaa7f(%rip),%rax        # 181f0 <g_230+0x10>
    d771:	48 01 d0             	add    %rdx,%rax
    d774:	48 8b 40 10          	mov    0x10(%rax),%rax
    d778:	48 c1 e0 0b          	shl    $0xb,%rax
    d77c:	48 c1 f8 2b          	sar    $0x2b,%rax
    d780:	48 98                	cltq   
    d782:	8b 55 fc             	mov    -0x4(%rbp),%edx
    d785:	48 8d 35 06 62 00 00 	lea    0x6206(%rip),%rsi        # 13992 <g_1647+0x852>
    d78c:	48 89 c7             	mov    %rax,%rdi
    d78f:	e8 5f bf ff ff       	callq  96f3 <transparent_crc>
    d794:	8b 45 f4             	mov    -0xc(%rbp),%eax
    d797:	48 63 d0             	movslq %eax,%rdx
    d79a:	8b 45 f0             	mov    -0x10(%rbp),%eax
    d79d:	48 63 c8             	movslq %eax,%rcx
    d7a0:	48 89 d0             	mov    %rdx,%rax
    d7a3:	48 c1 e0 04          	shl    $0x4,%rax
    d7a7:	48 01 d0             	add    %rdx,%rax
    d7aa:	48 c1 e0 03          	shl    $0x3,%rax
    d7ae:	48 69 d1 b8 03 00 00 	imul   $0x3b8,%rcx,%rdx
    d7b5:	48 01 c2             	add    %rax,%rdx
    d7b8:	48 8d 05 41 aa 00 00 	lea    0xaa41(%rip),%rax        # 18200 <g_230+0x20>
    d7bf:	48 01 d0             	add    %rdx,%rax
    d7c2:	48 8b 40 08          	mov    0x8(%rax),%rax
    d7c6:	c1 e0 0c             	shl    $0xc,%eax
    d7c9:	c1 f8 0c             	sar    $0xc,%eax
    d7cc:	48 98                	cltq   
    d7ce:	8b 55 fc             	mov    -0x4(%rbp),%edx
    d7d1:	48 8d 35 cc 61 00 00 	lea    0x61cc(%rip),%rsi        # 139a4 <g_1647+0x864>
    d7d8:	48 89 c7             	mov    %rax,%rdi
    d7db:	e8 13 bf ff ff       	callq  96f3 <transparent_crc>
    d7e0:	8b 45 f4             	mov    -0xc(%rbp),%eax
    d7e3:	48 63 d0             	movslq %eax,%rdx
    d7e6:	8b 45 f0             	mov    -0x10(%rbp),%eax
    d7e9:	48 63 c8             	movslq %eax,%rcx
    d7ec:	48 89 d0             	mov    %rdx,%rax
    d7ef:	48 c1 e0 04          	shl    $0x4,%rax
    d7f3:	48 01 d0             	add    %rdx,%rax
    d7f6:	48 c1 e0 03          	shl    $0x3,%rax
    d7fa:	48 69 d1 b8 03 00 00 	imul   $0x3b8,%rcx,%rdx
    d801:	48 01 c2             	add    %rax,%rdx
    d804:	48 8d 05 f5 a9 00 00 	lea    0xa9f5(%rip),%rax        # 18200 <g_230+0x20>
    d80b:	48 01 d0             	add    %rdx,%rax
    d80e:	48 8b 40 08          	mov    0x8(%rax),%rax
    d812:	c1 f8 14             	sar    $0x14,%eax
    d815:	48 0f bf c0          	movswq %ax,%rax
    d819:	8b 55 fc             	mov    -0x4(%rbp),%edx
    d81c:	48 8d 35 93 61 00 00 	lea    0x6193(%rip),%rsi        # 139b6 <g_1647+0x876>
    d823:	48 89 c7             	mov    %rax,%rdi
    d826:	e8 c8 be ff ff       	callq  96f3 <transparent_crc>
    d82b:	8b 45 f4             	mov    -0xc(%rbp),%eax
    d82e:	48 63 d0             	movslq %eax,%rdx
    d831:	8b 45 f0             	mov    -0x10(%rbp),%eax
    d834:	48 63 c8             	movslq %eax,%rcx
    d837:	48 89 d0             	mov    %rdx,%rax
    d83a:	48 c1 e0 04          	shl    $0x4,%rax
    d83e:	48 01 d0             	add    %rdx,%rax
    d841:	48 c1 e0 03          	shl    $0x3,%rax
    d845:	48 69 d1 b8 03 00 00 	imul   $0x3b8,%rcx,%rdx
    d84c:	48 01 c2             	add    %rax,%rdx
    d84f:	48 8d 05 ba a9 00 00 	lea    0xa9ba(%rip),%rax        # 18210 <g_230+0x30>
    d856:	48 01 d0             	add    %rdx,%rax
    d859:	0f b6 00             	movzbl (%rax),%eax
    d85c:	0f b6 c0             	movzbl %al,%eax
    d85f:	8b 55 fc             	mov    -0x4(%rbp),%edx
    d862:	48 8d 35 5f 61 00 00 	lea    0x615f(%rip),%rsi        # 139c8 <g_1647+0x888>
    d869:	48 89 c7             	mov    %rax,%rdi
    d86c:	e8 82 be ff ff       	callq  96f3 <transparent_crc>
    d871:	8b 45 f4             	mov    -0xc(%rbp),%eax
    d874:	48 63 d0             	movslq %eax,%rdx
    d877:	8b 45 f0             	mov    -0x10(%rbp),%eax
    d87a:	48 63 c8             	movslq %eax,%rcx
    d87d:	48 89 d0             	mov    %rdx,%rax
    d880:	48 c1 e0 04          	shl    $0x4,%rax
    d884:	48 01 d0             	add    %rdx,%rax
    d887:	48 c1 e0 03          	shl    $0x3,%rax
    d88b:	48 69 d1 b8 03 00 00 	imul   $0x3b8,%rcx,%rdx
    d892:	48 01 c2             	add    %rax,%rdx
    d895:	48 8d 05 7c a9 00 00 	lea    0xa97c(%rip),%rax        # 18218 <g_230+0x38>
    d89c:	48 01 d0             	add    %rdx,%rax
    d89f:	48 8b 00             	mov    (%rax),%rax
    d8a2:	48 89 c1             	mov    %rax,%rcx
    d8a5:	8b 45 fc             	mov    -0x4(%rbp),%eax
    d8a8:	89 c2                	mov    %eax,%edx
    d8aa:	48 8d 35 29 61 00 00 	lea    0x6129(%rip),%rsi        # 139da <g_1647+0x89a>
    d8b1:	48 89 cf             	mov    %rcx,%rdi
    d8b4:	e8 3a be ff ff       	callq  96f3 <transparent_crc>
    d8b9:	8b 45 f4             	mov    -0xc(%rbp),%eax
    d8bc:	48 63 d0             	movslq %eax,%rdx
    d8bf:	8b 45 f0             	mov    -0x10(%rbp),%eax
    d8c2:	48 63 c8             	movslq %eax,%rcx
    d8c5:	48 89 d0             	mov    %rdx,%rax
    d8c8:	48 c1 e0 04          	shl    $0x4,%rax
    d8cc:	48 01 d0             	add    %rdx,%rax
    d8cf:	48 c1 e0 03          	shl    $0x3,%rax
    d8d3:	48 69 d1 b8 03 00 00 	imul   $0x3b8,%rcx,%rdx
    d8da:	48 01 c2             	add    %rax,%rdx
    d8dd:	48 8d 05 3c a9 00 00 	lea    0xa93c(%rip),%rax        # 18220 <g_230+0x40>
    d8e4:	48 01 d0             	add    %rdx,%rax
    d8e7:	0f b6 00             	movzbl (%rax),%eax
    d8ea:	48 0f be c0          	movsbq %al,%rax
    d8ee:	8b 55 fc             	mov    -0x4(%rbp),%edx
    d8f1:	48 8d 35 f4 60 00 00 	lea    0x60f4(%rip),%rsi        # 139ec <g_1647+0x8ac>
    d8f8:	48 89 c7             	mov    %rax,%rdi
    d8fb:	e8 f3 bd ff ff       	callq  96f3 <transparent_crc>
    d900:	8b 45 f4             	mov    -0xc(%rbp),%eax
    d903:	48 63 d0             	movslq %eax,%rdx
    d906:	8b 45 f0             	mov    -0x10(%rbp),%eax
    d909:	48 63 c8             	movslq %eax,%rcx
    d90c:	48 89 d0             	mov    %rdx,%rax
    d90f:	48 c1 e0 04          	shl    $0x4,%rax
    d913:	48 01 d0             	add    %rdx,%rax
    d916:	48 c1 e0 03          	shl    $0x3,%rax
    d91a:	48 69 d1 b8 03 00 00 	imul   $0x3b8,%rcx,%rdx
    d921:	48 01 c2             	add    %rax,%rdx
    d924:	48 8d 05 f7 a8 00 00 	lea    0xa8f7(%rip),%rax        # 18222 <g_230+0x42>
    d92b:	48 01 d0             	add    %rdx,%rax
    d92e:	0f b7 00             	movzwl (%rax),%eax
    d931:	0f b7 c0             	movzwl %ax,%eax
    d934:	8b 55 fc             	mov    -0x4(%rbp),%edx
    d937:	48 8d 35 c0 60 00 00 	lea    0x60c0(%rip),%rsi        # 139fe <g_1647+0x8be>
    d93e:	48 89 c7             	mov    %rax,%rdi
    d941:	e8 ad bd ff ff       	callq  96f3 <transparent_crc>
    d946:	8b 45 f4             	mov    -0xc(%rbp),%eax
    d949:	48 63 d0             	movslq %eax,%rdx
    d94c:	8b 45 f0             	mov    -0x10(%rbp),%eax
    d94f:	48 63 c8             	movslq %eax,%rcx
    d952:	48 89 d0             	mov    %rdx,%rax
    d955:	48 c1 e0 04          	shl    $0x4,%rax
    d959:	48 01 d0             	add    %rdx,%rax
    d95c:	48 c1 e0 03          	shl    $0x3,%rax
    d960:	48 69 d1 b8 03 00 00 	imul   $0x3b8,%rcx,%rdx
    d967:	48 01 c2             	add    %rax,%rdx
    d96a:	48 8d 05 af a8 00 00 	lea    0xa8af(%rip),%rax        # 18220 <g_230+0x40>
    d971:	48 01 d0             	add    %rdx,%rax
    d974:	48 8b 00             	mov    (%rax),%rax
    d977:	48 c1 e0 15          	shl    $0x15,%rax
    d97b:	48 c1 f8 35          	sar    $0x35,%rax
    d97f:	48 0f bf c0          	movswq %ax,%rax
    d983:	8b 55 fc             	mov    -0x4(%rbp),%edx
    d986:	48 8d 35 83 60 00 00 	lea    0x6083(%rip),%rsi        # 13a10 <g_1647+0x8d0>
    d98d:	48 89 c7             	mov    %rax,%rdi
    d990:	e8 5e bd ff ff       	callq  96f3 <transparent_crc>
    d995:	8b 45 f4             	mov    -0xc(%rbp),%eax
    d998:	48 63 d0             	movslq %eax,%rdx
    d99b:	8b 45 f0             	mov    -0x10(%rbp),%eax
    d99e:	48 63 c8             	movslq %eax,%rcx
    d9a1:	48 89 d0             	mov    %rdx,%rax
    d9a4:	48 c1 e0 04          	shl    $0x4,%rax
    d9a8:	48 01 d0             	add    %rdx,%rax
    d9ab:	48 c1 e0 03          	shl    $0x3,%rax
    d9af:	48 69 d1 b8 03 00 00 	imul   $0x3b8,%rcx,%rdx
    d9b6:	48 01 c2             	add    %rax,%rdx
    d9b9:	48 8d 05 60 a8 00 00 	lea    0xa860(%rip),%rax        # 18220 <g_230+0x40>
    d9c0:	48 01 d0             	add    %rdx,%rax
    d9c3:	48 8b 00             	mov    (%rax),%rax
    d9c6:	48 c1 e8 2b          	shr    $0x2b,%rax
    d9ca:	83 e0 3f             	and    $0x3f,%eax
    d9cd:	0f b6 c0             	movzbl %al,%eax
    d9d0:	8b 55 fc             	mov    -0x4(%rbp),%edx
    d9d3:	48 8d 35 4b 60 00 00 	lea    0x604b(%rip),%rsi        # 13a25 <g_1647+0x8e5>
    d9da:	48 89 c7             	mov    %rax,%rdi
    d9dd:	e8 11 bd ff ff       	callq  96f3 <transparent_crc>
    d9e2:	8b 45 f4             	mov    -0xc(%rbp),%eax
    d9e5:	48 63 d0             	movslq %eax,%rdx
    d9e8:	8b 45 f0             	mov    -0x10(%rbp),%eax
    d9eb:	48 63 c8             	movslq %eax,%rcx
    d9ee:	48 89 d0             	mov    %rdx,%rax
    d9f1:	48 c1 e0 04          	shl    $0x4,%rax
    d9f5:	48 01 d0             	add    %rdx,%rax
    d9f8:	48 c1 e0 03          	shl    $0x3,%rax
    d9fc:	48 69 d1 b8 03 00 00 	imul   $0x3b8,%rcx,%rdx
    da03:	48 01 c2             	add    %rax,%rdx
    da06:	48 8d 05 1b a8 00 00 	lea    0xa81b(%rip),%rax        # 18228 <g_230+0x48>
    da0d:	48 01 d0             	add    %rdx,%rax
    da10:	8b 00                	mov    (%rax),%eax
    da12:	89 c1                	mov    %eax,%ecx
    da14:	8b 45 fc             	mov    -0x4(%rbp),%eax
    da17:	89 c2                	mov    %eax,%edx
    da19:	48 8d 35 1a 60 00 00 	lea    0x601a(%rip),%rsi        # 13a3a <g_1647+0x8fa>
    da20:	48 89 cf             	mov    %rcx,%rdi
    da23:	e8 cb bc ff ff       	callq  96f3 <transparent_crc>
    da28:	8b 45 f4             	mov    -0xc(%rbp),%eax
    da2b:	48 63 d0             	movslq %eax,%rdx
    da2e:	8b 45 f0             	mov    -0x10(%rbp),%eax
    da31:	48 63 c8             	movslq %eax,%rcx
    da34:	48 89 d0             	mov    %rdx,%rax
    da37:	48 c1 e0 04          	shl    $0x4,%rax
    da3b:	48 01 d0             	add    %rdx,%rax
    da3e:	48 c1 e0 03          	shl    $0x3,%rax
    da42:	48 69 d1 b8 03 00 00 	imul   $0x3b8,%rcx,%rdx
    da49:	48 01 c2             	add    %rax,%rdx
    da4c:	48 8d 05 dd a7 00 00 	lea    0xa7dd(%rip),%rax        # 18230 <g_230+0x50>
    da53:	48 01 d0             	add    %rdx,%rax
    da56:	48 8b 00             	mov    (%rax),%rax
    da59:	8b 55 fc             	mov    -0x4(%rbp),%edx
    da5c:	48 8d 35 e9 5f 00 00 	lea    0x5fe9(%rip),%rsi        # 13a4c <g_1647+0x90c>
    da63:	48 89 c7             	mov    %rax,%rdi
    da66:	e8 88 bc ff ff       	callq  96f3 <transparent_crc>
    da6b:	8b 45 f4             	mov    -0xc(%rbp),%eax
    da6e:	48 63 d0             	movslq %eax,%rdx
    da71:	8b 45 f0             	mov    -0x10(%rbp),%eax
    da74:	48 63 c8             	movslq %eax,%rcx
    da77:	48 89 d0             	mov    %rdx,%rax
    da7a:	48 c1 e0 04          	shl    $0x4,%rax
    da7e:	48 01 d0             	add    %rdx,%rax
    da81:	48 c1 e0 03          	shl    $0x3,%rax
    da85:	48 69 d1 b8 03 00 00 	imul   $0x3b8,%rcx,%rdx
    da8c:	48 01 c2             	add    %rax,%rdx
    da8f:	48 8d 05 a2 a7 00 00 	lea    0xa7a2(%rip),%rax        # 18238 <g_230+0x58>
    da96:	48 01 d0             	add    %rdx,%rax
    da99:	0f b7 00             	movzwl (%rax),%eax
    da9c:	0f b7 c0             	movzwl %ax,%eax
    da9f:	8b 55 fc             	mov    -0x4(%rbp),%edx
    daa2:	48 8d 35 b5 5f 00 00 	lea    0x5fb5(%rip),%rsi        # 13a5e <g_1647+0x91e>
    daa9:	48 89 c7             	mov    %rax,%rdi
    daac:	e8 42 bc ff ff       	callq  96f3 <transparent_crc>
    dab1:	8b 45 f4             	mov    -0xc(%rbp),%eax
    dab4:	48 63 d0             	movslq %eax,%rdx
    dab7:	8b 45 f0             	mov    -0x10(%rbp),%eax
    daba:	48 63 c8             	movslq %eax,%rcx
    dabd:	48 89 d0             	mov    %rdx,%rax
    dac0:	48 c1 e0 04          	shl    $0x4,%rax
    dac4:	48 01 d0             	add    %rdx,%rax
    dac7:	48 c1 e0 03          	shl    $0x3,%rax
    dacb:	48 69 d1 b8 03 00 00 	imul   $0x3b8,%rcx,%rdx
    dad2:	48 01 c2             	add    %rax,%rdx
    dad5:	48 8d 05 54 a7 00 00 	lea    0xa754(%rip),%rax        # 18230 <g_230+0x50>
    dadc:	48 01 d0             	add    %rdx,%rax
    dadf:	48 8b 40 08          	mov    0x8(%rax),%rax
    dae3:	48 c1 e0 1a          	shl    $0x1a,%rax
    dae7:	48 c1 f8 2a          	sar    $0x2a,%rax
    daeb:	48 98                	cltq   
    daed:	8b 55 fc             	mov    -0x4(%rbp),%edx
    daf0:	48 8d 35 79 5f 00 00 	lea    0x5f79(%rip),%rsi        # 13a70 <g_1647+0x930>
    daf7:	48 89 c7             	mov    %rax,%rdi
    dafa:	e8 f4 bb ff ff       	callq  96f3 <transparent_crc>
    daff:	8b 45 f4             	mov    -0xc(%rbp),%eax
    db02:	48 63 d0             	movslq %eax,%rdx
    db05:	8b 45 f0             	mov    -0x10(%rbp),%eax
    db08:	48 63 c8             	movslq %eax,%rcx
    db0b:	48 89 d0             	mov    %rdx,%rax
    db0e:	48 c1 e0 04          	shl    $0x4,%rax
    db12:	48 01 d0             	add    %rdx,%rax
    db15:	48 c1 e0 03          	shl    $0x3,%rax
    db19:	48 69 d1 b8 03 00 00 	imul   $0x3b8,%rcx,%rdx
    db20:	48 01 c2             	add    %rax,%rdx
    db23:	48 8d 05 06 a7 00 00 	lea    0xa706(%rip),%rax        # 18230 <g_230+0x50>
    db2a:	48 01 d0             	add    %rdx,%rax
    db2d:	8b 40 0d             	mov    0xd(%rax),%eax
    db30:	48 98                	cltq   
    db32:	8b 55 fc             	mov    -0x4(%rbp),%edx
    db35:	48 8d 35 46 5f 00 00 	lea    0x5f46(%rip),%rsi        # 13a82 <g_1647+0x942>
    db3c:	48 89 c7             	mov    %rax,%rdi
    db3f:	e8 af bb ff ff       	callq  96f3 <transparent_crc>
    db44:	8b 45 f4             	mov    -0xc(%rbp),%eax
    db47:	48 63 d0             	movslq %eax,%rdx
    db4a:	8b 45 f0             	mov    -0x10(%rbp),%eax
    db4d:	48 63 c8             	movslq %eax,%rcx
    db50:	48 89 d0             	mov    %rdx,%rax
    db53:	48 c1 e0 04          	shl    $0x4,%rax
    db57:	48 01 d0             	add    %rdx,%rax
    db5a:	48 c1 e0 03          	shl    $0x3,%rax
    db5e:	48 69 d1 b8 03 00 00 	imul   $0x3b8,%rcx,%rdx
    db65:	48 01 c2             	add    %rax,%rdx
    db68:	48 8d 05 d5 a6 00 00 	lea    0xa6d5(%rip),%rax        # 18244 <g_230+0x64>
    db6f:	48 01 d0             	add    %rdx,%rax
    db72:	8b 00                	mov    (%rax),%eax
    db74:	48 98                	cltq   
    db76:	8b 55 fc             	mov    -0x4(%rbp),%edx
    db79:	48 8d 35 14 5f 00 00 	lea    0x5f14(%rip),%rsi        # 13a94 <g_1647+0x954>
    db80:	48 89 c7             	mov    %rax,%rdi
    db83:	e8 6b bb ff ff       	callq  96f3 <transparent_crc>
    db88:	8b 45 f4             	mov    -0xc(%rbp),%eax
    db8b:	48 63 d0             	movslq %eax,%rdx
    db8e:	8b 45 f0             	mov    -0x10(%rbp),%eax
    db91:	48 63 c8             	movslq %eax,%rcx
    db94:	48 89 d0             	mov    %rdx,%rax
    db97:	48 c1 e0 04          	shl    $0x4,%rax
    db9b:	48 01 d0             	add    %rdx,%rax
    db9e:	48 c1 e0 03          	shl    $0x3,%rax
    dba2:	48 69 d1 b8 03 00 00 	imul   $0x3b8,%rcx,%rdx
    dba9:	48 01 c2             	add    %rax,%rdx
    dbac:	48 8d 05 95 a6 00 00 	lea    0xa695(%rip),%rax        # 18248 <g_230+0x68>
    dbb3:	48 01 d0             	add    %rdx,%rax
    dbb6:	0f b7 00             	movzwl (%rax),%eax
    dbb9:	0f b7 c0             	movzwl %ax,%eax
    dbbc:	8b 55 fc             	mov    -0x4(%rbp),%edx
    dbbf:	48 8d 35 dd 5e 00 00 	lea    0x5edd(%rip),%rsi        # 13aa3 <g_1647+0x963>
    dbc6:	48 89 c7             	mov    %rax,%rdi
    dbc9:	e8 25 bb ff ff       	callq  96f3 <transparent_crc>
    dbce:	8b 45 f4             	mov    -0xc(%rbp),%eax
    dbd1:	48 63 d0             	movslq %eax,%rdx
    dbd4:	8b 45 f0             	mov    -0x10(%rbp),%eax
    dbd7:	48 63 c8             	movslq %eax,%rcx
    dbda:	48 89 d0             	mov    %rdx,%rax
    dbdd:	48 c1 e0 04          	shl    $0x4,%rax
    dbe1:	48 01 d0             	add    %rdx,%rax
    dbe4:	48 c1 e0 03          	shl    $0x3,%rax
    dbe8:	48 69 d1 b8 03 00 00 	imul   $0x3b8,%rcx,%rdx
    dbef:	48 01 c2             	add    %rax,%rdx
    dbf2:	48 8d 05 47 a6 00 00 	lea    0xa647(%rip),%rax        # 18240 <g_230+0x60>
    dbf9:	48 01 d0             	add    %rdx,%rax
    dbfc:	48 8b 40 08          	mov    0x8(%rax),%rax
    dc00:	48 c1 e8 20          	shr    $0x20,%rax
    dc04:	25 ff ff ff 00       	and    $0xffffff,%eax
    dc09:	89 c1                	mov    %eax,%ecx
    dc0b:	8b 45 fc             	mov    -0x4(%rbp),%eax
    dc0e:	89 c2                	mov    %eax,%edx
    dc10:	48 8d 35 9b 5e 00 00 	lea    0x5e9b(%rip),%rsi        # 13ab2 <g_1647+0x972>
    dc17:	48 89 cf             	mov    %rcx,%rdi
    dc1a:	e8 d4 ba ff ff       	callq  96f3 <transparent_crc>
    dc1f:	8b 45 f4             	mov    -0xc(%rbp),%eax
    dc22:	48 63 d0             	movslq %eax,%rdx
    dc25:	8b 45 f0             	mov    -0x10(%rbp),%eax
    dc28:	48 63 c8             	movslq %eax,%rcx
    dc2b:	48 89 d0             	mov    %rdx,%rax
    dc2e:	48 c1 e0 04          	shl    $0x4,%rax
    dc32:	48 01 d0             	add    %rdx,%rax
    dc35:	48 c1 e0 03          	shl    $0x3,%rax
    dc39:	48 69 d1 b8 03 00 00 	imul   $0x3b8,%rcx,%rdx
    dc40:	48 01 c2             	add    %rax,%rdx
    dc43:	48 8d 05 06 a6 00 00 	lea    0xa606(%rip),%rax        # 18250 <g_230+0x70>
    dc4a:	48 01 d0             	add    %rdx,%rax
    dc4d:	0f b7 00             	movzwl (%rax),%eax
    dc50:	0f b7 c0             	movzwl %ax,%eax
    dc53:	8b 55 fc             	mov    -0x4(%rbp),%edx
    dc56:	48 8d 35 64 5e 00 00 	lea    0x5e64(%rip),%rsi        # 13ac1 <g_1647+0x981>
    dc5d:	48 89 c7             	mov    %rax,%rdi
    dc60:	e8 8e ba ff ff       	callq  96f3 <transparent_crc>
    dc65:	8b 45 f4             	mov    -0xc(%rbp),%eax
    dc68:	48 63 d0             	movslq %eax,%rdx
    dc6b:	8b 45 f0             	mov    -0x10(%rbp),%eax
    dc6e:	48 63 c8             	movslq %eax,%rcx
    dc71:	48 89 d0             	mov    %rdx,%rax
    dc74:	48 c1 e0 04          	shl    $0x4,%rax
    dc78:	48 01 d0             	add    %rdx,%rax
    dc7b:	48 c1 e0 03          	shl    $0x3,%rax
    dc7f:	48 69 d1 b8 03 00 00 	imul   $0x3b8,%rcx,%rdx
    dc86:	48 01 c2             	add    %rax,%rdx
    dc89:	48 8d 05 c0 a5 00 00 	lea    0xa5c0(%rip),%rax        # 18250 <g_230+0x70>
    dc90:	48 01 d0             	add    %rdx,%rax
    dc93:	48 8b 00             	mov    (%rax),%rax
    dc96:	48 c1 e0 0f          	shl    $0xf,%rax
    dc9a:	48 c1 f8 2f          	sar    $0x2f,%rax
    dc9e:	48 98                	cltq   
    dca0:	8b 55 fc             	mov    -0x4(%rbp),%edx
    dca3:	48 8d 35 29 5e 00 00 	lea    0x5e29(%rip),%rsi        # 13ad3 <g_1647+0x993>
    dcaa:	48 89 c7             	mov    %rax,%rdi
    dcad:	e8 41 ba ff ff       	callq  96f3 <transparent_crc>
    dcb2:	8b 45 f4             	mov    -0xc(%rbp),%eax
    dcb5:	48 63 d0             	movslq %eax,%rdx
    dcb8:	8b 45 f0             	mov    -0x10(%rbp),%eax
    dcbb:	48 63 c8             	movslq %eax,%rcx
    dcbe:	48 89 d0             	mov    %rdx,%rax
    dcc1:	48 c1 e0 04          	shl    $0x4,%rax
    dcc5:	48 01 d0             	add    %rdx,%rax
    dcc8:	48 c1 e0 03          	shl    $0x3,%rax
    dccc:	48 69 d1 b8 03 00 00 	imul   $0x3b8,%rcx,%rdx
    dcd3:	48 01 c2             	add    %rax,%rdx
    dcd6:	48 8d 05 73 a5 00 00 	lea    0xa573(%rip),%rax        # 18250 <g_230+0x70>
    dcdd:	48 01 d0             	add    %rdx,%rax
    dce0:	48 8b 00             	mov    (%rax),%rax
    dce3:	48 c1 e8 31          	shr    $0x31,%rax
    dce7:	83 e0 07             	and    $0x7,%eax
    dcea:	0f b6 c0             	movzbl %al,%eax
    dced:	8b 55 fc             	mov    -0x4(%rbp),%edx
    dcf0:	48 8d 35 ee 5d 00 00 	lea    0x5dee(%rip),%rsi        # 13ae5 <g_1647+0x9a5>
    dcf7:	48 89 c7             	mov    %rax,%rdi
    dcfa:	e8 f4 b9 ff ff       	callq  96f3 <transparent_crc>
    dcff:	8b 45 f4             	mov    -0xc(%rbp),%eax
    dd02:	48 63 d0             	movslq %eax,%rdx
    dd05:	8b 45 f0             	mov    -0x10(%rbp),%eax
    dd08:	48 63 c8             	movslq %eax,%rcx
    dd0b:	48 89 d0             	mov    %rdx,%rax
    dd0e:	48 c1 e0 04          	shl    $0x4,%rax
    dd12:	48 01 d0             	add    %rdx,%rax
    dd15:	48 c1 e0 03          	shl    $0x3,%rax
    dd19:	48 69 d1 b8 03 00 00 	imul   $0x3b8,%rcx,%rdx
    dd20:	48 01 c2             	add    %rax,%rdx
    dd23:	48 8d 05 26 a5 00 00 	lea    0xa526(%rip),%rax        # 18250 <g_230+0x70>
    dd2a:	48 01 d0             	add    %rdx,%rax
    dd2d:	48 8b 40 08          	mov    0x8(%rax),%rax
    dd31:	c1 e0 0b             	shl    $0xb,%eax
    dd34:	c1 f8 0b             	sar    $0xb,%eax
    dd37:	48 98                	cltq   
    dd39:	8b 55 fc             	mov    -0x4(%rbp),%edx
    dd3c:	48 8d 35 b4 5d 00 00 	lea    0x5db4(%rip),%rsi        # 13af7 <g_1647+0x9b7>
    dd43:	48 89 c7             	mov    %rax,%rdi
    dd46:	e8 a8 b9 ff ff       	callq  96f3 <transparent_crc>
    dd4b:	8b 45 f4             	mov    -0xc(%rbp),%eax
    dd4e:	48 63 d0             	movslq %eax,%rdx
    dd51:	8b 45 f0             	mov    -0x10(%rbp),%eax
    dd54:	48 63 c8             	movslq %eax,%rcx
    dd57:	48 89 d0             	mov    %rdx,%rax
    dd5a:	48 c1 e0 04          	shl    $0x4,%rax
    dd5e:	48 01 d0             	add    %rdx,%rax
    dd61:	48 c1 e0 03          	shl    $0x3,%rax
    dd65:	48 69 d1 b8 03 00 00 	imul   $0x3b8,%rcx,%rdx
    dd6c:	48 01 c2             	add    %rax,%rdx
    dd6f:	48 8d 05 e6 a4 00 00 	lea    0xa4e6(%rip),%rax        # 1825c <g_230+0x7c>
    dd76:	48 01 d0             	add    %rdx,%rax
    dd79:	8b 00                	mov    (%rax),%eax
    dd7b:	89 c1                	mov    %eax,%ecx
    dd7d:	8b 45 fc             	mov    -0x4(%rbp),%eax
    dd80:	89 c2                	mov    %eax,%edx
    dd82:	48 8d 35 80 5d 00 00 	lea    0x5d80(%rip),%rsi        # 13b09 <g_1647+0x9c9>
    dd89:	48 89 cf             	mov    %rcx,%rdi
    dd8c:	e8 62 b9 ff ff       	callq  96f3 <transparent_crc>
    dd91:	8b 45 f4             	mov    -0xc(%rbp),%eax
    dd94:	48 63 d0             	movslq %eax,%rdx
    dd97:	8b 45 f0             	mov    -0x10(%rbp),%eax
    dd9a:	48 63 c8             	movslq %eax,%rcx
    dd9d:	48 89 d0             	mov    %rdx,%rax
    dda0:	48 c1 e0 04          	shl    $0x4,%rax
    dda4:	48 01 d0             	add    %rdx,%rax
    dda7:	48 c1 e0 03          	shl    $0x3,%rax
    ddab:	48 69 d1 b8 03 00 00 	imul   $0x3b8,%rcx,%rdx
    ddb2:	48 01 c2             	add    %rax,%rdx
    ddb5:	48 8d 05 a4 a4 00 00 	lea    0xa4a4(%rip),%rax        # 18260 <g_230+0x80>
    ddbc:	48 01 d0             	add    %rdx,%rax
    ddbf:	8b 00                	mov    (%rax),%eax
    ddc1:	89 c1                	mov    %eax,%ecx
    ddc3:	8b 45 fc             	mov    -0x4(%rbp),%eax
    ddc6:	89 c2                	mov    %eax,%edx
    ddc8:	48 8d 35 49 5d 00 00 	lea    0x5d49(%rip),%rsi        # 13b18 <g_1647+0x9d8>
    ddcf:	48 89 cf             	mov    %rcx,%rdi
    ddd2:	e8 1c b9 ff ff       	callq  96f3 <transparent_crc>
    ddd7:	83 7d fc 00          	cmpl   $0x0,-0x4(%rbp)
    dddb:	74 19                	je     ddf6 <main+0x120a>
    dddd:	8b 55 f4             	mov    -0xc(%rbp),%edx
    dde0:	8b 45 f0             	mov    -0x10(%rbp),%eax
    dde3:	89 c6                	mov    %eax,%esi
    dde5:	48 8d 3d 3b 5d 00 00 	lea    0x5d3b(%rip),%rdi        # 13b27 <g_1647+0x9e7>
    ddec:	b8 00 00 00 00       	mov    $0x0,%eax
    ddf1:	e8 8a a2 ff ff       	callq  8080 <printf@plt>
    ddf6:	83 45 f4 01          	addl   $0x1,-0xc(%rbp)
    ddfa:	83 7d f4 06          	cmpl   $0x6,-0xc(%rbp)
    ddfe:	0f 8e e2 f6 ff ff    	jle    d4e6 <main+0x8fa>
    de04:	83 45 f0 01          	addl   $0x1,-0x10(%rbp)
    de08:	83 7d f0 07          	cmpl   $0x7,-0x10(%rbp)
    de0c:	0f 8e c8 f6 ff ff    	jle    d4da <main+0x8ee>
    de12:	b8 00 00 00 00       	mov    $0x0,%eax
    de17:	0f b6 c0             	movzbl %al,%eax
    de1a:	8b 55 fc             	mov    -0x4(%rbp),%edx
    de1d:	48 8d 35 15 5d 00 00 	lea    0x5d15(%rip),%rsi        # 13b39 <g_1647+0x9f9>
    de24:	48 89 c7             	mov    %rax,%rdi
    de27:	e8 c7 b8 ff ff       	callq  96f3 <transparent_crc>
    de2c:	b8 01 00 00 00       	mov    $0x1,%eax
    de31:	48 89 c1             	mov    %rax,%rcx
    de34:	8b 45 fc             	mov    -0x4(%rbp),%eax
    de37:	89 c2                	mov    %eax,%edx
    de39:	48 8d 35 02 5d 00 00 	lea    0x5d02(%rip),%rsi        # 13b42 <g_1647+0xa02>
    de40:	48 89 cf             	mov    %rcx,%rdi
    de43:	e8 ab b8 ff ff       	callq  96f3 <transparent_crc>
    de48:	0f b6 05 21 52 00 00 	movzbl 0x5221(%rip),%eax        # 13070 <g_256+0x10>
    de4f:	48 0f be c0          	movsbq %al,%rax
    de53:	8b 55 fc             	mov    -0x4(%rbp),%edx
    de56:	48 8d 35 ee 5c 00 00 	lea    0x5cee(%rip),%rsi        # 13b4b <g_1647+0xa0b>
    de5d:	48 89 c7             	mov    %rax,%rdi
    de60:	e8 8e b8 ff ff       	callq  96f3 <transparent_crc>
    de65:	b8 ff ff ff ff       	mov    $0xffffffff,%eax
    de6a:	0f b7 c0             	movzwl %ax,%eax
    de6d:	8b 55 fc             	mov    -0x4(%rbp),%edx
    de70:	48 8d 35 dd 5c 00 00 	lea    0x5cdd(%rip),%rsi        # 13b54 <g_1647+0xa14>
    de77:	48 89 c7             	mov    %rax,%rdi
    de7a:	e8 74 b8 ff ff       	callq  96f3 <transparent_crc>
    de7f:	b8 ec ff ff ff       	mov    $0xffffffec,%eax
    de84:	48 0f bf c0          	movswq %ax,%rax
    de88:	8b 55 fc             	mov    -0x4(%rbp),%edx
    de8b:	48 8d 35 cb 5c 00 00 	lea    0x5ccb(%rip),%rsi        # 13b5d <g_1647+0xa1d>
    de92:	48 89 c7             	mov    %rax,%rdi
    de95:	e8 59 b8 ff ff       	callq  96f3 <transparent_crc>
    de9a:	b8 04 00 00 00       	mov    $0x4,%eax
    de9f:	0f b6 c0             	movzbl %al,%eax
    dea2:	8b 55 fc             	mov    -0x4(%rbp),%edx
    dea5:	48 8d 35 bd 5c 00 00 	lea    0x5cbd(%rip),%rsi        # 13b69 <g_1647+0xa29>
    deac:	48 89 c7             	mov    %rax,%rdi
    deaf:	e8 3f b8 ff ff       	callq  96f3 <transparent_crc>
    deb4:	b8 f8 4b a7 0c       	mov    $0xca74bf8,%eax
    deb9:	89 c1                	mov    %eax,%ecx
    debb:	8b 45 fc             	mov    -0x4(%rbp),%eax
    debe:	89 c2                	mov    %eax,%edx
    dec0:	48 8d 35 ae 5c 00 00 	lea    0x5cae(%rip),%rsi        # 13b75 <g_1647+0xa35>
    dec7:	48 89 cf             	mov    %rcx,%rdi
    deca:	e8 24 b8 ff ff       	callq  96f3 <transparent_crc>
    decf:	0f b6 05 ca c0 00 00 	movzbl 0xc0ca(%rip),%eax        # 19fa0 <g_257>
    ded6:	0f b6 c0             	movzbl %al,%eax
    ded9:	8b 55 fc             	mov    -0x4(%rbp),%edx
    dedc:	48 8d 35 9b 5c 00 00 	lea    0x5c9b(%rip),%rsi        # 13b7e <g_1647+0xa3e>
    dee3:	48 89 c7             	mov    %rax,%rdi
    dee6:	e8 08 b8 ff ff       	callq  96f3 <transparent_crc>
    deeb:	48 8b 05 b6 c0 00 00 	mov    0xc0b6(%rip),%rax        # 19fa8 <g_257+0x8>
    def2:	48 89 c1             	mov    %rax,%rcx
    def5:	8b 45 fc             	mov    -0x4(%rbp),%eax
    def8:	89 c2                	mov    %eax,%edx
    defa:	48 8d 35 86 5c 00 00 	lea    0x5c86(%rip),%rsi        # 13b87 <g_1647+0xa47>
    df01:	48 89 cf             	mov    %rcx,%rdi
    df04:	e8 ea b7 ff ff       	callq  96f3 <transparent_crc>
    df09:	0f b6 05 a0 c0 00 00 	movzbl 0xc0a0(%rip),%eax        # 19fb0 <g_257+0x10>
    df10:	48 0f be c0          	movsbq %al,%rax
    df14:	8b 55 fc             	mov    -0x4(%rbp),%edx
    df17:	48 8d 35 72 5c 00 00 	lea    0x5c72(%rip),%rsi        # 13b90 <g_1647+0xa50>
    df1e:	48 89 c7             	mov    %rax,%rdi
    df21:	e8 cd b7 ff ff       	callq  96f3 <transparent_crc>
    df26:	0f b7 05 85 c0 00 00 	movzwl 0xc085(%rip),%eax        # 19fb2 <g_257+0x12>
    df2d:	0f b7 c0             	movzwl %ax,%eax
    df30:	8b 55 fc             	mov    -0x4(%rbp),%edx
    df33:	48 8d 35 5f 5c 00 00 	lea    0x5c5f(%rip),%rsi        # 13b99 <g_1647+0xa59>
    df3a:	48 89 c7             	mov    %rax,%rdi
    df3d:	e8 b1 b7 ff ff       	callq  96f3 <transparent_crc>
    df42:	0f b7 05 6b c0 00 00 	movzwl 0xc06b(%rip),%eax        # 19fb4 <g_257+0x14>
    df49:	c1 e0 05             	shl    $0x5,%eax
    df4c:	66 c1 f8 05          	sar    $0x5,%ax
    df50:	48 0f bf c0          	movswq %ax,%rax
    df54:	8b 55 fc             	mov    -0x4(%rbp),%edx
    df57:	48 8d 35 44 5c 00 00 	lea    0x5c44(%rip),%rsi        # 13ba2 <g_1647+0xa62>
    df5e:	48 89 c7             	mov    %rax,%rdi
    df61:	e8 8d b7 ff ff       	callq  96f3 <transparent_crc>
    df66:	8b 05 48 c0 00 00    	mov    0xc048(%rip),%eax        # 19fb4 <g_257+0x14>
    df6c:	c1 e8 0b             	shr    $0xb,%eax
    df6f:	83 e0 3f             	and    $0x3f,%eax
    df72:	0f b6 c0             	movzbl %al,%eax
    df75:	8b 55 fc             	mov    -0x4(%rbp),%edx
    df78:	48 8d 35 2f 5c 00 00 	lea    0x5c2f(%rip),%rsi        # 13bae <g_1647+0xa6e>
    df7f:	48 89 c7             	mov    %rax,%rdi
    df82:	e8 6c b7 ff ff       	callq  96f3 <transparent_crc>
    df87:	8b 05 2b c0 00 00    	mov    0xc02b(%rip),%eax        # 19fb8 <g_257+0x18>
    df8d:	89 c1                	mov    %eax,%ecx
    df8f:	8b 45 fc             	mov    -0x4(%rbp),%eax
    df92:	89 c2                	mov    %eax,%edx
    df94:	48 8d 35 1f 5c 00 00 	lea    0x5c1f(%rip),%rsi        # 13bba <g_1647+0xa7a>
    df9b:	48 89 cf             	mov    %rcx,%rdi
    df9e:	e8 50 b7 ff ff       	callq  96f3 <transparent_crc>
    dfa3:	c7 45 f0 00 00 00 00 	movl   $0x0,-0x10(%rbp)
    dfaa:	e9 40 07 00 00       	jmpq   e6ef <main+0x1b03>
    dfaf:	8b 45 f0             	mov    -0x10(%rbp),%eax
    dfb2:	48 63 d0             	movslq %eax,%rdx
    dfb5:	48 89 d0             	mov    %rdx,%rax
    dfb8:	48 c1 e0 04          	shl    $0x4,%rax
    dfbc:	48 01 d0             	add    %rdx,%rax
    dfbf:	48 c1 e0 03          	shl    $0x3,%rax
    dfc3:	48 89 c2             	mov    %rax,%rdx
    dfc6:	48 8d 05 f3 bf 00 00 	lea    0xbff3(%rip),%rax        # 19fc0 <g_260>
    dfcd:	48 8b 04 02          	mov    (%rdx,%rax,1),%rax
    dfd1:	8b 55 fc             	mov    -0x4(%rbp),%edx
    dfd4:	48 8d 35 e8 5b 00 00 	lea    0x5be8(%rip),%rsi        # 13bc3 <g_1647+0xa83>
    dfdb:	48 89 c7             	mov    %rax,%rdi
    dfde:	e8 10 b7 ff ff       	callq  96f3 <transparent_crc>
    dfe3:	8b 45 f0             	mov    -0x10(%rbp),%eax
    dfe6:	48 63 d0             	movslq %eax,%rdx
    dfe9:	48 89 d0             	mov    %rdx,%rax
    dfec:	48 c1 e0 04          	shl    $0x4,%rax
    dff0:	48 01 d0             	add    %rdx,%rax
    dff3:	48 c1 e0 03          	shl    $0x3,%rax
    dff7:	48 89 c2             	mov    %rax,%rdx
    dffa:	48 8d 05 bf bf 00 00 	lea    0xbfbf(%rip),%rax        # 19fc0 <g_260>
    e001:	48 8b 44 02 08       	mov    0x8(%rdx,%rax,1),%rax
    e006:	66 25 ff 3f          	and    $0x3fff,%ax
    e00a:	0f b7 c0             	movzwl %ax,%eax
    e00d:	8b 55 fc             	mov    -0x4(%rbp),%edx
    e010:	48 8d 35 b8 5b 00 00 	lea    0x5bb8(%rip),%rsi        # 13bcf <g_1647+0xa8f>
    e017:	48 89 c7             	mov    %rax,%rdi
    e01a:	e8 d4 b6 ff ff       	callq  96f3 <transparent_crc>
    e01f:	8b 45 f0             	mov    -0x10(%rbp),%eax
    e022:	48 63 d0             	movslq %eax,%rdx
    e025:	48 89 d0             	mov    %rdx,%rax
    e028:	48 c1 e0 04          	shl    $0x4,%rax
    e02c:	48 01 d0             	add    %rdx,%rax
    e02f:	48 c1 e0 03          	shl    $0x3,%rax
    e033:	48 89 c2             	mov    %rax,%rdx
    e036:	48 8d 05 83 bf 00 00 	lea    0xbf83(%rip),%rax        # 19fc0 <g_260>
    e03d:	48 8b 44 02 08       	mov    0x8(%rdx,%rax,1),%rax
    e042:	48 c1 e0 03          	shl    $0x3,%rax
    e046:	48 c1 f8 23          	sar    $0x23,%rax
    e04a:	48 98                	cltq   
    e04c:	8b 55 fc             	mov    -0x4(%rbp),%edx
    e04f:	48 8d 35 88 5b 00 00 	lea    0x5b88(%rip),%rsi        # 13bde <g_1647+0xa9e>
    e056:	48 89 c7             	mov    %rax,%rdi
    e059:	e8 95 b6 ff ff       	callq  96f3 <transparent_crc>
    e05e:	8b 45 f0             	mov    -0x10(%rbp),%eax
    e061:	48 63 d0             	movslq %eax,%rdx
    e064:	48 89 d0             	mov    %rdx,%rax
    e067:	48 c1 e0 04          	shl    $0x4,%rax
    e06b:	48 01 d0             	add    %rdx,%rax
    e06e:	48 c1 e0 03          	shl    $0x3,%rax
    e072:	48 89 c2             	mov    %rax,%rdx
    e075:	48 8d 05 44 bf 00 00 	lea    0xbf44(%rip),%rax        # 19fc0 <g_260>
    e07c:	48 8b 44 02 10       	mov    0x10(%rdx,%rax,1),%rax
    e081:	25 ff ff 7f 00       	and    $0x7fffff,%eax
    e086:	89 c1                	mov    %eax,%ecx
    e088:	8b 45 fc             	mov    -0x4(%rbp),%eax
    e08b:	89 c2                	mov    %eax,%edx
    e08d:	48 8d 35 59 5b 00 00 	lea    0x5b59(%rip),%rsi        # 13bed <g_1647+0xaad>
    e094:	48 89 cf             	mov    %rcx,%rdi
    e097:	e8 57 b6 ff ff       	callq  96f3 <transparent_crc>
    e09c:	8b 45 f0             	mov    -0x10(%rbp),%eax
    e09f:	48 63 d0             	movslq %eax,%rdx
    e0a2:	48 89 d0             	mov    %rdx,%rax
    e0a5:	48 c1 e0 04          	shl    $0x4,%rax
    e0a9:	48 01 d0             	add    %rdx,%rax
    e0ac:	48 c1 e0 03          	shl    $0x3,%rax
    e0b0:	48 89 c2             	mov    %rax,%rdx
    e0b3:	48 8d 05 06 bf 00 00 	lea    0xbf06(%rip),%rax        # 19fc0 <g_260>
    e0ba:	48 8b 44 02 10       	mov    0x10(%rdx,%rax,1),%rax
    e0bf:	48 c1 e8 20          	shr    $0x20,%rax
    e0c3:	66 25 ff 0f          	and    $0xfff,%ax
    e0c7:	0f b7 c0             	movzwl %ax,%eax
    e0ca:	8b 55 fc             	mov    -0x4(%rbp),%edx
    e0cd:	48 8d 35 28 5b 00 00 	lea    0x5b28(%rip),%rsi        # 13bfc <g_1647+0xabc>
    e0d4:	48 89 c7             	mov    %rax,%rdi
    e0d7:	e8 17 b6 ff ff       	callq  96f3 <transparent_crc>
    e0dc:	8b 45 f0             	mov    -0x10(%rbp),%eax
    e0df:	48 63 d0             	movslq %eax,%rdx
    e0e2:	48 89 d0             	mov    %rdx,%rax
    e0e5:	48 c1 e0 04          	shl    $0x4,%rax
    e0e9:	48 01 d0             	add    %rdx,%rax
    e0ec:	48 c1 e0 03          	shl    $0x3,%rax
    e0f0:	48 89 c2             	mov    %rax,%rdx
    e0f3:	48 8d 05 d6 be 00 00 	lea    0xbed6(%rip),%rax        # 19fd0 <g_260+0x10>
    e0fa:	48 8b 44 02 08       	mov    0x8(%rdx,%rax,1),%rax
    e0ff:	c1 e0 05             	shl    $0x5,%eax
    e102:	c1 f8 05             	sar    $0x5,%eax
    e105:	48 98                	cltq   
    e107:	8b 55 fc             	mov    -0x4(%rbp),%edx
    e10a:	48 8d 35 fa 5a 00 00 	lea    0x5afa(%rip),%rsi        # 13c0b <g_1647+0xacb>
    e111:	48 89 c7             	mov    %rax,%rdi
    e114:	e8 da b5 ff ff       	callq  96f3 <transparent_crc>
    e119:	8b 45 f0             	mov    -0x10(%rbp),%eax
    e11c:	48 63 d0             	movslq %eax,%rdx
    e11f:	48 89 d0             	mov    %rdx,%rax
    e122:	48 c1 e0 04          	shl    $0x4,%rax
    e126:	48 01 d0             	add    %rdx,%rax
    e129:	48 c1 e0 03          	shl    $0x3,%rax
    e12d:	48 89 c2             	mov    %rax,%rdx
    e130:	48 8d 05 99 be 00 00 	lea    0xbe99(%rip),%rax        # 19fd0 <g_260+0x10>
    e137:	48 8b 44 02 08       	mov    0x8(%rdx,%rax,1),%rax
    e13c:	48 c1 e8 20          	shr    $0x20,%rax
    e140:	25 ff ff 07 00       	and    $0x7ffff,%eax
    e145:	89 c1                	mov    %eax,%ecx
    e147:	8b 45 fc             	mov    -0x4(%rbp),%eax
    e14a:	89 c2                	mov    %eax,%edx
    e14c:	48 8d 35 c7 5a 00 00 	lea    0x5ac7(%rip),%rsi        # 13c1a <g_1647+0xada>
    e153:	48 89 cf             	mov    %rcx,%rdi
    e156:	e8 98 b5 ff ff       	callq  96f3 <transparent_crc>
    e15b:	8b 45 f0             	mov    -0x10(%rbp),%eax
    e15e:	48 63 d0             	movslq %eax,%rdx
    e161:	48 89 d0             	mov    %rdx,%rax
    e164:	48 c1 e0 04          	shl    $0x4,%rax
    e168:	48 01 d0             	add    %rdx,%rax
    e16b:	48 c1 e0 03          	shl    $0x3,%rax
    e16f:	48 89 c2             	mov    %rax,%rdx
    e172:	48 8d 05 57 be 00 00 	lea    0xbe57(%rip),%rax        # 19fd0 <g_260+0x10>
    e179:	48 8b 44 02 10       	mov    0x10(%rdx,%rax,1),%rax
    e17e:	66 25 ff 3f          	and    $0x3fff,%ax
    e182:	0f b7 c0             	movzwl %ax,%eax
    e185:	8b 55 fc             	mov    -0x4(%rbp),%edx
    e188:	48 8d 35 9a 5a 00 00 	lea    0x5a9a(%rip),%rsi        # 13c29 <g_1647+0xae9>
    e18f:	48 89 c7             	mov    %rax,%rdi
    e192:	e8 5c b5 ff ff       	callq  96f3 <transparent_crc>
    e197:	8b 45 f0             	mov    -0x10(%rbp),%eax
    e19a:	48 63 d0             	movslq %eax,%rdx
    e19d:	48 89 d0             	mov    %rdx,%rax
    e1a0:	48 c1 e0 04          	shl    $0x4,%rax
    e1a4:	48 01 d0             	add    %rdx,%rax
    e1a7:	48 c1 e0 03          	shl    $0x3,%rax
    e1ab:	48 89 c2             	mov    %rax,%rdx
    e1ae:	48 8d 05 1b be 00 00 	lea    0xbe1b(%rip),%rax        # 19fd0 <g_260+0x10>
    e1b5:	48 8b 44 02 10       	mov    0x10(%rdx,%rax,1),%rax
    e1ba:	48 c1 e0 0b          	shl    $0xb,%rax
    e1be:	48 c1 f8 2b          	sar    $0x2b,%rax
    e1c2:	48 98                	cltq   
    e1c4:	8b 55 fc             	mov    -0x4(%rbp),%edx
    e1c7:	48 8d 35 6a 5a 00 00 	lea    0x5a6a(%rip),%rsi        # 13c38 <g_1647+0xaf8>
    e1ce:	48 89 c7             	mov    %rax,%rdi
    e1d1:	e8 1d b5 ff ff       	callq  96f3 <transparent_crc>
    e1d6:	8b 45 f0             	mov    -0x10(%rbp),%eax
    e1d9:	48 63 d0             	movslq %eax,%rdx
    e1dc:	48 89 d0             	mov    %rdx,%rax
    e1df:	48 c1 e0 04          	shl    $0x4,%rax
    e1e3:	48 01 d0             	add    %rdx,%rax
    e1e6:	48 c1 e0 03          	shl    $0x3,%rax
    e1ea:	48 89 c2             	mov    %rax,%rdx
    e1ed:	48 8d 05 ec bd 00 00 	lea    0xbdec(%rip),%rax        # 19fe0 <g_260+0x20>
    e1f4:	48 8b 44 02 08       	mov    0x8(%rdx,%rax,1),%rax
    e1f9:	c1 e0 0c             	shl    $0xc,%eax
    e1fc:	c1 f8 0c             	sar    $0xc,%eax
    e1ff:	48 98                	cltq   
    e201:	8b 55 fc             	mov    -0x4(%rbp),%edx
    e204:	48 8d 35 3c 5a 00 00 	lea    0x5a3c(%rip),%rsi        # 13c47 <g_1647+0xb07>
    e20b:	48 89 c7             	mov    %rax,%rdi
    e20e:	e8 e0 b4 ff ff       	callq  96f3 <transparent_crc>
    e213:	8b 45 f0             	mov    -0x10(%rbp),%eax
    e216:	48 63 d0             	movslq %eax,%rdx
    e219:	48 89 d0             	mov    %rdx,%rax
    e21c:	48 c1 e0 04          	shl    $0x4,%rax
    e220:	48 01 d0             	add    %rdx,%rax
    e223:	48 c1 e0 03          	shl    $0x3,%rax
    e227:	48 89 c2             	mov    %rax,%rdx
    e22a:	48 8d 05 af bd 00 00 	lea    0xbdaf(%rip),%rax        # 19fe0 <g_260+0x20>
    e231:	48 8b 44 02 08       	mov    0x8(%rdx,%rax,1),%rax
    e236:	c1 f8 14             	sar    $0x14,%eax
    e239:	48 0f bf c0          	movswq %ax,%rax
    e23d:	8b 55 fc             	mov    -0x4(%rbp),%edx
    e240:	48 8d 35 0f 5a 00 00 	lea    0x5a0f(%rip),%rsi        # 13c56 <g_1647+0xb16>
    e247:	48 89 c7             	mov    %rax,%rdi
    e24a:	e8 a4 b4 ff ff       	callq  96f3 <transparent_crc>
    e24f:	8b 45 f0             	mov    -0x10(%rbp),%eax
    e252:	48 63 d0             	movslq %eax,%rdx
    e255:	48 89 d0             	mov    %rdx,%rax
    e258:	48 c1 e0 04          	shl    $0x4,%rax
    e25c:	48 01 d0             	add    %rdx,%rax
    e25f:	48 c1 e0 03          	shl    $0x3,%rax
    e263:	48 89 c2             	mov    %rax,%rdx
    e266:	48 8d 05 83 bd 00 00 	lea    0xbd83(%rip),%rax        # 19ff0 <g_260+0x30>
    e26d:	0f b6 04 02          	movzbl (%rdx,%rax,1),%eax
    e271:	0f b6 c0             	movzbl %al,%eax
    e274:	8b 55 fc             	mov    -0x4(%rbp),%edx
    e277:	48 8d 35 e7 59 00 00 	lea    0x59e7(%rip),%rsi        # 13c65 <g_1647+0xb25>
    e27e:	48 89 c7             	mov    %rax,%rdi
    e281:	e8 6d b4 ff ff       	callq  96f3 <transparent_crc>
    e286:	8b 45 f0             	mov    -0x10(%rbp),%eax
    e289:	48 63 d0             	movslq %eax,%rdx
    e28c:	48 89 d0             	mov    %rdx,%rax
    e28f:	48 c1 e0 04          	shl    $0x4,%rax
    e293:	48 01 d0             	add    %rdx,%rax
    e296:	48 c1 e0 03          	shl    $0x3,%rax
    e29a:	48 89 c2             	mov    %rax,%rdx
    e29d:	48 8d 05 54 bd 00 00 	lea    0xbd54(%rip),%rax        # 19ff8 <g_260+0x38>
    e2a4:	48 8b 04 02          	mov    (%rdx,%rax,1),%rax
    e2a8:	48 89 c1             	mov    %rax,%rcx
    e2ab:	8b 45 fc             	mov    -0x4(%rbp),%eax
    e2ae:	89 c2                	mov    %eax,%edx
    e2b0:	48 8d 35 bd 59 00 00 	lea    0x59bd(%rip),%rsi        # 13c74 <g_1647+0xb34>
    e2b7:	48 89 cf             	mov    %rcx,%rdi
    e2ba:	e8 34 b4 ff ff       	callq  96f3 <transparent_crc>
    e2bf:	8b 45 f0             	mov    -0x10(%rbp),%eax
    e2c2:	48 63 d0             	movslq %eax,%rdx
    e2c5:	48 89 d0             	mov    %rdx,%rax
    e2c8:	48 c1 e0 04          	shl    $0x4,%rax
    e2cc:	48 01 d0             	add    %rdx,%rax
    e2cf:	48 c1 e0 03          	shl    $0x3,%rax
    e2d3:	48 89 c2             	mov    %rax,%rdx
    e2d6:	48 8d 05 23 bd 00 00 	lea    0xbd23(%rip),%rax        # 1a000 <g_260+0x40>
    e2dd:	0f b6 04 02          	movzbl (%rdx,%rax,1),%eax
    e2e1:	48 0f be c0          	movsbq %al,%rax
    e2e5:	8b 55 fc             	mov    -0x4(%rbp),%edx
    e2e8:	48 8d 35 94 59 00 00 	lea    0x5994(%rip),%rsi        # 13c83 <g_1647+0xb43>
    e2ef:	48 89 c7             	mov    %rax,%rdi
    e2f2:	e8 fc b3 ff ff       	callq  96f3 <transparent_crc>
    e2f7:	8b 45 f0             	mov    -0x10(%rbp),%eax
    e2fa:	48 63 d0             	movslq %eax,%rdx
    e2fd:	48 89 d0             	mov    %rdx,%rax
    e300:	48 c1 e0 04          	shl    $0x4,%rax
    e304:	48 01 d0             	add    %rdx,%rax
    e307:	48 c1 e0 03          	shl    $0x3,%rax
    e30b:	48 89 c2             	mov    %rax,%rdx
    e30e:	48 8d 05 ed bc 00 00 	lea    0xbced(%rip),%rax        # 1a002 <g_260+0x42>
    e315:	0f b7 04 02          	movzwl (%rdx,%rax,1),%eax
    e319:	0f b7 c0             	movzwl %ax,%eax
    e31c:	8b 55 fc             	mov    -0x4(%rbp),%edx
    e31f:	48 8d 35 6c 59 00 00 	lea    0x596c(%rip),%rsi        # 13c92 <g_1647+0xb52>
    e326:	48 89 c7             	mov    %rax,%rdi
    e329:	e8 c5 b3 ff ff       	callq  96f3 <transparent_crc>
    e32e:	8b 45 f0             	mov    -0x10(%rbp),%eax
    e331:	48 63 d0             	movslq %eax,%rdx
    e334:	48 89 d0             	mov    %rdx,%rax
    e337:	48 c1 e0 04          	shl    $0x4,%rax
    e33b:	48 01 d0             	add    %rdx,%rax
    e33e:	48 c1 e0 03          	shl    $0x3,%rax
    e342:	48 89 c2             	mov    %rax,%rdx
    e345:	48 8d 05 b4 bc 00 00 	lea    0xbcb4(%rip),%rax        # 1a000 <g_260+0x40>
    e34c:	48 8b 04 02          	mov    (%rdx,%rax,1),%rax
    e350:	48 c1 e0 15          	shl    $0x15,%rax
    e354:	48 c1 f8 35          	sar    $0x35,%rax
    e358:	48 0f bf c0          	movswq %ax,%rax
    e35c:	8b 55 fc             	mov    -0x4(%rbp),%edx
    e35f:	48 8d 35 3b 59 00 00 	lea    0x593b(%rip),%rsi        # 13ca1 <g_1647+0xb61>
    e366:	48 89 c7             	mov    %rax,%rdi
    e369:	e8 85 b3 ff ff       	callq  96f3 <transparent_crc>
    e36e:	8b 45 f0             	mov    -0x10(%rbp),%eax
    e371:	48 63 d0             	movslq %eax,%rdx
    e374:	48 89 d0             	mov    %rdx,%rax
    e377:	48 c1 e0 04          	shl    $0x4,%rax
    e37b:	48 01 d0             	add    %rdx,%rax
    e37e:	48 c1 e0 03          	shl    $0x3,%rax
    e382:	48 89 c2             	mov    %rax,%rdx
    e385:	48 8d 05 74 bc 00 00 	lea    0xbc74(%rip),%rax        # 1a000 <g_260+0x40>
    e38c:	48 8b 04 02          	mov    (%rdx,%rax,1),%rax
    e390:	48 c1 e8 2b          	shr    $0x2b,%rax
    e394:	83 e0 3f             	and    $0x3f,%eax
    e397:	0f b6 c0             	movzbl %al,%eax
    e39a:	8b 55 fc             	mov    -0x4(%rbp),%edx
    e39d:	48 8d 35 0f 59 00 00 	lea    0x590f(%rip),%rsi        # 13cb3 <g_1647+0xb73>
    e3a4:	48 89 c7             	mov    %rax,%rdi
    e3a7:	e8 47 b3 ff ff       	callq  96f3 <transparent_crc>
    e3ac:	8b 45 f0             	mov    -0x10(%rbp),%eax
    e3af:	48 63 d0             	movslq %eax,%rdx
    e3b2:	48 89 d0             	mov    %rdx,%rax
    e3b5:	48 c1 e0 04          	shl    $0x4,%rax
    e3b9:	48 01 d0             	add    %rdx,%rax
    e3bc:	48 c1 e0 03          	shl    $0x3,%rax
    e3c0:	48 89 c2             	mov    %rax,%rdx
    e3c3:	48 8d 05 3e bc 00 00 	lea    0xbc3e(%rip),%rax        # 1a008 <g_260+0x48>
    e3ca:	8b 04 02             	mov    (%rdx,%rax,1),%eax
    e3cd:	89 c1                	mov    %eax,%ecx
    e3cf:	8b 45 fc             	mov    -0x4(%rbp),%eax
    e3d2:	89 c2                	mov    %eax,%edx
    e3d4:	48 8d 35 ea 58 00 00 	lea    0x58ea(%rip),%rsi        # 13cc5 <g_1647+0xb85>
    e3db:	48 89 cf             	mov    %rcx,%rdi
    e3de:	e8 10 b3 ff ff       	callq  96f3 <transparent_crc>
    e3e3:	8b 45 f0             	mov    -0x10(%rbp),%eax
    e3e6:	48 63 d0             	movslq %eax,%rdx
    e3e9:	48 89 d0             	mov    %rdx,%rax
    e3ec:	48 c1 e0 04          	shl    $0x4,%rax
    e3f0:	48 01 d0             	add    %rdx,%rax
    e3f3:	48 c1 e0 03          	shl    $0x3,%rax
    e3f7:	48 89 c2             	mov    %rax,%rdx
    e3fa:	48 8d 05 0f bc 00 00 	lea    0xbc0f(%rip),%rax        # 1a010 <g_260+0x50>
    e401:	48 8b 04 02          	mov    (%rdx,%rax,1),%rax
    e405:	8b 55 fc             	mov    -0x4(%rbp),%edx
    e408:	48 8d 35 c5 58 00 00 	lea    0x58c5(%rip),%rsi        # 13cd4 <g_1647+0xb94>
    e40f:	48 89 c7             	mov    %rax,%rdi
    e412:	e8 dc b2 ff ff       	callq  96f3 <transparent_crc>
    e417:	8b 45 f0             	mov    -0x10(%rbp),%eax
    e41a:	48 63 d0             	movslq %eax,%rdx
    e41d:	48 89 d0             	mov    %rdx,%rax
    e420:	48 c1 e0 04          	shl    $0x4,%rax
    e424:	48 01 d0             	add    %rdx,%rax
    e427:	48 c1 e0 03          	shl    $0x3,%rax
    e42b:	48 89 c2             	mov    %rax,%rdx
    e42e:	48 8d 05 e3 bb 00 00 	lea    0xbbe3(%rip),%rax        # 1a018 <g_260+0x58>
    e435:	0f b7 04 02          	movzwl (%rdx,%rax,1),%eax
    e439:	0f b7 c0             	movzwl %ax,%eax
    e43c:	8b 55 fc             	mov    -0x4(%rbp),%edx
    e43f:	48 8d 35 9d 58 00 00 	lea    0x589d(%rip),%rsi        # 13ce3 <g_1647+0xba3>
    e446:	48 89 c7             	mov    %rax,%rdi
    e449:	e8 a5 b2 ff ff       	callq  96f3 <transparent_crc>
    e44e:	8b 45 f0             	mov    -0x10(%rbp),%eax
    e451:	48 63 d0             	movslq %eax,%rdx
    e454:	48 89 d0             	mov    %rdx,%rax
    e457:	48 c1 e0 04          	shl    $0x4,%rax
    e45b:	48 01 d0             	add    %rdx,%rax
    e45e:	48 c1 e0 03          	shl    $0x3,%rax
    e462:	48 89 c2             	mov    %rax,%rdx
    e465:	48 8d 05 a4 bb 00 00 	lea    0xbba4(%rip),%rax        # 1a010 <g_260+0x50>
    e46c:	48 8b 44 02 08       	mov    0x8(%rdx,%rax,1),%rax
    e471:	48 c1 e0 1a          	shl    $0x1a,%rax
    e475:	48 c1 f8 2a          	sar    $0x2a,%rax
    e479:	48 98                	cltq   
    e47b:	8b 55 fc             	mov    -0x4(%rbp),%edx
    e47e:	48 8d 35 6d 58 00 00 	lea    0x586d(%rip),%rsi        # 13cf2 <g_1647+0xbb2>
    e485:	48 89 c7             	mov    %rax,%rdi
    e488:	e8 66 b2 ff ff       	callq  96f3 <transparent_crc>
    e48d:	8b 45 f0             	mov    -0x10(%rbp),%eax
    e490:	48 63 d0             	movslq %eax,%rdx
    e493:	48 89 d0             	mov    %rdx,%rax
    e496:	48 c1 e0 04          	shl    $0x4,%rax
    e49a:	48 01 d0             	add    %rdx,%rax
    e49d:	48 c1 e0 03          	shl    $0x3,%rax
    e4a1:	48 89 c2             	mov    %rax,%rdx
    e4a4:	48 8d 05 65 bb 00 00 	lea    0xbb65(%rip),%rax        # 1a010 <g_260+0x50>
    e4ab:	8b 44 02 0d          	mov    0xd(%rdx,%rax,1),%eax
    e4af:	48 98                	cltq   
    e4b1:	8b 55 fc             	mov    -0x4(%rbp),%edx
    e4b4:	48 8d 35 46 58 00 00 	lea    0x5846(%rip),%rsi        # 13d01 <g_1647+0xbc1>
    e4bb:	48 89 c7             	mov    %rax,%rdi
    e4be:	e8 30 b2 ff ff       	callq  96f3 <transparent_crc>
    e4c3:	8b 45 f0             	mov    -0x10(%rbp),%eax
    e4c6:	48 63 d0             	movslq %eax,%rdx
    e4c9:	48 89 d0             	mov    %rdx,%rax
    e4cc:	48 c1 e0 04          	shl    $0x4,%rax
    e4d0:	48 01 d0             	add    %rdx,%rax
    e4d3:	48 c1 e0 03          	shl    $0x3,%rax
    e4d7:	48 89 c2             	mov    %rax,%rdx
    e4da:	48 8d 05 43 bb 00 00 	lea    0xbb43(%rip),%rax        # 1a024 <g_260+0x64>
    e4e1:	8b 04 02             	mov    (%rdx,%rax,1),%eax
    e4e4:	48 98                	cltq   
    e4e6:	8b 55 fc             	mov    -0x4(%rbp),%edx
    e4e9:	48 8d 35 20 58 00 00 	lea    0x5820(%rip),%rsi        # 13d10 <g_1647+0xbd0>
    e4f0:	48 89 c7             	mov    %rax,%rdi
    e4f3:	e8 fb b1 ff ff       	callq  96f3 <transparent_crc>
    e4f8:	8b 45 f0             	mov    -0x10(%rbp),%eax
    e4fb:	48 63 d0             	movslq %eax,%rdx
    e4fe:	48 89 d0             	mov    %rdx,%rax
    e501:	48 c1 e0 04          	shl    $0x4,%rax
    e505:	48 01 d0             	add    %rdx,%rax
    e508:	48 c1 e0 03          	shl    $0x3,%rax
    e50c:	48 89 c2             	mov    %rax,%rdx
    e50f:	48 8d 05 12 bb 00 00 	lea    0xbb12(%rip),%rax        # 1a028 <g_260+0x68>
    e516:	0f b7 04 02          	movzwl (%rdx,%rax,1),%eax
    e51a:	0f b7 c0             	movzwl %ax,%eax
    e51d:	8b 55 fc             	mov    -0x4(%rbp),%edx
    e520:	48 8d 35 f5 57 00 00 	lea    0x57f5(%rip),%rsi        # 13d1c <g_1647+0xbdc>
    e527:	48 89 c7             	mov    %rax,%rdi
    e52a:	e8 c4 b1 ff ff       	callq  96f3 <transparent_crc>
    e52f:	8b 45 f0             	mov    -0x10(%rbp),%eax
    e532:	48 63 d0             	movslq %eax,%rdx
    e535:	48 89 d0             	mov    %rdx,%rax
    e538:	48 c1 e0 04          	shl    $0x4,%rax
    e53c:	48 01 d0             	add    %rdx,%rax
    e53f:	48 c1 e0 03          	shl    $0x3,%rax
    e543:	48 89 c2             	mov    %rax,%rdx
    e546:	48 8d 05 d3 ba 00 00 	lea    0xbad3(%rip),%rax        # 1a020 <g_260+0x60>
    e54d:	48 8b 44 02 08       	mov    0x8(%rdx,%rax,1),%rax
    e552:	48 c1 e8 20          	shr    $0x20,%rax
    e556:	25 ff ff ff 00       	and    $0xffffff,%eax
    e55b:	89 c1                	mov    %eax,%ecx
    e55d:	8b 45 fc             	mov    -0x4(%rbp),%eax
    e560:	89 c2                	mov    %eax,%edx
    e562:	48 8d 35 bf 57 00 00 	lea    0x57bf(%rip),%rsi        # 13d28 <g_1647+0xbe8>
    e569:	48 89 cf             	mov    %rcx,%rdi
    e56c:	e8 82 b1 ff ff       	callq  96f3 <transparent_crc>
    e571:	8b 45 f0             	mov    -0x10(%rbp),%eax
    e574:	48 63 d0             	movslq %eax,%rdx
    e577:	48 89 d0             	mov    %rdx,%rax
    e57a:	48 c1 e0 04          	shl    $0x4,%rax
    e57e:	48 01 d0             	add    %rdx,%rax
    e581:	48 c1 e0 03          	shl    $0x3,%rax
    e585:	48 89 c2             	mov    %rax,%rdx
    e588:	48 8d 05 a1 ba 00 00 	lea    0xbaa1(%rip),%rax        # 1a030 <g_260+0x70>
    e58f:	0f b7 04 02          	movzwl (%rdx,%rax,1),%eax
    e593:	0f b7 c0             	movzwl %ax,%eax
    e596:	8b 55 fc             	mov    -0x4(%rbp),%edx
    e599:	48 8d 35 94 57 00 00 	lea    0x5794(%rip),%rsi        # 13d34 <g_1647+0xbf4>
    e5a0:	48 89 c7             	mov    %rax,%rdi
    e5a3:	e8 4b b1 ff ff       	callq  96f3 <transparent_crc>
    e5a8:	8b 45 f0             	mov    -0x10(%rbp),%eax
    e5ab:	48 63 d0             	movslq %eax,%rdx
    e5ae:	48 89 d0             	mov    %rdx,%rax
    e5b1:	48 c1 e0 04          	shl    $0x4,%rax
    e5b5:	48 01 d0             	add    %rdx,%rax
    e5b8:	48 c1 e0 03          	shl    $0x3,%rax
    e5bc:	48 89 c2             	mov    %rax,%rdx
    e5bf:	48 8d 05 6a ba 00 00 	lea    0xba6a(%rip),%rax        # 1a030 <g_260+0x70>
    e5c6:	48 8b 04 02          	mov    (%rdx,%rax,1),%rax
    e5ca:	48 c1 e0 0f          	shl    $0xf,%rax
    e5ce:	48 c1 f8 2f          	sar    $0x2f,%rax
    e5d2:	48 98                	cltq   
    e5d4:	8b 55 fc             	mov    -0x4(%rbp),%edx
    e5d7:	48 8d 35 65 57 00 00 	lea    0x5765(%rip),%rsi        # 13d43 <g_1647+0xc03>
    e5de:	48 89 c7             	mov    %rax,%rdi
    e5e1:	e8 0d b1 ff ff       	callq  96f3 <transparent_crc>
    e5e6:	8b 45 f0             	mov    -0x10(%rbp),%eax
    e5e9:	48 63 d0             	movslq %eax,%rdx
    e5ec:	48 89 d0             	mov    %rdx,%rax
    e5ef:	48 c1 e0 04          	shl    $0x4,%rax
    e5f3:	48 01 d0             	add    %rdx,%rax
    e5f6:	48 c1 e0 03          	shl    $0x3,%rax
    e5fa:	48 89 c2             	mov    %rax,%rdx
    e5fd:	48 8d 05 2c ba 00 00 	lea    0xba2c(%rip),%rax        # 1a030 <g_260+0x70>
    e604:	48 8b 04 02          	mov    (%rdx,%rax,1),%rax
    e608:	48 c1 e8 31          	shr    $0x31,%rax
    e60c:	83 e0 07             	and    $0x7,%eax
    e60f:	0f b6 c0             	movzbl %al,%eax
    e612:	8b 55 fc             	mov    -0x4(%rbp),%edx
    e615:	48 8d 35 36 57 00 00 	lea    0x5736(%rip),%rsi        # 13d52 <g_1647+0xc12>
    e61c:	48 89 c7             	mov    %rax,%rdi
    e61f:	e8 cf b0 ff ff       	callq  96f3 <transparent_crc>
    e624:	8b 45 f0             	mov    -0x10(%rbp),%eax
    e627:	48 63 d0             	movslq %eax,%rdx
    e62a:	48 89 d0             	mov    %rdx,%rax
    e62d:	48 c1 e0 04          	shl    $0x4,%rax
    e631:	48 01 d0             	add    %rdx,%rax
    e634:	48 c1 e0 03          	shl    $0x3,%rax
    e638:	48 89 c2             	mov    %rax,%rdx
    e63b:	48 8d 05 ee b9 00 00 	lea    0xb9ee(%rip),%rax        # 1a030 <g_260+0x70>
    e642:	48 8b 44 02 08       	mov    0x8(%rdx,%rax,1),%rax
    e647:	c1 e0 0b             	shl    $0xb,%eax
    e64a:	c1 f8 0b             	sar    $0xb,%eax
    e64d:	48 98                	cltq   
    e64f:	8b 55 fc             	mov    -0x4(%rbp),%edx
    e652:	48 8d 35 08 57 00 00 	lea    0x5708(%rip),%rsi        # 13d61 <g_1647+0xc21>
    e659:	48 89 c7             	mov    %rax,%rdi
    e65c:	e8 92 b0 ff ff       	callq  96f3 <transparent_crc>
    e661:	8b 45 f0             	mov    -0x10(%rbp),%eax
    e664:	48 63 d0             	movslq %eax,%rdx
    e667:	48 89 d0             	mov    %rdx,%rax
    e66a:	48 c1 e0 04          	shl    $0x4,%rax
    e66e:	48 01 d0             	add    %rdx,%rax
    e671:	48 c1 e0 03          	shl    $0x3,%rax
    e675:	48 89 c2             	mov    %rax,%rdx
    e678:	48 8d 05 bd b9 00 00 	lea    0xb9bd(%rip),%rax        # 1a03c <g_260+0x7c>
    e67f:	8b 04 02             	mov    (%rdx,%rax,1),%eax
    e682:	89 c1                	mov    %eax,%ecx
    e684:	8b 45 fc             	mov    -0x4(%rbp),%eax
    e687:	89 c2                	mov    %eax,%edx
    e689:	48 8d 35 e0 56 00 00 	lea    0x56e0(%rip),%rsi        # 13d70 <g_1647+0xc30>
    e690:	48 89 cf             	mov    %rcx,%rdi
    e693:	e8 5b b0 ff ff       	callq  96f3 <transparent_crc>
    e698:	8b 45 f0             	mov    -0x10(%rbp),%eax
    e69b:	48 63 d0             	movslq %eax,%rdx
    e69e:	48 89 d0             	mov    %rdx,%rax
    e6a1:	48 c1 e0 04          	shl    $0x4,%rax
    e6a5:	48 01 d0             	add    %rdx,%rax
    e6a8:	48 c1 e0 03          	shl    $0x3,%rax
    e6ac:	48 89 c2             	mov    %rax,%rdx
    e6af:	48 8d 05 8a b9 00 00 	lea    0xb98a(%rip),%rax        # 1a040 <g_260+0x80>
    e6b6:	8b 04 02             	mov    (%rdx,%rax,1),%eax
    e6b9:	89 c1                	mov    %eax,%ecx
    e6bb:	8b 45 fc             	mov    -0x4(%rbp),%eax
    e6be:	89 c2                	mov    %eax,%edx
    e6c0:	48 8d 35 b5 56 00 00 	lea    0x56b5(%rip),%rsi        # 13d7c <g_1647+0xc3c>
    e6c7:	48 89 cf             	mov    %rcx,%rdi
    e6ca:	e8 24 b0 ff ff       	callq  96f3 <transparent_crc>
    e6cf:	83 7d fc 00          	cmpl   $0x0,-0x4(%rbp)
    e6d3:	74 16                	je     e6eb <main+0x1aff>
    e6d5:	8b 45 f0             	mov    -0x10(%rbp),%eax
    e6d8:	89 c6                	mov    %eax,%esi
    e6da:	48 8d 3d dc 4f 00 00 	lea    0x4fdc(%rip),%rdi        # 136bd <g_1647+0x57d>
    e6e1:	b8 00 00 00 00       	mov    $0x0,%eax
    e6e6:	e8 95 99 ff ff       	callq  8080 <printf@plt>
    e6eb:	83 45 f0 01          	addl   $0x1,-0x10(%rbp)
    e6ef:	83 7d f0 03          	cmpl   $0x3,-0x10(%rbp)
    e6f3:	0f 8e b6 f8 ff ff    	jle    dfaf <main+0x13c3>
    e6f9:	48 c7 c1 f8 ff ff ff 	mov    $0xfffffffffffffff8,%rcx
    e700:	8b 45 fc             	mov    -0x4(%rbp),%eax
    e703:	89 c2                	mov    %eax,%edx
    e705:	48 8d 35 7c 56 00 00 	lea    0x567c(%rip),%rsi        # 13d88 <g_1647+0xc48>
    e70c:	48 89 cf             	mov    %rcx,%rdi
    e70f:	e8 df af ff ff       	callq  96f3 <transparent_crc>
    e714:	0f b7 05 c5 ba 00 00 	movzwl 0xbac5(%rip),%eax        # 1a1e0 <g_281>
    e71b:	0f b7 c0             	movzwl %ax,%eax
    e71e:	8b 55 fc             	mov    -0x4(%rbp),%edx
    e721:	48 8d 35 66 56 00 00 	lea    0x5666(%rip),%rsi        # 13d8e <g_1647+0xc4e>
    e728:	48 89 c7             	mov    %rax,%rdi
    e72b:	e8 c3 af ff ff       	callq  96f3 <transparent_crc>
    e730:	8b 05 ae ba 00 00    	mov    0xbaae(%rip),%eax        # 1a1e4 <g_281+0x4>
    e736:	c1 e0 0f             	shl    $0xf,%eax
    e739:	c1 f8 0f             	sar    $0xf,%eax
    e73c:	48 98                	cltq   
    e73e:	8b 55 fc             	mov    -0x4(%rbp),%edx
    e741:	48 8d 35 4f 56 00 00 	lea    0x564f(%rip),%rsi        # 13d97 <g_1647+0xc57>
    e748:	48 89 c7             	mov    %rax,%rdi
    e74b:	e8 a3 af ff ff       	callq  96f3 <transparent_crc>
    e750:	0f b6 05 8f ba 00 00 	movzbl 0xba8f(%rip),%eax        # 1a1e6 <g_281+0x6>
    e757:	d0 e8                	shr    %al
    e759:	83 e0 07             	and    $0x7,%eax
    e75c:	0f b6 c0             	movzbl %al,%eax
    e75f:	8b 55 fc             	mov    -0x4(%rbp),%edx
    e762:	48 8d 35 37 56 00 00 	lea    0x5637(%rip),%rsi        # 13da0 <g_1647+0xc60>
    e769:	48 89 c7             	mov    %rax,%rdi
    e76c:	e8 82 af ff ff       	callq  96f3 <transparent_crc>
    e771:	8b 05 71 ba 00 00    	mov    0xba71(%rip),%eax        # 1a1e8 <g_281+0x8>
    e777:	c1 e0 0b             	shl    $0xb,%eax
    e77a:	c1 f8 0b             	sar    $0xb,%eax
    e77d:	48 98                	cltq   
    e77f:	8b 55 fc             	mov    -0x4(%rbp),%edx
    e782:	48 8d 35 20 56 00 00 	lea    0x5620(%rip),%rsi        # 13da9 <g_1647+0xc69>
    e789:	48 89 c7             	mov    %rax,%rdi
    e78c:	e8 62 af ff ff       	callq  96f3 <transparent_crc>
    e791:	c7 45 f0 00 00 00 00 	movl   $0x0,-0x10(%rbp)
    e798:	e9 82 01 00 00       	jmpq   e91f <main+0x1d33>
    e79d:	8b 45 f0             	mov    -0x10(%rbp),%eax
    e7a0:	48 98                	cltq   
    e7a2:	48 c1 e0 05          	shl    $0x5,%rax
    e7a6:	48 89 c2             	mov    %rax,%rdx
    e7a9:	48 8d 05 50 ba 00 00 	lea    0xba50(%rip),%rax        # 1a200 <g_296>
    e7b0:	48 8b 04 02          	mov    (%rdx,%rax,1),%rax
    e7b4:	c1 e0 03             	shl    $0x3,%eax
    e7b7:	66 c1 f8 03          	sar    $0x3,%ax
    e7bb:	48 0f bf c0          	movswq %ax,%rax
    e7bf:	8b 55 fc             	mov    -0x4(%rbp),%edx
    e7c2:	48 8d 35 e9 55 00 00 	lea    0x55e9(%rip),%rsi        # 13db2 <g_1647+0xc72>
    e7c9:	48 89 c7             	mov    %rax,%rdi
    e7cc:	e8 22 af ff ff       	callq  96f3 <transparent_crc>
    e7d1:	8b 45 f0             	mov    -0x10(%rbp),%eax
    e7d4:	48 98                	cltq   
    e7d6:	48 c1 e0 05          	shl    $0x5,%rax
    e7da:	48 89 c2             	mov    %rax,%rdx
    e7dd:	48 8d 05 1c ba 00 00 	lea    0xba1c(%rip),%rax        # 1a200 <g_296>
    e7e4:	48 8b 04 02          	mov    (%rdx,%rax,1),%rax
    e7e8:	48 c1 e0 06          	shl    $0x6,%rax
    e7ec:	48 c1 f8 26          	sar    $0x26,%rax
    e7f0:	48 98                	cltq   
    e7f2:	8b 55 fc             	mov    -0x4(%rbp),%edx
    e7f5:	48 8d 35 c2 55 00 00 	lea    0x55c2(%rip),%rsi        # 13dbe <g_1647+0xc7e>
    e7fc:	48 89 c7             	mov    %rax,%rdi
    e7ff:	e8 ef ae ff ff       	callq  96f3 <transparent_crc>
    e804:	8b 45 f0             	mov    -0x10(%rbp),%eax
    e807:	48 98                	cltq   
    e809:	48 c1 e0 05          	shl    $0x5,%rax
    e80d:	48 89 c2             	mov    %rax,%rdx
    e810:	48 8d 05 e9 b9 00 00 	lea    0xb9e9(%rip),%rax        # 1a200 <g_296>
    e817:	48 8b 44 02 08       	mov    0x8(%rdx,%rax,1),%rax
    e81c:	c1 e0 0d             	shl    $0xd,%eax
    e81f:	c1 f8 0d             	sar    $0xd,%eax
    e822:	48 98                	cltq   
    e824:	8b 55 fc             	mov    -0x4(%rbp),%edx
    e827:	48 8d 35 9c 55 00 00 	lea    0x559c(%rip),%rsi        # 13dca <g_1647+0xc8a>
    e82e:	48 89 c7             	mov    %rax,%rdi
    e831:	e8 bd ae ff ff       	callq  96f3 <transparent_crc>
    e836:	8b 45 f0             	mov    -0x10(%rbp),%eax
    e839:	48 98                	cltq   
    e83b:	48 c1 e0 05          	shl    $0x5,%rax
    e83f:	48 89 c2             	mov    %rax,%rdx
    e842:	48 8d 05 c7 b9 00 00 	lea    0xb9c7(%rip),%rax        # 1a210 <g_296+0x10>
    e849:	48 8b 04 02          	mov    (%rdx,%rax,1),%rax
    e84d:	8b 55 fc             	mov    -0x4(%rbp),%edx
    e850:	48 8d 35 7f 55 00 00 	lea    0x557f(%rip),%rsi        # 13dd6 <g_1647+0xc96>
    e857:	48 89 c7             	mov    %rax,%rdi
    e85a:	e8 94 ae ff ff       	callq  96f3 <transparent_crc>
    e85f:	8b 45 f0             	mov    -0x10(%rbp),%eax
    e862:	48 98                	cltq   
    e864:	48 c1 e0 05          	shl    $0x5,%rax
    e868:	48 89 c2             	mov    %rax,%rdx
    e86b:	48 8d 05 9e b9 00 00 	lea    0xb99e(%rip),%rax        # 1a210 <g_296+0x10>
    e872:	48 8b 44 02 08       	mov    0x8(%rdx,%rax,1),%rax
    e877:	25 ff ff 7f 00       	and    $0x7fffff,%eax
    e87c:	89 c1                	mov    %eax,%ecx
    e87e:	8b 45 fc             	mov    -0x4(%rbp),%eax
    e881:	89 c2                	mov    %eax,%edx
    e883:	48 8d 35 58 55 00 00 	lea    0x5558(%rip),%rsi        # 13de2 <g_1647+0xca2>
    e88a:	48 89 cf             	mov    %rcx,%rdi
    e88d:	e8 61 ae ff ff       	callq  96f3 <transparent_crc>
    e892:	8b 45 f0             	mov    -0x10(%rbp),%eax
    e895:	48 98                	cltq   
    e897:	48 c1 e0 05          	shl    $0x5,%rax
    e89b:	48 89 c2             	mov    %rax,%rdx
    e89e:	48 8d 05 6b b9 00 00 	lea    0xb96b(%rip),%rax        # 1a210 <g_296+0x10>
    e8a5:	48 8b 44 02 08       	mov    0x8(%rdx,%rax,1),%rax
    e8aa:	48 c1 e8 20          	shr    $0x20,%rax
    e8ae:	25 ff ff 0f 00       	and    $0xfffff,%eax
    e8b3:	89 c1                	mov    %eax,%ecx
    e8b5:	8b 45 fc             	mov    -0x4(%rbp),%eax
    e8b8:	89 c2                	mov    %eax,%edx
    e8ba:	48 8d 35 2d 55 00 00 	lea    0x552d(%rip),%rsi        # 13dee <g_1647+0xcae>
    e8c1:	48 89 cf             	mov    %rcx,%rdi
    e8c4:	e8 2a ae ff ff       	callq  96f3 <transparent_crc>
    e8c9:	8b 45 f0             	mov    -0x10(%rbp),%eax
    e8cc:	48 98                	cltq   
    e8ce:	48 c1 e0 05          	shl    $0x5,%rax
    e8d2:	48 89 c2             	mov    %rax,%rdx
    e8d5:	48 8d 05 34 b9 00 00 	lea    0xb934(%rip),%rax        # 1a210 <g_296+0x10>
    e8dc:	48 8b 44 02 08       	mov    0x8(%rdx,%rax,1),%rax
    e8e1:	48 c1 e0 0b          	shl    $0xb,%rax
    e8e5:	48 c1 f8 3f          	sar    $0x3f,%rax
    e8e9:	48 0f be c0          	movsbq %al,%rax
    e8ed:	8b 55 fc             	mov    -0x4(%rbp),%edx
    e8f0:	48 8d 35 03 55 00 00 	lea    0x5503(%rip),%rsi        # 13dfa <g_1647+0xcba>
    e8f7:	48 89 c7             	mov    %rax,%rdi
    e8fa:	e8 f4 ad ff ff       	callq  96f3 <transparent_crc>
    e8ff:	83 7d fc 00          	cmpl   $0x0,-0x4(%rbp)
    e903:	74 16                	je     e91b <main+0x1d2f>
    e905:	8b 45 f0             	mov    -0x10(%rbp),%eax
    e908:	89 c6                	mov    %eax,%esi
    e90a:	48 8d 3d ac 4d 00 00 	lea    0x4dac(%rip),%rdi        # 136bd <g_1647+0x57d>
    e911:	b8 00 00 00 00       	mov    $0x0,%eax
    e916:	e8 65 97 ff ff       	callq  8080 <printf@plt>
    e91b:	83 45 f0 01          	addl   $0x1,-0x10(%rbp)
    e91f:	83 7d f0 04          	cmpl   $0x4,-0x10(%rbp)
    e923:	0f 8e 74 fe ff ff    	jle    e79d <main+0x1bb1>
    e929:	48 8b 05 70 b9 00 00 	mov    0xb970(%rip),%rax        # 1a2a0 <g_300>
    e930:	8b 55 fc             	mov    -0x4(%rbp),%edx
    e933:	48 8d 35 cc 54 00 00 	lea    0x54cc(%rip),%rsi        # 13e06 <g_1647+0xcc6>
    e93a:	48 89 c7             	mov    %rax,%rdi
    e93d:	e8 b1 ad ff ff       	callq  96f3 <transparent_crc>
    e942:	0f b7 05 5f b9 00 00 	movzwl 0xb95f(%rip),%eax        # 1a2a8 <g_300+0x8>
    e949:	66 25 ff 3f          	and    $0x3fff,%ax
    e94d:	0f b7 c0             	movzwl %ax,%eax
    e950:	8b 55 fc             	mov    -0x4(%rbp),%edx
    e953:	48 8d 35 b5 54 00 00 	lea    0x54b5(%rip),%rsi        # 13e0f <g_1647+0xccf>
    e95a:	48 89 c7             	mov    %rax,%rdi
    e95d:	e8 91 ad ff ff       	callq  96f3 <transparent_crc>
    e962:	48 8b 05 3f b9 00 00 	mov    0xb93f(%rip),%rax        # 1a2a8 <g_300+0x8>
    e969:	48 c1 e0 03          	shl    $0x3,%rax
    e96d:	48 c1 f8 23          	sar    $0x23,%rax
    e971:	48 98                	cltq   
    e973:	8b 55 fc             	mov    -0x4(%rbp),%edx
    e976:	48 8d 35 9e 54 00 00 	lea    0x549e(%rip),%rsi        # 13e1b <g_1647+0xcdb>
    e97d:	48 89 c7             	mov    %rax,%rdi
    e980:	e8 6e ad ff ff       	callq  96f3 <transparent_crc>
    e985:	8b 05 25 b9 00 00    	mov    0xb925(%rip),%eax        # 1a2b0 <g_300+0x10>
    e98b:	25 ff ff 7f 00       	and    $0x7fffff,%eax
    e990:	89 c1                	mov    %eax,%ecx
    e992:	8b 45 fc             	mov    -0x4(%rbp),%eax
    e995:	89 c2                	mov    %eax,%edx
    e997:	48 8d 35 89 54 00 00 	lea    0x5489(%rip),%rsi        # 13e27 <g_1647+0xce7>
    e99e:	48 89 cf             	mov    %rcx,%rdi
    e9a1:	e8 4d ad ff ff       	callq  96f3 <transparent_crc>
    e9a6:	48 8b 05 03 b9 00 00 	mov    0xb903(%rip),%rax        # 1a2b0 <g_300+0x10>
    e9ad:	48 c1 e8 20          	shr    $0x20,%rax
    e9b1:	66 25 ff 0f          	and    $0xfff,%ax
    e9b5:	0f b7 c0             	movzwl %ax,%eax
    e9b8:	8b 55 fc             	mov    -0x4(%rbp),%edx
    e9bb:	48 8d 35 71 54 00 00 	lea    0x5471(%rip),%rsi        # 13e33 <g_1647+0xcf3>
    e9c2:	48 89 c7             	mov    %rax,%rdi
    e9c5:	e8 29 ad ff ff       	callq  96f3 <transparent_crc>
    e9ca:	8b 05 e8 b8 00 00    	mov    0xb8e8(%rip),%eax        # 1a2b8 <g_300+0x18>
    e9d0:	c1 e0 05             	shl    $0x5,%eax
    e9d3:	c1 f8 05             	sar    $0x5,%eax
    e9d6:	48 98                	cltq   
    e9d8:	8b 55 fc             	mov    -0x4(%rbp),%edx
    e9db:	48 8d 35 5d 54 00 00 	lea    0x545d(%rip),%rsi        # 13e3f <g_1647+0xcff>
    e9e2:	48 89 c7             	mov    %rax,%rdi
    e9e5:	e8 09 ad ff ff       	callq  96f3 <transparent_crc>
    e9ea:	8b 05 cc b8 00 00    	mov    0xb8cc(%rip),%eax        # 1a2bc <g_300+0x1c>
    e9f0:	25 ff ff 07 00       	and    $0x7ffff,%eax
    e9f5:	89 c1                	mov    %eax,%ecx
    e9f7:	8b 45 fc             	mov    -0x4(%rbp),%eax
    e9fa:	89 c2                	mov    %eax,%edx
    e9fc:	48 8d 35 48 54 00 00 	lea    0x5448(%rip),%rsi        # 13e4b <g_1647+0xd0b>
    ea03:	48 89 cf             	mov    %rcx,%rdi
    ea06:	e8 e8 ac ff ff       	callq  96f3 <transparent_crc>
    ea0b:	48 8b 05 ae b8 00 00 	mov    0xb8ae(%rip),%rax        # 1a2c0 <g_300+0x20>
    ea12:	66 25 ff 3f          	and    $0x3fff,%ax
    ea16:	0f b7 c0             	movzwl %ax,%eax
    ea19:	8b 55 fc             	mov    -0x4(%rbp),%edx
    ea1c:	48 8d 35 34 54 00 00 	lea    0x5434(%rip),%rsi        # 13e57 <g_1647+0xd17>
    ea23:	48 89 c7             	mov    %rax,%rdi
    ea26:	e8 c8 ac ff ff       	callq  96f3 <transparent_crc>
    ea2b:	8b 05 93 b8 00 00    	mov    0xb893(%rip),%eax        # 1a2c4 <g_300+0x24>
    ea31:	c1 e0 0b             	shl    $0xb,%eax
    ea34:	c1 f8 0b             	sar    $0xb,%eax
    ea37:	48 98                	cltq   
    ea39:	8b 55 fc             	mov    -0x4(%rbp),%edx
    ea3c:	48 8d 35 20 54 00 00 	lea    0x5420(%rip),%rsi        # 13e63 <g_1647+0xd23>
    ea43:	48 89 c7             	mov    %rax,%rdi
    ea46:	e8 a8 ac ff ff       	callq  96f3 <transparent_crc>
    ea4b:	48 8b 05 76 b8 00 00 	mov    0xb876(%rip),%rax        # 1a2c8 <g_300+0x28>
    ea52:	c1 e0 0c             	shl    $0xc,%eax
    ea55:	c1 f8 0c             	sar    $0xc,%eax
    ea58:	48 98                	cltq   
    ea5a:	8b 55 fc             	mov    -0x4(%rbp),%edx
    ea5d:	48 8d 35 0b 54 00 00 	lea    0x540b(%rip),%rsi        # 13e6f <g_1647+0xd2f>
    ea64:	48 89 c7             	mov    %rax,%rdi
    ea67:	e8 87 ac ff ff       	callq  96f3 <transparent_crc>
    ea6c:	0f b7 05 57 b8 00 00 	movzwl 0xb857(%rip),%eax        # 1a2ca <g_300+0x2a>
    ea73:	66 c1 f8 04          	sar    $0x4,%ax
    ea77:	48 0f bf c0          	movswq %ax,%rax
    ea7b:	8b 55 fc             	mov    -0x4(%rbp),%edx
    ea7e:	48 8d 35 f6 53 00 00 	lea    0x53f6(%rip),%rsi        # 13e7b <g_1647+0xd3b>
    ea85:	48 89 c7             	mov    %rax,%rdi
    ea88:	e8 66 ac ff ff       	callq  96f3 <transparent_crc>
    ea8d:	0f b6 05 3c b8 00 00 	movzbl 0xb83c(%rip),%eax        # 1a2d0 <g_300+0x30>
    ea94:	0f b6 c0             	movzbl %al,%eax
    ea97:	8b 55 fc             	mov    -0x4(%rbp),%edx
    ea9a:	48 8d 35 e6 53 00 00 	lea    0x53e6(%rip),%rsi        # 13e87 <g_1647+0xd47>
    eaa1:	48 89 c7             	mov    %rax,%rdi
    eaa4:	e8 4a ac ff ff       	callq  96f3 <transparent_crc>
    eaa9:	48 8b 05 28 b8 00 00 	mov    0xb828(%rip),%rax        # 1a2d8 <g_300+0x38>
    eab0:	48 89 c1             	mov    %rax,%rcx
    eab3:	8b 45 fc             	mov    -0x4(%rbp),%eax
    eab6:	89 c2                	mov    %eax,%edx
    eab8:	48 8d 35 d4 53 00 00 	lea    0x53d4(%rip),%rsi        # 13e93 <g_1647+0xd53>
    eabf:	48 89 cf             	mov    %rcx,%rdi
    eac2:	e8 2c ac ff ff       	callq  96f3 <transparent_crc>
    eac7:	0f b6 05 12 b8 00 00 	movzbl 0xb812(%rip),%eax        # 1a2e0 <g_300+0x40>
    eace:	48 0f be c0          	movsbq %al,%rax
    ead2:	8b 55 fc             	mov    -0x4(%rbp),%edx
    ead5:	48 8d 35 c3 53 00 00 	lea    0x53c3(%rip),%rsi        # 13e9f <g_1647+0xd5f>
    eadc:	48 89 c7             	mov    %rax,%rdi
    eadf:	e8 0f ac ff ff       	callq  96f3 <transparent_crc>
    eae4:	0f b7 05 f7 b7 00 00 	movzwl 0xb7f7(%rip),%eax        # 1a2e2 <g_300+0x42>
    eaeb:	0f b7 c0             	movzwl %ax,%eax
    eaee:	8b 55 fc             	mov    -0x4(%rbp),%edx
    eaf1:	48 8d 35 b3 53 00 00 	lea    0x53b3(%rip),%rsi        # 13eab <g_1647+0xd6b>
    eaf8:	48 89 c7             	mov    %rax,%rdi
    eafb:	e8 f3 ab ff ff       	callq  96f3 <transparent_crc>
    eb00:	0f b7 05 dd b7 00 00 	movzwl 0xb7dd(%rip),%eax        # 1a2e4 <g_300+0x44>
    eb07:	c1 e0 05             	shl    $0x5,%eax
    eb0a:	66 c1 f8 05          	sar    $0x5,%ax
    eb0e:	48 0f bf c0          	movswq %ax,%rax
    eb12:	8b 55 fc             	mov    -0x4(%rbp),%edx
    eb15:	48 8d 35 9b 53 00 00 	lea    0x539b(%rip),%rsi        # 13eb7 <g_1647+0xd77>
    eb1c:	48 89 c7             	mov    %rax,%rdi
    eb1f:	e8 cf ab ff ff       	callq  96f3 <transparent_crc>
    eb24:	8b 05 ba b7 00 00    	mov    0xb7ba(%rip),%eax        # 1a2e4 <g_300+0x44>
    eb2a:	c1 e8 0b             	shr    $0xb,%eax
    eb2d:	83 e0 3f             	and    $0x3f,%eax
    eb30:	0f b6 c0             	movzbl %al,%eax
    eb33:	8b 55 fc             	mov    -0x4(%rbp),%edx
    eb36:	48 8d 35 89 53 00 00 	lea    0x5389(%rip),%rsi        # 13ec6 <g_1647+0xd86>
    eb3d:	48 89 c7             	mov    %rax,%rdi
    eb40:	e8 ae ab ff ff       	callq  96f3 <transparent_crc>
    eb45:	8b 05 9d b7 00 00    	mov    0xb79d(%rip),%eax        # 1a2e8 <g_300+0x48>
    eb4b:	89 c1                	mov    %eax,%ecx
    eb4d:	8b 45 fc             	mov    -0x4(%rbp),%eax
    eb50:	89 c2                	mov    %eax,%edx
    eb52:	48 8d 35 7c 53 00 00 	lea    0x537c(%rip),%rsi        # 13ed5 <g_1647+0xd95>
    eb59:	48 89 cf             	mov    %rcx,%rdi
    eb5c:	e8 92 ab ff ff       	callq  96f3 <transparent_crc>
    eb61:	48 8b 05 88 b7 00 00 	mov    0xb788(%rip),%rax        # 1a2f0 <g_300+0x50>
    eb68:	8b 55 fc             	mov    -0x4(%rbp),%edx
    eb6b:	48 8d 35 6f 53 00 00 	lea    0x536f(%rip),%rsi        # 13ee1 <g_1647+0xda1>
    eb72:	48 89 c7             	mov    %rax,%rdi
    eb75:	e8 79 ab ff ff       	callq  96f3 <transparent_crc>
    eb7a:	0f b7 05 77 b7 00 00 	movzwl 0xb777(%rip),%eax        # 1a2f8 <g_300+0x58>
    eb81:	0f b7 c0             	movzwl %ax,%eax
    eb84:	8b 55 fc             	mov    -0x4(%rbp),%edx
    eb87:	48 8d 35 5f 53 00 00 	lea    0x535f(%rip),%rsi        # 13eed <g_1647+0xdad>
    eb8e:	48 89 c7             	mov    %rax,%rdi
    eb91:	e8 5d ab ff ff       	callq  96f3 <transparent_crc>
    eb96:	48 8b 05 5b b7 00 00 	mov    0xb75b(%rip),%rax        # 1a2f8 <g_300+0x58>
    eb9d:	48 c1 e0 1a          	shl    $0x1a,%rax
    eba1:	48 c1 f8 2a          	sar    $0x2a,%rax
    eba5:	48 98                	cltq   
    eba7:	8b 55 fc             	mov    -0x4(%rbp),%edx
    ebaa:	48 8d 35 48 53 00 00 	lea    0x5348(%rip),%rsi        # 13ef9 <g_1647+0xdb9>
    ebb1:	48 89 c7             	mov    %rax,%rdi
    ebb4:	e8 3a ab ff ff       	callq  96f3 <transparent_crc>
    ebb9:	8b 05 3e b7 00 00    	mov    0xb73e(%rip),%eax        # 1a2fd <g_300+0x5d>
    ebbf:	48 98                	cltq   
    ebc1:	8b 55 fc             	mov    -0x4(%rbp),%edx
    ebc4:	48 8d 35 3a 53 00 00 	lea    0x533a(%rip),%rsi        # 13f05 <g_1647+0xdc5>
    ebcb:	48 89 c7             	mov    %rax,%rdi
    ebce:	e8 20 ab ff ff       	callq  96f3 <transparent_crc>
    ebd3:	8b 05 2b b7 00 00    	mov    0xb72b(%rip),%eax        # 1a304 <g_300+0x64>
    ebd9:	48 98                	cltq   
    ebdb:	8b 55 fc             	mov    -0x4(%rbp),%edx
    ebde:	48 8d 35 2c 53 00 00 	lea    0x532c(%rip),%rsi        # 13f11 <g_1647+0xdd1>
    ebe5:	48 89 c7             	mov    %rax,%rdi
    ebe8:	e8 06 ab ff ff       	callq  96f3 <transparent_crc>
    ebed:	0f b7 05 14 b7 00 00 	movzwl 0xb714(%rip),%eax        # 1a308 <g_300+0x68>
    ebf4:	0f b7 c0             	movzwl %ax,%eax
    ebf7:	8b 55 fc             	mov    -0x4(%rbp),%edx
    ebfa:	48 8d 35 19 53 00 00 	lea    0x5319(%rip),%rsi        # 13f1a <g_1647+0xdda>
    ec01:	48 89 c7             	mov    %rax,%rdi
    ec04:	e8 ea aa ff ff       	callq  96f3 <transparent_crc>
    ec09:	8b 05 fd b6 00 00    	mov    0xb6fd(%rip),%eax        # 1a30c <g_300+0x6c>
    ec0f:	25 ff ff ff 00       	and    $0xffffff,%eax
    ec14:	89 c1                	mov    %eax,%ecx
    ec16:	8b 45 fc             	mov    -0x4(%rbp),%eax
    ec19:	89 c2                	mov    %eax,%edx
    ec1b:	48 8d 35 01 53 00 00 	lea    0x5301(%rip),%rsi        # 13f23 <g_1647+0xde3>
    ec22:	48 89 cf             	mov    %rcx,%rdi
    ec25:	e8 c9 aa ff ff       	callq  96f3 <transparent_crc>
    ec2a:	0f b7 05 df b6 00 00 	movzwl 0xb6df(%rip),%eax        # 1a310 <g_300+0x70>
    ec31:	0f b7 c0             	movzwl %ax,%eax
    ec34:	8b 55 fc             	mov    -0x4(%rbp),%edx
    ec37:	48 8d 35 ee 52 00 00 	lea    0x52ee(%rip),%rsi        # 13f2c <g_1647+0xdec>
    ec3e:	48 89 c7             	mov    %rax,%rdi
    ec41:	e8 ad aa ff ff       	callq  96f3 <transparent_crc>
    ec46:	48 8b 05 c3 b6 00 00 	mov    0xb6c3(%rip),%rax        # 1a310 <g_300+0x70>
    ec4d:	48 c1 e0 0f          	shl    $0xf,%rax
    ec51:	48 c1 f8 2f          	sar    $0x2f,%rax
    ec55:	48 98                	cltq   
    ec57:	8b 55 fc             	mov    -0x4(%rbp),%edx
    ec5a:	48 8d 35 d7 52 00 00 	lea    0x52d7(%rip),%rsi        # 13f38 <g_1647+0xdf8>
    ec61:	48 89 c7             	mov    %rax,%rdi
    ec64:	e8 8a aa ff ff       	callq  96f3 <transparent_crc>
    ec69:	48 8b 05 a0 b6 00 00 	mov    0xb6a0(%rip),%rax        # 1a310 <g_300+0x70>
    ec70:	48 c1 e8 31          	shr    $0x31,%rax
    ec74:	83 e0 07             	and    $0x7,%eax
    ec77:	0f b6 c0             	movzbl %al,%eax
    ec7a:	8b 55 fc             	mov    -0x4(%rbp),%edx
    ec7d:	48 8d 35 c0 52 00 00 	lea    0x52c0(%rip),%rsi        # 13f44 <g_1647+0xe04>
    ec84:	48 89 c7             	mov    %rax,%rdi
    ec87:	e8 67 aa ff ff       	callq  96f3 <transparent_crc>
    ec8c:	48 8b 05 85 b6 00 00 	mov    0xb685(%rip),%rax        # 1a318 <g_300+0x78>
    ec93:	c1 e0 0b             	shl    $0xb,%eax
    ec96:	c1 f8 0b             	sar    $0xb,%eax
    ec99:	48 98                	cltq   
    ec9b:	8b 55 fc             	mov    -0x4(%rbp),%edx
    ec9e:	48 8d 35 ab 52 00 00 	lea    0x52ab(%rip),%rsi        # 13f50 <g_1647+0xe10>
    eca5:	48 89 c7             	mov    %rax,%rdi
    eca8:	e8 46 aa ff ff       	callq  96f3 <transparent_crc>
    ecad:	8b 05 69 b6 00 00    	mov    0xb669(%rip),%eax        # 1a31c <g_300+0x7c>
    ecb3:	89 c1                	mov    %eax,%ecx
    ecb5:	8b 45 fc             	mov    -0x4(%rbp),%eax
    ecb8:	89 c2                	mov    %eax,%edx
    ecba:	48 8d 35 9b 52 00 00 	lea    0x529b(%rip),%rsi        # 13f5c <g_1647+0xe1c>
    ecc1:	48 89 cf             	mov    %rcx,%rdi
    ecc4:	e8 2a aa ff ff       	callq  96f3 <transparent_crc>
    ecc9:	8b 05 51 b6 00 00    	mov    0xb651(%rip),%eax        # 1a320 <g_300+0x80>
    eccf:	89 c1                	mov    %eax,%ecx
    ecd1:	8b 45 fc             	mov    -0x4(%rbp),%eax
    ecd4:	89 c2                	mov    %eax,%edx
    ecd6:	48 8d 35 88 52 00 00 	lea    0x5288(%rip),%rsi        # 13f65 <g_1647+0xe25>
    ecdd:	48 89 cf             	mov    %rcx,%rdi
    ece0:	e8 0e aa ff ff       	callq  96f3 <transparent_crc>
    ece5:	48 8b 05 44 b6 00 00 	mov    0xb644(%rip),%rax        # 1a330 <g_301>
    ecec:	8b 55 fc             	mov    -0x4(%rbp),%edx
    ecef:	48 8d 35 78 52 00 00 	lea    0x5278(%rip),%rsi        # 13f6e <g_1647+0xe2e>
    ecf6:	48 89 c7             	mov    %rax,%rdi
    ecf9:	e8 f5 a9 ff ff       	callq  96f3 <transparent_crc>
    ecfe:	0f b7 05 33 b6 00 00 	movzwl 0xb633(%rip),%eax        # 1a338 <g_301+0x8>
    ed05:	0f b7 c0             	movzwl %ax,%eax
    ed08:	8b 55 fc             	mov    -0x4(%rbp),%edx
    ed0b:	48 8d 35 65 52 00 00 	lea    0x5265(%rip),%rsi        # 13f77 <g_1647+0xe37>
    ed12:	48 89 c7             	mov    %rax,%rdi
    ed15:	e8 d9 a9 ff ff       	callq  96f3 <transparent_crc>
    ed1a:	48 8b 05 17 b6 00 00 	mov    0xb617(%rip),%rax        # 1a338 <g_301+0x8>
    ed21:	48 c1 e0 1a          	shl    $0x1a,%rax
    ed25:	48 c1 f8 2a          	sar    $0x2a,%rax
    ed29:	48 98                	cltq   
    ed2b:	8b 55 fc             	mov    -0x4(%rbp),%edx
    ed2e:	48 8d 35 4b 52 00 00 	lea    0x524b(%rip),%rsi        # 13f80 <g_1647+0xe40>
    ed35:	48 89 c7             	mov    %rax,%rdi
    ed38:	e8 b6 a9 ff ff       	callq  96f3 <transparent_crc>
    ed3d:	8b 05 fa b5 00 00    	mov    0xb5fa(%rip),%eax        # 1a33d <g_301+0xd>
    ed43:	48 98                	cltq   
    ed45:	8b 55 fc             	mov    -0x4(%rbp),%edx
    ed48:	48 8d 35 3a 52 00 00 	lea    0x523a(%rip),%rsi        # 13f89 <g_1647+0xe49>
    ed4f:	48 89 c7             	mov    %rax,%rdi
    ed52:	e8 9c a9 ff ff       	callq  96f3 <transparent_crc>
    ed57:	48 8b 05 f2 b5 00 00 	mov    0xb5f2(%rip),%rax        # 1a350 <g_303>
    ed5e:	8b 55 fc             	mov    -0x4(%rbp),%edx
    ed61:	48 8d 35 2a 52 00 00 	lea    0x522a(%rip),%rsi        # 13f92 <g_1647+0xe52>
    ed68:	48 89 c7             	mov    %rax,%rdi
    ed6b:	e8 83 a9 ff ff       	callq  96f3 <transparent_crc>
    ed70:	0f b7 05 e1 b5 00 00 	movzwl 0xb5e1(%rip),%eax        # 1a358 <g_303+0x8>
    ed77:	0f b7 c0             	movzwl %ax,%eax
    ed7a:	8b 55 fc             	mov    -0x4(%rbp),%edx
    ed7d:	48 8d 35 17 52 00 00 	lea    0x5217(%rip),%rsi        # 13f9b <g_1647+0xe5b>
    ed84:	48 89 c7             	mov    %rax,%rdi
    ed87:	e8 67 a9 ff ff       	callq  96f3 <transparent_crc>
    ed8c:	48 8b 05 c5 b5 00 00 	mov    0xb5c5(%rip),%rax        # 1a358 <g_303+0x8>
    ed93:	48 c1 e0 1a          	shl    $0x1a,%rax
    ed97:	48 c1 f8 2a          	sar    $0x2a,%rax
    ed9b:	48 98                	cltq   
    ed9d:	8b 55 fc             	mov    -0x4(%rbp),%edx
    eda0:	48 8d 35 fd 51 00 00 	lea    0x51fd(%rip),%rsi        # 13fa4 <g_1647+0xe64>
    eda7:	48 89 c7             	mov    %rax,%rdi
    edaa:	e8 44 a9 ff ff       	callq  96f3 <transparent_crc>
    edaf:	8b 05 a8 b5 00 00    	mov    0xb5a8(%rip),%eax        # 1a35d <g_303+0xd>
    edb5:	48 98                	cltq   
    edb7:	8b 55 fc             	mov    -0x4(%rbp),%edx
    edba:	48 8d 35 ec 51 00 00 	lea    0x51ec(%rip),%rsi        # 13fad <g_1647+0xe6d>
    edc1:	48 89 c7             	mov    %rax,%rdi
    edc4:	e8 2a a9 ff ff       	callq  96f3 <transparent_crc>
    edc9:	8b 05 31 22 01 00    	mov    0x12231(%rip),%eax        # 21000 <g_321>
    edcf:	89 c1                	mov    %eax,%ecx
    edd1:	8b 45 fc             	mov    -0x4(%rbp),%eax
    edd4:	89 c2                	mov    %eax,%edx
    edd6:	48 8d 35 d9 51 00 00 	lea    0x51d9(%rip),%rsi        # 13fb6 <g_1647+0xe76>
    eddd:	48 89 cf             	mov    %rcx,%rdi
    ede0:	e8 0e a9 ff ff       	callq  96f3 <transparent_crc>
    ede5:	c7 45 f0 00 00 00 00 	movl   $0x0,-0x10(%rbp)
    edec:	e9 09 01 00 00       	jmpq   eefa <main+0x230e>
    edf1:	8b 45 f0             	mov    -0x10(%rbp),%eax
    edf4:	48 63 d0             	movslq %eax,%rdx
    edf7:	48 89 d0             	mov    %rdx,%rax
    edfa:	48 c1 e0 04          	shl    $0x4,%rax
    edfe:	48 01 c2             	add    %rax,%rdx
    ee01:	48 8d 05 78 b5 00 00 	lea    0xb578(%rip),%rax        # 1a380 <g_329>
    ee08:	48 8b 04 02          	mov    (%rdx,%rax,1),%rax
    ee0c:	8b 55 fc             	mov    -0x4(%rbp),%edx
    ee0f:	48 8d 35 a6 51 00 00 	lea    0x51a6(%rip),%rsi        # 13fbc <g_1647+0xe7c>
    ee16:	48 89 c7             	mov    %rax,%rdi
    ee19:	e8 d5 a8 ff ff       	callq  96f3 <transparent_crc>
    ee1e:	8b 45 f0             	mov    -0x10(%rbp),%eax
    ee21:	48 63 d0             	movslq %eax,%rdx
    ee24:	48 89 d0             	mov    %rdx,%rax
    ee27:	48 c1 e0 04          	shl    $0x4,%rax
    ee2b:	48 01 c2             	add    %rax,%rdx
    ee2e:	48 8d 05 53 b5 00 00 	lea    0xb553(%rip),%rax        # 1a388 <g_329+0x8>
    ee35:	0f b7 04 02          	movzwl (%rdx,%rax,1),%eax
    ee39:	0f b7 c0             	movzwl %ax,%eax
    ee3c:	8b 55 fc             	mov    -0x4(%rbp),%edx
    ee3f:	48 8d 35 82 51 00 00 	lea    0x5182(%rip),%rsi        # 13fc8 <g_1647+0xe88>
    ee46:	48 89 c7             	mov    %rax,%rdi
    ee49:	e8 a5 a8 ff ff       	callq  96f3 <transparent_crc>
    ee4e:	8b 45 f0             	mov    -0x10(%rbp),%eax
    ee51:	48 63 d0             	movslq %eax,%rdx
    ee54:	48 89 d0             	mov    %rdx,%rax
    ee57:	48 c1 e0 04          	shl    $0x4,%rax
    ee5b:	48 01 c2             	add    %rax,%rdx
    ee5e:	48 8d 05 1b b5 00 00 	lea    0xb51b(%rip),%rax        # 1a380 <g_329>
    ee65:	0f b6 4c 02 0a       	movzbl 0xa(%rdx,%rax,1),%ecx
    ee6a:	0f b6 c9             	movzbl %cl,%ecx
    ee6d:	0f b6 74 02 0b       	movzbl 0xb(%rdx,%rax,1),%esi
    ee72:	40 0f b6 f6          	movzbl %sil,%esi
    ee76:	48 c1 e6 08          	shl    $0x8,%rsi
    ee7a:	48 09 f1             	or     %rsi,%rcx
    ee7d:	0f b6 44 02 0c       	movzbl 0xc(%rdx,%rax,1),%eax
    ee82:	0f b6 c0             	movzbl %al,%eax
    ee85:	83 e0 3f             	and    $0x3f,%eax
    ee88:	48 c1 e0 10          	shl    $0x10,%rax
    ee8c:	48 09 c8             	or     %rcx,%rax
    ee8f:	48 c1 e0 2a          	shl    $0x2a,%rax
    ee93:	48 c1 f8 2a          	sar    $0x2a,%rax
    ee97:	48 98                	cltq   
    ee99:	8b 55 fc             	mov    -0x4(%rbp),%edx
    ee9c:	48 8d 35 31 51 00 00 	lea    0x5131(%rip),%rsi        # 13fd4 <g_1647+0xe94>
    eea3:	48 89 c7             	mov    %rax,%rdi
    eea6:	e8 48 a8 ff ff       	callq  96f3 <transparent_crc>
    eeab:	8b 45 f0             	mov    -0x10(%rbp),%eax
    eeae:	48 63 d0             	movslq %eax,%rdx
    eeb1:	48 89 d0             	mov    %rdx,%rax
    eeb4:	48 c1 e0 04          	shl    $0x4,%rax
    eeb8:	48 01 c2             	add    %rax,%rdx
    eebb:	48 8d 05 be b4 00 00 	lea    0xb4be(%rip),%rax        # 1a380 <g_329>
    eec2:	8b 44 02 0d          	mov    0xd(%rdx,%rax,1),%eax
    eec6:	48 98                	cltq   
    eec8:	8b 55 fc             	mov    -0x4(%rbp),%edx
    eecb:	48 8d 35 0e 51 00 00 	lea    0x510e(%rip),%rsi        # 13fe0 <g_1647+0xea0>
    eed2:	48 89 c7             	mov    %rax,%rdi
    eed5:	e8 19 a8 ff ff       	callq  96f3 <transparent_crc>
    eeda:	83 7d fc 00          	cmpl   $0x0,-0x4(%rbp)
    eede:	74 16                	je     eef6 <main+0x230a>
    eee0:	8b 45 f0             	mov    -0x10(%rbp),%eax
    eee3:	89 c6                	mov    %eax,%esi
    eee5:	48 8d 3d d1 47 00 00 	lea    0x47d1(%rip),%rdi        # 136bd <g_1647+0x57d>
    eeec:	b8 00 00 00 00       	mov    $0x0,%eax
    eef1:	e8 8a 91 ff ff       	callq  8080 <printf@plt>
    eef6:	83 45 f0 01          	addl   $0x1,-0x10(%rbp)
    eefa:	83 7d f0 03          	cmpl   $0x3,-0x10(%rbp)
    eefe:	0f 8e ed fe ff ff    	jle    edf1 <main+0x2205>
    ef04:	8b 05 ba b4 00 00    	mov    0xb4ba(%rip),%eax        # 1a3c4 <g_352>
    ef0a:	48 98                	cltq   
    ef0c:	8b 55 fc             	mov    -0x4(%rbp),%edx
    ef0f:	48 8d 35 d6 50 00 00 	lea    0x50d6(%rip),%rsi        # 13fec <g_1647+0xeac>
    ef16:	48 89 c7             	mov    %rax,%rdi
    ef19:	e8 d5 a7 ff ff       	callq  96f3 <transparent_crc>
    ef1e:	48 8b 05 ab b4 00 00 	mov    0xb4ab(%rip),%rax        # 1a3d0 <g_371>
    ef25:	8b 55 fc             	mov    -0x4(%rbp),%edx
    ef28:	48 8d 35 c3 50 00 00 	lea    0x50c3(%rip),%rsi        # 13ff2 <g_1647+0xeb2>
    ef2f:	48 89 c7             	mov    %rax,%rdi
    ef32:	e8 bc a7 ff ff       	callq  96f3 <transparent_crc>
    ef37:	0f b7 05 9a b4 00 00 	movzwl 0xb49a(%rip),%eax        # 1a3d8 <g_371+0x8>
    ef3e:	0f b7 c0             	movzwl %ax,%eax
    ef41:	8b 55 fc             	mov    -0x4(%rbp),%edx
    ef44:	48 8d 35 b0 50 00 00 	lea    0x50b0(%rip),%rsi        # 13ffb <g_1647+0xebb>
    ef4b:	48 89 c7             	mov    %rax,%rdi
    ef4e:	e8 a0 a7 ff ff       	callq  96f3 <transparent_crc>
    ef53:	48 8b 05 7e b4 00 00 	mov    0xb47e(%rip),%rax        # 1a3d8 <g_371+0x8>
    ef5a:	48 c1 e0 1a          	shl    $0x1a,%rax
    ef5e:	48 c1 f8 2a          	sar    $0x2a,%rax
    ef62:	48 98                	cltq   
    ef64:	8b 55 fc             	mov    -0x4(%rbp),%edx
    ef67:	48 8d 35 96 50 00 00 	lea    0x5096(%rip),%rsi        # 14004 <g_1647+0xec4>
    ef6e:	48 89 c7             	mov    %rax,%rdi
    ef71:	e8 7d a7 ff ff       	callq  96f3 <transparent_crc>
    ef76:	8b 05 61 b4 00 00    	mov    0xb461(%rip),%eax        # 1a3dd <g_371+0xd>
    ef7c:	48 98                	cltq   
    ef7e:	8b 55 fc             	mov    -0x4(%rbp),%edx
    ef81:	48 8d 35 85 50 00 00 	lea    0x5085(%rip),%rsi        # 1400d <g_1647+0xecd>
    ef88:	48 89 c7             	mov    %rax,%rdi
    ef8b:	e8 63 a7 ff ff       	callq  96f3 <transparent_crc>
    ef90:	48 8b 05 51 b4 00 00 	mov    0xb451(%rip),%rax        # 1a3e8 <g_395>
    ef97:	8b 55 fc             	mov    -0x4(%rbp),%edx
    ef9a:	48 8d 35 75 50 00 00 	lea    0x5075(%rip),%rsi        # 14016 <g_1647+0xed6>
    efa1:	48 89 c7             	mov    %rax,%rdi
    efa4:	e8 4a a7 ff ff       	callq  96f3 <transparent_crc>
    efa9:	48 8b 05 40 b4 00 00 	mov    0xb440(%rip),%rax        # 1a3f0 <g_410>
    efb0:	8b 55 fc             	mov    -0x4(%rbp),%edx
    efb3:	48 8d 35 62 50 00 00 	lea    0x5062(%rip),%rsi        # 1401c <g_1647+0xedc>
    efba:	48 89 c7             	mov    %rax,%rdi
    efbd:	e8 31 a7 ff ff       	callq  96f3 <transparent_crc>
    efc2:	0f b7 05 2f b4 00 00 	movzwl 0xb42f(%rip),%eax        # 1a3f8 <g_410+0x8>
    efc9:	0f b7 c0             	movzwl %ax,%eax
    efcc:	8b 55 fc             	mov    -0x4(%rbp),%edx
    efcf:	48 8d 35 4f 50 00 00 	lea    0x504f(%rip),%rsi        # 14025 <g_1647+0xee5>
    efd6:	48 89 c7             	mov    %rax,%rdi
    efd9:	e8 15 a7 ff ff       	callq  96f3 <transparent_crc>
    efde:	48 8b 05 13 b4 00 00 	mov    0xb413(%rip),%rax        # 1a3f8 <g_410+0x8>
    efe5:	48 c1 e0 1a          	shl    $0x1a,%rax
    efe9:	48 c1 f8 2a          	sar    $0x2a,%rax
    efed:	48 98                	cltq   
    efef:	8b 55 fc             	mov    -0x4(%rbp),%edx
    eff2:	48 8d 35 35 50 00 00 	lea    0x5035(%rip),%rsi        # 1402e <g_1647+0xeee>
    eff9:	48 89 c7             	mov    %rax,%rdi
    effc:	e8 f2 a6 ff ff       	callq  96f3 <transparent_crc>
    f001:	8b 05 f6 b3 00 00    	mov    0xb3f6(%rip),%eax        # 1a3fd <g_410+0xd>
    f007:	48 98                	cltq   
    f009:	8b 55 fc             	mov    -0x4(%rbp),%edx
    f00c:	48 8d 35 24 50 00 00 	lea    0x5024(%rip),%rsi        # 14037 <g_1647+0xef7>
    f013:	48 89 c7             	mov    %rax,%rdi
    f016:	e8 d8 a6 ff ff       	callq  96f3 <transparent_crc>
    f01b:	48 8b 05 fe b3 00 00 	mov    0xb3fe(%rip),%rax        # 1a420 <g_471>
    f022:	66 25 ff 3f          	and    $0x3fff,%ax
    f026:	0f b7 c0             	movzwl %ax,%eax
    f029:	8b 55 fc             	mov    -0x4(%rbp),%edx
    f02c:	48 8d 35 0d 50 00 00 	lea    0x500d(%rip),%rsi        # 14040 <g_1647+0xf00>
    f033:	48 89 c7             	mov    %rax,%rdi
    f036:	e8 b8 a6 ff ff       	callq  96f3 <transparent_crc>
    f03b:	48 8b 05 de b3 00 00 	mov    0xb3de(%rip),%rax        # 1a420 <g_471>
    f042:	48 c1 e0 03          	shl    $0x3,%rax
    f046:	48 c1 f8 23          	sar    $0x23,%rax
    f04a:	48 98                	cltq   
    f04c:	8b 55 fc             	mov    -0x4(%rbp),%edx
    f04f:	48 8d 35 f3 4f 00 00 	lea    0x4ff3(%rip),%rsi        # 14049 <g_1647+0xf09>
    f056:	48 89 c7             	mov    %rax,%rdi
    f059:	e8 95 a6 ff ff       	callq  96f3 <transparent_crc>
    f05e:	48 8b 05 c3 b3 00 00 	mov    0xb3c3(%rip),%rax        # 1a428 <g_471+0x8>
    f065:	25 ff ff 7f 00       	and    $0x7fffff,%eax
    f06a:	89 c1                	mov    %eax,%ecx
    f06c:	8b 45 fc             	mov    -0x4(%rbp),%eax
    f06f:	89 c2                	mov    %eax,%edx
    f071:	48 8d 35 da 4f 00 00 	lea    0x4fda(%rip),%rsi        # 14052 <g_1647+0xf12>
    f078:	48 89 cf             	mov    %rcx,%rdi
    f07b:	e8 73 a6 ff ff       	callq  96f3 <transparent_crc>
    f080:	48 8b 05 a1 b3 00 00 	mov    0xb3a1(%rip),%rax        # 1a428 <g_471+0x8>
    f087:	48 c1 e8 20          	shr    $0x20,%rax
    f08b:	66 25 ff 0f          	and    $0xfff,%ax
    f08f:	0f b7 c0             	movzwl %ax,%eax
    f092:	8b 55 fc             	mov    -0x4(%rbp),%edx
    f095:	48 8d 35 bf 4f 00 00 	lea    0x4fbf(%rip),%rsi        # 1405b <g_1647+0xf1b>
    f09c:	48 89 c7             	mov    %rax,%rdi
    f09f:	e8 4f a6 ff ff       	callq  96f3 <transparent_crc>
    f0a4:	48 8b 05 85 b3 00 00 	mov    0xb385(%rip),%rax        # 1a430 <g_471+0x10>
    f0ab:	c1 e0 05             	shl    $0x5,%eax
    f0ae:	c1 f8 05             	sar    $0x5,%eax
    f0b1:	48 98                	cltq   
    f0b3:	8b 55 fc             	mov    -0x4(%rbp),%edx
    f0b6:	48 8d 35 a7 4f 00 00 	lea    0x4fa7(%rip),%rsi        # 14064 <g_1647+0xf24>
    f0bd:	48 89 c7             	mov    %rax,%rdi
    f0c0:	e8 2e a6 ff ff       	callq  96f3 <transparent_crc>
    f0c5:	48 8b 05 64 b3 00 00 	mov    0xb364(%rip),%rax        # 1a430 <g_471+0x10>
    f0cc:	48 c1 e8 20          	shr    $0x20,%rax
    f0d0:	25 ff ff 07 00       	and    $0x7ffff,%eax
    f0d5:	89 c1                	mov    %eax,%ecx
    f0d7:	8b 45 fc             	mov    -0x4(%rbp),%eax
    f0da:	89 c2                	mov    %eax,%edx
    f0dc:	48 8d 35 8a 4f 00 00 	lea    0x4f8a(%rip),%rsi        # 1406d <g_1647+0xf2d>
    f0e3:	48 89 cf             	mov    %rcx,%rdi
    f0e6:	e8 08 a6 ff ff       	callq  96f3 <transparent_crc>
    f0eb:	48 8b 05 46 b3 00 00 	mov    0xb346(%rip),%rax        # 1a438 <g_471+0x18>
    f0f2:	66 25 ff 3f          	and    $0x3fff,%ax
    f0f6:	0f b7 c0             	movzwl %ax,%eax
    f0f9:	8b 55 fc             	mov    -0x4(%rbp),%edx
    f0fc:	48 8d 35 73 4f 00 00 	lea    0x4f73(%rip),%rsi        # 14076 <g_1647+0xf36>
    f103:	48 89 c7             	mov    %rax,%rdi
    f106:	e8 e8 a5 ff ff       	callq  96f3 <transparent_crc>
    f10b:	48 8b 05 26 b3 00 00 	mov    0xb326(%rip),%rax        # 1a438 <g_471+0x18>
    f112:	48 c1 e0 0b          	shl    $0xb,%rax
    f116:	48 c1 f8 2b          	sar    $0x2b,%rax
    f11a:	48 98                	cltq   
    f11c:	8b 55 fc             	mov    -0x4(%rbp),%edx
    f11f:	48 8d 35 59 4f 00 00 	lea    0x4f59(%rip),%rsi        # 1407f <g_1647+0xf3f>
    f126:	48 89 c7             	mov    %rax,%rdi
    f129:	e8 c5 a5 ff ff       	callq  96f3 <transparent_crc>
    f12e:	48 8b 05 0b b3 00 00 	mov    0xb30b(%rip),%rax        # 1a440 <g_471+0x20>
    f135:	c1 e0 0c             	shl    $0xc,%eax
    f138:	c1 f8 0c             	sar    $0xc,%eax
    f13b:	48 98                	cltq   
    f13d:	8b 55 fc             	mov    -0x4(%rbp),%edx
    f140:	48 8d 35 41 4f 00 00 	lea    0x4f41(%rip),%rsi        # 14088 <g_1647+0xf48>
    f147:	48 89 c7             	mov    %rax,%rdi
    f14a:	e8 a4 a5 ff ff       	callq  96f3 <transparent_crc>
    f14f:	48 8b 05 ea b2 00 00 	mov    0xb2ea(%rip),%rax        # 1a440 <g_471+0x20>
    f156:	c1 f8 14             	sar    $0x14,%eax
    f159:	48 0f bf c0          	movswq %ax,%rax
    f15d:	8b 55 fc             	mov    -0x4(%rbp),%edx
    f160:	48 8d 35 2a 4f 00 00 	lea    0x4f2a(%rip),%rsi        # 14091 <g_1647+0xf51>
    f167:	48 89 c7             	mov    %rax,%rdi
    f16a:	e8 84 a5 ff ff       	callq  96f3 <transparent_crc>
    f16f:	48 8b 05 da b2 00 00 	mov    0xb2da(%rip),%rax        # 1a450 <g_484>
    f176:	8b 55 fc             	mov    -0x4(%rbp),%edx
    f179:	48 8d 35 1a 4f 00 00 	lea    0x4f1a(%rip),%rsi        # 1409a <g_1647+0xf5a>
    f180:	48 89 c7             	mov    %rax,%rdi
    f183:	e8 6b a5 ff ff       	callq  96f3 <transparent_crc>
    f188:	0f b7 05 c9 b2 00 00 	movzwl 0xb2c9(%rip),%eax        # 1a458 <g_484+0x8>
    f18f:	0f b7 c0             	movzwl %ax,%eax
    f192:	8b 55 fc             	mov    -0x4(%rbp),%edx
    f195:	48 8d 35 07 4f 00 00 	lea    0x4f07(%rip),%rsi        # 140a3 <g_1647+0xf63>
    f19c:	48 89 c7             	mov    %rax,%rdi
    f19f:	e8 4f a5 ff ff       	callq  96f3 <transparent_crc>
    f1a4:	48 8b 05 ad b2 00 00 	mov    0xb2ad(%rip),%rax        # 1a458 <g_484+0x8>
    f1ab:	48 c1 e0 1a          	shl    $0x1a,%rax
    f1af:	48 c1 f8 2a          	sar    $0x2a,%rax
    f1b3:	48 98                	cltq   
    f1b5:	8b 55 fc             	mov    -0x4(%rbp),%edx
    f1b8:	48 8d 35 ed 4e 00 00 	lea    0x4eed(%rip),%rsi        # 140ac <g_1647+0xf6c>
    f1bf:	48 89 c7             	mov    %rax,%rdi
    f1c2:	e8 2c a5 ff ff       	callq  96f3 <transparent_crc>
    f1c7:	8b 05 90 b2 00 00    	mov    0xb290(%rip),%eax        # 1a45d <g_484+0xd>
    f1cd:	48 98                	cltq   
    f1cf:	8b 55 fc             	mov    -0x4(%rbp),%edx
    f1d2:	48 8d 35 dc 4e 00 00 	lea    0x4edc(%rip),%rsi        # 140b5 <g_1647+0xf75>
    f1d9:	48 89 c7             	mov    %rax,%rdi
    f1dc:	e8 12 a5 ff ff       	callq  96f3 <transparent_crc>
    f1e1:	48 8b 05 88 b2 00 00 	mov    0xb288(%rip),%rax        # 1a470 <g_485>
    f1e8:	8b 55 fc             	mov    -0x4(%rbp),%edx
    f1eb:	48 8d 35 cc 4e 00 00 	lea    0x4ecc(%rip),%rsi        # 140be <g_1647+0xf7e>
    f1f2:	48 89 c7             	mov    %rax,%rdi
    f1f5:	e8 f9 a4 ff ff       	callq  96f3 <transparent_crc>
    f1fa:	0f b7 05 77 b2 00 00 	movzwl 0xb277(%rip),%eax        # 1a478 <g_485+0x8>
    f201:	0f b7 c0             	movzwl %ax,%eax
    f204:	8b 55 fc             	mov    -0x4(%rbp),%edx
    f207:	48 8d 35 b9 4e 00 00 	lea    0x4eb9(%rip),%rsi        # 140c7 <g_1647+0xf87>
    f20e:	48 89 c7             	mov    %rax,%rdi
    f211:	e8 dd a4 ff ff       	callq  96f3 <transparent_crc>
    f216:	48 8b 05 5b b2 00 00 	mov    0xb25b(%rip),%rax        # 1a478 <g_485+0x8>
    f21d:	48 c1 e0 1a          	shl    $0x1a,%rax
    f221:	48 c1 f8 2a          	sar    $0x2a,%rax
    f225:	48 98                	cltq   
    f227:	8b 55 fc             	mov    -0x4(%rbp),%edx
    f22a:	48 8d 35 9f 4e 00 00 	lea    0x4e9f(%rip),%rsi        # 140d0 <g_1647+0xf90>
    f231:	48 89 c7             	mov    %rax,%rdi
    f234:	e8 ba a4 ff ff       	callq  96f3 <transparent_crc>
    f239:	8b 05 3e b2 00 00    	mov    0xb23e(%rip),%eax        # 1a47d <g_485+0xd>
    f23f:	48 98                	cltq   
    f241:	8b 55 fc             	mov    -0x4(%rbp),%edx
    f244:	48 8d 35 8e 4e 00 00 	lea    0x4e8e(%rip),%rsi        # 140d9 <g_1647+0xf99>
    f24b:	48 89 c7             	mov    %rax,%rdi
    f24e:	e8 a0 a4 ff ff       	callq  96f3 <transparent_crc>
    f253:	48 8b 05 36 b2 00 00 	mov    0xb236(%rip),%rax        # 1a490 <g_486>
    f25a:	8b 55 fc             	mov    -0x4(%rbp),%edx
    f25d:	48 8d 35 7e 4e 00 00 	lea    0x4e7e(%rip),%rsi        # 140e2 <g_1647+0xfa2>
    f264:	48 89 c7             	mov    %rax,%rdi
    f267:	e8 87 a4 ff ff       	callq  96f3 <transparent_crc>
    f26c:	0f b7 05 25 b2 00 00 	movzwl 0xb225(%rip),%eax        # 1a498 <g_486+0x8>
    f273:	0f b7 c0             	movzwl %ax,%eax
    f276:	8b 55 fc             	mov    -0x4(%rbp),%edx
    f279:	48 8d 35 6b 4e 00 00 	lea    0x4e6b(%rip),%rsi        # 140eb <g_1647+0xfab>
    f280:	48 89 c7             	mov    %rax,%rdi
    f283:	e8 6b a4 ff ff       	callq  96f3 <transparent_crc>
    f288:	48 8b 05 09 b2 00 00 	mov    0xb209(%rip),%rax        # 1a498 <g_486+0x8>
    f28f:	48 c1 e0 1a          	shl    $0x1a,%rax
    f293:	48 c1 f8 2a          	sar    $0x2a,%rax
    f297:	48 98                	cltq   
    f299:	8b 55 fc             	mov    -0x4(%rbp),%edx
    f29c:	48 8d 35 51 4e 00 00 	lea    0x4e51(%rip),%rsi        # 140f4 <g_1647+0xfb4>
    f2a3:	48 89 c7             	mov    %rax,%rdi
    f2a6:	e8 48 a4 ff ff       	callq  96f3 <transparent_crc>
    f2ab:	8b 05 ec b1 00 00    	mov    0xb1ec(%rip),%eax        # 1a49d <g_486+0xd>
    f2b1:	48 98                	cltq   
    f2b3:	8b 55 fc             	mov    -0x4(%rbp),%edx
    f2b6:	48 8d 35 40 4e 00 00 	lea    0x4e40(%rip),%rsi        # 140fd <g_1647+0xfbd>
    f2bd:	48 89 c7             	mov    %rax,%rdi
    f2c0:	e8 2e a4 ff ff       	callq  96f3 <transparent_crc>
    f2c5:	48 8b 05 e4 b1 00 00 	mov    0xb1e4(%rip),%rax        # 1a4b0 <g_516>
    f2cc:	8b 55 fc             	mov    -0x4(%rbp),%edx
    f2cf:	48 8d 35 30 4e 00 00 	lea    0x4e30(%rip),%rsi        # 14106 <g_1647+0xfc6>
    f2d6:	48 89 c7             	mov    %rax,%rdi
    f2d9:	e8 15 a4 ff ff       	callq  96f3 <transparent_crc>
    f2de:	0f b7 05 d3 b1 00 00 	movzwl 0xb1d3(%rip),%eax        # 1a4b8 <g_516+0x8>
    f2e5:	0f b7 c0             	movzwl %ax,%eax
    f2e8:	8b 55 fc             	mov    -0x4(%rbp),%edx
    f2eb:	48 8d 35 1d 4e 00 00 	lea    0x4e1d(%rip),%rsi        # 1410f <g_1647+0xfcf>
    f2f2:	48 89 c7             	mov    %rax,%rdi
    f2f5:	e8 f9 a3 ff ff       	callq  96f3 <transparent_crc>
    f2fa:	48 8b 05 b7 b1 00 00 	mov    0xb1b7(%rip),%rax        # 1a4b8 <g_516+0x8>
    f301:	48 c1 e0 1a          	shl    $0x1a,%rax
    f305:	48 c1 f8 2a          	sar    $0x2a,%rax
    f309:	48 98                	cltq   
    f30b:	8b 55 fc             	mov    -0x4(%rbp),%edx
    f30e:	48 8d 35 03 4e 00 00 	lea    0x4e03(%rip),%rsi        # 14118 <g_1647+0xfd8>
    f315:	48 89 c7             	mov    %rax,%rdi
    f318:	e8 d6 a3 ff ff       	callq  96f3 <transparent_crc>
    f31d:	8b 05 9a b1 00 00    	mov    0xb19a(%rip),%eax        # 1a4bd <g_516+0xd>
    f323:	48 98                	cltq   
    f325:	8b 55 fc             	mov    -0x4(%rbp),%edx
    f328:	48 8d 35 f2 4d 00 00 	lea    0x4df2(%rip),%rsi        # 14121 <g_1647+0xfe1>
    f32f:	48 89 c7             	mov    %rax,%rdi
    f332:	e8 bc a3 ff ff       	callq  96f3 <transparent_crc>
    f337:	48 8b 05 92 b1 00 00 	mov    0xb192(%rip),%rax        # 1a4d0 <g_573>
    f33e:	8b 55 fc             	mov    -0x4(%rbp),%edx
    f341:	48 8d 35 e2 4d 00 00 	lea    0x4de2(%rip),%rsi        # 1412a <g_1647+0xfea>
    f348:	48 89 c7             	mov    %rax,%rdi
    f34b:	e8 a3 a3 ff ff       	callq  96f3 <transparent_crc>
    f350:	0f b7 05 81 b1 00 00 	movzwl 0xb181(%rip),%eax        # 1a4d8 <g_573+0x8>
    f357:	0f b7 c0             	movzwl %ax,%eax
    f35a:	8b 55 fc             	mov    -0x4(%rbp),%edx
    f35d:	48 8d 35 cf 4d 00 00 	lea    0x4dcf(%rip),%rsi        # 14133 <g_1647+0xff3>
    f364:	48 89 c7             	mov    %rax,%rdi
    f367:	e8 87 a3 ff ff       	callq  96f3 <transparent_crc>
    f36c:	48 8b 05 65 b1 00 00 	mov    0xb165(%rip),%rax        # 1a4d8 <g_573+0x8>
    f373:	48 c1 e0 1a          	shl    $0x1a,%rax
    f377:	48 c1 f8 2a          	sar    $0x2a,%rax
    f37b:	48 98                	cltq   
    f37d:	8b 55 fc             	mov    -0x4(%rbp),%edx
    f380:	48 8d 35 b5 4d 00 00 	lea    0x4db5(%rip),%rsi        # 1413c <g_1647+0xffc>
    f387:	48 89 c7             	mov    %rax,%rdi
    f38a:	e8 64 a3 ff ff       	callq  96f3 <transparent_crc>
    f38f:	8b 05 48 b1 00 00    	mov    0xb148(%rip),%eax        # 1a4dd <g_573+0xd>
    f395:	48 98                	cltq   
    f397:	8b 55 fc             	mov    -0x4(%rbp),%edx
    f39a:	48 8d 35 a4 4d 00 00 	lea    0x4da4(%rip),%rsi        # 14145 <g_1647+0x1005>
    f3a1:	48 89 c7             	mov    %rax,%rdi
    f3a4:	e8 4a a3 ff ff       	callq  96f3 <transparent_crc>
    f3a9:	48 8b 05 38 b1 00 00 	mov    0xb138(%rip),%rax        # 1a4e8 <g_574>
    f3b0:	c1 e0 03             	shl    $0x3,%eax
    f3b3:	66 c1 f8 03          	sar    $0x3,%ax
    f3b7:	48 0f bf c0          	movswq %ax,%rax
    f3bb:	8b 55 fc             	mov    -0x4(%rbp),%edx
    f3be:	48 8d 35 89 4d 00 00 	lea    0x4d89(%rip),%rsi        # 1414e <g_1647+0x100e>
    f3c5:	48 89 c7             	mov    %rax,%rdi
    f3c8:	e8 26 a3 ff ff       	callq  96f3 <transparent_crc>
    f3cd:	0f b7 05 16 b1 00 00 	movzwl 0xb116(%rip),%eax        # 1a4ea <g_574+0x2>
    f3d4:	48 0f bf c0          	movswq %ax,%rax
    f3d8:	8b 55 fc             	mov    -0x4(%rbp),%edx
    f3db:	48 8d 35 75 4d 00 00 	lea    0x4d75(%rip),%rsi        # 14157 <g_1647+0x1017>
    f3e2:	48 89 c7             	mov    %rax,%rdi
    f3e5:	e8 09 a3 ff ff       	callq  96f3 <transparent_crc>
    f3ea:	8b 05 fc b0 00 00    	mov    0xb0fc(%rip),%eax        # 1a4ec <g_574+0x4>
    f3f0:	25 ff ff 3f 00       	and    $0x3fffff,%eax
    f3f5:	89 c1                	mov    %eax,%ecx
    f3f7:	8b 45 fc             	mov    -0x4(%rbp),%eax
    f3fa:	89 c2                	mov    %eax,%edx
    f3fc:	48 8d 35 5d 4d 00 00 	lea    0x4d5d(%rip),%rsi        # 14160 <g_1647+0x1020>
    f403:	48 89 cf             	mov    %rcx,%rdi
    f406:	e8 e8 a2 ff ff       	callq  96f3 <transparent_crc>
    f40b:	48 8b 05 de b0 00 00 	mov    0xb0de(%rip),%rax        # 1a4f0 <g_610>
    f412:	8b 55 fc             	mov    -0x4(%rbp),%edx
    f415:	48 8d 35 4d 4d 00 00 	lea    0x4d4d(%rip),%rsi        # 14169 <g_1647+0x1029>
    f41c:	48 89 c7             	mov    %rax,%rdi
    f41f:	e8 cf a2 ff ff       	callq  96f3 <transparent_crc>
    f424:	0f b7 05 cd b0 00 00 	movzwl 0xb0cd(%rip),%eax        # 1a4f8 <g_610+0x8>
    f42b:	0f b7 c0             	movzwl %ax,%eax
    f42e:	8b 55 fc             	mov    -0x4(%rbp),%edx
    f431:	48 8d 35 3a 4d 00 00 	lea    0x4d3a(%rip),%rsi        # 14172 <g_1647+0x1032>
    f438:	48 89 c7             	mov    %rax,%rdi
    f43b:	e8 b3 a2 ff ff       	callq  96f3 <transparent_crc>
    f440:	48 8b 05 b1 b0 00 00 	mov    0xb0b1(%rip),%rax        # 1a4f8 <g_610+0x8>
    f447:	48 c1 e0 1a          	shl    $0x1a,%rax
    f44b:	48 c1 f8 2a          	sar    $0x2a,%rax
    f44f:	48 98                	cltq   
    f451:	8b 55 fc             	mov    -0x4(%rbp),%edx
    f454:	48 8d 35 20 4d 00 00 	lea    0x4d20(%rip),%rsi        # 1417b <g_1647+0x103b>
    f45b:	48 89 c7             	mov    %rax,%rdi
    f45e:	e8 90 a2 ff ff       	callq  96f3 <transparent_crc>
    f463:	8b 05 94 b0 00 00    	mov    0xb094(%rip),%eax        # 1a4fd <g_610+0xd>
    f469:	48 98                	cltq   
    f46b:	8b 55 fc             	mov    -0x4(%rbp),%edx
    f46e:	48 8d 35 0f 4d 00 00 	lea    0x4d0f(%rip),%rsi        # 14184 <g_1647+0x1044>
    f475:	48 89 c7             	mov    %rax,%rdi
    f478:	e8 76 a2 ff ff       	callq  96f3 <transparent_crc>
    f47d:	48 8b 05 84 b0 00 00 	mov    0xb084(%rip),%rax        # 1a508 <g_632>
    f484:	c1 e0 03             	shl    $0x3,%eax
    f487:	66 c1 f8 03          	sar    $0x3,%ax
    f48b:	48 0f bf c0          	movswq %ax,%rax
    f48f:	8b 55 fc             	mov    -0x4(%rbp),%edx
    f492:	48 8d 35 f4 4c 00 00 	lea    0x4cf4(%rip),%rsi        # 1418d <g_1647+0x104d>
    f499:	48 89 c7             	mov    %rax,%rdi
    f49c:	e8 52 a2 ff ff       	callq  96f3 <transparent_crc>
    f4a1:	0f b7 05 62 b0 00 00 	movzwl 0xb062(%rip),%eax        # 1a50a <g_632+0x2>
    f4a8:	48 0f bf c0          	movswq %ax,%rax
    f4ac:	8b 55 fc             	mov    -0x4(%rbp),%edx
    f4af:	48 8d 35 e0 4c 00 00 	lea    0x4ce0(%rip),%rsi        # 14196 <g_1647+0x1056>
    f4b6:	48 89 c7             	mov    %rax,%rdi
    f4b9:	e8 35 a2 ff ff       	callq  96f3 <transparent_crc>
    f4be:	8b 05 48 b0 00 00    	mov    0xb048(%rip),%eax        # 1a50c <g_632+0x4>
    f4c4:	25 ff ff 3f 00       	and    $0x3fffff,%eax
    f4c9:	89 c1                	mov    %eax,%ecx
    f4cb:	8b 45 fc             	mov    -0x4(%rbp),%eax
    f4ce:	89 c2                	mov    %eax,%edx
    f4d0:	48 8d 35 c8 4c 00 00 	lea    0x4cc8(%rip),%rsi        # 1419f <g_1647+0x105f>
    f4d7:	48 89 cf             	mov    %rcx,%rdi
    f4da:	e8 14 a2 ff ff       	callq  96f3 <transparent_crc>
    f4df:	48 8b 05 2a b0 00 00 	mov    0xb02a(%rip),%rax        # 1a510 <g_634>
    f4e6:	c1 e0 03             	shl    $0x3,%eax
    f4e9:	66 c1 f8 03          	sar    $0x3,%ax
    f4ed:	48 0f bf c0          	movswq %ax,%rax
    f4f1:	8b 55 fc             	mov    -0x4(%rbp),%edx
    f4f4:	48 8d 35 ad 4c 00 00 	lea    0x4cad(%rip),%rsi        # 141a8 <g_1647+0x1068>
    f4fb:	48 89 c7             	mov    %rax,%rdi
    f4fe:	e8 f0 a1 ff ff       	callq  96f3 <transparent_crc>
    f503:	0f b7 05 08 b0 00 00 	movzwl 0xb008(%rip),%eax        # 1a512 <g_634+0x2>
    f50a:	48 0f bf c0          	movswq %ax,%rax
    f50e:	8b 55 fc             	mov    -0x4(%rbp),%edx
    f511:	48 8d 35 99 4c 00 00 	lea    0x4c99(%rip),%rsi        # 141b1 <g_1647+0x1071>
    f518:	48 89 c7             	mov    %rax,%rdi
    f51b:	e8 d3 a1 ff ff       	callq  96f3 <transparent_crc>
    f520:	8b 05 ee af 00 00    	mov    0xafee(%rip),%eax        # 1a514 <g_634+0x4>
    f526:	25 ff ff 3f 00       	and    $0x3fffff,%eax
    f52b:	89 c1                	mov    %eax,%ecx
    f52d:	8b 45 fc             	mov    -0x4(%rbp),%eax
    f530:	89 c2                	mov    %eax,%edx
    f532:	48 8d 35 81 4c 00 00 	lea    0x4c81(%rip),%rsi        # 141ba <g_1647+0x107a>
    f539:	48 89 cf             	mov    %rcx,%rdi
    f53c:	e8 b2 a1 ff ff       	callq  96f3 <transparent_crc>
    f541:	48 8b 05 d8 af 00 00 	mov    0xafd8(%rip),%rax        # 1a520 <g_635>
    f548:	8b 55 fc             	mov    -0x4(%rbp),%edx
    f54b:	48 8d 35 71 4c 00 00 	lea    0x4c71(%rip),%rsi        # 141c3 <g_1647+0x1083>
    f552:	48 89 c7             	mov    %rax,%rdi
    f555:	e8 99 a1 ff ff       	callq  96f3 <transparent_crc>
    f55a:	0f b7 05 c7 af 00 00 	movzwl 0xafc7(%rip),%eax        # 1a528 <g_635+0x8>
    f561:	0f b7 c0             	movzwl %ax,%eax
    f564:	8b 55 fc             	mov    -0x4(%rbp),%edx
    f567:	48 8d 35 5e 4c 00 00 	lea    0x4c5e(%rip),%rsi        # 141cc <g_1647+0x108c>
    f56e:	48 89 c7             	mov    %rax,%rdi
    f571:	e8 7d a1 ff ff       	callq  96f3 <transparent_crc>
    f576:	48 8b 05 ab af 00 00 	mov    0xafab(%rip),%rax        # 1a528 <g_635+0x8>
    f57d:	48 c1 e0 1a          	shl    $0x1a,%rax
    f581:	48 c1 f8 2a          	sar    $0x2a,%rax
    f585:	48 98                	cltq   
    f587:	8b 55 fc             	mov    -0x4(%rbp),%edx
    f58a:	48 8d 35 44 4c 00 00 	lea    0x4c44(%rip),%rsi        # 141d5 <g_1647+0x1095>
    f591:	48 89 c7             	mov    %rax,%rdi
    f594:	e8 5a a1 ff ff       	callq  96f3 <transparent_crc>
    f599:	8b 05 8e af 00 00    	mov    0xaf8e(%rip),%eax        # 1a52d <g_635+0xd>
    f59f:	48 98                	cltq   
    f5a1:	8b 55 fc             	mov    -0x4(%rbp),%edx
    f5a4:	48 8d 35 33 4c 00 00 	lea    0x4c33(%rip),%rsi        # 141de <g_1647+0x109e>
    f5ab:	48 89 c7             	mov    %rax,%rdi
    f5ae:	e8 40 a1 ff ff       	callq  96f3 <transparent_crc>
    f5b3:	c7 45 f0 00 00 00 00 	movl   $0x0,-0x10(%rbp)
    f5ba:	e9 b6 00 00 00       	jmpq   f675 <main+0x2a89>
    f5bf:	8b 45 f0             	mov    -0x10(%rbp),%eax
    f5c2:	48 98                	cltq   
    f5c4:	48 8d 14 c5 00 00 00 	lea    0x0(,%rax,8),%rdx
    f5cb:	00 
    f5cc:	48 8d 05 cd 3a 00 00 	lea    0x3acd(%rip),%rax        # 130a0 <g_680>
    f5d3:	48 8b 04 02          	mov    (%rdx,%rax,1),%rax
    f5d7:	c1 e0 03             	shl    $0x3,%eax
    f5da:	66 c1 f8 03          	sar    $0x3,%ax
    f5de:	48 0f bf c0          	movswq %ax,%rax
    f5e2:	8b 55 fc             	mov    -0x4(%rbp),%edx
    f5e5:	48 8d 35 fb 4b 00 00 	lea    0x4bfb(%rip),%rsi        # 141e7 <g_1647+0x10a7>
    f5ec:	48 89 c7             	mov    %rax,%rdi
    f5ef:	e8 ff a0 ff ff       	callq  96f3 <transparent_crc>
    f5f4:	8b 45 f0             	mov    -0x10(%rbp),%eax
    f5f7:	48 98                	cltq   
    f5f9:	48 8d 14 c5 00 00 00 	lea    0x0(,%rax,8),%rdx
    f600:	00 
    f601:	48 8d 05 9a 3a 00 00 	lea    0x3a9a(%rip),%rax        # 130a2 <g_680+0x2>
    f608:	0f b7 04 02          	movzwl (%rdx,%rax,1),%eax
    f60c:	48 0f bf c0          	movswq %ax,%rax
    f610:	8b 55 fc             	mov    -0x4(%rbp),%edx
    f613:	48 8d 35 d9 4b 00 00 	lea    0x4bd9(%rip),%rsi        # 141f3 <g_1647+0x10b3>
    f61a:	48 89 c7             	mov    %rax,%rdi
    f61d:	e8 d1 a0 ff ff       	callq  96f3 <transparent_crc>
    f622:	8b 45 f0             	mov    -0x10(%rbp),%eax
    f625:	48 98                	cltq   
    f627:	48 8d 14 c5 00 00 00 	lea    0x0(,%rax,8),%rdx
    f62e:	00 
    f62f:	48 8d 05 6a 3a 00 00 	lea    0x3a6a(%rip),%rax        # 130a0 <g_680>
    f636:	8b 44 02 04          	mov    0x4(%rdx,%rax,1),%eax
    f63a:	25 ff ff 3f 00       	and    $0x3fffff,%eax
    f63f:	89 c1                	mov    %eax,%ecx
    f641:	8b 45 fc             	mov    -0x4(%rbp),%eax
    f644:	89 c2                	mov    %eax,%edx
    f646:	48 8d 35 b2 4b 00 00 	lea    0x4bb2(%rip),%rsi        # 141ff <g_1647+0x10bf>
    f64d:	48 89 cf             	mov    %rcx,%rdi
    f650:	e8 9e a0 ff ff       	callq  96f3 <transparent_crc>
    f655:	83 7d fc 00          	cmpl   $0x0,-0x4(%rbp)
    f659:	74 16                	je     f671 <main+0x2a85>
    f65b:	8b 45 f0             	mov    -0x10(%rbp),%eax
    f65e:	89 c6                	mov    %eax,%esi
    f660:	48 8d 3d 56 40 00 00 	lea    0x4056(%rip),%rdi        # 136bd <g_1647+0x57d>
    f667:	b8 00 00 00 00       	mov    $0x0,%eax
    f66c:	e8 0f 8a ff ff       	callq  8080 <printf@plt>
    f671:	83 45 f0 01          	addl   $0x1,-0x10(%rbp)
    f675:	83 7d f0 06          	cmpl   $0x6,-0x10(%rbp)
    f679:	0f 8e 40 ff ff ff    	jle    f5bf <main+0x29d3>
    f67f:	48 8b 05 ba ae 00 00 	mov    0xaeba(%rip),%rax        # 1a540 <g_698>
    f686:	8b 55 fc             	mov    -0x4(%rbp),%edx
    f689:	48 8d 35 7b 4b 00 00 	lea    0x4b7b(%rip),%rsi        # 1420b <g_1647+0x10cb>
    f690:	48 89 c7             	mov    %rax,%rdi
    f693:	e8 5b a0 ff ff       	callq  96f3 <transparent_crc>
    f698:	0f b7 05 a9 ae 00 00 	movzwl 0xaea9(%rip),%eax        # 1a548 <g_698+0x8>
    f69f:	0f b7 c0             	movzwl %ax,%eax
    f6a2:	8b 55 fc             	mov    -0x4(%rbp),%edx
    f6a5:	48 8d 35 68 4b 00 00 	lea    0x4b68(%rip),%rsi        # 14214 <g_1647+0x10d4>
    f6ac:	48 89 c7             	mov    %rax,%rdi
    f6af:	e8 3f a0 ff ff       	callq  96f3 <transparent_crc>
    f6b4:	48 8b 05 8d ae 00 00 	mov    0xae8d(%rip),%rax        # 1a548 <g_698+0x8>
    f6bb:	48 c1 e0 1a          	shl    $0x1a,%rax
    f6bf:	48 c1 f8 2a          	sar    $0x2a,%rax
    f6c3:	48 98                	cltq   
    f6c5:	8b 55 fc             	mov    -0x4(%rbp),%edx
    f6c8:	48 8d 35 4e 4b 00 00 	lea    0x4b4e(%rip),%rsi        # 1421d <g_1647+0x10dd>
    f6cf:	48 89 c7             	mov    %rax,%rdi
    f6d2:	e8 1c a0 ff ff       	callq  96f3 <transparent_crc>
    f6d7:	8b 05 70 ae 00 00    	mov    0xae70(%rip),%eax        # 1a54d <g_698+0xd>
    f6dd:	48 98                	cltq   
    f6df:	8b 55 fc             	mov    -0x4(%rbp),%edx
    f6e2:	48 8d 35 3d 4b 00 00 	lea    0x4b3d(%rip),%rsi        # 14226 <g_1647+0x10e6>
    f6e9:	48 89 c7             	mov    %rax,%rdi
    f6ec:	e8 02 a0 ff ff       	callq  96f3 <transparent_crc>
    f6f1:	48 8b 05 68 ae 00 00 	mov    0xae68(%rip),%rax        # 1a560 <g_699>
    f6f8:	8b 55 fc             	mov    -0x4(%rbp),%edx
    f6fb:	48 8d 35 2d 4b 00 00 	lea    0x4b2d(%rip),%rsi        # 1422f <g_1647+0x10ef>
    f702:	48 89 c7             	mov    %rax,%rdi
    f705:	e8 e9 9f ff ff       	callq  96f3 <transparent_crc>
    f70a:	0f b7 05 57 ae 00 00 	movzwl 0xae57(%rip),%eax        # 1a568 <g_699+0x8>
    f711:	0f b7 c0             	movzwl %ax,%eax
    f714:	8b 55 fc             	mov    -0x4(%rbp),%edx
    f717:	48 8d 35 1a 4b 00 00 	lea    0x4b1a(%rip),%rsi        # 14238 <g_1647+0x10f8>
    f71e:	48 89 c7             	mov    %rax,%rdi
    f721:	e8 cd 9f ff ff       	callq  96f3 <transparent_crc>
    f726:	48 8b 05 3b ae 00 00 	mov    0xae3b(%rip),%rax        # 1a568 <g_699+0x8>
    f72d:	48 c1 e0 1a          	shl    $0x1a,%rax
    f731:	48 c1 f8 2a          	sar    $0x2a,%rax
    f735:	48 98                	cltq   
    f737:	8b 55 fc             	mov    -0x4(%rbp),%edx
    f73a:	48 8d 35 00 4b 00 00 	lea    0x4b00(%rip),%rsi        # 14241 <g_1647+0x1101>
    f741:	48 89 c7             	mov    %rax,%rdi
    f744:	e8 aa 9f ff ff       	callq  96f3 <transparent_crc>
    f749:	8b 05 1e ae 00 00    	mov    0xae1e(%rip),%eax        # 1a56d <g_699+0xd>
    f74f:	48 98                	cltq   
    f751:	8b 55 fc             	mov    -0x4(%rbp),%edx
    f754:	48 8d 35 ef 4a 00 00 	lea    0x4aef(%rip),%rsi        # 1424a <g_1647+0x110a>
    f75b:	48 89 c7             	mov    %rax,%rdi
    f75e:	e8 90 9f ff ff       	callq  96f3 <transparent_crc>
    f763:	8b 05 0b ae 00 00    	mov    0xae0b(%rip),%eax        # 1a574 <g_758>
    f769:	89 c1                	mov    %eax,%ecx
    f76b:	8b 45 fc             	mov    -0x4(%rbp),%eax
    f76e:	89 c2                	mov    %eax,%edx
    f770:	48 8d 35 dc 4a 00 00 	lea    0x4adc(%rip),%rsi        # 14253 <g_1647+0x1113>
    f777:	48 89 cf             	mov    %rcx,%rdi
    f77a:	e8 74 9f ff ff       	callq  96f3 <transparent_crc>
    f77f:	0f b7 05 fa ad 00 00 	movzwl 0xadfa(%rip),%eax        # 1a580 <g_763>
    f786:	66 25 ff 3f          	and    $0x3fff,%ax
    f78a:	0f b7 c0             	movzwl %ax,%eax
    f78d:	8b 55 fc             	mov    -0x4(%rbp),%edx
    f790:	48 8d 35 c2 4a 00 00 	lea    0x4ac2(%rip),%rsi        # 14259 <g_1647+0x1119>
    f797:	48 89 c7             	mov    %rax,%rdi
    f79a:	e8 54 9f ff ff       	callq  96f3 <transparent_crc>
    f79f:	48 8b 05 da ad 00 00 	mov    0xadda(%rip),%rax        # 1a580 <g_763>
    f7a6:	48 c1 e0 03          	shl    $0x3,%rax
    f7aa:	48 c1 f8 23          	sar    $0x23,%rax
    f7ae:	48 98                	cltq   
    f7b0:	8b 55 fc             	mov    -0x4(%rbp),%edx
    f7b3:	48 8d 35 a8 4a 00 00 	lea    0x4aa8(%rip),%rsi        # 14262 <g_1647+0x1122>
    f7ba:	48 89 c7             	mov    %rax,%rdi
    f7bd:	e8 31 9f ff ff       	callq  96f3 <transparent_crc>
    f7c2:	8b 05 c0 ad 00 00    	mov    0xadc0(%rip),%eax        # 1a588 <g_763+0x8>
    f7c8:	25 ff ff 7f 00       	and    $0x7fffff,%eax
    f7cd:	89 c1                	mov    %eax,%ecx
    f7cf:	8b 45 fc             	mov    -0x4(%rbp),%eax
    f7d2:	89 c2                	mov    %eax,%edx
    f7d4:	48 8d 35 90 4a 00 00 	lea    0x4a90(%rip),%rsi        # 1426b <g_1647+0x112b>
    f7db:	48 89 cf             	mov    %rcx,%rdi
    f7de:	e8 10 9f ff ff       	callq  96f3 <transparent_crc>
    f7e3:	48 8b 05 9e ad 00 00 	mov    0xad9e(%rip),%rax        # 1a588 <g_763+0x8>
    f7ea:	48 c1 e8 20          	shr    $0x20,%rax
    f7ee:	66 25 ff 0f          	and    $0xfff,%ax
    f7f2:	0f b7 c0             	movzwl %ax,%eax
    f7f5:	8b 55 fc             	mov    -0x4(%rbp),%edx
    f7f8:	48 8d 35 75 4a 00 00 	lea    0x4a75(%rip),%rsi        # 14274 <g_1647+0x1134>
    f7ff:	48 89 c7             	mov    %rax,%rdi
    f802:	e8 ec 9e ff ff       	callq  96f3 <transparent_crc>
    f807:	8b 05 83 ad 00 00    	mov    0xad83(%rip),%eax        # 1a590 <g_763+0x10>
    f80d:	c1 e0 05             	shl    $0x5,%eax
    f810:	c1 f8 05             	sar    $0x5,%eax
    f813:	48 98                	cltq   
    f815:	8b 55 fc             	mov    -0x4(%rbp),%edx
    f818:	48 8d 35 5e 4a 00 00 	lea    0x4a5e(%rip),%rsi        # 1427d <g_1647+0x113d>
    f81f:	48 89 c7             	mov    %rax,%rdi
    f822:	e8 cc 9e ff ff       	callq  96f3 <transparent_crc>
    f827:	8b 05 67 ad 00 00    	mov    0xad67(%rip),%eax        # 1a594 <g_763+0x14>
    f82d:	25 ff ff 07 00       	and    $0x7ffff,%eax
    f832:	89 c1                	mov    %eax,%ecx
    f834:	8b 45 fc             	mov    -0x4(%rbp),%eax
    f837:	89 c2                	mov    %eax,%edx
    f839:	48 8d 35 46 4a 00 00 	lea    0x4a46(%rip),%rsi        # 14286 <g_1647+0x1146>
    f840:	48 89 cf             	mov    %rcx,%rdi
    f843:	e8 ab 9e ff ff       	callq  96f3 <transparent_crc>
    f848:	48 8b 05 49 ad 00 00 	mov    0xad49(%rip),%rax        # 1a598 <g_763+0x18>
    f84f:	66 25 ff 3f          	and    $0x3fff,%ax
    f853:	0f b7 c0             	movzwl %ax,%eax
    f856:	8b 55 fc             	mov    -0x4(%rbp),%edx
    f859:	48 8d 35 2f 4a 00 00 	lea    0x4a2f(%rip),%rsi        # 1428f <g_1647+0x114f>
    f860:	48 89 c7             	mov    %rax,%rdi
    f863:	e8 8b 9e ff ff       	callq  96f3 <transparent_crc>
    f868:	8b 05 2e ad 00 00    	mov    0xad2e(%rip),%eax        # 1a59c <g_763+0x1c>
    f86e:	c1 e0 0b             	shl    $0xb,%eax
    f871:	c1 f8 0b             	sar    $0xb,%eax
    f874:	48 98                	cltq   
    f876:	8b 55 fc             	mov    -0x4(%rbp),%edx
    f879:	48 8d 35 18 4a 00 00 	lea    0x4a18(%rip),%rsi        # 14298 <g_1647+0x1158>
    f880:	48 89 c7             	mov    %rax,%rdi
    f883:	e8 6b 9e ff ff       	callq  96f3 <transparent_crc>
    f888:	48 8b 05 11 ad 00 00 	mov    0xad11(%rip),%rax        # 1a5a0 <g_763+0x20>
    f88f:	c1 e0 0c             	shl    $0xc,%eax
    f892:	c1 f8 0c             	sar    $0xc,%eax
    f895:	48 98                	cltq   
    f897:	8b 55 fc             	mov    -0x4(%rbp),%edx
    f89a:	48 8d 35 00 4a 00 00 	lea    0x4a00(%rip),%rsi        # 142a1 <g_1647+0x1161>
    f8a1:	48 89 c7             	mov    %rax,%rdi
    f8a4:	e8 4a 9e ff ff       	callq  96f3 <transparent_crc>
    f8a9:	0f b7 05 f2 ac 00 00 	movzwl 0xacf2(%rip),%eax        # 1a5a2 <g_763+0x22>
    f8b0:	66 c1 f8 04          	sar    $0x4,%ax
    f8b4:	48 0f bf c0          	movswq %ax,%rax
    f8b8:	8b 55 fc             	mov    -0x4(%rbp),%edx
    f8bb:	48 8d 35 e8 49 00 00 	lea    0x49e8(%rip),%rsi        # 142aa <g_1647+0x116a>
    f8c2:	48 89 c7             	mov    %rax,%rdi
    f8c5:	e8 29 9e ff ff       	callq  96f3 <transparent_crc>
    f8ca:	c7 45 f0 00 00 00 00 	movl   $0x0,-0x10(%rbp)
    f8d1:	e9 09 01 00 00       	jmpq   f9df <main+0x2df3>
    f8d6:	8b 45 f0             	mov    -0x10(%rbp),%eax
    f8d9:	48 63 d0             	movslq %eax,%rdx
    f8dc:	48 89 d0             	mov    %rdx,%rax
    f8df:	48 c1 e0 04          	shl    $0x4,%rax
    f8e3:	48 01 c2             	add    %rax,%rdx
    f8e6:	48 8d 05 d3 ac 00 00 	lea    0xacd3(%rip),%rax        # 1a5c0 <g_777>
    f8ed:	48 8b 04 02          	mov    (%rdx,%rax,1),%rax
    f8f1:	8b 55 fc             	mov    -0x4(%rbp),%edx
    f8f4:	48 8d 35 b8 49 00 00 	lea    0x49b8(%rip),%rsi        # 142b3 <g_1647+0x1173>
    f8fb:	48 89 c7             	mov    %rax,%rdi
    f8fe:	e8 f0 9d ff ff       	callq  96f3 <transparent_crc>
    f903:	8b 45 f0             	mov    -0x10(%rbp),%eax
    f906:	48 63 d0             	movslq %eax,%rdx
    f909:	48 89 d0             	mov    %rdx,%rax
    f90c:	48 c1 e0 04          	shl    $0x4,%rax
    f910:	48 01 c2             	add    %rax,%rdx
    f913:	48 8d 05 ae ac 00 00 	lea    0xacae(%rip),%rax        # 1a5c8 <g_777+0x8>
    f91a:	0f b7 04 02          	movzwl (%rdx,%rax,1),%eax
    f91e:	0f b7 c0             	movzwl %ax,%eax
    f921:	8b 55 fc             	mov    -0x4(%rbp),%edx
    f924:	48 8d 35 94 49 00 00 	lea    0x4994(%rip),%rsi        # 142bf <g_1647+0x117f>
    f92b:	48 89 c7             	mov    %rax,%rdi
    f92e:	e8 c0 9d ff ff       	callq  96f3 <transparent_crc>
    f933:	8b 45 f0             	mov    -0x10(%rbp),%eax
    f936:	48 63 d0             	movslq %eax,%rdx
    f939:	48 89 d0             	mov    %rdx,%rax
    f93c:	48 c1 e0 04          	shl    $0x4,%rax
    f940:	48 01 c2             	add    %rax,%rdx
    f943:	48 8d 05 76 ac 00 00 	lea    0xac76(%rip),%rax        # 1a5c0 <g_777>
    f94a:	0f b6 4c 02 0a       	movzbl 0xa(%rdx,%rax,1),%ecx
    f94f:	0f b6 c9             	movzbl %cl,%ecx
    f952:	0f b6 74 02 0b       	movzbl 0xb(%rdx,%rax,1),%esi
    f957:	40 0f b6 f6          	movzbl %sil,%esi
    f95b:	48 c1 e6 08          	shl    $0x8,%rsi
    f95f:	48 09 f1             	or     %rsi,%rcx
    f962:	0f b6 44 02 0c       	movzbl 0xc(%rdx,%rax,1),%eax
    f967:	0f b6 c0             	movzbl %al,%eax
    f96a:	83 e0 3f             	and    $0x3f,%eax
    f96d:	48 c1 e0 10          	shl    $0x10,%rax
    f971:	48 09 c8             	or     %rcx,%rax
    f974:	48 c1 e0 2a          	shl    $0x2a,%rax
    f978:	48 c1 f8 2a          	sar    $0x2a,%rax
    f97c:	48 98                	cltq   
    f97e:	8b 55 fc             	mov    -0x4(%rbp),%edx
    f981:	48 8d 35 43 49 00 00 	lea    0x4943(%rip),%rsi        # 142cb <g_1647+0x118b>
    f988:	48 89 c7             	mov    %rax,%rdi
    f98b:	e8 63 9d ff ff       	callq  96f3 <transparent_crc>
    f990:	8b 45 f0             	mov    -0x10(%rbp),%eax
    f993:	48 63 d0             	movslq %eax,%rdx
    f996:	48 89 d0             	mov    %rdx,%rax
    f999:	48 c1 e0 04          	shl    $0x4,%rax
    f99d:	48 01 c2             	add    %rax,%rdx
    f9a0:	48 8d 05 19 ac 00 00 	lea    0xac19(%rip),%rax        # 1a5c0 <g_777>
    f9a7:	8b 44 02 0d          	mov    0xd(%rdx,%rax,1),%eax
    f9ab:	48 98                	cltq   
    f9ad:	8b 55 fc             	mov    -0x4(%rbp),%edx
    f9b0:	48 8d 35 20 49 00 00 	lea    0x4920(%rip),%rsi        # 142d7 <g_1647+0x1197>
    f9b7:	48 89 c7             	mov    %rax,%rdi
    f9ba:	e8 34 9d ff ff       	callq  96f3 <transparent_crc>
    f9bf:	83 7d fc 00          	cmpl   $0x0,-0x4(%rbp)
    f9c3:	74 16                	je     f9db <main+0x2def>
    f9c5:	8b 45 f0             	mov    -0x10(%rbp),%eax
    f9c8:	89 c6                	mov    %eax,%esi
    f9ca:	48 8d 3d ec 3c 00 00 	lea    0x3cec(%rip),%rdi        # 136bd <g_1647+0x57d>
    f9d1:	b8 00 00 00 00       	mov    $0x0,%eax
    f9d6:	e8 a5 86 ff ff       	callq  8080 <printf@plt>
    f9db:	83 45 f0 01          	addl   $0x1,-0x10(%rbp)
    f9df:	83 7d f0 04          	cmpl   $0x4,-0x10(%rbp)
    f9e3:	0f 8e ed fe ff ff    	jle    f8d6 <main+0x2cea>
    f9e9:	0f b7 05 28 ac 00 00 	movzwl 0xac28(%rip),%eax        # 1a618 <g_778>
    f9f0:	0f b7 c0             	movzwl %ax,%eax
    f9f3:	8b 55 fc             	mov    -0x4(%rbp),%edx
    f9f6:	48 8d 35 e6 48 00 00 	lea    0x48e6(%rip),%rsi        # 142e3 <g_1647+0x11a3>
    f9fd:	48 89 c7             	mov    %rax,%rdi
    fa00:	e8 ee 9c ff ff       	callq  96f3 <transparent_crc>
    fa05:	48 8b 05 0c ac 00 00 	mov    0xac0c(%rip),%rax        # 1a618 <g_778>
    fa0c:	48 c1 e0 0f          	shl    $0xf,%rax
    fa10:	48 c1 f8 2f          	sar    $0x2f,%rax
    fa14:	48 98                	cltq   
    fa16:	8b 55 fc             	mov    -0x4(%rbp),%edx
    fa19:	48 8d 35 cc 48 00 00 	lea    0x48cc(%rip),%rsi        # 142ec <g_1647+0x11ac>
    fa20:	48 89 c7             	mov    %rax,%rdi
    fa23:	e8 cb 9c ff ff       	callq  96f3 <transparent_crc>
    fa28:	48 8b 05 e9 ab 00 00 	mov    0xabe9(%rip),%rax        # 1a618 <g_778>
    fa2f:	48 c1 e8 31          	shr    $0x31,%rax
    fa33:	83 e0 07             	and    $0x7,%eax
    fa36:	0f b6 c0             	movzbl %al,%eax
    fa39:	8b 55 fc             	mov    -0x4(%rbp),%edx
    fa3c:	48 8d 35 b2 48 00 00 	lea    0x48b2(%rip),%rsi        # 142f5 <g_1647+0x11b5>
    fa43:	48 89 c7             	mov    %rax,%rdi
    fa46:	e8 a8 9c ff ff       	callq  96f3 <transparent_crc>
    fa4b:	48 8b 05 ce ab 00 00 	mov    0xabce(%rip),%rax        # 1a620 <g_778+0x8>
    fa52:	c1 e0 0b             	shl    $0xb,%eax
    fa55:	c1 f8 0b             	sar    $0xb,%eax
    fa58:	48 98                	cltq   
    fa5a:	8b 55 fc             	mov    -0x4(%rbp),%edx
    fa5d:	48 8d 35 9a 48 00 00 	lea    0x489a(%rip),%rsi        # 142fe <g_1647+0x11be>
    fa64:	48 89 c7             	mov    %rax,%rdi
    fa67:	e8 87 9c ff ff       	callq  96f3 <transparent_crc>
    fa6c:	0f b7 05 b5 ab 00 00 	movzwl 0xabb5(%rip),%eax        # 1a628 <g_809>
    fa73:	0f b7 c0             	movzwl %ax,%eax
    fa76:	8b 55 fc             	mov    -0x4(%rbp),%edx
    fa79:	48 8d 35 87 48 00 00 	lea    0x4887(%rip),%rsi        # 14307 <g_1647+0x11c7>
    fa80:	48 89 c7             	mov    %rax,%rdi
    fa83:	e8 6b 9c ff ff       	callq  96f3 <transparent_crc>
    fa88:	8b 05 9e ab 00 00    	mov    0xab9e(%rip),%eax        # 1a62c <g_809+0x4>
    fa8e:	c1 e0 0f             	shl    $0xf,%eax
    fa91:	c1 f8 0f             	sar    $0xf,%eax
    fa94:	48 98                	cltq   
    fa96:	8b 55 fc             	mov    -0x4(%rbp),%edx
    fa99:	48 8d 35 70 48 00 00 	lea    0x4870(%rip),%rsi        # 14310 <g_1647+0x11d0>
    faa0:	48 89 c7             	mov    %rax,%rdi
    faa3:	e8 4b 9c ff ff       	callq  96f3 <transparent_crc>
    faa8:	0f b6 05 7f ab 00 00 	movzbl 0xab7f(%rip),%eax        # 1a62e <g_809+0x6>
    faaf:	d0 e8                	shr    %al
    fab1:	83 e0 07             	and    $0x7,%eax
    fab4:	0f b6 c0             	movzbl %al,%eax
    fab7:	8b 55 fc             	mov    -0x4(%rbp),%edx
    faba:	48 8d 35 58 48 00 00 	lea    0x4858(%rip),%rsi        # 14319 <g_1647+0x11d9>
    fac1:	48 89 c7             	mov    %rax,%rdi
    fac4:	e8 2a 9c ff ff       	callq  96f3 <transparent_crc>
    fac9:	8b 05 61 ab 00 00    	mov    0xab61(%rip),%eax        # 1a630 <g_809+0x8>
    facf:	c1 e0 0b             	shl    $0xb,%eax
    fad2:	c1 f8 0b             	sar    $0xb,%eax
    fad5:	48 98                	cltq   
    fad7:	8b 55 fc             	mov    -0x4(%rbp),%edx
    fada:	48 8d 35 41 48 00 00 	lea    0x4841(%rip),%rsi        # 14322 <g_1647+0x11e2>
    fae1:	48 89 c7             	mov    %rax,%rdi
    fae4:	e8 0a 9c ff ff       	callq  96f3 <transparent_crc>
    fae9:	0f b6 05 50 ab 00 00 	movzbl 0xab50(%rip),%eax        # 1a640 <g_828>
    faf0:	0f b6 c0             	movzbl %al,%eax
    faf3:	8b 55 fc             	mov    -0x4(%rbp),%edx
    faf6:	48 8d 35 2e 48 00 00 	lea    0x482e(%rip),%rsi        # 1432b <g_1647+0x11eb>
    fafd:	48 89 c7             	mov    %rax,%rdi
    fb00:	e8 ee 9b ff ff       	callq  96f3 <transparent_crc>
    fb05:	48 8b 05 3c ab 00 00 	mov    0xab3c(%rip),%rax        # 1a648 <g_828+0x8>
    fb0c:	48 89 c1             	mov    %rax,%rcx
    fb0f:	8b 45 fc             	mov    -0x4(%rbp),%eax
    fb12:	89 c2                	mov    %eax,%edx
    fb14:	48 8d 35 19 48 00 00 	lea    0x4819(%rip),%rsi        # 14334 <g_1647+0x11f4>
    fb1b:	48 89 cf             	mov    %rcx,%rdi
    fb1e:	e8 d0 9b ff ff       	callq  96f3 <transparent_crc>
    fb23:	0f b6 05 26 ab 00 00 	movzbl 0xab26(%rip),%eax        # 1a650 <g_828+0x10>
    fb2a:	48 0f be c0          	movsbq %al,%rax
    fb2e:	8b 55 fc             	mov    -0x4(%rbp),%edx
    fb31:	48 8d 35 05 48 00 00 	lea    0x4805(%rip),%rsi        # 1433d <g_1647+0x11fd>
    fb38:	48 89 c7             	mov    %rax,%rdi
    fb3b:	e8 b3 9b ff ff       	callq  96f3 <transparent_crc>
    fb40:	0f b7 05 0b ab 00 00 	movzwl 0xab0b(%rip),%eax        # 1a652 <g_828+0x12>
    fb47:	0f b7 c0             	movzwl %ax,%eax
    fb4a:	8b 55 fc             	mov    -0x4(%rbp),%edx
    fb4d:	48 8d 35 f2 47 00 00 	lea    0x47f2(%rip),%rsi        # 14346 <g_1647+0x1206>
    fb54:	48 89 c7             	mov    %rax,%rdi
    fb57:	e8 97 9b ff ff       	callq  96f3 <transparent_crc>
    fb5c:	0f b7 05 f1 aa 00 00 	movzwl 0xaaf1(%rip),%eax        # 1a654 <g_828+0x14>
    fb63:	c1 e0 05             	shl    $0x5,%eax
    fb66:	66 c1 f8 05          	sar    $0x5,%ax
    fb6a:	48 0f bf c0          	movswq %ax,%rax
    fb6e:	8b 55 fc             	mov    -0x4(%rbp),%edx
    fb71:	48 8d 35 d7 47 00 00 	lea    0x47d7(%rip),%rsi        # 1434f <g_1647+0x120f>
    fb78:	48 89 c7             	mov    %rax,%rdi
    fb7b:	e8 73 9b ff ff       	callq  96f3 <transparent_crc>
    fb80:	8b 05 ce aa 00 00    	mov    0xaace(%rip),%eax        # 1a654 <g_828+0x14>
    fb86:	c1 e8 0b             	shr    $0xb,%eax
    fb89:	83 e0 3f             	and    $0x3f,%eax
    fb8c:	0f b6 c0             	movzbl %al,%eax
    fb8f:	8b 55 fc             	mov    -0x4(%rbp),%edx
    fb92:	48 8d 35 c2 47 00 00 	lea    0x47c2(%rip),%rsi        # 1435b <g_1647+0x121b>
    fb99:	48 89 c7             	mov    %rax,%rdi
    fb9c:	e8 52 9b ff ff       	callq  96f3 <transparent_crc>
    fba1:	8b 05 b1 aa 00 00    	mov    0xaab1(%rip),%eax        # 1a658 <g_828+0x18>
    fba7:	89 c1                	mov    %eax,%ecx
    fba9:	8b 45 fc             	mov    -0x4(%rbp),%eax
    fbac:	89 c2                	mov    %eax,%edx
    fbae:	48 8d 35 b2 47 00 00 	lea    0x47b2(%rip),%rsi        # 14367 <g_1647+0x1227>
    fbb5:	48 89 cf             	mov    %rcx,%rdi
    fbb8:	e8 36 9b ff ff       	callq  96f3 <transparent_crc>
    fbbd:	48 8b 05 9c aa 00 00 	mov    0xaa9c(%rip),%rax        # 1a660 <g_861>
    fbc4:	8b 55 fc             	mov    -0x4(%rbp),%edx
    fbc7:	48 8d 35 a2 47 00 00 	lea    0x47a2(%rip),%rsi        # 14370 <g_1647+0x1230>
    fbce:	48 89 c7             	mov    %rax,%rdi
    fbd1:	e8 1d 9b ff ff       	callq  96f3 <transparent_crc>
    fbd6:	0f b7 05 8b aa 00 00 	movzwl 0xaa8b(%rip),%eax        # 1a668 <g_861+0x8>
    fbdd:	0f b7 c0             	movzwl %ax,%eax
    fbe0:	8b 55 fc             	mov    -0x4(%rbp),%edx
    fbe3:	48 8d 35 8f 47 00 00 	lea    0x478f(%rip),%rsi        # 14379 <g_1647+0x1239>
    fbea:	48 89 c7             	mov    %rax,%rdi
    fbed:	e8 01 9b ff ff       	callq  96f3 <transparent_crc>
    fbf2:	48 8b 05 6f aa 00 00 	mov    0xaa6f(%rip),%rax        # 1a668 <g_861+0x8>
    fbf9:	48 c1 e0 1a          	shl    $0x1a,%rax
    fbfd:	48 c1 f8 2a          	sar    $0x2a,%rax
    fc01:	48 98                	cltq   
    fc03:	8b 55 fc             	mov    -0x4(%rbp),%edx
    fc06:	48 8d 35 75 47 00 00 	lea    0x4775(%rip),%rsi        # 14382 <g_1647+0x1242>
    fc0d:	48 89 c7             	mov    %rax,%rdi
    fc10:	e8 de 9a ff ff       	callq  96f3 <transparent_crc>
    fc15:	8b 05 52 aa 00 00    	mov    0xaa52(%rip),%eax        # 1a66d <g_861+0xd>
    fc1b:	48 98                	cltq   
    fc1d:	8b 55 fc             	mov    -0x4(%rbp),%edx
    fc20:	48 8d 35 64 47 00 00 	lea    0x4764(%rip),%rsi        # 1438b <g_1647+0x124b>
    fc27:	48 89 c7             	mov    %rax,%rdi
    fc2a:	e8 c4 9a ff ff       	callq  96f3 <transparent_crc>
    fc2f:	c7 45 f0 00 00 00 00 	movl   $0x0,-0x10(%rbp)
    fc36:	e9 71 01 00 00       	jmpq   fdac <main+0x31c0>
    fc3b:	c7 45 f4 00 00 00 00 	movl   $0x0,-0xc(%rbp)
    fc42:	e9 57 01 00 00       	jmpq   fd9e <main+0x31b2>
    fc47:	c7 45 f8 00 00 00 00 	movl   $0x0,-0x8(%rbp)
    fc4e:	e9 3d 01 00 00       	jmpq   fd90 <main+0x31a4>
    fc53:	8b 45 f8             	mov    -0x8(%rbp),%eax
    fc56:	48 63 f0             	movslq %eax,%rsi
    fc59:	8b 45 f0             	mov    -0x10(%rbp),%eax
    fc5c:	48 63 d0             	movslq %eax,%rdx
    fc5f:	8b 45 f4             	mov    -0xc(%rbp),%eax
    fc62:	48 63 c8             	movslq %eax,%rcx
    fc65:	48 89 d0             	mov    %rdx,%rax
    fc68:	48 c1 e0 03          	shl    $0x3,%rax
    fc6c:	48 29 d0             	sub    %rdx,%rax
    fc6f:	48 c1 e0 02          	shl    $0x2,%rax
    fc73:	48 89 ca             	mov    %rcx,%rdx
    fc76:	48 c1 e2 03          	shl    $0x3,%rdx
    fc7a:	48 29 ca             	sub    %rcx,%rdx
    fc7d:	48 01 d0             	add    %rdx,%rax
    fc80:	48 01 f0             	add    %rsi,%rax
    fc83:	48 8d 14 c5 00 00 00 	lea    0x0(,%rax,8),%rdx
    fc8a:	00 
    fc8b:	48 8d 05 ee a9 00 00 	lea    0xa9ee(%rip),%rax        # 1a680 <g_887>
    fc92:	48 8b 04 02          	mov    (%rdx,%rax,1),%rax
    fc96:	c1 e0 03             	shl    $0x3,%eax
    fc99:	66 c1 f8 03          	sar    $0x3,%ax
    fc9d:	48 0f bf c0          	movswq %ax,%rax
    fca1:	8b 55 fc             	mov    -0x4(%rbp),%edx
    fca4:	48 8d 35 e9 46 00 00 	lea    0x46e9(%rip),%rsi        # 14394 <g_1647+0x1254>
    fcab:	48 89 c7             	mov    %rax,%rdi
    fcae:	e8 40 9a ff ff       	callq  96f3 <transparent_crc>
    fcb3:	8b 45 f8             	mov    -0x8(%rbp),%eax
    fcb6:	48 63 f0             	movslq %eax,%rsi
    fcb9:	8b 45 f0             	mov    -0x10(%rbp),%eax
    fcbc:	48 63 d0             	movslq %eax,%rdx
    fcbf:	8b 45 f4             	mov    -0xc(%rbp),%eax
    fcc2:	48 63 c8             	movslq %eax,%rcx
    fcc5:	48 89 d0             	mov    %rdx,%rax
    fcc8:	48 c1 e0 03          	shl    $0x3,%rax
    fccc:	48 29 d0             	sub    %rdx,%rax
    fccf:	48 c1 e0 02          	shl    $0x2,%rax
    fcd3:	48 89 ca             	mov    %rcx,%rdx
    fcd6:	48 c1 e2 03          	shl    $0x3,%rdx
    fcda:	48 29 ca             	sub    %rcx,%rdx
    fcdd:	48 01 d0             	add    %rdx,%rax
    fce0:	48 01 f0             	add    %rsi,%rax
    fce3:	48 8d 14 c5 00 00 00 	lea    0x0(,%rax,8),%rdx
    fcea:	00 
    fceb:	48 8d 05 90 a9 00 00 	lea    0xa990(%rip),%rax        # 1a682 <g_887+0x2>
    fcf2:	0f b7 04 02          	movzwl (%rdx,%rax,1),%eax
    fcf6:	48 0f bf c0          	movswq %ax,%rax
    fcfa:	8b 55 fc             	mov    -0x4(%rbp),%edx
    fcfd:	48 8d 35 a2 46 00 00 	lea    0x46a2(%rip),%rsi        # 143a6 <g_1647+0x1266>
    fd04:	48 89 c7             	mov    %rax,%rdi
    fd07:	e8 e7 99 ff ff       	callq  96f3 <transparent_crc>
    fd0c:	8b 45 f8             	mov    -0x8(%rbp),%eax
    fd0f:	48 63 f0             	movslq %eax,%rsi
    fd12:	8b 45 f0             	mov    -0x10(%rbp),%eax
    fd15:	48 63 d0             	movslq %eax,%rdx
    fd18:	8b 45 f4             	mov    -0xc(%rbp),%eax
    fd1b:	48 63 c8             	movslq %eax,%rcx
    fd1e:	48 89 d0             	mov    %rdx,%rax
    fd21:	48 c1 e0 03          	shl    $0x3,%rax
    fd25:	48 29 d0             	sub    %rdx,%rax
    fd28:	48 c1 e0 02          	shl    $0x2,%rax
    fd2c:	48 89 ca             	mov    %rcx,%rdx
    fd2f:	48 c1 e2 03          	shl    $0x3,%rdx
    fd33:	48 29 ca             	sub    %rcx,%rdx
    fd36:	48 01 d0             	add    %rdx,%rax
    fd39:	48 01 f0             	add    %rsi,%rax
    fd3c:	48 8d 14 c5 00 00 00 	lea    0x0(,%rax,8),%rdx
    fd43:	00 
    fd44:	48 8d 05 35 a9 00 00 	lea    0xa935(%rip),%rax        # 1a680 <g_887>
    fd4b:	8b 44 02 04          	mov    0x4(%rdx,%rax,1),%eax
    fd4f:	25 ff ff 3f 00       	and    $0x3fffff,%eax
    fd54:	89 c1                	mov    %eax,%ecx
    fd56:	8b 45 fc             	mov    -0x4(%rbp),%eax
    fd59:	89 c2                	mov    %eax,%edx
    fd5b:	48 8d 35 56 46 00 00 	lea    0x4656(%rip),%rsi        # 143b8 <g_1647+0x1278>
    fd62:	48 89 cf             	mov    %rcx,%rdi
    fd65:	e8 89 99 ff ff       	callq  96f3 <transparent_crc>
    fd6a:	83 7d fc 00          	cmpl   $0x0,-0x4(%rbp)
    fd6e:	74 1c                	je     fd8c <main+0x31a0>
    fd70:	8b 4d f8             	mov    -0x8(%rbp),%ecx
    fd73:	8b 55 f4             	mov    -0xc(%rbp),%edx
    fd76:	8b 45 f0             	mov    -0x10(%rbp),%eax
    fd79:	89 c6                	mov    %eax,%esi
    fd7b:	48 8d 3d 48 46 00 00 	lea    0x4648(%rip),%rdi        # 143ca <g_1647+0x128a>
    fd82:	b8 00 00 00 00       	mov    $0x0,%eax
    fd87:	e8 f4 82 ff ff       	callq  8080 <printf@plt>
    fd8c:	83 45 f8 01          	addl   $0x1,-0x8(%rbp)
    fd90:	83 7d f8 06          	cmpl   $0x6,-0x8(%rbp)
    fd94:	0f 8e b9 fe ff ff    	jle    fc53 <main+0x3067>
    fd9a:	83 45 f4 01          	addl   $0x1,-0xc(%rbp)
    fd9e:	83 7d f4 03          	cmpl   $0x3,-0xc(%rbp)
    fda2:	0f 8e 9f fe ff ff    	jle    fc47 <main+0x305b>
    fda8:	83 45 f0 01          	addl   $0x1,-0x10(%rbp)
    fdac:	83 7d f0 07          	cmpl   $0x7,-0x10(%rbp)
    fdb0:	0f 8e 85 fe ff ff    	jle    fc3b <main+0x304f>
    fdb6:	48 8b 05 c3 af 00 00 	mov    0xafc3(%rip),%rax        # 1ad80 <g_888>
    fdbd:	8b 55 fc             	mov    -0x4(%rbp),%edx
    fdc0:	48 8d 35 19 46 00 00 	lea    0x4619(%rip),%rsi        # 143e0 <g_1647+0x12a0>
    fdc7:	48 89 c7             	mov    %rax,%rdi
    fdca:	e8 24 99 ff ff       	callq  96f3 <transparent_crc>
    fdcf:	0f b7 05 b2 af 00 00 	movzwl 0xafb2(%rip),%eax        # 1ad88 <g_888+0x8>
    fdd6:	0f b7 c0             	movzwl %ax,%eax
    fdd9:	8b 55 fc             	mov    -0x4(%rbp),%edx
    fddc:	48 8d 35 06 46 00 00 	lea    0x4606(%rip),%rsi        # 143e9 <g_1647+0x12a9>
    fde3:	48 89 c7             	mov    %rax,%rdi
    fde6:	e8 08 99 ff ff       	callq  96f3 <transparent_crc>
    fdeb:	48 8b 05 96 af 00 00 	mov    0xaf96(%rip),%rax        # 1ad88 <g_888+0x8>
    fdf2:	48 c1 e0 1a          	shl    $0x1a,%rax
    fdf6:	48 c1 f8 2a          	sar    $0x2a,%rax
    fdfa:	48 98                	cltq   
    fdfc:	8b 55 fc             	mov    -0x4(%rbp),%edx
    fdff:	48 8d 35 ec 45 00 00 	lea    0x45ec(%rip),%rsi        # 143f2 <g_1647+0x12b2>
    fe06:	48 89 c7             	mov    %rax,%rdi
    fe09:	e8 e5 98 ff ff       	callq  96f3 <transparent_crc>
    fe0e:	8b 05 79 af 00 00    	mov    0xaf79(%rip),%eax        # 1ad8d <g_888+0xd>
    fe14:	48 98                	cltq   
    fe16:	8b 55 fc             	mov    -0x4(%rbp),%edx
    fe19:	48 8d 35 db 45 00 00 	lea    0x45db(%rip),%rsi        # 143fb <g_1647+0x12bb>
    fe20:	48 89 c7             	mov    %rax,%rdi
    fe23:	e8 cb 98 ff ff       	callq  96f3 <transparent_crc>
    fe28:	c7 45 f0 00 00 00 00 	movl   $0x0,-0x10(%rbp)
    fe2f:	e9 a5 00 00 00       	jmpq   fed9 <main+0x32ed>
    fe34:	c7 45 f4 00 00 00 00 	movl   $0x0,-0xc(%rbp)
    fe3b:	e9 8b 00 00 00       	jmpq   fecb <main+0x32df>
    fe40:	c7 45 f8 00 00 00 00 	movl   $0x0,-0x8(%rbp)
    fe47:	eb 78                	jmp    fec1 <main+0x32d5>
    fe49:	8b 45 f8             	mov    -0x8(%rbp),%eax
    fe4c:	48 63 f0             	movslq %eax,%rsi
    fe4f:	8b 45 f0             	mov    -0x10(%rbp),%eax
    fe52:	48 63 d0             	movslq %eax,%rdx
    fe55:	8b 45 f4             	mov    -0xc(%rbp),%eax
    fe58:	48 63 c8             	movslq %eax,%rcx
    fe5b:	48 89 d0             	mov    %rdx,%rax
    fe5e:	48 c1 e0 02          	shl    $0x2,%rax
    fe62:	48 01 d0             	add    %rdx,%rax
    fe65:	48 01 c0             	add    %rax,%rax
    fe68:	48 89 ca             	mov    %rcx,%rdx
    fe6b:	48 c1 e2 02          	shl    $0x2,%rdx
    fe6f:	48 01 ca             	add    %rcx,%rdx
    fe72:	48 01 d0             	add    %rdx,%rax
    fe75:	48 8d 14 30          	lea    (%rax,%rsi,1),%rdx
    fe79:	48 8d 05 20 af 00 00 	lea    0xaf20(%rip),%rax        # 1ada0 <g_899>
    fe80:	48 01 d0             	add    %rdx,%rax
    fe83:	0f b6 00             	movzbl (%rax),%eax
    fe86:	0f b6 c0             	movzbl %al,%eax
    fe89:	8b 55 fc             	mov    -0x4(%rbp),%edx
    fe8c:	48 8d 35 71 45 00 00 	lea    0x4571(%rip),%rsi        # 14404 <g_1647+0x12c4>
    fe93:	48 89 c7             	mov    %rax,%rdi
    fe96:	e8 58 98 ff ff       	callq  96f3 <transparent_crc>
    fe9b:	83 7d fc 00          	cmpl   $0x0,-0x4(%rbp)
    fe9f:	74 1c                	je     febd <main+0x32d1>
    fea1:	8b 4d f8             	mov    -0x8(%rbp),%ecx
    fea4:	8b 55 f4             	mov    -0xc(%rbp),%edx
    fea7:	8b 45 f0             	mov    -0x10(%rbp),%eax
    feaa:	89 c6                	mov    %eax,%esi
    feac:	48 8d 3d 17 45 00 00 	lea    0x4517(%rip),%rdi        # 143ca <g_1647+0x128a>
    feb3:	b8 00 00 00 00       	mov    $0x0,%eax
    feb8:	e8 c3 81 ff ff       	callq  8080 <printf@plt>
    febd:	83 45 f8 01          	addl   $0x1,-0x8(%rbp)
    fec1:	83 7d f8 04          	cmpl   $0x4,-0x8(%rbp)
    fec5:	7e 82                	jle    fe49 <main+0x325d>
    fec7:	83 45 f4 01          	addl   $0x1,-0xc(%rbp)
    fecb:	83 7d f4 01          	cmpl   $0x1,-0xc(%rbp)
    fecf:	0f 8e 6b ff ff ff    	jle    fe40 <main+0x3254>
    fed5:	83 45 f0 01          	addl   $0x1,-0x10(%rbp)
    fed9:	83 7d f0 06          	cmpl   $0x6,-0x10(%rbp)
    fedd:	0f 8e 51 ff ff ff    	jle    fe34 <main+0x3248>
    fee3:	c7 45 f0 00 00 00 00 	movl   $0x0,-0x10(%rbp)
    feea:	e9 b6 00 00 00       	jmpq   ffa5 <main+0x33b9>
    feef:	8b 45 f0             	mov    -0x10(%rbp),%eax
    fef2:	48 98                	cltq   
    fef4:	48 8d 14 c5 00 00 00 	lea    0x0(,%rax,8),%rdx
    fefb:	00 
    fefc:	48 8d 05 fd ae 00 00 	lea    0xaefd(%rip),%rax        # 1ae00 <g_918>
    ff03:	48 8b 04 02          	mov    (%rdx,%rax,1),%rax
    ff07:	c1 e0 03             	shl    $0x3,%eax
    ff0a:	66 c1 f8 03          	sar    $0x3,%ax
    ff0e:	48 0f bf c0          	movswq %ax,%rax
    ff12:	8b 55 fc             	mov    -0x4(%rbp),%edx
    ff15:	48 8d 35 f7 44 00 00 	lea    0x44f7(%rip),%rsi        # 14413 <g_1647+0x12d3>
    ff1c:	48 89 c7             	mov    %rax,%rdi
    ff1f:	e8 cf 97 ff ff       	callq  96f3 <transparent_crc>
    ff24:	8b 45 f0             	mov    -0x10(%rbp),%eax
    ff27:	48 98                	cltq   
    ff29:	48 8d 14 c5 00 00 00 	lea    0x0(,%rax,8),%rdx
    ff30:	00 
    ff31:	48 8d 05 ca ae 00 00 	lea    0xaeca(%rip),%rax        # 1ae02 <g_918+0x2>
    ff38:	0f b7 04 02          	movzwl (%rdx,%rax,1),%eax
    ff3c:	48 0f bf c0          	movswq %ax,%rax
    ff40:	8b 55 fc             	mov    -0x4(%rbp),%edx
    ff43:	48 8d 35 d5 44 00 00 	lea    0x44d5(%rip),%rsi        # 1441f <g_1647+0x12df>
    ff4a:	48 89 c7             	mov    %rax,%rdi
    ff4d:	e8 a1 97 ff ff       	callq  96f3 <transparent_crc>
    ff52:	8b 45 f0             	mov    -0x10(%rbp),%eax
    ff55:	48 98                	cltq   
    ff57:	48 8d 14 c5 00 00 00 	lea    0x0(,%rax,8),%rdx
    ff5e:	00 
    ff5f:	48 8d 05 9a ae 00 00 	lea    0xae9a(%rip),%rax        # 1ae00 <g_918>
    ff66:	8b 44 02 04          	mov    0x4(%rdx,%rax,1),%eax
    ff6a:	25 ff ff 3f 00       	and    $0x3fffff,%eax
    ff6f:	89 c1                	mov    %eax,%ecx
    ff71:	8b 45 fc             	mov    -0x4(%rbp),%eax
    ff74:	89 c2                	mov    %eax,%edx
    ff76:	48 8d 35 ae 44 00 00 	lea    0x44ae(%rip),%rsi        # 1442b <g_1647+0x12eb>
    ff7d:	48 89 cf             	mov    %rcx,%rdi
    ff80:	e8 6e 97 ff ff       	callq  96f3 <transparent_crc>
    ff85:	83 7d fc 00          	cmpl   $0x0,-0x4(%rbp)
    ff89:	74 16                	je     ffa1 <main+0x33b5>
    ff8b:	8b 45 f0             	mov    -0x10(%rbp),%eax
    ff8e:	89 c6                	mov    %eax,%esi
    ff90:	48 8d 3d 26 37 00 00 	lea    0x3726(%rip),%rdi        # 136bd <g_1647+0x57d>
    ff97:	b8 00 00 00 00       	mov    $0x0,%eax
    ff9c:	e8 df 80 ff ff       	callq  8080 <printf@plt>
    ffa1:	83 45 f0 01          	addl   $0x1,-0x10(%rbp)
    ffa5:	83 7d f0 03          	cmpl   $0x3,-0x10(%rbp)
    ffa9:	0f 8e 40 ff ff ff    	jle    feef <main+0x3303>
    ffaf:	0f b6 05 6a ae 00 00 	movzbl 0xae6a(%rip),%eax        # 1ae20 <g_993>
    ffb6:	48 0f be c0          	movsbq %al,%rax
    ffba:	8b 55 fc             	mov    -0x4(%rbp),%edx
    ffbd:	48 8d 35 73 44 00 00 	lea    0x4473(%rip),%rsi        # 14437 <g_1647+0x12f7>
    ffc4:	48 89 c7             	mov    %rax,%rdi
    ffc7:	e8 27 97 ff ff       	callq  96f3 <transparent_crc>
    ffcc:	8b 05 52 ae 00 00    	mov    0xae52(%rip),%eax        # 1ae24 <g_1005>
    ffd2:	89 c1                	mov    %eax,%ecx
    ffd4:	8b 45 fc             	mov    -0x4(%rbp),%eax
    ffd7:	89 c2                	mov    %eax,%edx
    ffd9:	48 8d 35 5d 44 00 00 	lea    0x445d(%rip),%rsi        # 1443d <g_1647+0x12fd>
    ffe0:	48 89 cf             	mov    %rcx,%rdi
    ffe3:	e8 0b 97 ff ff       	callq  96f3 <transparent_crc>
    ffe8:	48 8b 05 51 ae 00 00 	mov    0xae51(%rip),%rax        # 1ae40 <g_1010>
    ffef:	c1 e0 03             	shl    $0x3,%eax
    fff2:	66 c1 f8 03          	sar    $0x3,%ax
    fff6:	48 0f bf c0          	movswq %ax,%rax
    fffa:	8b 55 fc             	mov    -0x4(%rbp),%edx
    fffd:	48 8d 35 40 44 00 00 	lea    0x4440(%rip),%rsi        # 14444 <g_1647+0x1304>
   10004:	48 89 c7             	mov    %rax,%rdi
   10007:	e8 e7 96 ff ff       	callq  96f3 <transparent_crc>
   1000c:	48 8b 05 2d ae 00 00 	mov    0xae2d(%rip),%rax        # 1ae40 <g_1010>
   10013:	48 c1 e0 06          	shl    $0x6,%rax
   10017:	48 c1 f8 26          	sar    $0x26,%rax
   1001b:	48 98                	cltq   
   1001d:	8b 55 fc             	mov    -0x4(%rbp),%edx
   10020:	48 8d 35 27 44 00 00 	lea    0x4427(%rip),%rsi        # 1444e <g_1647+0x130e>
   10027:	48 89 c7             	mov    %rax,%rdi
   1002a:	e8 c4 96 ff ff       	callq  96f3 <transparent_crc>
   1002f:	48 8b 05 12 ae 00 00 	mov    0xae12(%rip),%rax        # 1ae48 <g_1010+0x8>
   10036:	c1 e0 0d             	shl    $0xd,%eax
   10039:	c1 f8 0d             	sar    $0xd,%eax
   1003c:	48 98                	cltq   
   1003e:	8b 55 fc             	mov    -0x4(%rbp),%edx
   10041:	48 8d 35 10 44 00 00 	lea    0x4410(%rip),%rsi        # 14458 <g_1647+0x1318>
   10048:	48 89 c7             	mov    %rax,%rdi
   1004b:	e8 a3 96 ff ff       	callq  96f3 <transparent_crc>
   10050:	48 8b 05 f9 ad 00 00 	mov    0xadf9(%rip),%rax        # 1ae50 <g_1010+0x10>
   10057:	8b 55 fc             	mov    -0x4(%rbp),%edx
   1005a:	48 8d 35 01 44 00 00 	lea    0x4401(%rip),%rsi        # 14462 <g_1647+0x1322>
   10061:	48 89 c7             	mov    %rax,%rdi
   10064:	e8 8a 96 ff ff       	callq  96f3 <transparent_crc>
   10069:	48 8b 05 e8 ad 00 00 	mov    0xade8(%rip),%rax        # 1ae58 <g_1010+0x18>
   10070:	25 ff ff 7f 00       	and    $0x7fffff,%eax
   10075:	89 c1                	mov    %eax,%ecx
   10077:	8b 45 fc             	mov    -0x4(%rbp),%eax
   1007a:	89 c2                	mov    %eax,%edx
   1007c:	48 8d 35 e9 43 00 00 	lea    0x43e9(%rip),%rsi        # 1446c <g_1647+0x132c>
   10083:	48 89 cf             	mov    %rcx,%rdi
   10086:	e8 68 96 ff ff       	callq  96f3 <transparent_crc>
   1008b:	48 8b 05 c6 ad 00 00 	mov    0xadc6(%rip),%rax        # 1ae58 <g_1010+0x18>
   10092:	48 c1 e8 20          	shr    $0x20,%rax
   10096:	25 ff ff 0f 00       	and    $0xfffff,%eax
   1009b:	89 c1                	mov    %eax,%ecx
   1009d:	8b 45 fc             	mov    -0x4(%rbp),%eax
   100a0:	89 c2                	mov    %eax,%edx
   100a2:	48 8d 35 cd 43 00 00 	lea    0x43cd(%rip),%rsi        # 14476 <g_1647+0x1336>
   100a9:	48 89 cf             	mov    %rcx,%rdi
   100ac:	e8 42 96 ff ff       	callq  96f3 <transparent_crc>
   100b1:	48 8b 05 a0 ad 00 00 	mov    0xada0(%rip),%rax        # 1ae58 <g_1010+0x18>
   100b8:	48 c1 e0 0b          	shl    $0xb,%rax
   100bc:	48 c1 f8 3f          	sar    $0x3f,%rax
   100c0:	48 0f be c0          	movsbq %al,%rax
   100c4:	8b 55 fc             	mov    -0x4(%rbp),%edx
   100c7:	48 8d 35 b2 43 00 00 	lea    0x43b2(%rip),%rsi        # 14480 <g_1647+0x1340>
   100ce:	48 89 c7             	mov    %rax,%rdi
   100d1:	e8 1d 96 ff ff       	callq  96f3 <transparent_crc>
   100d6:	48 8b 05 83 ad 00 00 	mov    0xad83(%rip),%rax        # 1ae60 <g_1025>
   100dd:	8b 55 fc             	mov    -0x4(%rbp),%edx
   100e0:	48 8d 35 a3 43 00 00 	lea    0x43a3(%rip),%rsi        # 1448a <g_1647+0x134a>
   100e7:	48 89 c7             	mov    %rax,%rdi
   100ea:	e8 04 96 ff ff       	callq  96f3 <transparent_crc>
   100ef:	0f b7 05 72 ad 00 00 	movzwl 0xad72(%rip),%eax        # 1ae68 <g_1025+0x8>
   100f6:	0f b7 c0             	movzwl %ax,%eax
   100f9:	8b 55 fc             	mov    -0x4(%rbp),%edx
   100fc:	48 8d 35 91 43 00 00 	lea    0x4391(%rip),%rsi        # 14494 <g_1647+0x1354>
   10103:	48 89 c7             	mov    %rax,%rdi
   10106:	e8 e8 95 ff ff       	callq  96f3 <transparent_crc>
   1010b:	48 8b 05 56 ad 00 00 	mov    0xad56(%rip),%rax        # 1ae68 <g_1025+0x8>
   10112:	48 c1 e0 1a          	shl    $0x1a,%rax
   10116:	48 c1 f8 2a          	sar    $0x2a,%rax
   1011a:	48 98                	cltq   
   1011c:	8b 55 fc             	mov    -0x4(%rbp),%edx
   1011f:	48 8d 35 78 43 00 00 	lea    0x4378(%rip),%rsi        # 1449e <g_1647+0x135e>
   10126:	48 89 c7             	mov    %rax,%rdi
   10129:	e8 c5 95 ff ff       	callq  96f3 <transparent_crc>
   1012e:	8b 05 39 ad 00 00    	mov    0xad39(%rip),%eax        # 1ae6d <g_1025+0xd>
   10134:	48 98                	cltq   
   10136:	8b 55 fc             	mov    -0x4(%rbp),%edx
   10139:	48 8d 35 68 43 00 00 	lea    0x4368(%rip),%rsi        # 144a8 <g_1647+0x1368>
   10140:	48 89 c7             	mov    %rax,%rdi
   10143:	e8 ab 95 ff ff       	callq  96f3 <transparent_crc>
   10148:	48 8b 05 31 ad 00 00 	mov    0xad31(%rip),%rax        # 1ae80 <g_1031>
   1014f:	8b 55 fc             	mov    -0x4(%rbp),%edx
   10152:	48 8d 35 59 43 00 00 	lea    0x4359(%rip),%rsi        # 144b2 <g_1647+0x1372>
   10159:	48 89 c7             	mov    %rax,%rdi
   1015c:	e8 92 95 ff ff       	callq  96f3 <transparent_crc>
   10161:	48 8b 05 20 ad 00 00 	mov    0xad20(%rip),%rax        # 1ae88 <g_1031+0x8>
   10168:	66 25 ff 3f          	and    $0x3fff,%ax
   1016c:	0f b7 c0             	movzwl %ax,%eax
   1016f:	8b 55 fc             	mov    -0x4(%rbp),%edx
   10172:	48 8d 35 43 43 00 00 	lea    0x4343(%rip),%rsi        # 144bc <g_1647+0x137c>
   10179:	48 89 c7             	mov    %rax,%rdi
   1017c:	e8 72 95 ff ff       	callq  96f3 <transparent_crc>
   10181:	48 8b 05 00 ad 00 00 	mov    0xad00(%rip),%rax        # 1ae88 <g_1031+0x8>
   10188:	48 c1 e0 03          	shl    $0x3,%rax
   1018c:	48 c1 f8 23          	sar    $0x23,%rax
   10190:	48 98                	cltq   
   10192:	8b 55 fc             	mov    -0x4(%rbp),%edx
   10195:	48 8d 35 2d 43 00 00 	lea    0x432d(%rip),%rsi        # 144c9 <g_1647+0x1389>
   1019c:	48 89 c7             	mov    %rax,%rdi
   1019f:	e8 4f 95 ff ff       	callq  96f3 <transparent_crc>
   101a4:	48 8b 05 e5 ac 00 00 	mov    0xace5(%rip),%rax        # 1ae90 <g_1031+0x10>
   101ab:	25 ff ff 7f 00       	and    $0x7fffff,%eax
   101b0:	89 c1                	mov    %eax,%ecx
   101b2:	8b 45 fc             	mov    -0x4(%rbp),%eax
   101b5:	89 c2                	mov    %eax,%edx
   101b7:	48 8d 35 18 43 00 00 	lea    0x4318(%rip),%rsi        # 144d6 <g_1647+0x1396>
   101be:	48 89 cf             	mov    %rcx,%rdi
   101c1:	e8 2d 95 ff ff       	callq  96f3 <transparent_crc>
   101c6:	48 8b 05 c3 ac 00 00 	mov    0xacc3(%rip),%rax        # 1ae90 <g_1031+0x10>
   101cd:	48 c1 e8 20          	shr    $0x20,%rax
   101d1:	66 25 ff 0f          	and    $0xfff,%ax
   101d5:	0f b7 c0             	movzwl %ax,%eax
   101d8:	8b 55 fc             	mov    -0x4(%rbp),%edx
   101db:	48 8d 35 01 43 00 00 	lea    0x4301(%rip),%rsi        # 144e3 <g_1647+0x13a3>
   101e2:	48 89 c7             	mov    %rax,%rdi
   101e5:	e8 09 95 ff ff       	callq  96f3 <transparent_crc>
   101ea:	48 8b 05 a7 ac 00 00 	mov    0xaca7(%rip),%rax        # 1ae98 <g_1031+0x18>
   101f1:	c1 e0 05             	shl    $0x5,%eax
   101f4:	c1 f8 05             	sar    $0x5,%eax
   101f7:	48 98                	cltq   
   101f9:	8b 55 fc             	mov    -0x4(%rbp),%edx
   101fc:	48 8d 35 ed 42 00 00 	lea    0x42ed(%rip),%rsi        # 144f0 <g_1647+0x13b0>
   10203:	48 89 c7             	mov    %rax,%rdi
   10206:	e8 e8 94 ff ff       	callq  96f3 <transparent_crc>
   1020b:	48 8b 05 86 ac 00 00 	mov    0xac86(%rip),%rax        # 1ae98 <g_1031+0x18>
   10212:	48 c1 e8 20          	shr    $0x20,%rax
   10216:	25 ff ff 07 00       	and    $0x7ffff,%eax
   1021b:	89 c1                	mov    %eax,%ecx
   1021d:	8b 45 fc             	mov    -0x4(%rbp),%eax
   10220:	89 c2                	mov    %eax,%edx
   10222:	48 8d 35 d4 42 00 00 	lea    0x42d4(%rip),%rsi        # 144fd <g_1647+0x13bd>
   10229:	48 89 cf             	mov    %rcx,%rdi
   1022c:	e8 c2 94 ff ff       	callq  96f3 <transparent_crc>
   10231:	48 8b 05 68 ac 00 00 	mov    0xac68(%rip),%rax        # 1aea0 <g_1031+0x20>
   10238:	66 25 ff 3f          	and    $0x3fff,%ax
   1023c:	0f b7 c0             	movzwl %ax,%eax
   1023f:	8b 55 fc             	mov    -0x4(%rbp),%edx
   10242:	48 8d 35 c1 42 00 00 	lea    0x42c1(%rip),%rsi        # 1450a <g_1647+0x13ca>
   10249:	48 89 c7             	mov    %rax,%rdi
   1024c:	e8 a2 94 ff ff       	callq  96f3 <transparent_crc>
   10251:	48 8b 05 48 ac 00 00 	mov    0xac48(%rip),%rax        # 1aea0 <g_1031+0x20>
   10258:	48 c1 e0 0b          	shl    $0xb,%rax
   1025c:	48 c1 f8 2b          	sar    $0x2b,%rax
   10260:	48 98                	cltq   
   10262:	8b 55 fc             	mov    -0x4(%rbp),%edx
   10265:	48 8d 35 ab 42 00 00 	lea    0x42ab(%rip),%rsi        # 14517 <g_1647+0x13d7>
   1026c:	48 89 c7             	mov    %rax,%rdi
   1026f:	e8 7f 94 ff ff       	callq  96f3 <transparent_crc>
   10274:	48 8b 05 2d ac 00 00 	mov    0xac2d(%rip),%rax        # 1aea8 <g_1031+0x28>
   1027b:	c1 e0 0c             	shl    $0xc,%eax
   1027e:	c1 f8 0c             	sar    $0xc,%eax
   10281:	48 98                	cltq   
   10283:	8b 55 fc             	mov    -0x4(%rbp),%edx
   10286:	48 8d 35 97 42 00 00 	lea    0x4297(%rip),%rsi        # 14524 <g_1647+0x13e4>
   1028d:	48 89 c7             	mov    %rax,%rdi
   10290:	e8 5e 94 ff ff       	callq  96f3 <transparent_crc>
   10295:	48 8b 05 0c ac 00 00 	mov    0xac0c(%rip),%rax        # 1aea8 <g_1031+0x28>
   1029c:	c1 f8 14             	sar    $0x14,%eax
   1029f:	48 0f bf c0          	movswq %ax,%rax
   102a3:	8b 55 fc             	mov    -0x4(%rbp),%edx
   102a6:	48 8d 35 84 42 00 00 	lea    0x4284(%rip),%rsi        # 14531 <g_1647+0x13f1>
   102ad:	48 89 c7             	mov    %rax,%rdi
   102b0:	e8 3e 94 ff ff       	callq  96f3 <transparent_crc>
   102b5:	0f b6 05 f4 ab 00 00 	movzbl 0xabf4(%rip),%eax        # 1aeb0 <g_1031+0x30>
   102bc:	0f b6 c0             	movzbl %al,%eax
   102bf:	8b 55 fc             	mov    -0x4(%rbp),%edx
   102c2:	48 8d 35 75 42 00 00 	lea    0x4275(%rip),%rsi        # 1453e <g_1647+0x13fe>
   102c9:	48 89 c7             	mov    %rax,%rdi
   102cc:	e8 22 94 ff ff       	callq  96f3 <transparent_crc>
   102d1:	48 8b 05 e0 ab 00 00 	mov    0xabe0(%rip),%rax        # 1aeb8 <g_1031+0x38>
   102d8:	48 89 c1             	mov    %rax,%rcx
   102db:	8b 45 fc             	mov    -0x4(%rbp),%eax
   102de:	89 c2                	mov    %eax,%edx
   102e0:	48 8d 35 64 42 00 00 	lea    0x4264(%rip),%rsi        # 1454b <g_1647+0x140b>
   102e7:	48 89 cf             	mov    %rcx,%rdi
   102ea:	e8 04 94 ff ff       	callq  96f3 <transparent_crc>
   102ef:	0f b6 05 ca ab 00 00 	movzbl 0xabca(%rip),%eax        # 1aec0 <g_1031+0x40>
   102f6:	48 0f be c0          	movsbq %al,%rax
   102fa:	8b 55 fc             	mov    -0x4(%rbp),%edx
   102fd:	48 8d 35 54 42 00 00 	lea    0x4254(%rip),%rsi        # 14558 <g_1647+0x1418>
   10304:	48 89 c7             	mov    %rax,%rdi
   10307:	e8 e7 93 ff ff       	callq  96f3 <transparent_crc>
   1030c:	0f b7 05 af ab 00 00 	movzwl 0xabaf(%rip),%eax        # 1aec2 <g_1031+0x42>
   10313:	0f b7 c0             	movzwl %ax,%eax
   10316:	8b 55 fc             	mov    -0x4(%rbp),%edx
   10319:	48 8d 35 45 42 00 00 	lea    0x4245(%rip),%rsi        # 14565 <g_1647+0x1425>
   10320:	48 89 c7             	mov    %rax,%rdi
   10323:	e8 cb 93 ff ff       	callq  96f3 <transparent_crc>
   10328:	48 8b 05 91 ab 00 00 	mov    0xab91(%rip),%rax        # 1aec0 <g_1031+0x40>
   1032f:	48 c1 e0 15          	shl    $0x15,%rax
   10333:	48 c1 f8 35          	sar    $0x35,%rax
   10337:	48 0f bf c0          	movswq %ax,%rax
   1033b:	8b 55 fc             	mov    -0x4(%rbp),%edx
   1033e:	48 8d 35 2d 42 00 00 	lea    0x422d(%rip),%rsi        # 14572 <g_1647+0x1432>
   10345:	48 89 c7             	mov    %rax,%rdi
   10348:	e8 a6 93 ff ff       	callq  96f3 <transparent_crc>
   1034d:	48 8b 05 6c ab 00 00 	mov    0xab6c(%rip),%rax        # 1aec0 <g_1031+0x40>
   10354:	48 c1 e8 2b          	shr    $0x2b,%rax
   10358:	83 e0 3f             	and    $0x3f,%eax
   1035b:	0f b6 c0             	movzbl %al,%eax
   1035e:	8b 55 fc             	mov    -0x4(%rbp),%edx
   10361:	48 8d 35 1a 42 00 00 	lea    0x421a(%rip),%rsi        # 14582 <g_1647+0x1442>
   10368:	48 89 c7             	mov    %rax,%rdi
   1036b:	e8 83 93 ff ff       	callq  96f3 <transparent_crc>
   10370:	8b 05 52 ab 00 00    	mov    0xab52(%rip),%eax        # 1aec8 <g_1031+0x48>
   10376:	89 c1                	mov    %eax,%ecx
   10378:	8b 45 fc             	mov    -0x4(%rbp),%eax
   1037b:	89 c2                	mov    %eax,%edx
   1037d:	48 8d 35 0e 42 00 00 	lea    0x420e(%rip),%rsi        # 14592 <g_1647+0x1452>
   10384:	48 89 cf             	mov    %rcx,%rdi
   10387:	e8 67 93 ff ff       	callq  96f3 <transparent_crc>
   1038c:	48 8b 05 3d ab 00 00 	mov    0xab3d(%rip),%rax        # 1aed0 <g_1031+0x50>
   10393:	8b 55 fc             	mov    -0x4(%rbp),%edx
   10396:	48 8d 35 02 42 00 00 	lea    0x4202(%rip),%rsi        # 1459f <g_1647+0x145f>
   1039d:	48 89 c7             	mov    %rax,%rdi
   103a0:	e8 4e 93 ff ff       	callq  96f3 <transparent_crc>
   103a5:	0f b7 05 2c ab 00 00 	movzwl 0xab2c(%rip),%eax        # 1aed8 <g_1031+0x58>
   103ac:	0f b7 c0             	movzwl %ax,%eax
   103af:	8b 55 fc             	mov    -0x4(%rbp),%edx
   103b2:	48 8d 35 f3 41 00 00 	lea    0x41f3(%rip),%rsi        # 145ac <g_1647+0x146c>
   103b9:	48 89 c7             	mov    %rax,%rdi
   103bc:	e8 32 93 ff ff       	callq  96f3 <transparent_crc>
   103c1:	48 8b 05 10 ab 00 00 	mov    0xab10(%rip),%rax        # 1aed8 <g_1031+0x58>
   103c8:	48 c1 e0 1a          	shl    $0x1a,%rax
   103cc:	48 c1 f8 2a          	sar    $0x2a,%rax
   103d0:	48 98                	cltq   
   103d2:	8b 55 fc             	mov    -0x4(%rbp),%edx
   103d5:	48 8d 35 dd 41 00 00 	lea    0x41dd(%rip),%rsi        # 145b9 <g_1647+0x1479>
   103dc:	48 89 c7             	mov    %rax,%rdi
   103df:	e8 0f 93 ff ff       	callq  96f3 <transparent_crc>
   103e4:	8b 05 f3 aa 00 00    	mov    0xaaf3(%rip),%eax        # 1aedd <g_1031+0x5d>
   103ea:	48 98                	cltq   
   103ec:	8b 55 fc             	mov    -0x4(%rbp),%edx
   103ef:	48 8d 35 d0 41 00 00 	lea    0x41d0(%rip),%rsi        # 145c6 <g_1647+0x1486>
   103f6:	48 89 c7             	mov    %rax,%rdi
   103f9:	e8 f5 92 ff ff       	callq  96f3 <transparent_crc>
   103fe:	8b 05 e0 aa 00 00    	mov    0xaae0(%rip),%eax        # 1aee4 <g_1031+0x64>
   10404:	48 98                	cltq   
   10406:	8b 55 fc             	mov    -0x4(%rbp),%edx
   10409:	48 8d 35 c3 41 00 00 	lea    0x41c3(%rip),%rsi        # 145d3 <g_1647+0x1493>
   10410:	48 89 c7             	mov    %rax,%rdi
   10413:	e8 db 92 ff ff       	callq  96f3 <transparent_crc>
   10418:	0f b7 05 c9 aa 00 00 	movzwl 0xaac9(%rip),%eax        # 1aee8 <g_1031+0x68>
   1041f:	0f b7 c0             	movzwl %ax,%eax
   10422:	8b 55 fc             	mov    -0x4(%rbp),%edx
   10425:	48 8d 35 b1 41 00 00 	lea    0x41b1(%rip),%rsi        # 145dd <g_1647+0x149d>
   1042c:	48 89 c7             	mov    %rax,%rdi
   1042f:	e8 bf 92 ff ff       	callq  96f3 <transparent_crc>
   10434:	48 8b 05 ad aa 00 00 	mov    0xaaad(%rip),%rax        # 1aee8 <g_1031+0x68>
   1043b:	48 c1 e8 20          	shr    $0x20,%rax
   1043f:	25 ff ff ff 00       	and    $0xffffff,%eax
   10444:	89 c1                	mov    %eax,%ecx
   10446:	8b 45 fc             	mov    -0x4(%rbp),%eax
   10449:	89 c2                	mov    %eax,%edx
   1044b:	48 8d 35 95 41 00 00 	lea    0x4195(%rip),%rsi        # 145e7 <g_1647+0x14a7>
   10452:	48 89 cf             	mov    %rcx,%rdi
   10455:	e8 99 92 ff ff       	callq  96f3 <transparent_crc>
   1045a:	0f b7 05 8f aa 00 00 	movzwl 0xaa8f(%rip),%eax        # 1aef0 <g_1031+0x70>
   10461:	0f b7 c0             	movzwl %ax,%eax
   10464:	8b 55 fc             	mov    -0x4(%rbp),%edx
   10467:	48 8d 35 83 41 00 00 	lea    0x4183(%rip),%rsi        # 145f1 <g_1647+0x14b1>
   1046e:	48 89 c7             	mov    %rax,%rdi
   10471:	e8 7d 92 ff ff       	callq  96f3 <transparent_crc>
   10476:	48 8b 05 73 aa 00 00 	mov    0xaa73(%rip),%rax        # 1aef0 <g_1031+0x70>
   1047d:	48 c1 e0 0f          	shl    $0xf,%rax
   10481:	48 c1 f8 2f          	sar    $0x2f,%rax
   10485:	48 98                	cltq   
   10487:	8b 55 fc             	mov    -0x4(%rbp),%edx
   1048a:	48 8d 35 6d 41 00 00 	lea    0x416d(%rip),%rsi        # 145fe <g_1647+0x14be>
   10491:	48 89 c7             	mov    %rax,%rdi
   10494:	e8 5a 92 ff ff       	callq  96f3 <transparent_crc>
   10499:	48 8b 05 50 aa 00 00 	mov    0xaa50(%rip),%rax        # 1aef0 <g_1031+0x70>
   104a0:	48 c1 e8 31          	shr    $0x31,%rax
   104a4:	83 e0 07             	and    $0x7,%eax
   104a7:	0f b6 c0             	movzbl %al,%eax
   104aa:	8b 55 fc             	mov    -0x4(%rbp),%edx
   104ad:	48 8d 35 57 41 00 00 	lea    0x4157(%rip),%rsi        # 1460b <g_1647+0x14cb>
   104b4:	48 89 c7             	mov    %rax,%rdi
   104b7:	e8 37 92 ff ff       	callq  96f3 <transparent_crc>
   104bc:	48 8b 05 35 aa 00 00 	mov    0xaa35(%rip),%rax        # 1aef8 <g_1031+0x78>
   104c3:	c1 e0 0b             	shl    $0xb,%eax
   104c6:	c1 f8 0b             	sar    $0xb,%eax
   104c9:	48 98                	cltq   
   104cb:	8b 55 fc             	mov    -0x4(%rbp),%edx
   104ce:	48 8d 35 43 41 00 00 	lea    0x4143(%rip),%rsi        # 14618 <g_1647+0x14d8>
   104d5:	48 89 c7             	mov    %rax,%rdi
   104d8:	e8 16 92 ff ff       	callq  96f3 <transparent_crc>
   104dd:	8b 05 19 aa 00 00    	mov    0xaa19(%rip),%eax        # 1aefc <g_1031+0x7c>
   104e3:	89 c1                	mov    %eax,%ecx
   104e5:	8b 45 fc             	mov    -0x4(%rbp),%eax
   104e8:	89 c2                	mov    %eax,%edx
   104ea:	48 8d 35 34 41 00 00 	lea    0x4134(%rip),%rsi        # 14625 <g_1647+0x14e5>
   104f1:	48 89 cf             	mov    %rcx,%rdi
   104f4:	e8 fa 91 ff ff       	callq  96f3 <transparent_crc>
   104f9:	8b 05 01 aa 00 00    	mov    0xaa01(%rip),%eax        # 1af00 <g_1031+0x80>
   104ff:	89 c1                	mov    %eax,%ecx
   10501:	8b 45 fc             	mov    -0x4(%rbp),%eax
   10504:	89 c2                	mov    %eax,%edx
   10506:	48 8d 35 22 41 00 00 	lea    0x4122(%rip),%rsi        # 1462f <g_1647+0x14ef>
   1050d:	48 89 cf             	mov    %rcx,%rdi
   10510:	e8 de 91 ff ff       	callq  96f3 <transparent_crc>
   10515:	c7 45 f0 00 00 00 00 	movl   $0x0,-0x10(%rbp)
   1051c:	e9 09 01 00 00       	jmpq   1062a <main+0x3a3e>
   10521:	8b 45 f0             	mov    -0x10(%rbp),%eax
   10524:	48 63 d0             	movslq %eax,%rdx
   10527:	48 89 d0             	mov    %rdx,%rax
   1052a:	48 c1 e0 04          	shl    $0x4,%rax
   1052e:	48 01 c2             	add    %rax,%rdx
   10531:	48 8d 05 e8 a9 00 00 	lea    0xa9e8(%rip),%rax        # 1af20 <g_1052>
   10538:	48 8b 04 02          	mov    (%rdx,%rax,1),%rax
   1053c:	8b 55 fc             	mov    -0x4(%rbp),%edx
   1053f:	48 8d 35 f3 40 00 00 	lea    0x40f3(%rip),%rsi        # 14639 <g_1647+0x14f9>
   10546:	48 89 c7             	mov    %rax,%rdi
   10549:	e8 a5 91 ff ff       	callq  96f3 <transparent_crc>
   1054e:	8b 45 f0             	mov    -0x10(%rbp),%eax
   10551:	48 63 d0             	movslq %eax,%rdx
   10554:	48 89 d0             	mov    %rdx,%rax
   10557:	48 c1 e0 04          	shl    $0x4,%rax
   1055b:	48 01 c2             	add    %rax,%rdx
   1055e:	48 8d 05 c3 a9 00 00 	lea    0xa9c3(%rip),%rax        # 1af28 <g_1052+0x8>
   10565:	0f b7 04 02          	movzwl (%rdx,%rax,1),%eax
   10569:	0f b7 c0             	movzwl %ax,%eax
   1056c:	8b 55 fc             	mov    -0x4(%rbp),%edx
   1056f:	48 8d 35 d0 40 00 00 	lea    0x40d0(%rip),%rsi        # 14646 <g_1647+0x1506>
   10576:	48 89 c7             	mov    %rax,%rdi
   10579:	e8 75 91 ff ff       	callq  96f3 <transparent_crc>
   1057e:	8b 45 f0             	mov    -0x10(%rbp),%eax
   10581:	48 63 d0             	movslq %eax,%rdx
   10584:	48 89 d0             	mov    %rdx,%rax
   10587:	48 c1 e0 04          	shl    $0x4,%rax
   1058b:	48 01 c2             	add    %rax,%rdx
   1058e:	48 8d 05 8b a9 00 00 	lea    0xa98b(%rip),%rax        # 1af20 <g_1052>
   10595:	0f b6 4c 02 0a       	movzbl 0xa(%rdx,%rax,1),%ecx
   1059a:	0f b6 c9             	movzbl %cl,%ecx
   1059d:	0f b6 74 02 0b       	movzbl 0xb(%rdx,%rax,1),%esi
   105a2:	40 0f b6 f6          	movzbl %sil,%esi
   105a6:	48 c1 e6 08          	shl    $0x8,%rsi
   105aa:	48 09 f1             	or     %rsi,%rcx
   105ad:	0f b6 44 02 0c       	movzbl 0xc(%rdx,%rax,1),%eax
   105b2:	0f b6 c0             	movzbl %al,%eax
   105b5:	83 e0 3f             	and    $0x3f,%eax
   105b8:	48 c1 e0 10          	shl    $0x10,%rax
   105bc:	48 09 c8             	or     %rcx,%rax
   105bf:	48 c1 e0 2a          	shl    $0x2a,%rax
   105c3:	48 c1 f8 2a          	sar    $0x2a,%rax
   105c7:	48 98                	cltq   
   105c9:	8b 55 fc             	mov    -0x4(%rbp),%edx
   105cc:	48 8d 35 80 40 00 00 	lea    0x4080(%rip),%rsi        # 14653 <g_1647+0x1513>
   105d3:	48 89 c7             	mov    %rax,%rdi
   105d6:	e8 18 91 ff ff       	callq  96f3 <transparent_crc>
   105db:	8b 45 f0             	mov    -0x10(%rbp),%eax
   105de:	48 63 d0             	movslq %eax,%rdx
   105e1:	48 89 d0             	mov    %rdx,%rax
   105e4:	48 c1 e0 04          	shl    $0x4,%rax
   105e8:	48 01 c2             	add    %rax,%rdx
   105eb:	48 8d 05 2e a9 00 00 	lea    0xa92e(%rip),%rax        # 1af20 <g_1052>
   105f2:	8b 44 02 0d          	mov    0xd(%rdx,%rax,1),%eax
   105f6:	48 98                	cltq   
   105f8:	8b 55 fc             	mov    -0x4(%rbp),%edx
   105fb:	48 8d 35 5e 40 00 00 	lea    0x405e(%rip),%rsi        # 14660 <g_1647+0x1520>
   10602:	48 89 c7             	mov    %rax,%rdi
   10605:	e8 e9 90 ff ff       	callq  96f3 <transparent_crc>
   1060a:	83 7d fc 00          	cmpl   $0x0,-0x4(%rbp)
   1060e:	74 16                	je     10626 <main+0x3a3a>
   10610:	8b 45 f0             	mov    -0x10(%rbp),%eax
   10613:	89 c6                	mov    %eax,%esi
   10615:	48 8d 3d a1 30 00 00 	lea    0x30a1(%rip),%rdi        # 136bd <g_1647+0x57d>
   1061c:	b8 00 00 00 00       	mov    $0x0,%eax
   10621:	e8 5a 7a ff ff       	callq  8080 <printf@plt>
   10626:	83 45 f0 01          	addl   $0x1,-0x10(%rbp)
   1062a:	83 7d f0 01          	cmpl   $0x1,-0x10(%rbp)
   1062e:	0f 8e ed fe ff ff    	jle    10521 <main+0x3935>
   10634:	48 8b 05 15 a9 00 00 	mov    0xa915(%rip),%rax        # 1af50 <g_1064>
   1063b:	8b 55 fc             	mov    -0x4(%rbp),%edx
   1063e:	48 8d 35 28 40 00 00 	lea    0x4028(%rip),%rsi        # 1466d <g_1647+0x152d>
   10645:	48 89 c7             	mov    %rax,%rdi
   10648:	e8 a6 90 ff ff       	callq  96f3 <transparent_crc>
   1064d:	0f b7 05 04 a9 00 00 	movzwl 0xa904(%rip),%eax        # 1af58 <g_1064+0x8>
   10654:	0f b7 c0             	movzwl %ax,%eax
   10657:	8b 55 fc             	mov    -0x4(%rbp),%edx
   1065a:	48 8d 35 16 40 00 00 	lea    0x4016(%rip),%rsi        # 14677 <g_1647+0x1537>
   10661:	48 89 c7             	mov    %rax,%rdi
   10664:	e8 8a 90 ff ff       	callq  96f3 <transparent_crc>
   10669:	48 8b 05 e8 a8 00 00 	mov    0xa8e8(%rip),%rax        # 1af58 <g_1064+0x8>
   10670:	48 c1 e0 1a          	shl    $0x1a,%rax
   10674:	48 c1 f8 2a          	sar    $0x2a,%rax
   10678:	48 98                	cltq   
   1067a:	8b 55 fc             	mov    -0x4(%rbp),%edx
   1067d:	48 8d 35 fd 3f 00 00 	lea    0x3ffd(%rip),%rsi        # 14681 <g_1647+0x1541>
   10684:	48 89 c7             	mov    %rax,%rdi
   10687:	e8 67 90 ff ff       	callq  96f3 <transparent_crc>
   1068c:	8b 05 cb a8 00 00    	mov    0xa8cb(%rip),%eax        # 1af5d <g_1064+0xd>
   10692:	48 98                	cltq   
   10694:	8b 55 fc             	mov    -0x4(%rbp),%edx
   10697:	48 8d 35 ed 3f 00 00 	lea    0x3fed(%rip),%rsi        # 1468b <g_1647+0x154b>
   1069e:	48 89 c7             	mov    %rax,%rdi
   106a1:	e8 4d 90 ff ff       	callq  96f3 <transparent_crc>
   106a6:	8b 05 b8 a8 00 00    	mov    0xa8b8(%rip),%eax        # 1af64 <g_1073>
   106ac:	48 98                	cltq   
   106ae:	8b 55 fc             	mov    -0x4(%rbp),%edx
   106b1:	48 8d 35 dd 3f 00 00 	lea    0x3fdd(%rip),%rsi        # 14695 <g_1647+0x1555>
   106b8:	48 89 c7             	mov    %rax,%rdi
   106bb:	e8 33 90 ff ff       	callq  96f3 <transparent_crc>
   106c0:	c7 45 f0 00 00 00 00 	movl   $0x0,-0x10(%rbp)
   106c7:	e9 82 01 00 00       	jmpq   1084e <main+0x3c62>
   106cc:	8b 45 f0             	mov    -0x10(%rbp),%eax
   106cf:	48 98                	cltq   
   106d1:	48 c1 e0 05          	shl    $0x5,%rax
   106d5:	48 89 c2             	mov    %rax,%rdx
   106d8:	48 8d 05 a1 a8 00 00 	lea    0xa8a1(%rip),%rax        # 1af80 <g_1081>
   106df:	48 8b 04 02          	mov    (%rdx,%rax,1),%rax
   106e3:	c1 e0 03             	shl    $0x3,%eax
   106e6:	66 c1 f8 03          	sar    $0x3,%ax
   106ea:	48 0f bf c0          	movswq %ax,%rax
   106ee:	8b 55 fc             	mov    -0x4(%rbp),%edx
   106f1:	48 8d 35 a4 3f 00 00 	lea    0x3fa4(%rip),%rsi        # 1469c <g_1647+0x155c>
   106f8:	48 89 c7             	mov    %rax,%rdi
   106fb:	e8 f3 8f ff ff       	callq  96f3 <transparent_crc>
   10700:	8b 45 f0             	mov    -0x10(%rbp),%eax
   10703:	48 98                	cltq   
   10705:	48 c1 e0 05          	shl    $0x5,%rax
   10709:	48 89 c2             	mov    %rax,%rdx
   1070c:	48 8d 05 6d a8 00 00 	lea    0xa86d(%rip),%rax        # 1af80 <g_1081>
   10713:	48 8b 04 02          	mov    (%rdx,%rax,1),%rax
   10717:	48 c1 e0 06          	shl    $0x6,%rax
   1071b:	48 c1 f8 26          	sar    $0x26,%rax
   1071f:	48 98                	cltq   
   10721:	8b 55 fc             	mov    -0x4(%rbp),%edx
   10724:	48 8d 35 7e 3f 00 00 	lea    0x3f7e(%rip),%rsi        # 146a9 <g_1647+0x1569>
   1072b:	48 89 c7             	mov    %rax,%rdi
   1072e:	e8 c0 8f ff ff       	callq  96f3 <transparent_crc>
   10733:	8b 45 f0             	mov    -0x10(%rbp),%eax
   10736:	48 98                	cltq   
   10738:	48 c1 e0 05          	shl    $0x5,%rax
   1073c:	48 89 c2             	mov    %rax,%rdx
   1073f:	48 8d 05 3a a8 00 00 	lea    0xa83a(%rip),%rax        # 1af80 <g_1081>
   10746:	48 8b 44 02 08       	mov    0x8(%rdx,%rax,1),%rax
   1074b:	c1 e0 0d             	shl    $0xd,%eax
   1074e:	c1 f8 0d             	sar    $0xd,%eax
   10751:	48 98                	cltq   
   10753:	8b 55 fc             	mov    -0x4(%rbp),%edx
   10756:	48 8d 35 59 3f 00 00 	lea    0x3f59(%rip),%rsi        # 146b6 <g_1647+0x1576>
   1075d:	48 89 c7             	mov    %rax,%rdi
   10760:	e8 8e 8f ff ff       	callq  96f3 <transparent_crc>
   10765:	8b 45 f0             	mov    -0x10(%rbp),%eax
   10768:	48 98                	cltq   
   1076a:	48 c1 e0 05          	shl    $0x5,%rax
   1076e:	48 89 c2             	mov    %rax,%rdx
   10771:	48 8d 05 18 a8 00 00 	lea    0xa818(%rip),%rax        # 1af90 <g_1081+0x10>
   10778:	48 8b 04 02          	mov    (%rdx,%rax,1),%rax
   1077c:	8b 55 fc             	mov    -0x4(%rbp),%edx
   1077f:	48 8d 35 3d 3f 00 00 	lea    0x3f3d(%rip),%rsi        # 146c3 <g_1647+0x1583>
   10786:	48 89 c7             	mov    %rax,%rdi
   10789:	e8 65 8f ff ff       	callq  96f3 <transparent_crc>
   1078e:	8b 45 f0             	mov    -0x10(%rbp),%eax
   10791:	48 98                	cltq   
   10793:	48 c1 e0 05          	shl    $0x5,%rax
   10797:	48 89 c2             	mov    %rax,%rdx
   1079a:	48 8d 05 ef a7 00 00 	lea    0xa7ef(%rip),%rax        # 1af90 <g_1081+0x10>
   107a1:	48 8b 44 02 08       	mov    0x8(%rdx,%rax,1),%rax
   107a6:	25 ff ff 7f 00       	and    $0x7fffff,%eax
   107ab:	89 c1                	mov    %eax,%ecx
   107ad:	8b 45 fc             	mov    -0x4(%rbp),%eax
   107b0:	89 c2                	mov    %eax,%edx
   107b2:	48 8d 35 17 3f 00 00 	lea    0x3f17(%rip),%rsi        # 146d0 <g_1647+0x1590>
   107b9:	48 89 cf             	mov    %rcx,%rdi
   107bc:	e8 32 8f ff ff       	callq  96f3 <transparent_crc>
   107c1:	8b 45 f0             	mov    -0x10(%rbp),%eax
   107c4:	48 98                	cltq   
   107c6:	48 c1 e0 05          	shl    $0x5,%rax
   107ca:	48 89 c2             	mov    %rax,%rdx
   107cd:	48 8d 05 bc a7 00 00 	lea    0xa7bc(%rip),%rax        # 1af90 <g_1081+0x10>
   107d4:	48 8b 44 02 08       	mov    0x8(%rdx,%rax,1),%rax
   107d9:	48 c1 e8 20          	shr    $0x20,%rax
   107dd:	25 ff ff 0f 00       	and    $0xfffff,%eax
   107e2:	89 c1                	mov    %eax,%ecx
   107e4:	8b 45 fc             	mov    -0x4(%rbp),%eax
   107e7:	89 c2                	mov    %eax,%edx
   107e9:	48 8d 35 ed 3e 00 00 	lea    0x3eed(%rip),%rsi        # 146dd <g_1647+0x159d>
   107f0:	48 89 cf             	mov    %rcx,%rdi
   107f3:	e8 fb 8e ff ff       	callq  96f3 <transparent_crc>
   107f8:	8b 45 f0             	mov    -0x10(%rbp),%eax
   107fb:	48 98                	cltq   
   107fd:	48 c1 e0 05          	shl    $0x5,%rax
   10801:	48 89 c2             	mov    %rax,%rdx
   10804:	48 8d 05 85 a7 00 00 	lea    0xa785(%rip),%rax        # 1af90 <g_1081+0x10>
   1080b:	48 8b 44 02 08       	mov    0x8(%rdx,%rax,1),%rax
   10810:	48 c1 e0 0b          	shl    $0xb,%rax
   10814:	48 c1 f8 3f          	sar    $0x3f,%rax
   10818:	48 0f be c0          	movsbq %al,%rax
   1081c:	8b 55 fc             	mov    -0x4(%rbp),%edx
   1081f:	48 8d 35 c4 3e 00 00 	lea    0x3ec4(%rip),%rsi        # 146ea <g_1647+0x15aa>
   10826:	48 89 c7             	mov    %rax,%rdi
   10829:	e8 c5 8e ff ff       	callq  96f3 <transparent_crc>
   1082e:	83 7d fc 00          	cmpl   $0x0,-0x4(%rbp)
   10832:	74 16                	je     1084a <main+0x3c5e>
   10834:	8b 45 f0             	mov    -0x10(%rbp),%eax
   10837:	89 c6                	mov    %eax,%esi
   10839:	48 8d 3d 7d 2e 00 00 	lea    0x2e7d(%rip),%rdi        # 136bd <g_1647+0x57d>
   10840:	b8 00 00 00 00       	mov    $0x0,%eax
   10845:	e8 36 78 ff ff       	callq  8080 <printf@plt>
   1084a:	83 45 f0 01          	addl   $0x1,-0x10(%rbp)
   1084e:	83 7d f0 02          	cmpl   $0x2,-0x10(%rbp)
   10852:	0f 8e 74 fe ff ff    	jle    106cc <main+0x3ae0>
   10858:	8b 05 82 a7 00 00    	mov    0xa782(%rip),%eax        # 1afe0 <g_1097>
   1085e:	89 c1                	mov    %eax,%ecx
   10860:	8b 45 fc             	mov    -0x4(%rbp),%eax
   10863:	89 c2                	mov    %eax,%edx
   10865:	48 8d 35 8b 3e 00 00 	lea    0x3e8b(%rip),%rsi        # 146f7 <g_1647+0x15b7>
   1086c:	48 89 cf             	mov    %rcx,%rdi
   1086f:	e8 7f 8e ff ff       	callq  96f3 <transparent_crc>
   10874:	48 8b 05 85 a7 00 00 	mov    0xa785(%rip),%rax        # 1b000 <g_1100>
   1087b:	c1 e0 03             	shl    $0x3,%eax
   1087e:	66 c1 f8 03          	sar    $0x3,%ax
   10882:	48 0f bf c0          	movswq %ax,%rax
   10886:	8b 55 fc             	mov    -0x4(%rbp),%edx
   10889:	48 8d 35 6e 3e 00 00 	lea    0x3e6e(%rip),%rsi        # 146fe <g_1647+0x15be>
   10890:	48 89 c7             	mov    %rax,%rdi
   10893:	e8 5b 8e ff ff       	callq  96f3 <transparent_crc>
   10898:	8b 05 66 a7 00 00    	mov    0xa766(%rip),%eax        # 1b004 <g_1100+0x4>
   1089e:	c1 e0 06             	shl    $0x6,%eax
   108a1:	c1 f8 06             	sar    $0x6,%eax
   108a4:	48 98                	cltq   
   108a6:	8b 55 fc             	mov    -0x4(%rbp),%edx
   108a9:	48 8d 35 58 3e 00 00 	lea    0x3e58(%rip),%rsi        # 14708 <g_1647+0x15c8>
   108b0:	48 89 c7             	mov    %rax,%rdi
   108b3:	e8 3b 8e ff ff       	callq  96f3 <transparent_crc>
   108b8:	8b 05 4a a7 00 00    	mov    0xa74a(%rip),%eax        # 1b008 <g_1100+0x8>
   108be:	c1 e0 0d             	shl    $0xd,%eax
   108c1:	c1 f8 0d             	sar    $0xd,%eax
   108c4:	48 98                	cltq   
   108c6:	8b 55 fc             	mov    -0x4(%rbp),%edx
   108c9:	48 8d 35 42 3e 00 00 	lea    0x3e42(%rip),%rsi        # 14712 <g_1647+0x15d2>
   108d0:	48 89 c7             	mov    %rax,%rdi
   108d3:	e8 1b 8e ff ff       	callq  96f3 <transparent_crc>
   108d8:	48 8b 05 31 a7 00 00 	mov    0xa731(%rip),%rax        # 1b010 <g_1100+0x10>
   108df:	8b 55 fc             	mov    -0x4(%rbp),%edx
   108e2:	48 8d 35 33 3e 00 00 	lea    0x3e33(%rip),%rsi        # 1471c <g_1647+0x15dc>
   108e9:	48 89 c7             	mov    %rax,%rdi
   108ec:	e8 02 8e ff ff       	callq  96f3 <transparent_crc>
   108f1:	8b 05 21 a7 00 00    	mov    0xa721(%rip),%eax        # 1b018 <g_1100+0x18>
   108f7:	25 ff ff 7f 00       	and    $0x7fffff,%eax
   108fc:	89 c1                	mov    %eax,%ecx
   108fe:	8b 45 fc             	mov    -0x4(%rbp),%eax
   10901:	89 c2                	mov    %eax,%edx
   10903:	48 8d 35 1c 3e 00 00 	lea    0x3e1c(%rip),%rsi        # 14726 <g_1647+0x15e6>
   1090a:	48 89 cf             	mov    %rcx,%rdi
   1090d:	e8 e1 8d ff ff       	callq  96f3 <transparent_crc>
   10912:	48 8b 05 ff a6 00 00 	mov    0xa6ff(%rip),%rax        # 1b018 <g_1100+0x18>
   10919:	48 c1 e8 20          	shr    $0x20,%rax
   1091d:	25 ff ff 0f 00       	and    $0xfffff,%eax
   10922:	89 c1                	mov    %eax,%ecx
   10924:	8b 45 fc             	mov    -0x4(%rbp),%eax
   10927:	89 c2                	mov    %eax,%edx
   10929:	48 8d 35 00 3e 00 00 	lea    0x3e00(%rip),%rsi        # 14730 <g_1647+0x15f0>
   10930:	48 89 cf             	mov    %rcx,%rdi
   10933:	e8 bb 8d ff ff       	callq  96f3 <transparent_crc>
   10938:	0f b6 05 df a6 00 00 	movzbl 0xa6df(%rip),%eax        # 1b01e <g_1100+0x1e>
   1093f:	c1 e0 03             	shl    $0x3,%eax
   10942:	c0 f8 07             	sar    $0x7,%al
   10945:	48 0f be c0          	movsbq %al,%rax
   10949:	8b 55 fc             	mov    -0x4(%rbp),%edx
   1094c:	48 8d 35 e7 3d 00 00 	lea    0x3de7(%rip),%rsi        # 1473a <g_1647+0x15fa>
   10953:	48 89 c7             	mov    %rax,%rdi
   10956:	e8 98 8d ff ff       	callq  96f3 <transparent_crc>
   1095b:	0f b7 05 be a6 00 00 	movzwl 0xa6be(%rip),%eax        # 1b020 <g_1102>
   10962:	c1 e0 05             	shl    $0x5,%eax
   10965:	66 c1 f8 05          	sar    $0x5,%ax
   10969:	48 0f bf c0          	movswq %ax,%rax
   1096d:	8b 55 fc             	mov    -0x4(%rbp),%edx
   10970:	48 8d 35 cd 3d 00 00 	lea    0x3dcd(%rip),%rsi        # 14744 <g_1647+0x1604>
   10977:	48 89 c7             	mov    %rax,%rdi
   1097a:	e8 74 8d ff ff       	callq  96f3 <transparent_crc>
   1097f:	8b 05 9b a6 00 00    	mov    0xa69b(%rip),%eax        # 1b020 <g_1102>
   10985:	c1 e8 0b             	shr    $0xb,%eax
   10988:	83 e0 3f             	and    $0x3f,%eax
   1098b:	0f b6 c0             	movzbl %al,%eax
   1098e:	8b 55 fc             	mov    -0x4(%rbp),%edx
   10991:	48 8d 35 b6 3d 00 00 	lea    0x3db6(%rip),%rsi        # 1474e <g_1647+0x160e>
   10998:	48 89 c7             	mov    %rax,%rdi
   1099b:	e8 53 8d ff ff       	callq  96f3 <transparent_crc>
   109a0:	48 8b 05 81 a6 00 00 	mov    0xa681(%rip),%rax        # 1b028 <g_1186>
   109a7:	c1 e0 03             	shl    $0x3,%eax
   109aa:	66 c1 f8 03          	sar    $0x3,%ax
   109ae:	48 0f bf c0          	movswq %ax,%rax
   109b2:	8b 55 fc             	mov    -0x4(%rbp),%edx
   109b5:	48 8d 35 9c 3d 00 00 	lea    0x3d9c(%rip),%rsi        # 14758 <g_1647+0x1618>
   109bc:	48 89 c7             	mov    %rax,%rdi
   109bf:	e8 2f 8d ff ff       	callq  96f3 <transparent_crc>
   109c4:	0f b7 05 5f a6 00 00 	movzwl 0xa65f(%rip),%eax        # 1b02a <g_1186+0x2>
   109cb:	48 0f bf c0          	movswq %ax,%rax
   109cf:	8b 55 fc             	mov    -0x4(%rbp),%edx
   109d2:	48 8d 35 89 3d 00 00 	lea    0x3d89(%rip),%rsi        # 14762 <g_1647+0x1622>
   109d9:	48 89 c7             	mov    %rax,%rdi
   109dc:	e8 12 8d ff ff       	callq  96f3 <transparent_crc>
   109e1:	48 8b 05 40 a6 00 00 	mov    0xa640(%rip),%rax        # 1b028 <g_1186>
   109e8:	48 c1 e8 20          	shr    $0x20,%rax
   109ec:	25 ff ff 3f 00       	and    $0x3fffff,%eax
   109f1:	89 c1                	mov    %eax,%ecx
   109f3:	8b 45 fc             	mov    -0x4(%rbp),%eax
   109f6:	89 c2                	mov    %eax,%edx
   109f8:	48 8d 35 6d 3d 00 00 	lea    0x3d6d(%rip),%rsi        # 1476c <g_1647+0x162c>
   109ff:	48 89 cf             	mov    %rcx,%rdi
   10a02:	e8 ec 8c ff ff       	callq  96f3 <transparent_crc>
   10a07:	48 8b 05 22 a6 00 00 	mov    0xa622(%rip),%rax        # 1b030 <g_1256>
   10a0e:	8b 55 fc             	mov    -0x4(%rbp),%edx
   10a11:	48 8d 35 5e 3d 00 00 	lea    0x3d5e(%rip),%rsi        # 14776 <g_1647+0x1636>
   10a18:	48 89 c7             	mov    %rax,%rdi
   10a1b:	e8 d3 8c ff ff       	callq  96f3 <transparent_crc>
   10a20:	0f b7 05 11 a6 00 00 	movzwl 0xa611(%rip),%eax        # 1b038 <g_1256+0x8>
   10a27:	0f b7 c0             	movzwl %ax,%eax
   10a2a:	8b 55 fc             	mov    -0x4(%rbp),%edx
   10a2d:	48 8d 35 4c 3d 00 00 	lea    0x3d4c(%rip),%rsi        # 14780 <g_1647+0x1640>
   10a34:	48 89 c7             	mov    %rax,%rdi
   10a37:	e8 b7 8c ff ff       	callq  96f3 <transparent_crc>
   10a3c:	48 8b 05 f5 a5 00 00 	mov    0xa5f5(%rip),%rax        # 1b038 <g_1256+0x8>
   10a43:	48 c1 e0 1a          	shl    $0x1a,%rax
   10a47:	48 c1 f8 2a          	sar    $0x2a,%rax
   10a4b:	48 98                	cltq   
   10a4d:	8b 55 fc             	mov    -0x4(%rbp),%edx
   10a50:	48 8d 35 33 3d 00 00 	lea    0x3d33(%rip),%rsi        # 1478a <g_1647+0x164a>
   10a57:	48 89 c7             	mov    %rax,%rdi
   10a5a:	e8 94 8c ff ff       	callq  96f3 <transparent_crc>
   10a5f:	8b 05 d8 a5 00 00    	mov    0xa5d8(%rip),%eax        # 1b03d <g_1256+0xd>
   10a65:	48 98                	cltq   
   10a67:	8b 55 fc             	mov    -0x4(%rbp),%edx
   10a6a:	48 8d 35 23 3d 00 00 	lea    0x3d23(%rip),%rsi        # 14794 <g_1647+0x1654>
   10a71:	48 89 c7             	mov    %rax,%rdi
   10a74:	e8 7a 8c ff ff       	callq  96f3 <transparent_crc>
   10a79:	48 8b 05 a0 26 00 00 	mov    0x26a0(%rip),%rax        # 13120 <g_1257>
   10a80:	c1 e0 03             	shl    $0x3,%eax
   10a83:	66 c1 f8 03          	sar    $0x3,%ax
   10a87:	48 0f bf c0          	movswq %ax,%rax
   10a8b:	8b 55 fc             	mov    -0x4(%rbp),%edx
   10a8e:	48 8d 35 09 3d 00 00 	lea    0x3d09(%rip),%rsi        # 1479e <g_1647+0x165e>
   10a95:	48 89 c7             	mov    %rax,%rdi
   10a98:	e8 56 8c ff ff       	callq  96f3 <transparent_crc>
   10a9d:	b8 01 00 00 00       	mov    $0x1,%eax
   10aa2:	48 0f bf c0          	movswq %ax,%rax
   10aa6:	8b 55 fc             	mov    -0x4(%rbp),%edx
   10aa9:	48 8d 35 f8 3c 00 00 	lea    0x3cf8(%rip),%rsi        # 147a8 <g_1647+0x1668>
   10ab0:	48 89 c7             	mov    %rax,%rdi
   10ab3:	e8 3b 8c ff ff       	callq  96f3 <transparent_crc>
   10ab8:	b8 55 00 00 00       	mov    $0x55,%eax
   10abd:	89 c1                	mov    %eax,%ecx
   10abf:	8b 45 fc             	mov    -0x4(%rbp),%eax
   10ac2:	89 c2                	mov    %eax,%edx
   10ac4:	48 8d 35 e7 3c 00 00 	lea    0x3ce7(%rip),%rsi        # 147b2 <g_1647+0x1672>
   10acb:	48 89 cf             	mov    %rcx,%rdi
   10ace:	e8 20 8c ff ff       	callq  96f3 <transparent_crc>
   10ad3:	8b 05 87 05 01 00    	mov    0x10587(%rip),%eax        # 21060 <g_1288>
   10ad9:	89 c1                	mov    %eax,%ecx
   10adb:	8b 45 fc             	mov    -0x4(%rbp),%eax
   10ade:	89 c2                	mov    %eax,%edx
   10ae0:	48 8d 35 d5 3c 00 00 	lea    0x3cd5(%rip),%rsi        # 147bc <g_1647+0x167c>
   10ae7:	48 89 cf             	mov    %rcx,%rdi
   10aea:	e8 04 8c ff ff       	callq  96f3 <transparent_crc>
   10aef:	48 8b 05 5a a5 00 00 	mov    0xa55a(%rip),%rax        # 1b050 <g_1321>
   10af6:	8b 55 fc             	mov    -0x4(%rbp),%edx
   10af9:	48 8d 35 c3 3c 00 00 	lea    0x3cc3(%rip),%rsi        # 147c3 <g_1647+0x1683>
   10b00:	48 89 c7             	mov    %rax,%rdi
   10b03:	e8 eb 8b ff ff       	callq  96f3 <transparent_crc>
   10b08:	0f b7 05 49 a5 00 00 	movzwl 0xa549(%rip),%eax        # 1b058 <g_1321+0x8>
   10b0f:	0f b7 c0             	movzwl %ax,%eax
   10b12:	8b 55 fc             	mov    -0x4(%rbp),%edx
   10b15:	48 8d 35 b1 3c 00 00 	lea    0x3cb1(%rip),%rsi        # 147cd <g_1647+0x168d>
   10b1c:	48 89 c7             	mov    %rax,%rdi
   10b1f:	e8 cf 8b ff ff       	callq  96f3 <transparent_crc>
   10b24:	48 8b 05 2d a5 00 00 	mov    0xa52d(%rip),%rax        # 1b058 <g_1321+0x8>
   10b2b:	48 c1 e0 1a          	shl    $0x1a,%rax
   10b2f:	48 c1 f8 2a          	sar    $0x2a,%rax
   10b33:	48 98                	cltq   
   10b35:	8b 55 fc             	mov    -0x4(%rbp),%edx
   10b38:	48 8d 35 98 3c 00 00 	lea    0x3c98(%rip),%rsi        # 147d7 <g_1647+0x1697>
   10b3f:	48 89 c7             	mov    %rax,%rdi
   10b42:	e8 ac 8b ff ff       	callq  96f3 <transparent_crc>
   10b47:	8b 05 10 a5 00 00    	mov    0xa510(%rip),%eax        # 1b05d <g_1321+0xd>
   10b4d:	48 98                	cltq   
   10b4f:	8b 55 fc             	mov    -0x4(%rbp),%edx
   10b52:	48 8d 35 88 3c 00 00 	lea    0x3c88(%rip),%rsi        # 147e1 <g_1647+0x16a1>
   10b59:	48 89 c7             	mov    %rax,%rdi
   10b5c:	e8 92 8b ff ff       	callq  96f3 <transparent_crc>
   10b61:	0f b7 05 18 a5 00 00 	movzwl 0xa518(%rip),%eax        # 1b080 <g_1418>
   10b68:	66 25 ff 3f          	and    $0x3fff,%ax
   10b6c:	0f b7 c0             	movzwl %ax,%eax
   10b6f:	8b 55 fc             	mov    -0x4(%rbp),%edx
   10b72:	48 8d 35 72 3c 00 00 	lea    0x3c72(%rip),%rsi        # 147eb <g_1647+0x16ab>
   10b79:	48 89 c7             	mov    %rax,%rdi
   10b7c:	e8 72 8b ff ff       	callq  96f3 <transparent_crc>
   10b81:	48 8b 05 f8 a4 00 00 	mov    0xa4f8(%rip),%rax        # 1b080 <g_1418>
   10b88:	48 c1 e0 03          	shl    $0x3,%rax
   10b8c:	48 c1 f8 23          	sar    $0x23,%rax
   10b90:	48 98                	cltq   
   10b92:	8b 55 fc             	mov    -0x4(%rbp),%edx
   10b95:	48 8d 35 59 3c 00 00 	lea    0x3c59(%rip),%rsi        # 147f5 <g_1647+0x16b5>
   10b9c:	48 89 c7             	mov    %rax,%rdi
   10b9f:	e8 4f 8b ff ff       	callq  96f3 <transparent_crc>
   10ba4:	8b 05 de a4 00 00    	mov    0xa4de(%rip),%eax        # 1b088 <g_1418+0x8>
   10baa:	25 ff ff 7f 00       	and    $0x7fffff,%eax
   10baf:	89 c1                	mov    %eax,%ecx
   10bb1:	8b 45 fc             	mov    -0x4(%rbp),%eax
   10bb4:	89 c2                	mov    %eax,%edx
   10bb6:	48 8d 35 42 3c 00 00 	lea    0x3c42(%rip),%rsi        # 147ff <g_1647+0x16bf>
   10bbd:	48 89 cf             	mov    %rcx,%rdi
   10bc0:	e8 2e 8b ff ff       	callq  96f3 <transparent_crc>
   10bc5:	48 8b 05 bc a4 00 00 	mov    0xa4bc(%rip),%rax        # 1b088 <g_1418+0x8>
   10bcc:	48 c1 e8 20          	shr    $0x20,%rax
   10bd0:	66 25 ff 0f          	and    $0xfff,%ax
   10bd4:	0f b7 c0             	movzwl %ax,%eax
   10bd7:	8b 55 fc             	mov    -0x4(%rbp),%edx
   10bda:	48 8d 35 28 3c 00 00 	lea    0x3c28(%rip),%rsi        # 14809 <g_1647+0x16c9>
   10be1:	48 89 c7             	mov    %rax,%rdi
   10be4:	e8 0a 8b ff ff       	callq  96f3 <transparent_crc>
   10be9:	8b 05 a1 a4 00 00    	mov    0xa4a1(%rip),%eax        # 1b090 <g_1418+0x10>
   10bef:	c1 e0 05             	shl    $0x5,%eax
   10bf2:	c1 f8 05             	sar    $0x5,%eax
   10bf5:	48 98                	cltq   
   10bf7:	8b 55 fc             	mov    -0x4(%rbp),%edx
   10bfa:	48 8d 35 12 3c 00 00 	lea    0x3c12(%rip),%rsi        # 14813 <g_1647+0x16d3>
   10c01:	48 89 c7             	mov    %rax,%rdi
   10c04:	e8 ea 8a ff ff       	callq  96f3 <transparent_crc>
   10c09:	8b 05 85 a4 00 00    	mov    0xa485(%rip),%eax        # 1b094 <g_1418+0x14>
   10c0f:	25 ff ff 07 00       	and    $0x7ffff,%eax
   10c14:	89 c1                	mov    %eax,%ecx
   10c16:	8b 45 fc             	mov    -0x4(%rbp),%eax
   10c19:	89 c2                	mov    %eax,%edx
   10c1b:	48 8d 35 fb 3b 00 00 	lea    0x3bfb(%rip),%rsi        # 1481d <g_1647+0x16dd>
   10c22:	48 89 cf             	mov    %rcx,%rdi
   10c25:	e8 c9 8a ff ff       	callq  96f3 <transparent_crc>
   10c2a:	48 8b 05 67 a4 00 00 	mov    0xa467(%rip),%rax        # 1b098 <g_1418+0x18>
   10c31:	66 25 ff 3f          	and    $0x3fff,%ax
   10c35:	0f b7 c0             	movzwl %ax,%eax
   10c38:	8b 55 fc             	mov    -0x4(%rbp),%edx
   10c3b:	48 8d 35 e5 3b 00 00 	lea    0x3be5(%rip),%rsi        # 14827 <g_1647+0x16e7>
   10c42:	48 89 c7             	mov    %rax,%rdi
   10c45:	e8 a9 8a ff ff       	callq  96f3 <transparent_crc>
   10c4a:	8b 05 4c a4 00 00    	mov    0xa44c(%rip),%eax        # 1b09c <g_1418+0x1c>
   10c50:	c1 e0 0b             	shl    $0xb,%eax
   10c53:	c1 f8 0b             	sar    $0xb,%eax
   10c56:	48 98                	cltq   
   10c58:	8b 55 fc             	mov    -0x4(%rbp),%edx
   10c5b:	48 8d 35 cf 3b 00 00 	lea    0x3bcf(%rip),%rsi        # 14831 <g_1647+0x16f1>
   10c62:	48 89 c7             	mov    %rax,%rdi
   10c65:	e8 89 8a ff ff       	callq  96f3 <transparent_crc>
   10c6a:	48 8b 05 2f a4 00 00 	mov    0xa42f(%rip),%rax        # 1b0a0 <g_1418+0x20>
   10c71:	c1 e0 0c             	shl    $0xc,%eax
   10c74:	c1 f8 0c             	sar    $0xc,%eax
   10c77:	48 98                	cltq   
   10c79:	8b 55 fc             	mov    -0x4(%rbp),%edx
   10c7c:	48 8d 35 b8 3b 00 00 	lea    0x3bb8(%rip),%rsi        # 1483b <g_1647+0x16fb>
   10c83:	48 89 c7             	mov    %rax,%rdi
   10c86:	e8 68 8a ff ff       	callq  96f3 <transparent_crc>
   10c8b:	0f b7 05 10 a4 00 00 	movzwl 0xa410(%rip),%eax        # 1b0a2 <g_1418+0x22>
   10c92:	66 c1 f8 04          	sar    $0x4,%ax
   10c96:	48 0f bf c0          	movswq %ax,%rax
   10c9a:	8b 55 fc             	mov    -0x4(%rbp),%edx
   10c9d:	48 8d 35 a1 3b 00 00 	lea    0x3ba1(%rip),%rsi        # 14845 <g_1647+0x1705>
   10ca4:	48 89 c7             	mov    %rax,%rdi
   10ca7:	e8 47 8a ff ff       	callq  96f3 <transparent_crc>
   10cac:	0f b7 05 0d a4 00 00 	movzwl 0xa40d(%rip),%eax        # 1b0c0 <g_1523>
   10cb3:	66 25 ff 3f          	and    $0x3fff,%ax
   10cb7:	0f b7 c0             	movzwl %ax,%eax
   10cba:	8b 55 fc             	mov    -0x4(%rbp),%edx
   10cbd:	48 8d 35 8b 3b 00 00 	lea    0x3b8b(%rip),%rsi        # 1484f <g_1647+0x170f>
   10cc4:	48 89 c7             	mov    %rax,%rdi
   10cc7:	e8 27 8a ff ff       	callq  96f3 <transparent_crc>
   10ccc:	48 8b 05 ed a3 00 00 	mov    0xa3ed(%rip),%rax        # 1b0c0 <g_1523>
   10cd3:	48 c1 e0 03          	shl    $0x3,%rax
   10cd7:	48 c1 f8 23          	sar    $0x23,%rax
   10cdb:	48 98                	cltq   
   10cdd:	8b 55 fc             	mov    -0x4(%rbp),%edx
   10ce0:	48 8d 35 72 3b 00 00 	lea    0x3b72(%rip),%rsi        # 14859 <g_1647+0x1719>
   10ce7:	48 89 c7             	mov    %rax,%rdi
   10cea:	e8 04 8a ff ff       	callq  96f3 <transparent_crc>
   10cef:	8b 05 d3 a3 00 00    	mov    0xa3d3(%rip),%eax        # 1b0c8 <g_1523+0x8>
   10cf5:	25 ff ff 7f 00       	and    $0x7fffff,%eax
   10cfa:	89 c1                	mov    %eax,%ecx
   10cfc:	8b 45 fc             	mov    -0x4(%rbp),%eax
   10cff:	89 c2                	mov    %eax,%edx
   10d01:	48 8d 35 5b 3b 00 00 	lea    0x3b5b(%rip),%rsi        # 14863 <g_1647+0x1723>
   10d08:	48 89 cf             	mov    %rcx,%rdi
   10d0b:	e8 e3 89 ff ff       	callq  96f3 <transparent_crc>
   10d10:	48 8b 05 b1 a3 00 00 	mov    0xa3b1(%rip),%rax        # 1b0c8 <g_1523+0x8>
   10d17:	48 c1 e8 20          	shr    $0x20,%rax
   10d1b:	66 25 ff 0f          	and    $0xfff,%ax
   10d1f:	0f b7 c0             	movzwl %ax,%eax
   10d22:	8b 55 fc             	mov    -0x4(%rbp),%edx
   10d25:	48 8d 35 41 3b 00 00 	lea    0x3b41(%rip),%rsi        # 1486d <g_1647+0x172d>
   10d2c:	48 89 c7             	mov    %rax,%rdi
   10d2f:	e8 bf 89 ff ff       	callq  96f3 <transparent_crc>
   10d34:	8b 05 96 a3 00 00    	mov    0xa396(%rip),%eax        # 1b0d0 <g_1523+0x10>
   10d3a:	c1 e0 05             	shl    $0x5,%eax
   10d3d:	c1 f8 05             	sar    $0x5,%eax
   10d40:	48 98                	cltq   
   10d42:	8b 55 fc             	mov    -0x4(%rbp),%edx
   10d45:	48 8d 35 2b 3b 00 00 	lea    0x3b2b(%rip),%rsi        # 14877 <g_1647+0x1737>
   10d4c:	48 89 c7             	mov    %rax,%rdi
   10d4f:	e8 9f 89 ff ff       	callq  96f3 <transparent_crc>
   10d54:	8b 05 7a a3 00 00    	mov    0xa37a(%rip),%eax        # 1b0d4 <g_1523+0x14>
   10d5a:	25 ff ff 07 00       	and    $0x7ffff,%eax
   10d5f:	89 c1                	mov    %eax,%ecx
   10d61:	8b 45 fc             	mov    -0x4(%rbp),%eax
   10d64:	89 c2                	mov    %eax,%edx
   10d66:	48 8d 35 14 3b 00 00 	lea    0x3b14(%rip),%rsi        # 14881 <g_1647+0x1741>
   10d6d:	48 89 cf             	mov    %rcx,%rdi
   10d70:	e8 7e 89 ff ff       	callq  96f3 <transparent_crc>
   10d75:	48 8b 05 5c a3 00 00 	mov    0xa35c(%rip),%rax        # 1b0d8 <g_1523+0x18>
   10d7c:	66 25 ff 3f          	and    $0x3fff,%ax
   10d80:	0f b7 c0             	movzwl %ax,%eax
   10d83:	8b 55 fc             	mov    -0x4(%rbp),%edx
   10d86:	48 8d 35 fe 3a 00 00 	lea    0x3afe(%rip),%rsi        # 1488b <g_1647+0x174b>
   10d8d:	48 89 c7             	mov    %rax,%rdi
   10d90:	e8 5e 89 ff ff       	callq  96f3 <transparent_crc>
   10d95:	8b 05 41 a3 00 00    	mov    0xa341(%rip),%eax        # 1b0dc <g_1523+0x1c>
   10d9b:	c1 e0 0b             	shl    $0xb,%eax
   10d9e:	c1 f8 0b             	sar    $0xb,%eax
   10da1:	48 98                	cltq   
   10da3:	8b 55 fc             	mov    -0x4(%rbp),%edx
   10da6:	48 8d 35 e8 3a 00 00 	lea    0x3ae8(%rip),%rsi        # 14895 <g_1647+0x1755>
   10dad:	48 89 c7             	mov    %rax,%rdi
   10db0:	e8 3e 89 ff ff       	callq  96f3 <transparent_crc>
   10db5:	48 8b 05 24 a3 00 00 	mov    0xa324(%rip),%rax        # 1b0e0 <g_1523+0x20>
   10dbc:	c1 e0 0c             	shl    $0xc,%eax
   10dbf:	c1 f8 0c             	sar    $0xc,%eax
   10dc2:	48 98                	cltq   
   10dc4:	8b 55 fc             	mov    -0x4(%rbp),%edx
   10dc7:	48 8d 35 d1 3a 00 00 	lea    0x3ad1(%rip),%rsi        # 1489f <g_1647+0x175f>
   10dce:	48 89 c7             	mov    %rax,%rdi
   10dd1:	e8 1d 89 ff ff       	callq  96f3 <transparent_crc>
   10dd6:	0f b7 05 05 a3 00 00 	movzwl 0xa305(%rip),%eax        # 1b0e2 <g_1523+0x22>
   10ddd:	66 c1 f8 04          	sar    $0x4,%ax
   10de1:	48 0f bf c0          	movswq %ax,%rax
   10de5:	8b 55 fc             	mov    -0x4(%rbp),%edx
   10de8:	48 8d 35 ba 3a 00 00 	lea    0x3aba(%rip),%rsi        # 148a9 <g_1647+0x1769>
   10def:	48 89 c7             	mov    %rax,%rdi
   10df2:	e8 fc 88 ff ff       	callq  96f3 <transparent_crc>
   10df7:	0f b6 05 02 a3 00 00 	movzbl 0xa302(%rip),%eax        # 1b100 <g_1538>
   10dfe:	0f b6 c0             	movzbl %al,%eax
   10e01:	8b 55 fc             	mov    -0x4(%rbp),%edx
   10e04:	48 8d 35 a8 3a 00 00 	lea    0x3aa8(%rip),%rsi        # 148b3 <g_1647+0x1773>
   10e0b:	48 89 c7             	mov    %rax,%rdi
   10e0e:	e8 e0 88 ff ff       	callq  96f3 <transparent_crc>
   10e13:	48 8b 05 ee a2 00 00 	mov    0xa2ee(%rip),%rax        # 1b108 <g_1538+0x8>
   10e1a:	48 89 c1             	mov    %rax,%rcx
   10e1d:	8b 45 fc             	mov    -0x4(%rbp),%eax
   10e20:	89 c2                	mov    %eax,%edx
   10e22:	48 8d 35 94 3a 00 00 	lea    0x3a94(%rip),%rsi        # 148bd <g_1647+0x177d>
   10e29:	48 89 cf             	mov    %rcx,%rdi
   10e2c:	e8 c2 88 ff ff       	callq  96f3 <transparent_crc>
   10e31:	0f b6 05 d8 a2 00 00 	movzbl 0xa2d8(%rip),%eax        # 1b110 <g_1538+0x10>
   10e38:	48 0f be c0          	movsbq %al,%rax
   10e3c:	8b 55 fc             	mov    -0x4(%rbp),%edx
   10e3f:	48 8d 35 81 3a 00 00 	lea    0x3a81(%rip),%rsi        # 148c7 <g_1647+0x1787>
   10e46:	48 89 c7             	mov    %rax,%rdi
   10e49:	e8 a5 88 ff ff       	callq  96f3 <transparent_crc>
   10e4e:	0f b7 05 bd a2 00 00 	movzwl 0xa2bd(%rip),%eax        # 1b112 <g_1538+0x12>
   10e55:	0f b7 c0             	movzwl %ax,%eax
   10e58:	8b 55 fc             	mov    -0x4(%rbp),%edx
   10e5b:	48 8d 35 6f 3a 00 00 	lea    0x3a6f(%rip),%rsi        # 148d1 <g_1647+0x1791>
   10e62:	48 89 c7             	mov    %rax,%rdi
   10e65:	e8 89 88 ff ff       	callq  96f3 <transparent_crc>
   10e6a:	48 8b 05 9f a2 00 00 	mov    0xa29f(%rip),%rax        # 1b110 <g_1538+0x10>
   10e71:	48 c1 e0 15          	shl    $0x15,%rax
   10e75:	48 c1 f8 35          	sar    $0x35,%rax
   10e79:	48 0f bf c0          	movswq %ax,%rax
   10e7d:	8b 55 fc             	mov    -0x4(%rbp),%edx
   10e80:	48 8d 35 54 3a 00 00 	lea    0x3a54(%rip),%rsi        # 148db <g_1647+0x179b>
   10e87:	48 89 c7             	mov    %rax,%rdi
   10e8a:	e8 64 88 ff ff       	callq  96f3 <transparent_crc>
   10e8f:	48 8b 05 7a a2 00 00 	mov    0xa27a(%rip),%rax        # 1b110 <g_1538+0x10>
   10e96:	48 c1 e8 2b          	shr    $0x2b,%rax
   10e9a:	83 e0 3f             	and    $0x3f,%eax
   10e9d:	0f b6 c0             	movzbl %al,%eax
   10ea0:	8b 55 fc             	mov    -0x4(%rbp),%edx
   10ea3:	48 8d 35 3e 3a 00 00 	lea    0x3a3e(%rip),%rsi        # 148e8 <g_1647+0x17a8>
   10eaa:	48 89 c7             	mov    %rax,%rdi
   10ead:	e8 41 88 ff ff       	callq  96f3 <transparent_crc>
   10eb2:	8b 05 60 a2 00 00    	mov    0xa260(%rip),%eax        # 1b118 <g_1538+0x18>
   10eb8:	89 c1                	mov    %eax,%ecx
   10eba:	8b 45 fc             	mov    -0x4(%rbp),%eax
   10ebd:	89 c2                	mov    %eax,%edx
   10ebf:	48 8d 35 2f 3a 00 00 	lea    0x3a2f(%rip),%rsi        # 148f5 <g_1647+0x17b5>
   10ec6:	48 89 cf             	mov    %rcx,%rdi
   10ec9:	e8 25 88 ff ff       	callq  96f3 <transparent_crc>
   10ece:	c7 45 f0 00 00 00 00 	movl   $0x0,-0x10(%rbp)
   10ed5:	e9 d8 01 00 00       	jmpq   110b2 <main+0x44c6>
   10eda:	c7 45 f4 00 00 00 00 	movl   $0x0,-0xc(%rbp)
   10ee1:	e9 be 01 00 00       	jmpq   110a4 <main+0x44b8>
   10ee6:	8b 45 f4             	mov    -0xc(%rbp),%eax
   10ee9:	48 63 d0             	movslq %eax,%rdx
   10eec:	8b 45 f0             	mov    -0x10(%rbp),%eax
   10eef:	48 98                	cltq   
   10ef1:	48 01 d0             	add    %rdx,%rax
   10ef4:	48 c1 e0 05          	shl    $0x5,%rax
   10ef8:	48 89 c2             	mov    %rax,%rdx
   10efb:	48 8d 05 1e a2 00 00 	lea    0xa21e(%rip),%rax        # 1b120 <g_1539>
   10f02:	48 8b 04 02          	mov    (%rdx,%rax,1),%rax
   10f06:	c1 e0 03             	shl    $0x3,%eax
   10f09:	66 c1 f8 03          	sar    $0x3,%ax
   10f0d:	48 0f bf c0          	movswq %ax,%rax
   10f11:	8b 55 fc             	mov    -0x4(%rbp),%edx
   10f14:	48 8d 35 e4 39 00 00 	lea    0x39e4(%rip),%rsi        # 148ff <g_1647+0x17bf>
   10f1b:	48 89 c7             	mov    %rax,%rdi
   10f1e:	e8 d0 87 ff ff       	callq  96f3 <transparent_crc>
   10f23:	8b 45 f4             	mov    -0xc(%rbp),%eax
   10f26:	48 63 d0             	movslq %eax,%rdx
   10f29:	8b 45 f0             	mov    -0x10(%rbp),%eax
   10f2c:	48 98                	cltq   
   10f2e:	48 01 d0             	add    %rdx,%rax
   10f31:	48 c1 e0 05          	shl    $0x5,%rax
   10f35:	48 89 c2             	mov    %rax,%rdx
   10f38:	48 8d 05 e1 a1 00 00 	lea    0xa1e1(%rip),%rax        # 1b120 <g_1539>
   10f3f:	8b 44 02 04          	mov    0x4(%rdx,%rax,1),%eax
   10f43:	c1 e0 06             	shl    $0x6,%eax
   10f46:	c1 f8 06             	sar    $0x6,%eax
   10f49:	48 98                	cltq   
   10f4b:	8b 55 fc             	mov    -0x4(%rbp),%edx
   10f4e:	48 8d 35 ba 39 00 00 	lea    0x39ba(%rip),%rsi        # 1490f <g_1647+0x17cf>
   10f55:	48 89 c7             	mov    %rax,%rdi
   10f58:	e8 96 87 ff ff       	callq  96f3 <transparent_crc>
   10f5d:	8b 45 f4             	mov    -0xc(%rbp),%eax
   10f60:	48 63 d0             	movslq %eax,%rdx
   10f63:	8b 45 f0             	mov    -0x10(%rbp),%eax
   10f66:	48 98                	cltq   
   10f68:	48 01 d0             	add    %rdx,%rax
   10f6b:	48 c1 e0 05          	shl    $0x5,%rax
   10f6f:	48 89 c2             	mov    %rax,%rdx
   10f72:	48 8d 05 a7 a1 00 00 	lea    0xa1a7(%rip),%rax        # 1b120 <g_1539>
   10f79:	8b 44 02 08          	mov    0x8(%rdx,%rax,1),%eax
   10f7d:	c1 e0 0d             	shl    $0xd,%eax
   10f80:	c1 f8 0d             	sar    $0xd,%eax
   10f83:	48 98                	cltq   
   10f85:	8b 55 fc             	mov    -0x4(%rbp),%edx
   10f88:	48 8d 35 90 39 00 00 	lea    0x3990(%rip),%rsi        # 1491f <g_1647+0x17df>
   10f8f:	48 89 c7             	mov    %rax,%rdi
   10f92:	e8 5c 87 ff ff       	callq  96f3 <transparent_crc>
   10f97:	8b 45 f4             	mov    -0xc(%rbp),%eax
   10f9a:	48 63 d0             	movslq %eax,%rdx
   10f9d:	8b 45 f0             	mov    -0x10(%rbp),%eax
   10fa0:	48 98                	cltq   
   10fa2:	48 01 d0             	add    %rdx,%rax
   10fa5:	48 c1 e0 05          	shl    $0x5,%rax
   10fa9:	48 89 c2             	mov    %rax,%rdx
   10fac:	48 8d 05 7d a1 00 00 	lea    0xa17d(%rip),%rax        # 1b130 <g_1539+0x10>
   10fb3:	48 8b 04 02          	mov    (%rdx,%rax,1),%rax
   10fb7:	8b 55 fc             	mov    -0x4(%rbp),%edx
   10fba:	48 8d 35 6e 39 00 00 	lea    0x396e(%rip),%rsi        # 1492f <g_1647+0x17ef>
   10fc1:	48 89 c7             	mov    %rax,%rdi
   10fc4:	e8 2a 87 ff ff       	callq  96f3 <transparent_crc>
   10fc9:	8b 45 f4             	mov    -0xc(%rbp),%eax
   10fcc:	48 63 d0             	movslq %eax,%rdx
   10fcf:	8b 45 f0             	mov    -0x10(%rbp),%eax
   10fd2:	48 98                	cltq   
   10fd4:	48 01 d0             	add    %rdx,%rax
   10fd7:	48 c1 e0 05          	shl    $0x5,%rax
   10fdb:	48 89 c2             	mov    %rax,%rdx
   10fde:	48 8d 05 4b a1 00 00 	lea    0xa14b(%rip),%rax        # 1b130 <g_1539+0x10>
   10fe5:	8b 44 02 08          	mov    0x8(%rdx,%rax,1),%eax
   10fe9:	25 ff ff 7f 00       	and    $0x7fffff,%eax
   10fee:	89 c1                	mov    %eax,%ecx
   10ff0:	8b 45 fc             	mov    -0x4(%rbp),%eax
   10ff3:	89 c2                	mov    %eax,%edx
   10ff5:	48 8d 35 43 39 00 00 	lea    0x3943(%rip),%rsi        # 1493f <g_1647+0x17ff>
   10ffc:	48 89 cf             	mov    %rcx,%rdi
   10fff:	e8 ef 86 ff ff       	callq  96f3 <transparent_crc>
   11004:	8b 45 f4             	mov    -0xc(%rbp),%eax
   11007:	48 63 d0             	movslq %eax,%rdx
   1100a:	8b 45 f0             	mov    -0x10(%rbp),%eax
   1100d:	48 98                	cltq   
   1100f:	48 01 d0             	add    %rdx,%rax
   11012:	48 c1 e0 05          	shl    $0x5,%rax
   11016:	48 89 c2             	mov    %rax,%rdx
   11019:	48 8d 05 10 a1 00 00 	lea    0xa110(%rip),%rax        # 1b130 <g_1539+0x10>
   11020:	48 8b 44 02 08       	mov    0x8(%rdx,%rax,1),%rax
   11025:	48 c1 e8 20          	shr    $0x20,%rax
   11029:	25 ff ff 0f 00       	and    $0xfffff,%eax
   1102e:	89 c1                	mov    %eax,%ecx
   11030:	8b 45 fc             	mov    -0x4(%rbp),%eax
   11033:	89 c2                	mov    %eax,%edx
   11035:	48 8d 35 13 39 00 00 	lea    0x3913(%rip),%rsi        # 1494f <g_1647+0x180f>
   1103c:	48 89 cf             	mov    %rcx,%rdi
   1103f:	e8 af 86 ff ff       	callq  96f3 <transparent_crc>
   11044:	8b 45 f4             	mov    -0xc(%rbp),%eax
   11047:	48 63 d0             	movslq %eax,%rdx
   1104a:	8b 45 f0             	mov    -0x10(%rbp),%eax
   1104d:	48 98                	cltq   
   1104f:	48 01 d0             	add    %rdx,%rax
   11052:	48 c1 e0 05          	shl    $0x5,%rax
   11056:	48 89 c2             	mov    %rax,%rdx
   11059:	48 8d 05 d0 a0 00 00 	lea    0xa0d0(%rip),%rax        # 1b130 <g_1539+0x10>
   11060:	0f b6 44 02 0e       	movzbl 0xe(%rdx,%rax,1),%eax
   11065:	c1 e0 03             	shl    $0x3,%eax
   11068:	c0 f8 07             	sar    $0x7,%al
   1106b:	48 0f be c0          	movsbq %al,%rax
   1106f:	8b 55 fc             	mov    -0x4(%rbp),%edx
   11072:	48 8d 35 e6 38 00 00 	lea    0x38e6(%rip),%rsi        # 1495f <g_1647+0x181f>
   11079:	48 89 c7             	mov    %rax,%rdi
   1107c:	e8 72 86 ff ff       	callq  96f3 <transparent_crc>
   11081:	83 7d fc 00          	cmpl   $0x0,-0x4(%rbp)
   11085:	74 19                	je     110a0 <main+0x44b4>
   11087:	8b 55 f4             	mov    -0xc(%rbp),%edx
   1108a:	8b 45 f0             	mov    -0x10(%rbp),%eax
   1108d:	89 c6                	mov    %eax,%esi
   1108f:	48 8d 3d 91 2a 00 00 	lea    0x2a91(%rip),%rdi        # 13b27 <g_1647+0x9e7>
   11096:	b8 00 00 00 00       	mov    $0x0,%eax
   1109b:	e8 e0 6f ff ff       	callq  8080 <printf@plt>
   110a0:	83 45 f4 01          	addl   $0x1,-0xc(%rbp)
   110a4:	83 7d f4 00          	cmpl   $0x0,-0xc(%rbp)
   110a8:	0f 8e 38 fe ff ff    	jle    10ee6 <main+0x42fa>
   110ae:	83 45 f0 01          	addl   $0x1,-0x10(%rbp)
   110b2:	83 7d f0 00          	cmpl   $0x0,-0x10(%rbp)
   110b6:	0f 8e 1e fe ff ff    	jle    10eda <main+0x42ee>
   110bc:	48 8b 05 7d a0 00 00 	mov    0xa07d(%rip),%rax        # 1b140 <g_1556>
   110c3:	c1 e0 03             	shl    $0x3,%eax
   110c6:	66 c1 f8 03          	sar    $0x3,%ax
   110ca:	48 0f bf c0          	movswq %ax,%rax
   110ce:	8b 55 fc             	mov    -0x4(%rbp),%edx
   110d1:	48 8d 35 97 38 00 00 	lea    0x3897(%rip),%rsi        # 1496f <g_1647+0x182f>
   110d8:	48 89 c7             	mov    %rax,%rdi
   110db:	e8 13 86 ff ff       	callq  96f3 <transparent_crc>
   110e0:	48 8b 05 59 a0 00 00 	mov    0xa059(%rip),%rax        # 1b140 <g_1556>
   110e7:	48 c1 e0 06          	shl    $0x6,%rax
   110eb:	48 c1 f8 26          	sar    $0x26,%rax
   110ef:	48 98                	cltq   
   110f1:	8b 55 fc             	mov    -0x4(%rbp),%edx
   110f4:	48 8d 35 7e 38 00 00 	lea    0x387e(%rip),%rsi        # 14979 <g_1647+0x1839>
   110fb:	48 89 c7             	mov    %rax,%rdi
   110fe:	e8 f0 85 ff ff       	callq  96f3 <transparent_crc>
   11103:	48 8b 05 3e a0 00 00 	mov    0xa03e(%rip),%rax        # 1b148 <g_1556+0x8>
   1110a:	c1 e0 0d             	shl    $0xd,%eax
   1110d:	c1 f8 0d             	sar    $0xd,%eax
   11110:	48 98                	cltq   
   11112:	8b 55 fc             	mov    -0x4(%rbp),%edx
   11115:	48 8d 35 67 38 00 00 	lea    0x3867(%rip),%rsi        # 14983 <g_1647+0x1843>
   1111c:	48 89 c7             	mov    %rax,%rdi
   1111f:	e8 cf 85 ff ff       	callq  96f3 <transparent_crc>
   11124:	48 8b 05 25 a0 00 00 	mov    0xa025(%rip),%rax        # 1b150 <g_1556+0x10>
   1112b:	8b 55 fc             	mov    -0x4(%rbp),%edx
   1112e:	48 8d 35 58 38 00 00 	lea    0x3858(%rip),%rsi        # 1498d <g_1647+0x184d>
   11135:	48 89 c7             	mov    %rax,%rdi
   11138:	e8 b6 85 ff ff       	callq  96f3 <transparent_crc>
   1113d:	48 8b 05 14 a0 00 00 	mov    0xa014(%rip),%rax        # 1b158 <g_1556+0x18>
   11144:	25 ff ff 7f 00       	and    $0x7fffff,%eax
   11149:	89 c1                	mov    %eax,%ecx
   1114b:	8b 45 fc             	mov    -0x4(%rbp),%eax
   1114e:	89 c2                	mov    %eax,%edx
   11150:	48 8d 35 40 38 00 00 	lea    0x3840(%rip),%rsi        # 14997 <g_1647+0x1857>
   11157:	48 89 cf             	mov    %rcx,%rdi
   1115a:	e8 94 85 ff ff       	callq  96f3 <transparent_crc>
   1115f:	48 8b 05 f2 9f 00 00 	mov    0x9ff2(%rip),%rax        # 1b158 <g_1556+0x18>
   11166:	48 c1 e8 20          	shr    $0x20,%rax
   1116a:	25 ff ff 0f 00       	and    $0xfffff,%eax
   1116f:	89 c1                	mov    %eax,%ecx
   11171:	8b 45 fc             	mov    -0x4(%rbp),%eax
   11174:	89 c2                	mov    %eax,%edx
   11176:	48 8d 35 24 38 00 00 	lea    0x3824(%rip),%rsi        # 149a1 <g_1647+0x1861>
   1117d:	48 89 cf             	mov    %rcx,%rdi
   11180:	e8 6e 85 ff ff       	callq  96f3 <transparent_crc>
   11185:	48 8b 05 cc 9f 00 00 	mov    0x9fcc(%rip),%rax        # 1b158 <g_1556+0x18>
   1118c:	48 c1 e0 0b          	shl    $0xb,%rax
   11190:	48 c1 f8 3f          	sar    $0x3f,%rax
   11194:	48 0f be c0          	movsbq %al,%rax
   11198:	8b 55 fc             	mov    -0x4(%rbp),%edx
   1119b:	48 8d 35 09 38 00 00 	lea    0x3809(%rip),%rsi        # 149ab <g_1647+0x186b>
   111a2:	48 89 c7             	mov    %rax,%rdi
   111a5:	e8 49 85 ff ff       	callq  96f3 <transparent_crc>
   111aa:	48 8b 05 af 9f 00 00 	mov    0x9faf(%rip),%rax        # 1b160 <g_1573>
   111b1:	c1 e0 03             	shl    $0x3,%eax
   111b4:	66 c1 f8 03          	sar    $0x3,%ax
   111b8:	48 0f bf c0          	movswq %ax,%rax
   111bc:	8b 55 fc             	mov    -0x4(%rbp),%edx
   111bf:	48 8d 35 ef 37 00 00 	lea    0x37ef(%rip),%rsi        # 149b5 <g_1647+0x1875>
   111c6:	48 89 c7             	mov    %rax,%rdi
   111c9:	e8 25 85 ff ff       	callq  96f3 <transparent_crc>
   111ce:	0f b7 05 8d 9f 00 00 	movzwl 0x9f8d(%rip),%eax        # 1b162 <g_1573+0x2>
   111d5:	48 0f bf c0          	movswq %ax,%rax
   111d9:	8b 55 fc             	mov    -0x4(%rbp),%edx
   111dc:	48 8d 35 dc 37 00 00 	lea    0x37dc(%rip),%rsi        # 149bf <g_1647+0x187f>
   111e3:	48 89 c7             	mov    %rax,%rdi
   111e6:	e8 08 85 ff ff       	callq  96f3 <transparent_crc>
   111eb:	48 8b 05 6e 9f 00 00 	mov    0x9f6e(%rip),%rax        # 1b160 <g_1573>
   111f2:	48 c1 e8 20          	shr    $0x20,%rax
   111f6:	25 ff ff 3f 00       	and    $0x3fffff,%eax
   111fb:	89 c1                	mov    %eax,%ecx
   111fd:	8b 45 fc             	mov    -0x4(%rbp),%eax
   11200:	89 c2                	mov    %eax,%edx
   11202:	48 8d 35 c0 37 00 00 	lea    0x37c0(%rip),%rsi        # 149c9 <g_1647+0x1889>
   11209:	48 89 cf             	mov    %rcx,%rdi
   1120c:	e8 e2 84 ff ff       	callq  96f3 <transparent_crc>
   11211:	c7 45 f0 00 00 00 00 	movl   $0x0,-0x10(%rbp)
   11218:	eb 6c                	jmp    11286 <main+0x469a>
   1121a:	c7 45 f4 00 00 00 00 	movl   $0x0,-0xc(%rbp)
   11221:	eb 59                	jmp    1127c <main+0x4690>
   11223:	8b 45 f4             	mov    -0xc(%rbp),%eax
   11226:	48 98                	cltq   
   11228:	8b 55 f0             	mov    -0x10(%rbp),%edx
   1122b:	48 63 d2             	movslq %edx,%rdx
   1122e:	48 c1 e2 02          	shl    $0x2,%rdx
   11232:	48 01 d0             	add    %rdx,%rax
   11235:	48 8d 14 00          	lea    (%rax,%rax,1),%rdx
   11239:	48 8d 05 40 9f 00 00 	lea    0x9f40(%rip),%rax        # 1b180 <g_1627>
   11240:	0f b7 04 02          	movzwl (%rdx,%rax,1),%eax
   11244:	0f b7 c0             	movzwl %ax,%eax
   11247:	8b 55 fc             	mov    -0x4(%rbp),%edx
   1124a:	48 8d 35 82 37 00 00 	lea    0x3782(%rip),%rsi        # 149d3 <g_1647+0x1893>
   11251:	48 89 c7             	mov    %rax,%rdi
   11254:	e8 9a 84 ff ff       	callq  96f3 <transparent_crc>
   11259:	83 7d fc 00          	cmpl   $0x0,-0x4(%rbp)
   1125d:	74 19                	je     11278 <main+0x468c>
   1125f:	8b 55 f4             	mov    -0xc(%rbp),%edx
   11262:	8b 45 f0             	mov    -0x10(%rbp),%eax
   11265:	89 c6                	mov    %eax,%esi
   11267:	48 8d 3d b9 28 00 00 	lea    0x28b9(%rip),%rdi        # 13b27 <g_1647+0x9e7>
   1126e:	b8 00 00 00 00       	mov    $0x0,%eax
   11273:	e8 08 6e ff ff       	callq  8080 <printf@plt>
   11278:	83 45 f4 01          	addl   $0x1,-0xc(%rbp)
   1127c:	83 7d f4 03          	cmpl   $0x3,-0xc(%rbp)
   11280:	7e a1                	jle    11223 <main+0x4637>
   11282:	83 45 f0 01          	addl   $0x1,-0x10(%rbp)
   11286:	83 7d f0 06          	cmpl   $0x6,-0x10(%rbp)
   1128a:	7e 8e                	jle    1121a <main+0x462e>
   1128c:	c7 45 f0 00 00 00 00 	movl   $0x0,-0x10(%rbp)
   11293:	e9 b4 04 00 00       	jmpq   1174c <main+0x4b60>
   11298:	c7 45 f4 00 00 00 00 	movl   $0x0,-0xc(%rbp)
   1129f:	e9 9a 04 00 00       	jmpq   1173e <main+0x4b52>
   112a4:	c7 45 f8 00 00 00 00 	movl   $0x0,-0x8(%rbp)
   112ab:	e9 80 04 00 00       	jmpq   11730 <main+0x4b44>
   112b0:	8b 45 f8             	mov    -0x8(%rbp),%eax
   112b3:	48 98                	cltq   
   112b5:	8b 55 f4             	mov    -0xc(%rbp),%edx
   112b8:	48 63 ca             	movslq %edx,%rcx
   112bb:	8b 55 f0             	mov    -0x10(%rbp),%edx
   112be:	48 63 f2             	movslq %edx,%rsi
   112c1:	48 89 c2             	mov    %rax,%rdx
   112c4:	48 c1 e2 03          	shl    $0x3,%rdx
   112c8:	48 01 c2             	add    %rax,%rdx
   112cb:	48 8d 04 95 00 00 00 	lea    0x0(,%rdx,4),%rax
   112d2:	00 
   112d3:	48 89 c2             	mov    %rax,%rdx
   112d6:	48 89 c8             	mov    %rcx,%rax
   112d9:	48 c1 e0 03          	shl    $0x3,%rax
   112dd:	48 01 c8             	add    %rcx,%rax
   112e0:	48 8d 0c c5 00 00 00 	lea    0x0(,%rax,8),%rcx
   112e7:	00 
   112e8:	48 01 c8             	add    %rcx,%rax
   112eb:	48 c1 e0 02          	shl    $0x2,%rax
   112ef:	48 01 c2             	add    %rax,%rdx
   112f2:	48 69 c6 dc 08 00 00 	imul   $0x8dc,%rsi,%rax
   112f9:	48 01 c2             	add    %rax,%rdx
   112fc:	48 8d 05 bd 9e 00 00 	lea    0x9ebd(%rip),%rax        # 1b1c0 <g_1635>
   11303:	48 01 d0             	add    %rdx,%rax
   11306:	8b 00                	mov    (%rax),%eax
   11308:	66 25 ff 3f          	and    $0x3fff,%ax
   1130c:	0f b7 c0             	movzwl %ax,%eax
   1130f:	8b 55 fc             	mov    -0x4(%rbp),%edx
   11312:	48 8d 35 c7 36 00 00 	lea    0x36c7(%rip),%rsi        # 149e0 <g_1647+0x18a0>
   11319:	48 89 c7             	mov    %rax,%rdi
   1131c:	e8 d2 83 ff ff       	callq  96f3 <transparent_crc>
   11321:	8b 45 f8             	mov    -0x8(%rbp),%eax
   11324:	48 98                	cltq   
   11326:	8b 55 f4             	mov    -0xc(%rbp),%edx
   11329:	48 63 ca             	movslq %edx,%rcx
   1132c:	8b 55 f0             	mov    -0x10(%rbp),%edx
   1132f:	48 63 f2             	movslq %edx,%rsi
   11332:	48 89 c2             	mov    %rax,%rdx
   11335:	48 c1 e2 03          	shl    $0x3,%rdx
   11339:	48 01 c2             	add    %rax,%rdx
   1133c:	48 8d 04 95 00 00 00 	lea    0x0(,%rdx,4),%rax
   11343:	00 
   11344:	48 89 c2             	mov    %rax,%rdx
   11347:	48 89 c8             	mov    %rcx,%rax
   1134a:	48 c1 e0 03          	shl    $0x3,%rax
   1134e:	48 01 c8             	add    %rcx,%rax
   11351:	48 8d 0c c5 00 00 00 	lea    0x0(,%rax,8),%rcx
   11358:	00 
   11359:	48 01 c8             	add    %rcx,%rax
   1135c:	48 c1 e0 02          	shl    $0x2,%rax
   11360:	48 01 c2             	add    %rax,%rdx
   11363:	48 69 c6 dc 08 00 00 	imul   $0x8dc,%rsi,%rax
   1136a:	48 01 c2             	add    %rax,%rdx
   1136d:	48 8d 05 4c 9e 00 00 	lea    0x9e4c(%rip),%rax        # 1b1c0 <g_1635>
   11374:	48 01 d0             	add    %rdx,%rax
   11377:	8b 40 04             	mov    0x4(%rax),%eax
   1137a:	c1 e0 03             	shl    $0x3,%eax
   1137d:	c1 f8 03             	sar    $0x3,%eax
   11380:	48 98                	cltq   
   11382:	8b 55 fc             	mov    -0x4(%rbp),%edx
   11385:	48 8d 35 67 36 00 00 	lea    0x3667(%rip),%rsi        # 149f3 <g_1647+0x18b3>
   1138c:	48 89 c7             	mov    %rax,%rdi
   1138f:	e8 5f 83 ff ff       	callq  96f3 <transparent_crc>
   11394:	8b 45 f8             	mov    -0x8(%rbp),%eax
   11397:	48 98                	cltq   
   11399:	8b 55 f4             	mov    -0xc(%rbp),%edx
   1139c:	48 63 ca             	movslq %edx,%rcx
   1139f:	8b 55 f0             	mov    -0x10(%rbp),%edx
   113a2:	48 63 f2             	movslq %edx,%rsi
   113a5:	48 89 c2             	mov    %rax,%rdx
   113a8:	48 c1 e2 03          	shl    $0x3,%rdx
   113ac:	48 01 c2             	add    %rax,%rdx
   113af:	48 8d 04 95 00 00 00 	lea    0x0(,%rdx,4),%rax
   113b6:	00 
   113b7:	48 89 c2             	mov    %rax,%rdx
   113ba:	48 89 c8             	mov    %rcx,%rax
   113bd:	48 c1 e0 03          	shl    $0x3,%rax
   113c1:	48 01 c8             	add    %rcx,%rax
   113c4:	48 8d 0c c5 00 00 00 	lea    0x0(,%rax,8),%rcx
   113cb:	00 
   113cc:	48 01 c8             	add    %rcx,%rax
   113cf:	48 c1 e0 02          	shl    $0x2,%rax
   113d3:	48 01 c2             	add    %rax,%rdx
   113d6:	48 69 c6 dc 08 00 00 	imul   $0x8dc,%rsi,%rax
   113dd:	48 01 c2             	add    %rax,%rdx
   113e0:	48 8d 05 d9 9d 00 00 	lea    0x9dd9(%rip),%rax        # 1b1c0 <g_1635>
   113e7:	48 01 d0             	add    %rdx,%rax
   113ea:	8b 40 08             	mov    0x8(%rax),%eax
   113ed:	25 ff ff 7f 00       	and    $0x7fffff,%eax
   113f2:	89 c1                	mov    %eax,%ecx
   113f4:	8b 45 fc             	mov    -0x4(%rbp),%eax
   113f7:	89 c2                	mov    %eax,%edx
   113f9:	48 8d 35 06 36 00 00 	lea    0x3606(%rip),%rsi        # 14a06 <g_1647+0x18c6>
   11400:	48 89 cf             	mov    %rcx,%rdi
   11403:	e8 eb 82 ff ff       	callq  96f3 <transparent_crc>
   11408:	8b 45 f8             	mov    -0x8(%rbp),%eax
   1140b:	48 98                	cltq   
   1140d:	8b 55 f4             	mov    -0xc(%rbp),%edx
   11410:	48 63 ca             	movslq %edx,%rcx
   11413:	8b 55 f0             	mov    -0x10(%rbp),%edx
   11416:	48 63 f2             	movslq %edx,%rsi
   11419:	48 89 c2             	mov    %rax,%rdx
   1141c:	48 c1 e2 03          	shl    $0x3,%rdx
   11420:	48 01 c2             	add    %rax,%rdx
   11423:	48 8d 04 95 00 00 00 	lea    0x0(,%rdx,4),%rax
   1142a:	00 
   1142b:	48 89 c2             	mov    %rax,%rdx
   1142e:	48 89 c8             	mov    %rcx,%rax
   11431:	48 c1 e0 03          	shl    $0x3,%rax
   11435:	48 01 c8             	add    %rcx,%rax
   11438:	48 8d 0c c5 00 00 00 	lea    0x0(,%rax,8),%rcx
   1143f:	00 
   11440:	48 01 c8             	add    %rcx,%rax
   11443:	48 c1 e0 02          	shl    $0x2,%rax
   11447:	48 01 c2             	add    %rax,%rdx
   1144a:	48 69 c6 dc 08 00 00 	imul   $0x8dc,%rsi,%rax
   11451:	48 01 c2             	add    %rax,%rdx
   11454:	48 8d 05 65 9d 00 00 	lea    0x9d65(%rip),%rax        # 1b1c0 <g_1635>
   1145b:	48 01 d0             	add    %rdx,%rax
   1145e:	8b 40 0c             	mov    0xc(%rax),%eax
   11461:	66 25 ff 0f          	and    $0xfff,%ax
   11465:	0f b7 c0             	movzwl %ax,%eax
   11468:	8b 55 fc             	mov    -0x4(%rbp),%edx
   1146b:	48 8d 35 a7 35 00 00 	lea    0x35a7(%rip),%rsi        # 14a19 <g_1647+0x18d9>
   11472:	48 89 c7             	mov    %rax,%rdi
   11475:	e8 79 82 ff ff       	callq  96f3 <transparent_crc>
   1147a:	8b 45 f8             	mov    -0x8(%rbp),%eax
   1147d:	48 63 c8             	movslq %eax,%rcx
   11480:	8b 45 f4             	mov    -0xc(%rbp),%eax
   11483:	48 63 d0             	movslq %eax,%rdx
   11486:	8b 45 f0             	mov    -0x10(%rbp),%eax
   11489:	48 63 f0             	movslq %eax,%rsi
   1148c:	48 89 c8             	mov    %rcx,%rax
   1148f:	48 c1 e0 03          	shl    $0x3,%rax
   11493:	48 01 c8             	add    %rcx,%rax
   11496:	48 c1 e0 02          	shl    $0x2,%rax
   1149a:	48 69 ce dc 08 00 00 	imul   $0x8dc,%rsi,%rcx
   114a1:	48 01 c1             	add    %rax,%rcx
   114a4:	48 89 d0             	mov    %rdx,%rax
   114a7:	48 c1 e0 03          	shl    $0x3,%rax
   114ab:	48 01 d0             	add    %rdx,%rax
   114ae:	48 8d 14 c5 00 00 00 	lea    0x0(,%rax,8),%rdx
   114b5:	00 
   114b6:	48 01 d0             	add    %rdx,%rax
   114b9:	48 c1 e0 02          	shl    $0x2,%rax
   114bd:	48 8d 14 01          	lea    (%rcx,%rax,1),%rdx
   114c1:	48 8d 05 08 9d 00 00 	lea    0x9d08(%rip),%rax        # 1b1d0 <g_1635+0x10>
   114c8:	48 01 d0             	add    %rdx,%rax
   114cb:	8b 00                	mov    (%rax),%eax
   114cd:	c1 e0 05             	shl    $0x5,%eax
   114d0:	c1 f8 05             	sar    $0x5,%eax
   114d3:	48 98                	cltq   
   114d5:	8b 55 fc             	mov    -0x4(%rbp),%edx
   114d8:	48 8d 35 4d 35 00 00 	lea    0x354d(%rip),%rsi        # 14a2c <g_1647+0x18ec>
   114df:	48 89 c7             	mov    %rax,%rdi
   114e2:	e8 0c 82 ff ff       	callq  96f3 <transparent_crc>
   114e7:	8b 45 f8             	mov    -0x8(%rbp),%eax
   114ea:	48 63 c8             	movslq %eax,%rcx
   114ed:	8b 45 f4             	mov    -0xc(%rbp),%eax
   114f0:	48 63 d0             	movslq %eax,%rdx
   114f3:	8b 45 f0             	mov    -0x10(%rbp),%eax
   114f6:	48 63 f0             	movslq %eax,%rsi
   114f9:	48 89 c8             	mov    %rcx,%rax
   114fc:	48 c1 e0 03          	shl    $0x3,%rax
   11500:	48 01 c8             	add    %rcx,%rax
   11503:	48 c1 e0 02          	shl    $0x2,%rax
   11507:	48 69 ce dc 08 00 00 	imul   $0x8dc,%rsi,%rcx
   1150e:	48 01 c1             	add    %rax,%rcx
   11511:	48 89 d0             	mov    %rdx,%rax
   11514:	48 c1 e0 03          	shl    $0x3,%rax
   11518:	48 01 d0             	add    %rdx,%rax
   1151b:	48 8d 14 c5 00 00 00 	lea    0x0(,%rax,8),%rdx
   11522:	00 
   11523:	48 01 d0             	add    %rdx,%rax
   11526:	48 c1 e0 02          	shl    $0x2,%rax
   1152a:	48 8d 14 01          	lea    (%rcx,%rax,1),%rdx
   1152e:	48 8d 05 9b 9c 00 00 	lea    0x9c9b(%rip),%rax        # 1b1d0 <g_1635+0x10>
   11535:	48 01 d0             	add    %rdx,%rax
   11538:	8b 40 04             	mov    0x4(%rax),%eax
   1153b:	25 ff ff 07 00       	and    $0x7ffff,%eax
   11540:	89 c1                	mov    %eax,%ecx
   11542:	8b 45 fc             	mov    -0x4(%rbp),%eax
   11545:	89 c2                	mov    %eax,%edx
   11547:	48 8d 35 f1 34 00 00 	lea    0x34f1(%rip),%rsi        # 14a3f <g_1647+0x18ff>
   1154e:	48 89 cf             	mov    %rcx,%rdi
   11551:	e8 9d 81 ff ff       	callq  96f3 <transparent_crc>
   11556:	8b 45 f8             	mov    -0x8(%rbp),%eax
   11559:	48 63 c8             	movslq %eax,%rcx
   1155c:	8b 45 f4             	mov    -0xc(%rbp),%eax
   1155f:	48 63 d0             	movslq %eax,%rdx
   11562:	8b 45 f0             	mov    -0x10(%rbp),%eax
   11565:	48 63 f0             	movslq %eax,%rsi
   11568:	48 89 c8             	mov    %rcx,%rax
   1156b:	48 c1 e0 03          	shl    $0x3,%rax
   1156f:	48 01 c8             	add    %rcx,%rax
   11572:	48 c1 e0 02          	shl    $0x2,%rax
   11576:	48 69 ce dc 08 00 00 	imul   $0x8dc,%rsi,%rcx
   1157d:	48 01 c1             	add    %rax,%rcx
   11580:	48 89 d0             	mov    %rdx,%rax
   11583:	48 c1 e0 03          	shl    $0x3,%rax
   11587:	48 01 d0             	add    %rdx,%rax
   1158a:	48 8d 14 c5 00 00 00 	lea    0x0(,%rax,8),%rdx
   11591:	00 
   11592:	48 01 d0             	add    %rdx,%rax
   11595:	48 c1 e0 02          	shl    $0x2,%rax
   11599:	48 8d 14 01          	lea    (%rcx,%rax,1),%rdx
   1159d:	48 8d 05 2c 9c 00 00 	lea    0x9c2c(%rip),%rax        # 1b1d0 <g_1635+0x10>
   115a4:	48 01 d0             	add    %rdx,%rax
   115a7:	8b 40 08             	mov    0x8(%rax),%eax
   115aa:	66 25 ff 3f          	and    $0x3fff,%ax
   115ae:	0f b7 c0             	movzwl %ax,%eax
   115b1:	8b 55 fc             	mov    -0x4(%rbp),%edx
   115b4:	48 8d 35 97 34 00 00 	lea    0x3497(%rip),%rsi        # 14a52 <g_1647+0x1912>
   115bb:	48 89 c7             	mov    %rax,%rdi
   115be:	e8 30 81 ff ff       	callq  96f3 <transparent_crc>
   115c3:	8b 45 f8             	mov    -0x8(%rbp),%eax
   115c6:	48 63 c8             	movslq %eax,%rcx
   115c9:	8b 45 f4             	mov    -0xc(%rbp),%eax
   115cc:	48 63 d0             	movslq %eax,%rdx
   115cf:	8b 45 f0             	mov    -0x10(%rbp),%eax
   115d2:	48 63 f0             	movslq %eax,%rsi
   115d5:	48 89 c8             	mov    %rcx,%rax
   115d8:	48 c1 e0 03          	shl    $0x3,%rax
   115dc:	48 01 c8             	add    %rcx,%rax
   115df:	48 c1 e0 02          	shl    $0x2,%rax
   115e3:	48 69 ce dc 08 00 00 	imul   $0x8dc,%rsi,%rcx
   115ea:	48 01 c1             	add    %rax,%rcx
   115ed:	48 89 d0             	mov    %rdx,%rax
   115f0:	48 c1 e0 03          	shl    $0x3,%rax
   115f4:	48 01 d0             	add    %rdx,%rax
   115f7:	48 8d 14 c5 00 00 00 	lea    0x0(,%rax,8),%rdx
   115fe:	00 
   115ff:	48 01 d0             	add    %rdx,%rax
   11602:	48 c1 e0 02          	shl    $0x2,%rax
   11606:	48 8d 14 01          	lea    (%rcx,%rax,1),%rdx
   1160a:	48 8d 05 bf 9b 00 00 	lea    0x9bbf(%rip),%rax        # 1b1d0 <g_1635+0x10>
   11611:	48 01 d0             	add    %rdx,%rax
   11614:	8b 40 0c             	mov    0xc(%rax),%eax
   11617:	c1 e0 0b             	shl    $0xb,%eax
   1161a:	c1 f8 0b             	sar    $0xb,%eax
   1161d:	48 98                	cltq   
   1161f:	8b 55 fc             	mov    -0x4(%rbp),%edx
   11622:	48 8d 35 3c 34 00 00 	lea    0x343c(%rip),%rsi        # 14a65 <g_1647+0x1925>
   11629:	48 89 c7             	mov    %rax,%rdi
   1162c:	e8 c2 80 ff ff       	callq  96f3 <transparent_crc>
   11631:	8b 45 f8             	mov    -0x8(%rbp),%eax
   11634:	48 63 c8             	movslq %eax,%rcx
   11637:	8b 45 f4             	mov    -0xc(%rbp),%eax
   1163a:	48 63 d0             	movslq %eax,%rdx
   1163d:	8b 45 f0             	mov    -0x10(%rbp),%eax
   11640:	48 63 f0             	movslq %eax,%rsi
   11643:	48 89 c8             	mov    %rcx,%rax
   11646:	48 c1 e0 03          	shl    $0x3,%rax
   1164a:	48 01 c8             	add    %rcx,%rax
   1164d:	48 c1 e0 02          	shl    $0x2,%rax
   11651:	48 69 ce dc 08 00 00 	imul   $0x8dc,%rsi,%rcx
   11658:	48 01 c1             	add    %rax,%rcx
   1165b:	48 89 d0             	mov    %rdx,%rax
   1165e:	48 c1 e0 03          	shl    $0x3,%rax
   11662:	48 01 d0             	add    %rdx,%rax
   11665:	48 8d 14 c5 00 00 00 	lea    0x0(,%rax,8),%rdx
   1166c:	00 
   1166d:	48 01 d0             	add    %rdx,%rax
   11670:	48 c1 e0 02          	shl    $0x2,%rax
   11674:	48 8d 14 01          	lea    (%rcx,%rax,1),%rdx
   11678:	48 8d 05 61 9b 00 00 	lea    0x9b61(%rip),%rax        # 1b1e0 <g_1635+0x20>
   1167f:	48 01 d0             	add    %rdx,%rax
   11682:	8b 00                	mov    (%rax),%eax
   11684:	c1 e0 0c             	shl    $0xc,%eax
   11687:	c1 f8 0c             	sar    $0xc,%eax
   1168a:	48 98                	cltq   
   1168c:	8b 55 fc             	mov    -0x4(%rbp),%edx
   1168f:	48 8d 35 e2 33 00 00 	lea    0x33e2(%rip),%rsi        # 14a78 <g_1647+0x1938>
   11696:	48 89 c7             	mov    %rax,%rdi
   11699:	e8 55 80 ff ff       	callq  96f3 <transparent_crc>
   1169e:	8b 45 f8             	mov    -0x8(%rbp),%eax
   116a1:	48 63 c8             	movslq %eax,%rcx
   116a4:	8b 45 f4             	mov    -0xc(%rbp),%eax
   116a7:	48 63 d0             	movslq %eax,%rdx
   116aa:	8b 45 f0             	mov    -0x10(%rbp),%eax
   116ad:	48 63 f0             	movslq %eax,%rsi
   116b0:	48 89 c8             	mov    %rcx,%rax
   116b3:	48 c1 e0 03          	shl    $0x3,%rax
   116b7:	48 01 c8             	add    %rcx,%rax
   116ba:	48 c1 e0 02          	shl    $0x2,%rax
   116be:	48 69 ce dc 08 00 00 	imul   $0x8dc,%rsi,%rcx
   116c5:	48 01 c1             	add    %rax,%rcx
   116c8:	48 89 d0             	mov    %rdx,%rax
   116cb:	48 c1 e0 03          	shl    $0x3,%rax
   116cf:	48 01 d0             	add    %rdx,%rax
   116d2:	48 8d 14 c5 00 00 00 	lea    0x0(,%rax,8),%rdx
   116d9:	00 
   116da:	48 01 d0             	add    %rdx,%rax
   116dd:	48 c1 e0 02          	shl    $0x2,%rax
   116e1:	48 8d 14 01          	lea    (%rcx,%rax,1),%rdx
   116e5:	48 8d 05 f4 9a 00 00 	lea    0x9af4(%rip),%rax        # 1b1e0 <g_1635+0x20>
   116ec:	48 01 d0             	add    %rdx,%rax
   116ef:	8b 00                	mov    (%rax),%eax
   116f1:	c1 f8 14             	sar    $0x14,%eax
   116f4:	48 0f bf c0          	movswq %ax,%rax
   116f8:	8b 55 fc             	mov    -0x4(%rbp),%edx
   116fb:	48 8d 35 89 33 00 00 	lea    0x3389(%rip),%rsi        # 14a8b <g_1647+0x194b>
   11702:	48 89 c7             	mov    %rax,%rdi
   11705:	e8 e9 7f ff ff       	callq  96f3 <transparent_crc>
   1170a:	83 7d fc 00          	cmpl   $0x0,-0x4(%rbp)
   1170e:	74 1c                	je     1172c <main+0x4b40>
   11710:	8b 4d f8             	mov    -0x8(%rbp),%ecx
   11713:	8b 55 f4             	mov    -0xc(%rbp),%edx
   11716:	8b 45 f0             	mov    -0x10(%rbp),%eax
   11719:	89 c6                	mov    %eax,%esi
   1171b:	48 8d 3d a8 2c 00 00 	lea    0x2ca8(%rip),%rdi        # 143ca <g_1647+0x128a>
   11722:	b8 00 00 00 00       	mov    $0x0,%eax
   11727:	e8 54 69 ff ff       	callq  8080 <printf@plt>
   1172c:	83 45 f8 01          	addl   $0x1,-0x8(%rbp)
   11730:	83 7d f8 08          	cmpl   $0x8,-0x8(%rbp)
   11734:	0f 8e 76 fb ff ff    	jle    112b0 <main+0x46c4>
   1173a:	83 45 f4 01          	addl   $0x1,-0xc(%rbp)
   1173e:	83 7d f4 06          	cmpl   $0x6,-0xc(%rbp)
   11742:	0f 8e 5c fb ff ff    	jle    112a4 <main+0x46b8>
   11748:	83 45 f0 01          	addl   $0x1,-0x10(%rbp)
   1174c:	83 7d f0 03          	cmpl   $0x3,-0x10(%rbp)
   11750:	0f 8e 42 fb ff ff    	jle    11298 <main+0x46ac>
   11756:	48 8b 05 d3 bd 00 00 	mov    0xbdd3(%rip),%rax        # 1d530 <g_1679>
   1175d:	8b 55 fc             	mov    -0x4(%rbp),%edx
   11760:	48 8d 35 37 33 00 00 	lea    0x3337(%rip),%rsi        # 14a9e <g_1647+0x195e>
   11767:	48 89 c7             	mov    %rax,%rdi
   1176a:	e8 84 7f ff ff       	callq  96f3 <transparent_crc>
   1176f:	0f b7 05 c2 bd 00 00 	movzwl 0xbdc2(%rip),%eax        # 1d538 <g_1679+0x8>
   11776:	0f b7 c0             	movzwl %ax,%eax
   11779:	8b 55 fc             	mov    -0x4(%rbp),%edx
   1177c:	48 8d 35 25 33 00 00 	lea    0x3325(%rip),%rsi        # 14aa8 <g_1647+0x1968>
   11783:	48 89 c7             	mov    %rax,%rdi
   11786:	e8 68 7f ff ff       	callq  96f3 <transparent_crc>
   1178b:	48 8b 05 a6 bd 00 00 	mov    0xbda6(%rip),%rax        # 1d538 <g_1679+0x8>
   11792:	48 c1 e0 1a          	shl    $0x1a,%rax
   11796:	48 c1 f8 2a          	sar    $0x2a,%rax
   1179a:	48 98                	cltq   
   1179c:	8b 55 fc             	mov    -0x4(%rbp),%edx
   1179f:	48 8d 35 0c 33 00 00 	lea    0x330c(%rip),%rsi        # 14ab2 <g_1647+0x1972>
   117a6:	48 89 c7             	mov    %rax,%rdi
   117a9:	e8 45 7f ff ff       	callq  96f3 <transparent_crc>
   117ae:	8b 05 89 bd 00 00    	mov    0xbd89(%rip),%eax        # 1d53d <g_1679+0xd>
   117b4:	48 98                	cltq   
   117b6:	8b 55 fc             	mov    -0x4(%rbp),%edx
   117b9:	48 8d 35 fc 32 00 00 	lea    0x32fc(%rip),%rsi        # 14abc <g_1647+0x197c>
   117c0:	48 89 c7             	mov    %rax,%rdi
   117c3:	e8 2b 7f ff ff       	callq  96f3 <transparent_crc>
   117c8:	48 8b 05 91 bd 00 00 	mov    0xbd91(%rip),%rax        # 1d560 <g_1685>
   117cf:	66 25 ff 3f          	and    $0x3fff,%ax
   117d3:	0f b7 c0             	movzwl %ax,%eax
   117d6:	8b 55 fc             	mov    -0x4(%rbp),%edx
   117d9:	48 8d 35 e6 32 00 00 	lea    0x32e6(%rip),%rsi        # 14ac6 <g_1647+0x1986>
   117e0:	48 89 c7             	mov    %rax,%rdi
   117e3:	e8 0b 7f ff ff       	callq  96f3 <transparent_crc>
   117e8:	48 8b 05 71 bd 00 00 	mov    0xbd71(%rip),%rax        # 1d560 <g_1685>
   117ef:	48 c1 e0 03          	shl    $0x3,%rax
   117f3:	48 c1 f8 23          	sar    $0x23,%rax
   117f7:	48 98                	cltq   
   117f9:	8b 55 fc             	mov    -0x4(%rbp),%edx
   117fc:	48 8d 35 cd 32 00 00 	lea    0x32cd(%rip),%rsi        # 14ad0 <g_1647+0x1990>
   11803:	48 89 c7             	mov    %rax,%rdi
   11806:	e8 e8 7e ff ff       	callq  96f3 <transparent_crc>
   1180b:	48 8b 05 56 bd 00 00 	mov    0xbd56(%rip),%rax        # 1d568 <g_1685+0x8>
   11812:	25 ff ff 7f 00       	and    $0x7fffff,%eax
   11817:	89 c1                	mov    %eax,%ecx
   11819:	8b 45 fc             	mov    -0x4(%rbp),%eax
   1181c:	89 c2                	mov    %eax,%edx
   1181e:	48 8d 35 b5 32 00 00 	lea    0x32b5(%rip),%rsi        # 14ada <g_1647+0x199a>
   11825:	48 89 cf             	mov    %rcx,%rdi
   11828:	e8 c6 7e ff ff       	callq  96f3 <transparent_crc>
   1182d:	48 8b 05 34 bd 00 00 	mov    0xbd34(%rip),%rax        # 1d568 <g_1685+0x8>
   11834:	48 c1 e8 20          	shr    $0x20,%rax
   11838:	66 25 ff 0f          	and    $0xfff,%ax
   1183c:	0f b7 c0             	movzwl %ax,%eax
   1183f:	8b 55 fc             	mov    -0x4(%rbp),%edx
   11842:	48 8d 35 9b 32 00 00 	lea    0x329b(%rip),%rsi        # 14ae4 <g_1647+0x19a4>
   11849:	48 89 c7             	mov    %rax,%rdi
   1184c:	e8 a2 7e ff ff       	callq  96f3 <transparent_crc>
   11851:	48 8b 05 18 bd 00 00 	mov    0xbd18(%rip),%rax        # 1d570 <g_1685+0x10>
   11858:	c1 e0 05             	shl    $0x5,%eax
   1185b:	c1 f8 05             	sar    $0x5,%eax
   1185e:	48 98                	cltq   
   11860:	8b 55 fc             	mov    -0x4(%rbp),%edx
   11863:	48 8d 35 84 32 00 00 	lea    0x3284(%rip),%rsi        # 14aee <g_1647+0x19ae>
   1186a:	48 89 c7             	mov    %rax,%rdi
   1186d:	e8 81 7e ff ff       	callq  96f3 <transparent_crc>
   11872:	48 8b 05 f7 bc 00 00 	mov    0xbcf7(%rip),%rax        # 1d570 <g_1685+0x10>
   11879:	48 c1 e8 20          	shr    $0x20,%rax
   1187d:	25 ff ff 07 00       	and    $0x7ffff,%eax
   11882:	89 c1                	mov    %eax,%ecx
   11884:	8b 45 fc             	mov    -0x4(%rbp),%eax
   11887:	89 c2                	mov    %eax,%edx
   11889:	48 8d 35 68 32 00 00 	lea    0x3268(%rip),%rsi        # 14af8 <g_1647+0x19b8>
   11890:	48 89 cf             	mov    %rcx,%rdi
   11893:	e8 5b 7e ff ff       	callq  96f3 <transparent_crc>
   11898:	48 8b 05 d9 bc 00 00 	mov    0xbcd9(%rip),%rax        # 1d578 <g_1685+0x18>
   1189f:	66 25 ff 3f          	and    $0x3fff,%ax
   118a3:	0f b7 c0             	movzwl %ax,%eax
   118a6:	8b 55 fc             	mov    -0x4(%rbp),%edx
   118a9:	48 8d 35 52 32 00 00 	lea    0x3252(%rip),%rsi        # 14b02 <g_1647+0x19c2>
   118b0:	48 89 c7             	mov    %rax,%rdi
   118b3:	e8 3b 7e ff ff       	callq  96f3 <transparent_crc>
   118b8:	48 8b 05 b9 bc 00 00 	mov    0xbcb9(%rip),%rax        # 1d578 <g_1685+0x18>
   118bf:	48 c1 e0 0b          	shl    $0xb,%rax
   118c3:	48 c1 f8 2b          	sar    $0x2b,%rax
   118c7:	48 98                	cltq   
   118c9:	8b 55 fc             	mov    -0x4(%rbp),%edx
   118cc:	48 8d 35 39 32 00 00 	lea    0x3239(%rip),%rsi        # 14b0c <g_1647+0x19cc>
   118d3:	48 89 c7             	mov    %rax,%rdi
   118d6:	e8 18 7e ff ff       	callq  96f3 <transparent_crc>
   118db:	48 8b 05 9e bc 00 00 	mov    0xbc9e(%rip),%rax        # 1d580 <g_1685+0x20>
   118e2:	c1 e0 0c             	shl    $0xc,%eax
   118e5:	c1 f8 0c             	sar    $0xc,%eax
   118e8:	48 98                	cltq   
   118ea:	8b 55 fc             	mov    -0x4(%rbp),%edx
   118ed:	48 8d 35 22 32 00 00 	lea    0x3222(%rip),%rsi        # 14b16 <g_1647+0x19d6>
   118f4:	48 89 c7             	mov    %rax,%rdi
   118f7:	e8 f7 7d ff ff       	callq  96f3 <transparent_crc>
   118fc:	48 8b 05 7d bc 00 00 	mov    0xbc7d(%rip),%rax        # 1d580 <g_1685+0x20>
   11903:	c1 f8 14             	sar    $0x14,%eax
   11906:	48 0f bf c0          	movswq %ax,%rax
   1190a:	8b 55 fc             	mov    -0x4(%rbp),%edx
   1190d:	48 8d 35 0c 32 00 00 	lea    0x320c(%rip),%rsi        # 14b20 <g_1647+0x19e0>
   11914:	48 89 c7             	mov    %rax,%rdi
   11917:	e8 d7 7d ff ff       	callq  96f3 <transparent_crc>
   1191c:	c7 45 f0 00 00 00 00 	movl   $0x0,-0x10(%rbp)
   11923:	e9 b6 00 00 00       	jmpq   119de <main+0x4df2>
   11928:	c7 45 f4 00 00 00 00 	movl   $0x0,-0xc(%rbp)
   1192f:	e9 9c 00 00 00       	jmpq   119d0 <main+0x4de4>
   11934:	c7 45 f8 00 00 00 00 	movl   $0x0,-0x8(%rbp)
   1193b:	e9 82 00 00 00       	jmpq   119c2 <main+0x4dd6>
   11940:	8b 45 f8             	mov    -0x8(%rbp),%eax
   11943:	48 63 f0             	movslq %eax,%rsi
   11946:	8b 45 f0             	mov    -0x10(%rbp),%eax
   11949:	48 98                	cltq   
   1194b:	8b 55 f4             	mov    -0xc(%rbp),%edx
   1194e:	48 63 ca             	movslq %edx,%rcx
   11951:	48 89 c2             	mov    %rax,%rdx
   11954:	48 c1 e2 02          	shl    $0x2,%rdx
   11958:	48 01 c2             	add    %rax,%rdx
   1195b:	48 8d 04 95 00 00 00 	lea    0x0(,%rdx,4),%rax
   11962:	00 
   11963:	48 89 c2             	mov    %rax,%rdx
   11966:	48 89 c8             	mov    %rcx,%rax
   11969:	48 c1 e0 02          	shl    $0x2,%rax
   1196d:	48 01 c8             	add    %rcx,%rax
   11970:	48 01 c0             	add    %rax,%rax
   11973:	48 01 d0             	add    %rdx,%rax
   11976:	48 8d 14 30          	lea    (%rax,%rsi,1),%rdx
   1197a:	48 8d 05 1f bc 00 00 	lea    0xbc1f(%rip),%rax        # 1d5a0 <g_1699>
   11981:	48 01 d0             	add    %rdx,%rax
   11984:	0f b6 00             	movzbl (%rax),%eax
   11987:	0f b6 c0             	movzbl %al,%eax
   1198a:	8b 55 fc             	mov    -0x4(%rbp),%edx
   1198d:	48 8d 35 96 31 00 00 	lea    0x3196(%rip),%rsi        # 14b2a <g_1647+0x19ea>
   11994:	48 89 c7             	mov    %rax,%rdi
   11997:	e8 57 7d ff ff       	callq  96f3 <transparent_crc>
   1199c:	83 7d fc 00          	cmpl   $0x0,-0x4(%rbp)
   119a0:	74 1c                	je     119be <main+0x4dd2>
   119a2:	8b 4d f8             	mov    -0x8(%rbp),%ecx
   119a5:	8b 55 f4             	mov    -0xc(%rbp),%edx
   119a8:	8b 45 f0             	mov    -0x10(%rbp),%eax
   119ab:	89 c6                	mov    %eax,%esi
   119ad:	48 8d 3d 16 2a 00 00 	lea    0x2a16(%rip),%rdi        # 143ca <g_1647+0x128a>
   119b4:	b8 00 00 00 00       	mov    $0x0,%eax
   119b9:	e8 c2 66 ff ff       	callq  8080 <printf@plt>
   119be:	83 45 f8 01          	addl   $0x1,-0x8(%rbp)
   119c2:	83 7d f8 09          	cmpl   $0x9,-0x8(%rbp)
   119c6:	0f 8e 74 ff ff ff    	jle    11940 <main+0x4d54>
   119cc:	83 45 f4 01          	addl   $0x1,-0xc(%rbp)
   119d0:	83 7d f4 01          	cmpl   $0x1,-0xc(%rbp)
   119d4:	0f 8e 5a ff ff ff    	jle    11934 <main+0x4d48>
   119da:	83 45 f0 01          	addl   $0x1,-0x10(%rbp)
   119de:	83 7d f0 04          	cmpl   $0x4,-0x10(%rbp)
   119e2:	0f 8e 40 ff ff ff    	jle    11928 <main+0x4d3c>
   119e8:	0f b6 05 15 bc 00 00 	movzbl 0xbc15(%rip),%eax        # 1d604 <g_1700>
   119ef:	0f b6 c0             	movzbl %al,%eax
   119f2:	8b 55 fc             	mov    -0x4(%rbp),%edx
   119f5:	48 8d 35 3e 31 00 00 	lea    0x313e(%rip),%rsi        # 14b3a <g_1647+0x19fa>
   119fc:	48 89 c7             	mov    %rax,%rdi
   119ff:	e8 ef 7c ff ff       	callq  96f3 <transparent_crc>
   11a04:	48 8b 05 15 bc 00 00 	mov    0xbc15(%rip),%rax        # 1d620 <g_1734>
   11a0b:	66 25 ff 3f          	and    $0x3fff,%ax
   11a0f:	0f b7 c0             	movzwl %ax,%eax
   11a12:	8b 55 fc             	mov    -0x4(%rbp),%edx
   11a15:	48 8d 35 25 31 00 00 	lea    0x3125(%rip),%rsi        # 14b41 <g_1647+0x1a01>
   11a1c:	48 89 c7             	mov    %rax,%rdi
   11a1f:	e8 cf 7c ff ff       	callq  96f3 <transparent_crc>
   11a24:	48 8b 05 f5 bb 00 00 	mov    0xbbf5(%rip),%rax        # 1d620 <g_1734>
   11a2b:	48 c1 e0 03          	shl    $0x3,%rax
   11a2f:	48 c1 f8 23          	sar    $0x23,%rax
   11a33:	48 98                	cltq   
   11a35:	8b 55 fc             	mov    -0x4(%rbp),%edx
   11a38:	48 8d 35 0c 31 00 00 	lea    0x310c(%rip),%rsi        # 14b4b <g_1647+0x1a0b>
   11a3f:	48 89 c7             	mov    %rax,%rdi
   11a42:	e8 ac 7c ff ff       	callq  96f3 <transparent_crc>
   11a47:	48 8b 05 da bb 00 00 	mov    0xbbda(%rip),%rax        # 1d628 <g_1734+0x8>
   11a4e:	25 ff ff 7f 00       	and    $0x7fffff,%eax
   11a53:	89 c1                	mov    %eax,%ecx
   11a55:	8b 45 fc             	mov    -0x4(%rbp),%eax
   11a58:	89 c2                	mov    %eax,%edx
   11a5a:	48 8d 35 f4 30 00 00 	lea    0x30f4(%rip),%rsi        # 14b55 <g_1647+0x1a15>
   11a61:	48 89 cf             	mov    %rcx,%rdi
   11a64:	e8 8a 7c ff ff       	callq  96f3 <transparent_crc>
   11a69:	48 8b 05 b8 bb 00 00 	mov    0xbbb8(%rip),%rax        # 1d628 <g_1734+0x8>
   11a70:	48 c1 e8 20          	shr    $0x20,%rax
   11a74:	66 25 ff 0f          	and    $0xfff,%ax
   11a78:	0f b7 c0             	movzwl %ax,%eax
   11a7b:	8b 55 fc             	mov    -0x4(%rbp),%edx
   11a7e:	48 8d 35 da 30 00 00 	lea    0x30da(%rip),%rsi        # 14b5f <g_1647+0x1a1f>
   11a85:	48 89 c7             	mov    %rax,%rdi
   11a88:	e8 66 7c ff ff       	callq  96f3 <transparent_crc>
   11a8d:	48 8b 05 9c bb 00 00 	mov    0xbb9c(%rip),%rax        # 1d630 <g_1734+0x10>
   11a94:	c1 e0 05             	shl    $0x5,%eax
   11a97:	c1 f8 05             	sar    $0x5,%eax
   11a9a:	48 98                	cltq   
   11a9c:	8b 55 fc             	mov    -0x4(%rbp),%edx
   11a9f:	48 8d 35 c3 30 00 00 	lea    0x30c3(%rip),%rsi        # 14b69 <g_1647+0x1a29>
   11aa6:	48 89 c7             	mov    %rax,%rdi
   11aa9:	e8 45 7c ff ff       	callq  96f3 <transparent_crc>
   11aae:	48 8b 05 7b bb 00 00 	mov    0xbb7b(%rip),%rax        # 1d630 <g_1734+0x10>
   11ab5:	48 c1 e8 20          	shr    $0x20,%rax
   11ab9:	25 ff ff 07 00       	and    $0x7ffff,%eax
   11abe:	89 c1                	mov    %eax,%ecx
   11ac0:	8b 45 fc             	mov    -0x4(%rbp),%eax
   11ac3:	89 c2                	mov    %eax,%edx
   11ac5:	48 8d 35 a7 30 00 00 	lea    0x30a7(%rip),%rsi        # 14b73 <g_1647+0x1a33>
   11acc:	48 89 cf             	mov    %rcx,%rdi
   11acf:	e8 1f 7c ff ff       	callq  96f3 <transparent_crc>
   11ad4:	48 8b 05 5d bb 00 00 	mov    0xbb5d(%rip),%rax        # 1d638 <g_1734+0x18>
   11adb:	66 25 ff 3f          	and    $0x3fff,%ax
   11adf:	0f b7 c0             	movzwl %ax,%eax
   11ae2:	8b 55 fc             	mov    -0x4(%rbp),%edx
   11ae5:	48 8d 35 91 30 00 00 	lea    0x3091(%rip),%rsi        # 14b7d <g_1647+0x1a3d>
   11aec:	48 89 c7             	mov    %rax,%rdi
   11aef:	e8 ff 7b ff ff       	callq  96f3 <transparent_crc>
   11af4:	48 8b 05 3d bb 00 00 	mov    0xbb3d(%rip),%rax        # 1d638 <g_1734+0x18>
   11afb:	48 c1 e0 0b          	shl    $0xb,%rax
   11aff:	48 c1 f8 2b          	sar    $0x2b,%rax
   11b03:	48 98                	cltq   
   11b05:	8b 55 fc             	mov    -0x4(%rbp),%edx
   11b08:	48 8d 35 78 30 00 00 	lea    0x3078(%rip),%rsi        # 14b87 <g_1647+0x1a47>
   11b0f:	48 89 c7             	mov    %rax,%rdi
   11b12:	e8 dc 7b ff ff       	callq  96f3 <transparent_crc>
   11b17:	48 8b 05 22 bb 00 00 	mov    0xbb22(%rip),%rax        # 1d640 <g_1734+0x20>
   11b1e:	c1 e0 0c             	shl    $0xc,%eax
   11b21:	c1 f8 0c             	sar    $0xc,%eax
   11b24:	48 98                	cltq   
   11b26:	8b 55 fc             	mov    -0x4(%rbp),%edx
   11b29:	48 8d 35 61 30 00 00 	lea    0x3061(%rip),%rsi        # 14b91 <g_1647+0x1a51>
   11b30:	48 89 c7             	mov    %rax,%rdi
   11b33:	e8 bb 7b ff ff       	callq  96f3 <transparent_crc>
   11b38:	48 8b 05 01 bb 00 00 	mov    0xbb01(%rip),%rax        # 1d640 <g_1734+0x20>
   11b3f:	c1 f8 14             	sar    $0x14,%eax
   11b42:	48 0f bf c0          	movswq %ax,%rax
   11b46:	8b 55 fc             	mov    -0x4(%rbp),%edx
   11b49:	48 8d 35 4b 30 00 00 	lea    0x304b(%rip),%rsi        # 14b9b <g_1647+0x1a5b>
   11b50:	48 89 c7             	mov    %rax,%rdi
   11b53:	e8 9b 7b ff ff       	callq  96f3 <transparent_crc>
   11b58:	0f b7 05 01 bb 00 00 	movzwl 0xbb01(%rip),%eax        # 1d660 <g_1784>
   11b5f:	66 25 ff 3f          	and    $0x3fff,%ax
   11b63:	0f b7 c0             	movzwl %ax,%eax
   11b66:	8b 55 fc             	mov    -0x4(%rbp),%edx
   11b69:	48 8d 35 35 30 00 00 	lea    0x3035(%rip),%rsi        # 14ba5 <g_1647+0x1a65>
   11b70:	48 89 c7             	mov    %rax,%rdi
   11b73:	e8 7b 7b ff ff       	callq  96f3 <transparent_crc>
   11b78:	48 8b 05 e1 ba 00 00 	mov    0xbae1(%rip),%rax        # 1d660 <g_1784>
   11b7f:	48 c1 e0 03          	shl    $0x3,%rax
   11b83:	48 c1 f8 23          	sar    $0x23,%rax
   11b87:	48 98                	cltq   
   11b89:	8b 55 fc             	mov    -0x4(%rbp),%edx
   11b8c:	48 8d 35 1c 30 00 00 	lea    0x301c(%rip),%rsi        # 14baf <g_1647+0x1a6f>
   11b93:	48 89 c7             	mov    %rax,%rdi
   11b96:	e8 58 7b ff ff       	callq  96f3 <transparent_crc>
   11b9b:	8b 05 c7 ba 00 00    	mov    0xbac7(%rip),%eax        # 1d668 <g_1784+0x8>
   11ba1:	25 ff ff 7f 00       	and    $0x7fffff,%eax
   11ba6:	89 c1                	mov    %eax,%ecx
   11ba8:	8b 45 fc             	mov    -0x4(%rbp),%eax
   11bab:	89 c2                	mov    %eax,%edx
   11bad:	48 8d 35 05 30 00 00 	lea    0x3005(%rip),%rsi        # 14bb9 <g_1647+0x1a79>
   11bb4:	48 89 cf             	mov    %rcx,%rdi
   11bb7:	e8 37 7b ff ff       	callq  96f3 <transparent_crc>
   11bbc:	48 8b 05 a5 ba 00 00 	mov    0xbaa5(%rip),%rax        # 1d668 <g_1784+0x8>
   11bc3:	48 c1 e8 20          	shr    $0x20,%rax
   11bc7:	66 25 ff 0f          	and    $0xfff,%ax
   11bcb:	0f b7 c0             	movzwl %ax,%eax
   11bce:	8b 55 fc             	mov    -0x4(%rbp),%edx
   11bd1:	48 8d 35 eb 2f 00 00 	lea    0x2feb(%rip),%rsi        # 14bc3 <g_1647+0x1a83>
   11bd8:	48 89 c7             	mov    %rax,%rdi
   11bdb:	e8 13 7b ff ff       	callq  96f3 <transparent_crc>
   11be0:	8b 05 8a ba 00 00    	mov    0xba8a(%rip),%eax        # 1d670 <g_1784+0x10>
   11be6:	c1 e0 05             	shl    $0x5,%eax
   11be9:	c1 f8 05             	sar    $0x5,%eax
   11bec:	48 98                	cltq   
   11bee:	8b 55 fc             	mov    -0x4(%rbp),%edx
   11bf1:	48 8d 35 d5 2f 00 00 	lea    0x2fd5(%rip),%rsi        # 14bcd <g_1647+0x1a8d>
   11bf8:	48 89 c7             	mov    %rax,%rdi
   11bfb:	e8 f3 7a ff ff       	callq  96f3 <transparent_crc>
   11c00:	8b 05 6e ba 00 00    	mov    0xba6e(%rip),%eax        # 1d674 <g_1784+0x14>
   11c06:	25 ff ff 07 00       	and    $0x7ffff,%eax
   11c0b:	89 c1                	mov    %eax,%ecx
   11c0d:	8b 45 fc             	mov    -0x4(%rbp),%eax
   11c10:	89 c2                	mov    %eax,%edx
   11c12:	48 8d 35 be 2f 00 00 	lea    0x2fbe(%rip),%rsi        # 14bd7 <g_1647+0x1a97>
   11c19:	48 89 cf             	mov    %rcx,%rdi
   11c1c:	e8 d2 7a ff ff       	callq  96f3 <transparent_crc>
   11c21:	48 8b 05 50 ba 00 00 	mov    0xba50(%rip),%rax        # 1d678 <g_1784+0x18>
   11c28:	66 25 ff 3f          	and    $0x3fff,%ax
   11c2c:	0f b7 c0             	movzwl %ax,%eax
   11c2f:	8b 55 fc             	mov    -0x4(%rbp),%edx
   11c32:	48 8d 35 a8 2f 00 00 	lea    0x2fa8(%rip),%rsi        # 14be1 <g_1647+0x1aa1>
   11c39:	48 89 c7             	mov    %rax,%rdi
   11c3c:	e8 b2 7a ff ff       	callq  96f3 <transparent_crc>
   11c41:	8b 05 35 ba 00 00    	mov    0xba35(%rip),%eax        # 1d67c <g_1784+0x1c>
   11c47:	c1 e0 0b             	shl    $0xb,%eax
   11c4a:	c1 f8 0b             	sar    $0xb,%eax
   11c4d:	48 98                	cltq   
   11c4f:	8b 55 fc             	mov    -0x4(%rbp),%edx
   11c52:	48 8d 35 92 2f 00 00 	lea    0x2f92(%rip),%rsi        # 14beb <g_1647+0x1aab>
   11c59:	48 89 c7             	mov    %rax,%rdi
   11c5c:	e8 92 7a ff ff       	callq  96f3 <transparent_crc>
   11c61:	48 8b 05 18 ba 00 00 	mov    0xba18(%rip),%rax        # 1d680 <g_1784+0x20>
   11c68:	c1 e0 0c             	shl    $0xc,%eax
   11c6b:	c1 f8 0c             	sar    $0xc,%eax
   11c6e:	48 98                	cltq   
   11c70:	8b 55 fc             	mov    -0x4(%rbp),%edx
   11c73:	48 8d 35 7b 2f 00 00 	lea    0x2f7b(%rip),%rsi        # 14bf5 <g_1647+0x1ab5>
   11c7a:	48 89 c7             	mov    %rax,%rdi
   11c7d:	e8 71 7a ff ff       	callq  96f3 <transparent_crc>
   11c82:	0f b7 05 f9 b9 00 00 	movzwl 0xb9f9(%rip),%eax        # 1d682 <g_1784+0x22>
   11c89:	66 c1 f8 04          	sar    $0x4,%ax
   11c8d:	48 0f bf c0          	movswq %ax,%rax
   11c91:	8b 55 fc             	mov    -0x4(%rbp),%edx
   11c94:	48 8d 35 64 2f 00 00 	lea    0x2f64(%rip),%rsi        # 14bff <g_1647+0x1abf>
   11c9b:	48 89 c7             	mov    %rax,%rdi
   11c9e:	e8 50 7a ff ff       	callq  96f3 <transparent_crc>
   11ca3:	48 8b 05 e6 b9 00 00 	mov    0xb9e6(%rip),%rax        # 1d690 <g_1791>
   11caa:	8b 55 fc             	mov    -0x4(%rbp),%edx
   11cad:	48 8d 35 55 2f 00 00 	lea    0x2f55(%rip),%rsi        # 14c09 <g_1647+0x1ac9>
   11cb4:	48 89 c7             	mov    %rax,%rdi
   11cb7:	e8 37 7a ff ff       	callq  96f3 <transparent_crc>
   11cbc:	0f b7 05 d5 b9 00 00 	movzwl 0xb9d5(%rip),%eax        # 1d698 <g_1791+0x8>
   11cc3:	0f b7 c0             	movzwl %ax,%eax
   11cc6:	8b 55 fc             	mov    -0x4(%rbp),%edx
   11cc9:	48 8d 35 43 2f 00 00 	lea    0x2f43(%rip),%rsi        # 14c13 <g_1647+0x1ad3>
   11cd0:	48 89 c7             	mov    %rax,%rdi
   11cd3:	e8 1b 7a ff ff       	callq  96f3 <transparent_crc>
   11cd8:	48 8b 05 b9 b9 00 00 	mov    0xb9b9(%rip),%rax        # 1d698 <g_1791+0x8>
   11cdf:	48 c1 e0 1a          	shl    $0x1a,%rax
   11ce3:	48 c1 f8 2a          	sar    $0x2a,%rax
   11ce7:	48 98                	cltq   
   11ce9:	8b 55 fc             	mov    -0x4(%rbp),%edx
   11cec:	48 8d 35 2a 2f 00 00 	lea    0x2f2a(%rip),%rsi        # 14c1d <g_1647+0x1add>
   11cf3:	48 89 c7             	mov    %rax,%rdi
   11cf6:	e8 f8 79 ff ff       	callq  96f3 <transparent_crc>
   11cfb:	8b 05 9c b9 00 00    	mov    0xb99c(%rip),%eax        # 1d69d <g_1791+0xd>
   11d01:	48 98                	cltq   
   11d03:	8b 55 fc             	mov    -0x4(%rbp),%edx
   11d06:	48 8d 35 1a 2f 00 00 	lea    0x2f1a(%rip),%rsi        # 14c27 <g_1647+0x1ae7>
   11d0d:	48 89 c7             	mov    %rax,%rdi
   11d10:	e8 de 79 ff ff       	callq  96f3 <transparent_crc>
   11d15:	c7 45 f0 00 00 00 00 	movl   $0x0,-0x10(%rbp)
   11d1c:	e9 66 01 00 00       	jmpq   11e87 <main+0x529b>
   11d21:	8b 45 f0             	mov    -0x10(%rbp),%eax
   11d24:	48 98                	cltq   
   11d26:	48 c1 e0 05          	shl    $0x5,%rax
   11d2a:	48 89 c2             	mov    %rax,%rdx
   11d2d:	48 8d 05 8c b9 00 00 	lea    0xb98c(%rip),%rax        # 1d6c0 <g_1836>
   11d34:	0f b6 04 02          	movzbl (%rdx,%rax,1),%eax
   11d38:	0f b6 c0             	movzbl %al,%eax
   11d3b:	8b 55 fc             	mov    -0x4(%rbp),%edx
   11d3e:	48 8d 35 ec 2e 00 00 	lea    0x2eec(%rip),%rsi        # 14c31 <g_1647+0x1af1>
   11d45:	48 89 c7             	mov    %rax,%rdi
   11d48:	e8 a6 79 ff ff       	callq  96f3 <transparent_crc>
   11d4d:	8b 45 f0             	mov    -0x10(%rbp),%eax
   11d50:	48 98                	cltq   
   11d52:	48 c1 e0 05          	shl    $0x5,%rax
   11d56:	48 89 c2             	mov    %rax,%rdx
   11d59:	48 8d 05 68 b9 00 00 	lea    0xb968(%rip),%rax        # 1d6c8 <g_1836+0x8>
   11d60:	48 8b 04 02          	mov    (%rdx,%rax,1),%rax
   11d64:	48 89 c1             	mov    %rax,%rcx
   11d67:	8b 45 fc             	mov    -0x4(%rbp),%eax
   11d6a:	89 c2                	mov    %eax,%edx
   11d6c:	48 8d 35 cb 2e 00 00 	lea    0x2ecb(%rip),%rsi        # 14c3e <g_1647+0x1afe>
   11d73:	48 89 cf             	mov    %rcx,%rdi
   11d76:	e8 78 79 ff ff       	callq  96f3 <transparent_crc>
   11d7b:	8b 45 f0             	mov    -0x10(%rbp),%eax
   11d7e:	48 98                	cltq   
   11d80:	48 c1 e0 05          	shl    $0x5,%rax
   11d84:	48 89 c2             	mov    %rax,%rdx
   11d87:	48 8d 05 42 b9 00 00 	lea    0xb942(%rip),%rax        # 1d6d0 <g_1836+0x10>
   11d8e:	0f b6 04 02          	movzbl (%rdx,%rax,1),%eax
   11d92:	48 0f be c0          	movsbq %al,%rax
   11d96:	8b 55 fc             	mov    -0x4(%rbp),%edx
   11d99:	48 8d 35 ab 2e 00 00 	lea    0x2eab(%rip),%rsi        # 14c4b <g_1647+0x1b0b>
   11da0:	48 89 c7             	mov    %rax,%rdi
   11da3:	e8 4b 79 ff ff       	callq  96f3 <transparent_crc>
   11da8:	8b 45 f0             	mov    -0x10(%rbp),%eax
   11dab:	48 98                	cltq   
   11dad:	48 c1 e0 05          	shl    $0x5,%rax
   11db1:	48 89 c2             	mov    %rax,%rdx
   11db4:	48 8d 05 17 b9 00 00 	lea    0xb917(%rip),%rax        # 1d6d2 <g_1836+0x12>
   11dbb:	0f b7 04 02          	movzwl (%rdx,%rax,1),%eax
   11dbf:	0f b7 c0             	movzwl %ax,%eax
   11dc2:	8b 55 fc             	mov    -0x4(%rbp),%edx
   11dc5:	48 8d 35 8c 2e 00 00 	lea    0x2e8c(%rip),%rsi        # 14c58 <g_1647+0x1b18>
   11dcc:	48 89 c7             	mov    %rax,%rdi
   11dcf:	e8 1f 79 ff ff       	callq  96f3 <transparent_crc>
   11dd4:	8b 45 f0             	mov    -0x10(%rbp),%eax
   11dd7:	48 98                	cltq   
   11dd9:	48 c1 e0 05          	shl    $0x5,%rax
   11ddd:	48 89 c2             	mov    %rax,%rdx
   11de0:	48 8d 05 e9 b8 00 00 	lea    0xb8e9(%rip),%rax        # 1d6d0 <g_1836+0x10>
   11de7:	0f b7 44 02 04       	movzwl 0x4(%rdx,%rax,1),%eax
   11dec:	c1 e0 05             	shl    $0x5,%eax
   11def:	66 c1 f8 05          	sar    $0x5,%ax
   11df3:	48 0f bf c0          	movswq %ax,%rax
   11df7:	8b 55 fc             	mov    -0x4(%rbp),%edx
   11dfa:	48 8d 35 64 2e 00 00 	lea    0x2e64(%rip),%rsi        # 14c65 <g_1647+0x1b25>
   11e01:	48 89 c7             	mov    %rax,%rdi
   11e04:	e8 ea 78 ff ff       	callq  96f3 <transparent_crc>
   11e09:	8b 45 f0             	mov    -0x10(%rbp),%eax
   11e0c:	48 98                	cltq   
   11e0e:	48 c1 e0 05          	shl    $0x5,%rax
   11e12:	48 89 c2             	mov    %rax,%rdx
   11e15:	48 8d 05 b4 b8 00 00 	lea    0xb8b4(%rip),%rax        # 1d6d0 <g_1836+0x10>
   11e1c:	8b 44 02 04          	mov    0x4(%rdx,%rax,1),%eax
   11e20:	c1 e8 0b             	shr    $0xb,%eax
   11e23:	83 e0 3f             	and    $0x3f,%eax
   11e26:	0f b6 c0             	movzbl %al,%eax
   11e29:	8b 55 fc             	mov    -0x4(%rbp),%edx
   11e2c:	48 8d 35 42 2e 00 00 	lea    0x2e42(%rip),%rsi        # 14c75 <g_1647+0x1b35>
   11e33:	48 89 c7             	mov    %rax,%rdi
   11e36:	e8 b8 78 ff ff       	callq  96f3 <transparent_crc>
   11e3b:	8b 45 f0             	mov    -0x10(%rbp),%eax
   11e3e:	48 98                	cltq   
   11e40:	48 c1 e0 05          	shl    $0x5,%rax
   11e44:	48 89 c2             	mov    %rax,%rdx
   11e47:	48 8d 05 8a b8 00 00 	lea    0xb88a(%rip),%rax        # 1d6d8 <g_1836+0x18>
   11e4e:	8b 04 02             	mov    (%rdx,%rax,1),%eax
   11e51:	89 c1                	mov    %eax,%ecx
   11e53:	8b 45 fc             	mov    -0x4(%rbp),%eax
   11e56:	89 c2                	mov    %eax,%edx
   11e58:	48 8d 35 26 2e 00 00 	lea    0x2e26(%rip),%rsi        # 14c85 <g_1647+0x1b45>
   11e5f:	48 89 cf             	mov    %rcx,%rdi
   11e62:	e8 8c 78 ff ff       	callq  96f3 <transparent_crc>
   11e67:	83 7d fc 00          	cmpl   $0x0,-0x4(%rbp)
   11e6b:	74 16                	je     11e83 <main+0x5297>
   11e6d:	8b 45 f0             	mov    -0x10(%rbp),%eax
   11e70:	89 c6                	mov    %eax,%esi
   11e72:	48 8d 3d 44 18 00 00 	lea    0x1844(%rip),%rdi        # 136bd <g_1647+0x57d>
   11e79:	b8 00 00 00 00       	mov    $0x0,%eax
   11e7e:	e8 fd 61 ff ff       	callq  8080 <printf@plt>
   11e83:	83 45 f0 01          	addl   $0x1,-0x10(%rbp)
   11e87:	83 7d f0 03          	cmpl   $0x3,-0x10(%rbp)
   11e8b:	0f 8e 90 fe ff ff    	jle    11d21 <main+0x5135>
   11e91:	c7 45 f0 00 00 00 00 	movl   $0x0,-0x10(%rbp)
   11e98:	e9 b6 00 00 00       	jmpq   11f53 <main+0x5367>
   11e9d:	8b 45 f0             	mov    -0x10(%rbp),%eax
   11ea0:	48 98                	cltq   
   11ea2:	48 8d 14 c5 00 00 00 	lea    0x0(,%rax,8),%rdx
   11ea9:	00 
   11eaa:	48 8d 05 8f b8 00 00 	lea    0xb88f(%rip),%rax        # 1d740 <g_1842>
   11eb1:	48 8b 04 02          	mov    (%rdx,%rax,1),%rax
   11eb5:	c1 e0 03             	shl    $0x3,%eax
   11eb8:	66 c1 f8 03          	sar    $0x3,%ax
   11ebc:	48 0f bf c0          	movswq %ax,%rax
   11ec0:	8b 55 fc             	mov    -0x4(%rbp),%edx
   11ec3:	48 8d 35 c8 2d 00 00 	lea    0x2dc8(%rip),%rsi        # 14c92 <g_1647+0x1b52>
   11eca:	48 89 c7             	mov    %rax,%rdi
   11ecd:	e8 21 78 ff ff       	callq  96f3 <transparent_crc>
   11ed2:	8b 45 f0             	mov    -0x10(%rbp),%eax
   11ed5:	48 98                	cltq   
   11ed7:	48 8d 14 c5 00 00 00 	lea    0x0(,%rax,8),%rdx
   11ede:	00 
   11edf:	48 8d 05 5c b8 00 00 	lea    0xb85c(%rip),%rax        # 1d742 <g_1842+0x2>
   11ee6:	0f b7 04 02          	movzwl (%rdx,%rax,1),%eax
   11eea:	48 0f bf c0          	movswq %ax,%rax
   11eee:	8b 55 fc             	mov    -0x4(%rbp),%edx
   11ef1:	48 8d 35 a7 2d 00 00 	lea    0x2da7(%rip),%rsi        # 14c9f <g_1647+0x1b5f>
   11ef8:	48 89 c7             	mov    %rax,%rdi
   11efb:	e8 f3 77 ff ff       	callq  96f3 <transparent_crc>
   11f00:	8b 45 f0             	mov    -0x10(%rbp),%eax
   11f03:	48 98                	cltq   
   11f05:	48 8d 14 c5 00 00 00 	lea    0x0(,%rax,8),%rdx
   11f0c:	00 
   11f0d:	48 8d 05 2c b8 00 00 	lea    0xb82c(%rip),%rax        # 1d740 <g_1842>
   11f14:	8b 44 02 04          	mov    0x4(%rdx,%rax,1),%eax
   11f18:	25 ff ff 3f 00       	and    $0x3fffff,%eax
   11f1d:	89 c1                	mov    %eax,%ecx
   11f1f:	8b 45 fc             	mov    -0x4(%rbp),%eax
   11f22:	89 c2                	mov    %eax,%edx
   11f24:	48 8d 35 81 2d 00 00 	lea    0x2d81(%rip),%rsi        # 14cac <g_1647+0x1b6c>
   11f2b:	48 89 cf             	mov    %rcx,%rdi
   11f2e:	e8 c0 77 ff ff       	callq  96f3 <transparent_crc>
   11f33:	83 7d fc 00          	cmpl   $0x0,-0x4(%rbp)
   11f37:	74 16                	je     11f4f <main+0x5363>
   11f39:	8b 45 f0             	mov    -0x10(%rbp),%eax
   11f3c:	89 c6                	mov    %eax,%esi
   11f3e:	48 8d 3d 78 17 00 00 	lea    0x1778(%rip),%rdi        # 136bd <g_1647+0x57d>
   11f45:	b8 00 00 00 00       	mov    $0x0,%eax
   11f4a:	e8 31 61 ff ff       	callq  8080 <printf@plt>
   11f4f:	83 45 f0 01          	addl   $0x1,-0x10(%rbp)
   11f53:	83 7d f0 00          	cmpl   $0x0,-0x10(%rbp)
   11f57:	0f 8e 40 ff ff ff    	jle    11e9d <main+0x52b1>
   11f5d:	48 8b 05 ec b7 00 00 	mov    0xb7ec(%rip),%rax        # 1d750 <g_1850>
   11f64:	8b 55 fc             	mov    -0x4(%rbp),%edx
   11f67:	48 8d 35 4b 2d 00 00 	lea    0x2d4b(%rip),%rsi        # 14cb9 <g_1647+0x1b79>
   11f6e:	48 89 c7             	mov    %rax,%rdi
   11f71:	e8 7d 77 ff ff       	callq  96f3 <transparent_crc>
   11f76:	0f b7 05 db b7 00 00 	movzwl 0xb7db(%rip),%eax        # 1d758 <g_1850+0x8>
   11f7d:	0f b7 c0             	movzwl %ax,%eax
   11f80:	8b 55 fc             	mov    -0x4(%rbp),%edx
   11f83:	48 8d 35 39 2d 00 00 	lea    0x2d39(%rip),%rsi        # 14cc3 <g_1647+0x1b83>
   11f8a:	48 89 c7             	mov    %rax,%rdi
   11f8d:	e8 61 77 ff ff       	callq  96f3 <transparent_crc>
   11f92:	48 8b 05 bf b7 00 00 	mov    0xb7bf(%rip),%rax        # 1d758 <g_1850+0x8>
   11f99:	48 c1 e0 1a          	shl    $0x1a,%rax
   11f9d:	48 c1 f8 2a          	sar    $0x2a,%rax
   11fa1:	48 98                	cltq   
   11fa3:	8b 55 fc             	mov    -0x4(%rbp),%edx
   11fa6:	48 8d 35 20 2d 00 00 	lea    0x2d20(%rip),%rsi        # 14ccd <g_1647+0x1b8d>
   11fad:	48 89 c7             	mov    %rax,%rdi
   11fb0:	e8 3e 77 ff ff       	callq  96f3 <transparent_crc>
   11fb5:	8b 05 a2 b7 00 00    	mov    0xb7a2(%rip),%eax        # 1d75d <g_1850+0xd>
   11fbb:	48 98                	cltq   
   11fbd:	8b 55 fc             	mov    -0x4(%rbp),%edx
   11fc0:	48 8d 35 10 2d 00 00 	lea    0x2d10(%rip),%rsi        # 14cd7 <g_1647+0x1b97>
   11fc7:	48 89 c7             	mov    %rax,%rdi
   11fca:	e8 24 77 ff ff       	callq  96f3 <transparent_crc>
   11fcf:	c7 45 f0 00 00 00 00 	movl   $0x0,-0x10(%rbp)
   11fd6:	eb 4b                	jmp    12023 <main+0x5437>
   11fd8:	8b 45 f0             	mov    -0x10(%rbp),%eax
   11fdb:	48 98                	cltq   
   11fdd:	48 8d 14 85 00 00 00 	lea    0x0(,%rax,4),%rdx
   11fe4:	00 
   11fe5:	48 8d 05 94 f0 00 00 	lea    0xf094(%rip),%rax        # 21080 <g_1884>
   11fec:	8b 04 02             	mov    (%rdx,%rax,1),%eax
   11fef:	48 98                	cltq   
   11ff1:	8b 55 fc             	mov    -0x4(%rbp),%edx
   11ff4:	48 8d 35 e6 2c 00 00 	lea    0x2ce6(%rip),%rsi        # 14ce1 <g_1647+0x1ba1>
   11ffb:	48 89 c7             	mov    %rax,%rdi
   11ffe:	e8 f0 76 ff ff       	callq  96f3 <transparent_crc>
   12003:	83 7d fc 00          	cmpl   $0x0,-0x4(%rbp)
   12007:	74 16                	je     1201f <main+0x5433>
   12009:	8b 45 f0             	mov    -0x10(%rbp),%eax
   1200c:	89 c6                	mov    %eax,%esi
   1200e:	48 8d 3d a8 16 00 00 	lea    0x16a8(%rip),%rdi        # 136bd <g_1647+0x57d>
   12015:	b8 00 00 00 00       	mov    $0x0,%eax
   1201a:	e8 61 60 ff ff       	callq  8080 <printf@plt>
   1201f:	83 45 f0 01          	addl   $0x1,-0x10(%rbp)
   12023:	83 7d f0 07          	cmpl   $0x7,-0x10(%rbp)
   12027:	7e af                	jle    11fd8 <main+0x53ec>
   12029:	c7 45 f0 00 00 00 00 	movl   $0x0,-0x10(%rbp)
   12030:	e9 09 01 00 00       	jmpq   1213e <main+0x5552>
   12035:	8b 45 f0             	mov    -0x10(%rbp),%eax
   12038:	48 63 d0             	movslq %eax,%rdx
   1203b:	48 89 d0             	mov    %rdx,%rax
   1203e:	48 c1 e0 04          	shl    $0x4,%rax
   12042:	48 01 c2             	add    %rax,%rdx
   12045:	48 8d 05 34 b7 00 00 	lea    0xb734(%rip),%rax        # 1d780 <g_1892>
   1204c:	48 8b 04 02          	mov    (%rdx,%rax,1),%rax
   12050:	8b 55 fc             	mov    -0x4(%rbp),%edx
   12053:	48 8d 35 91 2c 00 00 	lea    0x2c91(%rip),%rsi        # 14ceb <g_1647+0x1bab>
   1205a:	48 89 c7             	mov    %rax,%rdi
   1205d:	e8 91 76 ff ff       	callq  96f3 <transparent_crc>
   12062:	8b 45 f0             	mov    -0x10(%rbp),%eax
   12065:	48 63 d0             	movslq %eax,%rdx
   12068:	48 89 d0             	mov    %rdx,%rax
   1206b:	48 c1 e0 04          	shl    $0x4,%rax
   1206f:	48 01 c2             	add    %rax,%rdx
   12072:	48 8d 05 0f b7 00 00 	lea    0xb70f(%rip),%rax        # 1d788 <g_1892+0x8>
   12079:	0f b7 04 02          	movzwl (%rdx,%rax,1),%eax
   1207d:	0f b7 c0             	movzwl %ax,%eax
   12080:	8b 55 fc             	mov    -0x4(%rbp),%edx
   12083:	48 8d 35 6e 2c 00 00 	lea    0x2c6e(%rip),%rsi        # 14cf8 <g_1647+0x1bb8>
   1208a:	48 89 c7             	mov    %rax,%rdi
   1208d:	e8 61 76 ff ff       	callq  96f3 <transparent_crc>
   12092:	8b 45 f0             	mov    -0x10(%rbp),%eax
   12095:	48 63 d0             	movslq %eax,%rdx
   12098:	48 89 d0             	mov    %rdx,%rax
   1209b:	48 c1 e0 04          	shl    $0x4,%rax
   1209f:	48 01 c2             	add    %rax,%rdx
   120a2:	48 8d 05 d7 b6 00 00 	lea    0xb6d7(%rip),%rax        # 1d780 <g_1892>
   120a9:	0f b6 4c 02 0a       	movzbl 0xa(%rdx,%rax,1),%ecx
   120ae:	0f b6 c9             	movzbl %cl,%ecx
   120b1:	0f b6 74 02 0b       	movzbl 0xb(%rdx,%rax,1),%esi
   120b6:	40 0f b6 f6          	movzbl %sil,%esi
   120ba:	48 c1 e6 08          	shl    $0x8,%rsi
   120be:	48 09 f1             	or     %rsi,%rcx
   120c1:	0f b6 44 02 0c       	movzbl 0xc(%rdx,%rax,1),%eax
   120c6:	0f b6 c0             	movzbl %al,%eax
   120c9:	83 e0 3f             	and    $0x3f,%eax
   120cc:	48 c1 e0 10          	shl    $0x10,%rax
   120d0:	48 09 c8             	or     %rcx,%rax
   120d3:	48 c1 e0 2a          	shl    $0x2a,%rax
   120d7:	48 c1 f8 2a          	sar    $0x2a,%rax
   120db:	48 98                	cltq   
   120dd:	8b 55 fc             	mov    -0x4(%rbp),%edx
   120e0:	48 8d 35 1e 2c 00 00 	lea    0x2c1e(%rip),%rsi        # 14d05 <g_1647+0x1bc5>
   120e7:	48 89 c7             	mov    %rax,%rdi
   120ea:	e8 04 76 ff ff       	callq  96f3 <transparent_crc>
   120ef:	8b 45 f0             	mov    -0x10(%rbp),%eax
   120f2:	48 63 d0             	movslq %eax,%rdx
   120f5:	48 89 d0             	mov    %rdx,%rax
   120f8:	48 c1 e0 04          	shl    $0x4,%rax
   120fc:	48 01 c2             	add    %rax,%rdx
   120ff:	48 8d 05 7a b6 00 00 	lea    0xb67a(%rip),%rax        # 1d780 <g_1892>
   12106:	8b 44 02 0d          	mov    0xd(%rdx,%rax,1),%eax
   1210a:	48 98                	cltq   
   1210c:	8b 55 fc             	mov    -0x4(%rbp),%edx
   1210f:	48 8d 35 fc 2b 00 00 	lea    0x2bfc(%rip),%rsi        # 14d12 <g_1647+0x1bd2>
   12116:	48 89 c7             	mov    %rax,%rdi
   12119:	e8 d5 75 ff ff       	callq  96f3 <transparent_crc>
   1211e:	83 7d fc 00          	cmpl   $0x0,-0x4(%rbp)
   12122:	74 16                	je     1213a <main+0x554e>
   12124:	8b 45 f0             	mov    -0x10(%rbp),%eax
   12127:	89 c6                	mov    %eax,%esi
   12129:	48 8d 3d 8d 15 00 00 	lea    0x158d(%rip),%rdi        # 136bd <g_1647+0x57d>
   12130:	b8 00 00 00 00       	mov    $0x0,%eax
   12135:	e8 46 5f ff ff       	callq  8080 <printf@plt>
   1213a:	83 45 f0 01          	addl   $0x1,-0x10(%rbp)
   1213e:	83 7d f0 04          	cmpl   $0x4,-0x10(%rbp)
   12142:	0f 8e ed fe ff ff    	jle    12035 <main+0x5449>
   12148:	c7 45 f0 00 00 00 00 	movl   $0x0,-0x10(%rbp)
   1214f:	e9 10 02 00 00       	jmpq   12364 <main+0x5778>
   12154:	c7 45 f4 00 00 00 00 	movl   $0x0,-0xc(%rbp)
   1215b:	e9 f6 01 00 00       	jmpq   12356 <main+0x576a>
   12160:	8b 45 f4             	mov    -0xc(%rbp),%eax
   12163:	48 63 c8             	movslq %eax,%rcx
   12166:	8b 45 f0             	mov    -0x10(%rbp),%eax
   12169:	48 63 d0             	movslq %eax,%rdx
   1216c:	48 89 d0             	mov    %rdx,%rax
   1216f:	48 c1 e0 02          	shl    $0x2,%rax
   12173:	48 01 d0             	add    %rdx,%rax
   12176:	48 01 c8             	add    %rcx,%rax
   12179:	48 c1 e0 05          	shl    $0x5,%rax
   1217d:	48 89 c2             	mov    %rax,%rdx
   12180:	48 8d 05 59 b6 00 00 	lea    0xb659(%rip),%rax        # 1d7e0 <g_1949>
   12187:	0f b6 04 02          	movzbl (%rdx,%rax,1),%eax
   1218b:	0f b6 c0             	movzbl %al,%eax
   1218e:	8b 55 fc             	mov    -0x4(%rbp),%edx
   12191:	48 8d 35 87 2b 00 00 	lea    0x2b87(%rip),%rsi        # 14d1f <g_1647+0x1bdf>
   12198:	48 89 c7             	mov    %rax,%rdi
   1219b:	e8 53 75 ff ff       	callq  96f3 <transparent_crc>
   121a0:	8b 45 f4             	mov    -0xc(%rbp),%eax
   121a3:	48 63 c8             	movslq %eax,%rcx
   121a6:	8b 45 f0             	mov    -0x10(%rbp),%eax
   121a9:	48 63 d0             	movslq %eax,%rdx
   121ac:	48 89 d0             	mov    %rdx,%rax
   121af:	48 c1 e0 02          	shl    $0x2,%rax
   121b3:	48 01 d0             	add    %rdx,%rax
   121b6:	48 01 c8             	add    %rcx,%rax
   121b9:	48 c1 e0 05          	shl    $0x5,%rax
   121bd:	48 89 c2             	mov    %rax,%rdx
   121c0:	48 8d 05 21 b6 00 00 	lea    0xb621(%rip),%rax        # 1d7e8 <g_1949+0x8>
   121c7:	48 8b 04 02          	mov    (%rdx,%rax,1),%rax
   121cb:	48 89 c1             	mov    %rax,%rcx
   121ce:	8b 45 fc             	mov    -0x4(%rbp),%eax
   121d1:	89 c2                	mov    %eax,%edx
   121d3:	48 8d 35 55 2b 00 00 	lea    0x2b55(%rip),%rsi        # 14d2f <g_1647+0x1bef>
   121da:	48 89 cf             	mov    %rcx,%rdi
   121dd:	e8 11 75 ff ff       	callq  96f3 <transparent_crc>
   121e2:	8b 45 f4             	mov    -0xc(%rbp),%eax
   121e5:	48 63 c8             	movslq %eax,%rcx
   121e8:	8b 45 f0             	mov    -0x10(%rbp),%eax
   121eb:	48 63 d0             	movslq %eax,%rdx
   121ee:	48 89 d0             	mov    %rdx,%rax
   121f1:	48 c1 e0 02          	shl    $0x2,%rax
   121f5:	48 01 d0             	add    %rdx,%rax
   121f8:	48 01 c8             	add    %rcx,%rax
   121fb:	48 c1 e0 05          	shl    $0x5,%rax
   121ff:	48 89 c2             	mov    %rax,%rdx
   12202:	48 8d 05 e7 b5 00 00 	lea    0xb5e7(%rip),%rax        # 1d7f0 <g_1949+0x10>
   12209:	0f b6 04 02          	movzbl (%rdx,%rax,1),%eax
   1220d:	48 0f be c0          	movsbq %al,%rax
   12211:	8b 55 fc             	mov    -0x4(%rbp),%edx
   12214:	48 8d 35 24 2b 00 00 	lea    0x2b24(%rip),%rsi        # 14d3f <g_1647+0x1bff>
   1221b:	48 89 c7             	mov    %rax,%rdi
   1221e:	e8 d0 74 ff ff       	callq  96f3 <transparent_crc>
   12223:	8b 45 f4             	mov    -0xc(%rbp),%eax
   12226:	48 63 c8             	movslq %eax,%rcx
   12229:	8b 45 f0             	mov    -0x10(%rbp),%eax
   1222c:	48 63 d0             	movslq %eax,%rdx
   1222f:	48 89 d0             	mov    %rdx,%rax
   12232:	48 c1 e0 02          	shl    $0x2,%rax
   12236:	48 01 d0             	add    %rdx,%rax
   12239:	48 01 c8             	add    %rcx,%rax
   1223c:	48 c1 e0 05          	shl    $0x5,%rax
   12240:	48 89 c2             	mov    %rax,%rdx
   12243:	48 8d 05 a8 b5 00 00 	lea    0xb5a8(%rip),%rax        # 1d7f2 <g_1949+0x12>
   1224a:	0f b7 04 02          	movzwl (%rdx,%rax,1),%eax
   1224e:	0f b7 c0             	movzwl %ax,%eax
   12251:	8b 55 fc             	mov    -0x4(%rbp),%edx
   12254:	48 8d 35 f4 2a 00 00 	lea    0x2af4(%rip),%rsi        # 14d4f <g_1647+0x1c0f>
   1225b:	48 89 c7             	mov    %rax,%rdi
   1225e:	e8 90 74 ff ff       	callq  96f3 <transparent_crc>
   12263:	8b 45 f4             	mov    -0xc(%rbp),%eax
   12266:	48 63 c8             	movslq %eax,%rcx
   12269:	8b 45 f0             	mov    -0x10(%rbp),%eax
   1226c:	48 63 d0             	movslq %eax,%rdx
   1226f:	48 89 d0             	mov    %rdx,%rax
   12272:	48 c1 e0 02          	shl    $0x2,%rax
   12276:	48 01 d0             	add    %rdx,%rax
   12279:	48 01 c8             	add    %rcx,%rax
   1227c:	48 c1 e0 05          	shl    $0x5,%rax
   12280:	48 89 c2             	mov    %rax,%rdx
   12283:	48 8d 05 66 b5 00 00 	lea    0xb566(%rip),%rax        # 1d7f0 <g_1949+0x10>
   1228a:	48 8b 04 02          	mov    (%rdx,%rax,1),%rax
   1228e:	48 c1 e0 15          	shl    $0x15,%rax
   12292:	48 c1 f8 35          	sar    $0x35,%rax
   12296:	48 0f bf c0          	movswq %ax,%rax
   1229a:	8b 55 fc             	mov    -0x4(%rbp),%edx
   1229d:	48 8d 35 bb 2a 00 00 	lea    0x2abb(%rip),%rsi        # 14d5f <g_1647+0x1c1f>
   122a4:	48 89 c7             	mov    %rax,%rdi
   122a7:	e8 47 74 ff ff       	callq  96f3 <transparent_crc>
   122ac:	8b 45 f4             	mov    -0xc(%rbp),%eax
   122af:	48 63 c8             	movslq %eax,%rcx
   122b2:	8b 45 f0             	mov    -0x10(%rbp),%eax
   122b5:	48 63 d0             	movslq %eax,%rdx
   122b8:	48 89 d0             	mov    %rdx,%rax
   122bb:	48 c1 e0 02          	shl    $0x2,%rax
   122bf:	48 01 d0             	add    %rdx,%rax
   122c2:	48 01 c8             	add    %rcx,%rax
   122c5:	48 c1 e0 05          	shl    $0x5,%rax
   122c9:	48 89 c2             	mov    %rax,%rdx
   122cc:	48 8d 05 1d b5 00 00 	lea    0xb51d(%rip),%rax        # 1d7f0 <g_1949+0x10>
   122d3:	48 8b 04 02          	mov    (%rdx,%rax,1),%rax
   122d7:	48 c1 e8 2b          	shr    $0x2b,%rax
   122db:	83 e0 3f             	and    $0x3f,%eax
   122de:	0f b6 c0             	movzbl %al,%eax
   122e1:	8b 55 fc             	mov    -0x4(%rbp),%edx
   122e4:	48 8d 35 87 2a 00 00 	lea    0x2a87(%rip),%rsi        # 14d72 <g_1647+0x1c32>
   122eb:	48 89 c7             	mov    %rax,%rdi
   122ee:	e8 00 74 ff ff       	callq  96f3 <transparent_crc>
   122f3:	8b 45 f4             	mov    -0xc(%rbp),%eax
   122f6:	48 63 c8             	movslq %eax,%rcx
   122f9:	8b 45 f0             	mov    -0x10(%rbp),%eax
   122fc:	48 63 d0             	movslq %eax,%rdx
   122ff:	48 89 d0             	mov    %rdx,%rax
   12302:	48 c1 e0 02          	shl    $0x2,%rax
   12306:	48 01 d0             	add    %rdx,%rax
   12309:	48 01 c8             	add    %rcx,%rax
   1230c:	48 c1 e0 05          	shl    $0x5,%rax
   12310:	48 89 c2             	mov    %rax,%rdx
   12313:	48 8d 05 de b4 00 00 	lea    0xb4de(%rip),%rax        # 1d7f8 <g_1949+0x18>
   1231a:	8b 04 02             	mov    (%rdx,%rax,1),%eax
   1231d:	89 c1                	mov    %eax,%ecx
   1231f:	8b 45 fc             	mov    -0x4(%rbp),%eax
   12322:	89 c2                	mov    %eax,%edx
   12324:	48 8d 35 5a 2a 00 00 	lea    0x2a5a(%rip),%rsi        # 14d85 <g_1647+0x1c45>
   1232b:	48 89 cf             	mov    %rcx,%rdi
   1232e:	e8 c0 73 ff ff       	callq  96f3 <transparent_crc>
   12333:	83 7d fc 00          	cmpl   $0x0,-0x4(%rbp)
   12337:	74 19                	je     12352 <main+0x5766>
   12339:	8b 55 f4             	mov    -0xc(%rbp),%edx
   1233c:	8b 45 f0             	mov    -0x10(%rbp),%eax
   1233f:	89 c6                	mov    %eax,%esi
   12341:	48 8d 3d df 17 00 00 	lea    0x17df(%rip),%rdi        # 13b27 <g_1647+0x9e7>
   12348:	b8 00 00 00 00       	mov    $0x0,%eax
   1234d:	e8 2e 5d ff ff       	callq  8080 <printf@plt>
   12352:	83 45 f4 01          	addl   $0x1,-0xc(%rbp)
   12356:	83 7d f4 04          	cmpl   $0x4,-0xc(%rbp)
   1235a:	0f 8e 00 fe ff ff    	jle    12160 <main+0x5574>
   12360:	83 45 f0 01          	addl   $0x1,-0x10(%rbp)
   12364:	83 7d f0 08          	cmpl   $0x8,-0x10(%rbp)
   12368:	0f 8e e6 fd ff ff    	jle    12154 <main+0x5568>
   1236e:	48 8b 05 0b ba 00 00 	mov    0xba0b(%rip),%rax        # 1dd80 <g_2020>
   12375:	8b 55 fc             	mov    -0x4(%rbp),%edx
   12378:	48 8d 35 16 2a 00 00 	lea    0x2a16(%rip),%rsi        # 14d95 <g_1647+0x1c55>
   1237f:	48 89 c7             	mov    %rax,%rdi
   12382:	e8 6c 73 ff ff       	callq  96f3 <transparent_crc>
   12387:	48 8b 05 fa b9 00 00 	mov    0xb9fa(%rip),%rax        # 1dd88 <g_2020+0x8>
   1238e:	66 25 ff 3f          	and    $0x3fff,%ax
   12392:	0f b7 c0             	movzwl %ax,%eax
   12395:	8b 55 fc             	mov    -0x4(%rbp),%edx
   12398:	48 8d 35 00 2a 00 00 	lea    0x2a00(%rip),%rsi        # 14d9f <g_1647+0x1c5f>
   1239f:	48 89 c7             	mov    %rax,%rdi
   123a2:	e8 4c 73 ff ff       	callq  96f3 <transparent_crc>
   123a7:	48 8b 05 da b9 00 00 	mov    0xb9da(%rip),%rax        # 1dd88 <g_2020+0x8>
   123ae:	48 c1 e0 03          	shl    $0x3,%rax
   123b2:	48 c1 f8 23          	sar    $0x23,%rax
   123b6:	48 98                	cltq   
   123b8:	8b 55 fc             	mov    -0x4(%rbp),%edx
   123bb:	48 8d 35 ea 29 00 00 	lea    0x29ea(%rip),%rsi        # 14dac <g_1647+0x1c6c>
   123c2:	48 89 c7             	mov    %rax,%rdi
   123c5:	e8 29 73 ff ff       	callq  96f3 <transparent_crc>
   123ca:	48 8b 05 bf b9 00 00 	mov    0xb9bf(%rip),%rax        # 1dd90 <g_2020+0x10>
   123d1:	25 ff ff 7f 00       	and    $0x7fffff,%eax
   123d6:	89 c1                	mov    %eax,%ecx
   123d8:	8b 45 fc             	mov    -0x4(%rbp),%eax
   123db:	89 c2                	mov    %eax,%edx
   123dd:	48 8d 35 d5 29 00 00 	lea    0x29d5(%rip),%rsi        # 14db9 <g_1647+0x1c79>
   123e4:	48 89 cf             	mov    %rcx,%rdi
   123e7:	e8 07 73 ff ff       	callq  96f3 <transparent_crc>
   123ec:	48 8b 05 9d b9 00 00 	mov    0xb99d(%rip),%rax        # 1dd90 <g_2020+0x10>
   123f3:	48 c1 e8 20          	shr    $0x20,%rax
   123f7:	66 25 ff 0f          	and    $0xfff,%ax
   123fb:	0f b7 c0             	movzwl %ax,%eax
   123fe:	8b 55 fc             	mov    -0x4(%rbp),%edx
   12401:	48 8d 35 be 29 00 00 	lea    0x29be(%rip),%rsi        # 14dc6 <g_1647+0x1c86>
   12408:	48 89 c7             	mov    %rax,%rdi
   1240b:	e8 e3 72 ff ff       	callq  96f3 <transparent_crc>
   12410:	48 8b 05 81 b9 00 00 	mov    0xb981(%rip),%rax        # 1dd98 <g_2020+0x18>
   12417:	c1 e0 05             	shl    $0x5,%eax
   1241a:	c1 f8 05             	sar    $0x5,%eax
   1241d:	48 98                	cltq   
   1241f:	8b 55 fc             	mov    -0x4(%rbp),%edx
   12422:	48 8d 35 aa 29 00 00 	lea    0x29aa(%rip),%rsi        # 14dd3 <g_1647+0x1c93>
   12429:	48 89 c7             	mov    %rax,%rdi
   1242c:	e8 c2 72 ff ff       	callq  96f3 <transparent_crc>
   12431:	48 8b 05 60 b9 00 00 	mov    0xb960(%rip),%rax        # 1dd98 <g_2020+0x18>
   12438:	48 c1 e8 20          	shr    $0x20,%rax
   1243c:	25 ff ff 07 00       	and    $0x7ffff,%eax
   12441:	89 c1                	mov    %eax,%ecx
   12443:	8b 45 fc             	mov    -0x4(%rbp),%eax
   12446:	89 c2                	mov    %eax,%edx
   12448:	48 8d 35 91 29 00 00 	lea    0x2991(%rip),%rsi        # 14de0 <g_1647+0x1ca0>
   1244f:	48 89 cf             	mov    %rcx,%rdi
   12452:	e8 9c 72 ff ff       	callq  96f3 <transparent_crc>
   12457:	48 8b 05 42 b9 00 00 	mov    0xb942(%rip),%rax        # 1dda0 <g_2020+0x20>
   1245e:	66 25 ff 3f          	and    $0x3fff,%ax
   12462:	0f b7 c0             	movzwl %ax,%eax
   12465:	8b 55 fc             	mov    -0x4(%rbp),%edx
   12468:	48 8d 35 7e 29 00 00 	lea    0x297e(%rip),%rsi        # 14ded <g_1647+0x1cad>
   1246f:	48 89 c7             	mov    %rax,%rdi
   12472:	e8 7c 72 ff ff       	callq  96f3 <transparent_crc>
   12477:	48 8b 05 22 b9 00 00 	mov    0xb922(%rip),%rax        # 1dda0 <g_2020+0x20>
   1247e:	48 c1 e0 0b          	shl    $0xb,%rax
   12482:	48 c1 f8 2b          	sar    $0x2b,%rax
   12486:	48 98                	cltq   
   12488:	8b 55 fc             	mov    -0x4(%rbp),%edx
   1248b:	48 8d 35 68 29 00 00 	lea    0x2968(%rip),%rsi        # 14dfa <g_1647+0x1cba>
   12492:	48 89 c7             	mov    %rax,%rdi
   12495:	e8 59 72 ff ff       	callq  96f3 <transparent_crc>
   1249a:	48 8b 05 07 b9 00 00 	mov    0xb907(%rip),%rax        # 1dda8 <g_2020+0x28>
   124a1:	c1 e0 0c             	shl    $0xc,%eax
   124a4:	c1 f8 0c             	sar    $0xc,%eax
   124a7:	48 98                	cltq   
   124a9:	8b 55 fc             	mov    -0x4(%rbp),%edx
   124ac:	48 8d 35 54 29 00 00 	lea    0x2954(%rip),%rsi        # 14e07 <g_1647+0x1cc7>
   124b3:	48 89 c7             	mov    %rax,%rdi
   124b6:	e8 38 72 ff ff       	callq  96f3 <transparent_crc>
   124bb:	48 8b 05 e6 b8 00 00 	mov    0xb8e6(%rip),%rax        # 1dda8 <g_2020+0x28>
   124c2:	c1 f8 14             	sar    $0x14,%eax
   124c5:	48 0f bf c0          	movswq %ax,%rax
   124c9:	8b 55 fc             	mov    -0x4(%rbp),%edx
   124cc:	48 8d 35 41 29 00 00 	lea    0x2941(%rip),%rsi        # 14e14 <g_1647+0x1cd4>
   124d3:	48 89 c7             	mov    %rax,%rdi
   124d6:	e8 18 72 ff ff       	callq  96f3 <transparent_crc>
   124db:	0f b6 05 ce b8 00 00 	movzbl 0xb8ce(%rip),%eax        # 1ddb0 <g_2020+0x30>
   124e2:	0f b6 c0             	movzbl %al,%eax
   124e5:	8b 55 fc             	mov    -0x4(%rbp),%edx
   124e8:	48 8d 35 32 29 00 00 	lea    0x2932(%rip),%rsi        # 14e21 <g_1647+0x1ce1>
   124ef:	48 89 c7             	mov    %rax,%rdi
   124f2:	e8 fc 71 ff ff       	callq  96f3 <transparent_crc>
   124f7:	48 8b 05 ba b8 00 00 	mov    0xb8ba(%rip),%rax        # 1ddb8 <g_2020+0x38>
   124fe:	48 89 c1             	mov    %rax,%rcx
   12501:	8b 45 fc             	mov    -0x4(%rbp),%eax
   12504:	89 c2                	mov    %eax,%edx
   12506:	48 8d 35 21 29 00 00 	lea    0x2921(%rip),%rsi        # 14e2e <g_1647+0x1cee>
   1250d:	48 89 cf             	mov    %rcx,%rdi
   12510:	e8 de 71 ff ff       	callq  96f3 <transparent_crc>
   12515:	0f b6 05 a4 b8 00 00 	movzbl 0xb8a4(%rip),%eax        # 1ddc0 <g_2020+0x40>
   1251c:	48 0f be c0          	movsbq %al,%rax
   12520:	8b 55 fc             	mov    -0x4(%rbp),%edx
   12523:	48 8d 35 11 29 00 00 	lea    0x2911(%rip),%rsi        # 14e3b <g_1647+0x1cfb>
   1252a:	48 89 c7             	mov    %rax,%rdi
   1252d:	e8 c1 71 ff ff       	callq  96f3 <transparent_crc>
   12532:	0f b7 05 89 b8 00 00 	movzwl 0xb889(%rip),%eax        # 1ddc2 <g_2020+0x42>
   12539:	0f b7 c0             	movzwl %ax,%eax
   1253c:	8b 55 fc             	mov    -0x4(%rbp),%edx
   1253f:	48 8d 35 02 29 00 00 	lea    0x2902(%rip),%rsi        # 14e48 <g_1647+0x1d08>
   12546:	48 89 c7             	mov    %rax,%rdi
   12549:	e8 a5 71 ff ff       	callq  96f3 <transparent_crc>
   1254e:	48 8b 05 6b b8 00 00 	mov    0xb86b(%rip),%rax        # 1ddc0 <g_2020+0x40>
   12555:	48 c1 e0 15          	shl    $0x15,%rax
   12559:	48 c1 f8 35          	sar    $0x35,%rax
   1255d:	48 0f bf c0          	movswq %ax,%rax
   12561:	8b 55 fc             	mov    -0x4(%rbp),%edx
   12564:	48 8d 35 ea 28 00 00 	lea    0x28ea(%rip),%rsi        # 14e55 <g_1647+0x1d15>
   1256b:	48 89 c7             	mov    %rax,%rdi
   1256e:	e8 80 71 ff ff       	callq  96f3 <transparent_crc>
   12573:	48 8b 05 46 b8 00 00 	mov    0xb846(%rip),%rax        # 1ddc0 <g_2020+0x40>
   1257a:	48 c1 e8 2b          	shr    $0x2b,%rax
   1257e:	83 e0 3f             	and    $0x3f,%eax
   12581:	0f b6 c0             	movzbl %al,%eax
   12584:	8b 55 fc             	mov    -0x4(%rbp),%edx
   12587:	48 8d 35 d7 28 00 00 	lea    0x28d7(%rip),%rsi        # 14e65 <g_1647+0x1d25>
   1258e:	48 89 c7             	mov    %rax,%rdi
   12591:	e8 5d 71 ff ff       	callq  96f3 <transparent_crc>
   12596:	8b 05 2c b8 00 00    	mov    0xb82c(%rip),%eax        # 1ddc8 <g_2020+0x48>
   1259c:	89 c1                	mov    %eax,%ecx
   1259e:	8b 45 fc             	mov    -0x4(%rbp),%eax
   125a1:	89 c2                	mov    %eax,%edx
   125a3:	48 8d 35 cb 28 00 00 	lea    0x28cb(%rip),%rsi        # 14e75 <g_1647+0x1d35>
   125aa:	48 89 cf             	mov    %rcx,%rdi
   125ad:	e8 41 71 ff ff       	callq  96f3 <transparent_crc>
   125b2:	48 8b 05 17 b8 00 00 	mov    0xb817(%rip),%rax        # 1ddd0 <g_2020+0x50>
   125b9:	8b 55 fc             	mov    -0x4(%rbp),%edx
   125bc:	48 8d 35 bf 28 00 00 	lea    0x28bf(%rip),%rsi        # 14e82 <g_1647+0x1d42>
   125c3:	48 89 c7             	mov    %rax,%rdi
   125c6:	e8 28 71 ff ff       	callq  96f3 <transparent_crc>
   125cb:	0f b7 05 06 b8 00 00 	movzwl 0xb806(%rip),%eax        # 1ddd8 <g_2020+0x58>
   125d2:	0f b7 c0             	movzwl %ax,%eax
   125d5:	8b 55 fc             	mov    -0x4(%rbp),%edx
   125d8:	48 8d 35 b0 28 00 00 	lea    0x28b0(%rip),%rsi        # 14e8f <g_1647+0x1d4f>
   125df:	48 89 c7             	mov    %rax,%rdi
   125e2:	e8 0c 71 ff ff       	callq  96f3 <transparent_crc>
   125e7:	48 8b 05 ea b7 00 00 	mov    0xb7ea(%rip),%rax        # 1ddd8 <g_2020+0x58>
   125ee:	48 c1 e0 1a          	shl    $0x1a,%rax
   125f2:	48 c1 f8 2a          	sar    $0x2a,%rax
   125f6:	48 98                	cltq   
   125f8:	8b 55 fc             	mov    -0x4(%rbp),%edx
   125fb:	48 8d 35 9a 28 00 00 	lea    0x289a(%rip),%rsi        # 14e9c <g_1647+0x1d5c>
   12602:	48 89 c7             	mov    %rax,%rdi
   12605:	e8 e9 70 ff ff       	callq  96f3 <transparent_crc>
   1260a:	8b 05 cd b7 00 00    	mov    0xb7cd(%rip),%eax        # 1dddd <g_2020+0x5d>
   12610:	48 98                	cltq   
   12612:	8b 55 fc             	mov    -0x4(%rbp),%edx
   12615:	48 8d 35 8d 28 00 00 	lea    0x288d(%rip),%rsi        # 14ea9 <g_1647+0x1d69>
   1261c:	48 89 c7             	mov    %rax,%rdi
   1261f:	e8 cf 70 ff ff       	callq  96f3 <transparent_crc>
   12624:	8b 05 ba b7 00 00    	mov    0xb7ba(%rip),%eax        # 1dde4 <g_2020+0x64>
   1262a:	48 98                	cltq   
   1262c:	8b 55 fc             	mov    -0x4(%rbp),%edx
   1262f:	48 8d 35 80 28 00 00 	lea    0x2880(%rip),%rsi        # 14eb6 <g_1647+0x1d76>
   12636:	48 89 c7             	mov    %rax,%rdi
   12639:	e8 b5 70 ff ff       	callq  96f3 <transparent_crc>
   1263e:	0f b7 05 a3 b7 00 00 	movzwl 0xb7a3(%rip),%eax        # 1dde8 <g_2020+0x68>
   12645:	0f b7 c0             	movzwl %ax,%eax
   12648:	8b 55 fc             	mov    -0x4(%rbp),%edx
   1264b:	48 8d 35 6e 28 00 00 	lea    0x286e(%rip),%rsi        # 14ec0 <g_1647+0x1d80>
   12652:	48 89 c7             	mov    %rax,%rdi
   12655:	e8 99 70 ff ff       	callq  96f3 <transparent_crc>
   1265a:	48 8b 05 87 b7 00 00 	mov    0xb787(%rip),%rax        # 1dde8 <g_2020+0x68>
   12661:	48 c1 e8 20          	shr    $0x20,%rax
   12665:	25 ff ff ff 00       	and    $0xffffff,%eax
   1266a:	89 c1                	mov    %eax,%ecx
   1266c:	8b 45 fc             	mov    -0x4(%rbp),%eax
   1266f:	89 c2                	mov    %eax,%edx
   12671:	48 8d 35 52 28 00 00 	lea    0x2852(%rip),%rsi        # 14eca <g_1647+0x1d8a>
   12678:	48 89 cf             	mov    %rcx,%rdi
   1267b:	e8 73 70 ff ff       	callq  96f3 <transparent_crc>
   12680:	0f b7 05 69 b7 00 00 	movzwl 0xb769(%rip),%eax        # 1ddf0 <g_2020+0x70>
   12687:	0f b7 c0             	movzwl %ax,%eax
   1268a:	8b 55 fc             	mov    -0x4(%rbp),%edx
   1268d:	48 8d 35 40 28 00 00 	lea    0x2840(%rip),%rsi        # 14ed4 <g_1647+0x1d94>
   12694:	48 89 c7             	mov    %rax,%rdi
   12697:	e8 57 70 ff ff       	callq  96f3 <transparent_crc>
   1269c:	48 8b 05 4d b7 00 00 	mov    0xb74d(%rip),%rax        # 1ddf0 <g_2020+0x70>
   126a3:	48 c1 e0 0f          	shl    $0xf,%rax
   126a7:	48 c1 f8 2f          	sar    $0x2f,%rax
   126ab:	48 98                	cltq   
   126ad:	8b 55 fc             	mov    -0x4(%rbp),%edx
   126b0:	48 8d 35 2a 28 00 00 	lea    0x282a(%rip),%rsi        # 14ee1 <g_1647+0x1da1>
   126b7:	48 89 c7             	mov    %rax,%rdi
   126ba:	e8 34 70 ff ff       	callq  96f3 <transparent_crc>
   126bf:	48 8b 05 2a b7 00 00 	mov    0xb72a(%rip),%rax        # 1ddf0 <g_2020+0x70>
   126c6:	48 c1 e8 31          	shr    $0x31,%rax
   126ca:	83 e0 07             	and    $0x7,%eax
   126cd:	0f b6 c0             	movzbl %al,%eax
   126d0:	8b 55 fc             	mov    -0x4(%rbp),%edx
   126d3:	48 8d 35 14 28 00 00 	lea    0x2814(%rip),%rsi        # 14eee <g_1647+0x1dae>
   126da:	48 89 c7             	mov    %rax,%rdi
   126dd:	e8 11 70 ff ff       	callq  96f3 <transparent_crc>
   126e2:	48 8b 05 0f b7 00 00 	mov    0xb70f(%rip),%rax        # 1ddf8 <g_2020+0x78>
   126e9:	c1 e0 0b             	shl    $0xb,%eax
   126ec:	c1 f8 0b             	sar    $0xb,%eax
   126ef:	48 98                	cltq   
   126f1:	8b 55 fc             	mov    -0x4(%rbp),%edx
   126f4:	48 8d 35 00 28 00 00 	lea    0x2800(%rip),%rsi        # 14efb <g_1647+0x1dbb>
   126fb:	48 89 c7             	mov    %rax,%rdi
   126fe:	e8 f0 6f ff ff       	callq  96f3 <transparent_crc>
   12703:	8b 05 f3 b6 00 00    	mov    0xb6f3(%rip),%eax        # 1ddfc <g_2020+0x7c>
   12709:	89 c1                	mov    %eax,%ecx
   1270b:	8b 45 fc             	mov    -0x4(%rbp),%eax
   1270e:	89 c2                	mov    %eax,%edx
   12710:	48 8d 35 f1 27 00 00 	lea    0x27f1(%rip),%rsi        # 14f08 <g_1647+0x1dc8>
   12717:	48 89 cf             	mov    %rcx,%rdi
   1271a:	e8 d4 6f ff ff       	callq  96f3 <transparent_crc>
   1271f:	8b 05 db b6 00 00    	mov    0xb6db(%rip),%eax        # 1de00 <g_2020+0x80>
   12725:	89 c1                	mov    %eax,%ecx
   12727:	8b 45 fc             	mov    -0x4(%rbp),%eax
   1272a:	89 c2                	mov    %eax,%edx
   1272c:	48 8d 35 df 27 00 00 	lea    0x27df(%rip),%rsi        # 14f12 <g_1647+0x1dd2>
   12733:	48 89 cf             	mov    %rcx,%rdi
   12736:	e8 b8 6f ff ff       	callq  96f3 <transparent_crc>
   1273b:	48 8b 05 c6 b6 00 00 	mov    0xb6c6(%rip),%rax        # 1de08 <g_2042>
   12742:	c1 e0 03             	shl    $0x3,%eax
   12745:	66 c1 f8 03          	sar    $0x3,%ax
   12749:	48 0f bf c0          	movswq %ax,%rax
   1274d:	8b 55 fc             	mov    -0x4(%rbp),%edx
   12750:	48 8d 35 c5 27 00 00 	lea    0x27c5(%rip),%rsi        # 14f1c <g_1647+0x1ddc>
   12757:	48 89 c7             	mov    %rax,%rdi
   1275a:	e8 94 6f ff ff       	callq  96f3 <transparent_crc>
   1275f:	0f b7 05 a4 b6 00 00 	movzwl 0xb6a4(%rip),%eax        # 1de0a <g_2042+0x2>
   12766:	48 0f bf c0          	movswq %ax,%rax
   1276a:	8b 55 fc             	mov    -0x4(%rbp),%edx
   1276d:	48 8d 35 b2 27 00 00 	lea    0x27b2(%rip),%rsi        # 14f26 <g_1647+0x1de6>
   12774:	48 89 c7             	mov    %rax,%rdi
   12777:	e8 77 6f ff ff       	callq  96f3 <transparent_crc>
   1277c:	48 8b 05 85 b6 00 00 	mov    0xb685(%rip),%rax        # 1de08 <g_2042>
   12783:	48 c1 e8 20          	shr    $0x20,%rax
   12787:	25 ff ff 3f 00       	and    $0x3fffff,%eax
   1278c:	89 c1                	mov    %eax,%ecx
   1278e:	8b 45 fc             	mov    -0x4(%rbp),%eax
   12791:	89 c2                	mov    %eax,%edx
   12793:	48 8d 35 96 27 00 00 	lea    0x2796(%rip),%rsi        # 14f30 <g_1647+0x1df0>
   1279a:	48 89 cf             	mov    %rcx,%rdi
   1279d:	e8 51 6f ff ff       	callq  96f3 <transparent_crc>
   127a2:	8b 05 68 b6 00 00    	mov    0xb668(%rip),%eax        # 1de10 <g_2046>
   127a8:	89 c1                	mov    %eax,%ecx
   127aa:	8b 45 fc             	mov    -0x4(%rbp),%eax
   127ad:	89 c2                	mov    %eax,%edx
   127af:	48 8d 35 84 27 00 00 	lea    0x2784(%rip),%rsi        # 14f3a <g_1647+0x1dfa>
   127b6:	48 89 cf             	mov    %rcx,%rdi
   127b9:	e8 35 6f ff ff       	callq  96f3 <transparent_crc>
   127be:	48 8b 05 5b b6 00 00 	mov    0xb65b(%rip),%rax        # 1de20 <g_2048>
   127c5:	8b 55 fc             	mov    -0x4(%rbp),%edx
   127c8:	48 8d 35 72 27 00 00 	lea    0x2772(%rip),%rsi        # 14f41 <g_1647+0x1e01>
   127cf:	48 89 c7             	mov    %rax,%rdi
   127d2:	e8 1c 6f ff ff       	callq  96f3 <transparent_crc>
   127d7:	0f b7 05 4a b6 00 00 	movzwl 0xb64a(%rip),%eax        # 1de28 <g_2048+0x8>
   127de:	0f b7 c0             	movzwl %ax,%eax
   127e1:	8b 55 fc             	mov    -0x4(%rbp),%edx
   127e4:	48 8d 35 60 27 00 00 	lea    0x2760(%rip),%rsi        # 14f4b <g_1647+0x1e0b>
   127eb:	48 89 c7             	mov    %rax,%rdi
   127ee:	e8 00 6f ff ff       	callq  96f3 <transparent_crc>
   127f3:	48 8b 05 2e b6 00 00 	mov    0xb62e(%rip),%rax        # 1de28 <g_2048+0x8>
   127fa:	48 c1 e0 1a          	shl    $0x1a,%rax
   127fe:	48 c1 f8 2a          	sar    $0x2a,%rax
   12802:	48 98                	cltq   
   12804:	8b 55 fc             	mov    -0x4(%rbp),%edx
   12807:	48 8d 35 47 27 00 00 	lea    0x2747(%rip),%rsi        # 14f55 <g_1647+0x1e15>
   1280e:	48 89 c7             	mov    %rax,%rdi
   12811:	e8 dd 6e ff ff       	callq  96f3 <transparent_crc>
   12816:	8b 05 11 b6 00 00    	mov    0xb611(%rip),%eax        # 1de2d <g_2048+0xd>
   1281c:	48 98                	cltq   
   1281e:	8b 55 fc             	mov    -0x4(%rbp),%edx
   12821:	48 8d 35 37 27 00 00 	lea    0x2737(%rip),%rsi        # 14f5f <g_1647+0x1e1f>
   12828:	48 89 c7             	mov    %rax,%rdi
   1282b:	e8 c3 6e ff ff       	callq  96f3 <transparent_crc>
   12830:	c7 45 f0 00 00 00 00 	movl   $0x0,-0x10(%rbp)
   12837:	e9 09 01 00 00       	jmpq   12945 <main+0x5d59>
   1283c:	8b 45 f0             	mov    -0x10(%rbp),%eax
   1283f:	48 63 d0             	movslq %eax,%rdx
   12842:	48 89 d0             	mov    %rdx,%rax
   12845:	48 c1 e0 04          	shl    $0x4,%rax
   12849:	48 01 c2             	add    %rax,%rdx
   1284c:	48 8d 05 ed b5 00 00 	lea    0xb5ed(%rip),%rax        # 1de40 <g_2093>
   12853:	48 8b 04 02          	mov    (%rdx,%rax,1),%rax
   12857:	8b 55 fc             	mov    -0x4(%rbp),%edx
   1285a:	48 8d 35 08 27 00 00 	lea    0x2708(%rip),%rsi        # 14f69 <g_1647+0x1e29>
   12861:	48 89 c7             	mov    %rax,%rdi
   12864:	e8 8a 6e ff ff       	callq  96f3 <transparent_crc>
   12869:	8b 45 f0             	mov    -0x10(%rbp),%eax
   1286c:	48 63 d0             	movslq %eax,%rdx
   1286f:	48 89 d0             	mov    %rdx,%rax
   12872:	48 c1 e0 04          	shl    $0x4,%rax
   12876:	48 01 c2             	add    %rax,%rdx
   12879:	48 8d 05 c8 b5 00 00 	lea    0xb5c8(%rip),%rax        # 1de48 <g_2093+0x8>
   12880:	0f b7 04 02          	movzwl (%rdx,%rax,1),%eax
   12884:	0f b7 c0             	movzwl %ax,%eax
   12887:	8b 55 fc             	mov    -0x4(%rbp),%edx
   1288a:	48 8d 35 e5 26 00 00 	lea    0x26e5(%rip),%rsi        # 14f76 <g_1647+0x1e36>
   12891:	48 89 c7             	mov    %rax,%rdi
   12894:	e8 5a 6e ff ff       	callq  96f3 <transparent_crc>
   12899:	8b 45 f0             	mov    -0x10(%rbp),%eax
   1289c:	48 63 d0             	movslq %eax,%rdx
   1289f:	48 89 d0             	mov    %rdx,%rax
   128a2:	48 c1 e0 04          	shl    $0x4,%rax
   128a6:	48 01 c2             	add    %rax,%rdx
   128a9:	48 8d 05 90 b5 00 00 	lea    0xb590(%rip),%rax        # 1de40 <g_2093>
   128b0:	0f b6 4c 02 0a       	movzbl 0xa(%rdx,%rax,1),%ecx
   128b5:	0f b6 c9             	movzbl %cl,%ecx
   128b8:	0f b6 74 02 0b       	movzbl 0xb(%rdx,%rax,1),%esi
   128bd:	40 0f b6 f6          	movzbl %sil,%esi
   128c1:	48 c1 e6 08          	shl    $0x8,%rsi
   128c5:	48 09 f1             	or     %rsi,%rcx
   128c8:	0f b6 44 02 0c       	movzbl 0xc(%rdx,%rax,1),%eax
   128cd:	0f b6 c0             	movzbl %al,%eax
   128d0:	83 e0 3f             	and    $0x3f,%eax
   128d3:	48 c1 e0 10          	shl    $0x10,%rax
   128d7:	48 09 c8             	or     %rcx,%rax
   128da:	48 c1 e0 2a          	shl    $0x2a,%rax
   128de:	48 c1 f8 2a          	sar    $0x2a,%rax
   128e2:	48 98                	cltq   
   128e4:	8b 55 fc             	mov    -0x4(%rbp),%edx
   128e7:	48 8d 35 95 26 00 00 	lea    0x2695(%rip),%rsi        # 14f83 <g_1647+0x1e43>
   128ee:	48 89 c7             	mov    %rax,%rdi
   128f1:	e8 fd 6d ff ff       	callq  96f3 <transparent_crc>
   128f6:	8b 45 f0             	mov    -0x10(%rbp),%eax
   128f9:	48 63 d0             	movslq %eax,%rdx
   128fc:	48 89 d0             	mov    %rdx,%rax
   128ff:	48 c1 e0 04          	shl    $0x4,%rax
   12903:	48 01 c2             	add    %rax,%rdx
   12906:	48 8d 05 33 b5 00 00 	lea    0xb533(%rip),%rax        # 1de40 <g_2093>
   1290d:	8b 44 02 0d          	mov    0xd(%rdx,%rax,1),%eax
   12911:	48 98                	cltq   
   12913:	8b 55 fc             	mov    -0x4(%rbp),%edx
   12916:	48 8d 35 73 26 00 00 	lea    0x2673(%rip),%rsi        # 14f90 <g_1647+0x1e50>
   1291d:	48 89 c7             	mov    %rax,%rdi
   12920:	e8 ce 6d ff ff       	callq  96f3 <transparent_crc>
   12925:	83 7d fc 00          	cmpl   $0x0,-0x4(%rbp)
   12929:	74 16                	je     12941 <main+0x5d55>
   1292b:	8b 45 f0             	mov    -0x10(%rbp),%eax
   1292e:	89 c6                	mov    %eax,%esi
   12930:	48 8d 3d 86 0d 00 00 	lea    0xd86(%rip),%rdi        # 136bd <g_1647+0x57d>
   12937:	b8 00 00 00 00       	mov    $0x0,%eax
   1293c:	e8 3f 57 ff ff       	callq  8080 <printf@plt>
   12941:	83 45 f0 01          	addl   $0x1,-0x10(%rbp)
   12945:	83 7d f0 01          	cmpl   $0x1,-0x10(%rbp)
   12949:	0f 8e ed fe ff ff    	jle    1283c <main+0x5c50>
   1294f:	8b 05 cb 56 00 00    	mov    0x56cb(%rip),%eax        # 18020 <crc32_context>
   12955:	f7 d0                	not    %eax
   12957:	89 c2                	mov    %eax,%edx
   12959:	8b 45 fc             	mov    -0x4(%rbp),%eax
   1295c:	89 c6                	mov    %eax,%esi
   1295e:	89 d7                	mov    %edx,%edi
   12960:	e8 2f 58 ff ff       	callq  8194 <platform_main_end>
   12965:	b8 00 00 00 00       	mov    $0x0,%eax
   1296a:	c9                   	leaveq 
   1296b:	c3                   	retq   
   1296c:	0f 1f 40 00          	nopl   0x0(%rax)

0000000000012970 <__libc_csu_init>:
   12970:	f3 0f 1e fa          	endbr64 
   12974:	41 57                	push   %r15
   12976:	4c 8d 3d 1b 54 00 00 	lea    0x541b(%rip),%r15        # 17d98 <__frame_dummy_init_array_entry>
   1297d:	41 56                	push   %r14
   1297f:	49 89 d6             	mov    %rdx,%r14
   12982:	41 55                	push   %r13
   12984:	49 89 f5             	mov    %rsi,%r13
   12987:	41 54                	push   %r12
   12989:	41 89 fc             	mov    %edi,%r12d
   1298c:	55                   	push   %rbp
   1298d:	48 8d 2d 0c 54 00 00 	lea    0x540c(%rip),%rbp        # 17da0 <__do_global_dtors_aux_fini_array_entry>
   12994:	53                   	push   %rbx
   12995:	4c 29 fd             	sub    %r15,%rbp
   12998:	48 83 ec 08          	sub    $0x8,%rsp
   1299c:	e8 5f 56 ff ff       	callq  8000 <_init>
   129a1:	48 c1 fd 03          	sar    $0x3,%rbp
   129a5:	74 1f                	je     129c6 <__libc_csu_init+0x56>
   129a7:	31 db                	xor    %ebx,%ebx
   129a9:	0f 1f 80 00 00 00 00 	nopl   0x0(%rax)
   129b0:	4c 89 f2             	mov    %r14,%rdx
   129b3:	4c 89 ee             	mov    %r13,%rsi
   129b6:	44 89 e7             	mov    %r12d,%edi
   129b9:	41 ff 14 df          	callq  *(%r15,%rbx,8)
   129bd:	48 83 c3 01          	add    $0x1,%rbx
   129c1:	48 39 dd             	cmp    %rbx,%rbp
   129c4:	75 ea                	jne    129b0 <__libc_csu_init+0x40>
   129c6:	48 83 c4 08          	add    $0x8,%rsp
   129ca:	5b                   	pop    %rbx
   129cb:	5d                   	pop    %rbp
   129cc:	41 5c                	pop    %r12
   129ce:	41 5d                	pop    %r13
   129d0:	41 5e                	pop    %r14
   129d2:	41 5f                	pop    %r15
   129d4:	c3                   	retq   
   129d5:	66 66 2e 0f 1f 84 00 	data16 nopw %cs:0x0(%rax,%rax,1)
   129dc:	00 00 00 00 

00000000000129e0 <__libc_csu_fini>:
   129e0:	f3 0f 1e fa          	endbr64 
   129e4:	c3                   	retq   
