


Disassembly of section .text:

00000000000070a0 <_start>:
    70a0:	f3 0f 1e fa          	endbr64 
    70a4:	31 ed                	xor    %ebp,%ebp
    70a6:	49 89 d1             	mov    %rdx,%r9
    70a9:	5e                   	pop    %rsi
    70aa:	48 89 e2             	mov    %rsp,%rdx
    70ad:	48 83 e4 f0          	and    $0xfffffffffffffff0,%rsp
    70b1:	50                   	push   %rax
    70b2:	54                   	push   %rsp
    70b3:	4c 8d 05 36 2d 01 00 	lea    0x12d36(%rip),%r8        # 19df0 <__libc_csu_fini>
    70ba:	48 8d 0d bf 2c 01 00 	lea    0x12cbf(%rip),%rcx        # 19d80 <__libc_csu_init>
    70c1:	48 8d 3d de fa 00 00 	lea    0xfade(%rip),%rdi        # 16ba6 <main>
    70c8:	ff 15 12 7f 01 00    	callq  *0x17f12(%rip)        # 1efe0 <__libc_start_main@GLIBC_2.2.5>
    70ce:	f4                   	hlt    
    70cf:	90                   	nop

00000000000070d0 <deregister_tm_clones>:
    70d0:	48 8d 3d f9 d2 01 00 	lea    0x1d2f9(%rip),%rdi        # 243d0 <__TMC_END__>
    70d7:	48 8d 05 f2 d2 01 00 	lea    0x1d2f2(%rip),%rax        # 243d0 <__TMC_END__>
    70de:	48 39 f8             	cmp    %rdi,%rax
    70e1:	74 15                	je     70f8 <deregister_tm_clones+0x28>
    70e3:	48 8b 05 ee 7e 01 00 	mov    0x17eee(%rip),%rax        # 1efd8 <_ITM_deregisterTMCloneTable>
    70ea:	48 85 c0             	test   %rax,%rax
    70ed:	74 09                	je     70f8 <deregister_tm_clones+0x28>
    70ef:	ff e0                	jmpq   *%rax
    70f1:	0f 1f 80 00 00 00 00 	nopl   0x0(%rax)
    70f8:	c3                   	retq   
    70f9:	0f 1f 80 00 00 00 00 	nopl   0x0(%rax)

0000000000007100 <register_tm_clones>:
    7100:	48 8d 3d c9 d2 01 00 	lea    0x1d2c9(%rip),%rdi        # 243d0 <__TMC_END__>
    7107:	48 8d 35 c2 d2 01 00 	lea    0x1d2c2(%rip),%rsi        # 243d0 <__TMC_END__>
    710e:	48 29 fe             	sub    %rdi,%rsi
    7111:	48 89 f0             	mov    %rsi,%rax
    7114:	48 c1 ee 3f          	shr    $0x3f,%rsi
    7118:	48 c1 f8 03          	sar    $0x3,%rax
    711c:	48 01 c6             	add    %rax,%rsi
    711f:	48 d1 fe             	sar    %rsi
    7122:	74 14                	je     7138 <register_tm_clones+0x38>
    7124:	48 8b 05 c5 7e 01 00 	mov    0x17ec5(%rip),%rax        # 1eff0 <_ITM_registerTMCloneTable>
    712b:	48 85 c0             	test   %rax,%rax
    712e:	74 08                	je     7138 <register_tm_clones+0x38>
    7130:	ff e0                	jmpq   *%rax
    7132:	66 0f 1f 44 00 00    	nopw   0x0(%rax,%rax,1)
    7138:	c3                   	retq   
    7139:	0f 1f 80 00 00 00 00 	nopl   0x0(%rax)

0000000000007140 <__do_global_dtors_aux>:
    7140:	f3 0f 1e fa          	endbr64 
    7144:	80 3d 95 d2 01 00 00 	cmpb   $0x0,0x1d295(%rip)        # 243e0 <completed.8061>
    714b:	75 2b                	jne    7178 <__do_global_dtors_aux+0x38>
    714d:	55                   	push   %rbp
    714e:	48 83 3d a2 7e 01 00 	cmpq   $0x0,0x17ea2(%rip)        # 1eff8 <__cxa_finalize@GLIBC_2.2.5>
    7155:	00 
    7156:	48 89 e5             	mov    %rsp,%rbp
    7159:	74 0c                	je     7167 <__do_global_dtors_aux+0x27>
    715b:	48 8b 3d a6 7e 01 00 	mov    0x17ea6(%rip),%rdi        # 1f008 <__dso_handle>
    7162:	e8 f9 fe ff ff       	callq  7060 <__cxa_finalize@plt>
    7167:	e8 64 ff ff ff       	callq  70d0 <deregister_tm_clones>
    716c:	c6 05 6d d2 01 00 01 	movb   $0x1,0x1d26d(%rip)        # 243e0 <completed.8061>
    7173:	5d                   	pop    %rbp
    7174:	c3                   	retq   
    7175:	0f 1f 00             	nopl   (%rax)
    7178:	c3                   	retq   
    7179:	0f 1f 80 00 00 00 00 	nopl   0x0(%rax)

0000000000007180 <frame_dummy>:
    7180:	f3 0f 1e fa          	endbr64 
    7184:	e9 77 ff ff ff       	jmpq   7100 <register_tm_clones>

0000000000007189 <platform_main_begin>:
    7189:	f3 0f 1e fa          	endbr64 
    718d:	55                   	push   %rbp
    718e:	48 89 e5             	mov    %rsp,%rbp
    7191:	90                   	nop
    7192:	5d                   	pop    %rbp
    7193:	c3                   	retq   

0000000000007194 <platform_main_end>:
    7194:	f3 0f 1e fa          	endbr64 
    7198:	55                   	push   %rbp
    7199:	48 89 e5             	mov    %rsp,%rbp
    719c:	48 83 ec 10          	sub    $0x10,%rsp
    71a0:	89 7d fc             	mov    %edi,-0x4(%rbp)
    71a3:	89 75 f8             	mov    %esi,-0x8(%rbp)
    71a6:	8b 45 fc             	mov    -0x4(%rbp),%eax
    71a9:	89 c6                	mov    %eax,%esi
    71ab:	48 8d 3d 6e 2e 01 00 	lea    0x12e6e(%rip),%rdi        # 1a020 <_IO_stdin_used+0x20>
    71b2:	b8 00 00 00 00       	mov    $0x0,%eax
    71b7:	e8 c4 fe ff ff       	callq  7080 <printf@plt>
    71bc:	90                   	nop
    71bd:	c9                   	leaveq 
    71be:	c3                   	retq   

00000000000071bf <safe_unary_minus_func_int8_t_s>:
    71bf:	f3 0f 1e fa          	endbr64 
    71c3:	55                   	push   %rbp
    71c4:	48 89 e5             	mov    %rsp,%rbp
    71c7:	89 f8                	mov    %edi,%eax
    71c9:	88 45 fc             	mov    %al,-0x4(%rbp)
    71cc:	0f b6 45 fc          	movzbl -0x4(%rbp),%eax
    71d0:	f7 d8                	neg    %eax
    71d2:	5d                   	pop    %rbp
    71d3:	c3                   	retq   

00000000000071d4 <safe_add_func_int8_t_s_s>:
    71d4:	f3 0f 1e fa          	endbr64 
    71d8:	55                   	push   %rbp
    71d9:	48 89 e5             	mov    %rsp,%rbp
    71dc:	89 fa                	mov    %edi,%edx
    71de:	89 f0                	mov    %esi,%eax
    71e0:	88 55 fc             	mov    %dl,-0x4(%rbp)
    71e3:	88 45 f8             	mov    %al,-0x8(%rbp)
    71e6:	0f b6 55 fc          	movzbl -0x4(%rbp),%edx
    71ea:	0f b6 45 f8          	movzbl -0x8(%rbp),%eax
    71ee:	01 d0                	add    %edx,%eax
    71f0:	5d                   	pop    %rbp
    71f1:	c3                   	retq   

00000000000071f2 <safe_sub_func_int8_t_s_s>:
    71f2:	f3 0f 1e fa          	endbr64 
    71f6:	55                   	push   %rbp
    71f7:	48 89 e5             	mov    %rsp,%rbp
    71fa:	89 fa                	mov    %edi,%edx
    71fc:	89 f0                	mov    %esi,%eax
    71fe:	88 55 fc             	mov    %dl,-0x4(%rbp)
    7201:	88 45 f8             	mov    %al,-0x8(%rbp)
    7204:	0f b6 55 fc          	movzbl -0x4(%rbp),%edx
    7208:	0f b6 45 f8          	movzbl -0x8(%rbp),%eax
    720c:	29 c2                	sub    %eax,%edx
    720e:	89 d0                	mov    %edx,%eax
    7210:	5d                   	pop    %rbp
    7211:	c3                   	retq   

0000000000007212 <safe_mul_func_int8_t_s_s>:
    7212:	f3 0f 1e fa          	endbr64 
    7216:	55                   	push   %rbp
    7217:	48 89 e5             	mov    %rsp,%rbp
    721a:	89 fa                	mov    %edi,%edx
    721c:	89 f0                	mov    %esi,%eax
    721e:	88 55 fc             	mov    %dl,-0x4(%rbp)
    7221:	88 45 f8             	mov    %al,-0x8(%rbp)
    7224:	0f b6 45 fc          	movzbl -0x4(%rbp),%eax
    7228:	0f b6 55 f8          	movzbl -0x8(%rbp),%edx
    722c:	0f af c2             	imul   %edx,%eax
    722f:	5d                   	pop    %rbp
    7230:	c3                   	retq   

0000000000007231 <safe_mod_func_int8_t_s_s>:
    7231:	f3 0f 1e fa          	endbr64 
    7235:	55                   	push   %rbp
    7236:	48 89 e5             	mov    %rsp,%rbp
    7239:	89 fa                	mov    %edi,%edx
    723b:	89 f0                	mov    %esi,%eax
    723d:	88 55 fc             	mov    %dl,-0x4(%rbp)
    7240:	88 45 f8             	mov    %al,-0x8(%rbp)
    7243:	80 7d f8 00          	cmpb   $0x0,-0x8(%rbp)
    7247:	74 1b                	je     7264 <safe_mod_func_int8_t_s_s+0x33>
    7249:	80 7d fc 80          	cmpb   $0x80,-0x4(%rbp)
    724d:	75 06                	jne    7255 <safe_mod_func_int8_t_s_s+0x24>
    724f:	80 7d f8 ff          	cmpb   $0xff,-0x8(%rbp)
    7253:	74 0f                	je     7264 <safe_mod_func_int8_t_s_s+0x33>
    7255:	0f be 45 fc          	movsbl -0x4(%rbp),%eax
    7259:	0f be 4d f8          	movsbl -0x8(%rbp),%ecx
    725d:	99                   	cltd   
    725e:	f7 f9                	idiv   %ecx
    7260:	89 d0                	mov    %edx,%eax
    7262:	eb 04                	jmp    7268 <safe_mod_func_int8_t_s_s+0x37>
    7264:	0f b6 45 fc          	movzbl -0x4(%rbp),%eax
    7268:	5d                   	pop    %rbp
    7269:	c3                   	retq   

000000000000726a <safe_div_func_int8_t_s_s>:
    726a:	f3 0f 1e fa          	endbr64 
    726e:	55                   	push   %rbp
    726f:	48 89 e5             	mov    %rsp,%rbp
    7272:	89 fa                	mov    %edi,%edx
    7274:	89 f0                	mov    %esi,%eax
    7276:	88 55 fc             	mov    %dl,-0x4(%rbp)
    7279:	88 45 f8             	mov    %al,-0x8(%rbp)
    727c:	80 7d f8 00          	cmpb   $0x0,-0x8(%rbp)
    7280:	74 19                	je     729b <safe_div_func_int8_t_s_s+0x31>
    7282:	80 7d fc 80          	cmpb   $0x80,-0x4(%rbp)
    7286:	75 06                	jne    728e <safe_div_func_int8_t_s_s+0x24>
    7288:	80 7d f8 ff          	cmpb   $0xff,-0x8(%rbp)
    728c:	74 0d                	je     729b <safe_div_func_int8_t_s_s+0x31>
    728e:	0f be 45 fc          	movsbl -0x4(%rbp),%eax
    7292:	0f be 4d f8          	movsbl -0x8(%rbp),%ecx
    7296:	99                   	cltd   
    7297:	f7 f9                	idiv   %ecx
    7299:	eb 04                	jmp    729f <safe_div_func_int8_t_s_s+0x35>
    729b:	0f b6 45 fc          	movzbl -0x4(%rbp),%eax
    729f:	5d                   	pop    %rbp
    72a0:	c3                   	retq   

00000000000072a1 <safe_lshift_func_int8_t_s_s>:
    72a1:	f3 0f 1e fa          	endbr64 
    72a5:	55                   	push   %rbp
    72a6:	48 89 e5             	mov    %rsp,%rbp
    72a9:	89 f8                	mov    %edi,%eax
    72ab:	89 75 f8             	mov    %esi,-0x8(%rbp)
    72ae:	88 45 fc             	mov    %al,-0x4(%rbp)
    72b1:	80 7d fc 00          	cmpb   $0x0,-0x4(%rbp)
    72b5:	78 31                	js     72e8 <safe_lshift_func_int8_t_s_s+0x47>
    72b7:	83 7d f8 00          	cmpl   $0x0,-0x8(%rbp)
    72bb:	78 2b                	js     72e8 <safe_lshift_func_int8_t_s_s+0x47>
    72bd:	83 7d f8 1f          	cmpl   $0x1f,-0x8(%rbp)
    72c1:	7f 25                	jg     72e8 <safe_lshift_func_int8_t_s_s+0x47>
    72c3:	0f be 55 fc          	movsbl -0x4(%rbp),%edx
    72c7:	8b 45 f8             	mov    -0x8(%rbp),%eax
    72ca:	be 7f 00 00 00       	mov    $0x7f,%esi
    72cf:	89 c1                	mov    %eax,%ecx
    72d1:	d3 fe                	sar    %cl,%esi
    72d3:	89 f0                	mov    %esi,%eax
    72d5:	39 c2                	cmp    %eax,%edx
    72d7:	7f 0f                	jg     72e8 <safe_lshift_func_int8_t_s_s+0x47>
    72d9:	0f be 55 fc          	movsbl -0x4(%rbp),%edx
    72dd:	8b 45 f8             	mov    -0x8(%rbp),%eax
    72e0:	89 c1                	mov    %eax,%ecx
    72e2:	d3 e2                	shl    %cl,%edx
    72e4:	89 d0                	mov    %edx,%eax
    72e6:	eb 04                	jmp    72ec <safe_lshift_func_int8_t_s_s+0x4b>
    72e8:	0f b6 45 fc          	movzbl -0x4(%rbp),%eax
    72ec:	5d                   	pop    %rbp
    72ed:	c3                   	retq   

00000000000072ee <safe_lshift_func_int8_t_s_u>:
    72ee:	f3 0f 1e fa          	endbr64 
    72f2:	55                   	push   %rbp
    72f3:	48 89 e5             	mov    %rsp,%rbp
    72f6:	89 f8                	mov    %edi,%eax
    72f8:	89 75 f8             	mov    %esi,-0x8(%rbp)
    72fb:	88 45 fc             	mov    %al,-0x4(%rbp)
    72fe:	80 7d fc 00          	cmpb   $0x0,-0x4(%rbp)
    7302:	78 2b                	js     732f <safe_lshift_func_int8_t_s_u+0x41>
    7304:	83 7d f8 1f          	cmpl   $0x1f,-0x8(%rbp)
    7308:	77 25                	ja     732f <safe_lshift_func_int8_t_s_u+0x41>
    730a:	0f be 55 fc          	movsbl -0x4(%rbp),%edx
    730e:	8b 45 f8             	mov    -0x8(%rbp),%eax
    7311:	be 7f 00 00 00       	mov    $0x7f,%esi
    7316:	89 c1                	mov    %eax,%ecx
    7318:	d3 fe                	sar    %cl,%esi
    731a:	89 f0                	mov    %esi,%eax
    731c:	39 c2                	cmp    %eax,%edx
    731e:	7f 0f                	jg     732f <safe_lshift_func_int8_t_s_u+0x41>
    7320:	0f be 55 fc          	movsbl -0x4(%rbp),%edx
    7324:	8b 45 f8             	mov    -0x8(%rbp),%eax
    7327:	89 c1                	mov    %eax,%ecx
    7329:	d3 e2                	shl    %cl,%edx
    732b:	89 d0                	mov    %edx,%eax
    732d:	eb 04                	jmp    7333 <safe_lshift_func_int8_t_s_u+0x45>
    732f:	0f b6 45 fc          	movzbl -0x4(%rbp),%eax
    7333:	5d                   	pop    %rbp
    7334:	c3                   	retq   

0000000000007335 <safe_rshift_func_int8_t_s_s>:
    7335:	f3 0f 1e fa          	endbr64 
    7339:	55                   	push   %rbp
    733a:	48 89 e5             	mov    %rsp,%rbp
    733d:	89 f8                	mov    %edi,%eax
    733f:	89 75 f8             	mov    %esi,-0x8(%rbp)
    7342:	88 45 fc             	mov    %al,-0x4(%rbp)
    7345:	80 7d fc 00          	cmpb   $0x0,-0x4(%rbp)
    7349:	78 1b                	js     7366 <safe_rshift_func_int8_t_s_s+0x31>
    734b:	83 7d f8 00          	cmpl   $0x0,-0x8(%rbp)
    734f:	78 15                	js     7366 <safe_rshift_func_int8_t_s_s+0x31>
    7351:	83 7d f8 1f          	cmpl   $0x1f,-0x8(%rbp)
    7355:	7f 0f                	jg     7366 <safe_rshift_func_int8_t_s_s+0x31>
    7357:	0f be 55 fc          	movsbl -0x4(%rbp),%edx
    735b:	8b 45 f8             	mov    -0x8(%rbp),%eax
    735e:	89 c1                	mov    %eax,%ecx
    7360:	d3 fa                	sar    %cl,%edx
    7362:	89 d0                	mov    %edx,%eax
    7364:	eb 04                	jmp    736a <safe_rshift_func_int8_t_s_s+0x35>
    7366:	0f b6 45 fc          	movzbl -0x4(%rbp),%eax
    736a:	5d                   	pop    %rbp
    736b:	c3                   	retq   

000000000000736c <safe_rshift_func_int8_t_s_u>:
    736c:	f3 0f 1e fa          	endbr64 
    7370:	55                   	push   %rbp
    7371:	48 89 e5             	mov    %rsp,%rbp
    7374:	89 f8                	mov    %edi,%eax
    7376:	89 75 f8             	mov    %esi,-0x8(%rbp)
    7379:	88 45 fc             	mov    %al,-0x4(%rbp)
    737c:	80 7d fc 00          	cmpb   $0x0,-0x4(%rbp)
    7380:	78 15                	js     7397 <safe_rshift_func_int8_t_s_u+0x2b>
    7382:	83 7d f8 1f          	cmpl   $0x1f,-0x8(%rbp)
    7386:	77 0f                	ja     7397 <safe_rshift_func_int8_t_s_u+0x2b>
    7388:	0f be 55 fc          	movsbl -0x4(%rbp),%edx
    738c:	8b 45 f8             	mov    -0x8(%rbp),%eax
    738f:	89 c1                	mov    %eax,%ecx
    7391:	d3 fa                	sar    %cl,%edx
    7393:	89 d0                	mov    %edx,%eax
    7395:	eb 04                	jmp    739b <safe_rshift_func_int8_t_s_u+0x2f>
    7397:	0f b6 45 fc          	movzbl -0x4(%rbp),%eax
    739b:	5d                   	pop    %rbp
    739c:	c3                   	retq   

000000000000739d <safe_unary_minus_func_int16_t_s>:
    739d:	f3 0f 1e fa          	endbr64 
    73a1:	55                   	push   %rbp
    73a2:	48 89 e5             	mov    %rsp,%rbp
    73a5:	89 f8                	mov    %edi,%eax
    73a7:	66 89 45 fc          	mov    %ax,-0x4(%rbp)
    73ab:	0f b7 45 fc          	movzwl -0x4(%rbp),%eax
    73af:	f7 d8                	neg    %eax
    73b1:	5d                   	pop    %rbp
    73b2:	c3                   	retq   

00000000000073b3 <safe_add_func_int16_t_s_s>:
    73b3:	f3 0f 1e fa          	endbr64 
    73b7:	55                   	push   %rbp
    73b8:	48 89 e5             	mov    %rsp,%rbp
    73bb:	89 fa                	mov    %edi,%edx
    73bd:	89 f0                	mov    %esi,%eax
    73bf:	66 89 55 fc          	mov    %dx,-0x4(%rbp)
    73c3:	66 89 45 f8          	mov    %ax,-0x8(%rbp)
    73c7:	0f b7 55 fc          	movzwl -0x4(%rbp),%edx
    73cb:	0f b7 45 f8          	movzwl -0x8(%rbp),%eax
    73cf:	01 d0                	add    %edx,%eax
    73d1:	5d                   	pop    %rbp
    73d2:	c3                   	retq   

00000000000073d3 <safe_sub_func_int16_t_s_s>:
    73d3:	f3 0f 1e fa          	endbr64 
    73d7:	55                   	push   %rbp
    73d8:	48 89 e5             	mov    %rsp,%rbp
    73db:	89 fa                	mov    %edi,%edx
    73dd:	89 f0                	mov    %esi,%eax
    73df:	66 89 55 fc          	mov    %dx,-0x4(%rbp)
    73e3:	66 89 45 f8          	mov    %ax,-0x8(%rbp)
    73e7:	0f b7 55 fc          	movzwl -0x4(%rbp),%edx
    73eb:	0f b7 45 f8          	movzwl -0x8(%rbp),%eax
    73ef:	29 c2                	sub    %eax,%edx
    73f1:	89 d0                	mov    %edx,%eax
    73f3:	5d                   	pop    %rbp
    73f4:	c3                   	retq   

00000000000073f5 <safe_mul_func_int16_t_s_s>:
    73f5:	f3 0f 1e fa          	endbr64 
    73f9:	55                   	push   %rbp
    73fa:	48 89 e5             	mov    %rsp,%rbp
    73fd:	89 fa                	mov    %edi,%edx
    73ff:	89 f0                	mov    %esi,%eax
    7401:	66 89 55 fc          	mov    %dx,-0x4(%rbp)
    7405:	66 89 45 f8          	mov    %ax,-0x8(%rbp)
    7409:	0f b7 55 fc          	movzwl -0x4(%rbp),%edx
    740d:	0f b7 45 f8          	movzwl -0x8(%rbp),%eax
    7411:	0f af c2             	imul   %edx,%eax
    7414:	5d                   	pop    %rbp
    7415:	c3                   	retq   

0000000000007416 <safe_mod_func_int16_t_s_s>:
    7416:	f3 0f 1e fa          	endbr64 
    741a:	55                   	push   %rbp
    741b:	48 89 e5             	mov    %rsp,%rbp
    741e:	89 fa                	mov    %edi,%edx
    7420:	89 f0                	mov    %esi,%eax
    7422:	66 89 55 fc          	mov    %dx,-0x4(%rbp)
    7426:	66 89 45 f8          	mov    %ax,-0x8(%rbp)
    742a:	66 83 7d f8 00       	cmpw   $0x0,-0x8(%rbp)
    742f:	74 1e                	je     744f <safe_mod_func_int16_t_s_s+0x39>
    7431:	66 81 7d fc 00 80    	cmpw   $0x8000,-0x4(%rbp)
    7437:	75 07                	jne    7440 <safe_mod_func_int16_t_s_s+0x2a>
    7439:	66 83 7d f8 ff       	cmpw   $0xffff,-0x8(%rbp)
    743e:	74 0f                	je     744f <safe_mod_func_int16_t_s_s+0x39>
    7440:	0f bf 45 fc          	movswl -0x4(%rbp),%eax
    7444:	0f bf 4d f8          	movswl -0x8(%rbp),%ecx
    7448:	99                   	cltd   
    7449:	f7 f9                	idiv   %ecx
    744b:	89 d0                	mov    %edx,%eax
    744d:	eb 04                	jmp    7453 <safe_mod_func_int16_t_s_s+0x3d>
    744f:	0f b7 45 fc          	movzwl -0x4(%rbp),%eax
    7453:	5d                   	pop    %rbp
    7454:	c3                   	retq   

0000000000007455 <safe_div_func_int16_t_s_s>:
    7455:	f3 0f 1e fa          	endbr64 
    7459:	55                   	push   %rbp
    745a:	48 89 e5             	mov    %rsp,%rbp
    745d:	89 fa                	mov    %edi,%edx
    745f:	89 f0                	mov    %esi,%eax
    7461:	66 89 55 fc          	mov    %dx,-0x4(%rbp)
    7465:	66 89 45 f8          	mov    %ax,-0x8(%rbp)
    7469:	66 83 7d f8 00       	cmpw   $0x0,-0x8(%rbp)
    746e:	74 1c                	je     748c <safe_div_func_int16_t_s_s+0x37>
    7470:	66 81 7d fc 00 80    	cmpw   $0x8000,-0x4(%rbp)
    7476:	75 07                	jne    747f <safe_div_func_int16_t_s_s+0x2a>
    7478:	66 83 7d f8 ff       	cmpw   $0xffff,-0x8(%rbp)
    747d:	74 0d                	je     748c <safe_div_func_int16_t_s_s+0x37>
    747f:	0f bf 45 fc          	movswl -0x4(%rbp),%eax
    7483:	0f bf 4d f8          	movswl -0x8(%rbp),%ecx
    7487:	99                   	cltd   
    7488:	f7 f9                	idiv   %ecx
    748a:	eb 04                	jmp    7490 <safe_div_func_int16_t_s_s+0x3b>
    748c:	0f b7 45 fc          	movzwl -0x4(%rbp),%eax
    7490:	5d                   	pop    %rbp
    7491:	c3                   	retq   

0000000000007492 <safe_lshift_func_int16_t_s_s>:
    7492:	f3 0f 1e fa          	endbr64 
    7496:	55                   	push   %rbp
    7497:	48 89 e5             	mov    %rsp,%rbp
    749a:	89 f8                	mov    %edi,%eax
    749c:	89 75 f8             	mov    %esi,-0x8(%rbp)
    749f:	66 89 45 fc          	mov    %ax,-0x4(%rbp)
    74a3:	66 83 7d fc 00       	cmpw   $0x0,-0x4(%rbp)
    74a8:	78 31                	js     74db <safe_lshift_func_int16_t_s_s+0x49>
    74aa:	83 7d f8 00          	cmpl   $0x0,-0x8(%rbp)
    74ae:	78 2b                	js     74db <safe_lshift_func_int16_t_s_s+0x49>
    74b0:	83 7d f8 1f          	cmpl   $0x1f,-0x8(%rbp)
    74b4:	7f 25                	jg     74db <safe_lshift_func_int16_t_s_s+0x49>
    74b6:	0f bf 55 fc          	movswl -0x4(%rbp),%edx
    74ba:	8b 45 f8             	mov    -0x8(%rbp),%eax
    74bd:	be ff 7f 00 00       	mov    $0x7fff,%esi
    74c2:	89 c1                	mov    %eax,%ecx
    74c4:	d3 fe                	sar    %cl,%esi
    74c6:	89 f0                	mov    %esi,%eax
    74c8:	39 c2                	cmp    %eax,%edx
    74ca:	7f 0f                	jg     74db <safe_lshift_func_int16_t_s_s+0x49>
    74cc:	0f bf 55 fc          	movswl -0x4(%rbp),%edx
    74d0:	8b 45 f8             	mov    -0x8(%rbp),%eax
    74d3:	89 c1                	mov    %eax,%ecx
    74d5:	d3 e2                	shl    %cl,%edx
    74d7:	89 d0                	mov    %edx,%eax
    74d9:	eb 04                	jmp    74df <safe_lshift_func_int16_t_s_s+0x4d>
    74db:	0f b7 45 fc          	movzwl -0x4(%rbp),%eax
    74df:	5d                   	pop    %rbp
    74e0:	c3                   	retq   

00000000000074e1 <safe_lshift_func_int16_t_s_u>:
    74e1:	f3 0f 1e fa          	endbr64 
    74e5:	55                   	push   %rbp
    74e6:	48 89 e5             	mov    %rsp,%rbp
    74e9:	89 f8                	mov    %edi,%eax
    74eb:	89 75 f8             	mov    %esi,-0x8(%rbp)
    74ee:	66 89 45 fc          	mov    %ax,-0x4(%rbp)
    74f2:	66 83 7d fc 00       	cmpw   $0x0,-0x4(%rbp)
    74f7:	78 2b                	js     7524 <safe_lshift_func_int16_t_s_u+0x43>
    74f9:	83 7d f8 1f          	cmpl   $0x1f,-0x8(%rbp)
    74fd:	77 25                	ja     7524 <safe_lshift_func_int16_t_s_u+0x43>
    74ff:	0f bf 55 fc          	movswl -0x4(%rbp),%edx
    7503:	8b 45 f8             	mov    -0x8(%rbp),%eax
    7506:	be ff 7f 00 00       	mov    $0x7fff,%esi
    750b:	89 c1                	mov    %eax,%ecx
    750d:	d3 fe                	sar    %cl,%esi
    750f:	89 f0                	mov    %esi,%eax
    7511:	39 c2                	cmp    %eax,%edx
    7513:	7f 0f                	jg     7524 <safe_lshift_func_int16_t_s_u+0x43>
    7515:	0f bf 55 fc          	movswl -0x4(%rbp),%edx
    7519:	8b 45 f8             	mov    -0x8(%rbp),%eax
    751c:	89 c1                	mov    %eax,%ecx
    751e:	d3 e2                	shl    %cl,%edx
    7520:	89 d0                	mov    %edx,%eax
    7522:	eb 04                	jmp    7528 <safe_lshift_func_int16_t_s_u+0x47>
    7524:	0f b7 45 fc          	movzwl -0x4(%rbp),%eax
    7528:	5d                   	pop    %rbp
    7529:	c3                   	retq   

000000000000752a <safe_rshift_func_int16_t_s_s>:
    752a:	f3 0f 1e fa          	endbr64 
    752e:	55                   	push   %rbp
    752f:	48 89 e5             	mov    %rsp,%rbp
    7532:	89 f8                	mov    %edi,%eax
    7534:	89 75 f8             	mov    %esi,-0x8(%rbp)
    7537:	66 89 45 fc          	mov    %ax,-0x4(%rbp)
    753b:	66 83 7d fc 00       	cmpw   $0x0,-0x4(%rbp)
    7540:	78 1b                	js     755d <safe_rshift_func_int16_t_s_s+0x33>
    7542:	83 7d f8 00          	cmpl   $0x0,-0x8(%rbp)
    7546:	78 15                	js     755d <safe_rshift_func_int16_t_s_s+0x33>
    7548:	83 7d f8 1f          	cmpl   $0x1f,-0x8(%rbp)
    754c:	7f 0f                	jg     755d <safe_rshift_func_int16_t_s_s+0x33>
    754e:	0f bf 55 fc          	movswl -0x4(%rbp),%edx
    7552:	8b 45 f8             	mov    -0x8(%rbp),%eax
    7555:	89 c1                	mov    %eax,%ecx
    7557:	d3 fa                	sar    %cl,%edx
    7559:	89 d0                	mov    %edx,%eax
    755b:	eb 04                	jmp    7561 <safe_rshift_func_int16_t_s_s+0x37>
    755d:	0f b7 45 fc          	movzwl -0x4(%rbp),%eax
    7561:	5d                   	pop    %rbp
    7562:	c3                   	retq   

0000000000007563 <safe_rshift_func_int16_t_s_u>:
    7563:	f3 0f 1e fa          	endbr64 
    7567:	55                   	push   %rbp
    7568:	48 89 e5             	mov    %rsp,%rbp
    756b:	89 f8                	mov    %edi,%eax
    756d:	89 75 f8             	mov    %esi,-0x8(%rbp)
    7570:	66 89 45 fc          	mov    %ax,-0x4(%rbp)
    7574:	66 83 7d fc 00       	cmpw   $0x0,-0x4(%rbp)
    7579:	78 15                	js     7590 <safe_rshift_func_int16_t_s_u+0x2d>
    757b:	83 7d f8 1f          	cmpl   $0x1f,-0x8(%rbp)
    757f:	77 0f                	ja     7590 <safe_rshift_func_int16_t_s_u+0x2d>
    7581:	0f bf 55 fc          	movswl -0x4(%rbp),%edx
    7585:	8b 45 f8             	mov    -0x8(%rbp),%eax
    7588:	89 c1                	mov    %eax,%ecx
    758a:	d3 fa                	sar    %cl,%edx
    758c:	89 d0                	mov    %edx,%eax
    758e:	eb 04                	jmp    7594 <safe_rshift_func_int16_t_s_u+0x31>
    7590:	0f b7 45 fc          	movzwl -0x4(%rbp),%eax
    7594:	5d                   	pop    %rbp
    7595:	c3                   	retq   

0000000000007596 <safe_unary_minus_func_int32_t_s>:
    7596:	f3 0f 1e fa          	endbr64 
    759a:	55                   	push   %rbp
    759b:	48 89 e5             	mov    %rsp,%rbp
    759e:	89 7d fc             	mov    %edi,-0x4(%rbp)
    75a1:	81 7d fc 00 00 00 80 	cmpl   $0x80000000,-0x4(%rbp)
    75a8:	74 07                	je     75b1 <safe_unary_minus_func_int32_t_s+0x1b>
    75aa:	8b 45 fc             	mov    -0x4(%rbp),%eax
    75ad:	f7 d8                	neg    %eax
    75af:	eb 03                	jmp    75b4 <safe_unary_minus_func_int32_t_s+0x1e>
    75b1:	8b 45 fc             	mov    -0x4(%rbp),%eax
    75b4:	5d                   	pop    %rbp
    75b5:	c3                   	retq   

00000000000075b6 <safe_add_func_int32_t_s_s>:
    75b6:	f3 0f 1e fa          	endbr64 
    75ba:	55                   	push   %rbp
    75bb:	48 89 e5             	mov    %rsp,%rbp
    75be:	89 7d fc             	mov    %edi,-0x4(%rbp)
    75c1:	89 75 f8             	mov    %esi,-0x8(%rbp)
    75c4:	83 7d fc 00          	cmpl   $0x0,-0x4(%rbp)
    75c8:	7e 13                	jle    75dd <safe_add_func_int32_t_s_s+0x27>
    75ca:	83 7d f8 00          	cmpl   $0x0,-0x8(%rbp)
    75ce:	7e 0d                	jle    75dd <safe_add_func_int32_t_s_s+0x27>
    75d0:	b8 ff ff ff 7f       	mov    $0x7fffffff,%eax
    75d5:	2b 45 f8             	sub    -0x8(%rbp),%eax
    75d8:	39 45 fc             	cmp    %eax,-0x4(%rbp)
    75db:	7f 23                	jg     7600 <safe_add_func_int32_t_s_s+0x4a>
    75dd:	83 7d fc 00          	cmpl   $0x0,-0x4(%rbp)
    75e1:	79 13                	jns    75f6 <safe_add_func_int32_t_s_s+0x40>
    75e3:	83 7d f8 00          	cmpl   $0x0,-0x8(%rbp)
    75e7:	79 0d                	jns    75f6 <safe_add_func_int32_t_s_s+0x40>
    75e9:	b8 00 00 00 80       	mov    $0x80000000,%eax
    75ee:	2b 45 f8             	sub    -0x8(%rbp),%eax
    75f1:	39 45 fc             	cmp    %eax,-0x4(%rbp)
    75f4:	7c 0a                	jl     7600 <safe_add_func_int32_t_s_s+0x4a>
    75f6:	8b 55 fc             	mov    -0x4(%rbp),%edx
    75f9:	8b 45 f8             	mov    -0x8(%rbp),%eax
    75fc:	01 d0                	add    %edx,%eax
    75fe:	eb 03                	jmp    7603 <safe_add_func_int32_t_s_s+0x4d>
    7600:	8b 45 fc             	mov    -0x4(%rbp),%eax
    7603:	5d                   	pop    %rbp
    7604:	c3                   	retq   

0000000000007605 <safe_sub_func_int32_t_s_s>:
    7605:	f3 0f 1e fa          	endbr64 
    7609:	55                   	push   %rbp
    760a:	48 89 e5             	mov    %rsp,%rbp
    760d:	89 7d fc             	mov    %edi,-0x4(%rbp)
    7610:	89 75 f8             	mov    %esi,-0x8(%rbp)
    7613:	8b 45 fc             	mov    -0x4(%rbp),%eax
    7616:	33 45 f8             	xor    -0x8(%rbp),%eax
    7619:	89 c2                	mov    %eax,%edx
    761b:	8b 45 fc             	mov    -0x4(%rbp),%eax
    761e:	33 45 f8             	xor    -0x8(%rbp),%eax
    7621:	25 00 00 00 80       	and    $0x80000000,%eax
    7626:	33 45 fc             	xor    -0x4(%rbp),%eax
    7629:	2b 45 f8             	sub    -0x8(%rbp),%eax
    762c:	33 45 f8             	xor    -0x8(%rbp),%eax
    762f:	21 d0                	and    %edx,%eax
    7631:	85 c0                	test   %eax,%eax
    7633:	78 08                	js     763d <safe_sub_func_int32_t_s_s+0x38>
    7635:	8b 45 fc             	mov    -0x4(%rbp),%eax
    7638:	2b 45 f8             	sub    -0x8(%rbp),%eax
    763b:	eb 03                	jmp    7640 <safe_sub_func_int32_t_s_s+0x3b>
    763d:	8b 45 fc             	mov    -0x4(%rbp),%eax
    7640:	5d                   	pop    %rbp
    7641:	c3                   	retq   

0000000000007642 <safe_mul_func_int32_t_s_s>:
    7642:	f3 0f 1e fa          	endbr64 
    7646:	55                   	push   %rbp
    7647:	48 89 e5             	mov    %rsp,%rbp
    764a:	89 7d fc             	mov    %edi,-0x4(%rbp)
    764d:	89 75 f8             	mov    %esi,-0x8(%rbp)
    7650:	83 7d fc 00          	cmpl   $0x0,-0x4(%rbp)
    7654:	7e 14                	jle    766a <safe_mul_func_int32_t_s_s+0x28>
    7656:	83 7d f8 00          	cmpl   $0x0,-0x8(%rbp)
    765a:	7e 0e                	jle    766a <safe_mul_func_int32_t_s_s+0x28>
    765c:	b8 ff ff ff 7f       	mov    $0x7fffffff,%eax
    7661:	99                   	cltd   
    7662:	f7 7d f8             	idivl  -0x8(%rbp)
    7665:	39 45 fc             	cmp    %eax,-0x4(%rbp)
    7668:	7f 5d                	jg     76c7 <safe_mul_func_int32_t_s_s+0x85>
    766a:	83 7d fc 00          	cmpl   $0x0,-0x4(%rbp)
    766e:	7e 14                	jle    7684 <safe_mul_func_int32_t_s_s+0x42>
    7670:	83 7d f8 00          	cmpl   $0x0,-0x8(%rbp)
    7674:	7f 0e                	jg     7684 <safe_mul_func_int32_t_s_s+0x42>
    7676:	b8 00 00 00 80       	mov    $0x80000000,%eax
    767b:	99                   	cltd   
    767c:	f7 7d fc             	idivl  -0x4(%rbp)
    767f:	39 45 f8             	cmp    %eax,-0x8(%rbp)
    7682:	7c 43                	jl     76c7 <safe_mul_func_int32_t_s_s+0x85>
    7684:	83 7d fc 00          	cmpl   $0x0,-0x4(%rbp)
    7688:	7f 14                	jg     769e <safe_mul_func_int32_t_s_s+0x5c>
    768a:	83 7d f8 00          	cmpl   $0x0,-0x8(%rbp)
    768e:	7e 0e                	jle    769e <safe_mul_func_int32_t_s_s+0x5c>
    7690:	b8 00 00 00 80       	mov    $0x80000000,%eax
    7695:	99                   	cltd   
    7696:	f7 7d f8             	idivl  -0x8(%rbp)
    7699:	39 45 fc             	cmp    %eax,-0x4(%rbp)
    769c:	7c 29                	jl     76c7 <safe_mul_func_int32_t_s_s+0x85>
    769e:	83 7d fc 00          	cmpl   $0x0,-0x4(%rbp)
    76a2:	7f 1a                	jg     76be <safe_mul_func_int32_t_s_s+0x7c>
    76a4:	83 7d f8 00          	cmpl   $0x0,-0x8(%rbp)
    76a8:	7f 14                	jg     76be <safe_mul_func_int32_t_s_s+0x7c>
    76aa:	83 7d fc 00          	cmpl   $0x0,-0x4(%rbp)
    76ae:	74 0e                	je     76be <safe_mul_func_int32_t_s_s+0x7c>
    76b0:	b8 ff ff ff 7f       	mov    $0x7fffffff,%eax
    76b5:	99                   	cltd   
    76b6:	f7 7d fc             	idivl  -0x4(%rbp)
    76b9:	39 45 f8             	cmp    %eax,-0x8(%rbp)
    76bc:	7c 09                	jl     76c7 <safe_mul_func_int32_t_s_s+0x85>
    76be:	8b 45 fc             	mov    -0x4(%rbp),%eax
    76c1:	0f af 45 f8          	imul   -0x8(%rbp),%eax
    76c5:	eb 03                	jmp    76ca <safe_mul_func_int32_t_s_s+0x88>
    76c7:	8b 45 fc             	mov    -0x4(%rbp),%eax
    76ca:	5d                   	pop    %rbp
    76cb:	c3                   	retq   

00000000000076cc <safe_mod_func_int32_t_s_s>:
    76cc:	f3 0f 1e fa          	endbr64 
    76d0:	55                   	push   %rbp
    76d1:	48 89 e5             	mov    %rsp,%rbp
    76d4:	89 7d fc             	mov    %edi,-0x4(%rbp)
    76d7:	89 75 f8             	mov    %esi,-0x8(%rbp)
    76da:	83 7d f8 00          	cmpl   $0x0,-0x8(%rbp)
    76de:	74 1a                	je     76fa <safe_mod_func_int32_t_s_s+0x2e>
    76e0:	81 7d fc 00 00 00 80 	cmpl   $0x80000000,-0x4(%rbp)
    76e7:	75 06                	jne    76ef <safe_mod_func_int32_t_s_s+0x23>
    76e9:	83 7d f8 ff          	cmpl   $0xffffffff,-0x8(%rbp)
    76ed:	74 0b                	je     76fa <safe_mod_func_int32_t_s_s+0x2e>
    76ef:	8b 45 fc             	mov    -0x4(%rbp),%eax
    76f2:	99                   	cltd   
    76f3:	f7 7d f8             	idivl  -0x8(%rbp)
    76f6:	89 d0                	mov    %edx,%eax
    76f8:	eb 03                	jmp    76fd <safe_mod_func_int32_t_s_s+0x31>
    76fa:	8b 45 fc             	mov    -0x4(%rbp),%eax
    76fd:	5d                   	pop    %rbp
    76fe:	c3                   	retq   

00000000000076ff <safe_div_func_int32_t_s_s>:
    76ff:	f3 0f 1e fa          	endbr64 
    7703:	55                   	push   %rbp
    7704:	48 89 e5             	mov    %rsp,%rbp
    7707:	89 7d fc             	mov    %edi,-0x4(%rbp)
    770a:	89 75 f8             	mov    %esi,-0x8(%rbp)
    770d:	83 7d f8 00          	cmpl   $0x0,-0x8(%rbp)
    7711:	74 18                	je     772b <safe_div_func_int32_t_s_s+0x2c>
    7713:	81 7d fc 00 00 00 80 	cmpl   $0x80000000,-0x4(%rbp)
    771a:	75 06                	jne    7722 <safe_div_func_int32_t_s_s+0x23>
    771c:	83 7d f8 ff          	cmpl   $0xffffffff,-0x8(%rbp)
    7720:	74 09                	je     772b <safe_div_func_int32_t_s_s+0x2c>
    7722:	8b 45 fc             	mov    -0x4(%rbp),%eax
    7725:	99                   	cltd   
    7726:	f7 7d f8             	idivl  -0x8(%rbp)
    7729:	eb 03                	jmp    772e <safe_div_func_int32_t_s_s+0x2f>
    772b:	8b 45 fc             	mov    -0x4(%rbp),%eax
    772e:	5d                   	pop    %rbp
    772f:	c3                   	retq   

0000000000007730 <safe_lshift_func_int32_t_s_s>:
    7730:	f3 0f 1e fa          	endbr64 
    7734:	55                   	push   %rbp
    7735:	48 89 e5             	mov    %rsp,%rbp
    7738:	89 7d fc             	mov    %edi,-0x4(%rbp)
    773b:	89 75 f8             	mov    %esi,-0x8(%rbp)
    773e:	83 7d fc 00          	cmpl   $0x0,-0x4(%rbp)
    7742:	78 2d                	js     7771 <safe_lshift_func_int32_t_s_s+0x41>
    7744:	83 7d f8 00          	cmpl   $0x0,-0x8(%rbp)
    7748:	78 27                	js     7771 <safe_lshift_func_int32_t_s_s+0x41>
    774a:	83 7d f8 1f          	cmpl   $0x1f,-0x8(%rbp)
    774e:	7f 21                	jg     7771 <safe_lshift_func_int32_t_s_s+0x41>
    7750:	8b 45 f8             	mov    -0x8(%rbp),%eax
    7753:	ba ff ff ff 7f       	mov    $0x7fffffff,%edx
    7758:	89 c1                	mov    %eax,%ecx
    775a:	d3 fa                	sar    %cl,%edx
    775c:	89 d0                	mov    %edx,%eax
    775e:	39 45 fc             	cmp    %eax,-0x4(%rbp)
    7761:	7f 0e                	jg     7771 <safe_lshift_func_int32_t_s_s+0x41>
    7763:	8b 45 f8             	mov    -0x8(%rbp),%eax
    7766:	8b 55 fc             	mov    -0x4(%rbp),%edx
    7769:	89 c1                	mov    %eax,%ecx
    776b:	d3 e2                	shl    %cl,%edx
    776d:	89 d0                	mov    %edx,%eax
    776f:	eb 03                	jmp    7774 <safe_lshift_func_int32_t_s_s+0x44>
    7771:	8b 45 fc             	mov    -0x4(%rbp),%eax
    7774:	5d                   	pop    %rbp
    7775:	c3                   	retq   

0000000000007776 <safe_lshift_func_int32_t_s_u>:
    7776:	f3 0f 1e fa          	endbr64 
    777a:	55                   	push   %rbp
    777b:	48 89 e5             	mov    %rsp,%rbp
    777e:	89 7d fc             	mov    %edi,-0x4(%rbp)
    7781:	89 75 f8             	mov    %esi,-0x8(%rbp)
    7784:	83 7d fc 00          	cmpl   $0x0,-0x4(%rbp)
    7788:	78 27                	js     77b1 <safe_lshift_func_int32_t_s_u+0x3b>
    778a:	83 7d f8 1f          	cmpl   $0x1f,-0x8(%rbp)
    778e:	77 21                	ja     77b1 <safe_lshift_func_int32_t_s_u+0x3b>
    7790:	8b 45 f8             	mov    -0x8(%rbp),%eax
    7793:	ba ff ff ff 7f       	mov    $0x7fffffff,%edx
    7798:	89 c1                	mov    %eax,%ecx
    779a:	d3 fa                	sar    %cl,%edx
    779c:	89 d0                	mov    %edx,%eax
    779e:	39 45 fc             	cmp    %eax,-0x4(%rbp)
    77a1:	7f 0e                	jg     77b1 <safe_lshift_func_int32_t_s_u+0x3b>
    77a3:	8b 45 f8             	mov    -0x8(%rbp),%eax
    77a6:	8b 55 fc             	mov    -0x4(%rbp),%edx
    77a9:	89 c1                	mov    %eax,%ecx
    77ab:	d3 e2                	shl    %cl,%edx
    77ad:	89 d0                	mov    %edx,%eax
    77af:	eb 03                	jmp    77b4 <safe_lshift_func_int32_t_s_u+0x3e>
    77b1:	8b 45 fc             	mov    -0x4(%rbp),%eax
    77b4:	5d                   	pop    %rbp
    77b5:	c3                   	retq   

00000000000077b6 <safe_rshift_func_int32_t_s_s>:
    77b6:	f3 0f 1e fa          	endbr64 
    77ba:	55                   	push   %rbp
    77bb:	48 89 e5             	mov    %rsp,%rbp
    77be:	89 7d fc             	mov    %edi,-0x4(%rbp)
    77c1:	89 75 f8             	mov    %esi,-0x8(%rbp)
    77c4:	83 7d fc 00          	cmpl   $0x0,-0x4(%rbp)
    77c8:	78 1a                	js     77e4 <safe_rshift_func_int32_t_s_s+0x2e>
    77ca:	83 7d f8 00          	cmpl   $0x0,-0x8(%rbp)
    77ce:	78 14                	js     77e4 <safe_rshift_func_int32_t_s_s+0x2e>
    77d0:	83 7d f8 1f          	cmpl   $0x1f,-0x8(%rbp)
    77d4:	7f 0e                	jg     77e4 <safe_rshift_func_int32_t_s_s+0x2e>
    77d6:	8b 45 f8             	mov    -0x8(%rbp),%eax
    77d9:	8b 55 fc             	mov    -0x4(%rbp),%edx
    77dc:	89 c1                	mov    %eax,%ecx
    77de:	d3 fa                	sar    %cl,%edx
    77e0:	89 d0                	mov    %edx,%eax
    77e2:	eb 03                	jmp    77e7 <safe_rshift_func_int32_t_s_s+0x31>
    77e4:	8b 45 fc             	mov    -0x4(%rbp),%eax
    77e7:	5d                   	pop    %rbp
    77e8:	c3                   	retq   

00000000000077e9 <safe_rshift_func_int32_t_s_u>:
    77e9:	f3 0f 1e fa          	endbr64 
    77ed:	55                   	push   %rbp
    77ee:	48 89 e5             	mov    %rsp,%rbp
    77f1:	89 7d fc             	mov    %edi,-0x4(%rbp)
    77f4:	89 75 f8             	mov    %esi,-0x8(%rbp)
    77f7:	83 7d fc 00          	cmpl   $0x0,-0x4(%rbp)
    77fb:	78 14                	js     7811 <safe_rshift_func_int32_t_s_u+0x28>
    77fd:	83 7d f8 1f          	cmpl   $0x1f,-0x8(%rbp)
    7801:	77 0e                	ja     7811 <safe_rshift_func_int32_t_s_u+0x28>
    7803:	8b 45 f8             	mov    -0x8(%rbp),%eax
    7806:	8b 55 fc             	mov    -0x4(%rbp),%edx
    7809:	89 c1                	mov    %eax,%ecx
    780b:	d3 fa                	sar    %cl,%edx
    780d:	89 d0                	mov    %edx,%eax
    780f:	eb 03                	jmp    7814 <safe_rshift_func_int32_t_s_u+0x2b>
    7811:	8b 45 fc             	mov    -0x4(%rbp),%eax
    7814:	5d                   	pop    %rbp
    7815:	c3                   	retq   

0000000000007816 <safe_unary_minus_func_int64_t_s>:
    7816:	f3 0f 1e fa          	endbr64 
    781a:	55                   	push   %rbp
    781b:	48 89 e5             	mov    %rsp,%rbp
    781e:	48 89 7d f8          	mov    %rdi,-0x8(%rbp)
    7822:	48 b8 00 00 00 00 00 	movabs $0x8000000000000000,%rax
    7829:	00 00 80 
    782c:	48 39 45 f8          	cmp    %rax,-0x8(%rbp)
    7830:	74 09                	je     783b <safe_unary_minus_func_int64_t_s+0x25>
    7832:	48 8b 45 f8          	mov    -0x8(%rbp),%rax
    7836:	48 f7 d8             	neg    %rax
    7839:	eb 04                	jmp    783f <safe_unary_minus_func_int64_t_s+0x29>
    783b:	48 8b 45 f8          	mov    -0x8(%rbp),%rax
    783f:	5d                   	pop    %rbp
    7840:	c3                   	retq   

0000000000007841 <safe_add_func_int64_t_s_s>:
    7841:	f3 0f 1e fa          	endbr64 
    7845:	55                   	push   %rbp
    7846:	48 89 e5             	mov    %rsp,%rbp
    7849:	48 89 7d f8          	mov    %rdi,-0x8(%rbp)
    784d:	48 89 75 f0          	mov    %rsi,-0x10(%rbp)
    7851:	48 83 7d f8 00       	cmpq   $0x0,-0x8(%rbp)
    7856:	7e 1b                	jle    7873 <safe_add_func_int64_t_s_s+0x32>
    7858:	48 83 7d f0 00       	cmpq   $0x0,-0x10(%rbp)
    785d:	7e 14                	jle    7873 <safe_add_func_int64_t_s_s+0x32>
    785f:	48 b8 ff ff ff ff ff 	movabs $0x7fffffffffffffff,%rax
    7866:	ff ff 7f 
    7869:	48 2b 45 f0          	sub    -0x10(%rbp),%rax
    786d:	48 39 45 f8          	cmp    %rax,-0x8(%rbp)
    7871:	7f 2f                	jg     78a2 <safe_add_func_int64_t_s_s+0x61>
    7873:	48 83 7d f8 00       	cmpq   $0x0,-0x8(%rbp)
    7878:	79 1b                	jns    7895 <safe_add_func_int64_t_s_s+0x54>
    787a:	48 83 7d f0 00       	cmpq   $0x0,-0x10(%rbp)
    787f:	79 14                	jns    7895 <safe_add_func_int64_t_s_s+0x54>
    7881:	48 b8 00 00 00 00 00 	movabs $0x8000000000000000,%rax
    7888:	00 00 80 
    788b:	48 2b 45 f0          	sub    -0x10(%rbp),%rax
    788f:	48 39 45 f8          	cmp    %rax,-0x8(%rbp)
    7893:	7c 0d                	jl     78a2 <safe_add_func_int64_t_s_s+0x61>
    7895:	48 8b 55 f8          	mov    -0x8(%rbp),%rdx
    7899:	48 8b 45 f0          	mov    -0x10(%rbp),%rax
    789d:	48 01 d0             	add    %rdx,%rax
    78a0:	eb 04                	jmp    78a6 <safe_add_func_int64_t_s_s+0x65>
    78a2:	48 8b 45 f8          	mov    -0x8(%rbp),%rax
    78a6:	5d                   	pop    %rbp
    78a7:	c3                   	retq   

00000000000078a8 <safe_sub_func_int64_t_s_s>:
    78a8:	f3 0f 1e fa          	endbr64 
    78ac:	55                   	push   %rbp
    78ad:	48 89 e5             	mov    %rsp,%rbp
    78b0:	48 89 7d f8          	mov    %rdi,-0x8(%rbp)
    78b4:	48 89 75 f0          	mov    %rsi,-0x10(%rbp)
    78b8:	48 8b 45 f8          	mov    -0x8(%rbp),%rax
    78bc:	48 33 45 f0          	xor    -0x10(%rbp),%rax
    78c0:	48 89 c2             	mov    %rax,%rdx
    78c3:	48 8b 45 f8          	mov    -0x8(%rbp),%rax
    78c7:	48 33 45 f0          	xor    -0x10(%rbp),%rax
    78cb:	48 b9 00 00 00 00 00 	movabs $0x8000000000000000,%rcx
    78d2:	00 00 80 
    78d5:	48 21 c8             	and    %rcx,%rax
    78d8:	48 33 45 f8          	xor    -0x8(%rbp),%rax
    78dc:	48 2b 45 f0          	sub    -0x10(%rbp),%rax
    78e0:	48 33 45 f0          	xor    -0x10(%rbp),%rax
    78e4:	48 21 d0             	and    %rdx,%rax
    78e7:	48 85 c0             	test   %rax,%rax
    78ea:	78 0a                	js     78f6 <safe_sub_func_int64_t_s_s+0x4e>
    78ec:	48 8b 45 f8          	mov    -0x8(%rbp),%rax
    78f0:	48 2b 45 f0          	sub    -0x10(%rbp),%rax
    78f4:	eb 04                	jmp    78fa <safe_sub_func_int64_t_s_s+0x52>
    78f6:	48 8b 45 f8          	mov    -0x8(%rbp),%rax
    78fa:	5d                   	pop    %rbp
    78fb:	c3                   	retq   

00000000000078fc <safe_mul_func_int64_t_s_s>:
    78fc:	f3 0f 1e fa          	endbr64 
    7900:	55                   	push   %rbp
    7901:	48 89 e5             	mov    %rsp,%rbp
    7904:	48 89 7d f8          	mov    %rdi,-0x8(%rbp)
    7908:	48 89 75 f0          	mov    %rsi,-0x10(%rbp)
    790c:	48 83 7d f8 00       	cmpq   $0x0,-0x8(%rbp)
    7911:	7e 1d                	jle    7930 <safe_mul_func_int64_t_s_s+0x34>
    7913:	48 83 7d f0 00       	cmpq   $0x0,-0x10(%rbp)
    7918:	7e 16                	jle    7930 <safe_mul_func_int64_t_s_s+0x34>
    791a:	48 b8 ff ff ff ff ff 	movabs $0x7fffffffffffffff,%rax
    7921:	ff ff 7f 
    7924:	48 99                	cqto   
    7926:	48 f7 7d f0          	idivq  -0x10(%rbp)
    792a:	48 39 45 f8          	cmp    %rax,-0x8(%rbp)
    792e:	7f 7e                	jg     79ae <safe_mul_func_int64_t_s_s+0xb2>
    7930:	48 83 7d f8 00       	cmpq   $0x0,-0x8(%rbp)
    7935:	7e 1d                	jle    7954 <safe_mul_func_int64_t_s_s+0x58>
    7937:	48 83 7d f0 00       	cmpq   $0x0,-0x10(%rbp)
    793c:	7f 16                	jg     7954 <safe_mul_func_int64_t_s_s+0x58>
    793e:	48 b8 00 00 00 00 00 	movabs $0x8000000000000000,%rax
    7945:	00 00 80 
    7948:	48 99                	cqto   
    794a:	48 f7 7d f8          	idivq  -0x8(%rbp)
    794e:	48 39 45 f0          	cmp    %rax,-0x10(%rbp)
    7952:	7c 5a                	jl     79ae <safe_mul_func_int64_t_s_s+0xb2>
    7954:	48 83 7d f8 00       	cmpq   $0x0,-0x8(%rbp)
    7959:	7f 1d                	jg     7978 <safe_mul_func_int64_t_s_s+0x7c>
    795b:	48 83 7d f0 00       	cmpq   $0x0,-0x10(%rbp)
    7960:	7e 16                	jle    7978 <safe_mul_func_int64_t_s_s+0x7c>
    7962:	48 b8 00 00 00 00 00 	movabs $0x8000000000000000,%rax
    7969:	00 00 80 
    796c:	48 99                	cqto   
    796e:	48 f7 7d f0          	idivq  -0x10(%rbp)
    7972:	48 39 45 f8          	cmp    %rax,-0x8(%rbp)
    7976:	7c 36                	jl     79ae <safe_mul_func_int64_t_s_s+0xb2>
    7978:	48 83 7d f8 00       	cmpq   $0x0,-0x8(%rbp)
    797d:	7f 24                	jg     79a3 <safe_mul_func_int64_t_s_s+0xa7>
    797f:	48 83 7d f0 00       	cmpq   $0x0,-0x10(%rbp)
    7984:	7f 1d                	jg     79a3 <safe_mul_func_int64_t_s_s+0xa7>
    7986:	48 83 7d f8 00       	cmpq   $0x0,-0x8(%rbp)
    798b:	74 16                	je     79a3 <safe_mul_func_int64_t_s_s+0xa7>
    798d:	48 b8 ff ff ff ff ff 	movabs $0x7fffffffffffffff,%rax
    7994:	ff ff 7f 
    7997:	48 99                	cqto   
    7999:	48 f7 7d f8          	idivq  -0x8(%rbp)
    799d:	48 39 45 f0          	cmp    %rax,-0x10(%rbp)
    79a1:	7c 0b                	jl     79ae <safe_mul_func_int64_t_s_s+0xb2>
    79a3:	48 8b 45 f8          	mov    -0x8(%rbp),%rax
    79a7:	48 0f af 45 f0       	imul   -0x10(%rbp),%rax
    79ac:	eb 04                	jmp    79b2 <safe_mul_func_int64_t_s_s+0xb6>
    79ae:	48 8b 45 f8          	mov    -0x8(%rbp),%rax
    79b2:	5d                   	pop    %rbp
    79b3:	c3                   	retq   

00000000000079b4 <safe_mod_func_int64_t_s_s>:
    79b4:	f3 0f 1e fa          	endbr64 
    79b8:	55                   	push   %rbp
    79b9:	48 89 e5             	mov    %rsp,%rbp
    79bc:	48 89 7d f8          	mov    %rdi,-0x8(%rbp)
    79c0:	48 89 75 f0          	mov    %rsi,-0x10(%rbp)
    79c4:	48 83 7d f0 00       	cmpq   $0x0,-0x10(%rbp)
    79c9:	74 26                	je     79f1 <safe_mod_func_int64_t_s_s+0x3d>
    79cb:	48 b8 00 00 00 00 00 	movabs $0x8000000000000000,%rax
    79d2:	00 00 80 
    79d5:	48 39 45 f8          	cmp    %rax,-0x8(%rbp)
    79d9:	75 07                	jne    79e2 <safe_mod_func_int64_t_s_s+0x2e>
    79db:	48 83 7d f0 ff       	cmpq   $0xffffffffffffffff,-0x10(%rbp)
    79e0:	74 0f                	je     79f1 <safe_mod_func_int64_t_s_s+0x3d>
    79e2:	48 8b 45 f8          	mov    -0x8(%rbp),%rax
    79e6:	48 99                	cqto   
    79e8:	48 f7 7d f0          	idivq  -0x10(%rbp)
    79ec:	48 89 d0             	mov    %rdx,%rax
    79ef:	eb 04                	jmp    79f5 <safe_mod_func_int64_t_s_s+0x41>
    79f1:	48 8b 45 f8          	mov    -0x8(%rbp),%rax
    79f5:	5d                   	pop    %rbp
    79f6:	c3                   	retq   

00000000000079f7 <safe_div_func_int64_t_s_s>:
    79f7:	f3 0f 1e fa          	endbr64 
    79fb:	55                   	push   %rbp
    79fc:	48 89 e5             	mov    %rsp,%rbp
    79ff:	48 89 7d f8          	mov    %rdi,-0x8(%rbp)
    7a03:	48 89 75 f0          	mov    %rsi,-0x10(%rbp)
    7a07:	48 83 7d f0 00       	cmpq   $0x0,-0x10(%rbp)
    7a0c:	74 23                	je     7a31 <safe_div_func_int64_t_s_s+0x3a>
    7a0e:	48 b8 00 00 00 00 00 	movabs $0x8000000000000000,%rax
    7a15:	00 00 80 
    7a18:	48 39 45 f8          	cmp    %rax,-0x8(%rbp)
    7a1c:	75 07                	jne    7a25 <safe_div_func_int64_t_s_s+0x2e>
    7a1e:	48 83 7d f0 ff       	cmpq   $0xffffffffffffffff,-0x10(%rbp)
    7a23:	74 0c                	je     7a31 <safe_div_func_int64_t_s_s+0x3a>
    7a25:	48 8b 45 f8          	mov    -0x8(%rbp),%rax
    7a29:	48 99                	cqto   
    7a2b:	48 f7 7d f0          	idivq  -0x10(%rbp)
    7a2f:	eb 04                	jmp    7a35 <safe_div_func_int64_t_s_s+0x3e>
    7a31:	48 8b 45 f8          	mov    -0x8(%rbp),%rax
    7a35:	5d                   	pop    %rbp
    7a36:	c3                   	retq   

0000000000007a37 <safe_lshift_func_int64_t_s_s>:
    7a37:	f3 0f 1e fa          	endbr64 
    7a3b:	55                   	push   %rbp
    7a3c:	48 89 e5             	mov    %rsp,%rbp
    7a3f:	48 89 7d f8          	mov    %rdi,-0x8(%rbp)
    7a43:	89 75 f4             	mov    %esi,-0xc(%rbp)
    7a46:	48 83 7d f8 00       	cmpq   $0x0,-0x8(%rbp)
    7a4b:	78 38                	js     7a85 <safe_lshift_func_int64_t_s_s+0x4e>
    7a4d:	83 7d f4 00          	cmpl   $0x0,-0xc(%rbp)
    7a51:	78 32                	js     7a85 <safe_lshift_func_int64_t_s_s+0x4e>
    7a53:	83 7d f4 1f          	cmpl   $0x1f,-0xc(%rbp)
    7a57:	7f 2c                	jg     7a85 <safe_lshift_func_int64_t_s_s+0x4e>
    7a59:	8b 45 f4             	mov    -0xc(%rbp),%eax
    7a5c:	48 ba ff ff ff ff ff 	movabs $0x7fffffffffffffff,%rdx
    7a63:	ff ff 7f 
    7a66:	89 c1                	mov    %eax,%ecx
    7a68:	48 d3 fa             	sar    %cl,%rdx
    7a6b:	48 89 d0             	mov    %rdx,%rax
    7a6e:	48 39 45 f8          	cmp    %rax,-0x8(%rbp)
    7a72:	7f 11                	jg     7a85 <safe_lshift_func_int64_t_s_s+0x4e>
    7a74:	8b 45 f4             	mov    -0xc(%rbp),%eax
    7a77:	48 8b 55 f8          	mov    -0x8(%rbp),%rdx
    7a7b:	89 c1                	mov    %eax,%ecx
    7a7d:	48 d3 e2             	shl    %cl,%rdx
    7a80:	48 89 d0             	mov    %rdx,%rax
    7a83:	eb 04                	jmp    7a89 <safe_lshift_func_int64_t_s_s+0x52>
    7a85:	48 8b 45 f8          	mov    -0x8(%rbp),%rax
    7a89:	5d                   	pop    %rbp
    7a8a:	c3                   	retq   

0000000000007a8b <safe_lshift_func_int64_t_s_u>:
    7a8b:	f3 0f 1e fa          	endbr64 
    7a8f:	55                   	push   %rbp
    7a90:	48 89 e5             	mov    %rsp,%rbp
    7a93:	48 89 7d f8          	mov    %rdi,-0x8(%rbp)
    7a97:	89 75 f4             	mov    %esi,-0xc(%rbp)
    7a9a:	48 83 7d f8 00       	cmpq   $0x0,-0x8(%rbp)
    7a9f:	78 32                	js     7ad3 <safe_lshift_func_int64_t_s_u+0x48>
    7aa1:	83 7d f4 1f          	cmpl   $0x1f,-0xc(%rbp)
    7aa5:	77 2c                	ja     7ad3 <safe_lshift_func_int64_t_s_u+0x48>
    7aa7:	8b 45 f4             	mov    -0xc(%rbp),%eax
    7aaa:	48 ba ff ff ff ff ff 	movabs $0x7fffffffffffffff,%rdx
    7ab1:	ff ff 7f 
    7ab4:	89 c1                	mov    %eax,%ecx
    7ab6:	48 d3 fa             	sar    %cl,%rdx
    7ab9:	48 89 d0             	mov    %rdx,%rax
    7abc:	48 39 45 f8          	cmp    %rax,-0x8(%rbp)
    7ac0:	7f 11                	jg     7ad3 <safe_lshift_func_int64_t_s_u+0x48>
    7ac2:	8b 45 f4             	mov    -0xc(%rbp),%eax
    7ac5:	48 8b 55 f8          	mov    -0x8(%rbp),%rdx
    7ac9:	89 c1                	mov    %eax,%ecx
    7acb:	48 d3 e2             	shl    %cl,%rdx
    7ace:	48 89 d0             	mov    %rdx,%rax
    7ad1:	eb 04                	jmp    7ad7 <safe_lshift_func_int64_t_s_u+0x4c>
    7ad3:	48 8b 45 f8          	mov    -0x8(%rbp),%rax
    7ad7:	5d                   	pop    %rbp
    7ad8:	c3                   	retq   

0000000000007ad9 <safe_rshift_func_int64_t_s_s>:
    7ad9:	f3 0f 1e fa          	endbr64 
    7add:	55                   	push   %rbp
    7ade:	48 89 e5             	mov    %rsp,%rbp
    7ae1:	48 89 7d f8          	mov    %rdi,-0x8(%rbp)
    7ae5:	89 75 f4             	mov    %esi,-0xc(%rbp)
    7ae8:	48 83 7d f8 00       	cmpq   $0x0,-0x8(%rbp)
    7aed:	78 1d                	js     7b0c <safe_rshift_func_int64_t_s_s+0x33>
    7aef:	83 7d f4 00          	cmpl   $0x0,-0xc(%rbp)
    7af3:	78 17                	js     7b0c <safe_rshift_func_int64_t_s_s+0x33>
    7af5:	83 7d f4 1f          	cmpl   $0x1f,-0xc(%rbp)
    7af9:	7f 11                	jg     7b0c <safe_rshift_func_int64_t_s_s+0x33>
    7afb:	8b 45 f4             	mov    -0xc(%rbp),%eax
    7afe:	48 8b 55 f8          	mov    -0x8(%rbp),%rdx
    7b02:	89 c1                	mov    %eax,%ecx
    7b04:	48 d3 fa             	sar    %cl,%rdx
    7b07:	48 89 d0             	mov    %rdx,%rax
    7b0a:	eb 04                	jmp    7b10 <safe_rshift_func_int64_t_s_s+0x37>
    7b0c:	48 8b 45 f8          	mov    -0x8(%rbp),%rax
    7b10:	5d                   	pop    %rbp
    7b11:	c3                   	retq   

0000000000007b12 <safe_rshift_func_int64_t_s_u>:
    7b12:	f3 0f 1e fa          	endbr64 
    7b16:	55                   	push   %rbp
    7b17:	48 89 e5             	mov    %rsp,%rbp
    7b1a:	48 89 7d f8          	mov    %rdi,-0x8(%rbp)
    7b1e:	89 75 f4             	mov    %esi,-0xc(%rbp)
    7b21:	48 83 7d f8 00       	cmpq   $0x0,-0x8(%rbp)
    7b26:	78 17                	js     7b3f <safe_rshift_func_int64_t_s_u+0x2d>
    7b28:	83 7d f4 1f          	cmpl   $0x1f,-0xc(%rbp)
    7b2c:	77 11                	ja     7b3f <safe_rshift_func_int64_t_s_u+0x2d>
    7b2e:	8b 45 f4             	mov    -0xc(%rbp),%eax
    7b31:	48 8b 55 f8          	mov    -0x8(%rbp),%rdx
    7b35:	89 c1                	mov    %eax,%ecx
    7b37:	48 d3 fa             	sar    %cl,%rdx
    7b3a:	48 89 d0             	mov    %rdx,%rax
    7b3d:	eb 04                	jmp    7b43 <safe_rshift_func_int64_t_s_u+0x31>
    7b3f:	48 8b 45 f8          	mov    -0x8(%rbp),%rax
    7b43:	5d                   	pop    %rbp
    7b44:	c3                   	retq   

0000000000007b45 <safe_unary_minus_func_uint8_t_u>:
    7b45:	f3 0f 1e fa          	endbr64 
    7b49:	55                   	push   %rbp
    7b4a:	48 89 e5             	mov    %rsp,%rbp
    7b4d:	89 f8                	mov    %edi,%eax
    7b4f:	88 45 fc             	mov    %al,-0x4(%rbp)
    7b52:	0f b6 45 fc          	movzbl -0x4(%rbp),%eax
    7b56:	f7 d8                	neg    %eax
    7b58:	5d                   	pop    %rbp
    7b59:	c3                   	retq   

0000000000007b5a <safe_add_func_uint8_t_u_u>:
    7b5a:	f3 0f 1e fa          	endbr64 
    7b5e:	55                   	push   %rbp
    7b5f:	48 89 e5             	mov    %rsp,%rbp
    7b62:	89 fa                	mov    %edi,%edx
    7b64:	89 f0                	mov    %esi,%eax
    7b66:	88 55 fc             	mov    %dl,-0x4(%rbp)
    7b69:	88 45 f8             	mov    %al,-0x8(%rbp)
    7b6c:	0f b6 55 fc          	movzbl -0x4(%rbp),%edx
    7b70:	0f b6 45 f8          	movzbl -0x8(%rbp),%eax
    7b74:	01 d0                	add    %edx,%eax
    7b76:	5d                   	pop    %rbp
    7b77:	c3                   	retq   

0000000000007b78 <safe_sub_func_uint8_t_u_u>:
    7b78:	f3 0f 1e fa          	endbr64 
    7b7c:	55                   	push   %rbp
    7b7d:	48 89 e5             	mov    %rsp,%rbp
    7b80:	89 fa                	mov    %edi,%edx
    7b82:	89 f0                	mov    %esi,%eax
    7b84:	88 55 fc             	mov    %dl,-0x4(%rbp)
    7b87:	88 45 f8             	mov    %al,-0x8(%rbp)
    7b8a:	0f b6 45 fc          	movzbl -0x4(%rbp),%eax
    7b8e:	2a 45 f8             	sub    -0x8(%rbp),%al
    7b91:	5d                   	pop    %rbp
    7b92:	c3                   	retq   

0000000000007b93 <safe_mul_func_uint8_t_u_u>:
    7b93:	f3 0f 1e fa          	endbr64 
    7b97:	55                   	push   %rbp
    7b98:	48 89 e5             	mov    %rsp,%rbp
    7b9b:	89 fa                	mov    %edi,%edx
    7b9d:	89 f0                	mov    %esi,%eax
    7b9f:	88 55 fc             	mov    %dl,-0x4(%rbp)
    7ba2:	88 45 f8             	mov    %al,-0x8(%rbp)
    7ba5:	0f b6 45 fc          	movzbl -0x4(%rbp),%eax
    7ba9:	f6 65 f8             	mulb   -0x8(%rbp)
    7bac:	5d                   	pop    %rbp
    7bad:	c3                   	retq   

0000000000007bae <safe_mod_func_uint8_t_u_u>:
    7bae:	f3 0f 1e fa          	endbr64 
    7bb2:	55                   	push   %rbp
    7bb3:	48 89 e5             	mov    %rsp,%rbp
    7bb6:	89 fa                	mov    %edi,%edx
    7bb8:	89 f0                	mov    %esi,%eax
    7bba:	88 55 fc             	mov    %dl,-0x4(%rbp)
    7bbd:	88 45 f8             	mov    %al,-0x8(%rbp)
    7bc0:	80 7d f8 00          	cmpb   $0x0,-0x8(%rbp)
    7bc4:	74 0f                	je     7bd5 <safe_mod_func_uint8_t_u_u+0x27>
    7bc6:	0f b6 45 fc          	movzbl -0x4(%rbp),%eax
    7bca:	0f b6 c0             	movzbl %al,%eax
    7bcd:	f6 75 f8             	divb   -0x8(%rbp)
    7bd0:	0f b6 c4             	movzbl %ah,%eax
    7bd3:	eb 04                	jmp    7bd9 <safe_mod_func_uint8_t_u_u+0x2b>
    7bd5:	0f b6 45 fc          	movzbl -0x4(%rbp),%eax
    7bd9:	5d                   	pop    %rbp
    7bda:	c3                   	retq   

0000000000007bdb <safe_div_func_uint8_t_u_u>:
    7bdb:	f3 0f 1e fa          	endbr64 
    7bdf:	55                   	push   %rbp
    7be0:	48 89 e5             	mov    %rsp,%rbp
    7be3:	89 fa                	mov    %edi,%edx
    7be5:	89 f0                	mov    %esi,%eax
    7be7:	88 55 fc             	mov    %dl,-0x4(%rbp)
    7bea:	88 45 f8             	mov    %al,-0x8(%rbp)
    7bed:	80 7d f8 00          	cmpb   $0x0,-0x8(%rbp)
    7bf1:	74 0c                	je     7bff <safe_div_func_uint8_t_u_u+0x24>
    7bf3:	0f b6 45 fc          	movzbl -0x4(%rbp),%eax
    7bf7:	0f b6 c0             	movzbl %al,%eax
    7bfa:	f6 75 f8             	divb   -0x8(%rbp)
    7bfd:	eb 04                	jmp    7c03 <safe_div_func_uint8_t_u_u+0x28>
    7bff:	0f b6 45 fc          	movzbl -0x4(%rbp),%eax
    7c03:	5d                   	pop    %rbp
    7c04:	c3                   	retq   

0000000000007c05 <safe_lshift_func_uint8_t_u_s>:
    7c05:	f3 0f 1e fa          	endbr64 
    7c09:	55                   	push   %rbp
    7c0a:	48 89 e5             	mov    %rsp,%rbp
    7c0d:	89 f8                	mov    %edi,%eax
    7c0f:	89 75 f8             	mov    %esi,-0x8(%rbp)
    7c12:	88 45 fc             	mov    %al,-0x4(%rbp)
    7c15:	83 7d f8 00          	cmpl   $0x0,-0x8(%rbp)
    7c19:	78 2b                	js     7c46 <safe_lshift_func_uint8_t_u_s+0x41>
    7c1b:	83 7d f8 1f          	cmpl   $0x1f,-0x8(%rbp)
    7c1f:	7f 25                	jg     7c46 <safe_lshift_func_uint8_t_u_s+0x41>
    7c21:	0f b6 55 fc          	movzbl -0x4(%rbp),%edx
    7c25:	8b 45 f8             	mov    -0x8(%rbp),%eax
    7c28:	be ff 00 00 00       	mov    $0xff,%esi
    7c2d:	89 c1                	mov    %eax,%ecx
    7c2f:	d3 fe                	sar    %cl,%esi
    7c31:	89 f0                	mov    %esi,%eax
    7c33:	39 c2                	cmp    %eax,%edx
    7c35:	7f 0f                	jg     7c46 <safe_lshift_func_uint8_t_u_s+0x41>
    7c37:	0f b6 55 fc          	movzbl -0x4(%rbp),%edx
    7c3b:	8b 45 f8             	mov    -0x8(%rbp),%eax
    7c3e:	89 c1                	mov    %eax,%ecx
    7c40:	d3 e2                	shl    %cl,%edx
    7c42:	89 d0                	mov    %edx,%eax
    7c44:	eb 04                	jmp    7c4a <safe_lshift_func_uint8_t_u_s+0x45>
    7c46:	0f b6 45 fc          	movzbl -0x4(%rbp),%eax
    7c4a:	5d                   	pop    %rbp
    7c4b:	c3                   	retq   

0000000000007c4c <safe_lshift_func_uint8_t_u_u>:
    7c4c:	f3 0f 1e fa          	endbr64 
    7c50:	55                   	push   %rbp
    7c51:	48 89 e5             	mov    %rsp,%rbp
    7c54:	89 f8                	mov    %edi,%eax
    7c56:	89 75 f8             	mov    %esi,-0x8(%rbp)
    7c59:	88 45 fc             	mov    %al,-0x4(%rbp)
    7c5c:	83 7d f8 1f          	cmpl   $0x1f,-0x8(%rbp)
    7c60:	77 25                	ja     7c87 <safe_lshift_func_uint8_t_u_u+0x3b>
    7c62:	0f b6 55 fc          	movzbl -0x4(%rbp),%edx
    7c66:	8b 45 f8             	mov    -0x8(%rbp),%eax
    7c69:	be ff 00 00 00       	mov    $0xff,%esi
    7c6e:	89 c1                	mov    %eax,%ecx
    7c70:	d3 fe                	sar    %cl,%esi
    7c72:	89 f0                	mov    %esi,%eax
    7c74:	39 c2                	cmp    %eax,%edx
    7c76:	7f 0f                	jg     7c87 <safe_lshift_func_uint8_t_u_u+0x3b>
    7c78:	0f b6 55 fc          	movzbl -0x4(%rbp),%edx
    7c7c:	8b 45 f8             	mov    -0x8(%rbp),%eax
    7c7f:	89 c1                	mov    %eax,%ecx
    7c81:	d3 e2                	shl    %cl,%edx
    7c83:	89 d0                	mov    %edx,%eax
    7c85:	eb 04                	jmp    7c8b <safe_lshift_func_uint8_t_u_u+0x3f>
    7c87:	0f b6 45 fc          	movzbl -0x4(%rbp),%eax
    7c8b:	5d                   	pop    %rbp
    7c8c:	c3                   	retq   

0000000000007c8d <safe_rshift_func_uint8_t_u_s>:
    7c8d:	f3 0f 1e fa          	endbr64 
    7c91:	55                   	push   %rbp
    7c92:	48 89 e5             	mov    %rsp,%rbp
    7c95:	89 f8                	mov    %edi,%eax
    7c97:	89 75 f8             	mov    %esi,-0x8(%rbp)
    7c9a:	88 45 fc             	mov    %al,-0x4(%rbp)
    7c9d:	83 7d f8 00          	cmpl   $0x0,-0x8(%rbp)
    7ca1:	78 15                	js     7cb8 <safe_rshift_func_uint8_t_u_s+0x2b>
    7ca3:	83 7d f8 1f          	cmpl   $0x1f,-0x8(%rbp)
    7ca7:	7f 0f                	jg     7cb8 <safe_rshift_func_uint8_t_u_s+0x2b>
    7ca9:	0f b6 55 fc          	movzbl -0x4(%rbp),%edx
    7cad:	8b 45 f8             	mov    -0x8(%rbp),%eax
    7cb0:	89 c1                	mov    %eax,%ecx
    7cb2:	d3 fa                	sar    %cl,%edx
    7cb4:	89 d0                	mov    %edx,%eax
    7cb6:	eb 04                	jmp    7cbc <safe_rshift_func_uint8_t_u_s+0x2f>
    7cb8:	0f b6 45 fc          	movzbl -0x4(%rbp),%eax
    7cbc:	5d                   	pop    %rbp
    7cbd:	c3                   	retq   

0000000000007cbe <safe_rshift_func_uint8_t_u_u>:
    7cbe:	f3 0f 1e fa          	endbr64 
    7cc2:	55                   	push   %rbp
    7cc3:	48 89 e5             	mov    %rsp,%rbp
    7cc6:	89 f8                	mov    %edi,%eax
    7cc8:	89 75 f8             	mov    %esi,-0x8(%rbp)
    7ccb:	88 45 fc             	mov    %al,-0x4(%rbp)
    7cce:	83 7d f8 1f          	cmpl   $0x1f,-0x8(%rbp)
    7cd2:	77 0f                	ja     7ce3 <safe_rshift_func_uint8_t_u_u+0x25>
    7cd4:	0f b6 55 fc          	movzbl -0x4(%rbp),%edx
    7cd8:	8b 45 f8             	mov    -0x8(%rbp),%eax
    7cdb:	89 c1                	mov    %eax,%ecx
    7cdd:	d3 fa                	sar    %cl,%edx
    7cdf:	89 d0                	mov    %edx,%eax
    7ce1:	eb 04                	jmp    7ce7 <safe_rshift_func_uint8_t_u_u+0x29>
    7ce3:	0f b6 45 fc          	movzbl -0x4(%rbp),%eax
    7ce7:	5d                   	pop    %rbp
    7ce8:	c3                   	retq   

0000000000007ce9 <safe_unary_minus_func_uint16_t_u>:
    7ce9:	f3 0f 1e fa          	endbr64 
    7ced:	55                   	push   %rbp
    7cee:	48 89 e5             	mov    %rsp,%rbp
    7cf1:	89 f8                	mov    %edi,%eax
    7cf3:	66 89 45 fc          	mov    %ax,-0x4(%rbp)
    7cf7:	0f b7 45 fc          	movzwl -0x4(%rbp),%eax
    7cfb:	f7 d8                	neg    %eax
    7cfd:	5d                   	pop    %rbp
    7cfe:	c3                   	retq   

0000000000007cff <safe_add_func_uint16_t_u_u>:
    7cff:	f3 0f 1e fa          	endbr64 
    7d03:	55                   	push   %rbp
    7d04:	48 89 e5             	mov    %rsp,%rbp
    7d07:	89 fa                	mov    %edi,%edx
    7d09:	89 f0                	mov    %esi,%eax
    7d0b:	66 89 55 fc          	mov    %dx,-0x4(%rbp)
    7d0f:	66 89 45 f8          	mov    %ax,-0x8(%rbp)
    7d13:	0f b7 55 fc          	movzwl -0x4(%rbp),%edx
    7d17:	0f b7 45 f8          	movzwl -0x8(%rbp),%eax
    7d1b:	01 d0                	add    %edx,%eax
    7d1d:	5d                   	pop    %rbp
    7d1e:	c3                   	retq   

0000000000007d1f <safe_sub_func_uint16_t_u_u>:
    7d1f:	f3 0f 1e fa          	endbr64 
    7d23:	55                   	push   %rbp
    7d24:	48 89 e5             	mov    %rsp,%rbp
    7d27:	89 fa                	mov    %edi,%edx
    7d29:	89 f0                	mov    %esi,%eax
    7d2b:	66 89 55 fc          	mov    %dx,-0x4(%rbp)
    7d2f:	66 89 45 f8          	mov    %ax,-0x8(%rbp)
    7d33:	0f b7 45 fc          	movzwl -0x4(%rbp),%eax
    7d37:	66 2b 45 f8          	sub    -0x8(%rbp),%ax
    7d3b:	5d                   	pop    %rbp
    7d3c:	c3                   	retq   

0000000000007d3d <safe_mul_func_uint16_t_u_u>:
    7d3d:	f3 0f 1e fa          	endbr64 
    7d41:	55                   	push   %rbp
    7d42:	48 89 e5             	mov    %rsp,%rbp
    7d45:	89 fa                	mov    %edi,%edx
    7d47:	89 f0                	mov    %esi,%eax
    7d49:	66 89 55 fc          	mov    %dx,-0x4(%rbp)
    7d4d:	66 89 45 f8          	mov    %ax,-0x8(%rbp)
    7d51:	0f b7 45 fc          	movzwl -0x4(%rbp),%eax
    7d55:	66 0f af 45 f8       	imul   -0x8(%rbp),%ax
    7d5a:	5d                   	pop    %rbp
    7d5b:	c3                   	retq   

0000000000007d5c <safe_mod_func_uint16_t_u_u>:
    7d5c:	f3 0f 1e fa          	endbr64 
    7d60:	55                   	push   %rbp
    7d61:	48 89 e5             	mov    %rsp,%rbp
    7d64:	89 fa                	mov    %edi,%edx
    7d66:	89 f0                	mov    %esi,%eax
    7d68:	66 89 55 fc          	mov    %dx,-0x4(%rbp)
    7d6c:	66 89 45 f8          	mov    %ax,-0x8(%rbp)
    7d70:	66 83 7d f8 00       	cmpw   $0x0,-0x8(%rbp)
    7d75:	74 11                	je     7d88 <safe_mod_func_uint16_t_u_u+0x2c>
    7d77:	0f b7 45 fc          	movzwl -0x4(%rbp),%eax
    7d7b:	ba 00 00 00 00       	mov    $0x0,%edx
    7d80:	66 f7 75 f8          	divw   -0x8(%rbp)
    7d84:	89 d0                	mov    %edx,%eax
    7d86:	eb 04                	jmp    7d8c <safe_mod_func_uint16_t_u_u+0x30>
    7d88:	0f b7 45 fc          	movzwl -0x4(%rbp),%eax
    7d8c:	5d                   	pop    %rbp
    7d8d:	c3                   	retq   

0000000000007d8e <safe_div_func_uint16_t_u_u>:
    7d8e:	f3 0f 1e fa          	endbr64 
    7d92:	55                   	push   %rbp
    7d93:	48 89 e5             	mov    %rsp,%rbp
    7d96:	89 fa                	mov    %edi,%edx
    7d98:	89 f0                	mov    %esi,%eax
    7d9a:	66 89 55 fc          	mov    %dx,-0x4(%rbp)
    7d9e:	66 89 45 f8          	mov    %ax,-0x8(%rbp)
    7da2:	66 83 7d f8 00       	cmpw   $0x0,-0x8(%rbp)
    7da7:	74 0f                	je     7db8 <safe_div_func_uint16_t_u_u+0x2a>
    7da9:	0f b7 45 fc          	movzwl -0x4(%rbp),%eax
    7dad:	ba 00 00 00 00       	mov    $0x0,%edx
    7db2:	66 f7 75 f8          	divw   -0x8(%rbp)
    7db6:	eb 04                	jmp    7dbc <safe_div_func_uint16_t_u_u+0x2e>
    7db8:	0f b7 45 fc          	movzwl -0x4(%rbp),%eax
    7dbc:	5d                   	pop    %rbp
    7dbd:	c3                   	retq   

0000000000007dbe <safe_lshift_func_uint16_t_u_s>:
    7dbe:	f3 0f 1e fa          	endbr64 
    7dc2:	55                   	push   %rbp
    7dc3:	48 89 e5             	mov    %rsp,%rbp
    7dc6:	89 f8                	mov    %edi,%eax
    7dc8:	89 75 f8             	mov    %esi,-0x8(%rbp)
    7dcb:	66 89 45 fc          	mov    %ax,-0x4(%rbp)
    7dcf:	83 7d f8 00          	cmpl   $0x0,-0x8(%rbp)
    7dd3:	78 2b                	js     7e00 <safe_lshift_func_uint16_t_u_s+0x42>
    7dd5:	83 7d f8 1f          	cmpl   $0x1f,-0x8(%rbp)
    7dd9:	7f 25                	jg     7e00 <safe_lshift_func_uint16_t_u_s+0x42>
    7ddb:	0f b7 55 fc          	movzwl -0x4(%rbp),%edx
    7ddf:	8b 45 f8             	mov    -0x8(%rbp),%eax
    7de2:	be ff ff 00 00       	mov    $0xffff,%esi
    7de7:	89 c1                	mov    %eax,%ecx
    7de9:	d3 fe                	sar    %cl,%esi
    7deb:	89 f0                	mov    %esi,%eax
    7ded:	39 c2                	cmp    %eax,%edx
    7def:	7f 0f                	jg     7e00 <safe_lshift_func_uint16_t_u_s+0x42>
    7df1:	0f b7 55 fc          	movzwl -0x4(%rbp),%edx
    7df5:	8b 45 f8             	mov    -0x8(%rbp),%eax
    7df8:	89 c1                	mov    %eax,%ecx
    7dfa:	d3 e2                	shl    %cl,%edx
    7dfc:	89 d0                	mov    %edx,%eax
    7dfe:	eb 04                	jmp    7e04 <safe_lshift_func_uint16_t_u_s+0x46>
    7e00:	0f b7 45 fc          	movzwl -0x4(%rbp),%eax
    7e04:	5d                   	pop    %rbp
    7e05:	c3                   	retq   

0000000000007e06 <safe_lshift_func_uint16_t_u_u>:
    7e06:	f3 0f 1e fa          	endbr64 
    7e0a:	55                   	push   %rbp
    7e0b:	48 89 e5             	mov    %rsp,%rbp
    7e0e:	89 f8                	mov    %edi,%eax
    7e10:	89 75 f8             	mov    %esi,-0x8(%rbp)
    7e13:	66 89 45 fc          	mov    %ax,-0x4(%rbp)
    7e17:	83 7d f8 1f          	cmpl   $0x1f,-0x8(%rbp)
    7e1b:	77 25                	ja     7e42 <safe_lshift_func_uint16_t_u_u+0x3c>
    7e1d:	0f b7 55 fc          	movzwl -0x4(%rbp),%edx
    7e21:	8b 45 f8             	mov    -0x8(%rbp),%eax
    7e24:	be ff ff 00 00       	mov    $0xffff,%esi
    7e29:	89 c1                	mov    %eax,%ecx
    7e2b:	d3 fe                	sar    %cl,%esi
    7e2d:	89 f0                	mov    %esi,%eax
    7e2f:	39 c2                	cmp    %eax,%edx
    7e31:	7f 0f                	jg     7e42 <safe_lshift_func_uint16_t_u_u+0x3c>
    7e33:	0f b7 55 fc          	movzwl -0x4(%rbp),%edx
    7e37:	8b 45 f8             	mov    -0x8(%rbp),%eax
    7e3a:	89 c1                	mov    %eax,%ecx
    7e3c:	d3 e2                	shl    %cl,%edx
    7e3e:	89 d0                	mov    %edx,%eax
    7e40:	eb 04                	jmp    7e46 <safe_lshift_func_uint16_t_u_u+0x40>
    7e42:	0f b7 45 fc          	movzwl -0x4(%rbp),%eax
    7e46:	5d                   	pop    %rbp
    7e47:	c3                   	retq   

0000000000007e48 <safe_rshift_func_uint16_t_u_s>:
    7e48:	f3 0f 1e fa          	endbr64 
    7e4c:	55                   	push   %rbp
    7e4d:	48 89 e5             	mov    %rsp,%rbp
    7e50:	89 f8                	mov    %edi,%eax
    7e52:	89 75 f8             	mov    %esi,-0x8(%rbp)
    7e55:	66 89 45 fc          	mov    %ax,-0x4(%rbp)
    7e59:	83 7d f8 00          	cmpl   $0x0,-0x8(%rbp)
    7e5d:	78 15                	js     7e74 <safe_rshift_func_uint16_t_u_s+0x2c>
    7e5f:	83 7d f8 1f          	cmpl   $0x1f,-0x8(%rbp)
    7e63:	7f 0f                	jg     7e74 <safe_rshift_func_uint16_t_u_s+0x2c>
    7e65:	0f b7 55 fc          	movzwl -0x4(%rbp),%edx
    7e69:	8b 45 f8             	mov    -0x8(%rbp),%eax
    7e6c:	89 c1                	mov    %eax,%ecx
    7e6e:	d3 fa                	sar    %cl,%edx
    7e70:	89 d0                	mov    %edx,%eax
    7e72:	eb 04                	jmp    7e78 <safe_rshift_func_uint16_t_u_s+0x30>
    7e74:	0f b7 45 fc          	movzwl -0x4(%rbp),%eax
    7e78:	5d                   	pop    %rbp
    7e79:	c3                   	retq   

0000000000007e7a <safe_rshift_func_uint16_t_u_u>:
    7e7a:	f3 0f 1e fa          	endbr64 
    7e7e:	55                   	push   %rbp
    7e7f:	48 89 e5             	mov    %rsp,%rbp
    7e82:	89 f8                	mov    %edi,%eax
    7e84:	89 75 f8             	mov    %esi,-0x8(%rbp)
    7e87:	66 89 45 fc          	mov    %ax,-0x4(%rbp)
    7e8b:	83 7d f8 1f          	cmpl   $0x1f,-0x8(%rbp)
    7e8f:	77 0f                	ja     7ea0 <safe_rshift_func_uint16_t_u_u+0x26>
    7e91:	0f b7 55 fc          	movzwl -0x4(%rbp),%edx
    7e95:	8b 45 f8             	mov    -0x8(%rbp),%eax
    7e98:	89 c1                	mov    %eax,%ecx
    7e9a:	d3 fa                	sar    %cl,%edx
    7e9c:	89 d0                	mov    %edx,%eax
    7e9e:	eb 04                	jmp    7ea4 <safe_rshift_func_uint16_t_u_u+0x2a>
    7ea0:	0f b7 45 fc          	movzwl -0x4(%rbp),%eax
    7ea4:	5d                   	pop    %rbp
    7ea5:	c3                   	retq   

0000000000007ea6 <safe_unary_minus_func_uint32_t_u>:
    7ea6:	f3 0f 1e fa          	endbr64 
    7eaa:	55                   	push   %rbp
    7eab:	48 89 e5             	mov    %rsp,%rbp
    7eae:	89 7d fc             	mov    %edi,-0x4(%rbp)
    7eb1:	8b 45 fc             	mov    -0x4(%rbp),%eax
    7eb4:	f7 d8                	neg    %eax
    7eb6:	5d                   	pop    %rbp
    7eb7:	c3                   	retq   

0000000000007eb8 <safe_add_func_uint32_t_u_u>:
    7eb8:	f3 0f 1e fa          	endbr64 
    7ebc:	55                   	push   %rbp
    7ebd:	48 89 e5             	mov    %rsp,%rbp
    7ec0:	89 7d fc             	mov    %edi,-0x4(%rbp)
    7ec3:	89 75 f8             	mov    %esi,-0x8(%rbp)
    7ec6:	8b 55 fc             	mov    -0x4(%rbp),%edx
    7ec9:	8b 45 f8             	mov    -0x8(%rbp),%eax
    7ecc:	01 d0                	add    %edx,%eax
    7ece:	5d                   	pop    %rbp
    7ecf:	c3                   	retq   

0000000000007ed0 <safe_sub_func_uint32_t_u_u>:
    7ed0:	f3 0f 1e fa          	endbr64 
    7ed4:	55                   	push   %rbp
    7ed5:	48 89 e5             	mov    %rsp,%rbp
    7ed8:	89 7d fc             	mov    %edi,-0x4(%rbp)
    7edb:	89 75 f8             	mov    %esi,-0x8(%rbp)
    7ede:	8b 45 fc             	mov    -0x4(%rbp),%eax
    7ee1:	2b 45 f8             	sub    -0x8(%rbp),%eax
    7ee4:	5d                   	pop    %rbp
    7ee5:	c3                   	retq   

0000000000007ee6 <safe_mul_func_uint32_t_u_u>:
    7ee6:	f3 0f 1e fa          	endbr64 
    7eea:	55                   	push   %rbp
    7eeb:	48 89 e5             	mov    %rsp,%rbp
    7eee:	89 7d fc             	mov    %edi,-0x4(%rbp)
    7ef1:	89 75 f8             	mov    %esi,-0x8(%rbp)
    7ef4:	8b 45 fc             	mov    -0x4(%rbp),%eax
    7ef7:	0f af 45 f8          	imul   -0x8(%rbp),%eax
    7efb:	5d                   	pop    %rbp
    7efc:	c3                   	retq   

0000000000007efd <safe_mod_func_uint32_t_u_u>:
    7efd:	f3 0f 1e fa          	endbr64 
    7f01:	55                   	push   %rbp
    7f02:	48 89 e5             	mov    %rsp,%rbp
    7f05:	89 7d fc             	mov    %edi,-0x4(%rbp)
    7f08:	89 75 f8             	mov    %esi,-0x8(%rbp)
    7f0b:	83 7d f8 00          	cmpl   $0x0,-0x8(%rbp)
    7f0f:	74 0f                	je     7f20 <safe_mod_func_uint32_t_u_u+0x23>
    7f11:	8b 45 fc             	mov    -0x4(%rbp),%eax
    7f14:	ba 00 00 00 00       	mov    $0x0,%edx
    7f19:	f7 75 f8             	divl   -0x8(%rbp)
    7f1c:	89 d0                	mov    %edx,%eax
    7f1e:	eb 03                	jmp    7f23 <safe_mod_func_uint32_t_u_u+0x26>
    7f20:	8b 45 fc             	mov    -0x4(%rbp),%eax
    7f23:	5d                   	pop    %rbp
    7f24:	c3                   	retq   

0000000000007f25 <safe_div_func_uint32_t_u_u>:
    7f25:	f3 0f 1e fa          	endbr64 
    7f29:	55                   	push   %rbp
    7f2a:	48 89 e5             	mov    %rsp,%rbp
    7f2d:	89 7d fc             	mov    %edi,-0x4(%rbp)
    7f30:	89 75 f8             	mov    %esi,-0x8(%rbp)
    7f33:	83 7d f8 00          	cmpl   $0x0,-0x8(%rbp)
    7f37:	74 0d                	je     7f46 <safe_div_func_uint32_t_u_u+0x21>
    7f39:	8b 45 fc             	mov    -0x4(%rbp),%eax
    7f3c:	ba 00 00 00 00       	mov    $0x0,%edx
    7f41:	f7 75 f8             	divl   -0x8(%rbp)
    7f44:	eb 03                	jmp    7f49 <safe_div_func_uint32_t_u_u+0x24>
    7f46:	8b 45 fc             	mov    -0x4(%rbp),%eax
    7f49:	5d                   	pop    %rbp
    7f4a:	c3                   	retq   

0000000000007f4b <safe_lshift_func_uint32_t_u_s>:
    7f4b:	f3 0f 1e fa          	endbr64 
    7f4f:	55                   	push   %rbp
    7f50:	48 89 e5             	mov    %rsp,%rbp
    7f53:	89 7d fc             	mov    %edi,-0x4(%rbp)
    7f56:	89 75 f8             	mov    %esi,-0x8(%rbp)
    7f59:	83 7d f8 00          	cmpl   $0x0,-0x8(%rbp)
    7f5d:	78 27                	js     7f86 <safe_lshift_func_uint32_t_u_s+0x3b>
    7f5f:	83 7d f8 1f          	cmpl   $0x1f,-0x8(%rbp)
    7f63:	7f 21                	jg     7f86 <safe_lshift_func_uint32_t_u_s+0x3b>
    7f65:	8b 45 f8             	mov    -0x8(%rbp),%eax
    7f68:	ba ff ff ff ff       	mov    $0xffffffff,%edx
    7f6d:	89 c1                	mov    %eax,%ecx
    7f6f:	d3 ea                	shr    %cl,%edx
    7f71:	89 d0                	mov    %edx,%eax
    7f73:	39 45 fc             	cmp    %eax,-0x4(%rbp)
    7f76:	77 0e                	ja     7f86 <safe_lshift_func_uint32_t_u_s+0x3b>
    7f78:	8b 45 f8             	mov    -0x8(%rbp),%eax
    7f7b:	8b 55 fc             	mov    -0x4(%rbp),%edx
    7f7e:	89 c1                	mov    %eax,%ecx
    7f80:	d3 e2                	shl    %cl,%edx
    7f82:	89 d0                	mov    %edx,%eax
    7f84:	eb 03                	jmp    7f89 <safe_lshift_func_uint32_t_u_s+0x3e>
    7f86:	8b 45 fc             	mov    -0x4(%rbp),%eax
    7f89:	5d                   	pop    %rbp
    7f8a:	c3                   	retq   

0000000000007f8b <safe_lshift_func_uint32_t_u_u>:
    7f8b:	f3 0f 1e fa          	endbr64 
    7f8f:	55                   	push   %rbp
    7f90:	48 89 e5             	mov    %rsp,%rbp
    7f93:	89 7d fc             	mov    %edi,-0x4(%rbp)
    7f96:	89 75 f8             	mov    %esi,-0x8(%rbp)
    7f99:	83 7d f8 1f          	cmpl   $0x1f,-0x8(%rbp)
    7f9d:	77 21                	ja     7fc0 <safe_lshift_func_uint32_t_u_u+0x35>
    7f9f:	8b 45 f8             	mov    -0x8(%rbp),%eax
    7fa2:	ba ff ff ff ff       	mov    $0xffffffff,%edx
    7fa7:	89 c1                	mov    %eax,%ecx
    7fa9:	d3 ea                	shr    %cl,%edx
    7fab:	89 d0                	mov    %edx,%eax
    7fad:	39 45 fc             	cmp    %eax,-0x4(%rbp)
    7fb0:	77 0e                	ja     7fc0 <safe_lshift_func_uint32_t_u_u+0x35>
    7fb2:	8b 45 f8             	mov    -0x8(%rbp),%eax
    7fb5:	8b 55 fc             	mov    -0x4(%rbp),%edx
    7fb8:	89 c1                	mov    %eax,%ecx
    7fba:	d3 e2                	shl    %cl,%edx
    7fbc:	89 d0                	mov    %edx,%eax
    7fbe:	eb 03                	jmp    7fc3 <safe_lshift_func_uint32_t_u_u+0x38>
    7fc0:	8b 45 fc             	mov    -0x4(%rbp),%eax
    7fc3:	5d                   	pop    %rbp
    7fc4:	c3                   	retq   

0000000000007fc5 <safe_rshift_func_uint32_t_u_s>:
    7fc5:	f3 0f 1e fa          	endbr64 
    7fc9:	55                   	push   %rbp
    7fca:	48 89 e5             	mov    %rsp,%rbp
    7fcd:	89 7d fc             	mov    %edi,-0x4(%rbp)
    7fd0:	89 75 f8             	mov    %esi,-0x8(%rbp)
    7fd3:	83 7d f8 00          	cmpl   $0x0,-0x8(%rbp)
    7fd7:	78 14                	js     7fed <safe_rshift_func_uint32_t_u_s+0x28>
    7fd9:	83 7d f8 1f          	cmpl   $0x1f,-0x8(%rbp)
    7fdd:	7f 0e                	jg     7fed <safe_rshift_func_uint32_t_u_s+0x28>
    7fdf:	8b 45 f8             	mov    -0x8(%rbp),%eax
    7fe2:	8b 55 fc             	mov    -0x4(%rbp),%edx
    7fe5:	89 c1                	mov    %eax,%ecx
    7fe7:	d3 ea                	shr    %cl,%edx
    7fe9:	89 d0                	mov    %edx,%eax
    7feb:	eb 03                	jmp    7ff0 <safe_rshift_func_uint32_t_u_s+0x2b>
    7fed:	8b 45 fc             	mov    -0x4(%rbp),%eax
    7ff0:	5d                   	pop    %rbp
    7ff1:	c3                   	retq   

0000000000007ff2 <safe_rshift_func_uint32_t_u_u>:
    7ff2:	f3 0f 1e fa          	endbr64 
    7ff6:	55                   	push   %rbp
    7ff7:	48 89 e5             	mov    %rsp,%rbp
    7ffa:	89 7d fc             	mov    %edi,-0x4(%rbp)
    7ffd:	89 75 f8             	mov    %esi,-0x8(%rbp)
    8000:	83 7d f8 1f          	cmpl   $0x1f,-0x8(%rbp)
    8004:	77 0e                	ja     8014 <safe_rshift_func_uint32_t_u_u+0x22>
    8006:	8b 45 f8             	mov    -0x8(%rbp),%eax
    8009:	8b 55 fc             	mov    -0x4(%rbp),%edx
    800c:	89 c1                	mov    %eax,%ecx
    800e:	d3 ea                	shr    %cl,%edx
    8010:	89 d0                	mov    %edx,%eax
    8012:	eb 03                	jmp    8017 <safe_rshift_func_uint32_t_u_u+0x25>
    8014:	8b 45 fc             	mov    -0x4(%rbp),%eax
    8017:	5d                   	pop    %rbp
    8018:	c3                   	retq   

0000000000008019 <safe_unary_minus_func_uint64_t_u>:
    8019:	f3 0f 1e fa          	endbr64 
    801d:	55                   	push   %rbp
    801e:	48 89 e5             	mov    %rsp,%rbp
    8021:	48 89 7d f8          	mov    %rdi,-0x8(%rbp)
    8025:	48 8b 45 f8          	mov    -0x8(%rbp),%rax
    8029:	48 f7 d8             	neg    %rax
    802c:	5d                   	pop    %rbp
    802d:	c3                   	retq   

000000000000802e <safe_add_func_uint64_t_u_u>:
    802e:	f3 0f 1e fa          	endbr64 
    8032:	55                   	push   %rbp
    8033:	48 89 e5             	mov    %rsp,%rbp
    8036:	48 89 7d f8          	mov    %rdi,-0x8(%rbp)
    803a:	48 89 75 f0          	mov    %rsi,-0x10(%rbp)
    803e:	48 8b 55 f8          	mov    -0x8(%rbp),%rdx
    8042:	48 8b 45 f0          	mov    -0x10(%rbp),%rax
    8046:	48 01 d0             	add    %rdx,%rax
    8049:	5d                   	pop    %rbp
    804a:	c3                   	retq   

000000000000804b <safe_sub_func_uint64_t_u_u>:
    804b:	f3 0f 1e fa          	endbr64 
    804f:	55                   	push   %rbp
    8050:	48 89 e5             	mov    %rsp,%rbp
    8053:	48 89 7d f8          	mov    %rdi,-0x8(%rbp)
    8057:	48 89 75 f0          	mov    %rsi,-0x10(%rbp)
    805b:	48 8b 45 f8          	mov    -0x8(%rbp),%rax
    805f:	48 2b 45 f0          	sub    -0x10(%rbp),%rax
    8063:	5d                   	pop    %rbp
    8064:	c3                   	retq   

0000000000008065 <safe_mul_func_uint64_t_u_u>:
    8065:	f3 0f 1e fa          	endbr64 
    8069:	55                   	push   %rbp
    806a:	48 89 e5             	mov    %rsp,%rbp
    806d:	48 89 7d f8          	mov    %rdi,-0x8(%rbp)
    8071:	48 89 75 f0          	mov    %rsi,-0x10(%rbp)
    8075:	48 8b 45 f8          	mov    -0x8(%rbp),%rax
    8079:	48 0f af 45 f0       	imul   -0x10(%rbp),%rax
    807e:	5d                   	pop    %rbp
    807f:	c3                   	retq   

0000000000008080 <safe_mod_func_uint64_t_u_u>:
    8080:	f3 0f 1e fa          	endbr64 
    8084:	55                   	push   %rbp
    8085:	48 89 e5             	mov    %rsp,%rbp
    8088:	48 89 7d f8          	mov    %rdi,-0x8(%rbp)
    808c:	48 89 75 f0          	mov    %rsi,-0x10(%rbp)
    8090:	48 83 7d f0 00       	cmpq   $0x0,-0x10(%rbp)
    8095:	74 12                	je     80a9 <safe_mod_func_uint64_t_u_u+0x29>
    8097:	48 8b 45 f8          	mov    -0x8(%rbp),%rax
    809b:	ba 00 00 00 00       	mov    $0x0,%edx
    80a0:	48 f7 75 f0          	divq   -0x10(%rbp)
    80a4:	48 89 d0             	mov    %rdx,%rax
    80a7:	eb 04                	jmp    80ad <safe_mod_func_uint64_t_u_u+0x2d>
    80a9:	48 8b 45 f8          	mov    -0x8(%rbp),%rax
    80ad:	5d                   	pop    %rbp
    80ae:	c3                   	retq   

00000000000080af <safe_div_func_uint64_t_u_u>:
    80af:	f3 0f 1e fa          	endbr64 
    80b3:	55                   	push   %rbp
    80b4:	48 89 e5             	mov    %rsp,%rbp
    80b7:	48 89 7d f8          	mov    %rdi,-0x8(%rbp)
    80bb:	48 89 75 f0          	mov    %rsi,-0x10(%rbp)
    80bf:	48 83 7d f0 00       	cmpq   $0x0,-0x10(%rbp)
    80c4:	74 0f                	je     80d5 <safe_div_func_uint64_t_u_u+0x26>
    80c6:	48 8b 45 f8          	mov    -0x8(%rbp),%rax
    80ca:	ba 00 00 00 00       	mov    $0x0,%edx
    80cf:	48 f7 75 f0          	divq   -0x10(%rbp)
    80d3:	eb 04                	jmp    80d9 <safe_div_func_uint64_t_u_u+0x2a>
    80d5:	48 8b 45 f8          	mov    -0x8(%rbp),%rax
    80d9:	5d                   	pop    %rbp
    80da:	c3                   	retq   

00000000000080db <safe_lshift_func_uint64_t_u_s>:
    80db:	f3 0f 1e fa          	endbr64 
    80df:	55                   	push   %rbp
    80e0:	48 89 e5             	mov    %rsp,%rbp
    80e3:	48 89 7d f8          	mov    %rdi,-0x8(%rbp)
    80e7:	89 75 f4             	mov    %esi,-0xc(%rbp)
    80ea:	83 7d f4 00          	cmpl   $0x0,-0xc(%rbp)
    80ee:	78 2f                	js     811f <safe_lshift_func_uint64_t_u_s+0x44>
    80f0:	83 7d f4 1f          	cmpl   $0x1f,-0xc(%rbp)
    80f4:	7f 29                	jg     811f <safe_lshift_func_uint64_t_u_s+0x44>
    80f6:	8b 45 f4             	mov    -0xc(%rbp),%eax
    80f9:	48 c7 c2 ff ff ff ff 	mov    $0xffffffffffffffff,%rdx
    8100:	89 c1                	mov    %eax,%ecx
    8102:	48 d3 ea             	shr    %cl,%rdx
    8105:	48 89 d0             	mov    %rdx,%rax
    8108:	48 39 45 f8          	cmp    %rax,-0x8(%rbp)
    810c:	77 11                	ja     811f <safe_lshift_func_uint64_t_u_s+0x44>
    810e:	8b 45 f4             	mov    -0xc(%rbp),%eax
    8111:	48 8b 55 f8          	mov    -0x8(%rbp),%rdx
    8115:	89 c1                	mov    %eax,%ecx
    8117:	48 d3 e2             	shl    %cl,%rdx
    811a:	48 89 d0             	mov    %rdx,%rax
    811d:	eb 04                	jmp    8123 <safe_lshift_func_uint64_t_u_s+0x48>
    811f:	48 8b 45 f8          	mov    -0x8(%rbp),%rax
    8123:	5d                   	pop    %rbp
    8124:	c3                   	retq   

0000000000008125 <safe_lshift_func_uint64_t_u_u>:
    8125:	f3 0f 1e fa          	endbr64 
    8129:	55                   	push   %rbp
    812a:	48 89 e5             	mov    %rsp,%rbp
    812d:	48 89 7d f8          	mov    %rdi,-0x8(%rbp)
    8131:	89 75 f4             	mov    %esi,-0xc(%rbp)
    8134:	83 7d f4 1f          	cmpl   $0x1f,-0xc(%rbp)
    8138:	77 29                	ja     8163 <safe_lshift_func_uint64_t_u_u+0x3e>
    813a:	8b 45 f4             	mov    -0xc(%rbp),%eax
    813d:	48 c7 c2 ff ff ff ff 	mov    $0xffffffffffffffff,%rdx
    8144:	89 c1                	mov    %eax,%ecx
    8146:	48 d3 ea             	shr    %cl,%rdx
    8149:	48 89 d0             	mov    %rdx,%rax
    814c:	48 39 45 f8          	cmp    %rax,-0x8(%rbp)
    8150:	77 11                	ja     8163 <safe_lshift_func_uint64_t_u_u+0x3e>
    8152:	8b 45 f4             	mov    -0xc(%rbp),%eax
    8155:	48 8b 55 f8          	mov    -0x8(%rbp),%rdx
    8159:	89 c1                	mov    %eax,%ecx
    815b:	48 d3 e2             	shl    %cl,%rdx
    815e:	48 89 d0             	mov    %rdx,%rax
    8161:	eb 04                	jmp    8167 <safe_lshift_func_uint64_t_u_u+0x42>
    8163:	48 8b 45 f8          	mov    -0x8(%rbp),%rax
    8167:	5d                   	pop    %rbp
    8168:	c3                   	retq   

0000000000008169 <safe_rshift_func_uint64_t_u_s>:
    8169:	f3 0f 1e fa          	endbr64 
    816d:	55                   	push   %rbp
    816e:	48 89 e5             	mov    %rsp,%rbp
    8171:	48 89 7d f8          	mov    %rdi,-0x8(%rbp)
    8175:	89 75 f4             	mov    %esi,-0xc(%rbp)
    8178:	83 7d f4 00          	cmpl   $0x0,-0xc(%rbp)
    817c:	78 17                	js     8195 <safe_rshift_func_uint64_t_u_s+0x2c>
    817e:	83 7d f4 1f          	cmpl   $0x1f,-0xc(%rbp)
    8182:	7f 11                	jg     8195 <safe_rshift_func_uint64_t_u_s+0x2c>
    8184:	8b 45 f4             	mov    -0xc(%rbp),%eax
    8187:	48 8b 55 f8          	mov    -0x8(%rbp),%rdx
    818b:	89 c1                	mov    %eax,%ecx
    818d:	48 d3 ea             	shr    %cl,%rdx
    8190:	48 89 d0             	mov    %rdx,%rax
    8193:	eb 04                	jmp    8199 <safe_rshift_func_uint64_t_u_s+0x30>
    8195:	48 8b 45 f8          	mov    -0x8(%rbp),%rax
    8199:	5d                   	pop    %rbp
    819a:	c3                   	retq   

000000000000819b <safe_rshift_func_uint64_t_u_u>:
    819b:	f3 0f 1e fa          	endbr64 
    819f:	55                   	push   %rbp
    81a0:	48 89 e5             	mov    %rsp,%rbp
    81a3:	48 89 7d f8          	mov    %rdi,-0x8(%rbp)
    81a7:	89 75 f4             	mov    %esi,-0xc(%rbp)
    81aa:	83 7d f4 1f          	cmpl   $0x1f,-0xc(%rbp)
    81ae:	77 11                	ja     81c1 <safe_rshift_func_uint64_t_u_u+0x26>
    81b0:	8b 45 f4             	mov    -0xc(%rbp),%eax
    81b3:	48 8b 55 f8          	mov    -0x8(%rbp),%rdx
    81b7:	89 c1                	mov    %eax,%ecx
    81b9:	48 d3 ea             	shr    %cl,%rdx
    81bc:	48 89 d0             	mov    %rdx,%rax
    81bf:	eb 04                	jmp    81c5 <safe_rshift_func_uint64_t_u_u+0x2a>
    81c1:	48 8b 45 f8          	mov    -0x8(%rbp),%rax
    81c5:	5d                   	pop    %rbp
    81c6:	c3                   	retq   

00000000000081c7 <safe_add_func_float_f_f>:
    81c7:	f3 0f 1e fa          	endbr64 
    81cb:	55                   	push   %rbp
    81cc:	48 89 e5             	mov    %rsp,%rbp
    81cf:	f3 0f 11 45 fc       	movss  %xmm0,-0x4(%rbp)
    81d4:	f3 0f 11 4d f8       	movss  %xmm1,-0x8(%rbp)
    81d9:	f3 0f 10 4d fc       	movss  -0x4(%rbp),%xmm1
    81de:	f3 0f 10 05 ba 44 01 	movss  0x144ba(%rip),%xmm0        # 1c6a0 <l_1467.4691+0x1c0>
    81e5:	00 
    81e6:	f3 0f 59 c8          	mulss  %xmm0,%xmm1
    81ea:	f3 0f 10 55 f8       	movss  -0x8(%rbp),%xmm2
    81ef:	f3 0f 10 05 a9 44 01 	movss  0x144a9(%rip),%xmm0        # 1c6a0 <l_1467.4691+0x1c0>
    81f6:	00 
    81f7:	f3 0f 59 c2          	mulss  %xmm2,%xmm0
    81fb:	f3 0f 58 c1          	addss  %xmm1,%xmm0
    81ff:	f3 0f 10 0d a9 44 01 	movss  0x144a9(%rip),%xmm1        # 1c6b0 <l_1467.4691+0x1d0>
    8206:	00 
    8207:	0f 54 c1             	andps  %xmm1,%xmm0
    820a:	0f 2f 05 af 44 01 00 	comiss 0x144af(%rip),%xmm0        # 1c6c0 <l_1467.4691+0x1e0>
    8211:	76 07                	jbe    821a <safe_add_func_float_f_f+0x53>
    8213:	f3 0f 10 45 fc       	movss  -0x4(%rbp),%xmm0
    8218:	eb 0a                	jmp    8224 <safe_add_func_float_f_f+0x5d>
    821a:	f3 0f 10 45 fc       	movss  -0x4(%rbp),%xmm0
    821f:	f3 0f 58 45 f8       	addss  -0x8(%rbp),%xmm0
    8224:	5d                   	pop    %rbp
    8225:	c3                   	retq   

0000000000008226 <safe_sub_func_float_f_f>:
    8226:	f3 0f 1e fa          	endbr64 
    822a:	55                   	push   %rbp
    822b:	48 89 e5             	mov    %rsp,%rbp
    822e:	f3 0f 11 45 fc       	movss  %xmm0,-0x4(%rbp)
    8233:	f3 0f 11 4d f8       	movss  %xmm1,-0x8(%rbp)
    8238:	f3 0f 10 4d fc       	movss  -0x4(%rbp),%xmm1
    823d:	f3 0f 10 05 5b 44 01 	movss  0x1445b(%rip),%xmm0        # 1c6a0 <l_1467.4691+0x1c0>
    8244:	00 
    8245:	f3 0f 59 c1          	mulss  %xmm1,%xmm0
    8249:	f3 0f 10 55 f8       	movss  -0x8(%rbp),%xmm2
    824e:	f3 0f 10 0d 4a 44 01 	movss  0x1444a(%rip),%xmm1        # 1c6a0 <l_1467.4691+0x1c0>
    8255:	00 
    8256:	f3 0f 59 ca          	mulss  %xmm2,%xmm1
    825a:	f3 0f 5c c1          	subss  %xmm1,%xmm0
    825e:	f3 0f 10 0d 4a 44 01 	movss  0x1444a(%rip),%xmm1        # 1c6b0 <l_1467.4691+0x1d0>
    8265:	00 
    8266:	0f 54 c1             	andps  %xmm1,%xmm0
    8269:	0f 2f 05 50 44 01 00 	comiss 0x14450(%rip),%xmm0        # 1c6c0 <l_1467.4691+0x1e0>
    8270:	76 07                	jbe    8279 <safe_sub_func_float_f_f+0x53>
    8272:	f3 0f 10 45 fc       	movss  -0x4(%rbp),%xmm0
    8277:	eb 0a                	jmp    8283 <safe_sub_func_float_f_f+0x5d>
    8279:	f3 0f 10 45 fc       	movss  -0x4(%rbp),%xmm0
    827e:	f3 0f 5c 45 f8       	subss  -0x8(%rbp),%xmm0
    8283:	5d                   	pop    %rbp
    8284:	c3                   	retq   

0000000000008285 <safe_mul_func_float_f_f>:
    8285:	f3 0f 1e fa          	endbr64 
    8289:	55                   	push   %rbp
    828a:	48 89 e5             	mov    %rsp,%rbp
    828d:	f3 0f 11 45 fc       	movss  %xmm0,-0x4(%rbp)
    8292:	f3 0f 11 4d f8       	movss  %xmm1,-0x8(%rbp)
    8297:	f3 0f 10 4d fc       	movss  -0x4(%rbp),%xmm1
    829c:	f3 0f 10 05 20 44 01 	movss  0x14420(%rip),%xmm0        # 1c6c4 <l_1467.4691+0x1e4>
    82a3:	00 
    82a4:	f3 0f 59 c8          	mulss  %xmm0,%xmm1
    82a8:	f3 0f 10 55 f8       	movss  -0x8(%rbp),%xmm2
    82ad:	f3 0f 10 05 13 44 01 	movss  0x14413(%rip),%xmm0        # 1c6c8 <l_1467.4691+0x1e8>
    82b4:	00 
    82b5:	f3 0f 59 c2          	mulss  %xmm2,%xmm0
    82b9:	f3 0f 59 c1          	mulss  %xmm1,%xmm0
    82bd:	f3 0f 10 0d eb 43 01 	movss  0x143eb(%rip),%xmm1        # 1c6b0 <l_1467.4691+0x1d0>
    82c4:	00 
    82c5:	0f 54 c1             	andps  %xmm1,%xmm0
    82c8:	0f 2f 05 fd 43 01 00 	comiss 0x143fd(%rip),%xmm0        # 1c6cc <l_1467.4691+0x1ec>
    82cf:	76 07                	jbe    82d8 <safe_mul_func_float_f_f+0x53>
    82d1:	f3 0f 10 45 fc       	movss  -0x4(%rbp),%xmm0
    82d6:	eb 0a                	jmp    82e2 <safe_mul_func_float_f_f+0x5d>
    82d8:	f3 0f 10 45 fc       	movss  -0x4(%rbp),%xmm0
    82dd:	f3 0f 59 45 f8       	mulss  -0x8(%rbp),%xmm0
    82e2:	5d                   	pop    %rbp
    82e3:	c3                   	retq   

00000000000082e4 <safe_div_func_float_f_f>:
    82e4:	f3 0f 1e fa          	endbr64 
    82e8:	55                   	push   %rbp
    82e9:	48 89 e5             	mov    %rsp,%rbp
    82ec:	f3 0f 11 45 fc       	movss  %xmm0,-0x4(%rbp)
    82f1:	f3 0f 11 4d f8       	movss  %xmm1,-0x8(%rbp)
    82f6:	f3 0f 10 45 f8       	movss  -0x8(%rbp),%xmm0
    82fb:	f3 0f 10 0d ad 43 01 	movss  0x143ad(%rip),%xmm1        # 1c6b0 <l_1467.4691+0x1d0>
    8302:	00 
    8303:	0f 54 c8             	andps  %xmm0,%xmm1
    8306:	f3 0f 10 05 c2 43 01 	movss  0x143c2(%rip),%xmm0        # 1c6d0 <l_1467.4691+0x1f0>
    830d:	00 
    830e:	0f 2f c1             	comiss %xmm1,%xmm0
    8311:	0f 97 c0             	seta   %al
    8314:	83 f0 01             	xor    $0x1,%eax
    8317:	84 c0                	test   %al,%al
    8319:	75 56                	jne    8371 <safe_div_func_float_f_f+0x8d>
    831b:	66 0f ef c0          	pxor   %xmm0,%xmm0
    831f:	0f 2e 45 f8          	ucomiss -0x8(%rbp),%xmm0
    8323:	7a 0a                	jp     832f <safe_div_func_float_f_f+0x4b>
    8325:	66 0f ef c0          	pxor   %xmm0,%xmm0
    8329:	0f 2e 45 f8          	ucomiss -0x8(%rbp),%xmm0
    832d:	74 4e                	je     837d <safe_div_func_float_f_f+0x99>
    832f:	f3 0f 10 4d fc       	movss  -0x4(%rbp),%xmm1
    8334:	f3 0f 10 05 98 43 01 	movss  0x14398(%rip),%xmm0        # 1c6d4 <l_1467.4691+0x1f4>
    833b:	00 
    833c:	f3 0f 59 c1          	mulss  %xmm1,%xmm0
    8340:	f3 0f 10 55 f8       	movss  -0x8(%rbp),%xmm2
    8345:	f3 0f 10 0d 8b 43 01 	movss  0x1438b(%rip),%xmm1        # 1c6d8 <l_1467.4691+0x1f8>
    834c:	00 
    834d:	f3 0f 59 ca          	mulss  %xmm2,%xmm1
    8351:	f3 0f 5e c1          	divss  %xmm1,%xmm0
    8355:	f3 0f 10 0d 53 43 01 	movss  0x14353(%rip),%xmm1        # 1c6b0 <l_1467.4691+0x1d0>
    835c:	00 
    835d:	0f 54 c1             	andps  %xmm1,%xmm0
    8360:	0f 2f 05 75 43 01 00 	comiss 0x14375(%rip),%xmm0        # 1c6dc <l_1467.4691+0x1fc>
    8367:	0f 97 c0             	seta   %al
    836a:	83 f0 01             	xor    $0x1,%eax
    836d:	84 c0                	test   %al,%al
    836f:	74 0c                	je     837d <safe_div_func_float_f_f+0x99>
    8371:	f3 0f 10 45 fc       	movss  -0x4(%rbp),%xmm0
    8376:	f3 0f 5e 45 f8       	divss  -0x8(%rbp),%xmm0
    837b:	eb 05                	jmp    8382 <safe_div_func_float_f_f+0x9e>
    837d:	f3 0f 10 45 fc       	movss  -0x4(%rbp),%xmm0
    8382:	5d                   	pop    %rbp
    8383:	c3                   	retq   

0000000000008384 <safe_add_func_double_f_f>:
    8384:	f3 0f 1e fa          	endbr64 
    8388:	55                   	push   %rbp
    8389:	48 89 e5             	mov    %rsp,%rbp
    838c:	f2 0f 11 45 f8       	movsd  %xmm0,-0x8(%rbp)
    8391:	f2 0f 11 4d f0       	movsd  %xmm1,-0x10(%rbp)
    8396:	f2 0f 10 4d f8       	movsd  -0x8(%rbp),%xmm1
    839b:	f2 0f 10 05 3d 43 01 	movsd  0x1433d(%rip),%xmm0        # 1c6e0 <l_1467.4691+0x200>
    83a2:	00 
    83a3:	f2 0f 59 c8          	mulsd  %xmm0,%xmm1
    83a7:	f2 0f 10 55 f0       	movsd  -0x10(%rbp),%xmm2
    83ac:	f2 0f 10 05 2c 43 01 	movsd  0x1432c(%rip),%xmm0        # 1c6e0 <l_1467.4691+0x200>
    83b3:	00 
    83b4:	f2 0f 59 c2          	mulsd  %xmm2,%xmm0
    83b8:	f2 0f 58 c1          	addsd  %xmm1,%xmm0
    83bc:	f3 0f 7e 0d 2c 43 01 	movq   0x1432c(%rip),%xmm1        # 1c6f0 <l_1467.4691+0x210>
    83c3:	00 
    83c4:	66 0f 54 c1          	andpd  %xmm1,%xmm0
    83c8:	66 0f 2f 05 30 43 01 	comisd 0x14330(%rip),%xmm0        # 1c700 <l_1467.4691+0x220>
    83cf:	00 
    83d0:	76 07                	jbe    83d9 <safe_add_func_double_f_f+0x55>
    83d2:	f2 0f 10 45 f8       	movsd  -0x8(%rbp),%xmm0
    83d7:	eb 0a                	jmp    83e3 <safe_add_func_double_f_f+0x5f>
    83d9:	f2 0f 10 45 f8       	movsd  -0x8(%rbp),%xmm0
    83de:	f2 0f 58 45 f0       	addsd  -0x10(%rbp),%xmm0
    83e3:	5d                   	pop    %rbp
    83e4:	c3                   	retq   

00000000000083e5 <safe_sub_func_double_f_f>:
    83e5:	f3 0f 1e fa          	endbr64 
    83e9:	55                   	push   %rbp
    83ea:	48 89 e5             	mov    %rsp,%rbp
    83ed:	f2 0f 11 45 f8       	movsd  %xmm0,-0x8(%rbp)
    83f2:	f2 0f 11 4d f0       	movsd  %xmm1,-0x10(%rbp)
    83f7:	f2 0f 10 4d f8       	movsd  -0x8(%rbp),%xmm1
    83fc:	f2 0f 10 05 dc 42 01 	movsd  0x142dc(%rip),%xmm0        # 1c6e0 <l_1467.4691+0x200>
    8403:	00 
    8404:	f2 0f 59 c1          	mulsd  %xmm1,%xmm0
    8408:	f2 0f 10 55 f0       	movsd  -0x10(%rbp),%xmm2
    840d:	f2 0f 10 0d cb 42 01 	movsd  0x142cb(%rip),%xmm1        # 1c6e0 <l_1467.4691+0x200>
    8414:	00 
    8415:	f2 0f 59 ca          	mulsd  %xmm2,%xmm1
    8419:	f2 0f 5c c1          	subsd  %xmm1,%xmm0
    841d:	f3 0f 7e 0d cb 42 01 	movq   0x142cb(%rip),%xmm1        # 1c6f0 <l_1467.4691+0x210>
    8424:	00 
    8425:	66 0f 54 c1          	andpd  %xmm1,%xmm0
    8429:	66 0f 2f 05 cf 42 01 	comisd 0x142cf(%rip),%xmm0        # 1c700 <l_1467.4691+0x220>
    8430:	00 
    8431:	76 07                	jbe    843a <safe_sub_func_double_f_f+0x55>
    8433:	f2 0f 10 45 f8       	movsd  -0x8(%rbp),%xmm0
    8438:	eb 0a                	jmp    8444 <safe_sub_func_double_f_f+0x5f>
    843a:	f2 0f 10 45 f8       	movsd  -0x8(%rbp),%xmm0
    843f:	f2 0f 5c 45 f0       	subsd  -0x10(%rbp),%xmm0
    8444:	5d                   	pop    %rbp
    8445:	c3                   	retq   

0000000000008446 <safe_mul_func_double_f_f>:
    8446:	f3 0f 1e fa          	endbr64 
    844a:	55                   	push   %rbp
    844b:	48 89 e5             	mov    %rsp,%rbp
    844e:	f2 0f 11 45 f8       	movsd  %xmm0,-0x8(%rbp)
    8453:	f2 0f 11 4d f0       	movsd  %xmm1,-0x10(%rbp)
    8458:	f2 0f 10 4d f8       	movsd  -0x8(%rbp),%xmm1
    845d:	f2 0f 10 05 a3 42 01 	movsd  0x142a3(%rip),%xmm0        # 1c708 <l_1467.4691+0x228>
    8464:	00 
    8465:	f2 0f 59 c8          	mulsd  %xmm0,%xmm1
    8469:	f2 0f 10 55 f0       	movsd  -0x10(%rbp),%xmm2
    846e:	f2 0f 10 05 9a 42 01 	movsd  0x1429a(%rip),%xmm0        # 1c710 <l_1467.4691+0x230>
    8475:	00 
    8476:	f2 0f 59 c2          	mulsd  %xmm2,%xmm0
    847a:	f2 0f 59 c1          	mulsd  %xmm1,%xmm0
    847e:	f3 0f 7e 0d 6a 42 01 	movq   0x1426a(%rip),%xmm1        # 1c6f0 <l_1467.4691+0x210>
    8485:	00 
    8486:	66 0f 54 c1          	andpd  %xmm1,%xmm0
    848a:	66 0f 2f 05 86 42 01 	comisd 0x14286(%rip),%xmm0        # 1c718 <l_1467.4691+0x238>
    8491:	00 
    8492:	76 07                	jbe    849b <safe_mul_func_double_f_f+0x55>
    8494:	f2 0f 10 45 f8       	movsd  -0x8(%rbp),%xmm0
    8499:	eb 0a                	jmp    84a5 <safe_mul_func_double_f_f+0x5f>
    849b:	f2 0f 10 45 f8       	movsd  -0x8(%rbp),%xmm0
    84a0:	f2 0f 59 45 f0       	mulsd  -0x10(%rbp),%xmm0
    84a5:	5d                   	pop    %rbp
    84a6:	c3                   	retq   

00000000000084a7 <safe_div_func_double_f_f>:
    84a7:	f3 0f 1e fa          	endbr64 
    84ab:	55                   	push   %rbp
    84ac:	48 89 e5             	mov    %rsp,%rbp
    84af:	f2 0f 11 45 f8       	movsd  %xmm0,-0x8(%rbp)
    84b4:	f2 0f 11 4d f0       	movsd  %xmm1,-0x10(%rbp)
    84b9:	f2 0f 10 45 f0       	movsd  -0x10(%rbp),%xmm0
    84be:	f3 0f 7e 0d 2a 42 01 	movq   0x1422a(%rip),%xmm1        # 1c6f0 <l_1467.4691+0x210>
    84c5:	00 
    84c6:	66 0f 54 c8          	andpd  %xmm0,%xmm1
    84ca:	f2 0f 10 05 4e 42 01 	movsd  0x1424e(%rip),%xmm0        # 1c720 <l_1467.4691+0x240>
    84d1:	00 
    84d2:	66 0f 2f c1          	comisd %xmm1,%xmm0
    84d6:	0f 97 c0             	seta   %al
    84d9:	83 f0 01             	xor    $0x1,%eax
    84dc:	84 c0                	test   %al,%al
    84de:	75 5a                	jne    853a <safe_div_func_double_f_f+0x93>
    84e0:	66 0f ef c0          	pxor   %xmm0,%xmm0
    84e4:	66 0f 2e 45 f0       	ucomisd -0x10(%rbp),%xmm0
    84e9:	7a 0b                	jp     84f6 <safe_div_func_double_f_f+0x4f>
    84eb:	66 0f ef c0          	pxor   %xmm0,%xmm0
    84ef:	66 0f 2e 45 f0       	ucomisd -0x10(%rbp),%xmm0
    84f4:	74 50                	je     8546 <safe_div_func_double_f_f+0x9f>
    84f6:	f2 0f 10 4d f8       	movsd  -0x8(%rbp),%xmm1
    84fb:	f2 0f 10 05 25 42 01 	movsd  0x14225(%rip),%xmm0        # 1c728 <l_1467.4691+0x248>
    8502:	00 
    8503:	f2 0f 59 c1          	mulsd  %xmm1,%xmm0
    8507:	f2 0f 10 55 f0       	movsd  -0x10(%rbp),%xmm2
    850c:	f2 0f 10 0d 1c 42 01 	movsd  0x1421c(%rip),%xmm1        # 1c730 <l_1467.4691+0x250>
    8513:	00 
    8514:	f2 0f 59 ca          	mulsd  %xmm2,%xmm1
    8518:	f2 0f 5e c1          	divsd  %xmm1,%xmm0
    851c:	f3 0f 7e 0d cc 41 01 	movq   0x141cc(%rip),%xmm1        # 1c6f0 <l_1467.4691+0x210>
    8523:	00 
    8524:	66 0f 54 c1          	andpd  %xmm1,%xmm0
    8528:	66 0f 2f 05 08 42 01 	comisd 0x14208(%rip),%xmm0        # 1c738 <l_1467.4691+0x258>
    852f:	00 
    8530:	0f 97 c0             	seta   %al
    8533:	83 f0 01             	xor    $0x1,%eax
    8536:	84 c0                	test   %al,%al
    8538:	74 0c                	je     8546 <safe_div_func_double_f_f+0x9f>
    853a:	f2 0f 10 45 f8       	movsd  -0x8(%rbp),%xmm0
    853f:	f2 0f 5e 45 f0       	divsd  -0x10(%rbp),%xmm0
    8544:	eb 05                	jmp    854b <safe_div_func_double_f_f+0xa4>
    8546:	f2 0f 10 45 f8       	movsd  -0x8(%rbp),%xmm0
    854b:	5d                   	pop    %rbp
    854c:	c3                   	retq   

000000000000854d <safe_convert_func_float_to_int32_t>:
    854d:	f3 0f 1e fa          	endbr64 
    8551:	55                   	push   %rbp
    8552:	48 89 e5             	mov    %rsp,%rbp
    8555:	f3 0f 11 45 fc       	movss  %xmm0,-0x4(%rbp)
    855a:	f3 0f 10 05 de 41 01 	movss  0x141de(%rip),%xmm0        # 1c740 <l_1467.4691+0x260>
    8561:	00 
    8562:	0f 2f 45 fc          	comiss -0x4(%rbp),%xmm0
    8566:	0f 93 c0             	setae  %al
    8569:	83 f0 01             	xor    $0x1,%eax
    856c:	84 c0                	test   %al,%al
    856e:	74 21                	je     8591 <safe_convert_func_float_to_int32_t+0x44>
    8570:	f3 0f 10 45 fc       	movss  -0x4(%rbp),%xmm0
    8575:	0f 2f 05 c8 41 01 00 	comiss 0x141c8(%rip),%xmm0        # 1c744 <l_1467.4691+0x264>
    857c:	0f 93 c0             	setae  %al
    857f:	83 f0 01             	xor    $0x1,%eax
    8582:	84 c0                	test   %al,%al
    8584:	74 0b                	je     8591 <safe_convert_func_float_to_int32_t+0x44>
    8586:	f3 0f 10 45 fc       	movss  -0x4(%rbp),%xmm0
    858b:	f3 0f 2c c0          	cvttss2si %xmm0,%eax
    858f:	eb 05                	jmp    8596 <safe_convert_func_float_to_int32_t+0x49>
    8591:	b8 ff ff ff 7f       	mov    $0x7fffffff,%eax
    8596:	5d                   	pop    %rbp
    8597:	c3                   	retq   

0000000000008598 <crc32_gentab>:
    8598:	f3 0f 1e fa          	endbr64 
    859c:	55                   	push   %rbp
    859d:	48 89 e5             	mov    %rsp,%rbp
    85a0:	c7 45 fc 20 83 b8 ed 	movl   $0xedb88320,-0x4(%rbp)
    85a7:	c7 45 f4 00 00 00 00 	movl   $0x0,-0xc(%rbp)
    85ae:	eb 51                	jmp    8601 <crc32_gentab+0x69>
    85b0:	8b 45 f4             	mov    -0xc(%rbp),%eax
    85b3:	89 45 f0             	mov    %eax,-0x10(%rbp)
    85b6:	c7 45 f8 08 00 00 00 	movl   $0x8,-0x8(%rbp)
    85bd:	eb 1e                	jmp    85dd <crc32_gentab+0x45>
    85bf:	8b 45 f0             	mov    -0x10(%rbp),%eax
    85c2:	83 e0 01             	and    $0x1,%eax
    85c5:	85 c0                	test   %eax,%eax
    85c7:	74 0d                	je     85d6 <crc32_gentab+0x3e>
    85c9:	8b 45 f0             	mov    -0x10(%rbp),%eax
    85cc:	d1 e8                	shr    %eax
    85ce:	33 45 fc             	xor    -0x4(%rbp),%eax
    85d1:	89 45 f0             	mov    %eax,-0x10(%rbp)
    85d4:	eb 03                	jmp    85d9 <crc32_gentab+0x41>
    85d6:	d1 6d f0             	shrl   -0x10(%rbp)
    85d9:	83 6d f8 01          	subl   $0x1,-0x8(%rbp)
    85dd:	83 7d f8 00          	cmpl   $0x0,-0x8(%rbp)
    85e1:	7f dc                	jg     85bf <crc32_gentab+0x27>
    85e3:	8b 45 f4             	mov    -0xc(%rbp),%eax
    85e6:	48 98                	cltq   
    85e8:	48 8d 0c 85 00 00 00 	lea    0x0(,%rax,4),%rcx
    85ef:	00 
    85f0:	48 8d 15 09 be 01 00 	lea    0x1be09(%rip),%rdx        # 24400 <crc32_tab>
    85f7:	8b 45 f0             	mov    -0x10(%rbp),%eax
    85fa:	89 04 11             	mov    %eax,(%rcx,%rdx,1)
    85fd:	83 45 f4 01          	addl   $0x1,-0xc(%rbp)
    8601:	81 7d f4 ff 00 00 00 	cmpl   $0xff,-0xc(%rbp)
    8608:	7e a6                	jle    85b0 <crc32_gentab+0x18>
    860a:	90                   	nop
    860b:	90                   	nop
    860c:	5d                   	pop    %rbp
    860d:	c3                   	retq   

000000000000860e <crc32_byte>:
    860e:	f3 0f 1e fa          	endbr64 
    8612:	55                   	push   %rbp
    8613:	48 89 e5             	mov    %rsp,%rbp
    8616:	89 f8                	mov    %edi,%eax
    8618:	88 45 fc             	mov    %al,-0x4(%rbp)
    861b:	8b 05 ff 69 01 00    	mov    0x169ff(%rip),%eax        # 1f020 <crc32_context>
    8621:	c1 e8 08             	shr    $0x8,%eax
    8624:	89 c1                	mov    %eax,%ecx
    8626:	0f b6 55 fc          	movzbl -0x4(%rbp),%edx
    862a:	8b 05 f0 69 01 00    	mov    0x169f0(%rip),%eax        # 1f020 <crc32_context>
    8630:	31 d0                	xor    %edx,%eax
    8632:	0f b6 c0             	movzbl %al,%eax
    8635:	89 c0                	mov    %eax,%eax
    8637:	48 8d 14 85 00 00 00 	lea    0x0(,%rax,4),%rdx
    863e:	00 
    863f:	48 8d 05 ba bd 01 00 	lea    0x1bdba(%rip),%rax        # 24400 <crc32_tab>
    8646:	8b 04 02             	mov    (%rdx,%rax,1),%eax
    8649:	31 c8                	xor    %ecx,%eax
    864b:	89 05 cf 69 01 00    	mov    %eax,0x169cf(%rip)        # 1f020 <crc32_context>
    8651:	90                   	nop
    8652:	5d                   	pop    %rbp
    8653:	c3                   	retq   

0000000000008654 <crc32_8bytes>:
    8654:	f3 0f 1e fa          	endbr64 
    8658:	55                   	push   %rbp
    8659:	48 89 e5             	mov    %rsp,%rbp
    865c:	48 83 ec 08          	sub    $0x8,%rsp
    8660:	48 89 7d f8          	mov    %rdi,-0x8(%rbp)
    8664:	48 8b 45 f8          	mov    -0x8(%rbp),%rax
    8668:	0f b6 c0             	movzbl %al,%eax
    866b:	89 c7                	mov    %eax,%edi
    866d:	e8 9c ff ff ff       	callq  860e <crc32_byte>
    8672:	48 8b 45 f8          	mov    -0x8(%rbp),%rax
    8676:	48 c1 e8 08          	shr    $0x8,%rax
    867a:	0f b6 c0             	movzbl %al,%eax
    867d:	89 c7                	mov    %eax,%edi
    867f:	e8 8a ff ff ff       	callq  860e <crc32_byte>
    8684:	48 8b 45 f8          	mov    -0x8(%rbp),%rax
    8688:	48 c1 e8 10          	shr    $0x10,%rax
    868c:	0f b6 c0             	movzbl %al,%eax
    868f:	89 c7                	mov    %eax,%edi
    8691:	e8 78 ff ff ff       	callq  860e <crc32_byte>
    8696:	48 8b 45 f8          	mov    -0x8(%rbp),%rax
    869a:	48 c1 e8 18          	shr    $0x18,%rax
    869e:	0f b6 c0             	movzbl %al,%eax
    86a1:	89 c7                	mov    %eax,%edi
    86a3:	e8 66 ff ff ff       	callq  860e <crc32_byte>
    86a8:	48 8b 45 f8          	mov    -0x8(%rbp),%rax
    86ac:	48 c1 e8 20          	shr    $0x20,%rax
    86b0:	0f b6 c0             	movzbl %al,%eax
    86b3:	89 c7                	mov    %eax,%edi
    86b5:	e8 54 ff ff ff       	callq  860e <crc32_byte>
    86ba:	48 8b 45 f8          	mov    -0x8(%rbp),%rax
    86be:	48 c1 e8 28          	shr    $0x28,%rax
    86c2:	0f b6 c0             	movzbl %al,%eax
    86c5:	89 c7                	mov    %eax,%edi
    86c7:	e8 42 ff ff ff       	callq  860e <crc32_byte>
    86cc:	48 8b 45 f8          	mov    -0x8(%rbp),%rax
    86d0:	48 c1 e8 30          	shr    $0x30,%rax
    86d4:	0f b6 c0             	movzbl %al,%eax
    86d7:	89 c7                	mov    %eax,%edi
    86d9:	e8 30 ff ff ff       	callq  860e <crc32_byte>
    86de:	48 8b 45 f8          	mov    -0x8(%rbp),%rax
    86e2:	48 c1 e8 38          	shr    $0x38,%rax
    86e6:	0f b6 c0             	movzbl %al,%eax
    86e9:	89 c7                	mov    %eax,%edi
    86eb:	e8 1e ff ff ff       	callq  860e <crc32_byte>
    86f0:	90                   	nop
    86f1:	c9                   	leaveq 
    86f2:	c3                   	retq   

00000000000086f3 <transparent_crc>:
    86f3:	f3 0f 1e fa          	endbr64 
    86f7:	55                   	push   %rbp
    86f8:	48 89 e5             	mov    %rsp,%rbp
    86fb:	48 83 ec 20          	sub    $0x20,%rsp
    86ff:	48 89 7d f8          	mov    %rdi,-0x8(%rbp)
    8703:	48 89 75 f0          	mov    %rsi,-0x10(%rbp)
    8707:	89 55 ec             	mov    %edx,-0x14(%rbp)
    870a:	48 8b 45 f8          	mov    -0x8(%rbp),%rax
    870e:	48 89 c7             	mov    %rax,%rdi
    8711:	e8 3e ff ff ff       	callq  8654 <crc32_8bytes>
    8716:	83 7d ec 00          	cmpl   $0x0,-0x14(%rbp)
    871a:	74 22                	je     873e <transparent_crc+0x4b>
    871c:	8b 05 fe 68 01 00    	mov    0x168fe(%rip),%eax        # 1f020 <crc32_context>
    8722:	f7 d0                	not    %eax
    8724:	89 c2                	mov    %eax,%edx
    8726:	48 8b 45 f0          	mov    -0x10(%rbp),%rax
    872a:	48 89 c6             	mov    %rax,%rsi
    872d:	48 8d 3d fc 18 01 00 	lea    0x118fc(%rip),%rdi        # 1a030 <_IO_stdin_used+0x30>
    8734:	b8 00 00 00 00       	mov    $0x0,%eax
    8739:	e8 42 e9 ff ff       	callq  7080 <printf@plt>
    873e:	90                   	nop
    873f:	c9                   	leaveq 
    8740:	c3                   	retq   

0000000000008741 <transparent_crc_bytes>:
    8741:	f3 0f 1e fa          	endbr64 
    8745:	55                   	push   %rbp
    8746:	48 89 e5             	mov    %rsp,%rbp
    8749:	48 83 ec 30          	sub    $0x30,%rsp
    874d:	48 89 7d e8          	mov    %rdi,-0x18(%rbp)
    8751:	89 75 e4             	mov    %esi,-0x1c(%rbp)
    8754:	48 89 55 d8          	mov    %rdx,-0x28(%rbp)
    8758:	89 4d e0             	mov    %ecx,-0x20(%rbp)
    875b:	c7 45 fc 00 00 00 00 	movl   $0x0,-0x4(%rbp)
    8762:	eb 1e                	jmp    8782 <transparent_crc_bytes+0x41>
    8764:	8b 45 fc             	mov    -0x4(%rbp),%eax
    8767:	48 63 d0             	movslq %eax,%rdx
    876a:	48 8b 45 e8          	mov    -0x18(%rbp),%rax
    876e:	48 01 d0             	add    %rdx,%rax
    8771:	0f b6 00             	movzbl (%rax),%eax
    8774:	0f b6 c0             	movzbl %al,%eax
    8777:	89 c7                	mov    %eax,%edi
    8779:	e8 90 fe ff ff       	callq  860e <crc32_byte>
    877e:	83 45 fc 01          	addl   $0x1,-0x4(%rbp)
    8782:	8b 45 fc             	mov    -0x4(%rbp),%eax
    8785:	3b 45 e4             	cmp    -0x1c(%rbp),%eax
    8788:	7c da                	jl     8764 <transparent_crc_bytes+0x23>
    878a:	83 7d e0 00          	cmpl   $0x0,-0x20(%rbp)
    878e:	74 22                	je     87b2 <transparent_crc_bytes+0x71>
    8790:	8b 05 8a 68 01 00    	mov    0x1688a(%rip),%eax        # 1f020 <crc32_context>
    8796:	f7 d0                	not    %eax
    8798:	89 c2                	mov    %eax,%edx
    879a:	48 8b 45 d8          	mov    -0x28(%rbp),%rax
    879e:	48 89 c6             	mov    %rax,%rsi
    87a1:	48 8d 3d 88 18 01 00 	lea    0x11888(%rip),%rdi        # 1a030 <_IO_stdin_used+0x30>
    87a8:	b8 00 00 00 00       	mov    $0x0,%eax
    87ad:	e8 ce e8 ff ff       	callq  7080 <printf@plt>
    87b2:	90                   	nop
    87b3:	c9                   	leaveq 
    87b4:	c3                   	retq   

00000000000087b5 <func_1>:
    87b5:	f3 0f 1e fa          	endbr64 
    87b9:	55                   	push   %rbp
    87ba:	48 89 e5             	mov    %rsp,%rbp
    87bd:	41 57                	push   %r15
    87bf:	41 56                	push   %r14
    87c1:	41 55                	push   %r13
    87c3:	41 54                	push   %r12
    87c5:	53                   	push   %rbx
    87c6:	48 81 ec 00 10 00 00 	sub    $0x1000,%rsp
    87cd:	48 83 0c 24 00       	orq    $0x0,(%rsp)
    87d2:	48 81 ec c8 02 00 00 	sub    $0x2c8,%rsp
    87d9:	64 48 8b 04 25 28 00 	mov    %fs:0x28,%rax
    87e0:	00 00 
    87e2:	48 89 45 c8          	mov    %rax,-0x38(%rbp)
    87e6:	31 c0                	xor    %eax,%eax
    87e8:	c7 85 30 ed ff ff 2d 	movl   $0x5417612d,-0x12d0(%rbp)
    87ef:	61 17 54 
    87f2:	0f b7 85 34 ed ff ff 	movzwl -0x12cc(%rbp),%eax
    87f9:	66 25 00 f0          	and    $0xf000,%ax
    87fd:	83 c8 04             	or     $0x4,%eax
    8800:	66 89 85 34 ed ff ff 	mov    %ax,-0x12cc(%rbp)
    8807:	48 8d 05 ba b1 01 00 	lea    0x1b1ba(%rip),%rax        # 239c8 <g_235>
    880e:	48 89 85 e0 ee ff ff 	mov    %rax,-0x1120(%rbp)
    8815:	48 8d 05 25 77 01 00 	lea    0x17725(%rip),%rax        # 1ff41 <g_1367>
    881c:	48 89 85 88 ee ff ff 	mov    %rax,-0x1178(%rbp)
    8823:	48 8d 05 6e c0 01 00 	lea    0x1c06e(%rip),%rax        # 24898 <g_1490>
    882a:	48 89 85 e8 ee ff ff 	mov    %rax,-0x1118(%rbp)
    8831:	0f b7 85 38 ed ff ff 	movzwl -0x12c8(%rbp),%eax
    8838:	66 25 00 f0          	and    $0xf000,%ax
    883c:	83 c8 08             	or     $0x8,%eax
    883f:	66 89 85 38 ed ff ff 	mov    %ax,-0x12c8(%rbp)
    8846:	c7 85 8c ed ff ff b2 	movl   $0x5a889db2,-0x1274(%rbp)
    884d:	9d 88 5a 
    8850:	48 8d 05 6f 6b 01 00 	lea    0x16b6f(%rip),%rax        # 1f3c6 <g_560+0x6>
    8857:	48 89 85 e8 ed ff ff 	mov    %rax,-0x1218(%rbp)
    885e:	c6 85 25 ed ff ff 8f 	movb   $0x8f,-0x12db(%rbp)
    8865:	48 c7 85 f0 ee ff ff 	movq   $0xffffffffffffffff,-0x1110(%rbp)
    886c:	ff ff ff ff 
    8870:	c7 85 90 f1 ff ff f4 	movl   $0x159beff4,-0xe70(%rbp)
    8877:	ef 9b 15 
    887a:	c7 85 94 f1 ff ff 04 	movl   $0x76907304,-0xe6c(%rbp)
    8881:	73 90 76 
    8884:	c7 85 98 f1 ff ff c7 	movl   $0x8ce95fc7,-0xe68(%rbp)
    888b:	5f e9 8c 
    888e:	c7 85 9c f1 ff ff f4 	movl   $0xe598faf4,-0xe64(%rbp)
    8895:	fa 98 e5 
    8898:	c7 85 a0 f1 ff ff a7 	movl   $0x52e215a7,-0xe60(%rbp)
    889f:	15 e2 52 
    88a2:	c7 85 a4 f1 ff ff fc 	movl   $0xf338cdfc,-0xe5c(%rbp)
    88a9:	cd 38 f3 
    88ac:	c7 85 a8 f1 ff ff f4 	movl   $0xe598faf4,-0xe58(%rbp)
    88b3:	fa 98 e5 
    88b6:	c7 85 ac f1 ff ff 32 	movl   $0x66eb0632,-0xe54(%rbp)
    88bd:	06 eb 66 
    88c0:	c7 85 b0 f1 ff ff a7 	movl   $0x52e215a7,-0xe50(%rbp)
    88c7:	15 e2 52 
    88ca:	c7 85 b4 f1 ff ff f4 	movl   $0x159beff4,-0xe4c(%rbp)
    88d1:	ef 9b 15 
    88d4:	c7 85 b8 f1 ff ff a7 	movl   $0x52e215a7,-0xe48(%rbp)
    88db:	15 e2 52 
    88de:	c7 85 bc f1 ff ff a7 	movl   $0x52e215a7,-0xe44(%rbp)
    88e5:	15 e2 52 
    88e8:	c7 85 c0 f1 ff ff 05 	movl   $0x5,-0xe40(%rbp)
    88ef:	00 00 00 
    88f2:	c7 85 c4 f1 ff ff 04 	movl   $0x76907304,-0xe3c(%rbp)
    88f9:	73 90 76 
    88fc:	c7 85 c8 f1 ff ff fc 	movl   $0xf338cdfc,-0xe38(%rbp)
    8903:	cd 38 f3 
    8906:	c7 85 cc f1 ff ff f4 	movl   $0x159beff4,-0xe34(%rbp)
    890d:	ef 9b 15 
    8910:	c7 85 d0 f1 ff ff 04 	movl   $0x76907304,-0xe30(%rbp)
    8917:	73 90 76 
    891a:	c7 85 d4 f1 ff ff c7 	movl   $0x8ce95fc7,-0xe2c(%rbp)
    8921:	5f e9 8c 
    8924:	c7 85 d8 f1 ff ff f4 	movl   $0xe598faf4,-0xe28(%rbp)
    892b:	fa 98 e5 
    892e:	c7 85 dc f1 ff ff a7 	movl   $0x52e215a7,-0xe24(%rbp)
    8935:	15 e2 52 
    8938:	c7 85 e0 f1 ff ff fc 	movl   $0xf338cdfc,-0xe20(%rbp)
    893f:	cd 38 f3 
    8942:	c7 85 e4 f1 ff ff f4 	movl   $0xe598faf4,-0xe1c(%rbp)
    8949:	fa 98 e5 
    894c:	c7 85 e8 f1 ff ff 32 	movl   $0x66eb0632,-0xe18(%rbp)
    8953:	06 eb 66 
    8956:	c7 85 ec f1 ff ff a7 	movl   $0x52e215a7,-0xe14(%rbp)
    895d:	15 e2 52 
    8960:	c7 85 f0 f1 ff ff f4 	movl   $0x159beff4,-0xe10(%rbp)
    8967:	ef 9b 15 
    896a:	c7 85 f4 f1 ff ff a7 	movl   $0x52e215a7,-0xe0c(%rbp)
    8971:	15 e2 52 
    8974:	c7 85 f8 f1 ff ff a7 	movl   $0x52e215a7,-0xe08(%rbp)
    897b:	15 e2 52 
    897e:	c7 85 fc f1 ff ff 05 	movl   $0x5,-0xe04(%rbp)
    8985:	00 00 00 
    8988:	c7 85 00 f2 ff ff 04 	movl   $0x76907304,-0xe00(%rbp)
    898f:	73 90 76 
    8992:	c7 85 04 f2 ff ff fc 	movl   $0xf338cdfc,-0xdfc(%rbp)
    8999:	cd 38 f3 
    899c:	c7 85 08 f2 ff ff f4 	movl   $0x159beff4,-0xdf8(%rbp)
    89a3:	ef 9b 15 
    89a6:	c7 85 0c f2 ff ff 04 	movl   $0x76907304,-0xdf4(%rbp)
    89ad:	73 90 76 
    89b0:	c7 85 10 f2 ff ff c7 	movl   $0x8ce95fc7,-0xdf0(%rbp)
    89b7:	5f e9 8c 
    89ba:	c7 85 14 f2 ff ff f4 	movl   $0xe598faf4,-0xdec(%rbp)
    89c1:	fa 98 e5 
    89c4:	c7 85 18 f2 ff ff a7 	movl   $0x52e215a7,-0xde8(%rbp)
    89cb:	15 e2 52 
    89ce:	c7 85 1c f2 ff ff fc 	movl   $0xf338cdfc,-0xde4(%rbp)
    89d5:	cd 38 f3 
    89d8:	48 8d 05 81 75 01 00 	lea    0x17581(%rip),%rax        # 1ff60 <g_1393>
    89df:	48 89 85 f0 ed ff ff 	mov    %rax,-0x1210(%rbp)
    89e6:	c7 85 3c ed ff ff 2e 	movl   $0x3b7c892e,-0x12c4(%rbp)
    89ed:	89 7c 3b 
    89f0:	c7 85 40 ed ff ff 41 	movl   $0xf9e92441,-0x12c0(%rbp)
    89f7:	24 e9 f9 
    89fa:	c7 85 88 ed ff ff ff 	movl   $0xffffffff,-0x1278(%rbp)
    8a01:	ff ff ff 
    8a04:	c7 85 44 ed ff ff 00 	movl   $0x0,-0x12bc(%rbp)
    8a0b:	00 00 00 
    8a0e:	c7 85 84 ed ff ff 11 	movl   $0x3a700311,-0x127c(%rbp)
    8a15:	03 70 3a 
    8a18:	48 c7 85 b0 f0 ff ff 	movq   $0x0,-0xf50(%rbp)
    8a1f:	00 00 00 00 
    8a23:	48 c7 85 b8 f0 ff ff 	movq   $0x0,-0xf48(%rbp)
    8a2a:	00 00 00 00 
    8a2e:	48 c7 85 c0 f0 ff ff 	movq   $0x0,-0xf40(%rbp)
    8a35:	00 00 00 00 
    8a39:	48 c7 85 c8 f0 ff ff 	movq   $0x0,-0xf38(%rbp)
    8a40:	00 00 00 00 
    8a44:	48 c7 85 d0 f0 ff ff 	movq   $0x0,-0xf30(%rbp)
    8a4b:	00 00 00 00 
    8a4f:	48 c7 85 d8 f0 ff ff 	movq   $0x0,-0xf28(%rbp)
    8a56:	00 00 00 00 
    8a5a:	48 c7 85 e0 f0 ff ff 	movq   $0x0,-0xf20(%rbp)
    8a61:	00 00 00 00 
    8a65:	48 c7 85 c8 ee ff ff 	movq   $0xffffffffffffffff,-0x1138(%rbp)
    8a6c:	ff ff ff ff 
    8a70:	48 c7 85 d0 ee ff ff 	movq   $0x0,-0x1130(%rbp)
    8a77:	00 00 00 00 
    8a7b:	c7 85 48 ed ff ff f8 	movl   $0xf4d37bf8,-0x12b8(%rbp)
    8a82:	7b d3 f4 
    8a85:	48 8d 05 2c b8 01 00 	lea    0x1b82c(%rip),%rax        # 242b8 <g_1696>
    8a8c:	48 89 85 d8 ee ff ff 	mov    %rax,-0x1128(%rbp)
    8a93:	66 c7 85 10 f0 ff ff 	movw   $0xeb79,-0xff0(%rbp)
    8a9a:	79 eb 
    8a9c:	66 c7 85 12 f0 ff ff 	movw   $0x79eb,-0xfee(%rbp)
    8aa3:	eb 79 
    8aa5:	66 c7 85 14 f0 ff ff 	movw   $0xebeb,-0xfec(%rbp)
    8aac:	eb eb 
    8aae:	66 c7 85 16 f0 ff ff 	movw   $0xeb79,-0xfea(%rbp)
    8ab5:	79 eb 
    8ab7:	66 c7 85 18 f0 ff ff 	movw   $0x79eb,-0xfe8(%rbp)
    8abe:	eb 79 
    8ac0:	66 c7 85 1a f0 ff ff 	movw   $0xebeb,-0xfe6(%rbp)
    8ac7:	eb eb 
    8ac9:	66 c7 85 1c f0 ff ff 	movw   $0xeb79,-0xfe4(%rbp)
    8ad0:	79 eb 
    8ad2:	66 c7 85 1e f0 ff ff 	movw   $0x79eb,-0xfe2(%rbp)
    8ad9:	eb 79 
    8adb:	66 c7 85 20 f0 ff ff 	movw   $0xebeb,-0xfe0(%rbp)
    8ae2:	eb eb 
    8ae4:	66 c7 85 22 f0 ff ff 	movw   $0xeb79,-0xfde(%rbp)
    8aeb:	79 eb 
    8aed:	66 c7 85 24 f0 ff ff 	movw   $0x79eb,-0xfdc(%rbp)
    8af4:	eb 79 
    8af6:	66 c7 85 26 f0 ff ff 	movw   $0xebeb,-0xfda(%rbp)
    8afd:	eb eb 
    8aff:	66 c7 85 28 f0 ff ff 	movw   $0xeb79,-0xfd8(%rbp)
    8b06:	79 eb 
    8b08:	66 c7 85 2a f0 ff ff 	movw   $0x79eb,-0xfd6(%rbp)
    8b0f:	eb 79 
    8b11:	66 c7 85 2c f0 ff ff 	movw   $0xebeb,-0xfd4(%rbp)
    8b18:	eb eb 
    8b1a:	66 c7 85 2e f0 ff ff 	movw   $0xeb79,-0xfd2(%rbp)
    8b21:	79 eb 
    8b23:	48 c7 85 a0 ee ff ff 	movq   $0x6,-0x1160(%rbp)
    8b2a:	06 00 00 00 
    8b2e:	c6 85 23 ed ff ff 29 	movb   $0x29,-0x12dd(%rbp)
    8b35:	48 8d 05 4c bd 01 00 	lea    0x1bd4c(%rip),%rax        # 24888 <g_1386>
    8b3c:	48 89 85 a8 ee ff ff 	mov    %rax,-0x1158(%rbp)
    8b43:	48 8d 05 66 b7 01 00 	lea    0x1b766(%rip),%rax        # 242b0 <g_1697>
    8b4a:	48 89 85 b0 ee ff ff 	mov    %rax,-0x1150(%rbp)
    8b51:	c6 85 24 ed ff ff be 	movb   $0xbe,-0x12dc(%rbp)
    8b58:	48 c7 85 b8 ee ff ff 	movq   $0x0,-0x1148(%rbp)
    8b5f:	00 00 00 00 
    8b63:	48 8d 05 ce b7 01 00 	lea    0x1b7ce(%rip),%rax        # 24338 <g_1879>
    8b6a:	48 89 85 c0 ee ff ff 	mov    %rax,-0x1140(%rbp)
    8b71:	66 c7 85 2c ed ff ff 	movw   $0x6efa,-0x12d4(%rbp)
    8b78:	fa 6e 
    8b7a:	c7 85 80 ed ff ff 07 	movl   $0x7,-0x1280(%rbp)
    8b81:	00 00 00 
    8b84:	48 c7 85 98 ee ff ff 	movq   $0x1,-0x1168(%rbp)
    8b8b:	01 00 00 00 
    8b8f:	48 c7 85 30 f0 ff ff 	movq   $0x0,-0xfd0(%rbp)
    8b96:	00 00 00 00 
    8b9a:	48 c7 85 38 f0 ff ff 	movq   $0x0,-0xfc8(%rbp)
    8ba1:	00 00 00 00 
    8ba5:	48 c7 85 40 f0 ff ff 	movq   $0x0,-0xfc0(%rbp)
    8bac:	00 00 00 00 
    8bb0:	48 c7 85 48 f0 ff ff 	movq   $0x0,-0xfb8(%rbp)
    8bb7:	00 00 00 00 
    8bbb:	48 8d 85 30 f0 ff ff 	lea    -0xfd0(%rbp),%rax
    8bc2:	48 89 85 f8 ed ff ff 	mov    %rax,-0x1208(%rbp)
    8bc9:	48 8d 85 f8 ed ff ff 	lea    -0x1208(%rbp),%rax
    8bd0:	48 89 85 00 ee ff ff 	mov    %rax,-0x1200(%rbp)
    8bd7:	48 8d 85 00 ee ff ff 	lea    -0x1200(%rbp),%rax
    8bde:	48 89 85 10 fb ff ff 	mov    %rax,-0x4f0(%rbp)
    8be5:	48 c7 85 18 fb ff ff 	movq   $0x0,-0x4e8(%rbp)
    8bec:	00 00 00 00 
    8bf0:	48 8d 85 00 ee ff ff 	lea    -0x1200(%rbp),%rax
    8bf7:	48 89 85 20 fb ff ff 	mov    %rax,-0x4e0(%rbp)
    8bfe:	48 c7 85 28 fb ff ff 	movq   $0x0,-0x4d8(%rbp)
    8c05:	00 00 00 00 
    8c09:	48 8d 85 00 ee ff ff 	lea    -0x1200(%rbp),%rax
    8c10:	48 89 85 30 fb ff ff 	mov    %rax,-0x4d0(%rbp)
    8c17:	48 8d 85 00 ee ff ff 	lea    -0x1200(%rbp),%rax
    8c1e:	48 89 85 38 fb ff ff 	mov    %rax,-0x4c8(%rbp)
    8c25:	48 8d 85 00 ee ff ff 	lea    -0x1200(%rbp),%rax
    8c2c:	48 89 85 40 fb ff ff 	mov    %rax,-0x4c0(%rbp)
    8c33:	48 c7 85 48 fb ff ff 	movq   $0x0,-0x4b8(%rbp)
    8c3a:	00 00 00 00 
    8c3e:	48 8d 85 00 ee ff ff 	lea    -0x1200(%rbp),%rax
    8c45:	48 89 85 50 fb ff ff 	mov    %rax,-0x4b0(%rbp)
    8c4c:	48 8d 85 00 ee ff ff 	lea    -0x1200(%rbp),%rax
    8c53:	48 89 85 58 fb ff ff 	mov    %rax,-0x4a8(%rbp)
    8c5a:	48 c7 85 60 fb ff ff 	movq   $0x0,-0x4a0(%rbp)
    8c61:	00 00 00 00 
    8c65:	48 8d 85 00 ee ff ff 	lea    -0x1200(%rbp),%rax
    8c6c:	48 89 85 68 fb ff ff 	mov    %rax,-0x498(%rbp)
    8c73:	48 8d 85 00 ee ff ff 	lea    -0x1200(%rbp),%rax
    8c7a:	48 89 85 70 fb ff ff 	mov    %rax,-0x490(%rbp)
    8c81:	48 c7 85 78 fb ff ff 	movq   $0x0,-0x488(%rbp)
    8c88:	00 00 00 00 
    8c8c:	48 8d 85 00 ee ff ff 	lea    -0x1200(%rbp),%rax
    8c93:	48 89 85 80 fb ff ff 	mov    %rax,-0x480(%rbp)
    8c9a:	48 8d 85 00 ee ff ff 	lea    -0x1200(%rbp),%rax
    8ca1:	48 89 85 88 fb ff ff 	mov    %rax,-0x478(%rbp)
    8ca8:	48 8d 85 00 ee ff ff 	lea    -0x1200(%rbp),%rax
    8caf:	48 89 85 90 fb ff ff 	mov    %rax,-0x470(%rbp)
    8cb6:	48 c7 85 98 fb ff ff 	movq   $0x0,-0x468(%rbp)
    8cbd:	00 00 00 00 
    8cc1:	48 c7 85 a0 fb ff ff 	movq   $0x0,-0x460(%rbp)
    8cc8:	00 00 00 00 
    8ccc:	48 8d 85 00 ee ff ff 	lea    -0x1200(%rbp),%rax
    8cd3:	48 89 85 a8 fb ff ff 	mov    %rax,-0x458(%rbp)
    8cda:	48 8d 85 00 ee ff ff 	lea    -0x1200(%rbp),%rax
    8ce1:	48 89 85 b0 fb ff ff 	mov    %rax,-0x450(%rbp)
    8ce8:	48 8d 85 00 ee ff ff 	lea    -0x1200(%rbp),%rax
    8cef:	48 89 85 b8 fb ff ff 	mov    %rax,-0x448(%rbp)
    8cf6:	48 8d 85 00 ee ff ff 	lea    -0x1200(%rbp),%rax
    8cfd:	48 89 85 c0 fb ff ff 	mov    %rax,-0x440(%rbp)
    8d04:	48 8d 85 00 ee ff ff 	lea    -0x1200(%rbp),%rax
    8d0b:	48 89 85 c8 fb ff ff 	mov    %rax,-0x438(%rbp)
    8d12:	48 8d 85 00 ee ff ff 	lea    -0x1200(%rbp),%rax
    8d19:	48 89 85 d0 fb ff ff 	mov    %rax,-0x430(%rbp)
    8d20:	48 8d 85 00 ee ff ff 	lea    -0x1200(%rbp),%rax
    8d27:	48 89 85 d8 fb ff ff 	mov    %rax,-0x428(%rbp)
    8d2e:	48 8d 85 00 ee ff ff 	lea    -0x1200(%rbp),%rax
    8d35:	48 89 85 e0 fb ff ff 	mov    %rax,-0x420(%rbp)
    8d3c:	48 8d 85 00 ee ff ff 	lea    -0x1200(%rbp),%rax
    8d43:	48 89 85 e8 fb ff ff 	mov    %rax,-0x418(%rbp)
    8d4a:	48 c7 85 f0 fb ff ff 	movq   $0x0,-0x410(%rbp)
    8d51:	00 00 00 00 
    8d55:	48 c7 85 f8 fb ff ff 	movq   $0x0,-0x408(%rbp)
    8d5c:	00 00 00 00 
    8d60:	48 c7 85 00 fc ff ff 	movq   $0x0,-0x400(%rbp)
    8d67:	00 00 00 00 
    8d6b:	48 c7 85 08 fc ff ff 	movq   $0x0,-0x3f8(%rbp)
    8d72:	00 00 00 00 
    8d76:	48 8d 85 00 ee ff ff 	lea    -0x1200(%rbp),%rax
    8d7d:	48 89 85 10 fc ff ff 	mov    %rax,-0x3f0(%rbp)
    8d84:	48 c7 85 18 fc ff ff 	movq   $0x0,-0x3e8(%rbp)
    8d8b:	00 00 00 00 
    8d8f:	48 c7 85 20 fc ff ff 	movq   $0x0,-0x3e0(%rbp)
    8d96:	00 00 00 00 
    8d9a:	48 8d 85 00 ee ff ff 	lea    -0x1200(%rbp),%rax
    8da1:	48 89 85 28 fc ff ff 	mov    %rax,-0x3d8(%rbp)
    8da8:	48 8d 85 00 ee ff ff 	lea    -0x1200(%rbp),%rax
    8daf:	48 89 85 30 fc ff ff 	mov    %rax,-0x3d0(%rbp)
    8db6:	48 8d 85 00 ee ff ff 	lea    -0x1200(%rbp),%rax
    8dbd:	48 89 85 38 fc ff ff 	mov    %rax,-0x3c8(%rbp)
    8dc4:	48 8d 85 00 ee ff ff 	lea    -0x1200(%rbp),%rax
    8dcb:	48 89 85 40 fc ff ff 	mov    %rax,-0x3c0(%rbp)
    8dd2:	48 8d 85 00 ee ff ff 	lea    -0x1200(%rbp),%rax
    8dd9:	48 89 85 48 fc ff ff 	mov    %rax,-0x3b8(%rbp)
    8de0:	48 8d 85 00 ee ff ff 	lea    -0x1200(%rbp),%rax
    8de7:	48 89 85 50 fc ff ff 	mov    %rax,-0x3b0(%rbp)
    8dee:	48 8d 85 00 ee ff ff 	lea    -0x1200(%rbp),%rax
    8df5:	48 89 85 58 fc ff ff 	mov    %rax,-0x3a8(%rbp)
    8dfc:	48 8d 85 00 ee ff ff 	lea    -0x1200(%rbp),%rax
    8e03:	48 89 85 60 fc ff ff 	mov    %rax,-0x3a0(%rbp)
    8e0a:	48 c7 85 68 fc ff ff 	movq   $0x0,-0x398(%rbp)
    8e11:	00 00 00 00 
    8e15:	48 8d 85 00 ee ff ff 	lea    -0x1200(%rbp),%rax
    8e1c:	48 89 85 70 fc ff ff 	mov    %rax,-0x390(%rbp)
    8e23:	48 8d 85 00 ee ff ff 	lea    -0x1200(%rbp),%rax
    8e2a:	48 89 85 78 fc ff ff 	mov    %rax,-0x388(%rbp)
    8e31:	48 8d 85 00 ee ff ff 	lea    -0x1200(%rbp),%rax
    8e38:	48 89 85 80 fc ff ff 	mov    %rax,-0x380(%rbp)
    8e3f:	48 8d 85 00 ee ff ff 	lea    -0x1200(%rbp),%rax
    8e46:	48 89 85 88 fc ff ff 	mov    %rax,-0x378(%rbp)
    8e4d:	48 8d 85 00 ee ff ff 	lea    -0x1200(%rbp),%rax
    8e54:	48 89 85 90 fc ff ff 	mov    %rax,-0x370(%rbp)
    8e5b:	48 8d 85 00 ee ff ff 	lea    -0x1200(%rbp),%rax
    8e62:	48 89 85 98 fc ff ff 	mov    %rax,-0x368(%rbp)
    8e69:	48 c7 85 a0 fc ff ff 	movq   $0x0,-0x360(%rbp)
    8e70:	00 00 00 00 
    8e74:	48 c7 85 a8 fc ff ff 	movq   $0x0,-0x358(%rbp)
    8e7b:	00 00 00 00 
    8e7f:	48 8d 85 00 ee ff ff 	lea    -0x1200(%rbp),%rax
    8e86:	48 89 85 b0 fc ff ff 	mov    %rax,-0x350(%rbp)
    8e8d:	48 8d 85 00 ee ff ff 	lea    -0x1200(%rbp),%rax
    8e94:	48 89 85 b8 fc ff ff 	mov    %rax,-0x348(%rbp)
    8e9b:	48 c7 85 c0 fc ff ff 	movq   $0x0,-0x340(%rbp)
    8ea2:	00 00 00 00 
    8ea6:	48 8d 85 00 ee ff ff 	lea    -0x1200(%rbp),%rax
    8ead:	48 89 85 c8 fc ff ff 	mov    %rax,-0x338(%rbp)
    8eb4:	48 8d 85 00 ee ff ff 	lea    -0x1200(%rbp),%rax
    8ebb:	48 89 85 d0 fc ff ff 	mov    %rax,-0x330(%rbp)
    8ec2:	48 c7 85 d8 fc ff ff 	movq   $0x0,-0x328(%rbp)
    8ec9:	00 00 00 00 
    8ecd:	48 8d 85 00 ee ff ff 	lea    -0x1200(%rbp),%rax
    8ed4:	48 89 85 e0 fc ff ff 	mov    %rax,-0x320(%rbp)
    8edb:	48 8d 85 00 ee ff ff 	lea    -0x1200(%rbp),%rax
    8ee2:	48 89 85 e8 fc ff ff 	mov    %rax,-0x318(%rbp)
    8ee9:	48 c7 85 f0 fc ff ff 	movq   $0x0,-0x310(%rbp)
    8ef0:	00 00 00 00 
    8ef4:	48 8d 85 00 ee ff ff 	lea    -0x1200(%rbp),%rax
    8efb:	48 89 85 f8 fc ff ff 	mov    %rax,-0x308(%rbp)
    8f02:	48 c7 85 00 fd ff ff 	movq   $0x0,-0x300(%rbp)
    8f09:	00 00 00 00 
    8f0d:	48 8d 85 00 ee ff ff 	lea    -0x1200(%rbp),%rax
    8f14:	48 89 85 08 fd ff ff 	mov    %rax,-0x2f8(%rbp)
    8f1b:	48 8d 85 00 ee ff ff 	lea    -0x1200(%rbp),%rax
    8f22:	48 89 85 10 fd ff ff 	mov    %rax,-0x2f0(%rbp)
    8f29:	48 c7 85 18 fd ff ff 	movq   $0x0,-0x2e8(%rbp)
    8f30:	00 00 00 00 
    8f34:	48 8d 85 00 ee ff ff 	lea    -0x1200(%rbp),%rax
    8f3b:	48 89 85 20 fd ff ff 	mov    %rax,-0x2e0(%rbp)
    8f42:	48 8d 85 00 ee ff ff 	lea    -0x1200(%rbp),%rax
    8f49:	48 89 85 28 fd ff ff 	mov    %rax,-0x2d8(%rbp)
    8f50:	48 8d 85 00 ee ff ff 	lea    -0x1200(%rbp),%rax
    8f57:	48 89 85 30 fd ff ff 	mov    %rax,-0x2d0(%rbp)
    8f5e:	48 c7 85 38 fd ff ff 	movq   $0x0,-0x2c8(%rbp)
    8f65:	00 00 00 00 
    8f69:	48 c7 85 40 fd ff ff 	movq   $0x0,-0x2c0(%rbp)
    8f70:	00 00 00 00 
    8f74:	48 8d 85 00 ee ff ff 	lea    -0x1200(%rbp),%rax
    8f7b:	48 89 85 48 fd ff ff 	mov    %rax,-0x2b8(%rbp)
    8f82:	48 8d 85 00 ee ff ff 	lea    -0x1200(%rbp),%rax
    8f89:	48 89 85 50 fd ff ff 	mov    %rax,-0x2b0(%rbp)
    8f90:	48 8d 85 00 ee ff ff 	lea    -0x1200(%rbp),%rax
    8f97:	48 89 85 58 fd ff ff 	mov    %rax,-0x2a8(%rbp)
    8f9e:	48 8d 85 00 ee ff ff 	lea    -0x1200(%rbp),%rax
    8fa5:	48 89 85 60 fd ff ff 	mov    %rax,-0x2a0(%rbp)
    8fac:	48 8d 85 00 ee ff ff 	lea    -0x1200(%rbp),%rax
    8fb3:	48 89 85 68 fd ff ff 	mov    %rax,-0x298(%rbp)
    8fba:	48 8d 85 00 ee ff ff 	lea    -0x1200(%rbp),%rax
    8fc1:	48 89 85 70 fd ff ff 	mov    %rax,-0x290(%rbp)
    8fc8:	48 8d 85 00 ee ff ff 	lea    -0x1200(%rbp),%rax
    8fcf:	48 89 85 78 fd ff ff 	mov    %rax,-0x288(%rbp)
    8fd6:	48 c7 85 80 fd ff ff 	movq   $0x0,-0x280(%rbp)
    8fdd:	00 00 00 00 
    8fe1:	48 8d 85 00 ee ff ff 	lea    -0x1200(%rbp),%rax
    8fe8:	48 89 85 88 fd ff ff 	mov    %rax,-0x278(%rbp)
    8fef:	48 8d 85 00 ee ff ff 	lea    -0x1200(%rbp),%rax
    8ff6:	48 89 85 90 fd ff ff 	mov    %rax,-0x270(%rbp)
    8ffd:	48 c7 85 98 fd ff ff 	movq   $0x0,-0x268(%rbp)
    9004:	00 00 00 00 
    9008:	48 c7 85 a0 fd ff ff 	movq   $0x0,-0x260(%rbp)
    900f:	00 00 00 00 
    9013:	48 8d 85 00 ee ff ff 	lea    -0x1200(%rbp),%rax
    901a:	48 89 85 a8 fd ff ff 	mov    %rax,-0x258(%rbp)
    9021:	48 8d 85 00 ee ff ff 	lea    -0x1200(%rbp),%rax
    9028:	48 89 85 b0 fd ff ff 	mov    %rax,-0x250(%rbp)
    902f:	48 8d 85 00 ee ff ff 	lea    -0x1200(%rbp),%rax
    9036:	48 89 85 b8 fd ff ff 	mov    %rax,-0x248(%rbp)
    903d:	48 c7 85 c0 fd ff ff 	movq   $0x0,-0x240(%rbp)
    9044:	00 00 00 00 
    9048:	48 c7 85 c8 fd ff ff 	movq   $0x0,-0x238(%rbp)
    904f:	00 00 00 00 
    9053:	48 c7 85 d0 fd ff ff 	movq   $0x0,-0x230(%rbp)
    905a:	00 00 00 00 
    905e:	48 c7 85 d8 fd ff ff 	movq   $0x0,-0x228(%rbp)
    9065:	00 00 00 00 
    9069:	48 8d 85 00 ee ff ff 	lea    -0x1200(%rbp),%rax
    9070:	48 89 85 e0 fd ff ff 	mov    %rax,-0x220(%rbp)
    9077:	48 c7 85 e8 fd ff ff 	movq   $0x0,-0x218(%rbp)
    907e:	00 00 00 00 
    9082:	48 8d 85 00 ee ff ff 	lea    -0x1200(%rbp),%rax
    9089:	48 89 85 f0 fd ff ff 	mov    %rax,-0x210(%rbp)
    9090:	48 8d 85 00 ee ff ff 	lea    -0x1200(%rbp),%rax
    9097:	48 89 85 f8 fd ff ff 	mov    %rax,-0x208(%rbp)
    909e:	48 8d 85 00 ee ff ff 	lea    -0x1200(%rbp),%rax
    90a5:	48 89 85 00 fe ff ff 	mov    %rax,-0x200(%rbp)
    90ac:	48 8d 85 00 ee ff ff 	lea    -0x1200(%rbp),%rax
    90b3:	48 89 85 08 fe ff ff 	mov    %rax,-0x1f8(%rbp)
    90ba:	48 8d 85 00 ee ff ff 	lea    -0x1200(%rbp),%rax
    90c1:	48 89 85 10 fe ff ff 	mov    %rax,-0x1f0(%rbp)
    90c8:	48 8d 85 00 ee ff ff 	lea    -0x1200(%rbp),%rax
    90cf:	48 89 85 18 fe ff ff 	mov    %rax,-0x1e8(%rbp)
    90d6:	48 c7 85 20 fe ff ff 	movq   $0x0,-0x1e0(%rbp)
    90dd:	00 00 00 00 
    90e1:	48 8d 85 00 ee ff ff 	lea    -0x1200(%rbp),%rax
    90e8:	48 89 85 28 fe ff ff 	mov    %rax,-0x1d8(%rbp)
    90ef:	48 8d 85 00 ee ff ff 	lea    -0x1200(%rbp),%rax
    90f6:	48 89 85 30 fe ff ff 	mov    %rax,-0x1d0(%rbp)
    90fd:	48 8d 85 00 ee ff ff 	lea    -0x1200(%rbp),%rax
    9104:	48 89 85 38 fe ff ff 	mov    %rax,-0x1c8(%rbp)
    910b:	48 8d 85 00 ee ff ff 	lea    -0x1200(%rbp),%rax
    9112:	48 89 85 40 fe ff ff 	mov    %rax,-0x1c0(%rbp)
    9119:	48 8d 85 00 ee ff ff 	lea    -0x1200(%rbp),%rax
    9120:	48 89 85 48 fe ff ff 	mov    %rax,-0x1b8(%rbp)
    9127:	48 8d 85 00 ee ff ff 	lea    -0x1200(%rbp),%rax
    912e:	48 89 85 50 fe ff ff 	mov    %rax,-0x1b0(%rbp)
    9135:	48 8d 85 00 ee ff ff 	lea    -0x1200(%rbp),%rax
    913c:	48 89 85 58 fe ff ff 	mov    %rax,-0x1a8(%rbp)
    9143:	48 8d 85 00 ee ff ff 	lea    -0x1200(%rbp),%rax
    914a:	48 89 85 60 fe ff ff 	mov    %rax,-0x1a0(%rbp)
    9151:	48 8d 85 00 ee ff ff 	lea    -0x1200(%rbp),%rax
    9158:	48 89 85 68 fe ff ff 	mov    %rax,-0x198(%rbp)
    915f:	48 c7 85 70 fe ff ff 	movq   $0x0,-0x190(%rbp)
    9166:	00 00 00 00 
    916a:	48 8d 85 00 ee ff ff 	lea    -0x1200(%rbp),%rax
    9171:	48 89 85 78 fe ff ff 	mov    %rax,-0x188(%rbp)
    9178:	48 8d 85 00 ee ff ff 	lea    -0x1200(%rbp),%rax
    917f:	48 89 85 80 fe ff ff 	mov    %rax,-0x180(%rbp)
    9186:	48 8d 85 00 ee ff ff 	lea    -0x1200(%rbp),%rax
    918d:	48 89 85 88 fe ff ff 	mov    %rax,-0x178(%rbp)
    9194:	48 8d 85 00 ee ff ff 	lea    -0x1200(%rbp),%rax
    919b:	48 89 85 90 fe ff ff 	mov    %rax,-0x170(%rbp)
    91a2:	48 8d 85 00 ee ff ff 	lea    -0x1200(%rbp),%rax
    91a9:	48 89 85 98 fe ff ff 	mov    %rax,-0x168(%rbp)
    91b0:	48 c7 85 a0 fe ff ff 	movq   $0x0,-0x160(%rbp)
    91b7:	00 00 00 00 
    91bb:	48 8d 85 00 ee ff ff 	lea    -0x1200(%rbp),%rax
    91c2:	48 89 85 a8 fe ff ff 	mov    %rax,-0x158(%rbp)
    91c9:	48 8d 85 00 ee ff ff 	lea    -0x1200(%rbp),%rax
    91d0:	48 89 85 b0 fe ff ff 	mov    %rax,-0x150(%rbp)
    91d7:	48 8d 85 00 ee ff ff 	lea    -0x1200(%rbp),%rax
    91de:	48 89 85 b8 fe ff ff 	mov    %rax,-0x148(%rbp)
    91e5:	48 8d 85 00 ee ff ff 	lea    -0x1200(%rbp),%rax
    91ec:	48 89 85 c0 fe ff ff 	mov    %rax,-0x140(%rbp)
    91f3:	48 8d 85 00 ee ff ff 	lea    -0x1200(%rbp),%rax
    91fa:	48 89 85 c8 fe ff ff 	mov    %rax,-0x138(%rbp)
    9201:	48 8d 85 00 ee ff ff 	lea    -0x1200(%rbp),%rax
    9208:	48 89 85 d0 fe ff ff 	mov    %rax,-0x130(%rbp)
    920f:	48 8d 85 00 ee ff ff 	lea    -0x1200(%rbp),%rax
    9216:	48 89 85 d8 fe ff ff 	mov    %rax,-0x128(%rbp)
    921d:	48 8d 85 00 ee ff ff 	lea    -0x1200(%rbp),%rax
    9224:	48 89 85 e0 fe ff ff 	mov    %rax,-0x120(%rbp)
    922b:	48 8d 85 00 ee ff ff 	lea    -0x1200(%rbp),%rax
    9232:	48 89 85 e8 fe ff ff 	mov    %rax,-0x118(%rbp)
    9239:	48 8d 85 00 ee ff ff 	lea    -0x1200(%rbp),%rax
    9240:	48 89 85 f0 fe ff ff 	mov    %rax,-0x110(%rbp)
    9247:	48 8d 85 00 ee ff ff 	lea    -0x1200(%rbp),%rax
    924e:	48 89 85 f8 fe ff ff 	mov    %rax,-0x108(%rbp)
    9255:	48 8d 85 00 ee ff ff 	lea    -0x1200(%rbp),%rax
    925c:	48 89 85 00 ff ff ff 	mov    %rax,-0x100(%rbp)
    9263:	48 c7 85 08 ff ff ff 	movq   $0x0,-0xf8(%rbp)
    926a:	00 00 00 00 
    926e:	48 8d 85 00 ee ff ff 	lea    -0x1200(%rbp),%rax
    9275:	48 89 85 10 ff ff ff 	mov    %rax,-0xf0(%rbp)
    927c:	48 8d 85 00 ee ff ff 	lea    -0x1200(%rbp),%rax
    9283:	48 89 85 18 ff ff ff 	mov    %rax,-0xe8(%rbp)
    928a:	48 c7 85 20 ff ff ff 	movq   $0x0,-0xe0(%rbp)
    9291:	00 00 00 00 
    9295:	48 8d 85 00 ee ff ff 	lea    -0x1200(%rbp),%rax
    929c:	48 89 85 28 ff ff ff 	mov    %rax,-0xd8(%rbp)
    92a3:	48 c7 85 30 ff ff ff 	movq   $0x0,-0xd0(%rbp)
    92aa:	00 00 00 00 
    92ae:	48 8d 85 00 ee ff ff 	lea    -0x1200(%rbp),%rax
    92b5:	48 89 85 38 ff ff ff 	mov    %rax,-0xc8(%rbp)
    92bc:	48 8d 85 00 ee ff ff 	lea    -0x1200(%rbp),%rax
    92c3:	48 89 85 40 ff ff ff 	mov    %rax,-0xc0(%rbp)
    92ca:	48 c7 85 48 ff ff ff 	movq   $0x0,-0xb8(%rbp)
    92d1:	00 00 00 00 
    92d5:	48 8d 85 00 ee ff ff 	lea    -0x1200(%rbp),%rax
    92dc:	48 89 85 50 ff ff ff 	mov    %rax,-0xb0(%rbp)
    92e3:	48 8d 85 00 ee ff ff 	lea    -0x1200(%rbp),%rax
    92ea:	48 89 85 58 ff ff ff 	mov    %rax,-0xa8(%rbp)
    92f1:	48 8d 85 00 ee ff ff 	lea    -0x1200(%rbp),%rax
    92f8:	48 89 85 60 ff ff ff 	mov    %rax,-0xa0(%rbp)
    92ff:	48 c7 85 68 ff ff ff 	movq   $0x0,-0x98(%rbp)
    9306:	00 00 00 00 
    930a:	48 c7 85 70 ff ff ff 	movq   $0x0,-0x90(%rbp)
    9311:	00 00 00 00 
    9315:	48 8d 85 00 ee ff ff 	lea    -0x1200(%rbp),%rax
    931c:	48 89 85 78 ff ff ff 	mov    %rax,-0x88(%rbp)
    9323:	48 8d 85 00 ee ff ff 	lea    -0x1200(%rbp),%rax
    932a:	48 89 45 80          	mov    %rax,-0x80(%rbp)
    932e:	48 8d 85 00 ee ff ff 	lea    -0x1200(%rbp),%rax
    9335:	48 89 45 88          	mov    %rax,-0x78(%rbp)
    9339:	48 8d 85 00 ee ff ff 	lea    -0x1200(%rbp),%rax
    9340:	48 89 45 90          	mov    %rax,-0x70(%rbp)
    9344:	48 8d 85 00 ee ff ff 	lea    -0x1200(%rbp),%rax
    934b:	48 89 45 98          	mov    %rax,-0x68(%rbp)
    934f:	48 8d 85 00 ee ff ff 	lea    -0x1200(%rbp),%rax
    9356:	48 89 45 a0          	mov    %rax,-0x60(%rbp)
    935a:	48 8d 85 00 ee ff ff 	lea    -0x1200(%rbp),%rax
    9361:	48 89 45 a8          	mov    %rax,-0x58(%rbp)
    9365:	48 c7 45 b0 00 00 00 	movq   $0x0,-0x50(%rbp)
    936c:	00 
    936d:	48 8d 85 00 ee ff ff 	lea    -0x1200(%rbp),%rax
    9374:	48 89 45 b8          	mov    %rax,-0x48(%rbp)
    9378:	48 c7 85 90 ee ff ff 	movq   $0x0,-0x1170(%rbp)
    937f:	00 00 00 00 
    9383:	48 b8 53 50 3b dd cd 	movabs $0x5eb2a4cddd3b5053,%rax
    938a:	a4 b2 5e 
    938d:	48 89 85 50 f0 ff ff 	mov    %rax,-0xfb0(%rbp)
    9394:	48 89 85 58 f0 ff ff 	mov    %rax,-0xfa8(%rbp)
    939b:	48 89 85 60 f0 ff ff 	mov    %rax,-0xfa0(%rbp)
    93a2:	48 89 85 68 f0 ff ff 	mov    %rax,-0xf98(%rbp)
    93a9:	48 89 85 70 f0 ff ff 	mov    %rax,-0xf90(%rbp)
    93b0:	48 89 85 78 f0 ff ff 	mov    %rax,-0xf88(%rbp)
    93b7:	c7 85 78 ed ff ff a0 	movl   $0x4f2302a0,-0x1288(%rbp)
    93be:	02 23 4f 
    93c1:	66 c7 85 2a ed ff ff 	movw   $0x2b9c,-0x12d6(%rbp)
    93c8:	9c 2b 
    93ca:	c7 85 7c ed ff ff 00 	movl   $0x0,-0x1284(%rbp)
    93d1:	00 00 00 
    93d4:	eb 1a                	jmp    93f0 <func_1+0xc3b>
    93d6:	8b 85 7c ed ff ff    	mov    -0x1284(%rbp),%eax
    93dc:	48 98                	cltq   
    93de:	c7 84 85 d0 ef ff ff 	movl   $0x3788ccc4,-0x1030(%rbp,%rax,4)
    93e5:	c4 cc 88 37 
    93e9:	83 85 7c ed ff ff 01 	addl   $0x1,-0x1284(%rbp)
    93f0:	83 bd 7c ed ff ff 01 	cmpl   $0x1,-0x1284(%rbp)
    93f7:	7e dd                	jle    93d6 <func_1+0xc21>
    93f9:	8b 85 8c ed ff ff    	mov    -0x1274(%rbp),%eax
    93ff:	0f be d8             	movsbl %al,%ebx
    9402:	0f b7 05 e7 5d 01 00 	movzwl 0x15de7(%rip),%eax        # 1f1f0 <g_330>
    9409:	66 25 ff 0f          	and    $0xfff,%ax
    940d:	0f be d0             	movsbl %al,%edx
    9410:	48 8b 85 e8 ee ff ff 	mov    -0x1118(%rbp),%rax
    9417:	48 8b 08             	mov    (%rax),%rcx
    941a:	48 8b 85 e8 ee ff ff 	mov    -0x1118(%rbp),%rax
    9421:	48 89 08             	mov    %rcx,(%rax)
    9424:	48 8b 85 e8 ee ff ff 	mov    -0x1118(%rbp),%rax
    942b:	48 8b 00             	mov    (%rax),%rax
    942e:	48 85 c0             	test   %rax,%rax
    9431:	75 0a                	jne    943d <func_1+0xc88>
    9433:	8b 85 30 ed ff ff    	mov    -0x12d0(%rbp),%eax
    9439:	85 c0                	test   %eax,%eax
    943b:	74 07                	je     9444 <func_1+0xc8f>
    943d:	b8 01 00 00 00       	mov    $0x1,%eax
    9442:	eb 05                	jmp    9449 <func_1+0xc94>
    9444:	b8 00 00 00 00       	mov    $0x0,%eax
    9449:	0f be c0             	movsbl %al,%eax
    944c:	89 d6                	mov    %edx,%esi
    944e:	89 c7                	mov    %eax,%edi
    9450:	e8 dc dd ff ff       	callq  7231 <safe_mod_func_int8_t_s_s>
    9455:	44 0f be e0          	movsbl %al,%r12d
    9459:	0f b6 05 0c 6d 01 00 	movzbl 0x16d0c(%rip),%eax        # 2016c <g_1455+0xc>
    9460:	44 0f b6 e8          	movzbl %al,%r13d
    9464:	8b 85 30 ed ff ff    	mov    -0x12d0(%rbp),%eax
    946a:	89 c7                	mov    %eax,%edi
    946c:	e8 45 42 00 00       	callq  d6b6 <func_18>
    9471:	48 8b 95 e0 ee ff ff 	mov    -0x1120(%rbp),%rdx
    9478:	48 89 02             	mov    %rax,(%rdx)
    947b:	48 8b 85 e0 ee ff ff 	mov    -0x1120(%rbp),%rax
    9482:	48 8b 00             	mov    (%rax),%rax
    9485:	48 89 85 88 ee ff ff 	mov    %rax,-0x1178(%rbp)
    948c:	8b 85 30 ed ff ff    	mov    -0x12d0(%rbp),%eax
    9492:	0f b6 c0             	movzbl %al,%eax
    9495:	48 8b 95 88 ee ff ff 	mov    -0x1178(%rbp),%rdx
    949c:	8b b5 34 ed ff ff    	mov    -0x12cc(%rbp),%esi
    94a2:	45 89 e8             	mov    %r13d,%r8d
    94a5:	48 8d 0d 95 6a 01 00 	lea    0x16a95(%rip),%rcx        # 1ff41 <g_1367>
    94ac:	89 c7                	mov    %eax,%edi
    94ae:	e8 21 3e 00 00       	callq  d2d4 <func_10>
    94b3:	0f be c0             	movsbl %al,%eax
    94b6:	44 89 e6             	mov    %r12d,%esi
    94b9:	89 c7                	mov    %eax,%edi
    94bb:	e8 52 dd ff ff       	callq  7212 <safe_mul_func_int8_t_s_s>
    94c0:	0f be c0             	movsbl %al,%eax
    94c3:	f7 d0                	not    %eax
    94c5:	48 98                	cltq   
    94c7:	8b 8d 38 ed ff ff    	mov    -0x12c8(%rbp),%ecx
    94cd:	89 da                	mov    %ebx,%edx
    94cf:	89 ce                	mov    %ecx,%esi
    94d1:	48 89 c7             	mov    %rax,%rdi
    94d4:	e8 e2 30 00 00       	callq  c5bb <func_2>
    94d9:	48 8d 05 50 68 01 00 	lea    0x16850(%rip),%rax        # 1fd30 <g_660>
    94e0:	48 89 85 08 ee ff ff 	mov    %rax,-0x11f8(%rbp)
    94e7:	48 c7 85 80 ee ff ff 	movq   $0x0,-0x1180(%rbp)
    94ee:	00 00 00 00 
    94f2:	48 be b2 c1 8f 61 8b 	movabs $0x1c5c18b618fc1b2,%rsi
    94f9:	c1 c5 01 
    94fc:	48 89 b5 20 f2 ff ff 	mov    %rsi,-0xde0(%rbp)
    9503:	48 ba 9b 99 a5 60 24 	movabs $0xd180742460a5999b,%rdx
    950a:	74 80 d1 
    950d:	48 89 95 28 f2 ff ff 	mov    %rdx,-0xdd8(%rbp)
    9514:	48 b8 dc 3e 94 1e 3d 	movabs $0xda0ef3d1e943edc,%rax
    951b:	ef a0 0d 
    951e:	48 89 85 30 f2 ff ff 	mov    %rax,-0xdd0(%rbp)
    9525:	49 b9 ba 83 9b b3 47 	movabs $0x68824047b39b83ba,%r9
    952c:	40 82 68 
    952f:	4c 89 8d 38 f2 ff ff 	mov    %r9,-0xdc8(%rbp)
    9536:	48 bf ed d5 0f 31 96 	movabs $0x8b1b496310fd5ed,%rdi
    953d:	b4 b1 08 
    9540:	48 89 bd 40 f2 ff ff 	mov    %rdi,-0xdc0(%rbp)
    9547:	48 bb bf 70 03 08 f6 	movabs $0x8d344ff6080370bf,%rbx
    954e:	4f 34 8d 
    9551:	48 89 9d 48 f2 ff ff 	mov    %rbx,-0xdb8(%rbp)
    9558:	48 c7 85 50 f2 ff ff 	movq   $0xffffffffffffffff,-0xdb0(%rbp)
    955f:	ff ff ff ff 
    9563:	48 c7 85 58 f2 ff ff 	movq   $0xffffffffffffffff,-0xda8(%rbp)
    956a:	ff ff ff ff 
    956e:	48 89 9d 60 f2 ff ff 	mov    %rbx,-0xda0(%rbp)
    9575:	49 ba fc 27 27 8a 15 	movabs $0xf1f118158a2727fc,%r10
    957c:	18 f1 f1 
    957f:	4c 89 95 68 f2 ff ff 	mov    %r10,-0xd98(%rbp)
    9586:	48 b9 54 5f 3a b8 0b 	movabs $0x91f2c90bb83a5f54,%rcx
    958d:	c9 f2 91 
    9590:	48 89 8d 70 f2 ff ff 	mov    %rcx,-0xd90(%rbp)
    9597:	48 89 9d 78 f2 ff ff 	mov    %rbx,-0xd88(%rbp)
    959e:	48 89 85 80 f2 ff ff 	mov    %rax,-0xd80(%rbp)
    95a5:	48 89 bd 88 f2 ff ff 	mov    %rdi,-0xd78(%rbp)
    95ac:	48 89 95 90 f2 ff ff 	mov    %rdx,-0xd70(%rbp)
    95b3:	48 89 8d 98 f2 ff ff 	mov    %rcx,-0xd68(%rbp)
    95ba:	48 89 85 a0 f2 ff ff 	mov    %rax,-0xd60(%rbp)
    95c1:	4c 89 95 a8 f2 ff ff 	mov    %r10,-0xd58(%rbp)
    95c8:	48 89 85 b0 f2 ff ff 	mov    %rax,-0xd50(%rbp)
    95cf:	48 89 8d b8 f2 ff ff 	mov    %rcx,-0xd48(%rbp)
    95d6:	48 89 9d c0 f2 ff ff 	mov    %rbx,-0xd40(%rbp)
    95dd:	4c 89 8d c8 f2 ff ff 	mov    %r9,-0xd38(%rbp)
    95e4:	48 89 b5 d0 f2 ff ff 	mov    %rsi,-0xd30(%rbp)
    95eb:	48 89 bd d8 f2 ff ff 	mov    %rdi,-0xd28(%rbp)
    95f2:	48 c7 85 e0 f2 ff ff 	movq   $0xffffffffffffffff,-0xd20(%rbp)
    95f9:	ff ff ff ff 
    95fd:	48 8d 05 58 6b 01 00 	lea    0x16b58(%rip),%rax        # 2015c <g_1447>
    9604:	48 89 85 68 ee ff ff 	mov    %rax,-0x1198(%rbp)
    960b:	48 8d 05 8e ab 01 00 	lea    0x1ab8e(%rip),%rax        # 241a0 <g_1167>
    9612:	48 89 85 70 ee ff ff 	mov    %rax,-0x1190(%rbp)
    9619:	48 c7 85 10 ee ff ff 	movq   $0x0,-0x11f0(%rbp)
    9620:	00 00 00 00 
    9624:	48 c7 85 78 ee ff ff 	movq   $0x0,-0x1188(%rbp)
    962b:	00 00 00 00 
    962f:	c7 85 70 ed ff ff 93 	movl   $0xe251ed93,-0x1290(%rbp)
    9636:	ed 51 e2 
    9639:	c7 85 74 ed ff ff ff 	movl   $0xffffffff,-0x128c(%rbp)
    9640:	ff ff ff 
    9643:	48 8d 05 5e ac 01 00 	lea    0x1ac5e(%rip),%rax        # 242a8 <g_1698>
    964a:	48 89 85 f0 f0 ff ff 	mov    %rax,-0xf10(%rbp)
    9651:	48 8d 05 50 ac 01 00 	lea    0x1ac50(%rip),%rax        # 242a8 <g_1698>
    9658:	48 89 85 f8 f0 ff ff 	mov    %rax,-0xf08(%rbp)
    965f:	48 8d 05 42 ac 01 00 	lea    0x1ac42(%rip),%rax        # 242a8 <g_1698>
    9666:	48 89 85 00 f1 ff ff 	mov    %rax,-0xf00(%rbp)
    966d:	48 8d 05 34 ac 01 00 	lea    0x1ac34(%rip),%rax        # 242a8 <g_1698>
    9674:	48 89 85 08 f1 ff ff 	mov    %rax,-0xef8(%rbp)
    967b:	48 8d 05 26 ac 01 00 	lea    0x1ac26(%rip),%rax        # 242a8 <g_1698>
    9682:	48 89 85 10 f1 ff ff 	mov    %rax,-0xef0(%rbp)
    9689:	48 8d 05 18 ac 01 00 	lea    0x1ac18(%rip),%rax        # 242a8 <g_1698>
    9690:	48 89 85 18 f1 ff ff 	mov    %rax,-0xee8(%rbp)
    9697:	48 8d 05 0a ac 01 00 	lea    0x1ac0a(%rip),%rax        # 242a8 <g_1698>
    969e:	48 89 85 20 f1 ff ff 	mov    %rax,-0xee0(%rbp)
    96a5:	48 8d 05 fc ab 01 00 	lea    0x1abfc(%rip),%rax        # 242a8 <g_1698>
    96ac:	48 89 85 28 f1 ff ff 	mov    %rax,-0xed8(%rbp)
    96b3:	48 8d 05 ee ab 01 00 	lea    0x1abee(%rip),%rax        # 242a8 <g_1698>
    96ba:	48 89 85 30 f1 ff ff 	mov    %rax,-0xed0(%rbp)
    96c1:	48 8d 85 f0 f0 ff ff 	lea    -0xf10(%rbp),%rax
    96c8:	48 83 c0 08          	add    $0x8,%rax
    96cc:	48 89 85 40 f1 ff ff 	mov    %rax,-0xec0(%rbp)
    96d3:	48 8d 85 f0 f0 ff ff 	lea    -0xf10(%rbp),%rax
    96da:	48 83 c0 08          	add    $0x8,%rax
    96de:	48 89 85 48 f1 ff ff 	mov    %rax,-0xeb8(%rbp)
    96e5:	48 8d 85 f0 f0 ff ff 	lea    -0xf10(%rbp),%rax
    96ec:	48 83 c0 10          	add    $0x10,%rax
    96f0:	48 89 85 50 f1 ff ff 	mov    %rax,-0xeb0(%rbp)
    96f7:	48 8d 85 f0 f0 ff ff 	lea    -0xf10(%rbp),%rax
    96fe:	48 83 c0 08          	add    $0x8,%rax
    9702:	48 89 85 58 f1 ff ff 	mov    %rax,-0xea8(%rbp)
    9709:	48 8d 85 f0 f0 ff ff 	lea    -0xf10(%rbp),%rax
    9710:	48 83 c0 08          	add    $0x8,%rax
    9714:	48 89 85 60 f1 ff ff 	mov    %rax,-0xea0(%rbp)
    971b:	48 8d 85 f0 f0 ff ff 	lea    -0xf10(%rbp),%rax
    9722:	48 83 c0 10          	add    $0x10,%rax
    9726:	48 89 85 68 f1 ff ff 	mov    %rax,-0xe98(%rbp)
    972d:	48 8d 85 f0 f0 ff ff 	lea    -0xf10(%rbp),%rax
    9734:	48 83 c0 08          	add    $0x8,%rax
    9738:	48 89 85 70 f1 ff ff 	mov    %rax,-0xe90(%rbp)
    973f:	48 8d 85 f0 f0 ff ff 	lea    -0xf10(%rbp),%rax
    9746:	48 83 c0 08          	add    $0x8,%rax
    974a:	48 89 85 78 f1 ff ff 	mov    %rax,-0xe88(%rbp)
    9751:	48 8d 85 f0 f0 ff ff 	lea    -0xf10(%rbp),%rax
    9758:	48 83 c0 10          	add    $0x10,%rax
    975c:	48 89 85 80 f1 ff ff 	mov    %rax,-0xe80(%rbp)
    9763:	48 8d 85 f0 f0 ff ff 	lea    -0xf10(%rbp),%rax
    976a:	48 83 c0 08          	add    $0x8,%rax
    976e:	48 89 85 88 f1 ff ff 	mov    %rax,-0xe78(%rbp)
    9775:	48 c7 85 38 ee ff ff 	movq   $0x0,-0x11c8(%rbp)
    977c:	00 00 00 00 
    9780:	48 8d 05 dd 58 01 00 	lea    0x158dd(%rip),%rax        # 1f064 <g_77>
    9787:	48 89 85 40 ee ff ff 	mov    %rax,-0x11c0(%rbp)
    978e:	c7 85 54 ed ff ff fa 	movl   $0xfffffffa,-0x12ac(%rbp)
    9795:	ff ff ff 
    9798:	48 c7 85 48 ee ff ff 	movq   $0x0,-0x11b8(%rbp)
    979f:	00 00 00 00 
    97a3:	c7 85 58 ed ff ff 01 	movl   $0x1,-0x12a8(%rbp)
    97aa:	00 00 00 
    97ad:	c7 85 5c ed ff ff 00 	movl   $0x0,-0x12a4(%rbp)
    97b4:	00 00 00 
    97b7:	eb 1a                	jmp    97d3 <func_1+0x101e>
    97b9:	8b 85 5c ed ff ff    	mov    -0x12a4(%rbp),%eax
    97bf:	48 98                	cltq   
    97c1:	c7 84 85 d8 ef ff ff 	movl   $0x1,-0x1028(%rbp,%rax,4)
    97c8:	01 00 00 00 
    97cc:	83 85 5c ed ff ff 01 	addl   $0x1,-0x12a4(%rbp)
    97d3:	83 bd 5c ed ff ff 01 	cmpl   $0x1,-0x12a4(%rbp)
    97da:	7e dd                	jle    97b9 <func_1+0x1004>
    97dc:	48 c7 05 b1 b0 01 00 	movq   $0x0,0x1b0b1(%rip)        # 24898 <g_1490>
    97e3:	00 00 00 00 
    97e7:	e9 df 0e 00 00       	jmpq   a6cb <func_1+0x1f16>
    97ec:	c7 85 60 ed ff ff 0d 	movl   $0xe5a7740d,-0x12a0(%rbp)
    97f3:	74 a7 e5 
    97f6:	c7 85 64 ed ff ff 26 	movl   $0x4c79826,-0x129c(%rbp)
    97fd:	98 c7 04 
    9800:	48 c7 85 50 ee ff ff 	movq   $0x0,-0x11b0(%rbp)
    9807:	00 00 00 00 
    980b:	c7 85 80 f0 ff ff 32 	movl   $0xee5b4632,-0xf80(%rbp)
    9812:	46 5b ee 
    9815:	c7 85 84 f0 ff ff 07 	movl   $0x7,-0xf7c(%rbp)
    981c:	00 00 00 
    981f:	c7 85 88 f0 ff ff 07 	movl   $0x7,-0xf78(%rbp)
    9826:	00 00 00 
    9829:	c7 85 8c f0 ff ff 32 	movl   $0xee5b4632,-0xf74(%rbp)
    9830:	46 5b ee 
    9833:	c7 85 90 f0 ff ff 07 	movl   $0x7,-0xf70(%rbp)
    983a:	00 00 00 
    983d:	c7 85 94 f0 ff ff 07 	movl   $0x7,-0xf6c(%rbp)
    9844:	00 00 00 
    9847:	c7 85 98 f0 ff ff 32 	movl   $0xee5b4632,-0xf68(%rbp)
    984e:	46 5b ee 
    9851:	c7 85 9c f0 ff ff 07 	movl   $0x7,-0xf64(%rbp)
    9858:	00 00 00 
    985b:	c7 85 a0 f0 ff ff 07 	movl   $0x7,-0xf60(%rbp)
    9862:	00 00 00 
    9865:	c7 85 68 ed ff ff ff 	movl   $0xffffffff,-0x1298(%rbp)
    986c:	ff ff ff 
    986f:	48 8d 05 70 69 01 00 	lea    0x16970(%rip),%rax        # 201e6 <g_1525+0x6>
    9876:	48 89 85 58 ee ff ff 	mov    %rax,-0x11a8(%rbp)
    987d:	c7 85 6c ed ff ff 00 	movl   $0x0,-0x1294(%rbp)
    9884:	00 00 00 
    9887:	eb 1e                	jmp    98a7 <func_1+0x10f2>
    9889:	8b 85 6c ed ff ff    	mov    -0x1294(%rbp),%eax
    988f:	48 98                	cltq   
    9891:	48 8d 15 c0 af 01 00 	lea    0x1afc0(%rip),%rdx        # 24858 <g_730>
    9898:	48 89 94 c5 f0 ef ff 	mov    %rdx,-0x1010(%rbp,%rax,8)
    989f:	ff 
    98a0:	83 85 6c ed ff ff 01 	addl   $0x1,-0x1294(%rbp)
    98a7:	83 bd 6c ed ff ff 02 	cmpl   $0x2,-0x1294(%rbp)
    98ae:	7e d9                	jle    9889 <func_1+0x10d4>
    98b0:	48 8b 05 f9 a0 01 00 	mov    0x1a0f9(%rip),%rax        # 239b0 <g_105>
    98b7:	48 8b 95 08 ee ff ff 	mov    -0x11f8(%rbp),%rdx
    98be:	48 89 10             	mov    %rdx,(%rax)
    98c1:	48 8b 00             	mov    (%rax),%rax
    98c4:	48 89 85 e8 ed ff ff 	mov    %rax,-0x1218(%rbp)
    98cb:	c7 05 7b 57 01 00 00 	movl   $0x0,0x1577b(%rip)        # 1f050 <g_41>
    98d2:	00 00 00 
    98d5:	e9 b4 0c 00 00       	jmpq   a58e <func_1+0x1dd9>
    98da:	66 c7 85 28 ed ff ff 	movw   $0x0,-0x12d8(%rbp)
    98e1:	00 00 
    98e3:	48 8d 05 28 69 01 00 	lea    0x16928(%rip),%rax        # 20212 <g_1526+0x12>
    98ea:	48 89 85 60 ee ff ff 	mov    %rax,-0x11a0(%rbp)
    98f1:	48 8d 05 28 65 01 00 	lea    0x16528(%rip),%rax        # 1fe20 <g_1263>
    98f8:	48 89 85 30 ee ff ff 	mov    %rax,-0x11d0(%rbp)
    98ff:	48 8d 05 02 65 01 00 	lea    0x16502(%rip),%rax        # 1fe08 <g_1189>
    9906:	48 89 85 28 ee ff ff 	mov    %rax,-0x11d8(%rbp)
    990d:	48 8d 05 94 a0 01 00 	lea    0x1a094(%rip),%rax        # 239a8 <g_106>
    9914:	48 89 85 50 f7 ff ff 	mov    %rax,-0x8b0(%rbp)
    991b:	48 8d 85 08 ee ff ff 	lea    -0x11f8(%rbp),%rax
    9922:	48 89 85 58 f7 ff ff 	mov    %rax,-0x8a8(%rbp)
    9929:	48 8d 85 e8 ed ff ff 	lea    -0x1218(%rbp),%rax
    9930:	48 89 85 60 f7 ff ff 	mov    %rax,-0x8a0(%rbp)
    9937:	48 8d 85 e8 ed ff ff 	lea    -0x1218(%rbp),%rax
    993e:	48 89 85 68 f7 ff ff 	mov    %rax,-0x898(%rbp)
    9945:	48 8d 85 08 ee ff ff 	lea    -0x11f8(%rbp),%rax
    994c:	48 89 85 70 f7 ff ff 	mov    %rax,-0x890(%rbp)
    9953:	48 8d 85 08 ee ff ff 	lea    -0x11f8(%rbp),%rax
    995a:	48 89 85 78 f7 ff ff 	mov    %rax,-0x888(%rbp)
    9961:	48 8d 85 08 ee ff ff 	lea    -0x11f8(%rbp),%rax
    9968:	48 89 85 80 f7 ff ff 	mov    %rax,-0x880(%rbp)
    996f:	48 8d 85 08 ee ff ff 	lea    -0x11f8(%rbp),%rax
    9976:	48 89 85 88 f7 ff ff 	mov    %rax,-0x878(%rbp)
    997d:	48 8d 85 08 ee ff ff 	lea    -0x11f8(%rbp),%rax
    9984:	48 89 85 90 f7 ff ff 	mov    %rax,-0x870(%rbp)
    998b:	48 8d 85 e8 ed ff ff 	lea    -0x1218(%rbp),%rax
    9992:	48 89 85 98 f7 ff ff 	mov    %rax,-0x868(%rbp)
    9999:	48 8d 05 08 a0 01 00 	lea    0x1a008(%rip),%rax        # 239a8 <g_106>
    99a0:	48 89 85 a0 f7 ff ff 	mov    %rax,-0x860(%rbp)
    99a7:	48 c7 85 a8 f7 ff ff 	movq   $0x0,-0x858(%rbp)
    99ae:	00 00 00 00 
    99b2:	48 8d 05 ef 9f 01 00 	lea    0x19fef(%rip),%rax        # 239a8 <g_106>
    99b9:	48 89 85 b0 f7 ff ff 	mov    %rax,-0x850(%rbp)
    99c0:	48 c7 85 b8 f7 ff ff 	movq   $0x0,-0x848(%rbp)
    99c7:	00 00 00 00 
    99cb:	48 8d 05 d6 9f 01 00 	lea    0x19fd6(%rip),%rax        # 239a8 <g_106>
    99d2:	48 89 85 c0 f7 ff ff 	mov    %rax,-0x840(%rbp)
    99d9:	48 8d 85 e8 ed ff ff 	lea    -0x1218(%rbp),%rax
    99e0:	48 89 85 c8 f7 ff ff 	mov    %rax,-0x838(%rbp)
    99e7:	48 8d 85 e8 ed ff ff 	lea    -0x1218(%rbp),%rax
    99ee:	48 89 85 d0 f7 ff ff 	mov    %rax,-0x830(%rbp)
    99f5:	48 8d 85 e8 ed ff ff 	lea    -0x1218(%rbp),%rax
    99fc:	48 89 85 d8 f7 ff ff 	mov    %rax,-0x828(%rbp)
    9a03:	48 8d 05 9e 9f 01 00 	lea    0x19f9e(%rip),%rax        # 239a8 <g_106>
    9a0a:	48 89 85 e0 f7 ff ff 	mov    %rax,-0x820(%rbp)
    9a11:	48 8d 05 90 9f 01 00 	lea    0x19f90(%rip),%rax        # 239a8 <g_106>
    9a18:	48 89 85 e8 f7 ff ff 	mov    %rax,-0x818(%rbp)
    9a1f:	48 8d 85 08 ee ff ff 	lea    -0x11f8(%rbp),%rax
    9a26:	48 89 85 f0 f7 ff ff 	mov    %rax,-0x810(%rbp)
    9a2d:	48 8d 05 74 9f 01 00 	lea    0x19f74(%rip),%rax        # 239a8 <g_106>
    9a34:	48 89 85 f8 f7 ff ff 	mov    %rax,-0x808(%rbp)
    9a3b:	48 8d 85 e8 ed ff ff 	lea    -0x1218(%rbp),%rax
    9a42:	48 89 85 00 f8 ff ff 	mov    %rax,-0x800(%rbp)
    9a49:	48 8d 05 58 9f 01 00 	lea    0x19f58(%rip),%rax        # 239a8 <g_106>
    9a50:	48 89 85 08 f8 ff ff 	mov    %rax,-0x7f8(%rbp)
    9a57:	48 8d 85 08 ee ff ff 	lea    -0x11f8(%rbp),%rax
    9a5e:	48 89 85 10 f8 ff ff 	mov    %rax,-0x7f0(%rbp)
    9a65:	48 8d 85 e8 ed ff ff 	lea    -0x1218(%rbp),%rax
    9a6c:	48 89 85 18 f8 ff ff 	mov    %rax,-0x7e8(%rbp)
    9a73:	48 c7 85 20 f8 ff ff 	movq   $0x0,-0x7e0(%rbp)
    9a7a:	00 00 00 00 
    9a7e:	48 8d 05 23 9f 01 00 	lea    0x19f23(%rip),%rax        # 239a8 <g_106>
    9a85:	48 89 85 28 f8 ff ff 	mov    %rax,-0x7d8(%rbp)
    9a8c:	48 8d 85 08 ee ff ff 	lea    -0x11f8(%rbp),%rax
    9a93:	48 89 85 30 f8 ff ff 	mov    %rax,-0x7d0(%rbp)
    9a9a:	48 8d 85 e8 ed ff ff 	lea    -0x1218(%rbp),%rax
    9aa1:	48 89 85 38 f8 ff ff 	mov    %rax,-0x7c8(%rbp)
    9aa8:	48 8d 05 f9 9e 01 00 	lea    0x19ef9(%rip),%rax        # 239a8 <g_106>
    9aaf:	48 89 85 40 f8 ff ff 	mov    %rax,-0x7c0(%rbp)
    9ab6:	48 8d 85 e8 ed ff ff 	lea    -0x1218(%rbp),%rax
    9abd:	48 89 85 48 f8 ff ff 	mov    %rax,-0x7b8(%rbp)
    9ac4:	48 8d 85 e8 ed ff ff 	lea    -0x1218(%rbp),%rax
    9acb:	48 89 85 50 f8 ff ff 	mov    %rax,-0x7b0(%rbp)
    9ad2:	48 8d 85 e8 ed ff ff 	lea    -0x1218(%rbp),%rax
    9ad9:	48 89 85 58 f8 ff ff 	mov    %rax,-0x7a8(%rbp)
    9ae0:	48 8d 85 08 ee ff ff 	lea    -0x11f8(%rbp),%rax
    9ae7:	48 89 85 60 f8 ff ff 	mov    %rax,-0x7a0(%rbp)
    9aee:	48 8d 85 e8 ed ff ff 	lea    -0x1218(%rbp),%rax
    9af5:	48 89 85 68 f8 ff ff 	mov    %rax,-0x798(%rbp)
    9afc:	48 8d 05 a5 9e 01 00 	lea    0x19ea5(%rip),%rax        # 239a8 <g_106>
    9b03:	48 89 85 70 f8 ff ff 	mov    %rax,-0x790(%rbp)
    9b0a:	48 8d 05 97 9e 01 00 	lea    0x19e97(%rip),%rax        # 239a8 <g_106>
    9b11:	48 89 85 78 f8 ff ff 	mov    %rax,-0x788(%rbp)
    9b18:	48 8d 05 89 9e 01 00 	lea    0x19e89(%rip),%rax        # 239a8 <g_106>
    9b1f:	48 89 85 80 f8 ff ff 	mov    %rax,-0x780(%rbp)
    9b26:	48 c7 85 88 f8 ff ff 	movq   $0x0,-0x778(%rbp)
    9b2d:	00 00 00 00 
    9b31:	48 8d 85 e8 ed ff ff 	lea    -0x1218(%rbp),%rax
    9b38:	48 89 85 90 f8 ff ff 	mov    %rax,-0x770(%rbp)
    9b3f:	48 8d 85 08 ee ff ff 	lea    -0x11f8(%rbp),%rax
    9b46:	48 89 85 98 f8 ff ff 	mov    %rax,-0x768(%rbp)
    9b4d:	48 8d 85 e8 ed ff ff 	lea    -0x1218(%rbp),%rax
    9b54:	48 89 85 a0 f8 ff ff 	mov    %rax,-0x760(%rbp)
    9b5b:	48 8d 05 46 9e 01 00 	lea    0x19e46(%rip),%rax        # 239a8 <g_106>
    9b62:	48 89 85 a8 f8 ff ff 	mov    %rax,-0x758(%rbp)
    9b69:	48 c7 85 b0 f8 ff ff 	movq   $0x0,-0x750(%rbp)
    9b70:	00 00 00 00 
    9b74:	48 8d 05 2d 9e 01 00 	lea    0x19e2d(%rip),%rax        # 239a8 <g_106>
    9b7b:	48 89 85 b8 f8 ff ff 	mov    %rax,-0x748(%rbp)
    9b82:	48 8d 05 1f 9e 01 00 	lea    0x19e1f(%rip),%rax        # 239a8 <g_106>
    9b89:	48 89 85 c0 f8 ff ff 	mov    %rax,-0x740(%rbp)
    9b90:	48 8d 85 e8 ed ff ff 	lea    -0x1218(%rbp),%rax
    9b97:	48 89 85 c8 f8 ff ff 	mov    %rax,-0x738(%rbp)
    9b9e:	48 c7 85 d0 f8 ff ff 	movq   $0x0,-0x730(%rbp)
    9ba5:	00 00 00 00 
    9ba9:	48 8d 85 08 ee ff ff 	lea    -0x11f8(%rbp),%rax
    9bb0:	48 89 85 d8 f8 ff ff 	mov    %rax,-0x728(%rbp)
    9bb7:	48 8d 85 08 ee ff ff 	lea    -0x11f8(%rbp),%rax
    9bbe:	48 89 85 e0 f8 ff ff 	mov    %rax,-0x720(%rbp)
    9bc5:	48 8d 85 e8 ed ff ff 	lea    -0x1218(%rbp),%rax
    9bcc:	48 89 85 e8 f8 ff ff 	mov    %rax,-0x718(%rbp)
    9bd3:	48 8d 05 ce 9d 01 00 	lea    0x19dce(%rip),%rax        # 239a8 <g_106>
    9bda:	48 89 85 f0 f8 ff ff 	mov    %rax,-0x710(%rbp)
    9be1:	48 8d 05 c0 9d 01 00 	lea    0x19dc0(%rip),%rax        # 239a8 <g_106>
    9be8:	48 89 85 f8 f8 ff ff 	mov    %rax,-0x708(%rbp)
    9bef:	48 8d 85 e8 ed ff ff 	lea    -0x1218(%rbp),%rax
    9bf6:	48 89 85 00 f9 ff ff 	mov    %rax,-0x700(%rbp)
    9bfd:	48 8d 05 a4 9d 01 00 	lea    0x19da4(%rip),%rax        # 239a8 <g_106>
    9c04:	48 89 85 08 f9 ff ff 	mov    %rax,-0x6f8(%rbp)
    9c0b:	48 8d 85 e8 ed ff ff 	lea    -0x1218(%rbp),%rax
    9c12:	48 89 85 10 f9 ff ff 	mov    %rax,-0x6f0(%rbp)
    9c19:	48 8d 85 e8 ed ff ff 	lea    -0x1218(%rbp),%rax
    9c20:	48 89 85 18 f9 ff ff 	mov    %rax,-0x6e8(%rbp)
    9c27:	48 8d 85 e8 ed ff ff 	lea    -0x1218(%rbp),%rax
    9c2e:	48 89 85 20 f9 ff ff 	mov    %rax,-0x6e0(%rbp)
    9c35:	48 c7 85 28 f9 ff ff 	movq   $0x0,-0x6d8(%rbp)
    9c3c:	00 00 00 00 
    9c40:	48 8d 85 08 ee ff ff 	lea    -0x11f8(%rbp),%rax
    9c47:	48 89 85 30 f9 ff ff 	mov    %rax,-0x6d0(%rbp)
    9c4e:	48 8d 05 53 9d 01 00 	lea    0x19d53(%rip),%rax        # 239a8 <g_106>
    9c55:	48 89 85 38 f9 ff ff 	mov    %rax,-0x6c8(%rbp)
    9c5c:	48 c7 85 40 f9 ff ff 	movq   $0x0,-0x6c0(%rbp)
    9c63:	00 00 00 00 
    9c67:	48 8d 85 e8 ed ff ff 	lea    -0x1218(%rbp),%rax
    9c6e:	48 89 85 48 f9 ff ff 	mov    %rax,-0x6b8(%rbp)
    9c75:	48 8d 85 e8 ed ff ff 	lea    -0x1218(%rbp),%rax
    9c7c:	48 89 85 50 f9 ff ff 	mov    %rax,-0x6b0(%rbp)
    9c83:	48 c7 85 58 f9 ff ff 	movq   $0x0,-0x6a8(%rbp)
    9c8a:	00 00 00 00 
    9c8e:	48 8d 85 08 ee ff ff 	lea    -0x11f8(%rbp),%rax
    9c95:	48 89 85 60 f9 ff ff 	mov    %rax,-0x6a0(%rbp)
    9c9c:	48 8d 85 08 ee ff ff 	lea    -0x11f8(%rbp),%rax
    9ca3:	48 89 85 68 f9 ff ff 	mov    %rax,-0x698(%rbp)
    9caa:	48 8d 85 08 ee ff ff 	lea    -0x11f8(%rbp),%rax
    9cb1:	48 89 85 70 f9 ff ff 	mov    %rax,-0x690(%rbp)
    9cb8:	48 c7 85 78 f9 ff ff 	movq   $0x0,-0x688(%rbp)
    9cbf:	00 00 00 00 
    9cc3:	48 8d 85 e8 ed ff ff 	lea    -0x1218(%rbp),%rax
    9cca:	48 89 85 80 f9 ff ff 	mov    %rax,-0x680(%rbp)
    9cd1:	48 8d 85 e8 ed ff ff 	lea    -0x1218(%rbp),%rax
    9cd8:	48 89 85 88 f9 ff ff 	mov    %rax,-0x678(%rbp)
    9cdf:	48 8d 85 e8 ed ff ff 	lea    -0x1218(%rbp),%rax
    9ce6:	48 89 85 90 f9 ff ff 	mov    %rax,-0x670(%rbp)
    9ced:	48 8d 05 b4 9c 01 00 	lea    0x19cb4(%rip),%rax        # 239a8 <g_106>
    9cf4:	48 89 85 98 f9 ff ff 	mov    %rax,-0x668(%rbp)
    9cfb:	48 c7 85 a0 f9 ff ff 	movq   $0x0,-0x660(%rbp)
    9d02:	00 00 00 00 
    9d06:	48 8d 85 08 ee ff ff 	lea    -0x11f8(%rbp),%rax
    9d0d:	48 89 85 a8 f9 ff ff 	mov    %rax,-0x658(%rbp)
    9d14:	48 c7 85 b0 f9 ff ff 	movq   $0x0,-0x650(%rbp)
    9d1b:	00 00 00 00 
    9d1f:	48 8d 85 e8 ed ff ff 	lea    -0x1218(%rbp),%rax
    9d26:	48 89 85 b8 f9 ff ff 	mov    %rax,-0x648(%rbp)
    9d2d:	48 8d 85 e8 ed ff ff 	lea    -0x1218(%rbp),%rax
    9d34:	48 89 85 c0 f9 ff ff 	mov    %rax,-0x640(%rbp)
    9d3b:	48 8d 85 08 ee ff ff 	lea    -0x11f8(%rbp),%rax
    9d42:	48 89 85 c8 f9 ff ff 	mov    %rax,-0x638(%rbp)
    9d49:	48 8d 85 08 ee ff ff 	lea    -0x11f8(%rbp),%rax
    9d50:	48 89 85 d0 f9 ff ff 	mov    %rax,-0x630(%rbp)
    9d57:	48 8d 05 4a 9c 01 00 	lea    0x19c4a(%rip),%rax        # 239a8 <g_106>
    9d5e:	48 89 85 d8 f9 ff ff 	mov    %rax,-0x628(%rbp)
    9d65:	48 8d 05 3c 9c 01 00 	lea    0x19c3c(%rip),%rax        # 239a8 <g_106>
    9d6c:	48 89 85 e0 f9 ff ff 	mov    %rax,-0x620(%rbp)
    9d73:	48 c7 85 e8 f9 ff ff 	movq   $0x0,-0x618(%rbp)
    9d7a:	00 00 00 00 
    9d7e:	48 8d 85 e8 ed ff ff 	lea    -0x1218(%rbp),%rax
    9d85:	48 89 85 f0 f9 ff ff 	mov    %rax,-0x610(%rbp)
    9d8c:	48 8d 05 15 9c 01 00 	lea    0x19c15(%rip),%rax        # 239a8 <g_106>
    9d93:	48 89 85 f8 f9 ff ff 	mov    %rax,-0x608(%rbp)
    9d9a:	48 c7 85 00 fa ff ff 	movq   $0x0,-0x600(%rbp)
    9da1:	00 00 00 00 
    9da5:	48 c7 85 08 fa ff ff 	movq   $0x0,-0x5f8(%rbp)
    9dac:	00 00 00 00 
    9db0:	48 8d 85 08 ee ff ff 	lea    -0x11f8(%rbp),%rax
    9db7:	48 89 85 10 fa ff ff 	mov    %rax,-0x5f0(%rbp)
    9dbe:	48 c7 85 18 fa ff ff 	movq   $0x0,-0x5e8(%rbp)
    9dc5:	00 00 00 00 
    9dc9:	48 8d 85 08 ee ff ff 	lea    -0x11f8(%rbp),%rax
    9dd0:	48 89 85 20 fa ff ff 	mov    %rax,-0x5e0(%rbp)
    9dd7:	48 8d 85 08 ee ff ff 	lea    -0x11f8(%rbp),%rax
    9dde:	48 89 85 28 fa ff ff 	mov    %rax,-0x5d8(%rbp)
    9de5:	48 8d 85 e8 ed ff ff 	lea    -0x1218(%rbp),%rax
    9dec:	48 89 85 30 fa ff ff 	mov    %rax,-0x5d0(%rbp)
    9df3:	48 8d 85 e8 ed ff ff 	lea    -0x1218(%rbp),%rax
    9dfa:	48 89 85 38 fa ff ff 	mov    %rax,-0x5c8(%rbp)
    9e01:	48 8d 85 e8 ed ff ff 	lea    -0x1218(%rbp),%rax
    9e08:	48 89 85 40 fa ff ff 	mov    %rax,-0x5c0(%rbp)
    9e0f:	48 8d 05 92 9b 01 00 	lea    0x19b92(%rip),%rax        # 239a8 <g_106>
    9e16:	48 89 85 48 fa ff ff 	mov    %rax,-0x5b8(%rbp)
    9e1d:	48 8d 05 84 9b 01 00 	lea    0x19b84(%rip),%rax        # 239a8 <g_106>
    9e24:	48 89 85 50 fa ff ff 	mov    %rax,-0x5b0(%rbp)
    9e2b:	48 8d 85 e8 ed ff ff 	lea    -0x1218(%rbp),%rax
    9e32:	48 89 85 58 fa ff ff 	mov    %rax,-0x5a8(%rbp)
    9e39:	48 8d 85 08 ee ff ff 	lea    -0x11f8(%rbp),%rax
    9e40:	48 89 85 60 fa ff ff 	mov    %rax,-0x5a0(%rbp)
    9e47:	48 c7 85 68 fa ff ff 	movq   $0x0,-0x598(%rbp)
    9e4e:	00 00 00 00 
    9e52:	48 8d 85 08 ee ff ff 	lea    -0x11f8(%rbp),%rax
    9e59:	48 89 85 70 fa ff ff 	mov    %rax,-0x590(%rbp)
    9e60:	48 8d 85 e8 ed ff ff 	lea    -0x1218(%rbp),%rax
    9e67:	48 89 85 78 fa ff ff 	mov    %rax,-0x588(%rbp)
    9e6e:	48 8d 05 33 9b 01 00 	lea    0x19b33(%rip),%rax        # 239a8 <g_106>
    9e75:	48 89 85 80 fa ff ff 	mov    %rax,-0x580(%rbp)
    9e7c:	48 8d 85 08 ee ff ff 	lea    -0x11f8(%rbp),%rax
    9e83:	48 89 85 88 fa ff ff 	mov    %rax,-0x578(%rbp)
    9e8a:	48 c7 85 90 fa ff ff 	movq   $0x0,-0x570(%rbp)
    9e91:	00 00 00 00 
    9e95:	48 8d 85 e8 ed ff ff 	lea    -0x1218(%rbp),%rax
    9e9c:	48 89 85 98 fa ff ff 	mov    %rax,-0x568(%rbp)
    9ea3:	48 8d 85 e8 ed ff ff 	lea    -0x1218(%rbp),%rax
    9eaa:	48 89 85 a0 fa ff ff 	mov    %rax,-0x560(%rbp)
    9eb1:	48 8d 85 08 ee ff ff 	lea    -0x11f8(%rbp),%rax
    9eb8:	48 89 85 a8 fa ff ff 	mov    %rax,-0x558(%rbp)
    9ebf:	48 8d 85 08 ee ff ff 	lea    -0x11f8(%rbp),%rax
    9ec6:	48 89 85 b0 fa ff ff 	mov    %rax,-0x550(%rbp)
    9ecd:	48 8d 85 08 ee ff ff 	lea    -0x11f8(%rbp),%rax
    9ed4:	48 89 85 b8 fa ff ff 	mov    %rax,-0x548(%rbp)
    9edb:	48 8d 05 c6 9a 01 00 	lea    0x19ac6(%rip),%rax        # 239a8 <g_106>
    9ee2:	48 89 85 c0 fa ff ff 	mov    %rax,-0x540(%rbp)
    9ee9:	48 c7 85 c8 fa ff ff 	movq   $0x0,-0x538(%rbp)
    9ef0:	00 00 00 00 
    9ef4:	48 8d 85 e8 ed ff ff 	lea    -0x1218(%rbp),%rax
    9efb:	48 89 85 d0 fa ff ff 	mov    %rax,-0x530(%rbp)
    9f02:	48 8d 85 e8 ed ff ff 	lea    -0x1218(%rbp),%rax
    9f09:	48 89 85 d8 fa ff ff 	mov    %rax,-0x528(%rbp)
    9f10:	48 8d 85 e8 ed ff ff 	lea    -0x1218(%rbp),%rax
    9f17:	48 89 85 e0 fa ff ff 	mov    %rax,-0x520(%rbp)
    9f1e:	48 8d 85 e8 ed ff ff 	lea    -0x1218(%rbp),%rax
    9f25:	48 89 85 e8 fa ff ff 	mov    %rax,-0x518(%rbp)
    9f2c:	48 8d 85 e8 ed ff ff 	lea    -0x1218(%rbp),%rax
    9f33:	48 89 85 f0 fa ff ff 	mov    %rax,-0x510(%rbp)
    9f3a:	48 8d 05 67 9a 01 00 	lea    0x19a67(%rip),%rax        # 239a8 <g_106>
    9f41:	48 89 85 f8 fa ff ff 	mov    %rax,-0x508(%rbp)
    9f48:	48 8d 85 08 ee ff ff 	lea    -0x11f8(%rbp),%rax
    9f4f:	48 89 85 00 fb ff ff 	mov    %rax,-0x500(%rbp)
    9f56:	48 c7 85 08 fb ff ff 	movq   $0x0,-0x4f8(%rbp)
    9f5d:	00 00 00 00 
    9f61:	48 8d 85 e0 ef ff ff 	lea    -0x1020(%rbp),%rax
    9f68:	48 83 c0 08          	add    $0x8,%rax
    9f6c:	48 89 85 20 ee ff ff 	mov    %rax,-0x11e0(%rbp)
    9f73:	48 8d 85 20 ee ff ff 	lea    -0x11e0(%rbp),%rax
    9f7a:	48 89 85 d0 f4 ff ff 	mov    %rax,-0xb30(%rbp)
    9f81:	48 8d 85 20 ee ff ff 	lea    -0x11e0(%rbp),%rax
    9f88:	48 89 85 d8 f4 ff ff 	mov    %rax,-0xb28(%rbp)
    9f8f:	48 8d 85 20 ee ff ff 	lea    -0x11e0(%rbp),%rax
    9f96:	48 89 85 e0 f4 ff ff 	mov    %rax,-0xb20(%rbp)
    9f9d:	48 8d 85 20 ee ff ff 	lea    -0x11e0(%rbp),%rax
    9fa4:	48 89 85 e8 f4 ff ff 	mov    %rax,-0xb18(%rbp)
    9fab:	48 8d 85 20 ee ff ff 	lea    -0x11e0(%rbp),%rax
    9fb2:	48 89 85 f0 f4 ff ff 	mov    %rax,-0xb10(%rbp)
    9fb9:	48 8d 85 20 ee ff ff 	lea    -0x11e0(%rbp),%rax
    9fc0:	48 89 85 f8 f4 ff ff 	mov    %rax,-0xb08(%rbp)
    9fc7:	48 c7 85 00 f5 ff ff 	movq   $0x0,-0xb00(%rbp)
    9fce:	00 00 00 00 
    9fd2:	48 8d 85 20 ee ff ff 	lea    -0x11e0(%rbp),%rax
    9fd9:	48 89 85 08 f5 ff ff 	mov    %rax,-0xaf8(%rbp)
    9fe0:	48 8d 85 20 ee ff ff 	lea    -0x11e0(%rbp),%rax
    9fe7:	48 89 85 10 f5 ff ff 	mov    %rax,-0xaf0(%rbp)
    9fee:	48 8d 85 20 ee ff ff 	lea    -0x11e0(%rbp),%rax
    9ff5:	48 89 85 18 f5 ff ff 	mov    %rax,-0xae8(%rbp)
    9ffc:	48 8d 85 20 ee ff ff 	lea    -0x11e0(%rbp),%rax
    a003:	48 89 85 20 f5 ff ff 	mov    %rax,-0xae0(%rbp)
    a00a:	48 8d 85 20 ee ff ff 	lea    -0x11e0(%rbp),%rax
    a011:	48 89 85 28 f5 ff ff 	mov    %rax,-0xad8(%rbp)
    a018:	48 c7 85 30 f5 ff ff 	movq   $0x0,-0xad0(%rbp)
    a01f:	00 00 00 00 
    a023:	48 8d 85 20 ee ff ff 	lea    -0x11e0(%rbp),%rax
    a02a:	48 89 85 38 f5 ff ff 	mov    %rax,-0xac8(%rbp)
    a031:	48 c7 85 40 f5 ff ff 	movq   $0x0,-0xac0(%rbp)
    a038:	00 00 00 00 
    a03c:	48 8d 85 20 ee ff ff 	lea    -0x11e0(%rbp),%rax
    a043:	48 89 85 48 f5 ff ff 	mov    %rax,-0xab8(%rbp)
    a04a:	48 8d 85 20 ee ff ff 	lea    -0x11e0(%rbp),%rax
    a051:	48 89 85 50 f5 ff ff 	mov    %rax,-0xab0(%rbp)
    a058:	48 8d 85 20 ee ff ff 	lea    -0x11e0(%rbp),%rax
    a05f:	48 89 85 58 f5 ff ff 	mov    %rax,-0xaa8(%rbp)
    a066:	48 8d 85 20 ee ff ff 	lea    -0x11e0(%rbp),%rax
    a06d:	48 89 85 60 f5 ff ff 	mov    %rax,-0xaa0(%rbp)
    a074:	48 8d 85 20 ee ff ff 	lea    -0x11e0(%rbp),%rax
    a07b:	48 89 85 68 f5 ff ff 	mov    %rax,-0xa98(%rbp)
    a082:	48 8d 85 20 ee ff ff 	lea    -0x11e0(%rbp),%rax
    a089:	48 89 85 70 f5 ff ff 	mov    %rax,-0xa90(%rbp)
    a090:	48 8d 85 20 ee ff ff 	lea    -0x11e0(%rbp),%rax
    a097:	48 89 85 78 f5 ff ff 	mov    %rax,-0xa88(%rbp)
    a09e:	48 8d 85 20 ee ff ff 	lea    -0x11e0(%rbp),%rax
    a0a5:	48 89 85 80 f5 ff ff 	mov    %rax,-0xa80(%rbp)
    a0ac:	48 8d 85 20 ee ff ff 	lea    -0x11e0(%rbp),%rax
    a0b3:	48 89 85 88 f5 ff ff 	mov    %rax,-0xa78(%rbp)
    a0ba:	c7 85 a0 ed ff ff 00 	movl   $0x0,-0x1260(%rbp)
    a0c1:	00 00 00 
    a0c4:	eb 4d                	jmp    a113 <func_1+0x195e>
    a0c6:	c7 85 90 ed ff ff 00 	movl   $0x0,-0x1270(%rbp)
    a0cd:	00 00 00 
    a0d0:	eb 31                	jmp    a103 <func_1+0x194e>
    a0d2:	8b 85 90 ed ff ff    	mov    -0x1270(%rbp),%eax
    a0d8:	48 63 d0             	movslq %eax,%rdx
    a0db:	8b 85 a0 ed ff ff    	mov    -0x1260(%rbp),%eax
    a0e1:	48 98                	cltq   
    a0e3:	48 01 d0             	add    %rdx,%rax
    a0e6:	48 8d 95 50 f7 ff ff 	lea    -0x8b0(%rbp),%rdx
    a0ed:	48 81 c2 80 02 00 00 	add    $0x280,%rdx
    a0f4:	48 89 94 c5 e0 ef ff 	mov    %rdx,-0x1020(%rbp,%rax,8)
    a0fb:	ff 
    a0fc:	83 85 90 ed ff ff 01 	addl   $0x1,-0x1270(%rbp)
    a103:	83 bd 90 ed ff ff 00 	cmpl   $0x0,-0x1270(%rbp)
    a10a:	7e c6                	jle    a0d2 <func_1+0x191d>
    a10c:	83 85 a0 ed ff ff 01 	addl   $0x1,-0x1260(%rbp)
    a113:	83 bd a0 ed ff ff 01 	cmpl   $0x1,-0x1260(%rbp)
    a11a:	7e aa                	jle    a0c6 <func_1+0x1911>
    a11c:	48 8b 05 bd 60 01 00 	mov    0x160bd(%rip),%rax        # 201e0 <g_1525>
    a123:	48 8b 15 be 60 01 00 	mov    0x160be(%rip),%rdx        # 201e8 <g_1525+0x8>
    a12a:	48 89 05 cf 60 01 00 	mov    %rax,0x160cf(%rip)        # 20200 <g_1526>
    a131:	48 89 15 d0 60 01 00 	mov    %rdx,0x160d0(%rip)        # 20208 <g_1526+0x8>
    a138:	48 8b 05 b1 60 01 00 	mov    0x160b1(%rip),%rax        # 201f0 <g_1525+0x10>
    a13f:	48 89 05 ca 60 01 00 	mov    %rax,0x160ca(%rip)        # 20210 <g_1526+0x10>
    a146:	8b 05 ac 60 01 00    	mov    0x160ac(%rip),%eax        # 201f8 <g_1525+0x18>
    a14c:	89 05 c6 60 01 00    	mov    %eax,0x160c6(%rip)        # 20218 <g_1526+0x18>
    a152:	0f b7 05 a3 60 01 00 	movzwl 0x160a3(%rip),%eax        # 201fc <g_1525+0x1c>
    a159:	66 89 05 bc 60 01 00 	mov    %ax,0x160bc(%rip)        # 2021c <g_1526+0x1c>
    a160:	0f b7 9d 28 ed ff ff 	movzwl -0x12d8(%rbp),%ebx
    a167:	48 8b 85 08 ee ff ff 	mov    -0x11f8(%rbp),%rax
    a16e:	8b 10                	mov    (%rax),%edx
    a170:	0f b7 85 28 ed ff ff 	movzwl -0x12d8(%rbp),%eax
    a177:	39 c2                	cmp    %eax,%edx
    a179:	0f 94 c0             	sete   %al
    a17c:	0f b6 d0             	movzbl %al,%edx
    a17f:	48 c7 85 80 ee ff ff 	movq   $0x0,-0x1180(%rbp)
    a186:	00 00 00 00 
    a18a:	48 83 bd 80 ee ff ff 	cmpq   $0x0,-0x1180(%rbp)
    a191:	00 
    a192:	0f 95 c0             	setne  %al
    a195:	0f b6 c0             	movzbl %al,%eax
    a198:	89 d6                	mov    %edx,%esi
    a19a:	89 c7                	mov    %eax,%edi
    a19c:	e8 00 d1 ff ff       	callq  72a1 <safe_lshift_func_int8_t_s_s>
    a1a1:	48 8b 85 e8 ed ff ff 	mov    -0x1218(%rbp),%rax
    a1a8:	8b 00                	mov    (%rax),%eax
    a1aa:	44 0f b7 e0          	movzwl %ax,%r12d
    a1ae:	be e5 a1 db 88       	mov    $0x88dba1e5,%esi
    a1b3:	bf 26 04 cb ed       	mov    $0xedcb0426,%edi
    a1b8:	e8 40 dd ff ff       	callq  7efd <safe_mod_func_uint32_t_u_u>
    a1bd:	48 8b 85 60 ee ff ff 	mov    -0x11a0(%rbp),%rax
    a1c4:	8b 00                	mov    (%rax),%eax
    a1c6:	8d 48 ff             	lea    -0x1(%rax),%ecx
    a1c9:	48 8b 95 60 ee ff ff 	mov    -0x11a0(%rbp),%rdx
    a1d0:	89 0a                	mov    %ecx,(%rdx)
    a1d2:	0d 23 c8 26 7e       	or     $0x7e26c823,%eax
    a1d7:	89 c0                	mov    %eax,%eax
    a1d9:	48 89 85 18 ed ff ff 	mov    %rax,-0x12e8(%rbp)
    a1e0:	44 0f b6 bd 25 ed ff 	movzbl -0x12db(%rbp),%r15d
    a1e7:	ff 
    a1e8:	8b 85 60 ed ff ff    	mov    -0x12a0(%rbp),%eax
    a1ee:	4c 63 e8             	movslq %eax,%r13
    a1f1:	48 8b 85 08 ee ff ff 	mov    -0x11f8(%rbp),%rax
    a1f8:	8b 00                	mov    (%rax),%eax
    a1fa:	44 0f b6 f0          	movzbl %al,%r14d
    a1fe:	0f b7 85 28 ed ff ff 	movzwl -0x12d8(%rbp),%eax
    a205:	be ff ff 00 00       	mov    $0xffff,%esi
    a20a:	89 c7                	mov    %eax,%edi
    a20c:	e8 0e db ff ff       	callq  7d1f <safe_sub_func_uint16_t_u_u>
    a211:	44 89 f6             	mov    %r14d,%esi
    a214:	bf 01 00 00 00       	mov    $0x1,%edi
    a219:	e8 bd d9 ff ff       	callq  7bdb <safe_div_func_uint8_t_u_u>
    a21e:	84 c0                	test   %al,%al
    a220:	74 07                	je     a229 <func_1+0x1a74>
    a222:	b9 01 00 00 00       	mov    $0x1,%ecx
    a227:	eb 05                	jmp    a22e <func_1+0x1a79>
    a229:	b9 00 00 00 00       	mov    $0x0,%ecx
    a22e:	48 8b 85 30 ee ff ff 	mov    -0x11d0(%rbp),%rax
    a235:	48 8b 10             	mov    (%rax),%rdx
    a238:	48 63 c1             	movslq %ecx,%rax
    a23b:	48 09 c2             	or     %rax,%rdx
    a23e:	48 8b 85 30 ee ff ff 	mov    -0x11d0(%rbp),%rax
    a245:	48 89 10             	mov    %rdx,(%rax)
    a248:	48 8b 85 30 ee ff ff 	mov    -0x11d0(%rbp),%rax
    a24f:	48 8b 00             	mov    (%rax),%rax
    a252:	4c 89 ee             	mov    %r13,%rsi
    a255:	48 89 c7             	mov    %rax,%rdi
    a258:	e8 e4 d5 ff ff       	callq  7841 <safe_add_func_int64_t_s_s>
    a25d:	49 39 c7             	cmp    %rax,%r15
    a260:	0f 95 c0             	setne  %al
    a263:	0f b6 c0             	movzbl %al,%eax
    a266:	48 39 85 18 ed ff ff 	cmp    %rax,-0x12e8(%rbp)
    a26d:	0f 9f c0             	setg   %al
    a270:	0f b6 d0             	movzbl %al,%edx
    a273:	48 8b 05 2e 97 01 00 	mov    0x1972e(%rip),%rax        # 239a8 <g_106>
    a27a:	8b 00                	mov    (%rax),%eax
    a27c:	39 c2                	cmp    %eax,%edx
    a27e:	0f 9c c0             	setl   %al
    a281:	0f b6 c0             	movzbl %al,%eax
    a284:	44 89 e6             	mov    %r12d,%esi
    a287:	89 c7                	mov    %eax,%edi
    a289:	e8 91 da ff ff       	callq  7d1f <safe_sub_func_uint16_t_u_u>
    a28e:	48 8b 85 e8 ed ff ff 	mov    -0x1218(%rbp),%rax
    a295:	8b 00                	mov    (%rax),%eax
    a297:	48 98                	cltq   
    a299:	48 ba 71 18 c1 66 b9 	movabs $0xb8a393b966c11871,%rdx
    a2a0:	93 a3 b8 
    a2a3:	48 39 d0             	cmp    %rdx,%rax
    a2a6:	0f 96 c0             	setbe  %al
    a2a9:	0f b6 d0             	movzbl %al,%edx
    a2ac:	48 8b 05 05 97 01 00 	mov    0x19705(%rip),%rax        # 239b8 <g_113>
    a2b3:	48 8b 00             	mov    (%rax),%rax
    a2b6:	48 8b 00             	mov    (%rax),%rax
    a2b9:	8b 00                	mov    (%rax),%eax
    a2bb:	39 c2                	cmp    %eax,%edx
    a2bd:	0f 94 c0             	sete   %al
    a2c0:	0f b6 d0             	movzbl %al,%edx
    a2c3:	48 8b 05 fe 96 01 00 	mov    0x196fe(%rip),%rax        # 239c8 <g_235>
    a2ca:	0f b6 00             	movzbl (%rax),%eax
    a2cd:	0f be c0             	movsbl %al,%eax
    a2d0:	09 d0                	or     %edx,%eax
    a2d2:	0b 85 60 ed ff ff    	or     -0x12a0(%rbp),%eax
    a2d8:	48 98                	cltq   
    a2da:	48 89 de             	mov    %rbx,%rsi
    a2dd:	48 89 c7             	mov    %rax,%rdi
    a2e0:	e8 5c d5 ff ff       	callq  7841 <safe_add_func_int64_t_s_s>
    a2e5:	48 85 c0             	test   %rax,%rax
    a2e8:	74 64                	je     a34e <func_1+0x1b99>
    a2ea:	c7 05 0c 5b 01 00 00 	movl   $0x0,0x15b0c(%rip)        # 1fe00 <g_1172>
    a2f1:	00 00 00 
    a2f4:	90                   	nop
    a2f5:	8b 05 05 5b 01 00    	mov    0x15b05(%rip),%eax        # 1fe00 <g_1172>
    a2fb:	83 f8 05             	cmp    $0x5,%eax
    a2fe:	77 13                	ja     a313 <func_1+0x1b5e>
    a300:	c6 85 26 ed ff ff fe 	movb   $0xfe,-0x12da(%rbp)
    a307:	0f b6 85 26 ed ff ff 	movzbl -0x12da(%rbp),%eax
    a30e:	e9 82 22 00 00       	jmpq   c595 <func_1+0x3de0>
    a313:	0f b6 05 b2 5a 01 00 	movzbl 0x15ab2(%rip),%eax        # 1fdcc <g_1092+0xc>
    a31a:	0f b6 d0             	movzbl %al,%edx
    a31d:	48 8b 05 9c 96 01 00 	mov    0x1969c(%rip),%rax        # 239c0 <g_112>
    a324:	48 8b 00             	mov    (%rax),%rax
    a327:	48 8b 00             	mov    (%rax),%rax
    a32a:	48 8b 00             	mov    (%rax),%rax
    a32d:	81 e2 ea 00 00 00    	and    $0xea,%edx
    a333:	89 10                	mov    %edx,(%rax)
    a335:	48 8b 05 7c 96 01 00 	mov    0x1967c(%rip),%rax        # 239b8 <g_113>
    a33c:	48 8b 00             	mov    (%rax),%rax
    a33f:	48 8d 95 30 ed ff ff 	lea    -0x12d0(%rbp),%rdx
    a346:	48 89 10             	mov    %rdx,(%rax)
    a349:	e9 31 02 00 00       	jmpq   a57f <func_1+0x1dca>
    a34e:	c7 85 f0 f2 ff ff 97 	movl   $0x97778597,-0xd10(%rbp)
    a355:	85 77 97 
    a358:	c7 85 f4 f2 ff ff ed 	movl   $0x436ec0ed,-0xd0c(%rbp)
    a35f:	c0 6e 43 
    a362:	c7 85 f8 f2 ff ff ed 	movl   $0x436ec0ed,-0xd08(%rbp)
    a369:	c0 6e 43 
    a36c:	c7 85 fc f2 ff ff 97 	movl   $0x97778597,-0xd04(%rbp)
    a373:	85 77 97 
    a376:	c7 85 00 f3 ff ff ed 	movl   $0x436ec0ed,-0xd00(%rbp)
    a37d:	c0 6e 43 
    a380:	c7 85 04 f3 ff ff ed 	movl   $0x436ec0ed,-0xcfc(%rbp)
    a387:	c0 6e 43 
    a38a:	c7 85 08 f3 ff ff 97 	movl   $0x97778597,-0xcf8(%rbp)
    a391:	85 77 97 
    a394:	c7 85 0c f3 ff ff ed 	movl   $0x436ec0ed,-0xcf4(%rbp)
    a39b:	c0 6e 43 
    a39e:	c7 85 10 f3 ff ff ed 	movl   $0x436ec0ed,-0xcf0(%rbp)
    a3a5:	c0 6e 43 
    a3a8:	c7 85 14 f3 ff ff 97 	movl   $0x97778597,-0xcec(%rbp)
    a3af:	85 77 97 
    a3b2:	48 c7 85 f8 ee ff ff 	movq   $0x0,-0x1108(%rbp)
    a3b9:	00 00 00 00 
    a3bd:	c7 85 a4 ed ff ff 00 	movl   $0x0,-0x125c(%rbp)
    a3c4:	00 00 00 
    a3c7:	48 8d 05 1c 5a 01 00 	lea    0x15a1c(%rip),%rax        # 1fdea <g_1133+0xa>
    a3ce:	48 89 85 00 ef ff ff 	mov    %rax,-0x1100(%rbp)
    a3d5:	48 8b 85 e8 ed ff ff 	mov    -0x1218(%rbp),%rax
    a3dc:	8b 08                	mov    (%rax),%ecx
    a3de:	8b 95 f8 f2 ff ff    	mov    -0xd08(%rbp),%edx
    a3e4:	48 8b 85 e8 ed ff ff 	mov    -0x1218(%rbp),%rax
    a3eb:	09 ca                	or     %ecx,%edx
    a3ed:	89 10                	mov    %edx,(%rax)
    a3ef:	8b 85 60 ed ff ff    	mov    -0x12a0(%rbp),%eax
    a3f5:	48 63 d8             	movslq %eax,%rbx
    a3f8:	44 8b ad f0 f2 ff ff 	mov    -0xd10(%rbp),%r13d
    a3ff:	48 83 bd 28 ee ff ff 	cmpq   $0x0,-0x11d8(%rbp)
    a406:	00 
    a407:	0f 94 c0             	sete   %al
    a40a:	44 0f b6 f0          	movzbl %al,%r14d
    a40e:	48 8b 85 08 ee ff ff 	mov    -0x11f8(%rbp),%rax
    a415:	8b 00                	mov    (%rax),%eax
    a417:	44 0f bf e0          	movswl %ax,%r12d
    a41b:	48 8b 85 30 f5 ff ff 	mov    -0xad0(%rbp),%rax
    a422:	48 89 85 f8 ee ff ff 	mov    %rax,-0x1108(%rbp)
    a429:	48 8d 05 90 95 01 00 	lea    0x19590(%rip),%rax        # 239c0 <g_112>
    a430:	48 39 85 f8 ee ff ff 	cmp    %rax,-0x1108(%rbp)
    a437:	0f 95 c0             	setne  %al
    a43a:	0f b6 c0             	movzbl %al,%eax
    a43d:	be f5 ff ff ff       	mov    $0xfffffff5,%esi
    a442:	89 c7                	mov    %eax,%edi
    a444:	e8 c9 cd ff ff       	callq  7212 <safe_mul_func_int8_t_s_s>
    a449:	0f be d0             	movsbl %al,%edx
    a44c:	8b 85 00 f3 ff ff    	mov    -0xd00(%rbp),%eax
    a452:	39 c2                	cmp    %eax,%edx
    a454:	0f 9e c0             	setle  %al
    a457:	0f b6 c0             	movzbl %al,%eax
    a45a:	44 89 e6             	mov    %r12d,%esi
    a45d:	89 c7                	mov    %eax,%edi
    a45f:	e8 91 cf ff ff       	callq  73f5 <safe_mul_func_int16_t_s_s>
    a464:	98                   	cwtl   
    a465:	39 85 a4 ed ff ff    	cmp    %eax,-0x125c(%rbp)
    a46b:	0f 9d c0             	setge  %al
    a46e:	0f b6 d0             	movzbl %al,%edx
    a471:	8b 05 01 4c 01 00    	mov    0x14c01(%rip),%eax        # 1f078 <g_225>
    a477:	39 c2                	cmp    %eax,%edx
    a479:	0f 9c c0             	setl   %al
    a47c:	0f b6 c0             	movzbl %al,%eax
    a47f:	44 31 f0             	xor    %r14d,%eax
    a482:	48 63 d0             	movslq %eax,%rdx
    a485:	48 8b 85 00 ef ff ff 	mov    -0x1100(%rbp),%rax
    a48c:	48 89 10             	mov    %rdx,(%rax)
    a48f:	48 8b 85 00 ef ff ff 	mov    -0x1100(%rbp),%rax
    a496:	48 8b 10             	mov    (%rax),%rdx
    a499:	8b 85 60 ed ff ff    	mov    -0x12a0(%rbp),%eax
    a49f:	48 98                	cltq   
    a4a1:	48 39 c2             	cmp    %rax,%rdx
    a4a4:	0f 92 c0             	setb   %al
    a4a7:	0f b6 c0             	movzbl %al,%eax
    a4aa:	41 39 c5             	cmp    %eax,%r13d
    a4ad:	0f 95 c0             	setne  %al
    a4b0:	0f b6 c0             	movzbl %al,%eax
    a4b3:	0b 85 60 ed ff ff    	or     -0x12a0(%rbp),%eax
    a4b9:	48 63 d0             	movslq %eax,%rdx
    a4bc:	48 8b 85 08 ee ff ff 	mov    -0x11f8(%rbp),%rax
    a4c3:	8b 00                	mov    (%rax),%eax
    a4c5:	48 98                	cltq   
    a4c7:	48 89 d6             	mov    %rdx,%rsi
    a4ca:	48 89 c7             	mov    %rax,%rdi
    a4cd:	e8 dd db ff ff       	callq  80af <safe_div_func_uint64_t_u_u>
    a4d2:	8b 85 60 ed ff ff    	mov    -0x12a0(%rbp),%eax
    a4d8:	89 c6                	mov    %eax,%esi
    a4da:	bf 01 00 00 00       	mov    $0x1,%edi
    a4df:	e8 46 d0 ff ff       	callq  752a <safe_rshift_func_int16_t_s_s>
    a4e4:	48 89 de             	mov    %rbx,%rsi
    a4e7:	bf 01 00 00 00       	mov    $0x1,%edi
    a4ec:	e8 06 d5 ff ff       	callq  79f7 <safe_div_func_int64_t_s_s>
    a4f1:	48 85 c0             	test   %rax,%rax
    a4f4:	75 0d                	jne    a503 <func_1+0x1d4e>
    a4f6:	48 8b 85 08 ee ff ff 	mov    -0x11f8(%rbp),%rax
    a4fd:	8b 00                	mov    (%rax),%eax
    a4ff:	85 c0                	test   %eax,%eax
    a501:	74 07                	je     a50a <func_1+0x1d55>
    a503:	b8 01 00 00 00       	mov    $0x1,%eax
    a508:	eb 05                	jmp    a50f <func_1+0x1d5a>
    a50a:	b8 00 00 00 00       	mov    $0x0,%eax
    a50f:	0f be d0             	movsbl %al,%edx
    a512:	8b 8d f8 f2 ff ff    	mov    -0xd08(%rbp),%ecx
    a518:	48 8b 05 91 99 01 00 	mov    0x19991(%rip),%rax        # 23eb0 <g_784>
    a51f:	48 63 c9             	movslq %ecx,%rcx
    a522:	48 89 08             	mov    %rcx,(%rax)
    a525:	48 8b 00             	mov    (%rax),%rax
    a528:	89 c1                	mov    %eax,%ecx
    a52a:	8b 05 3c 5c 01 00    	mov    0x15c3c(%rip),%eax        # 2016c <g_1455+0xc>
    a530:	01 c0                	add    %eax,%eax
    a532:	c1 f8 0b             	sar    $0xb,%eax
    a535:	09 c8                	or     %ecx,%eax
    a537:	0f be c0             	movsbl %al,%eax
    a53a:	89 d6                	mov    %edx,%esi
    a53c:	89 c7                	mov    %eax,%edi
    a53e:	e8 ee cc ff ff       	callq  7231 <safe_mod_func_int8_t_s_s>
    a543:	89 c2                	mov    %eax,%edx
    a545:	48 8b 85 08 ee ff ff 	mov    -0x11f8(%rbp),%rax
    a54c:	0f be d2             	movsbl %dl,%edx
    a54f:	89 10                	mov    %edx,(%rax)
    a551:	83 bd 60 ed ff ff 00 	cmpl   $0x0,-0x12a0(%rbp)
    a558:	75 25                	jne    a57f <func_1+0x1dca>
    a55a:	c7 05 40 5c 01 00 00 	movl   $0x0,0x15c40(%rip)        # 201a4 <g_1502+0x4>
    a561:	00 00 00 
    a564:	90                   	nop
    a565:	8b 05 39 5c 01 00    	mov    0x15c39(%rip),%eax        # 201a4 <g_1502+0x4>
    a56b:	83 f8 fc             	cmp    $0xfffffffc,%eax
    a56e:	7d 0f                	jge    a57f <func_1+0x1dca>
    a570:	48 8b 05 b9 97 01 00 	mov    0x197b9(%rip),%rax        # 23d30 <g_741>
    a577:	48 8b 00             	mov    (%rax),%rax
    a57a:	e9 16 20 00 00       	jmpq   c595 <func_1+0x3de0>
    a57f:	8b 05 cb 4a 01 00    	mov    0x14acb(%rip),%eax        # 1f050 <g_41>
    a585:	83 c0 01             	add    $0x1,%eax
    a588:	89 05 c2 4a 01 00    	mov    %eax,0x14ac2(%rip)        # 1f050 <g_41>
    a58e:	8b 05 bc 4a 01 00    	mov    0x14abc(%rip),%eax        # 1f050 <g_41>
    a594:	83 f8 02             	cmp    $0x2,%eax
    a597:	0f 8e 3d f3 ff ff    	jle    98da <func_1+0x1125>
    a59d:	83 bd 60 ed ff ff 00 	cmpl   $0x0,-0x12a0(%rbp)
    a5a4:	0f 85 34 01 00 00    	jne    a6de <func_1+0x1f29>
    a5aa:	48 8b 85 08 ee ff ff 	mov    -0x11f8(%rbp),%rax
    a5b1:	8b 00                	mov    (%rax),%eax
    a5b3:	41 89 c5             	mov    %eax,%r13d
    a5b6:	48 8b 05 f3 98 01 00 	mov    0x198f3(%rip),%rax        # 23eb0 <g_784>
    a5bd:	48 8b 00             	mov    (%rax),%rax
    a5c0:	48 85 c0             	test   %rax,%rax
    a5c3:	75 0f                	jne    a5d4 <func_1+0x1e1f>
    a5c5:	48 8b 05 64 97 01 00 	mov    0x19764(%rip),%rax        # 23d30 <g_741>
    a5cc:	48 8b 00             	mov    (%rax),%rax
    a5cf:	48 85 c0             	test   %rax,%rax
    a5d2:	74 07                	je     a5db <func_1+0x1e26>
    a5d4:	b8 01 00 00 00       	mov    $0x1,%eax
    a5d9:	eb 05                	jmp    a5e0 <func_1+0x1e2b>
    a5db:	b8 00 00 00 00       	mov    $0x0,%eax
    a5e0:	89 c3                	mov    %eax,%ebx
    a5e2:	83 e3 01             	and    $0x1,%ebx
    a5e5:	8b 85 60 ed ff ff    	mov    -0x12a0(%rbp),%eax
    a5eb:	89 85 84 f0 ff ff    	mov    %eax,-0xf7c(%rbp)
    a5f1:	44 8b a5 84 f0 ff ff 	mov    -0xf7c(%rbp),%r12d
    a5f8:	48 8b 05 c9 93 01 00 	mov    0x193c9(%rip),%rax        # 239c8 <g_235>
    a5ff:	0f b6 00             	movzbl (%rax),%eax
    a602:	0f be c0             	movsbl %al,%eax
    a605:	89 c6                	mov    %eax,%esi
    a607:	bf 00 00 00 00       	mov    $0x0,%edi
    a60c:	e8 59 cc ff ff       	callq  726a <safe_div_func_int8_t_s_s>
    a611:	0f be d0             	movsbl %al,%edx
    a614:	81 8d 68 ed ff ff 9f 	orl    $0xfb9f,-0x1298(%rbp)
    a61b:	fb 00 00 
    a61e:	8b 85 68 ed ff ff    	mov    -0x1298(%rbp),%eax
    a624:	98                   	cwtl   
    a625:	89 d6                	mov    %edx,%esi
    a627:	89 c7                	mov    %eax,%edi
    a629:	e8 85 cd ff ff       	callq  73b3 <safe_add_func_int16_t_s_s>
    a62e:	98                   	cwtl   
    a62f:	41 39 c4             	cmp    %eax,%r12d
    a632:	0f 9c c0             	setl   %al
    a635:	0f b6 c0             	movzbl %al,%eax
    a638:	f7 d0                	not    %eax
    a63a:	0f b7 d0             	movzwl %ax,%edx
    a63d:	48 8b 85 08 ee ff ff 	mov    -0x11f8(%rbp),%rax
    a644:	8b 00                	mov    (%rax),%eax
    a646:	0f b7 c0             	movzwl %ax,%eax
    a649:	89 d6                	mov    %edx,%esi
    a64b:	89 c7                	mov    %eax,%edi
    a64d:	e8 0a d7 ff ff       	callq  7d5c <safe_mod_func_uint16_t_u_u>
    a652:	0f b7 c0             	movzwl %ax,%eax
    a655:	be 08 00 00 00       	mov    $0x8,%esi
    a65a:	89 c7                	mov    %eax,%edi
    a65c:	e8 a4 cf ff ff       	callq  7605 <safe_sub_func_int32_t_s_s>
    a661:	85 c0                	test   %eax,%eax
    a663:	0f 94 c0             	sete   %al
    a666:	21 d8                	and    %ebx,%eax
    a668:	0f b6 c0             	movzbl %al,%eax
    a66b:	44 89 ee             	mov    %r13d,%esi
    a66e:	89 c7                	mov    %eax,%edi
    a670:	e8 f7 cc ff ff       	callq  736c <safe_rshift_func_int8_t_s_u>
    a675:	0f be c0             	movsbl %al,%eax
    a678:	be 1f 37 00 00       	mov    $0x371f,%esi
    a67d:	89 c7                	mov    %eax,%edi
    a67f:	e8 71 cd ff ff       	callq  73f5 <safe_mul_func_int16_t_s_s>
    a684:	0f bf d0             	movswl %ax,%edx
    a687:	48 8b 85 f0 ee ff ff 	mov    -0x1110(%rbp),%rax
    a68e:	89 85 64 ed ff ff    	mov    %eax,-0x129c(%rbp)
    a694:	8b 85 64 ed ff ff    	mov    -0x129c(%rbp),%eax
    a69a:	89 d6                	mov    %edx,%esi
    a69c:	89 c7                	mov    %eax,%edi
    a69e:	e8 5a d8 ff ff       	callq  7efd <safe_mod_func_uint32_t_u_u>
    a6a3:	48 8b 95 58 ee ff ff 	mov    -0x11a8(%rbp),%rdx
    a6aa:	8b 12                	mov    (%rdx),%edx
    a6ac:	21 d0                	and    %edx,%eax
    a6ae:	89 c2                	mov    %eax,%edx
    a6b0:	48 8b 85 58 ee ff ff 	mov    -0x11a8(%rbp),%rax
    a6b7:	89 10                	mov    %edx,(%rax)
    a6b9:	48 8b 05 d8 a1 01 00 	mov    0x1a1d8(%rip),%rax        # 24898 <g_1490>
    a6c0:	48 83 e8 01          	sub    $0x1,%rax
    a6c4:	48 89 05 cd a1 01 00 	mov    %rax,0x1a1cd(%rip)        # 24898 <g_1490>
    a6cb:	48 8b 05 c6 a1 01 00 	mov    0x1a1c6(%rip),%rax        # 24898 <g_1490>
    a6d2:	48 83 f8 fa          	cmp    $0xfffffffffffffffa,%rax
    a6d6:	0f 8c 10 f1 ff ff    	jl     97ec <func_1+0x1037>
    a6dc:	eb 01                	jmp    a6df <func_1+0x1f2a>
    a6de:	90                   	nop
    a6df:	48 8b 05 d2 92 01 00 	mov    0x192d2(%rip),%rax        # 239b8 <g_113>
    a6e6:	48 8b 00             	mov    (%rax),%rax
    a6e9:	48 8b 95 08 ee ff ff 	mov    -0x11f8(%rbp),%rdx
    a6f0:	48 89 10             	mov    %rdx,(%rax)
    a6f3:	c7 05 e5 4a 01 00 00 	movl   $0x0,0x14ae5(%rip)        # 1f1e2 <g_277+0x12>
    a6fa:	00 00 00 
    a6fd:	e9 38 1d 00 00       	jmpq   c43a <func_1+0x3c85>
    a702:	c7 85 a8 ed ff ff 09 	movl   $0x9,-0x1258(%rbp)
    a709:	00 00 00 
    a70c:	c7 85 4c ed ff ff 6f 	movl   $0x68760a6f,-0x12b4(%rbp)
    a713:	0a 76 68 
    a716:	c7 85 50 ed ff ff 96 	movl   $0x77bbdd96,-0x12b0(%rbp)
    a71d:	dd bb 77 
    a720:	48 c7 85 08 ef ff ff 	movq   $0x0,-0x10f8(%rbp)
    a727:	00 00 00 00 
    a72b:	48 8d 05 7e 9a 01 00 	lea    0x19a7e(%rip),%rax        # 241b0 <g_1167+0x10>
    a732:	48 89 85 10 ef ff ff 	mov    %rax,-0x10f0(%rbp)
    a739:	48 8d 05 b0 9a 01 00 	lea    0x19ab0(%rip),%rax        # 241f0 <g_1364>
    a740:	48 89 85 d0 f4 ff ff 	mov    %rax,-0xb30(%rbp)
    a747:	48 8d 85 f0 ed ff ff 	lea    -0x1210(%rbp),%rax
    a74e:	48 89 85 d8 f4 ff ff 	mov    %rax,-0xb28(%rbp)
    a755:	48 8d 85 f0 ed ff ff 	lea    -0x1210(%rbp),%rax
    a75c:	48 89 85 e0 f4 ff ff 	mov    %rax,-0xb20(%rbp)
    a763:	48 8d 85 f0 ed ff ff 	lea    -0x1210(%rbp),%rax
    a76a:	48 89 85 e8 f4 ff ff 	mov    %rax,-0xb18(%rbp)
    a771:	48 8d 05 78 9a 01 00 	lea    0x19a78(%rip),%rax        # 241f0 <g_1364>
    a778:	48 89 85 f0 f4 ff ff 	mov    %rax,-0xb10(%rbp)
    a77f:	48 8d 85 f0 ed ff ff 	lea    -0x1210(%rbp),%rax
    a786:	48 89 85 f8 f4 ff ff 	mov    %rax,-0xb08(%rbp)
    a78d:	48 8d 85 f0 ed ff ff 	lea    -0x1210(%rbp),%rax
    a794:	48 89 85 00 f5 ff ff 	mov    %rax,-0xb00(%rbp)
    a79b:	48 8d 85 f0 ed ff ff 	lea    -0x1210(%rbp),%rax
    a7a2:	48 89 85 08 f5 ff ff 	mov    %rax,-0xaf8(%rbp)
    a7a9:	48 8d 05 40 9a 01 00 	lea    0x19a40(%rip),%rax        # 241f0 <g_1364>
    a7b0:	48 89 85 10 f5 ff ff 	mov    %rax,-0xaf0(%rbp)
    a7b7:	48 8d 05 32 9a 01 00 	lea    0x19a32(%rip),%rax        # 241f0 <g_1364>
    a7be:	48 89 85 18 f5 ff ff 	mov    %rax,-0xae8(%rbp)
    a7c5:	48 8d 05 24 9a 01 00 	lea    0x19a24(%rip),%rax        # 241f0 <g_1364>
    a7cc:	48 89 85 20 f5 ff ff 	mov    %rax,-0xae0(%rbp)
    a7d3:	48 8d 05 16 9a 01 00 	lea    0x19a16(%rip),%rax        # 241f0 <g_1364>
    a7da:	48 89 85 28 f5 ff ff 	mov    %rax,-0xad8(%rbp)
    a7e1:	48 8d 05 08 9a 01 00 	lea    0x19a08(%rip),%rax        # 241f0 <g_1364>
    a7e8:	48 89 85 30 f5 ff ff 	mov    %rax,-0xad0(%rbp)
    a7ef:	48 8d 85 f0 ed ff ff 	lea    -0x1210(%rbp),%rax
    a7f6:	48 89 85 38 f5 ff ff 	mov    %rax,-0xac8(%rbp)
    a7fd:	48 8d 05 ec 99 01 00 	lea    0x199ec(%rip),%rax        # 241f0 <g_1364>
    a804:	48 89 85 40 f5 ff ff 	mov    %rax,-0xac0(%rbp)
    a80b:	48 8d 85 f0 ed ff ff 	lea    -0x1210(%rbp),%rax
    a812:	48 89 85 48 f5 ff ff 	mov    %rax,-0xab8(%rbp)
    a819:	48 8d 85 f0 ed ff ff 	lea    -0x1210(%rbp),%rax
    a820:	48 89 85 50 f5 ff ff 	mov    %rax,-0xab0(%rbp)
    a827:	48 8d 85 f0 ed ff ff 	lea    -0x1210(%rbp),%rax
    a82e:	48 89 85 58 f5 ff ff 	mov    %rax,-0xaa8(%rbp)
    a835:	48 8d 05 b4 99 01 00 	lea    0x199b4(%rip),%rax        # 241f0 <g_1364>
    a83c:	48 89 85 60 f5 ff ff 	mov    %rax,-0xaa0(%rbp)
    a843:	48 8d 05 a6 99 01 00 	lea    0x199a6(%rip),%rax        # 241f0 <g_1364>
    a84a:	48 89 85 68 f5 ff ff 	mov    %rax,-0xa98(%rbp)
    a851:	48 8d 05 98 99 01 00 	lea    0x19998(%rip),%rax        # 241f0 <g_1364>
    a858:	48 89 85 70 f5 ff ff 	mov    %rax,-0xa90(%rbp)
    a85f:	48 8d 05 8a 99 01 00 	lea    0x1998a(%rip),%rax        # 241f0 <g_1364>
    a866:	48 89 85 78 f5 ff ff 	mov    %rax,-0xa88(%rbp)
    a86d:	48 8d 05 7c 99 01 00 	lea    0x1997c(%rip),%rax        # 241f0 <g_1364>
    a874:	48 89 85 80 f5 ff ff 	mov    %rax,-0xa80(%rbp)
    a87b:	48 8d 05 6e 99 01 00 	lea    0x1996e(%rip),%rax        # 241f0 <g_1364>
    a882:	48 89 85 88 f5 ff ff 	mov    %rax,-0xa78(%rbp)
    a889:	48 8d 05 60 99 01 00 	lea    0x19960(%rip),%rax        # 241f0 <g_1364>
    a890:	48 89 85 90 f5 ff ff 	mov    %rax,-0xa70(%rbp)
    a897:	48 8d 05 52 99 01 00 	lea    0x19952(%rip),%rax        # 241f0 <g_1364>
    a89e:	48 89 85 98 f5 ff ff 	mov    %rax,-0xa68(%rbp)
    a8a5:	48 8d 05 44 99 01 00 	lea    0x19944(%rip),%rax        # 241f0 <g_1364>
    a8ac:	48 89 85 a0 f5 ff ff 	mov    %rax,-0xa60(%rbp)
    a8b3:	48 8d 85 f0 ed ff ff 	lea    -0x1210(%rbp),%rax
    a8ba:	48 89 85 a8 f5 ff ff 	mov    %rax,-0xa58(%rbp)
    a8c1:	48 c7 85 b0 f5 ff ff 	movq   $0x0,-0xa50(%rbp)
    a8c8:	00 00 00 00 
    a8cc:	48 8d 05 1d 99 01 00 	lea    0x1991d(%rip),%rax        # 241f0 <g_1364>
    a8d3:	48 89 85 b8 f5 ff ff 	mov    %rax,-0xa48(%rbp)
    a8da:	48 8d 85 f0 ed ff ff 	lea    -0x1210(%rbp),%rax
    a8e1:	48 89 85 c0 f5 ff ff 	mov    %rax,-0xa40(%rbp)
    a8e8:	48 8d 05 01 99 01 00 	lea    0x19901(%rip),%rax        # 241f0 <g_1364>
    a8ef:	48 89 85 c8 f5 ff ff 	mov    %rax,-0xa38(%rbp)
    a8f6:	48 c7 85 d0 f5 ff ff 	movq   $0x0,-0xa30(%rbp)
    a8fd:	00 00 00 00 
    a901:	48 8d 05 e8 98 01 00 	lea    0x198e8(%rip),%rax        # 241f0 <g_1364>
    a908:	48 89 85 d8 f5 ff ff 	mov    %rax,-0xa28(%rbp)
    a90f:	48 8d 85 f0 ed ff ff 	lea    -0x1210(%rbp),%rax
    a916:	48 89 85 e0 f5 ff ff 	mov    %rax,-0xa20(%rbp)
    a91d:	48 8d 05 cc 98 01 00 	lea    0x198cc(%rip),%rax        # 241f0 <g_1364>
    a924:	48 89 85 e8 f5 ff ff 	mov    %rax,-0xa18(%rbp)
    a92b:	48 8d 85 f0 ed ff ff 	lea    -0x1210(%rbp),%rax
    a932:	48 89 85 f0 f5 ff ff 	mov    %rax,-0xa10(%rbp)
    a939:	48 8d 05 b0 98 01 00 	lea    0x198b0(%rip),%rax        # 241f0 <g_1364>
    a940:	48 89 85 f8 f5 ff ff 	mov    %rax,-0xa08(%rbp)
    a947:	48 8d 85 f0 ed ff ff 	lea    -0x1210(%rbp),%rax
    a94e:	48 89 85 00 f6 ff ff 	mov    %rax,-0xa00(%rbp)
    a955:	48 8d 05 94 98 01 00 	lea    0x19894(%rip),%rax        # 241f0 <g_1364>
    a95c:	48 89 85 08 f6 ff ff 	mov    %rax,-0x9f8(%rbp)
    a963:	48 8d 05 86 98 01 00 	lea    0x19886(%rip),%rax        # 241f0 <g_1364>
    a96a:	48 89 85 10 f6 ff ff 	mov    %rax,-0x9f0(%rbp)
    a971:	48 8d 05 78 98 01 00 	lea    0x19878(%rip),%rax        # 241f0 <g_1364>
    a978:	48 89 85 18 f6 ff ff 	mov    %rax,-0x9e8(%rbp)
    a97f:	48 8d 05 6a 98 01 00 	lea    0x1986a(%rip),%rax        # 241f0 <g_1364>
    a986:	48 89 85 20 f6 ff ff 	mov    %rax,-0x9e0(%rbp)
    a98d:	48 8d 85 f0 ed ff ff 	lea    -0x1210(%rbp),%rax
    a994:	48 89 85 28 f6 ff ff 	mov    %rax,-0x9d8(%rbp)
    a99b:	48 8d 05 4e 98 01 00 	lea    0x1984e(%rip),%rax        # 241f0 <g_1364>
    a9a2:	48 89 85 30 f6 ff ff 	mov    %rax,-0x9d0(%rbp)
    a9a9:	48 8d 85 f0 ed ff ff 	lea    -0x1210(%rbp),%rax
    a9b0:	48 89 85 38 f6 ff ff 	mov    %rax,-0x9c8(%rbp)
    a9b7:	48 8d 85 f0 ed ff ff 	lea    -0x1210(%rbp),%rax
    a9be:	48 89 85 40 f6 ff ff 	mov    %rax,-0x9c0(%rbp)
    a9c5:	48 8d 05 24 98 01 00 	lea    0x19824(%rip),%rax        # 241f0 <g_1364>
    a9cc:	48 89 85 48 f6 ff ff 	mov    %rax,-0x9b8(%rbp)
    a9d3:	48 8d 05 16 98 01 00 	lea    0x19816(%rip),%rax        # 241f0 <g_1364>
    a9da:	48 89 85 50 f6 ff ff 	mov    %rax,-0x9b0(%rbp)
    a9e1:	48 8d 05 08 98 01 00 	lea    0x19808(%rip),%rax        # 241f0 <g_1364>
    a9e8:	48 89 85 58 f6 ff ff 	mov    %rax,-0x9a8(%rbp)
    a9ef:	48 8d 85 f0 ed ff ff 	lea    -0x1210(%rbp),%rax
    a9f6:	48 89 85 60 f6 ff ff 	mov    %rax,-0x9a0(%rbp)
    a9fd:	48 8d 05 ec 97 01 00 	lea    0x197ec(%rip),%rax        # 241f0 <g_1364>
    aa04:	48 89 85 68 f6 ff ff 	mov    %rax,-0x998(%rbp)
    aa0b:	48 8d 85 f0 ed ff ff 	lea    -0x1210(%rbp),%rax
    aa12:	48 89 85 70 f6 ff ff 	mov    %rax,-0x990(%rbp)
    aa19:	48 8d 05 d0 97 01 00 	lea    0x197d0(%rip),%rax        # 241f0 <g_1364>
    aa20:	48 89 85 78 f6 ff ff 	mov    %rax,-0x988(%rbp)
    aa27:	48 8d 05 c2 97 01 00 	lea    0x197c2(%rip),%rax        # 241f0 <g_1364>
    aa2e:	48 89 85 80 f6 ff ff 	mov    %rax,-0x980(%rbp)
    aa35:	48 8d 85 f0 ed ff ff 	lea    -0x1210(%rbp),%rax
    aa3c:	48 89 85 88 f6 ff ff 	mov    %rax,-0x978(%rbp)
    aa43:	48 8d 05 a6 97 01 00 	lea    0x197a6(%rip),%rax        # 241f0 <g_1364>
    aa4a:	48 89 85 90 f6 ff ff 	mov    %rax,-0x970(%rbp)
    aa51:	48 8d 85 f0 ed ff ff 	lea    -0x1210(%rbp),%rax
    aa58:	48 89 85 98 f6 ff ff 	mov    %rax,-0x968(%rbp)
    aa5f:	48 8d 85 f0 ed ff ff 	lea    -0x1210(%rbp),%rax
    aa66:	48 89 85 a0 f6 ff ff 	mov    %rax,-0x960(%rbp)
    aa6d:	48 8d 05 7c 97 01 00 	lea    0x1977c(%rip),%rax        # 241f0 <g_1364>
    aa74:	48 89 85 a8 f6 ff ff 	mov    %rax,-0x958(%rbp)
    aa7b:	48 8d 05 6e 97 01 00 	lea    0x1976e(%rip),%rax        # 241f0 <g_1364>
    aa82:	48 89 85 b0 f6 ff ff 	mov    %rax,-0x950(%rbp)
    aa89:	48 8d 05 60 97 01 00 	lea    0x19760(%rip),%rax        # 241f0 <g_1364>
    aa90:	48 89 85 b8 f6 ff ff 	mov    %rax,-0x948(%rbp)
    aa97:	48 8d 05 52 97 01 00 	lea    0x19752(%rip),%rax        # 241f0 <g_1364>
    aa9e:	48 89 85 c0 f6 ff ff 	mov    %rax,-0x940(%rbp)
    aaa5:	48 8d 85 f0 ed ff ff 	lea    -0x1210(%rbp),%rax
    aaac:	48 89 85 c8 f6 ff ff 	mov    %rax,-0x938(%rbp)
    aab3:	48 8d 05 36 97 01 00 	lea    0x19736(%rip),%rax        # 241f0 <g_1364>
    aaba:	48 89 85 d0 f6 ff ff 	mov    %rax,-0x930(%rbp)
    aac1:	48 8d 05 28 97 01 00 	lea    0x19728(%rip),%rax        # 241f0 <g_1364>
    aac8:	48 89 85 d8 f6 ff ff 	mov    %rax,-0x928(%rbp)
    aacf:	48 8d 05 1a 97 01 00 	lea    0x1971a(%rip),%rax        # 241f0 <g_1364>
    aad6:	48 89 85 e0 f6 ff ff 	mov    %rax,-0x920(%rbp)
    aadd:	48 8d 85 f0 ed ff ff 	lea    -0x1210(%rbp),%rax
    aae4:	48 89 85 e8 f6 ff ff 	mov    %rax,-0x918(%rbp)
    aaeb:	48 8d 85 f0 ed ff ff 	lea    -0x1210(%rbp),%rax
    aaf2:	48 89 85 f0 f6 ff ff 	mov    %rax,-0x910(%rbp)
    aaf9:	48 8d 05 f0 96 01 00 	lea    0x196f0(%rip),%rax        # 241f0 <g_1364>
    ab00:	48 89 85 f8 f6 ff ff 	mov    %rax,-0x908(%rbp)
    ab07:	48 8d 85 f0 ed ff ff 	lea    -0x1210(%rbp),%rax
    ab0e:	48 89 85 00 f7 ff ff 	mov    %rax,-0x900(%rbp)
    ab15:	48 8d 05 d4 96 01 00 	lea    0x196d4(%rip),%rax        # 241f0 <g_1364>
    ab1c:	48 89 85 08 f7 ff ff 	mov    %rax,-0x8f8(%rbp)
    ab23:	48 c7 85 10 f7 ff ff 	movq   $0x0,-0x8f0(%rbp)
    ab2a:	00 00 00 00 
    ab2e:	48 8d 05 bb 96 01 00 	lea    0x196bb(%rip),%rax        # 241f0 <g_1364>
    ab35:	48 89 85 18 f7 ff ff 	mov    %rax,-0x8e8(%rbp)
    ab3c:	48 8d 05 ad 96 01 00 	lea    0x196ad(%rip),%rax        # 241f0 <g_1364>
    ab43:	48 89 85 20 f7 ff ff 	mov    %rax,-0x8e0(%rbp)
    ab4a:	48 8d 05 9f 96 01 00 	lea    0x1969f(%rip),%rax        # 241f0 <g_1364>
    ab51:	48 89 85 28 f7 ff ff 	mov    %rax,-0x8d8(%rbp)
    ab58:	48 8d 05 91 96 01 00 	lea    0x19691(%rip),%rax        # 241f0 <g_1364>
    ab5f:	48 89 85 30 f7 ff ff 	mov    %rax,-0x8d0(%rbp)
    ab66:	48 8d 05 83 96 01 00 	lea    0x19683(%rip),%rax        # 241f0 <g_1364>
    ab6d:	48 89 85 38 f7 ff ff 	mov    %rax,-0x8c8(%rbp)
    ab74:	48 8d 05 75 96 01 00 	lea    0x19675(%rip),%rax        # 241f0 <g_1364>
    ab7b:	48 89 85 40 f7 ff ff 	mov    %rax,-0x8c0(%rbp)
    ab82:	48 8d 05 67 96 01 00 	lea    0x19667(%rip),%rax        # 241f0 <g_1364>
    ab89:	48 89 85 48 f7 ff ff 	mov    %rax,-0x8b8(%rbp)
    ab90:	c7 85 ac ed ff ff 38 	movl   $0x8b5b4238,-0x1254(%rbp)
    ab97:	42 5b 8b 
    ab9a:	c7 85 b0 ed ff ff f9 	movl   $0x7c69e2f9,-0x1250(%rbp)
    aba1:	e2 69 7c 
    aba4:	c7 05 6a 52 01 00 00 	movl   $0x0,0x1526a(%rip)        # 1fe18 <g_1218>
    abab:	00 00 00 
    abae:	e9 cb 0a 00 00       	jmpq   b67e <func_1+0x2ec9>
    abb3:	48 8d 05 aa 44 01 00 	lea    0x144aa(%rip),%rax        # 1f064 <g_77>
    abba:	48 89 85 18 ef ff ff 	mov    %rax,-0x10e8(%rbp)
    abc1:	66 c7 85 2e ed ff ff 	movw   $0x9122,-0x12d2(%rbp)
    abc8:	22 91 
    abca:	48 c7 85 20 ef ff ff 	movq   $0x0,-0x10e0(%rbp)
    abd1:	00 00 00 00 
    abd5:	c7 85 b4 ed ff ff 03 	movl   $0x3,-0x124c(%rbp)
    abdc:	00 00 00 
    abdf:	c7 85 b8 ed ff ff ff 	movl   $0xffffffff,-0x1248(%rbp)
    abe6:	ff ff ff 
    abe9:	c7 85 bc ed ff ff 7d 	movl   $0x3fdcdc7d,-0x1244(%rbp)
    abf0:	dc dc 3f 
    abf3:	48 8d 85 f0 f2 ff ff 	lea    -0xd10(%rbp),%rax
    abfa:	48 8d 15 ff f4 00 00 	lea    0xf4ff(%rip),%rdx        # 1a100 <g_1821+0x30>
    ac01:	b9 3c 00 00 00       	mov    $0x3c,%ecx
    ac06:	48 89 c7             	mov    %rax,%rdi
    ac09:	48 89 d6             	mov    %rdx,%rsi
    ac0c:	f3 48 a5             	rep movsq %ds:(%rsi),%es:(%rdi)
    ac0f:	8b 05 cd 45 01 00    	mov    0x145cd(%rip),%eax        # 1f1e2 <g_277+0x12>
    ac15:	89 c0                	mov    %eax,%eax
    ac17:	48 8d 14 85 00 00 00 	lea    0x0(,%rax,4),%rdx
    ac1e:	00 
    ac1f:	48 8d 05 2e 44 01 00 	lea    0x1442e(%rip),%rax        # 1f054 <g_44>
    ac26:	8b 04 02             	mov    (%rdx,%rax,1),%eax
    ac29:	85 c0                	test   %eax,%eax
    ac2b:	0f 85 5e 0a 00 00    	jne    b68f <func_1+0x2eda>
    ac31:	48 8b 05 78 92 01 00 	mov    0x19278(%rip),%rax        # 23eb0 <g_784>
    ac38:	48 8b 00             	mov    (%rax),%rax
    ac3b:	48 85 c0             	test   %rax,%rax
    ac3e:	0f 84 8e 03 00 00    	je     afd2 <func_1+0x281d>
    ac44:	8b 05 56 9c 01 00    	mov    0x19c56(%rip),%eax        # 248a0 <g_1599>
    ac4a:	8b 05 f4 51 01 00    	mov    0x151f4(%rip),%eax        # 1fe44 <g_1299+0x14>
    ac50:	c1 e0 0b             	shl    $0xb,%eax
    ac53:	c1 f8 0b             	sar    $0xb,%eax
    ac56:	0f b6 d8             	movzbl %al,%ebx
    ac59:	48 8b 85 08 ee ff ff 	mov    -0x11f8(%rbp),%rax
    ac60:	8b 00                	mov    (%rax),%eax
    ac62:	33 85 a8 ed ff ff    	xor    -0x1258(%rbp),%eax
    ac68:	89 c2                	mov    %eax,%edx
    ac6a:	8b 85 4c ed ff ff    	mov    -0x12b4(%rbp),%eax
    ac70:	23 85 a8 ed ff ff    	and    -0x1258(%rbp),%eax
    ac76:	89 85 4c ed ff ff    	mov    %eax,-0x12b4(%rbp)
    ac7c:	48 8b 85 a8 f2 ff ff 	mov    -0xd58(%rbp),%rax
    ac83:	48 3d ef b9 0f 22    	cmp    $0x220fb9ef,%rax
    ac89:	0f 96 c0             	setbe  %al
    ac8c:	0f b6 c0             	movzbl %al,%eax
    ac8f:	89 d6                	mov    %edx,%esi
    ac91:	89 c7                	mov    %eax,%edi
    ac93:	e8 b4 cf ff ff       	callq  7c4c <safe_lshift_func_uint8_t_u_u>
    ac98:	0f b6 d0             	movzbl %al,%edx
    ac9b:	48 8b 85 18 ef ff ff 	mov    -0x10e8(%rbp),%rax
    aca2:	66 89 10             	mov    %dx,(%rax)
    aca5:	48 8b 85 18 ef ff ff 	mov    -0x10e8(%rbp),%rax
    acac:	0f b7 00             	movzwl (%rax),%eax
    acaf:	89 c2                	mov    %eax,%edx
    acb1:	48 8b 85 e8 ed ff ff 	mov    -0x1218(%rbp),%rax
    acb8:	8b 00                	mov    (%rax),%eax
    acba:	31 d0                	xor    %edx,%eax
    acbc:	0f b6 c0             	movzbl %al,%eax
    acbf:	89 de                	mov    %ebx,%esi
    acc1:	89 c7                	mov    %eax,%edi
    acc3:	e8 cb ce ff ff       	callq  7b93 <safe_mul_func_uint8_t_u_u>
    acc8:	48 8b 85 08 ee ff ff 	mov    -0x11f8(%rbp),%rax
    accf:	8b 10                	mov    (%rax),%edx
    acd1:	8b 05 85 43 01 00    	mov    0x14385(%rip),%eax        # 1f05c <g_49>
    acd7:	39 c2                	cmp    %eax,%edx
    acd9:	0f 94 c0             	sete   %al
    acdc:	0f b6 c8             	movzbl %al,%ecx
    acdf:	48 8b 85 e8 ee ff ff 	mov    -0x1118(%rbp),%rax
    ace6:	48 8b 10             	mov    (%rax),%rdx
    ace9:	48 63 c1             	movslq %ecx,%rax
    acec:	48 21 c2             	and    %rax,%rdx
    acef:	48 8b 85 e8 ee ff ff 	mov    -0x1118(%rbp),%rax
    acf6:	48 89 10             	mov    %rdx,(%rax)
    acf9:	48 8d 05 38 55 01 00 	lea    0x15538(%rip),%rax        # 20238 <g_1613>
    ad00:	48 89 85 48 ef ff ff 	mov    %rax,-0x10b8(%rbp)
    ad07:	c7 85 c0 ed ff ff 01 	movl   $0x1,-0x1240(%rbp)
    ad0e:	00 00 00 
    ad11:	8b 85 4c ed ff ff    	mov    -0x12b4(%rbp),%eax
    ad17:	85 c0                	test   %eax,%eax
    ad19:	0f 84 95 01 00 00    	je     aeb4 <func_1+0x26ff>
    ad1f:	48 c7 85 20 ee ff ff 	movq   $0x0,-0x11e0(%rbp)
    ad26:	00 00 00 00 
    ad2a:	48 8d 85 20 ee ff ff 	lea    -0x11e0(%rbp),%rax
    ad31:	48 89 85 60 ef ff ff 	mov    %rax,-0x10a0(%rbp)
    ad38:	48 8d 05 41 9b 01 00 	lea    0x19b41(%rip),%rax        # 24880 <g_1378>
    ad3f:	48 89 85 80 f0 ff ff 	mov    %rax,-0xf80(%rbp)
    ad46:	48 8d 05 33 9b 01 00 	lea    0x19b33(%rip),%rax        # 24880 <g_1378>
    ad4d:	48 89 85 88 f0 ff ff 	mov    %rax,-0xf78(%rbp)
    ad54:	48 8d 05 25 9b 01 00 	lea    0x19b25(%rip),%rax        # 24880 <g_1378>
    ad5b:	48 89 85 90 f0 ff ff 	mov    %rax,-0xf70(%rbp)
    ad62:	48 8d 05 17 9b 01 00 	lea    0x19b17(%rip),%rax        # 24880 <g_1378>
    ad69:	48 89 85 98 f0 ff ff 	mov    %rax,-0xf68(%rbp)
    ad70:	48 8d 05 09 9b 01 00 	lea    0x19b09(%rip),%rax        # 24880 <g_1378>
    ad77:	48 89 85 a0 f0 ff ff 	mov    %rax,-0xf60(%rbp)
    ad7e:	48 8d 05 fb 9a 01 00 	lea    0x19afb(%rip),%rax        # 24880 <g_1378>
    ad85:	48 89 85 a8 f0 ff ff 	mov    %rax,-0xf58(%rbp)
    ad8c:	48 8d 05 c3 45 01 00 	lea    0x145c3(%rip),%rax        # 1f356 <g_439+0x6>
    ad93:	48 89 85 68 ef ff ff 	mov    %rax,-0x1098(%rbp)
    ad9a:	48 8d 05 45 50 01 00 	lea    0x15045(%rip),%rax        # 1fde6 <g_1133+0x6>
    ada1:	48 89 85 70 ef ff ff 	mov    %rax,-0x1090(%rbp)
    ada8:	48 8d 05 a7 45 01 00 	lea    0x145a7(%rip),%rax        # 1f356 <g_439+0x6>
    adaf:	48 89 85 78 ef ff ff 	mov    %rax,-0x1088(%rbp)
    adb6:	48 8d 05 09 46 01 00 	lea    0x14609(%rip),%rax        # 1f3c6 <g_560+0x6>
    adbd:	48 89 85 80 ef ff ff 	mov    %rax,-0x1080(%rbp)
    adc4:	48 8d 05 65 4f 01 00 	lea    0x14f65(%rip),%rax        # 1fd30 <g_660>
    adcb:	48 89 85 88 ef ff ff 	mov    %rax,-0x1078(%rbp)
    add2:	48 8d 05 7d 50 01 00 	lea    0x1507d(%rip),%rax        # 1fe56 <g_1334+0x6>
    add9:	48 89 85 90 ef ff ff 	mov    %rax,-0x1070(%rbp)
    ade0:	48 8d 05 f5 4f 01 00 	lea    0x14ff5(%rip),%rax        # 1fddc <g_1131+0x4>
    ade7:	48 89 85 98 ef ff ff 	mov    %rax,-0x1068(%rbp)
    adee:	c6 85 27 ed ff ff 03 	movb   $0x3,-0x12d9(%rbp)
    adf5:	c7 85 94 ed ff ff 00 	movl   $0x0,-0x126c(%rbp)
    adfc:	00 00 00 
    adff:	eb 1e                	jmp    ae1f <func_1+0x266a>
    ae01:	8b 85 94 ed ff ff    	mov    -0x126c(%rbp),%eax
    ae07:	48 98                	cltq   
    ae09:	48 8d 15 cc 4f 01 00 	lea    0x14fcc(%rip),%rdx        # 1fddc <g_1131+0x4>
    ae10:	48 89 94 c5 50 f7 ff 	mov    %rdx,-0x8b0(%rbp,%rax,8)
    ae17:	ff 
    ae18:	83 85 94 ed ff ff 01 	addl   $0x1,-0x126c(%rbp)
    ae1f:	83 bd 94 ed ff ff 05 	cmpl   $0x5,-0x126c(%rbp)
    ae26:	7e d9                	jle    ae01 <func_1+0x264c>
    ae28:	48 8b 85 e0 ee ff ff 	mov    -0x1120(%rbp),%rax
    ae2f:	48 8b 10             	mov    (%rax),%rdx
    ae32:	48 8b 85 60 ef ff ff 	mov    -0x10a0(%rbp),%rax
    ae39:	48 89 10             	mov    %rdx,(%rax)
    ae3c:	48 8b 85 60 ef ff ff 	mov    -0x10a0(%rbp),%rax
    ae43:	48 8b 00             	mov    (%rax),%rax
    ae46:	48 8d 15 f4 50 01 00 	lea    0x150f4(%rip),%rdx        # 1ff41 <g_1367>
    ae4d:	48 39 d0             	cmp    %rdx,%rax
    ae50:	0f 94 c0             	sete   %al
    ae53:	0f b6 d0             	movzbl %al,%edx
    ae56:	8b 05 86 43 01 00    	mov    0x14386(%rip),%eax        # 1f1e2 <g_277+0x12>
    ae5c:	83 c0 01             	add    $0x1,%eax
    ae5f:	89 c0                	mov    %eax,%eax
    ae61:	48 8d 0c 85 00 00 00 	lea    0x0(,%rax,4),%rcx
    ae68:	00 
    ae69:	48 8d 05 68 4f 01 00 	lea    0x14f68(%rip),%rax        # 1fdd8 <g_1131>
    ae70:	8b 04 01             	mov    (%rcx,%rax,1),%eax
    ae73:	8b 0d 69 43 01 00    	mov    0x14369(%rip),%ecx        # 1f1e2 <g_277+0x12>
    ae79:	8d 71 01             	lea    0x1(%rcx),%esi
    ae7c:	89 d1                	mov    %edx,%ecx
    ae7e:	31 c1                	xor    %eax,%ecx
    ae80:	89 f0                	mov    %esi,%eax
    ae82:	48 8d 14 85 00 00 00 	lea    0x0(,%rax,4),%rdx
    ae89:	00 
    ae8a:	48 8d 05 47 4f 01 00 	lea    0x14f47(%rip),%rax        # 1fdd8 <g_1131>
    ae91:	89 0c 02             	mov    %ecx,(%rdx,%rax,1)
    ae94:	48 c7 85 48 ef ff ff 	movq   $0x0,-0x10b8(%rbp)
    ae9b:	00 00 00 00 
    ae9f:	0f b6 85 27 ed ff ff 	movzbl -0x12d9(%rbp),%eax
    aea6:	83 c0 01             	add    $0x1,%eax
    aea9:	88 85 27 ed ff ff    	mov    %al,-0x12d9(%rbp)
    aeaf:	e9 58 07 00 00       	jmpq   b60c <func_1+0x2e57>
    aeb4:	48 8d 05 a5 8c 01 00 	lea    0x18ca5(%rip),%rax        # 23b60 <g_505>
    aebb:	48 89 85 50 ef ff ff 	mov    %rax,-0x10b0(%rbp)
    aec2:	c7 85 c4 ed ff ff 1d 	movl   $0x9d78bb1d,-0x123c(%rbp)
    aec9:	bb 78 9d 
    aecc:	48 8d 05 f3 44 01 00 	lea    0x144f3(%rip),%rax        # 1f3c6 <g_560+0x6>
    aed3:	48 89 85 58 ef ff ff 	mov    %rax,-0x10a8(%rbp)
    aeda:	83 bd c0 ed ff ff 00 	cmpl   $0x0,-0x1240(%rbp)
    aee1:	0f 85 ab 07 00 00    	jne    b692 <func_1+0x2edd>
    aee7:	48 83 bd 08 ef ff ff 	cmpq   $0x0,-0x10f8(%rbp)
    aeee:	00 
    aeef:	0f 94 c0             	sete   %al
    aef2:	0f b6 c0             	movzbl %al,%eax
    aef5:	48 63 d0             	movslq %eax,%rdx
    aef8:	48 8b 05 31 8e 01 00 	mov    0x18e31(%rip),%rax        # 23d30 <g_741>
    aeff:	48 8b 00             	mov    (%rax),%rax
    af02:	48 39 c2             	cmp    %rax,%rdx
    af05:	74 25                	je     af2c <func_1+0x2777>
    af07:	48 8b 05 82 93 01 00 	mov    0x19382(%rip),%rax        # 24290 <g_1631+0x10>
    af0e:	48 89 85 20 ef ff ff 	mov    %rax,-0x10e0(%rbp)
    af15:	48 8d 05 8c 99 01 00 	lea    0x1998c(%rip),%rax        # 248a8 <g_1632>
    af1c:	48 39 85 20 ef ff ff 	cmp    %rax,-0x10e0(%rbp)
    af23:	75 07                	jne    af2c <func_1+0x2777>
    af25:	ba 01 00 00 00       	mov    $0x1,%edx
    af2a:	eb 05                	jmp    af31 <func_1+0x277c>
    af2c:	ba 00 00 00 00       	mov    $0x0,%edx
    af31:	48 8b 05 80 8c 01 00 	mov    0x18c80(%rip),%rax        # 23bb8 <g_503>
    af38:	48 8b 00             	mov    (%rax),%rax
    af3b:	48 39 85 50 ef ff ff 	cmp    %rax,-0x10b0(%rbp)
    af42:	0f 94 c0             	sete   %al
    af45:	0f b6 c0             	movzbl %al,%eax
    af48:	31 c2                	xor    %eax,%edx
    af4a:	48 8b 85 e8 ed ff ff 	mov    -0x1218(%rbp),%rax
    af51:	f7 d2                	not    %edx
    af53:	89 10                	mov    %edx,(%rax)
    af55:	8b 05 87 42 01 00    	mov    0x14287(%rip),%eax        # 1f1e2 <g_277+0x12>
    af5b:	89 c0                	mov    %eax,%eax
    af5d:	48 8d 14 85 00 00 00 	lea    0x0(,%rax,4),%rdx
    af64:	00 
    af65:	48 8d 05 e8 40 01 00 	lea    0x140e8(%rip),%rax        # 1f054 <g_44>
    af6c:	8b 14 02             	mov    (%rdx,%rax,1),%edx
    af6f:	48 83 bd 68 ee ff ff 	cmpq   $0x0,-0x1198(%rbp)
    af76:	00 
    af77:	75 10                	jne    af89 <func_1+0x27d4>
    af79:	83 bd c4 ed ff ff 00 	cmpl   $0x0,-0x123c(%rbp)
    af80:	74 07                	je     af89 <func_1+0x27d4>
    af82:	b9 01 00 00 00       	mov    $0x1,%ecx
    af87:	eb 05                	jmp    af8e <func_1+0x27d9>
    af89:	b9 00 00 00 00       	mov    $0x0,%ecx
    af8e:	48 8b 85 08 ee ff ff 	mov    -0x11f8(%rbp),%rax
    af95:	09 ca                	or     %ecx,%edx
    af97:	89 10                	mov    %edx,(%rax)
    af99:	48 8b 85 70 ee ff ff 	mov    -0x1190(%rbp),%rax
    afa0:	48 3b 85 10 ef ff ff 	cmp    -0x10f0(%rbp),%rax
    afa7:	0f 94 c0             	sete   %al
    afaa:	0f b6 d0             	movzbl %al,%edx
    afad:	48 8b 85 58 ef ff ff 	mov    -0x10a8(%rbp),%rax
    afb4:	89 10                	mov    %edx,(%rax)
    afb6:	48 8b 05 fb 89 01 00 	mov    0x189fb(%rip),%rax        # 239b8 <g_113>
    afbd:	48 8b 00             	mov    (%rax),%rax
    afc0:	48 8b 00             	mov    (%rax),%rax
    afc3:	8b 00                	mov    (%rax),%eax
    afc5:	85 c0                	test   %eax,%eax
    afc7:	0f 84 3f 06 00 00    	je     b60c <func_1+0x2e57>
    afcd:	e9 c4 06 00 00       	jmpq   b696 <func_1+0x2ee1>
    afd2:	48 8d 05 03 4e 01 00 	lea    0x14e03(%rip),%rax        # 1fddc <g_1131+0x4>
    afd9:	48 89 85 28 ef ff ff 	mov    %rax,-0x10d8(%rbp)
    afe0:	48 8d 05 ef 41 01 00 	lea    0x141ef(%rip),%rax        # 1f1d6 <g_277+0x6>
    afe7:	48 89 85 30 ef ff ff 	mov    %rax,-0x10d0(%rbp)
    afee:	48 8d 05 e7 4d 01 00 	lea    0x14de7(%rip),%rax        # 1fddc <g_1131+0x4>
    aff5:	48 89 85 38 ef ff ff 	mov    %rax,-0x10c8(%rbp)
    affc:	48 c7 85 50 f7 ff ff 	movq   $0x0,-0x8b0(%rbp)
    b003:	00 00 00 00 
    b007:	48 c7 85 58 f7 ff ff 	movq   $0x0,-0x8a8(%rbp)
    b00e:	00 00 00 00 
    b012:	48 c7 85 60 f7 ff ff 	movq   $0x0,-0x8a0(%rbp)
    b019:	00 00 00 00 
    b01d:	48 8d 05 c2 4d 01 00 	lea    0x14dc2(%rip),%rax        # 1fde6 <g_1133+0x6>
    b024:	48 89 85 68 f7 ff ff 	mov    %rax,-0x898(%rbp)
    b02b:	48 8d 85 30 ed ff ff 	lea    -0x12d0(%rbp),%rax
    b032:	48 89 85 70 f7 ff ff 	mov    %rax,-0x890(%rbp)
    b039:	48 c7 85 78 f7 ff ff 	movq   $0x0,-0x888(%rbp)
    b040:	00 00 00 00 
    b044:	48 8d 05 e5 4c 01 00 	lea    0x14ce5(%rip),%rax        # 1fd30 <g_660>
    b04b:	48 89 85 80 f7 ff ff 	mov    %rax,-0x880(%rbp)
    b052:	48 8d 05 d7 4c 01 00 	lea    0x14cd7(%rip),%rax        # 1fd30 <g_660>
    b059:	48 89 85 88 f7 ff ff 	mov    %rax,-0x878(%rbp)
    b060:	48 c7 85 90 f7 ff ff 	movq   $0x0,-0x870(%rbp)
    b067:	00 00 00 00 
    b06b:	48 8d 05 64 41 01 00 	lea    0x14164(%rip),%rax        # 1f1d6 <g_277+0x6>
    b072:	48 89 85 98 f7 ff ff 	mov    %rax,-0x868(%rbp)
    b079:	48 8d 05 34 41 01 00 	lea    0x14134(%rip),%rax        # 1f1b4 <g_264+0x114>
    b080:	48 89 85 a0 f7 ff ff 	mov    %rax,-0x860(%rbp)
    b087:	48 8d 05 58 4d 01 00 	lea    0x14d58(%rip),%rax        # 1fde6 <g_1133+0x6>
    b08e:	48 89 85 a8 f7 ff ff 	mov    %rax,-0x858(%rbp)
    b095:	48 8d 05 18 41 01 00 	lea    0x14118(%rip),%rax        # 1f1b4 <g_264+0x114>
    b09c:	48 89 85 b0 f7 ff ff 	mov    %rax,-0x850(%rbp)
    b0a3:	48 8d 05 ac 4d 01 00 	lea    0x14dac(%rip),%rax        # 1fe56 <g_1334+0x6>
    b0aa:	48 89 85 b8 f7 ff ff 	mov    %rax,-0x848(%rbp)
    b0b1:	48 8d 05 a4 3f 01 00 	lea    0x13fa4(%rip),%rax        # 1f05c <g_49>
    b0b8:	48 89 85 c0 f7 ff ff 	mov    %rax,-0x840(%rbp)
    b0bf:	48 c7 85 c8 f7 ff ff 	movq   $0x0,-0x838(%rbp)
    b0c6:	00 00 00 00 
    b0ca:	48 8d 05 8b 3f 01 00 	lea    0x13f8b(%rip),%rax        # 1f05c <g_49>
    b0d1:	48 89 85 d0 f7 ff ff 	mov    %rax,-0x830(%rbp)
    b0d8:	48 c7 85 d8 f7 ff ff 	movq   $0x0,-0x828(%rbp)
    b0df:	00 00 00 00 
    b0e3:	48 8d 05 46 4c 01 00 	lea    0x14c46(%rip),%rax        # 1fd30 <g_660>
    b0ea:	48 89 85 e0 f7 ff ff 	mov    %rax,-0x820(%rbp)
    b0f1:	48 8d 05 0e 51 01 00 	lea    0x1510e(%rip),%rax        # 20206 <g_1526+0x6>
    b0f8:	48 89 85 e8 f7 ff ff 	mov    %rax,-0x818(%rbp)
    b0ff:	48 c7 85 f0 f7 ff ff 	movq   $0x0,-0x810(%rbp)
    b106:	00 00 00 00 
    b10a:	48 8d 05 f5 50 01 00 	lea    0x150f5(%rip),%rax        # 20206 <g_1526+0x6>
    b111:	48 89 85 f8 f7 ff ff 	mov    %rax,-0x808(%rbp)
    b118:	48 8d 05 3d 3f 01 00 	lea    0x13f3d(%rip),%rax        # 1f05c <g_49>
    b11f:	48 89 85 00 f8 ff ff 	mov    %rax,-0x800(%rbp)
    b126:	48 8d 05 d9 50 01 00 	lea    0x150d9(%rip),%rax        # 20206 <g_1526+0x6>
    b12d:	48 89 85 08 f8 ff ff 	mov    %rax,-0x7f8(%rbp)
    b134:	48 c7 85 10 f8 ff ff 	movq   $0x0,-0x7f0(%rbp)
    b13b:	00 00 00 00 
    b13f:	48 8d 05 c0 50 01 00 	lea    0x150c0(%rip),%rax        # 20206 <g_1526+0x6>
    b146:	48 89 85 18 f8 ff ff 	mov    %rax,-0x7e8(%rbp)
    b14d:	48 8d 05 dc 4b 01 00 	lea    0x14bdc(%rip),%rax        # 1fd30 <g_660>
    b154:	48 89 85 20 f8 ff ff 	mov    %rax,-0x7e0(%rbp)
    b15b:	48 c7 85 28 f8 ff ff 	movq   $0x0,-0x7d8(%rbp)
    b162:	00 00 00 00 
    b166:	48 8d 05 ef 3e 01 00 	lea    0x13eef(%rip),%rax        # 1f05c <g_49>
    b16d:	48 89 85 30 f8 ff ff 	mov    %rax,-0x7d0(%rbp)
    b174:	48 c7 85 38 f8 ff ff 	movq   $0x0,-0x7c8(%rbp)
    b17b:	00 00 00 00 
    b17f:	48 8d 05 d6 3e 01 00 	lea    0x13ed6(%rip),%rax        # 1f05c <g_49>
    b186:	48 89 85 40 f8 ff ff 	mov    %rax,-0x7c0(%rbp)
    b18d:	48 8d 05 c2 4c 01 00 	lea    0x14cc2(%rip),%rax        # 1fe56 <g_1334+0x6>
    b194:	48 89 85 48 f8 ff ff 	mov    %rax,-0x7b8(%rbp)
    b19b:	48 8d 05 12 40 01 00 	lea    0x14012(%rip),%rax        # 1f1b4 <g_264+0x114>
    b1a2:	48 89 85 50 f8 ff ff 	mov    %rax,-0x7b0(%rbp)
    b1a9:	48 8d 05 36 4c 01 00 	lea    0x14c36(%rip),%rax        # 1fde6 <g_1133+0x6>
    b1b0:	48 89 85 58 f8 ff ff 	mov    %rax,-0x7a8(%rbp)
    b1b7:	48 8d 05 f6 3f 01 00 	lea    0x13ff6(%rip),%rax        # 1f1b4 <g_264+0x114>
    b1be:	48 89 85 60 f8 ff ff 	mov    %rax,-0x7a0(%rbp)
    b1c5:	48 8d 05 0a 40 01 00 	lea    0x1400a(%rip),%rax        # 1f1d6 <g_277+0x6>
    b1cc:	48 89 85 68 f8 ff ff 	mov    %rax,-0x798(%rbp)
    b1d3:	48 c7 85 70 f8 ff ff 	movq   $0x0,-0x790(%rbp)
    b1da:	00 00 00 00 
    b1de:	48 8d 05 4b 4b 01 00 	lea    0x14b4b(%rip),%rax        # 1fd30 <g_660>
    b1e5:	48 89 85 78 f8 ff ff 	mov    %rax,-0x788(%rbp)
    b1ec:	48 8d 05 3d 4b 01 00 	lea    0x14b3d(%rip),%rax        # 1fd30 <g_660>
    b1f3:	48 89 85 80 f8 ff ff 	mov    %rax,-0x780(%rbp)
    b1fa:	48 c7 85 88 f8 ff ff 	movq   $0x0,-0x778(%rbp)
    b201:	00 00 00 00 
    b205:	48 8d 85 30 ed ff ff 	lea    -0x12d0(%rbp),%rax
    b20c:	48 89 85 90 f8 ff ff 	mov    %rax,-0x770(%rbp)
    b213:	48 8d 05 cc 4b 01 00 	lea    0x14bcc(%rip),%rax        # 1fde6 <g_1133+0x6>
    b21a:	48 89 85 98 f8 ff ff 	mov    %rax,-0x768(%rbp)
    b221:	48 c7 85 a0 f8 ff ff 	movq   $0x0,-0x760(%rbp)
    b228:	00 00 00 00 
    b22c:	48 c7 85 a8 f8 ff ff 	movq   $0x0,-0x758(%rbp)
    b233:	00 00 00 00 
    b237:	48 c7 85 b0 f8 ff ff 	movq   $0x0,-0x750(%rbp)
    b23e:	00 00 00 00 
    b242:	48 c7 85 b8 f8 ff ff 	movq   $0x0,-0x748(%rbp)
    b249:	00 00 00 00 
    b24d:	48 8d 05 88 4b 01 00 	lea    0x14b88(%rip),%rax        # 1fddc <g_1131+0x4>
    b254:	48 89 85 c0 f8 ff ff 	mov    %rax,-0x740(%rbp)
    b25b:	48 8d 05 7a 4b 01 00 	lea    0x14b7a(%rip),%rax        # 1fddc <g_1131+0x4>
    b262:	48 89 85 c8 f8 ff ff 	mov    %rax,-0x738(%rbp)
    b269:	48 c7 85 d0 f8 ff ff 	movq   $0x0,-0x730(%rbp)
    b270:	00 00 00 00 
    b274:	48 8d 05 8b 4f 01 00 	lea    0x14f8b(%rip),%rax        # 20206 <g_1526+0x6>
    b27b:	48 89 85 d8 f8 ff ff 	mov    %rax,-0x728(%rbp)
    b282:	48 8d 05 d3 3d 01 00 	lea    0x13dd3(%rip),%rax        # 1f05c <g_49>
    b289:	48 89 85 e0 f8 ff ff 	mov    %rax,-0x720(%rbp)
    b290:	48 8d 05 4f 4b 01 00 	lea    0x14b4f(%rip),%rax        # 1fde6 <g_1133+0x6>
    b297:	48 89 85 e8 f8 ff ff 	mov    %rax,-0x718(%rbp)
    b29e:	48 8d 05 ab 3d 01 00 	lea    0x13dab(%rip),%rax        # 1f050 <g_41>
    b2a5:	48 89 85 f0 f8 ff ff 	mov    %rax,-0x710(%rbp)
    b2ac:	48 8d 05 53 4f 01 00 	lea    0x14f53(%rip),%rax        # 20206 <g_1526+0x6>
    b2b3:	48 89 85 f8 f8 ff ff 	mov    %rax,-0x708(%rbp)
    b2ba:	48 8d 05 9b 3d 01 00 	lea    0x13d9b(%rip),%rax        # 1f05c <g_49>
    b2c1:	48 89 85 00 f9 ff ff 	mov    %rax,-0x700(%rbp)
    b2c8:	48 8d 05 8d 3d 01 00 	lea    0x13d8d(%rip),%rax        # 1f05c <g_49>
    b2cf:	48 89 85 08 f9 ff ff 	mov    %rax,-0x6f8(%rbp)
    b2d6:	48 c7 85 10 f9 ff ff 	movq   $0x0,-0x6f0(%rbp)
    b2dd:	00 00 00 00 
    b2e1:	48 c7 85 18 f9 ff ff 	movq   $0x0,-0x6e8(%rbp)
    b2e8:	00 00 00 00 
    b2ec:	48 8d 05 e9 4a 01 00 	lea    0x14ae9(%rip),%rax        # 1fddc <g_1131+0x4>
    b2f3:	48 89 85 20 f9 ff ff 	mov    %rax,-0x6e0(%rbp)
    b2fa:	48 8d 05 d5 3e 01 00 	lea    0x13ed5(%rip),%rax        # 1f1d6 <g_277+0x6>
    b301:	48 89 85 28 f9 ff ff 	mov    %rax,-0x6d8(%rbp)
    b308:	48 c7 85 30 f9 ff ff 	movq   $0x0,-0x6d0(%rbp)
    b30f:	00 00 00 00 
    b313:	48 c7 85 38 f9 ff ff 	movq   $0x0,-0x6c8(%rbp)
    b31a:	00 00 00 00 
    b31e:	48 8d 05 37 3d 01 00 	lea    0x13d37(%rip),%rax        # 1f05c <g_49>
    b325:	48 89 85 40 f9 ff ff 	mov    %rax,-0x6c0(%rbp)
    b32c:	48 8d 05 23 4b 01 00 	lea    0x14b23(%rip),%rax        # 1fe56 <g_1334+0x6>
    b333:	48 89 85 48 f9 ff ff 	mov    %rax,-0x6b8(%rbp)
    b33a:	48 8d 05 ef 49 01 00 	lea    0x149ef(%rip),%rax        # 1fd30 <g_660>
    b341:	48 89 85 50 f9 ff ff 	mov    %rax,-0x6b0(%rbp)
    b348:	48 8d 05 b7 4e 01 00 	lea    0x14eb7(%rip),%rax        # 20206 <g_1526+0x6>
    b34f:	48 89 85 58 f9 ff ff 	mov    %rax,-0x6a8(%rbp)
    b356:	48 8d 05 7f 4a 01 00 	lea    0x14a7f(%rip),%rax        # 1fddc <g_1131+0x4>
    b35d:	48 89 85 60 f9 ff ff 	mov    %rax,-0x6a0(%rbp)
    b364:	48 8d 05 5b 40 01 00 	lea    0x1405b(%rip),%rax        # 1f3c6 <g_560+0x6>
    b36b:	48 89 85 68 f9 ff ff 	mov    %rax,-0x698(%rbp)
    b372:	48 8d 05 e3 3c 01 00 	lea    0x13ce3(%rip),%rax        # 1f05c <g_49>
    b379:	48 89 85 70 f9 ff ff 	mov    %rax,-0x690(%rbp)
    b380:	48 8d 05 d5 3c 01 00 	lea    0x13cd5(%rip),%rax        # 1f05c <g_49>
    b387:	48 89 85 78 f9 ff ff 	mov    %rax,-0x688(%rbp)
    b38e:	48 8d 05 bb 3c 01 00 	lea    0x13cbb(%rip),%rax        # 1f050 <g_41>
    b395:	48 89 85 80 f9 ff ff 	mov    %rax,-0x680(%rbp)
    b39c:	48 8d 05 b3 4a 01 00 	lea    0x14ab3(%rip),%rax        # 1fe56 <g_1334+0x6>
    b3a3:	48 89 85 88 f9 ff ff 	mov    %rax,-0x678(%rbp)
    b3aa:	48 8d 05 9f 3c 01 00 	lea    0x13c9f(%rip),%rax        # 1f050 <g_41>
    b3b1:	48 89 85 90 f9 ff ff 	mov    %rax,-0x670(%rbp)
    b3b8:	48 8d 05 17 3e 01 00 	lea    0x13e17(%rip),%rax        # 1f1d6 <g_277+0x6>
    b3bf:	48 89 85 98 f9 ff ff 	mov    %rax,-0x668(%rbp)
    b3c6:	48 8d 05 e7 3d 01 00 	lea    0x13de7(%rip),%rax        # 1f1b4 <g_264+0x114>
    b3cd:	48 89 85 a0 f9 ff ff 	mov    %rax,-0x660(%rbp)
    b3d4:	48 8d 05 2b 4e 01 00 	lea    0x14e2b(%rip),%rax        # 20206 <g_1526+0x6>
    b3db:	48 89 85 a8 f9 ff ff 	mov    %rax,-0x658(%rbp)
    b3e2:	48 8d 05 ed 3d 01 00 	lea    0x13ded(%rip),%rax        # 1f1d6 <g_277+0x6>
    b3e9:	48 89 85 b0 f9 ff ff 	mov    %rax,-0x650(%rbp)
    b3f0:	48 8d 05 39 49 01 00 	lea    0x14939(%rip),%rax        # 1fd30 <g_660>
    b3f7:	48 89 85 b8 f9 ff ff 	mov    %rax,-0x648(%rbp)
    b3fe:	48 8d 05 d7 49 01 00 	lea    0x149d7(%rip),%rax        # 1fddc <g_1131+0x4>
    b405:	48 89 85 c0 f9 ff ff 	mov    %rax,-0x640(%rbp)
    b40c:	48 8d 05 c3 3d 01 00 	lea    0x13dc3(%rip),%rax        # 1f1d6 <g_277+0x6>
    b413:	48 89 85 c8 f9 ff ff 	mov    %rax,-0x638(%rbp)
    b41a:	48 8d 85 30 ed ff ff 	lea    -0x12d0(%rbp),%rax
    b421:	48 89 85 d0 f9 ff ff 	mov    %rax,-0x630(%rbp)
    b428:	48 c7 85 d8 f9 ff ff 	movq   $0x0,-0x628(%rbp)
    b42f:	00 00 00 00 
    b433:	48 8d 05 a2 49 01 00 	lea    0x149a2(%rip),%rax        # 1fddc <g_1131+0x4>
    b43a:	48 89 85 e0 f9 ff ff 	mov    %rax,-0x620(%rbp)
    b441:	48 c7 85 e8 f9 ff ff 	movq   $0x0,-0x618(%rbp)
    b448:	00 00 00 00 
    b44c:	48 8d 85 30 ed ff ff 	lea    -0x12d0(%rbp),%rax
    b453:	48 89 85 f0 f9 ff ff 	mov    %rax,-0x610(%rbp)
    b45a:	48 8d 05 75 3d 01 00 	lea    0x13d75(%rip),%rax        # 1f1d6 <g_277+0x6>
    b461:	48 89 85 f8 f9 ff ff 	mov    %rax,-0x608(%rbp)
    b468:	48 8d 05 6d 49 01 00 	lea    0x1496d(%rip),%rax        # 1fddc <g_1131+0x4>
    b46f:	48 89 85 00 fa ff ff 	mov    %rax,-0x600(%rbp)
    b476:	48 8d 05 b3 48 01 00 	lea    0x148b3(%rip),%rax        # 1fd30 <g_660>
    b47d:	48 89 85 08 fa ff ff 	mov    %rax,-0x5f8(%rbp)
    b484:	48 8d 05 4b 3d 01 00 	lea    0x13d4b(%rip),%rax        # 1f1d6 <g_277+0x6>
    b48b:	48 89 85 10 fa ff ff 	mov    %rax,-0x5f0(%rbp)
    b492:	48 8d 05 6d 4d 01 00 	lea    0x14d6d(%rip),%rax        # 20206 <g_1526+0x6>
    b499:	48 89 85 18 fa ff ff 	mov    %rax,-0x5e8(%rbp)
    b4a0:	48 8d 05 0d 3d 01 00 	lea    0x13d0d(%rip),%rax        # 1f1b4 <g_264+0x114>
    b4a7:	48 89 85 20 fa ff ff 	mov    %rax,-0x5e0(%rbp)
    b4ae:	48 8d 05 21 3d 01 00 	lea    0x13d21(%rip),%rax        # 1f1d6 <g_277+0x6>
    b4b5:	48 89 85 28 fa ff ff 	mov    %rax,-0x5d8(%rbp)
    b4bc:	48 8d 05 8d 3b 01 00 	lea    0x13b8d(%rip),%rax        # 1f050 <g_41>
    b4c3:	48 89 85 30 fa ff ff 	mov    %rax,-0x5d0(%rbp)
    b4ca:	48 8d 05 85 49 01 00 	lea    0x14985(%rip),%rax        # 1fe56 <g_1334+0x6>
    b4d1:	48 89 85 38 fa ff ff 	mov    %rax,-0x5c8(%rbp)
    b4d8:	48 8d 05 71 3b 01 00 	lea    0x13b71(%rip),%rax        # 1f050 <g_41>
    b4df:	48 89 85 40 fa ff ff 	mov    %rax,-0x5c0(%rbp)
    b4e6:	48 8d 05 6f 3b 01 00 	lea    0x13b6f(%rip),%rax        # 1f05c <g_49>
    b4ed:	48 89 85 48 fa ff ff 	mov    %rax,-0x5b8(%rbp)
    b4f4:	48 8d 05 61 3b 01 00 	lea    0x13b61(%rip),%rax        # 1f05c <g_49>
    b4fb:	48 89 85 50 fa ff ff 	mov    %rax,-0x5b0(%rbp)
    b502:	48 8d 05 bd 3e 01 00 	lea    0x13ebd(%rip),%rax        # 1f3c6 <g_560+0x6>
    b509:	48 89 85 58 fa ff ff 	mov    %rax,-0x5a8(%rbp)
    b510:	48 8d 05 c5 48 01 00 	lea    0x148c5(%rip),%rax        # 1fddc <g_1131+0x4>
    b517:	48 89 85 60 fa ff ff 	mov    %rax,-0x5a0(%rbp)
    b51e:	48 8d 05 e1 4c 01 00 	lea    0x14ce1(%rip),%rax        # 20206 <g_1526+0x6>
    b525:	48 89 85 68 fa ff ff 	mov    %rax,-0x598(%rbp)
    b52c:	48 8d 05 fd 47 01 00 	lea    0x147fd(%rip),%rax        # 1fd30 <g_660>
    b533:	48 89 85 70 fa ff ff 	mov    %rax,-0x590(%rbp)
    b53a:	48 8d 05 15 49 01 00 	lea    0x14915(%rip),%rax        # 1fe56 <g_1334+0x6>
    b541:	48 89 85 78 fa ff ff 	mov    %rax,-0x588(%rbp)
    b548:	48 8d 05 0d 3b 01 00 	lea    0x13b0d(%rip),%rax        # 1f05c <g_49>
    b54f:	48 89 85 80 fa ff ff 	mov    %rax,-0x580(%rbp)
    b556:	48 c7 85 88 fa ff ff 	movq   $0x0,-0x578(%rbp)
    b55d:	00 00 00 00 
    b561:	48 8d 85 30 ed ff ff 	lea    -0x12d0(%rbp),%rax
    b568:	48 89 85 90 fa ff ff 	mov    %rax,-0x570(%rbp)
    b56f:	c7 85 80 f0 ff ff 01 	movl   $0x1696901,-0xf80(%rbp)
    b576:	69 69 01 
    b579:	66 c7 85 84 f0 ff ff 	movw   $0x6969,-0xf7c(%rbp)
    b580:	69 69 
    b582:	c6 85 86 f0 ff ff 01 	movb   $0x1,-0xf7a(%rbp)
    b589:	c7 85 87 f0 ff ff ff 	movl   $0xfffff1ff,-0xf79(%rbp)
    b590:	f1 ff ff 
    b593:	66 c7 85 8b f0 ff ff 	movw   $0xfff1,-0xf75(%rbp)
    b59a:	f1 ff 
    b59c:	c6 85 8d f0 ff ff ff 	movb   $0xff,-0xf73(%rbp)
    b5a3:	c6 05 c2 4b 01 00 00 	movb   $0x0,0x14bc2(%rip)        # 2016c <g_1455+0xc>
    b5aa:	eb 43                	jmp    b5ef <func_1+0x2e3a>
    b5ac:	48 8d 85 10 ee ff ff 	lea    -0x11f0(%rbp),%rax
    b5b3:	48 89 85 40 ef ff ff 	mov    %rax,-0x10c0(%rbp)
    b5ba:	48 8b 95 10 ee ff ff 	mov    -0x11f0(%rbp),%rdx
    b5c1:	48 8b 85 40 ef ff ff 	mov    -0x10c0(%rbp),%rax
    b5c8:	48 89 10             	mov    %rdx,(%rax)
    b5cb:	48 8b 05 ee 83 01 00 	mov    0x183ee(%rip),%rax        # 239c0 <g_112>
    b5d2:	48 8b 00             	mov    (%rax),%rax
    b5d5:	48 8b 00             	mov    (%rax),%rax
    b5d8:	48 8b 00             	mov    (%rax),%rax
    b5db:	8b 00                	mov    (%rax),%eax
    b5dd:	85 c0                	test   %eax,%eax
    b5df:	0f b6 05 86 4b 01 00 	movzbl 0x14b86(%rip),%eax        # 2016c <g_1455+0xc>
    b5e6:	83 c0 01             	add    $0x1,%eax
    b5e9:	88 05 7d 4b 01 00    	mov    %al,0x14b7d(%rip)        # 2016c <g_1455+0xc>
    b5ef:	0f b6 05 76 4b 01 00 	movzbl 0x14b76(%rip),%eax        # 2016c <g_1455+0xc>
    b5f6:	3c 04                	cmp    $0x4,%al
    b5f8:	76 b2                	jbe    b5ac <func_1+0x2df7>
    b5fa:	0f b6 85 8c f0 ff ff 	movzbl -0xf74(%rbp),%eax
    b601:	83 e8 01             	sub    $0x1,%eax
    b604:	88 85 8c f0 ff ff    	mov    %al,-0xf74(%rbp)
    b60a:	eb 01                	jmp    b60d <func_1+0x2e58>
    b60c:	90                   	nop
    b60d:	48 8b 85 08 ee ff ff 	mov    -0x11f8(%rbp),%rax
    b614:	8b 00                	mov    (%rax),%eax
    b616:	85 c0                	test   %eax,%eax
    b618:	75 7b                	jne    b695 <func_1+0x2ee0>
    b61a:	48 c7 05 73 92 01 00 	movq   $0x4,0x19273(%rip)        # 24898 <g_1490>
    b621:	04 00 00 00 
    b625:	eb 3c                	jmp    b663 <func_1+0x2eae>
    b627:	48 8b 85 e8 ed ff ff 	mov    -0x1218(%rbp),%rax
    b62e:	c7 00 09 00 00 00    	movl   $0x9,(%rax)
    b634:	c6 85 25 ed ff ff 00 	movb   $0x0,-0x12db(%rbp)
    b63b:	80 bd 25 ed ff ff 04 	cmpb   $0x4,-0x12db(%rbp)
    b642:	77 0d                	ja     b651 <func_1+0x2e9c>
    b644:	8b 85 a8 ed ff ff    	mov    -0x1258(%rbp),%eax
    b64a:	48 98                	cltq   
    b64c:	e9 44 0f 00 00       	jmpq   c595 <func_1+0x3de0>
    b651:	48 8b 05 40 92 01 00 	mov    0x19240(%rip),%rax        # 24898 <g_1490>
    b658:	48 83 e8 01          	sub    $0x1,%rax
    b65c:	48 89 05 35 92 01 00 	mov    %rax,0x19235(%rip)        # 24898 <g_1490>
    b663:	48 8b 05 2e 92 01 00 	mov    0x1922e(%rip),%rax        # 24898 <g_1490>
    b66a:	48 85 c0             	test   %rax,%rax
    b66d:	79 b8                	jns    b627 <func_1+0x2e72>
    b66f:	8b 05 a3 47 01 00    	mov    0x147a3(%rip),%eax        # 1fe18 <g_1218>
    b675:	83 c0 01             	add    $0x1,%eax
    b678:	89 05 9a 47 01 00    	mov    %eax,0x1479a(%rip)        # 1fe18 <g_1218>
    b67e:	8b 05 94 47 01 00    	mov    0x14794(%rip),%eax        # 1fe18 <g_1218>
    b684:	83 f8 04             	cmp    $0x4,%eax
    b687:	0f 8e 26 f5 ff ff    	jle    abb3 <func_1+0x23fe>
    b68d:	eb 07                	jmp    b696 <func_1+0x2ee1>
    b68f:	90                   	nop
    b690:	eb 04                	jmp    b696 <func_1+0x2ee1>
    b692:	90                   	nop
    b693:	eb 01                	jmp    b696 <func_1+0x2ee1>
    b695:	90                   	nop
    b696:	48 8b 05 3b 83 01 00 	mov    0x1833b(%rip),%rax        # 239d8 <g_267>
    b69d:	48 8b 0d 9c 4b 01 00 	mov    0x14b9c(%rip),%rcx        # 20240 <g_1655>
    b6a4:	48 8b 1d 9d 4b 01 00 	mov    0x14b9d(%rip),%rbx        # 20248 <g_1655+0x8>
    b6ab:	48 89 08             	mov    %rcx,(%rax)
    b6ae:	48 89 58 08          	mov    %rbx,0x8(%rax)
    b6b2:	48 8b 15 97 4b 01 00 	mov    0x14b97(%rip),%rdx        # 20250 <g_1655+0x10>
    b6b9:	48 89 50 10          	mov    %rdx,0x10(%rax)
    b6bd:	8b 15 95 4b 01 00    	mov    0x14b95(%rip),%edx        # 20258 <g_1655+0x18>
    b6c3:	89 50 18             	mov    %edx,0x18(%rax)
    b6c6:	0f b7 15 8f 4b 01 00 	movzwl 0x14b8f(%rip),%edx        # 2025c <g_1655+0x1c>
    b6cd:	66 89 50 1c          	mov    %dx,0x1c(%rax)
    b6d1:	48 8b 85 f0 ed ff ff 	mov    -0x1210(%rbp),%rax
    b6d8:	48 89 85 78 ee ff ff 	mov    %rax,-0x1188(%rbp)
    b6df:	48 8b 85 e8 ed ff ff 	mov    -0x1218(%rbp),%rax
    b6e6:	8b 15 f6 3a 01 00    	mov    0x13af6(%rip),%edx        # 1f1e2 <g_277+0x12>
    b6ec:	8d 72 01             	lea    0x1(%rdx),%esi
    b6ef:	8b 00                	mov    (%rax),%eax
    b6f1:	89 f2                	mov    %esi,%edx
    b6f3:	48 8d 0c 95 00 00 00 	lea    0x0(,%rdx,4),%rcx
    b6fa:	00 
    b6fb:	48 8d 15 d6 46 01 00 	lea    0x146d6(%rip),%rdx        # 1fdd8 <g_1131>
    b702:	89 04 11             	mov    %eax,(%rcx,%rdx,1)
    b705:	89 f0                	mov    %esi,%eax
    b707:	48 8d 14 85 00 00 00 	lea    0x0(,%rax,4),%rdx
    b70e:	00 
    b70f:	48 8d 05 c2 46 01 00 	lea    0x146c2(%rip),%rax        # 1fdd8 <g_1131>
    b716:	8b 04 02             	mov    (%rdx,%rax,1),%eax
    b719:	85 c0                	test   %eax,%eax
    b71b:	0f 84 32 07 00 00    	je     be53 <func_1+0x369e>
    b721:	48 8d 05 2e 47 01 00 	lea    0x1472e(%rip),%rax        # 1fe56 <g_1334+0x6>
    b728:	48 89 85 c0 ef ff ff 	mov    %rax,-0x1040(%rbp)
    b72f:	8b 05 ad 3a 01 00    	mov    0x13aad(%rip),%eax        # 1f1e2 <g_277+0x12>
    b735:	83 c0 01             	add    $0x1,%eax
    b738:	89 c0                	mov    %eax,%eax
    b73a:	48 8d 14 85 00 00 00 	lea    0x0(,%rax,4),%rdx
    b741:	00 
    b742:	48 8d 05 8f 46 01 00 	lea    0x1468f(%rip),%rax        # 1fdd8 <g_1131>
    b749:	48 01 d0             	add    %rdx,%rax
    b74c:	48 89 85 c8 ef ff ff 	mov    %rax,-0x1038(%rbp)
    b753:	48 8d 85 d8 ef ff ff 	lea    -0x1028(%rbp),%rax
    b75a:	48 89 85 50 f7 ff ff 	mov    %rax,-0x8b0(%rbp)
    b761:	48 8d 85 50 ed ff ff 	lea    -0x12b0(%rbp),%rax
    b768:	48 89 85 58 f7 ff ff 	mov    %rax,-0x8a8(%rbp)
    b76f:	48 8d 05 3e 3a 01 00 	lea    0x13a3e(%rip),%rax        # 1f1b4 <g_264+0x114>
    b776:	48 89 85 60 f7 ff ff 	mov    %rax,-0x8a0(%rbp)
    b77d:	48 8d 05 82 4a 01 00 	lea    0x14a82(%rip),%rax        # 20206 <g_1526+0x6>
    b784:	48 89 85 68 f7 ff ff 	mov    %rax,-0x898(%rbp)
    b78b:	48 8d 05 be 38 01 00 	lea    0x138be(%rip),%rax        # 1f050 <g_41>
    b792:	48 89 85 70 f7 ff ff 	mov    %rax,-0x890(%rbp)
    b799:	48 8d 05 b0 38 01 00 	lea    0x138b0(%rip),%rax        # 1f050 <g_41>
    b7a0:	48 89 85 78 f7 ff ff 	mov    %rax,-0x888(%rbp)
    b7a7:	48 8d 05 58 4a 01 00 	lea    0x14a58(%rip),%rax        # 20206 <g_1526+0x6>
    b7ae:	48 89 85 80 f7 ff ff 	mov    %rax,-0x880(%rbp)
    b7b5:	48 8d 05 f8 39 01 00 	lea    0x139f8(%rip),%rax        # 1f1b4 <g_264+0x114>
    b7bc:	48 89 85 88 f7 ff ff 	mov    %rax,-0x878(%rbp)
    b7c3:	48 8d 85 50 ed ff ff 	lea    -0x12b0(%rbp),%rax
    b7ca:	48 89 85 90 f7 ff ff 	mov    %rax,-0x870(%rbp)
    b7d1:	48 c7 85 98 f7 ff ff 	movq   $0x0,-0x868(%rbp)
    b7d8:	00 00 00 00 
    b7dc:	48 8d 85 d8 ef ff ff 	lea    -0x1028(%rbp),%rax
    b7e3:	48 89 85 a0 f7 ff ff 	mov    %rax,-0x860(%rbp)
    b7ea:	48 8d 05 c3 39 01 00 	lea    0x139c3(%rip),%rax        # 1f1b4 <g_264+0x114>
    b7f1:	48 89 85 a8 f7 ff ff 	mov    %rax,-0x858(%rbp)
    b7f8:	48 c7 85 b0 f7 ff ff 	movq   $0x0,-0x850(%rbp)
    b7ff:	00 00 00 00 
    b803:	48 c7 85 b8 f7 ff ff 	movq   $0x0,-0x848(%rbp)
    b80a:	00 00 00 00 
    b80e:	48 c7 85 c0 f7 ff ff 	movq   $0x0,-0x840(%rbp)
    b815:	00 00 00 00 
    b819:	48 8d 05 94 39 01 00 	lea    0x13994(%rip),%rax        # 1f1b4 <g_264+0x114>
    b820:	48 89 85 c8 f7 ff ff 	mov    %rax,-0x838(%rbp)
    b827:	48 8d 85 d8 ef ff ff 	lea    -0x1028(%rbp),%rax
    b82e:	48 89 85 d0 f7 ff ff 	mov    %rax,-0x830(%rbp)
    b835:	48 c7 85 d8 f7 ff ff 	movq   $0x0,-0x828(%rbp)
    b83c:	00 00 00 00 
    b840:	48 8d 05 09 38 01 00 	lea    0x13809(%rip),%rax        # 1f050 <g_41>
    b847:	48 89 85 e0 f7 ff ff 	mov    %rax,-0x820(%rbp)
    b84e:	48 8d 85 d8 ef ff ff 	lea    -0x1028(%rbp),%rax
    b855:	48 89 85 e8 f7 ff ff 	mov    %rax,-0x818(%rbp)
    b85c:	48 8d 05 51 39 01 00 	lea    0x13951(%rip),%rax        # 1f1b4 <g_264+0x114>
    b863:	48 89 85 f0 f7 ff ff 	mov    %rax,-0x810(%rbp)
    b86a:	48 8d 85 d8 ef ff ff 	lea    -0x1028(%rbp),%rax
    b871:	48 89 85 f8 f7 ff ff 	mov    %rax,-0x808(%rbp)
    b878:	48 8d 85 d8 ef ff ff 	lea    -0x1028(%rbp),%rax
    b87f:	48 89 85 00 f8 ff ff 	mov    %rax,-0x800(%rbp)
    b886:	48 8d 05 27 39 01 00 	lea    0x13927(%rip),%rax        # 1f1b4 <g_264+0x114>
    b88d:	48 89 85 08 f8 ff ff 	mov    %rax,-0x7f8(%rbp)
    b894:	48 8d 85 d8 ef ff ff 	lea    -0x1028(%rbp),%rax
    b89b:	48 89 85 10 f8 ff ff 	mov    %rax,-0x7f0(%rbp)
    b8a2:	48 8d 05 a7 37 01 00 	lea    0x137a7(%rip),%rax        # 1f050 <g_41>
    b8a9:	48 89 85 18 f8 ff ff 	mov    %rax,-0x7e8(%rbp)
    b8b0:	48 c7 85 20 f8 ff ff 	movq   $0x0,-0x7e0(%rbp)
    b8b7:	00 00 00 00 
    b8bb:	48 8d 05 54 44 01 00 	lea    0x14454(%rip),%rax        # 1fd16 <g_611+0x6>
    b8c2:	48 89 85 28 f8 ff ff 	mov    %rax,-0x7d8(%rbp)
    b8c9:	48 8d 85 d8 ef ff ff 	lea    -0x1028(%rbp),%rax
    b8d0:	48 89 85 30 f8 ff ff 	mov    %rax,-0x7d0(%rbp)
    b8d7:	48 c7 85 38 f8 ff ff 	movq   $0x0,-0x7c8(%rbp)
    b8de:	00 00 00 00 
    b8e2:	48 8d 05 f3 44 01 00 	lea    0x144f3(%rip),%rax        # 1fddc <g_1131+0x4>
    b8e9:	48 89 85 40 f8 ff ff 	mov    %rax,-0x7c0(%rbp)
    b8f0:	48 c7 85 48 f8 ff ff 	movq   $0x0,-0x7b8(%rbp)
    b8f7:	00 00 00 00 
    b8fb:	48 8d 85 d8 ef ff ff 	lea    -0x1028(%rbp),%rax
    b902:	48 89 85 50 f8 ff ff 	mov    %rax,-0x7b0(%rbp)
    b909:	48 8d 05 06 44 01 00 	lea    0x14406(%rip),%rax        # 1fd16 <g_611+0x6>
    b910:	48 89 85 58 f8 ff ff 	mov    %rax,-0x7a8(%rbp)
    b917:	48 8d 05 be 44 01 00 	lea    0x144be(%rip),%rax        # 1fddc <g_1131+0x4>
    b91e:	48 89 85 60 f8 ff ff 	mov    %rax,-0x7a0(%rbp)
    b925:	48 8d 05 ea 43 01 00 	lea    0x143ea(%rip),%rax        # 1fd16 <g_611+0x6>
    b92c:	48 89 85 68 f8 ff ff 	mov    %rax,-0x798(%rbp)
    b933:	48 8d 05 16 37 01 00 	lea    0x13716(%rip),%rax        # 1f050 <g_41>
    b93a:	48 89 85 70 f8 ff ff 	mov    %rax,-0x790(%rbp)
    b941:	48 8d 85 50 ed ff ff 	lea    -0x12b0(%rbp),%rax
    b948:	48 89 85 78 f8 ff ff 	mov    %rax,-0x788(%rbp)
    b94f:	48 8d 85 d8 ef ff ff 	lea    -0x1028(%rbp),%rax
    b956:	48 89 85 80 f8 ff ff 	mov    %rax,-0x780(%rbp)
    b95d:	48 8d 85 d8 ef ff ff 	lea    -0x1028(%rbp),%rax
    b964:	48 89 85 88 f8 ff ff 	mov    %rax,-0x778(%rbp)
    b96b:	48 8d 85 50 ed ff ff 	lea    -0x12b0(%rbp),%rax
    b972:	48 89 85 90 f8 ff ff 	mov    %rax,-0x770(%rbp)
    b979:	48 8d 05 d0 36 01 00 	lea    0x136d0(%rip),%rax        # 1f050 <g_41>
    b980:	48 89 85 98 f8 ff ff 	mov    %rax,-0x768(%rbp)
    b987:	48 8d 05 26 38 01 00 	lea    0x13826(%rip),%rax        # 1f1b4 <g_264+0x114>
    b98e:	48 89 85 a0 f8 ff ff 	mov    %rax,-0x760(%rbp)
    b995:	48 c7 85 a8 f8 ff ff 	movq   $0x0,-0x758(%rbp)
    b99c:	00 00 00 00 
    b9a0:	48 c7 85 b0 f8 ff ff 	movq   $0x0,-0x750(%rbp)
    b9a7:	00 00 00 00 
    b9ab:	48 c7 85 b8 f8 ff ff 	movq   $0x0,-0x748(%rbp)
    b9b2:	00 00 00 00 
    b9b6:	48 8d 85 d8 ef ff ff 	lea    -0x1028(%rbp),%rax
    b9bd:	48 83 c0 04          	add    $0x4,%rax
    b9c1:	48 89 85 c0 f8 ff ff 	mov    %rax,-0x740(%rbp)
    b9c8:	48 c7 85 c8 f8 ff ff 	movq   $0x0,-0x738(%rbp)
    b9cf:	00 00 00 00 
    b9d3:	48 8d 85 d8 ef ff ff 	lea    -0x1028(%rbp),%rax
    b9da:	48 83 c0 04          	add    $0x4,%rax
    b9de:	48 89 85 d0 f8 ff ff 	mov    %rax,-0x730(%rbp)
    b9e5:	48 c7 85 d8 f8 ff ff 	movq   $0x0,-0x728(%rbp)
    b9ec:	00 00 00 00 
    b9f0:	48 8d 05 e5 43 01 00 	lea    0x143e5(%rip),%rax        # 1fddc <g_1131+0x4>
    b9f7:	48 89 85 e0 f8 ff ff 	mov    %rax,-0x720(%rbp)
    b9fe:	48 c7 85 e8 f8 ff ff 	movq   $0x0,-0x718(%rbp)
    ba05:	00 00 00 00 
    ba09:	48 8d 05 cc 43 01 00 	lea    0x143cc(%rip),%rax        # 1fddc <g_1131+0x4>
    ba10:	48 89 85 f0 f8 ff ff 	mov    %rax,-0x710(%rbp)
    ba17:	48 c7 85 f8 f8 ff ff 	movq   $0x0,-0x708(%rbp)
    ba1e:	00 00 00 00 
    ba22:	48 8d 85 d8 ef ff ff 	lea    -0x1028(%rbp),%rax
    ba29:	48 89 85 00 f9 ff ff 	mov    %rax,-0x700(%rbp)
    ba30:	48 8d 05 cf 47 01 00 	lea    0x147cf(%rip),%rax        # 20206 <g_1526+0x6>
    ba37:	48 89 85 08 f9 ff ff 	mov    %rax,-0x6f8(%rbp)
    ba3e:	48 8d 05 c1 47 01 00 	lea    0x147c1(%rip),%rax        # 20206 <g_1526+0x6>
    ba45:	48 89 85 10 f9 ff ff 	mov    %rax,-0x6f0(%rbp)
    ba4c:	48 8d 85 d8 ef ff ff 	lea    -0x1028(%rbp),%rax
    ba53:	48 89 85 18 f9 ff ff 	mov    %rax,-0x6e8(%rbp)
    ba5a:	48 c7 85 20 f9 ff ff 	movq   $0x0,-0x6e0(%rbp)
    ba61:	00 00 00 00 
    ba65:	48 c7 85 28 f9 ff ff 	movq   $0x0,-0x6d8(%rbp)
    ba6c:	00 00 00 00 
    ba70:	48 8d 05 3d 37 01 00 	lea    0x1373d(%rip),%rax        # 1f1b4 <g_264+0x114>
    ba77:	48 89 85 30 f9 ff ff 	mov    %rax,-0x6d0(%rbp)
    ba7e:	48 8d 05 cb 35 01 00 	lea    0x135cb(%rip),%rax        # 1f050 <g_41>
    ba85:	48 89 85 38 f9 ff ff 	mov    %rax,-0x6c8(%rbp)
    ba8c:	48 8d 85 50 ed ff ff 	lea    -0x12b0(%rbp),%rax
    ba93:	48 89 85 40 f9 ff ff 	mov    %rax,-0x6c0(%rbp)
    ba9a:	48 c7 85 48 f9 ff ff 	movq   $0x0,-0x6b8(%rbp)
    baa1:	00 00 00 00 
    baa5:	48 8d 05 30 43 01 00 	lea    0x14330(%rip),%rax        # 1fddc <g_1131+0x4>
    baac:	48 89 85 50 f9 ff ff 	mov    %rax,-0x6b0(%rbp)
    bab3:	48 c7 85 58 f9 ff ff 	movq   $0x0,-0x6a8(%rbp)
    baba:	00 00 00 00 
    babe:	48 8d 85 d8 ef ff ff 	lea    -0x1028(%rbp),%rax
    bac5:	48 89 85 60 f9 ff ff 	mov    %rax,-0x6a0(%rbp)
    bacc:	48 8d 05 43 42 01 00 	lea    0x14243(%rip),%rax        # 1fd16 <g_611+0x6>
    bad3:	48 89 85 68 f9 ff ff 	mov    %rax,-0x698(%rbp)
    bada:	48 8d 05 fb 42 01 00 	lea    0x142fb(%rip),%rax        # 1fddc <g_1131+0x4>
    bae1:	48 89 85 70 f9 ff ff 	mov    %rax,-0x690(%rbp)
    bae8:	48 8d 05 27 42 01 00 	lea    0x14227(%rip),%rax        # 1fd16 <g_611+0x6>
    baef:	48 89 85 78 f9 ff ff 	mov    %rax,-0x688(%rbp)
    baf6:	48 8d 85 d8 ef ff ff 	lea    -0x1028(%rbp),%rax
    bafd:	48 89 85 80 f9 ff ff 	mov    %rax,-0x680(%rbp)
    bb04:	48 c7 85 88 f9 ff ff 	movq   $0x0,-0x678(%rbp)
    bb0b:	00 00 00 00 
    bb0f:	48 8d 85 50 ed ff ff 	lea    -0x12b0(%rbp),%rax
    bb16:	48 89 85 90 f9 ff ff 	mov    %rax,-0x670(%rbp)
    bb1d:	48 8d 85 50 ed ff ff 	lea    -0x12b0(%rbp),%rax
    bb24:	48 89 85 98 f9 ff ff 	mov    %rax,-0x668(%rbp)
    bb2b:	48 c7 85 a0 f9 ff ff 	movq   $0x0,-0x660(%rbp)
    bb32:	00 00 00 00 
    bb36:	48 8d 05 c9 46 01 00 	lea    0x146c9(%rip),%rax        # 20206 <g_1526+0x6>
    bb3d:	48 89 85 a8 f9 ff ff 	mov    %rax,-0x658(%rbp)
    bb44:	48 c7 85 b0 f9 ff ff 	movq   $0x0,-0x650(%rbp)
    bb4b:	00 00 00 00 
    bb4f:	48 8d 05 fa 34 01 00 	lea    0x134fa(%rip),%rax        # 1f050 <g_41>
    bb56:	48 89 85 b8 f9 ff ff 	mov    %rax,-0x648(%rbp)
    bb5d:	48 8d 85 d8 ef ff ff 	lea    -0x1028(%rbp),%rax
    bb64:	48 89 85 c0 f9 ff ff 	mov    %rax,-0x640(%rbp)
    bb6b:	48 8d 05 42 36 01 00 	lea    0x13642(%rip),%rax        # 1f1b4 <g_264+0x114>
    bb72:	48 89 85 c8 f9 ff ff 	mov    %rax,-0x638(%rbp)
    bb79:	48 8d 85 d8 ef ff ff 	lea    -0x1028(%rbp),%rax
    bb80:	48 89 85 d0 f9 ff ff 	mov    %rax,-0x630(%rbp)
    bb87:	48 c7 85 d8 f9 ff ff 	movq   $0x0,-0x628(%rbp)
    bb8e:	00 00 00 00 
    bb92:	48 c7 85 e0 f9 ff ff 	movq   $0x0,-0x620(%rbp)
    bb99:	00 00 00 00 
    bb9d:	48 8d 05 10 36 01 00 	lea    0x13610(%rip),%rax        # 1f1b4 <g_264+0x114>
    bba4:	48 89 85 e8 f9 ff ff 	mov    %rax,-0x618(%rbp)
    bbab:	48 8d 85 d8 ef ff ff 	lea    -0x1028(%rbp),%rax
    bbb2:	48 89 85 f0 f9 ff ff 	mov    %rax,-0x610(%rbp)
    bbb9:	48 c7 85 f8 f9 ff ff 	movq   $0x0,-0x608(%rbp)
    bbc0:	00 00 00 00 
    bbc4:	48 8d 85 d8 ef ff ff 	lea    -0x1028(%rbp),%rax
    bbcb:	48 89 85 00 fa ff ff 	mov    %rax,-0x600(%rbp)
    bbd2:	48 8d 05 db 35 01 00 	lea    0x135db(%rip),%rax        # 1f1b4 <g_264+0x114>
    bbd9:	48 89 85 08 fa ff ff 	mov    %rax,-0x5f8(%rbp)
    bbe0:	48 c7 85 10 fa ff ff 	movq   $0x0,-0x5f0(%rbp)
    bbe7:	00 00 00 00 
    bbeb:	48 c7 85 18 fa ff ff 	movq   $0x0,-0x5e8(%rbp)
    bbf2:	00 00 00 00 
    bbf6:	48 c7 85 20 fa ff ff 	movq   $0x0,-0x5e0(%rbp)
    bbfd:	00 00 00 00 
    bc01:	48 8d 85 d8 ef ff ff 	lea    -0x1028(%rbp),%rax
    bc08:	48 89 85 28 fa ff ff 	mov    %rax,-0x5d8(%rbp)
    bc0f:	48 c7 85 30 fa ff ff 	movq   $0x0,-0x5d0(%rbp)
    bc16:	00 00 00 00 
    bc1a:	48 8d 85 d8 ef ff ff 	lea    -0x1028(%rbp),%rax
    bc21:	48 89 85 38 fa ff ff 	mov    %rax,-0x5c8(%rbp)
    bc28:	48 8d 85 50 ed ff ff 	lea    -0x12b0(%rbp),%rax
    bc2f:	48 89 85 40 fa ff ff 	mov    %rax,-0x5c0(%rbp)
    bc36:	48 8d 05 77 35 01 00 	lea    0x13577(%rip),%rax        # 1f1b4 <g_264+0x114>
    bc3d:	48 89 85 48 fa ff ff 	mov    %rax,-0x5b8(%rbp)
    bc44:	48 8d 05 bb 45 01 00 	lea    0x145bb(%rip),%rax        # 20206 <g_1526+0x6>
    bc4b:	48 89 85 50 fa ff ff 	mov    %rax,-0x5b0(%rbp)
    bc52:	48 8d 05 f7 33 01 00 	lea    0x133f7(%rip),%rax        # 1f050 <g_41>
    bc59:	48 89 85 58 fa ff ff 	mov    %rax,-0x5a8(%rbp)
    bc60:	48 8d 05 e9 33 01 00 	lea    0x133e9(%rip),%rax        # 1f050 <g_41>
    bc67:	48 89 85 60 fa ff ff 	mov    %rax,-0x5a0(%rbp)
    bc6e:	48 8d 05 a1 40 01 00 	lea    0x140a1(%rip),%rax        # 1fd16 <g_611+0x6>
    bc75:	48 89 85 68 fa ff ff 	mov    %rax,-0x598(%rbp)
    bc7c:	48 c7 85 70 fa ff ff 	movq   $0x0,-0x590(%rbp)
    bc83:	00 00 00 00 
    bc87:	48 c7 85 78 fa ff ff 	movq   $0x0,-0x588(%rbp)
    bc8e:	00 00 00 00 
    bc92:	48 8d 85 d8 ef ff ff 	lea    -0x1028(%rbp),%rax
    bc99:	48 83 c0 04          	add    $0x4,%rax
    bc9d:	48 89 85 80 fa ff ff 	mov    %rax,-0x580(%rbp)
    bca4:	48 c7 85 88 fa ff ff 	movq   $0x0,-0x578(%rbp)
    bcab:	00 00 00 00 
    bcaf:	48 c7 85 90 fa ff ff 	movq   $0x0,-0x570(%rbp)
    bcb6:	00 00 00 00 
    bcba:	48 8d 05 55 40 01 00 	lea    0x14055(%rip),%rax        # 1fd16 <g_611+0x6>
    bcc1:	48 89 85 98 fa ff ff 	mov    %rax,-0x568(%rbp)
    bcc8:	48 8d 85 d8 ef ff ff 	lea    -0x1028(%rbp),%rax
    bccf:	48 83 c0 04          	add    $0x4,%rax
    bcd3:	48 89 85 a0 fa ff ff 	mov    %rax,-0x560(%rbp)
    bcda:	48 8d 05 35 40 01 00 	lea    0x14035(%rip),%rax        # 1fd16 <g_611+0x6>
    bce1:	48 89 85 a8 fa ff ff 	mov    %rax,-0x558(%rbp)
    bce8:	c6 85 f0 f2 ff ff 00 	movb   $0x0,-0xd10(%rbp)
    bcef:	c6 85 f1 f2 ff ff 83 	movb   $0x83,-0xd0f(%rbp)
    bcf6:	c6 85 f2 f2 ff ff fd 	movb   $0xfd,-0xd0e(%rbp)
    bcfd:	c6 85 f3 f2 ff ff ff 	movb   $0xff,-0xd0d(%rbp)
    bd04:	c6 85 f4 f2 ff ff 00 	movb   $0x0,-0xd0c(%rbp)
    bd0b:	c6 85 f5 f2 ff ff f6 	movb   $0xf6,-0xd0b(%rbp)
    bd12:	c6 85 f6 f2 ff ff 00 	movb   $0x0,-0xd0a(%rbp)
    bd19:	c6 85 f7 f2 ff ff ff 	movb   $0xff,-0xd09(%rbp)
    bd20:	c6 85 f8 f2 ff ff fd 	movb   $0xfd,-0xd08(%rbp)
    bd27:	c6 85 f9 f2 ff ff 83 	movb   $0x83,-0xd07(%rbp)
    bd2e:	c6 85 fa f2 ff ff 00 	movb   $0x0,-0xd06(%rbp)
    bd35:	c6 85 fb f2 ff ff d1 	movb   $0xd1,-0xd05(%rbp)
    bd3c:	c6 85 fc f2 ff ff 00 	movb   $0x0,-0xd04(%rbp)
    bd43:	c6 85 fd f2 ff ff 83 	movb   $0x83,-0xd03(%rbp)
    bd4a:	c6 85 fe f2 ff ff fd 	movb   $0xfd,-0xd02(%rbp)
    bd51:	c6 85 ff f2 ff ff ff 	movb   $0xff,-0xd01(%rbp)
    bd58:	c6 85 00 f3 ff ff 00 	movb   $0x0,-0xd00(%rbp)
    bd5f:	c6 85 01 f3 ff ff f6 	movb   $0xf6,-0xcff(%rbp)
    bd66:	c6 85 02 f3 ff ff 00 	movb   $0x0,-0xcfe(%rbp)
    bd6d:	c6 85 03 f3 ff ff ff 	movb   $0xff,-0xcfd(%rbp)
    bd74:	c6 85 04 f3 ff ff fd 	movb   $0xfd,-0xcfc(%rbp)
    bd7b:	c6 85 05 f3 ff ff 83 	movb   $0x83,-0xcfb(%rbp)
    bd82:	c6 85 06 f3 ff ff 00 	movb   $0x0,-0xcfa(%rbp)
    bd89:	c6 85 07 f3 ff ff d1 	movb   $0xd1,-0xcf9(%rbp)
    bd90:	c6 85 08 f3 ff ff fd 	movb   $0xfd,-0xcf8(%rbp)
    bd97:	c6 85 09 f3 ff ff f6 	movb   $0xf6,-0xcf7(%rbp)
    bd9e:	c6 85 0a f3 ff ff 03 	movb   $0x3,-0xcf6(%rbp)
    bda5:	c6 85 0b f3 ff ff d1 	movb   $0xd1,-0xcf5(%rbp)
    bdac:	c6 85 0c f3 ff ff fd 	movb   $0xfd,-0xcf4(%rbp)
    bdb3:	c6 85 0d f3 ff ff 01 	movb   $0x1,-0xcf3(%rbp)
    bdba:	c6 85 0e f3 ff ff fd 	movb   $0xfd,-0xcf2(%rbp)
    bdc1:	c6 85 0f f3 ff ff d1 	movb   $0xd1,-0xcf1(%rbp)
    bdc8:	c6 85 10 f3 ff ff 03 	movb   $0x3,-0xcf0(%rbp)
    bdcf:	c6 85 11 f3 ff ff f6 	movb   $0xf6,-0xcef(%rbp)
    bdd6:	c6 85 12 f3 ff ff fd 	movb   $0xfd,-0xcee(%rbp)
    bddd:	c6 85 13 f3 ff ff fb 	movb   $0xfb,-0xced(%rbp)
    bde4:	c6 85 14 f3 ff ff fd 	movb   $0xfd,-0xcec(%rbp)
    bdeb:	c6 85 15 f3 ff ff f6 	movb   $0xf6,-0xceb(%rbp)
    bdf2:	c6 85 16 f3 ff ff 03 	movb   $0x3,-0xcea(%rbp)
    bdf9:	c6 85 17 f3 ff ff d1 	movb   $0xd1,-0xce9(%rbp)
    be00:	c6 85 18 f3 ff ff fd 	movb   $0xfd,-0xce8(%rbp)
    be07:	c6 85 19 f3 ff ff 01 	movb   $0x1,-0xce7(%rbp)
    be0e:	c6 85 1a f3 ff ff fd 	movb   $0xfd,-0xce6(%rbp)
    be15:	c6 85 1b f3 ff ff d1 	movb   $0xd1,-0xce5(%rbp)
    be1c:	c6 85 1c f3 ff ff 03 	movb   $0x3,-0xce4(%rbp)
    be23:	c6 85 1d f3 ff ff f6 	movb   $0xf6,-0xce3(%rbp)
    be2a:	c6 85 1e f3 ff ff fd 	movb   $0xfd,-0xce2(%rbp)
    be31:	c6 85 1f f3 ff ff fb 	movb   $0xfb,-0xce1(%rbp)
    be38:	83 85 74 ed ff ff 01 	addl   $0x1,-0x128c(%rbp)
    be3f:	8b 85 48 ed ff ff    	mov    -0x12b8(%rbp),%eax
    be45:	83 c0 01             	add    $0x1,%eax
    be48:	89 85 48 ed ff ff    	mov    %eax,-0x12b8(%rbp)
    be4e:	e9 d8 05 00 00       	jmpq   c42b <func_1+0x3c76>
    be53:	c7 85 c8 ed ff ff c0 	movl   $0x263c24c0,-0x1238(%rbp)
    be5a:	24 3c 26 
    be5d:	c7 85 cc ed ff ff 17 	movl   $0xdf5aee17,-0x1234(%rbp)
    be64:	ee 5a df 
    be67:	c7 85 d0 ed ff ff 02 	movl   $0x2,-0x1230(%rbp)
    be6e:	00 00 00 
    be71:	c7 85 d4 ed ff ff 07 	movl   $0x7,-0x122c(%rbp)
    be78:	00 00 00 
    be7b:	48 8b 85 e8 ed ff ff 	mov    -0x1218(%rbp),%rax
    be82:	8b 00                	mov    (%rax),%eax
    be84:	85 c0                	test   %eax,%eax
    be86:	0f 85 be 05 00 00    	jne    c44a <func_1+0x3c95>
    be8c:	48 8b 05 45 7b 01 00 	mov    0x17b45(%rip),%rax        # 239d8 <g_267>
    be93:	48 8b 0d e6 50 01 00 	mov    0x150e6(%rip),%rcx        # 20f80 <g_1681+0xd20>
    be9a:	48 8b 1d e7 50 01 00 	mov    0x150e7(%rip),%rbx        # 20f88 <g_1681+0xd28>
    bea1:	48 89 08             	mov    %rcx,(%rax)
    bea4:	48 89 58 08          	mov    %rbx,0x8(%rax)
    bea8:	48 8b 15 e1 50 01 00 	mov    0x150e1(%rip),%rdx        # 20f90 <g_1681+0xd30>
    beaf:	48 89 50 10          	mov    %rdx,0x10(%rax)
    beb3:	8b 15 df 50 01 00    	mov    0x150df(%rip),%edx        # 20f98 <g_1681+0xd38>
    beb9:	89 50 18             	mov    %edx,0x18(%rax)
    bebc:	0f b7 15 d9 50 01 00 	movzwl 0x150d9(%rip),%edx        # 20f9c <g_1681+0xd3c>
    bec3:	66 89 50 1c          	mov    %dx,0x1c(%rax)
    bec7:	c7 05 c7 31 01 00 00 	movl   $0x0,0x131c7(%rip)        # 1f098 <g_258>
    bece:	00 00 00 
    bed1:	e9 47 05 00 00       	jmpq   c41d <func_1+0x3c68>
    bed6:	c7 85 f0 f2 ff ff 00 	movl   $0x0,-0xd10(%rbp)
    bedd:	00 00 00 
    bee0:	c7 85 f4 f2 ff ff ae 	movl   $0xefc66aae,-0xd0c(%rbp)
    bee7:	6a c6 ef 
    beea:	c7 85 f8 f2 ff ff 00 	movl   $0x0,-0xd08(%rbp)
    bef1:	00 00 00 
    bef4:	c7 85 fc f2 ff ff ae 	movl   $0xefc66aae,-0xd04(%rbp)
    befb:	6a c6 ef 
    befe:	c7 85 00 f3 ff ff 00 	movl   $0x0,-0xd00(%rbp)
    bf05:	00 00 00 
    bf08:	c7 85 04 f3 ff ff ae 	movl   $0xefc66aae,-0xcfc(%rbp)
    bf0f:	6a c6 ef 
    bf12:	c7 85 08 f3 ff ff 00 	movl   $0x0,-0xcf8(%rbp)
    bf19:	00 00 00 
    bf1c:	c7 85 0c f3 ff ff ae 	movl   $0xefc66aae,-0xcf4(%rbp)
    bf23:	6a c6 ef 
    bf26:	c7 85 10 f3 ff ff 00 	movl   $0x0,-0xcf0(%rbp)
    bf2d:	00 00 00 
    bf30:	48 8d 05 05 3f 01 00 	lea    0x13f05(%rip),%rax        # 1fe3c <g_1299+0xc>
    bf37:	48 89 85 a0 ef ff ff 	mov    %rax,-0x1060(%rbp)
    bf3e:	c7 85 d8 ed ff ff f6 	movl   $0xfffffff6,-0x1228(%rbp)
    bf45:	ff ff ff 
    bf48:	48 c7 85 a8 ef ff ff 	movq   $0x0,-0x1058(%rbp)
    bf4f:	00 00 00 00 
    bf53:	c6 85 22 ed ff ff 95 	movb   $0x95,-0x12de(%rbp)
    bf5a:	48 c7 85 b0 ef ff ff 	movq   $0x3,-0x1050(%rbp)
    bf61:	03 00 00 00 
    bf65:	48 8d 85 22 ed ff ff 	lea    -0x12de(%rbp),%rax
    bf6c:	48 89 85 18 ee ff ff 	mov    %rax,-0x11e8(%rbp)
    bf73:	48 8d 85 18 ee ff ff 	lea    -0x11e8(%rbp),%rax
    bf7a:	48 89 85 20 ee ff ff 	mov    %rax,-0x11e0(%rbp)
    bf81:	c7 85 98 ed ff ff 00 	movl   $0x0,-0x1268(%rbp)
    bf88:	00 00 00 
    bf8b:	eb 1e                	jmp    bfab <func_1+0x37f6>
    bf8d:	8b 85 98 ed ff ff    	mov    -0x1268(%rbp),%eax
    bf93:	48 98                	cltq   
    bf95:	48 8d 95 4c ed ff ff 	lea    -0x12b4(%rbp),%rdx
    bf9c:	48 89 94 c5 f0 ef ff 	mov    %rdx,-0x1010(%rbp,%rax,8)
    bfa3:	ff 
    bfa4:	83 85 98 ed ff ff 01 	addl   $0x1,-0x1268(%rbp)
    bfab:	83 bd 98 ed ff ff 02 	cmpl   $0x2,-0x1268(%rbp)
    bfb2:	7e d9                	jle    bf8d <func_1+0x37d8>
    bfb4:	8b 85 b0 ed ff ff    	mov    -0x1250(%rbp),%eax
    bfba:	48 63 d8             	movslq %eax,%rbx
    bfbd:	48 8b 05 ec 7e 01 00 	mov    0x17eec(%rip),%rax        # 23eb0 <g_784>
    bfc4:	48 8b 00             	mov    (%rax),%rax
    bfc7:	48 83 f8 01          	cmp    $0x1,%rax
    bfcb:	74 09                	je     bfd6 <func_1+0x3821>
    bfcd:	83 bd c8 ed ff ff 00 	cmpl   $0x0,-0x1238(%rbp)
    bfd4:	75 09                	jne    bfdf <func_1+0x382a>
    bfd6:	83 bd c8 ed ff ff 00 	cmpl   $0x0,-0x1238(%rbp)
    bfdd:	74 08                	je     bfe7 <func_1+0x3832>
    bfdf:	41 bc 01 00 00 00    	mov    $0x1,%r12d
    bfe5:	eb 06                	jmp    bfed <func_1+0x3838>
    bfe7:	41 bc 00 00 00 00    	mov    $0x0,%r12d
    bfed:	48 8b 05 bc 88 01 00 	mov    0x188bc(%rip),%rax        # 248b0 <g_1694>
    bff4:	48 8b 05 d5 82 01 00 	mov    0x182d5(%rip),%rax        # 242d0 <g_1695+0x10>
    bffb:	48 89 05 ce 82 01 00 	mov    %rax,0x182ce(%rip)        # 242d0 <g_1695+0x10>
    c002:	48 8b 05 c7 82 01 00 	mov    0x182c7(%rip),%rax        # 242d0 <g_1695+0x10>
    c009:	48 89 05 c8 82 01 00 	mov    %rax,0x182c8(%rip)        # 242d8 <g_1699>
    c010:	48 8b 05 c1 82 01 00 	mov    0x182c1(%rip),%rax        # 242d8 <g_1699>
    c017:	48 89 85 d8 ee ff ff 	mov    %rax,-0x1128(%rbp)
    c01e:	48 8d 05 53 82 01 00 	lea    0x18253(%rip),%rax        # 24278 <g_1397>
    c025:	48 39 85 d8 ee ff ff 	cmp    %rax,-0x1128(%rbp)
    c02c:	0f 95 c0             	setne  %al
    c02f:	0f b6 c0             	movzbl %al,%eax
    c032:	be 00 00 00 00       	mov    $0x0,%esi
    c037:	89 c7                	mov    %eax,%edi
    c039:	e8 1c bb ff ff       	callq  7b5a <safe_add_func_uint8_t_u_u>
    c03e:	0f be c0             	movsbl %al,%eax
    c041:	44 89 e6             	mov    %r12d,%esi
    c044:	89 c7                	mov    %eax,%edi
    c046:	e8 ea b2 ff ff       	callq  7335 <safe_rshift_func_int8_t_s_s>
    c04b:	89 c2                	mov    %eax,%edx
    c04d:	48 8b 85 a0 ef ff ff 	mov    -0x1060(%rbp),%rax
    c054:	88 10                	mov    %dl,(%rax)
    c056:	48 8b 85 a0 ef ff ff 	mov    -0x1060(%rbp),%rax
    c05d:	0f b6 00             	movzbl (%rax),%eax
    c060:	0f b6 c0             	movzbl %al,%eax
    c063:	0b 85 c8 ed ff ff    	or     -0x1238(%rbp),%eax
    c069:	89 c2                	mov    %eax,%edx
    c06b:	8b 85 08 f3 ff ff    	mov    -0xcf8(%rbp),%eax
    c071:	39 c2                	cmp    %eax,%edx
    c073:	0f 95 c0             	setne  %al
    c076:	0f b6 c0             	movzbl %al,%eax
    c079:	be 2a 4c 00 00       	mov    $0x4c2a,%esi
    c07e:	89 c7                	mov    %eax,%edi
    c080:	e8 4e b3 ff ff       	callq  73d3 <safe_sub_func_int16_t_s_s>
    c085:	48 0f bf c0          	movswq %ax,%rax
    c089:	48 be 8c a1 9d 85 5f 	movabs $0x9292f35f859da18c,%rsi
    c090:	f3 92 92 
    c093:	48 89 c7             	mov    %rax,%rdi
    c096:	e8 5c b9 ff ff       	callq  79f7 <safe_div_func_int64_t_s_s>
    c09b:	48 ba c0 1c 3a 24 6c 	movabs $0x2e55d46c243a1cc0,%rdx
    c0a2:	d4 55 2e 
    c0a5:	48 39 d0             	cmp    %rdx,%rax
    c0a8:	48 89 de             	mov    %rbx,%rsi
    c0ab:	bf 01 00 00 00       	mov    $0x1,%edi
    c0b0:	e8 f3 b7 ff ff       	callq  78a8 <safe_sub_func_int64_t_s_s>
    c0b5:	48 8b 15 ec 78 01 00 	mov    0x178ec(%rip),%rdx        # 239a8 <g_106>
    c0bc:	8b 12                	mov    (%rdx),%edx
    c0be:	89 c1                	mov    %eax,%ecx
    c0c0:	48 8b 05 e1 78 01 00 	mov    0x178e1(%rip),%rax        # 239a8 <g_106>
    c0c7:	09 ca                	or     %ecx,%edx
    c0c9:	89 10                	mov    %edx,(%rax)
    c0cb:	48 83 85 b0 ef ff ff 	addq   $0x1,-0x1050(%rbp)
    c0d2:	01 
    c0d3:	c7 05 5f 41 01 00 09 	movl   $0x9,0x1415f(%rip)        # 2023c <g_1614>
    c0da:	00 00 00 
    c0dd:	90                   	nop
    c0de:	8b 05 58 41 01 00    	mov    0x14158(%rip),%eax        # 2023c <g_1614>
    c0e4:	83 f8 02             	cmp    $0x2,%eax
    c0e7:	7e 3b                	jle    c124 <func_1+0x396f>
    c0e9:	8b 85 cc ed ff ff    	mov    -0x1234(%rbp),%eax
    c0ef:	0f b7 c0             	movzwl %ax,%eax
    c0f2:	be 00 00 00 00       	mov    $0x0,%esi
    c0f7:	89 c7                	mov    %eax,%edi
    c0f9:	e8 01 bc ff ff       	callq  7cff <safe_add_func_uint16_t_u_u>
    c0fe:	48 8b 95 08 ee ff ff 	mov    -0x11f8(%rbp),%rdx
    c105:	8b 0a                	mov    (%rdx),%ecx
    c107:	0f b7 d0             	movzwl %ax,%edx
    c10a:	48 8b 85 08 ee ff ff 	mov    -0x11f8(%rbp),%rax
    c111:	21 ca                	and    %ecx,%edx
    c113:	89 10                	mov    %edx,(%rax)
    c115:	48 8b 05 14 7c 01 00 	mov    0x17c14(%rip),%rax        # 23d30 <g_741>
    c11c:	48 8b 00             	mov    (%rax),%rax
    c11f:	e9 71 04 00 00       	jmpq   c595 <func_1+0x3de0>
    c124:	c6 85 22 ed ff ff 00 	movb   $0x0,-0x12de(%rbp)
    c12b:	e9 cc 02 00 00       	jmpq   c3fc <func_1+0x3c47>
    c130:	48 8d 05 59 32 01 00 	lea    0x13259(%rip),%rax        # 1f390 <g_481>
    c137:	48 89 85 b8 ef ff ff 	mov    %rax,-0x1048(%rbp)
    c13e:	48 8d 85 20 ee ff ff 	lea    -0x11e0(%rbp),%rax
    c145:	48 89 85 50 f7 ff ff 	mov    %rax,-0x8b0(%rbp)
    c14c:	48 8d 85 20 ee ff ff 	lea    -0x11e0(%rbp),%rax
    c153:	48 89 85 58 f7 ff ff 	mov    %rax,-0x8a8(%rbp)
    c15a:	48 8d 85 20 ee ff ff 	lea    -0x11e0(%rbp),%rax
    c161:	48 89 85 60 f7 ff ff 	mov    %rax,-0x8a0(%rbp)
    c168:	48 8d 85 20 ee ff ff 	lea    -0x11e0(%rbp),%rax
    c16f:	48 89 85 68 f7 ff ff 	mov    %rax,-0x898(%rbp)
    c176:	48 8d 85 20 ee ff ff 	lea    -0x11e0(%rbp),%rax
    c17d:	48 89 85 70 f7 ff ff 	mov    %rax,-0x890(%rbp)
    c184:	48 8d 85 20 ee ff ff 	lea    -0x11e0(%rbp),%rax
    c18b:	48 89 85 78 f7 ff ff 	mov    %rax,-0x888(%rbp)
    c192:	48 8d 85 20 ee ff ff 	lea    -0x11e0(%rbp),%rax
    c199:	48 89 85 80 f7 ff ff 	mov    %rax,-0x880(%rbp)
    c1a0:	48 8d 85 20 ee ff ff 	lea    -0x11e0(%rbp),%rax
    c1a7:	48 89 85 88 f7 ff ff 	mov    %rax,-0x878(%rbp)
    c1ae:	48 8d 85 20 ee ff ff 	lea    -0x11e0(%rbp),%rax
    c1b5:	48 89 85 90 f7 ff ff 	mov    %rax,-0x870(%rbp)
    c1bc:	48 8d 85 20 ee ff ff 	lea    -0x11e0(%rbp),%rax
    c1c3:	48 89 85 98 f7 ff ff 	mov    %rax,-0x868(%rbp)
    c1ca:	48 8d 85 20 ee ff ff 	lea    -0x11e0(%rbp),%rax
    c1d1:	48 89 85 a0 f7 ff ff 	mov    %rax,-0x860(%rbp)
    c1d8:	48 8d 85 20 ee ff ff 	lea    -0x11e0(%rbp),%rax
    c1df:	48 89 85 a8 f7 ff ff 	mov    %rax,-0x858(%rbp)
    c1e6:	c7 85 dc ed ff ff ff 	movl   $0xffffffff,-0x1224(%rbp)
    c1ed:	ff ff ff 
    c1f0:	c7 85 9c ed ff ff 00 	movl   $0x0,-0x1264(%rbp)
    c1f7:	00 00 00 
    c1fa:	eb 1a                	jmp    c216 <func_1+0x3a61>
    c1fc:	8b 85 9c ed ff ff    	mov    -0x1264(%rbp),%eax
    c202:	48 98                	cltq   
    c204:	c7 84 85 80 f0 ff ff 	movl   $0x351e0865,-0xf80(%rbp,%rax,4)
    c20b:	65 08 1e 35 
    c20f:	83 85 9c ed ff ff 01 	addl   $0x1,-0x1264(%rbp)
    c216:	83 bd 9c ed ff ff 05 	cmpl   $0x5,-0x1264(%rbp)
    c21d:	7e dd                	jle    c1fc <func_1+0x3a47>
    c21f:	b8 01 00 00 00       	mov    $0x1,%eax
    c224:	0f b6 d8             	movzbl %al,%ebx
    c227:	48 8b 85 e8 ed ff ff 	mov    -0x1218(%rbp),%rax
    c22e:	8b 00                	mov    (%rax),%eax
    c230:	44 0f b6 e0          	movzbl %al,%r12d
    c234:	0f b6 85 22 ed ff ff 	movzbl -0x12de(%rbp),%eax
    c23b:	0f be c0             	movsbl %al,%eax
    c23e:	8d 50 01             	lea    0x1(%rax),%edx
    c241:	8b 0d 51 2e 01 00    	mov    0x12e51(%rip),%ecx        # 1f098 <g_258>
    c247:	0f b6 85 22 ed ff ff 	movzbl -0x12de(%rbp),%eax
    c24e:	0f be c0             	movsbl %al,%eax
    c251:	48 98                	cltq   
    c253:	48 63 d2             	movslq %edx,%rdx
    c256:	89 c9                	mov    %ecx,%ecx
    c258:	48 01 ca             	add    %rcx,%rdx
    c25b:	48 c1 e2 02          	shl    $0x2,%rdx
    c25f:	48 01 d0             	add    %rdx,%rax
    c262:	48 8d 14 c5 00 00 00 	lea    0x0(,%rax,8),%rdx
    c269:	00 
    c26a:	48 8d 05 8f 7c 01 00 	lea    0x17c8f(%rip),%rax        # 23f00 <g_1085>
    c271:	48 8b 04 02          	mov    (%rdx,%rax,1),%rax
    c275:	48 85 c0             	test   %rax,%rax
    c278:	0f 94 c0             	sete   %al
    c27b:	0f b6 c0             	movzbl %al,%eax
    c27e:	be f7 ff 00 00       	mov    $0xfff7,%esi
    c283:	89 c7                	mov    %eax,%edi
    c285:	e8 b3 ba ff ff       	callq  7d3d <safe_mul_func_uint16_t_u_u>
    c28a:	0f b7 d0             	movzwl %ax,%edx
    c28d:	48 8b 05 4c 80 01 00 	mov    0x1804c(%rip),%rax        # 242e0 <g_1727>
    c294:	0f b6 00             	movzbl (%rax),%eax
    c297:	0f be c0             	movsbl %al,%eax
    c29a:	39 c2                	cmp    %eax,%edx
    c29c:	7d 07                	jge    c2a5 <func_1+0x3af0>
    c29e:	ba 04 00 00 00       	mov    $0x4,%edx
    c2a3:	eb 05                	jmp    c2aa <func_1+0x3af5>
    c2a5:	ba 05 00 00 00       	mov    $0x5,%edx
    c2aa:	8b 85 cc ed ff ff    	mov    -0x1234(%rbp),%eax
    c2b0:	0f b6 c0             	movzbl %al,%eax
    c2b3:	89 d6                	mov    %edx,%esi
    c2b5:	89 c7                	mov    %eax,%edi
    c2b7:	e8 d7 b8 ff ff       	callq  7b93 <safe_mul_func_uint8_t_u_u>
    c2bc:	be 05 00 00 00       	mov    $0x5,%esi
    c2c1:	bf 01 00 00 00       	mov    $0x1,%edi
    c2c6:	e8 f3 b9 ff ff       	callq  7cbe <safe_rshift_func_uint8_t_u_u>
    c2cb:	0f b6 d0             	movzbl %al,%edx
    c2ce:	8b 05 50 3f 01 00    	mov    0x13f50(%rip),%eax        # 20224 <g_1608+0x4>
    c2d4:	39 c2                	cmp    %eax,%edx
    c2d6:	0f 9e c0             	setle  %al
    c2d9:	0f b6 c0             	movzbl %al,%eax
    c2dc:	be bc 25 00 00       	mov    $0x25bc,%esi
    c2e1:	89 c7                	mov    %eax,%edi
    c2e3:	e8 0d b1 ff ff       	callq  73f5 <safe_mul_func_int16_t_s_s>
    c2e8:	66 3d f6 00          	cmp    $0xf6,%ax
    c2ec:	0f 9f c0             	setg   %al
    c2ef:	0f b6 c0             	movzbl %al,%eax
    c2f2:	44 89 e6             	mov    %r12d,%esi
    c2f5:	89 c7                	mov    %eax,%edi
    c2f7:	e8 7c b8 ff ff       	callq  7b78 <safe_sub_func_uint8_t_u_u>
    c2fc:	0f b6 c0             	movzbl %al,%eax
    c2ff:	89 de                	mov    %ebx,%esi
    c301:	89 c7                	mov    %eax,%edi
    c303:	e8 a6 b8 ff ff       	callq  7bae <safe_mod_func_uint8_t_u_u>
    c308:	0f b6 d0             	movzbl %al,%edx
    c30b:	48 8b 85 b8 ef ff ff 	mov    -0x1048(%rbp),%rax
    c312:	8b 00                	mov    (%rax),%eax
    c314:	8d 48 ff             	lea    -0x1(%rax),%ecx
    c317:	48 8b 85 b8 ef ff ff 	mov    -0x1048(%rbp),%rax
    c31e:	89 08                	mov    %ecx,(%rax)
    c320:	48 8b 85 b8 ef ff ff 	mov    -0x1048(%rbp),%rax
    c327:	8b 08                	mov    (%rax),%ecx
    c329:	48 8b 85 20 ee ff ff 	mov    -0x11e0(%rbp),%rax
    c330:	48 89 05 b1 7f 01 00 	mov    %rax,0x17fb1(%rip)        # 242e8 <g_1726>
    c337:	48 8b 05 aa 7f 01 00 	mov    0x17faa(%rip),%rax        # 242e8 <g_1726>
    c33e:	48 85 c0             	test   %rax,%rax
    c341:	0f 94 c0             	sete   %al
    c344:	0f b6 c0             	movzbl %al,%eax
    c347:	39 c1                	cmp    %eax,%ecx
    c349:	0f 94 c0             	sete   %al
    c34c:	0f b6 c0             	movzbl %al,%eax
    c34f:	89 d6                	mov    %edx,%esi
    c351:	89 c7                	mov    %eax,%edi
    c353:	e8 e5 b9 ff ff       	callq  7d3d <safe_mul_func_uint16_t_u_u>
    c358:	0f b7 d0             	movzwl %ax,%edx
    c35b:	8b 85 50 ed ff ff    	mov    -0x12b0(%rbp),%eax
    c361:	39 c2                	cmp    %eax,%edx
    c363:	0f 9d c0             	setge  %al
    c366:	0f b6 d0             	movzbl %al,%edx
    c369:	48 8b 85 88 f1 ff ff 	mov    -0xe78(%rbp),%rax
    c370:	48 85 c0             	test   %rax,%rax
    c373:	0f 94 c0             	sete   %al
    c376:	0f b6 c0             	movzbl %al,%eax
    c379:	89 d6                	mov    %edx,%esi
    c37b:	89 c7                	mov    %eax,%edi
    c37d:	e8 83 b2 ff ff       	callq  7605 <safe_sub_func_int32_t_s_s>
    c382:	85 c0                	test   %eax,%eax
    c384:	0f 94 c0             	sete   %al
    c387:	0f b6 d0             	movzbl %al,%edx
    c38a:	0f b7 05 17 30 01 00 	movzwl 0x13017(%rip),%eax        # 1f3a8 <g_550+0x8>
    c391:	c1 e0 07             	shl    $0x7,%eax
    c394:	66 c1 f8 07          	sar    $0x7,%ax
    c398:	89 c1                	mov    %eax,%ecx
    c39a:	89 d0                	mov    %edx,%eax
    c39c:	09 c8                	or     %ecx,%eax
    c39e:	c1 e0 07             	shl    $0x7,%eax
    c3a1:	66 c1 f8 07          	sar    $0x7,%ax
    c3a5:	66 25 ff 01          	and    $0x1ff,%ax
    c3a9:	89 c2                	mov    %eax,%edx
    c3ab:	0f b7 05 f6 2f 01 00 	movzwl 0x12ff6(%rip),%eax        # 1f3a8 <g_550+0x8>
    c3b2:	66 25 00 fe          	and    $0xfe00,%ax
    c3b6:	09 d0                	or     %edx,%eax
    c3b8:	66 89 05 e9 2f 01 00 	mov    %ax,0x12fe9(%rip)        # 1f3a8 <g_550+0x8>
    c3bf:	48 8b 85 e8 ed ff ff 	mov    -0x1218(%rbp),%rax
    c3c6:	8b 00                	mov    (%rax),%eax
    c3c8:	85 c0                	test   %eax,%eax
    c3ca:	75 41                	jne    c40d <func_1+0x3c58>
    c3cc:	48 83 ad 38 ee ff ff 	subq   $0x1,-0x11c8(%rbp)
    c3d3:	01 
    c3d4:	48 8b 05 dd 75 01 00 	mov    0x175dd(%rip),%rax        # 239b8 <g_113>
    c3db:	48 8b 00             	mov    (%rax),%rax
    c3de:	48 8b 10             	mov    (%rax),%rdx
    c3e1:	48 8b 85 e8 ed ff ff 	mov    -0x1218(%rbp),%rax
    c3e8:	8b 12                	mov    (%rdx),%edx
    c3ea:	89 10                	mov    %edx,(%rax)
    c3ec:	0f b6 85 22 ed ff ff 	movzbl -0x12de(%rbp),%eax
    c3f3:	83 c0 01             	add    $0x1,%eax
    c3f6:	88 85 22 ed ff ff    	mov    %al,-0x12de(%rbp)
    c3fc:	0f b6 85 22 ed ff ff 	movzbl -0x12de(%rbp),%eax
    c403:	84 c0                	test   %al,%al
    c405:	0f 8e 25 fd ff ff    	jle    c130 <func_1+0x397b>
    c40b:	eb 01                	jmp    c40e <func_1+0x3c59>
    c40d:	90                   	nop
    c40e:	8b 05 84 2c 01 00    	mov    0x12c84(%rip),%eax        # 1f098 <g_258>
    c414:	83 c0 01             	add    $0x1,%eax
    c417:	89 05 7b 2c 01 00    	mov    %eax,0x12c7b(%rip)        # 1f098 <g_258>
    c41d:	8b 05 75 2c 01 00    	mov    0x12c75(%rip),%eax        # 1f098 <g_258>
    c423:	85 c0                	test   %eax,%eax
    c425:	0f 84 ab fa ff ff    	je     bed6 <func_1+0x3721>
    c42b:	8b 05 b1 2d 01 00    	mov    0x12db1(%rip),%eax        # 1f1e2 <g_277+0x12>
    c431:	83 c0 01             	add    $0x1,%eax
    c434:	89 05 a8 2d 01 00    	mov    %eax,0x12da8(%rip)        # 1f1e2 <g_277+0x12>
    c43a:	8b 05 a2 2d 01 00    	mov    0x12da2(%rip),%eax        # 1f1e2 <g_277+0x12>
    c440:	85 c0                	test   %eax,%eax
    c442:	0f 84 ba e2 ff ff    	je     a702 <func_1+0x1f4d>
    c448:	eb 01                	jmp    c44b <func_1+0x3c96>
    c44a:	90                   	nop
    c44b:	48 8b 05 56 75 01 00 	mov    0x17556(%rip),%rax        # 239a8 <g_106>
    c452:	c7 00 01 00 00 00    	movl   $0x1,(%rax)
    c458:	8b 18                	mov    (%rax),%ebx
    c45a:	48 8b 85 40 ee ff ff 	mov    -0x11c0(%rbp),%rax
    c461:	0f b7 00             	movzwl (%rax),%eax
    c464:	8d 48 ff             	lea    -0x1(%rax),%ecx
    c467:	48 8b 95 40 ee ff ff 	mov    -0x11c0(%rbp),%rdx
    c46e:	66 89 0a             	mov    %cx,(%rdx)
    c471:	0f b7 c0             	movzwl %ax,%eax
    c474:	89 c6                	mov    %eax,%esi
    c476:	bf cc 5b 00 00       	mov    $0x5bcc,%edi
    c47b:	e8 7f b8 ff ff       	callq  7cff <safe_add_func_uint16_t_u_u>
    c480:	0f b6 c0             	movzbl %al,%eax
    c483:	be 01 00 00 00       	mov    $0x1,%esi
    c488:	89 c7                	mov    %eax,%edi
    c48a:	e8 bd b7 ff ff       	callq  7c4c <safe_lshift_func_uint8_t_u_u>
    c48f:	44 0f b6 e0          	movzbl %al,%r12d
    c493:	48 8b 85 70 ee ff ff 	mov    -0x1190(%rbp),%rax
    c49a:	48 8b 00             	mov    (%rax),%rax
    c49d:	c7 00 01 00 00 00    	movl   $0x1,(%rax)
    c4a3:	44 8b 28             	mov    (%rax),%r13d
    c4a6:	48 8b 85 a0 ee ff ff 	mov    -0x1160(%rbp),%rax
    c4ad:	89 c2                	mov    %eax,%edx
    c4af:	8b 85 d8 ef ff ff    	mov    -0x1028(%rbp),%eax
    c4b5:	89 d6                	mov    %edx,%esi
    c4b7:	89 c7                	mov    %eax,%edi
    c4b9:	e8 12 ba ff ff       	callq  7ed0 <safe_sub_func_uint32_t_u_u>
    c4be:	89 c2                	mov    %eax,%edx
    c4c0:	8b 85 54 ed ff ff    	mov    -0x12ac(%rbp),%eax
    c4c6:	89 c6                	mov    %eax,%esi
    c4c8:	89 d7                	mov    %edx,%edi
    c4ca:	e8 2e ba ff ff       	callq  7efd <safe_mod_func_uint32_t_u_u>
    c4cf:	44 31 e8             	xor    %r13d,%eax
    c4d2:	41 39 c4             	cmp    %eax,%r12d
    c4d5:	74 10                	je     c4e7 <func_1+0x3d32>
    c4d7:	83 bd 70 ed ff ff 00 	cmpl   $0x0,-0x1290(%rbp)
    c4de:	74 07                	je     c4e7 <func_1+0x3d32>
    c4e0:	ba 01 00 00 00       	mov    $0x1,%edx
    c4e5:	eb 05                	jmp    c4ec <func_1+0x3d37>
    c4e7:	ba 00 00 00 00       	mov    $0x0,%edx
    c4ec:	8b 85 44 ed ff ff    	mov    -0x12bc(%rbp),%eax
    c4f2:	39 c2                	cmp    %eax,%edx
    c4f4:	0f 9c c0             	setl   %al
    c4f7:	0f b6 c0             	movzbl %al,%eax
    c4fa:	09 d8                	or     %ebx,%eax
    c4fc:	21 85 58 ed ff ff    	and    %eax,-0x12a8(%rbp)
    c502:	c7 85 78 ed ff ff 00 	movl   $0x0,-0x1288(%rbp)
    c509:	00 00 00 
    c50c:	eb 61                	jmp    c56f <func_1+0x3dba>
    c50e:	c7 85 e0 ed ff ff aa 	movl   $0xcac19daa,-0x1220(%rbp)
    c515:	9d c1 ca 
    c518:	c7 85 e4 ed ff ff 01 	movl   $0x1,-0x121c(%rbp)
    c51f:	00 00 00 
    c522:	8b 85 e0 ed ff ff    	mov    -0x1220(%rbp),%eax
    c528:	89 85 e4 ed ff ff    	mov    %eax,-0x121c(%rbp)
    c52e:	48 8b 05 3b 3c 01 00 	mov    0x13c3b(%rip),%rax        # 20170 <g_1455+0x10>
    c535:	c1 e0 0b             	shl    $0xb,%eax
    c538:	c1 f8 0b             	sar    $0xb,%eax
    c53b:	0f b6 d0             	movzbl %al,%edx
    c53e:	8b 85 e4 ed ff ff    	mov    -0x121c(%rbp),%eax
    c544:	0f b6 c0             	movzbl %al,%eax
    c547:	89 d6                	mov    %edx,%esi
    c549:	89 c7                	mov    %eax,%edi
    c54b:	e8 5e b6 ff ff       	callq  7bae <safe_mod_func_uint8_t_u_u>
    c550:	0f b6 c0             	movzbl %al,%eax
    c553:	89 85 e4 ed ff ff    	mov    %eax,-0x121c(%rbp)
    c559:	48 8b 05 d0 7d 01 00 	mov    0x17dd0(%rip),%rax        # 24330 <g_1788>
    c560:	8b 95 e4 ed ff ff    	mov    -0x121c(%rbp),%edx
    c566:	89 10                	mov    %edx,(%rax)
    c568:	83 85 78 ed ff ff 01 	addl   $0x1,-0x1288(%rbp)
    c56f:	83 bd 78 ed ff ff 12 	cmpl   $0x12,-0x1288(%rbp)
    c576:	75 96                	jne    c50e <func_1+0x3d59>
    c578:	48 8b 85 e8 ed ff ff 	mov    -0x1218(%rbp),%rax
    c57f:	0f bf 95 2a ed ff ff 	movswl -0x12d6(%rbp),%edx
    c586:	89 10                	mov    %edx,(%rax)
    c588:	48 8b 05 a9 77 01 00 	mov    0x177a9(%rip),%rax        # 23d38 <g_740>
    c58f:	48 8b 00             	mov    (%rax),%rax
    c592:	48 8b 00             	mov    (%rax),%rax
    c595:	48 8b 5d c8          	mov    -0x38(%rbp),%rbx
    c599:	64 48 33 1c 25 28 00 	xor    %fs:0x28,%rbx
    c5a0:	00 00 
    c5a2:	74 05                	je     c5a9 <func_1+0x3df4>
    c5a4:	e8 c7 aa ff ff       	callq  7070 <__stack_chk_fail@plt>
    c5a9:	48 81 c4 c8 12 00 00 	add    $0x12c8,%rsp
    c5b0:	5b                   	pop    %rbx
    c5b1:	41 5c                	pop    %r12
    c5b3:	41 5d                	pop    %r13
    c5b5:	41 5e                	pop    %r14
    c5b7:	41 5f                	pop    %r15
    c5b9:	5d                   	pop    %rbp
    c5ba:	c3                   	retq   

000000000000c5bb <func_2>:
    c5bb:	f3 0f 1e fa          	endbr64 
    c5bf:	55                   	push   %rbp
    c5c0:	48 89 e5             	mov    %rsp,%rbp
    c5c3:	48 81 ec 20 07 00 00 	sub    $0x720,%rsp
    c5ca:	48 89 bd e8 f8 ff ff 	mov    %rdi,-0x718(%rbp)
    c5d1:	89 b5 e4 f8 ff ff    	mov    %esi,-0x71c(%rbp)
    c5d7:	89 d0                	mov    %edx,%eax
    c5d9:	88 85 e0 f8 ff ff    	mov    %al,-0x720(%rbp)
    c5df:	64 48 8b 04 25 28 00 	mov    %fs:0x28,%rax
    c5e6:	00 00 
    c5e8:	48 89 45 f8          	mov    %rax,-0x8(%rbp)
    c5ec:	31 c0                	xor    %eax,%eax
    c5ee:	66 c7 85 f2 f8 ff ff 	movw   $0xc191,-0x70e(%rbp)
    c5f5:	91 c1 
    c5f7:	48 c7 85 18 f9 ff ff 	movq   $0x0,-0x6e8(%rbp)
    c5fe:	00 00 00 00 
    c602:	48 c7 85 08 f9 ff ff 	movq   $0x0,-0x6f8(%rbp)
    c609:	00 00 00 00 
    c60d:	48 8d 85 08 f9 ff ff 	lea    -0x6f8(%rbp),%rax
    c614:	48 89 85 10 f9 ff ff 	mov    %rax,-0x6f0(%rbp)
    c61b:	48 8d 85 10 f9 ff ff 	lea    -0x6f0(%rbp),%rax
    c622:	48 89 85 20 f9 ff ff 	mov    %rax,-0x6e0(%rbp)
    c629:	c7 85 f4 f8 ff ff f7 	movl   $0xfffffff7,-0x70c(%rbp)
    c630:	ff ff ff 
    c633:	c7 85 f8 f8 ff ff 09 	movl   $0x38a84109,-0x708(%rbp)
    c63a:	41 a8 38 
    c63d:	c7 85 fc f8 ff ff a0 	movl   $0xed452aa0,-0x704(%rbp)
    c644:	2a 45 ed 
    c647:	48 8d 05 5a 73 01 00 	lea    0x1735a(%rip),%rax        # 239a8 <g_106>
    c64e:	48 89 85 28 f9 ff ff 	mov    %rax,-0x6d8(%rbp)
    c655:	48 8d 05 6a 2d 01 00 	lea    0x12d6a(%rip),%rax        # 1f3c6 <g_560+0x6>
    c65c:	48 89 85 30 f9 ff ff 	mov    %rax,-0x6d0(%rbp)
    c663:	48 8d 05 7c 37 01 00 	lea    0x1377c(%rip),%rax        # 1fde6 <g_1133+0x6>
    c66a:	48 89 85 38 f9 ff ff 	mov    %rax,-0x6c8(%rbp)
    c671:	48 c7 85 40 f9 ff ff 	movq   $0x0,-0x6c0(%rbp)
    c678:	00 00 00 00 
    c67c:	48 c7 85 48 f9 ff ff 	movq   $0x0,-0x6b8(%rbp)
    c683:	00 00 00 00 
    c687:	48 8d 05 ca 29 01 00 	lea    0x129ca(%rip),%rax        # 1f058 <g_45>
    c68e:	48 89 85 50 f9 ff ff 	mov    %rax,-0x6b0(%rbp)
    c695:	48 8d 05 bc 29 01 00 	lea    0x129bc(%rip),%rax        # 1f058 <g_45>
    c69c:	48 89 85 58 f9 ff ff 	mov    %rax,-0x6a8(%rbp)
    c6a3:	48 c7 85 60 f9 ff ff 	movq   $0x0,-0x6a0(%rbp)
    c6aa:	00 00 00 00 
    c6ae:	48 8d 05 a1 37 01 00 	lea    0x137a1(%rip),%rax        # 1fe56 <g_1334+0x6>
    c6b5:	48 89 85 68 f9 ff ff 	mov    %rax,-0x698(%rbp)
    c6bc:	48 8d 05 03 2d 01 00 	lea    0x12d03(%rip),%rax        # 1f3c6 <g_560+0x6>
    c6c3:	48 89 85 70 f9 ff ff 	mov    %rax,-0x690(%rbp)
    c6ca:	48 8d 05 7f 29 01 00 	lea    0x1297f(%rip),%rax        # 1f050 <g_41>
    c6d1:	48 89 85 78 f9 ff ff 	mov    %rax,-0x688(%rbp)
    c6d8:	48 8d 85 f8 f8 ff ff 	lea    -0x708(%rbp),%rax
    c6df:	48 89 85 80 f9 ff ff 	mov    %rax,-0x680(%rbp)
    c6e6:	48 8d 05 eb 36 01 00 	lea    0x136eb(%rip),%rax        # 1fdd8 <g_1131>
    c6ed:	48 89 85 88 f9 ff ff 	mov    %rax,-0x678(%rbp)
    c6f4:	48 8d 05 e1 36 01 00 	lea    0x136e1(%rip),%rax        # 1fddc <g_1131+0x4>
    c6fb:	48 89 85 90 f9 ff ff 	mov    %rax,-0x670(%rbp)
    c702:	48 8d 85 f4 f8 ff ff 	lea    -0x70c(%rbp),%rax
    c709:	48 89 85 98 f9 ff ff 	mov    %rax,-0x668(%rbp)
    c710:	48 c7 85 a0 f9 ff ff 	movq   $0x0,-0x660(%rbp)
    c717:	00 00 00 00 
    c71b:	48 8d 05 36 29 01 00 	lea    0x12936(%rip),%rax        # 1f058 <g_45>
    c722:	48 89 85 a8 f9 ff ff 	mov    %rax,-0x658(%rbp)
    c729:	48 c7 85 b0 f9 ff ff 	movq   $0x0,-0x650(%rbp)
    c730:	00 00 00 00 
    c734:	48 8d 05 1d 29 01 00 	lea    0x1291d(%rip),%rax        # 1f058 <g_45>
    c73b:	48 89 85 b8 f9 ff ff 	mov    %rax,-0x648(%rbp)
    c742:	48 8d 85 f8 f8 ff ff 	lea    -0x708(%rbp),%rax
    c749:	48 89 85 c0 f9 ff ff 	mov    %rax,-0x640(%rbp)
    c750:	48 c7 85 c8 f9 ff ff 	movq   $0x0,-0x638(%rbp)
    c757:	00 00 00 00 
    c75b:	48 c7 85 d0 f9 ff ff 	movq   $0x0,-0x630(%rbp)
    c762:	00 00 00 00 
    c766:	48 8d 05 79 36 01 00 	lea    0x13679(%rip),%rax        # 1fde6 <g_1133+0x6>
    c76d:	48 89 85 d8 f9 ff ff 	mov    %rax,-0x628(%rbp)
    c774:	48 c7 85 e0 f9 ff ff 	movq   $0x0,-0x620(%rbp)
    c77b:	00 00 00 00 
    c77f:	48 c7 85 e8 f9 ff ff 	movq   $0x0,-0x618(%rbp)
    c786:	00 00 00 00 
    c78a:	48 8d 05 4b 36 01 00 	lea    0x1364b(%rip),%rax        # 1fddc <g_1131+0x4>
    c791:	48 89 85 f0 f9 ff ff 	mov    %rax,-0x610(%rbp)
    c798:	48 c7 85 f8 f9 ff ff 	movq   $0x0,-0x608(%rbp)
    c79f:	00 00 00 00 
    c7a3:	48 c7 85 00 fa ff ff 	movq   $0x0,-0x600(%rbp)
    c7aa:	00 00 00 00 
    c7ae:	48 c7 85 08 fa ff ff 	movq   $0x0,-0x5f8(%rbp)
    c7b5:	00 00 00 00 
    c7b9:	48 8d 85 f8 f8 ff ff 	lea    -0x708(%rbp),%rax
    c7c0:	48 89 85 10 fa ff ff 	mov    %rax,-0x5f0(%rbp)
    c7c7:	48 8d 05 18 36 01 00 	lea    0x13618(%rip),%rax        # 1fde6 <g_1133+0x6>
    c7ce:	48 89 85 18 fa ff ff 	mov    %rax,-0x5e8(%rbp)
    c7d5:	48 c7 85 20 fa ff ff 	movq   $0x0,-0x5e0(%rbp)
    c7dc:	00 00 00 00 
    c7e0:	48 c7 85 28 fa ff ff 	movq   $0x0,-0x5d8(%rbp)
    c7e7:	00 00 00 00 
    c7eb:	48 c7 85 30 fa ff ff 	movq   $0x0,-0x5d0(%rbp)
    c7f2:	00 00 00 00 
    c7f6:	48 8d 05 5b 28 01 00 	lea    0x1285b(%rip),%rax        # 1f058 <g_45>
    c7fd:	48 89 85 38 fa ff ff 	mov    %rax,-0x5c8(%rbp)
    c804:	48 8d 05 45 28 01 00 	lea    0x12845(%rip),%rax        # 1f050 <g_41>
    c80b:	48 89 85 40 fa ff ff 	mov    %rax,-0x5c0(%rbp)
    c812:	48 8d 05 3f 28 01 00 	lea    0x1283f(%rip),%rax        # 1f058 <g_45>
    c819:	48 89 85 48 fa ff ff 	mov    %rax,-0x5b8(%rbp)
    c820:	48 8d 05 9f 2b 01 00 	lea    0x12b9f(%rip),%rax        # 1f3c6 <g_560+0x6>
    c827:	48 89 85 50 fa ff ff 	mov    %rax,-0x5b0(%rbp)
    c82e:	48 8d 85 f4 f8 ff ff 	lea    -0x70c(%rbp),%rax
    c835:	48 89 85 58 fa ff ff 	mov    %rax,-0x5a8(%rbp)
    c83c:	48 c7 85 60 fa ff ff 	movq   $0x0,-0x5a0(%rbp)
    c843:	00 00 00 00 
    c847:	48 8d 05 8a 35 01 00 	lea    0x1358a(%rip),%rax        # 1fdd8 <g_1131>
    c84e:	48 89 85 68 fa ff ff 	mov    %rax,-0x598(%rbp)
    c855:	48 8d 85 fc f8 ff ff 	lea    -0x704(%rbp),%rax
    c85c:	48 89 85 70 fa ff ff 	mov    %rax,-0x590(%rbp)
    c863:	48 8d 05 e6 27 01 00 	lea    0x127e6(%rip),%rax        # 1f050 <g_41>
    c86a:	48 89 85 78 fa ff ff 	mov    %rax,-0x588(%rbp)
    c871:	48 c7 85 80 fa ff ff 	movq   $0x0,-0x580(%rbp)
    c878:	00 00 00 00 
    c87c:	48 8d 05 d3 35 01 00 	lea    0x135d3(%rip),%rax        # 1fe56 <g_1334+0x6>
    c883:	48 89 85 88 fa ff ff 	mov    %rax,-0x578(%rbp)
    c88a:	48 c7 85 90 fa ff ff 	movq   $0x0,-0x570(%rbp)
    c891:	00 00 00 00 
    c895:	48 8d 05 bc 27 01 00 	lea    0x127bc(%rip),%rax        # 1f058 <g_45>
    c89c:	48 89 85 98 fa ff ff 	mov    %rax,-0x568(%rbp)
    c8a3:	48 8d 05 b2 27 01 00 	lea    0x127b2(%rip),%rax        # 1f05c <g_49>
    c8aa:	48 89 85 a0 fa ff ff 	mov    %rax,-0x560(%rbp)
    c8b1:	48 c7 85 a8 fa ff ff 	movq   $0x0,-0x558(%rbp)
    c8b8:	00 00 00 00 
    c8bc:	48 c7 85 b0 fa ff ff 	movq   $0x0,-0x550(%rbp)
    c8c3:	00 00 00 00 
    c8c7:	48 8d 05 18 35 01 00 	lea    0x13518(%rip),%rax        # 1fde6 <g_1133+0x6>
    c8ce:	48 89 85 b8 fa ff ff 	mov    %rax,-0x548(%rbp)
    c8d5:	48 c7 85 c0 fa ff ff 	movq   $0x0,-0x540(%rbp)
    c8dc:	00 00 00 00 
    c8e0:	48 c7 85 c8 fa ff ff 	movq   $0x0,-0x538(%rbp)
    c8e7:	00 00 00 00 
    c8eb:	48 8d 85 fc f8 ff ff 	lea    -0x704(%rbp),%rax
    c8f2:	48 89 85 d0 fa ff ff 	mov    %rax,-0x530(%rbp)
    c8f9:	48 c7 85 d8 fa ff ff 	movq   $0x0,-0x528(%rbp)
    c900:	00 00 00 00 
    c904:	48 c7 85 e0 fa ff ff 	movq   $0x0,-0x520(%rbp)
    c90b:	00 00 00 00 
    c90f:	48 8d 05 1a 34 01 00 	lea    0x1341a(%rip),%rax        # 1fd30 <g_660>
    c916:	48 89 85 e8 fa ff ff 	mov    %rax,-0x518(%rbp)
    c91d:	48 8d 05 a2 2a 01 00 	lea    0x12aa2(%rip),%rax        # 1f3c6 <g_560+0x6>
    c924:	48 89 85 f0 fa ff ff 	mov    %rax,-0x510(%rbp)
    c92b:	48 8d 05 b4 34 01 00 	lea    0x134b4(%rip),%rax        # 1fde6 <g_1133+0x6>
    c932:	48 89 85 f8 fa ff ff 	mov    %rax,-0x508(%rbp)
    c939:	48 8d 05 10 27 01 00 	lea    0x12710(%rip),%rax        # 1f050 <g_41>
    c940:	48 89 85 00 fb ff ff 	mov    %rax,-0x500(%rbp)
    c947:	48 c7 85 08 fb ff ff 	movq   $0x0,-0x4f8(%rbp)
    c94e:	00 00 00 00 
    c952:	48 c7 85 10 fb ff ff 	movq   $0x0,-0x4f0(%rbp)
    c959:	00 00 00 00 
    c95d:	48 8d 05 f2 34 01 00 	lea    0x134f2(%rip),%rax        # 1fe56 <g_1334+0x6>
    c964:	48 89 85 18 fb ff ff 	mov    %rax,-0x4e8(%rbp)
    c96b:	48 c7 85 20 fb ff ff 	movq   $0x0,-0x4e0(%rbp)
    c972:	00 00 00 00 
    c976:	48 8d 05 db 26 01 00 	lea    0x126db(%rip),%rax        # 1f058 <g_45>
    c97d:	48 89 85 28 fb ff ff 	mov    %rax,-0x4d8(%rbp)
    c984:	48 8d 85 f8 f8 ff ff 	lea    -0x708(%rbp),%rax
    c98b:	48 89 85 30 fb ff ff 	mov    %rax,-0x4d0(%rbp)
    c992:	48 8d 05 b7 26 01 00 	lea    0x126b7(%rip),%rax        # 1f050 <g_41>
    c999:	48 89 85 38 fb ff ff 	mov    %rax,-0x4c8(%rbp)
    c9a0:	48 c7 85 40 fb ff ff 	movq   $0x0,-0x4c0(%rbp)
    c9a7:	00 00 00 00 
    c9ab:	48 8d 05 64 33 01 00 	lea    0x13364(%rip),%rax        # 1fd16 <g_611+0x6>
    c9b2:	48 89 85 48 fb ff ff 	mov    %rax,-0x4b8(%rbp)
    c9b9:	48 8d 05 1c 34 01 00 	lea    0x1341c(%rip),%rax        # 1fddc <g_1131+0x4>
    c9c0:	48 89 85 50 fb ff ff 	mov    %rax,-0x4b0(%rbp)
    c9c7:	48 8d 05 82 26 01 00 	lea    0x12682(%rip),%rax        # 1f050 <g_41>
    c9ce:	48 89 85 58 fb ff ff 	mov    %rax,-0x4a8(%rbp)
    c9d5:	48 c7 85 60 fb ff ff 	movq   $0x0,-0x4a0(%rbp)
    c9dc:	00 00 00 00 
    c9e0:	48 8d 05 71 26 01 00 	lea    0x12671(%rip),%rax        # 1f058 <g_45>
    c9e7:	48 89 85 68 fb ff ff 	mov    %rax,-0x498(%rbp)
    c9ee:	48 c7 85 70 fb ff ff 	movq   $0x0,-0x490(%rbp)
    c9f5:	00 00 00 00 
    c9f9:	48 8d 05 56 34 01 00 	lea    0x13456(%rip),%rax        # 1fe56 <g_1334+0x6>
    ca00:	48 89 85 78 fb ff ff 	mov    %rax,-0x488(%rbp)
    ca07:	48 8d 85 f8 f8 ff ff 	lea    -0x708(%rbp),%rax
    ca0e:	48 89 85 80 fb ff ff 	mov    %rax,-0x480(%rbp)
    ca15:	48 c7 85 88 fb ff ff 	movq   $0x0,-0x478(%rbp)
    ca1c:	00 00 00 00 
    ca20:	48 c7 85 90 fb ff ff 	movq   $0x0,-0x470(%rbp)
    ca27:	00 00 00 00 
    ca2b:	48 8d 05 b4 33 01 00 	lea    0x133b4(%rip),%rax        # 1fde6 <g_1133+0x6>
    ca32:	48 89 85 98 fb ff ff 	mov    %rax,-0x468(%rbp)
    ca39:	48 c7 85 a0 fb ff ff 	movq   $0x0,-0x460(%rbp)
    ca40:	00 00 00 00 
    ca44:	48 8d 05 e5 32 01 00 	lea    0x132e5(%rip),%rax        # 1fd30 <g_660>
    ca4b:	48 89 85 a8 fb ff ff 	mov    %rax,-0x458(%rbp)
    ca52:	48 8d 05 83 33 01 00 	lea    0x13383(%rip),%rax        # 1fddc <g_1131+0x4>
    ca59:	48 89 85 b0 fb ff ff 	mov    %rax,-0x450(%rbp)
    ca60:	48 c7 85 b8 fb ff ff 	movq   $0x0,-0x448(%rbp)
    ca67:	00 00 00 00 
    ca6b:	48 8d 85 f8 f8 ff ff 	lea    -0x708(%rbp),%rax
    ca72:	48 89 85 c0 fb ff ff 	mov    %rax,-0x440(%rbp)
    ca79:	48 c7 85 c8 fb ff ff 	movq   $0x0,-0x438(%rbp)
    ca80:	00 00 00 00 
    ca84:	48 8d 05 3b 29 01 00 	lea    0x1293b(%rip),%rax        # 1f3c6 <g_560+0x6>
    ca8b:	48 89 85 d0 fb ff ff 	mov    %rax,-0x430(%rbp)
    ca92:	48 8d 85 f8 f8 ff ff 	lea    -0x708(%rbp),%rax
    ca99:	48 89 85 d8 fb ff ff 	mov    %rax,-0x428(%rbp)
    caa0:	48 8d 05 b5 25 01 00 	lea    0x125b5(%rip),%rax        # 1f05c <g_49>
    caa7:	48 89 85 e0 fb ff ff 	mov    %rax,-0x420(%rbp)
    caae:	48 8d 05 7b 32 01 00 	lea    0x1327b(%rip),%rax        # 1fd30 <g_660>
    cab5:	48 89 85 e8 fb ff ff 	mov    %rax,-0x418(%rbp)
    cabc:	48 8d 85 f8 f8 ff ff 	lea    -0x708(%rbp),%rax
    cac3:	48 89 85 f0 fb ff ff 	mov    %rax,-0x410(%rbp)
    caca:	48 8d 85 f4 f8 ff ff 	lea    -0x70c(%rbp),%rax
    cad1:	48 89 85 f8 fb ff ff 	mov    %rax,-0x408(%rbp)
    cad8:	48 8d 05 7d 25 01 00 	lea    0x1257d(%rip),%rax        # 1f05c <g_49>
    cadf:	48 89 85 00 fc ff ff 	mov    %rax,-0x400(%rbp)
    cae6:	48 8d 05 eb 32 01 00 	lea    0x132eb(%rip),%rax        # 1fdd8 <g_1131>
    caed:	48 89 85 08 fc ff ff 	mov    %rax,-0x3f8(%rbp)
    caf4:	48 8d 05 dd 32 01 00 	lea    0x132dd(%rip),%rax        # 1fdd8 <g_1131>
    cafb:	48 89 85 10 fc ff ff 	mov    %rax,-0x3f0(%rbp)
    cb02:	48 c7 85 18 fc ff ff 	movq   $0x0,-0x3e8(%rbp)
    cb09:	00 00 00 00 
    cb0d:	48 8d 05 48 25 01 00 	lea    0x12548(%rip),%rax        # 1f05c <g_49>
    cb14:	48 89 85 20 fc ff ff 	mov    %rax,-0x3e0(%rbp)
    cb1b:	48 8d 05 c4 32 01 00 	lea    0x132c4(%rip),%rax        # 1fde6 <g_1133+0x6>
    cb22:	48 89 85 28 fc ff ff 	mov    %rax,-0x3d8(%rbp)
    cb29:	48 c7 85 30 fc ff ff 	movq   $0x0,-0x3d0(%rbp)
    cb30:	00 00 00 00 
    cb34:	48 8d 05 15 25 01 00 	lea    0x12515(%rip),%rax        # 1f050 <g_41>
    cb3b:	48 89 85 38 fc ff ff 	mov    %rax,-0x3c8(%rbp)
    cb42:	48 8d 05 cf 32 01 00 	lea    0x132cf(%rip),%rax        # 1fe18 <g_1218>
    cb49:	48 89 85 40 fc ff ff 	mov    %rax,-0x3c0(%rbp)
    cb50:	48 8d 85 f4 f8 ff ff 	lea    -0x70c(%rbp),%rax
    cb57:	48 89 85 48 fc ff ff 	mov    %rax,-0x3b8(%rbp)
    cb5e:	48 8d 05 b3 32 01 00 	lea    0x132b3(%rip),%rax        # 1fe18 <g_1218>
    cb65:	48 89 85 50 fc ff ff 	mov    %rax,-0x3b0(%rbp)
    cb6c:	48 8d 85 f4 f8 ff ff 	lea    -0x70c(%rbp),%rax
    cb73:	48 89 85 58 fc ff ff 	mov    %rax,-0x3a8(%rbp)
    cb7a:	48 8d 05 5b 32 01 00 	lea    0x1325b(%rip),%rax        # 1fddc <g_1131+0x4>
    cb81:	48 89 85 60 fc ff ff 	mov    %rax,-0x3a0(%rbp)
    cb88:	48 8d 05 87 31 01 00 	lea    0x13187(%rip),%rax        # 1fd16 <g_611+0x6>
    cb8f:	48 89 85 68 fc ff ff 	mov    %rax,-0x398(%rbp)
    cb96:	48 8d 05 bb 24 01 00 	lea    0x124bb(%rip),%rax        # 1f058 <g_45>
    cb9d:	48 89 85 70 fc ff ff 	mov    %rax,-0x390(%rbp)
    cba4:	48 8d 05 31 32 01 00 	lea    0x13231(%rip),%rax        # 1fddc <g_1131+0x4>
    cbab:	48 89 85 78 fc ff ff 	mov    %rax,-0x388(%rbp)
    cbb2:	48 c7 85 80 fc ff ff 	movq   $0x0,-0x380(%rbp)
    cbb9:	00 00 00 00 
    cbbd:	48 8d 05 52 31 01 00 	lea    0x13152(%rip),%rax        # 1fd16 <g_611+0x6>
    cbc4:	48 89 85 88 fc ff ff 	mov    %rax,-0x378(%rbp)
    cbcb:	48 c7 85 90 fc ff ff 	movq   $0x0,-0x370(%rbp)
    cbd2:	00 00 00 00 
    cbd6:	48 8d 05 39 31 01 00 	lea    0x13139(%rip),%rax        # 1fd16 <g_611+0x6>
    cbdd:	48 89 85 98 fc ff ff 	mov    %rax,-0x368(%rbp)
    cbe4:	48 8d 05 65 24 01 00 	lea    0x12465(%rip),%rax        # 1f050 <g_41>
    cbeb:	48 89 85 a0 fc ff ff 	mov    %rax,-0x360(%rbp)
    cbf2:	48 8d 05 1d 31 01 00 	lea    0x1311d(%rip),%rax        # 1fd16 <g_611+0x6>
    cbf9:	48 89 85 a8 fc ff ff 	mov    %rax,-0x358(%rbp)
    cc00:	48 8d 05 d5 31 01 00 	lea    0x131d5(%rip),%rax        # 1fddc <g_1131+0x4>
    cc07:	48 89 85 b0 fc ff ff 	mov    %rax,-0x350(%rbp)
    cc0e:	48 8d 05 c7 31 01 00 	lea    0x131c7(%rip),%rax        # 1fddc <g_1131+0x4>
    cc15:	48 89 85 b8 fc ff ff 	mov    %rax,-0x348(%rbp)
    cc1c:	48 8d 05 39 24 01 00 	lea    0x12439(%rip),%rax        # 1f05c <g_49>
    cc23:	48 89 85 c0 fc ff ff 	mov    %rax,-0x340(%rbp)
    cc2a:	48 8d 05 e5 30 01 00 	lea    0x130e5(%rip),%rax        # 1fd16 <g_611+0x6>
    cc31:	48 89 85 c8 fc ff ff 	mov    %rax,-0x338(%rbp)
    cc38:	48 c7 85 d0 fc ff ff 	movq   $0x0,-0x330(%rbp)
    cc3f:	00 00 00 00 
    cc43:	48 8d 85 f4 f8 ff ff 	lea    -0x70c(%rbp),%rax
    cc4a:	48 89 85 d8 fc ff ff 	mov    %rax,-0x328(%rbp)
    cc51:	48 8d 05 6e 27 01 00 	lea    0x1276e(%rip),%rax        # 1f3c6 <g_560+0x6>
    cc58:	48 89 85 e0 fc ff ff 	mov    %rax,-0x320(%rbp)
    cc5f:	48 8d 85 f4 f8 ff ff 	lea    -0x70c(%rbp),%rax
    cc66:	48 89 85 e8 fc ff ff 	mov    %rax,-0x318(%rbp)
    cc6d:	48 8d 05 64 31 01 00 	lea    0x13164(%rip),%rax        # 1fdd8 <g_1131>
    cc74:	48 89 85 f0 fc ff ff 	mov    %rax,-0x310(%rbp)
    cc7b:	48 8d 05 ce 23 01 00 	lea    0x123ce(%rip),%rax        # 1f050 <g_41>
    cc82:	48 89 85 f8 fc ff ff 	mov    %rax,-0x308(%rbp)
    cc89:	48 8d 05 c0 23 01 00 	lea    0x123c0(%rip),%rax        # 1f050 <g_41>
    cc90:	48 89 85 00 fd ff ff 	mov    %rax,-0x300(%rbp)
    cc97:	48 8d 05 48 31 01 00 	lea    0x13148(%rip),%rax        # 1fde6 <g_1133+0x6>
    cc9e:	48 89 85 08 fd ff ff 	mov    %rax,-0x2f8(%rbp)
    cca5:	48 c7 85 10 fd ff ff 	movq   $0x0,-0x2f0(%rbp)
    ccac:	00 00 00 00 
    ccb0:	48 c7 85 18 fd ff ff 	movq   $0x0,-0x2e8(%rbp)
    ccb7:	00 00 00 00 
    ccbb:	48 8d 05 56 31 01 00 	lea    0x13156(%rip),%rax        # 1fe18 <g_1218>
    ccc2:	48 89 85 20 fd ff ff 	mov    %rax,-0x2e0(%rbp)
    ccc9:	48 8d 05 08 31 01 00 	lea    0x13108(%rip),%rax        # 1fdd8 <g_1131>
    ccd0:	48 89 85 28 fd ff ff 	mov    %rax,-0x2d8(%rbp)
    ccd7:	48 8d 05 7a 23 01 00 	lea    0x1237a(%rip),%rax        # 1f058 <g_45>
    ccde:	48 89 85 30 fd ff ff 	mov    %rax,-0x2d0(%rbp)
    cce5:	48 8d 85 f4 f8 ff ff 	lea    -0x70c(%rbp),%rax
    ccec:	48 89 85 38 fd ff ff 	mov    %rax,-0x2c8(%rbp)
    ccf3:	48 8d 05 ba 24 01 00 	lea    0x124ba(%rip),%rax        # 1f1b4 <g_264+0x114>
    ccfa:	48 89 85 40 fd ff ff 	mov    %rax,-0x2c0(%rbp)
    cd01:	48 8d 05 28 30 01 00 	lea    0x13028(%rip),%rax        # 1fd30 <g_660>
    cd08:	48 89 85 48 fd ff ff 	mov    %rax,-0x2b8(%rbp)
    cd0f:	48 8d 05 42 23 01 00 	lea    0x12342(%rip),%rax        # 1f058 <g_45>
    cd16:	48 89 85 50 fd ff ff 	mov    %rax,-0x2b0(%rbp)
    cd1d:	48 8d 85 f8 f8 ff ff 	lea    -0x708(%rbp),%rax
    cd24:	48 89 85 58 fd ff ff 	mov    %rax,-0x2a8(%rbp)
    cd2b:	48 8d 05 e6 30 01 00 	lea    0x130e6(%rip),%rax        # 1fe18 <g_1218>
    cd32:	48 89 85 60 fd ff ff 	mov    %rax,-0x2a0(%rbp)
    cd39:	48 8d 05 d6 2f 01 00 	lea    0x12fd6(%rip),%rax        # 1fd16 <g_611+0x6>
    cd40:	48 89 85 68 fd ff ff 	mov    %rax,-0x298(%rbp)
    cd47:	48 c7 85 70 fd ff ff 	movq   $0x0,-0x290(%rbp)
    cd4e:	00 00 00 00 
    cd52:	48 8d 05 d7 2f 01 00 	lea    0x12fd7(%rip),%rax        # 1fd30 <g_660>
    cd59:	48 89 85 78 fd ff ff 	mov    %rax,-0x288(%rbp)
    cd60:	48 8d 05 e9 22 01 00 	lea    0x122e9(%rip),%rax        # 1f050 <g_41>
    cd67:	48 89 85 80 fd ff ff 	mov    %rax,-0x280(%rbp)
    cd6e:	48 8d 05 e1 30 01 00 	lea    0x130e1(%rip),%rax        # 1fe56 <g_1334+0x6>
    cd75:	48 89 85 88 fd ff ff 	mov    %rax,-0x278(%rbp)
    cd7c:	48 8d 05 55 30 01 00 	lea    0x13055(%rip),%rax        # 1fdd8 <g_1131>
    cd83:	48 89 85 90 fd ff ff 	mov    %rax,-0x270(%rbp)
    cd8a:	48 8d 05 4b 30 01 00 	lea    0x1304b(%rip),%rax        # 1fddc <g_1131+0x4>
    cd91:	48 89 85 98 fd ff ff 	mov    %rax,-0x268(%rbp)
    cd98:	48 8d 05 27 26 01 00 	lea    0x12627(%rip),%rax        # 1f3c6 <g_560+0x6>
    cd9f:	48 89 85 a0 fd ff ff 	mov    %rax,-0x260(%rbp)
    cda6:	48 8d 05 83 2f 01 00 	lea    0x12f83(%rip),%rax        # 1fd30 <g_660>
    cdad:	48 89 85 a8 fd ff ff 	mov    %rax,-0x258(%rbp)
    cdb4:	48 c7 85 b0 fd ff ff 	movq   $0x0,-0x250(%rbp)
    cdbb:	00 00 00 00 
    cdbf:	48 8d 05 12 30 01 00 	lea    0x13012(%rip),%rax        # 1fdd8 <g_1131>
    cdc6:	48 89 85 b8 fd ff ff 	mov    %rax,-0x248(%rbp)
    cdcd:	48 8d 05 88 22 01 00 	lea    0x12288(%rip),%rax        # 1f05c <g_49>
    cdd4:	48 89 85 c0 fd ff ff 	mov    %rax,-0x240(%rbp)
    cddb:	48 8d 85 f4 f8 ff ff 	lea    -0x70c(%rbp),%rax
    cde2:	48 89 85 c8 fd ff ff 	mov    %rax,-0x238(%rbp)
    cde9:	48 8d 05 ec 2f 01 00 	lea    0x12fec(%rip),%rax        # 1fddc <g_1131+0x4>
    cdf0:	48 89 85 d0 fd ff ff 	mov    %rax,-0x230(%rbp)
    cdf7:	48 c7 85 d8 fd ff ff 	movq   $0x0,-0x228(%rbp)
    cdfe:	00 00 00 00 
    ce02:	48 8d 05 47 22 01 00 	lea    0x12247(%rip),%rax        # 1f050 <g_41>
    ce09:	48 89 85 e0 fd ff ff 	mov    %rax,-0x220(%rbp)
    ce10:	48 8d 05 c5 2f 01 00 	lea    0x12fc5(%rip),%rax        # 1fddc <g_1131+0x4>
    ce17:	48 89 85 e8 fd ff ff 	mov    %rax,-0x218(%rbp)
    ce1e:	48 c7 85 f0 fd ff ff 	movq   $0x0,-0x210(%rbp)
    ce25:	00 00 00 00 
    ce29:	48 c7 85 f8 fd ff ff 	movq   $0x0,-0x208(%rbp)
    ce30:	00 00 00 00 
    ce34:	48 c7 85 00 fe ff ff 	movq   $0x0,-0x200(%rbp)
    ce3b:	00 00 00 00 
    ce3f:	48 8d 85 f4 f8 ff ff 	lea    -0x70c(%rbp),%rax
    ce46:	48 89 85 08 fe ff ff 	mov    %rax,-0x1f8(%rbp)
    ce4d:	48 8d 05 04 22 01 00 	lea    0x12204(%rip),%rax        # 1f058 <g_45>
    ce54:	48 89 85 10 fe ff ff 	mov    %rax,-0x1f0(%rbp)
    ce5b:	48 8d 05 76 2f 01 00 	lea    0x12f76(%rip),%rax        # 1fdd8 <g_1131>
    ce62:	48 89 85 18 fe ff ff 	mov    %rax,-0x1e8(%rbp)
    ce69:	48 8d 05 6c 2f 01 00 	lea    0x12f6c(%rip),%rax        # 1fddc <g_1131+0x4>
    ce70:	48 89 85 20 fe ff ff 	mov    %rax,-0x1e0(%rbp)
    ce77:	48 8d 05 b2 2e 01 00 	lea    0x12eb2(%rip),%rax        # 1fd30 <g_660>
    ce7e:	48 89 85 28 fe ff ff 	mov    %rax,-0x1d8(%rbp)
    ce85:	48 8d 05 8c 2f 01 00 	lea    0x12f8c(%rip),%rax        # 1fe18 <g_1218>
    ce8c:	48 89 85 30 fe ff ff 	mov    %rax,-0x1d0(%rbp)
    ce93:	48 8d 05 42 2f 01 00 	lea    0x12f42(%rip),%rax        # 1fddc <g_1131+0x4>
    ce9a:	48 89 85 38 fe ff ff 	mov    %rax,-0x1c8(%rbp)
    cea1:	48 8d 05 70 2f 01 00 	lea    0x12f70(%rip),%rax        # 1fe18 <g_1218>
    cea8:	48 89 85 40 fe ff ff 	mov    %rax,-0x1c0(%rbp)
    ceaf:	48 8d 05 a0 2f 01 00 	lea    0x12fa0(%rip),%rax        # 1fe56 <g_1334+0x6>
    ceb6:	48 89 85 48 fe ff ff 	mov    %rax,-0x1b8(%rbp)
    cebd:	48 c7 85 50 fe ff ff 	movq   $0x0,-0x1b0(%rbp)
    cec4:	00 00 00 00 
    cec8:	48 8d 05 61 2e 01 00 	lea    0x12e61(%rip),%rax        # 1fd30 <g_660>
    cecf:	48 89 85 58 fe ff ff 	mov    %rax,-0x1a8(%rbp)
    ced6:	48 8d 05 7f 21 01 00 	lea    0x1217f(%rip),%rax        # 1f05c <g_49>
    cedd:	48 89 85 60 fe ff ff 	mov    %rax,-0x1a0(%rbp)
    cee4:	48 8d 05 2b 2e 01 00 	lea    0x12e2b(%rip),%rax        # 1fd16 <g_611+0x6>
    ceeb:	48 89 85 68 fe ff ff 	mov    %rax,-0x198(%rbp)
    cef2:	48 8d 05 df 2e 01 00 	lea    0x12edf(%rip),%rax        # 1fdd8 <g_1131>
    cef9:	48 89 85 70 fe ff ff 	mov    %rax,-0x190(%rbp)
    cf00:	48 8d 85 f8 f8 ff ff 	lea    -0x708(%rbp),%rax
    cf07:	48 89 85 78 fe ff ff 	mov    %rax,-0x188(%rbp)
    cf0e:	48 8d 05 47 21 01 00 	lea    0x12147(%rip),%rax        # 1f05c <g_49>
    cf15:	48 89 85 80 fe ff ff 	mov    %rax,-0x180(%rbp)
    cf1c:	48 8d 05 0d 2e 01 00 	lea    0x12e0d(%rip),%rax        # 1fd30 <g_660>
    cf23:	48 89 85 88 fe ff ff 	mov    %rax,-0x178(%rbp)
    cf2a:	48 8d 85 f8 f8 ff ff 	lea    -0x708(%rbp),%rax
    cf31:	48 89 85 90 fe ff ff 	mov    %rax,-0x170(%rbp)
    cf38:	48 8d 85 f4 f8 ff ff 	lea    -0x70c(%rbp),%rax
    cf3f:	48 89 85 98 fe ff ff 	mov    %rax,-0x168(%rbp)
    cf46:	48 8d 05 0f 21 01 00 	lea    0x1210f(%rip),%rax        # 1f05c <g_49>
    cf4d:	48 89 85 a0 fe ff ff 	mov    %rax,-0x160(%rbp)
    cf54:	48 8d 05 7d 2e 01 00 	lea    0x12e7d(%rip),%rax        # 1fdd8 <g_1131>
    cf5b:	48 89 85 a8 fe ff ff 	mov    %rax,-0x158(%rbp)
    cf62:	48 8d 05 6f 2e 01 00 	lea    0x12e6f(%rip),%rax        # 1fdd8 <g_1131>
    cf69:	48 89 85 b0 fe ff ff 	mov    %rax,-0x150(%rbp)
    cf70:	48 c7 85 b8 fe ff ff 	movq   $0x0,-0x148(%rbp)
    cf77:	00 00 00 00 
    cf7b:	48 8d 05 da 20 01 00 	lea    0x120da(%rip),%rax        # 1f05c <g_49>
    cf82:	48 89 85 c0 fe ff ff 	mov    %rax,-0x140(%rbp)
    cf89:	48 8d 05 56 2e 01 00 	lea    0x12e56(%rip),%rax        # 1fde6 <g_1133+0x6>
    cf90:	48 89 85 c8 fe ff ff 	mov    %rax,-0x138(%rbp)
    cf97:	48 c7 85 d0 fe ff ff 	movq   $0x0,-0x130(%rbp)
    cf9e:	00 00 00 00 
    cfa2:	48 8d 05 a7 20 01 00 	lea    0x120a7(%rip),%rax        # 1f050 <g_41>
    cfa9:	48 89 85 d8 fe ff ff 	mov    %rax,-0x128(%rbp)
    cfb0:	48 8d 05 61 2e 01 00 	lea    0x12e61(%rip),%rax        # 1fe18 <g_1218>
    cfb7:	48 89 85 e0 fe ff ff 	mov    %rax,-0x120(%rbp)
    cfbe:	48 8d 85 f4 f8 ff ff 	lea    -0x70c(%rbp),%rax
    cfc5:	48 89 85 e8 fe ff ff 	mov    %rax,-0x118(%rbp)
    cfcc:	48 8d 05 45 2e 01 00 	lea    0x12e45(%rip),%rax        # 1fe18 <g_1218>
    cfd3:	48 89 85 f0 fe ff ff 	mov    %rax,-0x110(%rbp)
    cfda:	48 8d 85 f4 f8 ff ff 	lea    -0x70c(%rbp),%rax
    cfe1:	48 89 85 f8 fe ff ff 	mov    %rax,-0x108(%rbp)
    cfe8:	48 8d 05 ed 2d 01 00 	lea    0x12ded(%rip),%rax        # 1fddc <g_1131+0x4>
    cfef:	48 89 85 00 ff ff ff 	mov    %rax,-0x100(%rbp)
    cff6:	48 8d 05 19 2d 01 00 	lea    0x12d19(%rip),%rax        # 1fd16 <g_611+0x6>
    cffd:	48 89 85 08 ff ff ff 	mov    %rax,-0xf8(%rbp)
    d004:	48 8d 05 4d 20 01 00 	lea    0x1204d(%rip),%rax        # 1f058 <g_45>
    d00b:	48 89 85 10 ff ff ff 	mov    %rax,-0xf0(%rbp)
    d012:	48 8d 05 c3 2d 01 00 	lea    0x12dc3(%rip),%rax        # 1fddc <g_1131+0x4>
    d019:	48 89 85 18 ff ff ff 	mov    %rax,-0xe8(%rbp)
    d020:	48 c7 85 20 ff ff ff 	movq   $0x0,-0xe0(%rbp)
    d027:	00 00 00 00 
    d02b:	48 8d 05 e4 2c 01 00 	lea    0x12ce4(%rip),%rax        # 1fd16 <g_611+0x6>
    d032:	48 89 85 28 ff ff ff 	mov    %rax,-0xd8(%rbp)
    d039:	48 c7 85 30 ff ff ff 	movq   $0x0,-0xd0(%rbp)
    d040:	00 00 00 00 
    d044:	48 8d 05 cb 2c 01 00 	lea    0x12ccb(%rip),%rax        # 1fd16 <g_611+0x6>
    d04b:	48 89 85 38 ff ff ff 	mov    %rax,-0xc8(%rbp)
    d052:	48 8d 05 f7 1f 01 00 	lea    0x11ff7(%rip),%rax        # 1f050 <g_41>
    d059:	48 89 85 40 ff ff ff 	mov    %rax,-0xc0(%rbp)
    d060:	48 8d 05 af 2c 01 00 	lea    0x12caf(%rip),%rax        # 1fd16 <g_611+0x6>
    d067:	48 89 85 48 ff ff ff 	mov    %rax,-0xb8(%rbp)
    d06e:	48 8d 05 67 2d 01 00 	lea    0x12d67(%rip),%rax        # 1fddc <g_1131+0x4>
    d075:	48 89 85 50 ff ff ff 	mov    %rax,-0xb0(%rbp)
    d07c:	48 8d 05 59 2d 01 00 	lea    0x12d59(%rip),%rax        # 1fddc <g_1131+0x4>
    d083:	48 89 85 58 ff ff ff 	mov    %rax,-0xa8(%rbp)
    d08a:	48 8d 05 cb 1f 01 00 	lea    0x11fcb(%rip),%rax        # 1f05c <g_49>
    d091:	48 89 85 60 ff ff ff 	mov    %rax,-0xa0(%rbp)
    d098:	48 8d 05 77 2c 01 00 	lea    0x12c77(%rip),%rax        # 1fd16 <g_611+0x6>
    d09f:	48 89 85 68 ff ff ff 	mov    %rax,-0x98(%rbp)
    d0a6:	48 c7 85 70 ff ff ff 	movq   $0x0,-0x90(%rbp)
    d0ad:	00 00 00 00 
    d0b1:	48 8d 85 f4 f8 ff ff 	lea    -0x70c(%rbp),%rax
    d0b8:	48 89 85 78 ff ff ff 	mov    %rax,-0x88(%rbp)
    d0bf:	48 8d 05 00 23 01 00 	lea    0x12300(%rip),%rax        # 1f3c6 <g_560+0x6>
    d0c6:	48 89 45 80          	mov    %rax,-0x80(%rbp)
    d0ca:	48 8d 85 f4 f8 ff ff 	lea    -0x70c(%rbp),%rax
    d0d1:	48 89 45 88          	mov    %rax,-0x78(%rbp)
    d0d5:	48 8d 05 fc 2c 01 00 	lea    0x12cfc(%rip),%rax        # 1fdd8 <g_1131>
    d0dc:	48 89 45 90          	mov    %rax,-0x70(%rbp)
    d0e0:	48 8d 05 69 1f 01 00 	lea    0x11f69(%rip),%rax        # 1f050 <g_41>
    d0e7:	48 89 45 98          	mov    %rax,-0x68(%rbp)
    d0eb:	48 8d 05 5e 1f 01 00 	lea    0x11f5e(%rip),%rax        # 1f050 <g_41>
    d0f2:	48 89 45 a0          	mov    %rax,-0x60(%rbp)
    d0f6:	48 8d 05 e9 2c 01 00 	lea    0x12ce9(%rip),%rax        # 1fde6 <g_1133+0x6>
    d0fd:	48 89 45 a8          	mov    %rax,-0x58(%rbp)
    d101:	48 c7 45 b0 00 00 00 	movq   $0x0,-0x50(%rbp)
    d108:	00 
    d109:	48 c7 45 b8 00 00 00 	movq   $0x0,-0x48(%rbp)
    d110:	00 
    d111:	48 8d 05 00 2d 01 00 	lea    0x12d00(%rip),%rax        # 1fe18 <g_1218>
    d118:	48 89 45 c0          	mov    %rax,-0x40(%rbp)
    d11c:	48 8d 05 b5 2c 01 00 	lea    0x12cb5(%rip),%rax        # 1fdd8 <g_1131>
    d123:	48 89 45 c8          	mov    %rax,-0x38(%rbp)
    d127:	48 8d 05 2a 1f 01 00 	lea    0x11f2a(%rip),%rax        # 1f058 <g_45>
    d12e:	48 89 45 d0          	mov    %rax,-0x30(%rbp)
    d132:	48 8d 85 f4 f8 ff ff 	lea    -0x70c(%rbp),%rax
    d139:	48 89 45 d8          	mov    %rax,-0x28(%rbp)
    d13d:	48 8d 05 70 20 01 00 	lea    0x12070(%rip),%rax        # 1f1b4 <g_264+0x114>
    d144:	48 89 45 e0          	mov    %rax,-0x20(%rbp)
    d148:	48 8d 05 e1 2b 01 00 	lea    0x12be1(%rip),%rax        # 1fd30 <g_660>
    d14f:	48 89 45 e8          	mov    %rax,-0x18(%rbp)
    d153:	c7 85 04 f9 ff ff f6 	movl   $0xfffffff6,-0x6fc(%rbp)
    d15a:	ff ff ff 
    d15d:	c6 85 f1 f8 ff ff 01 	movb   $0x1,-0x70f(%rbp)
    d164:	0f b7 85 00 f9 ff ff 	movzwl -0x700(%rbp),%eax
    d16b:	66 25 00 f0          	and    $0xf000,%ax
    d16f:	83 c8 3f             	or     $0x3f,%eax
    d172:	66 89 85 00 f9 ff ff 	mov    %ax,-0x700(%rbp)
    d179:	48 8b 05 80 70 01 00 	mov    0x17080(%rip),%rax        # 24200 <g_1400>
    d180:	8b 00                	mov    (%rax),%eax
    d182:	0f bf 8d f2 f8 ff ff 	movswl -0x70e(%rbp),%ecx
    d189:	48 8b 95 10 f9 ff ff 	mov    -0x6f0(%rbp),%rdx
    d190:	48 8b 85 20 f9 ff ff 	mov    -0x6e0(%rbp),%rax
    d197:	48 89 10             	mov    %rdx,(%rax)
    d19a:	48 8b 85 20 f9 ff ff 	mov    -0x6e0(%rbp),%rax
    d1a1:	48 8b 00             	mov    (%rax),%rax
    d1a4:	48 39 85 18 f9 ff ff 	cmp    %rax,-0x6e8(%rbp)
    d1ab:	0f 94 c0             	sete   %al
    d1ae:	0f b6 c0             	movzbl %al,%eax
    d1b1:	39 c1                	cmp    %eax,%ecx
    d1b3:	0f 9e c0             	setle  %al
    d1b6:	0f b6 c0             	movzbl %al,%eax
    d1b9:	48 be c0 1c 14 c8 de 	movabs $0xdaeb3dec8141cc0,%rsi
    d1c0:	b3 ae 0d 
    d1c3:	48 89 c7             	mov    %rax,%rdi
    d1c6:	e8 2c a8 ff ff       	callq  79f7 <safe_div_func_int64_t_s_s>
    d1cb:	0f b7 85 f2 f8 ff ff 	movzwl -0x70e(%rbp),%eax
    d1d2:	0f bf d0             	movswl %ax,%edx
    d1d5:	8b 85 f4 f8 ff ff    	mov    -0x70c(%rbp),%eax
    d1db:	09 d0                	or     %edx,%eax
    d1dd:	89 85 f4 f8 ff ff    	mov    %eax,-0x70c(%rbp)
    d1e3:	8b 85 f4 f8 ff ff    	mov    -0x70c(%rbp),%eax
    d1e9:	98                   	cwtl   
    d1ea:	be 0f 00 00 00       	mov    $0xf,%esi
    d1ef:	89 c7                	mov    %eax,%edi
    d1f1:	e8 6d a3 ff ff       	callq  7563 <safe_rshift_func_int16_t_s_u>
    d1f6:	48 0f bf d0          	movswq %ax,%rdx
    d1fa:	48 0f bf 85 f2 f8 ff 	movswq -0x70e(%rbp),%rax
    d201:	ff 
    d202:	48 89 d6             	mov    %rdx,%rsi
    d205:	48 89 c7             	mov    %rax,%rdi
    d208:	e8 21 ae ff ff       	callq  802e <safe_add_func_uint64_t_u_u>
    d20d:	be 02 4a 00 00       	mov    $0x4a02,%esi
    d212:	bf 01 00 00 00       	mov    $0x1,%edi
    d217:	e8 39 a2 ff ff       	callq  7455 <safe_div_func_int16_t_s_s>
    d21c:	98                   	cwtl   
    d21d:	89 85 f8 f8 ff ff    	mov    %eax,-0x708(%rbp)
    d223:	48 8b 05 06 6b 01 00 	mov    0x16b06(%rip),%rax        # 23d30 <g_741>
    d22a:	48 8b 00             	mov    (%rax),%rax
    d22d:	48 ba 9c 37 15 9c c2 	movabs $0x9f67c1c29c15379c,%rdx
    d234:	c1 67 9f 
    d237:	48 39 d0             	cmp    %rdx,%rax
    d23a:	0f 94 c0             	sete   %al
    d23d:	0f b6 d0             	movzbl %al,%edx
    d240:	8b 85 fc f8 ff ff    	mov    -0x704(%rbp),%eax
    d246:	31 d0                	xor    %edx,%eax
    d248:	89 85 fc f8 ff ff    	mov    %eax,-0x704(%rbp)
    d24e:	8b 05 84 2f 01 00    	mov    0x12f84(%rip),%eax        # 201d8 <g_1514>
    d254:	48 8b 05 6d 67 01 00 	mov    0x1676d(%rip),%rax        # 239c8 <g_235>
    d25b:	0f b6 00             	movzbl (%rax),%eax
    d25e:	48 0f be c0          	movsbq %al,%rax
    d262:	48 39 85 e8 f8 ff ff 	cmp    %rax,-0x718(%rbp)
    d269:	0f 94 c0             	sete   %al
    d26c:	0f b6 c0             	movzbl %al,%eax
    d26f:	be 05 00 00 00       	mov    $0x5,%esi
    d274:	89 c7                	mov    %eax,%edi
    d276:	e8 73 a0 ff ff       	callq  72ee <safe_lshift_func_int8_t_s_u>
    d27b:	3c 67                	cmp    $0x67,%al
    d27d:	0f 9f c2             	setg   %dl
    d280:	48 8b 05 19 67 01 00 	mov    0x16719(%rip),%rax        # 239a0 <g_103>
    d287:	0f b6 d2             	movzbl %dl,%edx
    d28a:	89 10                	mov    %edx,(%rax)
    d28c:	8b 00                	mov    (%rax),%eax
    d28e:	89 85 04 f9 ff ff    	mov    %eax,-0x6fc(%rbp)
    d294:	0f be 85 e0 f8 ff ff 	movsbl -0x720(%rbp),%eax
    d29b:	39 85 04 f9 ff ff    	cmp    %eax,-0x6fc(%rbp)
    d2a1:	0f 93 c0             	setae  %al
    d2a4:	0f b6 c0             	movzbl %al,%eax
    d2a7:	89 c2                	mov    %eax,%edx
    d2a9:	0f b6 85 f1 f8 ff ff 	movzbl -0x70f(%rbp),%eax
    d2b0:	09 d0                	or     %edx,%eax
    d2b2:	88 85 f1 f8 ff ff    	mov    %al,-0x70f(%rbp)
    d2b8:	8b 85 00 f9 ff ff    	mov    -0x700(%rbp),%eax
    d2be:	48 8b 4d f8          	mov    -0x8(%rbp),%rcx
    d2c2:	64 48 33 0c 25 28 00 	xor    %fs:0x28,%rcx
    d2c9:	00 00 
    d2cb:	74 05                	je     d2d2 <func_2+0xd17>
    d2cd:	e8 9e 9d ff ff       	callq  7070 <__stack_chk_fail@plt>
    d2d2:	c9                   	leaveq 
    d2d3:	c3                   	retq   

000000000000d2d4 <func_10>:
    d2d4:	f3 0f 1e fa          	endbr64 
    d2d8:	55                   	push   %rbp
    d2d9:	48 89 e5             	mov    %rsp,%rbp
    d2dc:	48 81 ec 00 03 00 00 	sub    $0x300,%rsp
    d2e3:	89 f8                	mov    %edi,%eax
    d2e5:	89 b5 18 fd ff ff    	mov    %esi,-0x2e8(%rbp)
    d2eb:	48 89 95 10 fd ff ff 	mov    %rdx,-0x2f0(%rbp)
    d2f2:	48 89 8d 08 fd ff ff 	mov    %rcx,-0x2f8(%rbp)
    d2f9:	44 89 85 04 fd ff ff 	mov    %r8d,-0x2fc(%rbp)
    d300:	88 85 1c fd ff ff    	mov    %al,-0x2e4(%rbp)
    d306:	64 48 8b 04 25 28 00 	mov    %fs:0x28,%rax
    d30d:	00 00 
    d30f:	48 89 45 f8          	mov    %rax,-0x8(%rbp)
    d313:	31 c0                	xor    %eax,%eax
    d315:	c6 85 2d fd ff ff 01 	movb   $0x1,-0x2d3(%rbp)
    d31c:	c7 85 30 fd ff ff 09 	movl   $0x9,-0x2d0(%rbp)
    d323:	00 00 00 
    d326:	48 8d 05 7b 66 01 00 	lea    0x1667b(%rip),%rax        # 239a8 <g_106>
    d32d:	48 89 85 40 fd ff ff 	mov    %rax,-0x2c0(%rbp)
    d334:	48 8d 05 6d 66 01 00 	lea    0x1666d(%rip),%rax        # 239a8 <g_106>
    d33b:	48 89 85 48 fd ff ff 	mov    %rax,-0x2b8(%rbp)
    d342:	48 8d 05 5f 66 01 00 	lea    0x1665f(%rip),%rax        # 239a8 <g_106>
    d349:	48 89 85 50 fd ff ff 	mov    %rax,-0x2b0(%rbp)
    d350:	48 8d 05 51 66 01 00 	lea    0x16651(%rip),%rax        # 239a8 <g_106>
    d357:	48 89 85 58 fd ff ff 	mov    %rax,-0x2a8(%rbp)
    d35e:	48 8d 05 43 66 01 00 	lea    0x16643(%rip),%rax        # 239a8 <g_106>
    d365:	48 89 85 60 fd ff ff 	mov    %rax,-0x2a0(%rbp)
    d36c:	48 8d 05 dd 1c 01 00 	lea    0x11cdd(%rip),%rax        # 1f050 <g_41>
    d373:	48 89 85 68 fd ff ff 	mov    %rax,-0x298(%rbp)
    d37a:	48 8d 85 40 fe ff ff 	lea    -0x1c0(%rbp),%rax
    d381:	48 8d 15 f8 4e 01 00 	lea    0x14ef8(%rip),%rdx        # 22280 <g_2024+0x20>
    d388:	b9 36 00 00 00       	mov    $0x36,%ecx
    d38d:	48 89 c7             	mov    %rax,%rdi
    d390:	48 89 d6             	mov    %rdx,%rsi
    d393:	f3 48 a5             	rep movsq %ds:(%rsi),%es:(%rdi)
    d396:	c6 85 2e fd ff ff ff 	movb   $0xff,-0x2d2(%rbp)
    d39d:	c7 85 34 fd ff ff 01 	movl   $0x1,-0x2cc(%rbp)
    d3a4:	00 00 00 
    d3a7:	48 c7 85 38 fd ff ff 	movq   $0x0,-0x2c8(%rbp)
    d3ae:	00 00 00 00 
    d3b2:	80 a5 2d fd ff ff f6 	andb   $0xf6,-0x2d3(%rbp)
    d3b9:	0f be 85 2d fd ff ff 	movsbl -0x2d3(%rbp),%eax
    d3c0:	89 85 30 fd ff ff    	mov    %eax,-0x2d0(%rbp)
    d3c6:	48 8d 85 30 fd ff ff 	lea    -0x2d0(%rbp),%rax
    d3cd:	48 89 85 68 fd ff ff 	mov    %rax,-0x298(%rbp)
    d3d4:	48 8d 85 30 fd ff ff 	lea    -0x2d0(%rbp),%rax
    d3db:	48 39 85 68 fd ff ff 	cmp    %rax,-0x298(%rbp)
    d3e2:	0f 95 c0             	setne  %al
    d3e5:	0f b6 d0             	movzbl %al,%edx
    d3e8:	48 8b 05 f1 f1 00 00 	mov    0xf1f1(%rip),%rax        # 1c5e0 <l_1467.4691+0x100>
    d3ef:	48 31 d0             	xor    %rdx,%rax
    d3f2:	08 85 2e fd ff ff    	or     %al,-0x2d2(%rbp)
    d3f8:	0f be 85 2e fd ff ff 	movsbl -0x2d2(%rbp),%eax
    d3ff:	89 85 34 fd ff ff    	mov    %eax,-0x2cc(%rbp)
    d405:	c7 05 49 1c 01 00 04 	movl   $0x4,0x11c49(%rip)        # 1f058 <g_45>
    d40c:	00 00 00 
    d40f:	e9 73 02 00 00       	jmpq   d687 <func_10+0x3b3>
    d414:	c6 85 2f fd ff ff b4 	movb   $0xb4,-0x2d1(%rbp)
    d41b:	48 8d 05 42 1c 01 00 	lea    0x11c42(%rip),%rax        # 1f064 <g_77>
    d422:	48 89 85 80 fd ff ff 	mov    %rax,-0x280(%rbp)
    d429:	48 8d 05 34 1c 01 00 	lea    0x11c34(%rip),%rax        # 1f064 <g_77>
    d430:	48 89 85 88 fd ff ff 	mov    %rax,-0x278(%rbp)
    d437:	48 8d 05 0a 29 01 00 	lea    0x1290a(%rip),%rax        # 1fd48 <g_768+0x8>
    d43e:	48 89 85 90 fd ff ff 	mov    %rax,-0x270(%rbp)
    d445:	48 8d 05 18 1c 01 00 	lea    0x11c18(%rip),%rax        # 1f064 <g_77>
    d44c:	48 89 85 98 fd ff ff 	mov    %rax,-0x268(%rbp)
    d453:	48 8d 05 0a 1c 01 00 	lea    0x11c0a(%rip),%rax        # 1f064 <g_77>
    d45a:	48 89 85 a0 fd ff ff 	mov    %rax,-0x260(%rbp)
    d461:	48 8d 05 dc 28 01 00 	lea    0x128dc(%rip),%rax        # 1fd44 <g_768+0x4>
    d468:	48 89 85 a8 fd ff ff 	mov    %rax,-0x258(%rbp)
    d46f:	48 8d 05 ce 28 01 00 	lea    0x128ce(%rip),%rax        # 1fd44 <g_768+0x4>
    d476:	48 89 85 b0 fd ff ff 	mov    %rax,-0x250(%rbp)
    d47d:	48 8d 05 e0 1b 01 00 	lea    0x11be0(%rip),%rax        # 1f064 <g_77>
    d484:	48 89 85 b8 fd ff ff 	mov    %rax,-0x248(%rbp)
    d48b:	48 8d 05 b2 28 01 00 	lea    0x128b2(%rip),%rax        # 1fd44 <g_768+0x4>
    d492:	48 89 85 c0 fd ff ff 	mov    %rax,-0x240(%rbp)
    d499:	48 8d 05 c4 1b 01 00 	lea    0x11bc4(%rip),%rax        # 1f064 <g_77>
    d4a0:	48 89 85 c8 fd ff ff 	mov    %rax,-0x238(%rbp)
    d4a7:	48 8d 05 96 28 01 00 	lea    0x12896(%rip),%rax        # 1fd44 <g_768+0x4>
    d4ae:	48 89 85 d0 fd ff ff 	mov    %rax,-0x230(%rbp)
    d4b5:	48 8d 05 88 28 01 00 	lea    0x12888(%rip),%rax        # 1fd44 <g_768+0x4>
    d4bc:	48 89 85 d8 fd ff ff 	mov    %rax,-0x228(%rbp)
    d4c3:	48 8d 05 9a 1b 01 00 	lea    0x11b9a(%rip),%rax        # 1f064 <g_77>
    d4ca:	48 89 85 e0 fd ff ff 	mov    %rax,-0x220(%rbp)
    d4d1:	48 8d 05 8c 1b 01 00 	lea    0x11b8c(%rip),%rax        # 1f064 <g_77>
    d4d8:	48 89 85 e8 fd ff ff 	mov    %rax,-0x218(%rbp)
    d4df:	48 8d 05 62 28 01 00 	lea    0x12862(%rip),%rax        # 1fd48 <g_768+0x8>
    d4e6:	48 89 85 f0 fd ff ff 	mov    %rax,-0x210(%rbp)
    d4ed:	48 8d 05 70 1b 01 00 	lea    0x11b70(%rip),%rax        # 1f064 <g_77>
    d4f4:	48 89 85 f8 fd ff ff 	mov    %rax,-0x208(%rbp)
    d4fb:	48 8d 05 62 1b 01 00 	lea    0x11b62(%rip),%rax        # 1f064 <g_77>
    d502:	48 89 85 00 fe ff ff 	mov    %rax,-0x200(%rbp)
    d509:	48 8d 05 34 28 01 00 	lea    0x12834(%rip),%rax        # 1fd44 <g_768+0x4>
    d510:	48 89 85 08 fe ff ff 	mov    %rax,-0x1f8(%rbp)
    d517:	48 8d 05 26 28 01 00 	lea    0x12826(%rip),%rax        # 1fd44 <g_768+0x4>
    d51e:	48 89 85 10 fe ff ff 	mov    %rax,-0x1f0(%rbp)
    d525:	48 8d 05 38 1b 01 00 	lea    0x11b38(%rip),%rax        # 1f064 <g_77>
    d52c:	48 89 85 18 fe ff ff 	mov    %rax,-0x1e8(%rbp)
    d533:	48 8d 05 0a 28 01 00 	lea    0x1280a(%rip),%rax        # 1fd44 <g_768+0x4>
    d53a:	48 89 85 20 fe ff ff 	mov    %rax,-0x1e0(%rbp)
    d541:	48 8d 05 1c 1b 01 00 	lea    0x11b1c(%rip),%rax        # 1f064 <g_77>
    d548:	48 89 85 28 fe ff ff 	mov    %rax,-0x1d8(%rbp)
    d54f:	48 8d 05 ee 27 01 00 	lea    0x127ee(%rip),%rax        # 1fd44 <g_768+0x4>
    d556:	48 89 85 30 fe ff ff 	mov    %rax,-0x1d0(%rbp)
    d55d:	48 8d 05 e0 27 01 00 	lea    0x127e0(%rip),%rax        # 1fd44 <g_768+0x4>
    d564:	48 89 85 38 fe ff ff 	mov    %rax,-0x1c8(%rbp)
    d56b:	48 8d 85 38 fd ff ff 	lea    -0x2c8(%rbp),%rax
    d572:	48 89 85 70 fd ff ff 	mov    %rax,-0x290(%rbp)
    d579:	0f b6 85 2f fd ff ff 	movzbl -0x2d1(%rbp),%eax
    d580:	be 0c 00 00 00       	mov    $0xc,%esi
    d585:	89 c7                	mov    %eax,%edi
    d587:	e8 06 9f ff ff       	callq  7492 <safe_lshift_func_int16_t_s_s>
    d58c:	89 c2                	mov    %eax,%edx
    d58e:	0f b6 8d 2f fd ff ff 	movzbl -0x2d1(%rbp),%ecx
    d595:	48 8b 05 2c 64 01 00 	mov    0x1642c(%rip),%rax        # 239c8 <g_235>
    d59c:	0f b6 30             	movzbl (%rax),%esi
    d59f:	48 8b 05 22 64 01 00 	mov    0x16422(%rip),%rax        # 239c8 <g_235>
    d5a6:	f7 d6                	not    %esi
    d5a8:	40 88 30             	mov    %sil,(%rax)
    d5ab:	0f b6 00             	movzbl (%rax),%eax
    d5ae:	0f be c0             	movsbl %al,%eax
    d5b1:	39 c1                	cmp    %eax,%ecx
    d5b3:	0f 9c c0             	setl   %al
    d5b6:	0f b6 c0             	movzbl %al,%eax
    d5b9:	09 d0                	or     %edx,%eax
    d5bb:	98                   	cwtl   
    d5bc:	89 c6                	mov    %eax,%esi
    d5be:	bf 19 23 00 00       	mov    $0x2319,%edi
    d5c3:	e8 2d 9e ff ff       	callq  73f5 <safe_mul_func_int16_t_s_s>
    d5c8:	f7 d0                	not    %eax
    d5ca:	66 c1 e8 0f          	shr    $0xf,%ax
    d5ce:	0f b6 d0             	movzbl %al,%edx
    d5d1:	0f b7 05 6e 27 01 00 	movzwl 0x1276e(%rip),%eax        # 1fd46 <g_768+0x6>
    d5d8:	83 c0 01             	add    $0x1,%eax
    d5db:	66 89 05 64 27 01 00 	mov    %ax,0x12764(%rip)        # 1fd46 <g_768+0x6>
    d5e2:	0f b7 05 5d 27 01 00 	movzwl 0x1275d(%rip),%eax        # 1fd46 <g_768+0x6>
    d5e9:	0f b7 c0             	movzwl %ax,%eax
    d5ec:	39 c2                	cmp    %eax,%edx
    d5ee:	0f 95 c0             	setne  %al
    d5f1:	0f b6 d0             	movzbl %al,%edx
    d5f4:	48 8b 85 68 fd ff ff 	mov    -0x298(%rbp),%rax
    d5fb:	8b 00                	mov    (%rax),%eax
    d5fd:	21 c2                	and    %eax,%edx
    d5ff:	48 8b 85 68 fd ff ff 	mov    -0x298(%rbp),%rax
    d606:	89 10                	mov    %edx,(%rax)
    d608:	48 8b 95 38 fd ff ff 	mov    -0x2c8(%rbp),%rdx
    d60f:	48 8b 85 70 fd ff ff 	mov    -0x290(%rbp),%rax
    d616:	48 89 10             	mov    %rdx,(%rax)
    d619:	48 8b 85 70 fd ff ff 	mov    -0x290(%rbp),%rax
    d620:	48 8b 00             	mov    (%rax),%rax
    d623:	48 89 05 ae 6b 01 00 	mov    %rax,0x16bae(%rip)        # 241d8 <g_1166>
    d62a:	c7 05 a2 1b 01 00 1c 	movl   $0x1c,0x11ba2(%rip)        # 1f1d6 <g_277+0x6>
    d631:	00 00 00 
    d634:	eb 34                	jmp    d66a <func_10+0x396>
    d636:	48 c7 85 78 fd ff ff 	movq   $0x0,-0x288(%rbp)
    d63d:	00 00 00 00 
    d641:	48 8b 85 40 fd ff ff 	mov    -0x2c0(%rbp),%rax
    d648:	48 8b 95 78 fd ff ff 	mov    -0x288(%rbp),%rdx
    d64f:	48 89 10             	mov    %rdx,(%rax)
    d652:	80 bd 1c fd ff ff 00 	cmpb   $0x0,-0x2e4(%rbp)
    d659:	75 1c                	jne    d677 <func_10+0x3a3>
    d65b:	8b 05 75 1b 01 00    	mov    0x11b75(%rip),%eax        # 1f1d6 <g_277+0x6>
    d661:	83 e8 01             	sub    $0x1,%eax
    d664:	89 05 6c 1b 01 00    	mov    %eax,0x11b6c(%rip)        # 1f1d6 <g_277+0x6>
    d66a:	8b 05 66 1b 01 00    	mov    0x11b66(%rip),%eax        # 1f1d6 <g_277+0x6>
    d670:	83 f8 15             	cmp    $0x15,%eax
    d673:	7f c1                	jg     d636 <func_10+0x362>
    d675:	eb 01                	jmp    d678 <func_10+0x3a4>
    d677:	90                   	nop
    d678:	8b 05 da 19 01 00    	mov    0x119da(%rip),%eax        # 1f058 <g_45>
    d67e:	83 c0 01             	add    $0x1,%eax
    d681:	89 05 d1 19 01 00    	mov    %eax,0x119d1(%rip)        # 1f058 <g_45>
    d687:	8b 05 cb 19 01 00    	mov    0x119cb(%rip),%eax        # 1f058 <g_45>
    d68d:	83 f8 0a             	cmp    $0xa,%eax
    d690:	0f 8e 7e fd ff ff    	jle    d414 <func_10+0x140>
    d696:	48 8b 85 08 fd ff ff 	mov    -0x2f8(%rbp),%rax
    d69d:	0f b6 00             	movzbl (%rax),%eax
    d6a0:	48 8b 4d f8          	mov    -0x8(%rbp),%rcx
    d6a4:	64 48 33 0c 25 28 00 	xor    %fs:0x28,%rcx
    d6ab:	00 00 
    d6ad:	74 05                	je     d6b4 <func_10+0x3e0>
    d6af:	e8 bc 99 ff ff       	callq  7070 <__stack_chk_fail@plt>
    d6b4:	c9                   	leaveq 
    d6b5:	c3                   	retq   

000000000000d6b6 <func_18>:
    d6b6:	f3 0f 1e fa          	endbr64 
    d6ba:	55                   	push   %rbp
    d6bb:	48 89 e5             	mov    %rsp,%rbp
    d6be:	41 56                	push   %r14
    d6c0:	41 55                	push   %r13
    d6c2:	41 54                	push   %r12
    d6c4:	53                   	push   %rbx
    d6c5:	48 81 ec e0 0c 00 00 	sub    $0xce0,%rsp
    d6cc:	89 bd 0c f3 ff ff    	mov    %edi,-0xcf4(%rbp)
    d6d2:	64 48 8b 04 25 28 00 	mov    %fs:0x28,%rax
    d6d9:	00 00 
    d6db:	48 89 45 d8          	mov    %rax,-0x28(%rbp)
    d6df:	31 c0                	xor    %eax,%eax
    d6e1:	48 8d 05 66 19 01 00 	lea    0x11966(%rip),%rax        # 1f04e <g_37>
    d6e8:	48 89 85 40 f3 ff ff 	mov    %rax,-0xcc0(%rbp)
    d6ef:	c7 85 2c f3 ff ff fa 	movl   $0xfffffffa,-0xcd4(%rbp)
    d6f6:	ff ff ff 
    d6f9:	48 8d 05 44 26 01 00 	lea    0x12644(%rip),%rax        # 1fd44 <g_768+0x4>
    d700:	48 89 85 48 f3 ff ff 	mov    %rax,-0xcb8(%rbp)
    d707:	48 8d 85 48 f3 ff ff 	lea    -0xcb8(%rbp),%rax
    d70e:	48 89 85 50 f3 ff ff 	mov    %rax,-0xcb0(%rbp)
    d715:	48 8d 85 50 f3 ff ff 	lea    -0xcb0(%rbp),%rax
    d71c:	48 89 85 80 f3 ff ff 	mov    %rax,-0xc80(%rbp)
    d723:	48 b8 12 10 fe d6 bb 	movabs $0x1af86cbbd6fe1012,%rax
    d72a:	6c f8 1a 
    d72d:	48 89 85 88 f3 ff ff 	mov    %rax,-0xc78(%rbp)
    d734:	c7 85 18 f3 ff ff fc 	movl   $0xfffffffc,-0xce8(%rbp)
    d73b:	ff ff ff 
    d73e:	48 8d 85 40 f3 ff ff 	lea    -0xcc0(%rbp),%rax
    d745:	48 89 85 90 f3 ff ff 	mov    %rax,-0xc70(%rbp)
    d74c:	48 8d 85 10 f6 ff ff 	lea    -0x9f0(%rbp),%rax
    d753:	48 8d 15 86 cb 00 00 	lea    0xcb86(%rip),%rdx        # 1a2e0 <g_1821+0x210>
    d75a:	b9 23 00 00 00       	mov    $0x23,%ecx
    d75f:	48 89 c7             	mov    %rax,%rdi
    d762:	48 89 d6             	mov    %rdx,%rsi
    d765:	f3 48 a5             	rep movsq %ds:(%rsi),%es:(%rdi)
    d768:	48 8d 05 d1 65 01 00 	lea    0x165d1(%rip),%rax        # 23d40 <g_746>
    d76f:	48 89 85 58 f3 ff ff 	mov    %rax,-0xca8(%rbp)
    d776:	48 8d 85 58 f3 ff ff 	lea    -0xca8(%rbp),%rax
    d77d:	48 89 85 e0 fb ff ff 	mov    %rax,-0x420(%rbp)
    d784:	48 c7 85 e8 fb ff ff 	movq   $0x0,-0x418(%rbp)
    d78b:	00 00 00 00 
    d78f:	48 8d 85 58 f3 ff ff 	lea    -0xca8(%rbp),%rax
    d796:	48 89 85 f0 fb ff ff 	mov    %rax,-0x410(%rbp)
    d79d:	48 8d 85 58 f3 ff ff 	lea    -0xca8(%rbp),%rax
    d7a4:	48 89 85 f8 fb ff ff 	mov    %rax,-0x408(%rbp)
    d7ab:	48 c7 85 00 fc ff ff 	movq   $0x0,-0x400(%rbp)
    d7b2:	00 00 00 00 
    d7b6:	48 8d 85 58 f3 ff ff 	lea    -0xca8(%rbp),%rax
    d7bd:	48 89 85 08 fc ff ff 	mov    %rax,-0x3f8(%rbp)
    d7c4:	48 8d 85 58 f3 ff ff 	lea    -0xca8(%rbp),%rax
    d7cb:	48 89 85 10 fc ff ff 	mov    %rax,-0x3f0(%rbp)
    d7d2:	48 8d 85 58 f3 ff ff 	lea    -0xca8(%rbp),%rax
    d7d9:	48 89 85 18 fc ff ff 	mov    %rax,-0x3e8(%rbp)
    d7e0:	48 8d 85 58 f3 ff ff 	lea    -0xca8(%rbp),%rax
    d7e7:	48 89 85 20 fc ff ff 	mov    %rax,-0x3e0(%rbp)
    d7ee:	48 8d 85 58 f3 ff ff 	lea    -0xca8(%rbp),%rax
    d7f5:	48 89 85 28 fc ff ff 	mov    %rax,-0x3d8(%rbp)
    d7fc:	48 8d 85 58 f3 ff ff 	lea    -0xca8(%rbp),%rax
    d803:	48 89 85 30 fc ff ff 	mov    %rax,-0x3d0(%rbp)
    d80a:	48 c7 85 38 fc ff ff 	movq   $0x0,-0x3c8(%rbp)
    d811:	00 00 00 00 
    d815:	48 8d 85 58 f3 ff ff 	lea    -0xca8(%rbp),%rax
    d81c:	48 89 85 40 fc ff ff 	mov    %rax,-0x3c0(%rbp)
    d823:	48 8d 85 58 f3 ff ff 	lea    -0xca8(%rbp),%rax
    d82a:	48 89 85 48 fc ff ff 	mov    %rax,-0x3b8(%rbp)
    d831:	48 8d 85 58 f3 ff ff 	lea    -0xca8(%rbp),%rax
    d838:	48 89 85 50 fc ff ff 	mov    %rax,-0x3b0(%rbp)
    d83f:	48 8d 85 58 f3 ff ff 	lea    -0xca8(%rbp),%rax
    d846:	48 89 85 58 fc ff ff 	mov    %rax,-0x3a8(%rbp)
    d84d:	48 8d 85 58 f3 ff ff 	lea    -0xca8(%rbp),%rax
    d854:	48 89 85 60 fc ff ff 	mov    %rax,-0x3a0(%rbp)
    d85b:	48 8d 85 58 f3 ff ff 	lea    -0xca8(%rbp),%rax
    d862:	48 89 85 68 fc ff ff 	mov    %rax,-0x398(%rbp)
    d869:	48 8d 85 58 f3 ff ff 	lea    -0xca8(%rbp),%rax
    d870:	48 89 85 70 fc ff ff 	mov    %rax,-0x390(%rbp)
    d877:	48 c7 85 78 fc ff ff 	movq   $0x0,-0x388(%rbp)
    d87e:	00 00 00 00 
    d882:	48 c7 85 80 fc ff ff 	movq   $0x0,-0x380(%rbp)
    d889:	00 00 00 00 
    d88d:	48 8d 85 58 f3 ff ff 	lea    -0xca8(%rbp),%rax
    d894:	48 89 85 88 fc ff ff 	mov    %rax,-0x378(%rbp)
    d89b:	48 8d 85 58 f3 ff ff 	lea    -0xca8(%rbp),%rax
    d8a2:	48 89 85 90 fc ff ff 	mov    %rax,-0x370(%rbp)
    d8a9:	48 8d 85 58 f3 ff ff 	lea    -0xca8(%rbp),%rax
    d8b0:	48 89 85 98 fc ff ff 	mov    %rax,-0x368(%rbp)
    d8b7:	48 c7 85 a0 fc ff ff 	movq   $0x0,-0x360(%rbp)
    d8be:	00 00 00 00 
    d8c2:	48 8d 85 58 f3 ff ff 	lea    -0xca8(%rbp),%rax
    d8c9:	48 89 85 a8 fc ff ff 	mov    %rax,-0x358(%rbp)
    d8d0:	48 8d 85 58 f3 ff ff 	lea    -0xca8(%rbp),%rax
    d8d7:	48 89 85 b0 fc ff ff 	mov    %rax,-0x350(%rbp)
    d8de:	48 8d 85 58 f3 ff ff 	lea    -0xca8(%rbp),%rax
    d8e5:	48 89 85 b8 fc ff ff 	mov    %rax,-0x348(%rbp)
    d8ec:	48 8d 85 58 f3 ff ff 	lea    -0xca8(%rbp),%rax
    d8f3:	48 89 85 c0 fc ff ff 	mov    %rax,-0x340(%rbp)
    d8fa:	48 c7 85 c8 fc ff ff 	movq   $0x0,-0x338(%rbp)
    d901:	00 00 00 00 
    d905:	48 8d 85 58 f3 ff ff 	lea    -0xca8(%rbp),%rax
    d90c:	48 89 85 d0 fc ff ff 	mov    %rax,-0x330(%rbp)
    d913:	48 8d 85 58 f3 ff ff 	lea    -0xca8(%rbp),%rax
    d91a:	48 89 85 d8 fc ff ff 	mov    %rax,-0x328(%rbp)
    d921:	48 8d 85 58 f3 ff ff 	lea    -0xca8(%rbp),%rax
    d928:	48 89 85 e0 fc ff ff 	mov    %rax,-0x320(%rbp)
    d92f:	48 8d 85 58 f3 ff ff 	lea    -0xca8(%rbp),%rax
    d936:	48 89 85 e8 fc ff ff 	mov    %rax,-0x318(%rbp)
    d93d:	48 8d 85 58 f3 ff ff 	lea    -0xca8(%rbp),%rax
    d944:	48 89 85 f0 fc ff ff 	mov    %rax,-0x310(%rbp)
    d94b:	48 8d 85 58 f3 ff ff 	lea    -0xca8(%rbp),%rax
    d952:	48 89 85 f8 fc ff ff 	mov    %rax,-0x308(%rbp)
    d959:	48 8d 85 58 f3 ff ff 	lea    -0xca8(%rbp),%rax
    d960:	48 89 85 00 fd ff ff 	mov    %rax,-0x300(%rbp)
    d967:	48 8d 85 58 f3 ff ff 	lea    -0xca8(%rbp),%rax
    d96e:	48 89 85 08 fd ff ff 	mov    %rax,-0x2f8(%rbp)
    d975:	48 8d 85 58 f3 ff ff 	lea    -0xca8(%rbp),%rax
    d97c:	48 89 85 10 fd ff ff 	mov    %rax,-0x2f0(%rbp)
    d983:	48 8d 85 58 f3 ff ff 	lea    -0xca8(%rbp),%rax
    d98a:	48 89 85 18 fd ff ff 	mov    %rax,-0x2e8(%rbp)
    d991:	48 8d 85 58 f3 ff ff 	lea    -0xca8(%rbp),%rax
    d998:	48 89 85 20 fd ff ff 	mov    %rax,-0x2e0(%rbp)
    d99f:	48 8d 85 58 f3 ff ff 	lea    -0xca8(%rbp),%rax
    d9a6:	48 89 85 28 fd ff ff 	mov    %rax,-0x2d8(%rbp)
    d9ad:	48 8d 85 58 f3 ff ff 	lea    -0xca8(%rbp),%rax
    d9b4:	48 89 85 30 fd ff ff 	mov    %rax,-0x2d0(%rbp)
    d9bb:	48 c7 85 38 fd ff ff 	movq   $0x0,-0x2c8(%rbp)
    d9c2:	00 00 00 00 
    d9c6:	48 8d 85 58 f3 ff ff 	lea    -0xca8(%rbp),%rax
    d9cd:	48 89 85 40 fd ff ff 	mov    %rax,-0x2c0(%rbp)
    d9d4:	48 8d 85 58 f3 ff ff 	lea    -0xca8(%rbp),%rax
    d9db:	48 89 85 48 fd ff ff 	mov    %rax,-0x2b8(%rbp)
    d9e2:	48 8d 85 58 f3 ff ff 	lea    -0xca8(%rbp),%rax
    d9e9:	48 89 85 50 fd ff ff 	mov    %rax,-0x2b0(%rbp)
    d9f0:	48 8d 85 58 f3 ff ff 	lea    -0xca8(%rbp),%rax
    d9f7:	48 89 85 58 fd ff ff 	mov    %rax,-0x2a8(%rbp)
    d9fe:	48 8d 85 58 f3 ff ff 	lea    -0xca8(%rbp),%rax
    da05:	48 89 85 60 fd ff ff 	mov    %rax,-0x2a0(%rbp)
    da0c:	48 8d 85 58 f3 ff ff 	lea    -0xca8(%rbp),%rax
    da13:	48 89 85 68 fd ff ff 	mov    %rax,-0x298(%rbp)
    da1a:	48 8d 85 58 f3 ff ff 	lea    -0xca8(%rbp),%rax
    da21:	48 89 85 70 fd ff ff 	mov    %rax,-0x290(%rbp)
    da28:	48 8d 85 58 f3 ff ff 	lea    -0xca8(%rbp),%rax
    da2f:	48 89 85 78 fd ff ff 	mov    %rax,-0x288(%rbp)
    da36:	48 8d 85 58 f3 ff ff 	lea    -0xca8(%rbp),%rax
    da3d:	48 89 85 80 fd ff ff 	mov    %rax,-0x280(%rbp)
    da44:	48 8d 85 58 f3 ff ff 	lea    -0xca8(%rbp),%rax
    da4b:	48 89 85 88 fd ff ff 	mov    %rax,-0x278(%rbp)
    da52:	48 c7 85 90 fd ff ff 	movq   $0x0,-0x270(%rbp)
    da59:	00 00 00 00 
    da5d:	48 c7 85 98 fd ff ff 	movq   $0x0,-0x268(%rbp)
    da64:	00 00 00 00 
    da68:	48 8d 85 58 f3 ff ff 	lea    -0xca8(%rbp),%rax
    da6f:	48 89 85 a0 fd ff ff 	mov    %rax,-0x260(%rbp)
    da76:	48 8d 85 58 f3 ff ff 	lea    -0xca8(%rbp),%rax
    da7d:	48 89 85 a8 fd ff ff 	mov    %rax,-0x258(%rbp)
    da84:	48 8d 85 58 f3 ff ff 	lea    -0xca8(%rbp),%rax
    da8b:	48 89 85 b0 fd ff ff 	mov    %rax,-0x250(%rbp)
    da92:	48 8d 85 58 f3 ff ff 	lea    -0xca8(%rbp),%rax
    da99:	48 89 85 b8 fd ff ff 	mov    %rax,-0x248(%rbp)
    daa0:	48 8d 85 58 f3 ff ff 	lea    -0xca8(%rbp),%rax
    daa7:	48 89 85 c0 fd ff ff 	mov    %rax,-0x240(%rbp)
    daae:	48 8d 85 58 f3 ff ff 	lea    -0xca8(%rbp),%rax
    dab5:	48 89 85 c8 fd ff ff 	mov    %rax,-0x238(%rbp)
    dabc:	48 8d 85 58 f3 ff ff 	lea    -0xca8(%rbp),%rax
    dac3:	48 89 85 d0 fd ff ff 	mov    %rax,-0x230(%rbp)
    daca:	48 c7 85 d8 fd ff ff 	movq   $0x0,-0x228(%rbp)
    dad1:	00 00 00 00 
    dad5:	48 8d 85 58 f3 ff ff 	lea    -0xca8(%rbp),%rax
    dadc:	48 89 85 e0 fd ff ff 	mov    %rax,-0x220(%rbp)
    dae3:	48 8d 85 58 f3 ff ff 	lea    -0xca8(%rbp),%rax
    daea:	48 89 85 e8 fd ff ff 	mov    %rax,-0x218(%rbp)
    daf1:	48 c7 85 f0 fd ff ff 	movq   $0x0,-0x210(%rbp)
    daf8:	00 00 00 00 
    dafc:	48 8d 85 58 f3 ff ff 	lea    -0xca8(%rbp),%rax
    db03:	48 89 85 f8 fd ff ff 	mov    %rax,-0x208(%rbp)
    db0a:	48 8d 85 58 f3 ff ff 	lea    -0xca8(%rbp),%rax
    db11:	48 89 85 00 fe ff ff 	mov    %rax,-0x200(%rbp)
    db18:	48 8d 85 58 f3 ff ff 	lea    -0xca8(%rbp),%rax
    db1f:	48 89 85 08 fe ff ff 	mov    %rax,-0x1f8(%rbp)
    db26:	48 8d 85 58 f3 ff ff 	lea    -0xca8(%rbp),%rax
    db2d:	48 89 85 10 fe ff ff 	mov    %rax,-0x1f0(%rbp)
    db34:	48 8d 85 58 f3 ff ff 	lea    -0xca8(%rbp),%rax
    db3b:	48 89 85 18 fe ff ff 	mov    %rax,-0x1e8(%rbp)
    db42:	48 8d 85 58 f3 ff ff 	lea    -0xca8(%rbp),%rax
    db49:	48 89 85 20 fe ff ff 	mov    %rax,-0x1e0(%rbp)
    db50:	48 c7 85 28 fe ff ff 	movq   $0x0,-0x1d8(%rbp)
    db57:	00 00 00 00 
    db5b:	48 8d 85 58 f3 ff ff 	lea    -0xca8(%rbp),%rax
    db62:	48 89 85 30 fe ff ff 	mov    %rax,-0x1d0(%rbp)
    db69:	48 8d 85 58 f3 ff ff 	lea    -0xca8(%rbp),%rax
    db70:	48 89 85 38 fe ff ff 	mov    %rax,-0x1c8(%rbp)
    db77:	48 8d 85 58 f3 ff ff 	lea    -0xca8(%rbp),%rax
    db7e:	48 89 85 40 fe ff ff 	mov    %rax,-0x1c0(%rbp)
    db85:	48 8d 85 58 f3 ff ff 	lea    -0xca8(%rbp),%rax
    db8c:	48 89 85 48 fe ff ff 	mov    %rax,-0x1b8(%rbp)
    db93:	48 8d 85 58 f3 ff ff 	lea    -0xca8(%rbp),%rax
    db9a:	48 89 85 50 fe ff ff 	mov    %rax,-0x1b0(%rbp)
    dba1:	48 8d 85 58 f3 ff ff 	lea    -0xca8(%rbp),%rax
    dba8:	48 89 85 58 fe ff ff 	mov    %rax,-0x1a8(%rbp)
    dbaf:	48 c7 85 60 fe ff ff 	movq   $0x0,-0x1a0(%rbp)
    dbb6:	00 00 00 00 
    dbba:	48 8d 85 58 f3 ff ff 	lea    -0xca8(%rbp),%rax
    dbc1:	48 89 85 68 fe ff ff 	mov    %rax,-0x198(%rbp)
    dbc8:	48 8d 85 58 f3 ff ff 	lea    -0xca8(%rbp),%rax
    dbcf:	48 89 85 70 fe ff ff 	mov    %rax,-0x190(%rbp)
    dbd6:	48 8d 85 58 f3 ff ff 	lea    -0xca8(%rbp),%rax
    dbdd:	48 89 85 78 fe ff ff 	mov    %rax,-0x188(%rbp)
    dbe4:	48 c7 85 80 fe ff ff 	movq   $0x0,-0x180(%rbp)
    dbeb:	00 00 00 00 
    dbef:	48 8d 85 58 f3 ff ff 	lea    -0xca8(%rbp),%rax
    dbf6:	48 89 85 88 fe ff ff 	mov    %rax,-0x178(%rbp)
    dbfd:	48 8d 85 58 f3 ff ff 	lea    -0xca8(%rbp),%rax
    dc04:	48 89 85 90 fe ff ff 	mov    %rax,-0x170(%rbp)
    dc0b:	48 c7 85 98 fe ff ff 	movq   $0x0,-0x168(%rbp)
    dc12:	00 00 00 00 
    dc16:	48 8d 85 58 f3 ff ff 	lea    -0xca8(%rbp),%rax
    dc1d:	48 89 85 a0 fe ff ff 	mov    %rax,-0x160(%rbp)
    dc24:	48 8d 85 58 f3 ff ff 	lea    -0xca8(%rbp),%rax
    dc2b:	48 89 85 a8 fe ff ff 	mov    %rax,-0x158(%rbp)
    dc32:	48 8d 85 58 f3 ff ff 	lea    -0xca8(%rbp),%rax
    dc39:	48 89 85 b0 fe ff ff 	mov    %rax,-0x150(%rbp)
    dc40:	48 8d 85 58 f3 ff ff 	lea    -0xca8(%rbp),%rax
    dc47:	48 89 85 b8 fe ff ff 	mov    %rax,-0x148(%rbp)
    dc4e:	48 c7 85 c0 fe ff ff 	movq   $0x0,-0x140(%rbp)
    dc55:	00 00 00 00 
    dc59:	48 8d 85 58 f3 ff ff 	lea    -0xca8(%rbp),%rax
    dc60:	48 89 85 c8 fe ff ff 	mov    %rax,-0x138(%rbp)
    dc67:	48 8d 85 58 f3 ff ff 	lea    -0xca8(%rbp),%rax
    dc6e:	48 89 85 d0 fe ff ff 	mov    %rax,-0x130(%rbp)
    dc75:	48 8d 85 58 f3 ff ff 	lea    -0xca8(%rbp),%rax
    dc7c:	48 89 85 d8 fe ff ff 	mov    %rax,-0x128(%rbp)
    dc83:	48 c7 85 e0 fe ff ff 	movq   $0x0,-0x120(%rbp)
    dc8a:	00 00 00 00 
    dc8e:	48 8d 85 58 f3 ff ff 	lea    -0xca8(%rbp),%rax
    dc95:	48 89 85 e8 fe ff ff 	mov    %rax,-0x118(%rbp)
    dc9c:	48 8d 85 58 f3 ff ff 	lea    -0xca8(%rbp),%rax
    dca3:	48 89 85 f0 fe ff ff 	mov    %rax,-0x110(%rbp)
    dcaa:	48 8d 85 58 f3 ff ff 	lea    -0xca8(%rbp),%rax
    dcb1:	48 89 85 f8 fe ff ff 	mov    %rax,-0x108(%rbp)
    dcb8:	48 8d 85 58 f3 ff ff 	lea    -0xca8(%rbp),%rax
    dcbf:	48 89 85 00 ff ff ff 	mov    %rax,-0x100(%rbp)
    dcc6:	48 8d 85 58 f3 ff ff 	lea    -0xca8(%rbp),%rax
    dccd:	48 89 85 08 ff ff ff 	mov    %rax,-0xf8(%rbp)
    dcd4:	48 8d 85 58 f3 ff ff 	lea    -0xca8(%rbp),%rax
    dcdb:	48 89 85 10 ff ff ff 	mov    %rax,-0xf0(%rbp)
    dce2:	48 8d 85 58 f3 ff ff 	lea    -0xca8(%rbp),%rax
    dce9:	48 89 85 18 ff ff ff 	mov    %rax,-0xe8(%rbp)
    dcf0:	48 8d 85 58 f3 ff ff 	lea    -0xca8(%rbp),%rax
    dcf7:	48 89 85 20 ff ff ff 	mov    %rax,-0xe0(%rbp)
    dcfe:	48 c7 85 28 ff ff ff 	movq   $0x0,-0xd8(%rbp)
    dd05:	00 00 00 00 
    dd09:	48 8d 85 58 f3 ff ff 	lea    -0xca8(%rbp),%rax
    dd10:	48 89 85 30 ff ff ff 	mov    %rax,-0xd0(%rbp)
    dd17:	48 8d 85 58 f3 ff ff 	lea    -0xca8(%rbp),%rax
    dd1e:	48 89 85 38 ff ff ff 	mov    %rax,-0xc8(%rbp)
    dd25:	48 c7 85 40 ff ff ff 	movq   $0x0,-0xc0(%rbp)
    dd2c:	00 00 00 00 
    dd30:	48 8d 85 58 f3 ff ff 	lea    -0xca8(%rbp),%rax
    dd37:	48 89 85 48 ff ff ff 	mov    %rax,-0xb8(%rbp)
    dd3e:	48 8d 85 58 f3 ff ff 	lea    -0xca8(%rbp),%rax
    dd45:	48 89 85 50 ff ff ff 	mov    %rax,-0xb0(%rbp)
    dd4c:	48 c7 85 58 ff ff ff 	movq   $0x0,-0xa8(%rbp)
    dd53:	00 00 00 00 
    dd57:	48 8d 85 58 f3 ff ff 	lea    -0xca8(%rbp),%rax
    dd5e:	48 89 85 60 ff ff ff 	mov    %rax,-0xa0(%rbp)
    dd65:	48 8d 85 58 f3 ff ff 	lea    -0xca8(%rbp),%rax
    dd6c:	48 89 85 68 ff ff ff 	mov    %rax,-0x98(%rbp)
    dd73:	48 8d 85 58 f3 ff ff 	lea    -0xca8(%rbp),%rax
    dd7a:	48 89 85 70 ff ff ff 	mov    %rax,-0x90(%rbp)
    dd81:	48 8d 85 58 f3 ff ff 	lea    -0xca8(%rbp),%rax
    dd88:	48 89 85 78 ff ff ff 	mov    %rax,-0x88(%rbp)
    dd8f:	48 8d 85 58 f3 ff ff 	lea    -0xca8(%rbp),%rax
    dd96:	48 89 45 80          	mov    %rax,-0x80(%rbp)
    dd9a:	48 8d 85 58 f3 ff ff 	lea    -0xca8(%rbp),%rax
    dda1:	48 89 45 88          	mov    %rax,-0x78(%rbp)
    dda5:	48 8d 85 58 f3 ff ff 	lea    -0xca8(%rbp),%rax
    ddac:	48 89 45 90          	mov    %rax,-0x70(%rbp)
    ddb0:	48 8d 85 58 f3 ff ff 	lea    -0xca8(%rbp),%rax
    ddb7:	48 89 45 98          	mov    %rax,-0x68(%rbp)
    ddbb:	48 c7 45 a0 00 00 00 	movq   $0x0,-0x60(%rbp)
    ddc2:	00 
    ddc3:	48 c7 45 a8 00 00 00 	movq   $0x0,-0x58(%rbp)
    ddca:	00 
    ddcb:	48 8d 85 58 f3 ff ff 	lea    -0xca8(%rbp),%rax
    ddd2:	48 89 45 b0          	mov    %rax,-0x50(%rbp)
    ddd6:	48 8d 85 58 f3 ff ff 	lea    -0xca8(%rbp),%rax
    dddd:	48 89 45 b8          	mov    %rax,-0x48(%rbp)
    dde1:	48 8d 85 58 f3 ff ff 	lea    -0xca8(%rbp),%rax
    dde8:	48 89 45 c0          	mov    %rax,-0x40(%rbp)
    ddec:	48 8d 85 58 f3 ff ff 	lea    -0xca8(%rbp),%rax
    ddf3:	48 89 45 c8          	mov    %rax,-0x38(%rbp)
    ddf7:	48 8d 85 e0 fb ff ff 	lea    -0x420(%rbp),%rax
    ddfe:	48 05 40 01 00 00    	add    $0x140,%rax
    de04:	48 89 85 98 f3 ff ff 	mov    %rax,-0xc68(%rbp)
    de0b:	48 8d 05 2e 5f 01 00 	lea    0x15f2e(%rip),%rax        # 23d40 <g_746>
    de12:	48 89 85 80 f4 ff ff 	mov    %rax,-0xb80(%rbp)
    de19:	48 8d 05 20 5f 01 00 	lea    0x15f20(%rip),%rax        # 23d40 <g_746>
    de20:	48 89 85 88 f4 ff ff 	mov    %rax,-0xb78(%rbp)
    de27:	48 8d 05 12 5f 01 00 	lea    0x15f12(%rip),%rax        # 23d40 <g_746>
    de2e:	48 89 85 90 f4 ff ff 	mov    %rax,-0xb70(%rbp)
    de35:	48 8d 05 04 5f 01 00 	lea    0x15f04(%rip),%rax        # 23d40 <g_746>
    de3c:	48 89 85 98 f4 ff ff 	mov    %rax,-0xb68(%rbp)
    de43:	48 8d 05 f6 5e 01 00 	lea    0x15ef6(%rip),%rax        # 23d40 <g_746>
    de4a:	48 89 85 a0 f4 ff ff 	mov    %rax,-0xb60(%rbp)
    de51:	48 8d 05 e8 5e 01 00 	lea    0x15ee8(%rip),%rax        # 23d40 <g_746>
    de58:	48 89 85 a8 f4 ff ff 	mov    %rax,-0xb58(%rbp)
    de5f:	48 8d 05 da 5e 01 00 	lea    0x15eda(%rip),%rax        # 23d40 <g_746>
    de66:	48 89 85 b0 f4 ff ff 	mov    %rax,-0xb50(%rbp)
    de6d:	48 8d 05 cc 5e 01 00 	lea    0x15ecc(%rip),%rax        # 23d40 <g_746>
    de74:	48 89 85 b8 f4 ff ff 	mov    %rax,-0xb48(%rbp)
    de7b:	48 8d 05 be 5e 01 00 	lea    0x15ebe(%rip),%rax        # 23d40 <g_746>
    de82:	48 89 85 c0 f4 ff ff 	mov    %rax,-0xb40(%rbp)
    de89:	48 8d 05 b0 5e 01 00 	lea    0x15eb0(%rip),%rax        # 23d40 <g_746>
    de90:	48 89 85 c8 f4 ff ff 	mov    %rax,-0xb38(%rbp)
    de97:	48 8d 05 a2 5e 01 00 	lea    0x15ea2(%rip),%rax        # 23d40 <g_746>
    de9e:	48 89 85 d0 f4 ff ff 	mov    %rax,-0xb30(%rbp)
    dea5:	48 8d 05 94 5e 01 00 	lea    0x15e94(%rip),%rax        # 23d40 <g_746>
    deac:	48 89 85 d8 f4 ff ff 	mov    %rax,-0xb28(%rbp)
    deb3:	48 8d 05 86 5e 01 00 	lea    0x15e86(%rip),%rax        # 23d40 <g_746>
    deba:	48 89 85 e0 f4 ff ff 	mov    %rax,-0xb20(%rbp)
    dec1:	48 8d 05 78 5e 01 00 	lea    0x15e78(%rip),%rax        # 23d40 <g_746>
    dec8:	48 89 85 e8 f4 ff ff 	mov    %rax,-0xb18(%rbp)
    decf:	48 8d 05 6a 5e 01 00 	lea    0x15e6a(%rip),%rax        # 23d40 <g_746>
    ded6:	48 89 85 f0 f4 ff ff 	mov    %rax,-0xb10(%rbp)
    dedd:	48 8d 05 5c 5e 01 00 	lea    0x15e5c(%rip),%rax        # 23d40 <g_746>
    dee4:	48 89 85 f8 f4 ff ff 	mov    %rax,-0xb08(%rbp)
    deeb:	48 8d 05 4e 5e 01 00 	lea    0x15e4e(%rip),%rax        # 23d40 <g_746>
    def2:	48 89 85 00 f5 ff ff 	mov    %rax,-0xb00(%rbp)
    def9:	48 8d 05 40 5e 01 00 	lea    0x15e40(%rip),%rax        # 23d40 <g_746>
    df00:	48 89 85 08 f5 ff ff 	mov    %rax,-0xaf8(%rbp)
    df07:	48 8d 05 32 5e 01 00 	lea    0x15e32(%rip),%rax        # 23d40 <g_746>
    df0e:	48 89 85 10 f5 ff ff 	mov    %rax,-0xaf0(%rbp)
    df15:	48 8d 05 24 5e 01 00 	lea    0x15e24(%rip),%rax        # 23d40 <g_746>
    df1c:	48 89 85 18 f5 ff ff 	mov    %rax,-0xae8(%rbp)
    df23:	48 8d 05 16 5e 01 00 	lea    0x15e16(%rip),%rax        # 23d40 <g_746>
    df2a:	48 89 85 20 f5 ff ff 	mov    %rax,-0xae0(%rbp)
    df31:	48 c7 85 20 f4 ff ff 	movq   $0x0,-0xbe0(%rbp)
    df38:	00 00 00 00 
    df3c:	48 c7 85 28 f4 ff ff 	movq   $0x0,-0xbd8(%rbp)
    df43:	00 00 00 00 
    df47:	48 c7 85 30 f4 ff ff 	movq   $0x0,-0xbd0(%rbp)
    df4e:	00 00 00 00 
    df52:	48 c7 85 38 f4 ff ff 	movq   $0x0,-0xbc8(%rbp)
    df59:	00 00 00 00 
    df5d:	48 c7 85 40 f4 ff ff 	movq   $0x0,-0xbc0(%rbp)
    df64:	00 00 00 00 
    df68:	48 8d 85 20 f4 ff ff 	lea    -0xbe0(%rbp),%rax
    df6f:	48 83 c0 20          	add    $0x20,%rax
    df73:	48 89 85 60 f3 ff ff 	mov    %rax,-0xca0(%rbp)
    df7a:	48 c7 85 10 f9 ff ff 	movq   $0x0,-0x6f0(%rbp)
    df81:	00 00 00 00 
    df85:	48 8d 85 60 f3 ff ff 	lea    -0xca0(%rbp),%rax
    df8c:	48 89 85 18 f9 ff ff 	mov    %rax,-0x6e8(%rbp)
    df93:	48 8d 85 60 f3 ff ff 	lea    -0xca0(%rbp),%rax
    df9a:	48 89 85 20 f9 ff ff 	mov    %rax,-0x6e0(%rbp)
    dfa1:	48 c7 85 28 f9 ff ff 	movq   $0x0,-0x6d8(%rbp)
    dfa8:	00 00 00 00 
    dfac:	48 8d 85 60 f3 ff ff 	lea    -0xca0(%rbp),%rax
    dfb3:	48 89 85 30 f9 ff ff 	mov    %rax,-0x6d0(%rbp)
    dfba:	48 8d 85 60 f3 ff ff 	lea    -0xca0(%rbp),%rax
    dfc1:	48 89 85 38 f9 ff ff 	mov    %rax,-0x6c8(%rbp)
    dfc8:	48 8d 85 60 f3 ff ff 	lea    -0xca0(%rbp),%rax
    dfcf:	48 89 85 40 f9 ff ff 	mov    %rax,-0x6c0(%rbp)
    dfd6:	48 c7 85 48 f9 ff ff 	movq   $0x0,-0x6b8(%rbp)
    dfdd:	00 00 00 00 
    dfe1:	48 8d 85 60 f3 ff ff 	lea    -0xca0(%rbp),%rax
    dfe8:	48 89 85 50 f9 ff ff 	mov    %rax,-0x6b0(%rbp)
    dfef:	48 8d 85 60 f3 ff ff 	lea    -0xca0(%rbp),%rax
    dff6:	48 89 85 58 f9 ff ff 	mov    %rax,-0x6a8(%rbp)
    dffd:	48 8d 85 60 f3 ff ff 	lea    -0xca0(%rbp),%rax
    e004:	48 89 85 60 f9 ff ff 	mov    %rax,-0x6a0(%rbp)
    e00b:	48 c7 85 68 f9 ff ff 	movq   $0x0,-0x698(%rbp)
    e012:	00 00 00 00 
    e016:	48 c7 85 70 f9 ff ff 	movq   $0x0,-0x690(%rbp)
    e01d:	00 00 00 00 
    e021:	48 c7 85 78 f9 ff ff 	movq   $0x0,-0x688(%rbp)
    e028:	00 00 00 00 
    e02c:	48 8d 85 60 f3 ff ff 	lea    -0xca0(%rbp),%rax
    e033:	48 89 85 80 f9 ff ff 	mov    %rax,-0x680(%rbp)
    e03a:	48 c7 85 88 f9 ff ff 	movq   $0x0,-0x678(%rbp)
    e041:	00 00 00 00 
    e045:	48 8d 85 60 f3 ff ff 	lea    -0xca0(%rbp),%rax
    e04c:	48 89 85 90 f9 ff ff 	mov    %rax,-0x670(%rbp)
    e053:	48 8d 85 60 f3 ff ff 	lea    -0xca0(%rbp),%rax
    e05a:	48 89 85 98 f9 ff ff 	mov    %rax,-0x668(%rbp)
    e061:	48 c7 85 a0 f9 ff ff 	movq   $0x0,-0x660(%rbp)
    e068:	00 00 00 00 
    e06c:	48 8d 85 60 f3 ff ff 	lea    -0xca0(%rbp),%rax
    e073:	48 89 85 a8 f9 ff ff 	mov    %rax,-0x658(%rbp)
    e07a:	48 c7 85 b0 f9 ff ff 	movq   $0x0,-0x650(%rbp)
    e081:	00 00 00 00 
    e085:	48 c7 85 b8 f9 ff ff 	movq   $0x0,-0x648(%rbp)
    e08c:	00 00 00 00 
    e090:	48 8d 85 60 f3 ff ff 	lea    -0xca0(%rbp),%rax
    e097:	48 89 85 c0 f9 ff ff 	mov    %rax,-0x640(%rbp)
    e09e:	48 c7 85 c8 f9 ff ff 	movq   $0x0,-0x638(%rbp)
    e0a5:	00 00 00 00 
    e0a9:	48 8d 85 60 f3 ff ff 	lea    -0xca0(%rbp),%rax
    e0b0:	48 89 85 d0 f9 ff ff 	mov    %rax,-0x630(%rbp)
    e0b7:	48 c7 85 d8 f9 ff ff 	movq   $0x0,-0x628(%rbp)
    e0be:	00 00 00 00 
    e0c2:	48 c7 85 e0 f9 ff ff 	movq   $0x0,-0x620(%rbp)
    e0c9:	00 00 00 00 
    e0cd:	48 8d 85 60 f3 ff ff 	lea    -0xca0(%rbp),%rax
    e0d4:	48 89 85 e8 f9 ff ff 	mov    %rax,-0x618(%rbp)
    e0db:	48 c7 85 f0 f9 ff ff 	movq   $0x0,-0x610(%rbp)
    e0e2:	00 00 00 00 
    e0e6:	48 8d 85 60 f3 ff ff 	lea    -0xca0(%rbp),%rax
    e0ed:	48 89 85 f8 f9 ff ff 	mov    %rax,-0x608(%rbp)
    e0f4:	48 8d 85 60 f3 ff ff 	lea    -0xca0(%rbp),%rax
    e0fb:	48 89 85 00 fa ff ff 	mov    %rax,-0x600(%rbp)
    e102:	48 8d 85 60 f3 ff ff 	lea    -0xca0(%rbp),%rax
    e109:	48 89 85 08 fa ff ff 	mov    %rax,-0x5f8(%rbp)
    e110:	48 8d 85 60 f3 ff ff 	lea    -0xca0(%rbp),%rax
    e117:	48 89 85 10 fa ff ff 	mov    %rax,-0x5f0(%rbp)
    e11e:	48 8d 85 60 f3 ff ff 	lea    -0xca0(%rbp),%rax
    e125:	48 89 85 18 fa ff ff 	mov    %rax,-0x5e8(%rbp)
    e12c:	48 c7 85 20 fa ff ff 	movq   $0x0,-0x5e0(%rbp)
    e133:	00 00 00 00 
    e137:	48 8d 85 60 f3 ff ff 	lea    -0xca0(%rbp),%rax
    e13e:	48 89 85 28 fa ff ff 	mov    %rax,-0x5d8(%rbp)
    e145:	48 c7 85 30 fa ff ff 	movq   $0x0,-0x5d0(%rbp)
    e14c:	00 00 00 00 
    e150:	48 8d 85 60 f3 ff ff 	lea    -0xca0(%rbp),%rax
    e157:	48 89 85 38 fa ff ff 	mov    %rax,-0x5c8(%rbp)
    e15e:	48 8d 85 60 f3 ff ff 	lea    -0xca0(%rbp),%rax
    e165:	48 89 85 40 fa ff ff 	mov    %rax,-0x5c0(%rbp)
    e16c:	48 c7 85 48 fa ff ff 	movq   $0x0,-0x5b8(%rbp)
    e173:	00 00 00 00 
    e177:	48 c7 85 50 fa ff ff 	movq   $0x0,-0x5b0(%rbp)
    e17e:	00 00 00 00 
    e182:	48 c7 85 58 fa ff ff 	movq   $0x0,-0x5a8(%rbp)
    e189:	00 00 00 00 
    e18d:	48 c7 85 60 fa ff ff 	movq   $0x0,-0x5a0(%rbp)
    e194:	00 00 00 00 
    e198:	48 8d 85 60 f3 ff ff 	lea    -0xca0(%rbp),%rax
    e19f:	48 89 85 68 fa ff ff 	mov    %rax,-0x598(%rbp)
    e1a6:	48 c7 85 70 fa ff ff 	movq   $0x0,-0x590(%rbp)
    e1ad:	00 00 00 00 
    e1b1:	48 c7 85 78 fa ff ff 	movq   $0x0,-0x588(%rbp)
    e1b8:	00 00 00 00 
    e1bc:	48 c7 85 80 fa ff ff 	movq   $0x0,-0x580(%rbp)
    e1c3:	00 00 00 00 
    e1c7:	48 c7 85 88 fa ff ff 	movq   $0x0,-0x578(%rbp)
    e1ce:	00 00 00 00 
    e1d2:	48 c7 85 90 fa ff ff 	movq   $0x0,-0x570(%rbp)
    e1d9:	00 00 00 00 
    e1dd:	48 8d 85 60 f3 ff ff 	lea    -0xca0(%rbp),%rax
    e1e4:	48 89 85 98 fa ff ff 	mov    %rax,-0x568(%rbp)
    e1eb:	48 c7 85 a0 fa ff ff 	movq   $0x0,-0x560(%rbp)
    e1f2:	00 00 00 00 
    e1f6:	48 8d 85 60 f3 ff ff 	lea    -0xca0(%rbp),%rax
    e1fd:	48 89 85 a8 fa ff ff 	mov    %rax,-0x558(%rbp)
    e204:	48 c7 85 b0 fa ff ff 	movq   $0x0,-0x550(%rbp)
    e20b:	00 00 00 00 
    e20f:	48 c7 85 b8 fa ff ff 	movq   $0x0,-0x548(%rbp)
    e216:	00 00 00 00 
    e21a:	48 c7 85 c0 fa ff ff 	movq   $0x0,-0x540(%rbp)
    e221:	00 00 00 00 
    e225:	48 8d 85 60 f3 ff ff 	lea    -0xca0(%rbp),%rax
    e22c:	48 89 85 c8 fa ff ff 	mov    %rax,-0x538(%rbp)
    e233:	48 c7 85 d0 fa ff ff 	movq   $0x0,-0x530(%rbp)
    e23a:	00 00 00 00 
    e23e:	48 8d 85 60 f3 ff ff 	lea    -0xca0(%rbp),%rax
    e245:	48 89 85 d8 fa ff ff 	mov    %rax,-0x528(%rbp)
    e24c:	48 8d 85 60 f3 ff ff 	lea    -0xca0(%rbp),%rax
    e253:	48 89 85 e0 fa ff ff 	mov    %rax,-0x520(%rbp)
    e25a:	48 c7 85 e8 fa ff ff 	movq   $0x0,-0x518(%rbp)
    e261:	00 00 00 00 
    e265:	48 8d 85 60 f3 ff ff 	lea    -0xca0(%rbp),%rax
    e26c:	48 89 85 f0 fa ff ff 	mov    %rax,-0x510(%rbp)
    e273:	48 c7 85 f8 fa ff ff 	movq   $0x0,-0x508(%rbp)
    e27a:	00 00 00 00 
    e27e:	48 8d 85 60 f3 ff ff 	lea    -0xca0(%rbp),%rax
    e285:	48 89 85 00 fb ff ff 	mov    %rax,-0x500(%rbp)
    e28c:	48 8d 85 60 f3 ff ff 	lea    -0xca0(%rbp),%rax
    e293:	48 89 85 08 fb ff ff 	mov    %rax,-0x4f8(%rbp)
    e29a:	48 8d 85 60 f3 ff ff 	lea    -0xca0(%rbp),%rax
    e2a1:	48 89 85 10 fb ff ff 	mov    %rax,-0x4f0(%rbp)
    e2a8:	48 8d 85 60 f3 ff ff 	lea    -0xca0(%rbp),%rax
    e2af:	48 89 85 18 fb ff ff 	mov    %rax,-0x4e8(%rbp)
    e2b6:	48 8d 85 60 f3 ff ff 	lea    -0xca0(%rbp),%rax
    e2bd:	48 89 85 20 fb ff ff 	mov    %rax,-0x4e0(%rbp)
    e2c4:	48 8d 85 60 f3 ff ff 	lea    -0xca0(%rbp),%rax
    e2cb:	48 89 85 28 fb ff ff 	mov    %rax,-0x4d8(%rbp)
    e2d2:	48 8d 85 60 f3 ff ff 	lea    -0xca0(%rbp),%rax
    e2d9:	48 89 85 30 fb ff ff 	mov    %rax,-0x4d0(%rbp)
    e2e0:	48 8d 85 60 f3 ff ff 	lea    -0xca0(%rbp),%rax
    e2e7:	48 89 85 38 fb ff ff 	mov    %rax,-0x4c8(%rbp)
    e2ee:	48 c7 85 40 fb ff ff 	movq   $0x0,-0x4c0(%rbp)
    e2f5:	00 00 00 00 
    e2f9:	48 c7 85 48 fb ff ff 	movq   $0x0,-0x4b8(%rbp)
    e300:	00 00 00 00 
    e304:	48 c7 85 50 fb ff ff 	movq   $0x0,-0x4b0(%rbp)
    e30b:	00 00 00 00 
    e30f:	48 c7 85 58 fb ff ff 	movq   $0x0,-0x4a8(%rbp)
    e316:	00 00 00 00 
    e31a:	48 8d 85 60 f3 ff ff 	lea    -0xca0(%rbp),%rax
    e321:	48 89 85 60 fb ff ff 	mov    %rax,-0x4a0(%rbp)
    e328:	48 c7 85 68 fb ff ff 	movq   $0x0,-0x498(%rbp)
    e32f:	00 00 00 00 
    e333:	48 8d 85 60 f3 ff ff 	lea    -0xca0(%rbp),%rax
    e33a:	48 89 85 70 fb ff ff 	mov    %rax,-0x490(%rbp)
    e341:	48 c7 85 78 fb ff ff 	movq   $0x0,-0x488(%rbp)
    e348:	00 00 00 00 
    e34c:	48 c7 85 80 fb ff ff 	movq   $0x0,-0x480(%rbp)
    e353:	00 00 00 00 
    e357:	48 8d 85 60 f3 ff ff 	lea    -0xca0(%rbp),%rax
    e35e:	48 89 85 88 fb ff ff 	mov    %rax,-0x478(%rbp)
    e365:	48 8d 85 60 f3 ff ff 	lea    -0xca0(%rbp),%rax
    e36c:	48 89 85 90 fb ff ff 	mov    %rax,-0x470(%rbp)
    e373:	48 8d 85 60 f3 ff ff 	lea    -0xca0(%rbp),%rax
    e37a:	48 89 85 98 fb ff ff 	mov    %rax,-0x468(%rbp)
    e381:	48 c7 85 a0 fb ff ff 	movq   $0x0,-0x460(%rbp)
    e388:	00 00 00 00 
    e38c:	48 8d 85 60 f3 ff ff 	lea    -0xca0(%rbp),%rax
    e393:	48 89 85 a8 fb ff ff 	mov    %rax,-0x458(%rbp)
    e39a:	48 c7 85 b0 fb ff ff 	movq   $0x0,-0x450(%rbp)
    e3a1:	00 00 00 00 
    e3a5:	48 c7 85 b8 fb ff ff 	movq   $0x0,-0x448(%rbp)
    e3ac:	00 00 00 00 
    e3b0:	48 8d 85 60 f3 ff ff 	lea    -0xca0(%rbp),%rax
    e3b7:	48 89 85 c0 fb ff ff 	mov    %rax,-0x440(%rbp)
    e3be:	48 c7 85 c8 fb ff ff 	movq   $0x0,-0x438(%rbp)
    e3c5:	00 00 00 00 
    e3c9:	48 8d 85 60 f3 ff ff 	lea    -0xca0(%rbp),%rax
    e3d0:	48 89 85 d0 fb ff ff 	mov    %rax,-0x430(%rbp)
    e3d7:	48 8d 85 60 f3 ff ff 	lea    -0xca0(%rbp),%rax
    e3de:	48 89 85 d8 fb ff ff 	mov    %rax,-0x428(%rbp)
    e3e5:	48 8d 05 84 bc 00 00 	lea    0xbc84(%rip),%rax        # 1a070 <g_1413>
    e3ec:	48 89 85 68 f3 ff ff 	mov    %rax,-0xc98(%rbp)
    e3f3:	48 8d 85 68 f3 ff ff 	lea    -0xc98(%rbp),%rax
    e3fa:	48 89 85 70 f3 ff ff 	mov    %rax,-0xc90(%rbp)
    e401:	48 8d 85 70 f3 ff ff 	lea    -0xc90(%rbp),%rax
    e408:	48 89 85 78 f3 ff ff 	mov    %rax,-0xc88(%rbp)
    e40f:	48 8d 85 78 f3 ff ff 	lea    -0xc88(%rbp),%rax
    e416:	48 89 85 a0 f3 ff ff 	mov    %rax,-0xc60(%rbp)
    e41d:	66 c7 85 14 f3 ff ff 	movw   $0xe178,-0xcec(%rbp)
    e424:	78 e1 
    e426:	c7 85 30 f3 ff ff ff 	movl   $0xffffffff,-0xcd0(%rbp)
    e42d:	ff ff ff 
    e430:	48 8d 05 1f 1a 01 00 	lea    0x11a1f(%rip),%rax        # 1fe56 <g_1334+0x6>
    e437:	48 89 85 a8 f3 ff ff 	mov    %rax,-0xc58(%rbp)
    e43e:	48 8d 05 7b 19 01 00 	lea    0x1197b(%rip),%rax        # 1fdc0 <g_1092>
    e445:	48 89 85 b0 f3 ff ff 	mov    %rax,-0xc50(%rbp)
    e44c:	8b 85 2c f3 ff ff    	mov    -0xcd4(%rbp),%eax
    e452:	4c 63 e0             	movslq %eax,%r12
    e455:	48 8b 9d 40 f3 ff ff 	mov    -0xcc0(%rbp),%rbx
    e45c:	48 8b 85 40 f3 ff ff 	mov    -0xcc0(%rbp),%rax
    e463:	48 89 c7             	mov    %rax,%rdi
    e466:	e8 fa 4d 00 00       	callq  13265 <func_34>
    e46b:	0f b6 d0             	movzbl %al,%edx
    e46e:	48 8d 85 50 f3 ff ff 	lea    -0xcb0(%rbp),%rax
    e475:	48 39 85 80 f3 ff ff 	cmp    %rax,-0xc80(%rbp)
    e47c:	0f 95 c0             	setne  %al
    e47f:	0f b6 c0             	movzbl %al,%eax
    e482:	39 85 2c f3 ff ff    	cmp    %eax,-0xcd4(%rbp)
    e488:	0f 9f c0             	setg   %al
    e48b:	0f b6 c0             	movzbl %al,%eax
    e48e:	48 39 85 88 f3 ff ff 	cmp    %rax,-0xc78(%rbp)
    e495:	0f 9d c0             	setge  %al
    e498:	0f b6 c0             	movzbl %al,%eax
    e49b:	39 c2                	cmp    %eax,%edx
    e49d:	0f 9e c0             	setle  %al
    e4a0:	0f b6 f0             	movzbl %al,%esi
    e4a3:	8b 85 0c f3 ff ff    	mov    -0xcf4(%rbp),%eax
    e4a9:	48 98                	cltq   
    e4ab:	8b 95 18 f3 ff ff    	mov    -0xce8(%rbp),%edx
    e4b1:	4d 89 e0             	mov    %r12,%r8
    e4b4:	89 d1                	mov    %edx,%ecx
    e4b6:	48 89 da             	mov    %rbx,%rdx
    e4b9:	48 89 c7             	mov    %rax,%rdi
    e4bc:	e8 b0 47 00 00       	callq  12c71 <func_26>
    e4c1:	48 89 c7             	mov    %rax,%rdi
    e4c4:	e8 b2 29 00 00       	callq  10e7b <func_24>
    e4c9:	48 8b 95 90 f3 ff ff 	mov    -0xc70(%rbp),%rdx
    e4d0:	48 89 02             	mov    %rax,(%rdx)
    e4d3:	48 8b 85 90 f3 ff ff 	mov    -0xc70(%rbp),%rax
    e4da:	48 8b 00             	mov    (%rax),%rax
    e4dd:	48 89 c7             	mov    %rax,%rdi
    e4e0:	e8 67 08 00 00       	callq  ed4c <func_22>
    e4e5:	0f b7 c0             	movzwl %ax,%eax
    e4e8:	8b 95 0c f3 ff ff    	mov    -0xcf4(%rbp),%edx
    e4ee:	89 d6                	mov    %edx,%esi
    e4f0:	89 c7                	mov    %eax,%edi
    e4f2:	e8 c7 98 ff ff       	callq  7dbe <safe_lshift_func_uint16_t_u_s>
    e4f7:	48 83 bd 88 f3 ff ff 	cmpq   $0x0,-0xc78(%rbp)
    e4fe:	00 
    e4ff:	7f 0b                	jg     e50c <func_18+0xe56>
    e501:	0f b6 05 a4 0e 01 00 	movzbl 0x10ea4(%rip),%eax        # 1f3ac <g_550+0xc>
    e508:	84 c0                	test   %al,%al
    e50a:	74 07                	je     e513 <func_18+0xe5d>
    e50c:	ba 01 00 00 00       	mov    $0x1,%edx
    e511:	eb 05                	jmp    e518 <func_18+0xe62>
    e513:	ba 00 00 00 00       	mov    $0x0,%edx
    e518:	8b 85 bc f6 ff ff    	mov    -0x944(%rbp),%eax
    e51e:	21 d0                	and    %edx,%eax
    e520:	89 85 bc f6 ff ff    	mov    %eax,-0x944(%rbp)
    e526:	48 8b 05 4b 5d 01 00 	mov    0x15d4b(%rip),%rax        # 24278 <g_1397>
    e52d:	48 39 85 98 f3 ff ff 	cmp    %rax,-0xc68(%rbp)
    e534:	0f 95 c0             	setne  %al
    e537:	0f b6 d8             	movzbl %al,%ebx
    e53a:	8b 85 0c f3 ff ff    	mov    -0xcf4(%rbp),%eax
    e540:	0f b6 d0             	movzbl %al,%edx
    e543:	48 8b 85 60 f3 ff ff 	mov    -0xca0(%rbp),%rax
    e54a:	48 89 05 3f 63 01 00 	mov    %rax,0x1633f(%rip)        # 24890 <g_1408>
    e551:	48 8b 0d 38 63 01 00 	mov    0x16338(%rip),%rcx        # 24890 <g_1408>
    e558:	48 8b 05 19 5d 01 00 	mov    0x15d19(%rip),%rax        # 24278 <g_1397>
    e55f:	48 39 c1             	cmp    %rax,%rcx
    e562:	0f 95 c0             	setne  %al
    e565:	0f b6 c0             	movzbl %al,%eax
    e568:	89 d6                	mov    %edx,%esi
    e56a:	89 c7                	mov    %eax,%edi
    e56c:	e8 6a 96 ff ff       	callq  7bdb <safe_div_func_uint8_t_u_u>
    e571:	0f b6 d0             	movzbl %al,%edx
    e574:	48 8d 85 78 f3 ff ff 	lea    -0xc88(%rbp),%rax
    e57b:	48 39 85 a0 f3 ff ff 	cmp    %rax,-0xc60(%rbp)
    e582:	0f 94 c0             	sete   %al
    e585:	0f b6 c0             	movzbl %al,%eax
    e588:	31 d0                	xor    %edx,%eax
    e58a:	39 c3                	cmp    %eax,%ebx
    e58c:	0f 9e c0             	setle  %al
    e58f:	0f b6 c0             	movzbl %al,%eax
    e592:	89 85 2c f3 ff ff    	mov    %eax,-0xcd4(%rbp)
    e598:	0f bf 85 14 f3 ff ff 	movswl -0xcec(%rbp),%eax
    e59f:	39 85 2c f3 ff ff    	cmp    %eax,-0xcd4(%rbp)
    e5a5:	0f 9d c0             	setge  %al
    e5a8:	0f b6 d0             	movzbl %al,%edx
    e5ab:	0f bf 85 14 f3 ff ff 	movswl -0xcec(%rbp),%eax
    e5b2:	39 c2                	cmp    %eax,%edx
    e5b4:	0f 9c c0             	setl   %al
    e5b7:	0f b6 c0             	movzbl %al,%eax
    e5ba:	39 85 0c f3 ff ff    	cmp    %eax,-0xcf4(%rbp)
    e5c0:	48 8b 05 11 5c 01 00 	mov    0x15c11(%rip),%rax        # 241d8 <g_1166>
    e5c7:	48 8b 00             	mov    (%rax),%rax
    e5ca:	8b 00                	mov    (%rax),%eax
    e5cc:	8b 95 bc f6 ff ff    	mov    -0x944(%rbp),%edx
    e5d2:	39 d0                	cmp    %edx,%eax
    e5d4:	0f 97 c0             	seta   %al
    e5d7:	0f b6 c0             	movzbl %al,%eax
    e5da:	89 c6                	mov    %eax,%esi
    e5dc:	bf 1f 25 00 00       	mov    $0x251f,%edi
    e5e1:	e8 57 97 ff ff       	callq  7d3d <safe_mul_func_uint16_t_u_u>
    e5e6:	0f b7 c0             	movzwl %ax,%eax
    e5e9:	25 81 00 00 00       	and    $0x81,%eax
    e5ee:	48 be 4a cf b7 aa 48 	movabs $0x3f652c48aab7cf4a,%rsi
    e5f5:	2c 65 3f 
    e5f8:	48 89 c7             	mov    %rax,%rdi
    e5fb:	e8 2e 9a ff ff       	callq  802e <safe_add_func_uint64_t_u_u>
    e600:	8b 95 18 f3 ff ff    	mov    -0xce8(%rbp),%edx
    e606:	89 d2                	mov    %edx,%edx
    e608:	48 31 d0             	xor    %rdx,%rax
    e60b:	89 c2                	mov    %eax,%edx
    e60d:	8b 85 30 f3 ff ff    	mov    -0xcd0(%rbp),%eax
    e613:	21 d0                	and    %edx,%eax
    e615:	89 85 30 f3 ff ff    	mov    %eax,-0xcd0(%rbp)
    e61b:	8b 95 30 f3 ff ff    	mov    -0xcd0(%rbp),%edx
    e621:	48 8b 85 a8 f3 ff ff 	mov    -0xc58(%rbp),%rax
    e628:	8b 00                	mov    (%rax),%eax
    e62a:	21 c2                	and    %eax,%edx
    e62c:	48 8b 85 a8 f3 ff ff 	mov    -0xc58(%rbp),%rax
    e633:	89 10                	mov    %edx,(%rax)
    e635:	c7 05 c1 17 01 00 00 	movl   $0x0,0x117c1(%rip)        # 1fe00 <g_1172>
    e63c:	00 00 00 
    e63f:	e9 b1 06 00 00       	jmpq   ecf5 <func_18+0x163f>
    e644:	0f b7 85 1c f3 ff ff 	movzwl -0xce4(%rbp),%eax
    e64b:	66 25 00 f0          	and    $0xf000,%ax
    e64f:	83 c8 24             	or     $0x24,%eax
    e652:	66 89 85 1c f3 ff ff 	mov    %ax,-0xce4(%rbp)
    e659:	c6 85 12 f3 ff ff ff 	movb   $0xff,-0xcee(%rbp)
    e660:	c7 85 30 f5 ff ff 06 	movl   $0x6,-0xad0(%rbp)
    e667:	00 00 00 
    e66a:	c7 85 34 f5 ff ff fb 	movl   $0xfffffffb,-0xacc(%rbp)
    e671:	ff ff ff 
    e674:	c7 85 38 f5 ff ff a3 	movl   $0x5f3ea7a3,-0xac8(%rbp)
    e67b:	a7 3e 5f 
    e67e:	c7 85 3c f5 ff ff f9 	movl   $0xfffffff9,-0xac4(%rbp)
    e685:	ff ff ff 
    e688:	c7 85 40 f5 ff ff f9 	movl   $0xfffffff9,-0xac0(%rbp)
    e68f:	ff ff ff 
    e692:	c7 85 44 f5 ff ff a3 	movl   $0x5f3ea7a3,-0xabc(%rbp)
    e699:	a7 3e 5f 
    e69c:	c7 85 48 f5 ff ff fb 	movl   $0xfffffffb,-0xab8(%rbp)
    e6a3:	ff ff ff 
    e6a6:	c7 85 4c f5 ff ff 06 	movl   $0x6,-0xab4(%rbp)
    e6ad:	00 00 00 
    e6b0:	c7 85 50 f5 ff ff a3 	movl   $0x5f3ea7a3,-0xab0(%rbp)
    e6b7:	a7 3e 5f 
    e6ba:	c7 85 54 f5 ff ff 01 	movl   $0x1,-0xaac(%rbp)
    e6c1:	00 00 00 
    e6c4:	c7 85 58 f5 ff ff 1d 	movl   $0x713df41d,-0xaa8(%rbp)
    e6cb:	f4 3d 71 
    e6ce:	c7 85 5c f5 ff ff 00 	movl   $0x0,-0xaa4(%rbp)
    e6d5:	00 00 00 
    e6d8:	c7 85 60 f5 ff ff ce 	movl   $0xf5789dce,-0xaa0(%rbp)
    e6df:	9d 78 f5 
    e6e2:	c7 85 64 f5 ff ff ce 	movl   $0xf5789dce,-0xa9c(%rbp)
    e6e9:	9d 78 f5 
    e6ec:	c7 85 68 f5 ff ff 00 	movl   $0x0,-0xa98(%rbp)
    e6f3:	00 00 00 
    e6f6:	c7 85 6c f5 ff ff 1d 	movl   $0x713df41d,-0xa94(%rbp)
    e6fd:	f4 3d 71 
    e700:	c7 85 70 f5 ff ff 01 	movl   $0x1,-0xa90(%rbp)
    e707:	00 00 00 
    e70a:	c7 85 74 f5 ff ff 00 	movl   $0x0,-0xa8c(%rbp)
    e711:	00 00 00 
    e714:	c7 85 78 f5 ff ff 06 	movl   $0x6,-0xa88(%rbp)
    e71b:	00 00 00 
    e71e:	c7 85 7c f5 ff ff fb 	movl   $0xfffffffb,-0xa84(%rbp)
    e725:	ff ff ff 
    e728:	c7 85 80 f5 ff ff a3 	movl   $0x5f3ea7a3,-0xa80(%rbp)
    e72f:	a7 3e 5f 
    e732:	c7 85 84 f5 ff ff f9 	movl   $0xfffffff9,-0xa7c(%rbp)
    e739:	ff ff ff 
    e73c:	c7 85 88 f5 ff ff f9 	movl   $0xfffffff9,-0xa78(%rbp)
    e743:	ff ff ff 
    e746:	c7 85 8c f5 ff ff a3 	movl   $0x5f3ea7a3,-0xa74(%rbp)
    e74d:	a7 3e 5f 
    e750:	c7 85 90 f5 ff ff fb 	movl   $0xfffffffb,-0xa70(%rbp)
    e757:	ff ff ff 
    e75a:	c7 85 94 f5 ff ff 06 	movl   $0x6,-0xa6c(%rbp)
    e761:	00 00 00 
    e764:	c7 85 98 f5 ff ff a3 	movl   $0x5f3ea7a3,-0xa68(%rbp)
    e76b:	a7 3e 5f 
    e76e:	c7 85 9c f5 ff ff 01 	movl   $0x1,-0xa64(%rbp)
    e775:	00 00 00 
    e778:	c7 85 a0 f5 ff ff 1d 	movl   $0x713df41d,-0xa60(%rbp)
    e77f:	f4 3d 71 
    e782:	c7 85 a4 f5 ff ff 00 	movl   $0x0,-0xa5c(%rbp)
    e789:	00 00 00 
    e78c:	c7 85 a8 f5 ff ff ce 	movl   $0xf5789dce,-0xa58(%rbp)
    e793:	9d 78 f5 
    e796:	c7 85 ac f5 ff ff ce 	movl   $0xf5789dce,-0xa54(%rbp)
    e79d:	9d 78 f5 
    e7a0:	c7 85 b0 f5 ff ff 00 	movl   $0x0,-0xa50(%rbp)
    e7a7:	00 00 00 
    e7aa:	c7 85 b4 f5 ff ff 1d 	movl   $0x713df41d,-0xa4c(%rbp)
    e7b1:	f4 3d 71 
    e7b4:	c7 85 b8 f5 ff ff 01 	movl   $0x1,-0xa48(%rbp)
    e7bb:	00 00 00 
    e7be:	c7 85 bc f5 ff ff 00 	movl   $0x0,-0xa44(%rbp)
    e7c5:	00 00 00 
    e7c8:	c7 85 c0 f5 ff ff 06 	movl   $0x6,-0xa40(%rbp)
    e7cf:	00 00 00 
    e7d2:	c7 85 c4 f5 ff ff fb 	movl   $0xfffffffb,-0xa3c(%rbp)
    e7d9:	ff ff ff 
    e7dc:	c7 85 c8 f5 ff ff a3 	movl   $0x5f3ea7a3,-0xa38(%rbp)
    e7e3:	a7 3e 5f 
    e7e6:	c7 85 cc f5 ff ff f9 	movl   $0xfffffff9,-0xa34(%rbp)
    e7ed:	ff ff ff 
    e7f0:	c7 85 d0 f5 ff ff f9 	movl   $0xfffffff9,-0xa30(%rbp)
    e7f7:	ff ff ff 
    e7fa:	c7 85 d4 f5 ff ff a3 	movl   $0x5f3ea7a3,-0xa2c(%rbp)
    e801:	a7 3e 5f 
    e804:	c7 85 d8 f5 ff ff fb 	movl   $0xfffffffb,-0xa28(%rbp)
    e80b:	ff ff ff 
    e80e:	c7 85 dc f5 ff ff 06 	movl   $0x6,-0xa24(%rbp)
    e815:	00 00 00 
    e818:	c7 85 e0 f5 ff ff a3 	movl   $0x5f3ea7a3,-0xa20(%rbp)
    e81f:	a7 3e 5f 
    e822:	c7 85 e4 f5 ff ff 01 	movl   $0x1,-0xa1c(%rbp)
    e829:	00 00 00 
    e82c:	c7 85 e8 f5 ff ff 1d 	movl   $0x713df41d,-0xa18(%rbp)
    e833:	f4 3d 71 
    e836:	c7 85 ec f5 ff ff 00 	movl   $0x0,-0xa14(%rbp)
    e83d:	00 00 00 
    e840:	c7 85 f0 f5 ff ff ce 	movl   $0xf5789dce,-0xa10(%rbp)
    e847:	9d 78 f5 
    e84a:	c7 85 f4 f5 ff ff ce 	movl   $0xf5789dce,-0xa0c(%rbp)
    e851:	9d 78 f5 
    e854:	c7 85 f8 f5 ff ff 00 	movl   $0x0,-0xa08(%rbp)
    e85b:	00 00 00 
    e85e:	c7 85 fc f5 ff ff 1d 	movl   $0x713df41d,-0xa04(%rbp)
    e865:	f4 3d 71 
    e868:	c7 85 00 f6 ff ff 01 	movl   $0x1,-0xa00(%rbp)
    e86f:	00 00 00 
    e872:	c7 85 04 f6 ff ff 00 	movl   $0x0,-0x9fc(%rbp)
    e879:	00 00 00 
    e87c:	48 8d 85 30 f7 ff ff 	lea    -0x8d0(%rbp),%rax
    e883:	48 8d 15 b6 3b 01 00 	lea    0x13bb6(%rip),%rdx        # 22440 <g_2024+0x1e0>
    e88a:	b9 3c 00 00 00       	mov    $0x3c,%ecx
    e88f:	48 89 c7             	mov    %rax,%rdi
    e892:	48 89 d6             	mov    %rdx,%rsi
    e895:	f3 48 a5             	rep movsq %ds:(%rsi),%es:(%rdi)
    e898:	c7 85 20 f3 ff ff 00 	movl   $0x0,-0xce0(%rbp)
    e89f:	00 00 00 
    e8a2:	eb 46                	jmp    e8ea <func_18+0x1234>
    e8a4:	c7 85 24 f3 ff ff 00 	movl   $0x0,-0xcdc(%rbp)
    e8ab:	00 00 00 
    e8ae:	eb 2a                	jmp    e8da <func_18+0x1224>
    e8b0:	8b 85 24 f3 ff ff    	mov    -0xcdc(%rbp),%eax
    e8b6:	48 63 d0             	movslq %eax,%rdx
    e8b9:	8b 85 20 f3 ff ff    	mov    -0xce0(%rbp),%eax
    e8bf:	48 98                	cltq   
    e8c1:	48 01 d0             	add    %rdx,%rax
    e8c4:	48 8d 15 55 54 01 00 	lea    0x15455(%rip),%rdx        # 23d20 <g_651>
    e8cb:	48 89 94 c5 c0 f3 ff 	mov    %rdx,-0xc40(%rbp,%rax,8)
    e8d2:	ff 
    e8d3:	83 85 24 f3 ff ff 01 	addl   $0x1,-0xcdc(%rbp)
    e8da:	83 bd 24 f3 ff ff 00 	cmpl   $0x0,-0xcdc(%rbp)
    e8e1:	7e cd                	jle    e8b0 <func_18+0x11fa>
    e8e3:	83 85 20 f3 ff ff 01 	addl   $0x1,-0xce0(%rbp)
    e8ea:	83 bd 20 f3 ff ff 02 	cmpl   $0x2,-0xce0(%rbp)
    e8f1:	7e b1                	jle    e8a4 <func_18+0x11ee>
    e8f3:	48 c7 05 0a 15 01 00 	movq   $0x0,0x1150a(%rip)        # 1fe08 <g_1189>
    e8fa:	00 00 00 00 
    e8fe:	e9 50 03 00 00       	jmpq   ec53 <func_18+0x159d>
    e903:	48 8d 05 a2 0a 01 00 	lea    0x10aa2(%rip),%rax        # 1f3ac <g_550+0xc>
    e90a:	48 89 85 b8 f3 ff ff 	mov    %rax,-0xc48(%rbp)
    e911:	c7 85 34 f3 ff ff 07 	movl   $0x7,-0xccc(%rbp)
    e918:	00 00 00 
    e91b:	c7 85 38 f3 ff ff 46 	movl   $0x77aa1946,-0xcc8(%rbp)
    e922:	19 aa 77 
    e925:	66 c7 85 16 f3 ff ff 	movw   $0x6,-0xcea(%rbp)
    e92c:	06 00 
    e92e:	c7 85 3c f3 ff ff ff 	movl   $0xffffffff,-0xcc4(%rbp)
    e935:	ff ff ff 
    e938:	c7 85 28 f3 ff ff 00 	movl   $0x0,-0xcd8(%rbp)
    e93f:	00 00 00 
    e942:	eb 1a                	jmp    e95e <func_18+0x12a8>
    e944:	8b 85 28 f3 ff ff    	mov    -0xcd8(%rbp),%eax
    e94a:	48 98                	cltq   
    e94c:	c7 84 85 e0 f3 ff ff 	movl   $0x77564b4a,-0xc20(%rbp,%rax,4)
    e953:	4a 4b 56 77 
    e957:	83 85 28 f3 ff ff 01 	addl   $0x1,-0xcd8(%rbp)
    e95e:	83 bd 28 f3 ff ff 05 	cmpl   $0x5,-0xcd8(%rbp)
    e965:	7e dd                	jle    e944 <func_18+0x128e>
    e967:	0f be 9d 12 f3 ff ff 	movsbl -0xcee(%rbp),%ebx
    e96e:	8b 05 fc 09 01 00    	mov    0x109fc(%rip),%eax        # 1f370 <g_446>
    e974:	44 0f bf e0          	movswl %ax,%r12d
    e978:	44 8b ad 0c f3 ff ff 	mov    -0xcf4(%rbp),%r13d
    e97f:	8b 85 0c f3 ff ff    	mov    -0xcf4(%rbp),%eax
    e985:	89 c6                	mov    %eax,%esi
    e987:	bf 01 00 00 00       	mov    $0x1,%edi
    e98c:	e8 27 95 ff ff       	callq  7eb8 <safe_add_func_uint32_t_u_u>
    e991:	41 89 c6             	mov    %eax,%r14d
    e994:	48 8b 05 6d 14 01 00 	mov    0x1146d(%rip),%rax        # 1fe08 <g_1189>
    e99b:	48 8d 14 00          	lea    (%rax,%rax,1),%rdx
    e99f:	48 8d 05 9a 13 01 00 	lea    0x1139a(%rip),%rax        # 1fd40 <g_768>
    e9a6:	0f b7 04 02          	movzwl (%rdx,%rax,1),%eax
    e9aa:	0f b7 c0             	movzwl %ax,%eax
    e9ad:	89 c6                	mov    %eax,%esi
    e9af:	bf f9 ff 00 00       	mov    $0xfff9,%edi
    e9b4:	e8 46 93 ff ff       	callq  7cff <safe_add_func_uint16_t_u_u>
    e9b9:	0f b7 c0             	movzwl %ax,%eax
    e9bc:	41 39 c6             	cmp    %eax,%r14d
    e9bf:	0f 95 c0             	setne  %al
    e9c2:	0f b6 d0             	movzbl %al,%edx
    e9c5:	48 8b 85 a8 f3 ff ff 	mov    -0xc58(%rbp),%rax
    e9cc:	89 10                	mov    %edx,(%rax)
    e9ce:	48 8b 85 a8 f3 ff ff 	mov    -0xc58(%rbp),%rax
    e9d5:	8b 00                	mov    (%rax),%eax
    e9d7:	8b 95 0c f3 ff ff    	mov    -0xcf4(%rbp),%edx
    e9dd:	89 d6                	mov    %edx,%esi
    e9df:	89 c7                	mov    %eax,%edi
    e9e1:	e8 d0 8b ff ff       	callq  75b6 <safe_add_func_int32_t_s_s>
    e9e6:	48 8b 15 1b 14 01 00 	mov    0x1141b(%rip),%rdx        # 1fe08 <g_1189>
    e9ed:	48 8d 0c 12          	lea    (%rdx,%rdx,1),%rcx
    e9f1:	48 8d 15 48 13 01 00 	lea    0x11348(%rip),%rdx        # 1fd40 <g_768>
    e9f8:	0f b7 14 11          	movzwl (%rcx,%rdx,1),%edx
    e9fc:	0f b7 d2             	movzwl %dx,%edx
    e9ff:	39 d0                	cmp    %edx,%eax
    ea01:	0f 9d c0             	setge  %al
    ea04:	0f b6 d0             	movzbl %al,%edx
    ea07:	48 8b 05 ca 57 01 00 	mov    0x157ca(%rip),%rax        # 241d8 <g_1166>
    ea0e:	48 8b 00             	mov    (%rax),%rax
    ea11:	8b 00                	mov    (%rax),%eax
    ea13:	89 d6                	mov    %edx,%esi
    ea15:	89 c7                	mov    %eax,%edi
    ea17:	e8 9c 94 ff ff       	callq  7eb8 <safe_add_func_uint32_t_u_u>
    ea1c:	0f b7 c0             	movzwl %ax,%eax
    ea1f:	44 89 ee             	mov    %r13d,%esi
    ea22:	89 c7                	mov    %eax,%edi
    ea24:	e8 51 94 ff ff       	callq  7e7a <safe_rshift_func_uint16_t_u_u>
    ea29:	0f b7 c0             	movzwl %ax,%eax
    ea2c:	48 83 e0 fd          	and    $0xfffffffffffffffd,%rax
    ea30:	48 89 c6             	mov    %rax,%rsi
    ea33:	48 8b 05 ce 13 01 00 	mov    0x113ce(%rip),%rax        # 1fe08 <g_1189>
    ea3a:	48 8d 14 00          	lea    (%rax,%rax,1),%rdx
    ea3e:	48 8d 05 fb 12 01 00 	lea    0x112fb(%rip),%rax        # 1fd40 <g_768>
    ea45:	0f b7 04 02          	movzwl (%rdx,%rax,1),%eax
    ea49:	0f b7 d0             	movzwl %ax,%edx
    ea4c:	48 8b 05 75 4f 01 00 	mov    0x14f75(%rip),%rax        # 239c8 <g_235>
    ea53:	0f b6 08             	movzbl (%rax),%ecx
    ea56:	48 8b 05 6b 4f 01 00 	mov    0x14f6b(%rip),%rax        # 239c8 <g_235>
    ea5d:	31 f1                	xor    %esi,%ecx
    ea5f:	88 08                	mov    %cl,(%rax)
    ea61:	0f b6 00             	movzbl (%rax),%eax
    ea64:	0f be c0             	movsbl %al,%eax
    ea67:	09 c2                	or     %eax,%edx
    ea69:	8b 85 0c f3 ff ff    	mov    -0xcf4(%rbp),%eax
    ea6f:	89 c6                	mov    %eax,%esi
    ea71:	89 d7                	mov    %edx,%edi
    ea73:	e8 54 8c ff ff       	callq  76cc <safe_mod_func_int32_t_s_s>
    ea78:	85 c0                	test   %eax,%eax
    ea7a:	75 09                	jne    ea85 <func_18+0x13cf>
    ea7c:	83 bd 0c f3 ff ff 00 	cmpl   $0x0,-0xcf4(%rbp)
    ea83:	74 07                	je     ea8c <func_18+0x13d6>
    ea85:	b8 01 00 00 00       	mov    $0x1,%eax
    ea8a:	eb 05                	jmp    ea91 <func_18+0x13db>
    ea8c:	b8 00 00 00 00       	mov    $0x0,%eax
    ea91:	98                   	cwtl   
    ea92:	44 89 e6             	mov    %r12d,%esi
    ea95:	89 c7                	mov    %eax,%edi
    ea97:	e8 37 89 ff ff       	callq  73d3 <safe_sub_func_int16_t_s_s>
    ea9c:	8b 85 0c f3 ff ff    	mov    -0xcf4(%rbp),%eax
    eaa2:	48 98                	cltq   
    eaa4:	48 83 f8 01          	cmp    $0x1,%rax
    eaa8:	0f 97 c0             	seta   %al
    eaab:	0f b6 c0             	movzbl %al,%eax
    eaae:	be 02 00 00 00       	mov    $0x2,%esi
    eab3:	89 c7                	mov    %eax,%edi
    eab5:	e8 d3 91 ff ff       	callq  7c8d <safe_rshift_func_uint8_t_u_s>
    eaba:	48 8b 95 b8 f3 ff ff 	mov    -0xc48(%rbp),%rdx
    eac1:	88 02                	mov    %al,(%rdx)
    eac3:	48 8b 85 b8 f3 ff ff 	mov    -0xc48(%rbp),%rax
    eaca:	0f b6 00             	movzbl (%rax),%eax
    eacd:	83 c8 01             	or     $0x1,%eax
    ead0:	3c fb                	cmp    $0xfb,%al
    ead2:	74 1b                	je     eaef <func_18+0x1439>
    ead4:	48 8b 05 2d 13 01 00 	mov    0x1132d(%rip),%rax        # 1fe08 <g_1189>
    eadb:	48 8d 14 00          	lea    (%rax,%rax,1),%rdx
    eadf:	48 8d 05 5a 12 01 00 	lea    0x1125a(%rip),%rax        # 1fd40 <g_768>
    eae6:	0f b7 04 02          	movzwl (%rdx,%rax,1),%eax
    eaea:	66 85 c0             	test   %ax,%ax
    eaed:	74 07                	je     eaf6 <func_18+0x1440>
    eaef:	b8 01 00 00 00       	mov    $0x1,%eax
    eaf4:	eb 05                	jmp    eafb <func_18+0x1445>
    eaf6:	b8 00 00 00 00       	mov    $0x0,%eax
    eafb:	98                   	cwtl   
    eafc:	89 de                	mov    %ebx,%esi
    eafe:	89 c7                	mov    %eax,%edi
    eb00:	e8 11 89 ff ff       	callq  7416 <safe_mod_func_int16_t_s_s>
    eb05:	66 83 f8 ff          	cmp    $0xffff,%ax
    eb09:	0f 84 26 01 00 00    	je     ec35 <func_18+0x157f>
    eb0f:	48 8d 05 d0 12 01 00 	lea    0x112d0(%rip),%rax        # 1fde6 <g_1133+0x6>
    eb16:	48 89 85 00 f4 ff ff 	mov    %rax,-0xc00(%rbp)
    eb1d:	48 8d 05 a2 08 01 00 	lea    0x108a2(%rip),%rax        # 1f3c6 <g_560+0x6>
    eb24:	48 89 85 08 f4 ff ff 	mov    %rax,-0xbf8(%rbp)
    eb2b:	48 8d 05 b4 12 01 00 	lea    0x112b4(%rip),%rax        # 1fde6 <g_1133+0x6>
    eb32:	48 89 85 10 f4 ff ff 	mov    %rax,-0xbf0(%rbp)
    eb39:	48 8d 05 86 08 01 00 	lea    0x10886(%rip),%rax        # 1f3c6 <g_560+0x6>
    eb40:	48 89 85 18 f4 ff ff 	mov    %rax,-0xbe8(%rbp)
    eb47:	48 8d 05 a2 56 01 00 	lea    0x156a2(%rip),%rax        # 241f0 <g_1364>
    eb4e:	48 89 85 50 f4 ff ff 	mov    %rax,-0xbb0(%rbp)
    eb55:	48 8d 05 94 56 01 00 	lea    0x15694(%rip),%rax        # 241f0 <g_1364>
    eb5c:	48 89 85 58 f4 ff ff 	mov    %rax,-0xba8(%rbp)
    eb63:	48 8d 05 86 56 01 00 	lea    0x15686(%rip),%rax        # 241f0 <g_1364>
    eb6a:	48 89 85 60 f4 ff ff 	mov    %rax,-0xba0(%rbp)
    eb71:	48 8d 05 78 56 01 00 	lea    0x15678(%rip),%rax        # 241f0 <g_1364>
    eb78:	48 89 85 68 f4 ff ff 	mov    %rax,-0xb98(%rbp)
    eb7f:	48 8d 05 6a 56 01 00 	lea    0x1566a(%rip),%rax        # 241f0 <g_1364>
    eb86:	48 89 85 70 f4 ff ff 	mov    %rax,-0xb90(%rbp)
    eb8d:	48 8d 05 5c 56 01 00 	lea    0x1565c(%rip),%rax        # 241f0 <g_1364>
    eb94:	48 89 85 78 f4 ff ff 	mov    %rax,-0xb88(%rbp)
    eb9b:	c6 05 0a 08 01 00 00 	movb   $0x0,0x1080a(%rip)        # 1f3ac <g_550+0xc>
    eba2:	eb 52                	jmp    ebf6 <func_18+0x1540>
    eba4:	c7 05 c2 07 01 00 00 	movl   $0x0,0x107c2(%rip)        # 1f370 <g_446>
    ebab:	00 00 00 
    ebae:	eb 2b                	jmp    ebdb <func_18+0x1525>
    ebb0:	c6 85 13 f3 ff ff f6 	movb   $0xf6,-0xced(%rbp)
    ebb7:	8b 95 38 f5 ff ff    	mov    -0xac8(%rbp),%edx
    ebbd:	0f be 85 13 f3 ff ff 	movsbl -0xced(%rbp),%eax
    ebc4:	09 d0                	or     %edx,%eax
    ebc6:	89 85 38 f5 ff ff    	mov    %eax,-0xac8(%rbp)
    ebcc:	8b 05 9e 07 01 00    	mov    0x1079e(%rip),%eax        # 1f370 <g_446>
    ebd2:	83 c0 01             	add    $0x1,%eax
    ebd5:	89 05 95 07 01 00    	mov    %eax,0x10795(%rip)        # 1f370 <g_446>
    ebdb:	8b 05 8f 07 01 00    	mov    0x1078f(%rip),%eax        # 1f370 <g_446>
    ebe1:	83 f8 09             	cmp    $0x9,%eax
    ebe4:	76 ca                	jbe    ebb0 <func_18+0x14fa>
    ebe6:	0f b6 05 bf 07 01 00 	movzbl 0x107bf(%rip),%eax        # 1f3ac <g_550+0xc>
    ebed:	83 c0 01             	add    $0x1,%eax
    ebf0:	88 05 b6 07 01 00    	mov    %al,0x107b6(%rip)        # 1f3ac <g_550+0xc>
    ebf6:	0f b6 05 af 07 01 00 	movzbl 0x107af(%rip),%eax        # 1f3ac <g_550+0xc>
    ebfd:	3c 09                	cmp    $0x9,%al
    ebff:	76 a3                	jbe    eba4 <func_18+0x14ee>
    ec01:	0f b7 85 16 f3 ff ff 	movzwl -0xcea(%rbp),%eax
    ec08:	83 e8 01             	sub    $0x1,%eax
    ec0b:	66 89 85 16 f3 ff ff 	mov    %ax,-0xcea(%rbp)
    ec12:	83 bd 3c f3 ff ff 00 	cmpl   $0x0,-0xcc4(%rbp)
    ec19:	75 26                	jne    ec41 <func_18+0x158b>
    ec1b:	48 8b 85 b0 f3 ff ff 	mov    -0xc50(%rbp),%rax
    ec22:	48 89 85 b8 f8 ff ff 	mov    %rax,-0x748(%rbp)
    ec29:	8b 85 38 f5 ff ff    	mov    -0xac8(%rbp),%eax
    ec2f:	85 c0                	test   %eax,%eax
    ec31:	74 0e                	je     ec41 <func_18+0x158b>
    ec33:	eb 2f                	jmp    ec64 <func_18+0x15ae>
    ec35:	48 8d 05 12 04 01 00 	lea    0x10412(%rip),%rax        # 1f04e <g_37>
    ec3c:	e9 e7 00 00 00       	jmpq   ed28 <func_18+0x1672>
    ec41:	48 8b 05 c0 11 01 00 	mov    0x111c0(%rip),%rax        # 1fe08 <g_1189>
    ec48:	48 83 c0 01          	add    $0x1,%rax
    ec4c:	48 89 05 b5 11 01 00 	mov    %rax,0x111b5(%rip)        # 1fe08 <g_1189>
    ec53:	48 8b 05 ae 11 01 00 	mov    0x111ae(%rip),%rax        # 1fe08 <g_1189>
    ec5a:	48 83 f8 09          	cmp    $0x9,%rax
    ec5e:	0f 8e 9f fc ff ff    	jle    e903 <func_18+0x124d>
    ec64:	48 8b 05 6d 4d 01 00 	mov    0x14d6d(%rip),%rax        # 239d8 <g_267>
    ec6b:	48 8b 0d 0e 15 01 00 	mov    0x1150e(%rip),%rcx        # 20180 <g_1456>
    ec72:	48 8b 1d 0f 15 01 00 	mov    0x1150f(%rip),%rbx        # 20188 <g_1456+0x8>
    ec79:	48 89 08             	mov    %rcx,(%rax)
    ec7c:	48 89 58 08          	mov    %rbx,0x8(%rax)
    ec80:	48 8b 15 09 15 01 00 	mov    0x11509(%rip),%rdx        # 20190 <g_1456+0x10>
    ec87:	48 89 50 10          	mov    %rdx,0x10(%rax)
    ec8b:	8b 15 07 15 01 00    	mov    0x11507(%rip),%edx        # 20198 <g_1456+0x18>
    ec91:	89 50 18             	mov    %edx,0x18(%rax)
    ec94:	0f b7 15 01 15 01 00 	movzwl 0x11501(%rip),%edx        # 2019c <g_1456+0x1c>
    ec9b:	66 89 50 1c          	mov    %dx,0x1c(%rax)
    ec9f:	48 8b 85 a0 f3 ff ff 	mov    -0xc60(%rbp),%rax
    eca6:	48 8b 00             	mov    (%rax),%rax
    eca9:	48 8b 00             	mov    (%rax),%rax
    ecac:	48 8b 10             	mov    (%rax),%rdx
    ecaf:	48 8b 05 22 4d 01 00 	mov    0x14d22(%rip),%rax        # 239d8 <g_267>
    ecb6:	48 8b 0a             	mov    (%rdx),%rcx
    ecb9:	48 8b 5a 08          	mov    0x8(%rdx),%rbx
    ecbd:	48 89 08             	mov    %rcx,(%rax)
    ecc0:	48 89 58 08          	mov    %rbx,0x8(%rax)
    ecc4:	48 8b 4a 10          	mov    0x10(%rdx),%rcx
    ecc8:	48 89 48 10          	mov    %rcx,0x10(%rax)
    eccc:	8b 4a 18             	mov    0x18(%rdx),%ecx
    eccf:	89 48 18             	mov    %ecx,0x18(%rax)
    ecd2:	0f b7 52 1c          	movzwl 0x1c(%rdx),%edx
    ecd6:	66 89 50 1c          	mov    %dx,0x1c(%rax)
    ecda:	8b 05 20 11 01 00    	mov    0x11120(%rip),%eax        # 1fe00 <g_1172>
    ece0:	89 c0                	mov    %eax,%eax
    ece2:	be 04 00 00 00       	mov    $0x4,%esi
    ece7:	48 89 c7             	mov    %rax,%rdi
    ecea:	e8 3f 93 ff ff       	callq  802e <safe_add_func_uint64_t_u_u>
    ecef:	89 05 0b 11 01 00    	mov    %eax,0x1110b(%rip)        # 1fe00 <g_1172>
    ecf5:	8b 05 05 11 01 00    	mov    0x11105(%rip),%eax        # 1fe00 <g_1172>
    ecfb:	83 f8 2b             	cmp    $0x2b,%eax
    ecfe:	0f 86 40 f9 ff ff    	jbe    e644 <func_18+0xf8e>
    ed04:	48 8b 85 78 f3 ff ff 	mov    -0xc88(%rbp),%rax
    ed0b:	48 8b 10             	mov    (%rax),%rdx
    ed0e:	48 8b 85 a0 f3 ff ff 	mov    -0xc60(%rbp),%rax
    ed15:	48 8b 00             	mov    (%rax),%rax
    ed18:	48 8b 00             	mov    (%rax),%rax
    ed1b:	48 8b 12             	mov    (%rdx),%rdx
    ed1e:	48 89 10             	mov    %rdx,(%rax)
    ed21:	48 8d 05 19 12 01 00 	lea    0x11219(%rip),%rax        # 1ff41 <g_1367>
    ed28:	48 8b 5d d8          	mov    -0x28(%rbp),%rbx
    ed2c:	64 48 33 1c 25 28 00 	xor    %fs:0x28,%rbx
    ed33:	00 00 
    ed35:	74 05                	je     ed3c <func_18+0x1686>
    ed37:	e8 34 83 ff ff       	callq  7070 <__stack_chk_fail@plt>
    ed3c:	48 81 c4 e0 0c 00 00 	add    $0xce0,%rsp
    ed43:	5b                   	pop    %rbx
    ed44:	41 5c                	pop    %r12
    ed46:	41 5d                	pop    %r13
    ed48:	41 5e                	pop    %r14
    ed4a:	5d                   	pop    %rbp
    ed4b:	c3                   	retq   

000000000000ed4c <func_22>:
    ed4c:	f3 0f 1e fa          	endbr64 
    ed50:	55                   	push   %rbp
    ed51:	48 89 e5             	mov    %rsp,%rbp
    ed54:	41 56                	push   %r14
    ed56:	41 55                	push   %r13
    ed58:	41 54                	push   %r12
    ed5a:	53                   	push   %rbx
    ed5b:	48 81 ec b0 0a 00 00 	sub    $0xab0,%rsp
    ed62:	48 89 bd 38 f5 ff ff 	mov    %rdi,-0xac8(%rbp)
    ed69:	64 48 8b 04 25 28 00 	mov    %fs:0x28,%rax
    ed70:	00 00 
    ed72:	48 89 45 d8          	mov    %rax,-0x28(%rbp)
    ed76:	31 c0                	xor    %eax,%eax
    ed78:	48 8d 05 e5 02 01 00 	lea    0x102e5(%rip),%rax        # 1f064 <g_77>
    ed7f:	48 89 85 90 f5 ff ff 	mov    %rax,-0xa70(%rbp)
    ed86:	48 8d 85 90 f5 ff ff 	lea    -0xa70(%rbp),%rax
    ed8d:	48 89 85 98 f5 ff ff 	mov    %rax,-0xa68(%rbp)
    ed94:	48 8d 85 98 f5 ff ff 	lea    -0xa68(%rbp),%rax
    ed9b:	48 89 85 f0 f5 ff ff 	mov    %rax,-0xa10(%rbp)
    eda2:	48 c7 85 f0 f6 ff ff 	movq   $0x0,-0x910(%rbp)
    eda9:	00 00 00 00 
    edad:	48 c7 85 f8 f6 ff ff 	movq   $0x0,-0x908(%rbp)
    edb4:	00 00 00 00 
    edb8:	48 c7 85 00 f7 ff ff 	movq   $0x0,-0x900(%rbp)
    edbf:	00 00 00 00 
    edc3:	48 c7 85 08 f7 ff ff 	movq   $0x0,-0x8f8(%rbp)
    edca:	00 00 00 00 
    edce:	48 c7 85 10 f7 ff ff 	movq   $0x0,-0x8f0(%rbp)
    edd5:	00 00 00 00 
    edd9:	48 c7 85 18 f7 ff ff 	movq   $0x0,-0x8e8(%rbp)
    ede0:	00 00 00 00 
    ede4:	48 c7 85 20 f7 ff ff 	movq   $0x0,-0x8e0(%rbp)
    edeb:	00 00 00 00 
    edef:	48 c7 85 28 f7 ff ff 	movq   $0x0,-0x8d8(%rbp)
    edf6:	00 00 00 00 
    edfa:	c7 85 50 f5 ff ff ff 	movl   $0xffffffff,-0xab0(%rbp)
    ee01:	ff ff ff 
    ee04:	c7 85 5c f5 ff ff f6 	movl   $0xfffffff6,-0xaa4(%rbp)
    ee0b:	ff ff ff 
    ee0e:	48 b8 14 e6 1a 9e fe 	movabs $0x1881fefe9e1ae614,%rax
    ee15:	fe 81 18 
    ee18:	48 89 85 f8 f5 ff ff 	mov    %rax,-0xa08(%rbp)
    ee1f:	48 c7 85 00 f6 ff ff 	movq   $0x0,-0xa00(%rbp)
    ee26:	00 00 00 00 
    ee2a:	48 c7 85 a0 f5 ff ff 	movq   $0x0,-0xa60(%rbp)
    ee31:	00 00 00 00 
    ee35:	c7 85 a0 f5 ff ff 28 	movl   $0xe1d47428,-0xa60(%rbp)
    ee3c:	74 d4 e1 
    ee3f:	48 c7 85 08 f6 ff ff 	movq   $0x0,-0x9f8(%rbp)
    ee46:	00 00 00 00 
    ee4a:	48 8d 05 37 5a 01 00 	lea    0x15a37(%rip),%rax        # 24888 <g_1386>
    ee51:	48 89 85 10 f6 ff ff 	mov    %rax,-0x9f0(%rbp)
    ee58:	c7 05 74 03 01 00 00 	movl   $0x0,0x10374(%rip)        # 1f1d6 <g_277+0x6>
    ee5f:	00 00 00 
    ee62:	e9 db 1f 00 00       	jmpq   10e42 <func_22+0x20f6>
    ee67:	48 c7 85 a8 f5 ff ff 	movq   $0xffffffffffffffff,-0xa58(%rbp)
    ee6e:	ff ff ff ff 
    ee72:	48 8d 05 7f 03 01 00 	lea    0x1037f(%rip),%rax        # 1f1f8 <g_333>
    ee79:	48 89 85 b0 f5 ff ff 	mov    %rax,-0xa50(%rbp)
    ee80:	0f b7 85 54 f5 ff ff 	movzwl -0xaac(%rbp),%eax
    ee87:	66 25 00 f0          	and    $0xf000,%ax
    ee8b:	83 c8 0a             	or     $0xa,%eax
    ee8e:	66 89 85 54 f5 ff ff 	mov    %ax,-0xaac(%rbp)
    ee95:	c7 85 68 f5 ff ff 01 	movl   $0x1,-0xa98(%rbp)
    ee9c:	00 00 00 
    ee9f:	c7 85 6c f5 ff ff 51 	movl   $0xb0a2e951,-0xa94(%rbp)
    eea6:	e9 a2 b0 
    eea9:	c7 85 70 f5 ff ff 72 	movl   $0x9976de72,-0xa90(%rbp)
    eeb0:	de 76 99 
    eeb3:	48 8d 05 86 4e 01 00 	lea    0x14e86(%rip),%rax        # 23d40 <g_746>
    eeba:	48 89 85 b8 f5 ff ff 	mov    %rax,-0xa48(%rbp)
    eec1:	48 8d 85 b8 f5 ff ff 	lea    -0xa48(%rbp),%rax
    eec8:	48 89 85 c0 f5 ff ff 	mov    %rax,-0xa40(%rbp)
    eecf:	48 8d 05 86 01 01 00 	lea    0x10186(%rip),%rax        # 1f05c <g_49>
    eed6:	48 89 85 18 f6 ff ff 	mov    %rax,-0x9e8(%rbp)
    eedd:	48 8b 85 a8 f5 ff ff 	mov    -0xa58(%rbp),%rax
    eee4:	48 85 c0             	test   %rax,%rax
    eee7:	0f 84 07 1f 00 00    	je     10df4 <func_22+0x20a8>
    eeed:	48 c7 85 20 f6 ff ff 	movq   $0x0,-0x9e0(%rbp)
    eef4:	00 00 00 00 
    eef8:	48 c7 85 28 f6 ff ff 	movq   $0x0,-0x9d8(%rbp)
    eeff:	00 00 00 00 
    ef03:	48 c7 85 30 f6 ff ff 	movq   $0x0,-0x9d0(%rbp)
    ef0a:	00 00 00 00 
    ef0e:	48 8d 05 c7 0e 01 00 	lea    0x10ec7(%rip),%rax        # 1fddc <g_1131+0x4>
    ef15:	48 89 85 38 f6 ff ff 	mov    %rax,-0x9c8(%rbp)
    ef1c:	48 c7 85 c8 f5 ff ff 	movq   $0x0,-0xa38(%rbp)
    ef23:	00 00 00 00 
    ef27:	c7 85 c8 f5 ff ff 4f 	movl   $0x24384a4f,-0xa38(%rbp)
    ef2e:	4a 38 24 
    ef31:	c7 85 74 f5 ff ff 00 	movl   $0x0,-0xa8c(%rbp)
    ef38:	00 00 00 
    ef3b:	48 c7 05 b2 02 01 00 	movq   $0x0,0x102b2(%rip)        # 1f1f8 <g_333>
    ef42:	00 00 00 00 
    ef46:	e9 9c 00 00 00       	jmpq   efe7 <func_22+0x29b>
    ef4b:	48 8d 05 c6 0e 01 00 	lea    0x10ec6(%rip),%rax        # 1fe18 <g_1218>
    ef52:	48 89 85 b0 f6 ff ff 	mov    %rax,-0x950(%rbp)
    ef59:	48 8b 05 58 4a 01 00 	mov    0x14a58(%rip),%rax        # 239b8 <g_113>
    ef60:	48 8b 00             	mov    (%rax),%rax
    ef63:	48 8b 95 b0 f6 ff ff 	mov    -0x950(%rbp),%rdx
    ef6a:	48 89 10             	mov    %rdx,(%rax)
    ef6d:	c7 05 2d 04 01 00 01 	movl   $0x1,0x1042d(%rip)        # 1f3a4 <g_550+0x4>
    ef74:	00 00 00 
    ef77:	eb 52                	jmp    efcb <func_22+0x27f>
    ef79:	c6 05 f0 00 01 00 00 	movb   $0x0,0x100f0(%rip)        # 1f070 <g_120>
    ef80:	eb 2f                	jmp    efb1 <func_22+0x265>
    ef82:	48 8d 85 b0 f5 ff ff 	lea    -0xa50(%rbp),%rax
    ef89:	48 89 85 b8 f6 ff ff 	mov    %rax,-0x948(%rbp)
    ef90:	48 8b 95 b0 f5 ff ff 	mov    -0xa50(%rbp),%rdx
    ef97:	48 8b 85 b8 f6 ff ff 	mov    -0x948(%rbp),%rax
    ef9e:	48 89 10             	mov    %rdx,(%rax)
    efa1:	0f b6 05 c8 00 01 00 	movzbl 0x100c8(%rip),%eax        # 1f070 <g_120>
    efa8:	83 c0 01             	add    $0x1,%eax
    efab:	88 05 bf 00 01 00    	mov    %al,0x100bf(%rip)        # 1f070 <g_120>
    efb1:	0f b6 05 b8 00 01 00 	movzbl 0x100b8(%rip),%eax        # 1f070 <g_120>
    efb8:	3c 01                	cmp    $0x1,%al
    efba:	76 c6                	jbe    ef82 <func_22+0x236>
    efbc:	8b 05 e2 03 01 00    	mov    0x103e2(%rip),%eax        # 1f3a4 <g_550+0x4>
    efc2:	83 e8 01             	sub    $0x1,%eax
    efc5:	89 05 d9 03 01 00    	mov    %eax,0x103d9(%rip)        # 1f3a4 <g_550+0x4>
    efcb:	8b 05 d3 03 01 00    	mov    0x103d3(%rip),%eax        # 1f3a4 <g_550+0x4>
    efd1:	85 c0                	test   %eax,%eax
    efd3:	79 a4                	jns    ef79 <func_22+0x22d>
    efd5:	48 8b 05 1c 02 01 00 	mov    0x1021c(%rip),%rax        # 1f1f8 <g_333>
    efdc:	48 83 c0 01          	add    $0x1,%rax
    efe0:	48 89 05 11 02 01 00 	mov    %rax,0x10211(%rip)        # 1f1f8 <g_333>
    efe7:	48 8b 05 0a 02 01 00 	mov    0x1020a(%rip),%rax        # 1f1f8 <g_333>
    efee:	48 83 f8 03          	cmp    $0x3,%rax
    eff2:	0f 8e 53 ff ff ff    	jle    ef4b <func_22+0x1ff>
    eff8:	48 8d 05 39 58 01 00 	lea    0x15839(%rip),%rax        # 24838 <g_376>
    efff:	48 39 85 f0 f5 ff ff 	cmp    %rax,-0xa10(%rbp)
    f006:	0f 95 c0             	setne  %al
    f009:	0f b6 d0             	movzbl %al,%edx
    f00c:	48 8b 85 38 f6 ff ff 	mov    -0x9c8(%rbp),%rax
    f013:	89 10                	mov    %edx,(%rax)
    f015:	48 8b 85 38 f6 ff ff 	mov    -0x9c8(%rbp),%rax
    f01c:	8b 00                	mov    (%rax),%eax
    f01e:	85 c0                	test   %eax,%eax
    f020:	0f 84 21 18 00 00    	je     10847 <func_22+0x1afb>
    f026:	c6 85 4d f5 ff ff fb 	movb   $0xfb,-0xab3(%rbp)
    f02d:	48 8d 05 20 0d 01 00 	lea    0x10d20(%rip),%rax        # 1fd54 <g_777>
    f034:	48 89 85 d0 f5 ff ff 	mov    %rax,-0xa30(%rbp)
    f03b:	48 8d 85 d0 f5 ff ff 	lea    -0xa30(%rbp),%rax
    f042:	48 89 85 c0 f8 ff ff 	mov    %rax,-0x740(%rbp)
    f049:	48 8d 85 d0 f5 ff ff 	lea    -0xa30(%rbp),%rax
    f050:	48 89 85 c8 f8 ff ff 	mov    %rax,-0x738(%rbp)
    f057:	48 c7 85 d0 f8 ff ff 	movq   $0x0,-0x730(%rbp)
    f05e:	00 00 00 00 
    f062:	48 8d 85 d0 f5 ff ff 	lea    -0xa30(%rbp),%rax
    f069:	48 89 85 d8 f8 ff ff 	mov    %rax,-0x728(%rbp)
    f070:	48 8d 85 d0 f5 ff ff 	lea    -0xa30(%rbp),%rax
    f077:	48 89 85 e0 f8 ff ff 	mov    %rax,-0x720(%rbp)
    f07e:	48 8d 85 d0 f5 ff ff 	lea    -0xa30(%rbp),%rax
    f085:	48 89 85 e8 f8 ff ff 	mov    %rax,-0x718(%rbp)
    f08c:	48 8d 85 d0 f5 ff ff 	lea    -0xa30(%rbp),%rax
    f093:	48 89 85 f0 f8 ff ff 	mov    %rax,-0x710(%rbp)
    f09a:	48 c7 85 f8 f8 ff ff 	movq   $0x0,-0x708(%rbp)
    f0a1:	00 00 00 00 
    f0a5:	48 8d 85 d0 f5 ff ff 	lea    -0xa30(%rbp),%rax
    f0ac:	48 89 85 00 f9 ff ff 	mov    %rax,-0x700(%rbp)
    f0b3:	48 8d 85 d0 f5 ff ff 	lea    -0xa30(%rbp),%rax
    f0ba:	48 89 85 08 f9 ff ff 	mov    %rax,-0x6f8(%rbp)
    f0c1:	48 c7 85 10 f9 ff ff 	movq   $0x0,-0x6f0(%rbp)
    f0c8:	00 00 00 00 
    f0cc:	48 8d 85 d0 f5 ff ff 	lea    -0xa30(%rbp),%rax
    f0d3:	48 89 85 18 f9 ff ff 	mov    %rax,-0x6e8(%rbp)
    f0da:	48 8d 85 d0 f5 ff ff 	lea    -0xa30(%rbp),%rax
    f0e1:	48 89 85 20 f9 ff ff 	mov    %rax,-0x6e0(%rbp)
    f0e8:	48 8d 85 d0 f5 ff ff 	lea    -0xa30(%rbp),%rax
    f0ef:	48 89 85 28 f9 ff ff 	mov    %rax,-0x6d8(%rbp)
    f0f6:	48 c7 85 30 f9 ff ff 	movq   $0x0,-0x6d0(%rbp)
    f0fd:	00 00 00 00 
    f101:	48 8d 85 d0 f5 ff ff 	lea    -0xa30(%rbp),%rax
    f108:	48 89 85 38 f9 ff ff 	mov    %rax,-0x6c8(%rbp)
    f10f:	48 8d 85 d0 f5 ff ff 	lea    -0xa30(%rbp),%rax
    f116:	48 89 85 40 f9 ff ff 	mov    %rax,-0x6c0(%rbp)
    f11d:	48 c7 85 48 f9 ff ff 	movq   $0x0,-0x6b8(%rbp)
    f124:	00 00 00 00 
    f128:	48 8d 85 d0 f5 ff ff 	lea    -0xa30(%rbp),%rax
    f12f:	48 89 85 50 f9 ff ff 	mov    %rax,-0x6b0(%rbp)
    f136:	48 8d 85 d0 f5 ff ff 	lea    -0xa30(%rbp),%rax
    f13d:	48 89 85 58 f9 ff ff 	mov    %rax,-0x6a8(%rbp)
    f144:	48 8d 85 d0 f5 ff ff 	lea    -0xa30(%rbp),%rax
    f14b:	48 89 85 60 f9 ff ff 	mov    %rax,-0x6a0(%rbp)
    f152:	48 8d 85 d0 f5 ff ff 	lea    -0xa30(%rbp),%rax
    f159:	48 89 85 68 f9 ff ff 	mov    %rax,-0x698(%rbp)
    f160:	48 c7 85 70 f9 ff ff 	movq   $0x0,-0x690(%rbp)
    f167:	00 00 00 00 
    f16b:	48 8d 85 d0 f5 ff ff 	lea    -0xa30(%rbp),%rax
    f172:	48 89 85 78 f9 ff ff 	mov    %rax,-0x688(%rbp)
    f179:	48 8d 85 d0 f5 ff ff 	lea    -0xa30(%rbp),%rax
    f180:	48 89 85 80 f9 ff ff 	mov    %rax,-0x680(%rbp)
    f187:	48 8d 85 d0 f5 ff ff 	lea    -0xa30(%rbp),%rax
    f18e:	48 89 85 88 f9 ff ff 	mov    %rax,-0x678(%rbp)
    f195:	48 8d 85 d0 f5 ff ff 	lea    -0xa30(%rbp),%rax
    f19c:	48 89 85 90 f9 ff ff 	mov    %rax,-0x670(%rbp)
    f1a3:	48 c7 85 98 f9 ff ff 	movq   $0x0,-0x668(%rbp)
    f1aa:	00 00 00 00 
    f1ae:	48 8d 85 d0 f5 ff ff 	lea    -0xa30(%rbp),%rax
    f1b5:	48 89 85 a0 f9 ff ff 	mov    %rax,-0x660(%rbp)
    f1bc:	48 8d 85 d0 f5 ff ff 	lea    -0xa30(%rbp),%rax
    f1c3:	48 89 85 a8 f9 ff ff 	mov    %rax,-0x658(%rbp)
    f1ca:	48 c7 85 b0 f9 ff ff 	movq   $0x0,-0x650(%rbp)
    f1d1:	00 00 00 00 
    f1d5:	48 8d 85 d0 f5 ff ff 	lea    -0xa30(%rbp),%rax
    f1dc:	48 89 85 b8 f9 ff ff 	mov    %rax,-0x648(%rbp)
    f1e3:	48 8d 85 d0 f5 ff ff 	lea    -0xa30(%rbp),%rax
    f1ea:	48 89 85 c0 f9 ff ff 	mov    %rax,-0x640(%rbp)
    f1f1:	48 8d 85 d0 f5 ff ff 	lea    -0xa30(%rbp),%rax
    f1f8:	48 89 85 c8 f9 ff ff 	mov    %rax,-0x638(%rbp)
    f1ff:	48 c7 85 d0 f9 ff ff 	movq   $0x0,-0x630(%rbp)
    f206:	00 00 00 00 
    f20a:	48 8d 85 d0 f5 ff ff 	lea    -0xa30(%rbp),%rax
    f211:	48 89 85 d8 f9 ff ff 	mov    %rax,-0x628(%rbp)
    f218:	48 8d 85 d0 f5 ff ff 	lea    -0xa30(%rbp),%rax
    f21f:	48 89 85 e0 f9 ff ff 	mov    %rax,-0x620(%rbp)
    f226:	48 c7 85 e8 f9 ff ff 	movq   $0x0,-0x618(%rbp)
    f22d:	00 00 00 00 
    f231:	48 8d 85 d0 f5 ff ff 	lea    -0xa30(%rbp),%rax
    f238:	48 89 85 f0 f9 ff ff 	mov    %rax,-0x610(%rbp)
    f23f:	48 8d 85 d0 f5 ff ff 	lea    -0xa30(%rbp),%rax
    f246:	48 89 85 f8 f9 ff ff 	mov    %rax,-0x608(%rbp)
    f24d:	48 8d 85 d0 f5 ff ff 	lea    -0xa30(%rbp),%rax
    f254:	48 89 85 00 fa ff ff 	mov    %rax,-0x600(%rbp)
    f25b:	48 8d 85 d0 f5 ff ff 	lea    -0xa30(%rbp),%rax
    f262:	48 89 85 08 fa ff ff 	mov    %rax,-0x5f8(%rbp)
    f269:	48 c7 85 10 fa ff ff 	movq   $0x0,-0x5f0(%rbp)
    f270:	00 00 00 00 
    f274:	48 8d 85 d0 f5 ff ff 	lea    -0xa30(%rbp),%rax
    f27b:	48 89 85 18 fa ff ff 	mov    %rax,-0x5e8(%rbp)
    f282:	48 8d 85 d0 f5 ff ff 	lea    -0xa30(%rbp),%rax
    f289:	48 89 85 20 fa ff ff 	mov    %rax,-0x5e0(%rbp)
    f290:	48 8d 85 d0 f5 ff ff 	lea    -0xa30(%rbp),%rax
    f297:	48 89 85 28 fa ff ff 	mov    %rax,-0x5d8(%rbp)
    f29e:	48 c7 85 30 fa ff ff 	movq   $0x0,-0x5d0(%rbp)
    f2a5:	00 00 00 00 
    f2a9:	48 8d 85 d0 f5 ff ff 	lea    -0xa30(%rbp),%rax
    f2b0:	48 89 85 38 fa ff ff 	mov    %rax,-0x5c8(%rbp)
    f2b7:	48 c7 85 40 fa ff ff 	movq   $0x0,-0x5c0(%rbp)
    f2be:	00 00 00 00 
    f2c2:	48 8d 85 d0 f5 ff ff 	lea    -0xa30(%rbp),%rax
    f2c9:	48 89 85 48 fa ff ff 	mov    %rax,-0x5b8(%rbp)
    f2d0:	48 8d 85 d0 f5 ff ff 	lea    -0xa30(%rbp),%rax
    f2d7:	48 89 85 50 fa ff ff 	mov    %rax,-0x5b0(%rbp)
    f2de:	48 8d 85 d0 f5 ff ff 	lea    -0xa30(%rbp),%rax
    f2e5:	48 89 85 58 fa ff ff 	mov    %rax,-0x5a8(%rbp)
    f2ec:	48 c7 85 60 fa ff ff 	movq   $0x0,-0x5a0(%rbp)
    f2f3:	00 00 00 00 
    f2f7:	48 8d 85 d0 f5 ff ff 	lea    -0xa30(%rbp),%rax
    f2fe:	48 89 85 68 fa ff ff 	mov    %rax,-0x598(%rbp)
    f305:	48 8d 85 d0 f5 ff ff 	lea    -0xa30(%rbp),%rax
    f30c:	48 89 85 70 fa ff ff 	mov    %rax,-0x590(%rbp)
    f313:	48 8d 85 d0 f5 ff ff 	lea    -0xa30(%rbp),%rax
    f31a:	48 89 85 78 fa ff ff 	mov    %rax,-0x588(%rbp)
    f321:	48 c7 85 80 fa ff ff 	movq   $0x0,-0x580(%rbp)
    f328:	00 00 00 00 
    f32c:	48 8d 85 d0 f5 ff ff 	lea    -0xa30(%rbp),%rax
    f333:	48 89 85 88 fa ff ff 	mov    %rax,-0x578(%rbp)
    f33a:	48 c7 85 90 fa ff ff 	movq   $0x0,-0x570(%rbp)
    f341:	00 00 00 00 
    f345:	48 8d 85 d0 f5 ff ff 	lea    -0xa30(%rbp),%rax
    f34c:	48 89 85 98 fa ff ff 	mov    %rax,-0x568(%rbp)
    f353:	48 8d 85 d0 f5 ff ff 	lea    -0xa30(%rbp),%rax
    f35a:	48 89 85 a0 fa ff ff 	mov    %rax,-0x560(%rbp)
    f361:	48 8d 85 d0 f5 ff ff 	lea    -0xa30(%rbp),%rax
    f368:	48 89 85 a8 fa ff ff 	mov    %rax,-0x558(%rbp)
    f36f:	48 8d 85 d0 f5 ff ff 	lea    -0xa30(%rbp),%rax
    f376:	48 89 85 b0 fa ff ff 	mov    %rax,-0x550(%rbp)
    f37d:	48 8d 85 d0 f5 ff ff 	lea    -0xa30(%rbp),%rax
    f384:	48 89 85 b8 fa ff ff 	mov    %rax,-0x548(%rbp)
    f38b:	48 8d 85 d0 f5 ff ff 	lea    -0xa30(%rbp),%rax
    f392:	48 89 85 c0 fa ff ff 	mov    %rax,-0x540(%rbp)
    f399:	48 8d 85 d0 f5 ff ff 	lea    -0xa30(%rbp),%rax
    f3a0:	48 89 85 c8 fa ff ff 	mov    %rax,-0x538(%rbp)
    f3a7:	48 c7 85 d0 fa ff ff 	movq   $0x0,-0x530(%rbp)
    f3ae:	00 00 00 00 
    f3b2:	48 8d 85 d0 f5 ff ff 	lea    -0xa30(%rbp),%rax
    f3b9:	48 89 85 d8 fa ff ff 	mov    %rax,-0x528(%rbp)
    f3c0:	48 c7 85 e0 fa ff ff 	movq   $0x0,-0x520(%rbp)
    f3c7:	00 00 00 00 
    f3cb:	48 8d 85 d0 f5 ff ff 	lea    -0xa30(%rbp),%rax
    f3d2:	48 89 85 e8 fa ff ff 	mov    %rax,-0x518(%rbp)
    f3d9:	48 8d 85 d0 f5 ff ff 	lea    -0xa30(%rbp),%rax
    f3e0:	48 89 85 f0 fa ff ff 	mov    %rax,-0x510(%rbp)
    f3e7:	48 8d 85 d0 f5 ff ff 	lea    -0xa30(%rbp),%rax
    f3ee:	48 89 85 f8 fa ff ff 	mov    %rax,-0x508(%rbp)
    f3f5:	48 c7 85 00 fb ff ff 	movq   $0x0,-0x500(%rbp)
    f3fc:	00 00 00 00 
    f400:	48 8d 85 d0 f5 ff ff 	lea    -0xa30(%rbp),%rax
    f407:	48 89 85 08 fb ff ff 	mov    %rax,-0x4f8(%rbp)
    f40e:	48 8d 85 d0 f5 ff ff 	lea    -0xa30(%rbp),%rax
    f415:	48 89 85 10 fb ff ff 	mov    %rax,-0x4f0(%rbp)
    f41c:	48 8d 85 d0 f5 ff ff 	lea    -0xa30(%rbp),%rax
    f423:	48 89 85 18 fb ff ff 	mov    %rax,-0x4e8(%rbp)
    f42a:	48 c7 85 20 fb ff ff 	movq   $0x0,-0x4e0(%rbp)
    f431:	00 00 00 00 
    f435:	48 8d 85 d0 f5 ff ff 	lea    -0xa30(%rbp),%rax
    f43c:	48 89 85 28 fb ff ff 	mov    %rax,-0x4d8(%rbp)
    f443:	48 c7 85 30 fb ff ff 	movq   $0x0,-0x4d0(%rbp)
    f44a:	00 00 00 00 
    f44e:	48 8d 85 d0 f5 ff ff 	lea    -0xa30(%rbp),%rax
    f455:	48 89 85 38 fb ff ff 	mov    %rax,-0x4c8(%rbp)
    f45c:	48 8d 85 d0 f5 ff ff 	lea    -0xa30(%rbp),%rax
    f463:	48 89 85 40 fb ff ff 	mov    %rax,-0x4c0(%rbp)
    f46a:	48 8d 85 d0 f5 ff ff 	lea    -0xa30(%rbp),%rax
    f471:	48 89 85 48 fb ff ff 	mov    %rax,-0x4b8(%rbp)
    f478:	48 8d 85 d0 f5 ff ff 	lea    -0xa30(%rbp),%rax
    f47f:	48 89 85 50 fb ff ff 	mov    %rax,-0x4b0(%rbp)
    f486:	48 8d 85 d0 f5 ff ff 	lea    -0xa30(%rbp),%rax
    f48d:	48 89 85 58 fb ff ff 	mov    %rax,-0x4a8(%rbp)
    f494:	48 8d 85 d0 f5 ff ff 	lea    -0xa30(%rbp),%rax
    f49b:	48 89 85 60 fb ff ff 	mov    %rax,-0x4a0(%rbp)
    f4a2:	48 8d 85 d0 f5 ff ff 	lea    -0xa30(%rbp),%rax
    f4a9:	48 89 85 68 fb ff ff 	mov    %rax,-0x498(%rbp)
    f4b0:	48 c7 85 70 fb ff ff 	movq   $0x0,-0x490(%rbp)
    f4b7:	00 00 00 00 
    f4bb:	48 8d 85 d0 f5 ff ff 	lea    -0xa30(%rbp),%rax
    f4c2:	48 89 85 78 fb ff ff 	mov    %rax,-0x488(%rbp)
    f4c9:	48 c7 85 80 fb ff ff 	movq   $0x0,-0x480(%rbp)
    f4d0:	00 00 00 00 
    f4d4:	48 8d 85 d0 f5 ff ff 	lea    -0xa30(%rbp),%rax
    f4db:	48 89 85 88 fb ff ff 	mov    %rax,-0x478(%rbp)
    f4e2:	48 8d 85 d0 f5 ff ff 	lea    -0xa30(%rbp),%rax
    f4e9:	48 89 85 90 fb ff ff 	mov    %rax,-0x470(%rbp)
    f4f0:	48 8d 85 d0 f5 ff ff 	lea    -0xa30(%rbp),%rax
    f4f7:	48 89 85 98 fb ff ff 	mov    %rax,-0x468(%rbp)
    f4fe:	48 c7 85 a0 fb ff ff 	movq   $0x0,-0x460(%rbp)
    f505:	00 00 00 00 
    f509:	48 8d 85 d0 f5 ff ff 	lea    -0xa30(%rbp),%rax
    f510:	48 89 85 a8 fb ff ff 	mov    %rax,-0x458(%rbp)
    f517:	48 8d 85 d0 f5 ff ff 	lea    -0xa30(%rbp),%rax
    f51e:	48 89 85 b0 fb ff ff 	mov    %rax,-0x450(%rbp)
    f525:	48 8d 85 d0 f5 ff ff 	lea    -0xa30(%rbp),%rax
    f52c:	48 89 85 b8 fb ff ff 	mov    %rax,-0x448(%rbp)
    f533:	48 c7 85 c0 fb ff ff 	movq   $0x0,-0x440(%rbp)
    f53a:	00 00 00 00 
    f53e:	48 8d 85 d0 f5 ff ff 	lea    -0xa30(%rbp),%rax
    f545:	48 89 85 c8 fb ff ff 	mov    %rax,-0x438(%rbp)
    f54c:	48 c7 85 d0 fb ff ff 	movq   $0x0,-0x430(%rbp)
    f553:	00 00 00 00 
    f557:	48 8d 85 d0 f5 ff ff 	lea    -0xa30(%rbp),%rax
    f55e:	48 89 85 d8 fb ff ff 	mov    %rax,-0x428(%rbp)
    f565:	48 8d 85 d0 f5 ff ff 	lea    -0xa30(%rbp),%rax
    f56c:	48 89 85 e0 fb ff ff 	mov    %rax,-0x420(%rbp)
    f573:	48 8d 85 d0 f5 ff ff 	lea    -0xa30(%rbp),%rax
    f57a:	48 89 85 e8 fb ff ff 	mov    %rax,-0x418(%rbp)
    f581:	48 8d 85 d0 f5 ff ff 	lea    -0xa30(%rbp),%rax
    f588:	48 89 85 f0 fb ff ff 	mov    %rax,-0x410(%rbp)
    f58f:	48 8d 85 d0 f5 ff ff 	lea    -0xa30(%rbp),%rax
    f596:	48 89 85 f8 fb ff ff 	mov    %rax,-0x408(%rbp)
    f59d:	48 8d 85 d0 f5 ff ff 	lea    -0xa30(%rbp),%rax
    f5a4:	48 89 85 00 fc ff ff 	mov    %rax,-0x400(%rbp)
    f5ab:	48 8d 85 d0 f5 ff ff 	lea    -0xa30(%rbp),%rax
    f5b2:	48 89 85 08 fc ff ff 	mov    %rax,-0x3f8(%rbp)
    f5b9:	48 c7 85 10 fc ff ff 	movq   $0x0,-0x3f0(%rbp)
    f5c0:	00 00 00 00 
    f5c4:	48 8d 85 d0 f5 ff ff 	lea    -0xa30(%rbp),%rax
    f5cb:	48 89 85 18 fc ff ff 	mov    %rax,-0x3e8(%rbp)
    f5d2:	48 c7 85 20 fc ff ff 	movq   $0x0,-0x3e0(%rbp)
    f5d9:	00 00 00 00 
    f5dd:	48 8d 85 d0 f5 ff ff 	lea    -0xa30(%rbp),%rax
    f5e4:	48 89 85 28 fc ff ff 	mov    %rax,-0x3d8(%rbp)
    f5eb:	48 8d 85 d0 f5 ff ff 	lea    -0xa30(%rbp),%rax
    f5f2:	48 89 85 30 fc ff ff 	mov    %rax,-0x3d0(%rbp)
    f5f9:	48 8d 85 d0 f5 ff ff 	lea    -0xa30(%rbp),%rax
    f600:	48 89 85 38 fc ff ff 	mov    %rax,-0x3c8(%rbp)
    f607:	48 c7 85 40 fc ff ff 	movq   $0x0,-0x3c0(%rbp)
    f60e:	00 00 00 00 
    f612:	48 8d 85 d0 f5 ff ff 	lea    -0xa30(%rbp),%rax
    f619:	48 89 85 48 fc ff ff 	mov    %rax,-0x3b8(%rbp)
    f620:	48 8d 85 d0 f5 ff ff 	lea    -0xa30(%rbp),%rax
    f627:	48 89 85 50 fc ff ff 	mov    %rax,-0x3b0(%rbp)
    f62e:	48 8d 85 d0 f5 ff ff 	lea    -0xa30(%rbp),%rax
    f635:	48 89 85 58 fc ff ff 	mov    %rax,-0x3a8(%rbp)
    f63c:	48 c7 85 60 fc ff ff 	movq   $0x0,-0x3a0(%rbp)
    f643:	00 00 00 00 
    f647:	48 8d 85 d0 f5 ff ff 	lea    -0xa30(%rbp),%rax
    f64e:	48 89 85 68 fc ff ff 	mov    %rax,-0x398(%rbp)
    f655:	48 c7 85 70 fc ff ff 	movq   $0x0,-0x390(%rbp)
    f65c:	00 00 00 00 
    f660:	48 8d 85 d0 f5 ff ff 	lea    -0xa30(%rbp),%rax
    f667:	48 89 85 78 fc ff ff 	mov    %rax,-0x388(%rbp)
    f66e:	48 8d 85 d0 f5 ff ff 	lea    -0xa30(%rbp),%rax
    f675:	48 89 85 80 fc ff ff 	mov    %rax,-0x380(%rbp)
    f67c:	48 8d 85 d0 f5 ff ff 	lea    -0xa30(%rbp),%rax
    f683:	48 89 85 88 fc ff ff 	mov    %rax,-0x378(%rbp)
    f68a:	48 8d 85 d0 f5 ff ff 	lea    -0xa30(%rbp),%rax
    f691:	48 89 85 90 fc ff ff 	mov    %rax,-0x370(%rbp)
    f698:	48 8d 85 d0 f5 ff ff 	lea    -0xa30(%rbp),%rax
    f69f:	48 89 85 98 fc ff ff 	mov    %rax,-0x368(%rbp)
    f6a6:	48 8d 85 d0 f5 ff ff 	lea    -0xa30(%rbp),%rax
    f6ad:	48 89 85 a0 fc ff ff 	mov    %rax,-0x360(%rbp)
    f6b4:	48 8d 85 d0 f5 ff ff 	lea    -0xa30(%rbp),%rax
    f6bb:	48 89 85 a8 fc ff ff 	mov    %rax,-0x358(%rbp)
    f6c2:	48 c7 85 b0 fc ff ff 	movq   $0x0,-0x350(%rbp)
    f6c9:	00 00 00 00 
    f6cd:	48 8d 85 d0 f5 ff ff 	lea    -0xa30(%rbp),%rax
    f6d4:	48 89 85 b8 fc ff ff 	mov    %rax,-0x348(%rbp)
    f6db:	48 c7 85 c0 fc ff ff 	movq   $0x0,-0x340(%rbp)
    f6e2:	00 00 00 00 
    f6e6:	48 8d 85 d0 f5 ff ff 	lea    -0xa30(%rbp),%rax
    f6ed:	48 89 85 c8 fc ff ff 	mov    %rax,-0x338(%rbp)
    f6f4:	48 8d 85 d0 f5 ff ff 	lea    -0xa30(%rbp),%rax
    f6fb:	48 89 85 d0 fc ff ff 	mov    %rax,-0x330(%rbp)
    f702:	48 8d 85 d0 f5 ff ff 	lea    -0xa30(%rbp),%rax
    f709:	48 89 85 d8 fc ff ff 	mov    %rax,-0x328(%rbp)
    f710:	48 c7 85 e0 fc ff ff 	movq   $0x0,-0x320(%rbp)
    f717:	00 00 00 00 
    f71b:	48 8d 85 d0 f5 ff ff 	lea    -0xa30(%rbp),%rax
    f722:	48 89 85 e8 fc ff ff 	mov    %rax,-0x318(%rbp)
    f729:	48 8d 85 d0 f5 ff ff 	lea    -0xa30(%rbp),%rax
    f730:	48 89 85 f0 fc ff ff 	mov    %rax,-0x310(%rbp)
    f737:	48 8d 85 d0 f5 ff ff 	lea    -0xa30(%rbp),%rax
    f73e:	48 89 85 f8 fc ff ff 	mov    %rax,-0x308(%rbp)
    f745:	48 c7 85 00 fd ff ff 	movq   $0x0,-0x300(%rbp)
    f74c:	00 00 00 00 
    f750:	48 8d 85 d0 f5 ff ff 	lea    -0xa30(%rbp),%rax
    f757:	48 89 85 08 fd ff ff 	mov    %rax,-0x2f8(%rbp)
    f75e:	48 c7 85 10 fd ff ff 	movq   $0x0,-0x2f0(%rbp)
    f765:	00 00 00 00 
    f769:	48 8d 85 d0 f5 ff ff 	lea    -0xa30(%rbp),%rax
    f770:	48 89 85 18 fd ff ff 	mov    %rax,-0x2e8(%rbp)
    f777:	48 8d 85 d0 f5 ff ff 	lea    -0xa30(%rbp),%rax
    f77e:	48 89 85 20 fd ff ff 	mov    %rax,-0x2e0(%rbp)
    f785:	48 8d 85 d0 f5 ff ff 	lea    -0xa30(%rbp),%rax
    f78c:	48 89 85 28 fd ff ff 	mov    %rax,-0x2d8(%rbp)
    f793:	48 8d 85 d0 f5 ff ff 	lea    -0xa30(%rbp),%rax
    f79a:	48 89 85 30 fd ff ff 	mov    %rax,-0x2d0(%rbp)
    f7a1:	48 8d 85 d0 f5 ff ff 	lea    -0xa30(%rbp),%rax
    f7a8:	48 89 85 38 fd ff ff 	mov    %rax,-0x2c8(%rbp)
    f7af:	48 8d 85 d0 f5 ff ff 	lea    -0xa30(%rbp),%rax
    f7b6:	48 89 85 40 fd ff ff 	mov    %rax,-0x2c0(%rbp)
    f7bd:	48 8d 85 d0 f5 ff ff 	lea    -0xa30(%rbp),%rax
    f7c4:	48 89 85 48 fd ff ff 	mov    %rax,-0x2b8(%rbp)
    f7cb:	48 c7 85 50 fd ff ff 	movq   $0x0,-0x2b0(%rbp)
    f7d2:	00 00 00 00 
    f7d6:	48 8d 85 d0 f5 ff ff 	lea    -0xa30(%rbp),%rax
    f7dd:	48 89 85 58 fd ff ff 	mov    %rax,-0x2a8(%rbp)
    f7e4:	48 c7 85 60 fd ff ff 	movq   $0x0,-0x2a0(%rbp)
    f7eb:	00 00 00 00 
    f7ef:	48 8d 85 d0 f5 ff ff 	lea    -0xa30(%rbp),%rax
    f7f6:	48 89 85 68 fd ff ff 	mov    %rax,-0x298(%rbp)
    f7fd:	48 8d 85 d0 f5 ff ff 	lea    -0xa30(%rbp),%rax
    f804:	48 89 85 70 fd ff ff 	mov    %rax,-0x290(%rbp)
    f80b:	48 8d 85 d0 f5 ff ff 	lea    -0xa30(%rbp),%rax
    f812:	48 89 85 78 fd ff ff 	mov    %rax,-0x288(%rbp)
    f819:	48 c7 85 80 fd ff ff 	movq   $0x0,-0x280(%rbp)
    f820:	00 00 00 00 
    f824:	48 8d 85 d0 f5 ff ff 	lea    -0xa30(%rbp),%rax
    f82b:	48 89 85 88 fd ff ff 	mov    %rax,-0x278(%rbp)
    f832:	48 8d 85 d0 f5 ff ff 	lea    -0xa30(%rbp),%rax
    f839:	48 89 85 90 fd ff ff 	mov    %rax,-0x270(%rbp)
    f840:	48 8d 85 d0 f5 ff ff 	lea    -0xa30(%rbp),%rax
    f847:	48 89 85 98 fd ff ff 	mov    %rax,-0x268(%rbp)
    f84e:	48 c7 85 a0 fd ff ff 	movq   $0x0,-0x260(%rbp)
    f855:	00 00 00 00 
    f859:	48 8d 85 d0 f5 ff ff 	lea    -0xa30(%rbp),%rax
    f860:	48 89 85 a8 fd ff ff 	mov    %rax,-0x258(%rbp)
    f867:	48 c7 85 b0 fd ff ff 	movq   $0x0,-0x250(%rbp)
    f86e:	00 00 00 00 
    f872:	48 8d 85 d0 f5 ff ff 	lea    -0xa30(%rbp),%rax
    f879:	48 89 85 b8 fd ff ff 	mov    %rax,-0x248(%rbp)
    f880:	48 8d 85 d0 f5 ff ff 	lea    -0xa30(%rbp),%rax
    f887:	48 89 85 c0 fd ff ff 	mov    %rax,-0x240(%rbp)
    f88e:	48 8d 85 d0 f5 ff ff 	lea    -0xa30(%rbp),%rax
    f895:	48 89 85 c8 fd ff ff 	mov    %rax,-0x238(%rbp)
    f89c:	48 8d 85 d0 f5 ff ff 	lea    -0xa30(%rbp),%rax
    f8a3:	48 89 85 d0 fd ff ff 	mov    %rax,-0x230(%rbp)
    f8aa:	48 8d 85 d0 f5 ff ff 	lea    -0xa30(%rbp),%rax
    f8b1:	48 89 85 d8 fd ff ff 	mov    %rax,-0x228(%rbp)
    f8b8:	48 8d 85 d0 f5 ff ff 	lea    -0xa30(%rbp),%rax
    f8bf:	48 89 85 e0 fd ff ff 	mov    %rax,-0x220(%rbp)
    f8c6:	48 8d 85 d0 f5 ff ff 	lea    -0xa30(%rbp),%rax
    f8cd:	48 89 85 e8 fd ff ff 	mov    %rax,-0x218(%rbp)
    f8d4:	48 c7 85 f0 fd ff ff 	movq   $0x0,-0x210(%rbp)
    f8db:	00 00 00 00 
    f8df:	48 8d 85 d0 f5 ff ff 	lea    -0xa30(%rbp),%rax
    f8e6:	48 89 85 f8 fd ff ff 	mov    %rax,-0x208(%rbp)
    f8ed:	48 c7 85 00 fe ff ff 	movq   $0x0,-0x200(%rbp)
    f8f4:	00 00 00 00 
    f8f8:	48 8d 85 d0 f5 ff ff 	lea    -0xa30(%rbp),%rax
    f8ff:	48 89 85 08 fe ff ff 	mov    %rax,-0x1f8(%rbp)
    f906:	48 8d 85 d0 f5 ff ff 	lea    -0xa30(%rbp),%rax
    f90d:	48 89 85 10 fe ff ff 	mov    %rax,-0x1f0(%rbp)
    f914:	48 8d 85 d0 f5 ff ff 	lea    -0xa30(%rbp),%rax
    f91b:	48 89 85 18 fe ff ff 	mov    %rax,-0x1e8(%rbp)
    f922:	48 c7 85 20 fe ff ff 	movq   $0x0,-0x1e0(%rbp)
    f929:	00 00 00 00 
    f92d:	48 8d 85 d0 f5 ff ff 	lea    -0xa30(%rbp),%rax
    f934:	48 89 85 28 fe ff ff 	mov    %rax,-0x1d8(%rbp)
    f93b:	48 8d 85 d0 f5 ff ff 	lea    -0xa30(%rbp),%rax
    f942:	48 89 85 30 fe ff ff 	mov    %rax,-0x1d0(%rbp)
    f949:	48 8d 85 d0 f5 ff ff 	lea    -0xa30(%rbp),%rax
    f950:	48 89 85 38 fe ff ff 	mov    %rax,-0x1c8(%rbp)
    f957:	48 c7 85 40 fe ff ff 	movq   $0x0,-0x1c0(%rbp)
    f95e:	00 00 00 00 
    f962:	48 8d 85 d0 f5 ff ff 	lea    -0xa30(%rbp),%rax
    f969:	48 89 85 48 fe ff ff 	mov    %rax,-0x1b8(%rbp)
    f970:	48 c7 85 50 fe ff ff 	movq   $0x0,-0x1b0(%rbp)
    f977:	00 00 00 00 
    f97b:	48 8d 85 d0 f5 ff ff 	lea    -0xa30(%rbp),%rax
    f982:	48 89 85 58 fe ff ff 	mov    %rax,-0x1a8(%rbp)
    f989:	48 8d 85 d0 f5 ff ff 	lea    -0xa30(%rbp),%rax
    f990:	48 89 85 60 fe ff ff 	mov    %rax,-0x1a0(%rbp)
    f997:	48 8d 85 d0 f5 ff ff 	lea    -0xa30(%rbp),%rax
    f99e:	48 89 85 68 fe ff ff 	mov    %rax,-0x198(%rbp)
    f9a5:	48 8d 85 d0 f5 ff ff 	lea    -0xa30(%rbp),%rax
    f9ac:	48 89 85 70 fe ff ff 	mov    %rax,-0x190(%rbp)
    f9b3:	48 8d 85 d0 f5 ff ff 	lea    -0xa30(%rbp),%rax
    f9ba:	48 89 85 78 fe ff ff 	mov    %rax,-0x188(%rbp)
    f9c1:	48 8d 85 d0 f5 ff ff 	lea    -0xa30(%rbp),%rax
    f9c8:	48 89 85 80 fe ff ff 	mov    %rax,-0x180(%rbp)
    f9cf:	48 8d 85 d0 f5 ff ff 	lea    -0xa30(%rbp),%rax
    f9d6:	48 89 85 88 fe ff ff 	mov    %rax,-0x178(%rbp)
    f9dd:	48 c7 85 90 fe ff ff 	movq   $0x0,-0x170(%rbp)
    f9e4:	00 00 00 00 
    f9e8:	48 8d 85 d0 f5 ff ff 	lea    -0xa30(%rbp),%rax
    f9ef:	48 89 85 98 fe ff ff 	mov    %rax,-0x168(%rbp)
    f9f6:	48 c7 85 a0 fe ff ff 	movq   $0x0,-0x160(%rbp)
    f9fd:	00 00 00 00 
    fa01:	48 8d 85 d0 f5 ff ff 	lea    -0xa30(%rbp),%rax
    fa08:	48 89 85 a8 fe ff ff 	mov    %rax,-0x158(%rbp)
    fa0f:	48 8d 85 d0 f5 ff ff 	lea    -0xa30(%rbp),%rax
    fa16:	48 89 85 b0 fe ff ff 	mov    %rax,-0x150(%rbp)
    fa1d:	48 8d 85 d0 f5 ff ff 	lea    -0xa30(%rbp),%rax
    fa24:	48 89 85 b8 fe ff ff 	mov    %rax,-0x148(%rbp)
    fa2b:	48 c7 85 c0 fe ff ff 	movq   $0x0,-0x140(%rbp)
    fa32:	00 00 00 00 
    fa36:	48 8d 85 d0 f5 ff ff 	lea    -0xa30(%rbp),%rax
    fa3d:	48 89 85 c8 fe ff ff 	mov    %rax,-0x138(%rbp)
    fa44:	48 8d 85 d0 f5 ff ff 	lea    -0xa30(%rbp),%rax
    fa4b:	48 89 85 d0 fe ff ff 	mov    %rax,-0x130(%rbp)
    fa52:	48 8d 85 d0 f5 ff ff 	lea    -0xa30(%rbp),%rax
    fa59:	48 89 85 d8 fe ff ff 	mov    %rax,-0x128(%rbp)
    fa60:	48 c7 85 e0 fe ff ff 	movq   $0x0,-0x120(%rbp)
    fa67:	00 00 00 00 
    fa6b:	48 8d 85 d0 f5 ff ff 	lea    -0xa30(%rbp),%rax
    fa72:	48 89 85 e8 fe ff ff 	mov    %rax,-0x118(%rbp)
    fa79:	48 c7 85 f0 fe ff ff 	movq   $0x0,-0x110(%rbp)
    fa80:	00 00 00 00 
    fa84:	48 8d 85 d0 f5 ff ff 	lea    -0xa30(%rbp),%rax
    fa8b:	48 89 85 f8 fe ff ff 	mov    %rax,-0x108(%rbp)
    fa92:	48 8d 85 d0 f5 ff ff 	lea    -0xa30(%rbp),%rax
    fa99:	48 89 85 00 ff ff ff 	mov    %rax,-0x100(%rbp)
    faa0:	48 8d 85 d0 f5 ff ff 	lea    -0xa30(%rbp),%rax
    faa7:	48 89 85 08 ff ff ff 	mov    %rax,-0xf8(%rbp)
    faae:	48 8d 85 d0 f5 ff ff 	lea    -0xa30(%rbp),%rax
    fab5:	48 89 85 10 ff ff ff 	mov    %rax,-0xf0(%rbp)
    fabc:	48 8d 85 d0 f5 ff ff 	lea    -0xa30(%rbp),%rax
    fac3:	48 89 85 18 ff ff ff 	mov    %rax,-0xe8(%rbp)
    faca:	48 8d 85 d0 f5 ff ff 	lea    -0xa30(%rbp),%rax
    fad1:	48 89 85 20 ff ff ff 	mov    %rax,-0xe0(%rbp)
    fad8:	48 8d 85 d0 f5 ff ff 	lea    -0xa30(%rbp),%rax
    fadf:	48 89 85 28 ff ff ff 	mov    %rax,-0xd8(%rbp)
    fae6:	48 c7 85 30 ff ff ff 	movq   $0x0,-0xd0(%rbp)
    faed:	00 00 00 00 
    faf1:	48 8d 85 d0 f5 ff ff 	lea    -0xa30(%rbp),%rax
    faf8:	48 89 85 38 ff ff ff 	mov    %rax,-0xc8(%rbp)
    faff:	48 c7 85 40 ff ff ff 	movq   $0x0,-0xc0(%rbp)
    fb06:	00 00 00 00 
    fb0a:	48 8d 85 d0 f5 ff ff 	lea    -0xa30(%rbp),%rax
    fb11:	48 89 85 48 ff ff ff 	mov    %rax,-0xb8(%rbp)
    fb18:	48 8d 85 d0 f5 ff ff 	lea    -0xa30(%rbp),%rax
    fb1f:	48 89 85 50 ff ff ff 	mov    %rax,-0xb0(%rbp)
    fb26:	48 8d 85 d0 f5 ff ff 	lea    -0xa30(%rbp),%rax
    fb2d:	48 89 85 58 ff ff ff 	mov    %rax,-0xa8(%rbp)
    fb34:	48 c7 85 60 ff ff ff 	movq   $0x0,-0xa0(%rbp)
    fb3b:	00 00 00 00 
    fb3f:	48 8d 85 d0 f5 ff ff 	lea    -0xa30(%rbp),%rax
    fb46:	48 89 85 68 ff ff ff 	mov    %rax,-0x98(%rbp)
    fb4d:	48 8d 85 d0 f5 ff ff 	lea    -0xa30(%rbp),%rax
    fb54:	48 89 85 70 ff ff ff 	mov    %rax,-0x90(%rbp)
    fb5b:	48 8d 85 d0 f5 ff ff 	lea    -0xa30(%rbp),%rax
    fb62:	48 89 85 78 ff ff ff 	mov    %rax,-0x88(%rbp)
    fb69:	48 c7 45 80 00 00 00 	movq   $0x0,-0x80(%rbp)
    fb70:	00 
    fb71:	48 8d 85 d0 f5 ff ff 	lea    -0xa30(%rbp),%rax
    fb78:	48 89 45 88          	mov    %rax,-0x78(%rbp)
    fb7c:	48 c7 45 90 00 00 00 	movq   $0x0,-0x70(%rbp)
    fb83:	00 
    fb84:	48 8d 85 d0 f5 ff ff 	lea    -0xa30(%rbp),%rax
    fb8b:	48 89 45 98          	mov    %rax,-0x68(%rbp)
    fb8f:	48 8d 85 d0 f5 ff ff 	lea    -0xa30(%rbp),%rax
    fb96:	48 89 45 a0          	mov    %rax,-0x60(%rbp)
    fb9a:	48 8d 85 d0 f5 ff ff 	lea    -0xa30(%rbp),%rax
    fba1:	48 89 45 a8          	mov    %rax,-0x58(%rbp)
    fba5:	48 8d 85 d0 f5 ff ff 	lea    -0xa30(%rbp),%rax
    fbac:	48 89 45 b0          	mov    %rax,-0x50(%rbp)
    fbb0:	48 8d 85 d0 f5 ff ff 	lea    -0xa30(%rbp),%rax
    fbb7:	48 89 45 b8          	mov    %rax,-0x48(%rbp)
    fbbb:	48 8d 85 d0 f5 ff ff 	lea    -0xa30(%rbp),%rax
    fbc2:	48 89 45 c0          	mov    %rax,-0x40(%rbp)
    fbc6:	c7 85 d0 f7 ff ff bf 	movl   $0xab34eabf,-0x830(%rbp)
    fbcd:	ea 34 ab 
    fbd0:	c7 85 d4 f7 ff ff bf 	movl   $0xab34eabf,-0x82c(%rbp)
    fbd7:	ea 34 ab 
    fbda:	c7 85 d8 f7 ff ff bf 	movl   $0xab34eabf,-0x828(%rbp)
    fbe1:	ea 34 ab 
    fbe4:	c7 85 dc f7 ff ff bf 	movl   $0xab34eabf,-0x824(%rbp)
    fbeb:	ea 34 ab 
    fbee:	c7 85 e0 f7 ff ff bf 	movl   $0xab34eabf,-0x820(%rbp)
    fbf5:	ea 34 ab 
    fbf8:	c7 85 e4 f7 ff ff bf 	movl   $0xab34eabf,-0x81c(%rbp)
    fbff:	ea 34 ab 
    fc02:	c7 85 e8 f7 ff ff bf 	movl   $0xab34eabf,-0x818(%rbp)
    fc09:	ea 34 ab 
    fc0c:	c7 85 ec f7 ff ff bf 	movl   $0xab34eabf,-0x814(%rbp)
    fc13:	ea 34 ab 
    fc16:	c7 85 f0 f7 ff ff bf 	movl   $0xab34eabf,-0x810(%rbp)
    fc1d:	ea 34 ab 
    fc20:	c7 85 f4 f7 ff ff bf 	movl   $0xab34eabf,-0x80c(%rbp)
    fc27:	ea 34 ab 
    fc2a:	c7 85 f8 f7 ff ff bf 	movl   $0xab34eabf,-0x808(%rbp)
    fc31:	ea 34 ab 
    fc34:	c7 85 fc f7 ff ff bf 	movl   $0xab34eabf,-0x804(%rbp)
    fc3b:	ea 34 ab 
    fc3e:	c7 85 00 f8 ff ff bf 	movl   $0xab34eabf,-0x800(%rbp)
    fc45:	ea 34 ab 
    fc48:	c7 85 04 f8 ff ff bf 	movl   $0xab34eabf,-0x7fc(%rbp)
    fc4f:	ea 34 ab 
    fc52:	c7 85 08 f8 ff ff bf 	movl   $0xab34eabf,-0x7f8(%rbp)
    fc59:	ea 34 ab 
    fc5c:	c7 85 0c f8 ff ff bf 	movl   $0xab34eabf,-0x7f4(%rbp)
    fc63:	ea 34 ab 
    fc66:	c7 85 10 f8 ff ff bf 	movl   $0xab34eabf,-0x7f0(%rbp)
    fc6d:	ea 34 ab 
    fc70:	c7 85 14 f8 ff ff bf 	movl   $0xab34eabf,-0x7ec(%rbp)
    fc77:	ea 34 ab 
    fc7a:	c7 85 18 f8 ff ff bf 	movl   $0xab34eabf,-0x7e8(%rbp)
    fc81:	ea 34 ab 
    fc84:	c7 85 1c f8 ff ff bf 	movl   $0xab34eabf,-0x7e4(%rbp)
    fc8b:	ea 34 ab 
    fc8e:	c7 85 20 f8 ff ff bf 	movl   $0xab34eabf,-0x7e0(%rbp)
    fc95:	ea 34 ab 
    fc98:	c7 85 24 f8 ff ff bf 	movl   $0xab34eabf,-0x7dc(%rbp)
    fc9f:	ea 34 ab 
    fca2:	c7 85 28 f8 ff ff bf 	movl   $0xab34eabf,-0x7d8(%rbp)
    fca9:	ea 34 ab 
    fcac:	c7 85 2c f8 ff ff bf 	movl   $0xab34eabf,-0x7d4(%rbp)
    fcb3:	ea 34 ab 
    fcb6:	c7 85 30 f8 ff ff bf 	movl   $0xab34eabf,-0x7d0(%rbp)
    fcbd:	ea 34 ab 
    fcc0:	c7 85 34 f8 ff ff bf 	movl   $0xab34eabf,-0x7cc(%rbp)
    fcc7:	ea 34 ab 
    fcca:	c7 85 38 f8 ff ff bf 	movl   $0xab34eabf,-0x7c8(%rbp)
    fcd1:	ea 34 ab 
    fcd4:	c7 85 3c f8 ff ff bf 	movl   $0xab34eabf,-0x7c4(%rbp)
    fcdb:	ea 34 ab 
    fcde:	c7 85 40 f8 ff ff bf 	movl   $0xab34eabf,-0x7c0(%rbp)
    fce5:	ea 34 ab 
    fce8:	c7 85 44 f8 ff ff bf 	movl   $0xab34eabf,-0x7bc(%rbp)
    fcef:	ea 34 ab 
    fcf2:	c7 85 48 f8 ff ff bf 	movl   $0xab34eabf,-0x7b8(%rbp)
    fcf9:	ea 34 ab 
    fcfc:	c7 85 4c f8 ff ff bf 	movl   $0xab34eabf,-0x7b4(%rbp)
    fd03:	ea 34 ab 
    fd06:	c7 85 50 f8 ff ff bf 	movl   $0xab34eabf,-0x7b0(%rbp)
    fd0d:	ea 34 ab 
    fd10:	c7 85 54 f8 ff ff bf 	movl   $0xab34eabf,-0x7ac(%rbp)
    fd17:	ea 34 ab 
    fd1a:	c7 85 58 f8 ff ff bf 	movl   $0xab34eabf,-0x7a8(%rbp)
    fd21:	ea 34 ab 
    fd24:	c7 85 5c f8 ff ff bf 	movl   $0xab34eabf,-0x7a4(%rbp)
    fd2b:	ea 34 ab 
    fd2e:	c7 85 60 f8 ff ff bf 	movl   $0xab34eabf,-0x7a0(%rbp)
    fd35:	ea 34 ab 
    fd38:	c7 85 64 f8 ff ff bf 	movl   $0xab34eabf,-0x79c(%rbp)
    fd3f:	ea 34 ab 
    fd42:	c7 85 68 f8 ff ff bf 	movl   $0xab34eabf,-0x798(%rbp)
    fd49:	ea 34 ab 
    fd4c:	c7 85 6c f8 ff ff bf 	movl   $0xab34eabf,-0x794(%rbp)
    fd53:	ea 34 ab 
    fd56:	c7 85 70 f8 ff ff bf 	movl   $0xab34eabf,-0x790(%rbp)
    fd5d:	ea 34 ab 
    fd60:	c7 85 74 f8 ff ff bf 	movl   $0xab34eabf,-0x78c(%rbp)
    fd67:	ea 34 ab 
    fd6a:	c7 85 78 f8 ff ff bf 	movl   $0xab34eabf,-0x788(%rbp)
    fd71:	ea 34 ab 
    fd74:	c7 85 7c f8 ff ff bf 	movl   $0xab34eabf,-0x784(%rbp)
    fd7b:	ea 34 ab 
    fd7e:	c7 85 80 f8 ff ff bf 	movl   $0xab34eabf,-0x780(%rbp)
    fd85:	ea 34 ab 
    fd88:	c7 85 84 f8 ff ff bf 	movl   $0xab34eabf,-0x77c(%rbp)
    fd8f:	ea 34 ab 
    fd92:	c7 85 88 f8 ff ff bf 	movl   $0xab34eabf,-0x778(%rbp)
    fd99:	ea 34 ab 
    fd9c:	c7 85 8c f8 ff ff bf 	movl   $0xab34eabf,-0x774(%rbp)
    fda3:	ea 34 ab 
    fda6:	c7 85 90 f8 ff ff bf 	movl   $0xab34eabf,-0x770(%rbp)
    fdad:	ea 34 ab 
    fdb0:	c7 85 94 f8 ff ff bf 	movl   $0xab34eabf,-0x76c(%rbp)
    fdb7:	ea 34 ab 
    fdba:	c7 85 98 f8 ff ff bf 	movl   $0xab34eabf,-0x768(%rbp)
    fdc1:	ea 34 ab 
    fdc4:	c7 85 9c f8 ff ff bf 	movl   $0xab34eabf,-0x764(%rbp)
    fdcb:	ea 34 ab 
    fdce:	c7 85 a0 f8 ff ff bf 	movl   $0xab34eabf,-0x760(%rbp)
    fdd5:	ea 34 ab 
    fdd8:	c7 85 a4 f8 ff ff bf 	movl   $0xab34eabf,-0x75c(%rbp)
    fddf:	ea 34 ab 
    fde2:	c7 85 a8 f8 ff ff bf 	movl   $0xab34eabf,-0x758(%rbp)
    fde9:	ea 34 ab 
    fdec:	c7 85 ac f8 ff ff bf 	movl   $0xab34eabf,-0x754(%rbp)
    fdf3:	ea 34 ab 
    fdf6:	c7 85 b0 f8 ff ff bf 	movl   $0xab34eabf,-0x750(%rbp)
    fdfd:	ea 34 ab 
    fe00:	c7 85 b4 f8 ff ff bf 	movl   $0xab34eabf,-0x74c(%rbp)
    fe07:	ea 34 ab 
    fe0a:	c7 85 b8 f8 ff ff bf 	movl   $0xab34eabf,-0x748(%rbp)
    fe11:	ea 34 ab 
    fe14:	c7 85 bc f8 ff ff bf 	movl   $0xab34eabf,-0x744(%rbp)
    fe1b:	ea 34 ab 
    fe1e:	48 8d 05 33 4a 01 00 	lea    0x14a33(%rip),%rax        # 24858 <g_730>
    fe25:	48 89 85 c0 f6 ff ff 	mov    %rax,-0x940(%rbp)
    fe2c:	48 8d 05 25 4a 01 00 	lea    0x14a25(%rip),%rax        # 24858 <g_730>
    fe33:	48 89 85 c8 f6 ff ff 	mov    %rax,-0x938(%rbp)
    fe3a:	48 8d 05 17 4a 01 00 	lea    0x14a17(%rip),%rax        # 24858 <g_730>
    fe41:	48 89 85 d0 f6 ff ff 	mov    %rax,-0x930(%rbp)
    fe48:	48 8d 05 09 4a 01 00 	lea    0x14a09(%rip),%rax        # 24858 <g_730>
    fe4f:	48 89 85 d8 f6 ff ff 	mov    %rax,-0x928(%rbp)
    fe56:	48 8d 05 fb 49 01 00 	lea    0x149fb(%rip),%rax        # 24858 <g_730>
    fe5d:	48 89 85 e0 f6 ff ff 	mov    %rax,-0x920(%rbp)
    fe64:	48 8d 05 ad ff 00 00 	lea    0xffad(%rip),%rax        # 1fe18 <g_1218>
    fe6b:	48 89 85 d8 f5 ff ff 	mov    %rax,-0xa28(%rbp)
    fe72:	48 8d 85 d8 f5 ff ff 	lea    -0xa28(%rbp),%rax
    fe79:	48 89 85 e0 f5 ff ff 	mov    %rax,-0xa20(%rbp)
    fe80:	48 8d 85 e0 f5 ff ff 	lea    -0xa20(%rbp),%rax
    fe87:	48 89 85 30 f7 ff ff 	mov    %rax,-0x8d0(%rbp)
    fe8e:	48 8d 85 e0 f5 ff ff 	lea    -0xa20(%rbp),%rax
    fe95:	48 89 85 38 f7 ff ff 	mov    %rax,-0x8c8(%rbp)
    fe9c:	48 8d 85 e0 f5 ff ff 	lea    -0xa20(%rbp),%rax
    fea3:	48 89 85 40 f7 ff ff 	mov    %rax,-0x8c0(%rbp)
    feaa:	48 8d 85 e0 f5 ff ff 	lea    -0xa20(%rbp),%rax
    feb1:	48 89 85 48 f7 ff ff 	mov    %rax,-0x8b8(%rbp)
    feb8:	48 8d 85 e0 f5 ff ff 	lea    -0xa20(%rbp),%rax
    febf:	48 89 85 50 f7 ff ff 	mov    %rax,-0x8b0(%rbp)
    fec6:	48 8d 85 e0 f5 ff ff 	lea    -0xa20(%rbp),%rax
    fecd:	48 89 85 58 f7 ff ff 	mov    %rax,-0x8a8(%rbp)
    fed4:	48 8d 85 e0 f5 ff ff 	lea    -0xa20(%rbp),%rax
    fedb:	48 89 85 60 f7 ff ff 	mov    %rax,-0x8a0(%rbp)
    fee2:	48 8d 85 e0 f5 ff ff 	lea    -0xa20(%rbp),%rax
    fee9:	48 89 85 68 f7 ff ff 	mov    %rax,-0x898(%rbp)
    fef0:	48 8d 85 e0 f5 ff ff 	lea    -0xa20(%rbp),%rax
    fef7:	48 89 85 70 f7 ff ff 	mov    %rax,-0x890(%rbp)
    fefe:	48 8d 85 30 f7 ff ff 	lea    -0x8d0(%rbp),%rax
    ff05:	48 83 c0 40          	add    $0x40,%rax
    ff09:	48 89 85 e8 f5 ff ff 	mov    %rax,-0xa18(%rbp)
    ff10:	48 8d 85 e8 f5 ff ff 	lea    -0xa18(%rbp),%rax
    ff17:	48 89 85 60 f6 ff ff 	mov    %rax,-0x9a0(%rbp)
    ff1e:	48 c7 85 68 f6 ff ff 	movq   $0x0,-0x998(%rbp)
    ff25:	00 00 00 00 
    ff29:	48 c7 85 70 f6 ff ff 	movq   $0x1,-0x990(%rbp)
    ff30:	01 00 00 00 
    ff34:	48 b8 40 9e 6d 61 00 	movabs $0xd0d7c200616d9e40,%rax
    ff3b:	c2 d7 d0 
    ff3e:	48 89 85 78 f6 ff ff 	mov    %rax,-0x988(%rbp)
    ff45:	48 8d 05 84 3a 01 00 	lea    0x13a84(%rip),%rax        # 239d0 <g_234>
    ff4c:	48 89 85 80 f6 ff ff 	mov    %rax,-0x980(%rbp)
    ff53:	48 c7 85 a8 f5 ff ff 	movq   $0x0,-0xa58(%rbp)
    ff5a:	00 00 00 00 
    ff5e:	e9 06 02 00 00       	jmpq   10169 <func_22+0x141d>
    ff63:	48 8d 05 ac fd 00 00 	lea    0xfdac(%rip),%rax        # 1fd16 <g_611+0x6>
    ff6a:	48 89 85 80 f7 ff ff 	mov    %rax,-0x880(%rbp)
    ff71:	48 8d 05 4e f4 00 00 	lea    0xf44e(%rip),%rax        # 1f3c6 <g_560+0x6>
    ff78:	48 89 85 88 f7 ff ff 	mov    %rax,-0x878(%rbp)
    ff7f:	48 8d 05 40 f4 00 00 	lea    0xf440(%rip),%rax        # 1f3c6 <g_560+0x6>
    ff86:	48 89 85 90 f7 ff ff 	mov    %rax,-0x870(%rbp)
    ff8d:	48 8d 05 82 fd 00 00 	lea    0xfd82(%rip),%rax        # 1fd16 <g_611+0x6>
    ff94:	48 89 85 98 f7 ff ff 	mov    %rax,-0x868(%rbp)
    ff9b:	48 8d 05 24 f4 00 00 	lea    0xf424(%rip),%rax        # 1f3c6 <g_560+0x6>
    ffa2:	48 89 85 a0 f7 ff ff 	mov    %rax,-0x860(%rbp)
    ffa9:	48 8d 05 16 f4 00 00 	lea    0xf416(%rip),%rax        # 1f3c6 <g_560+0x6>
    ffb0:	48 89 85 a8 f7 ff ff 	mov    %rax,-0x858(%rbp)
    ffb7:	48 8d 05 58 fd 00 00 	lea    0xfd58(%rip),%rax        # 1fd16 <g_611+0x6>
    ffbe:	48 89 85 b0 f7 ff ff 	mov    %rax,-0x850(%rbp)
    ffc5:	48 8d 05 fa f3 00 00 	lea    0xf3fa(%rip),%rax        # 1f3c6 <g_560+0x6>
    ffcc:	48 89 85 b8 f7 ff ff 	mov    %rax,-0x848(%rbp)
    ffd3:	48 8d 05 ec f3 00 00 	lea    0xf3ec(%rip),%rax        # 1f3c6 <g_560+0x6>
    ffda:	48 89 85 c0 f7 ff ff 	mov    %rax,-0x840(%rbp)
    ffe1:	0f b6 9d 4d f5 ff ff 	movzbl -0xab3(%rbp),%ebx
    ffe8:	48 8b 85 a8 f5 ff ff 	mov    -0xa58(%rbp),%rax
    ffef:	48 83 c0 04          	add    $0x4,%rax
    fff3:	48 8d 14 00          	lea    (%rax,%rax,1),%rdx
    fff7:	48 8d 05 42 fd 00 00 	lea    0xfd42(%rip),%rax        # 1fd40 <g_768>
    fffe:	0f b7 04 02          	movzwl (%rdx,%rax,1),%eax
   10002:	44 0f b7 e0          	movzwl %ax,%r12d
   10006:	0f b6 95 4d f5 ff ff 	movzbl -0xab3(%rbp),%edx
   1000d:	48 8b 85 a8 f5 ff ff 	mov    -0xa58(%rbp),%rax
   10014:	48 83 c0 04          	add    $0x4,%rax
   10018:	48 8d 0c 00          	lea    (%rax,%rax,1),%rcx
   1001c:	48 8d 05 1d fd 00 00 	lea    0xfd1d(%rip),%rax        # 1fd40 <g_768>
   10023:	0f b7 04 01          	movzwl (%rcx,%rax,1),%eax
   10027:	66 39 c2             	cmp    %ax,%dx
   1002a:	0f 92 c0             	setb   %al
   1002d:	0f b6 d0             	movzbl %al,%edx
   10030:	48 c7 85 f0 f8 ff ff 	movq   $0x0,-0x710(%rbp)
   10037:	00 00 00 00 
   1003b:	48 8b 8d f0 f8 ff ff 	mov    -0x710(%rbp),%rcx
   10042:	48 8d 85 d0 f5 ff ff 	lea    -0xa30(%rbp),%rax
   10049:	48 39 c1             	cmp    %rax,%rcx
   1004c:	0f 95 c0             	setne  %al
   1004f:	0f b6 c0             	movzbl %al,%eax
   10052:	39 c2                	cmp    %eax,%edx
   10054:	0f 9d c2             	setge  %dl
   10057:	48 8b 05 6a 39 01 00 	mov    0x1396a(%rip),%rax        # 239c8 <g_235>
   1005e:	88 10                	mov    %dl,(%rax)
   10060:	0f b6 00             	movzbl (%rax),%eax
   10063:	0f be d0             	movsbl %al,%edx
   10066:	0f b7 05 77 fd 00 00 	movzwl 0xfd77(%rip),%eax        # 1fde4 <g_1133+0x4>
   1006d:	66 25 ff 01          	and    $0x1ff,%ax
   10071:	0f b6 c0             	movzbl %al,%eax
   10074:	89 d6                	mov    %edx,%esi
   10076:	89 c7                	mov    %eax,%edi
   10078:	e8 10 7c ff ff       	callq  7c8d <safe_rshift_func_uint8_t_u_s>
   1007d:	0f b6 c0             	movzbl %al,%eax
   10080:	44 89 e6             	mov    %r12d,%esi
   10083:	89 c7                	mov    %eax,%edi
   10085:	e8 75 7c ff ff       	callq  7cff <safe_add_func_uint16_t_u_u>
   1008a:	0f b7 c0             	movzwl %ax,%eax
   1008d:	89 de                	mov    %ebx,%esi
   1008f:	89 c7                	mov    %eax,%edi
   10091:	e8 a7 7c ff ff       	callq  7d3d <safe_mul_func_uint16_t_u_u>
   10096:	0f b7 d0             	movzwl %ax,%edx
   10099:	48 8b 05 20 39 01 00 	mov    0x13920(%rip),%rax        # 239c0 <g_112>
   100a0:	48 8b 00             	mov    (%rax),%rax
   100a3:	48 85 c0             	test   %rax,%rax
   100a6:	0f 95 c0             	setne  %al
   100a9:	0f b6 c0             	movzbl %al,%eax
   100ac:	89 d6                	mov    %edx,%esi
   100ae:	89 c7                	mov    %eax,%edi
   100b0:	e8 48 7e ff ff       	callq  7efd <safe_mod_func_uint32_t_u_u>
   100b5:	85 c0                	test   %eax,%eax
   100b7:	74 08                	je     100c1 <func_22+0x1375>
   100b9:	8b 85 24 f7 ff ff    	mov    -0x8dc(%rbp),%eax
   100bf:	85 c0                	test   %eax,%eax
   100c1:	48 8b 85 80 f7 ff ff 	mov    -0x880(%rbp),%rax
   100c8:	48 85 c0             	test   %rax,%rax
   100cb:	0f 94 c0             	sete   %al
   100ce:	0f b6 d0             	movzbl %al,%edx
   100d1:	48 8b 05 d8 3d 01 00 	mov    0x13dd8(%rip),%rax        # 23eb0 <g_784>
   100d8:	48 8b 00             	mov    (%rax),%rax
   100db:	48 39 c2             	cmp    %rax,%rdx
   100de:	0f 94 c0             	sete   %al
   100e1:	0f b6 d0             	movzbl %al,%edx
   100e4:	48 8b 85 a8 f5 ff ff 	mov    -0xa58(%rbp),%rax
   100eb:	48 83 c0 04          	add    $0x4,%rax
   100ef:	48 8d 0c 00          	lea    (%rax,%rax,1),%rcx
   100f3:	48 8d 05 46 fc 00 00 	lea    0xfc46(%rip),%rax        # 1fd40 <g_768>
   100fa:	0f b7 04 01          	movzwl (%rcx,%rax,1),%eax
   100fe:	0f b7 c0             	movzwl %ax,%eax
   10101:	89 d6                	mov    %edx,%esi
   10103:	89 c7                	mov    %eax,%edi
   10105:	e8 15 7c ff ff       	callq  7d1f <safe_sub_func_uint16_t_u_u>
   1010a:	0f b7 d0             	movzwl %ax,%edx
   1010d:	8b 85 50 f5 ff ff    	mov    -0xab0(%rbp),%eax
   10113:	09 d0                	or     %edx,%eax
   10115:	89 85 50 f5 ff ff    	mov    %eax,-0xab0(%rbp)
   1011b:	48 c7 05 34 f2 00 00 	movq   $0x0,0xf234(%rip)        # 1f35a <g_439+0xa>
   10122:	00 00 00 00 
   10126:	eb 1f                	jmp    10147 <func_22+0x13fb>
   10128:	48 8b 85 38 f6 ff ff 	mov    -0x9c8(%rbp),%rax
   1012f:	8b 00                	mov    (%rax),%eax
   10131:	85 c0                	test   %eax,%eax
   10133:	75 21                	jne    10156 <func_22+0x140a>
   10135:	48 8b 05 1e f2 00 00 	mov    0xf21e(%rip),%rax        # 1f35a <g_439+0xa>
   1013c:	48 83 c0 01          	add    $0x1,%rax
   10140:	48 89 05 13 f2 00 00 	mov    %rax,0xf213(%rip)        # 1f35a <g_439+0xa>
   10147:	48 8b 05 0c f2 00 00 	mov    0xf20c(%rip),%rax        # 1f35a <g_439+0xa>
   1014e:	48 83 f8 02          	cmp    $0x2,%rax
   10152:	76 d4                	jbe    10128 <func_22+0x13dc>
   10154:	eb 01                	jmp    10157 <func_22+0x140b>
   10156:	90                   	nop
   10157:	48 8b 85 a8 f5 ff ff 	mov    -0xa58(%rbp),%rax
   1015e:	48 83 c0 01          	add    $0x1,%rax
   10162:	48 89 85 a8 f5 ff ff 	mov    %rax,-0xa58(%rbp)
   10169:	48 8b 85 a8 f5 ff ff 	mov    -0xa58(%rbp),%rax
   10170:	48 83 f8 02          	cmp    $0x2,%rax
   10174:	0f 86 e9 fd ff ff    	jbe    ff63 <func_22+0x1217>
   1017a:	c7 05 ac fb 00 00 f2 	movl   $0xfffffff2,0xfbac(%rip)        # 1fd30 <g_660>
   10181:	ff ff ff 
   10184:	e9 9f 02 00 00       	jmpq   10428 <func_22+0x16dc>
   10189:	c7 85 58 f5 ff ff f9 	movl   $0xfffffff9,-0xaa8(%rbp)
   10190:	ff ff ff 
   10193:	c7 85 80 f7 ff ff bd 	movl   $0x5ed755bd,-0x880(%rbp)
   1019a:	55 d7 5e 
   1019d:	c7 85 84 f7 ff ff bd 	movl   $0x5ed755bd,-0x87c(%rbp)
   101a4:	55 d7 5e 
   101a7:	c7 85 88 f7 ff ff bd 	movl   $0x5ed755bd,-0x878(%rbp)
   101ae:	55 d7 5e 
   101b1:	c7 85 8c f7 ff ff 09 	movl   $0x9,-0x874(%rbp)
   101b8:	00 00 00 
   101bb:	c7 85 90 f7 ff ff 01 	movl   $0x1,-0x870(%rbp)
   101c2:	00 00 00 
   101c5:	c7 85 94 f7 ff ff ce 	movl   $0x2b4cf0ce,-0x86c(%rbp)
   101cc:	f0 4c 2b 
   101cf:	c7 85 98 f7 ff ff 09 	movl   $0x9,-0x868(%rbp)
   101d6:	00 00 00 
   101d9:	c7 85 9c f7 ff ff ce 	movl   $0x2b4cf0ce,-0x864(%rbp)
   101e0:	f0 4c 2b 
   101e3:	c7 85 a0 f7 ff ff 01 	movl   $0x1,-0x860(%rbp)
   101ea:	00 00 00 
   101ed:	c7 85 a4 f7 ff ff 09 	movl   $0x9,-0x85c(%rbp)
   101f4:	00 00 00 
   101f7:	c7 85 a8 f7 ff ff bd 	movl   $0x5ed755bd,-0x858(%rbp)
   101fe:	55 d7 5e 
   10201:	c7 85 ac f7 ff ff bd 	movl   $0x5ed755bd,-0x854(%rbp)
   10208:	55 d7 5e 
   1020b:	c7 85 b0 f7 ff ff bd 	movl   $0x5ed755bd,-0x850(%rbp)
   10212:	55 d7 5e 
   10215:	c7 85 b4 f7 ff ff 09 	movl   $0x9,-0x84c(%rbp)
   1021c:	00 00 00 
   1021f:	c7 85 b8 f7 ff ff 01 	movl   $0x1,-0x848(%rbp)
   10226:	00 00 00 
   10229:	c7 85 bc f7 ff ff ce 	movl   $0x2b4cf0ce,-0x844(%rbp)
   10230:	f0 4c 2b 
   10233:	48 8d 05 98 f1 00 00 	lea    0xf198(%rip),%rax        # 1f3d2 <g_560+0x12>
   1023a:	48 89 85 a0 f6 ff ff 	mov    %rax,-0x960(%rbp)
   10241:	c7 85 8c f5 ff ff b7 	movl   $0xc804d1b7,-0xa74(%rbp)
   10248:	d1 04 c8 
   1024b:	48 8d 05 94 fb 00 00 	lea    0xfb94(%rip),%rax        # 1fde6 <g_1133+0x6>
   10252:	48 89 85 a8 f6 ff ff 	mov    %rax,-0x958(%rbp)
   10259:	48 8b 85 a8 f5 ff ff 	mov    -0xa58(%rbp),%rax
   10260:	0f bf d8             	movswl %ax,%ebx
   10263:	48 8b 85 a0 f6 ff ff 	mov    -0x960(%rbp),%rax
   1026a:	8b 00                	mov    (%rax),%eax
   1026c:	8d 50 ff             	lea    -0x1(%rax),%edx
   1026f:	48 8b 85 a0 f6 ff ff 	mov    -0x960(%rbp),%rax
   10276:	89 10                	mov    %edx,(%rax)
   10278:	48 8b 85 a8 f5 ff ff 	mov    -0xa58(%rbp),%rax
   1027f:	44 0f be e0          	movsbl %al,%r12d
   10283:	48 8b 85 a8 f5 ff ff 	mov    -0xa58(%rbp),%rax
   1028a:	44 0f b7 e8          	movzwl %ax,%r13d
   1028e:	8b 85 50 f5 ff ff    	mov    -0xab0(%rbp),%eax
   10294:	44 0f b7 f0          	movzwl %ax,%r14d
   10298:	0f b7 85 54 f5 ff ff 	movzwl -0xaac(%rbp),%eax
   1029f:	66 25 ff 0f          	and    $0xfff,%ax
   102a3:	0f b6 c0             	movzbl %al,%eax
   102a6:	89 c6                	mov    %eax,%esi
   102a8:	bf f8 00 00 00       	mov    $0xf8,%edi
   102ad:	e8 c6 78 ff ff       	callq  7b78 <safe_sub_func_uint8_t_u_u>
   102b2:	0f b6 d0             	movzbl %al,%edx
   102b5:	48 8b 85 38 f6 ff ff 	mov    -0x9c8(%rbp),%rax
   102bc:	8b 00                	mov    (%rax),%eax
   102be:	39 c2                	cmp    %eax,%edx
   102c0:	0f 95 c0             	setne  %al
   102c3:	0f b6 c0             	movzbl %al,%eax
   102c6:	be c9 5d 00 00       	mov    $0x5dc9,%esi
   102cb:	89 c7                	mov    %eax,%edi
   102cd:	e8 6b 7a ff ff       	callq  7d3d <safe_mul_func_uint16_t_u_u>
   102d2:	0f b7 c0             	movzwl %ax,%eax
   102d5:	be 08 00 00 00       	mov    $0x8,%esi
   102da:	89 c7                	mov    %eax,%edi
   102dc:	e8 dd 7a ff ff       	callq  7dbe <safe_lshift_func_uint16_t_u_s>
   102e1:	0f b7 c0             	movzwl %ax,%eax
   102e4:	44 89 f6             	mov    %r14d,%esi
   102e7:	89 c7                	mov    %eax,%edi
   102e9:	e8 6e 7a ff ff       	callq  7d5c <safe_mod_func_uint16_t_u_u>
   102ee:	0f b7 c0             	movzwl %ax,%eax
   102f1:	44 89 ee             	mov    %r13d,%esi
   102f4:	89 c7                	mov    %eax,%edi
   102f6:	e8 42 7a ff ff       	callq  7d3d <safe_mul_func_uint16_t_u_u>
   102fb:	0f be c0             	movsbl %al,%eax
   102fe:	44 89 e6             	mov    %r12d,%esi
   10301:	89 c7                	mov    %eax,%edi
   10303:	e8 ea 6e ff ff       	callq  71f2 <safe_sub_func_int8_t_s_s>
   10308:	84 c0                	test   %al,%al
   1030a:	74 11                	je     1031d <func_22+0x15d1>
   1030c:	8b 85 90 f7 ff ff    	mov    -0x870(%rbp),%eax
   10312:	85 c0                	test   %eax,%eax
   10314:	74 07                	je     1031d <func_22+0x15d1>
   10316:	b8 01 00 00 00       	mov    $0x1,%eax
   1031b:	eb 05                	jmp    10322 <func_22+0x15d6>
   1031d:	b8 00 00 00 00       	mov    $0x0,%eax
   10322:	39 85 8c f5 ff ff    	cmp    %eax,-0xa74(%rbp)
   10328:	0f 94 c0             	sete   %al
   1032b:	0f b6 c0             	movzbl %al,%eax
   1032e:	be 50 d3 ff ff       	mov    $0xffffd350,%esi
   10333:	89 c7                	mov    %eax,%edi
   10335:	e8 bb 70 ff ff       	callq  73f5 <safe_mul_func_int16_t_s_s>
   1033a:	0f bf d0             	movswl %ax,%edx
   1033d:	8b 85 50 f5 ff ff    	mov    -0xab0(%rbp),%eax
   10343:	39 c2                	cmp    %eax,%edx
   10345:	89 de                	mov    %ebx,%esi
   10347:	bf 01 00 00 00       	mov    $0x1,%edi
   1034c:	e8 a4 70 ff ff       	callq  73f5 <safe_mul_func_int16_t_s_s>
   10351:	66 83 f8 03          	cmp    $0x3,%ax
   10355:	0f 9f c0             	setg   %al
   10358:	0f b6 d0             	movzbl %al,%edx
   1035b:	8b 85 2c f7 ff ff    	mov    -0x8d4(%rbp),%eax
   10361:	39 c2                	cmp    %eax,%edx
   10363:	0f 9e c0             	setle  %al
   10366:	0f b6 c0             	movzbl %al,%eax
   10369:	89 85 bc f7 ff ff    	mov    %eax,-0x844(%rbp)
   1036f:	be 06 00 00 00       	mov    $0x6,%esi
   10374:	bf 01 00 00 00       	mov    $0x1,%edi
   10379:	e8 81 79 ff ff       	callq  7cff <safe_add_func_uint16_t_u_u>
   1037e:	b8 6e 76 f3 e8       	mov    $0xe8f3766e,%eax
   10383:	21 85 5c f5 ff ff    	and    %eax,-0xaa4(%rbp)
   10389:	8b 85 5c f5 ff ff    	mov    -0xaa4(%rbp),%eax
   1038f:	48 98                	cltq   
   10391:	25 d1 52 3f ec       	and    $0xec3f52d1,%eax
   10396:	48 89 c2             	mov    %rax,%rdx
   10399:	48 8b 85 a8 f5 ff ff 	mov    -0xa58(%rbp),%rax
   103a0:	48 39 c2             	cmp    %rax,%rdx
   103a3:	0f 93 c0             	setae  %al
   103a6:	0f b6 c0             	movzbl %al,%eax
   103a9:	89 c6                	mov    %eax,%esi
   103ab:	bf 04 00 00 00       	mov    $0x4,%edi
   103b0:	e8 40 70 ff ff       	callq  73f5 <safe_mul_func_int16_t_s_s>
   103b5:	98                   	cwtl   
   103b6:	39 85 8c f5 ff ff    	cmp    %eax,-0xa74(%rbp)
   103bc:	0f 95 c0             	setne  %al
   103bf:	f7 d0                	not    %eax
   103c1:	0f b6 d0             	movzbl %al,%edx
   103c4:	48 8b 05 1f fa 00 00 	mov    0xfa1f(%rip),%rax        # 1fdea <g_1133+0xa>
   103cb:	0f b6 c0             	movzbl %al,%eax
   103ce:	89 d6                	mov    %edx,%esi
   103d0:	89 c7                	mov    %eax,%edi
   103d2:	e8 bc 77 ff ff       	callq  7b93 <safe_mul_func_uint8_t_u_u>
   103d7:	80 bd 4d f5 ff ff 00 	cmpb   $0x0,-0xab3(%rbp)
   103de:	75 10                	jne    103f0 <func_22+0x16a4>
   103e0:	0f b7 85 54 f5 ff ff 	movzwl -0xaac(%rbp),%eax
   103e7:	66 25 ff 0f          	and    $0xfff,%ax
   103eb:	66 85 c0             	test   %ax,%ax
   103ee:	74 07                	je     103f7 <func_22+0x16ab>
   103f0:	b8 01 00 00 00       	mov    $0x1,%eax
   103f5:	eb 05                	jmp    103fc <func_22+0x16b0>
   103f7:	b8 00 00 00 00       	mov    $0x0,%eax
   103fc:	83 f8 08             	cmp    $0x8,%eax
   103ff:	0f 9e c0             	setle  %al
   10402:	0f b6 d0             	movzbl %al,%edx
   10405:	48 8b 85 a8 f6 ff ff 	mov    -0x958(%rbp),%rax
   1040c:	8b 00                	mov    (%rax),%eax
   1040e:	09 c2                	or     %eax,%edx
   10410:	48 8b 85 a8 f6 ff ff 	mov    -0x958(%rbp),%rax
   10417:	89 10                	mov    %edx,(%rax)
   10419:	8b 05 11 f9 00 00    	mov    0xf911(%rip),%eax        # 1fd30 <g_660>
   1041f:	83 c0 01             	add    $0x1,%eax
   10422:	89 05 08 f9 00 00    	mov    %eax,0xf908(%rip)        # 1fd30 <g_660>
   10428:	8b 05 02 f9 00 00    	mov    0xf902(%rip),%eax        # 1fd30 <g_660>
   1042e:	83 f8 11             	cmp    $0x11,%eax
   10431:	0f 85 52 fd ff ff    	jne    10189 <func_22+0x143d>
   10437:	48 8b 85 38 f6 ff ff 	mov    -0x9c8(%rbp),%rax
   1043e:	c7 00 f7 ff ff ff    	movl   $0xfffffff7,(%rax)
   10444:	0f b6 85 4d f5 ff ff 	movzbl -0xab3(%rbp),%eax
   1044b:	89 85 04 f8 ff ff    	mov    %eax,-0x7fc(%rbp)
   10451:	0f b7 85 54 f5 ff ff 	movzwl -0xaac(%rbp),%eax
   10458:	66 25 ff 0f          	and    $0xfff,%ax
   1045c:	0f b7 d8             	movzwl %ax,%ebx
   1045f:	48 8b 95 e8 f5 ff ff 	mov    -0xa18(%rbp),%rdx
   10466:	48 8b 85 60 f6 ff ff 	mov    -0x9a0(%rbp),%rax
   1046d:	48 89 10             	mov    %rdx,(%rax)
   10470:	48 8b 85 60 f6 ff ff 	mov    -0x9a0(%rbp),%rax
   10477:	48 8b 00             	mov    (%rax),%rax
   1047a:	48 8d 15 37 35 01 00 	lea    0x13537(%rip),%rdx        # 239b8 <g_113>
   10481:	48 39 d0             	cmp    %rdx,%rax
   10484:	0f 95 c0             	setne  %al
   10487:	0f b6 c0             	movzbl %al,%eax
   1048a:	be 03 00 00 00       	mov    $0x3,%esi
   1048f:	89 c7                	mov    %eax,%edi
   10491:	e8 70 79 ff ff       	callq  7e06 <safe_lshift_func_uint16_t_u_u>
   10496:	0f b7 c0             	movzwl %ax,%eax
   10499:	48 be da 24 b3 dd 89 	movabs $0xca53e989ddb324da,%rsi
   104a0:	e9 53 ca 
   104a3:	48 89 c7             	mov    %rax,%rdi
   104a6:	e8 96 73 ff ff       	callq  7841 <safe_add_func_int64_t_s_s>
   104ab:	0f be d0             	movsbl %al,%edx
   104ae:	48 8b 05 13 35 01 00 	mov    0x13513(%rip),%rax        # 239c8 <g_235>
   104b5:	0f b6 08             	movzbl (%rax),%ecx
   104b8:	48 8b 85 f8 f5 ff ff 	mov    -0xa08(%rbp),%rax
   104bf:	89 c6                	mov    %eax,%esi
   104c1:	48 8b 05 00 35 01 00 	mov    0x13500(%rip),%rax        # 239c8 <g_235>
   104c8:	31 f1                	xor    %esi,%ecx
   104ca:	88 08                	mov    %cl,(%rax)
   104cc:	0f b6 00             	movzbl (%rax),%eax
   104cf:	0f be c0             	movsbl %al,%eax
   104d2:	89 d6                	mov    %edx,%esi
   104d4:	89 c7                	mov    %eax,%edi
   104d6:	e8 37 6d ff ff       	callq  7212 <safe_mul_func_int8_t_s_s>
   104db:	0f be c0             	movsbl %al,%eax
   104de:	39 c3                	cmp    %eax,%ebx
   104e0:	0f 9c c0             	setl   %al
   104e3:	0f b6 c0             	movzbl %al,%eax
   104e6:	be 02 00 00 00       	mov    $0x2,%esi
   104eb:	89 c7                	mov    %eax,%edi
   104ed:	e8 af 6d ff ff       	callq  72a1 <safe_lshift_func_int8_t_s_s>
   104f2:	c7 85 68 f5 ff ff 01 	movl   $0x1,-0xa98(%rbp)
   104f9:	00 00 00 
   104fc:	0f be c0             	movsbl %al,%eax
   104ff:	31 85 6c f5 ff ff    	xor    %eax,-0xa94(%rbp)
   10505:	8b 85 68 f5 ff ff    	mov    -0xa98(%rbp),%eax
   1050b:	3b 85 6c f5 ff ff    	cmp    -0xa94(%rbp),%eax
   10511:	7e 09                	jle    1051c <func_22+0x17d0>
   10513:	83 bd 5c f5 ff ff 00 	cmpl   $0x0,-0xaa4(%rbp)
   1051a:	75 14                	jne    10530 <func_22+0x17e4>
   1051c:	48 8b 85 e8 f5 ff ff 	mov    -0xa18(%rbp),%rax
   10523:	48 8b 00             	mov    (%rax),%rax
   10526:	48 8b 00             	mov    (%rax),%rax
   10529:	48 8b 00             	mov    (%rax),%rax
   1052c:	8b 00                	mov    (%rax),%eax
   1052e:	85 c0                	test   %eax,%eax
   10530:	90                   	nop
   10531:	48 8b 05 f8 37 01 00 	mov    0x137f8(%rip),%rax        # 23d30 <g_741>
   10538:	8b 85 28 f7 ff ff    	mov    -0x8d8(%rbp),%eax
   1053e:	0f b7 c0             	movzwl %ax,%eax
   10541:	be 01 00 00 00       	mov    $0x1,%esi
   10546:	89 c7                	mov    %eax,%edi
   10548:	e8 fb 78 ff ff       	callq  7e48 <safe_rshift_func_uint16_t_u_s>
   1054d:	48 8b 85 f8 f5 ff ff 	mov    -0xa08(%rbp),%rax
   10554:	0f b6 c0             	movzbl %al,%eax
   10557:	be 06 00 00 00       	mov    $0x6,%esi
   1055c:	89 c7                	mov    %eax,%edi
   1055e:	e8 e9 76 ff ff       	callq  7c4c <safe_lshift_func_uint8_t_u_u>
   10563:	0f b6 c0             	movzbl %al,%eax
   10566:	be 01 00 00 00       	mov    $0x1,%esi
   1056b:	89 c7                	mov    %eax,%edi
   1056d:	e8 4c 77 ff ff       	callq  7cbe <safe_rshift_func_uint8_t_u_u>
   10572:	84 c0                	test   %al,%al
   10574:	0f 84 40 02 00 00    	je     107ba <func_22+0x1a6e>
   1057a:	c7 85 84 f5 ff ff fa 	movl   $0xf45003fa,-0xa7c(%rbp)
   10581:	03 50 f4 
   10584:	c7 85 88 f5 ff ff f6 	movl   $0xfffffff6,-0xa78(%rbp)
   1058b:	ff ff ff 
   1058e:	c7 85 60 f5 ff ff 00 	movl   $0x0,-0xaa0(%rbp)
   10595:	00 00 00 
   10598:	eb 1e                	jmp    105b8 <func_22+0x186c>
   1059a:	8b 85 60 f5 ff ff    	mov    -0xaa0(%rbp),%eax
   105a0:	48 98                	cltq   
   105a2:	48 8d 15 bf ea 00 00 	lea    0xeabf(%rip),%rdx        # 1f068 <g_101>
   105a9:	48 89 94 c5 80 f7 ff 	mov    %rdx,-0x880(%rbp,%rax,8)
   105b0:	ff 
   105b1:	83 85 60 f5 ff ff 01 	addl   $0x1,-0xaa0(%rbp)
   105b8:	83 bd 60 f5 ff ff 02 	cmpl   $0x2,-0xaa0(%rbp)
   105bf:	7e d9                	jle    1059a <func_22+0x184e>
   105c1:	48 8b 05 d8 38 01 00 	mov    0x138d8(%rip),%rax        # 23ea0 <g_747>
   105c8:	48 8b 85 78 f6 ff ff 	mov    -0x988(%rbp),%rax
   105cf:	0f b6 d0             	movzbl %al,%edx
   105d2:	48 8d 05 d7 35 01 00 	lea    0x135d7(%rip),%rax        # 23bb0 <g_504>
   105d9:	48 39 85 00 f6 ff ff 	cmp    %rax,-0xa00(%rbp)
   105e0:	0f 94 c0             	sete   %al
   105e3:	0f b6 c8             	movzbl %al,%ecx
   105e6:	0f b7 85 54 f5 ff ff 	movzwl -0xaac(%rbp),%eax
   105ed:	66 25 ff 0f          	and    $0xfff,%ax
   105f1:	0f b7 c0             	movzwl %ax,%eax
   105f4:	39 c1                	cmp    %eax,%ecx
   105f6:	0f 9d c0             	setge  %al
   105f9:	0f b6 c0             	movzbl %al,%eax
   105fc:	39 85 6c f5 ff ff    	cmp    %eax,-0xa94(%rbp)
   10602:	0f 9f c0             	setg   %al
   10605:	0f b6 c0             	movzbl %al,%eax
   10608:	89 d6                	mov    %edx,%esi
   1060a:	89 c7                	mov    %eax,%edi
   1060c:	e8 49 75 ff ff       	callq  7b5a <safe_add_func_uint8_t_u_u>
   10611:	89 c2                	mov    %eax,%edx
   10613:	0f b7 85 54 f5 ff ff 	movzwl -0xaac(%rbp),%eax
   1061a:	66 25 ff 0f          	and    $0xfff,%ax
   1061e:	31 d0                	xor    %edx,%eax
   10620:	0f b6 d8             	movzbl %al,%ebx
   10623:	48 8b 85 70 f6 ff ff 	mov    -0x990(%rbp),%rax
   1062a:	48 89 05 37 ea 00 00 	mov    %rax,0xea37(%rip)        # 1f068 <g_101>
   10631:	48 8b 15 30 ea 00 00 	mov    0xea30(%rip),%rdx        # 1f068 <g_101>
   10638:	8b 85 68 f5 ff ff    	mov    -0xa98(%rbp),%eax
   1063e:	48 98                	cltq   
   10640:	48 39 c2             	cmp    %rax,%rdx
   10643:	0f 9c c0             	setl   %al
   10646:	0f b6 c0             	movzbl %al,%eax
   10649:	be 07 00 00 00       	mov    $0x7,%esi
   1064e:	89 c7                	mov    %eax,%edi
   10650:	e8 38 76 ff ff       	callq  7c8d <safe_rshift_func_uint8_t_u_s>
   10655:	0f b6 c0             	movzbl %al,%eax
   10658:	89 de                	mov    %ebx,%esi
   1065a:	89 c7                	mov    %eax,%edi
   1065c:	e8 32 75 ff ff       	callq  7b93 <safe_mul_func_uint8_t_u_u>
   10661:	0f b6 c0             	movzbl %al,%eax
   10664:	f7 d0                	not    %eax
   10666:	39 85 84 f5 ff ff    	cmp    %eax,-0xa7c(%rbp)
   1066c:	0f 95 c0             	setne  %al
   1066f:	0f b6 d0             	movzbl %al,%edx
   10672:	0f b7 05 db ec 00 00 	movzwl 0xecdb(%rip),%eax        # 1f354 <g_439+0x4>
   10679:	66 25 ff 01          	and    $0x1ff,%ax
   1067d:	0f b7 c0             	movzwl %ax,%eax
   10680:	21 d0                	and    %edx,%eax
   10682:	be 2e 59 9e d0       	mov    $0xd09e592e,%esi
   10687:	89 c7                	mov    %eax,%edi
   10689:	e8 3e 70 ff ff       	callq  76cc <safe_mod_func_int32_t_s_s>
   1068e:	0f b6 d0             	movzbl %al,%edx
   10691:	8b 85 68 f5 ff ff    	mov    -0xa98(%rbp),%eax
   10697:	0f b6 c0             	movzbl %al,%eax
   1069a:	89 d6                	mov    %edx,%esi
   1069c:	89 c7                	mov    %eax,%edi
   1069e:	e8 0b 75 ff ff       	callq  7bae <safe_mod_func_uint8_t_u_u>
   106a3:	48 8b 05 2e 33 01 00 	mov    0x1332e(%rip),%rax        # 239d8 <g_267>
   106aa:	48 8b 0d 9f f7 00 00 	mov    0xf79f(%rip),%rcx        # 1fe50 <g_1334>
   106b1:	48 8b 1d a0 f7 00 00 	mov    0xf7a0(%rip),%rbx        # 1fe58 <g_1334+0x8>
   106b8:	48 89 08             	mov    %rcx,(%rax)
   106bb:	48 89 58 08          	mov    %rbx,0x8(%rax)
   106bf:	48 8b 15 9a f7 00 00 	mov    0xf79a(%rip),%rdx        # 1fe60 <g_1334+0x10>
   106c6:	48 89 50 10          	mov    %rdx,0x10(%rax)
   106ca:	8b 15 98 f7 00 00    	mov    0xf798(%rip),%edx        # 1fe68 <g_1334+0x18>
   106d0:	89 50 18             	mov    %edx,0x18(%rax)
   106d3:	0f b7 15 92 f7 00 00 	movzwl 0xf792(%rip),%edx        # 1fe6c <g_1334+0x1c>
   106da:	66 89 50 1c          	mov    %dx,0x1c(%rax)
   106de:	c7 05 b4 ec 00 00 e4 	movl   $0xffffffe4,0xecb4(%rip)        # 1f39c <g_535>
   106e5:	ff ff ff 
   106e8:	90                   	nop
   106e9:	8b 05 ad ec 00 00    	mov    0xecad(%rip),%eax        # 1f39c <g_535>
   106ef:	83 f8 1c             	cmp    $0x1c,%eax
   106f2:	0f 87 ed 06 00 00    	ja     10de5 <func_22+0x2099>
   106f8:	66 c7 85 4e f5 ff ff 	movw   $0x6535,-0xab2(%rbp)
   106ff:	35 65 
   10701:	0f b7 9d 4e f5 ff ff 	movzwl -0xab2(%rbp),%ebx
   10708:	8b 85 6c f5 ff ff    	mov    -0xa94(%rbp),%eax
   1070e:	4c 63 e0             	movslq %eax,%r12
   10711:	48 8b 85 d8 f5 ff ff 	mov    -0xa28(%rbp),%rax
   10718:	8b 00                	mov    (%rax),%eax
   1071a:	85 c0                	test   %eax,%eax
   1071c:	0f 94 c0             	sete   %al
   1071f:	0f b6 c0             	movzbl %al,%eax
   10722:	be 03 00 00 00       	mov    $0x3,%esi
   10727:	89 c7                	mov    %eax,%edi
   10729:	e8 3e 6c ff ff       	callq  736c <safe_rshift_func_int8_t_s_u>
   1072e:	0f be d0             	movsbl %al,%edx
   10731:	48 83 bd 80 f6 ff ff 	cmpq   $0x0,-0x980(%rbp)
   10738:	00 
   10739:	0f 94 c0             	sete   %al
   1073c:	0f b6 c0             	movzbl %al,%eax
   1073f:	31 d0                	xor    %edx,%eax
   10741:	33 85 84 f5 ff ff    	xor    -0xa7c(%rbp),%eax
   10747:	39 85 70 f5 ff ff    	cmp    %eax,-0xa90(%rbp)
   1074d:	0f 9e c0             	setle  %al
   10750:	0f b6 c0             	movzbl %al,%eax
   10753:	4c 89 e6             	mov    %r12,%rsi
   10756:	48 89 c7             	mov    %rax,%rdi
   10759:	e8 99 72 ff ff       	callq  79f7 <safe_div_func_int64_t_s_s>
   1075e:	48 8b 95 90 f7 ff ff 	mov    -0x870(%rbp),%rdx
   10765:	48 8d 85 a8 f5 ff ff 	lea    -0xa58(%rbp),%rax
   1076c:	48 39 c2             	cmp    %rax,%rdx
   1076f:	0f 95 c0             	setne  %al
   10772:	0f b6 c0             	movzbl %al,%eax
   10775:	48 be 06 41 b4 8b 23 	movabs $0xb656fe238bb44106,%rsi
   1077c:	fe 56 b6 
   1077f:	48 89 c7             	mov    %rax,%rdi
   10782:	e8 a7 78 ff ff       	callq  802e <safe_add_func_uint64_t_u_u>
   10787:	48 83 c8 01          	or     $0x1,%rax
   1078b:	48 89 c2             	mov    %rax,%rdx
   1078e:	8b 85 a0 f5 ff ff    	mov    -0xa60(%rbp),%eax
   10794:	48 98                	cltq   
   10796:	48 39 c2             	cmp    %rax,%rdx
   10799:	0f 93 c0             	setae  %al
   1079c:	0f b6 c0             	movzbl %al,%eax
   1079f:	89 de                	mov    %ebx,%esi
   107a1:	89 c7                	mov    %eax,%edi
   107a3:	e8 0e 6e ff ff       	callq  75b6 <safe_add_func_int32_t_s_s>
   107a8:	09 85 88 f5 ff ff    	or     %eax,-0xa78(%rbp)
   107ae:	48 8b 85 a8 f5 ff ff 	mov    -0xa58(%rbp),%rax
   107b5:	e9 9d 06 00 00       	jmpq   10e57 <func_22+0x210b>
   107ba:	c7 85 80 f5 ff ff f8 	movl   $0xfffffff8,-0xa80(%rbp)
   107c1:	ff ff ff 
   107c4:	48 8d 85 50 f5 ff ff 	lea    -0xab0(%rbp),%rax
   107cb:	48 89 85 88 f6 ff ff 	mov    %rax,-0x978(%rbp)
   107d2:	48 8d 85 f0 f6 ff ff 	lea    -0x910(%rbp),%rax
   107d9:	48 83 c0 34          	add    $0x34,%rax
   107dd:	48 89 85 90 f6 ff ff 	mov    %rax,-0x970(%rbp)
   107e4:	48 8d 05 6b f6 00 00 	lea    0xf66b(%rip),%rax        # 1fe56 <g_1334+0x6>
   107eb:	48 89 85 98 f6 ff ff 	mov    %rax,-0x968(%rbp)
   107f2:	c7 85 64 f5 ff ff 00 	movl   $0x0,-0xa9c(%rbp)
   107f9:	00 00 00 
   107fc:	eb 1e                	jmp    1081c <func_22+0x1ad0>
   107fe:	8b 85 64 f5 ff ff    	mov    -0xa9c(%rbp),%eax
   10804:	48 98                	cltq   
   10806:	48 8d 15 0b f6 00 00 	lea    0xf60b(%rip),%rdx        # 1fe18 <g_1218>
   1080d:	48 89 94 c5 80 f7 ff 	mov    %rdx,-0x880(%rbp,%rax,8)
   10814:	ff 
   10815:	83 85 64 f5 ff ff 01 	addl   $0x1,-0xa9c(%rbp)
   1081c:	83 bd 64 f5 ff ff 05 	cmpl   $0x5,-0xa9c(%rbp)
   10823:	7e d9                	jle    107fe <func_22+0x1ab2>
   10825:	83 bd 80 f5 ff ff 00 	cmpl   $0x0,-0xa80(%rbp)
   1082c:	0f 85 1f 06 00 00    	jne    10e51 <func_22+0x2105>
   10832:	0f b6 05 07 f7 00 00 	movzbl 0xf707(%rip),%eax        # 1ff40 <g_1359>
   10839:	83 c0 01             	add    $0x1,%eax
   1083c:	88 05 fe f6 00 00    	mov    %al,0xf6fe(%rip)        # 1ff40 <g_1359>
   10842:	e9 9e 05 00 00       	jmpq   10de5 <func_22+0x2099>
   10847:	48 b8 f8 fa f8 f8 fa 	movabs $0xfaf8f8faf8f8faf8,%rax
   1084e:	f8 f8 fa 
   10851:	48 89 45 ce          	mov    %rax,-0x32(%rbp)
   10855:	66 c7 45 d6 f8 f8    	movw   $0xf8f8,-0x2a(%rbp)
   1085b:	48 8d 85 c0 f5 ff ff 	lea    -0xa40(%rbp),%rax
   10862:	48 89 85 40 f6 ff ff 	mov    %rax,-0x9c0(%rbp)
   10869:	48 8b 05 88 39 01 00 	mov    0x13988(%rip),%rax        # 241f8 <g_1363>
   10870:	48 8b 95 08 f6 ff ff 	mov    -0x9f8(%rbp),%rdx
   10877:	48 89 10             	mov    %rdx,(%rax)
   1087a:	48 c7 05 73 e9 00 00 	movq   $0xffffffffffffffe8,0xe973(%rip)        # 1f1f8 <g_333>
   10881:	e8 ff ff ff 
   10885:	e9 39 05 00 00       	jmpq   10dc3 <func_22+0x2077>
   1088a:	c7 85 80 f7 ff ff 38 	movl   $0x7af20038,-0x880(%rbp)
   10891:	00 f2 7a 
   10894:	c6 85 84 f7 ff ff f2 	movb   $0xf2,-0x87c(%rbp)
   1089b:	c7 85 85 f7 ff ff f2 	movl   $0x7afdf2f2,-0x87b(%rbp)
   108a2:	f2 fd 7a 
   108a5:	c6 85 89 f7 ff ff ab 	movb   $0xab,-0x877(%rbp)
   108ac:	c7 85 8a f7 ff ff 00 	movl   $0x383800,-0x876(%rbp)
   108b3:	38 38 00 
   108b6:	c6 85 8e f7 ff ff f2 	movb   $0xf2,-0x872(%rbp)
   108bd:	c7 85 8f f7 ff ff 00 	movl   $0xe0e7a00,-0x871(%rbp)
   108c4:	7a 0e 0e 
   108c7:	c6 85 93 f7 ff ff 7a 	movb   $0x7a,-0x86d(%rbp)
   108ce:	c7 85 94 f7 ff ff f2 	movl   $0xfd0e38f2,-0x86c(%rbp)
   108d5:	38 0e fd 
   108d8:	c6 85 98 f7 ff ff fd 	movb   $0xfd,-0x868(%rbp)
   108df:	c7 85 99 f7 ff ff 38 	movl   $0xe38f238,-0x867(%rbp)
   108e6:	f2 38 0e 
   108e9:	c6 85 9d f7 ff ff fd 	movb   $0xfd,-0x863(%rbp)
   108f0:	c7 85 9e f7 ff ff 7a 	movl   $0xfd007a,-0x862(%rbp)
   108f7:	00 fd 00 
   108fa:	c6 85 a2 f7 ff ff 7a 	movb   $0x7a,-0x85e(%rbp)
   10901:	c7 85 a3 f7 ff ff 38 	movl   $0x7af20038,-0x85d(%rbp)
   10908:	00 f2 7a 
   1090b:	c6 85 a7 f7 ff ff f2 	movb   $0xf2,-0x859(%rbp)
   10912:	c7 85 78 f5 ff ff 01 	movl   $0x1,-0xa88(%rbp)
   10919:	00 00 00 
   1091c:	c7 85 7c f5 ff ff 5c 	movl   $0x8740c35c,-0xa84(%rbp)
   10923:	c3 40 87 
   10926:	48 8d 85 a8 f5 ff ff 	lea    -0xa58(%rbp),%rax
   1092d:	48 89 85 d0 f7 ff ff 	mov    %rax,-0x830(%rbp)
   10934:	48 8d 85 a8 f5 ff ff 	lea    -0xa58(%rbp),%rax
   1093b:	48 89 85 d8 f7 ff ff 	mov    %rax,-0x828(%rbp)
   10942:	48 8d 85 a8 f5 ff ff 	lea    -0xa58(%rbp),%rax
   10949:	48 89 85 e0 f7 ff ff 	mov    %rax,-0x820(%rbp)
   10950:	48 8d 85 a8 f5 ff ff 	lea    -0xa58(%rbp),%rax
   10957:	48 89 85 e8 f7 ff ff 	mov    %rax,-0x818(%rbp)
   1095e:	48 8d 85 a8 f5 ff ff 	lea    -0xa58(%rbp),%rax
   10965:	48 89 85 f0 f7 ff ff 	mov    %rax,-0x810(%rbp)
   1096c:	48 c7 85 f8 f7 ff ff 	movq   $0x0,-0x808(%rbp)
   10973:	00 00 00 00 
   10977:	48 c7 85 00 f8 ff ff 	movq   $0x0,-0x800(%rbp)
   1097e:	00 00 00 00 
   10982:	48 c7 85 08 f8 ff ff 	movq   $0x0,-0x7f8(%rbp)
   10989:	00 00 00 00 
   1098d:	48 c7 85 10 f8 ff ff 	movq   $0x0,-0x7f0(%rbp)
   10994:	00 00 00 00 
   10998:	48 c7 85 18 f8 ff ff 	movq   $0x0,-0x7e8(%rbp)
   1099f:	00 00 00 00 
   109a3:	48 8d 85 a8 f5 ff ff 	lea    -0xa58(%rbp),%rax
   109aa:	48 89 85 20 f8 ff ff 	mov    %rax,-0x7e0(%rbp)
   109b1:	48 8d 85 a8 f5 ff ff 	lea    -0xa58(%rbp),%rax
   109b8:	48 89 85 28 f8 ff ff 	mov    %rax,-0x7d8(%rbp)
   109bf:	48 8d 85 a8 f5 ff ff 	lea    -0xa58(%rbp),%rax
   109c6:	48 89 85 30 f8 ff ff 	mov    %rax,-0x7d0(%rbp)
   109cd:	48 8d 85 a8 f5 ff ff 	lea    -0xa58(%rbp),%rax
   109d4:	48 89 85 38 f8 ff ff 	mov    %rax,-0x7c8(%rbp)
   109db:	48 8d 85 a8 f5 ff ff 	lea    -0xa58(%rbp),%rax
   109e2:	48 89 85 40 f8 ff ff 	mov    %rax,-0x7c0(%rbp)
   109e9:	0f b6 05 51 f5 00 00 	movzbl 0xf551(%rip),%eax        # 1ff41 <g_1367>
   109f0:	84 c0                	test   %al,%al
   109f2:	0f 84 77 02 00 00    	je     10c6f <func_22+0x1f23>
   109f8:	48 8d 85 f0 f6 ff ff 	lea    -0x910(%rbp),%rax
   109ff:	48 83 c0 34          	add    $0x34,%rax
   10a03:	48 89 85 48 f6 ff ff 	mov    %rax,-0x9b8(%rbp)
   10a0a:	48 8d 05 1f f3 00 00 	lea    0xf31f(%rip),%rax        # 1fd30 <g_660>
   10a11:	48 89 85 50 f6 ff ff 	mov    %rax,-0x9b0(%rbp)
   10a18:	48 8d 05 3d e6 00 00 	lea    0xe63d(%rip),%rax        # 1f05c <g_49>
   10a1f:	48 89 85 58 f6 ff ff 	mov    %rax,-0x9a8(%rbp)
   10a26:	48 8d 85 f0 f6 ff ff 	lea    -0x910(%rbp),%rax
   10a2d:	48 83 c0 34          	add    $0x34,%rax
   10a31:	48 89 85 c0 f8 ff ff 	mov    %rax,-0x740(%rbp)
   10a38:	48 8d 05 17 e9 00 00 	lea    0xe917(%rip),%rax        # 1f356 <g_439+0x6>
   10a3f:	48 89 85 c8 f8 ff ff 	mov    %rax,-0x738(%rbp)
   10a46:	48 8d 05 03 e6 00 00 	lea    0xe603(%rip),%rax        # 1f050 <g_41>
   10a4d:	48 89 85 d0 f8 ff ff 	mov    %rax,-0x730(%rbp)
   10a54:	48 8d 85 f0 f6 ff ff 	lea    -0x910(%rbp),%rax
   10a5b:	48 83 c0 34          	add    $0x34,%rax
   10a5f:	48 89 85 d8 f8 ff ff 	mov    %rax,-0x728(%rbp)
   10a66:	48 c7 85 e0 f8 ff ff 	movq   $0x0,-0x720(%rbp)
   10a6d:	00 00 00 00 
   10a71:	48 c7 85 e8 f8 ff ff 	movq   $0x0,-0x718(%rbp)
   10a78:	00 00 00 00 
   10a7c:	48 8d 85 f0 f6 ff ff 	lea    -0x910(%rbp),%rax
   10a83:	48 83 c0 34          	add    $0x34,%rax
   10a87:	48 89 85 f0 f8 ff ff 	mov    %rax,-0x710(%rbp)
   10a8e:	48 8d 05 bb e5 00 00 	lea    0xe5bb(%rip),%rax        # 1f050 <g_41>
   10a95:	48 89 85 f8 f8 ff ff 	mov    %rax,-0x708(%rbp)
   10a9c:	48 8d 05 b3 e8 00 00 	lea    0xe8b3(%rip),%rax        # 1f356 <g_439+0x6>
   10aa3:	48 89 85 00 f9 ff ff 	mov    %rax,-0x700(%rbp)
   10aaa:	48 8d 85 f0 f6 ff ff 	lea    -0x910(%rbp),%rax
   10ab1:	48 83 c0 34          	add    $0x34,%rax
   10ab5:	48 89 85 08 f9 ff ff 	mov    %rax,-0x6f8(%rbp)
   10abc:	48 8d 05 93 e8 00 00 	lea    0xe893(%rip),%rax        # 1f356 <g_439+0x6>
   10ac3:	48 89 85 10 f9 ff ff 	mov    %rax,-0x6f0(%rbp)
   10aca:	48 8d 05 7f e5 00 00 	lea    0xe57f(%rip),%rax        # 1f050 <g_41>
   10ad1:	48 89 85 18 f9 ff ff 	mov    %rax,-0x6e8(%rbp)
   10ad8:	48 8d 85 f0 f6 ff ff 	lea    -0x910(%rbp),%rax
   10adf:	48 83 c0 34          	add    $0x34,%rax
   10ae3:	48 89 85 20 f9 ff ff 	mov    %rax,-0x6e0(%rbp)
   10aea:	48 c7 85 28 f9 ff ff 	movq   $0x0,-0x6d8(%rbp)
   10af1:	00 00 00 00 
   10af5:	48 c7 85 30 f9 ff ff 	movq   $0x0,-0x6d0(%rbp)
   10afc:	00 00 00 00 
   10b00:	48 8d 85 f0 f6 ff ff 	lea    -0x910(%rbp),%rax
   10b07:	48 83 c0 34          	add    $0x34,%rax
   10b0b:	48 89 85 38 f9 ff ff 	mov    %rax,-0x6c8(%rbp)
   10b12:	48 8d 05 37 e5 00 00 	lea    0xe537(%rip),%rax        # 1f050 <g_41>
   10b19:	48 89 85 40 f9 ff ff 	mov    %rax,-0x6c0(%rbp)
   10b20:	48 8d 05 2f e8 00 00 	lea    0xe82f(%rip),%rax        # 1f356 <g_439+0x6>
   10b27:	48 89 85 48 f9 ff ff 	mov    %rax,-0x6b8(%rbp)
   10b2e:	48 8d 85 f0 f6 ff ff 	lea    -0x910(%rbp),%rax
   10b35:	48 83 c0 34          	add    $0x34,%rax
   10b39:	48 89 85 50 f9 ff ff 	mov    %rax,-0x6b0(%rbp)
   10b40:	48 8d 05 0f e8 00 00 	lea    0xe80f(%rip),%rax        # 1f356 <g_439+0x6>
   10b47:	48 89 85 58 f9 ff ff 	mov    %rax,-0x6a8(%rbp)
   10b4e:	48 8d 05 fb e4 00 00 	lea    0xe4fb(%rip),%rax        # 1f050 <g_41>
   10b55:	48 89 85 60 f9 ff ff 	mov    %rax,-0x6a0(%rbp)
   10b5c:	48 8d 85 f0 f6 ff ff 	lea    -0x910(%rbp),%rax
   10b63:	48 83 c0 34          	add    $0x34,%rax
   10b67:	48 89 85 68 f9 ff ff 	mov    %rax,-0x698(%rbp)
   10b6e:	48 c7 85 70 f9 ff ff 	movq   $0x0,-0x690(%rbp)
   10b75:	00 00 00 00 
   10b79:	48 c7 85 78 f9 ff ff 	movq   $0x0,-0x688(%rbp)
   10b80:	00 00 00 00 
   10b84:	48 8d 85 f0 f6 ff ff 	lea    -0x910(%rbp),%rax
   10b8b:	48 83 c0 34          	add    $0x34,%rax
   10b8f:	48 89 85 80 f9 ff ff 	mov    %rax,-0x680(%rbp)
   10b96:	48 8d 05 b3 e4 00 00 	lea    0xe4b3(%rip),%rax        # 1f050 <g_41>
   10b9d:	48 89 85 88 f9 ff ff 	mov    %rax,-0x678(%rbp)
   10ba4:	48 8d 05 ab e7 00 00 	lea    0xe7ab(%rip),%rax        # 1f356 <g_439+0x6>
   10bab:	48 89 85 90 f9 ff ff 	mov    %rax,-0x670(%rbp)
   10bb2:	48 8d 85 f0 f6 ff ff 	lea    -0x910(%rbp),%rax
   10bb9:	48 83 c0 34          	add    $0x34,%rax
   10bbd:	48 89 85 98 f9 ff ff 	mov    %rax,-0x668(%rbp)
   10bc4:	48 8d 05 8b e7 00 00 	lea    0xe78b(%rip),%rax        # 1f356 <g_439+0x6>
   10bcb:	48 89 85 a0 f9 ff ff 	mov    %rax,-0x660(%rbp)
   10bd2:	48 8d 05 77 e4 00 00 	lea    0xe477(%rip),%rax        # 1f050 <g_41>
   10bd9:	48 89 85 a8 f9 ff ff 	mov    %rax,-0x658(%rbp)
   10be0:	48 8d 85 f0 f6 ff ff 	lea    -0x910(%rbp),%rax
   10be7:	48 83 c0 34          	add    $0x34,%rax
   10beb:	48 89 85 b0 f9 ff ff 	mov    %rax,-0x650(%rbp)
   10bf2:	48 c7 85 b8 f9 ff ff 	movq   $0x0,-0x648(%rbp)
   10bf9:	00 00 00 00 
   10bfd:	48 c7 85 c0 f9 ff ff 	movq   $0x0,-0x640(%rbp)
   10c04:	00 00 00 00 
   10c08:	48 8d 85 f0 f6 ff ff 	lea    -0x910(%rbp),%rax
   10c0f:	48 83 c0 34          	add    $0x34,%rax
   10c13:	48 89 85 c8 f9 ff ff 	mov    %rax,-0x638(%rbp)
   10c1a:	48 8d 05 2f e4 00 00 	lea    0xe42f(%rip),%rax        # 1f050 <g_41>
   10c21:	48 89 85 d0 f9 ff ff 	mov    %rax,-0x630(%rbp)
   10c28:	48 8d 05 27 e7 00 00 	lea    0xe727(%rip),%rax        # 1f356 <g_439+0x6>
   10c2f:	48 89 85 d8 f9 ff ff 	mov    %rax,-0x628(%rbp)
   10c36:	0f b6 85 8a f7 ff ff 	movzbl -0x876(%rbp),%eax
   10c3d:	84 c0                	test   %al,%al
   10c3f:	0f 85 8f 01 00 00    	jne    10dd4 <func_22+0x2088>
   10c45:	48 8b 85 48 f6 ff ff 	mov    -0x9b8(%rbp),%rax
   10c4c:	48 89 85 38 f6 ff ff 	mov    %rax,-0x9c8(%rbp)
   10c53:	0f b6 45 d7          	movzbl -0x29(%rbp),%eax
   10c57:	83 e8 01             	sub    $0x1,%eax
   10c5a:	88 45 d7             	mov    %al,-0x29(%rbp)
   10c5d:	48 8b 85 38 f6 ff ff 	mov    -0x9c8(%rbp),%rax
   10c64:	8b 00                	mov    (%rax),%eax
   10c66:	85 c0                	test   %eax,%eax
   10c68:	74 10                	je     10c7a <func_22+0x1f2e>
   10c6a:	e9 42 01 00 00       	jmpq   10db1 <func_22+0x2065>
   10c6f:	8b 85 78 f5 ff ff    	mov    -0xa88(%rbp),%eax
   10c75:	e9 dd 01 00 00       	jmpq   10e57 <func_22+0x210b>
   10c7a:	c7 05 b0 f1 00 00 00 	movl   $0x0,0xf1b0(%rip)        # 1fe34 <g_1299+0x4>
   10c81:	00 00 00 
   10c84:	e9 f3 00 00 00       	jmpq   10d7c <func_22+0x2030>
   10c89:	48 c7 85 c0 f8 ff ff 	movq   $0x0,-0x740(%rbp)
   10c90:	00 00 00 00 
   10c94:	48 c7 85 c8 f8 ff ff 	movq   $0x0,-0x738(%rbp)
   10c9b:	00 00 00 00 
   10c9f:	48 c7 85 d0 f8 ff ff 	movq   $0x0,-0x730(%rbp)
   10ca6:	00 00 00 00 
   10caa:	48 c7 85 d8 f8 ff ff 	movq   $0x0,-0x728(%rbp)
   10cb1:	00 00 00 00 
   10cb5:	48 c7 85 e0 f8 ff ff 	movq   $0x0,-0x720(%rbp)
   10cbc:	00 00 00 00 
   10cc0:	48 c7 85 e8 f8 ff ff 	movq   $0x0,-0x718(%rbp)
   10cc7:	00 00 00 00 
   10ccb:	48 c7 85 f0 f8 ff ff 	movq   $0x0,-0x710(%rbp)
   10cd2:	00 00 00 00 
   10cd6:	48 c7 85 f8 f8 ff ff 	movq   $0x0,-0x708(%rbp)
   10cdd:	00 00 00 00 
   10ce1:	48 c7 85 00 f9 ff ff 	movq   $0x0,-0x700(%rbp)
   10ce8:	00 00 00 00 
   10cec:	48 c7 85 08 f9 ff ff 	movq   $0x0,-0x6f8(%rbp)
   10cf3:	00 00 00 00 
   10cf7:	48 8d 85 54 f5 ff ff 	lea    -0xaac(%rbp),%rax
   10cfe:	48 89 05 7b 3b 01 00 	mov    %rax,0x13b7b(%rip)        # 24880 <g_1378>
   10d05:	8b 05 29 f1 00 00    	mov    0xf129(%rip),%eax        # 1fe34 <g_1299+0x4>
   10d0b:	48 98                	cltq   
   10d0d:	48 8d 14 85 00 00 00 	lea    0x0(,%rax,4),%rdx
   10d14:	00 
   10d15:	48 8d 05 38 e3 00 00 	lea    0xe338(%rip),%rax        # 1f054 <g_44>
   10d1c:	8b 0c 02             	mov    (%rdx,%rax,1),%ecx
   10d1f:	48 8b 95 c8 f8 ff ff 	mov    -0x738(%rbp),%rdx
   10d26:	48 8b 85 10 f8 ff ff 	mov    -0x7f0(%rbp),%rax
   10d2d:	48 39 c2             	cmp    %rax,%rdx
   10d30:	0f 94 c0             	sete   %al
   10d33:	0f b6 d0             	movzbl %al,%edx
   10d36:	8b 05 f8 f0 00 00    	mov    0xf0f8(%rip),%eax        # 1fe34 <g_1299+0x4>
   10d3c:	21 d1                	and    %edx,%ecx
   10d3e:	48 98                	cltq   
   10d40:	48 8d 14 85 00 00 00 	lea    0x0(,%rax,4),%rdx
   10d47:	00 
   10d48:	48 8d 05 05 e3 00 00 	lea    0xe305(%rip),%rax        # 1f054 <g_44>
   10d4f:	89 0c 02             	mov    %ecx,(%rdx,%rax,1)
   10d52:	48 8b 85 38 f6 ff ff 	mov    -0x9c8(%rbp),%rax
   10d59:	8b 10                	mov    (%rax),%edx
   10d5b:	0f b6 45 d7          	movzbl -0x29(%rbp),%eax
   10d5f:	0f b6 c0             	movzbl %al,%eax
   10d62:	31 c2                	xor    %eax,%edx
   10d64:	48 8b 85 38 f6 ff ff 	mov    -0x9c8(%rbp),%rax
   10d6b:	89 10                	mov    %edx,(%rax)
   10d6d:	8b 05 c1 f0 00 00    	mov    0xf0c1(%rip),%eax        # 1fe34 <g_1299+0x4>
   10d73:	83 c0 01             	add    $0x1,%eax
   10d76:	89 05 b8 f0 00 00    	mov    %eax,0xf0b8(%rip)        # 1fe34 <g_1299+0x4>
   10d7c:	8b 05 b2 f0 00 00    	mov    0xf0b2(%rip),%eax        # 1fe34 <g_1299+0x4>
   10d82:	85 c0                	test   %eax,%eax
   10d84:	0f 8e ff fe ff ff    	jle    10c89 <func_22+0x1f3d>
   10d8a:	48 c7 05 73 f0 00 00 	movq   $0x6,0xf073(%rip)        # 1fe08 <g_1189>
   10d91:	06 00 00 00 
   10d95:	90                   	nop
   10d96:	48 8b 05 6b f0 00 00 	mov    0xf06b(%rip),%rax        # 1fe08 <g_1189>
   10d9d:	48 85 c0             	test   %rax,%rax
   10da0:	78 0f                	js     10db1 <func_22+0x2065>
   10da2:	0f b6 85 a7 f7 ff ff 	movzbl -0x859(%rbp),%eax
   10da9:	0f b6 c0             	movzbl %al,%eax
   10dac:	e9 a6 00 00 00       	jmpq   10e57 <func_22+0x210b>
   10db1:	48 8b 05 40 e4 00 00 	mov    0xe440(%rip),%rax        # 1f1f8 <g_333>
   10db8:	48 83 c0 01          	add    $0x1,%rax
   10dbc:	48 89 05 35 e4 00 00 	mov    %rax,0xe435(%rip)        # 1f1f8 <g_333>
   10dc3:	48 8b 05 2e e4 00 00 	mov    0xe42e(%rip),%rax        # 1f1f8 <g_333>
   10dca:	48 83 f8 f6          	cmp    $0xfffffffffffffff6,%rax
   10dce:	0f 84 b6 fa ff ff    	je     1088a <func_22+0x1b3e>
   10dd4:	48 8b 95 c0 f5 ff ff 	mov    -0xa40(%rbp),%rdx
   10ddb:	48 8b 85 40 f6 ff ff 	mov    -0x9c0(%rbp),%rax
   10de2:	48 89 10             	mov    %rdx,(%rax)
   10de5:	48 8b 05 b4 2b 01 00 	mov    0x12bb4(%rip),%rax        # 239a0 <g_103>
   10dec:	8b 00                	mov    (%rax),%eax
   10dee:	85 c0                	test   %eax,%eax
   10df0:	74 26                	je     10e18 <func_22+0x20cc>
   10df2:	eb 3f                	jmp    10e33 <func_22+0x20e7>
   10df4:	48 8d 85 c0 f8 ff ff 	lea    -0x740(%rbp),%rax
   10dfb:	48 8d 15 fe 95 00 00 	lea    0x95fe(%rip),%rdx        # 1a400 <g_1821+0x330>
   10e02:	b9 6c 00 00 00       	mov    $0x6c,%ecx
   10e07:	48 89 c7             	mov    %rax,%rdi
   10e0a:	48 89 d6             	mov    %rdx,%rsi
   10e0d:	f3 48 a5             	rep movsq %ds:(%rsi),%es:(%rdi)
   10e10:	8b 85 a4 fa ff ff    	mov    -0x55c(%rbp),%eax
   10e16:	eb 3f                	jmp    10e57 <func_22+0x210b>
   10e18:	48 8d 85 a0 f5 ff ff 	lea    -0xa60(%rbp),%rax
   10e1f:	48 89 85 10 f6 ff ff 	mov    %rax,-0x9f0(%rbp)
   10e26:	48 8b 85 18 f6 ff ff 	mov    -0x9e8(%rbp),%rax
   10e2d:	c7 00 01 00 00 00    	movl   $0x1,(%rax)
   10e33:	8b 05 9d e3 00 00    	mov    0xe39d(%rip),%eax        # 1f1d6 <g_277+0x6>
   10e39:	83 e8 01             	sub    $0x1,%eax
   10e3c:	89 05 94 e3 00 00    	mov    %eax,0xe394(%rip)        # 1f1d6 <g_277+0x6>
   10e42:	8b 05 8e e3 00 00    	mov    0xe38e(%rip),%eax        # 1f1d6 <g_277+0x6>
   10e48:	83 f8 f5             	cmp    $0xfffffff5,%eax
   10e4b:	0f 84 16 e0 ff ff    	je     ee67 <func_22+0x11b>
   10e51:	8b 85 5c f5 ff ff    	mov    -0xaa4(%rbp),%eax
   10e57:	48 8b 5d d8          	mov    -0x28(%rbp),%rbx
   10e5b:	64 48 33 1c 25 28 00 	xor    %fs:0x28,%rbx
   10e62:	00 00 
   10e64:	74 05                	je     10e6b <func_22+0x211f>
   10e66:	e8 05 62 ff ff       	callq  7070 <__stack_chk_fail@plt>
   10e6b:	48 81 c4 b0 0a 00 00 	add    $0xab0,%rsp
   10e72:	5b                   	pop    %rbx
   10e73:	41 5c                	pop    %r12
   10e75:	41 5d                	pop    %r13
   10e77:	41 5e                	pop    %r14
   10e79:	5d                   	pop    %rbp
   10e7a:	c3                   	retq   

0000000000010e7b <func_24>:
   10e7b:	f3 0f 1e fa          	endbr64 
   10e7f:	55                   	push   %rbp
   10e80:	48 89 e5             	mov    %rsp,%rbp
   10e83:	41 56                	push   %r14
   10e85:	41 55                	push   %r13
   10e87:	41 54                	push   %r12
   10e89:	53                   	push   %rbx
   10e8a:	48 81 ec 80 0f 00 00 	sub    $0xf80,%rsp
   10e91:	48 89 bd 68 f0 ff ff 	mov    %rdi,-0xf98(%rbp)
   10e98:	64 48 8b 04 25 28 00 	mov    %fs:0x28,%rax
   10e9f:	00 00 
   10ea1:	48 89 45 d8          	mov    %rax,-0x28(%rbp)
   10ea5:	31 c0                	xor    %eax,%eax
   10ea7:	c6 85 7d f0 ff ff a5 	movb   $0xa5,-0xf83(%rbp)
   10eae:	c7 85 c8 f0 ff ff ff 	movl   $0xffffffff,-0xf38(%rbp)
   10eb5:	ff ff ff 
   10eb8:	48 8d 05 39 e3 00 00 	lea    0xe339(%rip),%rax        # 1f1f8 <g_333>
   10ebf:	48 89 85 70 f1 ff ff 	mov    %rax,-0xe90(%rbp)
   10ec6:	c7 85 cc f0 ff ff ff 	movl   $0xffffffff,-0xf34(%rbp)
   10ecd:	ff ff ff 
   10ed0:	48 c7 85 78 f1 ff ff 	movq   $0x0,-0xe88(%rbp)
   10ed7:	00 00 00 00 
   10edb:	c7 85 d0 f0 ff ff 6f 	movl   $0x53c9f86f,-0xf30(%rbp)
   10ee2:	f8 c9 53 
   10ee5:	c7 85 90 f0 ff ff c8 	movl   $0x18b8bdc8,-0xf70(%rbp)
   10eec:	bd b8 18 
   10eef:	66 c7 85 82 f0 ff ff 	movw   $0xd,-0xf7e(%rbp)
   10ef6:	0d 00 
   10ef8:	48 8d 85 b0 f7 ff ff 	lea    -0x850(%rbp),%rax
   10eff:	48 8d 15 5a 98 00 00 	lea    0x985a(%rip),%rdx        # 1a760 <g_1821+0x690>
   10f06:	b9 38 00 00 00       	mov    $0x38,%ecx
   10f0b:	48 89 c7             	mov    %rax,%rdi
   10f0e:	48 89 d6             	mov    %rdx,%rsi
   10f11:	f3 48 a5             	rep movsq %ds:(%rsi),%es:(%rdi)
   10f14:	48 89 f2             	mov    %rsi,%rdx
   10f17:	48 89 f8             	mov    %rdi,%rax
   10f1a:	0f b7 0a             	movzwl (%rdx),%ecx
   10f1d:	66 89 08             	mov    %cx,(%rax)
   10f20:	48 8d 40 02          	lea    0x2(%rax),%rax
   10f24:	48 8d 52 02          	lea    0x2(%rdx),%rdx
   10f28:	66 c7 85 86 f0 ff ff 	movw   $0xffff,-0xf7a(%rbp)
   10f2f:	ff ff 
   10f31:	48 8d 05 84 ee 00 00 	lea    0xee84(%rip),%rax        # 1fdbc <g_1049>
   10f38:	48 89 85 80 f1 ff ff 	mov    %rax,-0xe80(%rbp)
   10f3f:	66 c7 85 88 f0 ff ff 	movw   $0xffff,-0xf78(%rbp)
   10f46:	ff ff 
   10f48:	48 8d 05 55 e4 00 00 	lea    0xe455(%rip),%rax        # 1f3a4 <g_550+0x4>
   10f4f:	48 89 85 28 f1 ff ff 	mov    %rax,-0xed8(%rbp)
   10f56:	48 c7 85 88 f1 ff ff 	movq   $0x0,-0xe78(%rbp)
   10f5d:	00 00 00 00 
   10f61:	c7 85 d4 f0 ff ff 01 	movl   $0x1,-0xf2c(%rbp)
   10f68:	00 00 00 
   10f6b:	48 8d 85 80 f9 ff ff 	lea    -0x680(%rbp),%rax
   10f72:	48 8d 15 a7 16 01 00 	lea    0x116a7(%rip),%rdx        # 22620 <g_2024+0x3c0>
   10f79:	b9 5a 00 00 00       	mov    $0x5a,%ecx
   10f7e:	48 89 c7             	mov    %rax,%rdi
   10f81:	48 89 d6             	mov    %rdx,%rsi
   10f84:	f3 48 a5             	rep movsq %ds:(%rsi),%es:(%rdi)
   10f87:	48 c7 85 30 f1 ff ff 	movq   $0x0,-0xed0(%rbp)
   10f8e:	00 00 00 00 
   10f92:	48 8d 85 30 f1 ff ff 	lea    -0xed0(%rbp),%rax
   10f99:	48 89 85 90 f1 ff ff 	mov    %rax,-0xe70(%rbp)
   10fa0:	c7 85 d8 f0 ff ff fc 	movl   $0xfffffffc,-0xf28(%rbp)
   10fa7:	ff ff ff 
   10faa:	c6 85 7e f0 ff ff 00 	movb   $0x0,-0xf82(%rbp)
   10fb1:	48 8d 05 f8 31 01 00 	lea    0x131f8(%rip),%rax        # 241b0 <g_1167+0x10>
   10fb8:	48 89 85 98 f1 ff ff 	mov    %rax,-0xe68(%rbp)
   10fbf:	48 8d 05 3a ee 00 00 	lea    0xee3a(%rip),%rax        # 1fe00 <g_1172>
   10fc6:	48 89 85 38 f1 ff ff 	mov    %rax,-0xec8(%rbp)
   10fcd:	48 8d 85 38 f1 ff ff 	lea    -0xec8(%rbp),%rax
   10fd4:	48 89 85 a0 f1 ff ff 	mov    %rax,-0xe60(%rbp)
   10fdb:	48 8d 05 3e 2b 01 00 	lea    0x12b3e(%rip),%rax        # 23b20 <g_302>
   10fe2:	48 89 85 10 f5 ff ff 	mov    %rax,-0xaf0(%rbp)
   10fe9:	48 c7 85 18 f5 ff ff 	movq   $0x0,-0xae8(%rbp)
   10ff0:	00 00 00 00 
   10ff4:	48 8d 05 25 2b 01 00 	lea    0x12b25(%rip),%rax        # 23b20 <g_302>
   10ffb:	48 89 85 20 f5 ff ff 	mov    %rax,-0xae0(%rbp)
   11002:	48 c7 85 28 f5 ff ff 	movq   $0x0,-0xad8(%rbp)
   11009:	00 00 00 00 
   1100d:	48 8d 05 0c 2b 01 00 	lea    0x12b0c(%rip),%rax        # 23b20 <g_302>
   11014:	48 89 85 30 f5 ff ff 	mov    %rax,-0xad0(%rbp)
   1101b:	48 c7 85 38 f5 ff ff 	movq   $0x0,-0xac8(%rbp)
   11022:	00 00 00 00 
   11026:	48 8d 05 f3 2a 01 00 	lea    0x12af3(%rip),%rax        # 23b20 <g_302>
   1102d:	48 89 85 40 f5 ff ff 	mov    %rax,-0xac0(%rbp)
   11034:	48 c7 85 48 f5 ff ff 	movq   $0x0,-0xab8(%rbp)
   1103b:	00 00 00 00 
   1103f:	48 8d 05 da 2a 01 00 	lea    0x12ada(%rip),%rax        # 23b20 <g_302>
   11046:	48 89 85 50 f5 ff ff 	mov    %rax,-0xab0(%rbp)
   1104d:	48 c7 85 58 f5 ff ff 	movq   $0x0,-0xaa8(%rbp)
   11054:	00 00 00 00 
   11058:	48 8d 05 c1 2a 01 00 	lea    0x12ac1(%rip),%rax        # 23b20 <g_302>
   1105f:	48 89 85 60 f5 ff ff 	mov    %rax,-0xaa0(%rbp)
   11066:	48 c7 85 68 f5 ff ff 	movq   $0x0,-0xa98(%rbp)
   1106d:	00 00 00 00 
   11071:	48 8d 05 a8 2a 01 00 	lea    0x12aa8(%rip),%rax        # 23b20 <g_302>
   11078:	48 89 85 70 f5 ff ff 	mov    %rax,-0xa90(%rbp)
   1107f:	48 c7 85 78 f5 ff ff 	movq   $0x0,-0xa88(%rbp)
   11086:	00 00 00 00 
   1108a:	48 8d 05 8f 2a 01 00 	lea    0x12a8f(%rip),%rax        # 23b20 <g_302>
   11091:	48 89 85 80 f5 ff ff 	mov    %rax,-0xa80(%rbp)
   11098:	48 c7 85 88 f5 ff ff 	movq   $0x0,-0xa78(%rbp)
   1109f:	00 00 00 00 
   110a3:	48 8d 05 76 2a 01 00 	lea    0x12a76(%rip),%rax        # 23b20 <g_302>
   110aa:	48 89 85 90 f5 ff ff 	mov    %rax,-0xa70(%rbp)
   110b1:	48 c7 85 98 f5 ff ff 	movq   $0x0,-0xa68(%rbp)
   110b8:	00 00 00 00 
   110bc:	48 8d 05 5d 2a 01 00 	lea    0x12a5d(%rip),%rax        # 23b20 <g_302>
   110c3:	48 89 85 a0 f5 ff ff 	mov    %rax,-0xa60(%rbp)
   110ca:	48 c7 85 a8 f5 ff ff 	movq   $0x0,-0xa58(%rbp)
   110d1:	00 00 00 00 
   110d5:	48 8d 05 44 2a 01 00 	lea    0x12a44(%rip),%rax        # 23b20 <g_302>
   110dc:	48 89 85 b0 f5 ff ff 	mov    %rax,-0xa50(%rbp)
   110e3:	48 c7 85 b8 f5 ff ff 	movq   $0x0,-0xa48(%rbp)
   110ea:	00 00 00 00 
   110ee:	48 8d 05 2b 2a 01 00 	lea    0x12a2b(%rip),%rax        # 23b20 <g_302>
   110f5:	48 89 85 c0 f5 ff ff 	mov    %rax,-0xa40(%rbp)
   110fc:	48 c7 85 c8 f5 ff ff 	movq   $0x0,-0xa38(%rbp)
   11103:	00 00 00 00 
   11107:	48 8d 05 12 2a 01 00 	lea    0x12a12(%rip),%rax        # 23b20 <g_302>
   1110e:	48 89 85 d0 f5 ff ff 	mov    %rax,-0xa30(%rbp)
   11115:	48 c7 85 d8 f5 ff ff 	movq   $0x0,-0xa28(%rbp)
   1111c:	00 00 00 00 
   11120:	48 8d 05 f9 29 01 00 	lea    0x129f9(%rip),%rax        # 23b20 <g_302>
   11127:	48 89 85 e0 f5 ff ff 	mov    %rax,-0xa20(%rbp)
   1112e:	48 c7 85 e8 f5 ff ff 	movq   $0x0,-0xa18(%rbp)
   11135:	00 00 00 00 
   11139:	48 8d 05 e0 29 01 00 	lea    0x129e0(%rip),%rax        # 23b20 <g_302>
   11140:	48 89 85 f0 f5 ff ff 	mov    %rax,-0xa10(%rbp)
   11147:	48 c7 85 f8 f5 ff ff 	movq   $0x0,-0xa08(%rbp)
   1114e:	00 00 00 00 
   11152:	c7 85 a0 f0 ff ff 00 	movl   $0x0,-0xf60(%rbp)
   11159:	00 00 00 
   1115c:	eb 1a                	jmp    11178 <func_24+0x2fd>
   1115e:	8b 85 a0 f0 ff ff    	mov    -0xf60(%rbp),%eax
   11164:	48 98                	cltq   
   11166:	c7 84 85 64 f3 ff ff 	movl   $0xffffffff,-0xc9c(%rbp,%rax,4)
   1116d:	ff ff ff ff 
   11171:	83 85 a0 f0 ff ff 01 	addl   $0x1,-0xf60(%rbp)
   11178:	83 bd a0 f0 ff ff 02 	cmpl   $0x2,-0xf60(%rbp)
   1117f:	7e dd                	jle    1115e <func_24+0x2e3>
   11181:	c7 85 a0 f0 ff ff 00 	movl   $0x0,-0xf60(%rbp)
   11188:	00 00 00 
   1118b:	eb 1b                	jmp    111a8 <func_24+0x32d>
   1118d:	8b 85 a0 f0 ff ff    	mov    -0xf60(%rbp),%eax
   11193:	48 98                	cltq   
   11195:	48 c7 84 c5 70 f3 ff 	movq   $0x0,-0xc90(%rbp,%rax,8)
   1119c:	ff 00 00 00 00 
   111a1:	83 85 a0 f0 ff ff 01 	addl   $0x1,-0xf60(%rbp)
   111a8:	83 bd a0 f0 ff ff 01 	cmpl   $0x1,-0xf60(%rbp)
   111af:	7e dc                	jle    1118d <func_24+0x312>
   111b1:	c6 05 f4 e1 00 00 00 	movb   $0x0,0xe1f4(%rip)        # 1f3ac <g_550+0xc>
   111b8:	e9 3b 16 00 00       	jmpq   127f8 <func_24+0x197d>
   111bd:	48 8d 05 d4 e1 00 00 	lea    0xe1d4(%rip),%rax        # 1f398 <g_506>
   111c4:	48 89 85 f8 f1 ff ff 	mov    %rax,-0xe08(%rbp)
   111cb:	48 8d 05 7c de 00 00 	lea    0xde7c(%rip),%rax        # 1f04e <g_37>
   111d2:	48 89 85 00 f2 ff ff 	mov    %rax,-0xe00(%rbp)
   111d9:	c7 85 94 f0 ff ff 5e 	movl   $0xe5570d5e,-0xf6c(%rbp)
   111e0:	0d 57 e5 
   111e3:	48 8d 05 2c eb 00 00 	lea    0xeb2c(%rip),%rax        # 1fd16 <g_611+0x6>
   111ea:	48 89 85 68 f1 ff ff 	mov    %rax,-0xe98(%rbp)
   111f1:	48 8d 05 38 29 01 00 	lea    0x12938(%rip),%rax        # 23b30 <g_301>
   111f8:	48 89 85 40 f1 ff ff 	mov    %rax,-0xec0(%rbp)
   111ff:	48 8d 85 40 f1 ff ff 	lea    -0xec0(%rbp),%rax
   11206:	48 89 85 08 f2 ff ff 	mov    %rax,-0xdf8(%rbp)
   1120d:	48 b8 0c 57 d2 cd 2a 	movabs $0x50445a2acdd2570c,%rax
   11214:	5a 44 50 
   11217:	48 89 85 10 f2 ff ff 	mov    %rax,-0xdf0(%rbp)
   1121e:	66 c7 85 84 f0 ff ff 	movw   $0xe293,-0xf7c(%rbp)
   11225:	93 e2 
   11227:	c7 85 98 f0 ff ff 00 	movl   $0x0,-0xf68(%rbp)
   1122e:	00 00 00 
   11231:	48 8d 05 78 2c 01 00 	lea    0x12c78(%rip),%rax        # 23eb0 <g_784>
   11238:	48 89 85 18 f2 ff ff 	mov    %rax,-0xde8(%rbp)
   1123f:	c7 85 ec f0 ff ff dc 	movl   $0xa50ff9dc,-0xf14(%rbp)
   11246:	f9 0f a5 
   11249:	48 c7 85 f8 f1 ff ff 	movq   $0x0,-0xe08(%rbp)
   11250:	00 00 00 00 
   11254:	c7 05 04 e1 00 00 00 	movl   $0x0,0xe104(%rip)        # 1f362 <g_439+0x12>
   1125b:	00 00 00 
   1125e:	90                   	nop
   1125f:	8b 05 fd e0 00 00    	mov    0xe0fd(%rip),%eax        # 1f362 <g_439+0x12>
   11265:	83 f8 20             	cmp    $0x20,%eax
   11268:	0f 86 99 11 00 00    	jbe    12407 <func_24+0x158c>
   1126e:	48 8d 05 e7 ea 00 00 	lea    0xeae7(%rip),%rax        # 1fd5c <g_840>
   11275:	48 89 85 80 f2 ff ff 	mov    %rax,-0xd80(%rbp)
   1127c:	c7 85 9c f0 ff ff 8f 	movl   $0xaae91f8f,-0xf64(%rbp)
   11283:	1f e9 aa 
   11286:	c7 85 f8 f0 ff ff 03 	movl   $0x9968a103,-0xf08(%rbp)
   1128d:	a1 68 99 
   11290:	c7 85 fc f0 ff ff 3f 	movl   $0x392d403f,-0xf04(%rbp)
   11297:	40 2d 39 
   1129a:	c6 85 7c f0 ff ff 56 	movb   $0x56,-0xf84(%rbp)
   112a1:	c7 85 a4 f0 ff ff ff 	movl   $0xffffffff,-0xf5c(%rbp)
   112a8:	ff ff ff 
   112ab:	48 8d 05 ee e0 00 00 	lea    0xe0ee(%rip),%rax        # 1f3a0 <g_550>
   112b2:	48 89 85 48 f1 ff ff 	mov    %rax,-0xeb8(%rbp)
   112b9:	48 8d 85 48 f1 ff ff 	lea    -0xeb8(%rbp),%rax
   112c0:	48 89 85 88 f2 ff ff 	mov    %rax,-0xd78(%rbp)
   112c7:	48 c7 85 90 f2 ff ff 	movq   $0x0,-0xd70(%rbp)
   112ce:	00 00 00 00 
   112d2:	48 8d 05 57 35 01 00 	lea    0x13557(%rip),%rax        # 24830 <g_246>
   112d9:	48 89 85 98 f2 ff ff 	mov    %rax,-0xd68(%rbp)
   112e0:	c7 85 a8 f0 ff ff 00 	movl   $0x0,-0xf58(%rbp)
   112e7:	00 00 00 
   112ea:	eb 46                	jmp    11332 <func_24+0x4b7>
   112ec:	c7 85 ac f0 ff ff 00 	movl   $0x0,-0xf54(%rbp)
   112f3:	00 00 00 
   112f6:	eb 2a                	jmp    11322 <func_24+0x4a7>
   112f8:	8b 85 ac f0 ff ff    	mov    -0xf54(%rbp),%eax
   112fe:	48 98                	cltq   
   11300:	8b 95 a8 f0 ff ff    	mov    -0xf58(%rbp),%edx
   11306:	48 63 d2             	movslq %edx,%rdx
   11309:	48 01 d2             	add    %rdx,%rdx
   1130c:	48 01 d0             	add    %rdx,%rax
   1130f:	48 c7 84 c5 80 f3 ff 	movq   $0x0,-0xc80(%rbp,%rax,8)
   11316:	ff 00 00 00 00 
   1131b:	83 85 ac f0 ff ff 01 	addl   $0x1,-0xf54(%rbp)
   11322:	83 bd ac f0 ff ff 01 	cmpl   $0x1,-0xf54(%rbp)
   11329:	7e cd                	jle    112f8 <func_24+0x47d>
   1132b:	83 85 a8 f0 ff ff 01 	addl   $0x1,-0xf58(%rbp)
   11332:	83 bd a8 f0 ff ff 00 	cmpl   $0x0,-0xf58(%rbp)
   11339:	7e b1                	jle    112ec <func_24+0x471>
   1133b:	c7 05 eb e9 00 00 00 	movl   $0x0,0xe9eb(%rip)        # 1fd30 <g_660>
   11342:	00 00 00 
   11345:	e9 c6 06 00 00       	jmpq   11a10 <func_24+0xb95>
   1134a:	c7 85 10 f1 ff ff c2 	movl   $0x4233e4c2,-0xef0(%rbp)
   11351:	e4 33 42 
   11354:	48 c7 85 60 f1 ff ff 	movq   $0x0,-0xea0(%rbp)
   1135b:	00 00 00 00 
   1135f:	48 8d 85 60 f1 ff ff 	lea    -0xea0(%rbp),%rax
   11366:	48 89 85 b8 f2 ff ff 	mov    %rax,-0xd48(%rbp)
   1136d:	48 8d 05 24 e0 00 00 	lea    0xe024(%rip),%rax        # 1f398 <g_506>
   11374:	48 89 85 c0 f2 ff ff 	mov    %rax,-0xd40(%rbp)
   1137b:	c7 85 14 f1 ff ff a1 	movl   $0x2b1a22a1,-0xeec(%rbp)
   11382:	22 1a 2b 
   11385:	c7 85 18 f1 ff ff 01 	movl   $0x1,-0xee8(%rbp)
   1138c:	00 00 00 
   1138f:	c7 85 1c f1 ff ff 16 	movl   $0x6f60af16,-0xee4(%rbp)
   11396:	af 60 6f 
   11399:	48 8d 85 50 fc ff ff 	lea    -0x3b0(%rbp),%rax
   113a0:	48 8d 15 99 95 00 00 	lea    0x9599(%rip),%rdx        # 1a940 <g_1821+0x870>
   113a7:	b9 70 00 00 00       	mov    $0x70,%ecx
   113ac:	48 89 c7             	mov    %rax,%rdi
   113af:	48 89 d6             	mov    %rdx,%rsi
   113b2:	f3 48 a5             	rep movsq %ds:(%rsi),%es:(%rdi)
   113b5:	c7 05 9d dc 00 00 00 	movl   $0x0,0xdc9d(%rip)        # 1f05c <g_49>
   113bc:	00 00 00 
   113bf:	90                   	nop
   113c0:	8b 05 96 dc 00 00    	mov    0xdc96(%rip),%eax        # 1f05c <g_49>
   113c6:	83 f8 e7             	cmp    $0xffffffe7,%eax
   113c9:	75 1d                	jne    113e8 <func_24+0x56d>
   113cb:	48 8b 05 de 25 01 00 	mov    0x125de(%rip),%rax        # 239b0 <g_105>
   113d2:	48 8b 00             	mov    (%rax),%rax
   113d5:	8b 00                	mov    (%rax),%eax
   113d7:	85 c0                	test   %eax,%eax
   113d9:	75 0c                	jne    113e7 <func_24+0x56c>
   113db:	48 8b 85 00 f2 ff ff 	mov    -0xe00(%rbp),%rax
   113e2:	e9 66 18 00 00       	jmpq   12c4d <func_24+0x1dd2>
   113e7:	90                   	nop
   113e8:	66 c7 05 75 dc 00 00 	movw   $0x0,0xdc75(%rip)        # 1f066 <g_99>
   113ef:	00 00 
   113f1:	e9 fa 05 00 00       	jmpq   119f0 <func_24+0xb75>
   113f6:	66 c7 85 8c f0 ff ff 	movw   $0x782,-0xf74(%rbp)
   113fd:	82 07 
   113ff:	48 8d 85 00 f6 ff ff 	lea    -0xa00(%rbp),%rax
   11406:	48 8d 15 b3 98 00 00 	lea    0x98b3(%rip),%rdx        # 1acc0 <g_1821+0xbf0>
   1140d:	b9 36 00 00 00       	mov    $0x36,%ecx
   11412:	48 89 c7             	mov    %rax,%rdi
   11415:	48 89 d6             	mov    %rdx,%rsi
   11418:	f3 48 a5             	rep movsq %ds:(%rsi),%es:(%rdi)
   1141b:	48 8d 05 be 27 01 00 	lea    0x127be(%rip),%rax        # 23be0 <g_559+0x20>
   11422:	48 89 85 c8 f2 ff ff 	mov    %rax,-0xd38(%rbp)
   11429:	48 8d 05 30 27 01 00 	lea    0x12730(%rip),%rax        # 23b60 <g_505>
   11430:	48 89 85 d0 f2 ff ff 	mov    %rax,-0xd30(%rbp)
   11437:	66 c7 85 8e f0 ff ff 	movw   $0xfff6,-0xf72(%rbp)
   1143e:	f6 ff 
   11440:	48 8b 05 71 27 01 00 	mov    0x12771(%rip),%rax        # 23bb8 <g_503>
   11447:	48 8b 00             	mov    (%rax),%rax
   1144a:	48 8b 00             	mov    (%rax),%rax
   1144d:	48 85 c0             	test   %rax,%rax
   11450:	0f 84 12 02 00 00    	je     11668 <func_24+0x7ed>
   11456:	48 8d 05 2b df 00 00 	lea    0xdf2b(%rip),%rax        # 1f388 <g_478+0x8>
   1145d:	48 89 85 d8 f2 ff ff 	mov    %rax,-0xd28(%rbp)
   11464:	c7 85 20 f1 ff ff 2a 	movl   $0x3adeee2a,-0xee0(%rbp)
   1146b:	ee de 3a 
   1146e:	48 8d 05 fb db 00 00 	lea    0xdbfb(%rip),%rax        # 1f070 <g_120>
   11475:	48 89 85 e0 f2 ff ff 	mov    %rax,-0xd20(%rbp)
   1147c:	c7 85 b0 f0 ff ff 00 	movl   $0x0,-0xf50(%rbp)
   11483:	00 00 00 
   11486:	eb 1e                	jmp    114a6 <func_24+0x62b>
   11488:	8b 85 b0 f0 ff ff    	mov    -0xf50(%rbp),%eax
   1148e:	48 98                	cltq   
   11490:	48 8d 15 61 dd 00 00 	lea    0xdd61(%rip),%rdx        # 1f1f8 <g_333>
   11497:	48 89 94 c5 30 f4 ff 	mov    %rdx,-0xbd0(%rbp,%rax,8)
   1149e:	ff 
   1149f:	83 85 b0 f0 ff ff 01 	addl   $0x1,-0xf50(%rbp)
   114a6:	83 bd b0 f0 ff ff 00 	cmpl   $0x0,-0xf50(%rbp)
   114ad:	7e d9                	jle    11488 <func_24+0x60d>
   114af:	48 8b 05 8a 28 01 00 	mov    0x1288a(%rip),%rax        # 23d40 <g_746>
   114b6:	48 39 85 80 f2 ff ff 	cmp    %rax,-0xd80(%rbp)
   114bd:	0f 95 c0             	setne  %al
   114c0:	0f b6 c0             	movzbl %al,%eax
   114c3:	be 01 00 00 00       	mov    $0x1,%esi
   114c8:	89 c7                	mov    %eax,%edi
   114ca:	e8 be 67 ff ff       	callq  7c8d <safe_rshift_func_uint8_t_u_s>
   114cf:	0f b6 c0             	movzbl %al,%eax
   114d2:	48 8b 15 af db 00 00 	mov    0xdbaf(%rip),%rdx        # 1f088 <g_230+0x8>
   114d9:	48 01 d2             	add    %rdx,%rdx
   114dc:	48 c1 fa 2b          	sar    $0x2b,%rdx
   114e0:	89 c6                	mov    %eax,%esi
   114e2:	89 d7                	mov    %edx,%edi
   114e4:	e8 14 6a ff ff       	callq  7efd <safe_mod_func_uint32_t_u_u>
   114e9:	89 c2                	mov    %eax,%edx
   114eb:	48 8b 05 c6 24 01 00 	mov    0x124c6(%rip),%rax        # 239b8 <g_113>
   114f2:	48 8b 00             	mov    (%rax),%rax
   114f5:	48 8b 00             	mov    (%rax),%rax
   114f8:	89 10                	mov    %edx,(%rax)
   114fa:	8b 85 10 f1 ff ff    	mov    -0xef0(%rbp),%eax
   11500:	4c 63 f0             	movslq %eax,%r14
   11503:	8b 85 20 f1 ff ff    	mov    -0xee0(%rbp),%eax
   11509:	48 63 d8             	movslq %eax,%rbx
   1150c:	8b 85 c8 f0 ff ff    	mov    -0xf38(%rbp),%eax
   11512:	44 0f be e0          	movsbl %al,%r12d
   11516:	44 0f b7 ad 8c f0 ff 	movzwl -0xf74(%rbp),%r13d
   1151d:	ff 
   1151e:	0f b6 95 7d f0 ff ff 	movzbl -0xf83(%rbp),%edx
   11525:	48 8b 85 d8 f2 ff ff 	mov    -0xd28(%rbp),%rax
   1152c:	89 10                	mov    %edx,(%rax)
   1152e:	48 8b 85 d8 f2 ff ff 	mov    -0xd28(%rbp),%rax
   11535:	8b 00                	mov    (%rax),%eax
   11537:	be 06 00 00 00       	mov    $0x6,%esi
   1153c:	89 c7                	mov    %eax,%edi
   1153e:	e8 e2 69 ff ff       	callq  7f25 <safe_div_func_uint32_t_u_u>
   11543:	44 89 ee             	mov    %r13d,%esi
   11546:	89 c7                	mov    %eax,%edi
   11548:	e8 b0 69 ff ff       	callq  7efd <safe_mod_func_uint32_t_u_u>
   1154d:	8b 95 20 f1 ff ff    	mov    -0xee0(%rbp),%edx
   11553:	09 d0                	or     %edx,%eax
   11555:	85 c0                	test   %eax,%eax
   11557:	74 10                	je     11569 <func_24+0x6ee>
   11559:	83 bd 20 f1 ff ff 00 	cmpl   $0x0,-0xee0(%rbp)
   11560:	74 07                	je     11569 <func_24+0x6ee>
   11562:	b8 01 00 00 00       	mov    $0x1,%eax
   11567:	eb 05                	jmp    1156e <func_24+0x6f3>
   11569:	b8 00 00 00 00       	mov    $0x0,%eax
   1156e:	3b 85 20 f1 ff ff    	cmp    -0xee0(%rbp),%eax
   11574:	0f 9c c0             	setl   %al
   11577:	0f b6 c0             	movzbl %al,%eax
   1157a:	8b 15 46 de 00 00    	mov    0xde46(%rip),%edx        # 1f3c6 <g_560+0x6>
   11580:	09 d0                	or     %edx,%eax
   11582:	98                   	cwtl   
   11583:	be 07 00 00 00       	mov    $0x7,%esi
   11588:	89 c7                	mov    %eax,%edi
   1158a:	e8 03 5f ff ff       	callq  7492 <safe_lshift_func_int16_t_s_s>
   1158f:	be 01 00 00 00       	mov    $0x1,%esi
   11594:	bf 00 00 00 00       	mov    $0x0,%edi
   11599:	e8 3d 66 ff ff       	callq  7bdb <safe_div_func_uint8_t_u_u>
   1159e:	3c ff                	cmp    $0xff,%al
   115a0:	0f 95 c0             	setne  %al
   115a3:	0f b6 d0             	movzbl %al,%edx
   115a6:	48 8b 85 e0 f2 ff ff 	mov    -0xd20(%rbp),%rax
   115ad:	0f b6 00             	movzbl (%rax),%eax
   115b0:	89 c1                	mov    %eax,%ecx
   115b2:	89 d0                	mov    %edx,%eax
   115b4:	09 c8                	or     %ecx,%eax
   115b6:	89 c2                	mov    %eax,%edx
   115b8:	48 8b 85 e0 f2 ff ff 	mov    -0xd20(%rbp),%rax
   115bf:	88 10                	mov    %dl,(%rax)
   115c1:	0f b7 85 8c f0 ff ff 	movzwl -0xf74(%rbp),%eax
   115c8:	22 85 7d f0 ff ff    	and    -0xf83(%rbp),%al
   115ce:	0f be c0             	movsbl %al,%eax
   115d1:	44 89 e6             	mov    %r12d,%esi
   115d4:	89 c7                	mov    %eax,%edi
   115d6:	e8 37 5c ff ff       	callq  7212 <safe_mul_func_int8_t_s_s>
   115db:	0f be c0             	movsbl %al,%eax
   115de:	39 85 c8 f0 ff ff    	cmp    %eax,-0xf38(%rbp)
   115e4:	0f 97 c0             	seta   %al
   115e7:	0f b6 d0             	movzbl %al,%edx
   115ea:	8b 85 94 f0 ff ff    	mov    -0xf6c(%rbp),%eax
   115f0:	0c e0                	or     $0xe0,%al
   115f2:	98                   	cwtl   
   115f3:	89 d6                	mov    %edx,%esi
   115f5:	89 c7                	mov    %eax,%edi
   115f7:	e8 f9 5d ff ff       	callq  73f5 <safe_mul_func_int16_t_s_s>
   115fc:	98                   	cwtl   
   115fd:	8b 95 10 f1 ff ff    	mov    -0xef0(%rbp),%edx
   11603:	89 d6                	mov    %edx,%esi
   11605:	89 c7                	mov    %eax,%edi
   11607:	e8 c0 60 ff ff       	callq  76cc <safe_mod_func_int32_t_s_s>
   1160c:	0f b7 c0             	movzwl %ax,%eax
   1160f:	89 c6                	mov    %eax,%esi
   11611:	bf 01 00 00 00       	mov    $0x1,%edi
   11616:	e8 22 67 ff ff       	callq  7d3d <safe_mul_func_uint16_t_u_u>
   1161b:	0f b7 c0             	movzwl %ax,%eax
   1161e:	89 85 2c f6 ff ff    	mov    %eax,-0x9d4(%rbp)
   11624:	8b 85 2c f6 ff ff    	mov    -0x9d4(%rbp),%eax
   1162a:	48 98                	cltq   
   1162c:	48 89 de             	mov    %rbx,%rsi
   1162f:	48 89 c7             	mov    %rax,%rdi
   11632:	e8 7d 63 ff ff       	callq  79b4 <safe_mod_func_int64_t_s_s>
   11637:	83 e0 03             	and    $0x3,%eax
   1163a:	48 83 c8 f8          	or     $0xfffffffffffffff8,%rax
   1163e:	49 39 c6             	cmp    %rax,%r14
   11641:	7e 0c                	jle    1164f <func_24+0x7d4>
   11643:	48 8b 85 68 f0 ff ff 	mov    -0xf98(%rbp),%rax
   1164a:	0f b6 00             	movzbl (%rax),%eax
   1164d:	84 c0                	test   %al,%al
   1164f:	48 8b 05 6a 23 01 00 	mov    0x1236a(%rip),%rax        # 239c0 <g_112>
   11656:	48 8b 00             	mov    (%rax),%rax
   11659:	48 8b 00             	mov    (%rax),%rax
   1165c:	48 8b 00             	mov    (%rax),%rax
   1165f:	48 89 85 68 f1 ff ff 	mov    %rax,-0xe98(%rbp)
   11666:	eb 1f                	jmp    11687 <func_24+0x80c>
   11668:	48 8d 05 61 25 01 00 	lea    0x12561(%rip),%rax        # 23bd0 <g_559+0x10>
   1166f:	48 89 85 c8 f2 ff ff 	mov    %rax,-0xd38(%rbp)
   11676:	48 8b 05 6b 28 01 00 	mov    0x1286b(%rip),%rax        # 23ee8 <g_875>
   1167d:	48 8b 95 08 f2 ff ff 	mov    -0xdf8(%rbp),%rdx
   11684:	48 89 10             	mov    %rdx,(%rax)
   11687:	48 c7 05 66 db 00 00 	movq   $0x0,0xdb66(%rip)        # 1f1f8 <g_333>
   1168e:	00 00 00 00 
   11692:	e9 5f 01 00 00       	jmpq   117f6 <func_24+0x97b>
   11697:	c7 85 24 f1 ff ff 96 	movl   $0x5fb28196,-0xedc(%rbp)
   1169e:	81 b2 5f 
   116a1:	48 8d 05 c0 d9 00 00 	lea    0xd9c0(%rip),%rax        # 1f068 <g_101>
   116a8:	48 89 85 40 f3 ff ff 	mov    %rax,-0xcc0(%rbp)
   116af:	48 8d 05 fe da 00 00 	lea    0xdafe(%rip),%rax        # 1f1b4 <g_264+0x114>
   116b6:	48 89 85 48 f3 ff ff 	mov    %rax,-0xcb8(%rbp)
   116bd:	48 8d 05 80 e6 00 00 	lea    0xe680(%rip),%rax        # 1fd44 <g_768+0x4>
   116c4:	48 89 85 50 f3 ff ff 	mov    %rax,-0xcb0(%rbp)
   116cb:	48 c7 85 58 f3 ff ff 	movq   $0x0,-0xca8(%rbp)
   116d2:	00 00 00 00 
   116d6:	8b 85 b8 f6 ff ff    	mov    -0x948(%rbp),%eax
   116dc:	48 63 d8             	movslq %eax,%rbx
   116df:	48 8b 85 68 f1 ff ff 	mov    -0xe98(%rbp),%rax
   116e6:	8b 00                	mov    (%rax),%eax
   116e8:	33 85 10 f1 ff ff    	xor    -0xef0(%rbp),%eax
   116ee:	89 c2                	mov    %eax,%edx
   116f0:	48 8b 85 68 f1 ff ff 	mov    -0xe98(%rbp),%rax
   116f7:	89 10                	mov    %edx,(%rax)
   116f9:	48 8b 85 68 f1 ff ff 	mov    -0xe98(%rbp),%rax
   11700:	8b 00                	mov    (%rax),%eax
   11702:	0b 85 c8 f0 ff ff    	or     -0xf38(%rbp),%eax
   11708:	41 89 c4             	mov    %eax,%r12d
   1170b:	8b 85 38 f7 ff ff    	mov    -0x8c8(%rbp),%eax
   11711:	41 89 c6             	mov    %eax,%r14d
   11714:	48 83 bd 70 f1 ff ff 	cmpq   $0x0,-0xe90(%rbp)
   1171b:	00 
   1171c:	0f 95 c0             	setne  %al
   1171f:	44 0f b6 e8          	movzbl %al,%r13d
   11723:	be c1 52 00 00       	mov    $0x52c1,%esi
   11728:	bf d9 21 00 00       	mov    $0x21d9,%edi
   1172d:	e8 a1 5c ff ff       	callq  73d3 <safe_sub_func_int16_t_s_s>
   11732:	98                   	cwtl   
   11733:	89 85 9c f0 ff ff    	mov    %eax,-0xf64(%rbp)
   11739:	8b 85 9c f0 ff ff    	mov    -0xf64(%rbp),%eax
   1173f:	66 35 99 48          	xor    $0x4899,%ax
   11743:	0f b7 c0             	movzwl %ax,%eax
   11746:	be 02 00 00 00       	mov    $0x2,%esi
   1174b:	89 c7                	mov    %eax,%edi
   1174d:	e8 cd 65 ff ff       	callq  7d1f <safe_sub_func_uint16_t_u_u>
   11752:	0f b7 d0             	movzwl %ax,%edx
   11755:	48 8b 85 40 f3 ff ff 	mov    -0xcc0(%rbp),%rax
   1175c:	48 8b 08             	mov    (%rax),%rcx
   1175f:	8b 85 24 f1 ff ff    	mov    -0xedc(%rbp),%eax
   11765:	48 21 c1             	and    %rax,%rcx
   11768:	48 8b 85 40 f3 ff ff 	mov    -0xcc0(%rbp),%rax
   1176f:	48 89 08             	mov    %rcx,(%rax)
   11772:	48 8b 85 40 f3 ff ff 	mov    -0xcc0(%rbp),%rax
   11779:	48 8b 00             	mov    (%rax),%rax
   1177c:	48 89 d6             	mov    %rdx,%rsi
   1177f:	48 89 c7             	mov    %rax,%rdi
   11782:	e8 21 61 ff ff       	callq  78a8 <safe_sub_func_int64_t_s_s>
   11787:	44 31 e8             	xor    %r13d,%eax
   1178a:	44 89 f6             	mov    %r14d,%esi
   1178d:	89 c7                	mov    %eax,%edi
   1178f:	e8 24 67 ff ff       	callq  7eb8 <safe_add_func_uint32_t_u_u>
   11794:	89 c6                	mov    %eax,%esi
   11796:	bf 07 00 00 00       	mov    $0x7,%edi
   1179b:	e8 85 67 ff ff       	callq  7f25 <safe_div_func_uint32_t_u_u>
   117a0:	41 39 c4             	cmp    %eax,%r12d
   117a3:	0f 92 c0             	setb   %al
   117a6:	0f b6 c0             	movzbl %al,%eax
   117a9:	48 89 de             	mov    %rbx,%rsi
   117ac:	48 89 c7             	mov    %rax,%rdi
   117af:	e8 00 62 ff ff       	callq  79b4 <safe_mod_func_int64_t_s_s>
   117b4:	89 85 94 f0 ff ff    	mov    %eax,-0xf6c(%rbp)
   117ba:	48 8b 05 ff 21 01 00 	mov    0x121ff(%rip),%rax        # 239c0 <g_112>
   117c1:	48 8b 00             	mov    (%rax),%rax
   117c4:	48 8b 10             	mov    (%rax),%rdx
   117c7:	48 8b 05 ea 21 01 00 	mov    0x121ea(%rip),%rax        # 239b8 <g_113>
   117ce:	48 8b 00             	mov    (%rax),%rax
   117d1:	48 8b 12             	mov    (%rdx),%rdx
   117d4:	48 89 10             	mov    %rdx,(%rax)
   117d7:	48 8b 05 1a da 00 00 	mov    0xda1a(%rip),%rax        # 1f1f8 <g_333>
   117de:	98                   	cwtl   
   117df:	be 06 00 00 00       	mov    $0x6,%esi
   117e4:	89 c7                	mov    %eax,%edi
   117e6:	e8 c8 5b ff ff       	callq  73b3 <safe_add_func_int16_t_s_s>
   117eb:	48 0f bf c0          	movswq %ax,%rax
   117ef:	48 89 05 02 da 00 00 	mov    %rax,0xda02(%rip)        # 1f1f8 <g_333>
   117f6:	48 8b 05 fb d9 00 00 	mov    0xd9fb(%rip),%rax        # 1f1f8 <g_333>
   117fd:	48 83 f8 01          	cmp    $0x1,%rax
   11801:	0f 84 90 fe ff ff    	je     11697 <func_24+0x81c>
   11807:	48 c7 05 e6 d9 00 00 	movq   $0x0,0xd9e6(%rip)        # 1f1f8 <g_333>
   1180e:	00 00 00 00 
   11812:	eb 2e                	jmp    11842 <func_24+0x9c7>
   11814:	48 8b 85 c0 f2 ff ff 	mov    -0xd40(%rbp),%rax
   1181b:	48 89 85 78 f1 ff ff 	mov    %rax,-0xe88(%rbp)
   11822:	48 8b 05 cf d9 00 00 	mov    0xd9cf(%rip),%rax        # 1f1f8 <g_333>
   11829:	0f b6 c0             	movzbl %al,%eax
   1182c:	be 01 00 00 00       	mov    $0x1,%esi
   11831:	89 c7                	mov    %eax,%edi
   11833:	e8 40 63 ff ff       	callq  7b78 <safe_sub_func_uint8_t_u_u>
   11838:	0f b6 c0             	movzbl %al,%eax
   1183b:	48 89 05 b6 d9 00 00 	mov    %rax,0xd9b6(%rip)        # 1f1f8 <g_333>
   11842:	48 8b 05 af d9 00 00 	mov    0xd9af(%rip),%rax        # 1f1f8 <g_333>
   11849:	48 83 f8 fe          	cmp    $0xfffffffffffffffe,%rax
   1184d:	75 c5                	jne    11814 <func_24+0x999>
   1184f:	8b 85 10 f1 ff ff    	mov    -0xef0(%rbp),%eax
   11855:	0f b7 d8             	movzwl %ax,%ebx
   11858:	8b 85 cc f0 ff ff    	mov    -0xf34(%rbp),%eax
   1185e:	0b 85 c8 f0 ff ff    	or     -0xf38(%rbp),%eax
   11864:	41 89 c4             	mov    %eax,%r12d
   11867:	8b 85 9c f0 ff ff    	mov    -0xf64(%rbp),%eax
   1186d:	48 63 d0             	movslq %eax,%rdx
   11870:	8b 85 9c f0 ff ff    	mov    -0xf64(%rbp),%eax
   11876:	83 f8 01             	cmp    $0x1,%eax
   11879:	0f 95 c0             	setne  %al
   1187c:	0f b6 c0             	movzbl %al,%eax
   1187f:	48 89 d6             	mov    %rdx,%rsi
   11882:	48 89 c7             	mov    %rax,%rdi
   11885:	e8 b7 5f ff ff       	callq  7841 <safe_add_func_int64_t_s_s>
   1188a:	49 39 c4             	cmp    %rax,%r12
   1188d:	0f 9d c0             	setge  %al
   11890:	0f b6 c0             	movzbl %al,%eax
   11893:	89 de                	mov    %ebx,%esi
   11895:	89 c7                	mov    %eax,%edi
   11897:	e8 63 64 ff ff       	callq  7cff <safe_add_func_uint16_t_u_u>
   1189c:	66 85 c0             	test   %ax,%ax
   1189f:	0f 84 12 01 00 00    	je     119b7 <func_24+0xb3c>
   118a5:	48 8d 05 b0 d7 00 00 	lea    0xd7b0(%rip),%rax        # 1f05c <g_49>
   118ac:	48 89 85 e8 f2 ff ff 	mov    %rax,-0xd18(%rbp)
   118b3:	48 8d 85 94 f0 ff ff 	lea    -0xf6c(%rbp),%rax
   118ba:	48 89 85 f0 f2 ff ff 	mov    %rax,-0xd10(%rbp)
   118c1:	48 c7 85 f8 f2 ff ff 	movq   $0x0,-0xd08(%rbp)
   118c8:	00 00 00 00 
   118cc:	48 8d 05 83 da 00 00 	lea    0xda83(%rip),%rax        # 1f356 <g_439+0x6>
   118d3:	48 89 85 00 f3 ff ff 	mov    %rax,-0xd00(%rbp)
   118da:	48 8d 05 6f d7 00 00 	lea    0xd76f(%rip),%rax        # 1f050 <g_41>
   118e1:	48 89 85 08 f3 ff ff 	mov    %rax,-0xcf8(%rbp)
   118e8:	48 8d 85 00 f6 ff ff 	lea    -0xa00(%rbp),%rax
   118ef:	48 83 c0 2c          	add    $0x2c,%rax
   118f3:	48 89 85 10 f3 ff ff 	mov    %rax,-0xcf0(%rbp)
   118fa:	48 8d 85 9c f0 ff ff 	lea    -0xf64(%rbp),%rax
   11901:	48 89 85 18 f3 ff ff 	mov    %rax,-0xce8(%rbp)
   11908:	48 8d 05 41 d7 00 00 	lea    0xd741(%rip),%rax        # 1f050 <g_41>
   1190f:	48 89 85 20 f3 ff ff 	mov    %rax,-0xce0(%rbp)
   11916:	48 8d 05 a9 da 00 00 	lea    0xdaa9(%rip),%rax        # 1f3c6 <g_560+0x6>
   1191d:	48 89 85 28 f3 ff ff 	mov    %rax,-0xcd8(%rbp)
   11924:	48 c7 85 30 f3 ff ff 	movq   $0x0,-0xcd0(%rbp)
   1192b:	00 00 00 00 
   1192f:	48 c7 85 38 f3 ff ff 	movq   $0x0,-0xcc8(%rbp)
   11936:	00 00 00 00 
   1193a:	c7 85 b4 f0 ff ff 00 	movl   $0x0,-0xf4c(%rbp)
   11941:	00 00 00 
   11944:	eb 1e                	jmp    11964 <func_24+0xae9>
   11946:	8b 85 b4 f0 ff ff    	mov    -0xf4c(%rbp),%eax
   1194c:	48 98                	cltq   
   1194e:	48 8d 15 03 d7 00 00 	lea    0xd703(%rip),%rdx        # 1f058 <g_45>
   11955:	48 89 94 c5 30 f4 ff 	mov    %rdx,-0xbd0(%rbp,%rax,8)
   1195c:	ff 
   1195d:	83 85 b4 f0 ff ff 01 	addl   $0x1,-0xf4c(%rbp)
   11964:	83 bd b4 f0 ff ff 07 	cmpl   $0x7,-0xf4c(%rbp)
   1196b:	7e d9                	jle    11946 <func_24+0xacb>
   1196d:	48 8b 15 64 20 01 00 	mov    0x12064(%rip),%rdx        # 239d8 <g_267>
   11974:	48 8b 05 3d 25 01 00 	mov    0x1253d(%rip),%rax        # 23eb8 <g_877>
   1197b:	48 8b 00             	mov    (%rax),%rax
   1197e:	48 8b 00             	mov    (%rax),%rax
   11981:	48 8b 0a             	mov    (%rdx),%rcx
   11984:	48 8b 5a 08          	mov    0x8(%rdx),%rbx
   11988:	48 89 08             	mov    %rcx,(%rax)
   1198b:	48 89 58 08          	mov    %rbx,0x8(%rax)
   1198f:	48 8b 4a 10          	mov    0x10(%rdx),%rcx
   11993:	48 89 48 10          	mov    %rcx,0x10(%rax)
   11997:	8b 4a 18             	mov    0x18(%rdx),%ecx
   1199a:	89 48 18             	mov    %ecx,0x18(%rax)
   1199d:	0f b7 52 1c          	movzwl 0x1c(%rdx),%edx
   119a1:	66 89 50 1c          	mov    %dx,0x1c(%rax)
   119a5:	0f b6 85 7c f0 ff ff 	movzbl -0xf84(%rbp),%eax
   119ac:	83 e8 01             	sub    $0x1,%eax
   119af:	88 85 7c f0 ff ff    	mov    %al,-0xf84(%rbp)
   119b5:	eb 28                	jmp    119df <func_24+0xb64>
   119b7:	83 ad a4 f0 ff ff 01 	subl   $0x1,-0xf5c(%rbp)
   119be:	48 8b 05 f3 1f 01 00 	mov    0x11ff3(%rip),%rax        # 239b8 <g_113>
   119c5:	48 8b 00             	mov    (%rax),%rax
   119c8:	48 8b 00             	mov    (%rax),%rax
   119cb:	8b 08                	mov    (%rax),%ecx
   119cd:	48 83 bd 88 f2 ff ff 	cmpq   $0x0,-0xd78(%rbp)
   119d4:	00 
   119d5:	0f 94 c2             	sete   %dl
   119d8:	0f b6 d2             	movzbl %dl,%edx
   119db:	31 ca                	xor    %ecx,%edx
   119dd:	89 10                	mov    %edx,(%rax)
   119df:	0f b7 05 80 d6 00 00 	movzwl 0xd680(%rip),%eax        # 1f066 <g_99>
   119e6:	83 e8 01             	sub    $0x1,%eax
   119e9:	66 89 05 76 d6 00 00 	mov    %ax,0xd676(%rip)        # 1f066 <g_99>
   119f0:	0f b7 05 6f d6 00 00 	movzwl 0xd66f(%rip),%eax        # 1f066 <g_99>
   119f7:	66 83 f8 ff          	cmp    $0xffff,%ax
   119fb:	0f 8c f5 f9 ff ff    	jl     113f6 <func_24+0x57b>
   11a01:	8b 05 29 e3 00 00    	mov    0xe329(%rip),%eax        # 1fd30 <g_660>
   11a07:	83 c0 01             	add    $0x1,%eax
   11a0a:	89 05 20 e3 00 00    	mov    %eax,0xe320(%rip)        # 1fd30 <g_660>
   11a10:	8b 05 1a e3 00 00    	mov    0xe31a(%rip),%eax        # 1fd30 <g_660>
   11a16:	83 f8 09             	cmp    $0x9,%eax
   11a19:	0f 85 2b f9 ff ff    	jne    1134a <func_24+0x4cf>
   11a1f:	c7 05 7b d9 00 00 00 	movl   $0x0,0xd97b(%rip)        # 1f3a4 <g_550+0x4>
   11a26:	00 00 00 
   11a29:	e9 bb 09 00 00       	jmpq   123e9 <func_24+0x156e>
   11a2e:	48 8d 85 84 f0 ff ff 	lea    -0xf7c(%rbp),%rax
   11a35:	48 89 85 a0 f2 ff ff 	mov    %rax,-0xd60(%rbp)
   11a3c:	c7 85 00 f1 ff ff 00 	movl   $0x0,-0xf00(%rbp)
   11a43:	00 00 00 
   11a46:	48 8d 85 82 f0 ff ff 	lea    -0xf7e(%rbp),%rax
   11a4d:	48 89 85 50 fc ff ff 	mov    %rax,-0x3b0(%rbp)
   11a54:	48 8d 85 82 f0 ff ff 	lea    -0xf7e(%rbp),%rax
   11a5b:	48 89 85 58 fc ff ff 	mov    %rax,-0x3a8(%rbp)
   11a62:	48 8d 85 82 f0 ff ff 	lea    -0xf7e(%rbp),%rax
   11a69:	48 89 85 60 fc ff ff 	mov    %rax,-0x3a0(%rbp)
   11a70:	48 8d 85 82 f0 ff ff 	lea    -0xf7e(%rbp),%rax
   11a77:	48 89 85 68 fc ff ff 	mov    %rax,-0x398(%rbp)
   11a7e:	48 8d 85 82 f0 ff ff 	lea    -0xf7e(%rbp),%rax
   11a85:	48 89 85 70 fc ff ff 	mov    %rax,-0x390(%rbp)
   11a8c:	48 8d 85 82 f0 ff ff 	lea    -0xf7e(%rbp),%rax
   11a93:	48 89 85 78 fc ff ff 	mov    %rax,-0x388(%rbp)
   11a9a:	48 8d 85 82 f0 ff ff 	lea    -0xf7e(%rbp),%rax
   11aa1:	48 89 85 80 fc ff ff 	mov    %rax,-0x380(%rbp)
   11aa8:	48 c7 85 88 fc ff ff 	movq   $0x0,-0x378(%rbp)
   11aaf:	00 00 00 00 
   11ab3:	48 8d 05 9e 2d 01 00 	lea    0x12d9e(%rip),%rax        # 24858 <g_730>
   11aba:	48 89 85 90 fc ff ff 	mov    %rax,-0x370(%rbp)
   11ac1:	48 c7 85 98 fc ff ff 	movq   $0x0,-0x368(%rbp)
   11ac8:	00 00 00 00 
   11acc:	48 c7 85 a0 fc ff ff 	movq   $0x0,-0x360(%rbp)
   11ad3:	00 00 00 00 
   11ad7:	48 8d 05 7a 2d 01 00 	lea    0x12d7a(%rip),%rax        # 24858 <g_730>
   11ade:	48 89 85 a8 fc ff ff 	mov    %rax,-0x358(%rbp)
   11ae5:	48 c7 85 b0 fc ff ff 	movq   $0x0,-0x350(%rbp)
   11aec:	00 00 00 00 
   11af0:	48 c7 85 b8 fc ff ff 	movq   $0x0,-0x348(%rbp)
   11af7:	00 00 00 00 
   11afb:	48 8d 85 82 f0 ff ff 	lea    -0xf7e(%rbp),%rax
   11b02:	48 89 85 c0 fc ff ff 	mov    %rax,-0x340(%rbp)
   11b09:	48 8d 85 82 f0 ff ff 	lea    -0xf7e(%rbp),%rax
   11b10:	48 89 85 c8 fc ff ff 	mov    %rax,-0x338(%rbp)
   11b17:	48 8d 85 82 f0 ff ff 	lea    -0xf7e(%rbp),%rax
   11b1e:	48 89 85 d0 fc ff ff 	mov    %rax,-0x330(%rbp)
   11b25:	48 8d 85 82 f0 ff ff 	lea    -0xf7e(%rbp),%rax
   11b2c:	48 89 85 d8 fc ff ff 	mov    %rax,-0x328(%rbp)
   11b33:	48 8d 85 82 f0 ff ff 	lea    -0xf7e(%rbp),%rax
   11b3a:	48 89 85 e0 fc ff ff 	mov    %rax,-0x320(%rbp)
   11b41:	48 8d 85 82 f0 ff ff 	lea    -0xf7e(%rbp),%rax
   11b48:	48 89 85 e8 fc ff ff 	mov    %rax,-0x318(%rbp)
   11b4f:	48 8d 85 82 f0 ff ff 	lea    -0xf7e(%rbp),%rax
   11b56:	48 89 85 f0 fc ff ff 	mov    %rax,-0x310(%rbp)
   11b5d:	48 8d 05 f4 2c 01 00 	lea    0x12cf4(%rip),%rax        # 24858 <g_730>
   11b64:	48 89 85 f8 fc ff ff 	mov    %rax,-0x308(%rbp)
   11b6b:	48 c7 85 00 fd ff ff 	movq   $0x0,-0x300(%rbp)
   11b72:	00 00 00 00 
   11b76:	48 c7 85 08 fd ff ff 	movq   $0x0,-0x2f8(%rbp)
   11b7d:	00 00 00 00 
   11b81:	48 8d 05 d0 2c 01 00 	lea    0x12cd0(%rip),%rax        # 24858 <g_730>
   11b88:	48 89 85 10 fd ff ff 	mov    %rax,-0x2f0(%rbp)
   11b8f:	48 c7 85 18 fd ff ff 	movq   $0x0,-0x2e8(%rbp)
   11b96:	00 00 00 00 
   11b9a:	48 c7 85 20 fd ff ff 	movq   $0x0,-0x2e0(%rbp)
   11ba1:	00 00 00 00 
   11ba5:	48 8d 05 ac 2c 01 00 	lea    0x12cac(%rip),%rax        # 24858 <g_730>
   11bac:	48 89 85 28 fd ff ff 	mov    %rax,-0x2d8(%rbp)
   11bb3:	48 8d 85 82 f0 ff ff 	lea    -0xf7e(%rbp),%rax
   11bba:	48 89 85 30 fd ff ff 	mov    %rax,-0x2d0(%rbp)
   11bc1:	48 8d 85 82 f0 ff ff 	lea    -0xf7e(%rbp),%rax
   11bc8:	48 89 85 38 fd ff ff 	mov    %rax,-0x2c8(%rbp)
   11bcf:	48 8d 85 82 f0 ff ff 	lea    -0xf7e(%rbp),%rax
   11bd6:	48 89 85 40 fd ff ff 	mov    %rax,-0x2c0(%rbp)
   11bdd:	48 8d 85 82 f0 ff ff 	lea    -0xf7e(%rbp),%rax
   11be4:	48 89 85 48 fd ff ff 	mov    %rax,-0x2b8(%rbp)
   11beb:	48 8d 85 82 f0 ff ff 	lea    -0xf7e(%rbp),%rax
   11bf2:	48 89 85 50 fd ff ff 	mov    %rax,-0x2b0(%rbp)
   11bf9:	48 8d 85 82 f0 ff ff 	lea    -0xf7e(%rbp),%rax
   11c00:	48 89 85 58 fd ff ff 	mov    %rax,-0x2a8(%rbp)
   11c07:	48 8d 85 82 f0 ff ff 	lea    -0xf7e(%rbp),%rax
   11c0e:	48 89 85 60 fd ff ff 	mov    %rax,-0x2a0(%rbp)
   11c15:	48 8d 05 3c 2c 01 00 	lea    0x12c3c(%rip),%rax        # 24858 <g_730>
   11c1c:	48 89 85 68 fd ff ff 	mov    %rax,-0x298(%rbp)
   11c23:	48 8d 05 2e 2c 01 00 	lea    0x12c2e(%rip),%rax        # 24858 <g_730>
   11c2a:	48 89 85 70 fd ff ff 	mov    %rax,-0x290(%rbp)
   11c31:	48 8d 05 20 2c 01 00 	lea    0x12c20(%rip),%rax        # 24858 <g_730>
   11c38:	48 89 85 78 fd ff ff 	mov    %rax,-0x288(%rbp)
   11c3f:	48 8d 05 12 2c 01 00 	lea    0x12c12(%rip),%rax        # 24858 <g_730>
   11c46:	48 89 85 80 fd ff ff 	mov    %rax,-0x280(%rbp)
   11c4d:	48 8d 05 04 2c 01 00 	lea    0x12c04(%rip),%rax        # 24858 <g_730>
   11c54:	48 89 85 88 fd ff ff 	mov    %rax,-0x278(%rbp)
   11c5b:	48 8d 05 f6 2b 01 00 	lea    0x12bf6(%rip),%rax        # 24858 <g_730>
   11c62:	48 89 85 90 fd ff ff 	mov    %rax,-0x270(%rbp)
   11c69:	48 8d 05 e8 2b 01 00 	lea    0x12be8(%rip),%rax        # 24858 <g_730>
   11c70:	48 89 85 98 fd ff ff 	mov    %rax,-0x268(%rbp)
   11c77:	c7 85 00 f6 ff ff 90 	movl   $0x3a201c90,-0xa00(%rbp)
   11c7e:	1c 20 3a 
   11c81:	c7 85 04 f6 ff ff 4c 	movl   $0x8323f44c,-0x9fc(%rbp)
   11c88:	f4 23 83 
   11c8b:	c7 85 08 f6 ff ff 2f 	movl   $0x808f982f,-0x9f8(%rbp)
   11c92:	98 8f 80 
   11c95:	c7 85 0c f6 ff ff 01 	movl   $0x1,-0x9f4(%rbp)
   11c9c:	00 00 00 
   11c9f:	c7 85 10 f6 ff ff fc 	movl   $0xfffffffc,-0x9f0(%rbp)
   11ca6:	ff ff ff 
   11ca9:	c7 85 14 f6 ff ff 7d 	movl   $0x96b427d,-0x9ec(%rbp)
   11cb0:	42 6b 09 
   11cb3:	c7 85 18 f6 ff ff 6d 	movl   $0x32f0b96d,-0x9e8(%rbp)
   11cba:	b9 f0 32 
   11cbd:	c7 85 1c f6 ff ff 4c 	movl   $0x8323f44c,-0x9e4(%rbp)
   11cc4:	f4 23 83 
   11cc7:	c7 85 20 f6 ff ff fe 	movl   $0xfffffffe,-0x9e0(%rbp)
   11cce:	ff ff ff 
   11cd1:	c7 85 24 f6 ff ff c9 	movl   $0xaf94a5c9,-0x9dc(%rbp)
   11cd8:	a5 94 af 
   11cdb:	c7 85 28 f6 ff ff 58 	movl   $0x5acaeb58,-0x9d8(%rbp)
   11ce2:	eb ca 5a 
   11ce5:	c7 85 2c f6 ff ff ff 	movl   $0xffffffff,-0x9d4(%rbp)
   11cec:	ff ff ff 
   11cef:	c7 85 30 f6 ff ff fb 	movl   $0xfffffffb,-0x9d0(%rbp)
   11cf6:	ff ff ff 
   11cf9:	c7 85 34 f6 ff ff 03 	movl   $0xf9cbb503,-0x9cc(%rbp)
   11d00:	b5 cb f9 
   11d03:	c7 85 38 f6 ff ff 2f 	movl   $0x808f982f,-0x9c8(%rbp)
   11d0a:	98 8f 80 
   11d0d:	c7 85 3c f6 ff ff c9 	movl   $0xaf94a5c9,-0x9c4(%rbp)
   11d14:	a5 94 af 
   11d17:	c7 85 40 f6 ff ff c9 	movl   $0xaf94a5c9,-0x9c0(%rbp)
   11d1e:	a5 94 af 
   11d21:	c7 85 44 f6 ff ff 2f 	movl   $0x808f982f,-0x9bc(%rbp)
   11d28:	98 8f 80 
   11d2b:	c7 85 48 f6 ff ff f6 	movl   $0x12646df6,-0x9b8(%rbp)
   11d32:	6d 64 12 
   11d35:	c7 85 4c f6 ff ff f6 	movl   $0x12646df6,-0x9b4(%rbp)
   11d3c:	6d 64 12 
   11d3f:	c7 85 50 f6 ff ff 6d 	movl   $0x32f0b96d,-0x9b0(%rbp)
   11d46:	b9 f0 32 
   11d49:	c7 85 54 f6 ff ff 53 	movl   $0xcdb8d553,-0x9ac(%rbp)
   11d50:	d5 b8 cd 
   11d53:	c7 85 58 f6 ff ff c1 	movl   $0xb0b6f0c1,-0x9a8(%rbp)
   11d5a:	f0 b6 b0 
   11d5d:	c7 85 5c f6 ff ff 42 	movl   $0x53087b42,-0x9a4(%rbp)
   11d64:	7b 08 53 
   11d67:	c7 85 60 f6 ff ff 6d 	movl   $0x32f0b96d,-0x9a0(%rbp)
   11d6e:	b9 f0 32 
   11d71:	c7 85 64 f6 ff ff 90 	movl   $0x3a201c90,-0x99c(%rbp)
   11d78:	1c 20 3a 
   11d7b:	c7 85 68 f6 ff ff 58 	movl   $0x5acaeb58,-0x998(%rbp)
   11d82:	eb ca 5a 
   11d85:	c7 85 6c f6 ff ff 02 	movl   $0x2,-0x994(%rbp)
   11d8c:	00 00 00 
   11d8f:	c7 85 70 f6 ff ff 7d 	movl   $0x96b427d,-0x990(%rbp)
   11d96:	42 6b 09 
   11d99:	c7 85 74 f6 ff ff 6d 	movl   $0x32f0b96d,-0x98c(%rbp)
   11da0:	b9 f0 32 
   11da3:	c7 85 78 f6 ff ff 4c 	movl   $0x8323f44c,-0x988(%rbp)
   11daa:	f4 23 83 
   11dad:	c7 85 7c f6 ff ff 6d 	movl   $0x32f0b96d,-0x984(%rbp)
   11db4:	b9 f0 32 
   11db7:	c7 85 80 f6 ff ff 58 	movl   $0x5acaeb58,-0x980(%rbp)
   11dbe:	eb ca 5a 
   11dc1:	c7 85 84 f6 ff ff 01 	movl   $0x1,-0x97c(%rbp)
   11dc8:	00 00 00 
   11dcb:	c7 85 88 f6 ff ff f6 	movl   $0x12646df6,-0x978(%rbp)
   11dd2:	6d 64 12 
   11dd5:	c7 85 8c f6 ff ff 42 	movl   $0x53087b42,-0x974(%rbp)
   11ddc:	7b 08 53 
   11ddf:	c7 85 90 f6 ff ff ff 	movl   $0xffffffff,-0x970(%rbp)
   11de6:	ff ff ff 
   11de9:	c7 85 94 f6 ff ff 01 	movl   $0x1,-0x96c(%rbp)
   11df0:	00 00 00 
   11df3:	c7 85 98 f6 ff ff 6d 	movl   $0x32f0b96d,-0x968(%rbp)
   11dfa:	b9 f0 32 
   11dfd:	c7 85 9c f6 ff ff 2f 	movl   $0x808f982f,-0x964(%rbp)
   11e04:	98 8f 80 
   11e07:	c7 85 a0 f6 ff ff fc 	movl   $0xfffffffc,-0x960(%rbp)
   11e0e:	ff ff ff 
   11e11:	c7 85 a4 f6 ff ff 2f 	movl   $0x808f982f,-0x95c(%rbp)
   11e18:	98 8f 80 
   11e1b:	c7 85 a8 f6 ff ff 2f 	movl   $0x808f982f,-0x958(%rbp)
   11e22:	98 8f 80 
   11e25:	c7 85 ac f6 ff ff fc 	movl   $0xfffffffc,-0x954(%rbp)
   11e2c:	ff ff ff 
   11e2f:	c7 85 b0 f6 ff ff 2f 	movl   $0x808f982f,-0x950(%rbp)
   11e36:	98 8f 80 
   11e39:	c7 85 b4 f6 ff ff 6d 	movl   $0x32f0b96d,-0x94c(%rbp)
   11e40:	b9 f0 32 
   11e43:	c7 85 b8 f6 ff ff 01 	movl   $0x1,-0x948(%rbp)
   11e4a:	00 00 00 
   11e4d:	c7 85 bc f6 ff ff ff 	movl   $0xffffffff,-0x944(%rbp)
   11e54:	ff ff ff 
   11e57:	c7 85 c0 f6 ff ff 42 	movl   $0x53087b42,-0x940(%rbp)
   11e5e:	7b 08 53 
   11e61:	c7 85 c4 f6 ff ff f6 	movl   $0x12646df6,-0x93c(%rbp)
   11e68:	6d 64 12 
   11e6b:	c7 85 c8 f6 ff ff 01 	movl   $0x1,-0x938(%rbp)
   11e72:	00 00 00 
   11e75:	c7 85 cc f6 ff ff 58 	movl   $0x5acaeb58,-0x934(%rbp)
   11e7c:	eb ca 5a 
   11e7f:	c7 85 d0 f6 ff ff 6d 	movl   $0x32f0b96d,-0x930(%rbp)
   11e86:	b9 f0 32 
   11e89:	c7 85 d4 f6 ff ff 4c 	movl   $0x8323f44c,-0x92c(%rbp)
   11e90:	f4 23 83 
   11e93:	c7 85 d8 f6 ff ff 6d 	movl   $0x32f0b96d,-0x928(%rbp)
   11e9a:	b9 f0 32 
   11e9d:	c7 85 dc f6 ff ff 7d 	movl   $0x96b427d,-0x924(%rbp)
   11ea4:	42 6b 09 
   11ea7:	c7 85 e0 f6 ff ff 02 	movl   $0x2,-0x920(%rbp)
   11eae:	00 00 00 
   11eb1:	c7 85 e4 f6 ff ff 58 	movl   $0x5acaeb58,-0x91c(%rbp)
   11eb8:	eb ca 5a 
   11ebb:	c7 85 e8 f6 ff ff 90 	movl   $0x3a201c90,-0x918(%rbp)
   11ec2:	1c 20 3a 
   11ec5:	c7 85 ec f6 ff ff 6d 	movl   $0x32f0b96d,-0x914(%rbp)
   11ecc:	b9 f0 32 
   11ecf:	c7 85 04 f1 ff ff ff 	movl   $0xffffffff,-0xefc(%rbp)
   11ed6:	ff ff ff 
   11ed9:	48 8d 05 18 d3 00 00 	lea    0xd318(%rip),%rax        # 1f1f8 <g_333>
   11ee0:	48 89 85 90 f3 ff ff 	mov    %rax,-0xc70(%rbp)
   11ee7:	48 8d 05 0a d3 00 00 	lea    0xd30a(%rip),%rax        # 1f1f8 <g_333>
   11eee:	48 89 85 98 f3 ff ff 	mov    %rax,-0xc68(%rbp)
   11ef5:	48 8d 05 fc d2 00 00 	lea    0xd2fc(%rip),%rax        # 1f1f8 <g_333>
   11efc:	48 89 85 a0 f3 ff ff 	mov    %rax,-0xc60(%rbp)
   11f03:	48 8d 05 ee d2 00 00 	lea    0xd2ee(%rip),%rax        # 1f1f8 <g_333>
   11f0a:	48 89 85 a8 f3 ff ff 	mov    %rax,-0xc58(%rbp)
   11f11:	48 8d 05 e0 d2 00 00 	lea    0xd2e0(%rip),%rax        # 1f1f8 <g_333>
   11f18:	48 89 85 b0 f3 ff ff 	mov    %rax,-0xc50(%rbp)
   11f1f:	48 8d 05 d2 d2 00 00 	lea    0xd2d2(%rip),%rax        # 1f1f8 <g_333>
   11f26:	48 89 85 b8 f3 ff ff 	mov    %rax,-0xc48(%rbp)
   11f2d:	48 8d 05 c4 d2 00 00 	lea    0xd2c4(%rip),%rax        # 1f1f8 <g_333>
   11f34:	48 89 85 c0 f3 ff ff 	mov    %rax,-0xc40(%rbp)
   11f3b:	48 8d 05 b6 d2 00 00 	lea    0xd2b6(%rip),%rax        # 1f1f8 <g_333>
   11f42:	48 89 85 c8 f3 ff ff 	mov    %rax,-0xc38(%rbp)
   11f49:	48 8d 05 a8 d2 00 00 	lea    0xd2a8(%rip),%rax        # 1f1f8 <g_333>
   11f50:	48 89 85 d0 f3 ff ff 	mov    %rax,-0xc30(%rbp)
   11f57:	c7 85 08 f1 ff ff 05 	movl   $0x5,-0xef8(%rbp)
   11f5e:	00 00 00 
   11f61:	48 8b 05 48 1f 01 00 	mov    0x11f48(%rip),%rax        # 23eb0 <g_784>
   11f68:	48 8b 00             	mov    (%rax),%rax
   11f6b:	48 89 c2             	mov    %rax,%rdx
   11f6e:	48 8b 85 68 f1 ff ff 	mov    -0xe98(%rbp),%rax
   11f75:	c7 00 00 00 00 00    	movl   $0x0,(%rax)
   11f7b:	48 8b 85 a0 f2 ff ff 	mov    -0xd60(%rbp),%rax
   11f82:	66 c7 00 00 00       	movw   $0x0,(%rax)
   11f87:	83 bd 00 f1 ff ff 01 	cmpl   $0x1,-0xf00(%rbp)
   11f8e:	0f 95 c0             	setne  %al
   11f91:	0f b6 c0             	movzbl %al,%eax
   11f94:	48 89 d6             	mov    %rdx,%rsi
   11f97:	48 89 c7             	mov    %rax,%rdi
   11f9a:	e8 a2 58 ff ff       	callq  7841 <safe_add_func_int64_t_s_s>
   11f9f:	48 3d cc 00 00 00    	cmp    $0xcc,%rax
   11fa5:	0f 9e c0             	setle  %al
   11fa8:	0f b6 d0             	movzbl %al,%edx
   11fab:	8b 85 68 f6 ff ff    	mov    -0x998(%rbp),%eax
   11fb1:	21 d0                	and    %edx,%eax
   11fb3:	89 85 68 f6 ff ff    	mov    %eax,-0x998(%rbp)
   11fb9:	8b 85 68 f6 ff ff    	mov    -0x998(%rbp),%eax
   11fbf:	0b 85 fc f0 ff ff    	or     -0xf04(%rbp),%eax
   11fc5:	89 c2                	mov    %eax,%edx
   11fc7:	0f b7 85 d8 f8 ff ff 	movzwl -0x728(%rbp),%eax
   11fce:	0f b7 c0             	movzwl %ax,%eax
   11fd1:	39 c2                	cmp    %eax,%edx
   11fd3:	0f 9d c0             	setge  %al
   11fd6:	0f b6 c0             	movzbl %al,%eax
   11fd9:	31 85 04 f1 ff ff    	xor    %eax,-0xefc(%rbp)
   11fdf:	c7 05 dd d3 00 00 00 	movl   $0x0,0xd3dd(%rip)        # 1f3c6 <g_560+0x6>
   11fe6:	00 00 00 
   11fe9:	e9 52 03 00 00       	jmpq   12340 <func_24+0x14c5>
   11fee:	48 c7 85 50 f1 ff ff 	movq   $0x0,-0xeb0(%rbp)
   11ff5:	00 00 00 00 
   11ff9:	48 8d 85 50 f1 ff ff 	lea    -0xeb0(%rbp),%rax
   12000:	48 89 85 b0 f2 ff ff 	mov    %rax,-0xd50(%rbp)
   12007:	48 8d 05 22 28 01 00 	lea    0x12822(%rip),%rax        # 24830 <g_246>
   1200e:	48 89 85 58 f1 ff ff 	mov    %rax,-0xea8(%rbp)
   12015:	48 c7 85 30 f4 ff ff 	movq   $0x0,-0xbd0(%rbp)
   1201c:	00 00 00 00 
   12020:	48 c7 85 38 f4 ff ff 	movq   $0x0,-0xbc8(%rbp)
   12027:	00 00 00 00 
   1202b:	48 c7 85 40 f4 ff ff 	movq   $0x0,-0xbc0(%rbp)
   12032:	00 00 00 00 
   12036:	48 c7 85 48 f4 ff ff 	movq   $0x0,-0xbb8(%rbp)
   1203d:	00 00 00 00 
   12041:	48 8d 85 58 f1 ff ff 	lea    -0xea8(%rbp),%rax
   12048:	48 89 85 50 f4 ff ff 	mov    %rax,-0xbb0(%rbp)
   1204f:	48 8d 85 58 f1 ff ff 	lea    -0xea8(%rbp),%rax
   12056:	48 89 85 58 f4 ff ff 	mov    %rax,-0xba8(%rbp)
   1205d:	48 c7 85 60 f4 ff ff 	movq   $0x0,-0xba0(%rbp)
   12064:	00 00 00 00 
   12068:	48 8d 85 58 f1 ff ff 	lea    -0xea8(%rbp),%rax
   1206f:	48 89 85 68 f4 ff ff 	mov    %rax,-0xb98(%rbp)
   12076:	48 c7 85 70 f4 ff ff 	movq   $0x0,-0xb90(%rbp)
   1207d:	00 00 00 00 
   12081:	48 8d 85 58 f1 ff ff 	lea    -0xea8(%rbp),%rax
   12088:	48 89 85 78 f4 ff ff 	mov    %rax,-0xb88(%rbp)
   1208f:	48 8d 85 58 f1 ff ff 	lea    -0xea8(%rbp),%rax
   12096:	48 89 85 80 f4 ff ff 	mov    %rax,-0xb80(%rbp)
   1209d:	48 8d 85 58 f1 ff ff 	lea    -0xea8(%rbp),%rax
   120a4:	48 89 85 88 f4 ff ff 	mov    %rax,-0xb78(%rbp)
   120ab:	48 8d 85 58 f1 ff ff 	lea    -0xea8(%rbp),%rax
   120b2:	48 89 85 90 f4 ff ff 	mov    %rax,-0xb70(%rbp)
   120b9:	48 c7 85 98 f4 ff ff 	movq   $0x0,-0xb68(%rbp)
   120c0:	00 00 00 00 
   120c4:	48 8d 85 58 f1 ff ff 	lea    -0xea8(%rbp),%rax
   120cb:	48 89 85 a0 f4 ff ff 	mov    %rax,-0xb60(%rbp)
   120d2:	48 8d 85 58 f1 ff ff 	lea    -0xea8(%rbp),%rax
   120d9:	48 89 85 a8 f4 ff ff 	mov    %rax,-0xb58(%rbp)
   120e0:	48 8d 85 58 f1 ff ff 	lea    -0xea8(%rbp),%rax
   120e7:	48 89 85 b0 f4 ff ff 	mov    %rax,-0xb50(%rbp)
   120ee:	48 8d 85 58 f1 ff ff 	lea    -0xea8(%rbp),%rax
   120f5:	48 89 85 b8 f4 ff ff 	mov    %rax,-0xb48(%rbp)
   120fc:	48 8d 85 58 f1 ff ff 	lea    -0xea8(%rbp),%rax
   12103:	48 89 85 c0 f4 ff ff 	mov    %rax,-0xb40(%rbp)
   1210a:	48 8d 85 58 f1 ff ff 	lea    -0xea8(%rbp),%rax
   12111:	48 89 85 c8 f4 ff ff 	mov    %rax,-0xb38(%rbp)
   12118:	48 8d 85 58 f1 ff ff 	lea    -0xea8(%rbp),%rax
   1211f:	48 89 85 d0 f4 ff ff 	mov    %rax,-0xb30(%rbp)
   12126:	48 8d 85 58 f1 ff ff 	lea    -0xea8(%rbp),%rax
   1212d:	48 89 85 d8 f4 ff ff 	mov    %rax,-0xb28(%rbp)
   12134:	48 8d 85 58 f1 ff ff 	lea    -0xea8(%rbp),%rax
   1213b:	48 89 85 e0 f4 ff ff 	mov    %rax,-0xb20(%rbp)
   12142:	48 c7 85 e8 f4 ff ff 	movq   $0x0,-0xb18(%rbp)
   12149:	00 00 00 00 
   1214d:	48 8d 85 58 f1 ff ff 	lea    -0xea8(%rbp),%rax
   12154:	48 89 85 f0 f4 ff ff 	mov    %rax,-0xb10(%rbp)
   1215b:	48 c7 85 f8 f4 ff ff 	movq   $0x0,-0xb08(%rbp)
   12162:	00 00 00 00 
   12166:	48 8d 85 58 f1 ff ff 	lea    -0xea8(%rbp),%rax
   1216d:	48 89 85 00 f5 ff ff 	mov    %rax,-0xb00(%rbp)
   12174:	48 8d 85 58 f1 ff ff 	lea    -0xea8(%rbp),%rax
   1217b:	48 89 85 08 f5 ff ff 	mov    %rax,-0xaf8(%rbp)
   12182:	48 8d 05 6f d0 00 00 	lea    0xd06f(%rip),%rax        # 1f1f8 <g_333>
   12189:	48 89 85 60 f1 ff ff 	mov    %rax,-0xea0(%rbp)
   12190:	48 8d 85 60 f1 ff ff 	lea    -0xea0(%rbp),%rax
   12197:	48 89 85 e0 f3 ff ff 	mov    %rax,-0xc20(%rbp)
   1219e:	48 8d 85 60 f1 ff ff 	lea    -0xea0(%rbp),%rax
   121a5:	48 89 85 e8 f3 ff ff 	mov    %rax,-0xc18(%rbp)
   121ac:	48 8d 85 60 f1 ff ff 	lea    -0xea0(%rbp),%rax
   121b3:	48 89 85 f0 f3 ff ff 	mov    %rax,-0xc10(%rbp)
   121ba:	48 8d 85 60 f1 ff ff 	lea    -0xea0(%rbp),%rax
   121c1:	48 89 85 f8 f3 ff ff 	mov    %rax,-0xc08(%rbp)
   121c8:	48 8d 85 60 f1 ff ff 	lea    -0xea0(%rbp),%rax
   121cf:	48 89 85 00 f4 ff ff 	mov    %rax,-0xc00(%rbp)
   121d6:	48 8d 85 60 f1 ff ff 	lea    -0xea0(%rbp),%rax
   121dd:	48 89 85 08 f4 ff ff 	mov    %rax,-0xbf8(%rbp)
   121e4:	48 8d 85 60 f1 ff ff 	lea    -0xea0(%rbp),%rax
   121eb:	48 89 85 10 f4 ff ff 	mov    %rax,-0xbf0(%rbp)
   121f2:	48 8d 85 60 f1 ff ff 	lea    -0xea0(%rbp),%rax
   121f9:	48 89 85 18 f4 ff ff 	mov    %rax,-0xbe8(%rbp)
   12200:	48 8d 85 60 f1 ff ff 	lea    -0xea0(%rbp),%rax
   12207:	48 89 85 20 f4 ff ff 	mov    %rax,-0xbe0(%rbp)
   1220e:	c7 85 0c f1 ff ff 06 	movl   $0x6,-0xef4(%rbp)
   12215:	00 00 00 
   12218:	8b 85 68 f6 ff ff    	mov    -0x998(%rbp),%eax
   1221e:	41 89 c4             	mov    %eax,%r12d
   12221:	48 8b 05 10 1b 01 00 	mov    0x11b10(%rip),%rax        # 23d38 <g_740>
   12228:	48 8b 00             	mov    (%rax),%rax
   1222b:	48 8b 18             	mov    (%rax),%rbx
   1222e:	be 0a 00 00 00       	mov    $0xa,%esi
   12233:	bf 24 4d 00 00       	mov    $0x4d24,%edi
   12238:	e8 c9 5b ff ff       	callq  7e06 <safe_lshift_func_uint16_t_u_u>
   1223d:	8b 85 08 f1 ff ff    	mov    -0xef8(%rbp),%eax
   12243:	0c c8                	or     $0xc8,%al
   12245:	89 c0                	mov    %eax,%eax
   12247:	48 89 de             	mov    %rbx,%rsi
   1224a:	48 89 c7             	mov    %rax,%rdi
   1224d:	e8 62 57 ff ff       	callq  79b4 <safe_mod_func_int64_t_s_s>
   12252:	89 c3                	mov    %eax,%ebx
   12254:	8b 85 a4 f0 ff ff    	mov    -0xf5c(%rbp),%eax
   1225a:	0f bf d0             	movswl %ax,%edx
   1225d:	48 8b 85 60 f1 ff ff 	mov    -0xea0(%rbp),%rax
   12264:	48 89 85 a0 f3 ff ff 	mov    %rax,-0xc60(%rbp)
   1226b:	48 8b 85 a0 f3 ff ff 	mov    -0xc60(%rbp),%rax
   12272:	48 8d 0d 7f cf 00 00 	lea    0xcf7f(%rip),%rcx        # 1f1f8 <g_333>
   12279:	48 39 c8             	cmp    %rcx,%rax
   1227c:	0f 94 c0             	sete   %al
   1227f:	0f b6 c0             	movzbl %al,%eax
   12282:	89 d6                	mov    %edx,%esi
   12284:	89 c7                	mov    %eax,%edi
   12286:	e8 6a 51 ff ff       	callq  73f5 <safe_mul_func_int16_t_s_s>
   1228b:	0f be c0             	movsbl %al,%eax
   1228e:	89 de                	mov    %ebx,%esi
   12290:	89 c7                	mov    %eax,%edi
   12292:	e8 d5 50 ff ff       	callq  736c <safe_rshift_func_int8_t_s_u>
   12297:	0f be c0             	movsbl %al,%eax
   1229a:	44 89 e6             	mov    %r12d,%esi
   1229d:	89 c7                	mov    %eax,%edi
   1229f:	e8 81 5c ff ff       	callq  7f25 <safe_div_func_uint32_t_u_u>
   122a4:	0f b6 d0             	movzbl %al,%edx
   122a7:	48 8b 85 b0 f2 ff ff 	mov    -0xd50(%rbp),%rax
   122ae:	48 8b 8d 68 f1 ff ff 	mov    -0xe98(%rbp),%rcx
   122b5:	48 89 08             	mov    %rcx,(%rax)
   122b8:	48 8d 05 71 25 01 00 	lea    0x12571(%rip),%rax        # 24830 <g_246>
   122bf:	48 89 85 98 f2 ff ff 	mov    %rax,-0xd68(%rbp)
   122c6:	48 8d 05 63 25 01 00 	lea    0x12563(%rip),%rax        # 24830 <g_246>
   122cd:	48 39 85 98 f2 ff ff 	cmp    %rax,-0xd68(%rbp)
   122d4:	0f 95 c0             	setne  %al
   122d7:	0f b6 c0             	movzbl %al,%eax
   122da:	89 d6                	mov    %edx,%esi
   122dc:	89 c7                	mov    %eax,%edi
   122de:	e8 77 58 ff ff       	callq  7b5a <safe_add_func_uint8_t_u_u>
   122e3:	84 c0                	test   %al,%al
   122e5:	74 14                	je     122fb <func_24+0x1480>
   122e7:	48 8b 85 68 f1 ff ff 	mov    -0xe98(%rbp),%rax
   122ee:	8b 00                	mov    (%rax),%eax
   122f0:	85 c0                	test   %eax,%eax
   122f2:	74 07                	je     122fb <func_24+0x1480>
   122f4:	b8 01 00 00 00       	mov    $0x1,%eax
   122f9:	eb 05                	jmp    12300 <func_24+0x1485>
   122fb:	b8 00 00 00 00       	mov    $0x0,%eax
   12300:	85 c0                	test   %eax,%eax
   12302:	0f 9f c0             	setg   %al
   12305:	0f b6 c0             	movzbl %al,%eax
   12308:	8b 95 0c f1 ff ff    	mov    -0xef4(%rbp),%edx
   1230e:	89 d6                	mov    %edx,%esi
   12310:	89 c7                	mov    %eax,%edi
   12312:	e8 a7 5a ff ff       	callq  7dbe <safe_lshift_func_uint16_t_u_s>
   12317:	0f b7 d0             	movzwl %ax,%edx
   1231a:	8b 85 9c f0 ff ff    	mov    -0xf64(%rbp),%eax
   12320:	09 d0                	or     %edx,%eax
   12322:	89 85 9c f0 ff ff    	mov    %eax,-0xf64(%rbp)
   12328:	8b 05 98 d0 00 00    	mov    0xd098(%rip),%eax        # 1f3c6 <g_560+0x6>
   1232e:	be 09 00 00 00       	mov    $0x9,%esi
   12333:	89 c7                	mov    %eax,%edi
   12335:	e8 7e 5b ff ff       	callq  7eb8 <safe_add_func_uint32_t_u_u>
   1233a:	89 05 86 d0 00 00    	mov    %eax,0xd086(%rip)        # 1f3c6 <g_560+0x6>
   12340:	8b 05 80 d0 00 00    	mov    0xd080(%rip),%eax        # 1f3c6 <g_560+0x6>
   12346:	83 f8 07             	cmp    $0x7,%eax
   12349:	0f 8f 9f fc ff ff    	jg     11fee <func_24+0x1173>
   1234f:	c7 85 d0 f0 ff ff 08 	movl   $0x8,-0xf30(%rbp)
   12356:	00 00 00 
   12359:	83 bd d0 f0 ff ff 08 	cmpl   $0x8,-0xf30(%rbp)
   12360:	7e 69                	jle    123cb <func_24+0x1550>
   12362:	48 8b 05 4f 1b 01 00 	mov    0x11b4f(%rip),%rax        # 23eb8 <g_877>
   12369:	48 8b 00             	mov    (%rax),%rax
   1236c:	48 8b 95 90 f2 ff ff 	mov    -0xd70(%rbp),%rdx
   12373:	48 89 10             	mov    %rdx,(%rax)
   12376:	c6 05 f7 cf 00 00 e9 	movb   $0xe9,0xcff7(%rip)        # 1f374 <g_475>
   1237d:	eb 35                	jmp    123b4 <func_24+0x1539>
   1237f:	48 8d 05 8a d9 00 00 	lea    0xd98a(%rip),%rax        # 1fd10 <g_611>
   12386:	48 89 85 a8 f2 ff ff 	mov    %rax,-0xd58(%rbp)
   1238d:	48 8b 85 08 f2 ff ff 	mov    -0xdf8(%rbp),%rax
   12394:	48 8b 00             	mov    (%rax),%rax
   12397:	48 8b 00             	mov    (%rax),%rax
   1239a:	48 8b 00             	mov    (%rax),%rax
   1239d:	48 89 85 a8 f2 ff ff 	mov    %rax,-0xd58(%rbp)
   123a4:	0f b6 05 c9 cf 00 00 	movzbl 0xcfc9(%rip),%eax        # 1f374 <g_475>
   123ab:	83 e8 01             	sub    $0x1,%eax
   123ae:	88 05 c0 cf 00 00    	mov    %al,0xcfc0(%rip)        # 1f374 <g_475>
   123b4:	0f b6 05 b9 cf 00 00 	movzbl 0xcfb9(%rip),%eax        # 1f374 <g_475>
   123bb:	3c e8                	cmp    $0xe8,%al
   123bd:	7c c0                	jl     1237f <func_24+0x1504>
   123bf:	48 8b 85 88 f3 ff ff 	mov    -0xc78(%rbp),%rax
   123c6:	e9 82 08 00 00       	jmpq   12c4d <func_24+0x1dd2>
   123cb:	8b 05 d3 cf 00 00    	mov    0xcfd3(%rip),%eax        # 1f3a4 <g_550+0x4>
   123d1:	0f b7 c0             	movzwl %ax,%eax
   123d4:	be 06 00 00 00       	mov    $0x6,%esi
   123d9:	89 c7                	mov    %eax,%edi
   123db:	e8 1f 59 ff ff       	callq  7cff <safe_add_func_uint16_t_u_u>
   123e0:	0f b7 c0             	movzwl %ax,%eax
   123e3:	89 05 bb cf 00 00    	mov    %eax,0xcfbb(%rip)        # 1f3a4 <g_550+0x4>
   123e9:	8b 05 b5 cf 00 00    	mov    0xcfb5(%rip),%eax        # 1f3a4 <g_550+0x4>
   123ef:	83 f8 0c             	cmp    $0xc,%eax
   123f2:	0f 8f 36 f6 ff ff    	jg     11a2e <func_24+0xbb3>
   123f8:	48 8b 05 d1 15 01 00 	mov    0x115d1(%rip),%rax        # 239d0 <g_234>
   123ff:	48 8b 00             	mov    (%rax),%rax
   12402:	e9 46 08 00 00       	jmpq   12c4d <func_24+0x1dd2>
   12407:	48 8b 05 9a 15 01 00 	mov    0x1159a(%rip),%rax        # 239a8 <g_106>
   1240e:	8b 08                	mov    (%rax),%ecx
   12410:	48 8b 85 68 f1 ff ff 	mov    -0xe98(%rbp),%rax
   12417:	8b 10                	mov    (%rax),%edx
   12419:	48 8b 05 88 15 01 00 	mov    0x11588(%rip),%rax        # 239a8 <g_106>
   12420:	31 ca                	xor    %ecx,%edx
   12422:	89 10                	mov    %edx,(%rax)
   12424:	48 8d 05 85 1a 01 00 	lea    0x11a85(%rip),%rax        # 23eb0 <g_784>
   1242b:	48 39 85 18 f2 ff ff 	cmp    %rax,-0xde8(%rbp)
   12432:	0f 85 77 01 00 00    	jne    125af <func_24+0x1734>
   12438:	c6 85 81 f0 ff ff 19 	movb   $0x19,-0xf7f(%rbp)
   1243f:	c7 05 0f cc 00 00 e8 	movl   $0xffffffe8,0xcc0f(%rip)        # 1f058 <g_45>
   12446:	ff ff ff 
   12449:	eb 2d                	jmp    12478 <func_24+0x15fd>
   1244b:	c7 85 f4 f0 ff ff b4 	movl   $0xf376cdb4,-0xf0c(%rbp)
   12452:	cd 76 f3 
   12455:	83 bd f4 f0 ff ff 00 	cmpl   $0x0,-0xf0c(%rbp)
   1245c:	75 27                	jne    12485 <func_24+0x160a>
   1245e:	8b 05 f4 cb 00 00    	mov    0xcbf4(%rip),%eax        # 1f058 <g_45>
   12464:	98                   	cwtl   
   12465:	be 06 00 00 00       	mov    $0x6,%esi
   1246a:	89 c7                	mov    %eax,%edi
   1246c:	e8 42 4f ff ff       	callq  73b3 <safe_add_func_int16_t_s_s>
   12471:	98                   	cwtl   
   12472:	89 05 e0 cb 00 00    	mov    %eax,0xcbe0(%rip)        # 1f058 <g_45>
   12478:	8b 05 da cb 00 00    	mov    0xcbda(%rip),%eax        # 1f058 <g_45>
   1247e:	83 f8 12             	cmp    $0x12,%eax
   12481:	7f c8                	jg     1244b <func_24+0x15d0>
   12483:	eb 01                	jmp    12486 <func_24+0x160b>
   12485:	90                   	nop
   12486:	c7 05 c0 cb 00 00 00 	movl   $0x0,0xcbc0(%rip)        # 1f050 <g_41>
   1248d:	00 00 00 
   12490:	e9 ff 00 00 00       	jmpq   12594 <func_24+0x1719>
   12495:	c7 85 b8 f0 ff ff 03 	movl   $0x3,-0xf48(%rbp)
   1249c:	00 00 00 
   1249f:	c7 05 f3 ce 00 00 00 	movl   $0x0,0xcef3(%rip)        # 1f39c <g_535>
   124a6:	00 00 00 
   124a9:	e9 bd 00 00 00       	jmpq   1256b <func_24+0x16f0>
   124ae:	48 8d 85 64 f3 ff ff 	lea    -0xc9c(%rbp),%rax
   124b5:	48 83 c0 04          	add    $0x4,%rax
   124b9:	48 89 85 40 f2 ff ff 	mov    %rax,-0xdc0(%rbp)
   124c0:	48 8d 05 ff ce 00 00 	lea    0xceff(%rip),%rax        # 1f3c6 <g_560+0x6>
   124c7:	48 89 85 48 f2 ff ff 	mov    %rax,-0xdb8(%rbp)
   124ce:	48 8d 85 98 f0 ff ff 	lea    -0xf68(%rbp),%rax
   124d5:	48 89 85 50 f2 ff ff 	mov    %rax,-0xdb0(%rbp)
   124dc:	48 8d 05 4d d8 00 00 	lea    0xd84d(%rip),%rax        # 1fd30 <g_660>
   124e3:	48 89 85 58 f2 ff ff 	mov    %rax,-0xda8(%rbp)
   124ea:	48 8d 05 25 d8 00 00 	lea    0xd825(%rip),%rax        # 1fd16 <g_611+0x6>
   124f1:	48 89 85 60 f2 ff ff 	mov    %rax,-0xda0(%rbp)
   124f8:	48 8d 05 b5 cc 00 00 	lea    0xccb5(%rip),%rax        # 1f1b4 <g_264+0x114>
   124ff:	48 89 85 68 f2 ff ff 	mov    %rax,-0xd98(%rbp)
   12506:	48 8d 05 b9 ce 00 00 	lea    0xceb9(%rip),%rax        # 1f3c6 <g_560+0x6>
   1250d:	48 89 85 70 f2 ff ff 	mov    %rax,-0xd90(%rbp)
   12514:	48 8d 05 ab ce 00 00 	lea    0xceab(%rip),%rax        # 1f3c6 <g_560+0x6>
   1251b:	48 89 85 78 f2 ff ff 	mov    %rax,-0xd88(%rbp)
   12522:	c7 85 bc f0 ff ff 00 	movl   $0x0,-0xf44(%rbp)
   12529:	00 00 00 
   1252c:	eb 1e                	jmp    1254c <func_24+0x16d1>
   1252e:	8b 85 bc f0 ff ff    	mov    -0xf44(%rbp),%eax
   12534:	48 98                	cltq   
   12536:	48 8d 95 64 f3 ff ff 	lea    -0xc9c(%rbp),%rdx
   1253d:	48 89 94 c5 50 fc ff 	mov    %rdx,-0x3b0(%rbp,%rax,8)
   12544:	ff 
   12545:	83 85 bc f0 ff ff 01 	addl   $0x1,-0xf44(%rbp)
   1254c:	83 bd bc f0 ff ff 09 	cmpl   $0x9,-0xf44(%rbp)
   12553:	7e d9                	jle    1252e <func_24+0x16b3>
   12555:	83 ad b8 f0 ff ff 01 	subl   $0x1,-0xf48(%rbp)
   1255c:	8b 05 3a ce 00 00    	mov    0xce3a(%rip),%eax        # 1f39c <g_535>
   12562:	83 c0 01             	add    $0x1,%eax
   12565:	89 05 31 ce 00 00    	mov    %eax,0xce31(%rip)        # 1f39c <g_535>
   1256b:	8b 05 2b ce 00 00    	mov    0xce2b(%rip),%eax        # 1f39c <g_535>
   12571:	83 f8 09             	cmp    $0x9,%eax
   12574:	0f 86 34 ff ff ff    	jbe    124ae <func_24+0x1633>
   1257a:	8b 05 d0 ca 00 00    	mov    0xcad0(%rip),%eax        # 1f050 <g_41>
   12580:	98                   	cwtl   
   12581:	be 09 00 00 00       	mov    $0x9,%esi
   12586:	89 c7                	mov    %eax,%edi
   12588:	e8 46 4e ff ff       	callq  73d3 <safe_sub_func_int16_t_s_s>
   1258d:	98                   	cwtl   
   1258e:	89 05 bc ca 00 00    	mov    %eax,0xcabc(%rip)        # 1f050 <g_41>
   12594:	8b 05 b6 ca 00 00    	mov    0xcab6(%rip),%eax        # 1f050 <g_41>
   1259a:	83 f8 e6             	cmp    $0xffffffe6,%eax
   1259d:	0f 8d f2 fe ff ff    	jge    12495 <func_24+0x161a>
   125a3:	80 bd 81 f0 ff ff 00 	cmpb   $0x0,-0xf7f(%rbp)
   125aa:	e9 39 02 00 00       	jmpq   127e8 <func_24+0x196d>
   125af:	c7 85 f0 f0 ff ff e6 	movl   $0x1d3e4ae6,-0xf10(%rbp)
   125b6:	4a 3e 1d 
   125b9:	48 c7 85 60 f1 ff ff 	movq   $0x0,-0xea0(%rbp)
   125c0:	00 00 00 00 
   125c4:	c7 85 60 f1 ff ff 3a 	movl   $0x99f8bd3a,-0xea0(%rbp)
   125cb:	bd f8 99 
   125ce:	48 8d 85 84 f0 ff ff 	lea    -0xf7c(%rbp),%rax
   125d5:	48 89 85 20 f2 ff ff 	mov    %rax,-0xde0(%rbp)
   125dc:	48 8d 05 83 ca 00 00 	lea    0xca83(%rip),%rax        # 1f066 <g_99>
   125e3:	48 89 85 28 f2 ff ff 	mov    %rax,-0xdd8(%rbp)
   125ea:	48 8d 05 7f cd 00 00 	lea    0xcd7f(%rip),%rax        # 1f370 <g_446>
   125f1:	48 89 85 30 f2 ff ff 	mov    %rax,-0xdd0(%rbp)
   125f8:	c7 85 c0 f0 ff ff 00 	movl   $0x0,-0xf40(%rbp)
   125ff:	00 00 00 
   12602:	eb 1b                	jmp    1261f <func_24+0x17a4>
   12604:	8b 85 c0 f0 ff ff    	mov    -0xf40(%rbp),%eax
   1260a:	48 98                	cltq   
   1260c:	48 c7 84 c5 50 fc ff 	movq   $0x0,-0x3b0(%rbp,%rax,8)
   12613:	ff 00 00 00 00 
   12618:	83 85 c0 f0 ff ff 01 	addl   $0x1,-0xf40(%rbp)
   1261f:	83 bd c0 f0 ff ff 08 	cmpl   $0x8,-0xf40(%rbp)
   12626:	7e dc                	jle    12604 <func_24+0x1789>
   12628:	0f b7 85 a2 f8 ff ff 	movzwl -0x75e(%rbp),%eax
   1262f:	0f b6 d8             	movzbl %al,%ebx
   12632:	44 0f b7 a5 88 f0 ff 	movzwl -0xf78(%rbp),%r12d
   12639:	ff 
   1263a:	48 8b 85 68 f1 ff ff 	mov    -0xe98(%rbp),%rax
   12641:	8b 00                	mov    (%rax),%eax
   12643:	89 c2                	mov    %eax,%edx
   12645:	48 8b 85 20 f2 ff ff 	mov    -0xde0(%rbp),%rax
   1264c:	66 89 10             	mov    %dx,(%rax)
   1264f:	48 8b 85 20 f2 ff ff 	mov    -0xde0(%rbp),%rax
   12656:	0f b7 00             	movzwl (%rax),%eax
   12659:	44 0f bf e8          	movswl %ax,%r13d
   1265d:	48 8b 85 28 f2 ff ff 	mov    -0xdd8(%rbp),%rax
   12664:	0f b7 95 86 f0 ff ff 	movzwl -0xf7a(%rbp),%edx
   1266b:	66 89 10             	mov    %dx,(%rax)
   1266e:	48 8b 85 28 f2 ff ff 	mov    -0xdd8(%rbp),%rax
   12675:	0f b7 00             	movzwl (%rax),%eax
   12678:	0f b7 c0             	movzwl %ax,%eax
   1267b:	48 8b 95 68 f1 ff ff 	mov    -0xe98(%rbp),%rdx
   12682:	8b 12                	mov    (%rdx),%edx
   12684:	0f b7 d2             	movzwl %dx,%edx
   12687:	81 e2 f6 ff 00 00    	and    $0xfff6,%edx
   1268d:	89 c6                	mov    %eax,%esi
   1268f:	89 d7                	mov    %edx,%edi
   12691:	e8 89 56 ff ff       	callq  7d1f <safe_sub_func_uint16_t_u_u>
   12696:	0f b7 d0             	movzwl %ax,%edx
   12699:	8b 85 60 f1 ff ff    	mov    -0xea0(%rbp),%eax
   1269f:	39 c2                	cmp    %eax,%edx
   126a1:	0f 9f c0             	setg   %al
   126a4:	0f b6 c0             	movzbl %al,%eax
   126a7:	41 39 c5             	cmp    %eax,%r13d
   126aa:	8b 05 08 d7 00 00    	mov    0xd708(%rip),%eax        # 1fdb8 <g_1044>
   126b0:	48 8b 05 19 13 01 00 	mov    0x11319(%rip),%rax        # 239d0 <g_234>
   126b7:	48 8b 00             	mov    (%rax),%rax
   126ba:	0f b6 00             	movzbl (%rax),%eax
   126bd:	3c 4b                	cmp    $0x4b,%al
   126bf:	0f 9e c0             	setle  %al
   126c2:	88 05 a8 c9 00 00    	mov    %al,0xc9a8(%rip)        # 1f070 <g_120>
   126c8:	0f b6 05 a1 c9 00 00 	movzbl 0xc9a1(%rip),%eax        # 1f070 <g_120>
   126cf:	0f b6 c0             	movzbl %al,%eax
   126d2:	8b 95 ec f0 ff ff    	mov    -0xf14(%rbp),%edx
   126d8:	89 d6                	mov    %edx,%esi
   126da:	89 c7                	mov    %eax,%edi
   126dc:	e8 6b 55 ff ff       	callq  7c4c <safe_lshift_func_uint8_t_u_u>
   126e1:	48 8b 85 30 f2 ff ff 	mov    -0xdd0(%rbp),%rax
   126e8:	48 3b 85 80 f1 ff ff 	cmp    -0xe80(%rbp),%rax
   126ef:	0f 94 c0             	sete   %al
   126f2:	0f b6 c0             	movzbl %al,%eax
   126f5:	4c 89 e6             	mov    %r12,%rsi
   126f8:	48 89 c7             	mov    %rax,%rdi
   126fb:	e8 a8 51 ff ff       	callq  78a8 <safe_sub_func_int64_t_s_s>
   12700:	89 c2                	mov    %eax,%edx
   12702:	8b 85 f0 f0 ff ff    	mov    -0xf10(%rbp),%eax
   12708:	0f b6 c0             	movzbl %al,%eax
   1270b:	89 d6                	mov    %edx,%esi
   1270d:	89 c7                	mov    %eax,%edi
   1270f:	e8 f1 54 ff ff       	callq  7c05 <safe_lshift_func_uint8_t_u_s>
   12714:	0f b6 d0             	movzbl %al,%edx
   12717:	48 8b 85 68 f1 ff ff 	mov    -0xe98(%rbp),%rax
   1271e:	8b 00                	mov    (%rax),%eax
   12720:	39 c2                	cmp    %eax,%edx
   12722:	0f 95 c0             	setne  %al
   12725:	0f b6 d0             	movzbl %al,%edx
   12728:	0f b7 85 88 f0 ff ff 	movzwl -0xf78(%rbp),%eax
   1272f:	39 c2                	cmp    %eax,%edx
   12731:	7d 0a                	jge    1273d <func_24+0x18c2>
   12733:	0f b7 85 6c f9 ff ff 	movzwl -0x694(%rbp),%eax
   1273a:	66 85 c0             	test   %ax,%ax
   1273d:	48 8b 05 84 12 01 00 	mov    0x11284(%rip),%rax        # 239c8 <g_235>
   12744:	0f b6 00             	movzbl (%rax),%eax
   12747:	0f be d0             	movsbl %al,%edx
   1274a:	8b 85 d0 f0 ff ff    	mov    -0xf30(%rbp),%eax
   12750:	48 63 c8             	movslq %eax,%rcx
   12753:	48 8b 05 56 17 01 00 	mov    0x11756(%rip),%rax        # 23eb0 <g_784>
   1275a:	48 8b 00             	mov    (%rax),%rax
   1275d:	48 39 c1             	cmp    %rax,%rcx
   12760:	0f 95 c0             	setne  %al
   12763:	0f b6 c0             	movzbl %al,%eax
   12766:	39 c2                	cmp    %eax,%edx
   12768:	0f 94 c0             	sete   %al
   1276b:	0f b6 c0             	movzbl %al,%eax
   1276e:	89 de                	mov    %ebx,%esi
   12770:	89 c7                	mov    %eax,%edi
   12772:	e8 1c 54 ff ff       	callq  7b93 <safe_mul_func_uint8_t_u_u>
   12777:	48 8b 85 68 f1 ff ff 	mov    -0xe98(%rbp),%rax
   1277e:	8b 00                	mov    (%rax),%eax
   12780:	85 c0                	test   %eax,%eax
   12782:	74 0c                	je     12790 <func_24+0x1915>
   12784:	48 8b 85 00 f2 ff ff 	mov    -0xe00(%rbp),%rax
   1278b:	e9 bd 04 00 00       	jmpq   12c4d <func_24+0x1dd2>
   12790:	48 8d 85 28 f1 ff ff 	lea    -0xed8(%rbp),%rax
   12797:	48 89 85 38 f2 ff ff 	mov    %rax,-0xdc8(%rbp)
   1279e:	48 8b 95 28 f1 ff ff 	mov    -0xed8(%rbp),%rdx
   127a5:	48 8b 85 38 f2 ff ff 	mov    -0xdc8(%rbp),%rax
   127ac:	48 89 10             	mov    %rdx,(%rax)
   127af:	48 8b 85 38 f2 ff ff 	mov    -0xdc8(%rbp),%rax
   127b6:	48 8b 00             	mov    (%rax),%rax
   127b9:	48 8d 15 b8 c8 00 00 	lea    0xc8b8(%rip),%rdx        # 1f078 <g_225>
   127c0:	48 39 d0             	cmp    %rdx,%rax
   127c3:	0f 95 c0             	setne  %al
   127c6:	0f b6 c8             	movzbl %al,%ecx
   127c9:	48 8b 05 e8 11 01 00 	mov    0x111e8(%rip),%rax        # 239b8 <g_113>
   127d0:	48 8b 00             	mov    (%rax),%rax
   127d3:	48 8b 00             	mov    (%rax),%rax
   127d6:	8b 10                	mov    (%rax),%edx
   127d8:	21 ca                	and    %ecx,%edx
   127da:	89 10                	mov    %edx,(%rax)
   127dc:	48 8b 85 78 f3 ff ff 	mov    -0xc88(%rbp),%rax
   127e3:	e9 65 04 00 00       	jmpq   12c4d <func_24+0x1dd2>
   127e8:	0f b6 05 bd cb 00 00 	movzbl 0xcbbd(%rip),%eax        # 1f3ac <g_550+0xc>
   127ef:	83 c0 01             	add    $0x1,%eax
   127f2:	88 05 b4 cb 00 00    	mov    %al,0xcbb4(%rip)        # 1f3ac <g_550+0xc>
   127f8:	0f b6 05 ad cb 00 00 	movzbl 0xcbad(%rip),%eax        # 1f3ac <g_550+0xc>
   127ff:	3c 31                	cmp    $0x31,%al
   12801:	0f 84 b6 e9 ff ff    	je     111bd <func_24+0x342>
   12807:	c7 05 5f cb 00 00 eb 	movl   $0xffffffeb,0xcb5f(%rip)        # 1f370 <g_446>
   1280e:	ff ff ff 
   12811:	e9 cb 02 00 00       	jmpq   12ae1 <func_24+0x1c66>
   12816:	66 c7 85 8a f0 ff ff 	movw   $0xfff9,-0xf76(%rbp)
   1281d:	f9 ff 
   1281f:	48 8d 05 4a c8 00 00 	lea    0xc84a(%rip),%rax        # 1f070 <g_120>
   12826:	48 89 85 50 fc ff ff 	mov    %rax,-0x3b0(%rbp)
   1282d:	48 8d 05 3c c8 00 00 	lea    0xc83c(%rip),%rax        # 1f070 <g_120>
   12834:	48 89 85 58 fc ff ff 	mov    %rax,-0x3a8(%rbp)
   1283b:	48 8d 05 2e c8 00 00 	lea    0xc82e(%rip),%rax        # 1f070 <g_120>
   12842:	48 89 85 60 fc ff ff 	mov    %rax,-0x3a0(%rbp)
   12849:	48 8d 05 20 c8 00 00 	lea    0xc820(%rip),%rax        # 1f070 <g_120>
   12850:	48 89 85 68 fc ff ff 	mov    %rax,-0x398(%rbp)
   12857:	48 8d 05 12 c8 00 00 	lea    0xc812(%rip),%rax        # 1f070 <g_120>
   1285e:	48 89 85 70 fc ff ff 	mov    %rax,-0x390(%rbp)
   12865:	48 8d 05 04 c8 00 00 	lea    0xc804(%rip),%rax        # 1f070 <g_120>
   1286c:	48 89 85 78 fc ff ff 	mov    %rax,-0x388(%rbp)
   12873:	48 8d 05 f6 c7 00 00 	lea    0xc7f6(%rip),%rax        # 1f070 <g_120>
   1287a:	48 89 85 80 fc ff ff 	mov    %rax,-0x380(%rbp)
   12881:	48 8d 05 e8 c7 00 00 	lea    0xc7e8(%rip),%rax        # 1f070 <g_120>
   12888:	48 89 85 88 fc ff ff 	mov    %rax,-0x378(%rbp)
   1288f:	48 8d 05 da c7 00 00 	lea    0xc7da(%rip),%rax        # 1f070 <g_120>
   12896:	48 89 85 90 fc ff ff 	mov    %rax,-0x370(%rbp)
   1289d:	48 c7 85 98 fc ff ff 	movq   $0x0,-0x368(%rbp)
   128a4:	00 00 00 00 
   128a8:	48 c7 85 a0 fc ff ff 	movq   $0x0,-0x360(%rbp)
   128af:	00 00 00 00 
   128b3:	48 c7 85 a8 fc ff ff 	movq   $0x0,-0x358(%rbp)
   128ba:	00 00 00 00 
   128be:	48 c7 85 b0 fc ff ff 	movq   $0x0,-0x350(%rbp)
   128c5:	00 00 00 00 
   128c9:	48 c7 85 b8 fc ff ff 	movq   $0x0,-0x348(%rbp)
   128d0:	00 00 00 00 
   128d4:	48 c7 85 c0 fc ff ff 	movq   $0x0,-0x340(%rbp)
   128db:	00 00 00 00 
   128df:	48 c7 85 c8 fc ff ff 	movq   $0x0,-0x338(%rbp)
   128e6:	00 00 00 00 
   128ea:	48 c7 85 d0 fc ff ff 	movq   $0x0,-0x330(%rbp)
   128f1:	00 00 00 00 
   128f5:	48 c7 85 d8 fc ff ff 	movq   $0x0,-0x328(%rbp)
   128fc:	00 00 00 00 
   12900:	48 8d 05 69 c7 00 00 	lea    0xc769(%rip),%rax        # 1f070 <g_120>
   12907:	48 89 85 e0 fc ff ff 	mov    %rax,-0x320(%rbp)
   1290e:	48 8d 05 5b c7 00 00 	lea    0xc75b(%rip),%rax        # 1f070 <g_120>
   12915:	48 89 85 e8 fc ff ff 	mov    %rax,-0x318(%rbp)
   1291c:	48 8d 05 4d c7 00 00 	lea    0xc74d(%rip),%rax        # 1f070 <g_120>
   12923:	48 89 85 f0 fc ff ff 	mov    %rax,-0x310(%rbp)
   1292a:	48 8d 05 3f c7 00 00 	lea    0xc73f(%rip),%rax        # 1f070 <g_120>
   12931:	48 89 85 f8 fc ff ff 	mov    %rax,-0x308(%rbp)
   12938:	48 8d 05 31 c7 00 00 	lea    0xc731(%rip),%rax        # 1f070 <g_120>
   1293f:	48 89 85 00 fd ff ff 	mov    %rax,-0x300(%rbp)
   12946:	48 8d 05 23 c7 00 00 	lea    0xc723(%rip),%rax        # 1f070 <g_120>
   1294d:	48 89 85 08 fd ff ff 	mov    %rax,-0x2f8(%rbp)
   12954:	48 8d 05 15 c7 00 00 	lea    0xc715(%rip),%rax        # 1f070 <g_120>
   1295b:	48 89 85 10 fd ff ff 	mov    %rax,-0x2f0(%rbp)
   12962:	48 8d 05 07 c7 00 00 	lea    0xc707(%rip),%rax        # 1f070 <g_120>
   12969:	48 89 85 18 fd ff ff 	mov    %rax,-0x2e8(%rbp)
   12970:	48 8d 05 f9 c6 00 00 	lea    0xc6f9(%rip),%rax        # 1f070 <g_120>
   12977:	48 89 85 20 fd ff ff 	mov    %rax,-0x2e0(%rbp)
   1297e:	c7 85 60 f1 ff ff 07 	movl   $0x7,-0xea0(%rbp)
   12985:	00 00 00 
   12988:	48 c7 85 e8 f1 ff ff 	movq   $0x0,-0xe18(%rbp)
   1298f:	00 00 00 00 
   12993:	48 8d 05 36 10 01 00 	lea    0x11036(%rip),%rax        # 239d0 <g_234>
   1299a:	48 89 85 f0 f1 ff ff 	mov    %rax,-0xe10(%rbp)
   129a1:	c6 85 80 f0 ff ff f9 	movb   $0xf9,-0xf80(%rbp)
   129a8:	c7 85 e8 f0 ff ff 37 	movl   $0x7370537,-0xf18(%rbp)
   129af:	05 37 07 
   129b2:	8b 85 60 f1 ff ff    	mov    -0xea0(%rbp),%eax
   129b8:	0f b6 d8             	movzbl %al,%ebx
   129bb:	0f bf 95 8a f0 ff ff 	movswl -0xf76(%rbp),%edx
   129c2:	0f bf 85 8a f0 ff ff 	movswl -0xf76(%rbp),%eax
   129c9:	89 d6                	mov    %edx,%esi
   129cb:	89 c7                	mov    %eax,%edi
   129cd:	e8 e1 49 ff ff       	callq  73b3 <safe_add_func_int16_t_s_s>
   129d2:	41 89 c6             	mov    %eax,%r14d
   129d5:	44 0f b6 a5 80 f0 ff 	movzbl -0xf80(%rbp),%r12d
   129dc:	ff 
   129dd:	8b 85 90 f0 ff ff    	mov    -0xf70(%rbp),%eax
   129e3:	44 0f bf e8          	movswl %ax,%r13d
   129e7:	48 83 bd 88 f1 ff ff 	cmpq   $0x0,-0xe78(%rbp)
   129ee:	00 
   129ef:	0f 94 c0             	sete   %al
   129f2:	0f b6 c0             	movzbl %al,%eax
   129f5:	be 06 00 00 00       	mov    $0x6,%esi
   129fa:	89 c7                	mov    %eax,%edi
   129fc:	e8 a0 48 ff ff       	callq  72a1 <safe_lshift_func_int8_t_s_s>
   12a01:	48 8b 85 f0 f1 ff ff 	mov    -0xe10(%rbp),%rax
   12a08:	48 8d 95 68 f0 ff ff 	lea    -0xf98(%rbp),%rdx
   12a0f:	48 89 10             	mov    %rdx,(%rax)
   12a12:	48 8b 85 f0 f1 ff ff 	mov    -0xe10(%rbp),%rax
   12a19:	48 8b 10             	mov    (%rax),%rdx
   12a1c:	48 8d 85 68 f0 ff ff 	lea    -0xf98(%rbp),%rax
   12a23:	48 39 c2             	cmp    %rax,%rdx
   12a26:	0f 95 c0             	setne  %al
   12a29:	0f b6 c0             	movzbl %al,%eax
   12a2c:	66 89 05 33 c6 00 00 	mov    %ax,0xc633(%rip)        # 1f066 <g_99>
   12a33:	0f b7 05 2c c6 00 00 	movzwl 0xc62c(%rip),%eax        # 1f066 <g_99>
   12a3a:	98                   	cwtl   
   12a3b:	39 85 d4 f0 ff ff    	cmp    %eax,-0xf2c(%rbp)
   12a41:	0f 96 c0             	setbe  %al
   12a44:	0f b6 d0             	movzbl %al,%edx
   12a47:	0f bf 85 8a f0 ff ff 	movswl -0xf76(%rbp),%eax
   12a4e:	39 c2                	cmp    %eax,%edx
   12a50:	0f 9c c0             	setl   %al
   12a53:	0f b6 c0             	movzbl %al,%eax
   12a56:	8b 95 d0 f0 ff ff    	mov    -0xf30(%rbp),%edx
   12a5c:	89 d6                	mov    %edx,%esi
   12a5e:	89 c7                	mov    %eax,%edi
   12a60:	e8 a0 51 ff ff       	callq  7c05 <safe_lshift_func_uint8_t_u_s>
   12a65:	0f b6 05 40 c9 00 00 	movzbl 0xc940(%rip),%eax        # 1f3ac <g_550+0xc>
   12a6c:	0f b7 95 d8 f8 ff ff 	movzwl -0x728(%rbp),%edx
   12a73:	09 d0                	or     %edx,%eax
   12a75:	88 05 31 c9 00 00    	mov    %al,0xc931(%rip)        # 1f3ac <g_550+0xc>
   12a7b:	0f b6 05 2a c9 00 00 	movzbl 0xc92a(%rip),%eax        # 1f3ac <g_550+0xc>
   12a82:	84 c0                	test   %al,%al
   12a84:	0f 95 c0             	setne  %al
   12a87:	0f b6 d0             	movzbl %al,%edx
   12a8a:	48 8b 05 1f 14 01 00 	mov    0x1141f(%rip),%rax        # 23eb0 <g_784>
   12a91:	48 8b 00             	mov    (%rax),%rax
   12a94:	09 d0                	or     %edx,%eax
   12a96:	98                   	cwtl   
   12a97:	44 89 ee             	mov    %r13d,%esi
   12a9a:	89 c7                	mov    %eax,%edi
   12a9c:	e8 12 49 ff ff       	callq  73b3 <safe_add_func_int16_t_s_s>
   12aa1:	0f b6 c0             	movzbl %al,%eax
   12aa4:	44 89 e6             	mov    %r12d,%esi
   12aa7:	89 c7                	mov    %eax,%edi
   12aa9:	e8 00 51 ff ff       	callq  7bae <safe_mod_func_uint8_t_u_u>
   12aae:	44 31 f0             	xor    %r14d,%eax
   12ab1:	0f b6 c0             	movzbl %al,%eax
   12ab4:	89 de                	mov    %ebx,%esi
   12ab6:	89 c7                	mov    %eax,%edi
   12ab8:	e8 f1 50 ff ff       	callq  7bae <safe_mod_func_uint8_t_u_u>
   12abd:	0f b6 c0             	movzbl %al,%eax
   12ac0:	be 08 00 00 00       	mov    $0x8,%esi
   12ac5:	89 c7                	mov    %eax,%edi
   12ac7:	e8 00 4c ff ff       	callq  76cc <safe_mod_func_int32_t_s_s>
   12acc:	89 85 e8 f0 ff ff    	mov    %eax,-0xf18(%rbp)
   12ad2:	8b 05 98 c8 00 00    	mov    0xc898(%rip),%eax        # 1f370 <g_446>
   12ad8:	83 c0 01             	add    $0x1,%eax
   12adb:	89 05 8f c8 00 00    	mov    %eax,0xc88f(%rip)        # 1f370 <g_446>
   12ae1:	8b 05 89 c8 00 00    	mov    0xc889(%rip),%eax        # 1f370 <g_446>
   12ae7:	83 f8 04             	cmp    $0x4,%eax
   12aea:	0f 84 26 fd ff ff    	je     12816 <func_24+0x199b>
   12af0:	48 8b 05 c1 0e 01 00 	mov    0x10ec1(%rip),%rax        # 239b8 <g_113>
   12af7:	48 8b 00             	mov    (%rax),%rax
   12afa:	48 8d 95 90 f0 ff ff 	lea    -0xf70(%rbp),%rdx
   12b01:	48 89 10             	mov    %rdx,(%rax)
   12b04:	c7 05 4a c5 00 00 07 	movl   $0x7,0xc54a(%rip)        # 1f058 <g_45>
   12b0b:	00 00 00 
   12b0e:	e9 24 01 00 00       	jmpq   12c37 <func_24+0x1dbc>
   12b13:	48 c7 85 a8 f1 ff ff 	movq   $0x0,-0xe58(%rbp)
   12b1a:	00 00 00 00 
   12b1e:	48 8d 05 8b 13 01 00 	lea    0x1138b(%rip),%rax        # 23eb0 <g_784>
   12b25:	48 89 85 60 f1 ff ff 	mov    %rax,-0xea0(%rbp)
   12b2c:	48 8d 85 60 f1 ff ff 	lea    -0xea0(%rbp),%rax
   12b33:	48 89 85 b0 f1 ff ff 	mov    %rax,-0xe50(%rbp)
   12b3a:	48 c7 85 b8 f1 ff ff 	movq   $0x0,-0xe48(%rbp)
   12b41:	00 00 00 00 
   12b45:	48 8d 05 7a c8 00 00 	lea    0xc87a(%rip),%rax        # 1f3c6 <g_560+0x6>
   12b4c:	48 89 85 c0 f1 ff ff 	mov    %rax,-0xe40(%rbp)
   12b53:	48 c7 85 c8 f1 ff ff 	movq   $0x0,-0xe38(%rbp)
   12b5a:	00 00 00 00 
   12b5e:	48 8d 85 00 f6 ff ff 	lea    -0xa00(%rbp),%rax
   12b65:	48 89 85 d0 f1 ff ff 	mov    %rax,-0xe30(%rbp)
   12b6c:	48 8d 05 01 c8 00 00 	lea    0xc801(%rip),%rax        # 1f374 <g_475>
   12b73:	48 89 85 d8 f1 ff ff 	mov    %rax,-0xe28(%rbp)
   12b7a:	0f b7 85 58 f1 ff ff 	movzwl -0xea8(%rbp),%eax
   12b81:	66 25 00 f0          	and    $0xf000,%ax
   12b85:	83 c8 37             	or     $0x37,%eax
   12b88:	66 89 85 58 f1 ff ff 	mov    %ax,-0xea8(%rbp)
   12b8f:	c7 85 dc f0 ff ff 00 	movl   $0x0,-0xf24(%rbp)
   12b96:	00 00 00 
   12b99:	c7 85 e0 f0 ff ff 00 	movl   $0x0,-0xf20(%rbp)
   12ba0:	00 00 00 
   12ba3:	48 8d 85 82 f0 ff ff 	lea    -0xf7e(%rbp),%rax
   12baa:	48 89 85 e0 f1 ff ff 	mov    %rax,-0xe20(%rbp)
   12bb1:	c6 85 7f f0 ff ff a8 	movb   $0xa8,-0xf81(%rbp)
   12bb8:	c7 85 e4 f0 ff ff f3 	movl   $0x7ad3d9f3,-0xf1c(%rbp)
   12bbf:	d9 d3 7a 
   12bc2:	c7 85 c4 f0 ff ff 00 	movl   $0x0,-0xf3c(%rbp)
   12bc9:	00 00 00 
   12bcc:	eb 1e                	jmp    12bec <func_24+0x1d71>
   12bce:	8b 85 c4 f0 ff ff    	mov    -0xf3c(%rbp),%eax
   12bd4:	48 98                	cltq   
   12bd6:	48 8d 15 1b c6 00 00 	lea    0xc61b(%rip),%rdx        # 1f1f8 <g_333>
   12bdd:	48 89 94 c5 00 f6 ff 	mov    %rdx,-0xa00(%rbp,%rax,8)
   12be4:	ff 
   12be5:	83 85 c4 f0 ff ff 01 	addl   $0x1,-0xf3c(%rbp)
   12bec:	83 bd c4 f0 ff ff 04 	cmpl   $0x4,-0xf3c(%rbp)
   12bf3:	7e d9                	jle    12bce <func_24+0x1d53>
   12bf5:	c7 85 c4 f0 ff ff 00 	movl   $0x0,-0xf3c(%rbp)
   12bfc:	00 00 00 
   12bff:	eb 1e                	jmp    12c1f <func_24+0x1da4>
   12c01:	8b 85 c4 f0 ff ff    	mov    -0xf3c(%rbp),%eax
   12c07:	48 98                	cltq   
   12c09:	48 8d 15 80 c7 00 00 	lea    0xc780(%rip),%rdx        # 1f390 <g_481>
   12c10:	48 89 94 c5 50 fc ff 	mov    %rdx,-0x3b0(%rbp,%rax,8)
   12c17:	ff 
   12c18:	83 85 c4 f0 ff ff 01 	addl   $0x1,-0xf3c(%rbp)
   12c1f:	83 bd c4 f0 ff ff 08 	cmpl   $0x8,-0xf3c(%rbp)
   12c26:	7e d9                	jle    12c01 <func_24+0x1d86>
   12c28:	8b 05 2a c4 00 00    	mov    0xc42a(%rip),%eax        # 1f058 <g_45>
   12c2e:	83 e8 01             	sub    $0x1,%eax
   12c31:	89 05 21 c4 00 00    	mov    %eax,0xc421(%rip)        # 1f058 <g_45>
   12c37:	8b 05 1b c4 00 00    	mov    0xc41b(%rip),%eax        # 1f058 <g_45>
   12c3d:	83 f8 06             	cmp    $0x6,%eax
   12c40:	0f 84 cd fe ff ff    	je     12b13 <func_24+0x1c98>
   12c46:	48 8b 85 78 f3 ff ff 	mov    -0xc88(%rbp),%rax
   12c4d:	48 8b 5d d8          	mov    -0x28(%rbp),%rbx
   12c51:	64 48 33 1c 25 28 00 	xor    %fs:0x28,%rbx
   12c58:	00 00 
   12c5a:	74 05                	je     12c61 <func_24+0x1de6>
   12c5c:	e8 0f 44 ff ff       	callq  7070 <__stack_chk_fail@plt>
   12c61:	48 81 c4 80 0f 00 00 	add    $0xf80,%rsp
   12c68:	5b                   	pop    %rbx
   12c69:	41 5c                	pop    %r12
   12c6b:	41 5d                	pop    %r13
   12c6d:	41 5e                	pop    %r14
   12c6f:	5d                   	pop    %rbp
   12c70:	c3                   	retq   

0000000000012c71 <func_26>:
   12c71:	f3 0f 1e fa          	endbr64 
   12c75:	55                   	push   %rbp
   12c76:	48 89 e5             	mov    %rsp,%rbp
   12c79:	41 54                	push   %r12
   12c7b:	53                   	push   %rbx
   12c7c:	48 81 ec f0 04 00 00 	sub    $0x4f0,%rsp
   12c83:	48 89 bd 18 fb ff ff 	mov    %rdi,-0x4e8(%rbp)
   12c8a:	89 b5 14 fb ff ff    	mov    %esi,-0x4ec(%rbp)
   12c90:	48 89 95 08 fb ff ff 	mov    %rdx,-0x4f8(%rbp)
   12c97:	89 8d 10 fb ff ff    	mov    %ecx,-0x4f0(%rbp)
   12c9d:	4c 89 85 00 fb ff ff 	mov    %r8,-0x500(%rbp)
   12ca4:	64 48 8b 04 25 28 00 	mov    %fs:0x28,%rax
   12cab:	00 00 
   12cad:	48 89 45 e8          	mov    %rax,-0x18(%rbp)
   12cb1:	31 c0                	xor    %eax,%eax
   12cb3:	c7 85 30 fb ff ff 86 	movl   $0x6a541686,-0x4d0(%rbp)
   12cba:	16 54 6a 
   12cbd:	48 8d 85 e0 fc ff ff 	lea    -0x320(%rbp),%rax
   12cc4:	48 8d 15 35 fc 00 00 	lea    0xfc35(%rip),%rdx        # 22900 <g_2024+0x6a0>
   12ccb:	b9 30 00 00 00       	mov    $0x30,%ecx
   12cd0:	48 89 c7             	mov    %rax,%rdi
   12cd3:	48 89 d6             	mov    %rdx,%rsi
   12cd6:	f3 48 a5             	rep movsq %ds:(%rsi),%es:(%rdi)
   12cd9:	c7 85 34 fb ff ff fd 	movl   $0xfffffffd,-0x4cc(%rbp)
   12ce0:	ff ff ff 
   12ce3:	48 8d 85 60 fe ff ff 	lea    -0x1a0(%rbp),%rax
   12cea:	48 8d 15 8f 81 00 00 	lea    0x818f(%rip),%rdx        # 1ae80 <g_1821+0xdb0>
   12cf1:	b9 30 00 00 00       	mov    $0x30,%ecx
   12cf6:	48 89 c7             	mov    %rax,%rdi
   12cf9:	48 89 d6             	mov    %rdx,%rsi
   12cfc:	f3 48 a5             	rep movsq %ds:(%rsi),%es:(%rdi)
   12cff:	c6 85 2f fb ff ff fa 	movb   $0xfa,-0x4d1(%rbp)
   12d06:	c7 05 c6 c4 00 00 00 	movl   $0x0,0xc4c6(%rip)        # 1f1d6 <g_277+0x6>
   12d0d:	00 00 00 
   12d10:	e9 18 05 00 00       	jmpq   1322d <func_26+0x5bc>
   12d15:	48 c7 85 48 fb ff ff 	movq   $0x0,-0x4b8(%rbp)
   12d1c:	00 00 00 00 
   12d20:	c7 85 48 fb ff ff fc 	movl   $0xfffffffc,-0x4b8(%rbp)
   12d27:	ff ff ff 
   12d2a:	48 8d 05 23 d0 00 00 	lea    0xd023(%rip),%rax        # 1fd54 <g_777>
   12d31:	48 89 85 58 fb ff ff 	mov    %rax,-0x4a8(%rbp)
   12d38:	c7 85 44 fb ff ff 00 	movl   $0x0,-0x4bc(%rbp)
   12d3f:	00 00 00 
   12d42:	48 8d 05 27 c3 00 00 	lea    0xc327(%rip),%rax        # 1f070 <g_120>
   12d49:	48 89 85 60 fb ff ff 	mov    %rax,-0x4a0(%rbp)
   12d50:	48 8d 05 01 d0 00 00 	lea    0xd001(%rip),%rax        # 1fd58 <g_791>
   12d57:	48 89 85 68 fb ff ff 	mov    %rax,-0x498(%rbp)
   12d5e:	48 8d 05 f3 c2 00 00 	lea    0xc2f3(%rip),%rax        # 1f058 <g_45>
   12d65:	48 89 85 70 fb ff ff 	mov    %rax,-0x490(%rbp)
   12d6c:	48 8d 05 e5 c2 00 00 	lea    0xc2e5(%rip),%rax        # 1f058 <g_45>
   12d73:	48 89 85 78 fb ff ff 	mov    %rax,-0x488(%rbp)
   12d7a:	48 8d 05 d5 c5 00 00 	lea    0xc5d5(%rip),%rax        # 1f356 <g_439+0x6>
   12d81:	48 89 85 80 fb ff ff 	mov    %rax,-0x480(%rbp)
   12d88:	48 8d 05 c1 c2 00 00 	lea    0xc2c1(%rip),%rax        # 1f050 <g_41>
   12d8f:	48 89 85 88 fb ff ff 	mov    %rax,-0x478(%rbp)
   12d96:	48 c7 85 90 fb ff ff 	movq   $0x0,-0x470(%rbp)
   12d9d:	00 00 00 00 
   12da1:	48 8d 85 30 fb ff ff 	lea    -0x4d0(%rbp),%rax
   12da8:	48 89 85 98 fb ff ff 	mov    %rax,-0x468(%rbp)
   12daf:	48 8d 05 a6 c2 00 00 	lea    0xc2a6(%rip),%rax        # 1f05c <g_49>
   12db6:	48 89 85 a0 fb ff ff 	mov    %rax,-0x460(%rbp)
   12dbd:	48 c7 85 a8 fb ff ff 	movq   $0x0,-0x458(%rbp)
   12dc4:	00 00 00 00 
   12dc8:	48 8d 05 87 c5 00 00 	lea    0xc587(%rip),%rax        # 1f356 <g_439+0x6>
   12dcf:	48 89 85 b0 fb ff ff 	mov    %rax,-0x450(%rbp)
   12dd6:	48 8d 05 39 cf 00 00 	lea    0xcf39(%rip),%rax        # 1fd16 <g_611+0x6>
   12ddd:	48 89 85 b8 fb ff ff 	mov    %rax,-0x448(%rbp)
   12de4:	48 8d 85 30 fb ff ff 	lea    -0x4d0(%rbp),%rax
   12deb:	48 89 85 30 fc ff ff 	mov    %rax,-0x3d0(%rbp)
   12df2:	48 8d 85 34 fb ff ff 	lea    -0x4cc(%rbp),%rax
   12df9:	48 89 85 38 fc ff ff 	mov    %rax,-0x3c8(%rbp)
   12e00:	48 8d 85 30 fb ff ff 	lea    -0x4d0(%rbp),%rax
   12e07:	48 89 85 40 fc ff ff 	mov    %rax,-0x3c0(%rbp)
   12e0e:	48 8d 85 30 fb ff ff 	lea    -0x4d0(%rbp),%rax
   12e15:	48 89 85 48 fc ff ff 	mov    %rax,-0x3b8(%rbp)
   12e1c:	48 8d 85 34 fb ff ff 	lea    -0x4cc(%rbp),%rax
   12e23:	48 89 85 50 fc ff ff 	mov    %rax,-0x3b0(%rbp)
   12e2a:	48 8d 85 30 fb ff ff 	lea    -0x4d0(%rbp),%rax
   12e31:	48 89 85 58 fc ff ff 	mov    %rax,-0x3a8(%rbp)
   12e38:	48 8d 85 30 fb ff ff 	lea    -0x4d0(%rbp),%rax
   12e3f:	48 89 85 60 fc ff ff 	mov    %rax,-0x3a0(%rbp)
   12e46:	48 8d 85 34 fb ff ff 	lea    -0x4cc(%rbp),%rax
   12e4d:	48 89 85 68 fc ff ff 	mov    %rax,-0x398(%rbp)
   12e54:	48 8d 85 30 fb ff ff 	lea    -0x4d0(%rbp),%rax
   12e5b:	48 89 85 70 fc ff ff 	mov    %rax,-0x390(%rbp)
   12e62:	48 8d 85 30 fb ff ff 	lea    -0x4d0(%rbp),%rax
   12e69:	48 89 85 78 fc ff ff 	mov    %rax,-0x388(%rbp)
   12e70:	48 8d 05 e9 71 00 00 	lea    0x71e9(%rip),%rax        # 1a060 <g_812>
   12e77:	48 89 85 50 fb ff ff 	mov    %rax,-0x4b0(%rbp)
   12e7e:	48 8d 05 db 71 00 00 	lea    0x71db(%rip),%rax        # 1a060 <g_812>
   12e85:	48 89 85 c0 fb ff ff 	mov    %rax,-0x440(%rbp)
   12e8c:	48 8d 85 50 fb ff ff 	lea    -0x4b0(%rbp),%rax
   12e93:	48 89 85 d0 fb ff ff 	mov    %rax,-0x430(%rbp)
   12e9a:	48 8d 85 50 fb ff ff 	lea    -0x4b0(%rbp),%rax
   12ea1:	48 89 85 d8 fb ff ff 	mov    %rax,-0x428(%rbp)
   12ea8:	48 8d 85 50 fb ff ff 	lea    -0x4b0(%rbp),%rax
   12eaf:	48 89 85 e0 fb ff ff 	mov    %rax,-0x420(%rbp)
   12eb6:	48 8d 85 50 fb ff ff 	lea    -0x4b0(%rbp),%rax
   12ebd:	48 89 85 e8 fb ff ff 	mov    %rax,-0x418(%rbp)
   12ec4:	48 8d 85 50 fb ff ff 	lea    -0x4b0(%rbp),%rax
   12ecb:	48 89 85 f0 fb ff ff 	mov    %rax,-0x410(%rbp)
   12ed2:	48 8d 85 d0 fb ff ff 	lea    -0x430(%rbp),%rax
   12ed9:	48 83 c0 20          	add    $0x20,%rax
   12edd:	48 89 85 00 fc ff ff 	mov    %rax,-0x400(%rbp)
   12ee4:	48 8d 85 d0 fb ff ff 	lea    -0x430(%rbp),%rax
   12eeb:	48 83 c0 20          	add    $0x20,%rax
   12eef:	48 89 85 08 fc ff ff 	mov    %rax,-0x3f8(%rbp)
   12ef6:	48 8d 85 d0 fb ff ff 	lea    -0x430(%rbp),%rax
   12efd:	48 83 c0 20          	add    $0x20,%rax
   12f01:	48 89 85 10 fc ff ff 	mov    %rax,-0x3f0(%rbp)
   12f08:	48 8d 85 d0 fb ff ff 	lea    -0x430(%rbp),%rax
   12f0f:	48 83 c0 20          	add    $0x20,%rax
   12f13:	48 89 85 18 fc ff ff 	mov    %rax,-0x3e8(%rbp)
   12f1a:	48 8d 85 d0 fb ff ff 	lea    -0x430(%rbp),%rax
   12f21:	48 83 c0 20          	add    $0x20,%rax
   12f25:	48 89 85 20 fc ff ff 	mov    %rax,-0x3e0(%rbp)
   12f2c:	48 8d 85 d0 fb ff ff 	lea    -0x430(%rbp),%rax
   12f33:	48 83 c0 20          	add    $0x20,%rax
   12f37:	48 89 85 28 fc ff ff 	mov    %rax,-0x3d8(%rbp)
   12f3e:	48 8d 85 00 fc ff ff 	lea    -0x400(%rbp),%rax
   12f45:	48 83 c0 28          	add    $0x28,%rax
   12f49:	48 89 85 c8 fb ff ff 	mov    %rax,-0x438(%rbp)
   12f50:	c7 85 38 fb ff ff 00 	movl   $0x0,-0x4c8(%rbp)
   12f57:	00 00 00 
   12f5a:	eb 78                	jmp    12fd4 <func_26+0x363>
   12f5c:	c7 85 3c fb ff ff 00 	movl   $0x0,-0x4c4(%rbp)
   12f63:	00 00 00 
   12f66:	eb 5c                	jmp    12fc4 <func_26+0x353>
   12f68:	c7 85 40 fb ff ff 00 	movl   $0x0,-0x4c0(%rbp)
   12f6f:	00 00 00 
   12f72:	eb 40                	jmp    12fb4 <func_26+0x343>
   12f74:	8b 85 40 fb ff ff    	mov    -0x4c0(%rbp),%eax
   12f7a:	48 63 c8             	movslq %eax,%rcx
   12f7d:	8b 85 38 fb ff ff    	mov    -0x4c8(%rbp),%eax
   12f83:	48 63 d0             	movslq %eax,%rdx
   12f86:	8b 85 3c fb ff ff    	mov    -0x4c4(%rbp),%eax
   12f8c:	48 63 f0             	movslq %eax,%rsi
   12f8f:	48 89 d0             	mov    %rdx,%rax
   12f92:	48 01 c0             	add    %rax,%rax
   12f95:	48 01 d0             	add    %rdx,%rax
   12f98:	48 01 f0             	add    %rsi,%rax
   12f9b:	48 01 c0             	add    %rax,%rax
   12f9e:	48 01 c8             	add    %rcx,%rax
   12fa1:	48 c7 84 c5 80 fc ff 	movq   $0x0,-0x380(%rbp,%rax,8)
   12fa8:	ff 00 00 00 00 
   12fad:	83 85 40 fb ff ff 01 	addl   $0x1,-0x4c0(%rbp)
   12fb4:	83 bd 40 fb ff ff 01 	cmpl   $0x1,-0x4c0(%rbp)
   12fbb:	7e b7                	jle    12f74 <func_26+0x303>
   12fbd:	83 85 3c fb ff ff 01 	addl   $0x1,-0x4c4(%rbp)
   12fc4:	83 bd 3c fb ff ff 02 	cmpl   $0x2,-0x4c4(%rbp)
   12fcb:	7e 9b                	jle    12f68 <func_26+0x2f7>
   12fcd:	83 85 38 fb ff ff 01 	addl   $0x1,-0x4c8(%rbp)
   12fd4:	83 bd 38 fb ff ff 01 	cmpl   $0x1,-0x4c8(%rbp)
   12fdb:	0f 8e 7b ff ff ff    	jle    12f5c <func_26+0x2eb>
   12fe1:	48 8b 85 58 fb ff ff 	mov    -0x4a8(%rbp),%rax
   12fe8:	8b 10                	mov    (%rax),%edx
   12fea:	8b 85 10 fb ff ff    	mov    -0x4f0(%rbp),%eax
   12ff0:	31 c2                	xor    %eax,%edx
   12ff2:	48 8b 85 58 fb ff ff 	mov    -0x4a8(%rbp),%rax
   12ff9:	89 10                	mov    %edx,(%rax)
   12ffb:	8b 85 44 fb ff ff    	mov    -0x4bc(%rbp),%eax
   13001:	48 63 d8             	movslq %eax,%rbx
   13004:	8b 85 48 fb ff ff    	mov    -0x4b8(%rbp),%eax
   1300a:	48 63 d0             	movslq %eax,%rdx
   1300d:	48 8b 85 00 fb ff ff 	mov    -0x500(%rbp),%rax
   13014:	48 83 f8 01          	cmp    $0x1,%rax
   13018:	0f 94 c0             	sete   %al
   1301b:	0f b6 c0             	movzbl %al,%eax
   1301e:	48 89 d6             	mov    %rdx,%rsi
   13021:	48 89 c7             	mov    %rax,%rdi
   13024:	e8 7f 48 ff ff       	callq  78a8 <safe_sub_func_int64_t_s_s>
   13029:	48 c7 c6 f9 ff ff ff 	mov    $0xfffffffffffffff9,%rsi
   13030:	48 89 c7             	mov    %rax,%rdi
   13033:	e8 7c 49 ff ff       	callq  79b4 <safe_mod_func_int64_t_s_s>
   13038:	48 39 c3             	cmp    %rax,%rbx
   1303b:	0f 9f c0             	setg   %al
   1303e:	0f b6 d0             	movzbl %al,%edx
   13041:	48 8b 05 78 09 01 00 	mov    0x10978(%rip),%rax        # 239c0 <g_112>
   13048:	48 8b 00             	mov    (%rax),%rax
   1304b:	48 8b 08             	mov    (%rax),%rcx
   1304e:	48 8b 05 63 09 01 00 	mov    0x10963(%rip),%rax        # 239b8 <g_113>
   13055:	48 8b 00             	mov    (%rax),%rax
   13058:	48 8b 09             	mov    (%rcx),%rcx
   1305b:	48 89 08             	mov    %rcx,(%rax)
   1305e:	48 8b 00             	mov    (%rax),%rax
   13061:	8b 0d 6f c1 00 00    	mov    0xc16f(%rip),%ecx        # 1f1d6 <g_277+0x6>
   13067:	48 63 c9             	movslq %ecx,%rcx
   1306a:	48 8d 34 8d 00 00 00 	lea    0x0(,%rcx,4),%rsi
   13071:	00 
   13072:	48 8d 0d db bf 00 00 	lea    0xbfdb(%rip),%rcx        # 1f054 <g_44>
   13079:	48 01 f1             	add    %rsi,%rcx
   1307c:	48 39 c8             	cmp    %rcx,%rax
   1307f:	0f 95 c0             	setne  %al
   13082:	0f b6 c0             	movzbl %al,%eax
   13085:	89 d6                	mov    %edx,%esi
   13087:	89 c7                	mov    %eax,%edi
   13089:	e8 ea 4a ff ff       	callq  7b78 <safe_sub_func_uint8_t_u_u>
   1308e:	8b 85 10 fb ff ff    	mov    -0x4f0(%rbp),%eax
   13094:	8b 95 30 fb ff ff    	mov    -0x4d0(%rbp),%edx
   1309a:	39 d0                	cmp    %edx,%eax
   1309c:	0f 97 c0             	seta   %al
   1309f:	0f b6 c0             	movzbl %al,%eax
   130a2:	be 04 00 00 00       	mov    $0x4,%esi
   130a7:	89 c7                	mov    %eax,%edi
   130a9:	e8 33 44 ff ff       	callq  74e1 <safe_lshift_func_int16_t_s_u>
   130ae:	66 85 c0             	test   %ax,%ax
   130b1:	0f 9f c0             	setg   %al
   130b4:	8b 15 1c c1 00 00    	mov    0xc11c(%rip),%edx        # 1f1d6 <g_277+0x6>
   130ba:	0f b6 c0             	movzbl %al,%eax
   130bd:	48 63 d2             	movslq %edx,%rdx
   130c0:	48 8d 0c 95 00 00 00 	lea    0x0(,%rdx,4),%rcx
   130c7:	00 
   130c8:	48 8d 15 85 bf 00 00 	lea    0xbf85(%rip),%rdx        # 1f054 <g_44>
   130cf:	89 04 11             	mov    %eax,(%rcx,%rdx,1)
   130d2:	48 8b 85 00 fb ff ff 	mov    -0x500(%rbp),%rax
   130d9:	0f b7 c0             	movzwl %ax,%eax
   130dc:	be 06 00 00 00       	mov    $0x6,%esi
   130e1:	89 c7                	mov    %eax,%edi
   130e3:	e8 d6 4c ff ff       	callq  7dbe <safe_lshift_func_uint16_t_u_s>
   130e8:	48 8b 05 c1 0d 01 00 	mov    0x10dc1(%rip),%rax        # 23eb0 <g_784>
   130ef:	48 89 85 b8 fd ff ff 	mov    %rax,-0x248(%rbp)
   130f6:	48 8b 95 b8 fd ff ff 	mov    -0x248(%rbp),%rdx
   130fd:	48 8b 05 2c 0c 01 00 	mov    0x10c2c(%rip),%rax        # 23d30 <g_741>
   13104:	48 39 c2             	cmp    %rax,%rdx
   13107:	0f 94 c0             	sete   %al
   1310a:	0f b6 d0             	movzbl %al,%edx
   1310d:	48 83 bd 60 fb ff ff 	cmpq   $0x0,-0x4a0(%rbp)
   13114:	00 
   13115:	0f 95 c0             	setne  %al
   13118:	0f b6 c0             	movzbl %al,%eax
   1311b:	39 c2                	cmp    %eax,%edx
   1311d:	0f 9c c2             	setl   %dl
   13120:	48 83 bd 68 fb ff ff 	cmpq   $0x0,-0x498(%rbp)
   13127:	00 
   13128:	0f 94 c0             	sete   %al
   1312b:	31 d0                	xor    %edx,%eax
   1312d:	0f b6 c8             	movzbl %al,%ecx
   13130:	48 8b 05 71 08 01 00 	mov    0x10871(%rip),%rax        # 239a8 <g_106>
   13137:	8b 10                	mov    (%rax),%edx
   13139:	48 8b 05 68 08 01 00 	mov    0x10868(%rip),%rax        # 239a8 <g_106>
   13140:	21 ca                	and    %ecx,%edx
   13142:	89 10                	mov    %edx,(%rax)
   13144:	0f b6 85 2f fb ff ff 	movzbl -0x4d1(%rbp),%eax
   1314b:	83 c0 01             	add    $0x1,%eax
   1314e:	88 85 2f fb ff ff    	mov    %al,-0x4d1(%rbp)
   13154:	8b 85 10 fb ff ff    	mov    -0x4f0(%rbp),%eax
   1315a:	41 89 c4             	mov    %eax,%r12d
   1315d:	48 8b 85 a0 fb ff ff 	mov    -0x460(%rbp),%rax
   13164:	8b 18                	mov    (%rax),%ebx
   13166:	8b 45 98             	mov    -0x68(%rbp),%eax
   13169:	0f be c0             	movsbl %al,%eax
   1316c:	be b2 00 00 00       	mov    $0xb2,%esi
   13171:	89 c7                	mov    %eax,%edi
   13173:	e8 76 41 ff ff       	callq  72ee <safe_lshift_func_int8_t_s_u>
   13178:	0f be c0             	movsbl %al,%eax
   1317b:	09 d8                	or     %ebx,%eax
   1317d:	85 c0                	test   %eax,%eax
   1317f:	4c 89 e6             	mov    %r12,%rsi
   13182:	bf 01 00 00 00       	mov    $0x1,%edi
   13187:	e8 28 48 ff ff       	callq  79b4 <safe_mod_func_int64_t_s_s>
   1318c:	8b 85 10 fb ff ff    	mov    -0x4f0(%rbp),%eax
   13192:	85 c0                	test   %eax,%eax
   13194:	0f 95 c0             	setne  %al
   13197:	0f b6 d8             	movzbl %al,%ebx
   1319a:	8b 45 a8             	mov    -0x58(%rbp),%eax
   1319d:	48 8b 95 18 fb ff ff 	mov    -0x4e8(%rbp),%rdx
   131a4:	89 c6                	mov    %eax,%esi
   131a6:	89 d7                	mov    %edx,%edi
   131a8:	e8 52 45 ff ff       	callq  76ff <safe_div_func_int32_t_s_s>
   131ad:	0f be c0             	movsbl %al,%eax
   131b0:	89 de                	mov    %ebx,%esi
   131b2:	89 c7                	mov    %eax,%edi
   131b4:	e8 39 40 ff ff       	callq  71f2 <safe_sub_func_int8_t_s_s>
   131b9:	48 83 bd 18 fb ff ff 	cmpq   $0xfffffffffffffffe,-0x4e8(%rbp)
   131c0:	fe 
   131c1:	48 8b 05 fc bf 00 00 	mov    0xbffc(%rip),%rax        # 1f1c4 <g_264+0x124>
   131c8:	8b 95 10 fb ff ff    	mov    -0x4f0(%rbp),%edx
   131ce:	48 8b 85 c8 fb ff ff 	mov    -0x438(%rbp),%rax
   131d5:	48 c7 00 00 00 00 00 	movq   $0x0,(%rax)
   131dc:	48 8b 85 c8 fb ff ff 	mov    -0x438(%rbp),%rax
   131e3:	48 8b 00             	mov    (%rax),%rax
   131e6:	48 85 c0             	test   %rax,%rax
   131e9:	0f 94 c0             	sete   %al
   131ec:	0f b6 c8             	movzbl %al,%ecx
   131ef:	48 8b 05 3a 0b 01 00 	mov    0x10b3a(%rip),%rax        # 23d30 <g_741>
   131f6:	48 8b 00             	mov    (%rax),%rax
   131f9:	48 39 c1             	cmp    %rax,%rcx
   131fc:	0f 9d c0             	setge  %al
   131ff:	0f b6 c0             	movzbl %al,%eax
   13202:	39 c2                	cmp    %eax,%edx
   13204:	0f 92 c0             	setb   %al
   13207:	0f b6 d0             	movzbl %al,%edx
   1320a:	48 8b 85 b8 fb ff ff 	mov    -0x448(%rbp),%rax
   13211:	8b 00                	mov    (%rax),%eax
   13213:	09 c2                	or     %eax,%edx
   13215:	48 8b 85 b8 fb ff ff 	mov    -0x448(%rbp),%rax
   1321c:	89 10                	mov    %edx,(%rax)
   1321e:	8b 05 b2 bf 00 00    	mov    0xbfb2(%rip),%eax        # 1f1d6 <g_277+0x6>
   13224:	83 c0 01             	add    $0x1,%eax
   13227:	89 05 a9 bf 00 00    	mov    %eax,0xbfa9(%rip)        # 1f1d6 <g_277+0x6>
   1322d:	8b 05 a3 bf 00 00    	mov    0xbfa3(%rip),%eax        # 1f1d6 <g_277+0x6>
   13233:	85 c0                	test   %eax,%eax
   13235:	0f 8e da fa ff ff    	jle    12d15 <func_26+0xa4>
   1323b:	48 8b 05 8e 07 01 00 	mov    0x1078e(%rip),%rax        # 239d0 <g_234>
   13242:	48 8b 00             	mov    (%rax),%rax
   13245:	48 8b 5d e8          	mov    -0x18(%rbp),%rbx
   13249:	64 48 33 1c 25 28 00 	xor    %fs:0x28,%rbx
   13250:	00 00 
   13252:	74 05                	je     13259 <func_26+0x5e8>
   13254:	e8 17 3e ff ff       	callq  7070 <__stack_chk_fail@plt>
   13259:	48 81 c4 f0 04 00 00 	add    $0x4f0,%rsp
   13260:	5b                   	pop    %rbx
   13261:	41 5c                	pop    %r12
   13263:	5d                   	pop    %rbp
   13264:	c3                   	retq   

0000000000013265 <func_34>:
   13265:	f3 0f 1e fa          	endbr64 
   13269:	55                   	push   %rbp
   1326a:	48 89 e5             	mov    %rsp,%rbp
   1326d:	41 57                	push   %r15
   1326f:	41 56                	push   %r14
   13271:	41 55                	push   %r13
   13273:	41 54                	push   %r12
   13275:	53                   	push   %rbx
   13276:	48 81 ec 00 10 00 00 	sub    $0x1000,%rsp
   1327d:	48 83 0c 24 00       	orq    $0x0,(%rsp)
   13282:	48 81 ec 78 0a 00 00 	sub    $0xa78,%rsp
   13289:	48 89 bd 68 e5 ff ff 	mov    %rdi,-0x1a98(%rbp)
   13290:	64 48 8b 04 25 28 00 	mov    %fs:0x28,%rax
   13297:	00 00 
   13299:	48 89 45 c8          	mov    %rax,-0x38(%rbp)
   1329d:	31 c0                	xor    %eax,%eax
   1329f:	c7 85 b4 e5 ff ff 00 	movl   $0x0,-0x1a4c(%rbp)
   132a6:	00 00 00 
   132a9:	c7 85 ac e5 ff ff fb 	movl   $0xfffffffb,-0x1a54(%rbp)
   132b0:	ff ff ff 
   132b3:	c7 85 e4 e5 ff ff ff 	movl   $0xffffffff,-0x1a1c(%rbp)
   132ba:	ff ff ff 
   132bd:	c7 85 e8 e5 ff ff 03 	movl   $0x3,-0x1a18(%rbp)
   132c4:	00 00 00 
   132c7:	c7 85 ec e5 ff ff 77 	movl   $0x5b4f6f77,-0x1a14(%rbp)
   132ce:	6f 4f 5b 
   132d1:	c7 85 f0 e5 ff ff f6 	movl   $0xfffffff6,-0x1a10(%rbp)
   132d8:	ff ff ff 
   132db:	c7 85 f4 e5 ff ff 00 	movl   $0x0,-0x1a0c(%rbp)
   132e2:	00 00 00 
   132e5:	c7 85 f8 e5 ff ff 18 	movl   $0xd5641618,-0x1a08(%rbp)
   132ec:	16 64 d5 
   132ef:	c7 85 fc e5 ff ff 6a 	movl   $0x6cd4106a,-0x1a04(%rbp)
   132f6:	10 d4 6c 
   132f9:	c7 85 00 e6 ff ff fd 	movl   $0xa7f53ffd,-0x1a00(%rbp)
   13300:	3f f5 a7 
   13303:	c7 85 04 e6 ff ff 08 	movl   $0x8,-0x19fc(%rbp)
   1330a:	00 00 00 
   1330d:	c7 85 08 e6 ff ff c0 	movl   $0x428f1ac0,-0x19f8(%rbp)
   13314:	1a 8f 42 
   13317:	48 8d 05 48 bd 00 00 	lea    0xbd48(%rip),%rax        # 1f066 <g_99>
   1331e:	48 89 85 d8 e6 ff ff 	mov    %rax,-0x1928(%rbp)
   13325:	c7 85 0c e6 ff ff 00 	movl   $0x0,-0x19f4(%rbp)
   1332c:	00 00 00 
   1332f:	c7 85 10 e6 ff ff 01 	movl   $0x1,-0x19f0(%rbp)
   13336:	00 00 00 
   13339:	c6 85 78 e5 ff ff f8 	movb   $0xf8,-0x1a88(%rbp)
   13340:	c7 85 14 e6 ff ff 9d 	movl   $0x9f61619d,-0x19ec(%rbp)
   13347:	61 61 9f 
   1334a:	48 8d 05 57 06 01 00 	lea    0x10657(%rip),%rax        # 239a8 <g_106>
   13351:	48 89 85 e0 e6 ff ff 	mov    %rax,-0x1920(%rbp)
   13358:	48 8d 85 e0 e6 ff ff 	lea    -0x1920(%rbp),%rax
   1335f:	48 89 85 e0 ee ff ff 	mov    %rax,-0x1120(%rbp)
   13366:	48 8d 85 e0 e6 ff ff 	lea    -0x1920(%rbp),%rax
   1336d:	48 89 85 e8 ee ff ff 	mov    %rax,-0x1118(%rbp)
   13374:	48 8d 85 e0 e6 ff ff 	lea    -0x1920(%rbp),%rax
   1337b:	48 89 85 f0 ee ff ff 	mov    %rax,-0x1110(%rbp)
   13382:	48 8d 85 e0 e6 ff ff 	lea    -0x1920(%rbp),%rax
   13389:	48 89 85 f8 ee ff ff 	mov    %rax,-0x1108(%rbp)
   13390:	48 8d 85 e0 e6 ff ff 	lea    -0x1920(%rbp),%rax
   13397:	48 89 85 00 ef ff ff 	mov    %rax,-0x1100(%rbp)
   1339e:	48 8d 85 e0 e6 ff ff 	lea    -0x1920(%rbp),%rax
   133a5:	48 89 85 08 ef ff ff 	mov    %rax,-0x10f8(%rbp)
   133ac:	48 8d 85 e0 e6 ff ff 	lea    -0x1920(%rbp),%rax
   133b3:	48 89 85 10 ef ff ff 	mov    %rax,-0x10f0(%rbp)
   133ba:	48 8d 85 e0 e6 ff ff 	lea    -0x1920(%rbp),%rax
   133c1:	48 89 85 18 ef ff ff 	mov    %rax,-0x10e8(%rbp)
   133c8:	48 8d 85 e0 e6 ff ff 	lea    -0x1920(%rbp),%rax
   133cf:	48 89 85 20 ef ff ff 	mov    %rax,-0x10e0(%rbp)
   133d6:	48 8d 85 e0 e6 ff ff 	lea    -0x1920(%rbp),%rax
   133dd:	48 89 85 28 ef ff ff 	mov    %rax,-0x10d8(%rbp)
   133e4:	48 8d 85 e0 e6 ff ff 	lea    -0x1920(%rbp),%rax
   133eb:	48 89 85 30 ef ff ff 	mov    %rax,-0x10d0(%rbp)
   133f2:	48 8d 85 e0 e6 ff ff 	lea    -0x1920(%rbp),%rax
   133f9:	48 89 85 38 ef ff ff 	mov    %rax,-0x10c8(%rbp)
   13400:	48 8d 85 e0 e6 ff ff 	lea    -0x1920(%rbp),%rax
   13407:	48 89 85 40 ef ff ff 	mov    %rax,-0x10c0(%rbp)
   1340e:	48 8d 85 e0 e6 ff ff 	lea    -0x1920(%rbp),%rax
   13415:	48 89 85 48 ef ff ff 	mov    %rax,-0x10b8(%rbp)
   1341c:	48 8d 85 e0 e6 ff ff 	lea    -0x1920(%rbp),%rax
   13423:	48 89 85 50 ef ff ff 	mov    %rax,-0x10b0(%rbp)
   1342a:	48 8d 85 e0 e6 ff ff 	lea    -0x1920(%rbp),%rax
   13431:	48 89 85 58 ef ff ff 	mov    %rax,-0x10a8(%rbp)
   13438:	48 8d 85 e0 e6 ff ff 	lea    -0x1920(%rbp),%rax
   1343f:	48 89 85 60 ef ff ff 	mov    %rax,-0x10a0(%rbp)
   13446:	48 8d 85 e0 e6 ff ff 	lea    -0x1920(%rbp),%rax
   1344d:	48 89 85 68 ef ff ff 	mov    %rax,-0x1098(%rbp)
   13454:	48 8d 85 e0 e6 ff ff 	lea    -0x1920(%rbp),%rax
   1345b:	48 89 85 70 ef ff ff 	mov    %rax,-0x1090(%rbp)
   13462:	48 8d 85 e0 e6 ff ff 	lea    -0x1920(%rbp),%rax
   13469:	48 89 85 78 ef ff ff 	mov    %rax,-0x1088(%rbp)
   13470:	48 8d 85 e0 e6 ff ff 	lea    -0x1920(%rbp),%rax
   13477:	48 89 85 80 ef ff ff 	mov    %rax,-0x1080(%rbp)
   1347e:	48 8d 85 e0 e6 ff ff 	lea    -0x1920(%rbp),%rax
   13485:	48 89 85 88 ef ff ff 	mov    %rax,-0x1078(%rbp)
   1348c:	48 8d 85 e0 e6 ff ff 	lea    -0x1920(%rbp),%rax
   13493:	48 89 85 90 ef ff ff 	mov    %rax,-0x1070(%rbp)
   1349a:	48 8d 85 e0 e6 ff ff 	lea    -0x1920(%rbp),%rax
   134a1:	48 89 85 98 ef ff ff 	mov    %rax,-0x1068(%rbp)
   134a8:	48 8d 85 e0 e6 ff ff 	lea    -0x1920(%rbp),%rax
   134af:	48 89 85 a0 ef ff ff 	mov    %rax,-0x1060(%rbp)
   134b6:	48 8d 85 e0 e6 ff ff 	lea    -0x1920(%rbp),%rax
   134bd:	48 89 85 a8 ef ff ff 	mov    %rax,-0x1058(%rbp)
   134c4:	48 8d 85 e0 e6 ff ff 	lea    -0x1920(%rbp),%rax
   134cb:	48 89 85 b0 ef ff ff 	mov    %rax,-0x1050(%rbp)
   134d2:	48 8d 85 e0 e6 ff ff 	lea    -0x1920(%rbp),%rax
   134d9:	48 89 85 b8 ef ff ff 	mov    %rax,-0x1048(%rbp)
   134e0:	48 8d 85 e0 e6 ff ff 	lea    -0x1920(%rbp),%rax
   134e7:	48 89 85 c0 ef ff ff 	mov    %rax,-0x1040(%rbp)
   134ee:	48 8d 85 e0 e6 ff ff 	lea    -0x1920(%rbp),%rax
   134f5:	48 89 85 c8 ef ff ff 	mov    %rax,-0x1038(%rbp)
   134fc:	48 8d 85 e0 e6 ff ff 	lea    -0x1920(%rbp),%rax
   13503:	48 89 85 d0 ef ff ff 	mov    %rax,-0x1030(%rbp)
   1350a:	48 8d 85 e0 e6 ff ff 	lea    -0x1920(%rbp),%rax
   13511:	48 89 85 d8 ef ff ff 	mov    %rax,-0x1028(%rbp)
   13518:	48 8d 85 e0 e6 ff ff 	lea    -0x1920(%rbp),%rax
   1351f:	48 89 85 e0 ef ff ff 	mov    %rax,-0x1020(%rbp)
   13526:	48 8d 85 e0 e6 ff ff 	lea    -0x1920(%rbp),%rax
   1352d:	48 89 85 e8 ef ff ff 	mov    %rax,-0x1018(%rbp)
   13534:	48 8d 85 e0 e6 ff ff 	lea    -0x1920(%rbp),%rax
   1353b:	48 89 85 f0 ef ff ff 	mov    %rax,-0x1010(%rbp)
   13542:	48 8d 85 e0 e6 ff ff 	lea    -0x1920(%rbp),%rax
   13549:	48 89 85 f8 ef ff ff 	mov    %rax,-0x1008(%rbp)
   13550:	48 8d 85 e0 e6 ff ff 	lea    -0x1920(%rbp),%rax
   13557:	48 89 85 00 f0 ff ff 	mov    %rax,-0x1000(%rbp)
   1355e:	48 8d 85 e0 e6 ff ff 	lea    -0x1920(%rbp),%rax
   13565:	48 89 85 08 f0 ff ff 	mov    %rax,-0xff8(%rbp)
   1356c:	48 8d 85 e0 e6 ff ff 	lea    -0x1920(%rbp),%rax
   13573:	48 89 85 10 f0 ff ff 	mov    %rax,-0xff0(%rbp)
   1357a:	48 8d 85 e0 e6 ff ff 	lea    -0x1920(%rbp),%rax
   13581:	48 89 85 18 f0 ff ff 	mov    %rax,-0xfe8(%rbp)
   13588:	48 8d 85 e0 e6 ff ff 	lea    -0x1920(%rbp),%rax
   1358f:	48 89 85 20 f0 ff ff 	mov    %rax,-0xfe0(%rbp)
   13596:	48 8d 85 e0 e6 ff ff 	lea    -0x1920(%rbp),%rax
   1359d:	48 89 85 28 f0 ff ff 	mov    %rax,-0xfd8(%rbp)
   135a4:	48 8d 85 e0 e6 ff ff 	lea    -0x1920(%rbp),%rax
   135ab:	48 89 85 30 f0 ff ff 	mov    %rax,-0xfd0(%rbp)
   135b2:	48 8d 85 e0 e6 ff ff 	lea    -0x1920(%rbp),%rax
   135b9:	48 89 85 38 f0 ff ff 	mov    %rax,-0xfc8(%rbp)
   135c0:	48 8d 85 e0 e6 ff ff 	lea    -0x1920(%rbp),%rax
   135c7:	48 89 85 40 f0 ff ff 	mov    %rax,-0xfc0(%rbp)
   135ce:	48 8d 85 e0 e6 ff ff 	lea    -0x1920(%rbp),%rax
   135d5:	48 89 85 48 f0 ff ff 	mov    %rax,-0xfb8(%rbp)
   135dc:	48 8d 85 e0 e6 ff ff 	lea    -0x1920(%rbp),%rax
   135e3:	48 89 85 50 f0 ff ff 	mov    %rax,-0xfb0(%rbp)
   135ea:	48 8d 85 e0 e6 ff ff 	lea    -0x1920(%rbp),%rax
   135f1:	48 89 85 58 f0 ff ff 	mov    %rax,-0xfa8(%rbp)
   135f8:	48 8d 85 e0 e6 ff ff 	lea    -0x1920(%rbp),%rax
   135ff:	48 89 85 60 f0 ff ff 	mov    %rax,-0xfa0(%rbp)
   13606:	48 8d 85 e0 e6 ff ff 	lea    -0x1920(%rbp),%rax
   1360d:	48 89 85 68 f0 ff ff 	mov    %rax,-0xf98(%rbp)
   13614:	48 8d 85 e0 e6 ff ff 	lea    -0x1920(%rbp),%rax
   1361b:	48 89 85 70 f0 ff ff 	mov    %rax,-0xf90(%rbp)
   13622:	48 8d 85 e0 e6 ff ff 	lea    -0x1920(%rbp),%rax
   13629:	48 89 85 78 f0 ff ff 	mov    %rax,-0xf88(%rbp)
   13630:	48 8d 85 e0 e6 ff ff 	lea    -0x1920(%rbp),%rax
   13637:	48 89 85 80 f0 ff ff 	mov    %rax,-0xf80(%rbp)
   1363e:	48 8d 85 e0 e6 ff ff 	lea    -0x1920(%rbp),%rax
   13645:	48 89 85 88 f0 ff ff 	mov    %rax,-0xf78(%rbp)
   1364c:	48 8d 85 e0 ee ff ff 	lea    -0x1120(%rbp),%rax
   13653:	48 05 98 01 00 00    	add    $0x198,%rax
   13659:	48 89 85 38 e7 ff ff 	mov    %rax,-0x18c8(%rbp)
   13660:	48 8d 05 91 bb 00 00 	lea    0xbb91(%rip),%rax        # 1f1f8 <g_333>
   13667:	48 89 85 40 e7 ff ff 	mov    %rax,-0x18c0(%rbp)
   1366e:	c7 85 9c e5 ff ff f9 	movl   $0xfffffff9,-0x1a64(%rbp)
   13675:	ff ff ff 
   13678:	48 c7 85 e8 e6 ff ff 	movq   $0x0,-0x1918(%rbp)
   1367f:	00 00 00 00 
   13683:	48 8d 85 e8 e6 ff ff 	lea    -0x1918(%rbp),%rax
   1368a:	48 89 85 48 e7 ff ff 	mov    %rax,-0x18b8(%rbp)
   13691:	c6 85 75 e5 ff ff 02 	movb   $0x2,-0x1a8b(%rbp)
   13698:	48 8d 85 9c e5 ff ff 	lea    -0x1a64(%rbp),%rax
   1369f:	48 89 85 f0 e6 ff ff 	mov    %rax,-0x1910(%rbp)
   136a6:	48 c7 85 50 e7 ff ff 	movq   $0x0,-0x18b0(%rbp)
   136ad:	00 00 00 00 
   136b1:	48 8d 85 f0 e6 ff ff 	lea    -0x1910(%rbp),%rax
   136b8:	48 89 85 70 ec ff ff 	mov    %rax,-0x1390(%rbp)
   136bf:	48 8d 85 f0 e6 ff ff 	lea    -0x1910(%rbp),%rax
   136c6:	48 89 85 78 ec ff ff 	mov    %rax,-0x1388(%rbp)
   136cd:	48 8d 85 f0 e6 ff ff 	lea    -0x1910(%rbp),%rax
   136d4:	48 89 85 80 ec ff ff 	mov    %rax,-0x1380(%rbp)
   136db:	48 8d 85 f0 e6 ff ff 	lea    -0x1910(%rbp),%rax
   136e2:	48 89 85 88 ec ff ff 	mov    %rax,-0x1378(%rbp)
   136e9:	48 8d 85 f0 e6 ff ff 	lea    -0x1910(%rbp),%rax
   136f0:	48 89 85 90 ec ff ff 	mov    %rax,-0x1370(%rbp)
   136f7:	48 8d 85 f0 e6 ff ff 	lea    -0x1910(%rbp),%rax
   136fe:	48 89 85 98 ec ff ff 	mov    %rax,-0x1368(%rbp)
   13705:	48 8d 85 f0 e6 ff ff 	lea    -0x1910(%rbp),%rax
   1370c:	48 89 85 a0 ec ff ff 	mov    %rax,-0x1360(%rbp)
   13713:	48 8d 85 f0 e6 ff ff 	lea    -0x1910(%rbp),%rax
   1371a:	48 89 85 a8 ec ff ff 	mov    %rax,-0x1358(%rbp)
   13721:	48 8d 85 f0 e6 ff ff 	lea    -0x1910(%rbp),%rax
   13728:	48 89 85 b0 ec ff ff 	mov    %rax,-0x1350(%rbp)
   1372f:	48 8d 85 f0 e6 ff ff 	lea    -0x1910(%rbp),%rax
   13736:	48 89 85 b8 ec ff ff 	mov    %rax,-0x1348(%rbp)
   1373d:	48 8d 85 f0 e6 ff ff 	lea    -0x1910(%rbp),%rax
   13744:	48 89 85 c0 ec ff ff 	mov    %rax,-0x1340(%rbp)
   1374b:	48 8d 85 f0 e6 ff ff 	lea    -0x1910(%rbp),%rax
   13752:	48 89 85 c8 ec ff ff 	mov    %rax,-0x1338(%rbp)
   13759:	48 8d 85 f0 e6 ff ff 	lea    -0x1910(%rbp),%rax
   13760:	48 89 85 d0 ec ff ff 	mov    %rax,-0x1330(%rbp)
   13767:	48 8d 85 f0 e6 ff ff 	lea    -0x1910(%rbp),%rax
   1376e:	48 89 85 d8 ec ff ff 	mov    %rax,-0x1328(%rbp)
   13775:	48 8d 85 f0 e6 ff ff 	lea    -0x1910(%rbp),%rax
   1377c:	48 89 85 e0 ec ff ff 	mov    %rax,-0x1320(%rbp)
   13783:	48 8d 85 f0 e6 ff ff 	lea    -0x1910(%rbp),%rax
   1378a:	48 89 85 e8 ec ff ff 	mov    %rax,-0x1318(%rbp)
   13791:	48 8d 85 f0 e6 ff ff 	lea    -0x1910(%rbp),%rax
   13798:	48 89 85 f0 ec ff ff 	mov    %rax,-0x1310(%rbp)
   1379f:	48 8d 85 f0 e6 ff ff 	lea    -0x1910(%rbp),%rax
   137a6:	48 89 85 f8 ec ff ff 	mov    %rax,-0x1308(%rbp)
   137ad:	48 8d 85 f0 e6 ff ff 	lea    -0x1910(%rbp),%rax
   137b4:	48 89 85 00 ed ff ff 	mov    %rax,-0x1300(%rbp)
   137bb:	48 8d 85 f0 e6 ff ff 	lea    -0x1910(%rbp),%rax
   137c2:	48 89 85 08 ed ff ff 	mov    %rax,-0x12f8(%rbp)
   137c9:	48 8d 85 f0 e6 ff ff 	lea    -0x1910(%rbp),%rax
   137d0:	48 89 85 10 ed ff ff 	mov    %rax,-0x12f0(%rbp)
   137d7:	48 8d 85 70 ec ff ff 	lea    -0x1390(%rbp),%rax
   137de:	48 05 90 00 00 00    	add    $0x90,%rax
   137e4:	48 89 85 58 e7 ff ff 	mov    %rax,-0x18a8(%rbp)
   137eb:	c6 85 76 e5 ff ff 6c 	movb   $0x6c,-0x1a8a(%rbp)
   137f2:	48 8d 85 90 f0 ff ff 	lea    -0xf70(%rbp),%rax
   137f9:	48 8d 15 00 78 00 00 	lea    0x7800(%rip),%rdx        # 1b000 <g_1821+0xf30>
   13800:	b9 78 00 00 00       	mov    $0x78,%ecx
   13805:	48 89 c7             	mov    %rax,%rdi
   13808:	48 89 d6             	mov    %rdx,%rsi
   1380b:	f3 48 a5             	rep movsq %ds:(%rsi),%es:(%rdi)
   1380e:	48 8d 05 b3 01 01 00 	lea    0x101b3(%rip),%rax        # 239c8 <g_235>
   13815:	48 89 85 f0 ed ff ff 	mov    %rax,-0x1210(%rbp)
   1381c:	48 8d 05 a5 01 01 00 	lea    0x101a5(%rip),%rax        # 239c8 <g_235>
   13823:	48 89 85 f8 ed ff ff 	mov    %rax,-0x1208(%rbp)
   1382a:	48 8d 05 97 01 01 00 	lea    0x10197(%rip),%rax        # 239c8 <g_235>
   13831:	48 89 85 00 ee ff ff 	mov    %rax,-0x1200(%rbp)
   13838:	48 8d 05 89 01 01 00 	lea    0x10189(%rip),%rax        # 239c8 <g_235>
   1383f:	48 89 85 08 ee ff ff 	mov    %rax,-0x11f8(%rbp)
   13846:	48 8d 05 7b 01 01 00 	lea    0x1017b(%rip),%rax        # 239c8 <g_235>
   1384d:	48 89 85 10 ee ff ff 	mov    %rax,-0x11f0(%rbp)
   13854:	48 8d 05 6d 01 01 00 	lea    0x1016d(%rip),%rax        # 239c8 <g_235>
   1385b:	48 89 85 18 ee ff ff 	mov    %rax,-0x11e8(%rbp)
   13862:	48 8d 05 5f 01 01 00 	lea    0x1015f(%rip),%rax        # 239c8 <g_235>
   13869:	48 89 85 20 ee ff ff 	mov    %rax,-0x11e0(%rbp)
   13870:	48 8d 05 51 01 01 00 	lea    0x10151(%rip),%rax        # 239c8 <g_235>
   13877:	48 89 85 28 ee ff ff 	mov    %rax,-0x11d8(%rbp)
   1387e:	48 8d 05 43 01 01 00 	lea    0x10143(%rip),%rax        # 239c8 <g_235>
   13885:	48 89 85 30 ee ff ff 	mov    %rax,-0x11d0(%rbp)
   1388c:	48 8d 05 35 01 01 00 	lea    0x10135(%rip),%rax        # 239c8 <g_235>
   13893:	48 89 85 38 ee ff ff 	mov    %rax,-0x11c8(%rbp)
   1389a:	48 8d 05 27 01 01 00 	lea    0x10127(%rip),%rax        # 239c8 <g_235>
   138a1:	48 89 85 40 ee ff ff 	mov    %rax,-0x11c0(%rbp)
   138a8:	48 8d 05 19 01 01 00 	lea    0x10119(%rip),%rax        # 239c8 <g_235>
   138af:	48 89 85 48 ee ff ff 	mov    %rax,-0x11b8(%rbp)
   138b6:	48 c7 85 50 ee ff ff 	movq   $0x0,-0x11b0(%rbp)
   138bd:	00 00 00 00 
   138c1:	48 8d 05 00 01 01 00 	lea    0x10100(%rip),%rax        # 239c8 <g_235>
   138c8:	48 89 85 58 ee ff ff 	mov    %rax,-0x11a8(%rbp)
   138cf:	48 8d 05 f2 00 01 00 	lea    0x100f2(%rip),%rax        # 239c8 <g_235>
   138d6:	48 89 85 60 ee ff ff 	mov    %rax,-0x11a0(%rbp)
   138dd:	48 8d 05 e4 00 01 00 	lea    0x100e4(%rip),%rax        # 239c8 <g_235>
   138e4:	48 89 85 68 ee ff ff 	mov    %rax,-0x1198(%rbp)
   138eb:	48 8d 05 d6 00 01 00 	lea    0x100d6(%rip),%rax        # 239c8 <g_235>
   138f2:	48 89 85 70 ee ff ff 	mov    %rax,-0x1190(%rbp)
   138f9:	48 8d 05 c8 00 01 00 	lea    0x100c8(%rip),%rax        # 239c8 <g_235>
   13900:	48 89 85 78 ee ff ff 	mov    %rax,-0x1188(%rbp)
   13907:	48 8d 05 ba 00 01 00 	lea    0x100ba(%rip),%rax        # 239c8 <g_235>
   1390e:	48 89 85 80 ee ff ff 	mov    %rax,-0x1180(%rbp)
   13915:	48 8d 05 ac 00 01 00 	lea    0x100ac(%rip),%rax        # 239c8 <g_235>
   1391c:	48 89 85 88 ee ff ff 	mov    %rax,-0x1178(%rbp)
   13923:	48 8d 05 9e 00 01 00 	lea    0x1009e(%rip),%rax        # 239c8 <g_235>
   1392a:	48 89 85 90 ee ff ff 	mov    %rax,-0x1170(%rbp)
   13931:	48 8d 05 90 00 01 00 	lea    0x10090(%rip),%rax        # 239c8 <g_235>
   13938:	48 89 85 98 ee ff ff 	mov    %rax,-0x1168(%rbp)
   1393f:	48 8d 05 82 00 01 00 	lea    0x10082(%rip),%rax        # 239c8 <g_235>
   13946:	48 89 85 a0 ee ff ff 	mov    %rax,-0x1160(%rbp)
   1394d:	48 8d 05 74 00 01 00 	lea    0x10074(%rip),%rax        # 239c8 <g_235>
   13954:	48 89 85 a8 ee ff ff 	mov    %rax,-0x1158(%rbp)
   1395b:	48 8d 05 66 00 01 00 	lea    0x10066(%rip),%rax        # 239c8 <g_235>
   13962:	48 89 85 b0 ee ff ff 	mov    %rax,-0x1150(%rbp)
   13969:	48 8d 05 58 00 01 00 	lea    0x10058(%rip),%rax        # 239c8 <g_235>
   13970:	48 89 85 b8 ee ff ff 	mov    %rax,-0x1148(%rbp)
   13977:	48 8d 05 4a 00 01 00 	lea    0x1004a(%rip),%rax        # 239c8 <g_235>
   1397e:	48 89 85 c0 ee ff ff 	mov    %rax,-0x1140(%rbp)
   13985:	48 c7 85 c8 ee ff ff 	movq   $0x0,-0x1138(%rbp)
   1398c:	00 00 00 00 
   13990:	48 8d 05 31 00 01 00 	lea    0x10031(%rip),%rax        # 239c8 <g_235>
   13997:	48 89 85 d0 ee ff ff 	mov    %rax,-0x1130(%rbp)
   1399e:	48 8d 05 23 00 01 00 	lea    0x10023(%rip),%rax        # 239c8 <g_235>
   139a5:	48 89 85 d8 ee ff ff 	mov    %rax,-0x1128(%rbp)
   139ac:	48 8d 05 dd b9 00 00 	lea    0xb9dd(%rip),%rax        # 1f390 <g_481>
   139b3:	48 89 85 f8 e6 ff ff 	mov    %rax,-0x1908(%rbp)
   139ba:	48 b8 d3 f5 eb e1 de 	movabs $0xfd0da0dee1ebf5d3,%rax
   139c1:	a0 0d fd 
   139c4:	48 89 85 d0 eb ff ff 	mov    %rax,-0x1430(%rbp)
   139cb:	48 c7 85 d8 eb ff ff 	movq   $0x1,-0x1428(%rbp)
   139d2:	01 00 00 00 
   139d6:	48 bb 5f 01 ce 17 b3 	movabs $0x68d81fb317ce015f,%rbx
   139dd:	1f d8 68 
   139e0:	48 89 9d e0 eb ff ff 	mov    %rbx,-0x1420(%rbp)
   139e7:	48 c7 85 e8 eb ff ff 	movq   $0xffffffffffffffff,-0x1418(%rbp)
   139ee:	ff ff ff ff 
   139f2:	48 b9 58 fe c9 1c 36 	movabs $0xbf009d361cc9fe58,%rcx
   139f9:	9d 00 bf 
   139fc:	48 89 8d f0 eb ff ff 	mov    %rcx,-0x1410(%rbp)
   13a03:	48 89 8d f8 eb ff ff 	mov    %rcx,-0x1408(%rbp)
   13a0a:	48 89 85 00 ec ff ff 	mov    %rax,-0x1400(%rbp)
   13a11:	48 89 8d 08 ec ff ff 	mov    %rcx,-0x13f8(%rbp)
   13a18:	48 89 8d 10 ec ff ff 	mov    %rcx,-0x13f0(%rbp)
   13a1f:	48 c7 85 18 ec ff ff 	movq   $0xffffffffffffffff,-0x13e8(%rbp)
   13a26:	ff ff ff ff 
   13a2a:	48 89 9d 20 ec ff ff 	mov    %rbx,-0x13e0(%rbp)
   13a31:	48 c7 85 28 ec ff ff 	movq   $0x1,-0x13d8(%rbp)
   13a38:	01 00 00 00 
   13a3c:	48 89 85 30 ec ff ff 	mov    %rax,-0x13d0(%rbp)
   13a43:	48 89 9d 38 ec ff ff 	mov    %rbx,-0x13c8(%rbp)
   13a4a:	48 c7 85 40 ec ff ff 	movq   $0x1,-0x13c0(%rbp)
   13a51:	01 00 00 00 
   13a55:	48 c7 85 48 ec ff ff 	movq   $0xffffffffffffffff,-0x13b8(%rbp)
   13a5c:	ff ff ff ff 
   13a60:	48 c7 85 50 ec ff ff 	movq   $0x1,-0x13b0(%rbp)
   13a67:	01 00 00 00 
   13a6b:	48 89 9d 58 ec ff ff 	mov    %rbx,-0x13a8(%rbp)
   13a72:	48 89 85 60 ec ff ff 	mov    %rax,-0x13a0(%rbp)
   13a79:	48 c7 85 68 ec ff ff 	movq   $0x1,-0x1398(%rbp)
   13a80:	01 00 00 00 
   13a84:	66 c7 85 80 e5 ff ff 	movw   $0x8,-0x1a80(%rbp)
   13a8b:	08 00 
   13a8d:	48 8d 85 d0 eb ff ff 	lea    -0x1430(%rbp),%rax
   13a94:	48 89 85 60 e7 ff ff 	mov    %rax,-0x18a0(%rbp)
   13a9b:	48 8d 05 c6 b5 00 00 	lea    0xb5c6(%rip),%rax        # 1f068 <g_101>
   13aa2:	48 89 85 00 e7 ff ff 	mov    %rax,-0x1900(%rbp)
   13aa9:	c6 85 79 e5 ff ff fe 	movb   $0xfe,-0x1a87(%rbp)
   13ab0:	c7 85 b0 e5 ff ff 00 	movl   $0x0,-0x1a50(%rbp)
   13ab7:	00 00 00 
   13aba:	eb 21                	jmp    13add <func_34+0x878>
   13abc:	8b 85 b0 e5 ff ff    	mov    -0x1a50(%rbp),%eax
   13ac2:	48 98                	cltq   
   13ac4:	48 bb 47 2e 94 f6 fd 	movabs $0xb8d42bfdf6942e47,%rbx
   13acb:	2b d4 b8 
   13ace:	48 89 9c c5 28 e9 ff 	mov    %rbx,-0x16d8(%rbp,%rax,8)
   13ad5:	ff 
   13ad6:	83 85 b0 e5 ff ff 01 	addl   $0x1,-0x1a50(%rbp)
   13add:	83 bd b0 e5 ff ff 00 	cmpl   $0x0,-0x1a50(%rbp)
   13ae4:	7e d6                	jle    13abc <func_34+0x857>
   13ae6:	c7 85 b0 e5 ff ff 00 	movl   $0x0,-0x1a50(%rbp)
   13aed:	00 00 00 
   13af0:	eb 1a                	jmp    13b0c <func_34+0x8a7>
   13af2:	8b 85 b0 e5 ff ff    	mov    -0x1a50(%rbp),%eax
   13af8:	48 98                	cltq   
   13afa:	c7 84 85 3c e9 ff ff 	movl   $0x3,-0x16c4(%rbp,%rax,4)
   13b01:	03 00 00 00 
   13b05:	83 85 b0 e5 ff ff 01 	addl   $0x1,-0x1a50(%rbp)
   13b0c:	83 bd b0 e5 ff ff 01 	cmpl   $0x1,-0x1a50(%rbp)
   13b13:	7e dd                	jle    13af2 <func_34+0x88d>
   13b15:	c7 85 b0 e5 ff ff 00 	movl   $0x0,-0x1a50(%rbp)
   13b1c:	00 00 00 
   13b1f:	eb 1e                	jmp    13b3f <func_34+0x8da>
   13b21:	8b 85 b0 e5 ff ff    	mov    -0x1a50(%rbp),%eax
   13b27:	48 98                	cltq   
   13b29:	48 8d 95 f0 e6 ff ff 	lea    -0x1910(%rbp),%rdx
   13b30:	48 89 94 c5 30 e9 ff 	mov    %rdx,-0x16d0(%rbp,%rax,8)
   13b37:	ff 
   13b38:	83 85 b0 e5 ff ff 01 	addl   $0x1,-0x1a50(%rbp)
   13b3f:	83 bd b0 e5 ff ff 00 	cmpl   $0x0,-0x1a50(%rbp)
   13b46:	7e d9                	jle    13b21 <func_34+0x8bc>
   13b48:	c7 85 b0 e5 ff ff 00 	movl   $0x0,-0x1a50(%rbp)
   13b4f:	00 00 00 
   13b52:	eb 1e                	jmp    13b72 <func_34+0x90d>
   13b54:	8b 85 b0 e5 ff ff    	mov    -0x1a50(%rbp),%eax
   13b5a:	48 98                	cltq   
   13b5c:	48 8d 15 3d b8 00 00 	lea    0xb83d(%rip),%rdx        # 1f3a0 <g_550>
   13b63:	48 89 94 c5 50 e9 ff 	mov    %rdx,-0x16b0(%rbp,%rax,8)
   13b6a:	ff 
   13b6b:	83 85 b0 e5 ff ff 01 	addl   $0x1,-0x1a50(%rbp)
   13b72:	83 bd b0 e5 ff ff 03 	cmpl   $0x3,-0x1a50(%rbp)
   13b79:	7e d9                	jle    13b54 <func_34+0x8ef>
   13b7b:	90                   	nop
   13b7c:	c6 05 cb b4 00 00 e6 	movb   $0xe6,0xb4cb(%rip)        # 1f04e <g_37>
   13b83:	e9 68 06 00 00       	jmpq   141f0 <func_34+0xf8b>
   13b88:	c6 85 77 e5 ff ff ff 	movb   $0xff,-0x1a89(%rbp)
   13b8f:	c7 85 6c e6 ff ff f3 	movl   $0x773237f3,-0x1994(%rbp)
   13b96:	37 32 77 
   13b99:	c7 85 70 e6 ff ff ff 	movl   $0xffffffff,-0x1990(%rbp)
   13ba0:	ff ff ff 
   13ba3:	c7 85 74 e6 ff ff 71 	movl   $0xc9880e71,-0x198c(%rbp)
   13baa:	0e 88 c9 
   13bad:	c7 85 78 e6 ff ff 01 	movl   $0x1,-0x1988(%rbp)
   13bb4:	00 00 00 
   13bb7:	48 b8 12 1a de f5 10 	movabs $0x28e14e10f5de1a12,%rax
   13bbe:	4e e1 28 
   13bc1:	48 89 85 88 e8 ff ff 	mov    %rax,-0x1778(%rbp)
   13bc8:	48 b8 e8 e7 55 15 58 	movabs $0x8c1b6f581555e7e8,%rax
   13bcf:	6f 1b 8c 
   13bd2:	48 89 85 90 e8 ff ff 	mov    %rax,-0x1770(%rbp)
   13bd9:	66 c7 85 96 e5 ff ff 	movw   $0x2cdc,-0x1a6a(%rbp)
   13be0:	dc 2c 
   13be2:	48 c7 85 98 e8 ff ff 	movq   $0x1,-0x1768(%rbp)
   13be9:	01 00 00 00 
   13bed:	48 8d 05 2c ff 00 00 	lea    0xff2c(%rip),%rax        # 23b20 <g_302>
   13bf4:	48 89 85 a0 e8 ff ff 	mov    %rax,-0x1760(%rbp)
   13bfb:	48 8d 05 f6 b5 00 00 	lea    0xb5f6(%rip),%rax        # 1f1f8 <g_333>
   13c02:	48 89 85 a8 e8 ff ff 	mov    %rax,-0x1758(%rbp)
   13c09:	48 8d 05 98 fd 00 00 	lea    0xfd98(%rip),%rax        # 239a8 <g_106>
   13c10:	48 89 85 b0 e8 ff ff 	mov    %rax,-0x1750(%rbp)
   13c17:	c7 85 7c e6 ff ff 00 	movl   $0x0,-0x1984(%rbp)
   13c1e:	00 00 00 
   13c21:	c7 85 a8 e5 ff ff 00 	movl   $0x0,-0x1a58(%rbp)
   13c28:	00 00 00 
   13c2b:	eb 1a                	jmp    13c47 <func_34+0x9e2>
   13c2d:	8b 85 a8 e5 ff ff    	mov    -0x1a58(%rbp),%eax
   13c33:	48 98                	cltq   
   13c35:	c7 84 85 b0 ea ff ff 	movl   $0x0,-0x1550(%rbp,%rax,4)
   13c3c:	00 00 00 00 
   13c40:	83 85 a8 e5 ff ff 01 	addl   $0x1,-0x1a58(%rbp)
   13c47:	83 bd a8 e5 ff ff 02 	cmpl   $0x2,-0x1a58(%rbp)
   13c4e:	7e dd                	jle    13c2d <func_34+0x9c8>
   13c50:	c7 85 a8 e5 ff ff 00 	movl   $0x0,-0x1a58(%rbp)
   13c57:	00 00 00 
   13c5a:	eb 1a                	jmp    13c76 <func_34+0xa11>
   13c5c:	8b 85 a8 e5 ff ff    	mov    -0x1a58(%rbp),%eax
   13c62:	48 98                	cltq   
   13c64:	c7 84 85 40 eb ff ff 	movl   $0xffffffff,-0x14c0(%rbp,%rax,4)
   13c6b:	ff ff ff ff 
   13c6f:	83 85 a8 e5 ff ff 01 	addl   $0x1,-0x1a58(%rbp)
   13c76:	83 bd a8 e5 ff ff 02 	cmpl   $0x2,-0x1a58(%rbp)
   13c7d:	7e dd                	jle    13c5c <func_34+0x9f7>
   13c7f:	c7 05 c7 b3 00 00 10 	movl   $0x10,0xb3c7(%rip)        # 1f050 <g_41>
   13c86:	00 00 00 
   13c89:	e9 05 05 00 00       	jmpq   14193 <func_34+0xf2e>
   13c8e:	48 b8 2e d1 23 78 62 	movabs $0xb827be627823d12e,%rax
   13c95:	be 27 b8 
   13c98:	48 89 85 b8 e8 ff ff 	mov    %rax,-0x1748(%rbp)
   13c9f:	66 c7 85 98 e5 ff ff 	movw   $0x32bf,-0x1a68(%rbp)
   13ca6:	bf 32 
   13ca8:	c7 85 80 e6 ff ff f6 	movl   $0xfffffff6,-0x1980(%rbp)
   13caf:	ff ff ff 
   13cb2:	c7 85 84 e6 ff ff 0b 	movl   $0x3f2b610b,-0x197c(%rbp)
   13cb9:	61 2b 3f 
   13cbc:	c7 85 88 e6 ff ff ff 	movl   $0xffffffff,-0x1978(%rbp)
   13cc3:	ff ff ff 
   13cc6:	c7 85 8c e6 ff ff 01 	movl   $0x1,-0x1974(%rbp)
   13ccd:	00 00 00 
   13cd0:	c7 85 90 e6 ff ff 44 	movl   $0x98bd1844,-0x1970(%rbp)
   13cd7:	18 bd 98 
   13cda:	c7 85 94 e6 ff ff b4 	movl   $0x683eedb4,-0x196c(%rbp)
   13ce1:	ed 3e 68 
   13ce4:	c7 85 98 e6 ff ff a1 	movl   $0xec59efa1,-0x1968(%rbp)
   13ceb:	ef 59 ec 
   13cee:	c7 85 9c e6 ff ff f9 	movl   $0xfffffff9,-0x1964(%rbp)
   13cf5:	ff ff ff 
   13cf8:	c7 85 20 ed ff ff f7 	movl   $0xfffffff7,-0x12e0(%rbp)
   13cff:	ff ff ff 
   13d02:	c7 85 24 ed ff ff f7 	movl   $0xfffffff7,-0x12dc(%rbp)
   13d09:	ff ff ff 
   13d0c:	c7 85 28 ed ff ff f7 	movl   $0xfffffff7,-0x12d8(%rbp)
   13d13:	ff ff ff 
   13d16:	c7 85 2c ed ff ff f7 	movl   $0xfffffff7,-0x12d4(%rbp)
   13d1d:	ff ff ff 
   13d20:	c6 85 18 e7 ff ff 37 	movb   $0x37,-0x18e8(%rbp)
   13d27:	48 c7 85 50 f4 ff ff 	movq   $0x0,-0xbb0(%rbp)
   13d2e:	00 00 00 00 
   13d32:	48 c7 85 58 f4 ff ff 	movq   $0x0,-0xba8(%rbp)
   13d39:	00 00 00 00 
   13d3d:	48 c7 85 60 f4 ff ff 	movq   $0x0,-0xba0(%rbp)
   13d44:	00 00 00 00 
   13d48:	48 c7 85 68 f4 ff ff 	movq   $0x0,-0xb98(%rbp)
   13d4f:	00 00 00 00 
   13d53:	48 c7 85 70 f4 ff ff 	movq   $0x0,-0xb90(%rbp)
   13d5a:	00 00 00 00 
   13d5e:	48 c7 85 78 f4 ff ff 	movq   $0x0,-0xb88(%rbp)
   13d65:	00 00 00 00 
   13d69:	48 c7 85 80 f4 ff ff 	movq   $0x0,-0xb80(%rbp)
   13d70:	00 00 00 00 
   13d74:	48 8d 85 50 f4 ff ff 	lea    -0xbb0(%rbp),%rax
   13d7b:	48 83 c0 28          	add    $0x28,%rax
   13d7f:	48 89 85 c0 e8 ff ff 	mov    %rax,-0x1740(%rbp)
   13d86:	48 c7 85 28 e7 ff ff 	movq   $0x0,-0x18d8(%rbp)
   13d8d:	00 00 00 00 
   13d91:	c7 85 28 e7 ff ff fe 	movl   $0xfffffffe,-0x18d8(%rbp)
   13d98:	ff ff ff 
   13d9b:	48 c7 85 c8 e8 ff ff 	movq   $0x0,-0x1738(%rbp)
   13da2:	00 00 00 00 
   13da6:	c7 05 a8 b2 00 00 fb 	movl   $0xfffffffb,0xb2a8(%rip)        # 1f058 <g_45>
   13dad:	ff ff ff 
   13db0:	e9 6d 02 00 00       	jmpq   14022 <func_34+0xdbd>
   13db5:	48 8d 05 a0 b2 00 00 	lea    0xb2a0(%rip),%rax        # 1f05c <g_49>
   13dbc:	48 89 85 d0 e8 ff ff 	mov    %rax,-0x1730(%rbp)
   13dc3:	48 c7 85 d8 e8 ff ff 	movq   $0x0,-0x1728(%rbp)
   13dca:	00 00 00 00 
   13dce:	c7 85 a0 e6 ff ff 01 	movl   $0x1,-0x1960(%rbp)
   13dd5:	00 00 00 
   13dd8:	c7 85 b8 e5 ff ff 00 	movl   $0x0,-0x1a48(%rbp)
   13ddf:	00 00 00 
   13de2:	eb 1e                	jmp    13e02 <func_34+0xb9d>
   13de4:	8b 85 b8 e5 ff ff    	mov    -0x1a48(%rbp),%eax
   13dea:	48 98                	cltq   
   13dec:	48 8d 15 69 b2 00 00 	lea    0xb269(%rip),%rdx        # 1f05c <g_49>
   13df3:	48 89 94 c5 60 ea ff 	mov    %rdx,-0x15a0(%rbp,%rax,8)
   13dfa:	ff 
   13dfb:	83 85 b8 e5 ff ff 01 	addl   $0x1,-0x1a48(%rbp)
   13e02:	83 bd b8 e5 ff ff 00 	cmpl   $0x0,-0x1a48(%rbp)
   13e09:	7e d9                	jle    13de4 <func_34+0xb7f>
   13e0b:	80 ad 77 e5 ff ff 01 	subb   $0x1,-0x1a89(%rbp)
   13e12:	48 83 bd b8 e8 ff ff 	cmpq   $0x0,-0x1748(%rbp)
   13e19:	00 
   13e1a:	0f 85 13 02 00 00    	jne    14033 <func_34+0xdce>
   13e20:	c7 85 ac e5 ff ff 00 	movl   $0x0,-0x1a54(%rbp)
   13e27:	00 00 00 
   13e2a:	e9 0b 01 00 00       	jmpq   13f3a <func_34+0xcd5>
   13e2f:	48 8d 05 22 b2 00 00 	lea    0xb222(%rip),%rax        # 1f058 <g_45>
   13e36:	48 89 85 e0 e8 ff ff 	mov    %rax,-0x1720(%rbp)
   13e3d:	48 8d 85 40 f8 ff ff 	lea    -0x7c0(%rbp),%rax
   13e44:	48 8d 15 35 ec 00 00 	lea    0xec35(%rip),%rdx        # 22a80 <g_2024+0x820>
   13e4b:	b9 5a 00 00 00       	mov    $0x5a,%ecx
   13e50:	48 89 c7             	mov    %rax,%rdi
   13e53:	48 89 d6             	mov    %rdx,%rsi
   13e56:	f3 48 a5             	rep movsq %ds:(%rsi),%es:(%rdi)
   13e59:	48 8d 05 ee b1 00 00 	lea    0xb1ee(%rip),%rax        # 1f04e <g_37>
   13e60:	48 89 85 30 e7 ff ff 	mov    %rax,-0x18d0(%rbp)
   13e67:	48 8d 85 30 e7 ff ff 	lea    -0x18d0(%rbp),%rax
   13e6e:	48 89 85 e8 e8 ff ff 	mov    %rax,-0x1718(%rbp)
   13e75:	0f b6 9d 77 e5 ff ff 	movzbl -0x1a89(%rbp),%ebx
   13e7c:	8b 95 a0 e6 ff ff    	mov    -0x1960(%rbp),%edx
   13e82:	48 8b 85 e0 e8 ff ff 	mov    -0x1720(%rbp),%rax
   13e89:	89 d6                	mov    %edx,%esi
   13e8b:	48 89 c7             	mov    %rax,%rdi
   13e8e:	e8 ff 2c 00 00       	callq  16b92 <func_63>
   13e93:	48 85 c0             	test   %rax,%rax
   13e96:	75 13                	jne    13eab <func_34+0xc46>
   13e98:	48 8b 85 e0 e8 ff ff 	mov    -0x1720(%rbp),%rax
   13e9f:	8b 00                	mov    (%rax),%eax
   13ea1:	48 98                	cltq   
   13ea3:	83 e0 01             	and    $0x1,%eax
   13ea6:	48 85 c0             	test   %rax,%rax
   13ea9:	74 07                	je     13eb2 <func_34+0xc4d>
   13eab:	b8 01 00 00 00       	mov    $0x1,%eax
   13eb0:	eb 05                	jmp    13eb7 <func_34+0xc52>
   13eb2:	b8 00 00 00 00       	mov    $0x0,%eax
   13eb7:	89 85 b4 e5 ff ff    	mov    %eax,-0x1a4c(%rbp)
   13ebd:	8b 85 b4 e5 ff ff    	mov    -0x1a4c(%rbp),%eax
   13ec3:	89 de                	mov    %ebx,%esi
   13ec5:	89 c7                	mov    %eax,%edi
   13ec7:	e8 f8 29 00 00       	callq  168c4 <func_60>
   13ecc:	48 8b 95 e8 e8 ff ff 	mov    -0x1718(%rbp),%rdx
   13ed3:	48 89 02             	mov    %rax,(%rdx)
   13ed6:	48 8b 85 e8 e8 ff ff 	mov    -0x1718(%rbp),%rax
   13edd:	48 8b 00             	mov    (%rax),%rax
   13ee0:	48 8d 15 67 b1 00 00 	lea    0xb167(%rip),%rdx        # 1f04e <g_37>
   13ee7:	48 39 d0             	cmp    %rdx,%rax
   13eea:	0f 94 c0             	sete   %al
   13eed:	0f b6 c0             	movzbl %al,%eax
   13ef0:	be 01 00 00 00       	mov    $0x1,%esi
   13ef5:	89 c7                	mov    %eax,%edi
   13ef7:	e8 0a 3f ff ff       	callq  7e06 <safe_lshift_func_uint16_t_u_u>
   13efc:	8b 95 ac e5 ff ff    	mov    -0x1a54(%rbp),%edx
   13f02:	83 c2 02             	add    $0x2,%edx
   13f05:	0f b7 c8             	movzwl %ax,%ecx
   13f08:	48 63 f2             	movslq %edx,%rsi
   13f0b:	8b 85 ac e5 ff ff    	mov    -0x1a54(%rbp),%eax
   13f11:	48 63 d0             	movslq %eax,%rdx
   13f14:	48 89 d0             	mov    %rdx,%rax
   13f17:	48 c1 e0 02          	shl    $0x2,%rax
   13f1b:	48 01 d0             	add    %rdx,%rax
   13f1e:	48 01 f0             	add    %rsi,%rax
   13f21:	48 8d 14 85 00 00 00 	lea    0x0(,%rax,4),%rdx
   13f28:	00 
   13f29:	48 8d 05 e0 08 01 00 	lea    0x108e0(%rip),%rax        # 24810 <g_40>
   13f30:	89 0c 02             	mov    %ecx,(%rdx,%rax,1)
   13f33:	83 ad ac e5 ff ff 01 	subl   $0x1,-0x1a54(%rbp)
   13f3a:	83 bd ac e5 ff ff 00 	cmpl   $0x0,-0x1a54(%rbp)
   13f41:	0f 89 e8 fe ff ff    	jns    13e2f <func_34+0xbca>
   13f47:	c7 05 0f b1 00 00 00 	movl   $0x0,0xb10f(%rip)        # 1f060 <g_69>
   13f4e:	00 00 00 
   13f51:	e9 a0 00 00 00       	jmpq   13ff6 <func_34+0xd91>
   13f56:	c7 85 a4 e6 ff ff e8 	movl   $0x3c854be8,-0x195c(%rbp)
   13f5d:	4b 85 3c 
   13f60:	c7 85 b4 e5 ff ff 00 	movl   $0x0,-0x1a4c(%rbp)
   13f67:	00 00 00 
   13f6a:	83 bd b4 e5 ff ff 00 	cmpl   $0x0,-0x1a4c(%rbp)
   13f71:	78 3b                	js     13fae <func_34+0xd49>
   13f73:	48 8b 85 d0 e8 ff ff 	mov    -0x1730(%rbp),%rax
   13f7a:	8b 95 ac e5 ff ff    	mov    -0x1a54(%rbp),%edx
   13f80:	89 10                	mov    %edx,(%rax)
   13f82:	83 ad a4 e6 ff ff 01 	subl   $0x1,-0x195c(%rbp)
   13f89:	48 8b 05 30 fa 00 00 	mov    0xfa30(%rip),%rax        # 239c0 <g_112>
   13f90:	48 8d 15 19 fa 00 00 	lea    0xfa19(%rip),%rdx        # 239b0 <g_105>
   13f97:	48 89 10             	mov    %rdx,(%rax)
   13f9a:	48 8b 05 8f b0 00 00 	mov    0xb08f(%rip),%rax        # 1f030 <g_7>
   13fa1:	48 c1 e8 20          	shr    $0x20,%rax
   13fa5:	66 25 ff 01          	and    $0x1ff,%ax
   13fa9:	e9 f0 28 00 00       	jmpq   1689e <func_34+0x3639>
   13fae:	c7 05 7e b0 00 00 00 	movl   $0x0,0xb07e(%rip)        # 1f036 <g_7+0x6>
   13fb5:	00 00 00 
   13fb8:	eb 23                	jmp    13fdd <func_34+0xd78>
   13fba:	8b 05 76 b0 00 00    	mov    0xb076(%rip),%eax        # 1f036 <g_7+0x6>
   13fc0:	48 98                	cltq   
   13fc2:	48 c7 84 c5 60 ea ff 	movq   $0x0,-0x15a0(%rbp,%rax,8)
   13fc9:	ff 00 00 00 00 
   13fce:	8b 05 62 b0 00 00    	mov    0xb062(%rip),%eax        # 1f036 <g_7+0x6>
   13fd4:	83 c0 01             	add    $0x1,%eax
   13fd7:	89 05 59 b0 00 00    	mov    %eax,0xb059(%rip)        # 1f036 <g_7+0x6>
   13fdd:	8b 05 53 b0 00 00    	mov    0xb053(%rip),%eax        # 1f036 <g_7+0x6>
   13fe3:	85 c0                	test   %eax,%eax
   13fe5:	7e d3                	jle    13fba <func_34+0xd55>
   13fe7:	8b 05 73 b0 00 00    	mov    0xb073(%rip),%eax        # 1f060 <g_69>
   13fed:	83 e8 01             	sub    $0x1,%eax
   13ff0:	89 05 6a b0 00 00    	mov    %eax,0xb06a(%rip)        # 1f060 <g_69>
   13ff6:	8b 05 64 b0 00 00    	mov    0xb064(%rip),%eax        # 1f060 <g_69>
   13ffc:	85 c0                	test   %eax,%eax
   13ffe:	0f 89 52 ff ff ff    	jns    13f56 <func_34+0xcf1>
   14004:	8b 05 4e b0 00 00    	mov    0xb04e(%rip),%eax        # 1f058 <g_45>
   1400a:	0f b7 c0             	movzwl %ax,%eax
   1400d:	be 09 00 00 00       	mov    $0x9,%esi
   14012:	89 c7                	mov    %eax,%edi
   14014:	e8 e6 3c ff ff       	callq  7cff <safe_add_func_uint16_t_u_u>
   14019:	0f b7 c0             	movzwl %ax,%eax
   1401c:	89 05 36 b0 00 00    	mov    %eax,0xb036(%rip)        # 1f058 <g_45>
   14022:	8b 05 30 b0 00 00    	mov    0xb030(%rip),%eax        # 1f058 <g_45>
   14028:	83 f8 04             	cmp    $0x4,%eax
   1402b:	0f 85 84 fd ff ff    	jne    13db5 <func_34+0xb50>
   14031:	eb 01                	jmp    14034 <func_34+0xdcf>
   14033:	90                   	nop
   14034:	c7 85 b4 e5 ff ff 00 	movl   $0x0,-0x1a4c(%rbp)
   1403b:	00 00 00 
   1403e:	e9 1a 01 00 00       	jmpq   1415d <func_34+0xef8>
   14043:	66 c7 85 9a e5 ff ff 	movw   $0x1473,-0x1a66(%rbp)
   1404a:	73 14 
   1404c:	c7 85 a8 e6 ff ff d7 	movl   $0x9d7571d7,-0x1958(%rbp)
   14053:	71 75 9d 
   14056:	c7 85 ac e6 ff ff 03 	movl   $0x3,-0x1954(%rbp)
   1405d:	00 00 00 
   14060:	c7 85 b0 e6 ff ff 01 	movl   $0x1,-0x1950(%rbp)
   14067:	00 00 00 
   1406a:	c7 85 b4 e6 ff ff 1b 	movl   $0x40340a1b,-0x194c(%rbp)
   14071:	0a 34 40 
   14074:	c7 85 b8 e6 ff ff ff 	movl   $0xffffffff,-0x1948(%rbp)
   1407b:	ff ff ff 
   1407e:	c7 85 bc e6 ff ff 05 	movl   $0xce657005,-0x1944(%rbp)
   14085:	70 65 ce 
   14088:	c7 85 c0 e6 ff ff f6 	movl   $0xfffffff6,-0x1940(%rbp)
   1408f:	ff ff ff 
   14092:	c7 85 20 e7 ff ff 27 	movl   $0x66f30b27,-0x18e0(%rbp)
   14099:	0b f3 66 
   1409c:	c7 85 c4 e6 ff ff 73 	movl   $0xd5190a73,-0x193c(%rbp)
   140a3:	0a 19 d5 
   140a6:	c7 85 c8 e6 ff ff f9 	movl   $0xfffffff9,-0x1938(%rbp)
   140ad:	ff ff ff 
   140b0:	c7 85 cc e6 ff ff 10 	movl   $0xf7601c10,-0x1934(%rbp)
   140b7:	1c 60 f7 
   140ba:	c7 85 d0 e6 ff ff a0 	movl   $0x52bfa0,-0x1930(%rbp)
   140c1:	bf 52 00 
   140c4:	c7 85 d4 e6 ff ff ff 	movl   $0xffffffff,-0x192c(%rbp)
   140cb:	ff ff ff 
   140ce:	48 c7 85 30 e7 ff ff 	movq   $0x0,-0x18d0(%rbp)
   140d5:	00 00 00 00 
   140d9:	c7 85 30 e7 ff ff 13 	movl   $0x77a6613,-0x18d0(%rbp)
   140e0:	66 7a 07 
   140e3:	48 c7 85 f0 e8 ff ff 	movq   $0x9,-0x1710(%rbp)
   140ea:	09 00 00 00 
   140ee:	48 8d 05 3b af 00 00 	lea    0xaf3b(%rip),%rax        # 1f030 <g_7>
   140f5:	48 89 85 f8 e8 ff ff 	mov    %rax,-0x1708(%rbp)
   140fc:	48 8d 85 18 e7 ff ff 	lea    -0x18e8(%rbp),%rax
   14103:	48 89 85 00 e9 ff ff 	mov    %rax,-0x1700(%rbp)
   1410a:	48 8d 85 30 e7 ff ff 	lea    -0x18d0(%rbp),%rax
   14111:	48 89 85 08 e9 ff ff 	mov    %rax,-0x16f8(%rbp)
   14118:	48 8d 05 47 af 00 00 	lea    0xaf47(%rip),%rax        # 1f066 <g_99>
   1411f:	48 89 85 10 e9 ff ff 	mov    %rax,-0x16f0(%rbp)
   14126:	48 8d 85 20 e7 ff ff 	lea    -0x18e0(%rbp),%rax
   1412d:	48 89 85 18 e9 ff ff 	mov    %rax,-0x16e8(%rbp)
   14134:	48 b8 48 ec 27 b2 b7 	movabs $0x546319b7b227ec48,%rax
   1413b:	19 63 54 
   1413e:	48 89 85 20 e9 ff ff 	mov    %rax,-0x16e0(%rbp)
   14145:	8b 85 b4 e5 ff ff    	mov    -0x1a4c(%rbp),%eax
   1414b:	be 05 00 00 00       	mov    $0x5,%esi
   14150:	89 c7                	mov    %eax,%edi
   14152:	e8 ae 34 ff ff       	callq  7605 <safe_sub_func_int32_t_s_s>
   14157:	89 85 b4 e5 ff ff    	mov    %eax,-0x1a4c(%rbp)
   1415d:	83 bd b4 e5 ff ff f7 	cmpl   $0xfffffff7,-0x1a4c(%rbp)
   14164:	0f 8c d9 fe ff ff    	jl     14043 <func_34+0xdde>
   1416a:	48 c7 85 c8 e8 ff ff 	movq   $0x0,-0x1738(%rbp)
   14171:	00 00 00 00 
   14175:	8b 05 d5 ae 00 00    	mov    0xaed5(%rip),%eax        # 1f050 <g_41>
   1417b:	0f be c0             	movsbl %al,%eax
   1417e:	be 08 00 00 00       	mov    $0x8,%esi
   14183:	89 c7                	mov    %eax,%edi
   14185:	e8 68 30 ff ff       	callq  71f2 <safe_sub_func_int8_t_s_s>
   1418a:	0f be c0             	movsbl %al,%eax
   1418d:	89 05 bd ae 00 00    	mov    %eax,0xaebd(%rip)        # 1f050 <g_41>
   14193:	8b 05 b7 ae 00 00    	mov    0xaeb7(%rip),%eax        # 1f050 <g_41>
   14199:	83 f8 0b             	cmp    $0xb,%eax
   1419c:	0f 8e ec fa ff ff    	jle    13c8e <func_34+0xa29>
   141a2:	48 8b 15 77 f9 00 00 	mov    0xf977(%rip),%rdx        # 23b20 <g_302>
   141a9:	48 8b 05 70 f9 00 00 	mov    0xf970(%rip),%rax        # 23b20 <g_302>
   141b0:	48 8b 0a             	mov    (%rdx),%rcx
   141b3:	48 8b 5a 08          	mov    0x8(%rdx),%rbx
   141b7:	48 89 08             	mov    %rcx,(%rax)
   141ba:	48 89 58 08          	mov    %rbx,0x8(%rax)
   141be:	48 8b 4a 10          	mov    0x10(%rdx),%rcx
   141c2:	48 89 48 10          	mov    %rcx,0x10(%rax)
   141c6:	8b 4a 18             	mov    0x18(%rdx),%ecx
   141c9:	89 48 18             	mov    %ecx,0x18(%rax)
   141cc:	0f b7 52 1c          	movzwl 0x1c(%rdx),%edx
   141d0:	66 89 50 1c          	mov    %dx,0x1c(%rax)
   141d4:	0f b6 05 73 ae 00 00 	movzbl 0xae73(%rip),%eax        # 1f04e <g_37>
   141db:	0f b6 c0             	movzbl %al,%eax
   141de:	be 06 00 00 00       	mov    $0x6,%esi
   141e3:	89 c7                	mov    %eax,%edi
   141e5:	e8 70 39 ff ff       	callq  7b5a <safe_add_func_uint8_t_u_u>
   141ea:	88 05 5e ae 00 00    	mov    %al,0xae5e(%rip)        # 1f04e <g_37>
   141f0:	0f b6 05 57 ae 00 00 	movzbl 0xae57(%rip),%eax        # 1f04e <g_37>
   141f7:	3c 03                	cmp    $0x3,%al
   141f9:	0f 8e 89 f9 ff ff    	jle    13b88 <func_34+0x923>
   141ff:	48 8b 95 30 e9 ff ff 	mov    -0x16d0(%rbp),%rdx
   14206:	48 8b 85 58 e7 ff ff 	mov    -0x18a8(%rbp),%rax
   1420d:	48 c7 00 00 00 00 00 	movq   $0x0,(%rax)
   14214:	48 8b 85 58 e7 ff ff 	mov    -0x18a8(%rbp),%rax
   1421b:	48 8b 00             	mov    (%rax),%rax
   1421e:	48 39 c2             	cmp    %rax,%rdx
   14221:	0f 85 35 21 00 00    	jne    1635c <func_34+0x30f7>
   14227:	66 c7 85 82 e5 ff ff 	movw   $0x710c,-0x1a7e(%rbp)
   1422e:	0c 71 
   14230:	c7 85 bc e5 ff ff 08 	movl   $0x8,-0x1a44(%rbp)
   14237:	00 00 00 
   1423a:	c7 85 c0 e5 ff ff 04 	movl   $0x4,-0x1a40(%rbp)
   14241:	00 00 00 
   14244:	c7 85 b0 ea ff ff af 	movl   $0x1f32aaaf,-0x1550(%rbp)
   1424b:	aa 32 1f 
   1424e:	c7 85 b4 ea ff ff fb 	movl   $0xfffffffb,-0x154c(%rbp)
   14255:	ff ff ff 
   14258:	c7 85 b8 ea ff ff 05 	movl   $0x5,-0x1548(%rbp)
   1425f:	00 00 00 
   14262:	c7 85 bc ea ff ff 05 	movl   $0x5,-0x1544(%rbp)
   14269:	00 00 00 
   1426c:	c7 85 c0 ea ff ff fb 	movl   $0xfffffffb,-0x1540(%rbp)
   14273:	ff ff ff 
   14276:	c7 85 c4 ea ff ff f5 	movl   $0x8d36a4f5,-0x153c(%rbp)
   1427d:	a4 36 8d 
   14280:	c7 85 c8 ea ff ff fe 	movl   $0xfffffffe,-0x1538(%rbp)
   14287:	ff ff ff 
   1428a:	c7 85 cc ea ff ff ba 	movl   $0xd3b415ba,-0x1534(%rbp)
   14291:	15 b4 d3 
   14294:	c7 85 d0 ea ff ff ba 	movl   $0xd3b415ba,-0x1530(%rbp)
   1429b:	15 b4 d3 
   1429e:	c7 85 d4 ea ff ff 03 	movl   $0x3,-0x152c(%rbp)
   142a5:	00 00 00 
   142a8:	c7 85 d8 ea ff ff bd 	movl   $0x6c526bbd,-0x1528(%rbp)
   142af:	6b 52 6c 
   142b2:	c7 85 dc ea ff ff 04 	movl   $0x4,-0x1524(%rbp)
   142b9:	00 00 00 
   142bc:	c7 85 e0 ea ff ff fb 	movl   $0xfffffffb,-0x1520(%rbp)
   142c3:	ff ff ff 
   142c6:	c7 85 e4 ea ff ff fb 	movl   $0xfffffffb,-0x151c(%rbp)
   142cd:	ff ff ff 
   142d0:	c7 85 e8 ea ff ff 04 	movl   $0x4,-0x1518(%rbp)
   142d7:	00 00 00 
   142da:	c7 85 ec ea ff ff c7 	movl   $0x1e5e0ac7,-0x1514(%rbp)
   142e1:	0a 5e 1e 
   142e4:	c7 85 f0 ea ff ff 03 	movl   $0x3,-0x1510(%rbp)
   142eb:	00 00 00 
   142ee:	c7 85 f4 ea ff ff fe 	movl   $0xfffffffe,-0x150c(%rbp)
   142f5:	ff ff ff 
   142f8:	c7 85 f8 ea ff ff fe 	movl   $0xfffffffe,-0x1508(%rbp)
   142ff:	ff ff ff 
   14302:	c7 85 fc ea ff ff 03 	movl   $0x3,-0x1504(%rbp)
   14309:	00 00 00 
   1430c:	c7 85 00 eb ff ff bd 	movl   $0x6c526bbd,-0x1500(%rbp)
   14313:	6b 52 6c 
   14316:	c7 85 04 eb ff ff 04 	movl   $0x4,-0x14fc(%rbp)
   1431d:	00 00 00 
   14320:	c7 85 08 eb ff ff fb 	movl   $0xfffffffb,-0x14f8(%rbp)
   14327:	ff ff ff 
   1432a:	c7 85 0c eb ff ff fb 	movl   $0xfffffffb,-0x14f4(%rbp)
   14331:	ff ff ff 
   14334:	c7 85 10 eb ff ff 04 	movl   $0x4,-0x14f0(%rbp)
   1433b:	00 00 00 
   1433e:	c7 85 14 eb ff ff c7 	movl   $0x1e5e0ac7,-0x14ec(%rbp)
   14345:	0a 5e 1e 
   14348:	c7 85 18 eb ff ff 03 	movl   $0x3,-0x14e8(%rbp)
   1434f:	00 00 00 
   14352:	c7 85 1c eb ff ff fe 	movl   $0xfffffffe,-0x14e4(%rbp)
   14359:	ff ff ff 
   1435c:	c7 85 20 eb ff ff fe 	movl   $0xfffffffe,-0x14e0(%rbp)
   14363:	ff ff ff 
   14366:	c7 85 24 eb ff ff 03 	movl   $0x3,-0x14dc(%rbp)
   1436d:	00 00 00 
   14370:	c7 85 28 eb ff ff bd 	movl   $0x6c526bbd,-0x14d8(%rbp)
   14377:	6b 52 6c 
   1437a:	c7 85 2c eb ff ff 04 	movl   $0x4,-0x14d4(%rbp)
   14381:	00 00 00 
   14384:	c7 85 30 eb ff ff fb 	movl   $0xfffffffb,-0x14d0(%rbp)
   1438b:	ff ff ff 
   1438e:	c7 85 34 eb ff ff fb 	movl   $0xfffffffb,-0x14cc(%rbp)
   14395:	ff ff ff 
   14398:	c7 85 38 eb ff ff 04 	movl   $0x4,-0x14c8(%rbp)
   1439f:	00 00 00 
   143a2:	66 c7 85 84 e5 ff ff 	movw   $0xe10c,-0x1a7c(%rbp)
   143a9:	0c e1 
   143ab:	48 8d 05 46 ae 00 00 	lea    0xae46(%rip),%rax        # 1f1f8 <g_333>
   143b2:	48 89 85 08 e7 ff ff 	mov    %rax,-0x18f8(%rbp)
   143b9:	c7 85 a0 e5 ff ff ab 	movl   $0x99cd42ab,-0x1a60(%rbp)
   143c0:	42 cd 99 
   143c3:	48 8d 85 75 e5 ff ff 	lea    -0x1a8b(%rbp),%rax
   143ca:	48 89 85 90 e7 ff ff 	mov    %rax,-0x1870(%rbp)
   143d1:	48 c7 85 10 e7 ff ff 	movq   $0x0,-0x18f0(%rbp)
   143d8:	00 00 00 00 
   143dc:	48 8d 85 10 e7 ff ff 	lea    -0x18f0(%rbp),%rax
   143e3:	48 89 85 98 e7 ff ff 	mov    %rax,-0x1868(%rbp)
   143ea:	48 8d 85 9c e5 ff ff 	lea    -0x1a64(%rbp),%rax
   143f1:	48 89 85 a0 e7 ff ff 	mov    %rax,-0x1860(%rbp)
   143f8:	48 8d 85 50 f4 ff ff 	lea    -0xbb0(%rbp),%rax
   143ff:	48 8d 15 ba 6f 00 00 	lea    0x6fba(%rip),%rdx        # 1b3c0 <g_1821+0x12f0>
   14406:	b9 7e 00 00 00       	mov    $0x7e,%ecx
   1440b:	48 89 c7             	mov    %rax,%rdi
   1440e:	48 89 d6             	mov    %rdx,%rsi
   14411:	f3 48 a5             	rep movsq %ds:(%rsi),%es:(%rdi)
   14414:	48 c7 85 a8 e7 ff ff 	movq   $0x0,-0x1858(%rbp)
   1441b:	00 00 00 00 
   1441f:	66 c7 85 86 e5 ff ff 	movw   $0xa5f1,-0x1a7a(%rbp)
   14426:	f1 a5 
   14428:	48 c7 85 b0 e7 ff ff 	movq   $0x0,-0x1850(%rbp)
   1442f:	00 00 00 00 
   14433:	48 c7 85 b8 e7 ff ff 	movq   $0xfffffffffffffffe,-0x1848(%rbp)
   1443a:	fe ff ff ff 
   1443e:	48 8d 05 0b 04 01 00 	lea    0x1040b(%rip),%rax        # 24850 <g_605>
   14445:	48 89 85 c0 e7 ff ff 	mov    %rax,-0x1840(%rbp)
   1444c:	48 c7 85 c8 e7 ff ff 	movq   $0x0,-0x1838(%rbp)
   14453:	00 00 00 00 
   14457:	c7 85 c4 e5 ff ff cb 	movl   $0x3a1441cb,-0x1a3c(%rbp)
   1445e:	41 14 3a 
   14461:	48 8d 05 18 af 00 00 	lea    0xaf18(%rip),%rax        # 1f380 <g_478>
   14468:	48 89 85 10 ea ff ff 	mov    %rax,-0x15f0(%rbp)
   1446f:	48 8d 05 12 af 00 00 	lea    0xaf12(%rip),%rax        # 1f388 <g_478+0x8>
   14476:	48 89 85 18 ea ff ff 	mov    %rax,-0x15e8(%rbp)
   1447d:	48 8d 05 04 af 00 00 	lea    0xaf04(%rip),%rax        # 1f388 <g_478+0x8>
   14484:	48 89 85 20 ea ff ff 	mov    %rax,-0x15e0(%rbp)
   1448b:	48 8d 05 ee ae 00 00 	lea    0xaeee(%rip),%rax        # 1f380 <g_478>
   14492:	48 89 85 28 ea ff ff 	mov    %rax,-0x15d8(%rbp)
   14499:	48 8d 05 e8 ae 00 00 	lea    0xaee8(%rip),%rax        # 1f388 <g_478+0x8>
   144a0:	48 89 85 30 ea ff ff 	mov    %rax,-0x15d0(%rbp)
   144a7:	48 8d 05 d2 ae 00 00 	lea    0xaed2(%rip),%rax        # 1f380 <g_478>
   144ae:	48 89 85 38 ea ff ff 	mov    %rax,-0x15c8(%rbp)
   144b5:	48 8d 05 cc ae 00 00 	lea    0xaecc(%rip),%rax        # 1f388 <g_478+0x8>
   144bc:	48 89 85 40 ea ff ff 	mov    %rax,-0x15c0(%rbp)
   144c3:	48 8d 05 be ae 00 00 	lea    0xaebe(%rip),%rax        # 1f388 <g_478+0x8>
   144ca:	48 89 85 48 ea ff ff 	mov    %rax,-0x15b8(%rbp)
   144d1:	48 8d 05 a8 ae 00 00 	lea    0xaea8(%rip),%rax        # 1f380 <g_478>
   144d8:	48 89 85 50 ea ff ff 	mov    %rax,-0x15b0(%rbp)
   144df:	48 8d 05 a2 ae 00 00 	lea    0xaea2(%rip),%rax        # 1f388 <g_478+0x8>
   144e6:	48 89 85 58 ea ff ff 	mov    %rax,-0x15a8(%rbp)
   144ed:	66 c7 85 88 e5 ff ff 	movw   $0xffff,-0x1a78(%rbp)
   144f4:	ff ff 
   144f6:	0f b6 85 76 e5 ff ff 	movzbl -0x1a8a(%rbp),%eax
   144fd:	83 e8 01             	sub    $0x1,%eax
   14500:	88 85 76 e5 ff ff    	mov    %al,-0x1a8a(%rbp)
   14506:	48 8b 05 bb f4 00 00 	mov    0xf4bb(%rip),%rax        # 239c8 <g_235>
   1450d:	0f b6 00             	movzbl (%rax),%eax
   14510:	0f be d8             	movsbl %al,%ebx
   14513:	8b 85 38 eb ff ff    	mov    -0x14c8(%rbp),%eax
   14519:	41 89 c4             	mov    %eax,%r12d
   1451c:	be 01 00 00 00       	mov    $0x1,%esi
   14521:	bf f8 ff ff ff       	mov    $0xfffffff8,%edi
   14526:	e8 38 30 ff ff       	callq  7563 <safe_rshift_func_int16_t_s_u>
   1452b:	89 c2                	mov    %eax,%edx
   1452d:	48 8b 85 08 e7 ff ff 	mov    -0x18f8(%rbp),%rax
   14534:	48 0f bf d2          	movswq %dx,%rdx
   14538:	48 89 10             	mov    %rdx,(%rax)
   1453b:	48 8b 00             	mov    (%rax),%rax
   1453e:	48 be 53 5c 41 b0 3f 	movabs $0xff00b93fb0415c53,%rsi
   14545:	b9 00 ff 
   14548:	48 89 c7             	mov    %rax,%rdi
   1454b:	e8 a7 34 ff ff       	callq  79f7 <safe_div_func_int64_t_s_s>
   14550:	48 8b 85 38 e7 ff ff 	mov    -0x18c8(%rbp),%rax
   14557:	48 8b 00             	mov    (%rax),%rax
   1455a:	48 8b 00             	mov    (%rax),%rax
   1455d:	48 8b 00             	mov    (%rax),%rax
   14560:	8b 00                	mov    (%rax),%eax
   14562:	0f be c0             	movsbl %al,%eax
   14565:	89 c6                	mov    %eax,%esi
   14567:	bf fd ff ff ff       	mov    $0xfffffffd,%edi
   1456c:	e8 a1 2c ff ff       	callq  7212 <safe_mul_func_int8_t_s_s>
   14571:	0f b6 c0             	movzbl %al,%eax
   14574:	25 fd 00 00 00       	and    $0xfd,%eax
   14579:	be f2 00 00 00       	mov    $0xf2,%esi
   1457e:	89 c7                	mov    %eax,%edi
   14580:	e8 56 36 ff ff       	callq  7bdb <safe_div_func_uint8_t_u_u>
   14585:	0f b6 d0             	movzbl %al,%edx
   14588:	8b 85 a0 e5 ff ff    	mov    -0x1a60(%rbp),%eax
   1458e:	21 d0                	and    %edx,%eax
   14590:	89 85 a0 e5 ff ff    	mov    %eax,-0x1a60(%rbp)
   14596:	8b 95 a0 e5 ff ff    	mov    -0x1a60(%rbp),%edx
   1459c:	8b 85 bc e5 ff ff    	mov    -0x1a44(%rbp),%eax
   145a2:	39 c2                	cmp    %eax,%edx
   145a4:	0f 96 c0             	setbe  %al
   145a7:	0f b6 d0             	movzbl %al,%edx
   145aa:	0f b7 05 b3 aa 00 00 	movzwl 0xaab3(%rip),%eax        # 1f064 <g_77>
   145b1:	0f b7 c0             	movzwl %ax,%eax
   145b4:	39 c2                	cmp    %eax,%edx
   145b6:	74 0a                	je     145c2 <func_34+0x135d>
   145b8:	8b 05 52 ad 00 00    	mov    0xad52(%rip),%eax        # 1f310 <g_397+0xf0>
   145be:	85 c0                	test   %eax,%eax
   145c0:	74 07                	je     145c9 <func_34+0x1364>
   145c2:	b8 01 00 00 00       	mov    $0x1,%eax
   145c7:	eb 05                	jmp    145ce <func_34+0x1369>
   145c9:	b8 00 00 00 00       	mov    $0x0,%eax
   145ce:	98                   	cwtl   
   145cf:	44 89 e6             	mov    %r12d,%esi
   145d2:	89 c7                	mov    %eax,%edi
   145d4:	e8 08 2f ff ff       	callq  74e1 <safe_lshift_func_int16_t_s_u>
   145d9:	0f b7 05 86 aa 00 00 	movzwl 0xaa86(%rip),%eax        # 1f066 <g_99>
   145e0:	66 3d 96 00          	cmp    $0x96,%ax
   145e4:	8b 05 1c ac 00 00    	mov    0xac1c(%rip),%eax        # 1f206 <g_347+0x6>
   145ea:	0f b6 c0             	movzbl %al,%eax
   145ed:	89 de                	mov    %ebx,%esi
   145ef:	89 c7                	mov    %eax,%edi
   145f1:	e8 97 36 ff ff       	callq  7c8d <safe_rshift_func_uint8_t_u_s>
   145f6:	84 c0                	test   %al,%al
   145f8:	75 0a                	jne    14604 <func_34+0x139f>
   145fa:	8b 05 14 02 01 00    	mov    0x10214(%rip),%eax        # 24814 <g_40+0x4>
   14600:	85 c0                	test   %eax,%eax
   14602:	74 07                	je     1460b <func_34+0x13a6>
   14604:	ba 01 00 00 00       	mov    $0x1,%edx
   14609:	eb 05                	jmp    14610 <func_34+0x13ab>
   1460b:	ba 00 00 00 00       	mov    $0x0,%edx
   14610:	48 8b 85 e0 e6 ff ff 	mov    -0x1920(%rbp),%rax
   14617:	48 8b 00             	mov    (%rax),%rax
   1461a:	8b 00                	mov    (%rax),%eax
   1461c:	39 c2                	cmp    %eax,%edx
   1461e:	7e 18                	jle    14638 <func_34+0x13d3>
   14620:	48 8b 05 a9 f3 00 00 	mov    0xf3a9(%rip),%rax        # 239d0 <g_234>
   14627:	48 8b 00             	mov    (%rax),%rax
   1462a:	0f b6 00             	movzbl (%rax),%eax
   1462d:	84 c0                	test   %al,%al
   1462f:	74 07                	je     14638 <func_34+0x13d3>
   14631:	b8 01 00 00 00       	mov    $0x1,%eax
   14636:	eb 05                	jmp    1463d <func_34+0x13d8>
   14638:	b8 00 00 00 00       	mov    $0x0,%eax
   1463d:	83 f0 03             	xor    $0x3,%eax
   14640:	89 c2                	mov    %eax,%edx
   14642:	48 8b 85 90 e7 ff ff 	mov    -0x1870(%rbp),%rax
   14649:	88 10                	mov    %dl,(%rax)
   1464b:	48 8b 85 90 e7 ff ff 	mov    -0x1870(%rbp),%rax
   14652:	0f b6 00             	movzbl (%rax),%eax
   14655:	0f b6 d0             	movzbl %al,%edx
   14658:	48 8b 85 38 e7 ff ff 	mov    -0x18c8(%rbp),%rax
   1465f:	48 8b 00             	mov    (%rax),%rax
   14662:	48 8b 00             	mov    (%rax),%rax
   14665:	48 8b 00             	mov    (%rax),%rax
   14668:	8b 00                	mov    (%rax),%eax
   1466a:	09 d0                	or     %edx,%eax
   1466c:	85 c0                	test   %eax,%eax
   1466e:	0f 84 31 03 00 00    	je     149a5 <func_34+0x1740>
   14674:	66 c7 85 8a e5 ff ff 	movw   $0x3544,-0x1a76(%rbp)
   1467b:	44 35 
   1467d:	c7 85 28 e6 ff ff 00 	movl   $0x0,-0x19d8(%rbp)
   14684:	00 00 00 
   14687:	c7 85 c8 e5 ff ff 00 	movl   $0x0,-0x1a38(%rbp)
   1468e:	00 00 00 
   14691:	48 8d 85 40 f8 ff ff 	lea    -0x7c0(%rbp),%rax
   14698:	48 8d 15 c1 e6 00 00 	lea    0xe6c1(%rip),%rdx        # 22d60 <g_2024+0xb00>
   1469f:	b9 c8 00 00 00       	mov    $0xc8,%ecx
   146a4:	48 89 c7             	mov    %rax,%rdi
   146a7:	48 89 d6             	mov    %rdx,%rsi
   146aa:	f3 48 a5             	rep movsq %ds:(%rsi),%es:(%rdi)
   146ad:	48 8d 05 14 f3 00 00 	lea    0xf314(%rip),%rax        # 239c8 <g_235>
   146b4:	48 89 85 d8 e7 ff ff 	mov    %rax,-0x1828(%rbp)
   146bb:	8b 85 40 f1 ff ff    	mov    -0xec0(%rbp),%eax
   146c1:	83 c0 01             	add    $0x1,%eax
   146c4:	89 85 40 f1 ff ff    	mov    %eax,-0xec0(%rbp)
   146ca:	48 8b 85 e0 e6 ff ff 	mov    -0x1920(%rbp),%rax
   146d1:	48 8b 00             	mov    (%rax),%rax
   146d4:	8b 00                	mov    (%rax),%eax
   146d6:	23 85 bc e5 ff ff    	and    -0x1a44(%rbp),%eax
   146dc:	85 c0                	test   %eax,%eax
   146de:	0f 85 f7 00 00 00    	jne    147db <func_34+0x1576>
   146e4:	8b 9d c8 e5 ff ff    	mov    -0x1a38(%rbp),%ebx
   146ea:	be 04 00 00 00       	mov    $0x4,%esi
   146ef:	bf 01 00 00 00       	mov    $0x1,%edi
   146f4:	e8 e8 2d ff ff       	callq  74e1 <safe_lshift_func_int16_t_s_u>
   146f9:	0f bf d0             	movswl %ax,%edx
   146fc:	48 83 bd 98 e7 ff ff 	cmpq   $0x0,-0x1868(%rbp)
   14703:	00 
   14704:	0f 94 c0             	sete   %al
   14707:	0f b6 c0             	movzbl %al,%eax
   1470a:	89 d6                	mov    %edx,%esi
   1470c:	89 c7                	mov    %eax,%edi
   1470e:	e8 ce 2d ff ff       	callq  74e1 <safe_lshift_func_int16_t_s_u>
   14713:	48 0f bf d0          	movswq %ax,%rdx
   14717:	48 8b 05 9a aa 00 00 	mov    0xaa9a(%rip),%rax        # 1f1b8 <g_264+0x118>
   1471e:	48 39 c2             	cmp    %rax,%rdx
   14721:	0f 95 c0             	setne  %al
   14724:	0f b6 c0             	movzbl %al,%eax
   14727:	33 85 c0 e5 ff ff    	xor    -0x1a40(%rbp),%eax
   1472d:	39 85 c8 e5 ff ff    	cmp    %eax,-0x1a38(%rbp)
   14733:	0f 9c c0             	setl   %al
   14736:	0f b6 c0             	movzbl %al,%eax
   14739:	8b 95 c0 e5 ff ff    	mov    -0x1a40(%rbp),%edx
   1473f:	09 d0                	or     %edx,%eax
   14741:	0f b7 d0             	movzwl %ax,%edx
   14744:	8b 85 c8 e5 ff ff    	mov    -0x1a38(%rbp),%eax
   1474a:	66 89 05 13 a9 00 00 	mov    %ax,0xa913(%rip)        # 1f064 <g_77>
   14751:	0f b7 05 0c a9 00 00 	movzwl 0xa90c(%rip),%eax        # 1f064 <g_77>
   14758:	0f b7 c0             	movzwl %ax,%eax
   1475b:	89 d6                	mov    %edx,%esi
   1475d:	89 c7                	mov    %eax,%edi
   1475f:	e8 bb 35 ff ff       	callq  7d1f <safe_sub_func_uint16_t_u_u>
   14764:	66 83 f8 09          	cmp    $0x9,%ax
   14768:	0f 96 c0             	setbe  %al
   1476b:	0f b6 c0             	movzbl %al,%eax
   1476e:	8b 95 c8 e5 ff ff    	mov    -0x1a38(%rbp),%edx
   14774:	89 d6                	mov    %edx,%esi
   14776:	89 c7                	mov    %eax,%edi
   14778:	e8 41 36 ff ff       	callq  7dbe <safe_lshift_func_uint16_t_u_s>
   1477d:	0f b7 c0             	movzwl %ax,%eax
   14780:	89 c6                	mov    %eax,%esi
   14782:	bf 00 00 00 00       	mov    $0x0,%edi
   14787:	e8 73 2f ff ff       	callq  76ff <safe_div_func_int32_t_s_s>
   1478c:	0f b7 c0             	movzwl %ax,%eax
   1478f:	be 3b da 00 00       	mov    $0xda3b,%esi
   14794:	89 c7                	mov    %eax,%edi
   14796:	e8 64 35 ff ff       	callq  7cff <safe_add_func_uint16_t_u_u>
   1479b:	0f b7 d0             	movzwl %ax,%edx
   1479e:	8b 05 bc a8 00 00    	mov    0xa8bc(%rip),%eax        # 1f060 <g_69>
   147a4:	39 c2                	cmp    %eax,%edx
   147a6:	0f 94 c0             	sete   %al
   147a9:	0f b6 c0             	movzbl %al,%eax
   147ac:	89 de                	mov    %ebx,%esi
   147ae:	89 c7                	mov    %eax,%edi
   147b0:	e8 09 35 ff ff       	callq  7cbe <safe_rshift_func_uint8_t_u_u>
   147b5:	48 8b 85 38 e7 ff ff 	mov    -0x18c8(%rbp),%rax
   147bc:	48 8b 00             	mov    (%rax),%rax
   147bf:	48 8b 00             	mov    (%rax),%rax
   147c2:	48 8b 00             	mov    (%rax),%rax
   147c5:	8b 00                	mov    (%rax),%eax
   147c7:	0f b7 c0             	movzwl %ax,%eax
   147ca:	be 67 1a 00 00       	mov    $0x1a67,%esi
   147cf:	89 c7                	mov    %eax,%edi
   147d1:	e8 49 35 ff ff       	callq  7d1f <safe_sub_func_uint16_t_u_u>
   147d6:	66 85 c0             	test   %ax,%ax
   147d9:	74 08                	je     147e3 <func_34+0x157e>
   147db:	83 bd 28 e6 ff ff 00 	cmpl   $0x0,-0x19d8(%rbp)
   147e2:	90                   	nop
   147e3:	8b 85 38 eb ff ff    	mov    -0x14c8(%rbp),%eax
   147e9:	39 85 bc e5 ff ff    	cmp    %eax,-0x1a44(%rbp)
   147ef:	0f 8e 88 01 00 00    	jle    1497d <func_34+0x1718>
   147f5:	66 c7 85 8c e5 ff ff 	movw   $0xe687,-0x1a74(%rbp)
   147fc:	87 e6 
   147fe:	c7 85 9c e5 ff ff 00 	movl   $0x0,-0x1a64(%rbp)
   14805:	00 00 00 
   14808:	e9 41 01 00 00       	jmpq   1494e <func_34+0x16e9>
   1480d:	48 8d 05 e4 a9 00 00 	lea    0xa9e4(%rip),%rax        # 1f1f8 <g_333>
   14814:	48 89 85 30 e7 ff ff 	mov    %rax,-0x18d0(%rbp)
   1481b:	48 8d 85 30 e7 ff ff 	lea    -0x18d0(%rbp),%rax
   14822:	48 89 85 e0 e7 ff ff 	mov    %rax,-0x1820(%rbp)
   14829:	c7 85 2c e6 ff ff 00 	movl   $0x0,-0x19d4(%rbp)
   14830:	00 00 00 
   14833:	0f b7 85 8c e5 ff ff 	movzwl -0x1a74(%rbp),%eax
   1483a:	0f b6 d8             	movzbl %al,%ebx
   1483d:	44 8b a5 38 eb ff ff 	mov    -0x14c8(%rbp),%r12d
   14844:	48 83 bd a0 e7 ff ff 	cmpq   $0x0,-0x1860(%rbp)
   1484b:	00 
   1484c:	0f 95 c0             	setne  %al
   1484f:	0f b6 c0             	movzbl %al,%eax
   14852:	be 06 00 00 00       	mov    $0x6,%esi
   14857:	89 c7                	mov    %eax,%edi
   14859:	e8 60 35 ff ff       	callq  7dbe <safe_lshift_func_uint16_t_u_s>
   1485e:	0f b7 c8             	movzwl %ax,%ecx
   14861:	48 8b 95 30 e7 ff ff 	mov    -0x18d0(%rbp),%rdx
   14868:	48 8b 85 e0 e7 ff ff 	mov    -0x1820(%rbp),%rax
   1486f:	48 89 10             	mov    %rdx,(%rax)
   14872:	48 8b 85 e0 e7 ff ff 	mov    -0x1820(%rbp),%rax
   14879:	48 8b 10             	mov    (%rax),%rdx
   1487c:	48 8b 85 08 e7 ff ff 	mov    -0x18f8(%rbp),%rax
   14883:	48 39 c2             	cmp    %rax,%rdx
   14886:	0f 95 c0             	setne  %al
   14889:	0f b6 c0             	movzbl %al,%eax
   1488c:	39 c1                	cmp    %eax,%ecx
   1488e:	0f 9c c0             	setl   %al
   14891:	0f b6 c0             	movzbl %al,%eax
   14894:	41 39 c4             	cmp    %eax,%r12d
   14897:	c7 85 c8 e5 ff ff 00 	movl   $0x0,-0x1a38(%rbp)
   1489e:	00 00 00 
   148a1:	8b 85 c8 e5 ff ff    	mov    -0x1a38(%rbp),%eax
   148a7:	0f b6 c0             	movzbl %al,%eax
   148aa:	89 de                	mov    %ebx,%esi
   148ac:	89 c7                	mov    %eax,%edi
   148ae:	e8 fb 32 ff ff       	callq  7bae <safe_mod_func_uint8_t_u_u>
   148b3:	84 c0                	test   %al,%al
   148b5:	74 13                	je     148ca <func_34+0x1665>
   148b7:	48 8b 05 3a a9 00 00 	mov    0xa93a(%rip),%rax        # 1f1f8 <g_333>
   148be:	48 85 c0             	test   %rax,%rax
   148c1:	74 07                	je     148ca <func_34+0x1665>
   148c3:	b8 01 00 00 00       	mov    $0x1,%eax
   148c8:	eb 05                	jmp    148cf <func_34+0x166a>
   148ca:	b8 00 00 00 00       	mov    $0x0,%eax
   148cf:	3b 85 2c e6 ff ff    	cmp    -0x19d4(%rbp),%eax
   148d5:	0f 9d c0             	setge  %al
   148d8:	0f b6 c0             	movzbl %al,%eax
   148db:	89 85 bc e5 ff ff    	mov    %eax,-0x1a44(%rbp)
   148e1:	8b 85 28 e6 ff ff    	mov    -0x19d8(%rbp),%eax
   148e7:	89 c6                	mov    %eax,%esi
   148e9:	bf 6b 35 8f 61       	mov    $0x618f356b,%edi
   148ee:	e8 12 2d ff ff       	callq  7605 <safe_sub_func_int32_t_s_s>
   148f3:	48 8b 85 c8 ee ff ff 	mov    -0x1138(%rbp),%rax
   148fa:	48 39 85 d8 e7 ff ff 	cmp    %rax,-0x1828(%rbp)
   14901:	0f 94 c0             	sete   %al
   14904:	0f b6 d0             	movzbl %al,%edx
   14907:	48 8b 05 f2 a8 00 00 	mov    0xa8f2(%rip),%rax        # 1f200 <g_347>
   1490e:	48 c1 e8 20          	shr    $0x20,%rax
   14912:	66 25 ff 01          	and    $0x1ff,%ax
   14916:	0f b7 c0             	movzwl %ax,%eax
   14919:	31 95 c8 e5 ff ff    	xor    %edx,-0x1a38(%rbp)
   1491f:	39 85 c8 e5 ff ff    	cmp    %eax,-0x1a38(%rbp)
   14925:	0f 9e c0             	setle  %al
   14928:	0f b6 c8             	movzbl %al,%ecx
   1492b:	48 8b 05 76 f0 00 00 	mov    0xf076(%rip),%rax        # 239a8 <g_106>
   14932:	8b 10                	mov    (%rax),%edx
   14934:	48 8b 05 6d f0 00 00 	mov    0xf06d(%rip),%rax        # 239a8 <g_106>
   1493b:	21 ca                	and    %ecx,%edx
   1493d:	89 10                	mov    %edx,(%rax)
   1493f:	8b 85 9c e5 ff ff    	mov    -0x1a64(%rbp),%eax
   14945:	83 c0 01             	add    $0x1,%eax
   14948:	89 85 9c e5 ff ff    	mov    %eax,-0x1a64(%rbp)
   1494e:	8b 85 9c e5 ff ff    	mov    -0x1a64(%rbp),%eax
   14954:	83 f8 08             	cmp    $0x8,%eax
   14957:	0f 87 b0 fe ff ff    	ja     1480d <func_34+0x15a8>
   1495d:	48 8b 05 f6 a9 00 00 	mov    0xa9f6(%rip),%rax        # 1f35a <g_439+0xa>
   14964:	48 85 c0             	test   %rax,%rax
   14967:	74 05                	je     1496e <func_34+0x1709>
   14969:	e9 4d fd ff ff       	jmpq   146bb <func_34+0x1456>
   1496e:	8b 05 ee a9 00 00    	mov    0xa9ee(%rip),%eax        # 1f362 <g_439+0x12>
   14974:	85 c0                	test   %eax,%eax
   14976:	74 5c                	je     149d4 <func_34+0x176f>
   14978:	e9 3e fd ff ff       	jmpq   146bb <func_34+0x1456>
   1497d:	8b 05 dd a6 00 00    	mov    0xa6dd(%rip),%eax        # 1f060 <g_69>
   14983:	85 c0                	test   %eax,%eax
   14985:	0f 85 bf 19 00 00    	jne    1634a <func_34+0x30e5>
   1498b:	48 8b 05 26 f0 00 00 	mov    0xf026(%rip),%rax        # 239b8 <g_113>
   14992:	48 8b 00             	mov    (%rax),%rax
   14995:	48 8b 10             	mov    (%rax),%rdx
   14998:	48 8b 05 09 f0 00 00 	mov    0xf009(%rip),%rax        # 239a8 <g_106>
   1499f:	8b 12                	mov    (%rdx),%edx
   149a1:	89 10                	mov    %edx,(%rax)
   149a3:	eb 2f                	jmp    149d4 <func_34+0x176f>
   149a5:	48 8d 05 c4 a9 00 00 	lea    0xa9c4(%rip),%rax        # 1f370 <g_446>
   149ac:	48 89 85 30 e7 ff ff 	mov    %rax,-0x18d0(%rbp)
   149b3:	48 8d 85 30 e7 ff ff 	lea    -0x18d0(%rbp),%rax
   149ba:	48 89 85 d0 e7 ff ff 	mov    %rax,-0x1830(%rbp)
   149c1:	48 8b 85 d0 e7 ff ff 	mov    -0x1830(%rbp),%rax
   149c8:	48 8d 15 a1 a9 00 00 	lea    0xa9a1(%rip),%rdx        # 1f370 <g_446>
   149cf:	48 89 10             	mov    %rdx,(%rax)
   149d2:	eb 01                	jmp    149d5 <func_34+0x1770>
   149d4:	90                   	nop
   149d5:	48 8b 85 38 e7 ff ff 	mov    -0x18c8(%rbp),%rax
   149dc:	48 8b 00             	mov    (%rax),%rax
   149df:	48 8b 00             	mov    (%rax),%rax
   149e2:	48 8b 00             	mov    (%rax),%rax
   149e5:	8b 00                	mov    (%rax),%eax
   149e7:	0f b7 c0             	movzwl %ax,%eax
   149ea:	48 8b 95 68 e5 ff ff 	mov    -0x1a98(%rbp),%rdx
   149f1:	c6 02 fa             	movb   $0xfa,(%rdx)
   149f4:	89 c6                	mov    %eax,%esi
   149f6:	bf 01 00 00 00       	mov    $0x1,%edi
   149fb:	e8 8e 33 ff ff       	callq  7d8e <safe_div_func_uint16_t_u_u>
   14a00:	0f be d8             	movsbl %al,%ebx
   14a03:	0f bf 85 82 e5 ff ff 	movswl -0x1a7e(%rbp),%eax
   14a0a:	48 8b 15 49 a9 00 00 	mov    0xa949(%rip),%rdx        # 1f35a <g_439+0xa>
   14a11:	89 c6                	mov    %eax,%esi
   14a13:	89 d7                	mov    %edx,%edi
   14a15:	e8 0b 35 ff ff       	callq  7f25 <safe_div_func_uint32_t_u_u>
   14a1a:	f7 d0                	not    %eax
   14a1c:	0f be c0             	movsbl %al,%eax
   14a1f:	89 de                	mov    %ebx,%esi
   14a21:	89 c7                	mov    %eax,%edi
   14a23:	e8 ca 27 ff ff       	callq  71f2 <safe_sub_func_int8_t_s_s>
   14a28:	0f be d0             	movsbl %al,%edx
   14a2b:	48 8b 85 e0 e6 ff ff 	mov    -0x1920(%rbp),%rax
   14a32:	48 8b 00             	mov    (%rax),%rax
   14a35:	8b 00                	mov    (%rax),%eax
   14a37:	0f b7 c0             	movzwl %ax,%eax
   14a3a:	89 d6                	mov    %edx,%esi
   14a3c:	89 c7                	mov    %eax,%edi
   14a3e:	e8 7b 33 ff ff       	callq  7dbe <safe_lshift_func_uint16_t_u_s>
   14a43:	89 c2                	mov    %eax,%edx
   14a45:	48 8b 85 d8 e6 ff ff 	mov    -0x1928(%rbp),%rax
   14a4c:	66 89 10             	mov    %dx,(%rax)
   14a4f:	0f b7 00             	movzwl (%rax),%eax
   14a52:	66 39 85 84 e5 ff ff 	cmp    %ax,-0x1a7c(%rbp)
   14a59:	0f 9c c0             	setl   %al
   14a5c:	0f b6 d0             	movzbl %al,%edx
   14a5f:	8b 05 f3 a5 00 00    	mov    0xa5f3(%rip),%eax        # 1f058 <g_45>
   14a65:	21 d0                	and    %edx,%eax
   14a67:	89 05 eb a5 00 00    	mov    %eax,0xa5eb(%rip)        # 1f058 <g_45>
   14a6d:	48 8b 15 50 a7 00 00 	mov    0xa750(%rip),%rdx        # 1f1c4 <g_264+0x124>
   14a74:	48 8b 85 e0 e6 ff ff 	mov    -0x1920(%rbp),%rax
   14a7b:	48 8b 00             	mov    (%rax),%rax
   14a7e:	8b 08                	mov    (%rax),%ecx
   14a80:	8b 85 c0 e5 ff ff    	mov    -0x1a40(%rbp),%eax
   14a86:	89 05 28 a7 00 00    	mov    %eax,0xa728(%rip)        # 1f1b4 <g_264+0x114>
   14a8c:	8b 05 22 a7 00 00    	mov    0xa722(%rip),%eax        # 1f1b4 <g_264+0x114>
   14a92:	39 c1                	cmp    %eax,%ecx
   14a94:	0f 94 c0             	sete   %al
   14a97:	0f b6 c0             	movzbl %al,%eax
   14a9a:	48 39 c2             	cmp    %rax,%rdx
   14a9d:	76 1a                	jbe    14ab9 <func_34+0x1854>
   14a9f:	0f b7 85 60 f6 ff ff 	movzwl -0x9a0(%rbp),%eax
   14aa6:	66 25 ff 0f          	and    $0xfff,%ax
   14aaa:	88 05 c4 a8 00 00    	mov    %al,0xa8c4(%rip)        # 1f374 <g_475>
   14ab0:	0f b6 05 bd a8 00 00 	movzbl 0xa8bd(%rip),%eax        # 1f374 <g_475>
   14ab7:	84 c0                	test   %al,%al
   14ab9:	48 8b 05 10 ef 00 00 	mov    0xef10(%rip),%rax        # 239d0 <g_234>
   14ac0:	48 8b 00             	mov    (%rax),%rax
   14ac3:	0f b6 00             	movzbl (%rax),%eax
   14ac6:	0f be d0             	movsbl %al,%edx
   14ac9:	48 8b 85 a8 e7 ff ff 	mov    -0x1858(%rbp),%rax
   14ad0:	48 3b 85 40 e7 ff ff 	cmp    -0x18c0(%rbp),%rax
   14ad7:	0f 94 c0             	sete   %al
   14ada:	0f b6 c0             	movzbl %al,%eax
   14add:	39 c2                	cmp    %eax,%edx
   14adf:	0f 85 d9 17 00 00    	jne    162be <func_34+0x3059>
   14ae5:	48 8d 85 76 e5 ff ff 	lea    -0x1a8a(%rbp),%rax
   14aec:	48 89 85 60 ea ff ff 	mov    %rax,-0x15a0(%rbp)
   14af3:	48 8d 85 76 e5 ff ff 	lea    -0x1a8a(%rbp),%rax
   14afa:	48 89 85 68 ea ff ff 	mov    %rax,-0x1598(%rbp)
   14b01:	48 8d 05 68 a5 00 00 	lea    0xa568(%rip),%rax        # 1f070 <g_120>
   14b08:	48 89 85 70 ea ff ff 	mov    %rax,-0x1590(%rbp)
   14b0f:	48 8d 85 76 e5 ff ff 	lea    -0x1a8a(%rbp),%rax
   14b16:	48 89 85 78 ea ff ff 	mov    %rax,-0x1588(%rbp)
   14b1d:	48 8d 05 4c a5 00 00 	lea    0xa54c(%rip),%rax        # 1f070 <g_120>
   14b24:	48 89 85 80 ea ff ff 	mov    %rax,-0x1580(%rbp)
   14b2b:	48 8d 85 76 e5 ff ff 	lea    -0x1a8a(%rbp),%rax
   14b32:	48 89 85 88 ea ff ff 	mov    %rax,-0x1578(%rbp)
   14b39:	48 8d 85 76 e5 ff ff 	lea    -0x1a8a(%rbp),%rax
   14b40:	48 89 85 90 ea ff ff 	mov    %rax,-0x1570(%rbp)
   14b47:	48 8d 05 22 a5 00 00 	lea    0xa522(%rip),%rax        # 1f070 <g_120>
   14b4e:	48 89 85 98 ea ff ff 	mov    %rax,-0x1568(%rbp)
   14b55:	48 8d 85 76 e5 ff ff 	lea    -0x1a8a(%rbp),%rax
   14b5c:	48 89 85 a0 ea ff ff 	mov    %rax,-0x1560(%rbp)
   14b63:	48 8d 05 06 a5 00 00 	lea    0xa506(%rip),%rax        # 1f070 <g_120>
   14b6a:	48 89 85 a8 ea ff ff 	mov    %rax,-0x1558(%rbp)
   14b71:	c7 85 20 ed ff ff 01 	movl   $0x1,-0x12e0(%rbp)
   14b78:	00 00 00 
   14b7b:	c7 85 24 ed ff ff ff 	movl   $0xffffffff,-0x12dc(%rbp)
   14b82:	ff ff ff 
   14b85:	c7 85 28 ed ff ff 5b 	movl   $0xd4b1aa5b,-0x12d8(%rbp)
   14b8c:	aa b1 d4 
   14b8f:	c7 85 2c ed ff ff 04 	movl   $0x4,-0x12d4(%rbp)
   14b96:	00 00 00 
   14b99:	c7 85 30 ed ff ff fe 	movl   $0xfffffffe,-0x12d0(%rbp)
   14ba0:	ff ff ff 
   14ba3:	c7 85 34 ed ff ff 00 	movl   $0x0,-0x12cc(%rbp)
   14baa:	00 00 00 
   14bad:	c7 85 38 ed ff ff 01 	movl   $0x1,-0x12c8(%rbp)
   14bb4:	00 00 00 
   14bb7:	c7 85 3c ed ff ff 0a 	movl   $0x7b4f540a,-0x12c4(%rbp)
   14bbe:	54 4f 7b 
   14bc1:	c7 85 40 ed ff ff 89 	movl   $0xc87af089,-0x12c0(%rbp)
   14bc8:	f0 7a c8 
   14bcb:	c7 85 44 ed ff ff 89 	movl   $0xc87af089,-0x12bc(%rbp)
   14bd2:	f0 7a c8 
   14bd5:	c7 85 48 ed ff ff 0a 	movl   $0x7b4f540a,-0x12b8(%rbp)
   14bdc:	54 4f 7b 
   14bdf:	c7 85 4c ed ff ff 01 	movl   $0x1,-0x12b4(%rbp)
   14be6:	00 00 00 
   14be9:	c7 85 50 ed ff ff 00 	movl   $0x0,-0x12b0(%rbp)
   14bf0:	00 00 00 
   14bf3:	c7 85 54 ed ff ff fe 	movl   $0xfffffffe,-0x12ac(%rbp)
   14bfa:	ff ff ff 
   14bfd:	c7 85 58 ed ff ff 04 	movl   $0x4,-0x12a8(%rbp)
   14c04:	00 00 00 
   14c07:	c7 85 5c ed ff ff 5b 	movl   $0xd4b1aa5b,-0x12a4(%rbp)
   14c0e:	aa b1 d4 
   14c11:	c7 85 60 ed ff ff ff 	movl   $0xffffffff,-0x12a0(%rbp)
   14c18:	ff ff ff 
   14c1b:	c7 85 64 ed ff ff 01 	movl   $0x1,-0x129c(%rbp)
   14c22:	00 00 00 
   14c25:	c7 85 68 ed ff ff ff 	movl   $0xffffffff,-0x1298(%rbp)
   14c2c:	ff ff ff 
   14c2f:	c7 85 6c ed ff ff 5b 	movl   $0xd4b1aa5b,-0x1294(%rbp)
   14c36:	aa b1 d4 
   14c39:	c7 85 70 ed ff ff 04 	movl   $0x4,-0x1290(%rbp)
   14c40:	00 00 00 
   14c43:	c7 85 74 ed ff ff fe 	movl   $0xfffffffe,-0x128c(%rbp)
   14c4a:	ff ff ff 
   14c4d:	c7 85 78 ed ff ff 00 	movl   $0x0,-0x1288(%rbp)
   14c54:	00 00 00 
   14c57:	c7 85 7c ed ff ff 01 	movl   $0x1,-0x1284(%rbp)
   14c5e:	00 00 00 
   14c61:	c7 85 80 ed ff ff 0a 	movl   $0x7b4f540a,-0x1280(%rbp)
   14c68:	54 4f 7b 
   14c6b:	c7 85 84 ed ff ff 89 	movl   $0xc87af089,-0x127c(%rbp)
   14c72:	f0 7a c8 
   14c75:	c7 85 88 ed ff ff 89 	movl   $0xc87af089,-0x1278(%rbp)
   14c7c:	f0 7a c8 
   14c7f:	c7 85 8c ed ff ff 0a 	movl   $0x7b4f540a,-0x1274(%rbp)
   14c86:	54 4f 7b 
   14c89:	c7 85 90 ed ff ff 01 	movl   $0x1,-0x1270(%rbp)
   14c90:	00 00 00 
   14c93:	c7 85 94 ed ff ff 00 	movl   $0x0,-0x126c(%rbp)
   14c9a:	00 00 00 
   14c9d:	c7 85 98 ed ff ff fe 	movl   $0xfffffffe,-0x1268(%rbp)
   14ca4:	ff ff ff 
   14ca7:	c7 85 9c ed ff ff 04 	movl   $0x4,-0x1264(%rbp)
   14cae:	00 00 00 
   14cb1:	c7 85 a0 ed ff ff 5b 	movl   $0xd4b1aa5b,-0x1260(%rbp)
   14cb8:	aa b1 d4 
   14cbb:	c7 85 a4 ed ff ff ff 	movl   $0xffffffff,-0x125c(%rbp)
   14cc2:	ff ff ff 
   14cc5:	c7 85 a8 ed ff ff 01 	movl   $0x1,-0x1258(%rbp)
   14ccc:	00 00 00 
   14ccf:	c7 85 ac ed ff ff ff 	movl   $0xffffffff,-0x1254(%rbp)
   14cd6:	ff ff ff 
   14cd9:	c7 85 b0 ed ff ff 5b 	movl   $0xd4b1aa5b,-0x1250(%rbp)
   14ce0:	aa b1 d4 
   14ce3:	c7 85 b4 ed ff ff 04 	movl   $0x4,-0x124c(%rbp)
   14cea:	00 00 00 
   14ced:	c7 85 b8 ed ff ff fe 	movl   $0xfffffffe,-0x1248(%rbp)
   14cf4:	ff ff ff 
   14cf7:	c7 85 bc ed ff ff 00 	movl   $0x0,-0x1244(%rbp)
   14cfe:	00 00 00 
   14d01:	c7 85 c0 ed ff ff 01 	movl   $0x1,-0x1240(%rbp)
   14d08:	00 00 00 
   14d0b:	c7 85 c4 ed ff ff 0a 	movl   $0x7b4f540a,-0x123c(%rbp)
   14d12:	54 4f 7b 
   14d15:	c7 85 c8 ed ff ff 89 	movl   $0xc87af089,-0x1238(%rbp)
   14d1c:	f0 7a c8 
   14d1f:	c7 85 cc ed ff ff 89 	movl   $0xc87af089,-0x1234(%rbp)
   14d26:	f0 7a c8 
   14d29:	c7 85 d0 ed ff ff 0a 	movl   $0x7b4f540a,-0x1230(%rbp)
   14d30:	54 4f 7b 
   14d33:	c7 85 d4 ed ff ff 01 	movl   $0x1,-0x122c(%rbp)
   14d3a:	00 00 00 
   14d3d:	c7 85 d8 ed ff ff 00 	movl   $0x0,-0x1228(%rbp)
   14d44:	00 00 00 
   14d47:	c7 85 dc ed ff ff fe 	movl   $0xfffffffe,-0x1224(%rbp)
   14d4e:	ff ff ff 
   14d51:	c7 85 e0 ed ff ff 04 	movl   $0x4,-0x1220(%rbp)
   14d58:	00 00 00 
   14d5b:	c7 85 e4 ed ff ff 5b 	movl   $0xd4b1aa5b,-0x121c(%rbp)
   14d62:	aa b1 d4 
   14d65:	48 c7 85 18 e7 ff ff 	movq   $0x0,-0x18e8(%rbp)
   14d6c:	00 00 00 00 
   14d70:	48 8d 05 81 a4 00 00 	lea    0xa481(%rip),%rax        # 1f1f8 <g_333>
   14d77:	48 89 85 00 e8 ff ff 	mov    %rax,-0x1800(%rbp)
   14d7e:	48 8d 85 d8 e6 ff ff 	lea    -0x1928(%rbp),%rax
   14d85:	48 89 85 70 e9 ff ff 	mov    %rax,-0x1690(%rbp)
   14d8c:	48 8d 85 d8 e6 ff ff 	lea    -0x1928(%rbp),%rax
   14d93:	48 89 85 78 e9 ff ff 	mov    %rax,-0x1688(%rbp)
   14d9a:	48 8d 85 d8 e6 ff ff 	lea    -0x1928(%rbp),%rax
   14da1:	48 89 85 80 e9 ff ff 	mov    %rax,-0x1680(%rbp)
   14da8:	48 8d 85 d8 e6 ff ff 	lea    -0x1928(%rbp),%rax
   14daf:	48 89 85 88 e9 ff ff 	mov    %rax,-0x1678(%rbp)
   14db6:	48 8d 85 d8 e6 ff ff 	lea    -0x1928(%rbp),%rax
   14dbd:	48 89 85 90 e9 ff ff 	mov    %rax,-0x1670(%rbp)
   14dc4:	48 8d 85 d8 e6 ff ff 	lea    -0x1928(%rbp),%rax
   14dcb:	48 89 85 98 e9 ff ff 	mov    %rax,-0x1668(%rbp)
   14dd2:	48 8d 85 d8 e6 ff ff 	lea    -0x1928(%rbp),%rax
   14dd9:	48 89 85 a0 e9 ff ff 	mov    %rax,-0x1660(%rbp)
   14de0:	48 8d 85 d8 e6 ff ff 	lea    -0x1928(%rbp),%rax
   14de7:	48 89 85 a8 e9 ff ff 	mov    %rax,-0x1658(%rbp)
   14dee:	48 8d 85 d8 e6 ff ff 	lea    -0x1928(%rbp),%rax
   14df5:	48 89 85 b0 e9 ff ff 	mov    %rax,-0x1650(%rbp)
   14dfc:	c7 05 6a a5 00 00 01 	movl   $0x1,0xa56a(%rip)        # 1f370 <g_446>
   14e03:	00 00 00 
   14e06:	e9 9f 14 00 00       	jmpq   162aa <func_34+0x3045>
   14e0b:	48 c7 85 08 e8 ff ff 	movq   $0x1,-0x17f8(%rbp)
   14e12:	01 00 00 00 
   14e16:	48 c7 85 20 e7 ff ff 	movq   $0x0,-0x18e0(%rbp)
   14e1d:	00 00 00 00 
   14e21:	c7 85 20 e7 ff ff 03 	movl   $0x3,-0x18e0(%rbp)
   14e28:	00 00 00 
   14e2b:	48 8d 85 a0 e5 ff ff 	lea    -0x1a60(%rbp),%rax
   14e32:	48 89 85 10 e8 ff ff 	mov    %rax,-0x17f0(%rbp)
   14e39:	c6 85 7c e5 ff ff ff 	movb   $0xff,-0x1a84(%rbp)
   14e40:	c7 85 cc e5 ff ff 01 	movl   $0x1,-0x1a34(%rbp)
   14e47:	00 00 00 
   14e4a:	c7 85 a4 e5 ff ff db 	movl   $0x4229f0db,-0x1a5c(%rbp)
   14e51:	f0 29 42 
   14e54:	c7 85 34 e6 ff ff 31 	movl   $0xd5feb731,-0x19cc(%rbp)
   14e5b:	b7 fe d5 
   14e5e:	c7 85 38 e6 ff ff 3c 	movl   $0x9d5f1b3c,-0x19c8(%rbp)
   14e65:	1b 5f 9d 
   14e68:	66 c7 85 92 e5 ff ff 	movw   $0xfffc,-0x1a6e(%rbp)
   14e6f:	fc ff 
   14e71:	48 8d 85 f8 e6 ff ff 	lea    -0x1908(%rbp),%rax
   14e78:	48 89 85 18 e8 ff ff 	mov    %rax,-0x17e8(%rbp)
   14e7f:	66 c7 85 94 e5 ff ff 	movw   $0xf80f,-0x1a6c(%rbp)
   14e86:	0f f8 
   14e88:	48 8d 85 d8 e6 ff ff 	lea    -0x1928(%rbp),%rax
   14e8f:	48 89 85 20 e8 ff ff 	mov    %rax,-0x17e0(%rbp)
   14e96:	c7 85 d0 e5 ff ff 00 	movl   $0x0,-0x1a30(%rbp)
   14e9d:	00 00 00 
   14ea0:	eb 1a                	jmp    14ebc <func_34+0x1c57>
   14ea2:	8b 85 d0 e5 ff ff    	mov    -0x1a30(%rbp),%eax
   14ea8:	48 98                	cltq   
   14eaa:	c7 84 85 44 e9 ff ff 	movl   $0x22dd39d9,-0x16bc(%rbp,%rax,4)
   14eb1:	d9 39 dd 22 
   14eb5:	83 85 d0 e5 ff ff 01 	addl   $0x1,-0x1a30(%rbp)
   14ebc:	83 bd d0 e5 ff ff 02 	cmpl   $0x2,-0x1a30(%rbp)
   14ec3:	7e dd                	jle    14ea2 <func_34+0x1c3d>
   14ec5:	48 c7 05 0a a3 00 00 	movq   $0x3,0xa30a(%rip)        # 1f1da <g_277+0xa>
   14ecc:	03 00 00 00 
   14ed0:	e9 0f 05 00 00       	jmpq   153e4 <func_34+0x217f>
   14ed5:	48 8d 05 ac a4 00 00 	lea    0xa4ac(%rip),%rax        # 1f388 <g_478+0x8>
   14edc:	48 89 85 28 e7 ff ff 	mov    %rax,-0x18d8(%rbp)
   14ee3:	48 8d 85 28 e7 ff ff 	lea    -0x18d8(%rbp),%rax
   14eea:	48 89 85 40 f8 ff ff 	mov    %rax,-0x7c0(%rbp)
   14ef1:	48 c7 85 48 f8 ff ff 	movq   $0x0,-0x7b8(%rbp)
   14ef8:	00 00 00 00 
   14efc:	48 8d 85 28 e7 ff ff 	lea    -0x18d8(%rbp),%rax
   14f03:	48 89 85 50 f8 ff ff 	mov    %rax,-0x7b0(%rbp)
   14f0a:	48 8d 85 28 e7 ff ff 	lea    -0x18d8(%rbp),%rax
   14f11:	48 89 85 58 f8 ff ff 	mov    %rax,-0x7a8(%rbp)
   14f18:	48 c7 85 60 f8 ff ff 	movq   $0x0,-0x7a0(%rbp)
   14f1f:	00 00 00 00 
   14f23:	48 8d 85 28 e7 ff ff 	lea    -0x18d8(%rbp),%rax
   14f2a:	48 89 85 68 f8 ff ff 	mov    %rax,-0x798(%rbp)
   14f31:	48 8d 85 28 e7 ff ff 	lea    -0x18d8(%rbp),%rax
   14f38:	48 89 85 70 f8 ff ff 	mov    %rax,-0x790(%rbp)
   14f3f:	48 c7 85 78 f8 ff ff 	movq   $0x0,-0x788(%rbp)
   14f46:	00 00 00 00 
   14f4a:	48 c7 85 80 f8 ff ff 	movq   $0x0,-0x780(%rbp)
   14f51:	00 00 00 00 
   14f55:	48 8d 85 28 e7 ff ff 	lea    -0x18d8(%rbp),%rax
   14f5c:	48 89 85 88 f8 ff ff 	mov    %rax,-0x778(%rbp)
   14f63:	48 8d 85 28 e7 ff ff 	lea    -0x18d8(%rbp),%rax
   14f6a:	48 89 85 90 f8 ff ff 	mov    %rax,-0x770(%rbp)
   14f71:	48 c7 85 98 f8 ff ff 	movq   $0x0,-0x768(%rbp)
   14f78:	00 00 00 00 
   14f7c:	48 8d 85 28 e7 ff ff 	lea    -0x18d8(%rbp),%rax
   14f83:	48 89 85 a0 f8 ff ff 	mov    %rax,-0x760(%rbp)
   14f8a:	48 8d 85 28 e7 ff ff 	lea    -0x18d8(%rbp),%rax
   14f91:	48 89 85 a8 f8 ff ff 	mov    %rax,-0x758(%rbp)
   14f98:	48 c7 85 b0 f8 ff ff 	movq   $0x0,-0x750(%rbp)
   14f9f:	00 00 00 00 
   14fa3:	48 c7 85 b8 f8 ff ff 	movq   $0x0,-0x748(%rbp)
   14faa:	00 00 00 00 
   14fae:	c7 85 3c e6 ff ff 33 	movl   $0x53744833,-0x19c4(%rbp)
   14fb5:	48 74 53 
   14fb8:	c7 85 40 eb ff ff f7 	movl   $0xfffffff7,-0x14c0(%rbp)
   14fbf:	ff ff ff 
   14fc2:	c7 85 44 eb ff ff f7 	movl   $0xfffffff7,-0x14bc(%rbp)
   14fc9:	ff ff ff 
   14fcc:	c7 85 48 eb ff ff ff 	movl   $0xffffffff,-0x14b8(%rbp)
   14fd3:	ff ff ff 
   14fd6:	c7 85 4c eb ff ff f7 	movl   $0xfffffff7,-0x14b4(%rbp)
   14fdd:	ff ff ff 
   14fe0:	c7 85 50 eb ff ff f7 	movl   $0xfffffff7,-0x14b0(%rbp)
   14fe7:	ff ff ff 
   14fea:	c7 85 54 eb ff ff ff 	movl   $0xffffffff,-0x14ac(%rbp)
   14ff1:	ff ff ff 
   14ff4:	c7 85 58 eb ff ff f7 	movl   $0xfffffff7,-0x14a8(%rbp)
   14ffb:	ff ff ff 
   14ffe:	c7 85 5c eb ff ff f7 	movl   $0xfffffff7,-0x14a4(%rbp)
   15005:	ff ff ff 
   15008:	c7 85 60 eb ff ff ff 	movl   $0xffffffff,-0x14a0(%rbp)
   1500f:	ff ff ff 
   15012:	c7 85 64 eb ff ff f7 	movl   $0xfffffff7,-0x149c(%rbp)
   15019:	ff ff ff 
   1501c:	c7 85 68 eb ff ff f7 	movl   $0xfffffff7,-0x1498(%rbp)
   15023:	ff ff ff 
   15026:	c7 85 6c eb ff ff ff 	movl   $0xffffffff,-0x1494(%rbp)
   1502d:	ff ff ff 
   15030:	c7 85 70 eb ff ff f7 	movl   $0xfffffff7,-0x1490(%rbp)
   15037:	ff ff ff 
   1503a:	c7 85 74 eb ff ff f7 	movl   $0xfffffff7,-0x148c(%rbp)
   15041:	ff ff ff 
   15044:	c7 85 78 eb ff ff ff 	movl   $0xffffffff,-0x1488(%rbp)
   1504b:	ff ff ff 
   1504e:	c7 85 7c eb ff ff f7 	movl   $0xfffffff7,-0x1484(%rbp)
   15055:	ff ff ff 
   15058:	c7 85 80 eb ff ff f7 	movl   $0xfffffff7,-0x1480(%rbp)
   1505f:	ff ff ff 
   15062:	c7 85 84 eb ff ff ff 	movl   $0xffffffff,-0x147c(%rbp)
   15069:	ff ff ff 
   1506c:	c7 85 88 eb ff ff f7 	movl   $0xfffffff7,-0x1478(%rbp)
   15073:	ff ff ff 
   15076:	c7 85 8c eb ff ff f7 	movl   $0xfffffff7,-0x1474(%rbp)
   1507d:	ff ff ff 
   15080:	c7 85 90 eb ff ff ff 	movl   $0xffffffff,-0x1470(%rbp)
   15087:	ff ff ff 
   1508a:	c7 85 94 eb ff ff f7 	movl   $0xfffffff7,-0x146c(%rbp)
   15091:	ff ff ff 
   15094:	c7 85 98 eb ff ff f7 	movl   $0xfffffff7,-0x1468(%rbp)
   1509b:	ff ff ff 
   1509e:	c7 85 9c eb ff ff ff 	movl   $0xffffffff,-0x1464(%rbp)
   150a5:	ff ff ff 
   150a8:	48 8b 85 28 e7 ff ff 	mov    -0x18d8(%rbp),%rax
   150af:	48 89 85 f8 e6 ff ff 	mov    %rax,-0x1908(%rbp)
   150b6:	48 8b 85 08 e8 ff ff 	mov    -0x17f8(%rbp),%rax
   150bd:	0f b7 d8             	movzwl %ax,%ebx
   150c0:	48 8b 05 a1 9f 00 00 	mov    0x9fa1(%rip),%rax        # 1f068 <g_101>
   150c7:	0f b6 d0             	movzbl %al,%edx
   150ca:	0f b6 05 bb 9f 00 00 	movzbl 0x9fbb(%rip),%eax        # 1f08c <g_230+0xc>
   150d1:	0f b6 c0             	movzbl %al,%eax
   150d4:	89 d6                	mov    %edx,%esi
   150d6:	89 c7                	mov    %eax,%edi
   150d8:	e8 b6 2a ff ff       	callq  7b93 <safe_mul_func_uint8_t_u_u>
   150dd:	0f b6 c0             	movzbl %al,%eax
   150e0:	89 c6                	mov    %eax,%esi
   150e2:	bf 01 00 00 00       	mov    $0x1,%edi
   150e7:	e8 ef 2a ff ff       	callq  7bdb <safe_div_func_uint8_t_u_u>
   150ec:	8b 85 3c e6 ff ff    	mov    -0x19c4(%rbp),%eax
   150f2:	0f b7 c0             	movzwl %ax,%eax
   150f5:	89 de                	mov    %ebx,%esi
   150f7:	89 c7                	mov    %eax,%edi
   150f9:	e8 3f 2c ff ff       	callq  7d3d <safe_mul_func_uint16_t_u_u>
   150fe:	0f b7 c0             	movzwl %ax,%eax
   15101:	48 8b 95 08 e8 ff ff 	mov    -0x17f8(%rbp),%rdx
   15108:	48 89 d6             	mov    %rdx,%rsi
   1510b:	48 89 c7             	mov    %rax,%rdi
   1510e:	e8 6d 2f ff ff       	callq  8080 <safe_mod_func_uint64_t_u_u>
   15113:	48 ba 01 4e a4 29 b5 	movabs $0x33c64db529a44e01,%rdx
   1511a:	4d c6 33 
   1511d:	48 39 d0             	cmp    %rdx,%rax
   15120:	0f 87 d1 00 00 00    	ja     151f7 <func_34+0x1f92>
   15126:	c7 85 40 e6 ff ff 06 	movl   $0x6,-0x19c0(%rbp)
   1512d:	00 00 00 
   15130:	c6 85 7d e5 ff ff 01 	movb   $0x1,-0x1a83(%rbp)
   15137:	8b 95 20 e7 ff ff    	mov    -0x18e0(%rbp),%edx
   1513d:	48 8b 85 88 ea ff ff 	mov    -0x1578(%rbp),%rax
   15144:	48 85 c0             	test   %rax,%rax
   15147:	0f 95 c0             	setne  %al
   1514a:	0f b6 c0             	movzbl %al,%eax
   1514d:	39 c2                	cmp    %eax,%edx
   1514f:	77 0a                	ja     1515b <func_34+0x1ef6>
   15151:	8b 05 fd 9e 00 00    	mov    0x9efd(%rip),%eax        # 1f054 <g_44>
   15157:	85 c0                	test   %eax,%eax
   15159:	74 07                	je     15162 <func_34+0x1efd>
   1515b:	ba 01 00 00 00       	mov    $0x1,%edx
   15160:	eb 05                	jmp    15167 <func_34+0x1f02>
   15162:	ba 00 00 00 00       	mov    $0x0,%edx
   15167:	48 8b 05 5a e8 00 00 	mov    0xe85a(%rip),%rax        # 239c8 <g_235>
   1516e:	88 10                	mov    %dl,(%rax)
   15170:	0f b6 00             	movzbl (%rax),%eax
   15173:	0f be d0             	movsbl %al,%edx
   15176:	8b 85 20 e7 ff ff    	mov    -0x18e0(%rbp),%eax
   1517c:	31 c2                	xor    %eax,%edx
   1517e:	8b 05 3c a0 00 00    	mov    0xa03c(%rip),%eax        # 1f1c0 <g_264+0x120>
   15184:	31 c2                	xor    %eax,%edx
   15186:	8b 85 3c e6 ff ff    	mov    -0x19c4(%rbp),%eax
   1518c:	31 c2                	xor    %eax,%edx
   1518e:	0f bf 85 84 e5 ff ff 	movswl -0x1a7c(%rbp),%eax
   15195:	39 c2                	cmp    %eax,%edx
   15197:	0f 93 c0             	setae  %al
   1519a:	0f b6 c0             	movzbl %al,%eax
   1519d:	be 01 00 00 00       	mov    $0x1,%esi
   151a2:	89 c7                	mov    %eax,%edi
   151a4:	e8 2a 22 ff ff       	callq  73d3 <safe_sub_func_int16_t_s_s>
   151a9:	b8 00 00 00 00       	mov    $0x0,%eax
   151ae:	3b 85 40 e6 ff ff    	cmp    -0x19c0(%rbp),%eax
   151b4:	0f 94 c0             	sete   %al
   151b7:	0f b6 c0             	movzbl %al,%eax
   151ba:	be 02 00 00 00       	mov    $0x2,%esi
   151bf:	89 c7                	mov    %eax,%edi
   151c1:	e8 f8 2b ff ff       	callq  7dbe <safe_lshift_func_uint16_t_u_s>
   151c6:	0f b7 c0             	movzwl %ax,%eax
   151c9:	39 85 3c e6 ff ff    	cmp    %eax,-0x19c4(%rbp)
   151cf:	0f 9d c0             	setge  %al
   151d2:	0f b6 c8             	movzbl %al,%ecx
   151d5:	48 8b 05 cc e7 00 00 	mov    0xe7cc(%rip),%rax        # 239a8 <g_106>
   151dc:	8b 10                	mov    (%rax),%edx
   151de:	48 8b 05 c3 e7 00 00 	mov    0xe7c3(%rip),%rax        # 239a8 <g_106>
   151e5:	21 ca                	and    %ecx,%edx
   151e7:	89 10                	mov    %edx,(%rax)
   151e9:	80 bd 7d e5 ff ff 00 	cmpb   $0x0,-0x1a83(%rbp)
   151f0:	74 20                	je     15212 <func_34+0x1fad>
   151f2:	e9 01 02 00 00       	jmpq   153f8 <func_34+0x2193>
   151f7:	83 bd ac e5 ff ff 00 	cmpl   $0x0,-0x1a54(%rbp)
   151fe:	74 05                	je     15205 <func_34+0x1fa0>
   15200:	e9 f1 f2 ff ff       	jmpq   144f6 <func_34+0x1291>
   15205:	83 bd 3c e6 ff ff 00 	cmpl   $0x0,-0x19c4(%rbp)
   1520c:	0f 85 e5 01 00 00    	jne    153f7 <func_34+0x2192>
   15212:	c7 05 46 a1 00 00 00 	movl   $0x0,0xa146(%rip)        # 1f362 <g_439+0x12>
   15219:	00 00 00 
   1521c:	e9 9f 01 00 00       	jmpq   153c0 <func_34+0x215b>
   15221:	48 c7 85 30 e7 ff ff 	movq   $0x0,-0x18d0(%rbp)
   15228:	00 00 00 00 
   1522c:	c7 85 30 e7 ff ff 7c 	movl   $0x7585d07c,-0x18d0(%rbp)
   15233:	d0 85 75 
   15236:	48 c7 85 28 e8 ff ff 	movq   $0x0,-0x17d8(%rbp)
   1523d:	00 00 00 00 
   15241:	48 8d 85 30 e9 ff ff 	lea    -0x16d0(%rbp),%rax
   15248:	48 89 85 30 e8 ff ff 	mov    %rax,-0x17d0(%rbp)
   1524f:	c7 85 44 e6 ff ff 0c 	movl   $0x5ceb300c,-0x19bc(%rbp)
   15256:	30 eb 5c 
   15259:	c7 85 c0 e9 ff ff 00 	movl   $0x0,-0x1640(%rbp)
   15260:	00 00 00 
   15263:	c7 85 c4 e9 ff ff 00 	movl   $0x0,-0x163c(%rbp)
   1526a:	00 00 00 
   1526d:	c7 85 c8 e9 ff ff 36 	movl   $0xd4127d36,-0x1638(%rbp)
   15274:	7d 12 d4 
   15277:	c7 85 cc e9 ff ff c5 	movl   $0xda3448c5,-0x1634(%rbp)
   1527e:	48 34 da 
   15281:	c7 85 d0 e9 ff ff ea 	movl   $0xbd621ea,-0x1630(%rbp)
   15288:	21 d6 0b 
   1528b:	c7 85 d4 e9 ff ff c5 	movl   $0xda3448c5,-0x162c(%rbp)
   15292:	48 34 da 
   15295:	c7 85 d8 e9 ff ff 36 	movl   $0xd4127d36,-0x1628(%rbp)
   1529c:	7d 12 d4 
   1529f:	c7 85 dc e9 ff ff 00 	movl   $0x0,-0x1624(%rbp)
   152a6:	00 00 00 
   152a9:	c7 85 e0 e9 ff ff 00 	movl   $0x0,-0x1620(%rbp)
   152b0:	00 00 00 
   152b3:	c7 85 e4 e9 ff ff ef 	movl   $0x8791a8ef,-0x161c(%rbp)
   152ba:	a8 91 87 
   152bd:	c7 85 e8 e9 ff ff 01 	movl   $0x1,-0x1618(%rbp)
   152c4:	00 00 00 
   152c7:	c7 85 ec e9 ff ff 00 	movl   $0x0,-0x1614(%rbp)
   152ce:	00 00 00 
   152d1:	c7 85 f0 e9 ff ff c5 	movl   $0xda3448c5,-0x1610(%rbp)
   152d8:	48 34 da 
   152db:	c7 85 f4 e9 ff ff 00 	movl   $0x0,-0x160c(%rbp)
   152e2:	00 00 00 
   152e5:	c7 85 f8 e9 ff ff 01 	movl   $0x1,-0x1608(%rbp)
   152ec:	00 00 00 
   152ef:	c7 85 fc e9 ff ff ef 	movl   $0x8791a8ef,-0x1604(%rbp)
   152f6:	a8 91 87 
   152f9:	c7 85 00 ea ff ff ef 	movl   $0x8791a8ef,-0x1600(%rbp)
   15300:	a8 91 87 
   15303:	c7 85 04 ea ff ff 01 	movl   $0x1,-0x15fc(%rbp)
   1530a:	00 00 00 
   1530d:	48 8b 85 e0 e6 ff ff 	mov    -0x1920(%rbp),%rax
   15314:	48 8b 00             	mov    (%rax),%rax
   15317:	8b 18                	mov    (%rax),%ebx
   15319:	48 8b 05 f0 9f 00 00 	mov    0x9ff0(%rip),%rax        # 1f310 <g_397+0xf0>
   15320:	48 c1 e8 20          	shr    $0x20,%rax
   15324:	66 25 ff 01          	and    $0x1ff,%ax
   15328:	44 0f b7 e0          	movzwl %ax,%r12d
   1532c:	48 8b 05 85 e8 00 00 	mov    0xe885(%rip),%rax        # 23bb8 <g_503>
   15333:	48 89 85 30 e8 ff ff 	mov    %rax,-0x17d0(%rbp)
   1533a:	48 8b 85 30 e8 ff ff 	mov    -0x17d0(%rbp),%rax
   15341:	48 3b 85 28 e8 ff ff 	cmp    -0x17d8(%rbp),%rax
   15348:	0f 94 c0             	sete   %al
   1534b:	44 0f b6 e8          	movzbl %al,%r13d
   1534f:	8b 85 30 e7 ff ff    	mov    -0x18d0(%rbp),%eax
   15355:	0f b7 d0             	movzwl %ax,%edx
   15358:	8b 85 30 e7 ff ff    	mov    -0x18d0(%rbp),%eax
   1535e:	0f b7 c0             	movzwl %ax,%eax
   15361:	89 d6                	mov    %edx,%esi
   15363:	89 c7                	mov    %eax,%edi
   15365:	e8 95 29 ff ff       	callq  7cff <safe_add_func_uint16_t_u_u>
   1536a:	0f b7 c0             	movzwl %ax,%eax
   1536d:	41 39 c5             	cmp    %eax,%r13d
   15370:	0f 9f c0             	setg   %al
   15373:	0f b6 c0             	movzbl %al,%eax
   15376:	41 39 c4             	cmp    %eax,%r12d
   15379:	0f 9f c0             	setg   %al
   1537c:	0f b6 c0             	movzbl %al,%eax
   1537f:	39 c3                	cmp    %eax,%ebx
   15381:	0f 95 c0             	setne  %al
   15384:	0f b6 d0             	movzbl %al,%edx
   15387:	8b 85 e4 ea ff ff    	mov    -0x151c(%rbp),%eax
   1538d:	21 d0                	and    %edx,%eax
   1538f:	89 85 e4 ea ff ff    	mov    %eax,-0x151c(%rbp)
   15395:	48 8b 85 d8 eb ff ff 	mov    -0x1428(%rbp),%rax
   1539c:	48 83 e8 01          	sub    $0x1,%rax
   153a0:	48 89 85 d8 eb ff ff 	mov    %rax,-0x1428(%rbp)
   153a7:	8b 85 50 eb ff ff    	mov    -0x14b0(%rbp),%eax
   153ad:	85 c0                	test   %eax,%eax
   153af:	75 20                	jne    153d1 <func_34+0x216c>
   153b1:	8b 05 ab 9f 00 00    	mov    0x9fab(%rip),%eax        # 1f362 <g_439+0x12>
   153b7:	83 c0 01             	add    $0x1,%eax
   153ba:	89 05 a2 9f 00 00    	mov    %eax,0x9fa2(%rip)        # 1f362 <g_439+0x12>
   153c0:	8b 05 9c 9f 00 00    	mov    0x9f9c(%rip),%eax        # 1f362 <g_439+0x12>
   153c6:	83 f8 02             	cmp    $0x2,%eax
   153c9:	0f 86 52 fe ff ff    	jbe    15221 <func_34+0x1fbc>
   153cf:	eb 01                	jmp    153d2 <func_34+0x216d>
   153d1:	90                   	nop
   153d2:	48 8b 05 01 9e 00 00 	mov    0x9e01(%rip),%rax        # 1f1da <g_277+0xa>
   153d9:	48 83 c0 01          	add    $0x1,%rax
   153dd:	48 89 05 f6 9d 00 00 	mov    %rax,0x9df6(%rip)        # 1f1da <g_277+0xa>
   153e4:	48 8b 05 ef 9d 00 00 	mov    0x9def(%rip),%rax        # 1f1da <g_277+0xa>
   153eb:	48 83 f8 09          	cmp    $0x9,%rax
   153ef:	0f 86 e0 fa ff ff    	jbe    14ed5 <func_34+0x1c70>
   153f5:	eb 01                	jmp    153f8 <func_34+0x2193>
   153f7:	90                   	nop
   153f8:	0f bf 9d 82 e5 ff ff 	movswl -0x1a7e(%rbp),%ebx
   153ff:	0f bf 85 82 e5 ff ff 	movswl -0x1a7e(%rbp),%eax
   15406:	be 01 00 00 00       	mov    $0x1,%esi
   1540b:	89 c7                	mov    %eax,%edi
   1540d:	e8 13 2b ff ff       	callq  7f25 <safe_div_func_uint32_t_u_u>
   15412:	48 8b 95 10 e8 ff ff 	mov    -0x17f0(%rbp),%rdx
   15419:	89 02                	mov    %eax,(%rdx)
   1541b:	48 8b 05 44 9f 00 00 	mov    0x9f44(%rip),%rax        # 1f366 <g_439+0x16>
   15422:	89 c2                	mov    %eax,%edx
   15424:	0f b6 05 49 9f 00 00 	movzbl 0x9f49(%rip),%eax        # 1f374 <g_475>
   1542b:	0f be c0             	movsbl %al,%eax
   1542e:	89 d6                	mov    %edx,%esi
   15430:	89 c7                	mov    %eax,%edi
   15432:	e8 f3 20 ff ff       	callq  752a <safe_rshift_func_int16_t_s_s>
   15437:	48 8b 85 68 e5 ff ff 	mov    -0x1a98(%rbp),%rax
   1543e:	0f b6 00             	movzbl (%rax),%eax
   15441:	44 0f be e0          	movsbl %al,%r12d
   15445:	8b 85 b0 ea ff ff    	mov    -0x1550(%rbp),%eax
   1544b:	0f be c0             	movsbl %al,%eax
   1544e:	be 07 00 00 00       	mov    $0x7,%esi
   15453:	89 c7                	mov    %eax,%edi
   15455:	e8 db 1e ff ff       	callq  7335 <safe_rshift_func_int8_t_s_s>
   1545a:	0f be d0             	movsbl %al,%edx
   1545d:	8b 8d bc ed ff ff    	mov    -0x1244(%rbp),%ecx
   15463:	0f bf b5 84 e5 ff ff 	movswl -0x1a7c(%rbp),%esi
   1546a:	0f b7 85 80 e5 ff ff 	movzwl -0x1a80(%rbp),%eax
   15471:	0f b7 c0             	movzwl %ax,%eax
   15474:	39 c6                	cmp    %eax,%esi
   15476:	0f 9c c0             	setl   %al
   15479:	0f b6 c0             	movzbl %al,%eax
   1547c:	39 c1                	cmp    %eax,%ecx
   1547e:	0f 9f c0             	setg   %al
   15481:	0f b6 c0             	movzbl %al,%eax
   15484:	39 c2                	cmp    %eax,%edx
   15486:	0f 9d c0             	setge  %al
   15489:	0f b6 c0             	movzbl %al,%eax
   1548c:	41 39 c4             	cmp    %eax,%r12d
   1548f:	89 de                	mov    %ebx,%esi
   15491:	bf 00 00 00 00       	mov    $0x0,%edi
   15496:	e8 64 22 ff ff       	callq  76ff <safe_div_func_int32_t_s_s>
   1549b:	48 c7 85 38 e8 ff ff 	movq   $0x0,-0x17c8(%rbp)
   154a2:	00 00 00 00 
   154a6:	8b 85 dc ed ff ff    	mov    -0x1224(%rbp),%eax
   154ac:	85 c0                	test   %eax,%eax
   154ae:	0f 85 e3 13 00 00    	jne    16897 <func_34+0x3632>
   154b4:	8b 85 bc ed ff ff    	mov    -0x1244(%rbp),%eax
   154ba:	85 c0                	test   %eax,%eax
   154bc:	74 21                	je     154df <func_34+0x227a>
   154be:	48 8b 85 38 e7 ff ff 	mov    -0x18c8(%rbp),%rax
   154c5:	48 8b 00             	mov    (%rax),%rax
   154c8:	48 8b 00             	mov    (%rax),%rax
   154cb:	48 8b 00             	mov    (%rax),%rax
   154ce:	8b 00                	mov    (%rax),%eax
   154d0:	39 85 c0 e5 ff ff    	cmp    %eax,-0x1a40(%rbp)
   154d6:	74 07                	je     154df <func_34+0x227a>
   154d8:	b8 01 00 00 00       	mov    $0x1,%eax
   154dd:	eb 05                	jmp    154e4 <func_34+0x227f>
   154df:	b8 00 00 00 00       	mov    $0x0,%eax
   154e4:	89 c2                	mov    %eax,%edx
   154e6:	48 8b 85 10 e8 ff ff 	mov    -0x17f0(%rbp),%rax
   154ed:	89 10                	mov    %edx,(%rax)
   154ef:	8b 05 5b 9b 00 00    	mov    0x9b5b(%rip),%eax        # 1f050 <g_41>
   154f5:	89 c3                	mov    %eax,%ebx
   154f7:	8b 95 20 e7 ff ff    	mov    -0x18e0(%rbp),%edx
   154fd:	48 8b 05 c4 e4 00 00 	mov    0xe4c4(%rip),%rax        # 239c8 <g_235>
   15504:	0f b6 00             	movzbl (%rax),%eax
   15507:	0f be c0             	movsbl %al,%eax
   1550a:	39 c2                	cmp    %eax,%edx
   1550c:	0f 94 c0             	sete   %al
   1550f:	0f b6 c0             	movzbl %al,%eax
   15512:	89 c6                	mov    %eax,%esi
   15514:	bf 00 00 00 00       	mov    $0x0,%edi
   15519:	e8 e7 26 ff ff       	callq  7c05 <safe_lshift_func_uint8_t_u_s>
   1551e:	0f b6 c0             	movzbl %al,%eax
   15521:	89 de                	mov    %ebx,%esi
   15523:	89 c7                	mov    %eax,%edi
   15525:	e8 d3 29 ff ff       	callq  7efd <safe_mod_func_uint32_t_u_u>
   1552a:	0f b7 95 86 e5 ff ff 	movzwl -0x1a7a(%rbp),%edx
   15531:	48 8b 05 78 e4 00 00 	mov    0xe478(%rip),%rax        # 239b0 <g_105>
   15538:	48 8b 00             	mov    (%rax),%rax
   1553b:	8b 00                	mov    (%rax),%eax
   1553d:	39 c2                	cmp    %eax,%edx
   1553f:	48 c7 85 40 e8 ff ff 	movq   $0x0,-0x17c0(%rbp)
   15546:	00 00 00 00 
   1554a:	48 c7 85 48 e8 ff ff 	movq   $0x0,-0x17b8(%rbp)
   15551:	00 00 00 00 
   15555:	48 8d 85 28 e9 ff ff 	lea    -0x16d8(%rbp),%rax
   1555c:	48 89 85 30 e7 ff ff 	mov    %rax,-0x18d0(%rbp)
   15563:	48 8d 85 30 e7 ff ff 	lea    -0x18d0(%rbp),%rax
   1556a:	48 89 85 50 e8 ff ff 	mov    %rax,-0x17b0(%rbp)
   15571:	c7 85 48 e6 ff ff ff 	movl   $0xffffffff,-0x19b8(%rbp)
   15578:	ff ff ff 
   1557b:	48 8b 05 4e e4 00 00 	mov    0xe44e(%rip),%rax        # 239d0 <g_234>
   15582:	48 8b 00             	mov    (%rax),%rax
   15585:	0f b6 00             	movzbl (%rax),%eax
   15588:	0f be c0             	movsbl %al,%eax
   1558b:	0c fd                	or     $0xfd,%al
   1558d:	89 c2                	mov    %eax,%edx
   1558f:	48 8b 85 38 e7 ff ff 	mov    -0x18c8(%rbp),%rax
   15596:	48 8b 00             	mov    (%rax),%rax
   15599:	48 8b 00             	mov    (%rax),%rax
   1559c:	48 8b 00             	mov    (%rax),%rax
   1559f:	89 10                	mov    %edx,(%rax)
   155a1:	48 8b 85 38 e7 ff ff 	mov    -0x18c8(%rbp),%rax
   155a8:	48 8b 00             	mov    (%rax),%rax
   155ab:	48 8b 00             	mov    (%rax),%rax
   155ae:	48 8b 00             	mov    (%rax),%rax
   155b1:	8b 00                	mov    (%rax),%eax
   155b3:	09 85 c0 e5 ff ff    	or     %eax,-0x1a40(%rbp)
   155b9:	66 83 bd 84 e5 ff ff 	cmpw   $0x0,-0x1a7c(%rbp)
   155c0:	00 
   155c1:	0f 85 d4 0c 00 00    	jne    1629b <func_34+0x3036>
   155c7:	48 8b 85 40 e8 ff ff 	mov    -0x17c0(%rbp),%rax
   155ce:	48 89 85 60 e7 ff ff 	mov    %rax,-0x18a0(%rbp)
   155d5:	48 8b 85 50 e8 ff ff 	mov    -0x17b0(%rbp),%rax
   155dc:	48 c7 00 00 00 00 00 	movq   $0x0,(%rax)
   155e3:	8b 85 20 e7 ff ff    	mov    -0x18e0(%rbp),%eax
   155e9:	0f b7 c0             	movzwl %ax,%eax
   155ec:	be 00 00 00 00       	mov    $0x0,%esi
   155f1:	89 c7                	mov    %eax,%edi
   155f3:	e8 50 28 ff ff       	callq  7e48 <safe_rshift_func_uint16_t_u_s>
   155f8:	66 85 c0             	test   %ax,%ax
   155fb:	74 56                	je     15653 <func_34+0x23ee>
   155fd:	8b 85 20 e7 ff ff    	mov    -0x18e0(%rbp),%eax
   15603:	48 63 d8             	movslq %eax,%rbx
   15606:	8b 85 48 e6 ff ff    	mov    -0x19b8(%rbp),%eax
   1560c:	48 63 d0             	movslq %eax,%rdx
   1560f:	83 bd 48 e6 ff ff 00 	cmpl   $0x0,-0x19b8(%rbp)
   15616:	0f 94 c0             	sete   %al
   15619:	0f b6 c0             	movzbl %al,%eax
   1561c:	48 89 d6             	mov    %rdx,%rsi
   1561f:	48 89 c7             	mov    %rax,%rdi
   15622:	e8 81 22 ff ff       	callq  78a8 <safe_sub_func_int64_t_s_s>
   15627:	48 39 c3             	cmp    %rax,%rbx
   1562a:	0f 95 c0             	setne  %al
   1562d:	0f b6 d0             	movzbl %al,%edx
   15630:	48 8b 05 71 e3 00 00 	mov    0xe371(%rip),%rax        # 239a8 <g_106>
   15637:	8b 00                	mov    (%rax),%eax
   15639:	39 c2                	cmp    %eax,%edx
   1563b:	0f 9d c0             	setge  %al
   1563e:	0f b6 d0             	movzbl %al,%edx
   15641:	0f b6 85 7c e5 ff ff 	movzbl -0x1a84(%rbp),%eax
   15648:	39 c2                	cmp    %eax,%edx
   1564a:	75 07                	jne    15653 <func_34+0x23ee>
   1564c:	b8 01 00 00 00       	mov    $0x1,%eax
   15651:	eb 05                	jmp    15658 <func_34+0x23f3>
   15653:	b8 00 00 00 00       	mov    $0x0,%eax
   15658:	0f b7 d0             	movzwl %ax,%edx
   1565b:	0f b7 85 20 e7 ff ff 	movzwl -0x18e0(%rbp),%eax
   15662:	c1 e0 03             	shl    $0x3,%eax
   15665:	66 c1 f8 03          	sar    $0x3,%ax
   15669:	0f b7 c0             	movzwl %ax,%eax
   1566c:	89 d6                	mov    %edx,%esi
   1566e:	89 c7                	mov    %eax,%edi
   15670:	e8 aa 26 ff ff       	callq  7d1f <safe_sub_func_uint16_t_u_u>
   15675:	66 85 c0             	test   %ax,%ax
   15678:	74 0e                	je     15688 <func_34+0x2423>
   1567a:	0f b7 85 20 e7 ff ff 	movzwl -0x18e0(%rbp),%eax
   15681:	66 25 ff 1f          	and    $0x1fff,%ax
   15685:	66 85 c0             	test   %ax,%ax
   15688:	8b 85 48 e6 ff ff    	mov    -0x19b8(%rbp),%eax
   1568e:	83 c8 01             	or     $0x1,%eax
   15691:	21 85 cc e5 ff ff    	and    %eax,-0x1a34(%rbp)
   15697:	c7 85 cc e5 ff ff 02 	movl   $0x2,-0x1a34(%rbp)
   1569e:	00 00 00 
   156a1:	e9 e8 0b 00 00       	jmpq   1628e <func_34+0x3029>
   156a6:	48 b8 b1 6f e8 42 fa 	movabs $0x4aeb40fa42e86fb1,%rax
   156ad:	40 eb 4a 
   156b0:	48 89 85 58 e8 ff ff 	mov    %rax,-0x17a8(%rbp)
   156b7:	48 8d 05 aa 99 00 00 	lea    0x99aa(%rip),%rax        # 1f068 <g_101>
   156be:	48 89 85 30 e7 ff ff 	mov    %rax,-0x18d0(%rbp)
   156c5:	c7 85 d4 e5 ff ff 1b 	movl   $0xb6527d1b,-0x1a2c(%rbp)
   156cc:	7d 52 b6 
   156cf:	c7 85 40 eb ff ff 57 	movl   $0xecaefa57,-0x14c0(%rbp)
   156d6:	fa ae ec 
   156d9:	c7 85 44 eb ff ff 01 	movl   $0x1,-0x14bc(%rbp)
   156e0:	00 00 00 
   156e3:	c7 85 48 eb ff ff ff 	movl   $0xffffffff,-0x14b8(%rbp)
   156ea:	ff ff ff 
   156ed:	c7 85 4c eb ff ff 00 	movl   $0x0,-0x14b4(%rbp)
   156f4:	00 00 00 
   156f7:	c7 85 50 eb ff ff 00 	movl   $0x0,-0x14b0(%rbp)
   156fe:	00 00 00 
   15701:	c7 85 54 eb ff ff 00 	movl   $0x0,-0x14ac(%rbp)
   15708:	00 00 00 
   1570b:	c7 85 58 eb ff ff 00 	movl   $0x0,-0x14a8(%rbp)
   15712:	00 00 00 
   15715:	c7 85 5c eb ff ff 00 	movl   $0x0,-0x14a4(%rbp)
   1571c:	00 00 00 
   1571f:	c7 85 60 eb ff ff ff 	movl   $0xffffffff,-0x14a0(%rbp)
   15726:	ff ff ff 
   15729:	c7 85 64 eb ff ff ff 	movl   $0xffffffff,-0x149c(%rbp)
   15730:	ff ff ff 
   15733:	c7 85 68 eb ff ff 64 	movl   $0x889f8664,-0x1498(%rbp)
   1573a:	86 9f 88 
   1573d:	c7 85 6c eb ff ff 00 	movl   $0x0,-0x1494(%rbp)
   15744:	00 00 00 
   15747:	c7 85 70 eb ff ff 00 	movl   $0x0,-0x1490(%rbp)
   1574e:	00 00 00 
   15751:	c7 85 74 eb ff ff 57 	movl   $0xecaefa57,-0x148c(%rbp)
   15758:	fa ae ec 
   1575b:	c7 85 78 eb ff ff fe 	movl   $0x5e1500fe,-0x1488(%rbp)
   15762:	00 15 5e 
   15765:	c7 85 7c eb ff ff 01 	movl   $0x1,-0x1484(%rbp)
   1576c:	00 00 00 
   1576f:	c7 85 80 eb ff ff 01 	movl   $0x1,-0x1480(%rbp)
   15776:	00 00 00 
   15779:	c7 85 84 eb ff ff 00 	movl   $0x0,-0x147c(%rbp)
   15780:	00 00 00 
   15783:	c7 85 88 eb ff ff ff 	movl   $0xffffffff,-0x1478(%rbp)
   1578a:	ff ff ff 
   1578d:	c7 85 8c eb ff ff 64 	movl   $0x889f8664,-0x1474(%rbp)
   15794:	86 9f 88 
   15797:	c7 85 90 eb ff ff b0 	movl   $0xd9658fb0,-0x1470(%rbp)
   1579e:	8f 65 d9 
   157a1:	c7 85 94 eb ff ff fe 	movl   $0x5e1500fe,-0x146c(%rbp)
   157a8:	00 15 5e 
   157ab:	c7 85 98 eb ff ff 00 	movl   $0x0,-0x1468(%rbp)
   157b2:	00 00 00 
   157b5:	c7 85 9c eb ff ff fe 	movl   $0x5e1500fe,-0x1464(%rbp)
   157bc:	00 15 5e 
   157bf:	c7 85 a0 eb ff ff b0 	movl   $0xd9658fb0,-0x1460(%rbp)
   157c6:	8f 65 d9 
   157c9:	c7 85 a4 eb ff ff a4 	movl   $0x9da34ea4,-0x145c(%rbp)
   157d0:	4e a3 9d 
   157d3:	c7 85 a8 eb ff ff 57 	movl   $0xecaefa57,-0x1458(%rbp)
   157da:	fa ae ec 
   157dd:	c7 85 ac eb ff ff 00 	movl   $0x0,-0x1454(%rbp)
   157e4:	00 00 00 
   157e7:	c7 85 b0 eb ff ff fe 	movl   $0x5e1500fe,-0x1450(%rbp)
   157ee:	00 15 5e 
   157f1:	c7 85 b4 eb ff ff ff 	movl   $0xffffffff,-0x144c(%rbp)
   157f8:	ff ff ff 
   157fb:	c7 85 b8 eb ff ff f5 	movl   $0x60dbedf5,-0x1448(%rbp)
   15802:	ed db 60 
   15805:	c7 85 bc eb ff ff a4 	movl   $0x9da34ea4,-0x1444(%rbp)
   1580c:	4e a3 9d 
   1580f:	c7 85 c0 eb ff ff ff 	movl   $0xffffffff,-0x1440(%rbp)
   15816:	ff ff ff 
   15819:	c7 85 c4 eb ff ff ff 	movl   $0xffffffff,-0x143c(%rbp)
   15820:	ff ff ff 
   15823:	c7 85 c8 eb ff ff 54 	movl   $0x98d6fd54,-0x1438(%rbp)
   1582a:	fd d6 98 
   1582d:	c7 85 4c e6 ff ff a6 	movl   $0x823482a6,-0x19b4(%rbp)
   15834:	82 34 82 
   15837:	c7 85 d8 e5 ff ff 08 	movl   $0x8,-0x1a28(%rbp)
   1583e:	00 00 00 
   15841:	c6 85 7e e5 ff ff 06 	movb   $0x6,-0x1a82(%rbp)
   15848:	0f b7 85 82 e5 ff ff 	movzwl -0x1a7e(%rbp),%eax
   1584f:	0f be d8             	movsbl %al,%ebx
   15852:	48 8b 05 5f e1 00 00 	mov    0xe15f(%rip),%rax        # 239b8 <g_113>
   15859:	48 8b 00             	mov    (%rax),%rax
   1585c:	44 0f b7 b5 86 e5 ff 	movzwl -0x1a7a(%rbp),%r14d
   15863:	ff 
   15864:	44 8b a5 50 ed ff ff 	mov    -0x12b0(%rbp),%r12d
   1586b:	8b 85 cc e5 ff ff    	mov    -0x1a34(%rbp),%eax
   15871:	44 0f b7 e8          	movzwl %ax,%r13d
   15875:	48 8b 85 e0 e6 ff ff 	mov    -0x1920(%rbp),%rax
   1587c:	48 8b 00             	mov    (%rax),%rax
   1587f:	8b 10                	mov    (%rax),%edx
   15881:	0f b7 85 20 e7 ff ff 	movzwl -0x18e0(%rbp),%eax
   15888:	c1 e0 03             	shl    $0x3,%eax
   1588b:	66 c1 f8 03          	sar    $0x3,%ax
   1588f:	98                   	cwtl   
   15890:	89 d6                	mov    %edx,%esi
   15892:	89 c7                	mov    %eax,%edi
   15894:	e8 33 1e ff ff       	callq  76cc <safe_mod_func_int32_t_s_s>
   15899:	0f b7 15 58 99 00 00 	movzwl 0x9958(%rip),%edx        # 1f1f8 <g_333>
   158a0:	0f b7 d2             	movzwl %dx,%edx
   158a3:	39 d0                	cmp    %edx,%eax
   158a5:	0f 9c c0             	setl   %al
   158a8:	0f b6 c0             	movzbl %al,%eax
   158ab:	be 00 00 00 00       	mov    $0x0,%esi
   158b0:	89 c7                	mov    %eax,%edi
   158b2:	e8 ff 1c ff ff       	callq  75b6 <safe_add_func_int32_t_s_s>
   158b7:	89 c2                	mov    %eax,%edx
   158b9:	8b 05 99 97 00 00    	mov    0x9799(%rip),%eax        # 1f058 <g_45>
   158bf:	09 d0                	or     %edx,%eax
   158c1:	0f be c0             	movsbl %al,%eax
   158c4:	be 02 00 00 00       	mov    $0x2,%esi
   158c9:	89 c7                	mov    %eax,%edi
   158cb:	e8 65 1a ff ff       	callq  7335 <safe_rshift_func_int8_t_s_s>
   158d0:	84 c0                	test   %al,%al
   158d2:	75 0a                	jne    158de <func_34+0x2679>
   158d4:	48 83 bd b8 e7 ff ff 	cmpq   $0x0,-0x1848(%rbp)
   158db:	00 
   158dc:	74 07                	je     158e5 <func_34+0x2680>
   158de:	b8 01 00 00 00       	mov    $0x1,%eax
   158e3:	eb 05                	jmp    158ea <func_34+0x2685>
   158e5:	b8 00 00 00 00       	mov    $0x0,%eax
   158ea:	0f b7 c0             	movzwl %ax,%eax
   158ed:	44 89 ee             	mov    %r13d,%esi
   158f0:	89 c7                	mov    %eax,%edi
   158f2:	e8 46 24 ff ff       	callq  7d3d <safe_mul_func_uint16_t_u_u>
   158f7:	0f b7 c0             	movzwl %ax,%eax
   158fa:	44 89 e6             	mov    %r12d,%esi
   158fd:	89 c7                	mov    %eax,%edi
   158ff:	e8 fb 1d ff ff       	callq  76ff <safe_div_func_int32_t_s_s>
   15904:	89 c2                	mov    %eax,%edx
   15906:	8b 05 7c 9a 00 00    	mov    0x9a7c(%rip),%eax        # 1f388 <g_478+0x8>
   1590c:	0f b6 c0             	movzbl %al,%eax
   1590f:	89 d6                	mov    %edx,%esi
   15911:	89 c7                	mov    %eax,%edi
   15913:	e8 75 23 ff ff       	callq  7c8d <safe_rshift_func_uint8_t_u_s>
   15918:	0f b6 c0             	movzbl %al,%eax
   1591b:	48 39 85 58 e8 ff ff 	cmp    %rax,-0x17a8(%rbp)
   15922:	0f 92 c0             	setb   %al
   15925:	0f b6 c0             	movzbl %al,%eax
   15928:	41 39 c6             	cmp    %eax,%r14d
   1592b:	0f 94 c0             	sete   %al
   1592e:	0f b6 c0             	movzbl %al,%eax
   15931:	89 c6                	mov    %eax,%esi
   15933:	bf fe ff ff ff       	mov    $0xfffffffe,%edi
   15938:	e8 8f 1d ff ff       	callq  76cc <safe_mod_func_int32_t_s_s>
   1593d:	8b 95 08 eb ff ff    	mov    -0x14f8(%rbp),%edx
   15943:	48 8b 85 30 e7 ff ff 	mov    -0x18d0(%rbp),%rax
   1594a:	48 8b 08             	mov    (%rax),%rcx
   1594d:	48 63 d2             	movslq %edx,%rdx
   15950:	48 8b 85 30 e7 ff ff 	mov    -0x18d0(%rbp),%rax
   15957:	48 31 ca             	xor    %rcx,%rdx
   1595a:	48 89 10             	mov    %rdx,(%rax)
   1595d:	48 8b 85 68 e5 ff ff 	mov    -0x1a98(%rbp),%rax
   15964:	0f b6 10             	movzbl (%rax),%edx
   15967:	0f b6 05 06 9a 00 00 	movzbl 0x9a06(%rip),%eax        # 1f374 <g_475>
   1596e:	21 d0                	and    %edx,%eax
   15970:	88 05 fe 99 00 00    	mov    %al,0x99fe(%rip)        # 1f374 <g_475>
   15976:	0f b6 05 f7 99 00 00 	movzbl 0x99f7(%rip),%eax        # 1f374 <g_475>
   1597d:	0f be c0             	movsbl %al,%eax
   15980:	89 de                	mov    %ebx,%esi
   15982:	89 c7                	mov    %eax,%edi
   15984:	e8 69 18 ff ff       	callq  71f2 <safe_sub_func_int8_t_s_s>
   15989:	84 c0                	test   %al,%al
   1598b:	0f 84 ab 00 00 00    	je     15a3c <func_34+0x27d7>
   15991:	48 8b 05 68 e2 00 00 	mov    0xe268(%rip),%rax        # 23c00 <g_584>
   15998:	48 8b 95 58 e9 ff ff 	mov    -0x16a8(%rbp),%rdx
   1599f:	48 89 10             	mov    %rdx,(%rax)
   159a2:	0f b7 05 ff 99 00 00 	movzwl 0x99ff(%rip),%eax        # 1f3a8 <g_550+0x8>
   159a9:	c1 e0 07             	shl    $0x7,%eax
   159ac:	66 c1 f8 07          	sar    $0x7,%ax
   159b0:	0f bf d0             	movswl %ax,%edx
   159b3:	8b 85 38 eb ff ff    	mov    -0x14c8(%rbp),%eax
   159b9:	f7 d0                	not    %eax
   159bb:	98                   	cwtl   
   159bc:	89 d6                	mov    %edx,%esi
   159be:	89 c7                	mov    %eax,%edi
   159c0:	e8 51 1a ff ff       	callq  7416 <safe_mod_func_int16_t_s_s>
   159c5:	48 8b 05 bc 96 00 00 	mov    0x96bc(%rip),%rax        # 1f088 <g_230+0x8>
   159cc:	48 c1 e0 16          	shl    $0x16,%rax
   159d0:	48 c1 f8 3e          	sar    $0x3e,%rax
   159d4:	83 f0 fe             	xor    $0xfffffffe,%eax
   159d7:	0f be c8             	movsbl %al,%ecx
   159da:	48 8b 85 38 e7 ff ff 	mov    -0x18c8(%rbp),%rax
   159e1:	48 8b 00             	mov    (%rax),%rax
   159e4:	48 8b 00             	mov    (%rax),%rax
   159e7:	48 8b 00             	mov    (%rax),%rax
   159ea:	8b 10                	mov    (%rax),%edx
   159ec:	48 8b 85 38 e7 ff ff 	mov    -0x18c8(%rbp),%rax
   159f3:	48 8b 00             	mov    (%rax),%rax
   159f6:	48 8b 00             	mov    (%rax),%rax
   159f9:	48 8b 00             	mov    (%rax),%rax
   159fc:	09 ca                	or     %ecx,%edx
   159fe:	89 10                	mov    %edx,(%rax)
   15a00:	8b 10                	mov    (%rax),%edx
   15a02:	0f b7 85 20 e7 ff ff 	movzwl -0x18e0(%rbp),%eax
   15a09:	c1 e0 03             	shl    $0x3,%eax
   15a0c:	66 c1 f8 03          	sar    $0x3,%ax
   15a10:	89 c1                	mov    %eax,%ecx
   15a12:	89 d0                	mov    %edx,%eax
   15a14:	09 c8                	or     %ecx,%eax
   15a16:	c1 e0 03             	shl    $0x3,%eax
   15a19:	66 c1 f8 03          	sar    $0x3,%ax
   15a1d:	66 25 ff 1f          	and    $0x1fff,%ax
   15a21:	89 c2                	mov    %eax,%edx
   15a23:	0f b7 85 20 e7 ff ff 	movzwl -0x18e0(%rbp),%eax
   15a2a:	66 25 00 e0          	and    $0xe000,%ax
   15a2e:	09 d0                	or     %edx,%eax
   15a30:	66 89 85 20 e7 ff ff 	mov    %ax,-0x18e0(%rbp)
   15a37:	e9 9f 02 00 00       	jmpq   15cdb <func_34+0x2a76>
   15a3c:	48 8d 85 30 e7 ff ff 	lea    -0x18d0(%rbp),%rax
   15a43:	48 89 85 40 f8 ff ff 	mov    %rax,-0x7c0(%rbp)
   15a4a:	48 8d 85 30 e7 ff ff 	lea    -0x18d0(%rbp),%rax
   15a51:	48 89 85 48 f8 ff ff 	mov    %rax,-0x7b8(%rbp)
   15a58:	48 8d 85 30 e7 ff ff 	lea    -0x18d0(%rbp),%rax
   15a5f:	48 89 85 50 f8 ff ff 	mov    %rax,-0x7b0(%rbp)
   15a66:	48 8d 85 30 e7 ff ff 	lea    -0x18d0(%rbp),%rax
   15a6d:	48 89 85 58 f8 ff ff 	mov    %rax,-0x7a8(%rbp)
   15a74:	48 8d 85 30 e7 ff ff 	lea    -0x18d0(%rbp),%rax
   15a7b:	48 89 85 60 f8 ff ff 	mov    %rax,-0x7a0(%rbp)
   15a82:	48 8d 85 08 e7 ff ff 	lea    -0x18f8(%rbp),%rax
   15a89:	48 89 85 68 f8 ff ff 	mov    %rax,-0x798(%rbp)
   15a90:	48 8d 85 00 e7 ff ff 	lea    -0x1900(%rbp),%rax
   15a97:	48 89 85 70 f8 ff ff 	mov    %rax,-0x790(%rbp)
   15a9e:	48 8d 85 30 e7 ff ff 	lea    -0x18d0(%rbp),%rax
   15aa5:	48 89 85 78 f8 ff ff 	mov    %rax,-0x788(%rbp)
   15aac:	48 8d 85 08 e7 ff ff 	lea    -0x18f8(%rbp),%rax
   15ab3:	48 89 85 80 f8 ff ff 	mov    %rax,-0x780(%rbp)
   15aba:	48 8d 85 30 e7 ff ff 	lea    -0x18d0(%rbp),%rax
   15ac1:	48 89 85 88 f8 ff ff 	mov    %rax,-0x778(%rbp)
   15ac8:	48 8d 85 08 e7 ff ff 	lea    -0x18f8(%rbp),%rax
   15acf:	48 89 85 90 f8 ff ff 	mov    %rax,-0x770(%rbp)
   15ad6:	48 8d 85 08 e7 ff ff 	lea    -0x18f8(%rbp),%rax
   15add:	48 89 85 98 f8 ff ff 	mov    %rax,-0x768(%rbp)
   15ae4:	48 8d 85 30 e7 ff ff 	lea    -0x18d0(%rbp),%rax
   15aeb:	48 89 85 a0 f8 ff ff 	mov    %rax,-0x760(%rbp)
   15af2:	48 8d 85 30 e7 ff ff 	lea    -0x18d0(%rbp),%rax
   15af9:	48 89 85 a8 f8 ff ff 	mov    %rax,-0x758(%rbp)
   15b00:	48 8d 85 00 e7 ff ff 	lea    -0x1900(%rbp),%rax
   15b07:	48 89 85 b0 f8 ff ff 	mov    %rax,-0x750(%rbp)
   15b0e:	48 8d 85 30 e7 ff ff 	lea    -0x18d0(%rbp),%rax
   15b15:	48 89 85 b8 f8 ff ff 	mov    %rax,-0x748(%rbp)
   15b1c:	48 8d 85 00 e7 ff ff 	lea    -0x1900(%rbp),%rax
   15b23:	48 89 85 c0 f8 ff ff 	mov    %rax,-0x740(%rbp)
   15b2a:	48 8d 85 30 e7 ff ff 	lea    -0x18d0(%rbp),%rax
   15b31:	48 89 85 c8 f8 ff ff 	mov    %rax,-0x738(%rbp)
   15b38:	48 8d 85 30 e7 ff ff 	lea    -0x18d0(%rbp),%rax
   15b3f:	48 89 85 d0 f8 ff ff 	mov    %rax,-0x730(%rbp)
   15b46:	48 8d 85 00 e7 ff ff 	lea    -0x1900(%rbp),%rax
   15b4d:	48 89 85 d8 f8 ff ff 	mov    %rax,-0x728(%rbp)
   15b54:	48 8d 85 00 e7 ff ff 	lea    -0x1900(%rbp),%rax
   15b5b:	48 89 85 e0 f8 ff ff 	mov    %rax,-0x720(%rbp)
   15b62:	48 8d 85 00 e7 ff ff 	lea    -0x1900(%rbp),%rax
   15b69:	48 89 85 e8 f8 ff ff 	mov    %rax,-0x718(%rbp)
   15b70:	48 8d 85 30 e7 ff ff 	lea    -0x18d0(%rbp),%rax
   15b77:	48 89 85 f0 f8 ff ff 	mov    %rax,-0x710(%rbp)
   15b7e:	48 8d 85 00 e7 ff ff 	lea    -0x1900(%rbp),%rax
   15b85:	48 89 85 f8 f8 ff ff 	mov    %rax,-0x708(%rbp)
   15b8c:	48 8d 85 30 e7 ff ff 	lea    -0x18d0(%rbp),%rax
   15b93:	48 89 85 00 f9 ff ff 	mov    %rax,-0x700(%rbp)
   15b9a:	48 8d 85 30 e7 ff ff 	lea    -0x18d0(%rbp),%rax
   15ba1:	48 89 85 08 f9 ff ff 	mov    %rax,-0x6f8(%rbp)
   15ba8:	48 8d 85 00 e7 ff ff 	lea    -0x1900(%rbp),%rax
   15baf:	48 89 85 10 f9 ff ff 	mov    %rax,-0x6f0(%rbp)
   15bb6:	48 8d 85 30 e7 ff ff 	lea    -0x18d0(%rbp),%rax
   15bbd:	48 89 85 18 f9 ff ff 	mov    %rax,-0x6e8(%rbp)
   15bc4:	48 8d 85 00 e7 ff ff 	lea    -0x1900(%rbp),%rax
   15bcb:	48 89 85 20 f9 ff ff 	mov    %rax,-0x6e0(%rbp)
   15bd2:	48 8d 85 30 e7 ff ff 	lea    -0x18d0(%rbp),%rax
   15bd9:	48 89 85 28 f9 ff ff 	mov    %rax,-0x6d8(%rbp)
   15be0:	48 8d 85 30 e7 ff ff 	lea    -0x18d0(%rbp),%rax
   15be7:	48 89 85 30 f9 ff ff 	mov    %rax,-0x6d0(%rbp)
   15bee:	48 8d 85 08 e7 ff ff 	lea    -0x18f8(%rbp),%rax
   15bf5:	48 89 85 38 f9 ff ff 	mov    %rax,-0x6c8(%rbp)
   15bfc:	48 8d 85 00 e7 ff ff 	lea    -0x1900(%rbp),%rax
   15c03:	48 89 85 40 f9 ff ff 	mov    %rax,-0x6c0(%rbp)
   15c0a:	48 8d 85 30 e7 ff ff 	lea    -0x18d0(%rbp),%rax
   15c11:	48 89 85 48 f9 ff ff 	mov    %rax,-0x6b8(%rbp)
   15c18:	48 8d 85 08 e7 ff ff 	lea    -0x18f8(%rbp),%rax
   15c1f:	48 89 85 50 f9 ff ff 	mov    %rax,-0x6b0(%rbp)
   15c26:	48 8d 85 30 e7 ff ff 	lea    -0x18d0(%rbp),%rax
   15c2d:	48 89 85 58 f9 ff ff 	mov    %rax,-0x6a8(%rbp)
   15c34:	48 8d 85 00 e7 ff ff 	lea    -0x1900(%rbp),%rax
   15c3b:	48 89 85 60 f9 ff ff 	mov    %rax,-0x6a0(%rbp)
   15c42:	48 8d 85 00 e7 ff ff 	lea    -0x1900(%rbp),%rax
   15c49:	48 89 85 68 f9 ff ff 	mov    %rax,-0x698(%rbp)
   15c50:	48 8d 85 30 e7 ff ff 	lea    -0x18d0(%rbp),%rax
   15c57:	48 89 85 70 f9 ff ff 	mov    %rax,-0x690(%rbp)
   15c5e:	48 8d 85 30 e7 ff ff 	lea    -0x18d0(%rbp),%rax
   15c65:	48 89 85 78 f9 ff ff 	mov    %rax,-0x688(%rbp)
   15c6c:	c7 85 50 e6 ff ff 92 	movl   $0xd73b6692,-0x19b0(%rbp)
   15c73:	66 3b d7 
   15c76:	48 8b 85 00 e7 ff ff 	mov    -0x1900(%rbp),%rax
   15c7d:	48 89 85 00 e8 ff ff 	mov    %rax,-0x1800(%rbp)
   15c84:	48 83 bd 00 e8 ff ff 	cmpq   $0x0,-0x1800(%rbp)
   15c8b:	00 
   15c8c:	0f 94 c0             	sete   %al
   15c8f:	0f b6 c0             	movzbl %al,%eax
   15c92:	89 85 50 e6 ff ff    	mov    %eax,-0x19b0(%rbp)
   15c98:	48 c7 05 65 df 00 00 	movq   $0x0,0xdf65(%rip)        # 23c08 <g_594>
   15c9f:	00 00 00 00 
   15ca3:	8b 85 bc ed ff ff    	mov    -0x1244(%rbp),%eax
   15ca9:	89 c6                	mov    %eax,%esi
   15cab:	bf fe ff ff ff       	mov    $0xfffffffe,%edi
   15cb0:	e8 03 22 ff ff       	callq  7eb8 <safe_add_func_uint32_t_u_u>
   15cb5:	48 8b 95 38 e7 ff ff 	mov    -0x18c8(%rbp),%rdx
   15cbc:	48 8b 12             	mov    (%rdx),%rdx
   15cbf:	48 8b 12             	mov    (%rdx),%rdx
   15cc2:	48 8b 12             	mov    (%rdx),%rdx
   15cc5:	8b 12                	mov    (%rdx),%edx
   15cc7:	31 c2                	xor    %eax,%edx
   15cc9:	48 8b 85 38 e7 ff ff 	mov    -0x18c8(%rbp),%rax
   15cd0:	48 8b 00             	mov    (%rax),%rax
   15cd3:	48 8b 00             	mov    (%rax),%rax
   15cd6:	48 8b 00             	mov    (%rax),%rax
   15cd9:	89 10                	mov    %edx,(%rax)
   15cdb:	0f b7 85 60 f6 ff ff 	movzwl -0x9a0(%rbp),%eax
   15ce2:	66 25 ff 0f          	and    $0xfff,%ax
   15ce6:	0f b7 c0             	movzwl %ax,%eax
   15ce9:	89 85 24 ed ff ff    	mov    %eax,-0x12dc(%rbp)
   15cef:	44 8b a5 24 ed ff ff 	mov    -0x12dc(%rbp),%r12d
   15cf6:	0f b7 05 69 93 00 00 	movzwl 0x9369(%rip),%eax        # 1f066 <g_99>
   15cfd:	0f b7 d8             	movzwl %ax,%ebx
   15d00:	8b 85 cc e5 ff ff    	mov    -0x1a34(%rbp),%eax
   15d06:	48 63 d0             	movslq %eax,%rdx
   15d09:	0f b6 85 7c e5 ff ff 	movzbl -0x1a84(%rbp),%eax
   15d10:	48 89 d6             	mov    %rdx,%rsi
   15d13:	48 89 c7             	mov    %rax,%rdi
   15d16:	e8 30 23 ff ff       	callq  804b <safe_sub_func_uint64_t_u_u>
   15d1b:	0f b7 c0             	movzwl %ax,%eax
   15d1e:	89 de                	mov    %ebx,%esi
   15d20:	89 c7                	mov    %eax,%edi
   15d22:	e8 67 20 ff ff       	callq  7d8e <safe_div_func_uint16_t_u_u>
   15d27:	0f b7 c0             	movzwl %ax,%eax
   15d2a:	41 39 c4             	cmp    %eax,%r12d
   15d2d:	0f 94 c0             	sete   %al
   15d30:	0f b6 c0             	movzbl %al,%eax
   15d33:	48 39 85 b8 e7 ff ff 	cmp    %rax,-0x1848(%rbp)
   15d3a:	75 1c                	jne    15d58 <func_34+0x2af3>
   15d3c:	48 8b 15 6d dc 00 00 	mov    0xdc6d(%rip),%rdx        # 239b0 <g_105>
   15d43:	48 8b 85 38 e7 ff ff 	mov    -0x18c8(%rbp),%rax
   15d4a:	48 8b 00             	mov    (%rax),%rax
   15d4d:	48 8b 00             	mov    (%rax),%rax
   15d50:	48 8b 12             	mov    (%rdx),%rdx
   15d53:	48 89 10             	mov    %rdx,(%rax)
   15d56:	eb 7d                	jmp    15dd5 <func_34+0x2b70>
   15d58:	48 8b 05 df 96 00 00 	mov    0x96df(%rip),%rax        # 1f43e <g_602+0x1e>
   15d5f:	48 8b 15 e0 96 00 00 	mov    0x96e0(%rip),%rdx        # 1f446 <g_602+0x26>
   15d66:	48 89 05 8d 97 00 00 	mov    %rax,0x978d(%rip)        # 1f4fa <g_603+0x5a>
   15d6d:	48 89 15 8e 97 00 00 	mov    %rdx,0x978e(%rip)        # 1f502 <g_603+0x62>
   15d74:	48 8b 05 d3 96 00 00 	mov    0x96d3(%rip),%rax        # 1f44e <g_602+0x2e>
   15d7b:	48 89 05 88 97 00 00 	mov    %rax,0x9788(%rip)        # 1f50a <g_603+0x6a>
   15d82:	8b 05 ce 96 00 00    	mov    0x96ce(%rip),%eax        # 1f456 <g_602+0x36>
   15d88:	89 05 84 97 00 00    	mov    %eax,0x9784(%rip)        # 1f512 <g_603+0x72>
   15d8e:	0f b7 05 c5 96 00 00 	movzwl 0x96c5(%rip),%eax        # 1f45a <g_602+0x3a>
   15d95:	66 89 05 7a 97 00 00 	mov    %ax,0x977a(%rip)        # 1f516 <g_603+0x76>
   15d9c:	48 8b 05 0d df 00 00 	mov    0xdf0d(%rip),%rax        # 23cb0 <g_604+0x90>
   15da3:	48 89 85 c0 e7 ff ff 	mov    %rax,-0x1840(%rbp)
   15daa:	48 8b 05 f7 db 00 00 	mov    0xdbf7(%rip),%rax        # 239a8 <g_106>
   15db1:	8b 00                	mov    (%rax),%eax
   15db3:	89 c2                	mov    %eax,%edx
   15db5:	48 8b 85 58 e8 ff ff 	mov    -0x17a8(%rbp),%rax
   15dbc:	09 c2                	or     %eax,%edx
   15dbe:	48 8b 05 e3 db 00 00 	mov    0xdbe3(%rip),%rax        # 239a8 <g_106>
   15dc5:	89 10                	mov    %edx,(%rax)
   15dc7:	8b 85 9c e5 ff ff    	mov    -0x1a64(%rbp),%eax
   15dcd:	85 c0                	test   %eax,%eax
   15dcf:	0f 85 7b 05 00 00    	jne    16350 <func_34+0x30eb>
   15dd5:	66 83 bd 86 e5 ff ff 	cmpw   $0x0,-0x1a7a(%rbp)
   15ddc:	00 
   15ddd:	74 0b                	je     15dea <func_34+0x2b85>
   15ddf:	8b 05 8b 95 00 00    	mov    0x958b(%rip),%eax        # 1f370 <g_446>
   15de5:	e9 b4 0a 00 00       	jmpq   1689e <func_34+0x3639>
   15dea:	48 8d 85 d0 eb ff ff 	lea    -0x1430(%rbp),%rax
   15df1:	48 83 c0 20          	add    $0x20,%rax
   15df5:	48 89 85 60 e8 ff ff 	mov    %rax,-0x17a0(%rbp)
   15dfc:	48 8d 05 0d 9f 00 00 	lea    0x9f0d(%rip),%rax        # 1fd10 <g_611>
   15e03:	48 89 85 68 e8 ff ff 	mov    %rax,-0x1798(%rbp)
   15e0a:	c7 85 54 e6 ff ff 0d 	movl   $0x4f5f250d,-0x19ac(%rbp)
   15e11:	25 5f 4f 
   15e14:	c7 85 58 e6 ff ff f8 	movl   $0xfffffff8,-0x19a8(%rbp)
   15e1b:	ff ff ff 
   15e1e:	c7 85 5c e6 ff ff eb 	movl   $0x4dcf5eb,-0x19a4(%rbp)
   15e25:	f5 dc 04 
   15e28:	c7 85 60 e6 ff ff bf 	movl   $0xa883d1bf,-0x19a0(%rbp)
   15e2f:	d1 83 a8 
   15e32:	c7 85 64 e6 ff ff 01 	movl   $0x1,-0x199c(%rbp)
   15e39:	00 00 00 
   15e3c:	c7 85 dc e5 ff ff 00 	movl   $0x0,-0x1a24(%rbp)
   15e43:	00 00 00 
   15e46:	eb 1a                	jmp    15e62 <func_34+0x2bfd>
   15e48:	8b 85 dc e5 ff ff    	mov    -0x1a24(%rbp),%eax
   15e4e:	48 98                	cltq   
   15e50:	c7 84 85 40 f8 ff ff 	movl   $0xeb8f6df5,-0x7c0(%rbp,%rax,4)
   15e57:	f5 6d 8f eb 
   15e5b:	83 85 dc e5 ff ff 01 	addl   $0x1,-0x1a24(%rbp)
   15e62:	83 bd dc e5 ff ff 00 	cmpl   $0x0,-0x1a24(%rbp)
   15e69:	7e dd                	jle    15e48 <func_34+0x2be3>
   15e6b:	48 83 bd 68 e8 ff ff 	cmpq   $0x0,-0x1798(%rbp)
   15e72:	00 
   15e73:	0f 85 ad 00 00 00    	jne    15f26 <func_34+0x2cc1>
   15e79:	8b 05 1d 95 00 00    	mov    0x951d(%rip),%eax        # 1f39c <g_535>
   15e7f:	89 c0                	mov    %eax,%eax
   15e81:	48 89 c6             	mov    %rax,%rsi
   15e84:	bf 00 00 00 00       	mov    $0x0,%edi
   15e89:	e8 69 1b ff ff       	callq  79f7 <safe_div_func_int64_t_s_s>
   15e8e:	0f b6 c0             	movzbl %al,%eax
   15e91:	be 01 00 00 00       	mov    $0x1,%esi
   15e96:	89 c7                	mov    %eax,%edi
   15e98:	e8 f0 1d ff ff       	callq  7c8d <safe_rshift_func_uint8_t_u_s>
   15e9d:	84 c0                	test   %al,%al
   15e9f:	0f 95 c2             	setne  %dl
   15ea2:	48 8b 85 08 e7 ff ff 	mov    -0x18f8(%rbp),%rax
   15ea9:	0f b6 d2             	movzbl %dl,%edx
   15eac:	48 89 10             	mov    %rdx,(%rax)
   15eaf:	48 8b 18             	mov    (%rax),%rbx
   15eb2:	0f b6 05 95 91 00 00 	movzbl 0x9195(%rip),%eax        # 1f04e <g_37>
   15eb9:	0f be d0             	movsbl %al,%edx
   15ebc:	48 83 bd c8 e7 ff ff 	cmpq   $0x0,-0x1838(%rbp)
   15ec3:	00 
   15ec4:	0f 95 c0             	setne  %al
   15ec7:	0f b6 c0             	movzbl %al,%eax
   15eca:	89 d6                	mov    %edx,%esi
   15ecc:	89 c7                	mov    %eax,%edi
   15ece:	e8 75 1f ff ff       	callq  7e48 <safe_rshift_func_uint16_t_u_s>
   15ed3:	66 85 c0             	test   %ax,%ax
   15ed6:	75 0a                	jne    15ee2 <func_34+0x2c7d>
   15ed8:	8b 85 9c ed ff ff    	mov    -0x1264(%rbp),%eax
   15ede:	85 c0                	test   %eax,%eax
   15ee0:	74 07                	je     15ee9 <func_34+0x2c84>
   15ee2:	b8 01 00 00 00       	mov    $0x1,%eax
   15ee7:	eb 05                	jmp    15eee <func_34+0x2c89>
   15ee9:	b8 00 00 00 00       	mov    $0x0,%eax
   15eee:	48 98                	cltq   
   15ef0:	48 39 c3             	cmp    %rax,%rbx
   15ef3:	0f 95 c0             	setne  %al
   15ef6:	0f b6 c0             	movzbl %al,%eax
   15ef9:	21 85 d4 e5 ff ff    	and    %eax,-0x1a2c(%rbp)
   15eff:	8b 85 d4 e5 ff ff    	mov    -0x1a2c(%rbp),%eax
   15f05:	0f be c0             	movsbl %al,%eax
   15f08:	be 2e 00 00 00       	mov    $0x2e,%esi
   15f0d:	89 c7                	mov    %eax,%edi
   15f0f:	e8 c0 12 ff ff       	callq  71d4 <safe_add_func_int8_t_s_s>
   15f14:	48 0f be c0          	movsbq %al,%rax
   15f18:	48 35 ff ff 00 00    	xor    $0xffff,%rax
   15f1e:	48 3d ff 62 00 00    	cmp    $0x62ff,%rax
   15f24:	77 07                	ja     15f2d <func_34+0x2cc8>
   15f26:	b8 01 00 00 00       	mov    $0x1,%eax
   15f2b:	eb 05                	jmp    15f32 <func_34+0x2ccd>
   15f2d:	b8 00 00 00 00       	mov    $0x0,%eax
   15f32:	48 63 d0             	movslq %eax,%rdx
   15f35:	48 8b 05 4c 91 00 00 	mov    0x914c(%rip),%rax        # 1f088 <g_230+0x8>
   15f3c:	48 01 c0             	add    %rax,%rax
   15f3f:	48 c1 f8 2b          	sar    $0x2b,%rax
   15f43:	89 c6                	mov    %eax,%esi
   15f45:	48 8b 85 60 e8 ff ff 	mov    -0x17a0(%rbp),%rax
   15f4c:	48 8b 08             	mov    (%rax),%rcx
   15f4f:	48 63 c6             	movslq %esi,%rax
   15f52:	48 31 c1             	xor    %rax,%rcx
   15f55:	48 8b 85 60 e8 ff ff 	mov    -0x17a0(%rbp),%rax
   15f5c:	48 89 08             	mov    %rcx,(%rax)
   15f5f:	48 8b 85 60 e8 ff ff 	mov    -0x17a0(%rbp),%rax
   15f66:	48 8b 00             	mov    (%rax),%rax
   15f69:	48 89 d6             	mov    %rdx,%rsi
   15f6c:	48 89 c7             	mov    %rax,%rdi
   15f6f:	e8 d7 20 ff ff       	callq  804b <safe_sub_func_uint64_t_u_u>
   15f74:	89 85 bc ed ff ff    	mov    %eax,-0x1244(%rbp)
   15f7a:	8b 05 e2 93 00 00    	mov    0x93e2(%rip),%eax        # 1f362 <g_439+0x12>
   15f80:	85 c0                	test   %eax,%eax
   15f82:	0f 85 ce 03 00 00    	jne    16356 <func_34+0x30f1>
   15f88:	83 85 c4 e5 ff ff 01 	addl   $0x1,-0x1a3c(%rbp)
   15f8f:	48 8b 05 22 da 00 00 	mov    0xda22(%rip),%rax        # 239b8 <g_113>
   15f96:	48 8b 00             	mov    (%rax),%rax
   15f99:	48 8b 00             	mov    (%rax),%rax
   15f9c:	8b 10                	mov    (%rax),%edx
   15f9e:	81 ca ce a1 8e f0    	or     $0xf08ea1ce,%edx
   15fa4:	89 10                	mov    %edx,(%rax)
   15fa6:	66 c7 05 b5 90 00 00 	movw   $0x0,0x90b5(%rip)        # 1f064 <g_77>
   15fad:	00 00 
   15faf:	e9 c2 02 00 00       	jmpq   16276 <func_34+0x3011>
   15fb4:	c6 85 7f e5 ff ff 00 	movb   $0x0,-0x1a81(%rbp)
   15fbb:	48 c7 85 70 e8 ff ff 	movq   $0x0,-0x1790(%rbp)
   15fc2:	00 00 00 00 
   15fc6:	48 8d 95 40 f8 ff ff 	lea    -0x7c0(%rbp),%rdx
   15fcd:	b8 00 00 00 00       	mov    $0x0,%eax
   15fd2:	b9 10 00 00 00       	mov    $0x10,%ecx
   15fd7:	48 89 d7             	mov    %rdx,%rdi
   15fda:	f3 48 ab             	rep stos %rax,%es:(%rdi)
   15fdd:	48 c7 85 78 e8 ff ff 	movq   $0x0,-0x1788(%rbp)
   15fe4:	00 00 00 00 
   15fe8:	48 8d 85 80 e5 ff ff 	lea    -0x1a80(%rbp),%rax
   15fef:	48 89 85 80 e8 ff ff 	mov    %rax,-0x1780(%rbp)
   15ff6:	c7 85 68 e6 ff ff 00 	movl   $0x0,-0x1998(%rbp)
   15ffd:	00 00 00 
   16000:	48 8b 05 b1 d9 00 00 	mov    0xd9b1(%rip),%rax        # 239b8 <g_113>
   16007:	48 8b 00             	mov    (%rax),%rax
   1600a:	48 8b 00             	mov    (%rax),%rax
   1600d:	8b 08                	mov    (%rax),%ecx
   1600f:	8b 95 c4 eb ff ff    	mov    -0x143c(%rbp),%edx
   16015:	09 ca                	or     %ecx,%edx
   16017:	89 10                	mov    %edx,(%rax)
   16019:	8b 05 31 90 00 00    	mov    0x9031(%rip),%eax        # 1f050 <g_41>
   1601f:	41 89 c6             	mov    %eax,%r14d
   16022:	48 8b 85 18 e8 ff ff 	mov    -0x17e8(%rbp),%rax
   16029:	48 89 05 f8 dc 00 00 	mov    %rax,0xdcf8(%rip)        # 23d28 <g_650>
   16030:	48 8b 05 f1 dc 00 00 	mov    0xdcf1(%rip),%rax        # 23d28 <g_650>
   16037:	48 8d 15 e2 dc 00 00 	lea    0xdce2(%rip),%rdx        # 23d20 <g_651>
   1603e:	48 39 d0             	cmp    %rdx,%rax
   16041:	0f 95 c0             	setne  %al
   16044:	0f b6 d8             	movzbl %al,%ebx
   16047:	be 00 00 00 00       	mov    $0x0,%esi
   1604c:	bf 81 da ff ff       	mov    $0xffffda81,%edi
   16051:	e8 5d 13 ff ff       	callq  73b3 <safe_add_func_int16_t_s_s>
   16056:	4c 0f bf e0          	movswq %ax,%r12
   1605a:	4c 8b 2d 89 93 00 00 	mov    0x9389(%rip),%r13        # 1f3ea <g_563+0xa>
   16061:	8b 95 c4 eb ff ff    	mov    -0x143c(%rbp),%edx
   16067:	48 8b 85 30 ea ff ff 	mov    -0x15d0(%rbp),%rax
   1606e:	48 85 c0             	test   %rax,%rax
   16071:	0f 94 c0             	sete   %al
   16074:	0f b6 c0             	movzbl %al,%eax
   16077:	39 c2                	cmp    %eax,%edx
   16079:	0f 94 c0             	sete   %al
   1607c:	0f b6 c0             	movzbl %al,%eax
   1607f:	be 0d 00 00 00       	mov    $0xd,%esi
   16084:	89 c7                	mov    %eax,%edi
   16086:	e8 9f 14 ff ff       	callq  752a <safe_rshift_func_int16_t_s_s>
   1608b:	66 85 c0             	test   %ax,%ax
   1608e:	74 15                	je     160a5 <func_34+0x2e40>
   16090:	48 8b 85 68 e5 ff ff 	mov    -0x1a98(%rbp),%rax
   16097:	0f b6 00             	movzbl (%rax),%eax
   1609a:	84 c0                	test   %al,%al
   1609c:	74 07                	je     160a5 <func_34+0x2e40>
   1609e:	b8 01 00 00 00       	mov    $0x1,%eax
   160a3:	eb 05                	jmp    160aa <func_34+0x2e45>
   160a5:	b8 00 00 00 00       	mov    $0x0,%eax
   160aa:	3d 5c ac 00 00       	cmp    $0xac5c,%eax
   160af:	0f 95 c0             	setne  %al
   160b2:	0f b6 d0             	movzbl %al,%edx
   160b5:	0f bf 85 92 e5 ff ff 	movswl -0x1a6e(%rbp),%eax
   160bc:	39 c2                	cmp    %eax,%edx
   160be:	0f 9f c0             	setg   %al
   160c1:	0f b6 c0             	movzbl %al,%eax
   160c4:	89 05 66 9c 00 00    	mov    %eax,0x9c66(%rip)        # 1fd30 <g_660>
   160ca:	b8 01 00 00 00       	mov    $0x1,%eax
   160cf:	0f be c0             	movsbl %al,%eax
   160d2:	be 68 00 00 00       	mov    $0x68,%esi
   160d7:	89 c7                	mov    %eax,%edi
   160d9:	e8 34 11 ff ff       	callq  7212 <safe_mul_func_int8_t_s_s>
   160de:	48 0f be c0          	movsbq %al,%rax
   160e2:	4c 21 e8             	and    %r13,%rax
   160e5:	49 39 c4             	cmp    %rax,%r12
   160e8:	0f 92 c0             	setb   %al
   160eb:	0f b6 c0             	movzbl %al,%eax
   160ee:	0f b7 15 bd 90 00 00 	movzwl 0x90bd(%rip),%edx        # 1f1b2 <g_264+0x112>
   160f5:	66 81 e2 ff 01       	and    $0x1ff,%dx
   160fa:	31 d0                	xor    %edx,%eax
   160fc:	89 c2                	mov    %eax,%edx
   160fe:	48 8b 85 80 e8 ff ff 	mov    -0x1780(%rbp),%rax
   16105:	66 89 10             	mov    %dx,(%rax)
   16108:	48 8b 85 80 e8 ff ff 	mov    -0x1780(%rbp),%rax
   1610f:	0f b7 00             	movzwl (%rax),%eax
   16112:	21 d8                	and    %ebx,%eax
   16114:	0f b7 c0             	movzwl %ax,%eax
   16117:	be 0b 00 00 00       	mov    $0xb,%esi
   1611c:	89 c7                	mov    %eax,%edi
   1611e:	e8 9b 1c ff ff       	callq  7dbe <safe_lshift_func_uint16_t_u_s>
   16123:	0f bf d0             	movswl %ax,%edx
   16126:	0f b6 85 7f e5 ff ff 	movzbl -0x1a81(%rbp),%eax
   1612d:	89 d6                	mov    %edx,%esi
   1612f:	89 c7                	mov    %eax,%edi
   16131:	e8 1f 13 ff ff       	callq  7455 <safe_div_func_int16_t_s_s>
   16136:	98                   	cwtl   
   16137:	44 89 f6             	mov    %r14d,%esi
   1613a:	89 c7                	mov    %eax,%edi
   1613c:	e8 77 1d ff ff       	callq  7eb8 <safe_add_func_uint32_t_u_u>
   16141:	89 c2                	mov    %eax,%edx
   16143:	48 8b 05 6e d8 00 00 	mov    0xd86e(%rip),%rax        # 239b8 <g_113>
   1614a:	48 8b 00             	mov    (%rax),%rax
   1614d:	48 8b 00             	mov    (%rax),%rax
   16150:	89 10                	mov    %edx,(%rax)
   16152:	8b 00                	mov    (%rax),%eax
   16154:	89 c2                	mov    %eax,%edx
   16156:	8b 85 d4 e5 ff ff    	mov    -0x1a2c(%rbp),%eax
   1615c:	31 d0                	xor    %edx,%eax
   1615e:	0f b6 c0             	movzbl %al,%eax
   16161:	be 06 00 00 00       	mov    $0x6,%esi
   16166:	89 c7                	mov    %eax,%edi
   16168:	e8 df 1a ff ff       	callq  7c4c <safe_lshift_func_uint8_t_u_u>
   1616d:	8b 85 28 ed ff ff    	mov    -0x12d8(%rbp),%eax
   16173:	85 c0                	test   %eax,%eax
   16175:	0f 9f c0             	setg   %al
   16178:	0f b6 c0             	movzbl %al,%eax
   1617b:	31 85 68 e6 ff ff    	xor    %eax,-0x1998(%rbp)
   16181:	8b 85 68 e6 ff ff    	mov    -0x1998(%rbp),%eax
   16187:	83 f8 03             	cmp    $0x3,%eax
   1618a:	0f 97 c0             	seta   %al
   1618d:	0f b6 d0             	movzbl %al,%edx
   16190:	0f b6 05 d9 8e 00 00 	movzbl 0x8ed9(%rip),%eax        # 1f070 <g_120>
   16197:	0f b6 c0             	movzbl %al,%eax
   1619a:	39 c2                	cmp    %eax,%edx
   1619c:	0f 9d c0             	setge  %al
   1619f:	0f b6 c0             	movzbl %al,%eax
   161a2:	09 85 d8 e5 ff ff    	or     %eax,-0x1a28(%rbp)
   161a8:	8b 05 a2 91 00 00    	mov    0x91a2(%rip),%eax        # 1f350 <g_439>
   161ae:	85 c0                	test   %eax,%eax
   161b0:	0f 84 90 00 00 00    	je     16246 <func_34+0x2fe1>
   161b6:	44 8b a5 c4 eb ff ff 	mov    -0x143c(%rbp),%r12d
   161bd:	48 8b 85 90 e7 ff ff 	mov    -0x1870(%rbp),%rax
   161c4:	c6 00 6b             	movb   $0x6b,(%rax)
   161c7:	8b 85 c4 eb ff ff    	mov    -0x143c(%rbp),%eax
   161cd:	48 63 d8             	movslq %eax,%rbx
   161d0:	48 8b 85 a0 e9 ff ff 	mov    -0x1660(%rbp),%rax
   161d7:	48 39 85 20 e8 ff ff 	cmp    %rax,-0x17e0(%rbp)
   161de:	0f 95 c0             	setne  %al
   161e1:	0f b6 d0             	movzbl %al,%edx
   161e4:	48 8b 85 d8 e6 ff ff 	mov    -0x1928(%rbp),%rax
   161eb:	66 0f be 8d 7e e5 ff 	movsbw -0x1a82(%rbp),%cx
   161f2:	ff 
   161f3:	66 89 08             	mov    %cx,(%rax)
   161f6:	0f b7 00             	movzwl (%rax),%eax
   161f9:	98                   	cwtl   
   161fa:	89 d6                	mov    %edx,%esi
   161fc:	89 c7                	mov    %eax,%edi
   161fe:	e8 d0 11 ff ff       	callq  73d3 <safe_sub_func_int16_t_s_s>
   16203:	0f bf d0             	movswl %ax,%edx
   16206:	0f b6 85 79 e5 ff ff 	movzbl -0x1a87(%rbp),%eax
   1620d:	31 d0                	xor    %edx,%eax
   1620f:	48 98                	cltq   
   16211:	48 89 de             	mov    %rbx,%rsi
   16214:	48 89 c7             	mov    %rax,%rdi
   16217:	e8 98 17 ff ff       	callq  79b4 <safe_mod_func_int64_t_s_s>
   1621c:	b8 00 00 00 00       	mov    $0x0,%eax
   16221:	44 39 e0             	cmp    %r12d,%eax
   16224:	83 bd 4c e6 ff ff f9 	cmpl   $0xfffffff9,-0x19b4(%rbp)
   1622b:	0f 9c c0             	setl   %al
   1622e:	88 05 3c 8e 00 00    	mov    %al,0x8e3c(%rip)        # 1f070 <g_120>
   16234:	0f b6 05 35 8e 00 00 	movzbl 0x8e35(%rip),%eax        # 1f070 <g_120>
   1623b:	84 c0                	test   %al,%al
   1623d:	74 07                	je     16246 <func_34+0x2fe1>
   1623f:	ba 01 00 00 00       	mov    $0x1,%edx
   16244:	eb 05                	jmp    1624b <func_34+0x2fe6>
   16246:	ba 00 00 00 00       	mov    $0x0,%edx
   1624b:	48 8b 85 38 e7 ff ff 	mov    -0x18c8(%rbp),%rax
   16252:	48 8b 00             	mov    (%rax),%rax
   16255:	48 8b 00             	mov    (%rax),%rax
   16258:	48 8b 00             	mov    (%rax),%rax
   1625b:	89 10                	mov    %edx,(%rax)
   1625d:	8b 85 50 eb ff ff    	mov    -0x14b0(%rbp),%eax
   16263:	85 c0                	test   %eax,%eax
   16265:	0f b7 05 f8 8d 00 00 	movzwl 0x8df8(%rip),%eax        # 1f064 <g_77>
   1626c:	83 c0 01             	add    $0x1,%eax
   1626f:	66 89 05 ee 8d 00 00 	mov    %ax,0x8dee(%rip)        # 1f064 <g_77>
   16276:	0f b7 05 e7 8d 00 00 	movzwl 0x8de7(%rip),%eax        # 1f064 <g_77>
   1627d:	66 83 f8 02          	cmp    $0x2,%ax
   16281:	0f 86 2d fd ff ff    	jbe    15fb4 <func_34+0x2d4f>
   16287:	83 ad cc e5 ff ff 01 	subl   $0x1,-0x1a34(%rbp)
   1628e:	83 bd cc e5 ff ff 00 	cmpl   $0x0,-0x1a34(%rbp)
   16295:	0f 89 0b f4 ff ff    	jns    156a6 <func_34+0x2441>
   1629b:	8b 05 cf 90 00 00    	mov    0x90cf(%rip),%eax        # 1f370 <g_446>
   162a1:	83 c0 01             	add    $0x1,%eax
   162a4:	89 05 c6 90 00 00    	mov    %eax,0x90c6(%rip)        # 1f370 <g_446>
   162aa:	8b 05 c0 90 00 00    	mov    0x90c0(%rip),%eax        # 1f370 <g_446>
   162b0:	83 f8 09             	cmp    $0x9,%eax
   162b3:	0f 86 52 eb ff ff    	jbe    14e0b <func_34+0x1ba6>
   162b9:	e9 da 05 00 00       	jmpq   16898 <func_34+0x3633>
   162be:	0f b7 85 30 e7 ff ff 	movzwl -0x18d0(%rbp),%eax
   162c5:	66 25 00 f0          	and    $0xf000,%ax
   162c9:	83 c8 1b             	or     $0x1b,%eax
   162cc:	66 89 85 30 e7 ff ff 	mov    %ax,-0x18d0(%rbp)
   162d3:	48 8d 05 6e e5 00 00 	lea    0xe56e(%rip),%rax        # 24848 <g_585>
   162da:	48 89 85 e8 e7 ff ff 	mov    %rax,-0x1818(%rbp)
   162e1:	c7 85 30 e6 ff ff a0 	movl   $0x383dd1a0,-0x19d0(%rbp)
   162e8:	d1 3d 38 
   162eb:	c7 05 3b 9a 00 00 00 	movl   $0x0,0x9a3b(%rip)        # 1fd30 <g_660>
   162f2:	00 00 00 
   162f5:	eb 43                	jmp    1633a <func_34+0x30d5>
   162f7:	66 c7 85 8e e5 ff ff 	movw   $0x10ad,-0x1a72(%rbp)
   162fe:	ad 10 
   16300:	48 8d 05 f1 8e 00 00 	lea    0x8ef1(%rip),%rax        # 1f1f8 <g_333>
   16307:	48 89 85 f0 e7 ff ff 	mov    %rax,-0x1810(%rbp)
   1630e:	66 c7 85 90 e5 ff ff 	movw   $0xd7e9,-0x1a70(%rbp)
   16315:	e9 d7 
   16317:	48 8d 85 90 f0 ff ff 	lea    -0xf70(%rbp),%rax
   1631e:	48 05 b0 00 00 00    	add    $0xb0,%rax
   16324:	48 89 85 f8 e7 ff ff 	mov    %rax,-0x1808(%rbp)
   1632b:	8b 05 ff 99 00 00    	mov    0x99ff(%rip),%eax        # 1fd30 <g_660>
   16331:	83 c0 01             	add    $0x1,%eax
   16334:	89 05 f6 99 00 00    	mov    %eax,0x99f6(%rip)        # 1fd30 <g_660>
   1633a:	8b 05 f0 99 00 00    	mov    0x99f0(%rip),%eax        # 1fd30 <g_660>
   16340:	83 f8 12             	cmp    $0x12,%eax
   16343:	75 b2                	jne    162f7 <func_34+0x3092>
   16345:	e9 4e 05 00 00       	jmpq   16898 <func_34+0x3633>
   1634a:	90                   	nop
   1634b:	e9 2c d8 ff ff       	jmpq   13b7c <func_34+0x917>
   16350:	90                   	nop
   16351:	e9 26 d8 ff ff       	jmpq   13b7c <func_34+0x917>
   16356:	90                   	nop
   16357:	e9 20 d8 ff ff       	jmpq   13b7c <func_34+0x917>
   1635c:	c6 85 7a e5 ff ff fd 	movb   $0xfd,-0x1a86(%rbp)
   16363:	0f b7 85 28 e7 ff ff 	movzwl -0x18d8(%rbp),%eax
   1636a:	66 25 00 f0          	and    $0xf000,%ax
   1636e:	83 c8 2d             	or     $0x2d,%eax
   16371:	66 89 85 28 e7 ff ff 	mov    %ax,-0x18d8(%rbp)
   16378:	c7 85 18 e6 ff ff ec 	movl   $0x3993faec,-0x19e8(%rbp)
   1637f:	fa 93 39 
   16382:	48 8d 05 1f db 00 00 	lea    0xdb1f(%rip),%rax        # 23ea8 <g_759>
   16389:	48 89 85 68 e7 ff ff 	mov    %rax,-0x1898(%rbp)
   16390:	48 8d 85 d8 e6 ff ff 	lea    -0x1928(%rbp),%rax
   16397:	48 89 85 40 f8 ff ff 	mov    %rax,-0x7c0(%rbp)
   1639e:	48 8d 85 d8 e6 ff ff 	lea    -0x1928(%rbp),%rax
   163a5:	48 89 85 48 f8 ff ff 	mov    %rax,-0x7b8(%rbp)
   163ac:	48 8d 85 d8 e6 ff ff 	lea    -0x1928(%rbp),%rax
   163b3:	48 89 85 50 f8 ff ff 	mov    %rax,-0x7b0(%rbp)
   163ba:	48 8d 85 d8 e6 ff ff 	lea    -0x1928(%rbp),%rax
   163c1:	48 89 85 58 f8 ff ff 	mov    %rax,-0x7a8(%rbp)
   163c8:	48 8d 85 d8 e6 ff ff 	lea    -0x1928(%rbp),%rax
   163cf:	48 89 85 60 f8 ff ff 	mov    %rax,-0x7a0(%rbp)
   163d6:	48 8d 85 d8 e6 ff ff 	lea    -0x1928(%rbp),%rax
   163dd:	48 89 85 68 f8 ff ff 	mov    %rax,-0x798(%rbp)
   163e4:	48 8d 85 d8 e6 ff ff 	lea    -0x1928(%rbp),%rax
   163eb:	48 89 85 70 f8 ff ff 	mov    %rax,-0x790(%rbp)
   163f2:	48 8d 85 d8 e6 ff ff 	lea    -0x1928(%rbp),%rax
   163f9:	48 89 85 78 f8 ff ff 	mov    %rax,-0x788(%rbp)
   16400:	48 8d 85 d8 e6 ff ff 	lea    -0x1928(%rbp),%rax
   16407:	48 89 85 80 f8 ff ff 	mov    %rax,-0x780(%rbp)
   1640e:	48 8d 85 d8 e6 ff ff 	lea    -0x1928(%rbp),%rax
   16415:	48 89 85 88 f8 ff ff 	mov    %rax,-0x778(%rbp)
   1641c:	c7 85 1c e6 ff ff 44 	movl   $0x20c11544,-0x19e4(%rbp)
   16423:	15 c1 20 
   16426:	66 c7 05 37 8c 00 00 	movw   $0x1b,0x8c37(%rip)        # 1f066 <g_99>
   1642d:	1b 00 
   1642f:	e9 66 03 00 00       	jmpq   1679a <func_34+0x3535>
   16434:	c7 85 20 e6 ff ff 00 	movl   $0x0,-0x19e0(%rbp)
   1643b:	00 00 00 
   1643e:	c7 85 30 e7 ff ff ff 	movl   $0xffffffff,-0x18d0(%rbp)
   16445:	ff ff ff 
   16448:	48 8d 05 15 8c 00 00 	lea    0x8c15(%rip),%rax        # 1f064 <g_77>
   1644f:	48 89 85 70 e7 ff ff 	mov    %rax,-0x1890(%rbp)
   16456:	c7 85 24 e6 ff ff 19 	movl   $0xf9d8719,-0x19dc(%rbp)
   1645d:	87 9d 0f 
   16460:	48 8d 05 f1 e3 00 00 	lea    0xe3f1(%rip),%rax        # 24858 <g_730>
   16467:	48 89 85 78 e7 ff ff 	mov    %rax,-0x1888(%rbp)
   1646e:	c6 85 7b e5 ff ff 08 	movb   $0x8,-0x1a85(%rbp)
   16475:	48 c7 85 80 e7 ff ff 	movq   $0x0,-0x1880(%rbp)
   1647c:	00 00 00 00 
   16480:	48 8d 05 11 8f 00 00 	lea    0x8f11(%rip),%rax        # 1f398 <g_506>
   16487:	48 89 85 88 e7 ff ff 	mov    %rax,-0x1878(%rbp)
   1648e:	c7 85 e0 e5 ff ff 00 	movl   $0x0,-0x1a20(%rbp)
   16495:	00 00 00 
   16498:	eb 1a                	jmp    164b4 <func_34+0x324f>
   1649a:	8b 85 e0 e5 ff ff    	mov    -0x1a20(%rbp),%eax
   164a0:	48 98                	cltq   
   164a2:	c7 84 85 50 f4 ff ff 	movl   $0x0,-0xbb0(%rbp,%rax,4)
   164a9:	00 00 00 00 
   164ad:	83 85 e0 e5 ff ff 01 	addl   $0x1,-0x1a20(%rbp)
   164b4:	83 bd e0 e5 ff ff 03 	cmpl   $0x3,-0x1a20(%rbp)
   164bb:	7e dd                	jle    1649a <func_34+0x3235>
   164bd:	8b 85 30 e7 ff ff    	mov    -0x18d0(%rbp),%eax
   164c3:	41 89 c4             	mov    %eax,%r12d
   164c6:	8b 85 30 e7 ff ff    	mov    -0x18d0(%rbp),%eax
   164cc:	41 89 c5             	mov    %eax,%r13d
   164cf:	8b 9d 20 e6 ff ff    	mov    -0x19e0(%rbp),%ebx
   164d5:	8d 43 ff             	lea    -0x1(%rbx),%eax
   164d8:	89 85 20 e6 ff ff    	mov    %eax,-0x19e0(%rbp)
   164de:	80 bd 7a e5 ff ff 00 	cmpb   $0x0,-0x1a86(%rbp)
   164e5:	75 09                	jne    164f0 <func_34+0x328b>
   164e7:	80 bd 7a e5 ff ff 00 	cmpb   $0x0,-0x1a86(%rbp)
   164ee:	74 07                	je     164f7 <func_34+0x3292>
   164f0:	b8 01 00 00 00       	mov    $0x1,%eax
   164f5:	eb 05                	jmp    164fc <func_34+0x3297>
   164f7:	b8 00 00 00 00       	mov    $0x0,%eax
   164fc:	0f bf d0             	movswl %ax,%edx
   164ff:	0f be 85 7a e5 ff ff 	movsbl -0x1a86(%rbp),%eax
   16506:	89 d6                	mov    %edx,%esi
   16508:	89 c7                	mov    %eax,%edi
   1650a:	e8 c4 0e ff ff       	callq  73d3 <safe_sub_func_int16_t_s_s>
   1650f:	8b 05 3f 8b 00 00    	mov    0x8b3f(%rip),%eax        # 1f054 <g_44>
   16515:	83 f0 09             	xor    $0x9,%eax
   16518:	89 c2                	mov    %eax,%edx
   1651a:	8b 05 10 98 00 00    	mov    0x9810(%rip),%eax        # 1fd30 <g_660>
   16520:	39 c2                	cmp    %eax,%edx
   16522:	0f 9f c0             	setg   %al
   16525:	0f b6 d0             	movzbl %al,%edx
   16528:	8b 85 30 e7 ff ff    	mov    -0x18d0(%rbp),%eax
   1652e:	39 c2                	cmp    %eax,%edx
   16530:	0f 96 c0             	setbe  %al
   16533:	0f b6 c0             	movzbl %al,%eax
   16536:	48 c7 c6 ff ff ff ff 	mov    $0xffffffffffffffff,%rsi
   1653d:	48 89 c7             	mov    %rax,%rdi
   16540:	e8 3b 1b ff ff       	callq  8080 <safe_mod_func_uint64_t_u_u>
   16545:	48 89 c2             	mov    %rax,%rdx
   16548:	48 8b 05 69 d4 00 00 	mov    0xd469(%rip),%rax        # 239b8 <g_113>
   1654f:	48 8b 00             	mov    (%rax),%rax
   16552:	48 8b 00             	mov    (%rax),%rax
   16555:	89 10                	mov    %edx,(%rax)
   16557:	8b 85 30 e7 ff ff    	mov    -0x18d0(%rbp),%eax
   1655d:	89 c2                	mov    %eax,%edx
   1655f:	48 8b 85 70 e7 ff ff 	mov    -0x1890(%rbp),%rax
   16566:	66 89 10             	mov    %dx,(%rax)
   16569:	48 8b 85 70 e7 ff ff 	mov    -0x1890(%rbp),%rax
   16570:	0f b7 00             	movzwl (%rax),%eax
   16573:	66 85 c0             	test   %ax,%ax
   16576:	74 07                	je     1657f <func_34+0x331a>
   16578:	ba 01 00 00 00       	mov    $0x1,%edx
   1657d:	eb 05                	jmp    16584 <func_34+0x331f>
   1657f:	ba 00 00 00 00       	mov    $0x0,%edx
   16584:	8b 05 36 8c 00 00    	mov    0x8c36(%rip),%eax        # 1f1c0 <g_264+0x120>
   1658a:	0f b6 c0             	movzbl %al,%eax
   1658d:	89 d6                	mov    %edx,%esi
   1658f:	89 c7                	mov    %eax,%edi
   16591:	e8 6f 16 ff ff       	callq  7c05 <safe_lshift_func_uint8_t_u_s>
   16596:	0f b6 d0             	movzbl %al,%edx
   16599:	0f be 85 7a e5 ff ff 	movsbl -0x1a86(%rbp),%eax
   165a0:	21 d0                	and    %edx,%eax
   165a2:	89 85 24 e6 ff ff    	mov    %eax,-0x19dc(%rbp)
   165a8:	be 00 9f ec 1c       	mov    $0x1cec9f00,%esi
   165ad:	bf 01 00 00 00       	mov    $0x1,%edi
   165b2:	e8 48 11 ff ff       	callq  76ff <safe_div_func_int32_t_s_s>
   165b7:	0f be 95 7a e5 ff ff 	movsbl -0x1a86(%rbp),%edx
   165be:	39 d0                	cmp    %edx,%eax
   165c0:	0f 9c c0             	setl   %al
   165c3:	0f b6 d0             	movzbl %al,%edx
   165c6:	0f be 85 7a e5 ff ff 	movsbl -0x1a86(%rbp),%eax
   165cd:	39 c2                	cmp    %eax,%edx
   165cf:	0f 94 c0             	sete   %al
   165d2:	0f b6 d0             	movzbl %al,%edx
   165d5:	8b 85 30 e7 ff ff    	mov    -0x18d0(%rbp),%eax
   165db:	39 c2                	cmp    %eax,%edx
   165dd:	0f 96 c0             	setbe  %al
   165e0:	0f b6 d0             	movzbl %al,%edx
   165e3:	8b 05 a7 8d 00 00    	mov    0x8da7(%rip),%eax        # 1f390 <g_481>
   165e9:	09 d0                	or     %edx,%eax
   165eb:	39 c3                	cmp    %eax,%ebx
   165ed:	0f 96 c0             	setbe  %al
   165f0:	0f b6 d0             	movzbl %al,%edx
   165f3:	0f be 85 7a e5 ff ff 	movsbl -0x1a86(%rbp),%eax
   165fa:	39 c2                	cmp    %eax,%edx
   165fc:	0f 9d c0             	setge  %al
   165ff:	0f b6 c0             	movzbl %al,%eax
   16602:	f7 d0                	not    %eax
   16604:	48 98                	cltq   
   16606:	4c 89 ee             	mov    %r13,%rsi
   16609:	48 89 c7             	mov    %rax,%rdi
   1660c:	e8 3a 1a ff ff       	callq  804b <safe_sub_func_uint64_t_u_u>
   16611:	0f b7 c0             	movzwl %ax,%eax
   16614:	44 89 e6             	mov    %r12d,%esi
   16617:	89 c7                	mov    %eax,%edi
   16619:	e8 2a 18 ff ff       	callq  7e48 <safe_rshift_func_uint16_t_u_s>
   1661e:	66 85 c0             	test   %ax,%ax
   16621:	74 07                	je     1662a <func_34+0x33c5>
   16623:	83 bd 20 e6 ff ff 00 	cmpl   $0x0,-0x19e0(%rbp)
   1662a:	ba 01 00 00 00       	mov    $0x1,%edx
   1662f:	8b 85 50 f4 ff ff    	mov    -0xbb0(%rbp),%eax
   16635:	31 d0                	xor    %edx,%eax
   16637:	89 85 50 f4 ff ff    	mov    %eax,-0xbb0(%rbp)
   1663d:	44 0f be ad 7a e5 ff 	movsbl -0x1a86(%rbp),%r13d
   16644:	ff 
   16645:	8b 05 e9 96 00 00    	mov    0x96e9(%rip),%eax        # 1fd34 <g_728>
   1664b:	89 c2                	mov    %eax,%edx
   1664d:	48 8b 85 78 e7 ff ff 	mov    -0x1888(%rbp),%rax
   16654:	66 89 10             	mov    %dx,(%rax)
   16657:	48 8b 85 78 e7 ff ff 	mov    -0x1888(%rbp),%rax
   1665e:	0f b7 00             	movzwl (%rax),%eax
   16661:	4c 0f bf f0          	movswq %ax,%r14
   16665:	48 8b 85 e0 e6 ff ff 	mov    -0x1920(%rbp),%rax
   1666c:	48 8b 00             	mov    (%rax),%rax
   1666f:	44 8b 38             	mov    (%rax),%r15d
   16672:	8b 05 10 8d 00 00    	mov    0x8d10(%rip),%eax        # 1f388 <g_478+0x8>
   16678:	0f be d8             	movsbl %al,%ebx
   1667b:	48 8b 05 7e d5 00 00 	mov    0xd57e(%rip),%rax        # 23c00 <g_584>
   16682:	48 8b 00             	mov    (%rax),%rax
   16685:	48 85 c0             	test   %rax,%rax
   16688:	0f 95 c0             	setne  %al
   1668b:	0f b6 d0             	movzbl %al,%edx
   1668e:	0f be 85 7a e5 ff ff 	movsbl -0x1a86(%rbp),%eax
   16695:	39 c2                	cmp    %eax,%edx
   16697:	0f 95 c0             	setne  %al
   1669a:	0f b6 c0             	movzbl %al,%eax
   1669d:	39 85 20 e6 ff ff    	cmp    %eax,-0x19e0(%rbp)
   166a3:	0f 97 c0             	seta   %al
   166a6:	44 0f b6 e0          	movzbl %al,%r12d
   166aa:	48 8b 05 87 d6 00 00 	mov    0xd687(%rip),%rax        # 23d38 <g_740>
   166b1:	48 85 c0             	test   %rax,%rax
   166b4:	0f 95 c0             	setne  %al
   166b7:	0f b6 d0             	movzbl %al,%edx
   166ba:	8b 85 20 e6 ff ff    	mov    -0x19e0(%rbp),%eax
   166c0:	66 25 c7 eb          	and    $0xebc7,%ax
   166c4:	89 c1                	mov    %eax,%ecx
   166c6:	8b 85 24 e6 ff ff    	mov    -0x19dc(%rbp),%eax
   166cc:	89 85 50 f4 ff ff    	mov    %eax,-0xbb0(%rbp)
   166d2:	8b 85 50 f4 ff ff    	mov    -0xbb0(%rbp),%eax
   166d8:	09 c8                	or     %ecx,%eax
   166da:	98                   	cwtl   
   166db:	89 d6                	mov    %edx,%esi
   166dd:	89 c7                	mov    %eax,%edi
   166df:	e8 cf 0c ff ff       	callq  73b3 <safe_add_func_int16_t_s_s>
   166e4:	98                   	cwtl   
   166e5:	44 89 e6             	mov    %r12d,%esi
   166e8:	89 c7                	mov    %eax,%edi
   166ea:	e8 06 0d ff ff       	callq  73f5 <safe_mul_func_int16_t_s_s>
   166ef:	0f be c0             	movsbl %al,%eax
   166f2:	89 de                	mov    %ebx,%esi
   166f4:	89 c7                	mov    %eax,%edi
   166f6:	e8 17 0b ff ff       	callq  7212 <safe_mul_func_int8_t_s_s>
   166fb:	38 85 7b e5 ff ff    	cmp    %al,-0x1a85(%rbp)
   16701:	0f 95 c0             	setne  %al
   16704:	0f b6 d0             	movzbl %al,%edx
   16707:	0f be 85 7a e5 ff ff 	movsbl -0x1a86(%rbp),%eax
   1670e:	39 c2                	cmp    %eax,%edx
   16710:	0f 94 c0             	sete   %al
   16713:	0f b6 c0             	movzbl %al,%eax
   16716:	44 21 f8             	and    %r15d,%eax
   16719:	85 c0                	test   %eax,%eax
   1671b:	0f 95 c0             	setne  %al
   1671e:	0f b6 c0             	movzbl %al,%eax
   16721:	48 89 05 d0 8a 00 00 	mov    %rax,0x8ad0(%rip)        # 1f1f8 <g_333>
   16728:	48 8b 05 c9 8a 00 00 	mov    0x8ac9(%rip),%rax        # 1f1f8 <g_333>
   1672f:	83 f0 4a             	xor    $0x4a,%eax
   16732:	0f be c0             	movsbl %al,%eax
   16735:	be 04 00 00 00       	mov    $0x4,%esi
   1673a:	89 c7                	mov    %eax,%edi
   1673c:	e8 2b 0c ff ff       	callq  736c <safe_rshift_func_int8_t_s_u>
   16741:	48 0f be c0          	movsbq %al,%rax
   16745:	48 ba d3 a1 9b eb c0 	movabs $0x7407bbc0eb9ba1d3,%rdx
   1674c:	bb 07 74 
   1674f:	48 31 d0             	xor    %rdx,%rax
   16752:	49 39 c6             	cmp    %rax,%r14
   16755:	0f 9c c0             	setl   %al
   16758:	0f b6 d0             	movzbl %al,%edx
   1675b:	48 8b 85 88 e7 ff ff 	mov    -0x1878(%rbp),%rax
   16762:	89 10                	mov    %edx,(%rax)
   16764:	48 8b 85 88 e7 ff ff 	mov    -0x1878(%rbp),%rax
   1676b:	8b 00                	mov    (%rax),%eax
   1676d:	41 39 c5             	cmp    %eax,%r13d
   16770:	0f 93 c2             	setae  %dl
   16773:	48 8b 05 2e d2 00 00 	mov    0xd22e(%rip),%rax        # 239a8 <g_106>
   1677a:	0f b6 d2             	movzbl %dl,%edx
   1677d:	89 10                	mov    %edx,(%rax)
   1677f:	0f b7 05 e0 88 00 00 	movzwl 0x88e0(%rip),%eax        # 1f066 <g_99>
   16786:	98                   	cwtl   
   16787:	be 07 00 00 00       	mov    $0x7,%esi
   1678c:	89 c7                	mov    %eax,%edi
   1678e:	e8 72 0e ff ff       	callq  7605 <safe_sub_func_int32_t_s_s>
   16793:	66 89 05 cc 88 00 00 	mov    %ax,0x88cc(%rip)        # 1f066 <g_99>
   1679a:	0f b7 05 c5 88 00 00 	movzwl 0x88c5(%rip),%eax        # 1f066 <g_99>
   167a1:	66 83 f8 f3          	cmp    $0xfff3,%ax
   167a5:	0f 8c 89 fc ff ff    	jl     16434 <func_34+0x31cf>
   167ab:	48 8b 05 ee d6 00 00 	mov    0xd6ee(%rip),%rax        # 23ea0 <g_747>
   167b2:	48 8d 15 e3 8b 00 00 	lea    0x8be3(%rip),%rdx        # 1f39c <g_535>
   167b9:	48 89 10             	mov    %rdx,(%rax)
   167bc:	8b 9d 18 e6 ff ff    	mov    -0x19e8(%rbp),%ebx
   167c2:	48 8b 85 e0 e6 ff ff 	mov    -0x1920(%rbp),%rax
   167c9:	48 8b 00             	mov    (%rax),%rax
   167cc:	8b 00                	mov    (%rax),%eax
   167ce:	85 c0                	test   %eax,%eax
   167d0:	0f 95 c0             	setne  %al
   167d3:	0f b6 c0             	movzbl %al,%eax
   167d6:	39 85 18 e6 ff ff    	cmp    %eax,-0x19e8(%rbp)
   167dc:	0f 85 88 00 00 00    	jne    1686a <func_34+0x3605>
   167e2:	48 8b 85 38 e7 ff ff 	mov    -0x18c8(%rbp),%rax
   167e9:	48 8b 00             	mov    (%rax),%rax
   167ec:	48 8b 00             	mov    (%rax),%rax
   167ef:	48 8b 00             	mov    (%rax),%rax
   167f2:	8b 00                	mov    (%rax),%eax
   167f4:	4c 63 e0             	movslq %eax,%r12
   167f7:	0f b7 85 28 e7 ff ff 	movzwl -0x18d8(%rbp),%eax
   167fe:	66 25 ff 0f          	and    $0xfff,%ax
   16802:	0f b7 c0             	movzwl %ax,%eax
   16805:	48 8b 15 a4 d1 00 00 	mov    0xd1a4(%rip),%rdx        # 239b0 <g_105>
   1680c:	48 8b 12             	mov    (%rdx),%rdx
   1680f:	8b 32                	mov    (%rdx),%esi
   16811:	48 8b 0d 90 d6 00 00 	mov    0xd690(%rip),%rcx        # 23ea8 <g_759>
   16818:	48 8b 95 68 e7 ff ff 	mov    -0x1898(%rbp),%rdx
   1681f:	48 89 0a             	mov    %rcx,(%rdx)
   16822:	48 8b 95 68 e7 ff ff 	mov    -0x1898(%rbp),%rdx
   16829:	48 8b 0a             	mov    (%rdx),%rcx
   1682c:	48 8b 95 58 f8 ff ff 	mov    -0x7a8(%rbp),%rdx
   16833:	48 39 d1             	cmp    %rdx,%rcx
   16836:	0f 94 c2             	sete   %dl
   16839:	0f b6 d2             	movzbl %dl,%edx
   1683c:	09 f2                	or     %esi,%edx
   1683e:	89 c6                	mov    %eax,%esi
   16840:	89 d7                	mov    %edx,%edi
   16842:	e8 85 0e ff ff       	callq  76cc <safe_mod_func_int32_t_s_s>
   16847:	0f be c0             	movsbl %al,%eax
   1684a:	be 01 00 00 00       	mov    $0x1,%esi
   1684f:	89 c7                	mov    %eax,%edi
   16851:	e8 98 0a ff ff       	callq  72ee <safe_lshift_func_int8_t_s_u>
   16856:	48 0f be c0          	movsbq %al,%rax
   1685a:	4c 89 e6             	mov    %r12,%rsi
   1685d:	48 89 c7             	mov    %rax,%rdi
   16860:	e8 e6 17 ff ff       	callq  804b <safe_sub_func_uint64_t_u_u>
   16865:	48 85 c0             	test   %rax,%rax
   16868:	74 07                	je     16871 <func_34+0x360c>
   1686a:	b8 01 00 00 00       	mov    $0x1,%eax
   1686f:	eb 05                	jmp    16876 <func_34+0x3611>
   16871:	b8 00 00 00 00       	mov    $0x0,%eax
   16876:	98                   	cwtl   
   16877:	89 de                	mov    %ebx,%esi
   16879:	89 c7                	mov    %eax,%edi
   1687b:	e8 12 0c ff ff       	callq  7492 <safe_lshift_func_int16_t_s_s>
   16880:	b8 01 00 00 00       	mov    $0x1,%eax
   16885:	89 c2                	mov    %eax,%edx
   16887:	8b 85 1c e6 ff ff    	mov    -0x19e4(%rbp),%eax
   1688d:	21 d0                	and    %edx,%eax
   1688f:	89 85 1c e6 ff ff    	mov    %eax,-0x19e4(%rbp)
   16895:	eb 01                	jmp    16898 <func_34+0x3633>
   16897:	90                   	nop
   16898:	8b 05 b2 8a 00 00    	mov    0x8ab2(%rip),%eax        # 1f350 <g_439>
   1689e:	48 8b 5d c8          	mov    -0x38(%rbp),%rbx
   168a2:	64 48 33 1c 25 28 00 	xor    %fs:0x28,%rbx
   168a9:	00 00 
   168ab:	74 05                	je     168b2 <func_34+0x364d>
   168ad:	e8 be 07 ff ff       	callq  7070 <__stack_chk_fail@plt>
   168b2:	48 81 c4 78 1a 00 00 	add    $0x1a78,%rsp
   168b9:	5b                   	pop    %rbx
   168ba:	41 5c                	pop    %r12
   168bc:	41 5d                	pop    %r13
   168be:	41 5e                	pop    %r14
   168c0:	41 5f                	pop    %r15
   168c2:	5d                   	pop    %rbp
   168c3:	c3                   	retq   

00000000000168c4 <func_60>:
   168c4:	f3 0f 1e fa          	endbr64 
   168c8:	55                   	push   %rbp
   168c9:	48 89 e5             	mov    %rsp,%rbp
   168cc:	41 54                	push   %r12
   168ce:	53                   	push   %rbx
   168cf:	48 81 ec 80 06 00 00 	sub    $0x680,%rsp
   168d6:	89 bd 7c f9 ff ff    	mov    %edi,-0x684(%rbp)
   168dc:	89 b5 78 f9 ff ff    	mov    %esi,-0x688(%rbp)
   168e2:	64 48 8b 04 25 28 00 	mov    %fs:0x28,%rax
   168e9:	00 00 
   168eb:	48 89 45 e8          	mov    %rax,-0x18(%rbp)
   168ef:	31 c0                	xor    %eax,%eax
   168f1:	c7 85 98 f9 ff ff f7 	movl   $0x84d571f7,-0x668(%rbp)
   168f8:	71 d5 84 
   168fb:	48 8d 05 4c 87 00 00 	lea    0x874c(%rip),%rax        # 1f04e <g_37>
   16902:	48 89 85 a0 f9 ff ff 	mov    %rax,-0x660(%rbp)
   16909:	c7 85 8c f9 ff ff 01 	movl   $0x1,-0x674(%rbp)
   16910:	00 00 00 
   16913:	48 8d 05 34 87 00 00 	lea    0x8734(%rip),%rax        # 1f04e <g_37>
   1691a:	48 89 85 a8 f9 ff ff 	mov    %rax,-0x658(%rbp)
   16921:	48 8d 05 34 87 00 00 	lea    0x8734(%rip),%rax        # 1f05c <g_49>
   16928:	48 89 85 b0 f9 ff ff 	mov    %rax,-0x650(%rbp)
   1692f:	83 bd 98 f9 ff ff 00 	cmpl   $0x0,-0x668(%rbp)
   16936:	74 3f                	je     16977 <func_60+0xb3>
   16938:	c7 85 94 f9 ff ff 00 	movl   $0x0,-0x66c(%rbp)
   1693f:	00 00 00 
   16942:	eb 1e                	jmp    16962 <func_60+0x9e>
   16944:	8b 85 94 f9 ff ff    	mov    -0x66c(%rbp),%eax
   1694a:	48 98                	cltq   
   1694c:	48 8d 15 fb 86 00 00 	lea    0x86fb(%rip),%rdx        # 1f04e <g_37>
   16953:	48 89 94 c5 e0 f9 ff 	mov    %rdx,-0x620(%rbp,%rax,8)
   1695a:	ff 
   1695b:	83 85 94 f9 ff ff 01 	addl   $0x1,-0x66c(%rbp)
   16962:	83 bd 94 f9 ff ff 03 	cmpl   $0x3,-0x66c(%rbp)
   16969:	7e d9                	jle    16944 <func_60+0x80>
   1696b:	48 8b 85 f0 f9 ff ff 	mov    -0x610(%rbp),%rax
   16972:	e9 fb 01 00 00       	jmpq   16b72 <func_60+0x2ae>
   16977:	48 8d 85 a0 f9 ff ff 	lea    -0x660(%rbp),%rax
   1697e:	48 89 85 b8 f9 ff ff 	mov    %rax,-0x648(%rbp)
   16985:	48 8d 05 d8 86 00 00 	lea    0x86d8(%rip),%rax        # 1f064 <g_77>
   1698c:	48 89 85 c0 f9 ff ff 	mov    %rax,-0x640(%rbp)
   16993:	c7 85 9c f9 ff ff 1f 	movl   $0x6f1a7e1f,-0x664(%rbp)
   1699a:	7e 1a 6f 
   1699d:	48 8d 85 8c f9 ff ff 	lea    -0x674(%rbp),%rax
   169a4:	48 89 85 c8 f9 ff ff 	mov    %rax,-0x638(%rbp)
   169ab:	0f b7 85 90 f9 ff ff 	movzwl -0x670(%rbp),%eax
   169b2:	66 25 00 f0          	and    $0xf000,%ax
   169b6:	83 c8 0b             	or     $0xb,%eax
   169b9:	66 89 85 90 f9 ff ff 	mov    %ax,-0x670(%rbp)
   169c0:	48 8d 85 a8 f9 ff ff 	lea    -0x658(%rbp),%rax
   169c7:	48 89 85 d0 f9 ff ff 	mov    %rax,-0x630(%rbp)
   169ce:	48 8d 85 e0 f9 ff ff 	lea    -0x620(%rbp),%rax
   169d5:	48 8d 15 c4 c9 00 00 	lea    0xc9c4(%rip),%rdx        # 233a0 <g_2024+0x1140>
   169dc:	b9 c0 00 00 00       	mov    $0xc0,%ecx
   169e1:	48 89 c7             	mov    %rax,%rdi
   169e4:	48 89 d6             	mov    %rdx,%rsi
   169e7:	f3 48 a5             	rep movsq %ds:(%rsi),%es:(%rdi)
   169ea:	48 8d 05 77 86 00 00 	lea    0x8677(%rip),%rax        # 1f068 <g_101>
   169f1:	48 89 85 d8 f9 ff ff 	mov    %rax,-0x628(%rbp)
   169f8:	48 8b 85 c8 f9 ff ff 	mov    -0x638(%rbp),%rax
   169ff:	8b 95 8c f9 ff ff    	mov    -0x674(%rbp),%edx
   16a05:	89 10                	mov    %edx,(%rax)
   16a07:	8b 85 98 f9 ff ff    	mov    -0x668(%rbp),%eax
   16a0d:	0f bf d8             	movswl %ax,%ebx
   16a10:	0f b7 85 90 f9 ff ff 	movzwl -0x670(%rbp),%eax
   16a17:	66 25 ff 0f          	and    $0xfff,%ax
   16a1b:	44 0f b7 e0          	movzwl %ax,%r12d
   16a1f:	0f b6 05 28 86 00 00 	movzbl 0x8628(%rip),%eax        # 1f04e <g_37>
   16a26:	0f be d0             	movsbl %al,%edx
   16a29:	48 8b 8d a8 f9 ff ff 	mov    -0x658(%rbp),%rcx
   16a30:	48 8b 85 d0 f9 ff ff 	mov    -0x630(%rbp),%rax
   16a37:	48 89 08             	mov    %rcx,(%rax)
   16a3a:	48 8b 85 d0 f9 ff ff 	mov    -0x630(%rbp),%rax
   16a41:	48 8b 00             	mov    (%rax),%rax
   16a44:	48 85 c0             	test   %rax,%rax
   16a47:	0f 95 c0             	setne  %al
   16a4a:	0f b6 c0             	movzbl %al,%eax
   16a4d:	89 d6                	mov    %edx,%esi
   16a4f:	89 c7                	mov    %eax,%edi
   16a51:	e8 68 12 ff ff       	callq  7cbe <safe_rshift_func_uint8_t_u_u>
   16a56:	0f b6 d0             	movzbl %al,%edx
   16a59:	0f b7 05 06 86 00 00 	movzwl 0x8606(%rip),%eax        # 1f066 <g_99>
   16a60:	09 d0                	or     %edx,%eax
   16a62:	66 89 05 fd 85 00 00 	mov    %ax,0x85fd(%rip)        # 1f066 <g_99>
   16a69:	0f b7 05 f6 85 00 00 	movzwl 0x85f6(%rip),%eax        # 1f066 <g_99>
   16a70:	98                   	cwtl   
   16a71:	44 89 e6             	mov    %r12d,%esi
   16a74:	89 c7                	mov    %eax,%edi
   16a76:	e8 7a 09 ff ff       	callq  73f5 <safe_mul_func_int16_t_s_s>
   16a7b:	89 de                	mov    %ebx,%esi
   16a7d:	bf 01 00 00 00       	mov    $0x1,%edi
   16a82:	e8 6e 09 ff ff       	callq  73f5 <safe_mul_func_int16_t_s_s>
   16a87:	48 0f bf d0          	movswq %ax,%rdx
   16a8b:	48 8b 85 d8 f9 ff ff 	mov    -0x628(%rbp),%rax
   16a92:	48 89 10             	mov    %rdx,(%rax)
   16a95:	48 8b 85 d8 f9 ff ff 	mov    -0x628(%rbp),%rax
   16a9c:	48 8b 00             	mov    (%rax),%rax
   16a9f:	48 83 f8 02          	cmp    $0x2,%rax
   16aa3:	0f 94 c0             	sete   %al
   16aa6:	0f b6 d0             	movzbl %al,%edx
   16aa9:	8b 85 8c f9 ff ff    	mov    -0x674(%rbp),%eax
   16aaf:	0f be c0             	movsbl %al,%eax
   16ab2:	89 d6                	mov    %edx,%esi
   16ab4:	89 c7                	mov    %eax,%edi
   16ab6:	e8 57 07 ff ff       	callq  7212 <safe_mul_func_int8_t_s_s>
   16abb:	8b 85 9c f9 ff ff    	mov    -0x664(%rbp),%eax
   16ac1:	98                   	cwtl   
   16ac2:	be 00 00 00 00       	mov    $0x0,%esi
   16ac7:	89 c7                	mov    %eax,%edi
   16ac9:	e8 e5 08 ff ff       	callq  73b3 <safe_add_func_int16_t_s_s>
   16ace:	48 0f bf d0          	movswq %ax,%rdx
   16ad2:	8b 05 40 dd 00 00    	mov    0xdd40(%rip),%eax        # 24818 <g_40+0x8>
   16ad8:	83 f8 03             	cmp    $0x3,%eax
   16adb:	0f 9f c0             	setg   %al
   16ade:	0f b6 c0             	movzbl %al,%eax
   16ae1:	48 89 d6             	mov    %rdx,%rsi
   16ae4:	48 89 c7             	mov    %rax,%rdi
   16ae7:	e8 42 15 ff ff       	callq  802e <safe_add_func_uint64_t_u_u>
   16aec:	0f b7 d0             	movzwl %ax,%edx
   16aef:	48 8b 8d a0 f9 ff ff 	mov    -0x660(%rbp),%rcx
   16af6:	48 8b 85 b8 f9 ff ff 	mov    -0x648(%rbp),%rax
   16afd:	48 89 08             	mov    %rcx,(%rax)
   16b00:	48 8b 85 b8 f9 ff ff 	mov    -0x648(%rbp),%rax
   16b07:	48 8b 00             	mov    (%rax),%rax
   16b0a:	48 8d 0d 3d 85 00 00 	lea    0x853d(%rip),%rcx        # 1f04e <g_37>
   16b11:	48 39 c8             	cmp    %rcx,%rax
   16b14:	0f 95 c0             	setne  %al
   16b17:	0f b6 c8             	movzbl %al,%ecx
   16b1a:	48 8b 85 c0 f9 ff ff 	mov    -0x640(%rbp),%rax
   16b21:	0f b7 00             	movzwl (%rax),%eax
   16b24:	89 c6                	mov    %eax,%esi
   16b26:	89 c8                	mov    %ecx,%eax
   16b28:	21 f0                	and    %esi,%eax
   16b2a:	89 c1                	mov    %eax,%ecx
   16b2c:	48 8b 85 c0 f9 ff ff 	mov    -0x640(%rbp),%rax
   16b33:	66 89 08             	mov    %cx,(%rax)
   16b36:	48 8b 85 c0 f9 ff ff 	mov    -0x640(%rbp),%rax
   16b3d:	0f b7 00             	movzwl (%rax),%eax
   16b40:	0f b7 c0             	movzwl %ax,%eax
   16b43:	89 d6                	mov    %edx,%esi
   16b45:	89 c7                	mov    %eax,%edi
   16b47:	e8 42 12 ff ff       	callq  7d8e <safe_div_func_uint16_t_u_u>
   16b4c:	89 c2                	mov    %eax,%edx
   16b4e:	48 8b 05 4b ce 00 00 	mov    0xce4b(%rip),%rax        # 239a0 <g_103>
   16b55:	0f b7 d2             	movzwl %dx,%edx
   16b58:	89 10                	mov    %edx,(%rax)
   16b5a:	48 8b 05 4f ce 00 00 	mov    0xce4f(%rip),%rax        # 239b0 <g_105>
   16b61:	48 8b 95 b0 f9 ff ff 	mov    -0x650(%rbp),%rdx
   16b68:	48 89 10             	mov    %rdx,(%rax)
   16b6b:	48 8d 05 dc 84 00 00 	lea    0x84dc(%rip),%rax        # 1f04e <g_37>
   16b72:	48 8b 5d e8          	mov    -0x18(%rbp),%rbx
   16b76:	64 48 33 1c 25 28 00 	xor    %fs:0x28,%rbx
   16b7d:	00 00 
   16b7f:	74 05                	je     16b86 <func_60+0x2c2>
   16b81:	e8 ea 04 ff ff       	callq  7070 <__stack_chk_fail@plt>
   16b86:	48 81 c4 80 06 00 00 	add    $0x680,%rsp
   16b8d:	5b                   	pop    %rbx
   16b8e:	41 5c                	pop    %r12
   16b90:	5d                   	pop    %rbp
   16b91:	c3                   	retq   

0000000000016b92 <func_63>:
   16b92:	f3 0f 1e fa          	endbr64 
   16b96:	55                   	push   %rbp
   16b97:	48 89 e5             	mov    %rsp,%rbp
   16b9a:	48 89 7d f8          	mov    %rdi,-0x8(%rbp)
   16b9e:	89 75 f4             	mov    %esi,-0xc(%rbp)
   16ba1:	8b 45 f4             	mov    -0xc(%rbp),%eax
   16ba4:	5d                   	pop    %rbp
   16ba5:	c3                   	retq   

0000000000016ba6 <main>:
   16ba6:	f3 0f 1e fa          	endbr64 
   16baa:	55                   	push   %rbp
   16bab:	48 89 e5             	mov    %rsp,%rbp
   16bae:	48 83 ec 20          	sub    $0x20,%rsp
   16bb2:	89 7d ec             	mov    %edi,-0x14(%rbp)
   16bb5:	48 89 75 e0          	mov    %rsi,-0x20(%rbp)
   16bb9:	c7 45 fc 00 00 00 00 	movl   $0x0,-0x4(%rbp)
   16bc0:	83 7d ec 02          	cmpl   $0x2,-0x14(%rbp)
   16bc4:	75 25                	jne    16beb <main+0x45>
   16bc6:	48 8b 45 e0          	mov    -0x20(%rbp),%rax
   16bca:	48 83 c0 08          	add    $0x8,%rax
   16bce:	48 8b 00             	mov    (%rax),%rax
   16bd1:	48 8d 35 d8 4b 00 00 	lea    0x4bd8(%rip),%rsi        # 1b7b0 <g_1821+0x16e0>
   16bd8:	48 89 c7             	mov    %rax,%rdi
   16bdb:	e8 b0 04 ff ff       	callq  7090 <strcmp@plt>
   16be0:	85 c0                	test   %eax,%eax
   16be2:	75 07                	jne    16beb <main+0x45>
   16be4:	c7 45 fc 01 00 00 00 	movl   $0x1,-0x4(%rbp)
   16beb:	e8 99 05 ff ff       	callq  7189 <platform_main_begin>
   16bf0:	e8 a3 19 ff ff       	callq  8598 <crc32_gentab>
   16bf5:	e8 bb 1b ff ff       	callq  87b5 <func_1>
   16bfa:	8b 05 30 84 00 00    	mov    0x8430(%rip),%eax        # 1f030 <g_7>
   16c00:	48 98                	cltq   
   16c02:	8b 55 fc             	mov    -0x4(%rbp),%edx
   16c05:	48 8d 35 a6 4b 00 00 	lea    0x4ba6(%rip),%rsi        # 1b7b2 <g_1821+0x16e2>
   16c0c:	48 89 c7             	mov    %rax,%rdi
   16c0f:	e8 df 1a ff ff       	callq  86f3 <transparent_crc>
   16c14:	48 8b 05 15 84 00 00 	mov    0x8415(%rip),%rax        # 1f030 <g_7>
   16c1b:	48 c1 e8 20          	shr    $0x20,%rax
   16c1f:	66 25 ff 01          	and    $0x1ff,%ax
   16c23:	0f b7 c0             	movzwl %ax,%eax
   16c26:	8b 55 fc             	mov    -0x4(%rbp),%edx
   16c29:	48 8d 35 89 4b 00 00 	lea    0x4b89(%rip),%rsi        # 1b7b9 <g_1821+0x16e9>
   16c30:	48 89 c7             	mov    %rax,%rdi
   16c33:	e8 bb 1a ff ff       	callq  86f3 <transparent_crc>
   16c38:	8b 05 f8 83 00 00    	mov    0x83f8(%rip),%eax        # 1f036 <g_7+0x6>
   16c3e:	48 98                	cltq   
   16c40:	8b 55 fc             	mov    -0x4(%rbp),%edx
   16c43:	48 8d 35 76 4b 00 00 	lea    0x4b76(%rip),%rsi        # 1b7c0 <g_1821+0x16f0>
   16c4a:	48 89 c7             	mov    %rax,%rdi
   16c4d:	e8 a1 1a ff ff       	callq  86f3 <transparent_crc>
   16c52:	48 8b 05 e1 83 00 00 	mov    0x83e1(%rip),%rax        # 1f03a <g_7+0xa>
   16c59:	8b 55 fc             	mov    -0x4(%rbp),%edx
   16c5c:	48 8d 35 64 4b 00 00 	lea    0x4b64(%rip),%rsi        # 1b7c7 <g_1821+0x16f7>
   16c63:	48 89 c7             	mov    %rax,%rdi
   16c66:	e8 88 1a ff ff       	callq  86f3 <transparent_crc>
   16c6b:	8b 05 d1 83 00 00    	mov    0x83d1(%rip),%eax        # 1f042 <g_7+0x12>
   16c71:	89 c1                	mov    %eax,%ecx
   16c73:	8b 45 fc             	mov    -0x4(%rbp),%eax
   16c76:	89 c2                	mov    %eax,%edx
   16c78:	48 8d 35 4f 4b 00 00 	lea    0x4b4f(%rip),%rsi        # 1b7ce <g_1821+0x16fe>
   16c7f:	48 89 cf             	mov    %rcx,%rdi
   16c82:	e8 6c 1a ff ff       	callq  86f3 <transparent_crc>
   16c87:	48 8b 05 b8 83 00 00 	mov    0x83b8(%rip),%rax        # 1f046 <g_7+0x16>
   16c8e:	8b 55 fc             	mov    -0x4(%rbp),%edx
   16c91:	48 8d 35 3d 4b 00 00 	lea    0x4b3d(%rip),%rsi        # 1b7d5 <g_1821+0x1705>
   16c98:	48 89 c7             	mov    %rax,%rdi
   16c9b:	e8 53 1a ff ff       	callq  86f3 <transparent_crc>
   16ca0:	0f b6 05 a7 83 00 00 	movzbl 0x83a7(%rip),%eax        # 1f04e <g_37>
   16ca7:	48 0f be c0          	movsbq %al,%rax
   16cab:	8b 55 fc             	mov    -0x4(%rbp),%edx
   16cae:	48 8d 35 27 4b 00 00 	lea    0x4b27(%rip),%rsi        # 1b7dc <g_1821+0x170c>
   16cb5:	48 89 c7             	mov    %rax,%rdi
   16cb8:	e8 36 1a ff ff       	callq  86f3 <transparent_crc>
   16cbd:	c7 45 f0 00 00 00 00 	movl   $0x0,-0x10(%rbp)
   16cc4:	eb 75                	jmp    16d3b <main+0x195>
   16cc6:	c7 45 f4 00 00 00 00 	movl   $0x0,-0xc(%rbp)
   16ccd:	eb 62                	jmp    16d31 <main+0x18b>
   16ccf:	8b 45 f4             	mov    -0xc(%rbp),%eax
   16cd2:	48 63 c8             	movslq %eax,%rcx
   16cd5:	8b 45 f0             	mov    -0x10(%rbp),%eax
   16cd8:	48 63 d0             	movslq %eax,%rdx
   16cdb:	48 89 d0             	mov    %rdx,%rax
   16cde:	48 c1 e0 02          	shl    $0x2,%rax
   16ce2:	48 01 d0             	add    %rdx,%rax
   16ce5:	48 01 c8             	add    %rcx,%rax
   16ce8:	48 8d 14 85 00 00 00 	lea    0x0(,%rax,4),%rdx
   16cef:	00 
   16cf0:	48 8d 05 19 db 00 00 	lea    0xdb19(%rip),%rax        # 24810 <g_40>
   16cf7:	8b 04 02             	mov    (%rdx,%rax,1),%eax
   16cfa:	48 98                	cltq   
   16cfc:	8b 55 fc             	mov    -0x4(%rbp),%edx
   16cff:	48 8d 35 db 4a 00 00 	lea    0x4adb(%rip),%rsi        # 1b7e1 <g_1821+0x1711>
   16d06:	48 89 c7             	mov    %rax,%rdi
   16d09:	e8 e5 19 ff ff       	callq  86f3 <transparent_crc>
   16d0e:	83 7d fc 00          	cmpl   $0x0,-0x4(%rbp)
   16d12:	74 19                	je     16d2d <main+0x187>
   16d14:	8b 55 f4             	mov    -0xc(%rbp),%edx
   16d17:	8b 45 f0             	mov    -0x10(%rbp),%eax
   16d1a:	89 c6                	mov    %eax,%esi
   16d1c:	48 8d 3d c9 4a 00 00 	lea    0x4ac9(%rip),%rdi        # 1b7ec <g_1821+0x171c>
   16d23:	b8 00 00 00 00       	mov    $0x0,%eax
   16d28:	e8 53 03 ff ff       	callq  7080 <printf@plt>
   16d2d:	83 45 f4 01          	addl   $0x1,-0xc(%rbp)
   16d31:	83 7d f4 04          	cmpl   $0x4,-0xc(%rbp)
   16d35:	7e 98                	jle    16ccf <main+0x129>
   16d37:	83 45 f0 01          	addl   $0x1,-0x10(%rbp)
   16d3b:	83 7d f0 00          	cmpl   $0x0,-0x10(%rbp)
   16d3f:	7e 85                	jle    16cc6 <main+0x120>
   16d41:	8b 05 09 83 00 00    	mov    0x8309(%rip),%eax        # 1f050 <g_41>
   16d47:	48 98                	cltq   
   16d49:	8b 55 fc             	mov    -0x4(%rbp),%edx
   16d4c:	48 8d 35 ab 4a 00 00 	lea    0x4aab(%rip),%rsi        # 1b7fe <g_1821+0x172e>
   16d53:	48 89 c7             	mov    %rax,%rdi
   16d56:	e8 98 19 ff ff       	callq  86f3 <transparent_crc>
   16d5b:	c7 45 f0 00 00 00 00 	movl   $0x0,-0x10(%rbp)
   16d62:	eb 4b                	jmp    16daf <main+0x209>
   16d64:	8b 45 f0             	mov    -0x10(%rbp),%eax
   16d67:	48 98                	cltq   
   16d69:	48 8d 14 85 00 00 00 	lea    0x0(,%rax,4),%rdx
   16d70:	00 
   16d71:	48 8d 05 dc 82 00 00 	lea    0x82dc(%rip),%rax        # 1f054 <g_44>
   16d78:	8b 04 02             	mov    (%rdx,%rax,1),%eax
   16d7b:	48 98                	cltq   
   16d7d:	8b 55 fc             	mov    -0x4(%rbp),%edx
   16d80:	48 8d 35 7c 4a 00 00 	lea    0x4a7c(%rip),%rsi        # 1b803 <g_1821+0x1733>
   16d87:	48 89 c7             	mov    %rax,%rdi
   16d8a:	e8 64 19 ff ff       	callq  86f3 <transparent_crc>
   16d8f:	83 7d fc 00          	cmpl   $0x0,-0x4(%rbp)
   16d93:	74 16                	je     16dab <main+0x205>
   16d95:	8b 45 f0             	mov    -0x10(%rbp),%eax
   16d98:	89 c6                	mov    %eax,%esi
   16d9a:	48 8d 3d 6a 4a 00 00 	lea    0x4a6a(%rip),%rdi        # 1b80b <g_1821+0x173b>
   16da1:	b8 00 00 00 00       	mov    $0x0,%eax
   16da6:	e8 d5 02 ff ff       	callq  7080 <printf@plt>
   16dab:	83 45 f0 01          	addl   $0x1,-0x10(%rbp)
   16daf:	83 7d f0 00          	cmpl   $0x0,-0x10(%rbp)
   16db3:	7e af                	jle    16d64 <main+0x1be>
   16db5:	8b 05 9d 82 00 00    	mov    0x829d(%rip),%eax        # 1f058 <g_45>
   16dbb:	48 98                	cltq   
   16dbd:	8b 55 fc             	mov    -0x4(%rbp),%edx
   16dc0:	48 8d 35 52 4a 00 00 	lea    0x4a52(%rip),%rsi        # 1b819 <g_1821+0x1749>
   16dc7:	48 89 c7             	mov    %rax,%rdi
   16dca:	e8 24 19 ff ff       	callq  86f3 <transparent_crc>
   16dcf:	8b 05 87 82 00 00    	mov    0x8287(%rip),%eax        # 1f05c <g_49>
   16dd5:	48 98                	cltq   
   16dd7:	8b 55 fc             	mov    -0x4(%rbp),%edx
   16dda:	48 8d 35 3d 4a 00 00 	lea    0x4a3d(%rip),%rsi        # 1b81e <g_1821+0x174e>
   16de1:	48 89 c7             	mov    %rax,%rdi
   16de4:	e8 0a 19 ff ff       	callq  86f3 <transparent_crc>
   16de9:	8b 05 71 82 00 00    	mov    0x8271(%rip),%eax        # 1f060 <g_69>
   16def:	48 98                	cltq   
   16df1:	8b 55 fc             	mov    -0x4(%rbp),%edx
   16df4:	48 8d 35 28 4a 00 00 	lea    0x4a28(%rip),%rsi        # 1b823 <g_1821+0x1753>
   16dfb:	48 89 c7             	mov    %rax,%rdi
   16dfe:	e8 f0 18 ff ff       	callq  86f3 <transparent_crc>
   16e03:	0f b7 05 5a 82 00 00 	movzwl 0x825a(%rip),%eax        # 1f064 <g_77>
   16e0a:	0f b7 c0             	movzwl %ax,%eax
   16e0d:	8b 55 fc             	mov    -0x4(%rbp),%edx
   16e10:	48 8d 35 11 4a 00 00 	lea    0x4a11(%rip),%rsi        # 1b828 <g_1821+0x1758>
   16e17:	48 89 c7             	mov    %rax,%rdi
   16e1a:	e8 d4 18 ff ff       	callq  86f3 <transparent_crc>
   16e1f:	0f b7 05 40 82 00 00 	movzwl 0x8240(%rip),%eax        # 1f066 <g_99>
   16e26:	48 0f bf c0          	movswq %ax,%rax
   16e2a:	8b 55 fc             	mov    -0x4(%rbp),%edx
   16e2d:	48 8d 35 f9 49 00 00 	lea    0x49f9(%rip),%rsi        # 1b82d <g_1821+0x175d>
   16e34:	48 89 c7             	mov    %rax,%rdi
   16e37:	e8 b7 18 ff ff       	callq  86f3 <transparent_crc>
   16e3c:	48 8b 05 25 82 00 00 	mov    0x8225(%rip),%rax        # 1f068 <g_101>
   16e43:	48 89 c1             	mov    %rax,%rcx
   16e46:	8b 45 fc             	mov    -0x4(%rbp),%eax
   16e49:	89 c2                	mov    %eax,%edx
   16e4b:	48 8d 35 e0 49 00 00 	lea    0x49e0(%rip),%rsi        # 1b832 <g_1821+0x1762>
   16e52:	48 89 cf             	mov    %rcx,%rdi
   16e55:	e8 99 18 ff ff       	callq  86f3 <transparent_crc>
   16e5a:	0f b6 05 0f 82 00 00 	movzbl 0x820f(%rip),%eax        # 1f070 <g_120>
   16e61:	0f b6 c0             	movzbl %al,%eax
   16e64:	8b 55 fc             	mov    -0x4(%rbp),%edx
   16e67:	48 8d 35 ca 49 00 00 	lea    0x49ca(%rip),%rsi        # 1b838 <g_1821+0x1768>
   16e6e:	48 89 c7             	mov    %rax,%rdi
   16e71:	e8 7d 18 ff ff       	callq  86f3 <transparent_crc>
   16e76:	0f b7 05 f5 81 00 00 	movzwl 0x81f5(%rip),%eax        # 1f072 <g_176>
   16e7d:	48 0f bf c0          	movswq %ax,%rax
   16e81:	8b 55 fc             	mov    -0x4(%rbp),%edx
   16e84:	48 8d 35 b3 49 00 00 	lea    0x49b3(%rip),%rsi        # 1b83e <g_1821+0x176e>
   16e8b:	48 89 c7             	mov    %rax,%rdi
   16e8e:	e8 60 18 ff ff       	callq  86f3 <transparent_crc>
   16e93:	0f b6 05 da 81 00 00 	movzbl 0x81da(%rip),%eax        # 1f074 <g_198>
   16e9a:	0f b6 c0             	movzbl %al,%eax
   16e9d:	8b 55 fc             	mov    -0x4(%rbp),%edx
   16ea0:	48 8d 35 9d 49 00 00 	lea    0x499d(%rip),%rsi        # 1b844 <g_1821+0x1774>
   16ea7:	48 89 c7             	mov    %rax,%rdi
   16eaa:	e8 44 18 ff ff       	callq  86f3 <transparent_crc>
   16eaf:	8b 05 c3 81 00 00    	mov    0x81c3(%rip),%eax        # 1f078 <g_225>
   16eb5:	48 98                	cltq   
   16eb7:	8b 55 fc             	mov    -0x4(%rbp),%edx
   16eba:	48 8d 35 89 49 00 00 	lea    0x4989(%rip),%rsi        # 1b84a <g_1821+0x177a>
   16ec1:	48 89 c7             	mov    %rax,%rdi
   16ec4:	e8 2a 18 ff ff       	callq  86f3 <transparent_crc>
   16ec9:	48 8b 05 b0 81 00 00 	mov    0x81b0(%rip),%rax        # 1f080 <g_230>
   16ed0:	c1 e0 08             	shl    $0x8,%eax
   16ed3:	c1 f8 08             	sar    $0x8,%eax
   16ed6:	48 98                	cltq   
   16ed8:	8b 55 fc             	mov    -0x4(%rbp),%edx
   16edb:	48 8d 35 6e 49 00 00 	lea    0x496e(%rip),%rsi        # 1b850 <g_1821+0x1780>
   16ee2:	48 89 c7             	mov    %rax,%rdi
   16ee5:	e8 09 18 ff ff       	callq  86f3 <transparent_crc>
   16eea:	8b 05 94 81 00 00    	mov    0x8194(%rip),%eax        # 1f084 <g_230+0x4>
   16ef0:	48 98                	cltq   
   16ef2:	8b 55 fc             	mov    -0x4(%rbp),%edx
   16ef5:	48 8d 35 5d 49 00 00 	lea    0x495d(%rip),%rsi        # 1b859 <g_1821+0x1789>
   16efc:	48 89 c7             	mov    %rax,%rdi
   16eff:	e8 ef 17 ff ff       	callq  86f3 <transparent_crc>
   16f04:	48 8b 05 7d 81 00 00 	mov    0x817d(%rip),%rax        # 1f088 <g_230+0x8>
   16f0b:	c1 e0 07             	shl    $0x7,%eax
   16f0e:	66 c1 f8 07          	sar    $0x7,%ax
   16f12:	48 0f bf c0          	movswq %ax,%rax
   16f16:	8b 55 fc             	mov    -0x4(%rbp),%edx
   16f19:	48 8d 35 42 49 00 00 	lea    0x4942(%rip),%rsi        # 1b862 <g_1821+0x1792>
   16f20:	48 89 c7             	mov    %rax,%rdi
   16f23:	e8 cb 17 ff ff       	callq  86f3 <transparent_crc>
   16f28:	0f b6 05 5d 81 00 00 	movzbl 0x815d(%rip),%eax        # 1f08c <g_230+0xc>
   16f2f:	0f b6 c0             	movzbl %al,%eax
   16f32:	8b 55 fc             	mov    -0x4(%rbp),%edx
   16f35:	48 8d 35 2f 49 00 00 	lea    0x492f(%rip),%rsi        # 1b86b <g_1821+0x179b>
   16f3c:	48 89 c7             	mov    %rax,%rdi
   16f3f:	e8 af 17 ff ff       	callq  86f3 <transparent_crc>
   16f44:	48 8b 05 3d 81 00 00 	mov    0x813d(%rip),%rax        # 1f088 <g_230+0x8>
   16f4b:	48 c1 e0 16          	shl    $0x16,%rax
   16f4f:	48 c1 f8 3e          	sar    $0x3e,%rax
   16f53:	48 0f be c0          	movsbq %al,%rax
   16f57:	8b 55 fc             	mov    -0x4(%rbp),%edx
   16f5a:	48 8d 35 13 49 00 00 	lea    0x4913(%rip),%rsi        # 1b874 <g_1821+0x17a4>
   16f61:	48 89 c7             	mov    %rax,%rdi
   16f64:	e8 8a 17 ff ff       	callq  86f3 <transparent_crc>
   16f69:	48 8b 05 18 81 00 00 	mov    0x8118(%rip),%rax        # 1f088 <g_230+0x8>
   16f70:	48 01 c0             	add    %rax,%rax
   16f73:	48 c1 f8 2b          	sar    $0x2b,%rax
   16f77:	48 98                	cltq   
   16f79:	8b 55 fc             	mov    -0x4(%rbp),%edx
   16f7c:	48 8d 35 fa 48 00 00 	lea    0x48fa(%rip),%rsi        # 1b87d <g_1821+0x17ad>
   16f83:	48 89 c7             	mov    %rax,%rdi
   16f86:	e8 68 17 ff ff       	callq  86f3 <transparent_crc>
   16f8b:	48 8b 05 fe 80 00 00 	mov    0x80fe(%rip),%rax        # 1f090 <g_230+0x10>
   16f92:	c1 e0 0b             	shl    $0xb,%eax
   16f95:	c1 f8 0b             	sar    $0xb,%eax
   16f98:	48 98                	cltq   
   16f9a:	8b 55 fc             	mov    -0x4(%rbp),%edx
   16f9d:	48 8d 35 e2 48 00 00 	lea    0x48e2(%rip),%rsi        # 1b886 <g_1821+0x17b6>
   16fa4:	48 89 c7             	mov    %rax,%rdi
   16fa7:	e8 47 17 ff ff       	callq  86f3 <transparent_crc>
   16fac:	48 8b 05 dd 80 00 00 	mov    0x80dd(%rip),%rax        # 1f090 <g_230+0x10>
   16fb3:	48 c1 e0 0b          	shl    $0xb,%rax
   16fb7:	48 c1 f8 2b          	sar    $0x2b,%rax
   16fbb:	48 98                	cltq   
   16fbd:	8b 55 fc             	mov    -0x4(%rbp),%edx
   16fc0:	48 8d 35 c8 48 00 00 	lea    0x48c8(%rip),%rsi        # 1b88f <g_1821+0x17bf>
   16fc7:	48 89 c7             	mov    %rax,%rdi
   16fca:	e8 24 17 ff ff       	callq  86f3 <transparent_crc>
   16fcf:	8b 05 c3 80 00 00    	mov    0x80c3(%rip),%eax        # 1f098 <g_258>
   16fd5:	89 c1                	mov    %eax,%ecx
   16fd7:	8b 45 fc             	mov    -0x4(%rbp),%eax
   16fda:	89 c2                	mov    %eax,%edx
   16fdc:	48 8d 35 b5 48 00 00 	lea    0x48b5(%rip),%rsi        # 1b898 <g_1821+0x17c8>
   16fe3:	48 89 cf             	mov    %rcx,%rdi
   16fe6:	e8 08 17 ff ff       	callq  86f3 <transparent_crc>
   16feb:	c7 45 f0 00 00 00 00 	movl   $0x0,-0x10(%rbp)
   16ff2:	e9 63 01 00 00       	jmpq   1715a <main+0x5b4>
   16ff7:	8b 45 f0             	mov    -0x10(%rbp),%eax
   16ffa:	48 63 d0             	movslq %eax,%rdx
   16ffd:	48 89 d0             	mov    %rdx,%rax
   17000:	48 c1 e0 04          	shl    $0x4,%rax
   17004:	48 29 d0             	sub    %rdx,%rax
   17007:	48 01 c0             	add    %rax,%rax
   1700a:	48 89 c2             	mov    %rax,%rdx
   1700d:	48 8d 05 8c 80 00 00 	lea    0x808c(%rip),%rax        # 1f0a0 <g_264>
   17014:	8b 04 02             	mov    (%rdx,%rax,1),%eax
   17017:	48 98                	cltq   
   17019:	8b 55 fc             	mov    -0x4(%rbp),%edx
   1701c:	48 8d 35 7b 48 00 00 	lea    0x487b(%rip),%rsi        # 1b89e <g_1821+0x17ce>
   17023:	48 89 c7             	mov    %rax,%rdi
   17026:	e8 c8 16 ff ff       	callq  86f3 <transparent_crc>
   1702b:	8b 45 f0             	mov    -0x10(%rbp),%eax
   1702e:	48 63 d0             	movslq %eax,%rdx
   17031:	48 89 d0             	mov    %rdx,%rax
   17034:	48 c1 e0 04          	shl    $0x4,%rax
   17038:	48 29 d0             	sub    %rdx,%rax
   1703b:	48 01 c0             	add    %rax,%rax
   1703e:	48 89 c2             	mov    %rax,%rdx
   17041:	48 8d 05 58 80 00 00 	lea    0x8058(%rip),%rax        # 1f0a0 <g_264>
   17048:	0f b7 44 02 04       	movzwl 0x4(%rdx,%rax,1),%eax
   1704d:	66 25 ff 01          	and    $0x1ff,%ax
   17051:	0f b7 c0             	movzwl %ax,%eax
   17054:	8b 55 fc             	mov    -0x4(%rbp),%edx
   17057:	48 8d 35 4c 48 00 00 	lea    0x484c(%rip),%rsi        # 1b8aa <g_1821+0x17da>
   1705e:	48 89 c7             	mov    %rax,%rdi
   17061:	e8 8d 16 ff ff       	callq  86f3 <transparent_crc>
   17066:	8b 45 f0             	mov    -0x10(%rbp),%eax
   17069:	48 63 d0             	movslq %eax,%rdx
   1706c:	48 89 d0             	mov    %rdx,%rax
   1706f:	48 c1 e0 04          	shl    $0x4,%rax
   17073:	48 29 d0             	sub    %rdx,%rax
   17076:	48 01 c0             	add    %rax,%rax
   17079:	48 89 c2             	mov    %rax,%rdx
   1707c:	48 8d 05 1d 80 00 00 	lea    0x801d(%rip),%rax        # 1f0a0 <g_264>
   17083:	8b 44 02 06          	mov    0x6(%rdx,%rax,1),%eax
   17087:	48 98                	cltq   
   17089:	8b 55 fc             	mov    -0x4(%rbp),%edx
   1708c:	48 8d 35 23 48 00 00 	lea    0x4823(%rip),%rsi        # 1b8b6 <g_1821+0x17e6>
   17093:	48 89 c7             	mov    %rax,%rdi
   17096:	e8 58 16 ff ff       	callq  86f3 <transparent_crc>
   1709b:	8b 45 f0             	mov    -0x10(%rbp),%eax
   1709e:	48 63 d0             	movslq %eax,%rdx
   170a1:	48 89 d0             	mov    %rdx,%rax
   170a4:	48 c1 e0 04          	shl    $0x4,%rax
   170a8:	48 29 d0             	sub    %rdx,%rax
   170ab:	48 01 c0             	add    %rax,%rax
   170ae:	48 89 c2             	mov    %rax,%rdx
   170b1:	48 8d 05 e8 7f 00 00 	lea    0x7fe8(%rip),%rax        # 1f0a0 <g_264>
   170b8:	48 8b 44 02 0a       	mov    0xa(%rdx,%rax,1),%rax
   170bd:	8b 55 fc             	mov    -0x4(%rbp),%edx
   170c0:	48 8d 35 fb 47 00 00 	lea    0x47fb(%rip),%rsi        # 1b8c2 <g_1821+0x17f2>
   170c7:	48 89 c7             	mov    %rax,%rdi
   170ca:	e8 24 16 ff ff       	callq  86f3 <transparent_crc>
   170cf:	8b 45 f0             	mov    -0x10(%rbp),%eax
   170d2:	48 63 d0             	movslq %eax,%rdx
   170d5:	48 89 d0             	mov    %rdx,%rax
   170d8:	48 c1 e0 04          	shl    $0x4,%rax
   170dc:	48 29 d0             	sub    %rdx,%rax
   170df:	48 01 c0             	add    %rax,%rax
   170e2:	48 89 c2             	mov    %rax,%rdx
   170e5:	48 8d 05 c4 7f 00 00 	lea    0x7fc4(%rip),%rax        # 1f0b0 <g_264+0x10>
   170ec:	8b 44 02 02          	mov    0x2(%rdx,%rax,1),%eax
   170f0:	89 c1                	mov    %eax,%ecx
   170f2:	8b 45 fc             	mov    -0x4(%rbp),%eax
   170f5:	89 c2                	mov    %eax,%edx
   170f7:	48 8d 35 d0 47 00 00 	lea    0x47d0(%rip),%rsi        # 1b8ce <g_1821+0x17fe>
   170fe:	48 89 cf             	mov    %rcx,%rdi
   17101:	e8 ed 15 ff ff       	callq  86f3 <transparent_crc>
   17106:	8b 45 f0             	mov    -0x10(%rbp),%eax
   17109:	48 63 d0             	movslq %eax,%rdx
   1710c:	48 89 d0             	mov    %rdx,%rax
   1710f:	48 c1 e0 04          	shl    $0x4,%rax
   17113:	48 29 d0             	sub    %rdx,%rax
   17116:	48 01 c0             	add    %rax,%rax
   17119:	48 89 c2             	mov    %rax,%rdx
   1711c:	48 8d 05 8d 7f 00 00 	lea    0x7f8d(%rip),%rax        # 1f0b0 <g_264+0x10>
   17123:	48 8b 44 02 06       	mov    0x6(%rdx,%rax,1),%rax
   17128:	8b 55 fc             	mov    -0x4(%rbp),%edx
   1712b:	48 8d 35 a8 47 00 00 	lea    0x47a8(%rip),%rsi        # 1b8da <g_1821+0x180a>
   17132:	48 89 c7             	mov    %rax,%rdi
   17135:	e8 b9 15 ff ff       	callq  86f3 <transparent_crc>
   1713a:	83 7d fc 00          	cmpl   $0x0,-0x4(%rbp)
   1713e:	74 16                	je     17156 <main+0x5b0>
   17140:	8b 45 f0             	mov    -0x10(%rbp),%eax
   17143:	89 c6                	mov    %eax,%esi
   17145:	48 8d 3d bf 46 00 00 	lea    0x46bf(%rip),%rdi        # 1b80b <g_1821+0x173b>
   1714c:	b8 00 00 00 00       	mov    $0x0,%eax
   17151:	e8 2a ff fe ff       	callq  7080 <printf@plt>
   17156:	83 45 f0 01          	addl   $0x1,-0x10(%rbp)
   1715a:	83 7d f0 09          	cmpl   $0x9,-0x10(%rbp)
   1715e:	0f 8e 93 fe ff ff    	jle    16ff7 <main+0x451>
   17164:	8b 05 66 80 00 00    	mov    0x8066(%rip),%eax        # 1f1d0 <g_277>
   1716a:	48 98                	cltq   
   1716c:	8b 55 fc             	mov    -0x4(%rbp),%edx
   1716f:	48 8d 35 70 47 00 00 	lea    0x4770(%rip),%rsi        # 1b8e6 <g_1821+0x1816>
   17176:	48 89 c7             	mov    %rax,%rdi
   17179:	e8 75 15 ff ff       	callq  86f3 <transparent_crc>
   1717e:	0f b7 05 4f 80 00 00 	movzwl 0x804f(%rip),%eax        # 1f1d4 <g_277+0x4>
   17185:	66 25 ff 01          	and    $0x1ff,%ax
   17189:	0f b7 c0             	movzwl %ax,%eax
   1718c:	8b 55 fc             	mov    -0x4(%rbp),%edx
   1718f:	48 8d 35 59 47 00 00 	lea    0x4759(%rip),%rsi        # 1b8ef <g_1821+0x181f>
   17196:	48 89 c7             	mov    %rax,%rdi
   17199:	e8 55 15 ff ff       	callq  86f3 <transparent_crc>
   1719e:	8b 05 32 80 00 00    	mov    0x8032(%rip),%eax        # 1f1d6 <g_277+0x6>
   171a4:	48 98                	cltq   
   171a6:	8b 55 fc             	mov    -0x4(%rbp),%edx
   171a9:	48 8d 35 48 47 00 00 	lea    0x4748(%rip),%rsi        # 1b8f8 <g_1821+0x1828>
   171b0:	48 89 c7             	mov    %rax,%rdi
   171b3:	e8 3b 15 ff ff       	callq  86f3 <transparent_crc>
   171b8:	48 8b 05 1b 80 00 00 	mov    0x801b(%rip),%rax        # 1f1da <g_277+0xa>
   171bf:	8b 55 fc             	mov    -0x4(%rbp),%edx
   171c2:	48 8d 35 38 47 00 00 	lea    0x4738(%rip),%rsi        # 1b901 <g_1821+0x1831>
   171c9:	48 89 c7             	mov    %rax,%rdi
   171cc:	e8 22 15 ff ff       	callq  86f3 <transparent_crc>
   171d1:	8b 05 0b 80 00 00    	mov    0x800b(%rip),%eax        # 1f1e2 <g_277+0x12>
   171d7:	89 c1                	mov    %eax,%ecx
   171d9:	8b 45 fc             	mov    -0x4(%rbp),%eax
   171dc:	89 c2                	mov    %eax,%edx
   171de:	48 8d 35 25 47 00 00 	lea    0x4725(%rip),%rsi        # 1b90a <g_1821+0x183a>
   171e5:	48 89 cf             	mov    %rcx,%rdi
   171e8:	e8 06 15 ff ff       	callq  86f3 <transparent_crc>
   171ed:	48 8b 05 f2 7f 00 00 	mov    0x7ff2(%rip),%rax        # 1f1e6 <g_277+0x16>
   171f4:	8b 55 fc             	mov    -0x4(%rbp),%edx
   171f7:	48 8d 35 15 47 00 00 	lea    0x4715(%rip),%rsi        # 1b913 <g_1821+0x1843>
   171fe:	48 89 c7             	mov    %rax,%rdi
   17201:	e8 ed 14 ff ff       	callq  86f3 <transparent_crc>
   17206:	0f b7 05 e3 7f 00 00 	movzwl 0x7fe3(%rip),%eax        # 1f1f0 <g_330>
   1720d:	66 25 ff 0f          	and    $0xfff,%ax
   17211:	0f b7 c0             	movzwl %ax,%eax
   17214:	8b 55 fc             	mov    -0x4(%rbp),%edx
   17217:	48 8d 35 fe 46 00 00 	lea    0x46fe(%rip),%rsi        # 1b91c <g_1821+0x184c>
   1721e:	48 89 c7             	mov    %rax,%rdi
   17221:	e8 cd 14 ff ff       	callq  86f3 <transparent_crc>
   17226:	48 8b 05 cb 7f 00 00 	mov    0x7fcb(%rip),%rax        # 1f1f8 <g_333>
   1722d:	48 89 c1             	mov    %rax,%rcx
   17230:	8b 45 fc             	mov    -0x4(%rbp),%eax
   17233:	89 c2                	mov    %eax,%edx
   17235:	48 8d 35 e9 46 00 00 	lea    0x46e9(%rip),%rsi        # 1b925 <g_1821+0x1855>
   1723c:	48 89 cf             	mov    %rcx,%rdi
   1723f:	e8 af 14 ff ff       	callq  86f3 <transparent_crc>
   17244:	8b 05 ae 7f 00 00    	mov    0x7fae(%rip),%eax        # 1f1f8 <g_333>
   1724a:	c1 e0 06             	shl    $0x6,%eax
   1724d:	c1 f8 06             	sar    $0x6,%eax
   17250:	48 98                	cltq   
   17252:	8b 55 fc             	mov    -0x4(%rbp),%edx
   17255:	48 8d 35 d2 46 00 00 	lea    0x46d2(%rip),%rsi        # 1b92e <g_1821+0x185e>
   1725c:	48 89 c7             	mov    %rax,%rdi
   1725f:	e8 8f 14 ff ff       	callq  86f3 <transparent_crc>
   17264:	48 8b 05 8d 7f 00 00 	mov    0x7f8d(%rip),%rax        # 1f1f8 <g_333>
   1726b:	48 89 c1             	mov    %rax,%rcx
   1726e:	8b 45 fc             	mov    -0x4(%rbp),%eax
   17271:	89 c2                	mov    %eax,%edx
   17273:	48 8d 35 bd 46 00 00 	lea    0x46bd(%rip),%rsi        # 1b937 <g_1821+0x1867>
   1727a:	48 89 cf             	mov    %rcx,%rdi
   1727d:	e8 71 14 ff ff       	callq  86f3 <transparent_crc>
   17282:	0f b7 05 6f 7f 00 00 	movzwl 0x7f6f(%rip),%eax        # 1f1f8 <g_333>
   17289:	0f b7 c0             	movzwl %ax,%eax
   1728c:	8b 55 fc             	mov    -0x4(%rbp),%edx
   1728f:	48 8d 35 aa 46 00 00 	lea    0x46aa(%rip),%rsi        # 1b940 <g_1821+0x1870>
   17296:	48 89 c7             	mov    %rax,%rdi
   17299:	e8 55 14 ff ff       	callq  86f3 <transparent_crc>
   1729e:	8b 05 5c 7f 00 00    	mov    0x7f5c(%rip),%eax        # 1f200 <g_347>
   172a4:	48 98                	cltq   
   172a6:	8b 55 fc             	mov    -0x4(%rbp),%edx
   172a9:	48 8d 35 99 46 00 00 	lea    0x4699(%rip),%rsi        # 1b949 <g_1821+0x1879>
   172b0:	48 89 c7             	mov    %rax,%rdi
   172b3:	e8 3b 14 ff ff       	callq  86f3 <transparent_crc>
   172b8:	48 8b 05 41 7f 00 00 	mov    0x7f41(%rip),%rax        # 1f200 <g_347>
   172bf:	48 c1 e8 20          	shr    $0x20,%rax
   172c3:	66 25 ff 01          	and    $0x1ff,%ax
   172c7:	0f b7 c0             	movzwl %ax,%eax
   172ca:	8b 55 fc             	mov    -0x4(%rbp),%edx
   172cd:	48 8d 35 7e 46 00 00 	lea    0x467e(%rip),%rsi        # 1b952 <g_1821+0x1882>
   172d4:	48 89 c7             	mov    %rax,%rdi
   172d7:	e8 17 14 ff ff       	callq  86f3 <transparent_crc>
   172dc:	8b 05 24 7f 00 00    	mov    0x7f24(%rip),%eax        # 1f206 <g_347+0x6>
   172e2:	48 98                	cltq   
   172e4:	8b 55 fc             	mov    -0x4(%rbp),%edx
   172e7:	48 8d 35 6d 46 00 00 	lea    0x466d(%rip),%rsi        # 1b95b <g_1821+0x188b>
   172ee:	48 89 c7             	mov    %rax,%rdi
   172f1:	e8 fd 13 ff ff       	callq  86f3 <transparent_crc>
   172f6:	48 8b 05 0d 7f 00 00 	mov    0x7f0d(%rip),%rax        # 1f20a <g_347+0xa>
   172fd:	8b 55 fc             	mov    -0x4(%rbp),%edx
   17300:	48 8d 35 5d 46 00 00 	lea    0x465d(%rip),%rsi        # 1b964 <g_1821+0x1894>
   17307:	48 89 c7             	mov    %rax,%rdi
   1730a:	e8 e4 13 ff ff       	callq  86f3 <transparent_crc>
   1730f:	8b 05 fd 7e 00 00    	mov    0x7efd(%rip),%eax        # 1f212 <g_347+0x12>
   17315:	89 c1                	mov    %eax,%ecx
   17317:	8b 45 fc             	mov    -0x4(%rbp),%eax
   1731a:	89 c2                	mov    %eax,%edx
   1731c:	48 8d 35 4a 46 00 00 	lea    0x464a(%rip),%rsi        # 1b96d <g_1821+0x189d>
   17323:	48 89 cf             	mov    %rcx,%rdi
   17326:	e8 c8 13 ff ff       	callq  86f3 <transparent_crc>
   1732b:	48 8b 05 e4 7e 00 00 	mov    0x7ee4(%rip),%rax        # 1f216 <g_347+0x16>
   17332:	8b 55 fc             	mov    -0x4(%rbp),%edx
   17335:	48 8d 35 3a 46 00 00 	lea    0x463a(%rip),%rsi        # 1b976 <g_1821+0x18a6>
   1733c:	48 89 c7             	mov    %rax,%rdi
   1733f:	e8 af 13 ff ff       	callq  86f3 <transparent_crc>
   17344:	c7 45 f0 00 00 00 00 	movl   $0x0,-0x10(%rbp)
   1734b:	e9 63 01 00 00       	jmpq   174b3 <main+0x90d>
   17350:	8b 45 f0             	mov    -0x10(%rbp),%eax
   17353:	48 63 d0             	movslq %eax,%rdx
   17356:	48 89 d0             	mov    %rdx,%rax
   17359:	48 c1 e0 04          	shl    $0x4,%rax
   1735d:	48 29 d0             	sub    %rdx,%rax
   17360:	48 01 c0             	add    %rax,%rax
   17363:	48 89 c2             	mov    %rax,%rdx
   17366:	48 8d 05 b3 7e 00 00 	lea    0x7eb3(%rip),%rax        # 1f220 <g_397>
   1736d:	8b 04 02             	mov    (%rdx,%rax,1),%eax
   17370:	48 98                	cltq   
   17372:	8b 55 fc             	mov    -0x4(%rbp),%edx
   17375:	48 8d 35 03 46 00 00 	lea    0x4603(%rip),%rsi        # 1b97f <g_1821+0x18af>
   1737c:	48 89 c7             	mov    %rax,%rdi
   1737f:	e8 6f 13 ff ff       	callq  86f3 <transparent_crc>
   17384:	8b 45 f0             	mov    -0x10(%rbp),%eax
   17387:	48 63 d0             	movslq %eax,%rdx
   1738a:	48 89 d0             	mov    %rdx,%rax
   1738d:	48 c1 e0 04          	shl    $0x4,%rax
   17391:	48 29 d0             	sub    %rdx,%rax
   17394:	48 01 c0             	add    %rax,%rax
   17397:	48 89 c2             	mov    %rax,%rdx
   1739a:	48 8d 05 7f 7e 00 00 	lea    0x7e7f(%rip),%rax        # 1f220 <g_397>
   173a1:	0f b7 44 02 04       	movzwl 0x4(%rdx,%rax,1),%eax
   173a6:	66 25 ff 01          	and    $0x1ff,%ax
   173aa:	0f b7 c0             	movzwl %ax,%eax
   173ad:	8b 55 fc             	mov    -0x4(%rbp),%edx
   173b0:	48 8d 35 d4 45 00 00 	lea    0x45d4(%rip),%rsi        # 1b98b <g_1821+0x18bb>
   173b7:	48 89 c7             	mov    %rax,%rdi
   173ba:	e8 34 13 ff ff       	callq  86f3 <transparent_crc>
   173bf:	8b 45 f0             	mov    -0x10(%rbp),%eax
   173c2:	48 63 d0             	movslq %eax,%rdx
   173c5:	48 89 d0             	mov    %rdx,%rax
   173c8:	48 c1 e0 04          	shl    $0x4,%rax
   173cc:	48 29 d0             	sub    %rdx,%rax
   173cf:	48 01 c0             	add    %rax,%rax
   173d2:	48 89 c2             	mov    %rax,%rdx
   173d5:	48 8d 05 44 7e 00 00 	lea    0x7e44(%rip),%rax        # 1f220 <g_397>
   173dc:	8b 44 02 06          	mov    0x6(%rdx,%rax,1),%eax
   173e0:	48 98                	cltq   
   173e2:	8b 55 fc             	mov    -0x4(%rbp),%edx
   173e5:	48 8d 35 ab 45 00 00 	lea    0x45ab(%rip),%rsi        # 1b997 <g_1821+0x18c7>
   173ec:	48 89 c7             	mov    %rax,%rdi
   173ef:	e8 ff 12 ff ff       	callq  86f3 <transparent_crc>
   173f4:	8b 45 f0             	mov    -0x10(%rbp),%eax
   173f7:	48 63 d0             	movslq %eax,%rdx
   173fa:	48 89 d0             	mov    %rdx,%rax
   173fd:	48 c1 e0 04          	shl    $0x4,%rax
   17401:	48 29 d0             	sub    %rdx,%rax
   17404:	48 01 c0             	add    %rax,%rax
   17407:	48 89 c2             	mov    %rax,%rdx
   1740a:	48 8d 05 0f 7e 00 00 	lea    0x7e0f(%rip),%rax        # 1f220 <g_397>
   17411:	48 8b 44 02 0a       	mov    0xa(%rdx,%rax,1),%rax
   17416:	8b 55 fc             	mov    -0x4(%rbp),%edx
   17419:	48 8d 35 83 45 00 00 	lea    0x4583(%rip),%rsi        # 1b9a3 <g_1821+0x18d3>
   17420:	48 89 c7             	mov    %rax,%rdi
   17423:	e8 cb 12 ff ff       	callq  86f3 <transparent_crc>
   17428:	8b 45 f0             	mov    -0x10(%rbp),%eax
   1742b:	48 63 d0             	movslq %eax,%rdx
   1742e:	48 89 d0             	mov    %rdx,%rax
   17431:	48 c1 e0 04          	shl    $0x4,%rax
   17435:	48 29 d0             	sub    %rdx,%rax
   17438:	48 01 c0             	add    %rax,%rax
   1743b:	48 89 c2             	mov    %rax,%rdx
   1743e:	48 8d 05 eb 7d 00 00 	lea    0x7deb(%rip),%rax        # 1f230 <g_397+0x10>
   17445:	8b 44 02 02          	mov    0x2(%rdx,%rax,1),%eax
   17449:	89 c1                	mov    %eax,%ecx
   1744b:	8b 45 fc             	mov    -0x4(%rbp),%eax
   1744e:	89 c2                	mov    %eax,%edx
   17450:	48 8d 35 58 45 00 00 	lea    0x4558(%rip),%rsi        # 1b9af <g_1821+0x18df>
   17457:	48 89 cf             	mov    %rcx,%rdi
   1745a:	e8 94 12 ff ff       	callq  86f3 <transparent_crc>
   1745f:	8b 45 f0             	mov    -0x10(%rbp),%eax
   17462:	48 63 d0             	movslq %eax,%rdx
   17465:	48 89 d0             	mov    %rdx,%rax
   17468:	48 c1 e0 04          	shl    $0x4,%rax
   1746c:	48 29 d0             	sub    %rdx,%rax
   1746f:	48 01 c0             	add    %rax,%rax
   17472:	48 89 c2             	mov    %rax,%rdx
   17475:	48 8d 05 b4 7d 00 00 	lea    0x7db4(%rip),%rax        # 1f230 <g_397+0x10>
   1747c:	48 8b 44 02 06       	mov    0x6(%rdx,%rax,1),%rax
   17481:	8b 55 fc             	mov    -0x4(%rbp),%edx
   17484:	48 8d 35 30 45 00 00 	lea    0x4530(%rip),%rsi        # 1b9bb <g_1821+0x18eb>
   1748b:	48 89 c7             	mov    %rax,%rdi
   1748e:	e8 60 12 ff ff       	callq  86f3 <transparent_crc>
   17493:	83 7d fc 00          	cmpl   $0x0,-0x4(%rbp)
   17497:	74 16                	je     174af <main+0x909>
   17499:	8b 45 f0             	mov    -0x10(%rbp),%eax
   1749c:	89 c6                	mov    %eax,%esi
   1749e:	48 8d 3d 66 43 00 00 	lea    0x4366(%rip),%rdi        # 1b80b <g_1821+0x173b>
   174a5:	b8 00 00 00 00       	mov    $0x0,%eax
   174aa:	e8 d1 fb fe ff       	callq  7080 <printf@plt>
   174af:	83 45 f0 01          	addl   $0x1,-0x10(%rbp)
   174b3:	83 7d f0 09          	cmpl   $0x9,-0x10(%rbp)
   174b7:	0f 8e 93 fe ff ff    	jle    17350 <main+0x7aa>
   174bd:	8b 05 8d 7e 00 00    	mov    0x7e8d(%rip),%eax        # 1f350 <g_439>
   174c3:	48 98                	cltq   
   174c5:	8b 55 fc             	mov    -0x4(%rbp),%edx
   174c8:	48 8d 35 f8 44 00 00 	lea    0x44f8(%rip),%rsi        # 1b9c7 <g_1821+0x18f7>
   174cf:	48 89 c7             	mov    %rax,%rdi
   174d2:	e8 1c 12 ff ff       	callq  86f3 <transparent_crc>
   174d7:	0f b7 05 76 7e 00 00 	movzwl 0x7e76(%rip),%eax        # 1f354 <g_439+0x4>
   174de:	66 25 ff 01          	and    $0x1ff,%ax
   174e2:	0f b7 c0             	movzwl %ax,%eax
   174e5:	8b 55 fc             	mov    -0x4(%rbp),%edx
   174e8:	48 8d 35 e1 44 00 00 	lea    0x44e1(%rip),%rsi        # 1b9d0 <g_1821+0x1900>
   174ef:	48 89 c7             	mov    %rax,%rdi
   174f2:	e8 fc 11 ff ff       	callq  86f3 <transparent_crc>
   174f7:	8b 05 59 7e 00 00    	mov    0x7e59(%rip),%eax        # 1f356 <g_439+0x6>
   174fd:	48 98                	cltq   
   174ff:	8b 55 fc             	mov    -0x4(%rbp),%edx
   17502:	48 8d 35 d0 44 00 00 	lea    0x44d0(%rip),%rsi        # 1b9d9 <g_1821+0x1909>
   17509:	48 89 c7             	mov    %rax,%rdi
   1750c:	e8 e2 11 ff ff       	callq  86f3 <transparent_crc>
   17511:	48 8b 05 42 7e 00 00 	mov    0x7e42(%rip),%rax        # 1f35a <g_439+0xa>
   17518:	8b 55 fc             	mov    -0x4(%rbp),%edx
   1751b:	48 8d 35 c0 44 00 00 	lea    0x44c0(%rip),%rsi        # 1b9e2 <g_1821+0x1912>
   17522:	48 89 c7             	mov    %rax,%rdi
   17525:	e8 c9 11 ff ff       	callq  86f3 <transparent_crc>
   1752a:	8b 05 32 7e 00 00    	mov    0x7e32(%rip),%eax        # 1f362 <g_439+0x12>
   17530:	89 c1                	mov    %eax,%ecx
   17532:	8b 45 fc             	mov    -0x4(%rbp),%eax
   17535:	89 c2                	mov    %eax,%edx
   17537:	48 8d 35 ad 44 00 00 	lea    0x44ad(%rip),%rsi        # 1b9eb <g_1821+0x191b>
   1753e:	48 89 cf             	mov    %rcx,%rdi
   17541:	e8 ad 11 ff ff       	callq  86f3 <transparent_crc>
   17546:	48 8b 05 19 7e 00 00 	mov    0x7e19(%rip),%rax        # 1f366 <g_439+0x16>
   1754d:	8b 55 fc             	mov    -0x4(%rbp),%edx
   17550:	48 8d 35 9d 44 00 00 	lea    0x449d(%rip),%rsi        # 1b9f4 <g_1821+0x1924>
   17557:	48 89 c7             	mov    %rax,%rdi
   1755a:	e8 94 11 ff ff       	callq  86f3 <transparent_crc>
   1755f:	0f b6 05 0e 7e 00 00 	movzbl 0x7e0e(%rip),%eax        # 1f374 <g_475>
   17566:	48 0f be c0          	movsbq %al,%rax
   1756a:	8b 55 fc             	mov    -0x4(%rbp),%edx
   1756d:	48 8d 35 89 44 00 00 	lea    0x4489(%rip),%rsi        # 1b9fd <g_1821+0x192d>
   17574:	48 89 c7             	mov    %rax,%rdi
   17577:	e8 77 11 ff ff       	callq  86f3 <transparent_crc>
   1757c:	c7 45 f0 00 00 00 00 	movl   $0x0,-0x10(%rbp)
   17583:	e9 ad 00 00 00       	jmpq   17635 <main+0xa8f>
   17588:	8b 45 f0             	mov    -0x10(%rbp),%eax
   1758b:	48 98                	cltq   
   1758d:	48 8d 14 c5 00 00 00 	lea    0x0(,%rax,8),%rdx
   17594:	00 
   17595:	48 8d 05 e4 7d 00 00 	lea    0x7de4(%rip),%rax        # 1f380 <g_478>
   1759c:	8b 04 02             	mov    (%rdx,%rax,1),%eax
   1759f:	48 98                	cltq   
   175a1:	8b 55 fc             	mov    -0x4(%rbp),%edx
   175a4:	48 8d 35 58 44 00 00 	lea    0x4458(%rip),%rsi        # 1ba03 <g_1821+0x1933>
   175ab:	48 89 c7             	mov    %rax,%rdi
   175ae:	e8 40 11 ff ff       	callq  86f3 <transparent_crc>
   175b3:	8b 45 f0             	mov    -0x10(%rbp),%eax
   175b6:	48 98                	cltq   
   175b8:	48 8d 14 c5 00 00 00 	lea    0x0(,%rax,8),%rdx
   175bf:	00 
   175c0:	48 8d 05 b9 7d 00 00 	lea    0x7db9(%rip),%rax        # 1f380 <g_478>
   175c7:	8b 04 02             	mov    (%rdx,%rax,1),%eax
   175ca:	89 c1                	mov    %eax,%ecx
   175cc:	8b 45 fc             	mov    -0x4(%rbp),%eax
   175cf:	89 c2                	mov    %eax,%edx
   175d1:	48 8d 35 37 44 00 00 	lea    0x4437(%rip),%rsi        # 1ba0f <g_1821+0x193f>
   175d8:	48 89 cf             	mov    %rcx,%rdi
   175db:	e8 13 11 ff ff       	callq  86f3 <transparent_crc>
   175e0:	8b 45 f0             	mov    -0x10(%rbp),%eax
   175e3:	48 98                	cltq   
   175e5:	48 8d 14 c5 00 00 00 	lea    0x0(,%rax,8),%rdx
   175ec:	00 
   175ed:	48 8d 05 8c 7d 00 00 	lea    0x7d8c(%rip),%rax        # 1f380 <g_478>
   175f4:	0f b7 04 02          	movzwl (%rdx,%rax,1),%eax
   175f8:	c1 e0 03             	shl    $0x3,%eax
   175fb:	66 c1 f8 03          	sar    $0x3,%ax
   175ff:	48 0f bf c0          	movswq %ax,%rax
   17603:	8b 55 fc             	mov    -0x4(%rbp),%edx
   17606:	48 8d 35 0e 44 00 00 	lea    0x440e(%rip),%rsi        # 1ba1b <g_1821+0x194b>
   1760d:	48 89 c7             	mov    %rax,%rdi
   17610:	e8 de 10 ff ff       	callq  86f3 <transparent_crc>
   17615:	83 7d fc 00          	cmpl   $0x0,-0x4(%rbp)
   17619:	74 16                	je     17631 <main+0xa8b>
   1761b:	8b 45 f0             	mov    -0x10(%rbp),%eax
   1761e:	89 c6                	mov    %eax,%esi
   17620:	48 8d 3d e4 41 00 00 	lea    0x41e4(%rip),%rdi        # 1b80b <g_1821+0x173b>
   17627:	b8 00 00 00 00       	mov    $0x0,%eax
   1762c:	e8 4f fa fe ff       	callq  7080 <printf@plt>
   17631:	83 45 f0 01          	addl   $0x1,-0x10(%rbp)
   17635:	83 7d f0 01          	cmpl   $0x1,-0x10(%rbp)
   17639:	0f 8e 49 ff ff ff    	jle    17588 <main+0x9e2>
   1763f:	8b 05 4b 7d 00 00    	mov    0x7d4b(%rip),%eax        # 1f390 <g_481>
   17645:	48 98                	cltq   
   17647:	8b 55 fc             	mov    -0x4(%rbp),%edx
   1764a:	48 8d 35 d6 43 00 00 	lea    0x43d6(%rip),%rsi        # 1ba27 <g_1821+0x1957>
   17651:	48 89 c7             	mov    %rax,%rdi
   17654:	e8 9a 10 ff ff       	callq  86f3 <transparent_crc>
   17659:	8b 05 31 7d 00 00    	mov    0x7d31(%rip),%eax        # 1f390 <g_481>
   1765f:	89 c1                	mov    %eax,%ecx
   17661:	8b 45 fc             	mov    -0x4(%rbp),%eax
   17664:	89 c2                	mov    %eax,%edx
   17666:	48 8d 35 c3 43 00 00 	lea    0x43c3(%rip),%rsi        # 1ba30 <g_1821+0x1960>
   1766d:	48 89 cf             	mov    %rcx,%rdi
   17670:	e8 7e 10 ff ff       	callq  86f3 <transparent_crc>
   17675:	0f b7 05 14 7d 00 00 	movzwl 0x7d14(%rip),%eax        # 1f390 <g_481>
   1767c:	c1 e0 03             	shl    $0x3,%eax
   1767f:	66 c1 f8 03          	sar    $0x3,%ax
   17683:	48 0f bf c0          	movswq %ax,%rax
   17687:	8b 55 fc             	mov    -0x4(%rbp),%edx
   1768a:	48 8d 35 a8 43 00 00 	lea    0x43a8(%rip),%rsi        # 1ba39 <g_1821+0x1969>
   17691:	48 89 c7             	mov    %rax,%rdi
   17694:	e8 5a 10 ff ff       	callq  86f3 <transparent_crc>
   17699:	8b 05 f9 7c 00 00    	mov    0x7cf9(%rip),%eax        # 1f398 <g_506>
   1769f:	89 c1                	mov    %eax,%ecx
   176a1:	8b 45 fc             	mov    -0x4(%rbp),%eax
   176a4:	89 c2                	mov    %eax,%edx
   176a6:	48 8d 35 95 43 00 00 	lea    0x4395(%rip),%rsi        # 1ba42 <g_1821+0x1972>
   176ad:	48 89 cf             	mov    %rcx,%rdi
   176b0:	e8 3e 10 ff ff       	callq  86f3 <transparent_crc>
   176b5:	8b 05 e1 7c 00 00    	mov    0x7ce1(%rip),%eax        # 1f39c <g_535>
   176bb:	89 c1                	mov    %eax,%ecx
   176bd:	8b 45 fc             	mov    -0x4(%rbp),%eax
   176c0:	89 c2                	mov    %eax,%edx
   176c2:	48 8d 35 82 43 00 00 	lea    0x4382(%rip),%rsi        # 1ba4b <g_1821+0x197b>
   176c9:	48 89 cf             	mov    %rcx,%rdi
   176cc:	e8 22 10 ff ff       	callq  86f3 <transparent_crc>
   176d1:	8b 05 c5 7c 00 00    	mov    0x7cc5(%rip),%eax        # 1f39c <g_535>
   176d7:	89 c1                	mov    %eax,%ecx
   176d9:	8b 45 fc             	mov    -0x4(%rbp),%eax
   176dc:	89 c2                	mov    %eax,%edx
   176de:	48 8d 35 6f 43 00 00 	lea    0x436f(%rip),%rsi        # 1ba54 <g_1821+0x1984>
   176e5:	48 89 cf             	mov    %rcx,%rdi
   176e8:	e8 06 10 ff ff       	callq  86f3 <transparent_crc>
   176ed:	48 8b 05 ac 7c 00 00 	mov    0x7cac(%rip),%rax        # 1f3a0 <g_550>
   176f4:	c1 e0 08             	shl    $0x8,%eax
   176f7:	c1 f8 08             	sar    $0x8,%eax
   176fa:	48 98                	cltq   
   176fc:	8b 55 fc             	mov    -0x4(%rbp),%edx
   176ff:	48 8d 35 57 43 00 00 	lea    0x4357(%rip),%rsi        # 1ba5d <g_1821+0x198d>
   17706:	48 89 c7             	mov    %rax,%rdi
   17709:	e8 e5 0f ff ff       	callq  86f3 <transparent_crc>
   1770e:	8b 05 90 7c 00 00    	mov    0x7c90(%rip),%eax        # 1f3a4 <g_550+0x4>
   17714:	48 98                	cltq   
   17716:	8b 55 fc             	mov    -0x4(%rbp),%edx
   17719:	48 8d 35 46 43 00 00 	lea    0x4346(%rip),%rsi        # 1ba66 <g_1821+0x1996>
   17720:	48 89 c7             	mov    %rax,%rdi
   17723:	e8 cb 0f ff ff       	callq  86f3 <transparent_crc>
   17728:	0f b7 05 79 7c 00 00 	movzwl 0x7c79(%rip),%eax        # 1f3a8 <g_550+0x8>
   1772f:	c1 e0 07             	shl    $0x7,%eax
   17732:	66 c1 f8 07          	sar    $0x7,%ax
   17736:	48 0f bf c0          	movswq %ax,%rax
   1773a:	8b 55 fc             	mov    -0x4(%rbp),%edx
   1773d:	48 8d 35 2b 43 00 00 	lea    0x432b(%rip),%rsi        # 1ba6f <g_1821+0x199f>
   17744:	48 89 c7             	mov    %rax,%rdi
   17747:	e8 a7 0f ff ff       	callq  86f3 <transparent_crc>
   1774c:	0f b6 05 59 7c 00 00 	movzbl 0x7c59(%rip),%eax        # 1f3ac <g_550+0xc>
   17753:	0f b6 c0             	movzbl %al,%eax
   17756:	8b 55 fc             	mov    -0x4(%rbp),%edx
   17759:	48 8d 35 18 43 00 00 	lea    0x4318(%rip),%rsi        # 1ba78 <g_1821+0x19a8>
   17760:	48 89 c7             	mov    %rax,%rdi
   17763:	e8 8b 0f ff ff       	callq  86f3 <transparent_crc>
   17768:	48 8b 05 39 7c 00 00 	mov    0x7c39(%rip),%rax        # 1f3a8 <g_550+0x8>
   1776f:	48 c1 e0 16          	shl    $0x16,%rax
   17773:	48 c1 f8 3e          	sar    $0x3e,%rax
   17777:	48 0f be c0          	movsbq %al,%rax
   1777b:	8b 55 fc             	mov    -0x4(%rbp),%edx
   1777e:	48 8d 35 fc 42 00 00 	lea    0x42fc(%rip),%rsi        # 1ba81 <g_1821+0x19b1>
   17785:	48 89 c7             	mov    %rax,%rdi
   17788:	e8 66 0f ff ff       	callq  86f3 <transparent_crc>
   1778d:	8b 05 19 7c 00 00    	mov    0x7c19(%rip),%eax        # 1f3ac <g_550+0xc>
   17793:	01 c0                	add    %eax,%eax
   17795:	c1 f8 0b             	sar    $0xb,%eax
   17798:	48 98                	cltq   
   1779a:	8b 55 fc             	mov    -0x4(%rbp),%edx
   1779d:	48 8d 35 e6 42 00 00 	lea    0x42e6(%rip),%rsi        # 1ba8a <g_1821+0x19ba>
   177a4:	48 89 c7             	mov    %rax,%rdi
   177a7:	e8 47 0f ff ff       	callq  86f3 <transparent_crc>
   177ac:	48 8b 05 fd 7b 00 00 	mov    0x7bfd(%rip),%rax        # 1f3b0 <g_550+0x10>
   177b3:	c1 e0 0b             	shl    $0xb,%eax
   177b6:	c1 f8 0b             	sar    $0xb,%eax
   177b9:	48 98                	cltq   
   177bb:	8b 55 fc             	mov    -0x4(%rbp),%edx
   177be:	48 8d 35 ce 42 00 00 	lea    0x42ce(%rip),%rsi        # 1ba93 <g_1821+0x19c3>
   177c5:	48 89 c7             	mov    %rax,%rdi
   177c8:	e8 26 0f ff ff       	callq  86f3 <transparent_crc>
   177cd:	8b 05 e1 7b 00 00    	mov    0x7be1(%rip),%eax        # 1f3b4 <g_550+0x14>
   177d3:	c1 e0 0b             	shl    $0xb,%eax
   177d6:	c1 f8 0b             	sar    $0xb,%eax
   177d9:	48 98                	cltq   
   177db:	8b 55 fc             	mov    -0x4(%rbp),%edx
   177de:	48 8d 35 b7 42 00 00 	lea    0x42b7(%rip),%rsi        # 1ba9c <g_1821+0x19cc>
   177e5:	48 89 c7             	mov    %rax,%rdi
   177e8:	e8 06 0f ff ff       	callq  86f3 <transparent_crc>
   177ed:	8b 05 cd 7b 00 00    	mov    0x7bcd(%rip),%eax        # 1f3c0 <g_560>
   177f3:	48 98                	cltq   
   177f5:	8b 55 fc             	mov    -0x4(%rbp),%edx
   177f8:	48 8d 35 a6 42 00 00 	lea    0x42a6(%rip),%rsi        # 1baa5 <g_1821+0x19d5>
   177ff:	48 89 c7             	mov    %rax,%rdi
   17802:	e8 ec 0e ff ff       	callq  86f3 <transparent_crc>
   17807:	0f b7 05 b6 7b 00 00 	movzwl 0x7bb6(%rip),%eax        # 1f3c4 <g_560+0x4>
   1780e:	66 25 ff 01          	and    $0x1ff,%ax
   17812:	0f b7 c0             	movzwl %ax,%eax
   17815:	8b 55 fc             	mov    -0x4(%rbp),%edx
   17818:	48 8d 35 8f 42 00 00 	lea    0x428f(%rip),%rsi        # 1baae <g_1821+0x19de>
   1781f:	48 89 c7             	mov    %rax,%rdi
   17822:	e8 cc 0e ff ff       	callq  86f3 <transparent_crc>
   17827:	8b 05 99 7b 00 00    	mov    0x7b99(%rip),%eax        # 1f3c6 <g_560+0x6>
   1782d:	48 98                	cltq   
   1782f:	8b 55 fc             	mov    -0x4(%rbp),%edx
   17832:	48 8d 35 7e 42 00 00 	lea    0x427e(%rip),%rsi        # 1bab7 <g_1821+0x19e7>
   17839:	48 89 c7             	mov    %rax,%rdi
   1783c:	e8 b2 0e ff ff       	callq  86f3 <transparent_crc>
   17841:	48 8b 05 82 7b 00 00 	mov    0x7b82(%rip),%rax        # 1f3ca <g_560+0xa>
   17848:	8b 55 fc             	mov    -0x4(%rbp),%edx
   1784b:	48 8d 35 6e 42 00 00 	lea    0x426e(%rip),%rsi        # 1bac0 <g_1821+0x19f0>
   17852:	48 89 c7             	mov    %rax,%rdi
   17855:	e8 99 0e ff ff       	callq  86f3 <transparent_crc>
   1785a:	8b 05 72 7b 00 00    	mov    0x7b72(%rip),%eax        # 1f3d2 <g_560+0x12>
   17860:	89 c1                	mov    %eax,%ecx
   17862:	8b 45 fc             	mov    -0x4(%rbp),%eax
   17865:	89 c2                	mov    %eax,%edx
   17867:	48 8d 35 5b 42 00 00 	lea    0x425b(%rip),%rsi        # 1bac9 <g_1821+0x19f9>
   1786e:	48 89 cf             	mov    %rcx,%rdi
   17871:	e8 7d 0e ff ff       	callq  86f3 <transparent_crc>
   17876:	48 8b 05 59 7b 00 00 	mov    0x7b59(%rip),%rax        # 1f3d6 <g_560+0x16>
   1787d:	8b 55 fc             	mov    -0x4(%rbp),%edx
   17880:	48 8d 35 4b 42 00 00 	lea    0x424b(%rip),%rsi        # 1bad2 <g_1821+0x1a02>
   17887:	48 89 c7             	mov    %rax,%rdi
   1788a:	e8 64 0e ff ff       	callq  86f3 <transparent_crc>
   1788f:	8b 05 4b 7b 00 00    	mov    0x7b4b(%rip),%eax        # 1f3e0 <g_563>
   17895:	48 98                	cltq   
   17897:	8b 55 fc             	mov    -0x4(%rbp),%edx
   1789a:	48 8d 35 3a 42 00 00 	lea    0x423a(%rip),%rsi        # 1badb <g_1821+0x1a0b>
   178a1:	48 89 c7             	mov    %rax,%rdi
   178a4:	e8 4a 0e ff ff       	callq  86f3 <transparent_crc>
   178a9:	48 8b 05 30 7b 00 00 	mov    0x7b30(%rip),%rax        # 1f3e0 <g_563>
   178b0:	48 c1 e8 20          	shr    $0x20,%rax
   178b4:	66 25 ff 01          	and    $0x1ff,%ax
   178b8:	0f b7 c0             	movzwl %ax,%eax
   178bb:	8b 55 fc             	mov    -0x4(%rbp),%edx
   178be:	48 8d 35 1f 42 00 00 	lea    0x421f(%rip),%rsi        # 1bae4 <g_1821+0x1a14>
   178c5:	48 89 c7             	mov    %rax,%rdi
   178c8:	e8 26 0e ff ff       	callq  86f3 <transparent_crc>
   178cd:	8b 05 13 7b 00 00    	mov    0x7b13(%rip),%eax        # 1f3e6 <g_563+0x6>
   178d3:	48 98                	cltq   
   178d5:	8b 55 fc             	mov    -0x4(%rbp),%edx
   178d8:	48 8d 35 0e 42 00 00 	lea    0x420e(%rip),%rsi        # 1baed <g_1821+0x1a1d>
   178df:	48 89 c7             	mov    %rax,%rdi
   178e2:	e8 0c 0e ff ff       	callq  86f3 <transparent_crc>
   178e7:	48 8b 05 fc 7a 00 00 	mov    0x7afc(%rip),%rax        # 1f3ea <g_563+0xa>
   178ee:	8b 55 fc             	mov    -0x4(%rbp),%edx
   178f1:	48 8d 35 fe 41 00 00 	lea    0x41fe(%rip),%rsi        # 1baf6 <g_1821+0x1a26>
   178f8:	48 89 c7             	mov    %rax,%rdi
   178fb:	e8 f3 0d ff ff       	callq  86f3 <transparent_crc>
   17900:	8b 05 ec 7a 00 00    	mov    0x7aec(%rip),%eax        # 1f3f2 <g_563+0x12>
   17906:	89 c1                	mov    %eax,%ecx
   17908:	8b 45 fc             	mov    -0x4(%rbp),%eax
   1790b:	89 c2                	mov    %eax,%edx
   1790d:	48 8d 35 eb 41 00 00 	lea    0x41eb(%rip),%rsi        # 1baff <g_1821+0x1a2f>
   17914:	48 89 cf             	mov    %rcx,%rdi
   17917:	e8 d7 0d ff ff       	callq  86f3 <transparent_crc>
   1791c:	48 8b 05 d3 7a 00 00 	mov    0x7ad3(%rip),%rax        # 1f3f6 <g_563+0x16>
   17923:	8b 55 fc             	mov    -0x4(%rbp),%edx
   17926:	48 8d 35 db 41 00 00 	lea    0x41db(%rip),%rsi        # 1bb08 <g_1821+0x1a38>
   1792d:	48 89 c7             	mov    %rax,%rdi
   17930:	e8 be 0d ff ff       	callq  86f3 <transparent_crc>
   17935:	c7 45 f0 00 00 00 00 	movl   $0x0,-0x10(%rbp)
   1793c:	e9 63 01 00 00       	jmpq   17aa4 <main+0xefe>
   17941:	8b 45 f0             	mov    -0x10(%rbp),%eax
   17944:	48 63 d0             	movslq %eax,%rdx
   17947:	48 89 d0             	mov    %rdx,%rax
   1794a:	48 c1 e0 04          	shl    $0x4,%rax
   1794e:	48 29 d0             	sub    %rdx,%rax
   17951:	48 01 c0             	add    %rax,%rax
   17954:	48 89 c2             	mov    %rax,%rdx
   17957:	48 8d 05 c2 7a 00 00 	lea    0x7ac2(%rip),%rax        # 1f420 <g_602>
   1795e:	8b 04 02             	mov    (%rdx,%rax,1),%eax
   17961:	48 98                	cltq   
   17963:	8b 55 fc             	mov    -0x4(%rbp),%edx
   17966:	48 8d 35 a4 41 00 00 	lea    0x41a4(%rip),%rsi        # 1bb11 <g_1821+0x1a41>
   1796d:	48 89 c7             	mov    %rax,%rdi
   17970:	e8 7e 0d ff ff       	callq  86f3 <transparent_crc>
   17975:	8b 45 f0             	mov    -0x10(%rbp),%eax
   17978:	48 63 d0             	movslq %eax,%rdx
   1797b:	48 89 d0             	mov    %rdx,%rax
   1797e:	48 c1 e0 04          	shl    $0x4,%rax
   17982:	48 29 d0             	sub    %rdx,%rax
   17985:	48 01 c0             	add    %rax,%rax
   17988:	48 89 c2             	mov    %rax,%rdx
   1798b:	48 8d 05 8e 7a 00 00 	lea    0x7a8e(%rip),%rax        # 1f420 <g_602>
   17992:	0f b7 44 02 04       	movzwl 0x4(%rdx,%rax,1),%eax
   17997:	66 25 ff 01          	and    $0x1ff,%ax
   1799b:	0f b7 c0             	movzwl %ax,%eax
   1799e:	8b 55 fc             	mov    -0x4(%rbp),%edx
   179a1:	48 8d 35 75 41 00 00 	lea    0x4175(%rip),%rsi        # 1bb1d <g_1821+0x1a4d>
   179a8:	48 89 c7             	mov    %rax,%rdi
   179ab:	e8 43 0d ff ff       	callq  86f3 <transparent_crc>
   179b0:	8b 45 f0             	mov    -0x10(%rbp),%eax
   179b3:	48 63 d0             	movslq %eax,%rdx
   179b6:	48 89 d0             	mov    %rdx,%rax
   179b9:	48 c1 e0 04          	shl    $0x4,%rax
   179bd:	48 29 d0             	sub    %rdx,%rax
   179c0:	48 01 c0             	add    %rax,%rax
   179c3:	48 89 c2             	mov    %rax,%rdx
   179c6:	48 8d 05 53 7a 00 00 	lea    0x7a53(%rip),%rax        # 1f420 <g_602>
   179cd:	8b 44 02 06          	mov    0x6(%rdx,%rax,1),%eax
   179d1:	48 98                	cltq   
   179d3:	8b 55 fc             	mov    -0x4(%rbp),%edx
   179d6:	48 8d 35 4c 41 00 00 	lea    0x414c(%rip),%rsi        # 1bb29 <g_1821+0x1a59>
   179dd:	48 89 c7             	mov    %rax,%rdi
   179e0:	e8 0e 0d ff ff       	callq  86f3 <transparent_crc>
   179e5:	8b 45 f0             	mov    -0x10(%rbp),%eax
   179e8:	48 63 d0             	movslq %eax,%rdx
   179eb:	48 89 d0             	mov    %rdx,%rax
   179ee:	48 c1 e0 04          	shl    $0x4,%rax
   179f2:	48 29 d0             	sub    %rdx,%rax
   179f5:	48 01 c0             	add    %rax,%rax
   179f8:	48 89 c2             	mov    %rax,%rdx
   179fb:	48 8d 05 1e 7a 00 00 	lea    0x7a1e(%rip),%rax        # 1f420 <g_602>
   17a02:	48 8b 44 02 0a       	mov    0xa(%rdx,%rax,1),%rax
   17a07:	8b 55 fc             	mov    -0x4(%rbp),%edx
   17a0a:	48 8d 35 24 41 00 00 	lea    0x4124(%rip),%rsi        # 1bb35 <g_1821+0x1a65>
   17a11:	48 89 c7             	mov    %rax,%rdi
   17a14:	e8 da 0c ff ff       	callq  86f3 <transparent_crc>
   17a19:	8b 45 f0             	mov    -0x10(%rbp),%eax
   17a1c:	48 63 d0             	movslq %eax,%rdx
   17a1f:	48 89 d0             	mov    %rdx,%rax
   17a22:	48 c1 e0 04          	shl    $0x4,%rax
   17a26:	48 29 d0             	sub    %rdx,%rax
   17a29:	48 01 c0             	add    %rax,%rax
   17a2c:	48 89 c2             	mov    %rax,%rdx
   17a2f:	48 8d 05 fa 79 00 00 	lea    0x79fa(%rip),%rax        # 1f430 <g_602+0x10>
   17a36:	8b 44 02 02          	mov    0x2(%rdx,%rax,1),%eax
   17a3a:	89 c1                	mov    %eax,%ecx
   17a3c:	8b 45 fc             	mov    -0x4(%rbp),%eax
   17a3f:	89 c2                	mov    %eax,%edx
   17a41:	48 8d 35 f9 40 00 00 	lea    0x40f9(%rip),%rsi        # 1bb41 <g_1821+0x1a71>
   17a48:	48 89 cf             	mov    %rcx,%rdi
   17a4b:	e8 a3 0c ff ff       	callq  86f3 <transparent_crc>
   17a50:	8b 45 f0             	mov    -0x10(%rbp),%eax
   17a53:	48 63 d0             	movslq %eax,%rdx
   17a56:	48 89 d0             	mov    %rdx,%rax
   17a59:	48 c1 e0 04          	shl    $0x4,%rax
   17a5d:	48 29 d0             	sub    %rdx,%rax
   17a60:	48 01 c0             	add    %rax,%rax
   17a63:	48 89 c2             	mov    %rax,%rdx
   17a66:	48 8d 05 c3 79 00 00 	lea    0x79c3(%rip),%rax        # 1f430 <g_602+0x10>
   17a6d:	48 8b 44 02 06       	mov    0x6(%rdx,%rax,1),%rax
   17a72:	8b 55 fc             	mov    -0x4(%rbp),%edx
   17a75:	48 8d 35 d1 40 00 00 	lea    0x40d1(%rip),%rsi        # 1bb4d <g_1821+0x1a7d>
   17a7c:	48 89 c7             	mov    %rax,%rdi
   17a7f:	e8 6f 0c ff ff       	callq  86f3 <transparent_crc>
   17a84:	83 7d fc 00          	cmpl   $0x0,-0x4(%rbp)
   17a88:	74 16                	je     17aa0 <main+0xefa>
   17a8a:	8b 45 f0             	mov    -0x10(%rbp),%eax
   17a8d:	89 c6                	mov    %eax,%esi
   17a8f:	48 8d 3d 75 3d 00 00 	lea    0x3d75(%rip),%rdi        # 1b80b <g_1821+0x173b>
   17a96:	b8 00 00 00 00       	mov    $0x0,%eax
   17a9b:	e8 e0 f5 fe ff       	callq  7080 <printf@plt>
   17aa0:	83 45 f0 01          	addl   $0x1,-0x10(%rbp)
   17aa4:	83 7d f0 03          	cmpl   $0x3,-0x10(%rbp)
   17aa8:	0f 8e 93 fe ff ff    	jle    17941 <main+0xd9b>
   17aae:	c7 45 f0 00 00 00 00 	movl   $0x0,-0x10(%rbp)
   17ab5:	e9 45 02 00 00       	jmpq   17cff <main+0x1159>
   17aba:	c7 45 f4 00 00 00 00 	movl   $0x0,-0xc(%rbp)
   17ac1:	e9 2b 02 00 00       	jmpq   17cf1 <main+0x114b>
   17ac6:	c7 45 f8 00 00 00 00 	movl   $0x0,-0x8(%rbp)
   17acd:	e9 11 02 00 00       	jmpq   17ce3 <main+0x113d>
   17ad2:	8b 45 f8             	mov    -0x8(%rbp),%eax
   17ad5:	48 63 d0             	movslq %eax,%rdx
   17ad8:	8b 45 f4             	mov    -0xc(%rbp),%eax
   17adb:	48 63 f0             	movslq %eax,%rsi
   17ade:	8b 45 f0             	mov    -0x10(%rbp),%eax
   17ae1:	48 63 c8             	movslq %eax,%rcx
   17ae4:	48 89 d0             	mov    %rdx,%rax
   17ae7:	48 c1 e0 04          	shl    $0x4,%rax
   17aeb:	48 29 d0             	sub    %rdx,%rax
   17aee:	48 01 c0             	add    %rax,%rax
   17af1:	48 6b d6 5a          	imul   $0x5a,%rsi,%rdx
   17af5:	48 01 c2             	add    %rax,%rdx
   17af8:	48 69 c1 0e 01 00 00 	imul   $0x10e,%rcx,%rax
   17aff:	48 01 c2             	add    %rax,%rdx
   17b02:	48 8d 05 97 79 00 00 	lea    0x7997(%rip),%rax        # 1f4a0 <g_603>
   17b09:	48 01 d0             	add    %rdx,%rax
   17b0c:	8b 00                	mov    (%rax),%eax
   17b0e:	48 98                	cltq   
   17b10:	8b 55 fc             	mov    -0x4(%rbp),%edx
   17b13:	48 8d 35 3f 40 00 00 	lea    0x403f(%rip),%rsi        # 1bb59 <g_1821+0x1a89>
   17b1a:	48 89 c7             	mov    %rax,%rdi
   17b1d:	e8 d1 0b ff ff       	callq  86f3 <transparent_crc>
   17b22:	8b 45 f8             	mov    -0x8(%rbp),%eax
   17b25:	48 63 d0             	movslq %eax,%rdx
   17b28:	8b 45 f4             	mov    -0xc(%rbp),%eax
   17b2b:	48 63 f0             	movslq %eax,%rsi
   17b2e:	8b 45 f0             	mov    -0x10(%rbp),%eax
   17b31:	48 63 c8             	movslq %eax,%rcx
   17b34:	48 89 d0             	mov    %rdx,%rax
   17b37:	48 c1 e0 04          	shl    $0x4,%rax
   17b3b:	48 29 d0             	sub    %rdx,%rax
   17b3e:	48 01 c0             	add    %rax,%rax
   17b41:	48 6b d6 5a          	imul   $0x5a,%rsi,%rdx
   17b45:	48 01 c2             	add    %rax,%rdx
   17b48:	48 69 c1 0e 01 00 00 	imul   $0x10e,%rcx,%rax
   17b4f:	48 01 c2             	add    %rax,%rdx
   17b52:	48 8d 05 47 79 00 00 	lea    0x7947(%rip),%rax        # 1f4a0 <g_603>
   17b59:	48 01 d0             	add    %rdx,%rax
   17b5c:	0f b7 40 04          	movzwl 0x4(%rax),%eax
   17b60:	66 25 ff 01          	and    $0x1ff,%ax
   17b64:	0f b7 c0             	movzwl %ax,%eax
   17b67:	8b 55 fc             	mov    -0x4(%rbp),%edx
   17b6a:	48 8d 35 fa 3f 00 00 	lea    0x3ffa(%rip),%rsi        # 1bb6b <g_1821+0x1a9b>
   17b71:	48 89 c7             	mov    %rax,%rdi
   17b74:	e8 7a 0b ff ff       	callq  86f3 <transparent_crc>
   17b79:	8b 45 f8             	mov    -0x8(%rbp),%eax
   17b7c:	48 63 d0             	movslq %eax,%rdx
   17b7f:	8b 45 f4             	mov    -0xc(%rbp),%eax
   17b82:	48 63 f0             	movslq %eax,%rsi
   17b85:	8b 45 f0             	mov    -0x10(%rbp),%eax
   17b88:	48 63 c8             	movslq %eax,%rcx
   17b8b:	48 89 d0             	mov    %rdx,%rax
   17b8e:	48 c1 e0 04          	shl    $0x4,%rax
   17b92:	48 29 d0             	sub    %rdx,%rax
   17b95:	48 01 c0             	add    %rax,%rax
   17b98:	48 6b d6 5a          	imul   $0x5a,%rsi,%rdx
   17b9c:	48 01 c2             	add    %rax,%rdx
   17b9f:	48 69 c1 0e 01 00 00 	imul   $0x10e,%rcx,%rax
   17ba6:	48 01 c2             	add    %rax,%rdx
   17ba9:	48 8d 05 f0 78 00 00 	lea    0x78f0(%rip),%rax        # 1f4a0 <g_603>
   17bb0:	48 01 d0             	add    %rdx,%rax
   17bb3:	8b 40 06             	mov    0x6(%rax),%eax
   17bb6:	48 98                	cltq   
   17bb8:	8b 55 fc             	mov    -0x4(%rbp),%edx
   17bbb:	48 8d 35 bb 3f 00 00 	lea    0x3fbb(%rip),%rsi        # 1bb7d <g_1821+0x1aad>
   17bc2:	48 89 c7             	mov    %rax,%rdi
   17bc5:	e8 29 0b ff ff       	callq  86f3 <transparent_crc>
   17bca:	8b 45 f8             	mov    -0x8(%rbp),%eax
   17bcd:	48 63 d0             	movslq %eax,%rdx
   17bd0:	8b 45 f4             	mov    -0xc(%rbp),%eax
   17bd3:	48 63 f0             	movslq %eax,%rsi
   17bd6:	8b 45 f0             	mov    -0x10(%rbp),%eax
   17bd9:	48 63 c8             	movslq %eax,%rcx
   17bdc:	48 89 d0             	mov    %rdx,%rax
   17bdf:	48 c1 e0 04          	shl    $0x4,%rax
   17be3:	48 29 d0             	sub    %rdx,%rax
   17be6:	48 01 c0             	add    %rax,%rax
   17be9:	48 6b d6 5a          	imul   $0x5a,%rsi,%rdx
   17bed:	48 01 c2             	add    %rax,%rdx
   17bf0:	48 69 c1 0e 01 00 00 	imul   $0x10e,%rcx,%rax
   17bf7:	48 01 c2             	add    %rax,%rdx
   17bfa:	48 8d 05 9f 78 00 00 	lea    0x789f(%rip),%rax        # 1f4a0 <g_603>
   17c01:	48 01 d0             	add    %rdx,%rax
   17c04:	48 8b 40 0a          	mov    0xa(%rax),%rax
   17c08:	8b 55 fc             	mov    -0x4(%rbp),%edx
   17c0b:	48 8d 35 7d 3f 00 00 	lea    0x3f7d(%rip),%rsi        # 1bb8f <g_1821+0x1abf>
   17c12:	48 89 c7             	mov    %rax,%rdi
   17c15:	e8 d9 0a ff ff       	callq  86f3 <transparent_crc>
   17c1a:	8b 45 f8             	mov    -0x8(%rbp),%eax
   17c1d:	48 63 d0             	movslq %eax,%rdx
   17c20:	8b 45 f4             	mov    -0xc(%rbp),%eax
   17c23:	48 63 c8             	movslq %eax,%rcx
   17c26:	8b 45 f0             	mov    -0x10(%rbp),%eax
   17c29:	48 63 f0             	movslq %eax,%rsi
   17c2c:	48 89 d0             	mov    %rdx,%rax
   17c2f:	48 c1 e0 04          	shl    $0x4,%rax
   17c33:	48 29 d0             	sub    %rdx,%rax
   17c36:	48 01 c0             	add    %rax,%rax
   17c39:	48 69 d6 0e 01 00 00 	imul   $0x10e,%rsi,%rdx
   17c40:	48 01 c2             	add    %rax,%rdx
   17c43:	48 6b c1 5a          	imul   $0x5a,%rcx,%rax
   17c47:	48 01 c2             	add    %rax,%rdx
   17c4a:	48 8d 05 5f 78 00 00 	lea    0x785f(%rip),%rax        # 1f4b0 <g_603+0x10>
   17c51:	48 01 d0             	add    %rdx,%rax
   17c54:	8b 40 02             	mov    0x2(%rax),%eax
   17c57:	89 c1                	mov    %eax,%ecx
   17c59:	8b 45 fc             	mov    -0x4(%rbp),%eax
   17c5c:	89 c2                	mov    %eax,%edx
   17c5e:	48 8d 35 3c 3f 00 00 	lea    0x3f3c(%rip),%rsi        # 1bba1 <g_1821+0x1ad1>
   17c65:	48 89 cf             	mov    %rcx,%rdi
   17c68:	e8 86 0a ff ff       	callq  86f3 <transparent_crc>
   17c6d:	8b 45 f8             	mov    -0x8(%rbp),%eax
   17c70:	48 63 d0             	movslq %eax,%rdx
   17c73:	8b 45 f4             	mov    -0xc(%rbp),%eax
   17c76:	48 63 c8             	movslq %eax,%rcx
   17c79:	8b 45 f0             	mov    -0x10(%rbp),%eax
   17c7c:	48 63 f0             	movslq %eax,%rsi
   17c7f:	48 89 d0             	mov    %rdx,%rax
   17c82:	48 c1 e0 04          	shl    $0x4,%rax
   17c86:	48 29 d0             	sub    %rdx,%rax
   17c89:	48 01 c0             	add    %rax,%rax
   17c8c:	48 69 d6 0e 01 00 00 	imul   $0x10e,%rsi,%rdx
   17c93:	48 01 c2             	add    %rax,%rdx
   17c96:	48 6b c1 5a          	imul   $0x5a,%rcx,%rax
   17c9a:	48 01 c2             	add    %rax,%rdx
   17c9d:	48 8d 05 0c 78 00 00 	lea    0x780c(%rip),%rax        # 1f4b0 <g_603+0x10>
   17ca4:	48 01 d0             	add    %rdx,%rax
   17ca7:	48 8b 40 06          	mov    0x6(%rax),%rax
   17cab:	8b 55 fc             	mov    -0x4(%rbp),%edx
   17cae:	48 8d 35 fe 3e 00 00 	lea    0x3efe(%rip),%rsi        # 1bbb3 <g_1821+0x1ae3>
   17cb5:	48 89 c7             	mov    %rax,%rdi
   17cb8:	e8 36 0a ff ff       	callq  86f3 <transparent_crc>
   17cbd:	83 7d fc 00          	cmpl   $0x0,-0x4(%rbp)
   17cc1:	74 1c                	je     17cdf <main+0x1139>
   17cc3:	8b 4d f8             	mov    -0x8(%rbp),%ecx
   17cc6:	8b 55 f4             	mov    -0xc(%rbp),%edx
   17cc9:	8b 45 f0             	mov    -0x10(%rbp),%eax
   17ccc:	89 c6                	mov    %eax,%esi
   17cce:	48 8d 3d f0 3e 00 00 	lea    0x3ef0(%rip),%rdi        # 1bbc5 <g_1821+0x1af5>
   17cd5:	b8 00 00 00 00       	mov    $0x0,%eax
   17cda:	e8 a1 f3 fe ff       	callq  7080 <printf@plt>
   17cdf:	83 45 f8 01          	addl   $0x1,-0x8(%rbp)
   17ce3:	83 7d f8 02          	cmpl   $0x2,-0x8(%rbp)
   17ce7:	0f 8e e5 fd ff ff    	jle    17ad2 <main+0xf2c>
   17ced:	83 45 f4 01          	addl   $0x1,-0xc(%rbp)
   17cf1:	83 7d f4 02          	cmpl   $0x2,-0xc(%rbp)
   17cf5:	0f 8e cb fd ff ff    	jle    17ac6 <main+0xf20>
   17cfb:	83 45 f0 01          	addl   $0x1,-0x10(%rbp)
   17cff:	83 7d f0 07          	cmpl   $0x7,-0x10(%rbp)
   17d03:	0f 8e b1 fd ff ff    	jle    17aba <main+0xf14>
   17d09:	8b 05 01 80 00 00    	mov    0x8001(%rip),%eax        # 1fd10 <g_611>
   17d0f:	48 98                	cltq   
   17d11:	8b 55 fc             	mov    -0x4(%rbp),%edx
   17d14:	48 8d 35 c0 3e 00 00 	lea    0x3ec0(%rip),%rsi        # 1bbdb <g_1821+0x1b0b>
   17d1b:	48 89 c7             	mov    %rax,%rdi
   17d1e:	e8 d0 09 ff ff       	callq  86f3 <transparent_crc>
   17d23:	0f b7 05 ea 7f 00 00 	movzwl 0x7fea(%rip),%eax        # 1fd14 <g_611+0x4>
   17d2a:	66 25 ff 01          	and    $0x1ff,%ax
   17d2e:	0f b7 c0             	movzwl %ax,%eax
   17d31:	8b 55 fc             	mov    -0x4(%rbp),%edx
   17d34:	48 8d 35 a9 3e 00 00 	lea    0x3ea9(%rip),%rsi        # 1bbe4 <g_1821+0x1b14>
   17d3b:	48 89 c7             	mov    %rax,%rdi
   17d3e:	e8 b0 09 ff ff       	callq  86f3 <transparent_crc>
   17d43:	8b 05 cd 7f 00 00    	mov    0x7fcd(%rip),%eax        # 1fd16 <g_611+0x6>
   17d49:	48 98                	cltq   
   17d4b:	8b 55 fc             	mov    -0x4(%rbp),%edx
   17d4e:	48 8d 35 98 3e 00 00 	lea    0x3e98(%rip),%rsi        # 1bbed <g_1821+0x1b1d>
   17d55:	48 89 c7             	mov    %rax,%rdi
   17d58:	e8 96 09 ff ff       	callq  86f3 <transparent_crc>
   17d5d:	48 8b 05 b6 7f 00 00 	mov    0x7fb6(%rip),%rax        # 1fd1a <g_611+0xa>
   17d64:	8b 55 fc             	mov    -0x4(%rbp),%edx
   17d67:	48 8d 35 88 3e 00 00 	lea    0x3e88(%rip),%rsi        # 1bbf6 <g_1821+0x1b26>
   17d6e:	48 89 c7             	mov    %rax,%rdi
   17d71:	e8 7d 09 ff ff       	callq  86f3 <transparent_crc>
   17d76:	8b 05 a6 7f 00 00    	mov    0x7fa6(%rip),%eax        # 1fd22 <g_611+0x12>
   17d7c:	89 c1                	mov    %eax,%ecx
   17d7e:	8b 45 fc             	mov    -0x4(%rbp),%eax
   17d81:	89 c2                	mov    %eax,%edx
   17d83:	48 8d 35 75 3e 00 00 	lea    0x3e75(%rip),%rsi        # 1bbff <g_1821+0x1b2f>
   17d8a:	48 89 cf             	mov    %rcx,%rdi
   17d8d:	e8 61 09 ff ff       	callq  86f3 <transparent_crc>
   17d92:	48 8b 05 8d 7f 00 00 	mov    0x7f8d(%rip),%rax        # 1fd26 <g_611+0x16>
   17d99:	8b 55 fc             	mov    -0x4(%rbp),%edx
   17d9c:	48 8d 35 65 3e 00 00 	lea    0x3e65(%rip),%rsi        # 1bc08 <g_1821+0x1b38>
   17da3:	48 89 c7             	mov    %rax,%rdi
   17da6:	e8 48 09 ff ff       	callq  86f3 <transparent_crc>
   17dab:	8b 05 7f 7f 00 00    	mov    0x7f7f(%rip),%eax        # 1fd30 <g_660>
   17db1:	48 98                	cltq   
   17db3:	8b 55 fc             	mov    -0x4(%rbp),%edx
   17db6:	48 8d 35 54 3e 00 00 	lea    0x3e54(%rip),%rsi        # 1bc11 <g_1821+0x1b41>
   17dbd:	48 89 c7             	mov    %rax,%rdi
   17dc0:	e8 2e 09 ff ff       	callq  86f3 <transparent_crc>
   17dc5:	8b 05 69 7f 00 00    	mov    0x7f69(%rip),%eax        # 1fd34 <g_728>
   17dcb:	48 98                	cltq   
   17dcd:	8b 55 fc             	mov    -0x4(%rbp),%edx
   17dd0:	48 8d 35 40 3e 00 00 	lea    0x3e40(%rip),%rsi        # 1bc17 <g_1821+0x1b47>
   17dd7:	48 89 c7             	mov    %rax,%rdi
   17dda:	e8 14 09 ff ff       	callq  86f3 <transparent_crc>
   17ddf:	0f b7 05 72 ca 00 00 	movzwl 0xca72(%rip),%eax        # 24858 <g_730>
   17de6:	48 0f bf c0          	movswq %ax,%rax
   17dea:	8b 55 fc             	mov    -0x4(%rbp),%edx
   17ded:	48 8d 35 29 3e 00 00 	lea    0x3e29(%rip),%rsi        # 1bc1d <g_1821+0x1b4d>
   17df4:	48 89 c7             	mov    %rax,%rdi
   17df7:	e8 f7 08 ff ff       	callq  86f3 <transparent_crc>
   17dfc:	c7 45 f0 00 00 00 00 	movl   $0x0,-0x10(%rbp)
   17e03:	eb 49                	jmp    17e4e <main+0x12a8>
   17e05:	8b 45 f0             	mov    -0x10(%rbp),%eax
   17e08:	48 98                	cltq   
   17e0a:	48 8d 14 00          	lea    (%rax,%rax,1),%rdx
   17e0e:	48 8d 05 2b 7f 00 00 	lea    0x7f2b(%rip),%rax        # 1fd40 <g_768>
   17e15:	0f b7 04 02          	movzwl (%rdx,%rax,1),%eax
   17e19:	0f b7 c0             	movzwl %ax,%eax
   17e1c:	8b 55 fc             	mov    -0x4(%rbp),%edx
   17e1f:	48 8d 35 fd 3d 00 00 	lea    0x3dfd(%rip),%rsi        # 1bc23 <g_1821+0x1b53>
   17e26:	48 89 c7             	mov    %rax,%rdi
   17e29:	e8 c5 08 ff ff       	callq  86f3 <transparent_crc>
   17e2e:	83 7d fc 00          	cmpl   $0x0,-0x4(%rbp)
   17e32:	74 16                	je     17e4a <main+0x12a4>
   17e34:	8b 45 f0             	mov    -0x10(%rbp),%eax
   17e37:	89 c6                	mov    %eax,%esi
   17e39:	48 8d 3d cb 39 00 00 	lea    0x39cb(%rip),%rdi        # 1b80b <g_1821+0x173b>
   17e40:	b8 00 00 00 00       	mov    $0x0,%eax
   17e45:	e8 36 f2 fe ff       	callq  7080 <printf@plt>
   17e4a:	83 45 f0 01          	addl   $0x1,-0x10(%rbp)
   17e4e:	83 7d f0 09          	cmpl   $0x9,-0x10(%rbp)
   17e52:	7e b1                	jle    17e05 <main+0x125f>
   17e54:	8b 05 fa 7e 00 00    	mov    0x7efa(%rip),%eax        # 1fd54 <g_777>
   17e5a:	89 c1                	mov    %eax,%ecx
   17e5c:	8b 45 fc             	mov    -0x4(%rbp),%eax
   17e5f:	89 c2                	mov    %eax,%edx
   17e61:	48 8d 35 c4 3d 00 00 	lea    0x3dc4(%rip),%rsi        # 1bc2c <g_1821+0x1b5c>
   17e68:	48 89 cf             	mov    %rcx,%rdi
   17e6b:	e8 83 08 ff ff       	callq  86f3 <transparent_crc>
   17e70:	8b 05 e2 7e 00 00    	mov    0x7ee2(%rip),%eax        # 1fd58 <g_791>
   17e76:	89 c1                	mov    %eax,%ecx
   17e78:	8b 45 fc             	mov    -0x4(%rbp),%eax
   17e7b:	89 c2                	mov    %eax,%edx
   17e7d:	48 8d 35 ae 3d 00 00 	lea    0x3dae(%rip),%rsi        # 1bc32 <g_1821+0x1b62>
   17e84:	48 89 cf             	mov    %rcx,%rdi
   17e87:	e8 67 08 ff ff       	callq  86f3 <transparent_crc>
   17e8c:	8b 05 c6 7e 00 00    	mov    0x7ec6(%rip),%eax        # 1fd58 <g_791>
   17e92:	89 c1                	mov    %eax,%ecx
   17e94:	8b 45 fc             	mov    -0x4(%rbp),%eax
   17e97:	89 c2                	mov    %eax,%edx
   17e99:	48 8d 35 9b 3d 00 00 	lea    0x3d9b(%rip),%rsi        # 1bc3b <g_1821+0x1b6b>
   17ea0:	48 89 cf             	mov    %rcx,%rdi
   17ea3:	e8 4b 08 ff ff       	callq  86f3 <transparent_crc>
   17ea8:	b8 ff ff ff ff       	mov    $0xffffffff,%eax
   17ead:	48 0f be c0          	movsbq %al,%rax
   17eb1:	8b 55 fc             	mov    -0x4(%rbp),%edx
   17eb4:	48 8d 35 89 3d 00 00 	lea    0x3d89(%rip),%rsi        # 1bc44 <g_1821+0x1b74>
   17ebb:	48 89 c7             	mov    %rax,%rdi
   17ebe:	e8 30 08 ff ff       	callq  86f3 <transparent_crc>
   17ec3:	8b 05 93 7e 00 00    	mov    0x7e93(%rip),%eax        # 1fd5c <g_840>
   17ec9:	89 c1                	mov    %eax,%ecx
   17ecb:	8b 45 fc             	mov    -0x4(%rbp),%eax
   17ece:	89 c2                	mov    %eax,%edx
   17ed0:	48 8d 35 73 3d 00 00 	lea    0x3d73(%rip),%rsi        # 1bc4a <g_1821+0x1b7a>
   17ed7:	48 89 cf             	mov    %rcx,%rdi
   17eda:	e8 14 08 ff ff       	callq  86f3 <transparent_crc>
   17edf:	8b 05 77 7e 00 00    	mov    0x7e77(%rip),%eax        # 1fd5c <g_840>
   17ee5:	89 c1                	mov    %eax,%ecx
   17ee7:	8b 45 fc             	mov    -0x4(%rbp),%eax
   17eea:	89 c2                	mov    %eax,%edx
   17eec:	48 8d 35 60 3d 00 00 	lea    0x3d60(%rip),%rsi        # 1bc53 <g_1821+0x1b83>
   17ef3:	48 89 cf             	mov    %rcx,%rdi
   17ef6:	e8 f8 07 ff ff       	callq  86f3 <transparent_crc>
   17efb:	48 8b 05 5e 7e 00 00 	mov    0x7e5e(%rip),%rax        # 1fd60 <g_896>
   17f02:	c1 e0 08             	shl    $0x8,%eax
   17f05:	c1 f8 08             	sar    $0x8,%eax
   17f08:	48 98                	cltq   
   17f0a:	8b 55 fc             	mov    -0x4(%rbp),%edx
   17f0d:	48 8d 35 48 3d 00 00 	lea    0x3d48(%rip),%rsi        # 1bc5c <g_1821+0x1b8c>
   17f14:	48 89 c7             	mov    %rax,%rdi
   17f17:	e8 d7 07 ff ff       	callq  86f3 <transparent_crc>
   17f1c:	8b 05 42 7e 00 00    	mov    0x7e42(%rip),%eax        # 1fd64 <g_896+0x4>
   17f22:	48 98                	cltq   
   17f24:	8b 55 fc             	mov    -0x4(%rbp),%edx
   17f27:	48 8d 35 37 3d 00 00 	lea    0x3d37(%rip),%rsi        # 1bc65 <g_1821+0x1b95>
   17f2e:	48 89 c7             	mov    %rax,%rdi
   17f31:	e8 bd 07 ff ff       	callq  86f3 <transparent_crc>
   17f36:	48 8b 05 2b 7e 00 00 	mov    0x7e2b(%rip),%rax        # 1fd68 <g_896+0x8>
   17f3d:	c1 e0 07             	shl    $0x7,%eax
   17f40:	66 c1 f8 07          	sar    $0x7,%ax
   17f44:	48 0f bf c0          	movswq %ax,%rax
   17f48:	8b 55 fc             	mov    -0x4(%rbp),%edx
   17f4b:	48 8d 35 1c 3d 00 00 	lea    0x3d1c(%rip),%rsi        # 1bc6e <g_1821+0x1b9e>
   17f52:	48 89 c7             	mov    %rax,%rdi
   17f55:	e8 99 07 ff ff       	callq  86f3 <transparent_crc>
   17f5a:	0f b6 05 0b 7e 00 00 	movzbl 0x7e0b(%rip),%eax        # 1fd6c <g_896+0xc>
   17f61:	0f b6 c0             	movzbl %al,%eax
   17f64:	8b 55 fc             	mov    -0x4(%rbp),%edx
   17f67:	48 8d 35 09 3d 00 00 	lea    0x3d09(%rip),%rsi        # 1bc77 <g_1821+0x1ba7>
   17f6e:	48 89 c7             	mov    %rax,%rdi
   17f71:	e8 7d 07 ff ff       	callq  86f3 <transparent_crc>
   17f76:	48 8b 05 eb 7d 00 00 	mov    0x7deb(%rip),%rax        # 1fd68 <g_896+0x8>
   17f7d:	48 c1 e0 16          	shl    $0x16,%rax
   17f81:	48 c1 f8 3e          	sar    $0x3e,%rax
   17f85:	48 0f be c0          	movsbq %al,%rax
   17f89:	8b 55 fc             	mov    -0x4(%rbp),%edx
   17f8c:	48 8d 35 ed 3c 00 00 	lea    0x3ced(%rip),%rsi        # 1bc80 <g_1821+0x1bb0>
   17f93:	48 89 c7             	mov    %rax,%rdi
   17f96:	e8 58 07 ff ff       	callq  86f3 <transparent_crc>
   17f9b:	48 8b 05 c6 7d 00 00 	mov    0x7dc6(%rip),%rax        # 1fd68 <g_896+0x8>
   17fa2:	48 01 c0             	add    %rax,%rax
   17fa5:	48 c1 f8 2b          	sar    $0x2b,%rax
   17fa9:	48 98                	cltq   
   17fab:	8b 55 fc             	mov    -0x4(%rbp),%edx
   17fae:	48 8d 35 d4 3c 00 00 	lea    0x3cd4(%rip),%rsi        # 1bc89 <g_1821+0x1bb9>
   17fb5:	48 89 c7             	mov    %rax,%rdi
   17fb8:	e8 36 07 ff ff       	callq  86f3 <transparent_crc>
   17fbd:	48 8b 05 ac 7d 00 00 	mov    0x7dac(%rip),%rax        # 1fd70 <g_896+0x10>
   17fc4:	c1 e0 0b             	shl    $0xb,%eax
   17fc7:	c1 f8 0b             	sar    $0xb,%eax
   17fca:	48 98                	cltq   
   17fcc:	8b 55 fc             	mov    -0x4(%rbp),%edx
   17fcf:	48 8d 35 bc 3c 00 00 	lea    0x3cbc(%rip),%rsi        # 1bc92 <g_1821+0x1bc2>
   17fd6:	48 89 c7             	mov    %rax,%rdi
   17fd9:	e8 15 07 ff ff       	callq  86f3 <transparent_crc>
   17fde:	48 8b 05 8b 7d 00 00 	mov    0x7d8b(%rip),%rax        # 1fd70 <g_896+0x10>
   17fe5:	48 c1 e0 0b          	shl    $0xb,%rax
   17fe9:	48 c1 f8 2b          	sar    $0x2b,%rax
   17fed:	48 98                	cltq   
   17fef:	8b 55 fc             	mov    -0x4(%rbp),%edx
   17ff2:	48 8d 35 a2 3c 00 00 	lea    0x3ca2(%rip),%rsi        # 1bc9b <g_1821+0x1bcb>
   17ff9:	48 89 c7             	mov    %rax,%rdi
   17ffc:	e8 f2 06 ff ff       	callq  86f3 <transparent_crc>
   18001:	8b 05 79 7d 00 00    	mov    0x7d79(%rip),%eax        # 1fd80 <g_921>
   18007:	48 98                	cltq   
   18009:	8b 55 fc             	mov    -0x4(%rbp),%edx
   1800c:	48 8d 35 91 3c 00 00 	lea    0x3c91(%rip),%rsi        # 1bca4 <g_1821+0x1bd4>
   18013:	48 89 c7             	mov    %rax,%rdi
   18016:	e8 d8 06 ff ff       	callq  86f3 <transparent_crc>
   1801b:	48 8b 05 5e 7d 00 00 	mov    0x7d5e(%rip),%rax        # 1fd80 <g_921>
   18022:	48 c1 e8 20          	shr    $0x20,%rax
   18026:	66 25 ff 01          	and    $0x1ff,%ax
   1802a:	0f b7 c0             	movzwl %ax,%eax
   1802d:	8b 55 fc             	mov    -0x4(%rbp),%edx
   18030:	48 8d 35 76 3c 00 00 	lea    0x3c76(%rip),%rsi        # 1bcad <g_1821+0x1bdd>
   18037:	48 89 c7             	mov    %rax,%rdi
   1803a:	e8 b4 06 ff ff       	callq  86f3 <transparent_crc>
   1803f:	8b 05 41 7d 00 00    	mov    0x7d41(%rip),%eax        # 1fd86 <g_921+0x6>
   18045:	48 98                	cltq   
   18047:	8b 55 fc             	mov    -0x4(%rbp),%edx
   1804a:	48 8d 35 65 3c 00 00 	lea    0x3c65(%rip),%rsi        # 1bcb6 <g_1821+0x1be6>
   18051:	48 89 c7             	mov    %rax,%rdi
   18054:	e8 9a 06 ff ff       	callq  86f3 <transparent_crc>
   18059:	48 8b 05 2a 7d 00 00 	mov    0x7d2a(%rip),%rax        # 1fd8a <g_921+0xa>
   18060:	8b 55 fc             	mov    -0x4(%rbp),%edx
   18063:	48 8d 35 55 3c 00 00 	lea    0x3c55(%rip),%rsi        # 1bcbf <g_1821+0x1bef>
   1806a:	48 89 c7             	mov    %rax,%rdi
   1806d:	e8 81 06 ff ff       	callq  86f3 <transparent_crc>
   18072:	8b 05 1a 7d 00 00    	mov    0x7d1a(%rip),%eax        # 1fd92 <g_921+0x12>
   18078:	89 c1                	mov    %eax,%ecx
   1807a:	8b 45 fc             	mov    -0x4(%rbp),%eax
   1807d:	89 c2                	mov    %eax,%edx
   1807f:	48 8d 35 42 3c 00 00 	lea    0x3c42(%rip),%rsi        # 1bcc8 <g_1821+0x1bf8>
   18086:	48 89 cf             	mov    %rcx,%rdi
   18089:	e8 65 06 ff ff       	callq  86f3 <transparent_crc>
   1808e:	48 8b 05 01 7d 00 00 	mov    0x7d01(%rip),%rax        # 1fd96 <g_921+0x16>
   18095:	8b 55 fc             	mov    -0x4(%rbp),%edx
   18098:	48 8d 35 32 3c 00 00 	lea    0x3c32(%rip),%rsi        # 1bcd1 <g_1821+0x1c01>
   1809f:	48 89 c7             	mov    %rax,%rdi
   180a2:	e8 4c 06 ff ff       	callq  86f3 <transparent_crc>
   180a7:	48 8b 05 f2 7c 00 00 	mov    0x7cf2(%rip),%rax        # 1fda0 <g_931>
   180ae:	c1 e0 08             	shl    $0x8,%eax
   180b1:	c1 f8 08             	sar    $0x8,%eax
   180b4:	48 98                	cltq   
   180b6:	8b 55 fc             	mov    -0x4(%rbp),%edx
   180b9:	48 8d 35 1a 3c 00 00 	lea    0x3c1a(%rip),%rsi        # 1bcda <g_1821+0x1c0a>
   180c0:	48 89 c7             	mov    %rax,%rdi
   180c3:	e8 2b 06 ff ff       	callq  86f3 <transparent_crc>
   180c8:	8b 05 d6 7c 00 00    	mov    0x7cd6(%rip),%eax        # 1fda4 <g_931+0x4>
   180ce:	48 98                	cltq   
   180d0:	8b 55 fc             	mov    -0x4(%rbp),%edx
   180d3:	48 8d 35 09 3c 00 00 	lea    0x3c09(%rip),%rsi        # 1bce3 <g_1821+0x1c13>
   180da:	48 89 c7             	mov    %rax,%rdi
   180dd:	e8 11 06 ff ff       	callq  86f3 <transparent_crc>
   180e2:	48 8b 05 bf 7c 00 00 	mov    0x7cbf(%rip),%rax        # 1fda8 <g_931+0x8>
   180e9:	c1 e0 07             	shl    $0x7,%eax
   180ec:	66 c1 f8 07          	sar    $0x7,%ax
   180f0:	48 0f bf c0          	movswq %ax,%rax
   180f4:	8b 55 fc             	mov    -0x4(%rbp),%edx
   180f7:	48 8d 35 ee 3b 00 00 	lea    0x3bee(%rip),%rsi        # 1bcec <g_1821+0x1c1c>
   180fe:	48 89 c7             	mov    %rax,%rdi
   18101:	e8 ed 05 ff ff       	callq  86f3 <transparent_crc>
   18106:	0f b6 05 9f 7c 00 00 	movzbl 0x7c9f(%rip),%eax        # 1fdac <g_931+0xc>
   1810d:	0f b6 c0             	movzbl %al,%eax
   18110:	8b 55 fc             	mov    -0x4(%rbp),%edx
   18113:	48 8d 35 db 3b 00 00 	lea    0x3bdb(%rip),%rsi        # 1bcf5 <g_1821+0x1c25>
   1811a:	48 89 c7             	mov    %rax,%rdi
   1811d:	e8 d1 05 ff ff       	callq  86f3 <transparent_crc>
   18122:	48 8b 05 7f 7c 00 00 	mov    0x7c7f(%rip),%rax        # 1fda8 <g_931+0x8>
   18129:	48 c1 e0 16          	shl    $0x16,%rax
   1812d:	48 c1 f8 3e          	sar    $0x3e,%rax
   18131:	48 0f be c0          	movsbq %al,%rax
   18135:	8b 55 fc             	mov    -0x4(%rbp),%edx
   18138:	48 8d 35 bf 3b 00 00 	lea    0x3bbf(%rip),%rsi        # 1bcfe <g_1821+0x1c2e>
   1813f:	48 89 c7             	mov    %rax,%rdi
   18142:	e8 ac 05 ff ff       	callq  86f3 <transparent_crc>
   18147:	48 8b 05 5a 7c 00 00 	mov    0x7c5a(%rip),%rax        # 1fda8 <g_931+0x8>
   1814e:	48 01 c0             	add    %rax,%rax
   18151:	48 c1 f8 2b          	sar    $0x2b,%rax
   18155:	48 98                	cltq   
   18157:	8b 55 fc             	mov    -0x4(%rbp),%edx
   1815a:	48 8d 35 a6 3b 00 00 	lea    0x3ba6(%rip),%rsi        # 1bd07 <g_1821+0x1c37>
   18161:	48 89 c7             	mov    %rax,%rdi
   18164:	e8 8a 05 ff ff       	callq  86f3 <transparent_crc>
   18169:	48 8b 05 40 7c 00 00 	mov    0x7c40(%rip),%rax        # 1fdb0 <g_931+0x10>
   18170:	c1 e0 0b             	shl    $0xb,%eax
   18173:	c1 f8 0b             	sar    $0xb,%eax
   18176:	48 98                	cltq   
   18178:	8b 55 fc             	mov    -0x4(%rbp),%edx
   1817b:	48 8d 35 8e 3b 00 00 	lea    0x3b8e(%rip),%rsi        # 1bd10 <g_1821+0x1c40>
   18182:	48 89 c7             	mov    %rax,%rdi
   18185:	e8 69 05 ff ff       	callq  86f3 <transparent_crc>
   1818a:	48 8b 05 1f 7c 00 00 	mov    0x7c1f(%rip),%rax        # 1fdb0 <g_931+0x10>
   18191:	48 c1 e0 0b          	shl    $0xb,%rax
   18195:	48 c1 f8 2b          	sar    $0x2b,%rax
   18199:	48 98                	cltq   
   1819b:	8b 55 fc             	mov    -0x4(%rbp),%edx
   1819e:	48 8d 35 74 3b 00 00 	lea    0x3b74(%rip),%rsi        # 1bd19 <g_1821+0x1c49>
   181a5:	48 89 c7             	mov    %rax,%rdi
   181a8:	e8 46 05 ff ff       	callq  86f3 <transparent_crc>
   181ad:	8b 05 05 7c 00 00    	mov    0x7c05(%rip),%eax        # 1fdb8 <g_1044>
   181b3:	89 c1                	mov    %eax,%ecx
   181b5:	8b 45 fc             	mov    -0x4(%rbp),%eax
   181b8:	89 c2                	mov    %eax,%edx
   181ba:	48 8d 35 61 3b 00 00 	lea    0x3b61(%rip),%rsi        # 1bd22 <g_1821+0x1c52>
   181c1:	48 89 cf             	mov    %rcx,%rdi
   181c4:	e8 2a 05 ff ff       	callq  86f3 <transparent_crc>
   181c9:	8b 05 e9 7b 00 00    	mov    0x7be9(%rip),%eax        # 1fdb8 <g_1044>
   181cf:	89 c1                	mov    %eax,%ecx
   181d1:	8b 45 fc             	mov    -0x4(%rbp),%eax
   181d4:	89 c2                	mov    %eax,%edx
   181d6:	48 8d 35 4f 3b 00 00 	lea    0x3b4f(%rip),%rsi        # 1bd2c <g_1821+0x1c5c>
   181dd:	48 89 cf             	mov    %rcx,%rdi
   181e0:	e8 0e 05 ff ff       	callq  86f3 <transparent_crc>
   181e5:	8b 05 d1 7b 00 00    	mov    0x7bd1(%rip),%eax        # 1fdbc <g_1049>
   181eb:	89 c1                	mov    %eax,%ecx
   181ed:	8b 45 fc             	mov    -0x4(%rbp),%eax
   181f0:	89 c2                	mov    %eax,%edx
   181f2:	48 8d 35 3d 3b 00 00 	lea    0x3b3d(%rip),%rsi        # 1bd36 <g_1821+0x1c66>
   181f9:	48 89 cf             	mov    %rcx,%rdi
   181fc:	e8 f2 04 ff ff       	callq  86f3 <transparent_crc>
   18201:	8b 05 b5 7b 00 00    	mov    0x7bb5(%rip),%eax        # 1fdbc <g_1049>
   18207:	89 c1                	mov    %eax,%ecx
   18209:	8b 45 fc             	mov    -0x4(%rbp),%eax
   1820c:	89 c2                	mov    %eax,%edx
   1820e:	48 8d 35 2b 3b 00 00 	lea    0x3b2b(%rip),%rsi        # 1bd40 <g_1821+0x1c70>
   18215:	48 89 cf             	mov    %rcx,%rdi
   18218:	e8 d6 04 ff ff       	callq  86f3 <transparent_crc>
   1821d:	48 8b 05 9c 7b 00 00 	mov    0x7b9c(%rip),%rax        # 1fdc0 <g_1092>
   18224:	c1 e0 08             	shl    $0x8,%eax
   18227:	c1 f8 08             	sar    $0x8,%eax
   1822a:	48 98                	cltq   
   1822c:	8b 55 fc             	mov    -0x4(%rbp),%edx
   1822f:	48 8d 35 14 3b 00 00 	lea    0x3b14(%rip),%rsi        # 1bd4a <g_1821+0x1c7a>
   18236:	48 89 c7             	mov    %rax,%rdi
   18239:	e8 b5 04 ff ff       	callq  86f3 <transparent_crc>
   1823e:	8b 05 80 7b 00 00    	mov    0x7b80(%rip),%eax        # 1fdc4 <g_1092+0x4>
   18244:	48 98                	cltq   
   18246:	8b 55 fc             	mov    -0x4(%rbp),%edx
   18249:	48 8d 35 04 3b 00 00 	lea    0x3b04(%rip),%rsi        # 1bd54 <g_1821+0x1c84>
   18250:	48 89 c7             	mov    %rax,%rdi
   18253:	e8 9b 04 ff ff       	callq  86f3 <transparent_crc>
   18258:	0f b7 05 69 7b 00 00 	movzwl 0x7b69(%rip),%eax        # 1fdc8 <g_1092+0x8>
   1825f:	c1 e0 07             	shl    $0x7,%eax
   18262:	66 c1 f8 07          	sar    $0x7,%ax
   18266:	48 0f bf c0          	movswq %ax,%rax
   1826a:	8b 55 fc             	mov    -0x4(%rbp),%edx
   1826d:	48 8d 35 ea 3a 00 00 	lea    0x3aea(%rip),%rsi        # 1bd5e <g_1821+0x1c8e>
   18274:	48 89 c7             	mov    %rax,%rdi
   18277:	e8 77 04 ff ff       	callq  86f3 <transparent_crc>
   1827c:	0f b6 05 49 7b 00 00 	movzbl 0x7b49(%rip),%eax        # 1fdcc <g_1092+0xc>
   18283:	0f b6 c0             	movzbl %al,%eax
   18286:	8b 55 fc             	mov    -0x4(%rbp),%edx
   18289:	48 8d 35 d8 3a 00 00 	lea    0x3ad8(%rip),%rsi        # 1bd68 <g_1821+0x1c98>
   18290:	48 89 c7             	mov    %rax,%rdi
   18293:	e8 5b 04 ff ff       	callq  86f3 <transparent_crc>
   18298:	48 8b 05 29 7b 00 00 	mov    0x7b29(%rip),%rax        # 1fdc8 <g_1092+0x8>
   1829f:	48 c1 e0 16          	shl    $0x16,%rax
   182a3:	48 c1 f8 3e          	sar    $0x3e,%rax
   182a7:	48 0f be c0          	movsbq %al,%rax
   182ab:	8b 55 fc             	mov    -0x4(%rbp),%edx
   182ae:	48 8d 35 bd 3a 00 00 	lea    0x3abd(%rip),%rsi        # 1bd72 <g_1821+0x1ca2>
   182b5:	48 89 c7             	mov    %rax,%rdi
   182b8:	e8 36 04 ff ff       	callq  86f3 <transparent_crc>
   182bd:	8b 05 09 7b 00 00    	mov    0x7b09(%rip),%eax        # 1fdcc <g_1092+0xc>
   182c3:	01 c0                	add    %eax,%eax
   182c5:	c1 f8 0b             	sar    $0xb,%eax
   182c8:	48 98                	cltq   
   182ca:	8b 55 fc             	mov    -0x4(%rbp),%edx
   182cd:	48 8d 35 a8 3a 00 00 	lea    0x3aa8(%rip),%rsi        # 1bd7c <g_1821+0x1cac>
   182d4:	48 89 c7             	mov    %rax,%rdi
   182d7:	e8 17 04 ff ff       	callq  86f3 <transparent_crc>
   182dc:	48 8b 05 ed 7a 00 00 	mov    0x7aed(%rip),%rax        # 1fdd0 <g_1092+0x10>
   182e3:	c1 e0 0b             	shl    $0xb,%eax
   182e6:	c1 f8 0b             	sar    $0xb,%eax
   182e9:	48 98                	cltq   
   182eb:	8b 55 fc             	mov    -0x4(%rbp),%edx
   182ee:	48 8d 35 91 3a 00 00 	lea    0x3a91(%rip),%rsi        # 1bd86 <g_1821+0x1cb6>
   182f5:	48 89 c7             	mov    %rax,%rdi
   182f8:	e8 f6 03 ff ff       	callq  86f3 <transparent_crc>
   182fd:	8b 05 d1 7a 00 00    	mov    0x7ad1(%rip),%eax        # 1fdd4 <g_1092+0x14>
   18303:	c1 e0 0b             	shl    $0xb,%eax
   18306:	c1 f8 0b             	sar    $0xb,%eax
   18309:	48 98                	cltq   
   1830b:	8b 55 fc             	mov    -0x4(%rbp),%edx
   1830e:	48 8d 35 7b 3a 00 00 	lea    0x3a7b(%rip),%rsi        # 1bd90 <g_1821+0x1cc0>
   18315:	48 89 c7             	mov    %rax,%rdi
   18318:	e8 d6 03 ff ff       	callq  86f3 <transparent_crc>
   1831d:	c7 45 f0 00 00 00 00 	movl   $0x0,-0x10(%rbp)
   18324:	eb 4b                	jmp    18371 <main+0x17cb>
   18326:	8b 45 f0             	mov    -0x10(%rbp),%eax
   18329:	48 98                	cltq   
   1832b:	48 8d 14 85 00 00 00 	lea    0x0(,%rax,4),%rdx
   18332:	00 
   18333:	48 8d 05 9e 7a 00 00 	lea    0x7a9e(%rip),%rax        # 1fdd8 <g_1131>
   1833a:	8b 04 02             	mov    (%rdx,%rax,1),%eax
   1833d:	48 98                	cltq   
   1833f:	8b 55 fc             	mov    -0x4(%rbp),%edx
   18342:	48 8d 35 51 3a 00 00 	lea    0x3a51(%rip),%rsi        # 1bd9a <g_1821+0x1cca>
   18349:	48 89 c7             	mov    %rax,%rdi
   1834c:	e8 a2 03 ff ff       	callq  86f3 <transparent_crc>
   18351:	83 7d fc 00          	cmpl   $0x0,-0x4(%rbp)
   18355:	74 16                	je     1836d <main+0x17c7>
   18357:	8b 45 f0             	mov    -0x10(%rbp),%eax
   1835a:	89 c6                	mov    %eax,%esi
   1835c:	48 8d 3d a8 34 00 00 	lea    0x34a8(%rip),%rdi        # 1b80b <g_1821+0x173b>
   18363:	b8 00 00 00 00       	mov    $0x0,%eax
   18368:	e8 13 ed fe ff       	callq  7080 <printf@plt>
   1836d:	83 45 f0 01          	addl   $0x1,-0x10(%rbp)
   18371:	83 7d f0 01          	cmpl   $0x1,-0x10(%rbp)
   18375:	7e af                	jle    18326 <main+0x1780>
   18377:	8b 05 63 7a 00 00    	mov    0x7a63(%rip),%eax        # 1fde0 <g_1133>
   1837d:	48 98                	cltq   
   1837f:	8b 55 fc             	mov    -0x4(%rbp),%edx
   18382:	48 8d 35 1b 3a 00 00 	lea    0x3a1b(%rip),%rsi        # 1bda4 <g_1821+0x1cd4>
   18389:	48 89 c7             	mov    %rax,%rdi
   1838c:	e8 62 03 ff ff       	callq  86f3 <transparent_crc>
   18391:	0f b7 05 4c 7a 00 00 	movzwl 0x7a4c(%rip),%eax        # 1fde4 <g_1133+0x4>
   18398:	66 25 ff 01          	and    $0x1ff,%ax
   1839c:	0f b7 c0             	movzwl %ax,%eax
   1839f:	8b 55 fc             	mov    -0x4(%rbp),%edx
   183a2:	48 8d 35 05 3a 00 00 	lea    0x3a05(%rip),%rsi        # 1bdae <g_1821+0x1cde>
   183a9:	48 89 c7             	mov    %rax,%rdi
   183ac:	e8 42 03 ff ff       	callq  86f3 <transparent_crc>
   183b1:	8b 05 2f 7a 00 00    	mov    0x7a2f(%rip),%eax        # 1fde6 <g_1133+0x6>
   183b7:	48 98                	cltq   
   183b9:	8b 55 fc             	mov    -0x4(%rbp),%edx
   183bc:	48 8d 35 f5 39 00 00 	lea    0x39f5(%rip),%rsi        # 1bdb8 <g_1821+0x1ce8>
   183c3:	48 89 c7             	mov    %rax,%rdi
   183c6:	e8 28 03 ff ff       	callq  86f3 <transparent_crc>
   183cb:	48 8b 05 18 7a 00 00 	mov    0x7a18(%rip),%rax        # 1fdea <g_1133+0xa>
   183d2:	8b 55 fc             	mov    -0x4(%rbp),%edx
   183d5:	48 8d 35 e6 39 00 00 	lea    0x39e6(%rip),%rsi        # 1bdc2 <g_1821+0x1cf2>
   183dc:	48 89 c7             	mov    %rax,%rdi
   183df:	e8 0f 03 ff ff       	callq  86f3 <transparent_crc>
   183e4:	8b 05 08 7a 00 00    	mov    0x7a08(%rip),%eax        # 1fdf2 <g_1133+0x12>
   183ea:	89 c1                	mov    %eax,%ecx
   183ec:	8b 45 fc             	mov    -0x4(%rbp),%eax
   183ef:	89 c2                	mov    %eax,%edx
   183f1:	48 8d 35 d4 39 00 00 	lea    0x39d4(%rip),%rsi        # 1bdcc <g_1821+0x1cfc>
   183f8:	48 89 cf             	mov    %rcx,%rdi
   183fb:	e8 f3 02 ff ff       	callq  86f3 <transparent_crc>
   18400:	48 8b 05 ef 79 00 00 	mov    0x79ef(%rip),%rax        # 1fdf6 <g_1133+0x16>
   18407:	8b 55 fc             	mov    -0x4(%rbp),%edx
   1840a:	48 8d 35 c5 39 00 00 	lea    0x39c5(%rip),%rsi        # 1bdd6 <g_1821+0x1d06>
   18411:	48 89 c7             	mov    %rax,%rdi
   18414:	e8 da 02 ff ff       	callq  86f3 <transparent_crc>
   18419:	8b 05 e1 79 00 00    	mov    0x79e1(%rip),%eax        # 1fe00 <g_1172>
   1841f:	89 c1                	mov    %eax,%ecx
   18421:	8b 45 fc             	mov    -0x4(%rbp),%eax
   18424:	89 c2                	mov    %eax,%edx
   18426:	48 8d 35 b3 39 00 00 	lea    0x39b3(%rip),%rsi        # 1bde0 <g_1821+0x1d10>
   1842d:	48 89 cf             	mov    %rcx,%rdi
   18430:	e8 be 02 ff ff       	callq  86f3 <transparent_crc>
   18435:	48 8b 05 cc 79 00 00 	mov    0x79cc(%rip),%rax        # 1fe08 <g_1189>
   1843c:	48 89 c1             	mov    %rax,%rcx
   1843f:	8b 45 fc             	mov    -0x4(%rbp),%eax
   18442:	89 c2                	mov    %eax,%edx
   18444:	48 8d 35 9c 39 00 00 	lea    0x399c(%rip),%rsi        # 1bde7 <g_1821+0x1d17>
   1844b:	48 89 cf             	mov    %rcx,%rdi
   1844e:	e8 a0 02 ff ff       	callq  86f3 <transparent_crc>
   18453:	8b 05 af 79 00 00    	mov    0x79af(%rip),%eax        # 1fe08 <g_1189>
   18459:	c1 e0 06             	shl    $0x6,%eax
   1845c:	c1 f8 06             	sar    $0x6,%eax
   1845f:	48 98                	cltq   
   18461:	8b 55 fc             	mov    -0x4(%rbp),%edx
   18464:	48 8d 35 86 39 00 00 	lea    0x3986(%rip),%rsi        # 1bdf1 <g_1821+0x1d21>
   1846b:	48 89 c7             	mov    %rax,%rdi
   1846e:	e8 80 02 ff ff       	callq  86f3 <transparent_crc>
   18473:	48 8b 05 8e 79 00 00 	mov    0x798e(%rip),%rax        # 1fe08 <g_1189>
   1847a:	48 89 c1             	mov    %rax,%rcx
   1847d:	8b 45 fc             	mov    -0x4(%rbp),%eax
   18480:	89 c2                	mov    %eax,%edx
   18482:	48 8d 35 72 39 00 00 	lea    0x3972(%rip),%rsi        # 1bdfb <g_1821+0x1d2b>
   18489:	48 89 cf             	mov    %rcx,%rdi
   1848c:	e8 62 02 ff ff       	callq  86f3 <transparent_crc>
   18491:	0f b7 05 70 79 00 00 	movzwl 0x7970(%rip),%eax        # 1fe08 <g_1189>
   18498:	0f b7 c0             	movzwl %ax,%eax
   1849b:	8b 55 fc             	mov    -0x4(%rbp),%edx
   1849e:	48 8d 35 60 39 00 00 	lea    0x3960(%rip),%rsi        # 1be05 <g_1821+0x1d35>
   184a5:	48 89 c7             	mov    %rax,%rdi
   184a8:	e8 46 02 ff ff       	callq  86f3 <transparent_crc>
   184ad:	48 8b 05 5c 79 00 00 	mov    0x795c(%rip),%rax        # 1fe10 <g_1208>
   184b4:	48 89 c1             	mov    %rax,%rcx
   184b7:	8b 45 fc             	mov    -0x4(%rbp),%eax
   184ba:	89 c2                	mov    %eax,%edx
   184bc:	48 8d 35 4c 39 00 00 	lea    0x394c(%rip),%rsi        # 1be0f <g_1821+0x1d3f>
   184c3:	48 89 cf             	mov    %rcx,%rdi
   184c6:	e8 28 02 ff ff       	callq  86f3 <transparent_crc>
   184cb:	48 8b 05 3e 79 00 00 	mov    0x793e(%rip),%rax        # 1fe10 <g_1208>
   184d2:	c1 e0 06             	shl    $0x6,%eax
   184d5:	c1 f8 06             	sar    $0x6,%eax
   184d8:	48 98                	cltq   
   184da:	8b 55 fc             	mov    -0x4(%rbp),%edx
   184dd:	48 8d 35 35 39 00 00 	lea    0x3935(%rip),%rsi        # 1be19 <g_1821+0x1d49>
   184e4:	48 89 c7             	mov    %rax,%rdi
   184e7:	e8 07 02 ff ff       	callq  86f3 <transparent_crc>
   184ec:	48 8b 05 1d 79 00 00 	mov    0x791d(%rip),%rax        # 1fe10 <g_1208>
   184f3:	48 89 c1             	mov    %rax,%rcx
   184f6:	8b 45 fc             	mov    -0x4(%rbp),%eax
   184f9:	89 c2                	mov    %eax,%edx
   184fb:	48 8d 35 21 39 00 00 	lea    0x3921(%rip),%rsi        # 1be23 <g_1821+0x1d53>
   18502:	48 89 cf             	mov    %rcx,%rdi
   18505:	e8 e9 01 ff ff       	callq  86f3 <transparent_crc>
   1850a:	0f b7 05 ff 78 00 00 	movzwl 0x78ff(%rip),%eax        # 1fe10 <g_1208>
   18511:	0f b7 c0             	movzwl %ax,%eax
   18514:	8b 55 fc             	mov    -0x4(%rbp),%edx
   18517:	48 8d 35 0f 39 00 00 	lea    0x390f(%rip),%rsi        # 1be2d <g_1821+0x1d5d>
   1851e:	48 89 c7             	mov    %rax,%rdi
   18521:	e8 cd 01 ff ff       	callq  86f3 <transparent_crc>
   18526:	8b 05 ec 78 00 00    	mov    0x78ec(%rip),%eax        # 1fe18 <g_1218>
   1852c:	48 98                	cltq   
   1852e:	8b 55 fc             	mov    -0x4(%rbp),%edx
   18531:	48 8d 35 ff 38 00 00 	lea    0x38ff(%rip),%rsi        # 1be37 <g_1821+0x1d67>
   18538:	48 89 c7             	mov    %rax,%rdi
   1853b:	e8 b3 01 ff ff       	callq  86f3 <transparent_crc>
   18540:	0f b7 05 d5 78 00 00 	movzwl 0x78d5(%rip),%eax        # 1fe1c <g_1219>
   18547:	48 0f bf c0          	movswq %ax,%rax
   1854b:	8b 55 fc             	mov    -0x4(%rbp),%edx
   1854e:	48 8d 35 e9 38 00 00 	lea    0x38e9(%rip),%rsi        # 1be3e <g_1821+0x1d6e>
   18555:	48 89 c7             	mov    %rax,%rdi
   18558:	e8 96 01 ff ff       	callq  86f3 <transparent_crc>
   1855d:	48 8b 05 bc 78 00 00 	mov    0x78bc(%rip),%rax        # 1fe20 <g_1263>
   18564:	48 89 c1             	mov    %rax,%rcx
   18567:	8b 45 fc             	mov    -0x4(%rbp),%eax
   1856a:	89 c2                	mov    %eax,%edx
   1856c:	48 8d 35 d2 38 00 00 	lea    0x38d2(%rip),%rsi        # 1be45 <g_1821+0x1d75>
   18573:	48 89 cf             	mov    %rcx,%rdi
   18576:	e8 78 01 ff ff       	callq  86f3 <transparent_crc>
   1857b:	8b 05 9f 78 00 00    	mov    0x789f(%rip),%eax        # 1fe20 <g_1263>
   18581:	c1 e0 06             	shl    $0x6,%eax
   18584:	c1 f8 06             	sar    $0x6,%eax
   18587:	48 98                	cltq   
   18589:	8b 55 fc             	mov    -0x4(%rbp),%edx
   1858c:	48 8d 35 bc 38 00 00 	lea    0x38bc(%rip),%rsi        # 1be4f <g_1821+0x1d7f>
   18593:	48 89 c7             	mov    %rax,%rdi
   18596:	e8 58 01 ff ff       	callq  86f3 <transparent_crc>
   1859b:	48 8b 05 7e 78 00 00 	mov    0x787e(%rip),%rax        # 1fe20 <g_1263>
   185a2:	48 89 c1             	mov    %rax,%rcx
   185a5:	8b 45 fc             	mov    -0x4(%rbp),%eax
   185a8:	89 c2                	mov    %eax,%edx
   185aa:	48 8d 35 a8 38 00 00 	lea    0x38a8(%rip),%rsi        # 1be59 <g_1821+0x1d89>
   185b1:	48 89 cf             	mov    %rcx,%rdi
   185b4:	e8 3a 01 ff ff       	callq  86f3 <transparent_crc>
   185b9:	0f b7 05 60 78 00 00 	movzwl 0x7860(%rip),%eax        # 1fe20 <g_1263>
   185c0:	0f b7 c0             	movzwl %ax,%eax
   185c3:	8b 55 fc             	mov    -0x4(%rbp),%edx
   185c6:	48 8d 35 96 38 00 00 	lea    0x3896(%rip),%rsi        # 1be63 <g_1821+0x1d93>
   185cd:	48 89 c7             	mov    %rax,%rdi
   185d0:	e8 1e 01 ff ff       	callq  86f3 <transparent_crc>
   185d5:	48 8b 05 54 78 00 00 	mov    0x7854(%rip),%rax        # 1fe30 <g_1299>
   185dc:	c1 e0 08             	shl    $0x8,%eax
   185df:	c1 f8 08             	sar    $0x8,%eax
   185e2:	48 98                	cltq   
   185e4:	8b 55 fc             	mov    -0x4(%rbp),%edx
   185e7:	48 8d 35 7f 38 00 00 	lea    0x387f(%rip),%rsi        # 1be6d <g_1821+0x1d9d>
   185ee:	48 89 c7             	mov    %rax,%rdi
   185f1:	e8 fd 00 ff ff       	callq  86f3 <transparent_crc>
   185f6:	8b 05 38 78 00 00    	mov    0x7838(%rip),%eax        # 1fe34 <g_1299+0x4>
   185fc:	48 98                	cltq   
   185fe:	8b 55 fc             	mov    -0x4(%rbp),%edx
   18601:	48 8d 35 6f 38 00 00 	lea    0x386f(%rip),%rsi        # 1be77 <g_1821+0x1da7>
   18608:	48 89 c7             	mov    %rax,%rdi
   1860b:	e8 e3 00 ff ff       	callq  86f3 <transparent_crc>
   18610:	0f b7 05 21 78 00 00 	movzwl 0x7821(%rip),%eax        # 1fe38 <g_1299+0x8>
   18617:	c1 e0 07             	shl    $0x7,%eax
   1861a:	66 c1 f8 07          	sar    $0x7,%ax
   1861e:	48 0f bf c0          	movswq %ax,%rax
   18622:	8b 55 fc             	mov    -0x4(%rbp),%edx
   18625:	48 8d 35 55 38 00 00 	lea    0x3855(%rip),%rsi        # 1be81 <g_1821+0x1db1>
   1862c:	48 89 c7             	mov    %rax,%rdi
   1862f:	e8 bf 00 ff ff       	callq  86f3 <transparent_crc>
   18634:	0f b6 05 01 78 00 00 	movzbl 0x7801(%rip),%eax        # 1fe3c <g_1299+0xc>
   1863b:	0f b6 c0             	movzbl %al,%eax
   1863e:	8b 55 fc             	mov    -0x4(%rbp),%edx
   18641:	48 8d 35 43 38 00 00 	lea    0x3843(%rip),%rsi        # 1be8b <g_1821+0x1dbb>
   18648:	48 89 c7             	mov    %rax,%rdi
   1864b:	e8 a3 00 ff ff       	callq  86f3 <transparent_crc>
   18650:	48 8b 05 e1 77 00 00 	mov    0x77e1(%rip),%rax        # 1fe38 <g_1299+0x8>
   18657:	48 c1 e0 16          	shl    $0x16,%rax
   1865b:	48 c1 f8 3e          	sar    $0x3e,%rax
   1865f:	48 0f be c0          	movsbq %al,%rax
   18663:	8b 55 fc             	mov    -0x4(%rbp),%edx
   18666:	48 8d 35 28 38 00 00 	lea    0x3828(%rip),%rsi        # 1be95 <g_1821+0x1dc5>
   1866d:	48 89 c7             	mov    %rax,%rdi
   18670:	e8 7e 00 ff ff       	callq  86f3 <transparent_crc>
   18675:	8b 05 c1 77 00 00    	mov    0x77c1(%rip),%eax        # 1fe3c <g_1299+0xc>
   1867b:	01 c0                	add    %eax,%eax
   1867d:	c1 f8 0b             	sar    $0xb,%eax
   18680:	48 98                	cltq   
   18682:	8b 55 fc             	mov    -0x4(%rbp),%edx
   18685:	48 8d 35 13 38 00 00 	lea    0x3813(%rip),%rsi        # 1be9f <g_1821+0x1dcf>
   1868c:	48 89 c7             	mov    %rax,%rdi
   1868f:	e8 5f 00 ff ff       	callq  86f3 <transparent_crc>
   18694:	48 8b 05 a5 77 00 00 	mov    0x77a5(%rip),%rax        # 1fe40 <g_1299+0x10>
   1869b:	c1 e0 0b             	shl    $0xb,%eax
   1869e:	c1 f8 0b             	sar    $0xb,%eax
   186a1:	48 98                	cltq   
   186a3:	8b 55 fc             	mov    -0x4(%rbp),%edx
   186a6:	48 8d 35 fc 37 00 00 	lea    0x37fc(%rip),%rsi        # 1bea9 <g_1821+0x1dd9>
   186ad:	48 89 c7             	mov    %rax,%rdi
   186b0:	e8 3e 00 ff ff       	callq  86f3 <transparent_crc>
   186b5:	8b 05 89 77 00 00    	mov    0x7789(%rip),%eax        # 1fe44 <g_1299+0x14>
   186bb:	c1 e0 0b             	shl    $0xb,%eax
   186be:	c1 f8 0b             	sar    $0xb,%eax
   186c1:	48 98                	cltq   
   186c3:	8b 55 fc             	mov    -0x4(%rbp),%edx
   186c6:	48 8d 35 e6 37 00 00 	lea    0x37e6(%rip),%rsi        # 1beb3 <g_1821+0x1de3>
   186cd:	48 89 c7             	mov    %rax,%rdi
   186d0:	e8 1e 00 ff ff       	callq  86f3 <transparent_crc>
   186d5:	8b 05 75 77 00 00    	mov    0x7775(%rip),%eax        # 1fe50 <g_1334>
   186db:	48 98                	cltq   
   186dd:	8b 55 fc             	mov    -0x4(%rbp),%edx
   186e0:	48 8d 35 d6 37 00 00 	lea    0x37d6(%rip),%rsi        # 1bebd <g_1821+0x1ded>
   186e7:	48 89 c7             	mov    %rax,%rdi
   186ea:	e8 04 00 ff ff       	callq  86f3 <transparent_crc>
   186ef:	0f b7 05 5e 77 00 00 	movzwl 0x775e(%rip),%eax        # 1fe54 <g_1334+0x4>
   186f6:	66 25 ff 01          	and    $0x1ff,%ax
   186fa:	0f b7 c0             	movzwl %ax,%eax
   186fd:	8b 55 fc             	mov    -0x4(%rbp),%edx
   18700:	48 8d 35 c0 37 00 00 	lea    0x37c0(%rip),%rsi        # 1bec7 <g_1821+0x1df7>
   18707:	48 89 c7             	mov    %rax,%rdi
   1870a:	e8 e4 ff fe ff       	callq  86f3 <transparent_crc>
   1870f:	8b 05 41 77 00 00    	mov    0x7741(%rip),%eax        # 1fe56 <g_1334+0x6>
   18715:	48 98                	cltq   
   18717:	8b 55 fc             	mov    -0x4(%rbp),%edx
   1871a:	48 8d 35 b0 37 00 00 	lea    0x37b0(%rip),%rsi        # 1bed1 <g_1821+0x1e01>
   18721:	48 89 c7             	mov    %rax,%rdi
   18724:	e8 ca ff fe ff       	callq  86f3 <transparent_crc>
   18729:	48 8b 05 2a 77 00 00 	mov    0x772a(%rip),%rax        # 1fe5a <g_1334+0xa>
   18730:	8b 55 fc             	mov    -0x4(%rbp),%edx
   18733:	48 8d 35 a1 37 00 00 	lea    0x37a1(%rip),%rsi        # 1bedb <g_1821+0x1e0b>
   1873a:	48 89 c7             	mov    %rax,%rdi
   1873d:	e8 b1 ff fe ff       	callq  86f3 <transparent_crc>
   18742:	8b 05 1a 77 00 00    	mov    0x771a(%rip),%eax        # 1fe62 <g_1334+0x12>
   18748:	89 c1                	mov    %eax,%ecx
   1874a:	8b 45 fc             	mov    -0x4(%rbp),%eax
   1874d:	89 c2                	mov    %eax,%edx
   1874f:	48 8d 35 8f 37 00 00 	lea    0x378f(%rip),%rsi        # 1bee5 <g_1821+0x1e15>
   18756:	48 89 cf             	mov    %rcx,%rdi
   18759:	e8 95 ff fe ff       	callq  86f3 <transparent_crc>
   1875e:	48 8b 05 01 77 00 00 	mov    0x7701(%rip),%rax        # 1fe66 <g_1334+0x16>
   18765:	8b 55 fc             	mov    -0x4(%rbp),%edx
   18768:	48 8d 35 80 37 00 00 	lea    0x3780(%rip),%rsi        # 1beef <g_1821+0x1e1f>
   1876f:	48 89 c7             	mov    %rax,%rdi
   18772:	e8 7c ff fe ff       	callq  86f3 <transparent_crc>
   18777:	c7 45 f0 00 00 00 00 	movl   $0x0,-0x10(%rbp)
   1877e:	e9 f4 01 00 00       	jmpq   18977 <main+0x1dd1>
   18783:	8b 45 f0             	mov    -0x10(%rbp),%eax
   18786:	48 63 d0             	movslq %eax,%rdx
   18789:	48 89 d0             	mov    %rdx,%rax
   1878c:	48 01 c0             	add    %rax,%rax
   1878f:	48 01 d0             	add    %rdx,%rax
   18792:	48 c1 e0 03          	shl    $0x3,%rax
   18796:	48 89 c2             	mov    %rax,%rdx
   18799:	48 8d 05 e0 76 00 00 	lea    0x76e0(%rip),%rax        # 1fe80 <g_1344>
   187a0:	48 8b 04 02          	mov    (%rdx,%rax,1),%rax
   187a4:	c1 e0 08             	shl    $0x8,%eax
   187a7:	c1 f8 08             	sar    $0x8,%eax
   187aa:	48 98                	cltq   
   187ac:	8b 55 fc             	mov    -0x4(%rbp),%edx
   187af:	48 8d 35 43 37 00 00 	lea    0x3743(%rip),%rsi        # 1bef9 <g_1821+0x1e29>
   187b6:	48 89 c7             	mov    %rax,%rdi
   187b9:	e8 35 ff fe ff       	callq  86f3 <transparent_crc>
   187be:	8b 45 f0             	mov    -0x10(%rbp),%eax
   187c1:	48 63 d0             	movslq %eax,%rdx
   187c4:	48 89 d0             	mov    %rdx,%rax
   187c7:	48 01 c0             	add    %rax,%rax
   187ca:	48 01 d0             	add    %rdx,%rax
   187cd:	48 c1 e0 03          	shl    $0x3,%rax
   187d1:	48 89 c2             	mov    %rax,%rdx
   187d4:	48 8d 05 a9 76 00 00 	lea    0x76a9(%rip),%rax        # 1fe84 <g_1344+0x4>
   187db:	8b 04 02             	mov    (%rdx,%rax,1),%eax
   187de:	48 98                	cltq   
   187e0:	8b 55 fc             	mov    -0x4(%rbp),%edx
   187e3:	48 8d 35 1c 37 00 00 	lea    0x371c(%rip),%rsi        # 1bf06 <g_1821+0x1e36>
   187ea:	48 89 c7             	mov    %rax,%rdi
   187ed:	e8 01 ff fe ff       	callq  86f3 <transparent_crc>
   187f2:	8b 45 f0             	mov    -0x10(%rbp),%eax
   187f5:	48 63 d0             	movslq %eax,%rdx
   187f8:	48 89 d0             	mov    %rdx,%rax
   187fb:	48 01 c0             	add    %rax,%rax
   187fe:	48 01 d0             	add    %rdx,%rax
   18801:	48 c1 e0 03          	shl    $0x3,%rax
   18805:	48 89 c2             	mov    %rax,%rdx
   18808:	48 8d 05 71 76 00 00 	lea    0x7671(%rip),%rax        # 1fe80 <g_1344>
   1880f:	0f b7 44 02 08       	movzwl 0x8(%rdx,%rax,1),%eax
   18814:	c1 e0 07             	shl    $0x7,%eax
   18817:	66 c1 f8 07          	sar    $0x7,%ax
   1881b:	48 0f bf c0          	movswq %ax,%rax
   1881f:	8b 55 fc             	mov    -0x4(%rbp),%edx
   18822:	48 8d 35 ea 36 00 00 	lea    0x36ea(%rip),%rsi        # 1bf13 <g_1821+0x1e43>
   18829:	48 89 c7             	mov    %rax,%rdi
   1882c:	e8 c2 fe fe ff       	callq  86f3 <transparent_crc>
   18831:	8b 45 f0             	mov    -0x10(%rbp),%eax
   18834:	48 63 d0             	movslq %eax,%rdx
   18837:	48 89 d0             	mov    %rdx,%rax
   1883a:	48 01 c0             	add    %rax,%rax
   1883d:	48 01 d0             	add    %rdx,%rax
   18840:	48 c1 e0 03          	shl    $0x3,%rax
   18844:	48 89 c2             	mov    %rax,%rdx
   18847:	48 8d 05 3e 76 00 00 	lea    0x763e(%rip),%rax        # 1fe8c <g_1344+0xc>
   1884e:	0f b6 04 02          	movzbl (%rdx,%rax,1),%eax
   18852:	0f b6 c0             	movzbl %al,%eax
   18855:	8b 55 fc             	mov    -0x4(%rbp),%edx
   18858:	48 8d 35 c1 36 00 00 	lea    0x36c1(%rip),%rsi        # 1bf20 <g_1821+0x1e50>
   1885f:	48 89 c7             	mov    %rax,%rdi
   18862:	e8 8c fe fe ff       	callq  86f3 <transparent_crc>
   18867:	8b 45 f0             	mov    -0x10(%rbp),%eax
   1886a:	48 63 d0             	movslq %eax,%rdx
   1886d:	48 89 d0             	mov    %rdx,%rax
   18870:	48 01 c0             	add    %rax,%rax
   18873:	48 01 d0             	add    %rdx,%rax
   18876:	48 c1 e0 03          	shl    $0x3,%rax
   1887a:	48 89 c2             	mov    %rax,%rdx
   1887d:	48 8d 05 fc 75 00 00 	lea    0x75fc(%rip),%rax        # 1fe80 <g_1344>
   18884:	48 8b 44 02 08       	mov    0x8(%rdx,%rax,1),%rax
   18889:	48 c1 e0 16          	shl    $0x16,%rax
   1888d:	48 c1 f8 3e          	sar    $0x3e,%rax
   18891:	48 0f be c0          	movsbq %al,%rax
   18895:	8b 55 fc             	mov    -0x4(%rbp),%edx
   18898:	48 8d 35 8e 36 00 00 	lea    0x368e(%rip),%rsi        # 1bf2d <g_1821+0x1e5d>
   1889f:	48 89 c7             	mov    %rax,%rdi
   188a2:	e8 4c fe fe ff       	callq  86f3 <transparent_crc>
   188a7:	8b 45 f0             	mov    -0x10(%rbp),%eax
   188aa:	48 63 d0             	movslq %eax,%rdx
   188ad:	48 89 d0             	mov    %rdx,%rax
   188b0:	48 01 c0             	add    %rax,%rax
   188b3:	48 01 d0             	add    %rdx,%rax
   188b6:	48 c1 e0 03          	shl    $0x3,%rax
   188ba:	48 89 c2             	mov    %rax,%rdx
   188bd:	48 8d 05 bc 75 00 00 	lea    0x75bc(%rip),%rax        # 1fe80 <g_1344>
   188c4:	8b 44 02 0c          	mov    0xc(%rdx,%rax,1),%eax
   188c8:	01 c0                	add    %eax,%eax
   188ca:	c1 f8 0b             	sar    $0xb,%eax
   188cd:	48 98                	cltq   
   188cf:	8b 55 fc             	mov    -0x4(%rbp),%edx
   188d2:	48 8d 35 61 36 00 00 	lea    0x3661(%rip),%rsi        # 1bf3a <g_1821+0x1e6a>
   188d9:	48 89 c7             	mov    %rax,%rdi
   188dc:	e8 12 fe fe ff       	callq  86f3 <transparent_crc>
   188e1:	8b 45 f0             	mov    -0x10(%rbp),%eax
   188e4:	48 63 d0             	movslq %eax,%rdx
   188e7:	48 89 d0             	mov    %rdx,%rax
   188ea:	48 01 c0             	add    %rax,%rax
   188ed:	48 01 d0             	add    %rdx,%rax
   188f0:	48 c1 e0 03          	shl    $0x3,%rax
   188f4:	48 89 c2             	mov    %rax,%rdx
   188f7:	48 8d 05 92 75 00 00 	lea    0x7592(%rip),%rax        # 1fe90 <g_1344+0x10>
   188fe:	48 8b 04 02          	mov    (%rdx,%rax,1),%rax
   18902:	c1 e0 0b             	shl    $0xb,%eax
   18905:	c1 f8 0b             	sar    $0xb,%eax
   18908:	48 98                	cltq   
   1890a:	8b 55 fc             	mov    -0x4(%rbp),%edx
   1890d:	48 8d 35 33 36 00 00 	lea    0x3633(%rip),%rsi        # 1bf47 <g_1821+0x1e77>
   18914:	48 89 c7             	mov    %rax,%rdi
   18917:	e8 d7 fd fe ff       	callq  86f3 <transparent_crc>
   1891c:	8b 45 f0             	mov    -0x10(%rbp),%eax
   1891f:	48 63 d0             	movslq %eax,%rdx
   18922:	48 89 d0             	mov    %rdx,%rax
   18925:	48 01 c0             	add    %rax,%rax
   18928:	48 01 d0             	add    %rdx,%rax
   1892b:	48 c1 e0 03          	shl    $0x3,%rax
   1892f:	48 89 c2             	mov    %rax,%rdx
   18932:	48 8d 05 57 75 00 00 	lea    0x7557(%rip),%rax        # 1fe90 <g_1344+0x10>
   18939:	8b 44 02 04          	mov    0x4(%rdx,%rax,1),%eax
   1893d:	c1 e0 0b             	shl    $0xb,%eax
   18940:	c1 f8 0b             	sar    $0xb,%eax
   18943:	48 98                	cltq   
   18945:	8b 55 fc             	mov    -0x4(%rbp),%edx
   18948:	48 8d 35 05 36 00 00 	lea    0x3605(%rip),%rsi        # 1bf54 <g_1821+0x1e84>
   1894f:	48 89 c7             	mov    %rax,%rdi
   18952:	e8 9c fd fe ff       	callq  86f3 <transparent_crc>
   18957:	83 7d fc 00          	cmpl   $0x0,-0x4(%rbp)
   1895b:	74 16                	je     18973 <main+0x1dcd>
   1895d:	8b 45 f0             	mov    -0x10(%rbp),%eax
   18960:	89 c6                	mov    %eax,%esi
   18962:	48 8d 3d a2 2e 00 00 	lea    0x2ea2(%rip),%rdi        # 1b80b <g_1821+0x173b>
   18969:	b8 00 00 00 00       	mov    $0x0,%eax
   1896e:	e8 0d e7 fe ff       	callq  7080 <printf@plt>
   18973:	83 45 f0 01          	addl   $0x1,-0x10(%rbp)
   18977:	83 7d f0 07          	cmpl   $0x7,-0x10(%rbp)
   1897b:	0f 8e 02 fe ff ff    	jle    18783 <main+0x1bdd>
   18981:	0f b6 05 b8 75 00 00 	movzbl 0x75b8(%rip),%eax        # 1ff40 <g_1359>
   18988:	0f b6 c0             	movzbl %al,%eax
   1898b:	8b 55 fc             	mov    -0x4(%rbp),%edx
   1898e:	48 8d 35 cc 35 00 00 	lea    0x35cc(%rip),%rsi        # 1bf61 <g_1821+0x1e91>
   18995:	48 89 c7             	mov    %rax,%rdi
   18998:	e8 56 fd fe ff       	callq  86f3 <transparent_crc>
   1899d:	0f b6 05 9d 75 00 00 	movzbl 0x759d(%rip),%eax        # 1ff41 <g_1367>
   189a4:	48 0f be c0          	movsbq %al,%rax
   189a8:	8b 55 fc             	mov    -0x4(%rbp),%edx
   189ab:	48 8d 35 b6 35 00 00 	lea    0x35b6(%rip),%rsi        # 1bf68 <g_1821+0x1e98>
   189b2:	48 89 c7             	mov    %rax,%rdi
   189b5:	e8 39 fd fe ff       	callq  86f3 <transparent_crc>
   189ba:	8b 05 c8 be 00 00    	mov    0xbec8(%rip),%eax        # 24888 <g_1386>
   189c0:	48 98                	cltq   
   189c2:	8b 55 fc             	mov    -0x4(%rbp),%edx
   189c5:	48 8d 35 a3 35 00 00 	lea    0x35a3(%rip),%rsi        # 1bf6f <g_1821+0x1e9f>
   189cc:	48 89 c7             	mov    %rax,%rdi
   189cf:	e8 1f fd fe ff       	callq  86f3 <transparent_crc>
   189d4:	8b 05 ae be 00 00    	mov    0xbeae(%rip),%eax        # 24888 <g_1386>
   189da:	89 c1                	mov    %eax,%ecx
   189dc:	8b 45 fc             	mov    -0x4(%rbp),%eax
   189df:	89 c2                	mov    %eax,%edx
   189e1:	48 8d 35 91 35 00 00 	lea    0x3591(%rip),%rsi        # 1bf79 <g_1821+0x1ea9>
   189e8:	48 89 cf             	mov    %rcx,%rdi
   189eb:	e8 03 fd fe ff       	callq  86f3 <transparent_crc>
   189f0:	0f b7 05 91 be 00 00 	movzwl 0xbe91(%rip),%eax        # 24888 <g_1386>
   189f7:	c1 e0 03             	shl    $0x3,%eax
   189fa:	66 c1 f8 03          	sar    $0x3,%ax
   189fe:	48 0f bf c0          	movswq %ax,%rax
   18a02:	8b 55 fc             	mov    -0x4(%rbp),%edx
   18a05:	48 8d 35 77 35 00 00 	lea    0x3577(%rip),%rsi        # 1bf83 <g_1821+0x1eb3>
   18a0c:	48 89 c7             	mov    %rax,%rdi
   18a0f:	e8 df fc fe ff       	callq  86f3 <transparent_crc>
   18a14:	c7 45 f0 00 00 00 00 	movl   $0x0,-0x10(%rbp)
   18a1b:	e9 29 03 00 00       	jmpq   18d49 <main+0x21a3>
   18a20:	c7 45 f4 00 00 00 00 	movl   $0x0,-0xc(%rbp)
   18a27:	e9 0f 03 00 00       	jmpq   18d3b <main+0x2195>
   18a2c:	8b 45 f4             	mov    -0xc(%rbp),%eax
   18a2f:	48 98                	cltq   
   18a31:	8b 55 f0             	mov    -0x10(%rbp),%edx
   18a34:	48 63 ca             	movslq %edx,%rcx
   18a37:	48 89 c2             	mov    %rax,%rdx
   18a3a:	48 01 d2             	add    %rdx,%rdx
   18a3d:	48 01 c2             	add    %rax,%rdx
   18a40:	48 8d 04 d5 00 00 00 	lea    0x0(,%rdx,8),%rax
   18a47:	00 
   18a48:	48 89 c2             	mov    %rax,%rdx
   18a4b:	48 89 c8             	mov    %rcx,%rax
   18a4e:	48 c1 e0 02          	shl    $0x2,%rax
   18a52:	48 01 c8             	add    %rcx,%rax
   18a55:	48 c1 e0 02          	shl    $0x2,%rax
   18a59:	48 01 c8             	add    %rcx,%rax
   18a5c:	48 c1 e0 03          	shl    $0x3,%rax
   18a60:	48 01 c2             	add    %rax,%rdx
   18a63:	48 8d 05 f6 74 00 00 	lea    0x74f6(%rip),%rax        # 1ff60 <g_1393>
   18a6a:	48 01 d0             	add    %rdx,%rax
   18a6d:	48 8b 00             	mov    (%rax),%rax
   18a70:	c1 e0 08             	shl    $0x8,%eax
   18a73:	c1 f8 08             	sar    $0x8,%eax
   18a76:	48 98                	cltq   
   18a78:	8b 55 fc             	mov    -0x4(%rbp),%edx
   18a7b:	48 8d 35 0b 35 00 00 	lea    0x350b(%rip),%rsi        # 1bf8d <g_1821+0x1ebd>
   18a82:	48 89 c7             	mov    %rax,%rdi
   18a85:	e8 69 fc fe ff       	callq  86f3 <transparent_crc>
   18a8a:	8b 45 f4             	mov    -0xc(%rbp),%eax
   18a8d:	48 98                	cltq   
   18a8f:	8b 55 f0             	mov    -0x10(%rbp),%edx
   18a92:	48 63 ca             	movslq %edx,%rcx
   18a95:	48 89 c2             	mov    %rax,%rdx
   18a98:	48 01 d2             	add    %rdx,%rdx
   18a9b:	48 01 c2             	add    %rax,%rdx
   18a9e:	48 8d 04 d5 00 00 00 	lea    0x0(,%rdx,8),%rax
   18aa5:	00 
   18aa6:	48 89 c2             	mov    %rax,%rdx
   18aa9:	48 89 c8             	mov    %rcx,%rax
   18aac:	48 c1 e0 02          	shl    $0x2,%rax
   18ab0:	48 01 c8             	add    %rcx,%rax
   18ab3:	48 c1 e0 02          	shl    $0x2,%rax
   18ab7:	48 01 c8             	add    %rcx,%rax
   18aba:	48 c1 e0 03          	shl    $0x3,%rax
   18abe:	48 01 c2             	add    %rax,%rdx
   18ac1:	48 8d 05 9c 74 00 00 	lea    0x749c(%rip),%rax        # 1ff64 <g_1393+0x4>
   18ac8:	48 01 d0             	add    %rdx,%rax
   18acb:	8b 00                	mov    (%rax),%eax
   18acd:	48 98                	cltq   
   18acf:	8b 55 fc             	mov    -0x4(%rbp),%edx
   18ad2:	48 8d 35 c4 34 00 00 	lea    0x34c4(%rip),%rsi        # 1bf9d <g_1821+0x1ecd>
   18ad9:	48 89 c7             	mov    %rax,%rdi
   18adc:	e8 12 fc fe ff       	callq  86f3 <transparent_crc>
   18ae1:	8b 45 f4             	mov    -0xc(%rbp),%eax
   18ae4:	48 98                	cltq   
   18ae6:	8b 55 f0             	mov    -0x10(%rbp),%edx
   18ae9:	48 63 ca             	movslq %edx,%rcx
   18aec:	48 89 c2             	mov    %rax,%rdx
   18aef:	48 01 d2             	add    %rdx,%rdx
   18af2:	48 01 c2             	add    %rax,%rdx
   18af5:	48 8d 04 d5 00 00 00 	lea    0x0(,%rdx,8),%rax
   18afc:	00 
   18afd:	48 89 c2             	mov    %rax,%rdx
   18b00:	48 89 c8             	mov    %rcx,%rax
   18b03:	48 c1 e0 02          	shl    $0x2,%rax
   18b07:	48 01 c8             	add    %rcx,%rax
   18b0a:	48 c1 e0 02          	shl    $0x2,%rax
   18b0e:	48 01 c8             	add    %rcx,%rax
   18b11:	48 c1 e0 03          	shl    $0x3,%rax
   18b15:	48 01 c2             	add    %rax,%rdx
   18b18:	48 8d 05 41 74 00 00 	lea    0x7441(%rip),%rax        # 1ff60 <g_1393>
   18b1f:	48 01 d0             	add    %rdx,%rax
   18b22:	0f b7 40 08          	movzwl 0x8(%rax),%eax
   18b26:	c1 e0 07             	shl    $0x7,%eax
   18b29:	66 c1 f8 07          	sar    $0x7,%ax
   18b2d:	48 0f bf c0          	movswq %ax,%rax
   18b31:	8b 55 fc             	mov    -0x4(%rbp),%edx
   18b34:	48 8d 35 72 34 00 00 	lea    0x3472(%rip),%rsi        # 1bfad <g_1821+0x1edd>
   18b3b:	48 89 c7             	mov    %rax,%rdi
   18b3e:	e8 b0 fb fe ff       	callq  86f3 <transparent_crc>
   18b43:	8b 45 f4             	mov    -0xc(%rbp),%eax
   18b46:	48 98                	cltq   
   18b48:	8b 55 f0             	mov    -0x10(%rbp),%edx
   18b4b:	48 63 ca             	movslq %edx,%rcx
   18b4e:	48 89 c2             	mov    %rax,%rdx
   18b51:	48 01 d2             	add    %rdx,%rdx
   18b54:	48 01 c2             	add    %rax,%rdx
   18b57:	48 8d 04 d5 00 00 00 	lea    0x0(,%rdx,8),%rax
   18b5e:	00 
   18b5f:	48 89 c2             	mov    %rax,%rdx
   18b62:	48 89 c8             	mov    %rcx,%rax
   18b65:	48 c1 e0 02          	shl    $0x2,%rax
   18b69:	48 01 c8             	add    %rcx,%rax
   18b6c:	48 c1 e0 02          	shl    $0x2,%rax
   18b70:	48 01 c8             	add    %rcx,%rax
   18b73:	48 c1 e0 03          	shl    $0x3,%rax
   18b77:	48 01 c2             	add    %rax,%rdx
   18b7a:	48 8d 05 eb 73 00 00 	lea    0x73eb(%rip),%rax        # 1ff6c <g_1393+0xc>
   18b81:	48 01 d0             	add    %rdx,%rax
   18b84:	0f b6 00             	movzbl (%rax),%eax
   18b87:	0f b6 c0             	movzbl %al,%eax
   18b8a:	8b 55 fc             	mov    -0x4(%rbp),%edx
   18b8d:	48 8d 35 29 34 00 00 	lea    0x3429(%rip),%rsi        # 1bfbd <g_1821+0x1eed>
   18b94:	48 89 c7             	mov    %rax,%rdi
   18b97:	e8 57 fb fe ff       	callq  86f3 <transparent_crc>
   18b9c:	8b 45 f4             	mov    -0xc(%rbp),%eax
   18b9f:	48 98                	cltq   
   18ba1:	8b 55 f0             	mov    -0x10(%rbp),%edx
   18ba4:	48 63 ca             	movslq %edx,%rcx
   18ba7:	48 89 c2             	mov    %rax,%rdx
   18baa:	48 01 d2             	add    %rdx,%rdx
   18bad:	48 01 c2             	add    %rax,%rdx
   18bb0:	48 8d 04 d5 00 00 00 	lea    0x0(,%rdx,8),%rax
   18bb7:	00 
   18bb8:	48 89 c2             	mov    %rax,%rdx
   18bbb:	48 89 c8             	mov    %rcx,%rax
   18bbe:	48 c1 e0 02          	shl    $0x2,%rax
   18bc2:	48 01 c8             	add    %rcx,%rax
   18bc5:	48 c1 e0 02          	shl    $0x2,%rax
   18bc9:	48 01 c8             	add    %rcx,%rax
   18bcc:	48 c1 e0 03          	shl    $0x3,%rax
   18bd0:	48 01 c2             	add    %rax,%rdx
   18bd3:	48 8d 05 86 73 00 00 	lea    0x7386(%rip),%rax        # 1ff60 <g_1393>
   18bda:	48 01 d0             	add    %rdx,%rax
   18bdd:	48 8b 40 08          	mov    0x8(%rax),%rax
   18be1:	48 c1 e0 16          	shl    $0x16,%rax
   18be5:	48 c1 f8 3e          	sar    $0x3e,%rax
   18be9:	48 0f be c0          	movsbq %al,%rax
   18bed:	8b 55 fc             	mov    -0x4(%rbp),%edx
   18bf0:	48 8d 35 d6 33 00 00 	lea    0x33d6(%rip),%rsi        # 1bfcd <g_1821+0x1efd>
   18bf7:	48 89 c7             	mov    %rax,%rdi
   18bfa:	e8 f4 fa fe ff       	callq  86f3 <transparent_crc>
   18bff:	8b 45 f4             	mov    -0xc(%rbp),%eax
   18c02:	48 98                	cltq   
   18c04:	8b 55 f0             	mov    -0x10(%rbp),%edx
   18c07:	48 63 ca             	movslq %edx,%rcx
   18c0a:	48 89 c2             	mov    %rax,%rdx
   18c0d:	48 01 d2             	add    %rdx,%rdx
   18c10:	48 01 c2             	add    %rax,%rdx
   18c13:	48 8d 04 d5 00 00 00 	lea    0x0(,%rdx,8),%rax
   18c1a:	00 
   18c1b:	48 89 c2             	mov    %rax,%rdx
   18c1e:	48 89 c8             	mov    %rcx,%rax
   18c21:	48 c1 e0 02          	shl    $0x2,%rax
   18c25:	48 01 c8             	add    %rcx,%rax
   18c28:	48 c1 e0 02          	shl    $0x2,%rax
   18c2c:	48 01 c8             	add    %rcx,%rax
   18c2f:	48 c1 e0 03          	shl    $0x3,%rax
   18c33:	48 01 c2             	add    %rax,%rdx
   18c36:	48 8d 05 23 73 00 00 	lea    0x7323(%rip),%rax        # 1ff60 <g_1393>
   18c3d:	48 01 d0             	add    %rdx,%rax
   18c40:	8b 40 0c             	mov    0xc(%rax),%eax
   18c43:	01 c0                	add    %eax,%eax
   18c45:	c1 f8 0b             	sar    $0xb,%eax
   18c48:	48 98                	cltq   
   18c4a:	8b 55 fc             	mov    -0x4(%rbp),%edx
   18c4d:	48 8d 35 89 33 00 00 	lea    0x3389(%rip),%rsi        # 1bfdd <g_1821+0x1f0d>
   18c54:	48 89 c7             	mov    %rax,%rdi
   18c57:	e8 97 fa fe ff       	callq  86f3 <transparent_crc>
   18c5c:	8b 45 f4             	mov    -0xc(%rbp),%eax
   18c5f:	48 98                	cltq   
   18c61:	8b 55 f0             	mov    -0x10(%rbp),%edx
   18c64:	48 63 ca             	movslq %edx,%rcx
   18c67:	48 89 c2             	mov    %rax,%rdx
   18c6a:	48 01 d2             	add    %rdx,%rdx
   18c6d:	48 01 c2             	add    %rax,%rdx
   18c70:	48 8d 04 d5 00 00 00 	lea    0x0(,%rdx,8),%rax
   18c77:	00 
   18c78:	48 89 c2             	mov    %rax,%rdx
   18c7b:	48 89 c8             	mov    %rcx,%rax
   18c7e:	48 c1 e0 02          	shl    $0x2,%rax
   18c82:	48 01 c8             	add    %rcx,%rax
   18c85:	48 c1 e0 02          	shl    $0x2,%rax
   18c89:	48 01 c8             	add    %rcx,%rax
   18c8c:	48 c1 e0 03          	shl    $0x3,%rax
   18c90:	48 01 c2             	add    %rax,%rdx
   18c93:	48 8d 05 d6 72 00 00 	lea    0x72d6(%rip),%rax        # 1ff70 <g_1393+0x10>
   18c9a:	48 01 d0             	add    %rdx,%rax
   18c9d:	48 8b 00             	mov    (%rax),%rax
   18ca0:	c1 e0 0b             	shl    $0xb,%eax
   18ca3:	c1 f8 0b             	sar    $0xb,%eax
   18ca6:	48 98                	cltq   
   18ca8:	8b 55 fc             	mov    -0x4(%rbp),%edx
   18cab:	48 8d 35 3b 33 00 00 	lea    0x333b(%rip),%rsi        # 1bfed <g_1821+0x1f1d>
   18cb2:	48 89 c7             	mov    %rax,%rdi
   18cb5:	e8 39 fa fe ff       	callq  86f3 <transparent_crc>
   18cba:	8b 45 f4             	mov    -0xc(%rbp),%eax
   18cbd:	48 98                	cltq   
   18cbf:	8b 55 f0             	mov    -0x10(%rbp),%edx
   18cc2:	48 63 ca             	movslq %edx,%rcx
   18cc5:	48 89 c2             	mov    %rax,%rdx
   18cc8:	48 01 d2             	add    %rdx,%rdx
   18ccb:	48 01 c2             	add    %rax,%rdx
   18cce:	48 8d 04 d5 00 00 00 	lea    0x0(,%rdx,8),%rax
   18cd5:	00 
   18cd6:	48 89 c2             	mov    %rax,%rdx
   18cd9:	48 89 c8             	mov    %rcx,%rax
   18cdc:	48 c1 e0 02          	shl    $0x2,%rax
   18ce0:	48 01 c8             	add    %rcx,%rax
   18ce3:	48 c1 e0 02          	shl    $0x2,%rax
   18ce7:	48 01 c8             	add    %rcx,%rax
   18cea:	48 c1 e0 03          	shl    $0x3,%rax
   18cee:	48 01 c2             	add    %rax,%rdx
   18cf1:	48 8d 05 78 72 00 00 	lea    0x7278(%rip),%rax        # 1ff70 <g_1393+0x10>
   18cf8:	48 01 d0             	add    %rdx,%rax
   18cfb:	8b 40 04             	mov    0x4(%rax),%eax
   18cfe:	c1 e0 0b             	shl    $0xb,%eax
   18d01:	c1 f8 0b             	sar    $0xb,%eax
   18d04:	48 98                	cltq   
   18d06:	8b 55 fc             	mov    -0x4(%rbp),%edx
   18d09:	48 8d 35 ed 32 00 00 	lea    0x32ed(%rip),%rsi        # 1bffd <g_1821+0x1f2d>
   18d10:	48 89 c7             	mov    %rax,%rdi
   18d13:	e8 db f9 fe ff       	callq  86f3 <transparent_crc>
   18d18:	83 7d fc 00          	cmpl   $0x0,-0x4(%rbp)
   18d1c:	74 19                	je     18d37 <main+0x2191>
   18d1e:	8b 55 f4             	mov    -0xc(%rbp),%edx
   18d21:	8b 45 f0             	mov    -0x10(%rbp),%eax
   18d24:	89 c6                	mov    %eax,%esi
   18d26:	48 8d 3d bf 2a 00 00 	lea    0x2abf(%rip),%rdi        # 1b7ec <g_1821+0x171c>
   18d2d:	b8 00 00 00 00       	mov    $0x0,%eax
   18d32:	e8 49 e3 fe ff       	callq  7080 <printf@plt>
   18d37:	83 45 f4 01          	addl   $0x1,-0xc(%rbp)
   18d3b:	83 7d f4 06          	cmpl   $0x6,-0xc(%rbp)
   18d3f:	0f 8e e7 fc ff ff    	jle    18a2c <main+0x1e86>
   18d45:	83 45 f0 01          	addl   $0x1,-0x10(%rbp)
   18d49:	83 7d f0 02          	cmpl   $0x2,-0x10(%rbp)
   18d4d:	0f 8e cd fc ff ff    	jle    18a20 <main+0x1e7a>
   18d53:	8b 05 ff 73 00 00    	mov    0x73ff(%rip),%eax        # 20158 <g_1401>
   18d59:	89 c1                	mov    %eax,%ecx
   18d5b:	8b 45 fc             	mov    -0x4(%rbp),%eax
   18d5e:	89 c2                	mov    %eax,%edx
   18d60:	48 8d 35 a6 32 00 00 	lea    0x32a6(%rip),%rsi        # 1c00d <g_1821+0x1f3d>
   18d67:	48 89 cf             	mov    %rcx,%rdi
   18d6a:	e8 84 f9 fe ff       	callq  86f3 <transparent_crc>
   18d6f:	8b 05 e3 73 00 00    	mov    0x73e3(%rip),%eax        # 20158 <g_1401>
   18d75:	89 c1                	mov    %eax,%ecx
   18d77:	8b 45 fc             	mov    -0x4(%rbp),%eax
   18d7a:	89 c2                	mov    %eax,%edx
   18d7c:	48 8d 35 94 32 00 00 	lea    0x3294(%rip),%rsi        # 1c017 <g_1821+0x1f47>
   18d83:	48 89 cf             	mov    %rcx,%rdi
   18d86:	e8 68 f9 fe ff       	callq  86f3 <transparent_crc>
   18d8b:	8b 05 df 12 00 00    	mov    0x12df(%rip),%eax        # 1a070 <g_1413>
   18d91:	48 98                	cltq   
   18d93:	8b 55 fc             	mov    -0x4(%rbp),%edx
   18d96:	48 8d 35 84 32 00 00 	lea    0x3284(%rip),%rsi        # 1c021 <g_1821+0x1f51>
   18d9d:	48 89 c7             	mov    %rax,%rdi
   18da0:	e8 4e f9 fe ff       	callq  86f3 <transparent_crc>
   18da5:	b8 07 00 00 00       	mov    $0x7,%eax
   18daa:	0f b7 c0             	movzwl %ax,%eax
   18dad:	8b 55 fc             	mov    -0x4(%rbp),%edx
   18db0:	48 8d 35 74 32 00 00 	lea    0x3274(%rip),%rsi        # 1c02b <g_1821+0x1f5b>
   18db7:	48 89 c7             	mov    %rax,%rdi
   18dba:	e8 34 f9 fe ff       	callq  86f3 <transparent_crc>
   18dbf:	b8 d0 e2 65 5e       	mov    $0x5e65e2d0,%eax
   18dc4:	48 98                	cltq   
   18dc6:	8b 55 fc             	mov    -0x4(%rbp),%edx
   18dc9:	48 8d 35 65 32 00 00 	lea    0x3265(%rip),%rsi        # 1c035 <g_1821+0x1f65>
   18dd0:	48 89 c7             	mov    %rax,%rdi
   18dd3:	e8 1b f9 fe ff       	callq  86f3 <transparent_crc>
   18dd8:	48 b9 21 84 57 b3 b3 	movabs $0x7444dab3b3578421,%rcx
   18ddf:	da 44 74 
   18de2:	8b 45 fc             	mov    -0x4(%rbp),%eax
   18de5:	89 c2                	mov    %eax,%edx
   18de7:	48 8d 35 51 32 00 00 	lea    0x3251(%rip),%rsi        # 1c03f <g_1821+0x1f6f>
   18dee:	48 89 cf             	mov    %rcx,%rdi
   18df1:	e8 fd f8 fe ff       	callq  86f3 <transparent_crc>
   18df6:	b8 01 00 00 00       	mov    $0x1,%eax
   18dfb:	89 c1                	mov    %eax,%ecx
   18dfd:	8b 45 fc             	mov    -0x4(%rbp),%eax
   18e00:	89 c2                	mov    %eax,%edx
   18e02:	48 8d 35 40 32 00 00 	lea    0x3240(%rip),%rsi        # 1c049 <g_1821+0x1f79>
   18e09:	48 89 cf             	mov    %rcx,%rdi
   18e0c:	e8 e2 f8 fe ff       	callq  86f3 <transparent_crc>
   18e11:	48 8b 05 6e 12 00 00 	mov    0x126e(%rip),%rax        # 1a086 <g_1413+0x16>
   18e18:	8b 55 fc             	mov    -0x4(%rbp),%edx
   18e1b:	48 8d 35 31 32 00 00 	lea    0x3231(%rip),%rsi        # 1c053 <g_1821+0x1f83>
   18e22:	48 89 c7             	mov    %rax,%rdi
   18e25:	e8 c9 f8 fe ff       	callq  86f3 <transparent_crc>
   18e2a:	0f b7 05 2b 73 00 00 	movzwl 0x732b(%rip),%eax        # 2015c <g_1447>
   18e31:	48 0f bf c0          	movswq %ax,%rax
   18e35:	8b 55 fc             	mov    -0x4(%rbp),%edx
   18e38:	48 8d 35 1e 32 00 00 	lea    0x321e(%rip),%rsi        # 1c05d <g_1821+0x1f8d>
   18e3f:	48 89 c7             	mov    %rax,%rdi
   18e42:	e8 ac f8 fe ff       	callq  86f3 <transparent_crc>
   18e47:	48 8b 05 12 73 00 00 	mov    0x7312(%rip),%rax        # 20160 <g_1455>
   18e4e:	c1 e0 08             	shl    $0x8,%eax
   18e51:	c1 f8 08             	sar    $0x8,%eax
   18e54:	48 98                	cltq   
   18e56:	8b 55 fc             	mov    -0x4(%rbp),%edx
   18e59:	48 8d 35 04 32 00 00 	lea    0x3204(%rip),%rsi        # 1c064 <g_1821+0x1f94>
   18e60:	48 89 c7             	mov    %rax,%rdi
   18e63:	e8 8b f8 fe ff       	callq  86f3 <transparent_crc>
   18e68:	8b 05 f6 72 00 00    	mov    0x72f6(%rip),%eax        # 20164 <g_1455+0x4>
   18e6e:	48 98                	cltq   
   18e70:	8b 55 fc             	mov    -0x4(%rbp),%edx
   18e73:	48 8d 35 f4 31 00 00 	lea    0x31f4(%rip),%rsi        # 1c06e <g_1821+0x1f9e>
   18e7a:	48 89 c7             	mov    %rax,%rdi
   18e7d:	e8 71 f8 fe ff       	callq  86f3 <transparent_crc>
   18e82:	0f b7 05 df 72 00 00 	movzwl 0x72df(%rip),%eax        # 20168 <g_1455+0x8>
   18e89:	c1 e0 07             	shl    $0x7,%eax
   18e8c:	66 c1 f8 07          	sar    $0x7,%ax
   18e90:	48 0f bf c0          	movswq %ax,%rax
   18e94:	8b 55 fc             	mov    -0x4(%rbp),%edx
   18e97:	48 8d 35 da 31 00 00 	lea    0x31da(%rip),%rsi        # 1c078 <g_1821+0x1fa8>
   18e9e:	48 89 c7             	mov    %rax,%rdi
   18ea1:	e8 4d f8 fe ff       	callq  86f3 <transparent_crc>
   18ea6:	0f b6 05 bf 72 00 00 	movzbl 0x72bf(%rip),%eax        # 2016c <g_1455+0xc>
   18ead:	0f b6 c0             	movzbl %al,%eax
   18eb0:	8b 55 fc             	mov    -0x4(%rbp),%edx
   18eb3:	48 8d 35 c8 31 00 00 	lea    0x31c8(%rip),%rsi        # 1c082 <g_1821+0x1fb2>
   18eba:	48 89 c7             	mov    %rax,%rdi
   18ebd:	e8 31 f8 fe ff       	callq  86f3 <transparent_crc>
   18ec2:	48 8b 05 9f 72 00 00 	mov    0x729f(%rip),%rax        # 20168 <g_1455+0x8>
   18ec9:	48 c1 e0 16          	shl    $0x16,%rax
   18ecd:	48 c1 f8 3e          	sar    $0x3e,%rax
   18ed1:	48 0f be c0          	movsbq %al,%rax
   18ed5:	8b 55 fc             	mov    -0x4(%rbp),%edx
   18ed8:	48 8d 35 ad 31 00 00 	lea    0x31ad(%rip),%rsi        # 1c08c <g_1821+0x1fbc>
   18edf:	48 89 c7             	mov    %rax,%rdi
   18ee2:	e8 0c f8 fe ff       	callq  86f3 <transparent_crc>
   18ee7:	8b 05 7f 72 00 00    	mov    0x727f(%rip),%eax        # 2016c <g_1455+0xc>
   18eed:	01 c0                	add    %eax,%eax
   18eef:	c1 f8 0b             	sar    $0xb,%eax
   18ef2:	48 98                	cltq   
   18ef4:	8b 55 fc             	mov    -0x4(%rbp),%edx
   18ef7:	48 8d 35 98 31 00 00 	lea    0x3198(%rip),%rsi        # 1c096 <g_1821+0x1fc6>
   18efe:	48 89 c7             	mov    %rax,%rdi
   18f01:	e8 ed f7 fe ff       	callq  86f3 <transparent_crc>
   18f06:	48 8b 05 63 72 00 00 	mov    0x7263(%rip),%rax        # 20170 <g_1455+0x10>
   18f0d:	c1 e0 0b             	shl    $0xb,%eax
   18f10:	c1 f8 0b             	sar    $0xb,%eax
   18f13:	48 98                	cltq   
   18f15:	8b 55 fc             	mov    -0x4(%rbp),%edx
   18f18:	48 8d 35 81 31 00 00 	lea    0x3181(%rip),%rsi        # 1c0a0 <g_1821+0x1fd0>
   18f1f:	48 89 c7             	mov    %rax,%rdi
   18f22:	e8 cc f7 fe ff       	callq  86f3 <transparent_crc>
   18f27:	8b 05 47 72 00 00    	mov    0x7247(%rip),%eax        # 20174 <g_1455+0x14>
   18f2d:	c1 e0 0b             	shl    $0xb,%eax
   18f30:	c1 f8 0b             	sar    $0xb,%eax
   18f33:	48 98                	cltq   
   18f35:	8b 55 fc             	mov    -0x4(%rbp),%edx
   18f38:	48 8d 35 6b 31 00 00 	lea    0x316b(%rip),%rsi        # 1c0aa <g_1821+0x1fda>
   18f3f:	48 89 c7             	mov    %rax,%rdi
   18f42:	e8 ac f7 fe ff       	callq  86f3 <transparent_crc>
   18f47:	8b 05 33 72 00 00    	mov    0x7233(%rip),%eax        # 20180 <g_1456>
   18f4d:	48 98                	cltq   
   18f4f:	8b 55 fc             	mov    -0x4(%rbp),%edx
   18f52:	48 8d 35 5b 31 00 00 	lea    0x315b(%rip),%rsi        # 1c0b4 <g_1821+0x1fe4>
   18f59:	48 89 c7             	mov    %rax,%rdi
   18f5c:	e8 92 f7 fe ff       	callq  86f3 <transparent_crc>
   18f61:	48 8b 05 18 72 00 00 	mov    0x7218(%rip),%rax        # 20180 <g_1456>
   18f68:	48 c1 e8 20          	shr    $0x20,%rax
   18f6c:	66 25 ff 01          	and    $0x1ff,%ax
   18f70:	0f b7 c0             	movzwl %ax,%eax
   18f73:	8b 55 fc             	mov    -0x4(%rbp),%edx
   18f76:	48 8d 35 41 31 00 00 	lea    0x3141(%rip),%rsi        # 1c0be <g_1821+0x1fee>
   18f7d:	48 89 c7             	mov    %rax,%rdi
   18f80:	e8 6e f7 fe ff       	callq  86f3 <transparent_crc>
   18f85:	8b 05 fb 71 00 00    	mov    0x71fb(%rip),%eax        # 20186 <g_1456+0x6>
   18f8b:	48 98                	cltq   
   18f8d:	8b 55 fc             	mov    -0x4(%rbp),%edx
   18f90:	48 8d 35 31 31 00 00 	lea    0x3131(%rip),%rsi        # 1c0c8 <g_1821+0x1ff8>
   18f97:	48 89 c7             	mov    %rax,%rdi
   18f9a:	e8 54 f7 fe ff       	callq  86f3 <transparent_crc>
   18f9f:	48 8b 05 e4 71 00 00 	mov    0x71e4(%rip),%rax        # 2018a <g_1456+0xa>
   18fa6:	8b 55 fc             	mov    -0x4(%rbp),%edx
   18fa9:	48 8d 35 22 31 00 00 	lea    0x3122(%rip),%rsi        # 1c0d2 <g_1821+0x2002>
   18fb0:	48 89 c7             	mov    %rax,%rdi
   18fb3:	e8 3b f7 fe ff       	callq  86f3 <transparent_crc>
   18fb8:	8b 05 d4 71 00 00    	mov    0x71d4(%rip),%eax        # 20192 <g_1456+0x12>
   18fbe:	89 c1                	mov    %eax,%ecx
   18fc0:	8b 45 fc             	mov    -0x4(%rbp),%eax
   18fc3:	89 c2                	mov    %eax,%edx
   18fc5:	48 8d 35 10 31 00 00 	lea    0x3110(%rip),%rsi        # 1c0dc <g_1821+0x200c>
   18fcc:	48 89 cf             	mov    %rcx,%rdi
   18fcf:	e8 1f f7 fe ff       	callq  86f3 <transparent_crc>
   18fd4:	48 8b 05 bb 71 00 00 	mov    0x71bb(%rip),%rax        # 20196 <g_1456+0x16>
   18fdb:	8b 55 fc             	mov    -0x4(%rbp),%edx
   18fde:	48 8d 35 01 31 00 00 	lea    0x3101(%rip),%rsi        # 1c0e6 <g_1821+0x2016>
   18fe5:	48 89 c7             	mov    %rax,%rdi
   18fe8:	e8 06 f7 fe ff       	callq  86f3 <transparent_crc>
   18fed:	48 8b 05 a4 b8 00 00 	mov    0xb8a4(%rip),%rax        # 24898 <g_1490>
   18ff4:	48 89 c1             	mov    %rax,%rcx
   18ff7:	8b 45 fc             	mov    -0x4(%rbp),%eax
   18ffa:	89 c2                	mov    %eax,%edx
   18ffc:	48 8d 35 ed 30 00 00 	lea    0x30ed(%rip),%rsi        # 1c0f0 <g_1821+0x2020>
   19003:	48 89 cf             	mov    %rcx,%rdi
   19006:	e8 e8 f6 fe ff       	callq  86f3 <transparent_crc>
   1900b:	48 8b 05 8e 71 00 00 	mov    0x718e(%rip),%rax        # 201a0 <g_1502>
   19012:	c1 e0 08             	shl    $0x8,%eax
   19015:	c1 f8 08             	sar    $0x8,%eax
   19018:	48 98                	cltq   
   1901a:	8b 55 fc             	mov    -0x4(%rbp),%edx
   1901d:	48 8d 35 d3 30 00 00 	lea    0x30d3(%rip),%rsi        # 1c0f7 <g_1821+0x2027>
   19024:	48 89 c7             	mov    %rax,%rdi
   19027:	e8 c7 f6 fe ff       	callq  86f3 <transparent_crc>
   1902c:	8b 05 72 71 00 00    	mov    0x7172(%rip),%eax        # 201a4 <g_1502+0x4>
   19032:	48 98                	cltq   
   19034:	8b 55 fc             	mov    -0x4(%rbp),%edx
   19037:	48 8d 35 c3 30 00 00 	lea    0x30c3(%rip),%rsi        # 1c101 <g_1821+0x2031>
   1903e:	48 89 c7             	mov    %rax,%rdi
   19041:	e8 ad f6 fe ff       	callq  86f3 <transparent_crc>
   19046:	0f b7 05 5b 71 00 00 	movzwl 0x715b(%rip),%eax        # 201a8 <g_1502+0x8>
   1904d:	c1 e0 07             	shl    $0x7,%eax
   19050:	66 c1 f8 07          	sar    $0x7,%ax
   19054:	48 0f bf c0          	movswq %ax,%rax
   19058:	8b 55 fc             	mov    -0x4(%rbp),%edx
   1905b:	48 8d 35 a9 30 00 00 	lea    0x30a9(%rip),%rsi        # 1c10b <g_1821+0x203b>
   19062:	48 89 c7             	mov    %rax,%rdi
   19065:	e8 89 f6 fe ff       	callq  86f3 <transparent_crc>
   1906a:	0f b6 05 3b 71 00 00 	movzbl 0x713b(%rip),%eax        # 201ac <g_1502+0xc>
   19071:	0f b6 c0             	movzbl %al,%eax
   19074:	8b 55 fc             	mov    -0x4(%rbp),%edx
   19077:	48 8d 35 97 30 00 00 	lea    0x3097(%rip),%rsi        # 1c115 <g_1821+0x2045>
   1907e:	48 89 c7             	mov    %rax,%rdi
   19081:	e8 6d f6 fe ff       	callq  86f3 <transparent_crc>
   19086:	48 8b 05 1b 71 00 00 	mov    0x711b(%rip),%rax        # 201a8 <g_1502+0x8>
   1908d:	48 c1 e0 16          	shl    $0x16,%rax
   19091:	48 c1 f8 3e          	sar    $0x3e,%rax
   19095:	48 0f be c0          	movsbq %al,%rax
   19099:	8b 55 fc             	mov    -0x4(%rbp),%edx
   1909c:	48 8d 35 7c 30 00 00 	lea    0x307c(%rip),%rsi        # 1c11f <g_1821+0x204f>
   190a3:	48 89 c7             	mov    %rax,%rdi
   190a6:	e8 48 f6 fe ff       	callq  86f3 <transparent_crc>
   190ab:	8b 05 fb 70 00 00    	mov    0x70fb(%rip),%eax        # 201ac <g_1502+0xc>
   190b1:	01 c0                	add    %eax,%eax
   190b3:	c1 f8 0b             	sar    $0xb,%eax
   190b6:	48 98                	cltq   
   190b8:	8b 55 fc             	mov    -0x4(%rbp),%edx
   190bb:	48 8d 35 67 30 00 00 	lea    0x3067(%rip),%rsi        # 1c129 <g_1821+0x2059>
   190c2:	48 89 c7             	mov    %rax,%rdi
   190c5:	e8 29 f6 fe ff       	callq  86f3 <transparent_crc>
   190ca:	48 8b 05 df 70 00 00 	mov    0x70df(%rip),%rax        # 201b0 <g_1502+0x10>
   190d1:	c1 e0 0b             	shl    $0xb,%eax
   190d4:	c1 f8 0b             	sar    $0xb,%eax
   190d7:	48 98                	cltq   
   190d9:	8b 55 fc             	mov    -0x4(%rbp),%edx
   190dc:	48 8d 35 50 30 00 00 	lea    0x3050(%rip),%rsi        # 1c133 <g_1821+0x2063>
   190e3:	48 89 c7             	mov    %rax,%rdi
   190e6:	e8 08 f6 fe ff       	callq  86f3 <transparent_crc>
   190eb:	8b 05 c3 70 00 00    	mov    0x70c3(%rip),%eax        # 201b4 <g_1502+0x14>
   190f1:	c1 e0 0b             	shl    $0xb,%eax
   190f4:	c1 f8 0b             	sar    $0xb,%eax
   190f7:	48 98                	cltq   
   190f9:	8b 55 fc             	mov    -0x4(%rbp),%edx
   190fc:	48 8d 35 3a 30 00 00 	lea    0x303a(%rip),%rsi        # 1c13d <g_1821+0x206d>
   19103:	48 89 c7             	mov    %rax,%rdi
   19106:	e8 e8 f5 fe ff       	callq  86f3 <transparent_crc>
   1910b:	48 8b 05 ae 70 00 00 	mov    0x70ae(%rip),%rax        # 201c0 <g_1513>
   19112:	c1 e0 08             	shl    $0x8,%eax
   19115:	c1 f8 08             	sar    $0x8,%eax
   19118:	48 98                	cltq   
   1911a:	8b 55 fc             	mov    -0x4(%rbp),%edx
   1911d:	48 8d 35 23 30 00 00 	lea    0x3023(%rip),%rsi        # 1c147 <g_1821+0x2077>
   19124:	48 89 c7             	mov    %rax,%rdi
   19127:	e8 c7 f5 fe ff       	callq  86f3 <transparent_crc>
   1912c:	8b 05 92 70 00 00    	mov    0x7092(%rip),%eax        # 201c4 <g_1513+0x4>
   19132:	48 98                	cltq   
   19134:	8b 55 fc             	mov    -0x4(%rbp),%edx
   19137:	48 8d 35 13 30 00 00 	lea    0x3013(%rip),%rsi        # 1c151 <g_1821+0x2081>
   1913e:	48 89 c7             	mov    %rax,%rdi
   19141:	e8 ad f5 fe ff       	callq  86f3 <transparent_crc>
   19146:	48 8b 05 7b 70 00 00 	mov    0x707b(%rip),%rax        # 201c8 <g_1513+0x8>
   1914d:	c1 e0 07             	shl    $0x7,%eax
   19150:	66 c1 f8 07          	sar    $0x7,%ax
   19154:	48 0f bf c0          	movswq %ax,%rax
   19158:	8b 55 fc             	mov    -0x4(%rbp),%edx
   1915b:	48 8d 35 f9 2f 00 00 	lea    0x2ff9(%rip),%rsi        # 1c15b <g_1821+0x208b>
   19162:	48 89 c7             	mov    %rax,%rdi
   19165:	e8 89 f5 fe ff       	callq  86f3 <transparent_crc>
   1916a:	0f b6 05 5b 70 00 00 	movzbl 0x705b(%rip),%eax        # 201cc <g_1513+0xc>
   19171:	0f b6 c0             	movzbl %al,%eax
   19174:	8b 55 fc             	mov    -0x4(%rbp),%edx
   19177:	48 8d 35 e7 2f 00 00 	lea    0x2fe7(%rip),%rsi        # 1c165 <g_1821+0x2095>
   1917e:	48 89 c7             	mov    %rax,%rdi
   19181:	e8 6d f5 fe ff       	callq  86f3 <transparent_crc>
   19186:	48 8b 05 3b 70 00 00 	mov    0x703b(%rip),%rax        # 201c8 <g_1513+0x8>
   1918d:	48 c1 e0 16          	shl    $0x16,%rax
   19191:	48 c1 f8 3e          	sar    $0x3e,%rax
   19195:	48 0f be c0          	movsbq %al,%rax
   19199:	8b 55 fc             	mov    -0x4(%rbp),%edx
   1919c:	48 8d 35 cc 2f 00 00 	lea    0x2fcc(%rip),%rsi        # 1c16f <g_1821+0x209f>
   191a3:	48 89 c7             	mov    %rax,%rdi
   191a6:	e8 48 f5 fe ff       	callq  86f3 <transparent_crc>
   191ab:	48 8b 05 16 70 00 00 	mov    0x7016(%rip),%rax        # 201c8 <g_1513+0x8>
   191b2:	48 01 c0             	add    %rax,%rax
   191b5:	48 c1 f8 2b          	sar    $0x2b,%rax
   191b9:	48 98                	cltq   
   191bb:	8b 55 fc             	mov    -0x4(%rbp),%edx
   191be:	48 8d 35 b4 2f 00 00 	lea    0x2fb4(%rip),%rsi        # 1c179 <g_1821+0x20a9>
   191c5:	48 89 c7             	mov    %rax,%rdi
   191c8:	e8 26 f5 fe ff       	callq  86f3 <transparent_crc>
   191cd:	48 8b 05 fc 6f 00 00 	mov    0x6ffc(%rip),%rax        # 201d0 <g_1513+0x10>
   191d4:	c1 e0 0b             	shl    $0xb,%eax
   191d7:	c1 f8 0b             	sar    $0xb,%eax
   191da:	48 98                	cltq   
   191dc:	8b 55 fc             	mov    -0x4(%rbp),%edx
   191df:	48 8d 35 9d 2f 00 00 	lea    0x2f9d(%rip),%rsi        # 1c183 <g_1821+0x20b3>
   191e6:	48 89 c7             	mov    %rax,%rdi
   191e9:	e8 05 f5 fe ff       	callq  86f3 <transparent_crc>
   191ee:	48 8b 05 db 6f 00 00 	mov    0x6fdb(%rip),%rax        # 201d0 <g_1513+0x10>
   191f5:	48 c1 e0 0b          	shl    $0xb,%rax
   191f9:	48 c1 f8 2b          	sar    $0x2b,%rax
   191fd:	48 98                	cltq   
   191ff:	8b 55 fc             	mov    -0x4(%rbp),%edx
   19202:	48 8d 35 84 2f 00 00 	lea    0x2f84(%rip),%rsi        # 1c18d <g_1821+0x20bd>
   19209:	48 89 c7             	mov    %rax,%rdi
   1920c:	e8 e2 f4 fe ff       	callq  86f3 <transparent_crc>
   19211:	8b 05 c1 6f 00 00    	mov    0x6fc1(%rip),%eax        # 201d8 <g_1514>
   19217:	89 c1                	mov    %eax,%ecx
   19219:	8b 45 fc             	mov    -0x4(%rbp),%eax
   1921c:	89 c2                	mov    %eax,%edx
   1921e:	48 8d 35 72 2f 00 00 	lea    0x2f72(%rip),%rsi        # 1c197 <g_1821+0x20c7>
   19225:	48 89 cf             	mov    %rcx,%rdi
   19228:	e8 c6 f4 fe ff       	callq  86f3 <transparent_crc>
   1922d:	8b 05 a5 6f 00 00    	mov    0x6fa5(%rip),%eax        # 201d8 <g_1514>
   19233:	89 c1                	mov    %eax,%ecx
   19235:	8b 45 fc             	mov    -0x4(%rbp),%eax
   19238:	89 c2                	mov    %eax,%edx
   1923a:	48 8d 35 60 2f 00 00 	lea    0x2f60(%rip),%rsi        # 1c1a1 <g_1821+0x20d1>
   19241:	48 89 cf             	mov    %rcx,%rdi
   19244:	e8 aa f4 fe ff       	callq  86f3 <transparent_crc>
   19249:	8b 05 91 6f 00 00    	mov    0x6f91(%rip),%eax        # 201e0 <g_1525>
   1924f:	48 98                	cltq   
   19251:	8b 55 fc             	mov    -0x4(%rbp),%edx
   19254:	48 8d 35 50 2f 00 00 	lea    0x2f50(%rip),%rsi        # 1c1ab <g_1821+0x20db>
   1925b:	48 89 c7             	mov    %rax,%rdi
   1925e:	e8 90 f4 fe ff       	callq  86f3 <transparent_crc>
   19263:	0f b7 05 7a 6f 00 00 	movzwl 0x6f7a(%rip),%eax        # 201e4 <g_1525+0x4>
   1926a:	66 25 ff 01          	and    $0x1ff,%ax
   1926e:	0f b7 c0             	movzwl %ax,%eax
   19271:	8b 55 fc             	mov    -0x4(%rbp),%edx
   19274:	48 8d 35 3a 2f 00 00 	lea    0x2f3a(%rip),%rsi        # 1c1b5 <g_1821+0x20e5>
   1927b:	48 89 c7             	mov    %rax,%rdi
   1927e:	e8 70 f4 fe ff       	callq  86f3 <transparent_crc>
   19283:	8b 05 5d 6f 00 00    	mov    0x6f5d(%rip),%eax        # 201e6 <g_1525+0x6>
   19289:	48 98                	cltq   
   1928b:	8b 55 fc             	mov    -0x4(%rbp),%edx
   1928e:	48 8d 35 2a 2f 00 00 	lea    0x2f2a(%rip),%rsi        # 1c1bf <g_1821+0x20ef>
   19295:	48 89 c7             	mov    %rax,%rdi
   19298:	e8 56 f4 fe ff       	callq  86f3 <transparent_crc>
   1929d:	48 8b 05 46 6f 00 00 	mov    0x6f46(%rip),%rax        # 201ea <g_1525+0xa>
   192a4:	8b 55 fc             	mov    -0x4(%rbp),%edx
   192a7:	48 8d 35 1b 2f 00 00 	lea    0x2f1b(%rip),%rsi        # 1c1c9 <g_1821+0x20f9>
   192ae:	48 89 c7             	mov    %rax,%rdi
   192b1:	e8 3d f4 fe ff       	callq  86f3 <transparent_crc>
   192b6:	8b 05 36 6f 00 00    	mov    0x6f36(%rip),%eax        # 201f2 <g_1525+0x12>
   192bc:	89 c1                	mov    %eax,%ecx
   192be:	8b 45 fc             	mov    -0x4(%rbp),%eax
   192c1:	89 c2                	mov    %eax,%edx
   192c3:	48 8d 35 09 2f 00 00 	lea    0x2f09(%rip),%rsi        # 1c1d3 <g_1821+0x2103>
   192ca:	48 89 cf             	mov    %rcx,%rdi
   192cd:	e8 21 f4 fe ff       	callq  86f3 <transparent_crc>
   192d2:	48 8b 05 1d 6f 00 00 	mov    0x6f1d(%rip),%rax        # 201f6 <g_1525+0x16>
   192d9:	8b 55 fc             	mov    -0x4(%rbp),%edx
   192dc:	48 8d 35 fa 2e 00 00 	lea    0x2efa(%rip),%rsi        # 1c1dd <g_1821+0x210d>
   192e3:	48 89 c7             	mov    %rax,%rdi
   192e6:	e8 08 f4 fe ff       	callq  86f3 <transparent_crc>
   192eb:	8b 05 0f 6f 00 00    	mov    0x6f0f(%rip),%eax        # 20200 <g_1526>
   192f1:	48 98                	cltq   
   192f3:	8b 55 fc             	mov    -0x4(%rbp),%edx
   192f6:	48 8d 35 ea 2e 00 00 	lea    0x2eea(%rip),%rsi        # 1c1e7 <g_1821+0x2117>
   192fd:	48 89 c7             	mov    %rax,%rdi
   19300:	e8 ee f3 fe ff       	callq  86f3 <transparent_crc>
   19305:	0f b7 05 f8 6e 00 00 	movzwl 0x6ef8(%rip),%eax        # 20204 <g_1526+0x4>
   1930c:	66 25 ff 01          	and    $0x1ff,%ax
   19310:	0f b7 c0             	movzwl %ax,%eax
   19313:	8b 55 fc             	mov    -0x4(%rbp),%edx
   19316:	48 8d 35 d4 2e 00 00 	lea    0x2ed4(%rip),%rsi        # 1c1f1 <g_1821+0x2121>
   1931d:	48 89 c7             	mov    %rax,%rdi
   19320:	e8 ce f3 fe ff       	callq  86f3 <transparent_crc>
   19325:	8b 05 db 6e 00 00    	mov    0x6edb(%rip),%eax        # 20206 <g_1526+0x6>
   1932b:	48 98                	cltq   
   1932d:	8b 55 fc             	mov    -0x4(%rbp),%edx
   19330:	48 8d 35 c4 2e 00 00 	lea    0x2ec4(%rip),%rsi        # 1c1fb <g_1821+0x212b>
   19337:	48 89 c7             	mov    %rax,%rdi
   1933a:	e8 b4 f3 fe ff       	callq  86f3 <transparent_crc>
   1933f:	48 8b 05 c4 6e 00 00 	mov    0x6ec4(%rip),%rax        # 2020a <g_1526+0xa>
   19346:	8b 55 fc             	mov    -0x4(%rbp),%edx
   19349:	48 8d 35 b5 2e 00 00 	lea    0x2eb5(%rip),%rsi        # 1c205 <g_1821+0x2135>
   19350:	48 89 c7             	mov    %rax,%rdi
   19353:	e8 9b f3 fe ff       	callq  86f3 <transparent_crc>
   19358:	8b 05 b4 6e 00 00    	mov    0x6eb4(%rip),%eax        # 20212 <g_1526+0x12>
   1935e:	89 c1                	mov    %eax,%ecx
   19360:	8b 45 fc             	mov    -0x4(%rbp),%eax
   19363:	89 c2                	mov    %eax,%edx
   19365:	48 8d 35 a3 2e 00 00 	lea    0x2ea3(%rip),%rsi        # 1c20f <g_1821+0x213f>
   1936c:	48 89 cf             	mov    %rcx,%rdi
   1936f:	e8 7f f3 fe ff       	callq  86f3 <transparent_crc>
   19374:	48 8b 05 9b 6e 00 00 	mov    0x6e9b(%rip),%rax        # 20216 <g_1526+0x16>
   1937b:	8b 55 fc             	mov    -0x4(%rbp),%edx
   1937e:	48 8d 35 94 2e 00 00 	lea    0x2e94(%rip),%rsi        # 1c219 <g_1821+0x2149>
   19385:	48 89 c7             	mov    %rax,%rdi
   19388:	e8 66 f3 fe ff       	callq  86f3 <transparent_crc>
   1938d:	8b 05 0d b5 00 00    	mov    0xb50d(%rip),%eax        # 248a0 <g_1599>
   19393:	89 c1                	mov    %eax,%ecx
   19395:	8b 45 fc             	mov    -0x4(%rbp),%eax
   19398:	89 c2                	mov    %eax,%edx
   1939a:	48 8d 35 82 2e 00 00 	lea    0x2e82(%rip),%rsi        # 1c223 <g_1821+0x2153>
   193a1:	48 89 cf             	mov    %rcx,%rdi
   193a4:	e8 4a f3 fe ff       	callq  86f3 <transparent_crc>
   193a9:	8b 05 f1 b4 00 00    	mov    0xb4f1(%rip),%eax        # 248a0 <g_1599>
   193af:	89 c1                	mov    %eax,%ecx
   193b1:	8b 45 fc             	mov    -0x4(%rbp),%eax
   193b4:	89 c2                	mov    %eax,%edx
   193b6:	48 8d 35 70 2e 00 00 	lea    0x2e70(%rip),%rsi        # 1c22d <g_1821+0x215d>
   193bd:	48 89 cf             	mov    %rcx,%rdi
   193c0:	e8 2e f3 fe ff       	callq  86f3 <transparent_crc>
   193c5:	48 8b 05 54 6e 00 00 	mov    0x6e54(%rip),%rax        # 20220 <g_1608>
   193cc:	c1 e0 08             	shl    $0x8,%eax
   193cf:	c1 f8 08             	sar    $0x8,%eax
   193d2:	48 98                	cltq   
   193d4:	8b 55 fc             	mov    -0x4(%rbp),%edx
   193d7:	48 8d 35 59 2e 00 00 	lea    0x2e59(%rip),%rsi        # 1c237 <g_1821+0x2167>
   193de:	48 89 c7             	mov    %rax,%rdi
   193e1:	e8 0d f3 fe ff       	callq  86f3 <transparent_crc>
   193e6:	8b 05 38 6e 00 00    	mov    0x6e38(%rip),%eax        # 20224 <g_1608+0x4>
   193ec:	48 98                	cltq   
   193ee:	8b 55 fc             	mov    -0x4(%rbp),%edx
   193f1:	48 8d 35 49 2e 00 00 	lea    0x2e49(%rip),%rsi        # 1c241 <g_1821+0x2171>
   193f8:	48 89 c7             	mov    %rax,%rdi
   193fb:	e8 f3 f2 fe ff       	callq  86f3 <transparent_crc>
   19400:	0f b7 05 21 6e 00 00 	movzwl 0x6e21(%rip),%eax        # 20228 <g_1608+0x8>
   19407:	c1 e0 07             	shl    $0x7,%eax
   1940a:	66 c1 f8 07          	sar    $0x7,%ax
   1940e:	48 0f bf c0          	movswq %ax,%rax
   19412:	8b 55 fc             	mov    -0x4(%rbp),%edx
   19415:	48 8d 35 2f 2e 00 00 	lea    0x2e2f(%rip),%rsi        # 1c24b <g_1821+0x217b>
   1941c:	48 89 c7             	mov    %rax,%rdi
   1941f:	e8 cf f2 fe ff       	callq  86f3 <transparent_crc>
   19424:	0f b6 05 01 6e 00 00 	movzbl 0x6e01(%rip),%eax        # 2022c <g_1608+0xc>
   1942b:	0f b6 c0             	movzbl %al,%eax
   1942e:	8b 55 fc             	mov    -0x4(%rbp),%edx
   19431:	48 8d 35 1d 2e 00 00 	lea    0x2e1d(%rip),%rsi        # 1c255 <g_1821+0x2185>
   19438:	48 89 c7             	mov    %rax,%rdi
   1943b:	e8 b3 f2 fe ff       	callq  86f3 <transparent_crc>
   19440:	48 8b 05 e1 6d 00 00 	mov    0x6de1(%rip),%rax        # 20228 <g_1608+0x8>
   19447:	48 c1 e0 16          	shl    $0x16,%rax
   1944b:	48 c1 f8 3e          	sar    $0x3e,%rax
   1944f:	48 0f be c0          	movsbq %al,%rax
   19453:	8b 55 fc             	mov    -0x4(%rbp),%edx
   19456:	48 8d 35 02 2e 00 00 	lea    0x2e02(%rip),%rsi        # 1c25f <g_1821+0x218f>
   1945d:	48 89 c7             	mov    %rax,%rdi
   19460:	e8 8e f2 fe ff       	callq  86f3 <transparent_crc>
   19465:	8b 05 c1 6d 00 00    	mov    0x6dc1(%rip),%eax        # 2022c <g_1608+0xc>
   1946b:	01 c0                	add    %eax,%eax
   1946d:	c1 f8 0b             	sar    $0xb,%eax
   19470:	48 98                	cltq   
   19472:	8b 55 fc             	mov    -0x4(%rbp),%edx
   19475:	48 8d 35 ed 2d 00 00 	lea    0x2ded(%rip),%rsi        # 1c269 <g_1821+0x2199>
   1947c:	48 89 c7             	mov    %rax,%rdi
   1947f:	e8 6f f2 fe ff       	callq  86f3 <transparent_crc>
   19484:	48 8b 05 a5 6d 00 00 	mov    0x6da5(%rip),%rax        # 20230 <g_1608+0x10>
   1948b:	c1 e0 0b             	shl    $0xb,%eax
   1948e:	c1 f8 0b             	sar    $0xb,%eax
   19491:	48 98                	cltq   
   19493:	8b 55 fc             	mov    -0x4(%rbp),%edx
   19496:	48 8d 35 d6 2d 00 00 	lea    0x2dd6(%rip),%rsi        # 1c273 <g_1821+0x21a3>
   1949d:	48 89 c7             	mov    %rax,%rdi
   194a0:	e8 4e f2 fe ff       	callq  86f3 <transparent_crc>
   194a5:	8b 05 89 6d 00 00    	mov    0x6d89(%rip),%eax        # 20234 <g_1608+0x14>
   194ab:	c1 e0 0b             	shl    $0xb,%eax
   194ae:	c1 f8 0b             	sar    $0xb,%eax
   194b1:	48 98                	cltq   
   194b3:	8b 55 fc             	mov    -0x4(%rbp),%edx
   194b6:	48 8d 35 c0 2d 00 00 	lea    0x2dc0(%rip),%rsi        # 1c27d <g_1821+0x21ad>
   194bd:	48 89 c7             	mov    %rax,%rdi
   194c0:	e8 2e f2 fe ff       	callq  86f3 <transparent_crc>
   194c5:	0f b7 05 6c 6d 00 00 	movzwl 0x6d6c(%rip),%eax        # 20238 <g_1613>
   194cc:	66 25 ff 0f          	and    $0xfff,%ax
   194d0:	0f b7 c0             	movzwl %ax,%eax
   194d3:	8b 55 fc             	mov    -0x4(%rbp),%edx
   194d6:	48 8d 35 aa 2d 00 00 	lea    0x2daa(%rip),%rsi        # 1c287 <g_1821+0x21b7>
   194dd:	48 89 c7             	mov    %rax,%rdi
   194e0:	e8 0e f2 fe ff       	callq  86f3 <transparent_crc>
   194e5:	8b 05 51 6d 00 00    	mov    0x6d51(%rip),%eax        # 2023c <g_1614>
   194eb:	48 98                	cltq   
   194ed:	8b 55 fc             	mov    -0x4(%rbp),%edx
   194f0:	48 8d 35 9a 2d 00 00 	lea    0x2d9a(%rip),%rsi        # 1c291 <g_1821+0x21c1>
   194f7:	48 89 c7             	mov    %rax,%rdi
   194fa:	e8 f4 f1 fe ff       	callq  86f3 <transparent_crc>
   194ff:	8b 05 3b 6d 00 00    	mov    0x6d3b(%rip),%eax        # 20240 <g_1655>
   19505:	48 98                	cltq   
   19507:	8b 55 fc             	mov    -0x4(%rbp),%edx
   1950a:	48 8d 35 87 2d 00 00 	lea    0x2d87(%rip),%rsi        # 1c298 <g_1821+0x21c8>
   19511:	48 89 c7             	mov    %rax,%rdi
   19514:	e8 da f1 fe ff       	callq  86f3 <transparent_crc>
   19519:	48 8b 05 20 6d 00 00 	mov    0x6d20(%rip),%rax        # 20240 <g_1655>
   19520:	48 c1 e8 20          	shr    $0x20,%rax
   19524:	66 25 ff 01          	and    $0x1ff,%ax
   19528:	0f b7 c0             	movzwl %ax,%eax
   1952b:	8b 55 fc             	mov    -0x4(%rbp),%edx
   1952e:	48 8d 35 6d 2d 00 00 	lea    0x2d6d(%rip),%rsi        # 1c2a2 <g_1821+0x21d2>
   19535:	48 89 c7             	mov    %rax,%rdi
   19538:	e8 b6 f1 fe ff       	callq  86f3 <transparent_crc>
   1953d:	8b 05 03 6d 00 00    	mov    0x6d03(%rip),%eax        # 20246 <g_1655+0x6>
   19543:	48 98                	cltq   
   19545:	8b 55 fc             	mov    -0x4(%rbp),%edx
   19548:	48 8d 35 5d 2d 00 00 	lea    0x2d5d(%rip),%rsi        # 1c2ac <g_1821+0x21dc>
   1954f:	48 89 c7             	mov    %rax,%rdi
   19552:	e8 9c f1 fe ff       	callq  86f3 <transparent_crc>
   19557:	48 8b 05 ec 6c 00 00 	mov    0x6cec(%rip),%rax        # 2024a <g_1655+0xa>
   1955e:	8b 55 fc             	mov    -0x4(%rbp),%edx
   19561:	48 8d 35 4e 2d 00 00 	lea    0x2d4e(%rip),%rsi        # 1c2b6 <g_1821+0x21e6>
   19568:	48 89 c7             	mov    %rax,%rdi
   1956b:	e8 83 f1 fe ff       	callq  86f3 <transparent_crc>
   19570:	8b 05 dc 6c 00 00    	mov    0x6cdc(%rip),%eax        # 20252 <g_1655+0x12>
   19576:	89 c1                	mov    %eax,%ecx
   19578:	8b 45 fc             	mov    -0x4(%rbp),%eax
   1957b:	89 c2                	mov    %eax,%edx
   1957d:	48 8d 35 3c 2d 00 00 	lea    0x2d3c(%rip),%rsi        # 1c2c0 <g_1821+0x21f0>
   19584:	48 89 cf             	mov    %rcx,%rdi
   19587:	e8 67 f1 fe ff       	callq  86f3 <transparent_crc>
   1958c:	48 8b 05 c3 6c 00 00 	mov    0x6cc3(%rip),%rax        # 20256 <g_1655+0x16>
   19593:	8b 55 fc             	mov    -0x4(%rbp),%edx
   19596:	48 8d 35 2d 2d 00 00 	lea    0x2d2d(%rip),%rsi        # 1c2ca <g_1821+0x21fa>
   1959d:	48 89 c7             	mov    %rax,%rdi
   195a0:	e8 4e f1 fe ff       	callq  86f3 <transparent_crc>
   195a5:	c7 45 f0 00 00 00 00 	movl   $0x0,-0x10(%rbp)
   195ac:	e9 57 02 00 00       	jmpq   19808 <main+0x2c62>
   195b1:	c7 45 f4 00 00 00 00 	movl   $0x0,-0xc(%rbp)
   195b8:	e9 3d 02 00 00       	jmpq   197fa <main+0x2c54>
   195bd:	c7 45 f8 00 00 00 00 	movl   $0x0,-0x8(%rbp)
   195c4:	e9 23 02 00 00       	jmpq   197ec <main+0x2c46>
   195c9:	8b 45 f8             	mov    -0x8(%rbp),%eax
   195cc:	48 63 d0             	movslq %eax,%rdx
   195cf:	8b 45 f4             	mov    -0xc(%rbp),%eax
   195d2:	48 63 f0             	movslq %eax,%rsi
   195d5:	8b 45 f0             	mov    -0x10(%rbp),%eax
   195d8:	48 63 c8             	movslq %eax,%rcx
   195db:	48 89 d0             	mov    %rdx,%rax
   195de:	48 c1 e0 04          	shl    $0x4,%rax
   195e2:	48 29 d0             	sub    %rdx,%rax
   195e5:	48 01 c0             	add    %rax,%rax
   195e8:	48 69 d6 b4 00 00 00 	imul   $0xb4,%rsi,%rdx
   195ef:	48 01 c2             	add    %rax,%rdx
   195f2:	48 69 c1 08 07 00 00 	imul   $0x708,%rcx,%rax
   195f9:	48 01 c2             	add    %rax,%rdx
   195fc:	48 8d 05 5d 6c 00 00 	lea    0x6c5d(%rip),%rax        # 20260 <g_1681>
   19603:	48 01 d0             	add    %rdx,%rax
   19606:	8b 00                	mov    (%rax),%eax
   19608:	48 98                	cltq   
   1960a:	8b 55 fc             	mov    -0x4(%rbp),%edx
   1960d:	48 8d 35 c0 2c 00 00 	lea    0x2cc0(%rip),%rsi        # 1c2d4 <g_1821+0x2204>
   19614:	48 89 c7             	mov    %rax,%rdi
   19617:	e8 d7 f0 fe ff       	callq  86f3 <transparent_crc>
   1961c:	8b 45 f8             	mov    -0x8(%rbp),%eax
   1961f:	48 63 d0             	movslq %eax,%rdx
   19622:	8b 45 f4             	mov    -0xc(%rbp),%eax
   19625:	48 63 f0             	movslq %eax,%rsi
   19628:	8b 45 f0             	mov    -0x10(%rbp),%eax
   1962b:	48 63 c8             	movslq %eax,%rcx
   1962e:	48 89 d0             	mov    %rdx,%rax
   19631:	48 c1 e0 04          	shl    $0x4,%rax
   19635:	48 29 d0             	sub    %rdx,%rax
   19638:	48 01 c0             	add    %rax,%rax
   1963b:	48 69 d6 b4 00 00 00 	imul   $0xb4,%rsi,%rdx
   19642:	48 01 c2             	add    %rax,%rdx
   19645:	48 69 c1 08 07 00 00 	imul   $0x708,%rcx,%rax
   1964c:	48 01 c2             	add    %rax,%rdx
   1964f:	48 8d 05 0a 6c 00 00 	lea    0x6c0a(%rip),%rax        # 20260 <g_1681>
   19656:	48 01 d0             	add    %rdx,%rax
   19659:	0f b7 40 04          	movzwl 0x4(%rax),%eax
   1965d:	66 25 ff 01          	and    $0x1ff,%ax
   19661:	0f b7 c0             	movzwl %ax,%eax
   19664:	8b 55 fc             	mov    -0x4(%rbp),%edx
   19667:	48 8d 35 79 2c 00 00 	lea    0x2c79(%rip),%rsi        # 1c2e7 <g_1821+0x2217>
   1966e:	48 89 c7             	mov    %rax,%rdi
   19671:	e8 7d f0 fe ff       	callq  86f3 <transparent_crc>
   19676:	8b 45 f8             	mov    -0x8(%rbp),%eax
   19679:	48 63 d0             	movslq %eax,%rdx
   1967c:	8b 45 f4             	mov    -0xc(%rbp),%eax
   1967f:	48 63 f0             	movslq %eax,%rsi
   19682:	8b 45 f0             	mov    -0x10(%rbp),%eax
   19685:	48 63 c8             	movslq %eax,%rcx
   19688:	48 89 d0             	mov    %rdx,%rax
   1968b:	48 c1 e0 04          	shl    $0x4,%rax
   1968f:	48 29 d0             	sub    %rdx,%rax
   19692:	48 01 c0             	add    %rax,%rax
   19695:	48 69 d6 b4 00 00 00 	imul   $0xb4,%rsi,%rdx
   1969c:	48 01 c2             	add    %rax,%rdx
   1969f:	48 69 c1 08 07 00 00 	imul   $0x708,%rcx,%rax
   196a6:	48 01 c2             	add    %rax,%rdx
   196a9:	48 8d 05 b0 6b 00 00 	lea    0x6bb0(%rip),%rax        # 20260 <g_1681>
   196b0:	48 01 d0             	add    %rdx,%rax
   196b3:	8b 40 06             	mov    0x6(%rax),%eax
   196b6:	48 98                	cltq   
   196b8:	8b 55 fc             	mov    -0x4(%rbp),%edx
   196bb:	48 8d 35 38 2c 00 00 	lea    0x2c38(%rip),%rsi        # 1c2fa <g_1821+0x222a>
   196c2:	48 89 c7             	mov    %rax,%rdi
   196c5:	e8 29 f0 fe ff       	callq  86f3 <transparent_crc>
   196ca:	8b 45 f8             	mov    -0x8(%rbp),%eax
   196cd:	48 63 d0             	movslq %eax,%rdx
   196d0:	8b 45 f4             	mov    -0xc(%rbp),%eax
   196d3:	48 63 f0             	movslq %eax,%rsi
   196d6:	8b 45 f0             	mov    -0x10(%rbp),%eax
   196d9:	48 63 c8             	movslq %eax,%rcx
   196dc:	48 89 d0             	mov    %rdx,%rax
   196df:	48 c1 e0 04          	shl    $0x4,%rax
   196e3:	48 29 d0             	sub    %rdx,%rax
   196e6:	48 01 c0             	add    %rax,%rax
   196e9:	48 69 d6 b4 00 00 00 	imul   $0xb4,%rsi,%rdx
   196f0:	48 01 c2             	add    %rax,%rdx
   196f3:	48 69 c1 08 07 00 00 	imul   $0x708,%rcx,%rax
   196fa:	48 01 c2             	add    %rax,%rdx
   196fd:	48 8d 05 5c 6b 00 00 	lea    0x6b5c(%rip),%rax        # 20260 <g_1681>
   19704:	48 01 d0             	add    %rdx,%rax
   19707:	48 8b 40 0a          	mov    0xa(%rax),%rax
   1970b:	8b 55 fc             	mov    -0x4(%rbp),%edx
   1970e:	48 8d 35 f8 2b 00 00 	lea    0x2bf8(%rip),%rsi        # 1c30d <g_1821+0x223d>
   19715:	48 89 c7             	mov    %rax,%rdi
   19718:	e8 d6 ef fe ff       	callq  86f3 <transparent_crc>
   1971d:	8b 45 f8             	mov    -0x8(%rbp),%eax
   19720:	48 63 d0             	movslq %eax,%rdx
   19723:	8b 45 f4             	mov    -0xc(%rbp),%eax
   19726:	48 63 c8             	movslq %eax,%rcx
   19729:	8b 45 f0             	mov    -0x10(%rbp),%eax
   1972c:	48 63 f0             	movslq %eax,%rsi
   1972f:	48 89 d0             	mov    %rdx,%rax
   19732:	48 c1 e0 04          	shl    $0x4,%rax
   19736:	48 29 d0             	sub    %rdx,%rax
   19739:	48 01 c0             	add    %rax,%rax
   1973c:	48 69 d6 08 07 00 00 	imul   $0x708,%rsi,%rdx
   19743:	48 01 c2             	add    %rax,%rdx
   19746:	48 69 c1 b4 00 00 00 	imul   $0xb4,%rcx,%rax
   1974d:	48 01 c2             	add    %rax,%rdx
   19750:	48 8d 05 19 6b 00 00 	lea    0x6b19(%rip),%rax        # 20270 <g_1681+0x10>
   19757:	48 01 d0             	add    %rdx,%rax
   1975a:	8b 40 02             	mov    0x2(%rax),%eax
   1975d:	89 c1                	mov    %eax,%ecx
   1975f:	8b 45 fc             	mov    -0x4(%rbp),%eax
   19762:	89 c2                	mov    %eax,%edx
   19764:	48 8d 35 b5 2b 00 00 	lea    0x2bb5(%rip),%rsi        # 1c320 <g_1821+0x2250>
   1976b:	48 89 cf             	mov    %rcx,%rdi
   1976e:	e8 80 ef fe ff       	callq  86f3 <transparent_crc>
   19773:	8b 45 f8             	mov    -0x8(%rbp),%eax
   19776:	48 63 d0             	movslq %eax,%rdx
   19779:	8b 45 f4             	mov    -0xc(%rbp),%eax
   1977c:	48 63 c8             	movslq %eax,%rcx
   1977f:	8b 45 f0             	mov    -0x10(%rbp),%eax
   19782:	48 63 f0             	movslq %eax,%rsi
   19785:	48 89 d0             	mov    %rdx,%rax
   19788:	48 c1 e0 04          	shl    $0x4,%rax
   1978c:	48 29 d0             	sub    %rdx,%rax
   1978f:	48 01 c0             	add    %rax,%rax
   19792:	48 69 d6 08 07 00 00 	imul   $0x708,%rsi,%rdx
   19799:	48 01 c2             	add    %rax,%rdx
   1979c:	48 69 c1 b4 00 00 00 	imul   $0xb4,%rcx,%rax
   197a3:	48 01 c2             	add    %rax,%rdx
   197a6:	48 8d 05 c3 6a 00 00 	lea    0x6ac3(%rip),%rax        # 20270 <g_1681+0x10>
   197ad:	48 01 d0             	add    %rdx,%rax
   197b0:	48 8b 40 06          	mov    0x6(%rax),%rax
   197b4:	8b 55 fc             	mov    -0x4(%rbp),%edx
   197b7:	48 8d 35 75 2b 00 00 	lea    0x2b75(%rip),%rsi        # 1c333 <g_1821+0x2263>
   197be:	48 89 c7             	mov    %rax,%rdi
   197c1:	e8 2d ef fe ff       	callq  86f3 <transparent_crc>
   197c6:	83 7d fc 00          	cmpl   $0x0,-0x4(%rbp)
   197ca:	74 1c                	je     197e8 <main+0x2c42>
   197cc:	8b 4d f8             	mov    -0x8(%rbp),%ecx
   197cf:	8b 55 f4             	mov    -0xc(%rbp),%edx
   197d2:	8b 45 f0             	mov    -0x10(%rbp),%eax
   197d5:	89 c6                	mov    %eax,%esi
   197d7:	48 8d 3d e7 23 00 00 	lea    0x23e7(%rip),%rdi        # 1bbc5 <g_1821+0x1af5>
   197de:	b8 00 00 00 00       	mov    $0x0,%eax
   197e3:	e8 98 d8 fe ff       	callq  7080 <printf@plt>
   197e8:	83 45 f8 01          	addl   $0x1,-0x8(%rbp)
   197ec:	83 7d f8 05          	cmpl   $0x5,-0x8(%rbp)
   197f0:	0f 8e d3 fd ff ff    	jle    195c9 <main+0x2a23>
   197f6:	83 45 f4 01          	addl   $0x1,-0xc(%rbp)
   197fa:	83 7d f4 09          	cmpl   $0x9,-0xc(%rbp)
   197fe:	0f 8e b9 fd ff ff    	jle    195bd <main+0x2a17>
   19804:	83 45 f0 01          	addl   $0x1,-0x10(%rbp)
   19808:	83 7d f0 03          	cmpl   $0x3,-0x10(%rbp)
   1980c:	0f 8e 9f fd ff ff    	jle    195b1 <main+0x2a0b>
   19812:	48 8b 05 97 b0 00 00 	mov    0xb097(%rip),%rax        # 248b0 <g_1694>
   19819:	8b 55 fc             	mov    -0x4(%rbp),%edx
   1981c:	48 8d 35 23 2b 00 00 	lea    0x2b23(%rip),%rsi        # 1c346 <g_1821+0x2276>
   19823:	48 89 c7             	mov    %rax,%rdi
   19826:	e8 c8 ee fe ff       	callq  86f3 <transparent_crc>
   1982b:	c7 45 f0 00 00 00 00 	movl   $0x0,-0x10(%rbp)
   19832:	eb 4a                	jmp    1987e <main+0x2cd8>
   19834:	8b 45 f0             	mov    -0x10(%rbp),%eax
   19837:	48 98                	cltq   
   19839:	48 8d 14 c5 00 00 00 	lea    0x0(,%rax,8),%rdx
   19840:	00 
   19841:	48 8d 05 58 08 00 00 	lea    0x858(%rip),%rax        # 1a0a0 <g_1740>
   19848:	48 8b 04 02          	mov    (%rdx,%rax,1),%rax
   1984c:	8b 55 fc             	mov    -0x4(%rbp),%edx
   1984f:	48 8d 35 f7 2a 00 00 	lea    0x2af7(%rip),%rsi        # 1c34d <g_1821+0x227d>
   19856:	48 89 c7             	mov    %rax,%rdi
   19859:	e8 95 ee fe ff       	callq  86f3 <transparent_crc>
   1985e:	83 7d fc 00          	cmpl   $0x0,-0x4(%rbp)
   19862:	74 16                	je     1987a <main+0x2cd4>
   19864:	8b 45 f0             	mov    -0x10(%rbp),%eax
   19867:	89 c6                	mov    %eax,%esi
   19869:	48 8d 3d 9b 1f 00 00 	lea    0x1f9b(%rip),%rdi        # 1b80b <g_1821+0x173b>
   19870:	b8 00 00 00 00       	mov    $0x0,%eax
   19875:	e8 06 d8 fe ff       	callq  7080 <printf@plt>
   1987a:	83 45 f0 01          	addl   $0x1,-0x10(%rbp)
   1987e:	83 7d f0 04          	cmpl   $0x4,-0x10(%rbp)
   19882:	7e b0                	jle    19834 <main+0x2c8e>
   19884:	48 8b 05 45 08 00 00 	mov    0x845(%rip),%rax        # 1a0d0 <g_1821>
   1988b:	c1 e0 08             	shl    $0x8,%eax
   1988e:	c1 f8 08             	sar    $0x8,%eax
   19891:	48 98                	cltq   
   19893:	8b 55 fc             	mov    -0x4(%rbp),%edx
   19896:	48 8d 35 ba 2a 00 00 	lea    0x2aba(%rip),%rsi        # 1c357 <g_1821+0x2287>
   1989d:	48 89 c7             	mov    %rax,%rdi
   198a0:	e8 4e ee fe ff       	callq  86f3 <transparent_crc>
   198a5:	b8 ec 4c 5c c0       	mov    $0xc05c4cec,%eax
   198aa:	48 98                	cltq   
   198ac:	8b 55 fc             	mov    -0x4(%rbp),%edx
   198af:	48 8d 35 ab 2a 00 00 	lea    0x2aab(%rip),%rsi        # 1c361 <g_1821+0x2291>
   198b6:	48 89 c7             	mov    %rax,%rdi
   198b9:	e8 35 ee fe ff       	callq  86f3 <transparent_crc>
   198be:	b8 00 00 00 00       	mov    $0x0,%eax
   198c3:	48 0f bf c0          	movswq %ax,%rax
   198c7:	8b 55 fc             	mov    -0x4(%rbp),%edx
   198ca:	48 8d 35 9a 2a 00 00 	lea    0x2a9a(%rip),%rsi        # 1c36b <g_1821+0x229b>
   198d1:	48 89 c7             	mov    %rax,%rdi
   198d4:	e8 1a ee fe ff       	callq  86f3 <transparent_crc>
   198d9:	b8 54 00 00 00       	mov    $0x54,%eax
   198de:	0f b6 c0             	movzbl %al,%eax
   198e1:	8b 55 fc             	mov    -0x4(%rbp),%edx
   198e4:	48 8d 35 8a 2a 00 00 	lea    0x2a8a(%rip),%rsi        # 1c375 <g_1821+0x22a5>
   198eb:	48 89 c7             	mov    %rax,%rdi
   198ee:	e8 00 ee fe ff       	callq  86f3 <transparent_crc>
   198f3:	48 8b 05 de 07 00 00 	mov    0x7de(%rip),%rax        # 1a0d8 <g_1821+0x8>
   198fa:	48 c1 e0 16          	shl    $0x16,%rax
   198fe:	48 c1 f8 3e          	sar    $0x3e,%rax
   19902:	48 0f be c0          	movsbq %al,%rax
   19906:	8b 55 fc             	mov    -0x4(%rbp),%edx
   19909:	48 8d 35 6f 2a 00 00 	lea    0x2a6f(%rip),%rsi        # 1c37f <g_1821+0x22af>
   19910:	48 89 c7             	mov    %rax,%rdi
   19913:	e8 db ed fe ff       	callq  86f3 <transparent_crc>
   19918:	b8 87 fd ff ff       	mov    $0xfffffd87,%eax
   1991d:	48 98                	cltq   
   1991f:	8b 55 fc             	mov    -0x4(%rbp),%edx
   19922:	48 8d 35 60 2a 00 00 	lea    0x2a60(%rip),%rsi        # 1c389 <g_1821+0x22b9>
   19929:	48 89 c7             	mov    %rax,%rdi
   1992c:	e8 c2 ed fe ff       	callq  86f3 <transparent_crc>
   19931:	48 8b 05 a8 07 00 00 	mov    0x7a8(%rip),%rax        # 1a0e0 <g_1821+0x10>
   19938:	c1 e0 0b             	shl    $0xb,%eax
   1993b:	c1 f8 0b             	sar    $0xb,%eax
   1993e:	48 98                	cltq   
   19940:	8b 55 fc             	mov    -0x4(%rbp),%edx
   19943:	48 8d 35 49 2a 00 00 	lea    0x2a49(%rip),%rsi        # 1c393 <g_1821+0x22c3>
   1994a:	48 89 c7             	mov    %rax,%rdi
   1994d:	e8 a1 ed fe ff       	callq  86f3 <transparent_crc>
   19952:	b8 ee fc ff ff       	mov    $0xfffffcee,%eax
   19957:	48 98                	cltq   
   19959:	8b 55 fc             	mov    -0x4(%rbp),%edx
   1995c:	48 8d 35 3a 2a 00 00 	lea    0x2a3a(%rip),%rsi        # 1c39d <g_1821+0x22cd>
   19963:	48 89 c7             	mov    %rax,%rdi
   19966:	e8 88 ed fe ff       	callq  86f3 <transparent_crc>
   1996b:	8b 05 0f 85 00 00    	mov    0x850f(%rip),%eax        # 21e80 <g_1863>
   19971:	48 98                	cltq   
   19973:	8b 55 fc             	mov    -0x4(%rbp),%edx
   19976:	48 8d 35 2a 2a 00 00 	lea    0x2a2a(%rip),%rsi        # 1c3a7 <g_1821+0x22d7>
   1997d:	48 89 c7             	mov    %rax,%rdi
   19980:	e8 6e ed fe ff       	callq  86f3 <transparent_crc>
   19985:	48 8b 05 f4 84 00 00 	mov    0x84f4(%rip),%rax        # 21e80 <g_1863>
   1998c:	48 c1 e8 20          	shr    $0x20,%rax
   19990:	66 25 ff 01          	and    $0x1ff,%ax
   19994:	0f b7 c0             	movzwl %ax,%eax
   19997:	8b 55 fc             	mov    -0x4(%rbp),%edx
   1999a:	48 8d 35 10 2a 00 00 	lea    0x2a10(%rip),%rsi        # 1c3b1 <g_1821+0x22e1>
   199a1:	48 89 c7             	mov    %rax,%rdi
   199a4:	e8 4a ed fe ff       	callq  86f3 <transparent_crc>
   199a9:	8b 05 d7 84 00 00    	mov    0x84d7(%rip),%eax        # 21e86 <g_1863+0x6>
   199af:	48 98                	cltq   
   199b1:	8b 55 fc             	mov    -0x4(%rbp),%edx
   199b4:	48 8d 35 00 2a 00 00 	lea    0x2a00(%rip),%rsi        # 1c3bb <g_1821+0x22eb>
   199bb:	48 89 c7             	mov    %rax,%rdi
   199be:	e8 30 ed fe ff       	callq  86f3 <transparent_crc>
   199c3:	48 8b 05 c0 84 00 00 	mov    0x84c0(%rip),%rax        # 21e8a <g_1863+0xa>
   199ca:	8b 55 fc             	mov    -0x4(%rbp),%edx
   199cd:	48 8d 35 f1 29 00 00 	lea    0x29f1(%rip),%rsi        # 1c3c5 <g_1821+0x22f5>
   199d4:	48 89 c7             	mov    %rax,%rdi
   199d7:	e8 17 ed fe ff       	callq  86f3 <transparent_crc>
   199dc:	8b 05 b0 84 00 00    	mov    0x84b0(%rip),%eax        # 21e92 <g_1863+0x12>
   199e2:	89 c1                	mov    %eax,%ecx
   199e4:	8b 45 fc             	mov    -0x4(%rbp),%eax
   199e7:	89 c2                	mov    %eax,%edx
   199e9:	48 8d 35 df 29 00 00 	lea    0x29df(%rip),%rsi        # 1c3cf <g_1821+0x22ff>
   199f0:	48 89 cf             	mov    %rcx,%rdi
   199f3:	e8 fb ec fe ff       	callq  86f3 <transparent_crc>
   199f8:	48 8b 05 97 84 00 00 	mov    0x8497(%rip),%rax        # 21e96 <g_1863+0x16>
   199ff:	8b 55 fc             	mov    -0x4(%rbp),%edx
   19a02:	48 8d 35 d0 29 00 00 	lea    0x29d0(%rip),%rsi        # 1c3d9 <g_1821+0x2309>
   19a09:	48 89 c7             	mov    %rax,%rdi
   19a0c:	e8 e2 ec fe ff       	callq  86f3 <transparent_crc>
   19a11:	8b 05 89 84 00 00    	mov    0x8489(%rip),%eax        # 21ea0 <g_1864>
   19a17:	48 98                	cltq   
   19a19:	8b 55 fc             	mov    -0x4(%rbp),%edx
   19a1c:	48 8d 35 c0 29 00 00 	lea    0x29c0(%rip),%rsi        # 1c3e3 <g_1821+0x2313>
   19a23:	48 89 c7             	mov    %rax,%rdi
   19a26:	e8 c8 ec fe ff       	callq  86f3 <transparent_crc>
   19a2b:	48 8b 05 6e 84 00 00 	mov    0x846e(%rip),%rax        # 21ea0 <g_1864>
   19a32:	48 c1 e8 20          	shr    $0x20,%rax
   19a36:	66 25 ff 01          	and    $0x1ff,%ax
   19a3a:	0f b7 c0             	movzwl %ax,%eax
   19a3d:	8b 55 fc             	mov    -0x4(%rbp),%edx
   19a40:	48 8d 35 a6 29 00 00 	lea    0x29a6(%rip),%rsi        # 1c3ed <g_1821+0x231d>
   19a47:	48 89 c7             	mov    %rax,%rdi
   19a4a:	e8 a4 ec fe ff       	callq  86f3 <transparent_crc>
   19a4f:	8b 05 51 84 00 00    	mov    0x8451(%rip),%eax        # 21ea6 <g_1864+0x6>
   19a55:	48 98                	cltq   
   19a57:	8b 55 fc             	mov    -0x4(%rbp),%edx
   19a5a:	48 8d 35 96 29 00 00 	lea    0x2996(%rip),%rsi        # 1c3f7 <g_1821+0x2327>
   19a61:	48 89 c7             	mov    %rax,%rdi
   19a64:	e8 8a ec fe ff       	callq  86f3 <transparent_crc>
   19a69:	48 8b 05 3a 84 00 00 	mov    0x843a(%rip),%rax        # 21eaa <g_1864+0xa>
   19a70:	8b 55 fc             	mov    -0x4(%rbp),%edx
   19a73:	48 8d 35 87 29 00 00 	lea    0x2987(%rip),%rsi        # 1c401 <g_1821+0x2331>
   19a7a:	48 89 c7             	mov    %rax,%rdi
   19a7d:	e8 71 ec fe ff       	callq  86f3 <transparent_crc>
   19a82:	8b 05 2a 84 00 00    	mov    0x842a(%rip),%eax        # 21eb2 <g_1864+0x12>
   19a88:	89 c1                	mov    %eax,%ecx
   19a8a:	8b 45 fc             	mov    -0x4(%rbp),%eax
   19a8d:	89 c2                	mov    %eax,%edx
   19a8f:	48 8d 35 75 29 00 00 	lea    0x2975(%rip),%rsi        # 1c40b <g_1821+0x233b>
   19a96:	48 89 cf             	mov    %rcx,%rdi
   19a99:	e8 55 ec fe ff       	callq  86f3 <transparent_crc>
   19a9e:	48 8b 05 11 84 00 00 	mov    0x8411(%rip),%rax        # 21eb6 <g_1864+0x16>
   19aa5:	8b 55 fc             	mov    -0x4(%rbp),%edx
   19aa8:	48 8d 35 66 29 00 00 	lea    0x2966(%rip),%rsi        # 1c415 <g_1821+0x2345>
   19aaf:	48 89 c7             	mov    %rax,%rdi
   19ab2:	e8 3c ec fe ff       	callq  86f3 <transparent_crc>
   19ab7:	8b 05 03 84 00 00    	mov    0x8403(%rip),%eax        # 21ec0 <g_1937>
   19abd:	48 98                	cltq   
   19abf:	8b 55 fc             	mov    -0x4(%rbp),%edx
   19ac2:	48 8d 35 56 29 00 00 	lea    0x2956(%rip),%rsi        # 1c41f <g_1821+0x234f>
   19ac9:	48 89 c7             	mov    %rax,%rdi
   19acc:	e8 22 ec fe ff       	callq  86f3 <transparent_crc>
   19ad1:	8b 05 f9 83 00 00    	mov    0x83f9(%rip),%eax        # 21ed0 <g_1973>
   19ad7:	48 98                	cltq   
   19ad9:	8b 55 fc             	mov    -0x4(%rbp),%edx
   19adc:	48 8d 35 43 29 00 00 	lea    0x2943(%rip),%rsi        # 1c426 <g_1821+0x2356>
   19ae3:	48 89 c7             	mov    %rax,%rdi
   19ae6:	e8 08 ec fe ff       	callq  86f3 <transparent_crc>
   19aeb:	0f b7 05 e2 83 00 00 	movzwl 0x83e2(%rip),%eax        # 21ed4 <g_1973+0x4>
   19af2:	66 25 ff 01          	and    $0x1ff,%ax
   19af6:	0f b7 c0             	movzwl %ax,%eax
   19af9:	8b 55 fc             	mov    -0x4(%rbp),%edx
   19afc:	48 8d 35 2d 29 00 00 	lea    0x292d(%rip),%rsi        # 1c430 <g_1821+0x2360>
   19b03:	48 89 c7             	mov    %rax,%rdi
   19b06:	e8 e8 eb fe ff       	callq  86f3 <transparent_crc>
   19b0b:	8b 05 c5 83 00 00    	mov    0x83c5(%rip),%eax        # 21ed6 <g_1973+0x6>
   19b11:	48 98                	cltq   
   19b13:	8b 55 fc             	mov    -0x4(%rbp),%edx
   19b16:	48 8d 35 1d 29 00 00 	lea    0x291d(%rip),%rsi        # 1c43a <g_1821+0x236a>
   19b1d:	48 89 c7             	mov    %rax,%rdi
   19b20:	e8 ce eb fe ff       	callq  86f3 <transparent_crc>
   19b25:	48 8b 05 ae 83 00 00 	mov    0x83ae(%rip),%rax        # 21eda <g_1973+0xa>
   19b2c:	8b 55 fc             	mov    -0x4(%rbp),%edx
   19b2f:	48 8d 35 0e 29 00 00 	lea    0x290e(%rip),%rsi        # 1c444 <g_1821+0x2374>
   19b36:	48 89 c7             	mov    %rax,%rdi
   19b39:	e8 b5 eb fe ff       	callq  86f3 <transparent_crc>
   19b3e:	8b 05 9e 83 00 00    	mov    0x839e(%rip),%eax        # 21ee2 <g_1973+0x12>
   19b44:	89 c1                	mov    %eax,%ecx
   19b46:	8b 45 fc             	mov    -0x4(%rbp),%eax
   19b49:	89 c2                	mov    %eax,%edx
   19b4b:	48 8d 35 fc 28 00 00 	lea    0x28fc(%rip),%rsi        # 1c44e <g_1821+0x237e>
   19b52:	48 89 cf             	mov    %rcx,%rdi
   19b55:	e8 99 eb fe ff       	callq  86f3 <transparent_crc>
   19b5a:	48 8b 05 85 83 00 00 	mov    0x8385(%rip),%rax        # 21ee6 <g_1973+0x16>
   19b61:	8b 55 fc             	mov    -0x4(%rbp),%edx
   19b64:	48 8d 35 ed 28 00 00 	lea    0x28ed(%rip),%rsi        # 1c458 <g_1821+0x2388>
   19b6b:	48 89 c7             	mov    %rax,%rdi
   19b6e:	e8 80 eb fe ff       	callq  86f3 <transparent_crc>
   19b73:	0f b6 05 74 83 00 00 	movzbl 0x8374(%rip),%eax        # 21eee <g_1984>
   19b7a:	0f b6 c0             	movzbl %al,%eax
   19b7d:	8b 55 fc             	mov    -0x4(%rbp),%edx
   19b80:	48 8d 35 db 28 00 00 	lea    0x28db(%rip),%rsi        # 1c462 <g_1821+0x2392>
   19b87:	48 89 c7             	mov    %rax,%rdi
   19b8a:	e8 64 eb fe ff       	callq  86f3 <transparent_crc>
   19b8f:	8b 05 5b 83 00 00    	mov    0x835b(%rip),%eax        # 21ef0 <g_1990>
   19b95:	89 c1                	mov    %eax,%ecx
   19b97:	8b 45 fc             	mov    -0x4(%rbp),%eax
   19b9a:	89 c2                	mov    %eax,%edx
   19b9c:	48 8d 35 c6 28 00 00 	lea    0x28c6(%rip),%rsi        # 1c469 <g_1821+0x2399>
   19ba3:	48 89 cf             	mov    %rcx,%rdi
   19ba6:	e8 48 eb fe ff       	callq  86f3 <transparent_crc>
   19bab:	8b 05 3f 83 00 00    	mov    0x833f(%rip),%eax        # 21ef0 <g_1990>
   19bb1:	89 c1                	mov    %eax,%ecx
   19bb3:	8b 45 fc             	mov    -0x4(%rbp),%eax
   19bb6:	89 c2                	mov    %eax,%edx
   19bb8:	48 8d 35 b4 28 00 00 	lea    0x28b4(%rip),%rsi        # 1c473 <g_1821+0x23a3>
   19bbf:	48 89 cf             	mov    %rcx,%rdi
   19bc2:	e8 2c eb fe ff       	callq  86f3 <transparent_crc>
   19bc7:	c7 45 f0 00 00 00 00 	movl   $0x0,-0x10(%rbp)
   19bce:	e9 0a 01 00 00       	jmpq   19cdd <main+0x3137>
   19bd3:	c7 45 f4 00 00 00 00 	movl   $0x0,-0xc(%rbp)
   19bda:	e9 f0 00 00 00       	jmpq   19ccf <main+0x3129>
   19bdf:	c7 45 f8 00 00 00 00 	movl   $0x0,-0x8(%rbp)
   19be6:	e9 d6 00 00 00       	jmpq   19cc1 <main+0x311b>
   19beb:	8b 45 f8             	mov    -0x8(%rbp),%eax
   19bee:	48 63 f0             	movslq %eax,%rsi
   19bf1:	8b 45 f0             	mov    -0x10(%rbp),%eax
   19bf4:	48 63 d0             	movslq %eax,%rdx
   19bf7:	8b 45 f4             	mov    -0xc(%rbp),%eax
   19bfa:	48 63 c8             	movslq %eax,%rcx
   19bfd:	48 89 d0             	mov    %rdx,%rax
   19c00:	48 c1 e0 03          	shl    $0x3,%rax
   19c04:	48 01 d0             	add    %rdx,%rax
   19c07:	48 c1 e0 02          	shl    $0x2,%rax
   19c0b:	48 89 ca             	mov    %rcx,%rdx
   19c0e:	48 c1 e2 03          	shl    $0x3,%rdx
   19c12:	48 01 ca             	add    %rcx,%rdx
   19c15:	48 01 d0             	add    %rdx,%rax
   19c18:	48 01 f0             	add    %rsi,%rax
   19c1b:	48 8d 14 85 00 00 00 	lea    0x0(,%rax,4),%rdx
   19c22:	00 
   19c23:	48 8d 05 d6 82 00 00 	lea    0x82d6(%rip),%rax        # 21f00 <g_2003>
   19c2a:	8b 04 02             	mov    (%rdx,%rax,1),%eax
   19c2d:	89 c1                	mov    %eax,%ecx
   19c2f:	8b 45 fc             	mov    -0x4(%rbp),%eax
   19c32:	89 c2                	mov    %eax,%edx
   19c34:	48 8d 35 42 28 00 00 	lea    0x2842(%rip),%rsi        # 1c47d <g_1821+0x23ad>
   19c3b:	48 89 cf             	mov    %rcx,%rdi
   19c3e:	e8 b0 ea fe ff       	callq  86f3 <transparent_crc>
   19c43:	8b 45 f8             	mov    -0x8(%rbp),%eax
   19c46:	48 63 f0             	movslq %eax,%rsi
   19c49:	8b 45 f0             	mov    -0x10(%rbp),%eax
   19c4c:	48 63 d0             	movslq %eax,%rdx
   19c4f:	8b 45 f4             	mov    -0xc(%rbp),%eax
   19c52:	48 63 c8             	movslq %eax,%rcx
   19c55:	48 89 d0             	mov    %rdx,%rax
   19c58:	48 c1 e0 03          	shl    $0x3,%rax
   19c5c:	48 01 d0             	add    %rdx,%rax
   19c5f:	48 c1 e0 02          	shl    $0x2,%rax
   19c63:	48 89 ca             	mov    %rcx,%rdx
   19c66:	48 c1 e2 03          	shl    $0x3,%rdx
   19c6a:	48 01 ca             	add    %rcx,%rdx
   19c6d:	48 01 d0             	add    %rdx,%rax
   19c70:	48 01 f0             	add    %rsi,%rax
   19c73:	48 8d 14 85 00 00 00 	lea    0x0(,%rax,4),%rdx
   19c7a:	00 
   19c7b:	48 8d 05 7e 82 00 00 	lea    0x827e(%rip),%rax        # 21f00 <g_2003>
   19c82:	8b 04 02             	mov    (%rdx,%rax,1),%eax
   19c85:	89 c1                	mov    %eax,%ecx
   19c87:	8b 45 fc             	mov    -0x4(%rbp),%eax
   19c8a:	89 c2                	mov    %eax,%edx
   19c8c:	48 8d 35 fd 27 00 00 	lea    0x27fd(%rip),%rsi        # 1c490 <g_1821+0x23c0>
   19c93:	48 89 cf             	mov    %rcx,%rdi
   19c96:	e8 58 ea fe ff       	callq  86f3 <transparent_crc>
   19c9b:	83 7d fc 00          	cmpl   $0x0,-0x4(%rbp)
   19c9f:	74 1c                	je     19cbd <main+0x3117>
   19ca1:	8b 4d f8             	mov    -0x8(%rbp),%ecx
   19ca4:	8b 55 f4             	mov    -0xc(%rbp),%edx
   19ca7:	8b 45 f0             	mov    -0x10(%rbp),%eax
   19caa:	89 c6                	mov    %eax,%esi
   19cac:	48 8d 3d 12 1f 00 00 	lea    0x1f12(%rip),%rdi        # 1bbc5 <g_1821+0x1af5>
   19cb3:	b8 00 00 00 00       	mov    $0x0,%eax
   19cb8:	e8 c3 d3 fe ff       	callq  7080 <printf@plt>
   19cbd:	83 45 f8 01          	addl   $0x1,-0x8(%rbp)
   19cc1:	83 7d f8 08          	cmpl   $0x8,-0x8(%rbp)
   19cc5:	0f 8e 20 ff ff ff    	jle    19beb <main+0x3045>
   19ccb:	83 45 f4 01          	addl   $0x1,-0xc(%rbp)
   19ccf:	83 7d f4 03          	cmpl   $0x3,-0xc(%rbp)
   19cd3:	0f 8e 06 ff ff ff    	jle    19bdf <main+0x3039>
   19cd9:	83 45 f0 01          	addl   $0x1,-0x10(%rbp)
   19cdd:	83 7d f0 05          	cmpl   $0x5,-0x10(%rbp)
   19ce1:	0f 8e ec fe ff ff    	jle    19bd3 <main+0x302d>
   19ce7:	48 8b 05 72 85 00 00 	mov    0x8572(%rip),%rax        # 22260 <g_2024>
   19cee:	48 89 c1             	mov    %rax,%rcx
   19cf1:	8b 45 fc             	mov    -0x4(%rbp),%eax
   19cf4:	89 c2                	mov    %eax,%edx
   19cf6:	48 8d 35 a6 27 00 00 	lea    0x27a6(%rip),%rsi        # 1c4a3 <g_1821+0x23d3>
   19cfd:	48 89 cf             	mov    %rcx,%rdi
   19d00:	e8 ee e9 fe ff       	callq  86f3 <transparent_crc>
   19d05:	48 8b 05 54 85 00 00 	mov    0x8554(%rip),%rax        # 22260 <g_2024>
   19d0c:	c1 e0 06             	shl    $0x6,%eax
   19d0f:	c1 f8 06             	sar    $0x6,%eax
   19d12:	48 98                	cltq   
   19d14:	8b 55 fc             	mov    -0x4(%rbp),%edx
   19d17:	48 8d 35 8f 27 00 00 	lea    0x278f(%rip),%rsi        # 1c4ad <g_1821+0x23dd>
   19d1e:	48 89 c7             	mov    %rax,%rdi
   19d21:	e8 cd e9 fe ff       	callq  86f3 <transparent_crc>
   19d26:	48 8b 05 33 85 00 00 	mov    0x8533(%rip),%rax        # 22260 <g_2024>
   19d2d:	48 89 c1             	mov    %rax,%rcx
   19d30:	8b 45 fc             	mov    -0x4(%rbp),%eax
   19d33:	89 c2                	mov    %eax,%edx
   19d35:	48 8d 35 7b 27 00 00 	lea    0x277b(%rip),%rsi        # 1c4b7 <g_1821+0x23e7>
   19d3c:	48 89 cf             	mov    %rcx,%rdi
   19d3f:	e8 af e9 fe ff       	callq  86f3 <transparent_crc>
   19d44:	0f b7 05 15 85 00 00 	movzwl 0x8515(%rip),%eax        # 22260 <g_2024>
   19d4b:	0f b7 c0             	movzwl %ax,%eax
   19d4e:	8b 55 fc             	mov    -0x4(%rbp),%edx
   19d51:	48 8d 35 69 27 00 00 	lea    0x2769(%rip),%rsi        # 1c4c1 <g_1821+0x23f1>
   19d58:	48 89 c7             	mov    %rax,%rdi
   19d5b:	e8 93 e9 fe ff       	callq  86f3 <transparent_crc>
   19d60:	8b 05 ba 52 00 00    	mov    0x52ba(%rip),%eax        # 1f020 <crc32_context>
   19d66:	f7 d0                	not    %eax
   19d68:	89 c2                	mov    %eax,%edx
   19d6a:	8b 45 fc             	mov    -0x4(%rbp),%eax
   19d6d:	89 c6                	mov    %eax,%esi
   19d6f:	89 d7                	mov    %edx,%edi
   19d71:	e8 1e d4 fe ff       	callq  7194 <platform_main_end>
   19d76:	b8 00 00 00 00       	mov    $0x0,%eax
   19d7b:	c9                   	leaveq 
   19d7c:	c3                   	retq   
   19d7d:	0f 1f 00             	nopl   (%rax)

0000000000019d80 <__libc_csu_init>:
   19d80:	f3 0f 1e fa          	endbr64 
   19d84:	41 57                	push   %r15
   19d86:	4c 8d 3d 1b 50 00 00 	lea    0x501b(%rip),%r15        # 1eda8 <__frame_dummy_init_array_entry>
   19d8d:	41 56                	push   %r14
   19d8f:	49 89 d6             	mov    %rdx,%r14
   19d92:	41 55                	push   %r13
   19d94:	49 89 f5             	mov    %rsi,%r13
   19d97:	41 54                	push   %r12
   19d99:	41 89 fc             	mov    %edi,%r12d
   19d9c:	55                   	push   %rbp
   19d9d:	48 8d 2d 0c 50 00 00 	lea    0x500c(%rip),%rbp        # 1edb0 <__do_global_dtors_aux_fini_array_entry>
   19da4:	53                   	push   %rbx
   19da5:	4c 29 fd             	sub    %r15,%rbp
   19da8:	48 83 ec 08          	sub    $0x8,%rsp
   19dac:	e8 4f d2 fe ff       	callq  7000 <_init>
   19db1:	48 c1 fd 03          	sar    $0x3,%rbp
   19db5:	74 1f                	je     19dd6 <__libc_csu_init+0x56>
   19db7:	31 db                	xor    %ebx,%ebx
   19db9:	0f 1f 80 00 00 00 00 	nopl   0x0(%rax)
   19dc0:	4c 89 f2             	mov    %r14,%rdx
   19dc3:	4c 89 ee             	mov    %r13,%rsi
   19dc6:	44 89 e7             	mov    %r12d,%edi
   19dc9:	41 ff 14 df          	callq  *(%r15,%rbx,8)
   19dcd:	48 83 c3 01          	add    $0x1,%rbx
   19dd1:	48 39 dd             	cmp    %rbx,%rbp
   19dd4:	75 ea                	jne    19dc0 <__libc_csu_init+0x40>
   19dd6:	48 83 c4 08          	add    $0x8,%rsp
   19dda:	5b                   	pop    %rbx
   19ddb:	5d                   	pop    %rbp
   19ddc:	41 5c                	pop    %r12
   19dde:	41 5d                	pop    %r13
   19de0:	41 5e                	pop    %r14
   19de2:	41 5f                	pop    %r15
   19de4:	c3                   	retq   
   19de5:	66 66 2e 0f 1f 84 00 	data16 nopw %cs:0x0(%rax,%rax,1)
   19dec:	00 00 00 00 

0000000000019df0 <__libc_csu_fini>:
   19df0:	f3 0f 1e fa          	endbr64 
   19df4:	c3                   	retq   
