


Disassembly of section .text:

00000000000050a0 <_start>:
    50a0:	f3 0f 1e fa          	endbr64 
    50a4:	31 ed                	xor    %ebp,%ebp
    50a6:	49 89 d1             	mov    %rdx,%r9
    50a9:	5e                   	pop    %rsi
    50aa:	48 89 e2             	mov    %rsp,%rdx
    50ad:	48 83 e4 f0          	and    $0xfffffffffffffff0,%rsp
    50b1:	50                   	push   %rax
    50b2:	54                   	push   %rsp
    50b3:	4c 8d 05 66 81 00 00 	lea    0x8166(%rip),%r8        # d220 <__libc_csu_fini>
    50ba:	48 8d 0d ef 80 00 00 	lea    0x80ef(%rip),%rcx        # d1b0 <__libc_csu_init>
    50c1:	48 8d 3d 71 6f 00 00 	lea    0x6f71(%rip),%rdi        # c039 <main>
    50c8:	ff 15 fa ce 00 00    	callq  *0xcefa(%rip)        # 11fc8 <__libc_start_main@GLIBC_2.2.5>
    50ce:	f4                   	hlt    
    50cf:	90                   	nop

00000000000050d0 <deregister_tm_clones>:
    50d0:	48 8d 3d c9 f2 00 00 	lea    0xf2c9(%rip),%rdi        # 143a0 <__TMC_END__>
    50d7:	48 8d 05 c2 f2 00 00 	lea    0xf2c2(%rip),%rax        # 143a0 <__TMC_END__>
    50de:	48 39 f8             	cmp    %rdi,%rax
    50e1:	74 15                	je     50f8 <deregister_tm_clones+0x28>
    50e3:	48 8b 05 d6 ce 00 00 	mov    0xced6(%rip),%rax        # 11fc0 <_ITM_deregisterTMCloneTable>
    50ea:	48 85 c0             	test   %rax,%rax
    50ed:	74 09                	je     50f8 <deregister_tm_clones+0x28>
    50ef:	ff e0                	jmpq   *%rax
    50f1:	0f 1f 80 00 00 00 00 	nopl   0x0(%rax)
    50f8:	c3                   	retq   
    50f9:	0f 1f 80 00 00 00 00 	nopl   0x0(%rax)

0000000000005100 <register_tm_clones>:
    5100:	48 8d 3d 99 f2 00 00 	lea    0xf299(%rip),%rdi        # 143a0 <__TMC_END__>
    5107:	48 8d 35 92 f2 00 00 	lea    0xf292(%rip),%rsi        # 143a0 <__TMC_END__>
    510e:	48 29 fe             	sub    %rdi,%rsi
    5111:	48 89 f0             	mov    %rsi,%rax
    5114:	48 c1 ee 3f          	shr    $0x3f,%rsi
    5118:	48 c1 f8 03          	sar    $0x3,%rax
    511c:	48 01 c6             	add    %rax,%rsi
    511f:	48 d1 fe             	sar    %rsi
    5122:	74 14                	je     5138 <register_tm_clones+0x38>
    5124:	48 8b 05 ad ce 00 00 	mov    0xcead(%rip),%rax        # 11fd8 <_ITM_registerTMCloneTable>
    512b:	48 85 c0             	test   %rax,%rax
    512e:	74 08                	je     5138 <register_tm_clones+0x38>
    5130:	ff e0                	jmpq   *%rax
    5132:	66 0f 1f 44 00 00    	nopw   0x0(%rax,%rax,1)
    5138:	c3                   	retq   
    5139:	0f 1f 80 00 00 00 00 	nopl   0x0(%rax)

0000000000005140 <__do_global_dtors_aux>:
    5140:	f3 0f 1e fa          	endbr64 
    5144:	80 3d 55 f2 00 00 00 	cmpb   $0x0,0xf255(%rip)        # 143a0 <__TMC_END__>
    514b:	75 2b                	jne    5178 <__do_global_dtors_aux+0x38>
    514d:	55                   	push   %rbp
    514e:	48 83 3d 8a ce 00 00 	cmpq   $0x0,0xce8a(%rip)        # 11fe0 <__cxa_finalize@GLIBC_2.2.5>
    5155:	00 
    5156:	48 89 e5             	mov    %rsp,%rbp
    5159:	74 0c                	je     5167 <__do_global_dtors_aux+0x27>
    515b:	48 8b 3d a6 ce 00 00 	mov    0xcea6(%rip),%rdi        # 12008 <__dso_handle>
    5162:	e8 f9 fe ff ff       	callq  5060 <__cxa_finalize@plt>
    5167:	e8 64 ff ff ff       	callq  50d0 <deregister_tm_clones>
    516c:	c6 05 2d f2 00 00 01 	movb   $0x1,0xf22d(%rip)        # 143a0 <__TMC_END__>
    5173:	5d                   	pop    %rbp
    5174:	c3                   	retq   
    5175:	0f 1f 00             	nopl   (%rax)
    5178:	c3                   	retq   
    5179:	0f 1f 80 00 00 00 00 	nopl   0x0(%rax)

0000000000005180 <frame_dummy>:
    5180:	f3 0f 1e fa          	endbr64 
    5184:	e9 77 ff ff ff       	jmpq   5100 <register_tm_clones>

0000000000005189 <platform_main_begin>:
    5189:	f3 0f 1e fa          	endbr64 
    518d:	55                   	push   %rbp
    518e:	48 89 e5             	mov    %rsp,%rbp
    5191:	90                   	nop
    5192:	5d                   	pop    %rbp
    5193:	c3                   	retq   

0000000000005194 <platform_main_end>:
    5194:	f3 0f 1e fa          	endbr64 
    5198:	55                   	push   %rbp
    5199:	48 89 e5             	mov    %rsp,%rbp
    519c:	48 83 ec 10          	sub    $0x10,%rsp
    51a0:	89 7d fc             	mov    %edi,-0x4(%rbp)
    51a3:	89 75 f8             	mov    %esi,-0x8(%rbp)
    51a6:	8b 45 fc             	mov    -0x4(%rbp),%eax
    51a9:	89 c6                	mov    %eax,%esi
    51ab:	48 8d 3d 6e 8e 00 00 	lea    0x8e6e(%rip),%rdi        # e020 <_IO_stdin_used+0x20>
    51b2:	b8 00 00 00 00       	mov    $0x0,%eax
    51b7:	e8 c4 fe ff ff       	callq  5080 <printf@plt>
    51bc:	90                   	nop
    51bd:	c9                   	leaveq 
    51be:	c3                   	retq   

00000000000051bf <safe_unary_minus_func_int8_t_s>:
    51bf:	f3 0f 1e fa          	endbr64 
    51c3:	55                   	push   %rbp
    51c4:	48 89 e5             	mov    %rsp,%rbp
    51c7:	89 f8                	mov    %edi,%eax
    51c9:	88 45 fc             	mov    %al,-0x4(%rbp)
    51cc:	0f b6 45 fc          	movzbl -0x4(%rbp),%eax
    51d0:	f7 d8                	neg    %eax
    51d2:	5d                   	pop    %rbp
    51d3:	c3                   	retq   

00000000000051d4 <safe_add_func_int8_t_s_s>:
    51d4:	f3 0f 1e fa          	endbr64 
    51d8:	55                   	push   %rbp
    51d9:	48 89 e5             	mov    %rsp,%rbp
    51dc:	89 fa                	mov    %edi,%edx
    51de:	89 f0                	mov    %esi,%eax
    51e0:	88 55 fc             	mov    %dl,-0x4(%rbp)
    51e3:	88 45 f8             	mov    %al,-0x8(%rbp)
    51e6:	0f b6 55 fc          	movzbl -0x4(%rbp),%edx
    51ea:	0f b6 45 f8          	movzbl -0x8(%rbp),%eax
    51ee:	01 d0                	add    %edx,%eax
    51f0:	5d                   	pop    %rbp
    51f1:	c3                   	retq   

00000000000051f2 <safe_sub_func_int8_t_s_s>:
    51f2:	f3 0f 1e fa          	endbr64 
    51f6:	55                   	push   %rbp
    51f7:	48 89 e5             	mov    %rsp,%rbp
    51fa:	89 fa                	mov    %edi,%edx
    51fc:	89 f0                	mov    %esi,%eax
    51fe:	88 55 fc             	mov    %dl,-0x4(%rbp)
    5201:	88 45 f8             	mov    %al,-0x8(%rbp)
    5204:	0f b6 55 fc          	movzbl -0x4(%rbp),%edx
    5208:	0f b6 45 f8          	movzbl -0x8(%rbp),%eax
    520c:	29 c2                	sub    %eax,%edx
    520e:	89 d0                	mov    %edx,%eax
    5210:	5d                   	pop    %rbp
    5211:	c3                   	retq   

0000000000005212 <safe_mul_func_int8_t_s_s>:
    5212:	f3 0f 1e fa          	endbr64 
    5216:	55                   	push   %rbp
    5217:	48 89 e5             	mov    %rsp,%rbp
    521a:	89 fa                	mov    %edi,%edx
    521c:	89 f0                	mov    %esi,%eax
    521e:	88 55 fc             	mov    %dl,-0x4(%rbp)
    5221:	88 45 f8             	mov    %al,-0x8(%rbp)
    5224:	0f b6 45 fc          	movzbl -0x4(%rbp),%eax
    5228:	0f b6 55 f8          	movzbl -0x8(%rbp),%edx
    522c:	0f af c2             	imul   %edx,%eax
    522f:	5d                   	pop    %rbp
    5230:	c3                   	retq   

0000000000005231 <safe_mod_func_int8_t_s_s>:
    5231:	f3 0f 1e fa          	endbr64 
    5235:	55                   	push   %rbp
    5236:	48 89 e5             	mov    %rsp,%rbp
    5239:	89 fa                	mov    %edi,%edx
    523b:	89 f0                	mov    %esi,%eax
    523d:	88 55 fc             	mov    %dl,-0x4(%rbp)
    5240:	88 45 f8             	mov    %al,-0x8(%rbp)
    5243:	80 7d f8 00          	cmpb   $0x0,-0x8(%rbp)
    5247:	74 1b                	je     5264 <safe_mod_func_int8_t_s_s+0x33>
    5249:	80 7d fc 80          	cmpb   $0x80,-0x4(%rbp)
    524d:	75 06                	jne    5255 <safe_mod_func_int8_t_s_s+0x24>
    524f:	80 7d f8 ff          	cmpb   $0xff,-0x8(%rbp)
    5253:	74 0f                	je     5264 <safe_mod_func_int8_t_s_s+0x33>
    5255:	0f be 45 fc          	movsbl -0x4(%rbp),%eax
    5259:	0f be 4d f8          	movsbl -0x8(%rbp),%ecx
    525d:	99                   	cltd   
    525e:	f7 f9                	idiv   %ecx
    5260:	89 d0                	mov    %edx,%eax
    5262:	eb 04                	jmp    5268 <safe_mod_func_int8_t_s_s+0x37>
    5264:	0f b6 45 fc          	movzbl -0x4(%rbp),%eax
    5268:	5d                   	pop    %rbp
    5269:	c3                   	retq   

000000000000526a <safe_div_func_int8_t_s_s>:
    526a:	f3 0f 1e fa          	endbr64 
    526e:	55                   	push   %rbp
    526f:	48 89 e5             	mov    %rsp,%rbp
    5272:	89 fa                	mov    %edi,%edx
    5274:	89 f0                	mov    %esi,%eax
    5276:	88 55 fc             	mov    %dl,-0x4(%rbp)
    5279:	88 45 f8             	mov    %al,-0x8(%rbp)
    527c:	80 7d f8 00          	cmpb   $0x0,-0x8(%rbp)
    5280:	74 19                	je     529b <safe_div_func_int8_t_s_s+0x31>
    5282:	80 7d fc 80          	cmpb   $0x80,-0x4(%rbp)
    5286:	75 06                	jne    528e <safe_div_func_int8_t_s_s+0x24>
    5288:	80 7d f8 ff          	cmpb   $0xff,-0x8(%rbp)
    528c:	74 0d                	je     529b <safe_div_func_int8_t_s_s+0x31>
    528e:	0f be 45 fc          	movsbl -0x4(%rbp),%eax
    5292:	0f be 4d f8          	movsbl -0x8(%rbp),%ecx
    5296:	99                   	cltd   
    5297:	f7 f9                	idiv   %ecx
    5299:	eb 04                	jmp    529f <safe_div_func_int8_t_s_s+0x35>
    529b:	0f b6 45 fc          	movzbl -0x4(%rbp),%eax
    529f:	5d                   	pop    %rbp
    52a0:	c3                   	retq   

00000000000052a1 <safe_lshift_func_int8_t_s_s>:
    52a1:	f3 0f 1e fa          	endbr64 
    52a5:	55                   	push   %rbp
    52a6:	48 89 e5             	mov    %rsp,%rbp
    52a9:	89 f8                	mov    %edi,%eax
    52ab:	89 75 f8             	mov    %esi,-0x8(%rbp)
    52ae:	88 45 fc             	mov    %al,-0x4(%rbp)
    52b1:	80 7d fc 00          	cmpb   $0x0,-0x4(%rbp)
    52b5:	78 31                	js     52e8 <safe_lshift_func_int8_t_s_s+0x47>
    52b7:	83 7d f8 00          	cmpl   $0x0,-0x8(%rbp)
    52bb:	78 2b                	js     52e8 <safe_lshift_func_int8_t_s_s+0x47>
    52bd:	83 7d f8 1f          	cmpl   $0x1f,-0x8(%rbp)
    52c1:	7f 25                	jg     52e8 <safe_lshift_func_int8_t_s_s+0x47>
    52c3:	0f be 55 fc          	movsbl -0x4(%rbp),%edx
    52c7:	8b 45 f8             	mov    -0x8(%rbp),%eax
    52ca:	be 7f 00 00 00       	mov    $0x7f,%esi
    52cf:	89 c1                	mov    %eax,%ecx
    52d1:	d3 fe                	sar    %cl,%esi
    52d3:	89 f0                	mov    %esi,%eax
    52d5:	39 c2                	cmp    %eax,%edx
    52d7:	7f 0f                	jg     52e8 <safe_lshift_func_int8_t_s_s+0x47>
    52d9:	0f be 55 fc          	movsbl -0x4(%rbp),%edx
    52dd:	8b 45 f8             	mov    -0x8(%rbp),%eax
    52e0:	89 c1                	mov    %eax,%ecx
    52e2:	d3 e2                	shl    %cl,%edx
    52e4:	89 d0                	mov    %edx,%eax
    52e6:	eb 04                	jmp    52ec <safe_lshift_func_int8_t_s_s+0x4b>
    52e8:	0f b6 45 fc          	movzbl -0x4(%rbp),%eax
    52ec:	5d                   	pop    %rbp
    52ed:	c3                   	retq   

00000000000052ee <safe_lshift_func_int8_t_s_u>:
    52ee:	f3 0f 1e fa          	endbr64 
    52f2:	55                   	push   %rbp
    52f3:	48 89 e5             	mov    %rsp,%rbp
    52f6:	89 f8                	mov    %edi,%eax
    52f8:	89 75 f8             	mov    %esi,-0x8(%rbp)
    52fb:	88 45 fc             	mov    %al,-0x4(%rbp)
    52fe:	80 7d fc 00          	cmpb   $0x0,-0x4(%rbp)
    5302:	78 2b                	js     532f <safe_lshift_func_int8_t_s_u+0x41>
    5304:	83 7d f8 1f          	cmpl   $0x1f,-0x8(%rbp)
    5308:	77 25                	ja     532f <safe_lshift_func_int8_t_s_u+0x41>
    530a:	0f be 55 fc          	movsbl -0x4(%rbp),%edx
    530e:	8b 45 f8             	mov    -0x8(%rbp),%eax
    5311:	be 7f 00 00 00       	mov    $0x7f,%esi
    5316:	89 c1                	mov    %eax,%ecx
    5318:	d3 fe                	sar    %cl,%esi
    531a:	89 f0                	mov    %esi,%eax
    531c:	39 c2                	cmp    %eax,%edx
    531e:	7f 0f                	jg     532f <safe_lshift_func_int8_t_s_u+0x41>
    5320:	0f be 55 fc          	movsbl -0x4(%rbp),%edx
    5324:	8b 45 f8             	mov    -0x8(%rbp),%eax
    5327:	89 c1                	mov    %eax,%ecx
    5329:	d3 e2                	shl    %cl,%edx
    532b:	89 d0                	mov    %edx,%eax
    532d:	eb 04                	jmp    5333 <safe_lshift_func_int8_t_s_u+0x45>
    532f:	0f b6 45 fc          	movzbl -0x4(%rbp),%eax
    5333:	5d                   	pop    %rbp
    5334:	c3                   	retq   

0000000000005335 <safe_rshift_func_int8_t_s_s>:
    5335:	f3 0f 1e fa          	endbr64 
    5339:	55                   	push   %rbp
    533a:	48 89 e5             	mov    %rsp,%rbp
    533d:	89 f8                	mov    %edi,%eax
    533f:	89 75 f8             	mov    %esi,-0x8(%rbp)
    5342:	88 45 fc             	mov    %al,-0x4(%rbp)
    5345:	80 7d fc 00          	cmpb   $0x0,-0x4(%rbp)
    5349:	78 1b                	js     5366 <safe_rshift_func_int8_t_s_s+0x31>
    534b:	83 7d f8 00          	cmpl   $0x0,-0x8(%rbp)
    534f:	78 15                	js     5366 <safe_rshift_func_int8_t_s_s+0x31>
    5351:	83 7d f8 1f          	cmpl   $0x1f,-0x8(%rbp)
    5355:	7f 0f                	jg     5366 <safe_rshift_func_int8_t_s_s+0x31>
    5357:	0f be 55 fc          	movsbl -0x4(%rbp),%edx
    535b:	8b 45 f8             	mov    -0x8(%rbp),%eax
    535e:	89 c1                	mov    %eax,%ecx
    5360:	d3 fa                	sar    %cl,%edx
    5362:	89 d0                	mov    %edx,%eax
    5364:	eb 04                	jmp    536a <safe_rshift_func_int8_t_s_s+0x35>
    5366:	0f b6 45 fc          	movzbl -0x4(%rbp),%eax
    536a:	5d                   	pop    %rbp
    536b:	c3                   	retq   

000000000000536c <safe_rshift_func_int8_t_s_u>:
    536c:	f3 0f 1e fa          	endbr64 
    5370:	55                   	push   %rbp
    5371:	48 89 e5             	mov    %rsp,%rbp
    5374:	89 f8                	mov    %edi,%eax
    5376:	89 75 f8             	mov    %esi,-0x8(%rbp)
    5379:	88 45 fc             	mov    %al,-0x4(%rbp)
    537c:	80 7d fc 00          	cmpb   $0x0,-0x4(%rbp)
    5380:	78 15                	js     5397 <safe_rshift_func_int8_t_s_u+0x2b>
    5382:	83 7d f8 1f          	cmpl   $0x1f,-0x8(%rbp)
    5386:	77 0f                	ja     5397 <safe_rshift_func_int8_t_s_u+0x2b>
    5388:	0f be 55 fc          	movsbl -0x4(%rbp),%edx
    538c:	8b 45 f8             	mov    -0x8(%rbp),%eax
    538f:	89 c1                	mov    %eax,%ecx
    5391:	d3 fa                	sar    %cl,%edx
    5393:	89 d0                	mov    %edx,%eax
    5395:	eb 04                	jmp    539b <safe_rshift_func_int8_t_s_u+0x2f>
    5397:	0f b6 45 fc          	movzbl -0x4(%rbp),%eax
    539b:	5d                   	pop    %rbp
    539c:	c3                   	retq   

000000000000539d <safe_unary_minus_func_int16_t_s>:
    539d:	f3 0f 1e fa          	endbr64 
    53a1:	55                   	push   %rbp
    53a2:	48 89 e5             	mov    %rsp,%rbp
    53a5:	89 f8                	mov    %edi,%eax
    53a7:	66 89 45 fc          	mov    %ax,-0x4(%rbp)
    53ab:	0f b7 45 fc          	movzwl -0x4(%rbp),%eax
    53af:	f7 d8                	neg    %eax
    53b1:	5d                   	pop    %rbp
    53b2:	c3                   	retq   

00000000000053b3 <safe_add_func_int16_t_s_s>:
    53b3:	f3 0f 1e fa          	endbr64 
    53b7:	55                   	push   %rbp
    53b8:	48 89 e5             	mov    %rsp,%rbp
    53bb:	89 fa                	mov    %edi,%edx
    53bd:	89 f0                	mov    %esi,%eax
    53bf:	66 89 55 fc          	mov    %dx,-0x4(%rbp)
    53c3:	66 89 45 f8          	mov    %ax,-0x8(%rbp)
    53c7:	0f b7 55 fc          	movzwl -0x4(%rbp),%edx
    53cb:	0f b7 45 f8          	movzwl -0x8(%rbp),%eax
    53cf:	01 d0                	add    %edx,%eax
    53d1:	5d                   	pop    %rbp
    53d2:	c3                   	retq   

00000000000053d3 <safe_sub_func_int16_t_s_s>:
    53d3:	f3 0f 1e fa          	endbr64 
    53d7:	55                   	push   %rbp
    53d8:	48 89 e5             	mov    %rsp,%rbp
    53db:	89 fa                	mov    %edi,%edx
    53dd:	89 f0                	mov    %esi,%eax
    53df:	66 89 55 fc          	mov    %dx,-0x4(%rbp)
    53e3:	66 89 45 f8          	mov    %ax,-0x8(%rbp)
    53e7:	0f b7 55 fc          	movzwl -0x4(%rbp),%edx
    53eb:	0f b7 45 f8          	movzwl -0x8(%rbp),%eax
    53ef:	29 c2                	sub    %eax,%edx
    53f1:	89 d0                	mov    %edx,%eax
    53f3:	5d                   	pop    %rbp
    53f4:	c3                   	retq   

00000000000053f5 <safe_mul_func_int16_t_s_s>:
    53f5:	f3 0f 1e fa          	endbr64 
    53f9:	55                   	push   %rbp
    53fa:	48 89 e5             	mov    %rsp,%rbp
    53fd:	89 fa                	mov    %edi,%edx
    53ff:	89 f0                	mov    %esi,%eax
    5401:	66 89 55 fc          	mov    %dx,-0x4(%rbp)
    5405:	66 89 45 f8          	mov    %ax,-0x8(%rbp)
    5409:	0f b7 55 fc          	movzwl -0x4(%rbp),%edx
    540d:	0f b7 45 f8          	movzwl -0x8(%rbp),%eax
    5411:	0f af c2             	imul   %edx,%eax
    5414:	5d                   	pop    %rbp
    5415:	c3                   	retq   

0000000000005416 <safe_mod_func_int16_t_s_s>:
    5416:	f3 0f 1e fa          	endbr64 
    541a:	55                   	push   %rbp
    541b:	48 89 e5             	mov    %rsp,%rbp
    541e:	89 fa                	mov    %edi,%edx
    5420:	89 f0                	mov    %esi,%eax
    5422:	66 89 55 fc          	mov    %dx,-0x4(%rbp)
    5426:	66 89 45 f8          	mov    %ax,-0x8(%rbp)
    542a:	66 83 7d f8 00       	cmpw   $0x0,-0x8(%rbp)
    542f:	74 1e                	je     544f <safe_mod_func_int16_t_s_s+0x39>
    5431:	66 81 7d fc 00 80    	cmpw   $0x8000,-0x4(%rbp)
    5437:	75 07                	jne    5440 <safe_mod_func_int16_t_s_s+0x2a>
    5439:	66 83 7d f8 ff       	cmpw   $0xffff,-0x8(%rbp)
    543e:	74 0f                	je     544f <safe_mod_func_int16_t_s_s+0x39>
    5440:	0f bf 45 fc          	movswl -0x4(%rbp),%eax
    5444:	0f bf 4d f8          	movswl -0x8(%rbp),%ecx
    5448:	99                   	cltd   
    5449:	f7 f9                	idiv   %ecx
    544b:	89 d0                	mov    %edx,%eax
    544d:	eb 04                	jmp    5453 <safe_mod_func_int16_t_s_s+0x3d>
    544f:	0f b7 45 fc          	movzwl -0x4(%rbp),%eax
    5453:	5d                   	pop    %rbp
    5454:	c3                   	retq   

0000000000005455 <safe_div_func_int16_t_s_s>:
    5455:	f3 0f 1e fa          	endbr64 
    5459:	55                   	push   %rbp
    545a:	48 89 e5             	mov    %rsp,%rbp
    545d:	89 fa                	mov    %edi,%edx
    545f:	89 f0                	mov    %esi,%eax
    5461:	66 89 55 fc          	mov    %dx,-0x4(%rbp)
    5465:	66 89 45 f8          	mov    %ax,-0x8(%rbp)
    5469:	66 83 7d f8 00       	cmpw   $0x0,-0x8(%rbp)
    546e:	74 1c                	je     548c <safe_div_func_int16_t_s_s+0x37>
    5470:	66 81 7d fc 00 80    	cmpw   $0x8000,-0x4(%rbp)
    5476:	75 07                	jne    547f <safe_div_func_int16_t_s_s+0x2a>
    5478:	66 83 7d f8 ff       	cmpw   $0xffff,-0x8(%rbp)
    547d:	74 0d                	je     548c <safe_div_func_int16_t_s_s+0x37>
    547f:	0f bf 45 fc          	movswl -0x4(%rbp),%eax
    5483:	0f bf 4d f8          	movswl -0x8(%rbp),%ecx
    5487:	99                   	cltd   
    5488:	f7 f9                	idiv   %ecx
    548a:	eb 04                	jmp    5490 <safe_div_func_int16_t_s_s+0x3b>
    548c:	0f b7 45 fc          	movzwl -0x4(%rbp),%eax
    5490:	5d                   	pop    %rbp
    5491:	c3                   	retq   

0000000000005492 <safe_lshift_func_int16_t_s_s>:
    5492:	f3 0f 1e fa          	endbr64 
    5496:	55                   	push   %rbp
    5497:	48 89 e5             	mov    %rsp,%rbp
    549a:	89 f8                	mov    %edi,%eax
    549c:	89 75 f8             	mov    %esi,-0x8(%rbp)
    549f:	66 89 45 fc          	mov    %ax,-0x4(%rbp)
    54a3:	66 83 7d fc 00       	cmpw   $0x0,-0x4(%rbp)
    54a8:	78 31                	js     54db <safe_lshift_func_int16_t_s_s+0x49>
    54aa:	83 7d f8 00          	cmpl   $0x0,-0x8(%rbp)
    54ae:	78 2b                	js     54db <safe_lshift_func_int16_t_s_s+0x49>
    54b0:	83 7d f8 1f          	cmpl   $0x1f,-0x8(%rbp)
    54b4:	7f 25                	jg     54db <safe_lshift_func_int16_t_s_s+0x49>
    54b6:	0f bf 55 fc          	movswl -0x4(%rbp),%edx
    54ba:	8b 45 f8             	mov    -0x8(%rbp),%eax
    54bd:	be ff 7f 00 00       	mov    $0x7fff,%esi
    54c2:	89 c1                	mov    %eax,%ecx
    54c4:	d3 fe                	sar    %cl,%esi
    54c6:	89 f0                	mov    %esi,%eax
    54c8:	39 c2                	cmp    %eax,%edx
    54ca:	7f 0f                	jg     54db <safe_lshift_func_int16_t_s_s+0x49>
    54cc:	0f bf 55 fc          	movswl -0x4(%rbp),%edx
    54d0:	8b 45 f8             	mov    -0x8(%rbp),%eax
    54d3:	89 c1                	mov    %eax,%ecx
    54d5:	d3 e2                	shl    %cl,%edx
    54d7:	89 d0                	mov    %edx,%eax
    54d9:	eb 04                	jmp    54df <safe_lshift_func_int16_t_s_s+0x4d>
    54db:	0f b7 45 fc          	movzwl -0x4(%rbp),%eax
    54df:	5d                   	pop    %rbp
    54e0:	c3                   	retq   

00000000000054e1 <safe_lshift_func_int16_t_s_u>:
    54e1:	f3 0f 1e fa          	endbr64 
    54e5:	55                   	push   %rbp
    54e6:	48 89 e5             	mov    %rsp,%rbp
    54e9:	89 f8                	mov    %edi,%eax
    54eb:	89 75 f8             	mov    %esi,-0x8(%rbp)
    54ee:	66 89 45 fc          	mov    %ax,-0x4(%rbp)
    54f2:	66 83 7d fc 00       	cmpw   $0x0,-0x4(%rbp)
    54f7:	78 2b                	js     5524 <safe_lshift_func_int16_t_s_u+0x43>
    54f9:	83 7d f8 1f          	cmpl   $0x1f,-0x8(%rbp)
    54fd:	77 25                	ja     5524 <safe_lshift_func_int16_t_s_u+0x43>
    54ff:	0f bf 55 fc          	movswl -0x4(%rbp),%edx
    5503:	8b 45 f8             	mov    -0x8(%rbp),%eax
    5506:	be ff 7f 00 00       	mov    $0x7fff,%esi
    550b:	89 c1                	mov    %eax,%ecx
    550d:	d3 fe                	sar    %cl,%esi
    550f:	89 f0                	mov    %esi,%eax
    5511:	39 c2                	cmp    %eax,%edx
    5513:	7f 0f                	jg     5524 <safe_lshift_func_int16_t_s_u+0x43>
    5515:	0f bf 55 fc          	movswl -0x4(%rbp),%edx
    5519:	8b 45 f8             	mov    -0x8(%rbp),%eax
    551c:	89 c1                	mov    %eax,%ecx
    551e:	d3 e2                	shl    %cl,%edx
    5520:	89 d0                	mov    %edx,%eax
    5522:	eb 04                	jmp    5528 <safe_lshift_func_int16_t_s_u+0x47>
    5524:	0f b7 45 fc          	movzwl -0x4(%rbp),%eax
    5528:	5d                   	pop    %rbp
    5529:	c3                   	retq   

000000000000552a <safe_rshift_func_int16_t_s_s>:
    552a:	f3 0f 1e fa          	endbr64 
    552e:	55                   	push   %rbp
    552f:	48 89 e5             	mov    %rsp,%rbp
    5532:	89 f8                	mov    %edi,%eax
    5534:	89 75 f8             	mov    %esi,-0x8(%rbp)
    5537:	66 89 45 fc          	mov    %ax,-0x4(%rbp)
    553b:	66 83 7d fc 00       	cmpw   $0x0,-0x4(%rbp)
    5540:	78 1b                	js     555d <safe_rshift_func_int16_t_s_s+0x33>
    5542:	83 7d f8 00          	cmpl   $0x0,-0x8(%rbp)
    5546:	78 15                	js     555d <safe_rshift_func_int16_t_s_s+0x33>
    5548:	83 7d f8 1f          	cmpl   $0x1f,-0x8(%rbp)
    554c:	7f 0f                	jg     555d <safe_rshift_func_int16_t_s_s+0x33>
    554e:	0f bf 55 fc          	movswl -0x4(%rbp),%edx
    5552:	8b 45 f8             	mov    -0x8(%rbp),%eax
    5555:	89 c1                	mov    %eax,%ecx
    5557:	d3 fa                	sar    %cl,%edx
    5559:	89 d0                	mov    %edx,%eax
    555b:	eb 04                	jmp    5561 <safe_rshift_func_int16_t_s_s+0x37>
    555d:	0f b7 45 fc          	movzwl -0x4(%rbp),%eax
    5561:	5d                   	pop    %rbp
    5562:	c3                   	retq   

0000000000005563 <safe_rshift_func_int16_t_s_u>:
    5563:	f3 0f 1e fa          	endbr64 
    5567:	55                   	push   %rbp
    5568:	48 89 e5             	mov    %rsp,%rbp
    556b:	89 f8                	mov    %edi,%eax
    556d:	89 75 f8             	mov    %esi,-0x8(%rbp)
    5570:	66 89 45 fc          	mov    %ax,-0x4(%rbp)
    5574:	66 83 7d fc 00       	cmpw   $0x0,-0x4(%rbp)
    5579:	78 15                	js     5590 <safe_rshift_func_int16_t_s_u+0x2d>
    557b:	83 7d f8 1f          	cmpl   $0x1f,-0x8(%rbp)
    557f:	77 0f                	ja     5590 <safe_rshift_func_int16_t_s_u+0x2d>
    5581:	0f bf 55 fc          	movswl -0x4(%rbp),%edx
    5585:	8b 45 f8             	mov    -0x8(%rbp),%eax
    5588:	89 c1                	mov    %eax,%ecx
    558a:	d3 fa                	sar    %cl,%edx
    558c:	89 d0                	mov    %edx,%eax
    558e:	eb 04                	jmp    5594 <safe_rshift_func_int16_t_s_u+0x31>
    5590:	0f b7 45 fc          	movzwl -0x4(%rbp),%eax
    5594:	5d                   	pop    %rbp
    5595:	c3                   	retq   

0000000000005596 <safe_unary_minus_func_int32_t_s>:
    5596:	f3 0f 1e fa          	endbr64 
    559a:	55                   	push   %rbp
    559b:	48 89 e5             	mov    %rsp,%rbp
    559e:	89 7d fc             	mov    %edi,-0x4(%rbp)
    55a1:	81 7d fc 00 00 00 80 	cmpl   $0x80000000,-0x4(%rbp)
    55a8:	74 07                	je     55b1 <safe_unary_minus_func_int32_t_s+0x1b>
    55aa:	8b 45 fc             	mov    -0x4(%rbp),%eax
    55ad:	f7 d8                	neg    %eax
    55af:	eb 03                	jmp    55b4 <safe_unary_minus_func_int32_t_s+0x1e>
    55b1:	8b 45 fc             	mov    -0x4(%rbp),%eax
    55b4:	5d                   	pop    %rbp
    55b5:	c3                   	retq   

00000000000055b6 <safe_add_func_int32_t_s_s>:
    55b6:	f3 0f 1e fa          	endbr64 
    55ba:	55                   	push   %rbp
    55bb:	48 89 e5             	mov    %rsp,%rbp
    55be:	89 7d fc             	mov    %edi,-0x4(%rbp)
    55c1:	89 75 f8             	mov    %esi,-0x8(%rbp)
    55c4:	83 7d fc 00          	cmpl   $0x0,-0x4(%rbp)
    55c8:	7e 13                	jle    55dd <safe_add_func_int32_t_s_s+0x27>
    55ca:	83 7d f8 00          	cmpl   $0x0,-0x8(%rbp)
    55ce:	7e 0d                	jle    55dd <safe_add_func_int32_t_s_s+0x27>
    55d0:	b8 ff ff ff 7f       	mov    $0x7fffffff,%eax
    55d5:	2b 45 f8             	sub    -0x8(%rbp),%eax
    55d8:	39 45 fc             	cmp    %eax,-0x4(%rbp)
    55db:	7f 23                	jg     5600 <safe_add_func_int32_t_s_s+0x4a>
    55dd:	83 7d fc 00          	cmpl   $0x0,-0x4(%rbp)
    55e1:	79 13                	jns    55f6 <safe_add_func_int32_t_s_s+0x40>
    55e3:	83 7d f8 00          	cmpl   $0x0,-0x8(%rbp)
    55e7:	79 0d                	jns    55f6 <safe_add_func_int32_t_s_s+0x40>
    55e9:	b8 00 00 00 80       	mov    $0x80000000,%eax
    55ee:	2b 45 f8             	sub    -0x8(%rbp),%eax
    55f1:	39 45 fc             	cmp    %eax,-0x4(%rbp)
    55f4:	7c 0a                	jl     5600 <safe_add_func_int32_t_s_s+0x4a>
    55f6:	8b 55 fc             	mov    -0x4(%rbp),%edx
    55f9:	8b 45 f8             	mov    -0x8(%rbp),%eax
    55fc:	01 d0                	add    %edx,%eax
    55fe:	eb 03                	jmp    5603 <safe_add_func_int32_t_s_s+0x4d>
    5600:	8b 45 fc             	mov    -0x4(%rbp),%eax
    5603:	5d                   	pop    %rbp
    5604:	c3                   	retq   

0000000000005605 <safe_sub_func_int32_t_s_s>:
    5605:	f3 0f 1e fa          	endbr64 
    5609:	55                   	push   %rbp
    560a:	48 89 e5             	mov    %rsp,%rbp
    560d:	89 7d fc             	mov    %edi,-0x4(%rbp)
    5610:	89 75 f8             	mov    %esi,-0x8(%rbp)
    5613:	8b 45 fc             	mov    -0x4(%rbp),%eax
    5616:	33 45 f8             	xor    -0x8(%rbp),%eax
    5619:	89 c2                	mov    %eax,%edx
    561b:	8b 45 fc             	mov    -0x4(%rbp),%eax
    561e:	33 45 f8             	xor    -0x8(%rbp),%eax
    5621:	25 00 00 00 80       	and    $0x80000000,%eax
    5626:	33 45 fc             	xor    -0x4(%rbp),%eax
    5629:	2b 45 f8             	sub    -0x8(%rbp),%eax
    562c:	33 45 f8             	xor    -0x8(%rbp),%eax
    562f:	21 d0                	and    %edx,%eax
    5631:	85 c0                	test   %eax,%eax
    5633:	78 08                	js     563d <safe_sub_func_int32_t_s_s+0x38>
    5635:	8b 45 fc             	mov    -0x4(%rbp),%eax
    5638:	2b 45 f8             	sub    -0x8(%rbp),%eax
    563b:	eb 03                	jmp    5640 <safe_sub_func_int32_t_s_s+0x3b>
    563d:	8b 45 fc             	mov    -0x4(%rbp),%eax
    5640:	5d                   	pop    %rbp
    5641:	c3                   	retq   

0000000000005642 <safe_mul_func_int32_t_s_s>:
    5642:	f3 0f 1e fa          	endbr64 
    5646:	55                   	push   %rbp
    5647:	48 89 e5             	mov    %rsp,%rbp
    564a:	89 7d fc             	mov    %edi,-0x4(%rbp)
    564d:	89 75 f8             	mov    %esi,-0x8(%rbp)
    5650:	83 7d fc 00          	cmpl   $0x0,-0x4(%rbp)
    5654:	7e 14                	jle    566a <safe_mul_func_int32_t_s_s+0x28>
    5656:	83 7d f8 00          	cmpl   $0x0,-0x8(%rbp)
    565a:	7e 0e                	jle    566a <safe_mul_func_int32_t_s_s+0x28>
    565c:	b8 ff ff ff 7f       	mov    $0x7fffffff,%eax
    5661:	99                   	cltd   
    5662:	f7 7d f8             	idivl  -0x8(%rbp)
    5665:	39 45 fc             	cmp    %eax,-0x4(%rbp)
    5668:	7f 5d                	jg     56c7 <safe_mul_func_int32_t_s_s+0x85>
    566a:	83 7d fc 00          	cmpl   $0x0,-0x4(%rbp)
    566e:	7e 14                	jle    5684 <safe_mul_func_int32_t_s_s+0x42>
    5670:	83 7d f8 00          	cmpl   $0x0,-0x8(%rbp)
    5674:	7f 0e                	jg     5684 <safe_mul_func_int32_t_s_s+0x42>
    5676:	b8 00 00 00 80       	mov    $0x80000000,%eax
    567b:	99                   	cltd   
    567c:	f7 7d fc             	idivl  -0x4(%rbp)
    567f:	39 45 f8             	cmp    %eax,-0x8(%rbp)
    5682:	7c 43                	jl     56c7 <safe_mul_func_int32_t_s_s+0x85>
    5684:	83 7d fc 00          	cmpl   $0x0,-0x4(%rbp)
    5688:	7f 14                	jg     569e <safe_mul_func_int32_t_s_s+0x5c>
    568a:	83 7d f8 00          	cmpl   $0x0,-0x8(%rbp)
    568e:	7e 0e                	jle    569e <safe_mul_func_int32_t_s_s+0x5c>
    5690:	b8 00 00 00 80       	mov    $0x80000000,%eax
    5695:	99                   	cltd   
    5696:	f7 7d f8             	idivl  -0x8(%rbp)
    5699:	39 45 fc             	cmp    %eax,-0x4(%rbp)
    569c:	7c 29                	jl     56c7 <safe_mul_func_int32_t_s_s+0x85>
    569e:	83 7d fc 00          	cmpl   $0x0,-0x4(%rbp)
    56a2:	7f 1a                	jg     56be <safe_mul_func_int32_t_s_s+0x7c>
    56a4:	83 7d f8 00          	cmpl   $0x0,-0x8(%rbp)
    56a8:	7f 14                	jg     56be <safe_mul_func_int32_t_s_s+0x7c>
    56aa:	83 7d fc 00          	cmpl   $0x0,-0x4(%rbp)
    56ae:	74 0e                	je     56be <safe_mul_func_int32_t_s_s+0x7c>
    56b0:	b8 ff ff ff 7f       	mov    $0x7fffffff,%eax
    56b5:	99                   	cltd   
    56b6:	f7 7d fc             	idivl  -0x4(%rbp)
    56b9:	39 45 f8             	cmp    %eax,-0x8(%rbp)
    56bc:	7c 09                	jl     56c7 <safe_mul_func_int32_t_s_s+0x85>
    56be:	8b 45 fc             	mov    -0x4(%rbp),%eax
    56c1:	0f af 45 f8          	imul   -0x8(%rbp),%eax
    56c5:	eb 03                	jmp    56ca <safe_mul_func_int32_t_s_s+0x88>
    56c7:	8b 45 fc             	mov    -0x4(%rbp),%eax
    56ca:	5d                   	pop    %rbp
    56cb:	c3                   	retq   

00000000000056cc <safe_mod_func_int32_t_s_s>:
    56cc:	f3 0f 1e fa          	endbr64 
    56d0:	55                   	push   %rbp
    56d1:	48 89 e5             	mov    %rsp,%rbp
    56d4:	89 7d fc             	mov    %edi,-0x4(%rbp)
    56d7:	89 75 f8             	mov    %esi,-0x8(%rbp)
    56da:	83 7d f8 00          	cmpl   $0x0,-0x8(%rbp)
    56de:	74 1a                	je     56fa <safe_mod_func_int32_t_s_s+0x2e>
    56e0:	81 7d fc 00 00 00 80 	cmpl   $0x80000000,-0x4(%rbp)
    56e7:	75 06                	jne    56ef <safe_mod_func_int32_t_s_s+0x23>
    56e9:	83 7d f8 ff          	cmpl   $0xffffffff,-0x8(%rbp)
    56ed:	74 0b                	je     56fa <safe_mod_func_int32_t_s_s+0x2e>
    56ef:	8b 45 fc             	mov    -0x4(%rbp),%eax
    56f2:	99                   	cltd   
    56f3:	f7 7d f8             	idivl  -0x8(%rbp)
    56f6:	89 d0                	mov    %edx,%eax
    56f8:	eb 03                	jmp    56fd <safe_mod_func_int32_t_s_s+0x31>
    56fa:	8b 45 fc             	mov    -0x4(%rbp),%eax
    56fd:	5d                   	pop    %rbp
    56fe:	c3                   	retq   

00000000000056ff <safe_div_func_int32_t_s_s>:
    56ff:	f3 0f 1e fa          	endbr64 
    5703:	55                   	push   %rbp
    5704:	48 89 e5             	mov    %rsp,%rbp
    5707:	89 7d fc             	mov    %edi,-0x4(%rbp)
    570a:	89 75 f8             	mov    %esi,-0x8(%rbp)
    570d:	83 7d f8 00          	cmpl   $0x0,-0x8(%rbp)
    5711:	74 18                	je     572b <safe_div_func_int32_t_s_s+0x2c>
    5713:	81 7d fc 00 00 00 80 	cmpl   $0x80000000,-0x4(%rbp)
    571a:	75 06                	jne    5722 <safe_div_func_int32_t_s_s+0x23>
    571c:	83 7d f8 ff          	cmpl   $0xffffffff,-0x8(%rbp)
    5720:	74 09                	je     572b <safe_div_func_int32_t_s_s+0x2c>
    5722:	8b 45 fc             	mov    -0x4(%rbp),%eax
    5725:	99                   	cltd   
    5726:	f7 7d f8             	idivl  -0x8(%rbp)
    5729:	eb 03                	jmp    572e <safe_div_func_int32_t_s_s+0x2f>
    572b:	8b 45 fc             	mov    -0x4(%rbp),%eax
    572e:	5d                   	pop    %rbp
    572f:	c3                   	retq   

0000000000005730 <safe_lshift_func_int32_t_s_s>:
    5730:	f3 0f 1e fa          	endbr64 
    5734:	55                   	push   %rbp
    5735:	48 89 e5             	mov    %rsp,%rbp
    5738:	89 7d fc             	mov    %edi,-0x4(%rbp)
    573b:	89 75 f8             	mov    %esi,-0x8(%rbp)
    573e:	83 7d fc 00          	cmpl   $0x0,-0x4(%rbp)
    5742:	78 2d                	js     5771 <safe_lshift_func_int32_t_s_s+0x41>
    5744:	83 7d f8 00          	cmpl   $0x0,-0x8(%rbp)
    5748:	78 27                	js     5771 <safe_lshift_func_int32_t_s_s+0x41>
    574a:	83 7d f8 1f          	cmpl   $0x1f,-0x8(%rbp)
    574e:	7f 21                	jg     5771 <safe_lshift_func_int32_t_s_s+0x41>
    5750:	8b 45 f8             	mov    -0x8(%rbp),%eax
    5753:	ba ff ff ff 7f       	mov    $0x7fffffff,%edx
    5758:	89 c1                	mov    %eax,%ecx
    575a:	d3 fa                	sar    %cl,%edx
    575c:	89 d0                	mov    %edx,%eax
    575e:	39 45 fc             	cmp    %eax,-0x4(%rbp)
    5761:	7f 0e                	jg     5771 <safe_lshift_func_int32_t_s_s+0x41>
    5763:	8b 45 f8             	mov    -0x8(%rbp),%eax
    5766:	8b 55 fc             	mov    -0x4(%rbp),%edx
    5769:	89 c1                	mov    %eax,%ecx
    576b:	d3 e2                	shl    %cl,%edx
    576d:	89 d0                	mov    %edx,%eax
    576f:	eb 03                	jmp    5774 <safe_lshift_func_int32_t_s_s+0x44>
    5771:	8b 45 fc             	mov    -0x4(%rbp),%eax
    5774:	5d                   	pop    %rbp
    5775:	c3                   	retq   

0000000000005776 <safe_lshift_func_int32_t_s_u>:
    5776:	f3 0f 1e fa          	endbr64 
    577a:	55                   	push   %rbp
    577b:	48 89 e5             	mov    %rsp,%rbp
    577e:	89 7d fc             	mov    %edi,-0x4(%rbp)
    5781:	89 75 f8             	mov    %esi,-0x8(%rbp)
    5784:	83 7d fc 00          	cmpl   $0x0,-0x4(%rbp)
    5788:	78 27                	js     57b1 <safe_lshift_func_int32_t_s_u+0x3b>
    578a:	83 7d f8 1f          	cmpl   $0x1f,-0x8(%rbp)
    578e:	77 21                	ja     57b1 <safe_lshift_func_int32_t_s_u+0x3b>
    5790:	8b 45 f8             	mov    -0x8(%rbp),%eax
    5793:	ba ff ff ff 7f       	mov    $0x7fffffff,%edx
    5798:	89 c1                	mov    %eax,%ecx
    579a:	d3 fa                	sar    %cl,%edx
    579c:	89 d0                	mov    %edx,%eax
    579e:	39 45 fc             	cmp    %eax,-0x4(%rbp)
    57a1:	7f 0e                	jg     57b1 <safe_lshift_func_int32_t_s_u+0x3b>
    57a3:	8b 45 f8             	mov    -0x8(%rbp),%eax
    57a6:	8b 55 fc             	mov    -0x4(%rbp),%edx
    57a9:	89 c1                	mov    %eax,%ecx
    57ab:	d3 e2                	shl    %cl,%edx
    57ad:	89 d0                	mov    %edx,%eax
    57af:	eb 03                	jmp    57b4 <safe_lshift_func_int32_t_s_u+0x3e>
    57b1:	8b 45 fc             	mov    -0x4(%rbp),%eax
    57b4:	5d                   	pop    %rbp
    57b5:	c3                   	retq   

00000000000057b6 <safe_rshift_func_int32_t_s_s>:
    57b6:	f3 0f 1e fa          	endbr64 
    57ba:	55                   	push   %rbp
    57bb:	48 89 e5             	mov    %rsp,%rbp
    57be:	89 7d fc             	mov    %edi,-0x4(%rbp)
    57c1:	89 75 f8             	mov    %esi,-0x8(%rbp)
    57c4:	83 7d fc 00          	cmpl   $0x0,-0x4(%rbp)
    57c8:	78 1a                	js     57e4 <safe_rshift_func_int32_t_s_s+0x2e>
    57ca:	83 7d f8 00          	cmpl   $0x0,-0x8(%rbp)
    57ce:	78 14                	js     57e4 <safe_rshift_func_int32_t_s_s+0x2e>
    57d0:	83 7d f8 1f          	cmpl   $0x1f,-0x8(%rbp)
    57d4:	7f 0e                	jg     57e4 <safe_rshift_func_int32_t_s_s+0x2e>
    57d6:	8b 45 f8             	mov    -0x8(%rbp),%eax
    57d9:	8b 55 fc             	mov    -0x4(%rbp),%edx
    57dc:	89 c1                	mov    %eax,%ecx
    57de:	d3 fa                	sar    %cl,%edx
    57e0:	89 d0                	mov    %edx,%eax
    57e2:	eb 03                	jmp    57e7 <safe_rshift_func_int32_t_s_s+0x31>
    57e4:	8b 45 fc             	mov    -0x4(%rbp),%eax
    57e7:	5d                   	pop    %rbp
    57e8:	c3                   	retq   

00000000000057e9 <safe_rshift_func_int32_t_s_u>:
    57e9:	f3 0f 1e fa          	endbr64 
    57ed:	55                   	push   %rbp
    57ee:	48 89 e5             	mov    %rsp,%rbp
    57f1:	89 7d fc             	mov    %edi,-0x4(%rbp)
    57f4:	89 75 f8             	mov    %esi,-0x8(%rbp)
    57f7:	83 7d fc 00          	cmpl   $0x0,-0x4(%rbp)
    57fb:	78 14                	js     5811 <safe_rshift_func_int32_t_s_u+0x28>
    57fd:	83 7d f8 1f          	cmpl   $0x1f,-0x8(%rbp)
    5801:	77 0e                	ja     5811 <safe_rshift_func_int32_t_s_u+0x28>
    5803:	8b 45 f8             	mov    -0x8(%rbp),%eax
    5806:	8b 55 fc             	mov    -0x4(%rbp),%edx
    5809:	89 c1                	mov    %eax,%ecx
    580b:	d3 fa                	sar    %cl,%edx
    580d:	89 d0                	mov    %edx,%eax
    580f:	eb 03                	jmp    5814 <safe_rshift_func_int32_t_s_u+0x2b>
    5811:	8b 45 fc             	mov    -0x4(%rbp),%eax
    5814:	5d                   	pop    %rbp
    5815:	c3                   	retq   

0000000000005816 <safe_unary_minus_func_int64_t_s>:
    5816:	f3 0f 1e fa          	endbr64 
    581a:	55                   	push   %rbp
    581b:	48 89 e5             	mov    %rsp,%rbp
    581e:	48 89 7d f8          	mov    %rdi,-0x8(%rbp)
    5822:	48 b8 00 00 00 00 00 	movabs $0x8000000000000000,%rax
    5829:	00 00 80 
    582c:	48 39 45 f8          	cmp    %rax,-0x8(%rbp)
    5830:	74 09                	je     583b <safe_unary_minus_func_int64_t_s+0x25>
    5832:	48 8b 45 f8          	mov    -0x8(%rbp),%rax
    5836:	48 f7 d8             	neg    %rax
    5839:	eb 04                	jmp    583f <safe_unary_minus_func_int64_t_s+0x29>
    583b:	48 8b 45 f8          	mov    -0x8(%rbp),%rax
    583f:	5d                   	pop    %rbp
    5840:	c3                   	retq   

0000000000005841 <safe_add_func_int64_t_s_s>:
    5841:	f3 0f 1e fa          	endbr64 
    5845:	55                   	push   %rbp
    5846:	48 89 e5             	mov    %rsp,%rbp
    5849:	48 89 7d f8          	mov    %rdi,-0x8(%rbp)
    584d:	48 89 75 f0          	mov    %rsi,-0x10(%rbp)
    5851:	48 83 7d f8 00       	cmpq   $0x0,-0x8(%rbp)
    5856:	7e 1b                	jle    5873 <safe_add_func_int64_t_s_s+0x32>
    5858:	48 83 7d f0 00       	cmpq   $0x0,-0x10(%rbp)
    585d:	7e 14                	jle    5873 <safe_add_func_int64_t_s_s+0x32>
    585f:	48 b8 ff ff ff ff ff 	movabs $0x7fffffffffffffff,%rax
    5866:	ff ff 7f 
    5869:	48 2b 45 f0          	sub    -0x10(%rbp),%rax
    586d:	48 39 45 f8          	cmp    %rax,-0x8(%rbp)
    5871:	7f 2f                	jg     58a2 <safe_add_func_int64_t_s_s+0x61>
    5873:	48 83 7d f8 00       	cmpq   $0x0,-0x8(%rbp)
    5878:	79 1b                	jns    5895 <safe_add_func_int64_t_s_s+0x54>
    587a:	48 83 7d f0 00       	cmpq   $0x0,-0x10(%rbp)
    587f:	79 14                	jns    5895 <safe_add_func_int64_t_s_s+0x54>
    5881:	48 b8 00 00 00 00 00 	movabs $0x8000000000000000,%rax
    5888:	00 00 80 
    588b:	48 2b 45 f0          	sub    -0x10(%rbp),%rax
    588f:	48 39 45 f8          	cmp    %rax,-0x8(%rbp)
    5893:	7c 0d                	jl     58a2 <safe_add_func_int64_t_s_s+0x61>
    5895:	48 8b 55 f8          	mov    -0x8(%rbp),%rdx
    5899:	48 8b 45 f0          	mov    -0x10(%rbp),%rax
    589d:	48 01 d0             	add    %rdx,%rax
    58a0:	eb 04                	jmp    58a6 <safe_add_func_int64_t_s_s+0x65>
    58a2:	48 8b 45 f8          	mov    -0x8(%rbp),%rax
    58a6:	5d                   	pop    %rbp
    58a7:	c3                   	retq   

00000000000058a8 <safe_sub_func_int64_t_s_s>:
    58a8:	f3 0f 1e fa          	endbr64 
    58ac:	55                   	push   %rbp
    58ad:	48 89 e5             	mov    %rsp,%rbp
    58b0:	48 89 7d f8          	mov    %rdi,-0x8(%rbp)
    58b4:	48 89 75 f0          	mov    %rsi,-0x10(%rbp)
    58b8:	48 8b 45 f8          	mov    -0x8(%rbp),%rax
    58bc:	48 33 45 f0          	xor    -0x10(%rbp),%rax
    58c0:	48 89 c2             	mov    %rax,%rdx
    58c3:	48 8b 45 f8          	mov    -0x8(%rbp),%rax
    58c7:	48 33 45 f0          	xor    -0x10(%rbp),%rax
    58cb:	48 b9 00 00 00 00 00 	movabs $0x8000000000000000,%rcx
    58d2:	00 00 80 
    58d5:	48 21 c8             	and    %rcx,%rax
    58d8:	48 33 45 f8          	xor    -0x8(%rbp),%rax
    58dc:	48 2b 45 f0          	sub    -0x10(%rbp),%rax
    58e0:	48 33 45 f0          	xor    -0x10(%rbp),%rax
    58e4:	48 21 d0             	and    %rdx,%rax
    58e7:	48 85 c0             	test   %rax,%rax
    58ea:	78 0a                	js     58f6 <safe_sub_func_int64_t_s_s+0x4e>
    58ec:	48 8b 45 f8          	mov    -0x8(%rbp),%rax
    58f0:	48 2b 45 f0          	sub    -0x10(%rbp),%rax
    58f4:	eb 04                	jmp    58fa <safe_sub_func_int64_t_s_s+0x52>
    58f6:	48 8b 45 f8          	mov    -0x8(%rbp),%rax
    58fa:	5d                   	pop    %rbp
    58fb:	c3                   	retq   

00000000000058fc <safe_mul_func_int64_t_s_s>:
    58fc:	f3 0f 1e fa          	endbr64 
    5900:	55                   	push   %rbp
    5901:	48 89 e5             	mov    %rsp,%rbp
    5904:	48 89 7d f8          	mov    %rdi,-0x8(%rbp)
    5908:	48 89 75 f0          	mov    %rsi,-0x10(%rbp)
    590c:	48 83 7d f8 00       	cmpq   $0x0,-0x8(%rbp)
    5911:	7e 1d                	jle    5930 <safe_mul_func_int64_t_s_s+0x34>
    5913:	48 83 7d f0 00       	cmpq   $0x0,-0x10(%rbp)
    5918:	7e 16                	jle    5930 <safe_mul_func_int64_t_s_s+0x34>
    591a:	48 b8 ff ff ff ff ff 	movabs $0x7fffffffffffffff,%rax
    5921:	ff ff 7f 
    5924:	48 99                	cqto   
    5926:	48 f7 7d f0          	idivq  -0x10(%rbp)
    592a:	48 39 45 f8          	cmp    %rax,-0x8(%rbp)
    592e:	7f 7e                	jg     59ae <safe_mul_func_int64_t_s_s+0xb2>
    5930:	48 83 7d f8 00       	cmpq   $0x0,-0x8(%rbp)
    5935:	7e 1d                	jle    5954 <safe_mul_func_int64_t_s_s+0x58>
    5937:	48 83 7d f0 00       	cmpq   $0x0,-0x10(%rbp)
    593c:	7f 16                	jg     5954 <safe_mul_func_int64_t_s_s+0x58>
    593e:	48 b8 00 00 00 00 00 	movabs $0x8000000000000000,%rax
    5945:	00 00 80 
    5948:	48 99                	cqto   
    594a:	48 f7 7d f8          	idivq  -0x8(%rbp)
    594e:	48 39 45 f0          	cmp    %rax,-0x10(%rbp)
    5952:	7c 5a                	jl     59ae <safe_mul_func_int64_t_s_s+0xb2>
    5954:	48 83 7d f8 00       	cmpq   $0x0,-0x8(%rbp)
    5959:	7f 1d                	jg     5978 <safe_mul_func_int64_t_s_s+0x7c>
    595b:	48 83 7d f0 00       	cmpq   $0x0,-0x10(%rbp)
    5960:	7e 16                	jle    5978 <safe_mul_func_int64_t_s_s+0x7c>
    5962:	48 b8 00 00 00 00 00 	movabs $0x8000000000000000,%rax
    5969:	00 00 80 
    596c:	48 99                	cqto   
    596e:	48 f7 7d f0          	idivq  -0x10(%rbp)
    5972:	48 39 45 f8          	cmp    %rax,-0x8(%rbp)
    5976:	7c 36                	jl     59ae <safe_mul_func_int64_t_s_s+0xb2>
    5978:	48 83 7d f8 00       	cmpq   $0x0,-0x8(%rbp)
    597d:	7f 24                	jg     59a3 <safe_mul_func_int64_t_s_s+0xa7>
    597f:	48 83 7d f0 00       	cmpq   $0x0,-0x10(%rbp)
    5984:	7f 1d                	jg     59a3 <safe_mul_func_int64_t_s_s+0xa7>
    5986:	48 83 7d f8 00       	cmpq   $0x0,-0x8(%rbp)
    598b:	74 16                	je     59a3 <safe_mul_func_int64_t_s_s+0xa7>
    598d:	48 b8 ff ff ff ff ff 	movabs $0x7fffffffffffffff,%rax
    5994:	ff ff 7f 
    5997:	48 99                	cqto   
    5999:	48 f7 7d f8          	idivq  -0x8(%rbp)
    599d:	48 39 45 f0          	cmp    %rax,-0x10(%rbp)
    59a1:	7c 0b                	jl     59ae <safe_mul_func_int64_t_s_s+0xb2>
    59a3:	48 8b 45 f8          	mov    -0x8(%rbp),%rax
    59a7:	48 0f af 45 f0       	imul   -0x10(%rbp),%rax
    59ac:	eb 04                	jmp    59b2 <safe_mul_func_int64_t_s_s+0xb6>
    59ae:	48 8b 45 f8          	mov    -0x8(%rbp),%rax
    59b2:	5d                   	pop    %rbp
    59b3:	c3                   	retq   

00000000000059b4 <safe_mod_func_int64_t_s_s>:
    59b4:	f3 0f 1e fa          	endbr64 
    59b8:	55                   	push   %rbp
    59b9:	48 89 e5             	mov    %rsp,%rbp
    59bc:	48 89 7d f8          	mov    %rdi,-0x8(%rbp)
    59c0:	48 89 75 f0          	mov    %rsi,-0x10(%rbp)
    59c4:	48 83 7d f0 00       	cmpq   $0x0,-0x10(%rbp)
    59c9:	74 26                	je     59f1 <safe_mod_func_int64_t_s_s+0x3d>
    59cb:	48 b8 00 00 00 00 00 	movabs $0x8000000000000000,%rax
    59d2:	00 00 80 
    59d5:	48 39 45 f8          	cmp    %rax,-0x8(%rbp)
    59d9:	75 07                	jne    59e2 <safe_mod_func_int64_t_s_s+0x2e>
    59db:	48 83 7d f0 ff       	cmpq   $0xffffffffffffffff,-0x10(%rbp)
    59e0:	74 0f                	je     59f1 <safe_mod_func_int64_t_s_s+0x3d>
    59e2:	48 8b 45 f8          	mov    -0x8(%rbp),%rax
    59e6:	48 99                	cqto   
    59e8:	48 f7 7d f0          	idivq  -0x10(%rbp)
    59ec:	48 89 d0             	mov    %rdx,%rax
    59ef:	eb 04                	jmp    59f5 <safe_mod_func_int64_t_s_s+0x41>
    59f1:	48 8b 45 f8          	mov    -0x8(%rbp),%rax
    59f5:	5d                   	pop    %rbp
    59f6:	c3                   	retq   

00000000000059f7 <safe_div_func_int64_t_s_s>:
    59f7:	f3 0f 1e fa          	endbr64 
    59fb:	55                   	push   %rbp
    59fc:	48 89 e5             	mov    %rsp,%rbp
    59ff:	48 89 7d f8          	mov    %rdi,-0x8(%rbp)
    5a03:	48 89 75 f0          	mov    %rsi,-0x10(%rbp)
    5a07:	48 83 7d f0 00       	cmpq   $0x0,-0x10(%rbp)
    5a0c:	74 23                	je     5a31 <safe_div_func_int64_t_s_s+0x3a>
    5a0e:	48 b8 00 00 00 00 00 	movabs $0x8000000000000000,%rax
    5a15:	00 00 80 
    5a18:	48 39 45 f8          	cmp    %rax,-0x8(%rbp)
    5a1c:	75 07                	jne    5a25 <safe_div_func_int64_t_s_s+0x2e>
    5a1e:	48 83 7d f0 ff       	cmpq   $0xffffffffffffffff,-0x10(%rbp)
    5a23:	74 0c                	je     5a31 <safe_div_func_int64_t_s_s+0x3a>
    5a25:	48 8b 45 f8          	mov    -0x8(%rbp),%rax
    5a29:	48 99                	cqto   
    5a2b:	48 f7 7d f0          	idivq  -0x10(%rbp)
    5a2f:	eb 04                	jmp    5a35 <safe_div_func_int64_t_s_s+0x3e>
    5a31:	48 8b 45 f8          	mov    -0x8(%rbp),%rax
    5a35:	5d                   	pop    %rbp
    5a36:	c3                   	retq   

0000000000005a37 <safe_lshift_func_int64_t_s_s>:
    5a37:	f3 0f 1e fa          	endbr64 
    5a3b:	55                   	push   %rbp
    5a3c:	48 89 e5             	mov    %rsp,%rbp
    5a3f:	48 89 7d f8          	mov    %rdi,-0x8(%rbp)
    5a43:	89 75 f4             	mov    %esi,-0xc(%rbp)
    5a46:	48 83 7d f8 00       	cmpq   $0x0,-0x8(%rbp)
    5a4b:	78 38                	js     5a85 <safe_lshift_func_int64_t_s_s+0x4e>
    5a4d:	83 7d f4 00          	cmpl   $0x0,-0xc(%rbp)
    5a51:	78 32                	js     5a85 <safe_lshift_func_int64_t_s_s+0x4e>
    5a53:	83 7d f4 1f          	cmpl   $0x1f,-0xc(%rbp)
    5a57:	7f 2c                	jg     5a85 <safe_lshift_func_int64_t_s_s+0x4e>
    5a59:	8b 45 f4             	mov    -0xc(%rbp),%eax
    5a5c:	48 ba ff ff ff ff ff 	movabs $0x7fffffffffffffff,%rdx
    5a63:	ff ff 7f 
    5a66:	89 c1                	mov    %eax,%ecx
    5a68:	48 d3 fa             	sar    %cl,%rdx
    5a6b:	48 89 d0             	mov    %rdx,%rax
    5a6e:	48 39 45 f8          	cmp    %rax,-0x8(%rbp)
    5a72:	7f 11                	jg     5a85 <safe_lshift_func_int64_t_s_s+0x4e>
    5a74:	8b 45 f4             	mov    -0xc(%rbp),%eax
    5a77:	48 8b 55 f8          	mov    -0x8(%rbp),%rdx
    5a7b:	89 c1                	mov    %eax,%ecx
    5a7d:	48 d3 e2             	shl    %cl,%rdx
    5a80:	48 89 d0             	mov    %rdx,%rax
    5a83:	eb 04                	jmp    5a89 <safe_lshift_func_int64_t_s_s+0x52>
    5a85:	48 8b 45 f8          	mov    -0x8(%rbp),%rax
    5a89:	5d                   	pop    %rbp
    5a8a:	c3                   	retq   

0000000000005a8b <safe_lshift_func_int64_t_s_u>:
    5a8b:	f3 0f 1e fa          	endbr64 
    5a8f:	55                   	push   %rbp
    5a90:	48 89 e5             	mov    %rsp,%rbp
    5a93:	48 89 7d f8          	mov    %rdi,-0x8(%rbp)
    5a97:	89 75 f4             	mov    %esi,-0xc(%rbp)
    5a9a:	48 83 7d f8 00       	cmpq   $0x0,-0x8(%rbp)
    5a9f:	78 32                	js     5ad3 <safe_lshift_func_int64_t_s_u+0x48>
    5aa1:	83 7d f4 1f          	cmpl   $0x1f,-0xc(%rbp)
    5aa5:	77 2c                	ja     5ad3 <safe_lshift_func_int64_t_s_u+0x48>
    5aa7:	8b 45 f4             	mov    -0xc(%rbp),%eax
    5aaa:	48 ba ff ff ff ff ff 	movabs $0x7fffffffffffffff,%rdx
    5ab1:	ff ff 7f 
    5ab4:	89 c1                	mov    %eax,%ecx
    5ab6:	48 d3 fa             	sar    %cl,%rdx
    5ab9:	48 89 d0             	mov    %rdx,%rax
    5abc:	48 39 45 f8          	cmp    %rax,-0x8(%rbp)
    5ac0:	7f 11                	jg     5ad3 <safe_lshift_func_int64_t_s_u+0x48>
    5ac2:	8b 45 f4             	mov    -0xc(%rbp),%eax
    5ac5:	48 8b 55 f8          	mov    -0x8(%rbp),%rdx
    5ac9:	89 c1                	mov    %eax,%ecx
    5acb:	48 d3 e2             	shl    %cl,%rdx
    5ace:	48 89 d0             	mov    %rdx,%rax
    5ad1:	eb 04                	jmp    5ad7 <safe_lshift_func_int64_t_s_u+0x4c>
    5ad3:	48 8b 45 f8          	mov    -0x8(%rbp),%rax
    5ad7:	5d                   	pop    %rbp
    5ad8:	c3                   	retq   

0000000000005ad9 <safe_rshift_func_int64_t_s_s>:
    5ad9:	f3 0f 1e fa          	endbr64 
    5add:	55                   	push   %rbp
    5ade:	48 89 e5             	mov    %rsp,%rbp
    5ae1:	48 89 7d f8          	mov    %rdi,-0x8(%rbp)
    5ae5:	89 75 f4             	mov    %esi,-0xc(%rbp)
    5ae8:	48 83 7d f8 00       	cmpq   $0x0,-0x8(%rbp)
    5aed:	78 1d                	js     5b0c <safe_rshift_func_int64_t_s_s+0x33>
    5aef:	83 7d f4 00          	cmpl   $0x0,-0xc(%rbp)
    5af3:	78 17                	js     5b0c <safe_rshift_func_int64_t_s_s+0x33>
    5af5:	83 7d f4 1f          	cmpl   $0x1f,-0xc(%rbp)
    5af9:	7f 11                	jg     5b0c <safe_rshift_func_int64_t_s_s+0x33>
    5afb:	8b 45 f4             	mov    -0xc(%rbp),%eax
    5afe:	48 8b 55 f8          	mov    -0x8(%rbp),%rdx
    5b02:	89 c1                	mov    %eax,%ecx
    5b04:	48 d3 fa             	sar    %cl,%rdx
    5b07:	48 89 d0             	mov    %rdx,%rax
    5b0a:	eb 04                	jmp    5b10 <safe_rshift_func_int64_t_s_s+0x37>
    5b0c:	48 8b 45 f8          	mov    -0x8(%rbp),%rax
    5b10:	5d                   	pop    %rbp
    5b11:	c3                   	retq   

0000000000005b12 <safe_rshift_func_int64_t_s_u>:
    5b12:	f3 0f 1e fa          	endbr64 
    5b16:	55                   	push   %rbp
    5b17:	48 89 e5             	mov    %rsp,%rbp
    5b1a:	48 89 7d f8          	mov    %rdi,-0x8(%rbp)
    5b1e:	89 75 f4             	mov    %esi,-0xc(%rbp)
    5b21:	48 83 7d f8 00       	cmpq   $0x0,-0x8(%rbp)
    5b26:	78 17                	js     5b3f <safe_rshift_func_int64_t_s_u+0x2d>
    5b28:	83 7d f4 1f          	cmpl   $0x1f,-0xc(%rbp)
    5b2c:	77 11                	ja     5b3f <safe_rshift_func_int64_t_s_u+0x2d>
    5b2e:	8b 45 f4             	mov    -0xc(%rbp),%eax
    5b31:	48 8b 55 f8          	mov    -0x8(%rbp),%rdx
    5b35:	89 c1                	mov    %eax,%ecx
    5b37:	48 d3 fa             	sar    %cl,%rdx
    5b3a:	48 89 d0             	mov    %rdx,%rax
    5b3d:	eb 04                	jmp    5b43 <safe_rshift_func_int64_t_s_u+0x31>
    5b3f:	48 8b 45 f8          	mov    -0x8(%rbp),%rax
    5b43:	5d                   	pop    %rbp
    5b44:	c3                   	retq   

0000000000005b45 <safe_unary_minus_func_uint8_t_u>:
    5b45:	f3 0f 1e fa          	endbr64 
    5b49:	55                   	push   %rbp
    5b4a:	48 89 e5             	mov    %rsp,%rbp
    5b4d:	89 f8                	mov    %edi,%eax
    5b4f:	88 45 fc             	mov    %al,-0x4(%rbp)
    5b52:	0f b6 45 fc          	movzbl -0x4(%rbp),%eax
    5b56:	f7 d8                	neg    %eax
    5b58:	5d                   	pop    %rbp
    5b59:	c3                   	retq   

0000000000005b5a <safe_add_func_uint8_t_u_u>:
    5b5a:	f3 0f 1e fa          	endbr64 
    5b5e:	55                   	push   %rbp
    5b5f:	48 89 e5             	mov    %rsp,%rbp
    5b62:	89 fa                	mov    %edi,%edx
    5b64:	89 f0                	mov    %esi,%eax
    5b66:	88 55 fc             	mov    %dl,-0x4(%rbp)
    5b69:	88 45 f8             	mov    %al,-0x8(%rbp)
    5b6c:	0f b6 55 fc          	movzbl -0x4(%rbp),%edx
    5b70:	0f b6 45 f8          	movzbl -0x8(%rbp),%eax
    5b74:	01 d0                	add    %edx,%eax
    5b76:	5d                   	pop    %rbp
    5b77:	c3                   	retq   

0000000000005b78 <safe_sub_func_uint8_t_u_u>:
    5b78:	f3 0f 1e fa          	endbr64 
    5b7c:	55                   	push   %rbp
    5b7d:	48 89 e5             	mov    %rsp,%rbp
    5b80:	89 fa                	mov    %edi,%edx
    5b82:	89 f0                	mov    %esi,%eax
    5b84:	88 55 fc             	mov    %dl,-0x4(%rbp)
    5b87:	88 45 f8             	mov    %al,-0x8(%rbp)
    5b8a:	0f b6 45 fc          	movzbl -0x4(%rbp),%eax
    5b8e:	2a 45 f8             	sub    -0x8(%rbp),%al
    5b91:	5d                   	pop    %rbp
    5b92:	c3                   	retq   

0000000000005b93 <safe_mul_func_uint8_t_u_u>:
    5b93:	f3 0f 1e fa          	endbr64 
    5b97:	55                   	push   %rbp
    5b98:	48 89 e5             	mov    %rsp,%rbp
    5b9b:	89 fa                	mov    %edi,%edx
    5b9d:	89 f0                	mov    %esi,%eax
    5b9f:	88 55 fc             	mov    %dl,-0x4(%rbp)
    5ba2:	88 45 f8             	mov    %al,-0x8(%rbp)
    5ba5:	0f b6 45 fc          	movzbl -0x4(%rbp),%eax
    5ba9:	f6 65 f8             	mulb   -0x8(%rbp)
    5bac:	5d                   	pop    %rbp
    5bad:	c3                   	retq   

0000000000005bae <safe_mod_func_uint8_t_u_u>:
    5bae:	f3 0f 1e fa          	endbr64 
    5bb2:	55                   	push   %rbp
    5bb3:	48 89 e5             	mov    %rsp,%rbp
    5bb6:	89 fa                	mov    %edi,%edx
    5bb8:	89 f0                	mov    %esi,%eax
    5bba:	88 55 fc             	mov    %dl,-0x4(%rbp)
    5bbd:	88 45 f8             	mov    %al,-0x8(%rbp)
    5bc0:	80 7d f8 00          	cmpb   $0x0,-0x8(%rbp)
    5bc4:	74 0f                	je     5bd5 <safe_mod_func_uint8_t_u_u+0x27>
    5bc6:	0f b6 45 fc          	movzbl -0x4(%rbp),%eax
    5bca:	0f b6 c0             	movzbl %al,%eax
    5bcd:	f6 75 f8             	divb   -0x8(%rbp)
    5bd0:	0f b6 c4             	movzbl %ah,%eax
    5bd3:	eb 04                	jmp    5bd9 <safe_mod_func_uint8_t_u_u+0x2b>
    5bd5:	0f b6 45 fc          	movzbl -0x4(%rbp),%eax
    5bd9:	5d                   	pop    %rbp
    5bda:	c3                   	retq   

0000000000005bdb <safe_div_func_uint8_t_u_u>:
    5bdb:	f3 0f 1e fa          	endbr64 
    5bdf:	55                   	push   %rbp
    5be0:	48 89 e5             	mov    %rsp,%rbp
    5be3:	89 fa                	mov    %edi,%edx
    5be5:	89 f0                	mov    %esi,%eax
    5be7:	88 55 fc             	mov    %dl,-0x4(%rbp)
    5bea:	88 45 f8             	mov    %al,-0x8(%rbp)
    5bed:	80 7d f8 00          	cmpb   $0x0,-0x8(%rbp)
    5bf1:	74 0c                	je     5bff <safe_div_func_uint8_t_u_u+0x24>
    5bf3:	0f b6 45 fc          	movzbl -0x4(%rbp),%eax
    5bf7:	0f b6 c0             	movzbl %al,%eax
    5bfa:	f6 75 f8             	divb   -0x8(%rbp)
    5bfd:	eb 04                	jmp    5c03 <safe_div_func_uint8_t_u_u+0x28>
    5bff:	0f b6 45 fc          	movzbl -0x4(%rbp),%eax
    5c03:	5d                   	pop    %rbp
    5c04:	c3                   	retq   

0000000000005c05 <safe_lshift_func_uint8_t_u_s>:
    5c05:	f3 0f 1e fa          	endbr64 
    5c09:	55                   	push   %rbp
    5c0a:	48 89 e5             	mov    %rsp,%rbp
    5c0d:	89 f8                	mov    %edi,%eax
    5c0f:	89 75 f8             	mov    %esi,-0x8(%rbp)
    5c12:	88 45 fc             	mov    %al,-0x4(%rbp)
    5c15:	83 7d f8 00          	cmpl   $0x0,-0x8(%rbp)
    5c19:	78 2b                	js     5c46 <safe_lshift_func_uint8_t_u_s+0x41>
    5c1b:	83 7d f8 1f          	cmpl   $0x1f,-0x8(%rbp)
    5c1f:	7f 25                	jg     5c46 <safe_lshift_func_uint8_t_u_s+0x41>
    5c21:	0f b6 55 fc          	movzbl -0x4(%rbp),%edx
    5c25:	8b 45 f8             	mov    -0x8(%rbp),%eax
    5c28:	be ff 00 00 00       	mov    $0xff,%esi
    5c2d:	89 c1                	mov    %eax,%ecx
    5c2f:	d3 fe                	sar    %cl,%esi
    5c31:	89 f0                	mov    %esi,%eax
    5c33:	39 c2                	cmp    %eax,%edx
    5c35:	7f 0f                	jg     5c46 <safe_lshift_func_uint8_t_u_s+0x41>
    5c37:	0f b6 55 fc          	movzbl -0x4(%rbp),%edx
    5c3b:	8b 45 f8             	mov    -0x8(%rbp),%eax
    5c3e:	89 c1                	mov    %eax,%ecx
    5c40:	d3 e2                	shl    %cl,%edx
    5c42:	89 d0                	mov    %edx,%eax
    5c44:	eb 04                	jmp    5c4a <safe_lshift_func_uint8_t_u_s+0x45>
    5c46:	0f b6 45 fc          	movzbl -0x4(%rbp),%eax
    5c4a:	5d                   	pop    %rbp
    5c4b:	c3                   	retq   

0000000000005c4c <safe_lshift_func_uint8_t_u_u>:
    5c4c:	f3 0f 1e fa          	endbr64 
    5c50:	55                   	push   %rbp
    5c51:	48 89 e5             	mov    %rsp,%rbp
    5c54:	89 f8                	mov    %edi,%eax
    5c56:	89 75 f8             	mov    %esi,-0x8(%rbp)
    5c59:	88 45 fc             	mov    %al,-0x4(%rbp)
    5c5c:	83 7d f8 1f          	cmpl   $0x1f,-0x8(%rbp)
    5c60:	77 25                	ja     5c87 <safe_lshift_func_uint8_t_u_u+0x3b>
    5c62:	0f b6 55 fc          	movzbl -0x4(%rbp),%edx
    5c66:	8b 45 f8             	mov    -0x8(%rbp),%eax
    5c69:	be ff 00 00 00       	mov    $0xff,%esi
    5c6e:	89 c1                	mov    %eax,%ecx
    5c70:	d3 fe                	sar    %cl,%esi
    5c72:	89 f0                	mov    %esi,%eax
    5c74:	39 c2                	cmp    %eax,%edx
    5c76:	7f 0f                	jg     5c87 <safe_lshift_func_uint8_t_u_u+0x3b>
    5c78:	0f b6 55 fc          	movzbl -0x4(%rbp),%edx
    5c7c:	8b 45 f8             	mov    -0x8(%rbp),%eax
    5c7f:	89 c1                	mov    %eax,%ecx
    5c81:	d3 e2                	shl    %cl,%edx
    5c83:	89 d0                	mov    %edx,%eax
    5c85:	eb 04                	jmp    5c8b <safe_lshift_func_uint8_t_u_u+0x3f>
    5c87:	0f b6 45 fc          	movzbl -0x4(%rbp),%eax
    5c8b:	5d                   	pop    %rbp
    5c8c:	c3                   	retq   

0000000000005c8d <safe_rshift_func_uint8_t_u_s>:
    5c8d:	f3 0f 1e fa          	endbr64 
    5c91:	55                   	push   %rbp
    5c92:	48 89 e5             	mov    %rsp,%rbp
    5c95:	89 f8                	mov    %edi,%eax
    5c97:	89 75 f8             	mov    %esi,-0x8(%rbp)
    5c9a:	88 45 fc             	mov    %al,-0x4(%rbp)
    5c9d:	83 7d f8 00          	cmpl   $0x0,-0x8(%rbp)
    5ca1:	78 15                	js     5cb8 <safe_rshift_func_uint8_t_u_s+0x2b>
    5ca3:	83 7d f8 1f          	cmpl   $0x1f,-0x8(%rbp)
    5ca7:	7f 0f                	jg     5cb8 <safe_rshift_func_uint8_t_u_s+0x2b>
    5ca9:	0f b6 55 fc          	movzbl -0x4(%rbp),%edx
    5cad:	8b 45 f8             	mov    -0x8(%rbp),%eax
    5cb0:	89 c1                	mov    %eax,%ecx
    5cb2:	d3 fa                	sar    %cl,%edx
    5cb4:	89 d0                	mov    %edx,%eax
    5cb6:	eb 04                	jmp    5cbc <safe_rshift_func_uint8_t_u_s+0x2f>
    5cb8:	0f b6 45 fc          	movzbl -0x4(%rbp),%eax
    5cbc:	5d                   	pop    %rbp
    5cbd:	c3                   	retq   

0000000000005cbe <safe_rshift_func_uint8_t_u_u>:
    5cbe:	f3 0f 1e fa          	endbr64 
    5cc2:	55                   	push   %rbp
    5cc3:	48 89 e5             	mov    %rsp,%rbp
    5cc6:	89 f8                	mov    %edi,%eax
    5cc8:	89 75 f8             	mov    %esi,-0x8(%rbp)
    5ccb:	88 45 fc             	mov    %al,-0x4(%rbp)
    5cce:	83 7d f8 1f          	cmpl   $0x1f,-0x8(%rbp)
    5cd2:	77 0f                	ja     5ce3 <safe_rshift_func_uint8_t_u_u+0x25>
    5cd4:	0f b6 55 fc          	movzbl -0x4(%rbp),%edx
    5cd8:	8b 45 f8             	mov    -0x8(%rbp),%eax
    5cdb:	89 c1                	mov    %eax,%ecx
    5cdd:	d3 fa                	sar    %cl,%edx
    5cdf:	89 d0                	mov    %edx,%eax
    5ce1:	eb 04                	jmp    5ce7 <safe_rshift_func_uint8_t_u_u+0x29>
    5ce3:	0f b6 45 fc          	movzbl -0x4(%rbp),%eax
    5ce7:	5d                   	pop    %rbp
    5ce8:	c3                   	retq   

0000000000005ce9 <safe_unary_minus_func_uint16_t_u>:
    5ce9:	f3 0f 1e fa          	endbr64 
    5ced:	55                   	push   %rbp
    5cee:	48 89 e5             	mov    %rsp,%rbp
    5cf1:	89 f8                	mov    %edi,%eax
    5cf3:	66 89 45 fc          	mov    %ax,-0x4(%rbp)
    5cf7:	0f b7 45 fc          	movzwl -0x4(%rbp),%eax
    5cfb:	f7 d8                	neg    %eax
    5cfd:	5d                   	pop    %rbp
    5cfe:	c3                   	retq   

0000000000005cff <safe_add_func_uint16_t_u_u>:
    5cff:	f3 0f 1e fa          	endbr64 
    5d03:	55                   	push   %rbp
    5d04:	48 89 e5             	mov    %rsp,%rbp
    5d07:	89 fa                	mov    %edi,%edx
    5d09:	89 f0                	mov    %esi,%eax
    5d0b:	66 89 55 fc          	mov    %dx,-0x4(%rbp)
    5d0f:	66 89 45 f8          	mov    %ax,-0x8(%rbp)
    5d13:	0f b7 55 fc          	movzwl -0x4(%rbp),%edx
    5d17:	0f b7 45 f8          	movzwl -0x8(%rbp),%eax
    5d1b:	01 d0                	add    %edx,%eax
    5d1d:	5d                   	pop    %rbp
    5d1e:	c3                   	retq   

0000000000005d1f <safe_sub_func_uint16_t_u_u>:
    5d1f:	f3 0f 1e fa          	endbr64 
    5d23:	55                   	push   %rbp
    5d24:	48 89 e5             	mov    %rsp,%rbp
    5d27:	89 fa                	mov    %edi,%edx
    5d29:	89 f0                	mov    %esi,%eax
    5d2b:	66 89 55 fc          	mov    %dx,-0x4(%rbp)
    5d2f:	66 89 45 f8          	mov    %ax,-0x8(%rbp)
    5d33:	0f b7 45 fc          	movzwl -0x4(%rbp),%eax
    5d37:	66 2b 45 f8          	sub    -0x8(%rbp),%ax
    5d3b:	5d                   	pop    %rbp
    5d3c:	c3                   	retq   

0000000000005d3d <safe_mul_func_uint16_t_u_u>:
    5d3d:	f3 0f 1e fa          	endbr64 
    5d41:	55                   	push   %rbp
    5d42:	48 89 e5             	mov    %rsp,%rbp
    5d45:	89 fa                	mov    %edi,%edx
    5d47:	89 f0                	mov    %esi,%eax
    5d49:	66 89 55 fc          	mov    %dx,-0x4(%rbp)
    5d4d:	66 89 45 f8          	mov    %ax,-0x8(%rbp)
    5d51:	0f b7 45 fc          	movzwl -0x4(%rbp),%eax
    5d55:	66 0f af 45 f8       	imul   -0x8(%rbp),%ax
    5d5a:	5d                   	pop    %rbp
    5d5b:	c3                   	retq   

0000000000005d5c <safe_mod_func_uint16_t_u_u>:
    5d5c:	f3 0f 1e fa          	endbr64 
    5d60:	55                   	push   %rbp
    5d61:	48 89 e5             	mov    %rsp,%rbp
    5d64:	89 fa                	mov    %edi,%edx
    5d66:	89 f0                	mov    %esi,%eax
    5d68:	66 89 55 fc          	mov    %dx,-0x4(%rbp)
    5d6c:	66 89 45 f8          	mov    %ax,-0x8(%rbp)
    5d70:	66 83 7d f8 00       	cmpw   $0x0,-0x8(%rbp)
    5d75:	74 11                	je     5d88 <safe_mod_func_uint16_t_u_u+0x2c>
    5d77:	0f b7 45 fc          	movzwl -0x4(%rbp),%eax
    5d7b:	ba 00 00 00 00       	mov    $0x0,%edx
    5d80:	66 f7 75 f8          	divw   -0x8(%rbp)
    5d84:	89 d0                	mov    %edx,%eax
    5d86:	eb 04                	jmp    5d8c <safe_mod_func_uint16_t_u_u+0x30>
    5d88:	0f b7 45 fc          	movzwl -0x4(%rbp),%eax
    5d8c:	5d                   	pop    %rbp
    5d8d:	c3                   	retq   

0000000000005d8e <safe_div_func_uint16_t_u_u>:
    5d8e:	f3 0f 1e fa          	endbr64 
    5d92:	55                   	push   %rbp
    5d93:	48 89 e5             	mov    %rsp,%rbp
    5d96:	89 fa                	mov    %edi,%edx
    5d98:	89 f0                	mov    %esi,%eax
    5d9a:	66 89 55 fc          	mov    %dx,-0x4(%rbp)
    5d9e:	66 89 45 f8          	mov    %ax,-0x8(%rbp)
    5da2:	66 83 7d f8 00       	cmpw   $0x0,-0x8(%rbp)
    5da7:	74 0f                	je     5db8 <safe_div_func_uint16_t_u_u+0x2a>
    5da9:	0f b7 45 fc          	movzwl -0x4(%rbp),%eax
    5dad:	ba 00 00 00 00       	mov    $0x0,%edx
    5db2:	66 f7 75 f8          	divw   -0x8(%rbp)
    5db6:	eb 04                	jmp    5dbc <safe_div_func_uint16_t_u_u+0x2e>
    5db8:	0f b7 45 fc          	movzwl -0x4(%rbp),%eax
    5dbc:	5d                   	pop    %rbp
    5dbd:	c3                   	retq   

0000000000005dbe <safe_lshift_func_uint16_t_u_s>:
    5dbe:	f3 0f 1e fa          	endbr64 
    5dc2:	55                   	push   %rbp
    5dc3:	48 89 e5             	mov    %rsp,%rbp
    5dc6:	89 f8                	mov    %edi,%eax
    5dc8:	89 75 f8             	mov    %esi,-0x8(%rbp)
    5dcb:	66 89 45 fc          	mov    %ax,-0x4(%rbp)
    5dcf:	83 7d f8 00          	cmpl   $0x0,-0x8(%rbp)
    5dd3:	78 2b                	js     5e00 <safe_lshift_func_uint16_t_u_s+0x42>
    5dd5:	83 7d f8 1f          	cmpl   $0x1f,-0x8(%rbp)
    5dd9:	7f 25                	jg     5e00 <safe_lshift_func_uint16_t_u_s+0x42>
    5ddb:	0f b7 55 fc          	movzwl -0x4(%rbp),%edx
    5ddf:	8b 45 f8             	mov    -0x8(%rbp),%eax
    5de2:	be ff ff 00 00       	mov    $0xffff,%esi
    5de7:	89 c1                	mov    %eax,%ecx
    5de9:	d3 fe                	sar    %cl,%esi
    5deb:	89 f0                	mov    %esi,%eax
    5ded:	39 c2                	cmp    %eax,%edx
    5def:	7f 0f                	jg     5e00 <safe_lshift_func_uint16_t_u_s+0x42>
    5df1:	0f b7 55 fc          	movzwl -0x4(%rbp),%edx
    5df5:	8b 45 f8             	mov    -0x8(%rbp),%eax
    5df8:	89 c1                	mov    %eax,%ecx
    5dfa:	d3 e2                	shl    %cl,%edx
    5dfc:	89 d0                	mov    %edx,%eax
    5dfe:	eb 04                	jmp    5e04 <safe_lshift_func_uint16_t_u_s+0x46>
    5e00:	0f b7 45 fc          	movzwl -0x4(%rbp),%eax
    5e04:	5d                   	pop    %rbp
    5e05:	c3                   	retq   

0000000000005e06 <safe_lshift_func_uint16_t_u_u>:
    5e06:	f3 0f 1e fa          	endbr64 
    5e0a:	55                   	push   %rbp
    5e0b:	48 89 e5             	mov    %rsp,%rbp
    5e0e:	89 f8                	mov    %edi,%eax
    5e10:	89 75 f8             	mov    %esi,-0x8(%rbp)
    5e13:	66 89 45 fc          	mov    %ax,-0x4(%rbp)
    5e17:	83 7d f8 1f          	cmpl   $0x1f,-0x8(%rbp)
    5e1b:	77 25                	ja     5e42 <safe_lshift_func_uint16_t_u_u+0x3c>
    5e1d:	0f b7 55 fc          	movzwl -0x4(%rbp),%edx
    5e21:	8b 45 f8             	mov    -0x8(%rbp),%eax
    5e24:	be ff ff 00 00       	mov    $0xffff,%esi
    5e29:	89 c1                	mov    %eax,%ecx
    5e2b:	d3 fe                	sar    %cl,%esi
    5e2d:	89 f0                	mov    %esi,%eax
    5e2f:	39 c2                	cmp    %eax,%edx
    5e31:	7f 0f                	jg     5e42 <safe_lshift_func_uint16_t_u_u+0x3c>
    5e33:	0f b7 55 fc          	movzwl -0x4(%rbp),%edx
    5e37:	8b 45 f8             	mov    -0x8(%rbp),%eax
    5e3a:	89 c1                	mov    %eax,%ecx
    5e3c:	d3 e2                	shl    %cl,%edx
    5e3e:	89 d0                	mov    %edx,%eax
    5e40:	eb 04                	jmp    5e46 <safe_lshift_func_uint16_t_u_u+0x40>
    5e42:	0f b7 45 fc          	movzwl -0x4(%rbp),%eax
    5e46:	5d                   	pop    %rbp
    5e47:	c3                   	retq   

0000000000005e48 <safe_rshift_func_uint16_t_u_s>:
    5e48:	f3 0f 1e fa          	endbr64 
    5e4c:	55                   	push   %rbp
    5e4d:	48 89 e5             	mov    %rsp,%rbp
    5e50:	89 f8                	mov    %edi,%eax
    5e52:	89 75 f8             	mov    %esi,-0x8(%rbp)
    5e55:	66 89 45 fc          	mov    %ax,-0x4(%rbp)
    5e59:	83 7d f8 00          	cmpl   $0x0,-0x8(%rbp)
    5e5d:	78 15                	js     5e74 <safe_rshift_func_uint16_t_u_s+0x2c>
    5e5f:	83 7d f8 1f          	cmpl   $0x1f,-0x8(%rbp)
    5e63:	7f 0f                	jg     5e74 <safe_rshift_func_uint16_t_u_s+0x2c>
    5e65:	0f b7 55 fc          	movzwl -0x4(%rbp),%edx
    5e69:	8b 45 f8             	mov    -0x8(%rbp),%eax
    5e6c:	89 c1                	mov    %eax,%ecx
    5e6e:	d3 fa                	sar    %cl,%edx
    5e70:	89 d0                	mov    %edx,%eax
    5e72:	eb 04                	jmp    5e78 <safe_rshift_func_uint16_t_u_s+0x30>
    5e74:	0f b7 45 fc          	movzwl -0x4(%rbp),%eax
    5e78:	5d                   	pop    %rbp
    5e79:	c3                   	retq   

0000000000005e7a <safe_rshift_func_uint16_t_u_u>:
    5e7a:	f3 0f 1e fa          	endbr64 
    5e7e:	55                   	push   %rbp
    5e7f:	48 89 e5             	mov    %rsp,%rbp
    5e82:	89 f8                	mov    %edi,%eax
    5e84:	89 75 f8             	mov    %esi,-0x8(%rbp)
    5e87:	66 89 45 fc          	mov    %ax,-0x4(%rbp)
    5e8b:	83 7d f8 1f          	cmpl   $0x1f,-0x8(%rbp)
    5e8f:	77 0f                	ja     5ea0 <safe_rshift_func_uint16_t_u_u+0x26>
    5e91:	0f b7 55 fc          	movzwl -0x4(%rbp),%edx
    5e95:	8b 45 f8             	mov    -0x8(%rbp),%eax
    5e98:	89 c1                	mov    %eax,%ecx
    5e9a:	d3 fa                	sar    %cl,%edx
    5e9c:	89 d0                	mov    %edx,%eax
    5e9e:	eb 04                	jmp    5ea4 <safe_rshift_func_uint16_t_u_u+0x2a>
    5ea0:	0f b7 45 fc          	movzwl -0x4(%rbp),%eax
    5ea4:	5d                   	pop    %rbp
    5ea5:	c3                   	retq   

0000000000005ea6 <safe_unary_minus_func_uint32_t_u>:
    5ea6:	f3 0f 1e fa          	endbr64 
    5eaa:	55                   	push   %rbp
    5eab:	48 89 e5             	mov    %rsp,%rbp
    5eae:	89 7d fc             	mov    %edi,-0x4(%rbp)
    5eb1:	8b 45 fc             	mov    -0x4(%rbp),%eax
    5eb4:	f7 d8                	neg    %eax
    5eb6:	5d                   	pop    %rbp
    5eb7:	c3                   	retq   

0000000000005eb8 <safe_add_func_uint32_t_u_u>:
    5eb8:	f3 0f 1e fa          	endbr64 
    5ebc:	55                   	push   %rbp
    5ebd:	48 89 e5             	mov    %rsp,%rbp
    5ec0:	89 7d fc             	mov    %edi,-0x4(%rbp)
    5ec3:	89 75 f8             	mov    %esi,-0x8(%rbp)
    5ec6:	8b 55 fc             	mov    -0x4(%rbp),%edx
    5ec9:	8b 45 f8             	mov    -0x8(%rbp),%eax
    5ecc:	01 d0                	add    %edx,%eax
    5ece:	5d                   	pop    %rbp
    5ecf:	c3                   	retq   

0000000000005ed0 <safe_sub_func_uint32_t_u_u>:
    5ed0:	f3 0f 1e fa          	endbr64 
    5ed4:	55                   	push   %rbp
    5ed5:	48 89 e5             	mov    %rsp,%rbp
    5ed8:	89 7d fc             	mov    %edi,-0x4(%rbp)
    5edb:	89 75 f8             	mov    %esi,-0x8(%rbp)
    5ede:	8b 45 fc             	mov    -0x4(%rbp),%eax
    5ee1:	2b 45 f8             	sub    -0x8(%rbp),%eax
    5ee4:	5d                   	pop    %rbp
    5ee5:	c3                   	retq   

0000000000005ee6 <safe_mul_func_uint32_t_u_u>:
    5ee6:	f3 0f 1e fa          	endbr64 
    5eea:	55                   	push   %rbp
    5eeb:	48 89 e5             	mov    %rsp,%rbp
    5eee:	89 7d fc             	mov    %edi,-0x4(%rbp)
    5ef1:	89 75 f8             	mov    %esi,-0x8(%rbp)
    5ef4:	8b 45 fc             	mov    -0x4(%rbp),%eax
    5ef7:	0f af 45 f8          	imul   -0x8(%rbp),%eax
    5efb:	5d                   	pop    %rbp
    5efc:	c3                   	retq   

0000000000005efd <safe_mod_func_uint32_t_u_u>:
    5efd:	f3 0f 1e fa          	endbr64 
    5f01:	55                   	push   %rbp
    5f02:	48 89 e5             	mov    %rsp,%rbp
    5f05:	89 7d fc             	mov    %edi,-0x4(%rbp)
    5f08:	89 75 f8             	mov    %esi,-0x8(%rbp)
    5f0b:	83 7d f8 00          	cmpl   $0x0,-0x8(%rbp)
    5f0f:	74 0f                	je     5f20 <safe_mod_func_uint32_t_u_u+0x23>
    5f11:	8b 45 fc             	mov    -0x4(%rbp),%eax
    5f14:	ba 00 00 00 00       	mov    $0x0,%edx
    5f19:	f7 75 f8             	divl   -0x8(%rbp)
    5f1c:	89 d0                	mov    %edx,%eax
    5f1e:	eb 03                	jmp    5f23 <safe_mod_func_uint32_t_u_u+0x26>
    5f20:	8b 45 fc             	mov    -0x4(%rbp),%eax
    5f23:	5d                   	pop    %rbp
    5f24:	c3                   	retq   

0000000000005f25 <safe_div_func_uint32_t_u_u>:
    5f25:	f3 0f 1e fa          	endbr64 
    5f29:	55                   	push   %rbp
    5f2a:	48 89 e5             	mov    %rsp,%rbp
    5f2d:	89 7d fc             	mov    %edi,-0x4(%rbp)
    5f30:	89 75 f8             	mov    %esi,-0x8(%rbp)
    5f33:	83 7d f8 00          	cmpl   $0x0,-0x8(%rbp)
    5f37:	74 0d                	je     5f46 <safe_div_func_uint32_t_u_u+0x21>
    5f39:	8b 45 fc             	mov    -0x4(%rbp),%eax
    5f3c:	ba 00 00 00 00       	mov    $0x0,%edx
    5f41:	f7 75 f8             	divl   -0x8(%rbp)
    5f44:	eb 03                	jmp    5f49 <safe_div_func_uint32_t_u_u+0x24>
    5f46:	8b 45 fc             	mov    -0x4(%rbp),%eax
    5f49:	5d                   	pop    %rbp
    5f4a:	c3                   	retq   

0000000000005f4b <safe_lshift_func_uint32_t_u_s>:
    5f4b:	f3 0f 1e fa          	endbr64 
    5f4f:	55                   	push   %rbp
    5f50:	48 89 e5             	mov    %rsp,%rbp
    5f53:	89 7d fc             	mov    %edi,-0x4(%rbp)
    5f56:	89 75 f8             	mov    %esi,-0x8(%rbp)
    5f59:	83 7d f8 00          	cmpl   $0x0,-0x8(%rbp)
    5f5d:	78 27                	js     5f86 <safe_lshift_func_uint32_t_u_s+0x3b>
    5f5f:	83 7d f8 1f          	cmpl   $0x1f,-0x8(%rbp)
    5f63:	7f 21                	jg     5f86 <safe_lshift_func_uint32_t_u_s+0x3b>
    5f65:	8b 45 f8             	mov    -0x8(%rbp),%eax
    5f68:	ba ff ff ff ff       	mov    $0xffffffff,%edx
    5f6d:	89 c1                	mov    %eax,%ecx
    5f6f:	d3 ea                	shr    %cl,%edx
    5f71:	89 d0                	mov    %edx,%eax
    5f73:	39 45 fc             	cmp    %eax,-0x4(%rbp)
    5f76:	77 0e                	ja     5f86 <safe_lshift_func_uint32_t_u_s+0x3b>
    5f78:	8b 45 f8             	mov    -0x8(%rbp),%eax
    5f7b:	8b 55 fc             	mov    -0x4(%rbp),%edx
    5f7e:	89 c1                	mov    %eax,%ecx
    5f80:	d3 e2                	shl    %cl,%edx
    5f82:	89 d0                	mov    %edx,%eax
    5f84:	eb 03                	jmp    5f89 <safe_lshift_func_uint32_t_u_s+0x3e>
    5f86:	8b 45 fc             	mov    -0x4(%rbp),%eax
    5f89:	5d                   	pop    %rbp
    5f8a:	c3                   	retq   

0000000000005f8b <safe_lshift_func_uint32_t_u_u>:
    5f8b:	f3 0f 1e fa          	endbr64 
    5f8f:	55                   	push   %rbp
    5f90:	48 89 e5             	mov    %rsp,%rbp
    5f93:	89 7d fc             	mov    %edi,-0x4(%rbp)
    5f96:	89 75 f8             	mov    %esi,-0x8(%rbp)
    5f99:	83 7d f8 1f          	cmpl   $0x1f,-0x8(%rbp)
    5f9d:	77 21                	ja     5fc0 <safe_lshift_func_uint32_t_u_u+0x35>
    5f9f:	8b 45 f8             	mov    -0x8(%rbp),%eax
    5fa2:	ba ff ff ff ff       	mov    $0xffffffff,%edx
    5fa7:	89 c1                	mov    %eax,%ecx
    5fa9:	d3 ea                	shr    %cl,%edx
    5fab:	89 d0                	mov    %edx,%eax
    5fad:	39 45 fc             	cmp    %eax,-0x4(%rbp)
    5fb0:	77 0e                	ja     5fc0 <safe_lshift_func_uint32_t_u_u+0x35>
    5fb2:	8b 45 f8             	mov    -0x8(%rbp),%eax
    5fb5:	8b 55 fc             	mov    -0x4(%rbp),%edx
    5fb8:	89 c1                	mov    %eax,%ecx
    5fba:	d3 e2                	shl    %cl,%edx
    5fbc:	89 d0                	mov    %edx,%eax
    5fbe:	eb 03                	jmp    5fc3 <safe_lshift_func_uint32_t_u_u+0x38>
    5fc0:	8b 45 fc             	mov    -0x4(%rbp),%eax
    5fc3:	5d                   	pop    %rbp
    5fc4:	c3                   	retq   

0000000000005fc5 <safe_rshift_func_uint32_t_u_s>:
    5fc5:	f3 0f 1e fa          	endbr64 
    5fc9:	55                   	push   %rbp
    5fca:	48 89 e5             	mov    %rsp,%rbp
    5fcd:	89 7d fc             	mov    %edi,-0x4(%rbp)
    5fd0:	89 75 f8             	mov    %esi,-0x8(%rbp)
    5fd3:	83 7d f8 00          	cmpl   $0x0,-0x8(%rbp)
    5fd7:	78 14                	js     5fed <safe_rshift_func_uint32_t_u_s+0x28>
    5fd9:	83 7d f8 1f          	cmpl   $0x1f,-0x8(%rbp)
    5fdd:	7f 0e                	jg     5fed <safe_rshift_func_uint32_t_u_s+0x28>
    5fdf:	8b 45 f8             	mov    -0x8(%rbp),%eax
    5fe2:	8b 55 fc             	mov    -0x4(%rbp),%edx
    5fe5:	89 c1                	mov    %eax,%ecx
    5fe7:	d3 ea                	shr    %cl,%edx
    5fe9:	89 d0                	mov    %edx,%eax
    5feb:	eb 03                	jmp    5ff0 <safe_rshift_func_uint32_t_u_s+0x2b>
    5fed:	8b 45 fc             	mov    -0x4(%rbp),%eax
    5ff0:	5d                   	pop    %rbp
    5ff1:	c3                   	retq   

0000000000005ff2 <safe_rshift_func_uint32_t_u_u>:
    5ff2:	f3 0f 1e fa          	endbr64 
    5ff6:	55                   	push   %rbp
    5ff7:	48 89 e5             	mov    %rsp,%rbp
    5ffa:	89 7d fc             	mov    %edi,-0x4(%rbp)
    5ffd:	89 75 f8             	mov    %esi,-0x8(%rbp)
    6000:	83 7d f8 1f          	cmpl   $0x1f,-0x8(%rbp)
    6004:	77 0e                	ja     6014 <safe_rshift_func_uint32_t_u_u+0x22>
    6006:	8b 45 f8             	mov    -0x8(%rbp),%eax
    6009:	8b 55 fc             	mov    -0x4(%rbp),%edx
    600c:	89 c1                	mov    %eax,%ecx
    600e:	d3 ea                	shr    %cl,%edx
    6010:	89 d0                	mov    %edx,%eax
    6012:	eb 03                	jmp    6017 <safe_rshift_func_uint32_t_u_u+0x25>
    6014:	8b 45 fc             	mov    -0x4(%rbp),%eax
    6017:	5d                   	pop    %rbp
    6018:	c3                   	retq   

0000000000006019 <safe_unary_minus_func_uint64_t_u>:
    6019:	f3 0f 1e fa          	endbr64 
    601d:	55                   	push   %rbp
    601e:	48 89 e5             	mov    %rsp,%rbp
    6021:	48 89 7d f8          	mov    %rdi,-0x8(%rbp)
    6025:	48 8b 45 f8          	mov    -0x8(%rbp),%rax
    6029:	48 f7 d8             	neg    %rax
    602c:	5d                   	pop    %rbp
    602d:	c3                   	retq   

000000000000602e <safe_add_func_uint64_t_u_u>:
    602e:	f3 0f 1e fa          	endbr64 
    6032:	55                   	push   %rbp
    6033:	48 89 e5             	mov    %rsp,%rbp
    6036:	48 89 7d f8          	mov    %rdi,-0x8(%rbp)
    603a:	48 89 75 f0          	mov    %rsi,-0x10(%rbp)
    603e:	48 8b 55 f8          	mov    -0x8(%rbp),%rdx
    6042:	48 8b 45 f0          	mov    -0x10(%rbp),%rax
    6046:	48 01 d0             	add    %rdx,%rax
    6049:	5d                   	pop    %rbp
    604a:	c3                   	retq   

000000000000604b <safe_sub_func_uint64_t_u_u>:
    604b:	f3 0f 1e fa          	endbr64 
    604f:	55                   	push   %rbp
    6050:	48 89 e5             	mov    %rsp,%rbp
    6053:	48 89 7d f8          	mov    %rdi,-0x8(%rbp)
    6057:	48 89 75 f0          	mov    %rsi,-0x10(%rbp)
    605b:	48 8b 45 f8          	mov    -0x8(%rbp),%rax
    605f:	48 2b 45 f0          	sub    -0x10(%rbp),%rax
    6063:	5d                   	pop    %rbp
    6064:	c3                   	retq   

0000000000006065 <safe_mul_func_uint64_t_u_u>:
    6065:	f3 0f 1e fa          	endbr64 
    6069:	55                   	push   %rbp
    606a:	48 89 e5             	mov    %rsp,%rbp
    606d:	48 89 7d f8          	mov    %rdi,-0x8(%rbp)
    6071:	48 89 75 f0          	mov    %rsi,-0x10(%rbp)
    6075:	48 8b 45 f8          	mov    -0x8(%rbp),%rax
    6079:	48 0f af 45 f0       	imul   -0x10(%rbp),%rax
    607e:	5d                   	pop    %rbp
    607f:	c3                   	retq   

0000000000006080 <safe_mod_func_uint64_t_u_u>:
    6080:	f3 0f 1e fa          	endbr64 
    6084:	55                   	push   %rbp
    6085:	48 89 e5             	mov    %rsp,%rbp
    6088:	48 89 7d f8          	mov    %rdi,-0x8(%rbp)
    608c:	48 89 75 f0          	mov    %rsi,-0x10(%rbp)
    6090:	48 83 7d f0 00       	cmpq   $0x0,-0x10(%rbp)
    6095:	74 12                	je     60a9 <safe_mod_func_uint64_t_u_u+0x29>
    6097:	48 8b 45 f8          	mov    -0x8(%rbp),%rax
    609b:	ba 00 00 00 00       	mov    $0x0,%edx
    60a0:	48 f7 75 f0          	divq   -0x10(%rbp)
    60a4:	48 89 d0             	mov    %rdx,%rax
    60a7:	eb 04                	jmp    60ad <safe_mod_func_uint64_t_u_u+0x2d>
    60a9:	48 8b 45 f8          	mov    -0x8(%rbp),%rax
    60ad:	5d                   	pop    %rbp
    60ae:	c3                   	retq   

00000000000060af <safe_div_func_uint64_t_u_u>:
    60af:	f3 0f 1e fa          	endbr64 
    60b3:	55                   	push   %rbp
    60b4:	48 89 e5             	mov    %rsp,%rbp
    60b7:	48 89 7d f8          	mov    %rdi,-0x8(%rbp)
    60bb:	48 89 75 f0          	mov    %rsi,-0x10(%rbp)
    60bf:	48 83 7d f0 00       	cmpq   $0x0,-0x10(%rbp)
    60c4:	74 0f                	je     60d5 <safe_div_func_uint64_t_u_u+0x26>
    60c6:	48 8b 45 f8          	mov    -0x8(%rbp),%rax
    60ca:	ba 00 00 00 00       	mov    $0x0,%edx
    60cf:	48 f7 75 f0          	divq   -0x10(%rbp)
    60d3:	eb 04                	jmp    60d9 <safe_div_func_uint64_t_u_u+0x2a>
    60d5:	48 8b 45 f8          	mov    -0x8(%rbp),%rax
    60d9:	5d                   	pop    %rbp
    60da:	c3                   	retq   

00000000000060db <safe_lshift_func_uint64_t_u_s>:
    60db:	f3 0f 1e fa          	endbr64 
    60df:	55                   	push   %rbp
    60e0:	48 89 e5             	mov    %rsp,%rbp
    60e3:	48 89 7d f8          	mov    %rdi,-0x8(%rbp)
    60e7:	89 75 f4             	mov    %esi,-0xc(%rbp)
    60ea:	83 7d f4 00          	cmpl   $0x0,-0xc(%rbp)
    60ee:	78 2f                	js     611f <safe_lshift_func_uint64_t_u_s+0x44>
    60f0:	83 7d f4 1f          	cmpl   $0x1f,-0xc(%rbp)
    60f4:	7f 29                	jg     611f <safe_lshift_func_uint64_t_u_s+0x44>
    60f6:	8b 45 f4             	mov    -0xc(%rbp),%eax
    60f9:	48 c7 c2 ff ff ff ff 	mov    $0xffffffffffffffff,%rdx
    6100:	89 c1                	mov    %eax,%ecx
    6102:	48 d3 ea             	shr    %cl,%rdx
    6105:	48 89 d0             	mov    %rdx,%rax
    6108:	48 39 45 f8          	cmp    %rax,-0x8(%rbp)
    610c:	77 11                	ja     611f <safe_lshift_func_uint64_t_u_s+0x44>
    610e:	8b 45 f4             	mov    -0xc(%rbp),%eax
    6111:	48 8b 55 f8          	mov    -0x8(%rbp),%rdx
    6115:	89 c1                	mov    %eax,%ecx
    6117:	48 d3 e2             	shl    %cl,%rdx
    611a:	48 89 d0             	mov    %rdx,%rax
    611d:	eb 04                	jmp    6123 <safe_lshift_func_uint64_t_u_s+0x48>
    611f:	48 8b 45 f8          	mov    -0x8(%rbp),%rax
    6123:	5d                   	pop    %rbp
    6124:	c3                   	retq   

0000000000006125 <safe_lshift_func_uint64_t_u_u>:
    6125:	f3 0f 1e fa          	endbr64 
    6129:	55                   	push   %rbp
    612a:	48 89 e5             	mov    %rsp,%rbp
    612d:	48 89 7d f8          	mov    %rdi,-0x8(%rbp)
    6131:	89 75 f4             	mov    %esi,-0xc(%rbp)
    6134:	83 7d f4 1f          	cmpl   $0x1f,-0xc(%rbp)
    6138:	77 29                	ja     6163 <safe_lshift_func_uint64_t_u_u+0x3e>
    613a:	8b 45 f4             	mov    -0xc(%rbp),%eax
    613d:	48 c7 c2 ff ff ff ff 	mov    $0xffffffffffffffff,%rdx
    6144:	89 c1                	mov    %eax,%ecx
    6146:	48 d3 ea             	shr    %cl,%rdx
    6149:	48 89 d0             	mov    %rdx,%rax
    614c:	48 39 45 f8          	cmp    %rax,-0x8(%rbp)
    6150:	77 11                	ja     6163 <safe_lshift_func_uint64_t_u_u+0x3e>
    6152:	8b 45 f4             	mov    -0xc(%rbp),%eax
    6155:	48 8b 55 f8          	mov    -0x8(%rbp),%rdx
    6159:	89 c1                	mov    %eax,%ecx
    615b:	48 d3 e2             	shl    %cl,%rdx
    615e:	48 89 d0             	mov    %rdx,%rax
    6161:	eb 04                	jmp    6167 <safe_lshift_func_uint64_t_u_u+0x42>
    6163:	48 8b 45 f8          	mov    -0x8(%rbp),%rax
    6167:	5d                   	pop    %rbp
    6168:	c3                   	retq   

0000000000006169 <safe_rshift_func_uint64_t_u_s>:
    6169:	f3 0f 1e fa          	endbr64 
    616d:	55                   	push   %rbp
    616e:	48 89 e5             	mov    %rsp,%rbp
    6171:	48 89 7d f8          	mov    %rdi,-0x8(%rbp)
    6175:	89 75 f4             	mov    %esi,-0xc(%rbp)
    6178:	83 7d f4 00          	cmpl   $0x0,-0xc(%rbp)
    617c:	78 17                	js     6195 <safe_rshift_func_uint64_t_u_s+0x2c>
    617e:	83 7d f4 1f          	cmpl   $0x1f,-0xc(%rbp)
    6182:	7f 11                	jg     6195 <safe_rshift_func_uint64_t_u_s+0x2c>
    6184:	8b 45 f4             	mov    -0xc(%rbp),%eax
    6187:	48 8b 55 f8          	mov    -0x8(%rbp),%rdx
    618b:	89 c1                	mov    %eax,%ecx
    618d:	48 d3 ea             	shr    %cl,%rdx
    6190:	48 89 d0             	mov    %rdx,%rax
    6193:	eb 04                	jmp    6199 <safe_rshift_func_uint64_t_u_s+0x30>
    6195:	48 8b 45 f8          	mov    -0x8(%rbp),%rax
    6199:	5d                   	pop    %rbp
    619a:	c3                   	retq   

000000000000619b <safe_rshift_func_uint64_t_u_u>:
    619b:	f3 0f 1e fa          	endbr64 
    619f:	55                   	push   %rbp
    61a0:	48 89 e5             	mov    %rsp,%rbp
    61a3:	48 89 7d f8          	mov    %rdi,-0x8(%rbp)
    61a7:	89 75 f4             	mov    %esi,-0xc(%rbp)
    61aa:	83 7d f4 1f          	cmpl   $0x1f,-0xc(%rbp)
    61ae:	77 11                	ja     61c1 <safe_rshift_func_uint64_t_u_u+0x26>
    61b0:	8b 45 f4             	mov    -0xc(%rbp),%eax
    61b3:	48 8b 55 f8          	mov    -0x8(%rbp),%rdx
    61b7:	89 c1                	mov    %eax,%ecx
    61b9:	48 d3 ea             	shr    %cl,%rdx
    61bc:	48 89 d0             	mov    %rdx,%rax
    61bf:	eb 04                	jmp    61c5 <safe_rshift_func_uint64_t_u_u+0x2a>
    61c1:	48 8b 45 f8          	mov    -0x8(%rbp),%rax
    61c5:	5d                   	pop    %rbp
    61c6:	c3                   	retq   

00000000000061c7 <safe_add_func_float_f_f>:
    61c7:	f3 0f 1e fa          	endbr64 
    61cb:	55                   	push   %rbp
    61cc:	48 89 e5             	mov    %rsp,%rbp
    61cf:	f3 0f 11 45 fc       	movss  %xmm0,-0x4(%rbp)
    61d4:	f3 0f 11 4d f8       	movss  %xmm1,-0x8(%rbp)
    61d9:	f3 0f 10 4d fc       	movss  -0x4(%rbp),%xmm1
    61de:	f3 0f 10 05 f6 95 00 	movss  0x95f6(%rip),%xmm0        # f7dc <g_1338+0x177c>
    61e5:	00 
    61e6:	f3 0f 59 c8          	mulss  %xmm0,%xmm1
    61ea:	f3 0f 10 55 f8       	movss  -0x8(%rbp),%xmm2
    61ef:	f3 0f 10 05 e5 95 00 	movss  0x95e5(%rip),%xmm0        # f7dc <g_1338+0x177c>
    61f6:	00 
    61f7:	f3 0f 59 c2          	mulss  %xmm2,%xmm0
    61fb:	f3 0f 58 c1          	addss  %xmm1,%xmm0
    61ff:	f3 0f 10 0d d9 95 00 	movss  0x95d9(%rip),%xmm1        # f7e0 <g_1338+0x1780>
    6206:	00 
    6207:	0f 54 c1             	andps  %xmm1,%xmm0
    620a:	0f 2f 05 df 95 00 00 	comiss 0x95df(%rip),%xmm0        # f7f0 <g_1338+0x1790>
    6211:	76 07                	jbe    621a <safe_add_func_float_f_f+0x53>
    6213:	f3 0f 10 45 fc       	movss  -0x4(%rbp),%xmm0
    6218:	eb 0a                	jmp    6224 <safe_add_func_float_f_f+0x5d>
    621a:	f3 0f 10 45 fc       	movss  -0x4(%rbp),%xmm0
    621f:	f3 0f 58 45 f8       	addss  -0x8(%rbp),%xmm0
    6224:	5d                   	pop    %rbp
    6225:	c3                   	retq   

0000000000006226 <safe_sub_func_float_f_f>:
    6226:	f3 0f 1e fa          	endbr64 
    622a:	55                   	push   %rbp
    622b:	48 89 e5             	mov    %rsp,%rbp
    622e:	f3 0f 11 45 fc       	movss  %xmm0,-0x4(%rbp)
    6233:	f3 0f 11 4d f8       	movss  %xmm1,-0x8(%rbp)
    6238:	f3 0f 10 4d fc       	movss  -0x4(%rbp),%xmm1
    623d:	f3 0f 10 05 97 95 00 	movss  0x9597(%rip),%xmm0        # f7dc <g_1338+0x177c>
    6244:	00 
    6245:	f3 0f 59 c1          	mulss  %xmm1,%xmm0
    6249:	f3 0f 10 55 f8       	movss  -0x8(%rbp),%xmm2
    624e:	f3 0f 10 0d 86 95 00 	movss  0x9586(%rip),%xmm1        # f7dc <g_1338+0x177c>
    6255:	00 
    6256:	f3 0f 59 ca          	mulss  %xmm2,%xmm1
    625a:	f3 0f 5c c1          	subss  %xmm1,%xmm0
    625e:	f3 0f 10 0d 7a 95 00 	movss  0x957a(%rip),%xmm1        # f7e0 <g_1338+0x1780>
    6265:	00 
    6266:	0f 54 c1             	andps  %xmm1,%xmm0
    6269:	0f 2f 05 80 95 00 00 	comiss 0x9580(%rip),%xmm0        # f7f0 <g_1338+0x1790>
    6270:	76 07                	jbe    6279 <safe_sub_func_float_f_f+0x53>
    6272:	f3 0f 10 45 fc       	movss  -0x4(%rbp),%xmm0
    6277:	eb 0a                	jmp    6283 <safe_sub_func_float_f_f+0x5d>
    6279:	f3 0f 10 45 fc       	movss  -0x4(%rbp),%xmm0
    627e:	f3 0f 5c 45 f8       	subss  -0x8(%rbp),%xmm0
    6283:	5d                   	pop    %rbp
    6284:	c3                   	retq   

0000000000006285 <safe_mul_func_float_f_f>:
    6285:	f3 0f 1e fa          	endbr64 
    6289:	55                   	push   %rbp
    628a:	48 89 e5             	mov    %rsp,%rbp
    628d:	f3 0f 11 45 fc       	movss  %xmm0,-0x4(%rbp)
    6292:	f3 0f 11 4d f8       	movss  %xmm1,-0x8(%rbp)
    6297:	f3 0f 10 4d fc       	movss  -0x4(%rbp),%xmm1
    629c:	f3 0f 10 05 50 95 00 	movss  0x9550(%rip),%xmm0        # f7f4 <g_1338+0x1794>
    62a3:	00 
    62a4:	f3 0f 59 c8          	mulss  %xmm0,%xmm1
    62a8:	f3 0f 10 55 f8       	movss  -0x8(%rbp),%xmm2
    62ad:	f3 0f 10 05 43 95 00 	movss  0x9543(%rip),%xmm0        # f7f8 <g_1338+0x1798>
    62b4:	00 
    62b5:	f3 0f 59 c2          	mulss  %xmm2,%xmm0
    62b9:	f3 0f 59 c1          	mulss  %xmm1,%xmm0
    62bd:	f3 0f 10 0d 1b 95 00 	movss  0x951b(%rip),%xmm1        # f7e0 <g_1338+0x1780>
    62c4:	00 
    62c5:	0f 54 c1             	andps  %xmm1,%xmm0
    62c8:	0f 2f 05 2d 95 00 00 	comiss 0x952d(%rip),%xmm0        # f7fc <g_1338+0x179c>
    62cf:	76 07                	jbe    62d8 <safe_mul_func_float_f_f+0x53>
    62d1:	f3 0f 10 45 fc       	movss  -0x4(%rbp),%xmm0
    62d6:	eb 0a                	jmp    62e2 <safe_mul_func_float_f_f+0x5d>
    62d8:	f3 0f 10 45 fc       	movss  -0x4(%rbp),%xmm0
    62dd:	f3 0f 59 45 f8       	mulss  -0x8(%rbp),%xmm0
    62e2:	5d                   	pop    %rbp
    62e3:	c3                   	retq   

00000000000062e4 <safe_div_func_float_f_f>:
    62e4:	f3 0f 1e fa          	endbr64 
    62e8:	55                   	push   %rbp
    62e9:	48 89 e5             	mov    %rsp,%rbp
    62ec:	f3 0f 11 45 fc       	movss  %xmm0,-0x4(%rbp)
    62f1:	f3 0f 11 4d f8       	movss  %xmm1,-0x8(%rbp)
    62f6:	f3 0f 10 45 f8       	movss  -0x8(%rbp),%xmm0
    62fb:	f3 0f 10 0d dd 94 00 	movss  0x94dd(%rip),%xmm1        # f7e0 <g_1338+0x1780>
    6302:	00 
    6303:	0f 54 c8             	andps  %xmm0,%xmm1
    6306:	f3 0f 10 05 f2 94 00 	movss  0x94f2(%rip),%xmm0        # f800 <g_1338+0x17a0>
    630d:	00 
    630e:	0f 2f c1             	comiss %xmm1,%xmm0
    6311:	0f 97 c0             	seta   %al
    6314:	83 f0 01             	xor    $0x1,%eax
    6317:	84 c0                	test   %al,%al
    6319:	75 56                	jne    6371 <safe_div_func_float_f_f+0x8d>
    631b:	66 0f ef c0          	pxor   %xmm0,%xmm0
    631f:	0f 2e 45 f8          	ucomiss -0x8(%rbp),%xmm0
    6323:	7a 0a                	jp     632f <safe_div_func_float_f_f+0x4b>
    6325:	66 0f ef c0          	pxor   %xmm0,%xmm0
    6329:	0f 2e 45 f8          	ucomiss -0x8(%rbp),%xmm0
    632d:	74 4e                	je     637d <safe_div_func_float_f_f+0x99>
    632f:	f3 0f 10 4d fc       	movss  -0x4(%rbp),%xmm1
    6334:	f3 0f 10 05 c8 94 00 	movss  0x94c8(%rip),%xmm0        # f804 <g_1338+0x17a4>
    633b:	00 
    633c:	f3 0f 59 c1          	mulss  %xmm1,%xmm0
    6340:	f3 0f 10 55 f8       	movss  -0x8(%rbp),%xmm2
    6345:	f3 0f 10 0d bb 94 00 	movss  0x94bb(%rip),%xmm1        # f808 <g_1338+0x17a8>
    634c:	00 
    634d:	f3 0f 59 ca          	mulss  %xmm2,%xmm1
    6351:	f3 0f 5e c1          	divss  %xmm1,%xmm0
    6355:	f3 0f 10 0d 83 94 00 	movss  0x9483(%rip),%xmm1        # f7e0 <g_1338+0x1780>
    635c:	00 
    635d:	0f 54 c1             	andps  %xmm1,%xmm0
    6360:	0f 2f 05 a5 94 00 00 	comiss 0x94a5(%rip),%xmm0        # f80c <g_1338+0x17ac>
    6367:	0f 97 c0             	seta   %al
    636a:	83 f0 01             	xor    $0x1,%eax
    636d:	84 c0                	test   %al,%al
    636f:	74 0c                	je     637d <safe_div_func_float_f_f+0x99>
    6371:	f3 0f 10 45 fc       	movss  -0x4(%rbp),%xmm0
    6376:	f3 0f 5e 45 f8       	divss  -0x8(%rbp),%xmm0
    637b:	eb 05                	jmp    6382 <safe_div_func_float_f_f+0x9e>
    637d:	f3 0f 10 45 fc       	movss  -0x4(%rbp),%xmm0
    6382:	5d                   	pop    %rbp
    6383:	c3                   	retq   

0000000000006384 <safe_add_func_double_f_f>:
    6384:	f3 0f 1e fa          	endbr64 
    6388:	55                   	push   %rbp
    6389:	48 89 e5             	mov    %rsp,%rbp
    638c:	f2 0f 11 45 f8       	movsd  %xmm0,-0x8(%rbp)
    6391:	f2 0f 11 4d f0       	movsd  %xmm1,-0x10(%rbp)
    6396:	f2 0f 10 4d f8       	movsd  -0x8(%rbp),%xmm1
    639b:	f2 0f 10 05 6d 94 00 	movsd  0x946d(%rip),%xmm0        # f810 <g_1338+0x17b0>
    63a2:	00 
    63a3:	f2 0f 59 c8          	mulsd  %xmm0,%xmm1
    63a7:	f2 0f 10 55 f0       	movsd  -0x10(%rbp),%xmm2
    63ac:	f2 0f 10 05 5c 94 00 	movsd  0x945c(%rip),%xmm0        # f810 <g_1338+0x17b0>
    63b3:	00 
    63b4:	f2 0f 59 c2          	mulsd  %xmm2,%xmm0
    63b8:	f2 0f 58 c1          	addsd  %xmm1,%xmm0
    63bc:	f3 0f 7e 0d 5c 94 00 	movq   0x945c(%rip),%xmm1        # f820 <g_1338+0x17c0>
    63c3:	00 
    63c4:	66 0f 54 c1          	andpd  %xmm1,%xmm0
    63c8:	66 0f 2f 05 60 94 00 	comisd 0x9460(%rip),%xmm0        # f830 <g_1338+0x17d0>
    63cf:	00 
    63d0:	76 07                	jbe    63d9 <safe_add_func_double_f_f+0x55>
    63d2:	f2 0f 10 45 f8       	movsd  -0x8(%rbp),%xmm0
    63d7:	eb 0a                	jmp    63e3 <safe_add_func_double_f_f+0x5f>
    63d9:	f2 0f 10 45 f8       	movsd  -0x8(%rbp),%xmm0
    63de:	f2 0f 58 45 f0       	addsd  -0x10(%rbp),%xmm0
    63e3:	5d                   	pop    %rbp
    63e4:	c3                   	retq   

00000000000063e5 <safe_sub_func_double_f_f>:
    63e5:	f3 0f 1e fa          	endbr64 
    63e9:	55                   	push   %rbp
    63ea:	48 89 e5             	mov    %rsp,%rbp
    63ed:	f2 0f 11 45 f8       	movsd  %xmm0,-0x8(%rbp)
    63f2:	f2 0f 11 4d f0       	movsd  %xmm1,-0x10(%rbp)
    63f7:	f2 0f 10 4d f8       	movsd  -0x8(%rbp),%xmm1
    63fc:	f2 0f 10 05 0c 94 00 	movsd  0x940c(%rip),%xmm0        # f810 <g_1338+0x17b0>
    6403:	00 
    6404:	f2 0f 59 c1          	mulsd  %xmm1,%xmm0
    6408:	f2 0f 10 55 f0       	movsd  -0x10(%rbp),%xmm2
    640d:	f2 0f 10 0d fb 93 00 	movsd  0x93fb(%rip),%xmm1        # f810 <g_1338+0x17b0>
    6414:	00 
    6415:	f2 0f 59 ca          	mulsd  %xmm2,%xmm1
    6419:	f2 0f 5c c1          	subsd  %xmm1,%xmm0
    641d:	f3 0f 7e 0d fb 93 00 	movq   0x93fb(%rip),%xmm1        # f820 <g_1338+0x17c0>
    6424:	00 
    6425:	66 0f 54 c1          	andpd  %xmm1,%xmm0
    6429:	66 0f 2f 05 ff 93 00 	comisd 0x93ff(%rip),%xmm0        # f830 <g_1338+0x17d0>
    6430:	00 
    6431:	76 07                	jbe    643a <safe_sub_func_double_f_f+0x55>
    6433:	f2 0f 10 45 f8       	movsd  -0x8(%rbp),%xmm0
    6438:	eb 0a                	jmp    6444 <safe_sub_func_double_f_f+0x5f>
    643a:	f2 0f 10 45 f8       	movsd  -0x8(%rbp),%xmm0
    643f:	f2 0f 5c 45 f0       	subsd  -0x10(%rbp),%xmm0
    6444:	5d                   	pop    %rbp
    6445:	c3                   	retq   

0000000000006446 <safe_mul_func_double_f_f>:
    6446:	f3 0f 1e fa          	endbr64 
    644a:	55                   	push   %rbp
    644b:	48 89 e5             	mov    %rsp,%rbp
    644e:	f2 0f 11 45 f8       	movsd  %xmm0,-0x8(%rbp)
    6453:	f2 0f 11 4d f0       	movsd  %xmm1,-0x10(%rbp)
    6458:	f2 0f 10 4d f8       	movsd  -0x8(%rbp),%xmm1
    645d:	f2 0f 10 05 d3 93 00 	movsd  0x93d3(%rip),%xmm0        # f838 <g_1338+0x17d8>
    6464:	00 
    6465:	f2 0f 59 c8          	mulsd  %xmm0,%xmm1
    6469:	f2 0f 10 55 f0       	movsd  -0x10(%rbp),%xmm2
    646e:	f2 0f 10 05 ca 93 00 	movsd  0x93ca(%rip),%xmm0        # f840 <g_1338+0x17e0>
    6475:	00 
    6476:	f2 0f 59 c2          	mulsd  %xmm2,%xmm0
    647a:	f2 0f 59 c1          	mulsd  %xmm1,%xmm0
    647e:	f3 0f 7e 0d 9a 93 00 	movq   0x939a(%rip),%xmm1        # f820 <g_1338+0x17c0>
    6485:	00 
    6486:	66 0f 54 c1          	andpd  %xmm1,%xmm0
    648a:	66 0f 2f 05 b6 93 00 	comisd 0x93b6(%rip),%xmm0        # f848 <g_1338+0x17e8>
    6491:	00 
    6492:	76 07                	jbe    649b <safe_mul_func_double_f_f+0x55>
    6494:	f2 0f 10 45 f8       	movsd  -0x8(%rbp),%xmm0
    6499:	eb 0a                	jmp    64a5 <safe_mul_func_double_f_f+0x5f>
    649b:	f2 0f 10 45 f8       	movsd  -0x8(%rbp),%xmm0
    64a0:	f2 0f 59 45 f0       	mulsd  -0x10(%rbp),%xmm0
    64a5:	5d                   	pop    %rbp
    64a6:	c3                   	retq   

00000000000064a7 <safe_div_func_double_f_f>:
    64a7:	f3 0f 1e fa          	endbr64 
    64ab:	55                   	push   %rbp
    64ac:	48 89 e5             	mov    %rsp,%rbp
    64af:	f2 0f 11 45 f8       	movsd  %xmm0,-0x8(%rbp)
    64b4:	f2 0f 11 4d f0       	movsd  %xmm1,-0x10(%rbp)
    64b9:	f2 0f 10 45 f0       	movsd  -0x10(%rbp),%xmm0
    64be:	f3 0f 7e 0d 5a 93 00 	movq   0x935a(%rip),%xmm1        # f820 <g_1338+0x17c0>
    64c5:	00 
    64c6:	66 0f 54 c8          	andpd  %xmm0,%xmm1
    64ca:	f2 0f 10 05 7e 93 00 	movsd  0x937e(%rip),%xmm0        # f850 <g_1338+0x17f0>
    64d1:	00 
    64d2:	66 0f 2f c1          	comisd %xmm1,%xmm0
    64d6:	0f 97 c0             	seta   %al
    64d9:	83 f0 01             	xor    $0x1,%eax
    64dc:	84 c0                	test   %al,%al
    64de:	75 5a                	jne    653a <safe_div_func_double_f_f+0x93>
    64e0:	66 0f ef c0          	pxor   %xmm0,%xmm0
    64e4:	66 0f 2e 45 f0       	ucomisd -0x10(%rbp),%xmm0
    64e9:	7a 0b                	jp     64f6 <safe_div_func_double_f_f+0x4f>
    64eb:	66 0f ef c0          	pxor   %xmm0,%xmm0
    64ef:	66 0f 2e 45 f0       	ucomisd -0x10(%rbp),%xmm0
    64f4:	74 50                	je     6546 <safe_div_func_double_f_f+0x9f>
    64f6:	f2 0f 10 4d f8       	movsd  -0x8(%rbp),%xmm1
    64fb:	f2 0f 10 05 55 93 00 	movsd  0x9355(%rip),%xmm0        # f858 <g_1338+0x17f8>
    6502:	00 
    6503:	f2 0f 59 c1          	mulsd  %xmm1,%xmm0
    6507:	f2 0f 10 55 f0       	movsd  -0x10(%rbp),%xmm2
    650c:	f2 0f 10 0d 4c 93 00 	movsd  0x934c(%rip),%xmm1        # f860 <g_1338+0x1800>
    6513:	00 
    6514:	f2 0f 59 ca          	mulsd  %xmm2,%xmm1
    6518:	f2 0f 5e c1          	divsd  %xmm1,%xmm0
    651c:	f3 0f 7e 0d fc 92 00 	movq   0x92fc(%rip),%xmm1        # f820 <g_1338+0x17c0>
    6523:	00 
    6524:	66 0f 54 c1          	andpd  %xmm1,%xmm0
    6528:	66 0f 2f 05 38 93 00 	comisd 0x9338(%rip),%xmm0        # f868 <g_1338+0x1808>
    652f:	00 
    6530:	0f 97 c0             	seta   %al
    6533:	83 f0 01             	xor    $0x1,%eax
    6536:	84 c0                	test   %al,%al
    6538:	74 0c                	je     6546 <safe_div_func_double_f_f+0x9f>
    653a:	f2 0f 10 45 f8       	movsd  -0x8(%rbp),%xmm0
    653f:	f2 0f 5e 45 f0       	divsd  -0x10(%rbp),%xmm0
    6544:	eb 05                	jmp    654b <safe_div_func_double_f_f+0xa4>
    6546:	f2 0f 10 45 f8       	movsd  -0x8(%rbp),%xmm0
    654b:	5d                   	pop    %rbp
    654c:	c3                   	retq   

000000000000654d <safe_convert_func_float_to_int32_t>:
    654d:	f3 0f 1e fa          	endbr64 
    6551:	55                   	push   %rbp
    6552:	48 89 e5             	mov    %rsp,%rbp
    6555:	f3 0f 11 45 fc       	movss  %xmm0,-0x4(%rbp)
    655a:	f3 0f 10 05 0e 93 00 	movss  0x930e(%rip),%xmm0        # f870 <g_1338+0x1810>
    6561:	00 
    6562:	0f 2f 45 fc          	comiss -0x4(%rbp),%xmm0
    6566:	0f 93 c0             	setae  %al
    6569:	83 f0 01             	xor    $0x1,%eax
    656c:	84 c0                	test   %al,%al
    656e:	74 21                	je     6591 <safe_convert_func_float_to_int32_t+0x44>
    6570:	f3 0f 10 45 fc       	movss  -0x4(%rbp),%xmm0
    6575:	0f 2f 05 f8 92 00 00 	comiss 0x92f8(%rip),%xmm0        # f874 <g_1338+0x1814>
    657c:	0f 93 c0             	setae  %al
    657f:	83 f0 01             	xor    $0x1,%eax
    6582:	84 c0                	test   %al,%al
    6584:	74 0b                	je     6591 <safe_convert_func_float_to_int32_t+0x44>
    6586:	f3 0f 10 45 fc       	movss  -0x4(%rbp),%xmm0
    658b:	f3 0f 2c c0          	cvttss2si %xmm0,%eax
    658f:	eb 05                	jmp    6596 <safe_convert_func_float_to_int32_t+0x49>
    6591:	b8 ff ff ff 7f       	mov    $0x7fffffff,%eax
    6596:	5d                   	pop    %rbp
    6597:	c3                   	retq   

0000000000006598 <crc32_gentab>:
    6598:	f3 0f 1e fa          	endbr64 
    659c:	55                   	push   %rbp
    659d:	48 89 e5             	mov    %rsp,%rbp
    65a0:	c7 45 fc 20 83 b8 ed 	movl   $0xedb88320,-0x4(%rbp)
    65a7:	c7 45 f4 00 00 00 00 	movl   $0x0,-0xc(%rbp)
    65ae:	eb 51                	jmp    6601 <crc32_gentab+0x69>
    65b0:	8b 45 f4             	mov    -0xc(%rbp),%eax
    65b3:	89 45 f0             	mov    %eax,-0x10(%rbp)
    65b6:	c7 45 f8 08 00 00 00 	movl   $0x8,-0x8(%rbp)
    65bd:	eb 1e                	jmp    65dd <crc32_gentab+0x45>
    65bf:	8b 45 f0             	mov    -0x10(%rbp),%eax
    65c2:	83 e0 01             	and    $0x1,%eax
    65c5:	85 c0                	test   %eax,%eax
    65c7:	74 0d                	je     65d6 <crc32_gentab+0x3e>
    65c9:	8b 45 f0             	mov    -0x10(%rbp),%eax
    65cc:	d1 e8                	shr    %eax
    65ce:	33 45 fc             	xor    -0x4(%rbp),%eax
    65d1:	89 45 f0             	mov    %eax,-0x10(%rbp)
    65d4:	eb 03                	jmp    65d9 <crc32_gentab+0x41>
    65d6:	d1 6d f0             	shrl   -0x10(%rbp)
    65d9:	83 6d f8 01          	subl   $0x1,-0x8(%rbp)
    65dd:	83 7d f8 00          	cmpl   $0x0,-0x8(%rbp)
    65e1:	7f dc                	jg     65bf <crc32_gentab+0x27>
    65e3:	8b 45 f4             	mov    -0xc(%rbp),%eax
    65e6:	48 98                	cltq   
    65e8:	48 8d 0c 85 00 00 00 	lea    0x0(,%rax,4),%rcx
    65ef:	00 
    65f0:	48 8d 15 c9 dd 00 00 	lea    0xddc9(%rip),%rdx        # 143c0 <crc32_tab>
    65f7:	8b 45 f0             	mov    -0x10(%rbp),%eax
    65fa:	89 04 11             	mov    %eax,(%rcx,%rdx,1)
    65fd:	83 45 f4 01          	addl   $0x1,-0xc(%rbp)
    6601:	81 7d f4 ff 00 00 00 	cmpl   $0xff,-0xc(%rbp)
    6608:	7e a6                	jle    65b0 <crc32_gentab+0x18>
    660a:	90                   	nop
    660b:	90                   	nop
    660c:	5d                   	pop    %rbp
    660d:	c3                   	retq   

000000000000660e <crc32_byte>:
    660e:	f3 0f 1e fa          	endbr64 
    6612:	55                   	push   %rbp
    6613:	48 89 e5             	mov    %rsp,%rbp
    6616:	89 f8                	mov    %edi,%eax
    6618:	88 45 fc             	mov    %al,-0x4(%rbp)
    661b:	8b 05 ff b9 00 00    	mov    0xb9ff(%rip),%eax        # 12020 <crc32_context>
    6621:	c1 e8 08             	shr    $0x8,%eax
    6624:	89 c1                	mov    %eax,%ecx
    6626:	0f b6 55 fc          	movzbl -0x4(%rbp),%edx
    662a:	8b 05 f0 b9 00 00    	mov    0xb9f0(%rip),%eax        # 12020 <crc32_context>
    6630:	31 d0                	xor    %edx,%eax
    6632:	0f b6 c0             	movzbl %al,%eax
    6635:	89 c0                	mov    %eax,%eax
    6637:	48 8d 14 85 00 00 00 	lea    0x0(,%rax,4),%rdx
    663e:	00 
    663f:	48 8d 05 7a dd 00 00 	lea    0xdd7a(%rip),%rax        # 143c0 <crc32_tab>
    6646:	8b 04 02             	mov    (%rdx,%rax,1),%eax
    6649:	31 c8                	xor    %ecx,%eax
    664b:	89 05 cf b9 00 00    	mov    %eax,0xb9cf(%rip)        # 12020 <crc32_context>
    6651:	90                   	nop
    6652:	5d                   	pop    %rbp
    6653:	c3                   	retq   

0000000000006654 <crc32_8bytes>:
    6654:	f3 0f 1e fa          	endbr64 
    6658:	55                   	push   %rbp
    6659:	48 89 e5             	mov    %rsp,%rbp
    665c:	48 83 ec 08          	sub    $0x8,%rsp
    6660:	48 89 7d f8          	mov    %rdi,-0x8(%rbp)
    6664:	48 8b 45 f8          	mov    -0x8(%rbp),%rax
    6668:	0f b6 c0             	movzbl %al,%eax
    666b:	89 c7                	mov    %eax,%edi
    666d:	e8 9c ff ff ff       	callq  660e <crc32_byte>
    6672:	48 8b 45 f8          	mov    -0x8(%rbp),%rax
    6676:	48 c1 e8 08          	shr    $0x8,%rax
    667a:	0f b6 c0             	movzbl %al,%eax
    667d:	89 c7                	mov    %eax,%edi
    667f:	e8 8a ff ff ff       	callq  660e <crc32_byte>
    6684:	48 8b 45 f8          	mov    -0x8(%rbp),%rax
    6688:	48 c1 e8 10          	shr    $0x10,%rax
    668c:	0f b6 c0             	movzbl %al,%eax
    668f:	89 c7                	mov    %eax,%edi
    6691:	e8 78 ff ff ff       	callq  660e <crc32_byte>
    6696:	48 8b 45 f8          	mov    -0x8(%rbp),%rax
    669a:	48 c1 e8 18          	shr    $0x18,%rax
    669e:	0f b6 c0             	movzbl %al,%eax
    66a1:	89 c7                	mov    %eax,%edi
    66a3:	e8 66 ff ff ff       	callq  660e <crc32_byte>
    66a8:	48 8b 45 f8          	mov    -0x8(%rbp),%rax
    66ac:	48 c1 e8 20          	shr    $0x20,%rax
    66b0:	0f b6 c0             	movzbl %al,%eax
    66b3:	89 c7                	mov    %eax,%edi
    66b5:	e8 54 ff ff ff       	callq  660e <crc32_byte>
    66ba:	48 8b 45 f8          	mov    -0x8(%rbp),%rax
    66be:	48 c1 e8 28          	shr    $0x28,%rax
    66c2:	0f b6 c0             	movzbl %al,%eax
    66c5:	89 c7                	mov    %eax,%edi
    66c7:	e8 42 ff ff ff       	callq  660e <crc32_byte>
    66cc:	48 8b 45 f8          	mov    -0x8(%rbp),%rax
    66d0:	48 c1 e8 30          	shr    $0x30,%rax
    66d4:	0f b6 c0             	movzbl %al,%eax
    66d7:	89 c7                	mov    %eax,%edi
    66d9:	e8 30 ff ff ff       	callq  660e <crc32_byte>
    66de:	48 8b 45 f8          	mov    -0x8(%rbp),%rax
    66e2:	48 c1 e8 38          	shr    $0x38,%rax
    66e6:	0f b6 c0             	movzbl %al,%eax
    66e9:	89 c7                	mov    %eax,%edi
    66eb:	e8 1e ff ff ff       	callq  660e <crc32_byte>
    66f0:	90                   	nop
    66f1:	c9                   	leaveq 
    66f2:	c3                   	retq   

00000000000066f3 <transparent_crc>:
    66f3:	f3 0f 1e fa          	endbr64 
    66f7:	55                   	push   %rbp
    66f8:	48 89 e5             	mov    %rsp,%rbp
    66fb:	48 83 ec 20          	sub    $0x20,%rsp
    66ff:	48 89 7d f8          	mov    %rdi,-0x8(%rbp)
    6703:	48 89 75 f0          	mov    %rsi,-0x10(%rbp)
    6707:	89 55 ec             	mov    %edx,-0x14(%rbp)
    670a:	48 8b 45 f8          	mov    -0x8(%rbp),%rax
    670e:	48 89 c7             	mov    %rax,%rdi
    6711:	e8 3e ff ff ff       	callq  6654 <crc32_8bytes>
    6716:	83 7d ec 00          	cmpl   $0x0,-0x14(%rbp)
    671a:	74 22                	je     673e <transparent_crc+0x4b>
    671c:	8b 05 fe b8 00 00    	mov    0xb8fe(%rip),%eax        # 12020 <crc32_context>
    6722:	f7 d0                	not    %eax
    6724:	89 c2                	mov    %eax,%edx
    6726:	48 8b 45 f0          	mov    -0x10(%rbp),%rax
    672a:	48 89 c6             	mov    %rax,%rsi
    672d:	48 8d 3d fc 78 00 00 	lea    0x78fc(%rip),%rdi        # e030 <_IO_stdin_used+0x30>
    6734:	b8 00 00 00 00       	mov    $0x0,%eax
    6739:	e8 42 e9 ff ff       	callq  5080 <printf@plt>
    673e:	90                   	nop
    673f:	c9                   	leaveq 
    6740:	c3                   	retq   

0000000000006741 <transparent_crc_bytes>:
    6741:	f3 0f 1e fa          	endbr64 
    6745:	55                   	push   %rbp
    6746:	48 89 e5             	mov    %rsp,%rbp
    6749:	48 83 ec 30          	sub    $0x30,%rsp
    674d:	48 89 7d e8          	mov    %rdi,-0x18(%rbp)
    6751:	89 75 e4             	mov    %esi,-0x1c(%rbp)
    6754:	48 89 55 d8          	mov    %rdx,-0x28(%rbp)
    6758:	89 4d e0             	mov    %ecx,-0x20(%rbp)
    675b:	c7 45 fc 00 00 00 00 	movl   $0x0,-0x4(%rbp)
    6762:	eb 1e                	jmp    6782 <transparent_crc_bytes+0x41>
    6764:	8b 45 fc             	mov    -0x4(%rbp),%eax
    6767:	48 63 d0             	movslq %eax,%rdx
    676a:	48 8b 45 e8          	mov    -0x18(%rbp),%rax
    676e:	48 01 d0             	add    %rdx,%rax
    6771:	0f b6 00             	movzbl (%rax),%eax
    6774:	0f b6 c0             	movzbl %al,%eax
    6777:	89 c7                	mov    %eax,%edi
    6779:	e8 90 fe ff ff       	callq  660e <crc32_byte>
    677e:	83 45 fc 01          	addl   $0x1,-0x4(%rbp)
    6782:	8b 45 fc             	mov    -0x4(%rbp),%eax
    6785:	3b 45 e4             	cmp    -0x1c(%rbp),%eax
    6788:	7c da                	jl     6764 <transparent_crc_bytes+0x23>
    678a:	83 7d e0 00          	cmpl   $0x0,-0x20(%rbp)
    678e:	74 22                	je     67b2 <transparent_crc_bytes+0x71>
    6790:	8b 05 8a b8 00 00    	mov    0xb88a(%rip),%eax        # 12020 <crc32_context>
    6796:	f7 d0                	not    %eax
    6798:	89 c2                	mov    %eax,%edx
    679a:	48 8b 45 d8          	mov    -0x28(%rbp),%rax
    679e:	48 89 c6             	mov    %rax,%rsi
    67a1:	48 8d 3d 88 78 00 00 	lea    0x7888(%rip),%rdi        # e030 <_IO_stdin_used+0x30>
    67a8:	b8 00 00 00 00       	mov    $0x0,%eax
    67ad:	e8 ce e8 ff ff       	callq  5080 <printf@plt>
    67b2:	90                   	nop
    67b3:	c9                   	leaveq 
    67b4:	c3                   	retq   

00000000000067b5 <func_1>:
    67b5:	f3 0f 1e fa          	endbr64 
    67b9:	55                   	push   %rbp
    67ba:	48 89 e5             	mov    %rsp,%rbp
    67bd:	41 54                	push   %r12
    67bf:	53                   	push   %rbx
    67c0:	48 81 ec b0 08 00 00 	sub    $0x8b0,%rsp
    67c7:	64 48 8b 04 25 28 00 	mov    %fs:0x28,%rax
    67ce:	00 00 
    67d0:	48 89 45 e8          	mov    %rax,-0x18(%rbp)
    67d4:	31 c0                	xor    %eax,%eax
    67d6:	c7 85 4c f7 ff ff 01 	movl   $0x1,-0x8b4(%rbp)
    67dd:	00 00 00 
    67e0:	c7 85 50 f7 ff ff 00 	movl   $0x0,-0x8b0(%rbp)
    67e7:	00 00 00 
    67ea:	48 8d 05 4f b8 00 00 	lea    0xb84f(%rip),%rax        # 12040 <g_19>
    67f1:	48 89 85 68 f7 ff ff 	mov    %rax,-0x898(%rbp)
    67f8:	48 8d 05 b1 da 00 00 	lea    0xdab1(%rip),%rax        # 142b0 <g_878>
    67ff:	48 89 85 a0 f7 ff ff 	mov    %rax,-0x860(%rbp)
    6806:	48 8d 05 ab da 00 00 	lea    0xdaab(%rip),%rax        # 142b8 <g_877>
    680d:	48 89 85 a8 f7 ff ff 	mov    %rax,-0x858(%rbp)
    6814:	48 8d 85 a0 f9 ff ff 	lea    -0x660(%rbp),%rax
    681b:	48 8d 15 5e c4 00 00 	lea    0xc45e(%rip),%rdx        # 12c80 <g_1398+0x18>
    6822:	b9 50 00 00 00       	mov    $0x50,%ecx
    6827:	48 89 c7             	mov    %rax,%rdi
    682a:	48 89 d6             	mov    %rdx,%rsi
    682d:	f3 48 a5             	rep movsq %ds:(%rsi),%es:(%rdi)
    6830:	48 b8 12 d7 73 f9 b1 	movabs $0xb9e31cb1f973d712,%rax
    6837:	1c e3 b9 
    683a:	48 89 85 b0 f7 ff ff 	mov    %rax,-0x850(%rbp)
    6841:	66 c7 85 44 f7 ff ff 	movw   $0xe156,-0x8bc(%rbp)
    6848:	56 e1 
    684a:	66 c7 85 46 f7 ff ff 	movw   $0xcbb,-0x8ba(%rbp)
    6851:	bb 0c 
    6853:	8b 9d 4c f7 ff ff    	mov    -0x8b4(%rbp),%ebx
    6859:	48 8b 85 68 f7 ff ff 	mov    -0x898(%rbp),%rax
    6860:	8b 10                	mov    (%rax),%edx
    6862:	83 c2 01             	add    $0x1,%edx
    6865:	89 10                	mov    %edx,(%rax)
    6867:	8b 85 50 f7 ff ff    	mov    -0x8b0(%rbp),%eax
    686d:	4c 63 e0             	movslq %eax,%r12
    6870:	48 8d 3d d9 b7 00 00 	lea    0xb7d9(%rip),%rdi        # 12050 <g_19+0x10>
    6877:	e8 2e 06 00 00       	callq  6eaa <func_24>
    687c:	8b 95 4c f7 ff ff    	mov    -0x8b4(%rbp),%edx
    6882:	48 8b 85 a8 f7 ff ff 	mov    -0x858(%rbp),%rax
    6889:	48 8b 8d a0 f7 ff ff 	mov    -0x860(%rbp),%rcx
    6890:	48 89 08             	mov    %rcx,(%rax)
    6893:	48 8b 85 a8 f7 ff ff 	mov    -0x858(%rbp),%rax
    689a:	48 8b 00             	mov    (%rax),%rax
    689d:	48 8d 0d 0c da 00 00 	lea    0xda0c(%rip),%rcx        # 142b0 <g_878>
    68a4:	48 39 c8             	cmp    %rcx,%rax
    68a7:	0f 94 c0             	sete   %al
    68aa:	0f b6 c0             	movzbl %al,%eax
    68ad:	48 89 d6             	mov    %rdx,%rsi
    68b0:	48 89 c7             	mov    %rax,%rdi
    68b3:	e8 3f f1 ff ff       	callq  59f7 <safe_div_func_int64_t_s_s>
    68b8:	4c 89 e6             	mov    %r12,%rsi
    68bb:	48 89 c7             	mov    %rax,%rdi
    68be:	e8 ec f7 ff ff       	callq  60af <safe_div_func_uint64_t_u_u>
    68c3:	89 c1                	mov    %eax,%ecx
    68c5:	8b 85 4c f7 ff ff    	mov    -0x8b4(%rbp),%eax
    68cb:	0f bf d0             	movswl %ax,%edx
    68ce:	0f b7 05 4f b7 00 00 	movzwl 0xb74f(%rip),%eax        # 12024 <g_2>
    68d5:	0f b7 f0             	movzwl %ax,%esi
    68d8:	8b 85 4c f7 ff ff    	mov    -0x8b4(%rbp),%eax
    68de:	89 c7                	mov    %eax,%edi
    68e0:	e8 51 05 00 00       	callq  6e36 <func_11>
    68e5:	0f bf d0             	movswl %ax,%edx
    68e8:	0f b7 05 35 b7 00 00 	movzwl 0xb735(%rip),%eax        # 12024 <g_2>
    68ef:	0f b7 c0             	movzwl %ax,%eax
    68f2:	39 c2                	cmp    %eax,%edx
    68f4:	0f 95 c0             	setne  %al
    68f7:	0f b6 c0             	movzbl %al,%eax
    68fa:	39 85 4c f7 ff ff    	cmp    %eax,-0x8b4(%rbp)
    6900:	0f 93 c0             	setae  %al
    6903:	0f b6 c0             	movzbl %al,%eax
    6906:	be 02 00 00 00       	mov    $0x2,%esi
    690b:	89 c7                	mov    %eax,%edi
    690d:	e8 ac f3 ff ff       	callq  5cbe <safe_rshift_func_uint8_t_u_u>
    6912:	0f b6 d0             	movzbl %al,%edx
    6915:	0f b6 05 86 bb 00 00 	movzbl 0xbb86(%rip),%eax        # 124a2 <g_711>
    691c:	0f be c0             	movsbl %al,%eax
    691f:	39 c2                	cmp    %eax,%edx
    6921:	0f 9d c0             	setge  %al
    6924:	0f b6 c0             	movzbl %al,%eax
    6927:	be 05 00 00 00       	mov    $0x5,%esi
    692c:	89 c7                	mov    %eax,%edi
    692e:	e8 5a f3 ff ff       	callq  5c8d <safe_rshift_func_uint8_t_u_s>
    6933:	0f b6 c0             	movzbl %al,%eax
    6936:	89 85 50 f7 ff ff    	mov    %eax,-0x8b0(%rbp)
    693c:	8b 85 50 f7 ff ff    	mov    -0x8b0(%rbp),%eax
    6942:	be 79 bc 07 b0       	mov    $0xb007bc79,%esi
    6947:	89 c7                	mov    %eax,%edi
    6949:	e8 b7 ec ff ff       	callq  5605 <safe_sub_func_int32_t_s_s>
    694e:	0f b6 c0             	movzbl %al,%eax
    6951:	89 de                	mov    %ebx,%esi
    6953:	89 c7                	mov    %eax,%edi
    6955:	e8 33 f3 ff ff       	callq  5c8d <safe_rshift_func_uint8_t_u_s>
    695a:	0f b6 d0             	movzbl %al,%edx
    695d:	0f b7 05 c0 b6 00 00 	movzwl 0xb6c0(%rip),%eax        # 12024 <g_2>
    6964:	66 39 c2             	cmp    %ax,%dx
    6967:	0f 97 c2             	seta   %dl
    696a:	48 8b 05 9f d9 00 00 	mov    0xd99f(%rip),%rax        # 14310 <g_1223>
    6971:	0f b6 d2             	movzbl %dl,%edx
    6974:	89 10                	mov    %edx,(%rax)
    6976:	8b 10                	mov    (%rax),%edx
    6978:	8b 05 96 c2 00 00    	mov    0xc296(%rip),%eax        # 12c14 <g_1263+0x14>
    697e:	31 d0                	xor    %edx,%eax
    6980:	89 05 8e c2 00 00    	mov    %eax,0xc28e(%rip)        # 12c14 <g_1263+0x14>
    6986:	66 c7 05 11 bb 00 00 	movw   $0xfff3,0xbb11(%rip)        # 124a0 <g_708>
    698d:	f3 ff 
    698f:	e9 67 04 00 00       	jmpq   6dfb <func_1+0x646>
    6994:	48 c7 85 70 f7 ff ff 	movq   $0x0,-0x890(%rbp)
    699b:	00 00 00 00 
    699f:	48 8d 85 70 f7 ff ff 	lea    -0x890(%rbp),%rax
    69a6:	48 89 85 78 f7 ff ff 	mov    %rax,-0x888(%rbp)
    69ad:	48 8d 85 78 f7 ff ff 	lea    -0x888(%rbp),%rax
    69b4:	48 89 85 b8 f7 ff ff 	mov    %rax,-0x848(%rbp)
    69bb:	c7 85 54 f7 ff ff 23 	movl   $0x958ebd23,-0x8ac(%rbp)
    69c2:	bd 8e 95 
    69c5:	48 8d 05 2c b7 00 00 	lea    0xb72c(%rip),%rax        # 120f8 <g_112+0x78>
    69cc:	48 89 85 80 f7 ff ff 	mov    %rax,-0x880(%rbp)
    69d3:	48 8d 85 80 f7 ff ff 	lea    -0x880(%rbp),%rax
    69da:	48 89 85 88 f7 ff ff 	mov    %rax,-0x878(%rbp)
    69e1:	48 8d 85 88 f7 ff ff 	lea    -0x878(%rbp),%rax
    69e8:	48 89 85 b0 f8 ff ff 	mov    %rax,-0x750(%rbp)
    69ef:	48 8d 85 88 f7 ff ff 	lea    -0x878(%rbp),%rax
    69f6:	48 89 85 b8 f8 ff ff 	mov    %rax,-0x748(%rbp)
    69fd:	48 8d 85 88 f7 ff ff 	lea    -0x878(%rbp),%rax
    6a04:	48 89 85 c0 f8 ff ff 	mov    %rax,-0x740(%rbp)
    6a0b:	48 c7 85 c8 f8 ff ff 	movq   $0x0,-0x738(%rbp)
    6a12:	00 00 00 00 
    6a16:	48 8d 85 88 f7 ff ff 	lea    -0x878(%rbp),%rax
    6a1d:	48 89 85 d0 f8 ff ff 	mov    %rax,-0x730(%rbp)
    6a24:	48 8d 85 88 f7 ff ff 	lea    -0x878(%rbp),%rax
    6a2b:	48 89 85 d8 f8 ff ff 	mov    %rax,-0x728(%rbp)
    6a32:	48 c7 85 e0 f8 ff ff 	movq   $0x0,-0x720(%rbp)
    6a39:	00 00 00 00 
    6a3d:	48 8d 85 88 f7 ff ff 	lea    -0x878(%rbp),%rax
    6a44:	48 89 85 e8 f8 ff ff 	mov    %rax,-0x718(%rbp)
    6a4b:	48 8d 85 88 f7 ff ff 	lea    -0x878(%rbp),%rax
    6a52:	48 89 85 f0 f8 ff ff 	mov    %rax,-0x710(%rbp)
    6a59:	48 8d 85 88 f7 ff ff 	lea    -0x878(%rbp),%rax
    6a60:	48 89 85 f8 f8 ff ff 	mov    %rax,-0x708(%rbp)
    6a67:	48 8d 85 88 f7 ff ff 	lea    -0x878(%rbp),%rax
    6a6e:	48 89 85 00 f9 ff ff 	mov    %rax,-0x700(%rbp)
    6a75:	48 c7 85 08 f9 ff ff 	movq   $0x0,-0x6f8(%rbp)
    6a7c:	00 00 00 00 
    6a80:	48 8d 85 88 f7 ff ff 	lea    -0x878(%rbp),%rax
    6a87:	48 89 85 10 f9 ff ff 	mov    %rax,-0x6f0(%rbp)
    6a8e:	48 c7 85 18 f9 ff ff 	movq   $0x0,-0x6e8(%rbp)
    6a95:	00 00 00 00 
    6a99:	48 8d 85 88 f7 ff ff 	lea    -0x878(%rbp),%rax
    6aa0:	48 89 85 20 f9 ff ff 	mov    %rax,-0x6e0(%rbp)
    6aa7:	48 c7 85 28 f9 ff ff 	movq   $0x0,-0x6d8(%rbp)
    6aae:	00 00 00 00 
    6ab2:	48 8d 85 88 f7 ff ff 	lea    -0x878(%rbp),%rax
    6ab9:	48 89 85 30 f9 ff ff 	mov    %rax,-0x6d0(%rbp)
    6ac0:	48 8d 85 88 f7 ff ff 	lea    -0x878(%rbp),%rax
    6ac7:	48 89 85 38 f9 ff ff 	mov    %rax,-0x6c8(%rbp)
    6ace:	48 c7 85 40 f9 ff ff 	movq   $0x0,-0x6c0(%rbp)
    6ad5:	00 00 00 00 
    6ad9:	48 8d 85 88 f7 ff ff 	lea    -0x878(%rbp),%rax
    6ae0:	48 89 85 48 f9 ff ff 	mov    %rax,-0x6b8(%rbp)
    6ae7:	48 c7 85 50 f9 ff ff 	movq   $0x0,-0x6b0(%rbp)
    6aee:	00 00 00 00 
    6af2:	48 8d 85 88 f7 ff ff 	lea    -0x878(%rbp),%rax
    6af9:	48 89 85 58 f9 ff ff 	mov    %rax,-0x6a8(%rbp)
    6b00:	48 8d 85 88 f7 ff ff 	lea    -0x878(%rbp),%rax
    6b07:	48 89 85 60 f9 ff ff 	mov    %rax,-0x6a0(%rbp)
    6b0e:	48 c7 85 68 f9 ff ff 	movq   $0x0,-0x698(%rbp)
    6b15:	00 00 00 00 
    6b19:	48 8d 85 88 f7 ff ff 	lea    -0x878(%rbp),%rax
    6b20:	48 89 85 70 f9 ff ff 	mov    %rax,-0x690(%rbp)
    6b27:	48 c7 85 78 f9 ff ff 	movq   $0x0,-0x688(%rbp)
    6b2e:	00 00 00 00 
    6b32:	48 8d 85 88 f7 ff ff 	lea    -0x878(%rbp),%rax
    6b39:	48 89 85 80 f9 ff ff 	mov    %rax,-0x680(%rbp)
    6b40:	48 c7 85 88 f9 ff ff 	movq   $0x0,-0x678(%rbp)
    6b47:	00 00 00 00 
    6b4b:	48 8d 85 88 f7 ff ff 	lea    -0x878(%rbp),%rax
    6b52:	48 89 85 90 f9 ff ff 	mov    %rax,-0x670(%rbp)
    6b59:	48 8d 85 88 f7 ff ff 	lea    -0x878(%rbp),%rax
    6b60:	48 89 85 98 f9 ff ff 	mov    %rax,-0x668(%rbp)
    6b67:	c7 85 58 f7 ff ff c5 	movl   $0x44f2c0c5,-0x8a8(%rbp)
    6b6e:	c0 f2 44 
    6b71:	48 8d 85 68 f7 ff ff 	lea    -0x898(%rbp),%rax
    6b78:	48 89 85 c0 f7 ff ff 	mov    %rax,-0x840(%rbp)
    6b7f:	66 c7 85 10 f8 ff ff 	movw   $0x1436,-0x7f0(%rbp)
    6b86:	36 14 
    6b88:	66 c7 85 12 f8 ff ff 	movw   $0x1436,-0x7ee(%rbp)
    6b8f:	36 14 
    6b91:	66 c7 85 14 f8 ff ff 	movw   $0x1436,-0x7ec(%rbp)
    6b98:	36 14 
    6b9a:	66 c7 85 16 f8 ff ff 	movw   $0xe199,-0x7ea(%rbp)
    6ba1:	99 e1 
    6ba3:	66 c7 85 18 f8 ff ff 	movw   $0xe199,-0x7e8(%rbp)
    6baa:	99 e1 
    6bac:	66 c7 85 1a f8 ff ff 	movw   $0xe199,-0x7e6(%rbp)
    6bb3:	99 e1 
    6bb5:	66 c7 85 1c f8 ff ff 	movw   $0x1436,-0x7e4(%rbp)
    6bbc:	36 14 
    6bbe:	66 c7 85 1e f8 ff ff 	movw   $0x1436,-0x7e2(%rbp)
    6bc5:	36 14 
    6bc7:	66 c7 85 20 f8 ff ff 	movw   $0x1436,-0x7e0(%rbp)
    6bce:	36 14 
    6bd0:	c7 85 5c f7 ff ff fb 	movl   $0xfffffffb,-0x8a4(%rbp)
    6bd7:	ff ff ff 
    6bda:	c7 85 4c f7 ff ff 00 	movl   $0x0,-0x8b4(%rbp)
    6be1:	00 00 00 
    6be4:	e9 ea 01 00 00       	jmpq   6dd3 <func_1+0x61e>
    6be9:	48 c7 85 c8 f7 ff ff 	movq   $0xfffffffffffffffb,-0x838(%rbp)
    6bf0:	fb ff ff ff 
    6bf4:	48 8d 85 20 fc ff ff 	lea    -0x3e0(%rbp),%rax
    6bfb:	48 8d 15 9e 74 00 00 	lea    0x749e(%rip),%rdx        # e0a0 <g_1338+0x40>
    6c02:	b9 78 00 00 00       	mov    $0x78,%ecx
    6c07:	48 89 c7             	mov    %rax,%rdi
    6c0a:	48 89 d6             	mov    %rdx,%rsi
    6c0d:	f3 48 a5             	rep movsq %ds:(%rsi),%es:(%rdi)
    6c10:	48 8d 05 69 d6 00 00 	lea    0xd669(%rip),%rax        # 14280 <g_725>
    6c17:	48 89 85 90 f7 ff ff 	mov    %rax,-0x870(%rbp)
    6c1e:	48 8d 85 90 f7 ff ff 	lea    -0x870(%rbp),%rax
    6c25:	48 89 85 d0 f7 ff ff 	mov    %rax,-0x830(%rbp)
    6c2c:	48 8d 05 15 b6 00 00 	lea    0xb615(%rip),%rax        # 12248 <g_482>
    6c33:	48 89 85 d8 f7 ff ff 	mov    %rax,-0x828(%rbp)
    6c3a:	66 c7 85 48 f7 ff ff 	movw   $0xfff9,-0x8b8(%rbp)
    6c41:	f9 ff 
    6c43:	48 b8 e9 99 87 4d 45 	movabs $0x385cf3454d8799e9,%rax
    6c4a:	f3 5c 38 
    6c4d:	48 89 85 e0 f7 ff ff 	mov    %rax,-0x820(%rbp)
    6c54:	c7 85 60 f7 ff ff be 	movl   $0x55bc50be,-0x8a0(%rbp)
    6c5b:	50 bc 55 
    6c5e:	48 b8 5e 5c 83 36 95 	movabs $0xc7ca9f9536835c5e,%rax
    6c65:	9f ca c7 
    6c68:	48 89 85 e8 f7 ff ff 	mov    %rax,-0x818(%rbp)
    6c6f:	c7 85 64 f7 ff ff f9 	movl   $0x438f26f9,-0x89c(%rbp)
    6c76:	26 8f 43 
    6c79:	48 8d 05 10 d6 00 00 	lea    0xd610(%rip),%rax        # 14290 <g_735>
    6c80:	48 89 85 98 f7 ff ff 	mov    %rax,-0x868(%rbp)
    6c87:	48 8d 85 98 f7 ff ff 	lea    -0x868(%rbp),%rax
    6c8e:	48 89 85 60 f8 ff ff 	mov    %rax,-0x7a0(%rbp)
    6c95:	48 c7 85 68 f8 ff ff 	movq   $0x0,-0x798(%rbp)
    6c9c:	00 00 00 00 
    6ca0:	48 c7 85 70 f8 ff ff 	movq   $0x0,-0x790(%rbp)
    6ca7:	00 00 00 00 
    6cab:	48 8d 85 98 f7 ff ff 	lea    -0x868(%rbp),%rax
    6cb2:	48 89 85 78 f8 ff ff 	mov    %rax,-0x788(%rbp)
    6cb9:	48 c7 85 80 f8 ff ff 	movq   $0x0,-0x780(%rbp)
    6cc0:	00 00 00 00 
    6cc4:	48 8d 85 98 f7 ff ff 	lea    -0x868(%rbp),%rax
    6ccb:	48 89 85 88 f8 ff ff 	mov    %rax,-0x778(%rbp)
    6cd2:	48 8d 85 98 f7 ff ff 	lea    -0x868(%rbp),%rax
    6cd9:	48 89 85 90 f8 ff ff 	mov    %rax,-0x770(%rbp)
    6ce0:	48 c7 85 98 f8 ff ff 	movq   $0x0,-0x768(%rbp)
    6ce7:	00 00 00 00 
    6ceb:	48 8d 85 98 f7 ff ff 	lea    -0x868(%rbp),%rax
    6cf2:	48 89 85 a0 f8 ff ff 	mov    %rax,-0x760(%rbp)
    6cf9:	48 8d 85 98 f7 ff ff 	lea    -0x868(%rbp),%rax
    6d00:	48 89 85 a8 f8 ff ff 	mov    %rax,-0x758(%rbp)
    6d07:	48 8d 85 b0 f8 ff ff 	lea    -0x750(%rbp),%rax
    6d0e:	48 05 a0 00 00 00    	add    $0xa0,%rax
    6d14:	48 89 85 f0 f7 ff ff 	mov    %rax,-0x810(%rbp)
    6d1b:	48 8d 85 b0 f8 ff ff 	lea    -0x750(%rbp),%rax
    6d22:	48 83 c0 10          	add    $0x10,%rax
    6d26:	48 89 85 30 f8 ff ff 	mov    %rax,-0x7d0(%rbp)
    6d2d:	48 8d 85 b0 f8 ff ff 	lea    -0x750(%rbp),%rax
    6d34:	48 83 c0 10          	add    $0x10,%rax
    6d38:	48 89 85 38 f8 ff ff 	mov    %rax,-0x7c8(%rbp)
    6d3f:	48 8d 85 b0 f8 ff ff 	lea    -0x750(%rbp),%rax
    6d46:	48 83 c0 10          	add    $0x10,%rax
    6d4a:	48 89 85 40 f8 ff ff 	mov    %rax,-0x7c0(%rbp)
    6d51:	48 8d 85 b0 f8 ff ff 	lea    -0x750(%rbp),%rax
    6d58:	48 83 c0 10          	add    $0x10,%rax
    6d5c:	48 89 85 48 f8 ff ff 	mov    %rax,-0x7b8(%rbp)
    6d63:	48 8d 85 b0 f8 ff ff 	lea    -0x750(%rbp),%rax
    6d6a:	48 83 c0 10          	add    $0x10,%rax
    6d6e:	48 89 85 50 f8 ff ff 	mov    %rax,-0x7b0(%rbp)
    6d75:	48 8d 85 b0 f8 ff ff 	lea    -0x750(%rbp),%rax
    6d7c:	48 83 c0 10          	add    $0x10,%rax
    6d80:	48 89 85 58 f8 ff ff 	mov    %rax,-0x7a8(%rbp)
    6d87:	48 8d 85 30 f8 ff ff 	lea    -0x7d0(%rbp),%rax
    6d8e:	48 89 85 f8 f7 ff ff 	mov    %rax,-0x808(%rbp)
    6d95:	48 8d 05 a5 b4 00 00 	lea    0xb4a5(%rip),%rax        # 12241 <g_459>
    6d9c:	48 89 85 00 f8 ff ff 	mov    %rax,-0x800(%rbp)
    6da3:	48 8d 05 7a b2 00 00 	lea    0xb27a(%rip),%rax        # 12024 <g_2>
    6daa:	48 89 85 08 f8 ff ff 	mov    %rax,-0x7f8(%rbp)
    6db1:	66 c7 85 4a f7 ff ff 	movw   $0xb66d,-0x8b6(%rbp)
    6db8:	6d b6 
    6dba:	8b 85 4c f7 ff ff    	mov    -0x8b4(%rbp),%eax
    6dc0:	be 02 00 00 00       	mov    $0x2,%esi
    6dc5:	48 89 c7             	mov    %rax,%rdi
    6dc8:	e8 74 ea ff ff       	callq  5841 <safe_add_func_int64_t_s_s>
    6dcd:	89 85 4c f7 ff ff    	mov    %eax,-0x8b4(%rbp)
    6dd3:	83 bd 4c f7 ff ff 10 	cmpl   $0x10,-0x8b4(%rbp)
    6dda:	0f 87 09 fe ff ff    	ja     6be9 <func_1+0x434>
    6de0:	0f b7 05 b9 b6 00 00 	movzwl 0xb6b9(%rip),%eax        # 124a0 <g_708>
    6de7:	98                   	cwtl   
    6de8:	be 05 00 00 00       	mov    $0x5,%esi
    6ded:	89 c7                	mov    %eax,%edi
    6def:	e8 bf e5 ff ff       	callq  53b3 <safe_add_func_int16_t_s_s>
    6df4:	66 89 05 a5 b6 00 00 	mov    %ax,0xb6a5(%rip)        # 124a0 <g_708>
    6dfb:	0f b7 05 9e b6 00 00 	movzwl 0xb69e(%rip),%eax        # 124a0 <g_708>
    6e02:	66 83 f8 11          	cmp    $0x11,%ax
    6e06:	0f 85 88 fb ff ff    	jne    6994 <func_1+0x1df>
    6e0c:	48 8b 05 5d d4 00 00 	mov    0xd45d(%rip),%rax        # 14270 <g_635>
    6e13:	0f b6 00             	movzbl (%rax),%eax
    6e16:	48 8b 5d e8          	mov    -0x18(%rbp),%rbx
    6e1a:	64 48 33 1c 25 28 00 	xor    %fs:0x28,%rbx
    6e21:	00 00 
    6e23:	74 05                	je     6e2a <func_1+0x675>
    6e25:	e8 46 e2 ff ff       	callq  5070 <__stack_chk_fail@plt>
    6e2a:	48 81 c4 b0 08 00 00 	add    $0x8b0,%rsp
    6e31:	5b                   	pop    %rbx
    6e32:	41 5c                	pop    %r12
    6e34:	5d                   	pop    %rbp
    6e35:	c3                   	retq   

0000000000006e36 <func_11>:
    6e36:	f3 0f 1e fa          	endbr64 
    6e3a:	55                   	push   %rbp
    6e3b:	48 89 e5             	mov    %rsp,%rbp
    6e3e:	48 83 ec 20          	sub    $0x20,%rsp
    6e42:	89 7d ec             	mov    %edi,-0x14(%rbp)
    6e45:	89 75 e8             	mov    %esi,-0x18(%rbp)
    6e48:	89 d0                	mov    %edx,%eax
    6e4a:	89 4d e0             	mov    %ecx,-0x20(%rbp)
    6e4d:	66 89 45 e4          	mov    %ax,-0x1c(%rbp)
    6e51:	c6 45 ff 02          	movb   $0x2,-0x1(%rbp)
    6e55:	66 83 7d e4 00       	cmpw   $0x0,-0x1c(%rbp)
    6e5a:	74 1e                	je     6e7a <func_11+0x44>
    6e5c:	8b 45 e8             	mov    -0x18(%rbp),%eax
    6e5f:	0f b7 c0             	movzwl %ax,%eax
    6e62:	89 c6                	mov    %eax,%esi
    6e64:	bf bb 28 00 00       	mov    $0x28bb,%edi
    6e69:	e8 cf ee ff ff       	callq  5d3d <safe_mul_func_uint16_t_u_u>
    6e6e:	66 85 c0             	test   %ax,%ax
    6e71:	74 07                	je     6e7a <func_11+0x44>
    6e73:	b8 01 00 00 00       	mov    $0x1,%eax
    6e78:	eb 05                	jmp    6e7f <func_11+0x49>
    6e7a:	b8 00 00 00 00       	mov    $0x0,%eax
    6e7f:	98                   	cwtl   
    6e80:	be 04 00 00 00       	mov    $0x4,%esi
    6e85:	89 c7                	mov    %eax,%edi
    6e87:	e8 06 e6 ff ff       	callq  5492 <safe_lshift_func_int16_t_s_s>
    6e8c:	48 8b 15 15 d0 00 00 	mov    0xd015(%rip),%rdx        # 13ea8 <g_81>
    6e93:	8b 0a                	mov    (%rdx),%ecx
    6e95:	0f bf d0             	movswl %ax,%edx
    6e98:	48 8b 05 09 d0 00 00 	mov    0xd009(%rip),%rax        # 13ea8 <g_81>
    6e9f:	09 ca                	or     %ecx,%edx
    6ea1:	89 10                	mov    %edx,(%rax)
    6ea3:	66 0f be 45 ff       	movsbw -0x1(%rbp),%ax
    6ea8:	c9                   	leaveq 
    6ea9:	c3                   	retq   

0000000000006eaa <func_24>:
    6eaa:	f3 0f 1e fa          	endbr64 
    6eae:	55                   	push   %rbp
    6eaf:	48 89 e5             	mov    %rsp,%rbp
    6eb2:	41 54                	push   %r12
    6eb4:	53                   	push   %rbx
    6eb5:	48 81 ec e0 00 00 00 	sub    $0xe0,%rsp
    6ebc:	48 89 bd 18 ff ff ff 	mov    %rdi,-0xe8(%rbp)
    6ec3:	64 48 8b 04 25 28 00 	mov    %fs:0x28,%rax
    6eca:	00 00 
    6ecc:	48 89 45 e8          	mov    %rax,-0x18(%rbp)
    6ed0:	31 c0                	xor    %eax,%eax
    6ed2:	48 8d 05 7b b1 00 00 	lea    0xb17b(%rip),%rax        # 12054 <g_19+0x14>
    6ed9:	48 89 85 40 ff ff ff 	mov    %rax,-0xc0(%rbp)
    6ee0:	48 c7 85 48 ff ff ff 	movq   $0x0,-0xb8(%rbp)
    6ee7:	00 00 00 00 
    6eeb:	48 c7 85 38 ff ff ff 	movq   $0x0,-0xc8(%rbp)
    6ef2:	00 00 00 00 
    6ef6:	48 8d 85 38 ff ff ff 	lea    -0xc8(%rbp),%rax
    6efd:	48 89 85 50 ff ff ff 	mov    %rax,-0xb0(%rbp)
    6f04:	48 c7 85 58 ff ff ff 	movq   $0x0,-0xa8(%rbp)
    6f0b:	00 00 00 00 
    6f0f:	c7 85 2c ff ff ff 02 	movl   $0x2,-0xd4(%rbp)
    6f16:	00 00 00 
    6f19:	c6 85 27 ff ff ff 03 	movb   $0x3,-0xd9(%rbp)
    6f20:	c7 85 30 ff ff ff 2e 	movl   $0x2e7ccb2e,-0xd0(%rbp)
    6f27:	cb 7c 2e 
    6f2a:	48 8d 05 0f b3 00 00 	lea    0xb30f(%rip),%rax        # 12240 <g_428>
    6f31:	48 89 85 60 ff ff ff 	mov    %rax,-0xa0(%rbp)
    6f38:	48 8d 05 0f b3 00 00 	lea    0xb30f(%rip),%rax        # 1224e <g_482+0x6>
    6f3f:	48 89 85 68 ff ff ff 	mov    %rax,-0x98(%rbp)
    6f46:	48 c7 85 70 ff ff ff 	movq   $0x0,-0x90(%rbp)
    6f4d:	00 00 00 00 
    6f51:	48 c7 85 78 ff ff ff 	movq   $0x0,-0x88(%rbp)
    6f58:	00 00 00 00 
    6f5c:	c7 85 34 ff ff ff 5e 	movl   $0x3b5a7c5e,-0xcc(%rbp)
    6f63:	7c 5a 3b 
    6f66:	c7 85 28 ff ff ff 00 	movl   $0x0,-0xd8(%rbp)
    6f6d:	00 00 00 
    6f70:	eb 17                	jmp    6f89 <func_24+0xdf>
    6f72:	8b 85 28 ff ff ff    	mov    -0xd8(%rbp),%eax
    6f78:	48 98                	cltq   
    6f7a:	c7 44 85 80 00 00 00 	movl   $0x0,-0x80(%rbp,%rax,4)
    6f81:	00 
    6f82:	83 85 28 ff ff ff 01 	addl   $0x1,-0xd8(%rbp)
    6f89:	83 bd 28 ff ff ff 08 	cmpl   $0x8,-0xd8(%rbp)
    6f90:	7e e0                	jle    6f72 <func_24+0xc8>
    6f92:	c7 85 28 ff ff ff 00 	movl   $0x0,-0xd8(%rbp)
    6f99:	00 00 00 
    6f9c:	eb 18                	jmp    6fb6 <func_24+0x10c>
    6f9e:	8b 85 28 ff ff ff    	mov    -0xd8(%rbp),%eax
    6fa4:	48 98                	cltq   
    6fa6:	48 c7 44 c5 b0 00 00 	movq   $0x0,-0x50(%rbp,%rax,8)
    6fad:	00 00 
    6faf:	83 85 28 ff ff ff 01 	addl   $0x1,-0xd8(%rbp)
    6fb6:	83 bd 28 ff ff ff 06 	cmpl   $0x6,-0xd8(%rbp)
    6fbd:	7e df                	jle    6f9e <func_24+0xf4>
    6fbf:	48 8b 05 ca d2 00 00 	mov    0xd2ca(%rip),%rax        # 14290 <g_735>
    6fc6:	44 8b 20             	mov    (%rax),%r12d
    6fc9:	8b 45 90             	mov    -0x70(%rbp),%eax
    6fcc:	0f bf d8             	movswl %ax,%ebx
    6fcf:	48 8b 85 50 ff ff ff 	mov    -0xb0(%rbp),%rax
    6fd6:	48 c7 00 00 00 00 00 	movq   $0x0,(%rax)
    6fdd:	48 8b 85 50 ff ff ff 	mov    -0xb0(%rbp),%rax
    6fe4:	48 8b 10             	mov    (%rax),%rdx
    6fe7:	48 8b 8d 18 ff ff ff 	mov    -0xe8(%rbp),%rcx
    6fee:	48 8b 85 40 ff ff ff 	mov    -0xc0(%rbp),%rax
    6ff5:	48 89 ce             	mov    %rcx,%rsi
    6ff8:	48 89 c7             	mov    %rax,%rdi
    6ffb:	e8 f5 01 00 00       	callq  71f5 <func_30>
    7000:	44 89 e2             	mov    %r12d,%edx
    7003:	89 de                	mov    %ebx,%esi
    7005:	48 89 c7             	mov    %rax,%rdi
    7008:	e8 67 01 00 00       	callq  7174 <func_26>
    700d:	be ff ff 00 00       	mov    $0xffff,%esi
    7012:	bf cb 90 00 00       	mov    $0x90cb,%edi
    7017:	e8 e3 ec ff ff       	callq  5cff <safe_add_func_uint16_t_u_u>
    701c:	0f b7 c0             	movzwl %ax,%eax
    701f:	be e1 a3 00 00       	mov    $0xa3e1,%esi
    7024:	89 c7                	mov    %eax,%edi
    7026:	e8 31 ed ff ff       	callq  5d5c <safe_mod_func_uint16_t_u_u>
    702b:	66 85 c0             	test   %ax,%ax
    702e:	0f 95 c2             	setne  %dl
    7031:	48 8b 05 d8 d2 00 00 	mov    0xd2d8(%rip),%rax        # 14310 <g_1223>
    7038:	0f b6 d2             	movzbl %dl,%edx
    703b:	89 10                	mov    %edx,(%rax)
    703d:	0f b6 85 27 ff ff ff 	movzbl -0xd9(%rbp),%eax
    7044:	83 e8 01             	sub    $0x1,%eax
    7047:	88 85 27 ff ff ff    	mov    %al,-0xd9(%rbp)
    704d:	48 8b 15 a4 bb 00 00 	mov    0xbba4(%rip),%rdx        # 12bf8 <g_1224>
    7054:	48 8b 05 65 ce 00 00 	mov    0xce65(%rip),%rax        # 13ec0 <g_216>
    705b:	48 8b 00             	mov    (%rax),%rax
    705e:	48 89 d6             	mov    %rdx,%rsi
    7061:	48 89 c7             	mov    %rax,%rdi
    7064:	e8 d8 e7 ff ff       	callq  5841 <safe_add_func_int64_t_s_s>
    7069:	48 83 bd 60 ff ff ff 	cmpq   $0x0,-0xa0(%rbp)
    7070:	00 
    7071:	0f 94 c2             	sete   %dl
    7074:	0f b6 ca             	movzbl %dl,%ecx
    7077:	48 8b 95 68 ff ff ff 	mov    -0x98(%rbp),%rdx
    707e:	0f b7 12             	movzwl (%rdx),%edx
    7081:	21 d0                	and    %edx,%eax
    7083:	89 c2                	mov    %eax,%edx
    7085:	48 8b 85 68 ff ff ff 	mov    -0x98(%rbp),%rax
    708c:	66 89 10             	mov    %dx,(%rax)
    708f:	48 8b 85 68 ff ff ff 	mov    -0x98(%rbp),%rax
    7096:	0f b7 00             	movzwl (%rax),%eax
    7099:	0f b7 c0             	movzwl %ax,%eax
    709c:	39 c1                	cmp    %eax,%ecx
    709e:	0f 9f c0             	setg   %al
    70a1:	0f b6 d0             	movzbl %al,%edx
    70a4:	48 8b 05 05 ce 00 00 	mov    0xce05(%rip),%rax        # 13eb0 <g_80>
    70ab:	48 8b 00             	mov    (%rax),%rax
    70ae:	8b 00                	mov    (%rax),%eax
    70b0:	89 d6                	mov    %edx,%esi
    70b2:	89 c7                	mov    %eax,%edi
    70b4:	e8 4c e5 ff ff       	callq  5605 <safe_sub_func_int32_t_s_s>
    70b9:	85 c0                	test   %eax,%eax
    70bb:	74 31                	je     70ee <func_24+0x244>
    70bd:	0f b6 05 7d b1 00 00 	movzbl 0xb17d(%rip),%eax        # 12241 <g_459>
    70c4:	83 e8 01             	sub    $0x1,%eax
    70c7:	88 05 74 b1 00 00    	mov    %al,0xb174(%rip)        # 12241 <g_459>
    70cd:	0f b6 05 6d b1 00 00 	movzbl 0xb16d(%rip),%eax        # 12241 <g_459>
    70d4:	0f b6 c0             	movzbl %al,%eax
    70d7:	be 00 00 00 00       	mov    $0x0,%esi
    70dc:	89 c7                	mov    %eax,%edi
    70de:	e8 22 eb ff ff       	callq  5c05 <safe_lshift_func_uint8_t_u_s>
    70e3:	84 c0                	test   %al,%al
    70e5:	74 07                	je     70ee <func_24+0x244>
    70e7:	b8 01 00 00 00       	mov    $0x1,%eax
    70ec:	eb 05                	jmp    70f3 <func_24+0x249>
    70ee:	b8 00 00 00 00       	mov    $0x0,%eax
    70f3:	0f b6 d0             	movzbl %al,%edx
    70f6:	0f b6 05 23 d7 00 00 	movzbl 0xd723(%rip),%eax        # 14820 <g_1048>
    70fd:	0f b6 c0             	movzbl %al,%eax
    7100:	89 d6                	mov    %edx,%esi
    7102:	89 c7                	mov    %eax,%edi
    7104:	e8 51 ea ff ff       	callq  5b5a <safe_add_func_uint8_t_u_u>
    7109:	0f b6 d0             	movzbl %al,%edx
    710c:	8b 85 30 ff ff ff    	mov    -0xd0(%rbp),%eax
    7112:	48 98                	cltq   
    7114:	48 89 d6             	mov    %rdx,%rsi
    7117:	48 89 c7             	mov    %rax,%rdi
    711a:	e8 89 e7 ff ff       	callq  58a8 <safe_sub_func_int64_t_s_s>
    711f:	0f b7 c0             	movzwl %ax,%eax
    7122:	be 0e 00 00 00       	mov    $0xe,%esi
    7127:	89 c7                	mov    %eax,%edi
    7129:	e8 1a ed ff ff       	callq  5e48 <safe_rshift_func_uint16_t_u_s>
    712e:	48 8b 05 7b d1 00 00 	mov    0xd17b(%rip),%rax        # 142b0 <g_878>
    7135:	48 8d 55 80          	lea    -0x80(%rbp),%rdx
    7139:	48 83 c2 10          	add    $0x10,%rdx
    713d:	48 89 10             	mov    %rdx,(%rax)
    7140:	83 ad 34 ff ff ff 01 	subl   $0x1,-0xcc(%rbp)
    7147:	48 8b 05 82 d1 00 00 	mov    0xd182(%rip),%rax        # 142d0 <g_957>
    714e:	48 8b 00             	mov    (%rax),%rax
    7151:	48 8b 00             	mov    (%rax),%rax
    7154:	48 8b 5d e8          	mov    -0x18(%rbp),%rbx
    7158:	64 48 33 1c 25 28 00 	xor    %fs:0x28,%rbx
    715f:	00 00 
    7161:	74 05                	je     7168 <func_24+0x2be>
    7163:	e8 08 df ff ff       	callq  5070 <__stack_chk_fail@plt>
    7168:	48 81 c4 e0 00 00 00 	add    $0xe0,%rsp
    716f:	5b                   	pop    %rbx
    7170:	41 5c                	pop    %r12
    7172:	5d                   	pop    %rbp
    7173:	c3                   	retq   

0000000000007174 <func_26>:
    7174:	f3 0f 1e fa          	endbr64 
    7178:	55                   	push   %rbp
    7179:	48 89 e5             	mov    %rsp,%rbp
    717c:	48 83 ec 30          	sub    $0x30,%rsp
    7180:	48 89 7d d8          	mov    %rdi,-0x28(%rbp)
    7184:	89 f0                	mov    %esi,%eax
    7186:	89 55 d0             	mov    %edx,-0x30(%rbp)
    7189:	66 89 45 d4          	mov    %ax,-0x2c(%rbp)
    718d:	64 48 8b 04 25 28 00 	mov    %fs:0x28,%rax
    7194:	00 00 
    7196:	48 89 45 f8          	mov    %rax,-0x8(%rbp)
    719a:	31 c0                	xor    %eax,%eax
    719c:	48 8d 05 65 cd 00 00 	lea    0xcd65(%rip),%rax        # 13f08 <g_215+0x28>
    71a3:	48 89 45 e8          	mov    %rax,-0x18(%rbp)
    71a7:	48 8d 45 e8          	lea    -0x18(%rbp),%rax
    71ab:	48 89 45 f0          	mov    %rax,-0x10(%rbp)
    71af:	c7 45 e4 ff ff ff ff 	movl   $0xffffffff,-0x1c(%rbp)
    71b6:	48 8b 05 eb cc 00 00 	mov    0xcceb(%rip),%rax        # 13ea8 <g_81>
    71bd:	8b 08                	mov    (%rax),%ecx
    71bf:	0f bf 55 d4          	movswl -0x2c(%rbp),%edx
    71c3:	48 8b 05 de cc 00 00 	mov    0xccde(%rip),%rax        # 13ea8 <g_81>
    71ca:	09 ca                	or     %ecx,%edx
    71cc:	89 10                	mov    %edx,(%rax)
    71ce:	48 8b 05 33 d1 00 00 	mov    0xd133(%rip),%rax        # 14308 <g_1214>
    71d5:	48 8b 55 f0          	mov    -0x10(%rbp),%rdx
    71d9:	48 89 10             	mov    %rdx,(%rax)
    71dc:	8b 45 e4             	mov    -0x1c(%rbp),%eax
    71df:	48 8b 75 f8          	mov    -0x8(%rbp),%rsi
    71e3:	64 48 33 34 25 28 00 	xor    %fs:0x28,%rsi
    71ea:	00 00 
    71ec:	74 05                	je     71f3 <func_26+0x7f>
    71ee:	e8 7d de ff ff       	callq  5070 <__stack_chk_fail@plt>
    71f3:	c9                   	leaveq 
    71f4:	c3                   	retq   

00000000000071f5 <func_30>:
    71f5:	f3 0f 1e fa          	endbr64 
    71f9:	55                   	push   %rbp
    71fa:	48 89 e5             	mov    %rsp,%rbp
    71fd:	41 57                	push   %r15
    71ff:	41 56                	push   %r14
    7201:	41 55                	push   %r13
    7203:	41 54                	push   %r12
    7205:	53                   	push   %rbx
    7206:	48 81 ec 38 0a 00 00 	sub    $0xa38,%rsp
    720d:	48 89 bd b8 f5 ff ff 	mov    %rdi,-0xa48(%rbp)
    7214:	48 89 b5 b0 f5 ff ff 	mov    %rsi,-0xa50(%rbp)
    721b:	48 89 95 a8 f5 ff ff 	mov    %rdx,-0xa58(%rbp)
    7222:	64 48 8b 04 25 28 00 	mov    %fs:0x28,%rax
    7229:	00 00 
    722b:	48 89 45 c8          	mov    %rax,-0x38(%rbp)
    722f:	31 c0                	xor    %eax,%eax
    7231:	c6 85 c9 f5 ff ff fb 	movb   $0xfb,-0xa37(%rbp)
    7238:	48 c7 85 10 f6 ff ff 	movq   $0x0,-0x9f0(%rbp)
    723f:	00 00 00 00 
    7243:	48 8d 05 1a ae 00 00 	lea    0xae1a(%rip),%rax        # 12064 <g_68>
    724a:	48 89 85 18 f6 ff ff 	mov    %rax,-0x9e8(%rbp)
    7251:	48 8d 05 a8 a8 00 00 	lea    0xa8a8(%rip),%rax        # 11b00 <g_48>
    7258:	48 89 85 20 f6 ff ff 	mov    %rax,-0x9e0(%rbp)
    725f:	48 b8 58 01 58 01 58 	movabs $0x158015801580158,%rax
    7266:	01 58 01 
    7269:	48 89 85 70 f6 ff ff 	mov    %rax,-0x990(%rbp)
    7270:	48 89 85 78 f6 ff ff 	mov    %rax,-0x988(%rbp)
    7277:	48 89 85 80 f6 ff ff 	mov    %rax,-0x980(%rbp)
    727e:	48 89 85 88 f6 ff ff 	mov    %rax,-0x978(%rbp)
    7285:	48 89 85 90 f6 ff ff 	mov    %rax,-0x970(%rbp)
    728c:	c7 85 cc f5 ff ff da 	movl   $0xa59bada,-0xa34(%rbp)
    7293:	ba 59 0a 
    7296:	48 8d 05 3b ce 00 00 	lea    0xce3b(%rip),%rax        # 140d8 <g_633>
    729d:	48 89 85 28 f6 ff ff 	mov    %rax,-0x9d8(%rbp)
    72a4:	48 8d 85 20 fa ff ff 	lea    -0x5e0(%rbp),%rax
    72ab:	48 8d 15 4e bc 00 00 	lea    0xbc4e(%rip),%rdx        # 12f00 <g_1398+0x298>
    72b2:	b9 b4 00 00 00       	mov    $0xb4,%ecx
    72b7:	48 89 c7             	mov    %rax,%rdi
    72ba:	48 89 d6             	mov    %rdx,%rsi
    72bd:	f3 48 a5             	rep movsq %ds:(%rsi),%es:(%rdi)
    72c0:	48 8d 85 20 fa ff ff 	lea    -0x5e0(%rbp),%rax
    72c7:	48 05 50 04 00 00    	add    $0x450,%rax
    72cd:	48 89 85 30 f6 ff ff 	mov    %rax,-0x9d0(%rbp)
    72d4:	48 c7 85 38 f6 ff ff 	movq   $0x0,-0x9c8(%rbp)
    72db:	00 00 00 00 
    72df:	48 8d 85 10 f6 ff ff 	lea    -0x9f0(%rbp),%rax
    72e6:	48 89 85 40 f6 ff ff 	mov    %rax,-0x9c0(%rbp)
    72ed:	c7 85 e0 f5 ff ff 14 	movl   $0xbf333a14,-0xa20(%rbp)
    72f4:	3a 33 bf 
    72f7:	c7 85 e4 f5 ff ff ff 	movl   $0xffffffff,-0xa1c(%rbp)
    72fe:	ff ff ff 
    7301:	c7 85 d0 f5 ff ff 05 	movl   $0x5,-0xa30(%rbp)
    7308:	00 00 00 
    730b:	c7 85 e8 f5 ff ff ff 	movl   $0xffffffff,-0xa18(%rbp)
    7312:	ff ff ff 
    7315:	c7 85 ec f5 ff ff 08 	movl   $0x8,-0xa14(%rbp)
    731c:	00 00 00 
    731f:	c7 85 f0 f5 ff ff db 	movl   $0x54578adb,-0xa10(%rbp)
    7326:	8a 57 54 
    7329:	c7 85 f4 f5 ff ff a3 	movl   $0x7d2d61a3,-0xa0c(%rbp)
    7330:	61 2d 7d 
    7333:	c7 85 f8 f5 ff ff a4 	movl   $0x833231a4,-0xa08(%rbp)
    733a:	31 32 83 
    733d:	c7 85 fc f5 ff ff f6 	movl   $0xfffffff6,-0xa04(%rbp)
    7344:	ff ff ff 
    7347:	c7 85 00 f6 ff ff 00 	movl   $0xb1121000,-0xa00(%rbp)
    734e:	10 12 b1 
    7351:	c7 85 04 f6 ff ff ff 	movl   $0xffffffff,-0x9fc(%rbp)
    7358:	ff ff ff 
    735b:	48 8d 85 00 f7 ff ff 	lea    -0x900(%rbp),%rax
    7362:	48 8d 15 f7 70 00 00 	lea    0x70f7(%rip),%rdx        # e460 <g_1338+0x400>
    7369:	b9 64 00 00 00       	mov    $0x64,%ecx
    736e:	48 89 c7             	mov    %rax,%rdi
    7371:	48 89 d6             	mov    %rdx,%rsi
    7374:	f3 48 a5             	rep movsq %ds:(%rsi),%es:(%rdi)
    7377:	48 8d 05 12 cf 00 00 	lea    0xcf12(%rip),%rax        # 14290 <g_735>
    737e:	48 89 85 a0 f6 ff ff 	mov    %rax,-0x960(%rbp)
    7385:	48 8d 05 04 cf 00 00 	lea    0xcf04(%rip),%rax        # 14290 <g_735>
    738c:	48 89 85 a8 f6 ff ff 	mov    %rax,-0x958(%rbp)
    7393:	48 8d 05 f6 ce 00 00 	lea    0xcef6(%rip),%rax        # 14290 <g_735>
    739a:	48 89 85 b0 f6 ff ff 	mov    %rax,-0x950(%rbp)
    73a1:	48 8d 05 e8 ce 00 00 	lea    0xcee8(%rip),%rax        # 14290 <g_735>
    73a8:	48 89 85 b8 f6 ff ff 	mov    %rax,-0x948(%rbp)
    73af:	48 8d 05 da ce 00 00 	lea    0xceda(%rip),%rax        # 14290 <g_735>
    73b6:	48 89 85 c0 f6 ff ff 	mov    %rax,-0x940(%rbp)
    73bd:	48 c7 85 d0 f6 ff ff 	movq   $0x0,-0x930(%rbp)
    73c4:	00 00 00 00 
    73c8:	48 c7 85 d8 f6 ff ff 	movq   $0x0,-0x928(%rbp)
    73cf:	00 00 00 00 
    73d3:	48 c7 85 e0 f6 ff ff 	movq   $0x0,-0x920(%rbp)
    73da:	00 00 00 00 
    73de:	48 c7 85 e8 f6 ff ff 	movq   $0x0,-0x918(%rbp)
    73e5:	00 00 00 00 
    73e9:	48 c7 85 f0 f6 ff ff 	movq   $0x0,-0x910(%rbp)
    73f0:	00 00 00 00 
    73f4:	c7 85 08 f6 ff ff fd 	movl   $0xfffffffd,-0x9f8(%rbp)
    73fb:	ff ff ff 
    73fe:	48 8d 05 5b ac 00 00 	lea    0xac5b(%rip),%rax        # 12060 <g_19+0x20>
    7405:	48 89 85 48 f6 ff ff 	mov    %rax,-0x9b8(%rbp)
    740c:	c7 85 d4 f5 ff ff 00 	movl   $0x0,-0xa2c(%rbp)
    7413:	00 00 00 
    7416:	eb 14                	jmp    742c <func_30+0x237>
    7418:	8b 85 d4 f5 ff ff    	mov    -0xa2c(%rbp),%eax
    741e:	48 98                	cltq   
    7420:	c6 44 05 c5 f4       	movb   $0xf4,-0x3b(%rbp,%rax,1)
    7425:	83 85 d4 f5 ff ff 01 	addl   $0x1,-0xa2c(%rbp)
    742c:	83 bd d4 f5 ff ff 02 	cmpl   $0x2,-0xa2c(%rbp)
    7433:	7e e3                	jle    7418 <func_30+0x223>
    7435:	0f b7 05 e8 ab 00 00 	movzwl 0xabe8(%rip),%eax        # 12024 <g_2>
    743c:	0f b7 d8             	movzwl %ax,%ebx
    743f:	0f b7 05 de ab 00 00 	movzwl 0xabde(%rip),%eax        # 12024 <g_2>
    7446:	44 0f b7 e0          	movzwl %ax,%r12d
    744a:	0f b6 85 70 f6 ff ff 	movzbl -0x990(%rbp),%eax
    7451:	4c 0f be e8          	movsbq %al,%r13
    7455:	0f b7 05 c8 ab 00 00 	movzwl 0xabc8(%rip),%eax        # 12024 <g_2>
    745c:	44 0f b6 f8          	movzbl %al,%r15d
    7460:	48 8b 85 b8 f5 ff ff 	mov    -0xa48(%rbp),%rax
    7467:	44 8b 30             	mov    (%rax),%r14d
    746a:	0f b7 05 b3 ab 00 00 	movzwl 0xabb3(%rip),%eax        # 12024 <g_2>
    7471:	89 c2                	mov    %eax,%edx
    7473:	48 8b 85 18 f6 ff ff 	mov    -0x9e8(%rbp),%rax
    747a:	88 10                	mov    %dl,(%rax)
    747c:	80 bd c9 f5 ff ff 00 	cmpb   $0x0,-0xa37(%rbp)
    7483:	74 07                	je     748c <func_30+0x297>
    7485:	80 bd c9 f5 ff ff 00 	cmpb   $0x0,-0xa37(%rbp)
    748c:	be 01 00 00 00       	mov    $0x1,%esi
    7491:	bf 00 00 00 00       	mov    $0x0,%edi
    7496:	e8 84 e8 ff ff       	callq  5d1f <safe_sub_func_uint16_t_u_u>
    749b:	0f b7 d0             	movzwl %ax,%edx
    749e:	8b 05 9c ab 00 00    	mov    0xab9c(%rip),%eax        # 12040 <g_19>
    74a4:	98                   	cwtl   
    74a5:	89 d6                	mov    %edx,%esi
    74a7:	89 c7                	mov    %eax,%edi
    74a9:	e8 33 e0 ff ff       	callq  54e1 <safe_lshift_func_int16_t_s_u>
    74ae:	0f b7 d0             	movzwl %ax,%edx
    74b1:	0f be 85 c9 f5 ff ff 	movsbl -0xa37(%rbp),%eax
    74b8:	89 d6                	mov    %edx,%esi
    74ba:	89 c7                	mov    %eax,%edi
    74bc:	e8 b4 4a 00 00       	callq  bf75 <func_61>
    74c1:	48 8b 85 b8 f5 ff ff 	mov    -0xa48(%rbp),%rax
    74c8:	8b 00                	mov    (%rax),%eax
    74ca:	48 8b b5 20 f6 ff ff 	mov    -0x9e0(%rbp),%rsi
    74d1:	44 89 f9             	mov    %r15d,%ecx
    74d4:	44 89 f2             	mov    %r14d,%edx
    74d7:	89 c7                	mov    %eax,%edi
    74d9:	e8 4d 47 00 00       	callq  bc2b <func_56>
    74de:	89 c6                	mov    %eax,%esi
    74e0:	48 0f be 85 c9 f5 ff 	movsbq -0xa37(%rbp),%rax
    74e7:	ff 
    74e8:	4c 89 e9             	mov    %r13,%rcx
    74eb:	48 8d 15 4e ab 00 00 	lea    0xab4e(%rip),%rdx        # 12040 <g_19>
    74f2:	48 89 c7             	mov    %rax,%rdi
    74f5:	e8 11 47 00 00       	callq  bc0b <func_51>
    74fa:	0f b7 c0             	movzwl %ax,%eax
    74fd:	44 89 e6             	mov    %r12d,%esi
    7500:	89 c7                	mov    %eax,%edi
    7502:	e8 41 e9 ff ff       	callq  5e48 <safe_rshift_func_uint16_t_u_s>
    7507:	0c 94                	or     $0x94,%al
    7509:	0f b7 d0             	movzwl %ax,%edx
    750c:	48 8b 05 8d c9 00 00 	mov    0xc98d(%rip),%rax        # 13ea0 <g_47>
    7513:	89 d6                	mov    %edx,%esi
    7515:	48 89 c7             	mov    %rax,%rdi
    7518:	e8 09 2a 00 00       	callq  9f26 <func_44>
    751d:	48 89 c6             	mov    %rax,%rsi
    7520:	0f be 85 c9 f5 ff ff 	movsbl -0xa37(%rbp),%eax
    7527:	48 8b 95 b8 f5 ff ff 	mov    -0xa48(%rbp),%rdx
    752e:	48 89 d9             	mov    %rbx,%rcx
    7531:	89 c7                	mov    %eax,%edi
    7533:	e8 cb 02 00 00       	callq  7803 <func_38>
    7538:	ba 01 00 00 00       	mov    $0x1,%edx
    753d:	8b 85 cc f5 ff ff    	mov    -0xa34(%rbp),%eax
    7543:	09 d0                	or     %edx,%eax
    7545:	89 85 cc f5 ff ff    	mov    %eax,-0xa34(%rbp)
    754b:	48 8b 05 8e cd 00 00 	mov    0xcd8e(%rip),%rax        # 142e0 <g_1117>
    7552:	48 8b 10             	mov    (%rax),%rdx
    7555:	48 8b 85 28 f6 ff ff 	mov    -0x9d8(%rbp),%rax
    755c:	48 89 10             	mov    %rdx,(%rax)
    755f:	48 8b 85 28 f6 ff ff 	mov    -0x9d8(%rbp),%rax
    7566:	48 8b 10             	mov    (%rax),%rdx
    7569:	48 8b 85 30 f6 ff ff 	mov    -0x9d0(%rbp),%rax
    7570:	48 89 10             	mov    %rdx,(%rax)
    7573:	48 8b 85 40 f6 ff ff 	mov    -0x9c0(%rbp),%rax
    757a:	48 8d 95 70 f6 ff ff 	lea    -0x990(%rbp),%rdx
    7581:	48 83 c2 0d          	add    $0xd,%rdx
    7585:	48 89 10             	mov    %rdx,(%rax)
    7588:	48 8b 85 40 f6 ff ff 	mov    -0x9c0(%rbp),%rax
    758f:	48 8b 10             	mov    (%rax),%rdx
    7592:	48 8b 05 df cc 00 00 	mov    0xccdf(%rip),%rax        # 14278 <g_634>
    7599:	48 8b 00             	mov    (%rax),%rax
    759c:	48 39 c2             	cmp    %rax,%rdx
    759f:	0f 85 90 00 00 00    	jne    7635 <func_30+0x440>
    75a5:	c7 85 0c f6 ff ff 00 	movl   $0x0,-0x9f4(%rbp)
    75ac:	00 00 00 
    75af:	48 b8 c3 82 54 7a dc 	movabs $0xa82bbddc7a5482c3,%rax
    75b6:	bd 2b a8 
    75b9:	48 89 85 60 f6 ff ff 	mov    %rax,-0x9a0(%rbp)
    75c0:	c6 85 cb f5 ff ff ff 	movb   $0xff,-0xa35(%rbp)
    75c7:	c7 85 d8 f5 ff ff 00 	movl   $0x0,-0xa28(%rbp)
    75ce:	00 00 00 
    75d1:	eb 46                	jmp    7619 <func_30+0x424>
    75d3:	c7 85 dc f5 ff ff 00 	movl   $0x0,-0xa24(%rbp)
    75da:	00 00 00 
    75dd:	eb 2a                	jmp    7609 <func_30+0x414>
    75df:	8b 85 dc f5 ff ff    	mov    -0xa24(%rbp),%eax
    75e5:	48 63 d0             	movslq %eax,%rdx
    75e8:	8b 85 d8 f5 ff ff    	mov    -0xa28(%rbp),%eax
    75ee:	48 98                	cltq   
    75f0:	48 01 c2             	add    %rax,%rdx
    75f3:	48 8d 85 cc f5 ff ff 	lea    -0xa34(%rbp),%rax
    75fa:	48 89 84 d5 68 f6 ff 	mov    %rax,-0x998(%rbp,%rdx,8)
    7601:	ff 
    7602:	83 85 dc f5 ff ff 01 	addl   $0x1,-0xa24(%rbp)
    7609:	83 bd dc f5 ff ff 00 	cmpl   $0x0,-0xa24(%rbp)
    7610:	7e cd                	jle    75df <func_30+0x3ea>
    7612:	83 85 d8 f5 ff ff 01 	addl   $0x1,-0xa28(%rbp)
    7619:	83 bd d8 f5 ff ff 00 	cmpl   $0x0,-0xa28(%rbp)
    7620:	7e b1                	jle    75d3 <func_30+0x3de>
    7622:	80 ad cb f5 ff ff 01 	subb   $0x1,-0xa35(%rbp)
    7629:	48 8b 85 b8 f5 ff ff 	mov    -0xa48(%rbp),%rax
    7630:	e9 a8 01 00 00       	jmpq   77dd <func_30+0x5e8>
    7635:	c6 85 ca f5 ff ff ff 	movb   $0xff,-0xa36(%rbp)
    763c:	48 c7 85 50 f6 ff ff 	movq   $0x0,-0x9b0(%rbp)
    7643:	00 00 00 00 
    7647:	c7 85 d0 f5 ff ff 00 	movl   $0x0,-0xa30(%rbp)
    764e:	00 00 00 
    7651:	e9 83 00 00 00       	jmpq   76d9 <func_30+0x4e4>
    7656:	48 c7 85 58 f6 ff ff 	movq   $0x0,-0x9a8(%rbp)
    765d:	00 00 00 00 
    7661:	66 c7 05 d6 aa 00 00 	movw   $0x0,0xaad6(%rip)        # 12140 <g_116>
    7668:	00 00 
    766a:	eb 2b                	jmp    7697 <func_30+0x4a2>
    766c:	48 8b 05 35 c8 00 00 	mov    0xc835(%rip),%rax        # 13ea8 <g_81>
    7673:	0f be 95 ca f5 ff ff 	movsbl -0xa36(%rbp),%edx
    767a:	89 10                	mov    %edx,(%rax)
    767c:	0f b7 05 bd aa 00 00 	movzwl 0xaabd(%rip),%eax        # 12140 <g_116>
    7683:	98                   	cwtl   
    7684:	be 08 00 00 00       	mov    $0x8,%esi
    7689:	89 c7                	mov    %eax,%edi
    768b:	e8 43 dd ff ff       	callq  53d3 <safe_sub_func_int16_t_s_s>
    7690:	66 89 05 a9 aa 00 00 	mov    %ax,0xaaa9(%rip)        # 12140 <g_116>
    7697:	0f b7 05 a2 aa 00 00 	movzwl 0xaaa2(%rip),%eax        # 12140 <g_116>
    769e:	66 83 f8 e7          	cmp    $0xffe7,%ax
    76a2:	74 c8                	je     766c <func_30+0x477>
    76a4:	48 8b 05 45 cc 00 00 	mov    0xcc45(%rip),%rax        # 142f0 <g_1194>
    76ab:	48 8b 15 36 cc 00 00 	mov    0xcc36(%rip),%rdx        # 142e8 <g_1192>
    76b2:	48 89 10             	mov    %rdx,(%rax)
    76b5:	48 8b 05 ec c7 00 00 	mov    0xc7ec(%rip),%rax        # 13ea8 <g_81>
    76bc:	8b 95 fc f5 ff ff    	mov    -0xa04(%rbp),%edx
    76c2:	89 10                	mov    %edx,(%rax)
    76c4:	48 8b 85 58 f6 ff ff 	mov    -0x9a8(%rbp),%rax
    76cb:	48 89 85 50 f6 ff ff 	mov    %rax,-0x9b0(%rbp)
    76d2:	83 ad d0 f5 ff ff 01 	subl   $0x1,-0xa30(%rbp)
    76d9:	83 bd d0 f5 ff ff f0 	cmpl   $0xfffffff0,-0xa30(%rbp)
    76e0:	0f 85 70 ff ff ff    	jne    7656 <func_30+0x461>
    76e6:	8b 85 f4 f5 ff ff    	mov    -0xa0c(%rbp),%eax
    76ec:	0f bf d8             	movswl %ax,%ebx
    76ef:	83 bd 00 f6 ff ff 00 	cmpl   $0x0,-0xa00(%rbp)
    76f6:	0f 85 ae 00 00 00    	jne    77aa <func_30+0x5b5>
    76fc:	8b 85 f4 f5 ff ff    	mov    -0xa0c(%rbp),%eax
    7702:	4c 63 e0             	movslq %eax,%r12
    7705:	48 8b 85 10 f6 ff ff 	mov    -0x9f0(%rbp),%rax
    770c:	c6 00 f9             	movb   $0xf9,(%rax)
    770f:	0f b6 55 c6          	movzbl -0x3a(%rbp),%edx
    7713:	48 8d 05 26 a9 00 00 	lea    0xa926(%rip),%rax        # 12040 <g_19>
    771a:	0f be d2             	movsbl %dl,%edx
    771d:	89 10                	mov    %edx,(%rax)
    771f:	8b 00                	mov    (%rax),%eax
    7721:	85 c0                	test   %eax,%eax
    7723:	75 0e                	jne    7733 <func_30+0x53e>
    7725:	48 8b 05 74 c7 00 00 	mov    0xc774(%rip),%rax        # 13ea0 <g_47>
    772c:	48 8b 00             	mov    (%rax),%rax
    772f:	8b 00                	mov    (%rax),%eax
    7731:	85 c0                	test   %eax,%eax
    7733:	bf 00 00 00 00       	mov    $0x0,%edi
    7738:	e8 59 de ff ff       	callq  5596 <safe_unary_minus_func_int32_t_s>
    773d:	8b 95 10 f7 ff ff    	mov    -0x8f0(%rbp),%edx
    7743:	39 d0                	cmp    %edx,%eax
    7745:	0f 9c c0             	setl   %al
    7748:	89 c2                	mov    %eax,%edx
    774a:	48 8b 85 18 f6 ff ff 	mov    -0x9e8(%rbp),%rax
    7751:	88 10                	mov    %dl,(%rax)
    7753:	48 8b 85 18 f6 ff ff 	mov    -0x9e8(%rbp),%rax
    775a:	0f b6 00             	movzbl (%rax),%eax
    775d:	0f be c0             	movsbl %al,%eax
    7760:	be 03 00 00 00       	mov    $0x3,%esi
    7765:	89 c7                	mov    %eax,%edi
    7767:	e8 c9 db ff ff       	callq  5335 <safe_rshift_func_int8_t_s_s>
    776c:	48 0f be c0          	movsbq %al,%rax
    7770:	4c 89 e6             	mov    %r12,%rsi
    7773:	48 89 c7             	mov    %rax,%rdi
    7776:	e8 c6 e0 ff ff       	callq  5841 <safe_add_func_int64_t_s_s>
    777b:	0f b6 d0             	movzbl %al,%edx
    777e:	8b 85 08 f6 ff ff    	mov    -0x9f8(%rbp),%eax
    7784:	0f b6 c0             	movzbl %al,%eax
    7787:	89 d6                	mov    %edx,%esi
    7789:	89 c7                	mov    %eax,%edi
    778b:	e8 4b e4 ff ff       	callq  5bdb <safe_div_func_uint8_t_u_u>
    7790:	0f b6 c0             	movzbl %al,%eax
    7793:	39 85 e0 f5 ff ff    	cmp    %eax,-0xa20(%rbp)
    7799:	0f 9c c0             	setl   %al
    779c:	0f b6 d0             	movzbl %al,%edx
    779f:	0f be 85 c9 f5 ff ff 	movsbl -0xa37(%rbp),%eax
    77a6:	39 c2                	cmp    %eax,%edx
    77a8:	74 07                	je     77b1 <func_30+0x5bc>
    77aa:	b8 01 00 00 00       	mov    $0x1,%eax
    77af:	eb 05                	jmp    77b6 <func_30+0x5c1>
    77b1:	b8 00 00 00 00       	mov    $0x0,%eax
    77b6:	98                   	cwtl   
    77b7:	89 de                	mov    %ebx,%esi
    77b9:	89 c7                	mov    %eax,%edi
    77bb:	e8 13 dc ff ff       	callq  53d3 <safe_sub_func_int16_t_s_s>
    77c0:	48 8b 85 e0 f6 ff ff 	mov    -0x920(%rbp),%rax
    77c7:	48 85 c0             	test   %rax,%rax
    77ca:	0f 94 c0             	sete   %al
    77cd:	0f b6 c0             	movzbl %al,%eax
    77d0:	89 85 60 f7 ff ff    	mov    %eax,-0x8a0(%rbp)
    77d6:	48 8b 85 48 f6 ff ff 	mov    -0x9b8(%rbp),%rax
    77dd:	48 8b 5d c8          	mov    -0x38(%rbp),%rbx
    77e1:	64 48 33 1c 25 28 00 	xor    %fs:0x28,%rbx
    77e8:	00 00 
    77ea:	74 05                	je     77f1 <func_30+0x5fc>
    77ec:	e8 7f d8 ff ff       	callq  5070 <__stack_chk_fail@plt>
    77f1:	48 81 c4 38 0a 00 00 	add    $0xa38,%rsp
    77f8:	5b                   	pop    %rbx
    77f9:	41 5c                	pop    %r12
    77fb:	41 5d                	pop    %r13
    77fd:	41 5e                	pop    %r14
    77ff:	41 5f                	pop    %r15
    7801:	5d                   	pop    %rbp
    7802:	c3                   	retq   

0000000000007803 <func_38>:
    7803:	f3 0f 1e fa          	endbr64 
    7807:	55                   	push   %rbp
    7808:	48 89 e5             	mov    %rsp,%rbp
    780b:	41 57                	push   %r15
    780d:	41 56                	push   %r14
    780f:	41 55                	push   %r13
    7811:	41 54                	push   %r12
    7813:	53                   	push   %rbx
    7814:	48 81 ec 00 10 00 00 	sub    $0x1000,%rsp
    781b:	48 83 0c 24 00       	orq    $0x0,(%rsp)
    7820:	48 81 ec 68 06 00 00 	sub    $0x668,%rsp
    7827:	89 bd 8c e9 ff ff    	mov    %edi,-0x1674(%rbp)
    782d:	48 89 b5 80 e9 ff ff 	mov    %rsi,-0x1680(%rbp)
    7834:	48 89 95 78 e9 ff ff 	mov    %rdx,-0x1688(%rbp)
    783b:	48 89 8d 70 e9 ff ff 	mov    %rcx,-0x1690(%rbp)
    7842:	64 48 8b 04 25 28 00 	mov    %fs:0x28,%rax
    7849:	00 00 
    784b:	48 89 45 c8          	mov    %rax,-0x38(%rbp)
    784f:	31 c0                	xor    %eax,%eax
    7851:	c7 85 a8 e9 ff ff 03 	movl   $0x3,-0x1658(%rbp)
    7858:	00 00 00 
    785b:	c6 85 91 e9 ff ff 01 	movb   $0x1,-0x166f(%rbp)
    7862:	48 c7 85 98 ea ff ff 	movq   $0xffffffffffffffff,-0x1568(%rbp)
    7869:	ff ff ff ff 
    786d:	48 8d 05 f0 a7 00 00 	lea    0xa7f0(%rip),%rax        # 12064 <g_68>
    7874:	48 89 85 40 ea ff ff 	mov    %rax,-0x15c0(%rbp)
    787b:	48 c7 85 48 ea ff ff 	movq   $0x0,-0x15b8(%rbp)
    7882:	00 00 00 00 
    7886:	48 8d 85 48 ea ff ff 	lea    -0x15b8(%rbp),%rax
    788d:	48 89 85 a0 ea ff ff 	mov    %rax,-0x1560(%rbp)
    7894:	48 c7 85 50 ea ff ff 	movq   $0x0,-0x15b0(%rbp)
    789b:	00 00 00 00 
    789f:	48 8d 85 50 ea ff ff 	lea    -0x15b0(%rbp),%rax
    78a6:	48 89 85 a8 ea ff ff 	mov    %rax,-0x1558(%rbp)
    78ad:	c7 85 ac e9 ff ff ff 	movl   $0xffffffff,-0x1654(%rbp)
    78b4:	ff ff ff 
    78b7:	66 c7 85 a0 e9 ff ff 	movw   $0x645e,-0x1660(%rbp)
    78be:	5e 64 
    78c0:	48 c7 85 b0 ea ff ff 	movq   $0x0,-0x1550(%rbp)
    78c7:	00 00 00 00 
    78cb:	c7 85 e0 ed ff ff 01 	movl   $0x10101,-0x1220(%rbp)
    78d2:	01 01 00 
    78d5:	66 c7 85 e4 ed ff ff 	movw   $0xfca5,-0x121c(%rbp)
    78dc:	a5 fc 
    78de:	c7 85 e6 ed ff ff fc 	movl   $0xac9f58fc,-0x121a(%rbp)
    78e5:	58 9f ac 
    78e8:	66 c7 85 ea ed ff ff 	movw   $0xb2fc,-0x1216(%rbp)
    78ef:	fc b2 
    78f1:	c7 85 ec ed ff ff 09 	movl   $0xac429709,-0x1214(%rbp)
    78f8:	97 42 ac 
    78fb:	66 c7 85 f0 ed ff ff 	movw   $0x1,-0x1210(%rbp)
    7902:	01 00 
    7904:	c7 85 f2 ed ff ff fc 	movl   $0x7d01fc,-0x120e(%rbp)
    790b:	01 7d 00 
    790e:	66 c7 85 f6 ed ff ff 	movw   $0x42,-0x120a(%rbp)
    7915:	42 00 
    7917:	c7 85 f8 ed ff ff 01 	movl   $0xa1010801,-0x1208(%rbp)
    791e:	08 01 a1 
    7921:	66 c7 85 fc ed ff ff 	movw   $0x6c08,-0x1204(%rbp)
    7928:	08 6c 
    792a:	c7 85 fe ed ff ff 53 	movl   $0xf709a553,-0x1202(%rbp)
    7931:	a5 09 f7 
    7934:	66 c7 85 02 ee ff ff 	movw   $0x606,-0x11fe(%rbp)
    793b:	06 06 
    793d:	c7 85 04 ee ff ff 75 	movl   $0x75272775,-0x11fc(%rbp)
    7944:	27 27 75 
    7947:	66 c7 85 08 ee ff ff 	movw   $0xacf7,-0x11f8(%rbp)
    794e:	f7 ac 
    7950:	c7 85 0a ee ff ff a5 	movl   $0x421ff7a5,-0x11f6(%rbp)
    7957:	f7 1f 42 
    795a:	66 c7 85 0e ee ff ff 	movw   $0x101,-0x11f2(%rbp)
    7961:	01 01 
    7963:	c7 85 10 ee ff ff 01 	movl   $0xfc257501,-0x11f0(%rbp)
    796a:	75 25 fc 
    796d:	66 c7 85 14 ee ff ff 	movw   $0xff01,-0x11ec(%rbp)
    7974:	01 ff 
    7976:	c7 85 16 ee ff ff 06 	movl   $0x9708f706,-0x11ea(%rbp)
    797d:	f7 08 97 
    7980:	66 c7 85 1a ee ff ff 	movw   $0x6df7,-0x11e6(%rbp)
    7987:	f7 6d 
    7989:	c7 85 1c ee ff ff 00 	movl   $0x1532700,-0x11e4(%rbp)
    7990:	27 53 01 
    7993:	66 c7 85 20 ee ff ff 	movw   $0x4206,-0x11e0(%rbp)
    799a:	06 42 
    799c:	c7 85 22 ee ff ff ff 	movl   $0x6a1a5ff,-0x11de(%rbp)
    79a3:	a5 a1 06 
    79a6:	66 c7 85 26 ee ff ff 	movw   $0x2708,-0x11da(%rbp)
    79ad:	08 27 
    79af:	c7 85 28 ee ff ff 42 	movl   $0x86d0842,-0x11d8(%rbp)
    79b6:	08 6d 08 
    79b9:	66 c7 85 2c ee ff ff 	movw   $0x7542,-0x11d4(%rbp)
    79c0:	42 75 
    79c2:	c7 85 2e ee ff ff fb 	movl   $0xf70101fb,-0x11d2(%rbp)
    79c9:	01 01 f7 
    79cc:	66 c7 85 32 ee ff ff 	movw   $0xfe01,-0x11ce(%rbp)
    79d3:	01 fe 
    79d5:	c7 85 34 ee ff ff 7d 	movl   $0xfc09b27d,-0x11cc(%rbp)
    79dc:	b2 09 fc 
    79df:	66 c7 85 38 ee ff ff 	movw   $0xfe08,-0x11c8(%rbp)
    79e6:	08 fe 
    79e8:	c7 85 3a ee ff ff 58 	movl   $0x9fc0058,-0x11c6(%rbp)
    79ef:	00 fc 09 
    79f2:	66 c7 85 3e ee ff ff 	movw   $0xff08,-0x11c2(%rbp)
    79f9:	08 ff 
    79fb:	48 8d 85 40 f5 ff ff 	lea    -0xac0(%rbp),%rax
    7a02:	48 8d 15 77 6d 00 00 	lea    0x6d77(%rip),%rdx        # e780 <g_1338+0x720>
    7a09:	b9 7e 00 00 00       	mov    $0x7e,%ecx
    7a0e:	48 89 c7             	mov    %rax,%rdi
    7a11:	48 89 d6             	mov    %rdx,%rsi
    7a14:	f3 48 a5             	rep movsq %ds:(%rsi),%es:(%rdi)
    7a17:	66 c7 85 40 ee ff ff 	movw   $0xfffc,-0x11c0(%rbp)
    7a1e:	fc ff 
    7a20:	66 c7 85 42 ee ff ff 	movw   $0x6489,-0x11be(%rbp)
    7a27:	89 64 
    7a29:	66 c7 85 44 ee ff ff 	movw   $0xb14d,-0x11bc(%rbp)
    7a30:	4d b1 
    7a32:	66 c7 85 46 ee ff ff 	movw   $0x0,-0x11ba(%rbp)
    7a39:	00 00 
    7a3b:	66 c7 85 48 ee ff ff 	movw   $0x626a,-0x11b8(%rbp)
    7a42:	6a 62 
    7a44:	66 c7 85 4a ee ff ff 	movw   $0x0,-0x11b6(%rbp)
    7a4b:	00 00 
    7a4d:	66 c7 85 4c ee ff ff 	movw   $0x3ef5,-0x11b4(%rbp)
    7a54:	f5 3e 
    7a56:	66 c7 85 4e ee ff ff 	movw   $0xf640,-0x11b2(%rbp)
    7a5d:	40 f6 
    7a5f:	66 c7 85 50 ee ff ff 	movw   $0xb14d,-0x11b0(%rbp)
    7a66:	4d b1 
    7a68:	66 c7 85 52 ee ff ff 	movw   $0x6489,-0x11ae(%rbp)
    7a6f:	89 64 
    7a71:	66 c7 85 54 ee ff ff 	movw   $0xfffc,-0x11ac(%rbp)
    7a78:	fc ff 
    7a7a:	66 c7 85 56 ee ff ff 	movw   $0xb14d,-0x11aa(%rbp)
    7a81:	4d b1 
    7a83:	66 c7 85 58 ee ff ff 	movw   $0xffff,-0x11a8(%rbp)
    7a8a:	ff ff 
    7a8c:	66 c7 85 5a ee ff ff 	movw   $0x6033,-0x11a6(%rbp)
    7a93:	33 60 
    7a95:	66 c7 85 5c ee ff ff 	movw   $0x0,-0x11a4(%rbp)
    7a9c:	00 00 
    7a9e:	66 c7 85 5e ee ff ff 	movw   $0x6033,-0x11a2(%rbp)
    7aa5:	33 60 
    7aa7:	66 c7 85 60 ee ff ff 	movw   $0xffff,-0x11a0(%rbp)
    7aae:	ff ff 
    7ab0:	66 c7 85 62 ee ff ff 	movw   $0xb14d,-0x119e(%rbp)
    7ab7:	4d b1 
    7ab9:	66 c7 85 64 ee ff ff 	movw   $0xffff,-0x119c(%rbp)
    7ac0:	ff ff 
    7ac2:	66 c7 85 66 ee ff ff 	movw   $0xffff,-0x119a(%rbp)
    7ac9:	ff ff 
    7acb:	66 c7 85 68 ee ff ff 	movw   $0xb14d,-0x1198(%rbp)
    7ad2:	4d b1 
    7ad4:	66 c7 85 6a ee ff ff 	movw   $0xf640,-0x1196(%rbp)
    7adb:	40 f6 
    7add:	66 c7 85 6c ee ff ff 	movw   $0x3ef5,-0x1194(%rbp)
    7ae4:	f5 3e 
    7ae6:	66 c7 85 6e ee ff ff 	movw   $0x0,-0x1192(%rbp)
    7aed:	00 00 
    7aef:	66 c7 85 70 ee ff ff 	movw   $0x626a,-0x1190(%rbp)
    7af6:	6a 62 
    7af8:	66 c7 85 72 ee ff ff 	movw   $0x0,-0x118e(%rbp)
    7aff:	00 00 
    7b01:	66 c7 85 74 ee ff ff 	movw   $0xb14d,-0x118c(%rbp)
    7b08:	4d b1 
    7b0a:	66 c7 85 76 ee ff ff 	movw   $0xfffc,-0x118a(%rbp)
    7b11:	fc ff 
    7b13:	66 c7 85 78 ee ff ff 	movw   $0x6489,-0x1188(%rbp)
    7b1a:	89 64 
    7b1c:	66 c7 85 7a ee ff ff 	movw   $0xb14d,-0x1186(%rbp)
    7b23:	4d b1 
    7b25:	66 c7 85 7c ee ff ff 	movw   $0x0,-0x1184(%rbp)
    7b2c:	00 00 
    7b2e:	66 c7 85 7e ee ff ff 	movw   $0x626a,-0x1182(%rbp)
    7b35:	6a 62 
    7b37:	66 c7 85 80 ee ff ff 	movw   $0x0,-0x1180(%rbp)
    7b3e:	00 00 
    7b40:	66 c7 85 82 ee ff ff 	movw   $0x3ef5,-0x117e(%rbp)
    7b47:	f5 3e 
    7b49:	66 c7 85 84 ee ff ff 	movw   $0xf640,-0x117c(%rbp)
    7b50:	40 f6 
    7b52:	66 c7 85 86 ee ff ff 	movw   $0xb14d,-0x117a(%rbp)
    7b59:	4d b1 
    7b5b:	66 c7 85 88 ee ff ff 	movw   $0x6489,-0x1178(%rbp)
    7b62:	89 64 
    7b64:	66 c7 85 8a ee ff ff 	movw   $0xfffc,-0x1176(%rbp)
    7b6b:	fc ff 
    7b6d:	66 c7 85 8c ee ff ff 	movw   $0xb14d,-0x1174(%rbp)
    7b74:	4d b1 
    7b76:	66 c7 85 8e ee ff ff 	movw   $0xffff,-0x1172(%rbp)
    7b7d:	ff ff 
    7b7f:	66 c7 85 90 ee ff ff 	movw   $0x6033,-0x1170(%rbp)
    7b86:	33 60 
    7b88:	66 c7 85 92 ee ff ff 	movw   $0x0,-0x116e(%rbp)
    7b8f:	00 00 
    7b91:	66 c7 85 94 ee ff ff 	movw   $0x6033,-0x116c(%rbp)
    7b98:	33 60 
    7b9a:	66 c7 85 96 ee ff ff 	movw   $0xffff,-0x116a(%rbp)
    7ba1:	ff ff 
    7ba3:	66 c7 85 98 ee ff ff 	movw   $0xb14d,-0x1168(%rbp)
    7baa:	4d b1 
    7bac:	66 c7 85 9a ee ff ff 	movw   $0xffff,-0x1166(%rbp)
    7bb3:	ff ff 
    7bb5:	66 c7 85 9c ee ff ff 	movw   $0xffff,-0x1164(%rbp)
    7bbc:	ff ff 
    7bbe:	66 c7 85 9e ee ff ff 	movw   $0xb14d,-0x1162(%rbp)
    7bc5:	4d b1 
    7bc7:	66 c7 85 a0 ee ff ff 	movw   $0xf640,-0x1160(%rbp)
    7bce:	40 f6 
    7bd0:	66 c7 85 a2 ee ff ff 	movw   $0x3ef5,-0x115e(%rbp)
    7bd7:	f5 3e 
    7bd9:	66 c7 85 a4 ee ff ff 	movw   $0x0,-0x115c(%rbp)
    7be0:	00 00 
    7be2:	66 c7 85 a6 ee ff ff 	movw   $0x626a,-0x115a(%rbp)
    7be9:	6a 62 
    7beb:	66 c7 85 a8 ee ff ff 	movw   $0x0,-0x1158(%rbp)
    7bf2:	00 00 
    7bf4:	66 c7 85 aa ee ff ff 	movw   $0xb14d,-0x1156(%rbp)
    7bfb:	4d b1 
    7bfd:	66 c7 85 ac ee ff ff 	movw   $0xfffc,-0x1154(%rbp)
    7c04:	fc ff 
    7c06:	66 c7 85 ae ee ff ff 	movw   $0x6489,-0x1152(%rbp)
    7c0d:	89 64 
    7c0f:	66 c7 85 b0 ee ff ff 	movw   $0xb14d,-0x1150(%rbp)
    7c16:	4d b1 
    7c18:	66 c7 85 b2 ee ff ff 	movw   $0x0,-0x114e(%rbp)
    7c1f:	00 00 
    7c21:	66 c7 85 b4 ee ff ff 	movw   $0x626a,-0x114c(%rbp)
    7c28:	6a 62 
    7c2a:	66 c7 85 b6 ee ff ff 	movw   $0x0,-0x114a(%rbp)
    7c31:	00 00 
    7c33:	66 c7 85 b8 ee ff ff 	movw   $0x3ef5,-0x1148(%rbp)
    7c3a:	f5 3e 
    7c3c:	66 c7 85 ba ee ff ff 	movw   $0xf640,-0x1146(%rbp)
    7c43:	40 f6 
    7c45:	66 c7 85 bc ee ff ff 	movw   $0xb14d,-0x1144(%rbp)
    7c4c:	4d b1 
    7c4e:	66 c7 85 be ee ff ff 	movw   $0x6489,-0x1142(%rbp)
    7c55:	89 64 
    7c57:	66 c7 85 c0 ee ff ff 	movw   $0xfffc,-0x1140(%rbp)
    7c5e:	fc ff 
    7c60:	66 c7 85 c2 ee ff ff 	movw   $0xb14d,-0x113e(%rbp)
    7c67:	4d b1 
    7c69:	66 c7 85 c4 ee ff ff 	movw   $0xffff,-0x113c(%rbp)
    7c70:	ff ff 
    7c72:	66 c7 85 c6 ee ff ff 	movw   $0x6033,-0x113a(%rbp)
    7c79:	33 60 
    7c7b:	66 c7 85 c8 ee ff ff 	movw   $0x0,-0x1138(%rbp)
    7c82:	00 00 
    7c84:	66 c7 85 ca ee ff ff 	movw   $0x6033,-0x1136(%rbp)
    7c8b:	33 60 
    7c8d:	66 c7 85 cc ee ff ff 	movw   $0xffff,-0x1134(%rbp)
    7c94:	ff ff 
    7c96:	66 c7 85 ce ee ff ff 	movw   $0xb14d,-0x1132(%rbp)
    7c9d:	4d b1 
    7c9f:	66 c7 85 d0 ee ff ff 	movw   $0xffff,-0x1130(%rbp)
    7ca6:	ff ff 
    7ca8:	66 c7 85 d2 ee ff ff 	movw   $0xffff,-0x112e(%rbp)
    7caf:	ff ff 
    7cb1:	66 c7 85 d4 ee ff ff 	movw   $0xb14d,-0x112c(%rbp)
    7cb8:	4d b1 
    7cba:	66 c7 85 d6 ee ff ff 	movw   $0xf640,-0x112a(%rbp)
    7cc1:	40 f6 
    7cc3:	66 c7 85 d8 ee ff ff 	movw   $0x3ef5,-0x1128(%rbp)
    7cca:	f5 3e 
    7ccc:	66 c7 85 da ee ff ff 	movw   $0x0,-0x1126(%rbp)
    7cd3:	00 00 
    7cd5:	66 c7 85 dc ee ff ff 	movw   $0x626a,-0x1124(%rbp)
    7cdc:	6a 62 
    7cde:	66 c7 85 de ee ff ff 	movw   $0x0,-0x1122(%rbp)
    7ce5:	00 00 
    7ce7:	66 c7 85 e0 ee ff ff 	movw   $0xb14d,-0x1120(%rbp)
    7cee:	4d b1 
    7cf0:	48 c7 85 58 ea ff ff 	movq   $0x0,-0x15a8(%rbp)
    7cf7:	00 00 00 00 
    7cfb:	48 8d 85 58 ea ff ff 	lea    -0x15a8(%rbp),%rax
    7d02:	48 89 85 60 ea ff ff 	mov    %rax,-0x15a0(%rbp)
    7d09:	48 8d 85 60 ea ff ff 	lea    -0x15a0(%rbp),%rax
    7d10:	48 89 85 b8 ea ff ff 	mov    %rax,-0x1548(%rbp)
    7d17:	48 8d 05 72 c5 00 00 	lea    0xc572(%rip),%rax        # 14290 <g_735>
    7d1e:	48 89 85 c0 ea ff ff 	mov    %rax,-0x1540(%rbp)
    7d25:	c7 85 b0 e9 ff ff 01 	movl   $0x1,-0x1650(%rbp)
    7d2c:	00 00 00 
    7d2f:	c7 85 d8 e9 ff ff 00 	movl   $0x0,-0x1628(%rbp)
    7d36:	00 00 00 
    7d39:	48 b8 5f 18 2b d6 5d 	movabs $0x72ab5dd62b185f,%rax
    7d40:	ab 72 00 
    7d43:	48 89 85 c8 ea ff ff 	mov    %rax,-0x1538(%rbp)
    7d4a:	48 8d 05 17 a7 00 00 	lea    0xa717(%rip),%rax        # 12468 <g_697>
    7d51:	48 89 85 68 ea ff ff 	mov    %rax,-0x1598(%rbp)
    7d58:	48 8d 85 f0 ef ff ff 	lea    -0x1010(%rbp),%rax
    7d5f:	48 8d 15 3a b7 00 00 	lea    0xb73a(%rip),%rdx        # 134a0 <g_1398+0x838>
    7d66:	b9 30 00 00 00       	mov    $0x30,%ecx
    7d6b:	48 89 c7             	mov    %rax,%rdi
    7d6e:	48 89 d6             	mov    %rdx,%rsi
    7d71:	f3 48 a5             	rep movsq %ds:(%rsi),%es:(%rdi)
    7d74:	48 8d 05 8d c1 00 00 	lea    0xc18d(%rip),%rax        # 13f08 <g_215+0x28>
    7d7b:	48 89 85 d0 ea ff ff 	mov    %rax,-0x1530(%rbp)
    7d82:	c7 85 b8 e9 ff ff 00 	movl   $0x0,-0x1648(%rbp)
    7d89:	00 00 00 
    7d8c:	eb 1e                	jmp    7dac <func_38+0x5a9>
    7d8e:	8b 85 b8 e9 ff ff    	mov    -0x1648(%rbp),%eax
    7d94:	48 98                	cltq   
    7d96:	48 8d 15 d3 a3 00 00 	lea    0xa3d3(%rip),%rdx        # 12170 <g_192>
    7d9d:	48 89 94 c5 00 ec ff 	mov    %rdx,-0x1400(%rbp,%rax,8)
    7da4:	ff 
    7da5:	83 85 b8 e9 ff ff 01 	addl   $0x1,-0x1648(%rbp)
    7dac:	83 bd b8 e9 ff ff 02 	cmpl   $0x2,-0x1648(%rbp)
    7db3:	7e d9                	jle    7d8e <func_38+0x58b>
    7db5:	c7 85 b8 e9 ff ff 00 	movl   $0x0,-0x1648(%rbp)
    7dbc:	00 00 00 
    7dbf:	eb 19                	jmp    7dda <func_38+0x5d7>
    7dc1:	8b 85 b8 e9 ff ff    	mov    -0x1648(%rbp),%eax
    7dc7:	48 98                	cltq   
    7dc9:	66 c7 84 45 e2 eb ff 	movw   $0xcca,-0x141e(%rbp,%rax,2)
    7dd0:	ff ca 0c 
    7dd3:	83 85 b8 e9 ff ff 01 	addl   $0x1,-0x1648(%rbp)
    7dda:	83 bd b8 e9 ff ff 01 	cmpl   $0x1,-0x1648(%rbp)
    7de1:	7e de                	jle    7dc1 <func_38+0x5be>
    7de3:	c7 85 b8 e9 ff ff 00 	movl   $0x0,-0x1648(%rbp)
    7dea:	00 00 00 
    7ded:	eb 19                	jmp    7e08 <func_38+0x605>
    7def:	8b 85 b8 e9 ff ff    	mov    -0x1648(%rbp),%eax
    7df5:	48 98                	cltq   
    7df7:	66 c7 84 45 da eb ff 	movw   $0x8dfb,-0x1426(%rbp,%rax,2)
    7dfe:	ff fb 8d 
    7e01:	83 85 b8 e9 ff ff 01 	addl   $0x1,-0x1648(%rbp)
    7e08:	83 bd b8 e9 ff ff 00 	cmpl   $0x0,-0x1648(%rbp)
    7e0f:	7e de                	jle    7def <func_38+0x5ec>
    7e11:	90                   	nop
    7e12:	8b 85 a8 e9 ff ff    	mov    -0x1658(%rbp),%eax
    7e18:	41 89 c5             	mov    %eax,%r13d
    7e1b:	0f b6 85 91 e9 ff ff 	movzbl -0x166f(%rbp),%eax
    7e22:	44 0f b6 e0          	movzbl %al,%r12d
    7e26:	8b 9d 8c e9 ff ff    	mov    -0x1674(%rbp),%ebx
    7e2c:	8b 85 a8 e9 ff ff    	mov    -0x1658(%rbp),%eax
    7e32:	89 c2                	mov    %eax,%edx
    7e34:	0f b6 85 91 e9 ff ff 	movzbl -0x166f(%rbp),%eax
    7e3b:	3c 26                	cmp    $0x26,%al
    7e3d:	0f 97 c0             	seta   %al
    7e40:	0f b6 c0             	movzbl %al,%eax
    7e43:	89 d6                	mov    %edx,%esi
    7e45:	89 c7                	mov    %eax,%edi
    7e47:	e8 2e e0 ff ff       	callq  5e7a <safe_rshift_func_uint16_t_u_u>
    7e4c:	0f b6 c0             	movzbl %al,%eax
    7e4f:	89 de                	mov    %ebx,%esi
    7e51:	89 c7                	mov    %eax,%edi
    7e53:	e8 35 de ff ff       	callq  5c8d <safe_rshift_func_uint8_t_u_s>
    7e58:	0f b6 95 91 e9 ff ff 	movzbl -0x166f(%rbp),%edx
    7e5f:	38 d0                	cmp    %dl,%al
    7e61:	0f 92 c0             	setb   %al
    7e64:	0f b6 c0             	movzbl %al,%eax
    7e67:	48 39 85 70 e9 ff ff 	cmp    %rax,-0x1690(%rbp)
    7e6e:	75 11                	jne    7e81 <func_38+0x67e>
    7e70:	8b 85 a8 e9 ff ff    	mov    -0x1658(%rbp),%eax
    7e76:	85 c0                	test   %eax,%eax
    7e78:	74 07                	je     7e81 <func_38+0x67e>
    7e7a:	b8 01 00 00 00       	mov    $0x1,%eax
    7e7f:	eb 05                	jmp    7e86 <func_38+0x683>
    7e81:	b8 00 00 00 00       	mov    $0x0,%eax
    7e86:	44 39 e0             	cmp    %r12d,%eax
    7e89:	0f 9e c0             	setle  %al
    7e8c:	0f b6 d0             	movzbl %al,%edx
    7e8f:	48 8b 05 2a c0 00 00 	mov    0xc02a(%rip),%rax        # 13ec0 <g_216>
    7e96:	48 8b 00             	mov    (%rax),%rax
    7e99:	48 39 c2             	cmp    %rax,%rdx
    7e9c:	0f 95 c0             	setne  %al
    7e9f:	0f b6 d0             	movzbl %al,%edx
    7ea2:	8b 85 a8 e9 ff ff    	mov    -0x1658(%rbp),%eax
    7ea8:	48 98                	cltq   
    7eaa:	48 39 85 70 e9 ff ff 	cmp    %rax,-0x1690(%rbp)
    7eb1:	48 63 c2             	movslq %edx,%rax
    7eb4:	48 09 85 98 ea ff ff 	or     %rax,-0x1568(%rbp)
    7ebb:	0f b6 85 91 e9 ff ff 	movzbl -0x166f(%rbp),%eax
    7ec2:	83 c8 01             	or     $0x1,%eax
    7ec5:	0f b6 c0             	movzbl %al,%eax
    7ec8:	be 00 00 00 00       	mov    $0x0,%esi
    7ecd:	89 c7                	mov    %eax,%edi
    7ecf:	e8 4b de ff ff       	callq  5d1f <safe_sub_func_uint16_t_u_u>
    7ed4:	0f b6 c0             	movzbl %al,%eax
    7ed7:	44 89 ee             	mov    %r13d,%esi
    7eda:	89 c7                	mov    %eax,%edi
    7edc:	e8 6b dd ff ff       	callq  5c4c <safe_lshift_func_uint8_t_u_u>
    7ee1:	0f b6 c0             	movzbl %al,%eax
    7ee4:	be 02 00 00 00       	mov    $0x2,%esi
    7ee9:	89 c7                	mov    %eax,%edi
    7eeb:	e8 ce dd ff ff       	callq  5cbe <safe_rshift_func_uint8_t_u_u>
    7ef0:	0f b6 d0             	movzbl %al,%edx
    7ef3:	48 8d 05 46 a1 00 00 	lea    0xa146(%rip),%rax        # 12040 <g_19>
    7efa:	8b 00                	mov    (%rax),%eax
    7efc:	39 c2                	cmp    %eax,%edx
    7efe:	0f 96 c0             	setbe  %al
    7f01:	0f b6 d0             	movzbl %al,%edx
    7f04:	8b 85 8c e9 ff ff    	mov    -0x1674(%rbp),%eax
    7f0a:	39 c2                	cmp    %eax,%edx
    7f0c:	0f 9c c2             	setl   %dl
    7f0f:	48 8b 05 92 bf 00 00 	mov    0xbf92(%rip),%rax        # 13ea8 <g_81>
    7f16:	0f b6 d2             	movzbl %dl,%edx
    7f19:	89 10                	mov    %edx,(%rax)
    7f1b:	8b 85 8c e9 ff ff    	mov    -0x1674(%rbp),%eax
    7f21:	89 c3                	mov    %eax,%ebx
    7f23:	48 8b 15 46 a2 00 00 	mov    0xa246(%rip),%rdx        # 12170 <g_192>
    7f2a:	48 8b 85 40 ea ff ff 	mov    -0x15c0(%rbp),%rax
    7f31:	88 10                	mov    %dl,(%rax)
    7f33:	8b 85 a8 e9 ff ff    	mov    -0x1658(%rbp),%eax
    7f39:	83 f8 01             	cmp    $0x1,%eax
    7f3c:	0f 94 c0             	sete   %al
    7f3f:	0f b6 d0             	movzbl %al,%edx
    7f42:	48 8b 85 70 e9 ff ff 	mov    -0x1690(%rbp),%rax
    7f49:	0f b6 c0             	movzbl %al,%eax
    7f4c:	89 d6                	mov    %edx,%esi
    7f4e:	89 c7                	mov    %eax,%edi
    7f50:	e8 05 dc ff ff       	callq  5b5a <safe_add_func_uint8_t_u_u>
    7f55:	0f b6 c0             	movzbl %al,%eax
    7f58:	48 89 05 29 a2 00 00 	mov    %rax,0xa229(%rip)        # 12188 <g_236+0x8>
    7f5f:	48 8b 05 22 a2 00 00 	mov    0xa222(%rip),%rax        # 12188 <g_236+0x8>
    7f66:	48 85 c0             	test   %rax,%rax
    7f69:	75 0c                	jne    7f77 <func_38+0x774>
    7f6b:	0f b7 05 b2 a0 00 00 	movzwl 0xa0b2(%rip),%eax        # 12024 <g_2>
    7f72:	66 85 c0             	test   %ax,%ax
    7f75:	74 08                	je     7f7f <func_38+0x77c>
    7f77:	41 bc 01 00 00 00    	mov    $0x1,%r12d
    7f7d:	eb 06                	jmp    7f85 <func_38+0x782>
    7f7f:	41 bc 00 00 00 00    	mov    $0x0,%r12d
    7f85:	8b 85 8c e9 ff ff    	mov    -0x1674(%rbp),%eax
    7f8b:	85 c0                	test   %eax,%eax
    7f8d:	0f 95 c0             	setne  %al
    7f90:	0f b6 d0             	movzbl %al,%edx
    7f93:	8b 05 c7 a1 00 00    	mov    0xa1c7(%rip),%eax        # 12160 <g_166>
    7f99:	0f b7 c0             	movzwl %ax,%eax
    7f9c:	89 d6                	mov    %edx,%esi
    7f9e:	89 c7                	mov    %eax,%edi
    7fa0:	e8 7a dd ff ff       	callq  5d1f <safe_sub_func_uint16_t_u_u>
    7fa5:	0f b7 c0             	movzwl %ax,%eax
    7fa8:	41 39 c4             	cmp    %eax,%r12d
    7fab:	0f 9f c0             	setg   %al
    7fae:	0f b6 c0             	movzbl %al,%eax
    7fb1:	89 de                	mov    %ebx,%esi
    7fb3:	89 c7                	mov    %eax,%edi
    7fb5:	e8 04 dd ff ff       	callq  5cbe <safe_rshift_func_uint8_t_u_u>
    7fba:	0f b6 15 a8 a0 00 00 	movzbl 0xa0a8(%rip),%edx        # 12069 <g_77+0x4>
    7fc1:	0f b6 85 91 e9 ff ff 	movzbl -0x166f(%rbp),%eax
    7fc8:	38 c2                	cmp    %al,%dl
    7fca:	0f 86 6a 0a 00 00    	jbe    8a3a <func_38+0x1237>
    7fd0:	c6 85 90 ed ff ff 29 	movb   $0x29,-0x1270(%rbp)
    7fd7:	c6 85 91 ed ff ff fc 	movb   $0xfc,-0x126f(%rbp)
    7fde:	c6 85 92 ed ff ff 48 	movb   $0x48,-0x126e(%rbp)
    7fe5:	c6 85 93 ed ff ff fb 	movb   $0xfb,-0x126d(%rbp)
    7fec:	c6 85 94 ed ff ff fb 	movb   $0xfb,-0x126c(%rbp)
    7ff3:	c6 85 95 ed ff ff 48 	movb   $0x48,-0x126b(%rbp)
    7ffa:	c6 85 96 ed ff ff fc 	movb   $0xfc,-0x126a(%rbp)
    8001:	c6 85 97 ed ff ff 29 	movb   $0x29,-0x1269(%rbp)
    8008:	c6 85 98 ed ff ff fc 	movb   $0xfc,-0x1268(%rbp)
    800f:	c6 85 99 ed ff ff 48 	movb   $0x48,-0x1267(%rbp)
    8016:	c6 85 9a ed ff ff fb 	movb   $0xfb,-0x1266(%rbp)
    801d:	c6 85 9b ed ff ff fb 	movb   $0xfb,-0x1265(%rbp)
    8024:	c6 85 9c ed ff ff 48 	movb   $0x48,-0x1264(%rbp)
    802b:	c6 85 9d ed ff ff fc 	movb   $0xfc,-0x1263(%rbp)
    8032:	c6 85 9e ed ff ff 29 	movb   $0x29,-0x1262(%rbp)
    8039:	c6 85 9f ed ff ff fc 	movb   $0xfc,-0x1261(%rbp)
    8040:	c6 85 a0 ed ff ff 48 	movb   $0x48,-0x1260(%rbp)
    8047:	c6 85 a1 ed ff ff fb 	movb   $0xfb,-0x125f(%rbp)
    804e:	c6 85 a2 ed ff ff fb 	movb   $0xfb,-0x125e(%rbp)
    8055:	c6 85 a3 ed ff ff 48 	movb   $0x48,-0x125d(%rbp)
    805c:	c6 85 a4 ed ff ff fc 	movb   $0xfc,-0x125c(%rbp)
    8063:	c6 85 a5 ed ff ff 29 	movb   $0x29,-0x125b(%rbp)
    806a:	c6 85 a6 ed ff ff fc 	movb   $0xfc,-0x125a(%rbp)
    8071:	c6 85 a7 ed ff ff 48 	movb   $0x48,-0x1259(%rbp)
    8078:	c6 85 a8 ed ff ff fb 	movb   $0xfb,-0x1258(%rbp)
    807f:	c6 85 a9 ed ff ff fb 	movb   $0xfb,-0x1257(%rbp)
    8086:	c6 85 aa ed ff ff 48 	movb   $0x48,-0x1256(%rbp)
    808d:	c6 85 ab ed ff ff fc 	movb   $0xfc,-0x1255(%rbp)
    8094:	c6 85 ac ed ff ff 29 	movb   $0x29,-0x1254(%rbp)
    809b:	c6 85 ad ed ff ff fc 	movb   $0xfc,-0x1253(%rbp)
    80a2:	c6 85 ae ed ff ff 48 	movb   $0x48,-0x1252(%rbp)
    80a9:	c6 85 af ed ff ff fb 	movb   $0xfb,-0x1251(%rbp)
    80b0:	c6 85 b0 ed ff ff fb 	movb   $0xfb,-0x1250(%rbp)
    80b7:	c6 85 b1 ed ff ff 48 	movb   $0x48,-0x124f(%rbp)
    80be:	c6 85 b2 ed ff ff fc 	movb   $0xfc,-0x124e(%rbp)
    80c5:	c6 85 b3 ed ff ff 29 	movb   $0x29,-0x124d(%rbp)
    80cc:	c6 85 b4 ed ff ff fc 	movb   $0xfc,-0x124c(%rbp)
    80d3:	c6 85 b5 ed ff ff 48 	movb   $0x48,-0x124b(%rbp)
    80da:	c6 85 b6 ed ff ff fb 	movb   $0xfb,-0x124a(%rbp)
    80e1:	c6 85 b7 ed ff ff fb 	movb   $0xfb,-0x1249(%rbp)
    80e8:	c7 85 b4 e9 ff ff 00 	movl   $0x0,-0x164c(%rbp)
    80ef:	00 00 00 
    80f2:	48 b8 c1 6e f1 e1 65 	movabs $0xa9209365e1f16ec1,%rax
    80f9:	93 20 a9 
    80fc:	48 89 85 80 eb ff ff 	mov    %rax,-0x1480(%rbp)
    8103:	48 8d 85 a8 e9 ff ff 	lea    -0x1658(%rbp),%rax
    810a:	48 89 85 70 ea ff ff 	mov    %rax,-0x1590(%rbp)
    8111:	48 8d 85 70 ea ff ff 	lea    -0x1590(%rbp),%rax
    8118:	48 89 85 88 eb ff ff 	mov    %rax,-0x1478(%rbp)
    811f:	48 c7 85 90 eb ff ff 	movq   $0x0,-0x1470(%rbp)
    8126:	00 00 00 00 
    812a:	48 8d 05 15 a1 00 00 	lea    0xa115(%rip),%rax        # 12246 <g_465>
    8131:	48 89 85 98 eb ff ff 	mov    %rax,-0x1468(%rbp)
    8138:	48 8d 85 a8 e9 ff ff 	lea    -0x1658(%rbp),%rax
    813f:	48 89 85 78 ea ff ff 	mov    %rax,-0x1588(%rbp)
    8146:	48 8d 85 78 ea ff ff 	lea    -0x1588(%rbp),%rax
    814d:	48 89 85 80 ea ff ff 	mov    %rax,-0x1580(%rbp)
    8154:	48 c7 85 88 ea ff ff 	movq   $0x0,-0x1578(%rbp)
    815b:	00 00 00 00 
    815f:	c6 85 99 e9 ff ff d0 	movb   $0xd0,-0x1667(%rbp)
    8166:	48 8d 05 35 a3 00 00 	lea    0xa335(%rip),%rax        # 124a2 <g_711>
    816d:	48 89 85 a0 eb ff ff 	mov    %rax,-0x1460(%rbp)
    8174:	c7 85 bc e9 ff ff 00 	movl   $0x0,-0x1644(%rbp)
    817b:	00 00 00 
    817e:	eb 1e                	jmp    819e <func_38+0x99b>
    8180:	8b 85 bc e9 ff ff    	mov    -0x1644(%rbp),%eax
    8186:	48 98                	cltq   
    8188:	48 8d 95 88 ea ff ff 	lea    -0x1578(%rbp),%rdx
    818f:	48 89 94 c5 70 f1 ff 	mov    %rdx,-0xe90(%rbp,%rax,8)
    8196:	ff 
    8197:	83 85 bc e9 ff ff 01 	addl   $0x1,-0x1644(%rbp)
    819e:	83 bd bc e9 ff ff 07 	cmpl   $0x7,-0x1644(%rbp)
    81a5:	7e d9                	jle    8180 <func_38+0x97d>
    81a7:	c7 85 bc e9 ff ff 00 	movl   $0x0,-0x1644(%rbp)
    81ae:	00 00 00 
    81b1:	eb 1a                	jmp    81cd <func_38+0x9ca>
    81b3:	8b 85 bc e9 ff ff    	mov    -0x1644(%rbp),%eax
    81b9:	48 98                	cltq   
    81bb:	c7 84 85 d0 ec ff ff 	movl   $0x0,-0x1330(%rbp,%rax,4)
    81c2:	00 00 00 00 
    81c6:	83 85 bc e9 ff ff 01 	addl   $0x1,-0x1644(%rbp)
    81cd:	83 bd bc e9 ff ff 01 	cmpl   $0x1,-0x1644(%rbp)
    81d4:	7e dd                	jle    81b3 <func_38+0x9b0>
    81d6:	48 c7 05 8f 9f 00 00 	movq   $0x0,0x9f8f(%rip)        # 12170 <g_192>
    81dd:	00 00 00 00 
    81e1:	e9 e8 04 00 00       	jmpq   86ce <func_38+0xecb>
    81e6:	48 8d 05 bb bc 00 00 	lea    0xbcbb(%rip),%rax        # 13ea8 <g_81>
    81ed:	48 89 85 b8 eb ff ff 	mov    %rax,-0x1448(%rbp)
    81f4:	66 c7 85 a6 e9 ff ff 	movw   $0x5e65,-0x165a(%rbp)
    81fb:	65 5e 
    81fd:	c7 85 38 ea ff ff 74 	movl   $0x2945a974,-0x15c8(%rbp)
    8204:	a9 45 29 
    8207:	c7 85 8c e9 ff ff 00 	movl   $0x0,-0x1674(%rbp)
    820e:	00 00 00 
    8211:	e9 5b 01 00 00       	jmpq   8371 <func_38+0xb6e>
    8216:	48 c7 85 98 ea ff ff 	movq   $0x0,-0x1568(%rbp)
    821d:	00 00 00 00 
    8221:	eb 64                	jmp    8287 <func_38+0xa84>
    8223:	c7 05 bb c5 00 00 00 	movl   $0x0,0xc5bb(%rip)        # 147e8 <g_323>
    822a:	00 00 00 
    822d:	eb 45                	jmp    8274 <func_38+0xa71>
    822f:	8b 05 b3 c5 00 00    	mov    0xc5b3(%rip),%eax        # 147e8 <g_323>
    8235:	48 63 c8             	movslq %eax,%rcx
    8238:	48 8b 95 98 ea ff ff 	mov    -0x1568(%rbp),%rdx
    823f:	48 89 d0             	mov    %rdx,%rax
    8242:	48 01 c0             	add    %rax,%rax
    8245:	48 01 d0             	add    %rdx,%rax
    8248:	48 01 c0             	add    %rax,%rax
    824b:	48 01 c8             	add    %rcx,%rax
    824e:	48 8d 14 c5 00 00 00 	lea    0x0(,%rax,8),%rdx
    8255:	00 
    8256:	48 8d 05 23 9e 00 00 	lea    0x9e23(%rip),%rax        # 12080 <g_112>
    825d:	48 c7 04 02 01 00 00 	movq   $0x1,(%rdx,%rax,1)
    8264:	00 
    8265:	8b 05 7d c5 00 00    	mov    0xc57d(%rip),%eax        # 147e8 <g_323>
    826b:	83 c0 01             	add    $0x1,%eax
    826e:	89 05 74 c5 00 00    	mov    %eax,0xc574(%rip)        # 147e8 <g_323>
    8274:	8b 05 6e c5 00 00    	mov    0xc56e(%rip),%eax        # 147e8 <g_323>
    827a:	83 f8 05             	cmp    $0x5,%eax
    827d:	7e b0                	jle    822f <func_38+0xa2c>
    827f:	48 83 85 98 ea ff ff 	addq   $0x1,-0x1568(%rbp)
    8286:	01 
    8287:	48 83 bd 98 ea ff ff 	cmpq   $0x3,-0x1568(%rbp)
    828e:	03 
    828f:	7e 92                	jle    8223 <func_38+0xa20>
    8291:	48 c7 05 f4 9e 00 00 	movq   $0x1,0x9ef4(%rip)        # 12190 <g_241>
    8298:	01 00 00 00 
    829c:	e9 9e 00 00 00       	jmpq   833f <func_38+0xb3c>
    82a1:	48 c7 85 70 e9 ff ff 	movq   $0x0,-0x1690(%rbp)
    82a8:	00 00 00 00 
    82ac:	eb 72                	jmp    8320 <func_38+0xb1d>
    82ae:	48 8b 05 f3 bb 00 00 	mov    0xbbf3(%rip),%rax        # 13ea8 <g_81>
    82b5:	8b 00                	mov    (%rax),%eax
    82b7:	89 c1                	mov    %eax,%ecx
    82b9:	48 8b 05 d0 9e 00 00 	mov    0x9ed0(%rip),%rax        # 12190 <g_241>
    82c0:	48 8d 50 04          	lea    0x4(%rax),%rdx
    82c4:	48 8b 85 70 e9 ff ff 	mov    -0x1690(%rbp),%rax
    82cb:	48 01 d0             	add    %rdx,%rax
    82ce:	48 8d 14 85 00 00 00 	lea    0x0(,%rax,4),%rdx
    82d5:	00 
    82d6:	48 8d 05 63 9d 00 00 	lea    0x9d63(%rip),%rax        # 12040 <g_19>
    82dd:	8b 04 02             	mov    (%rdx,%rax,1),%eax
    82e0:	31 c1                	xor    %eax,%ecx
    82e2:	89 ca                	mov    %ecx,%edx
    82e4:	48 8b 05 bd bb 00 00 	mov    0xbbbd(%rip),%rax        # 13ea8 <g_81>
    82eb:	89 10                	mov    %edx,(%rax)
    82ed:	48 8b 05 7c 9e 00 00 	mov    0x9e7c(%rip),%rax        # 12170 <g_192>
    82f4:	48 8d 50 03          	lea    0x3(%rax),%rdx
    82f8:	48 8b 85 70 e9 ff ff 	mov    -0x1690(%rbp),%rax
    82ff:	48 01 d0             	add    %rdx,%rax
    8302:	48 8d 14 85 00 00 00 	lea    0x0(,%rax,4),%rdx
    8309:	00 
    830a:	48 8d 05 2f 9d 00 00 	lea    0x9d2f(%rip),%rax        # 12040 <g_19>
    8311:	8b 04 02             	mov    (%rdx,%rax,1),%eax
    8314:	85 c0                	test   %eax,%eax
    8316:	75 14                	jne    832c <func_38+0xb29>
    8318:	48 83 85 70 e9 ff ff 	addq   $0x1,-0x1690(%rbp)
    831f:	01 
    8320:	48 83 bd 70 e9 ff ff 	cmpq   $0x0,-0x1690(%rbp)
    8327:	00 
    8328:	74 84                	je     82ae <func_38+0xaab>
    832a:	eb 01                	jmp    832d <func_38+0xb2a>
    832c:	90                   	nop
    832d:	48 8b 05 5c 9e 00 00 	mov    0x9e5c(%rip),%rax        # 12190 <g_241>
    8334:	48 83 e8 01          	sub    $0x1,%rax
    8338:	48 89 05 51 9e 00 00 	mov    %rax,0x9e51(%rip)        # 12190 <g_241>
    833f:	48 8b 05 4a 9e 00 00 	mov    0x9e4a(%rip),%rax        # 12190 <g_241>
    8346:	48 85 c0             	test   %rax,%rax
    8349:	0f 89 52 ff ff ff    	jns    82a1 <func_38+0xa9e>
    834f:	48 8b 05 62 bb 00 00 	mov    0xbb62(%rip),%rax        # 13eb8 <g_83>
    8356:	48 8b 00             	mov    (%rax),%rax
    8359:	48 8b 00             	mov    (%rax),%rax
    835c:	8b 00                	mov    (%rax),%eax
    835e:	85 c0                	test   %eax,%eax
    8360:	75 20                	jne    8382 <func_38+0xb7f>
    8362:	8b 85 8c e9 ff ff    	mov    -0x1674(%rbp),%eax
    8368:	83 c0 01             	add    $0x1,%eax
    836b:	89 85 8c e9 ff ff    	mov    %eax,-0x1674(%rbp)
    8371:	8b 85 8c e9 ff ff    	mov    -0x1674(%rbp),%eax
    8377:	83 f8 04             	cmp    $0x4,%eax
    837a:	0f 8e 96 fe ff ff    	jle    8216 <func_38+0xa13>
    8380:	eb 01                	jmp    8383 <func_38+0xb80>
    8382:	90                   	nop
    8383:	48 8b 05 26 bb 00 00 	mov    0xbb26(%rip),%rax        # 13eb0 <g_80>
    838a:	48 8b 10             	mov    (%rax),%rdx
    838d:	48 8b 85 b8 eb ff ff 	mov    -0x1448(%rbp),%rax
    8394:	48 89 10             	mov    %rdx,(%rax)
    8397:	48 8b 85 78 e9 ff ff 	mov    -0x1688(%rbp),%rax
    839e:	8b 00                	mov    (%rax),%eax
    83a0:	89 c3                	mov    %eax,%ebx
    83a2:	0f b7 05 a1 9e 00 00 	movzwl 0x9ea1(%rip),%eax        # 1224a <g_482+0x2>
    83a9:	0f b7 c0             	movzwl %ax,%eax
    83ac:	48 8b 95 70 e9 ff ff 	mov    -0x1690(%rbp),%rdx
    83b3:	48 89 d6             	mov    %rdx,%rsi
    83b6:	48 89 c7             	mov    %rax,%rdi
    83b9:	e8 f1 dc ff ff       	callq  60af <safe_div_func_uint64_t_u_u>
    83be:	89 de                	mov    %ebx,%esi
    83c0:	89 c7                	mov    %eax,%edi
    83c2:	e8 ef d1 ff ff       	callq  55b6 <safe_add_func_int32_t_s_s>
    83c7:	0f be d0             	movsbl %al,%edx
    83ca:	48 8b 05 df ba 00 00 	mov    0xbadf(%rip),%rax        # 13eb0 <g_80>
    83d1:	48 8b 00             	mov    (%rax),%rax
    83d4:	8b 00                	mov    (%rax),%eax
    83d6:	48 83 bd 70 e9 ff ff 	cmpq   $0x0,-0x1690(%rbp)
    83dd:	00 
    83de:	75 10                	jne    83f0 <func_38+0xbed>
    83e0:	48 8b 85 b8 eb ff ff 	mov    -0x1448(%rbp),%rax
    83e7:	48 8b 00             	mov    (%rax),%rax
    83ea:	8b 00                	mov    (%rax),%eax
    83ec:	85 c0                	test   %eax,%eax
    83ee:	74 07                	je     83f7 <func_38+0xbf4>
    83f0:	b8 01 00 00 00       	mov    $0x1,%eax
    83f5:	eb 05                	jmp    83fc <func_38+0xbf9>
    83f7:	b8 00 00 00 00       	mov    $0x0,%eax
    83fc:	0f be c0             	movsbl %al,%eax
    83ff:	89 d6                	mov    %edx,%esi
    8401:	89 c7                	mov    %eax,%edi
    8403:	e8 cc cd ff ff       	callq  51d4 <safe_add_func_int8_t_s_s>
    8408:	48 8b 05 61 9d 00 00 	mov    0x9d61(%rip),%rax        # 12170 <g_192>
    840f:	48 8d 14 c5 00 00 00 	lea    0x0(,%rax,8),%rdx
    8416:	00 
    8417:	48 8d 05 32 9d 00 00 	lea    0x9d32(%rip),%rax        # 12150 <g_137>
    841e:	48 8b 0c 02          	mov    (%rdx,%rax,1),%rcx
    8422:	0f b6 85 91 e9 ff ff 	movzbl -0x166f(%rbp),%eax
    8429:	0f b6 d0             	movzbl %al,%edx
    842c:	48 8b 05 3d 9d 00 00 	mov    0x9d3d(%rip),%rax        # 12170 <g_192>
    8433:	48 31 d1             	xor    %rdx,%rcx
    8436:	48 8d 14 c5 00 00 00 	lea    0x0(,%rax,8),%rdx
    843d:	00 
    843e:	48 8d 05 0b 9d 00 00 	lea    0x9d0b(%rip),%rax        # 12150 <g_137>
    8445:	48 89 0c 02          	mov    %rcx,(%rdx,%rax,1)
    8449:	48 8b 85 b8 eb ff ff 	mov    -0x1448(%rbp),%rax
    8450:	48 8b 00             	mov    (%rax),%rax
    8453:	c7 00 01 00 00 00    	movl   $0x1,(%rax)
    8459:	c6 05 e0 9d 00 00 01 	movb   $0x1,0x9de0(%rip)        # 12240 <g_428>
    8460:	90                   	nop
    8461:	0f b6 05 d8 9d 00 00 	movzbl 0x9dd8(%rip),%eax        # 12240 <g_428>
    8468:	3c 04                	cmp    $0x4,%al
    846a:	0f 8f 4c 02 00 00    	jg     86bc <func_38+0xeb9>
    8470:	c6 85 9b e9 ff ff 71 	movb   $0x71,-0x1665(%rbp)
    8477:	c7 85 3c ea ff ff 15 	movl   $0xd58dbb15,-0x15c4(%rbp)
    847e:	bb 8d d5 
    8481:	48 8b 85 40 ea ff ff 	mov    -0x15c0(%rbp),%rax
    8488:	0f b6 10             	movzbl (%rax),%edx
    848b:	48 8b 85 40 ea ff ff 	mov    -0x15c0(%rbp),%rax
    8492:	83 f2 03             	xor    $0x3,%edx
    8495:	88 10                	mov    %dl,(%rax)
    8497:	c6 85 9b e9 ff ff 98 	movb   $0x98,-0x1665(%rbp)
    849e:	b8 01 00 00 00       	mov    $0x1,%eax
    84a3:	41 89 c4             	mov    %eax,%r12d
    84a6:	8b 85 8c e9 ff ff    	mov    -0x1674(%rbp),%eax
    84ac:	0f be d8             	movsbl %al,%ebx
    84af:	8b 85 8c e9 ff ff    	mov    -0x1674(%rbp),%eax
    84b5:	48 63 d0             	movslq %eax,%rdx
    84b8:	48 8b 05 e1 b9 00 00 	mov    0xb9e1(%rip),%rax        # 13ea0 <g_47>
    84bf:	48 8b 00             	mov    (%rax),%rax
    84c2:	8b 00                	mov    (%rax),%eax
    84c4:	0d 12 73 ef c1       	or     $0xc1ef7312,%eax
    84c9:	89 c0                	mov    %eax,%eax
    84cb:	48 31 d0             	xor    %rdx,%rax
    84ce:	48 c7 c6 f6 ff ff ff 	mov    $0xfffffffffffffff6,%rsi
    84d5:	48 89 c7             	mov    %rax,%rdi
    84d8:	e8 51 db ff ff       	callq  602e <safe_add_func_uint64_t_u_u>
    84dd:	48 39 85 70 e9 ff ff 	cmp    %rax,-0x1690(%rbp)
    84e4:	0f 95 c0             	setne  %al
    84e7:	0f b6 c0             	movzbl %al,%eax
    84ea:	be 04 00 00 00       	mov    $0x4,%esi
    84ef:	89 c7                	mov    %eax,%edi
    84f1:	e8 84 d9 ff ff       	callq  5e7a <safe_rshift_func_uint16_t_u_u>
    84f6:	be 08 00 00 00       	mov    $0x8,%esi
    84fb:	bf 01 00 00 00       	mov    $0x1,%edi
    8500:	e8 55 d6 ff ff       	callq  5b5a <safe_add_func_uint8_t_u_u>
    8505:	0f be d0             	movsbl %al,%edx
    8508:	48 8b 05 61 9c 00 00 	mov    0x9c61(%rip),%rax        # 12170 <g_192>
    850f:	48 8d 0c c5 00 00 00 	lea    0x0(,%rax,8),%rcx
    8516:	00 
    8517:	48 8d 05 32 9c 00 00 	lea    0x9c32(%rip),%rax        # 12150 <g_137>
    851e:	48 8b 04 01          	mov    (%rcx,%rax,1),%rax
    8522:	0f be c0             	movsbl %al,%eax
    8525:	89 d6                	mov    %edx,%esi
    8527:	89 c7                	mov    %eax,%edi
    8529:	e8 03 cd ff ff       	callq  5231 <safe_mod_func_int8_t_s_s>
    852e:	0f be d0             	movsbl %al,%edx
    8531:	0f b6 85 a4 ed ff ff 	movzbl -0x125c(%rbp),%eax
    8538:	0f b6 c0             	movzbl %al,%eax
    853b:	39 c2                	cmp    %eax,%edx
    853d:	0f 94 c0             	sete   %al
    8540:	0f b6 c0             	movzbl %al,%eax
    8543:	89 de                	mov    %ebx,%esi
    8545:	89 c7                	mov    %eax,%edi
    8547:	e8 e5 cc ff ff       	callq  5231 <safe_mod_func_int8_t_s_s>
    854c:	66 98                	cbtw   
    854e:	44 09 e0             	or     %r12d,%eax
    8551:	89 c2                	mov    %eax,%edx
    8553:	48 8b 85 70 e9 ff ff 	mov    -0x1690(%rbp),%rax
    855a:	21 d0                	and    %edx,%eax
    855c:	0f bf d8             	movswl %ax,%ebx
    855f:	8b 85 8c e9 ff ff    	mov    -0x1674(%rbp),%eax
    8565:	0f b6 c0             	movzbl %al,%eax
    8568:	be 05 00 00 00       	mov    $0x5,%esi
    856d:	89 c7                	mov    %eax,%edi
    856f:	e8 91 d6 ff ff       	callq  5c05 <safe_lshift_func_uint8_t_u_s>
    8574:	0f b6 c0             	movzbl %al,%eax
    8577:	89 de                	mov    %ebx,%esi
    8579:	89 c7                	mov    %eax,%edi
    857b:	e8 53 ce ff ff       	callq  53d3 <safe_sub_func_int16_t_s_s>
    8580:	66 85 c0             	test   %ax,%ax
    8583:	75 0c                	jne    8591 <func_38+0xd8e>
    8585:	0f b7 05 40 c2 00 00 	movzwl 0xc240(%rip),%eax        # 147cc <g_126>
    858c:	66 85 c0             	test   %ax,%ax
    858f:	74 07                	je     8598 <func_38+0xd95>
    8591:	b8 01 00 00 00       	mov    $0x1,%eax
    8596:	eb 05                	jmp    859d <func_38+0xd9a>
    8598:	b8 00 00 00 00       	mov    $0x0,%eax
    859d:	48 98                	cltq   
    859f:	be 08 00 00 00       	mov    $0x8,%esi
    85a4:	48 89 c7             	mov    %rax,%rdi
    85a7:	e8 82 da ff ff       	callq  602e <safe_add_func_uint64_t_u_u>
    85ac:	48 8b 85 a0 ea ff ff 	mov    -0x1560(%rbp),%rax
    85b3:	48 8b 10             	mov    (%rax),%rdx
    85b6:	48 8b 85 a0 ea ff ff 	mov    -0x1560(%rbp),%rax
    85bd:	48 89 10             	mov    %rdx,(%rax)
    85c0:	48 8b 85 a0 ea ff ff 	mov    -0x1560(%rbp),%rax
    85c7:	48 8b 10             	mov    (%rax),%rdx
    85ca:	48 8b 05 a7 bc 00 00 	mov    0xbca7(%rip),%rax        # 14278 <g_634>
    85d1:	48 39 c2             	cmp    %rax,%rdx
    85d4:	74 0c                	je     85e2 <func_38+0xddf>
    85d6:	0f b7 85 a6 e9 ff ff 	movzwl -0x165a(%rbp),%eax
    85dd:	e9 1e 19 00 00       	jmpq   9f00 <func_38+0x26fd>
    85e2:	48 8d 05 5b 9b 00 00 	lea    0x9b5b(%rip),%rax        # 12144 <g_118>
    85e9:	48 89 85 c0 eb ff ff 	mov    %rax,-0x1440(%rbp)
    85f0:	48 8b 85 c0 eb ff ff 	mov    -0x1440(%rbp),%rax
    85f7:	c7 00 ff ff ff ff    	movl   $0xffffffff,(%rax)
    85fd:	be ff ff ff ff       	mov    $0xffffffff,%esi
    8602:	bf 01 00 00 00       	mov    $0x1,%edi
    8607:	e8 ac d8 ff ff       	callq  5eb8 <safe_add_func_uint32_t_u_u>
    860c:	85 c0                	test   %eax,%eax
    860e:	74 0c                	je     861c <func_38+0xe19>
    8610:	48 8b 85 70 e9 ff ff 	mov    -0x1690(%rbp),%rax
    8617:	e9 e4 18 00 00       	jmpq   9f00 <func_38+0x26fd>
    861c:	48 8d 85 b4 e9 ff ff 	lea    -0x164c(%rbp),%rax
    8623:	48 89 85 c8 eb ff ff 	mov    %rax,-0x1438(%rbp)
    862a:	48 c7 85 d0 eb ff ff 	movq   $0x0,-0x1430(%rbp)
    8631:	00 00 00 00 
    8635:	c7 85 c0 e9 ff ff 00 	movl   $0x0,-0x1640(%rbp)
    863c:	00 00 00 
    863f:	eb 1e                	jmp    865f <func_38+0xe5c>
    8641:	8b 85 c0 e9 ff ff    	mov    -0x1640(%rbp),%eax
    8647:	48 98                	cltq   
    8649:	48 8d 95 b4 e9 ff ff 	lea    -0x164c(%rbp),%rdx
    8650:	48 89 94 c5 30 f9 ff 	mov    %rdx,-0x6d0(%rbp,%rax,8)
    8657:	ff 
    8658:	83 85 c0 e9 ff ff 01 	addl   $0x1,-0x1640(%rbp)
    865f:	83 bd c0 e9 ff ff 03 	cmpl   $0x3,-0x1640(%rbp)
    8666:	7e d9                	jle    8641 <func_38+0xe3e>
    8668:	c7 85 ac e9 ff ff 3f 	movl   $0xd9665e3f,-0x1654(%rbp)
    866f:	5e 66 d9 
    8672:	8b 95 ac e9 ff ff    	mov    -0x1654(%rbp),%edx
    8678:	48 8b 85 c0 eb ff ff 	mov    -0x1440(%rbp),%rax
    867f:	8b 00                	mov    (%rax),%eax
    8681:	21 c2                	and    %eax,%edx
    8683:	48 8b 85 c0 eb ff ff 	mov    -0x1440(%rbp),%rax
    868a:	89 10                	mov    %edx,(%rax)
    868c:	48 8b 85 b8 eb ff ff 	mov    -0x1448(%rbp),%rax
    8693:	48 8b 00             	mov    (%rax),%rax
    8696:	8b 10                	mov    (%rax),%edx
    8698:	48 8b 85 b8 eb ff ff 	mov    -0x1448(%rbp),%rax
    869f:	48 8b 00             	mov    (%rax),%rax
    86a2:	83 ca 05             	or     $0x5,%edx
    86a5:	89 10                	mov    %edx,(%rax)
    86a7:	48 83 85 80 eb ff ff 	addq   $0x1,-0x1480(%rbp)
    86ae:	01 
    86af:	8b 85 8c e9 ff ff    	mov    -0x1674(%rbp),%eax
    86b5:	48 98                	cltq   
    86b7:	e9 44 18 00 00       	jmpq   9f00 <func_38+0x26fd>
    86bc:	48 8b 05 ad 9a 00 00 	mov    0x9aad(%rip),%rax        # 12170 <g_192>
    86c3:	48 83 c0 01          	add    $0x1,%rax
    86c7:	48 89 05 a2 9a 00 00 	mov    %rax,0x9aa2(%rip)        # 12170 <g_192>
    86ce:	48 8b 05 9b 9a 00 00 	mov    0x9a9b(%rip),%rax        # 12170 <g_192>
    86d5:	48 83 f8 01          	cmp    $0x1,%rax
    86d9:	0f 86 07 fb ff ff    	jbe    81e6 <func_38+0x9e3>
    86df:	48 8b 85 80 ea ff ff 	mov    -0x1580(%rbp),%rax
    86e6:	48 8d 95 8c e9 ff ff 	lea    -0x1674(%rbp),%rdx
    86ed:	48 89 10             	mov    %rdx,(%rax)
    86f0:	48 8b 10             	mov    (%rax),%rdx
    86f3:	48 8b 05 ae b7 00 00 	mov    0xb7ae(%rip),%rax        # 13ea8 <g_81>
    86fa:	48 39 c2             	cmp    %rax,%rdx
    86fd:	0f 95 c0             	setne  %al
    8700:	0f b6 d8             	movzbl %al,%ebx
    8703:	0f b7 05 6e 9a 00 00 	movzwl 0x9a6e(%rip),%eax        # 12178 <g_209>
    870a:	83 c8 f7             	or     $0xfffffff7,%eax
    870d:	66 89 05 64 9a 00 00 	mov    %ax,0x9a64(%rip)        # 12178 <g_209>
    8714:	0f b7 05 5d 9a 00 00 	movzwl 0x9a5d(%rip),%eax        # 12178 <g_209>
    871b:	98                   	cwtl   
    871c:	be 05 00 00 00       	mov    $0x5,%esi
    8721:	89 c7                	mov    %eax,%edi
    8723:	e8 3b ce ff ff       	callq  5563 <safe_rshift_func_int16_t_s_u>
    8728:	48 0f bf c0          	movswq %ax,%rax
    872c:	48 39 85 70 e9 ff ff 	cmp    %rax,-0x1690(%rbp)
    8733:	0f 94 c0             	sete   %al
    8736:	0f b6 c0             	movzbl %al,%eax
    8739:	39 c3                	cmp    %eax,%ebx
    873b:	0f 9c c0             	setl   %al
    873e:	0f b6 d8             	movzbl %al,%ebx
    8741:	48 8b 85 70 e9 ff ff 	mov    -0x1690(%rbp),%rax
    8748:	41 89 c4             	mov    %eax,%r12d
    874b:	48 8b 05 0e 9a 00 00 	mov    0x9a0e(%rip),%rax        # 12160 <g_166>
    8752:	48 8b 85 98 eb ff ff 	mov    -0x1468(%rbp),%rax
    8759:	66 c7 00 38 61       	movw   $0x6138,(%rax)
    875e:	be 0e 00 00 00       	mov    $0xe,%esi
    8763:	bf 38 61 00 00       	mov    $0x6138,%edi
    8768:	e8 f6 cd ff ff       	callq  5563 <safe_rshift_func_int16_t_s_u>
    876d:	66 85 c0             	test   %ax,%ax
    8770:	0f 94 c0             	sete   %al
    8773:	0f b6 c0             	movzbl %al,%eax
    8776:	44 89 e6             	mov    %r12d,%esi
    8779:	89 c7                	mov    %eax,%edi
    877b:	e8 e3 cd ff ff       	callq  5563 <safe_rshift_func_int16_t_s_u>
    8780:	89 de                	mov    %ebx,%esi
    8782:	bf 01 00 00 00       	mov    $0x1,%edi
    8787:	e8 b1 d5 ff ff       	callq  5d3d <safe_mul_func_uint16_t_u_u>
    878c:	48 8d 05 f5 b8 00 00 	lea    0xb8f5(%rip),%rax        # 14088 <g_594>
    8793:	48 39 85 88 eb ff ff 	cmp    %rax,-0x1478(%rbp)
    879a:	0f 95 c2             	setne  %dl
    879d:	48 8b 05 04 b7 00 00 	mov    0xb704(%rip),%rax        # 13ea8 <g_81>
    87a4:	0f b6 d2             	movzbl %dl,%edx
    87a7:	89 10                	mov    %edx,(%rax)
    87a9:	66 c7 05 8e 99 00 00 	movw   $0x0,0x998e(%rip)        # 12140 <g_116>
    87b0:	00 00 
    87b2:	e9 6e 02 00 00       	jmpq   8a25 <func_38+0x1222>
    87b7:	c7 85 f0 ee ff ff 88 	movl   $0xfb88f788,-0x1110(%rbp)
    87be:	f7 88 fb 
    87c1:	c6 85 f4 ee ff ff 45 	movb   $0x45,-0x110c(%rbp)
    87c8:	c7 85 f5 ee ff ff ff 	movl   $0xaf7ffff,-0x110b(%rbp)
    87cf:	ff f7 0a 
    87d2:	c6 85 f9 ee ff ff 45 	movb   $0x45,-0x1107(%rbp)
    87d9:	c7 85 fa ee ff ff a3 	movl   $0xa30000a3,-0x1106(%rbp)
    87e0:	00 00 a3 
    87e3:	c6 85 fe ee ff ff 88 	movb   $0x88,-0x1102(%rbp)
    87ea:	c7 85 ff ee ff ff 03 	movl   $0x45f7a303,-0x1101(%rbp)
    87f1:	a3 f7 45 
    87f4:	c6 85 03 ef ff ff ff 	movb   $0xff,-0x10fd(%rbp)
    87fb:	c7 85 04 ef ff ff 03 	movl   $0xf788f703,-0x10fc(%rbp)
    8802:	f7 88 f7 
    8805:	c6 85 08 ef ff ff 03 	movb   $0x3,-0x10f8(%rbp)
    880c:	c7 85 09 ef ff ff a3 	movl   $0x45ff0aa3,-0x10f7(%rbp)
    8813:	0a ff 45 
    8816:	c6 85 0d ef ff ff 00 	movb   $0x0,-0x10f3(%rbp)
    881d:	c7 85 0e ef ff ff ff 	movl   $0xa3a30aff,-0x10f2(%rbp)
    8824:	0a a3 a3 
    8827:	c6 85 12 ef ff ff 0a 	movb   $0xa,-0x10ee(%rbp)
    882e:	c7 85 13 ef ff ff 88 	movl   $0xa03f788,-0x10ed(%rbp)
    8835:	f7 03 0a 
    8838:	c6 85 17 ef ff ff 00 	movb   $0x0,-0x10e9(%rbp)
    883f:	c7 85 18 ef ff ff f7 	movl   $0xfb03a3f7,-0x10e8(%rbp)
    8846:	a3 03 fb 
    8849:	c6 85 1c ef ff ff 03 	movb   $0x3,-0x10e4(%rbp)
    8850:	c7 85 1d ef ff ff 00 	movl   $0x88a30000,-0x10e3(%rbp)
    8857:	00 a3 88 
    885a:	c6 85 21 ef ff ff ff 	movb   $0xff,-0x10df(%rbp)
    8861:	48 8d 85 a8 e9 ff ff 	lea    -0x1658(%rbp),%rax
    8868:	48 89 85 a8 eb ff ff 	mov    %rax,-0x1458(%rbp)
    886f:	c7 85 30 ea ff ff 01 	movl   $0x1,-0x15d0(%rbp)
    8876:	00 00 00 
    8879:	c7 85 34 ea ff ff 00 	movl   $0x0,-0x15cc(%rbp)
    8880:	00 00 00 
    8883:	c6 85 9a e9 ff ff 01 	movb   $0x1,-0x1666(%rbp)
    888a:	48 8d 85 80 ea ff ff 	lea    -0x1580(%rbp),%rax
    8891:	48 89 85 b0 eb ff ff 	mov    %rax,-0x1450(%rbp)
    8898:	48 c7 85 30 f9 ff ff 	movq   $0x0,-0x6d0(%rbp)
    889f:	00 00 00 00 
    88a3:	48 8d 05 1e a3 00 00 	lea    0xa31e(%rip),%rax        # 12bc8 <g_804>
    88aa:	48 89 85 38 f9 ff ff 	mov    %rax,-0x6c8(%rbp)
    88b1:	48 8d 05 10 a3 00 00 	lea    0xa310(%rip),%rax        # 12bc8 <g_804>
    88b8:	48 89 85 40 f9 ff ff 	mov    %rax,-0x6c0(%rbp)
    88bf:	48 8d 05 02 a3 00 00 	lea    0xa302(%rip),%rax        # 12bc8 <g_804>
    88c6:	48 89 85 48 f9 ff ff 	mov    %rax,-0x6b8(%rbp)
    88cd:	48 8d 05 f4 a2 00 00 	lea    0xa2f4(%rip),%rax        # 12bc8 <g_804>
    88d4:	48 89 85 50 f9 ff ff 	mov    %rax,-0x6b0(%rbp)
    88db:	48 8d 05 e6 a2 00 00 	lea    0xa2e6(%rip),%rax        # 12bc8 <g_804>
    88e2:	48 89 85 58 f9 ff ff 	mov    %rax,-0x6a8(%rbp)
    88e9:	48 8d 05 d8 a2 00 00 	lea    0xa2d8(%rip),%rax        # 12bc8 <g_804>
    88f0:	48 89 85 60 f9 ff ff 	mov    %rax,-0x6a0(%rbp)
    88f7:	48 8d 05 ca a2 00 00 	lea    0xa2ca(%rip),%rax        # 12bc8 <g_804>
    88fe:	48 89 85 68 f9 ff ff 	mov    %rax,-0x698(%rbp)
    8905:	48 c7 85 70 f9 ff ff 	movq   $0x0,-0x690(%rbp)
    890c:	00 00 00 00 
    8910:	48 c7 85 78 f9 ff ff 	movq   $0x0,-0x688(%rbp)
    8917:	00 00 00 00 
    891b:	48 8d 05 a6 a2 00 00 	lea    0xa2a6(%rip),%rax        # 12bc8 <g_804>
    8922:	48 89 85 80 f9 ff ff 	mov    %rax,-0x680(%rbp)
    8929:	48 8d 05 98 a2 00 00 	lea    0xa298(%rip),%rax        # 12bc8 <g_804>
    8930:	48 89 85 88 f9 ff ff 	mov    %rax,-0x678(%rbp)
    8937:	48 8d 05 8a a2 00 00 	lea    0xa28a(%rip),%rax        # 12bc8 <g_804>
    893e:	48 89 85 90 f9 ff ff 	mov    %rax,-0x670(%rbp)
    8945:	48 8d 05 7c a2 00 00 	lea    0xa27c(%rip),%rax        # 12bc8 <g_804>
    894c:	48 89 85 98 f9 ff ff 	mov    %rax,-0x668(%rbp)
    8953:	48 8d 05 6e a2 00 00 	lea    0xa26e(%rip),%rax        # 12bc8 <g_804>
    895a:	48 89 85 a0 f9 ff ff 	mov    %rax,-0x660(%rbp)
    8961:	48 8d 05 60 a2 00 00 	lea    0xa260(%rip),%rax        # 12bc8 <g_804>
    8968:	48 89 85 a8 f9 ff ff 	mov    %rax,-0x658(%rbp)
    896f:	48 8d 05 52 a2 00 00 	lea    0xa252(%rip),%rax        # 12bc8 <g_804>
    8976:	48 89 85 b0 f9 ff ff 	mov    %rax,-0x650(%rbp)
    897d:	48 8d 05 44 a2 00 00 	lea    0xa244(%rip),%rax        # 12bc8 <g_804>
    8984:	48 89 85 b8 f9 ff ff 	mov    %rax,-0x648(%rbp)
    898b:	48 8d 05 36 a2 00 00 	lea    0xa236(%rip),%rax        # 12bc8 <g_804>
    8992:	48 89 85 c0 f9 ff ff 	mov    %rax,-0x640(%rbp)
    8999:	48 8d 05 28 a2 00 00 	lea    0xa228(%rip),%rax        # 12bc8 <g_804>
    89a0:	48 89 85 c8 f9 ff ff 	mov    %rax,-0x638(%rbp)
    89a7:	48 c7 85 90 ea ff ff 	movq   $0x0,-0x1570(%rbp)
    89ae:	00 00 00 00 
    89b2:	c7 85 c4 e9 ff ff 00 	movl   $0x0,-0x163c(%rbp)
    89b9:	00 00 00 
    89bc:	eb 1a                	jmp    89d8 <func_38+0x11d5>
    89be:	8b 85 c4 e9 ff ff    	mov    -0x163c(%rbp),%eax
    89c4:	48 98                	cltq   
    89c6:	c7 84 85 10 ed ff ff 	movl   $0x8,-0x12f0(%rbp,%rax,4)
    89cd:	08 00 00 00 
    89d1:	83 85 c4 e9 ff ff 01 	addl   $0x1,-0x163c(%rbp)
    89d8:	83 bd c4 e9 ff ff 05 	cmpl   $0x5,-0x163c(%rbp)
    89df:	7e dd                	jle    89be <func_38+0x11bb>
    89e1:	c7 85 c4 e9 ff ff 00 	movl   $0x0,-0x163c(%rbp)
    89e8:	00 00 00 
    89eb:	eb 1e                	jmp    8a0b <func_38+0x1208>
    89ed:	8b 85 c4 e9 ff ff    	mov    -0x163c(%rbp),%eax
    89f3:	48 98                	cltq   
    89f5:	48 8d 95 90 ea ff ff 	lea    -0x1570(%rbp),%rdx
    89fc:	48 89 94 c5 50 ed ff 	mov    %rdx,-0x12b0(%rbp,%rax,8)
    8a03:	ff 
    8a04:	83 85 c4 e9 ff ff 01 	addl   $0x1,-0x163c(%rbp)
    8a0b:	83 bd c4 e9 ff ff 03 	cmpl   $0x3,-0x163c(%rbp)
    8a12:	7e d9                	jle    89ed <func_38+0x11ea>
    8a14:	0f b7 05 25 97 00 00 	movzwl 0x9725(%rip),%eax        # 12140 <g_116>
    8a1b:	83 c0 01             	add    $0x1,%eax
    8a1e:	66 89 05 1b 97 00 00 	mov    %ax,0x971b(%rip)        # 12140 <g_116>
    8a25:	0f b7 05 14 97 00 00 	movzwl 0x9714(%rip),%eax        # 12140 <g_116>
    8a2c:	66 85 c0             	test   %ax,%ax
    8a2f:	0f 8e 82 fd ff ff    	jle    87b7 <func_38+0xfb4>
    8a35:	e9 bf 14 00 00       	jmpq   9ef9 <func_38+0x26f6>
    8a3a:	c6 85 92 e9 ff ff 0e 	movb   $0xe,-0x166e(%rbp)
    8a41:	48 c7 85 70 ea ff ff 	movq   $0x0,-0x1590(%rbp)
    8a48:	00 00 00 00 
    8a4c:	48 c7 85 d8 ea ff ff 	movq   $0x0,-0x1528(%rbp)
    8a53:	00 00 00 00 
    8a57:	c7 85 dc e9 ff ff 85 	movl   $0x8e7e5885,-0x1624(%rbp)
    8a5e:	58 7e 8e 
    8a61:	c7 85 e0 e9 ff ff 09 	movl   $0x9,-0x1620(%rbp)
    8a68:	00 00 00 
    8a6b:	c7 85 e4 e9 ff ff 00 	movl   $0x0,-0x161c(%rbp)
    8a72:	00 00 00 
    8a75:	c7 85 e8 e9 ff ff f1 	movl   $0x558de8f1,-0x1618(%rbp)
    8a7c:	e8 8d 55 
    8a7f:	c7 85 b4 e9 ff ff ff 	movl   $0xffffffff,-0x164c(%rbp)
    8a86:	ff ff ff 
    8a89:	48 8d 85 70 f1 ff ff 	lea    -0xe90(%rbp),%rax
    8a90:	48 8d 15 e9 60 00 00 	lea    0x60e9(%rip),%rdx        # eb80 <g_1338+0xb20>
    8a97:	b9 79 00 00 00       	mov    $0x79,%ecx
    8a9c:	48 89 c7             	mov    %rax,%rdi
    8a9f:	48 89 d6             	mov    %rdx,%rsi
    8aa2:	f3 48 a5             	rep movsq %ds:(%rsi),%es:(%rdi)
    8aa5:	48 89 f2             	mov    %rsi,%rdx
    8aa8:	48 89 f8             	mov    %rdi,%rax
    8aab:	8b 0a                	mov    (%rdx),%ecx
    8aad:	89 08                	mov    %ecx,(%rax)
    8aaf:	48 8d 40 04          	lea    0x4(%rax),%rax
    8ab3:	48 8d 52 04          	lea    0x4(%rdx),%rdx
    8ab7:	c6 85 93 e9 ff ff f7 	movb   $0xf7,-0x166d(%rbp)
    8abe:	66 c7 85 9e e9 ff ff 	movw   $0x6,-0x1662(%rbp)
    8ac5:	06 00 
    8ac7:	c7 85 ec e9 ff ff 01 	movl   $0x1,-0x1614(%rbp)
    8ace:	00 00 00 
    8ad1:	66 c7 85 90 ec ff ff 	movw   $0xfffd,-0x1370(%rbp)
    8ad8:	fd ff 
    8ada:	66 c7 85 92 ec ff ff 	movw   $0x1159,-0x136e(%rbp)
    8ae1:	59 11 
    8ae3:	66 c7 85 94 ec ff ff 	movw   $0xfffd,-0x136c(%rbp)
    8aea:	fd ff 
    8aec:	66 c7 85 96 ec ff ff 	movw   $0xfffd,-0x136a(%rbp)
    8af3:	fd ff 
    8af5:	66 c7 85 98 ec ff ff 	movw   $0xbd10,-0x1368(%rbp)
    8afc:	10 bd 
    8afe:	66 c7 85 9a ec ff ff 	movw   $0xfffd,-0x1366(%rbp)
    8b05:	fd ff 
    8b07:	66 c7 85 9c ec ff ff 	movw   $0xfffd,-0x1364(%rbp)
    8b0e:	fd ff 
    8b10:	66 c7 85 9e ec ff ff 	movw   $0x2c26,-0x1362(%rbp)
    8b17:	26 2c 
    8b19:	66 c7 85 a0 ec ff ff 	movw   $0x2c26,-0x1360(%rbp)
    8b20:	26 2c 
    8b22:	66 c7 85 a2 ec ff ff 	movw   $0xffff,-0x135e(%rbp)
    8b29:	ff ff 
    8b2b:	66 c7 85 a4 ec ff ff 	movw   $0x2c26,-0x135c(%rbp)
    8b32:	26 2c 
    8b34:	66 c7 85 a6 ec ff ff 	movw   $0x2c26,-0x135a(%rbp)
    8b3b:	26 2c 
    8b3d:	66 c7 85 a8 ec ff ff 	movw   $0xffff,-0x1358(%rbp)
    8b44:	ff ff 
    8b46:	66 c7 85 aa ec ff ff 	movw   $0x2c26,-0x1356(%rbp)
    8b4d:	26 2c 
    8b4f:	66 c7 85 ac ec ff ff 	movw   $0xbd10,-0x1354(%rbp)
    8b56:	10 bd 
    8b58:	66 c7 85 ae ec ff ff 	movw   $0xffff,-0x1352(%rbp)
    8b5f:	ff ff 
    8b61:	66 c7 85 b0 ec ff ff 	movw   $0x5605,-0x1350(%rbp)
    8b68:	05 56 
    8b6a:	66 c7 85 b2 ec ff ff 	movw   $0xfffd,-0x134e(%rbp)
    8b71:	fd ff 
    8b73:	66 c7 85 b4 ec ff ff 	movw   $0x5605,-0x134c(%rbp)
    8b7a:	05 56 
    8b7c:	66 c7 85 b6 ec ff ff 	movw   $0xffff,-0x134a(%rbp)
    8b83:	ff ff 
    8b85:	66 c7 85 b8 ec ff ff 	movw   $0xfffd,-0x1348(%rbp)
    8b8c:	fd ff 
    8b8e:	66 c7 85 ba ec ff ff 	movw   $0xffff,-0x1346(%rbp)
    8b95:	ff ff 
    8b97:	66 c7 85 bc ec ff ff 	movw   $0x7,-0x1344(%rbp)
    8b9e:	07 00 
    8ba0:	66 c7 85 be ec ff ff 	movw   $0xffff,-0x1342(%rbp)
    8ba7:	ff ff 
    8ba9:	66 c7 85 c0 ec ff ff 	movw   $0xffff,-0x1340(%rbp)
    8bb0:	ff ff 
    8bb2:	66 c7 85 c2 ec ff ff 	movw   $0x7,-0x133e(%rbp)
    8bb9:	07 00 
    8bbb:	66 c7 85 c4 ec ff ff 	movw   $0xffff,-0x133c(%rbp)
    8bc2:	ff ff 
    8bc4:	66 c7 85 c6 ec ff ff 	movw   $0xffff,-0x133a(%rbp)
    8bcb:	ff ff 
    8bcd:	48 8d 05 94 98 00 00 	lea    0x9894(%rip),%rax        # 12468 <g_697>
    8bd4:	48 89 85 90 ed ff ff 	mov    %rax,-0x1270(%rbp)
    8bdb:	48 8d 05 86 98 00 00 	lea    0x9886(%rip),%rax        # 12468 <g_697>
    8be2:	48 89 85 98 ed ff ff 	mov    %rax,-0x1268(%rbp)
    8be9:	48 8d 05 78 98 00 00 	lea    0x9878(%rip),%rax        # 12468 <g_697>
    8bf0:	48 89 85 a0 ed ff ff 	mov    %rax,-0x1260(%rbp)
    8bf7:	48 8d 05 6a 98 00 00 	lea    0x986a(%rip),%rax        # 12468 <g_697>
    8bfe:	48 89 85 a8 ed ff ff 	mov    %rax,-0x1258(%rbp)
    8c05:	48 8d 05 5c 98 00 00 	lea    0x985c(%rip),%rax        # 12468 <g_697>
    8c0c:	48 89 85 b0 ed ff ff 	mov    %rax,-0x1250(%rbp)
    8c13:	48 8d 05 4e 98 00 00 	lea    0x984e(%rip),%rax        # 12468 <g_697>
    8c1a:	48 89 85 b8 ed ff ff 	mov    %rax,-0x1248(%rbp)
    8c21:	48 8d 05 40 98 00 00 	lea    0x9840(%rip),%rax        # 12468 <g_697>
    8c28:	48 89 85 c0 ed ff ff 	mov    %rax,-0x1240(%rbp)
    8c2f:	48 8d 05 32 98 00 00 	lea    0x9832(%rip),%rax        # 12468 <g_697>
    8c36:	48 89 85 c8 ed ff ff 	mov    %rax,-0x1238(%rbp)
    8c3d:	48 8d 05 24 98 00 00 	lea    0x9824(%rip),%rax        # 12468 <g_697>
    8c44:	48 89 85 d0 ed ff ff 	mov    %rax,-0x1230(%rbp)
    8c4b:	48 8d 85 90 ed ff ff 	lea    -0x1270(%rbp),%rax
    8c52:	48 83 c0 10          	add    $0x10,%rax
    8c56:	48 89 85 e0 ea ff ff 	mov    %rax,-0x1520(%rbp)
    8c5d:	48 8d 05 e4 93 00 00 	lea    0x93e4(%rip),%rax        # 12048 <g_19+0x8>
    8c64:	48 89 85 78 ea ff ff 	mov    %rax,-0x1588(%rbp)
    8c6b:	c7 85 f0 e9 ff ff ff 	movl   $0xffffffff,-0x1610(%rbp)
    8c72:	ff ff ff 
    8c75:	48 8d 05 7c bb 00 00 	lea    0xbb7c(%rip),%rax        # 147f8 <g_726>
    8c7c:	48 89 85 d0 ec ff ff 	mov    %rax,-0x1330(%rbp)
    8c83:	48 8d 05 6e bb 00 00 	lea    0xbb6e(%rip),%rax        # 147f8 <g_726>
    8c8a:	48 89 85 d8 ec ff ff 	mov    %rax,-0x1328(%rbp)
    8c91:	48 8d 05 60 bb 00 00 	lea    0xbb60(%rip),%rax        # 147f8 <g_726>
    8c98:	48 89 85 e0 ec ff ff 	mov    %rax,-0x1320(%rbp)
    8c9f:	48 8d 05 52 bb 00 00 	lea    0xbb52(%rip),%rax        # 147f8 <g_726>
    8ca6:	48 89 85 e8 ec ff ff 	mov    %rax,-0x1318(%rbp)
    8cad:	48 8d 05 44 bb 00 00 	lea    0xbb44(%rip),%rax        # 147f8 <g_726>
    8cb4:	48 89 85 f0 ec ff ff 	mov    %rax,-0x1310(%rbp)
    8cbb:	48 8d 05 36 bb 00 00 	lea    0xbb36(%rip),%rax        # 147f8 <g_726>
    8cc2:	48 89 85 f8 ec ff ff 	mov    %rax,-0x1308(%rbp)
    8cc9:	48 8d 05 28 bb 00 00 	lea    0xbb28(%rip),%rax        # 147f8 <g_726>
    8cd0:	48 89 85 00 ed ff ff 	mov    %rax,-0x1300(%rbp)
    8cd7:	48 8d 85 68 ea ff ff 	lea    -0x1598(%rbp),%rax
    8cde:	48 89 85 e8 ea ff ff 	mov    %rax,-0x1518(%rbp)
    8ce5:	48 8d 85 68 ea ff ff 	lea    -0x1598(%rbp),%rax
    8cec:	48 89 85 80 ea ff ff 	mov    %rax,-0x1580(%rbp)
    8cf3:	48 8d 85 80 ea ff ff 	lea    -0x1580(%rbp),%rax
    8cfa:	48 89 85 88 ea ff ff 	mov    %rax,-0x1578(%rbp)
    8d01:	48 8d 85 88 ea ff ff 	lea    -0x1578(%rbp),%rax
    8d08:	48 89 85 f0 ea ff ff 	mov    %rax,-0x1510(%rbp)
    8d0f:	c7 85 c8 e9 ff ff 00 	movl   $0x0,-0x1638(%rbp)
    8d16:	00 00 00 
    8d19:	eb 1e                	jmp    8d39 <func_38+0x1536>
    8d1b:	8b 85 c8 e9 ff ff    	mov    -0x1638(%rbp),%eax
    8d21:	48 98                	cltq   
    8d23:	48 8d 15 56 b3 00 00 	lea    0xb356(%rip),%rdx        # 14080 <g_500>
    8d2a:	48 89 94 c5 f0 eb ff 	mov    %rdx,-0x1410(%rbp,%rax,8)
    8d31:	ff 
    8d32:	83 85 c8 e9 ff ff 01 	addl   $0x1,-0x1638(%rbp)
    8d39:	83 bd c8 e9 ff ff 01 	cmpl   $0x1,-0x1638(%rbp)
    8d40:	7e d9                	jle    8d1b <func_38+0x1518>
    8d42:	80 bd 92 e9 ff ff 06 	cmpb   $0x6,-0x166e(%rbp)
    8d49:	0f be 9d 92 e9 ff ff 	movsbl -0x166e(%rbp),%ebx
    8d50:	48 8d 05 b1 b1 00 00 	lea    0xb1b1(%rip),%rax        # 13f08 <g_215+0x28>
    8d57:	48 89 85 d8 ea ff ff 	mov    %rax,-0x1528(%rbp)
    8d5e:	48 8b 85 70 ea ff ff 	mov    -0x1590(%rbp),%rax
    8d65:	48 39 85 c0 ea ff ff 	cmp    %rax,-0x1540(%rbp)
    8d6c:	0f 94 c0             	sete   %al
    8d6f:	0f b6 c0             	movzbl %al,%eax
    8d72:	09 85 dc e9 ff ff    	or     %eax,-0x1624(%rbp)
    8d78:	8b 85 dc e9 ff ff    	mov    -0x1624(%rbp),%eax
    8d7e:	0f be c0             	movsbl %al,%eax
    8d81:	be c5 ff ff ff       	mov    $0xffffffc5,%esi
    8d86:	89 c7                	mov    %eax,%edi
    8d88:	e8 47 c4 ff ff       	callq  51d4 <safe_add_func_int8_t_s_s>
    8d8d:	0f be d0             	movsbl %al,%edx
    8d90:	8b 85 a8 e9 ff ff    	mov    -0x1658(%rbp),%eax
    8d96:	39 c2                	cmp    %eax,%edx
    8d98:	0f 9f c0             	setg   %al
    8d9b:	0f b6 c0             	movzbl %al,%eax
    8d9e:	39 c3                	cmp    %eax,%ebx
    8da0:	0f 9f c0             	setg   %al
    8da3:	0f b6 d0             	movzbl %al,%edx
    8da6:	8b 85 8c e9 ff ff    	mov    -0x1674(%rbp),%eax
    8dac:	39 c2                	cmp    %eax,%edx
    8dae:	be 00 00 00 00       	mov    $0x0,%esi
    8db3:	bf 00 00 00 00       	mov    $0x0,%edi
    8db8:	e8 9d cd ff ff       	callq  5b5a <safe_add_func_uint8_t_u_u>
    8dbd:	0f b6 c0             	movzbl %al,%eax
    8dc0:	89 85 e0 e9 ff ff    	mov    %eax,-0x1620(%rbp)
    8dc6:	8b 85 e0 e9 ff ff    	mov    -0x1620(%rbp),%eax
    8dcc:	0f b7 c0             	movzwl %ax,%eax
    8dcf:	be 06 00 00 00       	mov    $0x6,%esi
    8dd4:	89 c7                	mov    %eax,%edi
    8dd6:	e8 b3 cf ff ff       	callq  5d8e <safe_div_func_uint16_t_u_u>
    8ddb:	89 c2                	mov    %eax,%edx
    8ddd:	48 8b 05 c4 b0 00 00 	mov    0xb0c4(%rip),%rax        # 13ea8 <g_81>
    8de4:	0f b7 d2             	movzwl %dx,%edx
    8de7:	89 10                	mov    %edx,(%rax)
    8de9:	66 c7 05 4e 93 00 00 	movw   $0x1,0x934e(%rip)        # 12140 <g_116>
    8df0:	01 00 
    8df2:	e9 83 00 00 00       	jmpq   8e7a <func_38+0x1677>
    8df7:	66 c7 85 a4 e9 ff ff 	movw   $0x78fe,-0x165c(%rbp)
    8dfe:	fe 78 
    8e00:	c7 85 20 ea ff ff 7a 	movl   $0x99d4417a,-0x15e0(%rbp)
    8e07:	41 d4 99 
    8e0a:	c7 85 24 ea ff ff 00 	movl   $0x0,-0x15dc(%rbp)
    8e11:	00 00 00 
    8e14:	c7 85 28 ea ff ff f9 	movl   $0xfffffff9,-0x15d8(%rbp)
    8e1b:	ff ff ff 
    8e1e:	48 c7 85 30 f9 ff ff 	movq   $0x0,-0x6d0(%rbp)
    8e25:	00 00 00 00 
    8e29:	48 c7 85 38 f9 ff ff 	movq   $0x0,-0x6c8(%rbp)
    8e30:	00 00 00 00 
    8e34:	48 c7 85 40 f9 ff ff 	movq   $0x0,-0x6c0(%rbp)
    8e3b:	00 00 00 00 
    8e3f:	48 c7 85 48 f9 ff ff 	movq   $0x0,-0x6b8(%rbp)
    8e46:	00 00 00 00 
    8e4a:	c6 85 98 e9 ff ff a2 	movb   $0xa2,-0x1668(%rbp)
    8e51:	48 8d 85 58 ea ff ff 	lea    -0x15a8(%rbp),%rax
    8e58:	48 89 85 78 eb ff ff 	mov    %rax,-0x1488(%rbp)
    8e5f:	c7 85 2c ea ff ff f3 	movl   $0xea1b46f3,-0x15d4(%rbp)
    8e66:	46 1b ea 
    8e69:	0f b7 05 d0 92 00 00 	movzwl 0x92d0(%rip),%eax        # 12140 <g_116>
    8e70:	83 e8 01             	sub    $0x1,%eax
    8e73:	66 89 05 c6 92 00 00 	mov    %ax,0x92c6(%rip)        # 12140 <g_116>
    8e7a:	0f b7 05 bf 92 00 00 	movzwl 0x92bf(%rip),%eax        # 12140 <g_116>
    8e81:	66 85 c0             	test   %ax,%ax
    8e84:	0f 89 6d ff ff ff    	jns    8df7 <func_38+0x15f4>
    8e8a:	48 8b 05 1f b4 00 00 	mov    0xb41f(%rip),%rax        # 142b0 <g_878>
    8e91:	48 8b 95 80 e9 ff ff 	mov    -0x1680(%rbp),%rdx
    8e98:	48 89 10             	mov    %rdx,(%rax)
    8e9b:	48 c7 85 70 e9 ff ff 	movq   $0x0,-0x1690(%rbp)
    8ea2:	00 00 00 00 
    8ea6:	e9 40 10 00 00       	jmpq   9eeb <func_38+0x26e8>
    8eab:	c6 85 94 e9 ff ff 3d 	movb   $0x3d,-0x166c(%rbp)
    8eb2:	c7 85 cc e9 ff ff 01 	movl   $0x1,-0x1634(%rbp)
    8eb9:	00 00 00 
    8ebc:	c6 85 95 e9 ff ff 37 	movb   $0x37,-0x166b(%rbp)
    8ec3:	48 8d 85 40 ea ff ff 	lea    -0x15c0(%rbp),%rax
    8eca:	48 89 85 f8 ea ff ff 	mov    %rax,-0x1508(%rbp)
    8ed1:	c7 85 f4 e9 ff ff 01 	movl   $0x1,-0x160c(%rbp)
    8ed8:	00 00 00 
    8edb:	48 8d 85 68 ea ff ff 	lea    -0x1598(%rbp),%rax
    8ee2:	48 89 85 00 eb ff ff 	mov    %rax,-0x1500(%rbp)
    8ee9:	66 c7 85 a2 e9 ff ff 	movw   $0xfff7,-0x165e(%rbp)
    8ef0:	f7 ff 
    8ef2:	48 c7 85 08 eb ff ff 	movq   $0x0,-0x14f8(%rbp)
    8ef9:	00 00 00 00 
    8efd:	48 8d 05 04 b0 00 00 	lea    0xb004(%rip),%rax        # 13f08 <g_215+0x28>
    8f04:	48 89 85 60 ec ff ff 	mov    %rax,-0x13a0(%rbp)
    8f0b:	48 8d 05 f6 af 00 00 	lea    0xaff6(%rip),%rax        # 13f08 <g_215+0x28>
    8f12:	48 89 85 68 ec ff ff 	mov    %rax,-0x1398(%rbp)
    8f19:	48 8d 05 e8 af 00 00 	lea    0xafe8(%rip),%rax        # 13f08 <g_215+0x28>
    8f20:	48 89 85 70 ec ff ff 	mov    %rax,-0x1390(%rbp)
    8f27:	48 8d 05 da af 00 00 	lea    0xafda(%rip),%rax        # 13f08 <g_215+0x28>
    8f2e:	48 89 85 78 ec ff ff 	mov    %rax,-0x1388(%rbp)
    8f35:	48 8d 05 cc af 00 00 	lea    0xafcc(%rip),%rax        # 13f08 <g_215+0x28>
    8f3c:	48 89 85 80 ec ff ff 	mov    %rax,-0x1380(%rbp)
    8f43:	48 8d 85 d0 ec ff ff 	lea    -0x1330(%rbp),%rax
    8f4a:	48 83 c0 08          	add    $0x8,%rax
    8f4e:	48 89 85 90 ea ff ff 	mov    %rax,-0x1570(%rbp)
    8f55:	48 8d 85 90 ea ff ff 	lea    -0x1570(%rbp),%rax
    8f5c:	48 89 85 10 eb ff ff 	mov    %rax,-0x14f0(%rbp)
    8f63:	48 8d 85 b0 e9 ff ff 	lea    -0x1650(%rbp),%rax
    8f6a:	48 89 85 18 eb ff ff 	mov    %rax,-0x14e8(%rbp)
    8f71:	48 8d 85 ac e9 ff ff 	lea    -0x1654(%rbp),%rax
    8f78:	48 89 85 20 eb ff ff 	mov    %rax,-0x14e0(%rbp)
    8f7f:	c7 85 d0 e9 ff ff 00 	movl   $0x0,-0x1630(%rbp)
    8f86:	00 00 00 
    8f89:	eb 1a                	jmp    8fa5 <func_38+0x17a2>
    8f8b:	8b 85 d0 e9 ff ff    	mov    -0x1630(%rbp),%eax
    8f91:	48 98                	cltq   
    8f93:	c7 84 85 dc eb ff ff 	movl   $0x0,-0x1424(%rbp,%rax,4)
    8f9a:	00 00 00 00 
    8f9e:	83 85 d0 e9 ff ff 01 	addl   $0x1,-0x1630(%rbp)
    8fa5:	83 bd d0 e9 ff ff 00 	cmpl   $0x0,-0x1630(%rbp)
    8fac:	7e dd                	jle    8f8b <func_38+0x1788>
    8fae:	48 8b 05 f3 ae 00 00 	mov    0xaef3(%rip),%rax        # 13ea8 <g_81>
    8fb5:	8b 10                	mov    (%rax),%edx
    8fb7:	48 8b 05 ea ae 00 00 	mov    0xaeea(%rip),%rax        # 13ea8 <g_81>
    8fbe:	f7 d2                	not    %edx
    8fc0:	89 10                	mov    %edx,(%rax)
    8fc2:	48 c7 05 a3 91 00 00 	movq   $0x2,0x91a3(%rip)        # 12170 <g_192>
    8fc9:	02 00 00 00 
    8fcd:	e9 25 0e 00 00       	jmpq   9df7 <func_38+0x25f4>
    8fd2:	c6 85 96 e9 ff ff 40 	movb   $0x40,-0x166a(%rbp)
    8fd9:	48 8d 85 30 f9 ff ff 	lea    -0x6d0(%rbp),%rax
    8fe0:	48 8d 15 39 a6 00 00 	lea    0xa639(%rip),%rdx        # 13620 <g_1398+0x9b8>
    8fe7:	b9 d2 00 00 00       	mov    $0xd2,%ecx
    8fec:	48 89 c7             	mov    %rax,%rdi
    8fef:	48 89 d6             	mov    %rdx,%rsi
    8ff2:	f3 48 a5             	rep movsq %ds:(%rsi),%es:(%rdi)
    8ff5:	66 c7 85 10 ed ff ff 	movw   $0xe01c,-0x12f0(%rbp)
    8ffc:	1c e0 
    8ffe:	66 c7 85 12 ed ff ff 	movw   $0xfff8,-0x12ee(%rbp)
    9005:	f8 ff 
    9007:	66 c7 85 14 ed ff ff 	movw   $0x0,-0x12ec(%rbp)
    900e:	00 00 
    9010:	66 c7 85 16 ed ff ff 	movw   $0xfff8,-0x12ea(%rbp)
    9017:	f8 ff 
    9019:	66 c7 85 18 ed ff ff 	movw   $0xfff8,-0x12e8(%rbp)
    9020:	f8 ff 
    9022:	66 c7 85 1a ed ff ff 	movw   $0xffff,-0x12e6(%rbp)
    9029:	ff ff 
    902b:	66 c7 85 1c ed ff ff 	movw   $0x0,-0x12e4(%rbp)
    9032:	00 00 
    9034:	66 c7 85 1e ed ff ff 	movw   $0x0,-0x12e2(%rbp)
    903b:	00 00 
    903d:	66 c7 85 20 ed ff ff 	movw   $0xe01c,-0x12e0(%rbp)
    9044:	1c e0 
    9046:	66 c7 85 22 ed ff ff 	movw   $0xe01c,-0x12de(%rbp)
    904d:	1c e0 
    904f:	66 c7 85 24 ed ff ff 	movw   $0xfff8,-0x12dc(%rbp)
    9056:	f8 ff 
    9058:	66 c7 85 26 ed ff ff 	movw   $0x0,-0x12da(%rbp)
    905f:	00 00 
    9061:	66 c7 85 28 ed ff ff 	movw   $0xba86,-0x12d8(%rbp)
    9068:	86 ba 
    906a:	66 c7 85 2a ed ff ff 	movw   $0xffff,-0x12d6(%rbp)
    9071:	ff ff 
    9073:	66 c7 85 2c ed ff ff 	movw   $0xba86,-0x12d4(%rbp)
    907a:	86 ba 
    907c:	66 c7 85 2e ed ff ff 	movw   $0xfff8,-0x12d2(%rbp)
    9083:	f8 ff 
    9085:	66 c7 85 30 ed ff ff 	movw   $0xba86,-0x12d0(%rbp)
    908c:	86 ba 
    908e:	66 c7 85 32 ed ff ff 	movw   $0xfff8,-0x12ce(%rbp)
    9095:	f8 ff 
    9097:	66 c7 85 34 ed ff ff 	movw   $0xfff8,-0x12cc(%rbp)
    909e:	f8 ff 
    90a0:	66 c7 85 36 ed ff ff 	movw   $0xba86,-0x12ca(%rbp)
    90a7:	86 ba 
    90a9:	66 c7 85 38 ed ff ff 	movw   $0xe01c,-0x12c8(%rbp)
    90b0:	1c e0 
    90b2:	66 c7 85 3a ed ff ff 	movw   $0xfff8,-0x12c6(%rbp)
    90b9:	f8 ff 
    90bb:	66 c7 85 3c ed ff ff 	movw   $0x0,-0x12c4(%rbp)
    90c2:	00 00 
    90c4:	66 c7 85 3e ed ff ff 	movw   $0xfff8,-0x12c2(%rbp)
    90cb:	f8 ff 
    90cd:	66 c7 85 40 ed ff ff 	movw   $0xfff8,-0x12c0(%rbp)
    90d4:	f8 ff 
    90d6:	66 c7 85 42 ed ff ff 	movw   $0xffff,-0x12be(%rbp)
    90dd:	ff ff 
    90df:	66 c7 85 44 ed ff ff 	movw   $0x0,-0x12bc(%rbp)
    90e6:	00 00 
    90e8:	66 c7 85 46 ed ff ff 	movw   $0x0,-0x12ba(%rbp)
    90ef:	00 00 
    90f1:	66 c7 85 48 ed ff ff 	movw   $0xe01c,-0x12b8(%rbp)
    90f8:	1c e0 
    90fa:	66 c7 85 4a ed ff ff 	movw   $0xe01c,-0x12b6(%rbp)
    9101:	1c e0 
    9103:	66 c7 85 4c ed ff ff 	movw   $0xfff8,-0x12b4(%rbp)
    910a:	f8 ff 
    910c:	66 c7 85 4e ed ff ff 	movw   $0x0,-0x12b2(%rbp)
    9113:	00 00 
    9115:	c7 85 20 ec ff ff 01 	movl   $0x1,-0x13e0(%rbp)
    911c:	00 00 00 
    911f:	c7 85 24 ec ff ff 01 	movl   $0x1,-0x13dc(%rbp)
    9126:	00 00 00 
    9129:	c7 85 28 ec ff ff ff 	movl   $0xffffffff,-0x13d8(%rbp)
    9130:	ff ff ff 
    9133:	c7 85 2c ec ff ff 01 	movl   $0x1,-0x13d4(%rbp)
    913a:	00 00 00 
    913d:	c7 85 30 ec ff ff 01 	movl   $0x1,-0x13d0(%rbp)
    9144:	00 00 00 
    9147:	c7 85 34 ec ff ff ff 	movl   $0xffffffff,-0x13cc(%rbp)
    914e:	ff ff ff 
    9151:	48 c7 85 28 eb ff ff 	movq   $0x0,-0x14d8(%rbp)
    9158:	00 00 00 00 
    915c:	48 c7 85 30 eb ff ff 	movq   $0x0,-0x14d0(%rbp)
    9163:	00 00 00 00 
    9167:	48 c7 05 1e 90 00 00 	movq   $0x1,0x901e(%rip)        # 12190 <g_241>
    916e:	01 00 00 00 
    9172:	e9 6f 05 00 00       	jmpq   96e6 <func_38+0x1ee3>
    9177:	c7 85 50 ed ff ff ff 	movl   $0xffffffff,-0x12b0(%rbp)
    917e:	ff ff ff 
    9181:	c7 85 54 ed ff ff ff 	movl   $0xffffffff,-0x12ac(%rbp)
    9188:	ff ff ff 
    918b:	c7 85 58 ed ff ff ff 	movl   $0xffffffff,-0x12a8(%rbp)
    9192:	ff ff ff 
    9195:	c7 85 5c ed ff ff ff 	movl   $0xffffffff,-0x12a4(%rbp)
    919c:	ff ff ff 
    919f:	c7 85 60 ed ff ff ff 	movl   $0xffffffff,-0x12a0(%rbp)
    91a6:	ff ff ff 
    91a9:	c7 85 64 ed ff ff ff 	movl   $0xffffffff,-0x129c(%rbp)
    91b0:	ff ff ff 
    91b3:	c7 85 68 ed ff ff ff 	movl   $0xffffffff,-0x1298(%rbp)
    91ba:	ff ff ff 
    91bd:	c7 85 1c ea ff ff 97 	movl   $0x555ec297,-0x15e4(%rbp)
    91c4:	c2 5e 55 
    91c7:	8b 85 8c e9 ff ff    	mov    -0x1674(%rbp),%eax
    91cd:	48 98                	cltq   
    91cf:	48 89 c6             	mov    %rax,%rsi
    91d2:	bf 01 00 00 00       	mov    $0x1,%edi
    91d7:	e8 d8 c7 ff ff       	callq  59b4 <safe_mod_func_int64_t_s_s>
    91dc:	0f b7 95 66 ee ff ff 	movzwl -0x119a(%rbp),%edx
    91e3:	48 0f bf d2          	movswq %dx,%rdx
    91e7:	48 39 d0             	cmp    %rdx,%rax
    91ea:	0f 9e c0             	setle  %al
    91ed:	0f b6 d0             	movzbl %al,%edx
    91f0:	66 0f be 85 94 e9 ff 	movsbw -0x166c(%rbp),%ax
    91f7:	ff 
    91f8:	21 d0                	and    %edx,%eax
    91fa:	0f b7 c0             	movzwl %ax,%eax
    91fd:	be ff ff 00 00       	mov    $0xffff,%esi
    9202:	89 c7                	mov    %eax,%edi
    9204:	e8 34 cb ff ff       	callq  5d3d <safe_mul_func_uint16_t_u_u>
    9209:	0f b6 d0             	movzbl %al,%edx
    920c:	48 8b 85 f8 eb ff ff 	mov    -0x1408(%rbp),%rax
    9213:	48 85 c0             	test   %rax,%rax
    9216:	0f 94 c0             	sete   %al
    9219:	0f b6 c0             	movzbl %al,%eax
    921c:	89 d6                	mov    %edx,%esi
    921e:	89 c7                	mov    %eax,%edi
    9220:	e8 89 c9 ff ff       	callq  5bae <safe_mod_func_uint8_t_u_u>
    9225:	0f b6 85 96 e9 ff ff 	movzbl -0x166a(%rbp),%eax
    922c:	48 8b 15 25 8f 00 00 	mov    0x8f25(%rip),%rdx        # 12158 <g_137+0x8>
    9233:	89 c6                	mov    %eax,%esi
    9235:	89 d7                	mov    %edx,%edi
    9237:	e8 c1 cc ff ff       	callq  5efd <safe_mod_func_uint32_t_u_u>
    923c:	89 c1                	mov    %eax,%ecx
    923e:	48 8b 05 5b ac 00 00 	mov    0xac5b(%rip),%rax        # 13ea0 <g_47>
    9245:	48 8b 00             	mov    (%rax),%rax
    9248:	8b 95 e4 e9 ff ff    	mov    -0x161c(%rbp),%edx
    924e:	89 10                	mov    %edx,(%rax)
    9250:	8b 00                	mov    (%rax),%eax
    9252:	85 c0                	test   %eax,%eax
    9254:	0f b6 85 e7 ed ff ff 	movzbl -0x1219(%rbp),%eax
    925b:	83 c8 01             	or     $0x1,%eax
    925e:	0f be c0             	movsbl %al,%eax
    9261:	89 ce                	mov    %ecx,%esi
    9263:	89 c7                	mov    %eax,%edi
    9265:	e8 4c c3 ff ff       	callq  55b6 <safe_add_func_int32_t_s_s>
    926a:	85 c0                	test   %eax,%eax
    926c:	75 0a                	jne    9278 <func_38+0x1a75>
    926e:	8b 85 58 ed ff ff    	mov    -0x12a8(%rbp),%eax
    9274:	85 c0                	test   %eax,%eax
    9276:	74 07                	je     927f <func_38+0x1a7c>
    9278:	b8 01 00 00 00       	mov    $0x1,%eax
    927d:	eb 05                	jmp    9284 <func_38+0x1a81>
    927f:	b8 00 00 00 00       	mov    $0x0,%eax
    9284:	0f b7 d0             	movzwl %ax,%edx
    9287:	48 8b 85 70 e9 ff ff 	mov    -0x1690(%rbp),%rax
    928e:	0f b7 c0             	movzwl %ax,%eax
    9291:	89 d6                	mov    %edx,%esi
    9293:	89 c7                	mov    %eax,%edi
    9295:	e8 f4 ca ff ff       	callq  5d8e <safe_div_func_uint16_t_u_u>
    929a:	66 85 c0             	test   %ax,%ax
    929d:	0f 84 11 01 00 00    	je     93b4 <func_38+0x1bb1>
    92a3:	48 83 bd 70 e9 ff ff 	cmpq   $0x1,-0x1690(%rbp)
    92aa:	01 
    92ab:	0f 96 c0             	setbe  %al
    92ae:	44 0f b6 e0          	movzbl %al,%r12d
    92b2:	44 0f be ad 94 e9 ff 	movsbl -0x166c(%rbp),%r13d
    92b9:	ff 
    92ba:	0f b7 85 ba ec ff ff 	movzwl -0x1346(%rbp),%eax
    92c1:	0f b6 d8             	movzbl %al,%ebx
    92c4:	0f b6 05 9d 91 00 00 	movzbl 0x919d(%rip),%eax        # 12468 <g_697>
    92cb:	0f b6 d0             	movzbl %al,%edx
    92ce:	48 8b 85 80 e9 ff ff 	mov    -0x1680(%rbp),%rax
    92d5:	8b 00                	mov    (%rax),%eax
    92d7:	85 c0                	test   %eax,%eax
    92d9:	75 1a                	jne    92f5 <func_38+0x1af2>
    92db:	48 8b 85 c8 f9 ff ff 	mov    -0x638(%rbp),%rax
    92e2:	48 85 c0             	test   %rax,%rax
    92e5:	0f 95 c0             	setne  %al
    92e8:	0f b6 c8             	movzbl %al,%ecx
    92eb:	8b 85 58 ed ff ff    	mov    -0x12a8(%rbp),%eax
    92f1:	39 c1                	cmp    %eax,%ecx
    92f3:	7f 07                	jg     92fc <func_38+0x1af9>
    92f5:	b8 01 00 00 00       	mov    $0x1,%eax
    92fa:	eb 05                	jmp    9301 <func_38+0x1afe>
    92fc:	b8 00 00 00 00       	mov    $0x0,%eax
    9301:	0f b6 c0             	movzbl %al,%eax
    9304:	89 d6                	mov    %edx,%esi
    9306:	89 c7                	mov    %eax,%edi
    9308:	e8 a1 c8 ff ff       	callq  5bae <safe_mod_func_uint8_t_u_u>
    930d:	0f b6 c0             	movzbl %al,%eax
    9310:	89 85 cc e9 ff ff    	mov    %eax,-0x1634(%rbp)
    9316:	8b 85 8c e9 ff ff    	mov    -0x1674(%rbp),%eax
    931c:	98                   	cwtl   
    931d:	be 07 00 00 00       	mov    $0x7,%esi
    9322:	89 c7                	mov    %eax,%edi
    9324:	e8 69 c1 ff ff       	callq  5492 <safe_lshift_func_int16_t_s_s>
    9329:	0f b6 c0             	movzbl %al,%eax
    932c:	89 de                	mov    %ebx,%esi
    932e:	89 c7                	mov    %eax,%edi
    9330:	e8 5e c8 ff ff       	callq  5b93 <safe_mul_func_uint8_t_u_u>
    9335:	84 c0                	test   %al,%al
    9337:	0f 94 c0             	sete   %al
    933a:	0f b6 c0             	movzbl %al,%eax
    933d:	41 39 c5             	cmp    %eax,%r13d
    9340:	0f 9f c0             	setg   %al
    9343:	0f b6 c0             	movzbl %al,%eax
    9346:	48 33 85 70 e9 ff ff 	xor    -0x1690(%rbp),%rax
    934d:	49 39 c4             	cmp    %rax,%r12
    9350:	0f 95 c2             	setne  %dl
    9353:	48 8b 85 40 ea ff ff 	mov    -0x15c0(%rbp),%rax
    935a:	88 10                	mov    %dl,(%rax)
    935c:	0f b6 00             	movzbl (%rax),%eax
    935f:	0f be d0             	movsbl %al,%edx
    9362:	8b 85 58 ed ff ff    	mov    -0x12a8(%rbp),%eax
    9368:	39 c2                	cmp    %eax,%edx
    936a:	0f 9d c0             	setge  %al
    936d:	0f b6 c0             	movzbl %al,%eax
    9370:	be 03 00 00 00       	mov    $0x3,%esi
    9375:	89 c7                	mov    %eax,%edi
    9377:	e8 f0 bf ff ff       	callq  536c <safe_rshift_func_int8_t_s_u>
    937c:	89 c2                	mov    %eax,%edx
    937e:	48 8b 05 2b af 00 00 	mov    0xaf2b(%rip),%rax        # 142b0 <g_878>
    9385:	48 8b 00             	mov    (%rax),%rax
    9388:	0f be d2             	movsbl %dl,%edx
    938b:	89 10                	mov    %edx,(%rax)
    938d:	0f b7 85 3a ed ff ff 	movzwl -0x12c6(%rbp),%eax
    9394:	66 85 c0             	test   %ax,%ax
    9397:	0f 84 3d 03 00 00    	je     96da <func_38+0x1ed7>
    939d:	48 8b 05 ec 8d 00 00 	mov    0x8dec(%rip),%rax        # 12190 <g_241>
    93a4:	48 83 e8 01          	sub    $0x1,%rax
    93a8:	48 89 05 e1 8d 00 00 	mov    %rax,0x8de1(%rip)        # 12190 <g_241>
    93af:	e9 32 03 00 00       	jmpq   96e6 <func_38+0x1ee3>
    93b4:	48 8d 05 ad 90 00 00 	lea    0x90ad(%rip),%rax        # 12468 <g_697>
    93bb:	48 89 85 f0 ee ff ff 	mov    %rax,-0x1110(%rbp)
    93c2:	48 c7 85 f8 ee ff ff 	movq   $0x0,-0x1108(%rbp)
    93c9:	00 00 00 00 
    93cd:	48 8d 05 94 90 00 00 	lea    0x9094(%rip),%rax        # 12468 <g_697>
    93d4:	48 89 85 00 ef ff ff 	mov    %rax,-0x1100(%rbp)
    93db:	48 c7 85 08 ef ff ff 	movq   $0x0,-0x10f8(%rbp)
    93e2:	00 00 00 00 
    93e6:	48 c7 85 10 ef ff ff 	movq   $0x0,-0x10f0(%rbp)
    93ed:	00 00 00 00 
    93f1:	48 8d 05 70 90 00 00 	lea    0x9070(%rip),%rax        # 12468 <g_697>
    93f8:	48 89 85 18 ef ff ff 	mov    %rax,-0x10e8(%rbp)
    93ff:	48 8d 05 62 90 00 00 	lea    0x9062(%rip),%rax        # 12468 <g_697>
    9406:	48 89 85 20 ef ff ff 	mov    %rax,-0x10e0(%rbp)
    940d:	48 8d 05 54 90 00 00 	lea    0x9054(%rip),%rax        # 12468 <g_697>
    9414:	48 89 85 28 ef ff ff 	mov    %rax,-0x10d8(%rbp)
    941b:	48 c7 85 30 ef ff ff 	movq   $0x0,-0x10d0(%rbp)
    9422:	00 00 00 00 
    9426:	48 c7 85 38 ef ff ff 	movq   $0x0,-0x10c8(%rbp)
    942d:	00 00 00 00 
    9431:	48 8d 05 30 90 00 00 	lea    0x9030(%rip),%rax        # 12468 <g_697>
    9438:	48 89 85 40 ef ff ff 	mov    %rax,-0x10c0(%rbp)
    943f:	48 8d 05 22 90 00 00 	lea    0x9022(%rip),%rax        # 12468 <g_697>
    9446:	48 89 85 48 ef ff ff 	mov    %rax,-0x10b8(%rbp)
    944d:	48 8d 05 14 90 00 00 	lea    0x9014(%rip),%rax        # 12468 <g_697>
    9454:	48 89 85 50 ef ff ff 	mov    %rax,-0x10b0(%rbp)
    945b:	48 8d 05 06 90 00 00 	lea    0x9006(%rip),%rax        # 12468 <g_697>
    9462:	48 89 85 58 ef ff ff 	mov    %rax,-0x10a8(%rbp)
    9469:	48 8d 05 f8 8f 00 00 	lea    0x8ff8(%rip),%rax        # 12468 <g_697>
    9470:	48 89 85 60 ef ff ff 	mov    %rax,-0x10a0(%rbp)
    9477:	48 8d 05 ea 8f 00 00 	lea    0x8fea(%rip),%rax        # 12468 <g_697>
    947e:	48 89 85 68 ef ff ff 	mov    %rax,-0x1098(%rbp)
    9485:	48 8d 05 dc 8f 00 00 	lea    0x8fdc(%rip),%rax        # 12468 <g_697>
    948c:	48 89 85 70 ef ff ff 	mov    %rax,-0x1090(%rbp)
    9493:	48 8d 05 ce 8f 00 00 	lea    0x8fce(%rip),%rax        # 12468 <g_697>
    949a:	48 89 85 78 ef ff ff 	mov    %rax,-0x1088(%rbp)
    94a1:	48 8d 05 c0 8f 00 00 	lea    0x8fc0(%rip),%rax        # 12468 <g_697>
    94a8:	48 89 85 80 ef ff ff 	mov    %rax,-0x1080(%rbp)
    94af:	48 8d 05 b2 8f 00 00 	lea    0x8fb2(%rip),%rax        # 12468 <g_697>
    94b6:	48 89 85 88 ef ff ff 	mov    %rax,-0x1078(%rbp)
    94bd:	48 c7 85 90 ef ff ff 	movq   $0x0,-0x1070(%rbp)
    94c4:	00 00 00 00 
    94c8:	48 8d 05 99 8f 00 00 	lea    0x8f99(%rip),%rax        # 12468 <g_697>
    94cf:	48 89 85 98 ef ff ff 	mov    %rax,-0x1068(%rbp)
    94d6:	48 8d 05 8b 8f 00 00 	lea    0x8f8b(%rip),%rax        # 12468 <g_697>
    94dd:	48 89 85 a0 ef ff ff 	mov    %rax,-0x1060(%rbp)
    94e4:	48 8d 05 7d 8f 00 00 	lea    0x8f7d(%rip),%rax        # 12468 <g_697>
    94eb:	48 89 85 a8 ef ff ff 	mov    %rax,-0x1058(%rbp)
    94f2:	48 8d 05 6f 8f 00 00 	lea    0x8f6f(%rip),%rax        # 12468 <g_697>
    94f9:	48 89 85 b0 ef ff ff 	mov    %rax,-0x1050(%rbp)
    9500:	48 8d 05 61 8f 00 00 	lea    0x8f61(%rip),%rax        # 12468 <g_697>
    9507:	48 89 85 b8 ef ff ff 	mov    %rax,-0x1048(%rbp)
    950e:	48 8d 05 53 8f 00 00 	lea    0x8f53(%rip),%rax        # 12468 <g_697>
    9515:	48 89 85 c0 ef ff ff 	mov    %rax,-0x1040(%rbp)
    951c:	48 8d 05 45 8f 00 00 	lea    0x8f45(%rip),%rax        # 12468 <g_697>
    9523:	48 89 85 c8 ef ff ff 	mov    %rax,-0x1038(%rbp)
    952a:	48 c7 85 d0 ef ff ff 	movq   $0x0,-0x1030(%rbp)
    9531:	00 00 00 00 
    9535:	48 c7 85 d8 ef ff ff 	movq   $0x0,-0x1028(%rbp)
    953c:	00 00 00 00 
    9540:	48 8d 05 21 8f 00 00 	lea    0x8f21(%rip),%rax        # 12468 <g_697>
    9547:	48 89 85 e0 ef ff ff 	mov    %rax,-0x1020(%rbp)
    954e:	48 8d 05 13 8f 00 00 	lea    0x8f13(%rip),%rax        # 12468 <g_697>
    9555:	48 89 85 e8 ef ff ff 	mov    %rax,-0x1018(%rbp)
    955c:	c7 85 d4 e9 ff ff 00 	movl   $0x0,-0x162c(%rbp)
    9563:	00 00 00 
    9566:	eb 19                	jmp    9581 <func_38+0x1d7e>
    9568:	8b 85 d4 e9 ff ff    	mov    -0x162c(%rbp),%eax
    956e:	48 98                	cltq   
    9570:	66 c7 84 45 e6 eb ff 	movw   $0x7bbf,-0x141a(%rbp,%rax,2)
    9577:	ff bf 7b 
    957a:	83 85 d4 e9 ff ff 01 	addl   $0x1,-0x162c(%rbp)
    9581:	83 bd d4 e9 ff ff 04 	cmpl   $0x4,-0x162c(%rbp)
    9588:	7e de                	jle    9568 <func_38+0x1d65>
    958a:	c7 85 d4 e9 ff ff 00 	movl   $0x0,-0x162c(%rbp)
    9591:	00 00 00 
    9594:	eb 22                	jmp    95b8 <func_38+0x1db5>
    9596:	8b 85 d4 e9 ff ff    	mov    -0x162c(%rbp),%eax
    959c:	48 98                	cltq   
    959e:	48 8d 95 50 ed ff ff 	lea    -0x12b0(%rbp),%rdx
    95a5:	48 83 c2 08          	add    $0x8,%rdx
    95a9:	48 89 94 c5 40 ec ff 	mov    %rdx,-0x13c0(%rbp,%rax,8)
    95b0:	ff 
    95b1:	83 85 d4 e9 ff ff 01 	addl   $0x1,-0x162c(%rbp)
    95b8:	83 bd d4 e9 ff ff 02 	cmpl   $0x2,-0x162c(%rbp)
    95bf:	7e d5                	jle    9596 <func_38+0x1d93>
    95c1:	0f b6 85 95 e9 ff ff 	movzbl -0x166b(%rbp),%eax
    95c8:	83 e8 01             	sub    $0x1,%eax
    95cb:	88 85 95 e9 ff ff    	mov    %al,-0x166b(%rbp)
    95d1:	8b 85 8c e9 ff ff    	mov    -0x1674(%rbp),%eax
    95d7:	0f bf d8             	movswl %ax,%ebx
    95da:	0f b6 85 1f ee ff ff 	movzbl -0x11e1(%rbp),%eax
    95e1:	0f be d0             	movsbl %al,%edx
    95e4:	48 8b 85 70 e9 ff ff 	mov    -0x1690(%rbp),%rax
    95eb:	98                   	cwtl   
    95ec:	89 d6                	mov    %edx,%esi
    95ee:	89 c7                	mov    %eax,%edi
    95f0:	e8 21 be ff ff       	callq  5416 <safe_mod_func_int16_t_s_s>
    95f5:	8b 85 cc e9 ff ff    	mov    -0x1634(%rbp),%eax
    95fb:	89 c6                	mov    %eax,%esi
    95fd:	bf fc ff ff ff       	mov    $0xfffffffc,%edi
    9602:	e8 fe bf ff ff       	callq  5605 <safe_sub_func_int32_t_s_s>
    9607:	89 85 1c ea ff ff    	mov    %eax,-0x15e4(%rbp)
    960d:	8b 85 8c e9 ff ff    	mov    -0x1674(%rbp),%eax
    9613:	85 c0                	test   %eax,%eax
    9615:	0f 94 c0             	sete   %al
    9618:	0f b6 c0             	movzbl %al,%eax
    961b:	89 de                	mov    %ebx,%esi
    961d:	89 c7                	mov    %eax,%edi
    961f:	e8 8f bd ff ff       	callq  53b3 <safe_add_func_int16_t_s_s>
    9624:	89 c2                	mov    %eax,%edx
    9626:	8b 85 54 ed ff ff    	mov    -0x12ac(%rbp),%eax
    962c:	09 d0                	or     %edx,%eax
    962e:	0f be c0             	movsbl %al,%eax
    9631:	be 06 00 00 00       	mov    $0x6,%esi
    9636:	89 c7                	mov    %eax,%edi
    9638:	e8 2f bd ff ff       	callq  536c <safe_rshift_func_int8_t_s_u>
    963d:	48 8b 05 6c ac 00 00 	mov    0xac6c(%rip),%rax        # 142b0 <g_878>
    9644:	48 8b 00             	mov    (%rax),%rax
    9647:	c7 00 4f df 93 49    	movl   $0x4993df4f,(%rax)
    964d:	8b 00                	mov    (%rax),%eax
    964f:	be 00 00 00 00       	mov    $0x0,%esi
    9654:	89 c7                	mov    %eax,%edi
    9656:	e8 5b bf ff ff       	callq  55b6 <safe_add_func_int32_t_s_s>
    965b:	0f b7 c0             	movzwl %ax,%eax
    965e:	be 02 00 00 00       	mov    $0x2,%esi
    9663:	89 c7                	mov    %eax,%edi
    9665:	e8 9c c7 ff ff       	callq  5e06 <safe_lshift_func_uint16_t_u_u>
    966a:	0f b6 d8             	movzbl %al,%ebx
    966d:	8b 95 58 ed ff ff    	mov    -0x12a8(%rbp),%edx
    9673:	48 8b 85 e0 ea ff ff 	mov    -0x1520(%rbp),%rax
    967a:	48 3b 85 f8 ea ff ff 	cmp    -0x1508(%rbp),%rax
    9681:	0f 95 c0             	setne  %al
    9684:	0f b6 c0             	movzbl %al,%eax
    9687:	21 d0                	and    %edx,%eax
    9689:	48 63 d0             	movslq %eax,%rdx
    968c:	0f b7 85 3a ed ff ff 	movzwl -0x12c6(%rbp),%eax
    9693:	0f b7 c0             	movzwl %ax,%eax
    9696:	48 89 d6             	mov    %rdx,%rsi
    9699:	48 89 c7             	mov    %rax,%rdi
    969c:	e8 df c9 ff ff       	callq  6080 <safe_mod_func_uint64_t_u_u>
    96a1:	88 05 9d 8b 00 00    	mov    %al,0x8b9d(%rip)        # 12244 <g_459+0x3>
    96a7:	0f b6 05 96 8b 00 00 	movzbl 0x8b96(%rip),%eax        # 12244 <g_459+0x3>
    96ae:	0f b6 c0             	movzbl %al,%eax
    96b1:	89 de                	mov    %ebx,%esi
    96b3:	89 c7                	mov    %eax,%edi
    96b5:	e8 be c4 ff ff       	callq  5b78 <safe_sub_func_uint8_t_u_u>
    96ba:	84 c0                	test   %al,%al
    96bc:	75 0a                	jne    96c8 <func_38+0x1ec5>
    96be:	8b 85 8c e9 ff ff    	mov    -0x1674(%rbp),%eax
    96c4:	85 c0                	test   %eax,%eax
    96c6:	74 07                	je     96cf <func_38+0x1ecc>
    96c8:	b8 01 00 00 00       	mov    $0x1,%eax
    96cd:	eb 05                	jmp    96d4 <func_38+0x1ed1>
    96cf:	b8 00 00 00 00       	mov    $0x0,%eax
    96d4:	31 85 d8 e9 ff ff    	xor    %eax,-0x1628(%rbp)
    96da:	48 8b 05 5f 8d 00 00 	mov    0x8d5f(%rip),%rax        # 12440 <g_695>
    96e1:	e9 1a 08 00 00       	jmpq   9f00 <func_38+0x26fd>
    96e6:	48 8b 05 a3 8a 00 00 	mov    0x8aa3(%rip),%rax        # 12190 <g_241>
    96ed:	48 85 c0             	test   %rax,%rax
    96f0:	0f 89 81 fa ff ff    	jns    9177 <func_38+0x1974>
    96f6:	8b 85 8c e9 ff ff    	mov    -0x1674(%rbp),%eax
    96fc:	85 c0                	test   %eax,%eax
    96fe:	0f 85 06 07 00 00    	jne    9e0a <func_38+0x2607>
    9704:	0f b6 05 38 8b 00 00 	movzbl 0x8b38(%rip),%eax        # 12243 <g_459+0x2>
    970b:	0f b6 c0             	movzbl %al,%eax
    970e:	89 85 20 ec ff ff    	mov    %eax,-0x13e0(%rbp)
    9714:	8b 85 20 ec ff ff    	mov    -0x13e0(%rbp),%eax
    971a:	48 98                	cltq   
    971c:	48 89 c7             	mov    %rax,%rdi
    971f:	e8 f5 c8 ff ff       	callq  6019 <safe_unary_minus_func_uint64_t_u>
    9724:	48 85 c0             	test   %rax,%rax
    9727:	0f 84 8d 00 00 00    	je     97ba <func_38+0x1fb7>
    972d:	48 83 bd 70 e9 ff ff 	cmpq   $0x0,-0x1690(%rbp)
    9734:	00 
    9735:	0f 85 d2 06 00 00    	jne    9e0d <func_38+0x260a>
    973b:	66 c7 85 9e e9 ff ff 	movw   $0x0,-0x1662(%rbp)
    9742:	00 00 
    9744:	eb 5d                	jmp    97a3 <func_38+0x1fa0>
    9746:	48 8b 05 5b a7 00 00 	mov    0xa75b(%rip),%rax        # 13ea8 <g_81>
    974d:	c7 00 01 00 00 00    	movl   $0x1,(%rax)
    9753:	0f bf 85 9e e9 ff ff 	movswl -0x1662(%rbp),%eax
    975a:	8d 50 02             	lea    0x2(%rax),%edx
    975d:	0f bf 85 9e e9 ff ff 	movswl -0x1662(%rbp),%eax
    9764:	83 c0 03             	add    $0x3,%eax
    9767:	48 63 c8             	movslq %eax,%rcx
    976a:	48 63 d2             	movslq %edx,%rdx
    976d:	48 89 d0             	mov    %rdx,%rax
    9770:	48 c1 e0 03          	shl    $0x3,%rax
    9774:	48 01 d0             	add    %rdx,%rax
    9777:	48 01 c8             	add    %rcx,%rax
    977a:	0f b7 84 45 40 ee ff 	movzwl -0x11c0(%rbp,%rax,2),%eax
    9781:	ff 
    9782:	66 85 c0             	test   %ax,%ax
    9785:	75 0a                	jne    9791 <func_38+0x1f8e>
    9787:	48 83 bd 70 e9 ff ff 	cmpq   $0x0,-0x1690(%rbp)
    978e:	00 
    978f:	eb 01                	jmp    9792 <func_38+0x1f8f>
    9791:	90                   	nop
    9792:	0f b7 85 9e e9 ff ff 	movzwl -0x1662(%rbp),%eax
    9799:	83 c0 01             	add    $0x1,%eax
    979c:	66 89 85 9e e9 ff ff 	mov    %ax,-0x1662(%rbp)
    97a3:	66 83 bd 9e e9 ff ff 	cmpw   $0x4,-0x1662(%rbp)
    97aa:	04 
    97ab:	7e 99                	jle    9746 <func_38+0x1f43>
    97ad:	8b 05 e5 8c 00 00    	mov    0x8ce5(%rip),%eax        # 12498 <g_705+0x18>
    97b3:	48 98                	cltq   
    97b5:	e9 46 07 00 00       	jmpq   9f00 <func_38+0x26fd>
    97ba:	66 c7 85 9c e9 ff ff 	movw   $0x0,-0x1664(%rbp)
    97c1:	00 00 
    97c3:	48 8d 85 48 ea ff ff 	lea    -0x15b8(%rbp),%rax
    97ca:	48 89 85 f0 ee ff ff 	mov    %rax,-0x1110(%rbp)
    97d1:	48 8d 85 48 ea ff ff 	lea    -0x15b8(%rbp),%rax
    97d8:	48 89 85 f8 ee ff ff 	mov    %rax,-0x1108(%rbp)
    97df:	48 8d 85 48 ea ff ff 	lea    -0x15b8(%rbp),%rax
    97e6:	48 89 85 00 ef ff ff 	mov    %rax,-0x1100(%rbp)
    97ed:	48 8d 85 48 ea ff ff 	lea    -0x15b8(%rbp),%rax
    97f4:	48 89 85 08 ef ff ff 	mov    %rax,-0x10f8(%rbp)
    97fb:	48 8d 85 48 ea ff ff 	lea    -0x15b8(%rbp),%rax
    9802:	48 89 85 10 ef ff ff 	mov    %rax,-0x10f0(%rbp)
    9809:	48 8d 85 48 ea ff ff 	lea    -0x15b8(%rbp),%rax
    9810:	48 89 85 18 ef ff ff 	mov    %rax,-0x10e8(%rbp)
    9817:	48 8d 85 48 ea ff ff 	lea    -0x15b8(%rbp),%rax
    981e:	48 89 85 20 ef ff ff 	mov    %rax,-0x10e0(%rbp)
    9825:	48 8d 85 48 ea ff ff 	lea    -0x15b8(%rbp),%rax
    982c:	48 89 85 28 ef ff ff 	mov    %rax,-0x10d8(%rbp)
    9833:	48 8d 85 48 ea ff ff 	lea    -0x15b8(%rbp),%rax
    983a:	48 89 85 30 ef ff ff 	mov    %rax,-0x10d0(%rbp)
    9841:	c7 85 f8 e9 ff ff ff 	movl   $0xffffffff,-0x1608(%rbp)
    9848:	ff ff ff 
    984b:	c7 85 fc e9 ff ff fc 	movl   $0xfffffffc,-0x1604(%rbp)
    9852:	ff ff ff 
    9855:	c7 85 00 ea ff ff 99 	movl   $0x108bbe99,-0x1600(%rbp)
    985c:	be 8b 10 
    985f:	c7 85 04 ea ff ff 00 	movl   $0x0,-0x15fc(%rbp)
    9866:	00 00 00 
    9869:	c7 85 08 ea ff ff f9 	movl   $0xfffffff9,-0x15f8(%rbp)
    9870:	ff ff ff 
    9873:	c7 85 0c ea ff ff 00 	movl   $0x0,-0x15f4(%rbp)
    987a:	00 00 00 
    987d:	c7 85 10 ea ff ff ff 	movl   $0xffffffff,-0x15f0(%rbp)
    9884:	ff ff ff 
    9887:	c7 85 14 ea ff ff 4d 	movl   $0x65dc924d,-0x15ec(%rbp)
    988e:	92 dc 65 
    9891:	c6 85 97 e9 ff ff f5 	movb   $0xf5,-0x1669(%rbp)
    9898:	c7 85 18 ea ff ff d4 	movl   $0x3aa090d4,-0x15e8(%rbp)
    989f:	90 a0 3a 
    98a2:	48 8d 05 e7 88 00 00 	lea    0x88e7(%rip),%rax        # 12190 <g_241>
    98a9:	48 89 85 38 eb ff ff 	mov    %rax,-0x14c8(%rbp)
    98b0:	c6 85 93 e9 ff ff 00 	movb   $0x0,-0x166d(%rbp)
    98b7:	80 bd 93 e9 ff ff 09 	cmpb   $0x9,-0x166d(%rbp)
    98be:	7f 0d                	jg     98cd <func_38+0x20ca>
    98c0:	8b 85 f4 e9 ff ff    	mov    -0x160c(%rbp),%eax
    98c6:	48 98                	cltq   
    98c8:	e9 33 06 00 00       	jmpq   9f00 <func_38+0x26fd>
    98cd:	48 8b 85 70 e9 ff ff 	mov    -0x1690(%rbp),%rax
    98d4:	0f bf d8             	movswl %ax,%ebx
    98d7:	0f b6 05 86 87 00 00 	movzbl 0x8786(%rip),%eax        # 12064 <g_68>
    98de:	4c 0f be e0          	movsbq %al,%r12
    98e2:	8b 85 8c e9 ff ff    	mov    -0x1674(%rbp),%eax
    98e8:	41 89 c5             	mov    %eax,%r13d
    98eb:	48 8b 85 20 ef ff ff 	mov    -0x10e0(%rbp),%rax
    98f2:	48 85 c0             	test   %rax,%rax
    98f5:	0f 94 c0             	sete   %al
    98f8:	0f b6 d0             	movzbl %al,%edx
    98fb:	8b 85 8c e9 ff ff    	mov    -0x1674(%rbp),%eax
    9901:	21 d0                	and    %edx,%eax
    9903:	0b 85 ec e9 ff ff    	or     -0x1614(%rbp),%eax
    9909:	89 c2                	mov    %eax,%edx
    990b:	0f b7 05 34 89 00 00 	movzwl 0x8934(%rip),%eax        # 12246 <g_465>
    9912:	98                   	cwtl   
    9913:	21 c2                	and    %eax,%edx
    9915:	0f b7 85 9c e9 ff ff 	movzwl -0x1664(%rbp),%eax
    991c:	98                   	cwtl   
    991d:	39 c2                	cmp    %eax,%edx
    991f:	0f 9d c0             	setge  %al
    9922:	0f b6 d0             	movzbl %al,%edx
    9925:	48 8b 05 94 a5 00 00 	mov    0xa594(%rip),%rax        # 13ec0 <g_216>
    992c:	48 8b 00             	mov    (%rax),%rax
    992f:	09 d0                	or     %edx,%eax
    9931:	41 89 c6             	mov    %eax,%r14d
    9934:	48 8b 05 2d a9 00 00 	mov    0xa92d(%rip),%rax        # 14268 <g_631>
    993b:	48 8b 08             	mov    (%rax),%rcx
    993e:	48 8b 85 a8 ea ff ff 	mov    -0x1558(%rbp),%rax
    9945:	48 8b 10             	mov    (%rax),%rdx
    9948:	48 8b 85 a8 ea ff ff 	mov    -0x1558(%rbp),%rax
    994f:	48 89 10             	mov    %rdx,(%rax)
    9952:	48 8b 85 a8 ea ff ff 	mov    -0x1558(%rbp),%rax
    9959:	48 8b 00             	mov    (%rax),%rax
    995c:	48 39 c1             	cmp    %rax,%rcx
    995f:	0f 95 c0             	setne  %al
    9962:	0f b6 c0             	movzbl %al,%eax
    9965:	be 0c 00 00 00       	mov    $0xc,%esi
    996a:	89 c7                	mov    %eax,%edi
    996c:	e8 09 c5 ff ff       	callq  5e7a <safe_rshift_func_uint16_t_u_u>
    9971:	89 c2                	mov    %eax,%edx
    9973:	48 8b 05 36 a9 00 00 	mov    0xa936(%rip),%rax        # 142b0 <g_878>
    997a:	48 8b 00             	mov    (%rax),%rax
    997d:	0f b7 d2             	movzwl %dx,%edx
    9980:	89 10                	mov    %edx,(%rax)
    9982:	c6 05 bb 88 00 00 93 	movb   $0x93,0x88bb(%rip)        # 12244 <g_459+0x3>
    9989:	44 89 f6             	mov    %r14d,%esi
    998c:	bf 93 00 00 00       	mov    $0x93,%edi
    9991:	e8 28 c3 ff ff       	callq  5cbe <safe_rshift_func_uint8_t_u_u>
    9996:	0f b6 c0             	movzbl %al,%eax
    9999:	f7 d0                	not    %eax
    999b:	89 c2                	mov    %eax,%edx
    999d:	0f b7 85 9c e9 ff ff 	movzwl -0x1664(%rbp),%eax
    99a4:	98                   	cwtl   
    99a5:	39 c2                	cmp    %eax,%edx
    99a7:	0f 9c c0             	setl   %al
    99aa:	0f b6 c0             	movzbl %al,%eax
    99ad:	44 89 ee             	mov    %r13d,%esi
    99b0:	89 c7                	mov    %eax,%edi
    99b2:	e8 46 c5 ff ff       	callq  5efd <safe_mod_func_uint32_t_u_u>
    99b7:	89 c0                	mov    %eax,%eax
    99b9:	4c 89 e6             	mov    %r12,%rsi
    99bc:	48 89 c7             	mov    %rax,%rdi
    99bf:	e8 6a c6 ff ff       	callq  602e <safe_add_func_uint64_t_u_u>
    99c4:	98                   	cwtl   
    99c5:	89 de                	mov    %ebx,%esi
    99c7:	89 c7                	mov    %eax,%edi
    99c9:	e8 27 ba ff ff       	callq  53f5 <safe_mul_func_int16_t_s_s>
    99ce:	0f b7 85 9c e9 ff ff 	movzwl -0x1664(%rbp),%eax
    99d5:	48 0f bf c0          	movswq %ax,%rax
    99d9:	48 39 85 70 e9 ff ff 	cmp    %rax,-0x1690(%rbp)
    99e0:	0f 94 c0             	sete   %al
    99e3:	0f b6 c0             	movzbl %al,%eax
    99e6:	be 01 00 00 00       	mov    $0x1,%esi
    99eb:	89 c7                	mov    %eax,%edi
    99ed:	e8 03 ba ff ff       	callq  53f5 <safe_mul_func_int16_t_s_s>
    99f2:	48 0f bf d0          	movswq %ax,%rdx
    99f6:	48 0f be 85 92 e9 ff 	movsbq -0x166e(%rbp),%rax
    99fd:	ff 
    99fe:	48 89 d6             	mov    %rdx,%rsi
    9a01:	48 89 c7             	mov    %rax,%rdi
    9a04:	e8 38 be ff ff       	callq  5841 <safe_add_func_int64_t_s_s>
    9a09:	48 8b 85 68 ea ff ff 	mov    -0x1598(%rbp),%rax
    9a10:	48 39 85 28 eb ff ff 	cmp    %rax,-0x14d8(%rbp)
    9a17:	0f 85 6f 03 00 00    	jne    9d8c <func_38+0x2589>
    9a1d:	48 8d 85 b4 e9 ff ff 	lea    -0x164c(%rbp),%rax
    9a24:	48 89 85 40 eb ff ff 	mov    %rax,-0x14c0(%rbp)
    9a2b:	48 8d 85 40 f5 ff ff 	lea    -0xac0(%rbp),%rax
    9a32:	48 05 e0 01 00 00    	add    $0x1e0,%rax
    9a38:	48 89 85 48 eb ff ff 	mov    %rax,-0x14b8(%rbp)
    9a3f:	48 8d 85 b0 e9 ff ff 	lea    -0x1650(%rbp),%rax
    9a46:	48 89 85 50 eb ff ff 	mov    %rax,-0x14b0(%rbp)
    9a4d:	48 c7 85 50 ed ff ff 	movq   $0x0,-0x12b0(%rbp)
    9a54:	00 00 00 00 
    9a58:	48 c7 85 58 ed ff ff 	movq   $0x0,-0x12a8(%rbp)
    9a5f:	00 00 00 00 
    9a63:	48 c7 85 60 ed ff ff 	movq   $0x0,-0x12a0(%rbp)
    9a6a:	00 00 00 00 
    9a6e:	48 c7 85 68 ed ff ff 	movq   $0x0,-0x1298(%rbp)
    9a75:	00 00 00 00 
    9a79:	48 c7 85 70 ed ff ff 	movq   $0x0,-0x1290(%rbp)
    9a80:	00 00 00 00 
    9a84:	48 c7 85 78 ed ff ff 	movq   $0x0,-0x1288(%rbp)
    9a8b:	00 00 00 00 
    9a8f:	48 c7 85 80 ed ff ff 	movq   $0x0,-0x1280(%rbp)
    9a96:	00 00 00 00 
    9a9a:	48 c7 85 88 ed ff ff 	movq   $0x0,-0x1278(%rbp)
    9aa1:	00 00 00 00 
    9aa5:	48 8d 85 78 ea ff ff 	lea    -0x1588(%rbp),%rax
    9aac:	48 89 85 58 eb ff ff 	mov    %rax,-0x14a8(%rbp)
    9ab3:	48 8d 05 1e a6 00 00 	lea    0xa61e(%rip),%rax        # 140d8 <g_633>
    9aba:	48 89 85 60 eb ff ff 	mov    %rax,-0x14a0(%rbp)
    9ac1:	48 8d 85 10 ed ff ff 	lea    -0x12f0(%rbp),%rax
    9ac8:	48 83 c0 0e          	add    $0xe,%rax
    9acc:	48 89 85 68 eb ff ff 	mov    %rax,-0x1498(%rbp)
    9ad3:	48 8d 85 9c e9 ff ff 	lea    -0x1664(%rbp),%rax
    9ada:	48 89 85 70 eb ff ff 	mov    %rax,-0x1490(%rbp)
    9ae1:	0f b6 05 f0 90 00 00 	movzbl 0x90f0(%rip),%eax        # 12bd8 <g_1100>
    9ae8:	83 c0 01             	add    $0x1,%eax
    9aeb:	88 05 e7 90 00 00    	mov    %al,0x90e7(%rip)        # 12bd8 <g_1100>
    9af1:	48 8b 05 b8 a7 00 00 	mov    0xa7b8(%rip),%rax        # 142b0 <g_878>
    9af8:	48 8b 00             	mov    (%rax),%rax
    9afb:	8b 95 8c e9 ff ff    	mov    -0x1674(%rbp),%edx
    9b01:	89 10                	mov    %edx,(%rax)
    9b03:	8b 00                	mov    (%rax),%eax
    9b05:	48 98                	cltq   
    9b07:	48 39 85 70 e9 ff ff 	cmp    %rax,-0x1690(%rbp)
    9b0e:	0f 93 c0             	setae  %al
    9b11:	44 0f b6 e8          	movzbl %al,%r13d
    9b15:	48 8b 85 70 e9 ff ff 	mov    -0x1690(%rbp),%rax
    9b1c:	41 89 c7             	mov    %eax,%r15d
    9b1f:	48 8d 05 c2 ac 00 00 	lea    0xacc2(%rip),%rax        # 147e8 <g_323>
    9b26:	0f b7 00             	movzwl (%rax),%eax
    9b29:	0f bf d0             	movswl %ax,%edx
    9b2c:	48 83 bd 00 eb ff ff 	cmpq   $0x0,-0x1500(%rbp)
    9b33:	00 
    9b34:	0f 94 c0             	sete   %al
    9b37:	0f b6 c0             	movzbl %al,%eax
    9b3a:	39 c2                	cmp    %eax,%edx
    9b3c:	0f 95 c0             	setne  %al
    9b3f:	44 0f b6 f0          	movzbl %al,%r14d
    9b43:	0f b7 85 3a ed ff ff 	movzwl -0x12c6(%rbp),%eax
    9b4a:	0f b7 d8             	movzwl %ax,%ebx
    9b4d:	8b 85 f0 e9 ff ff    	mov    -0x1610(%rbp),%eax
    9b53:	44 0f b6 e0          	movzbl %al,%r12d
    9b57:	0f b7 85 28 ed ff ff 	movzwl -0x12d8(%rbp),%eax
    9b5e:	0f b7 d0             	movzwl %ax,%edx
    9b61:	c7 85 20 ec ff ff 00 	movl   $0x0,-0x13e0(%rbp)
    9b68:	00 00 00 
    9b6b:	8b 85 20 ec ff ff    	mov    -0x13e0(%rbp),%eax
    9b71:	39 85 f8 e9 ff ff    	cmp    %eax,-0x1608(%rbp)
    9b77:	0f 9c c0             	setl   %al
    9b7a:	0f b6 c0             	movzbl %al,%eax
    9b7d:	89 d6                	mov    %edx,%esi
    9b7f:	89 c7                	mov    %eax,%edi
    9b81:	e8 68 b7 ff ff       	callq  52ee <safe_lshift_func_int8_t_s_u>
    9b86:	44 89 e6             	mov    %r12d,%esi
    9b89:	bf 01 00 00 00       	mov    $0x1,%edi
    9b8e:	e8 00 c0 ff ff       	callq  5b93 <safe_mul_func_uint8_t_u_u>
    9b93:	0f b6 c0             	movzbl %al,%eax
    9b96:	89 de                	mov    %ebx,%esi
    9b98:	89 c7                	mov    %eax,%edi
    9b9a:	e8 db c2 ff ff       	callq  5e7a <safe_rshift_func_uint16_t_u_u>
    9b9f:	0f b7 c0             	movzwl %ax,%eax
    9ba2:	41 39 c6             	cmp    %eax,%r14d
    9ba5:	0f 9e c0             	setle  %al
    9ba8:	0f b6 c0             	movzbl %al,%eax
    9bab:	44 89 fe             	mov    %r15d,%esi
    9bae:	89 c7                	mov    %eax,%edi
    9bb0:	e8 4a bb ff ff       	callq  56ff <safe_div_func_int32_t_s_s>
    9bb5:	41 39 c5             	cmp    %eax,%r13d
    9bb8:	7c 0f                	jl     9bc9 <func_38+0x23c6>
    9bba:	48 8b 05 b7 a6 00 00 	mov    0xa6b7(%rip),%rax        # 14278 <g_634>
    9bc1:	48 8b 00             	mov    (%rax),%rax
    9bc4:	0f b6 00             	movzbl (%rax),%eax
    9bc7:	84 c0                	test   %al,%al
    9bc9:	48 8b 95 78 ea ff ff 	mov    -0x1588(%rbp),%rdx
    9bd0:	48 8b 85 58 eb ff ff 	mov    -0x14a8(%rbp),%rax
    9bd7:	48 89 10             	mov    %rdx,(%rax)
    9bda:	48 8b 85 58 eb ff ff 	mov    -0x14a8(%rbp),%rax
    9be1:	48 8b 10             	mov    (%rax),%rdx
    9be4:	48 8b 05 b5 a2 00 00 	mov    0xa2b5(%rip),%rax        # 13ea0 <g_47>
    9beb:	48 8b 00             	mov    (%rax),%rax
    9bee:	48 39 c2             	cmp    %rax,%rdx
    9bf1:	0f 95 c0             	setne  %al
    9bf4:	0f b6 d0             	movzbl %al,%edx
    9bf7:	48 8b 85 48 eb ff ff 	mov    -0x14b8(%rbp),%rax
    9bfe:	8b 00                	mov    (%rax),%eax
    9c00:	31 c2                	xor    %eax,%edx
    9c02:	48 8b 85 48 eb ff ff 	mov    -0x14b8(%rbp),%rax
    9c09:	89 10                	mov    %edx,(%rax)
    9c0b:	48 8b 05 ce a6 00 00 	mov    0xa6ce(%rip),%rax        # 142e0 <g_1117>
    9c12:	48 8b 95 30 eb ff ff 	mov    -0x14d0(%rbp),%rdx
    9c19:	48 89 10             	mov    %rdx,(%rax)
    9c1c:	8b 85 8c e9 ff ff    	mov    -0x1674(%rbp),%eax
    9c22:	0f b6 d8             	movzbl %al,%ebx
    9c25:	0f b6 85 93 e9 ff ff 	movzbl -0x166d(%rbp),%eax
    9c2c:	44 0f b6 e0          	movzbl %al,%r12d
    9c30:	48 8b 85 70 e9 ff ff 	mov    -0x1690(%rbp),%rax
    9c37:	44 0f bf e8          	movswl %ax,%r13d
    9c3b:	48 8b 85 70 e9 ff ff 	mov    -0x1690(%rbp),%rax
    9c42:	41 89 c6             	mov    %eax,%r14d
    9c45:	8b 85 d8 e9 ff ff    	mov    -0x1628(%rbp),%eax
    9c4b:	83 c8 01             	or     $0x1,%eax
    9c4e:	0f b7 c0             	movzwl %ax,%eax
    9c51:	be 8d ac 00 00       	mov    $0xac8d,%esi
    9c56:	89 c7                	mov    %eax,%edi
    9c58:	e8 c2 c0 ff ff       	callq  5d1f <safe_sub_func_uint16_t_u_u>
    9c5d:	0f b6 c0             	movzbl %al,%eax
    9c60:	44 89 f6             	mov    %r14d,%esi
    9c63:	89 c7                	mov    %eax,%edi
    9c65:	e8 54 c0 ff ff       	callq  5cbe <safe_rshift_func_uint8_t_u_u>
    9c6a:	48 8b 95 68 eb ff ff 	mov    -0x1498(%rbp),%rdx
    9c71:	0f b7 12             	movzwl (%rdx),%edx
    9c74:	0f b6 c0             	movzbl %al,%eax
    9c77:	31 c2                	xor    %eax,%edx
    9c79:	48 8b 85 68 eb ff ff 	mov    -0x1498(%rbp),%rax
    9c80:	66 89 10             	mov    %dx,(%rax)
    9c83:	48 8b 85 68 eb ff ff 	mov    -0x1498(%rbp),%rax
    9c8a:	0f b7 00             	movzwl (%rax),%eax
    9c8d:	89 c2                	mov    %eax,%edx
    9c8f:	48 8b 85 50 eb ff ff 	mov    -0x14b0(%rbp),%rax
    9c96:	8b 00                	mov    (%rax),%eax
    9c98:	21 d0                	and    %edx,%eax
    9c9a:	98                   	cwtl   
    9c9b:	44 89 ee             	mov    %r13d,%esi
    9c9e:	89 c7                	mov    %eax,%edi
    9ca0:	e8 71 b7 ff ff       	callq  5416 <safe_mod_func_int16_t_s_s>
    9ca5:	48 8b 85 d8 ec ff ff 	mov    -0x1328(%rbp),%rax
    9cac:	48 8d 15 45 ab 00 00 	lea    0xab45(%rip),%rdx        # 147f8 <g_726>
    9cb3:	48 39 d0             	cmp    %rdx,%rax
    9cb6:	0f 94 c0             	sete   %al
    9cb9:	0f b6 c0             	movzbl %al,%eax
    9cbc:	44 89 e6             	mov    %r12d,%esi
    9cbf:	89 c7                	mov    %eax,%edi
    9cc1:	e8 cd be ff ff       	callq  5b93 <safe_mul_func_uint8_t_u_u>
    9cc6:	48 8b 05 ab a5 00 00 	mov    0xa5ab(%rip),%rax        # 14278 <g_634>
    9ccd:	48 8b 00             	mov    (%rax),%rax
    9cd0:	0f b6 00             	movzbl (%rax),%eax
    9cd3:	0f be d0             	movsbl %al,%edx
    9cd6:	48 8b 85 80 e9 ff ff 	mov    -0x1680(%rbp),%rax
    9cdd:	89 10                	mov    %edx,(%rax)
    9cdf:	b8 01 00 00 00       	mov    $0x1,%eax
    9ce4:	89 c2                	mov    %eax,%edx
    9ce6:	0f b7 05 59 85 00 00 	movzwl 0x8559(%rip),%eax        # 12246 <g_465>
    9ced:	31 d0                	xor    %edx,%eax
    9cef:	66 89 05 50 85 00 00 	mov    %ax,0x8550(%rip)        # 12246 <g_465>
    9cf6:	0f b7 15 49 85 00 00 	movzwl 0x8549(%rip),%edx        # 12246 <g_465>
    9cfd:	48 8b 85 70 eb ff ff 	mov    -0x1490(%rbp),%rax
    9d04:	0f b7 00             	movzwl (%rax),%eax
    9d07:	21 c2                	and    %eax,%edx
    9d09:	48 8b 85 70 eb ff ff 	mov    -0x1490(%rbp),%rax
    9d10:	66 89 10             	mov    %dx,(%rax)
    9d13:	48 8b 85 70 eb ff ff 	mov    -0x1490(%rbp),%rax
    9d1a:	0f b7 00             	movzwl (%rax),%eax
    9d1d:	f7 d0                	not    %eax
    9d1f:	0f b7 c0             	movzwl %ax,%eax
    9d22:	25 f0 a3 00 00       	and    $0xa3f0,%eax
    9d27:	89 c2                	mov    %eax,%edx
    9d29:	48 8b 85 60 eb ff ff 	mov    -0x14a0(%rbp),%rax
    9d30:	48 8b 8d 38 eb ff ff 	mov    -0x14c8(%rbp),%rcx
    9d37:	48 89 08             	mov    %rcx,(%rax)
    9d3a:	8b 85 8c e9 ff ff    	mov    -0x1674(%rbp),%eax
    9d40:	0f b7 c0             	movzwl %ax,%eax
    9d43:	89 d6                	mov    %edx,%esi
    9d45:	89 c7                	mov    %eax,%edi
    9d47:	e8 f1 bf ff ff       	callq  5d3d <safe_mul_func_uint16_t_u_u>
    9d4c:	0f b7 c0             	movzwl %ax,%eax
    9d4f:	be 09 00 00 00       	mov    $0x9,%esi
    9d54:	89 c7                	mov    %eax,%edi
    9d56:	e8 33 c0 ff ff       	callq  5d8e <safe_div_func_uint16_t_u_u>
    9d5b:	83 c8 01             	or     $0x1,%eax
    9d5e:	0f b6 c0             	movzbl %al,%eax
    9d61:	89 de                	mov    %ebx,%esi
    9d63:	89 c7                	mov    %eax,%edi
    9d65:	e8 f0 bd ff ff       	callq  5b5a <safe_add_func_uint8_t_u_u>
    9d6a:	8b 15 78 8e 00 00    	mov    0x8e78(%rip),%edx        # 12be8 <g_1140>
    9d70:	8b 85 08 f7 ff ff    	mov    -0x8f8(%rbp),%eax
    9d76:	31 d0                	xor    %edx,%eax
    9d78:	89 85 08 f7 ff ff    	mov    %eax,-0x8f8(%rbp)
    9d7e:	0f b7 85 e4 eb ff ff 	movzwl -0x141c(%rbp),%eax
    9d85:	66 85 c0             	test   %ax,%ax
    9d88:	74 27                	je     9db1 <func_38+0x25ae>
    9d8a:	eb 69                	jmp    9df5 <func_38+0x25f2>
    9d8c:	83 bd f8 e9 ff ff 00 	cmpl   $0x0,-0x1608(%rbp)
    9d93:	74 05                	je     9d9a <func_38+0x2597>
    9d95:	e9 78 e0 ff ff       	jmpq   7e12 <func_38+0x60f>
    9d9a:	8b 85 8c e9 ff ff    	mov    -0x1674(%rbp),%eax
    9da0:	85 c0                	test   %eax,%eax
    9da2:	75 6c                	jne    9e10 <func_38+0x260d>
    9da4:	8b 85 8c e9 ff ff    	mov    -0x1674(%rbp),%eax
    9daa:	48 98                	cltq   
    9dac:	e9 4f 01 00 00       	jmpq   9f00 <func_38+0x26fd>
    9db1:	48 8b 05 f0 a0 00 00 	mov    0xa0f0(%rip),%rax        # 13ea8 <g_81>
    9db8:	8b 00                	mov    (%rax),%eax
    9dba:	89 c1                	mov    %eax,%ecx
    9dbc:	8b 85 30 ec ff ff    	mov    -0x13d0(%rbp),%eax
    9dc2:	83 f8 01             	cmp    $0x1,%eax
    9dc5:	0f 94 c0             	sete   %al
    9dc8:	0f b6 c0             	movzbl %al,%eax
    9dcb:	48 8b 95 70 e9 ff ff 	mov    -0x1690(%rbp),%rdx
    9dd2:	09 d0                	or     %edx,%eax
    9dd4:	21 c1                	and    %eax,%ecx
    9dd6:	89 ca                	mov    %ecx,%edx
    9dd8:	48 8b 05 c9 a0 00 00 	mov    0xa0c9(%rip),%rax        # 13ea8 <g_81>
    9ddf:	89 10                	mov    %edx,(%rax)
    9de1:	48 8b 05 88 83 00 00 	mov    0x8388(%rip),%rax        # 12170 <g_192>
    9de8:	48 83 c0 01          	add    $0x1,%rax
    9dec:	48 89 05 7d 83 00 00 	mov    %rax,0x837d(%rip)        # 12170 <g_192>
    9df3:	eb 02                	jmp    9df7 <func_38+0x25f4>
    9df5:	eb 13                	jmp    9e0a <func_38+0x2607>
    9df7:	48 8b 05 72 83 00 00 	mov    0x8372(%rip),%rax        # 12170 <g_192>
    9dfe:	48 83 f8 09          	cmp    $0x9,%rax
    9e02:	0f 86 ca f1 ff ff    	jbe    8fd2 <func_38+0x17cf>
    9e08:	eb 07                	jmp    9e11 <func_38+0x260e>
    9e0a:	90                   	nop
    9e0b:	eb 04                	jmp    9e11 <func_38+0x260e>
    9e0d:	90                   	nop
    9e0e:	eb 01                	jmp    9e11 <func_38+0x260e>
    9e10:	90                   	nop
    9e11:	48 8b 05 d8 8d 00 00 	mov    0x8dd8(%rip),%rax        # 12bf0 <g_1152>
    9e18:	8b 85 8c e9 ff ff    	mov    -0x1674(%rbp),%eax
    9e1e:	41 89 c4             	mov    %eax,%r12d
    9e21:	48 8b 05 88 a4 00 00 	mov    0xa488(%rip),%rax        # 142b0 <g_878>
    9e28:	48 c7 00 00 00 00 00 	movq   $0x0,(%rax)
    9e2f:	48 8b 05 82 a0 00 00 	mov    0xa082(%rip),%rax        # 13eb8 <g_83>
    9e36:	48 8b 00             	mov    (%rax),%rax
    9e39:	48 8b 00             	mov    (%rax),%rax
    9e3c:	48 85 c0             	test   %rax,%rax
    9e3f:	0f 95 c0             	setne  %al
    9e42:	0f b6 d8             	movzbl %al,%ebx
    9e45:	48 8b 85 90 ea ff ff 	mov    -0x1570(%rbp),%rax
    9e4c:	48 89 85 38 f0 ff ff 	mov    %rax,-0xfc8(%rbp)
    9e53:	48 8b 95 38 f0 ff ff 	mov    -0xfc8(%rbp),%rdx
    9e5a:	48 8b 85 10 eb ff ff 	mov    -0x14f0(%rbp),%rax
    9e61:	48 89 10             	mov    %rdx,(%rax)
    9e64:	48 8b 85 10 eb ff ff 	mov    -0x14f0(%rbp),%rax
    9e6b:	48 8b 00             	mov    (%rax),%rax
    9e6e:	48 8d 15 0b a4 00 00 	lea    0xa40b(%rip),%rdx        # 14280 <g_725>
    9e75:	48 39 d0             	cmp    %rdx,%rax
    9e78:	0f 94 c0             	sete   %al
    9e7b:	0f b6 c0             	movzbl %al,%eax
    9e7e:	be 05 00 00 00       	mov    $0x5,%esi
    9e83:	89 c7                	mov    %eax,%edi
    9e85:	e8 64 b4 ff ff       	callq  52ee <safe_lshift_func_int8_t_s_u>
    9e8a:	0f be c0             	movsbl %al,%eax
    9e8d:	39 c3                	cmp    %eax,%ebx
    9e8f:	0f 9c c0             	setl   %al
    9e92:	89 c2                	mov    %eax,%edx
    9e94:	48 8b 85 70 e9 ff ff 	mov    -0x1690(%rbp),%rax
    9e9b:	31 d0                	xor    %edx,%eax
    9e9d:	0f be c0             	movsbl %al,%eax
    9ea0:	44 89 e6             	mov    %r12d,%esi
    9ea3:	89 c7                	mov    %eax,%edi
    9ea5:	e8 c2 b4 ff ff       	callq  536c <safe_rshift_func_int8_t_s_u>
    9eaa:	48 8b 85 60 ec ff ff 	mov    -0x13a0(%rbp),%rax
    9eb1:	48 39 85 d0 ea ff ff 	cmp    %rax,-0x1530(%rbp)
    9eb8:	0f 95 c0             	setne  %al
    9ebb:	0f b6 d0             	movzbl %al,%edx
    9ebe:	48 8b 85 18 eb ff ff 	mov    -0x14e8(%rbp),%rax
    9ec5:	8b 00                	mov    (%rax),%eax
    9ec7:	09 c2                	or     %eax,%edx
    9ec9:	48 8b 85 18 eb ff ff 	mov    -0x14e8(%rbp),%rax
    9ed0:	89 10                	mov    %edx,(%rax)
    9ed2:	48 8b 05 d7 a3 00 00 	mov    0xa3d7(%rip),%rax        # 142b0 <g_878>
    9ed9:	48 8b 95 20 eb ff ff 	mov    -0x14e0(%rbp),%rdx
    9ee0:	48 89 10             	mov    %rdx,(%rax)
    9ee3:	48 83 85 70 e9 ff ff 	addq   $0x1,-0x1690(%rbp)
    9eea:	01 
    9eeb:	48 83 bd 70 e9 ff ff 	cmpq   $0x6,-0x1690(%rbp)
    9ef2:	06 
    9ef3:	0f 87 b2 ef ff ff    	ja     8eab <func_38+0x16a8>
    9ef9:	48 8b 85 70 e9 ff ff 	mov    -0x1690(%rbp),%rax
    9f00:	48 8b 5d c8          	mov    -0x38(%rbp),%rbx
    9f04:	64 48 33 1c 25 28 00 	xor    %fs:0x28,%rbx
    9f0b:	00 00 
    9f0d:	74 05                	je     9f14 <func_38+0x2711>
    9f0f:	e8 5c b1 ff ff       	callq  5070 <__stack_chk_fail@plt>
    9f14:	48 81 c4 68 16 00 00 	add    $0x1668,%rsp
    9f1b:	5b                   	pop    %rbx
    9f1c:	41 5c                	pop    %r12
    9f1e:	41 5d                	pop    %r13
    9f20:	41 5e                	pop    %r14
    9f22:	41 5f                	pop    %r15
    9f24:	5d                   	pop    %rbp
    9f25:	c3                   	retq   

0000000000009f26 <func_44>:
    9f26:	f3 0f 1e fa          	endbr64 
    9f2a:	55                   	push   %rbp
    9f2b:	48 89 e5             	mov    %rsp,%rbp
    9f2e:	41 57                	push   %r15
    9f30:	41 56                	push   %r14
    9f32:	41 55                	push   %r13
    9f34:	41 54                	push   %r12
    9f36:	53                   	push   %rbx
    9f37:	48 81 ec c8 07 00 00 	sub    $0x7c8,%rsp
    9f3e:	48 89 bd 28 f8 ff ff 	mov    %rdi,-0x7d8(%rbp)
    9f45:	89 b5 24 f8 ff ff    	mov    %esi,-0x7dc(%rbp)
    9f4b:	64 48 8b 04 25 28 00 	mov    %fs:0x28,%rax
    9f52:	00 00 
    9f54:	48 89 45 c8          	mov    %rax,-0x38(%rbp)
    9f58:	31 c0                	xor    %eax,%eax
    9f5a:	c7 85 5c f8 ff ff 00 	movl   $0x0,-0x7a4(%rbp)
    9f61:	00 00 00 
    9f64:	c7 85 38 f8 ff ff 35 	movl   $0xa30e5935,-0x7c8(%rbp)
    9f6b:	59 0e a3 
    9f6e:	48 8d 05 13 81 00 00 	lea    0x8113(%rip),%rax        # 12088 <g_112+0x8>
    9f75:	48 89 85 30 fb ff ff 	mov    %rax,-0x4d0(%rbp)
    9f7c:	48 8d 05 35 81 00 00 	lea    0x8135(%rip),%rax        # 120b8 <g_112+0x38>
    9f83:	48 89 85 38 fb ff ff 	mov    %rax,-0x4c8(%rbp)
    9f8a:	48 8d 05 f7 80 00 00 	lea    0x80f7(%rip),%rax        # 12088 <g_112+0x8>
    9f91:	48 89 85 40 fb ff ff 	mov    %rax,-0x4c0(%rbp)
    9f98:	48 8d 05 e9 80 00 00 	lea    0x80e9(%rip),%rax        # 12088 <g_112+0x8>
    9f9f:	48 89 85 48 fb ff ff 	mov    %rax,-0x4b8(%rbp)
    9fa6:	48 8d 05 db 80 00 00 	lea    0x80db(%rip),%rax        # 12088 <g_112+0x8>
    9fad:	48 89 85 50 fb ff ff 	mov    %rax,-0x4b0(%rbp)
    9fb4:	48 8d 05 cd 80 00 00 	lea    0x80cd(%rip),%rax        # 12088 <g_112+0x8>
    9fbb:	48 89 85 58 fb ff ff 	mov    %rax,-0x4a8(%rbp)
    9fc2:	48 8d 05 bf 80 00 00 	lea    0x80bf(%rip),%rax        # 12088 <g_112+0x8>
    9fc9:	48 89 85 60 fb ff ff 	mov    %rax,-0x4a0(%rbp)
    9fd0:	48 8d 05 b1 80 00 00 	lea    0x80b1(%rip),%rax        # 12088 <g_112+0x8>
    9fd7:	48 89 85 68 fb ff ff 	mov    %rax,-0x498(%rbp)
    9fde:	48 8d 05 a3 80 00 00 	lea    0x80a3(%rip),%rax        # 12088 <g_112+0x8>
    9fe5:	48 89 85 70 fb ff ff 	mov    %rax,-0x490(%rbp)
    9fec:	48 8d 05 c5 80 00 00 	lea    0x80c5(%rip),%rax        # 120b8 <g_112+0x38>
    9ff3:	48 89 85 78 fb ff ff 	mov    %rax,-0x488(%rbp)
    9ffa:	c7 85 80 fa ff ff f6 	movl   $0xfffffff6,-0x580(%rbp)
    a001:	ff ff ff 
    a004:	c7 85 84 fa ff ff f6 	movl   $0xfffffff6,-0x57c(%rbp)
    a00b:	ff ff ff 
    a00e:	c7 85 88 fa ff ff f6 	movl   $0xfffffff6,-0x578(%rbp)
    a015:	ff ff ff 
    a018:	c7 85 8c fa ff ff f6 	movl   $0xfffffff6,-0x574(%rbp)
    a01f:	ff ff ff 
    a022:	c7 85 90 fa ff ff f6 	movl   $0xfffffff6,-0x570(%rbp)
    a029:	ff ff ff 
    a02c:	c7 85 94 fa ff ff f6 	movl   $0xfffffff6,-0x56c(%rbp)
    a033:	ff ff ff 
    a036:	c7 85 3c f8 ff ff 09 	movl   $0x9,-0x7c4(%rbp)
    a03d:	00 00 00 
    a040:	c7 85 40 f8 ff ff 01 	movl   $0x1,-0x7c0(%rbp)
    a047:	00 00 00 
    a04a:	c7 85 44 f8 ff ff fd 	movl   $0xfffffffd,-0x7bc(%rbp)
    a051:	ff ff ff 
    a054:	c7 85 80 f8 ff ff 01 	movl   $0x1,-0x780(%rbp)
    a05b:	00 00 00 
    a05e:	48 8d 05 eb 80 00 00 	lea    0x80eb(%rip),%rax        # 12150 <g_137>
    a065:	48 89 85 c0 f8 ff ff 	mov    %rax,-0x740(%rbp)
    a06c:	48 8d 85 c0 f8 ff ff 	lea    -0x740(%rbp),%rax
    a073:	48 89 85 10 f9 ff ff 	mov    %rax,-0x6f0(%rbp)
    a07a:	48 8d 05 e5 7f 00 00 	lea    0x7fe5(%rip),%rax        # 12066 <g_77+0x1>
    a081:	48 89 85 c8 f8 ff ff 	mov    %rax,-0x738(%rbp)
    a088:	48 8d 05 01 81 00 00 	lea    0x8101(%rip),%rax        # 12190 <g_241>
    a08f:	48 89 85 d0 f8 ff ff 	mov    %rax,-0x730(%rbp)
    a096:	c6 85 31 f8 ff ff 21 	movb   $0x21,-0x7cf(%rbp)
    a09d:	48 8d 05 d4 80 00 00 	lea    0x80d4(%rip),%rax        # 12178 <g_209>
    a0a4:	48 89 85 18 f9 ff ff 	mov    %rax,-0x6e8(%rbp)
    a0ab:	c7 85 48 f8 ff ff cf 	movl   $0xd07e57cf,-0x7b8(%rbp)
    a0b2:	57 7e d0 
    a0b5:	48 8d 05 a8 7f 00 00 	lea    0x7fa8(%rip),%rax        # 12064 <g_68>
    a0bc:	48 89 85 20 f9 ff ff 	mov    %rax,-0x6e0(%rbp)
    a0c3:	c7 85 84 f8 ff ff 36 	movl   $0x3d2d6b36,-0x77c(%rbp)
    a0ca:	6b 2d 3d 
    a0cd:	c6 85 32 f8 ff ff 02 	movb   $0x2,-0x7ce(%rbp)
    a0d4:	48 b8 1f dd fa 5a e3 	movabs $0x93fb2fe35afadd1f,%rax
    a0db:	2f fb 93 
    a0de:	48 89 85 80 fb ff ff 	mov    %rax,-0x480(%rbp)
    a0e5:	48 89 85 88 fb ff ff 	mov    %rax,-0x478(%rbp)
    a0ec:	48 89 85 90 fb ff ff 	mov    %rax,-0x470(%rbp)
    a0f3:	48 89 85 98 fb ff ff 	mov    %rax,-0x468(%rbp)
    a0fa:	48 89 85 a0 fb ff ff 	mov    %rax,-0x460(%rbp)
    a101:	48 89 85 a8 fb ff ff 	mov    %rax,-0x458(%rbp)
    a108:	48 89 85 b0 fb ff ff 	mov    %rax,-0x450(%rbp)
    a10f:	48 89 85 b8 fb ff ff 	mov    %rax,-0x448(%rbp)
    a116:	48 89 85 c0 fb ff ff 	mov    %rax,-0x440(%rbp)
    a11d:	48 89 85 c8 fb ff ff 	mov    %rax,-0x438(%rbp)
    a124:	c7 85 88 f8 ff ff 53 	movl   $0xeac06e53,-0x778(%rbp)
    a12b:	6e c0 ea 
    a12e:	c7 85 60 f8 ff ff 00 	movl   $0x0,-0x7a0(%rbp)
    a135:	00 00 00 
    a138:	eb 1e                	jmp    a158 <func_44+0x232>
    a13a:	8b 85 60 f8 ff ff    	mov    -0x7a0(%rbp),%eax
    a140:	48 98                	cltq   
    a142:	48 8d 95 d0 f8 ff ff 	lea    -0x730(%rbp),%rdx
    a149:	48 89 94 c5 70 fa ff 	mov    %rdx,-0x590(%rbp,%rax,8)
    a150:	ff 
    a151:	83 85 60 f8 ff ff 01 	addl   $0x1,-0x7a0(%rbp)
    a158:	83 bd 60 f8 ff ff 01 	cmpl   $0x1,-0x7a0(%rbp)
    a15f:	7e d9                	jle    a13a <func_44+0x214>
    a161:	c6 05 fc 7e 00 00 f1 	movb   $0xf1,0x7efc(%rip)        # 12064 <g_68>
    a168:	90                   	nop
    a169:	0f b6 05 f4 7e 00 00 	movzbl 0x7ef4(%rip),%eax        # 12064 <g_68>
    a170:	3c ed                	cmp    $0xed,%al
    a172:	0f 8c 1a 09 00 00    	jl     aa92 <func_44+0xb6c>
    a178:	48 8d 05 e5 7e 00 00 	lea    0x7ee5(%rip),%rax        # 12064 <g_68>
    a17f:	48 89 85 d0 fb ff ff 	mov    %rax,-0x430(%rbp)
    a186:	48 8d 05 d7 7e 00 00 	lea    0x7ed7(%rip),%rax        # 12064 <g_68>
    a18d:	48 89 85 d8 fb ff ff 	mov    %rax,-0x428(%rbp)
    a194:	48 8d 05 c9 7e 00 00 	lea    0x7ec9(%rip),%rax        # 12064 <g_68>
    a19b:	48 89 85 e0 fb ff ff 	mov    %rax,-0x420(%rbp)
    a1a2:	48 8d 05 bb 7e 00 00 	lea    0x7ebb(%rip),%rax        # 12064 <g_68>
    a1a9:	48 89 85 e8 fb ff ff 	mov    %rax,-0x418(%rbp)
    a1b0:	48 8d 05 ad 7e 00 00 	lea    0x7ead(%rip),%rax        # 12064 <g_68>
    a1b7:	48 89 85 f0 fb ff ff 	mov    %rax,-0x410(%rbp)
    a1be:	48 8d 05 9f 7e 00 00 	lea    0x7e9f(%rip),%rax        # 12064 <g_68>
    a1c5:	48 89 85 f8 fb ff ff 	mov    %rax,-0x408(%rbp)
    a1cc:	48 8d 05 91 7e 00 00 	lea    0x7e91(%rip),%rax        # 12064 <g_68>
    a1d3:	48 89 85 00 fc ff ff 	mov    %rax,-0x400(%rbp)
    a1da:	48 8d 05 83 7e 00 00 	lea    0x7e83(%rip),%rax        # 12064 <g_68>
    a1e1:	48 89 85 08 fc ff ff 	mov    %rax,-0x3f8(%rbp)
    a1e8:	48 8d 05 75 7e 00 00 	lea    0x7e75(%rip),%rax        # 12064 <g_68>
    a1ef:	48 89 85 10 fc ff ff 	mov    %rax,-0x3f0(%rbp)
    a1f6:	48 8d 05 67 7e 00 00 	lea    0x7e67(%rip),%rax        # 12064 <g_68>
    a1fd:	48 89 85 18 fc ff ff 	mov    %rax,-0x3e8(%rbp)
    a204:	48 8d 05 59 7e 00 00 	lea    0x7e59(%rip),%rax        # 12064 <g_68>
    a20b:	48 89 85 20 fc ff ff 	mov    %rax,-0x3e0(%rbp)
    a212:	48 8d 05 4b 7e 00 00 	lea    0x7e4b(%rip),%rax        # 12064 <g_68>
    a219:	48 89 85 28 fc ff ff 	mov    %rax,-0x3d8(%rbp)
    a220:	48 8d 05 3d 7e 00 00 	lea    0x7e3d(%rip),%rax        # 12064 <g_68>
    a227:	48 89 85 30 fc ff ff 	mov    %rax,-0x3d0(%rbp)
    a22e:	48 8d 05 2f 7e 00 00 	lea    0x7e2f(%rip),%rax        # 12064 <g_68>
    a235:	48 89 85 38 fc ff ff 	mov    %rax,-0x3c8(%rbp)
    a23c:	48 8d 05 21 7e 00 00 	lea    0x7e21(%rip),%rax        # 12064 <g_68>
    a243:	48 89 85 40 fc ff ff 	mov    %rax,-0x3c0(%rbp)
    a24a:	48 8d 05 13 7e 00 00 	lea    0x7e13(%rip),%rax        # 12064 <g_68>
    a251:	48 89 85 48 fc ff ff 	mov    %rax,-0x3b8(%rbp)
    a258:	48 8d 05 05 7e 00 00 	lea    0x7e05(%rip),%rax        # 12064 <g_68>
    a25f:	48 89 85 50 fc ff ff 	mov    %rax,-0x3b0(%rbp)
    a266:	48 8d 05 f7 7d 00 00 	lea    0x7df7(%rip),%rax        # 12064 <g_68>
    a26d:	48 89 85 58 fc ff ff 	mov    %rax,-0x3a8(%rbp)
    a274:	48 8d 05 e9 7d 00 00 	lea    0x7de9(%rip),%rax        # 12064 <g_68>
    a27b:	48 89 85 60 fc ff ff 	mov    %rax,-0x3a0(%rbp)
    a282:	48 8d 05 db 7d 00 00 	lea    0x7ddb(%rip),%rax        # 12064 <g_68>
    a289:	48 89 85 68 fc ff ff 	mov    %rax,-0x398(%rbp)
    a290:	48 8d 05 cd 7d 00 00 	lea    0x7dcd(%rip),%rax        # 12064 <g_68>
    a297:	48 89 85 70 fc ff ff 	mov    %rax,-0x390(%rbp)
    a29e:	48 8d 05 bf 7d 00 00 	lea    0x7dbf(%rip),%rax        # 12064 <g_68>
    a2a5:	48 89 85 78 fc ff ff 	mov    %rax,-0x388(%rbp)
    a2ac:	48 8d 05 b1 7d 00 00 	lea    0x7db1(%rip),%rax        # 12064 <g_68>
    a2b3:	48 89 85 80 fc ff ff 	mov    %rax,-0x380(%rbp)
    a2ba:	48 8d 05 a3 7d 00 00 	lea    0x7da3(%rip),%rax        # 12064 <g_68>
    a2c1:	48 89 85 88 fc ff ff 	mov    %rax,-0x378(%rbp)
    a2c8:	c6 85 33 f8 ff ff 03 	movb   $0x3,-0x7cd(%rbp)
    a2cf:	c7 85 b0 f8 ff ff c7 	movl   $0x430db7c7,-0x750(%rbp)
    a2d6:	b7 0d 43 
    a2d9:	c7 85 b4 f8 ff ff e3 	movl   $0x8e7cc0e3,-0x74c(%rbp)
    a2e0:	c0 7c 8e 
    a2e3:	48 b8 2c a7 03 3b 71 	movabs $0x50e090713b03a72c,%rax
    a2ea:	90 e0 50 
    a2ed:	48 89 85 08 f9 ff ff 	mov    %rax,-0x6f8(%rbp)
    a2f4:	48 8d 05 55 7e 00 00 	lea    0x7e55(%rip),%rax        # 12150 <g_137>
    a2fb:	48 89 85 f8 f8 ff ff 	mov    %rax,-0x708(%rbp)
    a302:	48 8d 85 f8 f8 ff ff 	lea    -0x708(%rbp),%rax
    a309:	48 89 85 50 fa ff ff 	mov    %rax,-0x5b0(%rbp)
    a310:	66 c7 05 27 7e 00 00 	movw   $0xfffa,0x7e27(%rip)        # 12140 <g_116>
    a317:	fa ff 
    a319:	e9 57 07 00 00       	jmpq   aa75 <func_44+0xb4f>
    a31e:	48 8d 05 a7 a4 00 00 	lea    0xa4a7(%rip),%rax        # 147cc <g_126>
    a325:	48 89 85 58 fa ff ff 	mov    %rax,-0x5a8(%rbp)
    a32c:	c7 85 64 f8 ff ff 48 	movl   $0x26ed3048,-0x79c(%rbp)
    a333:	30 ed 26 
    a336:	48 8d 05 03 7d 00 00 	lea    0x7d03(%rip),%rax        # 12040 <g_19>
    a33d:	48 89 85 00 f9 ff ff 	mov    %rax,-0x700(%rbp)
    a344:	48 8d 85 00 f9 ff ff 	lea    -0x700(%rbp),%rax
    a34b:	48 89 85 60 fa ff ff 	mov    %rax,-0x5a0(%rbp)
    a352:	48 8b 85 58 fa ff ff 	mov    -0x5a8(%rbp),%rax
    a359:	0f b7 00             	movzwl (%rax),%eax
    a35c:	89 c2                	mov    %eax,%edx
    a35e:	48 8b 85 88 fc ff ff 	mov    -0x378(%rbp),%rax
    a365:	48 85 c0             	test   %rax,%rax
    a368:	0f 95 c0             	setne  %al
    a36b:	0f b6 c0             	movzbl %al,%eax
    a36e:	21 d0                	and    %edx,%eax
    a370:	89 c2                	mov    %eax,%edx
    a372:	48 8b 85 58 fa ff ff 	mov    -0x5a8(%rbp),%rax
    a379:	66 89 10             	mov    %dx,(%rax)
    a37c:	48 8b 85 58 fa ff ff 	mov    -0x5a8(%rbp),%rax
    a383:	0f b7 00             	movzwl (%rax),%eax
    a386:	0f b7 d0             	movzwl %ax,%edx
    a389:	8b 05 b5 7d 00 00    	mov    0x7db5(%rip),%eax        # 12144 <g_118>
    a38f:	39 c2                	cmp    %eax,%edx
    a391:	0f 84 56 05 00 00    	je     a8ed <func_44+0x9c7>
    a397:	c7 85 bc f8 ff ff 00 	movl   $0x0,-0x744(%rbp)
    a39e:	00 00 00 
    a3a1:	48 8d 05 a8 7d 00 00 	lea    0x7da8(%rip),%rax        # 12150 <g_137>
    a3a8:	48 89 85 e0 fa ff ff 	mov    %rax,-0x520(%rbp)
    a3af:	48 8d 05 9a 7d 00 00 	lea    0x7d9a(%rip),%rax        # 12150 <g_137>
    a3b6:	48 89 85 e8 fa ff ff 	mov    %rax,-0x518(%rbp)
    a3bd:	48 8d 05 8c 7d 00 00 	lea    0x7d8c(%rip),%rax        # 12150 <g_137>
    a3c4:	48 89 85 f0 fa ff ff 	mov    %rax,-0x510(%rbp)
    a3cb:	48 8d 05 7e 7d 00 00 	lea    0x7d7e(%rip),%rax        # 12150 <g_137>
    a3d2:	48 89 85 f8 fa ff ff 	mov    %rax,-0x508(%rbp)
    a3d9:	48 8d 05 70 7d 00 00 	lea    0x7d70(%rip),%rax        # 12150 <g_137>
    a3e0:	48 89 85 00 fb ff ff 	mov    %rax,-0x500(%rbp)
    a3e7:	48 8d 05 62 7d 00 00 	lea    0x7d62(%rip),%rax        # 12150 <g_137>
    a3ee:	48 89 85 08 fb ff ff 	mov    %rax,-0x4f8(%rbp)
    a3f5:	48 8d 05 54 7d 00 00 	lea    0x7d54(%rip),%rax        # 12150 <g_137>
    a3fc:	48 89 85 10 fb ff ff 	mov    %rax,-0x4f0(%rbp)
    a403:	48 8d 05 46 7d 00 00 	lea    0x7d46(%rip),%rax        # 12150 <g_137>
    a40a:	48 89 85 18 fb ff ff 	mov    %rax,-0x4e8(%rbp)
    a411:	8b 85 64 f8 ff ff    	mov    -0x79c(%rbp),%eax
    a417:	89 85 bc f8 ff ff    	mov    %eax,-0x744(%rbp)
    a41d:	83 bd bc f8 ff ff 00 	cmpl   $0x0,-0x744(%rbp)
    a424:	0f 85 e6 00 00 00    	jne    a510 <func_44+0x5ea>
    a42a:	8b 05 14 7d 00 00    	mov    0x7d14(%rip),%eax        # 12144 <g_118>
    a430:	0f bf d8             	movswl %ax,%ebx
    a433:	c7 85 5c f8 ff ff fc 	movl   $0xfffffffc,-0x7a4(%rbp)
    a43a:	ff ff ff 
    a43d:	48 c7 c6 fc ff ff ff 	mov    $0xfffffffffffffffc,%rsi
    a444:	bf 00 00 00 00       	mov    $0x0,%edi
    a449:	e8 fd bb ff ff       	callq  604b <safe_sub_func_uint64_t_u_u>
    a44e:	0f be d0             	movsbl %al,%edx
    a451:	48 8b 05 60 9a 00 00 	mov    0x9a60(%rip),%rax        # 13eb8 <g_83>
    a458:	48 8b 00             	mov    (%rax),%rax
    a45b:	48 8b 00             	mov    (%rax),%rax
    a45e:	8b 00                	mov    (%rax),%eax
    a460:	83 e0 f7             	and    $0xfffffff7,%eax
    a463:	0f be c0             	movsbl %al,%eax
    a466:	89 d6                	mov    %edx,%esi
    a468:	89 c7                	mov    %eax,%edi
    a46a:	e8 fb ad ff ff       	callq  526a <safe_div_func_int8_t_s_s>
    a46f:	44 0f be e0          	movsbl %al,%r12d
    a473:	48 8b 85 58 fa ff ff 	mov    -0x5a8(%rbp),%rax
    a47a:	0f b7 00             	movzwl (%rax),%eax
    a47d:	8d 50 ff             	lea    -0x1(%rax),%edx
    a480:	48 8b 85 58 fa ff ff 	mov    -0x5a8(%rbp),%rax
    a487:	66 89 10             	mov    %dx,(%rax)
    a48a:	48 8b 85 58 fa ff ff 	mov    -0x5a8(%rbp),%rax
    a491:	44 0f b7 28          	movzwl (%rax),%r13d
    a495:	be 06 00 00 00       	mov    $0x6,%esi
    a49a:	bf 00 00 00 00       	mov    $0x0,%edi
    a49f:	e8 86 b0 ff ff       	callq  552a <safe_rshift_func_int16_t_s_s>
    a4a4:	0f bf d0             	movswl %ax,%edx
    a4a7:	8b 85 38 f8 ff ff    	mov    -0x7c8(%rbp),%eax
    a4ad:	39 c2                	cmp    %eax,%edx
    a4af:	0f 9c c0             	setl   %al
    a4b2:	0f b6 c0             	movzbl %al,%eax
    a4b5:	be ff ff 00 00       	mov    $0xffff,%esi
    a4ba:	89 c7                	mov    %eax,%edi
    a4bc:	e8 7c b8 ff ff       	callq  5d3d <safe_mul_func_uint16_t_u_u>
    a4c1:	44 21 e8             	and    %r13d,%eax
    a4c4:	0f b7 c0             	movzwl %ax,%eax
    a4c7:	39 85 24 f8 ff ff    	cmp    %eax,-0x7dc(%rbp)
    a4cd:	0f 94 c0             	sete   %al
    a4d0:	0f b6 d0             	movzbl %al,%edx
    a4d3:	8b 85 38 f8 ff ff    	mov    -0x7c8(%rbp),%eax
    a4d9:	21 d0                	and    %edx,%eax
    a4db:	44 09 e0             	or     %r12d,%eax
    a4de:	09 85 64 f8 ff ff    	or     %eax,-0x79c(%rbp)
    a4e4:	8b 85 64 f8 ff ff    	mov    -0x79c(%rbp),%eax
    a4ea:	89 85 38 f8 ff ff    	mov    %eax,-0x7c8(%rbp)
    a4f0:	8b 85 38 f8 ff ff    	mov    -0x7c8(%rbp),%eax
    a4f6:	39 85 24 f8 ff ff    	cmp    %eax,-0x7dc(%rbp)
    a4fc:	0f 96 c0             	setbe  %al
    a4ff:	0f b6 c0             	movzbl %al,%eax
    a502:	89 de                	mov    %ebx,%esi
    a504:	89 c7                	mov    %eax,%edi
    a506:	e8 ea ae ff ff       	callq  53f5 <safe_mul_func_int16_t_s_s>
    a50b:	66 85 c0             	test   %ax,%ax
    a50e:	74 07                	je     a517 <func_44+0x5f1>
    a510:	b8 01 00 00 00       	mov    $0x1,%eax
    a515:	eb 05                	jmp    a51c <func_44+0x5f6>
    a517:	b8 00 00 00 00       	mov    $0x0,%eax
    a51c:	83 f8 13             	cmp    $0x13,%eax
    a51f:	0f 9f c0             	setg   %al
    a522:	0f b6 c0             	movzbl %al,%eax
    a525:	39 85 24 f8 ff ff    	cmp    %eax,-0x7dc(%rbp)
    a52b:	77 0a                	ja     a537 <func_44+0x611>
    a52d:	8b 05 0d 7b 00 00    	mov    0x7b0d(%rip),%eax        # 12040 <g_19>
    a533:	85 c0                	test   %eax,%eax
    a535:	74 07                	je     a53e <func_44+0x618>
    a537:	ba 01 00 00 00       	mov    $0x1,%edx
    a53c:	eb 05                	jmp    a543 <func_44+0x61d>
    a53e:	ba 00 00 00 00       	mov    $0x0,%edx
    a543:	48 8b 05 5e 99 00 00 	mov    0x995e(%rip),%rax        # 13ea8 <g_81>
    a54a:	89 10                	mov    %edx,(%rax)
    a54c:	48 8b 85 58 fb ff ff 	mov    -0x4a8(%rbp),%rax
    a553:	48 85 c0             	test   %rax,%rax
    a556:	0f 95 c0             	setne  %al
    a559:	0f b6 c0             	movzbl %al,%eax
    a55c:	be a0 71 00 49       	mov    $0x490071a0,%esi
    a561:	89 c7                	mov    %eax,%edi
    a563:	e8 bd b9 ff ff       	callq  5f25 <safe_div_func_uint32_t_u_u>
    a568:	85 c0                	test   %eax,%eax
    a56a:	8b 05 58 a2 00 00    	mov    0xa258(%rip),%eax        # 147c8 <g_72>
    a570:	0f b6 d8             	movzbl %al,%ebx
    a573:	83 bd 64 f8 ff ff 00 	cmpl   $0x0,-0x79c(%rbp)
    a57a:	74 77                	je     a5f3 <func_44+0x6cd>
    a57c:	48 8b 05 25 99 00 00 	mov    0x9925(%rip),%rax        # 13ea8 <g_81>
    a583:	8b 00                	mov    (%rax),%eax
    a585:	85 c0                	test   %eax,%eax
    a587:	75 0e                	jne    a597 <func_44+0x671>
    a589:	48 8d 05 b0 7a 00 00 	lea    0x7ab0(%rip),%rax        # 12040 <g_19>
    a590:	8b 00                	mov    (%rax),%eax
    a592:	83 f8 01             	cmp    $0x1,%eax
    a595:	76 07                	jbe    a59e <func_44+0x678>
    a597:	b8 01 00 00 00       	mov    $0x1,%eax
    a59c:	eb 05                	jmp    a5a3 <func_44+0x67d>
    a59e:	b8 00 00 00 00       	mov    $0x0,%eax
    a5a3:	98                   	cwtl   
    a5a4:	be 0d 00 00 00       	mov    $0xd,%esi
    a5a9:	89 c7                	mov    %eax,%edi
    a5ab:	e8 e2 ae ff ff       	callq  5492 <safe_lshift_func_int16_t_s_s>
    a5b0:	48 0f bf c0          	movswq %ax,%rax
    a5b4:	48 c7 c6 fa ff ff ff 	mov    $0xfffffffffffffffa,%rsi
    a5bb:	48 89 c7             	mov    %rax,%rdi
    a5be:	e8 f1 b3 ff ff       	callq  59b4 <safe_mod_func_int64_t_s_s>
    a5c3:	89 c2                	mov    %eax,%edx
    a5c5:	0f b7 05 58 7a 00 00 	movzwl 0x7a58(%rip),%eax        # 12024 <g_2>
    a5cc:	0f b7 c0             	movzwl %ax,%eax
    a5cf:	31 d0                	xor    %edx,%eax
    a5d1:	89 85 64 f8 ff ff    	mov    %eax,-0x79c(%rbp)
    a5d7:	83 bd 64 f8 ff ff 00 	cmpl   $0x0,-0x79c(%rbp)
    a5de:	74 13                	je     a5f3 <func_44+0x6cd>
    a5e0:	0f b7 05 3d 7a 00 00 	movzwl 0x7a3d(%rip),%eax        # 12024 <g_2>
    a5e7:	66 85 c0             	test   %ax,%ax
    a5ea:	74 07                	je     a5f3 <func_44+0x6cd>
    a5ec:	b8 01 00 00 00       	mov    $0x1,%eax
    a5f1:	eb 05                	jmp    a5f8 <func_44+0x6d2>
    a5f3:	b8 00 00 00 00       	mov    $0x0,%eax
    a5f8:	0b 85 24 f8 ff ff    	or     -0x7dc(%rbp),%eax
    a5fe:	39 85 24 f8 ff ff    	cmp    %eax,-0x7dc(%rbp)
    a604:	0f 97 c0             	seta   %al
    a607:	0f b6 c0             	movzbl %al,%eax
    a60a:	89 de                	mov    %ebx,%esi
    a60c:	89 c7                	mov    %eax,%edi
    a60e:	e8 47 b5 ff ff       	callq  5b5a <safe_add_func_uint8_t_u_u>
    a613:	8b 85 38 f8 ff ff    	mov    -0x7c8(%rbp),%eax
    a619:	85 c0                	test   %eax,%eax
    a61b:	74 08                	je     a625 <func_44+0x6ff>
    a61d:	8b 85 38 f8 ff ff    	mov    -0x7c8(%rbp),%eax
    a623:	85 c0                	test   %eax,%eax
    a625:	48 8b 05 2c 7b 00 00 	mov    0x7b2c(%rip),%rax        # 12158 <g_137+0x8>
    a62c:	48 85 c0             	test   %rax,%rax
    a62f:	74 07                	je     a638 <func_44+0x712>
    a631:	b8 01 00 00 00       	mov    $0x1,%eax
    a636:	eb 05                	jmp    a63d <func_44+0x717>
    a638:	b8 00 00 00 00       	mov    $0x0,%eax
    a63d:	83 f8 ff             	cmp    $0xffffffff,%eax
    a640:	0f 84 c0 00 00 00    	je     a706 <func_44+0x7e0>
    a646:	8b 15 0c 7a 00 00    	mov    0x7a0c(%rip),%edx        # 12058 <g_19+0x18>
    a64c:	48 8b 85 28 f8 ff ff 	mov    -0x7d8(%rbp),%rax
    a653:	48 8b 00             	mov    (%rax),%rax
    a656:	8b 08                	mov    (%rax),%ecx
    a658:	48 8b 05 41 98 00 00 	mov    0x9841(%rip),%rax        # 13ea0 <g_47>
    a65f:	48 8b 00             	mov    (%rax),%rax
    a662:	8b 00                	mov    (%rax),%eax
    a664:	39 c1                	cmp    %eax,%ecx
    a666:	0f 95 c0             	setne  %al
    a669:	0f b6 c0             	movzbl %al,%eax
    a66c:	89 d6                	mov    %edx,%esi
    a66e:	89 c7                	mov    %eax,%edi
    a670:	e8 91 b7 ff ff       	callq  5e06 <safe_lshift_func_uint16_t_u_u>
    a675:	0f b7 d8             	movzwl %ax,%ebx
    a678:	0f be 95 33 f8 ff ff 	movsbl -0x7cd(%rbp),%edx
    a67f:	8b 85 bc f8 ff ff    	mov    -0x744(%rbp),%eax
    a685:	98                   	cwtl   
    a686:	89 d6                	mov    %edx,%esi
    a688:	89 c7                	mov    %eax,%edi
    a68a:	e8 44 ad ff ff       	callq  53d3 <safe_sub_func_int16_t_s_s>
    a68f:	0f be d0             	movsbl %al,%edx
    a692:	48 8b 05 c7 7a 00 00 	mov    0x7ac7(%rip),%rax        # 12160 <g_166>
    a699:	48 8b 85 58 fb ff ff 	mov    -0x4a8(%rbp),%rax
    a6a0:	48 85 c0             	test   %rax,%rax
    a6a3:	0f 95 c0             	setne  %al
    a6a6:	0f b6 c0             	movzbl %al,%eax
    a6a9:	39 85 24 f8 ff ff    	cmp    %eax,-0x7dc(%rbp)
    a6af:	0f 92 c0             	setb   %al
    a6b2:	0f b6 c0             	movzbl %al,%eax
    a6b5:	89 d6                	mov    %edx,%esi
    a6b7:	89 c7                	mov    %eax,%edi
    a6b9:	e8 ac ab ff ff       	callq  526a <safe_div_func_int8_t_s_s>
    a6be:	0f b6 c0             	movzbl %al,%eax
    a6c1:	89 de                	mov    %ebx,%esi
    a6c3:	89 c7                	mov    %eax,%edi
    a6c5:	e8 82 b5 ff ff       	callq  5c4c <safe_lshift_func_uint8_t_u_u>
    a6ca:	8b 85 24 f8 ff ff    	mov    -0x7dc(%rbp),%eax
    a6d0:	0f be c0             	movsbl %al,%eax
    a6d3:	be 02 00 00 00       	mov    $0x2,%esi
    a6d8:	89 c7                	mov    %eax,%edi
    a6da:	e8 8d ac ff ff       	callq  536c <safe_rshift_func_int8_t_s_u>
    a6df:	84 c0                	test   %al,%al
    a6e1:	74 10                	je     a6f3 <func_44+0x7cd>
    a6e3:	83 bd bc f8 ff ff 00 	cmpl   $0x0,-0x744(%rbp)
    a6ea:	74 07                	je     a6f3 <func_44+0x7cd>
    a6ec:	ba 01 00 00 00       	mov    $0x1,%edx
    a6f1:	eb 05                	jmp    a6f8 <func_44+0x7d2>
    a6f3:	ba 00 00 00 00       	mov    $0x0,%edx
    a6f8:	48 8b 05 a9 97 00 00 	mov    0x97a9(%rip),%rax        # 13ea8 <g_81>
    a6ff:	89 10                	mov    %edx,(%rax)
    a701:	e9 9f 00 00 00       	jmpq   a7a5 <func_44+0x87f>
    a706:	48 8b 05 9b 97 00 00 	mov    0x979b(%rip),%rax        # 13ea8 <g_81>
    a70d:	8b 00                	mov    (%rax),%eax
    a70f:	23 85 bc f8 ff ff    	and    -0x744(%rbp),%eax
    a715:	89 c2                	mov    %eax,%edx
    a717:	48 8b 05 8a 97 00 00 	mov    0x978a(%rip),%rax        # 13ea8 <g_81>
    a71e:	89 10                	mov    %edx,(%rax)
    a720:	48 8b 05 81 97 00 00 	mov    0x9781(%rip),%rax        # 13ea8 <g_81>
    a727:	c7 00 01 00 00 00    	movl   $0x1,(%rax)
    a72d:	c7 85 5c f8 ff ff ed 	movl   $0xffffffed,-0x7a4(%rbp)
    a734:	ff ff ff 
    a737:	eb 63                	jmp    a79c <func_44+0x876>
    a739:	48 8b 05 60 97 00 00 	mov    0x9760(%rip),%rax        # 13ea0 <g_47>
    a740:	48 8b 00             	mov    (%rax),%rax
    a743:	8b 10                	mov    (%rax),%edx
    a745:	8b 85 64 f8 ff ff    	mov    -0x79c(%rbp),%eax
    a74b:	39 c2                	cmp    %eax,%edx
    a74d:	0f 93 c0             	setae  %al
    a750:	0f b6 d8             	movzbl %al,%ebx
    a753:	8b 05 e7 78 00 00    	mov    0x78e7(%rip),%eax        # 12040 <g_19>
    a759:	0f b7 d0             	movzwl %ax,%edx
    a75c:	8b 85 bc f8 ff ff    	mov    -0x744(%rbp),%eax
    a762:	0f b7 c0             	movzwl %ax,%eax
    a765:	89 d6                	mov    %edx,%esi
    a767:	89 c7                	mov    %eax,%edi
    a769:	e8 20 b6 ff ff       	callq  5d8e <safe_div_func_uint16_t_u_u>
    a76e:	0f b7 c0             	movzwl %ax,%eax
    a771:	39 c3                	cmp    %eax,%ebx
    a773:	0f 9e c2             	setle  %dl
    a776:	48 8b 05 2b 97 00 00 	mov    0x972b(%rip),%rax        # 13ea8 <g_81>
    a77d:	0f b6 d2             	movzbl %dl,%edx
    a780:	89 10                	mov    %edx,(%rax)
    a782:	8b 85 5c f8 ff ff    	mov    -0x7a4(%rbp),%eax
    a788:	98                   	cwtl   
    a789:	be 08 00 00 00       	mov    $0x8,%esi
    a78e:	89 c7                	mov    %eax,%edi
    a790:	e8 1e ac ff ff       	callq  53b3 <safe_add_func_int16_t_s_s>
    a795:	98                   	cwtl   
    a796:	89 85 5c f8 ff ff    	mov    %eax,-0x7a4(%rbp)
    a79c:	83 bd 5c f8 ff ff 05 	cmpl   $0x5,-0x7a4(%rbp)
    a7a3:	7e 94                	jle    a739 <func_44+0x813>
    a7a5:	48 8b 05 04 97 00 00 	mov    0x9704(%rip),%rax        # 13eb0 <g_80>
    a7ac:	48 8b 00             	mov    (%rax),%rax
    a7af:	8b 00                	mov    (%rax),%eax
    a7b1:	85 c0                	test   %eax,%eax
    a7b3:	74 32                	je     a7e7 <func_44+0x8c1>
    a7b5:	48 8b 05 fc 96 00 00 	mov    0x96fc(%rip),%rax        # 13eb8 <g_83>
    a7bc:	48 8b 00             	mov    (%rax),%rax
    a7bf:	48 8b 00             	mov    (%rax),%rax
    a7c2:	8b 00                	mov    (%rax),%eax
    a7c4:	85 c0                	test   %eax,%eax
    a7c6:	0f 85 ba 02 00 00    	jne    aa86 <func_44+0xb60>
    a7cc:	83 bd 24 f8 ff ff 02 	cmpl   $0x2,-0x7dc(%rbp)
    a7d3:	0f 94 c2             	sete   %dl
    a7d6:	48 8b 05 cb 96 00 00 	mov    0x96cb(%rip),%rax        # 13ea8 <g_81>
    a7dd:	0f b6 d2             	movzbl %dl,%edx
    a7e0:	89 10                	mov    %edx,(%rax)
    a7e2:	e9 62 02 00 00       	jmpq   aa49 <func_44+0xb23>
    a7e7:	8b 85 24 f8 ff ff    	mov    -0x7dc(%rbp),%eax
    a7ed:	0f be d8             	movsbl %al,%ebx
    a7f0:	8b 85 24 f8 ff ff    	mov    -0x7dc(%rbp),%eax
    a7f6:	44 0f b6 e0          	movzbl %al,%r12d
    a7fa:	48 8b 05 6f 78 00 00 	mov    0x786f(%rip),%rax        # 12070 <g_95>
    a801:	c7 85 b0 f8 ff ff 05 	movl   $0x5,-0x750(%rbp)
    a808:	00 00 00 
    a80b:	41 bd 01 00 00 00    	mov    $0x1,%r13d
    a811:	8b 05 2d 79 00 00    	mov    0x792d(%rip),%eax        # 12144 <g_118>
    a817:	0f bf d0             	movswl %ax,%edx
    a81a:	48 8b 05 47 79 00 00 	mov    0x7947(%rip),%rax        # 12168 <g_190>
    a821:	98                   	cwtl   
    a822:	89 d6                	mov    %edx,%esi
    a824:	89 c7                	mov    %eax,%edi
    a826:	e8 ca ab ff ff       	callq  53f5 <safe_mul_func_int16_t_s_s>
    a82b:	66 83 f8 1f          	cmp    $0x1f,%ax
    a82f:	0f 9e c0             	setle  %al
    a832:	0f b6 c0             	movzbl %al,%eax
    a835:	48 89 c7             	mov    %rax,%rdi
    a838:	e8 d9 af ff ff       	callq  5816 <safe_unary_minus_func_int64_t_s>
    a83d:	48 85 c0             	test   %rax,%rax
    a840:	74 07                	je     a849 <func_44+0x923>
    a842:	ba 01 00 00 00       	mov    $0x1,%edx
    a847:	eb 05                	jmp    a84e <func_44+0x928>
    a849:	ba 00 00 00 00       	mov    $0x0,%edx
    a84e:	0f b6 05 13 78 00 00 	movzbl 0x7813(%rip),%eax        # 12068 <g_77+0x3>
    a855:	0f b6 c0             	movzbl %al,%eax
    a858:	39 c2                	cmp    %eax,%edx
    a85a:	0f 9d c0             	setge  %al
    a85d:	0f b6 c0             	movzbl %al,%eax
    a860:	89 85 b4 f8 ff ff    	mov    %eax,-0x74c(%rbp)
    a866:	44 3b ad b4 f8 ff ff 	cmp    -0x74c(%rbp),%r13d
    a86d:	0f 9c c0             	setl   %al
    a870:	0f b6 c0             	movzbl %al,%eax
    a873:	be 03 00 00 00       	mov    $0x3,%esi
    a878:	89 c7                	mov    %eax,%edi
    a87a:	e8 cd b3 ff ff       	callq  5c4c <safe_lshift_func_uint8_t_u_u>
    a87f:	48 8b 05 22 96 00 00 	mov    0x9622(%rip),%rax        # 13ea8 <g_81>
    a886:	8b 00                	mov    (%rax),%eax
    a888:	48 8b 05 19 96 00 00 	mov    0x9619(%rip),%rax        # 13ea8 <g_81>
    a88f:	8b 00                	mov    (%rax),%eax
    a891:	48 c7 05 d4 78 00 00 	movq   $0x0,0x78d4(%rip)        # 12170 <g_192>
    a898:	00 00 00 00 
    a89c:	48 8b 85 08 fb ff ff 	mov    -0x4f8(%rbp),%rax
    a8a3:	48 85 c0             	test   %rax,%rax
    a8a6:	0f 94 c0             	sete   %al
    a8a9:	0f b6 c0             	movzbl %al,%eax
    a8ac:	44 89 e6             	mov    %r12d,%esi
    a8af:	89 c7                	mov    %eax,%edi
    a8b1:	e8 dd b2 ff ff       	callq  5b93 <safe_mul_func_uint8_t_u_u>
    a8b6:	0f b6 c0             	movzbl %al,%eax
    a8b9:	8b 95 24 f8 ff ff    	mov    -0x7dc(%rbp),%edx
    a8bf:	89 d6                	mov    %edx,%esi
    a8c1:	89 c7                	mov    %eax,%edi
    a8c3:	e8 84 b3 ff ff       	callq  5c4c <safe_lshift_func_uint8_t_u_u>
    a8c8:	89 de                	mov    %ebx,%esi
    a8ca:	bf 01 00 00 00       	mov    $0x1,%edi
    a8cf:	e8 1e a9 ff ff       	callq  51f2 <safe_sub_func_int8_t_s_s>
    a8d4:	89 c2                	mov    %eax,%edx
    a8d6:	48 8b 05 db 95 00 00 	mov    0x95db(%rip),%rax        # 13eb8 <g_83>
    a8dd:	48 8b 00             	mov    (%rax),%rax
    a8e0:	48 8b 00             	mov    (%rax),%rax
    a8e3:	0f be d2             	movsbl %dl,%edx
    a8e6:	89 10                	mov    %edx,(%rax)
    a8e8:	e9 5c 01 00 00       	jmpq   aa49 <func_44+0xb23>
    a8ed:	48 8d 05 70 77 00 00 	lea    0x7770(%rip),%rax        # 12064 <g_68>
    a8f4:	48 89 85 e0 fa ff ff 	mov    %rax,-0x520(%rbp)
    a8fb:	48 8d 05 62 77 00 00 	lea    0x7762(%rip),%rax        # 12064 <g_68>
    a902:	48 89 85 e8 fa ff ff 	mov    %rax,-0x518(%rbp)
    a909:	48 8d 05 54 77 00 00 	lea    0x7754(%rip),%rax        # 12064 <g_68>
    a910:	48 89 85 f0 fa ff ff 	mov    %rax,-0x510(%rbp)
    a917:	48 8d 05 46 77 00 00 	lea    0x7746(%rip),%rax        # 12064 <g_68>
    a91e:	48 89 85 f8 fa ff ff 	mov    %rax,-0x508(%rbp)
    a925:	48 8d 05 38 77 00 00 	lea    0x7738(%rip),%rax        # 12064 <g_68>
    a92c:	48 89 85 00 fb ff ff 	mov    %rax,-0x500(%rbp)
    a933:	48 8d 05 2a 77 00 00 	lea    0x772a(%rip),%rax        # 12064 <g_68>
    a93a:	48 89 85 08 fb ff ff 	mov    %rax,-0x4f8(%rbp)
    a941:	48 8d 05 1c 77 00 00 	lea    0x771c(%rip),%rax        # 12064 <g_68>
    a948:	48 89 85 10 fb ff ff 	mov    %rax,-0x4f0(%rbp)
    a94f:	48 8d 05 0e 77 00 00 	lea    0x770e(%rip),%rax        # 12064 <g_68>
    a956:	48 89 85 18 fb ff ff 	mov    %rax,-0x4e8(%rbp)
    a95d:	48 8d 05 00 77 00 00 	lea    0x7700(%rip),%rax        # 12064 <g_68>
    a964:	48 89 85 20 fb ff ff 	mov    %rax,-0x4e0(%rbp)
    a96b:	c7 85 b8 f8 ff ff 48 	movl   $0xf591b348,-0x748(%rbp)
    a972:	b3 91 f5 
    a975:	c7 85 68 f8 ff ff 00 	movl   $0x0,-0x798(%rbp)
    a97c:	00 00 00 
    a97f:	eb 1e                	jmp    a99f <func_44+0xa79>
    a981:	8b 85 68 f8 ff ff    	mov    -0x798(%rbp),%eax
    a987:	48 98                	cltq   
    a989:	48 8d 15 e8 77 00 00 	lea    0x77e8(%rip),%rdx        # 12178 <g_209>
    a990:	48 89 94 c5 a0 fa ff 	mov    %rdx,-0x560(%rbp,%rax,8)
    a997:	ff 
    a998:	83 85 68 f8 ff ff 01 	addl   $0x1,-0x798(%rbp)
    a99f:	83 bd 68 f8 ff ff 06 	cmpl   $0x6,-0x798(%rbp)
    a9a6:	7e d9                	jle    a981 <func_44+0xa5b>
    a9a8:	8b 85 38 f8 ff ff    	mov    -0x7c8(%rbp),%eax
    a9ae:	48 63 d8             	movslq %eax,%rbx
    a9b1:	8b 85 b8 f8 ff ff    	mov    -0x748(%rbp),%eax
    a9b7:	89 c7                	mov    %eax,%edi
    a9b9:	e8 e8 b4 ff ff       	callq  5ea6 <safe_unary_minus_func_uint32_t_u>
    a9be:	89 c0                	mov    %eax,%eax
    a9c0:	48 89 de             	mov    %rbx,%rsi
    a9c3:	48 89 c7             	mov    %rax,%rdi
    a9c6:	e8 2c b0 ff ff       	callq  59f7 <safe_div_func_int64_t_s_s>
    a9cb:	48 0f be 95 33 f8 ff 	movsbq -0x7cd(%rbp),%rdx
    a9d2:	ff 
    a9d3:	48 b9 74 a9 7e c0 5a 	movabs $0xfb725b5ac07ea974,%rcx
    a9da:	5b 72 fb 
    a9dd:	48 31 ca             	xor    %rcx,%rdx
    a9e0:	31 85 64 f8 ff ff    	xor    %eax,-0x79c(%rbp)
    a9e6:	8b 85 64 f8 ff ff    	mov    -0x79c(%rbp),%eax
    a9ec:	48 98                	cltq   
    a9ee:	48 21 d0             	and    %rdx,%rax
    a9f1:	48 09 85 08 f9 ff ff 	or     %rax,-0x6f8(%rbp)
    a9f8:	48 8b 85 08 f9 ff ff 	mov    -0x6f8(%rbp),%rax
    a9ff:	0f b6 c0             	movzbl %al,%eax
    aa02:	be 07 00 00 00       	mov    $0x7,%esi
    aa07:	89 c7                	mov    %eax,%edi
    aa09:	e8 7f b2 ff ff       	callq  5c8d <safe_rshift_func_uint8_t_u_s>
    aa0e:	0f be c0             	movsbl %al,%eax
    aa11:	be ff ff ff ff       	mov    $0xffffffff,%esi
    aa16:	89 c7                	mov    %eax,%edi
    aa18:	e8 4d a8 ff ff       	callq  526a <safe_div_func_int8_t_s_s>
    aa1d:	0f be c0             	movsbl %al,%eax
    aa20:	be 77 22 00 00       	mov    $0x2277,%esi
    aa25:	89 c7                	mov    %eax,%edi
    aa27:	e8 ea a9 ff ff       	callq  5416 <safe_mod_func_int16_t_s_s>
    aa2c:	0f b6 c0             	movzbl %al,%eax
    aa2f:	be 60 00 00 00       	mov    $0x60,%esi
    aa34:	89 c7                	mov    %eax,%edi
    aa36:	e8 1f b1 ff ff       	callq  5b5a <safe_add_func_uint8_t_u_u>
    aa3b:	89 c2                	mov    %eax,%edx
    aa3d:	48 8b 05 64 94 00 00 	mov    0x9464(%rip),%rax        # 13ea8 <g_81>
    aa44:	0f b6 d2             	movzbl %dl,%edx
    aa47:	89 10                	mov    %edx,(%rax)
    aa49:	48 8b 05 e0 94 00 00 	mov    0x94e0(%rip),%rax        # 13f30 <g_214>
    aa50:	48 8b 95 50 fa ff ff 	mov    -0x5b0(%rbp),%rdx
    aa57:	48 89 10             	mov    %rdx,(%rax)
    aa5a:	0f b7 05 df 76 00 00 	movzwl 0x76df(%rip),%eax        # 12140 <g_116>
    aa61:	98                   	cwtl   
    aa62:	be 07 00 00 00       	mov    $0x7,%esi
    aa67:	89 c7                	mov    %eax,%edi
    aa69:	e8 65 a9 ff ff       	callq  53d3 <safe_sub_func_int16_t_s_s>
    aa6e:	66 89 05 cb 76 00 00 	mov    %ax,0x76cb(%rip)        # 12140 <g_116>
    aa75:	0f b7 05 c4 76 00 00 	movzwl 0x76c4(%rip),%eax        # 12140 <g_116>
    aa7c:	66 83 f8 e7          	cmp    $0xffe7,%ax
    aa80:	0f 84 98 f8 ff ff    	je     a31e <func_44+0x3f8>
    aa86:	48 8d 05 b7 75 00 00 	lea    0x75b7(%rip),%rax        # 12044 <g_19+0x4>
    aa8d:	e9 53 11 00 00       	jmpq   bbe5 <func_44+0x1cbf>
    aa92:	66 c7 05 a5 76 00 00 	movw   $0x0,0x76a5(%rip)        # 12140 <g_116>
    aa99:	00 00 
    aa9b:	e9 90 00 00 00       	jmpq   ab30 <func_44+0xc0a>
    aaa0:	66 c7 85 36 f8 ff ff 	movw   $0xfffd,-0x7ca(%rbp)
    aaa7:	fd ff 
    aaa9:	48 8d 85 d0 fb ff ff 	lea    -0x430(%rbp),%rax
    aab0:	48 8d 15 a9 44 00 00 	lea    0x44a9(%rip),%rdx        # ef60 <g_1338+0xf00>
    aab7:	b9 1f 00 00 00       	mov    $0x1f,%ecx
    aabc:	48 89 c7             	mov    %rax,%rdi
    aabf:	48 89 d6             	mov    %rdx,%rsi
    aac2:	f3 48 a5             	rep movsq %ds:(%rsi),%es:(%rdi)
    aac5:	48 89 f2             	mov    %rsi,%rdx
    aac8:	48 89 f8             	mov    %rdi,%rax
    aacb:	8b 0a                	mov    (%rdx),%ecx
    aacd:	89 08                	mov    %ecx,(%rax)
    aacf:	48 8d 05 a2 76 00 00 	lea    0x76a2(%rip),%rax        # 12178 <g_209>
    aad6:	48 89 85 38 fa ff ff 	mov    %rax,-0x5c8(%rbp)
    aadd:	48 8d 05 e4 9c 00 00 	lea    0x9ce4(%rip),%rax        # 147c8 <g_72>
    aae4:	48 89 85 f8 f8 ff ff 	mov    %rax,-0x708(%rbp)
    aaeb:	48 8d 85 f8 f8 ff ff 	lea    -0x708(%rbp),%rax
    aaf2:	48 89 85 00 f9 ff ff 	mov    %rax,-0x700(%rbp)
    aaf9:	48 8d 85 00 f9 ff ff 	lea    -0x700(%rbp),%rax
    ab00:	48 89 85 40 fa ff ff 	mov    %rax,-0x5c0(%rbp)
    ab07:	48 8d 05 5a 75 00 00 	lea    0x755a(%rip),%rax        # 12068 <g_77+0x3>
    ab0e:	48 89 85 48 fa ff ff 	mov    %rax,-0x5b8(%rbp)
    ab15:	c7 85 ac f8 ff ff 07 	movl   $0x7,-0x754(%rbp)
    ab1c:	00 00 00 
    ab1f:	0f b7 05 1a 76 00 00 	movzwl 0x761a(%rip),%eax        # 12140 <g_116>
    ab26:	83 c0 01             	add    $0x1,%eax
    ab29:	66 89 05 10 76 00 00 	mov    %ax,0x7610(%rip)        # 12140 <g_116>
    ab30:	0f b7 05 09 76 00 00 	movzwl 0x7609(%rip),%eax        # 12140 <g_116>
    ab37:	66 83 f8 03          	cmp    $0x3,%ax
    ab3b:	0f 8e 5f ff ff ff    	jle    aaa0 <func_44+0xb7a>
    ab41:	48 8b 05 60 93 00 00 	mov    0x9360(%rip),%rax        # 13ea8 <g_81>
    ab48:	8b 00                	mov    (%rax),%eax
    ab4a:	85 c0                	test   %eax,%eax
    ab4c:	74 69                	je     abb7 <func_44+0xc91>
    ab4e:	48 c7 85 28 fa ff ff 	movq   $0x0,-0x5d8(%rbp)
    ab55:	00 00 00 00 
    ab59:	48 8d 85 31 f8 ff ff 	lea    -0x7cf(%rbp),%rax
    ab60:	48 89 85 30 fa ff ff 	mov    %rax,-0x5d0(%rbp)
    ab67:	c7 85 44 f8 ff ff ff 	movl   $0xffffffff,-0x7bc(%rbp)
    ab6e:	ff ff ff 
    ab71:	8b 95 44 f8 ff ff    	mov    -0x7bc(%rbp),%edx
    ab77:	48 8b 85 30 fa ff ff 	mov    -0x5d0(%rbp),%rax
    ab7e:	0f b6 00             	movzbl (%rax),%eax
    ab81:	31 c2                	xor    %eax,%edx
    ab83:	48 8b 85 30 fa ff ff 	mov    -0x5d0(%rbp),%rax
    ab8a:	88 10                	mov    %dl,(%rax)
    ab8c:	48 8b 85 30 fa ff ff 	mov    -0x5d0(%rbp),%rax
    ab93:	0f b6 00             	movzbl (%rax),%eax
    ab96:	0f be c0             	movsbl %al,%eax
    ab99:	be 00 00 00 00       	mov    $0x0,%esi
    ab9e:	89 c7                	mov    %eax,%edi
    aba0:	e8 4d a6 ff ff       	callq  51f2 <safe_sub_func_int8_t_s_s>
    aba5:	48 8b 05 fc 92 00 00 	mov    0x92fc(%rip),%rax        # 13ea8 <g_81>
    abac:	c7 00 00 00 00 00    	movl   $0x0,(%rax)
    abb2:	e9 27 10 00 00       	jmpq   bbde <func_44+0x1cb8>
    abb7:	48 8d 85 44 f8 ff ff 	lea    -0x7bc(%rbp),%rax
    abbe:	48 89 85 d8 f8 ff ff 	mov    %rax,-0x728(%rbp)
    abc5:	48 8d 05 74 75 00 00 	lea    0x7574(%rip),%rax        # 12140 <g_116>
    abcc:	48 89 85 e0 f8 ff ff 	mov    %rax,-0x720(%rbp)
    abd3:	48 8d 85 e0 f8 ff ff 	lea    -0x720(%rbp),%rax
    abda:	48 89 85 28 f9 ff ff 	mov    %rax,-0x6d8(%rbp)
    abe1:	48 c7 85 30 f9 ff ff 	movq   $0x0,-0x6d0(%rbp)
    abe8:	00 00 00 00 
    abec:	48 8d 05 71 74 00 00 	lea    0x7471(%rip),%rax        # 12064 <g_68>
    abf3:	48 89 85 e8 f8 ff ff 	mov    %rax,-0x718(%rbp)
    abfa:	48 8d 85 d8 f8 ff ff 	lea    -0x728(%rbp),%rax
    ac01:	48 89 85 f0 f8 ff ff 	mov    %rax,-0x710(%rbp)
    ac08:	48 8d 85 f0 f8 ff ff 	lea    -0x710(%rbp),%rax
    ac0f:	48 89 85 38 f9 ff ff 	mov    %rax,-0x6c8(%rbp)
    ac16:	66 c7 85 34 f8 ff ff 	movw   $0xffff,-0x7cc(%rbp)
    ac1d:	ff ff 
    ac1f:	c7 85 8c f8 ff ff 40 	movl   $0xa82f9b40,-0x774(%rbp)
    ac26:	9b 2f a8 
    ac29:	c7 85 4c f8 ff ff d5 	movl   $0x1d498fd5,-0x7b4(%rbp)
    ac30:	8f 49 1d 
    ac33:	c7 85 90 f8 ff ff 9f 	movl   $0xcdf5559f,-0x770(%rbp)
    ac3a:	55 f5 cd 
    ac3d:	c7 85 94 f8 ff ff 09 	movl   $0x9,-0x76c(%rbp)
    ac44:	00 00 00 
    ac47:	48 8d 85 c8 f8 ff ff 	lea    -0x738(%rbp),%rax
    ac4e:	48 89 85 40 f9 ff ff 	mov    %rax,-0x6c0(%rbp)
    ac55:	48 8d 85 70 fa ff ff 	lea    -0x590(%rbp),%rax
    ac5c:	48 89 85 48 f9 ff ff 	mov    %rax,-0x6b8(%rbp)
    ac63:	48 c7 85 f8 f8 ff ff 	movq   $0x0,-0x708(%rbp)
    ac6a:	00 00 00 00 
    ac6e:	48 8d 85 f8 f8 ff ff 	lea    -0x708(%rbp),%rax
    ac75:	48 89 85 50 f9 ff ff 	mov    %rax,-0x6b0(%rbp)
    ac7c:	48 8d 05 c5 75 00 00 	lea    0x75c5(%rip),%rax        # 12248 <g_482>
    ac83:	48 89 85 00 f9 ff ff 	mov    %rax,-0x700(%rbp)
    ac8a:	48 8d 85 00 f9 ff ff 	lea    -0x700(%rbp),%rax
    ac91:	48 89 85 58 f9 ff ff 	mov    %rax,-0x6a8(%rbp)
    ac98:	48 8b 05 b1 74 00 00 	mov    0x74b1(%rip),%rax        # 12150 <g_137>
    ac9f:	48 85 c0             	test   %rax,%rax
    aca2:	74 11                	je     acb5 <func_44+0xd8f>
    aca4:	8b 05 b6 74 00 00    	mov    0x74b6(%rip),%eax        # 12160 <g_166>
    acaa:	85 c0                	test   %eax,%eax
    acac:	74 07                	je     acb5 <func_44+0xd8f>
    acae:	ba 01 00 00 00       	mov    $0x1,%edx
    acb3:	eb 05                	jmp    acba <func_44+0xd94>
    acb5:	ba 00 00 00 00       	mov    $0x0,%edx
    acba:	48 8b 85 d8 f8 ff ff 	mov    -0x728(%rbp),%rax
    acc1:	89 10                	mov    %edx,(%rax)
    acc3:	8b 10                	mov    (%rax),%edx
    acc5:	48 8b 85 c0 f8 ff ff 	mov    -0x740(%rbp),%rax
    accc:	48 85 c0             	test   %rax,%rax
    accf:	0f 94 c0             	sete   %al
    acd2:	0f b6 c0             	movzbl %al,%eax
    acd5:	33 85 5c f8 ff ff    	xor    -0x7a4(%rbp),%eax
    acdb:	09 d0                	or     %edx,%eax
    acdd:	89 c6                	mov    %eax,%esi
    acdf:	bf 02 00 00 00       	mov    $0x2,%edi
    ace4:	e8 14 b2 ff ff       	callq  5efd <safe_mod_func_uint32_t_u_u>
    ace9:	41 89 c6             	mov    %eax,%r14d
    acec:	44 8b a5 24 f8 ff ff 	mov    -0x7dc(%rbp),%r12d
    acf3:	0f b6 05 46 75 00 00 	movzbl 0x7546(%rip),%eax        # 12240 <g_428>
    acfa:	44 0f be e8          	movsbl %al,%r13d
    acfe:	48 8b 95 e0 f8 ff ff 	mov    -0x720(%rbp),%rdx
    ad05:	48 8b 85 28 f9 ff ff 	mov    -0x6d8(%rbp),%rax
    ad0c:	48 89 10             	mov    %rdx,(%rax)
    ad0f:	48 8b 85 28 f9 ff ff 	mov    -0x6d8(%rbp),%rax
    ad16:	48 8b 00             	mov    (%rax),%rax
    ad19:	48 39 85 18 f9 ff ff 	cmp    %rax,-0x6e8(%rbp)
    ad20:	0f 95 c0             	setne  %al
    ad23:	0f b6 d0             	movzbl %al,%edx
    ad26:	8b 85 3c f8 ff ff    	mov    -0x7c4(%rbp),%eax
    ad2c:	0f be c0             	movsbl %al,%eax
    ad2f:	48 8b 9d e8 f8 ff ff 	mov    -0x718(%rbp),%rbx
    ad36:	89 d6                	mov    %edx,%esi
    ad38:	89 c7                	mov    %eax,%edi
    ad3a:	e8 d3 a4 ff ff       	callq  5212 <safe_mul_func_int8_t_s_s>
    ad3f:	88 03                	mov    %al,(%rbx)
    ad41:	0f b6 03             	movzbl (%rbx),%eax
    ad44:	0f be c0             	movsbl %al,%eax
    ad47:	44 89 ee             	mov    %r13d,%esi
    ad4a:	89 c7                	mov    %eax,%edi
    ad4c:	e8 e4 a5 ff ff       	callq  5335 <safe_rshift_func_int8_t_s_s>
    ad51:	0f be c0             	movsbl %al,%eax
    ad54:	44 89 e6             	mov    %r12d,%esi
    ad57:	89 c7                	mov    %eax,%edi
    ad59:	e8 43 a5 ff ff       	callq  52a1 <safe_lshift_func_int8_t_s_s>
    ad5e:	0f be c0             	movsbl %al,%eax
    ad61:	41 39 c6             	cmp    %eax,%r14d
    ad64:	0f 97 c0             	seta   %al
    ad67:	0f b6 d0             	movzbl %al,%edx
    ad6a:	8b 85 24 f8 ff ff    	mov    -0x7dc(%rbp),%eax
    ad70:	0f be c0             	movsbl %al,%eax
    ad73:	89 d6                	mov    %edx,%esi
    ad75:	89 c7                	mov    %eax,%edi
    ad77:	e8 58 a4 ff ff       	callq  51d4 <safe_add_func_int8_t_s_s>
    ad7c:	89 c2                	mov    %eax,%edx
    ad7e:	48 8b 05 23 91 00 00 	mov    0x9123(%rip),%rax        # 13ea8 <g_81>
    ad85:	0f be d2             	movsbl %dl,%edx
    ad88:	89 10                	mov    %edx,(%rax)
    ad8a:	66 c7 05 ad 73 00 00 	movw   $0xffe9,0x73ad(%rip)        # 12140 <g_116>
    ad91:	e9 ff 
    ad93:	e9 44 0c 00 00       	jmpq   b9dc <func_44+0x1ab6>
    ad98:	c7 85 98 f8 ff ff 4b 	movl   $0xabd1094b,-0x768(%rbp)
    ad9f:	09 d1 ab 
    ada2:	c7 85 50 f8 ff ff 53 	movl   $0x2f732053,-0x7b0(%rbp)
    ada9:	20 73 2f 
    adac:	48 8d 05 8d 74 00 00 	lea    0x748d(%rip),%rax        # 12240 <g_428>
    adb3:	48 89 85 60 f9 ff ff 	mov    %rax,-0x6a0(%rbp)
    adba:	48 b8 9c bc a8 0b 9d 	movabs $0x26e6279d0ba8bc9c,%rax
    adc1:	27 e6 26 
    adc4:	48 89 85 68 f9 ff ff 	mov    %rax,-0x698(%rbp)
    adcb:	66 c7 85 a0 fa ff ff 	movw   $0x9d5c,-0x560(%rbp)
    add2:	5c 9d 
    add4:	66 c7 85 a2 fa ff ff 	movw   $0x9d5c,-0x55e(%rbp)
    addb:	5c 9d 
    addd:	66 c7 85 a4 fa ff ff 	movw   $0x9d5c,-0x55c(%rbp)
    ade4:	5c 9d 
    ade6:	66 c7 85 a6 fa ff ff 	movw   $0x9d5c,-0x55a(%rbp)
    aded:	5c 9d 
    adef:	66 c7 85 a8 fa ff ff 	movw   $0x9d5c,-0x558(%rbp)
    adf6:	5c 9d 
    adf8:	66 c7 85 aa fa ff ff 	movw   $0x9d5c,-0x556(%rbp)
    adff:	5c 9d 
    ae01:	66 c7 85 ac fa ff ff 	movw   $0x9d5c,-0x554(%rbp)
    ae08:	5c 9d 
    ae0a:	66 c7 85 ae fa ff ff 	movw   $0x9d5c,-0x552(%rbp)
    ae11:	5c 9d 
    ae13:	66 c7 85 b0 fa ff ff 	movw   $0x9d5c,-0x550(%rbp)
    ae1a:	5c 9d 
    ae1c:	8b 85 98 f8 ff ff    	mov    -0x768(%rbp),%eax
    ae22:	0f be c0             	movsbl %al,%eax
    ae25:	89 c6                	mov    %eax,%esi
    ae27:	bf ff ff ff ff       	mov    $0xffffffff,%edi
    ae2c:	e8 a3 a3 ff ff       	callq  51d4 <safe_add_func_int8_t_s_s>
    ae31:	84 c0                	test   %al,%al
    ae33:	0f 84 d4 03 00 00    	je     b20d <func_44+0x12e7>
    ae39:	48 8d 85 d0 fb ff ff 	lea    -0x430(%rbp),%rax
    ae40:	48 8d 15 19 42 00 00 	lea    0x4219(%rip),%rdx        # f060 <g_1338+0x1000>
    ae47:	b9 7e 00 00 00       	mov    $0x7e,%ecx
    ae4c:	48 89 c7             	mov    %rax,%rdi
    ae4f:	48 89 d6             	mov    %rdx,%rsi
    ae52:	f3 48 a5             	rep movsq %ds:(%rsi),%es:(%rdi)
    ae55:	48 8d 05 70 99 00 00 	lea    0x9970(%rip),%rax        # 147cc <g_126>
    ae5c:	48 89 85 18 fa ff ff 	mov    %rax,-0x5e8(%rbp)
    ae63:	48 8d 05 de 73 00 00 	lea    0x73de(%rip),%rax        # 12248 <g_482>
    ae6a:	48 89 85 20 fa ff ff 	mov    %rax,-0x5e0(%rbp)
    ae71:	c7 85 58 f8 ff ff d5 	movl   $0x69963ad5,-0x7a8(%rbp)
    ae78:	3a 96 69 
    ae7b:	c7 85 6c f8 ff ff 00 	movl   $0x0,-0x794(%rbp)
    ae82:	00 00 00 
    ae85:	eb 6e                	jmp    aef5 <func_44+0xfcf>
    ae87:	c7 85 70 f8 ff ff 00 	movl   $0x0,-0x790(%rbp)
    ae8e:	00 00 00 
    ae91:	eb 52                	jmp    aee5 <func_44+0xfbf>
    ae93:	c7 85 74 f8 ff ff 00 	movl   $0x0,-0x78c(%rbp)
    ae9a:	00 00 00 
    ae9d:	eb 36                	jmp    aed5 <func_44+0xfaf>
    ae9f:	8b 85 74 f8 ff ff    	mov    -0x78c(%rbp),%eax
    aea5:	48 63 c8             	movslq %eax,%rcx
    aea8:	8b 85 70 f8 ff ff    	mov    -0x790(%rbp),%eax
    aeae:	48 63 d0             	movslq %eax,%rdx
    aeb1:	8b 85 6c f8 ff ff    	mov    -0x794(%rbp),%eax
    aeb7:	48 98                	cltq   
    aeb9:	48 01 ca             	add    %rcx,%rdx
    aebc:	48 01 d0             	add    %rdx,%rax
    aebf:	48 8d 15 7b 73 00 00 	lea    0x737b(%rip),%rdx        # 12241 <g_459>
    aec6:	48 89 94 c5 e0 fa ff 	mov    %rdx,-0x520(%rbp,%rax,8)
    aecd:	ff 
    aece:	83 85 74 f8 ff ff 01 	addl   $0x1,-0x78c(%rbp)
    aed5:	83 bd 74 f8 ff ff 00 	cmpl   $0x0,-0x78c(%rbp)
    aedc:	7e c1                	jle    ae9f <func_44+0xf79>
    aede:	83 85 70 f8 ff ff 01 	addl   $0x1,-0x790(%rbp)
    aee5:	83 bd 70 f8 ff ff 00 	cmpl   $0x0,-0x790(%rbp)
    aeec:	7e a5                	jle    ae93 <func_44+0xf6d>
    aeee:	83 85 6c f8 ff ff 01 	addl   $0x1,-0x794(%rbp)
    aef5:	83 bd 6c f8 ff ff 05 	cmpl   $0x5,-0x794(%rbp)
    aefc:	7e 89                	jle    ae87 <func_44+0xf61>
    aefe:	8b 85 24 f8 ff ff    	mov    -0x7dc(%rbp),%eax
    af04:	44 0f b6 e0          	movzbl %al,%r12d
    af08:	8b 85 58 f8 ff ff    	mov    -0x7a8(%rbp),%eax
    af0e:	89 85 20 f8 ff ff    	mov    %eax,-0x7e0(%rbp)
    af14:	0f b6 85 31 f8 ff ff 	movzbl -0x7cf(%rbp),%eax
    af1b:	44 0f be e8          	movsbl %al,%r13d
    af1f:	44 8b b5 98 f8 ff ff 	mov    -0x768(%rbp),%r14d
    af26:	48 8b 85 d8 f8 ff ff 	mov    -0x728(%rbp),%rax
    af2d:	8b 00                	mov    (%rax),%eax
    af2f:	44 0f b6 f8          	movzbl %al,%r15d
    af33:	8b 85 3c f8 ff ff    	mov    -0x7c4(%rbp),%eax
    af39:	0f be c0             	movsbl %al,%eax
    af3c:	89 85 1c f8 ff ff    	mov    %eax,-0x7e4(%rbp)
    af42:	48 8b 85 c8 f8 ff ff 	mov    -0x738(%rbp),%rax
    af49:	0f b6 18             	movzbl (%rax),%ebx
    af4c:	8d 53 ff             	lea    -0x1(%rbx),%edx
    af4f:	88 10                	mov    %dl,(%rax)
    af51:	0f b7 05 90 98 00 00 	movzwl 0x9890(%rip),%eax        # 147e8 <g_323>
    af58:	66 89 05 e7 72 00 00 	mov    %ax,0x72e7(%rip)        # 12246 <g_465>
    af5f:	0f b7 05 e0 72 00 00 	movzwl 0x72e0(%rip),%eax        # 12246 <g_465>
    af66:	66 85 c0             	test   %ax,%ax
    af69:	0f 84 f6 00 00 00    	je     b065 <func_44+0x113f>
    af6f:	0f b7 05 62 98 00 00 	movzwl 0x9862(%rip),%eax        # 147d8 <g_319>
    af76:	48 0f bf c0          	movswq %ax,%rax
    af7a:	48 89 85 10 f8 ff ff 	mov    %rax,-0x7f0(%rbp)
    af81:	8b 95 98 f8 ff ff    	mov    -0x768(%rbp),%edx
    af87:	0f b7 05 b8 72 00 00 	movzwl 0x72b8(%rip),%eax        # 12246 <g_465>
    af8e:	66 89 05 b1 72 00 00 	mov    %ax,0x72b1(%rip)        # 12246 <g_465>
    af95:	0f b7 05 aa 72 00 00 	movzwl 0x72aa(%rip),%eax        # 12246 <g_465>
    af9c:	98                   	cwtl   
    af9d:	89 d6                	mov    %edx,%esi
    af9f:	89 c7                	mov    %eax,%edi
    afa1:	e8 84 a5 ff ff       	callq  552a <safe_rshift_func_int16_t_s_s>
    afa6:	8b 05 9c 70 00 00    	mov    0x709c(%rip),%eax        # 12048 <g_19+0x8>
    afac:	89 c0                	mov    %eax,%eax
    afae:	48 8b b5 10 f8 ff ff 	mov    -0x7f0(%rbp),%rsi
    afb5:	48 89 c7             	mov    %rax,%rdi
    afb8:	e8 8e b0 ff ff       	callq  604b <safe_sub_func_uint64_t_u_u>
    afbd:	89 c2                	mov    %eax,%edx
    afbf:	48 8b 85 18 fa ff ff 	mov    -0x5e8(%rbp),%rax
    afc6:	66 89 10             	mov    %dx,(%rax)
    afc9:	48 8b 85 18 fa ff ff 	mov    -0x5e8(%rbp),%rax
    afd0:	0f b7 00             	movzwl (%rax),%eax
    afd3:	0f b7 d0             	movzwl %ax,%edx
    afd6:	8b 05 6c 70 00 00    	mov    0x706c(%rip),%eax        # 12048 <g_19+0x8>
    afdc:	39 c2                	cmp    %eax,%edx
    afde:	0f 94 c0             	sete   %al
    afe1:	0f b6 d0             	movzbl %al,%edx
    afe4:	48 8b 85 20 fa ff ff 	mov    -0x5e0(%rbp),%rax
    afeb:	66 89 10             	mov    %dx,(%rax)
    afee:	48 8b 85 20 fa ff ff 	mov    -0x5e0(%rbp),%rax
    aff5:	0f b7 00             	movzwl (%rax),%eax
    aff8:	0f b7 c0             	movzwl %ax,%eax
    affb:	be 22 8a 00 00       	mov    $0x8a22,%esi
    b000:	89 c7                	mov    %eax,%edi
    b002:	e8 f8 ac ff ff       	callq  5cff <safe_add_func_uint16_t_u_u>
    b007:	0f b7 d0             	movzwl %ax,%edx
    b00a:	0f b7 05 2f 71 00 00 	movzwl 0x712f(%rip),%eax        # 12140 <g_116>
    b011:	98                   	cwtl   
    b012:	39 c2                	cmp    %eax,%edx
    b014:	0f 9d c0             	setge  %al
    b017:	0f b6 c0             	movzbl %al,%eax
    b01a:	be ff 31 59 18       	mov    $0x185931ff,%esi
    b01f:	89 c7                	mov    %eax,%edi
    b021:	e8 90 a5 ff ff       	callq  55b6 <safe_add_func_int32_t_s_s>
    b026:	8b 95 58 f8 ff ff    	mov    -0x7a8(%rbp),%edx
    b02c:	8b 85 48 f8 ff ff    	mov    -0x7b8(%rbp),%eax
    b032:	39 c2                	cmp    %eax,%edx
    b034:	0f 95 c0             	setne  %al
    b037:	0f b6 c0             	movzbl %al,%eax
    b03a:	be 05 00 00 00       	mov    $0x5,%esi
    b03f:	89 c7                	mov    %eax,%edi
    b041:	e8 47 ac ff ff       	callq  5c8d <safe_rshift_func_uint8_t_u_s>
    b046:	0f b6 c0             	movzbl %al,%eax
    b049:	35 49 3a ff ff       	xor    $0xffff3a49,%eax
    b04e:	be c2 f4 4b a8       	mov    $0xa84bf4c2,%esi
    b053:	89 c7                	mov    %eax,%edi
    b055:	e8 cb ae ff ff       	callq  5f25 <safe_div_func_uint32_t_u_u>
    b05a:	85 c0                	test   %eax,%eax
    b05c:	74 07                	je     b065 <func_44+0x113f>
    b05e:	b8 01 00 00 00       	mov    $0x1,%eax
    b063:	eb 05                	jmp    b06a <func_44+0x1144>
    b065:	b8 00 00 00 00       	mov    $0x0,%eax
    b06a:	48 98                	cltq   
    b06c:	48 be 22 7e bf b6 77 	movabs $0x71300c77b6bf7e22,%rsi
    b073:	0c 30 71 
    b076:	48 89 c7             	mov    %rax,%rdi
    b079:	e8 79 a9 ff ff       	callq  59f7 <safe_div_func_int64_t_s_s>
    b07e:	0f b6 c0             	movzbl %al,%eax
    b081:	8b 95 98 f8 ff ff    	mov    -0x768(%rbp),%edx
    b087:	89 d6                	mov    %edx,%esi
    b089:	89 c7                	mov    %eax,%edi
    b08b:	e8 2e ac ff ff       	callq  5cbe <safe_rshift_func_uint8_t_u_u>
    b090:	8b 95 5c ff ff ff    	mov    -0xa4(%rbp),%edx
    b096:	0f b6 c3             	movzbl %bl,%eax
    b099:	09 d0                	or     %edx,%eax
    b09b:	89 85 5c ff ff ff    	mov    %eax,-0xa4(%rbp)
    b0a1:	8b 85 5c ff ff ff    	mov    -0xa4(%rbp),%eax
    b0a7:	0f be c0             	movsbl %al,%eax
    b0aa:	be 01 00 00 00       	mov    $0x1,%esi
    b0af:	89 c7                	mov    %eax,%edi
    b0b1:	e8 1e a1 ff ff       	callq  51d4 <safe_add_func_int8_t_s_s>
    b0b6:	0f be c0             	movsbl %al,%eax
    b0b9:	39 85 24 f8 ff ff    	cmp    %eax,-0x7dc(%rbp)
    b0bf:	73 0a                	jae    b0cb <func_44+0x11a5>
    b0c1:	8b 85 8c fa ff ff    	mov    -0x574(%rbp),%eax
    b0c7:	85 c0                	test   %eax,%eax
    b0c9:	74 07                	je     b0d2 <func_44+0x11ac>
    b0cb:	b8 01 00 00 00       	mov    $0x1,%eax
    b0d0:	eb 05                	jmp    b0d7 <func_44+0x11b1>
    b0d2:	b8 00 00 00 00       	mov    $0x0,%eax
    b0d7:	98                   	cwtl   
    b0d8:	be f6 ff ff ff       	mov    $0xfffffff6,%esi
    b0dd:	89 c7                	mov    %eax,%edi
    b0df:	e8 32 a3 ff ff       	callq  5416 <safe_mod_func_int16_t_s_s>
    b0e4:	48 0f bf d0          	movswq %ax,%rdx
    b0e8:	48 8b 05 61 70 00 00 	mov    0x7061(%rip),%rax        # 12150 <g_137>
    b0ef:	48 39 c2             	cmp    %rax,%rdx
    b0f2:	0f 9f c0             	setg   %al
    b0f5:	0f b6 c0             	movzbl %al,%eax
    b0f8:	8b b5 1c f8 ff ff    	mov    -0x7e4(%rbp),%esi
    b0fe:	89 c7                	mov    %eax,%edi
    b100:	e8 65 a1 ff ff       	callq  526a <safe_div_func_int8_t_s_s>
    b105:	0f b6 c0             	movzbl %al,%eax
    b108:	44 89 fe             	mov    %r15d,%esi
    b10b:	89 c7                	mov    %eax,%edi
    b10d:	e8 48 aa ff ff       	callq  5b5a <safe_add_func_uint8_t_u_u>
    b112:	be 01 00 00 00       	mov    $0x1,%esi
    b117:	bf 01 00 00 00       	mov    $0x1,%edi
    b11c:	e8 8d aa ff ff       	callq  5bae <safe_mod_func_uint8_t_u_u>
    b121:	0f b6 c0             	movzbl %al,%eax
    b124:	33 85 24 f8 ff ff    	xor    -0x7dc(%rbp),%eax
    b12a:	be 00 00 00 00       	mov    $0x0,%esi
    b12f:	89 c7                	mov    %eax,%edi
    b131:	e8 cf a4 ff ff       	callq  5605 <safe_sub_func_int32_t_s_s>
    b136:	0f b6 c0             	movzbl %al,%eax
    b139:	44 89 f6             	mov    %r14d,%esi
    b13c:	89 c7                	mov    %eax,%edi
    b13e:	e8 c2 aa ff ff       	callq  5c05 <safe_lshift_func_uint8_t_u_s>
    b143:	0f b6 c0             	movzbl %al,%eax
    b146:	44 89 ee             	mov    %r13d,%esi
    b149:	89 c7                	mov    %eax,%edi
    b14b:	e8 83 a2 ff ff       	callq  53d3 <safe_sub_func_int16_t_s_s>
    b150:	98                   	cwtl   
    b151:	8b b5 20 f8 ff ff    	mov    -0x7e0(%rbp),%esi
    b157:	89 c7                	mov    %eax,%edi
    b159:	e8 c7 ad ff ff       	callq  5f25 <safe_div_func_uint32_t_u_u>
    b15e:	0f b6 c0             	movzbl %al,%eax
    b161:	44 89 e6             	mov    %r12d,%esi
    b164:	89 c7                	mov    %eax,%edi
    b166:	e8 43 aa ff ff       	callq  5bae <safe_mod_func_uint8_t_u_u>
    b16b:	89 c2                	mov    %eax,%edx
    b16d:	48 8b 85 d8 f8 ff ff 	mov    -0x728(%rbp),%rax
    b174:	0f b6 d2             	movzbl %dl,%edx
    b177:	89 10                	mov    %edx,(%rax)
    b179:	48 8b 05 28 8d 00 00 	mov    0x8d28(%rip),%rax        # 13ea8 <g_81>
    b180:	8b 10                	mov    (%rax),%edx
    b182:	48 8b 05 1f 8d 00 00 	mov    0x8d1f(%rip),%rax        # 13ea8 <g_81>
    b189:	81 ca aa 06 11 e2    	or     $0xe21106aa,%edx
    b18f:	89 10                	mov    %edx,(%rax)
    b191:	c6 85 31 f8 ff ff f7 	movb   $0xf7,-0x7cf(%rbp)
    b198:	eb 52                	jmp    b1ec <func_44+0x12c6>
    b19a:	48 8d 85 58 f8 ff ff 	lea    -0x7a8(%rbp),%rax
    b1a1:	48 89 85 d8 f8 ff ff 	mov    %rax,-0x728(%rbp)
    b1a8:	48 8b 85 d8 f8 ff ff 	mov    -0x728(%rbp),%rax
    b1af:	8b 95 3c f8 ff ff    	mov    -0x7c4(%rbp),%edx
    b1b5:	89 10                	mov    %edx,(%rax)
    b1b7:	8b 08                	mov    (%rax),%ecx
    b1b9:	48 8b 05 e8 8c 00 00 	mov    0x8ce8(%rip),%rax        # 13ea8 <g_81>
    b1c0:	8b 10                	mov    (%rax),%edx
    b1c2:	48 8b 05 df 8c 00 00 	mov    0x8cdf(%rip),%rax        # 13ea8 <g_81>
    b1c9:	09 ca                	or     %ecx,%edx
    b1cb:	89 10                	mov    %edx,(%rax)
    b1cd:	48 8b 85 d8 f8 ff ff 	mov    -0x728(%rbp),%rax
    b1d4:	8b 95 40 f8 ff ff    	mov    -0x7c0(%rbp),%edx
    b1da:	89 10                	mov    %edx,(%rax)
    b1dc:	0f b6 85 31 f8 ff ff 	movzbl -0x7cf(%rbp),%eax
    b1e3:	83 c0 01             	add    $0x1,%eax
    b1e6:	88 85 31 f8 ff ff    	mov    %al,-0x7cf(%rbp)
    b1ec:	0f b6 85 31 f8 ff ff 	movzbl -0x7cf(%rbp),%eax
    b1f3:	3c ff                	cmp    $0xff,%al
    b1f5:	74 a3                	je     b19a <func_44+0x1274>
    b1f7:	48 8b 05 7a 8e 00 00 	mov    0x8e7a(%rip),%rax        # 14078 <g_489>
    b1fe:	48 8b 15 6b 8e 00 00 	mov    0x8e6b(%rip),%rdx        # 14070 <g_487+0x30>
    b205:	48 89 10             	mov    %rdx,(%rax)
    b208:	e9 c3 07 00 00       	jmpq   b9d0 <func_44+0x1aaa>
    b20d:	48 c7 85 70 f9 ff ff 	movq   $0x0,-0x690(%rbp)
    b214:	00 00 00 00 
    b218:	c7 85 54 f8 ff ff 0c 	movl   $0xcb66470c,-0x7ac(%rbp)
    b21f:	47 66 cb 
    b222:	48 c7 85 78 f9 ff ff 	movq   $0x0,-0x688(%rbp)
    b229:	00 00 00 00 
    b22d:	48 8d 85 80 fa ff ff 	lea    -0x580(%rbp),%rax
    b234:	48 83 c0 08          	add    $0x8,%rax
    b238:	48 89 85 80 f9 ff ff 	mov    %rax,-0x680(%rbp)
    b23f:	48 8d 85 3c f8 ff ff 	lea    -0x7c4(%rbp),%rax
    b246:	48 89 85 88 f9 ff ff 	mov    %rax,-0x678(%rbp)
    b24d:	48 8d 85 e8 f8 ff ff 	lea    -0x718(%rbp),%rax
    b254:	48 89 85 90 f9 ff ff 	mov    %rax,-0x670(%rbp)
    b25b:	c7 85 9c f8 ff ff 05 	movl   $0x5,-0x764(%rbp)
    b262:	00 00 00 
    b265:	c7 85 a0 f8 ff ff 00 	movl   $0x0,-0x760(%rbp)
    b26c:	00 00 00 
    b26f:	c7 85 a4 f8 ff ff 69 	movl   $0x87ee1269,-0x75c(%rbp)
    b276:	12 ee 87 
    b279:	c7 85 58 f8 ff ff fa 	movl   $0xfffffffa,-0x7a8(%rbp)
    b280:	ff ff ff 
    b283:	48 8d 05 06 6f 00 00 	lea    0x6f06(%rip),%rax        # 12190 <g_241>
    b28a:	48 89 85 98 f9 ff ff 	mov    %rax,-0x668(%rbp)
    b291:	c7 85 78 f8 ff ff 00 	movl   $0x0,-0x788(%rbp)
    b298:	00 00 00 
    b29b:	eb 1e                	jmp    b2bb <func_44+0x1395>
    b29d:	8b 85 78 f8 ff ff    	mov    -0x788(%rbp),%eax
    b2a3:	48 98                	cltq   
    b2a5:	48 8d 95 c8 f8 ff ff 	lea    -0x738(%rbp),%rdx
    b2ac:	48 89 94 c5 68 fa ff 	mov    %rdx,-0x598(%rbp,%rax,8)
    b2b3:	ff 
    b2b4:	83 85 78 f8 ff ff 01 	addl   $0x1,-0x788(%rbp)
    b2bb:	83 bd 78 f8 ff ff 00 	cmpl   $0x0,-0x788(%rbp)
    b2c2:	7e d9                	jle    b29d <func_44+0x1377>
    b2c4:	48 c7 05 b1 8d 00 00 	movq   $0x0,0x8db1(%rip)        # 14080 <g_500>
    b2cb:	00 00 00 00 
    b2cf:	48 8b 05 aa 8d 00 00 	mov    0x8daa(%rip),%rax        # 14080 <g_500>
    b2d6:	48 8d 15 89 6d 00 00 	lea    0x6d89(%rip),%rdx        # 12066 <g_77+0x1>
    b2dd:	48 39 d0             	cmp    %rdx,%rax
    b2e0:	0f 95 c0             	setne  %al
    b2e3:	0f b6 d8             	movzbl %al,%ebx
    b2e6:	48 8d 85 31 f8 ff ff 	lea    -0x7cf(%rbp),%rax
    b2ed:	48 39 85 20 f9 ff ff 	cmp    %rax,-0x6e0(%rbp)
    b2f4:	0f 95 c0             	setne  %al
    b2f7:	0f b6 c0             	movzbl %al,%eax
    b2fa:	be 09 00 00 00       	mov    $0x9,%esi
    b2ff:	48 89 c7             	mov    %rax,%rdi
    b302:	e8 79 ad ff ff       	callq  6080 <safe_mod_func_uint64_t_u_u>
    b307:	be 29 5f 4b 64       	mov    $0x644b5f29,%esi
    b30c:	89 c7                	mov    %eax,%edi
    b30e:	e8 a3 a2 ff ff       	callq  55b6 <safe_add_func_int32_t_s_s>
    b313:	8b 05 47 6e 00 00    	mov    0x6e47(%rip),%eax        # 12160 <g_166>
    b319:	0b 85 84 f8 ff ff    	or     -0x77c(%rbp),%eax
    b31f:	89 c2                	mov    %eax,%edx
    b321:	8b 85 5c f8 ff ff    	mov    -0x7a4(%rbp),%eax
    b327:	39 c2                	cmp    %eax,%edx
    b329:	76 07                	jbe    b332 <func_44+0x140c>
    b32b:	83 bd 24 f8 ff ff 00 	cmpl   $0x0,-0x7dc(%rbp)
    b332:	0f b7 05 eb 6c 00 00 	movzwl 0x6ceb(%rip),%eax        # 12024 <g_2>
    b339:	0f be c0             	movsbl %al,%eax
    b33c:	be 00 00 00 00       	mov    $0x0,%esi
    b341:	89 c7                	mov    %eax,%edi
    b343:	e8 aa 9e ff ff       	callq  51f2 <safe_sub_func_int8_t_s_s>
    b348:	8b 85 54 f8 ff ff    	mov    -0x7ac(%rbp),%eax
    b34e:	89 c1                	mov    %eax,%ecx
    b350:	48 8b 85 28 f8 ff ff 	mov    -0x7d8(%rbp),%rax
    b357:	48 8b 10             	mov    (%rax),%rdx
    b35a:	48 8b 85 28 f8 ff ff 	mov    -0x7d8(%rbp),%rax
    b361:	48 8b 00             	mov    (%rax),%rax
    b364:	8b 12                	mov    (%rdx),%edx
    b366:	89 10                	mov    %edx,(%rax)
    b368:	8b 00                	mov    (%rax),%eax
    b36a:	89 ce                	mov    %ecx,%esi
    b36c:	89 c7                	mov    %eax,%edi
    b36e:	e8 5d ab ff ff       	callq  5ed0 <safe_sub_func_uint32_t_u_u>
    b373:	89 c2                	mov    %eax,%edx
    b375:	48 8b 85 80 f9 ff ff 	mov    -0x680(%rbp),%rax
    b37c:	89 10                	mov    %edx,(%rax)
    b37e:	8b 85 54 f8 ff ff    	mov    -0x7ac(%rbp),%eax
    b384:	0f b6 c0             	movzbl %al,%eax
    b387:	83 e0 03             	and    $0x3,%eax
    b38a:	89 c2                	mov    %eax,%edx
    b38c:	0f b7 85 34 f8 ff ff 	movzwl -0x7cc(%rbp),%eax
    b393:	0f b6 c0             	movzbl %al,%eax
    b396:	89 d6                	mov    %edx,%esi
    b398:	89 c7                	mov    %eax,%edi
    b39a:	e8 bb a7 ff ff       	callq  5b5a <safe_add_func_uint8_t_u_u>
    b39f:	83 f0 80             	xor    $0xffffff80,%eax
    b3a2:	89 c2                	mov    %eax,%edx
    b3a4:	0f b6 05 96 6e 00 00 	movzbl 0x6e96(%rip),%eax        # 12241 <g_459>
    b3ab:	38 c2                	cmp    %al,%dl
    b3ad:	0f 92 c0             	setb   %al
    b3b0:	0f b6 c0             	movzbl %al,%eax
    b3b3:	39 c3                	cmp    %eax,%ebx
    b3b5:	0f 9d c0             	setge  %al
    b3b8:	0f b6 c0             	movzbl %al,%eax
    b3bb:	be 72 00 00 00       	mov    $0x72,%esi
    b3c0:	89 c7                	mov    %eax,%edi
    b3c2:	e8 93 a7 ff ff       	callq  5b5a <safe_add_func_uint8_t_u_u>
    b3c7:	0f b6 c0             	movzbl %al,%eax
    b3ca:	39 85 98 f8 ff ff    	cmp    %eax,-0x768(%rbp)
    b3d0:	0f 92 c0             	setb   %al
    b3d3:	0f b6 c0             	movzbl %al,%eax
    b3d6:	be f8 ff ff ff       	mov    $0xfffffff8,%esi
    b3db:	89 c7                	mov    %eax,%edi
    b3dd:	e8 13 a0 ff ff       	callq  53f5 <safe_mul_func_int16_t_s_s>
    b3e2:	0f bf d0             	movswl %ax,%edx
    b3e5:	8b 85 50 f8 ff ff    	mov    -0x7b0(%rbp),%eax
    b3eb:	31 d0                	xor    %edx,%eax
    b3ed:	89 85 50 f8 ff ff    	mov    %eax,-0x7b0(%rbp)
    b3f3:	8b 85 50 f8 ff ff    	mov    -0x7b0(%rbp),%eax
    b3f9:	85 c0                	test   %eax,%eax
    b3fb:	0f 95 c0             	setne  %al
    b3fe:	0f b6 d0             	movzbl %al,%edx
    b401:	48 83 bd 38 f9 ff ff 	cmpq   $0x0,-0x6c8(%rbp)
    b408:	00 
    b409:	0f 95 c0             	setne  %al
    b40c:	0f b6 c0             	movzbl %al,%eax
    b40f:	89 d6                	mov    %edx,%esi
    b411:	89 c7                	mov    %eax,%edi
    b413:	e8 a6 a9 ff ff       	callq  5dbe <safe_lshift_func_uint16_t_u_s>
    b418:	ba 00 00 00 00       	mov    $0x0,%edx
    b41d:	48 8b 85 88 f9 ff ff 	mov    -0x678(%rbp),%rax
    b424:	8b 00                	mov    (%rax),%eax
    b426:	21 d0                	and    %edx,%eax
    b428:	89 c2                	mov    %eax,%edx
    b42a:	48 8b 85 88 f9 ff ff 	mov    -0x678(%rbp),%rax
    b431:	89 10                	mov    %edx,(%rax)
    b433:	0f b7 05 ea 6b 00 00 	movzwl 0x6bea(%rip),%eax        # 12024 <g_2>
    b43a:	0f b7 c8             	movzwl %ax,%ecx
    b43d:	48 8b 85 90 f9 ff ff 	mov    -0x670(%rbp),%rax
    b444:	48 8b 95 60 f9 ff ff 	mov    -0x6a0(%rbp),%rdx
    b44b:	48 89 10             	mov    %rdx,(%rax)
    b44e:	48 8b 85 90 f9 ff ff 	mov    -0x670(%rbp),%rax
    b455:	48 8b 00             	mov    (%rax),%rax
    b458:	48 39 85 30 f9 ff ff 	cmp    %rax,-0x6d0(%rbp)
    b45f:	0f 95 c0             	setne  %al
    b462:	0f b6 c0             	movzbl %al,%eax
    b465:	39 c1                	cmp    %eax,%ecx
    b467:	0f 9d c0             	setge  %al
    b46a:	0f b6 c8             	movzbl %al,%ecx
    b46d:	48 8b 85 38 f9 ff ff 	mov    -0x6c8(%rbp),%rax
    b474:	48 8b 00             	mov    (%rax),%rax
    b477:	48 8b 00             	mov    (%rax),%rax
    b47a:	8b 10                	mov    (%rax),%edx
    b47c:	48 8b 85 38 f9 ff ff 	mov    -0x6c8(%rbp),%rax
    b483:	48 8b 00             	mov    (%rax),%rax
    b486:	48 8b 00             	mov    (%rax),%rax
    b489:	31 ca                	xor    %ecx,%edx
    b48b:	89 10                	mov    %edx,(%rax)
    b48d:	8b 00                	mov    (%rax),%eax
    b48f:	85 c0                	test   %eax,%eax
    b491:	0f 84 4f 01 00 00    	je     b5e6 <func_44+0x16c0>
    b497:	48 8d 85 40 f8 ff ff 	lea    -0x7c0(%rbp),%rax
    b49e:	48 89 85 00 fa ff ff 	mov    %rax,-0x600(%rbp)
    b4a5:	48 8d 85 3c f8 ff ff 	lea    -0x7c4(%rbp),%rax
    b4ac:	48 89 85 08 fa ff ff 	mov    %rax,-0x5f8(%rbp)
    b4b3:	48 c7 85 10 fa ff ff 	movq   $0x0,-0x5f0(%rbp)
    b4ba:	00 00 00 00 
    b4be:	48 c7 85 d0 fb ff ff 	movq   $0x0,-0x430(%rbp)
    b4c5:	00 00 00 00 
    b4c9:	48 8d 85 38 f8 ff ff 	lea    -0x7c8(%rbp),%rax
    b4d0:	48 89 85 d8 fb ff ff 	mov    %rax,-0x428(%rbp)
    b4d7:	48 c7 85 e0 fb ff ff 	movq   $0x0,-0x420(%rbp)
    b4de:	00 00 00 00 
    b4e2:	48 c7 85 e8 fb ff ff 	movq   $0x0,-0x418(%rbp)
    b4e9:	00 00 00 00 
    b4ed:	48 8d 85 54 f8 ff ff 	lea    -0x7ac(%rbp),%rax
    b4f4:	48 89 85 f0 fb ff ff 	mov    %rax,-0x410(%rbp)
    b4fb:	48 8d 85 38 f8 ff ff 	lea    -0x7c8(%rbp),%rax
    b502:	48 89 85 f8 fb ff ff 	mov    %rax,-0x408(%rbp)
    b509:	48 8d 85 54 f8 ff ff 	lea    -0x7ac(%rbp),%rax
    b510:	48 89 85 00 fc ff ff 	mov    %rax,-0x400(%rbp)
    b517:	48 c7 85 08 fc ff ff 	movq   $0x0,-0x3f8(%rbp)
    b51e:	00 00 00 00 
    b522:	48 c7 85 10 fc ff ff 	movq   $0x0,-0x3f0(%rbp)
    b529:	00 00 00 00 
    b52d:	48 8d 85 38 f8 ff ff 	lea    -0x7c8(%rbp),%rax
    b534:	48 89 85 18 fc ff ff 	mov    %rax,-0x3e8(%rbp)
    b53b:	48 c7 85 20 fc ff ff 	movq   $0x0,-0x3e0(%rbp)
    b542:	00 00 00 00 
    b546:	48 8d 85 3c f8 ff ff 	lea    -0x7c4(%rbp),%rax
    b54d:	48 89 85 28 fc ff ff 	mov    %rax,-0x3d8(%rbp)
    b554:	48 8d 05 6d 92 00 00 	lea    0x926d(%rip),%rax        # 147c8 <g_72>
    b55b:	48 89 85 30 fc ff ff 	mov    %rax,-0x3d0(%rbp)
    b562:	48 8d 85 54 f8 ff ff 	lea    -0x7ac(%rbp),%rax
    b569:	48 89 85 38 fc ff ff 	mov    %rax,-0x3c8(%rbp)
    b570:	48 8d 85 50 f8 ff ff 	lea    -0x7b0(%rbp),%rax
    b577:	48 89 85 40 fc ff ff 	mov    %rax,-0x3c0(%rbp)
    b57e:	48 8d 85 38 f8 ff ff 	lea    -0x7c8(%rbp),%rax
    b585:	48 89 85 48 fc ff ff 	mov    %rax,-0x3b8(%rbp)
    b58c:	48 8d 85 38 f8 ff ff 	lea    -0x7c8(%rbp),%rax
    b593:	48 89 85 50 fc ff ff 	mov    %rax,-0x3b0(%rbp)
    b59a:	48 8d 85 50 f8 ff ff 	lea    -0x7b0(%rbp),%rax
    b5a1:	48 89 85 58 fc ff ff 	mov    %rax,-0x3a8(%rbp)
    b5a8:	48 8d 85 54 f8 ff ff 	lea    -0x7ac(%rbp),%rax
    b5af:	48 89 85 60 fc ff ff 	mov    %rax,-0x3a0(%rbp)
    b5b6:	48 8d 05 0b 92 00 00 	lea    0x920b(%rip),%rax        # 147c8 <g_72>
    b5bd:	48 89 85 68 fc ff ff 	mov    %rax,-0x398(%rbp)
    b5c4:	48 8d 85 3c f8 ff ff 	lea    -0x7c4(%rbp),%rax
    b5cb:	48 89 85 70 fc ff ff 	mov    %rax,-0x390(%rbp)
    b5d2:	8b 05 18 6e 00 00    	mov    0x6e18(%rip),%eax        # 123f0 <g_535>
    b5d8:	83 e8 01             	sub    $0x1,%eax
    b5db:	89 05 0f 6e 00 00    	mov    %eax,0x6e0f(%rip)        # 123f0 <g_535>
    b5e1:	e9 bb 03 00 00       	jmpq   b9a1 <func_44+0x1a7b>
    b5e6:	48 8d 85 c8 f8 ff ff 	lea    -0x738(%rbp),%rax
    b5ed:	48 89 85 a0 f9 ff ff 	mov    %rax,-0x660(%rbp)
    b5f4:	c7 85 a8 f8 ff ff b3 	movl   $0x9176c1b3,-0x758(%rbp)
    b5fb:	c1 76 91 
    b5fe:	c7 85 5c f8 ff ff 00 	movl   $0x0,-0x7a4(%rbp)
    b605:	00 00 00 
    b608:	e9 87 03 00 00       	jmpq   b994 <func_44+0x1a6e>
    b60d:	48 c7 85 a8 f9 ff ff 	movq   $0x0,-0x658(%rbp)
    b614:	00 00 00 00 
    b618:	48 8d 85 3c f8 ff ff 	lea    -0x7c4(%rbp),%rax
    b61f:	48 89 85 b0 f9 ff ff 	mov    %rax,-0x650(%rbp)
    b626:	48 c7 85 b8 f9 ff ff 	movq   $0x0,-0x648(%rbp)
    b62d:	00 00 00 00 
    b631:	48 c7 85 c0 f9 ff ff 	movq   $0x0,-0x640(%rbp)
    b638:	00 00 00 00 
    b63c:	48 c7 85 c8 f9 ff ff 	movq   $0x0,-0x638(%rbp)
    b643:	00 00 00 00 
    b647:	48 8d 05 7a 91 00 00 	lea    0x917a(%rip),%rax        # 147c8 <g_72>
    b64e:	48 89 85 d0 f9 ff ff 	mov    %rax,-0x630(%rbp)
    b655:	48 8d 85 48 f8 ff ff 	lea    -0x7b8(%rbp),%rax
    b65c:	48 89 85 d8 f9 ff ff 	mov    %rax,-0x628(%rbp)
    b663:	48 c7 85 e0 f9 ff ff 	movq   $0x0,-0x620(%rbp)
    b66a:	00 00 00 00 
    b66e:	48 8d 85 58 f8 ff ff 	lea    -0x7a8(%rbp),%rax
    b675:	48 89 85 e8 f9 ff ff 	mov    %rax,-0x618(%rbp)
    b67c:	48 8d 85 54 f8 ff ff 	lea    -0x7ac(%rbp),%rax
    b683:	48 89 85 f0 f9 ff ff 	mov    %rax,-0x610(%rbp)
    b68a:	48 8d 85 48 f8 ff ff 	lea    -0x7b8(%rbp),%rax
    b691:	48 89 85 f8 f9 ff ff 	mov    %rax,-0x608(%rbp)
    b698:	48 8d 85 4c f8 ff ff 	lea    -0x7b4(%rbp),%rax
    b69f:	48 89 85 d0 fb ff ff 	mov    %rax,-0x430(%rbp)
    b6a6:	48 8d 85 4c f8 ff ff 	lea    -0x7b4(%rbp),%rax
    b6ad:	48 89 85 d8 fb ff ff 	mov    %rax,-0x428(%rbp)
    b6b4:	48 8d 85 48 f8 ff ff 	lea    -0x7b8(%rbp),%rax
    b6bb:	48 89 85 e0 fb ff ff 	mov    %rax,-0x420(%rbp)
    b6c2:	48 8d 85 4c f8 ff ff 	lea    -0x7b4(%rbp),%rax
    b6c9:	48 89 85 e8 fb ff ff 	mov    %rax,-0x418(%rbp)
    b6d0:	48 8d 85 4c f8 ff ff 	lea    -0x7b4(%rbp),%rax
    b6d7:	48 89 85 f0 fb ff ff 	mov    %rax,-0x410(%rbp)
    b6de:	48 8d 85 48 f8 ff ff 	lea    -0x7b8(%rbp),%rax
    b6e5:	48 89 85 f8 fb ff ff 	mov    %rax,-0x408(%rbp)
    b6ec:	48 8d 85 4c f8 ff ff 	lea    -0x7b4(%rbp),%rax
    b6f3:	48 89 85 00 fc ff ff 	mov    %rax,-0x400(%rbp)
    b6fa:	48 8d 85 4c f8 ff ff 	lea    -0x7b4(%rbp),%rax
    b701:	48 89 85 08 fc ff ff 	mov    %rax,-0x3f8(%rbp)
    b708:	48 8d 85 48 f8 ff ff 	lea    -0x7b8(%rbp),%rax
    b70f:	48 89 85 10 fc ff ff 	mov    %rax,-0x3f0(%rbp)
    b716:	48 8d 85 4c f8 ff ff 	lea    -0x7b4(%rbp),%rax
    b71d:	48 89 85 18 fc ff ff 	mov    %rax,-0x3e8(%rbp)
    b724:	48 8d 85 4c f8 ff ff 	lea    -0x7b4(%rbp),%rax
    b72b:	48 89 85 20 fc ff ff 	mov    %rax,-0x3e0(%rbp)
    b732:	48 8d 85 48 f8 ff ff 	lea    -0x7b8(%rbp),%rax
    b739:	48 89 85 28 fc ff ff 	mov    %rax,-0x3d8(%rbp)
    b740:	48 8d 85 4c f8 ff ff 	lea    -0x7b4(%rbp),%rax
    b747:	48 89 85 30 fc ff ff 	mov    %rax,-0x3d0(%rbp)
    b74e:	48 8d 85 4c f8 ff ff 	lea    -0x7b4(%rbp),%rax
    b755:	48 89 85 38 fc ff ff 	mov    %rax,-0x3c8(%rbp)
    b75c:	48 8d 85 48 f8 ff ff 	lea    -0x7b8(%rbp),%rax
    b763:	48 89 85 40 fc ff ff 	mov    %rax,-0x3c0(%rbp)
    b76a:	48 8d 85 4c f8 ff ff 	lea    -0x7b4(%rbp),%rax
    b771:	48 89 85 48 fc ff ff 	mov    %rax,-0x3b8(%rbp)
    b778:	48 8d 85 4c f8 ff ff 	lea    -0x7b4(%rbp),%rax
    b77f:	48 89 85 50 fc ff ff 	mov    %rax,-0x3b0(%rbp)
    b786:	48 8d 85 48 f8 ff ff 	lea    -0x7b8(%rbp),%rax
    b78d:	48 89 85 58 fc ff ff 	mov    %rax,-0x3a8(%rbp)
    b794:	48 8d 85 4c f8 ff ff 	lea    -0x7b4(%rbp),%rax
    b79b:	48 89 85 60 fc ff ff 	mov    %rax,-0x3a0(%rbp)
    b7a2:	48 8d 85 4c f8 ff ff 	lea    -0x7b4(%rbp),%rax
    b7a9:	48 89 85 68 fc ff ff 	mov    %rax,-0x398(%rbp)
    b7b0:	48 8d 85 48 f8 ff ff 	lea    -0x7b8(%rbp),%rax
    b7b7:	48 89 85 70 fc ff ff 	mov    %rax,-0x390(%rbp)
    b7be:	48 8d 85 4c f8 ff ff 	lea    -0x7b4(%rbp),%rax
    b7c5:	48 89 85 78 fc ff ff 	mov    %rax,-0x388(%rbp)
    b7cc:	48 8d 85 4c f8 ff ff 	lea    -0x7b4(%rbp),%rax
    b7d3:	48 89 85 80 fc ff ff 	mov    %rax,-0x380(%rbp)
    b7da:	48 8d 85 48 f8 ff ff 	lea    -0x7b8(%rbp),%rax
    b7e1:	48 89 85 88 fc ff ff 	mov    %rax,-0x378(%rbp)
    b7e8:	48 8d 85 4c f8 ff ff 	lea    -0x7b4(%rbp),%rax
    b7ef:	48 89 85 90 fc ff ff 	mov    %rax,-0x370(%rbp)
    b7f6:	48 8d 85 4c f8 ff ff 	lea    -0x7b4(%rbp),%rax
    b7fd:	48 89 85 98 fc ff ff 	mov    %rax,-0x368(%rbp)
    b804:	48 8d 85 48 f8 ff ff 	lea    -0x7b8(%rbp),%rax
    b80b:	48 89 85 a0 fc ff ff 	mov    %rax,-0x360(%rbp)
    b812:	48 8d 85 4c f8 ff ff 	lea    -0x7b4(%rbp),%rax
    b819:	48 89 85 a8 fc ff ff 	mov    %rax,-0x358(%rbp)
    b820:	48 8d 85 4c f8 ff ff 	lea    -0x7b4(%rbp),%rax
    b827:	48 89 85 b0 fc ff ff 	mov    %rax,-0x350(%rbp)
    b82e:	48 8d 85 48 f8 ff ff 	lea    -0x7b8(%rbp),%rax
    b835:	48 89 85 b8 fc ff ff 	mov    %rax,-0x348(%rbp)
    b83c:	48 8d 85 4c f8 ff ff 	lea    -0x7b4(%rbp),%rax
    b843:	48 89 85 c0 fc ff ff 	mov    %rax,-0x340(%rbp)
    b84a:	48 8d 85 4c f8 ff ff 	lea    -0x7b4(%rbp),%rax
    b851:	48 89 85 c8 fc ff ff 	mov    %rax,-0x338(%rbp)
    b858:	c7 85 7c f8 ff ff 00 	movl   $0x0,-0x784(%rbp)
    b85f:	00 00 00 
    b862:	eb 1b                	jmp    b87f <func_44+0x1959>
    b864:	8b 85 7c f8 ff ff    	mov    -0x784(%rbp),%eax
    b86a:	48 98                	cltq   
    b86c:	48 c7 84 c5 e0 fa ff 	movq   $0x0,-0x520(%rbp,%rax,8)
    b873:	ff 00 00 00 00 
    b878:	83 85 7c f8 ff ff 01 	addl   $0x1,-0x784(%rbp)
    b87f:	83 bd 7c f8 ff ff 00 	cmpl   $0x0,-0x784(%rbp)
    b886:	7e dc                	jle    b864 <func_44+0x193e>
    b888:	8b 85 5c f8 ff ff    	mov    -0x7a4(%rbp),%eax
    b88e:	83 c0 02             	add    $0x2,%eax
    b891:	48 98                	cltq   
    b893:	8b 94 85 80 fa ff ff 	mov    -0x580(%rbp,%rax,4),%edx
    b89a:	48 8b 05 1f 86 00 00 	mov    0x861f(%rip),%rax        # 13ec0 <g_216>
    b8a1:	48 63 d2             	movslq %edx,%rdx
    b8a4:	48 89 10             	mov    %rdx,(%rax)
    b8a7:	48 8b 00             	mov    (%rax),%rax
    b8aa:	66 0d 4c 80          	or     $0x804c,%ax
    b8ae:	98                   	cwtl   
    b8af:	be 06 00 00 00       	mov    $0x6,%esi
    b8b4:	89 c7                	mov    %eax,%edi
    b8b6:	e8 d7 9b ff ff       	callq  5492 <safe_lshift_func_int16_t_s_s>
    b8bb:	48 8b 85 40 f9 ff ff 	mov    -0x6c0(%rbp),%rax
    b8c2:	48 3b 85 a0 f9 ff ff 	cmp    -0x660(%rbp),%rax
    b8c9:	0f 85 99 00 00 00    	jne    b968 <func_44+0x1a42>
    b8cf:	48 8b 05 ca 85 00 00 	mov    0x85ca(%rip),%rax        # 13ea0 <g_47>
    b8d6:	48 8b 00             	mov    (%rax),%rax
    b8d9:	8b 18                	mov    (%rax),%ebx
    b8db:	8b 85 24 f8 ff ff    	mov    -0x7dc(%rbp),%eax
    b8e1:	0f be d0             	movsbl %al,%edx
    b8e4:	48 8b 85 88 f9 ff ff 	mov    -0x678(%rbp),%rax
    b8eb:	8b 00                	mov    (%rax),%eax
    b8ed:	0f be c0             	movsbl %al,%eax
    b8f0:	89 d6                	mov    %edx,%esi
    b8f2:	89 c7                	mov    %eax,%edi
    b8f4:	e8 db 98 ff ff       	callq  51d4 <safe_add_func_int8_t_s_s>
    b8f9:	0f be d0             	movsbl %al,%edx
    b8fc:	48 8d 05 8d 68 00 00 	lea    0x688d(%rip),%rax        # 12190 <g_241>
    b903:	48 89 85 e0 fa ff ff 	mov    %rax,-0x520(%rbp)
    b90a:	48 8b 85 e0 fa ff ff 	mov    -0x520(%rbp),%rax
    b911:	48 8b 8d a8 f9 ff ff 	mov    -0x658(%rbp),%rcx
    b918:	48 89 8d 98 f9 ff ff 	mov    %rcx,-0x668(%rbp)
    b91f:	48 39 85 98 f9 ff ff 	cmp    %rax,-0x668(%rbp)
    b926:	0f 95 c0             	setne  %al
    b929:	0f b6 c0             	movzbl %al,%eax
    b92c:	89 d6                	mov    %edx,%esi
    b92e:	89 c7                	mov    %eax,%edi
    b930:	e8 58 a3 ff ff       	callq  5c8d <safe_rshift_func_uint8_t_u_s>
    b935:	3c fb                	cmp    $0xfb,%al
    b937:	0f 97 c0             	seta   %al
    b93a:	0f b6 c0             	movzbl %al,%eax
    b93d:	89 de                	mov    %ebx,%esi
    b93f:	89 c7                	mov    %eax,%edi
    b941:	e8 b7 a5 ff ff       	callq  5efd <safe_mod_func_uint32_t_u_u>
    b946:	85 c0                	test   %eax,%eax
    b948:	75 0a                	jne    b954 <func_44+0x1a2e>
    b94a:	0f b7 05 47 68 00 00 	movzwl 0x6847(%rip),%eax        # 12198 <g_246>
    b951:	66 85 c0             	test   %ax,%ax
    b954:	48 8b 85 88 f9 ff ff 	mov    -0x678(%rbp),%rax
    b95b:	8b 00                	mov    (%rax),%eax
    b95d:	85 c0                	test   %eax,%eax
    b95f:	74 07                	je     b968 <func_44+0x1a42>
    b961:	ba 01 00 00 00       	mov    $0x1,%edx
    b966:	eb 05                	jmp    b96d <func_44+0x1a47>
    b968:	ba 00 00 00 00       	mov    $0x0,%edx
    b96d:	48 8b 05 44 85 00 00 	mov    0x8544(%rip),%rax        # 13eb8 <g_83>
    b974:	48 8b 00             	mov    (%rax),%rax
    b977:	48 8b 00             	mov    (%rax),%rax
    b97a:	89 10                	mov    %edx,(%rax)
    b97c:	0f b7 85 ac fa ff ff 	movzwl -0x554(%rbp),%eax
    b983:	83 c0 01             	add    $0x1,%eax
    b986:	66 89 85 ac fa ff ff 	mov    %ax,-0x554(%rbp)
    b98d:	83 85 5c f8 ff ff 01 	addl   $0x1,-0x7a4(%rbp)
    b994:	83 bd 5c f8 ff ff 01 	cmpl   $0x1,-0x7a4(%rbp)
    b99b:	0f 8e 6c fc ff ff    	jle    b60d <func_44+0x16e7>
    b9a1:	83 bd 5c f8 ff ff 00 	cmpl   $0x0,-0x7a4(%rbp)
    b9a8:	74 13                	je     b9bd <func_44+0x1a97>
    b9aa:	0f b7 05 8f 67 00 00 	movzwl 0x678f(%rip),%eax        # 12140 <g_116>
    b9b1:	83 c0 01             	add    $0x1,%eax
    b9b4:	66 89 05 85 67 00 00 	mov    %ax,0x6785(%rip)        # 12140 <g_116>
    b9bb:	eb 1f                	jmp    b9dc <func_44+0x1ab6>
    b9bd:	48 8b 05 f4 84 00 00 	mov    0x84f4(%rip),%rax        # 13eb8 <g_83>
    b9c4:	48 8b 00             	mov    (%rax),%rax
    b9c7:	48 8b 00             	mov    (%rax),%rax
    b9ca:	8b 00                	mov    (%rax),%eax
    b9cc:	85 c0                	test   %eax,%eax
    b9ce:	75 1d                	jne    b9ed <func_44+0x1ac7>
    b9d0:	48 8d 05 69 66 00 00 	lea    0x6669(%rip),%rax        # 12040 <g_19>
    b9d7:	e9 09 02 00 00       	jmpq   bbe5 <func_44+0x1cbf>
    b9dc:	0f b7 05 5d 67 00 00 	movzwl 0x675d(%rip),%eax        # 12140 <g_116>
    b9e3:	66 83 f8 13          	cmp    $0x13,%ax
    b9e7:	0f 8f ab f3 ff ff    	jg     ad98 <func_44+0xe72>
    b9ed:	48 8b 85 f0 f8 ff ff 	mov    -0x710(%rbp),%rax
    b9f4:	48 8b 00             	mov    (%rax),%rax
    b9f7:	8b 00                	mov    (%rax),%eax
    b9f9:	0f b7 d8             	movzwl %ax,%ebx
    b9fc:	8b 85 24 f8 ff ff    	mov    -0x7dc(%rbp),%eax
    ba02:	0f be c0             	movsbl %al,%eax
    ba05:	be 01 00 00 00       	mov    $0x1,%esi
    ba0a:	89 c7                	mov    %eax,%edi
    ba0c:	e8 90 98 ff ff       	callq  52a1 <safe_lshift_func_int8_t_s_s>
    ba11:	0f b6 85 31 f8 ff ff 	movzbl -0x7cf(%rbp),%eax
    ba18:	84 c0                	test   %al,%al
    ba1a:	75 1f                	jne    ba3b <func_44+0x1b15>
    ba1c:	8b 95 24 f8 ff ff    	mov    -0x7dc(%rbp),%edx
    ba22:	8b 85 24 f8 ff ff    	mov    -0x7dc(%rbp),%eax
    ba28:	48 89 d6             	mov    %rdx,%rsi
    ba2b:	48 89 c7             	mov    %rax,%rdi
    ba2e:	e8 7c a6 ff ff       	callq  60af <safe_div_func_uint64_t_u_u>
    ba33:	8b 85 48 f8 ff ff    	mov    -0x7b8(%rbp),%eax
    ba39:	85 c0                	test   %eax,%eax
    ba3b:	0f b7 05 54 69 00 00 	movzwl 0x6954(%rip),%eax        # 12396 <g_533+0x136>
    ba42:	0f b6 d0             	movzbl %al,%edx
    ba45:	48 8b 85 50 f9 ff ff 	mov    -0x6b0(%rbp),%rax
    ba4c:	48 8d 0d d1 65 00 00 	lea    0x65d1(%rip),%rcx        # 12024 <g_2>
    ba53:	48 89 08             	mov    %rcx,(%rax)
    ba56:	48 8b 85 50 f9 ff ff 	mov    -0x6b0(%rbp),%rax
    ba5d:	48 8b 30             	mov    (%rax),%rsi
    ba60:	48 8b 8d e0 f8 ff ff 	mov    -0x720(%rbp),%rcx
    ba67:	48 8b 85 58 f9 ff ff 	mov    -0x6a8(%rbp),%rax
    ba6e:	48 89 08             	mov    %rcx,(%rax)
    ba71:	48 8b 85 58 f9 ff ff 	mov    -0x6a8(%rbp),%rax
    ba78:	48 8b 00             	mov    (%rax),%rax
    ba7b:	48 39 c6             	cmp    %rax,%rsi
    ba7e:	0f 95 c0             	setne  %al
    ba81:	0f b6 c0             	movzbl %al,%eax
    ba84:	89 d6                	mov    %edx,%esi
    ba86:	89 c7                	mov    %eax,%edi
    ba88:	e8 06 a1 ff ff       	callq  5b93 <safe_mul_func_uint8_t_u_u>
    ba8d:	44 0f b6 e0          	movzbl %al,%r12d
    ba91:	48 8b 85 48 f9 ff ff 	mov    -0x6b8(%rbp),%rax
    ba98:	48 8d 95 d0 f8 ff ff 	lea    -0x730(%rbp),%rdx
    ba9f:	48 89 10             	mov    %rdx,(%rax)
    baa2:	0f be 85 32 f8 ff ff 	movsbl -0x7ce(%rbp),%eax
    baa9:	be 00 00 00 00       	mov    $0x0,%esi
    baae:	89 c7                	mov    %eax,%edi
    bab0:	e8 3d 97 ff ff       	callq  51f2 <safe_sub_func_int8_t_s_s>
    bab5:	48 0f be c0          	movsbq %al,%rax
    bab9:	4c 89 e6             	mov    %r12,%rsi
    babc:	48 89 c7             	mov    %rax,%rdi
    babf:	e8 87 a5 ff ff       	callq  604b <safe_sub_func_uint64_t_u_u>
    bac4:	0f b6 d0             	movzbl %al,%edx
    bac7:	48 8b 85 d8 f8 ff ff 	mov    -0x728(%rbp),%rax
    bace:	8b 00                	mov    (%rax),%eax
    bad0:	0f b6 c0             	movzbl %al,%eax
    bad3:	89 d6                	mov    %edx,%esi
    bad5:	89 c7                	mov    %eax,%edi
    bad7:	e8 d2 a0 ff ff       	callq  5bae <safe_mod_func_uint8_t_u_u>
    badc:	0f b6 d0             	movzbl %al,%edx
    badf:	48 8b 05 a2 65 00 00 	mov    0x65a2(%rip),%rax        # 12088 <g_112+0x8>
    bae6:	48 39 c2             	cmp    %rax,%rdx
    bae9:	0f 92 c0             	setb   %al
    baec:	0f b6 c0             	movzbl %al,%eax
    baef:	39 85 24 f8 ff ff    	cmp    %eax,-0x7dc(%rbp)
    baf5:	0f 97 c0             	seta   %al
    baf8:	0f b6 c0             	movzbl %al,%eax
    bafb:	be 09 00 00 00       	mov    $0x9,%esi
    bb00:	89 c7                	mov    %eax,%edi
    bb02:	e8 fe 9a ff ff       	callq  5605 <safe_sub_func_int32_t_s_s>
    bb07:	89 c7                	mov    %eax,%edi
    bb09:	e8 88 9a ff ff       	callq  5596 <safe_unary_minus_func_int32_t_s>
    bb0e:	48 63 d0             	movslq %eax,%rdx
    bb11:	48 8b 05 38 66 00 00 	mov    0x6638(%rip),%rax        # 12150 <g_137>
    bb18:	48 39 c2             	cmp    %rax,%rdx
    bb1b:	0f 9d c2             	setge  %dl
    bb1e:	48 8b 85 28 f8 ff ff 	mov    -0x7d8(%rbp),%rax
    bb25:	48 8b 00             	mov    (%rax),%rax
    bb28:	0f b6 d2             	movzbl %dl,%edx
    bb2b:	89 10                	mov    %edx,(%rax)
    bb2d:	8b 10                	mov    (%rax),%edx
    bb2f:	0f b7 05 10 67 00 00 	movzwl 0x6710(%rip),%eax        # 12246 <g_465>
    bb36:	98                   	cwtl   
    bb37:	39 c2                	cmp    %eax,%edx
    bb39:	0f 93 c2             	setae  %dl
    bb3c:	48 8b 85 e8 f8 ff ff 	mov    -0x718(%rbp),%rax
    bb43:	88 10                	mov    %dl,(%rax)
    bb45:	48 8b 05 74 83 00 00 	mov    0x8374(%rip),%rax        # 13ec0 <g_216>
    bb4c:	48 8b 00             	mov    (%rax),%rax
    bb4f:	48 3d fe 00 00 00    	cmp    $0xfe,%rax
    bb55:	0f 9e c0             	setle  %al
    bb58:	0f b6 d0             	movzbl %al,%edx
    bb5b:	48 8b 85 f0 f8 ff ff 	mov    -0x710(%rbp),%rax
    bb62:	48 8b 00             	mov    (%rax),%rax
    bb65:	8b 00                	mov    (%rax),%eax
    bb67:	39 c2                	cmp    %eax,%edx
    bb69:	0f 94 c0             	sete   %al
    bb6c:	0f b6 c0             	movzbl %al,%eax
    bb6f:	be 01 00 00 00       	mov    $0x1,%esi
    bb74:	89 c7                	mov    %eax,%edi
    bb76:	e8 17 99 ff ff       	callq  5492 <safe_lshift_func_int16_t_s_s>
    bb7b:	48 0f bf d0          	movswq %ax,%rdx
    bb7f:	48 8b 85 b0 fb ff ff 	mov    -0x450(%rbp),%rax
    bb86:	48 39 c2             	cmp    %rax,%rdx
    bb89:	0f 96 c0             	setbe  %al
    bb8c:	0f b6 c0             	movzbl %al,%eax
    bb8f:	89 de                	mov    %ebx,%esi
    bb91:	89 c7                	mov    %eax,%edi
    bb93:	e8 a5 a1 ff ff       	callq  5d3d <safe_mul_func_uint16_t_u_u>
    bb98:	48 8b 05 21 83 00 00 	mov    0x8321(%rip),%rax        # 13ec0 <g_216>
    bb9f:	48 8b 10             	mov    (%rax),%rdx
    bba2:	48 8b 85 38 f9 ff ff 	mov    -0x6c8(%rbp),%rax
    bba9:	48 8b 00             	mov    (%rax),%rax
    bbac:	48 8b 00             	mov    (%rax),%rax
    bbaf:	8b 00                	mov    (%rax),%eax
    bbb1:	48 98                	cltq   
    bbb3:	48 39 c2             	cmp    %rax,%rdx
    bbb6:	48 8b 05 fb 82 00 00 	mov    0x82fb(%rip),%rax        # 13eb8 <g_83>
    bbbd:	48 8b 00             	mov    (%rax),%rax
    bbc0:	48 8b 00             	mov    (%rax),%rax
    bbc3:	8b 00                	mov    (%rax),%eax
    bbc5:	85 c0                	test   %eax,%eax
    bbc7:	74 07                	je     bbd0 <func_44+0x1caa>
    bbc9:	83 bd 88 f8 ff ff 00 	cmpl   $0x0,-0x778(%rbp)
    bbd0:	48 8b 05 b9 84 00 00 	mov    0x84b9(%rip),%rax        # 14090 <g_593>
    bbd7:	48 89 05 b2 84 00 00 	mov    %rax,0x84b2(%rip)        # 14090 <g_593>
    bbde:	48 8d 05 77 64 00 00 	lea    0x6477(%rip),%rax        # 1205c <g_19+0x1c>
    bbe5:	48 8b 5d c8          	mov    -0x38(%rbp),%rbx
    bbe9:	64 48 33 1c 25 28 00 	xor    %fs:0x28,%rbx
    bbf0:	00 00 
    bbf2:	74 05                	je     bbf9 <func_44+0x1cd3>
    bbf4:	e8 77 94 ff ff       	callq  5070 <__stack_chk_fail@plt>
    bbf9:	48 81 c4 c8 07 00 00 	add    $0x7c8,%rsp
    bc00:	5b                   	pop    %rbx
    bc01:	41 5c                	pop    %r12
    bc03:	41 5d                	pop    %r13
    bc05:	41 5e                	pop    %r14
    bc07:	41 5f                	pop    %r15
    bc09:	5d                   	pop    %rbp
    bc0a:	c3                   	retq   

000000000000bc0b <func_51>:
    bc0b:	f3 0f 1e fa          	endbr64 
    bc0f:	55                   	push   %rbp
    bc10:	48 89 e5             	mov    %rsp,%rbp
    bc13:	48 89 7d f8          	mov    %rdi,-0x8(%rbp)
    bc17:	89 75 f4             	mov    %esi,-0xc(%rbp)
    bc1a:	48 89 55 e8          	mov    %rdx,-0x18(%rbp)
    bc1e:	48 89 4d e0          	mov    %rcx,-0x20(%rbp)
    bc22:	0f b7 05 47 64 00 00 	movzwl 0x6447(%rip),%eax        # 12070 <g_95>
    bc29:	5d                   	pop    %rbp
    bc2a:	c3                   	retq   

000000000000bc2b <func_56>:
    bc2b:	f3 0f 1e fa          	endbr64 
    bc2f:	55                   	push   %rbp
    bc30:	48 89 e5             	mov    %rsp,%rbp
    bc33:	41 57                	push   %r15
    bc35:	41 56                	push   %r14
    bc37:	41 55                	push   %r13
    bc39:	41 54                	push   %r12
    bc3b:	53                   	push   %rbx
    bc3c:	48 81 ec 78 02 00 00 	sub    $0x278,%rsp
    bc43:	89 bd 7c fd ff ff    	mov    %edi,-0x284(%rbp)
    bc49:	48 89 b5 70 fd ff ff 	mov    %rsi,-0x290(%rbp)
    bc50:	89 95 78 fd ff ff    	mov    %edx,-0x288(%rbp)
    bc56:	89 c8                	mov    %ecx,%eax
    bc58:	88 85 6c fd ff ff    	mov    %al,-0x294(%rbp)
    bc5e:	64 48 8b 04 25 28 00 	mov    %fs:0x28,%rax
    bc65:	00 00 
    bc67:	48 89 45 c8          	mov    %rax,-0x38(%rbp)
    bc6b:	31 c0                	xor    %eax,%eax
    bc6d:	66 c7 85 8e fd ff ff 	movw   $0xffff,-0x272(%rbp)
    bc74:	ff ff 
    bc76:	c7 85 90 fd ff ff 0f 	movl   $0xeb948c0f,-0x270(%rbp)
    bc7d:	8c 94 eb 
    bc80:	48 8d 05 df 63 00 00 	lea    0x63df(%rip),%rax        # 12066 <g_77+0x1>
    bc87:	48 89 85 98 fd ff ff 	mov    %rax,-0x268(%rbp)
    bc8e:	48 8d 05 f3 63 00 00 	lea    0x63f3(%rip),%rax        # 12088 <g_112+0x8>
    bc95:	48 89 85 a0 fd ff ff 	mov    %rax,-0x260(%rbp)
    bc9c:	48 8d 85 8e fd ff ff 	lea    -0x272(%rbp),%rax
    bca3:	48 89 85 a8 fd ff ff 	mov    %rax,-0x258(%rbp)
    bcaa:	48 c7 85 b0 fd ff ff 	movq   $0x0,-0x250(%rbp)
    bcb1:	00 00 00 00 
    bcb5:	48 8d 05 84 64 00 00 	lea    0x6484(%rip),%rax        # 12140 <g_116>
    bcbc:	48 89 85 b8 fd ff ff 	mov    %rax,-0x248(%rbp)
    bcc3:	48 8d 85 e0 fd ff ff 	lea    -0x220(%rbp),%rax
    bcca:	48 8d 15 ef 7f 00 00 	lea    0x7fef(%rip),%rdx        # 13cc0 <g_1398+0x1058>
    bcd1:	b9 3c 00 00 00       	mov    $0x3c,%ecx
    bcd6:	48 89 c7             	mov    %rax,%rdi
    bcd9:	48 89 d6             	mov    %rdx,%rsi
    bcdc:	f3 48 a5             	rep movsq %ds:(%rsi),%es:(%rdi)
    bcdf:	c7 85 94 fd ff ff 00 	movl   $0x0,-0x26c(%rbp)
    bce6:	00 00 00 
    bce9:	eb 1a                	jmp    bd05 <func_56+0xda>
    bceb:	8b 85 94 fd ff ff    	mov    -0x26c(%rbp),%eax
    bcf1:	48 98                	cltq   
    bcf3:	c7 84 85 c0 fd ff ff 	movl   $0x7b36282d,-0x240(%rbp,%rax,4)
    bcfa:	2d 28 36 7b 
    bcfe:	83 85 94 fd ff ff 01 	addl   $0x1,-0x26c(%rbp)
    bd05:	83 bd 94 fd ff ff 04 	cmpl   $0x4,-0x26c(%rbp)
    bd0c:	7e dd                	jle    bceb <func_56+0xc0>
    bd0e:	8b 15 44 63 00 00    	mov    0x6344(%rip),%edx        # 12058 <g_19+0x18>
    bd14:	0f b7 85 8e fd ff ff 	movzwl -0x272(%rbp),%eax
    bd1b:	98                   	cwtl   
    bd1c:	21 d0                	and    %edx,%eax
    bd1e:	85 c0                	test   %eax,%eax
    bd20:	0f 85 fb 01 00 00    	jne    bf21 <func_56+0x2f6>
    bd26:	8b 05 30 63 00 00    	mov    0x6330(%rip),%eax        # 1205c <g_19+0x1c>
    bd2c:	0f bf d8             	movswl %ax,%ebx
    bd2f:	8b 05 2b 63 00 00    	mov    0x632b(%rip),%eax        # 12060 <g_19+0x20>
    bd35:	44 0f b6 e0          	movzbl %al,%r12d
    bd39:	48 8b 05 30 63 00 00 	mov    0x6330(%rip),%rax        # 12070 <g_95>
    bd40:	0f b7 85 8e fd ff ff 	movzwl -0x272(%rbp),%eax
    bd47:	0f bf d0             	movswl %ax,%edx
    bd4a:	8b 05 1c 63 00 00    	mov    0x631c(%rip),%eax        # 1206c <g_82>
    bd50:	98                   	cwtl   
    bd51:	89 d6                	mov    %edx,%esi
    bd53:	89 c7                	mov    %eax,%edi
    bd55:	e8 fb 96 ff ff       	callq  5455 <safe_div_func_int16_t_s_s>
    bd5a:	66 85 c0             	test   %ax,%ax
    bd5d:	0f 84 be 00 00 00    	je     be21 <func_56+0x1f6>
    bd63:	48 8d 05 d6 62 00 00 	lea    0x62d6(%rip),%rax        # 12040 <g_19>
    bd6a:	8b 00                	mov    (%rax),%eax
    bd6c:	41 89 c7             	mov    %eax,%r15d
    bd6f:	48 8b 05 3a 81 00 00 	mov    0x813a(%rip),%rax        # 13eb0 <g_80>
    bd76:	48 8b 00             	mov    (%rax),%rax
    bd79:	8b 00                	mov    (%rax),%eax
    bd7b:	89 85 68 fd ff ff    	mov    %eax,-0x298(%rbp)
    bd81:	0f b6 05 dc 62 00 00 	movzbl 0x62dc(%rip),%eax        # 12064 <g_68>
    bd88:	44 0f be e8          	movsbl %al,%r13d
    bd8c:	0f b7 85 8e fd ff ff 	movzwl -0x272(%rbp),%eax
    bd93:	44 0f bf f0          	movswl %ax,%r14d
    bd97:	0f b7 85 8e fd ff ff 	movzwl -0x272(%rbp),%eax
    bd9e:	0f b6 c0             	movzbl %al,%eax
    bda1:	89 c6                	mov    %eax,%esi
    bda3:	bf 24 00 00 00       	mov    $0x24,%edi
    bda8:	e8 e6 9d ff ff       	callq  5b93 <safe_mul_func_uint8_t_u_u>
    bdad:	0f b6 c0             	movzbl %al,%eax
    bdb0:	44 89 f6             	mov    %r14d,%esi
    bdb3:	89 c7                	mov    %eax,%edi
    bdb5:	e8 8e a0 ff ff       	callq  5e48 <safe_rshift_func_uint16_t_u_s>
    bdba:	8b 95 c4 fd ff ff    	mov    -0x23c(%rbp),%edx
    bdc0:	09 d0                	or     %edx,%eax
    bdc2:	98                   	cwtl   
    bdc3:	44 89 ee             	mov    %r13d,%esi
    bdc6:	89 c7                	mov    %eax,%edi
    bdc8:	e8 28 96 ff ff       	callq  53f5 <safe_mul_func_int16_t_s_s>
    bdcd:	98                   	cwtl   
    bdce:	8b b5 68 fd ff ff    	mov    -0x298(%rbp),%esi
    bdd4:	89 c7                	mov    %eax,%edi
    bdd6:	e8 dd a0 ff ff       	callq  5eb8 <safe_add_func_uint32_t_u_u>
    bddb:	44 89 fe             	mov    %r15d,%esi
    bdde:	89 c7                	mov    %eax,%edi
    bde0:	e8 1a 99 ff ff       	callq  56ff <safe_div_func_int32_t_s_s>
    bde5:	39 85 7c fd ff ff    	cmp    %eax,-0x284(%rbp)
    bdeb:	8b 95 c8 fd ff ff    	mov    -0x238(%rbp),%edx
    bdf1:	0f b7 85 8e fd ff ff 	movzwl -0x272(%rbp),%eax
    bdf8:	98                   	cwtl   
    bdf9:	39 c2                	cmp    %eax,%edx
    bdfb:	0f 94 c0             	sete   %al
    bdfe:	0f b6 c0             	movzbl %al,%eax
    be01:	31 85 90 fd ff ff    	xor    %eax,-0x270(%rbp)
    be07:	8b 95 90 fd ff ff    	mov    -0x270(%rbp),%edx
    be0d:	48 8d 05 2c 62 00 00 	lea    0x622c(%rip),%rax        # 12040 <g_19>
    be14:	8b 00                	mov    (%rax),%eax
    be16:	39 c2                	cmp    %eax,%edx
    be18:	73 07                	jae    be21 <func_56+0x1f6>
    be1a:	b8 01 00 00 00       	mov    $0x1,%eax
    be1f:	eb 05                	jmp    be26 <func_56+0x1fb>
    be21:	b8 00 00 00 00       	mov    $0x0,%eax
    be26:	3d e3 5d 9a 1f       	cmp    $0x1f9a5de3,%eax
    be2b:	0f 95 c0             	setne  %al
    be2e:	0f b6 d0             	movzbl %al,%edx
    be31:	0f b7 85 8e fd ff ff 	movzwl -0x272(%rbp),%eax
    be38:	0f be c0             	movsbl %al,%eax
    be3b:	89 d6                	mov    %edx,%esi
    be3d:	89 c7                	mov    %eax,%edi
    be3f:	e8 28 95 ff ff       	callq  536c <safe_rshift_func_int8_t_s_u>
    be44:	66 98                	cbtw   
    be46:	0f b7 c0             	movzwl %ax,%eax
    be49:	be 00 00 00 00       	mov    $0x0,%esi
    be4e:	89 c7                	mov    %eax,%edi
    be50:	e8 b1 9f ff ff       	callq  5e06 <safe_lshift_func_uint16_t_u_u>
    be55:	89 c2                	mov    %eax,%edx
    be57:	48 8b 85 98 fd ff ff 	mov    -0x268(%rbp),%rax
    be5e:	88 10                	mov    %dl,(%rax)
    be60:	b9 00 00 00 00       	mov    $0x0,%ecx
    be65:	48 8b 85 a0 fd ff ff 	mov    -0x260(%rbp),%rax
    be6c:	48 8b 10             	mov    (%rax),%rdx
    be6f:	48 63 c1             	movslq %ecx,%rax
    be72:	48 31 c2             	xor    %rax,%rdx
    be75:	48 8b 85 a0 fd ff ff 	mov    -0x260(%rbp),%rax
    be7c:	48 89 10             	mov    %rdx,(%rax)
    be7f:	48 8b 85 a0 fd ff ff 	mov    -0x260(%rbp),%rax
    be86:	48 8b 00             	mov    (%rax),%rax
    be89:	8b 95 c4 fd ff ff    	mov    -0x23c(%rbp),%edx
    be8f:	89 d2                	mov    %edx,%edx
    be91:	48 39 d0             	cmp    %rdx,%rax
    be94:	0f 96 c0             	setbe  %al
    be97:	0f b6 c0             	movzbl %al,%eax
    be9a:	39 85 7c fd ff ff    	cmp    %eax,-0x284(%rbp)
    bea0:	0f 95 c0             	setne  %al
    bea3:	0f b6 d0             	movzbl %al,%edx
    bea6:	8b 85 c4 fd ff ff    	mov    -0x23c(%rbp),%eax
    beac:	39 c2                	cmp    %eax,%edx
    beae:	0f 95 c0             	setne  %al
    beb1:	0f b6 c0             	movzbl %al,%eax
    beb4:	44 89 e6             	mov    %r12d,%esi
    beb7:	89 c7                	mov    %eax,%edi
    beb9:	e8 f0 9c ff ff       	callq  5bae <safe_mod_func_uint8_t_u_u>
    bebe:	0f b6 d0             	movzbl %al,%edx
    bec1:	48 8b 85 a8 fd ff ff 	mov    -0x258(%rbp),%rax
    bec8:	66 89 10             	mov    %dx,(%rax)
    becb:	48 8b 85 a8 fd ff ff 	mov    -0x258(%rbp),%rax
    bed2:	0f b7 10             	movzwl (%rax),%edx
    bed5:	48 8b 85 b8 fd ff ff 	mov    -0x248(%rbp),%rax
    bedc:	66 89 10             	mov    %dx,(%rax)
    bedf:	48 8b 85 b8 fd ff ff 	mov    -0x248(%rbp),%rax
    bee6:	0f b7 00             	movzwl (%rax),%eax
    bee9:	98                   	cwtl   
    beea:	89 de                	mov    %ebx,%esi
    beec:	89 c7                	mov    %eax,%edi
    beee:	e8 e0 94 ff ff       	callq  53d3 <safe_sub_func_int16_t_s_s>
    bef3:	66 85 c0             	test   %ax,%ax
    bef6:	75 07                	jne    beff <func_56+0x2d4>
    bef8:	83 bd 90 fd ff ff 00 	cmpl   $0x0,-0x270(%rbp)
    beff:	8b 85 d0 fd ff ff    	mov    -0x230(%rbp),%eax
    bf05:	85 c0                	test   %eax,%eax
    bf07:	0f 95 c0             	setne  %al
    bf0a:	0f b6 d0             	movzbl %al,%edx
    bf0d:	8b 05 2d 61 00 00    	mov    0x612d(%rip),%eax        # 12040 <g_19>
    bf13:	39 c2                	cmp    %eax,%edx
    bf15:	77 0a                	ja     bf21 <func_56+0x2f6>
    bf17:	8b 05 ab 88 00 00    	mov    0x88ab(%rip),%eax        # 147c8 <g_72>
    bf1d:	85 c0                	test   %eax,%eax
    bf1f:	74 07                	je     bf28 <func_56+0x2fd>
    bf21:	b8 01 00 00 00       	mov    $0x1,%eax
    bf26:	eb 05                	jmp    bf2d <func_56+0x302>
    bf28:	b8 00 00 00 00       	mov    $0x0,%eax
    bf2d:	f7 d0                	not    %eax
    bf2f:	39 85 7c fd ff ff    	cmp    %eax,-0x284(%rbp)
    bf35:	0f 92 c0             	setb   %al
    bf38:	0f b6 d0             	movzbl %al,%edx
    bf3b:	8b 05 03 62 00 00    	mov    0x6203(%rip),%eax        # 12144 <g_118>
    bf41:	09 d0                	or     %edx,%eax
    bf43:	89 05 fb 61 00 00    	mov    %eax,0x61fb(%rip)        # 12144 <g_118>
    bf49:	8b 85 7c fd ff ff    	mov    -0x284(%rbp),%eax
    bf4f:	48 8b 5d c8          	mov    -0x38(%rbp),%rbx
    bf53:	64 48 33 1c 25 28 00 	xor    %fs:0x28,%rbx
    bf5a:	00 00 
    bf5c:	74 05                	je     bf63 <func_56+0x338>
    bf5e:	e8 0d 91 ff ff       	callq  5070 <__stack_chk_fail@plt>
    bf63:	48 81 c4 78 02 00 00 	add    $0x278,%rsp
    bf6a:	5b                   	pop    %rbx
    bf6b:	41 5c                	pop    %r12
    bf6d:	41 5d                	pop    %r13
    bf6f:	41 5e                	pop    %r14
    bf71:	41 5f                	pop    %r15
    bf73:	5d                   	pop    %rbp
    bf74:	c3                   	retq   

000000000000bf75 <func_61>:
    bf75:	f3 0f 1e fa          	endbr64 
    bf79:	55                   	push   %rbp
    bf7a:	48 89 e5             	mov    %rsp,%rbp
    bf7d:	48 83 ec 70          	sub    $0x70,%rsp
    bf81:	89 fa                	mov    %edi,%edx
    bf83:	89 f0                	mov    %esi,%eax
    bf85:	66 89 55 9c          	mov    %dx,-0x64(%rbp)
    bf89:	66 89 45 98          	mov    %ax,-0x68(%rbp)
    bf8d:	64 48 8b 04 25 28 00 	mov    %fs:0x28,%rax
    bf94:	00 00 
    bf96:	48 89 45 f8          	mov    %rax,-0x8(%rbp)
    bf9a:	31 c0                	xor    %eax,%eax
    bf9c:	48 8d 05 25 88 00 00 	lea    0x8825(%rip),%rax        # 147c8 <g_72>
    bfa3:	48 89 45 a0          	mov    %rax,-0x60(%rbp)
    bfa7:	48 8d 05 1a 88 00 00 	lea    0x881a(%rip),%rax        # 147c8 <g_72>
    bfae:	48 89 45 a8          	mov    %rax,-0x58(%rbp)
    bfb2:	48 8d 05 0f 88 00 00 	lea    0x880f(%rip),%rax        # 147c8 <g_72>
    bfb9:	48 89 45 b0          	mov    %rax,-0x50(%rbp)
    bfbd:	48 8d 05 04 88 00 00 	lea    0x8804(%rip),%rax        # 147c8 <g_72>
    bfc4:	48 89 45 b8          	mov    %rax,-0x48(%rbp)
    bfc8:	48 c7 45 c0 00 00 00 	movq   $0x0,-0x40(%rbp)
    bfcf:	00 
    bfd0:	48 8d 05 f1 87 00 00 	lea    0x87f1(%rip),%rax        # 147c8 <g_72>
    bfd7:	48 89 45 c8          	mov    %rax,-0x38(%rbp)
    bfdb:	48 c7 45 d0 00 00 00 	movq   $0x0,-0x30(%rbp)
    bfe2:	00 
    bfe3:	48 c7 45 d8 00 00 00 	movq   $0x0,-0x28(%rbp)
    bfea:	00 
    bfeb:	48 8d 05 d6 87 00 00 	lea    0x87d6(%rip),%rax        # 147c8 <g_72>
    bff2:	48 89 45 e0          	mov    %rax,-0x20(%rbp)
    bff6:	48 c7 45 e8 00 00 00 	movq   $0x0,-0x18(%rbp)
    bffd:	00 
    bffe:	0f b6 05 61 60 00 00 	movzbl 0x6061(%rip),%eax        # 12066 <g_77+0x1>
    c005:	83 c0 01             	add    $0x1,%eax
    c008:	88 05 58 60 00 00    	mov    %al,0x6058(%rip)        # 12066 <g_77+0x1>
    c00e:	48 8b 05 a3 7e 00 00 	mov    0x7ea3(%rip),%rax        # 13eb8 <g_83>
    c015:	48 8b 15 94 7e 00 00 	mov    0x7e94(%rip),%rdx        # 13eb0 <g_80>
    c01c:	48 89 10             	mov    %rdx,(%rax)
    c01f:	0f b7 45 9c          	movzwl -0x64(%rbp),%eax
    c023:	48 8b 4d f8          	mov    -0x8(%rbp),%rcx
    c027:	64 48 33 0c 25 28 00 	xor    %fs:0x28,%rcx
    c02e:	00 00 
    c030:	74 05                	je     c037 <func_61+0xc2>
    c032:	e8 39 90 ff ff       	callq  5070 <__stack_chk_fail@plt>
    c037:	c9                   	leaveq 
    c038:	c3                   	retq   

000000000000c039 <main>:
    c039:	f3 0f 1e fa          	endbr64 
    c03d:	55                   	push   %rbp
    c03e:	48 89 e5             	mov    %rsp,%rbp
    c041:	48 83 ec 20          	sub    $0x20,%rsp
    c045:	89 7d ec             	mov    %edi,-0x14(%rbp)
    c048:	48 89 75 e0          	mov    %rsi,-0x20(%rbp)
    c04c:	c7 45 fc 00 00 00 00 	movl   $0x0,-0x4(%rbp)
    c053:	83 7d ec 02          	cmpl   $0x2,-0x14(%rbp)
    c057:	75 25                	jne    c07e <main+0x45>
    c059:	48 8b 45 e0          	mov    -0x20(%rbp),%rax
    c05d:	48 83 c0 08          	add    $0x8,%rax
    c061:	48 8b 00             	mov    (%rax),%rax
    c064:	48 8d 35 e5 33 00 00 	lea    0x33e5(%rip),%rsi        # f450 <g_1338+0x13f0>
    c06b:	48 89 c7             	mov    %rax,%rdi
    c06e:	e8 1d 90 ff ff       	callq  5090 <strcmp@plt>
    c073:	85 c0                	test   %eax,%eax
    c075:	75 07                	jne    c07e <main+0x45>
    c077:	c7 45 fc 01 00 00 00 	movl   $0x1,-0x4(%rbp)
    c07e:	e8 06 91 ff ff       	callq  5189 <platform_main_begin>
    c083:	e8 10 a5 ff ff       	callq  6598 <crc32_gentab>
    c088:	e8 28 a7 ff ff       	callq  67b5 <func_1>
    c08d:	0f b7 05 90 5f 00 00 	movzwl 0x5f90(%rip),%eax        # 12024 <g_2>
    c094:	0f b7 c0             	movzwl %ax,%eax
    c097:	8b 55 fc             	mov    -0x4(%rbp),%edx
    c09a:	48 8d 35 b1 33 00 00 	lea    0x33b1(%rip),%rsi        # f452 <g_1338+0x13f2>
    c0a1:	48 89 c7             	mov    %rax,%rdi
    c0a4:	e8 4a a6 ff ff       	callq  66f3 <transparent_crc>
    c0a9:	c7 45 f0 00 00 00 00 	movl   $0x0,-0x10(%rbp)
    c0b0:	eb 6c                	jmp    c11e <main+0xe5>
    c0b2:	c7 45 f4 00 00 00 00 	movl   $0x0,-0xc(%rbp)
    c0b9:	eb 59                	jmp    c114 <main+0xdb>
    c0bb:	8b 45 f4             	mov    -0xc(%rbp),%eax
    c0be:	48 63 d0             	movslq %eax,%rdx
    c0c1:	8b 45 f0             	mov    -0x10(%rbp),%eax
    c0c4:	48 98                	cltq   
    c0c6:	48 01 d0             	add    %rdx,%rax
    c0c9:	48 8d 14 85 00 00 00 	lea    0x0(,%rax,4),%rdx
    c0d0:	00 
    c0d1:	48 8d 05 68 5f 00 00 	lea    0x5f68(%rip),%rax        # 12040 <g_19>
    c0d8:	8b 04 02             	mov    (%rdx,%rax,1),%eax
    c0db:	89 c1                	mov    %eax,%ecx
    c0dd:	8b 45 fc             	mov    -0x4(%rbp),%eax
    c0e0:	89 c2                	mov    %eax,%edx
    c0e2:	48 8d 35 6d 33 00 00 	lea    0x336d(%rip),%rsi        # f456 <g_1338+0x13f6>
    c0e9:	48 89 cf             	mov    %rcx,%rdi
    c0ec:	e8 02 a6 ff ff       	callq  66f3 <transparent_crc>
    c0f1:	83 7d fc 00          	cmpl   $0x0,-0x4(%rbp)
    c0f5:	74 19                	je     c110 <main+0xd7>
    c0f7:	8b 55 f4             	mov    -0xc(%rbp),%edx
    c0fa:	8b 45 f0             	mov    -0x10(%rbp),%eax
    c0fd:	89 c6                	mov    %eax,%esi
    c0ff:	48 8d 3d 5b 33 00 00 	lea    0x335b(%rip),%rdi        # f461 <g_1338+0x1401>
    c106:	b8 00 00 00 00       	mov    $0x0,%eax
    c10b:	e8 70 8f ff ff       	callq  5080 <printf@plt>
    c110:	83 45 f4 01          	addl   $0x1,-0xc(%rbp)
    c114:	83 7d f4 00          	cmpl   $0x0,-0xc(%rbp)
    c118:	7e a1                	jle    c0bb <main+0x82>
    c11a:	83 45 f0 01          	addl   $0x1,-0x10(%rbp)
    c11e:	83 7d f0 08          	cmpl   $0x8,-0x10(%rbp)
    c122:	7e 8e                	jle    c0b2 <main+0x79>
    c124:	0f b6 05 39 5f 00 00 	movzbl 0x5f39(%rip),%eax        # 12064 <g_68>
    c12b:	48 0f be c0          	movsbq %al,%rax
    c12f:	8b 55 fc             	mov    -0x4(%rbp),%edx
    c132:	48 8d 35 3a 33 00 00 	lea    0x333a(%rip),%rsi        # f473 <g_1338+0x1413>
    c139:	48 89 c7             	mov    %rax,%rdi
    c13c:	e8 b2 a5 ff ff       	callq  66f3 <transparent_crc>
    c141:	8b 05 81 86 00 00    	mov    0x8681(%rip),%eax        # 147c8 <g_72>
    c147:	48 98                	cltq   
    c149:	8b 55 fc             	mov    -0x4(%rbp),%edx
    c14c:	48 8d 35 25 33 00 00 	lea    0x3325(%rip),%rsi        # f478 <g_1338+0x1418>
    c153:	48 89 c7             	mov    %rax,%rdi
    c156:	e8 98 a5 ff ff       	callq  66f3 <transparent_crc>
    c15b:	c7 45 f0 00 00 00 00 	movl   $0x0,-0x10(%rbp)
    c162:	eb 45                	jmp    c1a9 <main+0x170>
    c164:	8b 45 f0             	mov    -0x10(%rbp),%eax
    c167:	48 98                	cltq   
    c169:	48 8d 15 f5 5e 00 00 	lea    0x5ef5(%rip),%rdx        # 12065 <g_77>
    c170:	0f b6 04 10          	movzbl (%rax,%rdx,1),%eax
    c174:	0f b6 c0             	movzbl %al,%eax
    c177:	8b 55 fc             	mov    -0x4(%rbp),%edx
    c17a:	48 8d 35 fc 32 00 00 	lea    0x32fc(%rip),%rsi        # f47d <g_1338+0x141d>
    c181:	48 89 c7             	mov    %rax,%rdi
    c184:	e8 6a a5 ff ff       	callq  66f3 <transparent_crc>
    c189:	83 7d fc 00          	cmpl   $0x0,-0x4(%rbp)
    c18d:	74 16                	je     c1a5 <main+0x16c>
    c18f:	8b 45 f0             	mov    -0x10(%rbp),%eax
    c192:	89 c6                	mov    %eax,%esi
    c194:	48 8d 3d ea 32 00 00 	lea    0x32ea(%rip),%rdi        # f485 <g_1338+0x1425>
    c19b:	b8 00 00 00 00       	mov    $0x0,%eax
    c1a0:	e8 db 8e ff ff       	callq  5080 <printf@plt>
    c1a5:	83 45 f0 01          	addl   $0x1,-0x10(%rbp)
    c1a9:	83 7d f0 04          	cmpl   $0x4,-0x10(%rbp)
    c1ad:	7e b5                	jle    c164 <main+0x12b>
    c1af:	8b 05 b7 5e 00 00    	mov    0x5eb7(%rip),%eax        # 1206c <g_82>
    c1b5:	48 98                	cltq   
    c1b7:	8b 55 fc             	mov    -0x4(%rbp),%edx
    c1ba:	48 8d 35 d2 32 00 00 	lea    0x32d2(%rip),%rsi        # f493 <g_1338+0x1433>
    c1c1:	48 89 c7             	mov    %rax,%rdi
    c1c4:	e8 2a a5 ff ff       	callq  66f3 <transparent_crc>
    c1c9:	0f b7 05 a0 5e 00 00 	movzwl 0x5ea0(%rip),%eax        # 12070 <g_95>
    c1d0:	48 0f bf c0          	movswq %ax,%rax
    c1d4:	8b 55 fc             	mov    -0x4(%rbp),%edx
    c1d7:	48 8d 35 ba 32 00 00 	lea    0x32ba(%rip),%rsi        # f498 <g_1338+0x1438>
    c1de:	48 89 c7             	mov    %rax,%rdi
    c1e1:	e8 0d a5 ff ff       	callq  66f3 <transparent_crc>
    c1e6:	c7 45 f0 00 00 00 00 	movl   $0x0,-0x10(%rbp)
    c1ed:	eb 76                	jmp    c265 <main+0x22c>
    c1ef:	c7 45 f4 00 00 00 00 	movl   $0x0,-0xc(%rbp)
    c1f6:	eb 63                	jmp    c25b <main+0x222>
    c1f8:	8b 45 f4             	mov    -0xc(%rbp),%eax
    c1fb:	48 63 c8             	movslq %eax,%rcx
    c1fe:	8b 45 f0             	mov    -0x10(%rbp),%eax
    c201:	48 63 d0             	movslq %eax,%rdx
    c204:	48 89 d0             	mov    %rdx,%rax
    c207:	48 01 c0             	add    %rax,%rax
    c20a:	48 01 d0             	add    %rdx,%rax
    c20d:	48 01 c0             	add    %rax,%rax
    c210:	48 01 c8             	add    %rcx,%rax
    c213:	48 8d 14 c5 00 00 00 	lea    0x0(,%rax,8),%rdx
    c21a:	00 
    c21b:	48 8d 05 5e 5e 00 00 	lea    0x5e5e(%rip),%rax        # 12080 <g_112>
    c222:	48 8b 04 02          	mov    (%rdx,%rax,1),%rax
    c226:	8b 55 fc             	mov    -0x4(%rbp),%edx
    c229:	48 8d 35 70 32 00 00 	lea    0x3270(%rip),%rsi        # f4a0 <g_1338+0x1440>
    c230:	48 89 c7             	mov    %rax,%rdi
    c233:	e8 bb a4 ff ff       	callq  66f3 <transparent_crc>
    c238:	83 7d fc 00          	cmpl   $0x0,-0x4(%rbp)
    c23c:	74 19                	je     c257 <main+0x21e>
    c23e:	8b 55 f4             	mov    -0xc(%rbp),%edx
    c241:	8b 45 f0             	mov    -0x10(%rbp),%eax
    c244:	89 c6                	mov    %eax,%esi
    c246:	48 8d 3d 14 32 00 00 	lea    0x3214(%rip),%rdi        # f461 <g_1338+0x1401>
    c24d:	b8 00 00 00 00       	mov    $0x0,%eax
    c252:	e8 29 8e ff ff       	callq  5080 <printf@plt>
    c257:	83 45 f4 01          	addl   $0x1,-0xc(%rbp)
    c25b:	83 7d f4 05          	cmpl   $0x5,-0xc(%rbp)
    c25f:	7e 97                	jle    c1f8 <main+0x1bf>
    c261:	83 45 f0 01          	addl   $0x1,-0x10(%rbp)
    c265:	83 7d f0 03          	cmpl   $0x3,-0x10(%rbp)
    c269:	7e 84                	jle    c1ef <main+0x1b6>
    c26b:	0f b7 05 ce 5e 00 00 	movzwl 0x5ece(%rip),%eax        # 12140 <g_116>
    c272:	48 0f bf c0          	movswq %ax,%rax
    c276:	8b 55 fc             	mov    -0x4(%rbp),%edx
    c279:	48 8d 35 2c 32 00 00 	lea    0x322c(%rip),%rsi        # f4ac <g_1338+0x144c>
    c280:	48 89 c7             	mov    %rax,%rdi
    c283:	e8 6b a4 ff ff       	callq  66f3 <transparent_crc>
    c288:	8b 05 b6 5e 00 00    	mov    0x5eb6(%rip),%eax        # 12144 <g_118>
    c28e:	48 98                	cltq   
    c290:	8b 55 fc             	mov    -0x4(%rbp),%edx
    c293:	48 8d 35 18 32 00 00 	lea    0x3218(%rip),%rsi        # f4b2 <g_1338+0x1452>
    c29a:	48 89 c7             	mov    %rax,%rdi
    c29d:	e8 51 a4 ff ff       	callq  66f3 <transparent_crc>
    c2a2:	0f b7 05 23 85 00 00 	movzwl 0x8523(%rip),%eax        # 147cc <g_126>
    c2a9:	0f b7 c0             	movzwl %ax,%eax
    c2ac:	8b 55 fc             	mov    -0x4(%rbp),%edx
    c2af:	48 8d 35 02 32 00 00 	lea    0x3202(%rip),%rsi        # f4b8 <g_1338+0x1458>
    c2b6:	48 89 c7             	mov    %rax,%rdi
    c2b9:	e8 35 a4 ff ff       	callq  66f3 <transparent_crc>
    c2be:	c7 45 f0 00 00 00 00 	movl   $0x0,-0x10(%rbp)
    c2c5:	eb 4f                	jmp    c316 <main+0x2dd>
    c2c7:	8b 45 f0             	mov    -0x10(%rbp),%eax
    c2ca:	48 98                	cltq   
    c2cc:	48 8d 14 c5 00 00 00 	lea    0x0(,%rax,8),%rdx
    c2d3:	00 
    c2d4:	48 8d 05 75 5e 00 00 	lea    0x5e75(%rip),%rax        # 12150 <g_137>
    c2db:	48 8b 04 02          	mov    (%rdx,%rax,1),%rax
    c2df:	48 89 c1             	mov    %rax,%rcx
    c2e2:	8b 45 fc             	mov    -0x4(%rbp),%eax
    c2e5:	89 c2                	mov    %eax,%edx
    c2e7:	48 8d 35 d0 31 00 00 	lea    0x31d0(%rip),%rsi        # f4be <g_1338+0x145e>
    c2ee:	48 89 cf             	mov    %rcx,%rdi
    c2f1:	e8 fd a3 ff ff       	callq  66f3 <transparent_crc>
    c2f6:	83 7d fc 00          	cmpl   $0x0,-0x4(%rbp)
    c2fa:	74 16                	je     c312 <main+0x2d9>
    c2fc:	8b 45 f0             	mov    -0x10(%rbp),%eax
    c2ff:	89 c6                	mov    %eax,%esi
    c301:	48 8d 3d 7d 31 00 00 	lea    0x317d(%rip),%rdi        # f485 <g_1338+0x1425>
    c308:	b8 00 00 00 00       	mov    $0x0,%eax
    c30d:	e8 6e 8d ff ff       	callq  5080 <printf@plt>
    c312:	83 45 f0 01          	addl   $0x1,-0x10(%rbp)
    c316:	83 7d f0 01          	cmpl   $0x1,-0x10(%rbp)
    c31a:	7e ab                	jle    c2c7 <main+0x28e>
    c31c:	48 8b 05 3d 5e 00 00 	mov    0x5e3d(%rip),%rax        # 12160 <g_166>
    c323:	48 89 c1             	mov    %rax,%rcx
    c326:	8b 45 fc             	mov    -0x4(%rbp),%eax
    c329:	89 c2                	mov    %eax,%edx
    c32b:	48 8d 35 95 31 00 00 	lea    0x3195(%rip),%rsi        # f4c7 <g_1338+0x1467>
    c332:	48 89 cf             	mov    %rcx,%rdi
    c335:	e8 b9 a3 ff ff       	callq  66f3 <transparent_crc>
    c33a:	8b 05 20 5e 00 00    	mov    0x5e20(%rip),%eax        # 12160 <g_166>
    c340:	89 c1                	mov    %eax,%ecx
    c342:	8b 45 fc             	mov    -0x4(%rbp),%eax
    c345:	89 c2                	mov    %eax,%edx
    c347:	48 8d 35 82 31 00 00 	lea    0x3182(%rip),%rsi        # f4d0 <g_1338+0x1470>
    c34e:	48 89 cf             	mov    %rcx,%rdi
    c351:	e8 9d a3 ff ff       	callq  66f3 <transparent_crc>
    c356:	0f b6 05 03 5e 00 00 	movzbl 0x5e03(%rip),%eax        # 12160 <g_166>
    c35d:	48 0f be c0          	movsbq %al,%rax
    c361:	8b 55 fc             	mov    -0x4(%rbp),%edx
    c364:	48 8d 35 6e 31 00 00 	lea    0x316e(%rip),%rsi        # f4d9 <g_1338+0x1479>
    c36b:	48 89 c7             	mov    %rax,%rdi
    c36e:	e8 80 a3 ff ff       	callq  66f3 <transparent_crc>
    c373:	0f b6 05 e6 5d 00 00 	movzbl 0x5de6(%rip),%eax        # 12160 <g_166>
    c37a:	48 0f be c0          	movsbq %al,%rax
    c37e:	8b 55 fc             	mov    -0x4(%rbp),%edx
    c381:	48 8d 35 5a 31 00 00 	lea    0x315a(%rip),%rsi        # f4e2 <g_1338+0x1482>
    c388:	48 89 c7             	mov    %rax,%rdi
    c38b:	e8 63 a3 ff ff       	callq  66f3 <transparent_crc>
    c390:	8b 05 ca 5d 00 00    	mov    0x5dca(%rip),%eax        # 12160 <g_166>
    c396:	48 98                	cltq   
    c398:	8b 55 fc             	mov    -0x4(%rbp),%edx
    c39b:	48 8d 35 49 31 00 00 	lea    0x3149(%rip),%rsi        # f4eb <g_1338+0x148b>
    c3a2:	48 89 c7             	mov    %rax,%rdi
    c3a5:	e8 49 a3 ff ff       	callq  66f3 <transparent_crc>
    c3aa:	48 8b 05 b7 5d 00 00 	mov    0x5db7(%rip),%rax        # 12168 <g_190>
    c3b1:	48 89 c1             	mov    %rax,%rcx
    c3b4:	8b 45 fc             	mov    -0x4(%rbp),%eax
    c3b7:	89 c2                	mov    %eax,%edx
    c3b9:	48 8d 35 34 31 00 00 	lea    0x3134(%rip),%rsi        # f4f4 <g_1338+0x1494>
    c3c0:	48 89 cf             	mov    %rcx,%rdi
    c3c3:	e8 2b a3 ff ff       	callq  66f3 <transparent_crc>
    c3c8:	48 8b 05 a1 5d 00 00 	mov    0x5da1(%rip),%rax        # 12170 <g_192>
    c3cf:	8b 55 fc             	mov    -0x4(%rbp),%edx
    c3d2:	48 8d 35 21 31 00 00 	lea    0x3121(%rip),%rsi        # f4fa <g_1338+0x149a>
    c3d9:	48 89 c7             	mov    %rax,%rdi
    c3dc:	e8 12 a3 ff ff       	callq  66f3 <transparent_crc>
    c3e1:	0f b7 05 90 5d 00 00 	movzwl 0x5d90(%rip),%eax        # 12178 <g_209>
    c3e8:	48 0f bf c0          	movswq %ax,%rax
    c3ec:	8b 55 fc             	mov    -0x4(%rbp),%edx
    c3ef:	48 8d 35 0a 31 00 00 	lea    0x310a(%rip),%rsi        # f500 <g_1338+0x14a0>
    c3f6:	48 89 c7             	mov    %rax,%rdi
    c3f9:	e8 f5 a2 ff ff       	callq  66f3 <transparent_crc>
    c3fe:	0f b6 05 75 5d 00 00 	movzbl 0x5d75(%rip),%eax        # 1217a <g_235>
    c405:	48 0f be c0          	movsbq %al,%rax
    c409:	8b 55 fc             	mov    -0x4(%rbp),%edx
    c40c:	48 8d 35 f3 30 00 00 	lea    0x30f3(%rip),%rsi        # f506 <g_1338+0x14a6>
    c413:	48 89 c7             	mov    %rax,%rdi
    c416:	e8 d8 a2 ff ff       	callq  66f3 <transparent_crc>
    c41b:	c7 45 f0 00 00 00 00 	movl   $0x0,-0x10(%rbp)
    c422:	eb 4a                	jmp    c46e <main+0x435>
    c424:	8b 45 f0             	mov    -0x10(%rbp),%eax
    c427:	48 98                	cltq   
    c429:	48 8d 14 c5 00 00 00 	lea    0x0(,%rax,8),%rdx
    c430:	00 
    c431:	48 8d 05 48 5d 00 00 	lea    0x5d48(%rip),%rax        # 12180 <g_236>
    c438:	48 8b 04 02          	mov    (%rdx,%rax,1),%rax
    c43c:	8b 55 fc             	mov    -0x4(%rbp),%edx
    c43f:	48 8d 35 c6 30 00 00 	lea    0x30c6(%rip),%rsi        # f50c <g_1338+0x14ac>
    c446:	48 89 c7             	mov    %rax,%rdi
    c449:	e8 a5 a2 ff ff       	callq  66f3 <transparent_crc>
    c44e:	83 7d fc 00          	cmpl   $0x0,-0x4(%rbp)
    c452:	74 16                	je     c46a <main+0x431>
    c454:	8b 45 f0             	mov    -0x10(%rbp),%eax
    c457:	89 c6                	mov    %eax,%esi
    c459:	48 8d 3d 25 30 00 00 	lea    0x3025(%rip),%rdi        # f485 <g_1338+0x1425>
    c460:	b8 00 00 00 00       	mov    $0x0,%eax
    c465:	e8 16 8c ff ff       	callq  5080 <printf@plt>
    c46a:	83 45 f0 01          	addl   $0x1,-0x10(%rbp)
    c46e:	83 7d f0 01          	cmpl   $0x1,-0x10(%rbp)
    c472:	7e b0                	jle    c424 <main+0x3eb>
    c474:	0f b7 05 15 5d 00 00 	movzwl 0x5d15(%rip),%eax        # 12190 <g_241>
    c47b:	48 0f bf c0          	movswq %ax,%rax
    c47f:	8b 55 fc             	mov    -0x4(%rbp),%edx
    c482:	48 8d 35 8c 30 00 00 	lea    0x308c(%rip),%rsi        # f515 <g_1338+0x14b5>
    c489:	48 89 c7             	mov    %rax,%rdi
    c48c:	e8 62 a2 ff ff       	callq  66f3 <transparent_crc>
    c491:	0f b7 05 00 5d 00 00 	movzwl 0x5d00(%rip),%eax        # 12198 <g_246>
    c498:	0f b7 c0             	movzwl %ax,%eax
    c49b:	8b 55 fc             	mov    -0x4(%rbp),%edx
    c49e:	48 8d 35 79 30 00 00 	lea    0x3079(%rip),%rsi        # f51e <g_1338+0x14be>
    c4a5:	48 89 c7             	mov    %rax,%rdi
    c4a8:	e8 46 a2 ff ff       	callq  66f3 <transparent_crc>
    c4ad:	c7 45 f0 00 00 00 00 	movl   $0x0,-0x10(%rbp)
    c4b4:	eb 70                	jmp    c526 <main+0x4ed>
    c4b6:	c7 45 f4 00 00 00 00 	movl   $0x0,-0xc(%rbp)
    c4bd:	eb 5d                	jmp    c51c <main+0x4e3>
    c4bf:	8b 45 f4             	mov    -0xc(%rbp),%eax
    c4c2:	48 98                	cltq   
    c4c4:	8b 55 f0             	mov    -0x10(%rbp),%edx
    c4c7:	48 63 d2             	movslq %edx,%rdx
    c4ca:	48 01 d2             	add    %rdx,%rdx
    c4cd:	48 01 d0             	add    %rdx,%rax
    c4d0:	48 8d 14 c5 00 00 00 	lea    0x0(,%rax,8),%rdx
    c4d7:	00 
    c4d8:	48 8d 05 c1 5c 00 00 	lea    0x5cc1(%rip),%rax        # 121a0 <g_268>
    c4df:	0f b7 04 02          	movzwl (%rdx,%rax,1),%eax
    c4e3:	48 0f bf c0          	movswq %ax,%rax
    c4e7:	8b 55 fc             	mov    -0x4(%rbp),%edx
    c4ea:	48 8d 35 33 30 00 00 	lea    0x3033(%rip),%rsi        # f524 <g_1338+0x14c4>
    c4f1:	48 89 c7             	mov    %rax,%rdi
    c4f4:	e8 fa a1 ff ff       	callq  66f3 <transparent_crc>
    c4f9:	83 7d fc 00          	cmpl   $0x0,-0x4(%rbp)
    c4fd:	74 19                	je     c518 <main+0x4df>
    c4ff:	8b 55 f4             	mov    -0xc(%rbp),%edx
    c502:	8b 45 f0             	mov    -0x10(%rbp),%eax
    c505:	89 c6                	mov    %eax,%esi
    c507:	48 8d 3d 53 2f 00 00 	lea    0x2f53(%rip),%rdi        # f461 <g_1338+0x1401>
    c50e:	b8 00 00 00 00       	mov    $0x0,%eax
    c513:	e8 68 8b ff ff       	callq  5080 <printf@plt>
    c518:	83 45 f4 01          	addl   $0x1,-0xc(%rbp)
    c51c:	83 7d f4 01          	cmpl   $0x1,-0xc(%rbp)
    c520:	7e 9d                	jle    c4bf <main+0x486>
    c522:	83 45 f0 01          	addl   $0x1,-0x10(%rbp)
    c526:	83 7d f0 06          	cmpl   $0x6,-0x10(%rbp)
    c52a:	7e 8a                	jle    c4b6 <main+0x47d>
    c52c:	0f b7 05 a5 82 00 00 	movzwl 0x82a5(%rip),%eax        # 147d8 <g_319>
    c533:	48 0f bf c0          	movswq %ax,%rax
    c537:	8b 55 fc             	mov    -0x4(%rbp),%edx
    c53a:	48 8d 35 f2 2f 00 00 	lea    0x2ff2(%rip),%rsi        # f533 <g_1338+0x14d3>
    c541:	48 89 c7             	mov    %rax,%rdi
    c544:	e8 aa a1 ff ff       	callq  66f3 <transparent_crc>
    c549:	0f b7 05 90 82 00 00 	movzwl 0x8290(%rip),%eax        # 147e0 <g_322>
    c550:	48 0f bf c0          	movswq %ax,%rax
    c554:	8b 55 fc             	mov    -0x4(%rbp),%edx
    c557:	48 8d 35 de 2f 00 00 	lea    0x2fde(%rip),%rsi        # f53c <g_1338+0x14dc>
    c55e:	48 89 c7             	mov    %rax,%rdi
    c561:	e8 8d a1 ff ff       	callq  66f3 <transparent_crc>
    c566:	0f b7 05 7b 82 00 00 	movzwl 0x827b(%rip),%eax        # 147e8 <g_323>
    c56d:	48 0f bf c0          	movswq %ax,%rax
    c571:	8b 55 fc             	mov    -0x4(%rbp),%edx
    c574:	48 8d 35 ca 2f 00 00 	lea    0x2fca(%rip),%rsi        # f545 <g_1338+0x14e5>
    c57b:	48 89 c7             	mov    %rax,%rdi
    c57e:	e8 70 a1 ff ff       	callq  66f3 <transparent_crc>
    c583:	0f b7 05 86 5c 00 00 	movzwl 0x5c86(%rip),%eax        # 12210 <g_324>
    c58a:	48 0f bf c0          	movswq %ax,%rax
    c58e:	8b 55 fc             	mov    -0x4(%rbp),%edx
    c591:	48 8d 35 b6 2f 00 00 	lea    0x2fb6(%rip),%rsi        # f54e <g_1338+0x14ee>
    c598:	48 89 c7             	mov    %rax,%rdi
    c59b:	e8 53 a1 ff ff       	callq  66f3 <transparent_crc>
    c5a0:	0f b7 05 71 5c 00 00 	movzwl 0x5c71(%rip),%eax        # 12218 <g_325>
    c5a7:	48 0f bf c0          	movswq %ax,%rax
    c5ab:	8b 55 fc             	mov    -0x4(%rbp),%edx
    c5ae:	48 8d 35 a2 2f 00 00 	lea    0x2fa2(%rip),%rsi        # f557 <g_1338+0x14f7>
    c5b5:	48 89 c7             	mov    %rax,%rdi
    c5b8:	e8 36 a1 ff ff       	callq  66f3 <transparent_crc>
    c5bd:	0f b7 05 5c 5c 00 00 	movzwl 0x5c5c(%rip),%eax        # 12220 <g_326>
    c5c4:	48 0f bf c0          	movswq %ax,%rax
    c5c8:	8b 55 fc             	mov    -0x4(%rbp),%edx
    c5cb:	48 8d 35 8e 2f 00 00 	lea    0x2f8e(%rip),%rsi        # f560 <g_1338+0x1500>
    c5d2:	48 89 c7             	mov    %rax,%rdi
    c5d5:	e8 19 a1 ff ff       	callq  66f3 <transparent_crc>
    c5da:	0f b7 05 0f 82 00 00 	movzwl 0x820f(%rip),%eax        # 147f0 <g_327>
    c5e1:	48 0f bf c0          	movswq %ax,%rax
    c5e5:	8b 55 fc             	mov    -0x4(%rbp),%edx
    c5e8:	48 8d 35 7a 2f 00 00 	lea    0x2f7a(%rip),%rsi        # f569 <g_1338+0x1509>
    c5ef:	48 89 c7             	mov    %rax,%rdi
    c5f2:	e8 fc a0 ff ff       	callq  66f3 <transparent_crc>
    c5f7:	0f b7 05 2a 5c 00 00 	movzwl 0x5c2a(%rip),%eax        # 12228 <g_328>
    c5fe:	48 0f bf c0          	movswq %ax,%rax
    c602:	8b 55 fc             	mov    -0x4(%rbp),%edx
    c605:	48 8d 35 66 2f 00 00 	lea    0x2f66(%rip),%rsi        # f572 <g_1338+0x1512>
    c60c:	48 89 c7             	mov    %rax,%rdi
    c60f:	e8 df a0 ff ff       	callq  66f3 <transparent_crc>
    c614:	0f b7 05 15 5c 00 00 	movzwl 0x5c15(%rip),%eax        # 12230 <g_329>
    c61b:	48 0f bf c0          	movswq %ax,%rax
    c61f:	8b 55 fc             	mov    -0x4(%rbp),%edx
    c622:	48 8d 35 52 2f 00 00 	lea    0x2f52(%rip),%rsi        # f57b <g_1338+0x151b>
    c629:	48 89 c7             	mov    %rax,%rdi
    c62c:	e8 c2 a0 ff ff       	callq  66f3 <transparent_crc>
    c631:	0f b7 05 00 5c 00 00 	movzwl 0x5c00(%rip),%eax        # 12238 <g_330>
    c638:	48 0f bf c0          	movswq %ax,%rax
    c63c:	8b 55 fc             	mov    -0x4(%rbp),%edx
    c63f:	48 8d 35 3e 2f 00 00 	lea    0x2f3e(%rip),%rsi        # f584 <g_1338+0x1524>
    c646:	48 89 c7             	mov    %rax,%rdi
    c649:	e8 a5 a0 ff ff       	callq  66f3 <transparent_crc>
    c64e:	0f b6 05 eb 5b 00 00 	movzbl 0x5beb(%rip),%eax        # 12240 <g_428>
    c655:	48 0f be c0          	movsbq %al,%rax
    c659:	8b 55 fc             	mov    -0x4(%rbp),%edx
    c65c:	48 8d 35 2a 2f 00 00 	lea    0x2f2a(%rip),%rsi        # f58d <g_1338+0x152d>
    c663:	48 89 c7             	mov    %rax,%rdi
    c666:	e8 88 a0 ff ff       	callq  66f3 <transparent_crc>
    c66b:	c7 45 f0 00 00 00 00 	movl   $0x0,-0x10(%rbp)
    c672:	eb 45                	jmp    c6b9 <main+0x680>
    c674:	8b 45 f0             	mov    -0x10(%rbp),%eax
    c677:	48 98                	cltq   
    c679:	48 8d 15 c1 5b 00 00 	lea    0x5bc1(%rip),%rdx        # 12241 <g_459>
    c680:	0f b6 04 10          	movzbl (%rax,%rdx,1),%eax
    c684:	0f b6 c0             	movzbl %al,%eax
    c687:	8b 55 fc             	mov    -0x4(%rbp),%edx
    c68a:	48 8d 35 02 2f 00 00 	lea    0x2f02(%rip),%rsi        # f593 <g_1338+0x1533>
    c691:	48 89 c7             	mov    %rax,%rdi
    c694:	e8 5a a0 ff ff       	callq  66f3 <transparent_crc>
    c699:	83 7d fc 00          	cmpl   $0x0,-0x4(%rbp)
    c69d:	74 16                	je     c6b5 <main+0x67c>
    c69f:	8b 45 f0             	mov    -0x10(%rbp),%eax
    c6a2:	89 c6                	mov    %eax,%esi
    c6a4:	48 8d 3d da 2d 00 00 	lea    0x2dda(%rip),%rdi        # f485 <g_1338+0x1425>
    c6ab:	b8 00 00 00 00       	mov    $0x0,%eax
    c6b0:	e8 cb 89 ff ff       	callq  5080 <printf@plt>
    c6b5:	83 45 f0 01          	addl   $0x1,-0x10(%rbp)
    c6b9:	83 7d f0 04          	cmpl   $0x4,-0x10(%rbp)
    c6bd:	7e b5                	jle    c674 <main+0x63b>
    c6bf:	0f b7 05 80 5b 00 00 	movzwl 0x5b80(%rip),%eax        # 12246 <g_465>
    c6c6:	48 0f bf c0          	movswq %ax,%rax
    c6ca:	8b 55 fc             	mov    -0x4(%rbp),%edx
    c6cd:	48 8d 35 c8 2e 00 00 	lea    0x2ec8(%rip),%rsi        # f59c <g_1338+0x153c>
    c6d4:	48 89 c7             	mov    %rax,%rdi
    c6d7:	e8 17 a0 ff ff       	callq  66f3 <transparent_crc>
    c6dc:	c7 45 f0 00 00 00 00 	movl   $0x0,-0x10(%rbp)
    c6e3:	eb 49                	jmp    c72e <main+0x6f5>
    c6e5:	8b 45 f0             	mov    -0x10(%rbp),%eax
    c6e8:	48 98                	cltq   
    c6ea:	48 8d 14 00          	lea    (%rax,%rax,1),%rdx
    c6ee:	48 8d 05 53 5b 00 00 	lea    0x5b53(%rip),%rax        # 12248 <g_482>
    c6f5:	0f b7 04 02          	movzwl (%rdx,%rax,1),%eax
    c6f9:	0f b7 c0             	movzwl %ax,%eax
    c6fc:	8b 55 fc             	mov    -0x4(%rbp),%edx
    c6ff:	48 8d 35 9c 2e 00 00 	lea    0x2e9c(%rip),%rsi        # f5a2 <g_1338+0x1542>
    c706:	48 89 c7             	mov    %rax,%rdi
    c709:	e8 e5 9f ff ff       	callq  66f3 <transparent_crc>
    c70e:	83 7d fc 00          	cmpl   $0x0,-0x4(%rbp)
    c712:	74 16                	je     c72a <main+0x6f1>
    c714:	8b 45 f0             	mov    -0x10(%rbp),%eax
    c717:	89 c6                	mov    %eax,%esi
    c719:	48 8d 3d 65 2d 00 00 	lea    0x2d65(%rip),%rdi        # f485 <g_1338+0x1425>
    c720:	b8 00 00 00 00       	mov    $0x0,%eax
    c725:	e8 56 89 ff ff       	callq  5080 <printf@plt>
    c72a:	83 45 f0 01          	addl   $0x1,-0x10(%rbp)
    c72e:	83 7d f0 04          	cmpl   $0x4,-0x10(%rbp)
    c732:	7e b1                	jle    c6e5 <main+0x6ac>
    c734:	c7 45 f0 00 00 00 00 	movl   $0x0,-0x10(%rbp)
    c73b:	e9 a0 00 00 00       	jmpq   c7e0 <main+0x7a7>
    c740:	c7 45 f4 00 00 00 00 	movl   $0x0,-0xc(%rbp)
    c747:	e9 86 00 00 00       	jmpq   c7d2 <main+0x799>
    c74c:	c7 45 f8 00 00 00 00 	movl   $0x0,-0x8(%rbp)
    c753:	eb 73                	jmp    c7c8 <main+0x78f>
    c755:	8b 45 f8             	mov    -0x8(%rbp),%eax
    c758:	48 63 c8             	movslq %eax,%rcx
    c75b:	8b 45 f0             	mov    -0x10(%rbp),%eax
    c75e:	48 63 d0             	movslq %eax,%rdx
    c761:	8b 45 f4             	mov    -0xc(%rbp),%eax
    c764:	48 63 f0             	movslq %eax,%rsi
    c767:	48 89 d0             	mov    %rdx,%rax
    c76a:	48 c1 e0 02          	shl    $0x2,%rax
    c76e:	48 01 d0             	add    %rdx,%rax
    c771:	48 01 c0             	add    %rax,%rax
    c774:	48 01 f0             	add    %rsi,%rax
    c777:	48 01 c0             	add    %rax,%rax
    c77a:	48 01 c8             	add    %rcx,%rax
    c77d:	48 8d 14 00          	lea    (%rax,%rax,1),%rdx
    c781:	48 8d 05 d8 5a 00 00 	lea    0x5ad8(%rip),%rax        # 12260 <g_533>
    c788:	0f b7 04 02          	movzwl (%rdx,%rax,1),%eax
    c78c:	48 0f bf c0          	movswq %ax,%rax
    c790:	8b 55 fc             	mov    -0x4(%rbp),%edx
    c793:	48 8d 35 11 2e 00 00 	lea    0x2e11(%rip),%rsi        # f5ab <g_1338+0x154b>
    c79a:	48 89 c7             	mov    %rax,%rdi
    c79d:	e8 51 9f ff ff       	callq  66f3 <transparent_crc>
    c7a2:	83 7d fc 00          	cmpl   $0x0,-0x4(%rbp)
    c7a6:	74 1c                	je     c7c4 <main+0x78b>
    c7a8:	8b 4d f8             	mov    -0x8(%rbp),%ecx
    c7ab:	8b 55 f4             	mov    -0xc(%rbp),%edx
    c7ae:	8b 45 f0             	mov    -0x10(%rbp),%eax
    c7b1:	89 c6                	mov    %eax,%esi
    c7b3:	48 8d 3d 00 2e 00 00 	lea    0x2e00(%rip),%rdi        # f5ba <g_1338+0x155a>
    c7ba:	b8 00 00 00 00       	mov    $0x0,%eax
    c7bf:	e8 bc 88 ff ff       	callq  5080 <printf@plt>
    c7c4:	83 45 f8 01          	addl   $0x1,-0x8(%rbp)
    c7c8:	83 7d f8 01          	cmpl   $0x1,-0x8(%rbp)
    c7cc:	7e 87                	jle    c755 <main+0x71c>
    c7ce:	83 45 f4 01          	addl   $0x1,-0xc(%rbp)
    c7d2:	83 7d f4 09          	cmpl   $0x9,-0xc(%rbp)
    c7d6:	0f 8e 70 ff ff ff    	jle    c74c <main+0x713>
    c7dc:	83 45 f0 01          	addl   $0x1,-0x10(%rbp)
    c7e0:	83 7d f0 09          	cmpl   $0x9,-0x10(%rbp)
    c7e4:	0f 8e 56 ff ff ff    	jle    c740 <main+0x707>
    c7ea:	8b 05 00 5c 00 00    	mov    0x5c00(%rip),%eax        # 123f0 <g_535>
    c7f0:	89 c1                	mov    %eax,%ecx
    c7f2:	8b 45 fc             	mov    -0x4(%rbp),%eax
    c7f5:	89 c2                	mov    %eax,%edx
    c7f7:	48 8d 35 d2 2d 00 00 	lea    0x2dd2(%rip),%rsi        # f5d0 <g_1338+0x1570>
    c7fe:	48 89 cf             	mov    %rcx,%rdi
    c801:	e8 ed 9e ff ff       	callq  66f3 <transparent_crc>
    c806:	c7 45 f0 00 00 00 00 	movl   $0x0,-0x10(%rbp)
    c80d:	eb 4b                	jmp    c85a <main+0x821>
    c80f:	8b 45 f0             	mov    -0x10(%rbp),%eax
    c812:	48 98                	cltq   
    c814:	48 8d 14 85 00 00 00 	lea    0x0(,%rax,4),%rdx
    c81b:	00 
    c81c:	48 8d 05 dd 5b 00 00 	lea    0x5bdd(%rip),%rax        # 12400 <g_595>
    c823:	8b 04 02             	mov    (%rdx,%rax,1),%eax
    c826:	48 98                	cltq   
    c828:	8b 55 fc             	mov    -0x4(%rbp),%edx
    c82b:	48 8d 35 a4 2d 00 00 	lea    0x2da4(%rip),%rsi        # f5d6 <g_1338+0x1576>
    c832:	48 89 c7             	mov    %rax,%rdi
    c835:	e8 b9 9e ff ff       	callq  66f3 <transparent_crc>
    c83a:	83 7d fc 00          	cmpl   $0x0,-0x4(%rbp)
    c83e:	74 16                	je     c856 <main+0x81d>
    c840:	8b 45 f0             	mov    -0x10(%rbp),%eax
    c843:	89 c6                	mov    %eax,%esi
    c845:	48 8d 3d 39 2c 00 00 	lea    0x2c39(%rip),%rdi        # f485 <g_1338+0x1425>
    c84c:	b8 00 00 00 00       	mov    $0x0,%eax
    c851:	e8 2a 88 ff ff       	callq  5080 <printf@plt>
    c856:	83 45 f0 01          	addl   $0x1,-0x10(%rbp)
    c85a:	83 7d f0 08          	cmpl   $0x8,-0x10(%rbp)
    c85e:	7e af                	jle    c80f <main+0x7d6>
    c860:	c7 45 f0 00 00 00 00 	movl   $0x0,-0x10(%rbp)
    c867:	e9 03 01 00 00       	jmpq   c96f <main+0x936>
    c86c:	8b 45 f0             	mov    -0x10(%rbp),%eax
    c86f:	48 98                	cltq   
    c871:	48 8d 14 c5 00 00 00 	lea    0x0(,%rax,8),%rdx
    c878:	00 
    c879:	48 8d 05 c0 5b 00 00 	lea    0x5bc0(%rip),%rax        # 12440 <g_695>
    c880:	48 8b 04 02          	mov    (%rdx,%rax,1),%rax
    c884:	48 89 c1             	mov    %rax,%rcx
    c887:	8b 45 fc             	mov    -0x4(%rbp),%eax
    c88a:	89 c2                	mov    %eax,%edx
    c88c:	48 8d 35 4c 2d 00 00 	lea    0x2d4c(%rip),%rsi        # f5df <g_1338+0x157f>
    c893:	48 89 cf             	mov    %rcx,%rdi
    c896:	e8 58 9e ff ff       	callq  66f3 <transparent_crc>
    c89b:	8b 45 f0             	mov    -0x10(%rbp),%eax
    c89e:	48 98                	cltq   
    c8a0:	48 8d 14 c5 00 00 00 	lea    0x0(,%rax,8),%rdx
    c8a7:	00 
    c8a8:	48 8d 05 91 5b 00 00 	lea    0x5b91(%rip),%rax        # 12440 <g_695>
    c8af:	8b 04 02             	mov    (%rdx,%rax,1),%eax
    c8b2:	89 c1                	mov    %eax,%ecx
    c8b4:	8b 45 fc             	mov    -0x4(%rbp),%eax
    c8b7:	89 c2                	mov    %eax,%edx
    c8b9:	48 8d 35 2b 2d 00 00 	lea    0x2d2b(%rip),%rsi        # f5eb <g_1338+0x158b>
    c8c0:	48 89 cf             	mov    %rcx,%rdi
    c8c3:	e8 2b 9e ff ff       	callq  66f3 <transparent_crc>
    c8c8:	8b 45 f0             	mov    -0x10(%rbp),%eax
    c8cb:	48 98                	cltq   
    c8cd:	48 8d 14 c5 00 00 00 	lea    0x0(,%rax,8),%rdx
    c8d4:	00 
    c8d5:	48 8d 05 64 5b 00 00 	lea    0x5b64(%rip),%rax        # 12440 <g_695>
    c8dc:	0f b6 04 02          	movzbl (%rdx,%rax,1),%eax
    c8e0:	48 0f be c0          	movsbq %al,%rax
    c8e4:	8b 55 fc             	mov    -0x4(%rbp),%edx
    c8e7:	48 8d 35 09 2d 00 00 	lea    0x2d09(%rip),%rsi        # f5f7 <g_1338+0x1597>
    c8ee:	48 89 c7             	mov    %rax,%rdi
    c8f1:	e8 fd 9d ff ff       	callq  66f3 <transparent_crc>
    c8f6:	8b 45 f0             	mov    -0x10(%rbp),%eax
    c8f9:	48 98                	cltq   
    c8fb:	48 8d 14 c5 00 00 00 	lea    0x0(,%rax,8),%rdx
    c902:	00 
    c903:	48 8d 05 36 5b 00 00 	lea    0x5b36(%rip),%rax        # 12440 <g_695>
    c90a:	0f b6 04 02          	movzbl (%rdx,%rax,1),%eax
    c90e:	48 0f be c0          	movsbq %al,%rax
    c912:	8b 55 fc             	mov    -0x4(%rbp),%edx
    c915:	48 8d 35 e7 2c 00 00 	lea    0x2ce7(%rip),%rsi        # f603 <g_1338+0x15a3>
    c91c:	48 89 c7             	mov    %rax,%rdi
    c91f:	e8 cf 9d ff ff       	callq  66f3 <transparent_crc>
    c924:	8b 45 f0             	mov    -0x10(%rbp),%eax
    c927:	48 98                	cltq   
    c929:	48 8d 14 c5 00 00 00 	lea    0x0(,%rax,8),%rdx
    c930:	00 
    c931:	48 8d 05 08 5b 00 00 	lea    0x5b08(%rip),%rax        # 12440 <g_695>
    c938:	8b 04 02             	mov    (%rdx,%rax,1),%eax
    c93b:	48 98                	cltq   
    c93d:	8b 55 fc             	mov    -0x4(%rbp),%edx
    c940:	48 8d 35 c8 2c 00 00 	lea    0x2cc8(%rip),%rsi        # f60f <g_1338+0x15af>
    c947:	48 89 c7             	mov    %rax,%rdi
    c94a:	e8 a4 9d ff ff       	callq  66f3 <transparent_crc>
    c94f:	83 7d fc 00          	cmpl   $0x0,-0x4(%rbp)
    c953:	74 16                	je     c96b <main+0x932>
    c955:	8b 45 f0             	mov    -0x10(%rbp),%eax
    c958:	89 c6                	mov    %eax,%esi
    c95a:	48 8d 3d 24 2b 00 00 	lea    0x2b24(%rip),%rdi        # f485 <g_1338+0x1425>
    c961:	b8 00 00 00 00       	mov    $0x0,%eax
    c966:	e8 15 87 ff ff       	callq  5080 <printf@plt>
    c96b:	83 45 f0 01          	addl   $0x1,-0x10(%rbp)
    c96f:	83 7d f0 04          	cmpl   $0x4,-0x10(%rbp)
    c973:	0f 8e f3 fe ff ff    	jle    c86c <main+0x833>
    c979:	48 8b 05 e8 5a 00 00 	mov    0x5ae8(%rip),%rax        # 12468 <g_697>
    c980:	48 89 c1             	mov    %rax,%rcx
    c983:	8b 45 fc             	mov    -0x4(%rbp),%eax
    c986:	89 c2                	mov    %eax,%edx
    c988:	48 8d 35 8c 2c 00 00 	lea    0x2c8c(%rip),%rsi        # f61b <g_1338+0x15bb>
    c98f:	48 89 cf             	mov    %rcx,%rdi
    c992:	e8 5c 9d ff ff       	callq  66f3 <transparent_crc>
    c997:	8b 05 cb 5a 00 00    	mov    0x5acb(%rip),%eax        # 12468 <g_697>
    c99d:	89 c1                	mov    %eax,%ecx
    c99f:	8b 45 fc             	mov    -0x4(%rbp),%eax
    c9a2:	89 c2                	mov    %eax,%edx
    c9a4:	48 8d 35 79 2c 00 00 	lea    0x2c79(%rip),%rsi        # f624 <g_1338+0x15c4>
    c9ab:	48 89 cf             	mov    %rcx,%rdi
    c9ae:	e8 40 9d ff ff       	callq  66f3 <transparent_crc>
    c9b3:	0f b6 05 ae 5a 00 00 	movzbl 0x5aae(%rip),%eax        # 12468 <g_697>
    c9ba:	48 0f be c0          	movsbq %al,%rax
    c9be:	8b 55 fc             	mov    -0x4(%rbp),%edx
    c9c1:	48 8d 35 65 2c 00 00 	lea    0x2c65(%rip),%rsi        # f62d <g_1338+0x15cd>
    c9c8:	48 89 c7             	mov    %rax,%rdi
    c9cb:	e8 23 9d ff ff       	callq  66f3 <transparent_crc>
    c9d0:	0f b6 05 91 5a 00 00 	movzbl 0x5a91(%rip),%eax        # 12468 <g_697>
    c9d7:	48 0f be c0          	movsbq %al,%rax
    c9db:	8b 55 fc             	mov    -0x4(%rbp),%edx
    c9de:	48 8d 35 51 2c 00 00 	lea    0x2c51(%rip),%rsi        # f636 <g_1338+0x15d6>
    c9e5:	48 89 c7             	mov    %rax,%rdi
    c9e8:	e8 06 9d ff ff       	callq  66f3 <transparent_crc>
    c9ed:	8b 05 75 5a 00 00    	mov    0x5a75(%rip),%eax        # 12468 <g_697>
    c9f3:	48 98                	cltq   
    c9f5:	8b 55 fc             	mov    -0x4(%rbp),%edx
    c9f8:	48 8d 35 40 2c 00 00 	lea    0x2c40(%rip),%rsi        # f63f <g_1338+0x15df>
    c9ff:	48 89 c7             	mov    %rax,%rdi
    ca02:	e8 ec 9c ff ff       	callq  66f3 <transparent_crc>
    ca07:	c7 45 f0 00 00 00 00 	movl   $0x0,-0x10(%rbp)
    ca0e:	e9 03 01 00 00       	jmpq   cb16 <main+0xadd>
    ca13:	8b 45 f0             	mov    -0x10(%rbp),%eax
    ca16:	48 98                	cltq   
    ca18:	48 8d 14 c5 00 00 00 	lea    0x0(,%rax,8),%rdx
    ca1f:	00 
    ca20:	48 8d 05 59 5a 00 00 	lea    0x5a59(%rip),%rax        # 12480 <g_705>
    ca27:	48 8b 04 02          	mov    (%rdx,%rax,1),%rax
    ca2b:	48 89 c1             	mov    %rax,%rcx
    ca2e:	8b 45 fc             	mov    -0x4(%rbp),%eax
    ca31:	89 c2                	mov    %eax,%edx
    ca33:	48 8d 35 0e 2c 00 00 	lea    0x2c0e(%rip),%rsi        # f648 <g_1338+0x15e8>
    ca3a:	48 89 cf             	mov    %rcx,%rdi
    ca3d:	e8 b1 9c ff ff       	callq  66f3 <transparent_crc>
    ca42:	8b 45 f0             	mov    -0x10(%rbp),%eax
    ca45:	48 98                	cltq   
    ca47:	48 8d 14 c5 00 00 00 	lea    0x0(,%rax,8),%rdx
    ca4e:	00 
    ca4f:	48 8d 05 2a 5a 00 00 	lea    0x5a2a(%rip),%rax        # 12480 <g_705>
    ca56:	8b 04 02             	mov    (%rdx,%rax,1),%eax
    ca59:	89 c1                	mov    %eax,%ecx
    ca5b:	8b 45 fc             	mov    -0x4(%rbp),%eax
    ca5e:	89 c2                	mov    %eax,%edx
    ca60:	48 8d 35 ed 2b 00 00 	lea    0x2bed(%rip),%rsi        # f654 <g_1338+0x15f4>
    ca67:	48 89 cf             	mov    %rcx,%rdi
    ca6a:	e8 84 9c ff ff       	callq  66f3 <transparent_crc>
    ca6f:	8b 45 f0             	mov    -0x10(%rbp),%eax
    ca72:	48 98                	cltq   
    ca74:	48 8d 14 c5 00 00 00 	lea    0x0(,%rax,8),%rdx
    ca7b:	00 
    ca7c:	48 8d 05 fd 59 00 00 	lea    0x59fd(%rip),%rax        # 12480 <g_705>
    ca83:	0f b6 04 02          	movzbl (%rdx,%rax,1),%eax
    ca87:	48 0f be c0          	movsbq %al,%rax
    ca8b:	8b 55 fc             	mov    -0x4(%rbp),%edx
    ca8e:	48 8d 35 cb 2b 00 00 	lea    0x2bcb(%rip),%rsi        # f660 <g_1338+0x1600>
    ca95:	48 89 c7             	mov    %rax,%rdi
    ca98:	e8 56 9c ff ff       	callq  66f3 <transparent_crc>
    ca9d:	8b 45 f0             	mov    -0x10(%rbp),%eax
    caa0:	48 98                	cltq   
    caa2:	48 8d 14 c5 00 00 00 	lea    0x0(,%rax,8),%rdx
    caa9:	00 
    caaa:	48 8d 05 cf 59 00 00 	lea    0x59cf(%rip),%rax        # 12480 <g_705>
    cab1:	0f b6 04 02          	movzbl (%rdx,%rax,1),%eax
    cab5:	48 0f be c0          	movsbq %al,%rax
    cab9:	8b 55 fc             	mov    -0x4(%rbp),%edx
    cabc:	48 8d 35 a9 2b 00 00 	lea    0x2ba9(%rip),%rsi        # f66c <g_1338+0x160c>
    cac3:	48 89 c7             	mov    %rax,%rdi
    cac6:	e8 28 9c ff ff       	callq  66f3 <transparent_crc>
    cacb:	8b 45 f0             	mov    -0x10(%rbp),%eax
    cace:	48 98                	cltq   
    cad0:	48 8d 14 c5 00 00 00 	lea    0x0(,%rax,8),%rdx
    cad7:	00 
    cad8:	48 8d 05 a1 59 00 00 	lea    0x59a1(%rip),%rax        # 12480 <g_705>
    cadf:	8b 04 02             	mov    (%rdx,%rax,1),%eax
    cae2:	48 98                	cltq   
    cae4:	8b 55 fc             	mov    -0x4(%rbp),%edx
    cae7:	48 8d 35 8a 2b 00 00 	lea    0x2b8a(%rip),%rsi        # f678 <g_1338+0x1618>
    caee:	48 89 c7             	mov    %rax,%rdi
    caf1:	e8 fd 9b ff ff       	callq  66f3 <transparent_crc>
    caf6:	83 7d fc 00          	cmpl   $0x0,-0x4(%rbp)
    cafa:	74 16                	je     cb12 <main+0xad9>
    cafc:	8b 45 f0             	mov    -0x10(%rbp),%eax
    caff:	89 c6                	mov    %eax,%esi
    cb01:	48 8d 3d 7d 29 00 00 	lea    0x297d(%rip),%rdi        # f485 <g_1338+0x1425>
    cb08:	b8 00 00 00 00       	mov    $0x0,%eax
    cb0d:	e8 6e 85 ff ff       	callq  5080 <printf@plt>
    cb12:	83 45 f0 01          	addl   $0x1,-0x10(%rbp)
    cb16:	83 7d f0 03          	cmpl   $0x3,-0x10(%rbp)
    cb1a:	0f 8e f3 fe ff ff    	jle    ca13 <main+0x9da>
    cb20:	0f b7 05 79 59 00 00 	movzwl 0x5979(%rip),%eax        # 124a0 <g_708>
    cb27:	0f b7 c0             	movzwl %ax,%eax
    cb2a:	8b 55 fc             	mov    -0x4(%rbp),%edx
    cb2d:	48 8d 35 50 2b 00 00 	lea    0x2b50(%rip),%rsi        # f684 <g_1338+0x1624>
    cb34:	48 89 c7             	mov    %rax,%rdi
    cb37:	e8 b7 9b ff ff       	callq  66f3 <transparent_crc>
    cb3c:	0f b6 05 5f 59 00 00 	movzbl 0x595f(%rip),%eax        # 124a2 <g_711>
    cb43:	48 0f be c0          	movsbq %al,%rax
    cb47:	8b 55 fc             	mov    -0x4(%rbp),%edx
    cb4a:	48 8d 35 39 2b 00 00 	lea    0x2b39(%rip),%rsi        # f68a <g_1338+0x162a>
    cb51:	48 89 c7             	mov    %rax,%rdi
    cb54:	e8 9a 9b ff ff       	callq  66f3 <transparent_crc>
    cb59:	8b 05 45 59 00 00    	mov    0x5945(%rip),%eax        # 124a4 <g_736>
    cb5f:	48 98                	cltq   
    cb61:	8b 55 fc             	mov    -0x4(%rbp),%edx
    cb64:	48 8d 35 25 2b 00 00 	lea    0x2b25(%rip),%rsi        # f690 <g_1338+0x1630>
    cb6b:	48 89 c7             	mov    %rax,%rdi
    cb6e:	e8 80 9b ff ff       	callq  66f3 <transparent_crc>
    cb73:	c7 45 f0 00 00 00 00 	movl   $0x0,-0x10(%rbp)
    cb7a:	e9 2d 02 00 00       	jmpq   cdac <main+0xd73>
    cb7f:	c7 45 f4 00 00 00 00 	movl   $0x0,-0xc(%rbp)
    cb86:	e9 13 02 00 00       	jmpq   cd9e <main+0xd65>
    cb8b:	c7 45 f8 00 00 00 00 	movl   $0x0,-0x8(%rbp)
    cb92:	e9 f9 01 00 00       	jmpq   cd90 <main+0xd57>
    cb97:	8b 45 f8             	mov    -0x8(%rbp),%eax
    cb9a:	48 63 f0             	movslq %eax,%rsi
    cb9d:	8b 45 f0             	mov    -0x10(%rbp),%eax
    cba0:	48 63 d0             	movslq %eax,%rdx
    cba3:	8b 45 f4             	mov    -0xc(%rbp),%eax
    cba6:	48 63 c8             	movslq %eax,%rcx
    cba9:	48 89 d0             	mov    %rdx,%rax
    cbac:	48 01 c0             	add    %rax,%rax
    cbaf:	48 01 d0             	add    %rdx,%rax
    cbb2:	48 89 c2             	mov    %rax,%rdx
    cbb5:	48 c1 e2 04          	shl    $0x4,%rdx
    cbb9:	48 29 c2             	sub    %rax,%rdx
    cbbc:	48 89 c8             	mov    %rcx,%rax
    cbbf:	48 c1 e0 02          	shl    $0x2,%rax
    cbc3:	48 01 c8             	add    %rcx,%rax
    cbc6:	48 01 d0             	add    %rdx,%rax
    cbc9:	48 01 f0             	add    %rsi,%rax
    cbcc:	48 8d 14 c5 00 00 00 	lea    0x0(,%rax,8),%rdx
    cbd3:	00 
    cbd4:	48 8d 05 e5 58 00 00 	lea    0x58e5(%rip),%rax        # 124c0 <g_801>
    cbdb:	48 8b 04 02          	mov    (%rdx,%rax,1),%rax
    cbdf:	48 89 c1             	mov    %rax,%rcx
    cbe2:	8b 45 fc             	mov    -0x4(%rbp),%eax
    cbe5:	89 c2                	mov    %eax,%edx
    cbe7:	48 8d 35 a8 2a 00 00 	lea    0x2aa8(%rip),%rsi        # f696 <g_1338+0x1636>
    cbee:	48 89 cf             	mov    %rcx,%rdi
    cbf1:	e8 fd 9a ff ff       	callq  66f3 <transparent_crc>
    cbf6:	8b 45 f8             	mov    -0x8(%rbp),%eax
    cbf9:	48 63 f0             	movslq %eax,%rsi
    cbfc:	8b 45 f0             	mov    -0x10(%rbp),%eax
    cbff:	48 63 d0             	movslq %eax,%rdx
    cc02:	8b 45 f4             	mov    -0xc(%rbp),%eax
    cc05:	48 63 c8             	movslq %eax,%rcx
    cc08:	48 89 d0             	mov    %rdx,%rax
    cc0b:	48 01 c0             	add    %rax,%rax
    cc0e:	48 01 d0             	add    %rdx,%rax
    cc11:	48 89 c2             	mov    %rax,%rdx
    cc14:	48 c1 e2 04          	shl    $0x4,%rdx
    cc18:	48 29 c2             	sub    %rax,%rdx
    cc1b:	48 89 c8             	mov    %rcx,%rax
    cc1e:	48 c1 e0 02          	shl    $0x2,%rax
    cc22:	48 01 c8             	add    %rcx,%rax
    cc25:	48 01 d0             	add    %rdx,%rax
    cc28:	48 01 f0             	add    %rsi,%rax
    cc2b:	48 8d 14 c5 00 00 00 	lea    0x0(,%rax,8),%rdx
    cc32:	00 
    cc33:	48 8d 05 86 58 00 00 	lea    0x5886(%rip),%rax        # 124c0 <g_801>
    cc3a:	8b 04 02             	mov    (%rdx,%rax,1),%eax
    cc3d:	89 c1                	mov    %eax,%ecx
    cc3f:	8b 45 fc             	mov    -0x4(%rbp),%eax
    cc42:	89 c2                	mov    %eax,%edx
    cc44:	48 8d 35 5d 2a 00 00 	lea    0x2a5d(%rip),%rsi        # f6a8 <g_1338+0x1648>
    cc4b:	48 89 cf             	mov    %rcx,%rdi
    cc4e:	e8 a0 9a ff ff       	callq  66f3 <transparent_crc>
    cc53:	8b 45 f8             	mov    -0x8(%rbp),%eax
    cc56:	48 63 f0             	movslq %eax,%rsi
    cc59:	8b 45 f0             	mov    -0x10(%rbp),%eax
    cc5c:	48 63 d0             	movslq %eax,%rdx
    cc5f:	8b 45 f4             	mov    -0xc(%rbp),%eax
    cc62:	48 63 c8             	movslq %eax,%rcx
    cc65:	48 89 d0             	mov    %rdx,%rax
    cc68:	48 01 c0             	add    %rax,%rax
    cc6b:	48 01 d0             	add    %rdx,%rax
    cc6e:	48 89 c2             	mov    %rax,%rdx
    cc71:	48 c1 e2 04          	shl    $0x4,%rdx
    cc75:	48 29 c2             	sub    %rax,%rdx
    cc78:	48 89 c8             	mov    %rcx,%rax
    cc7b:	48 c1 e0 02          	shl    $0x2,%rax
    cc7f:	48 01 c8             	add    %rcx,%rax
    cc82:	48 01 d0             	add    %rdx,%rax
    cc85:	48 01 f0             	add    %rsi,%rax
    cc88:	48 8d 14 c5 00 00 00 	lea    0x0(,%rax,8),%rdx
    cc8f:	00 
    cc90:	48 8d 05 29 58 00 00 	lea    0x5829(%rip),%rax        # 124c0 <g_801>
    cc97:	0f b6 04 02          	movzbl (%rdx,%rax,1),%eax
    cc9b:	48 0f be c0          	movsbq %al,%rax
    cc9f:	8b 55 fc             	mov    -0x4(%rbp),%edx
    cca2:	48 8d 35 11 2a 00 00 	lea    0x2a11(%rip),%rsi        # f6ba <g_1338+0x165a>
    cca9:	48 89 c7             	mov    %rax,%rdi
    ccac:	e8 42 9a ff ff       	callq  66f3 <transparent_crc>
    ccb1:	8b 45 f8             	mov    -0x8(%rbp),%eax
    ccb4:	48 63 f0             	movslq %eax,%rsi
    ccb7:	8b 45 f0             	mov    -0x10(%rbp),%eax
    ccba:	48 63 d0             	movslq %eax,%rdx
    ccbd:	8b 45 f4             	mov    -0xc(%rbp),%eax
    ccc0:	48 63 c8             	movslq %eax,%rcx
    ccc3:	48 89 d0             	mov    %rdx,%rax
    ccc6:	48 01 c0             	add    %rax,%rax
    ccc9:	48 01 d0             	add    %rdx,%rax
    cccc:	48 89 c2             	mov    %rax,%rdx
    cccf:	48 c1 e2 04          	shl    $0x4,%rdx
    ccd3:	48 29 c2             	sub    %rax,%rdx
    ccd6:	48 89 c8             	mov    %rcx,%rax
    ccd9:	48 c1 e0 02          	shl    $0x2,%rax
    ccdd:	48 01 c8             	add    %rcx,%rax
    cce0:	48 01 d0             	add    %rdx,%rax
    cce3:	48 01 f0             	add    %rsi,%rax
    cce6:	48 8d 14 c5 00 00 00 	lea    0x0(,%rax,8),%rdx
    cced:	00 
    ccee:	48 8d 05 cb 57 00 00 	lea    0x57cb(%rip),%rax        # 124c0 <g_801>
    ccf5:	0f b6 04 02          	movzbl (%rdx,%rax,1),%eax
    ccf9:	48 0f be c0          	movsbq %al,%rax
    ccfd:	8b 55 fc             	mov    -0x4(%rbp),%edx
    cd00:	48 8d 35 c5 29 00 00 	lea    0x29c5(%rip),%rsi        # f6cc <g_1338+0x166c>
    cd07:	48 89 c7             	mov    %rax,%rdi
    cd0a:	e8 e4 99 ff ff       	callq  66f3 <transparent_crc>
    cd0f:	8b 45 f8             	mov    -0x8(%rbp),%eax
    cd12:	48 63 f0             	movslq %eax,%rsi
    cd15:	8b 45 f0             	mov    -0x10(%rbp),%eax
    cd18:	48 63 d0             	movslq %eax,%rdx
    cd1b:	8b 45 f4             	mov    -0xc(%rbp),%eax
    cd1e:	48 63 c8             	movslq %eax,%rcx
    cd21:	48 89 d0             	mov    %rdx,%rax
    cd24:	48 01 c0             	add    %rax,%rax
    cd27:	48 01 d0             	add    %rdx,%rax
    cd2a:	48 89 c2             	mov    %rax,%rdx
    cd2d:	48 c1 e2 04          	shl    $0x4,%rdx
    cd31:	48 29 c2             	sub    %rax,%rdx
    cd34:	48 89 c8             	mov    %rcx,%rax
    cd37:	48 c1 e0 02          	shl    $0x2,%rax
    cd3b:	48 01 c8             	add    %rcx,%rax
    cd3e:	48 01 d0             	add    %rdx,%rax
    cd41:	48 01 f0             	add    %rsi,%rax
    cd44:	48 8d 14 c5 00 00 00 	lea    0x0(,%rax,8),%rdx
    cd4b:	00 
    cd4c:	48 8d 05 6d 57 00 00 	lea    0x576d(%rip),%rax        # 124c0 <g_801>
    cd53:	8b 04 02             	mov    (%rdx,%rax,1),%eax
    cd56:	48 98                	cltq   
    cd58:	8b 55 fc             	mov    -0x4(%rbp),%edx
    cd5b:	48 8d 35 7c 29 00 00 	lea    0x297c(%rip),%rsi        # f6de <g_1338+0x167e>
    cd62:	48 89 c7             	mov    %rax,%rdi
    cd65:	e8 89 99 ff ff       	callq  66f3 <transparent_crc>
    cd6a:	83 7d fc 00          	cmpl   $0x0,-0x4(%rbp)
    cd6e:	74 1c                	je     cd8c <main+0xd53>
    cd70:	8b 4d f8             	mov    -0x8(%rbp),%ecx
    cd73:	8b 55 f4             	mov    -0xc(%rbp),%edx
    cd76:	8b 45 f0             	mov    -0x10(%rbp),%eax
    cd79:	89 c6                	mov    %eax,%esi
    cd7b:	48 8d 3d 38 28 00 00 	lea    0x2838(%rip),%rdi        # f5ba <g_1338+0x155a>
    cd82:	b8 00 00 00 00       	mov    $0x0,%eax
    cd87:	e8 f4 82 ff ff       	callq  5080 <printf@plt>
    cd8c:	83 45 f8 01          	addl   $0x1,-0x8(%rbp)
    cd90:	83 7d f8 04          	cmpl   $0x4,-0x8(%rbp)
    cd94:	0f 8e fd fd ff ff    	jle    cb97 <main+0xb5e>
    cd9a:	83 45 f4 01          	addl   $0x1,-0xc(%rbp)
    cd9e:	83 7d f4 08          	cmpl   $0x8,-0xc(%rbp)
    cda2:	0f 8e e3 fd ff ff    	jle    cb8b <main+0xb52>
    cda8:	83 45 f0 01          	addl   $0x1,-0x10(%rbp)
    cdac:	83 7d f0 04          	cmpl   $0x4,-0x10(%rbp)
    cdb0:	0f 8e c9 fd ff ff    	jle    cb7f <main+0xb46>
    cdb6:	8b 05 0c 5e 00 00    	mov    0x5e0c(%rip),%eax        # 12bc8 <g_804>
    cdbc:	89 c1                	mov    %eax,%ecx
    cdbe:	8b 45 fc             	mov    -0x4(%rbp),%eax
    cdc1:	89 c2                	mov    %eax,%edx
    cdc3:	48 8d 35 26 29 00 00 	lea    0x2926(%rip),%rsi        # f6f0 <g_1338+0x1690>
    cdca:	48 89 cf             	mov    %rcx,%rdi
    cdcd:	e8 21 99 ff ff       	callq  66f3 <transparent_crc>
    cdd2:	48 8b 05 47 7a 00 00 	mov    0x7a47(%rip),%rax        # 14820 <g_1048>
    cdd9:	48 89 c1             	mov    %rax,%rcx
    cddc:	8b 45 fc             	mov    -0x4(%rbp),%eax
    cddf:	89 c2                	mov    %eax,%edx
    cde1:	48 8d 35 0e 29 00 00 	lea    0x290e(%rip),%rsi        # f6f6 <g_1338+0x1696>
    cde8:	48 89 cf             	mov    %rcx,%rdi
    cdeb:	e8 03 99 ff ff       	callq  66f3 <transparent_crc>
    cdf0:	8b 05 2a 7a 00 00    	mov    0x7a2a(%rip),%eax        # 14820 <g_1048>
    cdf6:	89 c1                	mov    %eax,%ecx
    cdf8:	8b 45 fc             	mov    -0x4(%rbp),%eax
    cdfb:	89 c2                	mov    %eax,%edx
    cdfd:	48 8d 35 fc 28 00 00 	lea    0x28fc(%rip),%rsi        # f700 <g_1338+0x16a0>
    ce04:	48 89 cf             	mov    %rcx,%rdi
    ce07:	e8 e7 98 ff ff       	callq  66f3 <transparent_crc>
    ce0c:	0f b6 05 0d 7a 00 00 	movzbl 0x7a0d(%rip),%eax        # 14820 <g_1048>
    ce13:	48 0f be c0          	movsbq %al,%rax
    ce17:	8b 55 fc             	mov    -0x4(%rbp),%edx
    ce1a:	48 8d 35 e9 28 00 00 	lea    0x28e9(%rip),%rsi        # f70a <g_1338+0x16aa>
    ce21:	48 89 c7             	mov    %rax,%rdi
    ce24:	e8 ca 98 ff ff       	callq  66f3 <transparent_crc>
    ce29:	0f b6 05 f0 79 00 00 	movzbl 0x79f0(%rip),%eax        # 14820 <g_1048>
    ce30:	48 0f be c0          	movsbq %al,%rax
    ce34:	8b 55 fc             	mov    -0x4(%rbp),%edx
    ce37:	48 8d 35 d6 28 00 00 	lea    0x28d6(%rip),%rsi        # f714 <g_1338+0x16b4>
    ce3e:	48 89 c7             	mov    %rax,%rdi
    ce41:	e8 ad 98 ff ff       	callq  66f3 <transparent_crc>
    ce46:	8b 05 d4 79 00 00    	mov    0x79d4(%rip),%eax        # 14820 <g_1048>
    ce4c:	48 98                	cltq   
    ce4e:	8b 55 fc             	mov    -0x4(%rbp),%edx
    ce51:	48 8d 35 c6 28 00 00 	lea    0x28c6(%rip),%rsi        # f71e <g_1338+0x16be>
    ce58:	48 89 c7             	mov    %rax,%rdi
    ce5b:	e8 93 98 ff ff       	callq  66f3 <transparent_crc>
    ce60:	48 8b 05 69 5d 00 00 	mov    0x5d69(%rip),%rax        # 12bd0 <g_1082>
    ce67:	48 89 c1             	mov    %rax,%rcx
    ce6a:	8b 45 fc             	mov    -0x4(%rbp),%eax
    ce6d:	89 c2                	mov    %eax,%edx
    ce6f:	48 8d 35 b2 28 00 00 	lea    0x28b2(%rip),%rsi        # f728 <g_1338+0x16c8>
    ce76:	48 89 cf             	mov    %rcx,%rdi
    ce79:	e8 75 98 ff ff       	callq  66f3 <transparent_crc>
    ce7e:	8b 05 4c 5d 00 00    	mov    0x5d4c(%rip),%eax        # 12bd0 <g_1082>
    ce84:	89 c1                	mov    %eax,%ecx
    ce86:	8b 45 fc             	mov    -0x4(%rbp),%eax
    ce89:	89 c2                	mov    %eax,%edx
    ce8b:	48 8d 35 a0 28 00 00 	lea    0x28a0(%rip),%rsi        # f732 <g_1338+0x16d2>
    ce92:	48 89 cf             	mov    %rcx,%rdi
    ce95:	e8 59 98 ff ff       	callq  66f3 <transparent_crc>
    ce9a:	0f b6 05 2f 5d 00 00 	movzbl 0x5d2f(%rip),%eax        # 12bd0 <g_1082>
    cea1:	48 0f be c0          	movsbq %al,%rax
    cea5:	8b 55 fc             	mov    -0x4(%rbp),%edx
    cea8:	48 8d 35 8d 28 00 00 	lea    0x288d(%rip),%rsi        # f73c <g_1338+0x16dc>
    ceaf:	48 89 c7             	mov    %rax,%rdi
    ceb2:	e8 3c 98 ff ff       	callq  66f3 <transparent_crc>
    ceb7:	0f b6 05 12 5d 00 00 	movzbl 0x5d12(%rip),%eax        # 12bd0 <g_1082>
    cebe:	48 0f be c0          	movsbq %al,%rax
    cec2:	8b 55 fc             	mov    -0x4(%rbp),%edx
    cec5:	48 8d 35 7a 28 00 00 	lea    0x287a(%rip),%rsi        # f746 <g_1338+0x16e6>
    cecc:	48 89 c7             	mov    %rax,%rdi
    cecf:	e8 1f 98 ff ff       	callq  66f3 <transparent_crc>
    ced4:	8b 05 f6 5c 00 00    	mov    0x5cf6(%rip),%eax        # 12bd0 <g_1082>
    ceda:	48 98                	cltq   
    cedc:	8b 55 fc             	mov    -0x4(%rbp),%edx
    cedf:	48 8d 35 6a 28 00 00 	lea    0x286a(%rip),%rsi        # f750 <g_1338+0x16f0>
    cee6:	48 89 c7             	mov    %rax,%rdi
    cee9:	e8 05 98 ff ff       	callq  66f3 <transparent_crc>
    ceee:	0f b6 05 e3 5c 00 00 	movzbl 0x5ce3(%rip),%eax        # 12bd8 <g_1100>
    cef5:	0f b6 c0             	movzbl %al,%eax
    cef8:	8b 55 fc             	mov    -0x4(%rbp),%edx
    cefb:	48 8d 35 58 28 00 00 	lea    0x2858(%rip),%rsi        # f75a <g_1338+0x16fa>
    cf02:	48 89 c7             	mov    %rax,%rdi
    cf05:	e8 e9 97 ff ff       	callq  66f3 <transparent_crc>
    cf0a:	0f b7 05 cf 5c 00 00 	movzwl 0x5ccf(%rip),%eax        # 12be0 <g_1127>
    cf11:	48 0f bf c0          	movswq %ax,%rax
    cf15:	8b 55 fc             	mov    -0x4(%rbp),%edx
    cf18:	48 8d 35 42 28 00 00 	lea    0x2842(%rip),%rsi        # f761 <g_1338+0x1701>
    cf1f:	48 89 c7             	mov    %rax,%rdi
    cf22:	e8 cc 97 ff ff       	callq  66f3 <transparent_crc>
    cf27:	8b 05 bb 5c 00 00    	mov    0x5cbb(%rip),%eax        # 12be8 <g_1140>
    cf2d:	48 98                	cltq   
    cf2f:	8b 55 fc             	mov    -0x4(%rbp),%edx
    cf32:	48 8d 35 32 28 00 00 	lea    0x2832(%rip),%rsi        # f76b <g_1338+0x170b>
    cf39:	48 89 c7             	mov    %rax,%rdi
    cf3c:	e8 b2 97 ff ff       	callq  66f3 <transparent_crc>
    cf41:	0f b7 05 a8 5c 00 00 	movzwl 0x5ca8(%rip),%eax        # 12bf0 <g_1152>
    cf48:	48 0f bf c0          	movswq %ax,%rax
    cf4c:	8b 55 fc             	mov    -0x4(%rbp),%edx
    cf4f:	48 8d 35 1c 28 00 00 	lea    0x281c(%rip),%rsi        # f772 <g_1338+0x1712>
    cf56:	48 89 c7             	mov    %rax,%rdi
    cf59:	e8 95 97 ff ff       	callq  66f3 <transparent_crc>
    cf5e:	48 8b 05 93 5c 00 00 	mov    0x5c93(%rip),%rax        # 12bf8 <g_1224>
    cf65:	48 89 c1             	mov    %rax,%rcx
    cf68:	8b 45 fc             	mov    -0x4(%rbp),%eax
    cf6b:	89 c2                	mov    %eax,%edx
    cf6d:	48 8d 35 08 28 00 00 	lea    0x2808(%rip),%rsi        # f77c <g_1338+0x171c>
    cf74:	48 89 cf             	mov    %rcx,%rdi
    cf77:	e8 77 97 ff ff       	callq  66f3 <transparent_crc>
    cf7c:	c7 45 f0 00 00 00 00 	movl   $0x0,-0x10(%rbp)
    cf83:	eb 4b                	jmp    cfd0 <main+0xf97>
    cf85:	8b 45 f0             	mov    -0x10(%rbp),%eax
    cf88:	48 98                	cltq   
    cf8a:	48 8d 14 85 00 00 00 	lea    0x0(,%rax,4),%rdx
    cf91:	00 
    cf92:	48 8d 05 67 5c 00 00 	lea    0x5c67(%rip),%rax        # 12c00 <g_1263>
    cf99:	8b 04 02             	mov    (%rdx,%rax,1),%eax
    cf9c:	48 98                	cltq   
    cf9e:	8b 55 fc             	mov    -0x4(%rbp),%edx
    cfa1:	48 8d 35 db 27 00 00 	lea    0x27db(%rip),%rsi        # f783 <g_1338+0x1723>
    cfa8:	48 89 c7             	mov    %rax,%rdi
    cfab:	e8 43 97 ff ff       	callq  66f3 <transparent_crc>
    cfb0:	83 7d fc 00          	cmpl   $0x0,-0x4(%rbp)
    cfb4:	74 16                	je     cfcc <main+0xf93>
    cfb6:	8b 45 f0             	mov    -0x10(%rbp),%eax
    cfb9:	89 c6                	mov    %eax,%esi
    cfbb:	48 8d 3d c3 24 00 00 	lea    0x24c3(%rip),%rdi        # f485 <g_1338+0x1425>
    cfc2:	b8 00 00 00 00       	mov    $0x0,%eax
    cfc7:	e8 b4 80 ff ff       	callq  5080 <printf@plt>
    cfcc:	83 45 f0 01          	addl   $0x1,-0x10(%rbp)
    cfd0:	83 7d f0 06          	cmpl   $0x6,-0x10(%rbp)
    cfd4:	7e af                	jle    cf85 <main+0xf4c>
    cfd6:	c7 45 f0 00 00 00 00 	movl   $0x0,-0x10(%rbp)
    cfdd:	e9 92 00 00 00       	jmpq   d074 <main+0x103b>
    cfe2:	c7 45 f4 00 00 00 00 	movl   $0x0,-0xc(%rbp)
    cfe9:	eb 7b                	jmp    d066 <main+0x102d>
    cfeb:	c7 45 f8 00 00 00 00 	movl   $0x0,-0x8(%rbp)
    cff2:	eb 68                	jmp    d05c <main+0x1023>
    cff4:	8b 45 f8             	mov    -0x8(%rbp),%eax
    cff7:	48 98                	cltq   
    cff9:	8b 55 f0             	mov    -0x10(%rbp),%edx
    cffc:	48 63 ca             	movslq %edx,%rcx
    cfff:	8b 55 f4             	mov    -0xc(%rbp),%edx
    d002:	48 63 d2             	movslq %edx,%rdx
    d005:	48 01 ca             	add    %rcx,%rdx
    d008:	48 01 d2             	add    %rdx,%rdx
    d00b:	48 01 d0             	add    %rdx,%rax
    d00e:	48 8d 14 85 00 00 00 	lea    0x0(,%rax,4),%rdx
    d015:	00 
    d016:	48 8d 05 43 10 00 00 	lea    0x1043(%rip),%rax        # e060 <g_1338>
    d01d:	8b 04 02             	mov    (%rdx,%rax,1),%eax
    d020:	89 c1                	mov    %eax,%ecx
    d022:	8b 45 fc             	mov    -0x4(%rbp),%eax
    d025:	89 c2                	mov    %eax,%edx
    d027:	48 8d 35 5f 27 00 00 	lea    0x275f(%rip),%rsi        # f78d <g_1338+0x172d>
    d02e:	48 89 cf             	mov    %rcx,%rdi
    d031:	e8 bd 96 ff ff       	callq  66f3 <transparent_crc>
    d036:	83 7d fc 00          	cmpl   $0x0,-0x4(%rbp)
    d03a:	74 1c                	je     d058 <main+0x101f>
    d03c:	8b 4d f8             	mov    -0x8(%rbp),%ecx
    d03f:	8b 55 f4             	mov    -0xc(%rbp),%edx
    d042:	8b 45 f0             	mov    -0x10(%rbp),%eax
    d045:	89 c6                	mov    %eax,%esi
    d047:	48 8d 3d 6c 25 00 00 	lea    0x256c(%rip),%rdi        # f5ba <g_1338+0x155a>
    d04e:	b8 00 00 00 00       	mov    $0x0,%eax
    d053:	e8 28 80 ff ff       	callq  5080 <printf@plt>
    d058:	83 45 f8 01          	addl   $0x1,-0x8(%rbp)
    d05c:	83 7d f8 01          	cmpl   $0x1,-0x8(%rbp)
    d060:	7e 92                	jle    cff4 <main+0xfbb>
    d062:	83 45 f4 01          	addl   $0x1,-0xc(%rbp)
    d066:	83 7d f4 00          	cmpl   $0x0,-0xc(%rbp)
    d06a:	0f 8e 7b ff ff ff    	jle    cfeb <main+0xfb2>
    d070:	83 45 f0 01          	addl   $0x1,-0x10(%rbp)
    d074:	83 7d f0 05          	cmpl   $0x5,-0x10(%rbp)
    d078:	0f 8e 64 ff ff ff    	jle    cfe2 <main+0xfa9>
    d07e:	c7 45 f0 00 00 00 00 	movl   $0x0,-0x10(%rbp)
    d085:	eb 77                	jmp    d0fe <main+0x10c5>
    d087:	c7 45 f4 00 00 00 00 	movl   $0x0,-0xc(%rbp)
    d08e:	eb 64                	jmp    d0f4 <main+0x10bb>
    d090:	8b 45 f4             	mov    -0xc(%rbp),%eax
    d093:	48 63 c8             	movslq %eax,%rcx
    d096:	8b 45 f0             	mov    -0x10(%rbp),%eax
    d099:	48 63 d0             	movslq %eax,%rdx
    d09c:	48 89 d0             	mov    %rdx,%rax
    d09f:	48 01 c0             	add    %rax,%rax
    d0a2:	48 01 d0             	add    %rdx,%rax
    d0a5:	48 01 c0             	add    %rax,%rax
    d0a8:	48 01 c8             	add    %rcx,%rax
    d0ab:	48 8d 14 85 00 00 00 	lea    0x0(,%rax,4),%rdx
    d0b2:	00 
    d0b3:	48 8d 05 66 5b 00 00 	lea    0x5b66(%rip),%rax        # 12c20 <g_1391>
    d0ba:	8b 04 02             	mov    (%rdx,%rax,1),%eax
    d0bd:	48 98                	cltq   
    d0bf:	8b 55 fc             	mov    -0x4(%rbp),%edx
    d0c2:	48 8d 35 d4 26 00 00 	lea    0x26d4(%rip),%rsi        # f79d <g_1338+0x173d>
    d0c9:	48 89 c7             	mov    %rax,%rdi
    d0cc:	e8 22 96 ff ff       	callq  66f3 <transparent_crc>
    d0d1:	83 7d fc 00          	cmpl   $0x0,-0x4(%rbp)
    d0d5:	74 19                	je     d0f0 <main+0x10b7>
    d0d7:	8b 55 f4             	mov    -0xc(%rbp),%edx
    d0da:	8b 45 f0             	mov    -0x10(%rbp),%eax
    d0dd:	89 c6                	mov    %eax,%esi
    d0df:	48 8d 3d 7b 23 00 00 	lea    0x237b(%rip),%rdi        # f461 <g_1338+0x1401>
    d0e6:	b8 00 00 00 00       	mov    $0x0,%eax
    d0eb:	e8 90 7f ff ff       	callq  5080 <printf@plt>
    d0f0:	83 45 f4 01          	addl   $0x1,-0xc(%rbp)
    d0f4:	83 7d f4 05          	cmpl   $0x5,-0xc(%rbp)
    d0f8:	7e 96                	jle    d090 <main+0x1057>
    d0fa:	83 45 f0 01          	addl   $0x1,-0x10(%rbp)
    d0fe:	83 7d f0 02          	cmpl   $0x2,-0x10(%rbp)
    d102:	7e 83                	jle    d087 <main+0x104e>
    d104:	48 8b 05 5d 5b 00 00 	mov    0x5b5d(%rip),%rax        # 12c68 <g_1398>
    d10b:	48 89 c1             	mov    %rax,%rcx
    d10e:	8b 45 fc             	mov    -0x4(%rbp),%eax
    d111:	89 c2                	mov    %eax,%edx
    d113:	48 8d 35 90 26 00 00 	lea    0x2690(%rip),%rsi        # f7aa <g_1338+0x174a>
    d11a:	48 89 cf             	mov    %rcx,%rdi
    d11d:	e8 d1 95 ff ff       	callq  66f3 <transparent_crc>
    d122:	8b 05 40 5b 00 00    	mov    0x5b40(%rip),%eax        # 12c68 <g_1398>
    d128:	89 c1                	mov    %eax,%ecx
    d12a:	8b 45 fc             	mov    -0x4(%rbp),%eax
    d12d:	89 c2                	mov    %eax,%edx
    d12f:	48 8d 35 7e 26 00 00 	lea    0x267e(%rip),%rsi        # f7b4 <g_1338+0x1754>
    d136:	48 89 cf             	mov    %rcx,%rdi
    d139:	e8 b5 95 ff ff       	callq  66f3 <transparent_crc>
    d13e:	0f b6 05 23 5b 00 00 	movzbl 0x5b23(%rip),%eax        # 12c68 <g_1398>
    d145:	48 0f be c0          	movsbq %al,%rax
    d149:	8b 55 fc             	mov    -0x4(%rbp),%edx
    d14c:	48 8d 35 6b 26 00 00 	lea    0x266b(%rip),%rsi        # f7be <g_1338+0x175e>
    d153:	48 89 c7             	mov    %rax,%rdi
    d156:	e8 98 95 ff ff       	callq  66f3 <transparent_crc>
    d15b:	0f b6 05 06 5b 00 00 	movzbl 0x5b06(%rip),%eax        # 12c68 <g_1398>
    d162:	48 0f be c0          	movsbq %al,%rax
    d166:	8b 55 fc             	mov    -0x4(%rbp),%edx
    d169:	48 8d 35 58 26 00 00 	lea    0x2658(%rip),%rsi        # f7c8 <g_1338+0x1768>
    d170:	48 89 c7             	mov    %rax,%rdi
    d173:	e8 7b 95 ff ff       	callq  66f3 <transparent_crc>
    d178:	8b 05 ea 5a 00 00    	mov    0x5aea(%rip),%eax        # 12c68 <g_1398>
    d17e:	48 98                	cltq   
    d180:	8b 55 fc             	mov    -0x4(%rbp),%edx
    d183:	48 8d 35 48 26 00 00 	lea    0x2648(%rip),%rsi        # f7d2 <g_1338+0x1772>
    d18a:	48 89 c7             	mov    %rax,%rdi
    d18d:	e8 61 95 ff ff       	callq  66f3 <transparent_crc>
    d192:	8b 05 88 4e 00 00    	mov    0x4e88(%rip),%eax        # 12020 <crc32_context>
    d198:	f7 d0                	not    %eax
    d19a:	89 c2                	mov    %eax,%edx
    d19c:	8b 45 fc             	mov    -0x4(%rbp),%eax
    d19f:	89 c6                	mov    %eax,%esi
    d1a1:	89 d7                	mov    %edx,%edi
    d1a3:	e8 ec 7f ff ff       	callq  5194 <platform_main_end>
    d1a8:	b8 00 00 00 00       	mov    $0x0,%eax
    d1ad:	c9                   	leaveq 
    d1ae:	c3                   	retq   
    d1af:	90                   	nop

000000000000d1b0 <__libc_csu_init>:
    d1b0:	f3 0f 1e fa          	endbr64 
    d1b4:	41 57                	push   %r15
    d1b6:	4c 8d 3d 33 49 00 00 	lea    0x4933(%rip),%r15        # 11af0 <__frame_dummy_init_array_entry>
    d1bd:	41 56                	push   %r14
    d1bf:	49 89 d6             	mov    %rdx,%r14
    d1c2:	41 55                	push   %r13
    d1c4:	49 89 f5             	mov    %rsi,%r13
    d1c7:	41 54                	push   %r12
    d1c9:	41 89 fc             	mov    %edi,%r12d
    d1cc:	55                   	push   %rbp
    d1cd:	48 8d 2d 24 49 00 00 	lea    0x4924(%rip),%rbp        # 11af8 <__do_global_dtors_aux_fini_array_entry>
    d1d4:	53                   	push   %rbx
    d1d5:	4c 29 fd             	sub    %r15,%rbp
    d1d8:	48 83 ec 08          	sub    $0x8,%rsp
    d1dc:	e8 1f 7e ff ff       	callq  5000 <_init>
    d1e1:	48 c1 fd 03          	sar    $0x3,%rbp
    d1e5:	74 1f                	je     d206 <__libc_csu_init+0x56>
    d1e7:	31 db                	xor    %ebx,%ebx
    d1e9:	0f 1f 80 00 00 00 00 	nopl   0x0(%rax)
    d1f0:	4c 89 f2             	mov    %r14,%rdx
    d1f3:	4c 89 ee             	mov    %r13,%rsi
    d1f6:	44 89 e7             	mov    %r12d,%edi
    d1f9:	41 ff 14 df          	callq  *(%r15,%rbx,8)
    d1fd:	48 83 c3 01          	add    $0x1,%rbx
    d201:	48 39 dd             	cmp    %rbx,%rbp
    d204:	75 ea                	jne    d1f0 <__libc_csu_init+0x40>
    d206:	48 83 c4 08          	add    $0x8,%rsp
    d20a:	5b                   	pop    %rbx
    d20b:	5d                   	pop    %rbp
    d20c:	41 5c                	pop    %r12
    d20e:	41 5d                	pop    %r13
    d210:	41 5e                	pop    %r14
    d212:	41 5f                	pop    %r15
    d214:	c3                   	retq   
    d215:	66 66 2e 0f 1f 84 00 	data16 nopw %cs:0x0(%rax,%rax,1)
    d21c:	00 00 00 00 

000000000000d220 <__libc_csu_fini>:
    d220:	f3 0f 1e fa          	endbr64 
    d224:	c3                   	retq   
