


Disassembly of section .text:

000000000000a0a0 <_start>:
    a0a0:	f3 0f 1e fa          	endbr64 
    a0a4:	31 ed                	xor    %ebp,%ebp
    a0a6:	49 89 d1             	mov    %rdx,%r9
    a0a9:	5e                   	pop    %rsi
    a0aa:	48 89 e2             	mov    %rsp,%rdx
    a0ad:	48 83 e4 f0          	and    $0xfffffffffffffff0,%rsp
    a0b1:	50                   	push   %rax
    a0b2:	54                   	push   %rsp
    a0b3:	4c 8d 05 a6 10 01 00 	lea    0x110a6(%rip),%r8        # 1b160 <__libc_csu_fini>
    a0ba:	48 8d 0d 2f 10 01 00 	lea    0x1102f(%rip),%rcx        # 1b0f0 <__libc_csu_init>
    a0c1:	48 8d 3d 4d 05 01 00 	lea    0x1054d(%rip),%rdi        # 1a615 <main>
    a0c8:	ff 15 fa 6e 01 00    	callq  *0x16efa(%rip)        # 20fc8 <__libc_start_main@GLIBC_2.2.5>
    a0ce:	f4                   	hlt    
    a0cf:	90                   	nop

000000000000a0d0 <deregister_tm_clones>:
    a0d0:	48 8d 3d 41 a5 01 00 	lea    0x1a541(%rip),%rdi        # 24618 <__TMC_END__>
    a0d7:	48 8d 05 3a a5 01 00 	lea    0x1a53a(%rip),%rax        # 24618 <__TMC_END__>
    a0de:	48 39 f8             	cmp    %rdi,%rax
    a0e1:	74 15                	je     a0f8 <deregister_tm_clones+0x28>
    a0e3:	48 8b 05 d6 6e 01 00 	mov    0x16ed6(%rip),%rax        # 20fc0 <_ITM_deregisterTMCloneTable>
    a0ea:	48 85 c0             	test   %rax,%rax
    a0ed:	74 09                	je     a0f8 <deregister_tm_clones+0x28>
    a0ef:	ff e0                	jmpq   *%rax
    a0f1:	0f 1f 80 00 00 00 00 	nopl   0x0(%rax)
    a0f8:	c3                   	retq   
    a0f9:	0f 1f 80 00 00 00 00 	nopl   0x0(%rax)

000000000000a100 <register_tm_clones>:
    a100:	48 8d 3d 11 a5 01 00 	lea    0x1a511(%rip),%rdi        # 24618 <__TMC_END__>
    a107:	48 8d 35 0a a5 01 00 	lea    0x1a50a(%rip),%rsi        # 24618 <__TMC_END__>
    a10e:	48 29 fe             	sub    %rdi,%rsi
    a111:	48 89 f0             	mov    %rsi,%rax
    a114:	48 c1 ee 3f          	shr    $0x3f,%rsi
    a118:	48 c1 f8 03          	sar    $0x3,%rax
    a11c:	48 01 c6             	add    %rax,%rsi
    a11f:	48 d1 fe             	sar    %rsi
    a122:	74 14                	je     a138 <register_tm_clones+0x38>
    a124:	48 8b 05 ad 6e 01 00 	mov    0x16ead(%rip),%rax        # 20fd8 <_ITM_registerTMCloneTable>
    a12b:	48 85 c0             	test   %rax,%rax
    a12e:	74 08                	je     a138 <register_tm_clones+0x38>
    a130:	ff e0                	jmpq   *%rax
    a132:	66 0f 1f 44 00 00    	nopw   0x0(%rax,%rax,1)
    a138:	c3                   	retq   
    a139:	0f 1f 80 00 00 00 00 	nopl   0x0(%rax)

000000000000a140 <__do_global_dtors_aux>:
    a140:	f3 0f 1e fa          	endbr64 
    a144:	80 3d d5 a4 01 00 00 	cmpb   $0x0,0x1a4d5(%rip)        # 24620 <completed.8061>
    a14b:	75 2b                	jne    a178 <__do_global_dtors_aux+0x38>
    a14d:	55                   	push   %rbp
    a14e:	48 83 3d 8a 6e 01 00 	cmpq   $0x0,0x16e8a(%rip)        # 20fe0 <__cxa_finalize@GLIBC_2.2.5>
    a155:	00 
    a156:	48 89 e5             	mov    %rsp,%rbp
    a159:	74 0c                	je     a167 <__do_global_dtors_aux+0x27>
    a15b:	48 8b 3d a6 6e 01 00 	mov    0x16ea6(%rip),%rdi        # 21008 <__dso_handle>
    a162:	e8 f9 fe ff ff       	callq  a060 <__cxa_finalize@plt>
    a167:	e8 64 ff ff ff       	callq  a0d0 <deregister_tm_clones>
    a16c:	c6 05 ad a4 01 00 01 	movb   $0x1,0x1a4ad(%rip)        # 24620 <completed.8061>
    a173:	5d                   	pop    %rbp
    a174:	c3                   	retq   
    a175:	0f 1f 00             	nopl   (%rax)
    a178:	c3                   	retq   
    a179:	0f 1f 80 00 00 00 00 	nopl   0x0(%rax)

000000000000a180 <frame_dummy>:
    a180:	f3 0f 1e fa          	endbr64 
    a184:	e9 77 ff ff ff       	jmpq   a100 <register_tm_clones>

000000000000a189 <platform_main_begin>:
    a189:	f3 0f 1e fa          	endbr64 
    a18d:	55                   	push   %rbp
    a18e:	48 89 e5             	mov    %rsp,%rbp
    a191:	90                   	nop
    a192:	5d                   	pop    %rbp
    a193:	c3                   	retq   

000000000000a194 <platform_main_end>:
    a194:	f3 0f 1e fa          	endbr64 
    a198:	55                   	push   %rbp
    a199:	48 89 e5             	mov    %rsp,%rbp
    a19c:	48 83 ec 10          	sub    $0x10,%rsp
    a1a0:	89 7d fc             	mov    %edi,-0x4(%rbp)
    a1a3:	89 75 f8             	mov    %esi,-0x8(%rbp)
    a1a6:	8b 45 fc             	mov    -0x4(%rbp),%eax
    a1a9:	89 c6                	mov    %eax,%esi
    a1ab:	48 8d 3d 6e 1e 01 00 	lea    0x11e6e(%rip),%rdi        # 1c020 <_IO_stdin_used+0x20>
    a1b2:	b8 00 00 00 00       	mov    $0x0,%eax
    a1b7:	e8 c4 fe ff ff       	callq  a080 <printf@plt>
    a1bc:	90                   	nop
    a1bd:	c9                   	leaveq 
    a1be:	c3                   	retq   

000000000000a1bf <safe_unary_minus_func_int8_t_s>:
    a1bf:	f3 0f 1e fa          	endbr64 
    a1c3:	55                   	push   %rbp
    a1c4:	48 89 e5             	mov    %rsp,%rbp
    a1c7:	89 f8                	mov    %edi,%eax
    a1c9:	88 45 fc             	mov    %al,-0x4(%rbp)
    a1cc:	0f b6 45 fc          	movzbl -0x4(%rbp),%eax
    a1d0:	f7 d8                	neg    %eax
    a1d2:	5d                   	pop    %rbp
    a1d3:	c3                   	retq   

000000000000a1d4 <safe_add_func_int8_t_s_s>:
    a1d4:	f3 0f 1e fa          	endbr64 
    a1d8:	55                   	push   %rbp
    a1d9:	48 89 e5             	mov    %rsp,%rbp
    a1dc:	89 fa                	mov    %edi,%edx
    a1de:	89 f0                	mov    %esi,%eax
    a1e0:	88 55 fc             	mov    %dl,-0x4(%rbp)
    a1e3:	88 45 f8             	mov    %al,-0x8(%rbp)
    a1e6:	0f b6 55 fc          	movzbl -0x4(%rbp),%edx
    a1ea:	0f b6 45 f8          	movzbl -0x8(%rbp),%eax
    a1ee:	01 d0                	add    %edx,%eax
    a1f0:	5d                   	pop    %rbp
    a1f1:	c3                   	retq   

000000000000a1f2 <safe_sub_func_int8_t_s_s>:
    a1f2:	f3 0f 1e fa          	endbr64 
    a1f6:	55                   	push   %rbp
    a1f7:	48 89 e5             	mov    %rsp,%rbp
    a1fa:	89 fa                	mov    %edi,%edx
    a1fc:	89 f0                	mov    %esi,%eax
    a1fe:	88 55 fc             	mov    %dl,-0x4(%rbp)
    a201:	88 45 f8             	mov    %al,-0x8(%rbp)
    a204:	0f b6 55 fc          	movzbl -0x4(%rbp),%edx
    a208:	0f b6 45 f8          	movzbl -0x8(%rbp),%eax
    a20c:	29 c2                	sub    %eax,%edx
    a20e:	89 d0                	mov    %edx,%eax
    a210:	5d                   	pop    %rbp
    a211:	c3                   	retq   

000000000000a212 <safe_mul_func_int8_t_s_s>:
    a212:	f3 0f 1e fa          	endbr64 
    a216:	55                   	push   %rbp
    a217:	48 89 e5             	mov    %rsp,%rbp
    a21a:	89 fa                	mov    %edi,%edx
    a21c:	89 f0                	mov    %esi,%eax
    a21e:	88 55 fc             	mov    %dl,-0x4(%rbp)
    a221:	88 45 f8             	mov    %al,-0x8(%rbp)
    a224:	0f b6 45 fc          	movzbl -0x4(%rbp),%eax
    a228:	0f b6 55 f8          	movzbl -0x8(%rbp),%edx
    a22c:	0f af c2             	imul   %edx,%eax
    a22f:	5d                   	pop    %rbp
    a230:	c3                   	retq   

000000000000a231 <safe_mod_func_int8_t_s_s>:
    a231:	f3 0f 1e fa          	endbr64 
    a235:	55                   	push   %rbp
    a236:	48 89 e5             	mov    %rsp,%rbp
    a239:	89 fa                	mov    %edi,%edx
    a23b:	89 f0                	mov    %esi,%eax
    a23d:	88 55 fc             	mov    %dl,-0x4(%rbp)
    a240:	88 45 f8             	mov    %al,-0x8(%rbp)
    a243:	80 7d f8 00          	cmpb   $0x0,-0x8(%rbp)
    a247:	74 1b                	je     a264 <safe_mod_func_int8_t_s_s+0x33>
    a249:	80 7d fc 80          	cmpb   $0x80,-0x4(%rbp)
    a24d:	75 06                	jne    a255 <safe_mod_func_int8_t_s_s+0x24>
    a24f:	80 7d f8 ff          	cmpb   $0xff,-0x8(%rbp)
    a253:	74 0f                	je     a264 <safe_mod_func_int8_t_s_s+0x33>
    a255:	0f be 45 fc          	movsbl -0x4(%rbp),%eax
    a259:	0f be 4d f8          	movsbl -0x8(%rbp),%ecx
    a25d:	99                   	cltd   
    a25e:	f7 f9                	idiv   %ecx
    a260:	89 d0                	mov    %edx,%eax
    a262:	eb 04                	jmp    a268 <safe_mod_func_int8_t_s_s+0x37>
    a264:	0f b6 45 fc          	movzbl -0x4(%rbp),%eax
    a268:	5d                   	pop    %rbp
    a269:	c3                   	retq   

000000000000a26a <safe_div_func_int8_t_s_s>:
    a26a:	f3 0f 1e fa          	endbr64 
    a26e:	55                   	push   %rbp
    a26f:	48 89 e5             	mov    %rsp,%rbp
    a272:	89 fa                	mov    %edi,%edx
    a274:	89 f0                	mov    %esi,%eax
    a276:	88 55 fc             	mov    %dl,-0x4(%rbp)
    a279:	88 45 f8             	mov    %al,-0x8(%rbp)
    a27c:	80 7d f8 00          	cmpb   $0x0,-0x8(%rbp)
    a280:	74 19                	je     a29b <safe_div_func_int8_t_s_s+0x31>
    a282:	80 7d fc 80          	cmpb   $0x80,-0x4(%rbp)
    a286:	75 06                	jne    a28e <safe_div_func_int8_t_s_s+0x24>
    a288:	80 7d f8 ff          	cmpb   $0xff,-0x8(%rbp)
    a28c:	74 0d                	je     a29b <safe_div_func_int8_t_s_s+0x31>
    a28e:	0f be 45 fc          	movsbl -0x4(%rbp),%eax
    a292:	0f be 4d f8          	movsbl -0x8(%rbp),%ecx
    a296:	99                   	cltd   
    a297:	f7 f9                	idiv   %ecx
    a299:	eb 04                	jmp    a29f <safe_div_func_int8_t_s_s+0x35>
    a29b:	0f b6 45 fc          	movzbl -0x4(%rbp),%eax
    a29f:	5d                   	pop    %rbp
    a2a0:	c3                   	retq   

000000000000a2a1 <safe_lshift_func_int8_t_s_s>:
    a2a1:	f3 0f 1e fa          	endbr64 
    a2a5:	55                   	push   %rbp
    a2a6:	48 89 e5             	mov    %rsp,%rbp
    a2a9:	89 f8                	mov    %edi,%eax
    a2ab:	89 75 f8             	mov    %esi,-0x8(%rbp)
    a2ae:	88 45 fc             	mov    %al,-0x4(%rbp)
    a2b1:	80 7d fc 00          	cmpb   $0x0,-0x4(%rbp)
    a2b5:	78 31                	js     a2e8 <safe_lshift_func_int8_t_s_s+0x47>
    a2b7:	83 7d f8 00          	cmpl   $0x0,-0x8(%rbp)
    a2bb:	78 2b                	js     a2e8 <safe_lshift_func_int8_t_s_s+0x47>
    a2bd:	83 7d f8 1f          	cmpl   $0x1f,-0x8(%rbp)
    a2c1:	7f 25                	jg     a2e8 <safe_lshift_func_int8_t_s_s+0x47>
    a2c3:	0f be 55 fc          	movsbl -0x4(%rbp),%edx
    a2c7:	8b 45 f8             	mov    -0x8(%rbp),%eax
    a2ca:	be 7f 00 00 00       	mov    $0x7f,%esi
    a2cf:	89 c1                	mov    %eax,%ecx
    a2d1:	d3 fe                	sar    %cl,%esi
    a2d3:	89 f0                	mov    %esi,%eax
    a2d5:	39 c2                	cmp    %eax,%edx
    a2d7:	7f 0f                	jg     a2e8 <safe_lshift_func_int8_t_s_s+0x47>
    a2d9:	0f be 55 fc          	movsbl -0x4(%rbp),%edx
    a2dd:	8b 45 f8             	mov    -0x8(%rbp),%eax
    a2e0:	89 c1                	mov    %eax,%ecx
    a2e2:	d3 e2                	shl    %cl,%edx
    a2e4:	89 d0                	mov    %edx,%eax
    a2e6:	eb 04                	jmp    a2ec <safe_lshift_func_int8_t_s_s+0x4b>
    a2e8:	0f b6 45 fc          	movzbl -0x4(%rbp),%eax
    a2ec:	5d                   	pop    %rbp
    a2ed:	c3                   	retq   

000000000000a2ee <safe_lshift_func_int8_t_s_u>:
    a2ee:	f3 0f 1e fa          	endbr64 
    a2f2:	55                   	push   %rbp
    a2f3:	48 89 e5             	mov    %rsp,%rbp
    a2f6:	89 f8                	mov    %edi,%eax
    a2f8:	89 75 f8             	mov    %esi,-0x8(%rbp)
    a2fb:	88 45 fc             	mov    %al,-0x4(%rbp)
    a2fe:	80 7d fc 00          	cmpb   $0x0,-0x4(%rbp)
    a302:	78 2b                	js     a32f <safe_lshift_func_int8_t_s_u+0x41>
    a304:	83 7d f8 1f          	cmpl   $0x1f,-0x8(%rbp)
    a308:	77 25                	ja     a32f <safe_lshift_func_int8_t_s_u+0x41>
    a30a:	0f be 55 fc          	movsbl -0x4(%rbp),%edx
    a30e:	8b 45 f8             	mov    -0x8(%rbp),%eax
    a311:	be 7f 00 00 00       	mov    $0x7f,%esi
    a316:	89 c1                	mov    %eax,%ecx
    a318:	d3 fe                	sar    %cl,%esi
    a31a:	89 f0                	mov    %esi,%eax
    a31c:	39 c2                	cmp    %eax,%edx
    a31e:	7f 0f                	jg     a32f <safe_lshift_func_int8_t_s_u+0x41>
    a320:	0f be 55 fc          	movsbl -0x4(%rbp),%edx
    a324:	8b 45 f8             	mov    -0x8(%rbp),%eax
    a327:	89 c1                	mov    %eax,%ecx
    a329:	d3 e2                	shl    %cl,%edx
    a32b:	89 d0                	mov    %edx,%eax
    a32d:	eb 04                	jmp    a333 <safe_lshift_func_int8_t_s_u+0x45>
    a32f:	0f b6 45 fc          	movzbl -0x4(%rbp),%eax
    a333:	5d                   	pop    %rbp
    a334:	c3                   	retq   

000000000000a335 <safe_rshift_func_int8_t_s_s>:
    a335:	f3 0f 1e fa          	endbr64 
    a339:	55                   	push   %rbp
    a33a:	48 89 e5             	mov    %rsp,%rbp
    a33d:	89 f8                	mov    %edi,%eax
    a33f:	89 75 f8             	mov    %esi,-0x8(%rbp)
    a342:	88 45 fc             	mov    %al,-0x4(%rbp)
    a345:	80 7d fc 00          	cmpb   $0x0,-0x4(%rbp)
    a349:	78 1b                	js     a366 <safe_rshift_func_int8_t_s_s+0x31>
    a34b:	83 7d f8 00          	cmpl   $0x0,-0x8(%rbp)
    a34f:	78 15                	js     a366 <safe_rshift_func_int8_t_s_s+0x31>
    a351:	83 7d f8 1f          	cmpl   $0x1f,-0x8(%rbp)
    a355:	7f 0f                	jg     a366 <safe_rshift_func_int8_t_s_s+0x31>
    a357:	0f be 55 fc          	movsbl -0x4(%rbp),%edx
    a35b:	8b 45 f8             	mov    -0x8(%rbp),%eax
    a35e:	89 c1                	mov    %eax,%ecx
    a360:	d3 fa                	sar    %cl,%edx
    a362:	89 d0                	mov    %edx,%eax
    a364:	eb 04                	jmp    a36a <safe_rshift_func_int8_t_s_s+0x35>
    a366:	0f b6 45 fc          	movzbl -0x4(%rbp),%eax
    a36a:	5d                   	pop    %rbp
    a36b:	c3                   	retq   

000000000000a36c <safe_rshift_func_int8_t_s_u>:
    a36c:	f3 0f 1e fa          	endbr64 
    a370:	55                   	push   %rbp
    a371:	48 89 e5             	mov    %rsp,%rbp
    a374:	89 f8                	mov    %edi,%eax
    a376:	89 75 f8             	mov    %esi,-0x8(%rbp)
    a379:	88 45 fc             	mov    %al,-0x4(%rbp)
    a37c:	80 7d fc 00          	cmpb   $0x0,-0x4(%rbp)
    a380:	78 15                	js     a397 <safe_rshift_func_int8_t_s_u+0x2b>
    a382:	83 7d f8 1f          	cmpl   $0x1f,-0x8(%rbp)
    a386:	77 0f                	ja     a397 <safe_rshift_func_int8_t_s_u+0x2b>
    a388:	0f be 55 fc          	movsbl -0x4(%rbp),%edx
    a38c:	8b 45 f8             	mov    -0x8(%rbp),%eax
    a38f:	89 c1                	mov    %eax,%ecx
    a391:	d3 fa                	sar    %cl,%edx
    a393:	89 d0                	mov    %edx,%eax
    a395:	eb 04                	jmp    a39b <safe_rshift_func_int8_t_s_u+0x2f>
    a397:	0f b6 45 fc          	movzbl -0x4(%rbp),%eax
    a39b:	5d                   	pop    %rbp
    a39c:	c3                   	retq   

000000000000a39d <safe_unary_minus_func_int16_t_s>:
    a39d:	f3 0f 1e fa          	endbr64 
    a3a1:	55                   	push   %rbp
    a3a2:	48 89 e5             	mov    %rsp,%rbp
    a3a5:	89 f8                	mov    %edi,%eax
    a3a7:	66 89 45 fc          	mov    %ax,-0x4(%rbp)
    a3ab:	0f b7 45 fc          	movzwl -0x4(%rbp),%eax
    a3af:	f7 d8                	neg    %eax
    a3b1:	5d                   	pop    %rbp
    a3b2:	c3                   	retq   

000000000000a3b3 <safe_add_func_int16_t_s_s>:
    a3b3:	f3 0f 1e fa          	endbr64 
    a3b7:	55                   	push   %rbp
    a3b8:	48 89 e5             	mov    %rsp,%rbp
    a3bb:	89 fa                	mov    %edi,%edx
    a3bd:	89 f0                	mov    %esi,%eax
    a3bf:	66 89 55 fc          	mov    %dx,-0x4(%rbp)
    a3c3:	66 89 45 f8          	mov    %ax,-0x8(%rbp)
    a3c7:	0f b7 55 fc          	movzwl -0x4(%rbp),%edx
    a3cb:	0f b7 45 f8          	movzwl -0x8(%rbp),%eax
    a3cf:	01 d0                	add    %edx,%eax
    a3d1:	5d                   	pop    %rbp
    a3d2:	c3                   	retq   

000000000000a3d3 <safe_sub_func_int16_t_s_s>:
    a3d3:	f3 0f 1e fa          	endbr64 
    a3d7:	55                   	push   %rbp
    a3d8:	48 89 e5             	mov    %rsp,%rbp
    a3db:	89 fa                	mov    %edi,%edx
    a3dd:	89 f0                	mov    %esi,%eax
    a3df:	66 89 55 fc          	mov    %dx,-0x4(%rbp)
    a3e3:	66 89 45 f8          	mov    %ax,-0x8(%rbp)
    a3e7:	0f b7 55 fc          	movzwl -0x4(%rbp),%edx
    a3eb:	0f b7 45 f8          	movzwl -0x8(%rbp),%eax
    a3ef:	29 c2                	sub    %eax,%edx
    a3f1:	89 d0                	mov    %edx,%eax
    a3f3:	5d                   	pop    %rbp
    a3f4:	c3                   	retq   

000000000000a3f5 <safe_mul_func_int16_t_s_s>:
    a3f5:	f3 0f 1e fa          	endbr64 
    a3f9:	55                   	push   %rbp
    a3fa:	48 89 e5             	mov    %rsp,%rbp
    a3fd:	89 fa                	mov    %edi,%edx
    a3ff:	89 f0                	mov    %esi,%eax
    a401:	66 89 55 fc          	mov    %dx,-0x4(%rbp)
    a405:	66 89 45 f8          	mov    %ax,-0x8(%rbp)
    a409:	0f b7 55 fc          	movzwl -0x4(%rbp),%edx
    a40d:	0f b7 45 f8          	movzwl -0x8(%rbp),%eax
    a411:	0f af c2             	imul   %edx,%eax
    a414:	5d                   	pop    %rbp
    a415:	c3                   	retq   

000000000000a416 <safe_mod_func_int16_t_s_s>:
    a416:	f3 0f 1e fa          	endbr64 
    a41a:	55                   	push   %rbp
    a41b:	48 89 e5             	mov    %rsp,%rbp
    a41e:	89 fa                	mov    %edi,%edx
    a420:	89 f0                	mov    %esi,%eax
    a422:	66 89 55 fc          	mov    %dx,-0x4(%rbp)
    a426:	66 89 45 f8          	mov    %ax,-0x8(%rbp)
    a42a:	66 83 7d f8 00       	cmpw   $0x0,-0x8(%rbp)
    a42f:	74 1e                	je     a44f <safe_mod_func_int16_t_s_s+0x39>
    a431:	66 81 7d fc 00 80    	cmpw   $0x8000,-0x4(%rbp)
    a437:	75 07                	jne    a440 <safe_mod_func_int16_t_s_s+0x2a>
    a439:	66 83 7d f8 ff       	cmpw   $0xffff,-0x8(%rbp)
    a43e:	74 0f                	je     a44f <safe_mod_func_int16_t_s_s+0x39>
    a440:	0f bf 45 fc          	movswl -0x4(%rbp),%eax
    a444:	0f bf 4d f8          	movswl -0x8(%rbp),%ecx
    a448:	99                   	cltd   
    a449:	f7 f9                	idiv   %ecx
    a44b:	89 d0                	mov    %edx,%eax
    a44d:	eb 04                	jmp    a453 <safe_mod_func_int16_t_s_s+0x3d>
    a44f:	0f b7 45 fc          	movzwl -0x4(%rbp),%eax
    a453:	5d                   	pop    %rbp
    a454:	c3                   	retq   

000000000000a455 <safe_div_func_int16_t_s_s>:
    a455:	f3 0f 1e fa          	endbr64 
    a459:	55                   	push   %rbp
    a45a:	48 89 e5             	mov    %rsp,%rbp
    a45d:	89 fa                	mov    %edi,%edx
    a45f:	89 f0                	mov    %esi,%eax
    a461:	66 89 55 fc          	mov    %dx,-0x4(%rbp)
    a465:	66 89 45 f8          	mov    %ax,-0x8(%rbp)
    a469:	66 83 7d f8 00       	cmpw   $0x0,-0x8(%rbp)
    a46e:	74 1c                	je     a48c <safe_div_func_int16_t_s_s+0x37>
    a470:	66 81 7d fc 00 80    	cmpw   $0x8000,-0x4(%rbp)
    a476:	75 07                	jne    a47f <safe_div_func_int16_t_s_s+0x2a>
    a478:	66 83 7d f8 ff       	cmpw   $0xffff,-0x8(%rbp)
    a47d:	74 0d                	je     a48c <safe_div_func_int16_t_s_s+0x37>
    a47f:	0f bf 45 fc          	movswl -0x4(%rbp),%eax
    a483:	0f bf 4d f8          	movswl -0x8(%rbp),%ecx
    a487:	99                   	cltd   
    a488:	f7 f9                	idiv   %ecx
    a48a:	eb 04                	jmp    a490 <safe_div_func_int16_t_s_s+0x3b>
    a48c:	0f b7 45 fc          	movzwl -0x4(%rbp),%eax
    a490:	5d                   	pop    %rbp
    a491:	c3                   	retq   

000000000000a492 <safe_lshift_func_int16_t_s_s>:
    a492:	f3 0f 1e fa          	endbr64 
    a496:	55                   	push   %rbp
    a497:	48 89 e5             	mov    %rsp,%rbp
    a49a:	89 f8                	mov    %edi,%eax
    a49c:	89 75 f8             	mov    %esi,-0x8(%rbp)
    a49f:	66 89 45 fc          	mov    %ax,-0x4(%rbp)
    a4a3:	66 83 7d fc 00       	cmpw   $0x0,-0x4(%rbp)
    a4a8:	78 31                	js     a4db <safe_lshift_func_int16_t_s_s+0x49>
    a4aa:	83 7d f8 00          	cmpl   $0x0,-0x8(%rbp)
    a4ae:	78 2b                	js     a4db <safe_lshift_func_int16_t_s_s+0x49>
    a4b0:	83 7d f8 1f          	cmpl   $0x1f,-0x8(%rbp)
    a4b4:	7f 25                	jg     a4db <safe_lshift_func_int16_t_s_s+0x49>
    a4b6:	0f bf 55 fc          	movswl -0x4(%rbp),%edx
    a4ba:	8b 45 f8             	mov    -0x8(%rbp),%eax
    a4bd:	be ff 7f 00 00       	mov    $0x7fff,%esi
    a4c2:	89 c1                	mov    %eax,%ecx
    a4c4:	d3 fe                	sar    %cl,%esi
    a4c6:	89 f0                	mov    %esi,%eax
    a4c8:	39 c2                	cmp    %eax,%edx
    a4ca:	7f 0f                	jg     a4db <safe_lshift_func_int16_t_s_s+0x49>
    a4cc:	0f bf 55 fc          	movswl -0x4(%rbp),%edx
    a4d0:	8b 45 f8             	mov    -0x8(%rbp),%eax
    a4d3:	89 c1                	mov    %eax,%ecx
    a4d5:	d3 e2                	shl    %cl,%edx
    a4d7:	89 d0                	mov    %edx,%eax
    a4d9:	eb 04                	jmp    a4df <safe_lshift_func_int16_t_s_s+0x4d>
    a4db:	0f b7 45 fc          	movzwl -0x4(%rbp),%eax
    a4df:	5d                   	pop    %rbp
    a4e0:	c3                   	retq   

000000000000a4e1 <safe_lshift_func_int16_t_s_u>:
    a4e1:	f3 0f 1e fa          	endbr64 
    a4e5:	55                   	push   %rbp
    a4e6:	48 89 e5             	mov    %rsp,%rbp
    a4e9:	89 f8                	mov    %edi,%eax
    a4eb:	89 75 f8             	mov    %esi,-0x8(%rbp)
    a4ee:	66 89 45 fc          	mov    %ax,-0x4(%rbp)
    a4f2:	66 83 7d fc 00       	cmpw   $0x0,-0x4(%rbp)
    a4f7:	78 2b                	js     a524 <safe_lshift_func_int16_t_s_u+0x43>
    a4f9:	83 7d f8 1f          	cmpl   $0x1f,-0x8(%rbp)
    a4fd:	77 25                	ja     a524 <safe_lshift_func_int16_t_s_u+0x43>
    a4ff:	0f bf 55 fc          	movswl -0x4(%rbp),%edx
    a503:	8b 45 f8             	mov    -0x8(%rbp),%eax
    a506:	be ff 7f 00 00       	mov    $0x7fff,%esi
    a50b:	89 c1                	mov    %eax,%ecx
    a50d:	d3 fe                	sar    %cl,%esi
    a50f:	89 f0                	mov    %esi,%eax
    a511:	39 c2                	cmp    %eax,%edx
    a513:	7f 0f                	jg     a524 <safe_lshift_func_int16_t_s_u+0x43>
    a515:	0f bf 55 fc          	movswl -0x4(%rbp),%edx
    a519:	8b 45 f8             	mov    -0x8(%rbp),%eax
    a51c:	89 c1                	mov    %eax,%ecx
    a51e:	d3 e2                	shl    %cl,%edx
    a520:	89 d0                	mov    %edx,%eax
    a522:	eb 04                	jmp    a528 <safe_lshift_func_int16_t_s_u+0x47>
    a524:	0f b7 45 fc          	movzwl -0x4(%rbp),%eax
    a528:	5d                   	pop    %rbp
    a529:	c3                   	retq   

000000000000a52a <safe_rshift_func_int16_t_s_s>:
    a52a:	f3 0f 1e fa          	endbr64 
    a52e:	55                   	push   %rbp
    a52f:	48 89 e5             	mov    %rsp,%rbp
    a532:	89 f8                	mov    %edi,%eax
    a534:	89 75 f8             	mov    %esi,-0x8(%rbp)
    a537:	66 89 45 fc          	mov    %ax,-0x4(%rbp)
    a53b:	66 83 7d fc 00       	cmpw   $0x0,-0x4(%rbp)
    a540:	78 1b                	js     a55d <safe_rshift_func_int16_t_s_s+0x33>
    a542:	83 7d f8 00          	cmpl   $0x0,-0x8(%rbp)
    a546:	78 15                	js     a55d <safe_rshift_func_int16_t_s_s+0x33>
    a548:	83 7d f8 1f          	cmpl   $0x1f,-0x8(%rbp)
    a54c:	7f 0f                	jg     a55d <safe_rshift_func_int16_t_s_s+0x33>
    a54e:	0f bf 55 fc          	movswl -0x4(%rbp),%edx
    a552:	8b 45 f8             	mov    -0x8(%rbp),%eax
    a555:	89 c1                	mov    %eax,%ecx
    a557:	d3 fa                	sar    %cl,%edx
    a559:	89 d0                	mov    %edx,%eax
    a55b:	eb 04                	jmp    a561 <safe_rshift_func_int16_t_s_s+0x37>
    a55d:	0f b7 45 fc          	movzwl -0x4(%rbp),%eax
    a561:	5d                   	pop    %rbp
    a562:	c3                   	retq   

000000000000a563 <safe_rshift_func_int16_t_s_u>:
    a563:	f3 0f 1e fa          	endbr64 
    a567:	55                   	push   %rbp
    a568:	48 89 e5             	mov    %rsp,%rbp
    a56b:	89 f8                	mov    %edi,%eax
    a56d:	89 75 f8             	mov    %esi,-0x8(%rbp)
    a570:	66 89 45 fc          	mov    %ax,-0x4(%rbp)
    a574:	66 83 7d fc 00       	cmpw   $0x0,-0x4(%rbp)
    a579:	78 15                	js     a590 <safe_rshift_func_int16_t_s_u+0x2d>
    a57b:	83 7d f8 1f          	cmpl   $0x1f,-0x8(%rbp)
    a57f:	77 0f                	ja     a590 <safe_rshift_func_int16_t_s_u+0x2d>
    a581:	0f bf 55 fc          	movswl -0x4(%rbp),%edx
    a585:	8b 45 f8             	mov    -0x8(%rbp),%eax
    a588:	89 c1                	mov    %eax,%ecx
    a58a:	d3 fa                	sar    %cl,%edx
    a58c:	89 d0                	mov    %edx,%eax
    a58e:	eb 04                	jmp    a594 <safe_rshift_func_int16_t_s_u+0x31>
    a590:	0f b7 45 fc          	movzwl -0x4(%rbp),%eax
    a594:	5d                   	pop    %rbp
    a595:	c3                   	retq   

000000000000a596 <safe_unary_minus_func_int32_t_s>:
    a596:	f3 0f 1e fa          	endbr64 
    a59a:	55                   	push   %rbp
    a59b:	48 89 e5             	mov    %rsp,%rbp
    a59e:	89 7d fc             	mov    %edi,-0x4(%rbp)
    a5a1:	81 7d fc 00 00 00 80 	cmpl   $0x80000000,-0x4(%rbp)
    a5a8:	74 07                	je     a5b1 <safe_unary_minus_func_int32_t_s+0x1b>
    a5aa:	8b 45 fc             	mov    -0x4(%rbp),%eax
    a5ad:	f7 d8                	neg    %eax
    a5af:	eb 03                	jmp    a5b4 <safe_unary_minus_func_int32_t_s+0x1e>
    a5b1:	8b 45 fc             	mov    -0x4(%rbp),%eax
    a5b4:	5d                   	pop    %rbp
    a5b5:	c3                   	retq   

000000000000a5b6 <safe_add_func_int32_t_s_s>:
    a5b6:	f3 0f 1e fa          	endbr64 
    a5ba:	55                   	push   %rbp
    a5bb:	48 89 e5             	mov    %rsp,%rbp
    a5be:	89 7d fc             	mov    %edi,-0x4(%rbp)
    a5c1:	89 75 f8             	mov    %esi,-0x8(%rbp)
    a5c4:	83 7d fc 00          	cmpl   $0x0,-0x4(%rbp)
    a5c8:	7e 13                	jle    a5dd <safe_add_func_int32_t_s_s+0x27>
    a5ca:	83 7d f8 00          	cmpl   $0x0,-0x8(%rbp)
    a5ce:	7e 0d                	jle    a5dd <safe_add_func_int32_t_s_s+0x27>
    a5d0:	b8 ff ff ff 7f       	mov    $0x7fffffff,%eax
    a5d5:	2b 45 f8             	sub    -0x8(%rbp),%eax
    a5d8:	39 45 fc             	cmp    %eax,-0x4(%rbp)
    a5db:	7f 23                	jg     a600 <safe_add_func_int32_t_s_s+0x4a>
    a5dd:	83 7d fc 00          	cmpl   $0x0,-0x4(%rbp)
    a5e1:	79 13                	jns    a5f6 <safe_add_func_int32_t_s_s+0x40>
    a5e3:	83 7d f8 00          	cmpl   $0x0,-0x8(%rbp)
    a5e7:	79 0d                	jns    a5f6 <safe_add_func_int32_t_s_s+0x40>
    a5e9:	b8 00 00 00 80       	mov    $0x80000000,%eax
    a5ee:	2b 45 f8             	sub    -0x8(%rbp),%eax
    a5f1:	39 45 fc             	cmp    %eax,-0x4(%rbp)
    a5f4:	7c 0a                	jl     a600 <safe_add_func_int32_t_s_s+0x4a>
    a5f6:	8b 55 fc             	mov    -0x4(%rbp),%edx
    a5f9:	8b 45 f8             	mov    -0x8(%rbp),%eax
    a5fc:	01 d0                	add    %edx,%eax
    a5fe:	eb 03                	jmp    a603 <safe_add_func_int32_t_s_s+0x4d>
    a600:	8b 45 fc             	mov    -0x4(%rbp),%eax
    a603:	5d                   	pop    %rbp
    a604:	c3                   	retq   

000000000000a605 <safe_sub_func_int32_t_s_s>:
    a605:	f3 0f 1e fa          	endbr64 
    a609:	55                   	push   %rbp
    a60a:	48 89 e5             	mov    %rsp,%rbp
    a60d:	89 7d fc             	mov    %edi,-0x4(%rbp)
    a610:	89 75 f8             	mov    %esi,-0x8(%rbp)
    a613:	8b 45 fc             	mov    -0x4(%rbp),%eax
    a616:	33 45 f8             	xor    -0x8(%rbp),%eax
    a619:	89 c2                	mov    %eax,%edx
    a61b:	8b 45 fc             	mov    -0x4(%rbp),%eax
    a61e:	33 45 f8             	xor    -0x8(%rbp),%eax
    a621:	25 00 00 00 80       	and    $0x80000000,%eax
    a626:	33 45 fc             	xor    -0x4(%rbp),%eax
    a629:	2b 45 f8             	sub    -0x8(%rbp),%eax
    a62c:	33 45 f8             	xor    -0x8(%rbp),%eax
    a62f:	21 d0                	and    %edx,%eax
    a631:	85 c0                	test   %eax,%eax
    a633:	78 08                	js     a63d <safe_sub_func_int32_t_s_s+0x38>
    a635:	8b 45 fc             	mov    -0x4(%rbp),%eax
    a638:	2b 45 f8             	sub    -0x8(%rbp),%eax
    a63b:	eb 03                	jmp    a640 <safe_sub_func_int32_t_s_s+0x3b>
    a63d:	8b 45 fc             	mov    -0x4(%rbp),%eax
    a640:	5d                   	pop    %rbp
    a641:	c3                   	retq   

000000000000a642 <safe_mul_func_int32_t_s_s>:
    a642:	f3 0f 1e fa          	endbr64 
    a646:	55                   	push   %rbp
    a647:	48 89 e5             	mov    %rsp,%rbp
    a64a:	89 7d fc             	mov    %edi,-0x4(%rbp)
    a64d:	89 75 f8             	mov    %esi,-0x8(%rbp)
    a650:	83 7d fc 00          	cmpl   $0x0,-0x4(%rbp)
    a654:	7e 14                	jle    a66a <safe_mul_func_int32_t_s_s+0x28>
    a656:	83 7d f8 00          	cmpl   $0x0,-0x8(%rbp)
    a65a:	7e 0e                	jle    a66a <safe_mul_func_int32_t_s_s+0x28>
    a65c:	b8 ff ff ff 7f       	mov    $0x7fffffff,%eax
    a661:	99                   	cltd   
    a662:	f7 7d f8             	idivl  -0x8(%rbp)
    a665:	39 45 fc             	cmp    %eax,-0x4(%rbp)
    a668:	7f 5d                	jg     a6c7 <safe_mul_func_int32_t_s_s+0x85>
    a66a:	83 7d fc 00          	cmpl   $0x0,-0x4(%rbp)
    a66e:	7e 14                	jle    a684 <safe_mul_func_int32_t_s_s+0x42>
    a670:	83 7d f8 00          	cmpl   $0x0,-0x8(%rbp)
    a674:	7f 0e                	jg     a684 <safe_mul_func_int32_t_s_s+0x42>
    a676:	b8 00 00 00 80       	mov    $0x80000000,%eax
    a67b:	99                   	cltd   
    a67c:	f7 7d fc             	idivl  -0x4(%rbp)
    a67f:	39 45 f8             	cmp    %eax,-0x8(%rbp)
    a682:	7c 43                	jl     a6c7 <safe_mul_func_int32_t_s_s+0x85>
    a684:	83 7d fc 00          	cmpl   $0x0,-0x4(%rbp)
    a688:	7f 14                	jg     a69e <safe_mul_func_int32_t_s_s+0x5c>
    a68a:	83 7d f8 00          	cmpl   $0x0,-0x8(%rbp)
    a68e:	7e 0e                	jle    a69e <safe_mul_func_int32_t_s_s+0x5c>
    a690:	b8 00 00 00 80       	mov    $0x80000000,%eax
    a695:	99                   	cltd   
    a696:	f7 7d f8             	idivl  -0x8(%rbp)
    a699:	39 45 fc             	cmp    %eax,-0x4(%rbp)
    a69c:	7c 29                	jl     a6c7 <safe_mul_func_int32_t_s_s+0x85>
    a69e:	83 7d fc 00          	cmpl   $0x0,-0x4(%rbp)
    a6a2:	7f 1a                	jg     a6be <safe_mul_func_int32_t_s_s+0x7c>
    a6a4:	83 7d f8 00          	cmpl   $0x0,-0x8(%rbp)
    a6a8:	7f 14                	jg     a6be <safe_mul_func_int32_t_s_s+0x7c>
    a6aa:	83 7d fc 00          	cmpl   $0x0,-0x4(%rbp)
    a6ae:	74 0e                	je     a6be <safe_mul_func_int32_t_s_s+0x7c>
    a6b0:	b8 ff ff ff 7f       	mov    $0x7fffffff,%eax
    a6b5:	99                   	cltd   
    a6b6:	f7 7d fc             	idivl  -0x4(%rbp)
    a6b9:	39 45 f8             	cmp    %eax,-0x8(%rbp)
    a6bc:	7c 09                	jl     a6c7 <safe_mul_func_int32_t_s_s+0x85>
    a6be:	8b 45 fc             	mov    -0x4(%rbp),%eax
    a6c1:	0f af 45 f8          	imul   -0x8(%rbp),%eax
    a6c5:	eb 03                	jmp    a6ca <safe_mul_func_int32_t_s_s+0x88>
    a6c7:	8b 45 fc             	mov    -0x4(%rbp),%eax
    a6ca:	5d                   	pop    %rbp
    a6cb:	c3                   	retq   

000000000000a6cc <safe_mod_func_int32_t_s_s>:
    a6cc:	f3 0f 1e fa          	endbr64 
    a6d0:	55                   	push   %rbp
    a6d1:	48 89 e5             	mov    %rsp,%rbp
    a6d4:	89 7d fc             	mov    %edi,-0x4(%rbp)
    a6d7:	89 75 f8             	mov    %esi,-0x8(%rbp)
    a6da:	83 7d f8 00          	cmpl   $0x0,-0x8(%rbp)
    a6de:	74 1a                	je     a6fa <safe_mod_func_int32_t_s_s+0x2e>
    a6e0:	81 7d fc 00 00 00 80 	cmpl   $0x80000000,-0x4(%rbp)
    a6e7:	75 06                	jne    a6ef <safe_mod_func_int32_t_s_s+0x23>
    a6e9:	83 7d f8 ff          	cmpl   $0xffffffff,-0x8(%rbp)
    a6ed:	74 0b                	je     a6fa <safe_mod_func_int32_t_s_s+0x2e>
    a6ef:	8b 45 fc             	mov    -0x4(%rbp),%eax
    a6f2:	99                   	cltd   
    a6f3:	f7 7d f8             	idivl  -0x8(%rbp)
    a6f6:	89 d0                	mov    %edx,%eax
    a6f8:	eb 03                	jmp    a6fd <safe_mod_func_int32_t_s_s+0x31>
    a6fa:	8b 45 fc             	mov    -0x4(%rbp),%eax
    a6fd:	5d                   	pop    %rbp
    a6fe:	c3                   	retq   

000000000000a6ff <safe_div_func_int32_t_s_s>:
    a6ff:	f3 0f 1e fa          	endbr64 
    a703:	55                   	push   %rbp
    a704:	48 89 e5             	mov    %rsp,%rbp
    a707:	89 7d fc             	mov    %edi,-0x4(%rbp)
    a70a:	89 75 f8             	mov    %esi,-0x8(%rbp)
    a70d:	83 7d f8 00          	cmpl   $0x0,-0x8(%rbp)
    a711:	74 18                	je     a72b <safe_div_func_int32_t_s_s+0x2c>
    a713:	81 7d fc 00 00 00 80 	cmpl   $0x80000000,-0x4(%rbp)
    a71a:	75 06                	jne    a722 <safe_div_func_int32_t_s_s+0x23>
    a71c:	83 7d f8 ff          	cmpl   $0xffffffff,-0x8(%rbp)
    a720:	74 09                	je     a72b <safe_div_func_int32_t_s_s+0x2c>
    a722:	8b 45 fc             	mov    -0x4(%rbp),%eax
    a725:	99                   	cltd   
    a726:	f7 7d f8             	idivl  -0x8(%rbp)
    a729:	eb 03                	jmp    a72e <safe_div_func_int32_t_s_s+0x2f>
    a72b:	8b 45 fc             	mov    -0x4(%rbp),%eax
    a72e:	5d                   	pop    %rbp
    a72f:	c3                   	retq   

000000000000a730 <safe_lshift_func_int32_t_s_s>:
    a730:	f3 0f 1e fa          	endbr64 
    a734:	55                   	push   %rbp
    a735:	48 89 e5             	mov    %rsp,%rbp
    a738:	89 7d fc             	mov    %edi,-0x4(%rbp)
    a73b:	89 75 f8             	mov    %esi,-0x8(%rbp)
    a73e:	83 7d fc 00          	cmpl   $0x0,-0x4(%rbp)
    a742:	78 2d                	js     a771 <safe_lshift_func_int32_t_s_s+0x41>
    a744:	83 7d f8 00          	cmpl   $0x0,-0x8(%rbp)
    a748:	78 27                	js     a771 <safe_lshift_func_int32_t_s_s+0x41>
    a74a:	83 7d f8 1f          	cmpl   $0x1f,-0x8(%rbp)
    a74e:	7f 21                	jg     a771 <safe_lshift_func_int32_t_s_s+0x41>
    a750:	8b 45 f8             	mov    -0x8(%rbp),%eax
    a753:	ba ff ff ff 7f       	mov    $0x7fffffff,%edx
    a758:	89 c1                	mov    %eax,%ecx
    a75a:	d3 fa                	sar    %cl,%edx
    a75c:	89 d0                	mov    %edx,%eax
    a75e:	39 45 fc             	cmp    %eax,-0x4(%rbp)
    a761:	7f 0e                	jg     a771 <safe_lshift_func_int32_t_s_s+0x41>
    a763:	8b 45 f8             	mov    -0x8(%rbp),%eax
    a766:	8b 55 fc             	mov    -0x4(%rbp),%edx
    a769:	89 c1                	mov    %eax,%ecx
    a76b:	d3 e2                	shl    %cl,%edx
    a76d:	89 d0                	mov    %edx,%eax
    a76f:	eb 03                	jmp    a774 <safe_lshift_func_int32_t_s_s+0x44>
    a771:	8b 45 fc             	mov    -0x4(%rbp),%eax
    a774:	5d                   	pop    %rbp
    a775:	c3                   	retq   

000000000000a776 <safe_lshift_func_int32_t_s_u>:
    a776:	f3 0f 1e fa          	endbr64 
    a77a:	55                   	push   %rbp
    a77b:	48 89 e5             	mov    %rsp,%rbp
    a77e:	89 7d fc             	mov    %edi,-0x4(%rbp)
    a781:	89 75 f8             	mov    %esi,-0x8(%rbp)
    a784:	83 7d fc 00          	cmpl   $0x0,-0x4(%rbp)
    a788:	78 27                	js     a7b1 <safe_lshift_func_int32_t_s_u+0x3b>
    a78a:	83 7d f8 1f          	cmpl   $0x1f,-0x8(%rbp)
    a78e:	77 21                	ja     a7b1 <safe_lshift_func_int32_t_s_u+0x3b>
    a790:	8b 45 f8             	mov    -0x8(%rbp),%eax
    a793:	ba ff ff ff 7f       	mov    $0x7fffffff,%edx
    a798:	89 c1                	mov    %eax,%ecx
    a79a:	d3 fa                	sar    %cl,%edx
    a79c:	89 d0                	mov    %edx,%eax
    a79e:	39 45 fc             	cmp    %eax,-0x4(%rbp)
    a7a1:	7f 0e                	jg     a7b1 <safe_lshift_func_int32_t_s_u+0x3b>
    a7a3:	8b 45 f8             	mov    -0x8(%rbp),%eax
    a7a6:	8b 55 fc             	mov    -0x4(%rbp),%edx
    a7a9:	89 c1                	mov    %eax,%ecx
    a7ab:	d3 e2                	shl    %cl,%edx
    a7ad:	89 d0                	mov    %edx,%eax
    a7af:	eb 03                	jmp    a7b4 <safe_lshift_func_int32_t_s_u+0x3e>
    a7b1:	8b 45 fc             	mov    -0x4(%rbp),%eax
    a7b4:	5d                   	pop    %rbp
    a7b5:	c3                   	retq   

000000000000a7b6 <safe_rshift_func_int32_t_s_s>:
    a7b6:	f3 0f 1e fa          	endbr64 
    a7ba:	55                   	push   %rbp
    a7bb:	48 89 e5             	mov    %rsp,%rbp
    a7be:	89 7d fc             	mov    %edi,-0x4(%rbp)
    a7c1:	89 75 f8             	mov    %esi,-0x8(%rbp)
    a7c4:	83 7d fc 00          	cmpl   $0x0,-0x4(%rbp)
    a7c8:	78 1a                	js     a7e4 <safe_rshift_func_int32_t_s_s+0x2e>
    a7ca:	83 7d f8 00          	cmpl   $0x0,-0x8(%rbp)
    a7ce:	78 14                	js     a7e4 <safe_rshift_func_int32_t_s_s+0x2e>
    a7d0:	83 7d f8 1f          	cmpl   $0x1f,-0x8(%rbp)
    a7d4:	7f 0e                	jg     a7e4 <safe_rshift_func_int32_t_s_s+0x2e>
    a7d6:	8b 45 f8             	mov    -0x8(%rbp),%eax
    a7d9:	8b 55 fc             	mov    -0x4(%rbp),%edx
    a7dc:	89 c1                	mov    %eax,%ecx
    a7de:	d3 fa                	sar    %cl,%edx
    a7e0:	89 d0                	mov    %edx,%eax
    a7e2:	eb 03                	jmp    a7e7 <safe_rshift_func_int32_t_s_s+0x31>
    a7e4:	8b 45 fc             	mov    -0x4(%rbp),%eax
    a7e7:	5d                   	pop    %rbp
    a7e8:	c3                   	retq   

000000000000a7e9 <safe_rshift_func_int32_t_s_u>:
    a7e9:	f3 0f 1e fa          	endbr64 
    a7ed:	55                   	push   %rbp
    a7ee:	48 89 e5             	mov    %rsp,%rbp
    a7f1:	89 7d fc             	mov    %edi,-0x4(%rbp)
    a7f4:	89 75 f8             	mov    %esi,-0x8(%rbp)
    a7f7:	83 7d fc 00          	cmpl   $0x0,-0x4(%rbp)
    a7fb:	78 14                	js     a811 <safe_rshift_func_int32_t_s_u+0x28>
    a7fd:	83 7d f8 1f          	cmpl   $0x1f,-0x8(%rbp)
    a801:	77 0e                	ja     a811 <safe_rshift_func_int32_t_s_u+0x28>
    a803:	8b 45 f8             	mov    -0x8(%rbp),%eax
    a806:	8b 55 fc             	mov    -0x4(%rbp),%edx
    a809:	89 c1                	mov    %eax,%ecx
    a80b:	d3 fa                	sar    %cl,%edx
    a80d:	89 d0                	mov    %edx,%eax
    a80f:	eb 03                	jmp    a814 <safe_rshift_func_int32_t_s_u+0x2b>
    a811:	8b 45 fc             	mov    -0x4(%rbp),%eax
    a814:	5d                   	pop    %rbp
    a815:	c3                   	retq   

000000000000a816 <safe_unary_minus_func_int64_t_s>:
    a816:	f3 0f 1e fa          	endbr64 
    a81a:	55                   	push   %rbp
    a81b:	48 89 e5             	mov    %rsp,%rbp
    a81e:	48 89 7d f8          	mov    %rdi,-0x8(%rbp)
    a822:	48 b8 00 00 00 00 00 	movabs $0x8000000000000000,%rax
    a829:	00 00 80 
    a82c:	48 39 45 f8          	cmp    %rax,-0x8(%rbp)
    a830:	74 09                	je     a83b <safe_unary_minus_func_int64_t_s+0x25>
    a832:	48 8b 45 f8          	mov    -0x8(%rbp),%rax
    a836:	48 f7 d8             	neg    %rax
    a839:	eb 04                	jmp    a83f <safe_unary_minus_func_int64_t_s+0x29>
    a83b:	48 8b 45 f8          	mov    -0x8(%rbp),%rax
    a83f:	5d                   	pop    %rbp
    a840:	c3                   	retq   

000000000000a841 <safe_add_func_int64_t_s_s>:
    a841:	f3 0f 1e fa          	endbr64 
    a845:	55                   	push   %rbp
    a846:	48 89 e5             	mov    %rsp,%rbp
    a849:	48 89 7d f8          	mov    %rdi,-0x8(%rbp)
    a84d:	48 89 75 f0          	mov    %rsi,-0x10(%rbp)
    a851:	48 83 7d f8 00       	cmpq   $0x0,-0x8(%rbp)
    a856:	7e 1b                	jle    a873 <safe_add_func_int64_t_s_s+0x32>
    a858:	48 83 7d f0 00       	cmpq   $0x0,-0x10(%rbp)
    a85d:	7e 14                	jle    a873 <safe_add_func_int64_t_s_s+0x32>
    a85f:	48 b8 ff ff ff ff ff 	movabs $0x7fffffffffffffff,%rax
    a866:	ff ff 7f 
    a869:	48 2b 45 f0          	sub    -0x10(%rbp),%rax
    a86d:	48 39 45 f8          	cmp    %rax,-0x8(%rbp)
    a871:	7f 2f                	jg     a8a2 <safe_add_func_int64_t_s_s+0x61>
    a873:	48 83 7d f8 00       	cmpq   $0x0,-0x8(%rbp)
    a878:	79 1b                	jns    a895 <safe_add_func_int64_t_s_s+0x54>
    a87a:	48 83 7d f0 00       	cmpq   $0x0,-0x10(%rbp)
    a87f:	79 14                	jns    a895 <safe_add_func_int64_t_s_s+0x54>
    a881:	48 b8 00 00 00 00 00 	movabs $0x8000000000000000,%rax
    a888:	00 00 80 
    a88b:	48 2b 45 f0          	sub    -0x10(%rbp),%rax
    a88f:	48 39 45 f8          	cmp    %rax,-0x8(%rbp)
    a893:	7c 0d                	jl     a8a2 <safe_add_func_int64_t_s_s+0x61>
    a895:	48 8b 55 f8          	mov    -0x8(%rbp),%rdx
    a899:	48 8b 45 f0          	mov    -0x10(%rbp),%rax
    a89d:	48 01 d0             	add    %rdx,%rax
    a8a0:	eb 04                	jmp    a8a6 <safe_add_func_int64_t_s_s+0x65>
    a8a2:	48 8b 45 f8          	mov    -0x8(%rbp),%rax
    a8a6:	5d                   	pop    %rbp
    a8a7:	c3                   	retq   

000000000000a8a8 <safe_sub_func_int64_t_s_s>:
    a8a8:	f3 0f 1e fa          	endbr64 
    a8ac:	55                   	push   %rbp
    a8ad:	48 89 e5             	mov    %rsp,%rbp
    a8b0:	48 89 7d f8          	mov    %rdi,-0x8(%rbp)
    a8b4:	48 89 75 f0          	mov    %rsi,-0x10(%rbp)
    a8b8:	48 8b 45 f8          	mov    -0x8(%rbp),%rax
    a8bc:	48 33 45 f0          	xor    -0x10(%rbp),%rax
    a8c0:	48 89 c2             	mov    %rax,%rdx
    a8c3:	48 8b 45 f8          	mov    -0x8(%rbp),%rax
    a8c7:	48 33 45 f0          	xor    -0x10(%rbp),%rax
    a8cb:	48 b9 00 00 00 00 00 	movabs $0x8000000000000000,%rcx
    a8d2:	00 00 80 
    a8d5:	48 21 c8             	and    %rcx,%rax
    a8d8:	48 33 45 f8          	xor    -0x8(%rbp),%rax
    a8dc:	48 2b 45 f0          	sub    -0x10(%rbp),%rax
    a8e0:	48 33 45 f0          	xor    -0x10(%rbp),%rax
    a8e4:	48 21 d0             	and    %rdx,%rax
    a8e7:	48 85 c0             	test   %rax,%rax
    a8ea:	78 0a                	js     a8f6 <safe_sub_func_int64_t_s_s+0x4e>
    a8ec:	48 8b 45 f8          	mov    -0x8(%rbp),%rax
    a8f0:	48 2b 45 f0          	sub    -0x10(%rbp),%rax
    a8f4:	eb 04                	jmp    a8fa <safe_sub_func_int64_t_s_s+0x52>
    a8f6:	48 8b 45 f8          	mov    -0x8(%rbp),%rax
    a8fa:	5d                   	pop    %rbp
    a8fb:	c3                   	retq   

000000000000a8fc <safe_mul_func_int64_t_s_s>:
    a8fc:	f3 0f 1e fa          	endbr64 
    a900:	55                   	push   %rbp
    a901:	48 89 e5             	mov    %rsp,%rbp
    a904:	48 89 7d f8          	mov    %rdi,-0x8(%rbp)
    a908:	48 89 75 f0          	mov    %rsi,-0x10(%rbp)
    a90c:	48 83 7d f8 00       	cmpq   $0x0,-0x8(%rbp)
    a911:	7e 1d                	jle    a930 <safe_mul_func_int64_t_s_s+0x34>
    a913:	48 83 7d f0 00       	cmpq   $0x0,-0x10(%rbp)
    a918:	7e 16                	jle    a930 <safe_mul_func_int64_t_s_s+0x34>
    a91a:	48 b8 ff ff ff ff ff 	movabs $0x7fffffffffffffff,%rax
    a921:	ff ff 7f 
    a924:	48 99                	cqto   
    a926:	48 f7 7d f0          	idivq  -0x10(%rbp)
    a92a:	48 39 45 f8          	cmp    %rax,-0x8(%rbp)
    a92e:	7f 7e                	jg     a9ae <safe_mul_func_int64_t_s_s+0xb2>
    a930:	48 83 7d f8 00       	cmpq   $0x0,-0x8(%rbp)
    a935:	7e 1d                	jle    a954 <safe_mul_func_int64_t_s_s+0x58>
    a937:	48 83 7d f0 00       	cmpq   $0x0,-0x10(%rbp)
    a93c:	7f 16                	jg     a954 <safe_mul_func_int64_t_s_s+0x58>
    a93e:	48 b8 00 00 00 00 00 	movabs $0x8000000000000000,%rax
    a945:	00 00 80 
    a948:	48 99                	cqto   
    a94a:	48 f7 7d f8          	idivq  -0x8(%rbp)
    a94e:	48 39 45 f0          	cmp    %rax,-0x10(%rbp)
    a952:	7c 5a                	jl     a9ae <safe_mul_func_int64_t_s_s+0xb2>
    a954:	48 83 7d f8 00       	cmpq   $0x0,-0x8(%rbp)
    a959:	7f 1d                	jg     a978 <safe_mul_func_int64_t_s_s+0x7c>
    a95b:	48 83 7d f0 00       	cmpq   $0x0,-0x10(%rbp)
    a960:	7e 16                	jle    a978 <safe_mul_func_int64_t_s_s+0x7c>
    a962:	48 b8 00 00 00 00 00 	movabs $0x8000000000000000,%rax
    a969:	00 00 80 
    a96c:	48 99                	cqto   
    a96e:	48 f7 7d f0          	idivq  -0x10(%rbp)
    a972:	48 39 45 f8          	cmp    %rax,-0x8(%rbp)
    a976:	7c 36                	jl     a9ae <safe_mul_func_int64_t_s_s+0xb2>
    a978:	48 83 7d f8 00       	cmpq   $0x0,-0x8(%rbp)
    a97d:	7f 24                	jg     a9a3 <safe_mul_func_int64_t_s_s+0xa7>
    a97f:	48 83 7d f0 00       	cmpq   $0x0,-0x10(%rbp)
    a984:	7f 1d                	jg     a9a3 <safe_mul_func_int64_t_s_s+0xa7>
    a986:	48 83 7d f8 00       	cmpq   $0x0,-0x8(%rbp)
    a98b:	74 16                	je     a9a3 <safe_mul_func_int64_t_s_s+0xa7>
    a98d:	48 b8 ff ff ff ff ff 	movabs $0x7fffffffffffffff,%rax
    a994:	ff ff 7f 
    a997:	48 99                	cqto   
    a999:	48 f7 7d f8          	idivq  -0x8(%rbp)
    a99d:	48 39 45 f0          	cmp    %rax,-0x10(%rbp)
    a9a1:	7c 0b                	jl     a9ae <safe_mul_func_int64_t_s_s+0xb2>
    a9a3:	48 8b 45 f8          	mov    -0x8(%rbp),%rax
    a9a7:	48 0f af 45 f0       	imul   -0x10(%rbp),%rax
    a9ac:	eb 04                	jmp    a9b2 <safe_mul_func_int64_t_s_s+0xb6>
    a9ae:	48 8b 45 f8          	mov    -0x8(%rbp),%rax
    a9b2:	5d                   	pop    %rbp
    a9b3:	c3                   	retq   

000000000000a9b4 <safe_mod_func_int64_t_s_s>:
    a9b4:	f3 0f 1e fa          	endbr64 
    a9b8:	55                   	push   %rbp
    a9b9:	48 89 e5             	mov    %rsp,%rbp
    a9bc:	48 89 7d f8          	mov    %rdi,-0x8(%rbp)
    a9c0:	48 89 75 f0          	mov    %rsi,-0x10(%rbp)
    a9c4:	48 83 7d f0 00       	cmpq   $0x0,-0x10(%rbp)
    a9c9:	74 26                	je     a9f1 <safe_mod_func_int64_t_s_s+0x3d>
    a9cb:	48 b8 00 00 00 00 00 	movabs $0x8000000000000000,%rax
    a9d2:	00 00 80 
    a9d5:	48 39 45 f8          	cmp    %rax,-0x8(%rbp)
    a9d9:	75 07                	jne    a9e2 <safe_mod_func_int64_t_s_s+0x2e>
    a9db:	48 83 7d f0 ff       	cmpq   $0xffffffffffffffff,-0x10(%rbp)
    a9e0:	74 0f                	je     a9f1 <safe_mod_func_int64_t_s_s+0x3d>
    a9e2:	48 8b 45 f8          	mov    -0x8(%rbp),%rax
    a9e6:	48 99                	cqto   
    a9e8:	48 f7 7d f0          	idivq  -0x10(%rbp)
    a9ec:	48 89 d0             	mov    %rdx,%rax
    a9ef:	eb 04                	jmp    a9f5 <safe_mod_func_int64_t_s_s+0x41>
    a9f1:	48 8b 45 f8          	mov    -0x8(%rbp),%rax
    a9f5:	5d                   	pop    %rbp
    a9f6:	c3                   	retq   

000000000000a9f7 <safe_div_func_int64_t_s_s>:
    a9f7:	f3 0f 1e fa          	endbr64 
    a9fb:	55                   	push   %rbp
    a9fc:	48 89 e5             	mov    %rsp,%rbp
    a9ff:	48 89 7d f8          	mov    %rdi,-0x8(%rbp)
    aa03:	48 89 75 f0          	mov    %rsi,-0x10(%rbp)
    aa07:	48 83 7d f0 00       	cmpq   $0x0,-0x10(%rbp)
    aa0c:	74 23                	je     aa31 <safe_div_func_int64_t_s_s+0x3a>
    aa0e:	48 b8 00 00 00 00 00 	movabs $0x8000000000000000,%rax
    aa15:	00 00 80 
    aa18:	48 39 45 f8          	cmp    %rax,-0x8(%rbp)
    aa1c:	75 07                	jne    aa25 <safe_div_func_int64_t_s_s+0x2e>
    aa1e:	48 83 7d f0 ff       	cmpq   $0xffffffffffffffff,-0x10(%rbp)
    aa23:	74 0c                	je     aa31 <safe_div_func_int64_t_s_s+0x3a>
    aa25:	48 8b 45 f8          	mov    -0x8(%rbp),%rax
    aa29:	48 99                	cqto   
    aa2b:	48 f7 7d f0          	idivq  -0x10(%rbp)
    aa2f:	eb 04                	jmp    aa35 <safe_div_func_int64_t_s_s+0x3e>
    aa31:	48 8b 45 f8          	mov    -0x8(%rbp),%rax
    aa35:	5d                   	pop    %rbp
    aa36:	c3                   	retq   

000000000000aa37 <safe_lshift_func_int64_t_s_s>:
    aa37:	f3 0f 1e fa          	endbr64 
    aa3b:	55                   	push   %rbp
    aa3c:	48 89 e5             	mov    %rsp,%rbp
    aa3f:	48 89 7d f8          	mov    %rdi,-0x8(%rbp)
    aa43:	89 75 f4             	mov    %esi,-0xc(%rbp)
    aa46:	48 83 7d f8 00       	cmpq   $0x0,-0x8(%rbp)
    aa4b:	78 38                	js     aa85 <safe_lshift_func_int64_t_s_s+0x4e>
    aa4d:	83 7d f4 00          	cmpl   $0x0,-0xc(%rbp)
    aa51:	78 32                	js     aa85 <safe_lshift_func_int64_t_s_s+0x4e>
    aa53:	83 7d f4 1f          	cmpl   $0x1f,-0xc(%rbp)
    aa57:	7f 2c                	jg     aa85 <safe_lshift_func_int64_t_s_s+0x4e>
    aa59:	8b 45 f4             	mov    -0xc(%rbp),%eax
    aa5c:	48 ba ff ff ff ff ff 	movabs $0x7fffffffffffffff,%rdx
    aa63:	ff ff 7f 
    aa66:	89 c1                	mov    %eax,%ecx
    aa68:	48 d3 fa             	sar    %cl,%rdx
    aa6b:	48 89 d0             	mov    %rdx,%rax
    aa6e:	48 39 45 f8          	cmp    %rax,-0x8(%rbp)
    aa72:	7f 11                	jg     aa85 <safe_lshift_func_int64_t_s_s+0x4e>
    aa74:	8b 45 f4             	mov    -0xc(%rbp),%eax
    aa77:	48 8b 55 f8          	mov    -0x8(%rbp),%rdx
    aa7b:	89 c1                	mov    %eax,%ecx
    aa7d:	48 d3 e2             	shl    %cl,%rdx
    aa80:	48 89 d0             	mov    %rdx,%rax
    aa83:	eb 04                	jmp    aa89 <safe_lshift_func_int64_t_s_s+0x52>
    aa85:	48 8b 45 f8          	mov    -0x8(%rbp),%rax
    aa89:	5d                   	pop    %rbp
    aa8a:	c3                   	retq   

000000000000aa8b <safe_lshift_func_int64_t_s_u>:
    aa8b:	f3 0f 1e fa          	endbr64 
    aa8f:	55                   	push   %rbp
    aa90:	48 89 e5             	mov    %rsp,%rbp
    aa93:	48 89 7d f8          	mov    %rdi,-0x8(%rbp)
    aa97:	89 75 f4             	mov    %esi,-0xc(%rbp)
    aa9a:	48 83 7d f8 00       	cmpq   $0x0,-0x8(%rbp)
    aa9f:	78 32                	js     aad3 <safe_lshift_func_int64_t_s_u+0x48>
    aaa1:	83 7d f4 1f          	cmpl   $0x1f,-0xc(%rbp)
    aaa5:	77 2c                	ja     aad3 <safe_lshift_func_int64_t_s_u+0x48>
    aaa7:	8b 45 f4             	mov    -0xc(%rbp),%eax
    aaaa:	48 ba ff ff ff ff ff 	movabs $0x7fffffffffffffff,%rdx
    aab1:	ff ff 7f 
    aab4:	89 c1                	mov    %eax,%ecx
    aab6:	48 d3 fa             	sar    %cl,%rdx
    aab9:	48 89 d0             	mov    %rdx,%rax
    aabc:	48 39 45 f8          	cmp    %rax,-0x8(%rbp)
    aac0:	7f 11                	jg     aad3 <safe_lshift_func_int64_t_s_u+0x48>
    aac2:	8b 45 f4             	mov    -0xc(%rbp),%eax
    aac5:	48 8b 55 f8          	mov    -0x8(%rbp),%rdx
    aac9:	89 c1                	mov    %eax,%ecx
    aacb:	48 d3 e2             	shl    %cl,%rdx
    aace:	48 89 d0             	mov    %rdx,%rax
    aad1:	eb 04                	jmp    aad7 <safe_lshift_func_int64_t_s_u+0x4c>
    aad3:	48 8b 45 f8          	mov    -0x8(%rbp),%rax
    aad7:	5d                   	pop    %rbp
    aad8:	c3                   	retq   

000000000000aad9 <safe_rshift_func_int64_t_s_s>:
    aad9:	f3 0f 1e fa          	endbr64 
    aadd:	55                   	push   %rbp
    aade:	48 89 e5             	mov    %rsp,%rbp
    aae1:	48 89 7d f8          	mov    %rdi,-0x8(%rbp)
    aae5:	89 75 f4             	mov    %esi,-0xc(%rbp)
    aae8:	48 83 7d f8 00       	cmpq   $0x0,-0x8(%rbp)
    aaed:	78 1d                	js     ab0c <safe_rshift_func_int64_t_s_s+0x33>
    aaef:	83 7d f4 00          	cmpl   $0x0,-0xc(%rbp)
    aaf3:	78 17                	js     ab0c <safe_rshift_func_int64_t_s_s+0x33>
    aaf5:	83 7d f4 1f          	cmpl   $0x1f,-0xc(%rbp)
    aaf9:	7f 11                	jg     ab0c <safe_rshift_func_int64_t_s_s+0x33>
    aafb:	8b 45 f4             	mov    -0xc(%rbp),%eax
    aafe:	48 8b 55 f8          	mov    -0x8(%rbp),%rdx
    ab02:	89 c1                	mov    %eax,%ecx
    ab04:	48 d3 fa             	sar    %cl,%rdx
    ab07:	48 89 d0             	mov    %rdx,%rax
    ab0a:	eb 04                	jmp    ab10 <safe_rshift_func_int64_t_s_s+0x37>
    ab0c:	48 8b 45 f8          	mov    -0x8(%rbp),%rax
    ab10:	5d                   	pop    %rbp
    ab11:	c3                   	retq   

000000000000ab12 <safe_rshift_func_int64_t_s_u>:
    ab12:	f3 0f 1e fa          	endbr64 
    ab16:	55                   	push   %rbp
    ab17:	48 89 e5             	mov    %rsp,%rbp
    ab1a:	48 89 7d f8          	mov    %rdi,-0x8(%rbp)
    ab1e:	89 75 f4             	mov    %esi,-0xc(%rbp)
    ab21:	48 83 7d f8 00       	cmpq   $0x0,-0x8(%rbp)
    ab26:	78 17                	js     ab3f <safe_rshift_func_int64_t_s_u+0x2d>
    ab28:	83 7d f4 1f          	cmpl   $0x1f,-0xc(%rbp)
    ab2c:	77 11                	ja     ab3f <safe_rshift_func_int64_t_s_u+0x2d>
    ab2e:	8b 45 f4             	mov    -0xc(%rbp),%eax
    ab31:	48 8b 55 f8          	mov    -0x8(%rbp),%rdx
    ab35:	89 c1                	mov    %eax,%ecx
    ab37:	48 d3 fa             	sar    %cl,%rdx
    ab3a:	48 89 d0             	mov    %rdx,%rax
    ab3d:	eb 04                	jmp    ab43 <safe_rshift_func_int64_t_s_u+0x31>
    ab3f:	48 8b 45 f8          	mov    -0x8(%rbp),%rax
    ab43:	5d                   	pop    %rbp
    ab44:	c3                   	retq   

000000000000ab45 <safe_unary_minus_func_uint8_t_u>:
    ab45:	f3 0f 1e fa          	endbr64 
    ab49:	55                   	push   %rbp
    ab4a:	48 89 e5             	mov    %rsp,%rbp
    ab4d:	89 f8                	mov    %edi,%eax
    ab4f:	88 45 fc             	mov    %al,-0x4(%rbp)
    ab52:	0f b6 45 fc          	movzbl -0x4(%rbp),%eax
    ab56:	f7 d8                	neg    %eax
    ab58:	5d                   	pop    %rbp
    ab59:	c3                   	retq   

000000000000ab5a <safe_add_func_uint8_t_u_u>:
    ab5a:	f3 0f 1e fa          	endbr64 
    ab5e:	55                   	push   %rbp
    ab5f:	48 89 e5             	mov    %rsp,%rbp
    ab62:	89 fa                	mov    %edi,%edx
    ab64:	89 f0                	mov    %esi,%eax
    ab66:	88 55 fc             	mov    %dl,-0x4(%rbp)
    ab69:	88 45 f8             	mov    %al,-0x8(%rbp)
    ab6c:	0f b6 55 fc          	movzbl -0x4(%rbp),%edx
    ab70:	0f b6 45 f8          	movzbl -0x8(%rbp),%eax
    ab74:	01 d0                	add    %edx,%eax
    ab76:	5d                   	pop    %rbp
    ab77:	c3                   	retq   

000000000000ab78 <safe_sub_func_uint8_t_u_u>:
    ab78:	f3 0f 1e fa          	endbr64 
    ab7c:	55                   	push   %rbp
    ab7d:	48 89 e5             	mov    %rsp,%rbp
    ab80:	89 fa                	mov    %edi,%edx
    ab82:	89 f0                	mov    %esi,%eax
    ab84:	88 55 fc             	mov    %dl,-0x4(%rbp)
    ab87:	88 45 f8             	mov    %al,-0x8(%rbp)
    ab8a:	0f b6 45 fc          	movzbl -0x4(%rbp),%eax
    ab8e:	2a 45 f8             	sub    -0x8(%rbp),%al
    ab91:	5d                   	pop    %rbp
    ab92:	c3                   	retq   

000000000000ab93 <safe_mul_func_uint8_t_u_u>:
    ab93:	f3 0f 1e fa          	endbr64 
    ab97:	55                   	push   %rbp
    ab98:	48 89 e5             	mov    %rsp,%rbp
    ab9b:	89 fa                	mov    %edi,%edx
    ab9d:	89 f0                	mov    %esi,%eax
    ab9f:	88 55 fc             	mov    %dl,-0x4(%rbp)
    aba2:	88 45 f8             	mov    %al,-0x8(%rbp)
    aba5:	0f b6 45 fc          	movzbl -0x4(%rbp),%eax
    aba9:	f6 65 f8             	mulb   -0x8(%rbp)
    abac:	5d                   	pop    %rbp
    abad:	c3                   	retq   

000000000000abae <safe_mod_func_uint8_t_u_u>:
    abae:	f3 0f 1e fa          	endbr64 
    abb2:	55                   	push   %rbp
    abb3:	48 89 e5             	mov    %rsp,%rbp
    abb6:	89 fa                	mov    %edi,%edx
    abb8:	89 f0                	mov    %esi,%eax
    abba:	88 55 fc             	mov    %dl,-0x4(%rbp)
    abbd:	88 45 f8             	mov    %al,-0x8(%rbp)
    abc0:	80 7d f8 00          	cmpb   $0x0,-0x8(%rbp)
    abc4:	74 0f                	je     abd5 <safe_mod_func_uint8_t_u_u+0x27>
    abc6:	0f b6 45 fc          	movzbl -0x4(%rbp),%eax
    abca:	0f b6 c0             	movzbl %al,%eax
    abcd:	f6 75 f8             	divb   -0x8(%rbp)
    abd0:	0f b6 c4             	movzbl %ah,%eax
    abd3:	eb 04                	jmp    abd9 <safe_mod_func_uint8_t_u_u+0x2b>
    abd5:	0f b6 45 fc          	movzbl -0x4(%rbp),%eax
    abd9:	5d                   	pop    %rbp
    abda:	c3                   	retq   

000000000000abdb <safe_div_func_uint8_t_u_u>:
    abdb:	f3 0f 1e fa          	endbr64 
    abdf:	55                   	push   %rbp
    abe0:	48 89 e5             	mov    %rsp,%rbp
    abe3:	89 fa                	mov    %edi,%edx
    abe5:	89 f0                	mov    %esi,%eax
    abe7:	88 55 fc             	mov    %dl,-0x4(%rbp)
    abea:	88 45 f8             	mov    %al,-0x8(%rbp)
    abed:	80 7d f8 00          	cmpb   $0x0,-0x8(%rbp)
    abf1:	74 0c                	je     abff <safe_div_func_uint8_t_u_u+0x24>
    abf3:	0f b6 45 fc          	movzbl -0x4(%rbp),%eax
    abf7:	0f b6 c0             	movzbl %al,%eax
    abfa:	f6 75 f8             	divb   -0x8(%rbp)
    abfd:	eb 04                	jmp    ac03 <safe_div_func_uint8_t_u_u+0x28>
    abff:	0f b6 45 fc          	movzbl -0x4(%rbp),%eax
    ac03:	5d                   	pop    %rbp
    ac04:	c3                   	retq   

000000000000ac05 <safe_lshift_func_uint8_t_u_s>:
    ac05:	f3 0f 1e fa          	endbr64 
    ac09:	55                   	push   %rbp
    ac0a:	48 89 e5             	mov    %rsp,%rbp
    ac0d:	89 f8                	mov    %edi,%eax
    ac0f:	89 75 f8             	mov    %esi,-0x8(%rbp)
    ac12:	88 45 fc             	mov    %al,-0x4(%rbp)
    ac15:	83 7d f8 00          	cmpl   $0x0,-0x8(%rbp)
    ac19:	78 2b                	js     ac46 <safe_lshift_func_uint8_t_u_s+0x41>
    ac1b:	83 7d f8 1f          	cmpl   $0x1f,-0x8(%rbp)
    ac1f:	7f 25                	jg     ac46 <safe_lshift_func_uint8_t_u_s+0x41>
    ac21:	0f b6 55 fc          	movzbl -0x4(%rbp),%edx
    ac25:	8b 45 f8             	mov    -0x8(%rbp),%eax
    ac28:	be ff 00 00 00       	mov    $0xff,%esi
    ac2d:	89 c1                	mov    %eax,%ecx
    ac2f:	d3 fe                	sar    %cl,%esi
    ac31:	89 f0                	mov    %esi,%eax
    ac33:	39 c2                	cmp    %eax,%edx
    ac35:	7f 0f                	jg     ac46 <safe_lshift_func_uint8_t_u_s+0x41>
    ac37:	0f b6 55 fc          	movzbl -0x4(%rbp),%edx
    ac3b:	8b 45 f8             	mov    -0x8(%rbp),%eax
    ac3e:	89 c1                	mov    %eax,%ecx
    ac40:	d3 e2                	shl    %cl,%edx
    ac42:	89 d0                	mov    %edx,%eax
    ac44:	eb 04                	jmp    ac4a <safe_lshift_func_uint8_t_u_s+0x45>
    ac46:	0f b6 45 fc          	movzbl -0x4(%rbp),%eax
    ac4a:	5d                   	pop    %rbp
    ac4b:	c3                   	retq   

000000000000ac4c <safe_lshift_func_uint8_t_u_u>:
    ac4c:	f3 0f 1e fa          	endbr64 
    ac50:	55                   	push   %rbp
    ac51:	48 89 e5             	mov    %rsp,%rbp
    ac54:	89 f8                	mov    %edi,%eax
    ac56:	89 75 f8             	mov    %esi,-0x8(%rbp)
    ac59:	88 45 fc             	mov    %al,-0x4(%rbp)
    ac5c:	83 7d f8 1f          	cmpl   $0x1f,-0x8(%rbp)
    ac60:	77 25                	ja     ac87 <safe_lshift_func_uint8_t_u_u+0x3b>
    ac62:	0f b6 55 fc          	movzbl -0x4(%rbp),%edx
    ac66:	8b 45 f8             	mov    -0x8(%rbp),%eax
    ac69:	be ff 00 00 00       	mov    $0xff,%esi
    ac6e:	89 c1                	mov    %eax,%ecx
    ac70:	d3 fe                	sar    %cl,%esi
    ac72:	89 f0                	mov    %esi,%eax
    ac74:	39 c2                	cmp    %eax,%edx
    ac76:	7f 0f                	jg     ac87 <safe_lshift_func_uint8_t_u_u+0x3b>
    ac78:	0f b6 55 fc          	movzbl -0x4(%rbp),%edx
    ac7c:	8b 45 f8             	mov    -0x8(%rbp),%eax
    ac7f:	89 c1                	mov    %eax,%ecx
    ac81:	d3 e2                	shl    %cl,%edx
    ac83:	89 d0                	mov    %edx,%eax
    ac85:	eb 04                	jmp    ac8b <safe_lshift_func_uint8_t_u_u+0x3f>
    ac87:	0f b6 45 fc          	movzbl -0x4(%rbp),%eax
    ac8b:	5d                   	pop    %rbp
    ac8c:	c3                   	retq   

000000000000ac8d <safe_rshift_func_uint8_t_u_s>:
    ac8d:	f3 0f 1e fa          	endbr64 
    ac91:	55                   	push   %rbp
    ac92:	48 89 e5             	mov    %rsp,%rbp
    ac95:	89 f8                	mov    %edi,%eax
    ac97:	89 75 f8             	mov    %esi,-0x8(%rbp)
    ac9a:	88 45 fc             	mov    %al,-0x4(%rbp)
    ac9d:	83 7d f8 00          	cmpl   $0x0,-0x8(%rbp)
    aca1:	78 15                	js     acb8 <safe_rshift_func_uint8_t_u_s+0x2b>
    aca3:	83 7d f8 1f          	cmpl   $0x1f,-0x8(%rbp)
    aca7:	7f 0f                	jg     acb8 <safe_rshift_func_uint8_t_u_s+0x2b>
    aca9:	0f b6 55 fc          	movzbl -0x4(%rbp),%edx
    acad:	8b 45 f8             	mov    -0x8(%rbp),%eax
    acb0:	89 c1                	mov    %eax,%ecx
    acb2:	d3 fa                	sar    %cl,%edx
    acb4:	89 d0                	mov    %edx,%eax
    acb6:	eb 04                	jmp    acbc <safe_rshift_func_uint8_t_u_s+0x2f>
    acb8:	0f b6 45 fc          	movzbl -0x4(%rbp),%eax
    acbc:	5d                   	pop    %rbp
    acbd:	c3                   	retq   

000000000000acbe <safe_rshift_func_uint8_t_u_u>:
    acbe:	f3 0f 1e fa          	endbr64 
    acc2:	55                   	push   %rbp
    acc3:	48 89 e5             	mov    %rsp,%rbp
    acc6:	89 f8                	mov    %edi,%eax
    acc8:	89 75 f8             	mov    %esi,-0x8(%rbp)
    accb:	88 45 fc             	mov    %al,-0x4(%rbp)
    acce:	83 7d f8 1f          	cmpl   $0x1f,-0x8(%rbp)
    acd2:	77 0f                	ja     ace3 <safe_rshift_func_uint8_t_u_u+0x25>
    acd4:	0f b6 55 fc          	movzbl -0x4(%rbp),%edx
    acd8:	8b 45 f8             	mov    -0x8(%rbp),%eax
    acdb:	89 c1                	mov    %eax,%ecx
    acdd:	d3 fa                	sar    %cl,%edx
    acdf:	89 d0                	mov    %edx,%eax
    ace1:	eb 04                	jmp    ace7 <safe_rshift_func_uint8_t_u_u+0x29>
    ace3:	0f b6 45 fc          	movzbl -0x4(%rbp),%eax
    ace7:	5d                   	pop    %rbp
    ace8:	c3                   	retq   

000000000000ace9 <safe_unary_minus_func_uint16_t_u>:
    ace9:	f3 0f 1e fa          	endbr64 
    aced:	55                   	push   %rbp
    acee:	48 89 e5             	mov    %rsp,%rbp
    acf1:	89 f8                	mov    %edi,%eax
    acf3:	66 89 45 fc          	mov    %ax,-0x4(%rbp)
    acf7:	0f b7 45 fc          	movzwl -0x4(%rbp),%eax
    acfb:	f7 d8                	neg    %eax
    acfd:	5d                   	pop    %rbp
    acfe:	c3                   	retq   

000000000000acff <safe_add_func_uint16_t_u_u>:
    acff:	f3 0f 1e fa          	endbr64 
    ad03:	55                   	push   %rbp
    ad04:	48 89 e5             	mov    %rsp,%rbp
    ad07:	89 fa                	mov    %edi,%edx
    ad09:	89 f0                	mov    %esi,%eax
    ad0b:	66 89 55 fc          	mov    %dx,-0x4(%rbp)
    ad0f:	66 89 45 f8          	mov    %ax,-0x8(%rbp)
    ad13:	0f b7 55 fc          	movzwl -0x4(%rbp),%edx
    ad17:	0f b7 45 f8          	movzwl -0x8(%rbp),%eax
    ad1b:	01 d0                	add    %edx,%eax
    ad1d:	5d                   	pop    %rbp
    ad1e:	c3                   	retq   

000000000000ad1f <safe_sub_func_uint16_t_u_u>:
    ad1f:	f3 0f 1e fa          	endbr64 
    ad23:	55                   	push   %rbp
    ad24:	48 89 e5             	mov    %rsp,%rbp
    ad27:	89 fa                	mov    %edi,%edx
    ad29:	89 f0                	mov    %esi,%eax
    ad2b:	66 89 55 fc          	mov    %dx,-0x4(%rbp)
    ad2f:	66 89 45 f8          	mov    %ax,-0x8(%rbp)
    ad33:	0f b7 45 fc          	movzwl -0x4(%rbp),%eax
    ad37:	66 2b 45 f8          	sub    -0x8(%rbp),%ax
    ad3b:	5d                   	pop    %rbp
    ad3c:	c3                   	retq   

000000000000ad3d <safe_mul_func_uint16_t_u_u>:
    ad3d:	f3 0f 1e fa          	endbr64 
    ad41:	55                   	push   %rbp
    ad42:	48 89 e5             	mov    %rsp,%rbp
    ad45:	89 fa                	mov    %edi,%edx
    ad47:	89 f0                	mov    %esi,%eax
    ad49:	66 89 55 fc          	mov    %dx,-0x4(%rbp)
    ad4d:	66 89 45 f8          	mov    %ax,-0x8(%rbp)
    ad51:	0f b7 45 fc          	movzwl -0x4(%rbp),%eax
    ad55:	66 0f af 45 f8       	imul   -0x8(%rbp),%ax
    ad5a:	5d                   	pop    %rbp
    ad5b:	c3                   	retq   

000000000000ad5c <safe_mod_func_uint16_t_u_u>:
    ad5c:	f3 0f 1e fa          	endbr64 
    ad60:	55                   	push   %rbp
    ad61:	48 89 e5             	mov    %rsp,%rbp
    ad64:	89 fa                	mov    %edi,%edx
    ad66:	89 f0                	mov    %esi,%eax
    ad68:	66 89 55 fc          	mov    %dx,-0x4(%rbp)
    ad6c:	66 89 45 f8          	mov    %ax,-0x8(%rbp)
    ad70:	66 83 7d f8 00       	cmpw   $0x0,-0x8(%rbp)
    ad75:	74 11                	je     ad88 <safe_mod_func_uint16_t_u_u+0x2c>
    ad77:	0f b7 45 fc          	movzwl -0x4(%rbp),%eax
    ad7b:	ba 00 00 00 00       	mov    $0x0,%edx
    ad80:	66 f7 75 f8          	divw   -0x8(%rbp)
    ad84:	89 d0                	mov    %edx,%eax
    ad86:	eb 04                	jmp    ad8c <safe_mod_func_uint16_t_u_u+0x30>
    ad88:	0f b7 45 fc          	movzwl -0x4(%rbp),%eax
    ad8c:	5d                   	pop    %rbp
    ad8d:	c3                   	retq   

000000000000ad8e <safe_div_func_uint16_t_u_u>:
    ad8e:	f3 0f 1e fa          	endbr64 
    ad92:	55                   	push   %rbp
    ad93:	48 89 e5             	mov    %rsp,%rbp
    ad96:	89 fa                	mov    %edi,%edx
    ad98:	89 f0                	mov    %esi,%eax
    ad9a:	66 89 55 fc          	mov    %dx,-0x4(%rbp)
    ad9e:	66 89 45 f8          	mov    %ax,-0x8(%rbp)
    ada2:	66 83 7d f8 00       	cmpw   $0x0,-0x8(%rbp)
    ada7:	74 0f                	je     adb8 <safe_div_func_uint16_t_u_u+0x2a>
    ada9:	0f b7 45 fc          	movzwl -0x4(%rbp),%eax
    adad:	ba 00 00 00 00       	mov    $0x0,%edx
    adb2:	66 f7 75 f8          	divw   -0x8(%rbp)
    adb6:	eb 04                	jmp    adbc <safe_div_func_uint16_t_u_u+0x2e>
    adb8:	0f b7 45 fc          	movzwl -0x4(%rbp),%eax
    adbc:	5d                   	pop    %rbp
    adbd:	c3                   	retq   

000000000000adbe <safe_lshift_func_uint16_t_u_s>:
    adbe:	f3 0f 1e fa          	endbr64 
    adc2:	55                   	push   %rbp
    adc3:	48 89 e5             	mov    %rsp,%rbp
    adc6:	89 f8                	mov    %edi,%eax
    adc8:	89 75 f8             	mov    %esi,-0x8(%rbp)
    adcb:	66 89 45 fc          	mov    %ax,-0x4(%rbp)
    adcf:	83 7d f8 00          	cmpl   $0x0,-0x8(%rbp)
    add3:	78 2b                	js     ae00 <safe_lshift_func_uint16_t_u_s+0x42>
    add5:	83 7d f8 1f          	cmpl   $0x1f,-0x8(%rbp)
    add9:	7f 25                	jg     ae00 <safe_lshift_func_uint16_t_u_s+0x42>
    addb:	0f b7 55 fc          	movzwl -0x4(%rbp),%edx
    addf:	8b 45 f8             	mov    -0x8(%rbp),%eax
    ade2:	be ff ff 00 00       	mov    $0xffff,%esi
    ade7:	89 c1                	mov    %eax,%ecx
    ade9:	d3 fe                	sar    %cl,%esi
    adeb:	89 f0                	mov    %esi,%eax
    aded:	39 c2                	cmp    %eax,%edx
    adef:	7f 0f                	jg     ae00 <safe_lshift_func_uint16_t_u_s+0x42>
    adf1:	0f b7 55 fc          	movzwl -0x4(%rbp),%edx
    adf5:	8b 45 f8             	mov    -0x8(%rbp),%eax
    adf8:	89 c1                	mov    %eax,%ecx
    adfa:	d3 e2                	shl    %cl,%edx
    adfc:	89 d0                	mov    %edx,%eax
    adfe:	eb 04                	jmp    ae04 <safe_lshift_func_uint16_t_u_s+0x46>
    ae00:	0f b7 45 fc          	movzwl -0x4(%rbp),%eax
    ae04:	5d                   	pop    %rbp
    ae05:	c3                   	retq   

000000000000ae06 <safe_lshift_func_uint16_t_u_u>:
    ae06:	f3 0f 1e fa          	endbr64 
    ae0a:	55                   	push   %rbp
    ae0b:	48 89 e5             	mov    %rsp,%rbp
    ae0e:	89 f8                	mov    %edi,%eax
    ae10:	89 75 f8             	mov    %esi,-0x8(%rbp)
    ae13:	66 89 45 fc          	mov    %ax,-0x4(%rbp)
    ae17:	83 7d f8 1f          	cmpl   $0x1f,-0x8(%rbp)
    ae1b:	77 25                	ja     ae42 <safe_lshift_func_uint16_t_u_u+0x3c>
    ae1d:	0f b7 55 fc          	movzwl -0x4(%rbp),%edx
    ae21:	8b 45 f8             	mov    -0x8(%rbp),%eax
    ae24:	be ff ff 00 00       	mov    $0xffff,%esi
    ae29:	89 c1                	mov    %eax,%ecx
    ae2b:	d3 fe                	sar    %cl,%esi
    ae2d:	89 f0                	mov    %esi,%eax
    ae2f:	39 c2                	cmp    %eax,%edx
    ae31:	7f 0f                	jg     ae42 <safe_lshift_func_uint16_t_u_u+0x3c>
    ae33:	0f b7 55 fc          	movzwl -0x4(%rbp),%edx
    ae37:	8b 45 f8             	mov    -0x8(%rbp),%eax
    ae3a:	89 c1                	mov    %eax,%ecx
    ae3c:	d3 e2                	shl    %cl,%edx
    ae3e:	89 d0                	mov    %edx,%eax
    ae40:	eb 04                	jmp    ae46 <safe_lshift_func_uint16_t_u_u+0x40>
    ae42:	0f b7 45 fc          	movzwl -0x4(%rbp),%eax
    ae46:	5d                   	pop    %rbp
    ae47:	c3                   	retq   

000000000000ae48 <safe_rshift_func_uint16_t_u_s>:
    ae48:	f3 0f 1e fa          	endbr64 
    ae4c:	55                   	push   %rbp
    ae4d:	48 89 e5             	mov    %rsp,%rbp
    ae50:	89 f8                	mov    %edi,%eax
    ae52:	89 75 f8             	mov    %esi,-0x8(%rbp)
    ae55:	66 89 45 fc          	mov    %ax,-0x4(%rbp)
    ae59:	83 7d f8 00          	cmpl   $0x0,-0x8(%rbp)
    ae5d:	78 15                	js     ae74 <safe_rshift_func_uint16_t_u_s+0x2c>
    ae5f:	83 7d f8 1f          	cmpl   $0x1f,-0x8(%rbp)
    ae63:	7f 0f                	jg     ae74 <safe_rshift_func_uint16_t_u_s+0x2c>
    ae65:	0f b7 55 fc          	movzwl -0x4(%rbp),%edx
    ae69:	8b 45 f8             	mov    -0x8(%rbp),%eax
    ae6c:	89 c1                	mov    %eax,%ecx
    ae6e:	d3 fa                	sar    %cl,%edx
    ae70:	89 d0                	mov    %edx,%eax
    ae72:	eb 04                	jmp    ae78 <safe_rshift_func_uint16_t_u_s+0x30>
    ae74:	0f b7 45 fc          	movzwl -0x4(%rbp),%eax
    ae78:	5d                   	pop    %rbp
    ae79:	c3                   	retq   

000000000000ae7a <safe_rshift_func_uint16_t_u_u>:
    ae7a:	f3 0f 1e fa          	endbr64 
    ae7e:	55                   	push   %rbp
    ae7f:	48 89 e5             	mov    %rsp,%rbp
    ae82:	89 f8                	mov    %edi,%eax
    ae84:	89 75 f8             	mov    %esi,-0x8(%rbp)
    ae87:	66 89 45 fc          	mov    %ax,-0x4(%rbp)
    ae8b:	83 7d f8 1f          	cmpl   $0x1f,-0x8(%rbp)
    ae8f:	77 0f                	ja     aea0 <safe_rshift_func_uint16_t_u_u+0x26>
    ae91:	0f b7 55 fc          	movzwl -0x4(%rbp),%edx
    ae95:	8b 45 f8             	mov    -0x8(%rbp),%eax
    ae98:	89 c1                	mov    %eax,%ecx
    ae9a:	d3 fa                	sar    %cl,%edx
    ae9c:	89 d0                	mov    %edx,%eax
    ae9e:	eb 04                	jmp    aea4 <safe_rshift_func_uint16_t_u_u+0x2a>
    aea0:	0f b7 45 fc          	movzwl -0x4(%rbp),%eax
    aea4:	5d                   	pop    %rbp
    aea5:	c3                   	retq   

000000000000aea6 <safe_unary_minus_func_uint32_t_u>:
    aea6:	f3 0f 1e fa          	endbr64 
    aeaa:	55                   	push   %rbp
    aeab:	48 89 e5             	mov    %rsp,%rbp
    aeae:	89 7d fc             	mov    %edi,-0x4(%rbp)
    aeb1:	8b 45 fc             	mov    -0x4(%rbp),%eax
    aeb4:	f7 d8                	neg    %eax
    aeb6:	5d                   	pop    %rbp
    aeb7:	c3                   	retq   

000000000000aeb8 <safe_add_func_uint32_t_u_u>:
    aeb8:	f3 0f 1e fa          	endbr64 
    aebc:	55                   	push   %rbp
    aebd:	48 89 e5             	mov    %rsp,%rbp
    aec0:	89 7d fc             	mov    %edi,-0x4(%rbp)
    aec3:	89 75 f8             	mov    %esi,-0x8(%rbp)
    aec6:	8b 55 fc             	mov    -0x4(%rbp),%edx
    aec9:	8b 45 f8             	mov    -0x8(%rbp),%eax
    aecc:	01 d0                	add    %edx,%eax
    aece:	5d                   	pop    %rbp
    aecf:	c3                   	retq   

000000000000aed0 <safe_sub_func_uint32_t_u_u>:
    aed0:	f3 0f 1e fa          	endbr64 
    aed4:	55                   	push   %rbp
    aed5:	48 89 e5             	mov    %rsp,%rbp
    aed8:	89 7d fc             	mov    %edi,-0x4(%rbp)
    aedb:	89 75 f8             	mov    %esi,-0x8(%rbp)
    aede:	8b 45 fc             	mov    -0x4(%rbp),%eax
    aee1:	2b 45 f8             	sub    -0x8(%rbp),%eax
    aee4:	5d                   	pop    %rbp
    aee5:	c3                   	retq   

000000000000aee6 <safe_mul_func_uint32_t_u_u>:
    aee6:	f3 0f 1e fa          	endbr64 
    aeea:	55                   	push   %rbp
    aeeb:	48 89 e5             	mov    %rsp,%rbp
    aeee:	89 7d fc             	mov    %edi,-0x4(%rbp)
    aef1:	89 75 f8             	mov    %esi,-0x8(%rbp)
    aef4:	8b 45 fc             	mov    -0x4(%rbp),%eax
    aef7:	0f af 45 f8          	imul   -0x8(%rbp),%eax
    aefb:	5d                   	pop    %rbp
    aefc:	c3                   	retq   

000000000000aefd <safe_mod_func_uint32_t_u_u>:
    aefd:	f3 0f 1e fa          	endbr64 
    af01:	55                   	push   %rbp
    af02:	48 89 e5             	mov    %rsp,%rbp
    af05:	89 7d fc             	mov    %edi,-0x4(%rbp)
    af08:	89 75 f8             	mov    %esi,-0x8(%rbp)
    af0b:	83 7d f8 00          	cmpl   $0x0,-0x8(%rbp)
    af0f:	74 0f                	je     af20 <safe_mod_func_uint32_t_u_u+0x23>
    af11:	8b 45 fc             	mov    -0x4(%rbp),%eax
    af14:	ba 00 00 00 00       	mov    $0x0,%edx
    af19:	f7 75 f8             	divl   -0x8(%rbp)
    af1c:	89 d0                	mov    %edx,%eax
    af1e:	eb 03                	jmp    af23 <safe_mod_func_uint32_t_u_u+0x26>
    af20:	8b 45 fc             	mov    -0x4(%rbp),%eax
    af23:	5d                   	pop    %rbp
    af24:	c3                   	retq   

000000000000af25 <safe_div_func_uint32_t_u_u>:
    af25:	f3 0f 1e fa          	endbr64 
    af29:	55                   	push   %rbp
    af2a:	48 89 e5             	mov    %rsp,%rbp
    af2d:	89 7d fc             	mov    %edi,-0x4(%rbp)
    af30:	89 75 f8             	mov    %esi,-0x8(%rbp)
    af33:	83 7d f8 00          	cmpl   $0x0,-0x8(%rbp)
    af37:	74 0d                	je     af46 <safe_div_func_uint32_t_u_u+0x21>
    af39:	8b 45 fc             	mov    -0x4(%rbp),%eax
    af3c:	ba 00 00 00 00       	mov    $0x0,%edx
    af41:	f7 75 f8             	divl   -0x8(%rbp)
    af44:	eb 03                	jmp    af49 <safe_div_func_uint32_t_u_u+0x24>
    af46:	8b 45 fc             	mov    -0x4(%rbp),%eax
    af49:	5d                   	pop    %rbp
    af4a:	c3                   	retq   

000000000000af4b <safe_lshift_func_uint32_t_u_s>:
    af4b:	f3 0f 1e fa          	endbr64 
    af4f:	55                   	push   %rbp
    af50:	48 89 e5             	mov    %rsp,%rbp
    af53:	89 7d fc             	mov    %edi,-0x4(%rbp)
    af56:	89 75 f8             	mov    %esi,-0x8(%rbp)
    af59:	83 7d f8 00          	cmpl   $0x0,-0x8(%rbp)
    af5d:	78 27                	js     af86 <safe_lshift_func_uint32_t_u_s+0x3b>
    af5f:	83 7d f8 1f          	cmpl   $0x1f,-0x8(%rbp)
    af63:	7f 21                	jg     af86 <safe_lshift_func_uint32_t_u_s+0x3b>
    af65:	8b 45 f8             	mov    -0x8(%rbp),%eax
    af68:	ba ff ff ff ff       	mov    $0xffffffff,%edx
    af6d:	89 c1                	mov    %eax,%ecx
    af6f:	d3 ea                	shr    %cl,%edx
    af71:	89 d0                	mov    %edx,%eax
    af73:	39 45 fc             	cmp    %eax,-0x4(%rbp)
    af76:	77 0e                	ja     af86 <safe_lshift_func_uint32_t_u_s+0x3b>
    af78:	8b 45 f8             	mov    -0x8(%rbp),%eax
    af7b:	8b 55 fc             	mov    -0x4(%rbp),%edx
    af7e:	89 c1                	mov    %eax,%ecx
    af80:	d3 e2                	shl    %cl,%edx
    af82:	89 d0                	mov    %edx,%eax
    af84:	eb 03                	jmp    af89 <safe_lshift_func_uint32_t_u_s+0x3e>
    af86:	8b 45 fc             	mov    -0x4(%rbp),%eax
    af89:	5d                   	pop    %rbp
    af8a:	c3                   	retq   

000000000000af8b <safe_lshift_func_uint32_t_u_u>:
    af8b:	f3 0f 1e fa          	endbr64 
    af8f:	55                   	push   %rbp
    af90:	48 89 e5             	mov    %rsp,%rbp
    af93:	89 7d fc             	mov    %edi,-0x4(%rbp)
    af96:	89 75 f8             	mov    %esi,-0x8(%rbp)
    af99:	83 7d f8 1f          	cmpl   $0x1f,-0x8(%rbp)
    af9d:	77 21                	ja     afc0 <safe_lshift_func_uint32_t_u_u+0x35>
    af9f:	8b 45 f8             	mov    -0x8(%rbp),%eax
    afa2:	ba ff ff ff ff       	mov    $0xffffffff,%edx
    afa7:	89 c1                	mov    %eax,%ecx
    afa9:	d3 ea                	shr    %cl,%edx
    afab:	89 d0                	mov    %edx,%eax
    afad:	39 45 fc             	cmp    %eax,-0x4(%rbp)
    afb0:	77 0e                	ja     afc0 <safe_lshift_func_uint32_t_u_u+0x35>
    afb2:	8b 45 f8             	mov    -0x8(%rbp),%eax
    afb5:	8b 55 fc             	mov    -0x4(%rbp),%edx
    afb8:	89 c1                	mov    %eax,%ecx
    afba:	d3 e2                	shl    %cl,%edx
    afbc:	89 d0                	mov    %edx,%eax
    afbe:	eb 03                	jmp    afc3 <safe_lshift_func_uint32_t_u_u+0x38>
    afc0:	8b 45 fc             	mov    -0x4(%rbp),%eax
    afc3:	5d                   	pop    %rbp
    afc4:	c3                   	retq   

000000000000afc5 <safe_rshift_func_uint32_t_u_s>:
    afc5:	f3 0f 1e fa          	endbr64 
    afc9:	55                   	push   %rbp
    afca:	48 89 e5             	mov    %rsp,%rbp
    afcd:	89 7d fc             	mov    %edi,-0x4(%rbp)
    afd0:	89 75 f8             	mov    %esi,-0x8(%rbp)
    afd3:	83 7d f8 00          	cmpl   $0x0,-0x8(%rbp)
    afd7:	78 14                	js     afed <safe_rshift_func_uint32_t_u_s+0x28>
    afd9:	83 7d f8 1f          	cmpl   $0x1f,-0x8(%rbp)
    afdd:	7f 0e                	jg     afed <safe_rshift_func_uint32_t_u_s+0x28>
    afdf:	8b 45 f8             	mov    -0x8(%rbp),%eax
    afe2:	8b 55 fc             	mov    -0x4(%rbp),%edx
    afe5:	89 c1                	mov    %eax,%ecx
    afe7:	d3 ea                	shr    %cl,%edx
    afe9:	89 d0                	mov    %edx,%eax
    afeb:	eb 03                	jmp    aff0 <safe_rshift_func_uint32_t_u_s+0x2b>
    afed:	8b 45 fc             	mov    -0x4(%rbp),%eax
    aff0:	5d                   	pop    %rbp
    aff1:	c3                   	retq   

000000000000aff2 <safe_rshift_func_uint32_t_u_u>:
    aff2:	f3 0f 1e fa          	endbr64 
    aff6:	55                   	push   %rbp
    aff7:	48 89 e5             	mov    %rsp,%rbp
    affa:	89 7d fc             	mov    %edi,-0x4(%rbp)
    affd:	89 75 f8             	mov    %esi,-0x8(%rbp)
    b000:	83 7d f8 1f          	cmpl   $0x1f,-0x8(%rbp)
    b004:	77 0e                	ja     b014 <safe_rshift_func_uint32_t_u_u+0x22>
    b006:	8b 45 f8             	mov    -0x8(%rbp),%eax
    b009:	8b 55 fc             	mov    -0x4(%rbp),%edx
    b00c:	89 c1                	mov    %eax,%ecx
    b00e:	d3 ea                	shr    %cl,%edx
    b010:	89 d0                	mov    %edx,%eax
    b012:	eb 03                	jmp    b017 <safe_rshift_func_uint32_t_u_u+0x25>
    b014:	8b 45 fc             	mov    -0x4(%rbp),%eax
    b017:	5d                   	pop    %rbp
    b018:	c3                   	retq   

000000000000b019 <safe_unary_minus_func_uint64_t_u>:
    b019:	f3 0f 1e fa          	endbr64 
    b01d:	55                   	push   %rbp
    b01e:	48 89 e5             	mov    %rsp,%rbp
    b021:	48 89 7d f8          	mov    %rdi,-0x8(%rbp)
    b025:	48 8b 45 f8          	mov    -0x8(%rbp),%rax
    b029:	48 f7 d8             	neg    %rax
    b02c:	5d                   	pop    %rbp
    b02d:	c3                   	retq   

000000000000b02e <safe_add_func_uint64_t_u_u>:
    b02e:	f3 0f 1e fa          	endbr64 
    b032:	55                   	push   %rbp
    b033:	48 89 e5             	mov    %rsp,%rbp
    b036:	48 89 7d f8          	mov    %rdi,-0x8(%rbp)
    b03a:	48 89 75 f0          	mov    %rsi,-0x10(%rbp)
    b03e:	48 8b 55 f8          	mov    -0x8(%rbp),%rdx
    b042:	48 8b 45 f0          	mov    -0x10(%rbp),%rax
    b046:	48 01 d0             	add    %rdx,%rax
    b049:	5d                   	pop    %rbp
    b04a:	c3                   	retq   

000000000000b04b <safe_sub_func_uint64_t_u_u>:
    b04b:	f3 0f 1e fa          	endbr64 
    b04f:	55                   	push   %rbp
    b050:	48 89 e5             	mov    %rsp,%rbp
    b053:	48 89 7d f8          	mov    %rdi,-0x8(%rbp)
    b057:	48 89 75 f0          	mov    %rsi,-0x10(%rbp)
    b05b:	48 8b 45 f8          	mov    -0x8(%rbp),%rax
    b05f:	48 2b 45 f0          	sub    -0x10(%rbp),%rax
    b063:	5d                   	pop    %rbp
    b064:	c3                   	retq   

000000000000b065 <safe_mul_func_uint64_t_u_u>:
    b065:	f3 0f 1e fa          	endbr64 
    b069:	55                   	push   %rbp
    b06a:	48 89 e5             	mov    %rsp,%rbp
    b06d:	48 89 7d f8          	mov    %rdi,-0x8(%rbp)
    b071:	48 89 75 f0          	mov    %rsi,-0x10(%rbp)
    b075:	48 8b 45 f8          	mov    -0x8(%rbp),%rax
    b079:	48 0f af 45 f0       	imul   -0x10(%rbp),%rax
    b07e:	5d                   	pop    %rbp
    b07f:	c3                   	retq   

000000000000b080 <safe_mod_func_uint64_t_u_u>:
    b080:	f3 0f 1e fa          	endbr64 
    b084:	55                   	push   %rbp
    b085:	48 89 e5             	mov    %rsp,%rbp
    b088:	48 89 7d f8          	mov    %rdi,-0x8(%rbp)
    b08c:	48 89 75 f0          	mov    %rsi,-0x10(%rbp)
    b090:	48 83 7d f0 00       	cmpq   $0x0,-0x10(%rbp)
    b095:	74 12                	je     b0a9 <safe_mod_func_uint64_t_u_u+0x29>
    b097:	48 8b 45 f8          	mov    -0x8(%rbp),%rax
    b09b:	ba 00 00 00 00       	mov    $0x0,%edx
    b0a0:	48 f7 75 f0          	divq   -0x10(%rbp)
    b0a4:	48 89 d0             	mov    %rdx,%rax
    b0a7:	eb 04                	jmp    b0ad <safe_mod_func_uint64_t_u_u+0x2d>
    b0a9:	48 8b 45 f8          	mov    -0x8(%rbp),%rax
    b0ad:	5d                   	pop    %rbp
    b0ae:	c3                   	retq   

000000000000b0af <safe_div_func_uint64_t_u_u>:
    b0af:	f3 0f 1e fa          	endbr64 
    b0b3:	55                   	push   %rbp
    b0b4:	48 89 e5             	mov    %rsp,%rbp
    b0b7:	48 89 7d f8          	mov    %rdi,-0x8(%rbp)
    b0bb:	48 89 75 f0          	mov    %rsi,-0x10(%rbp)
    b0bf:	48 83 7d f0 00       	cmpq   $0x0,-0x10(%rbp)
    b0c4:	74 0f                	je     b0d5 <safe_div_func_uint64_t_u_u+0x26>
    b0c6:	48 8b 45 f8          	mov    -0x8(%rbp),%rax
    b0ca:	ba 00 00 00 00       	mov    $0x0,%edx
    b0cf:	48 f7 75 f0          	divq   -0x10(%rbp)
    b0d3:	eb 04                	jmp    b0d9 <safe_div_func_uint64_t_u_u+0x2a>
    b0d5:	48 8b 45 f8          	mov    -0x8(%rbp),%rax
    b0d9:	5d                   	pop    %rbp
    b0da:	c3                   	retq   

000000000000b0db <safe_lshift_func_uint64_t_u_s>:
    b0db:	f3 0f 1e fa          	endbr64 
    b0df:	55                   	push   %rbp
    b0e0:	48 89 e5             	mov    %rsp,%rbp
    b0e3:	48 89 7d f8          	mov    %rdi,-0x8(%rbp)
    b0e7:	89 75 f4             	mov    %esi,-0xc(%rbp)
    b0ea:	83 7d f4 00          	cmpl   $0x0,-0xc(%rbp)
    b0ee:	78 2f                	js     b11f <safe_lshift_func_uint64_t_u_s+0x44>
    b0f0:	83 7d f4 1f          	cmpl   $0x1f,-0xc(%rbp)
    b0f4:	7f 29                	jg     b11f <safe_lshift_func_uint64_t_u_s+0x44>
    b0f6:	8b 45 f4             	mov    -0xc(%rbp),%eax
    b0f9:	48 c7 c2 ff ff ff ff 	mov    $0xffffffffffffffff,%rdx
    b100:	89 c1                	mov    %eax,%ecx
    b102:	48 d3 ea             	shr    %cl,%rdx
    b105:	48 89 d0             	mov    %rdx,%rax
    b108:	48 39 45 f8          	cmp    %rax,-0x8(%rbp)
    b10c:	77 11                	ja     b11f <safe_lshift_func_uint64_t_u_s+0x44>
    b10e:	8b 45 f4             	mov    -0xc(%rbp),%eax
    b111:	48 8b 55 f8          	mov    -0x8(%rbp),%rdx
    b115:	89 c1                	mov    %eax,%ecx
    b117:	48 d3 e2             	shl    %cl,%rdx
    b11a:	48 89 d0             	mov    %rdx,%rax
    b11d:	eb 04                	jmp    b123 <safe_lshift_func_uint64_t_u_s+0x48>
    b11f:	48 8b 45 f8          	mov    -0x8(%rbp),%rax
    b123:	5d                   	pop    %rbp
    b124:	c3                   	retq   

000000000000b125 <safe_lshift_func_uint64_t_u_u>:
    b125:	f3 0f 1e fa          	endbr64 
    b129:	55                   	push   %rbp
    b12a:	48 89 e5             	mov    %rsp,%rbp
    b12d:	48 89 7d f8          	mov    %rdi,-0x8(%rbp)
    b131:	89 75 f4             	mov    %esi,-0xc(%rbp)
    b134:	83 7d f4 1f          	cmpl   $0x1f,-0xc(%rbp)
    b138:	77 29                	ja     b163 <safe_lshift_func_uint64_t_u_u+0x3e>
    b13a:	8b 45 f4             	mov    -0xc(%rbp),%eax
    b13d:	48 c7 c2 ff ff ff ff 	mov    $0xffffffffffffffff,%rdx
    b144:	89 c1                	mov    %eax,%ecx
    b146:	48 d3 ea             	shr    %cl,%rdx
    b149:	48 89 d0             	mov    %rdx,%rax
    b14c:	48 39 45 f8          	cmp    %rax,-0x8(%rbp)
    b150:	77 11                	ja     b163 <safe_lshift_func_uint64_t_u_u+0x3e>
    b152:	8b 45 f4             	mov    -0xc(%rbp),%eax
    b155:	48 8b 55 f8          	mov    -0x8(%rbp),%rdx
    b159:	89 c1                	mov    %eax,%ecx
    b15b:	48 d3 e2             	shl    %cl,%rdx
    b15e:	48 89 d0             	mov    %rdx,%rax
    b161:	eb 04                	jmp    b167 <safe_lshift_func_uint64_t_u_u+0x42>
    b163:	48 8b 45 f8          	mov    -0x8(%rbp),%rax
    b167:	5d                   	pop    %rbp
    b168:	c3                   	retq   

000000000000b169 <safe_rshift_func_uint64_t_u_s>:
    b169:	f3 0f 1e fa          	endbr64 
    b16d:	55                   	push   %rbp
    b16e:	48 89 e5             	mov    %rsp,%rbp
    b171:	48 89 7d f8          	mov    %rdi,-0x8(%rbp)
    b175:	89 75 f4             	mov    %esi,-0xc(%rbp)
    b178:	83 7d f4 00          	cmpl   $0x0,-0xc(%rbp)
    b17c:	78 17                	js     b195 <safe_rshift_func_uint64_t_u_s+0x2c>
    b17e:	83 7d f4 1f          	cmpl   $0x1f,-0xc(%rbp)
    b182:	7f 11                	jg     b195 <safe_rshift_func_uint64_t_u_s+0x2c>
    b184:	8b 45 f4             	mov    -0xc(%rbp),%eax
    b187:	48 8b 55 f8          	mov    -0x8(%rbp),%rdx
    b18b:	89 c1                	mov    %eax,%ecx
    b18d:	48 d3 ea             	shr    %cl,%rdx
    b190:	48 89 d0             	mov    %rdx,%rax
    b193:	eb 04                	jmp    b199 <safe_rshift_func_uint64_t_u_s+0x30>
    b195:	48 8b 45 f8          	mov    -0x8(%rbp),%rax
    b199:	5d                   	pop    %rbp
    b19a:	c3                   	retq   

000000000000b19b <safe_rshift_func_uint64_t_u_u>:
    b19b:	f3 0f 1e fa          	endbr64 
    b19f:	55                   	push   %rbp
    b1a0:	48 89 e5             	mov    %rsp,%rbp
    b1a3:	48 89 7d f8          	mov    %rdi,-0x8(%rbp)
    b1a7:	89 75 f4             	mov    %esi,-0xc(%rbp)
    b1aa:	83 7d f4 1f          	cmpl   $0x1f,-0xc(%rbp)
    b1ae:	77 11                	ja     b1c1 <safe_rshift_func_uint64_t_u_u+0x26>
    b1b0:	8b 45 f4             	mov    -0xc(%rbp),%eax
    b1b3:	48 8b 55 f8          	mov    -0x8(%rbp),%rdx
    b1b7:	89 c1                	mov    %eax,%ecx
    b1b9:	48 d3 ea             	shr    %cl,%rdx
    b1bc:	48 89 d0             	mov    %rdx,%rax
    b1bf:	eb 04                	jmp    b1c5 <safe_rshift_func_uint64_t_u_u+0x2a>
    b1c1:	48 8b 45 f8          	mov    -0x8(%rbp),%rax
    b1c5:	5d                   	pop    %rbp
    b1c6:	c3                   	retq   

000000000000b1c7 <safe_add_func_float_f_f>:
    b1c7:	f3 0f 1e fa          	endbr64 
    b1cb:	55                   	push   %rbp
    b1cc:	48 89 e5             	mov    %rsp,%rbp
    b1cf:	f3 0f 11 45 fc       	movss  %xmm0,-0x4(%rbp)
    b1d4:	f3 0f 11 4d f8       	movss  %xmm1,-0x8(%rbp)
    b1d9:	f3 0f 10 4d fc       	movss  -0x4(%rbp),%xmm1
    b1de:	f3 0f 10 05 7a 2d 01 	movss  0x12d7a(%rip),%xmm0        # 1df60 <l_1613.4962+0x1e0>
    b1e5:	00 
    b1e6:	f3 0f 59 c8          	mulss  %xmm0,%xmm1
    b1ea:	f3 0f 10 55 f8       	movss  -0x8(%rbp),%xmm2
    b1ef:	f3 0f 10 05 69 2d 01 	movss  0x12d69(%rip),%xmm0        # 1df60 <l_1613.4962+0x1e0>
    b1f6:	00 
    b1f7:	f3 0f 59 c2          	mulss  %xmm2,%xmm0
    b1fb:	f3 0f 58 c1          	addss  %xmm1,%xmm0
    b1ff:	f3 0f 10 0d 69 2d 01 	movss  0x12d69(%rip),%xmm1        # 1df70 <l_1613.4962+0x1f0>
    b206:	00 
    b207:	0f 54 c1             	andps  %xmm1,%xmm0
    b20a:	0f 2f 05 6f 2d 01 00 	comiss 0x12d6f(%rip),%xmm0        # 1df80 <l_1613.4962+0x200>
    b211:	76 07                	jbe    b21a <safe_add_func_float_f_f+0x53>
    b213:	f3 0f 10 45 fc       	movss  -0x4(%rbp),%xmm0
    b218:	eb 0a                	jmp    b224 <safe_add_func_float_f_f+0x5d>
    b21a:	f3 0f 10 45 fc       	movss  -0x4(%rbp),%xmm0
    b21f:	f3 0f 58 45 f8       	addss  -0x8(%rbp),%xmm0
    b224:	5d                   	pop    %rbp
    b225:	c3                   	retq   

000000000000b226 <safe_sub_func_float_f_f>:
    b226:	f3 0f 1e fa          	endbr64 
    b22a:	55                   	push   %rbp
    b22b:	48 89 e5             	mov    %rsp,%rbp
    b22e:	f3 0f 11 45 fc       	movss  %xmm0,-0x4(%rbp)
    b233:	f3 0f 11 4d f8       	movss  %xmm1,-0x8(%rbp)
    b238:	f3 0f 10 4d fc       	movss  -0x4(%rbp),%xmm1
    b23d:	f3 0f 10 05 1b 2d 01 	movss  0x12d1b(%rip),%xmm0        # 1df60 <l_1613.4962+0x1e0>
    b244:	00 
    b245:	f3 0f 59 c1          	mulss  %xmm1,%xmm0
    b249:	f3 0f 10 55 f8       	movss  -0x8(%rbp),%xmm2
    b24e:	f3 0f 10 0d 0a 2d 01 	movss  0x12d0a(%rip),%xmm1        # 1df60 <l_1613.4962+0x1e0>
    b255:	00 
    b256:	f3 0f 59 ca          	mulss  %xmm2,%xmm1
    b25a:	f3 0f 5c c1          	subss  %xmm1,%xmm0
    b25e:	f3 0f 10 0d 0a 2d 01 	movss  0x12d0a(%rip),%xmm1        # 1df70 <l_1613.4962+0x1f0>
    b265:	00 
    b266:	0f 54 c1             	andps  %xmm1,%xmm0
    b269:	0f 2f 05 10 2d 01 00 	comiss 0x12d10(%rip),%xmm0        # 1df80 <l_1613.4962+0x200>
    b270:	76 07                	jbe    b279 <safe_sub_func_float_f_f+0x53>
    b272:	f3 0f 10 45 fc       	movss  -0x4(%rbp),%xmm0
    b277:	eb 0a                	jmp    b283 <safe_sub_func_float_f_f+0x5d>
    b279:	f3 0f 10 45 fc       	movss  -0x4(%rbp),%xmm0
    b27e:	f3 0f 5c 45 f8       	subss  -0x8(%rbp),%xmm0
    b283:	5d                   	pop    %rbp
    b284:	c3                   	retq   

000000000000b285 <safe_mul_func_float_f_f>:
    b285:	f3 0f 1e fa          	endbr64 
    b289:	55                   	push   %rbp
    b28a:	48 89 e5             	mov    %rsp,%rbp
    b28d:	f3 0f 11 45 fc       	movss  %xmm0,-0x4(%rbp)
    b292:	f3 0f 11 4d f8       	movss  %xmm1,-0x8(%rbp)
    b297:	f3 0f 10 4d fc       	movss  -0x4(%rbp),%xmm1
    b29c:	f3 0f 10 05 e0 2c 01 	movss  0x12ce0(%rip),%xmm0        # 1df84 <l_1613.4962+0x204>
    b2a3:	00 
    b2a4:	f3 0f 59 c8          	mulss  %xmm0,%xmm1
    b2a8:	f3 0f 10 55 f8       	movss  -0x8(%rbp),%xmm2
    b2ad:	f3 0f 10 05 d3 2c 01 	movss  0x12cd3(%rip),%xmm0        # 1df88 <l_1613.4962+0x208>
    b2b4:	00 
    b2b5:	f3 0f 59 c2          	mulss  %xmm2,%xmm0
    b2b9:	f3 0f 59 c1          	mulss  %xmm1,%xmm0
    b2bd:	f3 0f 10 0d ab 2c 01 	movss  0x12cab(%rip),%xmm1        # 1df70 <l_1613.4962+0x1f0>
    b2c4:	00 
    b2c5:	0f 54 c1             	andps  %xmm1,%xmm0
    b2c8:	0f 2f 05 bd 2c 01 00 	comiss 0x12cbd(%rip),%xmm0        # 1df8c <l_1613.4962+0x20c>
    b2cf:	76 07                	jbe    b2d8 <safe_mul_func_float_f_f+0x53>
    b2d1:	f3 0f 10 45 fc       	movss  -0x4(%rbp),%xmm0
    b2d6:	eb 0a                	jmp    b2e2 <safe_mul_func_float_f_f+0x5d>
    b2d8:	f3 0f 10 45 fc       	movss  -0x4(%rbp),%xmm0
    b2dd:	f3 0f 59 45 f8       	mulss  -0x8(%rbp),%xmm0
    b2e2:	5d                   	pop    %rbp
    b2e3:	c3                   	retq   

000000000000b2e4 <safe_div_func_float_f_f>:
    b2e4:	f3 0f 1e fa          	endbr64 
    b2e8:	55                   	push   %rbp
    b2e9:	48 89 e5             	mov    %rsp,%rbp
    b2ec:	f3 0f 11 45 fc       	movss  %xmm0,-0x4(%rbp)
    b2f1:	f3 0f 11 4d f8       	movss  %xmm1,-0x8(%rbp)
    b2f6:	f3 0f 10 45 f8       	movss  -0x8(%rbp),%xmm0
    b2fb:	f3 0f 10 0d 6d 2c 01 	movss  0x12c6d(%rip),%xmm1        # 1df70 <l_1613.4962+0x1f0>
    b302:	00 
    b303:	0f 54 c8             	andps  %xmm0,%xmm1
    b306:	f3 0f 10 05 82 2c 01 	movss  0x12c82(%rip),%xmm0        # 1df90 <l_1613.4962+0x210>
    b30d:	00 
    b30e:	0f 2f c1             	comiss %xmm1,%xmm0
    b311:	0f 97 c0             	seta   %al
    b314:	83 f0 01             	xor    $0x1,%eax
    b317:	84 c0                	test   %al,%al
    b319:	75 56                	jne    b371 <safe_div_func_float_f_f+0x8d>
    b31b:	66 0f ef c0          	pxor   %xmm0,%xmm0
    b31f:	0f 2e 45 f8          	ucomiss -0x8(%rbp),%xmm0
    b323:	7a 0a                	jp     b32f <safe_div_func_float_f_f+0x4b>
    b325:	66 0f ef c0          	pxor   %xmm0,%xmm0
    b329:	0f 2e 45 f8          	ucomiss -0x8(%rbp),%xmm0
    b32d:	74 4e                	je     b37d <safe_div_func_float_f_f+0x99>
    b32f:	f3 0f 10 4d fc       	movss  -0x4(%rbp),%xmm1
    b334:	f3 0f 10 05 58 2c 01 	movss  0x12c58(%rip),%xmm0        # 1df94 <l_1613.4962+0x214>
    b33b:	00 
    b33c:	f3 0f 59 c1          	mulss  %xmm1,%xmm0
    b340:	f3 0f 10 55 f8       	movss  -0x8(%rbp),%xmm2
    b345:	f3 0f 10 0d 4b 2c 01 	movss  0x12c4b(%rip),%xmm1        # 1df98 <l_1613.4962+0x218>
    b34c:	00 
    b34d:	f3 0f 59 ca          	mulss  %xmm2,%xmm1
    b351:	f3 0f 5e c1          	divss  %xmm1,%xmm0
    b355:	f3 0f 10 0d 13 2c 01 	movss  0x12c13(%rip),%xmm1        # 1df70 <l_1613.4962+0x1f0>
    b35c:	00 
    b35d:	0f 54 c1             	andps  %xmm1,%xmm0
    b360:	0f 2f 05 35 2c 01 00 	comiss 0x12c35(%rip),%xmm0        # 1df9c <l_1613.4962+0x21c>
    b367:	0f 97 c0             	seta   %al
    b36a:	83 f0 01             	xor    $0x1,%eax
    b36d:	84 c0                	test   %al,%al
    b36f:	74 0c                	je     b37d <safe_div_func_float_f_f+0x99>
    b371:	f3 0f 10 45 fc       	movss  -0x4(%rbp),%xmm0
    b376:	f3 0f 5e 45 f8       	divss  -0x8(%rbp),%xmm0
    b37b:	eb 05                	jmp    b382 <safe_div_func_float_f_f+0x9e>
    b37d:	f3 0f 10 45 fc       	movss  -0x4(%rbp),%xmm0
    b382:	5d                   	pop    %rbp
    b383:	c3                   	retq   

000000000000b384 <safe_add_func_double_f_f>:
    b384:	f3 0f 1e fa          	endbr64 
    b388:	55                   	push   %rbp
    b389:	48 89 e5             	mov    %rsp,%rbp
    b38c:	f2 0f 11 45 f8       	movsd  %xmm0,-0x8(%rbp)
    b391:	f2 0f 11 4d f0       	movsd  %xmm1,-0x10(%rbp)
    b396:	f2 0f 10 4d f8       	movsd  -0x8(%rbp),%xmm1
    b39b:	f2 0f 10 05 fd 2b 01 	movsd  0x12bfd(%rip),%xmm0        # 1dfa0 <l_1613.4962+0x220>
    b3a2:	00 
    b3a3:	f2 0f 59 c8          	mulsd  %xmm0,%xmm1
    b3a7:	f2 0f 10 55 f0       	movsd  -0x10(%rbp),%xmm2
    b3ac:	f2 0f 10 05 ec 2b 01 	movsd  0x12bec(%rip),%xmm0        # 1dfa0 <l_1613.4962+0x220>
    b3b3:	00 
    b3b4:	f2 0f 59 c2          	mulsd  %xmm2,%xmm0
    b3b8:	f2 0f 58 c1          	addsd  %xmm1,%xmm0
    b3bc:	f3 0f 7e 0d ec 2b 01 	movq   0x12bec(%rip),%xmm1        # 1dfb0 <l_1613.4962+0x230>
    b3c3:	00 
    b3c4:	66 0f 54 c1          	andpd  %xmm1,%xmm0
    b3c8:	66 0f 2f 05 f0 2b 01 	comisd 0x12bf0(%rip),%xmm0        # 1dfc0 <l_1613.4962+0x240>
    b3cf:	00 
    b3d0:	76 07                	jbe    b3d9 <safe_add_func_double_f_f+0x55>
    b3d2:	f2 0f 10 45 f8       	movsd  -0x8(%rbp),%xmm0
    b3d7:	eb 0a                	jmp    b3e3 <safe_add_func_double_f_f+0x5f>
    b3d9:	f2 0f 10 45 f8       	movsd  -0x8(%rbp),%xmm0
    b3de:	f2 0f 58 45 f0       	addsd  -0x10(%rbp),%xmm0
    b3e3:	5d                   	pop    %rbp
    b3e4:	c3                   	retq   

000000000000b3e5 <safe_sub_func_double_f_f>:
    b3e5:	f3 0f 1e fa          	endbr64 
    b3e9:	55                   	push   %rbp
    b3ea:	48 89 e5             	mov    %rsp,%rbp
    b3ed:	f2 0f 11 45 f8       	movsd  %xmm0,-0x8(%rbp)
    b3f2:	f2 0f 11 4d f0       	movsd  %xmm1,-0x10(%rbp)
    b3f7:	f2 0f 10 4d f8       	movsd  -0x8(%rbp),%xmm1
    b3fc:	f2 0f 10 05 9c 2b 01 	movsd  0x12b9c(%rip),%xmm0        # 1dfa0 <l_1613.4962+0x220>
    b403:	00 
    b404:	f2 0f 59 c1          	mulsd  %xmm1,%xmm0
    b408:	f2 0f 10 55 f0       	movsd  -0x10(%rbp),%xmm2
    b40d:	f2 0f 10 0d 8b 2b 01 	movsd  0x12b8b(%rip),%xmm1        # 1dfa0 <l_1613.4962+0x220>
    b414:	00 
    b415:	f2 0f 59 ca          	mulsd  %xmm2,%xmm1
    b419:	f2 0f 5c c1          	subsd  %xmm1,%xmm0
    b41d:	f3 0f 7e 0d 8b 2b 01 	movq   0x12b8b(%rip),%xmm1        # 1dfb0 <l_1613.4962+0x230>
    b424:	00 
    b425:	66 0f 54 c1          	andpd  %xmm1,%xmm0
    b429:	66 0f 2f 05 8f 2b 01 	comisd 0x12b8f(%rip),%xmm0        # 1dfc0 <l_1613.4962+0x240>
    b430:	00 
    b431:	76 07                	jbe    b43a <safe_sub_func_double_f_f+0x55>
    b433:	f2 0f 10 45 f8       	movsd  -0x8(%rbp),%xmm0
    b438:	eb 0a                	jmp    b444 <safe_sub_func_double_f_f+0x5f>
    b43a:	f2 0f 10 45 f8       	movsd  -0x8(%rbp),%xmm0
    b43f:	f2 0f 5c 45 f0       	subsd  -0x10(%rbp),%xmm0
    b444:	5d                   	pop    %rbp
    b445:	c3                   	retq   

000000000000b446 <safe_mul_func_double_f_f>:
    b446:	f3 0f 1e fa          	endbr64 
    b44a:	55                   	push   %rbp
    b44b:	48 89 e5             	mov    %rsp,%rbp
    b44e:	f2 0f 11 45 f8       	movsd  %xmm0,-0x8(%rbp)
    b453:	f2 0f 11 4d f0       	movsd  %xmm1,-0x10(%rbp)
    b458:	f2 0f 10 4d f8       	movsd  -0x8(%rbp),%xmm1
    b45d:	f2 0f 10 05 63 2b 01 	movsd  0x12b63(%rip),%xmm0        # 1dfc8 <l_1613.4962+0x248>
    b464:	00 
    b465:	f2 0f 59 c8          	mulsd  %xmm0,%xmm1
    b469:	f2 0f 10 55 f0       	movsd  -0x10(%rbp),%xmm2
    b46e:	f2 0f 10 05 5a 2b 01 	movsd  0x12b5a(%rip),%xmm0        # 1dfd0 <l_1613.4962+0x250>
    b475:	00 
    b476:	f2 0f 59 c2          	mulsd  %xmm2,%xmm0
    b47a:	f2 0f 59 c1          	mulsd  %xmm1,%xmm0
    b47e:	f3 0f 7e 0d 2a 2b 01 	movq   0x12b2a(%rip),%xmm1        # 1dfb0 <l_1613.4962+0x230>
    b485:	00 
    b486:	66 0f 54 c1          	andpd  %xmm1,%xmm0
    b48a:	66 0f 2f 05 46 2b 01 	comisd 0x12b46(%rip),%xmm0        # 1dfd8 <l_1613.4962+0x258>
    b491:	00 
    b492:	76 07                	jbe    b49b <safe_mul_func_double_f_f+0x55>
    b494:	f2 0f 10 45 f8       	movsd  -0x8(%rbp),%xmm0
    b499:	eb 0a                	jmp    b4a5 <safe_mul_func_double_f_f+0x5f>
    b49b:	f2 0f 10 45 f8       	movsd  -0x8(%rbp),%xmm0
    b4a0:	f2 0f 59 45 f0       	mulsd  -0x10(%rbp),%xmm0
    b4a5:	5d                   	pop    %rbp
    b4a6:	c3                   	retq   

000000000000b4a7 <safe_div_func_double_f_f>:
    b4a7:	f3 0f 1e fa          	endbr64 
    b4ab:	55                   	push   %rbp
    b4ac:	48 89 e5             	mov    %rsp,%rbp
    b4af:	f2 0f 11 45 f8       	movsd  %xmm0,-0x8(%rbp)
    b4b4:	f2 0f 11 4d f0       	movsd  %xmm1,-0x10(%rbp)
    b4b9:	f2 0f 10 45 f0       	movsd  -0x10(%rbp),%xmm0
    b4be:	f3 0f 7e 0d ea 2a 01 	movq   0x12aea(%rip),%xmm1        # 1dfb0 <l_1613.4962+0x230>
    b4c5:	00 
    b4c6:	66 0f 54 c8          	andpd  %xmm0,%xmm1
    b4ca:	f2 0f 10 05 0e 2b 01 	movsd  0x12b0e(%rip),%xmm0        # 1dfe0 <l_1613.4962+0x260>
    b4d1:	00 
    b4d2:	66 0f 2f c1          	comisd %xmm1,%xmm0
    b4d6:	0f 97 c0             	seta   %al
    b4d9:	83 f0 01             	xor    $0x1,%eax
    b4dc:	84 c0                	test   %al,%al
    b4de:	75 5a                	jne    b53a <safe_div_func_double_f_f+0x93>
    b4e0:	66 0f ef c0          	pxor   %xmm0,%xmm0
    b4e4:	66 0f 2e 45 f0       	ucomisd -0x10(%rbp),%xmm0
    b4e9:	7a 0b                	jp     b4f6 <safe_div_func_double_f_f+0x4f>
    b4eb:	66 0f ef c0          	pxor   %xmm0,%xmm0
    b4ef:	66 0f 2e 45 f0       	ucomisd -0x10(%rbp),%xmm0
    b4f4:	74 50                	je     b546 <safe_div_func_double_f_f+0x9f>
    b4f6:	f2 0f 10 4d f8       	movsd  -0x8(%rbp),%xmm1
    b4fb:	f2 0f 10 05 e5 2a 01 	movsd  0x12ae5(%rip),%xmm0        # 1dfe8 <l_1613.4962+0x268>
    b502:	00 
    b503:	f2 0f 59 c1          	mulsd  %xmm1,%xmm0
    b507:	f2 0f 10 55 f0       	movsd  -0x10(%rbp),%xmm2
    b50c:	f2 0f 10 0d dc 2a 01 	movsd  0x12adc(%rip),%xmm1        # 1dff0 <l_1613.4962+0x270>
    b513:	00 
    b514:	f2 0f 59 ca          	mulsd  %xmm2,%xmm1
    b518:	f2 0f 5e c1          	divsd  %xmm1,%xmm0
    b51c:	f3 0f 7e 0d 8c 2a 01 	movq   0x12a8c(%rip),%xmm1        # 1dfb0 <l_1613.4962+0x230>
    b523:	00 
    b524:	66 0f 54 c1          	andpd  %xmm1,%xmm0
    b528:	66 0f 2f 05 c8 2a 01 	comisd 0x12ac8(%rip),%xmm0        # 1dff8 <l_1613.4962+0x278>
    b52f:	00 
    b530:	0f 97 c0             	seta   %al
    b533:	83 f0 01             	xor    $0x1,%eax
    b536:	84 c0                	test   %al,%al
    b538:	74 0c                	je     b546 <safe_div_func_double_f_f+0x9f>
    b53a:	f2 0f 10 45 f8       	movsd  -0x8(%rbp),%xmm0
    b53f:	f2 0f 5e 45 f0       	divsd  -0x10(%rbp),%xmm0
    b544:	eb 05                	jmp    b54b <safe_div_func_double_f_f+0xa4>
    b546:	f2 0f 10 45 f8       	movsd  -0x8(%rbp),%xmm0
    b54b:	5d                   	pop    %rbp
    b54c:	c3                   	retq   

000000000000b54d <safe_convert_func_float_to_int32_t>:
    b54d:	f3 0f 1e fa          	endbr64 
    b551:	55                   	push   %rbp
    b552:	48 89 e5             	mov    %rsp,%rbp
    b555:	f3 0f 11 45 fc       	movss  %xmm0,-0x4(%rbp)
    b55a:	f3 0f 10 05 9e 2a 01 	movss  0x12a9e(%rip),%xmm0        # 1e000 <l_1613.4962+0x280>
    b561:	00 
    b562:	0f 2f 45 fc          	comiss -0x4(%rbp),%xmm0
    b566:	0f 93 c0             	setae  %al
    b569:	83 f0 01             	xor    $0x1,%eax
    b56c:	84 c0                	test   %al,%al
    b56e:	74 21                	je     b591 <safe_convert_func_float_to_int32_t+0x44>
    b570:	f3 0f 10 45 fc       	movss  -0x4(%rbp),%xmm0
    b575:	0f 2f 05 88 2a 01 00 	comiss 0x12a88(%rip),%xmm0        # 1e004 <l_1613.4962+0x284>
    b57c:	0f 93 c0             	setae  %al
    b57f:	83 f0 01             	xor    $0x1,%eax
    b582:	84 c0                	test   %al,%al
    b584:	74 0b                	je     b591 <safe_convert_func_float_to_int32_t+0x44>
    b586:	f3 0f 10 45 fc       	movss  -0x4(%rbp),%xmm0
    b58b:	f3 0f 2c c0          	cvttss2si %xmm0,%eax
    b58f:	eb 05                	jmp    b596 <safe_convert_func_float_to_int32_t+0x49>
    b591:	b8 ff ff ff 7f       	mov    $0x7fffffff,%eax
    b596:	5d                   	pop    %rbp
    b597:	c3                   	retq   

000000000000b598 <crc32_gentab>:
    b598:	f3 0f 1e fa          	endbr64 
    b59c:	55                   	push   %rbp
    b59d:	48 89 e5             	mov    %rsp,%rbp
    b5a0:	c7 45 fc 20 83 b8 ed 	movl   $0xedb88320,-0x4(%rbp)
    b5a7:	c7 45 f4 00 00 00 00 	movl   $0x0,-0xc(%rbp)
    b5ae:	eb 51                	jmp    b601 <crc32_gentab+0x69>
    b5b0:	8b 45 f4             	mov    -0xc(%rbp),%eax
    b5b3:	89 45 f0             	mov    %eax,-0x10(%rbp)
    b5b6:	c7 45 f8 08 00 00 00 	movl   $0x8,-0x8(%rbp)
    b5bd:	eb 1e                	jmp    b5dd <crc32_gentab+0x45>
    b5bf:	8b 45 f0             	mov    -0x10(%rbp),%eax
    b5c2:	83 e0 01             	and    $0x1,%eax
    b5c5:	85 c0                	test   %eax,%eax
    b5c7:	74 0d                	je     b5d6 <crc32_gentab+0x3e>
    b5c9:	8b 45 f0             	mov    -0x10(%rbp),%eax
    b5cc:	d1 e8                	shr    %eax
    b5ce:	33 45 fc             	xor    -0x4(%rbp),%eax
    b5d1:	89 45 f0             	mov    %eax,-0x10(%rbp)
    b5d4:	eb 03                	jmp    b5d9 <crc32_gentab+0x41>
    b5d6:	d1 6d f0             	shrl   -0x10(%rbp)
    b5d9:	83 6d f8 01          	subl   $0x1,-0x8(%rbp)
    b5dd:	83 7d f8 00          	cmpl   $0x0,-0x8(%rbp)
    b5e1:	7f dc                	jg     b5bf <crc32_gentab+0x27>
    b5e3:	8b 45 f4             	mov    -0xc(%rbp),%eax
    b5e6:	48 98                	cltq   
    b5e8:	48 8d 0c 85 00 00 00 	lea    0x0(,%rax,4),%rcx
    b5ef:	00 
    b5f0:	48 8d 15 49 90 01 00 	lea    0x19049(%rip),%rdx        # 24640 <crc32_tab>
    b5f7:	8b 45 f0             	mov    -0x10(%rbp),%eax
    b5fa:	89 04 11             	mov    %eax,(%rcx,%rdx,1)
    b5fd:	83 45 f4 01          	addl   $0x1,-0xc(%rbp)
    b601:	81 7d f4 ff 00 00 00 	cmpl   $0xff,-0xc(%rbp)
    b608:	7e a6                	jle    b5b0 <crc32_gentab+0x18>
    b60a:	90                   	nop
    b60b:	90                   	nop
    b60c:	5d                   	pop    %rbp
    b60d:	c3                   	retq   

000000000000b60e <crc32_byte>:
    b60e:	f3 0f 1e fa          	endbr64 
    b612:	55                   	push   %rbp
    b613:	48 89 e5             	mov    %rsp,%rbp
    b616:	89 f8                	mov    %edi,%eax
    b618:	88 45 fc             	mov    %al,-0x4(%rbp)
    b61b:	8b 05 ff 59 01 00    	mov    0x159ff(%rip),%eax        # 21020 <crc32_context>
    b621:	c1 e8 08             	shr    $0x8,%eax
    b624:	89 c1                	mov    %eax,%ecx
    b626:	0f b6 55 fc          	movzbl -0x4(%rbp),%edx
    b62a:	8b 05 f0 59 01 00    	mov    0x159f0(%rip),%eax        # 21020 <crc32_context>
    b630:	31 d0                	xor    %edx,%eax
    b632:	0f b6 c0             	movzbl %al,%eax
    b635:	89 c0                	mov    %eax,%eax
    b637:	48 8d 14 85 00 00 00 	lea    0x0(,%rax,4),%rdx
    b63e:	00 
    b63f:	48 8d 05 fa 8f 01 00 	lea    0x18ffa(%rip),%rax        # 24640 <crc32_tab>
    b646:	8b 04 02             	mov    (%rdx,%rax,1),%eax
    b649:	31 c8                	xor    %ecx,%eax
    b64b:	89 05 cf 59 01 00    	mov    %eax,0x159cf(%rip)        # 21020 <crc32_context>
    b651:	90                   	nop
    b652:	5d                   	pop    %rbp
    b653:	c3                   	retq   

000000000000b654 <crc32_8bytes>:
    b654:	f3 0f 1e fa          	endbr64 
    b658:	55                   	push   %rbp
    b659:	48 89 e5             	mov    %rsp,%rbp
    b65c:	48 83 ec 08          	sub    $0x8,%rsp
    b660:	48 89 7d f8          	mov    %rdi,-0x8(%rbp)
    b664:	48 8b 45 f8          	mov    -0x8(%rbp),%rax
    b668:	0f b6 c0             	movzbl %al,%eax
    b66b:	89 c7                	mov    %eax,%edi
    b66d:	e8 9c ff ff ff       	callq  b60e <crc32_byte>
    b672:	48 8b 45 f8          	mov    -0x8(%rbp),%rax
    b676:	48 c1 e8 08          	shr    $0x8,%rax
    b67a:	0f b6 c0             	movzbl %al,%eax
    b67d:	89 c7                	mov    %eax,%edi
    b67f:	e8 8a ff ff ff       	callq  b60e <crc32_byte>
    b684:	48 8b 45 f8          	mov    -0x8(%rbp),%rax
    b688:	48 c1 e8 10          	shr    $0x10,%rax
    b68c:	0f b6 c0             	movzbl %al,%eax
    b68f:	89 c7                	mov    %eax,%edi
    b691:	e8 78 ff ff ff       	callq  b60e <crc32_byte>
    b696:	48 8b 45 f8          	mov    -0x8(%rbp),%rax
    b69a:	48 c1 e8 18          	shr    $0x18,%rax
    b69e:	0f b6 c0             	movzbl %al,%eax
    b6a1:	89 c7                	mov    %eax,%edi
    b6a3:	e8 66 ff ff ff       	callq  b60e <crc32_byte>
    b6a8:	48 8b 45 f8          	mov    -0x8(%rbp),%rax
    b6ac:	48 c1 e8 20          	shr    $0x20,%rax
    b6b0:	0f b6 c0             	movzbl %al,%eax
    b6b3:	89 c7                	mov    %eax,%edi
    b6b5:	e8 54 ff ff ff       	callq  b60e <crc32_byte>
    b6ba:	48 8b 45 f8          	mov    -0x8(%rbp),%rax
    b6be:	48 c1 e8 28          	shr    $0x28,%rax
    b6c2:	0f b6 c0             	movzbl %al,%eax
    b6c5:	89 c7                	mov    %eax,%edi
    b6c7:	e8 42 ff ff ff       	callq  b60e <crc32_byte>
    b6cc:	48 8b 45 f8          	mov    -0x8(%rbp),%rax
    b6d0:	48 c1 e8 30          	shr    $0x30,%rax
    b6d4:	0f b6 c0             	movzbl %al,%eax
    b6d7:	89 c7                	mov    %eax,%edi
    b6d9:	e8 30 ff ff ff       	callq  b60e <crc32_byte>
    b6de:	48 8b 45 f8          	mov    -0x8(%rbp),%rax
    b6e2:	48 c1 e8 38          	shr    $0x38,%rax
    b6e6:	0f b6 c0             	movzbl %al,%eax
    b6e9:	89 c7                	mov    %eax,%edi
    b6eb:	e8 1e ff ff ff       	callq  b60e <crc32_byte>
    b6f0:	90                   	nop
    b6f1:	c9                   	leaveq 
    b6f2:	c3                   	retq   

000000000000b6f3 <transparent_crc>:
    b6f3:	f3 0f 1e fa          	endbr64 
    b6f7:	55                   	push   %rbp
    b6f8:	48 89 e5             	mov    %rsp,%rbp
    b6fb:	48 83 ec 20          	sub    $0x20,%rsp
    b6ff:	48 89 7d f8          	mov    %rdi,-0x8(%rbp)
    b703:	48 89 75 f0          	mov    %rsi,-0x10(%rbp)
    b707:	89 55 ec             	mov    %edx,-0x14(%rbp)
    b70a:	48 8b 45 f8          	mov    -0x8(%rbp),%rax
    b70e:	48 89 c7             	mov    %rax,%rdi
    b711:	e8 3e ff ff ff       	callq  b654 <crc32_8bytes>
    b716:	83 7d ec 00          	cmpl   $0x0,-0x14(%rbp)
    b71a:	74 22                	je     b73e <transparent_crc+0x4b>
    b71c:	8b 05 fe 58 01 00    	mov    0x158fe(%rip),%eax        # 21020 <crc32_context>
    b722:	f7 d0                	not    %eax
    b724:	89 c2                	mov    %eax,%edx
    b726:	48 8b 45 f0          	mov    -0x10(%rbp),%rax
    b72a:	48 89 c6             	mov    %rax,%rsi
    b72d:	48 8d 3d fc 08 01 00 	lea    0x108fc(%rip),%rdi        # 1c030 <_IO_stdin_used+0x30>
    b734:	b8 00 00 00 00       	mov    $0x0,%eax
    b739:	e8 42 e9 ff ff       	callq  a080 <printf@plt>
    b73e:	90                   	nop
    b73f:	c9                   	leaveq 
    b740:	c3                   	retq   

000000000000b741 <transparent_crc_bytes>:
    b741:	f3 0f 1e fa          	endbr64 
    b745:	55                   	push   %rbp
    b746:	48 89 e5             	mov    %rsp,%rbp
    b749:	48 83 ec 30          	sub    $0x30,%rsp
    b74d:	48 89 7d e8          	mov    %rdi,-0x18(%rbp)
    b751:	89 75 e4             	mov    %esi,-0x1c(%rbp)
    b754:	48 89 55 d8          	mov    %rdx,-0x28(%rbp)
    b758:	89 4d e0             	mov    %ecx,-0x20(%rbp)
    b75b:	c7 45 fc 00 00 00 00 	movl   $0x0,-0x4(%rbp)
    b762:	eb 1e                	jmp    b782 <transparent_crc_bytes+0x41>
    b764:	8b 45 fc             	mov    -0x4(%rbp),%eax
    b767:	48 63 d0             	movslq %eax,%rdx
    b76a:	48 8b 45 e8          	mov    -0x18(%rbp),%rax
    b76e:	48 01 d0             	add    %rdx,%rax
    b771:	0f b6 00             	movzbl (%rax),%eax
    b774:	0f b6 c0             	movzbl %al,%eax
    b777:	89 c7                	mov    %eax,%edi
    b779:	e8 90 fe ff ff       	callq  b60e <crc32_byte>
    b77e:	83 45 fc 01          	addl   $0x1,-0x4(%rbp)
    b782:	8b 45 fc             	mov    -0x4(%rbp),%eax
    b785:	3b 45 e4             	cmp    -0x1c(%rbp),%eax
    b788:	7c da                	jl     b764 <transparent_crc_bytes+0x23>
    b78a:	83 7d e0 00          	cmpl   $0x0,-0x20(%rbp)
    b78e:	74 22                	je     b7b2 <transparent_crc_bytes+0x71>
    b790:	8b 05 8a 58 01 00    	mov    0x1588a(%rip),%eax        # 21020 <crc32_context>
    b796:	f7 d0                	not    %eax
    b798:	89 c2                	mov    %eax,%edx
    b79a:	48 8b 45 d8          	mov    -0x28(%rbp),%rax
    b79e:	48 89 c6             	mov    %rax,%rsi
    b7a1:	48 8d 3d 88 08 01 00 	lea    0x10888(%rip),%rdi        # 1c030 <_IO_stdin_used+0x30>
    b7a8:	b8 00 00 00 00       	mov    $0x0,%eax
    b7ad:	e8 ce e8 ff ff       	callq  a080 <printf@plt>
    b7b2:	90                   	nop
    b7b3:	c9                   	leaveq 
    b7b4:	c3                   	retq   

000000000000b7b5 <func_1>:
    b7b5:	f3 0f 1e fa          	endbr64 
    b7b9:	55                   	push   %rbp
    b7ba:	48 89 e5             	mov    %rsp,%rbp
    b7bd:	41 57                	push   %r15
    b7bf:	41 56                	push   %r14
    b7c1:	41 55                	push   %r13
    b7c3:	41 54                	push   %r12
    b7c5:	53                   	push   %rbx
    b7c6:	48 81 ec b8 01 00 00 	sub    $0x1b8,%rsp
    b7cd:	64 48 8b 04 25 28 00 	mov    %fs:0x28,%rax
    b7d4:	00 00 
    b7d6:	48 89 45 c8          	mov    %rax,-0x38(%rbp)
    b7da:	31 c0                	xor    %eax,%eax
    b7dc:	c6 85 21 fe ff ff 01 	movb   $0x1,-0x1df(%rbp)
    b7e3:	48 8d 05 3a 58 01 00 	lea    0x1583a(%rip),%rax        # 21024 <g_6>
    b7ea:	48 89 85 40 fe ff ff 	mov    %rax,-0x1c0(%rbp)
    b7f1:	48 8d 05 32 58 01 00 	lea    0x15832(%rip),%rax        # 2102a <g_8+0x2>
    b7f8:	48 89 85 48 fe ff ff 	mov    %rax,-0x1b8(%rbp)
    b7ff:	48 b8 d7 d9 0c 00 2b 	movabs $0x328a062b000cd9d7,%rax
    b806:	06 8a 32 
    b809:	48 89 85 50 fe ff ff 	mov    %rax,-0x1b0(%rbp)
    b810:	48 c7 85 58 fe ff ff 	movq   $0x0,-0x1a8(%rbp)
    b817:	00 00 00 00 
    b81b:	48 8d 05 1e 5a 01 00 	lea    0x15a1e(%rip),%rax        # 21240 <g_101>
    b822:	48 89 85 60 fe ff ff 	mov    %rax,-0x1a0(%rbp)
    b829:	c7 85 24 fe ff ff 01 	movl   $0x1,-0x1dc(%rbp)
    b830:	00 00 00 
    b833:	48 c7 85 38 fe ff ff 	movq   $0x0,-0x1c8(%rbp)
    b83a:	00 00 00 00 
    b83e:	48 8d 85 38 fe ff ff 	lea    -0x1c8(%rbp),%rax
    b845:	48 89 85 b0 fe ff ff 	mov    %rax,-0x150(%rbp)
    b84c:	48 8d 85 38 fe ff ff 	lea    -0x1c8(%rbp),%rax
    b853:	48 89 85 b8 fe ff ff 	mov    %rax,-0x148(%rbp)
    b85a:	48 8d 85 38 fe ff ff 	lea    -0x1c8(%rbp),%rax
    b861:	48 89 85 c0 fe ff ff 	mov    %rax,-0x140(%rbp)
    b868:	48 8d 85 38 fe ff ff 	lea    -0x1c8(%rbp),%rax
    b86f:	48 89 85 c8 fe ff ff 	mov    %rax,-0x138(%rbp)
    b876:	48 8d 85 38 fe ff ff 	lea    -0x1c8(%rbp),%rax
    b87d:	48 89 85 d0 fe ff ff 	mov    %rax,-0x130(%rbp)
    b884:	c7 85 28 fe ff ff ea 	movl   $0x472e8ea,-0x1d8(%rbp)
    b88b:	e8 72 04 
    b88e:	48 8d 05 4b 84 01 00 	lea    0x1844b(%rip),%rax        # 23ce0 <g_1661>
    b895:	48 89 85 68 fe ff ff 	mov    %rax,-0x198(%rbp)
    b89c:	48 8d 05 ad 5b 01 00 	lea    0x15bad(%rip),%rax        # 21450 <g_547>
    b8a3:	48 89 85 70 fe ff ff 	mov    %rax,-0x190(%rbp)
    b8aa:	48 c7 85 78 fe ff ff 	movq   $0x0,-0x188(%rbp)
    b8b1:	00 00 00 00 
    b8b5:	48 8d 05 94 5b 01 00 	lea    0x15b94(%rip),%rax        # 21450 <g_547>
    b8bc:	48 89 85 80 fe ff ff 	mov    %rax,-0x180(%rbp)
    b8c3:	48 8d 05 e6 5b 01 00 	lea    0x15be6(%rip),%rax        # 214b0 <g_627>
    b8ca:	48 89 85 88 fe ff ff 	mov    %rax,-0x178(%rbp)
    b8d1:	48 8d 85 24 fe ff ff 	lea    -0x1dc(%rbp),%rax
    b8d8:	48 89 85 70 ff ff ff 	mov    %rax,-0x90(%rbp)
    b8df:	48 8d 05 ca 5b 01 00 	lea    0x15bca(%rip),%rax        # 214b0 <g_627>
    b8e6:	48 89 85 78 ff ff ff 	mov    %rax,-0x88(%rbp)
    b8ed:	48 8d 05 bc 5b 01 00 	lea    0x15bbc(%rip),%rax        # 214b0 <g_627>
    b8f4:	48 89 45 80          	mov    %rax,-0x80(%rbp)
    b8f8:	48 8d 85 24 fe ff ff 	lea    -0x1dc(%rbp),%rax
    b8ff:	48 89 45 88          	mov    %rax,-0x78(%rbp)
    b903:	48 8d 05 0a 5a 01 00 	lea    0x15a0a(%rip),%rax        # 21314 <g_119+0xb4>
    b90a:	48 89 45 90          	mov    %rax,-0x70(%rbp)
    b90e:	48 8d 85 24 fe ff ff 	lea    -0x1dc(%rbp),%rax
    b915:	48 89 45 98          	mov    %rax,-0x68(%rbp)
    b919:	48 8d 05 90 5b 01 00 	lea    0x15b90(%rip),%rax        # 214b0 <g_627>
    b920:	48 89 45 a0          	mov    %rax,-0x60(%rbp)
    b924:	48 8d 05 85 5b 01 00 	lea    0x15b85(%rip),%rax        # 214b0 <g_627>
    b92b:	48 89 45 a8          	mov    %rax,-0x58(%rbp)
    b92f:	48 8d 85 24 fe ff ff 	lea    -0x1dc(%rbp),%rax
    b936:	48 89 45 b0          	mov    %rax,-0x50(%rbp)
    b93a:	48 8d 05 d3 59 01 00 	lea    0x159d3(%rip),%rax        # 21314 <g_119+0xb4>
    b941:	48 89 45 b8          	mov    %rax,-0x48(%rbp)
    b945:	66 c7 85 22 fe ff ff 	movw   $0xde95,-0x1de(%rbp)
    b94c:	95 de 
    b94e:	c7 85 e0 fe ff ff 35 	movl   $0x32b2f135,-0x120(%rbp)
    b955:	f1 b2 32 
    b958:	c7 85 e4 fe ff ff cc 	movl   $0x4e046acc,-0x11c(%rbp)
    b95f:	6a 04 4e 
    b962:	c7 85 e8 fe ff ff 35 	movl   $0x32b2f135,-0x118(%rbp)
    b969:	f1 b2 32 
    b96c:	c7 85 ec fe ff ff 35 	movl   $0x32b2f135,-0x114(%rbp)
    b973:	f1 b2 32 
    b976:	c7 85 f0 fe ff ff cc 	movl   $0x4e046acc,-0x110(%rbp)
    b97d:	6a 04 4e 
    b980:	c7 85 f4 fe ff ff 35 	movl   $0x32b2f135,-0x10c(%rbp)
    b987:	f1 b2 32 
    b98a:	c7 85 f8 fe ff ff 35 	movl   $0x32b2f135,-0x108(%rbp)
    b991:	f1 b2 32 
    b994:	c7 85 fc fe ff ff cc 	movl   $0x4e046acc,-0x104(%rbp)
    b99b:	6a 04 4e 
    b99e:	c7 85 00 ff ff ff cc 	movl   $0x4e046acc,-0x100(%rbp)
    b9a5:	6a 04 4e 
    b9a8:	c7 85 04 ff ff ff 35 	movl   $0x32b2f135,-0xfc(%rbp)
    b9af:	f1 b2 32 
    b9b2:	c7 85 08 ff ff ff 35 	movl   $0x32b2f135,-0xf8(%rbp)
    b9b9:	f1 b2 32 
    b9bc:	c7 85 0c ff ff ff cc 	movl   $0x4e046acc,-0xf4(%rbp)
    b9c3:	6a 04 4e 
    b9c6:	c7 85 10 ff ff ff 35 	movl   $0x32b2f135,-0xf0(%rbp)
    b9cd:	f1 b2 32 
    b9d0:	c7 85 14 ff ff ff 35 	movl   $0x32b2f135,-0xec(%rbp)
    b9d7:	f1 b2 32 
    b9da:	c7 85 18 ff ff ff cc 	movl   $0x4e046acc,-0xe8(%rbp)
    b9e1:	6a 04 4e 
    b9e4:	c7 85 1c ff ff ff 35 	movl   $0x32b2f135,-0xe4(%rbp)
    b9eb:	f1 b2 32 
    b9ee:	8b 9d 24 fe ff ff    	mov    -0x1dc(%rbp),%ebx
    b9f4:	44 0f b6 a5 21 fe ff 	movzbl -0x1df(%rbp),%r12d
    b9fb:	ff 
    b9fc:	44 0f b6 ad 21 fe ff 	movzbl -0x1df(%rbp),%r13d
    ba03:	ff 
    ba04:	0f b6 85 21 fe ff ff 	movzbl -0x1df(%rbp),%eax
    ba0b:	44 0f be f8          	movsbl %al,%r15d
    ba0f:	44 0f b6 b5 21 fe ff 	movzbl -0x1df(%rbp),%r14d
    ba16:	ff 
    ba17:	48 8b 85 50 fe ff ff 	mov    -0x1b0(%rbp),%rax
    ba1e:	48 89 c7             	mov    %rax,%rdi
    ba21:	e8 64 12 00 00       	callq  cc8a <func_27>
    ba26:	48 89 c7             	mov    %rax,%rdi
    ba29:	48 8b 85 48 fe ff ff 	mov    -0x1b8(%rbp),%rax
    ba30:	44 89 f9             	mov    %r15d,%ecx
    ba33:	44 89 f2             	mov    %r14d,%edx
    ba36:	48 89 c6             	mov    %rax,%rsi
    ba39:	e8 58 10 00 00       	callq  ca96 <func_22>
    ba3e:	0f b7 05 9f 5c 01 00 	movzwl 0x15c9f(%rip),%eax        # 216e4 <g_2939>
    ba45:	83 f0 01             	xor    $0x1,%eax
    ba48:	0f b7 c0             	movzwl %ax,%eax
    ba4b:	ba ff ff ff ff       	mov    $0xffffffff,%edx
    ba50:	39 d0                	cmp    %edx,%eax
    ba52:	0f 9d c0             	setge  %al
    ba55:	0f b6 d0             	movzbl %al,%edx
    ba58:	48 8b 85 60 fe ff ff 	mov    -0x1a0(%rbp),%rax
    ba5f:	48 89 10             	mov    %rdx,(%rax)
    ba62:	48 8b 85 60 fe ff ff 	mov    -0x1a0(%rbp),%rax
    ba69:	48 8b 00             	mov    (%rax),%rax
    ba6c:	48 8b 95 50 fe ff ff 	mov    -0x1b0(%rbp),%rdx
    ba73:	89 d1                	mov    %edx,%ecx
    ba75:	44 89 ea             	mov    %r13d,%edx
    ba78:	48 89 c6             	mov    %rax,%rsi
    ba7b:	89 cf                	mov    %ecx,%edi
    ba7d:	e8 65 04 00 00       	callq  bee7 <func_18>
    ba82:	85 c0                	test   %eax,%eax
    ba84:	74 11                	je     ba97 <func_1+0x2e2>
    ba86:	48 83 bd 50 fe ff ff 	cmpq   $0x0,-0x1b0(%rbp)
    ba8d:	00 
    ba8e:	74 07                	je     ba97 <func_1+0x2e2>
    ba90:	b8 01 00 00 00       	mov    $0x1,%eax
    ba95:	eb 05                	jmp    ba9c <func_1+0x2e7>
    ba97:	b8 00 00 00 00       	mov    $0x0,%eax
    ba9c:	48 98                	cltq   
    ba9e:	48 39 85 50 fe ff ff 	cmp    %rax,-0x1b0(%rbp)
    baa5:	0f 95 c0             	setne  %al
    baa8:	44 0f b6 e8          	movzbl %al,%r13d
    baac:	0f b6 95 21 fe ff ff 	movzbl -0x1df(%rbp),%edx
    bab3:	48 83 bd 48 fe ff ff 	cmpq   $0x0,-0x1b8(%rbp)
    baba:	00 
    babb:	0f 95 c0             	setne  %al
    babe:	0f b6 c0             	movzbl %al,%eax
    bac1:	89 d6                	mov    %edx,%esi
    bac3:	89 c7                	mov    %eax,%edi
    bac5:	e8 c9 f0 ff ff       	callq  ab93 <safe_mul_func_uint8_t_u_u>
    baca:	0f b6 c0             	movzbl %al,%eax
    bacd:	44 89 ee             	mov    %r13d,%esi
    bad0:	89 c7                	mov    %eax,%edi
    bad2:	e8 e1 f3 ff ff       	callq  aeb8 <safe_add_func_uint32_t_u_u>
    bad7:	0f b7 c0             	movzwl %ax,%eax
    bada:	44 89 e6             	mov    %r12d,%esi
    badd:	89 c7                	mov    %eax,%edi
    badf:	e8 1b f2 ff ff       	callq  acff <safe_add_func_uint16_t_u_u>
    bae4:	0f b7 c0             	movzwl %ax,%eax
    bae7:	89 de                	mov    %ebx,%esi
    bae9:	89 c7                	mov    %eax,%edi
    baeb:	e8 15 eb ff ff       	callq  a605 <safe_sub_func_int32_t_s_s>
    baf0:	0f be d0             	movsbl %al,%edx
    baf3:	0f b6 8d 21 fe ff ff 	movzbl -0x1df(%rbp),%ecx
    bafa:	48 8b 85 40 fe ff ff 	mov    -0x1c0(%rbp),%rax
    bb01:	88 08                	mov    %cl,(%rax)
    bb03:	48 8b 85 40 fe ff ff 	mov    -0x1c0(%rbp),%rax
    bb0a:	0f b6 08             	movzbl (%rax),%ecx
    bb0d:	48 8b 85 48 fe ff ff 	mov    -0x1b8(%rbp),%rax
    bb14:	88 08                	mov    %cl,(%rax)
    bb16:	48 8b 85 48 fe ff ff 	mov    -0x1b8(%rbp),%rax
    bb1d:	0f b6 00             	movzbl (%rax),%eax
    bb20:	0f be c0             	movsbl %al,%eax
    bb23:	89 d6                	mov    %edx,%esi
    bb25:	89 c7                	mov    %eax,%edi
    bb27:	e8 a8 e6 ff ff       	callq  a1d4 <safe_add_func_int8_t_s_s>
    bb2c:	84 c0                	test   %al,%al
    bb2e:	74 31                	je     bb61 <func_1+0x3ac>
    bb30:	48 8d 85 38 fe ff ff 	lea    -0x1c8(%rbp),%rax
    bb37:	48 89 85 a8 fe ff ff 	mov    %rax,-0x158(%rbp)
    bb3e:	c7 85 34 fe ff ff c7 	movl   $0xa893afc7,-0x1cc(%rbp)
    bb45:	af 93 a8 
    bb48:	48 8b 85 c0 fe ff ff 	mov    -0x140(%rbp),%rax
    bb4f:	48 89 85 a8 fe ff ff 	mov    %rax,-0x158(%rbp)
    bb56:	8b 85 34 fe ff ff    	mov    -0x1cc(%rbp),%eax
    bb5c:	e9 60 03 00 00       	jmpq   bec1 <func_1+0x70c>
    bb61:	48 c7 85 90 fe ff ff 	movq   $0x0,-0x170(%rbp)
    bb68:	00 00 00 00 
    bb6c:	c7 85 2c fe ff ff 00 	movl   $0x0,-0x1d4(%rbp)
    bb73:	00 00 00 
    bb76:	48 8d 05 33 59 01 00 	lea    0x15933(%rip),%rax        # 214b0 <g_627>
    bb7d:	48 89 85 98 fe ff ff 	mov    %rax,-0x168(%rbp)
    bb84:	48 8d 05 75 80 01 00 	lea    0x18075(%rip),%rax        # 23c00 <g_872+0x5e0>
    bb8b:	48 89 85 a0 fe ff ff 	mov    %rax,-0x160(%rbp)
    bb92:	48 8b 85 50 fe ff ff 	mov    -0x1b0(%rbp),%rax
    bb99:	0f b6 d8             	movzbl %al,%ebx
    bb9c:	0f b7 05 a9 58 01 00 	movzwl 0x158a9(%rip),%eax        # 2144c <g_481>
    bba3:	0f b7 d0             	movzwl %ax,%edx
    bba6:	0f b7 05 3b 5b 01 00 	movzwl 0x15b3b(%rip),%eax        # 216e8 <g_3013>
    bbad:	0f b7 c0             	movzwl %ax,%eax
    bbb0:	89 d6                	mov    %edx,%esi
    bbb2:	89 c7                	mov    %eax,%edi
    bbb4:	e8 66 f1 ff ff       	callq  ad1f <safe_sub_func_uint16_t_u_u>
    bbb9:	0f b7 c0             	movzwl %ax,%eax
    bbbc:	39 85 2c fe ff ff    	cmp    %eax,-0x1d4(%rbp)
    bbc2:	0f 9c c0             	setl   %al
    bbc5:	0f b6 c0             	movzbl %al,%eax
    bbc8:	be 97 ff ff ff       	mov    $0xffffff97,%esi
    bbcd:	89 c7                	mov    %eax,%edi
    bbcf:	e8 96 e6 ff ff       	callq  a26a <safe_div_func_int8_t_s_s>
    bbd4:	48 83 bd 68 fe ff ff 	cmpq   $0x0,-0x198(%rbp)
    bbdb:	00 
    bbdc:	0f 94 c0             	sete   %al
    bbdf:	0f b6 d0             	movzbl %al,%edx
    bbe2:	0f b6 85 21 fe ff ff 	movzbl -0x1df(%rbp),%eax
    bbe9:	21 d0                	and    %edx,%eax
    bbeb:	0f b7 c0             	movzwl %ax,%eax
    bbee:	be 04 00 00 00       	mov    $0x4,%esi
    bbf3:	89 c7                	mov    %eax,%edi
    bbf5:	e8 4e f2 ff ff       	callq  ae48 <safe_rshift_func_uint16_t_u_s>
    bbfa:	0f b7 c0             	movzwl %ax,%eax
    bbfd:	48 39 85 50 fe ff ff 	cmp    %rax,-0x1b0(%rbp)
    bc04:	0f 9c c0             	setl   %al
    bc07:	0f b6 d0             	movzbl %al,%edx
    bc0a:	48 83 bd 90 fe ff ff 	cmpq   $0x0,-0x170(%rbp)
    bc11:	00 
    bc12:	0f 95 c0             	setne  %al
    bc15:	0f b6 c0             	movzbl %al,%eax
    bc18:	89 d6                	mov    %edx,%esi
    bc1a:	89 c7                	mov    %eax,%edi
    bc1c:	e8 b2 e7 ff ff       	callq  a3d3 <safe_sub_func_int16_t_s_s>
    bc21:	0f b6 c0             	movzbl %al,%eax
    bc24:	89 de                	mov    %ebx,%esi
    bc26:	89 c7                	mov    %eax,%edi
    bc28:	e8 4b ef ff ff       	callq  ab78 <safe_sub_func_uint8_t_u_u>
    bc2d:	48 8b 15 04 70 01 00 	mov    0x17004(%rip),%rdx        # 22c38 <g_712>
    bc34:	48 8b 12             	mov    (%rdx),%rdx
    bc37:	48 8b 12             	mov    (%rdx),%rdx
    bc3a:	0f b6 12             	movzbl (%rdx),%edx
    bc3d:	38 d0                	cmp    %dl,%al
    bc3f:	0f 95 c0             	setne  %al
    bc42:	0f b6 c0             	movzbl %al,%eax
    bc45:	8b 95 2c fe ff ff    	mov    -0x1d4(%rbp),%edx
    bc4b:	89 d6                	mov    %edx,%esi
    bc4d:	89 c7                	mov    %eax,%edi
    bc4f:	e8 3e e8 ff ff       	callq  a492 <safe_lshift_func_int16_t_s_s>
    bc54:	0f bf d0             	movswl %ax,%edx
    bc57:	48 8b 85 98 fe ff ff 	mov    -0x168(%rbp),%rax
    bc5e:	89 10                	mov    %edx,(%rax)
    bc60:	48 8b 05 a9 6f 01 00 	mov    0x16fa9(%rip),%rax        # 22c10 <g_456>
    bc67:	0f b6 9d 21 fe ff ff 	movzbl -0x1df(%rbp),%ebx
    bc6e:	48 8b 85 98 fe ff ff 	mov    -0x168(%rbp),%rax
    bc75:	8b 00                	mov    (%rax),%eax
    bc77:	0f be d0             	movsbl %al,%edx
    bc7a:	48 8b 85 a0 fe ff ff 	mov    -0x160(%rbp),%rax
    bc81:	48 8d 0d 58 5a 01 00 	lea    0x15a58(%rip),%rcx        # 216e0 <g_2884>
    bc88:	48 89 08             	mov    %rcx,(%rax)
    bc8b:	48 8b 85 a0 fe ff ff 	mov    -0x160(%rbp),%rax
    bc92:	48 8b 00             	mov    (%rax),%rax
    bc95:	48 8d 0d 24 59 01 00 	lea    0x15924(%rip),%rcx        # 215c0 <g_1028>
    bc9c:	48 39 c8             	cmp    %rcx,%rax
    bc9f:	0f 95 c0             	setne  %al
    bca2:	89 c1                	mov    %eax,%ecx
    bca4:	0f b6 05 79 53 01 00 	movzbl 0x15379(%rip),%eax        # 21024 <g_6>
    bcab:	31 c8                	xor    %ecx,%eax
    bcad:	0f be c0             	movsbl %al,%eax
    bcb0:	89 d6                	mov    %edx,%esi
    bcb2:	89 c7                	mov    %eax,%edi
    bcb4:	e8 b1 e5 ff ff       	callq  a26a <safe_div_func_int8_t_s_s>
    bcb9:	0f be c0             	movsbl %al,%eax
    bcbc:	89 de                	mov    %ebx,%esi
    bcbe:	89 c7                	mov    %eax,%edi
    bcc0:	e8 65 e8 ff ff       	callq  a52a <safe_rshift_func_int16_t_s_s>
    bcc5:	48 8b 05 3c 59 01 00 	mov    0x1593c(%rip),%rax        # 21608 <g_1545+0x28>
    bccc:	48 85 c0             	test   %rax,%rax
    bccf:	0f 95 c0             	setne  %al
    bcd2:	0f b6 d0             	movzbl %al,%edx
    bcd5:	48 8b 05 3c 57 01 00 	mov    0x1573c(%rip),%rax        # 21418 <g_264+0x18>
    bcdc:	48 39 c2             	cmp    %rax,%rdx
    bcdf:	0f 95 c0             	setne  %al
    bce2:	0f b6 d0             	movzbl %al,%edx
    bce5:	48 8b 05 44 6f 01 00 	mov    0x16f44(%rip),%rax        # 22c30 <g_566>
    bcec:	0f b7 00             	movzwl (%rax),%eax
    bcef:	98                   	cwtl   
    bcf0:	89 d6                	mov    %edx,%esi
    bcf2:	89 c7                	mov    %eax,%edi
    bcf4:	e8 6a e8 ff ff       	callq  a563 <safe_rshift_func_int16_t_s_u>
    bcf9:	66 83 f8 ff          	cmp    $0xffff,%ax
    bcfd:	74 10                	je     bd0f <func_1+0x55a>
    bcff:	80 bd 21 fe ff ff 00 	cmpb   $0x0,-0x1df(%rbp)
    bd06:	74 07                	je     bd0f <func_1+0x55a>
    bd08:	b8 01 00 00 00       	mov    $0x1,%eax
    bd0d:	eb 05                	jmp    bd14 <func_1+0x55f>
    bd0f:	b8 00 00 00 00       	mov    $0x0,%eax
    bd14:	98                   	cwtl   
    bd15:	be 1a 2d 00 00       	mov    $0x2d1a,%esi
    bd1a:	89 c7                	mov    %eax,%edi
    bd1c:	e8 d4 e6 ff ff       	callq  a3f5 <safe_mul_func_int16_t_s_s>
    bd21:	0f bf d0             	movswl %ax,%edx
    bd24:	48 8b 85 98 fe ff ff 	mov    -0x168(%rbp),%rax
    bd2b:	89 10                	mov    %edx,(%rax)
    bd2d:	48 8b 05 cc 80 01 00 	mov    0x180cc(%rip),%rax        # 23e00 <g_1957>
    bd34:	8b 00                	mov    (%rax),%eax
    bd36:	89 c3                	mov    %eax,%ebx
    bd38:	48 8b 85 98 fe ff ff 	mov    -0x168(%rbp),%rax
    bd3f:	8b 00                	mov    (%rax),%eax
    bd41:	0f b6 d0             	movzbl %al,%edx
    bd44:	48 83 bd 98 fe ff ff 	cmpq   $0x0,-0x168(%rbp)
    bd4b:	00 
    bd4c:	0f 94 c0             	sete   %al
    bd4f:	0f b6 c0             	movzbl %al,%eax
    bd52:	89 d6                	mov    %edx,%esi
    bd54:	89 c7                	mov    %eax,%edi
    bd56:	e8 80 ee ff ff       	callq  abdb <safe_div_func_uint8_t_u_u>
    bd5b:	0f be d0             	movsbl %al,%edx
    bd5e:	48 8b 85 98 fe ff ff 	mov    -0x168(%rbp),%rax
    bd65:	8b 00                	mov    (%rax),%eax
    bd67:	89 c1                	mov    %eax,%ecx
    bd69:	8b 85 28 fe ff ff    	mov    -0x1d8(%rbp),%eax
    bd6f:	09 c8                	or     %ecx,%eax
    bd71:	89 c1                	mov    %eax,%ecx
    bd73:	48 8b 85 40 fe ff ff 	mov    -0x1c0(%rbp),%rax
    bd7a:	88 08                	mov    %cl,(%rax)
    bd7c:	48 8b 85 40 fe ff ff 	mov    -0x1c0(%rbp),%rax
    bd83:	0f b6 00             	movzbl (%rax),%eax
    bd86:	0f be c0             	movsbl %al,%eax
    bd89:	89 d6                	mov    %edx,%esi
    bd8b:	89 c7                	mov    %eax,%edi
    bd8d:	e8 42 e4 ff ff       	callq  a1d4 <safe_add_func_int8_t_s_s>
    bd92:	0f be c0             	movsbl %al,%eax
    bd95:	89 de                	mov    %ebx,%esi
    bd97:	89 c7                	mov    %eax,%edi
    bd99:	e8 2e e9 ff ff       	callq  a6cc <safe_mod_func_int32_t_s_s>
    bd9e:	8b 95 24 fe ff ff    	mov    -0x1dc(%rbp),%edx
    bda4:	09 d0                	or     %edx,%eax
    bda6:	89 85 24 fe ff ff    	mov    %eax,-0x1dc(%rbp)
    bdac:	66 83 ad 22 fe ff ff 	subw   $0x1,-0x1de(%rbp)
    bdb3:	01 
    bdb4:	0f b7 05 39 59 01 00 	movzwl 0x15939(%rip),%eax        # 216f4 <g_3040>
    bdbb:	83 c0 01             	add    $0x1,%eax
    bdbe:	66 89 05 2f 59 01 00 	mov    %ax,0x1592f(%rip)        # 216f4 <g_3040>
    bdc5:	48 8b 05 ac 80 01 00 	mov    0x180ac(%rip),%rax        # 23e78 <g_2458>
    bdcc:	8b 00                	mov    (%rax),%eax
    bdce:	85 c0                	test   %eax,%eax
    bdd0:	0f 84 d5 00 00 00    	je     beab <func_1+0x6f6>
    bdd6:	c7 85 30 fe ff ff 8c 	movl   $0x14b8758c,-0x1d0(%rbp)
    bddd:	75 b8 14 
    bde0:	48 8d 05 7d 56 01 00 	lea    0x1567d(%rip),%rax        # 21464 <g_559+0x4>
    bde7:	48 89 85 20 ff ff ff 	mov    %rax,-0xe0(%rbp)
    bdee:	48 8d 05 6f 56 01 00 	lea    0x1566f(%rip),%rax        # 21464 <g_559+0x4>
    bdf5:	48 89 85 28 ff ff ff 	mov    %rax,-0xd8(%rbp)
    bdfc:	48 8d 05 61 56 01 00 	lea    0x15661(%rip),%rax        # 21464 <g_559+0x4>
    be03:	48 89 85 30 ff ff ff 	mov    %rax,-0xd0(%rbp)
    be0a:	48 8d 05 53 56 01 00 	lea    0x15653(%rip),%rax        # 21464 <g_559+0x4>
    be11:	48 89 85 38 ff ff ff 	mov    %rax,-0xc8(%rbp)
    be18:	48 8d 05 45 56 01 00 	lea    0x15645(%rip),%rax        # 21464 <g_559+0x4>
    be1f:	48 89 85 40 ff ff ff 	mov    %rax,-0xc0(%rbp)
    be26:	48 8d 05 37 56 01 00 	lea    0x15637(%rip),%rax        # 21464 <g_559+0x4>
    be2d:	48 89 85 48 ff ff ff 	mov    %rax,-0xb8(%rbp)
    be34:	48 8d 05 29 56 01 00 	lea    0x15629(%rip),%rax        # 21464 <g_559+0x4>
    be3b:	48 89 85 50 ff ff ff 	mov    %rax,-0xb0(%rbp)
    be42:	48 8d 05 1b 56 01 00 	lea    0x1561b(%rip),%rax        # 21464 <g_559+0x4>
    be49:	48 89 85 58 ff ff ff 	mov    %rax,-0xa8(%rbp)
    be50:	48 8d 05 0d 56 01 00 	lea    0x1560d(%rip),%rax        # 21464 <g_559+0x4>
    be57:	48 89 85 60 ff ff ff 	mov    %rax,-0xa0(%rbp)
    be5e:	c6 05 bf 51 01 00 19 	movb   $0x19,0x151bf(%rip)        # 21024 <g_6>
    be65:	90                   	nop
    be66:	0f b6 05 b7 51 01 00 	movzbl 0x151b7(%rip),%eax        # 21024 <g_6>
    be6d:	3c 0e                	cmp    $0xe,%al
    be6f:	7f 47                	jg     beb8 <func_1+0x703>
    be71:	48 8b 85 20 ff ff ff 	mov    -0xe0(%rbp),%rax
    be78:	48 85 c0             	test   %rax,%rax
    be7b:	0f 95 c0             	setne  %al
    be7e:	0f b6 c0             	movzbl %al,%eax
    be81:	48 89 c6             	mov    %rax,%rsi
    be84:	bf 00 00 00 00       	mov    $0x0,%edi
    be89:	e8 bd f1 ff ff       	callq  b04b <safe_sub_func_uint64_t_u_u>
    be8e:	48 8b 05 7b 87 01 00 	mov    0x1877b(%rip),%rax        # 24610 <g_2962>
    be95:	8b 10                	mov    (%rax),%edx
    be97:	48 8b 85 88 fe ff ff 	mov    -0x178(%rbp),%rax
    be9e:	89 10                	mov    %edx,(%rax)
    bea0:	48 8b 85 80 fe ff ff 	mov    -0x180(%rbp),%rax
    bea7:	8b 00                	mov    (%rax),%eax
    bea9:	eb 16                	jmp    bec1 <func_1+0x70c>
    beab:	48 8b 85 88 fe ff ff 	mov    -0x178(%rbp),%rax
    beb2:	c7 00 01 00 00 00    	movl   $0x1,(%rax)
    beb8:	48 8b 85 88 fe ff ff 	mov    -0x178(%rbp),%rax
    bebf:	8b 00                	mov    (%rax),%eax
    bec1:	48 8b 5d c8          	mov    -0x38(%rbp),%rbx
    bec5:	64 48 33 1c 25 28 00 	xor    %fs:0x28,%rbx
    becc:	00 00 
    bece:	74 05                	je     bed5 <func_1+0x720>
    bed0:	e8 9b e1 ff ff       	callq  a070 <__stack_chk_fail@plt>
    bed5:	48 81 c4 b8 01 00 00 	add    $0x1b8,%rsp
    bedc:	5b                   	pop    %rbx
    bedd:	41 5c                	pop    %r12
    bedf:	41 5d                	pop    %r13
    bee1:	41 5e                	pop    %r14
    bee3:	41 5f                	pop    %r15
    bee5:	5d                   	pop    %rbp
    bee6:	c3                   	retq   

000000000000bee7 <func_18>:
    bee7:	f3 0f 1e fa          	endbr64 
    beeb:	55                   	push   %rbp
    beec:	48 89 e5             	mov    %rsp,%rbp
    beef:	41 56                	push   %r14
    bef1:	41 55                	push   %r13
    bef3:	41 54                	push   %r12
    bef5:	53                   	push   %rbx
    bef6:	48 81 ec f0 04 00 00 	sub    $0x4f0,%rsp
    befd:	89 bd fc fa ff ff    	mov    %edi,-0x504(%rbp)
    bf03:	48 89 b5 f0 fa ff ff 	mov    %rsi,-0x510(%rbp)
    bf0a:	89 d0                	mov    %edx,%eax
    bf0c:	66 89 85 f8 fa ff ff 	mov    %ax,-0x508(%rbp)
    bf13:	64 48 8b 04 25 28 00 	mov    %fs:0x28,%rax
    bf1a:	00 00 
    bf1c:	48 89 45 d8          	mov    %rax,-0x28(%rbp)
    bf20:	31 c0                	xor    %eax,%eax
    bf22:	48 b8 61 76 e9 45 1c 	movabs $0x328adb1c45e97661,%rax
    bf29:	db 8a 32 
    bf2c:	48 89 85 40 fb ff ff 	mov    %rax,-0x4c0(%rbp)
    bf33:	48 8d 05 1e 8b 01 00 	lea    0x18b1e(%rip),%rax        # 24a58 <g_117+0x8>
    bf3a:	48 89 85 18 fb ff ff 	mov    %rax,-0x4e8(%rbp)
    bf41:	48 8d 85 18 fb ff ff 	lea    -0x4e8(%rbp),%rax
    bf48:	48 89 85 20 fb ff ff 	mov    %rax,-0x4e0(%rbp)
    bf4f:	48 c7 85 90 fd ff ff 	movq   $0x0,-0x270(%rbp)
    bf56:	00 00 00 00 
    bf5a:	48 8d 85 20 fb ff ff 	lea    -0x4e0(%rbp),%rax
    bf61:	48 89 85 98 fd ff ff 	mov    %rax,-0x268(%rbp)
    bf68:	48 c7 85 a0 fd ff ff 	movq   $0x0,-0x260(%rbp)
    bf6f:	00 00 00 00 
    bf73:	48 8d 85 20 fb ff ff 	lea    -0x4e0(%rbp),%rax
    bf7a:	48 89 85 a8 fd ff ff 	mov    %rax,-0x258(%rbp)
    bf81:	48 c7 85 b0 fd ff ff 	movq   $0x0,-0x250(%rbp)
    bf88:	00 00 00 00 
    bf8c:	48 8d 85 20 fb ff ff 	lea    -0x4e0(%rbp),%rax
    bf93:	48 89 85 b8 fd ff ff 	mov    %rax,-0x248(%rbp)
    bf9a:	48 c7 85 c0 fd ff ff 	movq   $0x0,-0x240(%rbp)
    bfa1:	00 00 00 00 
    bfa5:	48 c7 85 c8 fd ff ff 	movq   $0x0,-0x238(%rbp)
    bfac:	00 00 00 00 
    bfb0:	48 8d 85 20 fb ff ff 	lea    -0x4e0(%rbp),%rax
    bfb7:	48 89 85 d0 fd ff ff 	mov    %rax,-0x230(%rbp)
    bfbe:	48 8d 85 20 fb ff ff 	lea    -0x4e0(%rbp),%rax
    bfc5:	48 89 85 d8 fd ff ff 	mov    %rax,-0x228(%rbp)
    bfcc:	48 c7 85 e0 fd ff ff 	movq   $0x0,-0x220(%rbp)
    bfd3:	00 00 00 00 
    bfd7:	48 8d 85 20 fb ff ff 	lea    -0x4e0(%rbp),%rax
    bfde:	48 89 85 e8 fd ff ff 	mov    %rax,-0x218(%rbp)
    bfe5:	48 8d 85 20 fb ff ff 	lea    -0x4e0(%rbp),%rax
    bfec:	48 89 85 f0 fd ff ff 	mov    %rax,-0x210(%rbp)
    bff3:	48 8d 85 20 fb ff ff 	lea    -0x4e0(%rbp),%rax
    bffa:	48 89 85 f8 fd ff ff 	mov    %rax,-0x208(%rbp)
    c001:	48 8d 85 20 fb ff ff 	lea    -0x4e0(%rbp),%rax
    c008:	48 89 85 00 fe ff ff 	mov    %rax,-0x200(%rbp)
    c00f:	48 8d 85 20 fb ff ff 	lea    -0x4e0(%rbp),%rax
    c016:	48 89 85 08 fe ff ff 	mov    %rax,-0x1f8(%rbp)
    c01d:	48 8d 85 20 fb ff ff 	lea    -0x4e0(%rbp),%rax
    c024:	48 89 85 10 fe ff ff 	mov    %rax,-0x1f0(%rbp)
    c02b:	48 c7 85 18 fe ff ff 	movq   $0x0,-0x1e8(%rbp)
    c032:	00 00 00 00 
    c036:	48 c7 85 20 fe ff ff 	movq   $0x0,-0x1e0(%rbp)
    c03d:	00 00 00 00 
    c041:	48 8d 85 20 fb ff ff 	lea    -0x4e0(%rbp),%rax
    c048:	48 89 85 28 fe ff ff 	mov    %rax,-0x1d8(%rbp)
    c04f:	48 8d 85 20 fb ff ff 	lea    -0x4e0(%rbp),%rax
    c056:	48 89 85 30 fe ff ff 	mov    %rax,-0x1d0(%rbp)
    c05d:	48 8d 85 20 fb ff ff 	lea    -0x4e0(%rbp),%rax
    c064:	48 89 85 38 fe ff ff 	mov    %rax,-0x1c8(%rbp)
    c06b:	48 c7 85 40 fe ff ff 	movq   $0x0,-0x1c0(%rbp)
    c072:	00 00 00 00 
    c076:	48 8d 85 20 fb ff ff 	lea    -0x4e0(%rbp),%rax
    c07d:	48 89 85 48 fe ff ff 	mov    %rax,-0x1b8(%rbp)
    c084:	48 8d 85 20 fb ff ff 	lea    -0x4e0(%rbp),%rax
    c08b:	48 89 85 50 fe ff ff 	mov    %rax,-0x1b0(%rbp)
    c092:	48 c7 85 58 fe ff ff 	movq   $0x0,-0x1a8(%rbp)
    c099:	00 00 00 00 
    c09d:	48 c7 85 60 fe ff ff 	movq   $0x0,-0x1a0(%rbp)
    c0a4:	00 00 00 00 
    c0a8:	48 8d 85 20 fb ff ff 	lea    -0x4e0(%rbp),%rax
    c0af:	48 89 85 68 fe ff ff 	mov    %rax,-0x198(%rbp)
    c0b6:	48 c7 85 70 fe ff ff 	movq   $0x0,-0x190(%rbp)
    c0bd:	00 00 00 00 
    c0c1:	48 8d 85 20 fb ff ff 	lea    -0x4e0(%rbp),%rax
    c0c8:	48 89 85 78 fe ff ff 	mov    %rax,-0x188(%rbp)
    c0cf:	48 c7 85 80 fe ff ff 	movq   $0x0,-0x180(%rbp)
    c0d6:	00 00 00 00 
    c0da:	48 c7 85 88 fe ff ff 	movq   $0x0,-0x178(%rbp)
    c0e1:	00 00 00 00 
    c0e5:	48 c7 85 90 fe ff ff 	movq   $0x0,-0x170(%rbp)
    c0ec:	00 00 00 00 
    c0f0:	48 c7 85 98 fe ff ff 	movq   $0x0,-0x168(%rbp)
    c0f7:	00 00 00 00 
    c0fb:	48 8d 85 20 fb ff ff 	lea    -0x4e0(%rbp),%rax
    c102:	48 89 85 a0 fe ff ff 	mov    %rax,-0x160(%rbp)
    c109:	48 c7 85 a8 fe ff ff 	movq   $0x0,-0x158(%rbp)
    c110:	00 00 00 00 
    c114:	48 c7 85 b0 fe ff ff 	movq   $0x0,-0x150(%rbp)
    c11b:	00 00 00 00 
    c11f:	48 8d 85 20 fb ff ff 	lea    -0x4e0(%rbp),%rax
    c126:	48 89 85 b8 fe ff ff 	mov    %rax,-0x148(%rbp)
    c12d:	48 8d 85 20 fb ff ff 	lea    -0x4e0(%rbp),%rax
    c134:	48 89 85 c0 fe ff ff 	mov    %rax,-0x140(%rbp)
    c13b:	48 8d 85 20 fb ff ff 	lea    -0x4e0(%rbp),%rax
    c142:	48 89 85 c8 fe ff ff 	mov    %rax,-0x138(%rbp)
    c149:	48 8d 85 20 fb ff ff 	lea    -0x4e0(%rbp),%rax
    c150:	48 89 85 d0 fe ff ff 	mov    %rax,-0x130(%rbp)
    c157:	48 c7 85 d8 fe ff ff 	movq   $0x0,-0x128(%rbp)
    c15e:	00 00 00 00 
    c162:	48 8d 85 20 fb ff ff 	lea    -0x4e0(%rbp),%rax
    c169:	48 89 85 e0 fe ff ff 	mov    %rax,-0x120(%rbp)
    c170:	48 8d 85 20 fb ff ff 	lea    -0x4e0(%rbp),%rax
    c177:	48 89 85 e8 fe ff ff 	mov    %rax,-0x118(%rbp)
    c17e:	48 c7 85 f0 fe ff ff 	movq   $0x0,-0x110(%rbp)
    c185:	00 00 00 00 
    c189:	48 8d 85 20 fb ff ff 	lea    -0x4e0(%rbp),%rax
    c190:	48 89 85 f8 fe ff ff 	mov    %rax,-0x108(%rbp)
    c197:	48 8d 85 20 fb ff ff 	lea    -0x4e0(%rbp),%rax
    c19e:	48 89 85 00 ff ff ff 	mov    %rax,-0x100(%rbp)
    c1a5:	48 c7 85 08 ff ff ff 	movq   $0x0,-0xf8(%rbp)
    c1ac:	00 00 00 00 
    c1b0:	48 c7 85 10 ff ff ff 	movq   $0x0,-0xf0(%rbp)
    c1b7:	00 00 00 00 
    c1bb:	48 8d 85 20 fb ff ff 	lea    -0x4e0(%rbp),%rax
    c1c2:	48 89 85 18 ff ff ff 	mov    %rax,-0xe8(%rbp)
    c1c9:	48 8d 85 20 fb ff ff 	lea    -0x4e0(%rbp),%rax
    c1d0:	48 89 85 20 ff ff ff 	mov    %rax,-0xe0(%rbp)
    c1d7:	48 8d 85 20 fb ff ff 	lea    -0x4e0(%rbp),%rax
    c1de:	48 89 85 28 ff ff ff 	mov    %rax,-0xd8(%rbp)
    c1e5:	48 c7 85 30 ff ff ff 	movq   $0x0,-0xd0(%rbp)
    c1ec:	00 00 00 00 
    c1f0:	48 8d 85 20 fb ff ff 	lea    -0x4e0(%rbp),%rax
    c1f7:	48 89 85 38 ff ff ff 	mov    %rax,-0xc8(%rbp)
    c1fe:	48 c7 85 40 ff ff ff 	movq   $0x0,-0xc0(%rbp)
    c205:	00 00 00 00 
    c209:	48 8d 85 20 fb ff ff 	lea    -0x4e0(%rbp),%rax
    c210:	48 89 85 48 ff ff ff 	mov    %rax,-0xb8(%rbp)
    c217:	48 c7 85 50 ff ff ff 	movq   $0x0,-0xb0(%rbp)
    c21e:	00 00 00 00 
    c222:	48 8d 85 20 fb ff ff 	lea    -0x4e0(%rbp),%rax
    c229:	48 89 85 58 ff ff ff 	mov    %rax,-0xa8(%rbp)
    c230:	48 c7 85 60 ff ff ff 	movq   $0x0,-0xa0(%rbp)
    c237:	00 00 00 00 
    c23b:	48 8d 85 20 fb ff ff 	lea    -0x4e0(%rbp),%rax
    c242:	48 89 85 68 ff ff ff 	mov    %rax,-0x98(%rbp)
    c249:	48 8d 85 20 fb ff ff 	lea    -0x4e0(%rbp),%rax
    c250:	48 89 85 70 ff ff ff 	mov    %rax,-0x90(%rbp)
    c257:	48 8d 85 20 fb ff ff 	lea    -0x4e0(%rbp),%rax
    c25e:	48 89 85 78 ff ff ff 	mov    %rax,-0x88(%rbp)
    c265:	48 c7 45 80 00 00 00 	movq   $0x0,-0x80(%rbp)
    c26c:	00 
    c26d:	48 c7 45 88 00 00 00 	movq   $0x0,-0x78(%rbp)
    c274:	00 
    c275:	48 8d 85 20 fb ff ff 	lea    -0x4e0(%rbp),%rax
    c27c:	48 89 45 90          	mov    %rax,-0x70(%rbp)
    c280:	48 8d 85 20 fb ff ff 	lea    -0x4e0(%rbp),%rax
    c287:	48 89 45 98          	mov    %rax,-0x68(%rbp)
    c28b:	48 c7 45 a0 00 00 00 	movq   $0x0,-0x60(%rbp)
    c292:	00 
    c293:	48 8d 85 20 fb ff ff 	lea    -0x4e0(%rbp),%rax
    c29a:	48 89 45 a8          	mov    %rax,-0x58(%rbp)
    c29e:	48 8d 85 20 fb ff ff 	lea    -0x4e0(%rbp),%rax
    c2a5:	48 89 45 b0          	mov    %rax,-0x50(%rbp)
    c2a9:	48 c7 45 b8 00 00 00 	movq   $0x0,-0x48(%rbp)
    c2b0:	00 
    c2b1:	48 8d 85 20 fb ff ff 	lea    -0x4e0(%rbp),%rax
    c2b8:	48 89 45 c0          	mov    %rax,-0x40(%rbp)
    c2bc:	48 8d 85 20 fb ff ff 	lea    -0x4e0(%rbp),%rax
    c2c3:	48 89 45 c8          	mov    %rax,-0x38(%rbp)
    c2c7:	48 8d 85 90 fd ff ff 	lea    -0x270(%rbp),%rax
    c2ce:	48 05 38 02 00 00    	add    $0x238,%rax
    c2d4:	48 89 85 b0 fb ff ff 	mov    %rax,-0x450(%rbp)
    c2db:	48 8d 85 90 fd ff ff 	lea    -0x270(%rbp),%rax
    c2e2:	48 83 c0 30          	add    $0x30,%rax
    c2e6:	48 89 85 b8 fb ff ff 	mov    %rax,-0x448(%rbp)
    c2ed:	48 8d 85 90 fd ff ff 	lea    -0x270(%rbp),%rax
    c2f4:	48 05 38 02 00 00    	add    $0x238,%rax
    c2fa:	48 89 85 c0 fb ff ff 	mov    %rax,-0x440(%rbp)
    c301:	48 8d 85 90 fd ff ff 	lea    -0x270(%rbp),%rax
    c308:	48 83 c0 30          	add    $0x30,%rax
    c30c:	48 89 85 c8 fb ff ff 	mov    %rax,-0x438(%rbp)
    c313:	48 8d 85 90 fd ff ff 	lea    -0x270(%rbp),%rax
    c31a:	48 05 38 02 00 00    	add    $0x238,%rax
    c320:	48 89 85 d0 fb ff ff 	mov    %rax,-0x430(%rbp)
    c327:	48 8d 85 90 fd ff ff 	lea    -0x270(%rbp),%rax
    c32e:	48 83 c0 30          	add    $0x30,%rax
    c332:	48 89 85 d8 fb ff ff 	mov    %rax,-0x428(%rbp)
    c339:	48 8d 85 90 fd ff ff 	lea    -0x270(%rbp),%rax
    c340:	48 05 10 02 00 00    	add    $0x210,%rax
    c346:	48 89 85 e0 fb ff ff 	mov    %rax,-0x420(%rbp)
    c34d:	48 8d 85 90 fd ff ff 	lea    -0x270(%rbp),%rax
    c354:	48 83 c0 30          	add    $0x30,%rax
    c358:	48 89 85 e8 fb ff ff 	mov    %rax,-0x418(%rbp)
    c35f:	48 8d 85 90 fd ff ff 	lea    -0x270(%rbp),%rax
    c366:	48 05 10 02 00 00    	add    $0x210,%rax
    c36c:	48 89 85 f0 fb ff ff 	mov    %rax,-0x410(%rbp)
    c373:	48 8d 85 90 fd ff ff 	lea    -0x270(%rbp),%rax
    c37a:	48 83 c0 30          	add    $0x30,%rax
    c37e:	48 89 85 f8 fb ff ff 	mov    %rax,-0x408(%rbp)
    c385:	48 8d 85 90 fd ff ff 	lea    -0x270(%rbp),%rax
    c38c:	48 05 10 02 00 00    	add    $0x210,%rax
    c392:	48 89 85 00 fc ff ff 	mov    %rax,-0x400(%rbp)
    c399:	48 8d 85 90 fd ff ff 	lea    -0x270(%rbp),%rax
    c3a0:	48 83 c0 30          	add    $0x30,%rax
    c3a4:	48 89 85 08 fc ff ff 	mov    %rax,-0x3f8(%rbp)
    c3ab:	48 8d 85 90 fd ff ff 	lea    -0x270(%rbp),%rax
    c3b2:	48 05 38 02 00 00    	add    $0x238,%rax
    c3b8:	48 89 85 10 fc ff ff 	mov    %rax,-0x3f0(%rbp)
    c3bf:	48 8d 85 90 fd ff ff 	lea    -0x270(%rbp),%rax
    c3c6:	48 83 c0 30          	add    $0x30,%rax
    c3ca:	48 89 85 18 fc ff ff 	mov    %rax,-0x3e8(%rbp)
    c3d1:	48 8d 85 90 fd ff ff 	lea    -0x270(%rbp),%rax
    c3d8:	48 05 38 02 00 00    	add    $0x238,%rax
    c3de:	48 89 85 20 fc ff ff 	mov    %rax,-0x3e0(%rbp)
    c3e5:	48 8d 85 90 fd ff ff 	lea    -0x270(%rbp),%rax
    c3ec:	48 83 c0 30          	add    $0x30,%rax
    c3f0:	48 89 85 28 fc ff ff 	mov    %rax,-0x3d8(%rbp)
    c3f7:	48 8d 85 90 fd ff ff 	lea    -0x270(%rbp),%rax
    c3fe:	48 05 38 02 00 00    	add    $0x238,%rax
    c404:	48 89 85 30 fc ff ff 	mov    %rax,-0x3d0(%rbp)
    c40b:	48 8d 85 90 fd ff ff 	lea    -0x270(%rbp),%rax
    c412:	48 83 c0 30          	add    $0x30,%rax
    c416:	48 89 85 38 fc ff ff 	mov    %rax,-0x3c8(%rbp)
    c41d:	48 8d 85 90 fd ff ff 	lea    -0x270(%rbp),%rax
    c424:	48 05 10 02 00 00    	add    $0x210,%rax
    c42a:	48 89 85 40 fc ff ff 	mov    %rax,-0x3c0(%rbp)
    c431:	48 8d 85 90 fd ff ff 	lea    -0x270(%rbp),%rax
    c438:	48 83 c0 30          	add    $0x30,%rax
    c43c:	48 89 85 48 fc ff ff 	mov    %rax,-0x3b8(%rbp)
    c443:	48 8d 85 90 fd ff ff 	lea    -0x270(%rbp),%rax
    c44a:	48 05 10 02 00 00    	add    $0x210,%rax
    c450:	48 89 85 50 fc ff ff 	mov    %rax,-0x3b0(%rbp)
    c457:	48 8d 85 90 fd ff ff 	lea    -0x270(%rbp),%rax
    c45e:	48 83 c0 30          	add    $0x30,%rax
    c462:	48 89 85 58 fc ff ff 	mov    %rax,-0x3a8(%rbp)
    c469:	48 8d 85 90 fd ff ff 	lea    -0x270(%rbp),%rax
    c470:	48 05 10 02 00 00    	add    $0x210,%rax
    c476:	48 89 85 60 fc ff ff 	mov    %rax,-0x3a0(%rbp)
    c47d:	48 8d 85 90 fd ff ff 	lea    -0x270(%rbp),%rax
    c484:	48 83 c0 30          	add    $0x30,%rax
    c488:	48 89 85 68 fc ff ff 	mov    %rax,-0x398(%rbp)
    c48f:	48 8d 85 90 fd ff ff 	lea    -0x270(%rbp),%rax
    c496:	48 05 38 02 00 00    	add    $0x238,%rax
    c49c:	48 89 85 70 fc ff ff 	mov    %rax,-0x390(%rbp)
    c4a3:	48 8d 85 90 fd ff ff 	lea    -0x270(%rbp),%rax
    c4aa:	48 83 c0 30          	add    $0x30,%rax
    c4ae:	48 89 85 78 fc ff ff 	mov    %rax,-0x388(%rbp)
    c4b5:	48 8d 85 90 fd ff ff 	lea    -0x270(%rbp),%rax
    c4bc:	48 05 38 02 00 00    	add    $0x238,%rax
    c4c2:	48 89 85 80 fc ff ff 	mov    %rax,-0x380(%rbp)
    c4c9:	48 8d 85 90 fd ff ff 	lea    -0x270(%rbp),%rax
    c4d0:	48 83 c0 30          	add    $0x30,%rax
    c4d4:	48 89 85 88 fc ff ff 	mov    %rax,-0x378(%rbp)
    c4db:	48 8d 85 90 fd ff ff 	lea    -0x270(%rbp),%rax
    c4e2:	48 05 38 02 00 00    	add    $0x238,%rax
    c4e8:	48 89 85 90 fc ff ff 	mov    %rax,-0x370(%rbp)
    c4ef:	48 8d 85 90 fd ff ff 	lea    -0x270(%rbp),%rax
    c4f6:	48 83 c0 30          	add    $0x30,%rax
    c4fa:	48 89 85 98 fc ff ff 	mov    %rax,-0x368(%rbp)
    c501:	48 8d 85 90 fd ff ff 	lea    -0x270(%rbp),%rax
    c508:	48 05 10 02 00 00    	add    $0x210,%rax
    c50e:	48 89 85 a0 fc ff ff 	mov    %rax,-0x360(%rbp)
    c515:	48 8d 85 90 fd ff ff 	lea    -0x270(%rbp),%rax
    c51c:	48 83 c0 30          	add    $0x30,%rax
    c520:	48 89 85 a8 fc ff ff 	mov    %rax,-0x358(%rbp)
    c527:	48 8d 85 90 fd ff ff 	lea    -0x270(%rbp),%rax
    c52e:	48 05 10 02 00 00    	add    $0x210,%rax
    c534:	48 89 85 b0 fc ff ff 	mov    %rax,-0x350(%rbp)
    c53b:	48 8d 85 90 fd ff ff 	lea    -0x270(%rbp),%rax
    c542:	48 83 c0 30          	add    $0x30,%rax
    c546:	48 89 85 b8 fc ff ff 	mov    %rax,-0x348(%rbp)
    c54d:	48 8d 85 90 fd ff ff 	lea    -0x270(%rbp),%rax
    c554:	48 05 10 02 00 00    	add    $0x210,%rax
    c55a:	48 89 85 c0 fc ff ff 	mov    %rax,-0x340(%rbp)
    c561:	48 8d 85 90 fd ff ff 	lea    -0x270(%rbp),%rax
    c568:	48 83 c0 30          	add    $0x30,%rax
    c56c:	48 89 85 c8 fc ff ff 	mov    %rax,-0x338(%rbp)
    c573:	48 8d 85 90 fd ff ff 	lea    -0x270(%rbp),%rax
    c57a:	48 05 38 02 00 00    	add    $0x238,%rax
    c580:	48 89 85 d0 fc ff ff 	mov    %rax,-0x330(%rbp)
    c587:	48 8d 85 90 fd ff ff 	lea    -0x270(%rbp),%rax
    c58e:	48 83 c0 30          	add    $0x30,%rax
    c592:	48 89 85 d8 fc ff ff 	mov    %rax,-0x328(%rbp)
    c599:	48 8d 85 90 fd ff ff 	lea    -0x270(%rbp),%rax
    c5a0:	48 05 38 02 00 00    	add    $0x238,%rax
    c5a6:	48 89 85 e0 fc ff ff 	mov    %rax,-0x320(%rbp)
    c5ad:	48 8d 85 90 fd ff ff 	lea    -0x270(%rbp),%rax
    c5b4:	48 83 c0 30          	add    $0x30,%rax
    c5b8:	48 89 85 e8 fc ff ff 	mov    %rax,-0x318(%rbp)
    c5bf:	48 8d 85 90 fd ff ff 	lea    -0x270(%rbp),%rax
    c5c6:	48 05 38 02 00 00    	add    $0x238,%rax
    c5cc:	48 89 85 f0 fc ff ff 	mov    %rax,-0x310(%rbp)
    c5d3:	48 8d 85 90 fd ff ff 	lea    -0x270(%rbp),%rax
    c5da:	48 83 c0 30          	add    $0x30,%rax
    c5de:	48 89 85 f8 fc ff ff 	mov    %rax,-0x308(%rbp)
    c5e5:	48 8d 85 90 fd ff ff 	lea    -0x270(%rbp),%rax
    c5ec:	48 05 10 02 00 00    	add    $0x210,%rax
    c5f2:	48 89 85 00 fd ff ff 	mov    %rax,-0x300(%rbp)
    c5f9:	48 8d 85 90 fd ff ff 	lea    -0x270(%rbp),%rax
    c600:	48 83 c0 30          	add    $0x30,%rax
    c604:	48 89 85 08 fd ff ff 	mov    %rax,-0x2f8(%rbp)
    c60b:	48 8d 85 90 fd ff ff 	lea    -0x270(%rbp),%rax
    c612:	48 05 10 02 00 00    	add    $0x210,%rax
    c618:	48 89 85 10 fd ff ff 	mov    %rax,-0x2f0(%rbp)
    c61f:	48 8d 85 90 fd ff ff 	lea    -0x270(%rbp),%rax
    c626:	48 83 c0 30          	add    $0x30,%rax
    c62a:	48 89 85 18 fd ff ff 	mov    %rax,-0x2e8(%rbp)
    c631:	48 8d 85 90 fd ff ff 	lea    -0x270(%rbp),%rax
    c638:	48 05 10 02 00 00    	add    $0x210,%rax
    c63e:	48 89 85 20 fd ff ff 	mov    %rax,-0x2e0(%rbp)
    c645:	48 8d 85 90 fd ff ff 	lea    -0x270(%rbp),%rax
    c64c:	48 83 c0 30          	add    $0x30,%rax
    c650:	48 89 85 28 fd ff ff 	mov    %rax,-0x2d8(%rbp)
    c657:	48 8d 85 90 fd ff ff 	lea    -0x270(%rbp),%rax
    c65e:	48 05 38 02 00 00    	add    $0x238,%rax
    c664:	48 89 85 30 fd ff ff 	mov    %rax,-0x2d0(%rbp)
    c66b:	48 8d 85 90 fd ff ff 	lea    -0x270(%rbp),%rax
    c672:	48 83 c0 30          	add    $0x30,%rax
    c676:	48 89 85 38 fd ff ff 	mov    %rax,-0x2c8(%rbp)
    c67d:	48 8d 85 90 fd ff ff 	lea    -0x270(%rbp),%rax
    c684:	48 05 38 02 00 00    	add    $0x238,%rax
    c68a:	48 89 85 40 fd ff ff 	mov    %rax,-0x2c0(%rbp)
    c691:	48 8d 85 90 fd ff ff 	lea    -0x270(%rbp),%rax
    c698:	48 83 c0 30          	add    $0x30,%rax
    c69c:	48 89 85 48 fd ff ff 	mov    %rax,-0x2b8(%rbp)
    c6a3:	48 8d 85 90 fd ff ff 	lea    -0x270(%rbp),%rax
    c6aa:	48 05 38 02 00 00    	add    $0x238,%rax
    c6b0:	48 89 85 50 fd ff ff 	mov    %rax,-0x2b0(%rbp)
    c6b7:	48 8d 85 90 fd ff ff 	lea    -0x270(%rbp),%rax
    c6be:	48 83 c0 30          	add    $0x30,%rax
    c6c2:	48 89 85 58 fd ff ff 	mov    %rax,-0x2a8(%rbp)
    c6c9:	48 8d 85 90 fd ff ff 	lea    -0x270(%rbp),%rax
    c6d0:	48 05 10 02 00 00    	add    $0x210,%rax
    c6d6:	48 89 85 60 fd ff ff 	mov    %rax,-0x2a0(%rbp)
    c6dd:	48 8d 85 90 fd ff ff 	lea    -0x270(%rbp),%rax
    c6e4:	48 83 c0 30          	add    $0x30,%rax
    c6e8:	48 89 85 68 fd ff ff 	mov    %rax,-0x298(%rbp)
    c6ef:	48 8d 85 90 fd ff ff 	lea    -0x270(%rbp),%rax
    c6f6:	48 05 10 02 00 00    	add    $0x210,%rax
    c6fc:	48 89 85 70 fd ff ff 	mov    %rax,-0x290(%rbp)
    c703:	48 8d 85 90 fd ff ff 	lea    -0x270(%rbp),%rax
    c70a:	48 83 c0 30          	add    $0x30,%rax
    c70e:	48 89 85 78 fd ff ff 	mov    %rax,-0x288(%rbp)
    c715:	48 8d 85 90 fd ff ff 	lea    -0x270(%rbp),%rax
    c71c:	48 05 10 02 00 00    	add    $0x210,%rax
    c722:	48 89 85 80 fd ff ff 	mov    %rax,-0x280(%rbp)
    c729:	48 8d 85 90 fd ff ff 	lea    -0x270(%rbp),%rax
    c730:	48 83 c0 30          	add    $0x30,%rax
    c734:	48 89 85 88 fd ff ff 	mov    %rax,-0x278(%rbp)
    c73b:	48 c7 85 28 fb ff ff 	movq   $0x0,-0x4d8(%rbp)
    c742:	00 00 00 00 
    c746:	48 8d 05 51 4d 01 00 	lea    0x14d51(%rip),%rax        # 2149e <g_569+0x1e>
    c74d:	48 89 85 48 fb ff ff 	mov    %rax,-0x4b8(%rbp)
    c754:	66 c7 85 0e fb ff ff 	movw   $0x53e8,-0x4f2(%rbp)
    c75b:	e8 53 
    c75d:	48 8d 85 28 fb ff ff 	lea    -0x4d8(%rbp),%rax
    c764:	48 89 85 30 fb ff ff 	mov    %rax,-0x4d0(%rbp)
    c76b:	48 8d 85 30 fb ff ff 	lea    -0x4d0(%rbp),%rax
    c772:	48 89 85 38 fb ff ff 	mov    %rax,-0x4c8(%rbp)
    c779:	48 8d 85 38 fb ff ff 	lea    -0x4c8(%rbp),%rax
    c780:	48 89 85 50 fb ff ff 	mov    %rax,-0x4b0(%rbp)
    c787:	c7 85 14 fb ff ff 59 	movl   $0x663fb059,-0x4ec(%rbp)
    c78e:	b0 3f 66 
    c791:	48 8d 05 ac 48 01 00 	lea    0x148ac(%rip),%rax        # 21044 <g_62+0x4>
    c798:	48 89 85 58 fb ff ff 	mov    %rax,-0x4a8(%rbp)
    c79f:	c7 85 10 fb ff ff 00 	movl   $0x0,-0x4f0(%rbp)
    c7a6:	00 00 00 
    c7a9:	eb 1e                	jmp    c7c9 <func_18+0x8e2>
    c7ab:	8b 85 10 fb ff ff    	mov    -0x4f0(%rbp),%eax
    c7b1:	48 98                	cltq   
    c7b3:	48 8d 15 86 4a 01 00 	lea    0x14a86(%rip),%rdx        # 21240 <g_101>
    c7ba:	48 89 94 c5 60 fb ff 	mov    %rdx,-0x4a0(%rbp,%rax,8)
    c7c1:	ff 
    c7c2:	83 85 10 fb ff ff 01 	addl   $0x1,-0x4f0(%rbp)
    c7c9:	83 bd 10 fb ff ff 09 	cmpl   $0x9,-0x4f0(%rbp)
    c7d0:	7e d9                	jle    c7ab <func_18+0x8c4>
    c7d2:	8b 85 fc fa ff ff    	mov    -0x504(%rbp),%eax
    c7d8:	48 98                	cltq   
    c7da:	48 39 85 40 fb ff ff 	cmp    %rax,-0x4c0(%rbp)
    c7e1:	0f 9c c0             	setl   %al
    c7e4:	44 0f b6 e0          	movzbl %al,%r12d
    c7e8:	48 8b 05 a9 74 01 00 	mov    0x174a9(%rip),%rax        # 23c98 <g_1050>
    c7ef:	48 8b 18             	mov    (%rax),%rbx
    c7f2:	8b 85 fc fa ff ff    	mov    -0x504(%rbp),%eax
    c7f8:	0f b6 d0             	movzbl %al,%edx
    c7fb:	48 8b 05 36 64 01 00 	mov    0x16436(%rip),%rax        # 22c38 <g_712>
    c802:	48 8b 00             	mov    (%rax),%rax
    c805:	48 8b 00             	mov    (%rax),%rax
    c808:	0f b6 00             	movzbl (%rax),%eax
    c80b:	0f b6 c0             	movzbl %al,%eax
    c80e:	89 d6                	mov    %edx,%esi
    c810:	89 c7                	mov    %eax,%edi
    c812:	e8 c4 e3 ff ff       	callq  abdb <safe_div_func_uint8_t_u_u>
    c817:	0f b6 c0             	movzbl %al,%eax
    c81a:	48 be 2b b2 46 81 0d 	movabs $0x42dfed0d8146b22b,%rsi
    c821:	ed df 42 
    c824:	48 89 c7             	mov    %rax,%rdi
    c827:	e8 02 e8 ff ff       	callq  b02e <safe_add_func_uint64_t_u_u>
    c82c:	48 8b 85 58 fd ff ff 	mov    -0x2a8(%rbp),%rax
    c833:	48 8d 95 90 fd ff ff 	lea    -0x270(%rbp),%rdx
    c83a:	48 83 c2 30          	add    $0x30,%rdx
    c83e:	48 39 d0             	cmp    %rdx,%rax
    c841:	0f 95 c0             	setne  %al
    c844:	0f b6 c0             	movzbl %al,%eax
    c847:	48 39 85 40 fb ff ff 	cmp    %rax,-0x4c0(%rbp)
    c84e:	0f 9e c0             	setle  %al
    c851:	0f b6 c0             	movzbl %al,%eax
    c854:	48 0b 85 40 fb ff ff 	or     -0x4c0(%rbp),%rax
    c85b:	48 89 de             	mov    %rbx,%rsi
    c85e:	48 89 c7             	mov    %rax,%rdi
    c861:	e8 c8 e7 ff ff       	callq  b02e <safe_add_func_uint64_t_u_u>
    c866:	48 8b 85 48 fb ff ff 	mov    -0x4b8(%rbp),%rax
    c86d:	66 c7 00 01 00       	movw   $0x1,(%rax)
    c872:	48 8b 85 48 fb ff ff 	mov    -0x4b8(%rbp),%rax
    c879:	0f b7 00             	movzwl (%rax),%eax
    c87c:	0f b7 c0             	movzwl %ax,%eax
    c87f:	89 c6                	mov    %eax,%esi
    c881:	bf bd 9c 00 00       	mov    $0x9cbd,%edi
    c886:	e8 94 e4 ff ff       	callq  ad1f <safe_sub_func_uint16_t_u_u>
    c88b:	0f be c0             	movsbl %al,%eax
    c88e:	be 07 00 00 00       	mov    $0x7,%esi
    c893:	89 c7                	mov    %eax,%edi
    c895:	e8 d2 da ff ff       	callq  a36c <safe_rshift_func_int8_t_s_u>
    c89a:	89 c2                	mov    %eax,%edx
    c89c:	48 8b 05 7d 63 01 00 	mov    0x1637d(%rip),%rax        # 22c20 <g_487>
    c8a3:	88 10                	mov    %dl,(%rax)
    c8a5:	0f b6 00             	movzbl (%rax),%eax
    c8a8:	84 c0                	test   %al,%al
    c8aa:	48 8b 05 e7 73 01 00 	mov    0x173e7(%rip),%rax        # 23c98 <g_1050>
    c8b1:	48 b9 31 cd 7c a3 4f 	movabs $0xe2f4e04fa37ccd31,%rcx
    c8b8:	e0 f4 e2 
    c8bb:	48 89 08             	mov    %rcx,(%rax)
    c8be:	48 8b 00             	mov    (%rax),%rax
    c8c1:	49 39 c4             	cmp    %rax,%r12
    c8c4:	0f 97 c0             	seta   %al
    c8c7:	0f b6 c0             	movzbl %al,%eax
    c8ca:	48 39 85 40 fb ff ff 	cmp    %rax,-0x4c0(%rbp)
    c8d1:	74 10                	je     c8e3 <func_18+0x9fc>
    c8d3:	83 bd fc fa ff ff 00 	cmpl   $0x0,-0x504(%rbp)
    c8da:	74 07                	je     c8e3 <func_18+0x9fc>
    c8dc:	b8 01 00 00 00       	mov    $0x1,%eax
    c8e1:	eb 05                	jmp    c8e8 <func_18+0xa01>
    c8e3:	b8 00 00 00 00       	mov    $0x0,%eax
    c8e8:	66 89 85 0e fb ff ff 	mov    %ax,-0x4f2(%rbp)
    c8ef:	48 8b 05 1a 7d 01 00 	mov    0x17d1a(%rip),%rax        # 24610 <g_2962>
    c8f6:	0f b7 95 0e fb ff ff 	movzwl -0x4f2(%rbp),%edx
    c8fd:	89 10                	mov    %edx,(%rax)
    c8ff:	48 8b 05 92 73 01 00 	mov    0x17392(%rip),%rax        # 23c98 <g_1050>
    c906:	48 8b 18             	mov    (%rax),%rbx
    c909:	48 8b 85 50 fb ff ff 	mov    -0x4b0(%rbp),%rax
    c910:	48 c7 00 00 00 00 00 	movq   $0x0,(%rax)
    c917:	48 8b 05 82 81 01 00 	mov    0x18182(%rip),%rax        # 24aa0 <g_2980>
    c91e:	48 85 c0             	test   %rax,%rax
    c921:	0f 95 c0             	setne  %al
    c924:	44 0f b6 e8          	movzbl %al,%r13d
    c928:	48 8b 85 40 fb ff ff 	mov    -0x4c0(%rbp),%rax
    c92f:	0f be c0             	movsbl %al,%eax
    c932:	be ff ff ff ff       	mov    $0xffffffff,%esi
    c937:	89 c7                	mov    %eax,%edi
    c939:	e8 d4 d8 ff ff       	callq  a212 <safe_mul_func_int8_t_s_s>
    c93e:	66 44 0f be f0       	movsbw %al,%r14w
    c943:	44 8b a5 14 fb ff ff 	mov    -0x4ec(%rbp),%r12d
    c94a:	0f b7 85 0e fb ff ff 	movzwl -0x4f2(%rbp),%eax
    c951:	0f bf d0             	movswl %ax,%edx
    c954:	48 8b 05 c5 62 01 00 	mov    0x162c5(%rip),%rax        # 22c20 <g_487>
    c95b:	0f b6 08             	movzbl (%rax),%ecx
    c95e:	48 8b 05 d3 62 01 00 	mov    0x162d3(%rip),%rax        # 22c38 <g_712>
    c965:	48 8b 00             	mov    (%rax),%rax
    c968:	48 8b 00             	mov    (%rax),%rax
    c96b:	0f b6 00             	movzbl (%rax),%eax
    c96e:	31 c8                	xor    %ecx,%eax
    c970:	0f b6 c0             	movzbl %al,%eax
    c973:	f7 d0                	not    %eax
    c975:	98                   	cwtl   
    c976:	89 d6                	mov    %edx,%esi
    c978:	89 c7                	mov    %eax,%edi
    c97a:	e8 76 da ff ff       	callq  a3f5 <safe_mul_func_int16_t_s_s>
    c97f:	98                   	cwtl   
    c980:	44 89 e6             	mov    %r12d,%esi
    c983:	89 c7                	mov    %eax,%edi
    c985:	e8 73 e5 ff ff       	callq  aefd <safe_mod_func_uint32_t_u_u>
    c98a:	44 31 f0             	xor    %r14d,%eax
    c98d:	0f bf d0             	movswl %ax,%edx
    c990:	48 8b 85 40 fb ff ff 	mov    -0x4c0(%rbp),%rax
    c997:	98                   	cwtl   
    c998:	89 d6                	mov    %edx,%esi
    c99a:	89 c7                	mov    %eax,%edi
    c99c:	e8 12 da ff ff       	callq  a3b3 <safe_add_func_int16_t_s_s>
    c9a1:	44 21 e8             	and    %r13d,%eax
    c9a4:	98                   	cwtl   
    c9a5:	8b 95 fc fa ff ff    	mov    -0x504(%rbp),%edx
    c9ab:	89 d6                	mov    %edx,%esi
    c9ad:	89 c7                	mov    %eax,%edi
    c9af:	e8 de da ff ff       	callq  a492 <safe_lshift_func_int16_t_s_s>
    c9b4:	48 8d 05 ad 74 01 00 	lea    0x174ad(%rip),%rax        # 23e68 <g_2350>
    c9bb:	48 8b 00             	mov    (%rax),%rax
    c9be:	48 8b 00             	mov    (%rax),%rax
    c9c1:	48 89 c2             	mov    %rax,%rdx
    c9c4:	48 8b 85 40 fb ff ff 	mov    -0x4c0(%rbp),%rax
    c9cb:	48 89 d6             	mov    %rdx,%rsi
    c9ce:	48 89 c7             	mov    %rax,%rdi
    c9d1:	e8 58 e6 ff ff       	callq  b02e <safe_add_func_uint64_t_u_u>
    c9d6:	25 65 49 00 00       	and    $0x4965,%eax
    c9db:	48 89 de             	mov    %rbx,%rsi
    c9de:	48 89 c7             	mov    %rax,%rdi
    c9e1:	e8 65 e6 ff ff       	callq  b04b <safe_sub_func_uint64_t_u_u>
    c9e6:	48 ba 15 95 07 b3 1c 	movabs $0xa98ea71cb3079515,%rdx
    c9ed:	a7 8e a9 
    c9f0:	48 39 d0             	cmp    %rdx,%rax
    c9f3:	0f 96 c0             	setbe  %al
    c9f6:	0f b6 c0             	movzbl %al,%eax
    c9f9:	48 8b 95 40 fb ff ff 	mov    -0x4c0(%rbp),%rdx
    ca00:	48 89 d6             	mov    %rdx,%rsi
    ca03:	48 89 c7             	mov    %rax,%rdi
    ca06:	e8 36 de ff ff       	callq  a841 <safe_add_func_int64_t_s_s>
    ca0b:	0f be d0             	movsbl %al,%edx
    ca0e:	8b 85 fc fa ff ff    	mov    -0x504(%rbp),%eax
    ca14:	0f be c0             	movsbl %al,%eax
    ca17:	89 d6                	mov    %edx,%esi
    ca19:	89 c7                	mov    %eax,%edi
    ca1b:	e8 f2 d7 ff ff       	callq  a212 <safe_mul_func_int8_t_s_s>
    ca20:	0f be c0             	movsbl %al,%eax
    ca23:	be 01 00 00 00       	mov    $0x1,%esi
    ca28:	89 c7                	mov    %eax,%edi
    ca2a:	e8 c6 d9 ff ff       	callq  a3f5 <safe_mul_func_int16_t_s_s>
    ca2f:	0f bf d0             	movswl %ax,%edx
    ca32:	8b 05 9c 4c 01 00    	mov    0x14c9c(%rip),%eax        # 216d4 <g_2864+0x4>
    ca38:	31 d0                	xor    %edx,%eax
    ca3a:	89 c0                	mov    %eax,%eax
    ca3c:	48 21 85 f0 fa ff ff 	and    %rax,-0x510(%rbp)
    ca43:	be 0a 00 00 00       	mov    $0xa,%esi
    ca48:	bf b0 08 00 00       	mov    $0x8b0,%edi
    ca4d:	e8 28 e4 ff ff       	callq  ae7a <safe_rshift_func_uint16_t_u_u>
    ca52:	48 8b 95 58 fb ff ff 	mov    -0x4a8(%rbp),%rdx
    ca59:	8b 12                	mov    (%rdx),%edx
    ca5b:	0f b7 c0             	movzwl %ax,%eax
    ca5e:	21 c2                	and    %eax,%edx
    ca60:	48 8b 85 58 fb ff ff 	mov    -0x4a8(%rbp),%rax
    ca67:	89 10                	mov    %edx,(%rax)
    ca69:	48 8b 85 58 fb ff ff 	mov    -0x4a8(%rbp),%rax
    ca70:	8b 00                	mov    (%rax),%eax
    ca72:	48 8b 4d d8          	mov    -0x28(%rbp),%rcx
    ca76:	64 48 33 0c 25 28 00 	xor    %fs:0x28,%rcx
    ca7d:	00 00 
    ca7f:	74 05                	je     ca86 <func_18+0xb9f>
    ca81:	e8 ea d5 ff ff       	callq  a070 <__stack_chk_fail@plt>
    ca86:	48 81 c4 f0 04 00 00 	add    $0x4f0,%rsp
    ca8d:	5b                   	pop    %rbx
    ca8e:	41 5c                	pop    %r12
    ca90:	41 5d                	pop    %r13
    ca92:	41 5e                	pop    %r14
    ca94:	5d                   	pop    %rbp
    ca95:	c3                   	retq   

000000000000ca96 <func_22>:
    ca96:	f3 0f 1e fa          	endbr64 
    ca9a:	55                   	push   %rbp
    ca9b:	48 89 e5             	mov    %rsp,%rbp
    ca9e:	41 54                	push   %r12
    caa0:	53                   	push   %rbx
    caa1:	48 81 ec a0 00 00 00 	sub    $0xa0,%rsp
    caa8:	48 89 bd 68 ff ff ff 	mov    %rdi,-0x98(%rbp)
    caaf:	48 89 b5 60 ff ff ff 	mov    %rsi,-0xa0(%rbp)
    cab6:	89 95 5c ff ff ff    	mov    %edx,-0xa4(%rbp)
    cabc:	89 c8                	mov    %ecx,%eax
    cabe:	88 85 58 ff ff ff    	mov    %al,-0xa8(%rbp)
    cac4:	64 48 8b 04 25 28 00 	mov    %fs:0x28,%rax
    cacb:	00 00 
    cacd:	48 89 45 e8          	mov    %rax,-0x18(%rbp)
    cad1:	31 c0                	xor    %eax,%eax
    cad3:	c7 45 80 31 f8 b5 11 	movl   $0x11b5f831,-0x80(%rbp)
    cada:	48 c7 45 88 06 00 00 	movq   $0x6,-0x78(%rbp)
    cae1:	00 
    cae2:	48 8d 05 13 47 01 00 	lea    0x14713(%rip),%rax        # 211fc <g_94+0x19c>
    cae9:	48 89 45 a0          	mov    %rax,-0x60(%rbp)
    caed:	48 8d 05 08 47 01 00 	lea    0x14708(%rip),%rax        # 211fc <g_94+0x19c>
    caf4:	48 89 45 a8          	mov    %rax,-0x58(%rbp)
    caf8:	48 8d 05 fd 46 01 00 	lea    0x146fd(%rip),%rax        # 211fc <g_94+0x19c>
    caff:	48 89 45 b0          	mov    %rax,-0x50(%rbp)
    cb03:	48 8d 05 f2 46 01 00 	lea    0x146f2(%rip),%rax        # 211fc <g_94+0x19c>
    cb0a:	48 89 45 b8          	mov    %rax,-0x48(%rbp)
    cb0e:	48 8d 05 e7 46 01 00 	lea    0x146e7(%rip),%rax        # 211fc <g_94+0x19c>
    cb15:	48 89 45 c0          	mov    %rax,-0x40(%rbp)
    cb19:	48 8d 05 dc 46 01 00 	lea    0x146dc(%rip),%rax        # 211fc <g_94+0x19c>
    cb20:	48 89 45 c8          	mov    %rax,-0x38(%rbp)
    cb24:	48 8d 05 d1 46 01 00 	lea    0x146d1(%rip),%rax        # 211fc <g_94+0x19c>
    cb2b:	48 89 45 d0          	mov    %rax,-0x30(%rbp)
    cb2f:	48 8d 05 c6 46 01 00 	lea    0x146c6(%rip),%rax        # 211fc <g_94+0x19c>
    cb36:	48 89 45 d8          	mov    %rax,-0x28(%rbp)
    cb3a:	48 8d 05 bb 46 01 00 	lea    0x146bb(%rip),%rax        # 211fc <g_94+0x19c>
    cb41:	48 89 45 e0          	mov    %rax,-0x20(%rbp)
    cb45:	c7 45 84 f9 ff ff ff 	movl   $0xfffffff9,-0x7c(%rbp)
    cb4c:	c7 85 7c ff ff ff 00 	movl   $0x0,-0x84(%rbp)
    cb53:	00 00 00 
    cb56:	eb 17                	jmp    cb6f <func_22+0xd9>
    cb58:	8b 85 7c ff ff ff    	mov    -0x84(%rbp),%eax
    cb5e:	48 98                	cltq   
    cb60:	c7 44 85 94 02 00 00 	movl   $0x2,-0x6c(%rbp,%rax,4)
    cb67:	00 
    cb68:	83 85 7c ff ff ff 01 	addl   $0x1,-0x84(%rbp)
    cb6f:	83 bd 7c ff ff ff 02 	cmpl   $0x2,-0x84(%rbp)
    cb76:	7e e0                	jle    cb58 <func_22+0xc2>
    cb78:	8b 45 80             	mov    -0x80(%rbp),%eax
    cb7b:	83 f0 07             	xor    $0x7,%eax
    cb7e:	48 63 d8             	movslq %eax,%rbx
    cb81:	8b 85 5c ff ff ff    	mov    -0xa4(%rbp),%eax
    cb87:	89 c6                	mov    %eax,%esi
    cb89:	bf f7 ff ff ff       	mov    $0xfffffff7,%edi
    cb8e:	e8 72 da ff ff       	callq  a605 <safe_sub_func_int32_t_s_s>
    cb93:	41 89 c4             	mov    %eax,%r12d
    cb96:	8b 45 80             	mov    -0x80(%rbp),%eax
    cb99:	0f be c0             	movsbl %al,%eax
    cb9c:	be 04 00 00 00       	mov    $0x4,%esi
    cba1:	89 c7                	mov    %eax,%edi
    cba3:	e8 46 d7 ff ff       	callq  a2ee <safe_lshift_func_int8_t_s_u>
    cba8:	48 8b 45 88          	mov    -0x78(%rbp),%rax
    cbac:	89 c1                	mov    %eax,%ecx
    cbae:	80 bd 58 ff ff ff 00 	cmpb   $0x0,-0xa8(%rbp)
    cbb5:	75 15                	jne    cbcc <func_22+0x136>
    cbb7:	48 8b 05 2a 38 01 00 	mov    0x1382a(%rip),%rax        # 203e8 <l_2934.4192+0x88>
    cbbe:	48 85 c0             	test   %rax,%rax
    cbc1:	0f 94 c0             	sete   %al
    cbc4:	0f b6 c0             	movzbl %al,%eax
    cbc7:	39 45 80             	cmp    %eax,-0x80(%rbp)
    cbca:	7d 07                	jge    cbd3 <func_22+0x13d>
    cbcc:	b8 01 00 00 00       	mov    $0x1,%eax
    cbd1:	eb 05                	jmp    cbd8 <func_22+0x142>
    cbd3:	b8 00 00 00 00       	mov    $0x0,%eax
    cbd8:	3b 45 80             	cmp    -0x80(%rbp),%eax
    cbdb:	0f 9f c0             	setg   %al
    cbde:	0f b6 d0             	movzbl %al,%edx
    cbe1:	0f be 85 58 ff ff ff 	movsbl -0xa8(%rbp),%eax
    cbe8:	39 c2                	cmp    %eax,%edx
    cbea:	0f 94 c0             	sete   %al
    cbed:	0f b6 c0             	movzbl %al,%eax
    cbf0:	39 85 5c ff ff ff    	cmp    %eax,-0xa4(%rbp)
    cbf6:	0f 93 c0             	setae  %al
    cbf9:	0f b6 c0             	movzbl %al,%eax
    cbfc:	89 ce                	mov    %ecx,%esi
    cbfe:	89 c7                	mov    %eax,%edi
    cc00:	e8 9c d6 ff ff       	callq  a2a1 <safe_lshift_func_int8_t_s_s>
    cc05:	0a 85 58 ff ff ff    	or     -0xa8(%rbp),%al
    cc0b:	0f be c0             	movsbl %al,%eax
    cc0e:	be 04 00 00 00       	mov    $0x4,%esi
    cc13:	89 c7                	mov    %eax,%edi
    cc15:	e8 49 d9 ff ff       	callq  a563 <safe_rshift_func_int16_t_s_u>
    cc1a:	66 3d 50 45          	cmp    $0x4550,%ax
    cc1e:	0f 9e c0             	setle  %al
    cc21:	0f b6 c0             	movzbl %al,%eax
    cc24:	89 c7                	mov    %eax,%edi
    cc26:	e8 7b e2 ff ff       	callq  aea6 <safe_unary_minus_func_uint32_t_u>
    cc2b:	41 39 c4             	cmp    %eax,%r12d
    cc2e:	0f 94 c2             	sete   %dl
    cc31:	48 8b 05 d0 71 01 00 	mov    0x171d0(%rip),%rax        # 23e08 <g_1956>
    cc38:	48 8b 00             	mov    (%rax),%rax
    cc3b:	0f b6 d2             	movzbl %dl,%edx
    cc3e:	89 10                	mov    %edx,(%rax)
    cc40:	8b 00                	mov    (%rax),%eax
    cc42:	89 c0                	mov    %eax,%eax
    cc44:	48 39 c3             	cmp    %rax,%rbx
    cc47:	0f 9e c0             	setle  %al
    cc4a:	0f b6 d0             	movzbl %al,%edx
    cc4d:	8b 45 9c             	mov    -0x64(%rbp),%eax
    cc50:	09 d0                	or     %edx,%eax
    cc52:	89 45 9c             	mov    %eax,-0x64(%rbp)
    cc55:	8b 45 9c             	mov    -0x64(%rbp),%eax
    cc58:	35 08 81 00 00       	xor    $0x8108,%eax
    cc5d:	89 45 84             	mov    %eax,-0x7c(%rbp)
    cc60:	c7 45 84 cf a5 bf 3c 	movl   $0x3cbfa5cf,-0x7c(%rbp)
    cc67:	8b 45 98             	mov    -0x68(%rbp),%eax
    cc6a:	48 8b 5d e8          	mov    -0x18(%rbp),%rbx
    cc6e:	64 48 33 1c 25 28 00 	xor    %fs:0x28,%rbx
    cc75:	00 00 
    cc77:	74 05                	je     cc7e <func_22+0x1e8>
    cc79:	e8 f2 d3 ff ff       	callq  a070 <__stack_chk_fail@plt>
    cc7e:	48 81 c4 a0 00 00 00 	add    $0xa0,%rsp
    cc85:	5b                   	pop    %rbx
    cc86:	41 5c                	pop    %r12
    cc88:	5d                   	pop    %rbp
    cc89:	c3                   	retq   

000000000000cc8a <func_27>:
    cc8a:	f3 0f 1e fa          	endbr64 
    cc8e:	55                   	push   %rbp
    cc8f:	48 89 e5             	mov    %rsp,%rbp
    cc92:	41 56                	push   %r14
    cc94:	41 55                	push   %r13
    cc96:	41 54                	push   %r12
    cc98:	53                   	push   %rbx
    cc99:	48 81 ec 90 09 00 00 	sub    $0x990,%rsp
    cca0:	48 89 bd 58 f6 ff ff 	mov    %rdi,-0x9a8(%rbp)
    cca7:	64 48 8b 04 25 28 00 	mov    %fs:0x28,%rax
    ccae:	00 00 
    ccb0:	48 89 45 d8          	mov    %rax,-0x28(%rbp)
    ccb4:	31 c0                	xor    %eax,%eax
    ccb6:	48 8d 05 75 43 01 00 	lea    0x14375(%rip),%rax        # 21032 <g_42>
    ccbd:	48 89 85 f0 f6 ff ff 	mov    %rax,-0x910(%rbp)
    ccc4:	48 8d 85 f0 f6 ff ff 	lea    -0x910(%rbp),%rax
    cccb:	48 89 85 10 f7 ff ff 	mov    %rax,-0x8f0(%rbp)
    ccd2:	c7 85 94 f6 ff ff 01 	movl   $0x1,-0x96c(%rbp)
    ccd9:	00 00 00 
    ccdc:	48 8d 05 01 47 01 00 	lea    0x14701(%rip),%rax        # 213e4 <g_243>
    cce3:	48 89 85 a0 f8 ff ff 	mov    %rax,-0x760(%rbp)
    ccea:	48 8d 05 f3 46 01 00 	lea    0x146f3(%rip),%rax        # 213e4 <g_243>
    ccf1:	48 89 85 a8 f8 ff ff 	mov    %rax,-0x758(%rbp)
    ccf8:	48 8d 05 e5 46 01 00 	lea    0x146e5(%rip),%rax        # 213e4 <g_243>
    ccff:	48 89 85 b0 f8 ff ff 	mov    %rax,-0x750(%rbp)
    cd06:	48 8d 05 d7 46 01 00 	lea    0x146d7(%rip),%rax        # 213e4 <g_243>
    cd0d:	48 89 85 b8 f8 ff ff 	mov    %rax,-0x748(%rbp)
    cd14:	48 8d 05 c9 46 01 00 	lea    0x146c9(%rip),%rax        # 213e4 <g_243>
    cd1b:	48 89 85 c0 f8 ff ff 	mov    %rax,-0x740(%rbp)
    cd22:	c7 85 6c f6 ff ff fd 	movl   $0xfffffffd,-0x994(%rbp)
    cd29:	ff ff ff 
    cd2c:	c7 85 98 f6 ff ff 01 	movl   $0x1,-0x968(%rbp)
    cd33:	00 00 00 
    cd36:	48 8d 05 29 48 01 00 	lea    0x14829(%rip),%rax        # 21566 <g_919+0x86>
    cd3d:	48 89 85 18 f7 ff ff 	mov    %rax,-0x8e8(%rbp)
    cd44:	48 c7 85 20 f7 ff ff 	movq   $0x0,-0x8e0(%rbp)
    cd4b:	00 00 00 00 
    cd4f:	c7 85 9c f6 ff ff 02 	movl   $0x2,-0x964(%rbp)
    cd56:	00 00 00 
    cd59:	c7 85 70 f6 ff ff 63 	movl   $0xf39d5e63,-0x990(%rbp)
    cd60:	5e 9d f3 
    cd63:	c7 85 a0 f6 ff ff a2 	movl   $0x399752a2,-0x960(%rbp)
    cd6a:	52 97 39 
    cd6d:	66 c7 85 6a f6 ff ff 	movw   $0xe864,-0x996(%rbp)
    cd74:	64 e8 
    cd76:	48 8d 05 1b 6f 01 00 	lea    0x16f1b(%rip),%rax        # 23c98 <g_1050>
    cd7d:	48 89 85 28 f7 ff ff 	mov    %rax,-0x8d8(%rbp)
    cd84:	48 8d 05 0d 6f 01 00 	lea    0x16f0d(%rip),%rax        # 23c98 <g_1050>
    cd8b:	48 89 85 30 f7 ff ff 	mov    %rax,-0x8d0(%rbp)
    cd92:	c6 85 65 f6 ff ff 0f 	movb   $0xf,-0x99b(%rbp)
    cd99:	c7 85 a4 f6 ff ff ff 	movl   $0xffffffff,-0x95c(%rbp)
    cda0:	ff ff ff 
    cda3:	48 8d 85 80 fa ff ff 	lea    -0x580(%rbp),%rax
    cdaa:	48 8d 15 af f2 00 00 	lea    0xf2af(%rip),%rdx        # 1c060 <g_1542+0x3>
    cdb1:	b9 30 00 00 00       	mov    $0x30,%ecx
    cdb6:	48 89 c7             	mov    %rax,%rdi
    cdb9:	48 89 d6             	mov    %rdx,%rsi
    cdbc:	f3 48 a5             	rep movsq %ds:(%rsi),%es:(%rdi)
    cdbf:	c7 85 90 f6 ff ff 00 	movl   $0x0,-0x970(%rbp)
    cdc6:	00 00 00 
    cdc9:	eb 19                	jmp    cde4 <func_27+0x15a>
    cdcb:	8b 85 90 f6 ff ff    	mov    -0x970(%rbp),%eax
    cdd1:	48 98                	cltq   
    cdd3:	66 c7 84 45 32 f8 ff 	movw   $0xffff,-0x7ce(%rbp,%rax,2)
    cdda:	ff ff ff 
    cddd:	83 85 90 f6 ff ff 01 	addl   $0x1,-0x970(%rbp)
    cde4:	83 bd 90 f6 ff ff 02 	cmpl   $0x2,-0x970(%rbp)
    cdeb:	7e de                	jle    cdcb <func_27+0x141>
    cded:	c7 85 90 f6 ff ff 00 	movl   $0x0,-0x970(%rbp)
    cdf4:	00 00 00 
    cdf7:	eb 1e                	jmp    ce17 <func_27+0x18d>
    cdf9:	8b 85 90 f6 ff ff    	mov    -0x970(%rbp),%eax
    cdff:	48 98                	cltq   
    ce01:	48 8d 95 70 f6 ff ff 	lea    -0x990(%rbp),%rdx
    ce08:	48 89 94 c5 00 f9 ff 	mov    %rdx,-0x700(%rbp,%rax,8)
    ce0f:	ff 
    ce10:	83 85 90 f6 ff ff 01 	addl   $0x1,-0x970(%rbp)
    ce17:	83 bd 90 f6 ff ff 07 	cmpl   $0x7,-0x970(%rbp)
    ce1e:	7e d9                	jle    cdf9 <func_27+0x16f>
    ce20:	0f b6 05 41 48 01 00 	movzbl 0x14841(%rip),%eax        # 21668 <g_1720>
    ce27:	44 0f b6 e0          	movzbl %al,%r12d
    ce2b:	8b 85 6c f6 ff ff    	mov    -0x994(%rbp),%eax
    ce31:	0f b6 d8             	movzbl %al,%ebx
    ce34:	48 8b 85 58 f6 ff ff 	mov    -0x9a8(%rbp),%rax
    ce3b:	41 89 c6             	mov    %eax,%r14d
    ce3e:	44 8b ad 94 f6 ff ff 	mov    -0x96c(%rbp),%r13d
    ce45:	0f b6 05 e6 41 01 00 	movzbl 0x141e6(%rip),%eax        # 21032 <g_42>
    ce4c:	0f b6 d0             	movzbl %al,%edx
    ce4f:	0f b7 85 34 f8 ff ff 	movzwl -0x7cc(%rbp),%eax
    ce56:	98                   	cwtl   
    ce57:	89 c6                	mov    %eax,%esi
    ce59:	bf 00 00 00 00       	mov    $0x0,%edi
    ce5e:	e8 aa ab 00 00       	callq  17a0d <func_57>
    ce63:	48 8b 95 a8 f8 ff ff 	mov    -0x758(%rbp),%rdx
    ce6a:	48 39 d0             	cmp    %rdx,%rax
    ce6d:	0f 94 c0             	sete   %al
    ce70:	0f b6 d0             	movzbl %al,%edx
    ce73:	0f b7 85 32 f8 ff ff 	movzwl -0x7ce(%rbp),%eax
    ce7a:	0f b7 c0             	movzwl %ax,%eax
    ce7d:	89 d6                	mov    %edx,%esi
    ce7f:	89 c7                	mov    %eax,%edi
    ce81:	e8 79 de ff ff       	callq  acff <safe_add_func_uint16_t_u_u>
    ce86:	0f b7 d0             	movzwl %ax,%edx
    ce89:	48 8b 05 78 5d 01 00 	mov    0x15d78(%rip),%rax        # 22c08 <g_382>
    ce90:	48 8b 00             	mov    (%rax),%rax
    ce93:	8b 00                	mov    (%rax),%eax
    ce95:	21 d0                	and    %edx,%eax
    ce97:	48 63 d0             	movslq %eax,%rdx
    ce9a:	0f b7 85 34 f8 ff ff 	movzwl -0x7cc(%rbp),%eax
    cea1:	48 0f bf c0          	movswq %ax,%rax
    cea5:	48 89 d6             	mov    %rdx,%rsi
    cea8:	48 89 c7             	mov    %rax,%rdi
    ceab:	e8 3d 66 00 00       	callq  134ed <func_51>
    ceb0:	48 89 c7             	mov    %rax,%rdi
    ceb3:	e8 a1 3c 00 00       	callq  10b59 <func_49>
    ceb8:	4c 89 ee             	mov    %r13,%rsi
    cebb:	48 89 c7             	mov    %rax,%rdi
    cebe:	e8 6b e1 ff ff       	callq  b02e <safe_add_func_uint64_t_u_u>
    cec3:	0f b6 05 68 41 01 00 	movzbl 0x14168(%rip),%eax        # 21032 <g_42>
    ceca:	0f be d0             	movsbl %al,%edx
    cecd:	8b 85 6c f6 ff ff    	mov    -0x994(%rbp),%eax
    ced3:	39 c2                	cmp    %eax,%edx
    ced5:	0f 9e c0             	setle  %al
    ced8:	0f b6 c0             	movzbl %al,%eax
    cedb:	44 89 f6             	mov    %r14d,%esi
    cede:	89 c7                	mov    %eax,%edi
    cee0:	e8 d9 de ff ff       	callq  adbe <safe_lshift_func_uint16_t_u_s>
    cee5:	0f b7 d0             	movzwl %ax,%edx
    cee8:	8b 85 6c f6 ff ff    	mov    -0x994(%rbp),%eax
    ceee:	39 c2                	cmp    %eax,%edx
    cef0:	0f 9f c0             	setg   %al
    cef3:	0f b6 c0             	movzbl %al,%eax
    cef6:	09 85 98 f6 ff ff    	or     %eax,-0x968(%rbp)
    cefc:	8b 85 98 f6 ff ff    	mov    -0x968(%rbp),%eax
    cf02:	0f b6 c0             	movzbl %al,%eax
    cf05:	be 4b 00 00 00       	mov    $0x4b,%esi
    cf0a:	89 c7                	mov    %eax,%edi
    cf0c:	e8 82 dc ff ff       	callq  ab93 <safe_mul_func_uint8_t_u_u>
    cf11:	0f be f0             	movsbl %al,%esi
    cf14:	48 8b 85 10 f7 ff ff 	mov    -0x8f0(%rbp),%rax
    cf1b:	48 c7 00 00 00 00 00 	movq   $0x0,(%rax)
    cf22:	48 8b 85 10 f7 ff ff 	mov    -0x8f0(%rbp),%rax
    cf29:	48 8b 00             	mov    (%rax),%rax
    cf2c:	48 8b 95 18 f7 ff ff 	mov    -0x8e8(%rbp),%rdx
    cf33:	48 8d 0d f8 40 01 00 	lea    0x140f8(%rip),%rcx        # 21032 <g_42>
    cf3a:	48 89 c7             	mov    %rax,%rdi
    cf3d:	e8 bd 30 00 00       	callq  ffff <func_34>
    cf42:	0f be c0             	movsbl %al,%eax
    cf45:	4c 89 e1             	mov    %r12,%rcx
    cf48:	48 8d 15 17 46 01 00 	lea    0x14617(%rip),%rdx        # 21566 <g_919+0x86>
    cf4f:	89 de                	mov    %ebx,%esi
    cf51:	89 c7                	mov    %eax,%edi
    cf53:	e8 34 0d 00 00       	callq  dc8c <func_29>
    cf58:	85 c0                	test   %eax,%eax
    cf5a:	0f 84 89 01 00 00    	je     d0e9 <func_27+0x45f>
    cf60:	c7 85 ec f6 ff ff cf 	movl   $0xe453bfcf,-0x914(%rbp)
    cf67:	bf 53 e4 
    cf6a:	48 8d 05 db 44 01 00 	lea    0x144db(%rip),%rax        # 2144c <g_481>
    cf71:	48 89 85 18 f8 ff ff 	mov    %rax,-0x7e8(%rbp)
    cf78:	48 8d 05 c5 40 01 00 	lea    0x140c5(%rip),%rax        # 21044 <g_62+0x4>
    cf7f:	48 89 85 20 f8 ff ff 	mov    %rax,-0x7e0(%rbp)
    cf86:	0f b7 85 32 f8 ff ff 	movzwl -0x7ce(%rbp),%eax
    cf8d:	0f be d8             	movsbl %al,%ebx
    cf90:	8b 85 ec f6 ff ff    	mov    -0x914(%rbp),%eax
    cf96:	48 98                	cltq   
    cf98:	ba be e1 0c fa       	mov    $0xfa0ce1be,%edx
    cf9d:	48 31 d0             	xor    %rdx,%rax
    cfa0:	49 89 c5             	mov    %rax,%r13
    cfa3:	8b 85 ec f6 ff ff    	mov    -0x914(%rbp),%eax
    cfa9:	0f b6 d0             	movzbl %al,%edx
    cfac:	8b 85 ec f6 ff ff    	mov    -0x914(%rbp),%eax
    cfb2:	83 c8 0b             	or     $0xb,%eax
    cfb5:	0f b6 c0             	movzbl %al,%eax
    cfb8:	89 d6                	mov    %edx,%esi
    cfba:	89 c7                	mov    %eax,%edi
    cfbc:	e8 d2 db ff ff       	callq  ab93 <safe_mul_func_uint8_t_u_u>
    cfc1:	0f b6 d0             	movzbl %al,%edx
    cfc4:	8b 05 fa 46 01 00    	mov    0x146fa(%rip),%eax        # 216c4 <g_2519>
    cfca:	39 c2                	cmp    %eax,%edx
    cfcc:	0f 94 c0             	sete   %al
    cfcf:	0f b6 c0             	movzbl %al,%eax
    cfd2:	89 c6                	mov    %eax,%esi
    cfd4:	bf 80 dd ff ff       	mov    $0xffffdd80,%edi
    cfd9:	e8 f5 d3 ff ff       	callq  a3d3 <safe_sub_func_int16_t_s_s>
    cfde:	48 8b 05 b3 6c 01 00 	mov    0x16cb3(%rip),%rax        # 23c98 <g_1050>
    cfe5:	48 b9 b1 63 54 89 49 	movabs $0xfaa61f49895463b1,%rcx
    cfec:	1f a6 fa 
    cfef:	48 89 08             	mov    %rcx,(%rax)
    cff2:	48 8b 10             	mov    (%rax),%rdx
    cff5:	8b 85 ec f6 ff ff    	mov    -0x914(%rbp),%eax
    cffb:	48 98                	cltq   
    cffd:	48 31 d0             	xor    %rdx,%rax
    d000:	48 39 85 58 f6 ff ff 	cmp    %rax,-0x9a8(%rbp)
    d007:	0f 97 c0             	seta   %al
    d00a:	44 0f b6 e0          	movzbl %al,%r12d
    d00e:	48 8b 05 eb 6d 01 00 	mov    0x16deb(%rip),%rax        # 23e00 <g_1957>
    d015:	8b 95 ec f6 ff ff    	mov    -0x914(%rbp),%edx
    d01b:	89 10                	mov    %edx,(%rax)
    d01d:	8b 00                	mov    (%rax),%eax
    d01f:	48 83 bd 58 f6 ff ff 	cmpq   $0x0,-0x9a8(%rbp)
    d026:	00 
    d027:	75 22                	jne    d04b <func_27+0x3c1>
    d029:	8b 15 91 44 01 00    	mov    0x14491(%rip),%edx        # 214c0 <g_897>
    d02f:	89 d1                	mov    %edx,%ecx
    d031:	48 8b 95 18 f8 ff ff 	mov    -0x7e8(%rbp),%rdx
    d038:	66 89 0a             	mov    %cx,(%rdx)
    d03b:	48 8b 95 18 f8 ff ff 	mov    -0x7e8(%rbp),%rdx
    d042:	0f b7 12             	movzwl (%rdx),%edx
    d045:	66 83 fa 08          	cmp    $0x8,%dx
    d049:	74 07                	je     d052 <func_27+0x3c8>
    d04b:	ba 01 00 00 00       	mov    $0x1,%edx
    d050:	eb 05                	jmp    d057 <func_27+0x3cd>
    d052:	ba 00 00 00 00       	mov    $0x0,%edx
    d057:	89 c6                	mov    %eax,%esi
    d059:	89 d7                	mov    %edx,%edi
    d05b:	e8 70 de ff ff       	callq  aed0 <safe_sub_func_uint32_t_u_u>
    d060:	98                   	cwtl   
    d061:	44 89 e6             	mov    %r12d,%esi
    d064:	89 c7                	mov    %eax,%edi
    d066:	e8 27 d4 ff ff       	callq  a492 <safe_lshift_func_int16_t_s_s>
    d06b:	98                   	cwtl   
    d06c:	f7 d0                	not    %eax
    d06e:	48 98                	cltq   
    d070:	49 39 c5             	cmp    %rax,%r13
    d073:	0f 9e c0             	setle  %al
    d076:	0f b6 c0             	movzbl %al,%eax
    d079:	be 0d 00 00 00       	mov    $0xd,%esi
    d07e:	89 c7                	mov    %eax,%edi
    d080:	e8 de d4 ff ff       	callq  a563 <safe_rshift_func_int16_t_s_u>
    d085:	0f be c0             	movsbl %al,%eax
    d088:	89 de                	mov    %ebx,%esi
    d08a:	89 c7                	mov    %eax,%edi
    d08c:	e8 81 d1 ff ff       	callq  a212 <safe_mul_func_int8_t_s_s>
    d091:	48 8b 95 20 f8 ff ff 	mov    -0x7e0(%rbp),%rdx
    d098:	8b 12                	mov    (%rdx),%edx
    d09a:	0f be c0             	movsbl %al,%eax
    d09d:	31 c2                	xor    %eax,%edx
    d09f:	48 8b 85 20 f8 ff ff 	mov    -0x7e0(%rbp),%rax
    d0a6:	89 10                	mov    %edx,(%rax)
    d0a8:	48 8b 85 20 f8 ff ff 	mov    -0x7e0(%rbp),%rax
    d0af:	8b 00                	mov    (%rax),%eax
    d0b1:	85 c0                	test   %eax,%eax
    d0b3:	74 0c                	je     d0c1 <func_27+0x437>
    d0b5:	48 8b 05 64 36 01 00 	mov    0x13664(%rip),%rax        # 20720 <l_2647.4238>
    d0bc:	e9 a7 0b 00 00       	jmpq   dc68 <func_27+0xfde>
    d0c1:	48 b8 51 7a 82 08 26 	movabs $0x111de72608827a51,%rax
    d0c8:	e7 1d 11 
    d0cb:	48 89 85 28 f8 ff ff 	mov    %rax,-0x7d8(%rbp)
    d0d2:	48 8b 85 28 f8 ff ff 	mov    -0x7d8(%rbp),%rax
    d0d9:	89 c2                	mov    %eax,%edx
    d0db:	48 8b 85 20 f8 ff ff 	mov    -0x7e0(%rbp),%rax
    d0e2:	89 10                	mov    %edx,(%rax)
    d0e4:	e9 78 0b 00 00       	jmpq   dc61 <func_27+0xfd7>
    d0e9:	c7 85 78 f6 ff ff 4a 	movl   $0xe40a744a,-0x988(%rbp)
    d0f0:	74 0a e4 
    d0f3:	48 c7 85 d0 f8 ff ff 	movq   $0x0,-0x730(%rbp)
    d0fa:	00 00 00 00 
    d0fe:	48 c7 85 d8 f8 ff ff 	movq   $0x0,-0x728(%rbp)
    d105:	00 00 00 00 
    d109:	48 c7 85 e0 f8 ff ff 	movq   $0x0,-0x720(%rbp)
    d110:	00 00 00 00 
    d114:	48 c7 85 e8 f8 ff ff 	movq   $0x0,-0x718(%rbp)
    d11b:	00 00 00 00 
    d11f:	48 c7 85 f0 f8 ff ff 	movq   $0x0,-0x710(%rbp)
    d126:	00 00 00 00 
    d12a:	48 c7 85 f8 f8 ff ff 	movq   $0x0,-0x708(%rbp)
    d131:	00 00 00 00 
    d135:	48 8d 85 00 fc ff ff 	lea    -0x400(%rbp),%rax
    d13c:	48 8d 15 9d f0 00 00 	lea    0xf09d(%rip),%rdx        # 1c1e0 <g_1542+0x183>
    d143:	b9 7a 00 00 00       	mov    $0x7a,%ecx
    d148:	48 89 c7             	mov    %rax,%rdi
    d14b:	48 89 d6             	mov    %rdx,%rsi
    d14e:	f3 48 a5             	rep movsq %ds:(%rsi),%es:(%rdi)
    d151:	48 89 f2             	mov    %rsi,%rdx
    d154:	48 89 f8             	mov    %rdi,%rax
    d157:	8b 0a                	mov    (%rdx),%ecx
    d159:	89 08                	mov    %ecx,(%rax)
    d15b:	48 8d 40 04          	lea    0x4(%rax),%rax
    d15f:	48 8d 52 04          	lea    0x4(%rdx),%rdx
    d163:	c7 85 a8 f6 ff ff 21 	movl   $0x99c64521,-0x958(%rbp)
    d16a:	45 c6 99 
    d16d:	c7 85 ac f6 ff ff f7 	movl   $0xfffffff7,-0x954(%rbp)
    d174:	ff ff ff 
    d177:	48 8d 05 22 6b 01 00 	lea    0x16b22(%rip),%rax        # 23ca0 <g_1051>
    d17e:	48 89 85 90 f9 ff ff 	mov    %rax,-0x670(%rbp)
    d185:	48 8d 05 14 6b 01 00 	lea    0x16b14(%rip),%rax        # 23ca0 <g_1051>
    d18c:	48 89 85 98 f9 ff ff 	mov    %rax,-0x668(%rbp)
    d193:	48 8d 05 06 6b 01 00 	lea    0x16b06(%rip),%rax        # 23ca0 <g_1051>
    d19a:	48 89 85 a0 f9 ff ff 	mov    %rax,-0x660(%rbp)
    d1a1:	48 8d 05 f8 6a 01 00 	lea    0x16af8(%rip),%rax        # 23ca0 <g_1051>
    d1a8:	48 89 85 a8 f9 ff ff 	mov    %rax,-0x658(%rbp)
    d1af:	48 8d 05 ea 6a 01 00 	lea    0x16aea(%rip),%rax        # 23ca0 <g_1051>
    d1b6:	48 89 85 b0 f9 ff ff 	mov    %rax,-0x650(%rbp)
    d1bd:	48 8d 05 dc 6a 01 00 	lea    0x16adc(%rip),%rax        # 23ca0 <g_1051>
    d1c4:	48 89 85 b8 f9 ff ff 	mov    %rax,-0x648(%rbp)
    d1cb:	48 8d 05 ce 6a 01 00 	lea    0x16ace(%rip),%rax        # 23ca0 <g_1051>
    d1d2:	48 89 85 c0 f9 ff ff 	mov    %rax,-0x640(%rbp)
    d1d9:	48 8d 05 c0 6a 01 00 	lea    0x16ac0(%rip),%rax        # 23ca0 <g_1051>
    d1e0:	48 89 85 c8 f9 ff ff 	mov    %rax,-0x638(%rbp)
    d1e7:	48 8d 05 b2 6a 01 00 	lea    0x16ab2(%rip),%rax        # 23ca0 <g_1051>
    d1ee:	48 89 85 d0 f9 ff ff 	mov    %rax,-0x630(%rbp)
    d1f5:	48 8d 05 a4 6a 01 00 	lea    0x16aa4(%rip),%rax        # 23ca0 <g_1051>
    d1fc:	48 89 85 d8 f9 ff ff 	mov    %rax,-0x628(%rbp)
    d203:	48 8d 05 96 6a 01 00 	lea    0x16a96(%rip),%rax        # 23ca0 <g_1051>
    d20a:	48 89 85 e0 f9 ff ff 	mov    %rax,-0x620(%rbp)
    d211:	48 8d 05 88 6a 01 00 	lea    0x16a88(%rip),%rax        # 23ca0 <g_1051>
    d218:	48 89 85 e8 f9 ff ff 	mov    %rax,-0x618(%rbp)
    d21f:	48 8d 05 7a 6a 01 00 	lea    0x16a7a(%rip),%rax        # 23ca0 <g_1051>
    d226:	48 89 85 f0 f9 ff ff 	mov    %rax,-0x610(%rbp)
    d22d:	48 8d 05 6c 6a 01 00 	lea    0x16a6c(%rip),%rax        # 23ca0 <g_1051>
    d234:	48 89 85 f8 f9 ff ff 	mov    %rax,-0x608(%rbp)
    d23b:	48 8d 05 5e 6a 01 00 	lea    0x16a5e(%rip),%rax        # 23ca0 <g_1051>
    d242:	48 89 85 00 fa ff ff 	mov    %rax,-0x600(%rbp)
    d249:	48 8d 05 50 6a 01 00 	lea    0x16a50(%rip),%rax        # 23ca0 <g_1051>
    d250:	48 89 85 08 fa ff ff 	mov    %rax,-0x5f8(%rbp)
    d257:	48 8d 05 42 6a 01 00 	lea    0x16a42(%rip),%rax        # 23ca0 <g_1051>
    d25e:	48 89 85 10 fa ff ff 	mov    %rax,-0x5f0(%rbp)
    d265:	48 8d 05 34 6a 01 00 	lea    0x16a34(%rip),%rax        # 23ca0 <g_1051>
    d26c:	48 89 85 18 fa ff ff 	mov    %rax,-0x5e8(%rbp)
    d273:	48 8d 05 26 6a 01 00 	lea    0x16a26(%rip),%rax        # 23ca0 <g_1051>
    d27a:	48 89 85 20 fa ff ff 	mov    %rax,-0x5e0(%rbp)
    d281:	48 8d 05 18 6a 01 00 	lea    0x16a18(%rip),%rax        # 23ca0 <g_1051>
    d288:	48 89 85 28 fa ff ff 	mov    %rax,-0x5d8(%rbp)
    d28f:	48 8d 05 0a 6a 01 00 	lea    0x16a0a(%rip),%rax        # 23ca0 <g_1051>
    d296:	48 89 85 30 fa ff ff 	mov    %rax,-0x5d0(%rbp)
    d29d:	48 8d 05 fc 69 01 00 	lea    0x169fc(%rip),%rax        # 23ca0 <g_1051>
    d2a4:	48 89 85 38 fa ff ff 	mov    %rax,-0x5c8(%rbp)
    d2ab:	48 8d 05 ee 69 01 00 	lea    0x169ee(%rip),%rax        # 23ca0 <g_1051>
    d2b2:	48 89 85 40 fa ff ff 	mov    %rax,-0x5c0(%rbp)
    d2b9:	48 8d 05 e0 69 01 00 	lea    0x169e0(%rip),%rax        # 23ca0 <g_1051>
    d2c0:	48 89 85 48 fa ff ff 	mov    %rax,-0x5b8(%rbp)
    d2c7:	48 8d 05 d2 69 01 00 	lea    0x169d2(%rip),%rax        # 23ca0 <g_1051>
    d2ce:	48 89 85 50 fa ff ff 	mov    %rax,-0x5b0(%rbp)
    d2d5:	48 8d 05 c4 69 01 00 	lea    0x169c4(%rip),%rax        # 23ca0 <g_1051>
    d2dc:	48 89 85 58 fa ff ff 	mov    %rax,-0x5a8(%rbp)
    d2e3:	48 8d 05 b6 69 01 00 	lea    0x169b6(%rip),%rax        # 23ca0 <g_1051>
    d2ea:	48 89 85 60 fa ff ff 	mov    %rax,-0x5a0(%rbp)
    d2f1:	48 8d 05 a8 69 01 00 	lea    0x169a8(%rip),%rax        # 23ca0 <g_1051>
    d2f8:	48 89 85 68 fa ff ff 	mov    %rax,-0x598(%rbp)
    d2ff:	48 8d 05 9a 69 01 00 	lea    0x1699a(%rip),%rax        # 23ca0 <g_1051>
    d306:	48 89 85 70 fa ff ff 	mov    %rax,-0x590(%rbp)
    d30d:	48 8d 05 8c 69 01 00 	lea    0x1698c(%rip),%rax        # 23ca0 <g_1051>
    d314:	48 89 85 78 fa ff ff 	mov    %rax,-0x588(%rbp)
    d31b:	48 c7 85 38 f7 ff ff 	movq   $0x0,-0x8c8(%rbp)
    d322:	00 00 00 00 
    d326:	66 c7 05 61 77 01 00 	movw   $0x0,0x17761(%rip)        # 24a90 <g_2116>
    d32d:	00 00 
    d32f:	e9 ed 08 00 00       	jmpq   dc21 <func_27+0xf97>
    d334:	48 c7 85 40 f7 ff ff 	movq   $0x0,-0x8c0(%rbp)
    d33b:	00 00 00 00 
    d33f:	48 8d 05 a6 3d 01 00 	lea    0x13da6(%rip),%rax        # 210ec <g_94+0x8c>
    d346:	48 89 85 48 f7 ff ff 	mov    %rax,-0x8b8(%rbp)
    d34d:	c7 85 b0 f6 ff ff 3a 	movl   $0x317dcd3a,-0x950(%rbp)
    d354:	cd 7d 31 
    d357:	48 8d 85 6c f6 ff ff 	lea    -0x994(%rbp),%rax
    d35e:	48 89 85 f8 f6 ff ff 	mov    %rax,-0x908(%rbp)
    d365:	48 8d 05 cc 40 01 00 	lea    0x140cc(%rip),%rax        # 21438 <g_289>
    d36c:	48 89 85 50 f7 ff ff 	mov    %rax,-0x8b0(%rbp)
    d373:	c7 85 b4 f6 ff ff 95 	movl   $0x20cc5f95,-0x94c(%rbp)
    d37a:	5f cc 20 
    d37d:	c7 85 b8 f6 ff ff ed 	movl   $0xf4839ced,-0x948(%rbp)
    d384:	9c 83 f4 
    d387:	c7 85 74 f6 ff ff ff 	movl   $0xffffffff,-0x98c(%rbp)
    d38e:	ff ff ff 
    d391:	c7 85 7c f6 ff ff f8 	movl   $0x44ef50f8,-0x984(%rbp)
    d398:	50 ef 44 
    d39b:	48 8d 05 af 42 01 00 	lea    0x142af(%rip),%rax        # 21651 <g_1664+0x11>
    d3a2:	48 89 85 58 f7 ff ff 	mov    %rax,-0x8a8(%rbp)
    d3a9:	48 c7 85 60 f7 ff ff 	movq   $0x1,-0x8a0(%rbp)
    d3b0:	01 00 00 00 
    d3b4:	48 c7 85 68 f7 ff ff 	movq   $0x0,-0x898(%rbp)
    d3bb:	00 00 00 00 
    d3bf:	48 8d 05 4a 6a 01 00 	lea    0x16a4a(%rip),%rax        # 23e10 <g_1955>
    d3c6:	48 89 85 70 f7 ff ff 	mov    %rax,-0x890(%rbp)
    d3cd:	48 c7 85 78 f7 ff ff 	movq   $0x0,-0x888(%rbp)
    d3d4:	00 00 00 00 
    d3d8:	48 8d 05 11 58 01 00 	lea    0x15811(%rip),%rax        # 22bf0 <g_320>
    d3df:	48 89 85 80 f7 ff ff 	mov    %rax,-0x880(%rbp)
    d3e6:	48 8d 05 7b 6a 01 00 	lea    0x16a7b(%rip),%rax        # 23e68 <g_2350>
    d3ed:	48 89 85 00 f7 ff ff 	mov    %rax,-0x900(%rbp)
    d3f4:	48 8d 85 00 f7 ff ff 	lea    -0x900(%rbp),%rax
    d3fb:	48 89 85 88 f7 ff ff 	mov    %rax,-0x878(%rbp)
    d402:	c7 85 80 f6 ff ff 00 	movl   $0x0,-0x980(%rbp)
    d409:	00 00 00 
    d40c:	eb 1a                	jmp    d428 <func_27+0x79e>
    d40e:	8b 85 80 f6 ff ff    	mov    -0x980(%rbp),%eax
    d414:	48 98                	cltq   
    d416:	c7 84 85 40 f8 ff ff 	movl   $0x5,-0x7c0(%rbp,%rax,4)
    d41d:	05 00 00 00 
    d421:	83 85 80 f6 ff ff 01 	addl   $0x1,-0x980(%rbp)
    d428:	83 bd 80 f6 ff ff 05 	cmpl   $0x5,-0x980(%rbp)
    d42f:	7e dd                	jle    d40e <func_27+0x784>
    d431:	c7 85 80 f6 ff ff 00 	movl   $0x0,-0x980(%rbp)
    d438:	00 00 00 
    d43b:	eb 1a                	jmp    d457 <func_27+0x7cd>
    d43d:	8b 85 80 f6 ff ff    	mov    -0x980(%rbp),%eax
    d443:	48 98                	cltq   
    d445:	c7 84 85 38 f8 ff ff 	movl   $0x0,-0x7c8(%rbp,%rax,4)
    d44c:	00 00 00 00 
    d450:	83 85 80 f6 ff ff 01 	addl   $0x1,-0x980(%rbp)
    d457:	83 bd 80 f6 ff ff 01 	cmpl   $0x1,-0x980(%rbp)
    d45e:	7e dd                	jle    d43d <func_27+0x7b3>
    d460:	0f b7 05 3b 40 01 00 	movzwl 0x1403b(%rip),%eax        # 214a2 <g_569+0x22>
    d467:	89 c2                	mov    %eax,%edx
    d469:	48 8b 85 48 f7 ff ff 	mov    -0x8b8(%rbp),%rax
    d470:	66 89 10             	mov    %dx,(%rax)
    d473:	48 8b 85 48 f7 ff ff 	mov    -0x8b8(%rbp),%rax
    d47a:	0f b7 00             	movzwl (%rax),%eax
    d47d:	0f b7 c0             	movzwl %ax,%eax
    d480:	48 8b 15 11 42 01 00 	mov    0x14211(%rip),%rdx        # 21698 <g_1893+0x18>
    d487:	09 d0                	or     %edx,%eax
    d489:	89 c2                	mov    %eax,%edx
    d48b:	8b 85 78 f6 ff ff    	mov    -0x988(%rbp),%eax
    d491:	89 d6                	mov    %edx,%esi
    d493:	89 c7                	mov    %eax,%edi
    d495:	e8 36 da ff ff       	callq  aed0 <safe_sub_func_uint32_t_u_u>
    d49a:	85 c0                	test   %eax,%eax
    d49c:	0f 84 76 01 00 00    	je     d618 <func_27+0x98e>
    d4a2:	48 8d 85 40 f9 ff ff 	lea    -0x6c0(%rbp),%rax
    d4a9:	48 83 c0 30          	add    $0x30,%rax
    d4ad:	48 89 85 e8 f7 ff ff 	mov    %rax,-0x818(%rbp)
    d4b4:	c7 85 e0 f6 ff ff ff 	movl   $0xffffffff,-0x920(%rbp)
    d4bb:	ff ff ff 
    d4be:	c7 85 84 f6 ff ff 00 	movl   $0x0,-0x97c(%rbp)
    d4c5:	00 00 00 
    d4c8:	eb 1e                	jmp    d4e8 <func_27+0x85e>
    d4ca:	8b 85 84 f6 ff ff    	mov    -0x97c(%rbp),%eax
    d4d0:	48 98                	cltq   
    d4d2:	48 8d 15 1f 41 01 00 	lea    0x1411f(%rip),%rdx        # 215f8 <g_1545+0x18>
    d4d9:	48 89 94 c5 40 f9 ff 	mov    %rdx,-0x6c0(%rbp,%rax,8)
    d4e0:	ff 
    d4e1:	83 85 84 f6 ff ff 01 	addl   $0x1,-0x97c(%rbp)
    d4e8:	83 bd 84 f6 ff ff 08 	cmpl   $0x8,-0x97c(%rbp)
    d4ef:	7e d9                	jle    d4ca <func_27+0x840>
    d4f1:	48 83 bd e8 f7 ff ff 	cmpq   $0x0,-0x818(%rbp)
    d4f8:	00 
    d4f9:	48 8b 85 58 f6 ff ff 	mov    -0x9a8(%rbp),%rax
    d500:	89 c3                	mov    %eax,%ebx
    d502:	48 8d 05 5f 69 01 00 	lea    0x1695f(%rip),%rax        # 23e68 <g_2350>
    d509:	48 8b 00             	mov    (%rax),%rax
    d50c:	48 8b 10             	mov    (%rax),%rdx
    d50f:	8b 85 e0 f6 ff ff    	mov    -0x920(%rbp),%eax
    d515:	48 98                	cltq   
    d517:	48 39 85 58 f6 ff ff 	cmp    %rax,-0x9a8(%rbp)
    d51e:	0f 93 c0             	setae  %al
    d521:	0f b6 c0             	movzbl %al,%eax
    d524:	39 85 e0 f6 ff ff    	cmp    %eax,-0x920(%rbp)
    d52a:	0f 9f c0             	setg   %al
    d52d:	0f b6 c0             	movzbl %al,%eax
    d530:	39 85 78 f6 ff ff    	cmp    %eax,-0x988(%rbp)
    d536:	0f 92 c0             	setb   %al
    d539:	0f b6 c0             	movzbl %al,%eax
    d53c:	48 21 d0             	and    %rdx,%rax
    d53f:	48 39 85 58 f6 ff ff 	cmp    %rax,-0x9a8(%rbp)
    d546:	0f 92 c0             	setb   %al
    d549:	0f b6 c0             	movzbl %al,%eax
    d54c:	be 09 00 00 00       	mov    $0x9,%esi
    d551:	89 c7                	mov    %eax,%edi
    d553:	e8 89 cf ff ff       	callq  a4e1 <safe_lshift_func_int16_t_s_u>
    d558:	48 8b 85 58 f6 ff ff 	mov    -0x9a8(%rbp),%rax
    d55f:	be f9 d3 39 7b       	mov    $0x7b39d3f9,%esi
    d564:	89 c7                	mov    %eax,%edi
    d566:	e8 94 d1 ff ff       	callq  a6ff <safe_div_func_int32_t_s_s>
    d56b:	0f b7 c0             	movzwl %ax,%eax
    d56e:	89 de                	mov    %ebx,%esi
    d570:	89 c7                	mov    %eax,%edi
    d572:	e8 8f d8 ff ff       	callq  ae06 <safe_lshift_func_uint16_t_u_u>
    d577:	83 bd b0 f6 ff ff 00 	cmpl   $0x0,-0x950(%rbp)
    d57e:	0f 95 c0             	setne  %al
    d581:	0f b6 c0             	movzbl %al,%eax
    d584:	39 85 b0 f6 ff ff    	cmp    %eax,-0x950(%rbp)
    d58a:	0f 9d c0             	setge  %al
    d58d:	0f b6 c0             	movzbl %al,%eax
    d590:	be 01 00 00 00       	mov    $0x1,%esi
    d595:	89 c7                	mov    %eax,%edi
    d597:	e8 f2 d7 ff ff       	callq  ad8e <safe_div_func_uint16_t_u_u>
    d59c:	0f b7 c0             	movzwl %ax,%eax
    d59f:	39 85 b0 f6 ff ff    	cmp    %eax,-0x950(%rbp)
    d5a5:	74 11                	je     d5b8 <func_27+0x92e>
    d5a7:	48 83 bd 58 f6 ff ff 	cmpq   $0x0,-0x9a8(%rbp)
    d5ae:	00 
    d5af:	74 07                	je     d5b8 <func_27+0x92e>
    d5b1:	b9 01 00 00 00       	mov    $0x1,%ecx
    d5b6:	eb 05                	jmp    d5bd <func_27+0x933>
    d5b8:	b9 00 00 00 00       	mov    $0x0,%ecx
    d5bd:	0f b7 05 cc 74 01 00 	movzwl 0x174cc(%rip),%eax        # 24a90 <g_2116>
    d5c4:	0f b7 c0             	movzwl %ax,%eax
    d5c7:	83 c0 01             	add    $0x1,%eax
    d5ca:	48 98                	cltq   
    d5cc:	48 8d 14 85 00 00 00 	lea    0x0(,%rax,4),%rdx
    d5d3:	00 
    d5d4:	48 8d 05 65 3a 01 00 	lea    0x13a65(%rip),%rax        # 21040 <g_62>
    d5db:	8b 04 02             	mov    (%rdx,%rax,1),%eax
    d5de:	0f b7 15 ab 74 01 00 	movzwl 0x174ab(%rip),%edx        # 24a90 <g_2116>
    d5e5:	0f b7 d2             	movzwl %dx,%edx
    d5e8:	83 c2 01             	add    $0x1,%edx
    d5eb:	21 c1                	and    %eax,%ecx
    d5ed:	48 63 c2             	movslq %edx,%rax
    d5f0:	48 8d 14 85 00 00 00 	lea    0x0(,%rax,4),%rdx
    d5f7:	00 
    d5f8:	48 8d 05 41 3a 01 00 	lea    0x13a41(%rip),%rax        # 21040 <g_62>
    d5ff:	89 0c 02             	mov    %ecx,(%rdx,%rax,1)
    d602:	48 8b 05 ff 55 01 00 	mov    0x155ff(%rip),%rax        # 22c08 <g_382>
    d609:	48 8b 95 f8 f6 ff ff 	mov    -0x908(%rbp),%rdx
    d610:	48 89 10             	mov    %rdx,(%rax)
    d613:	e9 b7 04 00 00       	jmpq   dacf <func_27+0xe45>
    d618:	48 c7 85 90 f7 ff ff 	movq   $0x0,-0x870(%rbp)
    d61f:	00 00 00 00 
    d623:	48 8d 85 f8 f6 ff ff 	lea    -0x908(%rbp),%rax
    d62a:	48 89 85 98 f7 ff ff 	mov    %rax,-0x868(%rbp)
    d631:	c6 85 66 f6 ff ff 23 	movb   $0x23,-0x99a(%rbp)
    d638:	c7 85 bc f6 ff ff 00 	movl   $0x0,-0x944(%rbp)
    d63f:	00 00 00 
    d642:	c7 85 c0 f6 ff ff 00 	movl   $0x293ae300,-0x940(%rbp)
    d649:	e3 3a 29 
    d64c:	c7 85 c4 f6 ff ff 07 	movl   $0x7,-0x93c(%rbp)
    d653:	00 00 00 
    d656:	c7 85 c8 f6 ff ff 01 	movl   $0x1,-0x938(%rbp)
    d65d:	00 00 00 
    d660:	c7 85 cc f6 ff ff 00 	movl   $0x0,-0x934(%rbp)
    d667:	00 00 00 
    d66a:	c7 85 d0 f6 ff ff d9 	movl   $0x7dc2ed9,-0x930(%rbp)
    d671:	2e dc 07 
    d674:	48 c7 85 a0 f7 ff ff 	movq   $0x0,-0x860(%rbp)
    d67b:	00 00 00 00 
    d67f:	0f b7 85 34 f8 ff ff 	movzwl -0x7cc(%rbp),%eax
    d686:	0f be d8             	movsbl %al,%ebx
    d689:	be 05 00 00 00       	mov    $0x5,%esi
    d68e:	bf 06 00 00 00       	mov    $0x6,%edi
    d693:	e8 9d cc ff ff       	callq  a335 <safe_rshift_func_int8_t_s_s>
    d698:	48 8b 05 d1 67 01 00 	mov    0x167d1(%rip),%rax        # 23e70 <g_2348>
    d69f:	48 8b 00             	mov    (%rax),%rax
    d6a2:	48 8b 00             	mov    (%rax),%rax
    d6a5:	48 8b 10             	mov    (%rax),%rdx
    d6a8:	48 8b 05 c1 67 01 00 	mov    0x167c1(%rip),%rax        # 23e70 <g_2348>
    d6af:	48 8b 00             	mov    (%rax),%rax
    d6b2:	48 8b 00             	mov    (%rax),%rax
    d6b5:	48 83 f2 01          	xor    $0x1,%rdx
    d6b9:	48 89 10             	mov    %rdx,(%rax)
    d6bc:	48 8b 00             	mov    (%rax),%rax
    d6bf:	48 ba 78 c4 15 2d db 	movabs $0x120b36db2d15c478,%rdx
    d6c6:	36 0b 12 
    d6c9:	48 09 d0             	or     %rdx,%rax
    d6cc:	48 83 f8 01          	cmp    $0x1,%rax
    d6d0:	89 de                	mov    %ebx,%esi
    d6d2:	bf e2 ff ff ff       	mov    $0xffffffe2,%edi
    d6d7:	e8 36 cb ff ff       	callq  a212 <safe_mul_func_int8_t_s_s>
    d6dc:	84 c0                	test   %al,%al
    d6de:	75 0e                	jne    d6ee <func_27+0xa64>
    d6e0:	48 83 bd 58 f6 ff ff 	cmpq   $0x0,-0x9a8(%rbp)
    d6e7:	00 
    d6e8:	0f 84 d7 01 00 00    	je     d8c5 <func_27+0xc3b>
    d6ee:	48 8d 05 ab 65 01 00 	lea    0x165ab(%rip),%rax        # 23ca0 <g_1051>
    d6f5:	48 89 85 08 f7 ff ff 	mov    %rax,-0x8f8(%rbp)
    d6fc:	48 8d 85 08 f7 ff ff 	lea    -0x8f8(%rbp),%rax
    d703:	48 89 85 d0 f7 ff ff 	mov    %rax,-0x830(%rbp)
    d70a:	c7 85 d4 f6 ff ff 06 	movl   $0x6,-0x92c(%rbp)
    d711:	00 00 00 
    d714:	c7 85 d8 f6 ff ff 3d 	movl   $0x4fc8eb3d,-0x928(%rbp)
    d71b:	eb c8 4f 
    d71e:	c7 85 dc f6 ff ff 7b 	movl   $0x2127907b,-0x924(%rbp)
    d725:	90 27 21 
    d728:	8b 85 ac f6 ff ff    	mov    -0x954(%rbp),%eax
    d72e:	0f b6 d8             	movzbl %al,%ebx
    d731:	48 8b 85 98 f7 ff ff 	mov    -0x868(%rbp),%rax
    d738:	48 8b 00             	mov    (%rax),%rax
    d73b:	8b 00                	mov    (%rax),%eax
    d73d:	0f bf d0             	movswl %ax,%edx
    d740:	48 8b 05 e9 54 01 00 	mov    0x154e9(%rip),%rax        # 22c30 <g_566>
    d747:	0f b7 00             	movzwl (%rax),%eax
    d74a:	98                   	cwtl   
    d74b:	89 d6                	mov    %edx,%esi
    d74d:	89 c7                	mov    %eax,%edi
    d74f:	e8 01 cd ff ff       	callq  a455 <safe_div_func_int16_t_s_s>
    d754:	0f b6 c0             	movzbl %al,%eax
    d757:	89 de                	mov    %ebx,%esi
    d759:	89 c7                	mov    %eax,%edi
    d75b:	e8 4e d4 ff ff       	callq  abae <safe_mod_func_uint8_t_u_u>
    d760:	0f b6 c0             	movzbl %al,%eax
    d763:	be 04 00 00 00       	mov    $0x4,%esi
    d768:	89 c7                	mov    %eax,%edi
    d76a:	e8 4f d5 ff ff       	callq  acbe <safe_rshift_func_uint8_t_u_u>
    d76f:	0f b6 d8             	movzbl %al,%ebx
    d772:	48 8b 85 58 f6 ff ff 	mov    -0x9a8(%rbp),%rax
    d779:	89 c7                	mov    %eax,%edi
    d77b:	e8 16 ce ff ff       	callq  a596 <safe_unary_minus_func_int32_t_s>
    d780:	85 c0                	test   %eax,%eax
    d782:	0f 95 c0             	setne  %al
    d785:	0f b6 c0             	movzbl %al,%eax
    d788:	89 de                	mov    %ebx,%esi
    d78a:	89 c7                	mov    %eax,%edi
    d78c:	e8 5d cb ff ff       	callq  a2ee <safe_lshift_func_int8_t_s_u>
    d791:	48 8b 95 a8 f9 ff ff 	mov    -0x658(%rbp),%rdx
    d798:	48 8b 85 d0 f7 ff ff 	mov    -0x830(%rbp),%rax
    d79f:	48 8d 0d fa 64 01 00 	lea    0x164fa(%rip),%rcx        # 23ca0 <g_1051>
    d7a6:	48 89 08             	mov    %rcx,(%rax)
    d7a9:	48 8b 85 d0 f7 ff ff 	mov    -0x830(%rbp),%rax
    d7b0:	48 8b 00             	mov    (%rax),%rax
    d7b3:	48 39 c2             	cmp    %rax,%rdx
    d7b6:	0f 94 c0             	sete   %al
    d7b9:	0f b6 c0             	movzbl %al,%eax
    d7bc:	be 0f 00 00 00       	mov    $0xf,%esi
    d7c1:	89 c7                	mov    %eax,%edi
    d7c3:	e8 e6 d3 ff ff       	callq  abae <safe_mod_func_uint8_t_u_u>
    d7c8:	48 8d 85 00 fc ff ff 	lea    -0x400(%rbp),%rax
    d7cf:	48 83 c0 54          	add    $0x54,%rax
    d7d3:	48 89 85 d8 f7 ff ff 	mov    %rax,-0x828(%rbp)
    d7da:	48 8d 05 2b 3b 01 00 	lea    0x13b2b(%rip),%rax        # 2130c <g_119+0xac>
    d7e1:	48 89 85 40 f9 ff ff 	mov    %rax,-0x6c0(%rbp)
    d7e8:	48 8d 05 1d 3b 01 00 	lea    0x13b1d(%rip),%rax        # 2130c <g_119+0xac>
    d7ef:	48 89 85 48 f9 ff ff 	mov    %rax,-0x6b8(%rbp)
    d7f6:	48 8d 05 0f 3b 01 00 	lea    0x13b0f(%rip),%rax        # 2130c <g_119+0xac>
    d7fd:	48 89 85 50 f9 ff ff 	mov    %rax,-0x6b0(%rbp)
    d804:	48 8d 05 01 3b 01 00 	lea    0x13b01(%rip),%rax        # 2130c <g_119+0xac>
    d80b:	48 89 85 58 f9 ff ff 	mov    %rax,-0x6a8(%rbp)
    d812:	48 8d 05 f3 3a 01 00 	lea    0x13af3(%rip),%rax        # 2130c <g_119+0xac>
    d819:	48 89 85 60 f9 ff ff 	mov    %rax,-0x6a0(%rbp)
    d820:	48 8b 85 98 f7 ff ff 	mov    -0x868(%rbp),%rax
    d827:	48 8b 95 d8 f7 ff ff 	mov    -0x828(%rbp),%rdx
    d82e:	48 89 10             	mov    %rdx,(%rax)
    d831:	8b 85 3c f8 ff ff    	mov    -0x7c4(%rbp),%eax
    d837:	83 e8 01             	sub    $0x1,%eax
    d83a:	89 85 3c f8 ff ff    	mov    %eax,-0x7c4(%rbp)
    d840:	48 8b 85 f8 f6 ff ff 	mov    -0x908(%rbp),%rax
    d847:	8b 00                	mov    (%rax),%eax
    d849:	48 63 d8             	movslq %eax,%rbx
    d84c:	48 8b 85 98 f7 ff ff 	mov    -0x868(%rbp),%rax
    d853:	48 8b 00             	mov    (%rax),%rax
    d856:	8b 00                	mov    (%rax),%eax
    d858:	85 c0                	test   %eax,%eax
    d85a:	0f 94 c0             	sete   %al
    d85d:	0f b6 d0             	movzbl %al,%edx
    d860:	48 83 bd a0 f7 ff ff 	cmpq   $0x0,-0x860(%rbp)
    d867:	00 
    d868:	0f 94 c0             	sete   %al
    d86b:	0f b6 c0             	movzbl %al,%eax
    d86e:	39 c2                	cmp    %eax,%edx
    d870:	0f 9c c0             	setl   %al
    d873:	0f b6 c0             	movzbl %al,%eax
    d876:	8b 95 78 f6 ff ff    	mov    -0x988(%rbp),%edx
    d87c:	89 d6                	mov    %edx,%esi
    d87e:	89 c7                	mov    %eax,%edi
    d880:	e8 33 d6 ff ff       	callq  aeb8 <safe_add_func_uint32_t_u_u>
    d885:	48 8b 85 50 f7 ff ff 	mov    -0x8b0(%rbp),%rax
    d88c:	48 b9 80 62 69 63 b7 	movabs $0xca09beb763696280,%rcx
    d893:	be 09 ca 
    d896:	48 89 08             	mov    %rcx,(%rax)
    d899:	48 8b 85 50 f7 ff ff 	mov    -0x8b0(%rbp),%rax
    d8a0:	48 8b 00             	mov    (%rax),%rax
    d8a3:	48 39 c3             	cmp    %rax,%rbx
    d8a6:	0f 94 c2             	sete   %dl
    d8a9:	48 8b 85 98 f7 ff ff 	mov    -0x868(%rbp),%rax
    d8b0:	48 8b 00             	mov    (%rax),%rax
    d8b3:	0f b6 d2             	movzbl %dl,%edx
    d8b6:	89 10                	mov    %edx,(%rax)
    d8b8:	8b 00                	mov    (%rax),%eax
    d8ba:	31 85 d8 f6 ff ff    	xor    %eax,-0x928(%rbp)
    d8c0:	e9 a8 00 00 00       	jmpq   d96d <func_27+0xce3>
    d8c5:	48 8d 85 40 f8 ff ff 	lea    -0x7c0(%rbp),%rax
    d8cc:	48 83 c0 04          	add    $0x4,%rax
    d8d0:	48 89 85 a8 f7 ff ff 	mov    %rax,-0x858(%rbp)
    d8d7:	c7 85 08 f7 ff ff 8e 	movl   $0x8fa3ec8e,-0x8f8(%rbp)
    d8de:	ec a3 8f 
    d8e1:	48 8d 85 74 f6 ff ff 	lea    -0x98c(%rbp),%rax
    d8e8:	48 89 85 b0 f7 ff ff 	mov    %rax,-0x850(%rbp)
    d8ef:	48 8d 85 08 f7 ff ff 	lea    -0x8f8(%rbp),%rax
    d8f6:	48 89 85 b8 f7 ff ff 	mov    %rax,-0x848(%rbp)
    d8fd:	48 8d 05 b4 39 01 00 	lea    0x139b4(%rip),%rax        # 212b8 <g_119+0x58>
    d904:	48 89 85 c0 f7 ff ff 	mov    %rax,-0x840(%rbp)
    d90b:	48 b8 ab 85 d3 d8 fd 	movabs $0x98d79afdd8d385ab,%rax
    d912:	9a d7 98 
    d915:	48 89 85 c8 f7 ff ff 	mov    %rax,-0x838(%rbp)
    d91c:	c6 85 67 f6 ff ff 8e 	movb   $0x8e,-0x999(%rbp)
    d923:	c7 85 88 f6 ff ff 00 	movl   $0x0,-0x978(%rbp)
    d92a:	00 00 00 
    d92d:	eb 25                	jmp    d954 <func_27+0xcca>
    d92f:	8b 85 88 f6 ff ff    	mov    -0x978(%rbp),%eax
    d935:	48 98                	cltq   
    d937:	48 8d 95 00 fc ff ff 	lea    -0x400(%rbp),%rdx
    d93e:	48 81 c2 fc 02 00 00 	add    $0x2fc,%rdx
    d945:	48 89 94 c5 40 f9 ff 	mov    %rdx,-0x6c0(%rbp,%rax,8)
    d94c:	ff 
    d94d:	83 85 88 f6 ff ff 01 	addl   $0x1,-0x978(%rbp)
    d954:	83 bd 88 f6 ff ff 03 	cmpl   $0x3,-0x978(%rbp)
    d95b:	7e d2                	jle    d92f <func_27+0xca5>
    d95d:	0f b6 85 67 f6 ff ff 	movzbl -0x999(%rbp),%eax
    d964:	83 e8 01             	sub    $0x1,%eax
    d967:	88 85 67 f6 ff ff    	mov    %al,-0x999(%rbp)
    d96d:	c7 85 7c f6 ff ff 00 	movl   $0x0,-0x984(%rbp)
    d974:	00 00 00 
    d977:	e9 46 01 00 00       	jmpq   dac2 <func_27+0xe38>
    d97c:	c6 85 68 f6 ff ff ff 	movb   $0xff,-0x998(%rbp)
    d983:	48 c7 85 e0 f7 ff ff 	movq   $0x0,-0x820(%rbp)
    d98a:	00 00 00 00 
    d98e:	48 8b 05 6b 52 01 00 	mov    0x1526b(%rip),%rax        # 22c00 <g_376>
    d995:	8b 00                	mov    (%rax),%eax
    d997:	89 c2                	mov    %eax,%edx
    d999:	48 8b 85 58 f6 ff ff 	mov    -0x9a8(%rbp),%rax
    d9a0:	89 d6                	mov    %edx,%esi
    d9a2:	89 c7                	mov    %eax,%edi
    d9a4:	e8 7c d5 ff ff       	callq  af25 <safe_div_func_uint32_t_u_u>
    d9a9:	83 c8 cc             	or     $0xffffffcc,%eax
    d9ac:	88 85 68 f6 ff ff    	mov    %al,-0x998(%rbp)
    d9b2:	c7 85 78 f6 ff ff 00 	movl   $0x0,-0x988(%rbp)
    d9b9:	00 00 00 
    d9bc:	eb 54                	jmp    da12 <func_27+0xd88>
    d9be:	8b 85 7c f6 ff ff    	mov    -0x984(%rbp),%eax
    d9c4:	8d 50 03             	lea    0x3(%rax),%edx
    d9c7:	0f b7 05 c2 70 01 00 	movzwl 0x170c2(%rip),%eax        # 24a90 <g_2116>
    d9ce:	0f b7 c0             	movzwl %ax,%eax
    d9d1:	8d 48 02             	lea    0x2(%rax),%ecx
    d9d4:	8b 85 78 f6 ff ff    	mov    -0x988(%rbp),%eax
    d9da:	83 c0 01             	add    $0x1,%eax
    d9dd:	89 c6                	mov    %eax,%esi
    d9df:	48 63 d2             	movslq %edx,%rdx
    d9e2:	48 63 c9             	movslq %ecx,%rcx
    d9e5:	48 89 d0             	mov    %rdx,%rax
    d9e8:	48 c1 e0 03          	shl    $0x3,%rax
    d9ec:	48 29 d0             	sub    %rdx,%rax
    d9ef:	48 01 c8             	add    %rcx,%rax
    d9f2:	48 c1 e0 02          	shl    $0x2,%rax
    d9f6:	48 8d 14 30          	lea    (%rax,%rsi,1),%rdx
    d9fa:	48 8d 05 df 3a 01 00 	lea    0x13adf(%rip),%rax        # 214e0 <g_919>
    da01:	48 01 d0             	add    %rdx,%rax
    da04:	0f b6 00             	movzbl (%rax),%eax
    da07:	84 c0                	test   %al,%al
    da09:	75 12                	jne    da1d <func_27+0xd93>
    da0b:	83 85 78 f6 ff ff 01 	addl   $0x1,-0x988(%rbp)
    da12:	83 bd 78 f6 ff ff 02 	cmpl   $0x2,-0x988(%rbp)
    da19:	76 a3                	jbe    d9be <func_27+0xd34>
    da1b:	eb 01                	jmp    da1e <func_27+0xd94>
    da1d:	90                   	nop
    da1e:	48 8b 85 e0 f7 ff ff 	mov    -0x820(%rbp),%rax
    da25:	48 89 85 38 f9 ff ff 	mov    %rax,-0x6c8(%rbp)
    da2c:	48 83 bd 58 f6 ff ff 	cmpq   $0x0,-0x9a8(%rbp)
    da33:	00 
    da34:	0f 85 80 00 00 00    	jne    daba <func_27+0xe30>
    da3a:	c7 05 0c 3a 01 00 02 	movl   $0x2,0x13a0c(%rip)        # 21450 <g_547>
    da41:	00 00 00 
    da44:	90                   	nop
    da45:	8b 05 05 3a 01 00    	mov    0x13a05(%rip),%eax        # 21450 <g_547>
    da4b:	85 c0                	test   %eax,%eax
    da4d:	78 6c                	js     dabb <func_27+0xe31>
    da4f:	8b 05 fb 39 01 00    	mov    0x139fb(%rip),%eax        # 21450 <g_547>
    da55:	8d 50 03             	lea    0x3(%rax),%edx
    da58:	0f b7 05 31 70 01 00 	movzwl 0x17031(%rip),%eax        # 24a90 <g_2116>
    da5f:	0f b7 c0             	movzwl %ax,%eax
    da62:	8d 48 05             	lea    0x5(%rax),%ecx
    da65:	8b 05 e5 39 01 00    	mov    0x139e5(%rip),%eax        # 21450 <g_547>
    da6b:	48 63 f0             	movslq %eax,%rsi
    da6e:	48 63 d2             	movslq %edx,%rdx
    da71:	48 63 c9             	movslq %ecx,%rcx
    da74:	48 89 d0             	mov    %rdx,%rax
    da77:	48 c1 e0 04          	shl    $0x4,%rax
    da7b:	48 29 d0             	sub    %rdx,%rax
    da7e:	48 01 c0             	add    %rax,%rax
    da81:	48 89 ca             	mov    %rcx,%rdx
    da84:	48 01 d2             	add    %rdx,%rdx
    da87:	48 01 ca             	add    %rcx,%rdx
    da8a:	48 01 d0             	add    %rdx,%rax
    da8d:	48 01 f0             	add    %rsi,%rax
    da90:	48 8d 14 00          	lea    (%rax,%rax,1),%rdx
    da94:	48 8d 05 c5 35 01 00 	lea    0x135c5(%rip),%rax        # 21060 <g_94>
    da9b:	0f b7 14 02          	movzwl (%rdx,%rax,1),%edx
    da9f:	48 8b 85 98 f7 ff ff 	mov    -0x868(%rbp),%rax
    daa6:	48 8b 00             	mov    (%rax),%rax
    daa9:	0f b7 d2             	movzwl %dx,%edx
    daac:	89 10                	mov    %edx,(%rax)
    daae:	48 8b 85 58 f7 ff ff 	mov    -0x8a8(%rbp),%rax
    dab5:	e9 ae 01 00 00       	jmpq   dc68 <func_27+0xfde>
    daba:	90                   	nop
    dabb:	83 85 7c f6 ff ff 01 	addl   $0x1,-0x984(%rbp)
    dac2:	83 bd 7c f6 ff ff 03 	cmpl   $0x3,-0x984(%rbp)
    dac9:	0f 8e ad fe ff ff    	jle    d97c <func_27+0xcf2>
    dacf:	48 83 ad 60 f7 ff ff 	subq   $0x1,-0x8a0(%rbp)
    dad6:	01 
    dad7:	c6 05 54 35 01 00 00 	movb   $0x0,0x13554(%rip)        # 21032 <g_42>
    dade:	e9 1e 01 00 00       	jmpq   dc01 <func_27+0xf77>
    dae3:	48 c7 85 f0 f7 ff ff 	movq   $0x0,-0x810(%rbp)
    daea:	00 00 00 00 
    daee:	48 8d 05 d1 3a 01 00 	lea    0x13ad1(%rip),%rax        # 215c6 <g_1489>
    daf5:	48 89 85 f8 f7 ff ff 	mov    %rax,-0x808(%rbp)
    dafc:	c7 85 e4 f6 ff ff 4d 	movl   $0x9a23bb4d,-0x91c(%rbp)
    db03:	bb 23 9a 
    db06:	c7 85 80 f8 ff ff 00 	movl   $0x0,-0x780(%rbp)
    db0d:	00 00 00 
    db10:	c7 85 84 f8 ff ff 03 	movl   $0x3,-0x77c(%rbp)
    db17:	00 00 00 
    db1a:	c7 85 88 f8 ff ff 03 	movl   $0x3,-0x778(%rbp)
    db21:	00 00 00 
    db24:	c7 85 8c f8 ff ff 00 	movl   $0x0,-0x774(%rbp)
    db2b:	00 00 00 
    db2e:	c7 85 90 f8 ff ff 03 	movl   $0x3,-0x770(%rbp)
    db35:	00 00 00 
    db38:	c7 85 94 f8 ff ff 03 	movl   $0x3,-0x76c(%rbp)
    db3f:	00 00 00 
    db42:	c7 85 98 f8 ff ff 00 	movl   $0x0,-0x768(%rbp)
    db49:	00 00 00 
    db4c:	c7 85 9c f8 ff ff 03 	movl   $0x3,-0x764(%rbp)
    db53:	00 00 00 
    db56:	48 8d 85 f0 f6 ff ff 	lea    -0x910(%rbp),%rax
    db5d:	48 89 85 00 f8 ff ff 	mov    %rax,-0x800(%rbp)
    db64:	48 c7 85 08 f8 ff ff 	movq   $0x0,-0x7f8(%rbp)
    db6b:	00 00 00 00 
    db6f:	48 8d 05 f6 3a 01 00 	lea    0x13af6(%rip),%rax        # 2166c <g_1818>
    db76:	48 89 85 10 f8 ff ff 	mov    %rax,-0x7f0(%rbp)
    db7d:	c6 85 69 f6 ff ff 01 	movb   $0x1,-0x997(%rbp)
    db84:	c7 85 e8 f6 ff ff 01 	movl   $0x1,-0x918(%rbp)
    db8b:	00 00 00 
    db8e:	c7 85 8c f6 ff ff 00 	movl   $0x0,-0x974(%rbp)
    db95:	00 00 00 
    db98:	eb 1b                	jmp    dbb5 <func_27+0xf2b>
    db9a:	8b 85 8c f6 ff ff    	mov    -0x974(%rbp),%eax
    dba0:	48 98                	cltq   
    dba2:	48 c7 84 c5 60 f8 ff 	movq   $0x0,-0x7a0(%rbp,%rax,8)
    dba9:	ff 00 00 00 00 
    dbae:	83 85 8c f6 ff ff 01 	addl   $0x1,-0x974(%rbp)
    dbb5:	83 bd 8c f6 ff ff 02 	cmpl   $0x2,-0x974(%rbp)
    dbbc:	7e dc                	jle    db9a <func_27+0xf10>
    dbbe:	c7 85 8c f6 ff ff 00 	movl   $0x0,-0x974(%rbp)
    dbc5:	00 00 00 
    dbc8:	eb 1e                	jmp    dbe8 <func_27+0xf5e>
    dbca:	8b 85 8c f6 ff ff    	mov    -0x974(%rbp),%eax
    dbd0:	48 98                	cltq   
    dbd2:	48 8d 15 2f 50 01 00 	lea    0x1502f(%rip),%rdx        # 22c08 <g_382>
    dbd9:	48 89 94 c5 40 f9 ff 	mov    %rdx,-0x6c0(%rbp,%rax,8)
    dbe0:	ff 
    dbe1:	83 85 8c f6 ff ff 01 	addl   $0x1,-0x974(%rbp)
    dbe8:	83 bd 8c f6 ff ff 08 	cmpl   $0x8,-0x974(%rbp)
    dbef:	7e d9                	jle    dbca <func_27+0xf40>
    dbf1:	0f b6 05 3a 34 01 00 	movzbl 0x1343a(%rip),%eax        # 21032 <g_42>
    dbf8:	83 c0 01             	add    $0x1,%eax
    dbfb:	88 05 31 34 01 00    	mov    %al,0x13431(%rip)        # 21032 <g_42>
    dc01:	0f b6 05 2a 34 01 00 	movzbl 0x1342a(%rip),%eax        # 21032 <g_42>
    dc08:	3c 03                	cmp    $0x3,%al
    dc0a:	0f 8e d3 fe ff ff    	jle    dae3 <func_27+0xe59>
    dc10:	0f b7 05 79 6e 01 00 	movzwl 0x16e79(%rip),%eax        # 24a90 <g_2116>
    dc17:	83 c0 01             	add    $0x1,%eax
    dc1a:	66 89 05 6f 6e 01 00 	mov    %ax,0x16e6f(%rip)        # 24a90 <g_2116>
    dc21:	0f b7 05 68 6e 01 00 	movzwl 0x16e68(%rip),%eax        # 24a90 <g_2116>
    dc28:	66 83 f8 03          	cmp    $0x3,%ax
    dc2c:	0f 86 02 f7 ff ff    	jbe    d334 <func_27+0x6aa>
    dc32:	c7 85 4c fb ff ff d8 	movl   $0x5921d6d8,-0x4b4(%rbp)
    dc39:	d6 21 59 
    dc3c:	48 8b 05 c5 4f 01 00 	mov    0x14fc5(%rip),%rax        # 22c08 <g_382>
    dc43:	48 c7 00 00 00 00 00 	movq   $0x0,(%rax)
    dc4a:	48 8b 85 58 f6 ff ff 	mov    -0x9a8(%rbp),%rax
    dc51:	89 c2                	mov    %eax,%edx
    dc53:	8b 85 a8 f6 ff ff    	mov    -0x958(%rbp),%eax
    dc59:	21 d0                	and    %edx,%eax
    dc5b:	89 85 a8 f6 ff ff    	mov    %eax,-0x958(%rbp)
    dc61:	48 8b 05 38 2c 01 00 	mov    0x12c38(%rip),%rax        # 208a0 <l_2923.4225>
    dc68:	48 8b 5d d8          	mov    -0x28(%rbp),%rbx
    dc6c:	64 48 33 1c 25 28 00 	xor    %fs:0x28,%rbx
    dc73:	00 00 
    dc75:	74 05                	je     dc7c <func_27+0xff2>
    dc77:	e8 f4 c3 ff ff       	callq  a070 <__stack_chk_fail@plt>
    dc7c:	48 81 c4 90 09 00 00 	add    $0x990,%rsp
    dc83:	5b                   	pop    %rbx
    dc84:	41 5c                	pop    %r12
    dc86:	41 5d                	pop    %r13
    dc88:	41 5e                	pop    %r14
    dc8a:	5d                   	pop    %rbp
    dc8b:	c3                   	retq   

000000000000dc8c <func_29>:
    dc8c:	f3 0f 1e fa          	endbr64 
    dc90:	55                   	push   %rbp
    dc91:	48 89 e5             	mov    %rsp,%rbp
    dc94:	41 57                	push   %r15
    dc96:	41 56                	push   %r14
    dc98:	41 55                	push   %r13
    dc9a:	41 54                	push   %r12
    dc9c:	53                   	push   %rbx
    dc9d:	48 81 ec 88 0e 00 00 	sub    $0xe88,%rsp
    dca4:	89 f0                	mov    %esi,%eax
    dca6:	48 89 95 60 f1 ff ff 	mov    %rdx,-0xea0(%rbp)
    dcad:	48 89 8d 58 f1 ff ff 	mov    %rcx,-0xea8(%rbp)
    dcb4:	89 fa                	mov    %edi,%edx
    dcb6:	88 95 6c f1 ff ff    	mov    %dl,-0xe94(%rbp)
    dcbc:	88 85 68 f1 ff ff    	mov    %al,-0xe98(%rbp)
    dcc2:	64 48 8b 04 25 28 00 	mov    %fs:0x28,%rax
    dcc9:	00 00 
    dccb:	48 89 45 c8          	mov    %rax,-0x38(%rbp)
    dccf:	31 c0                	xor    %eax,%eax
    dcd1:	48 8d 05 98 61 01 00 	lea    0x16198(%rip),%rax        # 23e70 <g_2348>
    dcd8:	48 89 85 28 f2 ff ff 	mov    %rax,-0xdd8(%rbp)
    dcdf:	48 8d 05 1a 61 01 00 	lea    0x1611a(%rip),%rax        # 23e00 <g_1957>
    dce6:	48 89 85 c0 f1 ff ff 	mov    %rax,-0xe40(%rbp)
    dced:	48 8d 05 60 e3 00 00 	lea    0xe360(%rip),%rax        # 1c054 <g_567>
    dcf4:	48 89 85 c8 f1 ff ff 	mov    %rax,-0xe38(%rbp)
    dcfb:	48 8d 85 c8 f1 ff ff 	lea    -0xe38(%rbp),%rax
    dd02:	48 89 85 18 f2 ff ff 	mov    %rax,-0xde8(%rbp)
    dd09:	48 8d 05 f0 4d 01 00 	lea    0x14df0(%rip),%rax        # 22b00 <g_186+0x60>
    dd10:	48 89 85 20 f2 ff ff 	mov    %rax,-0xde0(%rbp)
    dd17:	c6 85 75 f1 ff ff 25 	movb   $0x25,-0xe8b(%rbp)
    dd1e:	48 8d 85 f4 f2 ff ff 	lea    -0xd0c(%rbp),%rax
    dd25:	48 83 c0 08          	add    $0x8,%rax
    dd29:	48 89 85 08 f2 ff ff 	mov    %rax,-0xdf8(%rbp)
    dd30:	c7 85 8c f1 ff ff 05 	movl   $0xba8f6605,-0xe74(%rbp)
    dd37:	66 8f ba 
    dd3a:	c7 85 7c f1 ff ff b4 	movl   $0x439044b4,-0xe84(%rbp)
    dd41:	44 90 43 
    dd44:	48 8d 05 4d 5f 01 00 	lea    0x15f4d(%rip),%rax        # 23c98 <g_1050>
    dd4b:	48 89 85 10 f2 ff ff 	mov    %rax,-0xdf0(%rbp)
    dd52:	c7 85 90 f1 ff ff 00 	movl   $0x0,-0xe70(%rbp)
    dd59:	00 00 00 
    dd5c:	eb 1a                	jmp    dd78 <func_29+0xec>
    dd5e:	8b 85 90 f1 ff ff    	mov    -0xe70(%rbp),%eax
    dd64:	48 98                	cltq   
    dd66:	c7 84 85 f4 f2 ff ff 	movl   $0x1,-0xd0c(%rbp,%rax,4)
    dd6d:	01 00 00 00 
    dd71:	83 85 90 f1 ff ff 01 	addl   $0x1,-0xe70(%rbp)
    dd78:	83 bd 90 f1 ff ff 02 	cmpl   $0x2,-0xe70(%rbp)
    dd7f:	7e dd                	jle    dd5e <func_29+0xd2>
    dd81:	c7 85 90 f1 ff ff 00 	movl   $0x0,-0xe70(%rbp)
    dd88:	00 00 00 
    dd8b:	eb 4c                	jmp    ddd9 <func_29+0x14d>
    dd8d:	c7 85 9c f1 ff ff 00 	movl   $0x0,-0xe64(%rbp)
    dd94:	00 00 00 
    dd97:	eb 30                	jmp    ddc9 <func_29+0x13d>
    dd99:	8b 85 9c f1 ff ff    	mov    -0xe64(%rbp),%eax
    dd9f:	48 63 c8             	movslq %eax,%rcx
    dda2:	8b 85 90 f1 ff ff    	mov    -0xe70(%rbp),%eax
    dda8:	48 63 d0             	movslq %eax,%rdx
    ddab:	48 89 d0             	mov    %rdx,%rax
    ddae:	48 c1 e0 03          	shl    $0x3,%rax
    ddb2:	48 29 d0             	sub    %rdx,%rax
    ddb5:	48 01 c8             	add    %rcx,%rax
    ddb8:	66 c7 84 45 00 f3 ff 	movw   $0x41df,-0xd00(%rbp,%rax,2)
    ddbf:	ff df 41 
    ddc2:	83 85 9c f1 ff ff 01 	addl   $0x1,-0xe64(%rbp)
    ddc9:	83 bd 9c f1 ff ff 06 	cmpl   $0x6,-0xe64(%rbp)
    ddd0:	7e c7                	jle    dd99 <func_29+0x10d>
    ddd2:	83 85 90 f1 ff ff 01 	addl   $0x1,-0xe70(%rbp)
    ddd9:	83 bd 90 f1 ff ff 01 	cmpl   $0x1,-0xe70(%rbp)
    dde0:	7e ab                	jle    dd8d <func_29+0x101>
    dde2:	8b 85 fc f2 ff ff    	mov    -0xd04(%rbp),%eax
    dde8:	48 98                	cltq   
    ddea:	83 e0 1f             	and    $0x1f,%eax
    dded:	48 89 85 50 f1 ff ff 	mov    %rax,-0xeb0(%rbp)
    ddf4:	48 8b 05 05 4e 01 00 	mov    0x14e05(%rip),%rax        # 22c00 <g_376>
    ddfb:	44 8b 38             	mov    (%rax),%r15d
    ddfe:	0f b6 9d 68 f1 ff ff 	movzbl -0xe98(%rbp),%ebx
    de05:	8b 85 fc f2 ff ff    	mov    -0xd04(%rbp),%eax
    de0b:	44 0f bf e0          	movswl %ax,%r12d
    de0f:	8b 95 fc f2 ff ff    	mov    -0xd04(%rbp),%edx
    de15:	48 8b 0d 54 60 01 00 	mov    0x16054(%rip),%rcx        # 23e70 <g_2348>
    de1c:	48 8b 85 28 f2 ff ff 	mov    -0xdd8(%rbp),%rax
    de23:	48 89 08             	mov    %rcx,(%rax)
    de26:	48 8b 85 28 f2 ff ff 	mov    -0xdd8(%rbp),%rax
    de2d:	48 8b 00             	mov    (%rax),%rax
    de30:	48 8d 0d a1 5e 01 00 	lea    0x15ea1(%rip),%rcx        # 23cd8 <g_1437>
    de37:	48 39 c8             	cmp    %rcx,%rax
    de3a:	0f 94 c0             	sete   %al
    de3d:	0f b6 c0             	movzbl %al,%eax
    de40:	89 d6                	mov    %edx,%esi
    de42:	89 c7                	mov    %eax,%edi
    de44:	e8 bc cd ff ff       	callq  ac05 <safe_lshift_func_uint8_t_u_s>
    de49:	44 0f be e8          	movsbl %al,%r13d
    de4d:	8b 85 fc f2 ff ff    	mov    -0xd04(%rbp),%eax
    de53:	44 0f b7 f0          	movzwl %ax,%r14d
    de57:	48 8b 05 3a 5e 01 00 	mov    0x15e3a(%rip),%rax        # 23c98 <g_1050>
    de5e:	48 8b 00             	mov    (%rax),%rax
    de61:	48 89 c7             	mov    %rax,%rdi
    de64:	e8 b0 d1 ff ff       	callq  b019 <safe_unary_minus_func_uint64_t_u>
    de69:	0f b7 c0             	movzwl %ax,%eax
    de6c:	44 89 f6             	mov    %r14d,%esi
    de6f:	89 c7                	mov    %eax,%edi
    de71:	e8 a9 ce ff ff       	callq  ad1f <safe_sub_func_uint16_t_u_u>
    de76:	0f be c0             	movsbl %al,%eax
    de79:	44 89 ee             	mov    %r13d,%esi
    de7c:	89 c7                	mov    %eax,%edi
    de7e:	e8 ae c3 ff ff       	callq  a231 <safe_mod_func_int8_t_s_s>
    de83:	0f be c0             	movsbl %al,%eax
    de86:	44 89 e6             	mov    %r12d,%esi
    de89:	89 c7                	mov    %eax,%edi
    de8b:	e8 43 c5 ff ff       	callq  a3d3 <safe_sub_func_int16_t_s_s>
    de90:	48 0f bf d0          	movswq %ax,%rdx
    de94:	48 8b 05 35 5e 01 00 	mov    0x15e35(%rip),%rax        # 23cd0 <g_1438>
    de9b:	48 8b 00             	mov    (%rax),%rax
    de9e:	48 39 c2             	cmp    %rax,%rdx
    dea1:	0f 9f c0             	setg   %al
    dea4:	0f b6 c0             	movzbl %al,%eax
    dea7:	89 de                	mov    %ebx,%esi
    dea9:	89 c7                	mov    %eax,%edi
    deab:	e8 0e ce ff ff       	callq  acbe <safe_rshift_func_uint8_t_u_u>
    deb0:	0f b6 c0             	movzbl %al,%eax
    deb3:	be 08 00 00 00       	mov    $0x8,%esi
    deb8:	48 89 c7             	mov    %rax,%rdi
    debb:	e8 8b d1 ff ff       	callq  b04b <safe_sub_func_uint64_t_u_u>
    dec0:	48 8b 95 58 f1 ff ff 	mov    -0xea8(%rbp),%rdx
    dec7:	48 39 d0             	cmp    %rdx,%rax
    deca:	0f 94 c0             	sete   %al
    decd:	0f b6 c0             	movzbl %al,%eax
    ded0:	41 39 c7             	cmp    %eax,%r15d
    ded3:	0f 9c c2             	setl   %dl
    ded6:	48 8b 05 23 5f 01 00 	mov    0x15f23(%rip),%rax        # 23e00 <g_1957>
    dedd:	0f b6 d2             	movzbl %dl,%edx
    dee0:	89 10                	mov    %edx,(%rax)
    dee2:	8b 00                	mov    (%rax),%eax
    dee4:	89 c0                	mov    %eax,%eax
    dee6:	48 39 85 50 f1 ff ff 	cmp    %rax,-0xeb0(%rbp)
    deed:	0f 9e c0             	setle  %al
    def0:	0f b6 d0             	movzbl %al,%edx
    def3:	48 8b 05 9e 5d 01 00 	mov    0x15d9e(%rip),%rax        # 23c98 <g_1050>
    defa:	48 8b 00             	mov    (%rax),%rax
    defd:	48 39 c2             	cmp    %rax,%rdx
    df00:	0f 93 c2             	setae  %dl
    df03:	48 8b 05 8e 5d 01 00 	mov    0x15d8e(%rip),%rax        # 23c98 <g_1050>
    df0a:	0f b6 d2             	movzbl %dl,%edx
    df0d:	48 89 10             	mov    %rdx,(%rax)
    df10:	48 8b 10             	mov    (%rax),%rdx
    df13:	48 8b 05 be 5d 01 00 	mov    0x15dbe(%rip),%rax        # 23cd8 <g_1437>
    df1a:	48 8b 00             	mov    (%rax),%rax
    df1d:	48 8b 00             	mov    (%rax),%rax
    df20:	48 09 d0             	or     %rdx,%rax
    df23:	48 85 c0             	test   %rax,%rax
    df26:	0f 84 fd 11 00 00    	je     f129 <func_29+0x149d>
    df2c:	48 8d 05 5d 6b 01 00 	lea    0x16b5d(%rip),%rax        # 24a90 <g_2116>
    df33:	48 89 85 50 f2 ff ff 	mov    %rax,-0xdb0(%rbp)
    df3a:	48 c7 85 d0 f1 ff ff 	movq   $0x0,-0xe30(%rbp)
    df41:	00 00 00 00 
    df45:	48 8d 85 d0 f1 ff ff 	lea    -0xe30(%rbp),%rax
    df4c:	48 89 85 58 f2 ff ff 	mov    %rax,-0xda8(%rbp)
    df53:	48 8d 85 c0 f8 ff ff 	lea    -0x740(%rbp),%rax
    df5a:	48 8d 15 5f e6 00 00 	lea    0xe65f(%rip),%rdx        # 1c5c0 <g_1542+0x563>
    df61:	b9 78 00 00 00       	mov    $0x78,%ecx
    df66:	48 89 c7             	mov    %rax,%rdi
    df69:	48 89 d6             	mov    %rdx,%rsi
    df6c:	f3 48 a5             	rep movsq %ds:(%rsi),%es:(%rdi)
    df6f:	48 8d 05 3a 5d 01 00 	lea    0x15d3a(%rip),%rax        # 23cb0 <g_1173>
    df76:	48 89 85 30 f2 ff ff 	mov    %rax,-0xdd0(%rbp)
    df7d:	48 8d 05 9c 4c 01 00 	lea    0x14c9c(%rip),%rax        # 22c20 <g_487>
    df84:	48 89 85 d8 f1 ff ff 	mov    %rax,-0xe28(%rbp)
    df8b:	48 c7 85 60 f2 ff ff 	movq   $0x0,-0xda0(%rbp)
    df92:	00 00 00 00 
    df96:	c7 85 80 f1 ff ff 50 	movl   $0x4d771850,-0xe80(%rbp)
    df9d:	18 77 4d 
    dfa0:	48 8d 05 ef 34 01 00 	lea    0x134ef(%rip),%rax        # 21496 <g_569+0x16>
    dfa7:	48 89 85 40 f3 ff ff 	mov    %rax,-0xcc0(%rbp)
    dfae:	48 8d 05 e1 34 01 00 	lea    0x134e1(%rip),%rax        # 21496 <g_569+0x16>
    dfb5:	48 89 85 48 f3 ff ff 	mov    %rax,-0xcb8(%rbp)
    dfbc:	48 8d 05 a1 34 01 00 	lea    0x134a1(%rip),%rax        # 21464 <g_559+0x4>
    dfc3:	48 89 85 50 f3 ff ff 	mov    %rax,-0xcb0(%rbp)
    dfca:	48 8d 05 c5 34 01 00 	lea    0x134c5(%rip),%rax        # 21496 <g_569+0x16>
    dfd1:	48 89 85 58 f3 ff ff 	mov    %rax,-0xca8(%rbp)
    dfd8:	48 8d 05 b7 34 01 00 	lea    0x134b7(%rip),%rax        # 21496 <g_569+0x16>
    dfdf:	48 89 85 60 f3 ff ff 	mov    %rax,-0xca0(%rbp)
    dfe6:	48 8d 05 77 34 01 00 	lea    0x13477(%rip),%rax        # 21464 <g_559+0x4>
    dfed:	48 89 85 68 f3 ff ff 	mov    %rax,-0xc98(%rbp)
    dff4:	48 8d 05 9b 34 01 00 	lea    0x1349b(%rip),%rax        # 21496 <g_569+0x16>
    dffb:	48 89 85 70 f3 ff ff 	mov    %rax,-0xc90(%rbp)
    e002:	c7 85 84 f1 ff ff 00 	movl   $0x0,-0xe7c(%rbp)
    e009:	00 00 00 
    e00c:	c6 85 76 f1 ff ff 90 	movb   $0x90,-0xe8a(%rbp)
    e013:	48 c7 85 68 f2 ff ff 	movq   $0x0,-0xd98(%rbp)
    e01a:	00 00 00 00 
    e01e:	48 0f be 9d 6c f1 ff 	movsbq -0xe94(%rbp),%rbx
    e025:	ff 
    e026:	8b 85 0c fa ff ff    	mov    -0x5f4(%rbp),%eax
    e02c:	83 f8 f8             	cmp    $0xfffffff8,%eax
    e02f:	0f 9c c0             	setl   %al
    e032:	0f b6 c0             	movzbl %al,%eax
    e035:	be 03 00 00 00       	mov    $0x3,%esi
    e03a:	89 c7                	mov    %eax,%edi
    e03c:	e8 75 c5 ff ff       	callq  a5b6 <safe_add_func_int32_t_s_s>
    e041:	48 98                	cltq   
    e043:	48 89 de             	mov    %rbx,%rsi
    e046:	48 89 c7             	mov    %rax,%rdi
    e049:	e8 66 c9 ff ff       	callq  a9b4 <safe_mod_func_int64_t_s_s>
    e04e:	48 8b 95 d0 f1 ff ff 	mov    -0xe30(%rbp),%rdx
    e055:	48 8b 85 58 f2 ff ff 	mov    -0xda8(%rbp),%rax
    e05c:	48 89 10             	mov    %rdx,(%rax)
    e05f:	48 8b 85 58 f2 ff ff 	mov    -0xda8(%rbp),%rax
    e066:	48 8b 10             	mov    (%rax),%rdx
    e069:	48 8b 85 c0 f1 ff ff 	mov    -0xe40(%rbp),%rax
    e070:	48 39 c2             	cmp    %rax,%rdx
    e073:	0f 95 c0             	setne  %al
    e076:	0f b6 d0             	movzbl %al,%edx
    e079:	48 8b 85 60 f1 ff ff 	mov    -0xea0(%rbp),%rax
    e080:	0f b6 00             	movzbl (%rax),%eax
    e083:	0f be c0             	movsbl %al,%eax
    e086:	39 c2                	cmp    %eax,%edx
    e088:	0f 95 c0             	setne  %al
    e08b:	0f b6 d8             	movzbl %al,%ebx
    e08e:	48 8d 05 67 31 01 00 	lea    0x13167(%rip),%rax        # 211fc <g_94+0x19c>
    e095:	48 39 85 50 f2 ff ff 	cmp    %rax,-0xdb0(%rbp)
    e09c:	0f 95 c0             	setne  %al
    e09f:	0f b6 c0             	movzbl %al,%eax
    e0a2:	89 c6                	mov    %eax,%esi
    e0a4:	bf 01 00 00 00       	mov    $0x1,%edi
    e0a9:	e8 08 c5 ff ff       	callq  a5b6 <safe_add_func_int32_t_s_s>
    e0ae:	89 de                	mov    %ebx,%esi
    e0b0:	89 c7                	mov    %eax,%edi
    e0b2:	e8 19 ce ff ff       	callq  aed0 <safe_sub_func_uint32_t_u_u>
    e0b7:	8b 95 f4 f2 ff ff    	mov    -0xd0c(%rbp),%edx
    e0bd:	21 c2                	and    %eax,%edx
    e0bf:	48 8b 05 aa 5d 01 00 	mov    0x15daa(%rip),%rax        # 23e70 <g_2348>
    e0c6:	48 8b 00             	mov    (%rax),%rax
    e0c9:	48 8b 00             	mov    (%rax),%rax
    e0cc:	89 d2                	mov    %edx,%edx
    e0ce:	48 89 10             	mov    %rdx,(%rax)
    e0d1:	48 8b 00             	mov    (%rax),%rax
    e0d4:	89 c2                	mov    %eax,%edx
    e0d6:	48 8b 85 58 f1 ff ff 	mov    -0xea8(%rbp),%rax
    e0dd:	21 d0                	and    %edx,%eax
    e0df:	83 e0 c5             	and    $0xffffffc5,%eax
    e0e2:	0f be c0             	movsbl %al,%eax
    e0e5:	be 03 00 00 00       	mov    $0x3,%esi
    e0ea:	89 c7                	mov    %eax,%edi
    e0ec:	e8 44 c2 ff ff       	callq  a335 <safe_rshift_func_int8_t_s_s>
    e0f1:	8b 85 0c fa ff ff    	mov    -0x5f4(%rbp),%eax
    e0f7:	85 c0                	test   %eax,%eax
    e0f9:	74 28                	je     e123 <func_29+0x497>
    e0fb:	48 8d 85 f4 f2 ff ff 	lea    -0xd0c(%rbp),%rax
    e102:	48 83 c0 08          	add    $0x8,%rax
    e106:	48 89 85 80 f2 ff ff 	mov    %rax,-0xd80(%rbp)
    e10d:	48 8b 05 f4 4a 01 00 	mov    0x14af4(%rip),%rax        # 22c08 <g_382>
    e114:	48 8b 95 80 f2 ff ff 	mov    -0xd80(%rbp),%rdx
    e11b:	48 89 10             	mov    %rdx,(%rax)
    e11e:	e9 c6 01 00 00       	jmpq   e2e9 <func_29+0x65d>
    e123:	48 c7 85 60 f6 ff ff 	movq   $0x0,-0x9a0(%rbp)
    e12a:	00 00 00 00 
    e12e:	48 c7 85 68 f6 ff ff 	movq   $0x0,-0x998(%rbp)
    e135:	00 00 00 00 
    e139:	48 c7 85 70 f6 ff ff 	movq   $0x0,-0x990(%rbp)
    e140:	00 00 00 00 
    e144:	48 8d 05 6d 5b 01 00 	lea    0x15b6d(%rip),%rax        # 23cb8 <g_1172>
    e14b:	48 89 85 78 f6 ff ff 	mov    %rax,-0x988(%rbp)
    e152:	48 8d 05 5f 5b 01 00 	lea    0x15b5f(%rip),%rax        # 23cb8 <g_1172>
    e159:	48 89 85 80 f6 ff ff 	mov    %rax,-0x980(%rbp)
    e160:	48 8d 05 51 5b 01 00 	lea    0x15b51(%rip),%rax        # 23cb8 <g_1172>
    e167:	48 89 85 88 f6 ff ff 	mov    %rax,-0x978(%rbp)
    e16e:	48 c7 85 90 f6 ff ff 	movq   $0x0,-0x970(%rbp)
    e175:	00 00 00 00 
    e179:	48 c7 85 98 f6 ff ff 	movq   $0x0,-0x968(%rbp)
    e180:	00 00 00 00 
    e184:	48 c7 85 a0 f6 ff ff 	movq   $0x0,-0x960(%rbp)
    e18b:	00 00 00 00 
    e18f:	48 8d 05 22 5b 01 00 	lea    0x15b22(%rip),%rax        # 23cb8 <g_1172>
    e196:	48 89 85 a8 f6 ff ff 	mov    %rax,-0x958(%rbp)
    e19d:	48 8d 05 14 5b 01 00 	lea    0x15b14(%rip),%rax        # 23cb8 <g_1172>
    e1a4:	48 89 85 b0 f6 ff ff 	mov    %rax,-0x950(%rbp)
    e1ab:	48 8d 05 06 5b 01 00 	lea    0x15b06(%rip),%rax        # 23cb8 <g_1172>
    e1b2:	48 89 85 b8 f6 ff ff 	mov    %rax,-0x948(%rbp)
    e1b9:	48 c7 85 c0 f6 ff ff 	movq   $0x0,-0x940(%rbp)
    e1c0:	00 00 00 00 
    e1c4:	48 c7 85 c8 f6 ff ff 	movq   $0x0,-0x938(%rbp)
    e1cb:	00 00 00 00 
    e1cf:	48 c7 85 d0 f6 ff ff 	movq   $0x0,-0x930(%rbp)
    e1d6:	00 00 00 00 
    e1da:	48 8d 85 d8 f1 ff ff 	lea    -0xe28(%rbp),%rax
    e1e1:	48 89 85 70 f2 ff ff 	mov    %rax,-0xd90(%rbp)
    e1e8:	66 c7 85 7a f1 ff ff 	movw   $0xffff,-0xe86(%rbp)
    e1ef:	ff ff 
    e1f1:	c7 85 ac f1 ff ff 00 	movl   $0x6fb7c800,-0xe54(%rbp)
    e1f8:	c8 b7 6f 
    e1fb:	48 8d 05 88 32 01 00 	lea    0x13288(%rip),%rax        # 2148a <g_569+0xa>
    e202:	48 89 85 78 f2 ff ff 	mov    %rax,-0xd88(%rbp)
    e209:	c7 85 0c fa ff ff 01 	movl   $0x1,-0x5f4(%rbp)
    e210:	00 00 00 
    e213:	48 8d 05 96 5a 01 00 	lea    0x15a96(%rip),%rax        # 23cb0 <g_1173>
    e21a:	48 39 85 30 f2 ff ff 	cmp    %rax,-0xdd0(%rbp)
    e221:	8b 9d fc f2 ff ff    	mov    -0xd04(%rbp),%ebx
    e227:	44 0f b7 a5 7a f1 ff 	movzwl -0xe86(%rbp),%r12d
    e22e:	ff 
    e22f:	0f b7 85 7a f1 ff ff 	movzwl -0xe86(%rbp),%eax
    e236:	0f b6 c0             	movzbl %al,%eax
    e239:	89 c6                	mov    %eax,%esi
    e23b:	bf 30 00 00 00       	mov    $0x30,%edi
    e240:	e8 4e c9 ff ff       	callq  ab93 <safe_mul_func_uint8_t_u_u>
    e245:	0f b6 c0             	movzbl %al,%eax
    e248:	89 c6                	mov    %eax,%esi
    e24a:	bf fa ff 00 00       	mov    $0xfffa,%edi
    e24f:	e8 3a cb ff ff       	callq  ad8e <safe_div_func_uint16_t_u_u>
    e254:	48 8b 95 d8 f1 ff ff 	mov    -0xe28(%rbp),%rdx
    e25b:	48 8b 85 70 f2 ff ff 	mov    -0xd90(%rbp),%rax
    e262:	48 89 10             	mov    %rdx,(%rax)
    e265:	48 8b 85 70 f2 ff ff 	mov    -0xd90(%rbp),%rax
    e26c:	48 8b 00             	mov    (%rax),%rax
    e26f:	48 39 85 60 f2 ff ff 	cmp    %rax,-0xda0(%rbp)
    e276:	0f 94 c0             	sete   %al
    e279:	0f b6 d0             	movzbl %al,%edx
    e27c:	0f be 85 6c f1 ff ff 	movsbl -0xe94(%rbp),%eax
    e283:	31 d0                	xor    %edx,%eax
    e285:	44 89 e6             	mov    %r12d,%esi
    e288:	89 c7                	mov    %eax,%edi
    e28a:	e8 70 c4 ff ff       	callq  a6ff <safe_div_func_int32_t_s_s>
    e28f:	83 c8 fb             	or     $0xfffffffb,%eax
    e292:	0f b7 c0             	movzwl %ax,%eax
    e295:	89 de                	mov    %ebx,%esi
    e297:	89 c7                	mov    %eax,%edi
    e299:	e8 20 cb ff ff       	callq  adbe <safe_lshift_func_uint16_t_u_s>
    e29e:	0f be c0             	movsbl %al,%eax
    e2a1:	8b 95 ac f1 ff ff    	mov    -0xe54(%rbp),%edx
    e2a7:	89 d6                	mov    %edx,%esi
    e2a9:	89 c7                	mov    %eax,%edi
    e2ab:	e8 bc c0 ff ff       	callq  a36c <safe_rshift_func_int8_t_s_u>
    e2b0:	84 c0                	test   %al,%al
    e2b2:	74 07                	je     e2bb <func_29+0x62f>
    e2b4:	80 bd 6c f1 ff ff 00 	cmpb   $0x0,-0xe94(%rbp)
    e2bb:	48 8b 05 6e 49 01 00 	mov    0x1496e(%rip),%rax        # 22c30 <g_566>
    e2c2:	0f b7 00             	movzwl (%rax),%eax
    e2c5:	66 25 70 e8          	and    $0xe870,%ax
    e2c9:	89 c2                	mov    %eax,%edx
    e2cb:	48 8b 85 78 f2 ff ff 	mov    -0xd88(%rbp),%rax
    e2d2:	66 89 10             	mov    %dx,(%rax)
    e2d5:	66 83 bd 7a f1 ff ff 	cmpw   $0x0,-0xe86(%rbp)
    e2dc:	00 
    e2dd:	0f 95 c0             	setne  %al
    e2e0:	0f b6 c0             	movzbl %al,%eax
    e2e3:	89 85 80 f1 ff ff    	mov    %eax,-0xe80(%rbp)
    e2e9:	c6 05 d6 32 01 00 f5 	movb   $0xf5,0x132d6(%rip)        # 215c6 <g_1489>
    e2f0:	e9 ed 00 00 00       	jmpq   e3e2 <func_29+0x756>
    e2f5:	c7 85 bc f1 ff ff 01 	movl   $0x1,-0xe44(%rbp)
    e2fc:	00 00 00 
    e2ff:	c7 05 a7 31 01 00 00 	movl   $0x0,0x131a7(%rip)        # 214b0 <g_627>
    e306:	00 00 00 
    e309:	e9 a2 00 00 00       	jmpq   e3b0 <func_29+0x724>
    e30e:	48 8d 05 2b 2d 01 00 	lea    0x12d2b(%rip),%rax        # 21040 <g_62>
    e315:	48 89 85 e8 f2 ff ff 	mov    %rax,-0xd18(%rbp)
    e31c:	c6 05 0f 2d 01 00 00 	movb   $0x0,0x12d0f(%rip)        # 21032 <g_42>
    e323:	eb 51                	jmp    e376 <func_29+0x6ea>
    e325:	c6 05 3c 33 01 00 00 	movb   $0x0,0x1333c(%rip)        # 21668 <g_1720>
    e32c:	eb 21                	jmp    e34f <func_29+0x6c3>
    e32e:	48 8b 05 d3 48 01 00 	mov    0x148d3(%rip),%rax        # 22c08 <g_382>
    e335:	48 8b 95 e8 f2 ff ff 	mov    -0xd18(%rbp),%rdx
    e33c:	48 89 10             	mov    %rdx,(%rax)
    e33f:	0f b6 05 22 33 01 00 	movzbl 0x13322(%rip),%eax        # 21668 <g_1720>
    e346:	83 c0 01             	add    $0x1,%eax
    e349:	88 05 19 33 01 00    	mov    %al,0x13319(%rip)        # 21668 <g_1720>
    e34f:	0f b6 05 12 33 01 00 	movzbl 0x13312(%rip),%eax        # 21668 <g_1720>
    e356:	3c 07                	cmp    $0x7,%al
    e358:	76 d4                	jbe    e32e <func_29+0x6a2>
    e35a:	0f b6 05 d1 2c 01 00 	movzbl 0x12cd1(%rip),%eax        # 21032 <g_42>
    e361:	0f be c0             	movsbl %al,%eax
    e364:	be 05 00 00 00       	mov    $0x5,%esi
    e369:	89 c7                	mov    %eax,%edi
    e36b:	e8 46 c2 ff ff       	callq  a5b6 <safe_add_func_int32_t_s_s>
    e370:	88 05 bc 2c 01 00    	mov    %al,0x12cbc(%rip)        # 21032 <g_42>
    e376:	0f b6 05 b5 2c 01 00 	movzbl 0x12cb5(%rip),%eax        # 21032 <g_42>
    e37d:	3c 02                	cmp    $0x2,%al
    e37f:	7e a4                	jle    e325 <func_29+0x699>
    e381:	48 8b 05 d8 5a 01 00 	mov    0x15ad8(%rip),%rax        # 23e60 <g_1968>
    e388:	48 8d 95 c0 f1 ff ff 	lea    -0xe40(%rbp),%rdx
    e38f:	48 89 10             	mov    %rdx,(%rax)
    e392:	8b 05 18 31 01 00    	mov    0x13118(%rip),%eax        # 214b0 <g_627>
    e398:	0f b6 c0             	movzbl %al,%eax
    e39b:	be 04 00 00 00       	mov    $0x4,%esi
    e3a0:	89 c7                	mov    %eax,%edi
    e3a2:	e8 b3 c7 ff ff       	callq  ab5a <safe_add_func_uint8_t_u_u>
    e3a7:	0f b6 c0             	movzbl %al,%eax
    e3aa:	89 05 00 31 01 00    	mov    %eax,0x13100(%rip)        # 214b0 <g_627>
    e3b0:	8b 05 fa 30 01 00    	mov    0x130fa(%rip),%eax        # 214b0 <g_627>
    e3b6:	83 f8 05             	cmp    $0x5,%eax
    e3b9:	0f 8e 4f ff ff ff    	jle    e30e <func_29+0x682>
    e3bf:	83 85 bc f1 ff ff 01 	addl   $0x1,-0xe44(%rbp)
    e3c6:	0f b6 05 f9 31 01 00 	movzbl 0x131f9(%rip),%eax        # 215c6 <g_1489>
    e3cd:	0f be c0             	movsbl %al,%eax
    e3d0:	be 06 00 00 00       	mov    $0x6,%esi
    e3d5:	89 c7                	mov    %eax,%edi
    e3d7:	e8 da c1 ff ff       	callq  a5b6 <safe_add_func_int32_t_s_s>
    e3dc:	88 05 e4 31 01 00    	mov    %al,0x131e4(%rip)        # 215c6 <g_1489>
    e3e2:	0f b6 05 dd 31 01 00 	movzbl 0x131dd(%rip),%eax        # 215c6 <g_1489>
    e3e9:	3c 0d                	cmp    $0xd,%al
    e3eb:	0f 8e 04 ff ff ff    	jle    e2f5 <func_29+0x669>
    e3f1:	48 8b 05 08 48 01 00 	mov    0x14808(%rip),%rax        # 22c00 <g_376>
    e3f8:	8b 00                	mov    (%rax),%eax
    e3fa:	41 89 c4             	mov    %eax,%r12d
    e3fd:	8b 95 fc f2 ff ff    	mov    -0xd04(%rbp),%edx
    e403:	48 8b 85 60 f1 ff ff 	mov    -0xea0(%rbp),%rax
    e40a:	0f b6 00             	movzbl (%rax),%eax
    e40d:	0f be c0             	movsbl %al,%eax
    e410:	39 c2                	cmp    %eax,%edx
    e412:	0f 9f c0             	setg   %al
    e415:	0f b6 d8             	movzbl %al,%ebx
    e418:	8b 85 fc f2 ff ff    	mov    -0xd04(%rbp),%eax
    e41e:	89 c6                	mov    %eax,%esi
    e420:	bf db a0 00 00       	mov    $0xa0db,%edi
    e425:	e8 94 c9 ff ff       	callq  adbe <safe_lshift_func_uint16_t_u_s>
    e42a:	0f b7 c0             	movzwl %ax,%eax
    e42d:	48 89 de             	mov    %rbx,%rsi
    e430:	48 89 c7             	mov    %rax,%rdi
    e433:	e8 13 cc ff ff       	callq  b04b <safe_sub_func_uint64_t_u_u>
    e438:	48 85 c0             	test   %rax,%rax
    e43b:	75 3f                	jne    e47c <func_29+0x7f0>
    e43d:	8b 85 d8 fb ff ff    	mov    -0x428(%rbp),%eax
    e443:	0f b6 c0             	movzbl %al,%eax
    e446:	be b6 00 00 00       	mov    $0xb6,%esi
    e44b:	89 c7                	mov    %eax,%edi
    e44d:	e8 5c c7 ff ff       	callq  abae <safe_mod_func_uint8_t_u_u>
    e452:	84 c0                	test   %al,%al
    e454:	74 1e                	je     e474 <func_29+0x7e8>
    e456:	48 8b 85 58 f1 ff ff 	mov    -0xea8(%rbp),%rax
    e45d:	89 c6                	mov    %eax,%esi
    e45f:	bf eb 00 00 00       	mov    $0xeb,%edi
    e464:	e8 e3 c7 ff ff       	callq  ac4c <safe_lshift_func_uint8_t_u_u>
    e469:	c7 85 0c fa ff ff 01 	movl   $0x1,-0x5f4(%rbp)
    e470:	00 00 00 
    e473:	90                   	nop
    e474:	48 83 bd 18 f2 ff ff 	cmpq   $0x0,-0xde8(%rbp)
    e47b:	00 
    e47c:	be 01 00 00 00       	mov    $0x1,%esi
    e481:	bf 33 00 00 00       	mov    $0x33,%edi
    e486:	e8 7a c7 ff ff       	callq  ac05 <safe_lshift_func_uint8_t_u_s>
    e48b:	0f b6 c0             	movzbl %al,%eax
    e48e:	44 89 e6             	mov    %r12d,%esi
    e491:	89 c7                	mov    %eax,%edi
    e493:	e8 38 ca ff ff       	callq  aed0 <safe_sub_func_uint32_t_u_u>
    e498:	c7 85 88 f1 ff ff ff 	movl   $0xffffffff,-0xe78(%rbp)
    e49f:	ff ff ff 
    e4a2:	48 8d 05 37 58 01 00 	lea    0x15837(%rip),%rax        # 23ce0 <g_1661>
    e4a9:	48 89 85 c0 f3 ff ff 	mov    %rax,-0xc40(%rbp)
    e4b0:	48 8d 05 29 58 01 00 	lea    0x15829(%rip),%rax        # 23ce0 <g_1661>
    e4b7:	48 89 85 c8 f3 ff ff 	mov    %rax,-0xc38(%rbp)
    e4be:	48 8d 05 1b 58 01 00 	lea    0x1581b(%rip),%rax        # 23ce0 <g_1661>
    e4c5:	48 89 85 d0 f3 ff ff 	mov    %rax,-0xc30(%rbp)
    e4cc:	48 8d 05 0d 58 01 00 	lea    0x1580d(%rip),%rax        # 23ce0 <g_1661>
    e4d3:	48 89 85 d8 f3 ff ff 	mov    %rax,-0xc28(%rbp)
    e4da:	48 8d 05 ff 57 01 00 	lea    0x157ff(%rip),%rax        # 23ce0 <g_1661>
    e4e1:	48 89 85 e0 f3 ff ff 	mov    %rax,-0xc20(%rbp)
    e4e8:	48 8d 05 f1 57 01 00 	lea    0x157f1(%rip),%rax        # 23ce0 <g_1661>
    e4ef:	48 89 85 e8 f3 ff ff 	mov    %rax,-0xc18(%rbp)
    e4f6:	48 8d 05 e3 57 01 00 	lea    0x157e3(%rip),%rax        # 23ce0 <g_1661>
    e4fd:	48 89 85 f0 f3 ff ff 	mov    %rax,-0xc10(%rbp)
    e504:	48 8d 05 d5 57 01 00 	lea    0x157d5(%rip),%rax        # 23ce0 <g_1661>
    e50b:	48 89 85 f8 f3 ff ff 	mov    %rax,-0xc08(%rbp)
    e512:	48 8d 05 c7 57 01 00 	lea    0x157c7(%rip),%rax        # 23ce0 <g_1661>
    e519:	48 89 85 00 f4 ff ff 	mov    %rax,-0xc00(%rbp)
    e520:	48 8d 05 b9 57 01 00 	lea    0x157b9(%rip),%rax        # 23ce0 <g_1661>
    e527:	48 89 85 08 f4 ff ff 	mov    %rax,-0xbf8(%rbp)
    e52e:	c7 85 10 f4 ff ff 82 	movl   $0x4abd7682,-0xbf0(%rbp)
    e535:	76 bd 4a 
    e538:	c7 85 14 f4 ff ff ff 	movl   $0xffffffff,-0xbec(%rbp)
    e53f:	ff ff ff 
    e542:	c7 85 18 f4 ff ff 82 	movl   $0x4abd7682,-0xbe8(%rbp)
    e549:	76 bd 4a 
    e54c:	c7 85 1c f4 ff ff 82 	movl   $0x4abd7682,-0xbe4(%rbp)
    e553:	76 bd 4a 
    e556:	c7 85 20 f4 ff ff ff 	movl   $0xffffffff,-0xbe0(%rbp)
    e55d:	ff ff ff 
    e560:	c7 85 24 f4 ff ff 82 	movl   $0x4abd7682,-0xbdc(%rbp)
    e567:	76 bd 4a 
    e56a:	c7 85 28 f4 ff ff 82 	movl   $0x4abd7682,-0xbd8(%rbp)
    e571:	76 bd 4a 
    e574:	c7 85 2c f4 ff ff ff 	movl   $0xffffffff,-0xbd4(%rbp)
    e57b:	ff ff ff 
    e57e:	c7 85 30 f4 ff ff 82 	movl   $0x4abd7682,-0xbd0(%rbp)
    e585:	76 bd 4a 
    e588:	c7 85 34 f4 ff ff 82 	movl   $0x4abd7682,-0xbcc(%rbp)
    e58f:	76 bd 4a 
    e592:	c7 85 38 f4 ff ff ff 	movl   $0xffffffff,-0xbc8(%rbp)
    e599:	ff ff ff 
    e59c:	c7 85 3c f4 ff ff 82 	movl   $0x4abd7682,-0xbc4(%rbp)
    e5a3:	76 bd 4a 
    e5a6:	c7 85 40 f4 ff ff 82 	movl   $0x4abd7682,-0xbc0(%rbp)
    e5ad:	76 bd 4a 
    e5b0:	c7 85 44 f4 ff ff ff 	movl   $0xffffffff,-0xbbc(%rbp)
    e5b7:	ff ff ff 
    e5ba:	c7 85 48 f4 ff ff 82 	movl   $0x4abd7682,-0xbb8(%rbp)
    e5c1:	76 bd 4a 
    e5c4:	c7 85 4c f4 ff ff 82 	movl   $0x4abd7682,-0xbb4(%rbp)
    e5cb:	76 bd 4a 
    e5ce:	c7 85 50 f4 ff ff ff 	movl   $0xffffffff,-0xbb0(%rbp)
    e5d5:	ff ff ff 
    e5d8:	c7 85 54 f4 ff ff 82 	movl   $0x4abd7682,-0xbac(%rbp)
    e5df:	76 bd 4a 
    e5e2:	c7 85 58 f4 ff ff 82 	movl   $0x4abd7682,-0xba8(%rbp)
    e5e9:	76 bd 4a 
    e5ec:	c7 85 5c f4 ff ff ff 	movl   $0xffffffff,-0xba4(%rbp)
    e5f3:	ff ff ff 
    e5f6:	c7 85 60 f4 ff ff 82 	movl   $0x4abd7682,-0xba0(%rbp)
    e5fd:	76 bd 4a 
    e600:	c7 85 64 f4 ff ff 82 	movl   $0x4abd7682,-0xb9c(%rbp)
    e607:	76 bd 4a 
    e60a:	c7 85 68 f4 ff ff ff 	movl   $0xffffffff,-0xb98(%rbp)
    e611:	ff ff ff 
    e614:	c7 85 6c f4 ff ff 82 	movl   $0x4abd7682,-0xb94(%rbp)
    e61b:	76 bd 4a 
    e61e:	c7 85 70 f4 ff ff 82 	movl   $0x4abd7682,-0xb90(%rbp)
    e625:	76 bd 4a 
    e628:	c7 85 74 f4 ff ff ff 	movl   $0xffffffff,-0xb8c(%rbp)
    e62f:	ff ff ff 
    e632:	c7 85 78 f4 ff ff 82 	movl   $0x4abd7682,-0xb88(%rbp)
    e639:	76 bd 4a 
    e63c:	c7 85 7c f4 ff ff 82 	movl   $0x4abd7682,-0xb84(%rbp)
    e643:	76 bd 4a 
    e646:	c7 85 80 f4 ff ff ff 	movl   $0xffffffff,-0xb80(%rbp)
    e64d:	ff ff ff 
    e650:	c7 85 84 f4 ff ff 82 	movl   $0x4abd7682,-0xb7c(%rbp)
    e657:	76 bd 4a 
    e65a:	48 8d 85 20 f5 ff ff 	lea    -0xae0(%rbp),%rax
    e661:	48 8d 15 98 30 01 00 	lea    0x13098(%rip),%rdx        # 21700 <g_3040+0xc>
    e668:	b9 28 00 00 00       	mov    $0x28,%ecx
    e66d:	48 89 c7             	mov    %rax,%rdi
    e670:	48 89 d6             	mov    %rdx,%rsi
    e673:	f3 48 a5             	rep movsq %ds:(%rsi),%es:(%rdi)
    e676:	c7 85 b0 f1 ff ff 04 	movl   $0x4,-0xe50(%rbp)
    e67d:	00 00 00 
    e680:	c7 85 b4 f1 ff ff c0 	movl   $0x13e8d4c0,-0xe4c(%rbp)
    e687:	d4 e8 13 
    e68a:	48 8d 05 f9 2d 01 00 	lea    0x12df9(%rip),%rax        # 2148a <g_569+0xa>
    e691:	48 89 85 88 f2 ff ff 	mov    %rax,-0xd78(%rbp)
    e698:	c7 85 a0 f1 ff ff 00 	movl   $0x0,-0xe60(%rbp)
    e69f:	00 00 00 
    e6a2:	eb 1e                	jmp    e6c2 <func_29+0xa36>
    e6a4:	8b 85 a0 f1 ff ff    	mov    -0xe60(%rbp),%eax
    e6aa:	48 98                	cltq   
    e6ac:	48 8d 15 55 2f 01 00 	lea    0x12f55(%rip),%rdx        # 21608 <g_1545+0x28>
    e6b3:	48 89 94 c5 80 f3 ff 	mov    %rdx,-0xc80(%rbp,%rax,8)
    e6ba:	ff 
    e6bb:	83 85 a0 f1 ff ff 01 	addl   $0x1,-0xe60(%rbp)
    e6c2:	83 bd a0 f1 ff ff 07 	cmpl   $0x7,-0xe60(%rbp)
    e6c9:	7e d9                	jle    e6a4 <func_29+0xa18>
    e6cb:	c7 05 db 2d 01 00 17 	movl   $0x17,0x12ddb(%rip)        # 214b0 <g_627>
    e6d2:	00 00 00 
    e6d5:	e9 9b 09 00 00       	jmpq   f075 <func_29+0x13e9>
    e6da:	48 8d 85 60 f6 ff ff 	lea    -0x9a0(%rbp),%rax
    e6e1:	48 8d 15 98 e2 00 00 	lea    0xe298(%rip),%rdx        # 1c980 <g_1542+0x923>
    e6e8:	b9 4b 00 00 00       	mov    $0x4b,%ecx
    e6ed:	48 89 c7             	mov    %rax,%rdi
    e6f0:	48 89 d6             	mov    %rdx,%rsi
    e6f3:	f3 48 a5             	rep movsq %ds:(%rsi),%es:(%rdi)
    e6f6:	48 c7 85 90 f2 ff ff 	movq   $0x0,-0xd70(%rbp)
    e6fd:	00 00 00 00 
    e701:	48 8d 05 38 2c 01 00 	lea    0x12c38(%rip),%rax        # 21340 <g_119+0xe0>
    e708:	48 89 85 98 f2 ff ff 	mov    %rax,-0xd68(%rbp)
    e70f:	48 8d 85 40 f3 ff ff 	lea    -0xcc0(%rbp),%rax
    e716:	48 83 c0 30          	add    $0x30,%rax
    e71a:	48 89 85 e0 f1 ff ff 	mov    %rax,-0xe20(%rbp)
    e721:	48 c7 85 a0 f2 ff ff 	movq   $0x0,-0xd60(%rbp)
    e728:	00 00 00 00 
    e72c:	48 c7 85 a8 f2 ff ff 	movq   $0x0,-0xd58(%rbp)
    e733:	00 00 00 00 
    e737:	c7 85 b8 f1 ff ff 9f 	movl   $0x1c95419f,-0xe48(%rbp)
    e73e:	41 95 1c 
    e741:	48 c7 85 b0 f2 ff ff 	movq   $0x0,-0xd50(%rbp)
    e748:	00 00 00 00 
    e74c:	0f b6 9d 68 f1 ff ff 	movzbl -0xe98(%rbp),%ebx
    e753:	8b 85 84 f1 ff ff    	mov    -0xe7c(%rbp),%eax
    e759:	44 0f b7 e0          	movzwl %ax,%r12d
    e75d:	48 8b 05 94 56 01 00 	mov    0x15694(%rip),%rax        # 23df8 <g_1742>
    e764:	48 8b 00             	mov    (%rax),%rax
    e767:	48 8b 00             	mov    (%rax),%rax
    e76a:	48 85 c0             	test   %rax,%rax
    e76d:	48 0f be 85 6c f1 ff 	movsbq -0xe94(%rbp),%rax
    e774:	ff 
    e775:	48 89 c6             	mov    %rax,%rsi
    e778:	bf 01 00 00 00       	mov    $0x1,%edi
    e77d:	e8 75 c2 ff ff       	callq  a9f7 <safe_div_func_int64_t_s_s>
    e782:	89 c7                	mov    %eax,%edi
    e784:	e8 1d c7 ff ff       	callq  aea6 <safe_unary_minus_func_uint32_t_u>
    e789:	0f b7 c0             	movzwl %ax,%eax
    e78c:	be 0a 00 00 00       	mov    $0xa,%esi
    e791:	89 c7                	mov    %eax,%edi
    e793:	e8 b0 c6 ff ff       	callq  ae48 <safe_rshift_func_uint16_t_u_s>
    e798:	66 85 c0             	test   %ax,%ax
    e79b:	0f 95 c0             	setne  %al
    e79e:	0f b6 d0             	movzbl %al,%edx
    e7a1:	48 8b 85 50 f2 ff ff 	mov    -0xdb0(%rbp),%rax
    e7a8:	0f b7 00             	movzwl (%rax),%eax
    e7ab:	89 c1                	mov    %eax,%ecx
    e7ad:	89 d0                	mov    %edx,%eax
    e7af:	31 c8                	xor    %ecx,%eax
    e7b1:	89 c2                	mov    %eax,%edx
    e7b3:	48 8b 85 50 f2 ff ff 	mov    -0xdb0(%rbp),%rax
    e7ba:	66 89 10             	mov    %dx,(%rax)
    e7bd:	48 8b 85 50 f2 ff ff 	mov    -0xdb0(%rbp),%rax
    e7c4:	0f b7 00             	movzwl (%rax),%eax
    e7c7:	0f bf d0             	movswl %ax,%edx
    e7ca:	8b 85 88 f1 ff ff    	mov    -0xe78(%rbp),%eax
    e7d0:	98                   	cwtl   
    e7d1:	89 d6                	mov    %edx,%esi
    e7d3:	89 c7                	mov    %eax,%edi
    e7d5:	e8 d9 bb ff ff       	callq  a3b3 <safe_add_func_int16_t_s_s>
    e7da:	98                   	cwtl   
    e7db:	89 85 80 f1 ff ff    	mov    %eax,-0xe80(%rbp)
    e7e1:	b8 9d ff ff ff       	mov    $0xffffff9d,%eax
    e7e6:	0f b6 c0             	movzbl %al,%eax
    e7e9:	44 89 e6             	mov    %r12d,%esi
    e7ec:	89 c7                	mov    %eax,%edi
    e7ee:	e8 0c c5 ff ff       	callq  acff <safe_add_func_uint16_t_u_u>
    e7f3:	8b 85 c0 f7 ff ff    	mov    -0x840(%rbp),%eax
    e7f9:	8b 95 0c fa ff ff    	mov    -0x5f4(%rbp),%edx
    e7ff:	39 d0                	cmp    %edx,%eax
    e801:	0f 93 c0             	setae  %al
    e804:	0f b6 c0             	movzbl %al,%eax
    e807:	8b 8d fc f2 ff ff    	mov    -0xd04(%rbp),%ecx
    e80d:	8b 95 88 f1 ff ff    	mov    -0xe78(%rbp),%edx
    e813:	09 ca                	or     %ecx,%edx
    e815:	39 d0                	cmp    %edx,%eax
    e817:	0f 9c c0             	setl   %al
    e81a:	0f b6 d0             	movzbl %al,%edx
    e81d:	0f b7 05 d8 29 01 00 	movzwl 0x129d8(%rip),%eax        # 211fc <g_94+0x19c>
    e824:	0f b7 c0             	movzwl %ax,%eax
    e827:	39 c2                	cmp    %eax,%edx
    e829:	0f 94 c0             	sete   %al
    e82c:	0f b6 d0             	movzbl %al,%edx
    e82f:	48 8b 85 58 f1 ff ff 	mov    -0xea8(%rbp),%rax
    e836:	48 39 c2             	cmp    %rax,%rdx
    e839:	0f 96 c0             	setbe  %al
    e83c:	0f b6 c0             	movzbl %al,%eax
    e83f:	89 de                	mov    %ebx,%esi
    e841:	89 c7                	mov    %eax,%edi
    e843:	e8 f5 c4 ff ff       	callq  ad3d <safe_mul_func_uint16_t_u_u>
    e848:	48 83 bd 90 f2 ff ff 	cmpq   $0x0,-0xd70(%rbp)
    e84f:	00 
    e850:	0f 95 c0             	setne  %al
    e853:	0f b6 d0             	movzbl %al,%edx
    e856:	48 8b 85 98 f2 ff ff 	mov    -0xd68(%rbp),%rax
    e85d:	89 10                	mov    %edx,(%rax)
    e85f:	48 8b 05 a2 55 01 00 	mov    0x155a2(%rip),%rax        # 23e08 <g_1956>
    e866:	48 8b 00             	mov    (%rax),%rax
    e869:	8b 08                	mov    (%rax),%ecx
    e86b:	48 8b 85 f8 f3 ff ff 	mov    -0xc08(%rbp),%rax
    e872:	48 85 c0             	test   %rax,%rax
    e875:	0f 95 c0             	setne  %al
    e878:	0f b6 d0             	movzbl %al,%edx
    e87b:	48 8b 05 86 55 01 00 	mov    0x15586(%rip),%rax        # 23e08 <g_1956>
    e882:	48 8b 00             	mov    (%rax),%rax
    e885:	21 ca                	and    %ecx,%edx
    e887:	89 10                	mov    %edx,(%rax)
    e889:	48 8b 95 e0 f1 ff ff 	mov    -0xe20(%rbp),%rdx
    e890:	48 8d 85 40 f3 ff ff 	lea    -0xcc0(%rbp),%rax
    e897:	48 39 c2             	cmp    %rax,%rdx
    e89a:	0f 95 c0             	setne  %al
    e89d:	0f b6 c0             	movzbl %al,%eax
    e8a0:	be 06 00 00 00       	mov    $0x6,%esi
    e8a5:	89 c7                	mov    %eax,%edi
    e8a7:	e8 c0 ba ff ff       	callq  a36c <safe_rshift_func_int8_t_s_u>
    e8ac:	0f be c0             	movsbl %al,%eax
    e8af:	89 85 f0 fa ff ff    	mov    %eax,-0x510(%rbp)
    e8b5:	44 8b a5 f0 fa ff ff 	mov    -0x510(%rbp),%r12d
    e8bc:	8b 9d 88 f1 ff ff    	mov    -0xe78(%rbp),%ebx
    e8c2:	48 8b 05 37 55 01 00 	mov    0x15537(%rip),%rax        # 23e00 <g_1957>
    e8c9:	8b 00                	mov    (%rax),%eax
    e8cb:	be 07 00 00 00       	mov    $0x7,%esi
    e8d0:	89 c7                	mov    %eax,%edi
    e8d2:	e8 4e c6 ff ff       	callq  af25 <safe_div_func_uint32_t_u_u>
    e8d7:	be 00 00 00 00       	mov    $0x0,%esi
    e8dc:	bf 00 00 00 00       	mov    $0x0,%edi
    e8e1:	e8 0c b9 ff ff       	callq  a1f2 <safe_sub_func_int8_t_s_s>
    e8e6:	83 c8 c4             	or     $0xffffffc4,%eax
    e8e9:	0f b6 c0             	movzbl %al,%eax
    e8ec:	89 de                	mov    %ebx,%esi
    e8ee:	89 c7                	mov    %eax,%edi
    e8f0:	e8 98 c3 ff ff       	callq  ac8d <safe_rshift_func_uint8_t_u_s>
    e8f5:	0f b6 c0             	movzbl %al,%eax
    e8f8:	48 89 85 a0 f2 ff ff 	mov    %rax,-0xd60(%rbp)
    e8ff:	48 8b 85 a0 f2 ff ff 	mov    -0xd60(%rbp),%rax
    e906:	98                   	cwtl   
    e907:	be 00 00 00 00       	mov    $0x0,%esi
    e90c:	89 c7                	mov    %eax,%edi
    e90e:	e8 e2 ba ff ff       	callq  a3f5 <safe_mul_func_int16_t_s_s>
    e913:	0f b7 d0             	movzwl %ax,%edx
    e916:	66 0f be 85 6c f1 ff 	movsbw -0xe94(%rbp),%ax
    e91d:	ff 
    e91e:	0f b7 c0             	movzwl %ax,%eax
    e921:	89 d6                	mov    %edx,%esi
    e923:	89 c7                	mov    %eax,%edi
    e925:	e8 13 c4 ff ff       	callq  ad3d <safe_mul_func_uint16_t_u_u>
    e92a:	0f b7 c0             	movzwl %ax,%eax
    e92d:	44 31 e0             	xor    %r12d,%eax
    e930:	89 c2                	mov    %eax,%edx
    e932:	48 8b 85 58 f1 ff ff 	mov    -0xea8(%rbp),%rax
    e939:	0f b6 c0             	movzbl %al,%eax
    e93c:	89 d6                	mov    %edx,%esi
    e93e:	89 c7                	mov    %eax,%edi
    e940:	e8 07 c3 ff ff       	callq  ac4c <safe_lshift_func_uint8_t_u_u>
    e945:	84 c0                	test   %al,%al
    e947:	0f 84 42 06 00 00    	je     ef8f <func_29+0x1303>
    e94d:	48 c7 85 c0 f2 ff ff 	movq   $0x0,-0xd40(%rbp)
    e954:	00 00 00 00 
    e958:	48 8d 85 e0 f1 ff ff 	lea    -0xe20(%rbp),%rax
    e95f:	48 89 85 c8 f2 ff ff 	mov    %rax,-0xd38(%rbp)
    e966:	c6 85 77 f1 ff ff b4 	movb   $0xb4,-0xe89(%rbp)
    e96d:	c7 85 a4 f1 ff ff 00 	movl   $0x0,-0xe5c(%rbp)
    e974:	00 00 00 
    e977:	e9 83 00 00 00       	jmpq   e9ff <func_29+0xd73>
    e97c:	c7 85 a8 f1 ff ff 00 	movl   $0x0,-0xe58(%rbp)
    e983:	00 00 00 
    e986:	eb 67                	jmp    e9ef <func_29+0xd63>
    e988:	c7 85 98 f1 ff ff 00 	movl   $0x0,-0xe68(%rbp)
    e98f:	00 00 00 
    e992:	eb 4b                	jmp    e9df <func_29+0xd53>
    e994:	8b 85 98 f1 ff ff    	mov    -0xe68(%rbp),%eax
    e99a:	48 63 f0             	movslq %eax,%rsi
    e99d:	8b 85 a4 f1 ff ff    	mov    -0xe5c(%rbp),%eax
    e9a3:	48 63 d0             	movslq %eax,%rdx
    e9a6:	8b 85 a8 f1 ff ff    	mov    -0xe58(%rbp),%eax
    e9ac:	48 63 c8             	movslq %eax,%rcx
    e9af:	48 89 d0             	mov    %rdx,%rax
    e9b2:	48 c1 e0 03          	shl    $0x3,%rax
    e9b6:	48 01 d0             	add    %rdx,%rax
    e9b9:	48 01 c0             	add    %rax,%rax
    e9bc:	48 89 ca             	mov    %rcx,%rdx
    e9bf:	48 c1 e2 03          	shl    $0x3,%rdx
    e9c3:	48 01 ca             	add    %rcx,%rdx
    e9c6:	48 01 d0             	add    %rdx,%rax
    e9c9:	48 01 f0             	add    %rsi,%rax
    e9cc:	48 c7 84 c5 90 f4 ff 	movq   $0x0,-0xb70(%rbp,%rax,8)
    e9d3:	ff 00 00 00 00 
    e9d8:	83 85 98 f1 ff ff 01 	addl   $0x1,-0xe68(%rbp)
    e9df:	83 bd 98 f1 ff ff 08 	cmpl   $0x8,-0xe68(%rbp)
    e9e6:	7e ac                	jle    e994 <func_29+0xd08>
    e9e8:	83 85 a8 f1 ff ff 01 	addl   $0x1,-0xe58(%rbp)
    e9ef:	83 bd a8 f1 ff ff 01 	cmpl   $0x1,-0xe58(%rbp)
    e9f6:	7e 90                	jle    e988 <func_29+0xcfc>
    e9f8:	83 85 a4 f1 ff ff 01 	addl   $0x1,-0xe5c(%rbp)
    e9ff:	83 bd a4 f1 ff ff 00 	cmpl   $0x0,-0xe5c(%rbp)
    ea06:	0f 8e 70 ff ff ff    	jle    e97c <func_29+0xcf0>
    ea0c:	0f b6 85 68 f1 ff ff 	movzbl -0xe98(%rbp),%eax
    ea13:	0f be d8             	movsbl %al,%ebx
    ea16:	48 8b 85 c8 f2 ff ff 	mov    -0xd38(%rbp),%rax
    ea1d:	48 8d 15 4c 60 01 00 	lea    0x1604c(%rip),%rdx        # 24a70 <g_570>
    ea24:	48 89 10             	mov    %rdx,(%rax)
    ea27:	48 8b 05 f2 41 01 00 	mov    0x141f2(%rip),%rax        # 22c20 <g_487>
    ea2e:	0f b6 00             	movzbl (%rax),%eax
    ea31:	0f b6 c0             	movzbl %al,%eax
    ea34:	be 00 00 00 00       	mov    $0x0,%esi
    ea39:	89 c7                	mov    %eax,%edi
    ea3b:	e8 7e c2 ff ff       	callq  acbe <safe_rshift_func_uint8_t_u_u>
    ea40:	83 c8 01             	or     $0x1,%eax
    ea43:	0f b6 d0             	movzbl %al,%edx
    ea46:	48 8b 85 58 f1 ff ff 	mov    -0xea8(%rbp),%rax
    ea4d:	48 39 c2             	cmp    %rax,%rdx
    ea50:	0f 97 c0             	seta   %al
    ea53:	0f b6 d0             	movzbl %al,%edx
    ea56:	48 8b 85 98 f2 ff ff 	mov    -0xd68(%rbp),%rax
    ea5d:	89 10                	mov    %edx,(%rax)
    ea5f:	48 8b 85 98 f2 ff ff 	mov    -0xd68(%rbp),%rax
    ea66:	8b 00                	mov    (%rax),%eax
    ea68:	0f be c0             	movsbl %al,%eax
    ea6b:	89 de                	mov    %ebx,%esi
    ea6d:	89 c7                	mov    %eax,%edi
    ea6f:	e8 bd b7 ff ff       	callq  a231 <safe_mod_func_int8_t_s_s>
    ea74:	89 c2                	mov    %eax,%edx
    ea76:	48 8b 05 fb 53 01 00 	mov    0x153fb(%rip),%rax        # 23e78 <g_2458>
    ea7d:	8b 08                	mov    (%rax),%ecx
    ea7f:	0f be d2             	movsbl %dl,%edx
    ea82:	21 ca                	and    %ecx,%edx
    ea84:	89 10                	mov    %edx,(%rax)
    ea86:	48 8b 05 eb 53 01 00 	mov    0x153eb(%rip),%rax        # 23e78 <g_2458>
    ea8d:	8b 85 fc f2 ff ff    	mov    -0xd04(%rbp),%eax
    ea93:	85 c0                	test   %eax,%eax
    ea95:	74 0e                	je     eaa5 <func_29+0xe19>
    ea97:	80 bd 6c f1 ff ff 00 	cmpb   $0x0,-0xe94(%rbp)
    ea9e:	74 30                	je     ead0 <func_29+0xe44>
    eaa0:	e9 e2 05 00 00       	jmpq   f087 <func_29+0x13fb>
    eaa5:	48 8d 85 88 f1 ff ff 	lea    -0xe78(%rbp),%rax
    eaac:	48 89 85 d0 f2 ff ff 	mov    %rax,-0xd30(%rbp)
    eab3:	48 8b 05 4e 41 01 00 	mov    0x1414e(%rip),%rax        # 22c08 <g_382>
    eaba:	48 8b 95 d0 f2 ff ff 	mov    -0xd30(%rbp),%rdx
    eac1:	48 89 10             	mov    %rdx,(%rax)
    eac4:	48 8b 85 c0 f2 ff ff 	mov    -0xd40(%rbp),%rax
    eacb:	e9 09 15 00 00       	jmpq   ffd9 <func_29+0x234d>
    ead0:	48 8b 85 98 f2 ff ff 	mov    -0xd68(%rbp),%rax
    ead7:	44 8b 20             	mov    (%rax),%r12d
    eada:	48 8b 05 87 53 01 00 	mov    0x15387(%rip),%rax        # 23e68 <g_2350>
    eae1:	4c 8b 28             	mov    (%rax),%r13
    eae4:	0f b6 9d 68 f1 ff ff 	movzbl -0xe98(%rbp),%ebx
    eaeb:	48 8b 15 e6 51 01 00 	mov    0x151e6(%rip),%rdx        # 23cd8 <g_1437>
    eaf2:	48 8b 05 df 51 01 00 	mov    0x151df(%rip),%rax        # 23cd8 <g_1437>
    eaf9:	48 8b 12             	mov    (%rdx),%rdx
    eafc:	48 89 10             	mov    %rdx,(%rax)
    eaff:	48 8b 00             	mov    (%rax),%rax
    eb02:	48 39 85 a8 f2 ff ff 	cmp    %rax,-0xd58(%rbp)
    eb09:	48 83 bd 20 f2 ff ff 	cmpq   $0x0,-0xde0(%rbp)
    eb10:	00 
    eb11:	48 8b 05 18 41 01 00 	mov    0x14118(%rip),%rax        # 22c30 <g_566>
    eb18:	0f b7 00             	movzwl (%rax),%eax
    eb1b:	66 85 c0             	test   %ax,%ax
    eb1e:	74 08                	je     eb28 <func_29+0xe9c>
    eb20:	8b 85 80 f4 ff ff    	mov    -0xb80(%rbp),%eax
    eb26:	85 c0                	test   %eax,%eax
    eb28:	0f be 85 6c f1 ff ff 	movsbl -0xe94(%rbp),%eax
    eb2f:	89 85 88 f1 ff ff    	mov    %eax,-0xe78(%rbp)
    eb35:	8b 85 88 f1 ff ff    	mov    -0xe78(%rbp),%eax
    eb3b:	85 c0                	test   %eax,%eax
    eb3d:	0f 94 c0             	sete   %al
    eb40:	0f b6 d0             	movzbl %al,%edx
    eb43:	48 8b 05 d6 40 01 00 	mov    0x140d6(%rip),%rax        # 22c20 <g_487>
    eb4a:	0f b6 00             	movzbl (%rax),%eax
    eb4d:	0f b6 c0             	movzbl %al,%eax
    eb50:	89 d6                	mov    %edx,%esi
    eb52:	89 c7                	mov    %eax,%edi
    eb54:	e8 1f c0 ff ff       	callq  ab78 <safe_sub_func_uint8_t_u_u>
    eb59:	48 8b 05 38 51 01 00 	mov    0x15138(%rip),%rax        # 23c98 <g_1050>
    eb60:	48 8b 10             	mov    (%rax),%rdx
    eb63:	48 8b 85 58 f1 ff ff 	mov    -0xea8(%rbp),%rax
    eb6a:	48 39 c2             	cmp    %rax,%rdx
    eb6d:	0f 94 c0             	sete   %al
    eb70:	0f b6 c0             	movzbl %al,%eax
    eb73:	89 de                	mov    %ebx,%esi
    eb75:	89 c7                	mov    %eax,%edi
    eb77:	e8 9a b8 ff ff       	callq  a416 <safe_mod_func_int16_t_s_s>
    eb7c:	48 0f bf c0          	movswq %ax,%rax
    eb80:	4c 89 ea             	mov    %r13,%rdx
    eb83:	48 21 c2             	and    %rax,%rdx
    eb86:	0f b6 85 75 f1 ff ff 	movzbl -0xe8b(%rbp),%eax
    eb8d:	48 39 c2             	cmp    %rax,%rdx
    eb90:	0f 9f c0             	setg   %al
    eb93:	0f b6 c0             	movzbl %al,%eax
    eb96:	41 39 c4             	cmp    %eax,%r12d
    eb99:	0f 9c c0             	setl   %al
    eb9c:	88 85 76 f1 ff ff    	mov    %al,-0xe8a(%rbp)
    eba2:	0f b6 95 76 f1 ff ff 	movzbl -0xe8a(%rbp),%edx
    eba9:	48 8b 85 98 f2 ff ff 	mov    -0xd68(%rbp),%rax
    ebb0:	89 10                	mov    %edx,(%rax)
    ebb2:	48 8b 85 98 f2 ff ff 	mov    -0xd68(%rbp),%rax
    ebb9:	8b 00                	mov    (%rax),%eax
    ebbb:	89 c7                	mov    %eax,%edi
    ebbd:	e8 e4 c2 ff ff       	callq  aea6 <safe_unary_minus_func_uint32_t_u>
    ebc2:	85 c0                	test   %eax,%eax
    ebc4:	0f 84 e8 00 00 00    	je     ecb2 <func_29+0x1026>
    ebca:	48 8b 05 37 40 01 00 	mov    0x14037(%rip),%rax        # 22c08 <g_382>
    ebd1:	48 8d 95 80 f1 ff ff 	lea    -0xe80(%rbp),%rdx
    ebd8:	48 89 10             	mov    %rdx,(%rax)
    ebdb:	48 8b 05 4e 40 01 00 	mov    0x1404e(%rip),%rax        # 22c30 <g_566>
    ebe2:	0f b7 00             	movzwl (%rax),%eax
    ebe5:	0f b7 d8             	movzwl %ax,%ebx
    ebe8:	66 0f be 85 6c f1 ff 	movsbw -0xe94(%rbp),%ax
    ebef:	ff 
    ebf0:	0f b7 d0             	movzwl %ax,%edx
    ebf3:	48 8b 85 58 f1 ff ff 	mov    -0xea8(%rbp),%rax
    ebfa:	0f b7 c0             	movzwl %ax,%eax
    ebfd:	89 d6                	mov    %edx,%esi
    ebff:	89 c7                	mov    %eax,%edi
    ec01:	e8 f9 c0 ff ff       	callq  acff <safe_add_func_uint16_t_u_u>
    ec06:	0f b7 d0             	movzwl %ax,%edx
    ec09:	48 8b 05 a8 50 01 00 	mov    0x150a8(%rip),%rax        # 23cb8 <g_1172>
    ec10:	48 8b 00             	mov    (%rax),%rax
    ec13:	8b 08                	mov    (%rax),%ecx
    ec15:	48 8b 05 9c 50 01 00 	mov    0x1509c(%rip),%rax        # 23cb8 <g_1172>
    ec1c:	48 8b 00             	mov    (%rax),%rax
    ec1f:	81 e1 1f 4b 45 81    	and    $0x81454b1f,%ecx
    ec25:	89 08                	mov    %ecx,(%rax)
    ec27:	41 b8 01 00 00 00    	mov    $0x1,%r8d
    ec2d:	48 8b 8d 88 f3 ff ff 	mov    -0xc78(%rbp),%rcx
    ec34:	48 8d 85 58 f1 ff ff 	lea    -0xea8(%rbp),%rax
    ec3b:	48 39 c1             	cmp    %rax,%rcx
    ec3e:	0f 94 c0             	sete   %al
    ec41:	89 c7                	mov    %eax,%edi
    ec43:	0f be 8d 6c f1 ff ff 	movsbl -0xe94(%rbp),%ecx
    ec4a:	48 8b 85 d8 f1 ff ff 	mov    -0xe28(%rbp),%rax
    ec51:	48 8b 00             	mov    (%rax),%rax
    ec54:	0f b6 00             	movzbl (%rax),%eax
    ec57:	89 c6                	mov    %eax,%esi
    ec59:	44 89 c0             	mov    %r8d,%eax
    ec5c:	21 c6                	and    %eax,%esi
    ec5e:	48 8b 85 d8 f1 ff ff 	mov    -0xe28(%rbp),%rax
    ec65:	48 8b 00             	mov    (%rax),%rax
    ec68:	40 88 30             	mov    %sil,(%rax)
    ec6b:	0f b6 00             	movzbl (%rax),%eax
    ec6e:	0f b6 c0             	movzbl %al,%eax
    ec71:	39 c1                	cmp    %eax,%ecx
    ec73:	0f 9e c0             	setle  %al
    ec76:	31 f8                	xor    %edi,%eax
    ec78:	f7 d0                	not    %eax
    ec7a:	0f b6 c0             	movzbl %al,%eax
    ec7d:	89 d6                	mov    %edx,%esi
    ec7f:	89 c7                	mov    %eax,%edi
    ec81:	e8 7f bf ff ff       	callq  ac05 <safe_lshift_func_uint8_t_u_s>
    ec86:	38 85 68 f1 ff ff    	cmp    %al,-0xe98(%rbp)
    ec8c:	0f b7 05 b5 25 01 00 	movzwl 0x125b5(%rip),%eax        # 21248 <g_115>
    ec93:	0f b7 c0             	movzwl %ax,%eax
    ec96:	89 de                	mov    %ebx,%esi
    ec98:	89 c7                	mov    %eax,%edi
    ec9a:	e8 bd c0 ff ff       	callq  ad5c <safe_mod_func_uint16_t_u_u>
    ec9f:	89 c2                	mov    %eax,%edx
    eca1:	48 8b 05 48 3f 01 00 	mov    0x13f48(%rip),%rax        # 22bf0 <g_320>
    eca8:	0f b7 d2             	movzwl %dx,%edx
    ecab:	89 10                	mov    %edx,(%rax)
    ecad:	e9 a1 02 00 00       	jmpq   ef53 <func_29+0x12c7>
    ecb2:	c7 85 20 f3 ff ff 50 	movl   $0xeaf6b50,-0xce0(%rbp)
    ecb9:	6b af 0e 
    ecbc:	c7 85 24 f3 ff ff 50 	movl   $0xeaf6b50,-0xcdc(%rbp)
    ecc3:	6b af 0e 
    ecc6:	c7 85 28 f3 ff ff 50 	movl   $0xeaf6b50,-0xcd8(%rbp)
    eccd:	6b af 0e 
    ecd0:	c7 85 2c f3 ff ff 50 	movl   $0xeaf6b50,-0xcd4(%rbp)
    ecd7:	6b af 0e 
    ecda:	c7 85 30 f3 ff ff 50 	movl   $0xeaf6b50,-0xcd0(%rbp)
    ece1:	6b af 0e 
    ece4:	c7 85 34 f3 ff ff 50 	movl   $0xeaf6b50,-0xccc(%rbp)
    eceb:	6b af 0e 
    ecee:	c7 85 38 f3 ff ff 50 	movl   $0xeaf6b50,-0xcc8(%rbp)
    ecf5:	6b af 0e 
    ecf8:	48 8d 05 b1 4f 01 00 	lea    0x14fb1(%rip),%rax        # 23cb0 <g_1173>
    ecff:	48 89 85 d8 f2 ff ff 	mov    %rax,-0xd28(%rbp)
    ed06:	8b 85 28 f3 ff ff    	mov    -0xcd8(%rbp),%eax
    ed0c:	0f b7 d8             	movzwl %ax,%ebx
    ed0f:	0f b6 85 68 f1 ff ff 	movzbl -0xe98(%rbp),%eax
    ed16:	89 c6                	mov    %eax,%esi
    ed18:	bf 00 00 00 00       	mov    $0x0,%edi
    ed1d:	e8 9c bf ff ff       	callq  acbe <safe_rshift_func_uint8_t_u_u>
    ed22:	38 85 68 f1 ff ff    	cmp    %al,-0xe98(%rbp)
    ed28:	0f 92 c0             	setb   %al
    ed2b:	0f b6 c0             	movzbl %al,%eax
    ed2e:	89 de                	mov    %ebx,%esi
    ed30:	89 c7                	mov    %eax,%edi
    ed32:	e8 06 c0 ff ff       	callq  ad3d <safe_mul_func_uint16_t_u_u>
    ed37:	0f be d0             	movsbl %al,%edx
    ed3a:	48 8b 85 60 f1 ff ff 	mov    -0xea0(%rbp),%rax
    ed41:	0f b6 00             	movzbl (%rax),%eax
    ed44:	0f be c0             	movsbl %al,%eax
    ed47:	89 d6                	mov    %edx,%esi
    ed49:	89 c7                	mov    %eax,%edi
    ed4b:	e8 c2 b4 ff ff       	callq  a212 <safe_mul_func_int8_t_s_s>
    ed50:	84 c0                	test   %al,%al
    ed52:	74 11                	je     ed65 <func_29+0x10d9>
    ed54:	8b 85 0c fa ff ff    	mov    -0x5f4(%rbp),%eax
    ed5a:	85 c0                	test   %eax,%eax
    ed5c:	74 07                	je     ed65 <func_29+0x10d9>
    ed5e:	ba 01 00 00 00       	mov    $0x1,%edx
    ed63:	eb 05                	jmp    ed6a <func_29+0x10de>
    ed65:	ba 00 00 00 00       	mov    $0x0,%edx
    ed6a:	8b 85 80 f4 ff ff    	mov    -0xb80(%rbp),%eax
    ed70:	39 c2                	cmp    %eax,%edx
    ed72:	0f 9e c0             	setle  %al
    ed75:	0f b6 d0             	movzbl %al,%edx
    ed78:	8b 8d 80 f4 ff ff    	mov    -0xb80(%rbp),%ecx
    ed7e:	48 8d 85 e0 f1 ff ff 	lea    -0xe20(%rbp),%rax
    ed85:	48 39 85 c8 f2 ff ff 	cmp    %rax,-0xd38(%rbp)
    ed8c:	0f 94 c0             	sete   %al
    ed8f:	0f b6 c0             	movzbl %al,%eax
    ed92:	09 c8                	or     %ecx,%eax
    ed94:	f7 d0                	not    %eax
    ed96:	48 98                	cltq   
    ed98:	48 89 d6             	mov    %rdx,%rsi
    ed9b:	48 89 c7             	mov    %rax,%rdi
    ed9e:	e8 9e ba ff ff       	callq  a841 <safe_add_func_int64_t_s_s>
    eda3:	48 8b 05 4e 3e 01 00 	mov    0x13e4e(%rip),%rax        # 22bf8 <g_319>
    edaa:	48 8d 95 88 f1 ff ff 	lea    -0xe78(%rbp),%rdx
    edb1:	48 89 10             	mov    %rdx,(%rax)
    edb4:	b8 a1 88 ff ff       	mov    $0xffff88a1,%eax
    edb9:	0f bf d8             	movswl %ax,%ebx
    edbc:	8b 85 b4 f1 ff ff    	mov    -0xe4c(%rbp),%eax
    edc2:	4c 63 e0             	movslq %eax,%r12
    edc5:	48 8b 05 34 50 01 00 	mov    0x15034(%rip),%rax        # 23e00 <g_1957>
    edcc:	44 8b 28             	mov    (%rax),%r13d
    edcf:	8b 85 b0 f1 ff ff    	mov    -0xe50(%rbp),%eax
    edd5:	4c 63 f0             	movslq %eax,%r14
    edd8:	48 8b 85 60 f1 ff ff 	mov    -0xea0(%rbp),%rax
    eddf:	0f b6 00             	movzbl (%rax),%eax
    ede2:	0f b6 d0             	movzbl %al,%edx
    ede5:	48 8b 05 14 3e 01 00 	mov    0x13e14(%rip),%rax        # 22c00 <g_376>
    edec:	8b 00                	mov    (%rax),%eax
    edee:	39 85 b8 f1 ff ff    	cmp    %eax,-0xe48(%rbp)
    edf4:	0f 9f c0             	setg   %al
    edf7:	0f b6 c0             	movzbl %al,%eax
    edfa:	39 85 b0 f1 ff ff    	cmp    %eax,-0xe50(%rbp)
    ee00:	48 8b 85 d8 f2 ff ff 	mov    -0xd28(%rbp),%rax
    ee07:	48 3b 85 30 f2 ff ff 	cmp    -0xdd0(%rbp),%rax
    ee0e:	0f 94 c0             	sete   %al
    ee11:	0f b6 c0             	movzbl %al,%eax
    ee14:	89 d6                	mov    %edx,%esi
    ee16:	89 c7                	mov    %eax,%edi
    ee18:	e8 be bd ff ff       	callq  abdb <safe_div_func_uint8_t_u_u>
    ee1d:	0f b6 d0             	movzbl %al,%edx
    ee20:	48 8b 85 60 f1 ff ff 	mov    -0xea0(%rbp),%rax
    ee27:	0f b6 00             	movzbl (%rax),%eax
    ee2a:	0f be c0             	movsbl %al,%eax
    ee2d:	89 d6                	mov    %edx,%esi
    ee2f:	89 c7                	mov    %eax,%edi
    ee31:	e8 b8 b4 ff ff       	callq  a2ee <safe_lshift_func_int8_t_s_u>
    ee36:	84 c0                	test   %al,%al
    ee38:	75 07                	jne    ee41 <func_29+0x11b5>
    ee3a:	80 bd 75 f1 ff ff 00 	cmpb   $0x0,-0xe8b(%rbp)
    ee41:	4c 89 f6             	mov    %r14,%rsi
    ee44:	bf 01 00 00 00       	mov    $0x1,%edi
    ee49:	e8 66 bb ff ff       	callq  a9b4 <safe_mod_func_int64_t_s_s>
    ee4e:	48 0f be 95 6c f1 ff 	movsbq -0xe94(%rbp),%rdx
    ee55:	ff 
    ee56:	48 39 d0             	cmp    %rdx,%rax
    ee59:	0f 9d c0             	setge  %al
    ee5c:	0f b6 c0             	movzbl %al,%eax
    ee5f:	44 89 ee             	mov    %r13d,%esi
    ee62:	89 c7                	mov    %eax,%edi
    ee64:	e8 bc c0 ff ff       	callq  af25 <safe_div_func_uint32_t_u_u>
    ee69:	89 c0                	mov    %eax,%eax
    ee6b:	4c 89 e6             	mov    %r12,%rsi
    ee6e:	48 89 c7             	mov    %rax,%rdi
    ee71:	e8 cb b9 ff ff       	callq  a841 <safe_add_func_int64_t_s_s>
    ee76:	48 8b 85 c8 f2 ff ff 	mov    -0xd38(%rbp),%rax
    ee7d:	48 8b 00             	mov    (%rax),%rax
    ee80:	48 8b 95 88 f2 ff ff 	mov    -0xd78(%rbp),%rdx
    ee87:	48 89 10             	mov    %rdx,(%rax)
    ee8a:	48 8b 00             	mov    (%rax),%rax
    ee8d:	48 39 85 b0 f2 ff ff 	cmp    %rax,-0xd50(%rbp)
    ee94:	89 de                	mov    %ebx,%esi
    ee96:	bf 01 00 00 00       	mov    $0x1,%edi
    ee9b:	e8 8a b6 ff ff       	callq  a52a <safe_rshift_func_int16_t_s_s>
    eea0:	89 c2                	mov    %eax,%edx
    eea2:	48 8d 05 bf 4f 01 00 	lea    0x14fbf(%rip),%rax        # 23e68 <g_2350>
    eea9:	48 8b 00             	mov    (%rax),%rax
    eeac:	48 0f bf d2          	movswq %dx,%rdx
    eeb0:	48 89 10             	mov    %rdx,(%rax)
    eeb3:	48 8b 00             	mov    (%rax),%rax
    eeb6:	48 be ea 0b 86 d2 c2 	movabs $0x1191b3c2d2860bea,%rsi
    eebd:	b3 91 11 
    eec0:	48 89 c7             	mov    %rax,%rdi
    eec3:	e8 79 b9 ff ff       	callq  a841 <safe_add_func_int64_t_s_s>
    eec8:	89 c2                	mov    %eax,%edx
    eeca:	48 8b 85 50 f2 ff ff 	mov    -0xdb0(%rbp),%rax
    eed1:	66 89 10             	mov    %dx,(%rax)
    eed4:	48 8b 85 50 f2 ff ff 	mov    -0xdb0(%rbp),%rax
    eedb:	0f b7 00             	movzwl (%rax),%eax
    eede:	0f b7 d0             	movzwl %ax,%edx
    eee1:	48 8b 85 58 f1 ff ff 	mov    -0xea8(%rbp),%rax
    eee8:	48 39 c2             	cmp    %rax,%rdx
    eeeb:	0f 92 c0             	setb   %al
    eeee:	0f b6 d8             	movzbl %al,%ebx
    eef1:	66 0f be 85 6c f1 ff 	movsbw -0xe94(%rbp),%ax
    eef8:	ff 
    eef9:	0f b7 c0             	movzwl %ax,%eax
    eefc:	be 09 00 00 00       	mov    $0x9,%esi
    ef01:	89 c7                	mov    %eax,%edi
    ef03:	e8 72 bf ff ff       	callq  ae7a <safe_rshift_func_uint16_t_u_u>
    ef08:	8b 95 70 f4 ff ff    	mov    -0xb90(%rbp),%edx
    ef0e:	0f b7 c0             	movzwl %ax,%eax
    ef11:	31 d0                	xor    %edx,%eax
    ef13:	89 85 70 f4 ff ff    	mov    %eax,-0xb90(%rbp)
    ef19:	8b 95 70 f4 ff ff    	mov    -0xb90(%rbp),%edx
    ef1f:	0f b6 85 68 f1 ff ff 	movzbl -0xe98(%rbp),%eax
    ef26:	39 c2                	cmp    %eax,%edx
    ef28:	0f 9f c0             	setg   %al
    ef2b:	0f b6 c0             	movzbl %al,%eax
    ef2e:	89 85 88 f1 ff ff    	mov    %eax,-0xe78(%rbp)
    ef34:	8b 85 88 f1 ff ff    	mov    -0xe78(%rbp),%eax
    ef3a:	0f be c0             	movsbl %al,%eax
    ef3d:	89 de                	mov    %ebx,%esi
    ef3f:	89 c7                	mov    %eax,%edi
    ef41:	e8 26 b4 ff ff       	callq  a36c <safe_rshift_func_int8_t_s_u>
    ef46:	48 8b 85 98 f2 ff ff 	mov    -0xd68(%rbp),%rax
    ef4d:	c7 00 fb ff ff ff    	movl   $0xfffffffb,(%rax)
    ef53:	66 c7 05 ec 22 01 00 	movw   $0x0,0x122ec(%rip)        # 21248 <g_115>
    ef5a:	00 00 
    ef5c:	90                   	nop
    ef5d:	0f b7 05 e4 22 01 00 	movzwl 0x122e4(%rip),%eax        # 21248 <g_115>
    ef64:	66 83 f8 05          	cmp    $0x5,%ax
    ef68:	0f 8f a6 00 00 00    	jg     f014 <func_29+0x1388>
    ef6e:	0f b7 05 d3 22 01 00 	movzwl 0x122d3(%rip),%eax        # 21248 <g_115>
    ef75:	98                   	cwtl   
    ef76:	48 98                	cltq   
    ef78:	48 8d 14 85 00 00 00 	lea    0x0(,%rax,4),%rdx
    ef7f:	00 
    ef80:	48 8d 05 b9 20 01 00 	lea    0x120b9(%rip),%rax        # 21040 <g_62>
    ef87:	8b 04 02             	mov    (%rdx,%rax,1),%eax
    ef8a:	e9 4a 10 00 00       	jmpq   ffd9 <func_29+0x234d>
    ef8f:	48 8d 05 b6 20 01 00 	lea    0x120b6(%rip),%rax        # 2104c <g_62+0xc>
    ef96:	48 89 85 b8 f2 ff ff 	mov    %rax,-0xd48(%rbp)
    ef9d:	48 c7 85 90 f4 ff ff 	movq   $0x0,-0xb70(%rbp)
    efa4:	00 00 00 00 
    efa8:	48 c7 85 98 f4 ff ff 	movq   $0x0,-0xb68(%rbp)
    efaf:	00 00 00 00 
    efb3:	48 c7 85 a0 f4 ff ff 	movq   $0x0,-0xb60(%rbp)
    efba:	00 00 00 00 
    efbe:	48 c7 85 a8 f4 ff ff 	movq   $0x0,-0xb58(%rbp)
    efc5:	00 00 00 00 
    efc9:	48 c7 85 b0 f4 ff ff 	movq   $0x0,-0xb50(%rbp)
    efd0:	00 00 00 00 
    efd4:	48 c7 85 b8 f4 ff ff 	movq   $0x0,-0xb48(%rbp)
    efdb:	00 00 00 00 
    efdf:	48 c7 85 c0 f4 ff ff 	movq   $0x0,-0xb40(%rbp)
    efe6:	00 00 00 00 
    efea:	48 c7 85 c8 f4 ff ff 	movq   $0x0,-0xb38(%rbp)
    eff1:	00 00 00 00 
    eff5:	48 8b 85 58 f1 ff ff 	mov    -0xea8(%rbp),%rax
    effc:	48 85 c0             	test   %rax,%rax
    efff:	0f 85 81 00 00 00    	jne    f086 <func_29+0x13fa>
    f005:	8b 05 b9 26 01 00    	mov    0x126b9(%rip),%eax        # 216c4 <g_2519>
    f00b:	83 e8 01             	sub    $0x1,%eax
    f00e:	89 05 b0 26 01 00    	mov    %eax,0x126b0(%rip)        # 216c4 <g_2519>
    f014:	c7 85 80 f1 ff ff 17 	movl   $0x17,-0xe80(%rbp)
    f01b:	00 00 00 
    f01e:	90                   	nop
    f01f:	8b 85 80 f1 ff ff    	mov    -0xe80(%rbp),%eax
    f025:	83 f8 fc             	cmp    $0xfffffffc,%eax
    f028:	7d 1a                	jge    f044 <func_29+0x13b8>
    f02a:	48 8b 05 d7 3b 01 00 	mov    0x13bd7(%rip),%rax        # 22c08 <g_382>
    f031:	48 c7 00 00 00 00 00 	movq   $0x0,(%rax)
    f038:	0f be 85 6c f1 ff ff 	movsbl -0xe94(%rbp),%eax
    f03f:	e9 95 0f 00 00       	jmpq   ffd9 <func_29+0x234d>
    f044:	c7 85 88 f1 ff ff fd 	movl   $0xfffffffd,-0xe78(%rbp)
    f04b:	ff ff ff 
    f04e:	90                   	nop
    f04f:	8b 85 88 f1 ff ff    	mov    -0xe78(%rbp),%eax
    f055:	83 f8 fb             	cmp    $0xfffffffb,%eax
    f058:	7c 0c                	jl     f066 <func_29+0x13da>
    f05a:	0f b6 85 68 f1 ff ff 	movzbl -0xe98(%rbp),%eax
    f061:	e9 73 0f 00 00       	jmpq   ffd9 <func_29+0x234d>
    f066:	8b 05 44 24 01 00    	mov    0x12444(%rip),%eax        # 214b0 <g_627>
    f06c:	83 e8 01             	sub    $0x1,%eax
    f06f:	89 05 3b 24 01 00    	mov    %eax,0x1243b(%rip)        # 214b0 <g_627>
    f075:	8b 05 35 24 01 00    	mov    0x12435(%rip),%eax        # 214b0 <g_627>
    f07b:	83 f8 fd             	cmp    $0xfffffffd,%eax
    f07e:	0f 8c 56 f6 ff ff    	jl     e6da <func_29+0xa4e>
    f084:	eb 01                	jmp    f087 <func_29+0x13fb>
    f086:	90                   	nop
    f087:	c6 05 32 26 01 00 ed 	movb   $0xed,0x12632(%rip)        # 216c0 <g_1896>
    f08e:	90                   	nop
    f08f:	0f b6 05 2a 26 01 00 	movzbl 0x1262a(%rip),%eax        # 216c0 <g_1896>
    f096:	3c 13                	cmp    $0x13,%al
    f098:	0f 85 80 00 00 00    	jne    f11e <func_29+0x1492>
    f09e:	48 8d 05 0b 24 01 00 	lea    0x1240b(%rip),%rax        # 214b0 <g_627>
    f0a5:	48 89 85 e0 f1 ff ff 	mov    %rax,-0xe20(%rbp)
    f0ac:	48 c7 85 e0 f2 ff ff 	movq   $0x0,-0xd20(%rbp)
    f0b3:	00 00 00 00 
    f0b7:	c7 85 94 f1 ff ff 00 	movl   $0x0,-0xe6c(%rbp)
    f0be:	00 00 00 
    f0c1:	eb 1e                	jmp    f0e1 <func_29+0x1455>
    f0c3:	8b 85 94 f1 ff ff    	mov    -0xe6c(%rbp),%eax
    f0c9:	48 98                	cltq   
    f0cb:	48 8d 95 e0 f1 ff ff 	lea    -0xe20(%rbp),%rdx
    f0d2:	48 89 94 c5 60 f6 ff 	mov    %rdx,-0x9a0(%rbp,%rax,8)
    f0d9:	ff 
    f0da:	83 85 94 f1 ff ff 01 	addl   $0x1,-0xe6c(%rbp)
    f0e1:	83 bd 94 f1 ff ff 07 	cmpl   $0x7,-0xe6c(%rbp)
    f0e8:	7e d9                	jle    f0c3 <func_29+0x1437>
    f0ea:	48 8b 05 17 3b 01 00 	mov    0x13b17(%rip),%rax        # 22c08 <g_382>
    f0f1:	48 8b 95 e0 f1 ff ff 	mov    -0xe20(%rbp),%rdx
    f0f8:	48 89 10             	mov    %rdx,(%rax)
    f0fb:	48 8b 00             	mov    (%rax),%rax
    f0fe:	48 89 85 68 f2 ff ff 	mov    %rax,-0xd98(%rbp)
    f105:	48 8b 85 68 f2 ff ff 	mov    -0xd98(%rbp),%rax
    f10c:	48 89 85 08 f2 ff ff 	mov    %rax,-0xdf8(%rbp)
    f113:	8b 85 b4 f1 ff ff    	mov    -0xe4c(%rbp),%eax
    f119:	e9 bb 0e 00 00       	jmpq   ffd9 <func_29+0x234d>
    f11e:	8b 85 8c f1 ff ff    	mov    -0xe74(%rbp),%eax
    f124:	e9 b0 0e 00 00       	jmpq   ffd9 <func_29+0x234d>
    f129:	48 8d 85 7c f1 ff ff 	lea    -0xe84(%rbp),%rax
    f130:	48 89 85 e8 f1 ff ff 	mov    %rax,-0xe18(%rbp)
    f137:	c7 85 e0 f1 ff ff 8b 	movl   $0x88717d8b,-0xe20(%rbp)
    f13e:	7d 71 88 
    f141:	48 8d 05 c4 21 01 00 	lea    0x121c4(%rip),%rax        # 2130c <g_119+0xac>
    f148:	48 89 85 f0 f1 ff ff 	mov    %rax,-0xe10(%rbp)
    f14f:	48 c7 85 f8 f1 ff ff 	movq   $0x0,-0xe08(%rbp)
    f156:	00 00 00 00 
    f15a:	48 8d 05 ab 21 01 00 	lea    0x121ab(%rip),%rax        # 2130c <g_119+0xac>
    f161:	48 89 85 00 f2 ff ff 	mov    %rax,-0xe00(%rbp)
    f168:	48 c7 85 c0 f8 ff ff 	movq   $0x0,-0x740(%rbp)
    f16f:	00 00 00 00 
    f173:	48 c7 85 c8 f8 ff ff 	movq   $0x0,-0x738(%rbp)
    f17a:	00 00 00 00 
    f17e:	48 8d 85 f4 f2 ff ff 	lea    -0xd0c(%rbp),%rax
    f185:	48 83 c0 08          	add    $0x8,%rax
    f189:	48 89 85 d0 f8 ff ff 	mov    %rax,-0x730(%rbp)
    f190:	48 8d 85 f4 f2 ff ff 	lea    -0xd0c(%rbp),%rax
    f197:	48 89 85 d8 f8 ff ff 	mov    %rax,-0x728(%rbp)
    f19e:	48 c7 85 e0 f8 ff ff 	movq   $0x0,-0x720(%rbp)
    f1a5:	00 00 00 00 
    f1a9:	48 8d 85 f4 f2 ff ff 	lea    -0xd0c(%rbp),%rax
    f1b0:	48 83 c0 08          	add    $0x8,%rax
    f1b4:	48 89 85 e8 f8 ff ff 	mov    %rax,-0x718(%rbp)
    f1bb:	48 8d 05 92 1e 01 00 	lea    0x11e92(%rip),%rax        # 21054 <g_62+0x14>
    f1c2:	48 89 85 f0 f8 ff ff 	mov    %rax,-0x710(%rbp)
    f1c9:	48 c7 85 f8 f8 ff ff 	movq   $0x0,-0x708(%rbp)
    f1d0:	00 00 00 00 
    f1d4:	48 c7 85 00 f9 ff ff 	movq   $0x0,-0x700(%rbp)
    f1db:	00 00 00 00 
    f1df:	48 8d 85 f4 f2 ff ff 	lea    -0xd0c(%rbp),%rax
    f1e6:	48 89 85 08 f9 ff ff 	mov    %rax,-0x6f8(%rbp)
    f1ed:	48 8d 05 60 1e 01 00 	lea    0x11e60(%rip),%rax        # 21054 <g_62+0x14>
    f1f4:	48 89 85 10 f9 ff ff 	mov    %rax,-0x6f0(%rbp)
    f1fb:	48 8d 85 f4 f2 ff ff 	lea    -0xd0c(%rbp),%rax
    f202:	48 83 c0 08          	add    $0x8,%rax
    f206:	48 89 85 18 f9 ff ff 	mov    %rax,-0x6e8(%rbp)
    f20d:	48 c7 85 20 f9 ff ff 	movq   $0x0,-0x6e0(%rbp)
    f214:	00 00 00 00 
    f218:	48 c7 85 28 f9 ff ff 	movq   $0x0,-0x6d8(%rbp)
    f21f:	00 00 00 00 
    f223:	48 8d 85 f4 f2 ff ff 	lea    -0xd0c(%rbp),%rax
    f22a:	48 83 c0 08          	add    $0x8,%rax
    f22e:	48 89 85 30 f9 ff ff 	mov    %rax,-0x6d0(%rbp)
    f235:	48 8d 05 d0 20 01 00 	lea    0x120d0(%rip),%rax        # 2130c <g_119+0xac>
    f23c:	48 89 85 38 f9 ff ff 	mov    %rax,-0x6c8(%rbp)
    f243:	48 c7 85 40 f9 ff ff 	movq   $0x0,-0x6c0(%rbp)
    f24a:	00 00 00 00 
    f24e:	48 8d 05 ef 1d 01 00 	lea    0x11def(%rip),%rax        # 21044 <g_62+0x4>
    f255:	48 89 85 48 f9 ff ff 	mov    %rax,-0x6b8(%rbp)
    f25c:	48 8d 85 f4 f2 ff ff 	lea    -0xd0c(%rbp),%rax
    f263:	48 89 85 50 f9 ff ff 	mov    %rax,-0x6b0(%rbp)
    f26a:	48 8d 85 7c f1 ff ff 	lea    -0xe84(%rbp),%rax
    f271:	48 89 85 58 f9 ff ff 	mov    %rax,-0x6a8(%rbp)
    f278:	48 8d 85 f4 f2 ff ff 	lea    -0xd0c(%rbp),%rax
    f27f:	48 89 85 60 f9 ff ff 	mov    %rax,-0x6a0(%rbp)
    f286:	48 8d 85 7c f1 ff ff 	lea    -0xe84(%rbp),%rax
    f28d:	48 89 85 68 f9 ff ff 	mov    %rax,-0x698(%rbp)
    f294:	48 8d 85 7c f1 ff ff 	lea    -0xe84(%rbp),%rax
    f29b:	48 89 85 70 f9 ff ff 	mov    %rax,-0x690(%rbp)
    f2a2:	48 8d 85 f4 f2 ff ff 	lea    -0xd0c(%rbp),%rax
    f2a9:	48 89 85 78 f9 ff ff 	mov    %rax,-0x688(%rbp)
    f2b0:	48 c7 85 80 f9 ff ff 	movq   $0x0,-0x680(%rbp)
    f2b7:	00 00 00 00 
    f2bb:	48 8d 85 7c f1 ff ff 	lea    -0xe84(%rbp),%rax
    f2c2:	48 89 85 88 f9 ff ff 	mov    %rax,-0x678(%rbp)
    f2c9:	48 8d 05 3c 20 01 00 	lea    0x1203c(%rip),%rax        # 2130c <g_119+0xac>
    f2d0:	48 89 85 90 f9 ff ff 	mov    %rax,-0x670(%rbp)
    f2d7:	48 8d 85 f4 f2 ff ff 	lea    -0xd0c(%rbp),%rax
    f2de:	48 83 c0 08          	add    $0x8,%rax
    f2e2:	48 89 85 98 f9 ff ff 	mov    %rax,-0x668(%rbp)
    f2e9:	48 c7 85 a0 f9 ff ff 	movq   $0x0,-0x660(%rbp)
    f2f0:	00 00 00 00 
    f2f4:	48 8d 85 f4 f2 ff ff 	lea    -0xd0c(%rbp),%rax
    f2fb:	48 83 c0 08          	add    $0x8,%rax
    f2ff:	48 89 85 a8 f9 ff ff 	mov    %rax,-0x658(%rbp)
    f306:	48 8d 05 33 1d 01 00 	lea    0x11d33(%rip),%rax        # 21040 <g_62>
    f30d:	48 89 85 b0 f9 ff ff 	mov    %rax,-0x650(%rbp)
    f314:	48 8d 05 29 1d 01 00 	lea    0x11d29(%rip),%rax        # 21044 <g_62+0x4>
    f31b:	48 89 85 b8 f9 ff ff 	mov    %rax,-0x648(%rbp)
    f322:	48 8d 85 f4 f2 ff ff 	lea    -0xd0c(%rbp),%rax
    f329:	48 83 c0 08          	add    $0x8,%rax
    f32d:	48 89 85 c0 f9 ff ff 	mov    %rax,-0x640(%rbp)
    f334:	48 c7 85 c8 f9 ff ff 	movq   $0x0,-0x638(%rbp)
    f33b:	00 00 00 00 
    f33f:	48 8d 05 fe 1c 01 00 	lea    0x11cfe(%rip),%rax        # 21044 <g_62+0x4>
    f346:	48 89 85 d0 f9 ff ff 	mov    %rax,-0x630(%rbp)
    f34d:	48 8d 05 f0 1c 01 00 	lea    0x11cf0(%rip),%rax        # 21044 <g_62+0x4>
    f354:	48 89 85 d8 f9 ff ff 	mov    %rax,-0x628(%rbp)
    f35b:	48 8d 05 aa 1f 01 00 	lea    0x11faa(%rip),%rax        # 2130c <g_119+0xac>
    f362:	48 89 85 e0 f9 ff ff 	mov    %rax,-0x620(%rbp)
    f369:	48 c7 85 e8 f9 ff ff 	movq   $0x0,-0x618(%rbp)
    f370:	00 00 00 00 
    f374:	48 8d 05 d9 1c 01 00 	lea    0x11cd9(%rip),%rax        # 21054 <g_62+0x14>
    f37b:	48 89 85 f0 f9 ff ff 	mov    %rax,-0x610(%rbp)
    f382:	48 8d 05 bb 1c 01 00 	lea    0x11cbb(%rip),%rax        # 21044 <g_62+0x4>
    f389:	48 89 85 f8 f9 ff ff 	mov    %rax,-0x608(%rbp)
    f390:	48 8d 85 f4 f2 ff ff 	lea    -0xd0c(%rbp),%rax
    f397:	48 83 c0 08          	add    $0x8,%rax
    f39b:	48 89 85 00 fa ff ff 	mov    %rax,-0x600(%rbp)
    f3a2:	48 c7 85 08 fa ff ff 	movq   $0x0,-0x5f8(%rbp)
    f3a9:	00 00 00 00 
    f3ad:	48 8d 05 90 1c 01 00 	lea    0x11c90(%rip),%rax        # 21044 <g_62+0x4>
    f3b4:	48 89 85 10 fa ff ff 	mov    %rax,-0x5f0(%rbp)
    f3bb:	48 8d 05 92 1c 01 00 	lea    0x11c92(%rip),%rax        # 21054 <g_62+0x14>
    f3c2:	48 89 85 18 fa ff ff 	mov    %rax,-0x5e8(%rbp)
    f3c9:	48 c7 85 20 fa ff ff 	movq   $0x0,-0x5e0(%rbp)
    f3d0:	00 00 00 00 
    f3d4:	48 8d 85 f4 f2 ff ff 	lea    -0xd0c(%rbp),%rax
    f3db:	48 89 85 28 fa ff ff 	mov    %rax,-0x5d8(%rbp)
    f3e2:	48 8d 05 df 1f 01 00 	lea    0x11fdf(%rip),%rax        # 213c8 <g_119+0x168>
    f3e9:	48 89 85 30 fa ff ff 	mov    %rax,-0x5d0(%rbp)
    f3f0:	48 8d 85 f4 f2 ff ff 	lea    -0xd0c(%rbp),%rax
    f3f7:	48 89 85 38 fa ff ff 	mov    %rax,-0x5c8(%rbp)
    f3fe:	48 8d 05 3f 1c 01 00 	lea    0x11c3f(%rip),%rax        # 21044 <g_62+0x4>
    f405:	48 89 85 40 fa ff ff 	mov    %rax,-0x5c0(%rbp)
    f40c:	48 c7 85 48 fa ff ff 	movq   $0x0,-0x5b8(%rbp)
    f413:	00 00 00 00 
    f417:	48 8d 85 f4 f2 ff ff 	lea    -0xd0c(%rbp),%rax
    f41e:	48 83 c0 08          	add    $0x8,%rax
    f422:	48 89 85 50 fa ff ff 	mov    %rax,-0x5b0(%rbp)
    f429:	48 8d 85 f4 f2 ff ff 	lea    -0xd0c(%rbp),%rax
    f430:	48 89 85 58 fa ff ff 	mov    %rax,-0x5a8(%rbp)
    f437:	48 8d 85 7c f1 ff ff 	lea    -0xe84(%rbp),%rax
    f43e:	48 89 85 60 fa ff ff 	mov    %rax,-0x5a0(%rbp)
    f445:	48 c7 85 68 fa ff ff 	movq   $0x0,-0x598(%rbp)
    f44c:	00 00 00 00 
    f450:	48 c7 85 70 fa ff ff 	movq   $0x0,-0x590(%rbp)
    f457:	00 00 00 00 
    f45b:	48 8d 05 de 1b 01 00 	lea    0x11bde(%rip),%rax        # 21040 <g_62>
    f462:	48 89 85 78 fa ff ff 	mov    %rax,-0x588(%rbp)
    f469:	48 8d 85 e0 f1 ff ff 	lea    -0xe20(%rbp),%rax
    f470:	48 89 85 80 fa ff ff 	mov    %rax,-0x580(%rbp)
    f477:	48 8d 05 8e 1e 01 00 	lea    0x11e8e(%rip),%rax        # 2130c <g_119+0xac>
    f47e:	48 89 85 88 fa ff ff 	mov    %rax,-0x578(%rbp)
    f485:	48 8d 05 c8 1b 01 00 	lea    0x11bc8(%rip),%rax        # 21054 <g_62+0x14>
    f48c:	48 89 85 90 fa ff ff 	mov    %rax,-0x570(%rbp)
    f493:	48 8d 05 aa 1b 01 00 	lea    0x11baa(%rip),%rax        # 21044 <g_62+0x4>
    f49a:	48 89 85 98 fa ff ff 	mov    %rax,-0x568(%rbp)
    f4a1:	48 8d 85 e0 f1 ff ff 	lea    -0xe20(%rbp),%rax
    f4a8:	48 89 85 a0 fa ff ff 	mov    %rax,-0x560(%rbp)
    f4af:	48 8d 05 8e 1b 01 00 	lea    0x11b8e(%rip),%rax        # 21044 <g_62+0x4>
    f4b6:	48 89 85 a8 fa ff ff 	mov    %rax,-0x558(%rbp)
    f4bd:	48 c7 85 b0 fa ff ff 	movq   $0x0,-0x550(%rbp)
    f4c4:	00 00 00 00 
    f4c8:	48 8d 05 85 1b 01 00 	lea    0x11b85(%rip),%rax        # 21054 <g_62+0x14>
    f4cf:	48 89 85 b8 fa ff ff 	mov    %rax,-0x548(%rbp)
    f4d6:	48 8d 85 7c f1 ff ff 	lea    -0xe84(%rbp),%rax
    f4dd:	48 89 85 c0 fa ff ff 	mov    %rax,-0x540(%rbp)
    f4e4:	48 8d 05 59 1b 01 00 	lea    0x11b59(%rip),%rax        # 21044 <g_62+0x4>
    f4eb:	48 89 85 c8 fa ff ff 	mov    %rax,-0x538(%rbp)
    f4f2:	48 8d 85 f4 f2 ff ff 	lea    -0xd0c(%rbp),%rax
    f4f9:	48 83 c0 08          	add    $0x8,%rax
    f4fd:	48 89 85 d0 fa ff ff 	mov    %rax,-0x530(%rbp)
    f504:	48 8d 05 39 1b 01 00 	lea    0x11b39(%rip),%rax        # 21044 <g_62+0x4>
    f50b:	48 89 85 d8 fa ff ff 	mov    %rax,-0x528(%rbp)
    f512:	48 8d 05 2b 1b 01 00 	lea    0x11b2b(%rip),%rax        # 21044 <g_62+0x4>
    f519:	48 89 85 e0 fa ff ff 	mov    %rax,-0x520(%rbp)
    f520:	48 c7 85 e8 fa ff ff 	movq   $0x0,-0x518(%rbp)
    f527:	00 00 00 00 
    f52b:	48 8d 05 96 1e 01 00 	lea    0x11e96(%rip),%rax        # 213c8 <g_119+0x168>
    f532:	48 89 85 f0 fa ff ff 	mov    %rax,-0x510(%rbp)
    f539:	48 8d 05 88 1e 01 00 	lea    0x11e88(%rip),%rax        # 213c8 <g_119+0x168>
    f540:	48 89 85 f8 fa ff ff 	mov    %rax,-0x508(%rbp)
    f547:	48 c7 85 00 fb ff ff 	movq   $0x0,-0x500(%rbp)
    f54e:	00 00 00 00 
    f552:	48 c7 85 08 fb ff ff 	movq   $0x0,-0x4f8(%rbp)
    f559:	00 00 00 00 
    f55d:	48 8d 05 e0 1a 01 00 	lea    0x11ae0(%rip),%rax        # 21044 <g_62+0x4>
    f564:	48 89 85 10 fb ff ff 	mov    %rax,-0x4f0(%rbp)
    f56b:	48 8d 85 f4 f2 ff ff 	lea    -0xd0c(%rbp),%rax
    f572:	48 83 c0 08          	add    $0x8,%rax
    f576:	48 89 85 18 fb ff ff 	mov    %rax,-0x4e8(%rbp)
    f57d:	48 8d 85 f4 f2 ff ff 	lea    -0xd0c(%rbp),%rax
    f584:	48 83 c0 08          	add    $0x8,%rax
    f588:	48 89 85 20 fb ff ff 	mov    %rax,-0x4e0(%rbp)
    f58f:	48 8d 85 f4 f2 ff ff 	lea    -0xd0c(%rbp),%rax
    f596:	48 83 c0 04          	add    $0x4,%rax
    f59a:	48 89 85 28 fb ff ff 	mov    %rax,-0x4d8(%rbp)
    f5a1:	48 8d 05 ac 1a 01 00 	lea    0x11aac(%rip),%rax        # 21054 <g_62+0x14>
    f5a8:	48 89 85 30 fb ff ff 	mov    %rax,-0x4d0(%rbp)
    f5af:	48 c7 85 38 fb ff ff 	movq   $0x0,-0x4c8(%rbp)
    f5b6:	00 00 00 00 
    f5ba:	48 8d 05 4b 1d 01 00 	lea    0x11d4b(%rip),%rax        # 2130c <g_119+0xac>
    f5c1:	48 89 85 40 fb ff ff 	mov    %rax,-0x4c0(%rbp)
    f5c8:	48 8d 05 75 1a 01 00 	lea    0x11a75(%rip),%rax        # 21044 <g_62+0x4>
    f5cf:	48 89 85 48 fb ff ff 	mov    %rax,-0x4b8(%rbp)
    f5d6:	48 8d 05 67 1a 01 00 	lea    0x11a67(%rip),%rax        # 21044 <g_62+0x4>
    f5dd:	48 89 85 50 fb ff ff 	mov    %rax,-0x4b0(%rbp)
    f5e4:	48 8d 05 69 1a 01 00 	lea    0x11a69(%rip),%rax        # 21054 <g_62+0x14>
    f5eb:	48 89 85 58 fb ff ff 	mov    %rax,-0x4a8(%rbp)
    f5f2:	48 8d 85 f4 f2 ff ff 	lea    -0xd0c(%rbp),%rax
    f5f9:	48 83 c0 08          	add    $0x8,%rax
    f5fd:	48 89 85 60 fb ff ff 	mov    %rax,-0x4a0(%rbp)
    f604:	48 8d 05 39 1a 01 00 	lea    0x11a39(%rip),%rax        # 21044 <g_62+0x4>
    f60b:	48 89 85 68 fb ff ff 	mov    %rax,-0x498(%rbp)
    f612:	48 8d 05 27 1a 01 00 	lea    0x11a27(%rip),%rax        # 21040 <g_62>
    f619:	48 89 85 70 fb ff ff 	mov    %rax,-0x490(%rbp)
    f620:	48 c7 85 78 fb ff ff 	movq   $0x0,-0x488(%rbp)
    f627:	00 00 00 00 
    f62b:	48 8d 05 12 1a 01 00 	lea    0x11a12(%rip),%rax        # 21044 <g_62+0x4>
    f632:	48 89 85 80 fb ff ff 	mov    %rax,-0x480(%rbp)
    f639:	48 8d 85 f4 f2 ff ff 	lea    -0xd0c(%rbp),%rax
    f640:	48 83 c0 04          	add    $0x4,%rax
    f644:	48 89 85 88 fb ff ff 	mov    %rax,-0x478(%rbp)
    f64b:	48 8d 85 f4 f2 ff ff 	lea    -0xd0c(%rbp),%rax
    f652:	48 89 85 90 fb ff ff 	mov    %rax,-0x470(%rbp)
    f659:	48 8d 85 f4 f2 ff ff 	lea    -0xd0c(%rbp),%rax
    f660:	48 83 c0 08          	add    $0x8,%rax
    f664:	48 89 85 98 fb ff ff 	mov    %rax,-0x468(%rbp)
    f66b:	48 8d 85 7c f1 ff ff 	lea    -0xe84(%rbp),%rax
    f672:	48 89 85 a0 fb ff ff 	mov    %rax,-0x460(%rbp)
    f679:	48 c7 85 a8 fb ff ff 	movq   $0x0,-0x458(%rbp)
    f680:	00 00 00 00 
    f684:	48 8d 85 f4 f2 ff ff 	lea    -0xd0c(%rbp),%rax
    f68b:	48 89 85 b0 fb ff ff 	mov    %rax,-0x450(%rbp)
    f692:	48 8d 05 2f 1d 01 00 	lea    0x11d2f(%rip),%rax        # 213c8 <g_119+0x168>
    f699:	48 89 85 b8 fb ff ff 	mov    %rax,-0x448(%rbp)
    f6a0:	48 8d 05 ad 19 01 00 	lea    0x119ad(%rip),%rax        # 21054 <g_62+0x14>
    f6a7:	48 89 85 c0 fb ff ff 	mov    %rax,-0x440(%rbp)
    f6ae:	48 c7 85 c8 fb ff ff 	movq   $0x0,-0x438(%rbp)
    f6b5:	00 00 00 00 
    f6b9:	48 8d 05 94 19 01 00 	lea    0x11994(%rip),%rax        # 21054 <g_62+0x14>
    f6c0:	48 89 85 d0 fb ff ff 	mov    %rax,-0x430(%rbp)
    f6c7:	48 8d 05 76 19 01 00 	lea    0x11976(%rip),%rax        # 21044 <g_62+0x4>
    f6ce:	48 89 85 d8 fb ff ff 	mov    %rax,-0x428(%rbp)
    f6d5:	48 8d 05 30 1c 01 00 	lea    0x11c30(%rip),%rax        # 2130c <g_119+0xac>
    f6dc:	48 89 85 e0 fb ff ff 	mov    %rax,-0x420(%rbp)
    f6e3:	48 8d 05 5a 19 01 00 	lea    0x1195a(%rip),%rax        # 21044 <g_62+0x4>
    f6ea:	48 89 85 e8 fb ff ff 	mov    %rax,-0x418(%rbp)
    f6f1:	48 8d 05 4c 19 01 00 	lea    0x1194c(%rip),%rax        # 21044 <g_62+0x4>
    f6f8:	48 89 85 f0 fb ff ff 	mov    %rax,-0x410(%rbp)
    f6ff:	48 8d 05 4e 19 01 00 	lea    0x1194e(%rip),%rax        # 21054 <g_62+0x14>
    f706:	48 89 85 f8 fb ff ff 	mov    %rax,-0x408(%rbp)
    f70d:	48 c7 85 00 fc ff ff 	movq   $0x0,-0x400(%rbp)
    f714:	00 00 00 00 
    f718:	48 8d 05 25 19 01 00 	lea    0x11925(%rip),%rax        # 21044 <g_62+0x4>
    f71f:	48 89 85 08 fc ff ff 	mov    %rax,-0x3f8(%rbp)
    f726:	48 8d 05 17 19 01 00 	lea    0x11917(%rip),%rax        # 21044 <g_62+0x4>
    f72d:	48 89 85 10 fc ff ff 	mov    %rax,-0x3f0(%rbp)
    f734:	48 8d 05 09 19 01 00 	lea    0x11909(%rip),%rax        # 21044 <g_62+0x4>
    f73b:	48 89 85 18 fc ff ff 	mov    %rax,-0x3e8(%rbp)
    f742:	48 8d 05 fb 18 01 00 	lea    0x118fb(%rip),%rax        # 21044 <g_62+0x4>
    f749:	48 89 85 20 fc ff ff 	mov    %rax,-0x3e0(%rbp)
    f750:	48 8d 05 b5 1b 01 00 	lea    0x11bb5(%rip),%rax        # 2130c <g_119+0xac>
    f757:	48 89 85 28 fc ff ff 	mov    %rax,-0x3d8(%rbp)
    f75e:	48 8d 05 df 18 01 00 	lea    0x118df(%rip),%rax        # 21044 <g_62+0x4>
    f765:	48 89 85 30 fc ff ff 	mov    %rax,-0x3d0(%rbp)
    f76c:	48 8d 05 cd 18 01 00 	lea    0x118cd(%rip),%rax        # 21040 <g_62>
    f773:	48 89 85 38 fc ff ff 	mov    %rax,-0x3c8(%rbp)
    f77a:	48 c7 85 40 fc ff ff 	movq   $0x0,-0x3c0(%rbp)
    f781:	00 00 00 00 
    f785:	48 c7 85 48 fc ff ff 	movq   $0x0,-0x3b8(%rbp)
    f78c:	00 00 00 00 
    f790:	48 8d 05 ad 18 01 00 	lea    0x118ad(%rip),%rax        # 21044 <g_62+0x4>
    f797:	48 89 85 50 fc ff ff 	mov    %rax,-0x3b0(%rbp)
    f79e:	48 8d 85 f4 f2 ff ff 	lea    -0xd0c(%rbp),%rax
    f7a5:	48 89 85 58 fc ff ff 	mov    %rax,-0x3a8(%rbp)
    f7ac:	48 8d 05 59 1b 01 00 	lea    0x11b59(%rip),%rax        # 2130c <g_119+0xac>
    f7b3:	48 89 85 60 fc ff ff 	mov    %rax,-0x3a0(%rbp)
    f7ba:	48 c7 85 68 fc ff ff 	movq   $0x0,-0x398(%rbp)
    f7c1:	00 00 00 00 
    f7c5:	48 8d 05 88 18 01 00 	lea    0x11888(%rip),%rax        # 21054 <g_62+0x14>
    f7cc:	48 89 85 70 fc ff ff 	mov    %rax,-0x390(%rbp)
    f7d3:	48 8d 85 f4 f2 ff ff 	lea    -0xd0c(%rbp),%rax
    f7da:	48 89 85 78 fc ff ff 	mov    %rax,-0x388(%rbp)
    f7e1:	48 8d 05 6c 18 01 00 	lea    0x1186c(%rip),%rax        # 21054 <g_62+0x14>
    f7e8:	48 89 85 80 fc ff ff 	mov    %rax,-0x380(%rbp)
    f7ef:	48 8d 85 f4 f2 ff ff 	lea    -0xd0c(%rbp),%rax
    f7f6:	48 89 85 88 fc ff ff 	mov    %rax,-0x378(%rbp)
    f7fd:	48 8d 85 f4 f2 ff ff 	lea    -0xd0c(%rbp),%rax
    f804:	48 89 85 90 fc ff ff 	mov    %rax,-0x370(%rbp)
    f80b:	48 8d 05 42 18 01 00 	lea    0x11842(%rip),%rax        # 21054 <g_62+0x14>
    f812:	48 89 85 98 fc ff ff 	mov    %rax,-0x368(%rbp)
    f819:	48 8d 85 7c f1 ff ff 	lea    -0xe84(%rbp),%rax
    f820:	48 89 85 a0 fc ff ff 	mov    %rax,-0x360(%rbp)
    f827:	48 c7 85 a8 fc ff ff 	movq   $0x0,-0x358(%rbp)
    f82e:	00 00 00 00 
    f832:	48 8d 85 f4 f2 ff ff 	lea    -0xd0c(%rbp),%rax
    f839:	48 89 85 b0 fc ff ff 	mov    %rax,-0x350(%rbp)
    f840:	48 8d 05 fd 17 01 00 	lea    0x117fd(%rip),%rax        # 21044 <g_62+0x4>
    f847:	48 89 85 b8 fc ff ff 	mov    %rax,-0x348(%rbp)
    f84e:	48 8d 05 ef 17 01 00 	lea    0x117ef(%rip),%rax        # 21044 <g_62+0x4>
    f855:	48 89 85 c0 fc ff ff 	mov    %rax,-0x340(%rbp)
    f85c:	48 c7 85 c8 fc ff ff 	movq   $0x0,-0x338(%rbp)
    f863:	00 00 00 00 
    f867:	48 8d 05 d2 17 01 00 	lea    0x117d2(%rip),%rax        # 21040 <g_62>
    f86e:	48 89 85 d0 fc ff ff 	mov    %rax,-0x330(%rbp)
    f875:	48 8d 05 c8 17 01 00 	lea    0x117c8(%rip),%rax        # 21044 <g_62+0x4>
    f87c:	48 89 85 d8 fc ff ff 	mov    %rax,-0x328(%rbp)
    f883:	48 8d 85 f4 f2 ff ff 	lea    -0xd0c(%rbp),%rax
    f88a:	48 83 c0 08          	add    $0x8,%rax
    f88e:	48 89 85 e0 fc ff ff 	mov    %rax,-0x320(%rbp)
    f895:	48 c7 85 e8 fc ff ff 	movq   $0x0,-0x318(%rbp)
    f89c:	00 00 00 00 
    f8a0:	48 8d 05 9d 17 01 00 	lea    0x1179d(%rip),%rax        # 21044 <g_62+0x4>
    f8a7:	48 89 85 f0 fc ff ff 	mov    %rax,-0x310(%rbp)
    f8ae:	48 8d 05 8f 17 01 00 	lea    0x1178f(%rip),%rax        # 21044 <g_62+0x4>
    f8b5:	48 89 85 f8 fc ff ff 	mov    %rax,-0x308(%rbp)
    f8bc:	48 8d 05 49 1a 01 00 	lea    0x11a49(%rip),%rax        # 2130c <g_119+0xac>
    f8c3:	48 89 85 00 fd ff ff 	mov    %rax,-0x300(%rbp)
    f8ca:	48 c7 85 08 fd ff ff 	movq   $0x0,-0x2f8(%rbp)
    f8d1:	00 00 00 00 
    f8d5:	48 8d 05 78 17 01 00 	lea    0x11778(%rip),%rax        # 21054 <g_62+0x14>
    f8dc:	48 89 85 10 fd ff ff 	mov    %rax,-0x2f0(%rbp)
    f8e3:	48 8d 05 5a 17 01 00 	lea    0x1175a(%rip),%rax        # 21044 <g_62+0x4>
    f8ea:	48 89 85 18 fd ff ff 	mov    %rax,-0x2e8(%rbp)
    f8f1:	48 8d 85 f4 f2 ff ff 	lea    -0xd0c(%rbp),%rax
    f8f8:	48 83 c0 08          	add    $0x8,%rax
    f8fc:	48 89 85 20 fd ff ff 	mov    %rax,-0x2e0(%rbp)
    f903:	48 c7 85 28 fd ff ff 	movq   $0x0,-0x2d8(%rbp)
    f90a:	00 00 00 00 
    f90e:	48 8d 05 2f 17 01 00 	lea    0x1172f(%rip),%rax        # 21044 <g_62+0x4>
    f915:	48 89 85 30 fd ff ff 	mov    %rax,-0x2d0(%rbp)
    f91c:	48 8d 05 31 17 01 00 	lea    0x11731(%rip),%rax        # 21054 <g_62+0x14>
    f923:	48 89 85 38 fd ff ff 	mov    %rax,-0x2c8(%rbp)
    f92a:	48 c7 85 40 fd ff ff 	movq   $0x0,-0x2c0(%rbp)
    f931:	00 00 00 00 
    f935:	48 8d 85 f4 f2 ff ff 	lea    -0xd0c(%rbp),%rax
    f93c:	48 89 85 48 fd ff ff 	mov    %rax,-0x2b8(%rbp)
    f943:	48 8d 05 7e 1a 01 00 	lea    0x11a7e(%rip),%rax        # 213c8 <g_119+0x168>
    f94a:	48 89 85 50 fd ff ff 	mov    %rax,-0x2b0(%rbp)
    f951:	48 8d 85 f4 f2 ff ff 	lea    -0xd0c(%rbp),%rax
    f958:	48 89 85 58 fd ff ff 	mov    %rax,-0x2a8(%rbp)
    f95f:	48 8d 05 de 16 01 00 	lea    0x116de(%rip),%rax        # 21044 <g_62+0x4>
    f966:	48 89 85 60 fd ff ff 	mov    %rax,-0x2a0(%rbp)
    f96d:	48 c7 85 68 fd ff ff 	movq   $0x0,-0x298(%rbp)
    f974:	00 00 00 00 
    f978:	48 8d 85 f4 f2 ff ff 	lea    -0xd0c(%rbp),%rax
    f97f:	48 83 c0 08          	add    $0x8,%rax
    f983:	48 89 85 70 fd ff ff 	mov    %rax,-0x290(%rbp)
    f98a:	48 8d 85 f4 f2 ff ff 	lea    -0xd0c(%rbp),%rax
    f991:	48 89 85 78 fd ff ff 	mov    %rax,-0x288(%rbp)
    f998:	48 8d 85 7c f1 ff ff 	lea    -0xe84(%rbp),%rax
    f99f:	48 89 85 80 fd ff ff 	mov    %rax,-0x280(%rbp)
    f9a6:	48 c7 85 88 fd ff ff 	movq   $0x0,-0x278(%rbp)
    f9ad:	00 00 00 00 
    f9b1:	48 c7 85 90 fd ff ff 	movq   $0x0,-0x270(%rbp)
    f9b8:	00 00 00 00 
    f9bc:	48 8d 05 7d 16 01 00 	lea    0x1167d(%rip),%rax        # 21040 <g_62>
    f9c3:	48 89 85 98 fd ff ff 	mov    %rax,-0x268(%rbp)
    f9ca:	48 8d 85 e0 f1 ff ff 	lea    -0xe20(%rbp),%rax
    f9d1:	48 89 85 a0 fd ff ff 	mov    %rax,-0x260(%rbp)
    f9d8:	48 8d 05 2d 19 01 00 	lea    0x1192d(%rip),%rax        # 2130c <g_119+0xac>
    f9df:	48 89 85 a8 fd ff ff 	mov    %rax,-0x258(%rbp)
    f9e6:	48 8d 05 67 16 01 00 	lea    0x11667(%rip),%rax        # 21054 <g_62+0x14>
    f9ed:	48 89 85 b0 fd ff ff 	mov    %rax,-0x250(%rbp)
    f9f4:	48 8d 05 49 16 01 00 	lea    0x11649(%rip),%rax        # 21044 <g_62+0x4>
    f9fb:	48 89 85 b8 fd ff ff 	mov    %rax,-0x248(%rbp)
    fa02:	48 8d 85 e0 f1 ff ff 	lea    -0xe20(%rbp),%rax
    fa09:	48 89 85 c0 fd ff ff 	mov    %rax,-0x240(%rbp)
    fa10:	48 8d 05 2d 16 01 00 	lea    0x1162d(%rip),%rax        # 21044 <g_62+0x4>
    fa17:	48 89 85 c8 fd ff ff 	mov    %rax,-0x238(%rbp)
    fa1e:	48 c7 85 d0 fd ff ff 	movq   $0x0,-0x230(%rbp)
    fa25:	00 00 00 00 
    fa29:	48 8d 05 24 16 01 00 	lea    0x11624(%rip),%rax        # 21054 <g_62+0x14>
    fa30:	48 89 85 d8 fd ff ff 	mov    %rax,-0x228(%rbp)
    fa37:	48 8d 85 7c f1 ff ff 	lea    -0xe84(%rbp),%rax
    fa3e:	48 89 85 e0 fd ff ff 	mov    %rax,-0x220(%rbp)
    fa45:	48 8d 05 f8 15 01 00 	lea    0x115f8(%rip),%rax        # 21044 <g_62+0x4>
    fa4c:	48 89 85 e8 fd ff ff 	mov    %rax,-0x218(%rbp)
    fa53:	48 8d 85 f4 f2 ff ff 	lea    -0xd0c(%rbp),%rax
    fa5a:	48 83 c0 08          	add    $0x8,%rax
    fa5e:	48 89 85 f0 fd ff ff 	mov    %rax,-0x210(%rbp)
    fa65:	48 8d 05 d8 15 01 00 	lea    0x115d8(%rip),%rax        # 21044 <g_62+0x4>
    fa6c:	48 89 85 f8 fd ff ff 	mov    %rax,-0x208(%rbp)
    fa73:	48 8d 05 ca 15 01 00 	lea    0x115ca(%rip),%rax        # 21044 <g_62+0x4>
    fa7a:	48 89 85 00 fe ff ff 	mov    %rax,-0x200(%rbp)
    fa81:	48 c7 85 08 fe ff ff 	movq   $0x0,-0x1f8(%rbp)
    fa88:	00 00 00 00 
    fa8c:	48 8d 05 35 19 01 00 	lea    0x11935(%rip),%rax        # 213c8 <g_119+0x168>
    fa93:	48 89 85 10 fe ff ff 	mov    %rax,-0x1f0(%rbp)
    fa9a:	48 8d 05 27 19 01 00 	lea    0x11927(%rip),%rax        # 213c8 <g_119+0x168>
    faa1:	48 89 85 18 fe ff ff 	mov    %rax,-0x1e8(%rbp)
    faa8:	48 c7 85 20 fe ff ff 	movq   $0x0,-0x1e0(%rbp)
    faaf:	00 00 00 00 
    fab3:	48 c7 85 28 fe ff ff 	movq   $0x0,-0x1d8(%rbp)
    faba:	00 00 00 00 
    fabe:	48 8d 05 7f 15 01 00 	lea    0x1157f(%rip),%rax        # 21044 <g_62+0x4>
    fac5:	48 89 85 30 fe ff ff 	mov    %rax,-0x1d0(%rbp)
    facc:	48 8d 85 f4 f2 ff ff 	lea    -0xd0c(%rbp),%rax
    fad3:	48 83 c0 08          	add    $0x8,%rax
    fad7:	48 89 85 38 fe ff ff 	mov    %rax,-0x1c8(%rbp)
    fade:	48 8d 85 f4 f2 ff ff 	lea    -0xd0c(%rbp),%rax
    fae5:	48 83 c0 08          	add    $0x8,%rax
    fae9:	48 89 85 40 fe ff ff 	mov    %rax,-0x1c0(%rbp)
    faf0:	48 8d 85 f4 f2 ff ff 	lea    -0xd0c(%rbp),%rax
    faf7:	48 83 c0 04          	add    $0x4,%rax
    fafb:	48 89 85 48 fe ff ff 	mov    %rax,-0x1b8(%rbp)
    fb02:	48 8d 05 4b 15 01 00 	lea    0x1154b(%rip),%rax        # 21054 <g_62+0x14>
    fb09:	48 89 85 50 fe ff ff 	mov    %rax,-0x1b0(%rbp)
    fb10:	48 c7 85 58 fe ff ff 	movq   $0x0,-0x1a8(%rbp)
    fb17:	00 00 00 00 
    fb1b:	48 8d 05 ea 17 01 00 	lea    0x117ea(%rip),%rax        # 2130c <g_119+0xac>
    fb22:	48 89 85 60 fe ff ff 	mov    %rax,-0x1a0(%rbp)
    fb29:	48 8d 05 14 15 01 00 	lea    0x11514(%rip),%rax        # 21044 <g_62+0x4>
    fb30:	48 89 85 68 fe ff ff 	mov    %rax,-0x198(%rbp)
    fb37:	48 8d 05 06 15 01 00 	lea    0x11506(%rip),%rax        # 21044 <g_62+0x4>
    fb3e:	48 89 85 70 fe ff ff 	mov    %rax,-0x190(%rbp)
    fb45:	48 8d 05 08 15 01 00 	lea    0x11508(%rip),%rax        # 21054 <g_62+0x14>
    fb4c:	48 89 85 78 fe ff ff 	mov    %rax,-0x188(%rbp)
    fb53:	48 8d 85 f4 f2 ff ff 	lea    -0xd0c(%rbp),%rax
    fb5a:	48 83 c0 08          	add    $0x8,%rax
    fb5e:	48 89 85 80 fe ff ff 	mov    %rax,-0x180(%rbp)
    fb65:	48 8d 05 d8 14 01 00 	lea    0x114d8(%rip),%rax        # 21044 <g_62+0x4>
    fb6c:	48 89 85 88 fe ff ff 	mov    %rax,-0x178(%rbp)
    fb73:	48 8d 05 c6 14 01 00 	lea    0x114c6(%rip),%rax        # 21040 <g_62>
    fb7a:	48 89 85 90 fe ff ff 	mov    %rax,-0x170(%rbp)
    fb81:	48 c7 85 98 fe ff ff 	movq   $0x0,-0x168(%rbp)
    fb88:	00 00 00 00 
    fb8c:	48 8d 05 b1 14 01 00 	lea    0x114b1(%rip),%rax        # 21044 <g_62+0x4>
    fb93:	48 89 85 a0 fe ff ff 	mov    %rax,-0x160(%rbp)
    fb9a:	48 8d 85 f4 f2 ff ff 	lea    -0xd0c(%rbp),%rax
    fba1:	48 83 c0 04          	add    $0x4,%rax
    fba5:	48 89 85 a8 fe ff ff 	mov    %rax,-0x158(%rbp)
    fbac:	48 8d 85 f4 f2 ff ff 	lea    -0xd0c(%rbp),%rax
    fbb3:	48 89 85 b0 fe ff ff 	mov    %rax,-0x150(%rbp)
    fbba:	48 8d 85 f4 f2 ff ff 	lea    -0xd0c(%rbp),%rax
    fbc1:	48 83 c0 08          	add    $0x8,%rax
    fbc5:	48 89 85 b8 fe ff ff 	mov    %rax,-0x148(%rbp)
    fbcc:	48 8d 85 7c f1 ff ff 	lea    -0xe84(%rbp),%rax
    fbd3:	48 89 85 c0 fe ff ff 	mov    %rax,-0x140(%rbp)
    fbda:	48 c7 85 c8 fe ff ff 	movq   $0x0,-0x138(%rbp)
    fbe1:	00 00 00 00 
    fbe5:	48 8d 85 f4 f2 ff ff 	lea    -0xd0c(%rbp),%rax
    fbec:	48 89 85 d0 fe ff ff 	mov    %rax,-0x130(%rbp)
    fbf3:	48 8d 05 ce 17 01 00 	lea    0x117ce(%rip),%rax        # 213c8 <g_119+0x168>
    fbfa:	48 89 85 d8 fe ff ff 	mov    %rax,-0x128(%rbp)
    fc01:	48 8d 05 4c 14 01 00 	lea    0x1144c(%rip),%rax        # 21054 <g_62+0x14>
    fc08:	48 89 85 e0 fe ff ff 	mov    %rax,-0x120(%rbp)
    fc0f:	48 c7 85 e8 fe ff ff 	movq   $0x0,-0x118(%rbp)
    fc16:	00 00 00 00 
    fc1a:	48 8d 05 33 14 01 00 	lea    0x11433(%rip),%rax        # 21054 <g_62+0x14>
    fc21:	48 89 85 f0 fe ff ff 	mov    %rax,-0x110(%rbp)
    fc28:	48 8d 05 15 14 01 00 	lea    0x11415(%rip),%rax        # 21044 <g_62+0x4>
    fc2f:	48 89 85 f8 fe ff ff 	mov    %rax,-0x108(%rbp)
    fc36:	48 8d 05 cf 16 01 00 	lea    0x116cf(%rip),%rax        # 2130c <g_119+0xac>
    fc3d:	48 89 85 00 ff ff ff 	mov    %rax,-0x100(%rbp)
    fc44:	48 8d 05 f9 13 01 00 	lea    0x113f9(%rip),%rax        # 21044 <g_62+0x4>
    fc4b:	48 89 85 08 ff ff ff 	mov    %rax,-0xf8(%rbp)
    fc52:	48 8d 05 eb 13 01 00 	lea    0x113eb(%rip),%rax        # 21044 <g_62+0x4>
    fc59:	48 89 85 10 ff ff ff 	mov    %rax,-0xf0(%rbp)
    fc60:	48 8d 05 ed 13 01 00 	lea    0x113ed(%rip),%rax        # 21054 <g_62+0x14>
    fc67:	48 89 85 18 ff ff ff 	mov    %rax,-0xe8(%rbp)
    fc6e:	48 c7 85 20 ff ff ff 	movq   $0x0,-0xe0(%rbp)
    fc75:	00 00 00 00 
    fc79:	48 8d 05 c4 13 01 00 	lea    0x113c4(%rip),%rax        # 21044 <g_62+0x4>
    fc80:	48 89 85 28 ff ff ff 	mov    %rax,-0xd8(%rbp)
    fc87:	48 8d 05 b6 13 01 00 	lea    0x113b6(%rip),%rax        # 21044 <g_62+0x4>
    fc8e:	48 89 85 30 ff ff ff 	mov    %rax,-0xd0(%rbp)
    fc95:	48 8d 05 a8 13 01 00 	lea    0x113a8(%rip),%rax        # 21044 <g_62+0x4>
    fc9c:	48 89 85 38 ff ff ff 	mov    %rax,-0xc8(%rbp)
    fca3:	48 8d 05 9a 13 01 00 	lea    0x1139a(%rip),%rax        # 21044 <g_62+0x4>
    fcaa:	48 89 85 40 ff ff ff 	mov    %rax,-0xc0(%rbp)
    fcb1:	48 8d 05 54 16 01 00 	lea    0x11654(%rip),%rax        # 2130c <g_119+0xac>
    fcb8:	48 89 85 48 ff ff ff 	mov    %rax,-0xb8(%rbp)
    fcbf:	48 8d 05 7e 13 01 00 	lea    0x1137e(%rip),%rax        # 21044 <g_62+0x4>
    fcc6:	48 89 85 50 ff ff ff 	mov    %rax,-0xb0(%rbp)
    fccd:	48 8d 05 6c 13 01 00 	lea    0x1136c(%rip),%rax        # 21040 <g_62>
    fcd4:	48 89 85 58 ff ff ff 	mov    %rax,-0xa8(%rbp)
    fcdb:	48 c7 85 60 ff ff ff 	movq   $0x0,-0xa0(%rbp)
    fce2:	00 00 00 00 
    fce6:	48 c7 85 68 ff ff ff 	movq   $0x0,-0x98(%rbp)
    fced:	00 00 00 00 
    fcf1:	48 8d 05 4c 13 01 00 	lea    0x1134c(%rip),%rax        # 21044 <g_62+0x4>
    fcf8:	48 89 85 70 ff ff ff 	mov    %rax,-0x90(%rbp)
    fcff:	48 8d 85 f4 f2 ff ff 	lea    -0xd0c(%rbp),%rax
    fd06:	48 89 85 78 ff ff ff 	mov    %rax,-0x88(%rbp)
    fd0d:	48 8d 05 f8 15 01 00 	lea    0x115f8(%rip),%rax        # 2130c <g_119+0xac>
    fd14:	48 89 45 80          	mov    %rax,-0x80(%rbp)
    fd18:	48 c7 45 88 00 00 00 	movq   $0x0,-0x78(%rbp)
    fd1f:	00 
    fd20:	48 8d 05 2d 13 01 00 	lea    0x1132d(%rip),%rax        # 21054 <g_62+0x14>
    fd27:	48 89 45 90          	mov    %rax,-0x70(%rbp)
    fd2b:	48 8d 85 f4 f2 ff ff 	lea    -0xd0c(%rbp),%rax
    fd32:	48 89 45 98          	mov    %rax,-0x68(%rbp)
    fd36:	48 8d 05 17 13 01 00 	lea    0x11317(%rip),%rax        # 21054 <g_62+0x14>
    fd3d:	48 89 45 a0          	mov    %rax,-0x60(%rbp)
    fd41:	48 8d 05 0c 13 01 00 	lea    0x1130c(%rip),%rax        # 21054 <g_62+0x14>
    fd48:	48 89 45 a8          	mov    %rax,-0x58(%rbp)
    fd4c:	48 8d 05 01 13 01 00 	lea    0x11301(%rip),%rax        # 21054 <g_62+0x14>
    fd53:	48 89 45 b0          	mov    %rax,-0x50(%rbp)
    fd57:	48 8d 05 e6 12 01 00 	lea    0x112e6(%rip),%rax        # 21044 <g_62+0x4>
    fd5e:	48 89 45 b8          	mov    %rax,-0x48(%rbp)
    fd62:	c6 85 60 f6 ff ff 06 	movb   $0x6,-0x9a0(%rbp)
    fd69:	c6 85 61 f6 ff ff 3e 	movb   $0x3e,-0x99f(%rbp)
    fd70:	c6 85 62 f6 ff ff 3e 	movb   $0x3e,-0x99e(%rbp)
    fd77:	c6 85 63 f6 ff ff 06 	movb   $0x6,-0x99d(%rbp)
    fd7e:	c6 85 64 f6 ff ff 88 	movb   $0x88,-0x99c(%rbp)
    fd85:	c6 85 65 f6 ff ff 6e 	movb   $0x6e,-0x99b(%rbp)
    fd8c:	c6 85 66 f6 ff ff 06 	movb   $0x6,-0x99a(%rbp)
    fd93:	c6 85 67 f6 ff ff 6e 	movb   $0x6e,-0x999(%rbp)
    fd9a:	c6 85 68 f6 ff ff 88 	movb   $0x88,-0x998(%rbp)
    fda1:	c6 85 69 f6 ff ff 06 	movb   $0x6,-0x997(%rbp)
    fda8:	c6 85 6a f6 ff ff 3e 	movb   $0x3e,-0x996(%rbp)
    fdaf:	c6 85 6b f6 ff ff 3e 	movb   $0x3e,-0x995(%rbp)
    fdb6:	c6 85 6c f6 ff ff 06 	movb   $0x6,-0x994(%rbp)
    fdbd:	c6 85 6d f6 ff ff 88 	movb   $0x88,-0x993(%rbp)
    fdc4:	c6 85 6e f6 ff ff 6e 	movb   $0x6e,-0x992(%rbp)
    fdcb:	c6 85 6f f6 ff ff 06 	movb   $0x6,-0x991(%rbp)
    fdd2:	c6 85 70 f6 ff ff 6e 	movb   $0x6e,-0x990(%rbp)
    fdd9:	c6 85 71 f6 ff ff 88 	movb   $0x88,-0x98f(%rbp)
    fde0:	c6 85 72 f6 ff ff 06 	movb   $0x6,-0x98e(%rbp)
    fde7:	c6 85 73 f6 ff ff 3e 	movb   $0x3e,-0x98d(%rbp)
    fdee:	c6 85 74 f6 ff ff 3e 	movb   $0x3e,-0x98c(%rbp)
    fdf5:	c6 85 75 f6 ff ff 06 	movb   $0x6,-0x98b(%rbp)
    fdfc:	c6 85 76 f6 ff ff 88 	movb   $0x88,-0x98a(%rbp)
    fe03:	c6 85 77 f6 ff ff 6e 	movb   $0x6e,-0x989(%rbp)
    fe0a:	48 8d 05 57 18 01 00 	lea    0x11857(%rip),%rax        # 21668 <g_1720>
    fe11:	48 89 85 38 f2 ff ff 	mov    %rax,-0xdc8(%rbp)
    fe18:	48 8d 05 71 4c 01 00 	lea    0x14c71(%rip),%rax        # 24a90 <g_2116>
    fe1f:	48 89 85 40 f2 ff ff 	mov    %rax,-0xdc0(%rbp)
    fe26:	66 c7 85 78 f1 ff ff 	movw   $0xeb6,-0xe88(%rbp)
    fe2d:	b6 0e 
    fe2f:	48 b8 27 d8 76 55 e3 	movabs $0xf58163e35576d827,%rax
    fe36:	63 81 f5 
    fe39:	48 89 85 48 f2 ff ff 	mov    %rax,-0xdb8(%rbp)
    fe40:	0f b6 85 72 f6 ff ff 	movzbl -0x98e(%rbp),%eax
    fe47:	83 c0 01             	add    $0x1,%eax
    fe4a:	88 85 72 f6 ff ff    	mov    %al,-0x98e(%rbp)
    fe50:	48 8b 85 00 f2 ff ff 	mov    -0xe00(%rbp),%rax
    fe57:	c7 00 6f 02 f6 d3    	movl   $0xd3f6026f,(%rax)
    fe5d:	48 8b 85 00 f2 ff ff 	mov    -0xe00(%rbp),%rax
    fe64:	8b 10                	mov    (%rax),%edx
    fe66:	48 8b 85 08 f2 ff ff 	mov    -0xdf8(%rbp),%rax
    fe6d:	89 10                	mov    %edx,(%rax)
    fe6f:	48 83 bd 10 f2 ff ff 	cmpq   $0x0,-0xdf0(%rbp)
    fe76:	00 
    fe77:	0f 95 c0             	setne  %al
    fe7a:	0f b6 d0             	movzbl %al,%edx
    fe7d:	48 8b 05 a4 2d 01 00 	mov    0x12da4(%rip),%rax        # 22c28 <g_486>
    fe84:	48 8b 00             	mov    (%rax),%rax
    fe87:	0f b6 00             	movzbl (%rax),%eax
    fe8a:	0f b6 c0             	movzbl %al,%eax
    fe8d:	89 d6                	mov    %edx,%esi
    fe8f:	89 c7                	mov    %eax,%edi
    fe91:	e8 e2 ac ff ff       	callq  ab78 <safe_sub_func_uint8_t_u_u>
    fe96:	48 8b 05 83 2d 01 00 	mov    0x12d83(%rip),%rax        # 22c20 <g_487>
    fe9d:	0f b6 10             	movzbl (%rax),%edx
    fea0:	48 8b 85 38 f2 ff ff 	mov    -0xdc8(%rbp),%rax
    fea7:	88 10                	mov    %dl,(%rax)
    fea9:	48 8b 85 38 f2 ff ff 	mov    -0xdc8(%rbp),%rax
    feb0:	44 0f b6 20          	movzbl (%rax),%r12d
    feb4:	48 8b 05 65 2d 01 00 	mov    0x12d65(%rip),%rax        # 22c20 <g_487>
    febb:	0f b6 00             	movzbl (%rax),%eax
    febe:	0f b6 d8             	movzbl %al,%ebx
    fec1:	66 0f be 85 6c f1 ff 	movsbw -0xe94(%rbp),%ax
    fec8:	ff 
    fec9:	0f b7 d0             	movzwl %ax,%edx
    fecc:	48 8b 85 40 f2 ff ff 	mov    -0xdc0(%rbp),%rax
    fed3:	0f b7 08             	movzwl (%rax),%ecx
    fed6:	0f b6 85 68 f1 ff ff 	movzbl -0xe98(%rbp),%eax
    fedd:	09 c1                	or     %eax,%ecx
    fedf:	48 8b 85 40 f2 ff ff 	mov    -0xdc0(%rbp),%rax
    fee6:	66 89 08             	mov    %cx,(%rax)
    fee9:	8b 05 1d 14 01 00    	mov    0x1141d(%rip),%eax        # 2130c <g_119+0xac>
    feef:	0f b7 c0             	movzwl %ax,%eax
    fef2:	89 d6                	mov    %edx,%esi
    fef4:	89 c7                	mov    %eax,%edi
    fef6:	e8 24 ae ff ff       	callq  ad1f <safe_sub_func_uint16_t_u_u>
    fefb:	66 85 c0             	test   %ax,%ax
    fefe:	74 11                	je     ff11 <func_29+0x2285>
    ff00:	66 83 bd 78 f1 ff ff 	cmpw   $0x0,-0xe88(%rbp)
    ff07:	00 
    ff08:	74 07                	je     ff11 <func_29+0x2285>
    ff0a:	b8 01 00 00 00       	mov    $0x1,%eax
    ff0f:	eb 05                	jmp    ff16 <func_29+0x228a>
    ff11:	b8 00 00 00 00       	mov    $0x0,%eax
    ff16:	48 63 d0             	movslq %eax,%rdx
    ff19:	48 8b 05 48 3f 01 00 	mov    0x13f48(%rip),%rax        # 23e68 <g_2350>
    ff20:	48 8b 00             	mov    (%rax),%rax
    ff23:	48 89 d6             	mov    %rdx,%rsi
    ff26:	48 89 c7             	mov    %rax,%rdi
    ff29:	e8 7a a9 ff ff       	callq  a8a8 <safe_sub_func_int64_t_s_s>
    ff2e:	0f b6 c0             	movzbl %al,%eax
    ff31:	be 07 00 00 00       	mov    $0x7,%esi
    ff36:	89 c7                	mov    %eax,%edi
    ff38:	e8 71 ac ff ff       	callq  abae <safe_mod_func_uint8_t_u_u>
    ff3d:	0f b6 d0             	movzbl %al,%edx
    ff40:	48 8b 85 58 f1 ff ff 	mov    -0xea8(%rbp),%rax
    ff47:	66 89 05 38 15 01 00 	mov    %ax,0x11538(%rip)        # 21486 <g_569+0x6>
    ff4e:	0f b7 05 31 15 01 00 	movzwl 0x11531(%rip),%eax        # 21486 <g_569+0x6>
    ff55:	98                   	cwtl   
    ff56:	89 d6                	mov    %edx,%esi
    ff58:	89 c7                	mov    %eax,%edi
    ff5a:	e8 96 a4 ff ff       	callq  a3f5 <safe_mul_func_int16_t_s_s>
    ff5f:	0f bf d0             	movswl %ax,%edx
    ff62:	48 8b 05 9f 3e 01 00 	mov    0x13e9f(%rip),%rax        # 23e08 <g_1956>
    ff69:	48 8b 00             	mov    (%rax),%rax
    ff6c:	8b 00                	mov    (%rax),%eax
    ff6e:	39 c2                	cmp    %eax,%edx
    ff70:	0f 92 c0             	setb   %al
    ff73:	0f b6 c0             	movzbl %al,%eax
    ff76:	21 c3                	and    %eax,%ebx
    ff78:	89 da                	mov    %ebx,%edx
    ff7a:	48 8b 05 17 3d 01 00 	mov    0x13d17(%rip),%rax        # 23c98 <g_1050>
    ff81:	48 63 d2             	movslq %edx,%rdx
    ff84:	48 89 10             	mov    %rdx,(%rax)
    ff87:	48 8b 00             	mov    (%rax),%rax
    ff8a:	48 83 f8 f9          	cmp    $0xfffffffffffffff9,%rax
    ff8e:	0f 96 c0             	setbe  %al
    ff91:	0f b6 d0             	movzbl %al,%edx
    ff94:	48 8b 85 00 f2 ff ff 	mov    -0xe00(%rbp),%rax
    ff9b:	8b 00                	mov    (%rax),%eax
    ff9d:	39 c2                	cmp    %eax,%edx
    ff9f:	0f 9e c0             	setle  %al
    ffa2:	44 31 e0             	xor    %r12d,%eax
    ffa5:	83 f0 92             	xor    $0xffffff92,%eax
    ffa8:	0f b6 c0             	movzbl %al,%eax
    ffab:	be 8a 00 00 00       	mov    $0x8a,%esi
    ffb0:	89 c7                	mov    %eax,%edi
    ffb2:	e8 a3 ab ff ff       	callq  ab5a <safe_add_func_uint8_t_u_u>
    ffb7:	48 8b 95 48 f2 ff ff 	mov    -0xdb8(%rbp),%rdx
    ffbe:	48 8b 85 08 f2 ff ff 	mov    -0xdf8(%rbp),%rax
    ffc5:	8b 00                	mov    (%rax),%eax
    ffc7:	09 c2                	or     %eax,%edx
    ffc9:	48 8b 85 08 f2 ff ff 	mov    -0xdf8(%rbp),%rax
    ffd0:	89 10                	mov    %edx,(%rax)
    ffd2:	0f be 85 6c f1 ff ff 	movsbl -0xe94(%rbp),%eax
    ffd9:	48 8b 5d c8          	mov    -0x38(%rbp),%rbx
    ffdd:	64 48 33 1c 25 28 00 	xor    %fs:0x28,%rbx
    ffe4:	00 00 
    ffe6:	74 05                	je     ffed <func_29+0x2361>
    ffe8:	e8 83 a0 ff ff       	callq  a070 <__stack_chk_fail@plt>
    ffed:	48 81 c4 88 0e 00 00 	add    $0xe88,%rsp
    fff4:	5b                   	pop    %rbx
    fff5:	41 5c                	pop    %r12
    fff7:	41 5d                	pop    %r13
    fff9:	41 5e                	pop    %r14
    fffb:	41 5f                	pop    %r15
    fffd:	5d                   	pop    %rbp
    fffe:	c3                   	retq   

000000000000ffff <func_34>:
    ffff:	f3 0f 1e fa          	endbr64 
   10003:	55                   	push   %rbp
   10004:	48 89 e5             	mov    %rsp,%rbp
   10007:	41 56                	push   %r14
   10009:	41 55                	push   %r13
   1000b:	41 54                	push   %r12
   1000d:	53                   	push   %rbx
   1000e:	48 81 ec 90 05 00 00 	sub    $0x590,%rsp
   10015:	48 89 bd 68 fa ff ff 	mov    %rdi,-0x598(%rbp)
   1001c:	89 f0                	mov    %esi,%eax
   1001e:	48 89 95 58 fa ff ff 	mov    %rdx,-0x5a8(%rbp)
   10025:	48 89 8d 50 fa ff ff 	mov    %rcx,-0x5b0(%rbp)
   1002c:	88 85 64 fa ff ff    	mov    %al,-0x59c(%rbp)
   10032:	64 48 8b 04 25 28 00 	mov    %fs:0x28,%rax
   10039:	00 00 
   1003b:	48 89 45 d8          	mov    %rax,-0x28(%rbp)
   1003f:	31 c0                	xor    %eax,%eax
   10041:	c6 85 74 fa ff ff 7a 	movb   $0x7a,-0x58c(%rbp)
   10048:	c7 85 78 fa ff ff 8f 	movl   $0x4840ad8f,-0x588(%rbp)
   1004f:	ad 40 48 
   10052:	48 8d 05 31 14 01 00 	lea    0x11431(%rip),%rax        # 2148a <g_569+0xa>
   10059:	48 89 85 f0 fa ff ff 	mov    %rax,-0x510(%rbp)
   10060:	c7 85 00 fc ff ff 1f 	movl   $0xe759de1f,-0x400(%rbp)
   10067:	de 59 e7 
   1006a:	c7 85 04 fc ff ff ff 	movl   $0xffffffff,-0x3fc(%rbp)
   10071:	ff ff ff 
   10074:	c7 85 08 fc ff ff 1f 	movl   $0xe759de1f,-0x3f8(%rbp)
   1007b:	de 59 e7 
   1007e:	c7 85 0c fc ff ff 59 	movl   $0xa6bd1659,-0x3f4(%rbp)
   10085:	16 bd a6 
   10088:	c7 85 10 fc ff ff ff 	movl   $0xffffffff,-0x3f0(%rbp)
   1008f:	ff ff ff 
   10092:	c7 85 14 fc ff ff 59 	movl   $0xa6bd1659,-0x3ec(%rbp)
   10099:	16 bd a6 
   1009c:	c7 85 18 fc ff ff 1f 	movl   $0xe759de1f,-0x3e8(%rbp)
   100a3:	de 59 e7 
   100a6:	c7 85 1c fc ff ff ff 	movl   $0xffffffff,-0x3e4(%rbp)
   100ad:	ff ff ff 
   100b0:	c7 85 20 fc ff ff 1f 	movl   $0xe759de1f,-0x3e0(%rbp)
   100b7:	de 59 e7 
   100ba:	c7 85 24 fc ff ff 59 	movl   $0xa6bd1659,-0x3dc(%rbp)
   100c1:	16 bd a6 
   100c4:	c7 85 28 fc ff ff ff 	movl   $0xffffffff,-0x3d8(%rbp)
   100cb:	ff ff ff 
   100ce:	c7 85 2c fc ff ff 59 	movl   $0xa6bd1659,-0x3d4(%rbp)
   100d5:	16 bd a6 
   100d8:	c7 85 30 fc ff ff 1f 	movl   $0xe759de1f,-0x3d0(%rbp)
   100df:	de 59 e7 
   100e2:	c7 85 34 fc ff ff ff 	movl   $0xffffffff,-0x3cc(%rbp)
   100e9:	ff ff ff 
   100ec:	c7 85 38 fc ff ff 1f 	movl   $0xe759de1f,-0x3c8(%rbp)
   100f3:	de 59 e7 
   100f6:	c7 85 3c fc ff ff 59 	movl   $0xa6bd1659,-0x3c4(%rbp)
   100fd:	16 bd a6 
   10100:	c7 85 40 fc ff ff ff 	movl   $0xffffffff,-0x3c0(%rbp)
   10107:	ff ff ff 
   1010a:	c7 85 44 fc ff ff 59 	movl   $0xa6bd1659,-0x3bc(%rbp)
   10111:	16 bd a6 
   10114:	c7 85 48 fc ff ff 1f 	movl   $0xe759de1f,-0x3b8(%rbp)
   1011b:	de 59 e7 
   1011e:	c7 85 4c fc ff ff ff 	movl   $0xffffffff,-0x3b4(%rbp)
   10125:	ff ff ff 
   10128:	c7 85 50 fc ff ff 1f 	movl   $0xe759de1f,-0x3b0(%rbp)
   1012f:	de 59 e7 
   10132:	c7 85 54 fc ff ff 59 	movl   $0xa6bd1659,-0x3ac(%rbp)
   10139:	16 bd a6 
   1013c:	c7 85 58 fc ff ff ff 	movl   $0xffffffff,-0x3a8(%rbp)
   10143:	ff ff ff 
   10146:	c7 85 5c fc ff ff 59 	movl   $0xa6bd1659,-0x3a4(%rbp)
   1014d:	16 bd a6 
   10150:	c7 85 60 fc ff ff 1f 	movl   $0xe759de1f,-0x3a0(%rbp)
   10157:	de 59 e7 
   1015a:	c7 85 64 fc ff ff ff 	movl   $0xffffffff,-0x39c(%rbp)
   10161:	ff ff ff 
   10164:	c7 85 68 fc ff ff 1f 	movl   $0xe759de1f,-0x398(%rbp)
   1016b:	de 59 e7 
   1016e:	c7 85 6c fc ff ff 59 	movl   $0xa6bd1659,-0x394(%rbp)
   10175:	16 bd a6 
   10178:	c7 85 70 fc ff ff ff 	movl   $0xffffffff,-0x390(%rbp)
   1017f:	ff ff ff 
   10182:	c7 85 74 fc ff ff 59 	movl   $0xa6bd1659,-0x38c(%rbp)
   10189:	16 bd a6 
   1018c:	c7 85 7c fa ff ff 00 	movl   $0x0,-0x584(%rbp)
   10193:	00 00 00 
   10196:	c7 85 98 fa ff ff f2 	movl   $0x266a66f2,-0x568(%rbp)
   1019d:	66 6a 26 
   101a0:	c7 85 9c fa ff ff 04 	movl   $0xb6ca204,-0x564(%rbp)
   101a7:	a2 6c 0b 
   101aa:	c7 85 a0 fa ff ff 4f 	movl   $0xbcd41b4f,-0x560(%rbp)
   101b1:	1b d4 bc 
   101b4:	c7 85 a4 fa ff ff f7 	movl   $0xfffffff7,-0x55c(%rbp)
   101bb:	ff ff ff 
   101be:	c7 85 80 fa ff ff 00 	movl   $0x0,-0x580(%rbp)
   101c5:	00 00 00 
   101c8:	eb 73                	jmp    1023d <func_34+0x23e>
   101ca:	c7 85 84 fa ff ff 00 	movl   $0x0,-0x57c(%rbp)
   101d1:	00 00 00 
   101d4:	eb 57                	jmp    1022d <func_34+0x22e>
   101d6:	c7 85 88 fa ff ff 00 	movl   $0x0,-0x578(%rbp)
   101dd:	00 00 00 
   101e0:	eb 3b                	jmp    1021d <func_34+0x21e>
   101e2:	8b 85 88 fa ff ff    	mov    -0x578(%rbp),%eax
   101e8:	48 63 c8             	movslq %eax,%rcx
   101eb:	8b 85 80 fa ff ff    	mov    -0x580(%rbp),%eax
   101f1:	48 63 d0             	movslq %eax,%rdx
   101f4:	8b 85 84 fa ff ff    	mov    -0x57c(%rbp),%eax
   101fa:	48 98                	cltq   
   101fc:	48 01 c2             	add    %rax,%rdx
   101ff:	48 89 d0             	mov    %rdx,%rax
   10202:	48 01 c0             	add    %rax,%rax
   10205:	48 01 d0             	add    %rdx,%rax
   10208:	48 01 c8             	add    %rcx,%rax
   1020b:	c7 84 85 48 fb ff ff 	movl   $0x8,-0x4b8(%rbp,%rax,4)
   10212:	08 00 00 00 
   10216:	83 85 88 fa ff ff 01 	addl   $0x1,-0x578(%rbp)
   1021d:	83 bd 88 fa ff ff 02 	cmpl   $0x2,-0x578(%rbp)
   10224:	7e bc                	jle    101e2 <func_34+0x1e3>
   10226:	83 85 84 fa ff ff 01 	addl   $0x1,-0x57c(%rbp)
   1022d:	83 bd 84 fa ff ff 00 	cmpl   $0x0,-0x57c(%rbp)
   10234:	7e a0                	jle    101d6 <func_34+0x1d7>
   10236:	83 85 80 fa ff ff 01 	addl   $0x1,-0x580(%rbp)
   1023d:	83 bd 80 fa ff ff 00 	cmpl   $0x0,-0x580(%rbp)
   10244:	7e 84                	jle    101ca <func_34+0x1cb>
   10246:	0f b6 85 74 fa ff ff 	movzbl -0x58c(%rbp),%eax
   1024d:	0f b6 c0             	movzbl %al,%eax
   10250:	be 04 00 00 00       	mov    $0x4,%esi
   10255:	89 c7                	mov    %eax,%edi
   10257:	e8 31 aa ff ff       	callq  ac8d <safe_rshift_func_uint8_t_u_s>
   1025c:	84 c0                	test   %al,%al
   1025e:	74 1f                	je     1027f <func_34+0x280>
   10260:	66 c7 85 76 fa ff ff 	movw   $0xc8a6,-0x58a(%rbp)
   10267:	a6 c8 
   10269:	0f b7 85 76 fa ff ff 	movzwl -0x58a(%rbp),%eax
   10270:	83 c0 01             	add    $0x1,%eax
   10273:	66 89 85 76 fa ff ff 	mov    %ax,-0x58a(%rbp)
   1027a:	e9 9f 08 00 00       	jmpq   10b1e <func_34+0xb1f>
   1027f:	48 8d 05 82 3b 01 00 	lea    0x13b82(%rip),%rax        # 23e08 <g_1956>
   10286:	48 89 85 f8 fa ff ff 	mov    %rax,-0x508(%rbp)
   1028d:	48 8d 05 fc 47 01 00 	lea    0x147fc(%rip),%rax        # 24a90 <g_2116>
   10294:	48 89 85 00 fb ff ff 	mov    %rax,-0x500(%rbp)
   1029b:	48 8d 05 6a 10 01 00 	lea    0x1106a(%rip),%rax        # 2130c <g_119+0xac>
   102a2:	48 89 85 b0 fb ff ff 	mov    %rax,-0x450(%rbp)
   102a9:	48 8d 05 a4 0d 01 00 	lea    0x10da4(%rip),%rax        # 21054 <g_62+0x14>
   102b0:	48 89 85 b8 fb ff ff 	mov    %rax,-0x448(%rbp)
   102b7:	48 8d 05 4e 10 01 00 	lea    0x1104e(%rip),%rax        # 2130c <g_119+0xac>
   102be:	48 89 85 c0 fb ff ff 	mov    %rax,-0x440(%rbp)
   102c5:	48 8d 05 88 0d 01 00 	lea    0x10d88(%rip),%rax        # 21054 <g_62+0x14>
   102cc:	48 89 85 c8 fb ff ff 	mov    %rax,-0x438(%rbp)
   102d3:	48 8d 05 32 10 01 00 	lea    0x11032(%rip),%rax        # 2130c <g_119+0xac>
   102da:	48 89 85 d0 fb ff ff 	mov    %rax,-0x430(%rbp)
   102e1:	48 8d 05 6c 0d 01 00 	lea    0x10d6c(%rip),%rax        # 21054 <g_62+0x14>
   102e8:	48 89 85 d8 fb ff ff 	mov    %rax,-0x428(%rbp)
   102ef:	48 8d 05 16 10 01 00 	lea    0x11016(%rip),%rax        # 2130c <g_119+0xac>
   102f6:	48 89 85 e0 fb ff ff 	mov    %rax,-0x420(%rbp)
   102fd:	48 8d 05 50 0d 01 00 	lea    0x10d50(%rip),%rax        # 21054 <g_62+0x14>
   10304:	48 89 85 e8 fb ff ff 	mov    %rax,-0x418(%rbp)
   1030b:	48 8d 05 fa 0f 01 00 	lea    0x10ffa(%rip),%rax        # 2130c <g_119+0xac>
   10312:	48 89 85 f0 fb ff ff 	mov    %rax,-0x410(%rbp)
   10319:	c7 85 8c fa ff ff 00 	movl   $0x0,-0x574(%rbp)
   10320:	00 00 00 
   10323:	eb 14                	jmp    10339 <func_34+0x33a>
   10325:	8b 85 8c fa ff ff    	mov    -0x574(%rbp),%eax
   1032b:	48 98                	cltq   
   1032d:	c6 44 05 d4 09       	movb   $0x9,-0x2c(%rbp,%rax,1)
   10332:	83 85 8c fa ff ff 01 	addl   $0x1,-0x574(%rbp)
   10339:	83 bd 8c fa ff ff 03 	cmpl   $0x3,-0x574(%rbp)
   10340:	7e e3                	jle    10325 <func_34+0x326>
   10342:	c6 85 64 fa ff ff 07 	movb   $0x7,-0x59c(%rbp)
   10349:	e9 c3 07 00 00       	jmpq   10b11 <func_34+0xb12>
   1034e:	c7 85 a8 fa ff ff 01 	movl   $0x1,-0x558(%rbp)
   10355:	00 00 00 
   10358:	48 c7 85 08 fb ff ff 	movq   $0x0,-0x4f8(%rbp)
   1035f:	00 00 00 00 
   10363:	c6 85 73 fa ff ff f8 	movb   $0xf8,-0x58d(%rbp)
   1036a:	c7 85 ac fa ff ff f8 	movl   $0xfffffff8,-0x554(%rbp)
   10371:	ff ff ff 
   10374:	c7 85 b0 fa ff ff f9 	movl   $0xfffffff9,-0x550(%rbp)
   1037b:	ff ff ff 
   1037e:	c7 85 b4 fa ff ff 01 	movl   $0x1,-0x54c(%rbp)
   10385:	00 00 00 
   10388:	c7 85 b8 fa ff ff ae 	movl   $0x591a87ae,-0x548(%rbp)
   1038f:	87 1a 59 
   10392:	c7 85 bc fa ff ff 8a 	movl   $0xb920c38a,-0x544(%rbp)
   10399:	c3 20 b9 
   1039c:	c7 85 c0 fa ff ff 07 	movl   $0x3a904a07,-0x540(%rbp)
   103a3:	4a 90 3a 
   103a6:	c7 85 c4 fa ff ff 33 	movl   $0xca1e3233,-0x53c(%rbp)
   103ad:	32 1e ca 
   103b0:	c7 85 90 fa ff ff 00 	movl   $0x0,-0x570(%rbp)
   103b7:	00 00 00 
   103ba:	eb 4d                	jmp    10409 <func_34+0x40a>
   103bc:	c7 85 94 fa ff ff 00 	movl   $0x0,-0x56c(%rbp)
   103c3:	00 00 00 
   103c6:	eb 31                	jmp    103f9 <func_34+0x3fa>
   103c8:	8b 85 94 fa ff ff    	mov    -0x56c(%rbp),%eax
   103ce:	48 63 c8             	movslq %eax,%rcx
   103d1:	8b 85 90 fa ff ff    	mov    -0x570(%rbp),%eax
   103d7:	48 63 d0             	movslq %eax,%rdx
   103da:	48 89 d0             	mov    %rdx,%rax
   103dd:	48 c1 e0 02          	shl    $0x2,%rax
   103e1:	48 01 d0             	add    %rdx,%rax
   103e4:	48 01 c8             	add    %rcx,%rax
   103e7:	c7 84 85 60 fb ff ff 	movl   $0xfffffff9,-0x4a0(%rbp,%rax,4)
   103ee:	f9 ff ff ff 
   103f2:	83 85 94 fa ff ff 01 	addl   $0x1,-0x56c(%rbp)
   103f9:	83 bd 94 fa ff ff 04 	cmpl   $0x4,-0x56c(%rbp)
   10400:	7e c6                	jle    103c8 <func_34+0x3c9>
   10402:	83 85 90 fa ff ff 01 	addl   $0x1,-0x570(%rbp)
   10409:	83 bd 90 fa ff ff 00 	cmpl   $0x0,-0x570(%rbp)
   10410:	7e aa                	jle    103bc <func_34+0x3bd>
   10412:	66 c7 05 27 10 01 00 	movw   $0x0,0x11027(%rip)        # 21442 <g_431>
   10419:	00 00 
   1041b:	e9 4a 03 00 00       	jmpq   1076a <func_34+0x76b>
   10420:	48 8d 05 e5 0e 01 00 	lea    0x10ee5(%rip),%rax        # 2130c <g_119+0xac>
   10427:	48 89 85 28 fb ff ff 	mov    %rax,-0x4d8(%rbp)
   1042e:	48 b8 07 a8 e6 2c f0 	movabs $0x490638f02ce6a807,%rax
   10435:	38 06 49 
   10438:	48 89 85 30 fb ff ff 	mov    %rax,-0x4d0(%rbp)
   1043f:	48 8b 85 28 fb ff ff 	mov    -0x4d8(%rbp),%rax
   10446:	8b 95 a8 fa ff ff    	mov    -0x558(%rbp),%edx
   1044c:	89 10                	mov    %edx,(%rax)
   1044e:	c7 05 68 10 01 00 00 	movl   $0x0,0x11068(%rip)        # 214c0 <g_897>
   10455:	00 00 00 
   10458:	e9 ed 02 00 00       	jmpq   1074a <func_34+0x74b>
   1045d:	48 8d 05 a4 39 01 00 	lea    0x139a4(%rip),%rax        # 23e08 <g_1956>
   10464:	48 89 85 38 fb ff ff 	mov    %rax,-0x4c8(%rbp)
   1046b:	48 8d 05 8a 0d 01 00 	lea    0x10d8a(%rip),%rax        # 211fc <g_94+0x19c>
   10472:	48 89 85 40 fb ff ff 	mov    %rax,-0x4c0(%rbp)
   10479:	48 8b 05 90 0f 01 00 	mov    0x10f90(%rip),%rax        # 21410 <g_264+0x10>
   10480:	41 89 c5             	mov    %eax,%r13d
   10483:	48 8b 05 46 38 01 00 	mov    0x13846(%rip),%rax        # 23cd0 <g_1438>
   1048a:	48 8b 00             	mov    (%rax),%rax
   1048d:	49 89 c6             	mov    %rax,%r14
   10490:	8b 05 2a 10 01 00    	mov    0x1102a(%rip),%eax        # 214c0 <g_897>
   10496:	8d 48 04             	lea    0x4(%rax),%ecx
   10499:	8b 15 21 10 01 00    	mov    0x11021(%rip),%edx        # 214c0 <g_897>
   1049f:	8b 05 1b 10 01 00    	mov    0x1101b(%rip),%eax        # 214c0 <g_897>
   104a5:	83 c0 04             	add    $0x4,%eax
   104a8:	89 c6                	mov    %eax,%esi
   104aa:	89 c8                	mov    %ecx,%eax
   104ac:	89 d1                	mov    %edx,%ecx
   104ae:	48 89 c2             	mov    %rax,%rdx
   104b1:	48 01 d2             	add    %rdx,%rdx
   104b4:	48 01 c2             	add    %rax,%rdx
   104b7:	48 8d 04 95 00 00 00 	lea    0x0(,%rdx,4),%rax
   104be:	00 
   104bf:	48 89 c2             	mov    %rax,%rdx
   104c2:	48 89 c8             	mov    %rcx,%rax
   104c5:	48 01 c0             	add    %rax,%rax
   104c8:	48 01 c8             	add    %rcx,%rax
   104cb:	48 01 c0             	add    %rax,%rax
   104ce:	48 01 d0             	add    %rdx,%rax
   104d1:	48 01 f0             	add    %rsi,%rax
   104d4:	48 8d 14 85 00 00 00 	lea    0x0(,%rax,4),%rdx
   104db:	00 
   104dc:	48 8d 05 7d 0d 01 00 	lea    0x10d7d(%rip),%rax        # 21260 <g_119>
   104e3:	8b 04 02             	mov    (%rdx,%rax,1),%eax
   104e6:	48 63 d8             	movslq %eax,%rbx
   104e9:	48 8b 85 28 fb ff ff 	mov    -0x4d8(%rbp),%rax
   104f0:	8b 00                	mov    (%rax),%eax
   104f2:	44 0f bf e0          	movswl %ax,%r12d
   104f6:	48 8d 05 e3 37 01 00 	lea    0x137e3(%rip),%rax        # 23ce0 <g_1661>
   104fd:	48 89 05 24 38 01 00 	mov    %rax,0x13824(%rip)        # 23d28 <g_1660+0x28>
   10504:	48 8b 85 f8 fa ff ff 	mov    -0x508(%rbp),%rax
   1050b:	48 3b 85 38 fb ff ff 	cmp    -0x4c8(%rbp),%rax
   10512:	0f 94 c0             	sete   %al
   10515:	0f b6 c0             	movzbl %al,%eax
   10518:	89 c6                	mov    %eax,%esi
   1051a:	bf 01 00 00 00       	mov    $0x1,%edi
   1051f:	e8 ee 9c ff ff       	callq  a212 <safe_mul_func_int8_t_s_s>
   10524:	0f be c0             	movsbl %al,%eax
   10527:	44 89 e6             	mov    %r12d,%esi
   1052a:	89 c7                	mov    %eax,%edi
   1052c:	e8 e5 9e ff ff       	callq  a416 <safe_mod_func_int16_t_s_s>
   10531:	48 89 de             	mov    %rbx,%rsi
   10534:	bf 01 00 00 00       	mov    $0x1,%edi
   10539:	e8 71 ab ff ff       	callq  b0af <safe_div_func_uint64_t_u_u>
   1053e:	48 0f be 85 64 fa ff 	movsbq -0x59c(%rbp),%rax
   10545:	ff 
   10546:	48 ba ac 59 0f 23 86 	movabs $0xe499ba86230f59ac,%rdx
   1054d:	ba 99 e4 
   10550:	48 39 d0             	cmp    %rdx,%rax
   10553:	0f 96 c0             	setbe  %al
   10556:	0f b6 c0             	movzbl %al,%eax
   10559:	4c 89 f6             	mov    %r14,%rsi
   1055c:	48 89 c7             	mov    %rax,%rdi
   1055f:	e8 ca aa ff ff       	callq  b02e <safe_add_func_uint64_t_u_u>
   10564:	0f be c0             	movsbl %al,%eax
   10567:	be df ff ff ff       	mov    $0xffffffdf,%esi
   1056c:	89 c7                	mov    %eax,%edi
   1056e:	e8 9f 9c ff ff       	callq  a212 <safe_mul_func_int8_t_s_s>
   10573:	b8 01 00 00 00       	mov    $0x1,%eax
   10578:	98                   	cwtl   
   10579:	44 89 ee             	mov    %r13d,%esi
   1057c:	89 c7                	mov    %eax,%edi
   1057e:	e8 e0 9f ff ff       	callq  a563 <safe_rshift_func_int16_t_s_u>
   10583:	8b 05 37 0f 01 00    	mov    0x10f37(%rip),%eax        # 214c0 <g_897>
   10589:	8d 48 04             	lea    0x4(%rax),%ecx
   1058c:	8b 15 2e 0f 01 00    	mov    0x10f2e(%rip),%edx        # 214c0 <g_897>
   10592:	8b 05 28 0f 01 00    	mov    0x10f28(%rip),%eax        # 214c0 <g_897>
   10598:	83 c0 04             	add    $0x4,%eax
   1059b:	89 c6                	mov    %eax,%esi
   1059d:	89 c8                	mov    %ecx,%eax
   1059f:	89 d1                	mov    %edx,%ecx
   105a1:	48 89 c2             	mov    %rax,%rdx
   105a4:	48 01 d2             	add    %rdx,%rdx
   105a7:	48 01 c2             	add    %rax,%rdx
   105aa:	48 8d 04 95 00 00 00 	lea    0x0(,%rdx,4),%rax
   105b1:	00 
   105b2:	48 89 c2             	mov    %rax,%rdx
   105b5:	48 89 c8             	mov    %rcx,%rax
   105b8:	48 01 c0             	add    %rax,%rax
   105bb:	48 01 c8             	add    %rcx,%rax
   105be:	48 01 c0             	add    %rax,%rax
   105c1:	48 01 d0             	add    %rdx,%rax
   105c4:	48 01 f0             	add    %rsi,%rax
   105c7:	48 8d 14 85 00 00 00 	lea    0x0(,%rax,4),%rdx
   105ce:	00 
   105cf:	48 8d 05 8a 0c 01 00 	lea    0x10c8a(%rip),%rax        # 21260 <g_119>
   105d6:	8b 04 02             	mov    (%rdx,%rax,1),%eax
   105d9:	89 c2                	mov    %eax,%edx
   105db:	0f be 85 64 fa ff ff 	movsbl -0x59c(%rbp),%eax
   105e2:	89 d6                	mov    %edx,%esi
   105e4:	83 e6 76             	and    $0x76,%esi
   105e7:	48 63 d0             	movslq %eax,%rdx
   105ea:	48 8d 0c 12          	lea    (%rdx,%rdx,1),%rcx
   105ee:	48 8d 15 6b 0e 01 00 	lea    0x10e6b(%rip),%rdx        # 21460 <g_559>
   105f5:	66 89 34 11          	mov    %si,(%rcx,%rdx,1)
   105f9:	48 98                	cltq   
   105fb:	48 8d 14 00          	lea    (%rax,%rax,1),%rdx
   105ff:	48 8d 05 5a 0e 01 00 	lea    0x10e5a(%rip),%rax        # 21460 <g_559>
   10606:	0f b7 04 02          	movzwl (%rdx,%rax,1),%eax
   1060a:	98                   	cwtl   
   1060b:	be 01 00 00 00       	mov    $0x1,%esi
   10610:	89 c7                	mov    %eax,%edi
   10612:	e8 de 9d ff ff       	callq  a3f5 <safe_mul_func_int16_t_s_s>
   10617:	8b 15 a3 0e 01 00    	mov    0x10ea3(%rip),%edx        # 214c0 <g_897>
   1061d:	83 c2 04             	add    $0x4,%edx
   10620:	89 d2                	mov    %edx,%edx
   10622:	48 8d 0c 95 00 00 00 	lea    0x0(,%rdx,4),%rcx
   10629:	00 
   1062a:	48 8d 15 0f 0a 01 00 	lea    0x10a0f(%rip),%rdx        # 21040 <g_62>
   10631:	8b 14 11             	mov    (%rcx,%rdx,1),%edx
   10634:	98                   	cwtl   
   10635:	8b 0d 85 0e 01 00    	mov    0x10e85(%rip),%ecx        # 214c0 <g_897>
   1063b:	8d 71 04             	lea    0x4(%rcx),%esi
   1063e:	89 d1                	mov    %edx,%ecx
   10640:	09 c1                	or     %eax,%ecx
   10642:	89 f0                	mov    %esi,%eax
   10644:	48 8d 14 85 00 00 00 	lea    0x0(,%rax,4),%rdx
   1064b:	00 
   1064c:	48 8d 05 ed 09 01 00 	lea    0x109ed(%rip),%rax        # 21040 <g_62>
   10653:	89 0c 02             	mov    %ecx,(%rdx,%rax,1)
   10656:	48 8b 05 ab 25 01 00 	mov    0x125ab(%rip),%rax        # 22c08 <g_382>
   1065d:	48 8d 95 78 fa ff ff 	lea    -0x588(%rbp),%rdx
   10664:	48 89 10             	mov    %rdx,(%rax)
   10667:	48 8b 05 82 25 01 00 	mov    0x12582(%rip),%rax        # 22bf0 <g_320>
   1066e:	8b 00                	mov    (%rax),%eax
   10670:	85 c0                	test   %eax,%eax
   10672:	0f 84 b7 00 00 00    	je     1072f <func_34+0x730>
   10678:	8b 05 42 0e 01 00    	mov    0x10e42(%rip),%eax        # 214c0 <g_897>
   1067e:	8d 48 03             	lea    0x3(%rax),%ecx
   10681:	8b 15 39 0e 01 00    	mov    0x10e39(%rip),%edx        # 214c0 <g_897>
   10687:	8b 05 33 0e 01 00    	mov    0x10e33(%rip),%eax        # 214c0 <g_897>
   1068d:	83 c0 01             	add    $0x1,%eax
   10690:	89 c6                	mov    %eax,%esi
   10692:	89 c8                	mov    %ecx,%eax
   10694:	89 d1                	mov    %edx,%ecx
   10696:	48 89 c2             	mov    %rax,%rdx
   10699:	48 01 d2             	add    %rdx,%rdx
   1069c:	48 01 c2             	add    %rax,%rdx
   1069f:	48 8d 04 95 00 00 00 	lea    0x0(,%rdx,4),%rax
   106a6:	00 
   106a7:	48 89 c2             	mov    %rax,%rdx
   106aa:	48 89 c8             	mov    %rcx,%rax
   106ad:	48 01 c0             	add    %rax,%rax
   106b0:	48 01 c8             	add    %rcx,%rax
   106b3:	48 01 c0             	add    %rax,%rax
   106b6:	48 01 d0             	add    %rdx,%rax
   106b9:	48 01 f0             	add    %rsi,%rax
   106bc:	48 8d 14 85 00 00 00 	lea    0x0(,%rax,4),%rdx
   106c3:	00 
   106c4:	48 8d 05 95 0b 01 00 	lea    0x10b95(%rip),%rax        # 21260 <g_119>
   106cb:	8b 04 02             	mov    (%rdx,%rax,1),%eax
   106ce:	8b 15 ec 0d 01 00    	mov    0x10dec(%rip),%edx        # 214c0 <g_897>
   106d4:	44 8d 42 03          	lea    0x3(%rdx),%r8d
   106d8:	8b 35 e2 0d 01 00    	mov    0x10de2(%rip),%esi        # 214c0 <g_897>
   106de:	8b 15 dc 0d 01 00    	mov    0x10ddc(%rip),%edx        # 214c0 <g_897>
   106e4:	83 c2 01             	add    $0x1,%edx
   106e7:	0d 27 a5 cd 7c       	or     $0x7ccda527,%eax
   106ec:	89 c1                	mov    %eax,%ecx
   106ee:	89 d7                	mov    %edx,%edi
   106f0:	44 89 c0             	mov    %r8d,%eax
   106f3:	89 f6                	mov    %esi,%esi
   106f5:	48 89 c2             	mov    %rax,%rdx
   106f8:	48 01 d2             	add    %rdx,%rdx
   106fb:	48 01 c2             	add    %rax,%rdx
   106fe:	48 8d 04 95 00 00 00 	lea    0x0(,%rdx,4),%rax
   10705:	00 
   10706:	48 89 c2             	mov    %rax,%rdx
   10709:	48 89 f0             	mov    %rsi,%rax
   1070c:	48 01 c0             	add    %rax,%rax
   1070f:	48 01 f0             	add    %rsi,%rax
   10712:	48 01 c0             	add    %rax,%rax
   10715:	48 01 d0             	add    %rdx,%rax
   10718:	48 01 f8             	add    %rdi,%rax
   1071b:	48 8d 14 85 00 00 00 	lea    0x0(,%rax,4),%rdx
   10722:	00 
   10723:	48 8d 05 36 0b 01 00 	lea    0x10b36(%rip),%rax        # 21260 <g_119>
   1072a:	89 0c 02             	mov    %ecx,(%rdx,%rax,1)
   1072d:	eb 0c                	jmp    1073b <func_34+0x73c>
   1072f:	0f b6 85 74 fa ff ff 	movzbl -0x58c(%rbp),%eax
   10736:	e9 fa 03 00 00       	jmpq   10b35 <func_34+0xb36>
   1073b:	8b 05 7f 0d 01 00    	mov    0x10d7f(%rip),%eax        # 214c0 <g_897>
   10741:	83 c0 01             	add    $0x1,%eax
   10744:	89 05 76 0d 01 00    	mov    %eax,0x10d76(%rip)        # 214c0 <g_897>
   1074a:	8b 05 70 0d 01 00    	mov    0x10d70(%rip),%eax        # 214c0 <g_897>
   10750:	83 f8 01             	cmp    $0x1,%eax
   10753:	0f 86 04 fd ff ff    	jbe    1045d <func_34+0x45e>
   10759:	0f b7 05 e2 0c 01 00 	movzwl 0x10ce2(%rip),%eax        # 21442 <g_431>
   10760:	83 c0 01             	add    $0x1,%eax
   10763:	66 89 05 d8 0c 01 00 	mov    %ax,0x10cd8(%rip)        # 21442 <g_431>
   1076a:	0f b7 05 d1 0c 01 00 	movzwl 0x10cd1(%rip),%eax        # 21442 <g_431>
   10771:	66 83 f8 07          	cmp    $0x7,%ax
   10775:	0f 86 a5 fc ff ff    	jbe    10420 <func_34+0x421>
   1077b:	48 8b 85 d8 fb ff ff 	mov    -0x428(%rbp),%rax
   10782:	48 89 85 e8 fb ff ff 	mov    %rax,-0x418(%rbp)
   10789:	c6 05 a2 08 01 00 06 	movb   $0x6,0x108a2(%rip)        # 21032 <g_42>
   10790:	e9 5d 03 00 00       	jmpq   10af2 <func_34+0xaf3>
   10795:	48 8d 85 80 fc ff ff 	lea    -0x380(%rbp),%rax
   1079c:	48 8d 15 3d c4 00 00 	lea    0xc43d(%rip),%rdx        # 1cbe0 <g_1542+0xb83>
   107a3:	b9 69 00 00 00       	mov    $0x69,%ecx
   107a8:	48 89 c7             	mov    %rax,%rdi
   107ab:	48 89 d6             	mov    %rdx,%rsi
   107ae:	f3 48 a5             	rep movsq %ds:(%rsi),%es:(%rdi)
   107b1:	c7 85 c8 fa ff ff d8 	movl   $0xa2640d8,-0x538(%rbp)
   107b8:	40 26 0a 
   107bb:	c7 85 cc fa ff ff 74 	movl   $0xfa933b74,-0x534(%rbp)
   107c2:	3b 93 fa 
   107c5:	c7 85 d0 fa ff ff 07 	movl   $0x2b3bea07,-0x530(%rbp)
   107cc:	ea 3b 2b 
   107cf:	c7 85 d4 fa ff ff f9 	movl   $0xfffffff9,-0x52c(%rbp)
   107d6:	ff ff ff 
   107d9:	c7 85 d8 fa ff ff 50 	movl   $0xdd5a0d50,-0x528(%rbp)
   107e0:	0d 5a dd 
   107e3:	c7 85 dc fa ff ff f1 	movl   $0x3a7af2f1,-0x524(%rbp)
   107ea:	f2 7a 3a 
   107ed:	c7 85 e0 fa ff ff 2e 	movl   $0x5be1782e,-0x520(%rbp)
   107f4:	78 e1 5b 
   107f7:	c7 85 80 fb ff ff 00 	movl   $0x0,-0x480(%rbp)
   107fe:	00 00 00 
   10801:	c7 85 84 fb ff ff 00 	movl   $0x0,-0x47c(%rbp)
   10808:	00 00 00 
   1080b:	c7 85 88 fb ff ff ff 	movl   $0xffffffff,-0x478(%rbp)
   10812:	ff ff ff 
   10815:	c7 85 8c fb ff ff 07 	movl   $0x7,-0x474(%rbp)
   1081c:	00 00 00 
   1081f:	c7 85 90 fb ff ff ff 	movl   $0xffffffff,-0x470(%rbp)
   10826:	ff ff ff 
   10829:	c7 85 94 fb ff ff 00 	movl   $0x0,-0x46c(%rbp)
   10830:	00 00 00 
   10833:	c7 85 98 fb ff ff 00 	movl   $0x0,-0x468(%rbp)
   1083a:	00 00 00 
   1083d:	c7 85 9c fb ff ff ff 	movl   $0xffffffff,-0x464(%rbp)
   10844:	ff ff ff 
   10847:	c7 85 a0 fb ff ff 07 	movl   $0x7,-0x460(%rbp)
   1084e:	00 00 00 
   10851:	c7 85 a4 fb ff ff ff 	movl   $0xffffffff,-0x45c(%rbp)
   10858:	ff ff ff 
   1085b:	66 c7 85 54 fb ff ff 	movw   $0x707,-0x4ac(%rbp)
   10862:	07 07 
   10864:	c6 85 56 fb ff ff 07 	movb   $0x7,-0x4aa(%rbp)
   1086b:	66 c7 85 57 fb ff ff 	movw   $0xc810,-0x4a9(%rbp)
   10872:	10 c8 
   10874:	c6 85 59 fb ff ff 10 	movb   $0x10,-0x4a7(%rbp)
   1087b:	66 c7 85 5a fb ff ff 	movw   $0x707,-0x4a6(%rbp)
   10882:	07 07 
   10884:	c6 85 5c fb ff ff 07 	movb   $0x7,-0x4a4(%rbp)
   1088b:	66 c7 85 5d fb ff ff 	movw   $0xc810,-0x4a3(%rbp)
   10892:	10 c8 
   10894:	c6 85 5f fb ff ff 10 	movb   $0x10,-0x4a1(%rbp)
   1089b:	48 c7 05 92 0b 01 00 	movq   $0x5,0x10b92(%rip)        # 21438 <g_289>
   108a2:	05 00 00 00 
   108a6:	e9 17 02 00 00       	jmpq   10ac2 <func_34+0xac3>
   108ab:	66 0f be 85 64 fa ff 	movsbw -0x59c(%rbp),%ax
   108b2:	ff 
   108b3:	0f b7 c0             	movzwl %ax,%eax
   108b6:	be 04 00 00 00       	mov    $0x4,%esi
   108bb:	89 c7                	mov    %eax,%edi
   108bd:	e8 fc a4 ff ff       	callq  adbe <safe_lshift_func_uint16_t_u_s>
   108c2:	66 85 c0             	test   %ax,%ax
   108c5:	0f 84 b1 01 00 00    	je     10a7c <func_34+0xa7d>
   108cb:	48 c7 85 10 fb ff ff 	movq   $0x0,-0x4f0(%rbp)
   108d2:	00 00 00 00 
   108d6:	48 8d 05 43 23 01 00 	lea    0x12343(%rip),%rax        # 22c20 <g_487>
   108dd:	48 89 85 e8 fa ff ff 	mov    %rax,-0x518(%rbp)
   108e4:	48 8d 85 e8 fa ff ff 	lea    -0x518(%rbp),%rax
   108eb:	48 89 85 18 fb ff ff 	mov    %rax,-0x4e8(%rbp)
   108f2:	c7 85 e4 fa ff ff 01 	movl   $0x1,-0x51c(%rbp)
   108f9:	00 00 00 
   108fc:	48 8d 05 bd 0b 01 00 	lea    0x10bbd(%rip),%rax        # 214c0 <g_897>
   10903:	48 89 85 20 fb ff ff 	mov    %rax,-0x4e0(%rbp)
   1090a:	0f be 9d 64 fa ff ff 	movsbl -0x59c(%rbp),%ebx
   10911:	4c 0f be a5 64 fa ff 	movsbq -0x59c(%rbp),%r12
   10918:	ff 
   10919:	44 0f be ad 64 fa ff 	movsbl -0x59c(%rbp),%r13d
   10920:	ff 
   10921:	8b 85 a8 fa ff ff    	mov    -0x558(%rbp),%eax
   10927:	25 71 f1 00 00       	and    $0xf171,%eax
   1092c:	89 c2                	mov    %eax,%edx
   1092e:	0f be 85 64 fa ff ff 	movsbl -0x59c(%rbp),%eax
   10935:	89 d6                	mov    %edx,%esi
   10937:	89 c7                	mov    %eax,%edi
   10939:	e8 ec 9b ff ff       	callq  a52a <safe_rshift_func_int16_t_s_s>
   1093e:	0f bf d0             	movswl %ax,%edx
   10941:	48 8b 85 f8 fa ff ff 	mov    -0x508(%rbp),%rax
   10948:	48 8b 00             	mov    (%rax),%rax
   1094b:	48 8b 00             	mov    (%rax),%rax
   1094e:	c7 00 ff ff ff ff    	movl   $0xffffffff,(%rax)
   10954:	8b 00                	mov    (%rax),%eax
   10956:	89 d6                	mov    %edx,%esi
   10958:	89 c7                	mov    %eax,%edi
   1095a:	e8 9e a5 ff ff       	callq  aefd <safe_mod_func_uint32_t_u_u>
   1095f:	89 c0                	mov    %eax,%eax
   10961:	25 e7 52 8f e8       	and    $0xe88f52e7,%eax
   10966:	48 89 c2             	mov    %rax,%rdx
   10969:	48 8b 05 28 33 01 00 	mov    0x13328(%rip),%rax        # 23c98 <g_1050>
   10970:	48 8b 00             	mov    (%rax),%rax
   10973:	48 39 c2             	cmp    %rax,%rdx
   10976:	0f 94 c0             	sete   %al
   10979:	0f b6 c0             	movzbl %al,%eax
   1097c:	44 89 ee             	mov    %r13d,%esi
   1097f:	89 c7                	mov    %eax,%edi
   10981:	e8 2d 9a ff ff       	callq  a3b3 <safe_add_func_int16_t_s_s>
   10986:	4c 89 e6             	mov    %r12,%rsi
   10989:	bf 01 00 00 00       	mov    $0x1,%edi
   1098e:	e8 21 a0 ff ff       	callq  a9b4 <safe_mod_func_int64_t_s_s>
   10993:	48 85 c0             	test   %rax,%rax
   10996:	75 0a                	jne    109a2 <func_34+0x9a3>
   10998:	8b 85 30 fc ff ff    	mov    -0x3d0(%rbp),%eax
   1099e:	85 c0                	test   %eax,%eax
   109a0:	74 07                	je     109a9 <func_34+0x9aa>
   109a2:	b8 01 00 00 00       	mov    $0x1,%eax
   109a7:	eb 05                	jmp    109ae <func_34+0x9af>
   109a9:	b8 00 00 00 00       	mov    $0x0,%eax
   109ae:	44 0f be e0          	movsbl %al,%r12d
   109b2:	0f be 95 64 fa ff ff 	movsbl -0x59c(%rbp),%edx
   109b9:	48 8b 05 70 22 01 00 	mov    0x12270(%rip),%rax        # 22c30 <g_566>
   109c0:	0f b7 00             	movzwl (%rax),%eax
   109c3:	98                   	cwtl   
   109c4:	89 d6                	mov    %edx,%esi
   109c6:	89 c7                	mov    %eax,%edi
   109c8:	e8 49 9a ff ff       	callq  a416 <safe_mod_func_int16_t_s_s>
   109cd:	0f be c0             	movsbl %al,%eax
   109d0:	44 89 e6             	mov    %r12d,%esi
   109d3:	89 c7                	mov    %eax,%edi
   109d5:	e8 38 98 ff ff       	callq  a212 <safe_mul_func_int8_t_s_s>
   109da:	8b 95 e4 fa ff ff    	mov    -0x51c(%rbp),%edx
   109e0:	48 8b 85 20 fb ff ff 	mov    -0x4e0(%rbp),%rax
   109e7:	89 10                	mov    %edx,(%rax)
   109e9:	48 8b 85 20 fb ff ff 	mov    -0x4e0(%rbp),%rax
   109f0:	8b 00                	mov    (%rax),%eax
   109f2:	83 e0 01             	and    $0x1,%eax
   109f5:	48 8b 95 18 fb ff ff 	mov    -0x4e8(%rbp),%rdx
   109fc:	48 8d 0d 1d 22 01 00 	lea    0x1221d(%rip),%rcx        # 22c20 <g_487>
   10a03:	48 89 0a             	mov    %rcx,(%rdx)
   10a06:	89 c6                	mov    %eax,%esi
   10a08:	bf 01 00 00 00       	mov    $0x1,%edi
   10a0d:	e8 a4 9b ff ff       	callq  a5b6 <safe_add_func_int32_t_s_s>
   10a12:	48 8b 95 f0 fa ff ff 	mov    -0x510(%rbp),%rdx
   10a19:	0f b7 12             	movzwl (%rdx),%edx
   10a1c:	31 c2                	xor    %eax,%edx
   10a1e:	48 8b 85 f0 fa ff ff 	mov    -0x510(%rbp),%rax
   10a25:	66 89 10             	mov    %dx,(%rax)
   10a28:	48 8b 85 f0 fa ff ff 	mov    -0x510(%rbp),%rax
   10a2f:	0f b7 00             	movzwl (%rax),%eax
   10a32:	66 85 c0             	test   %ax,%ax
   10a35:	0f 9e c0             	setle  %al
   10a38:	0f b6 c0             	movzbl %al,%eax
   10a3b:	89 de                	mov    %ebx,%esi
   10a3d:	89 c7                	mov    %eax,%edi
   10a3f:	e8 e1 a4 ff ff       	callq  af25 <safe_div_func_uint32_t_u_u>
   10a44:	48 8b 15 ed 09 01 00 	mov    0x109ed(%rip),%rdx        # 21438 <g_289>
   10a4b:	48 8d 0c 95 00 00 00 	lea    0x0(,%rdx,4),%rcx
   10a52:	00 
   10a53:	48 8d 15 e6 05 01 00 	lea    0x105e6(%rip),%rdx        # 21040 <g_62>
   10a5a:	8b 14 11             	mov    (%rcx,%rdx,1),%edx
   10a5d:	09 c2                	or     %eax,%edx
   10a5f:	48 8b 05 d2 09 01 00 	mov    0x109d2(%rip),%rax        # 21438 <g_289>
   10a66:	89 d1                	mov    %edx,%ecx
   10a68:	48 8d 14 85 00 00 00 	lea    0x0(,%rax,4),%rdx
   10a6f:	00 
   10a70:	48 8d 05 c9 05 01 00 	lea    0x105c9(%rip),%rax        # 21040 <g_62>
   10a77:	89 0c 02             	mov    %ecx,(%rdx,%rax,1)
   10a7a:	eb 34                	jmp    10ab0 <func_34+0xab1>
   10a7c:	c6 85 75 fa ff ff 01 	movb   $0x1,-0x58b(%rbp)
   10a83:	8b 45 90             	mov    -0x70(%rbp),%eax
   10a86:	0f b7 c0             	movzwl %ax,%eax
   10a89:	89 c6                	mov    %eax,%esi
   10a8b:	bf 18 d3 00 00       	mov    $0xd318,%edi
   10a90:	e8 a8 a2 ff ff       	callq  ad3d <safe_mul_func_uint16_t_u_u>
   10a95:	88 45 d4             	mov    %al,-0x2c(%rbp)
   10a98:	0f b6 85 75 fa ff ff 	movzbl -0x58b(%rbp),%eax
   10a9f:	30 85 73 fa ff ff    	xor    %al,-0x58d(%rbp)
   10aa5:	48 8b 05 54 21 01 00 	mov    0x12154(%rip),%rax        # 22c00 <g_376>
   10aac:	8b 00                	mov    (%rax),%eax
   10aae:	85 c0                	test   %eax,%eax
   10ab0:	48 8b 05 81 09 01 00 	mov    0x10981(%rip),%rax        # 21438 <g_289>
   10ab7:	48 83 e8 01          	sub    $0x1,%rax
   10abb:	48 89 05 76 09 01 00 	mov    %rax,0x10976(%rip)        # 21438 <g_289>
   10ac2:	48 8b 05 6f 09 01 00 	mov    0x1096f(%rip),%rax        # 21438 <g_289>
   10ac9:	48 85 c0             	test   %rax,%rax
   10acc:	0f 89 d9 fd ff ff    	jns    108ab <func_34+0x8ac>
   10ad2:	0f b6 85 5b fb ff ff 	movzbl -0x4a5(%rbp),%eax
   10ad9:	83 c0 01             	add    $0x1,%eax
   10adc:	88 85 5b fb ff ff    	mov    %al,-0x4a5(%rbp)
   10ae2:	0f b6 05 49 05 01 00 	movzbl 0x10549(%rip),%eax        # 21032 <g_42>
   10ae9:	83 e8 01             	sub    $0x1,%eax
   10aec:	88 05 40 05 01 00    	mov    %al,0x10540(%rip)        # 21032 <g_42>
   10af2:	0f b6 05 39 05 01 00 	movzbl 0x10539(%rip),%eax        # 21032 <g_42>
   10af9:	84 c0                	test   %al,%al
   10afb:	0f 89 94 fc ff ff    	jns    10795 <func_34+0x796>
   10b01:	0f b6 85 64 fa ff ff 	movzbl -0x59c(%rbp),%eax
   10b08:	83 e8 01             	sub    $0x1,%eax
   10b0b:	88 85 64 fa ff ff    	mov    %al,-0x59c(%rbp)
   10b11:	80 bd 64 fa ff ff 00 	cmpb   $0x0,-0x59c(%rbp)
   10b18:	0f 8f 30 f8 ff ff    	jg     1034e <func_34+0x34f>
   10b1e:	48 8b 05 e3 20 01 00 	mov    0x120e3(%rip),%rax        # 22c08 <g_382>
   10b25:	48 8d 95 7c fa ff ff 	lea    -0x584(%rbp),%rdx
   10b2c:	48 89 10             	mov    %rdx,(%rax)
   10b2f:	8b 85 24 fc ff ff    	mov    -0x3dc(%rbp),%eax
   10b35:	48 8b 5d d8          	mov    -0x28(%rbp),%rbx
   10b39:	64 48 33 1c 25 28 00 	xor    %fs:0x28,%rbx
   10b40:	00 00 
   10b42:	74 05                	je     10b49 <func_34+0xb4a>
   10b44:	e8 27 95 ff ff       	callq  a070 <__stack_chk_fail@plt>
   10b49:	48 81 c4 90 05 00 00 	add    $0x590,%rsp
   10b50:	5b                   	pop    %rbx
   10b51:	41 5c                	pop    %r12
   10b53:	41 5d                	pop    %r13
   10b55:	41 5e                	pop    %r14
   10b57:	5d                   	pop    %rbp
   10b58:	c3                   	retq   

0000000000010b59 <func_49>:
   10b59:	f3 0f 1e fa          	endbr64 
   10b5d:	55                   	push   %rbp
   10b5e:	48 89 e5             	mov    %rsp,%rbp
   10b61:	41 57                	push   %r15
   10b63:	41 56                	push   %r14
   10b65:	41 55                	push   %r13
   10b67:	41 54                	push   %r12
   10b69:	53                   	push   %rbx
   10b6a:	48 81 ec b8 0e 00 00 	sub    $0xeb8,%rsp
   10b71:	48 89 bd 38 f1 ff ff 	mov    %rdi,-0xec8(%rbp)
   10b78:	64 48 8b 04 25 28 00 	mov    %fs:0x28,%rax
   10b7f:	00 00 
   10b81:	48 89 45 c8          	mov    %rax,-0x38(%rbp)
   10b85:	31 c0                	xor    %eax,%eax
   10b87:	48 c7 85 c0 f1 ff ff 	movq   $0x0,-0xe40(%rbp)
   10b8e:	00 00 00 00 
   10b92:	c7 85 60 f3 ff ff ff 	movl   $0xffffffff,-0xca0(%rbp)
   10b99:	ff ff ff 
   10b9c:	c7 85 64 f3 ff ff ff 	movl   $0xffffffff,-0xc9c(%rbp)
   10ba3:	ff ff ff 
   10ba6:	c7 85 68 f3 ff ff ff 	movl   $0xffffffff,-0xc98(%rbp)
   10bad:	ff ff ff 
   10bb0:	c7 85 6c f3 ff ff ff 	movl   $0xffffffff,-0xc94(%rbp)
   10bb7:	ff ff ff 
   10bba:	48 8d 05 ff 09 01 00 	lea    0x109ff(%rip),%rax        # 215c0 <g_1028>
   10bc1:	48 89 85 08 f2 ff ff 	mov    %rax,-0xdf8(%rbp)
   10bc8:	c7 85 a0 f3 ff ff f9 	movl   $0xfffffff9,-0xc60(%rbp)
   10bcf:	ff ff ff 
   10bd2:	c7 85 a4 f3 ff ff fb 	movl   $0xfffffffb,-0xc5c(%rbp)
   10bd9:	ff ff ff 
   10bdc:	c7 85 a8 f3 ff ff fb 	movl   $0xfffffffb,-0xc58(%rbp)
   10be3:	ff ff ff 
   10be6:	c7 85 ac f3 ff ff f9 	movl   $0xfffffff9,-0xc54(%rbp)
   10bed:	ff ff ff 
   10bf0:	c7 85 b0 f3 ff ff fb 	movl   $0xfffffffb,-0xc50(%rbp)
   10bf7:	ff ff ff 
   10bfa:	c7 85 b4 f3 ff ff fb 	movl   $0xfffffffb,-0xc4c(%rbp)
   10c01:	ff ff ff 
   10c04:	c7 85 b8 f3 ff ff f9 	movl   $0xfffffff9,-0xc48(%rbp)
   10c0b:	ff ff ff 
   10c0e:	c7 85 bc f3 ff ff fb 	movl   $0xfffffffb,-0xc44(%rbp)
   10c15:	ff ff ff 
   10c18:	c7 85 c0 f3 ff ff fb 	movl   $0xfffffffb,-0xc40(%rbp)
   10c1f:	ff ff ff 
   10c22:	48 c7 85 10 f2 ff ff 	movq   $0x0,-0xdf0(%rbp)
   10c29:	00 00 00 00 
   10c2d:	48 8d 05 cc 31 01 00 	lea    0x131cc(%rip),%rax        # 23e00 <g_1957>
   10c34:	48 89 85 c8 f1 ff ff 	mov    %rax,-0xe38(%rbp)
   10c3b:	c6 85 41 f1 ff ff 48 	movb   $0x48,-0xebf(%rbp)
   10c42:	48 8d 05 bf 06 01 00 	lea    0x106bf(%rip),%rax        # 21308 <g_119+0xa8>
   10c49:	48 89 85 18 f2 ff ff 	mov    %rax,-0xde8(%rbp)
   10c50:	66 c7 85 4e f1 ff ff 	movw   $0xffff,-0xeb2(%rbp)
   10c57:	ff ff 
   10c59:	c6 05 65 09 01 00 02 	movb   $0x2,0x10965(%rip)        # 215c5 <g_1486>
   10c60:	e9 f8 13 00 00       	jmpq   1205d <func_49+0x1504>
   10c65:	c7 85 54 f1 ff ff 76 	movl   $0xb01cd376,-0xeac(%rbp)
   10c6c:	d3 1c b0 
   10c6f:	48 8d 05 2a 30 01 00 	lea    0x1302a(%rip),%rax        # 23ca0 <g_1051>
   10c76:	48 89 85 a8 f2 ff ff 	mov    %rax,-0xd58(%rbp)
   10c7d:	48 8d 05 9c 1f 01 00 	lea    0x11f9c(%rip),%rax        # 22c20 <g_487>
   10c84:	48 89 85 d0 f1 ff ff 	mov    %rax,-0xe30(%rbp)
   10c8b:	48 8d 85 d0 f1 ff ff 	lea    -0xe30(%rbp),%rax
   10c92:	48 89 85 b0 f2 ff ff 	mov    %rax,-0xd50(%rbp)
   10c99:	c7 85 ac f1 ff ff 04 	movl   $0x4,-0xe54(%rbp)
   10ca0:	00 00 00 
   10ca3:	c7 85 58 f1 ff ff 6f 	movl   $0x5d79f46f,-0xea8(%rbp)
   10caa:	f4 79 5d 
   10cad:	c7 85 6c f1 ff ff 59 	movl   $0xd1a2ce59,-0xe94(%rbp)
   10cb4:	ce a2 d1 
   10cb7:	c7 85 5c f1 ff ff ff 	movl   $0xffffffff,-0xea4(%rbp)
   10cbe:	ff ff ff 
   10cc1:	66 c7 85 46 f1 ff ff 	movw   $0xe45d,-0xeba(%rbp)
   10cc8:	5d e4 
   10cca:	c7 85 60 f1 ff ff 01 	movl   $0xbb361e01,-0xea0(%rbp)
   10cd1:	1e 36 bb 
   10cd4:	c7 85 b0 f1 ff ff 18 	movl   $0x2c55f918,-0xe50(%rbp)
   10cdb:	f9 55 2c 
   10cde:	c7 85 64 f1 ff ff 21 	movl   $0x41634921,-0xe9c(%rbp)
   10ce5:	49 63 41 
   10ce8:	c7 85 b4 f1 ff ff ff 	movl   $0xffffffff,-0xe4c(%rbp)
   10cef:	ff ff ff 
   10cf2:	c7 85 b8 f1 ff ff 00 	movl   $0x0,-0xe48(%rbp)
   10cf9:	00 00 00 
   10cfc:	48 c7 85 b8 f2 ff ff 	movq   $0x7,-0xd48(%rbp)
   10d03:	07 00 00 00 
   10d07:	c6 85 44 f1 ff ff f9 	movb   $0xf9,-0xebc(%rbp)
   10d0e:	48 8d 85 40 f8 ff ff 	lea    -0x7c0(%rbp),%rax
   10d15:	48 8d 15 24 0b 01 00 	lea    0x10b24(%rip),%rdx        # 21840 <g_3040+0x14c>
   10d1c:	b9 f0 00 00 00       	mov    $0xf0,%ecx
   10d21:	48 89 c7             	mov    %rax,%rdi
   10d24:	48 89 d6             	mov    %rdx,%rsi
   10d27:	f3 48 a5             	rep movsq %ds:(%rsi),%es:(%rdi)
   10d2a:	48 8d 05 8f 08 01 00 	lea    0x1088f(%rip),%rax        # 215c0 <g_1028>
   10d31:	48 89 85 c0 f2 ff ff 	mov    %rax,-0xd40(%rbp)
   10d38:	c7 85 bc f1 ff ff 72 	movl   $0xab7fc172,-0xe44(%rbp)
   10d3f:	c1 7f ab 
   10d42:	48 8b 05 bf 1e 01 00 	mov    0x11ebf(%rip),%rax        # 22c08 <g_382>
   10d49:	48 c7 00 00 00 00 00 	movq   $0x0,(%rax)
   10d50:	48 8b 85 c0 f1 ff ff 	mov    -0xe40(%rbp),%rax
   10d57:	48 85 c0             	test   %rax,%rax
   10d5a:	74 13                	je     10d6f <func_49+0x216>
   10d5c:	48 8b 85 c0 f1 ff ff 	mov    -0xe40(%rbp),%rax
   10d63:	48 85 c0             	test   %rax,%rax
   10d66:	74 07                	je     10d6f <func_49+0x216>
   10d68:	ba 01 00 00 00       	mov    $0x1,%edx
   10d6d:	eb 05                	jmp    10d74 <func_49+0x21b>
   10d6f:	ba 00 00 00 00       	mov    $0x0,%edx
   10d74:	8b 85 54 f1 ff ff    	mov    -0xeac(%rbp),%eax
   10d7a:	89 d6                	mov    %edx,%esi
   10d7c:	89 c7                	mov    %eax,%edi
   10d7e:	e8 82 98 ff ff       	callq  a605 <safe_sub_func_int32_t_s_s>
   10d83:	48 8b 85 a8 f2 ff ff 	mov    -0xd58(%rbp),%rax
   10d8a:	48 8d 95 c0 f1 ff ff 	lea    -0xe40(%rbp),%rdx
   10d91:	48 89 10             	mov    %rdx,(%rax)
   10d94:	48 8b 05 8d 1e 01 00 	mov    0x11e8d(%rip),%rax        # 22c28 <g_486>
   10d9b:	48 8b 00             	mov    (%rax),%rax
   10d9e:	0f b6 00             	movzbl (%rax),%eax
   10da1:	84 c0                	test   %al,%al
   10da3:	0f 95 c2             	setne  %dl
   10da6:	48 8b 05 8b 1e 01 00 	mov    0x11e8b(%rip),%rax        # 22c38 <g_712>
   10dad:	48 8b 00             	mov    (%rax),%rax
   10db0:	48 8b 00             	mov    (%rax),%rax
   10db3:	88 10                	mov    %dl,(%rax)
   10db5:	0f b6 00             	movzbl (%rax),%eax
   10db8:	0f b6 d0             	movzbl %al,%edx
   10dbb:	48 8b 85 c0 f1 ff ff 	mov    -0xe40(%rbp),%rax
   10dc2:	48 39 c2             	cmp    %rax,%rdx
   10dc5:	0f 96 c0             	setbe  %al
   10dc8:	0f b6 c0             	movzbl %al,%eax
   10dcb:	48 8b 95 c0 f1 ff ff 	mov    -0xe40(%rbp),%rdx
   10dd2:	89 c6                	mov    %eax,%esi
   10dd4:	89 d7                	mov    %edx,%edi
   10dd6:	e8 2a 98 ff ff       	callq  a605 <safe_sub_func_int32_t_s_s>
   10ddb:	98                   	cwtl   
   10ddc:	be 0a 00 00 00       	mov    $0xa,%esi
   10de1:	89 c7                	mov    %eax,%edi
   10de3:	e8 aa 96 ff ff       	callq  a492 <safe_lshift_func_int16_t_s_s>
   10de8:	8b 15 5a 02 01 00    	mov    0x1025a(%rip),%edx        # 21048 <g_62+0x8>
   10dee:	98                   	cwtl   
   10def:	31 d0                	xor    %edx,%eax
   10df1:	89 05 51 02 01 00    	mov    %eax,0x10251(%rip)        # 21048 <g_62+0x8>
   10df7:	48 8b 85 c0 f1 ff ff 	mov    -0xe40(%rbp),%rax
   10dfe:	48 85 c0             	test   %rax,%rax
   10e01:	0f 84 20 05 00 00    	je     11327 <func_49+0x7ce>
   10e07:	48 8d 05 a2 06 01 00 	lea    0x106a2(%rip),%rax        # 214b0 <g_627>
   10e0e:	48 89 85 48 f3 ff ff 	mov    %rax,-0xcb8(%rbp)
   10e15:	48 8d 05 34 06 01 00 	lea    0x10634(%rip),%rax        # 21450 <g_547>
   10e1c:	48 89 85 50 f3 ff ff 	mov    %rax,-0xcb0(%rbp)
   10e23:	48 8d 05 16 02 01 00 	lea    0x10216(%rip),%rax        # 21040 <g_62>
   10e2a:	48 89 85 58 f3 ff ff 	mov    %rax,-0xca8(%rbp)
   10e31:	48 8d 05 78 06 01 00 	lea    0x10678(%rip),%rax        # 214b0 <g_627>
   10e38:	48 89 85 70 f5 ff ff 	mov    %rax,-0xa90(%rbp)
   10e3f:	48 8d 05 c6 04 01 00 	lea    0x104c6(%rip),%rax        # 2130c <g_119+0xac>
   10e46:	48 89 85 78 f5 ff ff 	mov    %rax,-0xa88(%rbp)
   10e4d:	48 8d 05 5c 06 01 00 	lea    0x1065c(%rip),%rax        # 214b0 <g_627>
   10e54:	48 89 85 80 f5 ff ff 	mov    %rax,-0xa80(%rbp)
   10e5b:	48 8d 05 aa 04 01 00 	lea    0x104aa(%rip),%rax        # 2130c <g_119+0xac>
   10e62:	48 89 85 88 f5 ff ff 	mov    %rax,-0xa78(%rbp)
   10e69:	48 c7 85 90 f5 ff ff 	movq   $0x0,-0xa70(%rbp)
   10e70:	00 00 00 00 
   10e74:	48 8d 85 54 f1 ff ff 	lea    -0xeac(%rbp),%rax
   10e7b:	48 89 85 98 f5 ff ff 	mov    %rax,-0xa68(%rbp)
   10e82:	48 8d 05 83 04 01 00 	lea    0x10483(%rip),%rax        # 2130c <g_119+0xac>
   10e89:	48 89 85 a0 f5 ff ff 	mov    %rax,-0xa60(%rbp)
   10e90:	48 8d 05 75 04 01 00 	lea    0x10475(%rip),%rax        # 2130c <g_119+0xac>
   10e97:	48 89 85 a8 f5 ff ff 	mov    %rax,-0xa58(%rbp)
   10e9e:	48 8d 05 af 01 01 00 	lea    0x101af(%rip),%rax        # 21054 <g_62+0x14>
   10ea5:	48 89 85 b0 f5 ff ff 	mov    %rax,-0xa50(%rbp)
   10eac:	48 8d 05 fd 05 01 00 	lea    0x105fd(%rip),%rax        # 214b0 <g_627>
   10eb3:	48 89 85 b8 f5 ff ff 	mov    %rax,-0xa48(%rbp)
   10eba:	48 8d 85 60 f3 ff ff 	lea    -0xca0(%rbp),%rax
   10ec1:	48 89 85 c0 f5 ff ff 	mov    %rax,-0xa40(%rbp)
   10ec8:	48 8d 85 54 f1 ff ff 	lea    -0xeac(%rbp),%rax
   10ecf:	48 89 85 c8 f5 ff ff 	mov    %rax,-0xa38(%rbp)
   10ed6:	48 8d 05 d3 05 01 00 	lea    0x105d3(%rip),%rax        # 214b0 <g_627>
   10edd:	48 89 85 d0 f5 ff ff 	mov    %rax,-0xa30(%rbp)
   10ee4:	48 8d 85 54 f1 ff ff 	lea    -0xeac(%rbp),%rax
   10eeb:	48 89 85 d8 f5 ff ff 	mov    %rax,-0xa28(%rbp)
   10ef2:	48 8d 05 b7 05 01 00 	lea    0x105b7(%rip),%rax        # 214b0 <g_627>
   10ef9:	48 89 85 e0 f5 ff ff 	mov    %rax,-0xa20(%rbp)
   10f00:	48 8d 05 3d 01 01 00 	lea    0x1013d(%rip),%rax        # 21044 <g_62+0x4>
   10f07:	48 89 85 e8 f5 ff ff 	mov    %rax,-0xa18(%rbp)
   10f0e:	48 8d 05 9b 05 01 00 	lea    0x1059b(%rip),%rax        # 214b0 <g_627>
   10f15:	48 89 85 f0 f5 ff ff 	mov    %rax,-0xa10(%rbp)
   10f1c:	48 8d 85 54 f1 ff ff 	lea    -0xeac(%rbp),%rax
   10f23:	48 89 85 f8 f5 ff ff 	mov    %rax,-0xa08(%rbp)
   10f2a:	48 8d 05 7f 05 01 00 	lea    0x1057f(%rip),%rax        # 214b0 <g_627>
   10f31:	48 89 85 00 f6 ff ff 	mov    %rax,-0xa00(%rbp)
   10f38:	48 c7 85 08 f6 ff ff 	movq   $0x0,-0x9f8(%rbp)
   10f3f:	00 00 00 00 
   10f43:	48 c7 85 10 f6 ff ff 	movq   $0x0,-0x9f0(%rbp)
   10f4a:	00 00 00 00 
   10f4e:	48 8d 05 ff 00 01 00 	lea    0x100ff(%rip),%rax        # 21054 <g_62+0x14>
   10f55:	48 89 85 18 f6 ff ff 	mov    %rax,-0x9e8(%rbp)
   10f5c:	48 c7 85 20 f6 ff ff 	movq   $0x0,-0x9e0(%rbp)
   10f63:	00 00 00 00 
   10f67:	48 8d 05 d6 00 01 00 	lea    0x100d6(%rip),%rax        # 21044 <g_62+0x4>
   10f6e:	48 89 85 28 f6 ff ff 	mov    %rax,-0x9d8(%rbp)
   10f75:	48 8d 05 d8 00 01 00 	lea    0x100d8(%rip),%rax        # 21054 <g_62+0x14>
   10f7c:	48 89 85 30 f6 ff ff 	mov    %rax,-0x9d0(%rbp)
   10f83:	48 8d 85 60 f3 ff ff 	lea    -0xca0(%rbp),%rax
   10f8a:	48 89 85 38 f6 ff ff 	mov    %rax,-0x9c8(%rbp)
   10f91:	48 8d 05 bc 00 01 00 	lea    0x100bc(%rip),%rax        # 21054 <g_62+0x14>
   10f98:	48 89 85 40 f6 ff ff 	mov    %rax,-0x9c0(%rbp)
   10f9f:	48 8d 85 60 f3 ff ff 	lea    -0xca0(%rbp),%rax
   10fa6:	48 83 c0 04          	add    $0x4,%rax
   10faa:	48 89 85 48 f6 ff ff 	mov    %rax,-0x9b8(%rbp)
   10fb1:	48 8d 05 9c 00 01 00 	lea    0x1009c(%rip),%rax        # 21054 <g_62+0x14>
   10fb8:	48 89 85 50 f6 ff ff 	mov    %rax,-0x9b0(%rbp)
   10fbf:	48 c7 85 58 f6 ff ff 	movq   $0x0,-0x9a8(%rbp)
   10fc6:	00 00 00 00 
   10fca:	48 8d 85 54 f1 ff ff 	lea    -0xeac(%rbp),%rax
   10fd1:	48 89 85 60 f6 ff ff 	mov    %rax,-0x9a0(%rbp)
   10fd8:	48 8d 85 60 f3 ff ff 	lea    -0xca0(%rbp),%rax
   10fdf:	48 89 85 68 f6 ff ff 	mov    %rax,-0x998(%rbp)
   10fe6:	48 8d 05 c3 04 01 00 	lea    0x104c3(%rip),%rax        # 214b0 <g_627>
   10fed:	48 89 85 70 f6 ff ff 	mov    %rax,-0x990(%rbp)
   10ff4:	48 8d 85 54 f1 ff ff 	lea    -0xeac(%rbp),%rax
   10ffb:	48 89 85 78 f6 ff ff 	mov    %rax,-0x988(%rbp)
   11002:	48 c7 85 80 f6 ff ff 	movq   $0x0,-0x980(%rbp)
   11009:	00 00 00 00 
   1100d:	48 8d 05 40 00 01 00 	lea    0x10040(%rip),%rax        # 21054 <g_62+0x14>
   11014:	48 89 85 88 f6 ff ff 	mov    %rax,-0x978(%rbp)
   1101b:	48 8d 05 22 00 01 00 	lea    0x10022(%rip),%rax        # 21044 <g_62+0x4>
   11022:	48 89 85 90 f6 ff ff 	mov    %rax,-0x970(%rbp)
   11029:	48 8d 05 dc 02 01 00 	lea    0x102dc(%rip),%rax        # 2130c <g_119+0xac>
   11030:	48 89 85 98 f6 ff ff 	mov    %rax,-0x968(%rbp)
   11037:	48 c7 85 a0 f6 ff ff 	movq   $0x0,-0x960(%rbp)
   1103e:	00 00 00 00 
   11042:	48 8d 05 07 04 01 00 	lea    0x10407(%rip),%rax        # 21450 <g_547>
   11049:	48 89 85 a8 f6 ff ff 	mov    %rax,-0x958(%rbp)
   11050:	48 c7 85 b0 f6 ff ff 	movq   $0x0,-0x950(%rbp)
   11057:	00 00 00 00 
   1105b:	48 8d 85 60 f3 ff ff 	lea    -0xca0(%rbp),%rax
   11062:	48 89 85 b8 f6 ff ff 	mov    %rax,-0x948(%rbp)
   11069:	48 c7 85 c0 f6 ff ff 	movq   $0x0,-0x940(%rbp)
   11070:	00 00 00 00 
   11074:	48 8d 85 60 f3 ff ff 	lea    -0xca0(%rbp),%rax
   1107b:	48 89 85 c8 f6 ff ff 	mov    %rax,-0x938(%rbp)
   11082:	48 8d 05 83 02 01 00 	lea    0x10283(%rip),%rax        # 2130c <g_119+0xac>
   11089:	48 89 85 d0 f6 ff ff 	mov    %rax,-0x930(%rbp)
   11090:	48 8d 05 19 04 01 00 	lea    0x10419(%rip),%rax        # 214b0 <g_627>
   11097:	48 89 85 d8 f6 ff ff 	mov    %rax,-0x928(%rbp)
   1109e:	48 c7 85 e0 f6 ff ff 	movq   $0x0,-0x920(%rbp)
   110a5:	00 00 00 00 
   110a9:	48 8d 85 54 f1 ff ff 	lea    -0xeac(%rbp),%rax
   110b0:	48 89 85 e8 f6 ff ff 	mov    %rax,-0x918(%rbp)
   110b7:	48 8d 05 4e 02 01 00 	lea    0x1024e(%rip),%rax        # 2130c <g_119+0xac>
   110be:	48 89 85 f0 f6 ff ff 	mov    %rax,-0x910(%rbp)
   110c5:	48 8d 85 54 f1 ff ff 	lea    -0xeac(%rbp),%rax
   110cc:	48 89 85 f8 f6 ff ff 	mov    %rax,-0x908(%rbp)
   110d3:	48 c7 85 00 f7 ff ff 	movq   $0x0,-0x900(%rbp)
   110da:	00 00 00 00 
   110de:	48 c7 85 08 f7 ff ff 	movq   $0x0,-0x8f8(%rbp)
   110e5:	00 00 00 00 
   110e9:	48 8d 85 54 f1 ff ff 	lea    -0xeac(%rbp),%rax
   110f0:	48 89 85 10 f7 ff ff 	mov    %rax,-0x8f0(%rbp)
   110f7:	48 8d 05 0e 02 01 00 	lea    0x1020e(%rip),%rax        # 2130c <g_119+0xac>
   110fe:	48 89 85 18 f7 ff ff 	mov    %rax,-0x8e8(%rbp)
   11105:	48 8d 05 48 ff 00 00 	lea    0xff48(%rip),%rax        # 21054 <g_62+0x14>
   1110c:	48 89 85 20 f7 ff ff 	mov    %rax,-0x8e0(%rbp)
   11113:	48 c7 85 28 f7 ff ff 	movq   $0x0,-0x8d8(%rbp)
   1111a:	00 00 00 00 
   1111e:	48 8d 05 2f ff 00 00 	lea    0xff2f(%rip),%rax        # 21054 <g_62+0x14>
   11125:	48 89 85 30 f7 ff ff 	mov    %rax,-0x8d0(%rbp)
   1112c:	48 c7 85 38 f7 ff ff 	movq   $0x0,-0x8c8(%rbp)
   11133:	00 00 00 00 
   11137:	48 8d 85 54 f1 ff ff 	lea    -0xeac(%rbp),%rax
   1113e:	48 89 85 40 f7 ff ff 	mov    %rax,-0x8c0(%rbp)
   11145:	48 c7 85 48 f7 ff ff 	movq   $0x0,-0x8b8(%rbp)
   1114c:	00 00 00 00 
   11150:	48 8d 05 59 03 01 00 	lea    0x10359(%rip),%rax        # 214b0 <g_627>
   11157:	48 89 85 50 f7 ff ff 	mov    %rax,-0x8b0(%rbp)
   1115e:	48 8d 05 ef fe 00 00 	lea    0xfeef(%rip),%rax        # 21054 <g_62+0x14>
   11165:	48 89 85 58 f7 ff ff 	mov    %rax,-0x8a8(%rbp)
   1116c:	48 8d 05 e1 fe 00 00 	lea    0xfee1(%rip),%rax        # 21054 <g_62+0x14>
   11173:	48 89 85 60 f7 ff ff 	mov    %rax,-0x8a0(%rbp)
   1117a:	48 8d 05 cf 02 01 00 	lea    0x102cf(%rip),%rax        # 21450 <g_547>
   11181:	48 89 85 68 f7 ff ff 	mov    %rax,-0x898(%rbp)
   11188:	48 8d 05 b5 fe 00 00 	lea    0xfeb5(%rip),%rax        # 21044 <g_62+0x4>
   1118f:	48 89 85 70 f7 ff ff 	mov    %rax,-0x890(%rbp)
   11196:	48 c7 85 78 f7 ff ff 	movq   $0x0,-0x888(%rbp)
   1119d:	00 00 00 00 
   111a1:	48 c7 85 80 f7 ff ff 	movq   $0x0,-0x880(%rbp)
   111a8:	00 00 00 00 
   111ac:	48 8d 05 fd 02 01 00 	lea    0x102fd(%rip),%rax        # 214b0 <g_627>
   111b3:	48 89 85 88 f7 ff ff 	mov    %rax,-0x878(%rbp)
   111ba:	48 8d 05 4b 01 01 00 	lea    0x1014b(%rip),%rax        # 2130c <g_119+0xac>
   111c1:	48 89 85 90 f7 ff ff 	mov    %rax,-0x870(%rbp)
   111c8:	48 8d 05 75 fe 00 00 	lea    0xfe75(%rip),%rax        # 21044 <g_62+0x4>
   111cf:	48 89 85 98 f7 ff ff 	mov    %rax,-0x868(%rbp)
   111d6:	48 8d 05 77 fe 00 00 	lea    0xfe77(%rip),%rax        # 21054 <g_62+0x14>
   111dd:	48 89 85 a0 f7 ff ff 	mov    %rax,-0x860(%rbp)
   111e4:	48 8d 05 69 fe 00 00 	lea    0xfe69(%rip),%rax        # 21054 <g_62+0x14>
   111eb:	48 89 85 a8 f7 ff ff 	mov    %rax,-0x858(%rbp)
   111f2:	48 c7 85 b0 f7 ff ff 	movq   $0x0,-0x850(%rbp)
   111f9:	00 00 00 00 
   111fd:	48 8d 85 54 f1 ff ff 	lea    -0xeac(%rbp),%rax
   11204:	48 89 85 b8 f7 ff ff 	mov    %rax,-0x848(%rbp)
   1120b:	48 8d 05 32 fe 00 00 	lea    0xfe32(%rip),%rax        # 21044 <g_62+0x4>
   11212:	48 89 85 c0 f7 ff ff 	mov    %rax,-0x840(%rbp)
   11219:	48 c7 85 c8 f7 ff ff 	movq   $0x0,-0x838(%rbp)
   11220:	00 00 00 00 
   11224:	48 8d 05 85 02 01 00 	lea    0x10285(%rip),%rax        # 214b0 <g_627>
   1122b:	48 89 85 d0 f7 ff ff 	mov    %rax,-0x830(%rbp)
   11232:	48 c7 85 d8 f7 ff ff 	movq   $0x0,-0x828(%rbp)
   11239:	00 00 00 00 
   1123d:	48 8d 85 54 f1 ff ff 	lea    -0xeac(%rbp),%rax
   11244:	48 89 85 e0 f7 ff ff 	mov    %rax,-0x820(%rbp)
   1124b:	48 8d 05 ba 00 01 00 	lea    0x100ba(%rip),%rax        # 2130c <g_119+0xac>
   11252:	48 89 85 e8 f7 ff ff 	mov    %rax,-0x818(%rbp)
   11259:	48 8d 85 54 f1 ff ff 	lea    -0xeac(%rbp),%rax
   11260:	48 89 85 f0 f7 ff ff 	mov    %rax,-0x810(%rbp)
   11267:	48 8d 85 60 f3 ff ff 	lea    -0xca0(%rbp),%rax
   1126e:	48 89 85 f8 f7 ff ff 	mov    %rax,-0x808(%rbp)
   11275:	48 c7 85 00 f8 ff ff 	movq   $0x0,-0x800(%rbp)
   1127c:	00 00 00 00 
   11280:	48 8d 85 60 f3 ff ff 	lea    -0xca0(%rbp),%rax
   11287:	48 89 85 08 f8 ff ff 	mov    %rax,-0x7f8(%rbp)
   1128e:	48 8d 05 77 00 01 00 	lea    0x10077(%rip),%rax        # 2130c <g_119+0xac>
   11295:	48 89 85 10 f8 ff ff 	mov    %rax,-0x7f0(%rbp)
   1129c:	48 c7 85 18 f8 ff ff 	movq   $0x0,-0x7e8(%rbp)
   112a3:	00 00 00 00 
   112a7:	48 8d 85 54 f1 ff ff 	lea    -0xeac(%rbp),%rax
   112ae:	48 89 85 20 f8 ff ff 	mov    %rax,-0x7e0(%rbp)
   112b5:	48 c7 85 28 f8 ff ff 	movq   $0x0,-0x7d8(%rbp)
   112bc:	00 00 00 00 
   112c0:	48 8d 05 45 00 01 00 	lea    0x10045(%rip),%rax        # 2130c <g_119+0xac>
   112c7:	48 89 85 30 f8 ff ff 	mov    %rax,-0x7d0(%rbp)
   112ce:	48 8d 85 60 f3 ff ff 	lea    -0xca0(%rbp),%rax
   112d5:	48 89 85 38 f8 ff ff 	mov    %rax,-0x7c8(%rbp)
   112dc:	66 c7 85 52 f1 ff ff 	movw   $0x0,-0xeae(%rbp)
   112e3:	00 00 
   112e5:	48 83 ad b8 f2 ff ff 	subq   $0x1,-0xd48(%rbp)
   112ec:	01 
   112ed:	48 8b 85 50 f3 ff ff 	mov    -0xcb0(%rbp),%rax
   112f4:	8b 10                	mov    (%rax),%edx
   112f6:	8b 85 64 f1 ff ff    	mov    -0xe9c(%rbp),%eax
   112fc:	09 c2                	or     %eax,%edx
   112fe:	48 8b 85 50 f3 ff ff 	mov    -0xcb0(%rbp),%rax
   11305:	89 10                	mov    %edx,(%rax)
   11307:	0f b7 85 52 f1 ff ff 	movzwl -0xeae(%rbp),%eax
   1130e:	83 c0 01             	add    $0x1,%eax
   11311:	66 89 85 52 f1 ff ff 	mov    %ax,-0xeae(%rbp)
   11318:	48 8b 05 79 29 01 00 	mov    0x12979(%rip),%rax        # 23c98 <g_1050>
   1131f:	48 8b 00             	mov    (%rax),%rax
   11322:	e9 a0 21 00 00       	jmpq   134c7 <func_49+0x296e>
   11327:	66 c7 85 4a f1 ff ff 	movw   $0x3,-0xeb6(%rbp)
   1132e:	03 00 
   11330:	48 8d 05 21 37 01 00 	lea    0x13721(%rip),%rax        # 24a58 <g_117+0x8>
   11337:	48 89 85 d8 f1 ff ff 	mov    %rax,-0xe28(%rbp)
   1133e:	48 8d 85 d8 f1 ff ff 	lea    -0xe28(%rbp),%rax
   11345:	48 89 85 e0 f1 ff ff 	mov    %rax,-0xe20(%rbp)
   1134c:	48 8d 85 e0 f1 ff ff 	lea    -0xe20(%rbp),%rax
   11353:	48 89 85 d0 f3 ff ff 	mov    %rax,-0xc30(%rbp)
   1135a:	48 8d 85 e0 f1 ff ff 	lea    -0xe20(%rbp),%rax
   11361:	48 89 85 d8 f3 ff ff 	mov    %rax,-0xc28(%rbp)
   11368:	48 8d 85 e0 f1 ff ff 	lea    -0xe20(%rbp),%rax
   1136f:	48 89 85 e0 f3 ff ff 	mov    %rax,-0xc20(%rbp)
   11376:	48 8d 85 e0 f1 ff ff 	lea    -0xe20(%rbp),%rax
   1137d:	48 89 85 e8 f3 ff ff 	mov    %rax,-0xc18(%rbp)
   11384:	48 8d 85 e0 f1 ff ff 	lea    -0xe20(%rbp),%rax
   1138b:	48 89 85 f0 f3 ff ff 	mov    %rax,-0xc10(%rbp)
   11392:	48 8d 85 e0 f1 ff ff 	lea    -0xe20(%rbp),%rax
   11399:	48 89 85 f8 f3 ff ff 	mov    %rax,-0xc08(%rbp)
   113a0:	48 8d 85 e0 f1 ff ff 	lea    -0xe20(%rbp),%rax
   113a7:	48 89 85 00 f4 ff ff 	mov    %rax,-0xc00(%rbp)
   113ae:	48 8d 85 e0 f1 ff ff 	lea    -0xe20(%rbp),%rax
   113b5:	48 89 85 08 f4 ff ff 	mov    %rax,-0xbf8(%rbp)
   113bc:	48 8d 85 e0 f1 ff ff 	lea    -0xe20(%rbp),%rax
   113c3:	48 89 85 10 f4 ff ff 	mov    %rax,-0xbf0(%rbp)
   113ca:	48 8d 85 e0 f1 ff ff 	lea    -0xe20(%rbp),%rax
   113d1:	48 89 85 18 f4 ff ff 	mov    %rax,-0xbe8(%rbp)
   113d8:	48 8d 85 e0 f1 ff ff 	lea    -0xe20(%rbp),%rax
   113df:	48 89 85 20 f4 ff ff 	mov    %rax,-0xbe0(%rbp)
   113e6:	48 8d 85 e0 f1 ff ff 	lea    -0xe20(%rbp),%rax
   113ed:	48 89 85 28 f4 ff ff 	mov    %rax,-0xbd8(%rbp)
   113f4:	48 8d 85 e0 f1 ff ff 	lea    -0xe20(%rbp),%rax
   113fb:	48 89 85 30 f4 ff ff 	mov    %rax,-0xbd0(%rbp)
   11402:	48 8d 85 e0 f1 ff ff 	lea    -0xe20(%rbp),%rax
   11409:	48 89 85 38 f4 ff ff 	mov    %rax,-0xbc8(%rbp)
   11410:	48 8d 85 e0 f1 ff ff 	lea    -0xe20(%rbp),%rax
   11417:	48 89 85 40 f4 ff ff 	mov    %rax,-0xbc0(%rbp)
   1141e:	48 8d 85 e0 f1 ff ff 	lea    -0xe20(%rbp),%rax
   11425:	48 89 85 48 f4 ff ff 	mov    %rax,-0xbb8(%rbp)
   1142c:	48 8d 85 e0 f1 ff ff 	lea    -0xe20(%rbp),%rax
   11433:	48 89 85 50 f4 ff ff 	mov    %rax,-0xbb0(%rbp)
   1143a:	48 8d 85 e0 f1 ff ff 	lea    -0xe20(%rbp),%rax
   11441:	48 89 85 58 f4 ff ff 	mov    %rax,-0xba8(%rbp)
   11448:	48 8d 85 e0 f1 ff ff 	lea    -0xe20(%rbp),%rax
   1144f:	48 89 85 60 f4 ff ff 	mov    %rax,-0xba0(%rbp)
   11456:	48 8d 85 e0 f1 ff ff 	lea    -0xe20(%rbp),%rax
   1145d:	48 89 85 68 f4 ff ff 	mov    %rax,-0xb98(%rbp)
   11464:	c7 85 70 f1 ff ff ea 	movl   $0x9d28a0ea,-0xe90(%rbp)
   1146b:	a0 28 9d 
   1146e:	48 c7 85 e8 f1 ff ff 	movq   $0x0,-0xe18(%rbp)
   11475:	00 00 00 00 
   11479:	48 8d 85 e8 f1 ff ff 	lea    -0xe18(%rbp),%rax
   11480:	48 89 85 70 f5 ff ff 	mov    %rax,-0xa90(%rbp)
   11487:	48 8d 85 e8 f1 ff ff 	lea    -0xe18(%rbp),%rax
   1148e:	48 89 85 78 f5 ff ff 	mov    %rax,-0xa88(%rbp)
   11495:	48 8d 85 e8 f1 ff ff 	lea    -0xe18(%rbp),%rax
   1149c:	48 89 85 80 f5 ff ff 	mov    %rax,-0xa80(%rbp)
   114a3:	48 c7 85 88 f5 ff ff 	movq   $0x0,-0xa78(%rbp)
   114aa:	00 00 00 00 
   114ae:	48 c7 85 90 f5 ff ff 	movq   $0x0,-0xa70(%rbp)
   114b5:	00 00 00 00 
   114b9:	48 c7 85 98 f5 ff ff 	movq   $0x0,-0xa68(%rbp)
   114c0:	00 00 00 00 
   114c4:	48 c7 85 a0 f5 ff ff 	movq   $0x0,-0xa60(%rbp)
   114cb:	00 00 00 00 
   114cf:	48 8d 85 e8 f1 ff ff 	lea    -0xe18(%rbp),%rax
   114d6:	48 89 85 a8 f5 ff ff 	mov    %rax,-0xa58(%rbp)
   114dd:	48 8d 85 e8 f1 ff ff 	lea    -0xe18(%rbp),%rax
   114e4:	48 89 85 b0 f5 ff ff 	mov    %rax,-0xa50(%rbp)
   114eb:	48 8d 85 e8 f1 ff ff 	lea    -0xe18(%rbp),%rax
   114f2:	48 89 85 b8 f5 ff ff 	mov    %rax,-0xa48(%rbp)
   114f9:	48 8d 85 e8 f1 ff ff 	lea    -0xe18(%rbp),%rax
   11500:	48 89 85 c0 f5 ff ff 	mov    %rax,-0xa40(%rbp)
   11507:	48 8d 85 e8 f1 ff ff 	lea    -0xe18(%rbp),%rax
   1150e:	48 89 85 c8 f5 ff ff 	mov    %rax,-0xa38(%rbp)
   11515:	48 8d 85 e8 f1 ff ff 	lea    -0xe18(%rbp),%rax
   1151c:	48 89 85 d0 f5 ff ff 	mov    %rax,-0xa30(%rbp)
   11523:	48 8d 85 e8 f1 ff ff 	lea    -0xe18(%rbp),%rax
   1152a:	48 89 85 d8 f5 ff ff 	mov    %rax,-0xa28(%rbp)
   11531:	48 8d 85 e8 f1 ff ff 	lea    -0xe18(%rbp),%rax
   11538:	48 89 85 e0 f5 ff ff 	mov    %rax,-0xa20(%rbp)
   1153f:	48 8d 85 e8 f1 ff ff 	lea    -0xe18(%rbp),%rax
   11546:	48 89 85 e8 f5 ff ff 	mov    %rax,-0xa18(%rbp)
   1154d:	48 8d 85 e8 f1 ff ff 	lea    -0xe18(%rbp),%rax
   11554:	48 89 85 f0 f5 ff ff 	mov    %rax,-0xa10(%rbp)
   1155b:	48 8d 85 e8 f1 ff ff 	lea    -0xe18(%rbp),%rax
   11562:	48 89 85 f8 f5 ff ff 	mov    %rax,-0xa08(%rbp)
   11569:	48 8d 85 e8 f1 ff ff 	lea    -0xe18(%rbp),%rax
   11570:	48 89 85 00 f6 ff ff 	mov    %rax,-0xa00(%rbp)
   11577:	48 8d 85 e8 f1 ff ff 	lea    -0xe18(%rbp),%rax
   1157e:	48 89 85 08 f6 ff ff 	mov    %rax,-0x9f8(%rbp)
   11585:	48 8d 85 e8 f1 ff ff 	lea    -0xe18(%rbp),%rax
   1158c:	48 89 85 10 f6 ff ff 	mov    %rax,-0x9f0(%rbp)
   11593:	48 8d 85 e8 f1 ff ff 	lea    -0xe18(%rbp),%rax
   1159a:	48 89 85 18 f6 ff ff 	mov    %rax,-0x9e8(%rbp)
   115a1:	48 8d 85 e8 f1 ff ff 	lea    -0xe18(%rbp),%rax
   115a8:	48 89 85 20 f6 ff ff 	mov    %rax,-0x9e0(%rbp)
   115af:	48 8d 85 e8 f1 ff ff 	lea    -0xe18(%rbp),%rax
   115b6:	48 89 85 28 f6 ff ff 	mov    %rax,-0x9d8(%rbp)
   115bd:	48 8d 85 e8 f1 ff ff 	lea    -0xe18(%rbp),%rax
   115c4:	48 89 85 30 f6 ff ff 	mov    %rax,-0x9d0(%rbp)
   115cb:	48 8d 85 e8 f1 ff ff 	lea    -0xe18(%rbp),%rax
   115d2:	48 89 85 38 f6 ff ff 	mov    %rax,-0x9c8(%rbp)
   115d9:	48 8d 85 e8 f1 ff ff 	lea    -0xe18(%rbp),%rax
   115e0:	48 89 85 40 f6 ff ff 	mov    %rax,-0x9c0(%rbp)
   115e7:	48 8d 85 e8 f1 ff ff 	lea    -0xe18(%rbp),%rax
   115ee:	48 89 85 48 f6 ff ff 	mov    %rax,-0x9b8(%rbp)
   115f5:	48 8d 85 e8 f1 ff ff 	lea    -0xe18(%rbp),%rax
   115fc:	48 89 85 50 f6 ff ff 	mov    %rax,-0x9b0(%rbp)
   11603:	48 8d 85 e8 f1 ff ff 	lea    -0xe18(%rbp),%rax
   1160a:	48 89 85 58 f6 ff ff 	mov    %rax,-0x9a8(%rbp)
   11611:	48 8d 85 e8 f1 ff ff 	lea    -0xe18(%rbp),%rax
   11618:	48 89 85 60 f6 ff ff 	mov    %rax,-0x9a0(%rbp)
   1161f:	48 8d 85 e8 f1 ff ff 	lea    -0xe18(%rbp),%rax
   11626:	48 89 85 68 f6 ff ff 	mov    %rax,-0x998(%rbp)
   1162d:	48 c7 85 70 f6 ff ff 	movq   $0x0,-0x990(%rbp)
   11634:	00 00 00 00 
   11638:	48 c7 85 78 f6 ff ff 	movq   $0x0,-0x988(%rbp)
   1163f:	00 00 00 00 
   11643:	48 c7 85 80 f6 ff ff 	movq   $0x0,-0x980(%rbp)
   1164a:	00 00 00 00 
   1164e:	48 c7 85 88 f6 ff ff 	movq   $0x0,-0x978(%rbp)
   11655:	00 00 00 00 
   11659:	48 8d 85 e8 f1 ff ff 	lea    -0xe18(%rbp),%rax
   11660:	48 89 85 90 f6 ff ff 	mov    %rax,-0x970(%rbp)
   11667:	48 8d 85 e8 f1 ff ff 	lea    -0xe18(%rbp),%rax
   1166e:	48 89 85 98 f6 ff ff 	mov    %rax,-0x968(%rbp)
   11675:	48 8d 85 e8 f1 ff ff 	lea    -0xe18(%rbp),%rax
   1167c:	48 89 85 a0 f6 ff ff 	mov    %rax,-0x960(%rbp)
   11683:	48 c7 85 a8 f6 ff ff 	movq   $0x0,-0x958(%rbp)
   1168a:	00 00 00 00 
   1168e:	48 8d 85 60 f3 ff ff 	lea    -0xca0(%rbp),%rax
   11695:	48 89 85 c8 f2 ff ff 	mov    %rax,-0xd38(%rbp)
   1169c:	48 8d 85 60 f1 ff ff 	lea    -0xea0(%rbp),%rax
   116a3:	48 89 85 d0 f2 ff ff 	mov    %rax,-0xd30(%rbp)
   116aa:	48 c7 85 f0 f1 ff ff 	movq   $0x0,-0xe10(%rbp)
   116b1:	00 00 00 00 
   116b5:	48 8d 05 28 fd 00 00 	lea    0xfd28(%rip),%rax        # 213e4 <g_243>
   116bc:	48 89 85 d8 f2 ff ff 	mov    %rax,-0xd28(%rbp)
   116c3:	48 8d 85 f0 f1 ff ff 	lea    -0xe10(%rbp),%rax
   116ca:	48 89 85 e0 f2 ff ff 	mov    %rax,-0xd20(%rbp)
   116d1:	48 8d 05 06 fa 00 00 	lea    0xfa06(%rip),%rax        # 210de <g_94+0x7e>
   116d8:	48 89 85 e8 f2 ff ff 	mov    %rax,-0xd18(%rbp)
   116df:	c6 85 45 f1 ff ff 00 	movb   $0x0,-0xebb(%rbp)
   116e6:	c7 85 6c f1 ff ff 00 	movl   $0x0,-0xe94(%rbp)
   116ed:	00 00 00 
   116f0:	e9 76 04 00 00       	jmpq   11b6b <func_49+0x1012>
   116f5:	48 8d 85 60 f3 ff ff 	lea    -0xca0(%rbp),%rax
   116fc:	48 83 c0 0c          	add    $0xc,%rax
   11700:	48 89 85 f0 f2 ff ff 	mov    %rax,-0xd10(%rbp)
   11707:	48 8d 85 60 f3 ff ff 	lea    -0xca0(%rbp),%rax
   1170e:	48 83 c0 08          	add    $0x8,%rax
   11712:	48 89 85 f8 f2 ff ff 	mov    %rax,-0xd08(%rbp)
   11719:	48 8d 85 60 f1 ff ff 	lea    -0xea0(%rbp),%rax
   11720:	48 89 85 00 f3 ff ff 	mov    %rax,-0xd00(%rbp)
   11727:	48 c7 85 08 f3 ff ff 	movq   $0x0,-0xcf8(%rbp)
   1172e:	00 00 00 00 
   11732:	48 8d 85 60 f3 ff ff 	lea    -0xca0(%rbp),%rax
   11739:	48 89 85 10 f3 ff ff 	mov    %rax,-0xcf0(%rbp)
   11740:	0f b6 05 7e fe 00 00 	movzbl 0xfe7e(%rip),%eax        # 215c5 <g_1486>
   11747:	0f be c0             	movsbl %al,%eax
   1174a:	83 c0 02             	add    $0x2,%eax
   1174d:	48 98                	cltq   
   1174f:	48 8d 14 85 00 00 00 	lea    0x0(,%rax,4),%rdx
   11756:	00 
   11757:	48 8d 05 e2 f8 00 00 	lea    0xf8e2(%rip),%rax        # 21040 <g_62>
   1175e:	48 01 d0             	add    %rdx,%rax
   11761:	48 89 85 18 f3 ff ff 	mov    %rax,-0xce8(%rbp)
   11768:	48 c7 85 20 f3 ff ff 	movq   $0x0,-0xce0(%rbp)
   1176f:	00 00 00 00 
   11773:	48 8d 85 58 f1 ff ff 	lea    -0xea8(%rbp),%rax
   1177a:	48 89 85 28 f3 ff ff 	mov    %rax,-0xcd8(%rbp)
   11781:	0f b6 05 3d fe 00 00 	movzbl 0xfe3d(%rip),%eax        # 215c5 <g_1486>
   11788:	0f be c0             	movsbl %al,%eax
   1178b:	83 c0 02             	add    $0x2,%eax
   1178e:	48 98                	cltq   
   11790:	48 8d 14 85 00 00 00 	lea    0x0(,%rax,4),%rdx
   11797:	00 
   11798:	48 8d 05 a1 f8 00 00 	lea    0xf8a1(%rip),%rax        # 21040 <g_62>
   1179f:	48 01 d0             	add    %rdx,%rax
   117a2:	48 89 85 70 f4 ff ff 	mov    %rax,-0xb90(%rbp)
   117a9:	48 c7 85 78 f4 ff ff 	movq   $0x0,-0xb88(%rbp)
   117b0:	00 00 00 00 
   117b4:	48 8d 85 5c f1 ff ff 	lea    -0xea4(%rbp),%rax
   117bb:	48 89 85 80 f4 ff ff 	mov    %rax,-0xb80(%rbp)
   117c2:	48 8d 05 87 fc 00 00 	lea    0xfc87(%rip),%rax        # 21450 <g_547>
   117c9:	48 89 85 88 f4 ff ff 	mov    %rax,-0xb78(%rbp)
   117d0:	48 8d 85 70 f3 ff ff 	lea    -0xc90(%rbp),%rax
   117d7:	48 83 c0 04          	add    $0x4,%rax
   117db:	48 89 85 90 f4 ff ff 	mov    %rax,-0xb70(%rbp)
   117e2:	48 8d 85 5c f1 ff ff 	lea    -0xea4(%rbp),%rax
   117e9:	48 89 85 98 f4 ff ff 	mov    %rax,-0xb68(%rbp)
   117f0:	48 8d 85 70 f3 ff ff 	lea    -0xc90(%rbp),%rax
   117f7:	48 83 c0 04          	add    $0x4,%rax
   117fb:	48 89 85 a0 f4 ff ff 	mov    %rax,-0xb60(%rbp)
   11802:	48 8d 05 47 fc 00 00 	lea    0xfc47(%rip),%rax        # 21450 <g_547>
   11809:	48 89 85 a8 f4 ff ff 	mov    %rax,-0xb58(%rbp)
   11810:	48 8d 85 70 f3 ff ff 	lea    -0xc90(%rbp),%rax
   11817:	48 83 c0 04          	add    $0x4,%rax
   1181b:	48 89 85 b0 f4 ff ff 	mov    %rax,-0xb50(%rbp)
   11822:	48 8d 85 60 f3 ff ff 	lea    -0xca0(%rbp),%rax
   11829:	48 89 85 b8 f4 ff ff 	mov    %rax,-0xb48(%rbp)
   11830:	48 8d 85 70 f3 ff ff 	lea    -0xc90(%rbp),%rax
   11837:	48 83 c0 04          	add    $0x4,%rax
   1183b:	48 89 85 c0 f4 ff ff 	mov    %rax,-0xb40(%rbp)
   11842:	48 8d 05 cf fa 00 00 	lea    0xfacf(%rip),%rax        # 21318 <g_119+0xb8>
   11849:	48 89 85 c8 f4 ff ff 	mov    %rax,-0xb38(%rbp)
   11850:	48 8d 05 f9 fb 00 00 	lea    0xfbf9(%rip),%rax        # 21450 <g_547>
   11857:	48 89 85 d0 f4 ff ff 	mov    %rax,-0xb30(%rbp)
   1185e:	48 8d 85 5c f1 ff ff 	lea    -0xea4(%rbp),%rax
   11865:	48 89 85 d8 f4 ff ff 	mov    %rax,-0xb28(%rbp)
   1186c:	48 8d 85 5c f1 ff ff 	lea    -0xea4(%rbp),%rax
   11873:	48 89 85 e0 f4 ff ff 	mov    %rax,-0xb20(%rbp)
   1187a:	48 8d 85 5c f1 ff ff 	lea    -0xea4(%rbp),%rax
   11881:	48 89 85 e8 f4 ff ff 	mov    %rax,-0xb18(%rbp)
   11888:	48 8d 85 5c f1 ff ff 	lea    -0xea4(%rbp),%rax
   1188f:	48 89 85 f0 f4 ff ff 	mov    %rax,-0xb10(%rbp)
   11896:	48 c7 85 f8 f4 ff ff 	movq   $0x0,-0xb08(%rbp)
   1189d:	00 00 00 00 
   118a1:	0f b6 05 1d fd 00 00 	movzbl 0xfd1d(%rip),%eax        # 215c5 <g_1486>
   118a8:	0f be c0             	movsbl %al,%eax
   118ab:	83 c0 02             	add    $0x2,%eax
   118ae:	48 98                	cltq   
   118b0:	48 8d 14 85 00 00 00 	lea    0x0(,%rax,4),%rdx
   118b7:	00 
   118b8:	48 8d 05 81 f7 00 00 	lea    0xf781(%rip),%rax        # 21040 <g_62>
   118bf:	48 01 d0             	add    %rdx,%rax
   118c2:	48 89 85 00 f5 ff ff 	mov    %rax,-0xb00(%rbp)
   118c9:	0f b6 05 f5 fc 00 00 	movzbl 0xfcf5(%rip),%eax        # 215c5 <g_1486>
   118d0:	0f be c0             	movsbl %al,%eax
   118d3:	83 c0 02             	add    $0x2,%eax
   118d6:	48 98                	cltq   
   118d8:	48 8d 14 85 00 00 00 	lea    0x0(,%rax,4),%rdx
   118df:	00 
   118e0:	48 8d 05 59 f7 00 00 	lea    0xf759(%rip),%rax        # 21040 <g_62>
   118e7:	48 01 d0             	add    %rdx,%rax
   118ea:	48 89 85 08 f5 ff ff 	mov    %rax,-0xaf8(%rbp)
   118f1:	48 c7 85 10 f5 ff ff 	movq   $0x0,-0xaf0(%rbp)
   118f8:	00 00 00 00 
   118fc:	48 8d 85 5c f1 ff ff 	lea    -0xea4(%rbp),%rax
   11903:	48 89 85 18 f5 ff ff 	mov    %rax,-0xae8(%rbp)
   1190a:	48 8d 05 3f fb 00 00 	lea    0xfb3f(%rip),%rax        # 21450 <g_547>
   11911:	48 89 85 20 f5 ff ff 	mov    %rax,-0xae0(%rbp)
   11918:	48 8d 85 70 f3 ff ff 	lea    -0xc90(%rbp),%rax
   1191f:	48 83 c0 04          	add    $0x4,%rax
   11923:	48 89 85 28 f5 ff ff 	mov    %rax,-0xad8(%rbp)
   1192a:	48 8d 85 5c f1 ff ff 	lea    -0xea4(%rbp),%rax
   11931:	48 89 85 30 f5 ff ff 	mov    %rax,-0xad0(%rbp)
   11938:	48 c7 85 38 f5 ff ff 	movq   $0x0,-0xac8(%rbp)
   1193f:	00 00 00 00 
   11943:	48 c7 85 40 f5 ff ff 	movq   $0x0,-0xac0(%rbp)
   1194a:	00 00 00 00 
   1194e:	48 c7 85 48 f5 ff ff 	movq   $0x0,-0xab8(%rbp)
   11955:	00 00 00 00 
   11959:	48 8d 05 f0 fa 00 00 	lea    0xfaf0(%rip),%rax        # 21450 <g_547>
   11960:	48 89 85 50 f5 ff ff 	mov    %rax,-0xab0(%rbp)
   11967:	48 c7 85 58 f5 ff ff 	movq   $0x0,-0xaa8(%rbp)
   1196e:	00 00 00 00 
   11972:	48 c7 85 60 f5 ff ff 	movq   $0x0,-0xaa0(%rbp)
   11979:	00 00 00 00 
   1197d:	48 c7 85 68 f5 ff ff 	movq   $0x0,-0xa98(%rbp)
   11984:	00 00 00 00 
   11988:	c7 85 68 f1 ff ff 00 	movl   $0x0,-0xe98(%rbp)
   1198f:	00 00 00 
   11992:	eb 1a                	jmp    119ae <func_49+0xe55>
   11994:	8b 85 68 f1 ff ff    	mov    -0xe98(%rbp),%eax
   1199a:	48 98                	cltq   
   1199c:	c7 84 85 70 f3 ff ff 	movl   $0xe7538eea,-0xc90(%rbp,%rax,4)
   119a3:	ea 8e 53 e7 
   119a7:	83 85 68 f1 ff ff 01 	addl   $0x1,-0xe98(%rbp)
   119ae:	83 bd 68 f1 ff ff 03 	cmpl   $0x3,-0xe98(%rbp)
   119b5:	7e dd                	jle    11994 <func_49+0xe3b>
   119b7:	66 83 85 4a f1 ff ff 	addw   $0x1,-0xeb6(%rbp)
   119be:	01 
   119bf:	8b 85 6c f1 ff ff    	mov    -0xe94(%rbp),%eax
   119c5:	83 c0 01             	add    $0x1,%eax
   119c8:	48 98                	cltq   
   119ca:	48 8d 14 85 00 00 00 	lea    0x0(,%rax,4),%rdx
   119d1:	00 
   119d2:	48 8d 05 77 30 01 00 	lea    0x13077(%rip),%rax        # 24a50 <g_117>
   119d9:	8b 04 02             	mov    (%rdx,%rax,1),%eax
   119dc:	85 c0                	test   %eax,%eax
   119de:	0f 85 96 01 00 00    	jne    11b7a <func_49+0x1021>
   119e4:	8b 85 6c f1 ff ff    	mov    -0xe94(%rbp),%eax
   119ea:	83 c0 01             	add    $0x1,%eax
   119ed:	48 98                	cltq   
   119ef:	48 8d 14 85 00 00 00 	lea    0x0(,%rax,4),%rdx
   119f6:	00 
   119f7:	48 8d 05 52 30 01 00 	lea    0x13052(%rip),%rax        # 24a50 <g_117>
   119fe:	8b 04 02             	mov    (%rdx,%rax,1),%eax
   11a01:	85 c0                	test   %eax,%eax
   11a03:	0f 85 74 01 00 00    	jne    11b7d <func_49+0x1024>
   11a09:	c7 05 3d fa 00 00 04 	movl   $0x4,0xfa3d(%rip)        # 21450 <g_547>
   11a10:	00 00 00 
   11a13:	e9 3e 01 00 00       	jmpq   11b56 <func_49+0xffd>
   11a18:	48 c7 85 30 f3 ff ff 	movq   $0x0,-0xcd0(%rbp)
   11a1f:	00 00 00 00 
   11a23:	48 8d 05 e6 23 01 00 	lea    0x123e6(%rip),%rax        # 23e10 <g_1955>
   11a2a:	48 89 85 38 f3 ff ff 	mov    %rax,-0xcc8(%rbp)
   11a31:	48 8b 95 00 f4 ff ff 	mov    -0xc00(%rbp),%rdx
   11a38:	48 8b 85 38 f3 ff ff 	mov    -0xcc8(%rbp),%rax
   11a3f:	48 89 10             	mov    %rdx,(%rax)
   11a42:	c6 05 f7 f9 00 00 00 	movb   $0x0,0xf9f7(%rip)        # 21440 <g_372>
   11a49:	90                   	nop
   11a4a:	0f b6 05 ef f9 00 00 	movzbl 0xf9ef(%rip),%eax        # 21440 <g_372>
   11a51:	3c 03                	cmp    $0x3,%al
   11a53:	0f 87 e2 00 00 00    	ja     11b3b <func_49+0xfe2>
   11a59:	48 8d 05 d8 f9 00 00 	lea    0xf9d8(%rip),%rax        # 21438 <g_289>
   11a60:	48 89 85 40 f3 ff ff 	mov    %rax,-0xcc0(%rbp)
   11a67:	c7 85 80 f3 ff ff 00 	movl   $0x0,-0xc80(%rbp)
   11a6e:	00 00 00 
   11a71:	c7 85 84 f3 ff ff 00 	movl   $0x0,-0xc7c(%rbp)
   11a78:	00 00 00 
   11a7b:	c7 85 88 f3 ff ff f8 	movl   $0xfffffff8,-0xc78(%rbp)
   11a82:	ff ff ff 
   11a85:	c7 85 8c f3 ff ff 00 	movl   $0x0,-0xc74(%rbp)
   11a8c:	00 00 00 
   11a8f:	c7 85 90 f3 ff ff 00 	movl   $0x0,-0xc70(%rbp)
   11a96:	00 00 00 
   11a99:	c7 85 94 f3 ff ff f8 	movl   $0xfffffff8,-0xc6c(%rbp)
   11aa0:	ff ff ff 
   11aa3:	c7 85 98 f3 ff ff 00 	movl   $0x0,-0xc68(%rbp)
   11aaa:	00 00 00 
   11aad:	48 8b 85 40 f3 ff ff 	mov    -0xcc0(%rbp),%rax
   11ab4:	48 8b 00             	mov    (%rax),%rax
   11ab7:	48 83 c8 01          	or     $0x1,%rax
   11abb:	48 89 c2             	mov    %rax,%rdx
   11abe:	48 8b 85 40 f3 ff ff 	mov    -0xcc0(%rbp),%rax
   11ac5:	48 89 10             	mov    %rdx,(%rax)
   11ac8:	8b 85 6c f1 ff ff    	mov    -0xe94(%rbp),%eax
   11ace:	8d 50 03             	lea    0x3(%rax),%edx
   11ad1:	0f b6 05 ed fa 00 00 	movzbl 0xfaed(%rip),%eax        # 215c5 <g_1486>
   11ad8:	0f be c0             	movsbl %al,%eax
   11adb:	48 63 f0             	movslq %eax,%rsi
   11ade:	48 63 d2             	movslq %edx,%rdx
   11ae1:	8b 85 6c f1 ff ff    	mov    -0xe94(%rbp),%eax
   11ae7:	48 63 c8             	movslq %eax,%rcx
   11aea:	48 89 d0             	mov    %rdx,%rax
   11aed:	48 c1 e0 04          	shl    $0x4,%rax
   11af1:	48 29 d0             	sub    %rdx,%rax
   11af4:	48 01 c0             	add    %rax,%rax
   11af7:	48 89 ca             	mov    %rcx,%rdx
   11afa:	48 01 d2             	add    %rdx,%rdx
   11afd:	48 01 ca             	add    %rcx,%rdx
   11b00:	48 01 d0             	add    %rdx,%rax
   11b03:	48 01 f0             	add    %rsi,%rax
   11b06:	48 8d 14 00          	lea    (%rax,%rax,1),%rdx
   11b0a:	48 8d 05 4f f5 00 00 	lea    0xf54f(%rip),%rax        # 21060 <g_94>
   11b11:	0f b7 04 02          	movzwl (%rdx,%rax,1),%eax
   11b15:	66 85 c0             	test   %ax,%ax
   11b18:	74 07                	je     11b21 <func_49+0xfc8>
   11b1a:	b8 01 00 00 00       	mov    $0x1,%eax
   11b1f:	eb 05                	jmp    11b26 <func_49+0xfcd>
   11b21:	b8 00 00 00 00       	mov    $0x0,%eax
   11b26:	89 85 8c f3 ff ff    	mov    %eax,-0xc74(%rbp)
   11b2c:	48 8b 05 65 21 01 00 	mov    0x12165(%rip),%rax        # 23c98 <g_1050>
   11b33:	48 8b 00             	mov    (%rax),%rax
   11b36:	e9 8c 19 00 00       	jmpq   134c7 <func_49+0x296e>
   11b3b:	8b 85 68 f3 ff ff    	mov    -0xc98(%rbp),%eax
   11b41:	89 85 70 f1 ff ff    	mov    %eax,-0xe90(%rbp)
   11b47:	8b 05 03 f9 00 00    	mov    0xf903(%rip),%eax        # 21450 <g_547>
   11b4d:	83 e8 01             	sub    $0x1,%eax
   11b50:	89 05 fa f8 00 00    	mov    %eax,0xf8fa(%rip)        # 21450 <g_547>
   11b56:	8b 05 f4 f8 00 00    	mov    0xf8f4(%rip),%eax        # 21450 <g_547>
   11b5c:	85 c0                	test   %eax,%eax
   11b5e:	0f 89 b4 fe ff ff    	jns    11a18 <func_49+0xebf>
   11b64:	83 85 6c f1 ff ff 01 	addl   $0x1,-0xe94(%rbp)
   11b6b:	83 bd 6c f1 ff ff 04 	cmpl   $0x4,-0xe94(%rbp)
   11b72:	0f 8e 7d fb ff ff    	jle    116f5 <func_49+0xb9c>
   11b78:	eb 04                	jmp    11b7e <func_49+0x1025>
   11b7a:	90                   	nop
   11b7b:	eb 01                	jmp    11b7e <func_49+0x1025>
   11b7d:	90                   	nop
   11b7e:	48 8b 05 53 21 01 00 	mov    0x12153(%rip),%rax        # 23cd8 <g_1437>
   11b85:	48 8b 00             	mov    (%rax),%rax
   11b88:	48 8b 00             	mov    (%rax),%rax
   11b8b:	49 89 c6             	mov    %rax,%r14
   11b8e:	48 8b 9d 10 f2 ff ff 	mov    -0xdf0(%rbp),%rbx
   11b95:	0f b6 05 28 fa 00 00 	movzbl 0xfa28(%rip),%eax        # 215c4 <g_1457>
   11b9c:	44 0f be e0          	movsbl %al,%r12d
   11ba0:	8b 85 70 f1 ff ff    	mov    -0xe90(%rbp),%eax
   11ba6:	44 0f be e8          	movsbl %al,%r13d
   11baa:	8b 85 64 f1 ff ff    	mov    -0xe9c(%rbp),%eax
   11bb0:	48 98                	cltq   
   11bb2:	48 0b 85 10 f2 ff ff 	or     -0xdf0(%rbp),%rax
   11bb9:	48 89 c2             	mov    %rax,%rdx
   11bbc:	48 8b 05 6d 10 01 00 	mov    0x1106d(%rip),%rax        # 22c30 <g_566>
   11bc3:	0f b7 00             	movzwl (%rax),%eax
   11bc6:	0f bf c8             	movswl %ax,%ecx
   11bc9:	c7 85 a4 f3 ff ff 01 	movl   $0x1,-0xc5c(%rbp)
   11bd0:	00 00 00 
   11bd3:	8b 85 a4 f3 ff ff    	mov    -0xc5c(%rbp),%eax
   11bd9:	39 c1                	cmp    %eax,%ecx
   11bdb:	0f 9d c1             	setge  %cl
   11bde:	48 8b 05 b3 20 01 00 	mov    0x120b3(%rip),%rax        # 23c98 <g_1050>
   11be5:	0f b6 c9             	movzbl %cl,%ecx
   11be8:	48 89 08             	mov    %rcx,(%rax)
   11beb:	48 8b 00             	mov    (%rax),%rax
   11bee:	48 89 d6             	mov    %rdx,%rsi
   11bf1:	48 89 c7             	mov    %rax,%rdi
   11bf4:	e8 52 94 ff ff       	callq  b04b <safe_sub_func_uint64_t_u_u>
   11bf9:	0f b7 c0             	movzwl %ax,%eax
   11bfc:	be 0e 00 00 00       	mov    $0xe,%esi
   11c01:	89 c7                	mov    %eax,%edi
   11c03:	e8 b6 91 ff ff       	callq  adbe <safe_lshift_func_uint16_t_u_s>
   11c08:	48 8b 85 c8 f2 ff ff 	mov    -0xd38(%rbp),%rax
   11c0f:	8b 10                	mov    (%rax),%edx
   11c11:	48 8b 85 08 f2 ff ff 	mov    -0xdf8(%rbp),%rax
   11c18:	48 3b 85 c0 f2 ff ff 	cmp    -0xd40(%rbp),%rax
   11c1f:	0f 94 c0             	sete   %al
   11c22:	0f b6 c0             	movzbl %al,%eax
   11c25:	31 c2                	xor    %eax,%edx
   11c27:	48 8b 85 c8 f2 ff ff 	mov    -0xd38(%rbp),%rax
   11c2e:	89 10                	mov    %edx,(%rax)
   11c30:	48 8b 85 c8 f2 ff ff 	mov    -0xd38(%rbp),%rax
   11c37:	8b 10                	mov    (%rax),%edx
   11c39:	48 8b 85 d0 f2 ff ff 	mov    -0xd30(%rbp),%rax
   11c40:	8b 00                	mov    (%rax),%eax
   11c42:	21 c2                	and    %eax,%edx
   11c44:	48 8b 85 d0 f2 ff ff 	mov    -0xd30(%rbp),%rax
   11c4b:	89 10                	mov    %edx,(%rax)
   11c4d:	48 8b 85 d0 f2 ff ff 	mov    -0xd30(%rbp),%rax
   11c54:	8b 00                	mov    (%rax),%eax
   11c56:	be 01 00 00 00       	mov    $0x1,%esi
   11c5b:	89 c7                	mov    %eax,%edi
   11c5d:	e8 54 89 ff ff       	callq  a5b6 <safe_add_func_int32_t_s_s>
   11c62:	0f be c0             	movsbl %al,%eax
   11c65:	44 89 ee             	mov    %r13d,%esi
   11c68:	89 c7                	mov    %eax,%edi
   11c6a:	e8 a3 85 ff ff       	callq  a212 <safe_mul_func_int8_t_s_s>
   11c6f:	0f be c0             	movsbl %al,%eax
   11c72:	89 85 bc f1 ff ff    	mov    %eax,-0xe44(%rbp)
   11c78:	8b 85 64 f1 ff ff    	mov    -0xe9c(%rbp),%eax
   11c7e:	85 c0                	test   %eax,%eax
   11c80:	74 07                	je     11c89 <func_49+0x1130>
   11c82:	b8 01 00 00 00       	mov    $0x1,%eax
   11c87:	eb 05                	jmp    11c8e <func_49+0x1135>
   11c89:	b8 00 00 00 00       	mov    $0x0,%eax
   11c8e:	83 f8 7e             	cmp    $0x7e,%eax
   11c91:	44 89 e6             	mov    %r12d,%esi
   11c94:	bf 01 00 00 00       	mov    $0x1,%edi
   11c99:	e8 f4 87 ff ff       	callq  a492 <safe_lshift_func_int16_t_s_s>
   11c9e:	be 04 00 00 00       	mov    $0x4,%esi
   11ca3:	bf 00 00 00 00       	mov    $0x0,%edi
   11ca8:	e8 58 8f ff ff       	callq  ac05 <safe_lshift_func_uint8_t_u_s>
   11cad:	0f b6 d0             	movzbl %al,%edx
   11cb0:	8b 85 5c f1 ff ff    	mov    -0xea4(%rbp),%eax
   11cb6:	39 c2                	cmp    %eax,%edx
   11cb8:	0f 9f c0             	setg   %al
   11cbb:	0f b6 c0             	movzbl %al,%eax
   11cbe:	48 89 de             	mov    %rbx,%rsi
   11cc1:	48 89 c7             	mov    %rax,%rdi
   11cc4:	e8 78 8b ff ff       	callq  a841 <safe_add_func_int64_t_s_s>
   11cc9:	48 8d 05 40 21 01 00 	lea    0x12140(%rip),%rax        # 23e10 <g_1955>
   11cd0:	48 89 05 89 21 01 00 	mov    %rax,0x12189(%rip)        # 23e60 <g_1968>
   11cd7:	8b 85 b0 f1 ff ff    	mov    -0xe50(%rbp),%eax
   11cdd:	48 98                	cltq   
   11cdf:	4c 89 f6             	mov    %r14,%rsi
   11ce2:	48 89 c7             	mov    %rax,%rdi
   11ce5:	e8 44 93 ff ff       	callq  b02e <safe_add_func_uint64_t_u_u>
   11cea:	48 89 c2             	mov    %rax,%rdx
   11ced:	8b 85 6c f1 ff ff    	mov    -0xe94(%rbp),%eax
   11cf3:	48 63 c8             	movslq %eax,%rcx
   11cf6:	48 8b 05 a3 1f 01 00 	mov    0x11fa3(%rip),%rax        # 23ca0 <g_1051>
   11cfd:	48 31 ca             	xor    %rcx,%rdx
   11d00:	48 89 10             	mov    %rdx,(%rax)
   11d03:	48 8b 15 fe 0e 01 00 	mov    0x10efe(%rip),%rdx        # 22c08 <g_382>
   11d0a:	48 8b 05 f7 0e 01 00 	mov    0x10ef7(%rip),%rax        # 22c08 <g_382>
   11d11:	48 8b 12             	mov    (%rdx),%rdx
   11d14:	48 89 10             	mov    %rdx,(%rax)
   11d17:	8b 85 64 f1 ff ff    	mov    -0xe9c(%rbp),%eax
   11d1d:	0f be d8             	movsbl %al,%ebx
   11d20:	48 8b 85 38 f1 ff ff 	mov    -0xec8(%rbp),%rax
   11d27:	0f b6 00             	movzbl (%rax),%eax
   11d2a:	44 0f be e0          	movsbl %al,%r12d
   11d2e:	be 01 00 00 00       	mov    $0x1,%esi
   11d33:	bf fe ff ff ff       	mov    $0xfffffffe,%edi
   11d38:	e8 b1 85 ff ff       	callq  a2ee <safe_lshift_func_int8_t_s_u>
   11d3d:	0f be d0             	movsbl %al,%edx
   11d40:	48 8b 05 d9 0e 01 00 	mov    0x10ed9(%rip),%rax        # 22c20 <g_487>
   11d47:	0f b6 00             	movzbl (%rax),%eax
   11d4a:	0f b6 c0             	movzbl %al,%eax
   11d4d:	39 c2                	cmp    %eax,%edx
   11d4f:	0f 8c 28 01 00 00    	jl     11e7d <func_49+0x1324>
   11d55:	8b 85 b8 f1 ff ff    	mov    -0xe48(%rbp),%eax
   11d5b:	44 0f b7 e8          	movzwl %ax,%r13d
   11d5f:	48 8b 85 e8 f2 ff ff 	mov    -0xd18(%rbp),%rax
   11d66:	0f b7 00             	movzwl (%rax),%eax
   11d69:	8d 50 01             	lea    0x1(%rax),%edx
   11d6c:	48 8b 85 e8 f2 ff ff 	mov    -0xd18(%rbp),%rax
   11d73:	66 89 10             	mov    %dx,(%rax)
   11d76:	48 8b 85 e8 f2 ff ff 	mov    -0xd18(%rbp),%rax
   11d7d:	0f b7 00             	movzwl (%rax),%eax
   11d80:	66 85 c0             	test   %ax,%ax
   11d83:	0f 94 c0             	sete   %al
   11d86:	0f b6 d0             	movzbl %al,%edx
   11d89:	8b 85 a4 f3 ff ff    	mov    -0xc5c(%rbp),%eax
   11d8f:	21 d0                	and    %edx,%eax
   11d91:	89 85 a4 f3 ff ff    	mov    %eax,-0xc5c(%rbp)
   11d97:	44 8b b5 a4 f3 ff ff 	mov    -0xc5c(%rbp),%r14d
   11d9e:	48 be c8 d1 91 57 82 	movabs $0xce2a48825791d1c8,%rsi
   11da5:	48 2a ce 
   11da8:	bf 01 00 00 00       	mov    $0x1,%edi
   11dad:	e8 8f 8a ff ff       	callq  a841 <safe_add_func_int64_t_s_s>
   11db2:	0f b6 d0             	movzbl %al,%edx
   11db5:	48 8b 05 64 0e 01 00 	mov    0x10e64(%rip),%rax        # 22c20 <g_487>
   11dbc:	0f b6 00             	movzbl (%rax),%eax
   11dbf:	0f b6 c0             	movzbl %al,%eax
   11dc2:	89 d6                	mov    %edx,%esi
   11dc4:	89 c7                	mov    %eax,%edi
   11dc6:	e8 ad 8d ff ff       	callq  ab78 <safe_sub_func_uint8_t_u_u>
   11dcb:	0f b6 c0             	movzbl %al,%eax
   11dce:	48 8b 15 c3 f8 00 00 	mov    0xf8c3(%rip),%rdx        # 21698 <g_1893+0x18>
   11dd5:	21 d0                	and    %edx,%eax
   11dd7:	0f b7 c0             	movzwl %ax,%eax
   11dda:	be 00 00 00 00       	mov    $0x0,%esi
   11ddf:	89 c7                	mov    %eax,%edi
   11de1:	e8 d8 8f ff ff       	callq  adbe <safe_lshift_func_uint16_t_u_s>
   11de6:	0f b7 d0             	movzwl %ax,%edx
   11de9:	8b 85 68 f3 ff ff    	mov    -0xc98(%rbp),%eax
   11def:	39 c2                	cmp    %eax,%edx
   11df1:	0f 9c c0             	setl   %al
   11df4:	0f b6 c0             	movzbl %al,%eax
   11df7:	41 39 c6             	cmp    %eax,%r14d
   11dfa:	0f 9c c0             	setl   %al
   11dfd:	0f b6 c0             	movzbl %al,%eax
   11e00:	44 89 ee             	mov    %r13d,%esi
   11e03:	89 c7                	mov    %eax,%edi
   11e05:	e8 f5 8e ff ff       	callq  acff <safe_add_func_uint16_t_u_u>
   11e0a:	0f b6 c0             	movzbl %al,%eax
   11e0d:	89 c7                	mov    %eax,%edi
   11e0f:	e8 31 8d ff ff       	callq  ab45 <safe_unary_minus_func_uint8_t_u>
   11e14:	0f b6 d0             	movzbl %al,%edx
   11e17:	8b 85 5c f1 ff ff    	mov    -0xea4(%rbp),%eax
   11e1d:	39 c2                	cmp    %eax,%edx
   11e1f:	0f 9d c0             	setge  %al
   11e22:	0f b6 d0             	movzbl %al,%edx
   11e25:	8b 85 bc f1 ff ff    	mov    -0xe44(%rbp),%eax
   11e2b:	0f b7 c0             	movzwl %ax,%eax
   11e2e:	89 d6                	mov    %edx,%esi
   11e30:	89 c7                	mov    %eax,%edi
   11e32:	e8 06 8f ff ff       	callq  ad3d <safe_mul_func_uint16_t_u_u>
   11e37:	98                   	cwtl   
   11e38:	be 0b 00 00 00       	mov    $0xb,%esi
   11e3d:	89 c7                	mov    %eax,%edi
   11e3f:	e8 1f 87 ff ff       	callq  a563 <safe_rshift_func_int16_t_s_u>
   11e44:	0f be c0             	movsbl %al,%eax
   11e47:	be 09 00 00 00       	mov    $0x9,%esi
   11e4c:	89 c7                	mov    %eax,%edi
   11e4e:	e8 17 84 ff ff       	callq  a26a <safe_div_func_int8_t_s_s>
   11e53:	48 8b 85 d0 f2 ff ff 	mov    -0xd30(%rbp),%rax
   11e5a:	8b 00                	mov    (%rax),%eax
   11e5c:	85 c0                	test   %eax,%eax
   11e5e:	74 07                	je     11e67 <func_49+0x130e>
   11e60:	b8 01 00 00 00       	mov    $0x1,%eax
   11e65:	eb 05                	jmp    11e6c <func_49+0x1313>
   11e67:	b8 00 00 00 00       	mov    $0x0,%eax
   11e6c:	89 c2                	mov    %eax,%edx
   11e6e:	0f b6 85 45 f1 ff ff 	movzbl -0xebb(%rbp),%eax
   11e75:	31 d0                	xor    %edx,%eax
   11e77:	88 85 45 f1 ff ff    	mov    %al,-0xebb(%rbp)
   11e7d:	ba 01 00 00 00       	mov    $0x1,%edx
   11e82:	48 8b 85 d0 f1 ff ff 	mov    -0xe30(%rbp),%rax
   11e89:	48 8b 00             	mov    (%rax),%rax
   11e8c:	88 10                	mov    %dl,(%rax)
   11e8e:	0f b6 00             	movzbl (%rax),%eax
   11e91:	0f b6 c0             	movzbl %al,%eax
   11e94:	44 89 e6             	mov    %r12d,%esi
   11e97:	89 c7                	mov    %eax,%edi
   11e99:	e8 ef 8d ff ff       	callq  ac8d <safe_rshift_func_uint8_t_u_s>
   11e9e:	89 de                	mov    %ebx,%esi
   11ea0:	bf 00 00 00 00       	mov    $0x0,%edi
   11ea5:	e8 2a 83 ff ff       	callq  a1d4 <safe_add_func_int8_t_s_s>
   11eaa:	8b 85 60 f3 ff ff    	mov    -0xca0(%rbp),%eax
   11eb0:	89 c2                	mov    %eax,%edx
   11eb2:	48 8b 85 d8 f2 ff ff 	mov    -0xd28(%rbp),%rax
   11eb9:	88 10                	mov    %dl,(%rax)
   11ebb:	48 8b 85 d8 f2 ff ff 	mov    -0xd28(%rbp),%rax
   11ec2:	0f b6 00             	movzbl (%rax),%eax
   11ec5:	0f be d0             	movsbl %al,%edx
   11ec8:	48 8b 85 c8 f2 ff ff 	mov    -0xd38(%rbp),%rax
   11ecf:	8b 00                	mov    (%rax),%eax
   11ed1:	0f be c0             	movsbl %al,%eax
   11ed4:	89 d6                	mov    %edx,%esi
   11ed6:	89 c7                	mov    %eax,%edi
   11ed8:	e8 c4 83 ff ff       	callq  a2a1 <safe_lshift_func_int8_t_s_s>
   11edd:	48 8b 85 e0 f2 ff ff 	mov    -0xd20(%rbp),%rax
   11ee4:	48 8d 15 79 f5 00 00 	lea    0xf579(%rip),%rdx        # 21464 <g_559+0x4>
   11eeb:	48 89 10             	mov    %rdx,(%rax)
   11eee:	48 8b 85 e0 f2 ff ff 	mov    -0xd20(%rbp),%rax
   11ef5:	48 8b 10             	mov    (%rax),%rdx
   11ef8:	48 8d 85 46 f1 ff ff 	lea    -0xeba(%rbp),%rax
   11eff:	48 39 c2             	cmp    %rax,%rdx
   11f02:	48 8b 05 ff 0c 01 00 	mov    0x10cff(%rip),%rax        # 22c08 <g_382>
   11f09:	48 c7 00 00 00 00 00 	movq   $0x0,(%rax)
   11f10:	c6 05 a9 f7 00 00 00 	movb   $0x0,0xf7a9(%rip)        # 216c0 <g_1896>
   11f17:	e9 1f 01 00 00       	jmpq   1203b <func_49+0x14e2>
   11f1c:	66 c7 85 48 f1 ff ff 	movw   $0x852f,-0xeb8(%rbp)
   11f23:	2f 85 
   11f25:	8b 85 6c f3 ff ff    	mov    -0xc94(%rbp),%eax
   11f2b:	85 c0                	test   %eax,%eax
   11f2d:	0f 85 19 01 00 00    	jne    1204c <func_49+0x14f3>
   11f33:	48 8b 05 ce 0c 01 00 	mov    0x10cce(%rip),%rax        # 22c08 <g_382>
   11f3a:	48 8d 95 64 f1 ff ff 	lea    -0xe9c(%rbp),%rdx
   11f41:	48 89 10             	mov    %rdx,(%rax)
   11f44:	0f b6 85 41 f1 ff ff 	movzbl -0xebf(%rbp),%eax
   11f4b:	84 c0                	test   %al,%al
   11f4d:	0f 85 d7 00 00 00    	jne    1202a <func_49+0x14d1>
   11f53:	48 8b 15 9e 0c 01 00 	mov    0x10c9e(%rip),%rdx        # 22bf8 <g_319>
   11f5a:	48 8b 05 a7 0c 01 00 	mov    0x10ca7(%rip),%rax        # 22c08 <g_382>
   11f61:	48 8b 12             	mov    (%rdx),%rdx
   11f64:	48 89 10             	mov    %rdx,(%rax)
   11f67:	c7 05 6f f4 00 00 00 	movl   $0x0,0xf46f(%rip)        # 213e0 <g_161>
   11f6e:	00 00 00 
   11f71:	e9 a3 00 00 00       	jmpq   12019 <func_49+0x14c0>
   11f76:	48 8d 85 5c f1 ff ff 	lea    -0xea4(%rbp),%rax
   11f7d:	48 89 85 70 f5 ff ff 	mov    %rax,-0xa90(%rbp)
   11f84:	48 8d 85 54 f1 ff ff 	lea    -0xeac(%rbp),%rax
   11f8b:	48 89 85 78 f5 ff ff 	mov    %rax,-0xa88(%rbp)
   11f92:	48 8d 85 5c f1 ff ff 	lea    -0xea4(%rbp),%rax
   11f99:	48 89 85 80 f5 ff ff 	mov    %rax,-0xa80(%rbp)
   11fa0:	48 8d 85 54 f1 ff ff 	lea    -0xeac(%rbp),%rax
   11fa7:	48 89 85 88 f5 ff ff 	mov    %rax,-0xa78(%rbp)
   11fae:	48 8d 85 5c f1 ff ff 	lea    -0xea4(%rbp),%rax
   11fb5:	48 89 85 90 f5 ff ff 	mov    %rax,-0xa70(%rbp)
   11fbc:	48 8d 85 54 f1 ff ff 	lea    -0xeac(%rbp),%rax
   11fc3:	48 89 85 98 f5 ff ff 	mov    %rax,-0xa68(%rbp)
   11fca:	48 8d 85 5c f1 ff ff 	lea    -0xea4(%rbp),%rax
   11fd1:	48 89 85 a0 f5 ff ff 	mov    %rax,-0xa60(%rbp)
   11fd8:	48 8d 85 54 f1 ff ff 	lea    -0xeac(%rbp),%rax
   11fdf:	48 89 85 a8 f5 ff ff 	mov    %rax,-0xa58(%rbp)
   11fe6:	48 8d 85 5c f1 ff ff 	lea    -0xea4(%rbp),%rax
   11fed:	48 89 85 b0 f5 ff ff 	mov    %rax,-0xa50(%rbp)
   11ff4:	48 8d 85 54 f1 ff ff 	lea    -0xeac(%rbp),%rax
   11ffb:	48 89 85 b8 f5 ff ff 	mov    %rax,-0xa48(%rbp)
   12002:	66 83 85 48 f1 ff ff 	addw   $0x1,-0xeb8(%rbp)
   12009:	01 
   1200a:	8b 05 d0 f3 00 00    	mov    0xf3d0(%rip),%eax        # 213e0 <g_161>
   12010:	83 c0 01             	add    $0x1,%eax
   12013:	89 05 c7 f3 00 00    	mov    %eax,0xf3c7(%rip)        # 213e0 <g_161>
   12019:	8b 05 c1 f3 00 00    	mov    0xf3c1(%rip),%eax        # 213e0 <g_161>
   1201f:	83 f8 02             	cmp    $0x2,%eax
   12022:	0f 86 4e ff ff ff    	jbe    11f76 <func_49+0x141d>
   12028:	eb 01                	jmp    1202b <func_49+0x14d2>
   1202a:	90                   	nop
   1202b:	0f b6 05 8e f6 00 00 	movzbl 0xf68e(%rip),%eax        # 216c0 <g_1896>
   12032:	83 c0 01             	add    $0x1,%eax
   12035:	88 05 85 f6 00 00    	mov    %al,0xf685(%rip)        # 216c0 <g_1896>
   1203b:	0f b6 05 7e f6 00 00 	movzbl 0xf67e(%rip),%eax        # 216c0 <g_1896>
   12042:	3c 02                	cmp    $0x2,%al
   12044:	0f 86 d2 fe ff ff    	jbe    11f1c <func_49+0x13c3>
   1204a:	eb 01                	jmp    1204d <func_49+0x14f4>
   1204c:	90                   	nop
   1204d:	0f b6 05 71 f5 00 00 	movzbl 0xf571(%rip),%eax        # 215c5 <g_1486>
   12054:	83 e8 01             	sub    $0x1,%eax
   12057:	88 05 68 f5 00 00    	mov    %al,0xf568(%rip)        # 215c5 <g_1486>
   1205d:	0f b6 05 61 f5 00 00 	movzbl 0xf561(%rip),%eax        # 215c5 <g_1486>
   12064:	84 c0                	test   %al,%al
   12066:	0f 89 f9 eb ff ff    	jns    10c65 <func_49+0x10c>
   1206c:	48 8b 05 95 0b 01 00 	mov    0x10b95(%rip),%rax        # 22c08 <g_382>
   12073:	48 c7 00 00 00 00 00 	movq   $0x0,(%rax)
   1207a:	c6 05 3f f6 00 00 00 	movb   $0x0,0xf63f(%rip)        # 216c0 <g_1896>
   12081:	90                   	nop
   12082:	0f b6 05 37 f6 00 00 	movzbl 0xf637(%rip),%eax        # 216c0 <g_1896>
   12089:	3c 34                	cmp    $0x34,%al
   1208b:	0f 86 2b 14 00 00    	jbe    134bc <func_49+0x2963>
   12091:	48 8d 05 28 f6 00 00 	lea    0xf628(%rip),%rax        # 216c0 <g_1896>
   12098:	48 89 85 20 f2 ff ff 	mov    %rax,-0xde0(%rbp)
   1209f:	c7 85 d0 f1 ff ff 3e 	movl   $0xf399cb3e,-0xe30(%rbp)
   120a6:	cb 99 f3 
   120a9:	66 c7 85 4c f1 ff ff 	movw   $0x2d3a,-0xeb4(%rbp)
   120b0:	3a 2d 
   120b2:	48 8d 05 7f f3 00 00 	lea    0xf37f(%rip),%rax        # 21438 <g_289>
   120b9:	48 89 85 d8 f1 ff ff 	mov    %rax,-0xe28(%rbp)
   120c0:	48 8d 85 d8 f1 ff ff 	lea    -0xe28(%rbp),%rax
   120c7:	48 89 85 e0 f1 ff ff 	mov    %rax,-0xe20(%rbp)
   120ce:	48 8d 85 e0 f1 ff ff 	lea    -0xe20(%rbp),%rax
   120d5:	48 89 85 28 f2 ff ff 	mov    %rax,-0xdd8(%rbp)
   120dc:	48 8d 85 40 f8 ff ff 	lea    -0x7c0(%rbp),%rax
   120e3:	48 8d 15 d6 fe 00 00 	lea    0xfed6(%rip),%rdx        # 21fc0 <g_3040+0x8cc>
   120ea:	b9 54 00 00 00       	mov    $0x54,%ecx
   120ef:	48 89 c7             	mov    %rax,%rdi
   120f2:	48 89 d6             	mov    %rdx,%rsi
   120f5:	f3 48 a5             	rep movsq %ds:(%rsi),%es:(%rdi)
   120f8:	48 c7 85 80 f3 ff ff 	movq   $0x0,-0xc80(%rbp)
   120ff:	00 00 00 00 
   12103:	48 c7 85 88 f3 ff ff 	movq   $0x0,-0xc78(%rbp)
   1210a:	00 00 00 00 
   1210e:	48 c7 85 90 f3 ff ff 	movq   $0x0,-0xc70(%rbp)
   12115:	00 00 00 00 
   12119:	c7 85 98 f3 ff ff 00 	movl   $0x0,-0xc68(%rbp)
   12120:	00 00 00 
   12123:	48 8d 85 c8 f1 ff ff 	lea    -0xe38(%rbp),%rax
   1212a:	48 89 85 e8 f1 ff ff 	mov    %rax,-0xe18(%rbp)
   12131:	48 8d 85 e8 f1 ff ff 	lea    -0xe18(%rbp),%rax
   12138:	48 89 85 70 f5 ff ff 	mov    %rax,-0xa90(%rbp)
   1213f:	48 8d 85 e8 f1 ff ff 	lea    -0xe18(%rbp),%rax
   12146:	48 89 85 78 f5 ff ff 	mov    %rax,-0xa88(%rbp)
   1214d:	48 8d 85 e8 f1 ff ff 	lea    -0xe18(%rbp),%rax
   12154:	48 89 85 80 f5 ff ff 	mov    %rax,-0xa80(%rbp)
   1215b:	48 8d 85 e8 f1 ff ff 	lea    -0xe18(%rbp),%rax
   12162:	48 89 85 88 f5 ff ff 	mov    %rax,-0xa78(%rbp)
   12169:	48 8d 85 e8 f1 ff ff 	lea    -0xe18(%rbp),%rax
   12170:	48 89 85 90 f5 ff ff 	mov    %rax,-0xa70(%rbp)
   12177:	48 8d 85 e8 f1 ff ff 	lea    -0xe18(%rbp),%rax
   1217e:	48 89 85 98 f5 ff ff 	mov    %rax,-0xa68(%rbp)
   12185:	48 8d 85 e8 f1 ff ff 	lea    -0xe18(%rbp),%rax
   1218c:	48 89 85 a0 f5 ff ff 	mov    %rax,-0xa60(%rbp)
   12193:	48 8d 85 e8 f1 ff ff 	lea    -0xe18(%rbp),%rax
   1219a:	48 89 85 a8 f5 ff ff 	mov    %rax,-0xa58(%rbp)
   121a1:	48 8d 85 e8 f1 ff ff 	lea    -0xe18(%rbp),%rax
   121a8:	48 89 85 b0 f5 ff ff 	mov    %rax,-0xa50(%rbp)
   121af:	48 8d 85 e8 f1 ff ff 	lea    -0xe18(%rbp),%rax
   121b6:	48 89 85 b8 f5 ff ff 	mov    %rax,-0xa48(%rbp)
   121bd:	48 8d 85 e8 f1 ff ff 	lea    -0xe18(%rbp),%rax
   121c4:	48 89 85 c0 f5 ff ff 	mov    %rax,-0xa40(%rbp)
   121cb:	48 8d 85 e8 f1 ff ff 	lea    -0xe18(%rbp),%rax
   121d2:	48 89 85 c8 f5 ff ff 	mov    %rax,-0xa38(%rbp)
   121d9:	48 8d 85 e8 f1 ff ff 	lea    -0xe18(%rbp),%rax
   121e0:	48 89 85 d0 f5 ff ff 	mov    %rax,-0xa30(%rbp)
   121e7:	48 8d 85 e8 f1 ff ff 	lea    -0xe18(%rbp),%rax
   121ee:	48 89 85 d8 f5 ff ff 	mov    %rax,-0xa28(%rbp)
   121f5:	48 8d 85 e8 f1 ff ff 	lea    -0xe18(%rbp),%rax
   121fc:	48 89 85 e0 f5 ff ff 	mov    %rax,-0xa20(%rbp)
   12203:	48 8d 85 e8 f1 ff ff 	lea    -0xe18(%rbp),%rax
   1220a:	48 89 85 e8 f5 ff ff 	mov    %rax,-0xa18(%rbp)
   12211:	48 8d 85 e8 f1 ff ff 	lea    -0xe18(%rbp),%rax
   12218:	48 89 85 f0 f5 ff ff 	mov    %rax,-0xa10(%rbp)
   1221f:	48 8d 85 e8 f1 ff ff 	lea    -0xe18(%rbp),%rax
   12226:	48 89 85 f8 f5 ff ff 	mov    %rax,-0xa08(%rbp)
   1222d:	48 8d 85 e8 f1 ff ff 	lea    -0xe18(%rbp),%rax
   12234:	48 89 85 00 f6 ff ff 	mov    %rax,-0xa00(%rbp)
   1223b:	48 8d 85 e8 f1 ff ff 	lea    -0xe18(%rbp),%rax
   12242:	48 89 85 08 f6 ff ff 	mov    %rax,-0x9f8(%rbp)
   12249:	48 8d 85 e8 f1 ff ff 	lea    -0xe18(%rbp),%rax
   12250:	48 89 85 10 f6 ff ff 	mov    %rax,-0x9f0(%rbp)
   12257:	48 8d 85 e8 f1 ff ff 	lea    -0xe18(%rbp),%rax
   1225e:	48 89 85 18 f6 ff ff 	mov    %rax,-0x9e8(%rbp)
   12265:	48 8d 85 e8 f1 ff ff 	lea    -0xe18(%rbp),%rax
   1226c:	48 89 85 20 f6 ff ff 	mov    %rax,-0x9e0(%rbp)
   12273:	48 8d 85 e8 f1 ff ff 	lea    -0xe18(%rbp),%rax
   1227a:	48 89 85 28 f6 ff ff 	mov    %rax,-0x9d8(%rbp)
   12281:	48 8d 85 e8 f1 ff ff 	lea    -0xe18(%rbp),%rax
   12288:	48 89 85 30 f6 ff ff 	mov    %rax,-0x9d0(%rbp)
   1228f:	48 8d 85 e8 f1 ff ff 	lea    -0xe18(%rbp),%rax
   12296:	48 89 85 38 f6 ff ff 	mov    %rax,-0x9c8(%rbp)
   1229d:	48 8d 85 e8 f1 ff ff 	lea    -0xe18(%rbp),%rax
   122a4:	48 89 85 40 f6 ff ff 	mov    %rax,-0x9c0(%rbp)
   122ab:	48 8d 85 e8 f1 ff ff 	lea    -0xe18(%rbp),%rax
   122b2:	48 89 85 48 f6 ff ff 	mov    %rax,-0x9b8(%rbp)
   122b9:	48 8d 85 e8 f1 ff ff 	lea    -0xe18(%rbp),%rax
   122c0:	48 89 85 50 f6 ff ff 	mov    %rax,-0x9b0(%rbp)
   122c7:	48 8d 85 e8 f1 ff ff 	lea    -0xe18(%rbp),%rax
   122ce:	48 89 85 58 f6 ff ff 	mov    %rax,-0x9a8(%rbp)
   122d5:	48 8d 85 e8 f1 ff ff 	lea    -0xe18(%rbp),%rax
   122dc:	48 89 85 60 f6 ff ff 	mov    %rax,-0x9a0(%rbp)
   122e3:	48 8d 85 e8 f1 ff ff 	lea    -0xe18(%rbp),%rax
   122ea:	48 89 85 68 f6 ff ff 	mov    %rax,-0x998(%rbp)
   122f1:	48 8d 85 e8 f1 ff ff 	lea    -0xe18(%rbp),%rax
   122f8:	48 89 85 70 f6 ff ff 	mov    %rax,-0x990(%rbp)
   122ff:	48 8d 85 e8 f1 ff ff 	lea    -0xe18(%rbp),%rax
   12306:	48 89 85 78 f6 ff ff 	mov    %rax,-0x988(%rbp)
   1230d:	48 8d 85 e8 f1 ff ff 	lea    -0xe18(%rbp),%rax
   12314:	48 89 85 80 f6 ff ff 	mov    %rax,-0x980(%rbp)
   1231b:	48 8d 85 e8 f1 ff ff 	lea    -0xe18(%rbp),%rax
   12322:	48 89 85 88 f6 ff ff 	mov    %rax,-0x978(%rbp)
   12329:	48 8d 85 70 f5 ff ff 	lea    -0xa90(%rbp),%rax
   12330:	48 05 90 00 00 00    	add    $0x90,%rax
   12336:	48 89 85 30 f2 ff ff 	mov    %rax,-0xdd0(%rbp)
   1233d:	48 c7 05 f8 ee 00 00 	movq   $0x0,0xeef8(%rip)        # 21240 <g_101>
   12344:	00 00 00 00 
   12348:	e9 55 11 00 00       	jmpq   134a2 <func_49+0x2949>
   1234d:	c7 85 74 f1 ff ff 02 	movl   $0x2,-0xe8c(%rbp)
   12354:	00 00 00 
   12357:	48 c7 85 f0 f1 ff ff 	movq   $0x0,-0xe10(%rbp)
   1235e:	00 00 00 00 
   12362:	48 8d 85 f0 f1 ff ff 	lea    -0xe10(%rbp),%rax
   12369:	48 89 85 38 f2 ff ff 	mov    %rax,-0xdc8(%rbp)
   12370:	c7 85 78 f1 ff ff 00 	movl   $0x0,-0xe88(%rbp)
   12377:	00 00 00 
   1237a:	eb 14                	jmp    12390 <func_49+0x1837>
   1237c:	8b 85 78 f1 ff ff    	mov    -0xe88(%rbp),%eax
   12382:	48 98                	cltq   
   12384:	c6 44 05 c7 00       	movb   $0x0,-0x39(%rbp,%rax,1)
   12389:	83 85 78 f1 ff ff 01 	addl   $0x1,-0xe88(%rbp)
   12390:	83 bd 78 f1 ff ff 00 	cmpl   $0x0,-0xe88(%rbp)
   12397:	7e e3                	jle    1237c <func_49+0x1823>
   12399:	0f b6 45 c7          	movzbl -0x39(%rbp),%eax
   1239d:	84 c0                	test   %al,%al
   1239f:	0f 84 31 01 00 00    	je     124d6 <func_49+0x197d>
   123a5:	c7 85 90 f1 ff ff 01 	movl   $0x1,-0xe70(%rbp)
   123ac:	00 00 00 
   123af:	be 0d 00 00 00       	mov    $0xd,%esi
   123b4:	bf 01 00 00 00       	mov    $0x1,%edi
   123b9:	e8 6c 81 ff ff       	callq  a52a <safe_rshift_func_int16_t_s_s>
   123be:	0f b6 c0             	movzbl %al,%eax
   123c1:	89 c7                	mov    %eax,%edi
   123c3:	e8 7d 87 ff ff       	callq  ab45 <safe_unary_minus_func_uint8_t_u>
   123c8:	0f b6 c0             	movzbl %al,%eax
   123cb:	be 0d 00 00 00       	mov    $0xd,%esi
   123d0:	89 c7                	mov    %eax,%edi
   123d2:	e8 53 81 ff ff       	callq  a52a <safe_rshift_func_int16_t_s_s>
   123d7:	44 0f bf f0          	movswl %ax,%r14d
   123db:	8b 85 d0 f1 ff ff    	mov    -0xe30(%rbp),%eax
   123e1:	0f b6 d8             	movzbl %al,%ebx
   123e4:	48 8b 85 38 f1 ff ff 	mov    -0xec8(%rbp),%rax
   123eb:	0f b6 00             	movzbl (%rax),%eax
   123ee:	44 0f be e0          	movsbl %al,%r12d
   123f2:	8b 85 d0 f1 ff ff    	mov    -0xe30(%rbp),%eax
   123f8:	44 0f bf e8          	movswl %ax,%r13d
   123fc:	8b 85 90 f1 ff ff    	mov    -0xe70(%rbp),%eax
   12402:	89 c6                	mov    %eax,%esi
   12404:	bf a9 e5 41 e6       	mov    $0xe641e5a9,%edi
   12409:	e8 aa 8a ff ff       	callq  aeb8 <safe_add_func_uint32_t_u_u>
   1240e:	be ff ff ff ff       	mov    $0xffffffff,%esi
   12413:	bf f7 ff ff ff       	mov    $0xfffffff7,%edi
   12418:	e8 14 7e ff ff       	callq  a231 <safe_mod_func_int8_t_s_s>
   1241d:	0f be c0             	movsbl %al,%eax
   12420:	44 89 ee             	mov    %r13d,%esi
   12423:	89 c7                	mov    %eax,%edi
   12425:	e8 cb 7f ff ff       	callq  a3f5 <safe_mul_func_int16_t_s_s>
   1242a:	66 85 c0             	test   %ax,%ax
   1242d:	74 0f                	je     1243e <func_49+0x18e5>
   1242f:	0f b6 45 c7          	movzbl -0x39(%rbp),%eax
   12433:	84 c0                	test   %al,%al
   12435:	74 07                	je     1243e <func_49+0x18e5>
   12437:	b8 01 00 00 00       	mov    $0x1,%eax
   1243c:	eb 05                	jmp    12443 <func_49+0x18ea>
   1243e:	b8 00 00 00 00       	mov    $0x0,%eax
   12443:	89 c7                	mov    %eax,%edi
   12445:	e8 4c 81 ff ff       	callq  a596 <safe_unary_minus_func_int32_t_s>
   1244a:	0f be c0             	movsbl %al,%eax
   1244d:	44 89 e6             	mov    %r12d,%esi
   12450:	89 c7                	mov    %eax,%edi
   12452:	e8 13 7e ff ff       	callq  a26a <safe_div_func_int8_t_s_s>
   12457:	0f be d0             	movsbl %al,%edx
   1245a:	48 8b 05 9f 07 01 00 	mov    0x1079f(%rip),%rax        # 22c00 <g_376>
   12461:	8b 08                	mov    (%rax),%ecx
   12463:	83 e1 01             	and    $0x1,%ecx
   12466:	89 08                	mov    %ecx,(%rax)
   12468:	8b 00                	mov    (%rax),%eax
   1246a:	89 d6                	mov    %edx,%esi
   1246c:	89 c7                	mov    %eax,%edi
   1246e:	e8 43 81 ff ff       	callq  a5b6 <safe_add_func_int32_t_s_s>
   12473:	89 c2                	mov    %eax,%edx
   12475:	48 8b 05 8c 19 01 00 	mov    0x1198c(%rip),%rax        # 23e08 <g_1956>
   1247c:	48 8b 00             	mov    (%rax),%rax
   1247f:	8b 00                	mov    (%rax),%eax
   12481:	39 c2                	cmp    %eax,%edx
   12483:	0f 97 c0             	seta   %al
   12486:	0f b6 c0             	movzbl %al,%eax
   12489:	89 de                	mov    %ebx,%esi
   1248b:	89 c7                	mov    %eax,%edi
   1248d:	e8 49 87 ff ff       	callq  abdb <safe_div_func_uint8_t_u_u>
   12492:	0f b6 c0             	movzbl %al,%eax
   12495:	41 39 c6             	cmp    %eax,%r14d
   12498:	0f 94 c0             	sete   %al
   1249b:	0f b6 c0             	movzbl %al,%eax
   1249e:	48 89 c6             	mov    %rax,%rsi
   124a1:	48 bf 77 58 ba 87 e1 	movabs $0x9d8424e187ba5877,%rdi
   124a8:	24 84 9d 
   124ab:	e8 91 83 ff ff       	callq  a841 <safe_add_func_int64_t_s_s>
   124b0:	8b 85 bc f3 ff ff    	mov    -0xc44(%rbp),%eax
   124b6:	39 85 90 f1 ff ff    	cmp    %eax,-0xe70(%rbp)
   124bc:	0f 92 c0             	setb   %al
   124bf:	0f b6 d0             	movzbl %al,%edx
   124c2:	0f b6 45 c7          	movzbl -0x39(%rbp),%eax
   124c6:	0f be c0             	movsbl %al,%eax
   124c9:	31 d0                	xor    %edx,%eax
   124cb:	31 85 74 f1 ff ff    	xor    %eax,-0xe8c(%rbp)
   124d1:	e9 62 05 00 00       	jmpq   12a38 <func_49+0x1edf>
   124d6:	48 8d 05 67 eb 00 00 	lea    0xeb67(%rip),%rax        # 21044 <g_62+0x4>
   124dd:	48 89 85 40 f2 ff ff 	mov    %rax,-0xdc0(%rbp)
   124e4:	48 c7 85 48 f2 ff ff 	movq   $0x0,-0xdb8(%rbp)
   124eb:	00 00 00 00 
   124ef:	48 8d 85 60 f3 ff ff 	lea    -0xca0(%rbp),%rax
   124f6:	48 89 85 50 f2 ff ff 	mov    %rax,-0xdb0(%rbp)
   124fd:	48 c7 85 70 f4 ff ff 	movq   $0x0,-0xb90(%rbp)
   12504:	00 00 00 00 
   12508:	48 c7 85 78 f4 ff ff 	movq   $0x0,-0xb88(%rbp)
   1250f:	00 00 00 00 
   12513:	48 c7 85 80 f4 ff ff 	movq   $0x0,-0xb80(%rbp)
   1251a:	00 00 00 00 
   1251e:	48 c7 85 88 f4 ff ff 	movq   $0x0,-0xb78(%rbp)
   12525:	00 00 00 00 
   12529:	48 c7 85 90 f4 ff ff 	movq   $0x0,-0xb70(%rbp)
   12530:	00 00 00 00 
   12534:	48 c7 85 98 f4 ff ff 	movq   $0x0,-0xb68(%rbp)
   1253b:	00 00 00 00 
   1253f:	48 c7 85 a0 f4 ff ff 	movq   $0x0,-0xb60(%rbp)
   12546:	00 00 00 00 
   1254a:	48 c7 85 a8 f4 ff ff 	movq   $0x0,-0xb58(%rbp)
   12551:	00 00 00 00 
   12555:	48 8d 85 41 f1 ff ff 	lea    -0xebf(%rbp),%rax
   1255c:	48 89 85 58 f2 ff ff 	mov    %rax,-0xda8(%rbp)
   12563:	48 c7 85 60 f2 ff ff 	movq   $0x0,-0xda0(%rbp)
   1256a:	00 00 00 00 
   1256e:	c7 85 88 f1 ff ff de 	movl   $0xc7b979de,-0xe78(%rbp)
   12575:	79 b9 c7 
   12578:	48 8d 05 a9 17 01 00 	lea    0x117a9(%rip),%rax        # 23d28 <g_1660+0x28>
   1257f:	48 89 85 68 f2 ff ff 	mov    %rax,-0xd98(%rbp)
   12586:	0f b7 85 4c f1 ff ff 	movzwl -0xeb4(%rbp),%eax
   1258d:	83 c0 01             	add    $0x1,%eax
   12590:	66 89 85 4c f1 ff ff 	mov    %ax,-0xeb4(%rbp)
   12597:	48 8b 15 2a e4 00 00 	mov    0xe42a(%rip),%rdx        # 209c8 <l_2064.4769+0x108>
   1259e:	48 8b 85 c8 f1 ff ff 	mov    -0xe38(%rbp),%rax
   125a5:	48 39 c2             	cmp    %rax,%rdx
   125a8:	0f 94 c0             	sete   %al
   125ab:	44 0f b6 e8          	movzbl %al,%r13d
   125af:	48 8b 85 50 f2 ff ff 	mov    -0xdb0(%rbp),%rax
   125b6:	44 8b 30             	mov    (%rax),%r14d
   125b9:	0f b6 55 c7          	movzbl -0x39(%rbp),%edx
   125bd:	48 8b 05 5c 06 01 00 	mov    0x1065c(%rip),%rax        # 22c20 <g_487>
   125c4:	88 10                	mov    %dl,(%rax)
   125c6:	0f b6 10             	movzbl (%rax),%edx
   125c9:	48 8b 85 58 f2 ff ff 	mov    -0xda8(%rbp),%rax
   125d0:	88 10                	mov    %dl,(%rax)
   125d2:	8b 85 b8 f3 ff ff    	mov    -0xc48(%rbp),%eax
   125d8:	0f b7 d8             	movzwl %ax,%ebx
   125db:	48 8b 05 3e 06 01 00 	mov    0x1063e(%rip),%rax        # 22c20 <g_487>
   125e2:	0f b6 00             	movzbl (%rax),%eax
   125e5:	44 0f be e0          	movsbl %al,%r12d
   125e9:	48 8b 05 e8 16 01 00 	mov    0x116e8(%rip),%rax        # 23cd8 <g_1437>
   125f0:	48 8b 00             	mov    (%rax),%rax
   125f3:	48 8b 00             	mov    (%rax),%rax
   125f6:	48 89 c6             	mov    %rax,%rsi
   125f9:	bf 00 00 00 00       	mov    $0x0,%edi
   125fe:	e8 b1 83 ff ff       	callq  a9b4 <safe_mod_func_int64_t_s_s>
   12603:	0f be c0             	movsbl %al,%eax
   12606:	44 89 e6             	mov    %r12d,%esi
   12609:	89 c7                	mov    %eax,%edi
   1260b:	e8 c4 7b ff ff       	callq  a1d4 <safe_add_func_int8_t_s_s>
   12610:	0f b6 c0             	movzbl %al,%eax
   12613:	be e5 00 00 00       	mov    $0xe5,%esi
   12618:	89 c7                	mov    %eax,%edi
   1261a:	e8 8f 85 ff ff       	callq  abae <safe_mod_func_uint8_t_u_u>
   1261f:	0f b6 c0             	movzbl %al,%eax
   12622:	89 de                	mov    %ebx,%esi
   12624:	89 c7                	mov    %eax,%edi
   12626:	e8 63 87 ff ff       	callq  ad8e <safe_div_func_uint16_t_u_u>
   1262b:	0f b7 d0             	movzwl %ax,%edx
   1262e:	8b 85 a4 f3 ff ff    	mov    -0xc5c(%rbp),%eax
   12634:	39 c2                	cmp    %eax,%edx
   12636:	0f 94 c0             	sete   %al
   12639:	0f b6 c0             	movzbl %al,%eax
   1263c:	39 85 74 f1 ff ff    	cmp    %eax,-0xe8c(%rbp)
   12642:	0f 9e c0             	setle  %al
   12645:	0f b6 d0             	movzbl %al,%edx
   12648:	48 8b 85 40 f2 ff ff 	mov    -0xdc0(%rbp),%rax
   1264f:	8b 00                	mov    (%rax),%eax
   12651:	39 c2                	cmp    %eax,%edx
   12653:	0f 9e c0             	setle  %al
   12656:	0f b6 c0             	movzbl %al,%eax
   12659:	89 85 74 f1 ff ff    	mov    %eax,-0xe8c(%rbp)
   1265f:	48 8d 85 a0 f3 ff ff 	lea    -0xc60(%rbp),%rax
   12666:	48 83 c0 04          	add    $0x4,%rax
   1266a:	48 39 85 18 f2 ff ff 	cmp    %rax,-0xde8(%rbp)
   12671:	75 07                	jne    1267a <func_49+0x1b21>
   12673:	ba 01 00 00 00       	mov    $0x1,%edx
   12678:	eb 05                	jmp    1267f <func_49+0x1b26>
   1267a:	ba 00 00 00 00       	mov    $0x0,%edx
   1267f:	0f b6 45 c7          	movzbl -0x39(%rbp),%eax
   12683:	0f be c0             	movsbl %al,%eax
   12686:	89 d6                	mov    %edx,%esi
   12688:	89 c7                	mov    %eax,%edi
   1268a:	e8 70 80 ff ff       	callq  a6ff <safe_div_func_int32_t_s_s>
   1268f:	35 70 ba 00 00       	xor    $0xba70,%eax
   12694:	44 21 f0             	and    %r14d,%eax
   12697:	48 98                	cltq   
   12699:	48 c7 c6 f8 ff ff ff 	mov    $0xfffffffffffffff8,%rsi
   126a0:	48 89 c7             	mov    %rax,%rdi
   126a3:	e8 4f 83 ff ff       	callq  a9f7 <safe_div_func_int64_t_s_s>
   126a8:	49 39 c5             	cmp    %rax,%r13
   126ab:	74 6c                	je     12719 <func_49+0x1bc0>
   126ad:	66 c7 85 50 f1 ff ff 	movw   $0xb75e,-0xeb0(%rbp)
   126b4:	5e b7 
   126b6:	c7 05 98 e9 00 00 e4 	movl   $0xffffffe4,0xe998(%rip)        # 21058 <g_65>
   126bd:	ff ff ff 
   126c0:	eb 2c                	jmp    126ee <func_49+0x1b95>
   126c2:	48 8b 05 17 16 01 00 	mov    0x11617(%rip),%rax        # 23ce0 <g_1661>
   126c9:	48 8d 95 38 f1 ff ff 	lea    -0xec8(%rbp),%rdx
   126d0:	48 89 10             	mov    %rdx,(%rax)
   126d3:	8b 05 7f e9 00 00    	mov    0xe97f(%rip),%eax        # 21058 <g_65>
   126d9:	89 c0                	mov    %eax,%eax
   126db:	be 07 00 00 00       	mov    $0x7,%esi
   126e0:	48 89 c7             	mov    %rax,%rdi
   126e3:	e8 59 81 ff ff       	callq  a841 <safe_add_func_int64_t_s_s>
   126e8:	89 05 6a e9 00 00    	mov    %eax,0xe96a(%rip)        # 21058 <g_65>
   126ee:	8b 05 64 e9 00 00    	mov    0xe964(%rip),%eax        # 21058 <g_65>
   126f4:	83 f8 14             	cmp    $0x14,%eax
   126f7:	76 c9                	jbe    126c2 <func_49+0x1b69>
   126f9:	48 8b 05 00 05 01 00 	mov    0x10500(%rip),%rax        # 22c00 <g_376>
   12700:	8b 00                	mov    (%rax),%eax
   12702:	89 c2                	mov    %eax,%edx
   12704:	0f b7 85 50 f1 ff ff 	movzwl -0xeb0(%rbp),%eax
   1270b:	09 d0                	or     %edx,%eax
   1270d:	66 89 85 50 f1 ff ff 	mov    %ax,-0xeb0(%rbp)
   12714:	e9 11 03 00 00       	jmpq   12a2a <func_49+0x1ed1>
   12719:	66 c7 85 64 f1 ff ff 	movw   $0x73e,-0xe9c(%rbp)
   12720:	3e 07 
   12722:	48 b8 1d 6e 84 f4 f6 	movabs $0x6ee3e4f6f4846e1d,%rax
   12729:	e4 e3 6e 
   1272c:	48 89 85 f8 f1 ff ff 	mov    %rax,-0xe08(%rbp)
   12733:	48 8b 85 18 f2 ff ff 	mov    -0xde8(%rbp),%rax
   1273a:	8b 10                	mov    (%rax),%edx
   1273c:	0f bf 85 4e f1 ff ff 	movswl -0xeb2(%rbp),%eax
   12743:	21 c2                	and    %eax,%edx
   12745:	48 8b 85 18 f2 ff ff 	mov    -0xde8(%rbp),%rax
   1274c:	89 10                	mov    %edx,(%rax)
   1274e:	48 8b 85 50 f2 ff ff 	mov    -0xdb0(%rbp),%rax
   12755:	8b 00                	mov    (%rax),%eax
   12757:	85 c0                	test   %eax,%eax
   12759:	0f 84 09 01 00 00    	je     12868 <func_49+0x1d0f>
   1275f:	48 8d 05 5f ee 00 00 	lea    0xee5f(%rip),%rax        # 215c5 <g_1486>
   12766:	48 89 85 d0 f3 ff ff 	mov    %rax,-0xc30(%rbp)
   1276d:	48 8d 05 51 ee 00 00 	lea    0xee51(%rip),%rax        # 215c5 <g_1486>
   12774:	48 89 85 d8 f3 ff ff 	mov    %rax,-0xc28(%rbp)
   1277b:	48 8d 05 43 ee 00 00 	lea    0xee43(%rip),%rax        # 215c5 <g_1486>
   12782:	48 89 85 e0 f3 ff ff 	mov    %rax,-0xc20(%rbp)
   12789:	48 8d 05 35 ee 00 00 	lea    0xee35(%rip),%rax        # 215c5 <g_1486>
   12790:	48 89 85 e8 f3 ff ff 	mov    %rax,-0xc18(%rbp)
   12797:	48 8d 05 27 ee 00 00 	lea    0xee27(%rip),%rax        # 215c5 <g_1486>
   1279e:	48 89 85 f0 f3 ff ff 	mov    %rax,-0xc10(%rbp)
   127a5:	48 8d 05 19 ee 00 00 	lea    0xee19(%rip),%rax        # 215c5 <g_1486>
   127ac:	48 89 85 f8 f3 ff ff 	mov    %rax,-0xc08(%rbp)
   127b3:	c7 85 8c f1 ff ff e5 	movl   $0xd30b13e5,-0xe74(%rbp)
   127ba:	13 0b d3 
   127bd:	48 8d 05 44 ee 00 00 	lea    0xee44(%rip),%rax        # 21608 <g_1545+0x28>
   127c4:	48 89 85 78 f2 ff ff 	mov    %rax,-0xd88(%rbp)
   127cb:	48 8b 05 66 04 01 00 	mov    0x10466(%rip),%rax        # 22c38 <g_712>
   127d2:	48 8b 00             	mov    (%rax),%rax
   127d5:	48 8b 00             	mov    (%rax),%rax
   127d8:	0f b6 00             	movzbl (%rax),%eax
   127db:	0f be d0             	movsbl %al,%edx
   127de:	48 8b 85 38 f1 ff ff 	mov    -0xec8(%rbp),%rax
   127e5:	0f b6 00             	movzbl (%rax),%eax
   127e8:	0f be c0             	movsbl %al,%eax
   127eb:	21 85 8c f1 ff ff    	and    %eax,-0xe74(%rbp)
   127f1:	8b 85 8c f1 ff ff    	mov    -0xe74(%rbp),%eax
   127f7:	89 85 88 f1 ff ff    	mov    %eax,-0xe78(%rbp)
   127fd:	8b 85 88 f1 ff ff    	mov    -0xe78(%rbp),%eax
   12803:	0f be c0             	movsbl %al,%eax
   12806:	89 d6                	mov    %edx,%esi
   12808:	89 c7                	mov    %eax,%edi
   1280a:	e8 c5 79 ff ff       	callq  a1d4 <safe_add_func_int8_t_s_s>
   1280f:	48 8b 05 82 14 01 00 	mov    0x11482(%rip),%rax        # 23c98 <g_1050>
   12816:	48 8b 10             	mov    (%rax),%rdx
   12819:	48 8b 85 78 f2 ff ff 	mov    -0xd88(%rbp),%rax
   12820:	48 8b 00             	mov    (%rax),%rax
   12823:	48 8d 48 01          	lea    0x1(%rax),%rcx
   12827:	48 8b 85 78 f2 ff ff 	mov    -0xd88(%rbp),%rax
   1282e:	48 89 08             	mov    %rcx,(%rax)
   12831:	48 8b 85 78 f2 ff ff 	mov    -0xd88(%rbp),%rax
   12838:	48 8b 00             	mov    (%rax),%rax
   1283b:	89 85 8c f1 ff ff    	mov    %eax,-0xe74(%rbp)
   12841:	8b 85 8c f1 ff ff    	mov    -0xe74(%rbp),%eax
   12847:	48 98                	cltq   
   12849:	48 39 c2             	cmp    %rax,%rdx
   1284c:	0f 97 c0             	seta   %al
   1284f:	0f b6 d0             	movzbl %al,%edx
   12852:	48 8b 85 50 f2 ff ff 	mov    -0xdb0(%rbp),%rax
   12859:	89 10                	mov    %edx,(%rax)
   1285b:	8b 85 8c f1 ff ff    	mov    -0xe74(%rbp),%eax
   12861:	48 98                	cltq   
   12863:	e9 5f 0c 00 00       	jmpq   134c7 <func_49+0x296e>
   12868:	66 83 bd 4c f1 ff ff 	cmpw   $0x0,-0xeb4(%rbp)
   1286f:	00 
   12870:	0f 85 3d 0c 00 00    	jne    134b3 <func_49+0x295a>
   12876:	c7 05 3c ec 00 00 00 	movl   $0x0,0xec3c(%rip)        # 214bc <g_873>
   1287d:	00 00 00 
   12880:	e9 32 01 00 00       	jmpq   129b7 <func_49+0x1e5e>
   12885:	c6 85 42 f1 ff ff 08 	movb   $0x8,-0xebe(%rbp)
   1288c:	48 8d 85 64 f1 ff ff 	lea    -0xe9c(%rbp),%rax
   12893:	48 89 85 70 f2 ff ff 	mov    %rax,-0xd90(%rbp)
   1289a:	0f b7 05 ef 21 01 00 	movzwl 0x121ef(%rip),%eax        # 24a90 <g_2116>
   128a1:	0f b6 d8             	movzbl %al,%ebx
   128a4:	0f b7 05 9d e9 00 00 	movzwl 0xe99d(%rip),%eax        # 21248 <g_115>
   128ab:	44 0f bf e0          	movswl %ax,%r12d
   128af:	48 8b 05 1a 14 01 00 	mov    0x1141a(%rip),%rax        # 23cd0 <g_1438>
   128b6:	4c 8b 28             	mov    (%rax),%r13
   128b9:	0f b6 45 c7          	movzbl -0x39(%rbp),%eax
   128bd:	66 98                	cbtw   
   128bf:	44 0f b7 f0          	movzwl %ax,%r14d
   128c3:	0f b6 95 42 f1 ff ff 	movzbl -0xebe(%rbp),%edx
   128ca:	8b 85 a4 f3 ff ff    	mov    -0xc5c(%rbp),%eax
   128d0:	34 99                	xor    $0x99,%al
   128d2:	48 98                	cltq   
   128d4:	48 89 d6             	mov    %rdx,%rsi
   128d7:	48 89 c7             	mov    %rax,%rdi
   128da:	e8 d5 80 ff ff       	callq  a9b4 <safe_mod_func_int64_t_s_s>
   128df:	ba e1 d4 44 9c       	mov    $0x9c44d4e1,%edx
   128e4:	48 39 d0             	cmp    %rdx,%rax
   128e7:	0f 9f c0             	setg   %al
   128ea:	0f b6 c0             	movzbl %al,%eax
   128ed:	be c8 00 00 00       	mov    $0xc8,%esi
   128f2:	89 c7                	mov    %eax,%edi
   128f4:	e8 9a 82 ff ff       	callq  ab93 <safe_mul_func_uint8_t_u_u>
   128f9:	83 c8 08             	or     $0x8,%eax
   128fc:	0f b6 c0             	movzbl %al,%eax
   128ff:	be 09 00 00 00       	mov    $0x9,%esi
   12904:	89 c7                	mov    %eax,%edi
   12906:	e8 58 7c ff ff       	callq  a563 <safe_rshift_func_int16_t_s_u>
   1290b:	44 89 f6             	mov    %r14d,%esi
   1290e:	bf 00 00 00 00       	mov    $0x0,%edi
   12913:	e8 76 84 ff ff       	callq  ad8e <safe_div_func_uint16_t_u_u>
   12918:	0f b7 c0             	movzwl %ax,%eax
   1291b:	4c 89 ee             	mov    %r13,%rsi
   1291e:	48 89 c7             	mov    %rax,%rdi
   12921:	e8 d1 80 ff ff       	callq  a9f7 <safe_div_func_int64_t_s_s>
   12926:	48 8b 05 d3 02 01 00 	mov    0x102d3(%rip),%rax        # 22c00 <g_376>
   1292d:	8b 85 74 f1 ff ff    	mov    -0xe8c(%rbp),%eax
   12933:	89 c2                	mov    %eax,%edx
   12935:	48 8b 85 70 f2 ff ff 	mov    -0xd90(%rbp),%rax
   1293c:	66 89 10             	mov    %dx,(%rax)
   1293f:	48 8b 85 70 f2 ff ff 	mov    -0xd90(%rbp),%rax
   12946:	0f b7 00             	movzwl (%rax),%eax
   12949:	98                   	cwtl   
   1294a:	48 8b 95 18 f2 ff ff 	mov    -0xde8(%rbp),%rdx
   12951:	c7 02 f8 ff ff ff    	movl   $0xfffffff8,(%rdx)
   12957:	89 c6                	mov    %eax,%esi
   12959:	bf f8 ff ff ff       	mov    $0xfffffff8,%edi
   1295e:	e8 f2 7a ff ff       	callq  a455 <safe_div_func_int16_t_s_s>
   12963:	0f b6 05 e6 ec 00 00 	movzbl 0xece6(%rip),%eax        # 21650 <g_1664+0x10>
   1296a:	66 98                	cbtw   
   1296c:	0f b7 c0             	movzwl %ax,%eax
   1296f:	44 89 e6             	mov    %r12d,%esi
   12972:	89 c7                	mov    %eax,%edi
   12974:	e8 8d 84 ff ff       	callq  ae06 <safe_lshift_func_uint16_t_u_u>
   12979:	89 de                	mov    %ebx,%esi
   1297b:	bf 01 00 00 00       	mov    $0x1,%edi
   12980:	e8 0e 82 ff ff       	callq  ab93 <safe_mul_func_uint8_t_u_u>
   12985:	0f b6 d0             	movzbl %al,%edx
   12988:	48 8b 85 50 f2 ff ff 	mov    -0xdb0(%rbp),%rax
   1298f:	89 10                	mov    %edx,(%rax)
   12991:	48 8b 85 50 f2 ff ff 	mov    -0xdb0(%rbp),%rax
   12998:	8b 00                	mov    (%rax),%eax
   1299a:	83 f0 07             	xor    $0x7,%eax
   1299d:	89 c2                	mov    %eax,%edx
   1299f:	48 8b 85 50 f2 ff ff 	mov    -0xdb0(%rbp),%rax
   129a6:	89 10                	mov    %edx,(%rax)
   129a8:	8b 05 0e eb 00 00    	mov    0xeb0e(%rip),%eax        # 214bc <g_873>
   129ae:	83 c0 01             	add    $0x1,%eax
   129b1:	89 05 05 eb 00 00    	mov    %eax,0xeb05(%rip)        # 214bc <g_873>
   129b7:	8b 05 ff ea 00 00    	mov    0xeaff(%rip),%eax        # 214bc <g_873>
   129bd:	83 f8 18             	cmp    $0x18,%eax
   129c0:	0f 85 bf fe ff ff    	jne    12885 <func_49+0x1d2c>
   129c6:	c7 05 e0 ea 00 00 00 	movl   $0x0,0xeae0(%rip)        # 214b0 <g_627>
   129cd:	00 00 00 
   129d0:	eb 4d                	jmp    12a1f <func_49+0x1ec6>
   129d2:	48 83 85 f8 f1 ff ff 	addq   $0x1,-0xe08(%rbp)
   129d9:	01 
   129da:	0f b7 05 61 ea 00 00 	movzwl 0xea61(%rip),%eax        # 21442 <g_431>
   129e1:	0f b7 c0             	movzwl %ax,%eax
   129e4:	be 07 00 00 00       	mov    $0x7,%esi
   129e9:	89 c7                	mov    %eax,%edi
   129eb:	e8 8a 84 ff ff       	callq  ae7a <safe_rshift_func_uint16_t_u_u>
   129f0:	48 8b 05 11 02 01 00 	mov    0x10211(%rip),%rax        # 22c08 <g_382>
   129f7:	48 8b 95 78 f4 ff ff 	mov    -0xb88(%rbp),%rdx
   129fe:	48 89 10             	mov    %rdx,(%rax)
   12a01:	8b 05 a9 ea 00 00    	mov    0xeaa9(%rip),%eax        # 214b0 <g_627>
   12a07:	0f b7 c0             	movzwl %ax,%eax
   12a0a:	be 02 00 00 00       	mov    $0x2,%esi
   12a0f:	89 c7                	mov    %eax,%edi
   12a11:	e8 e9 82 ff ff       	callq  acff <safe_add_func_uint16_t_u_u>
   12a16:	0f b7 c0             	movzwl %ax,%eax
   12a19:	89 05 91 ea 00 00    	mov    %eax,0xea91(%rip)        # 214b0 <g_627>
   12a1f:	8b 05 8b ea 00 00    	mov    0xea8b(%rip),%eax        # 214b0 <g_627>
   12a25:	83 f8 0e             	cmp    $0xe,%eax
   12a28:	75 a8                	jne    129d2 <func_49+0x1e79>
   12a2a:	48 8d 05 f7 12 01 00 	lea    0x112f7(%rip),%rax        # 23d28 <g_1660+0x28>
   12a31:	48 89 85 68 f2 ff ff 	mov    %rax,-0xd98(%rbp)
   12a38:	c7 85 d0 f1 ff ff 00 	movl   $0x0,-0xe30(%rbp)
   12a3f:	00 00 00 
   12a42:	e9 85 00 00 00       	jmpq   12acc <func_49+0x1f73>
   12a47:	c7 05 07 e6 00 00 00 	movl   $0x0,0xe607(%rip)        # 21058 <g_65>
   12a4e:	00 00 00 
   12a51:	eb 2d                	jmp    12a80 <func_49+0x1f27>
   12a53:	8b 05 ff e5 00 00    	mov    0xe5ff(%rip),%eax        # 21058 <g_65>
   12a59:	89 c0                	mov    %eax,%eax
   12a5b:	48 8d 14 85 00 00 00 	lea    0x0(,%rax,4),%rdx
   12a62:	00 
   12a63:	48 8d 05 e6 1f 01 00 	lea    0x11fe6(%rip),%rax        # 24a50 <g_117>
   12a6a:	c7 04 02 05 00 00 00 	movl   $0x5,(%rdx,%rax,1)
   12a71:	8b 05 e1 e5 00 00    	mov    0xe5e1(%rip),%eax        # 21058 <g_65>
   12a77:	83 c0 01             	add    $0x1,%eax
   12a7a:	89 05 d8 e5 00 00    	mov    %eax,0xe5d8(%rip)        # 21058 <g_65>
   12a80:	8b 05 d2 e5 00 00    	mov    0xe5d2(%rip),%eax        # 21058 <g_65>
   12a86:	83 f8 05             	cmp    $0x5,%eax
   12a89:	76 c8                	jbe    12a53 <func_49+0x1efa>
   12a8b:	8b 8d d0 f1 ff ff    	mov    -0xe30(%rbp),%ecx
   12a91:	48 8b 05 70 01 01 00 	mov    0x10170(%rip),%rax        # 22c08 <g_382>
   12a98:	48 8d 95 a0 f3 ff ff 	lea    -0xc60(%rbp),%rdx
   12a9f:	48 63 c9             	movslq %ecx,%rcx
   12aa2:	48 c1 e1 02          	shl    $0x2,%rcx
   12aa6:	48 01 ca             	add    %rcx,%rdx
   12aa9:	48 89 10             	mov    %rdx,(%rax)
   12aac:	8b 85 d0 f1 ff ff    	mov    -0xe30(%rbp),%eax
   12ab2:	48 98                	cltq   
   12ab4:	8b 84 85 a0 f3 ff ff 	mov    -0xc60(%rbp,%rax,4),%eax
   12abb:	85 c0                	test   %eax,%eax
   12abd:	8b 85 d0 f1 ff ff    	mov    -0xe30(%rbp),%eax
   12ac3:	83 c0 01             	add    $0x1,%eax
   12ac6:	89 85 d0 f1 ff ff    	mov    %eax,-0xe30(%rbp)
   12acc:	8b 85 d0 f1 ff ff    	mov    -0xe30(%rbp),%eax
   12ad2:	83 f8 08             	cmp    $0x8,%eax
   12ad5:	0f 8e 6c ff ff ff    	jle    12a47 <func_49+0x1eee>
   12adb:	c6 85 41 f1 ff ff 00 	movb   $0x0,-0xebf(%rbp)
   12ae2:	e9 9a 09 00 00       	jmpq   13481 <func_49+0x2928>
   12ae7:	c7 85 94 f1 ff ff 01 	movl   $0x1,-0xe6c(%rbp)
   12aee:	00 00 00 
   12af1:	48 8d 05 84 e7 00 00 	lea    0xe784(%rip),%rax        # 2127c <g_119+0x1c>
   12af8:	48 89 85 00 f2 ff ff 	mov    %rax,-0xe00(%rbp)
   12aff:	48 8d 05 5a 13 01 00 	lea    0x1135a(%rip),%rax        # 23e60 <g_1968>
   12b06:	48 89 85 80 f2 ff ff 	mov    %rax,-0xd80(%rbp)
   12b0d:	48 8d 05 5c 0f 01 00 	lea    0x10f5c(%rip),%rax        # 23a70 <g_872+0x450>
   12b14:	48 89 85 88 f2 ff ff 	mov    %rax,-0xd78(%rbp)
   12b1b:	8b 85 94 f1 ff ff    	mov    -0xe6c(%rbp),%eax
   12b21:	0f b7 d8             	movzwl %ax,%ebx
   12b24:	0f b6 45 c7          	movzbl -0x39(%rbp),%eax
   12b28:	c0 e8 07             	shr    $0x7,%al
   12b2b:	0f b6 d0             	movzbl %al,%edx
   12b2e:	8b 85 d0 f1 ff ff    	mov    -0xe30(%rbp),%eax
   12b34:	39 c2                	cmp    %eax,%edx
   12b36:	7e 0f                	jle    12b47 <func_49+0x1fee>
   12b38:	48 8b 05 59 11 01 00 	mov    0x11159(%rip),%rax        # 23c98 <g_1050>
   12b3f:	48 8b 00             	mov    (%rax),%rax
   12b42:	48 85 c0             	test   %rax,%rax
   12b45:	74 07                	je     12b4e <func_49+0x1ff5>
   12b47:	b8 01 00 00 00       	mov    $0x1,%eax
   12b4c:	eb 05                	jmp    12b53 <func_49+0x1ffa>
   12b4e:	b8 00 00 00 00       	mov    $0x0,%eax
   12b53:	48 63 d0             	movslq %eax,%rdx
   12b56:	8b 85 94 f1 ff ff    	mov    -0xe6c(%rbp),%eax
   12b5c:	48 39 c2             	cmp    %rax,%rdx
   12b5f:	48 8b 05 ca 00 01 00 	mov    0x100ca(%rip),%rax        # 22c30 <g_566>
   12b66:	81 bd 94 f1 ff ff f3 	cmpl   $0xf3,-0xe6c(%rbp)
   12b6d:	00 00 00 
   12b70:	0f 97 c0             	seta   %al
   12b73:	0f b6 c0             	movzbl %al,%eax
   12b76:	39 85 94 f1 ff ff    	cmp    %eax,-0xe6c(%rbp)
   12b7c:	0f 97 c0             	seta   %al
   12b7f:	0f b6 c0             	movzbl %al,%eax
   12b82:	be de 0c 00 00       	mov    $0xcde,%esi
   12b87:	89 c7                	mov    %eax,%edi
   12b89:	e8 c7 78 ff ff       	callq  a455 <safe_div_func_int16_t_s_s>
   12b8e:	89 c2                	mov    %eax,%edx
   12b90:	8b 85 94 f1 ff ff    	mov    -0xe6c(%rbp),%eax
   12b96:	31 d0                	xor    %edx,%eax
   12b98:	0f be d0             	movsbl %al,%edx
   12b9b:	48 8b 85 38 f1 ff ff 	mov    -0xec8(%rbp),%rax
   12ba2:	0f b6 00             	movzbl (%rax),%eax
   12ba5:	0f be c0             	movsbl %al,%eax
   12ba8:	89 d6                	mov    %edx,%esi
   12baa:	89 c7                	mov    %eax,%edi
   12bac:	e8 61 76 ff ff       	callq  a212 <safe_mul_func_int8_t_s_s>
   12bb1:	0f be c0             	movsbl %al,%eax
   12bb4:	be 56 00 00 00       	mov    $0x56,%esi
   12bb9:	89 c7                	mov    %eax,%edi
   12bbb:	e8 14 76 ff ff       	callq  a1d4 <safe_add_func_int8_t_s_s>
   12bc0:	0f be d0             	movsbl %al,%edx
   12bc3:	8b 85 d0 f1 ff ff    	mov    -0xe30(%rbp),%eax
   12bc9:	39 c2                	cmp    %eax,%edx
   12bcb:	0f 9e c0             	setle  %al
   12bce:	0f b6 c0             	movzbl %al,%eax
   12bd1:	be 01 00 00 00       	mov    $0x1,%esi
   12bd6:	89 c7                	mov    %eax,%edi
   12bd8:	e8 e1 81 ff ff       	callq  adbe <safe_lshift_func_uint16_t_u_s>
   12bdd:	89 de                	mov    %ebx,%esi
   12bdf:	bf 79 d5 00 00       	mov    $0xd579,%edi
   12be4:	e8 36 81 ff ff       	callq  ad1f <safe_sub_func_uint16_t_u_u>
   12be9:	0f b7 c0             	movzwl %ax,%eax
   12bec:	83 e0 f9             	and    $0xfffffff9,%eax
   12bef:	48 3d a2 00 00 00    	cmp    $0xa2,%rax
   12bf5:	0f 94 c0             	sete   %al
   12bf8:	0f b6 d0             	movzbl %al,%edx
   12bfb:	48 8b 85 18 f2 ff ff 	mov    -0xde8(%rbp),%rax
   12c02:	89 10                	mov    %edx,(%rax)
   12c04:	66 c7 05 83 1e 01 00 	movw   $0x0,0x11e83(%rip)        # 24a90 <g_2116>
   12c0b:	00 00 
   12c0d:	e9 4e 08 00 00       	jmpq   13460 <func_49+0x2907>
   12c12:	48 8d 05 4f 1e 01 00 	lea    0x11e4f(%rip),%rax        # 24a68 <g_546>
   12c19:	48 89 85 90 f2 ff ff 	mov    %rax,-0xd70(%rbp)
   12c20:	c7 85 98 f1 ff ff 24 	movl   $0xf7613724,-0xe68(%rbp)
   12c27:	37 61 f7 
   12c2a:	48 8b 05 d7 ff 00 00 	mov    0xffd7(%rip),%rax        # 22c08 <g_382>
   12c31:	48 8d 95 60 f3 ff ff 	lea    -0xca0(%rbp),%rdx
   12c38:	48 89 10             	mov    %rdx,(%rax)
   12c3b:	48 8b 10             	mov    (%rax),%rdx
   12c3e:	48 8b 85 90 f2 ff ff 	mov    -0xd70(%rbp),%rax
   12c45:	48 89 10             	mov    %rdx,(%rax)
   12c48:	be 0d 00 00 00       	mov    $0xd,%esi
   12c4d:	bf eb dc 00 00       	mov    $0xdceb,%edi
   12c52:	e8 67 81 ff ff       	callq  adbe <safe_lshift_func_uint16_t_u_s>
   12c57:	66 85 c0             	test   %ax,%ax
   12c5a:	0f 84 7d 02 00 00    	je     12edd <func_49+0x2384>
   12c60:	c7 85 a0 f1 ff ff 01 	movl   $0x1,-0xe60(%rbp)
   12c67:	00 00 00 
   12c6a:	48 8d 05 c7 e7 00 00 	lea    0xe7c7(%rip),%rax        # 21438 <g_289>
   12c71:	48 89 85 98 f2 ff ff 	mov    %rax,-0xd68(%rbp)
   12c78:	66 c7 85 d0 f3 ff ff 	movw   $0x1,-0xc30(%rbp)
   12c7f:	01 00 
   12c81:	66 c7 85 d2 f3 ff ff 	movw   $0x1,-0xc2e(%rbp)
   12c88:	01 00 
   12c8a:	66 c7 85 d4 f3 ff ff 	movw   $0x1,-0xc2c(%rbp)
   12c91:	01 00 
   12c93:	66 c7 85 d6 f3 ff ff 	movw   $0x1,-0xc2a(%rbp)
   12c9a:	01 00 
   12c9c:	66 c7 85 d8 f3 ff ff 	movw   $0x1,-0xc28(%rbp)
   12ca3:	01 00 
   12ca5:	66 c7 85 da f3 ff ff 	movw   $0x1,-0xc26(%rbp)
   12cac:	01 00 
   12cae:	c7 85 7c f1 ff ff 00 	movl   $0x0,-0xe84(%rbp)
   12cb5:	00 00 00 
   12cb8:	eb 79                	jmp    12d33 <func_49+0x21da>
   12cba:	c7 85 80 f1 ff ff 00 	movl   $0x0,-0xe80(%rbp)
   12cc1:	00 00 00 
   12cc4:	eb 5d                	jmp    12d23 <func_49+0x21ca>
   12cc6:	c7 85 84 f1 ff ff 00 	movl   $0x0,-0xe7c(%rbp)
   12ccd:	00 00 00 
   12cd0:	eb 41                	jmp    12d13 <func_49+0x21ba>
   12cd2:	8b 85 84 f1 ff ff    	mov    -0xe7c(%rbp),%eax
   12cd8:	48 63 f0             	movslq %eax,%rsi
   12cdb:	8b 85 80 f1 ff ff    	mov    -0xe80(%rbp),%eax
   12ce1:	48 63 c8             	movslq %eax,%rcx
   12ce4:	8b 85 7c f1 ff ff    	mov    -0xe84(%rbp),%eax
   12cea:	48 63 d0             	movslq %eax,%rdx
   12ced:	48 89 d0             	mov    %rdx,%rax
   12cf0:	48 c1 e0 02          	shl    $0x2,%rax
   12cf4:	48 01 d0             	add    %rdx,%rax
   12cf7:	48 01 f0             	add    %rsi,%rax
   12cfa:	48 01 c8             	add    %rcx,%rax
   12cfd:	48 8d 15 64 e9 00 00 	lea    0xe964(%rip),%rdx        # 21668 <g_1720>
   12d04:	48 89 94 c5 70 f4 ff 	mov    %rdx,-0xb90(%rbp,%rax,8)
   12d0b:	ff 
   12d0c:	83 85 84 f1 ff ff 01 	addl   $0x1,-0xe7c(%rbp)
   12d13:	83 bd 84 f1 ff ff 00 	cmpl   $0x0,-0xe7c(%rbp)
   12d1a:	7e b6                	jle    12cd2 <func_49+0x2179>
   12d1c:	83 85 80 f1 ff ff 01 	addl   $0x1,-0xe80(%rbp)
   12d23:	83 bd 80 f1 ff ff 04 	cmpl   $0x4,-0xe80(%rbp)
   12d2a:	7e 9a                	jle    12cc6 <func_49+0x216d>
   12d2c:	83 85 7c f1 ff ff 01 	addl   $0x1,-0xe84(%rbp)
   12d33:	83 bd 7c f1 ff ff 01 	cmpl   $0x1,-0xe84(%rbp)
   12d3a:	0f 8e 7a ff ff ff    	jle    12cba <func_49+0x2161>
   12d40:	48 8b 05 a9 fe 00 00 	mov    0xfea9(%rip),%rax        # 22bf0 <g_320>
   12d47:	8b 00                	mov    (%rax),%eax
   12d49:	41 89 c5             	mov    %eax,%r13d
   12d4c:	48 8b 85 90 f2 ff ff 	mov    -0xd70(%rbp),%rax
   12d53:	48 8b 00             	mov    (%rax),%rax
   12d56:	8b 00                	mov    (%rax),%eax
   12d58:	48 63 c8             	movslq %eax,%rcx
   12d5b:	8b 95 94 f1 ff ff    	mov    -0xe6c(%rbp),%edx
   12d61:	48 8b 85 98 f2 ff ff 	mov    -0xd68(%rbp),%rax
   12d68:	48 89 10             	mov    %rdx,(%rax)
   12d6b:	48 8b 85 98 f2 ff ff 	mov    -0xd68(%rbp),%rax
   12d72:	48 8b 00             	mov    (%rax),%rax
   12d75:	48 39 c1             	cmp    %rax,%rcx
   12d78:	0f 8d 16 01 00 00    	jge    12e94 <func_49+0x233b>
   12d7e:	0f b7 85 d2 f3 ff ff 	movzwl -0xc2e(%rbp),%eax
   12d85:	0f be d8             	movsbl %al,%ebx
   12d88:	48 8b 85 38 f1 ff ff 	mov    -0xec8(%rbp),%rax
   12d8f:	0f b6 00             	movzbl (%rax),%eax
   12d92:	44 0f be e0          	movsbl %al,%r12d
   12d96:	48 8b 05 63 10 01 00 	mov    0x11063(%rip),%rax        # 23e00 <g_1957>
   12d9d:	8b 08                	mov    (%rax),%ecx
   12d9f:	0f b7 95 4c f1 ff ff 	movzwl -0xeb4(%rbp),%edx
   12da6:	48 8b 05 53 10 01 00 	mov    0x11053(%rip),%rax        # 23e00 <g_1957>
   12dad:	31 ca                	xor    %ecx,%edx
   12daf:	89 10                	mov    %edx,(%rax)
   12db1:	8b 10                	mov    (%rax),%edx
   12db3:	48 8d 05 ee 0e 01 00 	lea    0x10eee(%rip),%rax        # 23ca8 <g_1164>
   12dba:	48 39 85 28 f2 ff ff 	cmp    %rax,-0xdd8(%rbp)
   12dc1:	0f 94 c0             	sete   %al
   12dc4:	0f b6 c0             	movzbl %al,%eax
   12dc7:	31 c2                	xor    %eax,%edx
   12dc9:	8b 85 d0 f1 ff ff    	mov    -0xe30(%rbp),%eax
   12dcf:	39 c2                	cmp    %eax,%edx
   12dd1:	0f 95 c0             	setne  %al
   12dd4:	0f b6 c0             	movzbl %al,%eax
   12dd7:	39 85 a0 f1 ff ff    	cmp    %eax,-0xe60(%rbp)
   12ddd:	0f 95 c0             	setne  %al
   12de0:	0f b6 c0             	movzbl %al,%eax
   12de3:	8b 95 94 f1 ff ff    	mov    -0xe6c(%rbp),%edx
   12de9:	21 d0                	and    %edx,%eax
   12deb:	0f b7 c0             	movzwl %ax,%eax
   12dee:	be 58 23 00 00       	mov    $0x2358,%esi
   12df3:	89 c7                	mov    %eax,%edi
   12df5:	e8 05 7f ff ff       	callq  acff <safe_add_func_uint16_t_u_u>
   12dfa:	89 c2                	mov    %eax,%edx
   12dfc:	48 8b 05 35 fe 00 00 	mov    0xfe35(%rip),%rax        # 22c38 <g_712>
   12e03:	48 8b 00             	mov    (%rax),%rax
   12e06:	48 8b 00             	mov    (%rax),%rax
   12e09:	0f b6 08             	movzbl (%rax),%ecx
   12e0c:	48 8b 05 25 fe 00 00 	mov    0xfe25(%rip),%rax        # 22c38 <g_712>
   12e13:	48 8b 00             	mov    (%rax),%rax
   12e16:	48 8b 00             	mov    (%rax),%rax
   12e19:	31 ca                	xor    %ecx,%edx
   12e1b:	88 10                	mov    %dl,(%rax)
   12e1d:	44 89 e6             	mov    %r12d,%esi
   12e20:	bf 01 00 00 00       	mov    $0x1,%edi
   12e25:	e8 40 74 ff ff       	callq  a26a <safe_div_func_int8_t_s_s>
   12e2a:	0f be c0             	movsbl %al,%eax
   12e2d:	48 8b 95 90 f2 ff ff 	mov    -0xd70(%rbp),%rdx
   12e34:	48 8b 12             	mov    (%rdx),%rdx
   12e37:	8b 12                	mov    (%rdx),%edx
   12e39:	89 c6                	mov    %eax,%esi
   12e3b:	89 d7                	mov    %edx,%edi
   12e3d:	e8 bb 80 ff ff       	callq  aefd <safe_mod_func_uint32_t_u_u>
   12e42:	48 8b 95 18 f2 ff ff 	mov    -0xde8(%rbp),%rdx
   12e49:	8b 12                	mov    (%rdx),%edx
   12e4b:	21 d0                	and    %edx,%eax
   12e4d:	89 c2                	mov    %eax,%edx
   12e4f:	48 8b 85 18 f2 ff ff 	mov    -0xde8(%rbp),%rax
   12e56:	89 10                	mov    %edx,(%rax)
   12e58:	48 8b 85 18 f2 ff ff 	mov    -0xde8(%rbp),%rax
   12e5f:	8b 00                	mov    (%rax),%eax
   12e61:	39 85 94 f1 ff ff    	cmp    %eax,-0xe6c(%rbp)
   12e67:	0f 94 c0             	sete   %al
   12e6a:	0f b6 c0             	movzbl %al,%eax
   12e6d:	89 de                	mov    %ebx,%esi
   12e6f:	89 c7                	mov    %eax,%edi
   12e71:	e8 f4 73 ff ff       	callq  a26a <safe_div_func_int8_t_s_s>
   12e76:	0f be d0             	movsbl %al,%edx
   12e79:	0f b7 85 4c f1 ff ff 	movzwl -0xeb4(%rbp),%eax
   12e80:	89 d6                	mov    %edx,%esi
   12e82:	89 c7                	mov    %eax,%edi
   12e84:	e8 9c 80 ff ff       	callq  af25 <safe_div_func_uint32_t_u_u>
   12e89:	85 c0                	test   %eax,%eax
   12e8b:	74 07                	je     12e94 <func_49+0x233b>
   12e8d:	b8 01 00 00 00       	mov    $0x1,%eax
   12e92:	eb 05                	jmp    12e99 <func_49+0x2340>
   12e94:	b8 00 00 00 00       	mov    $0x0,%eax
   12e99:	44 89 ee             	mov    %r13d,%esi
   12e9c:	89 c7                	mov    %eax,%edi
   12e9e:	e8 2d 80 ff ff       	callq  aed0 <safe_sub_func_uint32_t_u_u>
   12ea3:	48 8b 05 ee 0d 01 00 	mov    0x10dee(%rip),%rax        # 23c98 <g_1050>
   12eaa:	8b 95 a0 f1 ff ff    	mov    -0xe60(%rbp),%edx
   12eb0:	48 63 d2             	movslq %edx,%rdx
   12eb3:	48 89 10             	mov    %rdx,(%rax)
   12eb6:	48 8b 10             	mov    (%rax),%rdx
   12eb9:	8b 85 a0 f1 ff ff    	mov    -0xe60(%rbp),%eax
   12ebf:	48 98                	cltq   
   12ec1:	48 39 c2             	cmp    %rax,%rdx
   12ec4:	48 8b 05 3d fd 00 00 	mov    0xfd3d(%rip),%rax        # 22c08 <g_382>
   12ecb:	48 8b 10             	mov    (%rax),%rdx
   12ece:	48 8b 85 90 f2 ff ff 	mov    -0xd70(%rbp),%rax
   12ed5:	48 89 10             	mov    %rdx,(%rax)
   12ed8:	e9 b9 01 00 00       	jmpq   13096 <func_49+0x253d>
   12edd:	c7 85 9c f1 ff ff 79 	movl   $0x6403f479,-0xe64(%rbp)
   12ee4:	f4 03 64 
   12ee7:	0f b6 05 70 e7 00 00 	movzbl 0xe770(%rip),%eax        # 2165e <g_1664+0x1e>
   12eee:	0f be d8             	movsbl %al,%ebx
   12ef1:	48 8b 85 18 f2 ff ff 	mov    -0xde8(%rbp),%rax
   12ef8:	8b 00                	mov    (%rax),%eax
   12efa:	44 0f bf e0          	movswl %ax,%r12d
   12efe:	48 8b 05 f3 fc 00 00 	mov    0xfcf3(%rip),%rax        # 22bf8 <g_319>
   12f05:	8b 85 d0 f1 ff ff    	mov    -0xe30(%rbp),%eax
   12f0b:	85 c0                	test   %eax,%eax
   12f0d:	0f 9f c0             	setg   %al
   12f10:	0f b6 d0             	movzbl %al,%edx
   12f13:	48 8b 85 90 f2 ff ff 	mov    -0xd70(%rbp),%rax
   12f1a:	48 8b 00             	mov    (%rax),%rax
   12f1d:	8b 00                	mov    (%rax),%eax
   12f1f:	0f b6 c0             	movzbl %al,%eax
   12f22:	89 d6                	mov    %edx,%esi
   12f24:	89 c7                	mov    %eax,%edi
   12f26:	e8 68 7c ff ff       	callq  ab93 <safe_mul_func_uint8_t_u_u>
   12f2b:	48 8b 85 18 f2 ff ff 	mov    -0xde8(%rbp),%rax
   12f32:	44 8b 28             	mov    (%rax),%r13d
   12f35:	83 bd 9c f1 ff ff 00 	cmpl   $0x0,-0xe64(%rbp)
   12f3c:	74 14                	je     12f52 <func_49+0x23f9>
   12f3e:	48 8b 85 18 f2 ff ff 	mov    -0xde8(%rbp),%rax
   12f45:	8b 00                	mov    (%rax),%eax
   12f47:	85 c0                	test   %eax,%eax
   12f49:	74 07                	je     12f52 <func_49+0x23f9>
   12f4b:	b8 01 00 00 00       	mov    $0x1,%eax
   12f50:	eb 05                	jmp    12f57 <func_49+0x23fe>
   12f52:	b8 00 00 00 00       	mov    $0x0,%eax
   12f57:	0f b7 c0             	movzwl %ax,%eax
   12f5a:	be 0d 00 00 00       	mov    $0xd,%esi
   12f5f:	89 c7                	mov    %eax,%edi
   12f61:	e8 e2 7e ff ff       	callq  ae48 <safe_rshift_func_uint16_t_u_s>
   12f66:	66 85 c0             	test   %ax,%ax
   12f69:	0f 95 c0             	setne  %al
   12f6c:	0f b6 c0             	movzbl %al,%eax
   12f6f:	44 89 ee             	mov    %r13d,%esi
   12f72:	89 c7                	mov    %eax,%edi
   12f74:	e8 bc 73 ff ff       	callq  a335 <safe_rshift_func_int8_t_s_s>
   12f79:	48 8b 85 90 f2 ff ff 	mov    -0xd70(%rbp),%rax
   12f80:	48 8b 00             	mov    (%rax),%rax
   12f83:	8b 00                	mov    (%rax),%eax
   12f85:	98                   	cwtl   
   12f86:	44 89 e6             	mov    %r12d,%esi
   12f89:	89 c7                	mov    %eax,%edi
   12f8b:	e8 65 74 ff ff       	callq  a3f5 <safe_mul_func_int16_t_s_s>
   12f90:	0f be d0             	movsbl %al,%edx
   12f93:	48 8b 85 18 f2 ff ff 	mov    -0xde8(%rbp),%rax
   12f9a:	8b 00                	mov    (%rax),%eax
   12f9c:	0f be c0             	movsbl %al,%eax
   12f9f:	89 d6                	mov    %edx,%esi
   12fa1:	89 c7                	mov    %eax,%edi
   12fa3:	e8 6a 72 ff ff       	callq  a212 <safe_mul_func_int8_t_s_s>
   12fa8:	0f be c0             	movsbl %al,%eax
   12fab:	89 de                	mov    %ebx,%esi
   12fad:	89 c7                	mov    %eax,%edi
   12faf:	e8 ff 73 ff ff       	callq  a3b3 <safe_add_func_int16_t_s_s>
   12fb4:	48 8b 85 18 f2 ff ff 	mov    -0xde8(%rbp),%rax
   12fbb:	8b 00                	mov    (%rax),%eax
   12fbd:	3d e9 54 00 00       	cmp    $0x54e9,%eax
   12fc2:	0f 9e c2             	setle  %dl
   12fc5:	48 8b 05 24 fc 00 00 	mov    0xfc24(%rip),%rax        # 22bf0 <g_320>
   12fcc:	0f b6 d2             	movzbl %dl,%edx
   12fcf:	89 10                	mov    %edx,(%rax)
   12fd1:	48 8b 85 18 f2 ff ff 	mov    -0xde8(%rbp),%rax
   12fd8:	44 8b 28             	mov    (%rax),%r13d
   12fdb:	48 8b 85 18 f2 ff ff 	mov    -0xde8(%rbp),%rax
   12fe2:	8b 00                	mov    (%rax),%eax
   12fe4:	0f be d8             	movsbl %al,%ebx
   12fe7:	8b 85 d0 f1 ff ff    	mov    -0xe30(%rbp),%eax
   12fed:	4c 63 f0             	movslq %eax,%r14
   12ff0:	8b 85 d0 f1 ff ff    	mov    -0xe30(%rbp),%eax
   12ff6:	4c 63 e0             	movslq %eax,%r12
   12ff9:	be 01 00 00 00       	mov    $0x1,%esi
   12ffe:	bf 00 00 00 00       	mov    $0x0,%edi
   13003:	e8 85 7c ff ff       	callq  ac8d <safe_rshift_func_uint8_t_u_s>
   13008:	84 c0                	test   %al,%al
   1300a:	75 09                	jne    13015 <func_49+0x24bc>
   1300c:	83 bd 74 f1 ff ff 00 	cmpl   $0x0,-0xe8c(%rbp)
   13013:	74 07                	je     1301c <func_49+0x24c3>
   13015:	b8 01 00 00 00       	mov    $0x1,%eax
   1301a:	eb 05                	jmp    13021 <func_49+0x24c8>
   1301c:	b8 00 00 00 00       	mov    $0x0,%eax
   13021:	48 98                	cltq   
   13023:	25 81 48 00 00       	and    $0x4881,%eax
   13028:	48 89 c2             	mov    %rax,%rdx
   1302b:	48 8b 85 18 f2 ff ff 	mov    -0xde8(%rbp),%rax
   13032:	8b 00                	mov    (%rax),%eax
   13034:	48 98                	cltq   
   13036:	48 39 c2             	cmp    %rax,%rdx
   13039:	0f 9c c0             	setl   %al
   1303c:	0f b6 c0             	movzbl %al,%eax
   1303f:	be 01 00 00 00       	mov    $0x1,%esi
   13044:	89 c7                	mov    %eax,%edi
   13046:	e8 aa 73 ff ff       	callq  a3f5 <safe_mul_func_int16_t_s_s>
   1304b:	0f bf d0             	movswl %ax,%edx
   1304e:	8b 85 d0 f1 ff ff    	mov    -0xe30(%rbp),%eax
   13054:	39 c2                	cmp    %eax,%edx
   13056:	0f 9c c0             	setl   %al
   13059:	0f b6 c0             	movzbl %al,%eax
   1305c:	4c 89 e6             	mov    %r12,%rsi
   1305f:	48 89 c7             	mov    %rax,%rdi
   13062:	e8 19 80 ff ff       	callq  b080 <safe_mod_func_uint64_t_u_u>
   13067:	49 39 c6             	cmp    %rax,%r14
   1306a:	0f 95 c0             	setne  %al
   1306d:	0f b6 c0             	movzbl %al,%eax
   13070:	89 de                	mov    %ebx,%esi
   13072:	89 c7                	mov    %eax,%edi
   13074:	e8 5b 71 ff ff       	callq  a1d4 <safe_add_func_int8_t_s_s>
   13079:	3c 64                	cmp    $0x64,%al
   1307b:	0f 9e c0             	setle  %al
   1307e:	0f b6 c0             	movzbl %al,%eax
   13081:	41 39 c5             	cmp    %eax,%r13d
   13084:	0f 9f c2             	setg   %dl
   13087:	48 8b 05 7a fb 00 00 	mov    0xfb7a(%rip),%rax        # 22c08 <g_382>
   1308e:	48 8b 00             	mov    (%rax),%rax
   13091:	0f b6 d2             	movzbl %dl,%edx
   13094:	89 10                	mov    %edx,(%rax)
   13096:	48 8b 85 18 f2 ff ff 	mov    -0xde8(%rbp),%rax
   1309d:	8b 10                	mov    (%rax),%edx
   1309f:	48 8b 85 18 f2 ff ff 	mov    -0xde8(%rbp),%rax
   130a6:	89 10                	mov    %edx,(%rax)
   130a8:	48 8b 85 18 f2 ff ff 	mov    -0xde8(%rbp),%rax
   130af:	8b 00                	mov    (%rax),%eax
   130b1:	85 c0                	test   %eax,%eax
   130b3:	0f 84 49 01 00 00    	je     13202 <func_49+0x26a9>
   130b9:	c6 85 43 f1 ff ff 3d 	movb   $0x3d,-0xebd(%rbp)
   130c0:	48 8b 05 31 fb 00 00 	mov    0xfb31(%rip),%rax        # 22bf8 <g_319>
   130c7:	48 8b 00             	mov    (%rax),%rax
   130ca:	48 89 85 00 f2 ff ff 	mov    %rax,-0xe00(%rbp)
   130d1:	48 8b 05 30 fb 00 00 	mov    0xfb30(%rip),%rax        # 22c08 <g_382>
   130d8:	48 8d 95 d0 f1 ff ff 	lea    -0xe30(%rbp),%rdx
   130df:	48 89 10             	mov    %rdx,(%rax)
   130e2:	48 8b 85 18 f2 ff ff 	mov    -0xde8(%rbp),%rax
   130e9:	8b 10                	mov    (%rax),%edx
   130eb:	48 8b 85 00 f2 ff ff 	mov    -0xe00(%rbp),%rax
   130f2:	89 10                	mov    %edx,(%rax)
   130f4:	0f b6 9d 43 f1 ff ff 	movzbl -0xebd(%rbp),%ebx
   130fb:	0f b6 45 c7          	movzbl -0x39(%rbp),%eax
   130ff:	44 0f be e8          	movsbl %al,%r13d
   13103:	0f b7 05 5c e3 00 00 	movzwl 0xe35c(%rip),%eax        # 21466 <g_559+0x6>
   1310a:	44 0f b7 e0          	movzwl %ax,%r12d
   1310e:	0f b6 95 43 f1 ff ff 	movzbl -0xebd(%rbp),%edx
   13115:	48 8b 05 8c 0b 01 00 	mov    0x10b8c(%rip),%rax        # 23ca8 <g_1164>
   1311c:	48 8b 00             	mov    (%rax),%rax
   1311f:	b9 00 00 00 00       	mov    $0x0,%ecx
   13124:	8b 85 94 f3 ff ff    	mov    -0xc6c(%rbp),%eax
   1312a:	21 c8                	and    %ecx,%eax
   1312c:	89 85 94 f3 ff ff    	mov    %eax,-0xc6c(%rbp)
   13132:	8b 85 94 f3 ff ff    	mov    -0xc6c(%rbp),%eax
   13138:	89 c1                	mov    %eax,%ecx
   1313a:	8b 85 d0 f1 ff ff    	mov    -0xe30(%rbp),%eax
   13140:	31 c8                	xor    %ecx,%eax
   13142:	0f b6 c0             	movzbl %al,%eax
   13145:	89 d6                	mov    %edx,%esi
   13147:	89 c7                	mov    %eax,%edi
   13149:	e8 8d 7a ff ff       	callq  abdb <safe_div_func_uint8_t_u_u>
   1314e:	89 c2                	mov    %eax,%edx
   13150:	8b 85 d0 f1 ff ff    	mov    -0xe30(%rbp),%eax
   13156:	21 c2                	and    %eax,%edx
   13158:	48 8b 05 c1 fa 00 00 	mov    0xfac1(%rip),%rax        # 22c20 <g_487>
   1315f:	88 10                	mov    %dl,(%rax)
   13161:	0f b6 00             	movzbl (%rax),%eax
   13164:	0f b6 d0             	movzbl %al,%edx
   13167:	0f b6 85 43 f1 ff ff 	movzbl -0xebd(%rbp),%eax
   1316e:	89 d6                	mov    %edx,%esi
   13170:	89 c7                	mov    %eax,%edi
   13172:	e8 64 7a ff ff       	callq  abdb <safe_div_func_uint8_t_u_u>
   13177:	84 c0                	test   %al,%al
   13179:	0f 94 c0             	sete   %al
   1317c:	0f b6 c0             	movzbl %al,%eax
   1317f:	44 89 e6             	mov    %r12d,%esi
   13182:	89 c7                	mov    %eax,%edi
   13184:	e8 b4 7b ff ff       	callq  ad3d <safe_mul_func_uint16_t_u_u>
   13189:	0f b7 d0             	movzwl %ax,%edx
   1318c:	48 8b 05 85 e2 00 00 	mov    0xe285(%rip),%rax        # 21418 <g_264+0x18>
   13193:	48 39 c2             	cmp    %rax,%rdx
   13196:	0f 96 c0             	setbe  %al
   13199:	0f b6 c0             	movzbl %al,%eax
   1319c:	41 39 c5             	cmp    %eax,%r13d
   1319f:	74 14                	je     131b5 <func_49+0x265c>
   131a1:	48 8b 85 00 f2 ff ff 	mov    -0xe00(%rbp),%rax
   131a8:	8b 00                	mov    (%rax),%eax
   131aa:	85 c0                	test   %eax,%eax
   131ac:	74 07                	je     131b5 <func_49+0x265c>
   131ae:	b8 01 00 00 00       	mov    $0x1,%eax
   131b3:	eb 05                	jmp    131ba <func_49+0x2661>
   131b5:	b8 00 00 00 00       	mov    $0x0,%eax
   131ba:	0f b6 c0             	movzbl %al,%eax
   131bd:	89 de                	mov    %ebx,%esi
   131bf:	89 c7                	mov    %eax,%edi
   131c1:	e8 e8 79 ff ff       	callq  abae <safe_mod_func_uint8_t_u_u>
   131c6:	0f b6 c0             	movzbl %al,%eax
   131c9:	be 03 00 00 00       	mov    $0x3,%esi
   131ce:	48 89 c7             	mov    %rax,%rdi
   131d1:	e8 de 77 ff ff       	callq  a9b4 <safe_mod_func_int64_t_s_s>
   131d6:	89 c6                	mov    %eax,%esi
   131d8:	bf 02 00 00 00       	mov    $0x2,%edi
   131dd:	e8 23 7a ff ff       	callq  ac05 <safe_lshift_func_uint8_t_u_s>
   131e2:	48 8b 85 90 f2 ff ff 	mov    -0xd70(%rbp),%rax
   131e9:	48 8b 00             	mov    (%rax),%rax
   131ec:	c7 00 01 00 00 00    	movl   $0x1,(%rax)
   131f2:	48 8b 15 f7 f9 00 00 	mov    0xf9f7(%rip),%rdx        # 22bf0 <g_320>
   131f9:	8b 00                	mov    (%rax),%eax
   131fb:	89 02                	mov    %eax,(%rdx)
   131fd:	e9 40 02 00 00       	jmpq   13442 <func_49+0x28e9>
   13202:	c7 85 a4 f1 ff ff 7b 	movl   $0x2e784e7b,-0xe5c(%rbp)
   13209:	4e 78 2e 
   1320c:	48 c7 85 a0 f2 ff ff 	movq   $0x0,-0xd60(%rbp)
   13213:	00 00 00 00 
   13217:	c7 85 a8 f1 ff ff 6d 	movl   $0x9336f86d,-0xe58(%rbp)
   1321e:	f8 36 93 
   13221:	48 8b 85 00 f2 ff ff 	mov    -0xe00(%rbp),%rax
   13228:	8b 00                	mov    (%rax),%eax
   1322a:	89 c2                	mov    %eax,%edx
   1322c:	48 8b 85 18 f2 ff ff 	mov    -0xde8(%rbp),%rax
   13233:	8b 00                	mov    (%rax),%eax
   13235:	0f b7 c0             	movzwl %ax,%eax
   13238:	89 d6                	mov    %edx,%esi
   1323a:	89 c7                	mov    %eax,%edi
   1323c:	e8 c5 7b ff ff       	callq  ae06 <safe_lshift_func_uint16_t_u_u>
   13241:	0f b7 c0             	movzwl %ax,%eax
   13244:	21 85 a4 f1 ff ff    	and    %eax,-0xe5c(%rbp)
   1324a:	8b 85 a4 f1 ff ff    	mov    -0xe5c(%rbp),%eax
   13250:	48 98                	cltq   
   13252:	48 89 85 30 f1 ff ff 	mov    %rax,-0xed0(%rbp)
   13259:	0f b6 45 c7          	movzbl -0x39(%rbp),%eax
   1325d:	66 98                	cbtw   
   1325f:	0f b7 d8             	movzwl %ax,%ebx
   13262:	48 8b 05 bf f9 00 00 	mov    0xf9bf(%rip),%rax        # 22c28 <g_486>
   13269:	48 8b 00             	mov    (%rax),%rax
   1326c:	0f b6 00             	movzbl (%rax),%eax
   1326f:	44 0f b6 e0          	movzbl %al,%r12d
   13273:	8b 85 94 f3 ff ff    	mov    -0xc6c(%rbp),%eax
   13279:	44 0f b7 e8          	movzwl %ax,%r13d
   1327d:	48 8b 85 00 f2 ff ff 	mov    -0xe00(%rbp),%rax
   13284:	8b 00                	mov    (%rax),%eax
   13286:	4c 63 f0             	movslq %eax,%r14
   13289:	48 8b 85 30 f2 ff ff 	mov    -0xdd0(%rbp),%rax
   13290:	48 89 05 01 18 01 00 	mov    %rax,0x11801(%rip)        # 24a98 <g_2230>
   13297:	48 8b 05 fa 17 01 00 	mov    0x117fa(%rip),%rax        # 24a98 <g_2230>
   1329e:	48 39 85 80 f2 ff ff 	cmp    %rax,-0xd80(%rbp)
   132a5:	0f 95 c0             	setne  %al
   132a8:	0f b6 c0             	movzbl %al,%eax
   132ab:	89 85 2c f1 ff ff    	mov    %eax,-0xed4(%rbp)
   132b1:	48 8b 85 00 f2 ff ff 	mov    -0xe00(%rbp),%rax
   132b8:	8b 00                	mov    (%rax),%eax
   132ba:	4c 63 f8             	movslq %eax,%r15
   132bd:	48 8b 05 74 f9 00 00 	mov    0xf974(%rip),%rax        # 22c38 <g_712>
   132c4:	48 8b 00             	mov    (%rax),%rax
   132c7:	48 8b 00             	mov    (%rax),%rax
   132ca:	0f b6 00             	movzbl (%rax),%eax
   132cd:	0f b6 c0             	movzbl %al,%eax
   132d0:	89 c7                	mov    %eax,%edi
   132d2:	e8 6e 78 ff ff       	callq  ab45 <safe_unary_minus_func_uint8_t_u>
   132d7:	0f b6 c0             	movzbl %al,%eax
   132da:	4c 89 fe             	mov    %r15,%rsi
   132dd:	48 89 c7             	mov    %rax,%rdi
   132e0:	e8 ca 7d ff ff       	callq  b0af <safe_div_func_uint64_t_u_u>
   132e5:	be a1 ec ba 47       	mov    $0x47baeca1,%esi
   132ea:	bf 01 00 00 00       	mov    $0x1,%edi
   132ef:	e8 c4 7b ff ff       	callq  aeb8 <safe_add_func_uint32_t_u_u>
   132f4:	8b 95 84 f3 ff ff    	mov    -0xc7c(%rbp),%edx
   132fa:	31 d0                	xor    %edx,%eax
   132fc:	be ff ff ff ff       	mov    $0xffffffff,%esi
   13301:	89 c7                	mov    %eax,%edi
   13303:	e8 f5 7b ff ff       	callq  aefd <safe_mod_func_uint32_t_u_u>
   13308:	39 85 2c f1 ff ff    	cmp    %eax,-0xed4(%rbp)
   1330e:	0f 97 c0             	seta   %al
   13311:	0f b6 c0             	movzbl %al,%eax
   13314:	4c 89 f6             	mov    %r14,%rsi
   13317:	48 89 c7             	mov    %rax,%rdi
   1331a:	e8 95 76 ff ff       	callq  a9b4 <safe_mod_func_int64_t_s_s>
   1331f:	48 8b 85 18 f2 ff ff 	mov    -0xde8(%rbp),%rax
   13326:	8b 10                	mov    (%rax),%edx
   13328:	48 8b 85 00 f2 ff ff 	mov    -0xe00(%rbp),%rax
   1332f:	8b 00                	mov    (%rax),%eax
   13331:	09 c2                	or     %eax,%edx
   13333:	0f b7 05 36 aa 00 00 	movzwl 0xaa36(%rip),%eax        # 1dd70 <l_2239.4853>
   1333a:	0f b7 c0             	movzwl %ax,%eax
   1333d:	39 c2                	cmp    %eax,%edx
   1333f:	0f 9e c0             	setle  %al
   13342:	0f b6 c0             	movzbl %al,%eax
   13345:	44 89 ee             	mov    %r13d,%esi
   13348:	89 c7                	mov    %eax,%edi
   1334a:	e8 ee 79 ff ff       	callq  ad3d <safe_mul_func_uint16_t_u_u>
   1334f:	0f b7 c0             	movzwl %ax,%eax
   13352:	be 01 00 00 00       	mov    $0x1,%esi
   13357:	89 c7                	mov    %eax,%edi
   13359:	e8 1c 7b ff ff       	callq  ae7a <safe_rshift_func_uint16_t_u_u>
   1335e:	0f b7 c0             	movzwl %ax,%eax
   13361:	48 c7 c6 ff ff ff ff 	mov    $0xffffffffffffffff,%rsi
   13368:	48 89 c7             	mov    %rax,%rdi
   1336b:	e8 10 7d ff ff       	callq  b080 <safe_mod_func_uint64_t_u_u>
   13370:	48 8b 05 21 17 01 00 	mov    0x11721(%rip),%rax        # 24a98 <g_2230>
   13377:	48 8b 00             	mov    (%rax),%rax
   1337a:	48 8b 10             	mov    (%rax),%rdx
   1337d:	48 8d 85 c8 f1 ff ff 	lea    -0xe38(%rbp),%rax
   13384:	48 39 c2             	cmp    %rax,%rdx
   13387:	75 0b                	jne    13394 <func_49+0x283b>
   13389:	48 8b 85 00 f2 ff ff 	mov    -0xe00(%rbp),%rax
   13390:	8b 00                	mov    (%rax),%eax
   13392:	85 c0                	test   %eax,%eax
   13394:	0f b7 05 d9 a9 00 00 	movzwl 0xa9d9(%rip),%eax        # 1dd74 <l_2239.4853+0x4>
   1339b:	0f b7 c0             	movzwl %ax,%eax
   1339e:	be f8 ff ff ff       	mov    $0xfffffff8,%esi
   133a3:	89 c7                	mov    %eax,%edi
   133a5:	e8 0c 72 ff ff       	callq  a5b6 <safe_add_func_int32_t_s_s>
   133aa:	0f b6 c0             	movzbl %al,%eax
   133ad:	44 89 e6             	mov    %r12d,%esi
   133b0:	89 c7                	mov    %eax,%edi
   133b2:	e8 dc 77 ff ff       	callq  ab93 <safe_mul_func_uint8_t_u_u>
   133b7:	48 8b 85 90 f2 ff ff 	mov    -0xd70(%rbp),%rax
   133be:	48 8b 00             	mov    (%rax),%rax
   133c1:	8b 00                	mov    (%rax),%eax
   133c3:	0f be c0             	movsbl %al,%eax
   133c6:	be f8 ff ff ff       	mov    $0xfffffff8,%esi
   133cb:	89 c7                	mov    %eax,%edi
   133cd:	e8 20 6e ff ff       	callq  a1f2 <safe_sub_func_int8_t_s_s>
   133d2:	48 8b 85 38 f2 ff ff 	mov    -0xdc8(%rbp),%rax
   133d9:	48 89 85 a0 f2 ff ff 	mov    %rax,-0xd60(%rbp)
   133e0:	48 8d 85 c8 f1 ff ff 	lea    -0xe38(%rbp),%rax
   133e7:	48 39 85 a0 f2 ff ff 	cmp    %rax,-0xd60(%rbp)
   133ee:	0f 94 c0             	sete   %al
   133f1:	0f b6 c0             	movzbl %al,%eax
   133f4:	89 de                	mov    %ebx,%esi
   133f6:	89 c7                	mov    %eax,%edi
   133f8:	e8 91 79 ff ff       	callq  ad8e <safe_div_func_uint16_t_u_u>
   133fd:	0f b7 c0             	movzwl %ax,%eax
   13400:	48 c7 c6 ff ff ff ff 	mov    $0xffffffffffffffff,%rsi
   13407:	48 89 c7             	mov    %rax,%rdi
   1340a:	e8 a0 7c ff ff       	callq  b0af <safe_div_func_uint64_t_u_u>
   1340f:	48 8b 95 30 f1 ff ff 	mov    -0xed0(%rbp),%rdx
   13416:	48 09 c2             	or     %rax,%rdx
   13419:	8b 85 d0 f1 ff ff    	mov    -0xe30(%rbp),%eax
   1341f:	48 98                	cltq   
   13421:	48 31 c2             	xor    %rax,%rdx
   13424:	48 8b 85 e0 f1 ff ff 	mov    -0xe20(%rbp),%rax
   1342b:	48 8b 00             	mov    (%rax),%rax
   1342e:	48 89 10             	mov    %rdx,(%rax)
   13431:	48 8b 05 c0 09 01 00 	mov    0x109c0(%rip),%rax        # 23df8 <g_1742>
   13438:	48 8b 95 88 f2 ff ff 	mov    -0xd78(%rbp),%rdx
   1343f:	48 89 10             	mov    %rdx,(%rax)
   13442:	0f b6 45 c7          	movzbl -0x39(%rbp),%eax
   13446:	0f be c0             	movsbl %al,%eax
   13449:	89 85 98 f1 ff ff    	mov    %eax,-0xe68(%rbp)
   1344f:	0f b7 05 3a 16 01 00 	movzwl 0x1163a(%rip),%eax        # 24a90 <g_2116>
   13456:	83 c0 01             	add    $0x1,%eax
   13459:	66 89 05 30 16 01 00 	mov    %ax,0x11630(%rip)        # 24a90 <g_2116>
   13460:	0f b7 05 29 16 01 00 	movzwl 0x11629(%rip),%eax        # 24a90 <g_2116>
   13467:	66 83 f8 07          	cmp    $0x7,%ax
   1346b:	0f 86 a1 f7 ff ff    	jbe    12c12 <func_49+0x20b9>
   13471:	0f b6 85 41 f1 ff ff 	movzbl -0xebf(%rbp),%eax
   13478:	83 c0 01             	add    $0x1,%eax
   1347b:	88 85 41 f1 ff ff    	mov    %al,-0xebf(%rbp)
   13481:	0f b6 85 41 f1 ff ff 	movzbl -0xebf(%rbp),%eax
   13488:	3c 03                	cmp    $0x3,%al
   1348a:	0f 86 57 f6 ff ff    	jbe    12ae7 <func_49+0x1f8e>
   13490:	48 8b 05 a9 dd 00 00 	mov    0xdda9(%rip),%rax        # 21240 <g_101>
   13497:	48 83 e8 01          	sub    $0x1,%rax
   1349b:	48 89 05 9e dd 00 00 	mov    %rax,0xdd9e(%rip)        # 21240 <g_101>
   134a2:	48 8b 05 97 dd 00 00 	mov    0xdd97(%rip),%rax        # 21240 <g_101>
   134a9:	48 83 f8 e8          	cmp    $0xffffffffffffffe8,%rax
   134ad:	0f 85 9a ee ff ff    	jne    1234d <func_49+0x17f4>
   134b3:	0f b7 85 4c f1 ff ff 	movzwl -0xeb4(%rbp),%eax
   134ba:	eb 0b                	jmp    134c7 <func_49+0x296e>
   134bc:	48 8b 85 18 f2 ff ff 	mov    -0xde8(%rbp),%rax
   134c3:	8b 00                	mov    (%rax),%eax
   134c5:	48 98                	cltq   
   134c7:	48 8b 5d c8          	mov    -0x38(%rbp),%rbx
   134cb:	64 48 33 1c 25 28 00 	xor    %fs:0x28,%rbx
   134d2:	00 00 
   134d4:	74 05                	je     134db <func_49+0x2982>
   134d6:	e8 95 6b ff ff       	callq  a070 <__stack_chk_fail@plt>
   134db:	48 81 c4 b8 0e 00 00 	add    $0xeb8,%rsp
   134e2:	5b                   	pop    %rbx
   134e3:	41 5c                	pop    %r12
   134e5:	41 5d                	pop    %r13
   134e7:	41 5e                	pop    %r14
   134e9:	41 5f                	pop    %r15
   134eb:	5d                   	pop    %rbp
   134ec:	c3                   	retq   

00000000000134ed <func_51>:
   134ed:	f3 0f 1e fa          	endbr64 
   134f1:	55                   	push   %rbp
   134f2:	48 89 e5             	mov    %rsp,%rbp
   134f5:	41 57                	push   %r15
   134f7:	41 56                	push   %r14
   134f9:	41 55                	push   %r13
   134fb:	41 54                	push   %r12
   134fd:	53                   	push   %rbx
   134fe:	48 81 ec 00 10 00 00 	sub    $0x1000,%rsp
   13505:	48 83 0c 24 00       	orq    $0x0,(%rsp)
   1350a:	48 81 ec b8 07 00 00 	sub    $0x7b8,%rsp
   13511:	48 89 bd 38 e8 ff ff 	mov    %rdi,-0x17c8(%rbp)
   13518:	48 89 b5 30 e8 ff ff 	mov    %rsi,-0x17d0(%rbp)
   1351f:	64 48 8b 04 25 28 00 	mov    %fs:0x28,%rax
   13526:	00 00 
   13528:	48 89 45 c8          	mov    %rax,-0x38(%rbp)
   1352c:	31 c0                	xor    %eax,%eax
   1352e:	48 8d 05 90 e0 00 00 	lea    0xe090(%rip),%rax        # 215c5 <g_1486>
   13535:	48 89 85 00 e9 ff ff 	mov    %rax,-0x1700(%rbp)
   1353c:	48 8d 85 00 e9 ff ff 	lea    -0x1700(%rbp),%rax
   13543:	48 89 85 08 e9 ff ff 	mov    %rax,-0x16f8(%rbp)
   1354a:	48 8d 85 08 e9 ff ff 	lea    -0x16f8(%rbp),%rax
   13551:	48 89 85 c0 f7 ff ff 	mov    %rax,-0x840(%rbp)
   13558:	48 8d 85 08 e9 ff ff 	lea    -0x16f8(%rbp),%rax
   1355f:	48 89 85 c8 f7 ff ff 	mov    %rax,-0x838(%rbp)
   13566:	48 8d 85 08 e9 ff ff 	lea    -0x16f8(%rbp),%rax
   1356d:	48 89 85 d0 f7 ff ff 	mov    %rax,-0x830(%rbp)
   13574:	48 8d 85 08 e9 ff ff 	lea    -0x16f8(%rbp),%rax
   1357b:	48 89 85 d8 f7 ff ff 	mov    %rax,-0x828(%rbp)
   13582:	48 8d 85 08 e9 ff ff 	lea    -0x16f8(%rbp),%rax
   13589:	48 89 85 e0 f7 ff ff 	mov    %rax,-0x820(%rbp)
   13590:	48 8d 85 08 e9 ff ff 	lea    -0x16f8(%rbp),%rax
   13597:	48 89 85 e8 f7 ff ff 	mov    %rax,-0x818(%rbp)
   1359e:	48 8d 85 08 e9 ff ff 	lea    -0x16f8(%rbp),%rax
   135a5:	48 89 85 f0 f7 ff ff 	mov    %rax,-0x810(%rbp)
   135ac:	48 8d 85 08 e9 ff ff 	lea    -0x16f8(%rbp),%rax
   135b3:	48 89 85 f8 f7 ff ff 	mov    %rax,-0x808(%rbp)
   135ba:	48 8d 85 08 e9 ff ff 	lea    -0x16f8(%rbp),%rax
   135c1:	48 89 85 00 f8 ff ff 	mov    %rax,-0x800(%rbp)
   135c8:	48 8d 85 08 e9 ff ff 	lea    -0x16f8(%rbp),%rax
   135cf:	48 89 85 08 f8 ff ff 	mov    %rax,-0x7f8(%rbp)
   135d6:	48 8d 85 08 e9 ff ff 	lea    -0x16f8(%rbp),%rax
   135dd:	48 89 85 10 f8 ff ff 	mov    %rax,-0x7f0(%rbp)
   135e4:	48 8d 85 08 e9 ff ff 	lea    -0x16f8(%rbp),%rax
   135eb:	48 89 85 18 f8 ff ff 	mov    %rax,-0x7e8(%rbp)
   135f2:	48 8d 85 08 e9 ff ff 	lea    -0x16f8(%rbp),%rax
   135f9:	48 89 85 20 f8 ff ff 	mov    %rax,-0x7e0(%rbp)
   13600:	48 8d 85 08 e9 ff ff 	lea    -0x16f8(%rbp),%rax
   13607:	48 89 85 28 f8 ff ff 	mov    %rax,-0x7d8(%rbp)
   1360e:	48 8d 85 08 e9 ff ff 	lea    -0x16f8(%rbp),%rax
   13615:	48 89 85 30 f8 ff ff 	mov    %rax,-0x7d0(%rbp)
   1361c:	48 8d 85 08 e9 ff ff 	lea    -0x16f8(%rbp),%rax
   13623:	48 89 85 38 f8 ff ff 	mov    %rax,-0x7c8(%rbp)
   1362a:	48 8d 85 08 e9 ff ff 	lea    -0x16f8(%rbp),%rax
   13631:	48 89 85 40 f8 ff ff 	mov    %rax,-0x7c0(%rbp)
   13638:	48 8d 85 08 e9 ff ff 	lea    -0x16f8(%rbp),%rax
   1363f:	48 89 85 48 f8 ff ff 	mov    %rax,-0x7b8(%rbp)
   13646:	48 8d 85 08 e9 ff ff 	lea    -0x16f8(%rbp),%rax
   1364d:	48 89 85 50 f8 ff ff 	mov    %rax,-0x7b0(%rbp)
   13654:	48 8d 85 08 e9 ff ff 	lea    -0x16f8(%rbp),%rax
   1365b:	48 89 85 58 f8 ff ff 	mov    %rax,-0x7a8(%rbp)
   13662:	48 8d 85 08 e9 ff ff 	lea    -0x16f8(%rbp),%rax
   13669:	48 89 85 60 f8 ff ff 	mov    %rax,-0x7a0(%rbp)
   13670:	48 8d 85 08 e9 ff ff 	lea    -0x16f8(%rbp),%rax
   13677:	48 89 85 68 f8 ff ff 	mov    %rax,-0x798(%rbp)
   1367e:	48 8d 85 08 e9 ff ff 	lea    -0x16f8(%rbp),%rax
   13685:	48 89 85 70 f8 ff ff 	mov    %rax,-0x790(%rbp)
   1368c:	48 8d 85 08 e9 ff ff 	lea    -0x16f8(%rbp),%rax
   13693:	48 89 85 78 f8 ff ff 	mov    %rax,-0x788(%rbp)
   1369a:	48 8d 85 08 e9 ff ff 	lea    -0x16f8(%rbp),%rax
   136a1:	48 89 85 80 f8 ff ff 	mov    %rax,-0x780(%rbp)
   136a8:	48 8d 85 08 e9 ff ff 	lea    -0x16f8(%rbp),%rax
   136af:	48 89 85 88 f8 ff ff 	mov    %rax,-0x778(%rbp)
   136b6:	48 8d 85 08 e9 ff ff 	lea    -0x16f8(%rbp),%rax
   136bd:	48 89 85 90 f8 ff ff 	mov    %rax,-0x770(%rbp)
   136c4:	48 8d 85 08 e9 ff ff 	lea    -0x16f8(%rbp),%rax
   136cb:	48 89 85 98 f8 ff ff 	mov    %rax,-0x768(%rbp)
   136d2:	48 8d 85 08 e9 ff ff 	lea    -0x16f8(%rbp),%rax
   136d9:	48 89 85 a0 f8 ff ff 	mov    %rax,-0x760(%rbp)
   136e0:	48 8d 85 08 e9 ff ff 	lea    -0x16f8(%rbp),%rax
   136e7:	48 89 85 a8 f8 ff ff 	mov    %rax,-0x758(%rbp)
   136ee:	48 8d 85 08 e9 ff ff 	lea    -0x16f8(%rbp),%rax
   136f5:	48 89 85 b0 f8 ff ff 	mov    %rax,-0x750(%rbp)
   136fc:	48 8d 85 08 e9 ff ff 	lea    -0x16f8(%rbp),%rax
   13703:	48 89 85 b8 f8 ff ff 	mov    %rax,-0x748(%rbp)
   1370a:	48 8d 85 08 e9 ff ff 	lea    -0x16f8(%rbp),%rax
   13711:	48 89 85 c0 f8 ff ff 	mov    %rax,-0x740(%rbp)
   13718:	48 8d 85 08 e9 ff ff 	lea    -0x16f8(%rbp),%rax
   1371f:	48 89 85 c8 f8 ff ff 	mov    %rax,-0x738(%rbp)
   13726:	48 8d 85 08 e9 ff ff 	lea    -0x16f8(%rbp),%rax
   1372d:	48 89 85 d0 f8 ff ff 	mov    %rax,-0x730(%rbp)
   13734:	48 8d 85 08 e9 ff ff 	lea    -0x16f8(%rbp),%rax
   1373b:	48 89 85 d8 f8 ff ff 	mov    %rax,-0x728(%rbp)
   13742:	48 8d 85 08 e9 ff ff 	lea    -0x16f8(%rbp),%rax
   13749:	48 89 85 e0 f8 ff ff 	mov    %rax,-0x720(%rbp)
   13750:	48 8d 85 08 e9 ff ff 	lea    -0x16f8(%rbp),%rax
   13757:	48 89 85 e8 f8 ff ff 	mov    %rax,-0x718(%rbp)
   1375e:	48 8d 85 08 e9 ff ff 	lea    -0x16f8(%rbp),%rax
   13765:	48 89 85 f0 f8 ff ff 	mov    %rax,-0x710(%rbp)
   1376c:	48 8d 85 08 e9 ff ff 	lea    -0x16f8(%rbp),%rax
   13773:	48 89 85 f8 f8 ff ff 	mov    %rax,-0x708(%rbp)
   1377a:	48 8d 85 08 e9 ff ff 	lea    -0x16f8(%rbp),%rax
   13781:	48 89 85 00 f9 ff ff 	mov    %rax,-0x700(%rbp)
   13788:	48 8d 85 08 e9 ff ff 	lea    -0x16f8(%rbp),%rax
   1378f:	48 89 85 08 f9 ff ff 	mov    %rax,-0x6f8(%rbp)
   13796:	48 8d 85 08 e9 ff ff 	lea    -0x16f8(%rbp),%rax
   1379d:	48 89 85 10 f9 ff ff 	mov    %rax,-0x6f0(%rbp)
   137a4:	48 8d 85 08 e9 ff ff 	lea    -0x16f8(%rbp),%rax
   137ab:	48 89 85 18 f9 ff ff 	mov    %rax,-0x6e8(%rbp)
   137b2:	48 8d 85 08 e9 ff ff 	lea    -0x16f8(%rbp),%rax
   137b9:	48 89 85 20 f9 ff ff 	mov    %rax,-0x6e0(%rbp)
   137c0:	48 8d 85 08 e9 ff ff 	lea    -0x16f8(%rbp),%rax
   137c7:	48 89 85 28 f9 ff ff 	mov    %rax,-0x6d8(%rbp)
   137ce:	48 8d 85 08 e9 ff ff 	lea    -0x16f8(%rbp),%rax
   137d5:	48 89 85 30 f9 ff ff 	mov    %rax,-0x6d0(%rbp)
   137dc:	48 8d 85 08 e9 ff ff 	lea    -0x16f8(%rbp),%rax
   137e3:	48 89 85 38 f9 ff ff 	mov    %rax,-0x6c8(%rbp)
   137ea:	48 8d 85 08 e9 ff ff 	lea    -0x16f8(%rbp),%rax
   137f1:	48 89 85 40 f9 ff ff 	mov    %rax,-0x6c0(%rbp)
   137f8:	48 8d 85 08 e9 ff ff 	lea    -0x16f8(%rbp),%rax
   137ff:	48 89 85 48 f9 ff ff 	mov    %rax,-0x6b8(%rbp)
   13806:	48 8d 85 08 e9 ff ff 	lea    -0x16f8(%rbp),%rax
   1380d:	48 89 85 50 f9 ff ff 	mov    %rax,-0x6b0(%rbp)
   13814:	48 8d 85 08 e9 ff ff 	lea    -0x16f8(%rbp),%rax
   1381b:	48 89 85 58 f9 ff ff 	mov    %rax,-0x6a8(%rbp)
   13822:	48 8d 85 08 e9 ff ff 	lea    -0x16f8(%rbp),%rax
   13829:	48 89 85 60 f9 ff ff 	mov    %rax,-0x6a0(%rbp)
   13830:	48 8d 85 08 e9 ff ff 	lea    -0x16f8(%rbp),%rax
   13837:	48 89 85 68 f9 ff ff 	mov    %rax,-0x698(%rbp)
   1383e:	48 8d 85 08 e9 ff ff 	lea    -0x16f8(%rbp),%rax
   13845:	48 89 85 70 f9 ff ff 	mov    %rax,-0x690(%rbp)
   1384c:	48 8d 85 08 e9 ff ff 	lea    -0x16f8(%rbp),%rax
   13853:	48 89 85 78 f9 ff ff 	mov    %rax,-0x688(%rbp)
   1385a:	48 8d 85 08 e9 ff ff 	lea    -0x16f8(%rbp),%rax
   13861:	48 89 85 80 f9 ff ff 	mov    %rax,-0x680(%rbp)
   13868:	48 8d 85 08 e9 ff ff 	lea    -0x16f8(%rbp),%rax
   1386f:	48 89 85 88 f9 ff ff 	mov    %rax,-0x678(%rbp)
   13876:	48 8d 85 08 e9 ff ff 	lea    -0x16f8(%rbp),%rax
   1387d:	48 89 85 90 f9 ff ff 	mov    %rax,-0x670(%rbp)
   13884:	48 8d 85 08 e9 ff ff 	lea    -0x16f8(%rbp),%rax
   1388b:	48 89 85 98 f9 ff ff 	mov    %rax,-0x668(%rbp)
   13892:	48 8d 85 08 e9 ff ff 	lea    -0x16f8(%rbp),%rax
   13899:	48 89 85 a0 f9 ff ff 	mov    %rax,-0x660(%rbp)
   138a0:	48 8d 85 08 e9 ff ff 	lea    -0x16f8(%rbp),%rax
   138a7:	48 89 85 a8 f9 ff ff 	mov    %rax,-0x658(%rbp)
   138ae:	48 8d 85 08 e9 ff ff 	lea    -0x16f8(%rbp),%rax
   138b5:	48 89 85 b0 f9 ff ff 	mov    %rax,-0x650(%rbp)
   138bc:	48 8d 85 08 e9 ff ff 	lea    -0x16f8(%rbp),%rax
   138c3:	48 89 85 b8 f9 ff ff 	mov    %rax,-0x648(%rbp)
   138ca:	48 8d 85 08 e9 ff ff 	lea    -0x16f8(%rbp),%rax
   138d1:	48 89 85 c0 f9 ff ff 	mov    %rax,-0x640(%rbp)
   138d8:	48 8d 85 08 e9 ff ff 	lea    -0x16f8(%rbp),%rax
   138df:	48 89 85 c8 f9 ff ff 	mov    %rax,-0x638(%rbp)
   138e6:	48 8d 85 08 e9 ff ff 	lea    -0x16f8(%rbp),%rax
   138ed:	48 89 85 d0 f9 ff ff 	mov    %rax,-0x630(%rbp)
   138f4:	48 8d 85 08 e9 ff ff 	lea    -0x16f8(%rbp),%rax
   138fb:	48 89 85 d8 f9 ff ff 	mov    %rax,-0x628(%rbp)
   13902:	48 8d 85 08 e9 ff ff 	lea    -0x16f8(%rbp),%rax
   13909:	48 89 85 e0 f9 ff ff 	mov    %rax,-0x620(%rbp)
   13910:	48 8d 85 08 e9 ff ff 	lea    -0x16f8(%rbp),%rax
   13917:	48 89 85 e8 f9 ff ff 	mov    %rax,-0x618(%rbp)
   1391e:	48 8d 85 08 e9 ff ff 	lea    -0x16f8(%rbp),%rax
   13925:	48 89 85 f0 f9 ff ff 	mov    %rax,-0x610(%rbp)
   1392c:	48 8d 85 08 e9 ff ff 	lea    -0x16f8(%rbp),%rax
   13933:	48 89 85 f8 f9 ff ff 	mov    %rax,-0x608(%rbp)
   1393a:	48 8d 85 08 e9 ff ff 	lea    -0x16f8(%rbp),%rax
   13941:	48 89 85 00 fa ff ff 	mov    %rax,-0x600(%rbp)
   13948:	48 8d 85 08 e9 ff ff 	lea    -0x16f8(%rbp),%rax
   1394f:	48 89 85 08 fa ff ff 	mov    %rax,-0x5f8(%rbp)
   13956:	48 8d 85 08 e9 ff ff 	lea    -0x16f8(%rbp),%rax
   1395d:	48 89 85 10 fa ff ff 	mov    %rax,-0x5f0(%rbp)
   13964:	48 8d 85 08 e9 ff ff 	lea    -0x16f8(%rbp),%rax
   1396b:	48 89 85 18 fa ff ff 	mov    %rax,-0x5e8(%rbp)
   13972:	48 8d 85 08 e9 ff ff 	lea    -0x16f8(%rbp),%rax
   13979:	48 89 85 20 fa ff ff 	mov    %rax,-0x5e0(%rbp)
   13980:	48 8d 85 08 e9 ff ff 	lea    -0x16f8(%rbp),%rax
   13987:	48 89 85 28 fa ff ff 	mov    %rax,-0x5d8(%rbp)
   1398e:	48 8d 85 08 e9 ff ff 	lea    -0x16f8(%rbp),%rax
   13995:	48 89 85 30 fa ff ff 	mov    %rax,-0x5d0(%rbp)
   1399c:	48 8d 85 08 e9 ff ff 	lea    -0x16f8(%rbp),%rax
   139a3:	48 89 85 38 fa ff ff 	mov    %rax,-0x5c8(%rbp)
   139aa:	48 8d 85 08 e9 ff ff 	lea    -0x16f8(%rbp),%rax
   139b1:	48 89 85 40 fa ff ff 	mov    %rax,-0x5c0(%rbp)
   139b8:	48 8d 85 08 e9 ff ff 	lea    -0x16f8(%rbp),%rax
   139bf:	48 89 85 48 fa ff ff 	mov    %rax,-0x5b8(%rbp)
   139c6:	48 8d 85 08 e9 ff ff 	lea    -0x16f8(%rbp),%rax
   139cd:	48 89 85 50 fa ff ff 	mov    %rax,-0x5b0(%rbp)
   139d4:	48 8d 85 08 e9 ff ff 	lea    -0x16f8(%rbp),%rax
   139db:	48 89 85 58 fa ff ff 	mov    %rax,-0x5a8(%rbp)
   139e2:	48 8d 85 08 e9 ff ff 	lea    -0x16f8(%rbp),%rax
   139e9:	48 89 85 60 fa ff ff 	mov    %rax,-0x5a0(%rbp)
   139f0:	48 8d 85 08 e9 ff ff 	lea    -0x16f8(%rbp),%rax
   139f7:	48 89 85 68 fa ff ff 	mov    %rax,-0x598(%rbp)
   139fe:	48 8d 85 08 e9 ff ff 	lea    -0x16f8(%rbp),%rax
   13a05:	48 89 85 70 fa ff ff 	mov    %rax,-0x590(%rbp)
   13a0c:	48 8d 85 08 e9 ff ff 	lea    -0x16f8(%rbp),%rax
   13a13:	48 89 85 78 fa ff ff 	mov    %rax,-0x588(%rbp)
   13a1a:	48 8d 85 08 e9 ff ff 	lea    -0x16f8(%rbp),%rax
   13a21:	48 89 85 80 fa ff ff 	mov    %rax,-0x580(%rbp)
   13a28:	48 8d 85 08 e9 ff ff 	lea    -0x16f8(%rbp),%rax
   13a2f:	48 89 85 88 fa ff ff 	mov    %rax,-0x578(%rbp)
   13a36:	48 8d 85 08 e9 ff ff 	lea    -0x16f8(%rbp),%rax
   13a3d:	48 89 85 90 fa ff ff 	mov    %rax,-0x570(%rbp)
   13a44:	48 8d 85 08 e9 ff ff 	lea    -0x16f8(%rbp),%rax
   13a4b:	48 89 85 98 fa ff ff 	mov    %rax,-0x568(%rbp)
   13a52:	48 8d 85 08 e9 ff ff 	lea    -0x16f8(%rbp),%rax
   13a59:	48 89 85 a0 fa ff ff 	mov    %rax,-0x560(%rbp)
   13a60:	48 8d 85 08 e9 ff ff 	lea    -0x16f8(%rbp),%rax
   13a67:	48 89 85 a8 fa ff ff 	mov    %rax,-0x558(%rbp)
   13a6e:	48 8d 85 08 e9 ff ff 	lea    -0x16f8(%rbp),%rax
   13a75:	48 89 85 b0 fa ff ff 	mov    %rax,-0x550(%rbp)
   13a7c:	48 8d 85 08 e9 ff ff 	lea    -0x16f8(%rbp),%rax
   13a83:	48 89 85 b8 fa ff ff 	mov    %rax,-0x548(%rbp)
   13a8a:	48 8d 85 08 e9 ff ff 	lea    -0x16f8(%rbp),%rax
   13a91:	48 89 85 c0 fa ff ff 	mov    %rax,-0x540(%rbp)
   13a98:	48 8d 85 08 e9 ff ff 	lea    -0x16f8(%rbp),%rax
   13a9f:	48 89 85 c8 fa ff ff 	mov    %rax,-0x538(%rbp)
   13aa6:	48 8d 85 08 e9 ff ff 	lea    -0x16f8(%rbp),%rax
   13aad:	48 89 85 d0 fa ff ff 	mov    %rax,-0x530(%rbp)
   13ab4:	48 8d 85 08 e9 ff ff 	lea    -0x16f8(%rbp),%rax
   13abb:	48 89 85 d8 fa ff ff 	mov    %rax,-0x528(%rbp)
   13ac2:	48 8d 85 08 e9 ff ff 	lea    -0x16f8(%rbp),%rax
   13ac9:	48 89 85 e0 fa ff ff 	mov    %rax,-0x520(%rbp)
   13ad0:	48 8d 85 08 e9 ff ff 	lea    -0x16f8(%rbp),%rax
   13ad7:	48 89 85 e8 fa ff ff 	mov    %rax,-0x518(%rbp)
   13ade:	48 8d 85 08 e9 ff ff 	lea    -0x16f8(%rbp),%rax
   13ae5:	48 89 85 f0 fa ff ff 	mov    %rax,-0x510(%rbp)
   13aec:	48 8d 85 08 e9 ff ff 	lea    -0x16f8(%rbp),%rax
   13af3:	48 89 85 f8 fa ff ff 	mov    %rax,-0x508(%rbp)
   13afa:	48 8d 85 08 e9 ff ff 	lea    -0x16f8(%rbp),%rax
   13b01:	48 89 85 00 fb ff ff 	mov    %rax,-0x500(%rbp)
   13b08:	48 8d 85 08 e9 ff ff 	lea    -0x16f8(%rbp),%rax
   13b0f:	48 89 85 08 fb ff ff 	mov    %rax,-0x4f8(%rbp)
   13b16:	48 8d 85 08 e9 ff ff 	lea    -0x16f8(%rbp),%rax
   13b1d:	48 89 85 10 fb ff ff 	mov    %rax,-0x4f0(%rbp)
   13b24:	48 8d 85 08 e9 ff ff 	lea    -0x16f8(%rbp),%rax
   13b2b:	48 89 85 18 fb ff ff 	mov    %rax,-0x4e8(%rbp)
   13b32:	48 8d 85 08 e9 ff ff 	lea    -0x16f8(%rbp),%rax
   13b39:	48 89 85 20 fb ff ff 	mov    %rax,-0x4e0(%rbp)
   13b40:	48 8d 85 08 e9 ff ff 	lea    -0x16f8(%rbp),%rax
   13b47:	48 89 85 28 fb ff ff 	mov    %rax,-0x4d8(%rbp)
   13b4e:	48 8d 85 08 e9 ff ff 	lea    -0x16f8(%rbp),%rax
   13b55:	48 89 85 30 fb ff ff 	mov    %rax,-0x4d0(%rbp)
   13b5c:	48 8d 85 08 e9 ff ff 	lea    -0x16f8(%rbp),%rax
   13b63:	48 89 85 38 fb ff ff 	mov    %rax,-0x4c8(%rbp)
   13b6a:	48 8d 85 08 e9 ff ff 	lea    -0x16f8(%rbp),%rax
   13b71:	48 89 85 40 fb ff ff 	mov    %rax,-0x4c0(%rbp)
   13b78:	48 8d 85 08 e9 ff ff 	lea    -0x16f8(%rbp),%rax
   13b7f:	48 89 85 48 fb ff ff 	mov    %rax,-0x4b8(%rbp)
   13b86:	48 8d 85 08 e9 ff ff 	lea    -0x16f8(%rbp),%rax
   13b8d:	48 89 85 50 fb ff ff 	mov    %rax,-0x4b0(%rbp)
   13b94:	48 8d 85 08 e9 ff ff 	lea    -0x16f8(%rbp),%rax
   13b9b:	48 89 85 58 fb ff ff 	mov    %rax,-0x4a8(%rbp)
   13ba2:	48 8d 85 08 e9 ff ff 	lea    -0x16f8(%rbp),%rax
   13ba9:	48 89 85 60 fb ff ff 	mov    %rax,-0x4a0(%rbp)
   13bb0:	48 8d 85 08 e9 ff ff 	lea    -0x16f8(%rbp),%rax
   13bb7:	48 89 85 68 fb ff ff 	mov    %rax,-0x498(%rbp)
   13bbe:	48 8d 85 08 e9 ff ff 	lea    -0x16f8(%rbp),%rax
   13bc5:	48 89 85 70 fb ff ff 	mov    %rax,-0x490(%rbp)
   13bcc:	48 8d 85 08 e9 ff ff 	lea    -0x16f8(%rbp),%rax
   13bd3:	48 89 85 78 fb ff ff 	mov    %rax,-0x488(%rbp)
   13bda:	48 8d 85 08 e9 ff ff 	lea    -0x16f8(%rbp),%rax
   13be1:	48 89 85 80 fb ff ff 	mov    %rax,-0x480(%rbp)
   13be8:	48 8d 85 08 e9 ff ff 	lea    -0x16f8(%rbp),%rax
   13bef:	48 89 85 88 fb ff ff 	mov    %rax,-0x478(%rbp)
   13bf6:	48 8d 85 08 e9 ff ff 	lea    -0x16f8(%rbp),%rax
   13bfd:	48 89 85 90 fb ff ff 	mov    %rax,-0x470(%rbp)
   13c04:	48 8d 85 08 e9 ff ff 	lea    -0x16f8(%rbp),%rax
   13c0b:	48 89 85 98 fb ff ff 	mov    %rax,-0x468(%rbp)
   13c12:	48 8d 85 08 e9 ff ff 	lea    -0x16f8(%rbp),%rax
   13c19:	48 89 85 a0 fb ff ff 	mov    %rax,-0x460(%rbp)
   13c20:	48 8d 85 08 e9 ff ff 	lea    -0x16f8(%rbp),%rax
   13c27:	48 89 85 a8 fb ff ff 	mov    %rax,-0x458(%rbp)
   13c2e:	48 8d 85 08 e9 ff ff 	lea    -0x16f8(%rbp),%rax
   13c35:	48 89 85 b0 fb ff ff 	mov    %rax,-0x450(%rbp)
   13c3c:	48 8d 85 08 e9 ff ff 	lea    -0x16f8(%rbp),%rax
   13c43:	48 89 85 b8 fb ff ff 	mov    %rax,-0x448(%rbp)
   13c4a:	48 8d 85 08 e9 ff ff 	lea    -0x16f8(%rbp),%rax
   13c51:	48 89 85 c0 fb ff ff 	mov    %rax,-0x440(%rbp)
   13c58:	48 8d 85 08 e9 ff ff 	lea    -0x16f8(%rbp),%rax
   13c5f:	48 89 85 c8 fb ff ff 	mov    %rax,-0x438(%rbp)
   13c66:	48 8d 85 08 e9 ff ff 	lea    -0x16f8(%rbp),%rax
   13c6d:	48 89 85 d0 fb ff ff 	mov    %rax,-0x430(%rbp)
   13c74:	48 8d 85 08 e9 ff ff 	lea    -0x16f8(%rbp),%rax
   13c7b:	48 89 85 d8 fb ff ff 	mov    %rax,-0x428(%rbp)
   13c82:	48 8d 85 08 e9 ff ff 	lea    -0x16f8(%rbp),%rax
   13c89:	48 89 85 e0 fb ff ff 	mov    %rax,-0x420(%rbp)
   13c90:	48 8d 85 08 e9 ff ff 	lea    -0x16f8(%rbp),%rax
   13c97:	48 89 85 e8 fb ff ff 	mov    %rax,-0x418(%rbp)
   13c9e:	48 8d 85 08 e9 ff ff 	lea    -0x16f8(%rbp),%rax
   13ca5:	48 89 85 f0 fb ff ff 	mov    %rax,-0x410(%rbp)
   13cac:	48 8d 85 08 e9 ff ff 	lea    -0x16f8(%rbp),%rax
   13cb3:	48 89 85 f8 fb ff ff 	mov    %rax,-0x408(%rbp)
   13cba:	48 8d 85 08 e9 ff ff 	lea    -0x16f8(%rbp),%rax
   13cc1:	48 89 85 00 fc ff ff 	mov    %rax,-0x400(%rbp)
   13cc8:	48 8d 85 08 e9 ff ff 	lea    -0x16f8(%rbp),%rax
   13ccf:	48 89 85 08 fc ff ff 	mov    %rax,-0x3f8(%rbp)
   13cd6:	48 8d 85 08 e9 ff ff 	lea    -0x16f8(%rbp),%rax
   13cdd:	48 89 85 10 fc ff ff 	mov    %rax,-0x3f0(%rbp)
   13ce4:	48 8d 85 08 e9 ff ff 	lea    -0x16f8(%rbp),%rax
   13ceb:	48 89 85 18 fc ff ff 	mov    %rax,-0x3e8(%rbp)
   13cf2:	48 8d 85 08 e9 ff ff 	lea    -0x16f8(%rbp),%rax
   13cf9:	48 89 85 20 fc ff ff 	mov    %rax,-0x3e0(%rbp)
   13d00:	48 8d 85 08 e9 ff ff 	lea    -0x16f8(%rbp),%rax
   13d07:	48 89 85 28 fc ff ff 	mov    %rax,-0x3d8(%rbp)
   13d0e:	48 8d 85 08 e9 ff ff 	lea    -0x16f8(%rbp),%rax
   13d15:	48 89 85 30 fc ff ff 	mov    %rax,-0x3d0(%rbp)
   13d1c:	48 8d 85 08 e9 ff ff 	lea    -0x16f8(%rbp),%rax
   13d23:	48 89 85 38 fc ff ff 	mov    %rax,-0x3c8(%rbp)
   13d2a:	48 8d 85 08 e9 ff ff 	lea    -0x16f8(%rbp),%rax
   13d31:	48 89 85 40 fc ff ff 	mov    %rax,-0x3c0(%rbp)
   13d38:	48 8d 85 08 e9 ff ff 	lea    -0x16f8(%rbp),%rax
   13d3f:	48 89 85 48 fc ff ff 	mov    %rax,-0x3b8(%rbp)
   13d46:	48 8d 85 08 e9 ff ff 	lea    -0x16f8(%rbp),%rax
   13d4d:	48 89 85 50 fc ff ff 	mov    %rax,-0x3b0(%rbp)
   13d54:	48 8d 85 08 e9 ff ff 	lea    -0x16f8(%rbp),%rax
   13d5b:	48 89 85 58 fc ff ff 	mov    %rax,-0x3a8(%rbp)
   13d62:	48 8d 85 08 e9 ff ff 	lea    -0x16f8(%rbp),%rax
   13d69:	48 89 85 60 fc ff ff 	mov    %rax,-0x3a0(%rbp)
   13d70:	48 8d 85 08 e9 ff ff 	lea    -0x16f8(%rbp),%rax
   13d77:	48 89 85 68 fc ff ff 	mov    %rax,-0x398(%rbp)
   13d7e:	48 8d 85 08 e9 ff ff 	lea    -0x16f8(%rbp),%rax
   13d85:	48 89 85 70 fc ff ff 	mov    %rax,-0x390(%rbp)
   13d8c:	48 8d 85 08 e9 ff ff 	lea    -0x16f8(%rbp),%rax
   13d93:	48 89 85 78 fc ff ff 	mov    %rax,-0x388(%rbp)
   13d9a:	48 8d 85 08 e9 ff ff 	lea    -0x16f8(%rbp),%rax
   13da1:	48 89 85 80 fc ff ff 	mov    %rax,-0x380(%rbp)
   13da8:	48 8d 85 08 e9 ff ff 	lea    -0x16f8(%rbp),%rax
   13daf:	48 89 85 88 fc ff ff 	mov    %rax,-0x378(%rbp)
   13db6:	48 8d 85 08 e9 ff ff 	lea    -0x16f8(%rbp),%rax
   13dbd:	48 89 85 90 fc ff ff 	mov    %rax,-0x370(%rbp)
   13dc4:	48 8d 85 08 e9 ff ff 	lea    -0x16f8(%rbp),%rax
   13dcb:	48 89 85 98 fc ff ff 	mov    %rax,-0x368(%rbp)
   13dd2:	48 8d 85 08 e9 ff ff 	lea    -0x16f8(%rbp),%rax
   13dd9:	48 89 85 a0 fc ff ff 	mov    %rax,-0x360(%rbp)
   13de0:	48 8d 85 08 e9 ff ff 	lea    -0x16f8(%rbp),%rax
   13de7:	48 89 85 a8 fc ff ff 	mov    %rax,-0x358(%rbp)
   13dee:	48 8d 85 08 e9 ff ff 	lea    -0x16f8(%rbp),%rax
   13df5:	48 89 85 b0 fc ff ff 	mov    %rax,-0x350(%rbp)
   13dfc:	48 8d 85 08 e9 ff ff 	lea    -0x16f8(%rbp),%rax
   13e03:	48 89 85 b8 fc ff ff 	mov    %rax,-0x348(%rbp)
   13e0a:	48 8d 85 08 e9 ff ff 	lea    -0x16f8(%rbp),%rax
   13e11:	48 89 85 c0 fc ff ff 	mov    %rax,-0x340(%rbp)
   13e18:	48 8d 85 08 e9 ff ff 	lea    -0x16f8(%rbp),%rax
   13e1f:	48 89 85 c8 fc ff ff 	mov    %rax,-0x338(%rbp)
   13e26:	48 8d 85 08 e9 ff ff 	lea    -0x16f8(%rbp),%rax
   13e2d:	48 89 85 d0 fc ff ff 	mov    %rax,-0x330(%rbp)
   13e34:	48 8d 85 08 e9 ff ff 	lea    -0x16f8(%rbp),%rax
   13e3b:	48 89 85 d8 fc ff ff 	mov    %rax,-0x328(%rbp)
   13e42:	48 8d 85 08 e9 ff ff 	lea    -0x16f8(%rbp),%rax
   13e49:	48 89 85 e0 fc ff ff 	mov    %rax,-0x320(%rbp)
   13e50:	48 8d 85 08 e9 ff ff 	lea    -0x16f8(%rbp),%rax
   13e57:	48 89 85 e8 fc ff ff 	mov    %rax,-0x318(%rbp)
   13e5e:	48 8d 85 08 e9 ff ff 	lea    -0x16f8(%rbp),%rax
   13e65:	48 89 85 f0 fc ff ff 	mov    %rax,-0x310(%rbp)
   13e6c:	48 8d 85 08 e9 ff ff 	lea    -0x16f8(%rbp),%rax
   13e73:	48 89 85 f8 fc ff ff 	mov    %rax,-0x308(%rbp)
   13e7a:	48 8d 85 08 e9 ff ff 	lea    -0x16f8(%rbp),%rax
   13e81:	48 89 85 00 fd ff ff 	mov    %rax,-0x300(%rbp)
   13e88:	48 8d 85 08 e9 ff ff 	lea    -0x16f8(%rbp),%rax
   13e8f:	48 89 85 08 fd ff ff 	mov    %rax,-0x2f8(%rbp)
   13e96:	48 8d 85 08 e9 ff ff 	lea    -0x16f8(%rbp),%rax
   13e9d:	48 89 85 10 fd ff ff 	mov    %rax,-0x2f0(%rbp)
   13ea4:	48 8d 85 08 e9 ff ff 	lea    -0x16f8(%rbp),%rax
   13eab:	48 89 85 18 fd ff ff 	mov    %rax,-0x2e8(%rbp)
   13eb2:	48 8d 85 08 e9 ff ff 	lea    -0x16f8(%rbp),%rax
   13eb9:	48 89 85 20 fd ff ff 	mov    %rax,-0x2e0(%rbp)
   13ec0:	48 8d 85 08 e9 ff ff 	lea    -0x16f8(%rbp),%rax
   13ec7:	48 89 85 28 fd ff ff 	mov    %rax,-0x2d8(%rbp)
   13ece:	48 8d 85 08 e9 ff ff 	lea    -0x16f8(%rbp),%rax
   13ed5:	48 89 85 30 fd ff ff 	mov    %rax,-0x2d0(%rbp)
   13edc:	48 8d 85 08 e9 ff ff 	lea    -0x16f8(%rbp),%rax
   13ee3:	48 89 85 38 fd ff ff 	mov    %rax,-0x2c8(%rbp)
   13eea:	48 8d 85 08 e9 ff ff 	lea    -0x16f8(%rbp),%rax
   13ef1:	48 89 85 40 fd ff ff 	mov    %rax,-0x2c0(%rbp)
   13ef8:	48 8d 85 08 e9 ff ff 	lea    -0x16f8(%rbp),%rax
   13eff:	48 89 85 48 fd ff ff 	mov    %rax,-0x2b8(%rbp)
   13f06:	48 8d 85 08 e9 ff ff 	lea    -0x16f8(%rbp),%rax
   13f0d:	48 89 85 50 fd ff ff 	mov    %rax,-0x2b0(%rbp)
   13f14:	48 8d 85 08 e9 ff ff 	lea    -0x16f8(%rbp),%rax
   13f1b:	48 89 85 58 fd ff ff 	mov    %rax,-0x2a8(%rbp)
   13f22:	48 8d 85 08 e9 ff ff 	lea    -0x16f8(%rbp),%rax
   13f29:	48 89 85 60 fd ff ff 	mov    %rax,-0x2a0(%rbp)
   13f30:	48 8d 85 08 e9 ff ff 	lea    -0x16f8(%rbp),%rax
   13f37:	48 89 85 68 fd ff ff 	mov    %rax,-0x298(%rbp)
   13f3e:	48 8d 85 08 e9 ff ff 	lea    -0x16f8(%rbp),%rax
   13f45:	48 89 85 70 fd ff ff 	mov    %rax,-0x290(%rbp)
   13f4c:	48 8d 85 08 e9 ff ff 	lea    -0x16f8(%rbp),%rax
   13f53:	48 89 85 78 fd ff ff 	mov    %rax,-0x288(%rbp)
   13f5a:	48 8d 85 08 e9 ff ff 	lea    -0x16f8(%rbp),%rax
   13f61:	48 89 85 80 fd ff ff 	mov    %rax,-0x280(%rbp)
   13f68:	48 8d 85 08 e9 ff ff 	lea    -0x16f8(%rbp),%rax
   13f6f:	48 89 85 88 fd ff ff 	mov    %rax,-0x278(%rbp)
   13f76:	48 8d 85 08 e9 ff ff 	lea    -0x16f8(%rbp),%rax
   13f7d:	48 89 85 90 fd ff ff 	mov    %rax,-0x270(%rbp)
   13f84:	48 8d 85 08 e9 ff ff 	lea    -0x16f8(%rbp),%rax
   13f8b:	48 89 85 98 fd ff ff 	mov    %rax,-0x268(%rbp)
   13f92:	48 8d 85 08 e9 ff ff 	lea    -0x16f8(%rbp),%rax
   13f99:	48 89 85 a0 fd ff ff 	mov    %rax,-0x260(%rbp)
   13fa0:	48 8d 85 08 e9 ff ff 	lea    -0x16f8(%rbp),%rax
   13fa7:	48 89 85 a8 fd ff ff 	mov    %rax,-0x258(%rbp)
   13fae:	48 8d 85 08 e9 ff ff 	lea    -0x16f8(%rbp),%rax
   13fb5:	48 89 85 b0 fd ff ff 	mov    %rax,-0x250(%rbp)
   13fbc:	48 8d 85 08 e9 ff ff 	lea    -0x16f8(%rbp),%rax
   13fc3:	48 89 85 b8 fd ff ff 	mov    %rax,-0x248(%rbp)
   13fca:	48 8d 85 08 e9 ff ff 	lea    -0x16f8(%rbp),%rax
   13fd1:	48 89 85 c0 fd ff ff 	mov    %rax,-0x240(%rbp)
   13fd8:	48 8d 85 08 e9 ff ff 	lea    -0x16f8(%rbp),%rax
   13fdf:	48 89 85 c8 fd ff ff 	mov    %rax,-0x238(%rbp)
   13fe6:	48 8d 85 08 e9 ff ff 	lea    -0x16f8(%rbp),%rax
   13fed:	48 89 85 d0 fd ff ff 	mov    %rax,-0x230(%rbp)
   13ff4:	48 8d 85 08 e9 ff ff 	lea    -0x16f8(%rbp),%rax
   13ffb:	48 89 85 d8 fd ff ff 	mov    %rax,-0x228(%rbp)
   14002:	48 8d 85 08 e9 ff ff 	lea    -0x16f8(%rbp),%rax
   14009:	48 89 85 e0 fd ff ff 	mov    %rax,-0x220(%rbp)
   14010:	48 8d 85 08 e9 ff ff 	lea    -0x16f8(%rbp),%rax
   14017:	48 89 85 e8 fd ff ff 	mov    %rax,-0x218(%rbp)
   1401e:	48 8d 85 08 e9 ff ff 	lea    -0x16f8(%rbp),%rax
   14025:	48 89 85 f0 fd ff ff 	mov    %rax,-0x210(%rbp)
   1402c:	48 8d 85 08 e9 ff ff 	lea    -0x16f8(%rbp),%rax
   14033:	48 89 85 f8 fd ff ff 	mov    %rax,-0x208(%rbp)
   1403a:	48 8d 85 08 e9 ff ff 	lea    -0x16f8(%rbp),%rax
   14041:	48 89 85 00 fe ff ff 	mov    %rax,-0x200(%rbp)
   14048:	48 8d 85 08 e9 ff ff 	lea    -0x16f8(%rbp),%rax
   1404f:	48 89 85 08 fe ff ff 	mov    %rax,-0x1f8(%rbp)
   14056:	48 8d 85 08 e9 ff ff 	lea    -0x16f8(%rbp),%rax
   1405d:	48 89 85 10 fe ff ff 	mov    %rax,-0x1f0(%rbp)
   14064:	48 8d 85 08 e9 ff ff 	lea    -0x16f8(%rbp),%rax
   1406b:	48 89 85 18 fe ff ff 	mov    %rax,-0x1e8(%rbp)
   14072:	48 8d 85 08 e9 ff ff 	lea    -0x16f8(%rbp),%rax
   14079:	48 89 85 20 fe ff ff 	mov    %rax,-0x1e0(%rbp)
   14080:	48 8d 85 08 e9 ff ff 	lea    -0x16f8(%rbp),%rax
   14087:	48 89 85 28 fe ff ff 	mov    %rax,-0x1d8(%rbp)
   1408e:	48 8d 85 08 e9 ff ff 	lea    -0x16f8(%rbp),%rax
   14095:	48 89 85 30 fe ff ff 	mov    %rax,-0x1d0(%rbp)
   1409c:	48 8d 85 08 e9 ff ff 	lea    -0x16f8(%rbp),%rax
   140a3:	48 89 85 38 fe ff ff 	mov    %rax,-0x1c8(%rbp)
   140aa:	48 8d 85 08 e9 ff ff 	lea    -0x16f8(%rbp),%rax
   140b1:	48 89 85 40 fe ff ff 	mov    %rax,-0x1c0(%rbp)
   140b8:	48 8d 85 08 e9 ff ff 	lea    -0x16f8(%rbp),%rax
   140bf:	48 89 85 48 fe ff ff 	mov    %rax,-0x1b8(%rbp)
   140c6:	48 8d 85 08 e9 ff ff 	lea    -0x16f8(%rbp),%rax
   140cd:	48 89 85 50 fe ff ff 	mov    %rax,-0x1b0(%rbp)
   140d4:	48 8d 85 08 e9 ff ff 	lea    -0x16f8(%rbp),%rax
   140db:	48 89 85 58 fe ff ff 	mov    %rax,-0x1a8(%rbp)
   140e2:	48 8d 85 08 e9 ff ff 	lea    -0x16f8(%rbp),%rax
   140e9:	48 89 85 60 fe ff ff 	mov    %rax,-0x1a0(%rbp)
   140f0:	48 8d 85 08 e9 ff ff 	lea    -0x16f8(%rbp),%rax
   140f7:	48 89 85 68 fe ff ff 	mov    %rax,-0x198(%rbp)
   140fe:	48 8d 85 08 e9 ff ff 	lea    -0x16f8(%rbp),%rax
   14105:	48 89 85 70 fe ff ff 	mov    %rax,-0x190(%rbp)
   1410c:	48 8d 85 08 e9 ff ff 	lea    -0x16f8(%rbp),%rax
   14113:	48 89 85 78 fe ff ff 	mov    %rax,-0x188(%rbp)
   1411a:	48 8d 85 08 e9 ff ff 	lea    -0x16f8(%rbp),%rax
   14121:	48 89 85 80 fe ff ff 	mov    %rax,-0x180(%rbp)
   14128:	48 8d 85 08 e9 ff ff 	lea    -0x16f8(%rbp),%rax
   1412f:	48 89 85 88 fe ff ff 	mov    %rax,-0x178(%rbp)
   14136:	48 8d 85 08 e9 ff ff 	lea    -0x16f8(%rbp),%rax
   1413d:	48 89 85 90 fe ff ff 	mov    %rax,-0x170(%rbp)
   14144:	48 8d 85 08 e9 ff ff 	lea    -0x16f8(%rbp),%rax
   1414b:	48 89 85 98 fe ff ff 	mov    %rax,-0x168(%rbp)
   14152:	48 8d 85 08 e9 ff ff 	lea    -0x16f8(%rbp),%rax
   14159:	48 89 85 a0 fe ff ff 	mov    %rax,-0x160(%rbp)
   14160:	48 8d 85 08 e9 ff ff 	lea    -0x16f8(%rbp),%rax
   14167:	48 89 85 a8 fe ff ff 	mov    %rax,-0x158(%rbp)
   1416e:	48 8d 85 08 e9 ff ff 	lea    -0x16f8(%rbp),%rax
   14175:	48 89 85 b0 fe ff ff 	mov    %rax,-0x150(%rbp)
   1417c:	48 8d 85 08 e9 ff ff 	lea    -0x16f8(%rbp),%rax
   14183:	48 89 85 b8 fe ff ff 	mov    %rax,-0x148(%rbp)
   1418a:	48 8d 85 08 e9 ff ff 	lea    -0x16f8(%rbp),%rax
   14191:	48 89 85 c0 fe ff ff 	mov    %rax,-0x140(%rbp)
   14198:	48 8d 85 08 e9 ff ff 	lea    -0x16f8(%rbp),%rax
   1419f:	48 89 85 c8 fe ff ff 	mov    %rax,-0x138(%rbp)
   141a6:	48 8d 85 08 e9 ff ff 	lea    -0x16f8(%rbp),%rax
   141ad:	48 89 85 d0 fe ff ff 	mov    %rax,-0x130(%rbp)
   141b4:	48 8d 85 08 e9 ff ff 	lea    -0x16f8(%rbp),%rax
   141bb:	48 89 85 d8 fe ff ff 	mov    %rax,-0x128(%rbp)
   141c2:	48 8d 85 08 e9 ff ff 	lea    -0x16f8(%rbp),%rax
   141c9:	48 89 85 e0 fe ff ff 	mov    %rax,-0x120(%rbp)
   141d0:	48 8d 85 08 e9 ff ff 	lea    -0x16f8(%rbp),%rax
   141d7:	48 89 85 e8 fe ff ff 	mov    %rax,-0x118(%rbp)
   141de:	48 8d 85 08 e9 ff ff 	lea    -0x16f8(%rbp),%rax
   141e5:	48 89 85 f0 fe ff ff 	mov    %rax,-0x110(%rbp)
   141ec:	48 8d 85 08 e9 ff ff 	lea    -0x16f8(%rbp),%rax
   141f3:	48 89 85 f8 fe ff ff 	mov    %rax,-0x108(%rbp)
   141fa:	48 8d 85 08 e9 ff ff 	lea    -0x16f8(%rbp),%rax
   14201:	48 89 85 00 ff ff ff 	mov    %rax,-0x100(%rbp)
   14208:	48 8d 85 08 e9 ff ff 	lea    -0x16f8(%rbp),%rax
   1420f:	48 89 85 08 ff ff ff 	mov    %rax,-0xf8(%rbp)
   14216:	48 8d 85 08 e9 ff ff 	lea    -0x16f8(%rbp),%rax
   1421d:	48 89 85 10 ff ff ff 	mov    %rax,-0xf0(%rbp)
   14224:	48 8d 85 08 e9 ff ff 	lea    -0x16f8(%rbp),%rax
   1422b:	48 89 85 18 ff ff ff 	mov    %rax,-0xe8(%rbp)
   14232:	48 8d 85 08 e9 ff ff 	lea    -0x16f8(%rbp),%rax
   14239:	48 89 85 20 ff ff ff 	mov    %rax,-0xe0(%rbp)
   14240:	48 8d 85 08 e9 ff ff 	lea    -0x16f8(%rbp),%rax
   14247:	48 89 85 28 ff ff ff 	mov    %rax,-0xd8(%rbp)
   1424e:	48 8d 85 08 e9 ff ff 	lea    -0x16f8(%rbp),%rax
   14255:	48 89 85 30 ff ff ff 	mov    %rax,-0xd0(%rbp)
   1425c:	48 8d 85 08 e9 ff ff 	lea    -0x16f8(%rbp),%rax
   14263:	48 89 85 38 ff ff ff 	mov    %rax,-0xc8(%rbp)
   1426a:	48 8d 85 08 e9 ff ff 	lea    -0x16f8(%rbp),%rax
   14271:	48 89 85 40 ff ff ff 	mov    %rax,-0xc0(%rbp)
   14278:	48 8d 85 08 e9 ff ff 	lea    -0x16f8(%rbp),%rax
   1427f:	48 89 85 48 ff ff ff 	mov    %rax,-0xb8(%rbp)
   14286:	48 8d 85 08 e9 ff ff 	lea    -0x16f8(%rbp),%rax
   1428d:	48 89 85 50 ff ff ff 	mov    %rax,-0xb0(%rbp)
   14294:	48 8d 85 08 e9 ff ff 	lea    -0x16f8(%rbp),%rax
   1429b:	48 89 85 58 ff ff ff 	mov    %rax,-0xa8(%rbp)
   142a2:	48 8d 85 08 e9 ff ff 	lea    -0x16f8(%rbp),%rax
   142a9:	48 89 85 60 ff ff ff 	mov    %rax,-0xa0(%rbp)
   142b0:	48 8d 85 08 e9 ff ff 	lea    -0x16f8(%rbp),%rax
   142b7:	48 89 85 68 ff ff ff 	mov    %rax,-0x98(%rbp)
   142be:	48 8d 85 08 e9 ff ff 	lea    -0x16f8(%rbp),%rax
   142c5:	48 89 85 70 ff ff ff 	mov    %rax,-0x90(%rbp)
   142cc:	48 8d 85 08 e9 ff ff 	lea    -0x16f8(%rbp),%rax
   142d3:	48 89 85 78 ff ff ff 	mov    %rax,-0x88(%rbp)
   142da:	48 8d 85 08 e9 ff ff 	lea    -0x16f8(%rbp),%rax
   142e1:	48 89 45 80          	mov    %rax,-0x80(%rbp)
   142e5:	48 8d 85 08 e9 ff ff 	lea    -0x16f8(%rbp),%rax
   142ec:	48 89 45 88          	mov    %rax,-0x78(%rbp)
   142f0:	48 8d 85 08 e9 ff ff 	lea    -0x16f8(%rbp),%rax
   142f7:	48 89 45 90          	mov    %rax,-0x70(%rbp)
   142fb:	48 8d 85 08 e9 ff ff 	lea    -0x16f8(%rbp),%rax
   14302:	48 89 45 98          	mov    %rax,-0x68(%rbp)
   14306:	48 8d 85 08 e9 ff ff 	lea    -0x16f8(%rbp),%rax
   1430d:	48 89 45 a0          	mov    %rax,-0x60(%rbp)
   14311:	48 8d 85 08 e9 ff ff 	lea    -0x16f8(%rbp),%rax
   14318:	48 89 45 a8          	mov    %rax,-0x58(%rbp)
   1431c:	48 8d 85 08 e9 ff ff 	lea    -0x16f8(%rbp),%rax
   14323:	48 89 45 b0          	mov    %rax,-0x50(%rbp)
   14327:	48 8d 85 08 e9 ff ff 	lea    -0x16f8(%rbp),%rax
   1432e:	48 89 45 b8          	mov    %rax,-0x48(%rbp)
   14332:	48 8d 05 8d d2 00 00 	lea    0xd28d(%rip),%rax        # 215c6 <g_1489>
   14339:	48 89 85 10 e9 ff ff 	mov    %rax,-0x16f0(%rbp)
   14340:	48 8d 85 10 e9 ff ff 	lea    -0x16f0(%rbp),%rax
   14347:	48 89 85 78 e9 ff ff 	mov    %rax,-0x1688(%rbp)
   1434e:	48 8d 05 2b e7 00 00 	lea    0xe72b(%rip),%rax        # 22a80 <g_187+0x40>
   14355:	48 89 85 18 e9 ff ff 	mov    %rax,-0x16e8(%rbp)
   1435c:	66 c7 85 56 e8 ff ff 	movw   $0xfffa,-0x17aa(%rbp)
   14363:	fa ff 
   14365:	c6 85 4e e8 ff ff 00 	movb   $0x0,-0x17b2(%rbp)
   1436c:	48 b8 03 02 9b f7 49 	movabs $0x6dd49449f79b0203,%rax
   14373:	94 d4 6d 
   14376:	48 89 85 20 e9 ff ff 	mov    %rax,-0x16e0(%rbp)
   1437d:	66 c7 85 58 e8 ff ff 	movw   $0xcf62,-0x17a8(%rbp)
   14384:	62 cf 
   14386:	48 8d 05 53 d0 00 00 	lea    0xd053(%rip),%rax        # 213e0 <g_161>
   1438d:	48 89 85 80 e9 ff ff 	mov    %rax,-0x1680(%rbp)
   14394:	48 8d 05 85 e8 00 00 	lea    0xe885(%rip),%rax        # 22c20 <g_487>
   1439b:	48 89 85 88 e9 ff ff 	mov    %rax,-0x1678(%rbp)
   143a2:	c7 85 ac e8 ff ff f9 	movl   $0xfffffff9,-0x1754(%rbp)
   143a9:	ff ff ff 
   143ac:	c6 85 4d e8 ff ff fc 	movb   $0xfc,-0x17b3(%rbp)
   143b3:	48 8d 05 92 cc 00 00 	lea    0xcc92(%rip),%rax        # 2104c <g_62+0xc>
   143ba:	48 89 85 90 e9 ff ff 	mov    %rax,-0x1670(%rbp)
   143c1:	c7 85 b0 e8 ff ff ff 	movl   $0xffffffff,-0x1750(%rbp)
   143c8:	ff ff ff 
   143cb:	c7 85 80 e8 ff ff 00 	movl   $0x0,-0x1780(%rbp)
   143d2:	00 00 00 
   143d5:	eb 1a                	jmp    143f1 <func_51+0xf04>
   143d7:	8b 85 80 e8 ff ff    	mov    -0x1780(%rbp),%eax
   143dd:	48 98                	cltq   
   143df:	c7 84 85 50 eb ff ff 	movl   $0x1,-0x14b0(%rbp,%rax,4)
   143e6:	01 00 00 00 
   143ea:	83 85 80 e8 ff ff 01 	addl   $0x1,-0x1780(%rbp)
   143f1:	83 bd 80 e8 ff ff 06 	cmpl   $0x6,-0x1780(%rbp)
   143f8:	7e dd                	jle    143d7 <func_51+0xeea>
   143fa:	c7 85 80 e8 ff ff 00 	movl   $0x0,-0x1780(%rbp)
   14401:	00 00 00 
   14404:	eb 19                	jmp    1441f <func_51+0xf32>
   14406:	8b 85 80 e8 ff ff    	mov    -0x1780(%rbp),%eax
   1440c:	48 98                	cltq   
   1440e:	66 c7 84 45 42 eb ff 	movw   $0x8,-0x14be(%rbp,%rax,2)
   14415:	ff 08 00 
   14418:	83 85 80 e8 ff ff 01 	addl   $0x1,-0x1780(%rbp)
   1441f:	83 bd 80 e8 ff ff 06 	cmpl   $0x6,-0x1780(%rbp)
   14426:	7e de                	jle    14406 <func_51+0xf19>
   14428:	8b 85 68 eb ff ff    	mov    -0x1498(%rbp),%eax
   1442e:	0f be d8             	movsbl %al,%ebx
   14431:	48 8b 85 30 e8 ff ff 	mov    -0x17d0(%rbp),%rax
   14438:	44 0f b6 e0          	movzbl %al,%r12d
   1443c:	48 8b 85 38 e8 ff ff 	mov    -0x17c8(%rbp),%rax
   14443:	41 89 c7             	mov    %eax,%r15d
   14446:	48 8b 85 30 e8 ff ff 	mov    -0x17d0(%rbp),%rax
   1444d:	89 85 2c e8 ff ff    	mov    %eax,-0x17d4(%rbp)
   14453:	48 8d 05 16 e6 00 00 	lea    0xe616(%rip),%rax        # 22a70 <g_187+0x30>
   1445a:	48 89 85 78 e9 ff ff 	mov    %rax,-0x1688(%rbp)
   14461:	48 8b 85 18 e9 ff ff 	mov    -0x16e8(%rbp),%rax
   14468:	48 39 85 78 e9 ff ff 	cmp    %rax,-0x1688(%rbp)
   1446f:	0f 94 c0             	sete   %al
   14472:	0f b6 c0             	movzbl %al,%eax
   14475:	f7 d0                	not    %eax
   14477:	48 98                	cltq   
   14479:	48 39 85 38 e8 ff ff 	cmp    %rax,-0x17c8(%rbp)
   14480:	0f 95 c0             	setne  %al
   14483:	44 0f b6 e8          	movzbl %al,%r13d
   14487:	48 8b 85 38 e8 ff ff 	mov    -0x17c8(%rbp),%rax
   1448e:	0f b7 c0             	movzwl %ax,%eax
   14491:	be 01 00 00 00       	mov    $0x1,%esi
   14496:	89 c7                	mov    %eax,%edi
   14498:	e8 a0 68 ff ff       	callq  ad3d <safe_mul_func_uint16_t_u_u>
   1449d:	0f b7 c0             	movzwl %ax,%eax
   144a0:	44 89 ee             	mov    %r13d,%esi
   144a3:	89 c7                	mov    %eax,%edi
   144a5:	e8 3c 6a ff ff       	callq  aee6 <safe_mul_func_uint32_t_u_u>
   144aa:	41 89 c6             	mov    %eax,%r14d
   144ad:	8b 85 68 eb ff ff    	mov    -0x1498(%rbp),%eax
   144b3:	44 0f bf e8          	movswl %ax,%r13d
   144b7:	8b 85 68 eb ff ff    	mov    -0x1498(%rbp),%eax
   144bd:	0f b7 c0             	movzwl %ax,%eax
   144c0:	89 c6                	mov    %eax,%esi
   144c2:	bf 00 00 00 00       	mov    $0x0,%edi
   144c7:	e8 c2 68 ff ff       	callq  ad8e <safe_div_func_uint16_t_u_u>
   144cc:	0f b7 d0             	movzwl %ax,%edx
   144cf:	8b 85 60 eb ff ff    	mov    -0x14a0(%rbp),%eax
   144d5:	39 c2                	cmp    %eax,%edx
   144d7:	0f 94 c0             	sete   %al
   144da:	0f b6 c0             	movzbl %al,%eax
   144dd:	44 89 ee             	mov    %r13d,%esi
   144e0:	89 c7                	mov    %eax,%edi
   144e2:	e8 0e 5f ff ff       	callq  a3f5 <safe_mul_func_int16_t_s_s>
   144e7:	98                   	cwtl   
   144e8:	41 39 c6             	cmp    %eax,%r14d
   144eb:	0f 97 c0             	seta   %al
   144ee:	0f b6 c0             	movzbl %al,%eax
   144f1:	8b b5 2c e8 ff ff    	mov    -0x17d4(%rbp),%esi
   144f7:	89 c7                	mov    %eax,%edi
   144f9:	e8 27 6a ff ff       	callq  af25 <safe_div_func_uint32_t_u_u>
   144fe:	83 f0 23             	xor    $0x23,%eax
   14501:	0f be c0             	movsbl %al,%eax
   14504:	44 89 fe             	mov    %r15d,%esi
   14507:	89 c7                	mov    %eax,%edi
   14509:	e8 93 5d ff ff       	callq  a2a1 <safe_lshift_func_int8_t_s_s>
   1450e:	48 8b 05 1b e7 00 00 	mov    0xe71b(%rip),%rax        # 22c30 <g_566>
   14515:	48 8b 05 b4 f7 00 00 	mov    0xf7b4(%rip),%rax        # 23cd0 <g_1438>
   1451c:	48 8b 00             	mov    (%rax),%rax
   1451f:	89 c2                	mov    %eax,%edx
   14521:	b8 ba db 27 86       	mov    $0x8627dbba,%eax
   14526:	48 39 85 38 e8 ff ff 	cmp    %rax,-0x17c8(%rbp)
   1452d:	0f 9f c0             	setg   %al
   14530:	0f b6 c0             	movzbl %al,%eax
   14533:	21 d0                	and    %edx,%eax
   14535:	98                   	cwtl   
   14536:	be ff ff ff ff       	mov    $0xffffffff,%esi
   1453b:	89 c7                	mov    %eax,%edi
   1453d:	e8 71 5e ff ff       	callq  a3b3 <safe_add_func_int16_t_s_s>
   14542:	48 8b 85 30 e8 ff ff 	mov    -0x17d0(%rbp),%rax
   14549:	0f b6 c0             	movzbl %al,%eax
   1454c:	44 89 e6             	mov    %r12d,%esi
   1454f:	89 c7                	mov    %eax,%edi
   14551:	e8 85 66 ff ff       	callq  abdb <safe_div_func_uint8_t_u_u>
   14556:	0f be c0             	movsbl %al,%eax
   14559:	89 de                	mov    %ebx,%esi
   1455b:	89 c7                	mov    %eax,%edi
   1455d:	e8 90 5c ff ff       	callq  a1f2 <safe_sub_func_int8_t_s_s>
   14562:	66 98                	cbtw   
   14564:	66 89 85 56 e8 ff ff 	mov    %ax,-0x17aa(%rbp)
   1456b:	0f b7 85 56 e8 ff ff 	movzwl -0x17aa(%rbp),%eax
   14572:	0f b7 d0             	movzwl %ax,%edx
   14575:	48 8b 05 24 f7 00 00 	mov    0xf724(%rip),%rax        # 23ca0 <g_1051>
   1457c:	48 8b 00             	mov    (%rax),%rax
   1457f:	48 09 d0             	or     %rdx,%rax
   14582:	48 85 c0             	test   %rax,%rax
   14585:	74 0f                	je     14596 <func_51+0x10a9>
   14587:	48 8b 85 18 e9 ff ff 	mov    -0x16e8(%rbp),%rax
   1458e:	48 8b 00             	mov    (%rax),%rax
   14591:	e9 51 34 00 00       	jmpq   179e7 <func_51+0x44fa>
   14596:	48 8d 05 a5 ce 00 00 	lea    0xcea5(%rip),%rax        # 21442 <g_431>
   1459d:	48 89 85 98 e9 ff ff 	mov    %rax,-0x1668(%rbp)
   145a4:	48 8d 05 ad e4 00 00 	lea    0xe4ad(%rip),%rax        # 22a58 <g_187+0x18>
   145ab:	48 89 85 28 e9 ff ff 	mov    %rax,-0x16d8(%rbp)
   145b2:	48 8d 05 0f e5 00 00 	lea    0xe50f(%rip),%rax        # 22ac8 <g_186+0x28>
   145b9:	48 89 85 a0 e9 ff ff 	mov    %rax,-0x1660(%rbp)
   145c0:	48 8d 85 56 e8 ff ff 	lea    -0x17aa(%rbp),%rax
   145c7:	48 89 85 a8 e9 ff ff 	mov    %rax,-0x1658(%rbp)
   145ce:	48 c7 85 b0 e9 ff ff 	movq   $0x0,-0x1650(%rbp)
   145d5:	00 00 00 00 
   145d9:	c7 85 64 e8 ff ff 77 	movl   $0x6261f277,-0x179c(%rbp)
   145e0:	f2 61 62 
   145e3:	48 8d 05 73 7a 00 00 	lea    0x7a73(%rip),%rax        # 1c05d <g_1542>
   145ea:	48 89 85 30 e9 ff ff 	mov    %rax,-0x16d0(%rbp)
   145f1:	48 8d 05 10 d0 00 00 	lea    0xd010(%rip),%rax        # 21608 <g_1545+0x28>
   145f8:	48 89 85 b8 e9 ff ff 	mov    %rax,-0x1648(%rbp)
   145ff:	c7 85 68 e8 ff ff fa 	movl   $0xfffffffa,-0x1798(%rbp)
   14606:	ff ff ff 
   14609:	c7 85 6c e8 ff ff e4 	movl   $0x30ed0de4,-0x1794(%rbp)
   14610:	0d ed 30 
   14613:	c6 85 4f e8 ff ff 00 	movb   $0x0,-0x17b1(%rbp)
   1461a:	48 8d 05 cf e5 00 00 	lea    0xe5cf(%rip),%rax        # 22bf0 <g_320>
   14621:	48 89 85 c0 e9 ff ff 	mov    %rax,-0x1640(%rbp)
   14628:	48 8d 05 91 ce 00 00 	lea    0xce91(%rip),%rax        # 214c0 <g_897>
   1462f:	48 89 85 38 e9 ff ff 	mov    %rax,-0x16c8(%rbp)
   14636:	48 8d 05 a3 cd 00 00 	lea    0xcda3(%rip),%rax        # 213e0 <g_161>
   1463d:	48 89 85 c8 e9 ff ff 	mov    %rax,-0x1638(%rbp)
   14644:	48 8d 05 25 f4 00 00 	lea    0xf425(%rip),%rax        # 23a70 <g_872+0x450>
   1464b:	48 89 85 d0 e9 ff ff 	mov    %rax,-0x1630(%rbp)
   14652:	48 c7 85 d8 e9 ff ff 	movq   $0x0,-0x1628(%rbp)
   14659:	00 00 00 00 
   1465d:	66 c7 85 5a e8 ff ff 	movw   $0xfffe,-0x17a6(%rbp)
   14664:	fe ff 
   14666:	48 8d 85 00 ed ff ff 	lea    -0x1300(%rbp),%rax
   1466d:	48 8d 15 cc 88 00 00 	lea    0x88cc(%rip),%rdx        # 1cf40 <g_1542+0xee3>
   14674:	b9 40 00 00 00       	mov    $0x40,%ecx
   14679:	48 89 c7             	mov    %rax,%rdi
   1467c:	48 89 d6             	mov    %rdx,%rsi
   1467f:	f3 48 a5             	rep movsq %ds:(%rsi),%es:(%rdi)
   14682:	c7 85 b4 e8 ff ff 01 	movl   $0x1,-0x174c(%rbp)
   14689:	00 00 00 
   1468c:	66 c7 85 5c e8 ff ff 	movw   $0x1,-0x17a4(%rbp)
   14693:	01 00 
   14695:	8b 9d 64 e8 ff ff    	mov    -0x179c(%rbp),%ebx
   1469b:	0f b7 15 ea cd 00 00 	movzwl 0xcdea(%rip),%edx        # 2148c <g_569+0xc>
   146a2:	66 0f be 85 4e e8 ff 	movsbw -0x17b2(%rbp),%ax
   146a9:	ff 
   146aa:	66 39 c2             	cmp    %ax,%dx
   146ad:	0f 9d c0             	setge  %al
   146b0:	0f b6 c0             	movzbl %al,%eax
   146b3:	be 0f 00 00 00       	mov    $0xf,%esi
   146b8:	89 c7                	mov    %eax,%edi
   146ba:	e8 22 5e ff ff       	callq  a4e1 <safe_lshift_func_int16_t_s_u>
   146bf:	48 8b 95 a8 e9 ff ff 	mov    -0x1658(%rbp),%rdx
   146c6:	0f b7 12             	movzwl (%rdx),%edx
   146c9:	31 d0                	xor    %edx,%eax
   146cb:	89 c2                	mov    %eax,%edx
   146cd:	48 8b 85 a8 e9 ff ff 	mov    -0x1658(%rbp),%rax
   146d4:	66 89 10             	mov    %dx,(%rax)
   146d7:	48 8b 85 a8 e9 ff ff 	mov    -0x1658(%rbp),%rax
   146de:	0f b7 00             	movzwl (%rax),%eax
   146e1:	0f b7 c0             	movzwl %ax,%eax
   146e4:	48 39 85 38 e8 ff ff 	cmp    %rax,-0x17c8(%rbp)
   146eb:	0f 95 c0             	setne  %al
   146ee:	44 0f b6 e0          	movzbl %al,%r12d
   146f2:	48 83 bd b0 e9 ff ff 	cmpq   $0x0,-0x1650(%rbp)
   146f9:	00 
   146fa:	0f 94 c0             	sete   %al
   146fd:	0f b6 c0             	movzbl %al,%eax
   14700:	be 00 4a 38 7c       	mov    $0x7c384a00,%esi
   14705:	89 c7                	mov    %eax,%edi
   14707:	e8 19 68 ff ff       	callq  af25 <safe_div_func_uint32_t_u_u>
   1470c:	89 c2                	mov    %eax,%edx
   1470e:	48 8b 85 10 e9 ff ff 	mov    -0x16f0(%rbp),%rax
   14715:	88 10                	mov    %dl,(%rax)
   14717:	0f b6 00             	movzbl (%rax),%eax
   1471a:	0f be c0             	movsbl %al,%eax
   1471d:	41 39 c4             	cmp    %eax,%r12d
   14720:	74 11                	je     14733 <func_51+0x1246>
   14722:	8b 85 68 eb ff ff    	mov    -0x1498(%rbp),%eax
   14728:	85 c0                	test   %eax,%eax
   1472a:	74 07                	je     14733 <func_51+0x1246>
   1472c:	b8 01 00 00 00       	mov    $0x1,%eax
   14731:	eb 05                	jmp    14738 <func_51+0x124b>
   14733:	b8 00 00 00 00       	mov    $0x0,%eax
   14738:	89 de                	mov    %ebx,%esi
   1473a:	89 c7                	mov    %eax,%edi
   1473c:	e8 c4 5e ff ff       	callq  a605 <safe_sub_func_int32_t_s_s>
   14741:	0f bf d0             	movswl %ax,%edx
   14744:	48 8b 8d 28 e9 ff ff 	mov    -0x16d8(%rbp),%rcx
   1474b:	48 8b 85 a0 e9 ff ff 	mov    -0x1660(%rbp),%rax
   14752:	48 89 08             	mov    %rcx,(%rax)
   14755:	48 8b 85 a0 e9 ff ff 	mov    -0x1660(%rbp),%rax
   1475c:	48 8b 08             	mov    (%rax),%rcx
   1475f:	48 8b 85 28 e9 ff ff 	mov    -0x16d8(%rbp),%rax
   14766:	48 39 c1             	cmp    %rax,%rcx
   14769:	0f 94 c0             	sete   %al
   1476c:	0f b6 c0             	movzbl %al,%eax
   1476f:	89 d6                	mov    %edx,%esi
   14771:	89 c7                	mov    %eax,%edi
   14773:	e8 9e 5c ff ff       	callq  a416 <safe_mod_func_int16_t_s_s>
   14778:	66 85 c0             	test   %ax,%ax
   1477b:	0f 94 c0             	sete   %al
   1477e:	0f b6 d0             	movzbl %al,%edx
   14781:	48 8b 85 98 e9 ff ff 	mov    -0x1668(%rbp),%rax
   14788:	0f b7 08             	movzwl (%rax),%ecx
   1478b:	48 8b 85 98 e9 ff ff 	mov    -0x1668(%rbp),%rax
   14792:	66 89 08             	mov    %cx,(%rax)
   14795:	48 8b 85 98 e9 ff ff 	mov    -0x1668(%rbp),%rax
   1479c:	0f b7 00             	movzwl (%rax),%eax
   1479f:	0f b7 c0             	movzwl %ax,%eax
   147a2:	89 d6                	mov    %edx,%esi
   147a4:	89 c7                	mov    %eax,%edi
   147a6:	e8 5b 66 ff ff       	callq  ae06 <safe_lshift_func_uint16_t_u_u>
   147ab:	0f b7 c0             	movzwl %ax,%eax
   147ae:	89 c6                	mov    %eax,%esi
   147b0:	bf ff ff ff ff       	mov    $0xffffffff,%edi
   147b5:	e8 34 5b ff ff       	callq  a2ee <safe_lshift_func_int8_t_s_u>
   147ba:	0f be c0             	movsbl %al,%eax
   147bd:	89 85 68 eb ff ff    	mov    %eax,-0x1498(%rbp)
   147c3:	48 8b 15 d6 f4 00 00 	mov    0xf4d6(%rip),%rdx        # 23ca0 <g_1051>
   147ca:	48 8b 05 c7 f4 00 00 	mov    0xf4c7(%rip),%rax        # 23c98 <g_1050>
   147d1:	48 8b 12             	mov    (%rdx),%rdx
   147d4:	48 89 10             	mov    %rdx,(%rax)
   147d7:	48 8b 00             	mov    (%rax),%rax
   147da:	48 89 c6             	mov    %rax,%rsi
   147dd:	bf 03 00 00 00       	mov    $0x3,%edi
   147e2:	e8 5a 60 ff ff       	callq  a841 <safe_add_func_int64_t_s_s>
   147e7:	0f b7 c0             	movzwl %ax,%eax
   147ea:	be ff ff 00 00       	mov    $0xffff,%esi
   147ef:	89 c7                	mov    %eax,%edi
   147f1:	e8 47 65 ff ff       	callq  ad3d <safe_mul_func_uint16_t_u_u>
   147f6:	89 c2                	mov    %eax,%edx
   147f8:	48 8b 05 09 e4 00 00 	mov    0xe409(%rip),%rax        # 22c08 <g_382>
   147ff:	48 8b 00             	mov    (%rax),%rax
   14802:	0f b7 d2             	movzwl %dx,%edx
   14805:	89 10                	mov    %edx,(%rax)
   14807:	48 8b 05 e2 e3 00 00 	mov    0xe3e2(%rip),%rax        # 22bf0 <g_320>
   1480e:	8b 08                	mov    (%rax),%ecx
   14810:	0f be 95 4e e8 ff ff 	movsbl -0x17b2(%rbp),%edx
   14817:	48 8b 05 d2 e3 00 00 	mov    0xe3d2(%rip),%rax        # 22bf0 <g_320>
   1481e:	21 ca                	and    %ecx,%edx
   14820:	89 10                	mov    %edx,(%rax)
   14822:	0f b7 85 56 e8 ff ff 	movzwl -0x17aa(%rbp),%eax
   14829:	0f b7 d0             	movzwl %ax,%edx
   1482c:	48 8b 05 65 f4 00 00 	mov    0xf465(%rip),%rax        # 23c98 <g_1050>
   14833:	48 8b 00             	mov    (%rax),%rax
   14836:	89 c1                	mov    %eax,%ecx
   14838:	0f b7 85 56 e8 ff ff 	movzwl -0x17aa(%rbp),%eax
   1483f:	66 83 f8 05          	cmp    $0x5,%ax
   14843:	77 0f                	ja     14854 <func_51+0x1367>
   14845:	48 8b 05 54 f4 00 00 	mov    0xf454(%rip),%rax        # 23ca0 <g_1051>
   1484c:	48 8b 00             	mov    (%rax),%rax
   1484f:	48 85 c0             	test   %rax,%rax
   14852:	74 07                	je     1485b <func_51+0x136e>
   14854:	b8 01 00 00 00       	mov    $0x1,%eax
   14859:	eb 05                	jmp    14860 <func_51+0x1373>
   1485b:	b8 00 00 00 00       	mov    $0x0,%eax
   14860:	21 c8                	and    %ecx,%eax
   14862:	89 85 68 eb ff ff    	mov    %eax,-0x1498(%rbp)
   14868:	8b 85 68 eb ff ff    	mov    -0x1498(%rbp),%eax
   1486e:	0f b7 c0             	movzwl %ax,%eax
   14871:	89 d6                	mov    %edx,%esi
   14873:	89 c7                	mov    %eax,%edi
   14875:	e8 85 64 ff ff       	callq  acff <safe_add_func_uint16_t_u_u>
   1487a:	66 85 c0             	test   %ax,%ax
   1487d:	0f 84 00 25 00 00    	je     16d83 <func_51+0x3896>
   14883:	48 8d 05 b6 cb 00 00 	lea    0xcbb6(%rip),%rax        # 21440 <g_372>
   1488a:	48 89 85 08 ea ff ff 	mov    %rax,-0x15f8(%rbp)
   14891:	c7 85 00 ec ff ff 43 	movl   $0x13347443,-0x1400(%rbp)
   14898:	74 34 13 
   1489b:	c7 85 04 ec ff ff 01 	movl   $0x1,-0x13fc(%rbp)
   148a2:	00 00 00 
   148a5:	c7 85 08 ec ff ff 43 	movl   $0x13347443,-0x13f8(%rbp)
   148ac:	74 34 13 
   148af:	c7 85 0c ec ff ff 01 	movl   $0x1,-0x13f4(%rbp)
   148b6:	00 00 00 
   148b9:	c7 85 10 ec ff ff 43 	movl   $0x13347443,-0x13f0(%rbp)
   148c0:	74 34 13 
   148c3:	c7 85 14 ec ff ff 01 	movl   $0x1,-0x13ec(%rbp)
   148ca:	00 00 00 
   148cd:	c7 85 18 ec ff ff 43 	movl   $0x13347443,-0x13e8(%rbp)
   148d4:	74 34 13 
   148d7:	c7 85 1c ec ff ff 01 	movl   $0x1,-0x13e4(%rbp)
   148de:	00 00 00 
   148e1:	c7 85 20 ec ff ff 43 	movl   $0x13347443,-0x13e0(%rbp)
   148e8:	74 34 13 
   148eb:	c7 85 24 ec ff ff 01 	movl   $0x1,-0x13dc(%rbp)
   148f2:	00 00 00 
   148f5:	c7 85 28 ec ff ff 43 	movl   $0x13347443,-0x13d8(%rbp)
   148fc:	74 34 13 
   148ff:	c7 85 2c ec ff ff 01 	movl   $0x1,-0x13d4(%rbp)
   14906:	00 00 00 
   14909:	48 b8 28 69 4e ed 8a 	movabs $0x471f008aed4e6928,%rax
   14910:	00 1f 47 
   14913:	48 89 85 10 ea ff ff 	mov    %rax,-0x15f0(%rbp)
   1491a:	48 8d 05 eb c9 00 00 	lea    0xc9eb(%rip),%rax        # 2130c <g_119+0xac>
   14921:	48 89 85 18 ea ff ff 	mov    %rax,-0x15e8(%rbp)
   14928:	48 8d 05 69 f3 00 00 	lea    0xf369(%rip),%rax        # 23c98 <g_1050>
   1492f:	48 89 85 20 ea ff ff 	mov    %rax,-0x15e0(%rbp)
   14936:	48 c7 85 28 ea ff ff 	movq   $0x0,-0x15d8(%rbp)
   1493d:	00 00 00 00 
   14941:	48 c7 85 40 e9 ff ff 	movq   $0x0,-0x16c0(%rbp)
   14948:	00 00 00 00 
   1494c:	48 8d 85 40 e9 ff ff 	lea    -0x16c0(%rbp),%rax
   14953:	48 89 85 48 e9 ff ff 	mov    %rax,-0x16b8(%rbp)
   1495a:	48 8d 85 48 e9 ff ff 	lea    -0x16b8(%rbp),%rax
   14961:	48 89 85 30 ea ff ff 	mov    %rax,-0x15d0(%rbp)
   14968:	48 b8 62 29 74 5b 75 	movabs $0x73b390755b742962,%rax
   1496f:	90 b3 73 
   14972:	48 89 85 70 e9 ff ff 	mov    %rax,-0x1690(%rbp)
   14979:	c7 85 84 e8 ff ff 00 	movl   $0x0,-0x177c(%rbp)
   14980:	00 00 00 
   14983:	eb 51                	jmp    149d6 <func_51+0x14e9>
   14985:	c7 85 88 e8 ff ff 00 	movl   $0x0,-0x1778(%rbp)
   1498c:	00 00 00 
   1498f:	eb 35                	jmp    149c6 <func_51+0x14d9>
   14991:	8b 85 88 e8 ff ff    	mov    -0x1778(%rbp),%eax
   14997:	48 63 c8             	movslq %eax,%rcx
   1499a:	8b 85 84 e8 ff ff    	mov    -0x177c(%rbp),%eax
   149a0:	48 63 d0             	movslq %eax,%rdx
   149a3:	48 89 d0             	mov    %rdx,%rax
   149a6:	48 c1 e0 02          	shl    $0x2,%rax
   149aa:	48 01 d0             	add    %rdx,%rax
   149ad:	48 01 c8             	add    %rcx,%rax
   149b0:	48 8d 15 8e cc 00 00 	lea    0xcc8e(%rip),%rdx        # 21645 <g_1664+0x5>
   149b7:	48 89 94 c5 a0 eb ff 	mov    %rdx,-0x1460(%rbp,%rax,8)
   149be:	ff 
   149bf:	83 85 88 e8 ff ff 01 	addl   $0x1,-0x1778(%rbp)
   149c6:	83 bd 88 e8 ff ff 04 	cmpl   $0x4,-0x1778(%rbp)
   149cd:	7e c2                	jle    14991 <func_51+0x14a4>
   149cf:	83 85 84 e8 ff ff 01 	addl   $0x1,-0x177c(%rbp)
   149d6:	83 bd 84 e8 ff ff 00 	cmpl   $0x0,-0x177c(%rbp)
   149dd:	7e a6                	jle    14985 <func_51+0x1498>
   149df:	48 8b 05 0a e2 00 00 	mov    0xe20a(%rip),%rax        # 22bf0 <g_320>
   149e6:	8b 00                	mov    (%rax),%eax
   149e8:	85 c0                	test   %eax,%eax
   149ea:	0f 84 e1 12 00 00    	je     15cd1 <func_51+0x27e4>
   149f0:	48 c7 85 50 e9 ff ff 	movq   $0x9,-0x16b0(%rbp)
   149f7:	09 00 00 00 
   149fb:	48 8d 85 60 f4 ff ff 	lea    -0xba0(%rbp),%rax
   14a02:	48 8d 15 37 87 00 00 	lea    0x8737(%rip),%rdx        # 1d140 <g_1542+0x10e3>
   14a09:	b9 6c 00 00 00       	mov    $0x6c,%ecx
   14a0e:	48 89 c7             	mov    %rax,%rdi
   14a11:	48 89 d6             	mov    %rdx,%rsi
   14a14:	f3 48 a5             	rep movsq %ds:(%rsi),%es:(%rdi)
   14a17:	c7 85 7c e8 ff ff 01 	movl   $0x1,-0x1784(%rbp)
   14a1e:	00 00 00 
   14a21:	c7 85 d0 eb ff ff fa 	movl   $0xfffffffa,-0x1430(%rbp)
   14a28:	ff ff ff 
   14a2b:	c7 85 d4 eb ff ff fa 	movl   $0xfffffffa,-0x142c(%rbp)
   14a32:	ff ff ff 
   14a35:	c7 85 d8 eb ff ff fa 	movl   $0xfffffffa,-0x1428(%rbp)
   14a3c:	ff ff ff 
   14a3f:	c7 85 dc eb ff ff fa 	movl   $0xfffffffa,-0x1424(%rbp)
   14a46:	ff ff ff 
   14a49:	c7 85 e0 eb ff ff fa 	movl   $0xfffffffa,-0x1420(%rbp)
   14a50:	ff ff ff 
   14a53:	c7 85 e4 eb ff ff fa 	movl   $0xfffffffa,-0x141c(%rbp)
   14a5a:	ff ff ff 
   14a5d:	c7 85 e8 eb ff ff fa 	movl   $0xfffffffa,-0x1418(%rbp)
   14a64:	ff ff ff 
   14a67:	c7 85 ec eb ff ff fa 	movl   $0xfffffffa,-0x1414(%rbp)
   14a6e:	ff ff ff 
   14a71:	c7 85 f0 eb ff ff fa 	movl   $0xfffffffa,-0x1410(%rbp)
   14a78:	ff ff ff 
   14a7b:	c7 85 f4 eb ff ff fa 	movl   $0xfffffffa,-0x140c(%rbp)
   14a82:	ff ff ff 
   14a85:	48 c7 85 58 e9 ff ff 	movq   $0x0,-0x16a8(%rbp)
   14a8c:	00 00 00 00 
   14a90:	48 8d 85 50 e9 ff ff 	lea    -0x16b0(%rbp),%rax
   14a97:	48 89 85 60 e9 ff ff 	mov    %rax,-0x16a0(%rbp)
   14a9e:	48 8d 05 83 f2 00 00 	lea    0xf283(%rip),%rax        # 23d28 <g_1660+0x28>
   14aa5:	48 89 85 d8 ea ff ff 	mov    %rax,-0x1528(%rbp)
   14aac:	48 8d 05 b5 ff 00 00 	lea    0xffb5(%rip),%rax        # 24a68 <g_546>
   14ab3:	48 89 85 e0 ea ff ff 	mov    %rax,-0x1520(%rbp)
   14aba:	c6 05 03 cb 00 00 00 	movb   $0x0,0xcb03(%rip)        # 215c4 <g_1457>
   14ac1:	e9 ab 00 00 00       	jmpq   14b71 <func_51+0x1684>
   14ac6:	c6 85 52 e8 ff ff 21 	movb   $0x21,-0x17ae(%rbp)
   14acd:	c7 85 f4 e8 ff ff b3 	movl   $0x25fab9b3,-0x170c(%rbp)
   14ad4:	b9 fa 25 
   14ad7:	c7 85 f8 e8 ff ff b2 	movl   $0x467e45b2,-0x1708(%rbp)
   14ade:	45 7e 46 
   14ae1:	c6 85 53 e8 ff ff e0 	movb   $0xe0,-0x17ad(%rbp)
   14ae8:	c6 85 54 e8 ff ff fb 	movb   $0xfb,-0x17ac(%rbp)
   14aef:	c7 85 fc e8 ff ff 00 	movl   $0x0,-0x1704(%rbp)
   14af6:	00 00 00 
   14af9:	48 8d 05 98 f1 00 00 	lea    0xf198(%rip),%rax        # 23c98 <g_1050>
   14b00:	48 89 85 18 eb ff ff 	mov    %rax,-0x14e8(%rbp)
   14b07:	48 8d 05 92 f1 00 00 	lea    0xf192(%rip),%rax        # 23ca0 <g_1051>
   14b0e:	48 89 85 20 eb ff ff 	mov    %rax,-0x14e0(%rbp)
   14b15:	48 c7 85 28 eb ff ff 	movq   $0x0,-0x14d8(%rbp)
   14b1c:	00 00 00 00 
   14b20:	c6 85 55 e8 ff ff 02 	movb   $0x2,-0x17ab(%rbp)
   14b27:	c7 85 8c e8 ff ff 00 	movl   $0x0,-0x1774(%rbp)
   14b2e:	00 00 00 
   14b31:	eb 25                	jmp    14b58 <func_51+0x166b>
   14b33:	8b 85 8c e8 ff ff    	mov    -0x1774(%rbp),%eax
   14b39:	48 98                	cltq   
   14b3b:	48 8d 95 60 f4 ff ff 	lea    -0xba0(%rbp),%rdx
   14b42:	48 81 c2 a8 02 00 00 	add    $0x2a8,%rdx
   14b49:	48 89 94 c5 40 f1 ff 	mov    %rdx,-0xec0(%rbp,%rax,8)
   14b50:	ff 
   14b51:	83 85 8c e8 ff ff 01 	addl   $0x1,-0x1774(%rbp)
   14b58:	83 bd 8c e8 ff ff 08 	cmpl   $0x8,-0x1774(%rbp)
   14b5f:	7e d2                	jle    14b33 <func_51+0x1646>
   14b61:	0f b6 05 5c ca 00 00 	movzbl 0xca5c(%rip),%eax        # 215c4 <g_1457>
   14b68:	83 c0 01             	add    $0x1,%eax
   14b6b:	88 05 53 ca 00 00    	mov    %al,0xca53(%rip)        # 215c4 <g_1457>
   14b71:	0f b6 05 4c ca 00 00 	movzbl 0xca4c(%rip),%eax        # 215c4 <g_1457>
   14b78:	3c 06                	cmp    $0x6,%al
   14b7a:	0f 8e 46 ff ff ff    	jle    14ac6 <func_51+0x15d9>
   14b80:	48 8b 85 98 e9 ff ff 	mov    -0x1668(%rbp),%rax
   14b87:	0f b7 00             	movzwl (%rax),%eax
   14b8a:	83 e0 01             	and    $0x1,%eax
   14b8d:	89 c2                	mov    %eax,%edx
   14b8f:	48 8b 85 98 e9 ff ff 	mov    -0x1668(%rbp),%rax
   14b96:	66 89 10             	mov    %dx,(%rax)
   14b99:	48 8b 85 98 e9 ff ff 	mov    -0x1668(%rbp),%rax
   14ba0:	0f b7 00             	movzwl (%rax),%eax
   14ba3:	0f b7 c0             	movzwl %ax,%eax
   14ba6:	89 c6                	mov    %eax,%esi
   14ba8:	bf 01 00 00 00       	mov    $0x1,%edi
   14bad:	e8 54 62 ff ff       	callq  ae06 <safe_lshift_func_uint16_t_u_u>
   14bb2:	89 c2                	mov    %eax,%edx
   14bb4:	48 8b 05 4d e0 00 00 	mov    0xe04d(%rip),%rax        # 22c08 <g_382>
   14bbb:	48 8b 00             	mov    (%rax),%rax
   14bbe:	0f b7 d2             	movzwl %dx,%edx
   14bc1:	89 10                	mov    %edx,(%rax)
   14bc3:	48 8b 05 26 e0 00 00 	mov    0xe026(%rip),%rax        # 22bf0 <g_320>
   14bca:	8b 18                	mov    (%rax),%ebx
   14bcc:	0f b7 85 56 e8 ff ff 	movzwl -0x17aa(%rbp),%eax
   14bd3:	66 85 c0             	test   %ax,%ax
   14bd6:	0f 84 d7 01 00 00    	je     14db3 <func_51+0x18c6>
   14bdc:	48 8b 05 bd f0 00 00 	mov    0xf0bd(%rip),%rax        # 23ca0 <g_1051>
   14be3:	4c 8b 20             	mov    (%rax),%r12
   14be6:	48 8b 05 33 e0 00 00 	mov    0xe033(%rip),%rax        # 22c20 <g_487>
   14bed:	0f b6 00             	movzbl (%rax),%eax
   14bf0:	44 0f be e8          	movsbl %al,%r13d
   14bf4:	48 8b 85 60 e9 ff ff 	mov    -0x16a0(%rbp),%rax
   14bfb:	48 b9 78 9b 84 80 2a 	movabs $0xdc9f592a80849b78,%rcx
   14c02:	59 9f dc 
   14c05:	48 89 08             	mov    %rcx,(%rax)
   14c08:	48 83 bd c0 e9 ff ff 	cmpq   $0x0,-0x1640(%rbp)
   14c0f:	00 
   14c10:	0f 85 bb 00 00 00    	jne    14cd1 <func_51+0x17e4>
   14c16:	48 8b 05 13 e0 00 00 	mov    0xe013(%rip),%rax        # 22c30 <g_566>
   14c1d:	0f b7 00             	movzwl (%rax),%eax
   14c20:	44 0f bf f0          	movswl %ax,%r14d
   14c24:	48 8b 85 50 e9 ff ff 	mov    -0x16b0(%rbp),%rax
   14c2b:	89 85 2c e8 ff ff    	mov    %eax,-0x17d4(%rbp)
   14c31:	0f b7 85 48 eb ff ff 	movzwl -0x14b8(%rbp),%eax
   14c38:	44 0f b7 f8          	movzwl %ax,%r15d
   14c3c:	48 8b 85 30 e8 ff ff 	mov    -0x17d0(%rbp),%rax
   14c43:	89 c1                	mov    %eax,%ecx
   14c45:	48 8b 15 dc f0 00 00 	mov    0xf0dc(%rip),%rdx        # 23d28 <g_1660+0x28>
   14c4c:	48 8b 85 d8 ea ff ff 	mov    -0x1528(%rbp),%rax
   14c53:	48 89 10             	mov    %rdx,(%rax)
   14c56:	48 8b 85 d8 ea ff ff 	mov    -0x1528(%rbp),%rax
   14c5d:	48 8b 00             	mov    (%rax),%rax
   14c60:	48 8d 95 c0 f7 ff ff 	lea    -0x840(%rbp),%rdx
   14c67:	48 81 c2 58 02 00 00 	add    $0x258,%rdx
   14c6e:	48 39 d0             	cmp    %rdx,%rax
   14c71:	0f 95 c0             	setne  %al
   14c74:	0f b6 c0             	movzbl %al,%eax
   14c77:	89 ce                	mov    %ecx,%esi
   14c79:	89 c7                	mov    %eax,%edi
   14c7b:	e8 3e 60 ff ff       	callq  acbe <safe_rshift_func_uint8_t_u_u>
   14c80:	48 8b 05 19 f0 00 00 	mov    0xf019(%rip),%rax        # 23ca0 <g_1051>
   14c87:	48 8b 00             	mov    (%rax),%rax
   14c8a:	89 c2                	mov    %eax,%edx
   14c8c:	0f b7 85 58 e8 ff ff 	movzwl -0x17a8(%rbp),%eax
   14c93:	98                   	cwtl   
   14c94:	31 d0                	xor    %edx,%eax
   14c96:	44 89 fe             	mov    %r15d,%esi
   14c99:	89 c7                	mov    %eax,%edi
   14c9b:	e8 16 59 ff ff       	callq  a5b6 <safe_add_func_int32_t_s_s>
   14ca0:	8b b5 2c e8 ff ff    	mov    -0x17d4(%rbp),%esi
   14ca6:	89 c7                	mov    %eax,%edi
   14ca8:	e8 78 62 ff ff       	callq  af25 <safe_div_func_uint32_t_u_u>
   14cad:	48 8b 85 20 e9 ff ff 	mov    -0x16e0(%rbp),%rax
   14cb4:	be 00 00 00 00       	mov    $0x0,%esi
   14cb9:	48 89 c7             	mov    %rax,%rdi
   14cbc:	e8 e7 5b ff ff       	callq  a8a8 <safe_sub_func_int64_t_s_s>
   14cc1:	98                   	cwtl   
   14cc2:	44 89 f6             	mov    %r14d,%esi
   14cc5:	89 c7                	mov    %eax,%edi
   14cc7:	e8 89 57 ff ff       	callq  a455 <safe_div_func_int16_t_s_s>
   14ccc:	66 85 c0             	test   %ax,%ax
   14ccf:	74 07                	je     14cd8 <func_51+0x17eb>
   14cd1:	ba 01 00 00 00       	mov    $0x1,%edx
   14cd6:	eb 05                	jmp    14cdd <func_51+0x17f0>
   14cd8:	ba 00 00 00 00       	mov    $0x0,%edx
   14cdd:	48 8b 85 18 ea ff ff 	mov    -0x15e8(%rbp),%rax
   14ce4:	8b 00                	mov    (%rax),%eax
   14ce6:	39 c2                	cmp    %eax,%edx
   14ce8:	0f 94 c0             	sete   %al
   14ceb:	0f b6 d0             	movzbl %al,%edx
   14cee:	48 8b 85 c0 e9 ff ff 	mov    -0x1640(%rbp),%rax
   14cf5:	48 8b 00             	mov    (%rax),%rax
   14cf8:	8b 00                	mov    (%rax),%eax
   14cfa:	21 d0                	and    %edx,%eax
   14cfc:	48 98                	cltq   
   14cfe:	48 89 c7             	mov    %rax,%rdi
   14d01:	e8 13 63 ff ff       	callq  b019 <safe_unary_minus_func_uint64_t_u>
   14d06:	48 85 c0             	test   %rax,%rax
   14d09:	75 0a                	jne    14d15 <func_51+0x1828>
   14d0b:	48 83 bd 30 e8 ff ff 	cmpq   $0x0,-0x17d0(%rbp)
   14d12:	00 
   14d13:	74 07                	je     14d1c <func_51+0x182f>
   14d15:	b8 01 00 00 00       	mov    $0x1,%eax
   14d1a:	eb 05                	jmp    14d21 <func_51+0x1834>
   14d1c:	b8 00 00 00 00       	mov    $0x0,%eax
   14d21:	0f b6 c0             	movzbl %al,%eax
   14d24:	be 04 00 00 00       	mov    $0x4,%esi
   14d29:	89 c7                	mov    %eax,%edi
   14d2b:	e8 5d 5f ff ff       	callq  ac8d <safe_rshift_func_uint8_t_u_s>
   14d30:	48 8b 85 a8 e9 ff ff 	mov    -0x1658(%rbp),%rax
   14d37:	0f b7 00             	movzwl (%rax),%eax
   14d3a:	8d 50 01             	lea    0x1(%rax),%edx
   14d3d:	48 8b 85 a8 e9 ff ff 	mov    -0x1658(%rbp),%rax
   14d44:	66 89 10             	mov    %dx,(%rax)
   14d47:	0f b7 85 58 e8 ff ff 	movzwl -0x17a8(%rbp),%eax
   14d4e:	66 83 f8 01          	cmp    $0x1,%ax
   14d52:	48 8b 05 3f ef 00 00 	mov    0xef3f(%rip),%rax        # 23c98 <g_1050>
   14d59:	48 8b 00             	mov    (%rax),%rax
   14d5c:	48 85 c0             	test   %rax,%rax
   14d5f:	0f 94 c0             	sete   %al
   14d62:	0f b6 d0             	movzbl %al,%edx
   14d65:	0f b6 05 f0 c8 00 00 	movzbl 0xc8f0(%rip),%eax        # 2165c <g_1664+0x1c>
   14d6c:	48 0f be c0          	movsbq %al,%rax
   14d70:	48 39 85 30 e8 ff ff 	cmp    %rax,-0x17d0(%rbp)
   14d77:	0f 95 c0             	setne  %al
   14d7a:	0f b6 c0             	movzbl %al,%eax
   14d7d:	39 c2                	cmp    %eax,%edx
   14d7f:	0f 9e c0             	setle  %al
   14d82:	0f b6 c0             	movzbl %al,%eax
   14d85:	44 89 ee             	mov    %r13d,%esi
   14d88:	89 c7                	mov    %eax,%edi
   14d8a:	e8 83 54 ff ff       	callq  a212 <safe_mul_func_int8_t_s_s>
   14d8f:	0f b6 c0             	movzbl %al,%eax
   14d92:	be ff 00 00 00       	mov    $0xff,%esi
   14d97:	89 c7                	mov    %eax,%edi
   14d99:	e8 f5 5d ff ff       	callq  ab93 <safe_mul_func_uint8_t_u_u>
   14d9e:	0f b6 c0             	movzbl %al,%eax
   14da1:	4c 89 e6             	mov    %r12,%rsi
   14da4:	48 89 c7             	mov    %rax,%rdi
   14da7:	e8 9f 62 ff ff       	callq  b04b <safe_sub_func_uint64_t_u_u>
   14dac:	ba 01 00 00 00       	mov    $0x1,%edx
   14db1:	eb 05                	jmp    14db8 <func_51+0x18cb>
   14db3:	ba 00 00 00 00       	mov    $0x0,%edx
   14db8:	8b 85 d0 eb ff ff    	mov    -0x1430(%rbp),%eax
   14dbe:	39 c2                	cmp    %eax,%edx
   14dc0:	0f 9c c0             	setl   %al
   14dc3:	0f b6 c0             	movzbl %al,%eax
   14dc6:	48 39 85 30 e8 ff ff 	cmp    %rax,-0x17d0(%rbp)
   14dcd:	0f 9e c0             	setle  %al
   14dd0:	0f b6 c0             	movzbl %al,%eax
   14dd3:	89 de                	mov    %ebx,%esi
   14dd5:	89 c7                	mov    %eax,%edi
   14dd7:	e8 f0 58 ff ff       	callq  a6cc <safe_mod_func_int32_t_s_s>
   14ddc:	48 8b 95 c0 e9 ff ff 	mov    -0x1640(%rbp),%rdx
   14de3:	48 8b 12             	mov    (%rdx),%rdx
   14de6:	8b 12                	mov    (%rdx),%edx
   14de8:	09 d0                	or     %edx,%eax
   14dea:	48 98                	cltq   
   14dec:	48 39 85 30 e8 ff ff 	cmp    %rax,-0x17d0(%rbp)
   14df3:	0f 9c c0             	setl   %al
   14df6:	0f b6 c0             	movzbl %al,%eax
   14df9:	89 c6                	mov    %eax,%esi
   14dfb:	bf 07 00 00 00       	mov    $0x7,%edi
   14e00:	e8 73 5d ff ff       	callq  ab78 <safe_sub_func_uint8_t_u_u>
   14e05:	84 c0                	test   %al,%al
   14e07:	0f 84 f4 01 00 00    	je     15001 <func_51+0x1b14>
   14e0d:	48 8d 85 38 e9 ff ff 	lea    -0x16c8(%rbp),%rax
   14e14:	48 89 85 08 eb ff ff 	mov    %rax,-0x14f8(%rbp)
   14e1b:	c7 85 e8 e8 ff ff 3a 	movl   $0x411aa63a,-0x1718(%rbp)
   14e22:	a6 1a 41 
   14e25:	c7 85 ec e8 ff ff 4c 	movl   $0x4527cb4c,-0x1714(%rbp)
   14e2c:	cb 27 45 
   14e2f:	48 8d 05 90 c7 00 00 	lea    0xc790(%rip),%rax        # 215c6 <g_1489>
   14e36:	48 89 85 10 eb ff ff 	mov    %rax,-0x14f0(%rbp)
   14e3d:	c7 85 90 e8 ff ff 00 	movl   $0x0,-0x1770(%rbp)
   14e44:	00 00 00 
   14e47:	eb 19                	jmp    14e62 <func_51+0x1975>
   14e49:	8b 85 90 e8 ff ff    	mov    -0x1770(%rbp),%eax
   14e4f:	48 98                	cltq   
   14e51:	66 c7 84 45 40 f1 ff 	movw   $0x8dbe,-0xec0(%rbp,%rax,2)
   14e58:	ff be 8d 
   14e5b:	83 85 90 e8 ff ff 01 	addl   $0x1,-0x1770(%rbp)
   14e62:	83 bd 90 e8 ff ff 05 	cmpl   $0x5,-0x1770(%rbp)
   14e69:	7e de                	jle    14e49 <func_51+0x195c>
   14e6b:	48 83 bd 30 e8 ff ff 	cmpq   $0x0,-0x17d0(%rbp)
   14e72:	00 
   14e73:	0f 84 d1 00 00 00    	je     14f4a <func_51+0x1a5d>
   14e79:	48 8b 85 18 ea ff ff 	mov    -0x15e8(%rbp),%rax
   14e80:	8b 00                	mov    (%rax),%eax
   14e82:	0f b6 d8             	movzbl %al,%ebx
   14e85:	48 8b 85 18 ea ff ff 	mov    -0x15e8(%rbp),%rax
   14e8c:	8b 00                	mov    (%rax),%eax
   14e8e:	0f be d0             	movsbl %al,%edx
   14e91:	48 8b 85 30 e8 ff ff 	mov    -0x17d0(%rbp),%rax
   14e98:	0f be c0             	movsbl %al,%eax
   14e9b:	89 d6                	mov    %edx,%esi
   14e9d:	89 c7                	mov    %eax,%edi
   14e9f:	e8 30 53 ff ff       	callq  a1d4 <safe_add_func_int8_t_s_s>
   14ea4:	48 8b 95 38 e9 ff ff 	mov    -0x16c8(%rbp),%rdx
   14eab:	48 8b 85 08 eb ff ff 	mov    -0x14f8(%rbp),%rax
   14eb2:	48 89 10             	mov    %rdx,(%rax)
   14eb5:	48 8b 85 08 eb ff ff 	mov    -0x14f8(%rbp),%rax
   14ebc:	48 8b 00             	mov    (%rax),%rax
   14ebf:	48 39 85 c8 e9 ff ff 	cmp    %rax,-0x1638(%rbp)
   14ec6:	0f 95 c2             	setne  %dl
   14ec9:	48 8b 85 60 e9 ff ff 	mov    -0x16a0(%rbp),%rax
   14ed0:	0f b6 d2             	movzbl %dl,%edx
   14ed3:	48 89 10             	mov    %rdx,(%rax)
   14ed6:	48 8b 00             	mov    (%rax),%rax
   14ed9:	48 21 85 38 e8 ff ff 	and    %rax,-0x17c8(%rbp)
   14ee0:	48 8b 85 38 e8 ff ff 	mov    -0x17c8(%rbp),%rax
   14ee7:	83 c8 01             	or     $0x1,%eax
   14eea:	0f b6 c0             	movzbl %al,%eax
   14eed:	89 de                	mov    %ebx,%esi
   14eef:	89 c7                	mov    %eax,%edi
   14ef1:	e8 9d 5c ff ff       	callq  ab93 <safe_mul_func_uint8_t_u_u>
   14ef6:	0f b6 c0             	movzbl %al,%eax
   14ef9:	25 07 83 00 00       	and    $0x8307,%eax
   14efe:	48 89 85 30 e8 ff ff 	mov    %rax,-0x17d0(%rbp)
   14f05:	48 8b 85 30 e8 ff ff 	mov    -0x17d0(%rbp),%rax
   14f0c:	48 89 c6             	mov    %rax,%rsi
   14f0f:	48 bf 56 2f ed 48 80 	movabs $0xf17db98048ed2f56,%rdi
   14f16:	b9 7d f1 
   14f19:	e8 96 5a ff ff       	callq  a9b4 <safe_mod_func_int64_t_s_s>
   14f1e:	48 85 c0             	test   %rax,%rax
   14f21:	74 27                	je     14f4a <func_51+0x1a5d>
   14f23:	c6 85 51 e8 ff ff 8f 	movb   $0x8f,-0x17af(%rbp)
   14f2a:	48 8b 85 18 ea ff ff 	mov    -0x15e8(%rbp),%rax
   14f31:	8b 10                	mov    (%rax),%edx
   14f33:	0f b6 85 51 e8 ff ff 	movzbl -0x17af(%rbp),%eax
   14f3a:	09 c2                	or     %eax,%edx
   14f3c:	48 8b 85 18 ea ff ff 	mov    -0x15e8(%rbp),%rax
   14f43:	89 10                	mov    %edx,(%rax)
   14f45:	e9 15 1e 00 00       	jmpq   16d5f <func_51+0x3872>
   14f4a:	c7 85 f0 e8 ff ff 00 	movl   $0x0,-0x1710(%rbp)
   14f51:	00 00 00 
   14f54:	83 bd f0 e8 ff ff 00 	cmpl   $0x0,-0x1710(%rbp)
   14f5b:	75 62                	jne    14fbf <func_51+0x1ad2>
   14f5d:	48 8b 05 9c dc 00 00 	mov    0xdc9c(%rip),%rax        # 22c00 <g_376>
   14f64:	8b 00                	mov    (%rax),%eax
   14f66:	85 c0                	test   %eax,%eax
   14f68:	0f 9e c0             	setle  %al
   14f6b:	0f b6 d8             	movzbl %al,%ebx
   14f6e:	48 8d 05 fb ea 00 00 	lea    0xeafb(%rip),%rax        # 23a70 <g_872+0x450>
   14f75:	48 39 85 d0 e9 ff ff 	cmp    %rax,-0x1630(%rbp)
   14f7c:	0f 94 c0             	sete   %al
   14f7f:	0f b6 c0             	movzbl %al,%eax
   14f82:	89 c7                	mov    %eax,%edi
   14f84:	e8 1d 5f ff ff       	callq  aea6 <safe_unary_minus_func_uint32_t_u>
   14f89:	0f b7 85 42 f1 ff ff 	movzwl -0xebe(%rbp),%eax
   14f90:	0f b7 c0             	movzwl %ax,%eax
   14f93:	39 85 e8 e8 ff ff    	cmp    %eax,-0x1718(%rbp)
   14f99:	0f 94 c0             	sete   %al
   14f9c:	0f b6 c0             	movzbl %al,%eax
   14f9f:	89 de                	mov    %ebx,%esi
   14fa1:	89 c7                	mov    %eax,%edi
   14fa3:	e8 10 5f ff ff       	callq  aeb8 <safe_add_func_uint32_t_u_u>
   14fa8:	8b 95 ec e8 ff ff    	mov    -0x1714(%rbp),%edx
   14fae:	31 d0                	xor    %edx,%eax
   14fb0:	89 85 ec e8 ff ff    	mov    %eax,-0x1714(%rbp)
   14fb6:	83 bd ec e8 ff ff 00 	cmpl   $0x0,-0x1714(%rbp)
   14fbd:	74 07                	je     14fc6 <func_51+0x1ad9>
   14fbf:	bb 01 00 00 00       	mov    $0x1,%ebx
   14fc4:	eb 05                	jmp    14fcb <func_51+0x1ade>
   14fc6:	bb 00 00 00 00       	mov    $0x0,%ebx
   14fcb:	0f b7 85 44 eb ff ff 	movzwl -0x14bc(%rbp),%eax
   14fd2:	0f b7 c0             	movzwl %ax,%eax
   14fd5:	be e4 52 41 24       	mov    $0x244152e4,%esi
   14fda:	89 c7                	mov    %eax,%edi
   14fdc:	e8 1e 57 ff ff       	callq  a6ff <safe_div_func_int32_t_s_s>
   14fe1:	39 c3                	cmp    %eax,%ebx
   14fe3:	0f 9d c2             	setge  %dl
   14fe6:	48 8b 85 c0 e9 ff ff 	mov    -0x1640(%rbp),%rax
   14fed:	48 8b 00             	mov    (%rax),%rax
   14ff0:	0f b6 d2             	movzbl %dl,%edx
   14ff3:	89 10                	mov    %edx,(%rax)
   14ff5:	48 8b 85 10 eb ff ff 	mov    -0x14f0(%rbp),%rax
   14ffc:	e9 e6 29 00 00       	jmpq   179e7 <func_51+0x44fa>
   15001:	48 8d 05 be c5 00 00 	lea    0xc5be(%rip),%rax        # 215c6 <g_1489>
   15008:	48 89 85 68 e9 ff ff 	mov    %rax,-0x1698(%rbp)
   1500f:	48 c7 85 40 ec ff ff 	movq   $0x0,-0x13c0(%rbp)
   15016:	00 00 00 00 
   1501a:	48 c7 85 48 ec ff ff 	movq   $0x0,-0x13b8(%rbp)
   15021:	00 00 00 00 
   15025:	48 8d 85 68 e9 ff ff 	lea    -0x1698(%rbp),%rax
   1502c:	48 89 85 50 ec ff ff 	mov    %rax,-0x13b0(%rbp)
   15033:	48 c7 85 58 ec ff ff 	movq   $0x0,-0x13a8(%rbp)
   1503a:	00 00 00 00 
   1503e:	48 c7 85 60 ec ff ff 	movq   $0x0,-0x13a0(%rbp)
   15045:	00 00 00 00 
   15049:	48 8d 85 68 e9 ff ff 	lea    -0x1698(%rbp),%rax
   15050:	48 89 85 68 ec ff ff 	mov    %rax,-0x1398(%rbp)
   15057:	48 c7 85 70 ec ff ff 	movq   $0x0,-0x1390(%rbp)
   1505e:	00 00 00 00 
   15062:	48 c7 85 78 ec ff ff 	movq   $0x0,-0x1388(%rbp)
   15069:	00 00 00 00 
   1506d:	48 8d 85 68 e9 ff ff 	lea    -0x1698(%rbp),%rax
   15074:	48 89 85 80 ec ff ff 	mov    %rax,-0x1380(%rbp)
   1507b:	48 8d 85 40 ec ff ff 	lea    -0x13c0(%rbp),%rax
   15082:	48 83 c0 38          	add    $0x38,%rax
   15086:	48 89 85 00 ef ff ff 	mov    %rax,-0x1100(%rbp)
   1508d:	48 8d 85 40 ec ff ff 	lea    -0x13c0(%rbp),%rax
   15094:	48 83 c0 28          	add    $0x28,%rax
   15098:	48 89 85 08 ef ff ff 	mov    %rax,-0x10f8(%rbp)
   1509f:	48 c7 85 10 ef ff ff 	movq   $0x0,-0x10f0(%rbp)
   150a6:	00 00 00 00 
   150aa:	48 8d 85 40 ec ff ff 	lea    -0x13c0(%rbp),%rax
   150b1:	48 83 c0 28          	add    $0x28,%rax
   150b5:	48 89 85 18 ef ff ff 	mov    %rax,-0x10e8(%rbp)
   150bc:	48 8d 85 40 ec ff ff 	lea    -0x13c0(%rbp),%rax
   150c3:	48 83 c0 38          	add    $0x38,%rax
   150c7:	48 89 85 20 ef ff ff 	mov    %rax,-0x10e0(%rbp)
   150ce:	48 c7 85 28 ef ff ff 	movq   $0x0,-0x10d8(%rbp)
   150d5:	00 00 00 00 
   150d9:	48 8d 85 40 ec ff ff 	lea    -0x13c0(%rbp),%rax
   150e0:	48 83 c0 28          	add    $0x28,%rax
   150e4:	48 89 85 30 ef ff ff 	mov    %rax,-0x10d0(%rbp)
   150eb:	48 8d 85 40 ec ff ff 	lea    -0x13c0(%rbp),%rax
   150f2:	48 83 c0 28          	add    $0x28,%rax
   150f6:	48 89 85 38 ef ff ff 	mov    %rax,-0x10c8(%rbp)
   150fd:	48 c7 85 40 ef ff ff 	movq   $0x0,-0x10c0(%rbp)
   15104:	00 00 00 00 
   15108:	48 8d 85 40 ec ff ff 	lea    -0x13c0(%rbp),%rax
   1510f:	48 83 c0 30          	add    $0x30,%rax
   15113:	48 89 85 48 ef ff ff 	mov    %rax,-0x10b8(%rbp)
   1511a:	48 8d 85 40 ec ff ff 	lea    -0x13c0(%rbp),%rax
   15121:	48 83 c0 28          	add    $0x28,%rax
   15125:	48 89 85 50 ef ff ff 	mov    %rax,-0x10b0(%rbp)
   1512c:	48 8d 85 40 ec ff ff 	lea    -0x13c0(%rbp),%rax
   15133:	48 83 c0 40          	add    $0x40,%rax
   15137:	48 89 85 58 ef ff ff 	mov    %rax,-0x10a8(%rbp)
   1513e:	48 8d 85 40 ec ff ff 	lea    -0x13c0(%rbp),%rax
   15145:	48 83 c0 28          	add    $0x28,%rax
   15149:	48 89 85 60 ef ff ff 	mov    %rax,-0x10a0(%rbp)
   15150:	48 8d 85 40 ec ff ff 	lea    -0x13c0(%rbp),%rax
   15157:	48 83 c0 30          	add    $0x30,%rax
   1515b:	48 89 85 68 ef ff ff 	mov    %rax,-0x1098(%rbp)
   15162:	48 8d 85 40 ec ff ff 	lea    -0x13c0(%rbp),%rax
   15169:	48 83 c0 28          	add    $0x28,%rax
   1516d:	48 89 85 70 ef ff ff 	mov    %rax,-0x1090(%rbp)
   15174:	48 8d 85 40 ec ff ff 	lea    -0x13c0(%rbp),%rax
   1517b:	48 83 c0 28          	add    $0x28,%rax
   1517f:	48 89 85 78 ef ff ff 	mov    %rax,-0x1088(%rbp)
   15186:	48 8d 85 40 ec ff ff 	lea    -0x13c0(%rbp),%rax
   1518d:	48 83 c0 40          	add    $0x40,%rax
   15191:	48 89 85 80 ef ff ff 	mov    %rax,-0x1080(%rbp)
   15198:	48 8d 85 40 ec ff ff 	lea    -0x13c0(%rbp),%rax
   1519f:	48 83 c0 40          	add    $0x40,%rax
   151a3:	48 89 85 88 ef ff ff 	mov    %rax,-0x1078(%rbp)
   151aa:	48 8d 85 40 ec ff ff 	lea    -0x13c0(%rbp),%rax
   151b1:	48 83 c0 38          	add    $0x38,%rax
   151b5:	48 89 85 90 ef ff ff 	mov    %rax,-0x1070(%rbp)
   151bc:	48 8d 85 40 ec ff ff 	lea    -0x13c0(%rbp),%rax
   151c3:	48 83 c0 28          	add    $0x28,%rax
   151c7:	48 89 85 98 ef ff ff 	mov    %rax,-0x1068(%rbp)
   151ce:	48 c7 85 a0 ef ff ff 	movq   $0x0,-0x1060(%rbp)
   151d5:	00 00 00 00 
   151d9:	48 8d 85 40 ec ff ff 	lea    -0x13c0(%rbp),%rax
   151e0:	48 83 c0 28          	add    $0x28,%rax
   151e4:	48 89 85 a8 ef ff ff 	mov    %rax,-0x1058(%rbp)
   151eb:	48 8d 85 40 ec ff ff 	lea    -0x13c0(%rbp),%rax
   151f2:	48 83 c0 38          	add    $0x38,%rax
   151f6:	48 89 85 b0 ef ff ff 	mov    %rax,-0x1050(%rbp)
   151fd:	48 c7 85 b8 ef ff ff 	movq   $0x0,-0x1048(%rbp)
   15204:	00 00 00 00 
   15208:	48 8d 85 40 ec ff ff 	lea    -0x13c0(%rbp),%rax
   1520f:	48 83 c0 28          	add    $0x28,%rax
   15213:	48 89 85 c0 ef ff ff 	mov    %rax,-0x1040(%rbp)
   1521a:	48 8d 85 40 ec ff ff 	lea    -0x13c0(%rbp),%rax
   15221:	48 83 c0 28          	add    $0x28,%rax
   15225:	48 89 85 c8 ef ff ff 	mov    %rax,-0x1038(%rbp)
   1522c:	48 c7 85 d0 ef ff ff 	movq   $0x0,-0x1030(%rbp)
   15233:	00 00 00 00 
   15237:	48 8d 85 40 ec ff ff 	lea    -0x13c0(%rbp),%rax
   1523e:	48 83 c0 30          	add    $0x30,%rax
   15242:	48 89 85 d8 ef ff ff 	mov    %rax,-0x1028(%rbp)
   15249:	48 8d 85 40 ec ff ff 	lea    -0x13c0(%rbp),%rax
   15250:	48 83 c0 28          	add    $0x28,%rax
   15254:	48 89 85 e0 ef ff ff 	mov    %rax,-0x1020(%rbp)
   1525b:	48 8d 85 40 ec ff ff 	lea    -0x13c0(%rbp),%rax
   15262:	48 83 c0 40          	add    $0x40,%rax
   15266:	48 89 85 e8 ef ff ff 	mov    %rax,-0x1018(%rbp)
   1526d:	48 8d 85 40 ec ff ff 	lea    -0x13c0(%rbp),%rax
   15274:	48 83 c0 28          	add    $0x28,%rax
   15278:	48 89 85 f0 ef ff ff 	mov    %rax,-0x1010(%rbp)
   1527f:	48 8d 85 40 ec ff ff 	lea    -0x13c0(%rbp),%rax
   15286:	48 83 c0 30          	add    $0x30,%rax
   1528a:	48 89 85 f8 ef ff ff 	mov    %rax,-0x1008(%rbp)
   15291:	48 8d 85 40 ec ff ff 	lea    -0x13c0(%rbp),%rax
   15298:	48 83 c0 28          	add    $0x28,%rax
   1529c:	48 89 85 00 f0 ff ff 	mov    %rax,-0x1000(%rbp)
   152a3:	48 8d 85 40 ec ff ff 	lea    -0x13c0(%rbp),%rax
   152aa:	48 83 c0 28          	add    $0x28,%rax
   152ae:	48 89 85 08 f0 ff ff 	mov    %rax,-0xff8(%rbp)
   152b5:	48 8d 85 40 ec ff ff 	lea    -0x13c0(%rbp),%rax
   152bc:	48 83 c0 40          	add    $0x40,%rax
   152c0:	48 89 85 10 f0 ff ff 	mov    %rax,-0xff0(%rbp)
   152c7:	48 8d 85 40 ec ff ff 	lea    -0x13c0(%rbp),%rax
   152ce:	48 83 c0 40          	add    $0x40,%rax
   152d2:	48 89 85 18 f0 ff ff 	mov    %rax,-0xfe8(%rbp)
   152d9:	48 8d 85 40 ec ff ff 	lea    -0x13c0(%rbp),%rax
   152e0:	48 83 c0 38          	add    $0x38,%rax
   152e4:	48 89 85 20 f0 ff ff 	mov    %rax,-0xfe0(%rbp)
   152eb:	48 8d 85 40 ec ff ff 	lea    -0x13c0(%rbp),%rax
   152f2:	48 83 c0 28          	add    $0x28,%rax
   152f6:	48 89 85 28 f0 ff ff 	mov    %rax,-0xfd8(%rbp)
   152fd:	48 c7 85 30 f0 ff ff 	movq   $0x0,-0xfd0(%rbp)
   15304:	00 00 00 00 
   15308:	48 8d 85 40 ec ff ff 	lea    -0x13c0(%rbp),%rax
   1530f:	48 83 c0 28          	add    $0x28,%rax
   15313:	48 89 85 38 f0 ff ff 	mov    %rax,-0xfc8(%rbp)
   1531a:	48 8d 85 40 ec ff ff 	lea    -0x13c0(%rbp),%rax
   15321:	48 83 c0 38          	add    $0x38,%rax
   15325:	48 89 85 40 f0 ff ff 	mov    %rax,-0xfc0(%rbp)
   1532c:	48 c7 85 48 f0 ff ff 	movq   $0x0,-0xfb8(%rbp)
   15333:	00 00 00 00 
   15337:	48 8d 85 40 ec ff ff 	lea    -0x13c0(%rbp),%rax
   1533e:	48 83 c0 28          	add    $0x28,%rax
   15342:	48 89 85 50 f0 ff ff 	mov    %rax,-0xfb0(%rbp)
   15349:	48 8d 85 40 ec ff ff 	lea    -0x13c0(%rbp),%rax
   15350:	48 83 c0 28          	add    $0x28,%rax
   15354:	48 89 85 58 f0 ff ff 	mov    %rax,-0xfa8(%rbp)
   1535b:	48 c7 85 60 f0 ff ff 	movq   $0x0,-0xfa0(%rbp)
   15362:	00 00 00 00 
   15366:	48 8d 85 40 ec ff ff 	lea    -0x13c0(%rbp),%rax
   1536d:	48 83 c0 30          	add    $0x30,%rax
   15371:	48 89 85 68 f0 ff ff 	mov    %rax,-0xf98(%rbp)
   15378:	48 8d 85 40 ec ff ff 	lea    -0x13c0(%rbp),%rax
   1537f:	48 83 c0 28          	add    $0x28,%rax
   15383:	48 89 85 70 f0 ff ff 	mov    %rax,-0xf90(%rbp)
   1538a:	48 8d 85 40 ec ff ff 	lea    -0x13c0(%rbp),%rax
   15391:	48 83 c0 40          	add    $0x40,%rax
   15395:	48 89 85 78 f0 ff ff 	mov    %rax,-0xf88(%rbp)
   1539c:	48 8d 85 40 ec ff ff 	lea    -0x13c0(%rbp),%rax
   153a3:	48 83 c0 28          	add    $0x28,%rax
   153a7:	48 89 85 80 f0 ff ff 	mov    %rax,-0xf80(%rbp)
   153ae:	48 8d 85 40 ec ff ff 	lea    -0x13c0(%rbp),%rax
   153b5:	48 83 c0 30          	add    $0x30,%rax
   153b9:	48 89 85 88 f0 ff ff 	mov    %rax,-0xf78(%rbp)
   153c0:	48 8d 85 40 ec ff ff 	lea    -0x13c0(%rbp),%rax
   153c7:	48 83 c0 28          	add    $0x28,%rax
   153cb:	48 89 85 90 f0 ff ff 	mov    %rax,-0xf70(%rbp)
   153d2:	48 8d 85 40 ec ff ff 	lea    -0x13c0(%rbp),%rax
   153d9:	48 83 c0 28          	add    $0x28,%rax
   153dd:	48 89 85 98 f0 ff ff 	mov    %rax,-0xf68(%rbp)
   153e4:	48 8d 85 40 ec ff ff 	lea    -0x13c0(%rbp),%rax
   153eb:	48 83 c0 40          	add    $0x40,%rax
   153ef:	48 89 85 a0 f0 ff ff 	mov    %rax,-0xf60(%rbp)
   153f6:	48 8d 85 40 ec ff ff 	lea    -0x13c0(%rbp),%rax
   153fd:	48 83 c0 40          	add    $0x40,%rax
   15401:	48 89 85 a8 f0 ff ff 	mov    %rax,-0xf58(%rbp)
   15408:	48 8d 85 40 ec ff ff 	lea    -0x13c0(%rbp),%rax
   1540f:	48 83 c0 38          	add    $0x38,%rax
   15413:	48 89 85 b0 f0 ff ff 	mov    %rax,-0xf50(%rbp)
   1541a:	48 8d 85 40 ec ff ff 	lea    -0x13c0(%rbp),%rax
   15421:	48 83 c0 28          	add    $0x28,%rax
   15425:	48 89 85 b8 f0 ff ff 	mov    %rax,-0xf48(%rbp)
   1542c:	48 c7 85 c0 f0 ff ff 	movq   $0x0,-0xf40(%rbp)
   15433:	00 00 00 00 
   15437:	48 8d 85 40 ec ff ff 	lea    -0x13c0(%rbp),%rax
   1543e:	48 83 c0 28          	add    $0x28,%rax
   15442:	48 89 85 c8 f0 ff ff 	mov    %rax,-0xf38(%rbp)
   15449:	48 8d 85 40 ec ff ff 	lea    -0x13c0(%rbp),%rax
   15450:	48 83 c0 38          	add    $0x38,%rax
   15454:	48 89 85 d0 f0 ff ff 	mov    %rax,-0xf30(%rbp)
   1545b:	48 c7 85 d8 f0 ff ff 	movq   $0x0,-0xf28(%rbp)
   15462:	00 00 00 00 
   15466:	48 8d 85 40 ec ff ff 	lea    -0x13c0(%rbp),%rax
   1546d:	48 83 c0 28          	add    $0x28,%rax
   15471:	48 89 85 e0 f0 ff ff 	mov    %rax,-0xf20(%rbp)
   15478:	48 8d 85 40 ec ff ff 	lea    -0x13c0(%rbp),%rax
   1547f:	48 83 c0 28          	add    $0x28,%rax
   15483:	48 89 85 e8 f0 ff ff 	mov    %rax,-0xf18(%rbp)
   1548a:	48 c7 85 f0 f0 ff ff 	movq   $0x0,-0xf10(%rbp)
   15491:	00 00 00 00 
   15495:	48 8d 85 40 ec ff ff 	lea    -0x13c0(%rbp),%rax
   1549c:	48 83 c0 30          	add    $0x30,%rax
   154a0:	48 89 85 f8 f0 ff ff 	mov    %rax,-0xf08(%rbp)
   154a7:	48 8d 85 40 ec ff ff 	lea    -0x13c0(%rbp),%rax
   154ae:	48 83 c0 28          	add    $0x28,%rax
   154b2:	48 89 85 00 f1 ff ff 	mov    %rax,-0xf00(%rbp)
   154b9:	48 8d 85 40 ec ff ff 	lea    -0x13c0(%rbp),%rax
   154c0:	48 83 c0 40          	add    $0x40,%rax
   154c4:	48 89 85 08 f1 ff ff 	mov    %rax,-0xef8(%rbp)
   154cb:	48 8d 85 40 ec ff ff 	lea    -0x13c0(%rbp),%rax
   154d2:	48 83 c0 28          	add    $0x28,%rax
   154d6:	48 89 85 10 f1 ff ff 	mov    %rax,-0xef0(%rbp)
   154dd:	48 8d 85 40 ec ff ff 	lea    -0x13c0(%rbp),%rax
   154e4:	48 83 c0 30          	add    $0x30,%rax
   154e8:	48 89 85 18 f1 ff ff 	mov    %rax,-0xee8(%rbp)
   154ef:	48 8d 85 40 ec ff ff 	lea    -0x13c0(%rbp),%rax
   154f6:	48 83 c0 28          	add    $0x28,%rax
   154fa:	48 89 85 20 f1 ff ff 	mov    %rax,-0xee0(%rbp)
   15501:	48 8d 85 40 ec ff ff 	lea    -0x13c0(%rbp),%rax
   15508:	48 83 c0 28          	add    $0x28,%rax
   1550c:	48 89 85 28 f1 ff ff 	mov    %rax,-0xed8(%rbp)
   15513:	48 8d 85 40 ec ff ff 	lea    -0x13c0(%rbp),%rax
   1551a:	48 83 c0 40          	add    $0x40,%rax
   1551e:	48 89 85 30 f1 ff ff 	mov    %rax,-0xed0(%rbp)
   15525:	48 8d 85 40 ec ff ff 	lea    -0x13c0(%rbp),%rax
   1552c:	48 83 c0 40          	add    $0x40,%rax
   15530:	48 89 85 38 f1 ff ff 	mov    %rax,-0xec8(%rbp)
   15537:	48 8d 85 00 ef ff ff 	lea    -0x1100(%rbp),%rax
   1553e:	48 05 20 02 00 00    	add    $0x220,%rax
   15544:	48 89 85 e8 ea ff ff 	mov    %rax,-0x1518(%rbp)
   1554b:	c7 85 70 eb ff ff 80 	movl   $0x8494ef80,-0x1490(%rbp)
   15552:	ef 94 84 
   15555:	c7 85 74 eb ff ff 80 	movl   $0x8494ef80,-0x148c(%rbp)
   1555c:	ef 94 84 
   1555f:	c7 85 78 eb ff ff 80 	movl   $0x8494ef80,-0x1488(%rbp)
   15566:	ef 94 84 
   15569:	c7 85 7c eb ff ff 80 	movl   $0x8494ef80,-0x1484(%rbp)
   15570:	ef 94 84 
   15573:	c7 85 80 eb ff ff 80 	movl   $0x8494ef80,-0x1480(%rbp)
   1557a:	ef 94 84 
   1557d:	c7 85 84 eb ff ff 80 	movl   $0x8494ef80,-0x147c(%rbp)
   15584:	ef 94 84 
   15587:	c7 85 88 eb ff ff 80 	movl   $0x8494ef80,-0x1478(%rbp)
   1558e:	ef 94 84 
   15591:	c7 85 8c eb ff ff 80 	movl   $0x8494ef80,-0x1474(%rbp)
   15598:	ef 94 84 
   1559b:	c7 85 90 eb ff ff 80 	movl   $0x8494ef80,-0x1470(%rbp)
   155a2:	ef 94 84 
   155a5:	48 8d 05 44 d6 00 00 	lea    0xd644(%rip),%rax        # 22bf0 <g_320>
   155ac:	48 89 85 f0 ea ff ff 	mov    %rax,-0x1510(%rbp)
   155b3:	48 8b 05 4e d6 00 00 	mov    0xd64e(%rip),%rax        # 22c08 <g_382>
   155ba:	48 8d 95 7c e8 ff ff 	lea    -0x1784(%rbp),%rdx
   155c1:	48 89 10             	mov    %rdx,(%rax)
   155c4:	48 8b 95 20 f1 ff ff 	mov    -0xee0(%rbp),%rdx
   155cb:	48 8b 85 e8 ea ff ff 	mov    -0x1518(%rbp),%rax
   155d2:	48 89 10             	mov    %rdx,(%rax)
   155d5:	c6 05 64 be 00 00 00 	movb   $0x0,0xbe64(%rip)        # 21440 <g_372>
   155dc:	e9 dc 06 00 00       	jmpq   15cbd <func_51+0x27d0>
   155e1:	48 8d 85 30 eb ff ff 	lea    -0x14d0(%rbp),%rax
   155e8:	48 89 85 f8 ea ff ff 	mov    %rax,-0x1508(%rbp)
   155ef:	48 8d 85 60 e9 ff ff 	lea    -0x16a0(%rbp),%rax
   155f6:	48 89 85 40 f1 ff ff 	mov    %rax,-0xec0(%rbp)
   155fd:	48 8d 85 58 e9 ff ff 	lea    -0x16a8(%rbp),%rax
   15604:	48 89 85 48 f1 ff ff 	mov    %rax,-0xeb8(%rbp)
   1560b:	48 8d 85 58 e9 ff ff 	lea    -0x16a8(%rbp),%rax
   15612:	48 89 85 50 f1 ff ff 	mov    %rax,-0xeb0(%rbp)
   15619:	48 8d 85 58 e9 ff ff 	lea    -0x16a8(%rbp),%rax
   15620:	48 89 85 58 f1 ff ff 	mov    %rax,-0xea8(%rbp)
   15627:	48 8d 85 60 e9 ff ff 	lea    -0x16a0(%rbp),%rax
   1562e:	48 89 85 60 f1 ff ff 	mov    %rax,-0xea0(%rbp)
   15635:	48 8d 85 60 e9 ff ff 	lea    -0x16a0(%rbp),%rax
   1563c:	48 89 85 68 f1 ff ff 	mov    %rax,-0xe98(%rbp)
   15643:	48 8d 85 58 e9 ff ff 	lea    -0x16a8(%rbp),%rax
   1564a:	48 89 85 70 f1 ff ff 	mov    %rax,-0xe90(%rbp)
   15651:	48 8d 85 60 e9 ff ff 	lea    -0x16a0(%rbp),%rax
   15658:	48 89 85 78 f1 ff ff 	mov    %rax,-0xe88(%rbp)
   1565f:	48 8d 85 60 e9 ff ff 	lea    -0x16a0(%rbp),%rax
   15666:	48 89 85 80 f1 ff ff 	mov    %rax,-0xe80(%rbp)
   1566d:	48 8d 85 58 e9 ff ff 	lea    -0x16a8(%rbp),%rax
   15674:	48 89 85 88 f1 ff ff 	mov    %rax,-0xe78(%rbp)
   1567b:	48 8d 85 60 e9 ff ff 	lea    -0x16a0(%rbp),%rax
   15682:	48 89 85 90 f1 ff ff 	mov    %rax,-0xe70(%rbp)
   15689:	48 8d 85 58 e9 ff ff 	lea    -0x16a8(%rbp),%rax
   15690:	48 89 85 98 f1 ff ff 	mov    %rax,-0xe68(%rbp)
   15697:	48 8d 85 60 e9 ff ff 	lea    -0x16a0(%rbp),%rax
   1569e:	48 89 85 a0 f1 ff ff 	mov    %rax,-0xe60(%rbp)
   156a5:	48 8d 85 60 e9 ff ff 	lea    -0x16a0(%rbp),%rax
   156ac:	48 89 85 a8 f1 ff ff 	mov    %rax,-0xe58(%rbp)
   156b3:	48 c7 85 b0 f1 ff ff 	movq   $0x0,-0xe50(%rbp)
   156ba:	00 00 00 00 
   156be:	48 8d 85 58 e9 ff ff 	lea    -0x16a8(%rbp),%rax
   156c5:	48 89 85 b8 f1 ff ff 	mov    %rax,-0xe48(%rbp)
   156cc:	48 c7 85 c0 f1 ff ff 	movq   $0x0,-0xe40(%rbp)
   156d3:	00 00 00 00 
   156d7:	48 8d 85 60 e9 ff ff 	lea    -0x16a0(%rbp),%rax
   156de:	48 89 85 c8 f1 ff ff 	mov    %rax,-0xe38(%rbp)
   156e5:	48 8d 85 60 e9 ff ff 	lea    -0x16a0(%rbp),%rax
   156ec:	48 89 85 d0 f1 ff ff 	mov    %rax,-0xe30(%rbp)
   156f3:	48 8d 85 58 e9 ff ff 	lea    -0x16a8(%rbp),%rax
   156fa:	48 89 85 d8 f1 ff ff 	mov    %rax,-0xe28(%rbp)
   15701:	48 8d 85 60 e9 ff ff 	lea    -0x16a0(%rbp),%rax
   15708:	48 89 85 e0 f1 ff ff 	mov    %rax,-0xe20(%rbp)
   1570f:	48 8d 85 60 e9 ff ff 	lea    -0x16a0(%rbp),%rax
   15716:	48 89 85 e8 f1 ff ff 	mov    %rax,-0xe18(%rbp)
   1571d:	48 c7 85 f0 f1 ff ff 	movq   $0x0,-0xe10(%rbp)
   15724:	00 00 00 00 
   15728:	48 8d 85 58 e9 ff ff 	lea    -0x16a8(%rbp),%rax
   1572f:	48 89 85 f8 f1 ff ff 	mov    %rax,-0xe08(%rbp)
   15736:	48 8d 85 60 e9 ff ff 	lea    -0x16a0(%rbp),%rax
   1573d:	48 89 85 00 f2 ff ff 	mov    %rax,-0xe00(%rbp)
   15744:	48 8d 85 58 e9 ff ff 	lea    -0x16a8(%rbp),%rax
   1574b:	48 89 85 08 f2 ff ff 	mov    %rax,-0xdf8(%rbp)
   15752:	48 c7 85 10 f2 ff ff 	movq   $0x0,-0xdf0(%rbp)
   15759:	00 00 00 00 
   1575d:	48 8d 85 60 e9 ff ff 	lea    -0x16a0(%rbp),%rax
   15764:	48 89 85 18 f2 ff ff 	mov    %rax,-0xde8(%rbp)
   1576b:	48 8d 85 60 e9 ff ff 	lea    -0x16a0(%rbp),%rax
   15772:	48 89 85 20 f2 ff ff 	mov    %rax,-0xde0(%rbp)
   15779:	48 8d 85 60 e9 ff ff 	lea    -0x16a0(%rbp),%rax
   15780:	48 89 85 28 f2 ff ff 	mov    %rax,-0xdd8(%rbp)
   15787:	48 c7 85 30 f2 ff ff 	movq   $0x0,-0xdd0(%rbp)
   1578e:	00 00 00 00 
   15792:	48 8d 85 58 e9 ff ff 	lea    -0x16a8(%rbp),%rax
   15799:	48 89 85 38 f2 ff ff 	mov    %rax,-0xdc8(%rbp)
   157a0:	48 8d 85 60 e9 ff ff 	lea    -0x16a0(%rbp),%rax
   157a7:	48 89 85 40 f2 ff ff 	mov    %rax,-0xdc0(%rbp)
   157ae:	48 8d 85 60 e9 ff ff 	lea    -0x16a0(%rbp),%rax
   157b5:	48 89 85 48 f2 ff ff 	mov    %rax,-0xdb8(%rbp)
   157bc:	48 8d 85 60 e9 ff ff 	lea    -0x16a0(%rbp),%rax
   157c3:	48 89 85 50 f2 ff ff 	mov    %rax,-0xdb0(%rbp)
   157ca:	48 8d 85 58 e9 ff ff 	lea    -0x16a8(%rbp),%rax
   157d1:	48 89 85 58 f2 ff ff 	mov    %rax,-0xda8(%rbp)
   157d8:	48 c7 85 60 f2 ff ff 	movq   $0x0,-0xda0(%rbp)
   157df:	00 00 00 00 
   157e3:	48 8d 85 60 e9 ff ff 	lea    -0x16a0(%rbp),%rax
   157ea:	48 89 85 68 f2 ff ff 	mov    %rax,-0xd98(%rbp)
   157f1:	48 c7 85 70 f2 ff ff 	movq   $0x0,-0xd90(%rbp)
   157f8:	00 00 00 00 
   157fc:	48 8d 85 58 e9 ff ff 	lea    -0x16a8(%rbp),%rax
   15803:	48 89 85 78 f2 ff ff 	mov    %rax,-0xd88(%rbp)
   1580a:	48 8d 85 60 e9 ff ff 	lea    -0x16a0(%rbp),%rax
   15811:	48 89 85 80 f2 ff ff 	mov    %rax,-0xd80(%rbp)
   15818:	48 8d 85 60 e9 ff ff 	lea    -0x16a0(%rbp),%rax
   1581f:	48 89 85 88 f2 ff ff 	mov    %rax,-0xd78(%rbp)
   15826:	48 8d 85 58 e9 ff ff 	lea    -0x16a8(%rbp),%rax
   1582d:	48 89 85 90 f2 ff ff 	mov    %rax,-0xd70(%rbp)
   15834:	48 8d 85 60 e9 ff ff 	lea    -0x16a0(%rbp),%rax
   1583b:	48 89 85 98 f2 ff ff 	mov    %rax,-0xd68(%rbp)
   15842:	48 8d 85 60 e9 ff ff 	lea    -0x16a0(%rbp),%rax
   15849:	48 89 85 a0 f2 ff ff 	mov    %rax,-0xd60(%rbp)
   15850:	48 8d 85 58 e9 ff ff 	lea    -0x16a8(%rbp),%rax
   15857:	48 89 85 a8 f2 ff ff 	mov    %rax,-0xd58(%rbp)
   1585e:	48 8d 85 58 e9 ff ff 	lea    -0x16a8(%rbp),%rax
   15865:	48 89 85 b0 f2 ff ff 	mov    %rax,-0xd50(%rbp)
   1586c:	48 8d 85 58 e9 ff ff 	lea    -0x16a8(%rbp),%rax
   15873:	48 89 85 b8 f2 ff ff 	mov    %rax,-0xd48(%rbp)
   1587a:	48 8d 85 60 e9 ff ff 	lea    -0x16a0(%rbp),%rax
   15881:	48 89 85 c0 f2 ff ff 	mov    %rax,-0xd40(%rbp)
   15888:	48 8d 85 60 e9 ff ff 	lea    -0x16a0(%rbp),%rax
   1588f:	48 89 85 c8 f2 ff ff 	mov    %rax,-0xd38(%rbp)
   15896:	48 8d 85 60 e9 ff ff 	lea    -0x16a0(%rbp),%rax
   1589d:	48 89 85 d0 f2 ff ff 	mov    %rax,-0xd30(%rbp)
   158a4:	48 8d 85 60 e9 ff ff 	lea    -0x16a0(%rbp),%rax
   158ab:	48 89 85 d8 f2 ff ff 	mov    %rax,-0xd28(%rbp)
   158b2:	48 8d 85 60 e9 ff ff 	lea    -0x16a0(%rbp),%rax
   158b9:	48 89 85 e0 f2 ff ff 	mov    %rax,-0xd20(%rbp)
   158c0:	48 8d 85 58 e9 ff ff 	lea    -0x16a8(%rbp),%rax
   158c7:	48 89 85 e8 f2 ff ff 	mov    %rax,-0xd18(%rbp)
   158ce:	48 c7 85 f0 f2 ff ff 	movq   $0x0,-0xd10(%rbp)
   158d5:	00 00 00 00 
   158d9:	48 8d 85 60 e9 ff ff 	lea    -0x16a0(%rbp),%rax
   158e0:	48 89 85 f8 f2 ff ff 	mov    %rax,-0xd08(%rbp)
   158e7:	48 c7 85 00 f3 ff ff 	movq   $0x0,-0xd00(%rbp)
   158ee:	00 00 00 00 
   158f2:	48 8d 85 58 e9 ff ff 	lea    -0x16a8(%rbp),%rax
   158f9:	48 89 85 08 f3 ff ff 	mov    %rax,-0xcf8(%rbp)
   15900:	48 8d 85 60 e9 ff ff 	lea    -0x16a0(%rbp),%rax
   15907:	48 89 85 10 f3 ff ff 	mov    %rax,-0xcf0(%rbp)
   1590e:	48 8d 85 60 e9 ff ff 	lea    -0x16a0(%rbp),%rax
   15915:	48 89 85 18 f3 ff ff 	mov    %rax,-0xce8(%rbp)
   1591c:	48 8d 85 60 e9 ff ff 	lea    -0x16a0(%rbp),%rax
   15923:	48 89 85 20 f3 ff ff 	mov    %rax,-0xce0(%rbp)
   1592a:	48 8d 85 58 e9 ff ff 	lea    -0x16a8(%rbp),%rax
   15931:	48 89 85 28 f3 ff ff 	mov    %rax,-0xcd8(%rbp)
   15938:	48 c7 85 30 f3 ff ff 	movq   $0x0,-0xcd0(%rbp)
   1593f:	00 00 00 00 
   15943:	48 8d 85 60 e9 ff ff 	lea    -0x16a0(%rbp),%rax
   1594a:	48 89 85 38 f3 ff ff 	mov    %rax,-0xcc8(%rbp)
   15951:	48 8d 85 60 e9 ff ff 	lea    -0x16a0(%rbp),%rax
   15958:	48 89 85 40 f3 ff ff 	mov    %rax,-0xcc0(%rbp)
   1595f:	48 8d 85 60 e9 ff ff 	lea    -0x16a0(%rbp),%rax
   15966:	48 89 85 48 f3 ff ff 	mov    %rax,-0xcb8(%rbp)
   1596d:	48 c7 85 50 f3 ff ff 	movq   $0x0,-0xcb0(%rbp)
   15974:	00 00 00 00 
   15978:	48 8d 85 58 e9 ff ff 	lea    -0x16a8(%rbp),%rax
   1597f:	48 89 85 58 f3 ff ff 	mov    %rax,-0xca8(%rbp)
   15986:	48 8d 85 60 e9 ff ff 	lea    -0x16a0(%rbp),%rax
   1598d:	48 89 85 60 f3 ff ff 	mov    %rax,-0xca0(%rbp)
   15994:	48 8d 85 58 e9 ff ff 	lea    -0x16a8(%rbp),%rax
   1599b:	48 89 85 68 f3 ff ff 	mov    %rax,-0xc98(%rbp)
   159a2:	48 c7 85 70 f3 ff ff 	movq   $0x0,-0xc90(%rbp)
   159a9:	00 00 00 00 
   159ad:	48 8d 85 60 e9 ff ff 	lea    -0x16a0(%rbp),%rax
   159b4:	48 89 85 78 f3 ff ff 	mov    %rax,-0xc88(%rbp)
   159bb:	48 8d 85 60 e9 ff ff 	lea    -0x16a0(%rbp),%rax
   159c2:	48 89 85 80 f3 ff ff 	mov    %rax,-0xc80(%rbp)
   159c9:	48 8d 85 58 e9 ff ff 	lea    -0x16a8(%rbp),%rax
   159d0:	48 89 85 88 f3 ff ff 	mov    %rax,-0xc78(%rbp)
   159d7:	48 8d 85 60 e9 ff ff 	lea    -0x16a0(%rbp),%rax
   159de:	48 89 85 90 f3 ff ff 	mov    %rax,-0xc70(%rbp)
   159e5:	48 8d 85 60 e9 ff ff 	lea    -0x16a0(%rbp),%rax
   159ec:	48 89 85 98 f3 ff ff 	mov    %rax,-0xc68(%rbp)
   159f3:	48 c7 85 a0 f3 ff ff 	movq   $0x0,-0xc60(%rbp)
   159fa:	00 00 00 00 
   159fe:	48 8d 85 58 e9 ff ff 	lea    -0x16a8(%rbp),%rax
   15a05:	48 89 85 a8 f3 ff ff 	mov    %rax,-0xc58(%rbp)
   15a0c:	48 c7 85 b0 f3 ff ff 	movq   $0x0,-0xc50(%rbp)
   15a13:	00 00 00 00 
   15a17:	48 8d 85 60 e9 ff ff 	lea    -0x16a0(%rbp),%rax
   15a1e:	48 89 85 b8 f3 ff ff 	mov    %rax,-0xc48(%rbp)
   15a25:	48 8d 85 60 e9 ff ff 	lea    -0x16a0(%rbp),%rax
   15a2c:	48 89 85 c0 f3 ff ff 	mov    %rax,-0xc40(%rbp)
   15a33:	48 8d 85 58 e9 ff ff 	lea    -0x16a8(%rbp),%rax
   15a3a:	48 89 85 c8 f3 ff ff 	mov    %rax,-0xc38(%rbp)
   15a41:	48 8d 85 58 e9 ff ff 	lea    -0x16a8(%rbp),%rax
   15a48:	48 89 85 d0 f3 ff ff 	mov    %rax,-0xc30(%rbp)
   15a4f:	48 8d 85 58 e9 ff ff 	lea    -0x16a8(%rbp),%rax
   15a56:	48 89 85 d8 f3 ff ff 	mov    %rax,-0xc28(%rbp)
   15a5d:	48 8d 85 60 e9 ff ff 	lea    -0x16a0(%rbp),%rax
   15a64:	48 89 85 e0 f3 ff ff 	mov    %rax,-0xc20(%rbp)
   15a6b:	48 8d 85 60 e9 ff ff 	lea    -0x16a0(%rbp),%rax
   15a72:	48 89 85 e8 f3 ff ff 	mov    %rax,-0xc18(%rbp)
   15a79:	48 8d 85 58 e9 ff ff 	lea    -0x16a8(%rbp),%rax
   15a80:	48 89 85 f0 f3 ff ff 	mov    %rax,-0xc10(%rbp)
   15a87:	48 8d 85 60 e9 ff ff 	lea    -0x16a0(%rbp),%rax
   15a8e:	48 89 85 f8 f3 ff ff 	mov    %rax,-0xc08(%rbp)
   15a95:	48 8d 85 60 e9 ff ff 	lea    -0x16a0(%rbp),%rax
   15a9c:	48 89 85 00 f4 ff ff 	mov    %rax,-0xc00(%rbp)
   15aa3:	48 8d 85 58 e9 ff ff 	lea    -0x16a8(%rbp),%rax
   15aaa:	48 89 85 08 f4 ff ff 	mov    %rax,-0xbf8(%rbp)
   15ab1:	48 8d 85 60 e9 ff ff 	lea    -0x16a0(%rbp),%rax
   15ab8:	48 89 85 10 f4 ff ff 	mov    %rax,-0xbf0(%rbp)
   15abf:	48 8d 85 58 e9 ff ff 	lea    -0x16a8(%rbp),%rax
   15ac6:	48 89 85 18 f4 ff ff 	mov    %rax,-0xbe8(%rbp)
   15acd:	48 8d 85 60 e9 ff ff 	lea    -0x16a0(%rbp),%rax
   15ad4:	48 89 85 20 f4 ff ff 	mov    %rax,-0xbe0(%rbp)
   15adb:	48 8d 85 60 e9 ff ff 	lea    -0x16a0(%rbp),%rax
   15ae2:	48 89 85 28 f4 ff ff 	mov    %rax,-0xbd8(%rbp)
   15ae9:	48 c7 85 30 f4 ff ff 	movq   $0x0,-0xbd0(%rbp)
   15af0:	00 00 00 00 
   15af4:	48 8d 85 58 e9 ff ff 	lea    -0x16a8(%rbp),%rax
   15afb:	48 89 85 38 f4 ff ff 	mov    %rax,-0xbc8(%rbp)
   15b02:	48 c7 85 40 f4 ff ff 	movq   $0x0,-0xbc0(%rbp)
   15b09:	00 00 00 00 
   15b0d:	48 8d 85 60 e9 ff ff 	lea    -0x16a0(%rbp),%rax
   15b14:	48 89 85 48 f4 ff ff 	mov    %rax,-0xbb8(%rbp)
   15b1b:	48 8d 85 60 e9 ff ff 	lea    -0x16a0(%rbp),%rax
   15b22:	48 89 85 50 f4 ff ff 	mov    %rax,-0xbb0(%rbp)
   15b29:	48 8d 85 58 e9 ff ff 	lea    -0x16a8(%rbp),%rax
   15b30:	48 89 85 58 f4 ff ff 	mov    %rax,-0xba8(%rbp)
   15b37:	48 8d 05 2a bb 00 00 	lea    0xbb2a(%rip),%rax        # 21668 <g_1720>
   15b3e:	48 89 85 00 eb ff ff 	mov    %rax,-0x1500(%rbp)
   15b45:	c7 85 94 e8 ff ff 00 	movl   $0x0,-0x176c(%rbp)
   15b4c:	00 00 00 
   15b4f:	eb 1e                	jmp    15b6f <func_51+0x2682>
   15b51:	8b 85 94 e8 ff ff    	mov    -0x176c(%rbp),%eax
   15b57:	48 98                	cltq   
   15b59:	48 8d 15 90 d0 00 00 	lea    0xd090(%rip),%rdx        # 22bf0 <g_320>
   15b60:	48 89 94 c5 30 eb ff 	mov    %rdx,-0x14d0(%rbp,%rax,8)
   15b67:	ff 
   15b68:	83 85 94 e8 ff ff 01 	addl   $0x1,-0x176c(%rbp)
   15b6f:	83 bd 94 e8 ff ff 00 	cmpl   $0x0,-0x176c(%rbp)
   15b76:	7e d9                	jle    15b51 <func_51+0x2664>
   15b78:	48 8b 95 30 eb ff ff 	mov    -0x14d0(%rbp),%rdx
   15b7f:	48 8b 85 f8 ea ff ff 	mov    -0x1508(%rbp),%rax
   15b86:	48 89 10             	mov    %rdx,(%rax)
   15b89:	48 8b 85 30 e8 ff ff 	mov    -0x17d0(%rbp),%rax
   15b90:	0f be c0             	movsbl %al,%eax
   15b93:	be 76 00 00 00       	mov    $0x76,%esi
   15b98:	89 c7                	mov    %eax,%edi
   15b9a:	e8 73 46 ff ff       	callq  a212 <safe_mul_func_int8_t_s_s>
   15b9f:	44 0f be e0          	movsbl %al,%r12d
   15ba3:	48 8b 05 76 d0 00 00 	mov    0xd076(%rip),%rax        # 22c20 <g_487>
   15baa:	0f b6 00             	movzbl (%rax),%eax
   15bad:	0f b6 d8             	movzbl %al,%ebx
   15bb0:	48 8b 85 30 e8 ff ff 	mov    -0x17d0(%rbp),%rax
   15bb7:	48 89 c6             	mov    %rax,%rsi
   15bba:	48 bf 78 3d 18 69 90 	movabs $0x7ec2b59069183d78,%rdi
   15bc1:	b5 c2 7e 
   15bc4:	e8 78 4c ff ff       	callq  a841 <safe_add_func_int64_t_s_s>
   15bc9:	83 e0 01             	and    $0x1,%eax
   15bcc:	89 85 8c eb ff ff    	mov    %eax,-0x1474(%rbp)
   15bd2:	8b 85 8c eb ff ff    	mov    -0x1474(%rbp),%eax
   15bd8:	48 98                	cltq   
   15bda:	48 39 85 30 e8 ff ff 	cmp    %rax,-0x17d0(%rbp)
   15be1:	0f 9c c0             	setl   %al
   15be4:	0f b6 c0             	movzbl %al,%eax
   15be7:	89 de                	mov    %ebx,%esi
   15be9:	89 c7                	mov    %eax,%edi
   15beb:	e8 a3 4f ff ff       	callq  ab93 <safe_mul_func_uint8_t_u_u>
   15bf0:	0f b6 c0             	movzbl %al,%eax
   15bf3:	48 39 85 38 e8 ff ff 	cmp    %rax,-0x17c8(%rbp)
   15bfa:	0f 9d c0             	setge  %al
   15bfd:	0f b6 d0             	movzbl %al,%edx
   15c00:	48 81 bd 38 e8 ff ff 	cmpq   $0xffff,-0x17c8(%rbp)
   15c07:	ff ff 00 00 
   15c0b:	0f 95 c0             	setne  %al
   15c0e:	0f b6 c0             	movzbl %al,%eax
   15c11:	89 d6                	mov    %edx,%esi
   15c13:	89 c7                	mov    %eax,%edi
   15c15:	e8 60 52 ff ff       	callq  ae7a <safe_rshift_func_uint16_t_u_u>
   15c1a:	0f b7 d0             	movzwl %ax,%edx
   15c1d:	8b 85 58 eb ff ff    	mov    -0x14a8(%rbp),%eax
   15c23:	39 c2                	cmp    %eax,%edx
   15c25:	7f 0a                	jg     15c31 <func_51+0x2744>
   15c27:	48 83 bd 38 e8 ff ff 	cmpq   $0x0,-0x17c8(%rbp)
   15c2e:	00 
   15c2f:	74 07                	je     15c38 <func_51+0x274b>
   15c31:	b8 01 00 00 00       	mov    $0x1,%eax
   15c36:	eb 05                	jmp    15c3d <func_51+0x2750>
   15c38:	b8 00 00 00 00       	mov    $0x0,%eax
   15c3d:	0f be c0             	movsbl %al,%eax
   15c40:	be 53 00 00 00       	mov    $0x53,%esi
   15c45:	89 c7                	mov    %eax,%edi
   15c47:	e8 1e 46 ff ff       	callq  a26a <safe_div_func_int8_t_s_s>
   15c4c:	0f be c0             	movsbl %al,%eax
   15c4f:	89 c6                	mov    %eax,%esi
   15c51:	bf 9e d5 00 00       	mov    $0xd59e,%edi
   15c56:	e8 ed 51 ff ff       	callq  ae48 <safe_rshift_func_uint16_t_u_s>
   15c5b:	0f b7 d0             	movzwl %ax,%edx
   15c5e:	48 8b 85 18 ea ff ff 	mov    -0x15e8(%rbp),%rax
   15c65:	8b 00                	mov    (%rax),%eax
   15c67:	39 c2                	cmp    %eax,%edx
   15c69:	0f 9c c0             	setl   %al
   15c6c:	0f b6 c0             	movzbl %al,%eax
   15c6f:	41 39 c4             	cmp    %eax,%r12d
   15c72:	0f 9f c0             	setg   %al
   15c75:	0f b6 c0             	movzbl %al,%eax
   15c78:	48 8b 95 c0 e9 ff ff 	mov    -0x1640(%rbp),%rdx
   15c7f:	48 8b 12             	mov    (%rdx),%rdx
   15c82:	8b 12                	mov    (%rdx),%edx
   15c84:	89 c6                	mov    %eax,%esi
   15c86:	89 d7                	mov    %edx,%edi
   15c88:	e8 2b 52 ff ff       	callq  aeb8 <safe_add_func_uint32_t_u_u>
   15c8d:	48 8b 85 90 f2 ff ff 	mov    -0xd70(%rbp),%rax
   15c94:	48 8d 15 35 e0 00 00 	lea    0xe035(%rip),%rdx        # 23cd0 <g_1438>
   15c9b:	48 39 d0             	cmp    %rdx,%rax
   15c9e:	0f 95 c0             	setne  %al
   15ca1:	0f b6 d0             	movzbl %al,%edx
   15ca4:	48 8b 85 18 ea ff ff 	mov    -0x15e8(%rbp),%rax
   15cab:	89 10                	mov    %edx,(%rax)
   15cad:	0f b6 05 8c b7 00 00 	movzbl 0xb78c(%rip),%eax        # 21440 <g_372>
   15cb4:	83 c0 01             	add    $0x1,%eax
   15cb7:	88 05 83 b7 00 00    	mov    %al,0xb783(%rip)        # 21440 <g_372>
   15cbd:	0f b6 05 7c b7 00 00 	movzbl 0xb77c(%rip),%eax        # 21440 <g_372>
   15cc4:	3c 01                	cmp    $0x1,%al
   15cc6:	0f 86 15 f9 ff ff    	jbe    155e1 <func_51+0x20f4>
   15ccc:	e9 8e 10 00 00       	jmpq   16d5f <func_51+0x3872>
   15cd1:	c6 85 50 e8 ff ff 00 	movb   $0x0,-0x17b0(%rbp)
   15cd8:	c7 85 70 e8 ff ff 88 	movl   $0x38557088,-0x1790(%rbp)
   15cdf:	70 55 38 
   15ce2:	48 8d 05 d7 b8 00 00 	lea    0xb8d7(%rip),%rax        # 215c0 <g_1028>
   15ce9:	48 89 85 60 e9 ff ff 	mov    %rax,-0x16a0(%rbp)
   15cf0:	48 8d 85 60 e9 ff ff 	lea    -0x16a0(%rbp),%rax
   15cf7:	48 89 85 68 e9 ff ff 	mov    %rax,-0x1698(%rbp)
   15cfe:	48 8d 85 68 e9 ff ff 	lea    -0x1698(%rbp),%rax
   15d05:	48 89 85 38 ea ff ff 	mov    %rax,-0x15c8(%rbp)
   15d0c:	c7 85 98 e8 ff ff 00 	movl   $0x0,-0x1768(%rbp)
   15d13:	00 00 00 
   15d16:	48 8d 05 eb b6 00 00 	lea    0xb6eb(%rip),%rax        # 21408 <g_264+0x8>
   15d1d:	48 89 85 40 f1 ff ff 	mov    %rax,-0xec0(%rbp)
   15d24:	48 8d 05 ed b6 00 00 	lea    0xb6ed(%rip),%rax        # 21418 <g_264+0x18>
   15d2b:	48 89 85 48 f1 ff ff 	mov    %rax,-0xeb8(%rbp)
   15d32:	48 8d 05 ef b6 00 00 	lea    0xb6ef(%rip),%rax        # 21428 <g_264+0x28>
   15d39:	48 89 85 50 f1 ff ff 	mov    %rax,-0xeb0(%rbp)
   15d40:	48 8d 85 20 e9 ff ff 	lea    -0x16e0(%rbp),%rax
   15d47:	48 89 85 58 f1 ff ff 	mov    %rax,-0xea8(%rbp)
   15d4e:	48 8d 05 bb b6 00 00 	lea    0xb6bb(%rip),%rax        # 21410 <g_264+0x10>
   15d55:	48 89 85 60 f1 ff ff 	mov    %rax,-0xea0(%rbp)
   15d5c:	48 8d 05 c5 b6 00 00 	lea    0xb6c5(%rip),%rax        # 21428 <g_264+0x28>
   15d63:	48 89 85 68 f1 ff ff 	mov    %rax,-0xe98(%rbp)
   15d6a:	48 8d 05 a7 b6 00 00 	lea    0xb6a7(%rip),%rax        # 21418 <g_264+0x18>
   15d71:	48 89 85 70 f1 ff ff 	mov    %rax,-0xe90(%rbp)
   15d78:	48 8d 05 89 b6 00 00 	lea    0xb689(%rip),%rax        # 21408 <g_264+0x8>
   15d7f:	48 89 85 78 f1 ff ff 	mov    %rax,-0xe88(%rbp)
   15d86:	48 8d 05 7b b6 00 00 	lea    0xb67b(%rip),%rax        # 21408 <g_264+0x8>
   15d8d:	48 89 85 80 f1 ff ff 	mov    %rax,-0xe80(%rbp)
   15d94:	48 8d 05 7d b6 00 00 	lea    0xb67d(%rip),%rax        # 21418 <g_264+0x18>
   15d9b:	48 89 85 88 f1 ff ff 	mov    %rax,-0xe78(%rbp)
   15da2:	48 8d 05 6f b8 00 00 	lea    0xb86f(%rip),%rax        # 21618 <g_1545+0x38>
   15da9:	48 89 85 90 f1 ff ff 	mov    %rax,-0xe70(%rbp)
   15db0:	48 8d 85 20 e9 ff ff 	lea    -0x16e0(%rbp),%rax
   15db7:	48 89 85 98 f1 ff ff 	mov    %rax,-0xe68(%rbp)
   15dbe:	48 c7 85 a0 f1 ff ff 	movq   $0x0,-0xe60(%rbp)
   15dc5:	00 00 00 00 
   15dc9:	48 8d 05 48 b6 00 00 	lea    0xb648(%rip),%rax        # 21418 <g_264+0x18>
   15dd0:	48 89 85 a8 f1 ff ff 	mov    %rax,-0xe58(%rbp)
   15dd7:	48 8d 05 32 b6 00 00 	lea    0xb632(%rip),%rax        # 21410 <g_264+0x10>
   15dde:	48 89 85 b0 f1 ff ff 	mov    %rax,-0xe50(%rbp)
   15de5:	48 8d 85 20 e9 ff ff 	lea    -0x16e0(%rbp),%rax
   15dec:	48 89 85 b8 f1 ff ff 	mov    %rax,-0xe48(%rbp)
   15df3:	48 8d 05 0e b6 00 00 	lea    0xb60e(%rip),%rax        # 21408 <g_264+0x8>
   15dfa:	48 89 85 c0 f1 ff ff 	mov    %rax,-0xe40(%rbp)
   15e01:	48 c7 85 c8 f1 ff ff 	movq   $0x0,-0xe38(%rbp)
   15e08:	00 00 00 00 
   15e0c:	48 8d 05 05 b6 00 00 	lea    0xb605(%rip),%rax        # 21418 <g_264+0x18>
   15e13:	48 89 85 d0 f1 ff ff 	mov    %rax,-0xe30(%rbp)
   15e1a:	48 c7 85 d8 f1 ff ff 	movq   $0x0,-0xe28(%rbp)
   15e21:	00 00 00 00 
   15e25:	48 8d 05 e4 b5 00 00 	lea    0xb5e4(%rip),%rax        # 21410 <g_264+0x10>
   15e2c:	48 89 85 e0 f1 ff ff 	mov    %rax,-0xe20(%rbp)
   15e33:	48 8d 05 d6 b5 00 00 	lea    0xb5d6(%rip),%rax        # 21410 <g_264+0x10>
   15e3a:	48 89 85 e8 f1 ff ff 	mov    %rax,-0xe18(%rbp)
   15e41:	48 8d 05 c0 b5 00 00 	lea    0xb5c0(%rip),%rax        # 21408 <g_264+0x8>
   15e48:	48 89 85 f0 f1 ff ff 	mov    %rax,-0xe10(%rbp)
   15e4f:	48 8d 05 c2 b7 00 00 	lea    0xb7c2(%rip),%rax        # 21618 <g_1545+0x38>
   15e56:	48 89 85 f8 f1 ff ff 	mov    %rax,-0xe08(%rbp)
   15e5d:	48 c7 85 00 f2 ff ff 	movq   $0x0,-0xe00(%rbp)
   15e64:	00 00 00 00 
   15e68:	48 8d 85 20 e9 ff ff 	lea    -0x16e0(%rbp),%rax
   15e6f:	48 89 85 08 f2 ff ff 	mov    %rax,-0xdf8(%rbp)
   15e76:	48 c7 85 10 f2 ff ff 	movq   $0x0,-0xdf0(%rbp)
   15e7d:	00 00 00 00 
   15e81:	48 8d 05 a0 b5 00 00 	lea    0xb5a0(%rip),%rax        # 21428 <g_264+0x28>
   15e88:	48 89 85 18 f2 ff ff 	mov    %rax,-0xde8(%rbp)
   15e8f:	48 8d 05 82 b7 00 00 	lea    0xb782(%rip),%rax        # 21618 <g_1545+0x38>
   15e96:	48 89 85 20 f2 ff ff 	mov    %rax,-0xde0(%rbp)
   15e9d:	48 8d 05 74 b7 00 00 	lea    0xb774(%rip),%rax        # 21618 <g_1545+0x38>
   15ea4:	48 89 85 28 f2 ff ff 	mov    %rax,-0xdd8(%rbp)
   15eab:	48 8d 05 66 b7 00 00 	lea    0xb766(%rip),%rax        # 21618 <g_1545+0x38>
   15eb2:	48 89 85 30 f2 ff ff 	mov    %rax,-0xdd0(%rbp)
   15eb9:	48 8d 05 58 b7 00 00 	lea    0xb758(%rip),%rax        # 21618 <g_1545+0x38>
   15ec0:	48 89 85 38 f2 ff ff 	mov    %rax,-0xdc8(%rbp)
   15ec7:	48 8d 05 4a b7 00 00 	lea    0xb74a(%rip),%rax        # 21618 <g_1545+0x38>
   15ece:	48 89 85 40 f2 ff ff 	mov    %rax,-0xdc0(%rbp)
   15ed5:	48 8d 05 3c b5 00 00 	lea    0xb53c(%rip),%rax        # 21418 <g_264+0x18>
   15edc:	48 89 85 48 f2 ff ff 	mov    %rax,-0xdb8(%rbp)
   15ee3:	48 8d 85 20 e9 ff ff 	lea    -0x16e0(%rbp),%rax
   15eea:	48 89 85 50 f2 ff ff 	mov    %rax,-0xdb0(%rbp)
   15ef1:	48 8d 05 30 b5 00 00 	lea    0xb530(%rip),%rax        # 21428 <g_264+0x28>
   15ef8:	48 89 85 58 f2 ff ff 	mov    %rax,-0xda8(%rbp)
   15eff:	48 c7 85 60 f2 ff ff 	movq   $0x0,-0xda0(%rbp)
   15f06:	00 00 00 00 
   15f0a:	48 8d 85 20 e9 ff ff 	lea    -0x16e0(%rbp),%rax
   15f11:	48 89 85 68 f2 ff ff 	mov    %rax,-0xd98(%rbp)
   15f18:	48 8d 05 f9 b4 00 00 	lea    0xb4f9(%rip),%rax        # 21418 <g_264+0x18>
   15f1f:	48 89 85 70 f2 ff ff 	mov    %rax,-0xd90(%rbp)
   15f26:	48 8d 85 20 e9 ff ff 	lea    -0x16e0(%rbp),%rax
   15f2d:	48 89 85 78 f2 ff ff 	mov    %rax,-0xd88(%rbp)
   15f34:	48 8d 05 cd b4 00 00 	lea    0xb4cd(%rip),%rax        # 21408 <g_264+0x8>
   15f3b:	48 89 85 80 f2 ff ff 	mov    %rax,-0xd80(%rbp)
   15f42:	48 8d 05 c7 b4 00 00 	lea    0xb4c7(%rip),%rax        # 21410 <g_264+0x10>
   15f49:	48 89 85 88 f2 ff ff 	mov    %rax,-0xd78(%rbp)
   15f50:	48 8d 05 b9 b4 00 00 	lea    0xb4b9(%rip),%rax        # 21410 <g_264+0x10>
   15f57:	48 89 85 90 f2 ff ff 	mov    %rax,-0xd70(%rbp)
   15f5e:	48 8d 05 a3 b4 00 00 	lea    0xb4a3(%rip),%rax        # 21408 <g_264+0x8>
   15f65:	48 89 85 98 f2 ff ff 	mov    %rax,-0xd68(%rbp)
   15f6c:	48 8d 05 a5 b6 00 00 	lea    0xb6a5(%rip),%rax        # 21618 <g_1545+0x38>
   15f73:	48 89 85 a0 f2 ff ff 	mov    %rax,-0xd60(%rbp)
   15f7a:	66 c7 85 5e e8 ff ff 	movw   $0xffff,-0x17a2(%rbp)
   15f81:	ff ff 
   15f83:	c7 85 c8 e8 ff ff 63 	movl   $0x5049e563,-0x1738(%rbp)
   15f8a:	e5 49 50 
   15f8d:	c7 85 74 e8 ff ff fe 	movl   $0xfffffffe,-0x178c(%rbp)
   15f94:	ff ff ff 
   15f97:	c7 85 9c e8 ff ff 00 	movl   $0x0,-0x1764(%rbp)
   15f9e:	00 00 00 
   15fa1:	eb 1a                	jmp    15fbd <func_51+0x2ad0>
   15fa3:	8b 85 9c e8 ff ff    	mov    -0x1764(%rbp),%eax
   15fa9:	48 98                	cltq   
   15fab:	c7 84 85 70 eb ff ff 	movl   $0xc743a86e,-0x1490(%rbp,%rax,4)
   15fb2:	6e a8 43 c7 
   15fb6:	83 85 9c e8 ff ff 01 	addl   $0x1,-0x1764(%rbp)
   15fbd:	83 bd 9c e8 ff ff 02 	cmpl   $0x2,-0x1764(%rbp)
   15fc4:	7e dd                	jle    15fa3 <func_51+0x2ab6>
   15fc6:	c7 85 9c e8 ff ff 00 	movl   $0x0,-0x1764(%rbp)
   15fcd:	00 00 00 
   15fd0:	eb 1a                	jmp    15fec <func_51+0x2aff>
   15fd2:	8b 85 9c e8 ff ff    	mov    -0x1764(%rbp),%eax
   15fd8:	48 98                	cltq   
   15fda:	c7 84 85 d0 eb ff ff 	movl   $0x1,-0x1430(%rbp,%rax,4)
   15fe1:	01 00 00 00 
   15fe5:	83 85 9c e8 ff ff 01 	addl   $0x1,-0x1764(%rbp)
   15fec:	83 bd 9c e8 ff ff 05 	cmpl   $0x5,-0x1764(%rbp)
   15ff3:	7e dd                	jle    15fd2 <func_51+0x2ae5>
   15ff5:	48 8b 85 38 e8 ff ff 	mov    -0x17c8(%rbp),%rax
   15ffc:	89 c3                	mov    %eax,%ebx
   15ffe:	0f b6 95 50 e8 ff ff 	movzbl -0x17b0(%rbp),%edx
   16005:	48 8b 05 24 cc 00 00 	mov    0xcc24(%rip),%rax        # 22c30 <g_566>
   1600c:	0f b7 00             	movzwl (%rax),%eax
   1600f:	48 0f bf c0          	movswq %ax,%rax
   16013:	48 39 85 38 e8 ff ff 	cmp    %rax,-0x17c8(%rbp)
   1601a:	0f 9c c0             	setl   %al
   1601d:	0f b6 c0             	movzbl %al,%eax
   16020:	48 89 d6             	mov    %rdx,%rsi
   16023:	48 89 c7             	mov    %rax,%rdi
   16026:	e8 84 50 ff ff       	callq  b0af <safe_div_func_uint64_t_u_u>
   1602b:	48 85 c0             	test   %rax,%rax
   1602e:	74 07                	je     16037 <func_51+0x2b4a>
   16030:	b8 01 00 00 00       	mov    $0x1,%eax
   16035:	eb 05                	jmp    1603c <func_51+0x2b4f>
   16037:	b8 00 00 00 00       	mov    $0x0,%eax
   1603c:	48 63 d0             	movslq %eax,%rdx
   1603f:	48 8b 05 92 dc 00 00 	mov    0xdc92(%rip),%rax        # 23cd8 <g_1437>
   16046:	48 8b 00             	mov    (%rax),%rax
   16049:	48 8b 00             	mov    (%rax),%rax
   1604c:	48 39 c2             	cmp    %rax,%rdx
   1604f:	0f 9c c0             	setl   %al
   16052:	0f b6 d0             	movzbl %al,%edx
   16055:	48 8d 05 fc e9 00 00 	lea    0xe9fc(%rip),%rax        # 24a58 <g_117+0x8>
   1605c:	48 89 85 80 e9 ff ff 	mov    %rax,-0x1680(%rbp)
   16063:	48 83 bd 38 e8 ff ff 	cmpq   $0x0,-0x17c8(%rbp)
   1606a:	00 
   1606b:	0f 95 c0             	setne  %al
   1606e:	0f b6 c0             	movzbl %al,%eax
   16071:	89 d6                	mov    %edx,%esi
   16073:	89 c7                	mov    %eax,%edi
   16075:	e8 c3 4c ff ff       	callq  ad3d <safe_mul_func_uint16_t_u_u>
   1607a:	48 8b 85 30 e8 ff ff 	mov    -0x17d0(%rbp),%rax
   16081:	98                   	cwtl   
   16082:	be 00 00 00 00       	mov    $0x0,%esi
   16087:	89 c7                	mov    %eax,%edi
   16089:	e8 53 44 ff ff       	callq  a4e1 <safe_lshift_func_int16_t_s_u>
   1608e:	89 c2                	mov    %eax,%edx
   16090:	48 8b 85 c0 e9 ff ff 	mov    -0x1640(%rbp),%rax
   16097:	48 8b 00             	mov    (%rax),%rax
   1609a:	0f bf d2             	movswl %dx,%edx
   1609d:	89 10                	mov    %edx,(%rax)
   1609f:	8b 00                	mov    (%rax),%eax
   160a1:	0f b6 d0             	movzbl %al,%edx
   160a4:	48 8b 05 8d cb 00 00 	mov    0xcb8d(%rip),%rax        # 22c38 <g_712>
   160ab:	48 8b 00             	mov    (%rax),%rax
   160ae:	48 8b 00             	mov    (%rax),%rax
   160b1:	0f b6 00             	movzbl (%rax),%eax
   160b4:	0f b6 c0             	movzbl %al,%eax
   160b7:	89 d6                	mov    %edx,%esi
   160b9:	89 c7                	mov    %eax,%edi
   160bb:	e8 b8 4a ff ff       	callq  ab78 <safe_sub_func_uint8_t_u_u>
   160c0:	89 c2                	mov    %eax,%edx
   160c2:	48 8b 05 cf db 00 00 	mov    0xdbcf(%rip),%rax        # 23c98 <g_1050>
   160c9:	0f b6 d2             	movzbl %dl,%edx
   160cc:	48 89 10             	mov    %rdx,(%rax)
   160cf:	48 8b 00             	mov    (%rax),%rax
   160d2:	48 89 c2             	mov    %rax,%rdx
   160d5:	8b 85 5c eb ff ff    	mov    -0x14a4(%rbp),%eax
   160db:	48 98                	cltq   
   160dd:	48 89 d6             	mov    %rdx,%rsi
   160e0:	48 89 c7             	mov    %rax,%rdi
   160e3:	e8 59 47 ff ff       	callq  a841 <safe_add_func_int64_t_s_s>
   160e8:	48 8b 05 31 cb 00 00 	mov    0xcb31(%rip),%rax        # 22c20 <g_487>
   160ef:	0f b6 00             	movzbl (%rax),%eax
   160f2:	0f b6 c0             	movzbl %al,%eax
   160f5:	89 de                	mov    %ebx,%esi
   160f7:	89 c7                	mov    %eax,%edi
   160f9:	e8 07 4b ff ff       	callq  ac05 <safe_lshift_func_uint8_t_u_s>
   160fe:	0f b6 c0             	movzbl %al,%eax
   16101:	89 85 70 e8 ff ff    	mov    %eax,-0x1790(%rbp)
   16107:	48 c7 05 2e b1 00 00 	movq   $0x4,0xb12e(%rip)        # 21240 <g_101>
   1610e:	04 00 00 00 
   16112:	e9 26 0c 00 00       	jmpq   16d3d <func_51+0x3850>
   16117:	48 b8 04 04 04 04 04 	movabs $0x404040404040404,%rax
   1611e:	04 04 04 
   16121:	48 89 85 30 eb ff ff 	mov    %rax,-0x14d0(%rbp)
   16128:	48 8d 05 96 b4 00 00 	lea    0xb496(%rip),%rax        # 215c5 <g_1486>
   1612f:	48 89 85 40 ea ff ff 	mov    %rax,-0x15c0(%rbp)
   16136:	48 8d 05 87 b4 00 00 	lea    0xb487(%rip),%rax        # 215c4 <g_1457>
   1613d:	48 89 85 48 ea ff ff 	mov    %rax,-0x15b8(%rbp)
   16144:	c7 85 78 e8 ff ff 01 	movl   $0x1,-0x1788(%rbp)
   1614b:	00 00 00 
   1614e:	c7 85 cc e8 ff ff 7e 	movl   $0xc098a47e,-0x1734(%rbp)
   16155:	a4 98 c0 
   16158:	c7 85 7c e8 ff ff 7f 	movl   $0x4ded277f,-0x1784(%rbp)
   1615f:	27 ed 4d 
   16162:	c7 85 d0 e8 ff ff 00 	movl   $0x0,-0x1730(%rbp)
   16169:	00 00 00 
   1616c:	c7 85 50 e9 ff ff 03 	movl   $0x3,-0x16b0(%rbp)
   16173:	00 00 00 
   16176:	c7 85 d4 e8 ff ff d3 	movl   $0xea0bfcd3,-0x172c(%rbp)
   1617d:	fc 0b ea 
   16180:	c7 85 d8 e8 ff ff f2 	movl   $0x92832cf2,-0x1728(%rbp)
   16187:	2c 83 92 
   1618a:	48 c7 85 50 ea ff ff 	movq   $0x0,-0x15b0(%rbp)
   16191:	00 00 00 00 
   16195:	48 8d 85 6c e8 ff ff 	lea    -0x1794(%rbp),%rax
   1619c:	48 89 85 58 ea ff ff 	mov    %rax,-0x15a8(%rbp)
   161a3:	48 8d 05 da b1 00 00 	lea    0xb1da(%rip),%rax        # 21384 <g_119+0x124>
   161aa:	48 89 85 60 ea ff ff 	mov    %rax,-0x15a0(%rbp)
   161b1:	48 c7 85 68 ea ff ff 	movq   $0x0,-0x1598(%rbp)
   161b8:	00 00 00 00 
   161bc:	48 8d 05 81 b1 00 00 	lea    0xb181(%rip),%rax        # 21344 <g_119+0xe4>
   161c3:	48 89 85 70 ea ff ff 	mov    %rax,-0x1590(%rbp)
   161ca:	48 8d 85 6c e8 ff ff 	lea    -0x1794(%rbp),%rax
   161d1:	48 89 85 78 ea ff ff 	mov    %rax,-0x1588(%rbp)
   161d8:	48 8d 85 50 e9 ff ff 	lea    -0x16b0(%rbp),%rax
   161df:	48 89 85 40 ec ff ff 	mov    %rax,-0x13c0(%rbp)
   161e6:	48 8d 85 7c e8 ff ff 	lea    -0x1784(%rbp),%rax
   161ed:	48 89 85 48 ec ff ff 	mov    %rax,-0x13b8(%rbp)
   161f4:	48 8d 85 6c e8 ff ff 	lea    -0x1794(%rbp),%rax
   161fb:	48 89 85 50 ec ff ff 	mov    %rax,-0x13b0(%rbp)
   16202:	48 8d 85 6c e8 ff ff 	lea    -0x1794(%rbp),%rax
   16209:	48 89 85 58 ec ff ff 	mov    %rax,-0x13a8(%rbp)
   16210:	48 8d 85 7c e8 ff ff 	lea    -0x1784(%rbp),%rax
   16217:	48 89 85 60 ec ff ff 	mov    %rax,-0x13a0(%rbp)
   1621e:	48 8d 85 50 e9 ff ff 	lea    -0x16b0(%rbp),%rax
   16225:	48 89 85 68 ec ff ff 	mov    %rax,-0x1398(%rbp)
   1622c:	48 8d 85 70 e8 ff ff 	lea    -0x1790(%rbp),%rax
   16233:	48 89 85 70 ec ff ff 	mov    %rax,-0x1390(%rbp)
   1623a:	48 8d 85 50 e9 ff ff 	lea    -0x16b0(%rbp),%rax
   16241:	48 89 85 78 ec ff ff 	mov    %rax,-0x1388(%rbp)
   16248:	48 c7 85 80 ec ff ff 	movq   $0x0,-0x1380(%rbp)
   1624f:	00 00 00 00 
   16253:	48 8d 85 7c e8 ff ff 	lea    -0x1784(%rbp),%rax
   1625a:	48 89 85 88 ec ff ff 	mov    %rax,-0x1378(%rbp)
   16261:	48 c7 85 90 ec ff ff 	movq   $0x0,-0x1370(%rbp)
   16268:	00 00 00 00 
   1626c:	48 8d 85 50 e9 ff ff 	lea    -0x16b0(%rbp),%rax
   16273:	48 89 85 98 ec ff ff 	mov    %rax,-0x1368(%rbp)
   1627a:	48 c7 85 a0 ec ff ff 	movq   $0x0,-0x1360(%rbp)
   16281:	00 00 00 00 
   16285:	48 8d 85 70 e8 ff ff 	lea    -0x1790(%rbp),%rax
   1628c:	48 89 85 a8 ec ff ff 	mov    %rax,-0x1358(%rbp)
   16293:	48 8d 85 6c e8 ff ff 	lea    -0x1794(%rbp),%rax
   1629a:	48 89 85 b0 ec ff ff 	mov    %rax,-0x1350(%rbp)
   162a1:	48 8d 85 74 e8 ff ff 	lea    -0x178c(%rbp),%rax
   162a8:	48 89 85 b8 ec ff ff 	mov    %rax,-0x1348(%rbp)
   162af:	48 8d 85 74 e8 ff ff 	lea    -0x178c(%rbp),%rax
   162b6:	48 89 85 c0 ec ff ff 	mov    %rax,-0x1340(%rbp)
   162bd:	48 8d 85 6c e8 ff ff 	lea    -0x1794(%rbp),%rax
   162c4:	48 89 85 c8 ec ff ff 	mov    %rax,-0x1338(%rbp)
   162cb:	48 c7 85 d0 ec ff ff 	movq   $0x0,-0x1330(%rbp)
   162d2:	00 00 00 00 
   162d6:	48 c7 85 d8 ec ff ff 	movq   $0x0,-0x1328(%rbp)
   162dd:	00 00 00 00 
   162e1:	48 8d 85 74 e8 ff ff 	lea    -0x178c(%rbp),%rax
   162e8:	48 89 85 e0 ec ff ff 	mov    %rax,-0x1320(%rbp)
   162ef:	48 8d 85 7c e8 ff ff 	lea    -0x1784(%rbp),%rax
   162f6:	48 89 85 e8 ec ff ff 	mov    %rax,-0x1318(%rbp)
   162fd:	48 c7 85 f0 ec ff ff 	movq   $0x0,-0x1310(%rbp)
   16304:	00 00 00 00 
   16308:	48 8d 85 7c e8 ff ff 	lea    -0x1784(%rbp),%rax
   1630f:	48 89 85 f8 ec ff ff 	mov    %rax,-0x1308(%rbp)
   16316:	c7 85 dc e8 ff ff 00 	movl   $0x0,-0x1724(%rbp)
   1631d:	00 00 00 
   16320:	c7 85 e0 e8 ff ff fe 	movl   $0xfffffffe,-0x1720(%rbp)
   16327:	ff ff ff 
   1632a:	48 8b 05 67 d9 00 00 	mov    0xd967(%rip),%rax        # 23c98 <g_1050>
   16331:	48 c7 00 f8 ff ff ff 	movq   $0xfffffffffffffff8,(%rax)
   16338:	48 8b 85 20 e9 ff ff 	mov    -0x16e0(%rbp),%rax
   1633f:	48 ba 1a aa 54 44 8d 	movabs $0xb206c48d4454aa1a,%rdx
   16346:	c4 06 b2 
   16349:	48 39 d0             	cmp    %rdx,%rax
   1634c:	0f 96 c0             	setbe  %al
   1634f:	0f b6 d0             	movzbl %al,%edx
   16352:	0f b6 8d 50 e8 ff ff 	movzbl -0x17b0(%rbp),%ecx
   16359:	8b 85 70 e8 ff ff    	mov    -0x1790(%rbp),%eax
   1635f:	39 c1                	cmp    %eax,%ecx
   16361:	0f 9e c0             	setle  %al
   16364:	0f b6 c0             	movzbl %al,%eax
   16367:	39 c2                	cmp    %eax,%edx
   16369:	7c 1e                	jl     16389 <func_51+0x2e9c>
   1636b:	48 8b 85 38 ea ff ff 	mov    -0x15c8(%rbp),%rax
   16372:	48 89 85 30 ea ff ff 	mov    %rax,-0x15d0(%rbp)
   16379:	48 8b 05 78 da 00 00 	mov    0xda78(%rip),%rax        # 23df8 <g_1742>
   16380:	48 39 85 30 ea ff ff 	cmp    %rax,-0x15d0(%rbp)
   16387:	75 07                	jne    16390 <func_51+0x2ea3>
   16389:	b8 01 00 00 00       	mov    $0x1,%eax
   1638e:	eb 05                	jmp    16395 <func_51+0x2ea8>
   16390:	b8 00 00 00 00       	mov    $0x0,%eax
   16395:	89 c2                	mov    %eax,%edx
   16397:	83 e2 01             	and    $0x1,%edx
   1639a:	b8 f8 ff ff ff       	mov    $0xfffffff8,%eax
   1639f:	84 c0                	test   %al,%al
   163a1:	74 0a                	je     163ad <func_51+0x2ec0>
   163a3:	48 83 bd 30 e8 ff ff 	cmpq   $0x0,-0x17d0(%rbp)
   163aa:	00 
   163ab:	74 07                	je     163b4 <func_51+0x2ec7>
   163ad:	b8 01 00 00 00       	mov    $0x1,%eax
   163b2:	eb 05                	jmp    163b9 <func_51+0x2ecc>
   163b4:	b8 00 00 00 00       	mov    $0x0,%eax
   163b9:	83 e0 01             	and    $0x1,%eax
   163bc:	21 d0                	and    %edx,%eax
   163be:	0f b6 d0             	movzbl %al,%edx
   163c1:	8b 05 89 b0 00 00    	mov    0xb089(%rip),%eax        # 21450 <g_547>
   163c7:	39 c2                	cmp    %eax,%edx
   163c9:	66 83 bd 5a e8 ff ff 	cmpw   $0xa,-0x17a6(%rbp)
   163d0:	0a 
   163d1:	76 15                	jbe    163e8 <func_51+0x2efb>
   163d3:	0f b6 85 31 eb ff ff 	movzbl -0x14cf(%rbp),%eax
   163da:	83 c0 01             	add    $0x1,%eax
   163dd:	88 85 31 eb ff ff    	mov    %al,-0x14cf(%rbp)
   163e3:	e9 0e 08 00 00       	jmpq   16bf6 <func_51+0x3709>
   163e8:	48 8d 85 a0 eb ff ff 	lea    -0x1460(%rbp),%rax
   163ef:	48 83 c0 18          	add    $0x18,%rax
   163f3:	48 89 85 00 ef ff ff 	mov    %rax,-0x1100(%rbp)
   163fa:	48 8d 85 a0 eb ff ff 	lea    -0x1460(%rbp),%rax
   16401:	48 83 c0 18          	add    $0x18,%rax
   16405:	48 89 85 08 ef ff ff 	mov    %rax,-0x10f8(%rbp)
   1640c:	48 8d 85 a0 eb ff ff 	lea    -0x1460(%rbp),%rax
   16413:	48 83 c0 18          	add    $0x18,%rax
   16417:	48 89 85 10 ef ff ff 	mov    %rax,-0x10f0(%rbp)
   1641e:	48 8d 85 a0 eb ff ff 	lea    -0x1460(%rbp),%rax
   16425:	48 83 c0 10          	add    $0x10,%rax
   16429:	48 89 85 18 ef ff ff 	mov    %rax,-0x10e8(%rbp)
   16430:	48 8d 85 a0 eb ff ff 	lea    -0x1460(%rbp),%rax
   16437:	48 83 c0 10          	add    $0x10,%rax
   1643b:	48 89 85 20 ef ff ff 	mov    %rax,-0x10e0(%rbp)
   16442:	48 8d 85 a0 eb ff ff 	lea    -0x1460(%rbp),%rax
   16449:	48 83 c0 18          	add    $0x18,%rax
   1644d:	48 89 85 28 ef ff ff 	mov    %rax,-0x10d8(%rbp)
   16454:	48 8d 05 25 c6 00 00 	lea    0xc625(%rip),%rax        # 22a80 <g_187+0x40>
   1645b:	48 89 85 30 ef ff ff 	mov    %rax,-0x10d0(%rbp)
   16462:	48 8d 05 e7 c5 00 00 	lea    0xc5e7(%rip),%rax        # 22a50 <g_187+0x10>
   16469:	48 89 85 38 ef ff ff 	mov    %rax,-0x10c8(%rbp)
   16470:	48 8d 85 a0 eb ff ff 	lea    -0x1460(%rbp),%rax
   16477:	48 83 c0 18          	add    $0x18,%rax
   1647b:	48 89 85 40 ef ff ff 	mov    %rax,-0x10c0(%rbp)
   16482:	48 8d 05 bf c5 00 00 	lea    0xc5bf(%rip),%rax        # 22a48 <g_187+0x8>
   16489:	48 89 85 48 ef ff ff 	mov    %rax,-0x10b8(%rbp)
   16490:	48 8d 85 a0 eb ff ff 	lea    -0x1460(%rbp),%rax
   16497:	48 83 c0 18          	add    $0x18,%rax
   1649b:	48 89 85 50 ef ff ff 	mov    %rax,-0x10b0(%rbp)
   164a2:	48 8d 85 a0 eb ff ff 	lea    -0x1460(%rbp),%rax
   164a9:	48 83 c0 18          	add    $0x18,%rax
   164ad:	48 89 85 58 ef ff ff 	mov    %rax,-0x10a8(%rbp)
   164b4:	48 8d 05 8d c5 00 00 	lea    0xc58d(%rip),%rax        # 22a48 <g_187+0x8>
   164bb:	48 89 85 60 ef ff ff 	mov    %rax,-0x10a0(%rbp)
   164c2:	48 8d 85 a0 eb ff ff 	lea    -0x1460(%rbp),%rax
   164c9:	48 83 c0 08          	add    $0x8,%rax
   164cd:	48 89 85 68 ef ff ff 	mov    %rax,-0x1098(%rbp)
   164d4:	48 8d 05 6d c5 00 00 	lea    0xc56d(%rip),%rax        # 22a48 <g_187+0x8>
   164db:	48 89 85 70 ef ff ff 	mov    %rax,-0x1090(%rbp)
   164e2:	48 8d 85 a0 eb ff ff 	lea    -0x1460(%rbp),%rax
   164e9:	48 83 c0 18          	add    $0x18,%rax
   164ed:	48 89 85 78 ef ff ff 	mov    %rax,-0x1088(%rbp)
   164f4:	48 8d 85 a0 eb ff ff 	lea    -0x1460(%rbp),%rax
   164fb:	48 83 c0 18          	add    $0x18,%rax
   164ff:	48 89 85 80 ef ff ff 	mov    %rax,-0x1080(%rbp)
   16506:	48 8d 05 3b c5 00 00 	lea    0xc53b(%rip),%rax        # 22a48 <g_187+0x8>
   1650d:	48 89 85 88 ef ff ff 	mov    %rax,-0x1078(%rbp)
   16514:	48 8d 85 a0 eb ff ff 	lea    -0x1460(%rbp),%rax
   1651b:	48 83 c0 10          	add    $0x10,%rax
   1651f:	48 89 85 90 ef ff ff 	mov    %rax,-0x1070(%rbp)
   16526:	48 8d 85 a0 eb ff ff 	lea    -0x1460(%rbp),%rax
   1652d:	48 83 c0 18          	add    $0x18,%rax
   16531:	48 89 85 98 ef ff ff 	mov    %rax,-0x1068(%rbp)
   16538:	48 8d 85 a0 eb ff ff 	lea    -0x1460(%rbp),%rax
   1653f:	48 83 c0 18          	add    $0x18,%rax
   16543:	48 89 85 a0 ef ff ff 	mov    %rax,-0x1060(%rbp)
   1654a:	48 8d 85 a0 eb ff ff 	lea    -0x1460(%rbp),%rax
   16551:	48 83 c0 18          	add    $0x18,%rax
   16555:	48 89 85 a8 ef ff ff 	mov    %rax,-0x1058(%rbp)
   1655c:	48 8d 85 a0 eb ff ff 	lea    -0x1460(%rbp),%rax
   16563:	48 83 c0 10          	add    $0x10,%rax
   16567:	48 89 85 b0 ef ff ff 	mov    %rax,-0x1050(%rbp)
   1656e:	48 8d 85 a0 eb ff ff 	lea    -0x1460(%rbp),%rax
   16575:	48 83 c0 10          	add    $0x10,%rax
   16579:	48 89 85 b8 ef ff ff 	mov    %rax,-0x1048(%rbp)
   16580:	48 8d 85 a0 eb ff ff 	lea    -0x1460(%rbp),%rax
   16587:	48 83 c0 18          	add    $0x18,%rax
   1658b:	48 89 85 c0 ef ff ff 	mov    %rax,-0x1040(%rbp)
   16592:	48 8d 85 a0 eb ff ff 	lea    -0x1460(%rbp),%rax
   16599:	48 83 c0 18          	add    $0x18,%rax
   1659d:	48 89 85 c8 ef ff ff 	mov    %rax,-0x1038(%rbp)
   165a4:	48 8d 85 a0 eb ff ff 	lea    -0x1460(%rbp),%rax
   165ab:	48 83 c0 18          	add    $0x18,%rax
   165af:	48 89 85 d0 ef ff ff 	mov    %rax,-0x1030(%rbp)
   165b6:	c7 85 58 e9 ff ff ff 	movl   $0xffffffff,-0x16a8(%rbp)
   165bd:	ff ff ff 
   165c0:	48 8d 85 00 ec ff ff 	lea    -0x1400(%rbp),%rax
   165c7:	48 83 c0 08          	add    $0x8,%rax
   165cb:	48 89 85 80 ea ff ff 	mov    %rax,-0x1580(%rbp)
   165d2:	48 8d 85 50 eb ff ff 	lea    -0x14b0(%rbp),%rax
   165d9:	48 89 85 88 ea ff ff 	mov    %rax,-0x1578(%rbp)
   165e0:	48 8d 85 50 eb ff ff 	lea    -0x14b0(%rbp),%rax
   165e7:	48 83 c0 18          	add    $0x18,%rax
   165eb:	48 89 85 90 ea ff ff 	mov    %rax,-0x1570(%rbp)
   165f2:	48 8d 85 78 e8 ff ff 	lea    -0x1788(%rbp),%rax
   165f9:	48 89 85 98 ea ff ff 	mov    %rax,-0x1568(%rbp)
   16600:	48 8d 05 65 ac 00 00 	lea    0xac65(%rip),%rax        # 2126c <g_119+0xc>
   16607:	48 89 85 a0 ea ff ff 	mov    %rax,-0x1560(%rbp)
   1660e:	48 8d 85 00 ec ff ff 	lea    -0x1400(%rbp),%rax
   16615:	48 83 c0 10          	add    $0x10,%rax
   16619:	48 89 85 a8 ea ff ff 	mov    %rax,-0x1558(%rbp)
   16620:	48 8d 85 50 eb ff ff 	lea    -0x14b0(%rbp),%rax
   16627:	48 83 c0 18          	add    $0x18,%rax
   1662b:	48 89 85 b0 ea ff ff 	mov    %rax,-0x1550(%rbp)
   16632:	48 8d 05 d3 ac 00 00 	lea    0xacd3(%rip),%rax        # 2130c <g_119+0xac>
   16639:	48 89 85 b8 ea ff ff 	mov    %rax,-0x1548(%rbp)
   16640:	48 8d 85 78 e8 ff ff 	lea    -0x1788(%rbp),%rax
   16647:	48 89 85 c0 ea ff ff 	mov    %rax,-0x1540(%rbp)
   1664e:	48 8d 85 58 e9 ff ff 	lea    -0x16a8(%rbp),%rax
   16655:	48 89 85 c8 ea ff ff 	mov    %rax,-0x1538(%rbp)
   1665c:	48 c7 85 60 f4 ff ff 	movq   $0x0,-0xba0(%rbp)
   16663:	00 00 00 00 
   16667:	48 8d 85 58 e9 ff ff 	lea    -0x16a8(%rbp),%rax
   1666e:	48 89 85 68 f4 ff ff 	mov    %rax,-0xb98(%rbp)
   16675:	48 8d 85 70 e8 ff ff 	lea    -0x1790(%rbp),%rax
   1667c:	48 89 85 70 f4 ff ff 	mov    %rax,-0xb90(%rbp)
   16683:	48 c7 85 78 f4 ff ff 	movq   $0x0,-0xb88(%rbp)
   1668a:	00 00 00 00 
   1668e:	48 c7 85 80 f4 ff ff 	movq   $0x0,-0xb80(%rbp)
   16695:	00 00 00 00 
   16699:	48 8d 85 70 e8 ff ff 	lea    -0x1790(%rbp),%rax
   166a0:	48 89 85 88 f4 ff ff 	mov    %rax,-0xb78(%rbp)
   166a7:	48 8d 85 58 e9 ff ff 	lea    -0x16a8(%rbp),%rax
   166ae:	48 89 85 90 f4 ff ff 	mov    %rax,-0xb70(%rbp)
   166b5:	48 8d 85 78 e8 ff ff 	lea    -0x1788(%rbp),%rax
   166bc:	48 89 85 98 f4 ff ff 	mov    %rax,-0xb68(%rbp)
   166c3:	48 8d 05 86 ad 00 00 	lea    0xad86(%rip),%rax        # 21450 <g_547>
   166ca:	48 89 85 a0 f4 ff ff 	mov    %rax,-0xb60(%rbp)
   166d1:	48 8d 05 6c a9 00 00 	lea    0xa96c(%rip),%rax        # 21044 <g_62+0x4>
   166d8:	48 89 85 a8 f4 ff ff 	mov    %rax,-0xb58(%rbp)
   166df:	48 8d 85 78 e8 ff ff 	lea    -0x1788(%rbp),%rax
   166e6:	48 89 85 b0 f4 ff ff 	mov    %rax,-0xb50(%rbp)
   166ed:	48 8d 05 50 a9 00 00 	lea    0xa950(%rip),%rax        # 21044 <g_62+0x4>
   166f4:	48 89 85 b8 f4 ff ff 	mov    %rax,-0xb48(%rbp)
   166fb:	48 8d 05 42 a9 00 00 	lea    0xa942(%rip),%rax        # 21044 <g_62+0x4>
   16702:	48 89 85 c0 f4 ff ff 	mov    %rax,-0xb40(%rbp)
   16709:	48 8d 85 78 e8 ff ff 	lea    -0x1788(%rbp),%rax
   16710:	48 89 85 c8 f4 ff ff 	mov    %rax,-0xb38(%rbp)
   16717:	48 8d 85 78 e8 ff ff 	lea    -0x1788(%rbp),%rax
   1671e:	48 89 85 d0 f4 ff ff 	mov    %rax,-0xb30(%rbp)
   16725:	48 8d 85 58 e9 ff ff 	lea    -0x16a8(%rbp),%rax
   1672c:	48 89 85 d8 f4 ff ff 	mov    %rax,-0xb28(%rbp)
   16733:	48 8d 85 78 e8 ff ff 	lea    -0x1788(%rbp),%rax
   1673a:	48 89 85 e0 f4 ff ff 	mov    %rax,-0xb20(%rbp)
   16741:	48 8d 85 68 e8 ff ff 	lea    -0x1798(%rbp),%rax
   16748:	48 89 85 e8 f4 ff ff 	mov    %rax,-0xb18(%rbp)
   1674f:	48 8d 85 58 e9 ff ff 	lea    -0x16a8(%rbp),%rax
   16756:	48 89 85 f0 f4 ff ff 	mov    %rax,-0xb10(%rbp)
   1675d:	48 c7 85 f8 f4 ff ff 	movq   $0x0,-0xb08(%rbp)
   16764:	00 00 00 00 
   16768:	48 c7 85 00 f5 ff ff 	movq   $0x0,-0xb00(%rbp)
   1676f:	00 00 00 00 
   16773:	48 8d 85 00 ec ff ff 	lea    -0x1400(%rbp),%rax
   1677a:	48 83 c0 10          	add    $0x10,%rax
   1677e:	48 89 85 08 f5 ff ff 	mov    %rax,-0xaf8(%rbp)
   16785:	48 8d 85 78 e8 ff ff 	lea    -0x1788(%rbp),%rax
   1678c:	48 89 85 10 f5 ff ff 	mov    %rax,-0xaf0(%rbp)
   16793:	48 8d 85 68 e8 ff ff 	lea    -0x1798(%rbp),%rax
   1679a:	48 89 85 18 f5 ff ff 	mov    %rax,-0xae8(%rbp)
   167a1:	48 8d 85 78 e8 ff ff 	lea    -0x1788(%rbp),%rax
   167a8:	48 89 85 20 f5 ff ff 	mov    %rax,-0xae0(%rbp)
   167af:	48 8d 85 00 ec ff ff 	lea    -0x1400(%rbp),%rax
   167b6:	48 83 c0 10          	add    $0x10,%rax
   167ba:	48 89 85 28 f5 ff ff 	mov    %rax,-0xad8(%rbp)
   167c1:	48 8d 85 68 e8 ff ff 	lea    -0x1798(%rbp),%rax
   167c8:	48 89 85 30 f5 ff ff 	mov    %rax,-0xad0(%rbp)
   167cf:	48 8d 85 00 ec ff ff 	lea    -0x1400(%rbp),%rax
   167d6:	48 83 c0 2c          	add    $0x2c,%rax
   167da:	48 89 85 38 f5 ff ff 	mov    %rax,-0xac8(%rbp)
   167e1:	48 c7 85 40 f5 ff ff 	movq   $0x0,-0xac0(%rbp)
   167e8:	00 00 00 00 
   167ec:	48 c7 85 48 f5 ff ff 	movq   $0x0,-0xab8(%rbp)
   167f3:	00 00 00 00 
   167f7:	48 8d 85 68 e8 ff ff 	lea    -0x1798(%rbp),%rax
   167fe:	48 89 85 50 f5 ff ff 	mov    %rax,-0xab0(%rbp)
   16805:	48 c7 85 58 f5 ff ff 	movq   $0x0,-0xaa8(%rbp)
   1680c:	00 00 00 00 
   16810:	48 8d 85 68 e8 ff ff 	lea    -0x1798(%rbp),%rax
   16817:	48 89 85 60 f5 ff ff 	mov    %rax,-0xaa0(%rbp)
   1681e:	48 c7 85 68 f5 ff ff 	movq   $0x0,-0xa98(%rbp)
   16825:	00 00 00 00 
   16829:	48 c7 85 70 f5 ff ff 	movq   $0x0,-0xa90(%rbp)
   16830:	00 00 00 00 
   16834:	48 8d 05 09 a8 00 00 	lea    0xa809(%rip),%rax        # 21044 <g_62+0x4>
   1683b:	48 89 85 78 f5 ff ff 	mov    %rax,-0xa88(%rbp)
   16842:	48 8d 85 00 ec ff ff 	lea    -0x1400(%rbp),%rax
   16849:	48 83 c0 2c          	add    $0x2c,%rax
   1684d:	48 89 85 80 f5 ff ff 	mov    %rax,-0xa80(%rbp)
   16854:	48 8d 05 f5 ab 00 00 	lea    0xabf5(%rip),%rax        # 21450 <g_547>
   1685b:	48 89 85 88 f5 ff ff 	mov    %rax,-0xa78(%rbp)
   16862:	48 8d 05 db a7 00 00 	lea    0xa7db(%rip),%rax        # 21044 <g_62+0x4>
   16869:	48 89 85 90 f5 ff ff 	mov    %rax,-0xa70(%rbp)
   16870:	48 8d 85 00 ec ff ff 	lea    -0x1400(%rbp),%rax
   16877:	48 83 c0 2c          	add    $0x2c,%rax
   1687b:	48 89 85 98 f5 ff ff 	mov    %rax,-0xa68(%rbp)
   16882:	48 8d 05 bb a7 00 00 	lea    0xa7bb(%rip),%rax        # 21044 <g_62+0x4>
   16889:	48 89 85 a0 f5 ff ff 	mov    %rax,-0xa60(%rbp)
   16890:	48 8d 05 b9 ab 00 00 	lea    0xabb9(%rip),%rax        # 21450 <g_547>
   16897:	48 89 85 a8 f5 ff ff 	mov    %rax,-0xa58(%rbp)
   1689e:	48 c7 85 b0 f5 ff ff 	movq   $0x0,-0xa50(%rbp)
   168a5:	00 00 00 00 
   168a9:	48 c7 85 b8 f5 ff ff 	movq   $0x0,-0xa48(%rbp)
   168b0:	00 00 00 00 
   168b4:	48 8d 85 70 e8 ff ff 	lea    -0x1790(%rbp),%rax
   168bb:	48 89 85 c0 f5 ff ff 	mov    %rax,-0xa40(%rbp)
   168c2:	48 8d 85 58 e9 ff ff 	lea    -0x16a8(%rbp),%rax
   168c9:	48 89 85 c8 f5 ff ff 	mov    %rax,-0xa38(%rbp)
   168d0:	48 c7 85 d0 f5 ff ff 	movq   $0x0,-0xa30(%rbp)
   168d7:	00 00 00 00 
   168db:	48 8d 85 70 e8 ff ff 	lea    -0x1790(%rbp),%rax
   168e2:	48 89 85 d8 f5 ff ff 	mov    %rax,-0xa28(%rbp)
   168e9:	48 c7 85 e0 f5 ff ff 	movq   $0x0,-0xa20(%rbp)
   168f0:	00 00 00 00 
   168f4:	48 8d 85 00 ec ff ff 	lea    -0x1400(%rbp),%rax
   168fb:	48 83 c0 10          	add    $0x10,%rax
   168ff:	48 89 85 e8 f5 ff ff 	mov    %rax,-0xa18(%rbp)
   16906:	48 8d 05 43 ab 00 00 	lea    0xab43(%rip),%rax        # 21450 <g_547>
   1690d:	48 89 85 f0 f5 ff ff 	mov    %rax,-0xa10(%rbp)
   16914:	48 8d 05 35 ab 00 00 	lea    0xab35(%rip),%rax        # 21450 <g_547>
   1691b:	48 89 85 f8 f5 ff ff 	mov    %rax,-0xa08(%rbp)
   16922:	48 8d 85 00 ec ff ff 	lea    -0x1400(%rbp),%rax
   16929:	48 83 c0 10          	add    $0x10,%rax
   1692d:	48 89 85 00 f6 ff ff 	mov    %rax,-0xa00(%rbp)
   16934:	48 8d 05 09 a7 00 00 	lea    0xa709(%rip),%rax        # 21044 <g_62+0x4>
   1693b:	48 89 85 08 f6 ff ff 	mov    %rax,-0x9f8(%rbp)
   16942:	48 8d 05 fb a6 00 00 	lea    0xa6fb(%rip),%rax        # 21044 <g_62+0x4>
   16949:	48 89 85 10 f6 ff ff 	mov    %rax,-0x9f0(%rbp)
   16950:	48 8d 85 00 ec ff ff 	lea    -0x1400(%rbp),%rax
   16957:	48 83 c0 10          	add    $0x10,%rax
   1695b:	48 89 85 18 f6 ff ff 	mov    %rax,-0x9e8(%rbp)
   16962:	48 8d 85 78 e8 ff ff 	lea    -0x1788(%rbp),%rax
   16969:	48 89 85 20 f6 ff ff 	mov    %rax,-0x9e0(%rbp)
   16970:	48 c7 85 28 f6 ff ff 	movq   $0x0,-0x9d8(%rbp)
   16977:	00 00 00 00 
   1697b:	48 8d 85 68 e8 ff ff 	lea    -0x1798(%rbp),%rax
   16982:	48 89 85 30 f6 ff ff 	mov    %rax,-0x9d0(%rbp)
   16989:	48 8d 85 68 e8 ff ff 	lea    -0x1798(%rbp),%rax
   16990:	48 89 85 38 f6 ff ff 	mov    %rax,-0x9c8(%rbp)
   16997:	48 c7 85 40 f6 ff ff 	movq   $0x0,-0x9c0(%rbp)
   1699e:	00 00 00 00 
   169a2:	48 8d 85 78 e8 ff ff 	lea    -0x1788(%rbp),%rax
   169a9:	48 89 85 48 f6 ff ff 	mov    %rax,-0x9b8(%rbp)
   169b0:	48 c7 85 50 f6 ff ff 	movq   $0x0,-0x9b0(%rbp)
   169b7:	00 00 00 00 
   169bb:	48 8b 85 18 ea ff ff 	mov    -0x15e8(%rbp),%rax
   169c2:	8b 00                	mov    (%rax),%eax
   169c4:	48 63 d8             	movslq %eax,%rbx
   169c7:	8b 85 58 e9 ff ff    	mov    -0x16a8(%rbp),%eax
   169cd:	48 63 d0             	movslq %eax,%rdx
   169d0:	48 8b 85 18 e9 ff ff 	mov    -0x16e8(%rbp),%rax
   169d7:	48 8b 00             	mov    (%rax),%rax
   169da:	48 89 85 40 ea ff ff 	mov    %rax,-0x15c0(%rbp)
   169e1:	48 8b 85 b8 eb ff ff 	mov    -0x1448(%rbp),%rax
   169e8:	48 89 85 48 ea ff ff 	mov    %rax,-0x15b8(%rbp)
   169ef:	48 8b 85 40 ea ff ff 	mov    -0x15c0(%rbp),%rax
   169f6:	48 3b 85 48 ea ff ff 	cmp    -0x15b8(%rbp),%rax
   169fd:	75 21                	jne    16a20 <func_51+0x3533>
   169ff:	48 8b 85 30 e8 ff ff 	mov    -0x17d0(%rbp),%rax
   16a06:	48 89 05 2b aa 00 00 	mov    %rax,0xaa2b(%rip)        # 21438 <g_289>
   16a0d:	48 8b 05 24 aa 00 00 	mov    0xaa24(%rip),%rax        # 21438 <g_289>
   16a14:	48 85 c0             	test   %rax,%rax
   16a17:	74 07                	je     16a20 <func_51+0x3533>
   16a19:	b8 01 00 00 00       	mov    $0x1,%eax
   16a1e:	eb 05                	jmp    16a25 <func_51+0x3538>
   16a20:	b8 00 00 00 00       	mov    $0x0,%eax
   16a25:	48 98                	cltq   
   16a27:	48 89 d6             	mov    %rdx,%rsi
   16a2a:	48 89 c7             	mov    %rax,%rdi
   16a2d:	e8 0f 3e ff ff       	callq  a841 <safe_add_func_int64_t_s_s>
   16a32:	48 8b 85 30 e8 ff ff 	mov    -0x17d0(%rbp),%rax
   16a39:	44 0f b6 e0          	movzbl %al,%r12d
   16a3d:	8b 85 58 e9 ff ff    	mov    -0x16a8(%rbp),%eax
   16a43:	44 0f be e8          	movsbl %al,%r13d
   16a47:	48 8b 85 c0 e9 ff ff 	mov    -0x1640(%rbp),%rax
   16a4e:	48 8b 00             	mov    (%rax),%rax
   16a51:	8b 00                	mov    (%rax),%eax
   16a53:	85 c0                	test   %eax,%eax
   16a55:	75 07                	jne    16a5e <func_51+0x3571>
   16a57:	ba 7a 00 00 00       	mov    $0x7a,%edx
   16a5c:	eb 05                	jmp    16a63 <func_51+0x3576>
   16a5e:	ba 7b 00 00 00       	mov    $0x7b,%edx
   16a63:	48 8d 85 30 e9 ff ff 	lea    -0x16d0(%rbp),%rax
   16a6a:	48 39 85 88 e9 ff ff 	cmp    %rax,-0x1678(%rbp)
   16a71:	0f 94 c0             	sete   %al
   16a74:	0f b6 c0             	movzbl %al,%eax
   16a77:	89 d6                	mov    %edx,%esi
   16a79:	89 c7                	mov    %eax,%edi
   16a7b:	e8 b1 37 ff ff       	callq  a231 <safe_mod_func_int8_t_s_s>
   16a80:	be ff ff 00 00       	mov    $0xffff,%esi
   16a85:	bf 7a b1 00 00       	mov    $0xb17a,%edi
   16a8a:	e8 ae 42 ff ff       	callq  ad3d <safe_mul_func_uint16_t_u_u>
   16a8f:	0f b6 95 50 e8 ff ff 	movzbl -0x17b0(%rbp),%edx
   16a96:	66 39 d0             	cmp    %dx,%ax
   16a99:	0f 97 c0             	seta   %al
   16a9c:	0f b6 c0             	movzbl %al,%eax
   16a9f:	44 89 ee             	mov    %r13d,%esi
   16aa2:	89 c7                	mov    %eax,%edi
   16aa4:	e8 69 37 ff ff       	callq  a212 <safe_mul_func_int8_t_s_s>
   16aa9:	0f b6 c0             	movzbl %al,%eax
   16aac:	44 89 e6             	mov    %r12d,%esi
   16aaf:	89 c7                	mov    %eax,%edi
   16ab1:	e8 f8 40 ff ff       	callq  abae <safe_mod_func_uint8_t_u_u>
   16ab6:	0f b6 d0             	movzbl %al,%edx
   16ab9:	8b 85 58 e9 ff ff    	mov    -0x16a8(%rbp),%eax
   16abf:	39 c2                	cmp    %eax,%edx
   16ac1:	48 89 de             	mov    %rbx,%rsi
   16ac4:	bf 01 00 00 00       	mov    $0x1,%edi
   16ac9:	e8 b2 45 ff ff       	callq  b080 <safe_mod_func_uint64_t_u_u>
   16ace:	8b 15 78 a5 00 00    	mov    0xa578(%rip),%edx        # 2104c <g_62+0xc>
   16ad4:	48 63 d2             	movslq %edx,%rdx
   16ad7:	48 39 d0             	cmp    %rdx,%rax
   16ada:	48 8b 05 47 c1 00 00 	mov    0xc147(%rip),%rax        # 22c28 <g_486>
   16ae1:	48 8b 00             	mov    (%rax),%rax
   16ae4:	48 8b 95 38 e8 ff ff 	mov    -0x17c8(%rbp),%rdx
   16aeb:	48 8b 85 80 ea ff ff 	mov    -0x1580(%rbp),%rax
   16af2:	8b 00                	mov    (%rax),%eax
   16af4:	21 c2                	and    %eax,%edx
   16af6:	48 8b 85 80 ea ff ff 	mov    -0x1580(%rbp),%rax
   16afd:	89 10                	mov    %edx,(%rax)
   16aff:	0f b6 95 50 e8 ff ff 	movzbl -0x17b0(%rbp),%edx
   16b06:	48 8b 05 23 c1 00 00 	mov    0xc123(%rip),%rax        # 22c30 <g_566>
   16b0d:	0f b7 00             	movzwl (%rax),%eax
   16b10:	66 89 05 31 a7 00 00 	mov    %ax,0xa731(%rip)        # 21248 <g_115>
   16b17:	0f b7 05 2a a7 00 00 	movzwl 0xa72a(%rip),%eax        # 21248 <g_115>
   16b1e:	0f bf c8             	movswl %ax,%ecx
   16b21:	0f b6 85 31 eb ff ff 	movzbl -0x14cf(%rbp),%eax
   16b28:	0f b6 c0             	movzbl %al,%eax
   16b2b:	39 c1                	cmp    %eax,%ecx
   16b2d:	0f 9c c0             	setl   %al
   16b30:	0f b6 c0             	movzbl %al,%eax
   16b33:	89 d6                	mov    %edx,%esi
   16b35:	89 c7                	mov    %eax,%edi
   16b37:	e8 19 39 ff ff       	callq  a455 <safe_div_func_int16_t_s_s>
   16b3c:	98                   	cwtl   
   16b3d:	09 85 98 e8 ff ff    	or     %eax,-0x1768(%rbp)
   16b43:	8b 95 98 e8 ff ff    	mov    -0x1768(%rbp),%edx
   16b49:	48 8b 85 18 ea ff ff 	mov    -0x15e8(%rbp),%rax
   16b50:	c7 00 f8 ff ff ff    	movl   $0xfffffff8,(%rax)
   16b56:	48 8b 85 18 ea ff ff 	mov    -0x15e8(%rbp),%rax
   16b5d:	8b 00                	mov    (%rax),%eax
   16b5f:	89 d6                	mov    %edx,%esi
   16b61:	89 c7                	mov    %eax,%edi
   16b63:	e8 9d 3a ff ff       	callq  a605 <safe_sub_func_int32_t_s_s>
   16b68:	48 8b 85 30 e8 ff ff 	mov    -0x17d0(%rbp),%rax
   16b6f:	48 3b 85 38 e8 ff ff 	cmp    -0x17c8(%rbp),%rax
   16b76:	0f 9c c0             	setl   %al
   16b79:	0f b6 c0             	movzbl %al,%eax
   16b7c:	be fd ff ff ff       	mov    $0xfffffffd,%esi
   16b81:	89 c7                	mov    %eax,%edi
   16b83:	e8 8e 38 ff ff       	callq  a416 <safe_mod_func_int16_t_s_s>
   16b88:	48 c7 85 18 f2 ff ff 	movq   $0x0,-0xde8(%rbp)
   16b8f:	00 00 00 00 
   16b93:	48 8b 95 18 f2 ff ff 	mov    -0xde8(%rbp),%rdx
   16b9a:	48 8b 85 20 ea ff ff 	mov    -0x15e0(%rbp),%rax
   16ba1:	48 8d 0d 88 a8 00 00 	lea    0xa888(%rip),%rcx        # 21430 <g_264+0x30>
   16ba8:	48 89 08             	mov    %rcx,(%rax)
   16bab:	48 8b 85 20 ea ff ff 	mov    -0x15e0(%rbp),%rax
   16bb2:	48 8b 00             	mov    (%rax),%rax
   16bb5:	48 39 c2             	cmp    %rax,%rdx
   16bb8:	0f 94 c0             	sete   %al
   16bbb:	0f b6 c0             	movzbl %al,%eax
   16bbe:	be ff ff ff ff       	mov    $0xffffffff,%esi
   16bc3:	89 c7                	mov    %eax,%edi
   16bc5:	e8 e9 37 ff ff       	callq  a3b3 <safe_add_func_int16_t_s_s>
   16bca:	48 8b 95 80 ea ff ff 	mov    -0x1580(%rbp),%rdx
   16bd1:	8b 12                	mov    (%rdx),%edx
   16bd3:	98                   	cwtl   
   16bd4:	09 c2                	or     %eax,%edx
   16bd6:	48 8b 85 80 ea ff ff 	mov    -0x1580(%rbp),%rax
   16bdd:	89 10                	mov    %edx,(%rax)
   16bdf:	66 83 85 5e e8 ff ff 	addw   $0x1,-0x17a2(%rbp)
   16be6:	01 
   16be7:	8b 85 78 eb ff ff    	mov    -0x1488(%rbp),%eax
   16bed:	83 c0 01             	add    $0x1,%eax
   16bf0:	89 85 78 eb ff ff    	mov    %eax,-0x1488(%rbp)
   16bf6:	48 83 85 70 e9 ff ff 	addq   $0x1,-0x1690(%rbp)
   16bfd:	01 
   16bfe:	48 8b 85 18 ea ff ff 	mov    -0x15e8(%rbp),%rax
   16c05:	c7 00 00 00 00 00    	movl   $0x0,(%rax)
   16c0b:	66 c7 85 62 e8 ff ff 	movw   $0x5c9c,-0x179e(%rbp)
   16c12:	9c 5c 
   16c14:	c7 85 e4 e8 ff ff 02 	movl   $0x2,-0x171c(%rbp)
   16c1b:	00 00 00 
   16c1e:	48 8d 05 a3 be 00 00 	lea    0xbea3(%rip),%rax        # 22ac8 <g_186+0x28>
   16c25:	48 89 85 d0 ea ff ff 	mov    %rax,-0x1530(%rbp)
   16c2c:	c7 85 a0 e8 ff ff 00 	movl   $0x0,-0x1760(%rbp)
   16c33:	00 00 00 
   16c36:	eb 1a                	jmp    16c52 <func_51+0x3765>
   16c38:	8b 85 a0 e8 ff ff    	mov    -0x1760(%rbp),%eax
   16c3e:	48 98                	cltq   
   16c40:	c7 84 85 60 f4 ff ff 	movl   $0xffffffff,-0xba0(%rbp,%rax,4)
   16c47:	ff ff ff ff 
   16c4b:	83 85 a0 e8 ff ff 01 	addl   $0x1,-0x1760(%rbp)
   16c52:	83 bd a0 e8 ff ff 00 	cmpl   $0x0,-0x1760(%rbp)
   16c59:	7e dd                	jle    16c38 <func_51+0x374b>
   16c5b:	48 8b 85 78 ea ff ff 	mov    -0x1588(%rbp),%rax
   16c62:	c7 00 00 00 00 00    	movl   $0x0,(%rax)
   16c68:	48 8b 05 59 d0 00 00 	mov    0xd059(%rip),%rax        # 23cc8 <g_1415>
   16c6f:	48 8b 00             	mov    (%rax),%rax
   16c72:	48 8b 00             	mov    (%rax),%rax
   16c75:	8b 00                	mov    (%rax),%eax
   16c77:	85 c0                	test   %eax,%eax
   16c79:	0f 85 d0 00 00 00    	jne    16d4f <func_51+0x3862>
   16c7f:	83 ad e4 e8 ff ff 01 	subl   $0x1,-0x171c(%rbp)
   16c86:	48 8b 05 4b d0 00 00 	mov    0xd04b(%rip),%rax        # 23cd8 <g_1437>
   16c8d:	48 8b 00             	mov    (%rax),%rax
   16c90:	48 8b 18             	mov    (%rax),%rbx
   16c93:	48 8d 85 28 e9 ff ff 	lea    -0x16d8(%rbp),%rax
   16c9a:	48 39 85 d0 ea ff ff 	cmp    %rax,-0x1530(%rbp)
   16ca1:	0f 94 c0             	sete   %al
   16ca4:	0f b6 c0             	movzbl %al,%eax
   16ca7:	89 c6                	mov    %eax,%esi
   16ca9:	bf fa ff ff ff       	mov    $0xfffffffa,%edi
   16cae:	e8 5f 35 ff ff       	callq  a212 <safe_mul_func_int8_t_s_s>
   16cb3:	0f b6 c0             	movzbl %al,%eax
   16cb6:	89 c7                	mov    %eax,%edi
   16cb8:	e8 88 3e ff ff       	callq  ab45 <safe_unary_minus_func_uint8_t_u>
   16cbd:	3c 09                	cmp    $0x9,%al
   16cbf:	0f 96 c0             	setbe  %al
   16cc2:	0f b6 c0             	movzbl %al,%eax
   16cc5:	89 c7                	mov    %eax,%edi
   16cc7:	e8 d1 36 ff ff       	callq  a39d <safe_unary_minus_func_int16_t_s>
   16ccc:	0f b6 85 4d e8 ff ff 	movzbl -0x17b3(%rbp),%eax
   16cd3:	0f b6 d0             	movzbl %al,%edx
   16cd6:	48 8b 85 70 ea ff ff 	mov    -0x1590(%rbp),%rax
   16cdd:	89 10                	mov    %edx,(%rax)
   16cdf:	be 0c 00 00 00       	mov    $0xc,%esi
   16ce4:	bf 00 00 00 00       	mov    $0x0,%edi
   16ce9:	e8 3c 38 ff ff       	callq  a52a <safe_rshift_func_int16_t_s_s>
   16cee:	48 8b 15 03 9d 00 00 	mov    0x9d03(%rip),%rdx        # 209f8 <l_1830.4931+0x18>
   16cf5:	48 8b 05 dc 9f 00 00 	mov    0x9fdc(%rip),%rax        # 20cd8 <l_1830.4931+0x2f8>
   16cfc:	48 39 c2             	cmp    %rax,%rdx
   16cff:	0f 94 c0             	sete   %al
   16d02:	0f b6 c0             	movzbl %al,%eax
   16d05:	48 89 de             	mov    %rbx,%rsi
   16d08:	48 89 c7             	mov    %rax,%rdi
   16d0b:	e8 31 3b ff ff       	callq  a841 <safe_add_func_int64_t_s_s>
   16d10:	0f b6 c0             	movzbl %al,%eax
   16d13:	be 03 00 00 00       	mov    $0x3,%esi
   16d18:	89 c7                	mov    %eax,%edi
   16d1a:	e8 e6 3e ff ff       	callq  ac05 <safe_lshift_func_uint8_t_u_s>
   16d1f:	0f b6 d0             	movzbl %al,%edx
   16d22:	48 8b 85 58 ea ff ff 	mov    -0x15a8(%rbp),%rax
   16d29:	89 10                	mov    %edx,(%rax)
   16d2b:	48 8b 05 0e a5 00 00 	mov    0xa50e(%rip),%rax        # 21240 <g_101>
   16d32:	48 83 e8 01          	sub    $0x1,%rax
   16d36:	48 89 05 03 a5 00 00 	mov    %rax,0xa503(%rip)        # 21240 <g_101>
   16d3d:	48 8b 05 fc a4 00 00 	mov    0xa4fc(%rip),%rax        # 21240 <g_101>
   16d44:	48 85 c0             	test   %rax,%rax
   16d47:	0f 8f ca f3 ff ff    	jg     16117 <func_51+0x2c2a>
   16d4d:	eb 01                	jmp    16d50 <func_51+0x3863>
   16d4f:	90                   	nop
   16d50:	48 8b 85 18 e9 ff ff 	mov    -0x16e8(%rbp),%rax
   16d57:	48 8b 00             	mov    (%rax),%rax
   16d5a:	e9 88 0c 00 00       	jmpq   179e7 <func_51+0x44fa>
   16d5f:	48 8b 85 30 e8 ff ff 	mov    -0x17d0(%rbp),%rax
   16d66:	89 85 64 eb ff ff    	mov    %eax,-0x149c(%rbp)
   16d6c:	48 8d 85 50 eb ff ff 	lea    -0x14b0(%rbp),%rax
   16d73:	48 83 c0 18          	add    $0x18,%rax
   16d77:	48 89 85 90 e9 ff ff 	mov    %rax,-0x1670(%rbp)
   16d7e:	e9 38 0c 00 00       	jmpq   179bb <func_51+0x44ce>
   16d83:	66 c7 85 60 e8 ff ff 	movw   $0xdece,-0x17a0(%rbp)
   16d8a:	ce de 
   16d8c:	48 c7 85 d0 eb ff ff 	movq   $0x0,-0x1430(%rbp)
   16d93:	00 00 00 00 
   16d97:	48 c7 85 d8 eb ff ff 	movq   $0x0,-0x1428(%rbp)
   16d9e:	00 00 00 00 
   16da2:	48 c7 85 e0 eb ff ff 	movq   $0x0,-0x1420(%rbp)
   16da9:	00 00 00 00 
   16dad:	48 c7 85 e8 eb ff ff 	movq   $0x0,-0x1418(%rbp)
   16db4:	00 00 00 00 
   16db8:	48 c7 85 f0 eb ff ff 	movq   $0x0,-0x1410(%rbp)
   16dbf:	00 00 00 00 
   16dc3:	c7 85 a4 e8 ff ff 00 	movl   $0x0,-0x175c(%rbp)
   16dca:	00 00 00 
   16dcd:	eb 1a                	jmp    16de9 <func_51+0x38fc>
   16dcf:	8b 85 a4 e8 ff ff    	mov    -0x175c(%rbp),%eax
   16dd5:	48 98                	cltq   
   16dd7:	c7 84 85 30 eb ff ff 	movl   $0xfffffff9,-0x14d0(%rbp,%rax,4)
   16dde:	f9 ff ff ff 
   16de2:	83 85 a4 e8 ff ff 01 	addl   $0x1,-0x175c(%rbp)
   16de9:	83 bd a4 e8 ff ff 02 	cmpl   $0x2,-0x175c(%rbp)
   16df0:	7e dd                	jle    16dcf <func_51+0x38e2>
   16df2:	48 c7 85 20 e9 ff ff 	movq   $0x0,-0x16e0(%rbp)
   16df9:	00 00 00 00 
   16dfd:	e9 a8 0b 00 00       	jmpq   179aa <func_51+0x44bd>
   16e02:	48 bb e4 f0 49 50 eb 	movabs $0x91d1bdeb5049f0e4,%rbx
   16e09:	bd d1 91 
   16e0c:	48 89 9d 00 ec ff ff 	mov    %rbx,-0x1400(%rbp)
   16e13:	48 b8 eb f8 a4 61 e6 	movabs $0x2c4187e661a4f8eb,%rax
   16e1a:	87 41 2c 
   16e1d:	48 89 85 08 ec ff ff 	mov    %rax,-0x13f8(%rbp)
   16e24:	48 89 85 10 ec ff ff 	mov    %rax,-0x13f0(%rbp)
   16e2b:	48 89 9d 18 ec ff ff 	mov    %rbx,-0x13e8(%rbp)
   16e32:	48 89 85 20 ec ff ff 	mov    %rax,-0x13e0(%rbp)
   16e39:	48 89 85 28 ec ff ff 	mov    %rax,-0x13d8(%rbp)
   16e40:	48 89 9d 30 ec ff ff 	mov    %rbx,-0x13d0(%rbp)
   16e47:	c7 85 b8 e8 ff ff 00 	movl   $0x0,-0x1748(%rbp)
   16e4e:	00 00 00 
   16e51:	c7 85 bc e8 ff ff 24 	movl   $0xf95c5824,-0x1744(%rbp)
   16e58:	58 5c f9 
   16e5b:	c7 85 a0 eb ff ff a4 	movl   $0x7a71c4a4,-0x1460(%rbp)
   16e62:	c4 71 7a 
   16e65:	c7 85 a4 eb ff ff a4 	movl   $0x7a71c4a4,-0x145c(%rbp)
   16e6c:	c4 71 7a 
   16e6f:	c7 85 a8 eb ff ff a4 	movl   $0x7a71c4a4,-0x1458(%rbp)
   16e76:	c4 71 7a 
   16e79:	c7 85 ac eb ff ff a4 	movl   $0x7a71c4a4,-0x1454(%rbp)
   16e80:	c4 71 7a 
   16e83:	c7 85 b0 eb ff ff a4 	movl   $0x7a71c4a4,-0x1450(%rbp)
   16e8a:	c4 71 7a 
   16e8d:	48 8d 85 00 ef ff ff 	lea    -0x1100(%rbp),%rax
   16e94:	48 8d 15 05 66 00 00 	lea    0x6605(%rip),%rdx        # 1d4a0 <g_1542+0x1443>
   16e9b:	b9 3d 00 00 00       	mov    $0x3d,%ecx
   16ea0:	48 89 c7             	mov    %rax,%rdi
   16ea3:	48 89 d6             	mov    %rdx,%rsi
   16ea6:	f3 48 a5             	rep movsq %ds:(%rsi),%es:(%rdi)
   16ea9:	48 89 f2             	mov    %rsi,%rdx
   16eac:	48 89 f8             	mov    %rdi,%rax
   16eaf:	0f b7 0a             	movzwl (%rdx),%ecx
   16eb2:	66 89 08             	mov    %cx,(%rax)
   16eb5:	66 c7 85 5a e8 ff ff 	movw   $0x0,-0x17a6(%rbp)
   16ebc:	00 00 
   16ebe:	e9 ba 0a 00 00       	jmpq   1797d <func_51+0x4490>
   16ec3:	48 c7 85 e0 e9 ff ff 	movq   $0x0,-0x1620(%rbp)
   16eca:	00 00 00 00 
   16ece:	48 8d 85 4d e8 ff ff 	lea    -0x17b3(%rbp),%rax
   16ed5:	48 89 85 e8 e9 ff ff 	mov    %rax,-0x1618(%rbp)
   16edc:	c7 85 68 e9 ff ff fb 	movl   $0xfffffffb,-0x1698(%rbp)
   16ee3:	ff ff ff 
   16ee6:	c7 85 c0 e8 ff ff 77 	movl   $0xd71f7677,-0x1740(%rbp)
   16eed:	76 1f d7 
   16ef0:	c7 85 c4 e8 ff ff 6b 	movl   $0x7fcf476b,-0x173c(%rbp)
   16ef7:	47 cf 7f 
   16efa:	c7 85 40 ec ff ff f9 	movl   $0xfffffff9,-0x13c0(%rbp)
   16f01:	ff ff ff 
   16f04:	c7 85 44 ec ff ff 72 	movl   $0x70189e72,-0x13bc(%rbp)
   16f0b:	9e 18 70 
   16f0e:	c7 85 48 ec ff ff 01 	movl   $0x1,-0x13b8(%rbp)
   16f15:	00 00 00 
   16f18:	c7 85 4c ec ff ff 01 	movl   $0x1,-0x13b4(%rbp)
   16f1f:	00 00 00 
   16f22:	c7 85 50 ec ff ff 25 	movl   $0x5c23b325,-0x13b0(%rbp)
   16f29:	b3 23 5c 
   16f2c:	c7 85 54 ec ff ff 25 	movl   $0x5c23b325,-0x13ac(%rbp)
   16f33:	b3 23 5c 
   16f36:	c7 85 58 ec ff ff f9 	movl   $0xfffffff9,-0x13a8(%rbp)
   16f3d:	ff ff ff 
   16f40:	c7 85 5c ec ff ff 01 	movl   $0x1,-0x13a4(%rbp)
   16f47:	00 00 00 
   16f4a:	c7 85 60 ec ff ff 01 	movl   $0x1,-0x13a0(%rbp)
   16f51:	00 00 00 
   16f54:	c7 85 64 ec ff ff 72 	movl   $0x70189e72,-0x139c(%rbp)
   16f5b:	9e 18 70 
   16f5e:	c7 85 68 ec ff ff 01 	movl   $0x1,-0x1398(%rbp)
   16f65:	00 00 00 
   16f68:	c7 85 6c ec ff ff f9 	movl   $0xfffffff9,-0x1394(%rbp)
   16f6f:	ff ff ff 
   16f72:	c7 85 70 ec ff ff 01 	movl   $0x1,-0x1390(%rbp)
   16f79:	00 00 00 
   16f7c:	c7 85 74 ec ff ff f9 	movl   $0xfffffff9,-0x138c(%rbp)
   16f83:	ff ff ff 
   16f86:	c7 85 78 ec ff ff f9 	movl   $0xfffffff9,-0x1388(%rbp)
   16f8d:	ff ff ff 
   16f90:	c7 85 7c ec ff ff 01 	movl   $0x1,-0x1384(%rbp)
   16f97:	00 00 00 
   16f9a:	c7 85 80 ec ff ff 25 	movl   $0x5c23b325,-0x1380(%rbp)
   16fa1:	b3 23 5c 
   16fa4:	c7 85 84 ec ff ff f9 	movl   $0xfffffff9,-0x137c(%rbp)
   16fab:	ff ff ff 
   16fae:	c7 85 88 ec ff ff 01 	movl   $0x1,-0x1378(%rbp)
   16fb5:	00 00 00 
   16fb8:	c7 85 8c ec ff ff f9 	movl   $0xfffffff9,-0x1374(%rbp)
   16fbf:	ff ff ff 
   16fc2:	c7 85 90 ec ff ff f9 	movl   $0xfffffff9,-0x1370(%rbp)
   16fc9:	ff ff ff 
   16fcc:	c7 85 94 ec ff ff 72 	movl   $0x70189e72,-0x136c(%rbp)
   16fd3:	9e 18 70 
   16fd6:	c7 85 98 ec ff ff 01 	movl   $0x1,-0x1368(%rbp)
   16fdd:	00 00 00 
   16fe0:	c7 85 9c ec ff ff 01 	movl   $0x1,-0x1364(%rbp)
   16fe7:	00 00 00 
   16fea:	c7 85 a0 ec ff ff 25 	movl   $0x5c23b325,-0x1360(%rbp)
   16ff1:	b3 23 5c 
   16ff4:	c7 85 a4 ec ff ff 25 	movl   $0x5c23b325,-0x135c(%rbp)
   16ffb:	b3 23 5c 
   16ffe:	c7 85 a8 ec ff ff f9 	movl   $0xfffffff9,-0x1358(%rbp)
   17005:	ff ff ff 
   17008:	c7 85 ac ec ff ff 01 	movl   $0x1,-0x1354(%rbp)
   1700f:	00 00 00 
   17012:	c7 85 b0 ec ff ff 01 	movl   $0x1,-0x1350(%rbp)
   17019:	00 00 00 
   1701c:	c7 85 b4 ec ff ff 72 	movl   $0x70189e72,-0x134c(%rbp)
   17023:	9e 18 70 
   17026:	c7 85 b8 ec ff ff 01 	movl   $0x1,-0x1348(%rbp)
   1702d:	00 00 00 
   17030:	c7 85 bc ec ff ff 01 	movl   $0x1,-0x1344(%rbp)
   17037:	00 00 00 
   1703a:	c7 85 c0 ec ff ff 01 	movl   $0x1,-0x1340(%rbp)
   17041:	00 00 00 
   17044:	c7 85 c4 ec ff ff 01 	movl   $0x1,-0x133c(%rbp)
   1704b:	00 00 00 
   1704e:	c7 85 c8 ec ff ff 01 	movl   $0x1,-0x1338(%rbp)
   17055:	00 00 00 
   17058:	c7 85 cc ec ff ff 01 	movl   $0x1,-0x1334(%rbp)
   1705f:	00 00 00 
   17062:	48 8d 85 68 e8 ff ff 	lea    -0x1798(%rbp),%rax
   17069:	48 89 85 f0 e9 ff ff 	mov    %rax,-0x1610(%rbp)
   17070:	48 8d 85 40 f1 ff ff 	lea    -0xec0(%rbp),%rax
   17077:	48 8d 15 22 66 00 00 	lea    0x6622(%rip),%rdx        # 1d6a0 <g_1542+0x1643>
   1707e:	b9 5a 00 00 00       	mov    $0x5a,%ecx
   17083:	48 89 c7             	mov    %rax,%rdi
   17086:	48 89 d6             	mov    %rdx,%rsi
   17089:	f3 48 a5             	rep movsq %ds:(%rsi),%es:(%rdi)
   1708c:	c7 85 a8 e8 ff ff 00 	movl   $0x0,-0x1758(%rbp)
   17093:	00 00 00 
   17096:	eb 1e                	jmp    170b6 <func_51+0x3bc9>
   17098:	8b 85 a8 e8 ff ff    	mov    -0x1758(%rbp),%eax
   1709e:	48 98                	cltq   
   170a0:	48 8d 95 68 e9 ff ff 	lea    -0x1698(%rbp),%rdx
   170a7:	48 89 94 c5 70 eb ff 	mov    %rdx,-0x1490(%rbp,%rax,8)
   170ae:	ff 
   170af:	83 85 a8 e8 ff ff 01 	addl   $0x1,-0x1758(%rbp)
   170b6:	83 bd a8 e8 ff ff 01 	cmpl   $0x1,-0x1758(%rbp)
   170bd:	7e d9                	jle    17098 <func_51+0x3bab>
   170bf:	48 8b 85 30 e8 ff ff 	mov    -0x17d0(%rbp),%rax
   170c6:	0f b6 d8             	movzbl %al,%ebx
   170c9:	0f b7 85 60 e8 ff ff 	movzwl -0x17a0(%rbp),%eax
   170d0:	44 0f b6 e0          	movzbl %al,%r12d
   170d4:	4c 8b b5 30 ec ff ff 	mov    -0x13d0(%rbp),%r14
   170db:	48 8b 85 38 e8 ff ff 	mov    -0x17c8(%rbp),%rax
   170e2:	41 89 c7             	mov    %eax,%r15d
   170e5:	44 0f b7 ad 60 e8 ff 	movzwl -0x17a0(%rbp),%r13d
   170ec:	ff 
   170ed:	48 8b 85 30 e8 ff ff 	mov    -0x17d0(%rbp),%rax
   170f4:	89 85 2c e8 ff ff    	mov    %eax,-0x17d4(%rbp)
   170fa:	48 8b 85 38 e8 ff ff 	mov    -0x17c8(%rbp),%rax
   17101:	89 85 28 e8 ff ff    	mov    %eax,-0x17d8(%rbp)
   17107:	48 83 bd 30 e8 ff ff 	cmpq   $0x0,-0x17d0(%rbp)
   1710e:	00 
   1710f:	0f 95 c0             	setne  %al
   17112:	0f b6 c0             	movzbl %al,%eax
   17115:	48 89 c6             	mov    %rax,%rsi
   17118:	48 c7 c7 ff ff ff ff 	mov    $0xffffffffffffffff,%rdi
   1711f:	e8 27 3f ff ff       	callq  b04b <safe_sub_func_uint64_t_u_u>
   17124:	0f b7 c0             	movzwl %ax,%eax
   17127:	be e3 d1 00 00       	mov    $0xd1e3,%esi
   1712c:	89 c7                	mov    %eax,%edi
   1712e:	e8 ec 3b ff ff       	callq  ad1f <safe_sub_func_uint16_t_u_u>
   17133:	0f b7 c0             	movzwl %ax,%eax
   17136:	8b b5 28 e8 ff ff    	mov    -0x17d8(%rbp),%esi
   1713c:	89 c7                	mov    %eax,%edi
   1713e:	e8 ba 3d ff ff       	callq  aefd <safe_mod_func_uint32_t_u_u>
   17143:	0f bf d0             	movswl %ax,%edx
   17146:	48 8b 85 90 e9 ff ff 	mov    -0x1670(%rbp),%rax
   1714d:	8b 00                	mov    (%rax),%eax
   1714f:	98                   	cwtl   
   17150:	89 d6                	mov    %edx,%esi
   17152:	89 c7                	mov    %eax,%edi
   17154:	e8 9c 32 ff ff       	callq  a3f5 <safe_mul_func_int16_t_s_s>
   17159:	89 c2                	mov    %eax,%edx
   1715b:	48 8b 85 c0 e9 ff ff 	mov    -0x1640(%rbp),%rax
   17162:	48 8b 00             	mov    (%rax),%rax
   17165:	0f bf d2             	movswl %dx,%edx
   17168:	89 10                	mov    %edx,(%rax)
   1716a:	8b 00                	mov    (%rax),%eax
   1716c:	89 c2                	mov    %eax,%edx
   1716e:	48 8b 85 38 e8 ff ff 	mov    -0x17c8(%rbp),%rax
   17175:	31 d0                	xor    %edx,%eax
   17177:	0f be c0             	movsbl %al,%eax
   1717a:	8b b5 2c e8 ff ff    	mov    -0x17d4(%rbp),%esi
   17180:	89 c7                	mov    %eax,%edi
   17182:	e8 1a 31 ff ff       	callq  a2a1 <safe_lshift_func_int8_t_s_s>
   17187:	48 0f be d0          	movsbq %al,%rdx
   1718b:	48 8b 85 38 e8 ff ff 	mov    -0x17c8(%rbp),%rax
   17192:	48 89 d6             	mov    %rdx,%rsi
   17195:	48 89 c7             	mov    %rax,%rdi
   17198:	e8 a4 36 ff ff       	callq  a841 <safe_add_func_int64_t_s_s>
   1719d:	48 89 c2             	mov    %rax,%rdx
   171a0:	48 b8 29 c3 cc 87 00 	movabs $0xd2f6610087ccc329,%rax
   171a7:	61 f6 d2 
   171aa:	48 39 c2             	cmp    %rax,%rdx
   171ad:	0f 97 c0             	seta   %al
   171b0:	0f b6 c0             	movzbl %al,%eax
   171b3:	4c 89 ee             	mov    %r13,%rsi
   171b6:	48 89 c7             	mov    %rax,%rdi
   171b9:	e8 39 38 ff ff       	callq  a9f7 <safe_div_func_int64_t_s_s>
   171be:	48 89 c2             	mov    %rax,%rdx
   171c1:	48 8b 85 10 e9 ff ff 	mov    -0x16f0(%rbp),%rax
   171c8:	88 10                	mov    %dl,(%rax)
   171ca:	0f b6 00             	movzbl (%rax),%eax
   171cd:	3c 15                	cmp    $0x15,%al
   171cf:	7e 09                	jle    171da <func_51+0x3ced>
   171d1:	83 bd b8 e8 ff ff 00 	cmpl   $0x0,-0x1748(%rbp)
   171d8:	74 17                	je     171f1 <func_51+0x3d04>
   171da:	48 8b 85 c0 e9 ff ff 	mov    -0x1640(%rbp),%rax
   171e1:	48 8b 00             	mov    (%rax),%rax
   171e4:	8b 00                	mov    (%rax),%eax
   171e6:	85 c0                	test   %eax,%eax
   171e8:	74 07                	je     171f1 <func_51+0x3d04>
   171ea:	b8 01 00 00 00       	mov    $0x1,%eax
   171ef:	eb 05                	jmp    171f6 <func_51+0x3d09>
   171f1:	b8 00 00 00 00       	mov    $0x0,%eax
   171f6:	35 44 6e 00 00       	xor    $0x6e44,%eax
   171fb:	48 98                	cltq   
   171fd:	8b 15 4d d8 00 00    	mov    0xd84d(%rip),%edx        # 24a50 <g_117>
   17203:	89 d2                	mov    %edx,%edx
   17205:	48 39 d0             	cmp    %rdx,%rax
   17208:	0f 9f c0             	setg   %al
   1720b:	0f b6 c0             	movzbl %al,%eax
   1720e:	48 39 85 38 e8 ff ff 	cmp    %rax,-0x17c8(%rbp)
   17215:	0f 9d c2             	setge  %dl
   17218:	48 8b 05 01 ba 00 00 	mov    0xba01(%rip),%rax        # 22c20 <g_487>
   1721f:	88 10                	mov    %dl,(%rax)
   17221:	0f b6 00             	movzbl (%rax),%eax
   17224:	8b 95 ec eb ff ff    	mov    -0x1414(%rbp),%edx
   1722a:	0f b6 c0             	movzbl %al,%eax
   1722d:	09 d0                	or     %edx,%eax
   1722f:	89 85 ec eb ff ff    	mov    %eax,-0x1414(%rbp)
   17235:	8b 85 b4 e8 ff ff    	mov    -0x174c(%rbp),%eax
   1723b:	0f be c0             	movsbl %al,%eax
   1723e:	be fd ff ff ff       	mov    $0xfffffffd,%esi
   17243:	89 c7                	mov    %eax,%edi
   17245:	e8 8a 2f ff ff       	callq  a1d4 <safe_add_func_int8_t_s_s>
   1724a:	66 98                	cbtw   
   1724c:	0f b7 c0             	movzwl %ax,%eax
   1724f:	44 89 fe             	mov    %r15d,%esi
   17252:	89 c7                	mov    %eax,%edi
   17254:	e8 65 3b ff ff       	callq  adbe <safe_lshift_func_uint16_t_u_s>
   17259:	0f be c0             	movsbl %al,%eax
   1725c:	be 01 00 00 00       	mov    $0x1,%esi
   17261:	89 c7                	mov    %eax,%edi
   17263:	e8 c9 2f ff ff       	callq  a231 <safe_mod_func_int8_t_s_s>
   17268:	48 0f be c0          	movsbq %al,%rax
   1726c:	be 01 00 00 00       	mov    $0x1,%esi
   17271:	48 89 c7             	mov    %rax,%rdi
   17274:	e8 36 3e ff ff       	callq  b0af <safe_div_func_uint64_t_u_u>
   17279:	48 83 bd 30 e8 ff ff 	cmpq   $0x0,-0x17d0(%rbp)
   17280:	00 
   17281:	7f 10                	jg     17293 <func_51+0x3da6>
   17283:	48 8b 85 c0 e9 ff ff 	mov    -0x1640(%rbp),%rax
   1728a:	48 8b 00             	mov    (%rax),%rax
   1728d:	8b 00                	mov    (%rax),%eax
   1728f:	85 c0                	test   %eax,%eax
   17291:	74 07                	je     1729a <func_51+0x3dad>
   17293:	b8 01 00 00 00       	mov    $0x1,%eax
   17298:	eb 05                	jmp    1729f <func_51+0x3db2>
   1729a:	b8 00 00 00 00       	mov    $0x0,%eax
   1729f:	0f b7 c0             	movzwl %ax,%eax
   172a2:	89 c6                	mov    %eax,%esi
   172a4:	bf 01 00 00 00       	mov    $0x1,%edi
   172a9:	e8 ae 3a ff ff       	callq  ad5c <safe_mod_func_uint16_t_u_u>
   172ae:	0f b7 c0             	movzwl %ax,%eax
   172b1:	4c 89 f2             	mov    %r14,%rdx
   172b4:	48 21 c2             	and    %rax,%rdx
   172b7:	48 8b 85 90 e9 ff ff 	mov    -0x1670(%rbp),%rax
   172be:	8b 00                	mov    (%rax),%eax
   172c0:	48 98                	cltq   
   172c2:	48 39 c2             	cmp    %rax,%rdx
   172c5:	0f 95 c0             	setne  %al
   172c8:	0f b6 c0             	movzbl %al,%eax
   172cb:	44 89 e6             	mov    %r12d,%esi
   172ce:	89 c7                	mov    %eax,%edi
   172d0:	e8 85 38 ff ff       	callq  ab5a <safe_add_func_uint8_t_u_u>
   172d5:	89 de                	mov    %ebx,%esi
   172d7:	bf 01 00 00 00       	mov    $0x1,%edi
   172dc:	e8 79 38 ff ff       	callq  ab5a <safe_add_func_uint8_t_u_u>
   172e1:	0f b6 d0             	movzbl %al,%edx
   172e4:	48 8b 05 e5 c9 00 00 	mov    0xc9e5(%rip),%rax        # 23cd0 <g_1438>
   172eb:	48 8b 00             	mov    (%rax),%rax
   172ee:	48 89 d6             	mov    %rdx,%rsi
   172f1:	48 89 c7             	mov    %rax,%rdi
   172f4:	e8 fe 36 ff ff       	callq  a9f7 <safe_div_func_int64_t_s_s>
   172f9:	0f b7 05 4c a1 00 00 	movzwl 0xa14c(%rip),%eax        # 2144c <g_481>
   17300:	89 c2                	mov    %eax,%edx
   17302:	48 8b 05 27 b9 00 00 	mov    0xb927(%rip),%rax        # 22c30 <g_566>
   17309:	0f b7 00             	movzwl (%rax),%eax
   1730c:	21 d0                	and    %edx,%eax
   1730e:	89 c2                	mov    %eax,%edx
   17310:	48 8b 85 e8 e9 ff ff 	mov    -0x1618(%rbp),%rax
   17317:	88 10                	mov    %dl,(%rax)
   17319:	48 8b 85 e8 e9 ff ff 	mov    -0x1618(%rbp),%rax
   17320:	0f b6 00             	movzbl (%rax),%eax
   17323:	84 c0                	test   %al,%al
   17325:	75 0d                	jne    17334 <func_51+0x3e47>
   17327:	48 8b 85 90 e9 ff ff 	mov    -0x1670(%rbp),%rax
   1732e:	8b 00                	mov    (%rax),%eax
   17330:	85 c0                	test   %eax,%eax
   17332:	74 28                	je     1735c <func_51+0x3e6f>
   17334:	48 8b 85 c0 e9 ff ff 	mov    -0x1640(%rbp),%rax
   1733b:	48 8b 00             	mov    (%rax),%rax
   1733e:	8b 10                	mov    (%rax),%edx
   17340:	48 8b 85 30 e8 ff ff 	mov    -0x17d0(%rbp),%rax
   17347:	89 c1                	mov    %eax,%ecx
   17349:	48 8b 85 c0 e9 ff ff 	mov    -0x1640(%rbp),%rax
   17350:	48 8b 00             	mov    (%rax),%rax
   17353:	21 ca                	and    %ecx,%edx
   17355:	89 10                	mov    %edx,(%rax)
   17357:	e9 de 05 00 00       	jmpq   1793a <func_51+0x444d>
   1735c:	48 c7 85 f8 e9 ff ff 	movq   $0x0,-0x1608(%rbp)
   17363:	00 00 00 00 
   17367:	48 8d 85 00 ed ff ff 	lea    -0x1300(%rbp),%rax
   1736e:	48 83 c0 14          	add    $0x14,%rax
   17372:	48 89 85 00 ea ff ff 	mov    %rax,-0x1600(%rbp)
   17379:	48 8d 05 8c 9f 00 00 	lea    0x9f8c(%rip),%rax        # 2130c <g_119+0xac>
   17380:	48 89 85 60 f4 ff ff 	mov    %rax,-0xba0(%rbp)
   17387:	48 8d 05 c2 a0 00 00 	lea    0xa0c2(%rip),%rax        # 21450 <g_547>
   1738e:	48 89 85 68 f4 ff ff 	mov    %rax,-0xb98(%rbp)
   17395:	48 8d 85 68 e8 ff ff 	lea    -0x1798(%rbp),%rax
   1739c:	48 89 85 70 f4 ff ff 	mov    %rax,-0xb90(%rbp)
   173a3:	48 8d 85 68 e8 ff ff 	lea    -0x1798(%rbp),%rax
   173aa:	48 89 85 78 f4 ff ff 	mov    %rax,-0xb88(%rbp)
   173b1:	48 8d 85 00 ed ff ff 	lea    -0x1300(%rbp),%rax
   173b8:	48 05 90 01 00 00    	add    $0x190,%rax
   173be:	48 89 85 80 f4 ff ff 	mov    %rax,-0xb80(%rbp)
   173c5:	48 8d 05 40 9f 00 00 	lea    0x9f40(%rip),%rax        # 2130c <g_119+0xac>
   173cc:	48 89 85 88 f4 ff ff 	mov    %rax,-0xb78(%rbp)
   173d3:	48 8d 85 50 eb ff ff 	lea    -0x14b0(%rbp),%rax
   173da:	48 83 c0 18          	add    $0x18,%rax
   173de:	48 89 85 90 f4 ff ff 	mov    %rax,-0xb70(%rbp)
   173e5:	48 8d 05 20 9f 00 00 	lea    0x9f20(%rip),%rax        # 2130c <g_119+0xac>
   173ec:	48 89 85 98 f4 ff ff 	mov    %rax,-0xb68(%rbp)
   173f3:	48 8d 85 00 ed ff ff 	lea    -0x1300(%rbp),%rax
   173fa:	48 83 c0 50          	add    $0x50,%rax
   173fe:	48 89 85 a0 f4 ff ff 	mov    %rax,-0xb60(%rbp)
   17405:	48 8d 85 50 eb ff ff 	lea    -0x14b0(%rbp),%rax
   1740c:	48 83 c0 18          	add    $0x18,%rax
   17410:	48 89 85 a8 f4 ff ff 	mov    %rax,-0xb58(%rbp)
   17417:	48 8d 05 ee 9e 00 00 	lea    0x9eee(%rip),%rax        # 2130c <g_119+0xac>
   1741e:	48 89 85 b0 f4 ff ff 	mov    %rax,-0xb50(%rbp)
   17425:	48 8d 85 50 eb ff ff 	lea    -0x14b0(%rbp),%rax
   1742c:	48 83 c0 18          	add    $0x18,%rax
   17430:	48 89 85 b8 f4 ff ff 	mov    %rax,-0xb48(%rbp)
   17437:	48 c7 85 c0 f4 ff ff 	movq   $0x0,-0xb40(%rbp)
   1743e:	00 00 00 00 
   17442:	48 8d 85 50 eb ff ff 	lea    -0x14b0(%rbp),%rax
   17449:	48 83 c0 04          	add    $0x4,%rax
   1744d:	48 89 85 c8 f4 ff ff 	mov    %rax,-0xb38(%rbp)
   17454:	48 8d 85 68 e8 ff ff 	lea    -0x1798(%rbp),%rax
   1745b:	48 89 85 d0 f4 ff ff 	mov    %rax,-0xb30(%rbp)
   17462:	48 8d 85 68 e8 ff ff 	lea    -0x1798(%rbp),%rax
   17469:	48 89 85 d8 f4 ff ff 	mov    %rax,-0xb28(%rbp)
   17470:	48 8d 85 50 eb ff ff 	lea    -0x14b0(%rbp),%rax
   17477:	48 83 c0 04          	add    $0x4,%rax
   1747b:	48 89 85 e0 f4 ff ff 	mov    %rax,-0xb20(%rbp)
   17482:	48 8d 05 c7 9f 00 00 	lea    0x9fc7(%rip),%rax        # 21450 <g_547>
   17489:	48 89 85 e8 f4 ff ff 	mov    %rax,-0xb18(%rbp)
   17490:	48 8d 85 50 eb ff ff 	lea    -0x14b0(%rbp),%rax
   17497:	48 83 c0 18          	add    $0x18,%rax
   1749b:	48 89 85 f0 f4 ff ff 	mov    %rax,-0xb10(%rbp)
   174a2:	48 8d 85 50 eb ff ff 	lea    -0x14b0(%rbp),%rax
   174a9:	48 89 85 f8 f4 ff ff 	mov    %rax,-0xb08(%rbp)
   174b0:	48 c7 85 00 f5 ff ff 	movq   $0x0,-0xb00(%rbp)
   174b7:	00 00 00 00 
   174bb:	48 8d 85 68 e8 ff ff 	lea    -0x1798(%rbp),%rax
   174c2:	48 89 85 08 f5 ff ff 	mov    %rax,-0xaf8(%rbp)
   174c9:	48 8d 85 50 eb ff ff 	lea    -0x14b0(%rbp),%rax
   174d0:	48 83 c0 18          	add    $0x18,%rax
   174d4:	48 89 85 10 f5 ff ff 	mov    %rax,-0xaf0(%rbp)
   174db:	48 8d 85 50 eb ff ff 	lea    -0x14b0(%rbp),%rax
   174e2:	48 83 c0 18          	add    $0x18,%rax
   174e6:	48 89 85 18 f5 ff ff 	mov    %rax,-0xae8(%rbp)
   174ed:	48 8d 85 50 eb ff ff 	lea    -0x14b0(%rbp),%rax
   174f4:	48 83 c0 18          	add    $0x18,%rax
   174f8:	48 89 85 20 f5 ff ff 	mov    %rax,-0xae0(%rbp)
   174ff:	48 8d 85 50 eb ff ff 	lea    -0x14b0(%rbp),%rax
   17506:	48 83 c0 18          	add    $0x18,%rax
   1750a:	48 89 85 28 f5 ff ff 	mov    %rax,-0xad8(%rbp)
   17511:	48 8d 85 50 eb ff ff 	lea    -0x14b0(%rbp),%rax
   17518:	48 83 c0 18          	add    $0x18,%rax
   1751c:	48 89 85 30 f5 ff ff 	mov    %rax,-0xad0(%rbp)
   17523:	48 8d 85 d0 eb ff ff 	lea    -0x1430(%rbp),%rax
   1752a:	48 83 c0 1c          	add    $0x1c,%rax
   1752e:	48 89 85 38 f5 ff ff 	mov    %rax,-0xac8(%rbp)
   17535:	48 8d 05 d0 9d 00 00 	lea    0x9dd0(%rip),%rax        # 2130c <g_119+0xac>
   1753c:	48 89 85 40 f5 ff ff 	mov    %rax,-0xac0(%rbp)
   17543:	48 c7 85 48 f5 ff ff 	movq   $0x0,-0xab8(%rbp)
   1754a:	00 00 00 00 
   1754e:	48 8d 05 b7 9d 00 00 	lea    0x9db7(%rip),%rax        # 2130c <g_119+0xac>
   17555:	48 89 85 50 f5 ff ff 	mov    %rax,-0xab0(%rbp)
   1755c:	48 8d 85 d0 eb ff ff 	lea    -0x1430(%rbp),%rax
   17563:	48 83 c0 1c          	add    $0x1c,%rax
   17567:	48 89 85 58 f5 ff ff 	mov    %rax,-0xaa8(%rbp)
   1756e:	48 8d 05 db 9e 00 00 	lea    0x9edb(%rip),%rax        # 21450 <g_547>
   17575:	48 89 85 60 f5 ff ff 	mov    %rax,-0xaa0(%rbp)
   1757c:	48 8d 85 50 eb ff ff 	lea    -0x14b0(%rbp),%rax
   17583:	48 83 c0 04          	add    $0x4,%rax
   17587:	48 89 85 68 f5 ff ff 	mov    %rax,-0xa98(%rbp)
   1758e:	48 8d 85 68 e8 ff ff 	lea    -0x1798(%rbp),%rax
   17595:	48 89 85 70 f5 ff ff 	mov    %rax,-0xa90(%rbp)
   1759c:	48 8d 85 68 e8 ff ff 	lea    -0x1798(%rbp),%rax
   175a3:	48 89 85 78 f5 ff ff 	mov    %rax,-0xa88(%rbp)
   175aa:	48 8d 05 5b 9d 00 00 	lea    0x9d5b(%rip),%rax        # 2130c <g_119+0xac>
   175b1:	48 89 85 80 f5 ff ff 	mov    %rax,-0xa80(%rbp)
   175b8:	48 8d 85 64 e8 ff ff 	lea    -0x179c(%rbp),%rax
   175bf:	48 89 85 88 f5 ff ff 	mov    %rax,-0xa78(%rbp)
   175c6:	48 8d 85 50 eb ff ff 	lea    -0x14b0(%rbp),%rax
   175cd:	48 83 c0 18          	add    $0x18,%rax
   175d1:	48 89 85 90 f5 ff ff 	mov    %rax,-0xa70(%rbp)
   175d8:	48 8d 85 68 e8 ff ff 	lea    -0x1798(%rbp),%rax
   175df:	48 89 85 98 f5 ff ff 	mov    %rax,-0xa68(%rbp)
   175e6:	48 8d 85 d0 eb ff ff 	lea    -0x1430(%rbp),%rax
   175ed:	48 83 c0 1c          	add    $0x1c,%rax
   175f1:	48 89 85 a0 f5 ff ff 	mov    %rax,-0xa60(%rbp)
   175f8:	48 8d 85 00 ed ff ff 	lea    -0x1300(%rbp),%rax
   175ff:	48 83 c0 50          	add    $0x50,%rax
   17603:	48 89 85 a8 f5 ff ff 	mov    %rax,-0xa58(%rbp)
   1760a:	48 8d 05 fb 9c 00 00 	lea    0x9cfb(%rip),%rax        # 2130c <g_119+0xac>
   17611:	48 89 85 b0 f5 ff ff 	mov    %rax,-0xa50(%rbp)
   17618:	48 8d 85 50 eb ff ff 	lea    -0x14b0(%rbp),%rax
   1761f:	48 83 c0 18          	add    $0x18,%rax
   17623:	48 89 85 b8 f5 ff ff 	mov    %rax,-0xa48(%rbp)
   1762a:	48 8d 05 db 9c 00 00 	lea    0x9cdb(%rip),%rax        # 2130c <g_119+0xac>
   17631:	48 89 85 c0 f5 ff ff 	mov    %rax,-0xa40(%rbp)
   17638:	48 8d 85 50 eb ff ff 	lea    -0x14b0(%rbp),%rax
   1763f:	48 83 c0 18          	add    $0x18,%rax
   17643:	48 89 85 c8 f5 ff ff 	mov    %rax,-0xa38(%rbp)
   1764a:	48 8d 85 50 eb ff ff 	lea    -0x14b0(%rbp),%rax
   17651:	48 83 c0 18          	add    $0x18,%rax
   17655:	48 89 85 d0 f5 ff ff 	mov    %rax,-0xa30(%rbp)
   1765c:	48 c7 85 d8 f5 ff ff 	movq   $0x0,-0xa28(%rbp)
   17663:	00 00 00 00 
   17667:	48 c7 85 e0 f5 ff ff 	movq   $0x0,-0xa20(%rbp)
   1766e:	00 00 00 00 
   17672:	48 8d 85 50 eb ff ff 	lea    -0x14b0(%rbp),%rax
   17679:	48 83 c0 18          	add    $0x18,%rax
   1767d:	48 89 85 e8 f5 ff ff 	mov    %rax,-0xa18(%rbp)
   17684:	48 8d 05 c5 9d 00 00 	lea    0x9dc5(%rip),%rax        # 21450 <g_547>
   1768b:	48 89 85 f0 f5 ff ff 	mov    %rax,-0xa10(%rbp)
   17692:	48 8d 05 73 9c 00 00 	lea    0x9c73(%rip),%rax        # 2130c <g_119+0xac>
   17699:	48 89 85 f8 f5 ff ff 	mov    %rax,-0xa08(%rbp)
   176a0:	48 8d 85 50 eb ff ff 	lea    -0x14b0(%rbp),%rax
   176a7:	48 83 c0 18          	add    $0x18,%rax
   176ab:	48 89 85 00 f6 ff ff 	mov    %rax,-0xa00(%rbp)
   176b2:	48 8d 85 d0 eb ff ff 	lea    -0x1430(%rbp),%rax
   176b9:	48 83 c0 10          	add    $0x10,%rax
   176bd:	48 89 85 08 f6 ff ff 	mov    %rax,-0x9f8(%rbp)
   176c4:	48 8d 85 64 e8 ff ff 	lea    -0x179c(%rbp),%rax
   176cb:	48 89 85 10 f6 ff ff 	mov    %rax,-0x9f0(%rbp)
   176d2:	48 c7 85 18 f6 ff ff 	movq   $0x0,-0x9e8(%rbp)
   176d9:	00 00 00 00 
   176dd:	48 8d 85 d0 eb ff ff 	lea    -0x1430(%rbp),%rax
   176e4:	48 83 c0 10          	add    $0x10,%rax
   176e8:	48 89 85 20 f6 ff ff 	mov    %rax,-0x9e0(%rbp)
   176ef:	48 8d 85 50 eb ff ff 	lea    -0x14b0(%rbp),%rax
   176f6:	48 83 c0 18          	add    $0x18,%rax
   176fa:	48 89 85 28 f6 ff ff 	mov    %rax,-0x9d8(%rbp)
   17701:	48 8d 85 50 eb ff ff 	lea    -0x14b0(%rbp),%rax
   17708:	48 83 c0 04          	add    $0x4,%rax
   1770c:	48 89 85 30 f6 ff ff 	mov    %rax,-0x9d0(%rbp)
   17713:	48 8d 85 50 eb ff ff 	lea    -0x14b0(%rbp),%rax
   1771a:	48 83 c0 18          	add    $0x18,%rax
   1771e:	48 89 85 38 f6 ff ff 	mov    %rax,-0x9c8(%rbp)
   17725:	48 8d 85 50 eb ff ff 	lea    -0x14b0(%rbp),%rax
   1772c:	48 83 c0 04          	add    $0x4,%rax
   17730:	48 89 85 40 f6 ff ff 	mov    %rax,-0x9c0(%rbp)
   17737:	48 8d 85 50 eb ff ff 	lea    -0x14b0(%rbp),%rax
   1773e:	48 83 c0 18          	add    $0x18,%rax
   17742:	48 89 85 48 f6 ff ff 	mov    %rax,-0x9b8(%rbp)
   17749:	48 8d 85 d0 eb ff ff 	lea    -0x1430(%rbp),%rax
   17750:	48 83 c0 10          	add    $0x10,%rax
   17754:	48 89 85 50 f6 ff ff 	mov    %rax,-0x9b0(%rbp)
   1775b:	48 8d 85 50 eb ff ff 	lea    -0x14b0(%rbp),%rax
   17762:	48 83 c0 04          	add    $0x4,%rax
   17766:	48 89 85 58 f6 ff ff 	mov    %rax,-0x9a8(%rbp)
   1776d:	48 8d 85 50 eb ff ff 	lea    -0x14b0(%rbp),%rax
   17774:	48 83 c0 04          	add    $0x4,%rax
   17778:	48 89 85 60 f6 ff ff 	mov    %rax,-0x9a0(%rbp)
   1777f:	48 8d 85 00 ed ff ff 	lea    -0x1300(%rbp),%rax
   17786:	48 83 c0 50          	add    $0x50,%rax
   1778a:	48 89 85 68 f6 ff ff 	mov    %rax,-0x998(%rbp)
   17791:	48 8d 85 50 eb ff ff 	lea    -0x14b0(%rbp),%rax
   17798:	48 83 c0 18          	add    $0x18,%rax
   1779c:	48 89 85 70 f6 ff ff 	mov    %rax,-0x990(%rbp)
   177a3:	48 8d 85 50 eb ff ff 	lea    -0x14b0(%rbp),%rax
   177aa:	48 83 c0 18          	add    $0x18,%rax
   177ae:	48 89 85 78 f6 ff ff 	mov    %rax,-0x988(%rbp)
   177b5:	48 8d 85 68 e8 ff ff 	lea    -0x1798(%rbp),%rax
   177bc:	48 89 85 80 f6 ff ff 	mov    %rax,-0x980(%rbp)
   177c3:	48 8d 85 50 eb ff ff 	lea    -0x14b0(%rbp),%rax
   177ca:	48 83 c0 18          	add    $0x18,%rax
   177ce:	48 89 85 88 f6 ff ff 	mov    %rax,-0x978(%rbp)
   177d5:	48 8d 85 68 e8 ff ff 	lea    -0x1798(%rbp),%rax
   177dc:	48 89 85 90 f6 ff ff 	mov    %rax,-0x970(%rbp)
   177e3:	48 8d 05 22 9b 00 00 	lea    0x9b22(%rip),%rax        # 2130c <g_119+0xac>
   177ea:	48 89 85 98 f6 ff ff 	mov    %rax,-0x968(%rbp)
   177f1:	48 8d 85 64 e8 ff ff 	lea    -0x179c(%rbp),%rax
   177f8:	48 89 85 a0 f6 ff ff 	mov    %rax,-0x960(%rbp)
   177ff:	48 8d 85 50 eb ff ff 	lea    -0x14b0(%rbp),%rax
   17806:	48 83 c0 04          	add    $0x4,%rax
   1780a:	48 89 85 a8 f6 ff ff 	mov    %rax,-0x958(%rbp)
   17811:	48 8d 85 d0 eb ff ff 	lea    -0x1430(%rbp),%rax
   17818:	48 83 c0 1c          	add    $0x1c,%rax
   1781c:	48 89 85 b0 f6 ff ff 	mov    %rax,-0x950(%rbp)
   17823:	48 8d 85 64 e8 ff ff 	lea    -0x179c(%rbp),%rax
   1782a:	48 89 85 b8 f6 ff ff 	mov    %rax,-0x948(%rbp)
   17831:	48 8d 85 50 eb ff ff 	lea    -0x14b0(%rbp),%rax
   17838:	48 83 c0 18          	add    $0x18,%rax
   1783c:	48 89 85 c0 f6 ff ff 	mov    %rax,-0x940(%rbp)
   17843:	48 8d 05 c2 9a 00 00 	lea    0x9ac2(%rip),%rax        # 2130c <g_119+0xac>
   1784a:	48 89 85 c8 f6 ff ff 	mov    %rax,-0x938(%rbp)
   17851:	48 8d 85 68 e8 ff ff 	lea    -0x1798(%rbp),%rax
   17858:	48 89 85 d0 f6 ff ff 	mov    %rax,-0x930(%rbp)
   1785f:	48 8d 85 50 eb ff ff 	lea    -0x14b0(%rbp),%rax
   17866:	48 83 c0 18          	add    $0x18,%rax
   1786a:	48 89 85 d8 f6 ff ff 	mov    %rax,-0x928(%rbp)
   17871:	48 8d 85 68 e8 ff ff 	lea    -0x1798(%rbp),%rax
   17878:	48 89 85 e0 f6 ff ff 	mov    %rax,-0x920(%rbp)
   1787f:	48 8d 85 50 eb ff ff 	lea    -0x14b0(%rbp),%rax
   17886:	48 83 c0 18          	add    $0x18,%rax
   1788a:	48 89 85 e8 f6 ff ff 	mov    %rax,-0x918(%rbp)
   17891:	48 c7 85 f0 f6 ff ff 	movq   $0x0,-0x910(%rbp)
   17898:	00 00 00 00 
   1789c:	48 8d 85 00 ed ff ff 	lea    -0x1300(%rbp),%rax
   178a3:	48 83 c0 50          	add    $0x50,%rax
   178a7:	48 89 85 f8 f6 ff ff 	mov    %rax,-0x908(%rbp)
   178ae:	48 8d 85 64 e8 ff ff 	lea    -0x179c(%rbp),%rax
   178b5:	48 89 85 00 f7 ff ff 	mov    %rax,-0x900(%rbp)
   178bc:	48 c7 85 08 f7 ff ff 	movq   $0x0,-0x8f8(%rbp)
   178c3:	00 00 00 00 
   178c7:	48 8d 85 d0 eb ff ff 	lea    -0x1430(%rbp),%rax
   178ce:	48 83 c0 10          	add    $0x10,%rax
   178d2:	48 89 85 10 f7 ff ff 	mov    %rax,-0x8f0(%rbp)
   178d9:	48 8d 85 50 eb ff ff 	lea    -0x14b0(%rbp),%rax
   178e0:	48 83 c0 18          	add    $0x18,%rax
   178e4:	48 89 85 18 f7 ff ff 	mov    %rax,-0x8e8(%rbp)
   178eb:	48 8d 85 50 eb ff ff 	lea    -0x14b0(%rbp),%rax
   178f2:	48 83 c0 04          	add    $0x4,%rax
   178f6:	48 89 85 20 f7 ff ff 	mov    %rax,-0x8e0(%rbp)
   178fd:	48 8d 85 50 eb ff ff 	lea    -0x14b0(%rbp),%rax
   17904:	48 83 c0 18          	add    $0x18,%rax
   17908:	48 89 85 28 f7 ff ff 	mov    %rax,-0x8d8(%rbp)
   1790f:	48 8b 05 f2 b2 00 00 	mov    0xb2f2(%rip),%rax        # 22c08 <g_382>
   17916:	48 8b 00             	mov    (%rax),%rax
   17919:	8b 10                	mov    (%rax),%edx
   1791b:	48 8b 05 e6 b2 00 00 	mov    0xb2e6(%rip),%rax        # 22c08 <g_382>
   17922:	48 8b 00             	mov    (%rax),%rax
   17925:	83 e2 02             	and    $0x2,%edx
   17928:	89 10                	mov    %edx,(%rax)
   1792a:	0f b6 05 8f 9d 00 00 	movzbl 0x9d8f(%rip),%eax        # 216c0 <g_1896>
   17931:	83 c0 01             	add    $0x1,%eax
   17934:	88 05 86 9d 00 00    	mov    %al,0x9d86(%rip)        # 216c0 <g_1896>
   1793a:	48 8b 05 c7 b2 00 00 	mov    0xb2c7(%rip),%rax        # 22c08 <g_382>
   17941:	48 8b 00             	mov    (%rax),%rax
   17944:	c7 00 01 00 00 00    	movl   $0x1,(%rax)
   1794a:	66 83 85 5c e8 ff ff 	addw   $0x1,-0x17a4(%rbp)
   17951:	01 
   17952:	48 8b 85 c0 e9 ff ff 	mov    -0x1640(%rbp),%rax
   17959:	48 8b 00             	mov    (%rax),%rax
   1795c:	8b 00                	mov    (%rax),%eax
   1795e:	85 c0                	test   %eax,%eax
   17960:	75 2b                	jne    1798d <func_51+0x44a0>
   17962:	0f b7 85 5a e8 ff ff 	movzwl -0x17a6(%rbp),%eax
   17969:	be 01 00 00 00       	mov    $0x1,%esi
   1796e:	48 89 c7             	mov    %rax,%rdi
   17971:	e8 cb 2e ff ff       	callq  a841 <safe_add_func_int64_t_s_s>
   17976:	66 89 85 5a e8 ff ff 	mov    %ax,-0x17a6(%rbp)
   1797d:	66 83 bd 5a e8 ff ff 	cmpw   $0x1c,-0x17a6(%rbp)
   17984:	1c 
   17985:	0f 85 38 f5 ff ff    	jne    16ec3 <func_51+0x39d6>
   1798b:	eb 01                	jmp    1798e <func_51+0x44a1>
   1798d:	90                   	nop
   1798e:	48 8b 85 20 e9 ff ff 	mov    -0x16e0(%rbp),%rax
   17995:	be 01 00 00 00       	mov    $0x1,%esi
   1799a:	89 c7                	mov    %eax,%edi
   1799c:	e8 15 2c ff ff       	callq  a5b6 <safe_add_func_int32_t_s_s>
   179a1:	48 98                	cltq   
   179a3:	48 89 85 20 e9 ff ff 	mov    %rax,-0x16e0(%rbp)
   179aa:	48 8b 85 20 e9 ff ff 	mov    -0x16e0(%rbp),%rax
   179b1:	48 83 f8 18          	cmp    $0x18,%rax
   179b5:	0f 87 47 f4 ff ff    	ja     16e02 <func_51+0x3915>
   179bb:	48 8b 05 46 b2 00 00 	mov    0xb246(%rip),%rax        # 22c08 <g_382>
   179c2:	48 8d 95 50 eb ff ff 	lea    -0x14b0(%rbp),%rdx
   179c9:	48 83 c2 04          	add    $0x4,%rdx
   179cd:	48 89 10             	mov    %rdx,(%rax)
   179d0:	48 8b 05 19 b2 00 00 	mov    0xb219(%rip),%rax        # 22bf0 <g_320>
   179d7:	c7 00 ff ff ff ff    	movl   $0xffffffff,(%rax)
   179dd:	48 8b 85 18 e9 ff ff 	mov    -0x16e8(%rbp),%rax
   179e4:	48 8b 00             	mov    (%rax),%rax
   179e7:	48 8b 4d c8          	mov    -0x38(%rbp),%rcx
   179eb:	64 48 33 0c 25 28 00 	xor    %fs:0x28,%rcx
   179f2:	00 00 
   179f4:	74 05                	je     179fb <func_51+0x450e>
   179f6:	e8 75 26 ff ff       	callq  a070 <__stack_chk_fail@plt>
   179fb:	48 81 c4 b8 17 00 00 	add    $0x17b8,%rsp
   17a02:	5b                   	pop    %rbx
   17a03:	41 5c                	pop    %r12
   17a05:	41 5d                	pop    %r13
   17a07:	41 5e                	pop    %r14
   17a09:	41 5f                	pop    %r15
   17a0b:	5d                   	pop    %rbp
   17a0c:	c3                   	retq   

0000000000017a0d <func_57>:
   17a0d:	f3 0f 1e fa          	endbr64 
   17a11:	55                   	push   %rbp
   17a12:	48 89 e5             	mov    %rsp,%rbp
   17a15:	48 81 ec 80 0b 00 00 	sub    $0xb80,%rsp
   17a1c:	48 89 bd 88 f4 ff ff 	mov    %rdi,-0xb78(%rbp)
   17a23:	89 b5 84 f4 ff ff    	mov    %esi,-0xb7c(%rbp)
   17a29:	89 d0                	mov    %edx,%eax
   17a2b:	88 85 80 f4 ff ff    	mov    %al,-0xb80(%rbp)
   17a31:	64 48 8b 04 25 28 00 	mov    %fs:0x28,%rax
   17a38:	00 00 
   17a3a:	48 89 45 f8          	mov    %rax,-0x8(%rbp)
   17a3e:	31 c0                	xor    %eax,%eax
   17a40:	48 8d 05 fd 95 00 00 	lea    0x95fd(%rip),%rax        # 21044 <g_62+0x4>
   17a47:	48 89 85 c0 f4 ff ff 	mov    %rax,-0xb40(%rbp)
   17a4e:	c7 85 a0 f4 ff ff 01 	movl   $0x1,-0xb60(%rbp)
   17a55:	00 00 00 
   17a58:	48 8d 05 f9 95 00 00 	lea    0x95f9(%rip),%rax        # 21058 <g_65>
   17a5f:	48 89 85 00 f5 ff ff 	mov    %rax,-0xb00(%rbp)
   17a66:	48 8d 05 eb 95 00 00 	lea    0x95eb(%rip),%rax        # 21058 <g_65>
   17a6d:	48 89 85 08 f5 ff ff 	mov    %rax,-0xaf8(%rbp)
   17a74:	48 8d 05 dd 95 00 00 	lea    0x95dd(%rip),%rax        # 21058 <g_65>
   17a7b:	48 89 85 10 f5 ff ff 	mov    %rax,-0xaf0(%rbp)
   17a82:	48 8d 05 cf 95 00 00 	lea    0x95cf(%rip),%rax        # 21058 <g_65>
   17a89:	48 89 85 18 f5 ff ff 	mov    %rax,-0xae8(%rbp)
   17a90:	48 8d 05 c1 95 00 00 	lea    0x95c1(%rip),%rax        # 21058 <g_65>
   17a97:	48 89 85 20 f5 ff ff 	mov    %rax,-0xae0(%rbp)
   17a9e:	c7 85 30 f5 ff ff fa 	movl   $0xfffffffa,-0xad0(%rbp)
   17aa5:	ff ff ff 
   17aa8:	c7 85 34 f5 ff ff 01 	movl   $0x1,-0xacc(%rbp)
   17aaf:	00 00 00 
   17ab2:	c7 85 38 f5 ff ff 10 	movl   $0x3ab76a10,-0xac8(%rbp)
   17ab9:	6a b7 3a 
   17abc:	c7 85 3c f5 ff ff 01 	movl   $0x1,-0xac4(%rbp)
   17ac3:	00 00 00 
   17ac6:	c7 85 40 f5 ff ff fa 	movl   $0xfffffffa,-0xac0(%rbp)
   17acd:	ff ff ff 
   17ad0:	c7 85 44 f5 ff ff fa 	movl   $0xfffffffa,-0xabc(%rbp)
   17ad7:	ff ff ff 
   17ada:	c7 85 48 f5 ff ff 01 	movl   $0x1,-0xab8(%rbp)
   17ae1:	00 00 00 
   17ae4:	c7 85 4c f5 ff ff 10 	movl   $0x3ab76a10,-0xab4(%rbp)
   17aeb:	6a b7 3a 
   17aee:	c7 85 50 f5 ff ff fa 	movl   $0xfffffffa,-0xab0(%rbp)
   17af5:	ff ff ff 
   17af8:	c7 85 54 f5 ff ff fa 	movl   $0xfffffffa,-0xaac(%rbp)
   17aff:	ff ff ff 
   17b02:	c7 85 58 f5 ff ff 01 	movl   $0x1,-0xaa8(%rbp)
   17b09:	00 00 00 
   17b0c:	c7 85 5c f5 ff ff 10 	movl   $0x3ab76a10,-0xaa4(%rbp)
   17b13:	6a b7 3a 
   17b16:	c7 85 60 f5 ff ff 01 	movl   $0x1,-0xaa0(%rbp)
   17b1d:	00 00 00 
   17b20:	c7 85 64 f5 ff ff fa 	movl   $0xfffffffa,-0xa9c(%rbp)
   17b27:	ff ff ff 
   17b2a:	c7 85 68 f5 ff ff fa 	movl   $0xfffffffa,-0xa98(%rbp)
   17b31:	ff ff ff 
   17b34:	c7 85 6c f5 ff ff 01 	movl   $0x1,-0xa94(%rbp)
   17b3b:	00 00 00 
   17b3e:	c7 85 70 f5 ff ff f4 	movl   $0x4feccdf4,-0xa90(%rbp)
   17b45:	cd ec 4f 
   17b48:	c7 85 74 f5 ff ff 01 	movl   $0x1,-0xa8c(%rbp)
   17b4f:	00 00 00 
   17b52:	c7 85 78 f5 ff ff 01 	movl   $0x1,-0xa88(%rbp)
   17b59:	00 00 00 
   17b5c:	c7 85 7c f5 ff ff f4 	movl   $0x4feccdf4,-0xa84(%rbp)
   17b63:	cd ec 4f 
   17b66:	c7 85 80 f5 ff ff ff 	movl   $0xffffffff,-0xa80(%rbp)
   17b6d:	ff ff ff 
   17b70:	c7 85 84 f5 ff ff f4 	movl   $0x4feccdf4,-0xa7c(%rbp)
   17b77:	cd ec 4f 
   17b7a:	c7 85 88 f5 ff ff 01 	movl   $0x1,-0xa78(%rbp)
   17b81:	00 00 00 
   17b84:	c7 85 8c f5 ff ff 01 	movl   $0x1,-0xa74(%rbp)
   17b8b:	00 00 00 
   17b8e:	c7 85 90 f5 ff ff 01 	movl   $0x1,-0xa70(%rbp)
   17b95:	00 00 00 
   17b98:	c7 85 94 f5 ff ff ff 	movl   $0xffffffff,-0xa6c(%rbp)
   17b9f:	ff ff ff 
   17ba2:	c7 85 98 f5 ff ff 10 	movl   $0x3ab76a10,-0xa68(%rbp)
   17ba9:	6a b7 3a 
   17bac:	c7 85 9c f5 ff ff 10 	movl   $0x3ab76a10,-0xa64(%rbp)
   17bb3:	6a b7 3a 
   17bb6:	c7 85 a0 f5 ff ff ff 	movl   $0xffffffff,-0xa60(%rbp)
   17bbd:	ff ff ff 
   17bc0:	c7 85 a4 f5 ff ff 01 	movl   $0x1,-0xa5c(%rbp)
   17bc7:	00 00 00 
   17bca:	c7 85 a8 f5 ff ff ff 	movl   $0xffffffff,-0xa58(%rbp)
   17bd1:	ff ff ff 
   17bd4:	c7 85 ac f5 ff ff 10 	movl   $0x3ab76a10,-0xa54(%rbp)
   17bdb:	6a b7 3a 
   17bde:	48 8d 05 23 b0 00 00 	lea    0xb023(%rip),%rax        # 22c08 <g_382>
   17be5:	48 89 85 c8 f4 ff ff 	mov    %rax,-0xb38(%rbp)
   17bec:	48 c7 85 d0 f4 ff ff 	movq   $0x0,-0xb30(%rbp)
   17bf3:	00 00 00 00 
   17bf7:	48 8d 05 1a 98 00 00 	lea    0x981a(%rip),%rax        # 21418 <g_264+0x18>
   17bfe:	48 89 85 b0 f4 ff ff 	mov    %rax,-0xb50(%rbp)
   17c05:	48 8d 85 b0 f4 ff ff 	lea    -0xb50(%rbp),%rax
   17c0c:	48 89 85 70 f8 ff ff 	mov    %rax,-0x790(%rbp)
   17c13:	48 8d 85 b0 f4 ff ff 	lea    -0xb50(%rbp),%rax
   17c1a:	48 89 85 78 f8 ff ff 	mov    %rax,-0x788(%rbp)
   17c21:	48 8d 85 b0 f4 ff ff 	lea    -0xb50(%rbp),%rax
   17c28:	48 89 85 80 f8 ff ff 	mov    %rax,-0x780(%rbp)
   17c2f:	48 8d 85 b0 f4 ff ff 	lea    -0xb50(%rbp),%rax
   17c36:	48 89 85 88 f8 ff ff 	mov    %rax,-0x778(%rbp)
   17c3d:	48 8d 85 b0 f4 ff ff 	lea    -0xb50(%rbp),%rax
   17c44:	48 89 85 90 f8 ff ff 	mov    %rax,-0x770(%rbp)
   17c4b:	48 c7 85 98 f8 ff ff 	movq   $0x0,-0x768(%rbp)
   17c52:	00 00 00 00 
   17c56:	48 8d 85 b0 f4 ff ff 	lea    -0xb50(%rbp),%rax
   17c5d:	48 89 85 a0 f8 ff ff 	mov    %rax,-0x760(%rbp)
   17c64:	48 c7 85 a8 f8 ff ff 	movq   $0x0,-0x758(%rbp)
   17c6b:	00 00 00 00 
   17c6f:	48 8d 85 b0 f4 ff ff 	lea    -0xb50(%rbp),%rax
   17c76:	48 89 85 b0 f8 ff ff 	mov    %rax,-0x750(%rbp)
   17c7d:	48 8d 85 b0 f4 ff ff 	lea    -0xb50(%rbp),%rax
   17c84:	48 89 85 b8 f8 ff ff 	mov    %rax,-0x748(%rbp)
   17c8b:	48 8d 85 b0 f4 ff ff 	lea    -0xb50(%rbp),%rax
   17c92:	48 89 85 c0 f8 ff ff 	mov    %rax,-0x740(%rbp)
   17c99:	48 8d 85 b0 f4 ff ff 	lea    -0xb50(%rbp),%rax
   17ca0:	48 89 85 c8 f8 ff ff 	mov    %rax,-0x738(%rbp)
   17ca7:	48 8d 85 b0 f4 ff ff 	lea    -0xb50(%rbp),%rax
   17cae:	48 89 85 d0 f8 ff ff 	mov    %rax,-0x730(%rbp)
   17cb5:	48 8d 85 b0 f4 ff ff 	lea    -0xb50(%rbp),%rax
   17cbc:	48 89 85 d8 f8 ff ff 	mov    %rax,-0x728(%rbp)
   17cc3:	48 8d 85 b0 f4 ff ff 	lea    -0xb50(%rbp),%rax
   17cca:	48 89 85 e0 f8 ff ff 	mov    %rax,-0x720(%rbp)
   17cd1:	48 c7 85 e8 f8 ff ff 	movq   $0x0,-0x718(%rbp)
   17cd8:	00 00 00 00 
   17cdc:	48 8d 85 b0 f4 ff ff 	lea    -0xb50(%rbp),%rax
   17ce3:	48 89 85 f0 f8 ff ff 	mov    %rax,-0x710(%rbp)
   17cea:	48 8d 85 b0 f4 ff ff 	lea    -0xb50(%rbp),%rax
   17cf1:	48 89 85 f8 f8 ff ff 	mov    %rax,-0x708(%rbp)
   17cf8:	48 8d 85 b0 f4 ff ff 	lea    -0xb50(%rbp),%rax
   17cff:	48 89 85 00 f9 ff ff 	mov    %rax,-0x700(%rbp)
   17d06:	48 8d 85 b0 f4 ff ff 	lea    -0xb50(%rbp),%rax
   17d0d:	48 89 85 08 f9 ff ff 	mov    %rax,-0x6f8(%rbp)
   17d14:	48 8d 85 b0 f4 ff ff 	lea    -0xb50(%rbp),%rax
   17d1b:	48 89 85 10 f9 ff ff 	mov    %rax,-0x6f0(%rbp)
   17d22:	48 8d 85 b0 f4 ff ff 	lea    -0xb50(%rbp),%rax
   17d29:	48 89 85 18 f9 ff ff 	mov    %rax,-0x6e8(%rbp)
   17d30:	48 8d 85 b0 f4 ff ff 	lea    -0xb50(%rbp),%rax
   17d37:	48 89 85 20 f9 ff ff 	mov    %rax,-0x6e0(%rbp)
   17d3e:	48 8d 85 b0 f4 ff ff 	lea    -0xb50(%rbp),%rax
   17d45:	48 89 85 28 f9 ff ff 	mov    %rax,-0x6d8(%rbp)
   17d4c:	48 8d 85 b0 f4 ff ff 	lea    -0xb50(%rbp),%rax
   17d53:	48 89 85 30 f9 ff ff 	mov    %rax,-0x6d0(%rbp)
   17d5a:	48 8d 85 b0 f4 ff ff 	lea    -0xb50(%rbp),%rax
   17d61:	48 89 85 38 f9 ff ff 	mov    %rax,-0x6c8(%rbp)
   17d68:	48 8d 85 b0 f4 ff ff 	lea    -0xb50(%rbp),%rax
   17d6f:	48 89 85 40 f9 ff ff 	mov    %rax,-0x6c0(%rbp)
   17d76:	48 c7 85 48 f9 ff ff 	movq   $0x0,-0x6b8(%rbp)
   17d7d:	00 00 00 00 
   17d81:	48 8d 85 b0 f4 ff ff 	lea    -0xb50(%rbp),%rax
   17d88:	48 89 85 50 f9 ff ff 	mov    %rax,-0x6b0(%rbp)
   17d8f:	48 8d 85 b0 f4 ff ff 	lea    -0xb50(%rbp),%rax
   17d96:	48 89 85 58 f9 ff ff 	mov    %rax,-0x6a8(%rbp)
   17d9d:	48 8d 85 b0 f4 ff ff 	lea    -0xb50(%rbp),%rax
   17da4:	48 89 85 60 f9 ff ff 	mov    %rax,-0x6a0(%rbp)
   17dab:	48 8d 85 b0 f4 ff ff 	lea    -0xb50(%rbp),%rax
   17db2:	48 89 85 68 f9 ff ff 	mov    %rax,-0x698(%rbp)
   17db9:	48 8d 85 b0 f4 ff ff 	lea    -0xb50(%rbp),%rax
   17dc0:	48 89 85 70 f9 ff ff 	mov    %rax,-0x690(%rbp)
   17dc7:	48 8d 85 b0 f4 ff ff 	lea    -0xb50(%rbp),%rax
   17dce:	48 89 85 78 f9 ff ff 	mov    %rax,-0x688(%rbp)
   17dd5:	48 8d 85 b0 f4 ff ff 	lea    -0xb50(%rbp),%rax
   17ddc:	48 89 85 80 f9 ff ff 	mov    %rax,-0x680(%rbp)
   17de3:	48 8d 85 b0 f4 ff ff 	lea    -0xb50(%rbp),%rax
   17dea:	48 89 85 88 f9 ff ff 	mov    %rax,-0x678(%rbp)
   17df1:	48 8d 85 b0 f4 ff ff 	lea    -0xb50(%rbp),%rax
   17df8:	48 89 85 90 f9 ff ff 	mov    %rax,-0x670(%rbp)
   17dff:	48 c7 85 98 f9 ff ff 	movq   $0x0,-0x668(%rbp)
   17e06:	00 00 00 00 
   17e0a:	48 8d 85 b0 f4 ff ff 	lea    -0xb50(%rbp),%rax
   17e11:	48 89 85 a0 f9 ff ff 	mov    %rax,-0x660(%rbp)
   17e18:	48 8d 85 b0 f4 ff ff 	lea    -0xb50(%rbp),%rax
   17e1f:	48 89 85 a8 f9 ff ff 	mov    %rax,-0x658(%rbp)
   17e26:	48 8d 85 b0 f4 ff ff 	lea    -0xb50(%rbp),%rax
   17e2d:	48 89 85 b0 f9 ff ff 	mov    %rax,-0x650(%rbp)
   17e34:	48 8d 85 b0 f4 ff ff 	lea    -0xb50(%rbp),%rax
   17e3b:	48 89 85 b8 f9 ff ff 	mov    %rax,-0x648(%rbp)
   17e42:	48 8d 85 b0 f4 ff ff 	lea    -0xb50(%rbp),%rax
   17e49:	48 89 85 c0 f9 ff ff 	mov    %rax,-0x640(%rbp)
   17e50:	48 8d 85 b0 f4 ff ff 	lea    -0xb50(%rbp),%rax
   17e57:	48 89 85 c8 f9 ff ff 	mov    %rax,-0x638(%rbp)
   17e5e:	48 8d 85 b0 f4 ff ff 	lea    -0xb50(%rbp),%rax
   17e65:	48 89 85 d0 f9 ff ff 	mov    %rax,-0x630(%rbp)
   17e6c:	48 8d 85 b0 f4 ff ff 	lea    -0xb50(%rbp),%rax
   17e73:	48 89 85 d8 f9 ff ff 	mov    %rax,-0x628(%rbp)
   17e7a:	48 8d 85 b0 f4 ff ff 	lea    -0xb50(%rbp),%rax
   17e81:	48 89 85 e0 f9 ff ff 	mov    %rax,-0x620(%rbp)
   17e88:	48 8d 85 b0 f4 ff ff 	lea    -0xb50(%rbp),%rax
   17e8f:	48 89 85 e8 f9 ff ff 	mov    %rax,-0x618(%rbp)
   17e96:	48 8d 85 b0 f4 ff ff 	lea    -0xb50(%rbp),%rax
   17e9d:	48 89 85 f0 f9 ff ff 	mov    %rax,-0x610(%rbp)
   17ea4:	48 c7 85 f8 f9 ff ff 	movq   $0x0,-0x608(%rbp)
   17eab:	00 00 00 00 
   17eaf:	48 8d 85 b0 f4 ff ff 	lea    -0xb50(%rbp),%rax
   17eb6:	48 89 85 00 fa ff ff 	mov    %rax,-0x600(%rbp)
   17ebd:	48 8d 85 b0 f4 ff ff 	lea    -0xb50(%rbp),%rax
   17ec4:	48 89 85 08 fa ff ff 	mov    %rax,-0x5f8(%rbp)
   17ecb:	48 8d 85 b0 f4 ff ff 	lea    -0xb50(%rbp),%rax
   17ed2:	48 89 85 10 fa ff ff 	mov    %rax,-0x5f0(%rbp)
   17ed9:	48 8d 85 b0 f4 ff ff 	lea    -0xb50(%rbp),%rax
   17ee0:	48 89 85 18 fa ff ff 	mov    %rax,-0x5e8(%rbp)
   17ee7:	48 c7 85 20 fa ff ff 	movq   $0x0,-0x5e0(%rbp)
   17eee:	00 00 00 00 
   17ef2:	48 c7 85 28 fa ff ff 	movq   $0x0,-0x5d8(%rbp)
   17ef9:	00 00 00 00 
   17efd:	48 8d 85 b0 f4 ff ff 	lea    -0xb50(%rbp),%rax
   17f04:	48 89 85 30 fa ff ff 	mov    %rax,-0x5d0(%rbp)
   17f0b:	48 8d 85 b0 f4 ff ff 	lea    -0xb50(%rbp),%rax
   17f12:	48 89 85 38 fa ff ff 	mov    %rax,-0x5c8(%rbp)
   17f19:	48 8d 85 b0 f4 ff ff 	lea    -0xb50(%rbp),%rax
   17f20:	48 89 85 40 fa ff ff 	mov    %rax,-0x5c0(%rbp)
   17f27:	48 8d 85 b0 f4 ff ff 	lea    -0xb50(%rbp),%rax
   17f2e:	48 89 85 48 fa ff ff 	mov    %rax,-0x5b8(%rbp)
   17f35:	48 8d 85 b0 f4 ff ff 	lea    -0xb50(%rbp),%rax
   17f3c:	48 89 85 50 fa ff ff 	mov    %rax,-0x5b0(%rbp)
   17f43:	48 8d 85 b0 f4 ff ff 	lea    -0xb50(%rbp),%rax
   17f4a:	48 89 85 58 fa ff ff 	mov    %rax,-0x5a8(%rbp)
   17f51:	48 8d 85 b0 f4 ff ff 	lea    -0xb50(%rbp),%rax
   17f58:	48 89 85 60 fa ff ff 	mov    %rax,-0x5a0(%rbp)
   17f5f:	48 c7 85 68 fa ff ff 	movq   $0x0,-0x598(%rbp)
   17f66:	00 00 00 00 
   17f6a:	48 8d 85 b0 f4 ff ff 	lea    -0xb50(%rbp),%rax
   17f71:	48 89 85 70 fa ff ff 	mov    %rax,-0x590(%rbp)
   17f78:	48 c7 85 78 fa ff ff 	movq   $0x0,-0x588(%rbp)
   17f7f:	00 00 00 00 
   17f83:	48 8d 85 b0 f4 ff ff 	lea    -0xb50(%rbp),%rax
   17f8a:	48 89 85 80 fa ff ff 	mov    %rax,-0x580(%rbp)
   17f91:	48 8d 85 b0 f4 ff ff 	lea    -0xb50(%rbp),%rax
   17f98:	48 89 85 88 fa ff ff 	mov    %rax,-0x578(%rbp)
   17f9f:	48 8d 85 b0 f4 ff ff 	lea    -0xb50(%rbp),%rax
   17fa6:	48 89 85 90 fa ff ff 	mov    %rax,-0x570(%rbp)
   17fad:	48 8d 85 b0 f4 ff ff 	lea    -0xb50(%rbp),%rax
   17fb4:	48 89 85 98 fa ff ff 	mov    %rax,-0x568(%rbp)
   17fbb:	48 8d 85 b0 f4 ff ff 	lea    -0xb50(%rbp),%rax
   17fc2:	48 89 85 a0 fa ff ff 	mov    %rax,-0x560(%rbp)
   17fc9:	48 8d 85 b0 f4 ff ff 	lea    -0xb50(%rbp),%rax
   17fd0:	48 89 85 a8 fa ff ff 	mov    %rax,-0x558(%rbp)
   17fd7:	48 8d 85 b0 f4 ff ff 	lea    -0xb50(%rbp),%rax
   17fde:	48 89 85 b0 fa ff ff 	mov    %rax,-0x550(%rbp)
   17fe5:	48 8d 85 b0 f4 ff ff 	lea    -0xb50(%rbp),%rax
   17fec:	48 89 85 b8 fa ff ff 	mov    %rax,-0x548(%rbp)
   17ff3:	48 8d 85 b0 f4 ff ff 	lea    -0xb50(%rbp),%rax
   17ffa:	48 89 85 c0 fa ff ff 	mov    %rax,-0x540(%rbp)
   18001:	48 8d 85 b0 f4 ff ff 	lea    -0xb50(%rbp),%rax
   18008:	48 89 85 c8 fa ff ff 	mov    %rax,-0x538(%rbp)
   1800f:	48 8d 85 b0 f4 ff ff 	lea    -0xb50(%rbp),%rax
   18016:	48 89 85 d0 fa ff ff 	mov    %rax,-0x530(%rbp)
   1801d:	48 8d 85 b0 f4 ff ff 	lea    -0xb50(%rbp),%rax
   18024:	48 89 85 d8 fa ff ff 	mov    %rax,-0x528(%rbp)
   1802b:	48 8d 85 b0 f4 ff ff 	lea    -0xb50(%rbp),%rax
   18032:	48 89 85 e0 fa ff ff 	mov    %rax,-0x520(%rbp)
   18039:	48 c7 85 e8 fa ff ff 	movq   $0x0,-0x518(%rbp)
   18040:	00 00 00 00 
   18044:	48 8d 85 b0 f4 ff ff 	lea    -0xb50(%rbp),%rax
   1804b:	48 89 85 f0 fa ff ff 	mov    %rax,-0x510(%rbp)
   18052:	48 8d 85 b0 f4 ff ff 	lea    -0xb50(%rbp),%rax
   18059:	48 89 85 f8 fa ff ff 	mov    %rax,-0x508(%rbp)
   18060:	48 8d 85 b0 f4 ff ff 	lea    -0xb50(%rbp),%rax
   18067:	48 89 85 00 fb ff ff 	mov    %rax,-0x500(%rbp)
   1806e:	48 8d 85 b0 f4 ff ff 	lea    -0xb50(%rbp),%rax
   18075:	48 89 85 08 fb ff ff 	mov    %rax,-0x4f8(%rbp)
   1807c:	48 8d 85 b0 f4 ff ff 	lea    -0xb50(%rbp),%rax
   18083:	48 89 85 10 fb ff ff 	mov    %rax,-0x4f0(%rbp)
   1808a:	48 8d 85 b0 f4 ff ff 	lea    -0xb50(%rbp),%rax
   18091:	48 89 85 18 fb ff ff 	mov    %rax,-0x4e8(%rbp)
   18098:	48 8d 85 b0 f4 ff ff 	lea    -0xb50(%rbp),%rax
   1809f:	48 89 85 20 fb ff ff 	mov    %rax,-0x4e0(%rbp)
   180a6:	48 8d 85 b0 f4 ff ff 	lea    -0xb50(%rbp),%rax
   180ad:	48 89 85 28 fb ff ff 	mov    %rax,-0x4d8(%rbp)
   180b4:	48 8d 85 b0 f4 ff ff 	lea    -0xb50(%rbp),%rax
   180bb:	48 89 85 30 fb ff ff 	mov    %rax,-0x4d0(%rbp)
   180c2:	48 8d 85 b0 f4 ff ff 	lea    -0xb50(%rbp),%rax
   180c9:	48 89 85 38 fb ff ff 	mov    %rax,-0x4c8(%rbp)
   180d0:	48 8d 85 b0 f4 ff ff 	lea    -0xb50(%rbp),%rax
   180d7:	48 89 85 40 fb ff ff 	mov    %rax,-0x4c0(%rbp)
   180de:	48 8d 85 b0 f4 ff ff 	lea    -0xb50(%rbp),%rax
   180e5:	48 89 85 48 fb ff ff 	mov    %rax,-0x4b8(%rbp)
   180ec:	48 8d 85 b0 f4 ff ff 	lea    -0xb50(%rbp),%rax
   180f3:	48 89 85 50 fb ff ff 	mov    %rax,-0x4b0(%rbp)
   180fa:	48 8d 85 b0 f4 ff ff 	lea    -0xb50(%rbp),%rax
   18101:	48 89 85 58 fb ff ff 	mov    %rax,-0x4a8(%rbp)
   18108:	48 8d 85 b0 f4 ff ff 	lea    -0xb50(%rbp),%rax
   1810f:	48 89 85 60 fb ff ff 	mov    %rax,-0x4a0(%rbp)
   18116:	48 8d 85 b0 f4 ff ff 	lea    -0xb50(%rbp),%rax
   1811d:	48 89 85 68 fb ff ff 	mov    %rax,-0x498(%rbp)
   18124:	48 8d 85 b0 f4 ff ff 	lea    -0xb50(%rbp),%rax
   1812b:	48 89 85 70 fb ff ff 	mov    %rax,-0x490(%rbp)
   18132:	48 8d 85 b0 f4 ff ff 	lea    -0xb50(%rbp),%rax
   18139:	48 89 85 78 fb ff ff 	mov    %rax,-0x488(%rbp)
   18140:	48 8d 85 b0 f4 ff ff 	lea    -0xb50(%rbp),%rax
   18147:	48 89 85 80 fb ff ff 	mov    %rax,-0x480(%rbp)
   1814e:	48 8d 85 b0 f4 ff ff 	lea    -0xb50(%rbp),%rax
   18155:	48 89 85 88 fb ff ff 	mov    %rax,-0x478(%rbp)
   1815c:	48 8d 85 b0 f4 ff ff 	lea    -0xb50(%rbp),%rax
   18163:	48 89 85 90 fb ff ff 	mov    %rax,-0x470(%rbp)
   1816a:	48 c7 85 98 fb ff ff 	movq   $0x0,-0x468(%rbp)
   18171:	00 00 00 00 
   18175:	48 8d 85 b0 f4 ff ff 	lea    -0xb50(%rbp),%rax
   1817c:	48 89 85 a0 fb ff ff 	mov    %rax,-0x460(%rbp)
   18183:	48 8d 85 b0 f4 ff ff 	lea    -0xb50(%rbp),%rax
   1818a:	48 89 85 a8 fb ff ff 	mov    %rax,-0x458(%rbp)
   18191:	48 8d 85 b0 f4 ff ff 	lea    -0xb50(%rbp),%rax
   18198:	48 89 85 b0 fb ff ff 	mov    %rax,-0x450(%rbp)
   1819f:	48 8d 85 b0 f4 ff ff 	lea    -0xb50(%rbp),%rax
   181a6:	48 89 85 b8 fb ff ff 	mov    %rax,-0x448(%rbp)
   181ad:	48 8d 85 b0 f4 ff ff 	lea    -0xb50(%rbp),%rax
   181b4:	48 89 85 c0 fb ff ff 	mov    %rax,-0x440(%rbp)
   181bb:	48 8d 85 b0 f4 ff ff 	lea    -0xb50(%rbp),%rax
   181c2:	48 89 85 c8 fb ff ff 	mov    %rax,-0x438(%rbp)
   181c9:	48 8d 85 b0 f4 ff ff 	lea    -0xb50(%rbp),%rax
   181d0:	48 89 85 d0 fb ff ff 	mov    %rax,-0x430(%rbp)
   181d7:	48 8d 85 b0 f4 ff ff 	lea    -0xb50(%rbp),%rax
   181de:	48 89 85 d8 fb ff ff 	mov    %rax,-0x428(%rbp)
   181e5:	48 8d 85 b0 f4 ff ff 	lea    -0xb50(%rbp),%rax
   181ec:	48 89 85 e0 fb ff ff 	mov    %rax,-0x420(%rbp)
   181f3:	48 8d 85 b0 f4 ff ff 	lea    -0xb50(%rbp),%rax
   181fa:	48 89 85 e8 fb ff ff 	mov    %rax,-0x418(%rbp)
   18201:	48 8d 85 b0 f4 ff ff 	lea    -0xb50(%rbp),%rax
   18208:	48 89 85 f0 fb ff ff 	mov    %rax,-0x410(%rbp)
   1820f:	48 8d 85 b0 f4 ff ff 	lea    -0xb50(%rbp),%rax
   18216:	48 89 85 f8 fb ff ff 	mov    %rax,-0x408(%rbp)
   1821d:	48 8d 85 b0 f4 ff ff 	lea    -0xb50(%rbp),%rax
   18224:	48 89 85 00 fc ff ff 	mov    %rax,-0x400(%rbp)
   1822b:	48 8d 85 b0 f4 ff ff 	lea    -0xb50(%rbp),%rax
   18232:	48 89 85 08 fc ff ff 	mov    %rax,-0x3f8(%rbp)
   18239:	48 8d 85 b0 f4 ff ff 	lea    -0xb50(%rbp),%rax
   18240:	48 89 85 10 fc ff ff 	mov    %rax,-0x3f0(%rbp)
   18247:	48 8d 85 b0 f4 ff ff 	lea    -0xb50(%rbp),%rax
   1824e:	48 89 85 18 fc ff ff 	mov    %rax,-0x3e8(%rbp)
   18255:	48 8d 85 b0 f4 ff ff 	lea    -0xb50(%rbp),%rax
   1825c:	48 89 85 20 fc ff ff 	mov    %rax,-0x3e0(%rbp)
   18263:	48 c7 85 28 fc ff ff 	movq   $0x0,-0x3d8(%rbp)
   1826a:	00 00 00 00 
   1826e:	48 8d 85 b0 f4 ff ff 	lea    -0xb50(%rbp),%rax
   18275:	48 89 85 30 fc ff ff 	mov    %rax,-0x3d0(%rbp)
   1827c:	48 8d 85 b0 f4 ff ff 	lea    -0xb50(%rbp),%rax
   18283:	48 89 85 38 fc ff ff 	mov    %rax,-0x3c8(%rbp)
   1828a:	48 8d 85 b0 f4 ff ff 	lea    -0xb50(%rbp),%rax
   18291:	48 89 85 40 fc ff ff 	mov    %rax,-0x3c0(%rbp)
   18298:	48 8d 85 b0 f4 ff ff 	lea    -0xb50(%rbp),%rax
   1829f:	48 89 85 48 fc ff ff 	mov    %rax,-0x3b8(%rbp)
   182a6:	48 8d 85 b0 f4 ff ff 	lea    -0xb50(%rbp),%rax
   182ad:	48 89 85 50 fc ff ff 	mov    %rax,-0x3b0(%rbp)
   182b4:	48 8d 85 b0 f4 ff ff 	lea    -0xb50(%rbp),%rax
   182bb:	48 89 85 58 fc ff ff 	mov    %rax,-0x3a8(%rbp)
   182c2:	48 8d 85 b0 f4 ff ff 	lea    -0xb50(%rbp),%rax
   182c9:	48 89 85 60 fc ff ff 	mov    %rax,-0x3a0(%rbp)
   182d0:	48 8d 85 b0 f4 ff ff 	lea    -0xb50(%rbp),%rax
   182d7:	48 89 85 68 fc ff ff 	mov    %rax,-0x398(%rbp)
   182de:	48 8d 85 b0 f4 ff ff 	lea    -0xb50(%rbp),%rax
   182e5:	48 89 85 70 fc ff ff 	mov    %rax,-0x390(%rbp)
   182ec:	48 8d 85 b0 f4 ff ff 	lea    -0xb50(%rbp),%rax
   182f3:	48 89 85 78 fc ff ff 	mov    %rax,-0x388(%rbp)
   182fa:	48 8d 85 b0 f4 ff ff 	lea    -0xb50(%rbp),%rax
   18301:	48 89 85 80 fc ff ff 	mov    %rax,-0x380(%rbp)
   18308:	48 8d 85 b0 f4 ff ff 	lea    -0xb50(%rbp),%rax
   1830f:	48 89 85 88 fc ff ff 	mov    %rax,-0x378(%rbp)
   18316:	48 8d 85 b0 f4 ff ff 	lea    -0xb50(%rbp),%rax
   1831d:	48 89 85 90 fc ff ff 	mov    %rax,-0x370(%rbp)
   18324:	48 8d 85 b0 f4 ff ff 	lea    -0xb50(%rbp),%rax
   1832b:	48 89 85 98 fc ff ff 	mov    %rax,-0x368(%rbp)
   18332:	48 8d 85 b0 f4 ff ff 	lea    -0xb50(%rbp),%rax
   18339:	48 89 85 a0 fc ff ff 	mov    %rax,-0x360(%rbp)
   18340:	48 8d 85 b0 f4 ff ff 	lea    -0xb50(%rbp),%rax
   18347:	48 89 85 a8 fc ff ff 	mov    %rax,-0x358(%rbp)
   1834e:	48 8d 85 b0 f4 ff ff 	lea    -0xb50(%rbp),%rax
   18355:	48 89 85 b0 fc ff ff 	mov    %rax,-0x350(%rbp)
   1835c:	48 8d 85 b0 f4 ff ff 	lea    -0xb50(%rbp),%rax
   18363:	48 89 85 b8 fc ff ff 	mov    %rax,-0x348(%rbp)
   1836a:	48 8d 85 b0 f4 ff ff 	lea    -0xb50(%rbp),%rax
   18371:	48 89 85 c0 fc ff ff 	mov    %rax,-0x340(%rbp)
   18378:	48 8d 85 b0 f4 ff ff 	lea    -0xb50(%rbp),%rax
   1837f:	48 89 85 c8 fc ff ff 	mov    %rax,-0x338(%rbp)
   18386:	48 8d 85 b0 f4 ff ff 	lea    -0xb50(%rbp),%rax
   1838d:	48 89 85 d0 fc ff ff 	mov    %rax,-0x330(%rbp)
   18394:	48 8d 85 b0 f4 ff ff 	lea    -0xb50(%rbp),%rax
   1839b:	48 89 85 d8 fc ff ff 	mov    %rax,-0x328(%rbp)
   183a2:	48 8d 85 b0 f4 ff ff 	lea    -0xb50(%rbp),%rax
   183a9:	48 89 85 e0 fc ff ff 	mov    %rax,-0x320(%rbp)
   183b0:	48 8d 85 b0 f4 ff ff 	lea    -0xb50(%rbp),%rax
   183b7:	48 89 85 e8 fc ff ff 	mov    %rax,-0x318(%rbp)
   183be:	48 8d 85 b0 f4 ff ff 	lea    -0xb50(%rbp),%rax
   183c5:	48 89 85 f0 fc ff ff 	mov    %rax,-0x310(%rbp)
   183cc:	48 8d 85 b0 f4 ff ff 	lea    -0xb50(%rbp),%rax
   183d3:	48 89 85 f8 fc ff ff 	mov    %rax,-0x308(%rbp)
   183da:	48 8d 85 b0 f4 ff ff 	lea    -0xb50(%rbp),%rax
   183e1:	48 89 85 00 fd ff ff 	mov    %rax,-0x300(%rbp)
   183e8:	48 8d 85 b0 f4 ff ff 	lea    -0xb50(%rbp),%rax
   183ef:	48 89 85 08 fd ff ff 	mov    %rax,-0x2f8(%rbp)
   183f6:	48 8d 85 b0 f4 ff ff 	lea    -0xb50(%rbp),%rax
   183fd:	48 89 85 10 fd ff ff 	mov    %rax,-0x2f0(%rbp)
   18404:	48 c7 85 18 fd ff ff 	movq   $0x0,-0x2e8(%rbp)
   1840b:	00 00 00 00 
   1840f:	48 8d 85 b0 f4 ff ff 	lea    -0xb50(%rbp),%rax
   18416:	48 89 85 20 fd ff ff 	mov    %rax,-0x2e0(%rbp)
   1841d:	48 8d 85 b0 f4 ff ff 	lea    -0xb50(%rbp),%rax
   18424:	48 89 85 28 fd ff ff 	mov    %rax,-0x2d8(%rbp)
   1842b:	48 8d 85 b0 f4 ff ff 	lea    -0xb50(%rbp),%rax
   18432:	48 89 85 30 fd ff ff 	mov    %rax,-0x2d0(%rbp)
   18439:	48 8d 85 b0 f4 ff ff 	lea    -0xb50(%rbp),%rax
   18440:	48 89 85 38 fd ff ff 	mov    %rax,-0x2c8(%rbp)
   18447:	48 8d 85 b0 f4 ff ff 	lea    -0xb50(%rbp),%rax
   1844e:	48 89 85 40 fd ff ff 	mov    %rax,-0x2c0(%rbp)
   18455:	48 8d 85 b0 f4 ff ff 	lea    -0xb50(%rbp),%rax
   1845c:	48 89 85 48 fd ff ff 	mov    %rax,-0x2b8(%rbp)
   18463:	48 8d 85 b0 f4 ff ff 	lea    -0xb50(%rbp),%rax
   1846a:	48 89 85 50 fd ff ff 	mov    %rax,-0x2b0(%rbp)
   18471:	48 8d 85 b0 f4 ff ff 	lea    -0xb50(%rbp),%rax
   18478:	48 89 85 58 fd ff ff 	mov    %rax,-0x2a8(%rbp)
   1847f:	48 8d 85 b0 f4 ff ff 	lea    -0xb50(%rbp),%rax
   18486:	48 89 85 60 fd ff ff 	mov    %rax,-0x2a0(%rbp)
   1848d:	48 8d 85 b0 f4 ff ff 	lea    -0xb50(%rbp),%rax
   18494:	48 89 85 68 fd ff ff 	mov    %rax,-0x298(%rbp)
   1849b:	48 8d 85 b0 f4 ff ff 	lea    -0xb50(%rbp),%rax
   184a2:	48 89 85 70 fd ff ff 	mov    %rax,-0x290(%rbp)
   184a9:	48 8d 85 b0 f4 ff ff 	lea    -0xb50(%rbp),%rax
   184b0:	48 89 85 78 fd ff ff 	mov    %rax,-0x288(%rbp)
   184b7:	48 8d 85 b0 f4 ff ff 	lea    -0xb50(%rbp),%rax
   184be:	48 89 85 80 fd ff ff 	mov    %rax,-0x280(%rbp)
   184c5:	48 8d 85 b0 f4 ff ff 	lea    -0xb50(%rbp),%rax
   184cc:	48 89 85 88 fd ff ff 	mov    %rax,-0x278(%rbp)
   184d3:	48 8d 85 b0 f4 ff ff 	lea    -0xb50(%rbp),%rax
   184da:	48 89 85 90 fd ff ff 	mov    %rax,-0x270(%rbp)
   184e1:	48 8d 85 b0 f4 ff ff 	lea    -0xb50(%rbp),%rax
   184e8:	48 89 85 98 fd ff ff 	mov    %rax,-0x268(%rbp)
   184ef:	48 8d 85 b0 f4 ff ff 	lea    -0xb50(%rbp),%rax
   184f6:	48 89 85 a0 fd ff ff 	mov    %rax,-0x260(%rbp)
   184fd:	48 8d 85 b0 f4 ff ff 	lea    -0xb50(%rbp),%rax
   18504:	48 89 85 a8 fd ff ff 	mov    %rax,-0x258(%rbp)
   1850b:	48 8d 85 b0 f4 ff ff 	lea    -0xb50(%rbp),%rax
   18512:	48 89 85 b0 fd ff ff 	mov    %rax,-0x250(%rbp)
   18519:	48 8d 85 b0 f4 ff ff 	lea    -0xb50(%rbp),%rax
   18520:	48 89 85 b8 fd ff ff 	mov    %rax,-0x248(%rbp)
   18527:	48 8d 85 b0 f4 ff ff 	lea    -0xb50(%rbp),%rax
   1852e:	48 89 85 c0 fd ff ff 	mov    %rax,-0x240(%rbp)
   18535:	48 8d 85 b0 f4 ff ff 	lea    -0xb50(%rbp),%rax
   1853c:	48 89 85 c8 fd ff ff 	mov    %rax,-0x238(%rbp)
   18543:	48 8d 85 b0 f4 ff ff 	lea    -0xb50(%rbp),%rax
   1854a:	48 89 85 d0 fd ff ff 	mov    %rax,-0x230(%rbp)
   18551:	48 8d 85 b0 f4 ff ff 	lea    -0xb50(%rbp),%rax
   18558:	48 89 85 d8 fd ff ff 	mov    %rax,-0x228(%rbp)
   1855f:	48 8d 85 b0 f4 ff ff 	lea    -0xb50(%rbp),%rax
   18566:	48 89 85 e0 fd ff ff 	mov    %rax,-0x220(%rbp)
   1856d:	48 8d 85 b0 f4 ff ff 	lea    -0xb50(%rbp),%rax
   18574:	48 89 85 e8 fd ff ff 	mov    %rax,-0x218(%rbp)
   1857b:	48 8d 85 b0 f4 ff ff 	lea    -0xb50(%rbp),%rax
   18582:	48 89 85 f0 fd ff ff 	mov    %rax,-0x210(%rbp)
   18589:	48 8d 85 b0 f4 ff ff 	lea    -0xb50(%rbp),%rax
   18590:	48 89 85 f8 fd ff ff 	mov    %rax,-0x208(%rbp)
   18597:	48 8d 85 b0 f4 ff ff 	lea    -0xb50(%rbp),%rax
   1859e:	48 89 85 00 fe ff ff 	mov    %rax,-0x200(%rbp)
   185a5:	48 8d 85 b0 f4 ff ff 	lea    -0xb50(%rbp),%rax
   185ac:	48 89 85 08 fe ff ff 	mov    %rax,-0x1f8(%rbp)
   185b3:	48 8d 85 b0 f4 ff ff 	lea    -0xb50(%rbp),%rax
   185ba:	48 89 85 10 fe ff ff 	mov    %rax,-0x1f0(%rbp)
   185c1:	48 8d 85 b0 f4 ff ff 	lea    -0xb50(%rbp),%rax
   185c8:	48 89 85 18 fe ff ff 	mov    %rax,-0x1e8(%rbp)
   185cf:	48 8d 85 b0 f4 ff ff 	lea    -0xb50(%rbp),%rax
   185d6:	48 89 85 20 fe ff ff 	mov    %rax,-0x1e0(%rbp)
   185dd:	48 8d 85 b0 f4 ff ff 	lea    -0xb50(%rbp),%rax
   185e4:	48 89 85 28 fe ff ff 	mov    %rax,-0x1d8(%rbp)
   185eb:	48 8d 85 b0 f4 ff ff 	lea    -0xb50(%rbp),%rax
   185f2:	48 89 85 30 fe ff ff 	mov    %rax,-0x1d0(%rbp)
   185f9:	48 8d 85 b0 f4 ff ff 	lea    -0xb50(%rbp),%rax
   18600:	48 89 85 38 fe ff ff 	mov    %rax,-0x1c8(%rbp)
   18607:	48 8d 85 b0 f4 ff ff 	lea    -0xb50(%rbp),%rax
   1860e:	48 89 85 40 fe ff ff 	mov    %rax,-0x1c0(%rbp)
   18615:	48 8d 85 b0 f4 ff ff 	lea    -0xb50(%rbp),%rax
   1861c:	48 89 85 48 fe ff ff 	mov    %rax,-0x1b8(%rbp)
   18623:	48 8d 85 b0 f4 ff ff 	lea    -0xb50(%rbp),%rax
   1862a:	48 89 85 50 fe ff ff 	mov    %rax,-0x1b0(%rbp)
   18631:	48 c7 85 58 fe ff ff 	movq   $0x0,-0x1a8(%rbp)
   18638:	00 00 00 00 
   1863c:	48 8d 85 b0 f4 ff ff 	lea    -0xb50(%rbp),%rax
   18643:	48 89 85 60 fe ff ff 	mov    %rax,-0x1a0(%rbp)
   1864a:	48 8d 85 b0 f4 ff ff 	lea    -0xb50(%rbp),%rax
   18651:	48 89 85 68 fe ff ff 	mov    %rax,-0x198(%rbp)
   18658:	48 8d 85 b0 f4 ff ff 	lea    -0xb50(%rbp),%rax
   1865f:	48 89 85 70 fe ff ff 	mov    %rax,-0x190(%rbp)
   18666:	48 8d 85 b0 f4 ff ff 	lea    -0xb50(%rbp),%rax
   1866d:	48 89 85 78 fe ff ff 	mov    %rax,-0x188(%rbp)
   18674:	48 8d 85 b0 f4 ff ff 	lea    -0xb50(%rbp),%rax
   1867b:	48 89 85 80 fe ff ff 	mov    %rax,-0x180(%rbp)
   18682:	48 8d 85 b0 f4 ff ff 	lea    -0xb50(%rbp),%rax
   18689:	48 89 85 88 fe ff ff 	mov    %rax,-0x178(%rbp)
   18690:	48 8d 85 b0 f4 ff ff 	lea    -0xb50(%rbp),%rax
   18697:	48 89 85 90 fe ff ff 	mov    %rax,-0x170(%rbp)
   1869e:	48 8d 85 b0 f4 ff ff 	lea    -0xb50(%rbp),%rax
   186a5:	48 89 85 98 fe ff ff 	mov    %rax,-0x168(%rbp)
   186ac:	48 8d 85 b0 f4 ff ff 	lea    -0xb50(%rbp),%rax
   186b3:	48 89 85 a0 fe ff ff 	mov    %rax,-0x160(%rbp)
   186ba:	48 8d 85 b0 f4 ff ff 	lea    -0xb50(%rbp),%rax
   186c1:	48 89 85 a8 fe ff ff 	mov    %rax,-0x158(%rbp)
   186c8:	48 8d 85 b0 f4 ff ff 	lea    -0xb50(%rbp),%rax
   186cf:	48 89 85 b0 fe ff ff 	mov    %rax,-0x150(%rbp)
   186d6:	48 8d 85 b0 f4 ff ff 	lea    -0xb50(%rbp),%rax
   186dd:	48 89 85 b8 fe ff ff 	mov    %rax,-0x148(%rbp)
   186e4:	48 8d 85 b0 f4 ff ff 	lea    -0xb50(%rbp),%rax
   186eb:	48 89 85 c0 fe ff ff 	mov    %rax,-0x140(%rbp)
   186f2:	48 8d 85 b0 f4 ff ff 	lea    -0xb50(%rbp),%rax
   186f9:	48 89 85 c8 fe ff ff 	mov    %rax,-0x138(%rbp)
   18700:	48 8d 85 b0 f4 ff ff 	lea    -0xb50(%rbp),%rax
   18707:	48 89 85 d0 fe ff ff 	mov    %rax,-0x130(%rbp)
   1870e:	48 8d 85 b0 f4 ff ff 	lea    -0xb50(%rbp),%rax
   18715:	48 89 85 d8 fe ff ff 	mov    %rax,-0x128(%rbp)
   1871c:	48 8d 85 b0 f4 ff ff 	lea    -0xb50(%rbp),%rax
   18723:	48 89 85 e0 fe ff ff 	mov    %rax,-0x120(%rbp)
   1872a:	48 8d 85 b0 f4 ff ff 	lea    -0xb50(%rbp),%rax
   18731:	48 89 85 e8 fe ff ff 	mov    %rax,-0x118(%rbp)
   18738:	48 8d 85 b0 f4 ff ff 	lea    -0xb50(%rbp),%rax
   1873f:	48 89 85 f0 fe ff ff 	mov    %rax,-0x110(%rbp)
   18746:	48 8d 85 b0 f4 ff ff 	lea    -0xb50(%rbp),%rax
   1874d:	48 89 85 f8 fe ff ff 	mov    %rax,-0x108(%rbp)
   18754:	48 8d 85 b0 f4 ff ff 	lea    -0xb50(%rbp),%rax
   1875b:	48 89 85 00 ff ff ff 	mov    %rax,-0x100(%rbp)
   18762:	48 c7 85 08 ff ff ff 	movq   $0x0,-0xf8(%rbp)
   18769:	00 00 00 00 
   1876d:	48 8d 85 b0 f4 ff ff 	lea    -0xb50(%rbp),%rax
   18774:	48 89 85 10 ff ff ff 	mov    %rax,-0xf0(%rbp)
   1877b:	48 8d 85 b0 f4 ff ff 	lea    -0xb50(%rbp),%rax
   18782:	48 89 85 18 ff ff ff 	mov    %rax,-0xe8(%rbp)
   18789:	48 8d 85 b0 f4 ff ff 	lea    -0xb50(%rbp),%rax
   18790:	48 89 85 20 ff ff ff 	mov    %rax,-0xe0(%rbp)
   18797:	48 8d 85 b0 f4 ff ff 	lea    -0xb50(%rbp),%rax
   1879e:	48 89 85 28 ff ff ff 	mov    %rax,-0xd8(%rbp)
   187a5:	48 8d 85 b0 f4 ff ff 	lea    -0xb50(%rbp),%rax
   187ac:	48 89 85 30 ff ff ff 	mov    %rax,-0xd0(%rbp)
   187b3:	48 8d 85 b0 f4 ff ff 	lea    -0xb50(%rbp),%rax
   187ba:	48 89 85 38 ff ff ff 	mov    %rax,-0xc8(%rbp)
   187c1:	48 8d 85 b0 f4 ff ff 	lea    -0xb50(%rbp),%rax
   187c8:	48 89 85 40 ff ff ff 	mov    %rax,-0xc0(%rbp)
   187cf:	48 8d 85 b0 f4 ff ff 	lea    -0xb50(%rbp),%rax
   187d6:	48 89 85 48 ff ff ff 	mov    %rax,-0xb8(%rbp)
   187dd:	48 8d 85 b0 f4 ff ff 	lea    -0xb50(%rbp),%rax
   187e4:	48 89 85 50 ff ff ff 	mov    %rax,-0xb0(%rbp)
   187eb:	48 8d 85 b0 f4 ff ff 	lea    -0xb50(%rbp),%rax
   187f2:	48 89 85 58 ff ff ff 	mov    %rax,-0xa8(%rbp)
   187f9:	48 8d 85 b0 f4 ff ff 	lea    -0xb50(%rbp),%rax
   18800:	48 89 85 60 ff ff ff 	mov    %rax,-0xa0(%rbp)
   18807:	48 8d 85 b0 f4 ff ff 	lea    -0xb50(%rbp),%rax
   1880e:	48 89 85 68 ff ff ff 	mov    %rax,-0x98(%rbp)
   18815:	48 8d 85 b0 f4 ff ff 	lea    -0xb50(%rbp),%rax
   1881c:	48 89 85 70 ff ff ff 	mov    %rax,-0x90(%rbp)
   18823:	48 8d 85 b0 f4 ff ff 	lea    -0xb50(%rbp),%rax
   1882a:	48 89 85 78 ff ff ff 	mov    %rax,-0x88(%rbp)
   18831:	48 8d 85 b0 f4 ff ff 	lea    -0xb50(%rbp),%rax
   18838:	48 89 45 80          	mov    %rax,-0x80(%rbp)
   1883c:	48 8d 85 b0 f4 ff ff 	lea    -0xb50(%rbp),%rax
   18843:	48 89 45 88          	mov    %rax,-0x78(%rbp)
   18847:	48 8d 85 b0 f4 ff ff 	lea    -0xb50(%rbp),%rax
   1884e:	48 89 45 90          	mov    %rax,-0x70(%rbp)
   18852:	48 c7 45 98 00 00 00 	movq   $0x0,-0x68(%rbp)
   18859:	00 
   1885a:	48 8d 85 b0 f4 ff ff 	lea    -0xb50(%rbp),%rax
   18861:	48 89 45 a0          	mov    %rax,-0x60(%rbp)
   18865:	48 8d 85 b0 f4 ff ff 	lea    -0xb50(%rbp),%rax
   1886c:	48 89 45 a8          	mov    %rax,-0x58(%rbp)
   18870:	48 8d 85 b0 f4 ff ff 	lea    -0xb50(%rbp),%rax
   18877:	48 89 45 b0          	mov    %rax,-0x50(%rbp)
   1887b:	48 8d 85 b0 f4 ff ff 	lea    -0xb50(%rbp),%rax
   18882:	48 89 45 b8          	mov    %rax,-0x48(%rbp)
   18886:	48 8d 85 b0 f4 ff ff 	lea    -0xb50(%rbp),%rax
   1888d:	48 89 45 c0          	mov    %rax,-0x40(%rbp)
   18891:	48 8d 85 b0 f4 ff ff 	lea    -0xb50(%rbp),%rax
   18898:	48 89 45 c8          	mov    %rax,-0x38(%rbp)
   1889c:	48 8d 85 b0 f4 ff ff 	lea    -0xb50(%rbp),%rax
   188a3:	48 89 45 d0          	mov    %rax,-0x30(%rbp)
   188a7:	48 8d 85 b0 f4 ff ff 	lea    -0xb50(%rbp),%rax
   188ae:	48 89 45 d8          	mov    %rax,-0x28(%rbp)
   188b2:	48 8d 85 b0 f4 ff ff 	lea    -0xb50(%rbp),%rax
   188b9:	48 89 45 e0          	mov    %rax,-0x20(%rbp)
   188bd:	48 8d 85 b0 f4 ff ff 	lea    -0xb50(%rbp),%rax
   188c4:	48 89 45 e8          	mov    %rax,-0x18(%rbp)
   188c8:	c6 85 95 f4 ff ff ba 	movb   $0xba,-0xb6b(%rbp)
   188cf:	48 c7 85 d8 f4 ff ff 	movq   $0x0,-0xb28(%rbp)
   188d6:	00 00 00 00 
   188da:	48 8d 05 5f 89 00 00 	lea    0x895f(%rip),%rax        # 21240 <g_101>
   188e1:	48 89 85 b8 f4 ff ff 	mov    %rax,-0xb48(%rbp)
   188e8:	48 8d 85 b8 f4 ff ff 	lea    -0xb48(%rbp),%rax
   188ef:	48 89 85 b0 f5 ff ff 	mov    %rax,-0xa50(%rbp)
   188f6:	48 8d 85 b8 f4 ff ff 	lea    -0xb48(%rbp),%rax
   188fd:	48 89 85 b8 f5 ff ff 	mov    %rax,-0xa48(%rbp)
   18904:	48 8d 85 b8 f4 ff ff 	lea    -0xb48(%rbp),%rax
   1890b:	48 89 85 c0 f5 ff ff 	mov    %rax,-0xa40(%rbp)
   18912:	48 8d 85 b8 f4 ff ff 	lea    -0xb48(%rbp),%rax
   18919:	48 89 85 c8 f5 ff ff 	mov    %rax,-0xa38(%rbp)
   18920:	48 8d 85 b8 f4 ff ff 	lea    -0xb48(%rbp),%rax
   18927:	48 89 85 d0 f5 ff ff 	mov    %rax,-0xa30(%rbp)
   1892e:	48 8d 85 b8 f4 ff ff 	lea    -0xb48(%rbp),%rax
   18935:	48 89 85 d8 f5 ff ff 	mov    %rax,-0xa28(%rbp)
   1893c:	48 8d 85 b8 f4 ff ff 	lea    -0xb48(%rbp),%rax
   18943:	48 89 85 e0 f5 ff ff 	mov    %rax,-0xa20(%rbp)
   1894a:	48 8d 85 b8 f4 ff ff 	lea    -0xb48(%rbp),%rax
   18951:	48 89 85 e8 f5 ff ff 	mov    %rax,-0xa18(%rbp)
   18958:	48 8d 85 b8 f4 ff ff 	lea    -0xb48(%rbp),%rax
   1895f:	48 89 85 f0 f5 ff ff 	mov    %rax,-0xa10(%rbp)
   18966:	48 8d 85 b8 f4 ff ff 	lea    -0xb48(%rbp),%rax
   1896d:	48 89 85 f8 f5 ff ff 	mov    %rax,-0xa08(%rbp)
   18974:	48 8d 85 b8 f4 ff ff 	lea    -0xb48(%rbp),%rax
   1897b:	48 89 85 00 f6 ff ff 	mov    %rax,-0xa00(%rbp)
   18982:	48 8d 85 b8 f4 ff ff 	lea    -0xb48(%rbp),%rax
   18989:	48 89 85 08 f6 ff ff 	mov    %rax,-0x9f8(%rbp)
   18990:	48 8d 85 b8 f4 ff ff 	lea    -0xb48(%rbp),%rax
   18997:	48 89 85 10 f6 ff ff 	mov    %rax,-0x9f0(%rbp)
   1899e:	48 8d 85 b8 f4 ff ff 	lea    -0xb48(%rbp),%rax
   189a5:	48 89 85 18 f6 ff ff 	mov    %rax,-0x9e8(%rbp)
   189ac:	48 8d 85 b8 f4 ff ff 	lea    -0xb48(%rbp),%rax
   189b3:	48 89 85 20 f6 ff ff 	mov    %rax,-0x9e0(%rbp)
   189ba:	48 8d 85 b8 f4 ff ff 	lea    -0xb48(%rbp),%rax
   189c1:	48 89 85 28 f6 ff ff 	mov    %rax,-0x9d8(%rbp)
   189c8:	48 8d 85 b8 f4 ff ff 	lea    -0xb48(%rbp),%rax
   189cf:	48 89 85 30 f6 ff ff 	mov    %rax,-0x9d0(%rbp)
   189d6:	48 8d 85 b8 f4 ff ff 	lea    -0xb48(%rbp),%rax
   189dd:	48 89 85 38 f6 ff ff 	mov    %rax,-0x9c8(%rbp)
   189e4:	48 8d 85 b8 f4 ff ff 	lea    -0xb48(%rbp),%rax
   189eb:	48 89 85 40 f6 ff ff 	mov    %rax,-0x9c0(%rbp)
   189f2:	48 8d 85 b8 f4 ff ff 	lea    -0xb48(%rbp),%rax
   189f9:	48 89 85 48 f6 ff ff 	mov    %rax,-0x9b8(%rbp)
   18a00:	48 8d 85 b8 f4 ff ff 	lea    -0xb48(%rbp),%rax
   18a07:	48 89 85 50 f6 ff ff 	mov    %rax,-0x9b0(%rbp)
   18a0e:	48 8d 85 b8 f4 ff ff 	lea    -0xb48(%rbp),%rax
   18a15:	48 89 85 58 f6 ff ff 	mov    %rax,-0x9a8(%rbp)
   18a1c:	48 8d 85 b8 f4 ff ff 	lea    -0xb48(%rbp),%rax
   18a23:	48 89 85 60 f6 ff ff 	mov    %rax,-0x9a0(%rbp)
   18a2a:	48 8d 85 b8 f4 ff ff 	lea    -0xb48(%rbp),%rax
   18a31:	48 89 85 68 f6 ff ff 	mov    %rax,-0x998(%rbp)
   18a38:	c7 85 a4 f4 ff ff 87 	movl   $0x47469487,-0xb5c(%rbp)
   18a3f:	94 46 47 
   18a42:	48 c7 85 e0 f4 ff ff 	movq   $0x0,-0xb20(%rbp)
   18a49:	00 00 00 00 
   18a4d:	c7 85 a8 f4 ff ff 04 	movl   $0xc2e12304,-0xb58(%rbp)
   18a54:	23 e1 c2 
   18a57:	48 8d 85 70 f6 ff ff 	lea    -0x990(%rbp),%rax
   18a5e:	48 8d 15 fb 97 00 00 	lea    0x97fb(%rip),%rdx        # 22260 <g_3040+0xb6c>
   18a65:	b9 3f 00 00 00       	mov    $0x3f,%ecx
   18a6a:	48 89 c7             	mov    %rax,%rdi
   18a6d:	48 89 d6             	mov    %rdx,%rsi
   18a70:	f3 48 a5             	rep movsq %ds:(%rsi),%es:(%rdi)
   18a73:	c7 85 ac f4 ff ff 7c 	movl   $0x4c1a5b7c,-0xb54(%rbp)
   18a7a:	5b 1a 4c 
   18a7d:	66 c7 85 96 f4 ff ff 	movw   $0x66b1,-0xb6a(%rbp)
   18a84:	b1 66 
   18a86:	c7 85 98 f4 ff ff 00 	movl   $0x0,-0xb68(%rbp)
   18a8d:	00 00 00 
   18a90:	eb 4c                	jmp    18ade <func_57+0x10d1>
   18a92:	c7 85 9c f4 ff ff 00 	movl   $0x0,-0xb64(%rbp)
   18a99:	00 00 00 
   18a9c:	eb 30                	jmp    18ace <func_57+0x10c1>
   18a9e:	8b 85 9c f4 ff ff    	mov    -0xb64(%rbp),%eax
   18aa4:	48 63 c8             	movslq %eax,%rcx
   18aa7:	8b 85 98 f4 ff ff    	mov    -0xb68(%rbp),%eax
   18aad:	48 63 d0             	movslq %eax,%rdx
   18ab0:	48 89 d0             	mov    %rdx,%rax
   18ab3:	48 01 c0             	add    %rax,%rax
   18ab6:	48 01 d0             	add    %rdx,%rax
   18ab9:	48 01 c8             	add    %rcx,%rax
   18abc:	c7 84 85 f4 f4 ff ff 	movl   $0xffffffff,-0xb0c(%rbp,%rax,4)
   18ac3:	ff ff ff ff 
   18ac7:	83 85 9c f4 ff ff 01 	addl   $0x1,-0xb64(%rbp)
   18ace:	83 bd 9c f4 ff ff 02 	cmpl   $0x2,-0xb64(%rbp)
   18ad5:	7e c7                	jle    18a9e <func_57+0x1091>
   18ad7:	83 85 98 f4 ff ff 01 	addl   $0x1,-0xb68(%rbp)
   18ade:	83 bd 98 f4 ff ff 00 	cmpl   $0x0,-0xb68(%rbp)
   18ae5:	7e ab                	jle    18a92 <func_57+0x1085>
   18ae7:	c7 85 98 f4 ff ff 00 	movl   $0x0,-0xb68(%rbp)
   18aee:	00 00 00 
   18af1:	eb 1a                	jmp    18b0d <func_57+0x1100>
   18af3:	8b 85 98 f4 ff ff    	mov    -0xb68(%rbp),%eax
   18af9:	48 98                	cltq   
   18afb:	c7 84 85 ec f4 ff ff 	movl   $0xf4f43da0,-0xb14(%rbp,%rax,4)
   18b02:	a0 3d f4 f4 
   18b06:	83 85 98 f4 ff ff 01 	addl   $0x1,-0xb68(%rbp)
   18b0d:	83 bd 98 f4 ff ff 01 	cmpl   $0x1,-0xb68(%rbp)
   18b14:	7e dd                	jle    18af3 <func_57+0x10e6>
   18b16:	48 8b 85 c0 f4 ff ff 	mov    -0xb40(%rbp),%rax
   18b1d:	8b 00                	mov    (%rax),%eax
   18b1f:	0d c7 c1 a9 3a       	or     $0x3aa9c1c7,%eax
   18b24:	89 c2                	mov    %eax,%edx
   18b26:	48 8b 85 c0 f4 ff ff 	mov    -0xb40(%rbp),%rax
   18b2d:	89 10                	mov    %edx,(%rax)
   18b2f:	48 8b 85 c0 f4 ff ff 	mov    -0xb40(%rbp),%rax
   18b36:	8b 95 a0 f4 ff ff    	mov    -0xb60(%rbp),%edx
   18b3c:	89 10                	mov    %edx,(%rax)
   18b3e:	48 8b 85 40 f8 ff ff 	mov    -0x7c0(%rbp),%rax
   18b45:	48 8b 75 f8          	mov    -0x8(%rbp),%rsi
   18b49:	64 48 33 34 25 28 00 	xor    %fs:0x28,%rsi
   18b50:	00 00 
   18b52:	74 05                	je     18b59 <func_57+0x114c>
   18b54:	e8 17 15 ff ff       	callq  a070 <__stack_chk_fail@plt>
   18b59:	c9                   	leaveq 
   18b5a:	c3                   	retq   

0000000000018b5b <func_75>:
   18b5b:	f3 0f 1e fa          	endbr64 
   18b5f:	55                   	push   %rbp
   18b60:	48 89 e5             	mov    %rsp,%rbp
   18b63:	41 56                	push   %r14
   18b65:	41 55                	push   %r13
   18b67:	41 54                	push   %r12
   18b69:	53                   	push   %rbx
   18b6a:	48 81 ec 50 0f 00 00 	sub    $0xf50,%rsp
   18b71:	89 bd 9c f0 ff ff    	mov    %edi,-0xf64(%rbp)
   18b77:	48 89 b5 90 f0 ff ff 	mov    %rsi,-0xf70(%rbp)
   18b7e:	89 d0                	mov    %edx,%eax
   18b80:	66 89 85 98 f0 ff ff 	mov    %ax,-0xf68(%rbp)
   18b87:	64 48 8b 04 25 28 00 	mov    %fs:0x28,%rax
   18b8e:	00 00 
   18b90:	48 89 45 d8          	mov    %rax,-0x28(%rbp)
   18b94:	31 c0                	xor    %eax,%eax
   18b96:	48 b8 6d 54 06 25 3d 	movabs $0x5841ec3d2506546d,%rax
   18b9d:	ec 41 58 
   18ba0:	48 89 85 60 f1 ff ff 	mov    %rax,-0xea0(%rbp)
   18ba7:	c7 85 b0 f0 ff ff ff 	movl   $0xffffffff,-0xf50(%rbp)
   18bae:	ff ff ff 
   18bb1:	c6 85 a4 f0 ff ff ff 	movb   $0xff,-0xf5c(%rbp)
   18bb8:	c7 85 c4 f0 ff ff ff 	movl   $0xffffffff,-0xf3c(%rbp)
   18bbf:	ff ff ff 
   18bc2:	c7 85 b4 f0 ff ff 33 	movl   $0x8c4f1e33,-0xf4c(%rbp)
   18bc9:	1e 4f 8c 
   18bcc:	c7 85 b8 f0 ff ff 85 	movl   $0xaf308f85,-0xf48(%rbp)
   18bd3:	8f 30 af 
   18bd6:	c7 85 bc f0 ff ff 01 	movl   $0x1,-0xf44(%rbp)
   18bdd:	00 00 00 
   18be0:	c7 85 c0 f2 ff ff d1 	movl   $0xbf3dc2d1,-0xd40(%rbp)
   18be7:	c2 3d bf 
   18bea:	c7 85 c4 f2 ff ff d1 	movl   $0xbf3dc2d1,-0xd3c(%rbp)
   18bf1:	c2 3d bf 
   18bf4:	c7 85 c8 f2 ff ff d1 	movl   $0xbf3dc2d1,-0xd38(%rbp)
   18bfb:	c2 3d bf 
   18bfe:	c7 85 cc f2 ff ff d1 	movl   $0xbf3dc2d1,-0xd34(%rbp)
   18c05:	c2 3d bf 
   18c08:	c7 85 d0 f2 ff ff d1 	movl   $0xbf3dc2d1,-0xd30(%rbp)
   18c0f:	c2 3d bf 
   18c12:	48 c7 85 38 f1 ff ff 	movq   $0x5,-0xec8(%rbp)
   18c19:	05 00 00 00 
   18c1d:	48 8d 05 34 be 00 00 	lea    0xbe34(%rip),%rax        # 24a58 <g_117+0x8>
   18c24:	48 89 85 78 f1 ff ff 	mov    %rax,-0xe88(%rbp)
   18c2b:	48 8d 85 f0 f4 ff ff 	lea    -0xb10(%rbp),%rax
   18c32:	48 8d 15 27 98 00 00 	lea    0x9827(%rip),%rdx        # 22460 <g_3040+0xd6c>
   18c39:	b9 38 00 00 00       	mov    $0x38,%ecx
   18c3e:	48 89 c7             	mov    %rax,%rdi
   18c41:	48 89 d6             	mov    %rdx,%rsi
   18c44:	f3 48 a5             	rep movsq %ds:(%rsi),%es:(%rdi)
   18c47:	66 c7 85 aa f0 ff ff 	movw   $0x4,-0xf56(%rbp)
   18c4e:	04 00 
   18c50:	48 8d 05 99 9f 00 00 	lea    0x9f99(%rip),%rax        # 22bf0 <g_320>
   18c57:	48 89 85 80 f1 ff ff 	mov    %rax,-0xe80(%rbp)
   18c5e:	48 c7 85 88 f1 ff ff 	movq   $0x0,-0xe78(%rbp)
   18c65:	00 00 00 00 
   18c69:	c6 85 a6 f0 ff ff f8 	movb   $0xf8,-0xf5a(%rbp)
   18c70:	48 8d 05 13 88 00 00 	lea    0x8813(%rip),%rax        # 2148a <g_569+0xa>
   18c77:	48 89 85 90 f1 ff ff 	mov    %rax,-0xe70(%rbp)
   18c7e:	c6 85 a7 f0 ff ff 01 	movb   $0x1,-0xf59(%rbp)
   18c85:	66 c7 85 00 f3 ff ff 	movw   $0xc093,-0xd00(%rbp)
   18c8c:	93 c0 
   18c8e:	66 c7 85 02 f3 ff ff 	movw   $0x3,-0xcfe(%rbp)
   18c95:	03 00 
   18c97:	66 c7 85 04 f3 ff ff 	movw   $0x71ad,-0xcfc(%rbp)
   18c9e:	ad 71 
   18ca0:	66 c7 85 06 f3 ff ff 	movw   $0xc093,-0xcfa(%rbp)
   18ca7:	93 c0 
   18ca9:	66 c7 85 08 f3 ff ff 	movw   $0x6b36,-0xcf8(%rbp)
   18cb0:	36 6b 
   18cb2:	66 c7 85 0a f3 ff ff 	movw   $0x0,-0xcf6(%rbp)
   18cb9:	00 00 
   18cbb:	66 c7 85 0c f3 ff ff 	movw   $0xc093,-0xcf4(%rbp)
   18cc2:	93 c0 
   18cc4:	66 c7 85 0e f3 ff ff 	movw   $0x79d4,-0xcf2(%rbp)
   18ccb:	d4 79 
   18ccd:	66 c7 85 10 f3 ff ff 	movw   $0xc093,-0xcf0(%rbp)
   18cd4:	93 c0 
   18cd6:	66 c7 85 12 f3 ff ff 	movw   $0xc093,-0xcee(%rbp)
   18cdd:	93 c0 
   18cdf:	66 c7 85 14 f3 ff ff 	movw   $0x3,-0xcec(%rbp)
   18ce6:	03 00 
   18ce8:	66 c7 85 16 f3 ff ff 	movw   $0x71ad,-0xcea(%rbp)
   18cef:	ad 71 
   18cf1:	66 c7 85 18 f3 ff ff 	movw   $0xc093,-0xce8(%rbp)
   18cf8:	93 c0 
   18cfa:	66 c7 85 1a f3 ff ff 	movw   $0x6b36,-0xce6(%rbp)
   18d01:	36 6b 
   18d03:	66 c7 85 1c f3 ff ff 	movw   $0x0,-0xce4(%rbp)
   18d0a:	00 00 
   18d0c:	66 c7 85 1e f3 ff ff 	movw   $0xc093,-0xce2(%rbp)
   18d13:	93 c0 
   18d15:	66 c7 85 20 f3 ff ff 	movw   $0x79d4,-0xce0(%rbp)
   18d1c:	d4 79 
   18d1e:	66 c7 85 22 f3 ff ff 	movw   $0xc093,-0xcde(%rbp)
   18d25:	93 c0 
   18d27:	66 c7 85 24 f3 ff ff 	movw   $0xc093,-0xcdc(%rbp)
   18d2e:	93 c0 
   18d30:	66 c7 85 26 f3 ff ff 	movw   $0x3,-0xcda(%rbp)
   18d37:	03 00 
   18d39:	66 c7 85 28 f3 ff ff 	movw   $0x71ad,-0xcd8(%rbp)
   18d40:	ad 71 
   18d42:	c6 85 a8 f0 ff ff 01 	movb   $0x1,-0xf58(%rbp)
   18d49:	48 c7 85 40 f1 ff ff 	movq   $0x0,-0xec0(%rbp)
   18d50:	00 00 00 00 
   18d54:	48 8d 85 40 f1 ff ff 	lea    -0xec0(%rbp),%rax
   18d5b:	48 89 85 48 f1 ff ff 	mov    %rax,-0xeb8(%rbp)
   18d62:	48 c7 85 98 f1 ff ff 	movq   $0x9,-0xe68(%rbp)
   18d69:	09 00 00 00 
   18d6d:	c7 85 e4 f0 ff ff f8 	movl   $0xfffffff8,-0xf1c(%rbp)
   18d74:	ff ff ff 
   18d77:	48 c7 85 a0 f1 ff ff 	movq   $0xfffffffffffffff7,-0xe60(%rbp)
   18d7e:	f7 ff ff ff 
   18d82:	48 8d 85 b4 f0 ff ff 	lea    -0xf4c(%rbp),%rax
   18d89:	48 89 85 a8 f1 ff ff 	mov    %rax,-0xe58(%rbp)
   18d90:	c7 85 dc f0 ff ff 00 	movl   $0x0,-0xf24(%rbp)
   18d97:	00 00 00 
   18d9a:	eb 1e                	jmp    18dba <func_75+0x25f>
   18d9c:	8b 85 dc f0 ff ff    	mov    -0xf24(%rbp),%eax
   18da2:	48 98                	cltq   
   18da4:	48 8d 95 48 f1 ff ff 	lea    -0xeb8(%rbp),%rdx
   18dab:	48 89 94 c5 b8 f2 ff 	mov    %rdx,-0xd48(%rbp,%rax,8)
   18db2:	ff 
   18db3:	83 85 dc f0 ff ff 01 	addl   $0x1,-0xf24(%rbp)
   18dba:	83 bd dc f0 ff ff 00 	cmpl   $0x0,-0xf24(%rbp)
   18dc1:	7e d9                	jle    18d9c <func_75+0x241>
   18dc3:	c7 85 9c f0 ff ff 19 	movl   $0x19,-0xf64(%rbp)
   18dca:	00 00 00 
   18dcd:	e9 58 13 00 00       	jmpq   1a12a <func_75+0x15cf>
   18dd2:	48 b8 35 64 e0 a8 99 	movabs $0x33388499a8e06435,%rax
   18dd9:	84 38 33 
   18ddc:	48 89 85 70 f1 ff ff 	mov    %rax,-0xe90(%rbp)
   18de3:	48 c7 85 08 f2 ff ff 	movq   $0x0,-0xdf8(%rbp)
   18dea:	00 00 00 00 
   18dee:	48 c7 85 50 f1 ff ff 	movq   $0x0,-0xeb0(%rbp)
   18df5:	00 00 00 00 
   18df9:	48 8d 85 50 f1 ff ff 	lea    -0xeb0(%rbp),%rax
   18e00:	48 89 85 d0 fa ff ff 	mov    %rax,-0x530(%rbp)
   18e07:	48 c7 85 d8 fa ff ff 	movq   $0x0,-0x528(%rbp)
   18e0e:	00 00 00 00 
   18e12:	48 8d 85 50 f1 ff ff 	lea    -0xeb0(%rbp),%rax
   18e19:	48 89 85 e0 fa ff ff 	mov    %rax,-0x520(%rbp)
   18e20:	48 8d 85 50 f1 ff ff 	lea    -0xeb0(%rbp),%rax
   18e27:	48 89 85 e8 fa ff ff 	mov    %rax,-0x518(%rbp)
   18e2e:	48 8d 85 50 f1 ff ff 	lea    -0xeb0(%rbp),%rax
   18e35:	48 89 85 f0 fa ff ff 	mov    %rax,-0x510(%rbp)
   18e3c:	48 c7 85 f8 fa ff ff 	movq   $0x0,-0x508(%rbp)
   18e43:	00 00 00 00 
   18e47:	48 8d 85 50 f1 ff ff 	lea    -0xeb0(%rbp),%rax
   18e4e:	48 89 85 00 fb ff ff 	mov    %rax,-0x500(%rbp)
   18e55:	48 8d 85 50 f1 ff ff 	lea    -0xeb0(%rbp),%rax
   18e5c:	48 89 85 08 fb ff ff 	mov    %rax,-0x4f8(%rbp)
   18e63:	48 8d 85 50 f1 ff ff 	lea    -0xeb0(%rbp),%rax
   18e6a:	48 89 85 10 fb ff ff 	mov    %rax,-0x4f0(%rbp)
   18e71:	48 8d 85 50 f1 ff ff 	lea    -0xeb0(%rbp),%rax
   18e78:	48 89 85 18 fb ff ff 	mov    %rax,-0x4e8(%rbp)
   18e7f:	48 c7 85 20 fb ff ff 	movq   $0x0,-0x4e0(%rbp)
   18e86:	00 00 00 00 
   18e8a:	48 c7 85 28 fb ff ff 	movq   $0x0,-0x4d8(%rbp)
   18e91:	00 00 00 00 
   18e95:	48 8d 85 50 f1 ff ff 	lea    -0xeb0(%rbp),%rax
   18e9c:	48 89 85 30 fb ff ff 	mov    %rax,-0x4d0(%rbp)
   18ea3:	48 8d 85 50 f1 ff ff 	lea    -0xeb0(%rbp),%rax
   18eaa:	48 89 85 38 fb ff ff 	mov    %rax,-0x4c8(%rbp)
   18eb1:	48 c7 85 40 fb ff ff 	movq   $0x0,-0x4c0(%rbp)
   18eb8:	00 00 00 00 
   18ebc:	48 8d 85 50 f1 ff ff 	lea    -0xeb0(%rbp),%rax
   18ec3:	48 89 85 48 fb ff ff 	mov    %rax,-0x4b8(%rbp)
   18eca:	48 8d 85 50 f1 ff ff 	lea    -0xeb0(%rbp),%rax
   18ed1:	48 89 85 50 fb ff ff 	mov    %rax,-0x4b0(%rbp)
   18ed8:	48 8d 85 50 f1 ff ff 	lea    -0xeb0(%rbp),%rax
   18edf:	48 89 85 58 fb ff ff 	mov    %rax,-0x4a8(%rbp)
   18ee6:	48 8d 85 50 f1 ff ff 	lea    -0xeb0(%rbp),%rax
   18eed:	48 89 85 60 fb ff ff 	mov    %rax,-0x4a0(%rbp)
   18ef4:	48 8d 85 50 f1 ff ff 	lea    -0xeb0(%rbp),%rax
   18efb:	48 89 85 68 fb ff ff 	mov    %rax,-0x498(%rbp)
   18f02:	48 8d 85 50 f1 ff ff 	lea    -0xeb0(%rbp),%rax
   18f09:	48 89 85 70 fb ff ff 	mov    %rax,-0x490(%rbp)
   18f10:	48 8d 85 50 f1 ff ff 	lea    -0xeb0(%rbp),%rax
   18f17:	48 89 85 78 fb ff ff 	mov    %rax,-0x488(%rbp)
   18f1e:	48 c7 85 80 fb ff ff 	movq   $0x0,-0x480(%rbp)
   18f25:	00 00 00 00 
   18f29:	48 c7 85 88 fb ff ff 	movq   $0x0,-0x478(%rbp)
   18f30:	00 00 00 00 
   18f34:	48 c7 85 90 fb ff ff 	movq   $0x0,-0x470(%rbp)
   18f3b:	00 00 00 00 
   18f3f:	48 c7 85 98 fb ff ff 	movq   $0x0,-0x468(%rbp)
   18f46:	00 00 00 00 
   18f4a:	48 c7 85 a0 fb ff ff 	movq   $0x0,-0x460(%rbp)
   18f51:	00 00 00 00 
   18f55:	48 8d 85 50 f1 ff ff 	lea    -0xeb0(%rbp),%rax
   18f5c:	48 89 85 a8 fb ff ff 	mov    %rax,-0x458(%rbp)
   18f63:	48 c7 85 b0 fb ff ff 	movq   $0x0,-0x450(%rbp)
   18f6a:	00 00 00 00 
   18f6e:	48 8d 85 50 f1 ff ff 	lea    -0xeb0(%rbp),%rax
   18f75:	48 89 85 b8 fb ff ff 	mov    %rax,-0x448(%rbp)
   18f7c:	48 c7 85 c0 fb ff ff 	movq   $0x0,-0x440(%rbp)
   18f83:	00 00 00 00 
   18f87:	48 8d 85 50 f1 ff ff 	lea    -0xeb0(%rbp),%rax
   18f8e:	48 89 85 c8 fb ff ff 	mov    %rax,-0x438(%rbp)
   18f95:	48 8d 85 50 f1 ff ff 	lea    -0xeb0(%rbp),%rax
   18f9c:	48 89 85 d0 fb ff ff 	mov    %rax,-0x430(%rbp)
   18fa3:	48 8d 85 50 f1 ff ff 	lea    -0xeb0(%rbp),%rax
   18faa:	48 89 85 d8 fb ff ff 	mov    %rax,-0x428(%rbp)
   18fb1:	48 8d 85 50 f1 ff ff 	lea    -0xeb0(%rbp),%rax
   18fb8:	48 89 85 e0 fb ff ff 	mov    %rax,-0x420(%rbp)
   18fbf:	48 8d 85 50 f1 ff ff 	lea    -0xeb0(%rbp),%rax
   18fc6:	48 89 85 e8 fb ff ff 	mov    %rax,-0x418(%rbp)
   18fcd:	48 8d 85 50 f1 ff ff 	lea    -0xeb0(%rbp),%rax
   18fd4:	48 89 85 f0 fb ff ff 	mov    %rax,-0x410(%rbp)
   18fdb:	48 8d 85 50 f1 ff ff 	lea    -0xeb0(%rbp),%rax
   18fe2:	48 89 85 f8 fb ff ff 	mov    %rax,-0x408(%rbp)
   18fe9:	48 8d 85 50 f1 ff ff 	lea    -0xeb0(%rbp),%rax
   18ff0:	48 89 85 00 fc ff ff 	mov    %rax,-0x400(%rbp)
   18ff7:	48 8d 85 50 f1 ff ff 	lea    -0xeb0(%rbp),%rax
   18ffe:	48 89 85 08 fc ff ff 	mov    %rax,-0x3f8(%rbp)
   19005:	48 8d 85 50 f1 ff ff 	lea    -0xeb0(%rbp),%rax
   1900c:	48 89 85 10 fc ff ff 	mov    %rax,-0x3f0(%rbp)
   19013:	48 8d 85 50 f1 ff ff 	lea    -0xeb0(%rbp),%rax
   1901a:	48 89 85 18 fc ff ff 	mov    %rax,-0x3e8(%rbp)
   19021:	48 8d 85 50 f1 ff ff 	lea    -0xeb0(%rbp),%rax
   19028:	48 89 85 20 fc ff ff 	mov    %rax,-0x3e0(%rbp)
   1902f:	48 c7 85 28 fc ff ff 	movq   $0x0,-0x3d8(%rbp)
   19036:	00 00 00 00 
   1903a:	48 8d 85 50 f1 ff ff 	lea    -0xeb0(%rbp),%rax
   19041:	48 89 85 30 fc ff ff 	mov    %rax,-0x3d0(%rbp)
   19048:	48 c7 85 38 fc ff ff 	movq   $0x0,-0x3c8(%rbp)
   1904f:	00 00 00 00 
   19053:	48 8d 85 50 f1 ff ff 	lea    -0xeb0(%rbp),%rax
   1905a:	48 89 85 40 fc ff ff 	mov    %rax,-0x3c0(%rbp)
   19061:	48 c7 85 48 fc ff ff 	movq   $0x0,-0x3b8(%rbp)
   19068:	00 00 00 00 
   1906c:	48 8d 85 50 f1 ff ff 	lea    -0xeb0(%rbp),%rax
   19073:	48 89 85 50 fc ff ff 	mov    %rax,-0x3b0(%rbp)
   1907a:	48 c7 85 58 fc ff ff 	movq   $0x0,-0x3a8(%rbp)
   19081:	00 00 00 00 
   19085:	48 c7 85 60 fc ff ff 	movq   $0x0,-0x3a0(%rbp)
   1908c:	00 00 00 00 
   19090:	48 8d 85 50 f1 ff ff 	lea    -0xeb0(%rbp),%rax
   19097:	48 89 85 68 fc ff ff 	mov    %rax,-0x398(%rbp)
   1909e:	48 c7 85 70 fc ff ff 	movq   $0x0,-0x390(%rbp)
   190a5:	00 00 00 00 
   190a9:	48 8d 85 50 f1 ff ff 	lea    -0xeb0(%rbp),%rax
   190b0:	48 89 85 78 fc ff ff 	mov    %rax,-0x388(%rbp)
   190b7:	48 8d 85 50 f1 ff ff 	lea    -0xeb0(%rbp),%rax
   190be:	48 89 85 80 fc ff ff 	mov    %rax,-0x380(%rbp)
   190c5:	48 8d 85 50 f1 ff ff 	lea    -0xeb0(%rbp),%rax
   190cc:	48 89 85 88 fc ff ff 	mov    %rax,-0x378(%rbp)
   190d3:	48 8d 85 50 f1 ff ff 	lea    -0xeb0(%rbp),%rax
   190da:	48 89 85 90 fc ff ff 	mov    %rax,-0x370(%rbp)
   190e1:	48 8d 85 50 f1 ff ff 	lea    -0xeb0(%rbp),%rax
   190e8:	48 89 85 98 fc ff ff 	mov    %rax,-0x368(%rbp)
   190ef:	48 8d 85 50 f1 ff ff 	lea    -0xeb0(%rbp),%rax
   190f6:	48 89 85 a0 fc ff ff 	mov    %rax,-0x360(%rbp)
   190fd:	48 8d 85 50 f1 ff ff 	lea    -0xeb0(%rbp),%rax
   19104:	48 89 85 a8 fc ff ff 	mov    %rax,-0x358(%rbp)
   1910b:	48 8d 85 50 f1 ff ff 	lea    -0xeb0(%rbp),%rax
   19112:	48 89 85 b0 fc ff ff 	mov    %rax,-0x350(%rbp)
   19119:	48 8d 85 50 f1 ff ff 	lea    -0xeb0(%rbp),%rax
   19120:	48 89 85 b8 fc ff ff 	mov    %rax,-0x348(%rbp)
   19127:	48 8d 85 50 f1 ff ff 	lea    -0xeb0(%rbp),%rax
   1912e:	48 89 85 c0 fc ff ff 	mov    %rax,-0x340(%rbp)
   19135:	48 c7 85 c8 fc ff ff 	movq   $0x0,-0x338(%rbp)
   1913c:	00 00 00 00 
   19140:	48 c7 85 d0 fc ff ff 	movq   $0x0,-0x330(%rbp)
   19147:	00 00 00 00 
   1914b:	48 8d 85 50 f1 ff ff 	lea    -0xeb0(%rbp),%rax
   19152:	48 89 85 d8 fc ff ff 	mov    %rax,-0x328(%rbp)
   19159:	48 8d 85 50 f1 ff ff 	lea    -0xeb0(%rbp),%rax
   19160:	48 89 85 e0 fc ff ff 	mov    %rax,-0x320(%rbp)
   19167:	48 8d 85 50 f1 ff ff 	lea    -0xeb0(%rbp),%rax
   1916e:	48 89 85 e8 fc ff ff 	mov    %rax,-0x318(%rbp)
   19175:	48 8d 85 50 f1 ff ff 	lea    -0xeb0(%rbp),%rax
   1917c:	48 89 85 f0 fc ff ff 	mov    %rax,-0x310(%rbp)
   19183:	48 8d 85 50 f1 ff ff 	lea    -0xeb0(%rbp),%rax
   1918a:	48 89 85 f8 fc ff ff 	mov    %rax,-0x308(%rbp)
   19191:	48 8d 85 50 f1 ff ff 	lea    -0xeb0(%rbp),%rax
   19198:	48 89 85 00 fd ff ff 	mov    %rax,-0x300(%rbp)
   1919f:	48 8d 85 50 f1 ff ff 	lea    -0xeb0(%rbp),%rax
   191a6:	48 89 85 08 fd ff ff 	mov    %rax,-0x2f8(%rbp)
   191ad:	48 8d 85 50 f1 ff ff 	lea    -0xeb0(%rbp),%rax
   191b4:	48 89 85 10 fd ff ff 	mov    %rax,-0x2f0(%rbp)
   191bb:	48 8d 85 50 f1 ff ff 	lea    -0xeb0(%rbp),%rax
   191c2:	48 89 85 18 fd ff ff 	mov    %rax,-0x2e8(%rbp)
   191c9:	48 c7 85 20 fd ff ff 	movq   $0x0,-0x2e0(%rbp)
   191d0:	00 00 00 00 
   191d4:	48 8d 85 50 f1 ff ff 	lea    -0xeb0(%rbp),%rax
   191db:	48 89 85 28 fd ff ff 	mov    %rax,-0x2d8(%rbp)
   191e2:	48 c7 85 30 fd ff ff 	movq   $0x0,-0x2d0(%rbp)
   191e9:	00 00 00 00 
   191ed:	48 c7 85 38 fd ff ff 	movq   $0x0,-0x2c8(%rbp)
   191f4:	00 00 00 00 
   191f8:	48 8d 85 50 f1 ff ff 	lea    -0xeb0(%rbp),%rax
   191ff:	48 89 85 40 fd ff ff 	mov    %rax,-0x2c0(%rbp)
   19206:	48 8d 85 50 f1 ff ff 	lea    -0xeb0(%rbp),%rax
   1920d:	48 89 85 48 fd ff ff 	mov    %rax,-0x2b8(%rbp)
   19214:	48 8d 85 50 f1 ff ff 	lea    -0xeb0(%rbp),%rax
   1921b:	48 89 85 50 fd ff ff 	mov    %rax,-0x2b0(%rbp)
   19222:	48 c7 85 58 fd ff ff 	movq   $0x0,-0x2a8(%rbp)
   19229:	00 00 00 00 
   1922d:	48 c7 85 60 fd ff ff 	movq   $0x0,-0x2a0(%rbp)
   19234:	00 00 00 00 
   19238:	48 8d 85 50 f1 ff ff 	lea    -0xeb0(%rbp),%rax
   1923f:	48 89 85 68 fd ff ff 	mov    %rax,-0x298(%rbp)
   19246:	48 8d 85 50 f1 ff ff 	lea    -0xeb0(%rbp),%rax
   1924d:	48 89 85 70 fd ff ff 	mov    %rax,-0x290(%rbp)
   19254:	48 8d 85 50 f1 ff ff 	lea    -0xeb0(%rbp),%rax
   1925b:	48 89 85 78 fd ff ff 	mov    %rax,-0x288(%rbp)
   19262:	48 8d 85 50 f1 ff ff 	lea    -0xeb0(%rbp),%rax
   19269:	48 89 85 80 fd ff ff 	mov    %rax,-0x280(%rbp)
   19270:	48 8d 85 50 f1 ff ff 	lea    -0xeb0(%rbp),%rax
   19277:	48 89 85 88 fd ff ff 	mov    %rax,-0x278(%rbp)
   1927e:	48 c7 85 90 fd ff ff 	movq   $0x0,-0x270(%rbp)
   19285:	00 00 00 00 
   19289:	48 8d 85 50 f1 ff ff 	lea    -0xeb0(%rbp),%rax
   19290:	48 89 85 98 fd ff ff 	mov    %rax,-0x268(%rbp)
   19297:	48 8d 85 50 f1 ff ff 	lea    -0xeb0(%rbp),%rax
   1929e:	48 89 85 a0 fd ff ff 	mov    %rax,-0x260(%rbp)
   192a5:	48 c7 85 a8 fd ff ff 	movq   $0x0,-0x258(%rbp)
   192ac:	00 00 00 00 
   192b0:	48 8d 85 50 f1 ff ff 	lea    -0xeb0(%rbp),%rax
   192b7:	48 89 85 b0 fd ff ff 	mov    %rax,-0x250(%rbp)
   192be:	48 c7 85 b8 fd ff ff 	movq   $0x0,-0x248(%rbp)
   192c5:	00 00 00 00 
   192c9:	48 8d 85 50 f1 ff ff 	lea    -0xeb0(%rbp),%rax
   192d0:	48 89 85 c0 fd ff ff 	mov    %rax,-0x240(%rbp)
   192d7:	48 c7 85 c8 fd ff ff 	movq   $0x0,-0x238(%rbp)
   192de:	00 00 00 00 
   192e2:	48 c7 85 d0 fd ff ff 	movq   $0x0,-0x230(%rbp)
   192e9:	00 00 00 00 
   192ed:	48 8d 85 50 f1 ff ff 	lea    -0xeb0(%rbp),%rax
   192f4:	48 89 85 d8 fd ff ff 	mov    %rax,-0x228(%rbp)
   192fb:	48 c7 85 e0 fd ff ff 	movq   $0x0,-0x220(%rbp)
   19302:	00 00 00 00 
   19306:	48 8d 85 50 f1 ff ff 	lea    -0xeb0(%rbp),%rax
   1930d:	48 89 85 e8 fd ff ff 	mov    %rax,-0x218(%rbp)
   19314:	48 8d 85 50 f1 ff ff 	lea    -0xeb0(%rbp),%rax
   1931b:	48 89 85 f0 fd ff ff 	mov    %rax,-0x210(%rbp)
   19322:	48 8d 85 50 f1 ff ff 	lea    -0xeb0(%rbp),%rax
   19329:	48 89 85 f8 fd ff ff 	mov    %rax,-0x208(%rbp)
   19330:	48 8d 85 50 f1 ff ff 	lea    -0xeb0(%rbp),%rax
   19337:	48 89 85 00 fe ff ff 	mov    %rax,-0x200(%rbp)
   1933e:	48 8d 85 50 f1 ff ff 	lea    -0xeb0(%rbp),%rax
   19345:	48 89 85 08 fe ff ff 	mov    %rax,-0x1f8(%rbp)
   1934c:	48 8d 85 50 f1 ff ff 	lea    -0xeb0(%rbp),%rax
   19353:	48 89 85 10 fe ff ff 	mov    %rax,-0x1f0(%rbp)
   1935a:	48 c7 85 18 fe ff ff 	movq   $0x0,-0x1e8(%rbp)
   19361:	00 00 00 00 
   19365:	48 8d 85 50 f1 ff ff 	lea    -0xeb0(%rbp),%rax
   1936c:	48 89 85 20 fe ff ff 	mov    %rax,-0x1e0(%rbp)
   19373:	48 c7 85 28 fe ff ff 	movq   $0x0,-0x1d8(%rbp)
   1937a:	00 00 00 00 
   1937e:	48 8d 85 50 f1 ff ff 	lea    -0xeb0(%rbp),%rax
   19385:	48 89 85 30 fe ff ff 	mov    %rax,-0x1d0(%rbp)
   1938c:	48 8d 85 50 f1 ff ff 	lea    -0xeb0(%rbp),%rax
   19393:	48 89 85 38 fe ff ff 	mov    %rax,-0x1c8(%rbp)
   1939a:	48 c7 85 40 fe ff ff 	movq   $0x0,-0x1c0(%rbp)
   193a1:	00 00 00 00 
   193a5:	48 8d 85 50 f1 ff ff 	lea    -0xeb0(%rbp),%rax
   193ac:	48 89 85 48 fe ff ff 	mov    %rax,-0x1b8(%rbp)
   193b3:	48 8d 85 50 f1 ff ff 	lea    -0xeb0(%rbp),%rax
   193ba:	48 89 85 50 fe ff ff 	mov    %rax,-0x1b0(%rbp)
   193c1:	48 8d 85 50 f1 ff ff 	lea    -0xeb0(%rbp),%rax
   193c8:	48 89 85 58 fe ff ff 	mov    %rax,-0x1a8(%rbp)
   193cf:	48 c7 85 60 fe ff ff 	movq   $0x0,-0x1a0(%rbp)
   193d6:	00 00 00 00 
   193da:	48 8d 85 50 f1 ff ff 	lea    -0xeb0(%rbp),%rax
   193e1:	48 89 85 68 fe ff ff 	mov    %rax,-0x198(%rbp)
   193e8:	48 c7 85 70 fe ff ff 	movq   $0x0,-0x190(%rbp)
   193ef:	00 00 00 00 
   193f3:	48 8d 85 50 f1 ff ff 	lea    -0xeb0(%rbp),%rax
   193fa:	48 89 85 78 fe ff ff 	mov    %rax,-0x188(%rbp)
   19401:	48 8d 85 50 f1 ff ff 	lea    -0xeb0(%rbp),%rax
   19408:	48 89 85 80 fe ff ff 	mov    %rax,-0x180(%rbp)
   1940f:	48 8d 85 50 f1 ff ff 	lea    -0xeb0(%rbp),%rax
   19416:	48 89 85 88 fe ff ff 	mov    %rax,-0x178(%rbp)
   1941d:	48 8d 85 50 f1 ff ff 	lea    -0xeb0(%rbp),%rax
   19424:	48 89 85 90 fe ff ff 	mov    %rax,-0x170(%rbp)
   1942b:	48 8d 85 50 f1 ff ff 	lea    -0xeb0(%rbp),%rax
   19432:	48 89 85 98 fe ff ff 	mov    %rax,-0x168(%rbp)
   19439:	48 c7 85 a0 fe ff ff 	movq   $0x0,-0x160(%rbp)
   19440:	00 00 00 00 
   19444:	48 c7 85 a8 fe ff ff 	movq   $0x0,-0x158(%rbp)
   1944b:	00 00 00 00 
   1944f:	48 8d 85 50 f1 ff ff 	lea    -0xeb0(%rbp),%rax
   19456:	48 89 85 b0 fe ff ff 	mov    %rax,-0x150(%rbp)
   1945d:	48 8d 85 50 f1 ff ff 	lea    -0xeb0(%rbp),%rax
   19464:	48 89 85 b8 fe ff ff 	mov    %rax,-0x148(%rbp)
   1946b:	48 c7 85 c0 fe ff ff 	movq   $0x0,-0x140(%rbp)
   19472:	00 00 00 00 
   19476:	48 8d 85 50 f1 ff ff 	lea    -0xeb0(%rbp),%rax
   1947d:	48 89 85 c8 fe ff ff 	mov    %rax,-0x138(%rbp)
   19484:	48 8d 85 50 f1 ff ff 	lea    -0xeb0(%rbp),%rax
   1948b:	48 89 85 d0 fe ff ff 	mov    %rax,-0x130(%rbp)
   19492:	48 c7 85 d8 fe ff ff 	movq   $0x0,-0x128(%rbp)
   19499:	00 00 00 00 
   1949d:	48 c7 85 e0 fe ff ff 	movq   $0x0,-0x120(%rbp)
   194a4:	00 00 00 00 
   194a8:	48 8d 85 50 f1 ff ff 	lea    -0xeb0(%rbp),%rax
   194af:	48 89 85 e8 fe ff ff 	mov    %rax,-0x118(%rbp)
   194b6:	48 8d 85 50 f1 ff ff 	lea    -0xeb0(%rbp),%rax
   194bd:	48 89 85 f0 fe ff ff 	mov    %rax,-0x110(%rbp)
   194c4:	48 8d 85 50 f1 ff ff 	lea    -0xeb0(%rbp),%rax
   194cb:	48 89 85 f8 fe ff ff 	mov    %rax,-0x108(%rbp)
   194d2:	48 8d 85 50 f1 ff ff 	lea    -0xeb0(%rbp),%rax
   194d9:	48 89 85 00 ff ff ff 	mov    %rax,-0x100(%rbp)
   194e0:	48 8d 85 50 f1 ff ff 	lea    -0xeb0(%rbp),%rax
   194e7:	48 89 85 08 ff ff ff 	mov    %rax,-0xf8(%rbp)
   194ee:	48 8d 85 50 f1 ff ff 	lea    -0xeb0(%rbp),%rax
   194f5:	48 89 85 10 ff ff ff 	mov    %rax,-0xf0(%rbp)
   194fc:	48 8d 85 50 f1 ff ff 	lea    -0xeb0(%rbp),%rax
   19503:	48 89 85 18 ff ff ff 	mov    %rax,-0xe8(%rbp)
   1950a:	48 8d 85 50 f1 ff ff 	lea    -0xeb0(%rbp),%rax
   19511:	48 89 85 20 ff ff ff 	mov    %rax,-0xe0(%rbp)
   19518:	48 8d 85 50 f1 ff ff 	lea    -0xeb0(%rbp),%rax
   1951f:	48 89 85 28 ff ff ff 	mov    %rax,-0xd8(%rbp)
   19526:	48 8d 85 50 f1 ff ff 	lea    -0xeb0(%rbp),%rax
   1952d:	48 89 85 30 ff ff ff 	mov    %rax,-0xd0(%rbp)
   19534:	48 8d 85 50 f1 ff ff 	lea    -0xeb0(%rbp),%rax
   1953b:	48 89 85 38 ff ff ff 	mov    %rax,-0xc8(%rbp)
   19542:	48 c7 85 40 ff ff ff 	movq   $0x0,-0xc0(%rbp)
   19549:	00 00 00 00 
   1954d:	48 c7 85 48 ff ff ff 	movq   $0x0,-0xb8(%rbp)
   19554:	00 00 00 00 
   19558:	48 8d 85 50 f1 ff ff 	lea    -0xeb0(%rbp),%rax
   1955f:	48 89 85 50 ff ff ff 	mov    %rax,-0xb0(%rbp)
   19566:	48 c7 85 58 ff ff ff 	movq   $0x0,-0xa8(%rbp)
   1956d:	00 00 00 00 
   19571:	48 c7 85 60 ff ff ff 	movq   $0x0,-0xa0(%rbp)
   19578:	00 00 00 00 
   1957c:	48 8d 85 50 f1 ff ff 	lea    -0xeb0(%rbp),%rax
   19583:	48 89 85 68 ff ff ff 	mov    %rax,-0x98(%rbp)
   1958a:	48 8d 85 50 f1 ff ff 	lea    -0xeb0(%rbp),%rax
   19591:	48 89 85 70 ff ff ff 	mov    %rax,-0x90(%rbp)
   19598:	48 8d 85 50 f1 ff ff 	lea    -0xeb0(%rbp),%rax
   1959f:	48 89 85 78 ff ff ff 	mov    %rax,-0x88(%rbp)
   195a6:	48 c7 45 80 00 00 00 	movq   $0x0,-0x80(%rbp)
   195ad:	00 
   195ae:	48 8d 85 50 f1 ff ff 	lea    -0xeb0(%rbp),%rax
   195b5:	48 89 45 88          	mov    %rax,-0x78(%rbp)
   195b9:	48 8d 85 50 f1 ff ff 	lea    -0xeb0(%rbp),%rax
   195c0:	48 89 45 90          	mov    %rax,-0x70(%rbp)
   195c4:	48 8d 85 50 f1 ff ff 	lea    -0xeb0(%rbp),%rax
   195cb:	48 89 45 98          	mov    %rax,-0x68(%rbp)
   195cf:	48 8d 85 50 f1 ff ff 	lea    -0xeb0(%rbp),%rax
   195d6:	48 89 45 a0          	mov    %rax,-0x60(%rbp)
   195da:	48 c7 45 a8 00 00 00 	movq   $0x0,-0x58(%rbp)
   195e1:	00 
   195e2:	48 c7 45 b0 00 00 00 	movq   $0x0,-0x50(%rbp)
   195e9:	00 
   195ea:	48 8d 85 50 f1 ff ff 	lea    -0xeb0(%rbp),%rax
   195f1:	48 89 45 b8          	mov    %rax,-0x48(%rbp)
   195f5:	48 8d 85 50 f1 ff ff 	lea    -0xeb0(%rbp),%rax
   195fc:	48 89 45 c0          	mov    %rax,-0x40(%rbp)
   19600:	48 8d 85 50 f1 ff ff 	lea    -0xeb0(%rbp),%rax
   19607:	48 89 45 c8          	mov    %rax,-0x38(%rbp)
   1960b:	48 8d 05 fa 7c 00 00 	lea    0x7cfa(%rip),%rax        # 2130c <g_119+0xac>
   19612:	48 89 85 10 f2 ff ff 	mov    %rax,-0xdf0(%rbp)
   19619:	48 8d 85 b0 f0 ff ff 	lea    -0xf50(%rbp),%rax
   19620:	48 89 85 18 f2 ff ff 	mov    %rax,-0xde8(%rbp)
   19627:	48 8d 05 22 7a 00 00 	lea    0x7a22(%rip),%rax        # 21050 <g_62+0x10>
   1962e:	48 89 85 20 f2 ff ff 	mov    %rax,-0xde0(%rbp)
   19635:	48 8d 05 10 7a 00 00 	lea    0x7a10(%rip),%rax        # 2104c <g_62+0xc>
   1963c:	48 89 85 28 f2 ff ff 	mov    %rax,-0xdd8(%rbp)
   19643:	48 8d 05 2e 7c 00 00 	lea    0x7c2e(%rip),%rax        # 21278 <g_119+0x18>
   1964a:	48 89 85 30 f2 ff ff 	mov    %rax,-0xdd0(%rbp)
   19651:	48 c7 85 38 f2 ff ff 	movq   $0x0,-0xdc8(%rbp)
   19658:	00 00 00 00 
   1965c:	c6 85 a9 f0 ff ff e5 	movb   $0xe5,-0xf57(%rbp)
   19663:	66 c7 85 ae f0 ff ff 	movw   $0xe3dc,-0xf52(%rbp)
   1966a:	dc e3 
   1966c:	c7 85 28 f1 ff ff b0 	movl   $0x826c77b0,-0xed8(%rbp)
   19673:	77 6c 82 
   19676:	c7 85 e0 f0 ff ff 00 	movl   $0x0,-0xf20(%rbp)
   1967d:	00 00 00 
   19680:	eb 75                	jmp    196f7 <func_75+0xb9c>
   19682:	c7 85 d8 f0 ff ff 00 	movl   $0x0,-0xf28(%rbp)
   19689:	00 00 00 
   1968c:	eb 59                	jmp    196e7 <func_75+0xb8c>
   1968e:	c7 85 c8 f0 ff ff 00 	movl   $0x0,-0xf38(%rbp)
   19695:	00 00 00 
   19698:	eb 3d                	jmp    196d7 <func_75+0xb7c>
   1969a:	8b 85 c8 f0 ff ff    	mov    -0xf38(%rbp),%eax
   196a0:	48 98                	cltq   
   196a2:	8b 95 e0 f0 ff ff    	mov    -0xf20(%rbp),%edx
   196a8:	48 63 ca             	movslq %edx,%rcx
   196ab:	8b 95 d8 f0 ff ff    	mov    -0xf28(%rbp),%edx
   196b1:	48 63 d2             	movslq %edx,%rdx
   196b4:	48 c1 e1 02          	shl    $0x2,%rcx
   196b8:	48 01 ca             	add    %rcx,%rdx
   196bb:	48 01 d2             	add    %rdx,%rdx
   196be:	48 01 c2             	add    %rax,%rdx
   196c1:	48 8d 85 b0 f0 ff ff 	lea    -0xf50(%rbp),%rax
   196c8:	48 89 84 d5 f0 f3 ff 	mov    %rax,-0xc10(%rbp,%rdx,8)
   196cf:	ff 
   196d0:	83 85 c8 f0 ff ff 01 	addl   $0x1,-0xf38(%rbp)
   196d7:	83 bd c8 f0 ff ff 01 	cmpl   $0x1,-0xf38(%rbp)
   196de:	7e ba                	jle    1969a <func_75+0xb3f>
   196e0:	83 85 d8 f0 ff ff 01 	addl   $0x1,-0xf28(%rbp)
   196e7:	83 bd d8 f0 ff ff 03 	cmpl   $0x3,-0xf28(%rbp)
   196ee:	7e 9e                	jle    1968e <func_75+0xb33>
   196f0:	83 85 e0 f0 ff ff 01 	addl   $0x1,-0xf20(%rbp)
   196f7:	83 bd e0 f0 ff ff 03 	cmpl   $0x3,-0xf20(%rbp)
   196fe:	7e 82                	jle    19682 <func_75+0xb27>
   19700:	66 c7 85 98 f0 ff ff 	movw   $0x0,-0xf68(%rbp)
   19707:	00 00 
   19709:	e9 e3 09 00 00       	jmpq   1a0f1 <func_75+0x1596>
   1970e:	c7 85 2c f1 ff ff ff 	movl   $0xffffffff,-0xed4(%rbp)
   19715:	ff ff ff 
   19718:	48 8d 85 90 f8 ff ff 	lea    -0x770(%rbp),%rax
   1971f:	48 8d 15 fa 8e 00 00 	lea    0x8efa(%rip),%rdx        # 22620 <g_3040+0xf2c>
   19726:	b9 48 00 00 00       	mov    $0x48,%ecx
   1972b:	48 89 c7             	mov    %rax,%rdi
   1972e:	48 89 d6             	mov    %rdx,%rsi
   19731:	f3 48 a5             	rep movsq %ds:(%rsi),%es:(%rdi)
   19734:	48 8d 85 90 f8 ff ff 	lea    -0x770(%rbp),%rax
   1973b:	48 05 10 01 00 00    	add    $0x110,%rax
   19741:	48 89 85 58 f1 ff ff 	mov    %rax,-0xea8(%rbp)
   19748:	c7 85 c0 f0 ff ff c2 	movl   $0xc8be40c2,-0xf40(%rbp)
   1974f:	40 be c8 
   19752:	48 8d 05 2f 94 00 00 	lea    0x942f(%rip),%rax        # 22b88 <g_186+0xe8>
   19759:	48 89 85 40 f2 ff ff 	mov    %rax,-0xdc0(%rbp)
   19760:	c7 85 30 f1 ff ff 76 	movl   $0x26c9c176,-0xed0(%rbp)
   19767:	c1 c9 26 
   1976a:	48 8d 05 d7 7a 00 00 	lea    0x7ad7(%rip),%rax        # 21248 <g_115>
   19771:	48 89 85 48 f2 ff ff 	mov    %rax,-0xdb8(%rbp)
   19778:	48 8d 05 c5 78 00 00 	lea    0x78c5(%rip),%rax        # 21044 <g_62+0x4>
   1977f:	48 89 85 30 f3 ff ff 	mov    %rax,-0xcd0(%rbp)
   19786:	48 8d 05 b7 78 00 00 	lea    0x78b7(%rip),%rax        # 21044 <g_62+0x4>
   1978d:	48 89 85 38 f3 ff ff 	mov    %rax,-0xcc8(%rbp)
   19794:	48 c7 85 40 f3 ff ff 	movq   $0x0,-0xcc0(%rbp)
   1979b:	00 00 00 00 
   1979f:	48 8d 05 9e 78 00 00 	lea    0x789e(%rip),%rax        # 21044 <g_62+0x4>
   197a6:	48 89 85 48 f3 ff ff 	mov    %rax,-0xcb8(%rbp)
   197ad:	48 8d 05 90 78 00 00 	lea    0x7890(%rip),%rax        # 21044 <g_62+0x4>
   197b4:	48 89 85 50 f3 ff ff 	mov    %rax,-0xcb0(%rbp)
   197bb:	48 8d 05 4e 7b 00 00 	lea    0x7b4e(%rip),%rax        # 21310 <g_119+0xb0>
   197c2:	48 89 85 58 f3 ff ff 	mov    %rax,-0xca8(%rbp)
   197c9:	48 8d 05 40 7b 00 00 	lea    0x7b40(%rip),%rax        # 21310 <g_119+0xb0>
   197d0:	48 89 85 60 f3 ff ff 	mov    %rax,-0xca0(%rbp)
   197d7:	48 8d 05 66 78 00 00 	lea    0x7866(%rip),%rax        # 21044 <g_62+0x4>
   197de:	48 89 85 68 f3 ff ff 	mov    %rax,-0xc98(%rbp)
   197e5:	48 8d 05 24 7b 00 00 	lea    0x7b24(%rip),%rax        # 21310 <g_119+0xb0>
   197ec:	48 89 85 70 f3 ff ff 	mov    %rax,-0xc90(%rbp)
   197f3:	48 8d 05 4a 78 00 00 	lea    0x784a(%rip),%rax        # 21044 <g_62+0x4>
   197fa:	48 89 85 78 f3 ff ff 	mov    %rax,-0xc88(%rbp)
   19801:	48 8d 05 08 7b 00 00 	lea    0x7b08(%rip),%rax        # 21310 <g_119+0xb0>
   19808:	48 89 85 80 f3 ff ff 	mov    %rax,-0xc80(%rbp)
   1980f:	48 8d 05 fa 7a 00 00 	lea    0x7afa(%rip),%rax        # 21310 <g_119+0xb0>
   19816:	48 89 85 88 f3 ff ff 	mov    %rax,-0xc78(%rbp)
   1981d:	48 8d 05 20 78 00 00 	lea    0x7820(%rip),%rax        # 21044 <g_62+0x4>
   19824:	48 89 85 90 f3 ff ff 	mov    %rax,-0xc70(%rbp)
   1982b:	48 8d 05 12 78 00 00 	lea    0x7812(%rip),%rax        # 21044 <g_62+0x4>
   19832:	48 89 85 98 f3 ff ff 	mov    %rax,-0xc68(%rbp)
   19839:	48 c7 85 a0 f3 ff ff 	movq   $0x0,-0xc60(%rbp)
   19840:	00 00 00 00 
   19844:	48 8d 05 f9 77 00 00 	lea    0x77f9(%rip),%rax        # 21044 <g_62+0x4>
   1984b:	48 89 85 a8 f3 ff ff 	mov    %rax,-0xc58(%rbp)
   19852:	48 8d 05 eb 77 00 00 	lea    0x77eb(%rip),%rax        # 21044 <g_62+0x4>
   19859:	48 89 85 b0 f3 ff ff 	mov    %rax,-0xc50(%rbp)
   19860:	48 8d 05 a9 7a 00 00 	lea    0x7aa9(%rip),%rax        # 21310 <g_119+0xb0>
   19867:	48 89 85 b8 f3 ff ff 	mov    %rax,-0xc48(%rbp)
   1986e:	48 8d 05 9b 7a 00 00 	lea    0x7a9b(%rip),%rax        # 21310 <g_119+0xb0>
   19875:	48 89 85 c0 f3 ff ff 	mov    %rax,-0xc40(%rbp)
   1987c:	48 8d 05 c1 77 00 00 	lea    0x77c1(%rip),%rax        # 21044 <g_62+0x4>
   19883:	48 89 85 c8 f3 ff ff 	mov    %rax,-0xc38(%rbp)
   1988a:	48 8d 05 7f 7a 00 00 	lea    0x7a7f(%rip),%rax        # 21310 <g_119+0xb0>
   19891:	48 89 85 d0 f3 ff ff 	mov    %rax,-0xc30(%rbp)
   19898:	48 8d 05 a5 77 00 00 	lea    0x77a5(%rip),%rax        # 21044 <g_62+0x4>
   1989f:	48 89 85 d8 f3 ff ff 	mov    %rax,-0xc28(%rbp)
   198a6:	48 8d 05 63 7a 00 00 	lea    0x7a63(%rip),%rax        # 21310 <g_119+0xb0>
   198ad:	48 89 85 e0 f3 ff ff 	mov    %rax,-0xc20(%rbp)
   198b4:	48 8d 05 55 7a 00 00 	lea    0x7a55(%rip),%rax        # 21310 <g_119+0xb0>
   198bb:	48 89 85 e8 f3 ff ff 	mov    %rax,-0xc18(%rbp)
   198c2:	c7 05 8c 77 00 00 1c 	movl   $0x1c,0x778c(%rip)        # 21058 <g_65>
   198c9:	00 00 00 
   198cc:	e9 96 06 00 00       	jmpq   19f67 <func_75+0x140c>
   198d1:	48 b8 6a bf c9 54 64 	movabs $0xac934c6454c9bf6a,%rax
   198d8:	4c 93 ac 
   198db:	48 89 85 68 f1 ff ff 	mov    %rax,-0xe98(%rbp)
   198e2:	48 8d 85 c0 f0 ff ff 	lea    -0xf40(%rbp),%rax
   198e9:	48 89 85 50 f2 ff ff 	mov    %rax,-0xdb0(%rbp)
   198f0:	48 8d 85 b0 f6 ff ff 	lea    -0x950(%rbp),%rax
   198f7:	48 8d 15 62 8f 00 00 	lea    0x8f62(%rip),%rdx        # 22860 <g_3040+0x116c>
   198fe:	b9 3c 00 00 00       	mov    $0x3c,%ecx
   19903:	48 89 c7             	mov    %rax,%rdi
   19906:	48 89 d6             	mov    %rdx,%rsi
   19909:	f3 48 a5             	rep movsq %ds:(%rsi),%es:(%rdi)
   1990c:	8b 05 46 77 00 00    	mov    0x7746(%rip),%eax        # 21058 <g_65>
   19912:	85 c0                	test   %eax,%eax
   19914:	0f 84 35 02 00 00    	je     19b4f <func_75+0xff4>
   1991a:	48 c7 85 90 f0 ff ff 	movq   $0x0,-0xf70(%rbp)
   19921:	00 00 00 00 
   19925:	eb 25                	jmp    1994c <func_75+0xdf1>
   19927:	48 8b 85 90 f0 ff ff 	mov    -0xf70(%rbp),%rax
   1992e:	48 8d 14 85 00 00 00 	lea    0x0(,%rax,4),%rdx
   19935:	00 
   19936:	48 8d 05 03 77 00 00 	lea    0x7703(%rip),%rax        # 21040 <g_62>
   1993d:	c7 04 02 00 00 00 00 	movl   $0x0,(%rdx,%rax,1)
   19944:	48 83 85 90 f0 ff ff 	addq   $0x1,-0xf70(%rbp)
   1994b:	01 
   1994c:	48 83 bd 90 f0 ff ff 	cmpq   $0x5,-0xf70(%rbp)
   19953:	05 
   19954:	76 d1                	jbe    19927 <func_75+0xdcc>
   19956:	48 83 bd 60 f1 ff ff 	cmpq   $0x0,-0xea0(%rbp)
   1995d:	00 
   1995e:	0f 85 14 06 00 00    	jne    19f78 <func_75+0x141d>
   19964:	48 c7 85 90 f0 ff ff 	movq   $0x0,-0xf70(%rbp)
   1996b:	00 00 00 00 
   1996f:	e9 c8 01 00 00       	jmpq   19b3c <func_75+0xfe1>
   19974:	48 8d 05 81 78 00 00 	lea    0x7881(%rip),%rax        # 211fc <g_94+0x19c>
   1997b:	48 89 85 60 f2 ff ff 	mov    %rax,-0xda0(%rbp)
   19982:	48 8d 05 b7 78 00 00 	lea    0x78b7(%rip),%rax        # 21240 <g_101>
   19989:	48 89 85 68 f2 ff ff 	mov    %rax,-0xd98(%rbp)
   19990:	48 8d 85 58 f1 ff ff 	lea    -0xea8(%rbp),%rax
   19997:	48 89 85 70 f2 ff ff 	mov    %rax,-0xd90(%rbp)
   1999e:	48 8d 05 a3 78 00 00 	lea    0x78a3(%rip),%rax        # 21248 <g_115>
   199a5:	48 89 85 78 f2 ff ff 	mov    %rax,-0xd88(%rbp)
   199ac:	48 8d 05 59 79 00 00 	lea    0x7959(%rip),%rax        # 2130c <g_119+0xac>
   199b3:	48 89 85 80 f2 ff ff 	mov    %rax,-0xd80(%rbp)
   199ba:	c7 85 cc f0 ff ff 00 	movl   $0x0,-0xf34(%rbp)
   199c1:	00 00 00 
   199c4:	eb 1b                	jmp    199e1 <func_75+0xe86>
   199c6:	8b 85 cc f0 ff ff    	mov    -0xf34(%rbp),%eax
   199cc:	48 98                	cltq   
   199ce:	48 c7 84 c5 e0 f2 ff 	movq   $0x0,-0xd20(%rbp,%rax,8)
   199d5:	ff 00 00 00 00 
   199da:	83 85 cc f0 ff ff 01 	addl   $0x1,-0xf34(%rbp)
   199e1:	83 bd cc f0 ff ff 03 	cmpl   $0x3,-0xf34(%rbp)
   199e8:	7e dc                	jle    199c6 <func_75+0xe6b>
   199ea:	48 8b 85 60 f2 ff ff 	mov    -0xda0(%rbp),%rax
   199f1:	0f b7 00             	movzwl (%rax),%eax
   199f4:	8d 50 ff             	lea    -0x1(%rax),%edx
   199f7:	48 8b 85 60 f2 ff ff 	mov    -0xda0(%rbp),%rax
   199fe:	66 89 10             	mov    %dx,(%rax)
   19a01:	8b 85 2c f1 ff ff    	mov    -0xed4(%rbp),%eax
   19a07:	4c 63 e0             	movslq %eax,%r12
   19a0a:	48 8b 95 58 f1 ff ff 	mov    -0xea8(%rbp),%rdx
   19a11:	48 8b 85 70 f2 ff ff 	mov    -0xd90(%rbp),%rax
   19a18:	48 89 10             	mov    %rdx,(%rax)
   19a1b:	0f b6 05 10 76 00 00 	movzbl 0x7610(%rip),%eax        # 21032 <g_42>
   19a22:	0f be d8             	movsbl %al,%ebx
   19a25:	48 0f bf 95 98 f0 ff 	movswq -0xf68(%rbp),%rdx
   19a2c:	ff 
   19a2d:	8b 85 2c f1 ff ff    	mov    -0xed4(%rbp),%eax
   19a33:	48 98                	cltq   
   19a35:	48 89 85 68 f1 ff ff 	mov    %rax,-0xe98(%rbp)
   19a3c:	48 8b 85 68 f1 ff ff 	mov    -0xe98(%rbp),%rax
   19a43:	48 89 d6             	mov    %rdx,%rsi
   19a46:	48 89 c7             	mov    %rax,%rdi
   19a49:	e8 a9 0f ff ff       	callq  a9f7 <safe_div_func_int64_t_s_s>
   19a4e:	0f b6 c0             	movzbl %al,%eax
   19a51:	89 de                	mov    %ebx,%esi
   19a53:	89 c7                	mov    %eax,%edi
   19a55:	e8 ab 11 ff ff       	callq  ac05 <safe_lshift_func_uint8_t_u_s>
   19a5a:	0f b6 d0             	movzbl %al,%edx
   19a5d:	48 8b 85 78 f2 ff ff 	mov    -0xd88(%rbp),%rax
   19a64:	66 89 10             	mov    %dx,(%rax)
   19a67:	c7 05 e7 af 00 00 00 	movl   $0x0,0xafe7(%rip)        # 24a58 <g_117+0x8>
   19a6e:	00 00 00 
   19a71:	8b 05 e1 af 00 00    	mov    0xafe1(%rip),%eax        # 24a58 <g_117+0x8>
   19a77:	85 c0                	test   %eax,%eax
   19a79:	74 07                	je     19a82 <func_75+0xf27>
   19a7b:	b8 01 00 00 00       	mov    $0x1,%eax
   19a80:	eb 05                	jmp    19a87 <func_75+0xf2c>
   19a82:	b8 00 00 00 00       	mov    $0x0,%eax
   19a87:	83 f0 58             	xor    $0x58,%eax
   19a8a:	98                   	cwtl   
   19a8b:	be 0c 00 00 00       	mov    $0xc,%esi
   19a90:	89 c7                	mov    %eax,%edi
   19a92:	e8 cc 0a ff ff       	callq  a563 <safe_rshift_func_int16_t_s_u>
   19a97:	48 0f bf d8          	movswq %ax,%rbx
   19a9b:	48 8b 85 68 f2 ff ff 	mov    -0xd98(%rbp),%rax
   19aa2:	48 8b 10             	mov    (%rax),%rdx
   19aa5:	8b 85 9c f0 ff ff    	mov    -0xf64(%rbp),%eax
   19aab:	48 21 c2             	and    %rax,%rdx
   19aae:	48 8b 85 68 f2 ff ff 	mov    -0xd98(%rbp),%rax
   19ab5:	48 89 10             	mov    %rdx,(%rax)
   19ab8:	48 8b 05 81 77 00 00 	mov    0x7781(%rip),%rax        # 21240 <g_101>
   19abf:	98                   	cwtl   
   19ac0:	be 05 00 00 00       	mov    $0x5,%esi
   19ac5:	89 c7                	mov    %eax,%edi
   19ac7:	e8 5e 0a ff ff       	callq  a52a <safe_rshift_func_int16_t_s_s>
   19acc:	48 0f bf c0          	movswq %ax,%rax
   19ad0:	48 89 de             	mov    %rbx,%rsi
   19ad3:	48 89 c7             	mov    %rax,%rdi
   19ad6:	e8 1c 0f ff ff       	callq  a9f7 <safe_div_func_int64_t_s_s>
   19adb:	49 39 c4             	cmp    %rax,%r12
   19ade:	0f 9f c0             	setg   %al
   19ae1:	0f b6 c0             	movzbl %al,%eax
   19ae4:	48 23 85 60 f1 ff ff 	and    -0xea0(%rbp),%rax
   19aeb:	48 89 c2             	mov    %rax,%rdx
   19aee:	8b 05 50 75 00 00    	mov    0x7550(%rip),%eax        # 21044 <g_62+0x4>
   19af4:	48 98                	cltq   
   19af6:	48 39 c2             	cmp    %rax,%rdx
   19af9:	0f 9c c0             	setl   %al
   19afc:	0f b6 d0             	movzbl %al,%edx
   19aff:	0f bf 85 98 f0 ff ff 	movswl -0xf68(%rbp),%eax
   19b06:	21 c2                	and    %eax,%edx
   19b08:	48 8b 85 80 f2 ff ff 	mov    -0xd80(%rbp),%rax
   19b0f:	8b 00                	mov    (%rax),%eax
   19b11:	09 c2                	or     %eax,%edx
   19b13:	48 8b 85 80 f2 ff ff 	mov    -0xd80(%rbp),%rax
   19b1a:	89 10                	mov    %edx,(%rax)
   19b1c:	48 8b 85 90 f0 ff ff 	mov    -0xf70(%rbp),%rax
   19b23:	0f b7 c0             	movzwl %ax,%eax
   19b26:	be 07 00 00 00       	mov    $0x7,%esi
   19b2b:	89 c7                	mov    %eax,%edi
   19b2d:	e8 cd 11 ff ff       	callq  acff <safe_add_func_uint16_t_u_u>
   19b32:	0f b7 c0             	movzwl %ax,%eax
   19b35:	48 89 85 90 f0 ff ff 	mov    %rax,-0xf70(%rbp)
   19b3c:	48 83 bd 90 f0 ff ff 	cmpq   $0x14,-0xf70(%rbp)
   19b43:	14 
   19b44:	0f 87 2a fe ff ff    	ja     19974 <func_75+0xe19>
   19b4a:	e9 9f 01 00 00       	jmpq   19cee <func_75+0x1193>
   19b4f:	c7 85 34 f1 ff ff ff 	movl   $0xffffffff,-0xecc(%rbp)
   19b56:	ff ff ff 
   19b59:	48 8d 05 ac 77 00 00 	lea    0x77ac(%rip),%rax        # 2130c <g_119+0xac>
   19b60:	48 89 85 58 f2 ff ff 	mov    %rax,-0xda8(%rbp)
   19b67:	8b 1d eb 74 00 00    	mov    0x74eb(%rip),%ebx        # 21058 <g_65>
   19b6d:	4c 0f bf a5 98 f0 ff 	movswq -0xf68(%rbp),%r12
   19b74:	ff 
   19b75:	48 83 bd 70 f1 ff ff 	cmpq   $0x0,-0xe90(%rbp)
   19b7c:	00 
   19b7d:	74 2d                	je     19bac <func_75+0x1051>
   19b7f:	48 8b 85 68 f1 ff ff 	mov    -0xe98(%rbp),%rax
   19b86:	48 39 85 90 f0 ff ff 	cmp    %rax,-0xf70(%rbp)
   19b8d:	0f 96 c0             	setbe  %al
   19b90:	0f b6 c0             	movzbl %al,%eax
   19b93:	be 05 00 00 00       	mov    $0x5,%esi
   19b98:	89 c7                	mov    %eax,%edi
   19b9a:	e8 67 12 ff ff       	callq  ae06 <safe_lshift_func_uint16_t_u_u>
   19b9f:	66 85 c0             	test   %ax,%ax
   19ba2:	74 08                	je     19bac <func_75+0x1051>
   19ba4:	41 be 01 00 00 00    	mov    $0x1,%r14d
   19baa:	eb 06                	jmp    19bb2 <func_75+0x1057>
   19bac:	41 be 00 00 00 00    	mov    $0x0,%r14d
   19bb2:	48 8b 85 90 f0 ff ff 	mov    -0xf70(%rbp),%rax
   19bb9:	44 0f bf e8          	movswl %ax,%r13d
   19bbd:	48 8b 85 90 f0 ff ff 	mov    -0xf70(%rbp),%rax
   19bc4:	89 c2                	mov    %eax,%edx
   19bc6:	8b 05 8c ae 00 00    	mov    0xae8c(%rip),%eax        # 24a58 <g_117+0x8>
   19bcc:	89 d6                	mov    %edx,%esi
   19bce:	89 c7                	mov    %eax,%edi
   19bd0:	e8 e3 12 ff ff       	callq  aeb8 <safe_add_func_uint32_t_u_u>
   19bd5:	48 8b 85 68 f1 ff ff 	mov    -0xe98(%rbp),%rax
   19bdc:	0f b6 d0             	movzbl %al,%edx
   19bdf:	48 8b 85 68 f1 ff ff 	mov    -0xe98(%rbp),%rax
   19be6:	0f b6 c0             	movzbl %al,%eax
   19be9:	89 d6                	mov    %edx,%esi
   19beb:	89 c7                	mov    %eax,%edi
   19bed:	e8 a1 0f ff ff       	callq  ab93 <safe_mul_func_uint8_t_u_u>
   19bf2:	84 c0                	test   %al,%al
   19bf4:	74 13                	je     19c09 <func_75+0x10ae>
   19bf6:	0f b7 05 ff 75 00 00 	movzwl 0x75ff(%rip),%eax        # 211fc <g_94+0x19c>
   19bfd:	66 85 c0             	test   %ax,%ax
   19c00:	74 07                	je     19c09 <func_75+0x10ae>
   19c02:	b8 01 00 00 00       	mov    $0x1,%eax
   19c07:	eb 05                	jmp    19c0e <func_75+0x10b3>
   19c09:	b8 00 00 00 00       	mov    $0x0,%eax
   19c0e:	89 c2                	mov    %eax,%edx
   19c10:	8b 05 42 ae 00 00    	mov    0xae42(%rip),%eax        # 24a58 <g_117+0x8>
   19c16:	39 c2                	cmp    %eax,%edx
   19c18:	0f 94 c0             	sete   %al
   19c1b:	0f b6 c0             	movzbl %al,%eax
   19c1e:	be f6 ff ff ff       	mov    $0xfffffff6,%esi
   19c23:	89 c7                	mov    %eax,%edi
   19c25:	e8 a2 0a ff ff       	callq  a6cc <safe_mod_func_int32_t_s_s>
   19c2a:	89 05 24 ae 00 00    	mov    %eax,0xae24(%rip)        # 24a54 <g_117+0x4>
   19c30:	8b 05 1e ae 00 00    	mov    0xae1e(%rip),%eax        # 24a54 <g_117+0x4>
   19c36:	89 c2                	mov    %eax,%edx
   19c38:	48 8b 85 70 f1 ff ff 	mov    -0xe90(%rbp),%rax
   19c3f:	31 d0                	xor    %edx,%eax
   19c41:	98                   	cwtl   
   19c42:	44 89 ee             	mov    %r13d,%esi
   19c45:	89 c7                	mov    %eax,%edi
   19c47:	e8 a9 07 ff ff       	callq  a3f5 <safe_mul_func_int16_t_s_s>
   19c4c:	be 70 06 00 00       	mov    $0x670,%esi
   19c51:	bf 7a a5 ff ff       	mov    $0xffffa57a,%edi
   19c56:	e8 fa 07 ff ff       	callq  a455 <safe_div_func_int16_t_s_s>
   19c5b:	98                   	cwtl   
   19c5c:	be 02 00 00 00       	mov    $0x2,%esi
   19c61:	89 c7                	mov    %eax,%edi
   19c63:	e8 9d 09 ff ff       	callq  a605 <safe_sub_func_int32_t_s_s>
   19c68:	41 39 c6             	cmp    %eax,%r14d
   19c6b:	0f 9e c0             	setle  %al
   19c6e:	0f b6 c0             	movzbl %al,%eax
   19c71:	4c 89 e6             	mov    %r12,%rsi
   19c74:	48 89 c7             	mov    %rax,%rdi
   19c77:	e8 33 14 ff ff       	callq  b0af <safe_div_func_uint64_t_u_u>
   19c7c:	8b 85 34 f1 ff ff    	mov    -0xecc(%rbp),%eax
   19c82:	48 63 d0             	movslq %eax,%rdx
   19c85:	48 8b 05 b4 75 00 00 	mov    0x75b4(%rip),%rax        # 21240 <g_101>
   19c8c:	48 39 c2             	cmp    %rax,%rdx
   19c8f:	0f 9e c0             	setle  %al
   19c92:	0f b6 c0             	movzbl %al,%eax
   19c95:	39 85 2c f1 ff ff    	cmp    %eax,-0xed4(%rbp)
   19c9b:	0f 9d c0             	setge  %al
   19c9e:	89 c2                	mov    %eax,%edx
   19ca0:	8b 85 34 f1 ff ff    	mov    -0xecc(%rbp),%eax
   19ca6:	31 d0                	xor    %edx,%eax
   19ca8:	0f be c0             	movsbl %al,%eax
   19cab:	89 de                	mov    %ebx,%esi
   19cad:	89 c7                	mov    %eax,%edi
   19caf:	e8 b8 06 ff ff       	callq  a36c <safe_rshift_func_int8_t_s_u>
   19cb4:	0f be c0             	movsbl %al,%eax
   19cb7:	39 85 2c f1 ff ff    	cmp    %eax,-0xed4(%rbp)
   19cbd:	0f 9f c0             	setg   %al
   19cc0:	0f b6 d0             	movzbl %al,%edx
   19cc3:	48 8b 85 58 f2 ff ff 	mov    -0xda8(%rbp),%rax
   19cca:	8b 00                	mov    (%rax),%eax
   19ccc:	09 c2                	or     %eax,%edx
   19cce:	48 8b 85 58 f2 ff ff 	mov    -0xda8(%rbp),%rax
   19cd5:	89 10                	mov    %edx,(%rax)
   19cd7:	48 8b 85 58 f2 ff ff 	mov    -0xda8(%rbp),%rax
   19cde:	8b 10                	mov    (%rax),%edx
   19ce0:	8b 85 c0 f0 ff ff    	mov    -0xf40(%rbp),%eax
   19ce6:	31 d0                	xor    %edx,%eax
   19ce8:	89 85 c0 f0 ff ff    	mov    %eax,-0xf40(%rbp)
   19cee:	48 c7 85 70 f1 ff ff 	movq   $0x1,-0xe90(%rbp)
   19cf5:	01 00 00 00 
   19cf9:	48 83 bd 70 f1 ff ff 	cmpq   $0x0,-0xe90(%rbp)
   19d00:	00 
   19d01:	0f 88 2f 02 00 00    	js     19f36 <func_75+0x13db>
   19d07:	c6 85 a5 f0 ff ff ff 	movb   $0xff,-0xf5b(%rbp)
   19d0e:	48 c7 85 68 f1 ff ff 	movq   $0x5,-0xe98(%rbp)
   19d15:	05 00 00 00 
   19d19:	e9 fb 01 00 00       	jmpq   19f19 <func_75+0x13be>
   19d1e:	48 8d 85 c0 f0 ff ff 	lea    -0xf40(%rbp),%rax
   19d25:	48 89 85 88 f2 ff ff 	mov    %rax,-0xd78(%rbp)
   19d2c:	48 8d 05 11 73 00 00 	lea    0x7311(%rip),%rax        # 21044 <g_62+0x4>
   19d33:	48 89 85 90 f2 ff ff 	mov    %rax,-0xd70(%rbp)
   19d3a:	48 8b 85 70 f1 ff ff 	mov    -0xe90(%rbp),%rax
   19d41:	48 8d 48 02          	lea    0x2(%rax),%rcx
   19d45:	48 8b 85 70 f1 ff ff 	mov    -0xe90(%rbp),%rax
   19d4c:	48 8d 70 02          	lea    0x2(%rax),%rsi
   19d50:	48 8b 85 70 f1 ff ff 	mov    -0xe90(%rbp),%rax
   19d57:	48 89 c2             	mov    %rax,%rdx
   19d5a:	48 01 d2             	add    %rdx,%rdx
   19d5d:	48 01 c2             	add    %rax,%rdx
   19d60:	48 8d 04 12          	lea    (%rdx,%rdx,1),%rax
   19d64:	48 89 c2             	mov    %rax,%rdx
   19d67:	48 89 c8             	mov    %rcx,%rax
   19d6a:	48 01 c0             	add    %rax,%rax
   19d6d:	48 01 c8             	add    %rcx,%rax
   19d70:	48 c1 e0 02          	shl    $0x2,%rax
   19d74:	48 01 d0             	add    %rdx,%rax
   19d77:	48 01 f0             	add    %rsi,%rax
   19d7a:	48 8d 14 85 00 00 00 	lea    0x0(,%rax,4),%rdx
   19d81:	00 
   19d82:	48 8d 05 d7 74 00 00 	lea    0x74d7(%rip),%rax        # 21260 <g_119>
   19d89:	48 01 d0             	add    %rdx,%rax
   19d8c:	48 89 85 98 f2 ff ff 	mov    %rax,-0xd68(%rbp)
   19d93:	48 8d 85 c0 f0 ff ff 	lea    -0xf40(%rbp),%rax
   19d9a:	48 89 85 a0 f2 ff ff 	mov    %rax,-0xd60(%rbp)
   19da1:	48 8b 85 70 f1 ff ff 	mov    -0xe90(%rbp),%rax
   19da8:	48 8d 48 02          	lea    0x2(%rax),%rcx
   19dac:	48 8b 85 70 f1 ff ff 	mov    -0xe90(%rbp),%rax
   19db3:	48 8d 70 02          	lea    0x2(%rax),%rsi
   19db7:	48 8b 85 70 f1 ff ff 	mov    -0xe90(%rbp),%rax
   19dbe:	48 89 c2             	mov    %rax,%rdx
   19dc1:	48 01 d2             	add    %rdx,%rdx
   19dc4:	48 01 c2             	add    %rax,%rdx
   19dc7:	48 8d 04 12          	lea    (%rdx,%rdx,1),%rax
   19dcb:	48 89 c2             	mov    %rax,%rdx
   19dce:	48 89 c8             	mov    %rcx,%rax
   19dd1:	48 01 c0             	add    %rax,%rax
   19dd4:	48 01 c8             	add    %rcx,%rax
   19dd7:	48 c1 e0 02          	shl    $0x2,%rax
   19ddb:	48 01 d0             	add    %rdx,%rax
   19dde:	48 01 f0             	add    %rsi,%rax
   19de1:	48 8d 14 85 00 00 00 	lea    0x0(,%rax,4),%rdx
   19de8:	00 
   19de9:	48 8d 05 70 74 00 00 	lea    0x7470(%rip),%rax        # 21260 <g_119>
   19df0:	48 01 d0             	add    %rdx,%rax
   19df3:	48 89 85 a8 f2 ff ff 	mov    %rax,-0xd58(%rbp)
   19dfa:	48 8d 05 df 75 00 00 	lea    0x75df(%rip),%rax        # 213e0 <g_161>
   19e01:	48 89 85 b0 f2 ff ff 	mov    %rax,-0xd50(%rbp)
   19e08:	48 8b 85 70 f1 ff ff 	mov    -0xe90(%rbp),%rax
   19e0f:	48 8d 48 06          	lea    0x6(%rax),%rcx
   19e13:	48 8b 85 70 f1 ff ff 	mov    -0xe90(%rbp),%rax
   19e1a:	48 89 c2             	mov    %rax,%rdx
   19e1d:	48 01 d2             	add    %rdx,%rdx
   19e20:	48 01 c2             	add    %rax,%rdx
   19e23:	48 8d 04 12          	lea    (%rdx,%rdx,1),%rax
   19e27:	48 89 c2             	mov    %rax,%rdx
   19e2a:	48 89 c8             	mov    %rcx,%rax
   19e2d:	48 01 c0             	add    %rax,%rax
   19e30:	48 01 c8             	add    %rcx,%rax
   19e33:	48 c1 e0 02          	shl    $0x2,%rax
   19e37:	48 01 c2             	add    %rax,%rdx
   19e3a:	48 8b 85 68 f1 ff ff 	mov    -0xe98(%rbp),%rax
   19e41:	48 01 d0             	add    %rdx,%rax
   19e44:	48 8d 14 85 00 00 00 	lea    0x0(,%rax,4),%rdx
   19e4b:	00 
   19e4c:	48 8d 05 0d 74 00 00 	lea    0x740d(%rip),%rax        # 21260 <g_119>
   19e53:	8b 04 02             	mov    (%rdx,%rax,1),%eax
   19e56:	85 c0                	test   %eax,%eax
   19e58:	0f 85 cb 00 00 00    	jne    19f29 <func_75+0x13ce>
   19e5e:	80 85 a5 f0 ff ff 01 	addb   $0x1,-0xf5b(%rbp)
   19e65:	48 83 bd 70 f1 ff ff 	cmpq   $0x0,-0xe90(%rbp)
   19e6c:	00 
   19e6d:	0f 85 90 00 00 00    	jne    19f03 <func_75+0x13a8>
   19e73:	0f b7 05 ba 72 00 00 	movzwl 0x72ba(%rip),%eax        # 21134 <g_94+0xd4>
   19e7a:	66 85 c0             	test   %ax,%ax
   19e7d:	0f 85 80 00 00 00    	jne    19f03 <func_75+0x13a8>
   19e83:	80 bd a5 f0 ff ff 00 	cmpb   $0x0,-0xf5b(%rbp)
   19e8a:	0f 95 c0             	setne  %al
   19e8d:	0f b6 d0             	movzbl %al,%edx
   19e90:	48 8b 85 b0 f2 ff ff 	mov    -0xd50(%rbp),%rax
   19e97:	89 10                	mov    %edx,(%rax)
   19e99:	48 8b 85 b0 f2 ff ff 	mov    -0xd50(%rbp),%rax
   19ea0:	8b 00                	mov    (%rax),%eax
   19ea2:	be ff ff ff ff       	mov    $0xffffffff,%esi
   19ea7:	89 c7                	mov    %eax,%edi
   19ea9:	e8 4f 10 ff ff       	callq  aefd <safe_mod_func_uint32_t_u_u>
   19eae:	0f b6 05 7d 71 00 00 	movzbl 0x717d(%rip),%eax        # 21032 <g_42>
   19eb5:	0f be d8             	movsbl %al,%ebx
   19eb8:	0f b7 85 98 f0 ff ff 	movzwl -0xf68(%rbp),%eax
   19ebf:	0f b6 c0             	movzbl %al,%eax
   19ec2:	be 05 00 00 00       	mov    $0x5,%esi
   19ec7:	89 c7                	mov    %eax,%edi
   19ec9:	e8 7e 0d ff ff       	callq  ac4c <safe_lshift_func_uint8_t_u_u>
   19ece:	84 c0                	test   %al,%al
   19ed0:	74 07                	je     19ed9 <func_75+0x137e>
   19ed2:	b8 01 00 00 00       	mov    $0x1,%eax
   19ed7:	eb 05                	jmp    19ede <func_75+0x1383>
   19ed9:	b8 00 00 00 00       	mov    $0x0,%eax
   19ede:	48 98                	cltq   
   19ee0:	48 39 85 90 f0 ff ff 	cmp    %rax,-0xf70(%rbp)
   19ee7:	0f 92 c0             	setb   %al
   19eea:	0f b6 c0             	movzbl %al,%eax
   19eed:	39 c3                	cmp    %eax,%ebx
   19eef:	0f 9e c0             	setle  %al
   19ef2:	0f b6 c0             	movzbl %al,%eax
   19ef5:	be 01 00 00 00       	mov    $0x1,%esi
   19efa:	89 c7                	mov    %eax,%edi
   19efc:	e8 d2 04 ff ff       	callq  a3d3 <safe_sub_func_int16_t_s_s>
   19f01:	eb 01                	jmp    19f04 <func_75+0x13a9>
   19f03:	90                   	nop
   19f04:	48 8b 85 a8 f2 ff ff 	mov    -0xd58(%rbp),%rax
   19f0b:	c7 00 fd ff ff ff    	movl   $0xfffffffd,(%rax)
   19f11:	48 83 ad 68 f1 ff ff 	subq   $0x1,-0xe98(%rbp)
   19f18:	01 
   19f19:	48 83 bd 68 f1 ff ff 	cmpq   $0x0,-0xe98(%rbp)
   19f20:	00 
   19f21:	0f 89 f7 fd ff ff    	jns    19d1e <func_75+0x11c3>
   19f27:	eb 01                	jmp    19f2a <func_75+0x13cf>
   19f29:	90                   	nop
   19f2a:	48 8b 85 90 f0 ff ff 	mov    -0xf70(%rbp),%rax
   19f31:	e9 bb 06 00 00       	jmpq   1a5f1 <func_75+0x1a96>
   19f36:	83 bd 9c f0 ff ff 00 	cmpl   $0x0,-0xf64(%rbp)
   19f3d:	75 09                	jne    19f48 <func_75+0x13ed>
   19f3f:	80 85 a4 f0 ff ff 01 	addb   $0x1,-0xf5c(%rbp)
   19f46:	eb 01                	jmp    19f49 <func_75+0x13ee>
   19f48:	90                   	nop
   19f49:	8b 05 09 71 00 00    	mov    0x7109(%rip),%eax        # 21058 <g_65>
   19f4f:	0f b6 c0             	movzbl %al,%eax
   19f52:	be 03 00 00 00       	mov    $0x3,%esi
   19f57:	89 c7                	mov    %eax,%edi
   19f59:	e8 fc 0b ff ff       	callq  ab5a <safe_add_func_uint8_t_u_u>
   19f5e:	0f b6 c0             	movzbl %al,%eax
   19f61:	89 05 f1 70 00 00    	mov    %eax,0x70f1(%rip)        # 21058 <g_65>
   19f67:	8b 05 eb 70 00 00    	mov    0x70eb(%rip),%eax        # 21058 <g_65>
   19f6d:	83 f8 1f             	cmp    $0x1f,%eax
   19f70:	0f 87 5b f9 ff ff    	ja     198d1 <func_75+0xd76>
   19f76:	eb 01                	jmp    19f79 <func_75+0x141e>
   19f78:	90                   	nop
   19f79:	8b 85 2c f1 ff ff    	mov    -0xed4(%rbp),%eax
   19f7f:	0f b7 d8             	movzwl %ax,%ebx
   19f82:	44 8b 35 bb 70 00 00 	mov    0x70bb(%rip),%r14d        # 21044 <g_62+0x4>
   19f89:	0f b7 85 98 f0 ff ff 	movzwl -0xf68(%rbp),%eax
   19f90:	44 0f b7 e0          	movzwl %ax,%r12d
   19f94:	8b 05 b6 70 00 00    	mov    0x70b6(%rip),%eax        # 21050 <g_62+0x10>
   19f9a:	44 0f b7 e8          	movzwl %ax,%r13d
   19f9e:	8b 85 9c f0 ff ff    	mov    -0xf64(%rbp),%eax
   19fa4:	66 89 05 51 72 00 00 	mov    %ax,0x7251(%rip)        # 211fc <g_94+0x19c>
   19fab:	0f b7 05 4a 72 00 00 	movzwl 0x724a(%rip),%eax        # 211fc <g_94+0x19c>
   19fb2:	0f b7 d0             	movzwl %ax,%edx
   19fb5:	48 83 bd 90 f0 ff ff 	cmpq   $0x0,-0xf70(%rbp)
   19fbc:	00 
   19fbd:	0f 95 c0             	setne  %al
   19fc0:	0f b6 c0             	movzbl %al,%eax
   19fc3:	39 c2                	cmp    %eax,%edx
   19fc5:	0f 9f c0             	setg   %al
   19fc8:	0f b6 c0             	movzbl %al,%eax
   19fcb:	be 01 00 00 00       	mov    $0x1,%esi
   19fd0:	89 c7                	mov    %eax,%edi
   19fd2:	e8 ca 02 ff ff       	callq  a2a1 <safe_lshift_func_int8_t_s_s>
   19fd7:	66 98                	cbtw   
   19fd9:	0f b7 c0             	movzwl %ax,%eax
   19fdc:	be 58 a4 00 00       	mov    $0xa458,%esi
   19fe1:	89 c7                	mov    %eax,%edi
   19fe3:	e8 17 0d ff ff       	callq  acff <safe_add_func_uint16_t_u_u>
   19fe8:	66 85 c0             	test   %ax,%ax
   19feb:	74 11                	je     19ffe <func_75+0x14a3>
   19fed:	8b 05 61 70 00 00    	mov    0x7061(%rip),%eax        # 21054 <g_62+0x14>
   19ff3:	85 c0                	test   %eax,%eax
   19ff5:	74 07                	je     19ffe <func_75+0x14a3>
   19ff7:	b8 01 00 00 00       	mov    $0x1,%eax
   19ffc:	eb 05                	jmp    1a003 <func_75+0x14a8>
   19ffe:	b8 00 00 00 00       	mov    $0x0,%eax
   1a003:	0f b7 c0             	movzwl %ax,%eax
   1a006:	44 89 ee             	mov    %r13d,%esi
   1a009:	89 c7                	mov    %eax,%edi
   1a00b:	e8 0f 0d ff ff       	callq  ad1f <safe_sub_func_uint16_t_u_u>
   1a010:	0f b7 c0             	movzwl %ax,%eax
   1a013:	44 89 e6             	mov    %r12d,%esi
   1a016:	89 c7                	mov    %eax,%edi
   1a018:	e8 02 0d ff ff       	callq  ad1f <safe_sub_func_uint16_t_u_u>
   1a01d:	48 8b 15 a4 8a 00 00 	mov    0x8aa4(%rip),%rdx        # 22ac8 <g_186+0x28>
   1a024:	48 8b 85 40 f2 ff ff 	mov    -0xdc0(%rbp),%rax
   1a02b:	48 89 10             	mov    %rdx,(%rax)
   1a02e:	c7 85 c0 f0 ff ff 00 	movl   $0x0,-0xf40(%rbp)
   1a035:	00 00 00 
   1a038:	8b 85 c0 f0 ff ff    	mov    -0xf40(%rbp),%eax
   1a03e:	31 85 30 f1 ff ff    	xor    %eax,-0xed0(%rbp)
   1a044:	8b 85 30 f1 ff ff    	mov    -0xed0(%rbp),%eax
   1a04a:	0f be c0             	movsbl %al,%eax
   1a04d:	be 02 00 00 00       	mov    $0x2,%esi
   1a052:	89 c7                	mov    %eax,%edi
   1a054:	e8 95 02 ff ff       	callq  a2ee <safe_lshift_func_int8_t_s_u>
   1a059:	0f be c0             	movsbl %al,%eax
   1a05c:	44 09 f0             	or     %r14d,%eax
   1a05f:	3d 9b 00 00 00       	cmp    $0x9b,%eax
   1a064:	0f 94 c0             	sete   %al
   1a067:	0f b6 c0             	movzbl %al,%eax
   1a06a:	8b 95 2c f1 ff ff    	mov    -0xed4(%rbp),%edx
   1a070:	89 d6                	mov    %edx,%esi
   1a072:	89 c7                	mov    %eax,%edi
   1a074:	e8 86 06 ff ff       	callq  a6ff <safe_div_func_int32_t_s_s>
   1a079:	48 98                	cltq   
   1a07b:	48 89 c7             	mov    %rax,%rdi
   1a07e:	e8 93 07 ff ff       	callq  a816 <safe_unary_minus_func_int64_t_s>
   1a083:	0f b7 c0             	movzwl %ax,%eax
   1a086:	89 de                	mov    %ebx,%esi
   1a088:	89 c7                	mov    %eax,%edi
   1a08a:	e8 ff 0c ff ff       	callq  ad8e <safe_div_func_uint16_t_u_u>
   1a08f:	66 85 c0             	test   %ax,%ax
   1a092:	74 11                	je     1a0a5 <func_75+0x154a>
   1a094:	48 83 bd 90 f0 ff ff 	cmpq   $0x0,-0xf70(%rbp)
   1a09b:	00 
   1a09c:	74 07                	je     1a0a5 <func_75+0x154a>
   1a09e:	b8 01 00 00 00       	mov    $0x1,%eax
   1a0a3:	eb 05                	jmp    1a0aa <func_75+0x154f>
   1a0a5:	b8 00 00 00 00       	mov    $0x0,%eax
   1a0aa:	89 c2                	mov    %eax,%edx
   1a0ac:	48 8b 85 48 f2 ff ff 	mov    -0xdb8(%rbp),%rax
   1a0b3:	66 89 10             	mov    %dx,(%rax)
   1a0b6:	48 8b 85 48 f2 ff ff 	mov    -0xdb8(%rbp),%rax
   1a0bd:	0f b7 00             	movzwl (%rax),%eax
   1a0c0:	48 0f bf c0          	movswq %ax,%rax
   1a0c4:	48 39 85 90 f0 ff ff 	cmp    %rax,-0xf70(%rbp)
   1a0cb:	0f 94 c0             	sete   %al
   1a0ce:	0f b6 c0             	movzbl %al,%eax
   1a0d1:	89 85 b0 f0 ff ff    	mov    %eax,-0xf50(%rbp)
   1a0d7:	0f bf 85 98 f0 ff ff 	movswl -0xf68(%rbp),%eax
   1a0de:	be 08 00 00 00       	mov    $0x8,%esi
   1a0e3:	89 c7                	mov    %eax,%edi
   1a0e5:	e8 e6 0d ff ff       	callq  aed0 <safe_sub_func_uint32_t_u_u>
   1a0ea:	66 89 85 98 f0 ff ff 	mov    %ax,-0xf68(%rbp)
   1a0f1:	66 83 bd 98 f0 ff ff 	cmpw   $0xfffa,-0xf68(%rbp)
   1a0f8:	fa 
   1a0f9:	0f 8c 0f f6 ff ff    	jl     1970e <func_75+0xbb3>
   1a0ff:	48 8b 85 38 f1 ff ff 	mov    -0xec8(%rbp),%rax
   1a106:	48 83 c0 01          	add    $0x1,%rax
   1a10a:	48 89 85 38 f1 ff ff 	mov    %rax,-0xec8(%rbp)
   1a111:	8b 85 9c f0 ff ff    	mov    -0xf64(%rbp),%eax
   1a117:	be 07 00 00 00       	mov    $0x7,%esi
   1a11c:	48 89 c7             	mov    %rax,%rdi
   1a11f:	e8 84 07 ff ff       	callq  a8a8 <safe_sub_func_int64_t_s_s>
   1a124:	89 85 9c f0 ff ff    	mov    %eax,-0xf64(%rbp)
   1a12a:	83 bd 9c f0 ff ff 18 	cmpl   $0x18,-0xf64(%rbp)
   1a131:	0f 86 9b ec ff ff    	jbe    18dd2 <func_75+0x277>
   1a137:	8b 05 1b a9 00 00    	mov    0xa91b(%rip),%eax        # 24a58 <g_117+0x8>
   1a13d:	3d 28 4f 36 58       	cmp    $0x58364f28,%eax
   1a142:	0f 84 83 01 00 00    	je     1a2cb <func_75+0x1770>
   1a148:	c7 85 fc f0 ff ff bf 	movl   $0x76eeaebf,-0xf04(%rbp)
   1a14f:	ae ee 76 
   1a152:	48 8d 05 77 72 00 00 	lea    0x7277(%rip),%rax        # 213d0 <g_119+0x170>
   1a159:	48 89 85 58 f1 ff ff 	mov    %rax,-0xea8(%rbp)
   1a160:	48 8d 85 38 f1 ff ff 	lea    -0xec8(%rbp),%rax
   1a167:	48 89 85 d8 f1 ff ff 	mov    %rax,-0xe28(%rbp)
   1a16e:	c7 85 00 f1 ff ff f7 	movl   $0xfffffff7,-0xf00(%rbp)
   1a175:	ff ff ff 
   1a178:	c7 85 04 f1 ff ff 21 	movl   $0xaf748021,-0xefc(%rbp)
   1a17f:	80 74 af 
   1a182:	c7 85 08 f1 ff ff ca 	movl   $0xdd1d66ca,-0xef8(%rbp)
   1a189:	66 1d dd 
   1a18c:	c7 85 0c f1 ff ff 01 	movl   $0x1,-0xef4(%rbp)
   1a193:	00 00 00 
   1a196:	c7 85 10 f1 ff ff 4a 	movl   $0xfc8da34a,-0xef0(%rbp)
   1a19d:	a3 8d fc 
   1a1a0:	c7 85 14 f1 ff ff a7 	movl   $0xd566aca7,-0xeec(%rbp)
   1a1a7:	ac 66 d5 
   1a1aa:	48 b8 06 0c 08 40 84 	movabs $0x44f8b68440080c06,%rax
   1a1b1:	b6 f8 44 
   1a1b4:	48 89 85 e0 f1 ff ff 	mov    %rax,-0xe20(%rbp)
   1a1bb:	48 8d 85 58 f1 ff ff 	lea    -0xea8(%rbp),%rax
   1a1c2:	48 89 85 e8 f1 ff ff 	mov    %rax,-0xe18(%rbp)
   1a1c9:	48 8d 85 aa f0 ff ff 	lea    -0xf56(%rbp),%rax
   1a1d0:	48 89 85 f0 f1 ff ff 	mov    %rax,-0xe10(%rbp)
   1a1d7:	c7 85 18 f1 ff ff 00 	movl   $0x0,-0xee8(%rbp)
   1a1de:	00 00 00 
   1a1e1:	48 b8 07 2b 80 1a 6c 	movabs $0xd6983e6c1a802b07,%rax
   1a1e8:	3e 98 d6 
   1a1eb:	48 89 85 f8 f1 ff ff 	mov    %rax,-0xe08(%rbp)
   1a1f2:	c7 85 1c f1 ff ff ff 	movl   $0xffffffff,-0xee4(%rbp)
   1a1f9:	ff ff ff 
   1a1fc:	c7 85 20 f1 ff ff fd 	movl   $0xfffffffd,-0xee0(%rbp)
   1a203:	ff ff ff 
   1a206:	48 8d 05 5b a8 00 00 	lea    0xa85b(%rip),%rax        # 24a68 <g_546>
   1a20d:	48 89 85 d0 fa ff ff 	mov    %rax,-0x530(%rbp)
   1a214:	48 8d 05 4d a8 00 00 	lea    0xa84d(%rip),%rax        # 24a68 <g_546>
   1a21b:	48 89 85 d8 fa ff ff 	mov    %rax,-0x528(%rbp)
   1a222:	48 8d 05 3f a8 00 00 	lea    0xa83f(%rip),%rax        # 24a68 <g_546>
   1a229:	48 89 85 e0 fa ff ff 	mov    %rax,-0x520(%rbp)
   1a230:	48 8d 05 31 a8 00 00 	lea    0xa831(%rip),%rax        # 24a68 <g_546>
   1a237:	48 89 85 e8 fa ff ff 	mov    %rax,-0x518(%rbp)
   1a23e:	48 8d 05 23 a8 00 00 	lea    0xa823(%rip),%rax        # 24a68 <g_546>
   1a245:	48 89 85 f0 fa ff ff 	mov    %rax,-0x510(%rbp)
   1a24c:	c7 85 24 f1 ff ff ff 	movl   $0xffffffff,-0xedc(%rbp)
   1a253:	ff ff ff 
   1a256:	48 8d 05 c3 89 00 00 	lea    0x89c3(%rip),%rax        # 22c20 <g_487>
   1a25d:	48 89 85 00 f2 ff ff 	mov    %rax,-0xe00(%rbp)
   1a264:	c7 85 d0 f0 ff ff 00 	movl   $0x0,-0xf30(%rbp)
   1a26b:	00 00 00 
   1a26e:	eb 1a                	jmp    1a28a <func_75+0x172f>
   1a270:	8b 85 d0 f0 ff ff    	mov    -0xf30(%rbp),%eax
   1a276:	48 98                	cltq   
   1a278:	c7 84 85 b0 f6 ff ff 	movl   $0x22049a0b,-0x950(%rbp,%rax,4)
   1a27f:	0b 9a 04 22 
   1a283:	83 85 d0 f0 ff ff 01 	addl   $0x1,-0xf30(%rbp)
   1a28a:	83 bd d0 f0 ff ff 00 	cmpl   $0x0,-0xf30(%rbp)
   1a291:	7e dd                	jle    1a270 <func_75+0x1715>
   1a293:	c7 85 d0 f0 ff ff 00 	movl   $0x0,-0xf30(%rbp)
   1a29a:	00 00 00 
   1a29d:	eb 1e                	jmp    1a2bd <func_75+0x1762>
   1a29f:	8b 85 d0 f0 ff ff    	mov    -0xf30(%rbp),%eax
   1a2a5:	48 98                	cltq   
   1a2a7:	48 8d 15 aa 6d 00 00 	lea    0x6daa(%rip),%rdx        # 21058 <g_65>
   1a2ae:	48 89 94 c5 90 f8 ff 	mov    %rdx,-0x770(%rbp,%rax,8)
   1a2b5:	ff 
   1a2b6:	83 85 d0 f0 ff ff 01 	addl   $0x1,-0xf30(%rbp)
   1a2bd:	83 bd d0 f0 ff ff 02 	cmpl   $0x2,-0xf30(%rbp)
   1a2c4:	7e d9                	jle    1a29f <func_75+0x1744>
   1a2c6:	e9 fb 02 00 00       	jmpq   1a5c6 <func_75+0x1a6b>
   1a2cb:	48 8d 85 b8 f0 ff ff 	lea    -0xf48(%rbp),%rax
   1a2d2:	48 89 85 b0 f1 ff ff 	mov    %rax,-0xe50(%rbp)
   1a2d9:	48 8d 05 34 6f 00 00 	lea    0x6f34(%rip),%rax        # 21214 <g_94+0x1b4>
   1a2e0:	48 89 85 b8 f1 ff ff 	mov    %rax,-0xe48(%rbp)
   1a2e7:	48 c7 85 50 f1 ff ff 	movq   $0x0,-0xeb0(%rbp)
   1a2ee:	00 00 00 00 
   1a2f2:	c7 85 e8 f0 ff ff 96 	movl   $0x67e1d796,-0xf18(%rbp)
   1a2f9:	d7 e1 67 
   1a2fc:	48 c7 85 c0 f1 ff ff 	movq   $0xffffffffffffffff,-0xe40(%rbp)
   1a303:	ff ff ff ff 
   1a307:	c7 85 ec f0 ff ff f8 	movl   $0xfffffff8,-0xf14(%rbp)
   1a30e:	ff ff ff 
   1a311:	c7 85 f0 f0 ff ff 01 	movl   $0x1,-0xf10(%rbp)
   1a318:	00 00 00 
   1a31b:	c7 85 f4 f0 ff ff a7 	movl   $0x930e53a7,-0xf0c(%rbp)
   1a322:	53 0e 93 
   1a325:	c7 85 c0 f0 ff ff f8 	movl   $0xfffffff8,-0xf40(%rbp)
   1a32c:	ff ff ff 
   1a32f:	c7 85 d4 f0 ff ff 00 	movl   $0x0,-0xf2c(%rbp)
   1a336:	00 00 00 
   1a339:	eb 1a                	jmp    1a355 <func_75+0x17fa>
   1a33b:	8b 85 d4 f0 ff ff    	mov    -0xf2c(%rbp),%eax
   1a341:	48 98                	cltq   
   1a343:	c7 84 85 90 f8 ff ff 	movl   $0x1,-0x770(%rbp,%rax,4)
   1a34a:	01 00 00 00 
   1a34e:	83 85 d4 f0 ff ff 01 	addl   $0x1,-0xf2c(%rbp)
   1a355:	83 bd d4 f0 ff ff 07 	cmpl   $0x7,-0xf2c(%rbp)
   1a35c:	7e dd                	jle    1a33b <func_75+0x17e0>
   1a35e:	8b 85 e4 f0 ff ff    	mov    -0xf1c(%rbp),%eax
   1a364:	0f b6 d0             	movzbl %al,%edx
   1a367:	48 8b 85 80 f1 ff ff 	mov    -0xe80(%rbp),%rax
   1a36e:	48 8b 00             	mov    (%rax),%rax
   1a371:	8b 00                	mov    (%rax),%eax
   1a373:	0f b6 c0             	movzbl %al,%eax
   1a376:	89 d6                	mov    %edx,%esi
   1a378:	89 c7                	mov    %eax,%edi
   1a37a:	e8 db 07 ff ff       	callq  ab5a <safe_add_func_uint8_t_u_u>
   1a37f:	48 8b 95 b0 f1 ff ff 	mov    -0xe50(%rbp),%rdx
   1a386:	8b 12                	mov    (%rdx),%edx
   1a388:	0f b6 c0             	movzbl %al,%eax
   1a38b:	21 c2                	and    %eax,%edx
   1a38d:	48 8b 85 b0 f1 ff ff 	mov    -0xe50(%rbp),%rax
   1a394:	89 10                	mov    %edx,(%rax)
   1a396:	48 8b 85 b8 f1 ff ff 	mov    -0xe48(%rbp),%rax
   1a39d:	0f b7 00             	movzwl (%rax),%eax
   1a3a0:	8d 48 ff             	lea    -0x1(%rax),%ecx
   1a3a3:	48 8b 95 b8 f1 ff ff 	mov    -0xe48(%rbp),%rdx
   1a3aa:	66 89 0a             	mov    %cx,(%rdx)
   1a3ad:	0f b7 c0             	movzwl %ax,%eax
   1a3b0:	be 00 00 00 00       	mov    $0x0,%esi
   1a3b5:	89 c7                	mov    %eax,%edi
   1a3b7:	e8 81 09 ff ff       	callq  ad3d <safe_mul_func_uint16_t_u_u>
   1a3bc:	66 85 c0             	test   %ax,%ax
   1a3bf:	74 07                	je     1a3c8 <func_75+0x186d>
   1a3c1:	ba 01 00 00 00       	mov    $0x1,%edx
   1a3c6:	eb 05                	jmp    1a3cd <func_75+0x1872>
   1a3c8:	ba 00 00 00 00       	mov    $0x0,%edx
   1a3cd:	48 8b 85 b0 f1 ff ff 	mov    -0xe50(%rbp),%rax
   1a3d4:	89 10                	mov    %edx,(%rax)
   1a3d6:	48 c7 85 38 f1 ff ff 	movq   $0xffffffffffffffea,-0xec8(%rbp)
   1a3dd:	ea ff ff ff 
   1a3e1:	90                   	nop
   1a3e2:	48 8b 85 38 f1 ff ff 	mov    -0xec8(%rbp),%rax
   1a3e9:	48 83 f8 0e          	cmp    $0xe,%rax
   1a3ed:	0f 87 d3 01 00 00    	ja     1a5c6 <func_75+0x1a6b>
   1a3f3:	48 8d 85 50 f1 ff ff 	lea    -0xeb0(%rbp),%rax
   1a3fa:	48 89 85 c8 f1 ff ff 	mov    %rax,-0xe38(%rbp)
   1a401:	c7 85 f8 f0 ff ff c6 	movl   $0x5482f6c6,-0xf08(%rbp)
   1a408:	f6 82 54 
   1a40b:	48 8d 05 46 6c 00 00 	lea    0x6c46(%rip),%rax        # 21058 <g_65>
   1a412:	48 89 85 58 f1 ff ff 	mov    %rax,-0xea8(%rbp)
   1a419:	48 8d 85 58 f1 ff ff 	lea    -0xea8(%rbp),%rax
   1a420:	48 89 85 d0 f1 ff ff 	mov    %rax,-0xe30(%rbp)
   1a427:	66 c7 85 ac f0 ff ff 	movw   $0x0,-0xf54(%rbp)
   1a42e:	00 00 
   1a430:	c7 85 d0 fa ff ff 01 	movl   $0x1,-0x530(%rbp)
   1a437:	00 00 00 
   1a43a:	c7 85 d4 fa ff ff 01 	movl   $0x1,-0x52c(%rbp)
   1a441:	00 00 00 
   1a444:	c7 85 d8 fa ff ff 01 	movl   $0x1,-0x528(%rbp)
   1a44b:	00 00 00 
   1a44e:	c7 85 dc fa ff ff 01 	movl   $0x1,-0x524(%rbp)
   1a455:	00 00 00 
   1a458:	c7 85 e0 fa ff ff 01 	movl   $0x1,-0x520(%rbp)
   1a45f:	00 00 00 
   1a462:	c7 85 e4 fa ff ff 01 	movl   $0x1,-0x51c(%rbp)
   1a469:	00 00 00 
   1a46c:	c7 85 e8 fa ff ff 01 	movl   $0x1,-0x518(%rbp)
   1a473:	00 00 00 
   1a476:	c7 85 ec fa ff ff 01 	movl   $0x1,-0x514(%rbp)
   1a47d:	00 00 00 
   1a480:	8b 9d 9c f0 ff ff    	mov    -0xf64(%rbp),%ebx
   1a486:	48 8b 85 80 f1 ff ff 	mov    -0xe80(%rbp),%rax
   1a48d:	48 8b 00             	mov    (%rax),%rax
   1a490:	8b 00                	mov    (%rax),%eax
   1a492:	44 0f b7 e0          	movzwl %ax,%r12d
   1a496:	8b 05 ac 6f 00 00    	mov    0x6fac(%rip),%eax        # 21448 <g_477>
   1a49c:	41 89 c5             	mov    %eax,%r13d
   1a49f:	48 8b 85 b0 f1 ff ff 	mov    -0xe50(%rbp),%rax
   1a4a6:	8b 00                	mov    (%rax),%eax
   1a4a8:	23 85 f8 f0 ff ff    	and    -0xf08(%rbp),%eax
   1a4ae:	89 c2                	mov    %eax,%edx
   1a4b0:	0f b6 0d 7b 6b 00 00 	movzbl 0x6b7b(%rip),%ecx        # 21032 <g_42>
   1a4b7:	0f b6 05 86 6f 00 00 	movzbl 0x6f86(%rip),%eax        # 21444 <g_442>
   1a4be:	38 c1                	cmp    %al,%cl
   1a4c0:	0f 9f c0             	setg   %al
   1a4c3:	0f b6 c0             	movzbl %al,%eax
   1a4c6:	39 c2                	cmp    %eax,%edx
   1a4c8:	0f 9c c0             	setl   %al
   1a4cb:	0f b6 c0             	movzbl %al,%eax
   1a4ce:	be 72 df ff ff       	mov    $0xffffdf72,%esi
   1a4d3:	89 c7                	mov    %eax,%edi
   1a4d5:	e8 1b ff fe ff       	callq  a3f5 <safe_mul_func_int16_t_s_s>
   1a4da:	0f bf d0             	movswl %ax,%edx
   1a4dd:	48 8b 85 80 f1 ff ff 	mov    -0xe80(%rbp),%rax
   1a4e4:	48 8b 00             	mov    (%rax),%rax
   1a4e7:	8b 00                	mov    (%rax),%eax
   1a4e9:	0f b6 c0             	movzbl %al,%eax
   1a4ec:	89 d6                	mov    %edx,%esi
   1a4ee:	89 c7                	mov    %eax,%edi
   1a4f0:	e8 10 07 ff ff       	callq  ac05 <safe_lshift_func_uint8_t_u_s>
   1a4f5:	0f b6 d0             	movzbl %al,%edx
   1a4f8:	0f b7 85 98 f0 ff ff 	movzwl -0xf68(%rbp),%eax
   1a4ff:	0f b6 c0             	movzbl %al,%eax
   1a502:	89 d6                	mov    %edx,%esi
   1a504:	89 c7                	mov    %eax,%edi
   1a506:	e8 4f 06 ff ff       	callq  ab5a <safe_add_func_uint8_t_u_u>
   1a50b:	0f be c0             	movsbl %al,%eax
   1a50e:	be ef ff ff ff       	mov    $0xffffffef,%esi
   1a513:	89 c7                	mov    %eax,%edi
   1a515:	e8 50 fd fe ff       	callq  a26a <safe_div_func_int8_t_s_s>
   1a51a:	48 8b 95 50 f1 ff ff 	mov    -0xeb0(%rbp),%rdx
   1a521:	48 8b 85 c8 f1 ff ff 	mov    -0xe38(%rbp),%rax
   1a528:	48 89 10             	mov    %rdx,(%rax)
   1a52b:	48 8b 85 c8 f1 ff ff 	mov    -0xe38(%rbp),%rax
   1a532:	48 8b 00             	mov    (%rax),%rax
   1a535:	48 85 c0             	test   %rax,%rax
   1a538:	48 8b 05 c9 86 00 00 	mov    0x86c9(%rip),%rax        # 22c08 <g_382>
   1a53f:	48 8b 00             	mov    (%rax),%rax
   1a542:	8b 00                	mov    (%rax),%eax
   1a544:	85 c0                	test   %eax,%eax
   1a546:	0f 9e c0             	setle  %al
   1a549:	0f b6 c0             	movzbl %al,%eax
   1a54c:	4c 89 ee             	mov    %r13,%rsi
   1a54f:	48 89 c7             	mov    %rax,%rdi
   1a552:	e8 ea 02 ff ff       	callq  a841 <safe_add_func_int64_t_s_s>
   1a557:	48 be e8 55 89 dc 18 	movabs $0x8f9edb18dc8955e8,%rsi
   1a55e:	db 9e 8f 
   1a561:	48 89 c7             	mov    %rax,%rdi
   1a564:	e8 4b 04 ff ff       	callq  a9b4 <safe_mod_func_int64_t_s_s>
   1a569:	44 89 e6             	mov    %r12d,%esi
   1a56c:	bf 00 00 00 00       	mov    $0x0,%edi
   1a571:	e8 c7 07 ff ff       	callq  ad3d <safe_mul_func_uint16_t_u_u>
   1a576:	66 85 c0             	test   %ax,%ax
   1a579:	74 11                	je     1a58c <func_75+0x1a31>
   1a57b:	8b 05 cf 6e 00 00    	mov    0x6ecf(%rip),%eax        # 21450 <g_547>
   1a581:	85 c0                	test   %eax,%eax
   1a583:	74 07                	je     1a58c <func_75+0x1a31>
   1a585:	b8 01 00 00 00       	mov    $0x1,%eax
   1a58a:	eb 05                	jmp    1a591 <func_75+0x1a36>
   1a58c:	b8 00 00 00 00       	mov    $0x0,%eax
   1a591:	48 98                	cltq   
   1a593:	48 89 de             	mov    %rbx,%rsi
   1a596:	48 89 c7             	mov    %rax,%rdi
   1a599:	e8 90 0a ff ff       	callq  b02e <safe_add_func_uint64_t_u_u>
   1a59e:	83 bd 9c f0 ff ff 00 	cmpl   $0x0,-0xf64(%rbp)
   1a5a5:	75 1e                	jne    1a5c5 <func_75+0x1a6a>
   1a5a7:	48 8b 85 80 f1 ff ff 	mov    -0xe80(%rbp),%rax
   1a5ae:	48 8d 95 c0 f0 ff ff 	lea    -0xf40(%rbp),%rdx
   1a5b5:	48 89 10             	mov    %rdx,(%rax)
   1a5b8:	0f b6 05 25 6e 00 00 	movzbl 0x6e25(%rip),%eax        # 213e4 <g_243>
   1a5bf:	48 0f be c0          	movsbq %al,%rax
   1a5c3:	eb 2c                	jmp    1a5f1 <func_75+0x1a96>
   1a5c5:	90                   	nop
   1a5c6:	48 8b 85 a8 f1 ff ff 	mov    -0xe58(%rbp),%rax
   1a5cd:	8b 10                	mov    (%rax),%edx
   1a5cf:	48 8b 85 80 f1 ff ff 	mov    -0xe80(%rbp),%rax
   1a5d6:	48 8b 00             	mov    (%rax),%rax
   1a5d9:	8b 00                	mov    (%rax),%eax
   1a5db:	21 c2                	and    %eax,%edx
   1a5dd:	48 8b 85 a8 f1 ff ff 	mov    -0xe58(%rbp),%rax
   1a5e4:	89 10                	mov    %edx,(%rax)
   1a5e6:	0f b7 05 9d 6e 00 00 	movzwl 0x6e9d(%rip),%eax        # 2148a <g_569+0xa>
   1a5ed:	48 0f bf c0          	movswq %ax,%rax
   1a5f1:	48 8b 5d d8          	mov    -0x28(%rbp),%rbx
   1a5f5:	64 48 33 1c 25 28 00 	xor    %fs:0x28,%rbx
   1a5fc:	00 00 
   1a5fe:	74 05                	je     1a605 <func_75+0x1aaa>
   1a600:	e8 6b fa fe ff       	callq  a070 <__stack_chk_fail@plt>
   1a605:	48 81 c4 50 0f 00 00 	add    $0xf50,%rsp
   1a60c:	5b                   	pop    %rbx
   1a60d:	41 5c                	pop    %r12
   1a60f:	41 5d                	pop    %r13
   1a611:	41 5e                	pop    %r14
   1a613:	5d                   	pop    %rbp
   1a614:	c3                   	retq   

000000000001a615 <main>:
   1a615:	f3 0f 1e fa          	endbr64 
   1a619:	55                   	push   %rbp
   1a61a:	48 89 e5             	mov    %rsp,%rbp
   1a61d:	48 83 ec 20          	sub    $0x20,%rsp
   1a621:	89 7d ec             	mov    %edi,-0x14(%rbp)
   1a624:	48 89 75 e0          	mov    %rsi,-0x20(%rbp)
   1a628:	c7 45 fc 00 00 00 00 	movl   $0x0,-0x4(%rbp)
   1a62f:	83 7d ec 02          	cmpl   $0x2,-0x14(%rbp)
   1a633:	75 25                	jne    1a65a <main+0x45>
   1a635:	48 8b 45 e0          	mov    -0x20(%rbp),%rax
   1a639:	48 83 c0 08          	add    $0x8,%rax
   1a63d:	48 8b 00             	mov    (%rax),%rax
   1a640:	48 8d 35 29 33 00 00 	lea    0x3329(%rip),%rsi        # 1d970 <g_1542+0x1913>
   1a647:	48 89 c7             	mov    %rax,%rdi
   1a64a:	e8 41 fa fe ff       	callq  a090 <strcmp@plt>
   1a64f:	85 c0                	test   %eax,%eax
   1a651:	75 07                	jne    1a65a <main+0x45>
   1a653:	c7 45 fc 01 00 00 00 	movl   $0x1,-0x4(%rbp)
   1a65a:	e8 2a fb fe ff       	callq  a189 <platform_main_begin>
   1a65f:	e8 34 0f ff ff       	callq  b598 <crc32_gentab>
   1a664:	e8 4c 11 ff ff       	callq  b7b5 <func_1>
   1a669:	0f b6 05 b4 69 00 00 	movzbl 0x69b4(%rip),%eax        # 21024 <g_6>
   1a670:	48 0f be c0          	movsbq %al,%rax
   1a674:	8b 55 fc             	mov    -0x4(%rbp),%edx
   1a677:	48 8d 35 f4 32 00 00 	lea    0x32f4(%rip),%rsi        # 1d972 <g_1542+0x1915>
   1a67e:	48 89 c7             	mov    %rax,%rdi
   1a681:	e8 6d 10 ff ff       	callq  b6f3 <transparent_crc>
   1a686:	c7 45 f0 00 00 00 00 	movl   $0x0,-0x10(%rbp)
   1a68d:	eb 46                	jmp    1a6d5 <main+0xc0>
   1a68f:	8b 45 f0             	mov    -0x10(%rbp),%eax
   1a692:	48 98                	cltq   
   1a694:	48 8d 15 8d 69 00 00 	lea    0x698d(%rip),%rdx        # 21028 <g_8>
   1a69b:	0f b6 04 10          	movzbl (%rax,%rdx,1),%eax
   1a69f:	48 0f be c0          	movsbq %al,%rax
   1a6a3:	8b 55 fc             	mov    -0x4(%rbp),%edx
   1a6a6:	48 8d 35 c9 32 00 00 	lea    0x32c9(%rip),%rsi        # 1d976 <g_1542+0x1919>
   1a6ad:	48 89 c7             	mov    %rax,%rdi
   1a6b0:	e8 3e 10 ff ff       	callq  b6f3 <transparent_crc>
   1a6b5:	83 7d fc 00          	cmpl   $0x0,-0x4(%rbp)
   1a6b9:	74 16                	je     1a6d1 <main+0xbc>
   1a6bb:	8b 45 f0             	mov    -0x10(%rbp),%eax
   1a6be:	89 c6                	mov    %eax,%esi
   1a6c0:	48 8d 3d b6 32 00 00 	lea    0x32b6(%rip),%rdi        # 1d97d <g_1542+0x1920>
   1a6c7:	b8 00 00 00 00       	mov    $0x0,%eax
   1a6cc:	e8 af f9 fe ff       	callq  a080 <printf@plt>
   1a6d1:	83 45 f0 01          	addl   $0x1,-0x10(%rbp)
   1a6d5:	83 7d f0 09          	cmpl   $0x9,-0x10(%rbp)
   1a6d9:	7e b4                	jle    1a68f <main+0x7a>
   1a6db:	0f b6 05 50 69 00 00 	movzbl 0x6950(%rip),%eax        # 21032 <g_42>
   1a6e2:	48 0f be c0          	movsbq %al,%rax
   1a6e6:	8b 55 fc             	mov    -0x4(%rbp),%edx
   1a6e9:	48 8d 35 9b 32 00 00 	lea    0x329b(%rip),%rsi        # 1d98b <g_1542+0x192e>
   1a6f0:	48 89 c7             	mov    %rax,%rdi
   1a6f3:	e8 fb 0f ff ff       	callq  b6f3 <transparent_crc>
   1a6f8:	c7 45 f0 00 00 00 00 	movl   $0x0,-0x10(%rbp)
   1a6ff:	eb 4b                	jmp    1a74c <main+0x137>
   1a701:	8b 45 f0             	mov    -0x10(%rbp),%eax
   1a704:	48 98                	cltq   
   1a706:	48 8d 14 85 00 00 00 	lea    0x0(,%rax,4),%rdx
   1a70d:	00 
   1a70e:	48 8d 05 2b 69 00 00 	lea    0x692b(%rip),%rax        # 21040 <g_62>
   1a715:	8b 04 02             	mov    (%rdx,%rax,1),%eax
   1a718:	48 98                	cltq   
   1a71a:	8b 55 fc             	mov    -0x4(%rbp),%edx
   1a71d:	48 8d 35 6c 32 00 00 	lea    0x326c(%rip),%rsi        # 1d990 <g_1542+0x1933>
   1a724:	48 89 c7             	mov    %rax,%rdi
   1a727:	e8 c7 0f ff ff       	callq  b6f3 <transparent_crc>
   1a72c:	83 7d fc 00          	cmpl   $0x0,-0x4(%rbp)
   1a730:	74 16                	je     1a748 <main+0x133>
   1a732:	8b 45 f0             	mov    -0x10(%rbp),%eax
   1a735:	89 c6                	mov    %eax,%esi
   1a737:	48 8d 3d 3f 32 00 00 	lea    0x323f(%rip),%rdi        # 1d97d <g_1542+0x1920>
   1a73e:	b8 00 00 00 00       	mov    $0x0,%eax
   1a743:	e8 38 f9 fe ff       	callq  a080 <printf@plt>
   1a748:	83 45 f0 01          	addl   $0x1,-0x10(%rbp)
   1a74c:	83 7d f0 05          	cmpl   $0x5,-0x10(%rbp)
   1a750:	7e af                	jle    1a701 <main+0xec>
   1a752:	8b 05 00 69 00 00    	mov    0x6900(%rip),%eax        # 21058 <g_65>
   1a758:	89 c1                	mov    %eax,%ecx
   1a75a:	8b 45 fc             	mov    -0x4(%rbp),%eax
   1a75d:	89 c2                	mov    %eax,%edx
   1a75f:	48 8d 35 32 32 00 00 	lea    0x3232(%rip),%rsi        # 1d998 <g_1542+0x193b>
   1a766:	48 89 cf             	mov    %rcx,%rdi
   1a769:	e8 85 0f ff ff       	callq  b6f3 <transparent_crc>
   1a76e:	c7 45 f0 00 00 00 00 	movl   $0x0,-0x10(%rbp)
   1a775:	e9 a5 00 00 00       	jmpq   1a81f <main+0x20a>
   1a77a:	c7 45 f4 00 00 00 00 	movl   $0x0,-0xc(%rbp)
   1a781:	e9 8b 00 00 00       	jmpq   1a811 <main+0x1fc>
   1a786:	c7 45 f8 00 00 00 00 	movl   $0x0,-0x8(%rbp)
   1a78d:	eb 78                	jmp    1a807 <main+0x1f2>
   1a78f:	8b 45 f8             	mov    -0x8(%rbp),%eax
   1a792:	48 63 f0             	movslq %eax,%rsi
   1a795:	8b 45 f0             	mov    -0x10(%rbp),%eax
   1a798:	48 63 d0             	movslq %eax,%rdx
   1a79b:	8b 45 f4             	mov    -0xc(%rbp),%eax
   1a79e:	48 63 c8             	movslq %eax,%rcx
   1a7a1:	48 89 d0             	mov    %rdx,%rax
   1a7a4:	48 c1 e0 04          	shl    $0x4,%rax
   1a7a8:	48 29 d0             	sub    %rdx,%rax
   1a7ab:	48 01 c0             	add    %rax,%rax
   1a7ae:	48 89 ca             	mov    %rcx,%rdx
   1a7b1:	48 01 d2             	add    %rdx,%rdx
   1a7b4:	48 01 ca             	add    %rcx,%rdx
   1a7b7:	48 01 d0             	add    %rdx,%rax
   1a7ba:	48 01 f0             	add    %rsi,%rax
   1a7bd:	48 8d 14 00          	lea    (%rax,%rax,1),%rdx
   1a7c1:	48 8d 05 98 68 00 00 	lea    0x6898(%rip),%rax        # 21060 <g_94>
   1a7c8:	0f b7 04 02          	movzwl (%rdx,%rax,1),%eax
   1a7cc:	0f b7 c0             	movzwl %ax,%eax
   1a7cf:	8b 55 fc             	mov    -0x4(%rbp),%edx
   1a7d2:	48 8d 35 c4 31 00 00 	lea    0x31c4(%rip),%rsi        # 1d99d <g_1542+0x1940>
   1a7d9:	48 89 c7             	mov    %rax,%rdi
   1a7dc:	e8 12 0f ff ff       	callq  b6f3 <transparent_crc>
   1a7e1:	83 7d fc 00          	cmpl   $0x0,-0x4(%rbp)
   1a7e5:	74 1c                	je     1a803 <main+0x1ee>
   1a7e7:	8b 4d f8             	mov    -0x8(%rbp),%ecx
   1a7ea:	8b 55 f4             	mov    -0xc(%rbp),%edx
   1a7ed:	8b 45 f0             	mov    -0x10(%rbp),%eax
   1a7f0:	89 c6                	mov    %eax,%esi
   1a7f2:	48 8d 3d b2 31 00 00 	lea    0x31b2(%rip),%rdi        # 1d9ab <g_1542+0x194e>
   1a7f9:	b8 00 00 00 00       	mov    $0x0,%eax
   1a7fe:	e8 7d f8 fe ff       	callq  a080 <printf@plt>
   1a803:	83 45 f8 01          	addl   $0x1,-0x8(%rbp)
   1a807:	83 7d f8 02          	cmpl   $0x2,-0x8(%rbp)
   1a80b:	7e 82                	jle    1a78f <main+0x17a>
   1a80d:	83 45 f4 01          	addl   $0x1,-0xc(%rbp)
   1a811:	83 7d f4 09          	cmpl   $0x9,-0xc(%rbp)
   1a815:	0f 8e 6b ff ff ff    	jle    1a786 <main+0x171>
   1a81b:	83 45 f0 01          	addl   $0x1,-0x10(%rbp)
   1a81f:	83 7d f0 07          	cmpl   $0x7,-0x10(%rbp)
   1a823:	0f 8e 51 ff ff ff    	jle    1a77a <main+0x165>
   1a829:	48 8b 05 10 6a 00 00 	mov    0x6a10(%rip),%rax        # 21240 <g_101>
   1a830:	48 89 c1             	mov    %rax,%rcx
   1a833:	8b 45 fc             	mov    -0x4(%rbp),%eax
   1a836:	89 c2                	mov    %eax,%edx
   1a838:	48 8d 35 82 31 00 00 	lea    0x3182(%rip),%rsi        # 1d9c1 <g_1542+0x1964>
   1a83f:	48 89 cf             	mov    %rcx,%rdi
   1a842:	e8 ac 0e ff ff       	callq  b6f3 <transparent_crc>
   1a847:	0f b7 05 fa 69 00 00 	movzwl 0x69fa(%rip),%eax        # 21248 <g_115>
   1a84e:	48 0f bf c0          	movswq %ax,%rax
   1a852:	8b 55 fc             	mov    -0x4(%rbp),%edx
   1a855:	48 8d 35 6b 31 00 00 	lea    0x316b(%rip),%rsi        # 1d9c7 <g_1542+0x196a>
   1a85c:	48 89 c7             	mov    %rax,%rdi
   1a85f:	e8 8f 0e ff ff       	callq  b6f3 <transparent_crc>
   1a864:	c7 45 f0 00 00 00 00 	movl   $0x0,-0x10(%rbp)
   1a86b:	eb 4d                	jmp    1a8ba <main+0x2a5>
   1a86d:	8b 45 f0             	mov    -0x10(%rbp),%eax
   1a870:	48 98                	cltq   
   1a872:	48 8d 14 85 00 00 00 	lea    0x0(,%rax,4),%rdx
   1a879:	00 
   1a87a:	48 8d 05 cf a1 00 00 	lea    0xa1cf(%rip),%rax        # 24a50 <g_117>
   1a881:	8b 04 02             	mov    (%rdx,%rax,1),%eax
   1a884:	89 c1                	mov    %eax,%ecx
   1a886:	8b 45 fc             	mov    -0x4(%rbp),%eax
   1a889:	89 c2                	mov    %eax,%edx
   1a88b:	48 8d 35 3b 31 00 00 	lea    0x313b(%rip),%rsi        # 1d9cd <g_1542+0x1970>
   1a892:	48 89 cf             	mov    %rcx,%rdi
   1a895:	e8 59 0e ff ff       	callq  b6f3 <transparent_crc>
   1a89a:	83 7d fc 00          	cmpl   $0x0,-0x4(%rbp)
   1a89e:	74 16                	je     1a8b6 <main+0x2a1>
   1a8a0:	8b 45 f0             	mov    -0x10(%rbp),%eax
   1a8a3:	89 c6                	mov    %eax,%esi
   1a8a5:	48 8d 3d d1 30 00 00 	lea    0x30d1(%rip),%rdi        # 1d97d <g_1542+0x1920>
   1a8ac:	b8 00 00 00 00       	mov    $0x0,%eax
   1a8b1:	e8 ca f7 fe ff       	callq  a080 <printf@plt>
   1a8b6:	83 45 f0 01          	addl   $0x1,-0x10(%rbp)
   1a8ba:	83 7d f0 05          	cmpl   $0x5,-0x10(%rbp)
   1a8be:	7e ad                	jle    1a86d <main+0x258>
   1a8c0:	c7 45 f0 00 00 00 00 	movl   $0x0,-0x10(%rbp)
   1a8c7:	e9 b7 00 00 00       	jmpq   1a983 <main+0x36e>
   1a8cc:	c7 45 f4 00 00 00 00 	movl   $0x0,-0xc(%rbp)
   1a8d3:	e9 9d 00 00 00       	jmpq   1a975 <main+0x360>
   1a8d8:	c7 45 f8 00 00 00 00 	movl   $0x0,-0x8(%rbp)
   1a8df:	e9 83 00 00 00       	jmpq   1a967 <main+0x352>
   1a8e4:	8b 45 f8             	mov    -0x8(%rbp),%eax
   1a8e7:	48 63 f0             	movslq %eax,%rsi
   1a8ea:	8b 45 f0             	mov    -0x10(%rbp),%eax
   1a8ed:	48 98                	cltq   
   1a8ef:	8b 55 f4             	mov    -0xc(%rbp),%edx
   1a8f2:	48 63 ca             	movslq %edx,%rcx
   1a8f5:	48 89 c2             	mov    %rax,%rdx
   1a8f8:	48 01 d2             	add    %rdx,%rdx
   1a8fb:	48 01 c2             	add    %rax,%rdx
   1a8fe:	48 8d 04 95 00 00 00 	lea    0x0(,%rdx,4),%rax
   1a905:	00 
   1a906:	48 89 c2             	mov    %rax,%rdx
   1a909:	48 89 c8             	mov    %rcx,%rax
   1a90c:	48 01 c0             	add    %rax,%rax
   1a90f:	48 01 c8             	add    %rcx,%rax
   1a912:	48 01 c0             	add    %rax,%rax
   1a915:	48 01 d0             	add    %rdx,%rax
   1a918:	48 01 f0             	add    %rsi,%rax
   1a91b:	48 8d 14 85 00 00 00 	lea    0x0(,%rax,4),%rdx
   1a922:	00 
   1a923:	48 8d 05 36 69 00 00 	lea    0x6936(%rip),%rax        # 21260 <g_119>
   1a92a:	8b 04 02             	mov    (%rdx,%rax,1),%eax
   1a92d:	48 98                	cltq   
   1a92f:	8b 55 fc             	mov    -0x4(%rbp),%edx
   1a932:	48 8d 35 9d 30 00 00 	lea    0x309d(%rip),%rsi        # 1d9d6 <g_1542+0x1979>
   1a939:	48 89 c7             	mov    %rax,%rdi
   1a93c:	e8 b2 0d ff ff       	callq  b6f3 <transparent_crc>
   1a941:	83 7d fc 00          	cmpl   $0x0,-0x4(%rbp)
   1a945:	74 1c                	je     1a963 <main+0x34e>
   1a947:	8b 4d f8             	mov    -0x8(%rbp),%ecx
   1a94a:	8b 55 f4             	mov    -0xc(%rbp),%edx
   1a94d:	8b 45 f0             	mov    -0x10(%rbp),%eax
   1a950:	89 c6                	mov    %eax,%esi
   1a952:	48 8d 3d 52 30 00 00 	lea    0x3052(%rip),%rdi        # 1d9ab <g_1542+0x194e>
   1a959:	b8 00 00 00 00       	mov    $0x0,%eax
   1a95e:	e8 1d f7 fe ff       	callq  a080 <printf@plt>
   1a963:	83 45 f8 01          	addl   $0x1,-0x8(%rbp)
   1a967:	83 7d f8 05          	cmpl   $0x5,-0x8(%rbp)
   1a96b:	0f 8e 73 ff ff ff    	jle    1a8e4 <main+0x2cf>
   1a971:	83 45 f4 01          	addl   $0x1,-0xc(%rbp)
   1a975:	83 7d f4 01          	cmpl   $0x1,-0xc(%rbp)
   1a979:	0f 8e 59 ff ff ff    	jle    1a8d8 <main+0x2c3>
   1a97f:	83 45 f0 01          	addl   $0x1,-0x10(%rbp)
   1a983:	83 7d f0 07          	cmpl   $0x7,-0x10(%rbp)
   1a987:	0f 8e 3f ff ff ff    	jle    1a8cc <main+0x2b7>
   1a98d:	8b 05 4d 6a 00 00    	mov    0x6a4d(%rip),%eax        # 213e0 <g_161>
   1a993:	89 c1                	mov    %eax,%ecx
   1a995:	8b 45 fc             	mov    -0x4(%rbp),%eax
   1a998:	89 c2                	mov    %eax,%edx
   1a99a:	48 8d 35 44 30 00 00 	lea    0x3044(%rip),%rsi        # 1d9e5 <g_1542+0x1988>
   1a9a1:	48 89 cf             	mov    %rcx,%rdi
   1a9a4:	e8 4a 0d ff ff       	callq  b6f3 <transparent_crc>
   1a9a9:	0f b6 05 34 6a 00 00 	movzbl 0x6a34(%rip),%eax        # 213e4 <g_243>
   1a9b0:	48 0f be c0          	movsbq %al,%rax
   1a9b4:	8b 55 fc             	mov    -0x4(%rbp),%edx
   1a9b7:	48 8d 35 2d 30 00 00 	lea    0x302d(%rip),%rsi        # 1d9eb <g_1542+0x198e>
   1a9be:	48 89 c7             	mov    %rax,%rdi
   1a9c1:	e8 2d 0d ff ff       	callq  b6f3 <transparent_crc>
   1a9c6:	c7 45 f0 00 00 00 00 	movl   $0x0,-0x10(%rbp)
   1a9cd:	eb 4a                	jmp    1aa19 <main+0x404>
   1a9cf:	8b 45 f0             	mov    -0x10(%rbp),%eax
   1a9d2:	48 98                	cltq   
   1a9d4:	48 8d 14 c5 00 00 00 	lea    0x0(,%rax,8),%rdx
   1a9db:	00 
   1a9dc:	48 8d 05 1d 6a 00 00 	lea    0x6a1d(%rip),%rax        # 21400 <g_264>
   1a9e3:	48 8b 04 02          	mov    (%rdx,%rax,1),%rax
   1a9e7:	8b 55 fc             	mov    -0x4(%rbp),%edx
   1a9ea:	48 8d 35 00 30 00 00 	lea    0x3000(%rip),%rsi        # 1d9f1 <g_1542+0x1994>
   1a9f1:	48 89 c7             	mov    %rax,%rdi
   1a9f4:	e8 fa 0c ff ff       	callq  b6f3 <transparent_crc>
   1a9f9:	83 7d fc 00          	cmpl   $0x0,-0x4(%rbp)
   1a9fd:	74 16                	je     1aa15 <main+0x400>
   1a9ff:	8b 45 f0             	mov    -0x10(%rbp),%eax
   1aa02:	89 c6                	mov    %eax,%esi
   1aa04:	48 8d 3d 72 2f 00 00 	lea    0x2f72(%rip),%rdi        # 1d97d <g_1542+0x1920>
   1aa0b:	b8 00 00 00 00       	mov    $0x0,%eax
   1aa10:	e8 6b f6 fe ff       	callq  a080 <printf@plt>
   1aa15:	83 45 f0 01          	addl   $0x1,-0x10(%rbp)
   1aa19:	83 7d f0 06          	cmpl   $0x6,-0x10(%rbp)
   1aa1d:	7e b0                	jle    1a9cf <main+0x3ba>
   1aa1f:	48 8b 05 12 6a 00 00 	mov    0x6a12(%rip),%rax        # 21438 <g_289>
   1aa26:	48 89 c1             	mov    %rax,%rcx
   1aa29:	8b 45 fc             	mov    -0x4(%rbp),%eax
   1aa2c:	89 c2                	mov    %eax,%edx
   1aa2e:	48 8d 35 c5 2f 00 00 	lea    0x2fc5(%rip),%rsi        # 1d9fa <g_1542+0x199d>
   1aa35:	48 89 cf             	mov    %rcx,%rdi
   1aa38:	e8 b6 0c ff ff       	callq  b6f3 <transparent_crc>
   1aa3d:	0f b6 05 fc 69 00 00 	movzbl 0x69fc(%rip),%eax        # 21440 <g_372>
   1aa44:	0f b6 c0             	movzbl %al,%eax
   1aa47:	8b 55 fc             	mov    -0x4(%rbp),%edx
   1aa4a:	48 8d 35 af 2f 00 00 	lea    0x2faf(%rip),%rsi        # 1da00 <g_1542+0x19a3>
   1aa51:	48 89 c7             	mov    %rax,%rdi
   1aa54:	e8 9a 0c ff ff       	callq  b6f3 <transparent_crc>
   1aa59:	0f b7 05 e2 69 00 00 	movzwl 0x69e2(%rip),%eax        # 21442 <g_431>
   1aa60:	0f b7 c0             	movzwl %ax,%eax
   1aa63:	8b 55 fc             	mov    -0x4(%rbp),%edx
   1aa66:	48 8d 35 99 2f 00 00 	lea    0x2f99(%rip),%rsi        # 1da06 <g_1542+0x19a9>
   1aa6d:	48 89 c7             	mov    %rax,%rdi
   1aa70:	e8 7e 0c ff ff       	callq  b6f3 <transparent_crc>
   1aa75:	0f b6 05 c8 69 00 00 	movzbl 0x69c8(%rip),%eax        # 21444 <g_442>
   1aa7c:	48 0f be c0          	movsbq %al,%rax
   1aa80:	8b 55 fc             	mov    -0x4(%rbp),%edx
   1aa83:	48 8d 35 82 2f 00 00 	lea    0x2f82(%rip),%rsi        # 1da0c <g_1542+0x19af>
   1aa8a:	48 89 c7             	mov    %rax,%rdi
   1aa8d:	e8 61 0c ff ff       	callq  b6f3 <transparent_crc>
   1aa92:	8b 05 b0 69 00 00    	mov    0x69b0(%rip),%eax        # 21448 <g_477>
   1aa98:	89 c1                	mov    %eax,%ecx
   1aa9a:	8b 45 fc             	mov    -0x4(%rbp),%eax
   1aa9d:	89 c2                	mov    %eax,%edx
   1aa9f:	48 8d 35 6c 2f 00 00 	lea    0x2f6c(%rip),%rsi        # 1da12 <g_1542+0x19b5>
   1aaa6:	48 89 cf             	mov    %rcx,%rdi
   1aaa9:	e8 45 0c ff ff       	callq  b6f3 <transparent_crc>
   1aaae:	0f b7 05 97 69 00 00 	movzwl 0x6997(%rip),%eax        # 2144c <g_481>
   1aab5:	0f b7 c0             	movzwl %ax,%eax
   1aab8:	8b 55 fc             	mov    -0x4(%rbp),%edx
   1aabb:	48 8d 35 56 2f 00 00 	lea    0x2f56(%rip),%rsi        # 1da18 <g_1542+0x19bb>
   1aac2:	48 89 c7             	mov    %rax,%rdi
   1aac5:	e8 29 0c ff ff       	callq  b6f3 <transparent_crc>
   1aaca:	8b 05 80 69 00 00    	mov    0x6980(%rip),%eax        # 21450 <g_547>
   1aad0:	48 98                	cltq   
   1aad2:	8b 55 fc             	mov    -0x4(%rbp),%edx
   1aad5:	48 8d 35 42 2f 00 00 	lea    0x2f42(%rip),%rsi        # 1da1e <g_1542+0x19c1>
   1aadc:	48 89 c7             	mov    %rax,%rdi
   1aadf:	e8 0f 0c ff ff       	callq  b6f3 <transparent_crc>
   1aae4:	c7 45 f0 00 00 00 00 	movl   $0x0,-0x10(%rbp)
   1aaeb:	eb 4a                	jmp    1ab37 <main+0x522>
   1aaed:	8b 45 f0             	mov    -0x10(%rbp),%eax
   1aaf0:	48 98                	cltq   
   1aaf2:	48 8d 14 00          	lea    (%rax,%rax,1),%rdx
   1aaf6:	48 8d 05 63 69 00 00 	lea    0x6963(%rip),%rax        # 21460 <g_559>
   1aafd:	0f b7 04 02          	movzwl (%rdx,%rax,1),%eax
   1ab01:	48 0f bf c0          	movswq %ax,%rax
   1ab05:	8b 55 fc             	mov    -0x4(%rbp),%edx
   1ab08:	48 8d 35 15 2f 00 00 	lea    0x2f15(%rip),%rsi        # 1da24 <g_1542+0x19c7>
   1ab0f:	48 89 c7             	mov    %rax,%rdi
   1ab12:	e8 dc 0b ff ff       	callq  b6f3 <transparent_crc>
   1ab17:	83 7d fc 00          	cmpl   $0x0,-0x4(%rbp)
   1ab1b:	74 16                	je     1ab33 <main+0x51e>
   1ab1d:	8b 45 f0             	mov    -0x10(%rbp),%eax
   1ab20:	89 c6                	mov    %eax,%esi
   1ab22:	48 8d 3d 54 2e 00 00 	lea    0x2e54(%rip),%rdi        # 1d97d <g_1542+0x1920>
   1ab29:	b8 00 00 00 00       	mov    $0x0,%eax
   1ab2e:	e8 4d f5 fe ff       	callq  a080 <printf@plt>
   1ab33:	83 45 f0 01          	addl   $0x1,-0x10(%rbp)
   1ab37:	83 7d f0 08          	cmpl   $0x8,-0x10(%rbp)
   1ab3b:	7e b0                	jle    1aaed <main+0x4d8>
   1ab3d:	b8 a1 88 ff ff       	mov    $0xffff88a1,%eax
   1ab42:	48 0f bf c0          	movswq %ax,%rax
   1ab46:	8b 55 fc             	mov    -0x4(%rbp),%edx
   1ab49:	48 8d 35 dd 2e 00 00 	lea    0x2edd(%rip),%rsi        # 1da2d <g_1542+0x19d0>
   1ab50:	48 89 c7             	mov    %rax,%rdi
   1ab53:	e8 9b 0b ff ff       	callq  b6f3 <transparent_crc>
   1ab58:	c7 45 f0 00 00 00 00 	movl   $0x0,-0x10(%rbp)
   1ab5f:	eb 6d                	jmp    1abce <main+0x5b9>
   1ab61:	c7 45 f4 00 00 00 00 	movl   $0x0,-0xc(%rbp)
   1ab68:	eb 5a                	jmp    1abc4 <main+0x5af>
   1ab6a:	8b 45 f4             	mov    -0xc(%rbp),%eax
   1ab6d:	48 98                	cltq   
   1ab6f:	8b 55 f0             	mov    -0x10(%rbp),%edx
   1ab72:	48 63 d2             	movslq %edx,%rdx
   1ab75:	48 c1 e2 02          	shl    $0x2,%rdx
   1ab79:	48 01 d0             	add    %rdx,%rax
   1ab7c:	48 8d 14 00          	lea    (%rax,%rax,1),%rdx
   1ab80:	48 8d 05 f9 68 00 00 	lea    0x68f9(%rip),%rax        # 21480 <g_569>
   1ab87:	0f b7 04 02          	movzwl (%rdx,%rax,1),%eax
   1ab8b:	48 0f bf c0          	movswq %ax,%rax
   1ab8f:	8b 55 fc             	mov    -0x4(%rbp),%edx
   1ab92:	48 8d 35 9a 2e 00 00 	lea    0x2e9a(%rip),%rsi        # 1da33 <g_1542+0x19d6>
   1ab99:	48 89 c7             	mov    %rax,%rdi
   1ab9c:	e8 52 0b ff ff       	callq  b6f3 <transparent_crc>
   1aba1:	83 7d fc 00          	cmpl   $0x0,-0x4(%rbp)
   1aba5:	74 19                	je     1abc0 <main+0x5ab>
   1aba7:	8b 55 f4             	mov    -0xc(%rbp),%edx
   1abaa:	8b 45 f0             	mov    -0x10(%rbp),%eax
   1abad:	89 c6                	mov    %eax,%esi
   1abaf:	48 8d 3d 89 2e 00 00 	lea    0x2e89(%rip),%rdi        # 1da3f <g_1542+0x19e2>
   1abb6:	b8 00 00 00 00       	mov    $0x0,%eax
   1abbb:	e8 c0 f4 fe ff       	callq  a080 <printf@plt>
   1abc0:	83 45 f4 01          	addl   $0x1,-0xc(%rbp)
   1abc4:	83 7d f4 03          	cmpl   $0x3,-0xc(%rbp)
   1abc8:	7e a0                	jle    1ab6a <main+0x555>
   1abca:	83 45 f0 01          	addl   $0x1,-0x10(%rbp)
   1abce:	83 7d f0 05          	cmpl   $0x5,-0x10(%rbp)
   1abd2:	7e 8d                	jle    1ab61 <main+0x54c>
   1abd4:	8b 05 d6 68 00 00    	mov    0x68d6(%rip),%eax        # 214b0 <g_627>
   1abda:	48 98                	cltq   
   1abdc:	8b 55 fc             	mov    -0x4(%rbp),%edx
   1abdf:	48 8d 35 6b 2e 00 00 	lea    0x2e6b(%rip),%rsi        # 1da51 <g_1542+0x19f4>
   1abe6:	48 89 c7             	mov    %rax,%rdi
   1abe9:	e8 05 0b ff ff       	callq  b6f3 <transparent_crc>
   1abee:	0f b6 05 bf 68 00 00 	movzbl 0x68bf(%rip),%eax        # 214b4 <g_755>
   1abf5:	0f b6 c0             	movzbl %al,%eax
   1abf8:	8b 55 fc             	mov    -0x4(%rbp),%edx
   1abfb:	48 8d 35 55 2e 00 00 	lea    0x2e55(%rip),%rsi        # 1da57 <g_1542+0x19fa>
   1ac02:	48 89 c7             	mov    %rax,%rdi
   1ac05:	e8 e9 0a ff ff       	callq  b6f3 <transparent_crc>
   1ac0a:	b8 ff ff ff ff       	mov    $0xffffffff,%eax
   1ac0f:	48 98                	cltq   
   1ac11:	8b 55 fc             	mov    -0x4(%rbp),%edx
   1ac14:	48 8d 35 42 2e 00 00 	lea    0x2e42(%rip),%rsi        # 1da5d <g_1542+0x1a00>
   1ac1b:	48 89 c7             	mov    %rax,%rdi
   1ac1e:	e8 d0 0a ff ff       	callq  b6f3 <transparent_crc>
   1ac23:	8b 05 8f 68 00 00    	mov    0x688f(%rip),%eax        # 214b8 <g_832>
   1ac29:	48 98                	cltq   
   1ac2b:	8b 55 fc             	mov    -0x4(%rbp),%edx
   1ac2e:	48 8d 35 2e 2e 00 00 	lea    0x2e2e(%rip),%rsi        # 1da63 <g_1542+0x1a06>
   1ac35:	48 89 c7             	mov    %rax,%rdi
   1ac38:	e8 b6 0a ff ff       	callq  b6f3 <transparent_crc>
   1ac3d:	8b 05 79 68 00 00    	mov    0x6879(%rip),%eax        # 214bc <g_873>
   1ac43:	48 98                	cltq   
   1ac45:	8b 55 fc             	mov    -0x4(%rbp),%edx
   1ac48:	48 8d 35 1a 2e 00 00 	lea    0x2e1a(%rip),%rsi        # 1da69 <g_1542+0x1a0c>
   1ac4f:	48 89 c7             	mov    %rax,%rdi
   1ac52:	e8 9c 0a ff ff       	callq  b6f3 <transparent_crc>
   1ac57:	8b 05 63 68 00 00    	mov    0x6863(%rip),%eax        # 214c0 <g_897>
   1ac5d:	89 c1                	mov    %eax,%ecx
   1ac5f:	8b 45 fc             	mov    -0x4(%rbp),%eax
   1ac62:	89 c2                	mov    %eax,%edx
   1ac64:	48 8d 35 04 2e 00 00 	lea    0x2e04(%rip),%rsi        # 1da6f <g_1542+0x1a12>
   1ac6b:	48 89 cf             	mov    %rcx,%rdi
   1ac6e:	e8 80 0a ff ff       	callq  b6f3 <transparent_crc>
   1ac73:	c7 45 f0 00 00 00 00 	movl   $0x0,-0x10(%rbp)
   1ac7a:	e9 9d 00 00 00       	jmpq   1ad1c <main+0x707>
   1ac7f:	c7 45 f4 00 00 00 00 	movl   $0x0,-0xc(%rbp)
   1ac86:	e9 83 00 00 00       	jmpq   1ad0e <main+0x6f9>
   1ac8b:	c7 45 f8 00 00 00 00 	movl   $0x0,-0x8(%rbp)
   1ac92:	eb 70                	jmp    1ad04 <main+0x6ef>
   1ac94:	8b 45 f8             	mov    -0x8(%rbp),%eax
   1ac97:	48 63 c8             	movslq %eax,%rcx
   1ac9a:	8b 45 f0             	mov    -0x10(%rbp),%eax
   1ac9d:	48 63 d0             	movslq %eax,%rdx
   1aca0:	8b 45 f4             	mov    -0xc(%rbp),%eax
   1aca3:	48 63 f0             	movslq %eax,%rsi
   1aca6:	48 89 d0             	mov    %rdx,%rax
   1aca9:	48 c1 e0 03          	shl    $0x3,%rax
   1acad:	48 29 d0             	sub    %rdx,%rax
   1acb0:	48 01 f0             	add    %rsi,%rax
   1acb3:	48 c1 e0 02          	shl    $0x2,%rax
   1acb7:	48 8d 14 08          	lea    (%rax,%rcx,1),%rdx
   1acbb:	48 8d 05 1e 68 00 00 	lea    0x681e(%rip),%rax        # 214e0 <g_919>
   1acc2:	48 01 d0             	add    %rdx,%rax
   1acc5:	0f b6 00             	movzbl (%rax),%eax
   1acc8:	48 0f be c0          	movsbq %al,%rax
   1accc:	8b 55 fc             	mov    -0x4(%rbp),%edx
   1accf:	48 8d 35 9f 2d 00 00 	lea    0x2d9f(%rip),%rsi        # 1da75 <g_1542+0x1a18>
   1acd6:	48 89 c7             	mov    %rax,%rdi
   1acd9:	e8 15 0a ff ff       	callq  b6f3 <transparent_crc>
   1acde:	83 7d fc 00          	cmpl   $0x0,-0x4(%rbp)
   1ace2:	74 1c                	je     1ad00 <main+0x6eb>
   1ace4:	8b 4d f8             	mov    -0x8(%rbp),%ecx
   1ace7:	8b 55 f4             	mov    -0xc(%rbp),%edx
   1acea:	8b 45 f0             	mov    -0x10(%rbp),%eax
   1aced:	89 c6                	mov    %eax,%esi
   1acef:	48 8d 3d b5 2c 00 00 	lea    0x2cb5(%rip),%rdi        # 1d9ab <g_1542+0x194e>
   1acf6:	b8 00 00 00 00       	mov    $0x0,%eax
   1acfb:	e8 80 f3 fe ff       	callq  a080 <printf@plt>
   1ad00:	83 45 f8 01          	addl   $0x1,-0x8(%rbp)
   1ad04:	83 7d f8 03          	cmpl   $0x3,-0x8(%rbp)
   1ad08:	7e 8a                	jle    1ac94 <main+0x67f>
   1ad0a:	83 45 f4 01          	addl   $0x1,-0xc(%rbp)
   1ad0e:	83 7d f4 06          	cmpl   $0x6,-0xc(%rbp)
   1ad12:	0f 8e 73 ff ff ff    	jle    1ac8b <main+0x676>
   1ad18:	83 45 f0 01          	addl   $0x1,-0x10(%rbp)
   1ad1c:	83 7d f0 07          	cmpl   $0x7,-0x10(%rbp)
   1ad20:	0f 8e 59 ff ff ff    	jle    1ac7f <main+0x66a>
   1ad26:	8b 05 94 68 00 00    	mov    0x6894(%rip),%eax        # 215c0 <g_1028>
   1ad2c:	48 98                	cltq   
   1ad2e:	8b 55 fc             	mov    -0x4(%rbp),%edx
   1ad31:	48 8d 35 4c 2d 00 00 	lea    0x2d4c(%rip),%rsi        # 1da84 <g_1542+0x1a27>
   1ad38:	48 89 c7             	mov    %rax,%rdi
   1ad3b:	e8 b3 09 ff ff       	callq  b6f3 <transparent_crc>
   1ad40:	0f b6 05 7d 68 00 00 	movzbl 0x687d(%rip),%eax        # 215c4 <g_1457>
   1ad47:	48 0f be c0          	movsbq %al,%rax
   1ad4b:	8b 55 fc             	mov    -0x4(%rbp),%edx
   1ad4e:	48 8d 35 36 2d 00 00 	lea    0x2d36(%rip),%rsi        # 1da8b <g_1542+0x1a2e>
   1ad55:	48 89 c7             	mov    %rax,%rdi
   1ad58:	e8 96 09 ff ff       	callq  b6f3 <transparent_crc>
   1ad5d:	0f b6 05 61 68 00 00 	movzbl 0x6861(%rip),%eax        # 215c5 <g_1486>
   1ad64:	48 0f be c0          	movsbq %al,%rax
   1ad68:	8b 55 fc             	mov    -0x4(%rbp),%edx
   1ad6b:	48 8d 35 20 2d 00 00 	lea    0x2d20(%rip),%rsi        # 1da92 <g_1542+0x1a35>
   1ad72:	48 89 c7             	mov    %rax,%rdi
   1ad75:	e8 79 09 ff ff       	callq  b6f3 <transparent_crc>
   1ad7a:	0f b6 05 45 68 00 00 	movzbl 0x6845(%rip),%eax        # 215c6 <g_1489>
   1ad81:	48 0f be c0          	movsbq %al,%rax
   1ad85:	8b 55 fc             	mov    -0x4(%rbp),%edx
   1ad88:	48 8d 35 0a 2d 00 00 	lea    0x2d0a(%rip),%rsi        # 1da99 <g_1542+0x1a3c>
   1ad8f:	48 89 c7             	mov    %rax,%rdi
   1ad92:	e8 5c 09 ff ff       	callq  b6f3 <transparent_crc>
   1ad97:	b8 9d ff ff ff       	mov    $0xffffff9d,%eax
   1ad9c:	0f b6 c0             	movzbl %al,%eax
   1ad9f:	8b 55 fc             	mov    -0x4(%rbp),%edx
   1ada2:	48 8d 35 f7 2c 00 00 	lea    0x2cf7(%rip),%rsi        # 1daa0 <g_1542+0x1a43>
   1ada9:	48 89 c7             	mov    %rax,%rdi
   1adac:	e8 42 09 ff ff       	callq  b6f3 <transparent_crc>
   1adb1:	b8 f8 ff ff ff       	mov    $0xfffffff8,%eax
   1adb6:	0f b6 c0             	movzbl %al,%eax
   1adb9:	8b 55 fc             	mov    -0x4(%rbp),%edx
   1adbc:	48 8d 35 e4 2c 00 00 	lea    0x2ce4(%rip),%rsi        # 1daa7 <g_1542+0x1a4a>
   1adc3:	48 89 c7             	mov    %rax,%rdi
   1adc6:	e8 28 09 ff ff       	callq  b6f3 <transparent_crc>
   1adcb:	c7 45 f0 00 00 00 00 	movl   $0x0,-0x10(%rbp)
   1add2:	eb 4a                	jmp    1ae1e <main+0x809>
   1add4:	8b 45 f0             	mov    -0x10(%rbp),%eax
   1add7:	48 98                	cltq   
   1add9:	48 8d 14 c5 00 00 00 	lea    0x0(,%rax,8),%rdx
   1ade0:	00 
   1ade1:	48 8d 05 f8 67 00 00 	lea    0x67f8(%rip),%rax        # 215e0 <g_1545>
   1ade8:	48 8b 04 02          	mov    (%rdx,%rax,1),%rax
   1adec:	8b 55 fc             	mov    -0x4(%rbp),%edx
   1adef:	48 8d 35 b8 2c 00 00 	lea    0x2cb8(%rip),%rsi        # 1daae <g_1542+0x1a51>
   1adf6:	48 89 c7             	mov    %rax,%rdi
   1adf9:	e8 f5 08 ff ff       	callq  b6f3 <transparent_crc>
   1adfe:	83 7d fc 00          	cmpl   $0x0,-0x4(%rbp)
   1ae02:	74 16                	je     1ae1a <main+0x805>
   1ae04:	8b 45 f0             	mov    -0x10(%rbp),%eax
   1ae07:	89 c6                	mov    %eax,%esi
   1ae09:	48 8d 3d 6d 2b 00 00 	lea    0x2b6d(%rip),%rdi        # 1d97d <g_1542+0x1920>
   1ae10:	b8 00 00 00 00       	mov    $0x0,%eax
   1ae15:	e8 66 f2 fe ff       	callq  a080 <printf@plt>
   1ae1a:	83 45 f0 01          	addl   $0x1,-0x10(%rbp)
   1ae1e:	83 7d f0 08          	cmpl   $0x8,-0x10(%rbp)
   1ae22:	7e b0                	jle    1add4 <main+0x7bf>
   1ae24:	c7 45 f0 00 00 00 00 	movl   $0x0,-0x10(%rbp)
   1ae2b:	eb 6b                	jmp    1ae98 <main+0x883>
   1ae2d:	c7 45 f4 00 00 00 00 	movl   $0x0,-0xc(%rbp)
   1ae34:	eb 58                	jmp    1ae8e <main+0x879>
   1ae36:	8b 45 f4             	mov    -0xc(%rbp),%eax
   1ae39:	48 98                	cltq   
   1ae3b:	8b 55 f0             	mov    -0x10(%rbp),%edx
   1ae3e:	48 63 d2             	movslq %edx,%rdx
   1ae41:	48 c1 e2 03          	shl    $0x3,%rdx
   1ae45:	48 01 c2             	add    %rax,%rdx
   1ae48:	48 8d 05 f1 67 00 00 	lea    0x67f1(%rip),%rax        # 21640 <g_1664>
   1ae4f:	48 01 d0             	add    %rdx,%rax
   1ae52:	0f b6 00             	movzbl (%rax),%eax
   1ae55:	48 0f be c0          	movsbq %al,%rax
   1ae59:	8b 55 fc             	mov    -0x4(%rbp),%edx
   1ae5c:	48 8d 35 55 2c 00 00 	lea    0x2c55(%rip),%rsi        # 1dab8 <g_1542+0x1a5b>
   1ae63:	48 89 c7             	mov    %rax,%rdi
   1ae66:	e8 88 08 ff ff       	callq  b6f3 <transparent_crc>
   1ae6b:	83 7d fc 00          	cmpl   $0x0,-0x4(%rbp)
   1ae6f:	74 19                	je     1ae8a <main+0x875>
   1ae71:	8b 55 f4             	mov    -0xc(%rbp),%edx
   1ae74:	8b 45 f0             	mov    -0x10(%rbp),%eax
   1ae77:	89 c6                	mov    %eax,%esi
   1ae79:	48 8d 3d bf 2b 00 00 	lea    0x2bbf(%rip),%rdi        # 1da3f <g_1542+0x19e2>
   1ae80:	b8 00 00 00 00       	mov    $0x0,%eax
   1ae85:	e8 f6 f1 fe ff       	callq  a080 <printf@plt>
   1ae8a:	83 45 f4 01          	addl   $0x1,-0xc(%rbp)
   1ae8e:	83 7d f4 07          	cmpl   $0x7,-0xc(%rbp)
   1ae92:	7e a2                	jle    1ae36 <main+0x821>
   1ae94:	83 45 f0 01          	addl   $0x1,-0x10(%rbp)
   1ae98:	83 7d f0 04          	cmpl   $0x4,-0x10(%rbp)
   1ae9c:	7e 8f                	jle    1ae2d <main+0x818>
   1ae9e:	0f b6 05 c3 67 00 00 	movzbl 0x67c3(%rip),%eax        # 21668 <g_1720>
   1aea5:	0f b6 c0             	movzbl %al,%eax
   1aea8:	8b 55 fc             	mov    -0x4(%rbp),%edx
   1aeab:	48 8d 35 13 2c 00 00 	lea    0x2c13(%rip),%rsi        # 1dac5 <g_1542+0x1a68>
   1aeb2:	48 89 c7             	mov    %rax,%rdi
   1aeb5:	e8 39 08 ff ff       	callq  b6f3 <transparent_crc>
   1aeba:	8b 05 ac 67 00 00    	mov    0x67ac(%rip),%eax        # 2166c <g_1818>
   1aec0:	89 c1                	mov    %eax,%ecx
   1aec2:	8b 45 fc             	mov    -0x4(%rbp),%eax
   1aec5:	89 c2                	mov    %eax,%edx
   1aec7:	48 8d 35 fe 2b 00 00 	lea    0x2bfe(%rip),%rsi        # 1dacc <g_1542+0x1a6f>
   1aece:	48 89 cf             	mov    %rcx,%rdi
   1aed1:	e8 1d 08 ff ff       	callq  b6f3 <transparent_crc>
   1aed6:	c7 45 f0 00 00 00 00 	movl   $0x0,-0x10(%rbp)
   1aedd:	eb 4f                	jmp    1af2e <main+0x919>
   1aedf:	8b 45 f0             	mov    -0x10(%rbp),%eax
   1aee2:	48 98                	cltq   
   1aee4:	48 8d 14 c5 00 00 00 	lea    0x0(,%rax,8),%rdx
   1aeeb:	00 
   1aeec:	48 8d 05 8d 67 00 00 	lea    0x678d(%rip),%rax        # 21680 <g_1893>
   1aef3:	48 8b 04 02          	mov    (%rdx,%rax,1),%rax
   1aef7:	48 89 c1             	mov    %rax,%rcx
   1aefa:	8b 45 fc             	mov    -0x4(%rbp),%eax
   1aefd:	89 c2                	mov    %eax,%edx
   1aeff:	48 8d 35 cd 2b 00 00 	lea    0x2bcd(%rip),%rsi        # 1dad3 <g_1542+0x1a76>
   1af06:	48 89 cf             	mov    %rcx,%rdi
   1af09:	e8 e5 07 ff ff       	callq  b6f3 <transparent_crc>
   1af0e:	83 7d fc 00          	cmpl   $0x0,-0x4(%rbp)
   1af12:	74 16                	je     1af2a <main+0x915>
   1af14:	8b 45 f0             	mov    -0x10(%rbp),%eax
   1af17:	89 c6                	mov    %eax,%esi
   1af19:	48 8d 3d 5d 2a 00 00 	lea    0x2a5d(%rip),%rdi        # 1d97d <g_1542+0x1920>
   1af20:	b8 00 00 00 00       	mov    $0x0,%eax
   1af25:	e8 56 f1 fe ff       	callq  a080 <printf@plt>
   1af2a:	83 45 f0 01          	addl   $0x1,-0x10(%rbp)
   1af2e:	83 7d f0 07          	cmpl   $0x7,-0x10(%rbp)
   1af32:	7e ab                	jle    1aedf <main+0x8ca>
   1af34:	0f b6 05 85 67 00 00 	movzbl 0x6785(%rip),%eax        # 216c0 <g_1896>
   1af3b:	0f b6 c0             	movzbl %al,%eax
   1af3e:	8b 55 fc             	mov    -0x4(%rbp),%edx
   1af41:	48 8d 35 95 2b 00 00 	lea    0x2b95(%rip),%rsi        # 1dadd <g_1542+0x1a80>
   1af48:	48 89 c7             	mov    %rax,%rdi
   1af4b:	e8 a3 07 ff ff       	callq  b6f3 <transparent_crc>
   1af50:	0f b7 05 39 9b 00 00 	movzwl 0x9b39(%rip),%eax        # 24a90 <g_2116>
   1af57:	0f b7 c0             	movzwl %ax,%eax
   1af5a:	8b 55 fc             	mov    -0x4(%rbp),%edx
   1af5d:	48 8d 35 80 2b 00 00 	lea    0x2b80(%rip),%rsi        # 1dae4 <g_1542+0x1a87>
   1af64:	48 89 c7             	mov    %rax,%rdi
   1af67:	e8 87 07 ff ff       	callq  b6f3 <transparent_crc>
   1af6c:	0f b6 05 4e 67 00 00 	movzbl 0x674e(%rip),%eax        # 216c1 <g_2509>
   1af73:	48 0f be c0          	movsbq %al,%rax
   1af77:	8b 55 fc             	mov    -0x4(%rbp),%edx
   1af7a:	48 8d 35 6a 2b 00 00 	lea    0x2b6a(%rip),%rsi        # 1daeb <g_1542+0x1a8e>
   1af81:	48 89 c7             	mov    %rax,%rdi
   1af84:	e8 6a 07 ff ff       	callq  b6f3 <transparent_crc>
   1af89:	8b 05 35 67 00 00    	mov    0x6735(%rip),%eax        # 216c4 <g_2519>
   1af8f:	89 c1                	mov    %eax,%ecx
   1af91:	8b 45 fc             	mov    -0x4(%rbp),%eax
   1af94:	89 c2                	mov    %eax,%edx
   1af96:	48 8d 35 55 2b 00 00 	lea    0x2b55(%rip),%rsi        # 1daf2 <g_1542+0x1a95>
   1af9d:	48 89 cf             	mov    %rcx,%rdi
   1afa0:	e8 4e 07 ff ff       	callq  b6f3 <transparent_crc>
   1afa5:	8b 05 1d 67 00 00    	mov    0x671d(%rip),%eax        # 216c8 <g_2774>
   1afab:	48 98                	cltq   
   1afad:	8b 55 fc             	mov    -0x4(%rbp),%edx
   1afb0:	48 8d 35 42 2b 00 00 	lea    0x2b42(%rip),%rsi        # 1daf9 <g_1542+0x1a9c>
   1afb7:	48 89 c7             	mov    %rax,%rdi
   1afba:	e8 34 07 ff ff       	callq  b6f3 <transparent_crc>
   1afbf:	c7 45 f0 00 00 00 00 	movl   $0x0,-0x10(%rbp)
   1afc6:	eb 4d                	jmp    1b015 <main+0xa00>
   1afc8:	8b 45 f0             	mov    -0x10(%rbp),%eax
   1afcb:	48 98                	cltq   
   1afcd:	48 8d 14 85 00 00 00 	lea    0x0(,%rax,4),%rdx
   1afd4:	00 
   1afd5:	48 8d 05 f4 66 00 00 	lea    0x66f4(%rip),%rax        # 216d0 <g_2864>
   1afdc:	8b 04 02             	mov    (%rdx,%rax,1),%eax
   1afdf:	89 c1                	mov    %eax,%ecx
   1afe1:	8b 45 fc             	mov    -0x4(%rbp),%eax
   1afe4:	89 c2                	mov    %eax,%edx
   1afe6:	48 8d 35 13 2b 00 00 	lea    0x2b13(%rip),%rsi        # 1db00 <g_1542+0x1aa3>
   1afed:	48 89 cf             	mov    %rcx,%rdi
   1aff0:	e8 fe 06 ff ff       	callq  b6f3 <transparent_crc>
   1aff5:	83 7d fc 00          	cmpl   $0x0,-0x4(%rbp)
   1aff9:	74 16                	je     1b011 <main+0x9fc>
   1affb:	8b 45 f0             	mov    -0x10(%rbp),%eax
   1affe:	89 c6                	mov    %eax,%esi
   1b000:	48 8d 3d 76 29 00 00 	lea    0x2976(%rip),%rdi        # 1d97d <g_1542+0x1920>
   1b007:	b8 00 00 00 00       	mov    $0x0,%eax
   1b00c:	e8 6f f0 fe ff       	callq  a080 <printf@plt>
   1b011:	83 45 f0 01          	addl   $0x1,-0x10(%rbp)
   1b015:	83 7d f0 03          	cmpl   $0x3,-0x10(%rbp)
   1b019:	7e ad                	jle    1afc8 <main+0x9b3>
   1b01b:	8b 05 bf 66 00 00    	mov    0x66bf(%rip),%eax        # 216e0 <g_2884>
   1b021:	48 98                	cltq   
   1b023:	8b 55 fc             	mov    -0x4(%rbp),%edx
   1b026:	48 8d 35 dd 2a 00 00 	lea    0x2add(%rip),%rsi        # 1db0a <g_1542+0x1aad>
   1b02d:	48 89 c7             	mov    %rax,%rdi
   1b030:	e8 be 06 ff ff       	callq  b6f3 <transparent_crc>
   1b035:	0f b7 05 a8 66 00 00 	movzwl 0x66a8(%rip),%eax        # 216e4 <g_2939>
   1b03c:	0f b7 c0             	movzwl %ax,%eax
   1b03f:	8b 55 fc             	mov    -0x4(%rbp),%edx
   1b042:	48 8d 35 c8 2a 00 00 	lea    0x2ac8(%rip),%rsi        # 1db11 <g_1542+0x1ab4>
   1b049:	48 89 c7             	mov    %rax,%rdi
   1b04c:	e8 a2 06 ff ff       	callq  b6f3 <transparent_crc>
   1b051:	c7 45 f0 00 00 00 00 	movl   $0x0,-0x10(%rbp)
   1b058:	eb 49                	jmp    1b0a3 <main+0xa8e>
   1b05a:	8b 45 f0             	mov    -0x10(%rbp),%eax
   1b05d:	48 98                	cltq   
   1b05f:	48 8d 14 00          	lea    (%rax,%rax,1),%rdx
   1b063:	48 8d 05 7e 66 00 00 	lea    0x667e(%rip),%rax        # 216e8 <g_3013>
   1b06a:	0f b7 04 02          	movzwl (%rdx,%rax,1),%eax
   1b06e:	0f b7 c0             	movzwl %ax,%eax
   1b071:	8b 55 fc             	mov    -0x4(%rbp),%edx
   1b074:	48 8d 35 9d 2a 00 00 	lea    0x2a9d(%rip),%rsi        # 1db18 <g_1542+0x1abb>
   1b07b:	48 89 c7             	mov    %rax,%rdi
   1b07e:	e8 70 06 ff ff       	callq  b6f3 <transparent_crc>
   1b083:	83 7d fc 00          	cmpl   $0x0,-0x4(%rbp)
   1b087:	74 16                	je     1b09f <main+0xa8a>
   1b089:	8b 45 f0             	mov    -0x10(%rbp),%eax
   1b08c:	89 c6                	mov    %eax,%esi
   1b08e:	48 8d 3d e8 28 00 00 	lea    0x28e8(%rip),%rdi        # 1d97d <g_1542+0x1920>
   1b095:	b8 00 00 00 00       	mov    $0x0,%eax
   1b09a:	e8 e1 ef fe ff       	callq  a080 <printf@plt>
   1b09f:	83 45 f0 01          	addl   $0x1,-0x10(%rbp)
   1b0a3:	83 7d f0 05          	cmpl   $0x5,-0x10(%rbp)
   1b0a7:	7e b1                	jle    1b05a <main+0xa45>
   1b0a9:	0f b7 05 44 66 00 00 	movzwl 0x6644(%rip),%eax        # 216f4 <g_3040>
   1b0b0:	0f b7 c0             	movzwl %ax,%eax
   1b0b3:	8b 55 fc             	mov    -0x4(%rbp),%edx
   1b0b6:	48 8d 35 65 2a 00 00 	lea    0x2a65(%rip),%rsi        # 1db22 <g_1542+0x1ac5>
   1b0bd:	48 89 c7             	mov    %rax,%rdi
   1b0c0:	e8 2e 06 ff ff       	callq  b6f3 <transparent_crc>
   1b0c5:	8b 05 55 5f 00 00    	mov    0x5f55(%rip),%eax        # 21020 <crc32_context>
   1b0cb:	f7 d0                	not    %eax
   1b0cd:	89 c2                	mov    %eax,%edx
   1b0cf:	8b 45 fc             	mov    -0x4(%rbp),%eax
   1b0d2:	89 c6                	mov    %eax,%esi
   1b0d4:	89 d7                	mov    %edx,%edi
   1b0d6:	e8 b9 f0 fe ff       	callq  a194 <platform_main_end>
   1b0db:	b8 00 00 00 00       	mov    $0x0,%eax
   1b0e0:	c9                   	leaveq 
   1b0e1:	c3                   	retq   
   1b0e2:	66 2e 0f 1f 84 00 00 	nopw   %cs:0x0(%rax,%rax,1)
   1b0e9:	00 00 00 
   1b0ec:	0f 1f 40 00          	nopl   0x0(%rax)

000000000001b0f0 <__libc_csu_init>:
   1b0f0:	f3 0f 1e fa          	endbr64 
   1b0f4:	41 57                	push   %r15
   1b0f6:	4c 8d 3d b3 51 00 00 	lea    0x51b3(%rip),%r15        # 202b0 <__frame_dummy_init_array_entry>
   1b0fd:	41 56                	push   %r14
   1b0ff:	49 89 d6             	mov    %rdx,%r14
   1b102:	41 55                	push   %r13
   1b104:	49 89 f5             	mov    %rsi,%r13
   1b107:	41 54                	push   %r12
   1b109:	41 89 fc             	mov    %edi,%r12d
   1b10c:	55                   	push   %rbp
   1b10d:	48 8d 2d a4 51 00 00 	lea    0x51a4(%rip),%rbp        # 202b8 <__do_global_dtors_aux_fini_array_entry>
   1b114:	53                   	push   %rbx
   1b115:	4c 29 fd             	sub    %r15,%rbp
   1b118:	48 83 ec 08          	sub    $0x8,%rsp
   1b11c:	e8 df ee fe ff       	callq  a000 <_init>
   1b121:	48 c1 fd 03          	sar    $0x3,%rbp
   1b125:	74 1f                	je     1b146 <__libc_csu_init+0x56>
   1b127:	31 db                	xor    %ebx,%ebx
   1b129:	0f 1f 80 00 00 00 00 	nopl   0x0(%rax)
   1b130:	4c 89 f2             	mov    %r14,%rdx
   1b133:	4c 89 ee             	mov    %r13,%rsi
   1b136:	44 89 e7             	mov    %r12d,%edi
   1b139:	41 ff 14 df          	callq  *(%r15,%rbx,8)
   1b13d:	48 83 c3 01          	add    $0x1,%rbx
   1b141:	48 39 dd             	cmp    %rbx,%rbp
   1b144:	75 ea                	jne    1b130 <__libc_csu_init+0x40>
   1b146:	48 83 c4 08          	add    $0x8,%rsp
   1b14a:	5b                   	pop    %rbx
   1b14b:	5d                   	pop    %rbp
   1b14c:	41 5c                	pop    %r12
   1b14e:	41 5d                	pop    %r13
   1b150:	41 5e                	pop    %r14
   1b152:	41 5f                	pop    %r15
   1b154:	c3                   	retq   
   1b155:	66 66 2e 0f 1f 84 00 	data16 nopw %cs:0x0(%rax,%rax,1)
   1b15c:	00 00 00 00 

000000000001b160 <__libc_csu_fini>:
   1b160:	f3 0f 1e fa          	endbr64 
   1b164:	c3                   	retq   
