


Disassembly of section .text:

00000000000060a0 <_start>:
    60a0:	f3 0f 1e fa          	endbr64 
    60a4:	31 ed                	xor    %ebp,%ebp
    60a6:	49 89 d1             	mov    %rdx,%r9
    60a9:	5e                   	pop    %rsi
    60aa:	48 89 e2             	mov    %rsp,%rdx
    60ad:	48 83 e4 f0          	and    $0xfffffffffffffff0,%rsp
    60b1:	50                   	push   %rax
    60b2:	54                   	push   %rsp
    60b3:	4c 8d 05 96 36 01 00 	lea    0x13696(%rip),%r8        # 19750 <__libc_csu_fini>
    60ba:	48 8d 0d 1f 36 01 00 	lea    0x1361f(%rip),%rcx        # 196e0 <__libc_csu_init>
    60c1:	48 8d 3d a7 f6 00 00 	lea    0xf6a7(%rip),%rdi        # 1576f <main>
    60c8:	ff 15 12 9f 01 00    	callq  *0x19f12(%rip)        # 1ffe0 <__libc_start_main@GLIBC_2.2.5>
    60ce:	f4                   	hlt    
    60cf:	90                   	nop

00000000000060d0 <deregister_tm_clones>:
    60d0:	48 8d 3d a9 14 02 00 	lea    0x214a9(%rip),%rdi        # 27580 <__TMC_END__>
    60d7:	48 8d 05 a2 14 02 00 	lea    0x214a2(%rip),%rax        # 27580 <__TMC_END__>
    60de:	48 39 f8             	cmp    %rdi,%rax
    60e1:	74 15                	je     60f8 <deregister_tm_clones+0x28>
    60e3:	48 8b 05 ee 9e 01 00 	mov    0x19eee(%rip),%rax        # 1ffd8 <_ITM_deregisterTMCloneTable>
    60ea:	48 85 c0             	test   %rax,%rax
    60ed:	74 09                	je     60f8 <deregister_tm_clones+0x28>
    60ef:	ff e0                	jmpq   *%rax
    60f1:	0f 1f 80 00 00 00 00 	nopl   0x0(%rax)
    60f8:	c3                   	retq   
    60f9:	0f 1f 80 00 00 00 00 	nopl   0x0(%rax)

0000000000006100 <register_tm_clones>:
    6100:	48 8d 3d 79 14 02 00 	lea    0x21479(%rip),%rdi        # 27580 <__TMC_END__>
    6107:	48 8d 35 72 14 02 00 	lea    0x21472(%rip),%rsi        # 27580 <__TMC_END__>
    610e:	48 29 fe             	sub    %rdi,%rsi
    6111:	48 89 f0             	mov    %rsi,%rax
    6114:	48 c1 ee 3f          	shr    $0x3f,%rsi
    6118:	48 c1 f8 03          	sar    $0x3,%rax
    611c:	48 01 c6             	add    %rax,%rsi
    611f:	48 d1 fe             	sar    %rsi
    6122:	74 14                	je     6138 <register_tm_clones+0x38>
    6124:	48 8b 05 c5 9e 01 00 	mov    0x19ec5(%rip),%rax        # 1fff0 <_ITM_registerTMCloneTable>
    612b:	48 85 c0             	test   %rax,%rax
    612e:	74 08                	je     6138 <register_tm_clones+0x38>
    6130:	ff e0                	jmpq   *%rax
    6132:	66 0f 1f 44 00 00    	nopw   0x0(%rax,%rax,1)
    6138:	c3                   	retq   
    6139:	0f 1f 80 00 00 00 00 	nopl   0x0(%rax)

0000000000006140 <__do_global_dtors_aux>:
    6140:	f3 0f 1e fa          	endbr64 
    6144:	80 3d 35 14 02 00 00 	cmpb   $0x0,0x21435(%rip)        # 27580 <__TMC_END__>
    614b:	75 2b                	jne    6178 <__do_global_dtors_aux+0x38>
    614d:	55                   	push   %rbp
    614e:	48 83 3d a2 9e 01 00 	cmpq   $0x0,0x19ea2(%rip)        # 1fff8 <__cxa_finalize@GLIBC_2.2.5>
    6155:	00 
    6156:	48 89 e5             	mov    %rsp,%rbp
    6159:	74 0c                	je     6167 <__do_global_dtors_aux+0x27>
    615b:	48 8b 3d a6 9e 01 00 	mov    0x19ea6(%rip),%rdi        # 20008 <__dso_handle>
    6162:	e8 f9 fe ff ff       	callq  6060 <__cxa_finalize@plt>
    6167:	e8 64 ff ff ff       	callq  60d0 <deregister_tm_clones>
    616c:	c6 05 0d 14 02 00 01 	movb   $0x1,0x2140d(%rip)        # 27580 <__TMC_END__>
    6173:	5d                   	pop    %rbp
    6174:	c3                   	retq   
    6175:	0f 1f 00             	nopl   (%rax)
    6178:	c3                   	retq   
    6179:	0f 1f 80 00 00 00 00 	nopl   0x0(%rax)

0000000000006180 <frame_dummy>:
    6180:	f3 0f 1e fa          	endbr64 
    6184:	e9 77 ff ff ff       	jmpq   6100 <register_tm_clones>

0000000000006189 <platform_main_begin>:
    6189:	f3 0f 1e fa          	endbr64 
    618d:	55                   	push   %rbp
    618e:	48 89 e5             	mov    %rsp,%rbp
    6191:	90                   	nop
    6192:	5d                   	pop    %rbp
    6193:	c3                   	retq   

0000000000006194 <platform_main_end>:
    6194:	f3 0f 1e fa          	endbr64 
    6198:	55                   	push   %rbp
    6199:	48 89 e5             	mov    %rsp,%rbp
    619c:	48 83 ec 10          	sub    $0x10,%rsp
    61a0:	89 7d fc             	mov    %edi,-0x4(%rbp)
    61a3:	89 75 f8             	mov    %esi,-0x8(%rbp)
    61a6:	8b 45 fc             	mov    -0x4(%rbp),%eax
    61a9:	89 c6                	mov    %eax,%esi
    61ab:	48 8d 3d 6e 3e 01 00 	lea    0x13e6e(%rip),%rdi        # 1a020 <_IO_stdin_used+0x20>
    61b2:	b8 00 00 00 00       	mov    $0x0,%eax
    61b7:	e8 c4 fe ff ff       	callq  6080 <printf@plt>
    61bc:	90                   	nop
    61bd:	c9                   	leaveq 
    61be:	c3                   	retq   

00000000000061bf <safe_unary_minus_func_int8_t_s>:
    61bf:	f3 0f 1e fa          	endbr64 
    61c3:	55                   	push   %rbp
    61c4:	48 89 e5             	mov    %rsp,%rbp
    61c7:	89 f8                	mov    %edi,%eax
    61c9:	88 45 fc             	mov    %al,-0x4(%rbp)
    61cc:	0f b6 45 fc          	movzbl -0x4(%rbp),%eax
    61d0:	f7 d8                	neg    %eax
    61d2:	5d                   	pop    %rbp
    61d3:	c3                   	retq   

00000000000061d4 <safe_add_func_int8_t_s_s>:
    61d4:	f3 0f 1e fa          	endbr64 
    61d8:	55                   	push   %rbp
    61d9:	48 89 e5             	mov    %rsp,%rbp
    61dc:	89 fa                	mov    %edi,%edx
    61de:	89 f0                	mov    %esi,%eax
    61e0:	88 55 fc             	mov    %dl,-0x4(%rbp)
    61e3:	88 45 f8             	mov    %al,-0x8(%rbp)
    61e6:	0f b6 55 fc          	movzbl -0x4(%rbp),%edx
    61ea:	0f b6 45 f8          	movzbl -0x8(%rbp),%eax
    61ee:	01 d0                	add    %edx,%eax
    61f0:	5d                   	pop    %rbp
    61f1:	c3                   	retq   

00000000000061f2 <safe_sub_func_int8_t_s_s>:
    61f2:	f3 0f 1e fa          	endbr64 
    61f6:	55                   	push   %rbp
    61f7:	48 89 e5             	mov    %rsp,%rbp
    61fa:	89 fa                	mov    %edi,%edx
    61fc:	89 f0                	mov    %esi,%eax
    61fe:	88 55 fc             	mov    %dl,-0x4(%rbp)
    6201:	88 45 f8             	mov    %al,-0x8(%rbp)
    6204:	0f b6 55 fc          	movzbl -0x4(%rbp),%edx
    6208:	0f b6 45 f8          	movzbl -0x8(%rbp),%eax
    620c:	29 c2                	sub    %eax,%edx
    620e:	89 d0                	mov    %edx,%eax
    6210:	5d                   	pop    %rbp
    6211:	c3                   	retq   

0000000000006212 <safe_mul_func_int8_t_s_s>:
    6212:	f3 0f 1e fa          	endbr64 
    6216:	55                   	push   %rbp
    6217:	48 89 e5             	mov    %rsp,%rbp
    621a:	89 fa                	mov    %edi,%edx
    621c:	89 f0                	mov    %esi,%eax
    621e:	88 55 fc             	mov    %dl,-0x4(%rbp)
    6221:	88 45 f8             	mov    %al,-0x8(%rbp)
    6224:	0f b6 45 fc          	movzbl -0x4(%rbp),%eax
    6228:	0f b6 55 f8          	movzbl -0x8(%rbp),%edx
    622c:	0f af c2             	imul   %edx,%eax
    622f:	5d                   	pop    %rbp
    6230:	c3                   	retq   

0000000000006231 <safe_mod_func_int8_t_s_s>:
    6231:	f3 0f 1e fa          	endbr64 
    6235:	55                   	push   %rbp
    6236:	48 89 e5             	mov    %rsp,%rbp
    6239:	89 fa                	mov    %edi,%edx
    623b:	89 f0                	mov    %esi,%eax
    623d:	88 55 fc             	mov    %dl,-0x4(%rbp)
    6240:	88 45 f8             	mov    %al,-0x8(%rbp)
    6243:	80 7d f8 00          	cmpb   $0x0,-0x8(%rbp)
    6247:	74 1b                	je     6264 <safe_mod_func_int8_t_s_s+0x33>
    6249:	80 7d fc 80          	cmpb   $0x80,-0x4(%rbp)
    624d:	75 06                	jne    6255 <safe_mod_func_int8_t_s_s+0x24>
    624f:	80 7d f8 ff          	cmpb   $0xff,-0x8(%rbp)
    6253:	74 0f                	je     6264 <safe_mod_func_int8_t_s_s+0x33>
    6255:	0f be 45 fc          	movsbl -0x4(%rbp),%eax
    6259:	0f be 4d f8          	movsbl -0x8(%rbp),%ecx
    625d:	99                   	cltd   
    625e:	f7 f9                	idiv   %ecx
    6260:	89 d0                	mov    %edx,%eax
    6262:	eb 04                	jmp    6268 <safe_mod_func_int8_t_s_s+0x37>
    6264:	0f b6 45 fc          	movzbl -0x4(%rbp),%eax
    6268:	5d                   	pop    %rbp
    6269:	c3                   	retq   

000000000000626a <safe_div_func_int8_t_s_s>:
    626a:	f3 0f 1e fa          	endbr64 
    626e:	55                   	push   %rbp
    626f:	48 89 e5             	mov    %rsp,%rbp
    6272:	89 fa                	mov    %edi,%edx
    6274:	89 f0                	mov    %esi,%eax
    6276:	88 55 fc             	mov    %dl,-0x4(%rbp)
    6279:	88 45 f8             	mov    %al,-0x8(%rbp)
    627c:	80 7d f8 00          	cmpb   $0x0,-0x8(%rbp)
    6280:	74 19                	je     629b <safe_div_func_int8_t_s_s+0x31>
    6282:	80 7d fc 80          	cmpb   $0x80,-0x4(%rbp)
    6286:	75 06                	jne    628e <safe_div_func_int8_t_s_s+0x24>
    6288:	80 7d f8 ff          	cmpb   $0xff,-0x8(%rbp)
    628c:	74 0d                	je     629b <safe_div_func_int8_t_s_s+0x31>
    628e:	0f be 45 fc          	movsbl -0x4(%rbp),%eax
    6292:	0f be 4d f8          	movsbl -0x8(%rbp),%ecx
    6296:	99                   	cltd   
    6297:	f7 f9                	idiv   %ecx
    6299:	eb 04                	jmp    629f <safe_div_func_int8_t_s_s+0x35>
    629b:	0f b6 45 fc          	movzbl -0x4(%rbp),%eax
    629f:	5d                   	pop    %rbp
    62a0:	c3                   	retq   

00000000000062a1 <safe_lshift_func_int8_t_s_s>:
    62a1:	f3 0f 1e fa          	endbr64 
    62a5:	55                   	push   %rbp
    62a6:	48 89 e5             	mov    %rsp,%rbp
    62a9:	89 f8                	mov    %edi,%eax
    62ab:	89 75 f8             	mov    %esi,-0x8(%rbp)
    62ae:	88 45 fc             	mov    %al,-0x4(%rbp)
    62b1:	80 7d fc 00          	cmpb   $0x0,-0x4(%rbp)
    62b5:	78 31                	js     62e8 <safe_lshift_func_int8_t_s_s+0x47>
    62b7:	83 7d f8 00          	cmpl   $0x0,-0x8(%rbp)
    62bb:	78 2b                	js     62e8 <safe_lshift_func_int8_t_s_s+0x47>
    62bd:	83 7d f8 1f          	cmpl   $0x1f,-0x8(%rbp)
    62c1:	7f 25                	jg     62e8 <safe_lshift_func_int8_t_s_s+0x47>
    62c3:	0f be 55 fc          	movsbl -0x4(%rbp),%edx
    62c7:	8b 45 f8             	mov    -0x8(%rbp),%eax
    62ca:	be 7f 00 00 00       	mov    $0x7f,%esi
    62cf:	89 c1                	mov    %eax,%ecx
    62d1:	d3 fe                	sar    %cl,%esi
    62d3:	89 f0                	mov    %esi,%eax
    62d5:	39 c2                	cmp    %eax,%edx
    62d7:	7f 0f                	jg     62e8 <safe_lshift_func_int8_t_s_s+0x47>
    62d9:	0f be 55 fc          	movsbl -0x4(%rbp),%edx
    62dd:	8b 45 f8             	mov    -0x8(%rbp),%eax
    62e0:	89 c1                	mov    %eax,%ecx
    62e2:	d3 e2                	shl    %cl,%edx
    62e4:	89 d0                	mov    %edx,%eax
    62e6:	eb 04                	jmp    62ec <safe_lshift_func_int8_t_s_s+0x4b>
    62e8:	0f b6 45 fc          	movzbl -0x4(%rbp),%eax
    62ec:	5d                   	pop    %rbp
    62ed:	c3                   	retq   

00000000000062ee <safe_lshift_func_int8_t_s_u>:
    62ee:	f3 0f 1e fa          	endbr64 
    62f2:	55                   	push   %rbp
    62f3:	48 89 e5             	mov    %rsp,%rbp
    62f6:	89 f8                	mov    %edi,%eax
    62f8:	89 75 f8             	mov    %esi,-0x8(%rbp)
    62fb:	88 45 fc             	mov    %al,-0x4(%rbp)
    62fe:	80 7d fc 00          	cmpb   $0x0,-0x4(%rbp)
    6302:	78 2b                	js     632f <safe_lshift_func_int8_t_s_u+0x41>
    6304:	83 7d f8 1f          	cmpl   $0x1f,-0x8(%rbp)
    6308:	77 25                	ja     632f <safe_lshift_func_int8_t_s_u+0x41>
    630a:	0f be 55 fc          	movsbl -0x4(%rbp),%edx
    630e:	8b 45 f8             	mov    -0x8(%rbp),%eax
    6311:	be 7f 00 00 00       	mov    $0x7f,%esi
    6316:	89 c1                	mov    %eax,%ecx
    6318:	d3 fe                	sar    %cl,%esi
    631a:	89 f0                	mov    %esi,%eax
    631c:	39 c2                	cmp    %eax,%edx
    631e:	7f 0f                	jg     632f <safe_lshift_func_int8_t_s_u+0x41>
    6320:	0f be 55 fc          	movsbl -0x4(%rbp),%edx
    6324:	8b 45 f8             	mov    -0x8(%rbp),%eax
    6327:	89 c1                	mov    %eax,%ecx
    6329:	d3 e2                	shl    %cl,%edx
    632b:	89 d0                	mov    %edx,%eax
    632d:	eb 04                	jmp    6333 <safe_lshift_func_int8_t_s_u+0x45>
    632f:	0f b6 45 fc          	movzbl -0x4(%rbp),%eax
    6333:	5d                   	pop    %rbp
    6334:	c3                   	retq   

0000000000006335 <safe_rshift_func_int8_t_s_s>:
    6335:	f3 0f 1e fa          	endbr64 
    6339:	55                   	push   %rbp
    633a:	48 89 e5             	mov    %rsp,%rbp
    633d:	89 f8                	mov    %edi,%eax
    633f:	89 75 f8             	mov    %esi,-0x8(%rbp)
    6342:	88 45 fc             	mov    %al,-0x4(%rbp)
    6345:	80 7d fc 00          	cmpb   $0x0,-0x4(%rbp)
    6349:	78 1b                	js     6366 <safe_rshift_func_int8_t_s_s+0x31>
    634b:	83 7d f8 00          	cmpl   $0x0,-0x8(%rbp)
    634f:	78 15                	js     6366 <safe_rshift_func_int8_t_s_s+0x31>
    6351:	83 7d f8 1f          	cmpl   $0x1f,-0x8(%rbp)
    6355:	7f 0f                	jg     6366 <safe_rshift_func_int8_t_s_s+0x31>
    6357:	0f be 55 fc          	movsbl -0x4(%rbp),%edx
    635b:	8b 45 f8             	mov    -0x8(%rbp),%eax
    635e:	89 c1                	mov    %eax,%ecx
    6360:	d3 fa                	sar    %cl,%edx
    6362:	89 d0                	mov    %edx,%eax
    6364:	eb 04                	jmp    636a <safe_rshift_func_int8_t_s_s+0x35>
    6366:	0f b6 45 fc          	movzbl -0x4(%rbp),%eax
    636a:	5d                   	pop    %rbp
    636b:	c3                   	retq   

000000000000636c <safe_rshift_func_int8_t_s_u>:
    636c:	f3 0f 1e fa          	endbr64 
    6370:	55                   	push   %rbp
    6371:	48 89 e5             	mov    %rsp,%rbp
    6374:	89 f8                	mov    %edi,%eax
    6376:	89 75 f8             	mov    %esi,-0x8(%rbp)
    6379:	88 45 fc             	mov    %al,-0x4(%rbp)
    637c:	80 7d fc 00          	cmpb   $0x0,-0x4(%rbp)
    6380:	78 15                	js     6397 <safe_rshift_func_int8_t_s_u+0x2b>
    6382:	83 7d f8 1f          	cmpl   $0x1f,-0x8(%rbp)
    6386:	77 0f                	ja     6397 <safe_rshift_func_int8_t_s_u+0x2b>
    6388:	0f be 55 fc          	movsbl -0x4(%rbp),%edx
    638c:	8b 45 f8             	mov    -0x8(%rbp),%eax
    638f:	89 c1                	mov    %eax,%ecx
    6391:	d3 fa                	sar    %cl,%edx
    6393:	89 d0                	mov    %edx,%eax
    6395:	eb 04                	jmp    639b <safe_rshift_func_int8_t_s_u+0x2f>
    6397:	0f b6 45 fc          	movzbl -0x4(%rbp),%eax
    639b:	5d                   	pop    %rbp
    639c:	c3                   	retq   

000000000000639d <safe_unary_minus_func_int16_t_s>:
    639d:	f3 0f 1e fa          	endbr64 
    63a1:	55                   	push   %rbp
    63a2:	48 89 e5             	mov    %rsp,%rbp
    63a5:	89 f8                	mov    %edi,%eax
    63a7:	66 89 45 fc          	mov    %ax,-0x4(%rbp)
    63ab:	0f b7 45 fc          	movzwl -0x4(%rbp),%eax
    63af:	f7 d8                	neg    %eax
    63b1:	5d                   	pop    %rbp
    63b2:	c3                   	retq   

00000000000063b3 <safe_add_func_int16_t_s_s>:
    63b3:	f3 0f 1e fa          	endbr64 
    63b7:	55                   	push   %rbp
    63b8:	48 89 e5             	mov    %rsp,%rbp
    63bb:	89 fa                	mov    %edi,%edx
    63bd:	89 f0                	mov    %esi,%eax
    63bf:	66 89 55 fc          	mov    %dx,-0x4(%rbp)
    63c3:	66 89 45 f8          	mov    %ax,-0x8(%rbp)
    63c7:	0f b7 55 fc          	movzwl -0x4(%rbp),%edx
    63cb:	0f b7 45 f8          	movzwl -0x8(%rbp),%eax
    63cf:	01 d0                	add    %edx,%eax
    63d1:	5d                   	pop    %rbp
    63d2:	c3                   	retq   

00000000000063d3 <safe_sub_func_int16_t_s_s>:
    63d3:	f3 0f 1e fa          	endbr64 
    63d7:	55                   	push   %rbp
    63d8:	48 89 e5             	mov    %rsp,%rbp
    63db:	89 fa                	mov    %edi,%edx
    63dd:	89 f0                	mov    %esi,%eax
    63df:	66 89 55 fc          	mov    %dx,-0x4(%rbp)
    63e3:	66 89 45 f8          	mov    %ax,-0x8(%rbp)
    63e7:	0f b7 55 fc          	movzwl -0x4(%rbp),%edx
    63eb:	0f b7 45 f8          	movzwl -0x8(%rbp),%eax
    63ef:	29 c2                	sub    %eax,%edx
    63f1:	89 d0                	mov    %edx,%eax
    63f3:	5d                   	pop    %rbp
    63f4:	c3                   	retq   

00000000000063f5 <safe_mul_func_int16_t_s_s>:
    63f5:	f3 0f 1e fa          	endbr64 
    63f9:	55                   	push   %rbp
    63fa:	48 89 e5             	mov    %rsp,%rbp
    63fd:	89 fa                	mov    %edi,%edx
    63ff:	89 f0                	mov    %esi,%eax
    6401:	66 89 55 fc          	mov    %dx,-0x4(%rbp)
    6405:	66 89 45 f8          	mov    %ax,-0x8(%rbp)
    6409:	0f b7 55 fc          	movzwl -0x4(%rbp),%edx
    640d:	0f b7 45 f8          	movzwl -0x8(%rbp),%eax
    6411:	0f af c2             	imul   %edx,%eax
    6414:	5d                   	pop    %rbp
    6415:	c3                   	retq   

0000000000006416 <safe_mod_func_int16_t_s_s>:
    6416:	f3 0f 1e fa          	endbr64 
    641a:	55                   	push   %rbp
    641b:	48 89 e5             	mov    %rsp,%rbp
    641e:	89 fa                	mov    %edi,%edx
    6420:	89 f0                	mov    %esi,%eax
    6422:	66 89 55 fc          	mov    %dx,-0x4(%rbp)
    6426:	66 89 45 f8          	mov    %ax,-0x8(%rbp)
    642a:	66 83 7d f8 00       	cmpw   $0x0,-0x8(%rbp)
    642f:	74 1e                	je     644f <safe_mod_func_int16_t_s_s+0x39>
    6431:	66 81 7d fc 00 80    	cmpw   $0x8000,-0x4(%rbp)
    6437:	75 07                	jne    6440 <safe_mod_func_int16_t_s_s+0x2a>
    6439:	66 83 7d f8 ff       	cmpw   $0xffff,-0x8(%rbp)
    643e:	74 0f                	je     644f <safe_mod_func_int16_t_s_s+0x39>
    6440:	0f bf 45 fc          	movswl -0x4(%rbp),%eax
    6444:	0f bf 4d f8          	movswl -0x8(%rbp),%ecx
    6448:	99                   	cltd   
    6449:	f7 f9                	idiv   %ecx
    644b:	89 d0                	mov    %edx,%eax
    644d:	eb 04                	jmp    6453 <safe_mod_func_int16_t_s_s+0x3d>
    644f:	0f b7 45 fc          	movzwl -0x4(%rbp),%eax
    6453:	5d                   	pop    %rbp
    6454:	c3                   	retq   

0000000000006455 <safe_div_func_int16_t_s_s>:
    6455:	f3 0f 1e fa          	endbr64 
    6459:	55                   	push   %rbp
    645a:	48 89 e5             	mov    %rsp,%rbp
    645d:	89 fa                	mov    %edi,%edx
    645f:	89 f0                	mov    %esi,%eax
    6461:	66 89 55 fc          	mov    %dx,-0x4(%rbp)
    6465:	66 89 45 f8          	mov    %ax,-0x8(%rbp)
    6469:	66 83 7d f8 00       	cmpw   $0x0,-0x8(%rbp)
    646e:	74 1c                	je     648c <safe_div_func_int16_t_s_s+0x37>
    6470:	66 81 7d fc 00 80    	cmpw   $0x8000,-0x4(%rbp)
    6476:	75 07                	jne    647f <safe_div_func_int16_t_s_s+0x2a>
    6478:	66 83 7d f8 ff       	cmpw   $0xffff,-0x8(%rbp)
    647d:	74 0d                	je     648c <safe_div_func_int16_t_s_s+0x37>
    647f:	0f bf 45 fc          	movswl -0x4(%rbp),%eax
    6483:	0f bf 4d f8          	movswl -0x8(%rbp),%ecx
    6487:	99                   	cltd   
    6488:	f7 f9                	idiv   %ecx
    648a:	eb 04                	jmp    6490 <safe_div_func_int16_t_s_s+0x3b>
    648c:	0f b7 45 fc          	movzwl -0x4(%rbp),%eax
    6490:	5d                   	pop    %rbp
    6491:	c3                   	retq   

0000000000006492 <safe_lshift_func_int16_t_s_s>:
    6492:	f3 0f 1e fa          	endbr64 
    6496:	55                   	push   %rbp
    6497:	48 89 e5             	mov    %rsp,%rbp
    649a:	89 f8                	mov    %edi,%eax
    649c:	89 75 f8             	mov    %esi,-0x8(%rbp)
    649f:	66 89 45 fc          	mov    %ax,-0x4(%rbp)
    64a3:	66 83 7d fc 00       	cmpw   $0x0,-0x4(%rbp)
    64a8:	78 31                	js     64db <safe_lshift_func_int16_t_s_s+0x49>
    64aa:	83 7d f8 00          	cmpl   $0x0,-0x8(%rbp)
    64ae:	78 2b                	js     64db <safe_lshift_func_int16_t_s_s+0x49>
    64b0:	83 7d f8 1f          	cmpl   $0x1f,-0x8(%rbp)
    64b4:	7f 25                	jg     64db <safe_lshift_func_int16_t_s_s+0x49>
    64b6:	0f bf 55 fc          	movswl -0x4(%rbp),%edx
    64ba:	8b 45 f8             	mov    -0x8(%rbp),%eax
    64bd:	be ff 7f 00 00       	mov    $0x7fff,%esi
    64c2:	89 c1                	mov    %eax,%ecx
    64c4:	d3 fe                	sar    %cl,%esi
    64c6:	89 f0                	mov    %esi,%eax
    64c8:	39 c2                	cmp    %eax,%edx
    64ca:	7f 0f                	jg     64db <safe_lshift_func_int16_t_s_s+0x49>
    64cc:	0f bf 55 fc          	movswl -0x4(%rbp),%edx
    64d0:	8b 45 f8             	mov    -0x8(%rbp),%eax
    64d3:	89 c1                	mov    %eax,%ecx
    64d5:	d3 e2                	shl    %cl,%edx
    64d7:	89 d0                	mov    %edx,%eax
    64d9:	eb 04                	jmp    64df <safe_lshift_func_int16_t_s_s+0x4d>
    64db:	0f b7 45 fc          	movzwl -0x4(%rbp),%eax
    64df:	5d                   	pop    %rbp
    64e0:	c3                   	retq   

00000000000064e1 <safe_lshift_func_int16_t_s_u>:
    64e1:	f3 0f 1e fa          	endbr64 
    64e5:	55                   	push   %rbp
    64e6:	48 89 e5             	mov    %rsp,%rbp
    64e9:	89 f8                	mov    %edi,%eax
    64eb:	89 75 f8             	mov    %esi,-0x8(%rbp)
    64ee:	66 89 45 fc          	mov    %ax,-0x4(%rbp)
    64f2:	66 83 7d fc 00       	cmpw   $0x0,-0x4(%rbp)
    64f7:	78 2b                	js     6524 <safe_lshift_func_int16_t_s_u+0x43>
    64f9:	83 7d f8 1f          	cmpl   $0x1f,-0x8(%rbp)
    64fd:	77 25                	ja     6524 <safe_lshift_func_int16_t_s_u+0x43>
    64ff:	0f bf 55 fc          	movswl -0x4(%rbp),%edx
    6503:	8b 45 f8             	mov    -0x8(%rbp),%eax
    6506:	be ff 7f 00 00       	mov    $0x7fff,%esi
    650b:	89 c1                	mov    %eax,%ecx
    650d:	d3 fe                	sar    %cl,%esi
    650f:	89 f0                	mov    %esi,%eax
    6511:	39 c2                	cmp    %eax,%edx
    6513:	7f 0f                	jg     6524 <safe_lshift_func_int16_t_s_u+0x43>
    6515:	0f bf 55 fc          	movswl -0x4(%rbp),%edx
    6519:	8b 45 f8             	mov    -0x8(%rbp),%eax
    651c:	89 c1                	mov    %eax,%ecx
    651e:	d3 e2                	shl    %cl,%edx
    6520:	89 d0                	mov    %edx,%eax
    6522:	eb 04                	jmp    6528 <safe_lshift_func_int16_t_s_u+0x47>
    6524:	0f b7 45 fc          	movzwl -0x4(%rbp),%eax
    6528:	5d                   	pop    %rbp
    6529:	c3                   	retq   

000000000000652a <safe_rshift_func_int16_t_s_s>:
    652a:	f3 0f 1e fa          	endbr64 
    652e:	55                   	push   %rbp
    652f:	48 89 e5             	mov    %rsp,%rbp
    6532:	89 f8                	mov    %edi,%eax
    6534:	89 75 f8             	mov    %esi,-0x8(%rbp)
    6537:	66 89 45 fc          	mov    %ax,-0x4(%rbp)
    653b:	66 83 7d fc 00       	cmpw   $0x0,-0x4(%rbp)
    6540:	78 1b                	js     655d <safe_rshift_func_int16_t_s_s+0x33>
    6542:	83 7d f8 00          	cmpl   $0x0,-0x8(%rbp)
    6546:	78 15                	js     655d <safe_rshift_func_int16_t_s_s+0x33>
    6548:	83 7d f8 1f          	cmpl   $0x1f,-0x8(%rbp)
    654c:	7f 0f                	jg     655d <safe_rshift_func_int16_t_s_s+0x33>
    654e:	0f bf 55 fc          	movswl -0x4(%rbp),%edx
    6552:	8b 45 f8             	mov    -0x8(%rbp),%eax
    6555:	89 c1                	mov    %eax,%ecx
    6557:	d3 fa                	sar    %cl,%edx
    6559:	89 d0                	mov    %edx,%eax
    655b:	eb 04                	jmp    6561 <safe_rshift_func_int16_t_s_s+0x37>
    655d:	0f b7 45 fc          	movzwl -0x4(%rbp),%eax
    6561:	5d                   	pop    %rbp
    6562:	c3                   	retq   

0000000000006563 <safe_rshift_func_int16_t_s_u>:
    6563:	f3 0f 1e fa          	endbr64 
    6567:	55                   	push   %rbp
    6568:	48 89 e5             	mov    %rsp,%rbp
    656b:	89 f8                	mov    %edi,%eax
    656d:	89 75 f8             	mov    %esi,-0x8(%rbp)
    6570:	66 89 45 fc          	mov    %ax,-0x4(%rbp)
    6574:	66 83 7d fc 00       	cmpw   $0x0,-0x4(%rbp)
    6579:	78 15                	js     6590 <safe_rshift_func_int16_t_s_u+0x2d>
    657b:	83 7d f8 1f          	cmpl   $0x1f,-0x8(%rbp)
    657f:	77 0f                	ja     6590 <safe_rshift_func_int16_t_s_u+0x2d>
    6581:	0f bf 55 fc          	movswl -0x4(%rbp),%edx
    6585:	8b 45 f8             	mov    -0x8(%rbp),%eax
    6588:	89 c1                	mov    %eax,%ecx
    658a:	d3 fa                	sar    %cl,%edx
    658c:	89 d0                	mov    %edx,%eax
    658e:	eb 04                	jmp    6594 <safe_rshift_func_int16_t_s_u+0x31>
    6590:	0f b7 45 fc          	movzwl -0x4(%rbp),%eax
    6594:	5d                   	pop    %rbp
    6595:	c3                   	retq   

0000000000006596 <safe_unary_minus_func_int32_t_s>:
    6596:	f3 0f 1e fa          	endbr64 
    659a:	55                   	push   %rbp
    659b:	48 89 e5             	mov    %rsp,%rbp
    659e:	89 7d fc             	mov    %edi,-0x4(%rbp)
    65a1:	81 7d fc 00 00 00 80 	cmpl   $0x80000000,-0x4(%rbp)
    65a8:	74 07                	je     65b1 <safe_unary_minus_func_int32_t_s+0x1b>
    65aa:	8b 45 fc             	mov    -0x4(%rbp),%eax
    65ad:	f7 d8                	neg    %eax
    65af:	eb 03                	jmp    65b4 <safe_unary_minus_func_int32_t_s+0x1e>
    65b1:	8b 45 fc             	mov    -0x4(%rbp),%eax
    65b4:	5d                   	pop    %rbp
    65b5:	c3                   	retq   

00000000000065b6 <safe_add_func_int32_t_s_s>:
    65b6:	f3 0f 1e fa          	endbr64 
    65ba:	55                   	push   %rbp
    65bb:	48 89 e5             	mov    %rsp,%rbp
    65be:	89 7d fc             	mov    %edi,-0x4(%rbp)
    65c1:	89 75 f8             	mov    %esi,-0x8(%rbp)
    65c4:	83 7d fc 00          	cmpl   $0x0,-0x4(%rbp)
    65c8:	7e 13                	jle    65dd <safe_add_func_int32_t_s_s+0x27>
    65ca:	83 7d f8 00          	cmpl   $0x0,-0x8(%rbp)
    65ce:	7e 0d                	jle    65dd <safe_add_func_int32_t_s_s+0x27>
    65d0:	b8 ff ff ff 7f       	mov    $0x7fffffff,%eax
    65d5:	2b 45 f8             	sub    -0x8(%rbp),%eax
    65d8:	39 45 fc             	cmp    %eax,-0x4(%rbp)
    65db:	7f 23                	jg     6600 <safe_add_func_int32_t_s_s+0x4a>
    65dd:	83 7d fc 00          	cmpl   $0x0,-0x4(%rbp)
    65e1:	79 13                	jns    65f6 <safe_add_func_int32_t_s_s+0x40>
    65e3:	83 7d f8 00          	cmpl   $0x0,-0x8(%rbp)
    65e7:	79 0d                	jns    65f6 <safe_add_func_int32_t_s_s+0x40>
    65e9:	b8 00 00 00 80       	mov    $0x80000000,%eax
    65ee:	2b 45 f8             	sub    -0x8(%rbp),%eax
    65f1:	39 45 fc             	cmp    %eax,-0x4(%rbp)
    65f4:	7c 0a                	jl     6600 <safe_add_func_int32_t_s_s+0x4a>
    65f6:	8b 55 fc             	mov    -0x4(%rbp),%edx
    65f9:	8b 45 f8             	mov    -0x8(%rbp),%eax
    65fc:	01 d0                	add    %edx,%eax
    65fe:	eb 03                	jmp    6603 <safe_add_func_int32_t_s_s+0x4d>
    6600:	8b 45 fc             	mov    -0x4(%rbp),%eax
    6603:	5d                   	pop    %rbp
    6604:	c3                   	retq   

0000000000006605 <safe_sub_func_int32_t_s_s>:
    6605:	f3 0f 1e fa          	endbr64 
    6609:	55                   	push   %rbp
    660a:	48 89 e5             	mov    %rsp,%rbp
    660d:	89 7d fc             	mov    %edi,-0x4(%rbp)
    6610:	89 75 f8             	mov    %esi,-0x8(%rbp)
    6613:	8b 45 fc             	mov    -0x4(%rbp),%eax
    6616:	33 45 f8             	xor    -0x8(%rbp),%eax
    6619:	89 c2                	mov    %eax,%edx
    661b:	8b 45 fc             	mov    -0x4(%rbp),%eax
    661e:	33 45 f8             	xor    -0x8(%rbp),%eax
    6621:	25 00 00 00 80       	and    $0x80000000,%eax
    6626:	33 45 fc             	xor    -0x4(%rbp),%eax
    6629:	2b 45 f8             	sub    -0x8(%rbp),%eax
    662c:	33 45 f8             	xor    -0x8(%rbp),%eax
    662f:	21 d0                	and    %edx,%eax
    6631:	85 c0                	test   %eax,%eax
    6633:	78 08                	js     663d <safe_sub_func_int32_t_s_s+0x38>
    6635:	8b 45 fc             	mov    -0x4(%rbp),%eax
    6638:	2b 45 f8             	sub    -0x8(%rbp),%eax
    663b:	eb 03                	jmp    6640 <safe_sub_func_int32_t_s_s+0x3b>
    663d:	8b 45 fc             	mov    -0x4(%rbp),%eax
    6640:	5d                   	pop    %rbp
    6641:	c3                   	retq   

0000000000006642 <safe_mul_func_int32_t_s_s>:
    6642:	f3 0f 1e fa          	endbr64 
    6646:	55                   	push   %rbp
    6647:	48 89 e5             	mov    %rsp,%rbp
    664a:	89 7d fc             	mov    %edi,-0x4(%rbp)
    664d:	89 75 f8             	mov    %esi,-0x8(%rbp)
    6650:	83 7d fc 00          	cmpl   $0x0,-0x4(%rbp)
    6654:	7e 14                	jle    666a <safe_mul_func_int32_t_s_s+0x28>
    6656:	83 7d f8 00          	cmpl   $0x0,-0x8(%rbp)
    665a:	7e 0e                	jle    666a <safe_mul_func_int32_t_s_s+0x28>
    665c:	b8 ff ff ff 7f       	mov    $0x7fffffff,%eax
    6661:	99                   	cltd   
    6662:	f7 7d f8             	idivl  -0x8(%rbp)
    6665:	39 45 fc             	cmp    %eax,-0x4(%rbp)
    6668:	7f 5d                	jg     66c7 <safe_mul_func_int32_t_s_s+0x85>
    666a:	83 7d fc 00          	cmpl   $0x0,-0x4(%rbp)
    666e:	7e 14                	jle    6684 <safe_mul_func_int32_t_s_s+0x42>
    6670:	83 7d f8 00          	cmpl   $0x0,-0x8(%rbp)
    6674:	7f 0e                	jg     6684 <safe_mul_func_int32_t_s_s+0x42>
    6676:	b8 00 00 00 80       	mov    $0x80000000,%eax
    667b:	99                   	cltd   
    667c:	f7 7d fc             	idivl  -0x4(%rbp)
    667f:	39 45 f8             	cmp    %eax,-0x8(%rbp)
    6682:	7c 43                	jl     66c7 <safe_mul_func_int32_t_s_s+0x85>
    6684:	83 7d fc 00          	cmpl   $0x0,-0x4(%rbp)
    6688:	7f 14                	jg     669e <safe_mul_func_int32_t_s_s+0x5c>
    668a:	83 7d f8 00          	cmpl   $0x0,-0x8(%rbp)
    668e:	7e 0e                	jle    669e <safe_mul_func_int32_t_s_s+0x5c>
    6690:	b8 00 00 00 80       	mov    $0x80000000,%eax
    6695:	99                   	cltd   
    6696:	f7 7d f8             	idivl  -0x8(%rbp)
    6699:	39 45 fc             	cmp    %eax,-0x4(%rbp)
    669c:	7c 29                	jl     66c7 <safe_mul_func_int32_t_s_s+0x85>
    669e:	83 7d fc 00          	cmpl   $0x0,-0x4(%rbp)
    66a2:	7f 1a                	jg     66be <safe_mul_func_int32_t_s_s+0x7c>
    66a4:	83 7d f8 00          	cmpl   $0x0,-0x8(%rbp)
    66a8:	7f 14                	jg     66be <safe_mul_func_int32_t_s_s+0x7c>
    66aa:	83 7d fc 00          	cmpl   $0x0,-0x4(%rbp)
    66ae:	74 0e                	je     66be <safe_mul_func_int32_t_s_s+0x7c>
    66b0:	b8 ff ff ff 7f       	mov    $0x7fffffff,%eax
    66b5:	99                   	cltd   
    66b6:	f7 7d fc             	idivl  -0x4(%rbp)
    66b9:	39 45 f8             	cmp    %eax,-0x8(%rbp)
    66bc:	7c 09                	jl     66c7 <safe_mul_func_int32_t_s_s+0x85>
    66be:	8b 45 fc             	mov    -0x4(%rbp),%eax
    66c1:	0f af 45 f8          	imul   -0x8(%rbp),%eax
    66c5:	eb 03                	jmp    66ca <safe_mul_func_int32_t_s_s+0x88>
    66c7:	8b 45 fc             	mov    -0x4(%rbp),%eax
    66ca:	5d                   	pop    %rbp
    66cb:	c3                   	retq   

00000000000066cc <safe_mod_func_int32_t_s_s>:
    66cc:	f3 0f 1e fa          	endbr64 
    66d0:	55                   	push   %rbp
    66d1:	48 89 e5             	mov    %rsp,%rbp
    66d4:	89 7d fc             	mov    %edi,-0x4(%rbp)
    66d7:	89 75 f8             	mov    %esi,-0x8(%rbp)
    66da:	83 7d f8 00          	cmpl   $0x0,-0x8(%rbp)
    66de:	74 1a                	je     66fa <safe_mod_func_int32_t_s_s+0x2e>
    66e0:	81 7d fc 00 00 00 80 	cmpl   $0x80000000,-0x4(%rbp)
    66e7:	75 06                	jne    66ef <safe_mod_func_int32_t_s_s+0x23>
    66e9:	83 7d f8 ff          	cmpl   $0xffffffff,-0x8(%rbp)
    66ed:	74 0b                	je     66fa <safe_mod_func_int32_t_s_s+0x2e>
    66ef:	8b 45 fc             	mov    -0x4(%rbp),%eax
    66f2:	99                   	cltd   
    66f3:	f7 7d f8             	idivl  -0x8(%rbp)
    66f6:	89 d0                	mov    %edx,%eax
    66f8:	eb 03                	jmp    66fd <safe_mod_func_int32_t_s_s+0x31>
    66fa:	8b 45 fc             	mov    -0x4(%rbp),%eax
    66fd:	5d                   	pop    %rbp
    66fe:	c3                   	retq   

00000000000066ff <safe_div_func_int32_t_s_s>:
    66ff:	f3 0f 1e fa          	endbr64 
    6703:	55                   	push   %rbp
    6704:	48 89 e5             	mov    %rsp,%rbp
    6707:	89 7d fc             	mov    %edi,-0x4(%rbp)
    670a:	89 75 f8             	mov    %esi,-0x8(%rbp)
    670d:	83 7d f8 00          	cmpl   $0x0,-0x8(%rbp)
    6711:	74 18                	je     672b <safe_div_func_int32_t_s_s+0x2c>
    6713:	81 7d fc 00 00 00 80 	cmpl   $0x80000000,-0x4(%rbp)
    671a:	75 06                	jne    6722 <safe_div_func_int32_t_s_s+0x23>
    671c:	83 7d f8 ff          	cmpl   $0xffffffff,-0x8(%rbp)
    6720:	74 09                	je     672b <safe_div_func_int32_t_s_s+0x2c>
    6722:	8b 45 fc             	mov    -0x4(%rbp),%eax
    6725:	99                   	cltd   
    6726:	f7 7d f8             	idivl  -0x8(%rbp)
    6729:	eb 03                	jmp    672e <safe_div_func_int32_t_s_s+0x2f>
    672b:	8b 45 fc             	mov    -0x4(%rbp),%eax
    672e:	5d                   	pop    %rbp
    672f:	c3                   	retq   

0000000000006730 <safe_lshift_func_int32_t_s_s>:
    6730:	f3 0f 1e fa          	endbr64 
    6734:	55                   	push   %rbp
    6735:	48 89 e5             	mov    %rsp,%rbp
    6738:	89 7d fc             	mov    %edi,-0x4(%rbp)
    673b:	89 75 f8             	mov    %esi,-0x8(%rbp)
    673e:	83 7d fc 00          	cmpl   $0x0,-0x4(%rbp)
    6742:	78 2d                	js     6771 <safe_lshift_func_int32_t_s_s+0x41>
    6744:	83 7d f8 00          	cmpl   $0x0,-0x8(%rbp)
    6748:	78 27                	js     6771 <safe_lshift_func_int32_t_s_s+0x41>
    674a:	83 7d f8 1f          	cmpl   $0x1f,-0x8(%rbp)
    674e:	7f 21                	jg     6771 <safe_lshift_func_int32_t_s_s+0x41>
    6750:	8b 45 f8             	mov    -0x8(%rbp),%eax
    6753:	ba ff ff ff 7f       	mov    $0x7fffffff,%edx
    6758:	89 c1                	mov    %eax,%ecx
    675a:	d3 fa                	sar    %cl,%edx
    675c:	89 d0                	mov    %edx,%eax
    675e:	39 45 fc             	cmp    %eax,-0x4(%rbp)
    6761:	7f 0e                	jg     6771 <safe_lshift_func_int32_t_s_s+0x41>
    6763:	8b 45 f8             	mov    -0x8(%rbp),%eax
    6766:	8b 55 fc             	mov    -0x4(%rbp),%edx
    6769:	89 c1                	mov    %eax,%ecx
    676b:	d3 e2                	shl    %cl,%edx
    676d:	89 d0                	mov    %edx,%eax
    676f:	eb 03                	jmp    6774 <safe_lshift_func_int32_t_s_s+0x44>
    6771:	8b 45 fc             	mov    -0x4(%rbp),%eax
    6774:	5d                   	pop    %rbp
    6775:	c3                   	retq   

0000000000006776 <safe_lshift_func_int32_t_s_u>:
    6776:	f3 0f 1e fa          	endbr64 
    677a:	55                   	push   %rbp
    677b:	48 89 e5             	mov    %rsp,%rbp
    677e:	89 7d fc             	mov    %edi,-0x4(%rbp)
    6781:	89 75 f8             	mov    %esi,-0x8(%rbp)
    6784:	83 7d fc 00          	cmpl   $0x0,-0x4(%rbp)
    6788:	78 27                	js     67b1 <safe_lshift_func_int32_t_s_u+0x3b>
    678a:	83 7d f8 1f          	cmpl   $0x1f,-0x8(%rbp)
    678e:	77 21                	ja     67b1 <safe_lshift_func_int32_t_s_u+0x3b>
    6790:	8b 45 f8             	mov    -0x8(%rbp),%eax
    6793:	ba ff ff ff 7f       	mov    $0x7fffffff,%edx
    6798:	89 c1                	mov    %eax,%ecx
    679a:	d3 fa                	sar    %cl,%edx
    679c:	89 d0                	mov    %edx,%eax
    679e:	39 45 fc             	cmp    %eax,-0x4(%rbp)
    67a1:	7f 0e                	jg     67b1 <safe_lshift_func_int32_t_s_u+0x3b>
    67a3:	8b 45 f8             	mov    -0x8(%rbp),%eax
    67a6:	8b 55 fc             	mov    -0x4(%rbp),%edx
    67a9:	89 c1                	mov    %eax,%ecx
    67ab:	d3 e2                	shl    %cl,%edx
    67ad:	89 d0                	mov    %edx,%eax
    67af:	eb 03                	jmp    67b4 <safe_lshift_func_int32_t_s_u+0x3e>
    67b1:	8b 45 fc             	mov    -0x4(%rbp),%eax
    67b4:	5d                   	pop    %rbp
    67b5:	c3                   	retq   

00000000000067b6 <safe_rshift_func_int32_t_s_s>:
    67b6:	f3 0f 1e fa          	endbr64 
    67ba:	55                   	push   %rbp
    67bb:	48 89 e5             	mov    %rsp,%rbp
    67be:	89 7d fc             	mov    %edi,-0x4(%rbp)
    67c1:	89 75 f8             	mov    %esi,-0x8(%rbp)
    67c4:	83 7d fc 00          	cmpl   $0x0,-0x4(%rbp)
    67c8:	78 1a                	js     67e4 <safe_rshift_func_int32_t_s_s+0x2e>
    67ca:	83 7d f8 00          	cmpl   $0x0,-0x8(%rbp)
    67ce:	78 14                	js     67e4 <safe_rshift_func_int32_t_s_s+0x2e>
    67d0:	83 7d f8 1f          	cmpl   $0x1f,-0x8(%rbp)
    67d4:	7f 0e                	jg     67e4 <safe_rshift_func_int32_t_s_s+0x2e>
    67d6:	8b 45 f8             	mov    -0x8(%rbp),%eax
    67d9:	8b 55 fc             	mov    -0x4(%rbp),%edx
    67dc:	89 c1                	mov    %eax,%ecx
    67de:	d3 fa                	sar    %cl,%edx
    67e0:	89 d0                	mov    %edx,%eax
    67e2:	eb 03                	jmp    67e7 <safe_rshift_func_int32_t_s_s+0x31>
    67e4:	8b 45 fc             	mov    -0x4(%rbp),%eax
    67e7:	5d                   	pop    %rbp
    67e8:	c3                   	retq   

00000000000067e9 <safe_rshift_func_int32_t_s_u>:
    67e9:	f3 0f 1e fa          	endbr64 
    67ed:	55                   	push   %rbp
    67ee:	48 89 e5             	mov    %rsp,%rbp
    67f1:	89 7d fc             	mov    %edi,-0x4(%rbp)
    67f4:	89 75 f8             	mov    %esi,-0x8(%rbp)
    67f7:	83 7d fc 00          	cmpl   $0x0,-0x4(%rbp)
    67fb:	78 14                	js     6811 <safe_rshift_func_int32_t_s_u+0x28>
    67fd:	83 7d f8 1f          	cmpl   $0x1f,-0x8(%rbp)
    6801:	77 0e                	ja     6811 <safe_rshift_func_int32_t_s_u+0x28>
    6803:	8b 45 f8             	mov    -0x8(%rbp),%eax
    6806:	8b 55 fc             	mov    -0x4(%rbp),%edx
    6809:	89 c1                	mov    %eax,%ecx
    680b:	d3 fa                	sar    %cl,%edx
    680d:	89 d0                	mov    %edx,%eax
    680f:	eb 03                	jmp    6814 <safe_rshift_func_int32_t_s_u+0x2b>
    6811:	8b 45 fc             	mov    -0x4(%rbp),%eax
    6814:	5d                   	pop    %rbp
    6815:	c3                   	retq   

0000000000006816 <safe_unary_minus_func_int64_t_s>:
    6816:	f3 0f 1e fa          	endbr64 
    681a:	55                   	push   %rbp
    681b:	48 89 e5             	mov    %rsp,%rbp
    681e:	48 89 7d f8          	mov    %rdi,-0x8(%rbp)
    6822:	48 b8 00 00 00 00 00 	movabs $0x8000000000000000,%rax
    6829:	00 00 80 
    682c:	48 39 45 f8          	cmp    %rax,-0x8(%rbp)
    6830:	74 09                	je     683b <safe_unary_minus_func_int64_t_s+0x25>
    6832:	48 8b 45 f8          	mov    -0x8(%rbp),%rax
    6836:	48 f7 d8             	neg    %rax
    6839:	eb 04                	jmp    683f <safe_unary_minus_func_int64_t_s+0x29>
    683b:	48 8b 45 f8          	mov    -0x8(%rbp),%rax
    683f:	5d                   	pop    %rbp
    6840:	c3                   	retq   

0000000000006841 <safe_add_func_int64_t_s_s>:
    6841:	f3 0f 1e fa          	endbr64 
    6845:	55                   	push   %rbp
    6846:	48 89 e5             	mov    %rsp,%rbp
    6849:	48 89 7d f8          	mov    %rdi,-0x8(%rbp)
    684d:	48 89 75 f0          	mov    %rsi,-0x10(%rbp)
    6851:	48 83 7d f8 00       	cmpq   $0x0,-0x8(%rbp)
    6856:	7e 1b                	jle    6873 <safe_add_func_int64_t_s_s+0x32>
    6858:	48 83 7d f0 00       	cmpq   $0x0,-0x10(%rbp)
    685d:	7e 14                	jle    6873 <safe_add_func_int64_t_s_s+0x32>
    685f:	48 b8 ff ff ff ff ff 	movabs $0x7fffffffffffffff,%rax
    6866:	ff ff 7f 
    6869:	48 2b 45 f0          	sub    -0x10(%rbp),%rax
    686d:	48 39 45 f8          	cmp    %rax,-0x8(%rbp)
    6871:	7f 2f                	jg     68a2 <safe_add_func_int64_t_s_s+0x61>
    6873:	48 83 7d f8 00       	cmpq   $0x0,-0x8(%rbp)
    6878:	79 1b                	jns    6895 <safe_add_func_int64_t_s_s+0x54>
    687a:	48 83 7d f0 00       	cmpq   $0x0,-0x10(%rbp)
    687f:	79 14                	jns    6895 <safe_add_func_int64_t_s_s+0x54>
    6881:	48 b8 00 00 00 00 00 	movabs $0x8000000000000000,%rax
    6888:	00 00 80 
    688b:	48 2b 45 f0          	sub    -0x10(%rbp),%rax
    688f:	48 39 45 f8          	cmp    %rax,-0x8(%rbp)
    6893:	7c 0d                	jl     68a2 <safe_add_func_int64_t_s_s+0x61>
    6895:	48 8b 55 f8          	mov    -0x8(%rbp),%rdx
    6899:	48 8b 45 f0          	mov    -0x10(%rbp),%rax
    689d:	48 01 d0             	add    %rdx,%rax
    68a0:	eb 04                	jmp    68a6 <safe_add_func_int64_t_s_s+0x65>
    68a2:	48 8b 45 f8          	mov    -0x8(%rbp),%rax
    68a6:	5d                   	pop    %rbp
    68a7:	c3                   	retq   

00000000000068a8 <safe_sub_func_int64_t_s_s>:
    68a8:	f3 0f 1e fa          	endbr64 
    68ac:	55                   	push   %rbp
    68ad:	48 89 e5             	mov    %rsp,%rbp
    68b0:	48 89 7d f8          	mov    %rdi,-0x8(%rbp)
    68b4:	48 89 75 f0          	mov    %rsi,-0x10(%rbp)
    68b8:	48 8b 45 f8          	mov    -0x8(%rbp),%rax
    68bc:	48 33 45 f0          	xor    -0x10(%rbp),%rax
    68c0:	48 89 c2             	mov    %rax,%rdx
    68c3:	48 8b 45 f8          	mov    -0x8(%rbp),%rax
    68c7:	48 33 45 f0          	xor    -0x10(%rbp),%rax
    68cb:	48 b9 00 00 00 00 00 	movabs $0x8000000000000000,%rcx
    68d2:	00 00 80 
    68d5:	48 21 c8             	and    %rcx,%rax
    68d8:	48 33 45 f8          	xor    -0x8(%rbp),%rax
    68dc:	48 2b 45 f0          	sub    -0x10(%rbp),%rax
    68e0:	48 33 45 f0          	xor    -0x10(%rbp),%rax
    68e4:	48 21 d0             	and    %rdx,%rax
    68e7:	48 85 c0             	test   %rax,%rax
    68ea:	78 0a                	js     68f6 <safe_sub_func_int64_t_s_s+0x4e>
    68ec:	48 8b 45 f8          	mov    -0x8(%rbp),%rax
    68f0:	48 2b 45 f0          	sub    -0x10(%rbp),%rax
    68f4:	eb 04                	jmp    68fa <safe_sub_func_int64_t_s_s+0x52>
    68f6:	48 8b 45 f8          	mov    -0x8(%rbp),%rax
    68fa:	5d                   	pop    %rbp
    68fb:	c3                   	retq   

00000000000068fc <safe_mul_func_int64_t_s_s>:
    68fc:	f3 0f 1e fa          	endbr64 
    6900:	55                   	push   %rbp
    6901:	48 89 e5             	mov    %rsp,%rbp
    6904:	48 89 7d f8          	mov    %rdi,-0x8(%rbp)
    6908:	48 89 75 f0          	mov    %rsi,-0x10(%rbp)
    690c:	48 83 7d f8 00       	cmpq   $0x0,-0x8(%rbp)
    6911:	7e 1d                	jle    6930 <safe_mul_func_int64_t_s_s+0x34>
    6913:	48 83 7d f0 00       	cmpq   $0x0,-0x10(%rbp)
    6918:	7e 16                	jle    6930 <safe_mul_func_int64_t_s_s+0x34>
    691a:	48 b8 ff ff ff ff ff 	movabs $0x7fffffffffffffff,%rax
    6921:	ff ff 7f 
    6924:	48 99                	cqto   
    6926:	48 f7 7d f0          	idivq  -0x10(%rbp)
    692a:	48 39 45 f8          	cmp    %rax,-0x8(%rbp)
    692e:	7f 7e                	jg     69ae <safe_mul_func_int64_t_s_s+0xb2>
    6930:	48 83 7d f8 00       	cmpq   $0x0,-0x8(%rbp)
    6935:	7e 1d                	jle    6954 <safe_mul_func_int64_t_s_s+0x58>
    6937:	48 83 7d f0 00       	cmpq   $0x0,-0x10(%rbp)
    693c:	7f 16                	jg     6954 <safe_mul_func_int64_t_s_s+0x58>
    693e:	48 b8 00 00 00 00 00 	movabs $0x8000000000000000,%rax
    6945:	00 00 80 
    6948:	48 99                	cqto   
    694a:	48 f7 7d f8          	idivq  -0x8(%rbp)
    694e:	48 39 45 f0          	cmp    %rax,-0x10(%rbp)
    6952:	7c 5a                	jl     69ae <safe_mul_func_int64_t_s_s+0xb2>
    6954:	48 83 7d f8 00       	cmpq   $0x0,-0x8(%rbp)
    6959:	7f 1d                	jg     6978 <safe_mul_func_int64_t_s_s+0x7c>
    695b:	48 83 7d f0 00       	cmpq   $0x0,-0x10(%rbp)
    6960:	7e 16                	jle    6978 <safe_mul_func_int64_t_s_s+0x7c>
    6962:	48 b8 00 00 00 00 00 	movabs $0x8000000000000000,%rax
    6969:	00 00 80 
    696c:	48 99                	cqto   
    696e:	48 f7 7d f0          	idivq  -0x10(%rbp)
    6972:	48 39 45 f8          	cmp    %rax,-0x8(%rbp)
    6976:	7c 36                	jl     69ae <safe_mul_func_int64_t_s_s+0xb2>
    6978:	48 83 7d f8 00       	cmpq   $0x0,-0x8(%rbp)
    697d:	7f 24                	jg     69a3 <safe_mul_func_int64_t_s_s+0xa7>
    697f:	48 83 7d f0 00       	cmpq   $0x0,-0x10(%rbp)
    6984:	7f 1d                	jg     69a3 <safe_mul_func_int64_t_s_s+0xa7>
    6986:	48 83 7d f8 00       	cmpq   $0x0,-0x8(%rbp)
    698b:	74 16                	je     69a3 <safe_mul_func_int64_t_s_s+0xa7>
    698d:	48 b8 ff ff ff ff ff 	movabs $0x7fffffffffffffff,%rax
    6994:	ff ff 7f 
    6997:	48 99                	cqto   
    6999:	48 f7 7d f8          	idivq  -0x8(%rbp)
    699d:	48 39 45 f0          	cmp    %rax,-0x10(%rbp)
    69a1:	7c 0b                	jl     69ae <safe_mul_func_int64_t_s_s+0xb2>
    69a3:	48 8b 45 f8          	mov    -0x8(%rbp),%rax
    69a7:	48 0f af 45 f0       	imul   -0x10(%rbp),%rax
    69ac:	eb 04                	jmp    69b2 <safe_mul_func_int64_t_s_s+0xb6>
    69ae:	48 8b 45 f8          	mov    -0x8(%rbp),%rax
    69b2:	5d                   	pop    %rbp
    69b3:	c3                   	retq   

00000000000069b4 <safe_mod_func_int64_t_s_s>:
    69b4:	f3 0f 1e fa          	endbr64 
    69b8:	55                   	push   %rbp
    69b9:	48 89 e5             	mov    %rsp,%rbp
    69bc:	48 89 7d f8          	mov    %rdi,-0x8(%rbp)
    69c0:	48 89 75 f0          	mov    %rsi,-0x10(%rbp)
    69c4:	48 83 7d f0 00       	cmpq   $0x0,-0x10(%rbp)
    69c9:	74 26                	je     69f1 <safe_mod_func_int64_t_s_s+0x3d>
    69cb:	48 b8 00 00 00 00 00 	movabs $0x8000000000000000,%rax
    69d2:	00 00 80 
    69d5:	48 39 45 f8          	cmp    %rax,-0x8(%rbp)
    69d9:	75 07                	jne    69e2 <safe_mod_func_int64_t_s_s+0x2e>
    69db:	48 83 7d f0 ff       	cmpq   $0xffffffffffffffff,-0x10(%rbp)
    69e0:	74 0f                	je     69f1 <safe_mod_func_int64_t_s_s+0x3d>
    69e2:	48 8b 45 f8          	mov    -0x8(%rbp),%rax
    69e6:	48 99                	cqto   
    69e8:	48 f7 7d f0          	idivq  -0x10(%rbp)
    69ec:	48 89 d0             	mov    %rdx,%rax
    69ef:	eb 04                	jmp    69f5 <safe_mod_func_int64_t_s_s+0x41>
    69f1:	48 8b 45 f8          	mov    -0x8(%rbp),%rax
    69f5:	5d                   	pop    %rbp
    69f6:	c3                   	retq   

00000000000069f7 <safe_div_func_int64_t_s_s>:
    69f7:	f3 0f 1e fa          	endbr64 
    69fb:	55                   	push   %rbp
    69fc:	48 89 e5             	mov    %rsp,%rbp
    69ff:	48 89 7d f8          	mov    %rdi,-0x8(%rbp)
    6a03:	48 89 75 f0          	mov    %rsi,-0x10(%rbp)
    6a07:	48 83 7d f0 00       	cmpq   $0x0,-0x10(%rbp)
    6a0c:	74 23                	je     6a31 <safe_div_func_int64_t_s_s+0x3a>
    6a0e:	48 b8 00 00 00 00 00 	movabs $0x8000000000000000,%rax
    6a15:	00 00 80 
    6a18:	48 39 45 f8          	cmp    %rax,-0x8(%rbp)
    6a1c:	75 07                	jne    6a25 <safe_div_func_int64_t_s_s+0x2e>
    6a1e:	48 83 7d f0 ff       	cmpq   $0xffffffffffffffff,-0x10(%rbp)
    6a23:	74 0c                	je     6a31 <safe_div_func_int64_t_s_s+0x3a>
    6a25:	48 8b 45 f8          	mov    -0x8(%rbp),%rax
    6a29:	48 99                	cqto   
    6a2b:	48 f7 7d f0          	idivq  -0x10(%rbp)
    6a2f:	eb 04                	jmp    6a35 <safe_div_func_int64_t_s_s+0x3e>
    6a31:	48 8b 45 f8          	mov    -0x8(%rbp),%rax
    6a35:	5d                   	pop    %rbp
    6a36:	c3                   	retq   

0000000000006a37 <safe_lshift_func_int64_t_s_s>:
    6a37:	f3 0f 1e fa          	endbr64 
    6a3b:	55                   	push   %rbp
    6a3c:	48 89 e5             	mov    %rsp,%rbp
    6a3f:	48 89 7d f8          	mov    %rdi,-0x8(%rbp)
    6a43:	89 75 f4             	mov    %esi,-0xc(%rbp)
    6a46:	48 83 7d f8 00       	cmpq   $0x0,-0x8(%rbp)
    6a4b:	78 38                	js     6a85 <safe_lshift_func_int64_t_s_s+0x4e>
    6a4d:	83 7d f4 00          	cmpl   $0x0,-0xc(%rbp)
    6a51:	78 32                	js     6a85 <safe_lshift_func_int64_t_s_s+0x4e>
    6a53:	83 7d f4 1f          	cmpl   $0x1f,-0xc(%rbp)
    6a57:	7f 2c                	jg     6a85 <safe_lshift_func_int64_t_s_s+0x4e>
    6a59:	8b 45 f4             	mov    -0xc(%rbp),%eax
    6a5c:	48 ba ff ff ff ff ff 	movabs $0x7fffffffffffffff,%rdx
    6a63:	ff ff 7f 
    6a66:	89 c1                	mov    %eax,%ecx
    6a68:	48 d3 fa             	sar    %cl,%rdx
    6a6b:	48 89 d0             	mov    %rdx,%rax
    6a6e:	48 39 45 f8          	cmp    %rax,-0x8(%rbp)
    6a72:	7f 11                	jg     6a85 <safe_lshift_func_int64_t_s_s+0x4e>
    6a74:	8b 45 f4             	mov    -0xc(%rbp),%eax
    6a77:	48 8b 55 f8          	mov    -0x8(%rbp),%rdx
    6a7b:	89 c1                	mov    %eax,%ecx
    6a7d:	48 d3 e2             	shl    %cl,%rdx
    6a80:	48 89 d0             	mov    %rdx,%rax
    6a83:	eb 04                	jmp    6a89 <safe_lshift_func_int64_t_s_s+0x52>
    6a85:	48 8b 45 f8          	mov    -0x8(%rbp),%rax
    6a89:	5d                   	pop    %rbp
    6a8a:	c3                   	retq   

0000000000006a8b <safe_lshift_func_int64_t_s_u>:
    6a8b:	f3 0f 1e fa          	endbr64 
    6a8f:	55                   	push   %rbp
    6a90:	48 89 e5             	mov    %rsp,%rbp
    6a93:	48 89 7d f8          	mov    %rdi,-0x8(%rbp)
    6a97:	89 75 f4             	mov    %esi,-0xc(%rbp)
    6a9a:	48 83 7d f8 00       	cmpq   $0x0,-0x8(%rbp)
    6a9f:	78 32                	js     6ad3 <safe_lshift_func_int64_t_s_u+0x48>
    6aa1:	83 7d f4 1f          	cmpl   $0x1f,-0xc(%rbp)
    6aa5:	77 2c                	ja     6ad3 <safe_lshift_func_int64_t_s_u+0x48>
    6aa7:	8b 45 f4             	mov    -0xc(%rbp),%eax
    6aaa:	48 ba ff ff ff ff ff 	movabs $0x7fffffffffffffff,%rdx
    6ab1:	ff ff 7f 
    6ab4:	89 c1                	mov    %eax,%ecx
    6ab6:	48 d3 fa             	sar    %cl,%rdx
    6ab9:	48 89 d0             	mov    %rdx,%rax
    6abc:	48 39 45 f8          	cmp    %rax,-0x8(%rbp)
    6ac0:	7f 11                	jg     6ad3 <safe_lshift_func_int64_t_s_u+0x48>
    6ac2:	8b 45 f4             	mov    -0xc(%rbp),%eax
    6ac5:	48 8b 55 f8          	mov    -0x8(%rbp),%rdx
    6ac9:	89 c1                	mov    %eax,%ecx
    6acb:	48 d3 e2             	shl    %cl,%rdx
    6ace:	48 89 d0             	mov    %rdx,%rax
    6ad1:	eb 04                	jmp    6ad7 <safe_lshift_func_int64_t_s_u+0x4c>
    6ad3:	48 8b 45 f8          	mov    -0x8(%rbp),%rax
    6ad7:	5d                   	pop    %rbp
    6ad8:	c3                   	retq   

0000000000006ad9 <safe_rshift_func_int64_t_s_s>:
    6ad9:	f3 0f 1e fa          	endbr64 
    6add:	55                   	push   %rbp
    6ade:	48 89 e5             	mov    %rsp,%rbp
    6ae1:	48 89 7d f8          	mov    %rdi,-0x8(%rbp)
    6ae5:	89 75 f4             	mov    %esi,-0xc(%rbp)
    6ae8:	48 83 7d f8 00       	cmpq   $0x0,-0x8(%rbp)
    6aed:	78 1d                	js     6b0c <safe_rshift_func_int64_t_s_s+0x33>
    6aef:	83 7d f4 00          	cmpl   $0x0,-0xc(%rbp)
    6af3:	78 17                	js     6b0c <safe_rshift_func_int64_t_s_s+0x33>
    6af5:	83 7d f4 1f          	cmpl   $0x1f,-0xc(%rbp)
    6af9:	7f 11                	jg     6b0c <safe_rshift_func_int64_t_s_s+0x33>
    6afb:	8b 45 f4             	mov    -0xc(%rbp),%eax
    6afe:	48 8b 55 f8          	mov    -0x8(%rbp),%rdx
    6b02:	89 c1                	mov    %eax,%ecx
    6b04:	48 d3 fa             	sar    %cl,%rdx
    6b07:	48 89 d0             	mov    %rdx,%rax
    6b0a:	eb 04                	jmp    6b10 <safe_rshift_func_int64_t_s_s+0x37>
    6b0c:	48 8b 45 f8          	mov    -0x8(%rbp),%rax
    6b10:	5d                   	pop    %rbp
    6b11:	c3                   	retq   

0000000000006b12 <safe_rshift_func_int64_t_s_u>:
    6b12:	f3 0f 1e fa          	endbr64 
    6b16:	55                   	push   %rbp
    6b17:	48 89 e5             	mov    %rsp,%rbp
    6b1a:	48 89 7d f8          	mov    %rdi,-0x8(%rbp)
    6b1e:	89 75 f4             	mov    %esi,-0xc(%rbp)
    6b21:	48 83 7d f8 00       	cmpq   $0x0,-0x8(%rbp)
    6b26:	78 17                	js     6b3f <safe_rshift_func_int64_t_s_u+0x2d>
    6b28:	83 7d f4 1f          	cmpl   $0x1f,-0xc(%rbp)
    6b2c:	77 11                	ja     6b3f <safe_rshift_func_int64_t_s_u+0x2d>
    6b2e:	8b 45 f4             	mov    -0xc(%rbp),%eax
    6b31:	48 8b 55 f8          	mov    -0x8(%rbp),%rdx
    6b35:	89 c1                	mov    %eax,%ecx
    6b37:	48 d3 fa             	sar    %cl,%rdx
    6b3a:	48 89 d0             	mov    %rdx,%rax
    6b3d:	eb 04                	jmp    6b43 <safe_rshift_func_int64_t_s_u+0x31>
    6b3f:	48 8b 45 f8          	mov    -0x8(%rbp),%rax
    6b43:	5d                   	pop    %rbp
    6b44:	c3                   	retq   

0000000000006b45 <safe_unary_minus_func_uint8_t_u>:
    6b45:	f3 0f 1e fa          	endbr64 
    6b49:	55                   	push   %rbp
    6b4a:	48 89 e5             	mov    %rsp,%rbp
    6b4d:	89 f8                	mov    %edi,%eax
    6b4f:	88 45 fc             	mov    %al,-0x4(%rbp)
    6b52:	0f b6 45 fc          	movzbl -0x4(%rbp),%eax
    6b56:	f7 d8                	neg    %eax
    6b58:	5d                   	pop    %rbp
    6b59:	c3                   	retq   

0000000000006b5a <safe_add_func_uint8_t_u_u>:
    6b5a:	f3 0f 1e fa          	endbr64 
    6b5e:	55                   	push   %rbp
    6b5f:	48 89 e5             	mov    %rsp,%rbp
    6b62:	89 fa                	mov    %edi,%edx
    6b64:	89 f0                	mov    %esi,%eax
    6b66:	88 55 fc             	mov    %dl,-0x4(%rbp)
    6b69:	88 45 f8             	mov    %al,-0x8(%rbp)
    6b6c:	0f b6 55 fc          	movzbl -0x4(%rbp),%edx
    6b70:	0f b6 45 f8          	movzbl -0x8(%rbp),%eax
    6b74:	01 d0                	add    %edx,%eax
    6b76:	5d                   	pop    %rbp
    6b77:	c3                   	retq   

0000000000006b78 <safe_sub_func_uint8_t_u_u>:
    6b78:	f3 0f 1e fa          	endbr64 
    6b7c:	55                   	push   %rbp
    6b7d:	48 89 e5             	mov    %rsp,%rbp
    6b80:	89 fa                	mov    %edi,%edx
    6b82:	89 f0                	mov    %esi,%eax
    6b84:	88 55 fc             	mov    %dl,-0x4(%rbp)
    6b87:	88 45 f8             	mov    %al,-0x8(%rbp)
    6b8a:	0f b6 45 fc          	movzbl -0x4(%rbp),%eax
    6b8e:	2a 45 f8             	sub    -0x8(%rbp),%al
    6b91:	5d                   	pop    %rbp
    6b92:	c3                   	retq   

0000000000006b93 <safe_mul_func_uint8_t_u_u>:
    6b93:	f3 0f 1e fa          	endbr64 
    6b97:	55                   	push   %rbp
    6b98:	48 89 e5             	mov    %rsp,%rbp
    6b9b:	89 fa                	mov    %edi,%edx
    6b9d:	89 f0                	mov    %esi,%eax
    6b9f:	88 55 fc             	mov    %dl,-0x4(%rbp)
    6ba2:	88 45 f8             	mov    %al,-0x8(%rbp)
    6ba5:	0f b6 45 fc          	movzbl -0x4(%rbp),%eax
    6ba9:	f6 65 f8             	mulb   -0x8(%rbp)
    6bac:	5d                   	pop    %rbp
    6bad:	c3                   	retq   

0000000000006bae <safe_mod_func_uint8_t_u_u>:
    6bae:	f3 0f 1e fa          	endbr64 
    6bb2:	55                   	push   %rbp
    6bb3:	48 89 e5             	mov    %rsp,%rbp
    6bb6:	89 fa                	mov    %edi,%edx
    6bb8:	89 f0                	mov    %esi,%eax
    6bba:	88 55 fc             	mov    %dl,-0x4(%rbp)
    6bbd:	88 45 f8             	mov    %al,-0x8(%rbp)
    6bc0:	80 7d f8 00          	cmpb   $0x0,-0x8(%rbp)
    6bc4:	74 0f                	je     6bd5 <safe_mod_func_uint8_t_u_u+0x27>
    6bc6:	0f b6 45 fc          	movzbl -0x4(%rbp),%eax
    6bca:	0f b6 c0             	movzbl %al,%eax
    6bcd:	f6 75 f8             	divb   -0x8(%rbp)
    6bd0:	0f b6 c4             	movzbl %ah,%eax
    6bd3:	eb 04                	jmp    6bd9 <safe_mod_func_uint8_t_u_u+0x2b>
    6bd5:	0f b6 45 fc          	movzbl -0x4(%rbp),%eax
    6bd9:	5d                   	pop    %rbp
    6bda:	c3                   	retq   

0000000000006bdb <safe_div_func_uint8_t_u_u>:
    6bdb:	f3 0f 1e fa          	endbr64 
    6bdf:	55                   	push   %rbp
    6be0:	48 89 e5             	mov    %rsp,%rbp
    6be3:	89 fa                	mov    %edi,%edx
    6be5:	89 f0                	mov    %esi,%eax
    6be7:	88 55 fc             	mov    %dl,-0x4(%rbp)
    6bea:	88 45 f8             	mov    %al,-0x8(%rbp)
    6bed:	80 7d f8 00          	cmpb   $0x0,-0x8(%rbp)
    6bf1:	74 0c                	je     6bff <safe_div_func_uint8_t_u_u+0x24>
    6bf3:	0f b6 45 fc          	movzbl -0x4(%rbp),%eax
    6bf7:	0f b6 c0             	movzbl %al,%eax
    6bfa:	f6 75 f8             	divb   -0x8(%rbp)
    6bfd:	eb 04                	jmp    6c03 <safe_div_func_uint8_t_u_u+0x28>
    6bff:	0f b6 45 fc          	movzbl -0x4(%rbp),%eax
    6c03:	5d                   	pop    %rbp
    6c04:	c3                   	retq   

0000000000006c05 <safe_lshift_func_uint8_t_u_s>:
    6c05:	f3 0f 1e fa          	endbr64 
    6c09:	55                   	push   %rbp
    6c0a:	48 89 e5             	mov    %rsp,%rbp
    6c0d:	89 f8                	mov    %edi,%eax
    6c0f:	89 75 f8             	mov    %esi,-0x8(%rbp)
    6c12:	88 45 fc             	mov    %al,-0x4(%rbp)
    6c15:	83 7d f8 00          	cmpl   $0x0,-0x8(%rbp)
    6c19:	78 2b                	js     6c46 <safe_lshift_func_uint8_t_u_s+0x41>
    6c1b:	83 7d f8 1f          	cmpl   $0x1f,-0x8(%rbp)
    6c1f:	7f 25                	jg     6c46 <safe_lshift_func_uint8_t_u_s+0x41>
    6c21:	0f b6 55 fc          	movzbl -0x4(%rbp),%edx
    6c25:	8b 45 f8             	mov    -0x8(%rbp),%eax
    6c28:	be ff 00 00 00       	mov    $0xff,%esi
    6c2d:	89 c1                	mov    %eax,%ecx
    6c2f:	d3 fe                	sar    %cl,%esi
    6c31:	89 f0                	mov    %esi,%eax
    6c33:	39 c2                	cmp    %eax,%edx
    6c35:	7f 0f                	jg     6c46 <safe_lshift_func_uint8_t_u_s+0x41>
    6c37:	0f b6 55 fc          	movzbl -0x4(%rbp),%edx
    6c3b:	8b 45 f8             	mov    -0x8(%rbp),%eax
    6c3e:	89 c1                	mov    %eax,%ecx
    6c40:	d3 e2                	shl    %cl,%edx
    6c42:	89 d0                	mov    %edx,%eax
    6c44:	eb 04                	jmp    6c4a <safe_lshift_func_uint8_t_u_s+0x45>
    6c46:	0f b6 45 fc          	movzbl -0x4(%rbp),%eax
    6c4a:	5d                   	pop    %rbp
    6c4b:	c3                   	retq   

0000000000006c4c <safe_lshift_func_uint8_t_u_u>:
    6c4c:	f3 0f 1e fa          	endbr64 
    6c50:	55                   	push   %rbp
    6c51:	48 89 e5             	mov    %rsp,%rbp
    6c54:	89 f8                	mov    %edi,%eax
    6c56:	89 75 f8             	mov    %esi,-0x8(%rbp)
    6c59:	88 45 fc             	mov    %al,-0x4(%rbp)
    6c5c:	83 7d f8 1f          	cmpl   $0x1f,-0x8(%rbp)
    6c60:	77 25                	ja     6c87 <safe_lshift_func_uint8_t_u_u+0x3b>
    6c62:	0f b6 55 fc          	movzbl -0x4(%rbp),%edx
    6c66:	8b 45 f8             	mov    -0x8(%rbp),%eax
    6c69:	be ff 00 00 00       	mov    $0xff,%esi
    6c6e:	89 c1                	mov    %eax,%ecx
    6c70:	d3 fe                	sar    %cl,%esi
    6c72:	89 f0                	mov    %esi,%eax
    6c74:	39 c2                	cmp    %eax,%edx
    6c76:	7f 0f                	jg     6c87 <safe_lshift_func_uint8_t_u_u+0x3b>
    6c78:	0f b6 55 fc          	movzbl -0x4(%rbp),%edx
    6c7c:	8b 45 f8             	mov    -0x8(%rbp),%eax
    6c7f:	89 c1                	mov    %eax,%ecx
    6c81:	d3 e2                	shl    %cl,%edx
    6c83:	89 d0                	mov    %edx,%eax
    6c85:	eb 04                	jmp    6c8b <safe_lshift_func_uint8_t_u_u+0x3f>
    6c87:	0f b6 45 fc          	movzbl -0x4(%rbp),%eax
    6c8b:	5d                   	pop    %rbp
    6c8c:	c3                   	retq   

0000000000006c8d <safe_rshift_func_uint8_t_u_s>:
    6c8d:	f3 0f 1e fa          	endbr64 
    6c91:	55                   	push   %rbp
    6c92:	48 89 e5             	mov    %rsp,%rbp
    6c95:	89 f8                	mov    %edi,%eax
    6c97:	89 75 f8             	mov    %esi,-0x8(%rbp)
    6c9a:	88 45 fc             	mov    %al,-0x4(%rbp)
    6c9d:	83 7d f8 00          	cmpl   $0x0,-0x8(%rbp)
    6ca1:	78 15                	js     6cb8 <safe_rshift_func_uint8_t_u_s+0x2b>
    6ca3:	83 7d f8 1f          	cmpl   $0x1f,-0x8(%rbp)
    6ca7:	7f 0f                	jg     6cb8 <safe_rshift_func_uint8_t_u_s+0x2b>
    6ca9:	0f b6 55 fc          	movzbl -0x4(%rbp),%edx
    6cad:	8b 45 f8             	mov    -0x8(%rbp),%eax
    6cb0:	89 c1                	mov    %eax,%ecx
    6cb2:	d3 fa                	sar    %cl,%edx
    6cb4:	89 d0                	mov    %edx,%eax
    6cb6:	eb 04                	jmp    6cbc <safe_rshift_func_uint8_t_u_s+0x2f>
    6cb8:	0f b6 45 fc          	movzbl -0x4(%rbp),%eax
    6cbc:	5d                   	pop    %rbp
    6cbd:	c3                   	retq   

0000000000006cbe <safe_rshift_func_uint8_t_u_u>:
    6cbe:	f3 0f 1e fa          	endbr64 
    6cc2:	55                   	push   %rbp
    6cc3:	48 89 e5             	mov    %rsp,%rbp
    6cc6:	89 f8                	mov    %edi,%eax
    6cc8:	89 75 f8             	mov    %esi,-0x8(%rbp)
    6ccb:	88 45 fc             	mov    %al,-0x4(%rbp)
    6cce:	83 7d f8 1f          	cmpl   $0x1f,-0x8(%rbp)
    6cd2:	77 0f                	ja     6ce3 <safe_rshift_func_uint8_t_u_u+0x25>
    6cd4:	0f b6 55 fc          	movzbl -0x4(%rbp),%edx
    6cd8:	8b 45 f8             	mov    -0x8(%rbp),%eax
    6cdb:	89 c1                	mov    %eax,%ecx
    6cdd:	d3 fa                	sar    %cl,%edx
    6cdf:	89 d0                	mov    %edx,%eax
    6ce1:	eb 04                	jmp    6ce7 <safe_rshift_func_uint8_t_u_u+0x29>
    6ce3:	0f b6 45 fc          	movzbl -0x4(%rbp),%eax
    6ce7:	5d                   	pop    %rbp
    6ce8:	c3                   	retq   

0000000000006ce9 <safe_unary_minus_func_uint16_t_u>:
    6ce9:	f3 0f 1e fa          	endbr64 
    6ced:	55                   	push   %rbp
    6cee:	48 89 e5             	mov    %rsp,%rbp
    6cf1:	89 f8                	mov    %edi,%eax
    6cf3:	66 89 45 fc          	mov    %ax,-0x4(%rbp)
    6cf7:	0f b7 45 fc          	movzwl -0x4(%rbp),%eax
    6cfb:	f7 d8                	neg    %eax
    6cfd:	5d                   	pop    %rbp
    6cfe:	c3                   	retq   

0000000000006cff <safe_add_func_uint16_t_u_u>:
    6cff:	f3 0f 1e fa          	endbr64 
    6d03:	55                   	push   %rbp
    6d04:	48 89 e5             	mov    %rsp,%rbp
    6d07:	89 fa                	mov    %edi,%edx
    6d09:	89 f0                	mov    %esi,%eax
    6d0b:	66 89 55 fc          	mov    %dx,-0x4(%rbp)
    6d0f:	66 89 45 f8          	mov    %ax,-0x8(%rbp)
    6d13:	0f b7 55 fc          	movzwl -0x4(%rbp),%edx
    6d17:	0f b7 45 f8          	movzwl -0x8(%rbp),%eax
    6d1b:	01 d0                	add    %edx,%eax
    6d1d:	5d                   	pop    %rbp
    6d1e:	c3                   	retq   

0000000000006d1f <safe_sub_func_uint16_t_u_u>:
    6d1f:	f3 0f 1e fa          	endbr64 
    6d23:	55                   	push   %rbp
    6d24:	48 89 e5             	mov    %rsp,%rbp
    6d27:	89 fa                	mov    %edi,%edx
    6d29:	89 f0                	mov    %esi,%eax
    6d2b:	66 89 55 fc          	mov    %dx,-0x4(%rbp)
    6d2f:	66 89 45 f8          	mov    %ax,-0x8(%rbp)
    6d33:	0f b7 45 fc          	movzwl -0x4(%rbp),%eax
    6d37:	66 2b 45 f8          	sub    -0x8(%rbp),%ax
    6d3b:	5d                   	pop    %rbp
    6d3c:	c3                   	retq   

0000000000006d3d <safe_mul_func_uint16_t_u_u>:
    6d3d:	f3 0f 1e fa          	endbr64 
    6d41:	55                   	push   %rbp
    6d42:	48 89 e5             	mov    %rsp,%rbp
    6d45:	89 fa                	mov    %edi,%edx
    6d47:	89 f0                	mov    %esi,%eax
    6d49:	66 89 55 fc          	mov    %dx,-0x4(%rbp)
    6d4d:	66 89 45 f8          	mov    %ax,-0x8(%rbp)
    6d51:	0f b7 45 fc          	movzwl -0x4(%rbp),%eax
    6d55:	66 0f af 45 f8       	imul   -0x8(%rbp),%ax
    6d5a:	5d                   	pop    %rbp
    6d5b:	c3                   	retq   

0000000000006d5c <safe_mod_func_uint16_t_u_u>:
    6d5c:	f3 0f 1e fa          	endbr64 
    6d60:	55                   	push   %rbp
    6d61:	48 89 e5             	mov    %rsp,%rbp
    6d64:	89 fa                	mov    %edi,%edx
    6d66:	89 f0                	mov    %esi,%eax
    6d68:	66 89 55 fc          	mov    %dx,-0x4(%rbp)
    6d6c:	66 89 45 f8          	mov    %ax,-0x8(%rbp)
    6d70:	66 83 7d f8 00       	cmpw   $0x0,-0x8(%rbp)
    6d75:	74 11                	je     6d88 <safe_mod_func_uint16_t_u_u+0x2c>
    6d77:	0f b7 45 fc          	movzwl -0x4(%rbp),%eax
    6d7b:	ba 00 00 00 00       	mov    $0x0,%edx
    6d80:	66 f7 75 f8          	divw   -0x8(%rbp)
    6d84:	89 d0                	mov    %edx,%eax
    6d86:	eb 04                	jmp    6d8c <safe_mod_func_uint16_t_u_u+0x30>
    6d88:	0f b7 45 fc          	movzwl -0x4(%rbp),%eax
    6d8c:	5d                   	pop    %rbp
    6d8d:	c3                   	retq   

0000000000006d8e <safe_div_func_uint16_t_u_u>:
    6d8e:	f3 0f 1e fa          	endbr64 
    6d92:	55                   	push   %rbp
    6d93:	48 89 e5             	mov    %rsp,%rbp
    6d96:	89 fa                	mov    %edi,%edx
    6d98:	89 f0                	mov    %esi,%eax
    6d9a:	66 89 55 fc          	mov    %dx,-0x4(%rbp)
    6d9e:	66 89 45 f8          	mov    %ax,-0x8(%rbp)
    6da2:	66 83 7d f8 00       	cmpw   $0x0,-0x8(%rbp)
    6da7:	74 0f                	je     6db8 <safe_div_func_uint16_t_u_u+0x2a>
    6da9:	0f b7 45 fc          	movzwl -0x4(%rbp),%eax
    6dad:	ba 00 00 00 00       	mov    $0x0,%edx
    6db2:	66 f7 75 f8          	divw   -0x8(%rbp)
    6db6:	eb 04                	jmp    6dbc <safe_div_func_uint16_t_u_u+0x2e>
    6db8:	0f b7 45 fc          	movzwl -0x4(%rbp),%eax
    6dbc:	5d                   	pop    %rbp
    6dbd:	c3                   	retq   

0000000000006dbe <safe_lshift_func_uint16_t_u_s>:
    6dbe:	f3 0f 1e fa          	endbr64 
    6dc2:	55                   	push   %rbp
    6dc3:	48 89 e5             	mov    %rsp,%rbp
    6dc6:	89 f8                	mov    %edi,%eax
    6dc8:	89 75 f8             	mov    %esi,-0x8(%rbp)
    6dcb:	66 89 45 fc          	mov    %ax,-0x4(%rbp)
    6dcf:	83 7d f8 00          	cmpl   $0x0,-0x8(%rbp)
    6dd3:	78 2b                	js     6e00 <safe_lshift_func_uint16_t_u_s+0x42>
    6dd5:	83 7d f8 1f          	cmpl   $0x1f,-0x8(%rbp)
    6dd9:	7f 25                	jg     6e00 <safe_lshift_func_uint16_t_u_s+0x42>
    6ddb:	0f b7 55 fc          	movzwl -0x4(%rbp),%edx
    6ddf:	8b 45 f8             	mov    -0x8(%rbp),%eax
    6de2:	be ff ff 00 00       	mov    $0xffff,%esi
    6de7:	89 c1                	mov    %eax,%ecx
    6de9:	d3 fe                	sar    %cl,%esi
    6deb:	89 f0                	mov    %esi,%eax
    6ded:	39 c2                	cmp    %eax,%edx
    6def:	7f 0f                	jg     6e00 <safe_lshift_func_uint16_t_u_s+0x42>
    6df1:	0f b7 55 fc          	movzwl -0x4(%rbp),%edx
    6df5:	8b 45 f8             	mov    -0x8(%rbp),%eax
    6df8:	89 c1                	mov    %eax,%ecx
    6dfa:	d3 e2                	shl    %cl,%edx
    6dfc:	89 d0                	mov    %edx,%eax
    6dfe:	eb 04                	jmp    6e04 <safe_lshift_func_uint16_t_u_s+0x46>
    6e00:	0f b7 45 fc          	movzwl -0x4(%rbp),%eax
    6e04:	5d                   	pop    %rbp
    6e05:	c3                   	retq   

0000000000006e06 <safe_lshift_func_uint16_t_u_u>:
    6e06:	f3 0f 1e fa          	endbr64 
    6e0a:	55                   	push   %rbp
    6e0b:	48 89 e5             	mov    %rsp,%rbp
    6e0e:	89 f8                	mov    %edi,%eax
    6e10:	89 75 f8             	mov    %esi,-0x8(%rbp)
    6e13:	66 89 45 fc          	mov    %ax,-0x4(%rbp)
    6e17:	83 7d f8 1f          	cmpl   $0x1f,-0x8(%rbp)
    6e1b:	77 25                	ja     6e42 <safe_lshift_func_uint16_t_u_u+0x3c>
    6e1d:	0f b7 55 fc          	movzwl -0x4(%rbp),%edx
    6e21:	8b 45 f8             	mov    -0x8(%rbp),%eax
    6e24:	be ff ff 00 00       	mov    $0xffff,%esi
    6e29:	89 c1                	mov    %eax,%ecx
    6e2b:	d3 fe                	sar    %cl,%esi
    6e2d:	89 f0                	mov    %esi,%eax
    6e2f:	39 c2                	cmp    %eax,%edx
    6e31:	7f 0f                	jg     6e42 <safe_lshift_func_uint16_t_u_u+0x3c>
    6e33:	0f b7 55 fc          	movzwl -0x4(%rbp),%edx
    6e37:	8b 45 f8             	mov    -0x8(%rbp),%eax
    6e3a:	89 c1                	mov    %eax,%ecx
    6e3c:	d3 e2                	shl    %cl,%edx
    6e3e:	89 d0                	mov    %edx,%eax
    6e40:	eb 04                	jmp    6e46 <safe_lshift_func_uint16_t_u_u+0x40>
    6e42:	0f b7 45 fc          	movzwl -0x4(%rbp),%eax
    6e46:	5d                   	pop    %rbp
    6e47:	c3                   	retq   

0000000000006e48 <safe_rshift_func_uint16_t_u_s>:
    6e48:	f3 0f 1e fa          	endbr64 
    6e4c:	55                   	push   %rbp
    6e4d:	48 89 e5             	mov    %rsp,%rbp
    6e50:	89 f8                	mov    %edi,%eax
    6e52:	89 75 f8             	mov    %esi,-0x8(%rbp)
    6e55:	66 89 45 fc          	mov    %ax,-0x4(%rbp)
    6e59:	83 7d f8 00          	cmpl   $0x0,-0x8(%rbp)
    6e5d:	78 15                	js     6e74 <safe_rshift_func_uint16_t_u_s+0x2c>
    6e5f:	83 7d f8 1f          	cmpl   $0x1f,-0x8(%rbp)
    6e63:	7f 0f                	jg     6e74 <safe_rshift_func_uint16_t_u_s+0x2c>
    6e65:	0f b7 55 fc          	movzwl -0x4(%rbp),%edx
    6e69:	8b 45 f8             	mov    -0x8(%rbp),%eax
    6e6c:	89 c1                	mov    %eax,%ecx
    6e6e:	d3 fa                	sar    %cl,%edx
    6e70:	89 d0                	mov    %edx,%eax
    6e72:	eb 04                	jmp    6e78 <safe_rshift_func_uint16_t_u_s+0x30>
    6e74:	0f b7 45 fc          	movzwl -0x4(%rbp),%eax
    6e78:	5d                   	pop    %rbp
    6e79:	c3                   	retq   

0000000000006e7a <safe_rshift_func_uint16_t_u_u>:
    6e7a:	f3 0f 1e fa          	endbr64 
    6e7e:	55                   	push   %rbp
    6e7f:	48 89 e5             	mov    %rsp,%rbp
    6e82:	89 f8                	mov    %edi,%eax
    6e84:	89 75 f8             	mov    %esi,-0x8(%rbp)
    6e87:	66 89 45 fc          	mov    %ax,-0x4(%rbp)
    6e8b:	83 7d f8 1f          	cmpl   $0x1f,-0x8(%rbp)
    6e8f:	77 0f                	ja     6ea0 <safe_rshift_func_uint16_t_u_u+0x26>
    6e91:	0f b7 55 fc          	movzwl -0x4(%rbp),%edx
    6e95:	8b 45 f8             	mov    -0x8(%rbp),%eax
    6e98:	89 c1                	mov    %eax,%ecx
    6e9a:	d3 fa                	sar    %cl,%edx
    6e9c:	89 d0                	mov    %edx,%eax
    6e9e:	eb 04                	jmp    6ea4 <safe_rshift_func_uint16_t_u_u+0x2a>
    6ea0:	0f b7 45 fc          	movzwl -0x4(%rbp),%eax
    6ea4:	5d                   	pop    %rbp
    6ea5:	c3                   	retq   

0000000000006ea6 <safe_unary_minus_func_uint32_t_u>:
    6ea6:	f3 0f 1e fa          	endbr64 
    6eaa:	55                   	push   %rbp
    6eab:	48 89 e5             	mov    %rsp,%rbp
    6eae:	89 7d fc             	mov    %edi,-0x4(%rbp)
    6eb1:	8b 45 fc             	mov    -0x4(%rbp),%eax
    6eb4:	f7 d8                	neg    %eax
    6eb6:	5d                   	pop    %rbp
    6eb7:	c3                   	retq   

0000000000006eb8 <safe_add_func_uint32_t_u_u>:
    6eb8:	f3 0f 1e fa          	endbr64 
    6ebc:	55                   	push   %rbp
    6ebd:	48 89 e5             	mov    %rsp,%rbp
    6ec0:	89 7d fc             	mov    %edi,-0x4(%rbp)
    6ec3:	89 75 f8             	mov    %esi,-0x8(%rbp)
    6ec6:	8b 55 fc             	mov    -0x4(%rbp),%edx
    6ec9:	8b 45 f8             	mov    -0x8(%rbp),%eax
    6ecc:	01 d0                	add    %edx,%eax
    6ece:	5d                   	pop    %rbp
    6ecf:	c3                   	retq   

0000000000006ed0 <safe_sub_func_uint32_t_u_u>:
    6ed0:	f3 0f 1e fa          	endbr64 
    6ed4:	55                   	push   %rbp
    6ed5:	48 89 e5             	mov    %rsp,%rbp
    6ed8:	89 7d fc             	mov    %edi,-0x4(%rbp)
    6edb:	89 75 f8             	mov    %esi,-0x8(%rbp)
    6ede:	8b 45 fc             	mov    -0x4(%rbp),%eax
    6ee1:	2b 45 f8             	sub    -0x8(%rbp),%eax
    6ee4:	5d                   	pop    %rbp
    6ee5:	c3                   	retq   

0000000000006ee6 <safe_mul_func_uint32_t_u_u>:
    6ee6:	f3 0f 1e fa          	endbr64 
    6eea:	55                   	push   %rbp
    6eeb:	48 89 e5             	mov    %rsp,%rbp
    6eee:	89 7d fc             	mov    %edi,-0x4(%rbp)
    6ef1:	89 75 f8             	mov    %esi,-0x8(%rbp)
    6ef4:	8b 45 fc             	mov    -0x4(%rbp),%eax
    6ef7:	0f af 45 f8          	imul   -0x8(%rbp),%eax
    6efb:	5d                   	pop    %rbp
    6efc:	c3                   	retq   

0000000000006efd <safe_mod_func_uint32_t_u_u>:
    6efd:	f3 0f 1e fa          	endbr64 
    6f01:	55                   	push   %rbp
    6f02:	48 89 e5             	mov    %rsp,%rbp
    6f05:	89 7d fc             	mov    %edi,-0x4(%rbp)
    6f08:	89 75 f8             	mov    %esi,-0x8(%rbp)
    6f0b:	83 7d f8 00          	cmpl   $0x0,-0x8(%rbp)
    6f0f:	74 0f                	je     6f20 <safe_mod_func_uint32_t_u_u+0x23>
    6f11:	8b 45 fc             	mov    -0x4(%rbp),%eax
    6f14:	ba 00 00 00 00       	mov    $0x0,%edx
    6f19:	f7 75 f8             	divl   -0x8(%rbp)
    6f1c:	89 d0                	mov    %edx,%eax
    6f1e:	eb 03                	jmp    6f23 <safe_mod_func_uint32_t_u_u+0x26>
    6f20:	8b 45 fc             	mov    -0x4(%rbp),%eax
    6f23:	5d                   	pop    %rbp
    6f24:	c3                   	retq   

0000000000006f25 <safe_div_func_uint32_t_u_u>:
    6f25:	f3 0f 1e fa          	endbr64 
    6f29:	55                   	push   %rbp
    6f2a:	48 89 e5             	mov    %rsp,%rbp
    6f2d:	89 7d fc             	mov    %edi,-0x4(%rbp)
    6f30:	89 75 f8             	mov    %esi,-0x8(%rbp)
    6f33:	83 7d f8 00          	cmpl   $0x0,-0x8(%rbp)
    6f37:	74 0d                	je     6f46 <safe_div_func_uint32_t_u_u+0x21>
    6f39:	8b 45 fc             	mov    -0x4(%rbp),%eax
    6f3c:	ba 00 00 00 00       	mov    $0x0,%edx
    6f41:	f7 75 f8             	divl   -0x8(%rbp)
    6f44:	eb 03                	jmp    6f49 <safe_div_func_uint32_t_u_u+0x24>
    6f46:	8b 45 fc             	mov    -0x4(%rbp),%eax
    6f49:	5d                   	pop    %rbp
    6f4a:	c3                   	retq   

0000000000006f4b <safe_lshift_func_uint32_t_u_s>:
    6f4b:	f3 0f 1e fa          	endbr64 
    6f4f:	55                   	push   %rbp
    6f50:	48 89 e5             	mov    %rsp,%rbp
    6f53:	89 7d fc             	mov    %edi,-0x4(%rbp)
    6f56:	89 75 f8             	mov    %esi,-0x8(%rbp)
    6f59:	83 7d f8 00          	cmpl   $0x0,-0x8(%rbp)
    6f5d:	78 27                	js     6f86 <safe_lshift_func_uint32_t_u_s+0x3b>
    6f5f:	83 7d f8 1f          	cmpl   $0x1f,-0x8(%rbp)
    6f63:	7f 21                	jg     6f86 <safe_lshift_func_uint32_t_u_s+0x3b>
    6f65:	8b 45 f8             	mov    -0x8(%rbp),%eax
    6f68:	ba ff ff ff ff       	mov    $0xffffffff,%edx
    6f6d:	89 c1                	mov    %eax,%ecx
    6f6f:	d3 ea                	shr    %cl,%edx
    6f71:	89 d0                	mov    %edx,%eax
    6f73:	39 45 fc             	cmp    %eax,-0x4(%rbp)
    6f76:	77 0e                	ja     6f86 <safe_lshift_func_uint32_t_u_s+0x3b>
    6f78:	8b 45 f8             	mov    -0x8(%rbp),%eax
    6f7b:	8b 55 fc             	mov    -0x4(%rbp),%edx
    6f7e:	89 c1                	mov    %eax,%ecx
    6f80:	d3 e2                	shl    %cl,%edx
    6f82:	89 d0                	mov    %edx,%eax
    6f84:	eb 03                	jmp    6f89 <safe_lshift_func_uint32_t_u_s+0x3e>
    6f86:	8b 45 fc             	mov    -0x4(%rbp),%eax
    6f89:	5d                   	pop    %rbp
    6f8a:	c3                   	retq   

0000000000006f8b <safe_lshift_func_uint32_t_u_u>:
    6f8b:	f3 0f 1e fa          	endbr64 
    6f8f:	55                   	push   %rbp
    6f90:	48 89 e5             	mov    %rsp,%rbp
    6f93:	89 7d fc             	mov    %edi,-0x4(%rbp)
    6f96:	89 75 f8             	mov    %esi,-0x8(%rbp)
    6f99:	83 7d f8 1f          	cmpl   $0x1f,-0x8(%rbp)
    6f9d:	77 21                	ja     6fc0 <safe_lshift_func_uint32_t_u_u+0x35>
    6f9f:	8b 45 f8             	mov    -0x8(%rbp),%eax
    6fa2:	ba ff ff ff ff       	mov    $0xffffffff,%edx
    6fa7:	89 c1                	mov    %eax,%ecx
    6fa9:	d3 ea                	shr    %cl,%edx
    6fab:	89 d0                	mov    %edx,%eax
    6fad:	39 45 fc             	cmp    %eax,-0x4(%rbp)
    6fb0:	77 0e                	ja     6fc0 <safe_lshift_func_uint32_t_u_u+0x35>
    6fb2:	8b 45 f8             	mov    -0x8(%rbp),%eax
    6fb5:	8b 55 fc             	mov    -0x4(%rbp),%edx
    6fb8:	89 c1                	mov    %eax,%ecx
    6fba:	d3 e2                	shl    %cl,%edx
    6fbc:	89 d0                	mov    %edx,%eax
    6fbe:	eb 03                	jmp    6fc3 <safe_lshift_func_uint32_t_u_u+0x38>
    6fc0:	8b 45 fc             	mov    -0x4(%rbp),%eax
    6fc3:	5d                   	pop    %rbp
    6fc4:	c3                   	retq   

0000000000006fc5 <safe_rshift_func_uint32_t_u_s>:
    6fc5:	f3 0f 1e fa          	endbr64 
    6fc9:	55                   	push   %rbp
    6fca:	48 89 e5             	mov    %rsp,%rbp
    6fcd:	89 7d fc             	mov    %edi,-0x4(%rbp)
    6fd0:	89 75 f8             	mov    %esi,-0x8(%rbp)
    6fd3:	83 7d f8 00          	cmpl   $0x0,-0x8(%rbp)
    6fd7:	78 14                	js     6fed <safe_rshift_func_uint32_t_u_s+0x28>
    6fd9:	83 7d f8 1f          	cmpl   $0x1f,-0x8(%rbp)
    6fdd:	7f 0e                	jg     6fed <safe_rshift_func_uint32_t_u_s+0x28>
    6fdf:	8b 45 f8             	mov    -0x8(%rbp),%eax
    6fe2:	8b 55 fc             	mov    -0x4(%rbp),%edx
    6fe5:	89 c1                	mov    %eax,%ecx
    6fe7:	d3 ea                	shr    %cl,%edx
    6fe9:	89 d0                	mov    %edx,%eax
    6feb:	eb 03                	jmp    6ff0 <safe_rshift_func_uint32_t_u_s+0x2b>
    6fed:	8b 45 fc             	mov    -0x4(%rbp),%eax
    6ff0:	5d                   	pop    %rbp
    6ff1:	c3                   	retq   

0000000000006ff2 <safe_rshift_func_uint32_t_u_u>:
    6ff2:	f3 0f 1e fa          	endbr64 
    6ff6:	55                   	push   %rbp
    6ff7:	48 89 e5             	mov    %rsp,%rbp
    6ffa:	89 7d fc             	mov    %edi,-0x4(%rbp)
    6ffd:	89 75 f8             	mov    %esi,-0x8(%rbp)
    7000:	83 7d f8 1f          	cmpl   $0x1f,-0x8(%rbp)
    7004:	77 0e                	ja     7014 <safe_rshift_func_uint32_t_u_u+0x22>
    7006:	8b 45 f8             	mov    -0x8(%rbp),%eax
    7009:	8b 55 fc             	mov    -0x4(%rbp),%edx
    700c:	89 c1                	mov    %eax,%ecx
    700e:	d3 ea                	shr    %cl,%edx
    7010:	89 d0                	mov    %edx,%eax
    7012:	eb 03                	jmp    7017 <safe_rshift_func_uint32_t_u_u+0x25>
    7014:	8b 45 fc             	mov    -0x4(%rbp),%eax
    7017:	5d                   	pop    %rbp
    7018:	c3                   	retq   

0000000000007019 <safe_unary_minus_func_uint64_t_u>:
    7019:	f3 0f 1e fa          	endbr64 
    701d:	55                   	push   %rbp
    701e:	48 89 e5             	mov    %rsp,%rbp
    7021:	48 89 7d f8          	mov    %rdi,-0x8(%rbp)
    7025:	48 8b 45 f8          	mov    -0x8(%rbp),%rax
    7029:	48 f7 d8             	neg    %rax
    702c:	5d                   	pop    %rbp
    702d:	c3                   	retq   

000000000000702e <safe_add_func_uint64_t_u_u>:
    702e:	f3 0f 1e fa          	endbr64 
    7032:	55                   	push   %rbp
    7033:	48 89 e5             	mov    %rsp,%rbp
    7036:	48 89 7d f8          	mov    %rdi,-0x8(%rbp)
    703a:	48 89 75 f0          	mov    %rsi,-0x10(%rbp)
    703e:	48 8b 55 f8          	mov    -0x8(%rbp),%rdx
    7042:	48 8b 45 f0          	mov    -0x10(%rbp),%rax
    7046:	48 01 d0             	add    %rdx,%rax
    7049:	5d                   	pop    %rbp
    704a:	c3                   	retq   

000000000000704b <safe_sub_func_uint64_t_u_u>:
    704b:	f3 0f 1e fa          	endbr64 
    704f:	55                   	push   %rbp
    7050:	48 89 e5             	mov    %rsp,%rbp
    7053:	48 89 7d f8          	mov    %rdi,-0x8(%rbp)
    7057:	48 89 75 f0          	mov    %rsi,-0x10(%rbp)
    705b:	48 8b 45 f8          	mov    -0x8(%rbp),%rax
    705f:	48 2b 45 f0          	sub    -0x10(%rbp),%rax
    7063:	5d                   	pop    %rbp
    7064:	c3                   	retq   

0000000000007065 <safe_mul_func_uint64_t_u_u>:
    7065:	f3 0f 1e fa          	endbr64 
    7069:	55                   	push   %rbp
    706a:	48 89 e5             	mov    %rsp,%rbp
    706d:	48 89 7d f8          	mov    %rdi,-0x8(%rbp)
    7071:	48 89 75 f0          	mov    %rsi,-0x10(%rbp)
    7075:	48 8b 45 f8          	mov    -0x8(%rbp),%rax
    7079:	48 0f af 45 f0       	imul   -0x10(%rbp),%rax
    707e:	5d                   	pop    %rbp
    707f:	c3                   	retq   

0000000000007080 <safe_mod_func_uint64_t_u_u>:
    7080:	f3 0f 1e fa          	endbr64 
    7084:	55                   	push   %rbp
    7085:	48 89 e5             	mov    %rsp,%rbp
    7088:	48 89 7d f8          	mov    %rdi,-0x8(%rbp)
    708c:	48 89 75 f0          	mov    %rsi,-0x10(%rbp)
    7090:	48 83 7d f0 00       	cmpq   $0x0,-0x10(%rbp)
    7095:	74 12                	je     70a9 <safe_mod_func_uint64_t_u_u+0x29>
    7097:	48 8b 45 f8          	mov    -0x8(%rbp),%rax
    709b:	ba 00 00 00 00       	mov    $0x0,%edx
    70a0:	48 f7 75 f0          	divq   -0x10(%rbp)
    70a4:	48 89 d0             	mov    %rdx,%rax
    70a7:	eb 04                	jmp    70ad <safe_mod_func_uint64_t_u_u+0x2d>
    70a9:	48 8b 45 f8          	mov    -0x8(%rbp),%rax
    70ad:	5d                   	pop    %rbp
    70ae:	c3                   	retq   

00000000000070af <safe_div_func_uint64_t_u_u>:
    70af:	f3 0f 1e fa          	endbr64 
    70b3:	55                   	push   %rbp
    70b4:	48 89 e5             	mov    %rsp,%rbp
    70b7:	48 89 7d f8          	mov    %rdi,-0x8(%rbp)
    70bb:	48 89 75 f0          	mov    %rsi,-0x10(%rbp)
    70bf:	48 83 7d f0 00       	cmpq   $0x0,-0x10(%rbp)
    70c4:	74 0f                	je     70d5 <safe_div_func_uint64_t_u_u+0x26>
    70c6:	48 8b 45 f8          	mov    -0x8(%rbp),%rax
    70ca:	ba 00 00 00 00       	mov    $0x0,%edx
    70cf:	48 f7 75 f0          	divq   -0x10(%rbp)
    70d3:	eb 04                	jmp    70d9 <safe_div_func_uint64_t_u_u+0x2a>
    70d5:	48 8b 45 f8          	mov    -0x8(%rbp),%rax
    70d9:	5d                   	pop    %rbp
    70da:	c3                   	retq   

00000000000070db <safe_lshift_func_uint64_t_u_s>:
    70db:	f3 0f 1e fa          	endbr64 
    70df:	55                   	push   %rbp
    70e0:	48 89 e5             	mov    %rsp,%rbp
    70e3:	48 89 7d f8          	mov    %rdi,-0x8(%rbp)
    70e7:	89 75 f4             	mov    %esi,-0xc(%rbp)
    70ea:	83 7d f4 00          	cmpl   $0x0,-0xc(%rbp)
    70ee:	78 2f                	js     711f <safe_lshift_func_uint64_t_u_s+0x44>
    70f0:	83 7d f4 1f          	cmpl   $0x1f,-0xc(%rbp)
    70f4:	7f 29                	jg     711f <safe_lshift_func_uint64_t_u_s+0x44>
    70f6:	8b 45 f4             	mov    -0xc(%rbp),%eax
    70f9:	48 c7 c2 ff ff ff ff 	mov    $0xffffffffffffffff,%rdx
    7100:	89 c1                	mov    %eax,%ecx
    7102:	48 d3 ea             	shr    %cl,%rdx
    7105:	48 89 d0             	mov    %rdx,%rax
    7108:	48 39 45 f8          	cmp    %rax,-0x8(%rbp)
    710c:	77 11                	ja     711f <safe_lshift_func_uint64_t_u_s+0x44>
    710e:	8b 45 f4             	mov    -0xc(%rbp),%eax
    7111:	48 8b 55 f8          	mov    -0x8(%rbp),%rdx
    7115:	89 c1                	mov    %eax,%ecx
    7117:	48 d3 e2             	shl    %cl,%rdx
    711a:	48 89 d0             	mov    %rdx,%rax
    711d:	eb 04                	jmp    7123 <safe_lshift_func_uint64_t_u_s+0x48>
    711f:	48 8b 45 f8          	mov    -0x8(%rbp),%rax
    7123:	5d                   	pop    %rbp
    7124:	c3                   	retq   

0000000000007125 <safe_lshift_func_uint64_t_u_u>:
    7125:	f3 0f 1e fa          	endbr64 
    7129:	55                   	push   %rbp
    712a:	48 89 e5             	mov    %rsp,%rbp
    712d:	48 89 7d f8          	mov    %rdi,-0x8(%rbp)
    7131:	89 75 f4             	mov    %esi,-0xc(%rbp)
    7134:	83 7d f4 1f          	cmpl   $0x1f,-0xc(%rbp)
    7138:	77 29                	ja     7163 <safe_lshift_func_uint64_t_u_u+0x3e>
    713a:	8b 45 f4             	mov    -0xc(%rbp),%eax
    713d:	48 c7 c2 ff ff ff ff 	mov    $0xffffffffffffffff,%rdx
    7144:	89 c1                	mov    %eax,%ecx
    7146:	48 d3 ea             	shr    %cl,%rdx
    7149:	48 89 d0             	mov    %rdx,%rax
    714c:	48 39 45 f8          	cmp    %rax,-0x8(%rbp)
    7150:	77 11                	ja     7163 <safe_lshift_func_uint64_t_u_u+0x3e>
    7152:	8b 45 f4             	mov    -0xc(%rbp),%eax
    7155:	48 8b 55 f8          	mov    -0x8(%rbp),%rdx
    7159:	89 c1                	mov    %eax,%ecx
    715b:	48 d3 e2             	shl    %cl,%rdx
    715e:	48 89 d0             	mov    %rdx,%rax
    7161:	eb 04                	jmp    7167 <safe_lshift_func_uint64_t_u_u+0x42>
    7163:	48 8b 45 f8          	mov    -0x8(%rbp),%rax
    7167:	5d                   	pop    %rbp
    7168:	c3                   	retq   

0000000000007169 <safe_rshift_func_uint64_t_u_s>:
    7169:	f3 0f 1e fa          	endbr64 
    716d:	55                   	push   %rbp
    716e:	48 89 e5             	mov    %rsp,%rbp
    7171:	48 89 7d f8          	mov    %rdi,-0x8(%rbp)
    7175:	89 75 f4             	mov    %esi,-0xc(%rbp)
    7178:	83 7d f4 00          	cmpl   $0x0,-0xc(%rbp)
    717c:	78 17                	js     7195 <safe_rshift_func_uint64_t_u_s+0x2c>
    717e:	83 7d f4 1f          	cmpl   $0x1f,-0xc(%rbp)
    7182:	7f 11                	jg     7195 <safe_rshift_func_uint64_t_u_s+0x2c>
    7184:	8b 45 f4             	mov    -0xc(%rbp),%eax
    7187:	48 8b 55 f8          	mov    -0x8(%rbp),%rdx
    718b:	89 c1                	mov    %eax,%ecx
    718d:	48 d3 ea             	shr    %cl,%rdx
    7190:	48 89 d0             	mov    %rdx,%rax
    7193:	eb 04                	jmp    7199 <safe_rshift_func_uint64_t_u_s+0x30>
    7195:	48 8b 45 f8          	mov    -0x8(%rbp),%rax
    7199:	5d                   	pop    %rbp
    719a:	c3                   	retq   

000000000000719b <safe_rshift_func_uint64_t_u_u>:
    719b:	f3 0f 1e fa          	endbr64 
    719f:	55                   	push   %rbp
    71a0:	48 89 e5             	mov    %rsp,%rbp
    71a3:	48 89 7d f8          	mov    %rdi,-0x8(%rbp)
    71a7:	89 75 f4             	mov    %esi,-0xc(%rbp)
    71aa:	83 7d f4 1f          	cmpl   $0x1f,-0xc(%rbp)
    71ae:	77 11                	ja     71c1 <safe_rshift_func_uint64_t_u_u+0x26>
    71b0:	8b 45 f4             	mov    -0xc(%rbp),%eax
    71b3:	48 8b 55 f8          	mov    -0x8(%rbp),%rdx
    71b7:	89 c1                	mov    %eax,%ecx
    71b9:	48 d3 ea             	shr    %cl,%rdx
    71bc:	48 89 d0             	mov    %rdx,%rax
    71bf:	eb 04                	jmp    71c5 <safe_rshift_func_uint64_t_u_u+0x2a>
    71c1:	48 8b 45 f8          	mov    -0x8(%rbp),%rax
    71c5:	5d                   	pop    %rbp
    71c6:	c3                   	retq   

00000000000071c7 <safe_add_func_float_f_f>:
    71c7:	f3 0f 1e fa          	endbr64 
    71cb:	55                   	push   %rbp
    71cc:	48 89 e5             	mov    %rsp,%rbp
    71cf:	f3 0f 11 45 fc       	movss  %xmm0,-0x4(%rbp)
    71d4:	f3 0f 11 4d f8       	movss  %xmm1,-0x8(%rbp)
    71d9:	f3 0f 10 4d fc       	movss  -0x4(%rbp),%xmm1
    71de:	f3 0f 10 05 9a 67 01 	movss  0x1679a(%rip),%xmm0        # 1d980 <l_613.5000+0xc0>
    71e5:	00 
    71e6:	f3 0f 59 c8          	mulss  %xmm0,%xmm1
    71ea:	f3 0f 10 55 f8       	movss  -0x8(%rbp),%xmm2
    71ef:	f3 0f 10 05 89 67 01 	movss  0x16789(%rip),%xmm0        # 1d980 <l_613.5000+0xc0>
    71f6:	00 
    71f7:	f3 0f 59 c2          	mulss  %xmm2,%xmm0
    71fb:	f3 0f 58 c1          	addss  %xmm1,%xmm0
    71ff:	f3 0f 10 0d 89 67 01 	movss  0x16789(%rip),%xmm1        # 1d990 <l_613.5000+0xd0>
    7206:	00 
    7207:	0f 54 c1             	andps  %xmm1,%xmm0
    720a:	0f 2f 05 8f 67 01 00 	comiss 0x1678f(%rip),%xmm0        # 1d9a0 <l_613.5000+0xe0>
    7211:	76 07                	jbe    721a <safe_add_func_float_f_f+0x53>
    7213:	f3 0f 10 45 fc       	movss  -0x4(%rbp),%xmm0
    7218:	eb 0a                	jmp    7224 <safe_add_func_float_f_f+0x5d>
    721a:	f3 0f 10 45 fc       	movss  -0x4(%rbp),%xmm0
    721f:	f3 0f 58 45 f8       	addss  -0x8(%rbp),%xmm0
    7224:	5d                   	pop    %rbp
    7225:	c3                   	retq   

0000000000007226 <safe_sub_func_float_f_f>:
    7226:	f3 0f 1e fa          	endbr64 
    722a:	55                   	push   %rbp
    722b:	48 89 e5             	mov    %rsp,%rbp
    722e:	f3 0f 11 45 fc       	movss  %xmm0,-0x4(%rbp)
    7233:	f3 0f 11 4d f8       	movss  %xmm1,-0x8(%rbp)
    7238:	f3 0f 10 4d fc       	movss  -0x4(%rbp),%xmm1
    723d:	f3 0f 10 05 3b 67 01 	movss  0x1673b(%rip),%xmm0        # 1d980 <l_613.5000+0xc0>
    7244:	00 
    7245:	f3 0f 59 c1          	mulss  %xmm1,%xmm0
    7249:	f3 0f 10 55 f8       	movss  -0x8(%rbp),%xmm2
    724e:	f3 0f 10 0d 2a 67 01 	movss  0x1672a(%rip),%xmm1        # 1d980 <l_613.5000+0xc0>
    7255:	00 
    7256:	f3 0f 59 ca          	mulss  %xmm2,%xmm1
    725a:	f3 0f 5c c1          	subss  %xmm1,%xmm0
    725e:	f3 0f 10 0d 2a 67 01 	movss  0x1672a(%rip),%xmm1        # 1d990 <l_613.5000+0xd0>
    7265:	00 
    7266:	0f 54 c1             	andps  %xmm1,%xmm0
    7269:	0f 2f 05 30 67 01 00 	comiss 0x16730(%rip),%xmm0        # 1d9a0 <l_613.5000+0xe0>
    7270:	76 07                	jbe    7279 <safe_sub_func_float_f_f+0x53>
    7272:	f3 0f 10 45 fc       	movss  -0x4(%rbp),%xmm0
    7277:	eb 0a                	jmp    7283 <safe_sub_func_float_f_f+0x5d>
    7279:	f3 0f 10 45 fc       	movss  -0x4(%rbp),%xmm0
    727e:	f3 0f 5c 45 f8       	subss  -0x8(%rbp),%xmm0
    7283:	5d                   	pop    %rbp
    7284:	c3                   	retq   

0000000000007285 <safe_mul_func_float_f_f>:
    7285:	f3 0f 1e fa          	endbr64 
    7289:	55                   	push   %rbp
    728a:	48 89 e5             	mov    %rsp,%rbp
    728d:	f3 0f 11 45 fc       	movss  %xmm0,-0x4(%rbp)
    7292:	f3 0f 11 4d f8       	movss  %xmm1,-0x8(%rbp)
    7297:	f3 0f 10 4d fc       	movss  -0x4(%rbp),%xmm1
    729c:	f3 0f 10 05 00 67 01 	movss  0x16700(%rip),%xmm0        # 1d9a4 <l_613.5000+0xe4>
    72a3:	00 
    72a4:	f3 0f 59 c8          	mulss  %xmm0,%xmm1
    72a8:	f3 0f 10 55 f8       	movss  -0x8(%rbp),%xmm2
    72ad:	f3 0f 10 05 f3 66 01 	movss  0x166f3(%rip),%xmm0        # 1d9a8 <l_613.5000+0xe8>
    72b4:	00 
    72b5:	f3 0f 59 c2          	mulss  %xmm2,%xmm0
    72b9:	f3 0f 59 c1          	mulss  %xmm1,%xmm0
    72bd:	f3 0f 10 0d cb 66 01 	movss  0x166cb(%rip),%xmm1        # 1d990 <l_613.5000+0xd0>
    72c4:	00 
    72c5:	0f 54 c1             	andps  %xmm1,%xmm0
    72c8:	0f 2f 05 dd 66 01 00 	comiss 0x166dd(%rip),%xmm0        # 1d9ac <l_613.5000+0xec>
    72cf:	76 07                	jbe    72d8 <safe_mul_func_float_f_f+0x53>
    72d1:	f3 0f 10 45 fc       	movss  -0x4(%rbp),%xmm0
    72d6:	eb 0a                	jmp    72e2 <safe_mul_func_float_f_f+0x5d>
    72d8:	f3 0f 10 45 fc       	movss  -0x4(%rbp),%xmm0
    72dd:	f3 0f 59 45 f8       	mulss  -0x8(%rbp),%xmm0
    72e2:	5d                   	pop    %rbp
    72e3:	c3                   	retq   

00000000000072e4 <safe_div_func_float_f_f>:
    72e4:	f3 0f 1e fa          	endbr64 
    72e8:	55                   	push   %rbp
    72e9:	48 89 e5             	mov    %rsp,%rbp
    72ec:	f3 0f 11 45 fc       	movss  %xmm0,-0x4(%rbp)
    72f1:	f3 0f 11 4d f8       	movss  %xmm1,-0x8(%rbp)
    72f6:	f3 0f 10 45 f8       	movss  -0x8(%rbp),%xmm0
    72fb:	f3 0f 10 0d 8d 66 01 	movss  0x1668d(%rip),%xmm1        # 1d990 <l_613.5000+0xd0>
    7302:	00 
    7303:	0f 54 c8             	andps  %xmm0,%xmm1
    7306:	f3 0f 10 05 a2 66 01 	movss  0x166a2(%rip),%xmm0        # 1d9b0 <l_613.5000+0xf0>
    730d:	00 
    730e:	0f 2f c1             	comiss %xmm1,%xmm0
    7311:	0f 97 c0             	seta   %al
    7314:	83 f0 01             	xor    $0x1,%eax
    7317:	84 c0                	test   %al,%al
    7319:	75 56                	jne    7371 <safe_div_func_float_f_f+0x8d>
    731b:	66 0f ef c0          	pxor   %xmm0,%xmm0
    731f:	0f 2e 45 f8          	ucomiss -0x8(%rbp),%xmm0
    7323:	7a 0a                	jp     732f <safe_div_func_float_f_f+0x4b>
    7325:	66 0f ef c0          	pxor   %xmm0,%xmm0
    7329:	0f 2e 45 f8          	ucomiss -0x8(%rbp),%xmm0
    732d:	74 4e                	je     737d <safe_div_func_float_f_f+0x99>
    732f:	f3 0f 10 4d fc       	movss  -0x4(%rbp),%xmm1
    7334:	f3 0f 10 05 78 66 01 	movss  0x16678(%rip),%xmm0        # 1d9b4 <l_613.5000+0xf4>
    733b:	00 
    733c:	f3 0f 59 c1          	mulss  %xmm1,%xmm0
    7340:	f3 0f 10 55 f8       	movss  -0x8(%rbp),%xmm2
    7345:	f3 0f 10 0d 6b 66 01 	movss  0x1666b(%rip),%xmm1        # 1d9b8 <l_613.5000+0xf8>
    734c:	00 
    734d:	f3 0f 59 ca          	mulss  %xmm2,%xmm1
    7351:	f3 0f 5e c1          	divss  %xmm1,%xmm0
    7355:	f3 0f 10 0d 33 66 01 	movss  0x16633(%rip),%xmm1        # 1d990 <l_613.5000+0xd0>
    735c:	00 
    735d:	0f 54 c1             	andps  %xmm1,%xmm0
    7360:	0f 2f 05 55 66 01 00 	comiss 0x16655(%rip),%xmm0        # 1d9bc <l_613.5000+0xfc>
    7367:	0f 97 c0             	seta   %al
    736a:	83 f0 01             	xor    $0x1,%eax
    736d:	84 c0                	test   %al,%al
    736f:	74 0c                	je     737d <safe_div_func_float_f_f+0x99>
    7371:	f3 0f 10 45 fc       	movss  -0x4(%rbp),%xmm0
    7376:	f3 0f 5e 45 f8       	divss  -0x8(%rbp),%xmm0
    737b:	eb 05                	jmp    7382 <safe_div_func_float_f_f+0x9e>
    737d:	f3 0f 10 45 fc       	movss  -0x4(%rbp),%xmm0
    7382:	5d                   	pop    %rbp
    7383:	c3                   	retq   

0000000000007384 <safe_add_func_double_f_f>:
    7384:	f3 0f 1e fa          	endbr64 
    7388:	55                   	push   %rbp
    7389:	48 89 e5             	mov    %rsp,%rbp
    738c:	f2 0f 11 45 f8       	movsd  %xmm0,-0x8(%rbp)
    7391:	f2 0f 11 4d f0       	movsd  %xmm1,-0x10(%rbp)
    7396:	f2 0f 10 4d f8       	movsd  -0x8(%rbp),%xmm1
    739b:	f2 0f 10 05 1d 66 01 	movsd  0x1661d(%rip),%xmm0        # 1d9c0 <l_613.5000+0x100>
    73a2:	00 
    73a3:	f2 0f 59 c8          	mulsd  %xmm0,%xmm1
    73a7:	f2 0f 10 55 f0       	movsd  -0x10(%rbp),%xmm2
    73ac:	f2 0f 10 05 0c 66 01 	movsd  0x1660c(%rip),%xmm0        # 1d9c0 <l_613.5000+0x100>
    73b3:	00 
    73b4:	f2 0f 59 c2          	mulsd  %xmm2,%xmm0
    73b8:	f2 0f 58 c1          	addsd  %xmm1,%xmm0
    73bc:	f3 0f 7e 0d 0c 66 01 	movq   0x1660c(%rip),%xmm1        # 1d9d0 <l_613.5000+0x110>
    73c3:	00 
    73c4:	66 0f 54 c1          	andpd  %xmm1,%xmm0
    73c8:	66 0f 2f 05 10 66 01 	comisd 0x16610(%rip),%xmm0        # 1d9e0 <l_613.5000+0x120>
    73cf:	00 
    73d0:	76 07                	jbe    73d9 <safe_add_func_double_f_f+0x55>
    73d2:	f2 0f 10 45 f8       	movsd  -0x8(%rbp),%xmm0
    73d7:	eb 0a                	jmp    73e3 <safe_add_func_double_f_f+0x5f>
    73d9:	f2 0f 10 45 f8       	movsd  -0x8(%rbp),%xmm0
    73de:	f2 0f 58 45 f0       	addsd  -0x10(%rbp),%xmm0
    73e3:	5d                   	pop    %rbp
    73e4:	c3                   	retq   

00000000000073e5 <safe_sub_func_double_f_f>:
    73e5:	f3 0f 1e fa          	endbr64 
    73e9:	55                   	push   %rbp
    73ea:	48 89 e5             	mov    %rsp,%rbp
    73ed:	f2 0f 11 45 f8       	movsd  %xmm0,-0x8(%rbp)
    73f2:	f2 0f 11 4d f0       	movsd  %xmm1,-0x10(%rbp)
    73f7:	f2 0f 10 4d f8       	movsd  -0x8(%rbp),%xmm1
    73fc:	f2 0f 10 05 bc 65 01 	movsd  0x165bc(%rip),%xmm0        # 1d9c0 <l_613.5000+0x100>
    7403:	00 
    7404:	f2 0f 59 c1          	mulsd  %xmm1,%xmm0
    7408:	f2 0f 10 55 f0       	movsd  -0x10(%rbp),%xmm2
    740d:	f2 0f 10 0d ab 65 01 	movsd  0x165ab(%rip),%xmm1        # 1d9c0 <l_613.5000+0x100>
    7414:	00 
    7415:	f2 0f 59 ca          	mulsd  %xmm2,%xmm1
    7419:	f2 0f 5c c1          	subsd  %xmm1,%xmm0
    741d:	f3 0f 7e 0d ab 65 01 	movq   0x165ab(%rip),%xmm1        # 1d9d0 <l_613.5000+0x110>
    7424:	00 
    7425:	66 0f 54 c1          	andpd  %xmm1,%xmm0
    7429:	66 0f 2f 05 af 65 01 	comisd 0x165af(%rip),%xmm0        # 1d9e0 <l_613.5000+0x120>
    7430:	00 
    7431:	76 07                	jbe    743a <safe_sub_func_double_f_f+0x55>
    7433:	f2 0f 10 45 f8       	movsd  -0x8(%rbp),%xmm0
    7438:	eb 0a                	jmp    7444 <safe_sub_func_double_f_f+0x5f>
    743a:	f2 0f 10 45 f8       	movsd  -0x8(%rbp),%xmm0
    743f:	f2 0f 5c 45 f0       	subsd  -0x10(%rbp),%xmm0
    7444:	5d                   	pop    %rbp
    7445:	c3                   	retq   

0000000000007446 <safe_mul_func_double_f_f>:
    7446:	f3 0f 1e fa          	endbr64 
    744a:	55                   	push   %rbp
    744b:	48 89 e5             	mov    %rsp,%rbp
    744e:	f2 0f 11 45 f8       	movsd  %xmm0,-0x8(%rbp)
    7453:	f2 0f 11 4d f0       	movsd  %xmm1,-0x10(%rbp)
    7458:	f2 0f 10 4d f8       	movsd  -0x8(%rbp),%xmm1
    745d:	f2 0f 10 05 83 65 01 	movsd  0x16583(%rip),%xmm0        # 1d9e8 <l_613.5000+0x128>
    7464:	00 
    7465:	f2 0f 59 c8          	mulsd  %xmm0,%xmm1
    7469:	f2 0f 10 55 f0       	movsd  -0x10(%rbp),%xmm2
    746e:	f2 0f 10 05 7a 65 01 	movsd  0x1657a(%rip),%xmm0        # 1d9f0 <l_613.5000+0x130>
    7475:	00 
    7476:	f2 0f 59 c2          	mulsd  %xmm2,%xmm0
    747a:	f2 0f 59 c1          	mulsd  %xmm1,%xmm0
    747e:	f3 0f 7e 0d 4a 65 01 	movq   0x1654a(%rip),%xmm1        # 1d9d0 <l_613.5000+0x110>
    7485:	00 
    7486:	66 0f 54 c1          	andpd  %xmm1,%xmm0
    748a:	66 0f 2f 05 66 65 01 	comisd 0x16566(%rip),%xmm0        # 1d9f8 <l_613.5000+0x138>
    7491:	00 
    7492:	76 07                	jbe    749b <safe_mul_func_double_f_f+0x55>
    7494:	f2 0f 10 45 f8       	movsd  -0x8(%rbp),%xmm0
    7499:	eb 0a                	jmp    74a5 <safe_mul_func_double_f_f+0x5f>
    749b:	f2 0f 10 45 f8       	movsd  -0x8(%rbp),%xmm0
    74a0:	f2 0f 59 45 f0       	mulsd  -0x10(%rbp),%xmm0
    74a5:	5d                   	pop    %rbp
    74a6:	c3                   	retq   

00000000000074a7 <safe_div_func_double_f_f>:
    74a7:	f3 0f 1e fa          	endbr64 
    74ab:	55                   	push   %rbp
    74ac:	48 89 e5             	mov    %rsp,%rbp
    74af:	f2 0f 11 45 f8       	movsd  %xmm0,-0x8(%rbp)
    74b4:	f2 0f 11 4d f0       	movsd  %xmm1,-0x10(%rbp)
    74b9:	f2 0f 10 45 f0       	movsd  -0x10(%rbp),%xmm0
    74be:	f3 0f 7e 0d 0a 65 01 	movq   0x1650a(%rip),%xmm1        # 1d9d0 <l_613.5000+0x110>
    74c5:	00 
    74c6:	66 0f 54 c8          	andpd  %xmm0,%xmm1
    74ca:	f2 0f 10 05 2e 65 01 	movsd  0x1652e(%rip),%xmm0        # 1da00 <l_613.5000+0x140>
    74d1:	00 
    74d2:	66 0f 2f c1          	comisd %xmm1,%xmm0
    74d6:	0f 97 c0             	seta   %al
    74d9:	83 f0 01             	xor    $0x1,%eax
    74dc:	84 c0                	test   %al,%al
    74de:	75 5a                	jne    753a <safe_div_func_double_f_f+0x93>
    74e0:	66 0f ef c0          	pxor   %xmm0,%xmm0
    74e4:	66 0f 2e 45 f0       	ucomisd -0x10(%rbp),%xmm0
    74e9:	7a 0b                	jp     74f6 <safe_div_func_double_f_f+0x4f>
    74eb:	66 0f ef c0          	pxor   %xmm0,%xmm0
    74ef:	66 0f 2e 45 f0       	ucomisd -0x10(%rbp),%xmm0
    74f4:	74 50                	je     7546 <safe_div_func_double_f_f+0x9f>
    74f6:	f2 0f 10 4d f8       	movsd  -0x8(%rbp),%xmm1
    74fb:	f2 0f 10 05 05 65 01 	movsd  0x16505(%rip),%xmm0        # 1da08 <l_613.5000+0x148>
    7502:	00 
    7503:	f2 0f 59 c1          	mulsd  %xmm1,%xmm0
    7507:	f2 0f 10 55 f0       	movsd  -0x10(%rbp),%xmm2
    750c:	f2 0f 10 0d fc 64 01 	movsd  0x164fc(%rip),%xmm1        # 1da10 <l_613.5000+0x150>
    7513:	00 
    7514:	f2 0f 59 ca          	mulsd  %xmm2,%xmm1
    7518:	f2 0f 5e c1          	divsd  %xmm1,%xmm0
    751c:	f3 0f 7e 0d ac 64 01 	movq   0x164ac(%rip),%xmm1        # 1d9d0 <l_613.5000+0x110>
    7523:	00 
    7524:	66 0f 54 c1          	andpd  %xmm1,%xmm0
    7528:	66 0f 2f 05 e8 64 01 	comisd 0x164e8(%rip),%xmm0        # 1da18 <l_613.5000+0x158>
    752f:	00 
    7530:	0f 97 c0             	seta   %al
    7533:	83 f0 01             	xor    $0x1,%eax
    7536:	84 c0                	test   %al,%al
    7538:	74 0c                	je     7546 <safe_div_func_double_f_f+0x9f>
    753a:	f2 0f 10 45 f8       	movsd  -0x8(%rbp),%xmm0
    753f:	f2 0f 5e 45 f0       	divsd  -0x10(%rbp),%xmm0
    7544:	eb 05                	jmp    754b <safe_div_func_double_f_f+0xa4>
    7546:	f2 0f 10 45 f8       	movsd  -0x8(%rbp),%xmm0
    754b:	5d                   	pop    %rbp
    754c:	c3                   	retq   

000000000000754d <safe_convert_func_float_to_int32_t>:
    754d:	f3 0f 1e fa          	endbr64 
    7551:	55                   	push   %rbp
    7552:	48 89 e5             	mov    %rsp,%rbp
    7555:	f3 0f 11 45 fc       	movss  %xmm0,-0x4(%rbp)
    755a:	f3 0f 10 05 be 64 01 	movss  0x164be(%rip),%xmm0        # 1da20 <l_613.5000+0x160>
    7561:	00 
    7562:	0f 2f 45 fc          	comiss -0x4(%rbp),%xmm0
    7566:	0f 93 c0             	setae  %al
    7569:	83 f0 01             	xor    $0x1,%eax
    756c:	84 c0                	test   %al,%al
    756e:	74 21                	je     7591 <safe_convert_func_float_to_int32_t+0x44>
    7570:	f3 0f 10 45 fc       	movss  -0x4(%rbp),%xmm0
    7575:	0f 2f 05 a8 64 01 00 	comiss 0x164a8(%rip),%xmm0        # 1da24 <l_613.5000+0x164>
    757c:	0f 93 c0             	setae  %al
    757f:	83 f0 01             	xor    $0x1,%eax
    7582:	84 c0                	test   %al,%al
    7584:	74 0b                	je     7591 <safe_convert_func_float_to_int32_t+0x44>
    7586:	f3 0f 10 45 fc       	movss  -0x4(%rbp),%xmm0
    758b:	f3 0f 2c c0          	cvttss2si %xmm0,%eax
    758f:	eb 05                	jmp    7596 <safe_convert_func_float_to_int32_t+0x49>
    7591:	b8 ff ff ff 7f       	mov    $0x7fffffff,%eax
    7596:	5d                   	pop    %rbp
    7597:	c3                   	retq   

0000000000007598 <crc32_gentab>:
    7598:	f3 0f 1e fa          	endbr64 
    759c:	55                   	push   %rbp
    759d:	48 89 e5             	mov    %rsp,%rbp
    75a0:	c7 45 fc 20 83 b8 ed 	movl   $0xedb88320,-0x4(%rbp)
    75a7:	c7 45 f4 00 00 00 00 	movl   $0x0,-0xc(%rbp)
    75ae:	eb 51                	jmp    7601 <crc32_gentab+0x69>
    75b0:	8b 45 f4             	mov    -0xc(%rbp),%eax
    75b3:	89 45 f0             	mov    %eax,-0x10(%rbp)
    75b6:	c7 45 f8 08 00 00 00 	movl   $0x8,-0x8(%rbp)
    75bd:	eb 1e                	jmp    75dd <crc32_gentab+0x45>
    75bf:	8b 45 f0             	mov    -0x10(%rbp),%eax
    75c2:	83 e0 01             	and    $0x1,%eax
    75c5:	85 c0                	test   %eax,%eax
    75c7:	74 0d                	je     75d6 <crc32_gentab+0x3e>
    75c9:	8b 45 f0             	mov    -0x10(%rbp),%eax
    75cc:	d1 e8                	shr    %eax
    75ce:	33 45 fc             	xor    -0x4(%rbp),%eax
    75d1:	89 45 f0             	mov    %eax,-0x10(%rbp)
    75d4:	eb 03                	jmp    75d9 <crc32_gentab+0x41>
    75d6:	d1 6d f0             	shrl   -0x10(%rbp)
    75d9:	83 6d f8 01          	subl   $0x1,-0x8(%rbp)
    75dd:	83 7d f8 00          	cmpl   $0x0,-0x8(%rbp)
    75e1:	7f dc                	jg     75bf <crc32_gentab+0x27>
    75e3:	8b 45 f4             	mov    -0xc(%rbp),%eax
    75e6:	48 98                	cltq   
    75e8:	48 8d 0c 85 00 00 00 	lea    0x0(,%rax,4),%rcx
    75ef:	00 
    75f0:	48 8d 15 a9 ff 01 00 	lea    0x1ffa9(%rip),%rdx        # 275a0 <crc32_tab>
    75f7:	8b 45 f0             	mov    -0x10(%rbp),%eax
    75fa:	89 04 11             	mov    %eax,(%rcx,%rdx,1)
    75fd:	83 45 f4 01          	addl   $0x1,-0xc(%rbp)
    7601:	81 7d f4 ff 00 00 00 	cmpl   $0xff,-0xc(%rbp)
    7608:	7e a6                	jle    75b0 <crc32_gentab+0x18>
    760a:	90                   	nop
    760b:	90                   	nop
    760c:	5d                   	pop    %rbp
    760d:	c3                   	retq   

000000000000760e <crc32_byte>:
    760e:	f3 0f 1e fa          	endbr64 
    7612:	55                   	push   %rbp
    7613:	48 89 e5             	mov    %rsp,%rbp
    7616:	89 f8                	mov    %edi,%eax
    7618:	88 45 fc             	mov    %al,-0x4(%rbp)
    761b:	8b 05 ff 89 01 00    	mov    0x189ff(%rip),%eax        # 20020 <crc32_context>
    7621:	c1 e8 08             	shr    $0x8,%eax
    7624:	89 c1                	mov    %eax,%ecx
    7626:	0f b6 55 fc          	movzbl -0x4(%rbp),%edx
    762a:	8b 05 f0 89 01 00    	mov    0x189f0(%rip),%eax        # 20020 <crc32_context>
    7630:	31 d0                	xor    %edx,%eax
    7632:	0f b6 c0             	movzbl %al,%eax
    7635:	89 c0                	mov    %eax,%eax
    7637:	48 8d 14 85 00 00 00 	lea    0x0(,%rax,4),%rdx
    763e:	00 
    763f:	48 8d 05 5a ff 01 00 	lea    0x1ff5a(%rip),%rax        # 275a0 <crc32_tab>
    7646:	8b 04 02             	mov    (%rdx,%rax,1),%eax
    7649:	31 c8                	xor    %ecx,%eax
    764b:	89 05 cf 89 01 00    	mov    %eax,0x189cf(%rip)        # 20020 <crc32_context>
    7651:	90                   	nop
    7652:	5d                   	pop    %rbp
    7653:	c3                   	retq   

0000000000007654 <crc32_8bytes>:
    7654:	f3 0f 1e fa          	endbr64 
    7658:	55                   	push   %rbp
    7659:	48 89 e5             	mov    %rsp,%rbp
    765c:	48 83 ec 08          	sub    $0x8,%rsp
    7660:	48 89 7d f8          	mov    %rdi,-0x8(%rbp)
    7664:	48 8b 45 f8          	mov    -0x8(%rbp),%rax
    7668:	0f b6 c0             	movzbl %al,%eax
    766b:	89 c7                	mov    %eax,%edi
    766d:	e8 9c ff ff ff       	callq  760e <crc32_byte>
    7672:	48 8b 45 f8          	mov    -0x8(%rbp),%rax
    7676:	48 c1 e8 08          	shr    $0x8,%rax
    767a:	0f b6 c0             	movzbl %al,%eax
    767d:	89 c7                	mov    %eax,%edi
    767f:	e8 8a ff ff ff       	callq  760e <crc32_byte>
    7684:	48 8b 45 f8          	mov    -0x8(%rbp),%rax
    7688:	48 c1 e8 10          	shr    $0x10,%rax
    768c:	0f b6 c0             	movzbl %al,%eax
    768f:	89 c7                	mov    %eax,%edi
    7691:	e8 78 ff ff ff       	callq  760e <crc32_byte>
    7696:	48 8b 45 f8          	mov    -0x8(%rbp),%rax
    769a:	48 c1 e8 18          	shr    $0x18,%rax
    769e:	0f b6 c0             	movzbl %al,%eax
    76a1:	89 c7                	mov    %eax,%edi
    76a3:	e8 66 ff ff ff       	callq  760e <crc32_byte>
    76a8:	48 8b 45 f8          	mov    -0x8(%rbp),%rax
    76ac:	48 c1 e8 20          	shr    $0x20,%rax
    76b0:	0f b6 c0             	movzbl %al,%eax
    76b3:	89 c7                	mov    %eax,%edi
    76b5:	e8 54 ff ff ff       	callq  760e <crc32_byte>
    76ba:	48 8b 45 f8          	mov    -0x8(%rbp),%rax
    76be:	48 c1 e8 28          	shr    $0x28,%rax
    76c2:	0f b6 c0             	movzbl %al,%eax
    76c5:	89 c7                	mov    %eax,%edi
    76c7:	e8 42 ff ff ff       	callq  760e <crc32_byte>
    76cc:	48 8b 45 f8          	mov    -0x8(%rbp),%rax
    76d0:	48 c1 e8 30          	shr    $0x30,%rax
    76d4:	0f b6 c0             	movzbl %al,%eax
    76d7:	89 c7                	mov    %eax,%edi
    76d9:	e8 30 ff ff ff       	callq  760e <crc32_byte>
    76de:	48 8b 45 f8          	mov    -0x8(%rbp),%rax
    76e2:	48 c1 e8 38          	shr    $0x38,%rax
    76e6:	0f b6 c0             	movzbl %al,%eax
    76e9:	89 c7                	mov    %eax,%edi
    76eb:	e8 1e ff ff ff       	callq  760e <crc32_byte>
    76f0:	90                   	nop
    76f1:	c9                   	leaveq 
    76f2:	c3                   	retq   

00000000000076f3 <transparent_crc>:
    76f3:	f3 0f 1e fa          	endbr64 
    76f7:	55                   	push   %rbp
    76f8:	48 89 e5             	mov    %rsp,%rbp
    76fb:	48 83 ec 20          	sub    $0x20,%rsp
    76ff:	48 89 7d f8          	mov    %rdi,-0x8(%rbp)
    7703:	48 89 75 f0          	mov    %rsi,-0x10(%rbp)
    7707:	89 55 ec             	mov    %edx,-0x14(%rbp)
    770a:	48 8b 45 f8          	mov    -0x8(%rbp),%rax
    770e:	48 89 c7             	mov    %rax,%rdi
    7711:	e8 3e ff ff ff       	callq  7654 <crc32_8bytes>
    7716:	83 7d ec 00          	cmpl   $0x0,-0x14(%rbp)
    771a:	74 22                	je     773e <transparent_crc+0x4b>
    771c:	8b 05 fe 88 01 00    	mov    0x188fe(%rip),%eax        # 20020 <crc32_context>
    7722:	f7 d0                	not    %eax
    7724:	89 c2                	mov    %eax,%edx
    7726:	48 8b 45 f0          	mov    -0x10(%rbp),%rax
    772a:	48 89 c6             	mov    %rax,%rsi
    772d:	48 8d 3d fc 28 01 00 	lea    0x128fc(%rip),%rdi        # 1a030 <_IO_stdin_used+0x30>
    7734:	b8 00 00 00 00       	mov    $0x0,%eax
    7739:	e8 42 e9 ff ff       	callq  6080 <printf@plt>
    773e:	90                   	nop
    773f:	c9                   	leaveq 
    7740:	c3                   	retq   

0000000000007741 <transparent_crc_bytes>:
    7741:	f3 0f 1e fa          	endbr64 
    7745:	55                   	push   %rbp
    7746:	48 89 e5             	mov    %rsp,%rbp
    7749:	48 83 ec 30          	sub    $0x30,%rsp
    774d:	48 89 7d e8          	mov    %rdi,-0x18(%rbp)
    7751:	89 75 e4             	mov    %esi,-0x1c(%rbp)
    7754:	48 89 55 d8          	mov    %rdx,-0x28(%rbp)
    7758:	89 4d e0             	mov    %ecx,-0x20(%rbp)
    775b:	c7 45 fc 00 00 00 00 	movl   $0x0,-0x4(%rbp)
    7762:	eb 1e                	jmp    7782 <transparent_crc_bytes+0x41>
    7764:	8b 45 fc             	mov    -0x4(%rbp),%eax
    7767:	48 63 d0             	movslq %eax,%rdx
    776a:	48 8b 45 e8          	mov    -0x18(%rbp),%rax
    776e:	48 01 d0             	add    %rdx,%rax
    7771:	0f b6 00             	movzbl (%rax),%eax
    7774:	0f b6 c0             	movzbl %al,%eax
    7777:	89 c7                	mov    %eax,%edi
    7779:	e8 90 fe ff ff       	callq  760e <crc32_byte>
    777e:	83 45 fc 01          	addl   $0x1,-0x4(%rbp)
    7782:	8b 45 fc             	mov    -0x4(%rbp),%eax
    7785:	3b 45 e4             	cmp    -0x1c(%rbp),%eax
    7788:	7c da                	jl     7764 <transparent_crc_bytes+0x23>
    778a:	83 7d e0 00          	cmpl   $0x0,-0x20(%rbp)
    778e:	74 22                	je     77b2 <transparent_crc_bytes+0x71>
    7790:	8b 05 8a 88 01 00    	mov    0x1888a(%rip),%eax        # 20020 <crc32_context>
    7796:	f7 d0                	not    %eax
    7798:	89 c2                	mov    %eax,%edx
    779a:	48 8b 45 d8          	mov    -0x28(%rbp),%rax
    779e:	48 89 c6             	mov    %rax,%rsi
    77a1:	48 8d 3d 88 28 01 00 	lea    0x12888(%rip),%rdi        # 1a030 <_IO_stdin_used+0x30>
    77a8:	b8 00 00 00 00       	mov    $0x0,%eax
    77ad:	e8 ce e8 ff ff       	callq  6080 <printf@plt>
    77b2:	90                   	nop
    77b3:	c9                   	leaveq 
    77b4:	c3                   	retq   

00000000000077b5 <func_1>:
    77b5:	f3 0f 1e fa          	endbr64 
    77b9:	55                   	push   %rbp
    77ba:	48 89 e5             	mov    %rsp,%rbp
    77bd:	48 81 ec 00 10 00 00 	sub    $0x1000,%rsp
    77c4:	48 83 0c 24 00       	orq    $0x0,(%rsp)
    77c9:	48 81 ec 40 01 00 00 	sub    $0x140,%rsp
    77d0:	64 48 8b 04 25 28 00 	mov    %fs:0x28,%rax
    77d7:	00 00 
    77d9:	48 89 45 f8          	mov    %rax,-0x8(%rbp)
    77dd:	31 c0                	xor    %eax,%eax
    77df:	48 c7 45 ef ff ff ff 	movq   $0xffffffffffffffff,-0x11(%rbp)
    77e6:	ff 
    77e7:	c6 45 f7 ff          	movb   $0xff,-0x9(%rbp)
    77eb:	c7 85 fc ee ff ff 35 	movl   $0x67ec6735,-0x1104(%rbp)
    77f2:	67 ec 67 
    77f5:	c7 85 00 ef ff ff f4 	movl   $0x628ea8f4,-0x1100(%rbp)
    77fc:	a8 8e 62 
    77ff:	c7 85 dc ee ff ff 55 	movl   $0x9e83ef55,-0x1124(%rbp)
    7806:	ef 83 9e 
    7809:	c7 85 04 ef ff ff 00 	movl   $0x0,-0x10fc(%rbp)
    7810:	00 00 00 
    7813:	66 c7 85 ce ee ff ff 	movw   $0xcf9f,-0x1132(%rbp)
    781a:	9f cf 
    781c:	c6 85 ca ee ff ff ff 	movb   $0xff,-0x1136(%rbp)
    7823:	48 8d 05 a6 f6 01 00 	lea    0x1f6a6(%rip),%rax        # 26ed0 <g_907>
    782a:	48 89 85 48 ef ff ff 	mov    %rax,-0x10b8(%rbp)
    7831:	c6 85 cb ee ff ff ee 	movb   $0xee,-0x1135(%rbp)
    7838:	48 c7 85 50 ef ff ff 	movq   $0x0,-0x10b0(%rbp)
    783f:	00 00 00 00 
    7843:	48 8d 05 46 fc 01 00 	lea    0x1fc46(%rip),%rax        # 27490 <g_1420+0x10>
    784a:	48 89 85 58 ef ff ff 	mov    %rax,-0x10a8(%rbp)
    7851:	48 8d 05 f0 f9 01 00 	lea    0x1f9f0(%rip),%rax        # 27248 <g_1245>
    7858:	48 89 85 28 ef ff ff 	mov    %rax,-0x10d8(%rbp)
    785f:	48 8d 85 28 ef ff ff 	lea    -0x10d8(%rbp),%rax
    7866:	48 89 85 60 ef ff ff 	mov    %rax,-0x10a0(%rbp)
    786d:	c7 85 e0 ee ff ff 00 	movl   $0x0,-0x1120(%rbp)
    7874:	00 00 00 
    7877:	eb 77                	jmp    78f0 <func_1+0x13b>
    7879:	c7 85 e4 ee ff ff 00 	movl   $0x0,-0x111c(%rbp)
    7880:	00 00 00 
    7883:	eb 5b                	jmp    78e0 <func_1+0x12b>
    7885:	c7 85 e8 ee ff ff 00 	movl   $0x0,-0x1118(%rbp)
    788c:	00 00 00 
    788f:	eb 3f                	jmp    78d0 <func_1+0x11b>
    7891:	8b 85 e8 ee ff ff    	mov    -0x1118(%rbp),%eax
    7897:	48 63 c8             	movslq %eax,%rcx
    789a:	8b 85 e0 ee ff ff    	mov    -0x1120(%rbp),%eax
    78a0:	48 63 d0             	movslq %eax,%rdx
    78a3:	8b 85 e4 ee ff ff    	mov    -0x111c(%rbp),%eax
    78a9:	48 63 f0             	movslq %eax,%rsi
    78ac:	48 89 d0             	mov    %rdx,%rax
    78af:	48 01 c0             	add    %rax,%rax
    78b2:	48 01 d0             	add    %rdx,%rax
    78b5:	48 01 f0             	add    %rsi,%rax
    78b8:	48 01 c0             	add    %rax,%rax
    78bb:	48 01 c8             	add    %rcx,%rax
    78be:	c7 84 85 a0 f0 ff ff 	movl   $0x0,-0xf60(%rbp,%rax,4)
    78c5:	00 00 00 00 
    78c9:	83 85 e8 ee ff ff 01 	addl   $0x1,-0x1118(%rbp)
    78d0:	83 bd e8 ee ff ff 01 	cmpl   $0x1,-0x1118(%rbp)
    78d7:	7e b8                	jle    7891 <func_1+0xdc>
    78d9:	83 85 e4 ee ff ff 01 	addl   $0x1,-0x111c(%rbp)
    78e0:	83 bd e4 ee ff ff 02 	cmpl   $0x2,-0x111c(%rbp)
    78e7:	7e 9c                	jle    7885 <func_1+0xd0>
    78e9:	83 85 e0 ee ff ff 01 	addl   $0x1,-0x1120(%rbp)
    78f0:	83 bd e0 ee ff ff 01 	cmpl   $0x1,-0x1120(%rbp)
    78f7:	7e 80                	jle    7879 <func_1+0xc4>
    78f9:	c7 05 25 87 01 00 0c 	movl   $0xc,0x18725(%rip)        # 20028 <g_2>
    7900:	00 00 00 
    7903:	e9 f1 07 00 00       	jmpq   80f9 <func_1+0x944>
    7908:	48 8d 05 a1 00 02 00 	lea    0x200a1(%rip),%rax        # 279b0 <g_29>
    790f:	48 89 85 68 ef ff ff 	mov    %rax,-0x1098(%rbp)
    7916:	c7 85 08 ef ff ff 1e 	movl   $0xf99bdf1e,-0x10f8(%rbp)
    791d:	df 9b f9 
    7920:	c7 85 0c ef ff ff 09 	movl   $0x9,-0x10f4(%rbp)
    7927:	00 00 00 
    792a:	c7 85 70 f0 ff ff 00 	movl   $0x0,-0xf90(%rbp)
    7931:	00 00 00 
    7934:	c7 85 74 f0 ff ff fa 	movl   $0x94f27fa,-0xf8c(%rbp)
    793b:	27 4f 09 
    793e:	c7 85 78 f0 ff ff 00 	movl   $0x0,-0xf88(%rbp)
    7945:	00 00 00 
    7948:	c7 85 7c f0 ff ff 00 	movl   $0x0,-0xf84(%rbp)
    794f:	00 00 00 
    7952:	c7 85 80 f0 ff ff fa 	movl   $0x94f27fa,-0xf80(%rbp)
    7959:	27 4f 09 
    795c:	c7 85 84 f0 ff ff 00 	movl   $0x0,-0xf7c(%rbp)
    7963:	00 00 00 
    7966:	c7 85 88 f0 ff ff 00 	movl   $0x0,-0xf78(%rbp)
    796d:	00 00 00 
    7970:	c7 85 8c f0 ff ff fa 	movl   $0x94f27fa,-0xf74(%rbp)
    7977:	27 4f 09 
    797a:	c7 85 90 f0 ff ff 00 	movl   $0x0,-0xf70(%rbp)
    7981:	00 00 00 
    7984:	c7 85 94 f0 ff ff 00 	movl   $0x0,-0xf6c(%rbp)
    798b:	00 00 00 
    798e:	66 c7 85 d0 ee ff ff 	movw   $0x2020,-0x1130(%rbp)
    7995:	20 20 
    7997:	48 8d 05 0a 01 02 00 	lea    0x2010a(%rip),%rax        # 27aa8 <g_1598>
    799e:	48 89 85 70 ef ff ff 	mov    %rax,-0x1090(%rbp)
    79a5:	48 8d 05 10 96 01 00 	lea    0x19610(%rip),%rax        # 20fbc <g_1437+0x7c>
    79ac:	48 89 85 78 ef ff ff 	mov    %rax,-0x1088(%rbp)
    79b3:	c7 85 10 ef ff ff 4b 	movl   $0xe0c1e94b,-0x10f0(%rbp)
    79ba:	e9 c1 e0 
    79bd:	48 8d 85 40 f8 ff ff 	lea    -0x7c0(%rbp),%rax
    79c4:	48 8d 15 f5 d4 01 00 	lea    0x1d4f5(%rip),%rdx        # 24ec0 <g_2314+0x18>
    79cb:	b9 f5 00 00 00       	mov    $0xf5,%ecx
    79d0:	48 89 c7             	mov    %rax,%rdi
    79d3:	48 89 d6             	mov    %rdx,%rsi
    79d6:	f3 48 a5             	rep movsq %ds:(%rsi),%es:(%rdi)
    79d9:	48 8d 85 40 f8 ff ff 	lea    -0x7c0(%rbp),%rax
    79e0:	48 05 60 02 00 00    	add    $0x260,%rax
    79e6:	48 89 85 10 f1 ff ff 	mov    %rax,-0xef0(%rbp)
    79ed:	48 8d 85 40 f8 ff ff 	lea    -0x7c0(%rbp),%rax
    79f4:	48 05 60 02 00 00    	add    $0x260,%rax
    79fa:	48 89 85 18 f1 ff ff 	mov    %rax,-0xee8(%rbp)
    7a01:	48 8d 85 40 f8 ff ff 	lea    -0x7c0(%rbp),%rax
    7a08:	48 05 60 02 00 00    	add    $0x260,%rax
    7a0e:	48 89 85 20 f1 ff ff 	mov    %rax,-0xee0(%rbp)
    7a15:	48 8d 85 40 f8 ff ff 	lea    -0x7c0(%rbp),%rax
    7a1c:	48 05 60 02 00 00    	add    $0x260,%rax
    7a22:	48 89 85 28 f1 ff ff 	mov    %rax,-0xed8(%rbp)
    7a29:	48 8d 85 40 f8 ff ff 	lea    -0x7c0(%rbp),%rax
    7a30:	48 05 60 02 00 00    	add    $0x260,%rax
    7a36:	48 89 85 30 f1 ff ff 	mov    %rax,-0xed0(%rbp)
    7a3d:	48 8d 85 40 f8 ff ff 	lea    -0x7c0(%rbp),%rax
    7a44:	48 05 60 02 00 00    	add    $0x260,%rax
    7a4a:	48 89 85 38 f1 ff ff 	mov    %rax,-0xec8(%rbp)
    7a51:	48 8d 85 40 f8 ff ff 	lea    -0x7c0(%rbp),%rax
    7a58:	48 05 60 02 00 00    	add    $0x260,%rax
    7a5e:	48 89 85 40 f1 ff ff 	mov    %rax,-0xec0(%rbp)
    7a65:	48 8d 85 40 f8 ff ff 	lea    -0x7c0(%rbp),%rax
    7a6c:	48 05 60 02 00 00    	add    $0x260,%rax
    7a72:	48 89 85 48 f1 ff ff 	mov    %rax,-0xeb8(%rbp)
    7a79:	48 8d 85 40 f8 ff ff 	lea    -0x7c0(%rbp),%rax
    7a80:	48 05 60 02 00 00    	add    $0x260,%rax
    7a86:	48 89 85 50 f1 ff ff 	mov    %rax,-0xeb0(%rbp)
    7a8d:	48 8d 85 10 f1 ff ff 	lea    -0xef0(%rbp),%rax
    7a94:	48 89 85 30 ef ff ff 	mov    %rax,-0x10d0(%rbp)
    7a9b:	48 8d 85 30 ef ff ff 	lea    -0x10d0(%rbp),%rax
    7aa2:	48 89 85 38 ef ff ff 	mov    %rax,-0x10c8(%rbp)
    7aa9:	48 8d 85 38 ef ff ff 	lea    -0x10c8(%rbp),%rax
    7ab0:	48 89 85 80 ef ff ff 	mov    %rax,-0x1080(%rbp)
    7ab7:	c6 85 cc ee ff ff d4 	movb   $0xd4,-0x1134(%rbp)
    7abe:	48 8d 05 bb d3 01 00 	lea    0x1d3bb(%rip),%rax        # 24e80 <g_2294>
    7ac5:	48 89 85 88 ef ff ff 	mov    %rax,-0x1078(%rbp)
    7acc:	c7 85 ec ee ff ff 00 	movl   $0x0,-0x1114(%rbp)
    7ad3:	00 00 00 
    7ad6:	eb 1b                	jmp    7af3 <func_1+0x33e>
    7ad8:	8b 85 ec ee ff ff    	mov    -0x1114(%rbp),%eax
    7ade:	48 98                	cltq   
    7ae0:	48 c7 84 c5 68 f0 ff 	movq   $0x0,-0xf98(%rbp,%rax,8)
    7ae7:	ff 00 00 00 00 
    7aec:	83 85 ec ee ff ff 01 	addl   $0x1,-0x1114(%rbp)
    7af3:	83 bd ec ee ff ff 00 	cmpl   $0x0,-0x1114(%rbp)
    7afa:	7e dc                	jle    7ad8 <func_1+0x323>
    7afc:	c7 05 3e 85 01 00 f9 	movl   $0xfffffff9,0x1853e(%rip)        # 20044 <g_5+0x14>
    7b03:	ff ff ff 
    7b06:	e9 d1 04 00 00       	jmpq   7fdc <func_1+0x827>
    7b0b:	48 8d 05 9a 86 01 00 	lea    0x1869a(%rip),%rax        # 201ac <g_47>
    7b12:	48 89 85 b0 ef ff ff 	mov    %rax,-0x1050(%rbp)
    7b19:	c7 85 d8 ee ff ff f9 	movl   $0xfffffff9,-0x1128(%rbp)
    7b20:	ff ff ff 
    7b23:	c7 85 14 ef ff ff 00 	movl   $0x0,-0x10ec(%rbp)
    7b2a:	00 00 00 
    7b2d:	c7 85 18 ef ff ff 96 	movl   $0x6dd47e96,-0x10e8(%rbp)
    7b34:	7e d4 6d 
    7b37:	c7 85 1c ef ff ff a3 	movl   $0x64f363a3,-0x10e4(%rbp)
    7b3e:	63 f3 64 
    7b41:	c7 85 20 ef ff ff 09 	movl   $0x9,-0x10e0(%rbp)
    7b48:	00 00 00 
    7b4b:	c6 85 c9 ee ff ff 26 	movb   $0x26,-0x1137(%rbp)
    7b52:	c7 05 ec 84 01 00 00 	movl   $0x0,0x184ec(%rip)        # 20048 <g_8>
    7b59:	00 00 00 
    7b5c:	e9 45 04 00 00       	jmpq   7fa6 <func_1+0x7f1>
    7b61:	48 c7 85 b8 ef ff ff 	movq   $0x0,-0x1048(%rbp)
    7b68:	00 00 00 00 
    7b6c:	48 8d 95 60 f1 ff ff 	lea    -0xea0(%rbp),%rdx
    7b73:	b8 00 00 00 00       	mov    $0x0,%eax
    7b78:	b9 28 00 00 00       	mov    $0x28,%ecx
    7b7d:	48 89 d7             	mov    %rdx,%rdi
    7b80:	f3 48 ab             	rep stos %rax,%es:(%rdi)
    7b83:	c7 05 c3 84 01 00 00 	movl   $0x0,0x184c3(%rip)        # 20050 <g_12>
    7b8a:	00 00 00 
    7b8d:	e9 15 01 00 00       	jmpq   7ca7 <func_1+0x4f2>
    7b92:	66 c7 85 d4 ee ff ff 	movw   $0xff03,-0x112c(%rbp)
    7b99:	03 ff 
    7b9b:	48 8d 05 86 84 01 00 	lea    0x18486(%rip),%rax        # 20028 <g_2>
    7ba2:	48 89 85 c0 ef ff ff 	mov    %rax,-0x1040(%rbp)
    7ba9:	48 c7 85 c8 ef ff ff 	movq   $0x0,-0x1038(%rbp)
    7bb0:	00 00 00 00 
    7bb4:	c7 05 b6 85 01 00 00 	movl   $0x0,0x185b6(%rip)        # 20174 <g_18>
    7bbb:	00 00 00 
    7bbe:	e9 88 00 00 00       	jmpq   7c4b <func_1+0x496>
    7bc3:	48 8d 85 a0 f3 ff ff 	lea    -0xc60(%rbp),%rax
    7bca:	48 8d 15 4f 25 01 00 	lea    0x1254f(%rip),%rdx        # 1a120 <g_1798+0x40>
    7bd1:	b9 80 00 00 00       	mov    $0x80,%ecx
    7bd6:	48 89 c7             	mov    %rax,%rdi
    7bd9:	48 89 d6             	mov    %rdx,%rsi
    7bdc:	f3 48 a5             	rep movsq %ds:(%rsi),%es:(%rdi)
    7bdf:	48 8d 05 c2 85 01 00 	lea    0x185c2(%rip),%rax        # 201a8 <g_43>
    7be6:	48 89 85 d0 ef ff ff 	mov    %rax,-0x1030(%rbp)
    7bed:	48 8d 05 b8 85 01 00 	lea    0x185b8(%rip),%rax        # 201ac <g_47>
    7bf4:	48 89 85 40 ef ff ff 	mov    %rax,-0x10c0(%rbp)
    7bfb:	48 8d 05 ba fd 01 00 	lea    0x1fdba(%rip),%rax        # 279bc <g_29+0xc>
    7c02:	48 89 85 d8 ef ff ff 	mov    %rax,-0x1028(%rbp)
    7c09:	c7 85 f0 ee ff ff 00 	movl   $0x0,-0x1110(%rbp)
    7c10:	00 00 00 
    7c13:	eb 1e                	jmp    7c33 <func_1+0x47e>
    7c15:	8b 85 f0 ee ff ff    	mov    -0x1110(%rbp),%eax
    7c1b:	48 98                	cltq   
    7c1d:	48 8d 95 40 ef ff ff 	lea    -0x10c0(%rbp),%rdx
    7c24:	48 89 94 c5 d0 f0 ff 	mov    %rdx,-0xf30(%rbp,%rax,8)
    7c2b:	ff 
    7c2c:	83 85 f0 ee ff ff 01 	addl   $0x1,-0x1110(%rbp)
    7c33:	83 bd f0 ee ff ff 06 	cmpl   $0x6,-0x1110(%rbp)
    7c3a:	7e d9                	jle    7c15 <func_1+0x460>
    7c3c:	8b 05 32 85 01 00    	mov    0x18532(%rip),%eax        # 20174 <g_18>
    7c42:	83 e8 01             	sub    $0x1,%eax
    7c45:	89 05 29 85 01 00    	mov    %eax,0x18529(%rip)        # 20174 <g_18>
    7c4b:	8b 05 23 85 01 00    	mov    0x18523(%rip),%eax        # 20174 <g_18>
    7c51:	83 f8 fd             	cmp    $0xfffffffd,%eax
    7c54:	0f 8c 69 ff ff ff    	jl     7bc3 <func_1+0x40e>
    7c5a:	48 8b 85 68 ef ff ff 	mov    -0x1098(%rbp),%rax
    7c61:	8b 00                	mov    (%rax),%eax
    7c63:	85 c0                	test   %eax,%eax
    7c65:	75 51                	jne    7cb8 <func_1+0x503>
    7c67:	48 8b 05 1a f1 01 00 	mov    0x1f11a(%rip),%rax        # 26d88 <g_334>
    7c6e:	48 8b 30             	mov    (%rax),%rsi
    7c71:	48 8b 05 f8 f5 01 00 	mov    0x1f5f8(%rip),%rax        # 27270 <g_1345>
    7c78:	48 8b 08             	mov    (%rax),%rcx
    7c7b:	48 8b 06             	mov    (%rsi),%rax
    7c7e:	48 8b 56 08          	mov    0x8(%rsi),%rdx
    7c82:	48 89 01             	mov    %rax,(%rcx)
    7c85:	48 89 51 08          	mov    %rdx,0x8(%rcx)
    7c89:	8b 46 10             	mov    0x10(%rsi),%eax
    7c8c:	89 41 10             	mov    %eax,0x10(%rcx)
    7c8f:	8b 05 bb 83 01 00    	mov    0x183bb(%rip),%eax        # 20050 <g_12>
    7c95:	be 01 00 00 00       	mov    $0x1,%esi
    7c9a:	89 c7                	mov    %eax,%edi
    7c9c:	e8 64 e9 ff ff       	callq  6605 <safe_sub_func_int32_t_s_s>
    7ca1:	89 05 a9 83 01 00    	mov    %eax,0x183a9(%rip)        # 20050 <g_12>
    7ca7:	8b 05 a3 83 01 00    	mov    0x183a3(%rip),%eax        # 20050 <g_12>
    7cad:	83 f8 fe             	cmp    $0xfffffffe,%eax
    7cb0:	0f 8c dc fe ff ff    	jl     7b92 <func_1+0x3dd>
    7cb6:	eb 01                	jmp    7cb9 <func_1+0x504>
    7cb8:	90                   	nop
    7cb9:	c7 05 51 93 01 00 f2 	movl   $0xfffffff2,0x19351(%rip)        # 21014 <g_1438+0x4>
    7cc0:	ff ff ff 
    7cc3:	e9 d1 01 00 00       	jmpq   7e99 <func_1+0x6e4>
    7cc8:	48 8d 85 a0 f3 ff ff 	lea    -0xc60(%rbp),%rax
    7ccf:	48 8d 15 4a 28 01 00 	lea    0x1284a(%rip),%rdx        # 1a520 <g_1798+0x440>
    7cd6:	b9 93 00 00 00       	mov    $0x93,%ecx
    7cdb:	48 89 c7             	mov    %rax,%rdi
    7cde:	48 89 d6             	mov    %rdx,%rsi
    7ce1:	f3 48 a5             	rep movsq %ds:(%rsi),%es:(%rdi)
    7ce4:	c7 85 24 ef ff ff 00 	movl   $0x0,-0x10dc(%rbp)
    7ceb:	00 00 00 
    7cee:	66 c7 85 d6 ee ff ff 	movw   $0xffff,-0x112a(%rbp)
    7cf5:	ff ff 
    7cf7:	c7 05 96 89 01 00 ff 	movl   $0xffffffff,0x18996(%rip)        # 20697 <g_385+0x17>
    7cfe:	ff ff ff 
    7d01:	e9 3f 01 00 00       	jmpq   7e45 <func_1+0x690>
    7d06:	48 8d 05 cb 85 01 00 	lea    0x185cb(%rip),%rax        # 202d8 <g_142>
    7d0d:	48 89 85 e0 ef ff ff 	mov    %rax,-0x1020(%rbp)
    7d14:	48 c7 85 e8 ef ff ff 	movq   $0x0,-0x1018(%rbp)
    7d1b:	00 00 00 00 
    7d1f:	48 c7 85 f0 ef ff ff 	movq   $0x0,-0x1010(%rbp)
    7d26:	00 00 00 00 
    7d2a:	48 c7 85 f8 ef ff ff 	movq   $0x0,-0x1008(%rbp)
    7d31:	00 00 00 00 
    7d35:	48 8d 85 60 f1 ff ff 	lea    -0xea0(%rbp),%rax
    7d3c:	48 05 bc 00 00 00    	add    $0xbc,%rax
    7d42:	48 89 85 00 f0 ff ff 	mov    %rax,-0x1000(%rbp)
    7d49:	48 8d 05 6c fc 01 00 	lea    0x1fc6c(%rip),%rax        # 279bc <g_29+0xc>
    7d50:	48 89 85 08 f0 ff ff 	mov    %rax,-0xff8(%rbp)
    7d57:	48 8d 05 52 fc 01 00 	lea    0x1fc52(%rip),%rax        # 279b0 <g_29>
    7d5e:	48 89 85 10 f0 ff ff 	mov    %rax,-0xff0(%rbp)
    7d65:	48 8d 05 4c 89 01 00 	lea    0x1894c(%rip),%rax        # 206b8 <g_402>
    7d6c:	48 89 85 18 f0 ff ff 	mov    %rax,-0xfe8(%rbp)
    7d73:	48 8d 85 d8 ee ff ff 	lea    -0x1128(%rbp),%rax
    7d7a:	48 89 85 20 f0 ff ff 	mov    %rax,-0xfe0(%rbp)
    7d81:	48 c7 85 28 f0 ff ff 	movq   $0x0,-0xfd8(%rbp)
    7d88:	00 00 00 00 
    7d8c:	48 c7 85 30 f0 ff ff 	movq   $0x0,-0xfd0(%rbp)
    7d93:	00 00 00 00 
    7d97:	48 c7 85 38 f0 ff ff 	movq   $0x0,-0xfc8(%rbp)
    7d9e:	00 00 00 00 
    7da2:	48 8d 85 60 f1 ff ff 	lea    -0xea0(%rbp),%rax
    7da9:	48 05 d8 00 00 00    	add    $0xd8,%rax
    7daf:	48 89 85 40 f0 ff ff 	mov    %rax,-0xfc0(%rbp)
    7db6:	48 8d 85 60 f1 ff ff 	lea    -0xea0(%rbp),%rax
    7dbd:	48 05 bc 00 00 00    	add    $0xbc,%rax
    7dc3:	48 89 85 48 f0 ff ff 	mov    %rax,-0xfb8(%rbp)
    7dca:	48 c7 85 50 f0 ff ff 	movq   $0x0,-0xfb0(%rbp)
    7dd1:	00 00 00 00 
    7dd5:	48 8d 05 54 92 01 00 	lea    0x19254(%rip),%rax        # 21030 <g_1462>
    7ddc:	48 89 85 58 f0 ff ff 	mov    %rax,-0xfa8(%rbp)
    7de3:	c7 85 f4 ee ff ff 00 	movl   $0x0,-0x110c(%rbp)
    7dea:	00 00 00 
    7ded:	eb 1b                	jmp    7e0a <func_1+0x655>
    7def:	8b 85 f4 ee ff ff    	mov    -0x110c(%rbp),%eax
    7df5:	48 98                	cltq   
    7df7:	48 c7 84 c5 d0 f0 ff 	movq   $0x0,-0xf30(%rbp,%rax,8)
    7dfe:	ff 00 00 00 00 
    7e03:	83 85 f4 ee ff ff 01 	addl   $0x1,-0x110c(%rbp)
    7e0a:	83 bd f4 ee ff ff 07 	cmpl   $0x7,-0x110c(%rbp)
    7e11:	7e dc                	jle    7def <func_1+0x63a>
    7e13:	0f b6 05 c6 cf 01 00 	movzbl 0x1cfc6(%rip),%eax        # 24de0 <g_2067>
    7e1a:	83 c0 01             	add    $0x1,%eax
    7e1d:	88 05 bd cf 01 00    	mov    %al,0x1cfbd(%rip)        # 24de0 <g_2067>
    7e23:	80 85 c9 ee ff ff 01 	addb   $0x1,-0x1137(%rbp)
    7e2a:	8b 05 67 88 01 00    	mov    0x18867(%rip),%eax        # 20697 <g_385+0x17>
    7e30:	48 98                	cltq   
    7e32:	be 05 00 00 00       	mov    $0x5,%esi
    7e37:	48 89 c7             	mov    %rax,%rdi
    7e3a:	e8 69 ea ff ff       	callq  68a8 <safe_sub_func_int64_t_s_s>
    7e3f:	89 05 52 88 01 00    	mov    %eax,0x18852(%rip)        # 20697 <g_385+0x17>
    7e45:	8b 05 4c 88 01 00    	mov    0x1884c(%rip),%eax        # 20697 <g_385+0x17>
    7e4b:	83 f8 e8             	cmp    $0xffffffe8,%eax
    7e4e:	0f 84 b2 fe ff ff    	je     7d06 <func_1+0x551>
    7e54:	48 8b 05 0d ef 01 00 	mov    0x1ef0d(%rip),%rax        # 26d68 <g_232>
    7e5b:	8b 10                	mov    (%rax),%edx
    7e5d:	48 8b 05 04 ef 01 00 	mov    0x1ef04(%rip),%rax        # 26d68 <g_232>
    7e64:	33 95 dc ee ff ff    	xor    -0x1124(%rbp),%edx
    7e6a:	89 10                	mov    %edx,(%rax)
    7e6c:	0f b6 45 f6          	movzbl -0xa(%rbp),%eax
    7e70:	84 c0                	test   %al,%al
    7e72:	75 36                	jne    7eaa <func_1+0x6f5>
    7e74:	0f bf 85 d6 ee ff ff 	movswl -0x112a(%rbp),%eax
    7e7b:	31 85 dc ee ff ff    	xor    %eax,-0x1124(%rbp)
    7e81:	8b 05 8d 91 01 00    	mov    0x1918d(%rip),%eax        # 21014 <g_1438+0x4>
    7e87:	be 01 00 00 00       	mov    $0x1,%esi
    7e8c:	89 c7                	mov    %eax,%edi
    7e8e:	e8 25 f0 ff ff       	callq  6eb8 <safe_add_func_uint32_t_u_u>
    7e93:	89 05 7b 91 01 00    	mov    %eax,0x1917b(%rip)        # 21014 <g_1438+0x4>
    7e99:	8b 05 75 91 01 00    	mov    0x19175(%rip),%eax        # 21014 <g_1438+0x4>
    7e9f:	83 f8 1b             	cmp    $0x1b,%eax
    7ea2:	0f 84 20 fe ff ff    	je     7cc8 <func_1+0x513>
    7ea8:	eb 01                	jmp    7eab <func_1+0x6f6>
    7eaa:	90                   	nop
    7eab:	66 c7 05 58 87 01 00 	movw   $0x9,0x18758(%rip)        # 2060c <g_376>
    7eb2:	09 00 
    7eb4:	e9 c4 00 00 00       	jmpq   7f7d <func_1+0x7c8>
    7eb9:	c6 85 cd ee ff ff ff 	movb   $0xff,-0x1133(%rbp)
    7ec0:	48 8b 85 68 ef ff ff 	mov    -0x1098(%rbp),%rax
    7ec7:	8b 00                	mov    (%rax),%eax
    7ec9:	83 f8 ff             	cmp    $0xffffffff,%eax
    7ecc:	74 62                	je     7f30 <func_1+0x77b>
    7ece:	0f b6 45 f6          	movzbl -0xa(%rbp),%eax
    7ed2:	0f be c0             	movsbl %al,%eax
    7ed5:	89 c6                	mov    %eax,%esi
    7ed7:	bf 18 00 00 00       	mov    $0x18,%edi
    7edc:	e8 31 e3 ff ff       	callq  6212 <safe_mul_func_int8_t_s_s>
    7ee1:	0f be d0             	movsbl %al,%edx
    7ee4:	48 8b 05 ed f5 01 00 	mov    0x1f5ed(%rip),%rax        # 274d8 <g_1752>
    7eeb:	8b 30                	mov    (%rax),%esi
    7eed:	0f b6 8d cd ee ff ff 	movzbl -0x1133(%rbp),%ecx
    7ef4:	48 8b 05 dd f5 01 00 	mov    0x1f5dd(%rip),%rax        # 274d8 <g_1752>
    7efb:	31 f1                	xor    %esi,%ecx
    7efd:	89 08                	mov    %ecx,(%rax)
    7eff:	8b 00                	mov    (%rax),%eax
    7f01:	89 d6                	mov    %edx,%esi
    7f03:	89 c7                	mov    %eax,%edi
    7f05:	e8 1b f0 ff ff       	callq  6f25 <safe_div_func_uint32_t_u_u>
    7f0a:	0f be c0             	movsbl %al,%eax
    7f0d:	8b 95 fc ee ff ff    	mov    -0x1104(%rbp),%edx
    7f13:	89 d6                	mov    %edx,%esi
    7f15:	89 c7                	mov    %eax,%edi
    7f17:	e8 85 e3 ff ff       	callq  62a1 <safe_lshift_func_int8_t_s_s>
    7f1c:	66 98                	cbtw   
    7f1e:	0f b7 c0             	movzwl %ax,%eax
    7f21:	be 44 df 00 00       	mov    $0xdf44,%esi
    7f26:	89 c7                	mov    %eax,%edi
    7f28:	e8 f2 ed ff ff       	callq  6d1f <safe_sub_func_uint16_t_u_u>
    7f2d:	66 85 c0             	test   %ax,%ax
    7f30:	66 83 bd ce ee ff ff 	cmpw   $0x1,-0x1132(%rbp)
    7f37:	01 
    7f38:	0f 94 c0             	sete   %al
    7f3b:	0f b6 c0             	movzbl %al,%eax
    7f3e:	be ff 00 00 00       	mov    $0xff,%esi
    7f43:	89 c7                	mov    %eax,%edi
    7f45:	e8 2e ec ff ff       	callq  6b78 <safe_sub_func_uint8_t_u_u>
    7f4a:	8b 05 a8 8d 01 00    	mov    0x18da8(%rip),%eax        # 20cf8 <g_1202+0x8>
    7f50:	48 8d 05 69 fa 01 00 	lea    0x1fa69(%rip),%rax        # 279c0 <g_203>
    7f57:	48 89 85 60 f0 ff ff 	mov    %rax,-0xfa0(%rbp)
    7f5e:	48 8b 85 60 f0 ff ff 	mov    -0xfa0(%rbp),%rax
    7f65:	48 c7 00 00 00 00 00 	movq   $0x0,(%rax)
    7f6c:	0f b7 05 99 86 01 00 	movzwl 0x18699(%rip),%eax        # 2060c <g_376>
    7f73:	83 c0 01             	add    $0x1,%eax
    7f76:	66 89 05 8f 86 01 00 	mov    %ax,0x1868f(%rip)        # 2060c <g_376>
    7f7d:	0f b7 05 88 86 01 00 	movzwl 0x18688(%rip),%eax        # 2060c <g_376>
    7f84:	66 83 f8 30          	cmp    $0x30,%ax
    7f88:	0f 84 2b ff ff ff    	je     7eb9 <func_1+0x704>
    7f8e:	8b 05 b4 80 01 00    	mov    0x180b4(%rip),%eax        # 20048 <g_8>
    7f94:	be 01 00 00 00       	mov    $0x1,%esi
    7f99:	89 c7                	mov    %eax,%edi
    7f9b:	e8 18 ef ff ff       	callq  6eb8 <safe_add_func_uint32_t_u_u>
    7fa0:	89 05 a2 80 01 00    	mov    %eax,0x180a2(%rip)        # 20048 <g_8>
    7fa6:	8b 05 9c 80 01 00    	mov    0x1809c(%rip),%eax        # 20048 <g_8>
    7fac:	83 f8 05             	cmp    $0x5,%eax
    7faf:	0f 84 ac fb ff ff    	je     7b61 <func_1+0x3ac>
    7fb5:	48 8b 05 ac ed 01 00 	mov    0x1edac(%rip),%rax        # 26d68 <g_232>
    7fbc:	8b 10                	mov    (%rax),%edx
    7fbe:	48 8b 05 a3 ed 01 00 	mov    0x1eda3(%rip),%rax        # 26d68 <g_232>
    7fc5:	0b 95 18 ef ff ff    	or     -0x10e8(%rbp),%edx
    7fcb:	89 10                	mov    %edx,(%rax)
    7fcd:	8b 05 71 80 01 00    	mov    0x18071(%rip),%eax        # 20044 <g_5+0x14>
    7fd3:	83 c0 01             	add    $0x1,%eax
    7fd6:	89 05 68 80 01 00    	mov    %eax,0x18068(%rip)        # 20044 <g_5+0x14>
    7fdc:	8b 05 62 80 01 00    	mov    0x18062(%rip),%eax        # 20044 <g_5+0x14>
    7fe2:	83 f8 1c             	cmp    $0x1c,%eax
    7fe5:	0f 8e 20 fb ff ff    	jle    7b0b <func_1+0x356>
    7feb:	c6 05 ea 82 01 00 ef 	movb   $0xef,0x182ea(%rip)        # 202dc <g_165>
    7ff2:	e9 c9 00 00 00       	jmpq   80c0 <func_1+0x90b>
    7ff7:	48 c7 85 90 ef ff ff 	movq   $0x6,-0x1070(%rbp)
    7ffe:	06 00 00 00 
    8002:	48 8d 05 8f fa 01 00 	lea    0x1fa8f(%rip),%rax        # 27a98 <g_1271>
    8009:	48 89 85 98 ef ff ff 	mov    %rax,-0x1068(%rbp)
    8010:	48 8d 85 60 f1 ff ff 	lea    -0xea0(%rbp),%rax
    8017:	48 8d 15 62 d6 01 00 	lea    0x1d662(%rip),%rdx        # 25680 <g_2314+0x7d8>
    801e:	b9 48 00 00 00       	mov    $0x48,%ecx
    8023:	48 89 c7             	mov    %rax,%rdi
    8026:	48 89 d6             	mov    %rdx,%rsi
    8029:	f3 48 a5             	rep movsq %ds:(%rsi),%es:(%rdi)
    802c:	48 8d 85 a0 f3 ff ff 	lea    -0xc60(%rbp),%rax
    8033:	48 8d 15 86 29 01 00 	lea    0x12986(%rip),%rdx        # 1a9c0 <g_1798+0x8e0>
    803a:	b9 6c 00 00 00       	mov    $0x6c,%ecx
    803f:	48 89 c7             	mov    %rax,%rdi
    8042:	48 89 d6             	mov    %rdx,%rsi
    8045:	f3 48 a5             	rep movsq %ds:(%rsi),%es:(%rdi)
    8048:	48 8d 05 81 f4 01 00 	lea    0x1f481(%rip),%rax        # 274d0 <g_1586>
    804f:	48 89 85 a0 ef ff ff 	mov    %rax,-0x1060(%rbp)
    8056:	48 8d 85 10 f1 ff ff 	lea    -0xef0(%rbp),%rax
    805d:	48 83 c0 28          	add    $0x28,%rax
    8061:	48 89 85 a8 ef ff ff 	mov    %rax,-0x1058(%rbp)
    8068:	66 c7 85 d2 ee ff ff 	movw   $0x0,-0x112e(%rbp)
    806f:	00 00 
    8071:	c7 85 f8 ee ff ff 00 	movl   $0x0,-0x1108(%rbp)
    8078:	00 00 00 
    807b:	eb 1e                	jmp    809b <func_1+0x8e6>
    807d:	8b 85 f8 ee ff ff    	mov    -0x1108(%rbp),%eax
    8083:	48 98                	cltq   
    8085:	48 8d 15 dc ec 01 00 	lea    0x1ecdc(%rip),%rdx        # 26d68 <g_232>
    808c:	48 89 94 c5 d0 f0 ff 	mov    %rdx,-0xf30(%rbp,%rax,8)
    8093:	ff 
    8094:	83 85 f8 ee ff ff 01 	addl   $0x1,-0x1108(%rbp)
    809b:	83 bd f8 ee ff ff 02 	cmpl   $0x2,-0x1108(%rbp)
    80a2:	7e d9                	jle    807d <func_1+0x8c8>
    80a4:	0f b6 05 31 82 01 00 	movzbl 0x18231(%rip),%eax        # 202dc <g_165>
    80ab:	0f be c0             	movsbl %al,%eax
    80ae:	be 05 00 00 00       	mov    $0x5,%esi
    80b3:	89 c7                	mov    %eax,%edi
    80b5:	e8 1a e1 ff ff       	callq  61d4 <safe_add_func_int8_t_s_s>
    80ba:	88 05 1c 82 01 00    	mov    %al,0x1821c(%rip)        # 202dc <g_165>
    80c0:	0f b6 05 15 82 01 00 	movzbl 0x18215(%rip),%eax        # 202dc <g_165>
    80c7:	3c 05                	cmp    $0x5,%al
    80c9:	0f 8e 28 ff ff ff    	jle    7ff7 <func_1+0x842>
    80cf:	48 8b 05 92 ec 01 00 	mov    0x1ec92(%rip),%rax        # 26d68 <g_232>
    80d6:	8b 08                	mov    (%rax),%ecx
    80d8:	0f b6 95 ca ee ff ff 	movzbl -0x1136(%rbp),%edx
    80df:	48 8b 05 82 ec 01 00 	mov    0x1ec82(%rip),%rax        # 26d68 <g_232>
    80e6:	31 ca                	xor    %ecx,%edx
    80e8:	89 10                	mov    %edx,(%rax)
    80ea:	8b 05 38 7f 01 00    	mov    0x17f38(%rip),%eax        # 20028 <g_2>
    80f0:	83 c0 01             	add    $0x1,%eax
    80f3:	89 05 2f 7f 01 00    	mov    %eax,0x17f2f(%rip)        # 20028 <g_2>
    80f9:	8b 05 29 7f 01 00    	mov    0x17f29(%rip),%eax        # 20028 <g_2>
    80ff:	83 f8 1d             	cmp    $0x1d,%eax
    8102:	0f 8f 00 f8 ff ff    	jg     7908 <func_1+0x153>
    8108:	0f b6 85 ca ee ff ff 	movzbl -0x1136(%rbp),%eax
    810f:	48 8b 7d f8          	mov    -0x8(%rbp),%rdi
    8113:	64 48 33 3c 25 28 00 	xor    %fs:0x28,%rdi
    811a:	00 00 
    811c:	74 05                	je     8123 <func_1+0x96e>
    811e:	e8 4d df ff ff       	callq  6070 <__stack_chk_fail@plt>
    8123:	c9                   	leaveq 
    8124:	c3                   	retq   

0000000000008125 <func_24>:
    8125:	f3 0f 1e fa          	endbr64 
    8129:	55                   	push   %rbp
    812a:	48 89 e5             	mov    %rsp,%rbp
    812d:	53                   	push   %rbx
    812e:	48 83 ec 68          	sub    $0x68,%rsp
    8132:	48 89 7d 98          	mov    %rdi,-0x68(%rbp)
    8136:	89 75 94             	mov    %esi,-0x6c(%rbp)
    8139:	89 55 90             	mov    %edx,-0x70(%rbp)
    813c:	64 48 8b 04 25 28 00 	mov    %fs:0x28,%rax
    8143:	00 00 
    8145:	48 89 45 e8          	mov    %rax,-0x18(%rbp)
    8149:	31 c0                	xor    %eax,%eax
    814b:	48 8d 05 6a f8 01 00 	lea    0x1f86a(%rip),%rax        # 279bc <g_29+0xc>
    8152:	48 89 45 b0          	mov    %rax,-0x50(%rbp)
    8156:	48 8d 05 5f f8 01 00 	lea    0x1f85f(%rip),%rax        # 279bc <g_29+0xc>
    815d:	48 89 45 b8          	mov    %rax,-0x48(%rbp)
    8161:	c7 45 a4 01 00 00 00 	movl   $0x1,-0x5c(%rbp)
    8168:	48 8d 05 4d f8 01 00 	lea    0x1f84d(%rip),%rax        # 279bc <g_29+0xc>
    816f:	48 89 45 c0          	mov    %rax,-0x40(%rbp)
    8173:	48 8d 05 3e f8 01 00 	lea    0x1f83e(%rip),%rax        # 279b8 <g_29+0x8>
    817a:	48 89 45 c8          	mov    %rax,-0x38(%rbp)
    817e:	c7 45 ac 8c b0 77 29 	movl   $0x2977b08c,-0x54(%rbp)
    8185:	c6 45 a0 00          	movb   $0x0,-0x60(%rbp)
    8189:	c6 45 a1 09          	movb   $0x9,-0x5f(%rbp)
    818d:	66 c7 45 a2 00 00    	movw   $0x0,-0x5e(%rbp)
    8193:	c7 45 a8 00 00 00 00 	movl   $0x0,-0x58(%rbp)
    819a:	eb 12                	jmp    81ae <func_24+0x89>
    819c:	8b 45 a8             	mov    -0x58(%rbp),%eax
    819f:	48 98                	cltq   
    81a1:	48 8d 55 a4          	lea    -0x5c(%rbp),%rdx
    81a5:	48 89 54 c5 d0       	mov    %rdx,-0x30(%rbp,%rax,8)
    81aa:	83 45 a8 01          	addl   $0x1,-0x58(%rbp)
    81ae:	83 7d a8 01          	cmpl   $0x1,-0x58(%rbp)
    81b2:	7e e8                	jle    819c <func_24+0x77>
    81b4:	66 83 45 a2 01       	addw   $0x1,-0x5e(%rbp)
    81b9:	48 8b 45 98          	mov    -0x68(%rbp),%rax
    81bd:	48 8b 0d bc 7f 01 00 	mov    0x17fbc(%rip),%rcx        # 20180 <g_41>
    81c4:	48 8b 1d bd 7f 01 00 	mov    0x17fbd(%rip),%rbx        # 20188 <g_41+0x8>
    81cb:	48 89 08             	mov    %rcx,(%rax)
    81ce:	48 89 58 08          	mov    %rbx,0x8(%rax)
    81d2:	48 8b 0d b7 7f 01 00 	mov    0x17fb7(%rip),%rcx        # 20190 <g_41+0x10>
    81d9:	48 8b 1d b8 7f 01 00 	mov    0x17fb8(%rip),%rbx        # 20198 <g_41+0x18>
    81e0:	48 89 48 10          	mov    %rcx,0x10(%rax)
    81e4:	48 89 58 18          	mov    %rbx,0x18(%rax)
    81e8:	48 8b 15 b1 7f 01 00 	mov    0x17fb1(%rip),%rdx        # 201a0 <g_41+0x20>
    81ef:	48 89 50 20          	mov    %rdx,0x20(%rax)
    81f3:	48 8b 45 e8          	mov    -0x18(%rbp),%rax
    81f7:	64 48 33 04 25 28 00 	xor    %fs:0x28,%rax
    81fe:	00 00 
    8200:	74 05                	je     8207 <func_24+0xe2>
    8202:	e8 69 de ff ff       	callq  6070 <__stack_chk_fail@plt>
    8207:	48 8b 45 98          	mov    -0x68(%rbp),%rax
    820b:	48 83 c4 68          	add    $0x68,%rsp
    820f:	5b                   	pop    %rbx
    8210:	5d                   	pop    %rbp
    8211:	c3                   	retq   

0000000000008212 <func_50>:
    8212:	f3 0f 1e fa          	endbr64 
    8216:	55                   	push   %rbp
    8217:	48 89 e5             	mov    %rsp,%rbp
    821a:	48 81 ec f0 09 00 00 	sub    $0x9f0,%rsp
    8221:	48 89 bd 18 f6 ff ff 	mov    %rdi,-0x9e8(%rbp)
    8228:	89 b5 14 f6 ff ff    	mov    %esi,-0x9ec(%rbp)
    822e:	89 95 10 f6 ff ff    	mov    %edx,-0x9f0(%rbp)
    8234:	64 48 8b 04 25 28 00 	mov    %fs:0x28,%rax
    823b:	00 00 
    823d:	48 89 45 f8          	mov    %rax,-0x8(%rbp)
    8241:	31 c0                	xor    %eax,%eax
    8243:	66 c7 85 24 f6 ff ff 	movw   $0x7,-0x9dc(%rbp)
    824a:	07 00 
    824c:	48 8d 05 95 ed 01 00 	lea    0x1ed95(%rip),%rax        # 26fe8 <g_1208>
    8253:	48 89 85 40 f6 ff ff 	mov    %rax,-0x9c0(%rbp)
    825a:	c7 85 2c f6 ff ff fc 	movl   $0xfffffffc,-0x9d4(%rbp)
    8261:	ff ff ff 
    8264:	48 8d 85 10 f8 ff ff 	lea    -0x7f0(%rbp),%rax
    826b:	48 8d 15 4e d6 01 00 	lea    0x1d64e(%rip),%rdx        # 258c0 <g_2314+0xa18>
    8272:	b9 fc 00 00 00       	mov    $0xfc,%ecx
    8277:	48 89 c7             	mov    %rax,%rdi
    827a:	48 89 d6             	mov    %rdx,%rsi
    827d:	f3 48 a5             	rep movsq %ds:(%rsi),%es:(%rdi)
    8280:	48 c7 85 38 f6 ff ff 	movq   $0x0,-0x9c8(%rbp)
    8287:	00 00 00 00 
    828b:	48 8d 85 38 f6 ff ff 	lea    -0x9c8(%rbp),%rax
    8292:	48 89 85 80 f6 ff ff 	mov    %rax,-0x980(%rbp)
    8299:	48 8d 85 38 f6 ff ff 	lea    -0x9c8(%rbp),%rax
    82a0:	48 89 85 88 f6 ff ff 	mov    %rax,-0x978(%rbp)
    82a7:	48 8d 85 38 f6 ff ff 	lea    -0x9c8(%rbp),%rax
    82ae:	48 89 85 90 f6 ff ff 	mov    %rax,-0x970(%rbp)
    82b5:	48 8d 85 38 f6 ff ff 	lea    -0x9c8(%rbp),%rax
    82bc:	48 89 85 98 f6 ff ff 	mov    %rax,-0x968(%rbp)
    82c3:	48 8d 85 38 f6 ff ff 	lea    -0x9c8(%rbp),%rax
    82ca:	48 89 85 a0 f6 ff ff 	mov    %rax,-0x960(%rbp)
    82d1:	48 8d 85 38 f6 ff ff 	lea    -0x9c8(%rbp),%rax
    82d8:	48 89 85 a8 f6 ff ff 	mov    %rax,-0x958(%rbp)
    82df:	48 8d 85 38 f6 ff ff 	lea    -0x9c8(%rbp),%rax
    82e6:	48 89 85 b0 f6 ff ff 	mov    %rax,-0x950(%rbp)
    82ed:	48 8d 85 38 f6 ff ff 	lea    -0x9c8(%rbp),%rax
    82f4:	48 89 85 b8 f6 ff ff 	mov    %rax,-0x948(%rbp)
    82fb:	48 8d 85 38 f6 ff ff 	lea    -0x9c8(%rbp),%rax
    8302:	48 89 85 c0 f6 ff ff 	mov    %rax,-0x940(%rbp)
    8309:	48 8d 85 38 f6 ff ff 	lea    -0x9c8(%rbp),%rax
    8310:	48 89 85 c8 f6 ff ff 	mov    %rax,-0x938(%rbp)
    8317:	48 8d 05 f2 ea 01 00 	lea    0x1eaf2(%rip),%rax        # 26e10 <g_476>
    831e:	48 89 85 48 f6 ff ff 	mov    %rax,-0x9b8(%rbp)
    8325:	48 8d 05 3c ef 01 00 	lea    0x1ef3c(%rip),%rax        # 27268 <g_1346>
    832c:	48 89 85 50 f6 ff ff 	mov    %rax,-0x9b0(%rbp)
    8333:	c7 85 30 f6 ff ff 07 	movl   $0x180e6507,-0x9d0(%rbp)
    833a:	65 0e 18 
    833d:	c7 85 d0 f6 ff ff f8 	movl   $0xfffffff8,-0x930(%rbp)
    8344:	ff ff ff 
    8347:	c7 85 d4 f6 ff ff 00 	movl   $0x0,-0x92c(%rbp)
    834e:	00 00 00 
    8351:	c7 85 d8 f6 ff ff f8 	movl   $0xfffffff8,-0x928(%rbp)
    8358:	ff ff ff 
    835b:	c7 85 dc f6 ff ff 00 	movl   $0x0,-0x924(%rbp)
    8362:	00 00 00 
    8365:	c7 85 e0 f6 ff ff f8 	movl   $0xfffffff8,-0x920(%rbp)
    836c:	ff ff ff 
    836f:	c7 85 e4 f6 ff ff 00 	movl   $0x0,-0x91c(%rbp)
    8376:	00 00 00 
    8379:	c7 85 e8 f6 ff ff f8 	movl   $0xfffffff8,-0x918(%rbp)
    8380:	ff ff ff 
    8383:	c7 85 ec f6 ff ff 00 	movl   $0x0,-0x914(%rbp)
    838a:	00 00 00 
    838d:	c7 85 f0 f6 ff ff f8 	movl   $0xfffffff8,-0x910(%rbp)
    8394:	ff ff ff 
    8397:	c7 85 f4 f6 ff ff 00 	movl   $0x0,-0x90c(%rbp)
    839e:	00 00 00 
    83a1:	c7 85 f8 f6 ff ff f8 	movl   $0xfffffff8,-0x908(%rbp)
    83a8:	ff ff ff 
    83ab:	c7 85 fc f6 ff ff 00 	movl   $0x0,-0x904(%rbp)
    83b2:	00 00 00 
    83b5:	c7 85 00 f7 ff ff f8 	movl   $0xfffffff8,-0x900(%rbp)
    83bc:	ff ff ff 
    83bf:	c7 85 04 f7 ff ff 00 	movl   $0x0,-0x8fc(%rbp)
    83c6:	00 00 00 
    83c9:	c7 85 08 f7 ff ff f8 	movl   $0xfffffff8,-0x8f8(%rbp)
    83d0:	ff ff ff 
    83d3:	c7 85 0c f7 ff ff 00 	movl   $0x0,-0x8f4(%rbp)
    83da:	00 00 00 
    83dd:	c7 85 10 f7 ff ff f8 	movl   $0xfffffff8,-0x8f0(%rbp)
    83e4:	ff ff ff 
    83e7:	c7 85 14 f7 ff ff 00 	movl   $0x0,-0x8ec(%rbp)
    83ee:	00 00 00 
    83f1:	c7 85 18 f7 ff ff f8 	movl   $0xfffffff8,-0x8e8(%rbp)
    83f8:	ff ff ff 
    83fb:	c7 85 1c f7 ff ff 00 	movl   $0x0,-0x8e4(%rbp)
    8402:	00 00 00 
    8405:	48 b8 65 a1 6a 7e 26 	movabs $0xd870a3267e6aa165,%rax
    840c:	a3 70 d8 
    840f:	48 89 85 58 f6 ff ff 	mov    %rax,-0x9a8(%rbp)
    8416:	48 8d 05 4b e9 01 00 	lea    0x1e94b(%rip),%rax        # 26d68 <g_232>
    841d:	48 89 85 60 f6 ff ff 	mov    %rax,-0x9a0(%rbp)
    8424:	c7 85 28 f6 ff ff 00 	movl   $0x0,-0x9d8(%rbp)
    842b:	00 00 00 
    842e:	eb 1a                	jmp    844a <func_50+0x238>
    8430:	8b 85 28 f6 ff ff    	mov    -0x9d8(%rbp),%eax
    8436:	48 98                	cltq   
    8438:	c7 84 85 78 f6 ff ff 	movl   $0xffffffff,-0x988(%rbp,%rax,4)
    843f:	ff ff ff ff 
    8443:	83 85 28 f6 ff ff 01 	addl   $0x1,-0x9d8(%rbp)
    844a:	83 bd 28 f6 ff ff 01 	cmpl   $0x1,-0x9d8(%rbp)
    8451:	7e dd                	jle    8430 <func_50+0x21e>
    8453:	c6 05 b2 91 01 00 00 	movb   $0x0,0x191b2(%rip)        # 2160c <g_1670+0xc>
    845a:	e9 08 02 00 00       	jmpq   8667 <func_50+0x455>
    845f:	66 c7 85 26 f6 ff ff 	movw   $0xa980,-0x9da(%rbp)
    8466:	80 a9 
    8468:	c7 85 34 f6 ff ff 57 	movl   $0x48a1cd57,-0x9cc(%rbp)
    846f:	cd a1 48 
    8472:	48 8d 05 37 f5 01 00 	lea    0x1f537(%rip),%rax        # 279b0 <g_29>
    8479:	48 89 85 68 f6 ff ff 	mov    %rax,-0x998(%rbp)
    8480:	48 8d 05 a9 8b 01 00 	lea    0x18ba9(%rip),%rax        # 21030 <g_1462>
    8487:	48 89 85 20 f7 ff ff 	mov    %rax,-0x8e0(%rbp)
    848e:	48 c7 85 28 f7 ff ff 	movq   $0x0,-0x8d8(%rbp)
    8495:	00 00 00 00 
    8499:	48 8d 05 90 8b 01 00 	lea    0x18b90(%rip),%rax        # 21030 <g_1462>
    84a0:	48 89 85 30 f7 ff ff 	mov    %rax,-0x8d0(%rbp)
    84a7:	48 c7 85 38 f7 ff ff 	movq   $0x0,-0x8c8(%rbp)
    84ae:	00 00 00 00 
    84b2:	48 8d 05 77 8b 01 00 	lea    0x18b77(%rip),%rax        # 21030 <g_1462>
    84b9:	48 89 85 40 f7 ff ff 	mov    %rax,-0x8c0(%rbp)
    84c0:	48 c7 85 48 f7 ff ff 	movq   $0x0,-0x8b8(%rbp)
    84c7:	00 00 00 00 
    84cb:	48 8d 05 5e 8b 01 00 	lea    0x18b5e(%rip),%rax        # 21030 <g_1462>
    84d2:	48 89 85 50 f7 ff ff 	mov    %rax,-0x8b0(%rbp)
    84d9:	48 c7 85 58 f7 ff ff 	movq   $0x0,-0x8a8(%rbp)
    84e0:	00 00 00 00 
    84e4:	48 8d 05 45 8b 01 00 	lea    0x18b45(%rip),%rax        # 21030 <g_1462>
    84eb:	48 89 85 60 f7 ff ff 	mov    %rax,-0x8a0(%rbp)
    84f2:	48 c7 85 68 f7 ff ff 	movq   $0x0,-0x898(%rbp)
    84f9:	00 00 00 00 
    84fd:	48 8d 05 2c 8b 01 00 	lea    0x18b2c(%rip),%rax        # 21030 <g_1462>
    8504:	48 89 85 70 f7 ff ff 	mov    %rax,-0x890(%rbp)
    850b:	48 c7 85 78 f7 ff ff 	movq   $0x0,-0x888(%rbp)
    8512:	00 00 00 00 
    8516:	48 8d 05 13 8b 01 00 	lea    0x18b13(%rip),%rax        # 21030 <g_1462>
    851d:	48 89 85 80 f7 ff ff 	mov    %rax,-0x880(%rbp)
    8524:	48 c7 85 88 f7 ff ff 	movq   $0x0,-0x878(%rbp)
    852b:	00 00 00 00 
    852f:	48 8d 05 fa 8a 01 00 	lea    0x18afa(%rip),%rax        # 21030 <g_1462>
    8536:	48 89 85 90 f7 ff ff 	mov    %rax,-0x870(%rbp)
    853d:	48 c7 85 98 f7 ff ff 	movq   $0x0,-0x868(%rbp)
    8544:	00 00 00 00 
    8548:	48 8d 05 e1 8a 01 00 	lea    0x18ae1(%rip),%rax        # 21030 <g_1462>
    854f:	48 89 85 a0 f7 ff ff 	mov    %rax,-0x860(%rbp)
    8556:	48 c7 85 a8 f7 ff ff 	movq   $0x0,-0x858(%rbp)
    855d:	00 00 00 00 
    8561:	48 8d 05 c8 8a 01 00 	lea    0x18ac8(%rip),%rax        # 21030 <g_1462>
    8568:	48 89 85 b0 f7 ff ff 	mov    %rax,-0x850(%rbp)
    856f:	48 c7 85 b8 f7 ff ff 	movq   $0x0,-0x848(%rbp)
    8576:	00 00 00 00 
    857a:	48 8d 05 af 8a 01 00 	lea    0x18aaf(%rip),%rax        # 21030 <g_1462>
    8581:	48 89 85 c0 f7 ff ff 	mov    %rax,-0x840(%rbp)
    8588:	48 c7 85 c8 f7 ff ff 	movq   $0x0,-0x838(%rbp)
    858f:	00 00 00 00 
    8593:	48 8d 05 96 8a 01 00 	lea    0x18a96(%rip),%rax        # 21030 <g_1462>
    859a:	48 89 85 d0 f7 ff ff 	mov    %rax,-0x830(%rbp)
    85a1:	48 c7 85 d8 f7 ff ff 	movq   $0x0,-0x828(%rbp)
    85a8:	00 00 00 00 
    85ac:	48 8d 05 7d 8a 01 00 	lea    0x18a7d(%rip),%rax        # 21030 <g_1462>
    85b3:	48 89 85 e0 f7 ff ff 	mov    %rax,-0x820(%rbp)
    85ba:	48 c7 85 e8 f7 ff ff 	movq   $0x0,-0x818(%rbp)
    85c1:	00 00 00 00 
    85c5:	48 8d 05 64 8a 01 00 	lea    0x18a64(%rip),%rax        # 21030 <g_1462>
    85cc:	48 89 85 f0 f7 ff ff 	mov    %rax,-0x810(%rbp)
    85d3:	48 c7 85 f8 f7 ff ff 	movq   $0x0,-0x808(%rbp)
    85da:	00 00 00 00 
    85de:	48 8d 05 4b 8a 01 00 	lea    0x18a4b(%rip),%rax        # 21030 <g_1462>
    85e5:	48 89 85 00 f8 ff ff 	mov    %rax,-0x800(%rbp)
    85ec:	48 c7 85 08 f8 ff ff 	movq   $0x0,-0x7f8(%rbp)
    85f3:	00 00 00 00 
    85f7:	48 b8 f5 dc ce 84 76 	movabs $0x408b787684cedcf5,%rax
    85fe:	78 8b 40 
    8601:	48 89 85 70 f6 ff ff 	mov    %rax,-0x990(%rbp)
    8608:	0f bf 85 26 f6 ff ff 	movswl -0x9da(%rbp),%eax
    860f:	09 85 34 f6 ff ff    	or     %eax,-0x9cc(%rbp)
    8615:	66 83 ad 24 f6 ff ff 	subw   $0x1,-0x9dc(%rbp)
    861c:	01 
    861d:	8b 05 74 88 01 00    	mov    0x18874(%rip),%eax        # 20e97 <g_1361+0x17>
    8623:	48 63 d0             	movslq %eax,%rdx
    8626:	8b 85 14 f6 ff ff    	mov    -0x9ec(%rbp),%eax
    862c:	48 89 d6             	mov    %rdx,%rsi
    862f:	48 89 c7             	mov    %rax,%rdi
    8632:	e8 0a e2 ff ff       	callq  6841 <safe_add_func_int64_t_s_s>
    8637:	48 8b 95 68 f6 ff ff 	mov    -0x998(%rbp),%rdx
    863e:	8b 12                	mov    (%rdx),%edx
    8640:	31 c2                	xor    %eax,%edx
    8642:	48 8b 85 68 f6 ff ff 	mov    -0x998(%rbp),%rax
    8649:	89 10                	mov    %edx,(%rax)
    864b:	0f b6 05 ba 8f 01 00 	movzbl 0x18fba(%rip),%eax        # 2160c <g_1670+0xc>
    8652:	0f be c0             	movsbl %al,%eax
    8655:	be 07 00 00 00       	mov    $0x7,%esi
    865a:	89 c7                	mov    %eax,%edi
    865c:	e8 73 db ff ff       	callq  61d4 <safe_add_func_int8_t_s_s>
    8661:	88 05 a5 8f 01 00    	mov    %al,0x18fa5(%rip)        # 2160c <g_1670+0xc>
    8667:	0f b6 05 9e 8f 01 00 	movzbl 0x18f9e(%rip),%eax        # 2160c <g_1670+0xc>
    866e:	3c 19                	cmp    $0x19,%al
    8670:	0f 84 e9 fd ff ff    	je     845f <func_50+0x24d>
    8676:	48 8d 05 2f 7b 01 00 	lea    0x17b2f(%rip),%rax        # 201ac <g_47>
    867d:	48 8b 4d f8          	mov    -0x8(%rbp),%rcx
    8681:	64 48 33 0c 25 28 00 	xor    %fs:0x28,%rcx
    8688:	00 00 
    868a:	74 05                	je     8691 <func_50+0x47f>
    868c:	e8 df d9 ff ff       	callq  6070 <__stack_chk_fail@plt>
    8691:	c9                   	leaveq 
    8692:	c3                   	retq   

0000000000008693 <func_54>:
    8693:	f3 0f 1e fa          	endbr64 
    8697:	55                   	push   %rbp
    8698:	48 89 e5             	mov    %rsp,%rbp
    869b:	48 89 7d e8          	mov    %rdi,-0x18(%rbp)
    869f:	89 f0                	mov    %esi,%eax
    86a1:	48 89 55 d8          	mov    %rdx,-0x28(%rbp)
    86a5:	88 45 e4             	mov    %al,-0x1c(%rbp)
    86a8:	c7 45 fc dc 27 d6 93 	movl   $0x93d627dc,-0x4(%rbp)
    86af:	83 6d fc 01          	subl   $0x1,-0x4(%rbp)
    86b3:	48 8b 45 d8          	mov    -0x28(%rbp),%rax
    86b7:	5d                   	pop    %rbp
    86b8:	c3                   	retq   

00000000000086b9 <func_58>:
    86b9:	f3 0f 1e fa          	endbr64 
    86bd:	55                   	push   %rbp
    86be:	48 89 e5             	mov    %rsp,%rbp
    86c1:	41 56                	push   %r14
    86c3:	41 55                	push   %r13
    86c5:	41 54                	push   %r12
    86c7:	53                   	push   %rbx
    86c8:	48 81 ec 10 0c 00 00 	sub    $0xc10,%rsp
    86cf:	89 bd fc f3 ff ff    	mov    %edi,-0xc04(%rbp)
    86d5:	48 89 b5 f0 f3 ff ff 	mov    %rsi,-0xc10(%rbp)
    86dc:	48 89 95 e8 f3 ff ff 	mov    %rdx,-0xc18(%rbp)
    86e3:	48 89 8d e0 f3 ff ff 	mov    %rcx,-0xc20(%rbp)
    86ea:	4c 89 85 d8 f3 ff ff 	mov    %r8,-0xc28(%rbp)
    86f1:	64 48 8b 04 25 28 00 	mov    %fs:0x28,%rax
    86f8:	00 00 
    86fa:	48 89 45 d8          	mov    %rax,-0x28(%rbp)
    86fe:	31 c0                	xor    %eax,%eax
    8700:	48 8d 05 ad 7a 01 00 	lea    0x17aad(%rip),%rax        # 201b4 <g_78>
    8707:	48 89 85 a0 f4 ff ff 	mov    %rax,-0xb60(%rbp)
    870e:	48 8d 05 a3 7a 01 00 	lea    0x17aa3(%rip),%rax        # 201b8 <g_82>
    8715:	48 89 85 70 f6 ff ff 	mov    %rax,-0x990(%rbp)
    871c:	48 8d 05 95 7a 01 00 	lea    0x17a95(%rip),%rax        # 201b8 <g_82>
    8723:	48 89 85 78 f6 ff ff 	mov    %rax,-0x988(%rbp)
    872a:	48 8d 05 87 7a 01 00 	lea    0x17a87(%rip),%rax        # 201b8 <g_82>
    8731:	48 89 85 80 f6 ff ff 	mov    %rax,-0x980(%rbp)
    8738:	48 8d 05 79 7a 01 00 	lea    0x17a79(%rip),%rax        # 201b8 <g_82>
    873f:	48 89 85 88 f6 ff ff 	mov    %rax,-0x978(%rbp)
    8746:	48 8d 05 6b 7a 01 00 	lea    0x17a6b(%rip),%rax        # 201b8 <g_82>
    874d:	48 89 85 90 f6 ff ff 	mov    %rax,-0x970(%rbp)
    8754:	48 8d 05 5d 7a 01 00 	lea    0x17a5d(%rip),%rax        # 201b8 <g_82>
    875b:	48 89 85 98 f6 ff ff 	mov    %rax,-0x968(%rbp)
    8762:	48 8d 05 4f 7a 01 00 	lea    0x17a4f(%rip),%rax        # 201b8 <g_82>
    8769:	48 89 85 a0 f6 ff ff 	mov    %rax,-0x960(%rbp)
    8770:	48 8d 05 49 7a 01 00 	lea    0x17a49(%rip),%rax        # 201c0 <g_84>
    8777:	48 89 85 68 f4 ff ff 	mov    %rax,-0xb98(%rbp)
    877e:	48 8d 05 8b 85 01 00 	lea    0x1858b(%rip),%rax        # 20d10 <g_1204>
    8785:	48 89 85 70 f4 ff ff 	mov    %rax,-0xb90(%rbp)
    878c:	c7 85 0c f4 ff ff ff 	movl   $0xffffffff,-0xbf4(%rbp)
    8793:	ff ff ff 
    8796:	48 b8 15 a0 06 1d 6c 	movabs $0xb392646c1d06a015,%rax
    879d:	64 92 b3 
    87a0:	48 89 85 a8 f4 ff ff 	mov    %rax,-0xb58(%rbp)
    87a7:	48 8d 05 ba ea 01 00 	lea    0x1eaba(%rip),%rax        # 27268 <g_1346>
    87ae:	48 89 85 78 f4 ff ff 	mov    %rax,-0xb88(%rbp)
    87b5:	48 c7 85 b0 f4 ff ff 	movq   $0xfffffffffffffff7,-0xb50(%rbp)
    87bc:	f7 ff ff ff 
    87c0:	c7 85 10 f4 ff ff 00 	movl   $0x0,-0xbf0(%rbp)
    87c7:	00 00 00 
    87ca:	eb 1a                	jmp    87e6 <func_58+0x12d>
    87cc:	8b 85 10 f4 ff ff    	mov    -0xbf0(%rbp),%eax
    87d2:	48 98                	cltq   
    87d4:	c7 84 85 a8 f5 ff ff 	movl   $0xfffffffb,-0xa58(%rbp,%rax,4)
    87db:	fb ff ff ff 
    87df:	83 85 10 f4 ff ff 01 	addl   $0x1,-0xbf0(%rbp)
    87e6:	83 bd 10 f4 ff ff 01 	cmpl   $0x1,-0xbf0(%rbp)
    87ed:	7e dd                	jle    87cc <func_58+0x113>
    87ef:	c7 85 10 f4 ff ff 00 	movl   $0x0,-0xbf0(%rbp)
    87f6:	00 00 00 
    87f9:	eb 1e                	jmp    8819 <func_58+0x160>
    87fb:	8b 85 10 f4 ff ff    	mov    -0xbf0(%rbp),%eax
    8801:	48 98                	cltq   
    8803:	48 8d 95 70 f4 ff ff 	lea    -0xb90(%rbp),%rdx
    880a:	48 89 94 c5 b0 f5 ff 	mov    %rdx,-0xa50(%rbp,%rax,8)
    8811:	ff 
    8812:	83 85 10 f4 ff ff 01 	addl   $0x1,-0xbf0(%rbp)
    8819:	83 bd 10 f4 ff ff 01 	cmpl   $0x1,-0xbf0(%rbp)
    8820:	7e d9                	jle    87fb <func_58+0x142>
    8822:	c7 85 10 f4 ff ff 00 	movl   $0x0,-0xbf0(%rbp)
    8829:	00 00 00 
    882c:	eb 50                	jmp    887e <func_58+0x1c5>
    882e:	c7 85 14 f4 ff ff 00 	movl   $0x0,-0xbec(%rbp)
    8835:	00 00 00 
    8838:	eb 34                	jmp    886e <func_58+0x1b5>
    883a:	8b 85 14 f4 ff ff    	mov    -0xbec(%rbp),%eax
    8840:	48 63 c8             	movslq %eax,%rcx
    8843:	8b 85 10 f4 ff ff    	mov    -0xbf0(%rbp),%eax
    8849:	48 63 d0             	movslq %eax,%rdx
    884c:	48 89 d0             	mov    %rdx,%rax
    884f:	48 01 c0             	add    %rax,%rax
    8852:	48 01 d0             	add    %rdx,%rax
    8855:	48 01 c8             	add    %rcx,%rax
    8858:	48 8d 15 09 e5 01 00 	lea    0x1e509(%rip),%rdx        # 26d68 <g_232>
    885f:	48 89 94 c5 10 f6 ff 	mov    %rdx,-0x9f0(%rbp,%rax,8)
    8866:	ff 
    8867:	83 85 14 f4 ff ff 01 	addl   $0x1,-0xbec(%rbp)
    886e:	83 bd 14 f4 ff ff 02 	cmpl   $0x2,-0xbec(%rbp)
    8875:	7e c3                	jle    883a <func_58+0x181>
    8877:	83 85 10 f4 ff ff 01 	addl   $0x1,-0xbf0(%rbp)
    887e:	83 bd 10 f4 ff ff 01 	cmpl   $0x1,-0xbf0(%rbp)
    8885:	7e a7                	jle    882e <func_58+0x175>
    8887:	8b 05 1f 79 01 00    	mov    0x1791f(%rip),%eax        # 201ac <g_47>
    888d:	0f be c0             	movsbl %al,%eax
    8890:	be 01 00 00 00       	mov    $0x1,%esi
    8895:	89 c7                	mov    %eax,%edi
    8897:	e8 d0 da ff ff       	callq  636c <safe_rshift_func_int8_t_s_u>
    889c:	4c 0f be e0          	movsbq %al,%r12
    88a0:	48 8b 85 e8 f3 ff ff 	mov    -0xc18(%rbp),%rax
    88a7:	8b 00                	mov    (%rax),%eax
    88a9:	85 c0                	test   %eax,%eax
    88ab:	0f 94 c0             	sete   %al
    88ae:	0f b6 c0             	movzbl %al,%eax
    88b1:	be 12 1c fb 12       	mov    $0x12fb1c12,%esi
    88b6:	89 c7                	mov    %eax,%edi
    88b8:	e8 40 e6 ff ff       	callq  6efd <safe_mod_func_uint32_t_u_u>
    88bd:	8b 15 e5 78 01 00    	mov    0x178e5(%rip),%edx        # 201a8 <g_43>
    88c3:	09 d0                	or     %edx,%eax
    88c5:	41 89 c5             	mov    %eax,%r13d
    88c8:	48 b8 b6 19 1a d6 fc 	movabs $0x47acedfcd61a19b6,%rax
    88cf:	ed ac 47 
    88d2:	48 89 05 df 78 01 00 	mov    %rax,0x178df(%rip)        # 201b8 <g_82>
    88d9:	48 8b 85 68 f4 ff ff 	mov    -0xb98(%rbp),%rax
    88e0:	c6 00 b6             	movb   $0xb6,(%rax)
    88e3:	0f b6 00             	movzbl (%rax),%eax
    88e6:	0f be d8             	movsbl %al,%ebx
    88e9:	8b 05 59 77 01 00    	mov    0x17759(%rip),%eax        # 20048 <g_8>
    88ef:	85 c0                	test   %eax,%eax
    88f1:	74 5e                	je     8951 <func_58+0x298>
    88f3:	8b 05 77 78 01 00    	mov    0x17877(%rip),%eax        # 20170 <g_17>
    88f9:	41 89 c6             	mov    %eax,%r14d
    88fc:	8b 95 ac f5 ff ff    	mov    -0xa54(%rbp),%edx
    8902:	8b 85 fc f3 ff ff    	mov    -0xc04(%rbp),%eax
    8908:	89 05 a2 78 01 00    	mov    %eax,0x178a2(%rip)        # 201b0 <g_76>
    890e:	8b 05 9c 78 01 00    	mov    0x1789c(%rip),%eax        # 201b0 <g_76>
    8914:	89 c1                	mov    %eax,%ecx
    8916:	48 8b 85 a0 f4 ff ff 	mov    -0xb60(%rbp),%rax
    891d:	88 08                	mov    %cl,(%rax)
    891f:	48 8b 85 a0 f4 ff ff 	mov    -0xb60(%rbp),%rax
    8926:	0f b6 00             	movzbl (%rax),%eax
    8929:	0f be c0             	movsbl %al,%eax
    892c:	89 d6                	mov    %edx,%esi
    892e:	89 c7                	mov    %eax,%edi
    8930:	e8 00 da ff ff       	callq  6335 <safe_rshift_func_int8_t_s_s>
    8935:	83 c8 01             	or     $0x1,%eax
    8938:	0f be c0             	movsbl %al,%eax
    893b:	44 89 f6             	mov    %r14d,%esi
    893e:	89 c7                	mov    %eax,%edi
    8940:	e8 9c db ff ff       	callq  64e1 <safe_lshift_func_int16_t_s_u>
    8945:	66 85 c0             	test   %ax,%ax
    8948:	74 07                	je     8951 <func_58+0x298>
    894a:	b8 01 00 00 00       	mov    $0x1,%eax
    894f:	eb 05                	jmp    8956 <func_58+0x29d>
    8951:	b8 00 00 00 00       	mov    $0x0,%eax
    8956:	0f be c0             	movsbl %al,%eax
    8959:	89 de                	mov    %ebx,%esi
    895b:	89 c7                	mov    %eax,%edi
    895d:	e8 b0 d8 ff ff       	callq  6212 <safe_mul_func_int8_t_s_s>
    8962:	48 0f be c0          	movsbq %al,%rax
    8966:	4c 89 ee             	mov    %r13,%rsi
    8969:	48 89 c7             	mov    %rax,%rdi
    896c:	e8 43 e0 ff ff       	callq  69b4 <safe_mod_func_int64_t_s_s>
    8971:	49 39 c4             	cmp    %rax,%r12
    8974:	0f 84 46 0c 00 00    	je     95c0 <func_58+0xf07>
    897a:	c7 85 90 f7 ff ff 72 	movl   $0x7a824672,-0x870(%rbp)
    8981:	46 82 7a 
    8984:	c7 85 94 f7 ff ff 72 	movl   $0x7a824672,-0x86c(%rbp)
    898b:	46 82 7a 
    898e:	c7 85 98 f7 ff ff 72 	movl   $0x7a824672,-0x868(%rbp)
    8995:	46 82 7a 
    8998:	c7 85 9c f7 ff ff 72 	movl   $0x7a824672,-0x864(%rbp)
    899f:	46 82 7a 
    89a2:	c7 85 a0 f7 ff ff 72 	movl   $0x7a824672,-0x860(%rbp)
    89a9:	46 82 7a 
    89ac:	c7 85 a4 f7 ff ff 72 	movl   $0x7a824672,-0x85c(%rbp)
    89b3:	46 82 7a 
    89b6:	48 8d 05 05 78 01 00 	lea    0x17805(%rip),%rax        # 201c2 <g_89>
    89bd:	48 89 85 98 f5 ff ff 	mov    %rax,-0xa68(%rbp)
    89c4:	48 8d 05 79 76 01 00 	lea    0x17679(%rip),%rax        # 20044 <g_5+0x14>
    89cb:	48 89 85 50 f8 ff ff 	mov    %rax,-0x7b0(%rbp)
    89d2:	48 8d 05 6b 76 01 00 	lea    0x1766b(%rip),%rax        # 20044 <g_5+0x14>
    89d9:	48 89 85 58 f8 ff ff 	mov    %rax,-0x7a8(%rbp)
    89e0:	48 8d 05 5d 76 01 00 	lea    0x1765d(%rip),%rax        # 20044 <g_5+0x14>
    89e7:	48 89 85 60 f8 ff ff 	mov    %rax,-0x7a0(%rbp)
    89ee:	48 8d 05 4f 76 01 00 	lea    0x1764f(%rip),%rax        # 20044 <g_5+0x14>
    89f5:	48 89 85 68 f8 ff ff 	mov    %rax,-0x798(%rbp)
    89fc:	48 8d 85 a8 f5 ff ff 	lea    -0xa58(%rbp),%rax
    8a03:	48 83 c0 04          	add    $0x4,%rax
    8a07:	48 89 85 70 f8 ff ff 	mov    %rax,-0x790(%rbp)
    8a0e:	48 c7 85 78 f8 ff ff 	movq   $0x0,-0x788(%rbp)
    8a15:	00 00 00 00 
    8a19:	48 8d 05 9c ef 01 00 	lea    0x1ef9c(%rip),%rax        # 279bc <g_29+0xc>
    8a20:	48 89 85 80 f8 ff ff 	mov    %rax,-0x780(%rbp)
    8a27:	48 8d 05 8e ef 01 00 	lea    0x1ef8e(%rip),%rax        # 279bc <g_29+0xc>
    8a2e:	48 89 85 88 f8 ff ff 	mov    %rax,-0x778(%rbp)
    8a35:	48 8d 85 a8 f5 ff ff 	lea    -0xa58(%rbp),%rax
    8a3c:	48 83 c0 04          	add    $0x4,%rax
    8a40:	48 89 85 90 f8 ff ff 	mov    %rax,-0x770(%rbp)
    8a47:	48 c7 85 98 f8 ff ff 	movq   $0x0,-0x768(%rbp)
    8a4e:	00 00 00 00 
    8a52:	48 8d 85 a8 f5 ff ff 	lea    -0xa58(%rbp),%rax
    8a59:	48 83 c0 04          	add    $0x4,%rax
    8a5d:	48 89 85 a0 f8 ff ff 	mov    %rax,-0x760(%rbp)
    8a64:	48 c7 85 a8 f8 ff ff 	movq   $0x0,-0x758(%rbp)
    8a6b:	00 00 00 00 
    8a6f:	48 8d 85 a8 f5 ff ff 	lea    -0xa58(%rbp),%rax
    8a76:	48 83 c0 04          	add    $0x4,%rax
    8a7a:	48 89 85 b0 f8 ff ff 	mov    %rax,-0x750(%rbp)
    8a81:	48 8d 05 bc 75 01 00 	lea    0x175bc(%rip),%rax        # 20044 <g_5+0x14>
    8a88:	48 89 85 b8 f8 ff ff 	mov    %rax,-0x748(%rbp)
    8a8f:	48 8d 85 90 f7 ff ff 	lea    -0x870(%rbp),%rax
    8a96:	48 89 85 c0 f8 ff ff 	mov    %rax,-0x740(%rbp)
    8a9d:	48 c7 85 c8 f8 ff ff 	movq   $0x0,-0x738(%rbp)
    8aa4:	00 00 00 00 
    8aa8:	48 8d 85 a8 f5 ff ff 	lea    -0xa58(%rbp),%rax
    8aaf:	48 83 c0 04          	add    $0x4,%rax
    8ab3:	48 89 85 d0 f8 ff ff 	mov    %rax,-0x730(%rbp)
    8aba:	48 c7 85 d8 f8 ff ff 	movq   $0x0,-0x728(%rbp)
    8ac1:	00 00 00 00 
    8ac5:	48 8d 05 f0 ee 01 00 	lea    0x1eef0(%rip),%rax        # 279bc <g_29+0xc>
    8acc:	48 89 85 e0 f8 ff ff 	mov    %rax,-0x720(%rbp)
    8ad3:	48 8d 85 a8 f5 ff ff 	lea    -0xa58(%rbp),%rax
    8ada:	48 83 c0 04          	add    $0x4,%rax
    8ade:	48 89 85 e8 f8 ff ff 	mov    %rax,-0x718(%rbp)
    8ae5:	48 8d 85 90 f7 ff ff 	lea    -0x870(%rbp),%rax
    8aec:	48 89 85 f0 f8 ff ff 	mov    %rax,-0x710(%rbp)
    8af3:	48 8d 05 4a 75 01 00 	lea    0x1754a(%rip),%rax        # 20044 <g_5+0x14>
    8afa:	48 89 85 f8 f8 ff ff 	mov    %rax,-0x708(%rbp)
    8b01:	48 8d 05 a8 ee 01 00 	lea    0x1eea8(%rip),%rax        # 279b0 <g_29>
    8b08:	48 89 85 00 f9 ff ff 	mov    %rax,-0x700(%rbp)
    8b0f:	48 c7 85 08 f9 ff ff 	movq   $0x0,-0x6f8(%rbp)
    8b16:	00 00 00 00 
    8b1a:	48 8d 05 23 75 01 00 	lea    0x17523(%rip),%rax        # 20044 <g_5+0x14>
    8b21:	48 89 85 10 f9 ff ff 	mov    %rax,-0x6f0(%rbp)
    8b28:	48 8d 85 a8 f5 ff ff 	lea    -0xa58(%rbp),%rax
    8b2f:	48 83 c0 04          	add    $0x4,%rax
    8b33:	48 89 85 18 f9 ff ff 	mov    %rax,-0x6e8(%rbp)
    8b3a:	48 8d 85 a8 f5 ff ff 	lea    -0xa58(%rbp),%rax
    8b41:	48 83 c0 04          	add    $0x4,%rax
    8b45:	48 89 85 20 f9 ff ff 	mov    %rax,-0x6e0(%rbp)
    8b4c:	48 c7 85 28 f9 ff ff 	movq   $0x0,-0x6d8(%rbp)
    8b53:	00 00 00 00 
    8b57:	48 8d 85 a8 f5 ff ff 	lea    -0xa58(%rbp),%rax
    8b5e:	48 83 c0 04          	add    $0x4,%rax
    8b62:	48 89 85 30 f9 ff ff 	mov    %rax,-0x6d0(%rbp)
    8b69:	48 c7 85 38 f9 ff ff 	movq   $0x0,-0x6c8(%rbp)
    8b70:	00 00 00 00 
    8b74:	48 8d 05 c9 74 01 00 	lea    0x174c9(%rip),%rax        # 20044 <g_5+0x14>
    8b7b:	48 89 85 40 f9 ff ff 	mov    %rax,-0x6c0(%rbp)
    8b82:	48 8d 05 bb 74 01 00 	lea    0x174bb(%rip),%rax        # 20044 <g_5+0x14>
    8b89:	48 89 85 48 f9 ff ff 	mov    %rax,-0x6b8(%rbp)
    8b90:	48 8d 05 ad 74 01 00 	lea    0x174ad(%rip),%rax        # 20044 <g_5+0x14>
    8b97:	48 89 85 50 f9 ff ff 	mov    %rax,-0x6b0(%rbp)
    8b9e:	48 8d 05 9f 74 01 00 	lea    0x1749f(%rip),%rax        # 20044 <g_5+0x14>
    8ba5:	48 89 85 58 f9 ff ff 	mov    %rax,-0x6a8(%rbp)
    8bac:	48 8d 85 a8 f5 ff ff 	lea    -0xa58(%rbp),%rax
    8bb3:	48 83 c0 04          	add    $0x4,%rax
    8bb7:	48 89 85 60 f9 ff ff 	mov    %rax,-0x6a0(%rbp)
    8bbe:	48 c7 85 68 f9 ff ff 	movq   $0x0,-0x698(%rbp)
    8bc5:	00 00 00 00 
    8bc9:	48 8d 05 ec ed 01 00 	lea    0x1edec(%rip),%rax        # 279bc <g_29+0xc>
    8bd0:	48 89 85 70 f9 ff ff 	mov    %rax,-0x690(%rbp)
    8bd7:	48 8d 85 a8 f5 ff ff 	lea    -0xa58(%rbp),%rax
    8bde:	48 83 c0 04          	add    $0x4,%rax
    8be2:	48 89 85 78 f9 ff ff 	mov    %rax,-0x688(%rbp)
    8be9:	48 8d 05 54 74 01 00 	lea    0x17454(%rip),%rax        # 20044 <g_5+0x14>
    8bf0:	48 89 85 80 f9 ff ff 	mov    %rax,-0x680(%rbp)
    8bf7:	48 c7 85 88 f9 ff ff 	movq   $0x0,-0x678(%rbp)
    8bfe:	00 00 00 00 
    8c02:	48 c7 85 90 f9 ff ff 	movq   $0x0,-0x670(%rbp)
    8c09:	00 00 00 00 
    8c0d:	48 c7 85 98 f9 ff ff 	movq   $0x0,-0x668(%rbp)
    8c14:	00 00 00 00 
    8c18:	48 8d 05 25 74 01 00 	lea    0x17425(%rip),%rax        # 20044 <g_5+0x14>
    8c1f:	48 89 85 a0 f9 ff ff 	mov    %rax,-0x660(%rbp)
    8c26:	48 8d 05 8f ed 01 00 	lea    0x1ed8f(%rip),%rax        # 279bc <g_29+0xc>
    8c2d:	48 89 85 a8 f9 ff ff 	mov    %rax,-0x658(%rbp)
    8c34:	48 8d 05 09 74 01 00 	lea    0x17409(%rip),%rax        # 20044 <g_5+0x14>
    8c3b:	48 89 85 b0 f9 ff ff 	mov    %rax,-0x650(%rbp)
    8c42:	48 c7 85 b8 f9 ff ff 	movq   $0x0,-0x648(%rbp)
    8c49:	00 00 00 00 
    8c4d:	48 8d 05 5c ed 01 00 	lea    0x1ed5c(%rip),%rax        # 279b0 <g_29>
    8c54:	48 89 85 c0 f9 ff ff 	mov    %rax,-0x640(%rbp)
    8c5b:	48 c7 85 c8 f9 ff ff 	movq   $0x0,-0x638(%rbp)
    8c62:	00 00 00 00 
    8c66:	48 8d 85 a8 f5 ff ff 	lea    -0xa58(%rbp),%rax
    8c6d:	48 83 c0 04          	add    $0x4,%rax
    8c71:	48 89 85 d0 f9 ff ff 	mov    %rax,-0x630(%rbp)
    8c78:	48 8d 05 c5 73 01 00 	lea    0x173c5(%rip),%rax        # 20044 <g_5+0x14>
    8c7f:	48 89 85 d8 f9 ff ff 	mov    %rax,-0x628(%rbp)
    8c86:	48 8d 05 b7 73 01 00 	lea    0x173b7(%rip),%rax        # 20044 <g_5+0x14>
    8c8d:	48 89 85 e0 f9 ff ff 	mov    %rax,-0x620(%rbp)
    8c94:	48 c7 85 e8 f9 ff ff 	movq   $0x0,-0x618(%rbp)
    8c9b:	00 00 00 00 
    8c9f:	48 8d 85 a8 f5 ff ff 	lea    -0xa58(%rbp),%rax
    8ca6:	48 83 c0 04          	add    $0x4,%rax
    8caa:	48 89 85 f0 f9 ff ff 	mov    %rax,-0x610(%rbp)
    8cb1:	48 c7 85 f8 f9 ff ff 	movq   $0x0,-0x608(%rbp)
    8cb8:	00 00 00 00 
    8cbc:	48 8d 85 90 f7 ff ff 	lea    -0x870(%rbp),%rax
    8cc3:	48 89 85 00 fa ff ff 	mov    %rax,-0x600(%rbp)
    8cca:	48 8d 05 73 73 01 00 	lea    0x17373(%rip),%rax        # 20044 <g_5+0x14>
    8cd1:	48 89 85 08 fa ff ff 	mov    %rax,-0x5f8(%rbp)
    8cd8:	48 8d 05 65 73 01 00 	lea    0x17365(%rip),%rax        # 20044 <g_5+0x14>
    8cdf:	48 89 85 10 fa ff ff 	mov    %rax,-0x5f0(%rbp)
    8ce6:	48 c7 85 18 fa ff ff 	movq   $0x0,-0x5e8(%rbp)
    8ced:	00 00 00 00 
    8cf1:	48 8d 05 b8 ec 01 00 	lea    0x1ecb8(%rip),%rax        # 279b0 <g_29>
    8cf8:	48 89 85 20 fa ff ff 	mov    %rax,-0x5e0(%rbp)
    8cff:	48 8d 05 42 73 01 00 	lea    0x17342(%rip),%rax        # 20048 <g_8>
    8d06:	48 89 85 28 fa ff ff 	mov    %rax,-0x5d8(%rbp)
    8d0d:	48 8d 85 90 f7 ff ff 	lea    -0x870(%rbp),%rax
    8d14:	48 89 85 30 fa ff ff 	mov    %rax,-0x5d0(%rbp)
    8d1b:	48 8d 05 9a ec 01 00 	lea    0x1ec9a(%rip),%rax        # 279bc <g_29+0xc>
    8d22:	48 89 85 38 fa ff ff 	mov    %rax,-0x5c8(%rbp)
    8d29:	48 8d 85 90 f7 ff ff 	lea    -0x870(%rbp),%rax
    8d30:	48 89 85 40 fa ff ff 	mov    %rax,-0x5c0(%rbp)
    8d37:	48 c7 85 48 fa ff ff 	movq   $0x0,-0x5b8(%rbp)
    8d3e:	00 00 00 00 
    8d42:	48 c7 85 50 fa ff ff 	movq   $0x0,-0x5b0(%rbp)
    8d49:	00 00 00 00 
    8d4d:	48 8d 05 f4 72 01 00 	lea    0x172f4(%rip),%rax        # 20048 <g_8>
    8d54:	48 89 85 58 fa ff ff 	mov    %rax,-0x5a8(%rbp)
    8d5b:	48 8d 85 a8 f5 ff ff 	lea    -0xa58(%rbp),%rax
    8d62:	48 83 c0 04          	add    $0x4,%rax
    8d66:	48 89 85 60 fa ff ff 	mov    %rax,-0x5a0(%rbp)
    8d6d:	48 8d 85 a8 f5 ff ff 	lea    -0xa58(%rbp),%rax
    8d74:	48 83 c0 04          	add    $0x4,%rax
    8d78:	48 89 85 68 fa ff ff 	mov    %rax,-0x598(%rbp)
    8d7f:	48 8d 05 be 72 01 00 	lea    0x172be(%rip),%rax        # 20044 <g_5+0x14>
    8d86:	48 89 85 70 fa ff ff 	mov    %rax,-0x590(%rbp)
    8d8d:	48 c7 85 78 fa ff ff 	movq   $0x0,-0x588(%rbp)
    8d94:	00 00 00 00 
    8d98:	48 c7 85 80 fa ff ff 	movq   $0x0,-0x580(%rbp)
    8d9f:	00 00 00 00 
    8da3:	48 c7 85 88 fa ff ff 	movq   $0x0,-0x578(%rbp)
    8daa:	00 00 00 00 
    8dae:	48 8d 05 8f 72 01 00 	lea    0x1728f(%rip),%rax        # 20044 <g_5+0x14>
    8db5:	48 89 85 90 fa ff ff 	mov    %rax,-0x570(%rbp)
    8dbc:	48 8d 05 f9 eb 01 00 	lea    0x1ebf9(%rip),%rax        # 279bc <g_29+0xc>
    8dc3:	48 89 85 98 fa ff ff 	mov    %rax,-0x568(%rbp)
    8dca:	48 8d 05 73 72 01 00 	lea    0x17273(%rip),%rax        # 20044 <g_5+0x14>
    8dd1:	48 89 85 a0 fa ff ff 	mov    %rax,-0x560(%rbp)
    8dd8:	48 c7 85 a8 fa ff ff 	movq   $0x0,-0x558(%rbp)
    8ddf:	00 00 00 00 
    8de3:	48 8d 05 c6 eb 01 00 	lea    0x1ebc6(%rip),%rax        # 279b0 <g_29>
    8dea:	48 89 85 b0 fa ff ff 	mov    %rax,-0x550(%rbp)
    8df1:	48 c7 85 b8 fa ff ff 	movq   $0x0,-0x548(%rbp)
    8df8:	00 00 00 00 
    8dfc:	48 8d 85 a8 f5 ff ff 	lea    -0xa58(%rbp),%rax
    8e03:	48 83 c0 04          	add    $0x4,%rax
    8e07:	48 89 85 c0 fa ff ff 	mov    %rax,-0x540(%rbp)
    8e0e:	48 8d 05 2f 72 01 00 	lea    0x1722f(%rip),%rax        # 20044 <g_5+0x14>
    8e15:	48 89 85 c8 fa ff ff 	mov    %rax,-0x538(%rbp)
    8e1c:	48 8d 05 21 72 01 00 	lea    0x17221(%rip),%rax        # 20044 <g_5+0x14>
    8e23:	48 89 85 d0 fa ff ff 	mov    %rax,-0x530(%rbp)
    8e2a:	48 c7 85 d8 fa ff ff 	movq   $0x0,-0x528(%rbp)
    8e31:	00 00 00 00 
    8e35:	48 8d 85 a8 f5 ff ff 	lea    -0xa58(%rbp),%rax
    8e3c:	48 83 c0 04          	add    $0x4,%rax
    8e40:	48 89 85 e0 fa ff ff 	mov    %rax,-0x520(%rbp)
    8e47:	48 c7 85 e8 fa ff ff 	movq   $0x0,-0x518(%rbp)
    8e4e:	00 00 00 00 
    8e52:	48 8d 85 90 f7 ff ff 	lea    -0x870(%rbp),%rax
    8e59:	48 89 85 f0 fa ff ff 	mov    %rax,-0x510(%rbp)
    8e60:	48 8d 05 dd 71 01 00 	lea    0x171dd(%rip),%rax        # 20044 <g_5+0x14>
    8e67:	48 89 85 f8 fa ff ff 	mov    %rax,-0x508(%rbp)
    8e6e:	48 8d 05 cf 71 01 00 	lea    0x171cf(%rip),%rax        # 20044 <g_5+0x14>
    8e75:	48 89 85 00 fb ff ff 	mov    %rax,-0x500(%rbp)
    8e7c:	48 c7 85 08 fb ff ff 	movq   $0x0,-0x4f8(%rbp)
    8e83:	00 00 00 00 
    8e87:	48 8d 05 22 eb 01 00 	lea    0x1eb22(%rip),%rax        # 279b0 <g_29>
    8e8e:	48 89 85 10 fb ff ff 	mov    %rax,-0x4f0(%rbp)
    8e95:	48 8d 05 ac 71 01 00 	lea    0x171ac(%rip),%rax        # 20048 <g_8>
    8e9c:	48 89 85 18 fb ff ff 	mov    %rax,-0x4e8(%rbp)
    8ea3:	48 8d 85 90 f7 ff ff 	lea    -0x870(%rbp),%rax
    8eaa:	48 89 85 20 fb ff ff 	mov    %rax,-0x4e0(%rbp)
    8eb1:	48 8d 05 04 eb 01 00 	lea    0x1eb04(%rip),%rax        # 279bc <g_29+0xc>
    8eb8:	48 89 85 28 fb ff ff 	mov    %rax,-0x4d8(%rbp)
    8ebf:	48 8d 85 90 f7 ff ff 	lea    -0x870(%rbp),%rax
    8ec6:	48 89 85 30 fb ff ff 	mov    %rax,-0x4d0(%rbp)
    8ecd:	48 c7 85 38 fb ff ff 	movq   $0x0,-0x4c8(%rbp)
    8ed4:	00 00 00 00 
    8ed8:	48 c7 85 40 fb ff ff 	movq   $0x0,-0x4c0(%rbp)
    8edf:	00 00 00 00 
    8ee3:	48 8d 05 5e 71 01 00 	lea    0x1715e(%rip),%rax        # 20048 <g_8>
    8eea:	48 89 85 48 fb ff ff 	mov    %rax,-0x4b8(%rbp)
    8ef1:	48 8d 85 a8 f5 ff ff 	lea    -0xa58(%rbp),%rax
    8ef8:	48 83 c0 04          	add    $0x4,%rax
    8efc:	48 89 85 50 fb ff ff 	mov    %rax,-0x4b0(%rbp)
    8f03:	48 8d 85 a8 f5 ff ff 	lea    -0xa58(%rbp),%rax
    8f0a:	48 83 c0 04          	add    $0x4,%rax
    8f0e:	48 89 85 58 fb ff ff 	mov    %rax,-0x4a8(%rbp)
    8f15:	48 8d 05 28 71 01 00 	lea    0x17128(%rip),%rax        # 20044 <g_5+0x14>
    8f1c:	48 89 85 60 fb ff ff 	mov    %rax,-0x4a0(%rbp)
    8f23:	48 c7 85 68 fb ff ff 	movq   $0x0,-0x498(%rbp)
    8f2a:	00 00 00 00 
    8f2e:	48 c7 85 70 fb ff ff 	movq   $0x0,-0x490(%rbp)
    8f35:	00 00 00 00 
    8f39:	48 c7 85 78 fb ff ff 	movq   $0x0,-0x488(%rbp)
    8f40:	00 00 00 00 
    8f44:	48 8d 05 f9 70 01 00 	lea    0x170f9(%rip),%rax        # 20044 <g_5+0x14>
    8f4b:	48 89 85 80 fb ff ff 	mov    %rax,-0x480(%rbp)
    8f52:	48 8d 05 63 ea 01 00 	lea    0x1ea63(%rip),%rax        # 279bc <g_29+0xc>
    8f59:	48 89 85 88 fb ff ff 	mov    %rax,-0x478(%rbp)
    8f60:	48 8d 05 dd 70 01 00 	lea    0x170dd(%rip),%rax        # 20044 <g_5+0x14>
    8f67:	48 89 85 90 fb ff ff 	mov    %rax,-0x470(%rbp)
    8f6e:	48 c7 85 98 fb ff ff 	movq   $0x0,-0x468(%rbp)
    8f75:	00 00 00 00 
    8f79:	48 8d 05 30 ea 01 00 	lea    0x1ea30(%rip),%rax        # 279b0 <g_29>
    8f80:	48 89 85 a0 fb ff ff 	mov    %rax,-0x460(%rbp)
    8f87:	48 c7 85 a8 fb ff ff 	movq   $0x0,-0x458(%rbp)
    8f8e:	00 00 00 00 
    8f92:	48 8d 85 a8 f5 ff ff 	lea    -0xa58(%rbp),%rax
    8f99:	48 83 c0 04          	add    $0x4,%rax
    8f9d:	48 89 85 b0 fb ff ff 	mov    %rax,-0x450(%rbp)
    8fa4:	48 8d 05 99 70 01 00 	lea    0x17099(%rip),%rax        # 20044 <g_5+0x14>
    8fab:	48 89 85 b8 fb ff ff 	mov    %rax,-0x448(%rbp)
    8fb2:	48 8d 05 8b 70 01 00 	lea    0x1708b(%rip),%rax        # 20044 <g_5+0x14>
    8fb9:	48 89 85 c0 fb ff ff 	mov    %rax,-0x440(%rbp)
    8fc0:	48 c7 85 c8 fb ff ff 	movq   $0x0,-0x438(%rbp)
    8fc7:	00 00 00 00 
    8fcb:	48 8d 85 a8 f5 ff ff 	lea    -0xa58(%rbp),%rax
    8fd2:	48 83 c0 04          	add    $0x4,%rax
    8fd6:	48 89 85 d0 fb ff ff 	mov    %rax,-0x430(%rbp)
    8fdd:	48 c7 85 d8 fb ff ff 	movq   $0x0,-0x428(%rbp)
    8fe4:	00 00 00 00 
    8fe8:	48 8d 85 90 f7 ff ff 	lea    -0x870(%rbp),%rax
    8fef:	48 89 85 e0 fb ff ff 	mov    %rax,-0x420(%rbp)
    8ff6:	48 8d 05 47 70 01 00 	lea    0x17047(%rip),%rax        # 20044 <g_5+0x14>
    8ffd:	48 89 85 e8 fb ff ff 	mov    %rax,-0x418(%rbp)
    9004:	48 8d 05 39 70 01 00 	lea    0x17039(%rip),%rax        # 20044 <g_5+0x14>
    900b:	48 89 85 f0 fb ff ff 	mov    %rax,-0x410(%rbp)
    9012:	48 c7 85 f8 fb ff ff 	movq   $0x0,-0x408(%rbp)
    9019:	00 00 00 00 
    901d:	48 8d 05 8c e9 01 00 	lea    0x1e98c(%rip),%rax        # 279b0 <g_29>
    9024:	48 89 85 00 fc ff ff 	mov    %rax,-0x400(%rbp)
    902b:	48 8d 05 16 70 01 00 	lea    0x17016(%rip),%rax        # 20048 <g_8>
    9032:	48 89 85 08 fc ff ff 	mov    %rax,-0x3f8(%rbp)
    9039:	48 8d 85 90 f7 ff ff 	lea    -0x870(%rbp),%rax
    9040:	48 89 85 10 fc ff ff 	mov    %rax,-0x3f0(%rbp)
    9047:	48 8d 05 6e e9 01 00 	lea    0x1e96e(%rip),%rax        # 279bc <g_29+0xc>
    904e:	48 89 85 18 fc ff ff 	mov    %rax,-0x3e8(%rbp)
    9055:	48 8d 85 90 f7 ff ff 	lea    -0x870(%rbp),%rax
    905c:	48 89 85 20 fc ff ff 	mov    %rax,-0x3e0(%rbp)
    9063:	48 c7 85 28 fc ff ff 	movq   $0x0,-0x3d8(%rbp)
    906a:	00 00 00 00 
    906e:	48 c7 85 30 fc ff ff 	movq   $0x0,-0x3d0(%rbp)
    9075:	00 00 00 00 
    9079:	48 8d 05 c8 6f 01 00 	lea    0x16fc8(%rip),%rax        # 20048 <g_8>
    9080:	48 89 85 38 fc ff ff 	mov    %rax,-0x3c8(%rbp)
    9087:	48 8d 85 a8 f5 ff ff 	lea    -0xa58(%rbp),%rax
    908e:	48 83 c0 04          	add    $0x4,%rax
    9092:	48 89 85 40 fc ff ff 	mov    %rax,-0x3c0(%rbp)
    9099:	48 8d 85 a8 f5 ff ff 	lea    -0xa58(%rbp),%rax
    90a0:	48 83 c0 04          	add    $0x4,%rax
    90a4:	48 89 85 48 fc ff ff 	mov    %rax,-0x3b8(%rbp)
    90ab:	48 8d 05 92 6f 01 00 	lea    0x16f92(%rip),%rax        # 20044 <g_5+0x14>
    90b2:	48 89 85 50 fc ff ff 	mov    %rax,-0x3b0(%rbp)
    90b9:	48 c7 85 58 fc ff ff 	movq   $0x0,-0x3a8(%rbp)
    90c0:	00 00 00 00 
    90c4:	48 c7 85 60 fc ff ff 	movq   $0x0,-0x3a0(%rbp)
    90cb:	00 00 00 00 
    90cf:	48 c7 85 68 fc ff ff 	movq   $0x0,-0x398(%rbp)
    90d6:	00 00 00 00 
    90da:	48 8d 05 63 6f 01 00 	lea    0x16f63(%rip),%rax        # 20044 <g_5+0x14>
    90e1:	48 89 85 70 fc ff ff 	mov    %rax,-0x390(%rbp)
    90e8:	48 8d 05 cd e8 01 00 	lea    0x1e8cd(%rip),%rax        # 279bc <g_29+0xc>
    90ef:	48 89 85 78 fc ff ff 	mov    %rax,-0x388(%rbp)
    90f6:	48 8d 05 47 6f 01 00 	lea    0x16f47(%rip),%rax        # 20044 <g_5+0x14>
    90fd:	48 89 85 80 fc ff ff 	mov    %rax,-0x380(%rbp)
    9104:	48 c7 85 88 fc ff ff 	movq   $0x0,-0x378(%rbp)
    910b:	00 00 00 00 
    910f:	48 8d 05 9a e8 01 00 	lea    0x1e89a(%rip),%rax        # 279b0 <g_29>
    9116:	48 89 85 90 fc ff ff 	mov    %rax,-0x370(%rbp)
    911d:	48 c7 85 98 fc ff ff 	movq   $0x0,-0x368(%rbp)
    9124:	00 00 00 00 
    9128:	48 8d 85 a8 f5 ff ff 	lea    -0xa58(%rbp),%rax
    912f:	48 83 c0 04          	add    $0x4,%rax
    9133:	48 89 85 a0 fc ff ff 	mov    %rax,-0x360(%rbp)
    913a:	48 8d 05 03 6f 01 00 	lea    0x16f03(%rip),%rax        # 20044 <g_5+0x14>
    9141:	48 89 85 a8 fc ff ff 	mov    %rax,-0x358(%rbp)
    9148:	48 8d 05 f5 6e 01 00 	lea    0x16ef5(%rip),%rax        # 20044 <g_5+0x14>
    914f:	48 89 85 b0 fc ff ff 	mov    %rax,-0x350(%rbp)
    9156:	48 c7 85 b8 fc ff ff 	movq   $0x0,-0x348(%rbp)
    915d:	00 00 00 00 
    9161:	48 8d 85 a8 f5 ff ff 	lea    -0xa58(%rbp),%rax
    9168:	48 83 c0 04          	add    $0x4,%rax
    916c:	48 89 85 c0 fc ff ff 	mov    %rax,-0x340(%rbp)
    9173:	48 c7 85 c8 fc ff ff 	movq   $0x0,-0x338(%rbp)
    917a:	00 00 00 00 
    917e:	48 8d 85 90 f7 ff ff 	lea    -0x870(%rbp),%rax
    9185:	48 89 85 d0 fc ff ff 	mov    %rax,-0x330(%rbp)
    918c:	48 8d 05 b1 6e 01 00 	lea    0x16eb1(%rip),%rax        # 20044 <g_5+0x14>
    9193:	48 89 85 d8 fc ff ff 	mov    %rax,-0x328(%rbp)
    919a:	48 8d 05 a3 6e 01 00 	lea    0x16ea3(%rip),%rax        # 20044 <g_5+0x14>
    91a1:	48 89 85 e0 fc ff ff 	mov    %rax,-0x320(%rbp)
    91a8:	48 c7 85 e8 fc ff ff 	movq   $0x0,-0x318(%rbp)
    91af:	00 00 00 00 
    91b3:	48 8d 05 f6 e7 01 00 	lea    0x1e7f6(%rip),%rax        # 279b0 <g_29>
    91ba:	48 89 85 f0 fc ff ff 	mov    %rax,-0x310(%rbp)
    91c1:	48 8d 05 80 6e 01 00 	lea    0x16e80(%rip),%rax        # 20048 <g_8>
    91c8:	48 89 85 f8 fc ff ff 	mov    %rax,-0x308(%rbp)
    91cf:	48 8d 85 90 f7 ff ff 	lea    -0x870(%rbp),%rax
    91d6:	48 89 85 00 fd ff ff 	mov    %rax,-0x300(%rbp)
    91dd:	48 8d 05 d8 e7 01 00 	lea    0x1e7d8(%rip),%rax        # 279bc <g_29+0xc>
    91e4:	48 89 85 08 fd ff ff 	mov    %rax,-0x2f8(%rbp)
    91eb:	48 8d 85 90 f7 ff ff 	lea    -0x870(%rbp),%rax
    91f2:	48 89 85 10 fd ff ff 	mov    %rax,-0x2f0(%rbp)
    91f9:	48 c7 85 18 fd ff ff 	movq   $0x0,-0x2e8(%rbp)
    9200:	00 00 00 00 
    9204:	48 c7 85 20 fd ff ff 	movq   $0x0,-0x2e0(%rbp)
    920b:	00 00 00 00 
    920f:	48 8d 05 32 6e 01 00 	lea    0x16e32(%rip),%rax        # 20048 <g_8>
    9216:	48 89 85 28 fd ff ff 	mov    %rax,-0x2d8(%rbp)
    921d:	48 8d 85 a8 f5 ff ff 	lea    -0xa58(%rbp),%rax
    9224:	48 83 c0 04          	add    $0x4,%rax
    9228:	48 89 85 30 fd ff ff 	mov    %rax,-0x2d0(%rbp)
    922f:	48 8d 85 a8 f5 ff ff 	lea    -0xa58(%rbp),%rax
    9236:	48 83 c0 04          	add    $0x4,%rax
    923a:	48 89 85 38 fd ff ff 	mov    %rax,-0x2c8(%rbp)
    9241:	48 8d 05 fc 6d 01 00 	lea    0x16dfc(%rip),%rax        # 20044 <g_5+0x14>
    9248:	48 89 85 40 fd ff ff 	mov    %rax,-0x2c0(%rbp)
    924f:	48 c7 85 48 fd ff ff 	movq   $0x0,-0x2b8(%rbp)
    9256:	00 00 00 00 
    925a:	48 c7 85 50 fd ff ff 	movq   $0x0,-0x2b0(%rbp)
    9261:	00 00 00 00 
    9265:	48 c7 85 58 fd ff ff 	movq   $0x0,-0x2a8(%rbp)
    926c:	00 00 00 00 
    9270:	48 8d 05 cd 6d 01 00 	lea    0x16dcd(%rip),%rax        # 20044 <g_5+0x14>
    9277:	48 89 85 60 fd ff ff 	mov    %rax,-0x2a0(%rbp)
    927e:	48 8d 05 37 e7 01 00 	lea    0x1e737(%rip),%rax        # 279bc <g_29+0xc>
    9285:	48 89 85 68 fd ff ff 	mov    %rax,-0x298(%rbp)
    928c:	48 8d 05 b1 6d 01 00 	lea    0x16db1(%rip),%rax        # 20044 <g_5+0x14>
    9293:	48 89 85 70 fd ff ff 	mov    %rax,-0x290(%rbp)
    929a:	48 c7 85 78 fd ff ff 	movq   $0x0,-0x288(%rbp)
    92a1:	00 00 00 00 
    92a5:	48 8d 05 04 e7 01 00 	lea    0x1e704(%rip),%rax        # 279b0 <g_29>
    92ac:	48 89 85 80 fd ff ff 	mov    %rax,-0x280(%rbp)
    92b3:	48 c7 85 88 fd ff ff 	movq   $0x0,-0x278(%rbp)
    92ba:	00 00 00 00 
    92be:	48 8d 85 a8 f5 ff ff 	lea    -0xa58(%rbp),%rax
    92c5:	48 83 c0 04          	add    $0x4,%rax
    92c9:	48 89 85 90 fd ff ff 	mov    %rax,-0x270(%rbp)
    92d0:	48 8d 05 6d 6d 01 00 	lea    0x16d6d(%rip),%rax        # 20044 <g_5+0x14>
    92d7:	48 89 85 98 fd ff ff 	mov    %rax,-0x268(%rbp)
    92de:	48 8d 05 5f 6d 01 00 	lea    0x16d5f(%rip),%rax        # 20044 <g_5+0x14>
    92e5:	48 89 85 a0 fd ff ff 	mov    %rax,-0x260(%rbp)
    92ec:	48 c7 85 a8 fd ff ff 	movq   $0x0,-0x258(%rbp)
    92f3:	00 00 00 00 
    92f7:	48 8d 85 a8 f5 ff ff 	lea    -0xa58(%rbp),%rax
    92fe:	48 83 c0 04          	add    $0x4,%rax
    9302:	48 89 85 b0 fd ff ff 	mov    %rax,-0x250(%rbp)
    9309:	48 c7 85 b8 fd ff ff 	movq   $0x0,-0x248(%rbp)
    9310:	00 00 00 00 
    9314:	48 8d 85 90 f7 ff ff 	lea    -0x870(%rbp),%rax
    931b:	48 89 85 c0 fd ff ff 	mov    %rax,-0x240(%rbp)
    9322:	48 8d 05 1b 6d 01 00 	lea    0x16d1b(%rip),%rax        # 20044 <g_5+0x14>
    9329:	48 89 85 c8 fd ff ff 	mov    %rax,-0x238(%rbp)
    9330:	48 8d 05 0d 6d 01 00 	lea    0x16d0d(%rip),%rax        # 20044 <g_5+0x14>
    9337:	48 89 85 d0 fd ff ff 	mov    %rax,-0x230(%rbp)
    933e:	48 c7 85 d8 fd ff ff 	movq   $0x0,-0x228(%rbp)
    9345:	00 00 00 00 
    9349:	48 8d 05 60 e6 01 00 	lea    0x1e660(%rip),%rax        # 279b0 <g_29>
    9350:	48 89 85 e0 fd ff ff 	mov    %rax,-0x220(%rbp)
    9357:	48 8d 05 ea 6c 01 00 	lea    0x16cea(%rip),%rax        # 20048 <g_8>
    935e:	48 89 85 e8 fd ff ff 	mov    %rax,-0x218(%rbp)
    9365:	48 8d 85 90 f7 ff ff 	lea    -0x870(%rbp),%rax
    936c:	48 89 85 f0 fd ff ff 	mov    %rax,-0x210(%rbp)
    9373:	48 8d 05 42 e6 01 00 	lea    0x1e642(%rip),%rax        # 279bc <g_29+0xc>
    937a:	48 89 85 f8 fd ff ff 	mov    %rax,-0x208(%rbp)
    9381:	48 8d 85 90 f7 ff ff 	lea    -0x870(%rbp),%rax
    9388:	48 89 85 00 fe ff ff 	mov    %rax,-0x200(%rbp)
    938f:	48 c7 85 08 fe ff ff 	movq   $0x0,-0x1f8(%rbp)
    9396:	00 00 00 00 
    939a:	48 c7 85 10 fe ff ff 	movq   $0x0,-0x1f0(%rbp)
    93a1:	00 00 00 00 
    93a5:	48 8d 05 9c 6c 01 00 	lea    0x16c9c(%rip),%rax        # 20048 <g_8>
    93ac:	48 89 85 18 fe ff ff 	mov    %rax,-0x1e8(%rbp)
    93b3:	48 8d 85 a8 f5 ff ff 	lea    -0xa58(%rbp),%rax
    93ba:	48 83 c0 04          	add    $0x4,%rax
    93be:	48 89 85 20 fe ff ff 	mov    %rax,-0x1e0(%rbp)
    93c5:	48 8d 85 a8 f5 ff ff 	lea    -0xa58(%rbp),%rax
    93cc:	48 83 c0 04          	add    $0x4,%rax
    93d0:	48 89 85 28 fe ff ff 	mov    %rax,-0x1d8(%rbp)
    93d7:	48 8d 05 66 6c 01 00 	lea    0x16c66(%rip),%rax        # 20044 <g_5+0x14>
    93de:	48 89 85 30 fe ff ff 	mov    %rax,-0x1d0(%rbp)
    93e5:	48 c7 85 38 fe ff ff 	movq   $0x0,-0x1c8(%rbp)
    93ec:	00 00 00 00 
    93f0:	48 c7 85 40 fe ff ff 	movq   $0x0,-0x1c0(%rbp)
    93f7:	00 00 00 00 
    93fb:	48 c7 85 48 fe ff ff 	movq   $0x0,-0x1b8(%rbp)
    9402:	00 00 00 00 
    9406:	48 8d 05 37 6c 01 00 	lea    0x16c37(%rip),%rax        # 20044 <g_5+0x14>
    940d:	48 89 85 50 fe ff ff 	mov    %rax,-0x1b0(%rbp)
    9414:	48 8d 05 a1 e5 01 00 	lea    0x1e5a1(%rip),%rax        # 279bc <g_29+0xc>
    941b:	48 89 85 58 fe ff ff 	mov    %rax,-0x1a8(%rbp)
    9422:	48 8d 05 1b 6c 01 00 	lea    0x16c1b(%rip),%rax        # 20044 <g_5+0x14>
    9429:	48 89 85 60 fe ff ff 	mov    %rax,-0x1a0(%rbp)
    9430:	48 c7 85 68 fe ff ff 	movq   $0x0,-0x198(%rbp)
    9437:	00 00 00 00 
    943b:	48 8d 05 6e e5 01 00 	lea    0x1e56e(%rip),%rax        # 279b0 <g_29>
    9442:	48 89 85 70 fe ff ff 	mov    %rax,-0x190(%rbp)
    9449:	48 c7 85 78 fe ff ff 	movq   $0x0,-0x188(%rbp)
    9450:	00 00 00 00 
    9454:	48 8d 85 a8 f5 ff ff 	lea    -0xa58(%rbp),%rax
    945b:	48 83 c0 04          	add    $0x4,%rax
    945f:	48 89 85 80 fe ff ff 	mov    %rax,-0x180(%rbp)
    9466:	48 8d 05 d7 6b 01 00 	lea    0x16bd7(%rip),%rax        # 20044 <g_5+0x14>
    946d:	48 89 85 88 fe ff ff 	mov    %rax,-0x178(%rbp)
    9474:	48 8d 05 c9 6b 01 00 	lea    0x16bc9(%rip),%rax        # 20044 <g_5+0x14>
    947b:	48 89 85 90 fe ff ff 	mov    %rax,-0x170(%rbp)
    9482:	48 c7 85 98 fe ff ff 	movq   $0x0,-0x168(%rbp)
    9489:	00 00 00 00 
    948d:	48 8d 85 a8 f5 ff ff 	lea    -0xa58(%rbp),%rax
    9494:	48 83 c0 04          	add    $0x4,%rax
    9498:	48 89 85 a0 fe ff ff 	mov    %rax,-0x160(%rbp)
    949f:	48 c7 85 a8 fe ff ff 	movq   $0x0,-0x158(%rbp)
    94a6:	00 00 00 00 
    94aa:	48 8d 85 90 f7 ff ff 	lea    -0x870(%rbp),%rax
    94b1:	48 89 85 b0 fe ff ff 	mov    %rax,-0x150(%rbp)
    94b8:	48 8d 05 85 6b 01 00 	lea    0x16b85(%rip),%rax        # 20044 <g_5+0x14>
    94bf:	48 89 85 b8 fe ff ff 	mov    %rax,-0x148(%rbp)
    94c6:	48 8d 05 77 6b 01 00 	lea    0x16b77(%rip),%rax        # 20044 <g_5+0x14>
    94cd:	48 89 85 c0 fe ff ff 	mov    %rax,-0x140(%rbp)
    94d4:	48 c7 85 c8 fe ff ff 	movq   $0x0,-0x138(%rbp)
    94db:	00 00 00 00 
    94df:	48 8d 05 ca e4 01 00 	lea    0x1e4ca(%rip),%rax        # 279b0 <g_29>
    94e6:	48 89 85 d0 fe ff ff 	mov    %rax,-0x130(%rbp)
    94ed:	48 8d 05 54 6b 01 00 	lea    0x16b54(%rip),%rax        # 20048 <g_8>
    94f4:	48 89 85 d8 fe ff ff 	mov    %rax,-0x128(%rbp)
    94fb:	48 8d 85 90 f7 ff ff 	lea    -0x870(%rbp),%rax
    9502:	48 89 85 e0 fe ff ff 	mov    %rax,-0x120(%rbp)
    9509:	48 8d 05 ac e4 01 00 	lea    0x1e4ac(%rip),%rax        # 279bc <g_29+0xc>
    9510:	48 89 85 e8 fe ff ff 	mov    %rax,-0x118(%rbp)
    9517:	48 8d 85 90 f7 ff ff 	lea    -0x870(%rbp),%rax
    951e:	48 89 85 f0 fe ff ff 	mov    %rax,-0x110(%rbp)
    9525:	48 c7 85 f8 fe ff ff 	movq   $0x0,-0x108(%rbp)
    952c:	00 00 00 00 
    9530:	48 c7 85 00 ff ff ff 	movq   $0x0,-0x100(%rbp)
    9537:	00 00 00 00 
    953b:	48 8d 05 06 6b 01 00 	lea    0x16b06(%rip),%rax        # 20048 <g_8>
    9542:	48 89 85 08 ff ff ff 	mov    %rax,-0xf8(%rbp)
    9549:	8b 95 a0 f7 ff ff    	mov    -0x860(%rbp),%edx
    954f:	8b 05 1b 6c 01 00    	mov    0x16c1b(%rip),%eax        # 20170 <g_17>
    9555:	89 c1                	mov    %eax,%ecx
    9557:	48 8b 85 98 f5 ff ff 	mov    -0xa68(%rbp),%rax
    955e:	66 89 08             	mov    %cx,(%rax)
    9561:	48 8b 85 98 f5 ff ff 	mov    -0xa68(%rbp),%rax
    9568:	0f b7 00             	movzwl (%rax),%eax
    956b:	0f b7 c0             	movzwl %ax,%eax
    956e:	39 c2                	cmp    %eax,%edx
    9570:	0f 9d c0             	setge  %al
    9573:	0f b6 c0             	movzbl %al,%eax
    9576:	89 85 a8 f5 ff ff    	mov    %eax,-0xa58(%rbp)
    957c:	48 8b 05 e5 d7 01 00 	mov    0x1d7e5(%rip),%rax        # 26d68 <g_232>
    9583:	48 8b 95 b0 f4 ff ff 	mov    -0xb50(%rbp),%rdx
    958a:	89 10                	mov    %edx,(%rax)
    958c:	48 8b 05 d5 d7 01 00 	mov    0x1d7d5(%rip),%rax        # 26d68 <g_232>
    9593:	8b 10                	mov    (%rax),%edx
    9595:	48 8b 05 cc d7 01 00 	mov    0x1d7cc(%rip),%rax        # 26d68 <g_232>
    959c:	f7 d2                	not    %edx
    959e:	89 10                	mov    %edx,(%rax)
    95a0:	48 8b 15 41 d9 01 00 	mov    0x1d941(%rip),%rdx        # 26ee8 <g_931>
    95a7:	48 8b 05 3a d9 01 00 	mov    0x1d93a(%rip),%rax        # 26ee8 <g_931>
    95ae:	48 8b 12             	mov    (%rdx),%rdx
    95b1:	48 89 10             	mov    %rdx,(%rax)
    95b4:	48 8d 05 01 6f 01 00 	lea    0x16f01(%rip),%rax        # 204bc <g_332>
    95bb:	e9 fd 2b 00 00       	jmpq   c1bd <func_58+0x3b04>
    95c0:	48 8d 05 e9 e3 01 00 	lea    0x1e3e9(%rip),%rax        # 279b0 <g_29>
    95c7:	48 89 85 b8 f4 ff ff 	mov    %rax,-0xb48(%rbp)
    95ce:	48 8d 05 c3 e4 01 00 	lea    0x1e4c3(%rip),%rax        # 27a98 <g_1271>
    95d5:	48 89 85 c0 f4 ff ff 	mov    %rax,-0xb40(%rbp)
    95dc:	48 c7 85 80 f4 ff ff 	movq   $0x0,-0xb80(%rbp)
    95e3:	00 00 00 00 
    95e7:	c7 85 3c f4 ff ff 48 	movl   $0x7eb22948,-0xbc4(%rbp)
    95ee:	29 b2 7e 
    95f1:	c7 85 e0 f5 ff ff 0d 	movl   $0xd1b11b0d,-0xa20(%rbp)
    95f8:	1b b1 d1 
    95fb:	c7 85 e4 f5 ff ff 0d 	movl   $0xd1b11b0d,-0xa1c(%rbp)
    9602:	1b b1 d1 
    9605:	c7 85 e8 f5 ff ff 0d 	movl   $0xd1b11b0d,-0xa18(%rbp)
    960c:	1b b1 d1 
    960f:	c7 85 ec f5 ff ff 0d 	movl   $0xd1b11b0d,-0xa14(%rbp)
    9616:	1b b1 d1 
    9619:	c7 85 f0 f5 ff ff 0d 	movl   $0xd1b11b0d,-0xa10(%rbp)
    9620:	1b b1 d1 
    9623:	c7 85 f4 f5 ff ff 0d 	movl   $0xd1b11b0d,-0xa0c(%rbp)
    962a:	1b b1 d1 
    962d:	c7 85 f8 f5 ff ff 0d 	movl   $0xd1b11b0d,-0xa08(%rbp)
    9634:	1b b1 d1 
    9637:	c7 85 fc f5 ff ff 0d 	movl   $0xd1b11b0d,-0xa04(%rbp)
    963e:	1b b1 d1 
    9641:	c7 85 00 f6 ff ff 0d 	movl   $0xd1b11b0d,-0xa00(%rbp)
    9648:	1b b1 d1 
    964b:	48 8d 05 66 d8 01 00 	lea    0x1d866(%rip),%rax        # 26eb8 <g_893>
    9652:	48 89 85 c8 f4 ff ff 	mov    %rax,-0xb38(%rbp)
    9659:	48 8d 05 28 7c 01 00 	lea    0x17c28(%rip),%rax        # 21288 <g_1591>
    9660:	48 89 85 40 f6 ff ff 	mov    %rax,-0x9c0(%rbp)
    9667:	48 8d 05 1a 7c 01 00 	lea    0x17c1a(%rip),%rax        # 21288 <g_1591>
    966e:	48 89 85 48 f6 ff ff 	mov    %rax,-0x9b8(%rbp)
    9675:	48 8d 05 14 74 01 00 	lea    0x17414(%rip),%rax        # 20a90 <g_922>
    967c:	48 89 85 50 f6 ff ff 	mov    %rax,-0x9b0(%rbp)
    9683:	48 8d 05 22 6b 01 00 	lea    0x16b22(%rip),%rax        # 201ac <g_47>
    968a:	48 89 85 58 f6 ff ff 	mov    %rax,-0x9a8(%rbp)
    9691:	48 8d 05 14 6b 01 00 	lea    0x16b14(%rip),%rax        # 201ac <g_47>
    9698:	48 89 85 60 f6 ff ff 	mov    %rax,-0x9a0(%rbp)
    969f:	48 8d 05 e2 7b 01 00 	lea    0x17be2(%rip),%rax        # 21288 <g_1591>
    96a6:	48 89 85 68 f6 ff ff 	mov    %rax,-0x998(%rbp)
    96ad:	0f b7 05 4c 6f 01 00 	movzwl 0x16f4c(%rip),%eax        # 20600 <g_373>
    96b4:	44 0f b7 e0          	movzwl %ax,%r12d
    96b8:	8b 85 fc f3 ff ff    	mov    -0xc04(%rbp),%eax
    96be:	0f b6 d8             	movzbl %al,%ebx
    96c1:	48 8b 05 f0 6a 01 00 	mov    0x16af0(%rip),%rax        # 201b8 <g_82>
    96c8:	48 83 e8 01          	sub    $0x1,%rax
    96cc:	48 89 05 e5 6a 01 00 	mov    %rax,0x16ae5(%rip)        # 201b8 <g_82>
    96d3:	4c 8b 2d de 6a 01 00 	mov    0x16ade(%rip),%r13        # 201b8 <g_82>
    96da:	8b 05 70 69 01 00    	mov    0x16970(%rip),%eax        # 20050 <g_12>
    96e0:	0f be c0             	movsbl %al,%eax
    96e3:	89 c6                	mov    %eax,%esi
    96e5:	bf 00 00 00 00       	mov    $0x0,%edi
    96ea:	e8 03 cb ff ff       	callq  61f2 <safe_sub_func_int8_t_s_s>
    96ef:	48 0f be c0          	movsbq %al,%rax
    96f3:	48 8d 35 c6 6a 01 00 	lea    0x16ac6(%rip),%rsi        # 201c0 <g_84>
    96fa:	48 89 c7             	mov    %rax,%rdi
    96fd:	e8 99 43 00 00       	callq  da9b <func_110>
    9702:	49 39 c5             	cmp    %rax,%r13
    9705:	0f 93 c0             	setae  %al
    9708:	0f b6 c0             	movzbl %al,%eax
    970b:	48 8b 95 c0 f4 ff ff 	mov    -0xb40(%rbp),%rdx
    9712:	48 8b b5 e0 f3 ff ff 	mov    -0xc20(%rbp),%rsi
    9719:	49 89 d0             	mov    %rdx,%r8
    971c:	44 89 e1             	mov    %r12d,%ecx
    971f:	89 da                	mov    %ebx,%edx
    9721:	48 89 c7             	mov    %rax,%rdi
    9724:	e8 16 2e 00 00       	callq  c53f <func_102>
    9729:	48 8b 9d 68 f4 ff ff 	mov    -0xb98(%rbp),%rbx
    9730:	48 8d 15 11 69 01 00 	lea    0x16911(%rip),%rdx        # 20048 <g_8>
    9737:	89 c6                	mov    %eax,%esi
    9739:	bf fb ff ff ff       	mov    $0xfffffffb,%edi
    973e:	e8 9e 2a 00 00       	callq  c1e1 <func_97>
    9743:	88 03                	mov    %al,(%rbx)
    9745:	0f b6 03             	movzbl (%rbx),%eax
    9748:	84 c0                	test   %al,%al
    974a:	75 08                	jne    9754 <func_58+0x109b>
    974c:	8b 85 fc f3 ff ff    	mov    -0xc04(%rbp),%eax
    9752:	85 c0                	test   %eax,%eax
    9754:	8b 95 ac f5 ff ff    	mov    -0xa54(%rbp),%edx
    975a:	48 8b 85 d8 f3 ff ff 	mov    -0xc28(%rbp),%rax
    9761:	8b 08                	mov    (%rax),%ecx
    9763:	48 8b 85 b8 f4 ff ff 	mov    -0xb48(%rbp),%rax
    976a:	89 08                	mov    %ecx,(%rax)
    976c:	48 8b 85 b8 f4 ff ff 	mov    -0xb48(%rbp),%rax
    9773:	8b 00                	mov    (%rax),%eax
    9775:	89 d6                	mov    %edx,%esi
    9777:	89 c7                	mov    %eax,%edi
    9779:	e8 81 cf ff ff       	callq  66ff <safe_div_func_int32_t_s_s>
    977e:	85 c0                	test   %eax,%eax
    9780:	0f 94 c0             	sete   %al
    9783:	0f b6 c0             	movzbl %al,%eax
    9786:	89 c6                	mov    %eax,%esi
    9788:	bf 00 00 00 00       	mov    $0x0,%edi
    978d:	e8 d1 cd ff ff       	callq  6563 <safe_rshift_func_int16_t_s_u>
    9792:	66 85 c0             	test   %ax,%ax
    9795:	0f 84 21 16 00 00    	je     adbc <func_58+0x2703>
    979b:	c7 85 4c f4 ff ff 07 	movl   $0x7,-0xbb4(%rbp)
    97a2:	00 00 00 
    97a5:	c7 85 50 f4 ff ff fc 	movl   $0xfffffffc,-0xbb0(%rbp)
    97ac:	ff ff ff 
    97af:	c7 85 90 f7 ff ff c1 	movl   $0x35aa83c1,-0x870(%rbp)
    97b6:	83 aa 35 
    97b9:	c7 85 94 f7 ff ff 06 	movl   $0x6,-0x86c(%rbp)
    97c0:	00 00 00 
    97c3:	c7 85 98 f7 ff ff 09 	movl   $0x9,-0x868(%rbp)
    97ca:	00 00 00 
    97cd:	c7 85 9c f7 ff ff 09 	movl   $0x9,-0x864(%rbp)
    97d4:	00 00 00 
    97d7:	c7 85 a0 f7 ff ff 06 	movl   $0x6,-0x860(%rbp)
    97de:	00 00 00 
    97e1:	c7 85 a4 f7 ff ff f9 	movl   $0xfffffff9,-0x85c(%rbp)
    97e8:	ff ff ff 
    97eb:	c7 85 a8 f7 ff ff 8c 	movl   $0x806bd18c,-0x858(%rbp)
    97f2:	d1 6b 80 
    97f5:	c7 85 ac f7 ff ff f3 	movl   $0xe28822f3,-0x854(%rbp)
    97fc:	22 88 e2 
    97ff:	c7 85 b0 f7 ff ff b6 	movl   $0x51929eb6,-0x850(%rbp)
    9806:	9e 92 51 
    9809:	c7 85 b4 f7 ff ff 06 	movl   $0x6,-0x84c(%rbp)
    9810:	00 00 00 
    9813:	c7 85 b8 f7 ff ff 09 	movl   $0x9,-0x848(%rbp)
    981a:	00 00 00 
    981d:	c7 85 bc f7 ff ff ad 	movl   $0x58acecad,-0x844(%rbp)
    9824:	ec ac 58 
    9827:	c7 85 c0 f7 ff ff ff 	movl   $0xffffffff,-0x840(%rbp)
    982e:	ff ff ff 
    9831:	c7 85 c4 f7 ff ff 7d 	movl   $0x3b472f7d,-0x83c(%rbp)
    9838:	2f 47 3b 
    983b:	c7 85 c8 f7 ff ff 95 	movl   $0xb0948495,-0x838(%rbp)
    9842:	84 94 b0 
    9845:	c7 85 cc f7 ff ff 8c 	movl   $0x806bd18c,-0x834(%rbp)
    984c:	d1 6b 80 
    984f:	c7 85 d0 f7 ff ff 7d 	movl   $0x3b472f7d,-0x830(%rbp)
    9856:	2f 47 3b 
    9859:	c7 85 d4 f7 ff ff 12 	movl   $0x3d0ac312,-0x82c(%rbp)
    9860:	c3 0a 3d 
    9863:	c7 85 d8 f7 ff ff f7 	movl   $0xfffffff7,-0x828(%rbp)
    986a:	ff ff ff 
    986d:	c7 85 dc f7 ff ff f7 	movl   $0xfffffff7,-0x824(%rbp)
    9874:	ff ff ff 
    9877:	c7 85 e0 f7 ff ff 09 	movl   $0x9,-0x820(%rbp)
    987e:	00 00 00 
    9881:	c7 85 e4 f7 ff ff f3 	movl   $0xe28822f3,-0x81c(%rbp)
    9888:	22 88 e2 
    988b:	c7 85 e8 f7 ff ff 09 	movl   $0x9,-0x818(%rbp)
    9892:	00 00 00 
    9895:	c7 85 ec f7 ff ff 12 	movl   $0x3d0ac312,-0x814(%rbp)
    989c:	c3 0a 3d 
    989f:	c7 85 f0 f7 ff ff 09 	movl   $0x9,-0x810(%rbp)
    98a6:	00 00 00 
    98a9:	c7 85 f4 f7 ff ff f9 	movl   $0xfffffff9,-0x80c(%rbp)
    98b0:	ff ff ff 
    98b3:	c7 85 f8 f7 ff ff f3 	movl   $0xe28822f3,-0x808(%rbp)
    98ba:	22 88 e2 
    98bd:	c7 85 fc f7 ff ff 02 	movl   $0x2,-0x804(%rbp)
    98c4:	00 00 00 
    98c7:	c7 85 00 f8 ff ff 8c 	movl   $0x806bd18c,-0x800(%rbp)
    98ce:	d1 6b 80 
    98d1:	c7 85 04 f8 ff ff ad 	movl   $0x58acecad,-0x7fc(%rbp)
    98d8:	ec ac 58 
    98db:	c7 85 08 f8 ff ff c1 	movl   $0x35aa83c1,-0x7f8(%rbp)
    98e2:	83 aa 35 
    98e5:	c7 85 0c f8 ff ff 7d 	movl   $0x3b472f7d,-0x7f4(%rbp)
    98ec:	2f 47 3b 
    98ef:	c7 85 10 f8 ff ff f7 	movl   $0xfffffff7,-0x7f0(%rbp)
    98f6:	ff ff ff 
    98f9:	c7 85 14 f8 ff ff ff 	movl   $0xffffffff,-0x7ec(%rbp)
    9900:	ff ff ff 
    9903:	c7 85 18 f8 ff ff f9 	movl   $0xfffffff9,-0x7e8(%rbp)
    990a:	ff ff ff 
    990d:	c7 85 1c f8 ff ff 09 	movl   $0x9,-0x7e4(%rbp)
    9914:	00 00 00 
    9917:	c7 85 20 f8 ff ff ad 	movl   $0x58acecad,-0x7e0(%rbp)
    991e:	ec ac 58 
    9921:	c7 85 24 f8 ff ff 02 	movl   $0x2,-0x7dc(%rbp)
    9928:	00 00 00 
    992b:	c7 85 28 f8 ff ff ad 	movl   $0x58acecad,-0x7d8(%rbp)
    9932:	ec ac 58 
    9935:	c7 85 2c f8 ff ff 09 	movl   $0x9,-0x7d4(%rbp)
    993c:	00 00 00 
    993f:	c7 85 30 f8 ff ff 06 	movl   $0x6,-0x7d0(%rbp)
    9946:	00 00 00 
    9949:	c7 85 34 f8 ff ff 8c 	movl   $0x806bd18c,-0x7cc(%rbp)
    9950:	d1 6b 80 
    9953:	c7 85 38 f8 ff ff 09 	movl   $0x9,-0x7c8(%rbp)
    995a:	00 00 00 
    995d:	c7 85 3c f8 ff ff ad 	movl   $0x58acecad,-0x7c4(%rbp)
    9964:	ec ac 58 
    9967:	c7 85 40 f8 ff ff ff 	movl   $0xffffffff,-0x7c0(%rbp)
    996e:	ff ff ff 
    9971:	c7 85 54 f4 ff ff f9 	movl   $0x1d8736f9,-0xbac(%rbp)
    9978:	36 87 1d 
    997b:	c7 85 18 f4 ff ff 00 	movl   $0x0,-0xbe8(%rbp)
    9982:	00 00 00 
    9985:	eb 19                	jmp    99a0 <func_58+0x12e7>
    9987:	8b 85 18 f4 ff ff    	mov    -0xbe8(%rbp),%eax
    998d:	48 98                	cltq   
    998f:	66 c7 84 45 a2 f5 ff 	movw   $0x8,-0xa5e(%rbp,%rax,2)
    9996:	ff 08 00 
    9999:	83 85 18 f4 ff ff 01 	addl   $0x1,-0xbe8(%rbp)
    99a0:	83 bd 18 f4 ff ff 02 	cmpl   $0x2,-0xbe8(%rbp)
    99a7:	7e de                	jle    9987 <func_58+0x12ce>
    99a9:	c7 85 18 f4 ff ff 00 	movl   $0x0,-0xbe8(%rbp)
    99b0:	00 00 00 
    99b3:	eb 1e                	jmp    99d3 <func_58+0x131a>
    99b5:	8b 85 18 f4 ff ff    	mov    -0xbe8(%rbp),%eax
    99bb:	48 98                	cltq   
    99bd:	48 8d 15 7c 74 01 00 	lea    0x1747c(%rip),%rdx        # 20e40 <g_1320>
    99c4:	48 89 94 c5 f0 f6 ff 	mov    %rdx,-0x910(%rbp,%rax,8)
    99cb:	ff 
    99cc:	83 85 18 f4 ff ff 01 	addl   $0x1,-0xbe8(%rbp)
    99d3:	83 bd 18 f4 ff ff 08 	cmpl   $0x8,-0xbe8(%rbp)
    99da:	7e d9                	jle    99b5 <func_58+0x12fc>
    99dc:	c7 05 d6 6a 01 00 eb 	movl   $0xffffffeb,0x16ad6(%rip)        # 204bc <g_332>
    99e3:	ff ff ff 
    99e6:	e9 bd 13 00 00       	jmpq   ada8 <func_58+0x26ef>
    99eb:	48 c7 85 18 f5 ff ff 	movq   $0x0,-0xae8(%rbp)
    99f2:	00 00 00 00 
    99f6:	c7 85 88 f4 ff ff 4f 	movl   $0x78fa064f,-0xb78(%rbp)
    99fd:	06 fa 78 
    9a00:	48 c7 85 20 f5 ff ff 	movq   $0x0,-0xae0(%rbp)
    9a07:	00 00 00 00 
    9a0b:	48 8d 85 e0 f5 ff ff 	lea    -0xa20(%rbp),%rax
    9a12:	48 83 c0 04          	add    $0x4,%rax
    9a16:	48 89 85 28 f5 ff ff 	mov    %rax,-0xad8(%rbp)
    9a1d:	c7 85 1c f4 ff ff 00 	movl   $0x0,-0xbe4(%rbp)
    9a24:	00 00 00 
    9a27:	eb 6d                	jmp    9a96 <func_58+0x13dd>
    9a29:	c7 85 20 f4 ff ff 00 	movl   $0x0,-0xbe0(%rbp)
    9a30:	00 00 00 
    9a33:	eb 51                	jmp    9a86 <func_58+0x13cd>
    9a35:	c7 85 24 f4 ff ff 00 	movl   $0x0,-0xbdc(%rbp)
    9a3c:	00 00 00 
    9a3f:	eb 35                	jmp    9a76 <func_58+0x13bd>
    9a41:	8b 85 24 f4 ff ff    	mov    -0xbdc(%rbp),%eax
    9a47:	48 63 d0             	movslq %eax,%rdx
    9a4a:	8b 85 20 f4 ff ff    	mov    -0xbe0(%rbp),%eax
    9a50:	48 98                	cltq   
    9a52:	8b 8d 1c f4 ff ff    	mov    -0xbe4(%rbp),%ecx
    9a58:	48 63 c9             	movslq %ecx,%rcx
    9a5b:	48 01 c9             	add    %rcx,%rcx
    9a5e:	48 01 ca             	add    %rcx,%rdx
    9a61:	48 01 d0             	add    %rdx,%rax
    9a64:	c7 84 85 b0 f6 ff ff 	movl   $0x842a541f,-0x950(%rbp,%rax,4)
    9a6b:	1f 54 2a 84 
    9a6f:	83 85 24 f4 ff ff 01 	addl   $0x1,-0xbdc(%rbp)
    9a76:	83 bd 24 f4 ff ff 00 	cmpl   $0x0,-0xbdc(%rbp)
    9a7d:	7e c2                	jle    9a41 <func_58+0x1388>
    9a7f:	83 85 20 f4 ff ff 01 	addl   $0x1,-0xbe0(%rbp)
    9a86:	83 bd 20 f4 ff ff 01 	cmpl   $0x1,-0xbe0(%rbp)
    9a8d:	7e a6                	jle    9a35 <func_58+0x137c>
    9a8f:	83 85 1c f4 ff ff 01 	addl   $0x1,-0xbe4(%rbp)
    9a96:	83 bd 1c f4 ff ff 06 	cmpl   $0x6,-0xbe4(%rbp)
    9a9d:	7e 8a                	jle    9a29 <func_58+0x1370>
    9a9f:	c7 85 1c f4 ff ff 00 	movl   $0x0,-0xbe4(%rbp)
    9aa6:	00 00 00 
    9aa9:	eb 19                	jmp    9ac4 <func_58+0x140b>
    9aab:	8b 85 1c f4 ff ff    	mov    -0xbe4(%rbp),%eax
    9ab1:	48 98                	cltq   
    9ab3:	66 c7 84 45 a0 f5 ff 	movw   $0xb8a,-0xa60(%rbp,%rax,2)
    9aba:	ff 8a 0b 
    9abd:	83 85 1c f4 ff ff 01 	addl   $0x1,-0xbe4(%rbp)
    9ac4:	83 bd 1c f4 ff ff 00 	cmpl   $0x0,-0xbe4(%rbp)
    9acb:	7e de                	jle    9aab <func_58+0x13f2>
    9acd:	c7 85 1c f4 ff ff 00 	movl   $0x0,-0xbe4(%rbp)
    9ad4:	00 00 00 
    9ad7:	eb 22                	jmp    9afb <func_58+0x1442>
    9ad9:	8b 85 1c f4 ff ff    	mov    -0xbe4(%rbp),%eax
    9adf:	48 98                	cltq   
    9ae1:	48 8d 95 90 f7 ff ff 	lea    -0x870(%rbp),%rdx
    9ae8:	48 83 c2 14          	add    $0x14,%rdx
    9aec:	48 89 94 c5 40 f7 ff 	mov    %rdx,-0x8c0(%rbp,%rax,8)
    9af3:	ff 
    9af4:	83 85 1c f4 ff ff 01 	addl   $0x1,-0xbe4(%rbp)
    9afb:	83 bd 1c f4 ff ff 09 	cmpl   $0x9,-0xbe4(%rbp)
    9b02:	7e d5                	jle    9ad9 <func_58+0x1420>
    9b04:	48 83 bd 18 f5 ff ff 	cmpq   $0x0,-0xae8(%rbp)
    9b0b:	00 
    9b0c:	0f 94 c2             	sete   %dl
    9b0f:	48 8b 05 1a d3 01 00 	mov    0x1d31a(%rip),%rax        # 26e30 <g_681>
    9b16:	0f b6 d2             	movzbl %dl,%edx
    9b19:	89 10                	mov    %edx,(%rax)
    9b1b:	8b 18                	mov    (%rax),%ebx
    9b1d:	48 8b 85 b8 f4 ff ff 	mov    -0xb48(%rbp),%rax
    9b24:	44 8b 20             	mov    (%rax),%r12d
    9b27:	be a3 ff ff ff       	mov    $0xffffffa3,%esi
    9b2c:	bf ff ff ff ff       	mov    $0xffffffff,%edi
    9b31:	e8 dc c6 ff ff       	callq  6212 <safe_mul_func_int8_t_s_s>
    9b36:	0f b7 85 a6 f5 ff ff 	movzwl -0xa5a(%rbp),%eax
    9b3d:	98                   	cwtl   
    9b3e:	be 7b 5e 00 00       	mov    $0x5e7b,%esi
    9b43:	89 c7                	mov    %eax,%edi
    9b45:	e8 0b c9 ff ff       	callq  6455 <safe_div_func_int16_t_s_s>
    9b4a:	98                   	cwtl   
    9b4b:	41 39 c4             	cmp    %eax,%r12d
    9b4e:	0f 9e c0             	setle  %al
    9b51:	0f b6 c0             	movzbl %al,%eax
    9b54:	39 c3                	cmp    %eax,%ebx
    9b56:	0f 84 57 01 00 00    	je     9cb3 <func_58+0x15fa>
    9b5c:	48 c7 85 88 f5 ff ff 	movq   $0x0,-0xa78(%rbp)
    9b63:	00 00 00 00 
    9b67:	48 8d 05 ba d2 01 00 	lea    0x1d2ba(%rip),%rax        # 26e28 <g_606>
    9b6e:	48 89 85 90 f5 ff ff 	mov    %rax,-0xa70(%rbp)
    9b75:	48 8b 0d ec d6 01 00 	mov    0x1d6ec(%rip),%rcx        # 27268 <g_1346>
    9b7c:	48 8b 05 85 75 01 00 	mov    0x17585(%rip),%rax        # 21108 <g_1511+0xc8>
    9b83:	48 8b 15 86 75 01 00 	mov    0x17586(%rip),%rdx        # 21110 <g_1511+0xd0>
    9b8a:	48 89 01             	mov    %rax,(%rcx)
    9b8d:	48 89 51 08          	mov    %rdx,0x8(%rcx)
    9b91:	8b 05 81 75 01 00    	mov    0x17581(%rip),%eax        # 21118 <g_1511+0xd8>
    9b97:	89 41 10             	mov    %eax,0x10(%rcx)
    9b9a:	48 8b 85 f0 f3 ff ff 	mov    -0xc10(%rbp),%rax
    9ba1:	8b 00                	mov    (%rax),%eax
    9ba3:	85 c0                	test   %eax,%eax
    9ba5:	0f 85 ed 11 00 00    	jne    ad98 <func_58+0x26df>
    9bab:	48 8b 85 c0 f4 ff ff 	mov    -0xb40(%rbp),%rax
    9bb2:	48 bb 98 86 8a 44 80 	movabs $0xeb6d6580448a8698,%rbx
    9bb9:	65 6d eb 
    9bbc:	48 89 18             	mov    %rbx,(%rax)
    9bbf:	48 8b 85 90 f5 ff ff 	mov    -0xa70(%rbp),%rax
    9bc6:	48 8d 15 e7 65 01 00 	lea    0x165e7(%rip),%rdx        # 201b4 <g_78>
    9bcd:	48 89 10             	mov    %rdx,(%rax)
    9bd0:	48 8b 85 90 f5 ff ff 	mov    -0xa70(%rbp),%rax
    9bd7:	48 8b 00             	mov    (%rax),%rax
    9bda:	48 8d 15 d3 65 01 00 	lea    0x165d3(%rip),%rdx        # 201b4 <g_78>
    9be1:	48 39 d0             	cmp    %rdx,%rax
    9be4:	0f 94 c0             	sete   %al
    9be7:	0f b6 d8             	movzbl %al,%ebx
    9bea:	bf 00 00 00 00       	mov    $0x0,%edi
    9bef:	e8 25 d4 ff ff       	callq  7019 <safe_unary_minus_func_uint64_t_u>
    9bf4:	98                   	cwtl   
    9bf5:	89 de                	mov    %ebx,%esi
    9bf7:	89 c7                	mov    %eax,%edi
    9bf9:	e8 d5 c7 ff ff       	callq  63d3 <safe_sub_func_int16_t_s_s>
    9bfe:	48 8b 05 23 d2 01 00 	mov    0x1d223(%rip),%rax        # 26e28 <g_606>
    9c05:	0f b6 00             	movzbl (%rax),%eax
    9c08:	0f be c0             	movsbl %al,%eax
    9c0b:	be 00 00 00 00       	mov    $0x0,%esi
    9c10:	89 c7                	mov    %eax,%edi
    9c12:	e8 bd c5 ff ff       	callq  61d4 <safe_add_func_int8_t_s_s>
    9c17:	89 c3                	mov    %eax,%ebx
    9c19:	8b 05 75 70 01 00    	mov    0x17075(%rip),%eax        # 20c94 <g_1158+0x4>
    9c1f:	0f be d0             	movsbl %al,%edx
    9c22:	8b 8d bc f6 ff ff    	mov    -0x944(%rbp),%ecx
    9c28:	48 8b 05 19 d6 01 00 	mov    0x1d619(%rip),%rax        # 27248 <g_1245>
    9c2f:	48 8b 00             	mov    (%rax),%rax
    9c32:	48 8b 00             	mov    (%rax),%rax
    9c35:	0f b7 00             	movzwl (%rax),%eax
    9c38:	0f b7 c0             	movzwl %ax,%eax
    9c3b:	39 c1                	cmp    %eax,%ecx
    9c3d:	0f 94 c0             	sete   %al
    9c40:	0f b6 c0             	movzbl %al,%eax
    9c43:	89 d6                	mov    %edx,%esi
    9c45:	89 c7                	mov    %eax,%edi
    9c47:	e8 a6 c5 ff ff       	callq  61f2 <safe_sub_func_int8_t_s_s>
    9c4c:	38 c3                	cmp    %al,%bl
    9c4e:	0f 9e c0             	setle  %al
    9c51:	0f b6 d0             	movzbl %al,%edx
    9c54:	8b 85 88 f4 ff ff    	mov    -0xb78(%rbp),%eax
    9c5a:	21 d0                	and    %edx,%eax
    9c5c:	89 85 88 f4 ff ff    	mov    %eax,-0xb78(%rbp)
    9c62:	8b 85 88 f4 ff ff    	mov    -0xb78(%rbp),%eax
    9c68:	0f b7 c0             	movzwl %ax,%eax
    9c6b:	be 05 00 00 00       	mov    $0x5,%esi
    9c70:	89 c7                	mov    %eax,%edi
    9c72:	e8 a8 d0 ff ff       	callq  6d1f <safe_sub_func_uint16_t_u_u>
    9c77:	0f b7 d0             	movzwl %ax,%edx
    9c7a:	8b 85 fc f3 ff ff    	mov    -0xc04(%rbp),%eax
    9c80:	39 c2                	cmp    %eax,%edx
    9c82:	0f b7 05 d3 75 01 00 	movzwl 0x175d3(%rip),%eax        # 2125c <g_1527>
    9c89:	0f b7 c0             	movzwl %ax,%eax
    9c8c:	25 fb 00 00 00       	and    $0xfb,%eax
    9c91:	48 89 c2             	mov    %rax,%rdx
    9c94:	48 8b 85 b8 f4 ff ff 	mov    -0xb48(%rbp),%rax
    9c9b:	8b 00                	mov    (%rax),%eax
    9c9d:	89 c1                	mov    %eax,%ecx
    9c9f:	89 d0                	mov    %edx,%eax
    9ca1:	31 c8                	xor    %ecx,%eax
    9ca3:	89 c2                	mov    %eax,%edx
    9ca5:	48 8b 85 b8 f4 ff ff 	mov    -0xb48(%rbp),%rax
    9cac:	89 10                	mov    %edx,(%rax)
    9cae:	e9 d4 10 00 00       	jmpq   ad87 <func_58+0x26ce>
    9cb3:	48 8d 05 76 73 01 00 	lea    0x17376(%rip),%rax        # 21030 <g_1462>
    9cba:	48 89 85 30 f5 ff ff 	mov    %rax,-0xad0(%rbp)
    9cc1:	c7 85 58 f4 ff ff fd 	movl   $0xfffffffd,-0xba8(%rbp)
    9cc8:	ff ff ff 
    9ccb:	c7 85 5c f4 ff ff 6e 	movl   $0x6ae4d56e,-0xba4(%rbp)
    9cd2:	d5 e4 6a 
    9cd5:	c7 85 60 f4 ff ff f7 	movl   $0xfffffff7,-0xba0(%rbp)
    9cdc:	ff ff ff 
    9cdf:	c7 85 28 f4 ff ff 00 	movl   $0x0,-0xbd8(%rbp)
    9ce6:	00 00 00 
    9ce9:	eb 1a                	jmp    9d05 <func_58+0x164c>
    9ceb:	8b 85 28 f4 ff ff    	mov    -0xbd8(%rbp),%eax
    9cf1:	48 98                	cltq   
    9cf3:	c7 84 85 c0 f5 ff ff 	movl   $0x3,-0xa40(%rbp,%rax,4)
    9cfa:	03 00 00 00 
    9cfe:	83 85 28 f4 ff ff 01 	addl   $0x1,-0xbd8(%rbp)
    9d05:	83 bd 28 f4 ff ff 04 	cmpl   $0x4,-0xbd8(%rbp)
    9d0c:	7e dd                	jle    9ceb <func_58+0x1632>
    9d0e:	be 0e 00 00 00       	mov    $0xe,%esi
    9d13:	bf f7 6a 00 00       	mov    $0x6af7,%edi
    9d18:	e8 2b d1 ff ff       	callq  6e48 <safe_rshift_func_uint16_t_u_s>
    9d1d:	0f b7 d0             	movzwl %ax,%edx
    9d20:	8b 85 fc f3 ff ff    	mov    -0xc04(%rbp),%eax
    9d26:	89 c1                	mov    %eax,%ecx
    9d28:	48 8b 85 a0 f4 ff ff 	mov    -0xb60(%rbp),%rax
    9d2f:	88 08                	mov    %cl,(%rax)
    9d31:	48 8b 85 a0 f4 ff ff 	mov    -0xb60(%rbp),%rax
    9d38:	0f b6 00             	movzbl (%rax),%eax
    9d3b:	0f be c0             	movsbl %al,%eax
    9d3e:	39 c2                	cmp    %eax,%edx
    9d40:	0f 94 c0             	sete   %al
    9d43:	0f b6 c0             	movzbl %al,%eax
    9d46:	be 02 00 00 00       	mov    $0x2,%esi
    9d4b:	89 c7                	mov    %eax,%edi
    9d4d:	e8 f6 d0 ff ff       	callq  6e48 <safe_rshift_func_uint16_t_u_s>
    9d52:	0f b6 05 f3 70 01 00 	movzbl 0x170f3(%rip),%eax        # 20e4c <g_1320+0xc>
    9d59:	0f b6 d8             	movzbl %al,%ebx
    9d5c:	8b 85 fc f3 ff ff    	mov    -0xc04(%rbp),%eax
    9d62:	83 f8 01             	cmp    $0x1,%eax
    9d65:	0f 9f c0             	setg   %al
    9d68:	0f b6 c0             	movzbl %al,%eax
    9d6b:	be 03 00 00 00       	mov    $0x3,%esi
    9d70:	89 c7                	mov    %eax,%edi
    9d72:	e8 ec c7 ff ff       	callq  6563 <safe_rshift_func_int16_t_s_u>
    9d77:	44 0f bf e0          	movswl %ax,%r12d
    9d7b:	8b 85 fc f3 ff ff    	mov    -0xc04(%rbp),%eax
    9d81:	48 63 d0             	movslq %eax,%rdx
    9d84:	48 8b 05 45 d1 01 00 	mov    0x1d145(%rip),%rax        # 26ed0 <g_907>
    9d8b:	48 8b 08             	mov    (%rax),%rcx
    9d8e:	8b b5 ac f5 ff ff    	mov    -0xa54(%rbp),%esi
    9d94:	48 8b 05 8d d0 01 00 	mov    0x1d08d(%rip),%rax        # 26e28 <g_606>
    9d9b:	0f b6 00             	movzbl (%rax),%eax
    9d9e:	0f be c0             	movsbl %al,%eax
    9da1:	39 c6                	cmp    %eax,%esi
    9da3:	0f 9e c0             	setle  %al
    9da6:	0f b6 c0             	movzbl %al,%eax
    9da9:	48 39 c1             	cmp    %rax,%rcx
    9dac:	0f 95 c0             	setne  %al
    9daf:	0f b6 c8             	movzbl %al,%ecx
    9db2:	48 8b 05 6f d0 01 00 	mov    0x1d06f(%rip),%rax        # 26e28 <g_606>
    9db9:	0f b6 00             	movzbl (%rax),%eax
    9dbc:	0f be c0             	movsbl %al,%eax
    9dbf:	39 c1                	cmp    %eax,%ecx
    9dc1:	0f 95 c0             	setne  %al
    9dc4:	0f b6 c0             	movzbl %al,%eax
    9dc7:	48 89 d6             	mov    %rdx,%rsi
    9dca:	48 89 c7             	mov    %rax,%rdi
    9dcd:	e8 79 d2 ff ff       	callq  704b <safe_sub_func_uint64_t_u_u>
    9dd2:	48 85 c0             	test   %rax,%rax
    9dd5:	74 14                	je     9deb <func_58+0x1732>
    9dd7:	48 8b 85 d8 f3 ff ff 	mov    -0xc28(%rbp),%rax
    9dde:	8b 00                	mov    (%rax),%eax
    9de0:	85 c0                	test   %eax,%eax
    9de2:	74 07                	je     9deb <func_58+0x1732>
    9de4:	b8 01 00 00 00       	mov    $0x1,%eax
    9de9:	eb 05                	jmp    9df0 <func_58+0x1737>
    9deb:	b8 00 00 00 00       	mov    $0x0,%eax
    9df0:	44 39 e0             	cmp    %r12d,%eax
    9df3:	0f 9e c0             	setle  %al
    9df6:	0f b6 c0             	movzbl %al,%eax
    9df9:	f7 d0                	not    %eax
    9dfb:	89 c2                	mov    %eax,%edx
    9dfd:	48 8b 85 e0 f3 ff ff 	mov    -0xc20(%rbp),%rax
    9e04:	89 10                	mov    %edx,(%rax)
    9e06:	48 8b 85 e0 f3 ff ff 	mov    -0xc20(%rbp),%rax
    9e0d:	8b 00                	mov    (%rax),%eax
    9e0f:	be b9 72 16 2f       	mov    $0x2f1672b9,%esi
    9e14:	89 c7                	mov    %eax,%edi
    9e16:	e8 b5 d0 ff ff       	callq  6ed0 <safe_sub_func_uint32_t_u_u>
    9e1b:	89 de                	mov    %ebx,%esi
    9e1d:	89 c7                	mov    %eax,%edi
    9e1f:	e8 a8 c8 ff ff       	callq  66cc <safe_mod_func_int32_t_s_s>
    9e24:	48 8b 05 9d d6 01 00 	mov    0x1d69d(%rip),%rax        # 274c8 <g_1509>
    9e2b:	48 8b 00             	mov    (%rax),%rax
    9e2e:	ba 01 00 00 00       	mov    $0x1,%edx
    9e33:	48 8b 85 30 f5 ff ff 	mov    -0xad0(%rbp),%rax
    9e3a:	8b 00                	mov    (%rax),%eax
    9e3c:	31 c2                	xor    %eax,%edx
    9e3e:	48 8b 85 30 f5 ff ff 	mov    -0xad0(%rbp),%rax
    9e45:	89 10                	mov    %edx,(%rax)
    9e47:	c7 05 f7 65 01 00 00 	movl   $0x0,0x165f7(%rip)        # 20448 <g_262>
    9e4e:	00 00 00 
    9e51:	e9 7c 0c 00 00       	jmpq   aad2 <func_58+0x2419>
    9e56:	48 8d 85 80 f4 ff ff 	lea    -0xb80(%rbp),%rax
    9e5d:	48 89 85 38 f5 ff ff 	mov    %rax,-0xac8(%rbp)
    9e64:	c7 85 90 f4 ff ff a3 	movl   $0x71b21ea3,-0xb70(%rbp)
    9e6b:	1e b2 71 
    9e6e:	48 8d 05 43 68 01 00 	lea    0x16843(%rip),%rax        # 206b8 <g_402>
    9e75:	48 89 85 40 f5 ff ff 	mov    %rax,-0xac0(%rbp)
    9e7c:	48 8d 05 55 64 01 00 	lea    0x16455(%rip),%rax        # 202d8 <g_142>
    9e83:	48 89 85 48 f5 ff ff 	mov    %rax,-0xab8(%rbp)
    9e8a:	48 8d 85 88 f4 ff ff 	lea    -0xb78(%rbp),%rax
    9e91:	48 89 85 50 f5 ff ff 	mov    %rax,-0xab0(%rbp)
    9e98:	48 8d 05 91 71 01 00 	lea    0x17191(%rip),%rax        # 21030 <g_1462>
    9e9f:	48 89 85 58 f5 ff ff 	mov    %rax,-0xaa8(%rbp)
    9ea6:	48 8d 85 b0 f6 ff ff 	lea    -0x950(%rbp),%rax
    9ead:	48 83 c0 0c          	add    $0xc,%rax
    9eb1:	48 89 85 60 f5 ff ff 	mov    %rax,-0xaa0(%rbp)
    9eb8:	48 c7 85 68 f5 ff ff 	movq   $0x0,-0xa98(%rbp)
    9ebf:	00 00 00 00 
    9ec3:	48 8d 05 0e 64 01 00 	lea    0x1640e(%rip),%rax        # 202d8 <g_142>
    9eca:	48 89 85 70 f5 ff ff 	mov    %rax,-0xa90(%rbp)
    9ed1:	48 8d 05 e0 67 01 00 	lea    0x167e0(%rip),%rax        # 206b8 <g_402>
    9ed8:	48 89 85 78 f5 ff ff 	mov    %rax,-0xa88(%rbp)
    9edf:	48 c7 85 80 f5 ff ff 	movq   $0x0,-0xa80(%rbp)
    9ee6:	00 00 00 00 
    9eea:	48 8d 05 c7 67 01 00 	lea    0x167c7(%rip),%rax        # 206b8 <g_402>
    9ef1:	48 89 85 50 f8 ff ff 	mov    %rax,-0x7b0(%rbp)
    9ef8:	48 8d 05 b9 da 01 00 	lea    0x1dab9(%rip),%rax        # 279b8 <g_29+0x8>
    9eff:	48 89 85 58 f8 ff ff 	mov    %rax,-0x7a8(%rbp)
    9f06:	48 8d 85 a8 f5 ff ff 	lea    -0xa58(%rbp),%rax
    9f0d:	48 83 c0 04          	add    $0x4,%rax
    9f11:	48 89 85 60 f8 ff ff 	mov    %rax,-0x7a0(%rbp)
    9f18:	48 c7 85 68 f8 ff ff 	movq   $0x0,-0x798(%rbp)
    9f1f:	00 00 00 00 
    9f23:	48 8d 05 1a 61 01 00 	lea    0x1611a(%rip),%rax        # 20044 <g_5+0x14>
    9f2a:	48 89 85 70 f8 ff ff 	mov    %rax,-0x790(%rbp)
    9f31:	48 8d 05 f8 70 01 00 	lea    0x170f8(%rip),%rax        # 21030 <g_1462>
    9f38:	48 89 85 78 f8 ff ff 	mov    %rax,-0x788(%rbp)
    9f3f:	48 8d 05 fa 60 01 00 	lea    0x160fa(%rip),%rax        # 20040 <g_5+0x10>
    9f46:	48 89 85 80 f8 ff ff 	mov    %rax,-0x780(%rbp)
    9f4d:	48 8d 05 f0 60 01 00 	lea    0x160f0(%rip),%rax        # 20044 <g_5+0x14>
    9f54:	48 89 85 88 f8 ff ff 	mov    %rax,-0x778(%rbp)
    9f5b:	48 8d 85 88 f4 ff ff 	lea    -0xb78(%rbp),%rax
    9f62:	48 89 85 90 f8 ff ff 	mov    %rax,-0x770(%rbp)
    9f69:	48 8d 05 4c da 01 00 	lea    0x1da4c(%rip),%rax        # 279bc <g_29+0xc>
    9f70:	48 89 85 98 f8 ff ff 	mov    %rax,-0x768(%rbp)
    9f77:	48 8d 05 ae 60 01 00 	lea    0x160ae(%rip),%rax        # 2002c <g_2+0x4>
    9f7e:	48 89 85 a0 f8 ff ff 	mov    %rax,-0x760(%rbp)
    9f85:	48 8d 85 88 f4 ff ff 	lea    -0xb78(%rbp),%rax
    9f8c:	48 89 85 a8 f8 ff ff 	mov    %rax,-0x758(%rbp)
    9f93:	48 8d 05 1e da 01 00 	lea    0x1da1e(%rip),%rax        # 279b8 <g_29+0x8>
    9f9a:	48 89 85 b0 f8 ff ff 	mov    %rax,-0x750(%rbp)
    9fa1:	48 8d 05 9c 60 01 00 	lea    0x1609c(%rip),%rax        # 20044 <g_5+0x14>
    9fa8:	48 89 85 b8 f8 ff ff 	mov    %rax,-0x748(%rbp)
    9faf:	48 8d 05 22 63 01 00 	lea    0x16322(%rip),%rax        # 202d8 <g_142>
    9fb6:	48 89 85 c0 f8 ff ff 	mov    %rax,-0x740(%rbp)
    9fbd:	48 8d 85 90 f4 ff ff 	lea    -0xb70(%rbp),%rax
    9fc4:	48 89 85 c8 f8 ff ff 	mov    %rax,-0x738(%rbp)
    9fcb:	48 8d 05 72 60 01 00 	lea    0x16072(%rip),%rax        # 20044 <g_5+0x14>
    9fd2:	48 89 85 d0 f8 ff ff 	mov    %rax,-0x730(%rbp)
    9fd9:	48 8d 85 0c f4 ff ff 	lea    -0xbf4(%rbp),%rax
    9fe0:	48 89 85 d8 f8 ff ff 	mov    %rax,-0x728(%rbp)
    9fe7:	48 8d 85 0c f4 ff ff 	lea    -0xbf4(%rbp),%rax
    9fee:	48 89 85 e0 f8 ff ff 	mov    %rax,-0x720(%rbp)
    9ff5:	48 8d 05 2c 60 01 00 	lea    0x1602c(%rip),%rax        # 20028 <g_2>
    9ffc:	48 89 85 e8 f8 ff ff 	mov    %rax,-0x718(%rbp)
    a003:	48 c7 85 f0 f8 ff ff 	movq   $0x0,-0x710(%rbp)
    a00a:	00 00 00 00 
    a00e:	48 c7 85 f8 f8 ff ff 	movq   $0x0,-0x708(%rbp)
    a015:	00 00 00 00 
    a019:	48 8d 05 b8 62 01 00 	lea    0x162b8(%rip),%rax        # 202d8 <g_142>
    a020:	48 89 85 00 f9 ff ff 	mov    %rax,-0x700(%rbp)
    a027:	48 8d 05 02 70 01 00 	lea    0x17002(%rip),%rax        # 21030 <g_1462>
    a02e:	48 89 85 08 f9 ff ff 	mov    %rax,-0x6f8(%rbp)
    a035:	48 8d 05 ec 5f 01 00 	lea    0x15fec(%rip),%rax        # 20028 <g_2>
    a03c:	48 89 85 10 f9 ff ff 	mov    %rax,-0x6f0(%rbp)
    a043:	48 8d 85 90 f4 ff ff 	lea    -0xb70(%rbp),%rax
    a04a:	48 89 85 18 f9 ff ff 	mov    %rax,-0x6e8(%rbp)
    a051:	48 8d 05 1c 61 01 00 	lea    0x1611c(%rip),%rax        # 20174 <g_18>
    a058:	48 89 85 20 f9 ff ff 	mov    %rax,-0x6e0(%rbp)
    a05f:	48 8d 85 90 f4 ff ff 	lea    -0xb70(%rbp),%rax
    a066:	48 89 85 28 f9 ff ff 	mov    %rax,-0x6d8(%rbp)
    a06d:	48 8d 05 44 66 01 00 	lea    0x16644(%rip),%rax        # 206b8 <g_402>
    a074:	48 89 85 30 f9 ff ff 	mov    %rax,-0x6d0(%rbp)
    a07b:	48 8d 85 90 f4 ff ff 	lea    -0xb70(%rbp),%rax
    a082:	48 89 85 38 f9 ff ff 	mov    %rax,-0x6c8(%rbp)
    a089:	48 8d 85 b0 f6 ff ff 	lea    -0x950(%rbp),%rax
    a090:	48 83 c0 30          	add    $0x30,%rax
    a094:	48 89 85 40 f9 ff ff 	mov    %rax,-0x6c0(%rbp)
    a09b:	48 8d 05 16 66 01 00 	lea    0x16616(%rip),%rax        # 206b8 <g_402>
    a0a2:	48 89 85 48 f9 ff ff 	mov    %rax,-0x6b8(%rbp)
    a0a9:	48 8d 85 0c f4 ff ff 	lea    -0xbf4(%rbp),%rax
    a0b0:	48 89 85 50 f9 ff ff 	mov    %rax,-0x6b0(%rbp)
    a0b7:	48 8d 05 fe d8 01 00 	lea    0x1d8fe(%rip),%rax        # 279bc <g_29+0xc>
    a0be:	48 89 85 58 f9 ff ff 	mov    %rax,-0x6a8(%rbp)
    a0c5:	48 8d 05 e8 d8 01 00 	lea    0x1d8e8(%rip),%rax        # 279b4 <g_29+0x4>
    a0cc:	48 89 85 60 f9 ff ff 	mov    %rax,-0x6a0(%rbp)
    a0d3:	48 8d 05 9a 60 01 00 	lea    0x1609a(%rip),%rax        # 20174 <g_18>
    a0da:	48 89 85 68 f9 ff ff 	mov    %rax,-0x698(%rbp)
    a0e1:	48 c7 85 70 f9 ff ff 	movq   $0x0,-0x690(%rbp)
    a0e8:	00 00 00 00 
    a0ec:	48 8d 05 35 5f 01 00 	lea    0x15f35(%rip),%rax        # 20028 <g_2>
    a0f3:	48 89 85 78 f9 ff ff 	mov    %rax,-0x688(%rbp)
    a0fa:	48 8d 05 b7 65 01 00 	lea    0x165b7(%rip),%rax        # 206b8 <g_402>
    a101:	48 89 85 80 f9 ff ff 	mov    %rax,-0x680(%rbp)
    a108:	48 c7 85 88 f9 ff ff 	movq   $0x0,-0x678(%rbp)
    a10f:	00 00 00 00 
    a113:	48 c7 85 90 f9 ff ff 	movq   $0x0,-0x670(%rbp)
    a11a:	00 00 00 00 
    a11e:	48 8d 05 1f 5f 01 00 	lea    0x15f1f(%rip),%rax        # 20044 <g_5+0x14>
    a125:	48 89 85 98 f9 ff ff 	mov    %rax,-0x668(%rbp)
    a12c:	48 8d 05 81 d8 01 00 	lea    0x1d881(%rip),%rax        # 279b4 <g_29+0x4>
    a133:	48 89 85 a0 f9 ff ff 	mov    %rax,-0x660(%rbp)
    a13a:	48 8d 05 e7 5e 01 00 	lea    0x15ee7(%rip),%rax        # 20028 <g_2>
    a141:	48 89 85 a8 f9 ff ff 	mov    %rax,-0x658(%rbp)
    a148:	48 8d 85 0c f4 ff ff 	lea    -0xbf4(%rbp),%rax
    a14f:	48 89 85 b0 f9 ff ff 	mov    %rax,-0x650(%rbp)
    a156:	48 c7 85 b8 f9 ff ff 	movq   $0x0,-0x648(%rbp)
    a15d:	00 00 00 00 
    a161:	48 8d 85 b0 f6 ff ff 	lea    -0x950(%rbp),%rax
    a168:	48 83 c0 30          	add    $0x30,%rax
    a16c:	48 89 85 c0 f9 ff ff 	mov    %rax,-0x640(%rbp)
    a173:	48 8d 05 c6 5e 01 00 	lea    0x15ec6(%rip),%rax        # 20040 <g_5+0x10>
    a17a:	48 89 85 c8 f9 ff ff 	mov    %rax,-0x638(%rbp)
    a181:	48 8d 05 30 65 01 00 	lea    0x16530(%rip),%rax        # 206b8 <g_402>
    a188:	48 89 85 d0 f9 ff ff 	mov    %rax,-0x630(%rbp)
    a18f:	48 c7 85 d8 f9 ff ff 	movq   $0x0,-0x628(%rbp)
    a196:	00 00 00 00 
    a19a:	48 8d 05 d3 5f 01 00 	lea    0x15fd3(%rip),%rax        # 20174 <g_18>
    a1a1:	48 89 85 e0 f9 ff ff 	mov    %rax,-0x620(%rbp)
    a1a8:	48 8d 05 95 5e 01 00 	lea    0x15e95(%rip),%rax        # 20044 <g_5+0x14>
    a1af:	48 89 85 e8 f9 ff ff 	mov    %rax,-0x618(%rbp)
    a1b6:	48 8d 05 6b 5e 01 00 	lea    0x15e6b(%rip),%rax        # 20028 <g_2>
    a1bd:	48 89 85 f0 f9 ff ff 	mov    %rax,-0x610(%rbp)
    a1c4:	48 8d 05 79 5e 01 00 	lea    0x15e79(%rip),%rax        # 20044 <g_5+0x14>
    a1cb:	48 89 85 f8 f9 ff ff 	mov    %rax,-0x608(%rbp)
    a1d2:	48 8d 05 ff 60 01 00 	lea    0x160ff(%rip),%rax        # 202d8 <g_142>
    a1d9:	48 89 85 00 fa ff ff 	mov    %rax,-0x600(%rbp)
    a1e0:	48 c7 85 08 fa ff ff 	movq   $0x0,-0x5f8(%rbp)
    a1e7:	00 00 00 00 
    a1eb:	48 c7 85 10 fa ff ff 	movq   $0x0,-0x5f0(%rbp)
    a1f2:	00 00 00 00 
    a1f6:	48 8d 05 47 5e 01 00 	lea    0x15e47(%rip),%rax        # 20044 <g_5+0x14>
    a1fd:	48 89 85 18 fa ff ff 	mov    %rax,-0x5e8(%rbp)
    a204:	48 8d 85 0c f4 ff ff 	lea    -0xbf4(%rbp),%rax
    a20b:	48 89 85 20 fa ff ff 	mov    %rax,-0x5e0(%rbp)
    a212:	48 8d 85 90 f4 ff ff 	lea    -0xb70(%rbp),%rax
    a219:	48 89 85 28 fa ff ff 	mov    %rax,-0x5d8(%rbp)
    a220:	48 8d 05 1d 5e 01 00 	lea    0x15e1d(%rip),%rax        # 20044 <g_5+0x14>
    a227:	48 89 85 30 fa ff ff 	mov    %rax,-0x5d0(%rbp)
    a22e:	48 c7 85 38 fa ff ff 	movq   $0x0,-0x5c8(%rbp)
    a235:	00 00 00 00 
    a239:	48 8d 05 98 60 01 00 	lea    0x16098(%rip),%rax        # 202d8 <g_142>
    a240:	48 89 85 40 fa ff ff 	mov    %rax,-0x5c0(%rbp)
    a247:	48 8d 05 e6 5d 01 00 	lea    0x15de6(%rip),%rax        # 20034 <g_5+0x4>
    a24e:	48 89 85 48 fa ff ff 	mov    %rax,-0x5b8(%rbp)
    a255:	48 8d 05 5c d7 01 00 	lea    0x1d75c(%rip),%rax        # 279b8 <g_29+0x8>
    a25c:	48 89 85 50 fa ff ff 	mov    %rax,-0x5b0(%rbp)
    a263:	48 8d 85 0c f4 ff ff 	lea    -0xbf4(%rbp),%rax
    a26a:	48 89 85 58 fa ff ff 	mov    %rax,-0x5a8(%rbp)
    a271:	48 8d 05 b4 5d 01 00 	lea    0x15db4(%rip),%rax        # 2002c <g_2+0x4>
    a278:	48 89 85 60 fa ff ff 	mov    %rax,-0x5a0(%rbp)
    a27f:	48 8d 05 a2 5d 01 00 	lea    0x15da2(%rip),%rax        # 20028 <g_2>
    a286:	48 89 85 68 fa ff ff 	mov    %rax,-0x598(%rbp)
    a28d:	48 8d 85 88 f4 ff ff 	lea    -0xb78(%rbp),%rax
    a294:	48 89 85 70 fa ff ff 	mov    %rax,-0x590(%rbp)
    a29b:	48 8d 05 16 d7 01 00 	lea    0x1d716(%rip),%rax        # 279b8 <g_29+0x8>
    a2a2:	48 89 85 78 fa ff ff 	mov    %rax,-0x588(%rbp)
    a2a9:	48 8d 05 90 5d 01 00 	lea    0x15d90(%rip),%rax        # 20040 <g_5+0x10>
    a2b0:	48 89 85 80 fa ff ff 	mov    %rax,-0x580(%rbp)
    a2b7:	48 8d 85 0c f4 ff ff 	lea    -0xbf4(%rbp),%rax
    a2be:	48 89 85 88 fa ff ff 	mov    %rax,-0x578(%rbp)
    a2c5:	48 8d 05 78 5d 01 00 	lea    0x15d78(%rip),%rax        # 20044 <g_5+0x14>
    a2cc:	48 89 85 90 fa ff ff 	mov    %rax,-0x570(%rbp)
    a2d3:	48 8d 05 4e 5d 01 00 	lea    0x15d4e(%rip),%rax        # 20028 <g_2>
    a2da:	48 89 85 98 fa ff ff 	mov    %rax,-0x568(%rbp)
    a2e1:	48 8d 85 a8 f5 ff ff 	lea    -0xa58(%rbp),%rax
    a2e8:	48 83 c0 04          	add    $0x4,%rax
    a2ec:	48 89 85 a0 fa ff ff 	mov    %rax,-0x560(%rbp)
    a2f3:	48 8d 05 4a 5d 01 00 	lea    0x15d4a(%rip),%rax        # 20044 <g_5+0x14>
    a2fa:	48 89 85 a8 fa ff ff 	mov    %rax,-0x558(%rbp)
    a301:	48 8d 05 b0 63 01 00 	lea    0x163b0(%rip),%rax        # 206b8 <g_402>
    a308:	48 89 85 b0 fa ff ff 	mov    %rax,-0x550(%rbp)
    a30f:	48 8d 05 16 5d 01 00 	lea    0x15d16(%rip),%rax        # 2002c <g_2+0x4>
    a316:	48 89 85 b8 fa ff ff 	mov    %rax,-0x548(%rbp)
    a31d:	48 8d 05 08 5d 01 00 	lea    0x15d08(%rip),%rax        # 2002c <g_2+0x4>
    a324:	48 89 85 c0 fa ff ff 	mov    %rax,-0x540(%rbp)
    a32b:	48 8d 05 86 63 01 00 	lea    0x16386(%rip),%rax        # 206b8 <g_402>
    a332:	48 89 85 c8 fa ff ff 	mov    %rax,-0x538(%rbp)
    a339:	48 8d 05 04 5d 01 00 	lea    0x15d04(%rip),%rax        # 20044 <g_5+0x14>
    a340:	48 89 85 d0 fa ff ff 	mov    %rax,-0x530(%rbp)
    a347:	48 8d 05 f6 5c 01 00 	lea    0x15cf6(%rip),%rax        # 20044 <g_5+0x14>
    a34e:	48 89 85 d8 fa ff ff 	mov    %rax,-0x528(%rbp)
    a355:	48 8d 05 e8 5c 01 00 	lea    0x15ce8(%rip),%rax        # 20044 <g_5+0x14>
    a35c:	48 89 85 e0 fa ff ff 	mov    %rax,-0x520(%rbp)
    a363:	48 8d 85 0c f4 ff ff 	lea    -0xbf4(%rbp),%rax
    a36a:	48 89 85 e8 fa ff ff 	mov    %rax,-0x518(%rbp)
    a371:	48 8d 05 cc 5c 01 00 	lea    0x15ccc(%rip),%rax        # 20044 <g_5+0x14>
    a378:	48 89 85 f0 fa ff ff 	mov    %rax,-0x510(%rbp)
    a37f:	48 8d 85 90 f4 ff ff 	lea    -0xb70(%rbp),%rax
    a386:	48 89 85 f8 fa ff ff 	mov    %rax,-0x508(%rbp)
    a38d:	48 c7 85 00 fb ff ff 	movq   $0x0,-0x500(%rbp)
    a394:	00 00 00 00 
    a398:	48 8d 05 89 5c 01 00 	lea    0x15c89(%rip),%rax        # 20028 <g_2>
    a39f:	48 89 85 08 fb ff ff 	mov    %rax,-0x4f8(%rbp)
    a3a6:	48 c7 85 10 fb ff ff 	movq   $0x0,-0x4f0(%rbp)
    a3ad:	00 00 00 00 
    a3b1:	48 8d 85 a8 f5 ff ff 	lea    -0xa58(%rbp),%rax
    a3b8:	48 89 85 18 fb ff ff 	mov    %rax,-0x4e8(%rbp)
    a3bf:	48 8d 05 12 5f 01 00 	lea    0x15f12(%rip),%rax        # 202d8 <g_142>
    a3c6:	48 89 85 20 fb ff ff 	mov    %rax,-0x4e0(%rbp)
    a3cd:	48 8d 05 54 5c 01 00 	lea    0x15c54(%rip),%rax        # 20028 <g_2>
    a3d4:	48 89 85 28 fb ff ff 	mov    %rax,-0x4d8(%rbp)
    a3db:	48 8d 05 d2 d5 01 00 	lea    0x1d5d2(%rip),%rax        # 279b4 <g_29+0x4>
    a3e2:	48 89 85 30 fb ff ff 	mov    %rax,-0x4d0(%rbp)
    a3e9:	48 8d 85 90 f4 ff ff 	lea    -0xb70(%rbp),%rax
    a3f0:	48 89 85 38 fb ff ff 	mov    %rax,-0x4c8(%rbp)
    a3f7:	48 c7 85 40 fb ff ff 	movq   $0x0,-0x4c0(%rbp)
    a3fe:	00 00 00 00 
    a402:	48 8d 85 0c f4 ff ff 	lea    -0xbf4(%rbp),%rax
    a409:	48 89 85 48 fb ff ff 	mov    %rax,-0x4b8(%rbp)
    a410:	48 8d 05 a1 62 01 00 	lea    0x162a1(%rip),%rax        # 206b8 <g_402>
    a417:	48 89 85 50 fb ff ff 	mov    %rax,-0x4b0(%rbp)
    a41e:	48 8d 05 1f 5c 01 00 	lea    0x15c1f(%rip),%rax        # 20044 <g_5+0x14>
    a425:	48 89 85 58 fb ff ff 	mov    %rax,-0x4a8(%rbp)
    a42c:	48 8d 05 15 5c 01 00 	lea    0x15c15(%rip),%rax        # 20048 <g_8>
    a433:	48 89 85 60 fb ff ff 	mov    %rax,-0x4a0(%rbp)
    a43a:	48 8d 05 77 62 01 00 	lea    0x16277(%rip),%rax        # 206b8 <g_402>
    a441:	48 89 85 68 fb ff ff 	mov    %rax,-0x498(%rbp)
    a448:	48 c7 85 70 fb ff ff 	movq   $0x0,-0x490(%rbp)
    a44f:	00 00 00 00 
    a453:	48 8d 05 d2 5b 01 00 	lea    0x15bd2(%rip),%rax        # 2002c <g_2+0x4>
    a45a:	48 89 85 78 fb ff ff 	mov    %rax,-0x488(%rbp)
    a461:	48 8d 05 4c d5 01 00 	lea    0x1d54c(%rip),%rax        # 279b4 <g_29+0x4>
    a468:	48 89 85 80 fb ff ff 	mov    %rax,-0x480(%rbp)
    a46f:	48 8d 05 ce 5b 01 00 	lea    0x15bce(%rip),%rax        # 20044 <g_5+0x14>
    a476:	48 89 85 88 fb ff ff 	mov    %rax,-0x478(%rbp)
    a47d:	48 8d 85 a8 f5 ff ff 	lea    -0xa58(%rbp),%rax
    a484:	48 89 85 90 fb ff ff 	mov    %rax,-0x470(%rbp)
    a48b:	48 8d 05 96 5b 01 00 	lea    0x15b96(%rip),%rax        # 20028 <g_2>
    a492:	48 89 85 98 fb ff ff 	mov    %rax,-0x468(%rbp)
    a499:	48 8d 05 d4 5c 01 00 	lea    0x15cd4(%rip),%rax        # 20174 <g_18>
    a4a0:	48 89 85 a0 fb ff ff 	mov    %rax,-0x460(%rbp)
    a4a7:	48 8d 85 0c f4 ff ff 	lea    -0xbf4(%rbp),%rax
    a4ae:	48 89 85 a8 fb ff ff 	mov    %rax,-0x458(%rbp)
    a4b5:	48 c7 85 b0 fb ff ff 	movq   $0x0,-0x450(%rbp)
    a4bc:	00 00 00 00 
    a4c0:	48 8d 05 f1 d4 01 00 	lea    0x1d4f1(%rip),%rax        # 279b8 <g_29+0x8>
    a4c7:	48 89 85 b8 fb ff ff 	mov    %rax,-0x448(%rbp)
    a4ce:	48 8d 05 03 5e 01 00 	lea    0x15e03(%rip),%rax        # 202d8 <g_142>
    a4d5:	48 89 85 c0 fb ff ff 	mov    %rax,-0x440(%rbp)
    a4dc:	48 8d 05 45 5b 01 00 	lea    0x15b45(%rip),%rax        # 20028 <g_2>
    a4e3:	48 89 85 c8 fb ff ff 	mov    %rax,-0x438(%rbp)
    a4ea:	48 c7 85 d0 fb ff ff 	movq   $0x0,-0x430(%rbp)
    a4f1:	00 00 00 00 
    a4f5:	48 8d 85 0c f4 ff ff 	lea    -0xbf4(%rbp),%rax
    a4fc:	48 89 85 d8 fb ff ff 	mov    %rax,-0x428(%rbp)
    a503:	48 8d 85 b0 f6 ff ff 	lea    -0x950(%rbp),%rax
    a50a:	48 83 c0 30          	add    $0x30,%rax
    a50e:	48 89 85 e0 fb ff ff 	mov    %rax,-0x420(%rbp)
    a515:	48 8d 05 18 5b 01 00 	lea    0x15b18(%rip),%rax        # 20034 <g_5+0x4>
    a51c:	48 89 85 e8 fb ff ff 	mov    %rax,-0x418(%rbp)
    a523:	48 8d 85 a8 f5 ff ff 	lea    -0xa58(%rbp),%rax
    a52a:	48 83 c0 04          	add    $0x4,%rax
    a52e:	48 89 85 f0 fb ff ff 	mov    %rax,-0x410(%rbp)
    a535:	48 c7 85 f8 fb ff ff 	movq   $0x0,-0x408(%rbp)
    a53c:	00 00 00 00 
    a540:	48 c7 85 00 fc ff ff 	movq   $0x0,-0x400(%rbp)
    a547:	00 00 00 00 
    a54b:	48 8d 85 90 f4 ff ff 	lea    -0xb70(%rbp),%rax
    a552:	48 89 85 08 fc ff ff 	mov    %rax,-0x3f8(%rbp)
    a559:	48 8d 05 c8 5a 01 00 	lea    0x15ac8(%rip),%rax        # 20028 <g_2>
    a560:	48 89 85 10 fc ff ff 	mov    %rax,-0x3f0(%rbp)
    a567:	48 8d 05 d6 5a 01 00 	lea    0x15ad6(%rip),%rax        # 20044 <g_5+0x14>
    a56e:	48 89 85 18 fc ff ff 	mov    %rax,-0x3e8(%rbp)
    a575:	48 8d 85 88 f4 ff ff 	lea    -0xb78(%rbp),%rax
    a57c:	48 89 85 20 fc ff ff 	mov    %rax,-0x3e0(%rbp)
    a583:	48 c7 85 28 fc ff ff 	movq   $0x0,-0x3d8(%rbp)
    a58a:	00 00 00 00 
    a58e:	48 c7 85 30 fc ff ff 	movq   $0x0,-0x3d0(%rbp)
    a595:	00 00 00 00 
    a599:	48 8d 05 a4 5a 01 00 	lea    0x15aa4(%rip),%rax        # 20044 <g_5+0x14>
    a5a0:	48 89 85 38 fc ff ff 	mov    %rax,-0x3c8(%rbp)
    a5a7:	48 8d 85 0c f4 ff ff 	lea    -0xbf4(%rbp),%rax
    a5ae:	48 89 85 40 fc ff ff 	mov    %rax,-0x3c0(%rbp)
    a5b5:	48 8d 05 88 5a 01 00 	lea    0x15a88(%rip),%rax        # 20044 <g_5+0x14>
    a5bc:	48 89 85 48 fc ff ff 	mov    %rax,-0x3b8(%rbp)
    a5c3:	48 8d 05 7a 5a 01 00 	lea    0x15a7a(%rip),%rax        # 20044 <g_5+0x14>
    a5ca:	48 89 85 50 fc ff ff 	mov    %rax,-0x3b0(%rbp)
    a5d1:	48 c7 85 58 fc ff ff 	movq   $0x0,-0x3a8(%rbp)
    a5d8:	00 00 00 00 
    a5dc:	48 8d 05 61 5a 01 00 	lea    0x15a61(%rip),%rax        # 20044 <g_5+0x14>
    a5e3:	48 89 85 60 fc ff ff 	mov    %rax,-0x3a0(%rbp)
    a5ea:	48 8d 05 4f 5a 01 00 	lea    0x15a4f(%rip),%rax        # 20040 <g_5+0x10>
    a5f1:	48 89 85 68 fc ff ff 	mov    %rax,-0x398(%rbp)
    a5f8:	48 8d 05 b9 d3 01 00 	lea    0x1d3b9(%rip),%rax        # 279b8 <g_29+0x8>
    a5ff:	48 89 85 70 fc ff ff 	mov    %rax,-0x390(%rbp)
    a606:	48 c7 85 78 fc ff ff 	movq   $0x0,-0x388(%rbp)
    a60d:	00 00 00 00 
    a611:	48 8d 05 2c 5a 01 00 	lea    0x15a2c(%rip),%rax        # 20044 <g_5+0x14>
    a618:	48 89 85 80 fc ff ff 	mov    %rax,-0x380(%rbp)
    a61f:	48 8d 05 02 5a 01 00 	lea    0x15a02(%rip),%rax        # 20028 <g_2>
    a626:	48 89 85 88 fc ff ff 	mov    %rax,-0x378(%rbp)
    a62d:	48 8d 05 84 60 01 00 	lea    0x16084(%rip),%rax        # 206b8 <g_402>
    a634:	48 89 85 90 fc ff ff 	mov    %rax,-0x370(%rbp)
    a63b:	48 8d 05 02 5a 01 00 	lea    0x15a02(%rip),%rax        # 20044 <g_5+0x14>
    a642:	48 89 85 98 fc ff ff 	mov    %rax,-0x368(%rbp)
    a649:	48 8d 05 f0 59 01 00 	lea    0x159f0(%rip),%rax        # 20040 <g_5+0x10>
    a650:	48 89 85 a0 fc ff ff 	mov    %rax,-0x360(%rbp)
    a657:	48 c7 85 a8 fc ff ff 	movq   $0x0,-0x358(%rbp)
    a65e:	00 00 00 00 
    a662:	48 8d 85 90 f4 ff ff 	lea    -0xb70(%rbp),%rax
    a669:	48 89 85 b0 fc ff ff 	mov    %rax,-0x350(%rbp)
    a670:	48 8d 05 b1 59 01 00 	lea    0x159b1(%rip),%rax        # 20028 <g_2>
    a677:	48 89 85 b8 fc ff ff 	mov    %rax,-0x348(%rbp)
    a67e:	48 8d 05 bb 59 01 00 	lea    0x159bb(%rip),%rax        # 20040 <g_5+0x10>
    a685:	48 89 85 c0 fc ff ff 	mov    %rax,-0x340(%rbp)
    a68c:	48 8d 05 45 5c 01 00 	lea    0x15c45(%rip),%rax        # 202d8 <g_142>
    a693:	48 89 85 c8 fc ff ff 	mov    %rax,-0x338(%rbp)
    a69a:	48 8d 85 a8 f5 ff ff 	lea    -0xa58(%rbp),%rax
    a6a1:	48 83 c0 04          	add    $0x4,%rax
    a6a5:	48 89 85 d0 fc ff ff 	mov    %rax,-0x330(%rbp)
    a6ac:	48 8d 05 25 5c 01 00 	lea    0x15c25(%rip),%rax        # 202d8 <g_142>
    a6b3:	48 89 85 d8 fc ff ff 	mov    %rax,-0x328(%rbp)
    a6ba:	48 8d 85 b0 f6 ff ff 	lea    -0x950(%rbp),%rax
    a6c1:	48 83 c0 20          	add    $0x20,%rax
    a6c5:	48 89 85 e0 fc ff ff 	mov    %rax,-0x320(%rbp)
    a6cc:	48 8d 85 a8 f5 ff ff 	lea    -0xa58(%rbp),%rax
    a6d3:	48 83 c0 04          	add    $0x4,%rax
    a6d7:	48 89 85 e8 fc ff ff 	mov    %rax,-0x318(%rbp)
    a6de:	48 8d 05 47 59 01 00 	lea    0x15947(%rip),%rax        # 2002c <g_2+0x4>
    a6e5:	48 89 85 f0 fc ff ff 	mov    %rax,-0x310(%rbp)
    a6ec:	48 8d 85 a8 f5 ff ff 	lea    -0xa58(%rbp),%rax
    a6f3:	48 83 c0 04          	add    $0x4,%rax
    a6f7:	48 89 85 f8 fc ff ff 	mov    %rax,-0x308(%rbp)
    a6fe:	48 c7 85 00 fd ff ff 	movq   $0x0,-0x300(%rbp)
    a705:	00 00 00 00 
    a709:	48 8d 85 0c f4 ff ff 	lea    -0xbf4(%rbp),%rax
    a710:	48 89 85 08 fd ff ff 	mov    %rax,-0x2f8(%rbp)
    a717:	48 c7 85 10 fd ff ff 	movq   $0x0,-0x2f0(%rbp)
    a71e:	00 00 00 00 
    a722:	48 8d 85 0c f4 ff ff 	lea    -0xbf4(%rbp),%rax
    a729:	48 89 85 18 fd ff ff 	mov    %rax,-0x2e8(%rbp)
    a730:	48 8d 05 3d 5a 01 00 	lea    0x15a3d(%rip),%rax        # 20174 <g_18>
    a737:	48 89 85 20 fd ff ff 	mov    %rax,-0x2e0(%rbp)
    a73e:	48 8d 05 e3 58 01 00 	lea    0x158e3(%rip),%rax        # 20028 <g_2>
    a745:	48 89 85 28 fd ff ff 	mov    %rax,-0x2d8(%rbp)
    a74c:	48 8d 85 90 f4 ff ff 	lea    -0xb70(%rbp),%rax
    a753:	48 89 85 30 fd ff ff 	mov    %rax,-0x2d0(%rbp)
    a75a:	48 8d 85 0c f4 ff ff 	lea    -0xbf4(%rbp),%rax
    a761:	48 89 85 38 fd ff ff 	mov    %rax,-0x2c8(%rbp)
    a768:	48 8d 05 d5 58 01 00 	lea    0x158d5(%rip),%rax        # 20044 <g_5+0x14>
    a76f:	48 89 85 40 fd ff ff 	mov    %rax,-0x2c0(%rbp)
    a776:	48 8d 85 a8 f5 ff ff 	lea    -0xa58(%rbp),%rax
    a77d:	48 89 85 48 fd ff ff 	mov    %rax,-0x2b8(%rbp)
    a784:	48 8d 05 b9 58 01 00 	lea    0x158b9(%rip),%rax        # 20044 <g_5+0x14>
    a78b:	48 89 85 50 fd ff ff 	mov    %rax,-0x2b0(%rbp)
    a792:	48 c7 85 58 fd ff ff 	movq   $0x0,-0x2a8(%rbp)
    a799:	00 00 00 00 
    a79d:	48 8d 05 ac 58 01 00 	lea    0x158ac(%rip),%rax        # 20050 <g_12>
    a7a4:	48 89 85 60 fd ff ff 	mov    %rax,-0x2a0(%rbp)
    a7ab:	48 8d 85 0c f4 ff ff 	lea    -0xbf4(%rbp),%rax
    a7b2:	48 89 85 68 fd ff ff 	mov    %rax,-0x298(%rbp)
    a7b9:	48 8d 85 a8 f5 ff ff 	lea    -0xa58(%rbp),%rax
    a7c0:	48 83 c0 04          	add    $0x4,%rax
    a7c4:	48 89 85 70 fd ff ff 	mov    %rax,-0x290(%rbp)
    a7cb:	48 8d 85 88 f4 ff ff 	lea    -0xb78(%rbp),%rax
    a7d2:	48 89 85 78 fd ff ff 	mov    %rax,-0x288(%rbp)
    a7d9:	48 c7 85 80 fd ff ff 	movq   $0x0,-0x280(%rbp)
    a7e0:	00 00 00 00 
    a7e4:	48 8d 85 0c f4 ff ff 	lea    -0xbf4(%rbp),%rax
    a7eb:	48 89 85 88 fd ff ff 	mov    %rax,-0x278(%rbp)
    a7f2:	48 c7 85 90 fd ff ff 	movq   $0x0,-0x270(%rbp)
    a7f9:	00 00 00 00 
    a7fd:	48 8d 05 d4 5a 01 00 	lea    0x15ad4(%rip),%rax        # 202d8 <g_142>
    a804:	48 89 85 98 fd ff ff 	mov    %rax,-0x268(%rbp)
    a80b:	48 8d 05 32 58 01 00 	lea    0x15832(%rip),%rax        # 20044 <g_5+0x14>
    a812:	48 89 85 a0 fd ff ff 	mov    %rax,-0x260(%rbp)
    a819:	48 8d 05 94 d1 01 00 	lea    0x1d194(%rip),%rax        # 279b4 <g_29+0x4>
    a820:	48 89 85 a8 fd ff ff 	mov    %rax,-0x258(%rbp)
    a827:	48 8d 85 0c f4 ff ff 	lea    -0xbf4(%rbp),%rax
    a82e:	48 89 85 b0 fd ff ff 	mov    %rax,-0x250(%rbp)
    a835:	48 8d 05 ec 57 01 00 	lea    0x157ec(%rip),%rax        # 20028 <g_2>
    a83c:	48 89 85 b8 fd ff ff 	mov    %rax,-0x248(%rbp)
    a843:	48 8d 05 8e 5a 01 00 	lea    0x15a8e(%rip),%rax        # 202d8 <g_142>
    a84a:	48 89 85 c0 fd ff ff 	mov    %rax,-0x240(%rbp)
    a851:	48 c7 85 c8 fd ff ff 	movq   $0x0,-0x238(%rbp)
    a858:	00 00 00 00 
    a85c:	48 8d 05 59 d1 01 00 	lea    0x1d159(%rip),%rax        # 279bc <g_29+0xc>
    a863:	48 89 85 d0 fd ff ff 	mov    %rax,-0x230(%rbp)
    a86a:	48 8d 05 bb 57 01 00 	lea    0x157bb(%rip),%rax        # 2002c <g_2+0x4>
    a871:	48 89 85 d8 fd ff ff 	mov    %rax,-0x228(%rbp)
    a878:	48 8d 05 59 5a 01 00 	lea    0x15a59(%rip),%rax        # 202d8 <g_142>
    a87f:	48 89 85 e0 fd ff ff 	mov    %rax,-0x220(%rbp)
    a886:	48 8d 05 4b 5a 01 00 	lea    0x15a4b(%rip),%rax        # 202d8 <g_142>
    a88d:	48 89 85 e8 fd ff ff 	mov    %rax,-0x218(%rbp)
    a894:	48 c7 85 f0 fd ff ff 	movq   $0x0,-0x210(%rbp)
    a89b:	00 00 00 00 
    a89f:	48 c7 85 f8 fd ff ff 	movq   $0x0,-0x208(%rbp)
    a8a6:	00 00 00 00 
    a8aa:	48 8d 05 77 57 01 00 	lea    0x15777(%rip),%rax        # 20028 <g_2>
    a8b1:	48 89 85 00 fe ff ff 	mov    %rax,-0x200(%rbp)
    a8b8:	48 8d 05 85 57 01 00 	lea    0x15785(%rip),%rax        # 20044 <g_5+0x14>
    a8bf:	48 89 85 08 fe ff ff 	mov    %rax,-0x1f8(%rbp)
    a8c6:	48 8d 05 73 57 01 00 	lea    0x15773(%rip),%rax        # 20040 <g_5+0x10>
    a8cd:	48 89 85 10 fe ff ff 	mov    %rax,-0x1f0(%rbp)
    a8d4:	48 c7 85 18 fe ff ff 	movq   $0x0,-0x1e8(%rbp)
    a8db:	00 00 00 00 
    a8df:	48 8d 05 6a 57 01 00 	lea    0x1576a(%rip),%rax        # 20050 <g_12>
    a8e6:	48 89 85 20 fe ff ff 	mov    %rax,-0x1e0(%rbp)
    a8ed:	48 8d 85 88 f4 ff ff 	lea    -0xb78(%rbp),%rax
    a8f4:	48 89 85 28 fe ff ff 	mov    %rax,-0x1d8(%rbp)
    a8fb:	48 8d 05 d6 59 01 00 	lea    0x159d6(%rip),%rax        # 202d8 <g_142>
    a902:	48 89 85 30 fe ff ff 	mov    %rax,-0x1d0(%rbp)
    a909:	48 8d 05 a8 5d 01 00 	lea    0x15da8(%rip),%rax        # 206b8 <g_402>
    a910:	48 89 85 38 fe ff ff 	mov    %rax,-0x1c8(%rbp)
    a917:	48 8d 05 9a 5d 01 00 	lea    0x15d9a(%rip),%rax        # 206b8 <g_402>
    a91e:	48 89 85 40 fe ff ff 	mov    %rax,-0x1c0(%rbp)
    a925:	48 8d 05 24 57 01 00 	lea    0x15724(%rip),%rax        # 20050 <g_12>
    a92c:	48 89 85 48 fe ff ff 	mov    %rax,-0x1b8(%rbp)
    a933:	48 8d 85 90 f4 ff ff 	lea    -0xb70(%rbp),%rax
    a93a:	48 89 85 50 fe ff ff 	mov    %rax,-0x1b0(%rbp)
    a941:	48 8d 05 70 5d 01 00 	lea    0x15d70(%rip),%rax        # 206b8 <g_402>
    a948:	48 89 85 58 fe ff ff 	mov    %rax,-0x1a8(%rbp)
    a94f:	48 c7 85 60 fe ff ff 	movq   $0x0,-0x1a0(%rbp)
    a956:	00 00 00 00 
    a95a:	48 8d 85 88 f4 ff ff 	lea    -0xb78(%rbp),%rax
    a961:	48 89 85 68 fe ff ff 	mov    %rax,-0x198(%rbp)
    a968:	48 8d 05 49 5d 01 00 	lea    0x15d49(%rip),%rax        # 206b8 <g_402>
    a96f:	48 89 85 70 fe ff ff 	mov    %rax,-0x190(%rbp)
    a976:	48 c7 85 78 fe ff ff 	movq   $0x0,-0x188(%rbp)
    a97d:	00 00 00 00 
    a981:	48 c7 85 80 fe ff ff 	movq   $0x0,-0x180(%rbp)
    a988:	00 00 00 00 
    a98c:	48 8d 05 b1 56 01 00 	lea    0x156b1(%rip),%rax        # 20044 <g_5+0x14>
    a993:	48 89 85 88 fe ff ff 	mov    %rax,-0x178(%rbp)
    a99a:	48 8d 05 a3 56 01 00 	lea    0x156a3(%rip),%rax        # 20044 <g_5+0x14>
    a9a1:	48 89 85 90 fe ff ff 	mov    %rax,-0x170(%rbp)
    a9a8:	48 c7 85 98 fe ff ff 	movq   $0x0,-0x168(%rbp)
    a9af:	00 00 00 00 
    a9b3:	48 8d 85 88 f4 ff ff 	lea    -0xb78(%rbp),%rax
    a9ba:	48 89 85 a0 fe ff ff 	mov    %rax,-0x160(%rbp)
    a9c1:	48 8d 05 10 59 01 00 	lea    0x15910(%rip),%rax        # 202d8 <g_142>
    a9c8:	48 89 85 a8 fe ff ff 	mov    %rax,-0x158(%rbp)
    a9cf:	48 8d 85 a8 f5 ff ff 	lea    -0xa58(%rbp),%rax
    a9d6:	48 83 c0 04          	add    $0x4,%rax
    a9da:	48 89 85 b0 fe ff ff 	mov    %rax,-0x150(%rbp)
    a9e1:	48 8d 05 44 56 01 00 	lea    0x15644(%rip),%rax        # 2002c <g_2+0x4>
    a9e8:	48 89 85 b8 fe ff ff 	mov    %rax,-0x148(%rbp)
    a9ef:	48 8d 05 c2 cf 01 00 	lea    0x1cfc2(%rip),%rax        # 279b8 <g_29+0x8>
    a9f6:	48 89 85 c0 fe ff ff 	mov    %rax,-0x140(%rbp)
    a9fd:	48 c7 85 c8 fe ff ff 	movq   $0x0,-0x138(%rbp)
    aa04:	00 00 00 00 
    aa08:	48 8d 85 88 f4 ff ff 	lea    -0xb78(%rbp),%rax
    aa0f:	48 89 85 d0 fe ff ff 	mov    %rax,-0x130(%rbp)
    aa16:	48 8d 05 0b 56 01 00 	lea    0x1560b(%rip),%rax        # 20028 <g_2>
    aa1d:	48 89 85 d8 fe ff ff 	mov    %rax,-0x128(%rbp)
    aa24:	48 8d 05 49 57 01 00 	lea    0x15749(%rip),%rax        # 20174 <g_18>
    aa2b:	48 89 85 e0 fe ff ff 	mov    %rax,-0x120(%rbp)
    aa32:	48 8d 05 7b cf 01 00 	lea    0x1cf7b(%rip),%rax        # 279b4 <g_29+0x4>
    aa39:	48 89 85 e8 fe ff ff 	mov    %rax,-0x118(%rbp)
    aa40:	48 8d 85 0c f4 ff ff 	lea    -0xbf4(%rbp),%rax
    aa47:	48 89 85 f0 fe ff ff 	mov    %rax,-0x110(%rbp)
    aa4e:	48 8d 05 83 58 01 00 	lea    0x15883(%rip),%rax        # 202d8 <g_142>
    aa55:	48 89 85 f8 fe ff ff 	mov    %rax,-0x108(%rbp)
    aa5c:	48 8d 85 88 f4 ff ff 	lea    -0xb78(%rbp),%rax
    aa63:	48 89 85 00 ff ff ff 	mov    %rax,-0x100(%rbp)
    aa6a:	48 8d 85 0c f4 ff ff 	lea    -0xbf4(%rbp),%rax
    aa71:	48 89 85 08 ff ff ff 	mov    %rax,-0xf8(%rbp)
    aa78:	c7 85 64 f4 ff ff 01 	movl   $0x1,-0xb9c(%rbp)
    aa7f:	00 00 00 
    aa82:	48 8b 95 80 f4 ff ff 	mov    -0xb80(%rbp),%rdx
    aa89:	48 8b 85 38 f5 ff ff 	mov    -0xac8(%rbp),%rax
    aa90:	48 89 10             	mov    %rdx,(%rax)
    aa93:	48 8b 05 16 c4 01 00 	mov    0x1c416(%rip),%rax        # 26eb0 <g_871>
    aa9a:	48 8b 95 08 f7 ff ff 	mov    -0x8f8(%rbp),%rdx
    aaa1:	48 89 10             	mov    %rdx,(%rax)
    aaa4:	8b 85 0c f4 ff ff    	mov    -0xbf4(%rbp),%eax
    aaaa:	85 c0                	test   %eax,%eax
    aaac:	75 09                	jne    aab7 <func_58+0x23fe>
    aaae:	83 85 64 f4 ff ff 01 	addl   $0x1,-0xb9c(%rbp)
    aab5:	eb 01                	jmp    aab8 <func_58+0x23ff>
    aab7:	90                   	nop
    aab8:	8b 05 8a 59 01 00    	mov    0x1598a(%rip),%eax        # 20448 <g_262>
    aabe:	98                   	cwtl   
    aabf:	be 07 00 00 00       	mov    $0x7,%esi
    aac4:	89 c7                	mov    %eax,%edi
    aac6:	e8 e8 b8 ff ff       	callq  63b3 <safe_add_func_int16_t_s_s>
    aacb:	98                   	cwtl   
    aacc:	89 05 76 59 01 00    	mov    %eax,0x15976(%rip)        # 20448 <g_262>
    aad2:	8b 05 70 59 01 00    	mov    0x15970(%rip),%eax        # 20448 <g_262>
    aad8:	83 f8 03             	cmp    $0x3,%eax
    aadb:	0f 8f 75 f3 ff ff    	jg     9e56 <func_58+0x179d>
    aae1:	66 c7 05 0a 5b 01 00 	movw   $0x0,0x15b0a(%rip)        # 205f4 <g_368>
    aae8:	00 00 
    aaea:	e9 c9 01 00 00       	jmpq   acb8 <func_58+0x25ff>
    aaef:	48 c7 85 50 f8 ff ff 	movq   $0x0,-0x7b0(%rbp)
    aaf6:	00 00 00 00 
    aafa:	48 c7 85 58 f8 ff ff 	movq   $0x0,-0x7a8(%rbp)
    ab01:	00 00 00 00 
    ab05:	48 8d 05 cc 57 01 00 	lea    0x157cc(%rip),%rax        # 202d8 <g_142>
    ab0c:	48 89 85 60 f8 ff ff 	mov    %rax,-0x7a0(%rbp)
    ab13:	48 8d 05 36 55 01 00 	lea    0x15536(%rip),%rax        # 20050 <g_12>
    ab1a:	48 89 85 68 f8 ff ff 	mov    %rax,-0x798(%rbp)
    ab21:	48 c7 85 70 f8 ff ff 	movq   $0x0,-0x790(%rbp)
    ab28:	00 00 00 00 
    ab2c:	48 8d 05 fd 64 01 00 	lea    0x164fd(%rip),%rax        # 21030 <g_1462>
    ab33:	48 89 85 78 f8 ff ff 	mov    %rax,-0x788(%rbp)
    ab3a:	48 c7 85 80 f8 ff ff 	movq   $0x0,-0x780(%rbp)
    ab41:	00 00 00 00 
    ab45:	48 c7 85 88 f8 ff ff 	movq   $0x0,-0x778(%rbp)
    ab4c:	00 00 00 00 
    ab50:	48 8d 05 81 57 01 00 	lea    0x15781(%rip),%rax        # 202d8 <g_142>
    ab57:	48 89 85 90 f8 ff ff 	mov    %rax,-0x770(%rbp)
    ab5e:	48 8d 05 eb 54 01 00 	lea    0x154eb(%rip),%rax        # 20050 <g_12>
    ab65:	48 89 85 98 f8 ff ff 	mov    %rax,-0x768(%rbp)
    ab6c:	48 8d 05 65 57 01 00 	lea    0x15765(%rip),%rax        # 202d8 <g_142>
    ab73:	48 89 85 a0 f8 ff ff 	mov    %rax,-0x760(%rbp)
    ab7a:	48 c7 85 a8 f8 ff ff 	movq   $0x0,-0x758(%rbp)
    ab81:	00 00 00 00 
    ab85:	48 c7 85 b0 f8 ff ff 	movq   $0x0,-0x750(%rbp)
    ab8c:	00 00 00 00 
    ab90:	48 8d 05 b9 54 01 00 	lea    0x154b9(%rip),%rax        # 20050 <g_12>
    ab97:	48 89 85 b8 f8 ff ff 	mov    %rax,-0x748(%rbp)
    ab9e:	48 8d 05 33 57 01 00 	lea    0x15733(%rip),%rax        # 202d8 <g_142>
    aba5:	48 89 85 c0 f8 ff ff 	mov    %rax,-0x740(%rbp)
    abac:	48 c7 85 c8 f8 ff ff 	movq   $0x0,-0x738(%rbp)
    abb3:	00 00 00 00 
    abb7:	48 8d 05 92 54 01 00 	lea    0x15492(%rip),%rax        # 20050 <g_12>
    abbe:	48 89 85 d0 f8 ff ff 	mov    %rax,-0x730(%rbp)
    abc5:	48 8d 05 64 64 01 00 	lea    0x16464(%rip),%rax        # 21030 <g_1462>
    abcc:	48 89 85 d8 f8 ff ff 	mov    %rax,-0x728(%rbp)
    abd3:	48 8d 05 56 64 01 00 	lea    0x16456(%rip),%rax        # 21030 <g_1462>
    abda:	48 89 85 e0 f8 ff ff 	mov    %rax,-0x720(%rbp)
    abe1:	48 8d 05 68 54 01 00 	lea    0x15468(%rip),%rax        # 20050 <g_12>
    abe8:	48 89 85 e8 f8 ff ff 	mov    %rax,-0x718(%rbp)
    abef:	48 8d 05 e2 56 01 00 	lea    0x156e2(%rip),%rax        # 202d8 <g_142>
    abf6:	48 89 85 f0 f8 ff ff 	mov    %rax,-0x710(%rbp)
    abfd:	48 c7 85 f8 f8 ff ff 	movq   $0x0,-0x708(%rbp)
    ac04:	00 00 00 00 
    ac08:	48 8d 05 21 64 01 00 	lea    0x16421(%rip),%rax        # 21030 <g_1462>
    ac0f:	48 89 85 00 f9 ff ff 	mov    %rax,-0x700(%rbp)
    ac16:	48 c7 85 08 f9 ff ff 	movq   $0x0,-0x6f8(%rbp)
    ac1d:	00 00 00 00 
    ac21:	48 8d 05 28 54 01 00 	lea    0x15428(%rip),%rax        # 20050 <g_12>
    ac28:	48 89 85 10 f9 ff ff 	mov    %rax,-0x6f0(%rbp)
    ac2f:	48 c7 85 18 f9 ff ff 	movq   $0x0,-0x6e8(%rbp)
    ac36:	00 00 00 00 
    ac3a:	48 8d 05 97 56 01 00 	lea    0x15697(%rip),%rax        # 202d8 <g_142>
    ac41:	48 89 85 20 f9 ff ff 	mov    %rax,-0x6e0(%rbp)
    ac48:	48 c7 85 28 f9 ff ff 	movq   $0x0,-0x6d8(%rbp)
    ac4f:	00 00 00 00 
    ac53:	48 c7 85 30 f9 ff ff 	movq   $0x0,-0x6d0(%rbp)
    ac5a:	00 00 00 00 
    ac5e:	48 8d 05 cb 63 01 00 	lea    0x163cb(%rip),%rax        # 21030 <g_1462>
    ac65:	48 89 85 38 f9 ff ff 	mov    %rax,-0x6c8(%rbp)
    ac6c:	48 8d 05 65 56 01 00 	lea    0x15665(%rip),%rax        # 202d8 <g_142>
    ac73:	48 89 85 40 f9 ff ff 	mov    %rax,-0x6c0(%rbp)
    ac7a:	48 c7 85 48 f9 ff ff 	movq   $0x0,-0x6b8(%rbp)
    ac81:	00 00 00 00 
    ac85:	48 8b 05 d4 c0 01 00 	mov    0x1c0d4(%rip),%rax        # 26d60 <g_202>
    ac8c:	48 8d 95 fc f3 ff ff 	lea    -0xc04(%rbp),%rdx
    ac93:	48 89 10             	mov    %rdx,(%rax)
    ac96:	0f b7 85 a0 f5 ff ff 	movzwl -0xa60(%rbp),%eax
    ac9d:	83 e8 01             	sub    $0x1,%eax
    aca0:	66 89 85 a0 f5 ff ff 	mov    %ax,-0xa60(%rbp)
    aca7:	0f b7 05 46 59 01 00 	movzwl 0x15946(%rip),%eax        # 205f4 <g_368>
    acae:	83 c0 01             	add    $0x1,%eax
    acb1:	66 89 05 3c 59 01 00 	mov    %ax,0x1593c(%rip)        # 205f4 <g_368>
    acb8:	0f b7 05 35 59 01 00 	movzwl 0x15935(%rip),%eax        # 205f4 <g_368>
    acbf:	66 83 f8 29          	cmp    $0x29,%ax
    acc3:	0f 87 26 fe ff ff    	ja     aaef <func_58+0x2436>
    acc9:	66 c7 05 f6 cc 01 00 	movw   $0x0,0x1ccf6(%rip)        # 279c8 <g_359>
    acd0:	00 00 
    acd2:	e9 9c 00 00 00       	jmpq   ad73 <func_58+0x26ba>
    acd7:	c6 85 07 f4 ff ff ff 	movb   $0xff,-0xbf9(%rbp)
    acde:	48 8d 85 80 f4 ff ff 	lea    -0xb80(%rbp),%rax
    ace5:	48 89 85 50 f8 ff ff 	mov    %rax,-0x7b0(%rbp)
    acec:	48 8d 85 80 f4 ff ff 	lea    -0xb80(%rbp),%rax
    acf3:	48 89 85 58 f8 ff ff 	mov    %rax,-0x7a8(%rbp)
    acfa:	48 8d 85 80 f4 ff ff 	lea    -0xb80(%rbp),%rax
    ad01:	48 89 85 60 f8 ff ff 	mov    %rax,-0x7a0(%rbp)
    ad08:	48 8d 85 80 f4 ff ff 	lea    -0xb80(%rbp),%rax
    ad0f:	48 89 85 68 f8 ff ff 	mov    %rax,-0x798(%rbp)
    ad16:	48 8d 85 80 f4 ff ff 	lea    -0xb80(%rbp),%rax
    ad1d:	48 89 85 70 f8 ff ff 	mov    %rax,-0x790(%rbp)
    ad24:	48 8d 85 80 f4 ff ff 	lea    -0xb80(%rbp),%rax
    ad2b:	48 89 85 78 f8 ff ff 	mov    %rax,-0x788(%rbp)
    ad32:	48 8d 85 80 f4 ff ff 	lea    -0xb80(%rbp),%rax
    ad39:	48 89 85 80 f8 ff ff 	mov    %rax,-0x780(%rbp)
    ad40:	48 8d 85 80 f4 ff ff 	lea    -0xb80(%rbp),%rax
    ad47:	48 89 85 88 f8 ff ff 	mov    %rax,-0x778(%rbp)
    ad4e:	80 bd 07 f4 ff ff 00 	cmpb   $0x0,-0xbf9(%rbp)
    ad55:	75 2f                	jne    ad86 <func_58+0x26cd>
    ad57:	48 c7 05 6e c7 01 00 	movq   $0x0,0x1c76e(%rip)        # 274d0 <g_1586>
    ad5e:	00 00 00 00 
    ad62:	0f b7 05 5f cc 01 00 	movzwl 0x1cc5f(%rip),%eax        # 279c8 <g_359>
    ad69:	83 c0 01             	add    $0x1,%eax
    ad6c:	66 89 05 55 cc 01 00 	mov    %ax,0x1cc55(%rip)        # 279c8 <g_359>
    ad73:	0f b7 05 4e cc 01 00 	movzwl 0x1cc4e(%rip),%eax        # 279c8 <g_359>
    ad7a:	66 83 f8 1c          	cmp    $0x1c,%ax
    ad7e:	0f 86 53 ff ff ff    	jbe    acd7 <func_58+0x261e>
    ad84:	eb 01                	jmp    ad87 <func_58+0x26ce>
    ad86:	90                   	nop
    ad87:	8b 05 fb 64 01 00    	mov    0x164fb(%rip),%eax        # 21288 <g_1591>
    ad8d:	83 e8 01             	sub    $0x1,%eax
    ad90:	89 05 f2 64 01 00    	mov    %eax,0x164f2(%rip)        # 21288 <g_1591>
    ad96:	eb 01                	jmp    ad99 <func_58+0x26e0>
    ad98:	90                   	nop
    ad99:	8b 05 1d 57 01 00    	mov    0x1571d(%rip),%eax        # 204bc <g_332>
    ad9f:	83 c0 01             	add    $0x1,%eax
    ada2:	89 05 14 57 01 00    	mov    %eax,0x15714(%rip)        # 204bc <g_332>
    ada8:	8b 05 0e 57 01 00    	mov    0x1570e(%rip),%eax        # 204bc <g_332>
    adae:	83 f8 1a             	cmp    $0x1a,%eax
    adb1:	0f 87 34 ec ff ff    	ja     99eb <func_58+0x1332>
    adb7:	e9 fa 13 00 00       	jmpq   c1b6 <func_58+0x3afd>
    adbc:	66 c7 85 08 f4 ff ff 	movw   $0x25b5,-0xbf8(%rbp)
    adc3:	b5 25 
    adc5:	48 c7 85 40 f7 ff ff 	movq   $0x0,-0x8c0(%rbp)
    adcc:	00 00 00 00 
    add0:	48 c7 85 48 f7 ff ff 	movq   $0x0,-0x8b8(%rbp)
    add7:	00 00 00 00 
    addb:	48 c7 85 50 f7 ff ff 	movq   $0x0,-0x8b0(%rbp)
    ade2:	00 00 00 00 
    ade6:	48 c7 85 58 f7 ff ff 	movq   $0x0,-0x8a8(%rbp)
    aded:	00 00 00 00 
    adf1:	48 c7 85 60 f7 ff ff 	movq   $0x0,-0x8a0(%rbp)
    adf8:	00 00 00 00 
    adfc:	48 c7 85 68 f7 ff ff 	movq   $0x0,-0x898(%rbp)
    ae03:	00 00 00 00 
    ae07:	48 c7 85 70 f7 ff ff 	movq   $0x0,-0x890(%rbp)
    ae0e:	00 00 00 00 
    ae12:	48 c7 85 78 f7 ff ff 	movq   $0x0,-0x888(%rbp)
    ae19:	00 00 00 00 
    ae1d:	48 c7 85 80 f7 ff ff 	movq   $0x0,-0x880(%rbp)
    ae24:	00 00 00 00 
    ae28:	48 c7 85 88 f7 ff ff 	movq   $0x0,-0x878(%rbp)
    ae2f:	00 00 00 00 
    ae33:	48 8d 05 e6 57 01 00 	lea    0x157e6(%rip),%rax        # 20620 <g_381>
    ae3a:	48 89 85 88 f4 ff ff 	mov    %rax,-0xb78(%rbp)
    ae41:	48 8d 85 88 f4 ff ff 	lea    -0xb78(%rbp),%rax
    ae48:	48 89 85 50 f8 ff ff 	mov    %rax,-0x7b0(%rbp)
    ae4f:	48 8d 85 88 f4 ff ff 	lea    -0xb78(%rbp),%rax
    ae56:	48 89 85 58 f8 ff ff 	mov    %rax,-0x7a8(%rbp)
    ae5d:	48 c7 85 60 f8 ff ff 	movq   $0x0,-0x7a0(%rbp)
    ae64:	00 00 00 00 
    ae68:	48 8d 85 88 f4 ff ff 	lea    -0xb78(%rbp),%rax
    ae6f:	48 89 85 68 f8 ff ff 	mov    %rax,-0x798(%rbp)
    ae76:	48 8d 85 88 f4 ff ff 	lea    -0xb78(%rbp),%rax
    ae7d:	48 89 85 70 f8 ff ff 	mov    %rax,-0x790(%rbp)
    ae84:	48 c7 85 78 f8 ff ff 	movq   $0x0,-0x788(%rbp)
    ae8b:	00 00 00 00 
    ae8f:	48 c7 85 80 f8 ff ff 	movq   $0x0,-0x780(%rbp)
    ae96:	00 00 00 00 
    ae9a:	48 8d 85 88 f4 ff ff 	lea    -0xb78(%rbp),%rax
    aea1:	48 89 85 88 f8 ff ff 	mov    %rax,-0x778(%rbp)
    aea8:	48 8d 85 88 f4 ff ff 	lea    -0xb78(%rbp),%rax
    aeaf:	48 89 85 90 f8 ff ff 	mov    %rax,-0x770(%rbp)
    aeb6:	48 c7 85 98 f8 ff ff 	movq   $0x0,-0x768(%rbp)
    aebd:	00 00 00 00 
    aec1:	48 8d 85 88 f4 ff ff 	lea    -0xb78(%rbp),%rax
    aec8:	48 89 85 a0 f8 ff ff 	mov    %rax,-0x760(%rbp)
    aecf:	48 8d 85 88 f4 ff ff 	lea    -0xb78(%rbp),%rax
    aed6:	48 89 85 a8 f8 ff ff 	mov    %rax,-0x758(%rbp)
    aedd:	48 8d 85 88 f4 ff ff 	lea    -0xb78(%rbp),%rax
    aee4:	48 89 85 b0 f8 ff ff 	mov    %rax,-0x750(%rbp)
    aeeb:	48 8d 85 88 f4 ff ff 	lea    -0xb78(%rbp),%rax
    aef2:	48 89 85 b8 f8 ff ff 	mov    %rax,-0x748(%rbp)
    aef9:	48 8d 85 88 f4 ff ff 	lea    -0xb78(%rbp),%rax
    af00:	48 89 85 c0 f8 ff ff 	mov    %rax,-0x740(%rbp)
    af07:	48 8d 85 88 f4 ff ff 	lea    -0xb78(%rbp),%rax
    af0e:	48 89 85 c8 f8 ff ff 	mov    %rax,-0x738(%rbp)
    af15:	48 8d 85 88 f4 ff ff 	lea    -0xb78(%rbp),%rax
    af1c:	48 89 85 d0 f8 ff ff 	mov    %rax,-0x730(%rbp)
    af23:	48 8d 85 88 f4 ff ff 	lea    -0xb78(%rbp),%rax
    af2a:	48 89 85 d8 f8 ff ff 	mov    %rax,-0x728(%rbp)
    af31:	48 8d 85 88 f4 ff ff 	lea    -0xb78(%rbp),%rax
    af38:	48 89 85 e0 f8 ff ff 	mov    %rax,-0x720(%rbp)
    af3f:	48 8d 85 88 f4 ff ff 	lea    -0xb78(%rbp),%rax
    af46:	48 89 85 e8 f8 ff ff 	mov    %rax,-0x718(%rbp)
    af4d:	48 8d 85 88 f4 ff ff 	lea    -0xb78(%rbp),%rax
    af54:	48 89 85 f0 f8 ff ff 	mov    %rax,-0x710(%rbp)
    af5b:	48 8d 85 88 f4 ff ff 	lea    -0xb78(%rbp),%rax
    af62:	48 89 85 f8 f8 ff ff 	mov    %rax,-0x708(%rbp)
    af69:	48 c7 85 00 f9 ff ff 	movq   $0x0,-0x700(%rbp)
    af70:	00 00 00 00 
    af74:	48 c7 85 08 f9 ff ff 	movq   $0x0,-0x6f8(%rbp)
    af7b:	00 00 00 00 
    af7f:	48 8d 85 88 f4 ff ff 	lea    -0xb78(%rbp),%rax
    af86:	48 89 85 10 f9 ff ff 	mov    %rax,-0x6f0(%rbp)
    af8d:	48 8d 85 88 f4 ff ff 	lea    -0xb78(%rbp),%rax
    af94:	48 89 85 18 f9 ff ff 	mov    %rax,-0x6e8(%rbp)
    af9b:	48 8d 85 88 f4 ff ff 	lea    -0xb78(%rbp),%rax
    afa2:	48 89 85 20 f9 ff ff 	mov    %rax,-0x6e0(%rbp)
    afa9:	48 8d 85 88 f4 ff ff 	lea    -0xb78(%rbp),%rax
    afb0:	48 89 85 28 f9 ff ff 	mov    %rax,-0x6d8(%rbp)
    afb7:	48 8d 85 88 f4 ff ff 	lea    -0xb78(%rbp),%rax
    afbe:	48 89 85 30 f9 ff ff 	mov    %rax,-0x6d0(%rbp)
    afc5:	48 8d 85 88 f4 ff ff 	lea    -0xb78(%rbp),%rax
    afcc:	48 89 85 38 f9 ff ff 	mov    %rax,-0x6c8(%rbp)
    afd3:	48 8d 85 88 f4 ff ff 	lea    -0xb78(%rbp),%rax
    afda:	48 89 85 40 f9 ff ff 	mov    %rax,-0x6c0(%rbp)
    afe1:	48 8d 85 88 f4 ff ff 	lea    -0xb78(%rbp),%rax
    afe8:	48 89 85 48 f9 ff ff 	mov    %rax,-0x6b8(%rbp)
    afef:	48 c7 85 50 f9 ff ff 	movq   $0x0,-0x6b0(%rbp)
    aff6:	00 00 00 00 
    affa:	48 8d 85 88 f4 ff ff 	lea    -0xb78(%rbp),%rax
    b001:	48 89 85 58 f9 ff ff 	mov    %rax,-0x6a8(%rbp)
    b008:	48 8d 85 88 f4 ff ff 	lea    -0xb78(%rbp),%rax
    b00f:	48 89 85 60 f9 ff ff 	mov    %rax,-0x6a0(%rbp)
    b016:	48 8d 85 88 f4 ff ff 	lea    -0xb78(%rbp),%rax
    b01d:	48 89 85 68 f9 ff ff 	mov    %rax,-0x698(%rbp)
    b024:	48 8d 85 88 f4 ff ff 	lea    -0xb78(%rbp),%rax
    b02b:	48 89 85 70 f9 ff ff 	mov    %rax,-0x690(%rbp)
    b032:	48 c7 85 78 f9 ff ff 	movq   $0x0,-0x688(%rbp)
    b039:	00 00 00 00 
    b03d:	48 8d 85 88 f4 ff ff 	lea    -0xb78(%rbp),%rax
    b044:	48 89 85 80 f9 ff ff 	mov    %rax,-0x680(%rbp)
    b04b:	48 8d 85 88 f4 ff ff 	lea    -0xb78(%rbp),%rax
    b052:	48 89 85 88 f9 ff ff 	mov    %rax,-0x678(%rbp)
    b059:	48 8d 85 88 f4 ff ff 	lea    -0xb78(%rbp),%rax
    b060:	48 89 85 90 f9 ff ff 	mov    %rax,-0x670(%rbp)
    b067:	48 8d 85 88 f4 ff ff 	lea    -0xb78(%rbp),%rax
    b06e:	48 89 85 98 f9 ff ff 	mov    %rax,-0x668(%rbp)
    b075:	48 8d 85 88 f4 ff ff 	lea    -0xb78(%rbp),%rax
    b07c:	48 89 85 a0 f9 ff ff 	mov    %rax,-0x660(%rbp)
    b083:	48 8d 85 88 f4 ff ff 	lea    -0xb78(%rbp),%rax
    b08a:	48 89 85 a8 f9 ff ff 	mov    %rax,-0x658(%rbp)
    b091:	48 8d 85 88 f4 ff ff 	lea    -0xb78(%rbp),%rax
    b098:	48 89 85 b0 f9 ff ff 	mov    %rax,-0x650(%rbp)
    b09f:	48 c7 85 b8 f9 ff ff 	movq   $0x0,-0x648(%rbp)
    b0a6:	00 00 00 00 
    b0aa:	48 c7 85 c0 f9 ff ff 	movq   $0x0,-0x640(%rbp)
    b0b1:	00 00 00 00 
    b0b5:	48 8d 85 88 f4 ff ff 	lea    -0xb78(%rbp),%rax
    b0bc:	48 89 85 c8 f9 ff ff 	mov    %rax,-0x638(%rbp)
    b0c3:	48 c7 85 d0 f9 ff ff 	movq   $0x0,-0x630(%rbp)
    b0ca:	00 00 00 00 
    b0ce:	48 8d 85 88 f4 ff ff 	lea    -0xb78(%rbp),%rax
    b0d5:	48 89 85 d8 f9 ff ff 	mov    %rax,-0x628(%rbp)
    b0dc:	48 8d 85 88 f4 ff ff 	lea    -0xb78(%rbp),%rax
    b0e3:	48 89 85 e0 f9 ff ff 	mov    %rax,-0x620(%rbp)
    b0ea:	48 8d 85 88 f4 ff ff 	lea    -0xb78(%rbp),%rax
    b0f1:	48 89 85 e8 f9 ff ff 	mov    %rax,-0x618(%rbp)
    b0f8:	48 8d 85 88 f4 ff ff 	lea    -0xb78(%rbp),%rax
    b0ff:	48 89 85 f0 f9 ff ff 	mov    %rax,-0x610(%rbp)
    b106:	48 8d 85 88 f4 ff ff 	lea    -0xb78(%rbp),%rax
    b10d:	48 89 85 f8 f9 ff ff 	mov    %rax,-0x608(%rbp)
    b114:	48 8d 85 88 f4 ff ff 	lea    -0xb78(%rbp),%rax
    b11b:	48 89 85 00 fa ff ff 	mov    %rax,-0x600(%rbp)
    b122:	48 c7 85 08 fa ff ff 	movq   $0x0,-0x5f8(%rbp)
    b129:	00 00 00 00 
    b12d:	48 c7 85 10 fa ff ff 	movq   $0x0,-0x5f0(%rbp)
    b134:	00 00 00 00 
    b138:	48 8d 85 88 f4 ff ff 	lea    -0xb78(%rbp),%rax
    b13f:	48 89 85 18 fa ff ff 	mov    %rax,-0x5e8(%rbp)
    b146:	48 8d 85 88 f4 ff ff 	lea    -0xb78(%rbp),%rax
    b14d:	48 89 85 20 fa ff ff 	mov    %rax,-0x5e0(%rbp)
    b154:	48 8d 85 88 f4 ff ff 	lea    -0xb78(%rbp),%rax
    b15b:	48 89 85 28 fa ff ff 	mov    %rax,-0x5d8(%rbp)
    b162:	48 c7 85 30 fa ff ff 	movq   $0x0,-0x5d0(%rbp)
    b169:	00 00 00 00 
    b16d:	48 8d 85 88 f4 ff ff 	lea    -0xb78(%rbp),%rax
    b174:	48 89 85 38 fa ff ff 	mov    %rax,-0x5c8(%rbp)
    b17b:	48 8d 85 88 f4 ff ff 	lea    -0xb78(%rbp),%rax
    b182:	48 89 85 40 fa ff ff 	mov    %rax,-0x5c0(%rbp)
    b189:	48 c7 85 48 fa ff ff 	movq   $0x0,-0x5b8(%rbp)
    b190:	00 00 00 00 
    b194:	48 8d 85 88 f4 ff ff 	lea    -0xb78(%rbp),%rax
    b19b:	48 89 85 50 fa ff ff 	mov    %rax,-0x5b0(%rbp)
    b1a2:	48 c7 85 58 fa ff ff 	movq   $0x0,-0x5a8(%rbp)
    b1a9:	00 00 00 00 
    b1ad:	48 8d 85 88 f4 ff ff 	lea    -0xb78(%rbp),%rax
    b1b4:	48 89 85 60 fa ff ff 	mov    %rax,-0x5a0(%rbp)
    b1bb:	48 8d 85 88 f4 ff ff 	lea    -0xb78(%rbp),%rax
    b1c2:	48 89 85 68 fa ff ff 	mov    %rax,-0x598(%rbp)
    b1c9:	48 8d 85 88 f4 ff ff 	lea    -0xb78(%rbp),%rax
    b1d0:	48 89 85 70 fa ff ff 	mov    %rax,-0x590(%rbp)
    b1d7:	48 8d 85 88 f4 ff ff 	lea    -0xb78(%rbp),%rax
    b1de:	48 89 85 78 fa ff ff 	mov    %rax,-0x588(%rbp)
    b1e5:	48 c7 85 80 fa ff ff 	movq   $0x0,-0x580(%rbp)
    b1ec:	00 00 00 00 
    b1f0:	48 c7 85 88 fa ff ff 	movq   $0x0,-0x578(%rbp)
    b1f7:	00 00 00 00 
    b1fb:	48 c7 85 90 fa ff ff 	movq   $0x0,-0x570(%rbp)
    b202:	00 00 00 00 
    b206:	48 8d 85 88 f4 ff ff 	lea    -0xb78(%rbp),%rax
    b20d:	48 89 85 98 fa ff ff 	mov    %rax,-0x568(%rbp)
    b214:	48 8d 85 88 f4 ff ff 	lea    -0xb78(%rbp),%rax
    b21b:	48 89 85 a0 fa ff ff 	mov    %rax,-0x560(%rbp)
    b222:	48 8d 85 88 f4 ff ff 	lea    -0xb78(%rbp),%rax
    b229:	48 89 85 a8 fa ff ff 	mov    %rax,-0x558(%rbp)
    b230:	48 8d 85 88 f4 ff ff 	lea    -0xb78(%rbp),%rax
    b237:	48 89 85 b0 fa ff ff 	mov    %rax,-0x550(%rbp)
    b23e:	48 8d 85 88 f4 ff ff 	lea    -0xb78(%rbp),%rax
    b245:	48 89 85 b8 fa ff ff 	mov    %rax,-0x548(%rbp)
    b24c:	48 c7 85 c0 fa ff ff 	movq   $0x0,-0x540(%rbp)
    b253:	00 00 00 00 
    b257:	48 8d 85 88 f4 ff ff 	lea    -0xb78(%rbp),%rax
    b25e:	48 89 85 c8 fa ff ff 	mov    %rax,-0x538(%rbp)
    b265:	48 8d 85 88 f4 ff ff 	lea    -0xb78(%rbp),%rax
    b26c:	48 89 85 d0 fa ff ff 	mov    %rax,-0x530(%rbp)
    b273:	48 8d 85 88 f4 ff ff 	lea    -0xb78(%rbp),%rax
    b27a:	48 89 85 d8 fa ff ff 	mov    %rax,-0x528(%rbp)
    b281:	48 8d 85 88 f4 ff ff 	lea    -0xb78(%rbp),%rax
    b288:	48 89 85 e0 fa ff ff 	mov    %rax,-0x520(%rbp)
    b28f:	48 8d 85 88 f4 ff ff 	lea    -0xb78(%rbp),%rax
    b296:	48 89 85 e8 fa ff ff 	mov    %rax,-0x518(%rbp)
    b29d:	48 c7 85 f0 fa ff ff 	movq   $0x0,-0x510(%rbp)
    b2a4:	00 00 00 00 
    b2a8:	48 c7 85 f8 fa ff ff 	movq   $0x0,-0x508(%rbp)
    b2af:	00 00 00 00 
    b2b3:	48 8d 85 88 f4 ff ff 	lea    -0xb78(%rbp),%rax
    b2ba:	48 89 85 00 fb ff ff 	mov    %rax,-0x500(%rbp)
    b2c1:	48 8d 85 88 f4 ff ff 	lea    -0xb78(%rbp),%rax
    b2c8:	48 89 85 08 fb ff ff 	mov    %rax,-0x4f8(%rbp)
    b2cf:	48 c7 85 10 fb ff ff 	movq   $0x0,-0x4f0(%rbp)
    b2d6:	00 00 00 00 
    b2da:	48 8d 85 88 f4 ff ff 	lea    -0xb78(%rbp),%rax
    b2e1:	48 89 85 18 fb ff ff 	mov    %rax,-0x4e8(%rbp)
    b2e8:	48 8d 85 88 f4 ff ff 	lea    -0xb78(%rbp),%rax
    b2ef:	48 89 85 20 fb ff ff 	mov    %rax,-0x4e0(%rbp)
    b2f6:	48 c7 85 28 fb ff ff 	movq   $0x0,-0x4d8(%rbp)
    b2fd:	00 00 00 00 
    b301:	48 c7 85 30 fb ff ff 	movq   $0x0,-0x4d0(%rbp)
    b308:	00 00 00 00 
    b30c:	48 c7 85 38 fb ff ff 	movq   $0x0,-0x4c8(%rbp)
    b313:	00 00 00 00 
    b317:	48 8d 85 88 f4 ff ff 	lea    -0xb78(%rbp),%rax
    b31e:	48 89 85 40 fb ff ff 	mov    %rax,-0x4c0(%rbp)
    b325:	48 c7 85 48 fb ff ff 	movq   $0x0,-0x4b8(%rbp)
    b32c:	00 00 00 00 
    b330:	48 8d 85 88 f4 ff ff 	lea    -0xb78(%rbp),%rax
    b337:	48 89 85 50 fb ff ff 	mov    %rax,-0x4b0(%rbp)
    b33e:	48 8d 85 88 f4 ff ff 	lea    -0xb78(%rbp),%rax
    b345:	48 89 85 58 fb ff ff 	mov    %rax,-0x4a8(%rbp)
    b34c:	48 c7 85 60 fb ff ff 	movq   $0x0,-0x4a0(%rbp)
    b353:	00 00 00 00 
    b357:	48 8d 85 88 f4 ff ff 	lea    -0xb78(%rbp),%rax
    b35e:	48 89 85 68 fb ff ff 	mov    %rax,-0x498(%rbp)
    b365:	48 c7 85 70 fb ff ff 	movq   $0x0,-0x490(%rbp)
    b36c:	00 00 00 00 
    b370:	48 8d 85 88 f4 ff ff 	lea    -0xb78(%rbp),%rax
    b377:	48 89 85 78 fb ff ff 	mov    %rax,-0x488(%rbp)
    b37e:	48 8d 85 88 f4 ff ff 	lea    -0xb78(%rbp),%rax
    b385:	48 89 85 80 fb ff ff 	mov    %rax,-0x480(%rbp)
    b38c:	48 c7 85 88 fb ff ff 	movq   $0x0,-0x478(%rbp)
    b393:	00 00 00 00 
    b397:	48 8d 85 88 f4 ff ff 	lea    -0xb78(%rbp),%rax
    b39e:	48 89 85 90 fb ff ff 	mov    %rax,-0x470(%rbp)
    b3a5:	48 8d 85 88 f4 ff ff 	lea    -0xb78(%rbp),%rax
    b3ac:	48 89 85 98 fb ff ff 	mov    %rax,-0x468(%rbp)
    b3b3:	48 8d 85 88 f4 ff ff 	lea    -0xb78(%rbp),%rax
    b3ba:	48 89 85 a0 fb ff ff 	mov    %rax,-0x460(%rbp)
    b3c1:	48 8d 85 88 f4 ff ff 	lea    -0xb78(%rbp),%rax
    b3c8:	48 89 85 a8 fb ff ff 	mov    %rax,-0x458(%rbp)
    b3cf:	48 8d 85 88 f4 ff ff 	lea    -0xb78(%rbp),%rax
    b3d6:	48 89 85 b0 fb ff ff 	mov    %rax,-0x450(%rbp)
    b3dd:	48 8d 85 88 f4 ff ff 	lea    -0xb78(%rbp),%rax
    b3e4:	48 89 85 b8 fb ff ff 	mov    %rax,-0x448(%rbp)
    b3eb:	48 8d 85 88 f4 ff ff 	lea    -0xb78(%rbp),%rax
    b3f2:	48 89 85 c0 fb ff ff 	mov    %rax,-0x440(%rbp)
    b3f9:	48 8d 85 88 f4 ff ff 	lea    -0xb78(%rbp),%rax
    b400:	48 89 85 c8 fb ff ff 	mov    %rax,-0x438(%rbp)
    b407:	48 8d 85 88 f4 ff ff 	lea    -0xb78(%rbp),%rax
    b40e:	48 89 85 d0 fb ff ff 	mov    %rax,-0x430(%rbp)
    b415:	48 8d 85 88 f4 ff ff 	lea    -0xb78(%rbp),%rax
    b41c:	48 89 85 d8 fb ff ff 	mov    %rax,-0x428(%rbp)
    b423:	48 8d 85 88 f4 ff ff 	lea    -0xb78(%rbp),%rax
    b42a:	48 89 85 e0 fb ff ff 	mov    %rax,-0x420(%rbp)
    b431:	48 8d 85 88 f4 ff ff 	lea    -0xb78(%rbp),%rax
    b438:	48 89 85 e8 fb ff ff 	mov    %rax,-0x418(%rbp)
    b43f:	48 8d 85 88 f4 ff ff 	lea    -0xb78(%rbp),%rax
    b446:	48 89 85 f0 fb ff ff 	mov    %rax,-0x410(%rbp)
    b44d:	48 c7 85 f8 fb ff ff 	movq   $0x0,-0x408(%rbp)
    b454:	00 00 00 00 
    b458:	48 8d 85 88 f4 ff ff 	lea    -0xb78(%rbp),%rax
    b45f:	48 89 85 00 fc ff ff 	mov    %rax,-0x400(%rbp)
    b466:	48 c7 85 08 fc ff ff 	movq   $0x0,-0x3f8(%rbp)
    b46d:	00 00 00 00 
    b471:	48 8d 85 88 f4 ff ff 	lea    -0xb78(%rbp),%rax
    b478:	48 89 85 10 fc ff ff 	mov    %rax,-0x3f0(%rbp)
    b47f:	48 c7 85 18 fc ff ff 	movq   $0x0,-0x3e8(%rbp)
    b486:	00 00 00 00 
    b48a:	48 8d 85 88 f4 ff ff 	lea    -0xb78(%rbp),%rax
    b491:	48 89 85 20 fc ff ff 	mov    %rax,-0x3e0(%rbp)
    b498:	48 c7 85 28 fc ff ff 	movq   $0x0,-0x3d8(%rbp)
    b49f:	00 00 00 00 
    b4a3:	48 c7 85 30 fc ff ff 	movq   $0x0,-0x3d0(%rbp)
    b4aa:	00 00 00 00 
    b4ae:	48 8d 85 88 f4 ff ff 	lea    -0xb78(%rbp),%rax
    b4b5:	48 89 85 38 fc ff ff 	mov    %rax,-0x3c8(%rbp)
    b4bc:	48 8d 85 88 f4 ff ff 	lea    -0xb78(%rbp),%rax
    b4c3:	48 89 85 40 fc ff ff 	mov    %rax,-0x3c0(%rbp)
    b4ca:	48 8d 85 88 f4 ff ff 	lea    -0xb78(%rbp),%rax
    b4d1:	48 89 85 48 fc ff ff 	mov    %rax,-0x3b8(%rbp)
    b4d8:	48 8d 85 88 f4 ff ff 	lea    -0xb78(%rbp),%rax
    b4df:	48 89 85 50 fc ff ff 	mov    %rax,-0x3b0(%rbp)
    b4e6:	48 8d 85 88 f4 ff ff 	lea    -0xb78(%rbp),%rax
    b4ed:	48 89 85 58 fc ff ff 	mov    %rax,-0x3a8(%rbp)
    b4f4:	48 8d 85 88 f4 ff ff 	lea    -0xb78(%rbp),%rax
    b4fb:	48 89 85 60 fc ff ff 	mov    %rax,-0x3a0(%rbp)
    b502:	48 c7 85 68 fc ff ff 	movq   $0x0,-0x398(%rbp)
    b509:	00 00 00 00 
    b50d:	48 8d 85 88 f4 ff ff 	lea    -0xb78(%rbp),%rax
    b514:	48 89 85 70 fc ff ff 	mov    %rax,-0x390(%rbp)
    b51b:	48 c7 85 78 fc ff ff 	movq   $0x0,-0x388(%rbp)
    b522:	00 00 00 00 
    b526:	48 8d 85 88 f4 ff ff 	lea    -0xb78(%rbp),%rax
    b52d:	48 89 85 80 fc ff ff 	mov    %rax,-0x380(%rbp)
    b534:	48 c7 85 88 fc ff ff 	movq   $0x0,-0x378(%rbp)
    b53b:	00 00 00 00 
    b53f:	48 c7 85 90 fc ff ff 	movq   $0x0,-0x370(%rbp)
    b546:	00 00 00 00 
    b54a:	48 8d 85 88 f4 ff ff 	lea    -0xb78(%rbp),%rax
    b551:	48 89 85 98 fc ff ff 	mov    %rax,-0x368(%rbp)
    b558:	48 8d 85 88 f4 ff ff 	lea    -0xb78(%rbp),%rax
    b55f:	48 89 85 a0 fc ff ff 	mov    %rax,-0x360(%rbp)
    b566:	48 c7 85 a8 fc ff ff 	movq   $0x0,-0x358(%rbp)
    b56d:	00 00 00 00 
    b571:	48 8d 85 88 f4 ff ff 	lea    -0xb78(%rbp),%rax
    b578:	48 89 85 b0 fc ff ff 	mov    %rax,-0x350(%rbp)
    b57f:	48 c7 85 b8 fc ff ff 	movq   $0x0,-0x348(%rbp)
    b586:	00 00 00 00 
    b58a:	48 8d 85 88 f4 ff ff 	lea    -0xb78(%rbp),%rax
    b591:	48 89 85 c0 fc ff ff 	mov    %rax,-0x340(%rbp)
    b598:	48 c7 85 c8 fc ff ff 	movq   $0x0,-0x338(%rbp)
    b59f:	00 00 00 00 
    b5a3:	48 8d 85 88 f4 ff ff 	lea    -0xb78(%rbp),%rax
    b5aa:	48 89 85 d0 fc ff ff 	mov    %rax,-0x330(%rbp)
    b5b1:	48 8d 85 88 f4 ff ff 	lea    -0xb78(%rbp),%rax
    b5b8:	48 89 85 d8 fc ff ff 	mov    %rax,-0x328(%rbp)
    b5bf:	48 8d 85 88 f4 ff ff 	lea    -0xb78(%rbp),%rax
    b5c6:	48 89 85 e0 fc ff ff 	mov    %rax,-0x320(%rbp)
    b5cd:	48 8d 85 88 f4 ff ff 	lea    -0xb78(%rbp),%rax
    b5d4:	48 89 85 e8 fc ff ff 	mov    %rax,-0x318(%rbp)
    b5db:	48 8d 85 88 f4 ff ff 	lea    -0xb78(%rbp),%rax
    b5e2:	48 89 85 f0 fc ff ff 	mov    %rax,-0x310(%rbp)
    b5e9:	48 c7 85 f8 fc ff ff 	movq   $0x0,-0x308(%rbp)
    b5f0:	00 00 00 00 
    b5f4:	48 8d 85 88 f4 ff ff 	lea    -0xb78(%rbp),%rax
    b5fb:	48 89 85 00 fd ff ff 	mov    %rax,-0x300(%rbp)
    b602:	48 8d 85 88 f4 ff ff 	lea    -0xb78(%rbp),%rax
    b609:	48 89 85 08 fd ff ff 	mov    %rax,-0x2f8(%rbp)
    b610:	48 8d 85 88 f4 ff ff 	lea    -0xb78(%rbp),%rax
    b617:	48 89 85 10 fd ff ff 	mov    %rax,-0x2f0(%rbp)
    b61e:	48 8d 85 88 f4 ff ff 	lea    -0xb78(%rbp),%rax
    b625:	48 89 85 18 fd ff ff 	mov    %rax,-0x2e8(%rbp)
    b62c:	48 c7 85 20 fd ff ff 	movq   $0x0,-0x2e0(%rbp)
    b633:	00 00 00 00 
    b637:	48 8d 85 88 f4 ff ff 	lea    -0xb78(%rbp),%rax
    b63e:	48 89 85 28 fd ff ff 	mov    %rax,-0x2d8(%rbp)
    b645:	48 8d 85 88 f4 ff ff 	lea    -0xb78(%rbp),%rax
    b64c:	48 89 85 30 fd ff ff 	mov    %rax,-0x2d0(%rbp)
    b653:	48 8d 85 88 f4 ff ff 	lea    -0xb78(%rbp),%rax
    b65a:	48 89 85 38 fd ff ff 	mov    %rax,-0x2c8(%rbp)
    b661:	48 8d 85 88 f4 ff ff 	lea    -0xb78(%rbp),%rax
    b668:	48 89 85 40 fd ff ff 	mov    %rax,-0x2c0(%rbp)
    b66f:	48 8d 85 88 f4 ff ff 	lea    -0xb78(%rbp),%rax
    b676:	48 89 85 48 fd ff ff 	mov    %rax,-0x2b8(%rbp)
    b67d:	48 c7 85 50 fd ff ff 	movq   $0x0,-0x2b0(%rbp)
    b684:	00 00 00 00 
    b688:	48 c7 85 58 fd ff ff 	movq   $0x0,-0x2a8(%rbp)
    b68f:	00 00 00 00 
    b693:	48 8d 85 88 f4 ff ff 	lea    -0xb78(%rbp),%rax
    b69a:	48 89 85 60 fd ff ff 	mov    %rax,-0x2a0(%rbp)
    b6a1:	48 8d 85 88 f4 ff ff 	lea    -0xb78(%rbp),%rax
    b6a8:	48 89 85 68 fd ff ff 	mov    %rax,-0x298(%rbp)
    b6af:	48 8d 85 88 f4 ff ff 	lea    -0xb78(%rbp),%rax
    b6b6:	48 89 85 70 fd ff ff 	mov    %rax,-0x290(%rbp)
    b6bd:	48 c7 85 78 fd ff ff 	movq   $0x0,-0x288(%rbp)
    b6c4:	00 00 00 00 
    b6c8:	48 c7 85 80 fd ff ff 	movq   $0x0,-0x280(%rbp)
    b6cf:	00 00 00 00 
    b6d3:	48 8d 85 88 f4 ff ff 	lea    -0xb78(%rbp),%rax
    b6da:	48 89 85 88 fd ff ff 	mov    %rax,-0x278(%rbp)
    b6e1:	48 8d 85 88 f4 ff ff 	lea    -0xb78(%rbp),%rax
    b6e8:	48 89 85 90 fd ff ff 	mov    %rax,-0x270(%rbp)
    b6ef:	48 8d 85 88 f4 ff ff 	lea    -0xb78(%rbp),%rax
    b6f6:	48 89 85 98 fd ff ff 	mov    %rax,-0x268(%rbp)
    b6fd:	48 8d 85 88 f4 ff ff 	lea    -0xb78(%rbp),%rax
    b704:	48 89 85 a0 fd ff ff 	mov    %rax,-0x260(%rbp)
    b70b:	48 8d 85 88 f4 ff ff 	lea    -0xb78(%rbp),%rax
    b712:	48 89 85 a8 fd ff ff 	mov    %rax,-0x258(%rbp)
    b719:	48 c7 85 b0 fd ff ff 	movq   $0x0,-0x250(%rbp)
    b720:	00 00 00 00 
    b724:	48 c7 85 b8 fd ff ff 	movq   $0x0,-0x248(%rbp)
    b72b:	00 00 00 00 
    b72f:	48 c7 85 c0 fd ff ff 	movq   $0x0,-0x240(%rbp)
    b736:	00 00 00 00 
    b73a:	48 8d 85 88 f4 ff ff 	lea    -0xb78(%rbp),%rax
    b741:	48 89 85 c8 fd ff ff 	mov    %rax,-0x238(%rbp)
    b748:	48 8d 85 88 f4 ff ff 	lea    -0xb78(%rbp),%rax
    b74f:	48 89 85 d0 fd ff ff 	mov    %rax,-0x230(%rbp)
    b756:	48 8d 85 88 f4 ff ff 	lea    -0xb78(%rbp),%rax
    b75d:	48 89 85 d8 fd ff ff 	mov    %rax,-0x228(%rbp)
    b764:	48 8d 85 88 f4 ff ff 	lea    -0xb78(%rbp),%rax
    b76b:	48 89 85 e0 fd ff ff 	mov    %rax,-0x220(%rbp)
    b772:	48 8d 85 88 f4 ff ff 	lea    -0xb78(%rbp),%rax
    b779:	48 89 85 e8 fd ff ff 	mov    %rax,-0x218(%rbp)
    b780:	48 c7 85 f0 fd ff ff 	movq   $0x0,-0x210(%rbp)
    b787:	00 00 00 00 
    b78b:	48 8d 85 88 f4 ff ff 	lea    -0xb78(%rbp),%rax
    b792:	48 89 85 f8 fd ff ff 	mov    %rax,-0x208(%rbp)
    b799:	48 8d 85 88 f4 ff ff 	lea    -0xb78(%rbp),%rax
    b7a0:	48 89 85 00 fe ff ff 	mov    %rax,-0x200(%rbp)
    b7a7:	48 8d 85 88 f4 ff ff 	lea    -0xb78(%rbp),%rax
    b7ae:	48 89 85 08 fe ff ff 	mov    %rax,-0x1f8(%rbp)
    b7b5:	48 8d 85 88 f4 ff ff 	lea    -0xb78(%rbp),%rax
    b7bc:	48 89 85 10 fe ff ff 	mov    %rax,-0x1f0(%rbp)
    b7c3:	48 8d 85 88 f4 ff ff 	lea    -0xb78(%rbp),%rax
    b7ca:	48 89 85 18 fe ff ff 	mov    %rax,-0x1e8(%rbp)
    b7d1:	48 c7 85 20 fe ff ff 	movq   $0x0,-0x1e0(%rbp)
    b7d8:	00 00 00 00 
    b7dc:	48 c7 85 28 fe ff ff 	movq   $0x0,-0x1d8(%rbp)
    b7e3:	00 00 00 00 
    b7e7:	48 8d 85 88 f4 ff ff 	lea    -0xb78(%rbp),%rax
    b7ee:	48 89 85 30 fe ff ff 	mov    %rax,-0x1d0(%rbp)
    b7f5:	48 8d 85 88 f4 ff ff 	lea    -0xb78(%rbp),%rax
    b7fc:	48 89 85 38 fe ff ff 	mov    %rax,-0x1c8(%rbp)
    b803:	48 c7 85 40 fe ff ff 	movq   $0x0,-0x1c0(%rbp)
    b80a:	00 00 00 00 
    b80e:	48 8d 85 88 f4 ff ff 	lea    -0xb78(%rbp),%rax
    b815:	48 89 85 48 fe ff ff 	mov    %rax,-0x1b8(%rbp)
    b81c:	48 8d 85 88 f4 ff ff 	lea    -0xb78(%rbp),%rax
    b823:	48 89 85 50 fe ff ff 	mov    %rax,-0x1b0(%rbp)
    b82a:	48 c7 85 58 fe ff ff 	movq   $0x0,-0x1a8(%rbp)
    b831:	00 00 00 00 
    b835:	48 c7 85 60 fe ff ff 	movq   $0x0,-0x1a0(%rbp)
    b83c:	00 00 00 00 
    b840:	48 c7 85 68 fe ff ff 	movq   $0x0,-0x198(%rbp)
    b847:	00 00 00 00 
    b84b:	48 8d 85 88 f4 ff ff 	lea    -0xb78(%rbp),%rax
    b852:	48 89 85 70 fe ff ff 	mov    %rax,-0x190(%rbp)
    b859:	48 c7 85 78 fe ff ff 	movq   $0x0,-0x188(%rbp)
    b860:	00 00 00 00 
    b864:	48 8d 85 88 f4 ff ff 	lea    -0xb78(%rbp),%rax
    b86b:	48 89 85 80 fe ff ff 	mov    %rax,-0x180(%rbp)
    b872:	48 8d 85 88 f4 ff ff 	lea    -0xb78(%rbp),%rax
    b879:	48 89 85 88 fe ff ff 	mov    %rax,-0x178(%rbp)
    b880:	48 c7 85 90 fe ff ff 	movq   $0x0,-0x170(%rbp)
    b887:	00 00 00 00 
    b88b:	48 8d 85 88 f4 ff ff 	lea    -0xb78(%rbp),%rax
    b892:	48 89 85 98 fe ff ff 	mov    %rax,-0x168(%rbp)
    b899:	48 c7 85 a0 fe ff ff 	movq   $0x0,-0x160(%rbp)
    b8a0:	00 00 00 00 
    b8a4:	48 8d 85 88 f4 ff ff 	lea    -0xb78(%rbp),%rax
    b8ab:	48 89 85 a8 fe ff ff 	mov    %rax,-0x158(%rbp)
    b8b2:	48 8d 85 88 f4 ff ff 	lea    -0xb78(%rbp),%rax
    b8b9:	48 89 85 b0 fe ff ff 	mov    %rax,-0x150(%rbp)
    b8c0:	48 c7 85 b8 fe ff ff 	movq   $0x0,-0x148(%rbp)
    b8c7:	00 00 00 00 
    b8cb:	48 8d 85 88 f4 ff ff 	lea    -0xb78(%rbp),%rax
    b8d2:	48 89 85 c0 fe ff ff 	mov    %rax,-0x140(%rbp)
    b8d9:	48 8d 85 88 f4 ff ff 	lea    -0xb78(%rbp),%rax
    b8e0:	48 89 85 c8 fe ff ff 	mov    %rax,-0x138(%rbp)
    b8e7:	48 8d 85 88 f4 ff ff 	lea    -0xb78(%rbp),%rax
    b8ee:	48 89 85 d0 fe ff ff 	mov    %rax,-0x130(%rbp)
    b8f5:	48 8d 85 88 f4 ff ff 	lea    -0xb78(%rbp),%rax
    b8fc:	48 89 85 d8 fe ff ff 	mov    %rax,-0x128(%rbp)
    b903:	48 8d 85 88 f4 ff ff 	lea    -0xb78(%rbp),%rax
    b90a:	48 89 85 e0 fe ff ff 	mov    %rax,-0x120(%rbp)
    b911:	48 8d 85 88 f4 ff ff 	lea    -0xb78(%rbp),%rax
    b918:	48 89 85 e8 fe ff ff 	mov    %rax,-0x118(%rbp)
    b91f:	48 8d 85 88 f4 ff ff 	lea    -0xb78(%rbp),%rax
    b926:	48 89 85 f0 fe ff ff 	mov    %rax,-0x110(%rbp)
    b92d:	48 8d 85 88 f4 ff ff 	lea    -0xb78(%rbp),%rax
    b934:	48 89 85 f8 fe ff ff 	mov    %rax,-0x108(%rbp)
    b93b:	48 8d 85 88 f4 ff ff 	lea    -0xb78(%rbp),%rax
    b942:	48 89 85 00 ff ff ff 	mov    %rax,-0x100(%rbp)
    b949:	48 8d 85 88 f4 ff ff 	lea    -0xb78(%rbp),%rax
    b950:	48 89 85 08 ff ff ff 	mov    %rax,-0xf8(%rbp)
    b957:	48 8d 85 88 f4 ff ff 	lea    -0xb78(%rbp),%rax
    b95e:	48 89 85 10 ff ff ff 	mov    %rax,-0xf0(%rbp)
    b965:	48 8d 85 88 f4 ff ff 	lea    -0xb78(%rbp),%rax
    b96c:	48 89 85 18 ff ff ff 	mov    %rax,-0xe8(%rbp)
    b973:	48 8d 85 88 f4 ff ff 	lea    -0xb78(%rbp),%rax
    b97a:	48 89 85 20 ff ff ff 	mov    %rax,-0xe0(%rbp)
    b981:	48 c7 85 28 ff ff ff 	movq   $0x0,-0xd8(%rbp)
    b988:	00 00 00 00 
    b98c:	48 8d 85 88 f4 ff ff 	lea    -0xb78(%rbp),%rax
    b993:	48 89 85 30 ff ff ff 	mov    %rax,-0xd0(%rbp)
    b99a:	48 c7 85 38 ff ff ff 	movq   $0x0,-0xc8(%rbp)
    b9a1:	00 00 00 00 
    b9a5:	48 8d 85 88 f4 ff ff 	lea    -0xb78(%rbp),%rax
    b9ac:	48 89 85 40 ff ff ff 	mov    %rax,-0xc0(%rbp)
    b9b3:	48 c7 85 48 ff ff ff 	movq   $0x0,-0xb8(%rbp)
    b9ba:	00 00 00 00 
    b9be:	48 8d 85 88 f4 ff ff 	lea    -0xb78(%rbp),%rax
    b9c5:	48 89 85 50 ff ff ff 	mov    %rax,-0xb0(%rbp)
    b9cc:	48 c7 85 58 ff ff ff 	movq   $0x0,-0xa8(%rbp)
    b9d3:	00 00 00 00 
    b9d7:	48 c7 85 60 ff ff ff 	movq   $0x0,-0xa0(%rbp)
    b9de:	00 00 00 00 
    b9e2:	48 8d 85 88 f4 ff ff 	lea    -0xb78(%rbp),%rax
    b9e9:	48 89 85 68 ff ff ff 	mov    %rax,-0x98(%rbp)
    b9f0:	48 8d 85 88 f4 ff ff 	lea    -0xb78(%rbp),%rax
    b9f7:	48 89 85 70 ff ff ff 	mov    %rax,-0x90(%rbp)
    b9fe:	48 8d 85 88 f4 ff ff 	lea    -0xb78(%rbp),%rax
    ba05:	48 89 85 78 ff ff ff 	mov    %rax,-0x88(%rbp)
    ba0c:	48 8d 85 88 f4 ff ff 	lea    -0xb78(%rbp),%rax
    ba13:	48 89 45 80          	mov    %rax,-0x80(%rbp)
    ba17:	48 8d 85 88 f4 ff ff 	lea    -0xb78(%rbp),%rax
    ba1e:	48 89 45 88          	mov    %rax,-0x78(%rbp)
    ba22:	48 8d 85 88 f4 ff ff 	lea    -0xb78(%rbp),%rax
    ba29:	48 89 45 90          	mov    %rax,-0x70(%rbp)
    ba2d:	48 c7 45 98 00 00 00 	movq   $0x0,-0x68(%rbp)
    ba34:	00 
    ba35:	48 8d 85 88 f4 ff ff 	lea    -0xb78(%rbp),%rax
    ba3c:	48 89 45 a0          	mov    %rax,-0x60(%rbp)
    ba40:	48 c7 45 a8 00 00 00 	movq   $0x0,-0x58(%rbp)
    ba47:	00 
    ba48:	48 8d 85 88 f4 ff ff 	lea    -0xb78(%rbp),%rax
    ba4f:	48 89 45 b0          	mov    %rax,-0x50(%rbp)
    ba53:	48 c7 45 b8 00 00 00 	movq   $0x0,-0x48(%rbp)
    ba5a:	00 
    ba5b:	48 c7 45 c0 00 00 00 	movq   $0x0,-0x40(%rbp)
    ba62:	00 
    ba63:	48 8d 85 88 f4 ff ff 	lea    -0xb78(%rbp),%rax
    ba6a:	48 89 45 c8          	mov    %rax,-0x38(%rbp)
    ba6e:	48 8d 85 50 f8 ff ff 	lea    -0x7b0(%rbp),%rax
    ba75:	48 05 08 03 00 00    	add    $0x308,%rax
    ba7b:	48 89 85 90 f4 ff ff 	mov    %rax,-0xb70(%rbp)
    ba82:	48 8d 85 90 f4 ff ff 	lea    -0xb70(%rbp),%rax
    ba89:	48 89 85 d0 f4 ff ff 	mov    %rax,-0xb30(%rbp)
    ba90:	48 c7 85 d8 f4 ff ff 	movq   $0x0,-0xb28(%rbp)
    ba97:	00 00 00 00 
    ba9b:	c7 85 40 f4 ff ff 6a 	movl   $0xe211e66a,-0xbc0(%rbp)
    baa2:	e6 11 e2 
    baa5:	c7 85 44 f4 ff ff ff 	movl   $0xffffffff,-0xbbc(%rbp)
    baac:	ff ff ff 
    baaf:	48 8d 05 b2 b7 01 00 	lea    0x1b7b2(%rip),%rax        # 27268 <g_1346>
    bab6:	48 89 85 e0 f4 ff ff 	mov    %rax,-0xb20(%rbp)
    babd:	c7 85 2c f4 ff ff 00 	movl   $0x0,-0xbd4(%rbp)
    bac4:	00 00 00 
    bac7:	eb 45                	jmp    bb0e <func_58+0x3455>
    bac9:	c7 85 30 f4 ff ff 00 	movl   $0x0,-0xbd0(%rbp)
    bad0:	00 00 00 
    bad3:	eb 29                	jmp    bafe <func_58+0x3445>
    bad5:	8b 85 30 f4 ff ff    	mov    -0xbd0(%rbp),%eax
    badb:	48 98                	cltq   
    badd:	8b 95 2c f4 ff ff    	mov    -0xbd4(%rbp),%edx
    bae3:	48 63 d2             	movslq %edx,%rdx
    bae6:	48 01 d2             	add    %rdx,%rdx
    bae9:	48 01 d0             	add    %rdx,%rax
    baec:	c7 84 85 f0 f6 ff ff 	movl   $0x1,-0x910(%rbp,%rax,4)
    baf3:	01 00 00 00 
    baf7:	83 85 30 f4 ff ff 01 	addl   $0x1,-0xbd0(%rbp)
    bafe:	83 bd 30 f4 ff ff 01 	cmpl   $0x1,-0xbd0(%rbp)
    bb05:	7e ce                	jle    bad5 <func_58+0x341c>
    bb07:	83 85 2c f4 ff ff 01 	addl   $0x1,-0xbd4(%rbp)
    bb0e:	83 bd 2c f4 ff ff 04 	cmpl   $0x4,-0xbd4(%rbp)
    bb15:	7e b2                	jle    bac9 <func_58+0x3410>
    bb17:	66 c7 05 a8 be 01 00 	movw   $0xffee,0x1bea8(%rip)        # 279c8 <g_359>
    bb1e:	ee ff 
    bb20:	e9 80 06 00 00       	jmpq   c1a5 <func_58+0x3aec>
    bb25:	48 c7 85 e8 f4 ff ff 	movq   $0x0,-0xb18(%rbp)
    bb2c:	00 00 00 00 
    bb30:	48 8d 85 a8 f5 ff ff 	lea    -0xa58(%rbp),%rax
    bb37:	48 89 85 90 f7 ff ff 	mov    %rax,-0x870(%rbp)
    bb3e:	48 8d 85 a8 f5 ff ff 	lea    -0xa58(%rbp),%rax
    bb45:	48 89 85 98 f7 ff ff 	mov    %rax,-0x868(%rbp)
    bb4c:	48 8d 85 a8 f5 ff ff 	lea    -0xa58(%rbp),%rax
    bb53:	48 89 85 a0 f7 ff ff 	mov    %rax,-0x860(%rbp)
    bb5a:	48 8d 85 a8 f5 ff ff 	lea    -0xa58(%rbp),%rax
    bb61:	48 89 85 a8 f7 ff ff 	mov    %rax,-0x858(%rbp)
    bb68:	48 8d 85 a8 f5 ff ff 	lea    -0xa58(%rbp),%rax
    bb6f:	48 89 85 b0 f7 ff ff 	mov    %rax,-0x850(%rbp)
    bb76:	48 8d 85 a8 f5 ff ff 	lea    -0xa58(%rbp),%rax
    bb7d:	48 89 85 b8 f7 ff ff 	mov    %rax,-0x848(%rbp)
    bb84:	48 8d 85 a8 f5 ff ff 	lea    -0xa58(%rbp),%rax
    bb8b:	48 89 85 c0 f7 ff ff 	mov    %rax,-0x840(%rbp)
    bb92:	48 8d 85 a8 f5 ff ff 	lea    -0xa58(%rbp),%rax
    bb99:	48 89 85 c8 f7 ff ff 	mov    %rax,-0x838(%rbp)
    bba0:	48 8d 85 a8 f5 ff ff 	lea    -0xa58(%rbp),%rax
    bba7:	48 89 85 d0 f7 ff ff 	mov    %rax,-0x830(%rbp)
    bbae:	48 8d 85 a8 f5 ff ff 	lea    -0xa58(%rbp),%rax
    bbb5:	48 89 85 d8 f7 ff ff 	mov    %rax,-0x828(%rbp)
    bbbc:	66 c7 85 0a f4 ff ff 	movw   $0x0,-0xbf6(%rbp)
    bbc3:	00 00 
    bbc5:	c7 85 34 f4 ff ff 00 	movl   $0x0,-0xbcc(%rbp)
    bbcc:	00 00 00 
    bbcf:	eb 1a                	jmp    bbeb <func_58+0x3532>
    bbd1:	8b 85 34 f4 ff ff    	mov    -0xbcc(%rbp),%eax
    bbd7:	48 98                	cltq   
    bbd9:	c7 84 85 c0 f5 ff ff 	movl   $0x50b621cf,-0xa40(%rbp,%rax,4)
    bbe0:	cf 21 b6 50 
    bbe4:	83 85 34 f4 ff ff 01 	addl   $0x1,-0xbcc(%rbp)
    bbeb:	83 bd 34 f4 ff ff 00 	cmpl   $0x0,-0xbcc(%rbp)
    bbf2:	7e dd                	jle    bbd1 <func_58+0x3518>
    bbf4:	c7 85 34 f4 ff ff 00 	movl   $0x0,-0xbcc(%rbp)
    bbfb:	00 00 00 
    bbfe:	eb 1e                	jmp    bc1e <func_58+0x3565>
    bc00:	8b 85 34 f4 ff ff    	mov    -0xbcc(%rbp),%eax
    bc06:	48 98                	cltq   
    bc08:	48 8d 95 78 f4 ff ff 	lea    -0xb88(%rbp),%rdx
    bc0f:	48 89 94 c5 b0 f6 ff 	mov    %rdx,-0x950(%rbp,%rax,8)
    bc16:	ff 
    bc17:	83 85 34 f4 ff ff 01 	addl   $0x1,-0xbcc(%rbp)
    bc1e:	83 bd 34 f4 ff ff 01 	cmpl   $0x1,-0xbcc(%rbp)
    bc25:	7e d9                	jle    bc00 <func_58+0x3547>
    bc27:	66 c7 05 a8 48 01 00 	movw   $0x0,0x148a8(%rip)        # 204d8 <g_354>
    bc2e:	00 00 
    bc30:	e9 f6 04 00 00       	jmpq   c12b <func_58+0x3a72>
    bc35:	48 8d 05 7c 4a 01 00 	lea    0x14a7c(%rip),%rax        # 206b8 <g_402>
    bc3c:	48 89 85 98 f4 ff ff 	mov    %rax,-0xb68(%rbp)
    bc43:	c7 85 48 f4 ff ff fb 	movl   $0xf2bdaafb,-0xbb8(%rbp)
    bc4a:	aa bd f2 
    bc4d:	48 8b 85 f0 f3 ff ff 	mov    -0xc10(%rbp),%rax
    bc54:	8b 00                	mov    (%rax),%eax
    bc56:	85 c0                	test   %eax,%eax
    bc58:	0f 84 8c 00 00 00    	je     bcea <func_58+0x3631>
    bc5e:	48 8b 05 73 b2 01 00 	mov    0x1b273(%rip),%rax        # 26ed8 <g_906>
    bc65:	48 8b 00             	mov    (%rax),%rax
    bc68:	48 8b 18             	mov    (%rax),%rbx
    bc6b:	48 8d 05 36 4a 01 00 	lea    0x14a36(%rip),%rax        # 206a8 <g_386>
    bc72:	48 89 05 2f be 01 00 	mov    %rax,0x1be2f(%rip)        # 27aa8 <g_1598>
    bc79:	48 8b 05 28 be 01 00 	mov    0x1be28(%rip),%rax        # 27aa8 <g_1598>
    bc80:	48 39 85 e8 f4 ff ff 	cmp    %rax,-0xb18(%rbp)
    bc87:	0f 95 c0             	setne  %al
    bc8a:	44 0f b6 e0          	movzbl %al,%r12d
    bc8e:	8b 85 fc f3 ff ff    	mov    -0xc04(%rbp),%eax
    bc94:	0f b6 c8             	movzbl %al,%ecx
    bc97:	48 8b 05 2a b2 01 00 	mov    0x1b22a(%rip),%rax        # 26ec8 <g_891>
    bc9e:	48 8b 00             	mov    (%rax),%rax
    bca1:	48 8b 00             	mov    (%rax),%rax
    bca4:	0f b6 10             	movzbl (%rax),%edx
    bca7:	8d 72 01             	lea    0x1(%rdx),%esi
    bcaa:	40 88 30             	mov    %sil,(%rax)
    bcad:	0f b6 c2             	movzbl %dl,%eax
    bcb0:	89 ce                	mov    %ecx,%esi
    bcb2:	89 c7                	mov    %eax,%edi
    bcb4:	e8 f5 ae ff ff       	callq  6bae <safe_mod_func_uint8_t_u_u>
    bcb9:	0f b6 c0             	movzbl %al,%eax
    bcbc:	be 01 00 00 00       	mov    $0x1,%esi
    bcc1:	89 c7                	mov    %eax,%edi
    bcc3:	e8 13 af ff ff       	callq  6bdb <safe_div_func_uint8_t_u_u>
    bcc8:	0f b6 c0             	movzbl %al,%eax
    bccb:	44 09 e0             	or     %r12d,%eax
    bcce:	48 98                	cltq   
    bcd0:	48 89 de             	mov    %rbx,%rsi
    bcd3:	48 89 c7             	mov    %rax,%rdi
    bcd6:	e8 66 ab ff ff       	callq  6841 <safe_add_func_int64_t_s_s>
    bcdb:	48 83 f8 10          	cmp    $0x10,%rax
    bcdf:	66 c7 85 08 f4 ff ff 	movw   $0x1,-0xbf8(%rbp)
    bce6:	01 00 
    bce8:	eb 7d                	jmp    bd67 <func_58+0x36ae>
    bcea:	c7 85 38 f4 ff ff 00 	movl   $0x0,-0xbc8(%rbp)
    bcf1:	00 00 00 
    bcf4:	eb 14                	jmp    bd0a <func_58+0x3651>
    bcf6:	8b 85 38 f4 ff ff    	mov    -0xbc8(%rbp),%eax
    bcfc:	48 98                	cltq   
    bcfe:	c6 44 05 d4 bf       	movb   $0xbf,-0x2c(%rbp,%rax,1)
    bd03:	83 85 38 f4 ff ff 01 	addl   $0x1,-0xbc8(%rbp)
    bd0a:	83 bd 38 f4 ff ff 03 	cmpl   $0x3,-0xbc8(%rbp)
    bd11:	7e e3                	jle    bcf6 <func_58+0x363d>
    bd13:	48 8d 85 fc f3 ff ff 	lea    -0xc04(%rbp),%rax
    bd1a:	48 89 85 98 f4 ff ff 	mov    %rax,-0xb68(%rbp)
    bd21:	48 8b 0d 18 b5 01 00 	mov    0x1b518(%rip),%rcx        # 27240 <g_1236>
    bd28:	48 8b 01             	mov    (%rcx),%rax
    bd2b:	48 8b 51 08          	mov    0x8(%rcx),%rdx
    bd2f:	48 89 05 0e 57 01 00 	mov    %rax,0x1570e(%rip)        # 21444 <g_1609+0x64>
    bd36:	48 89 15 0f 57 01 00 	mov    %rdx,0x1570f(%rip)        # 2144c <g_1609+0x6c>
    bd3d:	8b 41 10             	mov    0x10(%rcx),%eax
    bd40:	89 05 0e 57 01 00    	mov    %eax,0x1570e(%rip)        # 21454 <g_1609+0x74>
    bd46:	48 8b 85 f0 f3 ff ff 	mov    -0xc10(%rbp),%rax
    bd4d:	8b 00                	mov    (%rax),%eax
    bd4f:	85 c0                	test   %eax,%eax
    bd51:	0f 85 e6 03 00 00    	jne    c13d <func_58+0x3a84>
    bd57:	0f b6 45 d5          	movzbl -0x2b(%rbp),%eax
    bd5b:	0f be d0             	movsbl %al,%edx
    bd5e:	48 8b 85 b8 f4 ff ff 	mov    -0xb48(%rbp),%rax
    bd65:	89 10                	mov    %edx,(%rax)
    bd67:	48 8b 05 3a 57 01 00 	mov    0x1573a(%rip),%rax        # 214a8 <g_1620>
    bd6e:	48 8b 05 6b b1 01 00 	mov    0x1b16b(%rip),%rax        # 26ee0 <g_905>
    bd75:	48 8b 00             	mov    (%rax),%rax
    bd78:	48 8b 00             	mov    (%rax),%rax
    bd7b:	48 c7 00 00 00 00 00 	movq   $0x0,(%rax)
    bd82:	8b 85 fc f3 ff ff    	mov    -0xc04(%rbp),%eax
    bd88:	83 f0 fa             	xor    $0xfffffffa,%eax
    bd8b:	89 c2                	mov    %eax,%edx
    bd8d:	48 8b 85 b8 f4 ff ff 	mov    -0xb48(%rbp),%rax
    bd94:	8b 00                	mov    (%rax),%eax
    bd96:	39 c2                	cmp    %eax,%edx
    bd98:	0f 95 c0             	setne  %al
    bd9b:	0f b6 d0             	movzbl %al,%edx
    bd9e:	8b 85 fc f3 ff ff    	mov    -0xc04(%rbp),%eax
    bda4:	39 c2                	cmp    %eax,%edx
    bda6:	be 01 00 00 00       	mov    $0x1,%esi
    bdab:	bf 01 00 00 00       	mov    $0x1,%edi
    bdb0:	e8 a5 ad ff ff       	callq  6b5a <safe_add_func_uint8_t_u_u>
    bdb5:	be 93 ee 00 00       	mov    $0xee93,%esi
    bdba:	bf 00 00 00 00       	mov    $0x0,%edi
    bdbf:	e8 3b af ff ff       	callq  6cff <safe_add_func_uint16_t_u_u>
    bdc4:	8b 85 fc f3 ff ff    	mov    -0xc04(%rbp),%eax
    bdca:	0f be c0             	movsbl %al,%eax
    bdcd:	be 04 00 00 00       	mov    $0x4,%esi
    bdd2:	89 c7                	mov    %eax,%edi
    bdd4:	e8 93 a5 ff ff       	callq  636c <safe_rshift_func_int8_t_s_u>
    bdd9:	0f b7 85 08 f4 ff ff 	movzwl -0xbf8(%rbp),%eax
    bde0:	66 83 f8 01          	cmp    $0x1,%ax
    bde4:	48 8b 05 5d b4 01 00 	mov    0x1b45d(%rip),%rax        # 27248 <g_1245>
    bdeb:	48 8b 00             	mov    (%rax),%rax
    bdee:	48 8b 00             	mov    (%rax),%rax
    bdf1:	0f b7 00             	movzwl (%rax),%eax
    bdf4:	89 c2                	mov    %eax,%edx
    bdf6:	48 8b 85 b8 f4 ff ff 	mov    -0xb48(%rbp),%rax
    bdfd:	8b 00                	mov    (%rax),%eax
    bdff:	85 c0                	test   %eax,%eax
    be01:	74 10                	je     be13 <func_58+0x375a>
    be03:	83 bd 48 f4 ff ff 00 	cmpl   $0x0,-0xbb8(%rbp)
    be0a:	74 07                	je     be13 <func_58+0x375a>
    be0c:	b8 01 00 00 00       	mov    $0x1,%eax
    be11:	eb 05                	jmp    be18 <func_58+0x375f>
    be13:	b8 00 00 00 00       	mov    $0x0,%eax
    be18:	09 c2                	or     %eax,%edx
    be1a:	48 8b 05 27 b4 01 00 	mov    0x1b427(%rip),%rax        # 27248 <g_1245>
    be21:	48 8b 00             	mov    (%rax),%rax
    be24:	48 8b 00             	mov    (%rax),%rax
    be27:	66 89 10             	mov    %dx,(%rax)
    be2a:	0f b7 00             	movzwl (%rax),%eax
    be2d:	0f b7 c0             	movzwl %ax,%eax
    be30:	83 e0 01             	and    $0x1,%eax
    be33:	85 c0                	test   %eax,%eax
    be35:	74 1b                	je     be52 <func_58+0x3799>
    be37:	8b 95 ac f5 ff ff    	mov    -0xa54(%rbp),%edx
    be3d:	48 8b 85 b8 f4 ff ff 	mov    -0xb48(%rbp),%rax
    be44:	89 10                	mov    %edx,(%rax)
    be46:	48 8b 85 e8 f3 ff ff 	mov    -0xc18(%rbp),%rax
    be4d:	e9 6b 03 00 00       	jmpq   c1bd <func_58+0x3b04>
    be52:	48 8d 05 83 44 01 00 	lea    0x14483(%rip),%rax        # 202dc <g_165>
    be59:	48 89 85 f0 f4 ff ff 	mov    %rax,-0xb10(%rbp)
    be60:	48 c7 85 f8 f4 ff ff 	movq   $0x0,-0xb08(%rbp)
    be67:	00 00 00 00 
    be6b:	48 c7 85 00 f5 ff ff 	movq   $0x0,-0xb00(%rbp)
    be72:	00 00 00 00 
    be76:	48 8d 85 08 f4 ff ff 	lea    -0xbf8(%rbp),%rax
    be7d:	48 89 85 08 f5 ff ff 	mov    %rax,-0xaf8(%rbp)
    be84:	48 8d 05 5f 56 01 00 	lea    0x1565f(%rip),%rax        # 214ea <g_1653>
    be8b:	48 89 85 10 f5 ff ff 	mov    %rax,-0xaf0(%rbp)
    be92:	8b 85 fc f3 ff ff    	mov    -0xc04(%rbp),%eax
    be98:	0f be d8             	movsbl %al,%ebx
    be9b:	48 8b 85 98 f4 ff ff 	mov    -0xb68(%rbp),%rax
    bea2:	8b 00                	mov    (%rax),%eax
    bea4:	44 0f bf e0          	movswl %ax,%r12d
    bea8:	48 8b 85 b8 f4 ff ff 	mov    -0xb48(%rbp),%rax
    beaf:	8b 00                	mov    (%rax),%eax
    beb1:	98                   	cwtl   
    beb2:	be 0b 00 00 00       	mov    $0xb,%esi
    beb7:	89 c7                	mov    %eax,%edi
    beb9:	e8 d4 a5 ff ff       	callq  6492 <safe_lshift_func_int16_t_s_s>
    bebe:	66 85 c0             	test   %ax,%ax
    bec1:	0f 84 33 01 00 00    	je     bffa <func_58+0x3941>
    bec7:	48 8b 05 6a af 01 00 	mov    0x1af6a(%rip),%rax        # 26e38 <g_682>
    bece:	44 8b 28             	mov    (%rax),%r13d
    bed1:	48 8d 85 90 f4 ff ff 	lea    -0xb70(%rbp),%rax
    bed8:	48 39 85 d0 f4 ff ff 	cmp    %rax,-0xb30(%rbp)
    bedf:	0f 95 c0             	setne  %al
    bee2:	0f b6 d0             	movzbl %al,%edx
    bee5:	8b 85 fc f3 ff ff    	mov    -0xc04(%rbp),%eax
    beeb:	48 98                	cltq   
    beed:	48 39 c2             	cmp    %rax,%rdx
    bef0:	0f 95 c0             	setne  %al
    bef3:	89 c2                	mov    %eax,%edx
    bef5:	48 8b 85 a0 f4 ff ff 	mov    -0xb60(%rbp),%rax
    befc:	88 10                	mov    %dl,(%rax)
    befe:	48 8b 85 a0 f4 ff ff 	mov    -0xb60(%rbp),%rax
    bf05:	0f b6 10             	movzbl (%rax),%edx
    bf08:	48 8b 85 f0 f4 ff ff 	mov    -0xb10(%rbp),%rax
    bf0f:	0f b6 00             	movzbl (%rax),%eax
    bf12:	09 c2                	or     %eax,%edx
    bf14:	48 8b 85 f0 f4 ff ff 	mov    -0xb10(%rbp),%rax
    bf1b:	88 10                	mov    %dl,(%rax)
    bf1d:	48 8b 85 f0 f4 ff ff 	mov    -0xb10(%rbp),%rax
    bf24:	0f b6 00             	movzbl (%rax),%eax
    bf27:	0f be c0             	movsbl %al,%eax
    bf2a:	89 05 80 bb 01 00    	mov    %eax,0x1bb80(%rip)        # 27ab0 <g_1649>
    bf30:	8b 05 7a bb 01 00    	mov    0x1bb7a(%rip),%eax        # 27ab0 <g_1649>
    bf36:	66 89 05 ab 55 01 00 	mov    %ax,0x155ab(%rip)        # 214e8 <g_1650>
    bf3d:	0f b7 05 a4 55 01 00 	movzwl 0x155a4(%rip),%eax        # 214e8 <g_1650>
    bf44:	0f be c0             	movsbl %al,%eax
    bf47:	89 c6                	mov    %eax,%esi
    bf49:	bf ff ff ff ff       	mov    $0xffffffff,%edi
    bf4e:	e8 9f a2 ff ff       	callq  61f2 <safe_sub_func_int8_t_s_s>
    bf53:	0f be d0             	movsbl %al,%edx
    bf56:	8b 85 fc f3 ff ff    	mov    -0xc04(%rbp),%eax
    bf5c:	39 c2                	cmp    %eax,%edx
    bf5e:	0f 9f c0             	setg   %al
    bf61:	0f b6 d0             	movzbl %al,%edx
    bf64:	0f b7 85 08 f4 ff ff 	movzwl -0xbf8(%rbp),%eax
    bf6b:	98                   	cwtl   
    bf6c:	21 d0                	and    %edx,%eax
    bf6e:	44 89 ee             	mov    %r13d,%esi
    bf71:	89 c7                	mov    %eax,%edi
    bf73:	e8 85 af ff ff       	callq  6efd <safe_mod_func_uint32_t_u_u>
    bf78:	89 c2                	mov    %eax,%edx
    bf7a:	48 8b 85 08 f5 ff ff 	mov    -0xaf8(%rbp),%rax
    bf81:	66 89 10             	mov    %dx,(%rax)
    bf84:	48 8b 85 08 f5 ff ff 	mov    -0xaf8(%rbp),%rax
    bf8b:	0f b7 00             	movzwl (%rax),%eax
    bf8e:	0f bf d0             	movswl %ax,%edx
    bf91:	8b 85 fc f3 ff ff    	mov    -0xc04(%rbp),%eax
    bf97:	39 c2                	cmp    %eax,%edx
    bf99:	0f 94 c0             	sete   %al
    bf9c:	0f b6 d0             	movzbl %al,%edx
    bf9f:	48 8b 05 3a af 01 00 	mov    0x1af3a(%rip),%rax        # 26ee0 <g_905>
    bfa6:	48 8b 00             	mov    (%rax),%rax
    bfa9:	48 8b 00             	mov    (%rax),%rax
    bfac:	48 8b 00             	mov    (%rax),%rax
    bfaf:	48 39 c2             	cmp    %rax,%rdx
    bfb2:	0f 9d c0             	setge  %al
    bfb5:	89 c2                	mov    %eax,%edx
    bfb7:	48 8b 85 10 f5 ff ff 	mov    -0xaf0(%rbp),%rax
    bfbe:	88 10                	mov    %dl,(%rax)
    bfc0:	48 8b 85 10 f5 ff ff 	mov    -0xaf0(%rbp),%rax
    bfc7:	0f b6 00             	movzbl (%rax),%eax
    bfca:	3c 0e                	cmp    $0xe,%al
    bfcc:	48 b8 b9 b4 55 ae aa 	movabs $0x6d31f7aaae55b4b9,%rax
    bfd3:	f7 31 6d 
    bfd6:	83 c8 78             	or     $0x78,%eax
    bfd9:	0f b7 d0             	movzwl %ax,%edx
    bfdc:	8b 85 fc f3 ff ff    	mov    -0xc04(%rbp),%eax
    bfe2:	0f b7 c0             	movzwl %ax,%eax
    bfe5:	89 d6                	mov    %edx,%esi
    bfe7:	89 c7                	mov    %eax,%edi
    bfe9:	e8 11 ad ff ff       	callq  6cff <safe_add_func_uint16_t_u_u>
    bfee:	66 85 c0             	test   %ax,%ax
    bff1:	74 07                	je     bffa <func_58+0x3941>
    bff3:	b8 01 00 00 00       	mov    $0x1,%eax
    bff8:	eb 05                	jmp    bfff <func_58+0x3946>
    bffa:	b8 00 00 00 00       	mov    $0x0,%eax
    bfff:	44 0f b7 e8          	movzwl %ax,%r13d
    c003:	8b 85 fc f3 ff ff    	mov    -0xc04(%rbp),%eax
    c009:	0f be c0             	movsbl %al,%eax
    c00c:	89 c6                	mov    %eax,%esi
    c00e:	bf 88 ff ff ff       	mov    $0xffffff88,%edi
    c013:	e8 52 a2 ff ff       	callq  626a <safe_div_func_int8_t_s_s>
    c018:	66 98                	cbtw   
    c01a:	0f b7 c0             	movzwl %ax,%eax
    c01d:	44 89 ee             	mov    %r13d,%esi
    c020:	89 c7                	mov    %eax,%edi
    c022:	e8 16 ad ff ff       	callq  6d3d <safe_mul_func_uint16_t_u_u>
    c027:	0f b7 c0             	movzwl %ax,%eax
    c02a:	89 c7                	mov    %eax,%edi
    c02c:	e8 65 a5 ff ff       	callq  6596 <safe_unary_minus_func_int32_t_s>
    c031:	98                   	cwtl   
    c032:	44 89 e6             	mov    %r12d,%esi
    c035:	89 c7                	mov    %eax,%edi
    c037:	e8 77 a3 ff ff       	callq  63b3 <safe_add_func_int16_t_s_s>
    c03c:	0f bf d0             	movswl %ax,%edx
    c03f:	8b 85 a8 f5 ff ff    	mov    -0xa58(%rbp),%eax
    c045:	0f b6 c0             	movzbl %al,%eax
    c048:	89 d6                	mov    %edx,%esi
    c04a:	89 c7                	mov    %eax,%edi
    c04c:	e8 fb ab ff ff       	callq  6c4c <safe_lshift_func_uint8_t_u_u>
    c051:	8b 85 c0 f5 ff ff    	mov    -0xa40(%rbp),%eax
    c057:	0f be c0             	movsbl %al,%eax
    c05a:	89 de                	mov    %ebx,%esi
    c05c:	89 c7                	mov    %eax,%edi
    c05e:	e8 8f a1 ff ff       	callq  61f2 <safe_sub_func_int8_t_s_s>
    c063:	0f be d0             	movsbl %al,%edx
    c066:	8b 85 0c f4 ff ff    	mov    -0xbf4(%rbp),%eax
    c06c:	21 d0                	and    %edx,%eax
    c06e:	89 85 0c f4 ff ff    	mov    %eax,-0xbf4(%rbp)
    c074:	48 c7 05 19 ba 01 00 	movq   $0x0,0x1ba19(%rip)        # 27a98 <g_1271>
    c07b:	00 00 00 00 
    c07f:	e9 82 00 00 00       	jmpq   c106 <func_58+0x3a4d>
    c084:	48 8b 85 b8 f4 ff ff 	mov    -0xb48(%rbp),%rax
    c08b:	c7 00 fc ff ff ff    	movl   $0xfffffffc,(%rax)
    c091:	48 8b 05 00 ba 01 00 	mov    0x1ba00(%rip),%rax        # 27a98 <g_1271>
    c098:	48 8d 50 01          	lea    0x1(%rax),%rdx
    c09c:	0f b7 05 35 44 01 00 	movzwl 0x14435(%rip),%eax        # 204d8 <g_354>
    c0a3:	0f b7 c0             	movzwl %ax,%eax
    c0a6:	48 98                	cltq   
    c0a8:	48 01 d0             	add    %rdx,%rax
    c0ab:	48 8d 14 00          	lea    (%rax,%rax,1),%rdx
    c0af:	48 8d 05 6a 45 01 00 	lea    0x1456a(%rip),%rax        # 20620 <g_381>
    c0b6:	0f b7 04 02          	movzwl (%rdx,%rax,1),%eax
    c0ba:	66 85 c0             	test   %ax,%ax
    c0bd:	75 5a                	jne    c119 <func_58+0x3a60>
    c0bf:	48 8b 05 aa b1 01 00 	mov    0x1b1aa(%rip),%rax        # 27270 <g_1345>
    c0c6:	48 8b 08             	mov    (%rax),%rcx
    c0c9:	48 8b 05 30 54 01 00 	mov    0x15430(%rip),%rax        # 21500 <g_1656>
    c0d0:	48 8b 15 31 54 01 00 	mov    0x15431(%rip),%rdx        # 21508 <g_1656+0x8>
    c0d7:	48 89 01             	mov    %rax,(%rcx)
    c0da:	48 89 51 08          	mov    %rdx,0x8(%rcx)
    c0de:	8b 05 2c 54 01 00    	mov    0x1542c(%rip),%eax        # 21510 <g_1656+0x10>
    c0e4:	89 41 10             	mov    %eax,0x10(%rcx)
    c0e7:	48 8b 85 b8 f4 ff ff 	mov    -0xb48(%rbp),%rax
    c0ee:	c7 00 a7 f5 9d aa    	movl   $0xaa9df5a7,(%rax)
    c0f4:	48 8b 05 9d b9 01 00 	mov    0x1b99d(%rip),%rax        # 27a98 <g_1271>
    c0fb:	48 83 c0 01          	add    $0x1,%rax
    c0ff:	48 89 05 92 b9 01 00 	mov    %rax,0x1b992(%rip)        # 27a98 <g_1271>
    c106:	48 8b 05 8b b9 01 00 	mov    0x1b98b(%rip),%rax        # 27a98 <g_1271>
    c10d:	48 83 f8 04          	cmp    $0x4,%rax
    c111:	0f 86 6d ff ff ff    	jbe    c084 <func_58+0x39cb>
    c117:	eb 01                	jmp    c11a <func_58+0x3a61>
    c119:	90                   	nop
    c11a:	0f b7 05 b7 43 01 00 	movzwl 0x143b7(%rip),%eax        # 204d8 <g_354>
    c121:	83 c0 01             	add    $0x1,%eax
    c124:	66 89 05 ad 43 01 00 	mov    %ax,0x143ad(%rip)        # 204d8 <g_354>
    c12b:	0f b7 05 a6 43 01 00 	movzwl 0x143a6(%rip),%eax        # 204d8 <g_354>
    c132:	66 85 c0             	test   %ax,%ax
    c135:	0f 84 fa fa ff ff    	je     bc35 <func_58+0x357c>
    c13b:	eb 01                	jmp    c13e <func_58+0x3a85>
    c13d:	90                   	nop
    c13e:	8b 05 74 4e 01 00    	mov    0x14e74(%rip),%eax        # 20fb8 <g_1437+0x78>
    c144:	0f b7 d0             	movzwl %ax,%edx
    c147:	48 8d 05 aa ad 01 00 	lea    0x1adaa(%rip),%rax        # 26ef8 <g_957>
    c14e:	48 89 85 d8 f4 ff ff 	mov    %rax,-0xb28(%rbp)
    c155:	48 8d 05 7c ad 01 00 	lea    0x1ad7c(%rip),%rax        # 26ed8 <g_906>
    c15c:	48 39 85 d8 f4 ff ff 	cmp    %rax,-0xb28(%rbp)
    c163:	0f 94 c0             	sete   %al
    c166:	0f b6 c0             	movzbl %al,%eax
    c169:	89 d6                	mov    %edx,%esi
    c16b:	89 c7                	mov    %eax,%edi
    c16d:	e8 ad ab ff ff       	callq  6d1f <safe_sub_func_uint16_t_u_u>
    c172:	0f b7 d0             	movzwl %ax,%edx
    c175:	48 8b 85 b8 f4 ff ff 	mov    -0xb48(%rbp),%rax
    c17c:	89 10                	mov    %edx,(%rax)
    c17e:	66 83 85 0a f4 ff ff 	addw   $0x1,-0xbf6(%rbp)
    c185:	01 
    c186:	48 8b 85 78 f4 ff ff 	mov    -0xb88(%rbp),%rax
    c18d:	48 89 85 e0 f4 ff ff 	mov    %rax,-0xb20(%rbp)
    c194:	0f b7 05 2d b8 01 00 	movzwl 0x1b82d(%rip),%eax        # 279c8 <g_359>
    c19b:	83 c0 01             	add    $0x1,%eax
    c19e:	66 89 05 23 b8 01 00 	mov    %ax,0x1b823(%rip)        # 279c8 <g_359>
    c1a5:	0f b7 05 1c b8 01 00 	movzwl 0x1b81c(%rip),%eax        # 279c8 <g_359>
    c1ac:	66 83 f8 0c          	cmp    $0xc,%ax
    c1b0:	0f 86 6f f9 ff ff    	jbe    bb25 <func_58+0x346c>
    c1b6:	48 8b 85 48 f6 ff ff 	mov    -0x9b8(%rbp),%rax
    c1bd:	48 8b 5d d8          	mov    -0x28(%rbp),%rbx
    c1c1:	64 48 33 1c 25 28 00 	xor    %fs:0x28,%rbx
    c1c8:	00 00 
    c1ca:	74 05                	je     c1d1 <func_58+0x3b18>
    c1cc:	e8 9f 9e ff ff       	callq  6070 <__stack_chk_fail@plt>
    c1d1:	48 81 c4 10 0c 00 00 	add    $0xc10,%rsp
    c1d8:	5b                   	pop    %rbx
    c1d9:	41 5c                	pop    %r12
    c1db:	41 5d                	pop    %r13
    c1dd:	41 5e                	pop    %r14
    c1df:	5d                   	pop    %rbp
    c1e0:	c3                   	retq   

000000000000c1e1 <func_97>:
    c1e1:	f3 0f 1e fa          	endbr64 
    c1e5:	55                   	push   %rbp
    c1e6:	48 89 e5             	mov    %rsp,%rbp
    c1e9:	48 81 ec 20 09 00 00 	sub    $0x920,%rsp
    c1f0:	89 bd ec f6 ff ff    	mov    %edi,-0x914(%rbp)
    c1f6:	89 b5 e8 f6 ff ff    	mov    %esi,-0x918(%rbp)
    c1fc:	48 89 95 e0 f6 ff ff 	mov    %rdx,-0x920(%rbp)
    c203:	64 48 8b 04 25 28 00 	mov    %fs:0x28,%rax
    c20a:	00 00 
    c20c:	48 89 45 f8          	mov    %rax,-0x8(%rbp)
    c210:	31 c0                	xor    %eax,%eax
    c212:	48 8d 05 bf 40 01 00 	lea    0x140bf(%rip),%rax        # 202d8 <g_142>
    c219:	48 89 85 00 f7 ff ff 	mov    %rax,-0x900(%rbp)
    c220:	48 c7 85 08 f7 ff ff 	movq   $0x0,-0x8f8(%rbp)
    c227:	00 00 00 00 
    c22b:	48 8d 85 70 f8 ff ff 	lea    -0x790(%rbp),%rax
    c232:	48 8d 15 e7 ea 00 00 	lea    0xeae7(%rip),%rdx        # 1ad20 <g_1798+0xc40>
    c239:	b9 f0 00 00 00       	mov    $0xf0,%ecx
    c23e:	48 89 c7             	mov    %rax,%rdi
    c241:	48 89 d6             	mov    %rdx,%rsi
    c244:	f3 48 a5             	rep movsq %ds:(%rsi),%es:(%rdi)
    c247:	c7 85 b0 f7 ff ff 2e 	movl   $0xec05822e,-0x850(%rbp)
    c24e:	82 05 ec 
    c251:	c7 85 b4 f7 ff ff 2e 	movl   $0xec05822e,-0x84c(%rbp)
    c258:	82 05 ec 
    c25b:	c7 85 b8 f7 ff ff 00 	movl   $0x0,-0x848(%rbp)
    c262:	00 00 00 
    c265:	c7 85 bc f7 ff ff 2e 	movl   $0xec05822e,-0x844(%rbp)
    c26c:	82 05 ec 
    c26f:	c7 85 c0 f7 ff ff 2e 	movl   $0xec05822e,-0x840(%rbp)
    c276:	82 05 ec 
    c279:	c7 85 c4 f7 ff ff 00 	movl   $0x0,-0x83c(%rbp)
    c280:	00 00 00 
    c283:	c7 85 c8 f7 ff ff 2e 	movl   $0xec05822e,-0x838(%rbp)
    c28a:	82 05 ec 
    c28d:	c7 85 cc f7 ff ff 00 	movl   $0x0,-0x834(%rbp)
    c294:	00 00 00 
    c297:	c7 85 d0 f7 ff ff 00 	movl   $0x0,-0x830(%rbp)
    c29e:	00 00 00 
    c2a1:	c7 85 d4 f7 ff ff 2e 	movl   $0xec05822e,-0x82c(%rbp)
    c2a8:	82 05 ec 
    c2ab:	c7 85 d8 f7 ff ff 2e 	movl   $0xec05822e,-0x828(%rbp)
    c2b2:	82 05 ec 
    c2b5:	c7 85 dc f7 ff ff 00 	movl   $0x0,-0x824(%rbp)
    c2bc:	00 00 00 
    c2bf:	c7 85 e0 f7 ff ff 00 	movl   $0x0,-0x820(%rbp)
    c2c6:	00 00 00 
    c2c9:	c7 85 e4 f7 ff ff 2e 	movl   $0xec05822e,-0x81c(%rbp)
    c2d0:	82 05 ec 
    c2d3:	c7 85 e8 f7 ff ff 00 	movl   $0x0,-0x818(%rbp)
    c2da:	00 00 00 
    c2dd:	c7 85 ec f7 ff ff 2e 	movl   $0xec05822e,-0x814(%rbp)
    c2e4:	82 05 ec 
    c2e7:	c7 85 f0 f7 ff ff 2e 	movl   $0xec05822e,-0x810(%rbp)
    c2ee:	82 05 ec 
    c2f1:	c7 85 f4 f7 ff ff 00 	movl   $0x0,-0x80c(%rbp)
    c2f8:	00 00 00 
    c2fb:	c7 85 f8 f7 ff ff 2e 	movl   $0xec05822e,-0x808(%rbp)
    c302:	82 05 ec 
    c305:	c7 85 fc f7 ff ff 2e 	movl   $0xec05822e,-0x804(%rbp)
    c30c:	82 05 ec 
    c30f:	c7 85 00 f8 ff ff 00 	movl   $0x0,-0x800(%rbp)
    c316:	00 00 00 
    c319:	c7 85 04 f8 ff ff 2e 	movl   $0xec05822e,-0x7fc(%rbp)
    c320:	82 05 ec 
    c323:	c7 85 08 f8 ff ff 00 	movl   $0x0,-0x7f8(%rbp)
    c32a:	00 00 00 
    c32d:	c7 85 0c f8 ff ff 00 	movl   $0x0,-0x7f4(%rbp)
    c334:	00 00 00 
    c337:	c7 85 10 f8 ff ff 2e 	movl   $0xec05822e,-0x7f0(%rbp)
    c33e:	82 05 ec 
    c341:	c7 85 14 f8 ff ff 2e 	movl   $0xec05822e,-0x7ec(%rbp)
    c348:	82 05 ec 
    c34b:	c7 85 18 f8 ff ff 00 	movl   $0x0,-0x7e8(%rbp)
    c352:	00 00 00 
    c355:	c7 85 1c f8 ff ff 00 	movl   $0x0,-0x7e4(%rbp)
    c35c:	00 00 00 
    c35f:	c7 85 20 f8 ff ff 2e 	movl   $0xec05822e,-0x7e0(%rbp)
    c366:	82 05 ec 
    c369:	c7 85 24 f8 ff ff 00 	movl   $0x0,-0x7dc(%rbp)
    c370:	00 00 00 
    c373:	c7 85 28 f8 ff ff 2e 	movl   $0xec05822e,-0x7d8(%rbp)
    c37a:	82 05 ec 
    c37d:	c7 85 2c f8 ff ff 2e 	movl   $0xec05822e,-0x7d4(%rbp)
    c384:	82 05 ec 
    c387:	c7 85 30 f8 ff ff 00 	movl   $0x0,-0x7d0(%rbp)
    c38e:	00 00 00 
    c391:	c7 85 34 f8 ff ff 2e 	movl   $0xec05822e,-0x7cc(%rbp)
    c398:	82 05 ec 
    c39b:	c7 85 38 f8 ff ff 2e 	movl   $0xec05822e,-0x7c8(%rbp)
    c3a2:	82 05 ec 
    c3a5:	c7 85 3c f8 ff ff 00 	movl   $0x0,-0x7c4(%rbp)
    c3ac:	00 00 00 
    c3af:	c7 85 40 f8 ff ff 2e 	movl   $0xec05822e,-0x7c0(%rbp)
    c3b6:	82 05 ec 
    c3b9:	c7 85 44 f8 ff ff 00 	movl   $0x0,-0x7bc(%rbp)
    c3c0:	00 00 00 
    c3c3:	c7 85 48 f8 ff ff 00 	movl   $0x0,-0x7b8(%rbp)
    c3ca:	00 00 00 
    c3cd:	c7 85 4c f8 ff ff 2e 	movl   $0xec05822e,-0x7b4(%rbp)
    c3d4:	82 05 ec 
    c3d7:	c7 85 50 f8 ff ff 2e 	movl   $0xec05822e,-0x7b0(%rbp)
    c3de:	82 05 ec 
    c3e1:	c7 85 54 f8 ff ff 00 	movl   $0x0,-0x7ac(%rbp)
    c3e8:	00 00 00 
    c3eb:	c7 85 58 f8 ff ff 00 	movl   $0x0,-0x7a8(%rbp)
    c3f2:	00 00 00 
    c3f5:	c7 85 5c f8 ff ff 2e 	movl   $0xec05822e,-0x7a4(%rbp)
    c3fc:	82 05 ec 
    c3ff:	c7 85 60 f8 ff ff 00 	movl   $0x0,-0x7a0(%rbp)
    c406:	00 00 00 
    c409:	48 c7 85 60 f7 ff ff 	movq   $0x0,-0x8a0(%rbp)
    c410:	00 00 00 00 
    c414:	48 c7 85 68 f7 ff ff 	movq   $0x0,-0x898(%rbp)
    c41b:	00 00 00 00 
    c41f:	48 c7 85 70 f7 ff ff 	movq   $0x0,-0x890(%rbp)
    c426:	00 00 00 00 
    c42a:	48 c7 85 78 f7 ff ff 	movq   $0x0,-0x888(%rbp)
    c431:	00 00 00 00 
    c435:	48 c7 85 80 f7 ff ff 	movq   $0x0,-0x880(%rbp)
    c43c:	00 00 00 00 
    c440:	48 c7 85 88 f7 ff ff 	movq   $0x0,-0x878(%rbp)
    c447:	00 00 00 00 
    c44b:	48 c7 85 90 f7 ff ff 	movq   $0x0,-0x870(%rbp)
    c452:	00 00 00 00 
    c456:	48 c7 85 98 f7 ff ff 	movq   $0x0,-0x868(%rbp)
    c45d:	00 00 00 00 
    c461:	48 c7 85 a0 f7 ff ff 	movq   $0x0,-0x860(%rbp)
    c468:	00 00 00 00 
    c46c:	48 c7 85 a8 f7 ff ff 	movq   $0x0,-0x858(%rbp)
    c473:	00 00 00 00 
    c477:	66 c7 85 fa f6 ff ff 	movw   $0x6,-0x906(%rbp)
    c47e:	06 00 
    c480:	66 c7 85 16 f7 ff ff 	movw   $0xfffd,-0x8ea(%rbp)
    c487:	fd ff 
    c489:	66 c7 85 18 f7 ff ff 	movw   $0xfffd,-0x8e8(%rbp)
    c490:	fd ff 
    c492:	66 c7 85 1a f7 ff ff 	movw   $0xfffd,-0x8e6(%rbp)
    c499:	fd ff 
    c49b:	66 c7 85 1c f7 ff ff 	movw   $0xfffd,-0x8e4(%rbp)
    c4a2:	fd ff 
    c4a4:	66 c7 85 1e f7 ff ff 	movw   $0xfffd,-0x8e2(%rbp)
    c4ab:	fd ff 
    c4ad:	c7 85 fc f6 ff ff 00 	movl   $0x0,-0x904(%rbp)
    c4b4:	00 00 00 
    c4b7:	eb 1e                	jmp    c4d7 <func_97+0x2f6>
    c4b9:	8b 85 fc f6 ff ff    	mov    -0x904(%rbp),%eax
    c4bf:	48 98                	cltq   
    c4c1:	48 8d 15 f0 41 01 00 	lea    0x141f0(%rip),%rdx        # 206b8 <g_402>
    c4c8:	48 89 94 c5 40 f7 ff 	mov    %rdx,-0x8c0(%rbp,%rax,8)
    c4cf:	ff 
    c4d0:	83 85 fc f6 ff ff 01 	addl   $0x1,-0x904(%rbp)
    c4d7:	83 bd fc f6 ff ff 03 	cmpl   $0x3,-0x904(%rbp)
    c4de:	7e d9                	jle    c4b9 <func_97+0x2d8>
    c4e0:	c7 85 fc f6 ff ff 00 	movl   $0x0,-0x904(%rbp)
    c4e7:	00 00 00 
    c4ea:	eb 1a                	jmp    c506 <func_97+0x325>
    c4ec:	8b 85 fc f6 ff ff    	mov    -0x904(%rbp),%eax
    c4f2:	48 98                	cltq   
    c4f4:	c7 84 85 20 f7 ff ff 	movl   $0x3a6c6a53,-0x8e0(%rbp,%rax,4)
    c4fb:	53 6a 6c 3a 
    c4ff:	83 85 fc f6 ff ff 01 	addl   $0x1,-0x904(%rbp)
    c506:	83 bd fc f6 ff ff 04 	cmpl   $0x4,-0x904(%rbp)
    c50d:	7e dd                	jle    c4ec <func_97+0x30b>
    c50f:	0f b7 85 1c f7 ff ff 	movzwl -0x8e4(%rbp),%eax
    c516:	83 c0 01             	add    $0x1,%eax
    c519:	66 89 85 1c f7 ff ff 	mov    %ax,-0x8e4(%rbp)
    c520:	48 8b 85 00 f7 ff ff 	mov    -0x900(%rbp),%rax
    c527:	8b 00                	mov    (%rax),%eax
    c529:	48 8b 4d f8          	mov    -0x8(%rbp),%rcx
    c52d:	64 48 33 0c 25 28 00 	xor    %fs:0x28,%rcx
    c534:	00 00 
    c536:	74 05                	je     c53d <func_97+0x35c>
    c538:	e8 33 9b ff ff       	callq  6070 <__stack_chk_fail@plt>
    c53d:	c9                   	leaveq 
    c53e:	c3                   	retq   

000000000000c53f <func_102>:
    c53f:	f3 0f 1e fa          	endbr64 
    c543:	55                   	push   %rbp
    c544:	48 89 e5             	mov    %rsp,%rbp
    c547:	41 57                	push   %r15
    c549:	41 56                	push   %r14
    c54b:	41 55                	push   %r13
    c54d:	41 54                	push   %r12
    c54f:	53                   	push   %rbx
    c550:	48 81 ec 68 08 00 00 	sub    $0x868,%rsp
    c557:	48 89 bd b8 f7 ff ff 	mov    %rdi,-0x848(%rbp)
    c55e:	48 89 b5 b0 f7 ff ff 	mov    %rsi,-0x850(%rbp)
    c565:	89 d0                	mov    %edx,%eax
    c567:	89 8d a8 f7 ff ff    	mov    %ecx,-0x858(%rbp)
    c56d:	4c 89 85 a0 f7 ff ff 	mov    %r8,-0x860(%rbp)
    c574:	88 85 ac f7 ff ff    	mov    %al,-0x854(%rbp)
    c57a:	64 48 8b 04 25 28 00 	mov    %fs:0x28,%rax
    c581:	00 00 
    c583:	48 89 45 c8          	mov    %rax,-0x38(%rbp)
    c587:	31 c0                	xor    %eax,%eax
    c589:	48 b8 d5 9b 7d d6 0a 	movabs $0x21cbef0ad67d9bd5,%rax
    c590:	ef cb 21 
    c593:	48 89 85 58 f8 ff ff 	mov    %rax,-0x7a8(%rbp)
    c59a:	c6 85 ce f7 ff ff 00 	movb   $0x0,-0x832(%rbp)
    c5a1:	48 8d 05 68 47 01 00 	lea    0x14768(%rip),%rax        # 20d10 <g_1204>
    c5a8:	48 89 85 60 f8 ff ff 	mov    %rax,-0x7a0(%rbp)
    c5af:	c7 85 d4 f7 ff ff 06 	movl   $0x6,-0x82c(%rbp)
    c5b6:	00 00 00 
    c5b9:	66 c7 85 d0 f7 ff ff 	movw   $0xfff6,-0x830(%rbp)
    c5c0:	f6 ff 
    c5c2:	c7 85 10 f8 ff ff 08 	movl   $0x8,-0x7f0(%rbp)
    c5c9:	00 00 00 
    c5cc:	48 8d 05 f5 a8 01 00 	lea    0x1a8f5(%rip),%rax        # 26ec8 <g_891>
    c5d3:	48 89 85 68 f8 ff ff 	mov    %rax,-0x798(%rbp)
    c5da:	c7 85 14 f8 ff ff 28 	movl   $0xf602b128,-0x7ec(%rbp)
    c5e1:	b1 02 f6 
    c5e4:	c7 85 18 f8 ff ff fa 	movl   $0xfffffffa,-0x7e8(%rbp)
    c5eb:	ff ff ff 
    c5ee:	c7 85 1c f8 ff ff 01 	movl   $0x1,-0x7e4(%rbp)
    c5f5:	00 00 00 
    c5f8:	66 c7 85 d2 f7 ff ff 	movw   $0x2,-0x82e(%rbp)
    c5ff:	02 00 
    c601:	48 8d 05 a8 3b 01 00 	lea    0x13ba8(%rip),%rax        # 201b0 <g_76>
    c608:	48 89 85 98 f8 ff ff 	mov    %rax,-0x768(%rbp)
    c60f:	48 8d 05 a2 3b 01 00 	lea    0x13ba2(%rip),%rax        # 201b8 <g_82>
    c616:	48 89 85 a0 f8 ff ff 	mov    %rax,-0x760(%rbp)
    c61d:	48 8d 05 98 40 01 00 	lea    0x14098(%rip),%rax        # 206bc <g_459>
    c624:	48 89 85 a8 f8 ff ff 	mov    %rax,-0x758(%rbp)
    c62b:	48 8b 85 58 f8 ff ff 	mov    -0x7a8(%rbp),%rax
    c632:	48 85 c0             	test   %rax,%rax
    c635:	0f 8f 04 0c 00 00    	jg     d23f <func_102+0xd00>
    c63b:	c7 85 a0 f9 ff ff ff 	movl   $0xffffffff,-0x660(%rbp)
    c642:	ff ff ff 
    c645:	c7 85 a4 f9 ff ff c8 	movl   $0xf96790c8,-0x65c(%rbp)
    c64c:	90 67 f9 
    c64f:	c7 85 a8 f9 ff ff f7 	movl   $0xfffffff7,-0x658(%rbp)
    c656:	ff ff ff 
    c659:	c7 85 ac f9 ff ff f7 	movl   $0xfffffff7,-0x654(%rbp)
    c660:	ff ff ff 
    c663:	c7 85 b0 f9 ff ff c8 	movl   $0xf96790c8,-0x650(%rbp)
    c66a:	90 67 f9 
    c66d:	c7 85 b4 f9 ff ff ff 	movl   $0xffffffff,-0x64c(%rbp)
    c674:	ff ff ff 
    c677:	c7 85 b8 f9 ff ff c8 	movl   $0xf96790c8,-0x648(%rbp)
    c67e:	90 67 f9 
    c681:	c7 85 bc f9 ff ff f7 	movl   $0xfffffff7,-0x644(%rbp)
    c688:	ff ff ff 
    c68b:	c7 85 c0 f9 ff ff f7 	movl   $0xfffffff7,-0x640(%rbp)
    c692:	ff ff ff 
    c695:	c7 85 c4 f9 ff ff c8 	movl   $0xf96790c8,-0x63c(%rbp)
    c69c:	90 67 f9 
    c69f:	48 8d 05 fa 41 01 00 	lea    0x141fa(%rip),%rax        # 208a0 <g_602+0x140>
    c6a6:	48 89 85 70 f8 ff ff 	mov    %rax,-0x790(%rbp)
    c6ad:	c7 85 d8 f7 ff ff 08 	movl   $0x8,-0x828(%rbp)
    c6b4:	00 00 00 
    c6b7:	48 8d 05 9a a7 01 00 	lea    0x1a79a(%rip),%rax        # 26e58 <g_775+0x8>
    c6be:	48 89 85 b8 f8 ff ff 	mov    %rax,-0x748(%rbp)
    c6c5:	c7 85 20 f8 ff ff 72 	movl   $0x4c27aa72,-0x7e0(%rbp)
    c6cc:	aa 27 4c 
    c6cf:	48 c7 85 90 f8 ff ff 	movq   $0x0,-0x770(%rbp)
    c6d6:	00 00 00 00 
    c6da:	80 bd ce f7 ff ff 00 	cmpb   $0x0,-0x832(%rbp)
    c6e1:	0f 84 31 09 00 00    	je     d018 <func_102+0xad9>
    c6e7:	c6 85 cf f7 ff ff 47 	movb   $0x47,-0x831(%rbp)
    c6ee:	48 8d 85 60 f8 ff ff 	lea    -0x7a0(%rbp),%rax
    c6f5:	48 89 85 78 f8 ff ff 	mov    %rax,-0x788(%rbp)
    c6fc:	48 8d 85 78 f8 ff ff 	lea    -0x788(%rbp),%rax
    c703:	48 89 85 80 f8 ff ff 	mov    %rax,-0x780(%rbp)
    c70a:	48 8d 05 ef 3b 01 00 	lea    0x13bef(%rip),%rax        # 20300 <g_197>
    c711:	48 89 85 d0 f8 ff ff 	mov    %rax,-0x730(%rbp)
    c718:	48 8d 05 99 a7 01 00 	lea    0x1a799(%rip),%rax        # 26eb8 <g_893>
    c71f:	48 89 85 70 f9 ff ff 	mov    %rax,-0x690(%rbp)
    c726:	48 c7 85 78 f9 ff ff 	movq   $0x0,-0x688(%rbp)
    c72d:	00 00 00 00 
    c731:	48 8d 05 80 a7 01 00 	lea    0x1a780(%rip),%rax        # 26eb8 <g_893>
    c738:	48 89 85 80 f9 ff ff 	mov    %rax,-0x680(%rbp)
    c73f:	48 c7 85 88 f9 ff ff 	movq   $0x0,-0x678(%rbp)
    c746:	00 00 00 00 
    c74a:	c7 85 e4 f7 ff ff 09 	movl   $0x9,-0x81c(%rbp)
    c751:	00 00 00 
    c754:	48 8d 05 61 3f 01 00 	lea    0x13f61(%rip),%rax        # 206bc <g_459>
    c75b:	48 89 85 88 f8 ff ff 	mov    %rax,-0x778(%rbp)
    c762:	48 8d 85 50 f9 ff ff 	lea    -0x6b0(%rbp),%rax
    c769:	48 83 c0 08          	add    $0x8,%rax
    c76d:	48 89 85 d8 f8 ff ff 	mov    %rax,-0x728(%rbp)
    c774:	c7 85 e8 f7 ff ff 00 	movl   $0x0,-0x818(%rbp)
    c77b:	00 00 00 
    c77e:	eb 51                	jmp    c7d1 <func_102+0x292>
    c780:	c7 85 dc f7 ff ff 00 	movl   $0x0,-0x824(%rbp)
    c787:	00 00 00 
    c78a:	eb 35                	jmp    c7c1 <func_102+0x282>
    c78c:	8b 85 dc f7 ff ff    	mov    -0x824(%rbp),%eax
    c792:	48 63 c8             	movslq %eax,%rcx
    c795:	8b 85 e8 f7 ff ff    	mov    -0x818(%rbp),%eax
    c79b:	48 63 d0             	movslq %eax,%rdx
    c79e:	48 89 d0             	mov    %rdx,%rax
    c7a1:	48 01 c0             	add    %rax,%rax
    c7a4:	48 01 d0             	add    %rdx,%rax
    c7a7:	48 8d 14 08          	lea    (%rax,%rcx,1),%rdx
    c7ab:	48 8d 85 88 f8 ff ff 	lea    -0x778(%rbp),%rax
    c7b2:	48 89 84 d5 50 f9 ff 	mov    %rax,-0x6b0(%rbp,%rdx,8)
    c7b9:	ff 
    c7ba:	83 85 dc f7 ff ff 01 	addl   $0x1,-0x824(%rbp)
    c7c1:	83 bd dc f7 ff ff 02 	cmpl   $0x2,-0x824(%rbp)
    c7c8:	7e c2                	jle    c78c <func_102+0x24d>
    c7ca:	83 85 e8 f7 ff ff 01 	addl   $0x1,-0x818(%rbp)
    c7d1:	83 bd e8 f7 ff ff 00 	cmpl   $0x0,-0x818(%rbp)
    c7d8:	7e a6                	jle    c780 <func_102+0x241>
    c7da:	48 8b 85 b0 f7 ff ff 	mov    -0x850(%rbp),%rax
    c7e1:	8b 00                	mov    (%rax),%eax
    c7e3:	35 40 98 21 9e       	xor    $0x9e219840,%eax
    c7e8:	89 c2                	mov    %eax,%edx
    c7ea:	48 8b 85 b0 f7 ff ff 	mov    -0x850(%rbp),%rax
    c7f1:	89 10                	mov    %edx,(%rax)
    c7f3:	48 8b 85 b0 f7 ff ff 	mov    -0x850(%rbp),%rax
    c7fa:	8b 00                	mov    (%rax),%eax
    c7fc:	85 c0                	test   %eax,%eax
    c7fe:	74 17                	je     c817 <func_102+0x2d8>
    c800:	48 8b 85 b0 f7 ff ff 	mov    -0x850(%rbp),%rax
    c807:	8b 10                	mov    (%rax),%edx
    c809:	48 8b 85 b0 f7 ff ff 	mov    -0x850(%rbp),%rax
    c810:	89 10                	mov    %edx,(%rax)
    c812:	e9 35 04 00 00       	jmpq   cc4c <func_102+0x70d>
    c817:	c7 85 28 f8 ff ff 00 	movl   $0x0,-0x7d8(%rbp)
    c81e:	00 00 00 
    c821:	48 8d 05 b0 3a 01 00 	lea    0x13ab0(%rip),%rax        # 202d8 <g_142>
    c828:	48 89 85 e0 f8 ff ff 	mov    %rax,-0x720(%rbp)
    c82f:	48 8d 85 70 f8 ff ff 	lea    -0x790(%rbp),%rax
    c836:	48 89 85 e8 f8 ff ff 	mov    %rax,-0x718(%rbp)
    c83d:	48 8d 85 60 f8 ff ff 	lea    -0x7a0(%rbp),%rax
    c844:	48 89 85 f0 f8 ff ff 	mov    %rax,-0x710(%rbp)
    c84b:	48 8d 85 80 f8 ff ff 	lea    -0x780(%rbp),%rax
    c852:	48 89 85 f8 f8 ff ff 	mov    %rax,-0x708(%rbp)
    c859:	48 8d 05 e0 aa 01 00 	lea    0x1aae0(%rip),%rax        # 27340 <g_1344+0xc0>
    c860:	48 89 85 00 f9 ff ff 	mov    %rax,-0x700(%rbp)
    c867:	c7 85 e0 f7 ff ff 00 	movl   $0x0,-0x820(%rbp)
    c86e:	00 00 00 
    c871:	eb 1b                	jmp    c88e <func_102+0x34f>
    c873:	8b 85 e0 f7 ff ff    	mov    -0x820(%rbp),%eax
    c879:	48 98                	cltq   
    c87b:	48 c7 84 c5 20 fa ff 	movq   $0x0,-0x5e0(%rbp,%rax,8)
    c882:	ff 00 00 00 00 
    c887:	83 85 e0 f7 ff ff 01 	addl   $0x1,-0x820(%rbp)
    c88e:	83 bd e0 f7 ff ff 01 	cmpl   $0x1,-0x820(%rbp)
    c895:	7e dc                	jle    c873 <func_102+0x334>
    c897:	83 ad 28 f8 ff ff 01 	subl   $0x1,-0x7d8(%rbp)
    c89e:	48 8b 85 a0 f7 ff ff 	mov    -0x860(%rbp),%rax
    c8a5:	48 8b 00             	mov    (%rax),%rax
    c8a8:	89 c3                	mov    %eax,%ebx
    c8aa:	48 8b 05 e7 a4 01 00 	mov    0x1a4e7(%rip),%rax        # 26d98 <g_466>
    c8b1:	8b 00                	mov    (%rax),%eax
    c8b3:	8b 95 b8 f9 ff ff    	mov    -0x648(%rbp),%edx
    c8b9:	89 c6                	mov    %eax,%esi
    c8bb:	89 d7                	mov    %edx,%edi
    c8bd:	e8 3b a6 ff ff       	callq  6efd <safe_mod_func_uint32_t_u_u>
    c8c2:	09 d8                	or     %ebx,%eax
    c8c4:	0f b7 c0             	movzwl %ax,%eax
    c8c7:	8b 95 28 f8 ff ff    	mov    -0x7d8(%rbp),%edx
    c8cd:	89 d6                	mov    %edx,%esi
    c8cf:	89 c7                	mov    %eax,%edi
    c8d1:	e8 a4 a5 ff ff       	callq  6e7a <safe_rshift_func_uint16_t_u_u>
    c8d6:	0f be 9d cf f7 ff ff 	movsbl -0x831(%rbp),%ebx
    c8dd:	4c 8b 2d a4 41 01 00 	mov    0x141a4(%rip),%r13        # 20a88 <g_921>
    c8e4:	8b 05 4a 44 01 00    	mov    0x1444a(%rip),%eax        # 20d34 <g_1235+0x4>
    c8ea:	44 0f b7 e0          	movzwl %ax,%r12d
    c8ee:	48 8b 85 b8 f7 ff ff 	mov    -0x848(%rbp),%rax
    c8f5:	41 89 c6             	mov    %eax,%r14d
    c8f8:	48 8b 85 58 f8 ff ff 	mov    -0x7a8(%rbp),%rax
    c8ff:	89 c6                	mov    %eax,%esi
    c901:	bf fe 00 00 00       	mov    $0xfe,%edi
    c906:	e8 82 a3 ff ff       	callq  6c8d <safe_rshift_func_uint8_t_u_s>
    c90b:	0f b6 d0             	movzbl %al,%edx
    c90e:	0f b7 05 b5 b0 01 00 	movzwl 0x1b0b5(%rip),%eax        # 279ca <g_371>
    c915:	66 39 c2             	cmp    %ax,%dx
    c918:	0f 93 c0             	setae  %al
    c91b:	0f b6 c0             	movzbl %al,%eax
    c91e:	be dc ff ff ff       	mov    $0xffffffdc,%esi
    c923:	89 c7                	mov    %eax,%edi
    c925:	e8 e8 98 ff ff       	callq  6212 <safe_mul_func_int8_t_s_s>
    c92a:	0f be c0             	movsbl %al,%eax
    c92d:	44 89 f6             	mov    %r14d,%esi
    c930:	89 c7                	mov    %eax,%edi
    c932:	e8 ce 9c ff ff       	callq  6605 <safe_sub_func_int32_t_s_s>
    c937:	be f4 15 3b fa       	mov    $0xfa3b15f4,%esi
    c93c:	89 c7                	mov    %eax,%edi
    c93e:	e8 bc 9d ff ff       	callq  66ff <safe_div_func_int32_t_s_s>
    c943:	44 89 e6             	mov    %r12d,%esi
    c946:	bf 01 00 00 00       	mov    $0x1,%edi
    c94b:	e8 0c a4 ff ff       	callq  6d5c <safe_mod_func_uint16_t_u_u>
    c950:	66 85 c0             	test   %ax,%ax
    c953:	0f 95 c0             	setne  %al
    c956:	0f b6 c0             	movzbl %al,%eax
    c959:	4c 89 ea             	mov    %r13,%rdx
    c95c:	48 09 c2             	or     %rax,%rdx
    c95f:	48 8b 85 a0 f7 ff ff 	mov    -0x860(%rbp),%rax
    c966:	48 8b 00             	mov    (%rax),%rax
    c969:	48 21 c2             	and    %rax,%rdx
    c96c:	48 8b 85 a0 f7 ff ff 	mov    -0x860(%rbp),%rax
    c973:	48 8b 00             	mov    (%rax),%rax
    c976:	48 39 c2             	cmp    %rax,%rdx
    c979:	0f 97 c0             	seta   %al
    c97c:	0f b6 c0             	movzbl %al,%eax
    c97f:	89 de                	mov    %ebx,%esi
    c981:	89 c7                	mov    %eax,%edi
    c983:	e8 2b 9a ff ff       	callq  63b3 <safe_add_func_int16_t_s_s>
    c988:	0f b6 c0             	movzbl %al,%eax
    c98b:	be 00 00 00 00       	mov    $0x0,%esi
    c990:	89 c7                	mov    %eax,%edi
    c992:	e8 6e a2 ff ff       	callq  6c05 <safe_lshift_func_uint8_t_u_s>
    c997:	0f b6 d0             	movzbl %al,%edx
    c99a:	48 8b 85 b0 f7 ff ff 	mov    -0x850(%rbp),%rax
    c9a1:	8b 00                	mov    (%rax),%eax
    c9a3:	89 d6                	mov    %edx,%esi
    c9a5:	89 c7                	mov    %eax,%edi
    c9a7:	e8 53 9d ff ff       	callq  66ff <safe_div_func_int32_t_s_s>
    c9ac:	48 8b 95 e0 f8 ff ff 	mov    -0x720(%rbp),%rdx
    c9b3:	8b 12                	mov    (%rdx),%edx
    c9b5:	21 c2                	and    %eax,%edx
    c9b7:	48 8b 85 e0 f8 ff ff 	mov    -0x720(%rbp),%rax
    c9be:	89 10                	mov    %edx,(%rax)
    c9c0:	0f b6 9d ac f7 ff ff 	movzbl -0x854(%rbp),%ebx
    c9c7:	48 8b 05 ea a4 01 00 	mov    0x1a4ea(%rip),%rax        # 26eb8 <g_893>
    c9ce:	0f b6 00             	movzbl (%rax),%eax
    c9d1:	84 c0                	test   %al,%al
    c9d3:	75 3b                	jne    ca10 <func_102+0x4d1>
    c9d5:	48 8b 95 70 f8 ff ff 	mov    -0x790(%rbp),%rdx
    c9dc:	48 8b 85 e8 f8 ff ff 	mov    -0x718(%rbp),%rax
    c9e3:	48 89 10             	mov    %rdx,(%rax)
    c9e6:	48 8b 85 e8 f8 ff ff 	mov    -0x718(%rbp),%rax
    c9ed:	48 8b 08             	mov    (%rax),%rcx
    c9f0:	48 8b 95 60 f8 ff ff 	mov    -0x7a0(%rbp),%rdx
    c9f7:	48 8b 85 f0 f8 ff ff 	mov    -0x710(%rbp),%rax
    c9fe:	48 89 10             	mov    %rdx,(%rax)
    ca01:	48 8b 85 f0 f8 ff ff 	mov    -0x710(%rbp),%rax
    ca08:	48 8b 00             	mov    (%rax),%rax
    ca0b:	48 39 c1             	cmp    %rax,%rcx
    ca0e:	74 7c                	je     ca8c <func_102+0x54d>
    ca10:	0f b7 05 09 3c 01 00 	movzwl 0x13c09(%rip),%eax        # 20620 <g_381>
    ca17:	44 0f b7 e0          	movzwl %ax,%r12d
    ca1b:	48 8b 85 e0 f8 ff ff 	mov    -0x720(%rbp),%rax
    ca22:	8b 00                	mov    (%rax),%eax
    ca24:	85 c0                	test   %eax,%eax
    ca26:	75 3c                	jne    ca64 <func_102+0x525>
    ca28:	8b 85 a8 f7 ff ff    	mov    -0x858(%rbp),%eax
    ca2e:	41 89 c5             	mov    %eax,%r13d
    ca31:	0f be 85 cf f7 ff ff 	movsbl -0x831(%rbp),%eax
    ca38:	be f4 ff ff ff       	mov    $0xfffffff4,%esi
    ca3d:	89 c7                	mov    %eax,%edi
    ca3f:	e8 90 97 ff ff       	callq  61d4 <safe_add_func_int8_t_s_s>
    ca44:	0f be c0             	movsbl %al,%eax
    ca47:	25 63 4c 00 00       	and    $0x4c63,%eax
    ca4c:	44 89 ee             	mov    %r13d,%esi
    ca4f:	89 c7                	mov    %eax,%edi
    ca51:	e8 8b 9a ff ff       	callq  64e1 <safe_lshift_func_int16_t_s_u>
    ca56:	0f bf d0             	movswl %ax,%edx
    ca59:	48 8b 85 e0 f8 ff ff 	mov    -0x720(%rbp),%rax
    ca60:	8b 00                	mov    (%rax),%eax
    ca62:	39 c2                	cmp    %eax,%edx
    ca64:	44 89 e6             	mov    %r12d,%esi
    ca67:	bf 01 00 00 00       	mov    $0x1,%edi
    ca6c:	e8 b9 9a ff ff       	callq  652a <safe_rshift_func_int16_t_s_s>
    ca71:	89 c2                	mov    %eax,%edx
    ca73:	48 8b 05 be a3 01 00 	mov    0x1a3be(%rip),%rax        # 26e38 <g_682>
    ca7a:	0f bf d2             	movswl %dx,%edx
    ca7d:	89 10                	mov    %edx,(%rax)
    ca7f:	8b 00                	mov    (%rax),%eax
    ca81:	85 c0                	test   %eax,%eax
    ca83:	74 07                	je     ca8c <func_102+0x54d>
    ca85:	b8 01 00 00 00       	mov    $0x1,%eax
    ca8a:	eb 05                	jmp    ca91 <func_102+0x552>
    ca8c:	b8 00 00 00 00       	mov    $0x0,%eax
    ca91:	89 de                	mov    %ebx,%esi
    ca93:	89 c7                	mov    %eax,%edi
    ca95:	e8 1e a4 ff ff       	callq  6eb8 <safe_add_func_uint32_t_u_u>
    ca9a:	0f b6 d0             	movzbl %al,%edx
    ca9d:	8b 85 b8 f9 ff ff    	mov    -0x648(%rbp),%eax
    caa3:	0f b6 c0             	movzbl %al,%eax
    caa6:	89 d6                	mov    %edx,%esi
    caa8:	89 c7                	mov    %eax,%edi
    caaa:	e8 e4 a0 ff ff       	callq  6b93 <safe_mul_func_uint8_t_u_u>
    caaf:	be 03 00 00 00       	mov    $0x3,%esi
    cab4:	bf 5b aa 00 00       	mov    $0xaa5b,%edi
    cab9:	e8 00 a3 ff ff       	callq  6dbe <safe_lshift_func_uint16_t_u_s>
    cabe:	66 85 c0             	test   %ax,%ax
    cac1:	0f 94 c0             	sete   %al
    cac4:	0f b6 d0             	movzbl %al,%edx
    cac7:	8b 85 d8 f7 ff ff    	mov    -0x828(%rbp),%eax
    cacd:	09 d0                	or     %edx,%eax
    cacf:	89 85 d8 f7 ff ff    	mov    %eax,-0x828(%rbp)
    cad5:	48 8b 95 80 f8 ff ff 	mov    -0x780(%rbp),%rdx
    cadc:	48 8b 85 f8 f8 ff ff 	mov    -0x708(%rbp),%rax
    cae3:	48 89 10             	mov    %rdx,(%rax)
    cae6:	48 8b 85 f8 f8 ff ff 	mov    -0x708(%rbp),%rax
    caed:	4c 8b 30             	mov    (%rax),%r14
    caf0:	48 8b 85 b0 f7 ff ff 	mov    -0x850(%rbp),%rax
    caf7:	8b 00                	mov    (%rax),%eax
    caf9:	41 89 c7             	mov    %eax,%r15d
    cafc:	8b 1d aa 39 01 00    	mov    0x139aa(%rip),%ebx        # 204ac <g_312+0x2c>
    cb02:	48 8b 85 e0 f8 ff ff 	mov    -0x720(%rbp),%rax
    cb09:	8b 00                	mov    (%rax),%eax
    cb0b:	66 89 85 ae f7 ff ff 	mov    %ax,-0x852(%rbp)
    cb12:	8b 85 b8 f9 ff ff    	mov    -0x648(%rbp),%eax
    cb18:	4c 63 e0             	movslq %eax,%r12
    cb1b:	44 0f b6 ad ac f7 ff 	movzbl -0x854(%rbp),%r13d
    cb22:	ff 
    cb23:	48 8d 85 58 f8 ff ff 	lea    -0x7a8(%rbp),%rax
    cb2a:	48 39 85 a0 f7 ff ff 	cmp    %rax,-0x860(%rbp)
    cb31:	0f 94 c0             	sete   %al
    cb34:	0f b6 d0             	movzbl %al,%edx
    cb37:	0f be 85 ce f7 ff ff 	movsbl -0x832(%rbp),%eax
    cb3e:	89 d6                	mov    %edx,%esi
    cb40:	89 c7                	mov    %eax,%edi
    cb42:	e8 ae 98 ff ff       	callq  63f5 <safe_mul_func_int16_t_s_s>
    cb47:	0f bf d0             	movswl %ax,%edx
    cb4a:	0f be 8d cf f7 ff ff 	movsbl -0x831(%rbp),%ecx
    cb51:	8b 85 a8 f7 ff ff    	mov    -0x858(%rbp),%eax
    cb57:	39 c1                	cmp    %eax,%ecx
    cb59:	0f 95 c0             	setne  %al
    cb5c:	0f b6 c0             	movzbl %al,%eax
    cb5f:	09 d0                	or     %edx,%eax
    cb61:	83 f8 01             	cmp    $0x1,%eax
    cb64:	0f 9f c0             	setg   %al
    cb67:	0f b6 c0             	movzbl %al,%eax
    cb6a:	44 89 ee             	mov    %r13d,%esi
    cb6d:	89 c7                	mov    %eax,%edi
    cb6f:	e8 81 98 ff ff       	callq  63f5 <safe_mul_func_int16_t_s_s>
    cb74:	48 0f bf c0          	movswq %ax,%rax
    cb78:	48 c7 c6 ff ff ff ff 	mov    $0xffffffffffffffff,%rsi
    cb7f:	48 89 c7             	mov    %rax,%rdi
    cb82:	e8 28 a5 ff ff       	callq  70af <safe_div_func_uint64_t_u_u>
    cb87:	8b 95 b8 f9 ff ff    	mov    -0x648(%rbp),%edx
    cb8d:	48 63 d2             	movslq %edx,%rdx
    cb90:	48 39 d0             	cmp    %rdx,%rax
    cb93:	0f 92 c0             	setb   %al
    cb96:	0f b6 d0             	movzbl %al,%edx
    cb99:	48 8b 85 b0 f7 ff ff 	mov    -0x850(%rbp),%rax
    cba0:	8b 00                	mov    (%rax),%eax
    cba2:	31 d0                	xor    %edx,%eax
    cba4:	0f bf d0             	movswl %ax,%edx
    cba7:	8b 85 a8 f7 ff ff    	mov    -0x858(%rbp),%eax
    cbad:	98                   	cwtl   
    cbae:	89 d6                	mov    %edx,%esi
    cbb0:	89 c7                	mov    %eax,%edi
    cbb2:	e8 9e 98 ff ff       	callq  6455 <safe_div_func_int16_t_s_s>
    cbb7:	48 0f bf c0          	movswq %ax,%rax
    cbbb:	4c 89 e6             	mov    %r12,%rsi
    cbbe:	48 89 c7             	mov    %rax,%rdi
    cbc1:	e8 68 a4 ff ff       	callq  702e <safe_add_func_uint64_t_u_u>
    cbc6:	48 85 c0             	test   %rax,%rax
    cbc9:	75 09                	jne    cbd4 <func_102+0x695>
    cbcb:	80 bd ac f7 ff ff 00 	cmpb   $0x0,-0x854(%rbp)
    cbd2:	74 07                	je     cbdb <func_102+0x69c>
    cbd4:	b8 01 00 00 00       	mov    $0x1,%eax
    cbd9:	eb 05                	jmp    cbe0 <func_102+0x6a1>
    cbdb:	b8 00 00 00 00       	mov    $0x0,%eax
    cbe0:	3d e7 cf 00 00       	cmp    $0xcfe7,%eax
    cbe5:	0f 9e c0             	setle  %al
    cbe8:	0f b6 c0             	movzbl %al,%eax
    cbeb:	66 23 85 ae f7 ff ff 	and    -0x852(%rbp),%ax
    cbf2:	98                   	cwtl   
    cbf3:	89 de                	mov    %ebx,%esi
    cbf5:	89 c7                	mov    %eax,%edi
    cbf7:	e8 96 98 ff ff       	callq  6492 <safe_lshift_func_int16_t_s_s>
    cbfc:	f7 d0                	not    %eax
    cbfe:	0f be c0             	movsbl %al,%eax
    cc01:	be 03 00 00 00       	mov    $0x3,%esi
    cc06:	89 c7                	mov    %eax,%edi
    cc08:	e8 28 97 ff ff       	callq  6335 <safe_rshift_func_int8_t_s_s>
    cc0d:	0f be c0             	movsbl %al,%eax
    cc10:	44 89 fe             	mov    %r15d,%esi
    cc13:	89 c7                	mov    %eax,%edi
    cc15:	e8 b6 a2 ff ff       	callq  6ed0 <safe_sub_func_uint32_t_u_u>
    cc1a:	48 8b 15 1f a7 01 00 	mov    0x1a71f(%rip),%rdx        # 27340 <g_1344+0xc0>
    cc21:	48 8b 85 00 f9 ff ff 	mov    -0x700(%rbp),%rax
    cc28:	48 89 10             	mov    %rdx,(%rax)
    cc2b:	48 8b 85 00 f9 ff ff 	mov    -0x700(%rbp),%rax
    cc32:	48 8b 00             	mov    (%rax),%rax
    cc35:	49 39 c6             	cmp    %rax,%r14
    cc38:	0f 94 c0             	sete   %al
    cc3b:	0f b6 d0             	movzbl %al,%edx
    cc3e:	8b 85 d8 f7 ff ff    	mov    -0x828(%rbp),%eax
    cc44:	09 d0                	or     %edx,%eax
    cc46:	89 85 d8 f7 ff ff    	mov    %eax,-0x828(%rbp)
    cc4c:	48 8b 05 0d a8 01 00 	mov    0x1a80d(%rip),%rax        # 27460 <g_1348>
    cc53:	8b 08                	mov    (%rax),%ecx
    cc55:	48 8b 95 b0 f7 ff ff 	mov    -0x850(%rbp),%rdx
    cc5c:	8b 12                	mov    (%rdx),%edx
    cc5e:	21 ca                	and    %ecx,%edx
    cc60:	89 10                	mov    %edx,(%rax)
    cc62:	48 8b 05 7f a3 01 00 	mov    0x1a37f(%rip),%rax        # 26fe8 <g_1208>
    cc69:	48 8b 95 d0 f8 ff ff 	mov    -0x730(%rbp),%rdx
    cc70:	48 89 10             	mov    %rdx,(%rax)
    cc73:	66 c7 05 04 3e 01 00 	movw   $0x0,0x13e04(%rip)        # 20a80 <g_870>
    cc7a:	00 00 
    cc7c:	e9 81 03 00 00       	jmpq   d002 <func_102+0xac3>
    cc81:	c7 85 2c f8 ff ff e0 	movl   $0x69f0de0,-0x7d4(%rbp)
    cc88:	0d 9f 06 
    cc8b:	48 8d 05 2e a2 01 00 	lea    0x1a22e(%rip),%rax        # 26ec0 <g_892>
    cc92:	48 89 85 08 f9 ff ff 	mov    %rax,-0x6f8(%rbp)
    cc99:	48 b8 19 95 61 42 40 	movabs $0x36be7d4042619519,%rax
    cca0:	7d be 36 
    cca3:	48 89 85 10 f9 ff ff 	mov    %rax,-0x6f0(%rbp)
    ccaa:	48 8b 85 80 f8 ff ff 	mov    -0x780(%rbp),%rax
    ccb1:	48 8d 95 70 f8 ff ff 	lea    -0x790(%rbp),%rdx
    ccb8:	48 89 10             	mov    %rdx,(%rax)
    ccbb:	48 8b 85 b0 f7 ff ff 	mov    -0x850(%rbp),%rax
    ccc2:	8b 10                	mov    (%rax),%edx
    ccc4:	8b 85 d4 f7 ff ff    	mov    -0x82c(%rbp),%eax
    ccca:	31 d0                	xor    %edx,%eax
    cccc:	89 85 d4 f7 ff ff    	mov    %eax,-0x82c(%rbp)
    ccd2:	48 8b 85 b0 f7 ff ff 	mov    -0x850(%rbp),%rax
    ccd9:	8b 00                	mov    (%rax),%eax
    ccdb:	85 c0                	test   %eax,%eax
    ccdd:	0f 84 66 02 00 00    	je     cf49 <func_102+0xa0a>
    cce3:	c7 85 30 f8 ff ff f7 	movl   $0xfffffff7,-0x7d0(%rbp)
    ccea:	ff ff ff 
    cced:	48 8d 85 20 fa ff ff 	lea    -0x5e0(%rbp),%rax
    ccf4:	48 8d 15 a5 93 01 00 	lea    0x193a5(%rip),%rdx        # 260a0 <g_2314+0x11f8>
    ccfb:	b9 69 00 00 00       	mov    $0x69,%ecx
    cd00:	48 89 c7             	mov    %rax,%rdi
    cd03:	48 89 d6             	mov    %rdx,%rsi
    cd06:	f3 48 a5             	rep movsq %ds:(%rsi),%es:(%rdi)
    cd09:	80 bd cf f7 ff ff 00 	cmpb   $0x0,-0x831(%rbp)
    cd10:	0f 94 c0             	sete   %al
    cd13:	0f b6 d8             	movzbl %al,%ebx
    cd16:	48 8b 05 9b a1 01 00 	mov    0x1a19b(%rip),%rax        # 26eb8 <g_893>
    cd1d:	0f b6 00             	movzbl (%rax),%eax
    cd20:	0f b6 c0             	movzbl %al,%eax
    cd23:	8b 8d b8 f9 ff ff    	mov    -0x648(%rbp),%ecx
    cd29:	8b 95 a8 f7 ff ff    	mov    -0x858(%rbp),%edx
    cd2f:	39 d1                	cmp    %edx,%ecx
    cd31:	7d 07                	jge    cd3a <func_102+0x7fb>
    cd33:	ba f7 ff ff ff       	mov    $0xfffffff7,%edx
    cd38:	eb 05                	jmp    cd3f <func_102+0x800>
    cd3a:	ba f6 ff ff ff       	mov    $0xfffffff6,%edx
    cd3f:	89 c6                	mov    %eax,%esi
    cd41:	89 d7                	mov    %edx,%edi
    cd43:	e8 a6 95 ff ff       	callq  62ee <safe_lshift_func_int8_t_s_u>
    cd48:	0f be c0             	movsbl %al,%eax
    cd4b:	21 d8                	and    %ebx,%eax
    cd4d:	48 63 d0             	movslq %eax,%rdx
    cd50:	48 8b 8d 78 f9 ff ff 	mov    -0x688(%rbp),%rcx
    cd57:	48 8b 85 58 fd ff ff 	mov    -0x2a8(%rbp),%rax
    cd5e:	48 39 c1             	cmp    %rax,%rcx
    cd61:	0f 95 c0             	setne  %al
    cd64:	0f b6 c0             	movzbl %al,%eax
    cd67:	48 89 d6             	mov    %rdx,%rsi
    cd6a:	48 89 c7             	mov    %rax,%rdi
    cd6d:	e8 42 9c ff ff       	callq  69b4 <safe_mod_func_int64_t_s_s>
    cd72:	0f b7 c0             	movzwl %ax,%eax
    cd75:	be 0c 00 00 00       	mov    $0xc,%esi
    cd7a:	89 c7                	mov    %eax,%edi
    cd7c:	e8 f9 a0 ff ff       	callq  6e7a <safe_rshift_func_uint16_t_u_u>
    cd81:	80 bd ac f7 ff ff 00 	cmpb   $0x0,-0x854(%rbp)
    cd88:	48 8b 85 b0 f7 ff ff 	mov    -0x850(%rbp),%rax
    cd8f:	c7 00 01 00 00 00    	movl   $0x1,(%rax)
    cd95:	8b 85 a8 f7 ff ff    	mov    -0x858(%rbp),%eax
    cd9b:	0f bf d8             	movswl %ax,%ebx
    cd9e:	48 83 bd d8 f8 ff ff 	cmpq   $0x0,-0x728(%rbp)
    cda5:	00 
    cda6:	0f 94 c0             	sete   %al
    cda9:	44 0f b6 f8          	movzbl %al,%r15d
    cdad:	48 8b 05 14 a1 01 00 	mov    0x1a114(%rip),%rax        # 26ec8 <g_891>
    cdb4:	48 8b 00             	mov    (%rax),%rax
    cdb7:	48 8b 00             	mov    (%rax),%rax
    cdba:	0f b6 00             	movzbl (%rax),%eax
    cdbd:	44 0f b6 e0          	movzbl %al,%r12d
    cdc1:	48 8b 05 f8 a0 01 00 	mov    0x1a0f8(%rip),%rax        # 26ec0 <g_892>
    cdc8:	48 8b 00             	mov    (%rax),%rax
    cdcb:	0f b6 00             	movzbl (%rax),%eax
    cdce:	44 0f b6 e8          	movzbl %al,%r13d
    cdd2:	44 8b b5 b8 f9 ff ff 	mov    -0x648(%rbp),%r14d
    cdd9:	48 8b 05 d8 a0 01 00 	mov    0x1a0d8(%rip),%rax        # 26eb8 <g_893>
    cde0:	0f b6 00             	movzbl (%rax),%eax
    cde3:	0f be d0             	movsbl %al,%edx
    cde6:	48 8b 05 3b a0 01 00 	mov    0x1a03b(%rip),%rax        # 26e28 <g_606>
    cded:	0f b6 00             	movzbl (%rax),%eax
    cdf0:	0f be c0             	movsbl %al,%eax
    cdf3:	89 d6                	mov    %edx,%esi
    cdf5:	89 c7                	mov    %eax,%edi
    cdf7:	e8 16 94 ff ff       	callq  6212 <safe_mul_func_int8_t_s_s>
    cdfc:	66 98                	cbtw   
    cdfe:	0f b7 c0             	movzwl %ax,%eax
    ce01:	44 89 f6             	mov    %r14d,%esi
    ce04:	89 c7                	mov    %eax,%edi
    ce06:	e8 b3 9f ff ff       	callq  6dbe <safe_lshift_func_uint16_t_u_s>
    ce0b:	0f b7 c0             	movzwl %ax,%eax
    ce0e:	be 07 00 00 00       	mov    $0x7,%esi
    ce13:	89 c7                	mov    %eax,%edi
    ce15:	e8 b6 a0 ff ff       	callq  6ed0 <safe_sub_func_uint32_t_u_u>
    ce1a:	48 8b 15 9f a0 01 00 	mov    0x1a09f(%rip),%rdx        # 26ec0 <g_892>
    ce21:	48 8b 12             	mov    (%rdx),%rdx
    ce24:	0f b6 12             	movzbl (%rdx),%edx
    ce27:	0f b6 d2             	movzbl %dl,%edx
    ce2a:	39 d0                	cmp    %edx,%eax
    ce2c:	0f 96 c0             	setbe  %al
    ce2f:	0f b6 c0             	movzbl %al,%eax
    ce32:	44 89 ee             	mov    %r13d,%esi
    ce35:	89 c7                	mov    %eax,%edi
    ce37:	e8 9f 9d ff ff       	callq  6bdb <safe_div_func_uint8_t_u_u>
    ce3c:	44 89 e6             	mov    %r12d,%esi
    ce3f:	bf 01 00 00 00       	mov    $0x1,%edi
    ce44:	e8 2f 9d ff ff       	callq  6b78 <safe_sub_func_uint8_t_u_u>
    ce49:	0f b6 c0             	movzbl %al,%eax
    ce4c:	44 21 f8             	and    %r15d,%eax
    ce4f:	0f b7 c0             	movzwl %ax,%eax
    ce52:	8b 95 30 f8 ff ff    	mov    -0x7d0(%rbp),%edx
    ce58:	89 d6                	mov    %edx,%esi
    ce5a:	89 c7                	mov    %eax,%edi
    ce5c:	e8 a5 9f ff ff       	callq  6e06 <safe_lshift_func_uint16_t_u_u>
    ce61:	0f b7 d0             	movzwl %ax,%edx
    ce64:	0f be 85 cf f7 ff ff 	movsbl -0x831(%rbp),%eax
    ce6b:	31 d0                	xor    %edx,%eax
    ce6d:	89 c2                	mov    %eax,%edx
    ce6f:	48 8b 05 c2 9f 01 00 	mov    0x19fc2(%rip),%rax        # 26e38 <g_682>
    ce76:	8b 00                	mov    (%rax),%eax
    ce78:	39 c2                	cmp    %eax,%edx
    ce7a:	0f 97 c0             	seta   %al
    ce7d:	0f b6 c0             	movzbl %al,%eax
    ce80:	f7 d0                	not    %eax
    ce82:	48 98                	cltq   
    ce84:	48 39 85 10 f9 ff ff 	cmp    %rax,-0x6f0(%rbp)
    ce8b:	0f 93 c0             	setae  %al
    ce8e:	0f b6 d0             	movzbl %al,%edx
    ce91:	48 8b 85 b0 f7 ff ff 	mov    -0x850(%rbp),%rax
    ce98:	8b 00                	mov    (%rax),%eax
    ce9a:	89 d6                	mov    %edx,%esi
    ce9c:	89 c7                	mov    %eax,%edi
    ce9e:	e8 9f 97 ff ff       	callq  6642 <safe_mul_func_int32_t_s_s>
    cea3:	48 63 d0             	movslq %eax,%rdx
    cea6:	48 8b 05 43 a0 01 00 	mov    0x1a043(%rip),%rax        # 26ef0 <g_958>
    cead:	48 8b 00             	mov    (%rax),%rax
    ceb0:	48 09 d0             	or     %rdx,%rax
    ceb3:	49 89 c4             	mov    %rax,%r12
    ceb6:	0f b6 95 ac f7 ff ff 	movzbl -0x854(%rbp),%edx
    cebd:	48 8b 05 b4 9e 01 00 	mov    0x19eb4(%rip),%rax        # 26d78 <g_254>
    cec4:	48 8b 00             	mov    (%rax),%rax
    cec7:	0f b7 00             	movzwl (%rax),%eax
    ceca:	0f b7 c0             	movzwl %ax,%eax
    cecd:	09 85 e4 f7 ff ff    	or     %eax,-0x81c(%rbp)
    ced3:	8b 85 e4 f7 ff ff    	mov    -0x81c(%rbp),%eax
    ced9:	0f b7 c0             	movzwl %ax,%eax
    cedc:	89 d6                	mov    %edx,%esi
    cede:	89 c7                	mov    %eax,%edi
    cee0:	e8 1a 9e ff ff       	callq  6cff <safe_add_func_uint16_t_u_u>
    cee5:	0f b7 c0             	movzwl %ax,%eax
    cee8:	ba 64 1c ee f7       	mov    $0xf7ee1c64,%edx
    ceed:	48 09 d0             	or     %rdx,%rax
    cef0:	48 c7 c6 ff ff ff ff 	mov    $0xffffffffffffffff,%rsi
    cef7:	48 89 c7             	mov    %rax,%rdi
    cefa:	e8 b5 9a ff ff       	callq  69b4 <safe_mod_func_int64_t_s_s>
    ceff:	4c 89 e6             	mov    %r12,%rsi
    cf02:	48 89 c7             	mov    %rax,%rdi
    cf05:	e8 41 a1 ff ff       	callq  704b <safe_sub_func_uint64_t_u_u>
    cf0a:	48 8b 15 17 9f 01 00 	mov    0x19f17(%rip),%rdx        # 26e28 <g_606>
    cf11:	0f b6 12             	movzbl (%rdx),%edx
    cf14:	48 0f be d2          	movsbq %dl,%rdx
    cf18:	48 39 d0             	cmp    %rdx,%rax
    cf1b:	0f 94 c0             	sete   %al
    cf1e:	0f b6 c0             	movzbl %al,%eax
    cf21:	89 de                	mov    %ebx,%esi
    cf23:	89 c7                	mov    %eax,%edi
    cf25:	e8 ec 94 ff ff       	callq  6416 <safe_mod_func_int16_t_s_s>
    cf2a:	0f bf d0             	movswl %ax,%edx
    cf2d:	48 8b 85 b0 f7 ff ff 	mov    -0x850(%rbp),%rax
    cf34:	89 10                	mov    %edx,(%rax)
    cf36:	8b 85 a0 f9 ff ff    	mov    -0x660(%rbp),%eax
    cf3c:	85 c0                	test   %eax,%eax
    cf3e:	0f 84 ad 00 00 00    	je     cff1 <func_102+0xab2>
    cf44:	e9 c6 03 00 00       	jmpq   d30f <func_102+0xdd0>
    cf49:	48 8d 85 d4 f7 ff ff 	lea    -0x82c(%rbp),%rax
    cf50:	48 89 85 18 f9 ff ff 	mov    %rax,-0x6e8(%rbp)
    cf57:	c7 85 ec f7 ff ff 00 	movl   $0x0,-0x814(%rbp)
    cf5e:	00 00 00 
    cf61:	eb 79                	jmp    cfdc <func_102+0xa9d>
    cf63:	c7 85 f0 f7 ff ff 00 	movl   $0x0,-0x810(%rbp)
    cf6a:	00 00 00 
    cf6d:	eb 5d                	jmp    cfcc <func_102+0xa8d>
    cf6f:	c7 85 f4 f7 ff ff 00 	movl   $0x0,-0x80c(%rbp)
    cf76:	00 00 00 
    cf79:	eb 41                	jmp    cfbc <func_102+0xa7d>
    cf7b:	8b 85 f4 f7 ff ff    	mov    -0x80c(%rbp),%eax
    cf81:	48 63 c8             	movslq %eax,%rcx
    cf84:	8b 85 ec f7 ff ff    	mov    -0x814(%rbp),%eax
    cf8a:	48 63 d0             	movslq %eax,%rdx
    cf8d:	8b 85 f0 f7 ff ff    	mov    -0x810(%rbp),%eax
    cf93:	48 98                	cltq   
    cf95:	48 01 c2             	add    %rax,%rdx
    cf98:	48 89 d0             	mov    %rdx,%rax
    cf9b:	48 c1 e0 03          	shl    $0x3,%rax
    cf9f:	48 29 d0             	sub    %rdx,%rax
    cfa2:	48 8d 14 08          	lea    (%rax,%rcx,1),%rdx
    cfa6:	48 8d 85 d8 f7 ff ff 	lea    -0x828(%rbp),%rax
    cfad:	48 89 84 d5 20 fa ff 	mov    %rax,-0x5e0(%rbp,%rdx,8)
    cfb4:	ff 
    cfb5:	83 85 f4 f7 ff ff 01 	addl   $0x1,-0x80c(%rbp)
    cfbc:	83 bd f4 f7 ff ff 06 	cmpl   $0x6,-0x80c(%rbp)
    cfc3:	7e b6                	jle    cf7b <func_102+0xa3c>
    cfc5:	83 85 f0 f7 ff ff 01 	addl   $0x1,-0x810(%rbp)
    cfcc:	83 bd f0 f7 ff ff 00 	cmpl   $0x0,-0x810(%rbp)
    cfd3:	7e 9a                	jle    cf6f <func_102+0xa30>
    cfd5:	83 85 ec f7 ff ff 01 	addl   $0x1,-0x814(%rbp)
    cfdc:	83 bd ec f7 ff ff 00 	cmpl   $0x0,-0x814(%rbp)
    cfe3:	0f 8e 7a ff ff ff    	jle    cf63 <func_102+0xa24>
    cfe9:	48 83 ad 90 f8 ff ff 	subq   $0x1,-0x770(%rbp)
    cff0:	01 
    cff1:	0f b7 05 88 3a 01 00 	movzwl 0x13a88(%rip),%eax        # 20a80 <g_870>
    cff8:	83 c0 01             	add    $0x1,%eax
    cffb:	66 89 05 7e 3a 01 00 	mov    %ax,0x13a7e(%rip)        # 20a80 <g_870>
    d002:	0f b7 05 77 3a 01 00 	movzwl 0x13a77(%rip),%eax        # 20a80 <g_870>
    d009:	66 83 f8 01          	cmp    $0x1,%ax
    d00d:	0f 86 6e fc ff ff    	jbe    cc81 <func_102+0x742>
    d013:	e9 f7 02 00 00       	jmpq   d30f <func_102+0xdd0>
    d018:	48 8d 05 51 9d 01 00 	lea    0x19d51(%rip),%rax        # 26d70 <g_255>
    d01f:	48 89 85 80 f8 ff ff 	mov    %rax,-0x780(%rbp)
    d026:	48 8d 85 80 f8 ff ff 	lea    -0x780(%rbp),%rax
    d02d:	48 89 85 88 f8 ff ff 	mov    %rax,-0x778(%rbp)
    d034:	c7 85 24 f8 ff ff fa 	movl   $0xfffffffa,-0x7dc(%rbp)
    d03b:	ff ff ff 
    d03e:	48 8d 05 77 36 01 00 	lea    0x13677(%rip),%rax        # 206bc <g_459>
    d045:	48 89 85 c0 f8 ff ff 	mov    %rax,-0x740(%rbp)
    d04c:	48 8d 85 d4 f7 ff ff 	lea    -0x82c(%rbp),%rax
    d053:	48 89 85 c8 f8 ff ff 	mov    %rax,-0x738(%rbp)
    d05a:	c7 85 f8 f7 ff ff 00 	movl   $0x0,-0x808(%rbp)
    d061:	00 00 00 
    d064:	eb 1e                	jmp    d084 <func_102+0xb45>
    d066:	8b 85 f8 f7 ff ff    	mov    -0x808(%rbp),%eax
    d06c:	48 98                	cltq   
    d06e:	48 8d 95 88 f8 ff ff 	lea    -0x778(%rbp),%rdx
    d075:	48 89 94 c5 70 f9 ff 	mov    %rdx,-0x690(%rbp,%rax,8)
    d07c:	ff 
    d07d:	83 85 f8 f7 ff ff 01 	addl   $0x1,-0x808(%rbp)
    d084:	83 bd f8 f7 ff ff 01 	cmpl   $0x1,-0x808(%rbp)
    d08b:	7e d9                	jle    d066 <func_102+0xb27>
    d08d:	c7 85 f8 f7 ff ff 00 	movl   $0x0,-0x808(%rbp)
    d094:	00 00 00 
    d097:	eb 77                	jmp    d110 <func_102+0xbd1>
    d099:	c7 85 fc f7 ff ff 00 	movl   $0x0,-0x804(%rbp)
    d0a0:	00 00 00 
    d0a3:	eb 5b                	jmp    d100 <func_102+0xbc1>
    d0a5:	c7 85 00 f8 ff ff 00 	movl   $0x0,-0x800(%rbp)
    d0ac:	00 00 00 
    d0af:	eb 3f                	jmp    d0f0 <func_102+0xbb1>
    d0b1:	8b 85 00 f8 ff ff    	mov    -0x800(%rbp),%eax
    d0b7:	48 63 f0             	movslq %eax,%rsi
    d0ba:	8b 85 fc f7 ff ff    	mov    -0x804(%rbp),%eax
    d0c0:	48 63 c8             	movslq %eax,%rcx
    d0c3:	8b 85 f8 f7 ff ff    	mov    -0x808(%rbp),%eax
    d0c9:	48 63 d0             	movslq %eax,%rdx
    d0cc:	48 89 d0             	mov    %rdx,%rax
    d0cf:	48 01 c0             	add    %rax,%rax
    d0d2:	48 01 d0             	add    %rdx,%rax
    d0d5:	48 01 c0             	add    %rax,%rax
    d0d8:	48 01 f0             	add    %rsi,%rax
    d0db:	48 01 c8             	add    %rcx,%rax
    d0de:	c7 84 85 20 fa ff ff 	movl   $0x6bb71eff,-0x5e0(%rbp,%rax,4)
    d0e5:	ff 1e b7 6b 
    d0e9:	83 85 00 f8 ff ff 01 	addl   $0x1,-0x800(%rbp)
    d0f0:	83 bd 00 f8 ff ff 00 	cmpl   $0x0,-0x800(%rbp)
    d0f7:	7e b8                	jle    d0b1 <func_102+0xb72>
    d0f9:	83 85 fc f7 ff ff 01 	addl   $0x1,-0x804(%rbp)
    d100:	83 bd fc f7 ff ff 05 	cmpl   $0x5,-0x804(%rbp)
    d107:	7e 9c                	jle    d0a5 <func_102+0xb66>
    d109:	83 85 f8 f7 ff ff 01 	addl   $0x1,-0x808(%rbp)
    d110:	83 bd f8 f7 ff ff 03 	cmpl   $0x3,-0x808(%rbp)
    d117:	7e 80                	jle    d099 <func_102+0xb5a>
    d119:	8b 9d a8 f7 ff ff    	mov    -0x858(%rbp),%ebx
    d11f:	8b 85 a8 f7 ff ff    	mov    -0x858(%rbp),%eax
    d125:	83 c8 17             	or     $0x17,%eax
    d128:	89 c6                	mov    %eax,%esi
    d12a:	bf d8 ff ff ff       	mov    $0xffffffd8,%edi
    d12f:	e8 01 92 ff ff       	callq  6335 <safe_rshift_func_int8_t_s_s>
    d134:	0f be c0             	movsbl %al,%eax
    d137:	89 c6                	mov    %eax,%esi
    d139:	bf f4 fd b0 b5       	mov    $0xb5b0fdf4,%edi
    d13e:	e8 e2 9d ff ff       	callq  6f25 <safe_div_func_uint32_t_u_u>
    d143:	8b 95 58 fa ff ff    	mov    -0x5a8(%rbp),%edx
    d149:	31 d0                	xor    %edx,%eax
    d14b:	89 85 58 fa ff ff    	mov    %eax,-0x5a8(%rbp)
    d151:	8b 85 58 fa ff ff    	mov    -0x5a8(%rbp),%eax
    d157:	83 f8 01             	cmp    $0x1,%eax
    d15a:	7f 07                	jg     d163 <func_102+0xc24>
    d15c:	b8 ff 00 00 00       	mov    $0xff,%eax
    d161:	eb 05                	jmp    d168 <func_102+0xc29>
    d163:	b8 fe 00 00 00       	mov    $0xfe,%eax
    d168:	89 c2                	mov    %eax,%edx
    d16a:	8b 85 d8 f7 ff ff    	mov    -0x828(%rbp),%eax
    d170:	21 d0                	and    %edx,%eax
    d172:	89 85 d8 f7 ff ff    	mov    %eax,-0x828(%rbp)
    d178:	8b 85 a8 f7 ff ff    	mov    -0x858(%rbp),%eax
    d17e:	48 63 d0             	movslq %eax,%rdx
    d181:	48 8b 85 70 f9 ff ff 	mov    -0x690(%rbp),%rax
    d188:	48 85 c0             	test   %rax,%rax
    d18b:	0f 94 c1             	sete   %cl
    d18e:	8b 85 24 f8 ff ff    	mov    -0x7dc(%rbp),%eax
    d194:	83 c8 01             	or     $0x1,%eax
    d197:	83 f8 04             	cmp    $0x4,%eax
    d19a:	0f 97 c0             	seta   %al
    d19d:	31 c8                	xor    %ecx,%eax
    d19f:	0f b6 c0             	movzbl %al,%eax
    d1a2:	48 0b 85 90 f8 ff ff 	or     -0x770(%rbp),%rax
    d1a9:	48 09 c2             	or     %rax,%rdx
    d1ac:	48 8b 85 c0 f8 ff ff 	mov    -0x740(%rbp),%rax
    d1b3:	0f b7 00             	movzwl (%rax),%eax
    d1b6:	89 c1                	mov    %eax,%ecx
    d1b8:	89 d0                	mov    %edx,%eax
    d1ba:	09 c8                	or     %ecx,%eax
    d1bc:	89 c2                	mov    %eax,%edx
    d1be:	48 8b 85 c0 f8 ff ff 	mov    -0x740(%rbp),%rax
    d1c5:	66 89 10             	mov    %dx,(%rax)
    d1c8:	48 8b 05 59 9c 01 00 	mov    0x19c59(%rip),%rax        # 26e28 <g_606>
    d1cf:	0f b6 10             	movzbl (%rax),%edx
    d1d2:	8b 85 a8 f7 ff ff    	mov    -0x858(%rbp),%eax
    d1d8:	89 c1                	mov    %eax,%ecx
    d1da:	48 8b 05 47 9c 01 00 	mov    0x19c47(%rip),%rax        # 26e28 <g_606>
    d1e1:	31 ca                	xor    %ecx,%edx
    d1e3:	88 10                	mov    %dl,(%rax)
    d1e5:	0f b6 00             	movzbl (%rax),%eax
    d1e8:	48 0f be d0          	movsbq %al,%rdx
    d1ec:	48 8b 85 b8 f7 ff ff 	mov    -0x848(%rbp),%rax
    d1f3:	48 39 c2             	cmp    %rax,%rdx
    d1f6:	0f 92 c2             	setb   %dl
    d1f9:	8b 85 a8 f7 ff ff    	mov    -0x858(%rbp),%eax
    d1ff:	39 85 10 f8 ff ff    	cmp    %eax,-0x7f0(%rbp)
    d205:	0f 95 c0             	setne  %al
    d208:	31 d0                	xor    %edx,%eax
    d20a:	0f b6 c0             	movzbl %al,%eax
    d20d:	89 de                	mov    %ebx,%esi
    d20f:	89 c7                	mov    %eax,%edi
    d211:	e8 ef 99 ff ff       	callq  6c05 <safe_lshift_func_uint8_t_u_s>
    d216:	0f b6 d0             	movzbl %al,%edx
    d219:	48 8b 85 b0 f7 ff ff 	mov    -0x850(%rbp),%rax
    d220:	89 10                	mov    %edx,(%rax)
    d222:	48 8b 85 b0 f7 ff ff 	mov    -0x850(%rbp),%rax
    d229:	8b 10                	mov    (%rax),%edx
    d22b:	48 8b 85 c8 f8 ff ff 	mov    -0x738(%rbp),%rax
    d232:	89 10                	mov    %edx,(%rax)
    d234:	8b 85 10 f8 ff ff    	mov    -0x7f0(%rbp),%eax
    d23a:	e9 36 08 00 00       	jmpq   da75 <func_102+0x1536>
    d23f:	48 c7 85 b0 f8 ff ff 	movq   $0x0,-0x750(%rbp)
    d246:	00 00 00 00 
    d24a:	66 c7 05 a1 32 01 00 	movw   $0x0,0x132a1(%rip)        # 204f4 <g_362>
    d251:	00 00 
    d253:	e9 a6 00 00 00       	jmpq   d2fe <func_102+0xdbf>
    d258:	c7 85 04 f8 ff ff 00 	movl   $0x0,-0x7fc(%rbp)
    d25f:	00 00 00 
    d262:	eb 49                	jmp    d2ad <func_102+0xd6e>
    d264:	c7 85 08 f8 ff ff 00 	movl   $0x0,-0x7f8(%rbp)
    d26b:	00 00 00 
    d26e:	eb 2d                	jmp    d29d <func_102+0xd5e>
    d270:	8b 85 08 f8 ff ff    	mov    -0x7f8(%rbp),%eax
    d276:	48 98                	cltq   
    d278:	8b 95 04 f8 ff ff    	mov    -0x7fc(%rbp),%edx
    d27e:	48 63 d2             	movslq %edx,%rdx
    d281:	48 01 d2             	add    %rdx,%rdx
    d284:	48 01 c2             	add    %rax,%rdx
    d287:	48 8d 85 68 f8 ff ff 	lea    -0x798(%rbp),%rax
    d28e:	48 89 84 d5 20 fa ff 	mov    %rax,-0x5e0(%rbp,%rdx,8)
    d295:	ff 
    d296:	83 85 08 f8 ff ff 01 	addl   $0x1,-0x7f8(%rbp)
    d29d:	83 bd 08 f8 ff ff 01 	cmpl   $0x1,-0x7f8(%rbp)
    d2a4:	7e ca                	jle    d270 <func_102+0xd31>
    d2a6:	83 85 04 f8 ff ff 01 	addl   $0x1,-0x7fc(%rbp)
    d2ad:	83 bd 04 f8 ff ff 00 	cmpl   $0x0,-0x7fc(%rbp)
    d2b4:	7e ae                	jle    d264 <func_102+0xd25>
    d2b6:	48 8b 85 68 f8 ff ff 	mov    -0x798(%rbp),%rax
    d2bd:	48 89 05 bc a1 01 00 	mov    %rax,0x1a1bc(%rip)        # 27480 <g_1420>
    d2c4:	48 8b 05 b5 a1 01 00 	mov    0x1a1b5(%rip),%rax        # 27480 <g_1420>
    d2cb:	48 39 85 b0 f8 ff ff 	cmp    %rax,-0x750(%rbp)
    d2d2:	0f 94 c0             	sete   %al
    d2d5:	0f b6 d0             	movzbl %al,%edx
    d2d8:	48 8b 85 b0 f7 ff ff 	mov    -0x850(%rbp),%rax
    d2df:	89 10                	mov    %edx,(%rax)
    d2e1:	0f b7 05 0c 32 01 00 	movzwl 0x1320c(%rip),%eax        # 204f4 <g_362>
    d2e8:	0f b7 c0             	movzwl %ax,%eax
    d2eb:	be 01 00 00 00       	mov    $0x1,%esi
    d2f0:	89 c7                	mov    %eax,%edi
    d2f2:	e8 bf 92 ff ff       	callq  65b6 <safe_add_func_int32_t_s_s>
    d2f7:	66 89 05 f6 31 01 00 	mov    %ax,0x131f6(%rip)        # 204f4 <g_362>
    d2fe:	0f b7 05 ef 31 01 00 	movzwl 0x131ef(%rip),%eax        # 204f4 <g_362>
    d305:	66 83 f8 06          	cmp    $0x6,%ax
    d309:	0f 84 49 ff ff ff    	je     d258 <func_102+0xd19>
    d30f:	c7 05 93 2e 01 00 00 	movl   $0x0,0x12e93(%rip)        # 201ac <g_47>
    d316:	00 00 00 
    d319:	90                   	nop
    d31a:	8b 05 8c 2e 01 00    	mov    0x12e8c(%rip),%eax        # 201ac <g_47>
    d320:	83 f8 04             	cmp    $0x4,%eax
    d323:	0f 87 bb 05 00 00    	ja     d8e4 <func_102+0x13a5>
    d329:	48 c7 85 20 f9 ff ff 	movq   $0x0,-0x6e0(%rbp)
    d330:	00 00 00 00 
    d334:	48 8d 85 20 fa ff ff 	lea    -0x5e0(%rbp),%rax
    d33b:	48 8d 15 5e e1 00 00 	lea    0xe15e(%rip),%rdx        # 1b4a0 <g_1798+0x13c0>
    d342:	b9 b4 00 00 00       	mov    $0xb4,%ecx
    d347:	48 89 c7             	mov    %rax,%rdi
    d34a:	48 89 d6             	mov    %rdx,%rsi
    d34d:	f3 48 a5             	rep movsq %ds:(%rsi),%es:(%rdi)
    d350:	c7 85 70 f9 ff ff 01 	movl   $0x1,-0x690(%rbp)
    d357:	00 00 00 
    d35a:	c7 85 74 f9 ff ff 9e 	movl   $0xc768799e,-0x68c(%rbp)
    d361:	79 68 c7 
    d364:	c7 85 78 f9 ff ff 01 	movl   $0x1,-0x688(%rbp)
    d36b:	00 00 00 
    d36e:	c7 85 7c f9 ff ff 9e 	movl   $0xc768799e,-0x684(%rbp)
    d375:	79 68 c7 
    d378:	c7 85 80 f9 ff ff 01 	movl   $0x1,-0x680(%rbp)
    d37f:	00 00 00 
    d382:	c7 85 84 f9 ff ff 9e 	movl   $0xc768799e,-0x67c(%rbp)
    d389:	79 68 c7 
    d38c:	c7 85 88 f9 ff ff 01 	movl   $0x1,-0x678(%rbp)
    d393:	00 00 00 
    d396:	c7 85 8c f9 ff ff 9e 	movl   $0xc768799e,-0x674(%rbp)
    d39d:	79 68 c7 
    d3a0:	c7 85 90 f9 ff ff 01 	movl   $0x1,-0x670(%rbp)
    d3a7:	00 00 00 
    d3aa:	8b 05 fc 2d 01 00    	mov    0x12dfc(%rip),%eax        # 201ac <g_47>
    d3b0:	89 c0                	mov    %eax,%eax
    d3b2:	48 8d 14 85 00 00 00 	lea    0x0(,%rax,4),%rdx
    d3b9:	00 
    d3ba:	48 8d 05 9f 2c 01 00 	lea    0x12c9f(%rip),%rax        # 20060 <g_15>
    d3c1:	8b 04 02             	mov    (%rdx,%rax,1),%eax
    d3c4:	0f b6 c0             	movzbl %al,%eax
    d3c7:	be 06 00 00 00       	mov    $0x6,%esi
    d3cc:	89 c7                	mov    %eax,%edi
    d3ce:	e8 ba 98 ff ff       	callq  6c8d <safe_rshift_func_uint8_t_u_s>
    d3d3:	84 c0                	test   %al,%al
    d3d5:	74 50                	je     d427 <func_102+0xee8>
    d3d7:	48 b8 07 73 07 07 73 	movabs $0x7307077307077307,%rax
    d3de:	07 07 73 
    d3e1:	48 89 85 a0 f9 ff ff 	mov    %rax,-0x660(%rbp)
    d3e8:	48 bb 73 07 07 73 07 	movabs $0x773070773070773,%rbx
    d3ef:	07 73 07 
    d3f2:	48 89 9d a8 f9 ff ff 	mov    %rbx,-0x658(%rbp)
    d3f9:	48 b9 73 73 08 73 73 	movabs $0x7373087373087373,%rcx
    d400:	08 73 73 
    d403:	48 89 8d b0 f9 ff ff 	mov    %rcx,-0x650(%rbp)
    d40a:	48 89 85 b8 f9 ff ff 	mov    %rax,-0x648(%rbp)
    d411:	48 89 9d c0 f9 ff ff 	mov    %rbx,-0x640(%rbp)
    d418:	0f b6 85 a5 f9 ff ff 	movzbl -0x65b(%rbp),%eax
    d41f:	0f b6 c0             	movzbl %al,%eax
    d422:	e9 4e 06 00 00       	jmpq   da75 <func_102+0x1536>
    d427:	c7 85 34 f8 ff ff 23 	movl   $0xc36c5e23,-0x7cc(%rbp)
    d42e:	5e 6c c3 
    d431:	c7 85 38 f8 ff ff 00 	movl   $0x0,-0x7c8(%rbp)
    d438:	00 00 00 
    d43b:	c7 85 3c f8 ff ff 00 	movl   $0x0,-0x7c4(%rbp)
    d442:	00 00 00 
    d445:	c7 05 35 36 01 00 00 	movl   $0x0,0x13635(%rip)        # 20a84 <g_917>
    d44c:	00 00 00 
    d44f:	e9 74 04 00 00       	jmpq   d8c8 <func_102+0x1389>
    d454:	48 c7 85 28 f9 ff ff 	movq   $0xfffffffffffffffe,-0x6d8(%rbp)
    d45b:	fe ff ff ff 
    d45f:	c7 85 40 f8 ff ff 09 	movl   $0x9,-0x7c0(%rbp)
    d466:	00 00 00 
    d469:	c7 85 44 f8 ff ff d8 	movl   $0x50b333d8,-0x7bc(%rbp)
    d470:	33 b3 50 
    d473:	48 b8 bc ba 8a c8 11 	movabs $0x3cc54811c88ababc,%rax
    d47a:	48 c5 3c 
    d47d:	48 89 85 30 f9 ff ff 	mov    %rax,-0x6d0(%rbp)
    d484:	c7 85 48 f8 ff ff 82 	movl   $0x94bb3082,-0x7b8(%rbp)
    d48b:	30 bb 94 
    d48e:	c7 85 0c f8 ff ff 00 	movl   $0x0,-0x7f4(%rbp)
    d495:	00 00 00 
    d498:	eb 1a                	jmp    d4b4 <func_102+0xf75>
    d49a:	8b 85 0c f8 ff ff    	mov    -0x7f4(%rbp),%eax
    d4a0:	48 98                	cltq   
    d4a2:	c7 84 85 50 f9 ff ff 	movl   $0x1,-0x6b0(%rbp,%rax,4)
    d4a9:	01 00 00 00 
    d4ad:	83 85 0c f8 ff ff 01 	addl   $0x1,-0x7f4(%rbp)
    d4b4:	83 bd 0c f8 ff ff 00 	cmpl   $0x0,-0x7f4(%rbp)
    d4bb:	7e dd                	jle    d49a <func_102+0xf5b>
    d4bd:	66 c7 05 02 a5 01 00 	movw   $0x0,0x1a502(%rip)        # 279c8 <g_359>
    d4c4:	00 00 
    d4c6:	eb 39                	jmp    d501 <func_102+0xfc2>
    d4c8:	48 8b 05 a1 9d 01 00 	mov    0x19da1(%rip),%rax        # 27270 <g_1345>
    d4cf:	48 8b 08             	mov    (%rax),%rcx
    d4d2:	48 8b 05 d7 39 01 00 	mov    0x139d7(%rip),%rax        # 20eb0 <g_1425>
    d4d9:	48 8b 15 d8 39 01 00 	mov    0x139d8(%rip),%rdx        # 20eb8 <g_1425+0x8>
    d4e0:	48 89 01             	mov    %rax,(%rcx)
    d4e3:	48 89 51 08          	mov    %rdx,0x8(%rcx)
    d4e7:	8b 05 d3 39 01 00    	mov    0x139d3(%rip),%eax        # 20ec0 <g_1425+0x10>
    d4ed:	89 41 10             	mov    %eax,0x10(%rcx)
    d4f0:	0f b7 05 d1 a4 01 00 	movzwl 0x1a4d1(%rip),%eax        # 279c8 <g_359>
    d4f7:	83 c0 01             	add    $0x1,%eax
    d4fa:	66 89 05 c7 a4 01 00 	mov    %ax,0x1a4c7(%rip)        # 279c8 <g_359>
    d501:	0f b7 05 c0 a4 01 00 	movzwl 0x1a4c0(%rip),%eax        # 279c8 <g_359>
    d508:	66 85 c0             	test   %ax,%ax
    d50b:	74 bb                	je     d4c8 <func_102+0xf89>
    d50d:	66 c7 05 fe 30 01 00 	movw   $0x0,0x130fe(%rip)        # 20614 <g_380>
    d514:	00 00 
    d516:	e9 8e 03 00 00       	jmpq   d8a9 <func_102+0x136a>
    d51b:	c7 85 4c f8 ff ff 9e 	movl   $0x9f24629e,-0x7b4(%rbp)
    d522:	62 24 9f 
    d525:	c7 85 50 f8 ff ff 07 	movl   $0x7,-0x7b0(%rbp)
    d52c:	00 00 00 
    d52f:	c7 85 a0 f9 ff ff ff 	movl   $0xffffffff,-0x660(%rbp)
    d536:	ff ff ff 
    d539:	c7 85 a4 f9 ff ff 51 	movl   $0x2953da51,-0x65c(%rbp)
    d540:	da 53 29 
    d543:	c7 85 a8 f9 ff ff ff 	movl   $0xffffffff,-0x658(%rbp)
    d54a:	ff ff ff 
    d54d:	c7 85 ac f9 ff ff ce 	movl   $0xf60f0cce,-0x654(%rbp)
    d554:	0c 0f f6 
    d557:	c7 85 b0 f9 ff ff ce 	movl   $0xf60f0cce,-0x650(%rbp)
    d55e:	0c 0f f6 
    d561:	c7 85 b4 f9 ff ff ff 	movl   $0xffffffff,-0x64c(%rbp)
    d568:	ff ff ff 
    d56b:	c7 85 b8 f9 ff ff 51 	movl   $0x2953da51,-0x648(%rbp)
    d572:	da 53 29 
    d575:	c7 85 bc f9 ff ff ff 	movl   $0xffffffff,-0x644(%rbp)
    d57c:	ff ff ff 
    d57f:	c7 85 c0 f9 ff ff 57 	movl   $0x9e89cd57,-0x640(%rbp)
    d586:	cd 89 9e 
    d589:	c7 85 c4 f9 ff ff ce 	movl   $0xf60f0cce,-0x63c(%rbp)
    d590:	0c 0f f6 
    d593:	c7 85 c8 f9 ff ff dc 	movl   $0x7a26afdc,-0x638(%rbp)
    d59a:	af 26 7a 
    d59d:	c7 85 cc f9 ff ff ce 	movl   $0xf60f0cce,-0x634(%rbp)
    d5a4:	0c 0f f6 
    d5a7:	c7 85 d0 f9 ff ff 57 	movl   $0x9e89cd57,-0x630(%rbp)
    d5ae:	cd 89 9e 
    d5b1:	c7 85 d4 f9 ff ff 57 	movl   $0x9e89cd57,-0x62c(%rbp)
    d5b8:	cd 89 9e 
    d5bb:	c7 85 d8 f9 ff ff ce 	movl   $0xf60f0cce,-0x628(%rbp)
    d5c2:	0c 0f f6 
    d5c5:	c7 85 dc f9 ff ff dc 	movl   $0x7a26afdc,-0x624(%rbp)
    d5cc:	af 26 7a 
    d5cf:	c7 85 e0 f9 ff ff 57 	movl   $0x9e89cd57,-0x620(%rbp)
    d5d6:	cd 89 9e 
    d5d9:	c7 85 e4 f9 ff ff 57 	movl   $0x9e89cd57,-0x61c(%rbp)
    d5e0:	cd 89 9e 
    d5e3:	c7 85 e8 f9 ff ff ce 	movl   $0xf60f0cce,-0x618(%rbp)
    d5ea:	0c 0f f6 
    d5ed:	c7 85 ec f9 ff ff dc 	movl   $0x7a26afdc,-0x614(%rbp)
    d5f4:	af 26 7a 
    d5f7:	c7 85 f0 f9 ff ff ce 	movl   $0xf60f0cce,-0x610(%rbp)
    d5fe:	0c 0f f6 
    d601:	c7 85 f4 f9 ff ff 57 	movl   $0x9e89cd57,-0x60c(%rbp)
    d608:	cd 89 9e 
    d60b:	c7 85 f8 f9 ff ff 57 	movl   $0x9e89cd57,-0x608(%rbp)
    d612:	cd 89 9e 
    d615:	c7 85 fc f9 ff ff ce 	movl   $0xf60f0cce,-0x604(%rbp)
    d61c:	0c 0f f6 
    d61f:	c7 85 00 fa ff ff ff 	movl   $0xffffffff,-0x600(%rbp)
    d626:	ff ff ff 
    d629:	c7 85 04 fa ff ff ce 	movl   $0xf60f0cce,-0x5fc(%rbp)
    d630:	0c 0f f6 
    d633:	c7 85 08 fa ff ff ce 	movl   $0xf60f0cce,-0x5f8(%rbp)
    d63a:	0c 0f f6 
    d63d:	c7 85 0c fa ff ff ff 	movl   $0xffffffff,-0x5f4(%rbp)
    d644:	ff ff ff 
    d647:	c7 85 10 fa ff ff 51 	movl   $0x2953da51,-0x5f0(%rbp)
    d64e:	da 53 29 
    d651:	c7 85 14 fa ff ff ff 	movl   $0xffffffff,-0x5ec(%rbp)
    d658:	ff ff ff 
    d65b:	c7 85 18 fa ff ff ce 	movl   $0xf60f0cce,-0x5e8(%rbp)
    d662:	0c 0f f6 
    d665:	c7 85 1c fa ff ff ce 	movl   $0xf60f0cce,-0x5e4(%rbp)
    d66c:	0c 0f f6 
    d66f:	48 c7 85 38 f9 ff ff 	movq   $0x0,-0x6c8(%rbp)
    d676:	00 00 00 00 
    d67a:	66 c7 05 55 2e 01 00 	movw   $0x0,0x12e55(%rip)        # 204d8 <g_354>
    d681:	00 00 
    d683:	eb 1a                	jmp    d69f <func_102+0x1160>
    d685:	83 bd 4c f8 ff ff 00 	cmpl   $0x0,-0x7b4(%rbp)
    d68c:	75 1f                	jne    d6ad <func_102+0x116e>
    d68e:	0f b7 05 43 2e 01 00 	movzwl 0x12e43(%rip),%eax        # 204d8 <g_354>
    d695:	83 c0 01             	add    $0x1,%eax
    d698:	66 89 05 39 2e 01 00 	mov    %ax,0x12e39(%rip)        # 204d8 <g_354>
    d69f:	0f b7 05 32 2e 01 00 	movzwl 0x12e32(%rip),%eax        # 204d8 <g_354>
    d6a6:	66 85 c0             	test   %ax,%ax
    d6a9:	74 da                	je     d685 <func_102+0x1146>
    d6ab:	eb 01                	jmp    d6ae <func_102+0x116f>
    d6ad:	90                   	nop
    d6ae:	c7 05 08 2e 01 00 00 	movl   $0x0,0x12e08(%rip)        # 204c0 <g_342>
    d6b5:	00 00 00 
    d6b8:	90                   	nop
    d6b9:	8b 05 01 2e 01 00    	mov    0x12e01(%rip),%eax        # 204c0 <g_342>
    d6bf:	85 c0                	test   %eax,%eax
    d6c1:	0f 8f df 00 00 00    	jg     d7a6 <func_102+0x1267>
    d6c7:	c7 85 54 f8 ff ff 20 	movl   $0xcb38c720,-0x7ac(%rbp)
    d6ce:	c7 38 cb 
    d6d1:	48 8d 05 e0 2f 01 00 	lea    0x12fe0(%rip),%rax        # 206b8 <g_402>
    d6d8:	48 89 85 48 f9 ff ff 	mov    %rax,-0x6b8(%rbp)
    d6df:	8b 05 37 36 01 00    	mov    0x13637(%rip),%eax        # 20d1c <g_1204+0xc>
    d6e5:	48 8b 9d a8 fa ff ff 	mov    -0x558(%rbp),%rbx
    d6ec:	0f b6 95 ac f7 ff ff 	movzbl -0x854(%rbp),%edx
    d6f3:	8b 85 54 f8 ff ff    	mov    -0x7ac(%rbp),%eax
    d6f9:	0f b7 c0             	movzwl %ax,%eax
    d6fc:	89 d6                	mov    %edx,%esi
    d6fe:	89 c7                	mov    %eax,%edi
    d700:	e8 01 97 ff ff       	callq  6e06 <safe_lshift_func_uint16_t_u_u>
    d705:	66 3d a1 8d          	cmp    $0x8da1,%ax
    d709:	0f 97 c0             	seta   %al
    d70c:	0f b6 c0             	movzbl %al,%eax
    d70f:	48 89 05 9a 2f 01 00 	mov    %rax,0x12f9a(%rip)        # 206b0 <g_390>
    d716:	48 8b 15 93 2f 01 00 	mov    0x12f93(%rip),%rdx        # 206b0 <g_390>
    d71d:	48 8b 05 cc 97 01 00 	mov    0x197cc(%rip),%rax        # 26ef0 <g_958>
    d724:	48 8b 00             	mov    (%rax),%rax
    d727:	48 39 c2             	cmp    %rax,%rdx
    d72a:	73 15                	jae    d741 <func_102+0x1202>
    d72c:	48 8b 05 f5 96 01 00 	mov    0x196f5(%rip),%rax        # 26e28 <g_606>
    d733:	0f b6 00             	movzbl (%rax),%eax
    d736:	84 c0                	test   %al,%al
    d738:	74 07                	je     d741 <func_102+0x1202>
    d73a:	b8 01 00 00 00       	mov    $0x1,%eax
    d73f:	eb 05                	jmp    d746 <func_102+0x1207>
    d741:	b8 00 00 00 00       	mov    $0x0,%eax
    d746:	48 98                	cltq   
    d748:	48 09 c3             	or     %rax,%rbx
    d74b:	48 89 da             	mov    %rbx,%rdx
    d74e:	8b 85 c4 f9 ff ff    	mov    -0x63c(%rbp),%eax
    d754:	31 d0                	xor    %edx,%eax
    d756:	89 85 c4 f9 ff ff    	mov    %eax,-0x63c(%rbp)
    d75c:	48 8b 05 d5 96 01 00 	mov    0x196d5(%rip),%rax        # 26e38 <g_682>
    d763:	8b 08                	mov    (%rax),%ecx
    d765:	48 8d 85 70 f7 ff ff 	lea    -0x890(%rbp),%rax
    d76c:	8b 95 50 f8 ff ff    	mov    -0x7b0(%rbp),%edx
    d772:	89 ce                	mov    %ecx,%esi
    d774:	48 89 c7             	mov    %rax,%rdi
    d777:	e8 a9 a9 ff ff       	callq  8125 <func_24>
    d77c:	8b 95 54 f8 ff ff    	mov    -0x7ac(%rbp),%edx
    d782:	48 8b 85 48 f9 ff ff 	mov    -0x6b8(%rbp),%rax
    d789:	8b 00                	mov    (%rax),%eax
    d78b:	09 d0                	or     %edx,%eax
    d78d:	89 c2                	mov    %eax,%edx
    d78f:	48 8b 85 48 f9 ff ff 	mov    -0x6b8(%rbp),%rax
    d796:	89 10                	mov    %edx,(%rax)
    d798:	48 8b 85 b0 f7 ff ff 	mov    -0x850(%rbp),%rax
    d79f:	8b 00                	mov    (%rax),%eax
    d7a1:	e9 cf 02 00 00       	jmpq   da75 <func_102+0x1536>
    d7a6:	48 8d 05 0b 2f 01 00 	lea    0x12f0b(%rip),%rax        # 206b8 <g_402>
    d7ad:	48 89 85 40 f9 ff ff 	mov    %rax,-0x6c0(%rbp)
    d7b4:	48 8b 05 b5 9a 01 00 	mov    0x19ab5(%rip),%rax        # 27270 <g_1345>
    d7bb:	48 8b 08             	mov    (%rax),%rcx
    d7be:	48 8b 05 f3 37 01 00 	mov    0x137f3(%rip),%rax        # 20fb8 <g_1437+0x78>
    d7c5:	48 8b 15 f4 37 01 00 	mov    0x137f4(%rip),%rdx        # 20fc0 <g_1437+0x80>
    d7cc:	48 89 01             	mov    %rax,(%rcx)
    d7cf:	48 89 51 08          	mov    %rdx,0x8(%rcx)
    d7d3:	8b 05 ef 37 01 00    	mov    0x137ef(%rip),%eax        # 20fc8 <g_1437+0x88>
    d7d9:	89 41 10             	mov    %eax,0x10(%rcx)
    d7dc:	48 8b 0d 85 9a 01 00 	mov    0x19a85(%rip),%rcx        # 27268 <g_1346>
    d7e3:	48 8b 05 26 38 01 00 	mov    0x13826(%rip),%rax        # 21010 <g_1438>
    d7ea:	48 8b 15 27 38 01 00 	mov    0x13827(%rip),%rdx        # 21018 <g_1438+0x8>
    d7f1:	48 89 01             	mov    %rax,(%rcx)
    d7f4:	48 89 51 08          	mov    %rdx,0x8(%rcx)
    d7f8:	8b 05 22 38 01 00    	mov    0x13822(%rip),%eax        # 21020 <g_1438+0x10>
    d7fe:	89 41 10             	mov    %eax,0x10(%rcx)
    d801:	48 8b 9d b8 f7 ff ff 	mov    -0x848(%rbp),%rbx
    d808:	48 8b 05 19 96 01 00 	mov    0x19619(%rip),%rax        # 26e28 <g_606>
    d80f:	c6 00 01             	movb   $0x1,(%rax)
    d812:	48 8b 05 87 a2 01 00 	mov    0x1a287(%rip),%rax        # 27aa0 <g_1445>
    d819:	48 8b 05 00 96 01 00 	mov    0x19600(%rip),%rax        # 26e20 <g_555>
    d820:	48 8b 00             	mov    (%rax),%rax
    d823:	0f b6 00             	movzbl (%rax),%eax
    d826:	0f b6 c0             	movzbl %al,%eax
    d829:	be 01 00 00 00       	mov    $0x1,%esi
    d82e:	89 c7                	mov    %eax,%edi
    d830:	e8 a6 93 ff ff       	callq  6bdb <safe_div_func_uint8_t_u_u>
    d835:	0f b6 c0             	movzbl %al,%eax
    d838:	48 39 85 28 f9 ff ff 	cmp    %rax,-0x6d8(%rbp)
    d83f:	0f 96 c0             	setbe  %al
    d842:	0f b6 c0             	movzbl %al,%eax
    d845:	48 89 de             	mov    %rbx,%rsi
    d848:	48 89 c7             	mov    %rax,%rdi
    d84b:	e8 5f 98 ff ff       	callq  70af <safe_div_func_uint64_t_u_u>
    d850:	be 09 00 00 00       	mov    $0x9,%esi
    d855:	bf 01 00 00 00       	mov    $0x1,%edi
    d85a:	e8 55 91 ff ff       	callq  69b4 <safe_mod_func_int64_t_s_s>
    d85f:	48 85 c0             	test   %rax,%rax
    d862:	74 10                	je     d874 <func_102+0x1335>
    d864:	80 bd ac f7 ff ff 00 	cmpb   $0x0,-0x854(%rbp)
    d86b:	74 07                	je     d874 <func_102+0x1335>
    d86d:	b8 01 00 00 00       	mov    $0x1,%eax
    d872:	eb 05                	jmp    d879 <func_102+0x133a>
    d874:	b8 00 00 00 00       	mov    $0x0,%eax
    d879:	3d cc 7f 1a 4a       	cmp    $0x4a1a7fcc,%eax
    d87e:	0f 9f c0             	setg   %al
    d881:	0f b6 d0             	movzbl %al,%edx
    d884:	48 8b 85 40 f9 ff ff 	mov    -0x6c0(%rbp),%rax
    d88b:	8b 00                	mov    (%rax),%eax
    d88d:	09 c2                	or     %eax,%edx
    d88f:	48 8b 85 40 f9 ff ff 	mov    -0x6c0(%rbp),%rax
    d896:	89 10                	mov    %edx,(%rax)
    d898:	0f b7 05 75 2d 01 00 	movzwl 0x12d75(%rip),%eax        # 20614 <g_380>
    d89f:	83 c0 01             	add    $0x1,%eax
    d8a2:	66 89 05 6b 2d 01 00 	mov    %ax,0x12d6b(%rip)        # 20614 <g_380>
    d8a9:	0f b7 05 64 2d 01 00 	movzwl 0x12d64(%rip),%eax        # 20614 <g_380>
    d8b0:	66 85 c0             	test   %ax,%ax
    d8b3:	0f 84 62 fc ff ff    	je     d51b <func_102+0xfdc>
    d8b9:	8b 05 c5 31 01 00    	mov    0x131c5(%rip),%eax        # 20a84 <g_917>
    d8bf:	83 e8 01             	sub    $0x1,%eax
    d8c2:	89 05 bc 31 01 00    	mov    %eax,0x131bc(%rip)        # 20a84 <g_917>
    d8c8:	8b 05 b6 31 01 00    	mov    0x131b6(%rip),%eax        # 20a84 <g_917>
    d8ce:	85 c0                	test   %eax,%eax
    d8d0:	0f 89 7e fb ff ff    	jns    d454 <func_102+0xf15>
    d8d6:	48 8b 85 b0 f7 ff ff 	mov    -0x850(%rbp),%rax
    d8dd:	8b 00                	mov    (%rax),%eax
    d8df:	e9 91 01 00 00       	jmpq   da75 <func_102+0x1536>
    d8e4:	48 8b 85 b0 f7 ff ff 	mov    -0x850(%rbp),%rax
    d8eb:	8b 18                	mov    (%rax),%ebx
    d8ed:	48 8b 85 b8 f7 ff ff 	mov    -0x848(%rbp),%rax
    d8f4:	44 0f b7 e0          	movzwl %ax,%r12d
    d8f8:	8b 85 1c f8 ff ff    	mov    -0x7e4(%rbp),%eax
    d8fe:	4c 63 e8             	movslq %eax,%r13
    d901:	8b 85 18 f8 ff ff    	mov    -0x7e8(%rbp),%eax
    d907:	48 98                	cltq   
    d909:	48 89 c7             	mov    %rax,%rdi
    d90c:	e8 05 8f ff ff       	callq  6816 <safe_unary_minus_func_int64_t_s>
    d911:	49 39 c5             	cmp    %rax,%r13
    d914:	0f 9d c0             	setge  %al
    d917:	89 c2                	mov    %eax,%edx
    d919:	0f b6 85 ac f7 ff ff 	movzbl -0x854(%rbp),%eax
    d920:	09 d0                	or     %edx,%eax
    d922:	89 c1                	mov    %eax,%ecx
    d924:	48 8b 85 b0 f7 ff ff 	mov    -0x850(%rbp),%rax
    d92b:	8b 00                	mov    (%rax),%eax
    d92d:	89 c6                	mov    %eax,%esi
    d92f:	48 8b 85 98 f8 ff ff 	mov    -0x768(%rbp),%rax
    d936:	8b 00                	mov    (%rax),%eax
    d938:	8d 50 01             	lea    0x1(%rax),%edx
    d93b:	48 8b 85 98 f8 ff ff 	mov    -0x768(%rbp),%rax
    d942:	89 10                	mov    %edx,(%rax)
    d944:	48 8b 85 98 f8 ff ff 	mov    -0x768(%rbp),%rax
    d94b:	8b 00                	mov    (%rax),%eax
    d94d:	39 c6                	cmp    %eax,%esi
    d94f:	0f 95 c0             	setne  %al
    d952:	0f b6 d0             	movzbl %al,%edx
    d955:	48 8b 85 a0 f7 ff ff 	mov    -0x860(%rbp),%rax
    d95c:	48 89 10             	mov    %rdx,(%rax)
    d95f:	48 8b 85 a0 f7 ff ff 	mov    -0x860(%rbp),%rax
    d966:	48 8b 00             	mov    (%rax),%rax
    d969:	21 c8                	and    %ecx,%eax
    d96b:	44 0f b6 e8          	movzbl %al,%r13d
    d96f:	48 8b 05 c2 36 01 00 	mov    0x136c2(%rip),%rax        # 21038 <g_1481>
    d976:	48 8b 85 58 f8 ff ff 	mov    -0x7a8(%rbp),%rax
    d97d:	0f b6 d0             	movzbl %al,%edx
    d980:	48 8b 05 41 95 01 00 	mov    0x19541(%rip),%rax        # 26ec8 <g_891>
    d987:	48 8b 00             	mov    (%rax),%rax
    d98a:	48 8b 00             	mov    (%rax),%rax
    d98d:	0f b6 00             	movzbl (%rax),%eax
    d990:	0f b6 c0             	movzbl %al,%eax
    d993:	09 85 14 f8 ff ff    	or     %eax,-0x7ec(%rbp)
    d999:	8b 85 14 f8 ff ff    	mov    -0x7ec(%rbp),%eax
    d99f:	0f b6 c0             	movzbl %al,%eax
    d9a2:	89 d6                	mov    %edx,%esi
    d9a4:	89 c7                	mov    %eax,%edi
    d9a6:	e8 03 92 ff ff       	callq  6bae <safe_mod_func_uint8_t_u_u>
    d9ab:	0f b6 c0             	movzbl %al,%eax
    d9ae:	44 89 ee             	mov    %r13d,%esi
    d9b1:	89 c7                	mov    %eax,%edi
    d9b3:	e8 a2 91 ff ff       	callq  6b5a <safe_add_func_uint8_t_u_u>
    d9b8:	0f b6 d0             	movzbl %al,%edx
    d9bb:	48 8b 85 a0 f8 ff ff 	mov    -0x760(%rbp),%rax
    d9c2:	48 89 10             	mov    %rdx,(%rax)
    d9c5:	48 8b 85 a0 f8 ff ff 	mov    -0x760(%rbp),%rax
    d9cc:	48 8b 10             	mov    (%rax),%rdx
    d9cf:	48 8b 85 a8 f8 ff ff 	mov    -0x758(%rbp),%rax
    d9d6:	0f b7 00             	movzwl (%rax),%eax
    d9d9:	66 35 7b 5a          	xor    $0x5a7b,%ax
    d9dd:	89 c1                	mov    %eax,%ecx
    d9df:	48 8b 85 a8 f8 ff ff 	mov    -0x758(%rbp),%rax
    d9e6:	66 89 08             	mov    %cx,(%rax)
    d9e9:	48 8b 85 a8 f8 ff ff 	mov    -0x758(%rbp),%rax
    d9f0:	0f b7 00             	movzwl (%rax),%eax
    d9f3:	0f bf c8             	movswl %ax,%ecx
    d9f6:	0f b6 85 ac f7 ff ff 	movzbl -0x854(%rbp),%eax
    d9fd:	39 c1                	cmp    %eax,%ecx
    d9ff:	0f 9c c0             	setl   %al
    da02:	0f b6 c0             	movzbl %al,%eax
    da05:	48 39 c2             	cmp    %rax,%rdx
    da08:	0f 94 c0             	sete   %al
    da0b:	0f b6 c0             	movzbl %al,%eax
    da0e:	39 85 18 f8 ff ff    	cmp    %eax,-0x7e8(%rbp)
    da14:	0f 94 c0             	sete   %al
    da17:	0f b6 c0             	movzbl %al,%eax
    da1a:	44 89 e6             	mov    %r12d,%esi
    da1d:	89 c7                	mov    %eax,%edi
    da1f:	e8 fb 92 ff ff       	callq  6d1f <safe_sub_func_uint16_t_u_u>
    da24:	bf 00 00 00 00       	mov    $0x0,%edi
    da29:	e8 e8 8d ff ff       	callq  6816 <safe_unary_minus_func_int64_t_s>
    da2e:	89 c2                	mov    %eax,%edx
    da30:	48 8b 85 58 f8 ff ff 	mov    -0x7a8(%rbp),%rax
    da37:	21 d0                	and    %edx,%eax
    da39:	89 c1                	mov    %eax,%ecx
    da3b:	48 8d 85 70 f7 ff ff 	lea    -0x890(%rbp),%rax
    da42:	89 da                	mov    %ebx,%edx
    da44:	89 ce                	mov    %ecx,%esi
    da46:	48 89 c7             	mov    %rax,%rdi
    da49:	e8 d7 a6 ff ff       	callq  8125 <func_24>
    da4e:	8b 95 a8 f7 ff ff    	mov    -0x858(%rbp),%edx
    da54:	48 8b 05 75 94 01 00 	mov    0x19475(%rip),%rax        # 26ed0 <g_907>
    da5b:	48 63 d2             	movslq %edx,%rdx
    da5e:	48 89 10             	mov    %rdx,(%rax)
    da61:	48 8b 00             	mov    (%rax),%rax
    da64:	89 c2                	mov    %eax,%edx
    da66:	48 8b 85 b0 f7 ff ff 	mov    -0x850(%rbp),%rax
    da6d:	89 10                	mov    %edx,(%rax)
    da6f:	8b 85 10 f8 ff ff    	mov    -0x7f0(%rbp),%eax
    da75:	48 8b 5d c8          	mov    -0x38(%rbp),%rbx
    da79:	64 48 33 1c 25 28 00 	xor    %fs:0x28,%rbx
    da80:	00 00 
    da82:	74 05                	je     da89 <func_102+0x154a>
    da84:	e8 e7 85 ff ff       	callq  6070 <__stack_chk_fail@plt>
    da89:	48 81 c4 68 08 00 00 	add    $0x868,%rsp
    da90:	5b                   	pop    %rbx
    da91:	41 5c                	pop    %r12
    da93:	41 5d                	pop    %r13
    da95:	41 5e                	pop    %r14
    da97:	41 5f                	pop    %r15
    da99:	5d                   	pop    %rbp
    da9a:	c3                   	retq   

000000000000da9b <func_110>:
    da9b:	f3 0f 1e fa          	endbr64 
    da9f:	55                   	push   %rbp
    daa0:	48 89 e5             	mov    %rsp,%rbp
    daa3:	41 54                	push   %r12
    daa5:	53                   	push   %rbx
    daa6:	48 81 ec d0 01 00 00 	sub    $0x1d0,%rsp
    daad:	48 89 bd 28 fe ff ff 	mov    %rdi,-0x1d8(%rbp)
    dab4:	48 89 b5 20 fe ff ff 	mov    %rsi,-0x1e0(%rbp)
    dabb:	64 48 8b 04 25 28 00 	mov    %fs:0x28,%rax
    dac2:	00 00 
    dac4:	48 89 45 e8          	mov    %rax,-0x18(%rbp)
    dac8:	31 c0                	xor    %eax,%eax
    daca:	48 c7 85 50 fe ff ff 	movq   $0x0,-0x1b0(%rbp)
    dad1:	00 00 00 00 
    dad5:	48 c7 85 48 fe ff ff 	movq   $0x0,-0x1b8(%rbp)
    dadc:	00 00 00 00 
    dae0:	48 8d 85 48 fe ff ff 	lea    -0x1b8(%rbp),%rax
    dae7:	48 89 85 a0 fe ff ff 	mov    %rax,-0x160(%rbp)
    daee:	48 8d 85 48 fe ff ff 	lea    -0x1b8(%rbp),%rax
    daf5:	48 89 85 a8 fe ff ff 	mov    %rax,-0x158(%rbp)
    dafc:	48 8d 85 48 fe ff ff 	lea    -0x1b8(%rbp),%rax
    db03:	48 89 85 b0 fe ff ff 	mov    %rax,-0x150(%rbp)
    db0a:	48 8d 85 48 fe ff ff 	lea    -0x1b8(%rbp),%rax
    db11:	48 89 85 b8 fe ff ff 	mov    %rax,-0x148(%rbp)
    db18:	48 8d 85 48 fe ff ff 	lea    -0x1b8(%rbp),%rax
    db1f:	48 89 85 58 fe ff ff 	mov    %rax,-0x1a8(%rbp)
    db26:	48 8d 05 a3 27 01 00 	lea    0x127a3(%rip),%rax        # 202d0 <g_139>
    db2d:	48 89 85 60 fe ff ff 	mov    %rax,-0x1a0(%rbp)
    db34:	48 8d 05 79 26 01 00 	lea    0x12679(%rip),%rax        # 201b4 <g_78>
    db3b:	48 89 85 68 fe ff ff 	mov    %rax,-0x198(%rbp)
    db42:	48 8d 05 77 92 01 00 	lea    0x19277(%rip),%rax        # 26dc0 <g_477>
    db49:	48 89 85 70 fe ff ff 	mov    %rax,-0x190(%rbp)
    db50:	c7 85 40 fe ff ff 73 	movl   $0xbf406673,-0x1c0(%rbp)
    db57:	66 40 bf 
    db5a:	c6 85 3b fe ff ff 85 	movb   $0x85,-0x1c5(%rbp)
    db61:	c7 85 44 fe ff ff 59 	movl   $0x4a3f3259,-0x1bc(%rbp)
    db68:	32 3f 4a 
    db6b:	48 8d 05 ae 2b 01 00 	lea    0x12bae(%rip),%rax        # 20720 <g_544>
    db72:	48 89 85 78 fe ff ff 	mov    %rax,-0x188(%rbp)
    db79:	48 c7 85 80 fe ff ff 	movq   $0x0,-0x180(%rbp)
    db80:	00 00 00 00 
    db84:	48 8d 05 cd 96 01 00 	lea    0x196cd(%rip),%rax        # 27258 <g_1266>
    db8b:	48 89 85 88 fe ff ff 	mov    %rax,-0x178(%rbp)
    db92:	48 8d 05 bf 96 01 00 	lea    0x196bf(%rip),%rax        # 27258 <g_1266>
    db99:	48 89 85 90 fe ff ff 	mov    %rax,-0x170(%rbp)
    dba0:	48 8d 05 15 2b 01 00 	lea    0x12b15(%rip),%rax        # 206bc <g_459>
    dba7:	48 89 85 98 fe ff ff 	mov    %rax,-0x168(%rbp)
    dbae:	0f b7 05 5b 29 01 00 	movzwl 0x1295b(%rip),%eax        # 20510 <g_363+0x10>
    dbb5:	0f be d8             	movsbl %al,%ebx
    dbb8:	8b 05 86 24 01 00    	mov    0x12486(%rip),%eax        # 20044 <g_5+0x14>
    dbbe:	44 0f be e0          	movsbl %al,%r12d
    dbc2:	8b 05 78 24 01 00    	mov    0x12478(%rip),%eax        # 20040 <g_5+0x10>
    dbc8:	89 c1                	mov    %eax,%ecx
    dbca:	48 8b 85 20 fe ff ff 	mov    -0x1e0(%rbp),%rax
    dbd1:	0f b6 00             	movzbl (%rax),%eax
    dbd4:	0f b6 d0             	movzbl %al,%edx
    dbd7:	8b 05 6f 25 01 00    	mov    0x1256f(%rip),%eax        # 2014c <g_16+0xcc>
    dbdd:	48 8b 85 60 fe ff ff 	mov    -0x1a0(%rbp),%rax
    dbe4:	48 be 69 fb 13 f7 24 	movabs $0x49327924f713fb69,%rsi
    dbeb:	79 32 49 
    dbee:	48 89 30             	mov    %rsi,(%rax)
    dbf1:	8b 05 39 24 01 00    	mov    0x12439(%rip),%eax        # 20030 <g_5>
    dbf7:	48 98                	cltq   
    dbf9:	48 39 85 28 fe ff ff 	cmp    %rax,-0x1d8(%rbp)
    dc00:	48 8b 85 28 fe ff ff 	mov    -0x1d8(%rbp),%rax
    dc07:	89 c6                	mov    %eax,%esi
    dc09:	48 8b 85 68 fe ff ff 	mov    -0x198(%rbp),%rax
    dc10:	40 88 30             	mov    %sil,(%rax)
    dc13:	48 8b 85 68 fe ff ff 	mov    -0x198(%rbp),%rax
    dc1a:	0f b6 00             	movzbl (%rax),%eax
    dc1d:	66 98                	cbtw   
    dc1f:	21 d0                	and    %edx,%eax
    dc21:	98                   	cwtl   
    dc22:	89 ce                	mov    %ecx,%esi
    dc24:	89 c7                	mov    %eax,%edi
    dc26:	e8 b6 88 ff ff       	callq  64e1 <safe_lshift_func_int16_t_s_u>
    dc2b:	89 c2                	mov    %eax,%edx
    dc2d:	8b 05 75 25 01 00    	mov    0x12575(%rip),%eax        # 201a8 <g_43>
    dc33:	09 d0                	or     %edx,%eax
    dc35:	0f be c0             	movsbl %al,%eax
    dc38:	be 02 00 00 00       	mov    $0x2,%esi
    dc3d:	89 c7                	mov    %eax,%edi
    dc3f:	e8 28 87 ff ff       	callq  636c <safe_rshift_func_int8_t_s_u>
    dc44:	0f be c0             	movsbl %al,%eax
    dc47:	be ff ff ff ff       	mov    $0xffffffff,%esi
    dc4c:	89 c7                	mov    %eax,%edi
    dc4e:	e8 9f 85 ff ff       	callq  61f2 <safe_sub_func_int8_t_s_s>
    dc53:	8b 05 17 25 01 00    	mov    0x12517(%rip),%eax        # 20170 <g_17>
    dc59:	85 c0                	test   %eax,%eax
    dc5b:	75 0a                	jne    dc67 <func_110+0x1cc>
    dc5d:	48 83 bd 28 fe ff ff 	cmpq   $0x0,-0x1d8(%rbp)
    dc64:	00 
    dc65:	74 07                	je     dc6e <func_110+0x1d3>
    dc67:	b8 01 00 00 00       	mov    $0x1,%eax
    dc6c:	eb 05                	jmp    dc73 <func_110+0x1d8>
    dc6e:	b8 00 00 00 00       	mov    $0x0,%eax
    dc73:	0f be c0             	movsbl %al,%eax
    dc76:	44 89 e6             	mov    %r12d,%esi
    dc79:	89 c7                	mov    %eax,%edi
    dc7b:	e8 ea 85 ff ff       	callq  626a <safe_div_func_int8_t_s_s>
    dc80:	48 0f be c0          	movsbq %al,%rax
    dc84:	48 39 85 28 fe ff ff 	cmp    %rax,-0x1d8(%rbp)
    dc8b:	0f 94 c0             	sete   %al
    dc8e:	89 c2                	mov    %eax,%edx
    dc90:	48 8b 85 20 fe ff ff 	mov    -0x1e0(%rbp),%rax
    dc97:	88 10                	mov    %dl,(%rax)
    dc99:	48 8b 85 20 fe ff ff 	mov    -0x1e0(%rbp),%rax
    dca0:	0f b6 00             	movzbl (%rax),%eax
    dca3:	0f b6 c0             	movzbl %al,%eax
    dca6:	89 c7                	mov    %eax,%edi
    dca8:	e8 8c 73 00 00       	callq  15039 <func_126>
    dcad:	48 8b 05 64 27 01 00 	mov    0x12764(%rip),%rax        # 20418 <g_209+0xd8>
    dcb4:	89 de                	mov    %ebx,%esi
    dcb6:	bf 55 00 00 00       	mov    $0x55,%edi
    dcbb:	e8 52 85 ff ff       	callq  6212 <safe_mul_func_int8_t_s_s>
    dcc0:	48 0f be d0          	movsbq %al,%rdx
    dcc4:	48 8b 85 58 fe ff ff 	mov    -0x1a8(%rbp),%rax
    dccb:	48 8b 8d 50 fe ff ff 	mov    -0x1b0(%rbp),%rcx
    dcd2:	48 89 08             	mov    %rcx,(%rax)
    dcd5:	48 8b 85 58 fe ff ff 	mov    -0x1a8(%rbp),%rax
    dcdc:	48 8b 00             	mov    (%rax),%rax
    dcdf:	48 8b 8d 28 fe ff ff 	mov    -0x1d8(%rbp),%rcx
    dce6:	48 89 c6             	mov    %rax,%rsi
    dce9:	89 cf                	mov    %ecx,%edi
    dceb:	e8 60 00 00 00       	callq  dd50 <func_116>
    dcf0:	48 89 c7             	mov    %rax,%rdi
    dcf3:	e8 21 93 ff ff       	callq  7019 <safe_unary_minus_func_uint64_t_u>
    dcf8:	c7 85 3c fe ff ff fe 	movl   $0xfffffffe,-0x1c4(%rbp)
    dcff:	ff ff ff 
    dd02:	48 8b 05 87 2f 01 00 	mov    0x12f87(%rip),%rax        # 20c90 <g_1158>
    dd09:	48 8b 15 88 2f 01 00 	mov    0x12f88(%rip),%rdx        # 20c98 <g_1158+0x8>
    dd10:	48 89 05 99 2f 01 00 	mov    %rax,0x12f99(%rip)        # 20cb0 <g_1159>
    dd17:	48 89 15 9a 2f 01 00 	mov    %rdx,0x12f9a(%rip)        # 20cb8 <g_1159+0x8>
    dd1e:	8b 05 7c 2f 01 00    	mov    0x12f7c(%rip),%eax        # 20ca0 <g_1158+0x10>
    dd24:	89 05 96 2f 01 00    	mov    %eax,0x12f96(%rip)        # 20cc0 <g_1159+0x10>
    dd2a:	8b 85 3c fe ff ff    	mov    -0x1c4(%rbp),%eax
    dd30:	48 8b 5d e8          	mov    -0x18(%rbp),%rbx
    dd34:	64 48 33 1c 25 28 00 	xor    %fs:0x28,%rbx
    dd3b:	00 00 
    dd3d:	74 05                	je     dd44 <func_110+0x2a9>
    dd3f:	e8 2c 83 ff ff       	callq  6070 <__stack_chk_fail@plt>
    dd44:	48 81 c4 d0 01 00 00 	add    $0x1d0,%rsp
    dd4b:	5b                   	pop    %rbx
    dd4c:	41 5c                	pop    %r12
    dd4e:	5d                   	pop    %rbp
    dd4f:	c3                   	retq   

000000000000dd50 <func_116>:
    dd50:	f3 0f 1e fa          	endbr64 
    dd54:	55                   	push   %rbp
    dd55:	48 89 e5             	mov    %rsp,%rbp
    dd58:	41 57                	push   %r15
    dd5a:	41 56                	push   %r14
    dd5c:	41 55                	push   %r13
    dd5e:	41 54                	push   %r12
    dd60:	53                   	push   %rbx
    dd61:	48 81 ec 00 10 00 00 	sub    $0x1000,%rsp
    dd68:	48 83 0c 24 00       	orq    $0x0,(%rsp)
    dd6d:	48 81 ec 88 0b 00 00 	sub    $0xb88,%rsp
    dd74:	89 bd 7c e4 ff ff    	mov    %edi,-0x1b84(%rbp)
    dd7a:	48 89 b5 70 e4 ff ff 	mov    %rsi,-0x1b90(%rbp)
    dd81:	48 89 95 68 e4 ff ff 	mov    %rdx,-0x1b98(%rbp)
    dd88:	64 48 8b 04 25 28 00 	mov    %fs:0x28,%rax
    dd8f:	00 00 
    dd91:	48 89 45 c8          	mov    %rax,-0x38(%rbp)
    dd95:	31 c0                	xor    %eax,%eax
    dd97:	48 c7 85 88 e6 ff ff 	movq   $0x0,-0x1978(%rbp)
    dd9e:	00 00 00 00 
    dda2:	48 c7 85 90 e6 ff ff 	movq   $0x0,-0x1970(%rbp)
    dda9:	00 00 00 00 
    ddad:	48 8d 05 fc 28 01 00 	lea    0x128fc(%rip),%rax        # 206b0 <g_390>
    ddb4:	48 89 85 98 e6 ff ff 	mov    %rax,-0x1968(%rbp)
    ddbb:	c7 85 ac e4 ff ff 04 	movl   $0xb470ff04,-0x1b54(%rbp)
    ddc2:	ff 70 b4 
    ddc5:	c7 85 b0 e4 ff ff 10 	movl   $0x91519310,-0x1b50(%rbp)
    ddcc:	93 51 91 
    ddcf:	c6 85 8a e4 ff ff fe 	movb   $0xfe,-0x1b76(%rbp)
    ddd6:	66 c7 85 94 e4 ff ff 	movw   $0xfffe,-0x1b6c(%rbp)
    dddd:	fe ff 
    dddf:	48 8d 05 da 26 01 00 	lea    0x126da(%rip),%rax        # 204c0 <g_342>
    dde6:	48 89 85 d0 e5 ff ff 	mov    %rax,-0x1a30(%rbp)
    dded:	48 c7 85 d8 e5 ff ff 	movq   $0xfffffffffffffffe,-0x1a28(%rbp)
    ddf4:	fe ff ff ff 
    ddf8:	c7 85 00 ea ff ff 04 	movl   $0x4,-0x1600(%rbp)
    ddff:	00 00 00 
    de02:	c7 85 04 ea ff ff fe 	movl   $0xe5b35cfe,-0x15fc(%rbp)
    de09:	5c b3 e5 
    de0c:	c7 85 08 ea ff ff 01 	movl   $0x1,-0x15f8(%rbp)
    de13:	00 00 00 
    de16:	c7 85 0c ea ff ff 01 	movl   $0x1,-0x15f4(%rbp)
    de1d:	00 00 00 
    de20:	c7 85 10 ea ff ff fe 	movl   $0xe5b35cfe,-0x15f0(%rbp)
    de27:	5c b3 e5 
    de2a:	c7 85 14 ea ff ff 04 	movl   $0x4,-0x15ec(%rbp)
    de31:	00 00 00 
    de34:	c7 85 18 ea ff ff 01 	movl   $0x1,-0x15e8(%rbp)
    de3b:	00 00 00 
    de3e:	c7 85 1c ea ff ff 04 	movl   $0x4,-0x15e4(%rbp)
    de45:	00 00 00 
    de48:	c7 85 20 ea ff ff 01 	movl   $0x1,-0x15e0(%rbp)
    de4f:	00 00 00 
    de52:	c7 85 24 ea ff ff 04 	movl   $0x4,-0x15dc(%rbp)
    de59:	00 00 00 
    de5c:	c7 85 28 ea ff ff 01 	movl   $0x1,-0x15d8(%rbp)
    de63:	00 00 00 
    de66:	c7 85 2c ea ff ff 01 	movl   $0x1,-0x15d4(%rbp)
    de6d:	00 00 00 
    de70:	48 8d 85 8a e4 ff ff 	lea    -0x1b76(%rbp),%rax
    de77:	48 89 85 68 e6 ff ff 	mov    %rax,-0x1998(%rbp)
    de7e:	48 8d 85 ac e4 ff ff 	lea    -0x1b54(%rbp),%rax
    de85:	48 89 85 e0 e5 ff ff 	mov    %rax,-0x1a20(%rbp)
    de8c:	c7 85 d8 e4 ff ff a9 	movl   $0xdf4357a9,-0x1b28(%rbp)
    de93:	57 43 df 
    de96:	48 c7 85 70 e6 ff ff 	movq   $0x0,-0x1990(%rbp)
    de9d:	00 00 00 00 
    dea1:	48 8d 85 b0 e4 ff ff 	lea    -0x1b50(%rbp),%rax
    dea8:	48 89 85 78 e6 ff ff 	mov    %rax,-0x1988(%rbp)
    deaf:	48 8d 05 6a 28 01 00 	lea    0x1286a(%rip),%rax        # 20720 <g_544>
    deb6:	48 89 85 a0 ea ff ff 	mov    %rax,-0x1560(%rbp)
    debd:	48 8d 05 5c 28 01 00 	lea    0x1285c(%rip),%rax        # 20720 <g_544>
    dec4:	48 89 85 a8 ea ff ff 	mov    %rax,-0x1558(%rbp)
    decb:	48 c7 85 b0 ea ff ff 	movq   $0x0,-0x1550(%rbp)
    ded2:	00 00 00 00 
    ded6:	48 8d 05 43 28 01 00 	lea    0x12843(%rip),%rax        # 20720 <g_544>
    dedd:	48 89 85 b8 ea ff ff 	mov    %rax,-0x1548(%rbp)
    dee4:	48 8d 05 35 28 01 00 	lea    0x12835(%rip),%rax        # 20720 <g_544>
    deeb:	48 89 85 c0 ea ff ff 	mov    %rax,-0x1540(%rbp)
    def2:	48 c7 85 c8 ea ff ff 	movq   $0x0,-0x1538(%rbp)
    def9:	00 00 00 00 
    defd:	48 8d 05 1c 28 01 00 	lea    0x1281c(%rip),%rax        # 20720 <g_544>
    df04:	48 89 85 d0 ea ff ff 	mov    %rax,-0x1530(%rbp)
    df0b:	48 c7 85 d8 ea ff ff 	movq   $0x0,-0x1528(%rbp)
    df12:	00 00 00 00 
    df16:	48 c7 85 e0 ea ff ff 	movq   $0x0,-0x1520(%rbp)
    df1d:	00 00 00 00 
    df21:	48 8d 05 f8 27 01 00 	lea    0x127f8(%rip),%rax        # 20720 <g_544>
    df28:	48 89 85 e8 ea ff ff 	mov    %rax,-0x1518(%rbp)
    df2f:	c7 85 b4 e4 ff ff ae 	movl   $0xa51f16ae,-0x1b4c(%rbp)
    df36:	16 1f a5 
    df39:	48 bb 81 1b 87 6b db 	movabs $0x7f2b80db6b871b81,%rbx
    df40:	80 2b 7f 
    df43:	48 89 9d f0 ea ff ff 	mov    %rbx,-0x1510(%rbp)
    df4a:	48 89 9d f8 ea ff ff 	mov    %rbx,-0x1508(%rbp)
    df51:	48 b8 54 4b 33 49 04 	movabs $0x24a7510449334b54,%rax
    df58:	51 a7 24 
    df5b:	48 89 85 00 eb ff ff 	mov    %rax,-0x1500(%rbp)
    df62:	48 c7 85 08 eb ff ff 	movq   $0x1,-0x14f8(%rbp)
    df69:	01 00 00 00 
    df6d:	48 89 85 10 eb ff ff 	mov    %rax,-0x14f0(%rbp)
    df74:	48 89 9d 18 eb ff ff 	mov    %rbx,-0x14e8(%rbp)
    df7b:	48 89 9d 20 eb ff ff 	mov    %rbx,-0x14e0(%rbp)
    df82:	48 89 85 28 eb ff ff 	mov    %rax,-0x14d8(%rbp)
    df89:	48 c7 85 30 eb ff ff 	movq   $0x1,-0x14d0(%rbp)
    df90:	01 00 00 00 
    df94:	48 c7 85 38 eb ff ff 	movq   $0xfffffffffffffffc,-0x14c8(%rbp)
    df9b:	fc ff ff ff 
    df9f:	48 bb ae d5 73 60 7c 	movabs $0xc58c247c6073d5ae,%rbx
    dfa6:	24 8c c5 
    dfa9:	48 89 9d 40 eb ff ff 	mov    %rbx,-0x14c0(%rbp)
    dfb0:	48 c7 85 48 eb ff ff 	movq   $0xfffffffffffffffc,-0x14b8(%rbp)
    dfb7:	fc ff ff ff 
    dfbb:	48 89 85 50 eb ff ff 	mov    %rax,-0x14b0(%rbp)
    dfc2:	48 89 85 58 eb ff ff 	mov    %rax,-0x14a8(%rbp)
    dfc9:	48 c7 85 60 eb ff ff 	movq   $0xfffffffffffffffc,-0x14a0(%rbp)
    dfd0:	fc ff ff ff 
    dfd4:	48 89 9d 68 eb ff ff 	mov    %rbx,-0x1498(%rbp)
    dfdb:	48 c7 85 70 eb ff ff 	movq   $0xfffffffffffffffc,-0x1490(%rbp)
    dfe2:	fc ff ff ff 
    dfe6:	48 89 85 78 eb ff ff 	mov    %rax,-0x1488(%rbp)
    dfed:	48 c7 85 80 e6 ff ff 	movq   $0xffffffffffffffff,-0x1980(%rbp)
    dff4:	ff ff ff ff 
    dff8:	48 c7 85 e8 e5 ff ff 	movq   $0x0,-0x1a18(%rbp)
    dfff:	00 00 00 00 
    e003:	48 8d 85 e8 e5 ff ff 	lea    -0x1a18(%rbp),%rax
    e00a:	48 89 85 d0 e9 ff ff 	mov    %rax,-0x1630(%rbp)
    e011:	48 8d 85 e8 e5 ff ff 	lea    -0x1a18(%rbp),%rax
    e018:	48 89 85 d8 e9 ff ff 	mov    %rax,-0x1628(%rbp)
    e01f:	48 8d 85 e8 e5 ff ff 	lea    -0x1a18(%rbp),%rax
    e026:	48 89 85 e0 e9 ff ff 	mov    %rax,-0x1620(%rbp)
    e02d:	48 8d 85 e8 e5 ff ff 	lea    -0x1a18(%rbp),%rax
    e034:	48 89 85 e8 e9 ff ff 	mov    %rax,-0x1618(%rbp)
    e03b:	48 8d 85 e8 e5 ff ff 	lea    -0x1a18(%rbp),%rax
    e042:	48 89 85 f0 e9 ff ff 	mov    %rax,-0x1610(%rbp)
    e049:	48 8d 85 d0 e9 ff ff 	lea    -0x1630(%rbp),%rax
    e050:	48 83 c0 08          	add    $0x8,%rax
    e054:	48 89 85 80 eb ff ff 	mov    %rax,-0x1480(%rbp)
    e05b:	48 8d 85 d0 e9 ff ff 	lea    -0x1630(%rbp),%rax
    e062:	48 83 c0 08          	add    $0x8,%rax
    e066:	48 89 85 88 eb ff ff 	mov    %rax,-0x1478(%rbp)
    e06d:	48 8d 85 d0 e9 ff ff 	lea    -0x1630(%rbp),%rax
    e074:	48 83 c0 08          	add    $0x8,%rax
    e078:	48 89 85 90 eb ff ff 	mov    %rax,-0x1470(%rbp)
    e07f:	48 8d 85 d0 e9 ff ff 	lea    -0x1630(%rbp),%rax
    e086:	48 83 c0 08          	add    $0x8,%rax
    e08a:	48 89 85 98 eb ff ff 	mov    %rax,-0x1468(%rbp)
    e091:	48 8d 85 d0 e9 ff ff 	lea    -0x1630(%rbp),%rax
    e098:	48 83 c0 08          	add    $0x8,%rax
    e09c:	48 89 85 a0 eb ff ff 	mov    %rax,-0x1460(%rbp)
    e0a3:	48 8d 85 d0 e9 ff ff 	lea    -0x1630(%rbp),%rax
    e0aa:	48 83 c0 08          	add    $0x8,%rax
    e0ae:	48 89 85 a8 eb ff ff 	mov    %rax,-0x1458(%rbp)
    e0b5:	48 8d 85 d0 e9 ff ff 	lea    -0x1630(%rbp),%rax
    e0bc:	48 83 c0 08          	add    $0x8,%rax
    e0c0:	48 89 85 b0 eb ff ff 	mov    %rax,-0x1450(%rbp)
    e0c7:	48 8d 85 d0 e9 ff ff 	lea    -0x1630(%rbp),%rax
    e0ce:	48 83 c0 08          	add    $0x8,%rax
    e0d2:	48 89 85 b8 eb ff ff 	mov    %rax,-0x1448(%rbp)
    e0d9:	48 8d 85 d0 e9 ff ff 	lea    -0x1630(%rbp),%rax
    e0e0:	48 83 c0 08          	add    $0x8,%rax
    e0e4:	48 89 85 c0 eb ff ff 	mov    %rax,-0x1440(%rbp)
    e0eb:	48 8d 85 d0 e9 ff ff 	lea    -0x1630(%rbp),%rax
    e0f2:	48 83 c0 08          	add    $0x8,%rax
    e0f6:	48 89 85 c8 eb ff ff 	mov    %rax,-0x1438(%rbp)
    e0fd:	48 8d 85 d0 e9 ff ff 	lea    -0x1630(%rbp),%rax
    e104:	48 83 c0 08          	add    $0x8,%rax
    e108:	48 89 85 d0 eb ff ff 	mov    %rax,-0x1430(%rbp)
    e10f:	48 8d 85 d0 e9 ff ff 	lea    -0x1630(%rbp),%rax
    e116:	48 83 c0 08          	add    $0x8,%rax
    e11a:	48 89 85 d8 eb ff ff 	mov    %rax,-0x1428(%rbp)
    e121:	48 8d 85 d0 e9 ff ff 	lea    -0x1630(%rbp),%rax
    e128:	48 83 c0 08          	add    $0x8,%rax
    e12c:	48 89 85 e0 eb ff ff 	mov    %rax,-0x1420(%rbp)
    e133:	48 8d 85 d0 e9 ff ff 	lea    -0x1630(%rbp),%rax
    e13a:	48 83 c0 08          	add    $0x8,%rax
    e13e:	48 89 85 e8 eb ff ff 	mov    %rax,-0x1418(%rbp)
    e145:	48 8d 85 d0 e9 ff ff 	lea    -0x1630(%rbp),%rax
    e14c:	48 83 c0 08          	add    $0x8,%rax
    e150:	48 89 85 f0 eb ff ff 	mov    %rax,-0x1410(%rbp)
    e157:	48 8d 85 d0 e9 ff ff 	lea    -0x1630(%rbp),%rax
    e15e:	48 83 c0 08          	add    $0x8,%rax
    e162:	48 89 85 f8 eb ff ff 	mov    %rax,-0x1408(%rbp)
    e169:	48 8d 85 d0 e9 ff ff 	lea    -0x1630(%rbp),%rax
    e170:	48 83 c0 08          	add    $0x8,%rax
    e174:	48 89 85 00 ec ff ff 	mov    %rax,-0x1400(%rbp)
    e17b:	48 8d 85 d0 e9 ff ff 	lea    -0x1630(%rbp),%rax
    e182:	48 83 c0 08          	add    $0x8,%rax
    e186:	48 89 85 08 ec ff ff 	mov    %rax,-0x13f8(%rbp)
    e18d:	48 8d 85 d0 e9 ff ff 	lea    -0x1630(%rbp),%rax
    e194:	48 83 c0 10          	add    $0x10,%rax
    e198:	48 89 85 58 e6 ff ff 	mov    %rax,-0x19a8(%rbp)
    e19f:	48 8d 05 7a 25 01 00 	lea    0x1257a(%rip),%rax        # 20720 <g_544>
    e1a6:	48 89 85 f0 e5 ff ff 	mov    %rax,-0x1a10(%rbp)
    e1ad:	48 8d 85 f0 e5 ff ff 	lea    -0x1a10(%rbp),%rax
    e1b4:	48 89 85 60 e6 ff ff 	mov    %rax,-0x19a0(%rbp)
    e1bb:	c6 85 8b e4 ff ff 25 	movb   $0x25,-0x1b75(%rbp)
    e1c2:	48 8d 85 10 ef ff ff 	lea    -0x10f0(%rbp),%rax
    e1c9:	48 8d 15 30 82 01 00 	lea    0x18230(%rip),%rdx        # 26400 <g_2314+0x1558>
    e1d0:	b9 36 00 00 00       	mov    $0x36,%ecx
    e1d5:	48 89 c7             	mov    %rax,%rdi
    e1d8:	48 89 d6             	mov    %rdx,%rsi
    e1db:	f3 48 a5             	rep movsq %ds:(%rsi),%es:(%rdi)
    e1de:	c7 85 d0 e4 ff ff da 	movl   $0xdff44fda,-0x1b30(%rbp)
    e1e5:	4f f4 df 
    e1e8:	c6 85 8c e4 ff ff fe 	movb   $0xfe,-0x1b74(%rbp)
    e1ef:	66 c7 85 96 e4 ff ff 	movw   $0x1f82,-0x1b6a(%rbp)
    e1f6:	82 1f 
    e1f8:	c7 85 d4 e4 ff ff 00 	movl   $0x0,-0x1b2c(%rbp)
    e1ff:	00 00 00 
    e202:	eb 19                	jmp    e21d <func_116+0x4cd>
    e204:	8b 85 d4 e4 ff ff    	mov    -0x1b2c(%rbp),%eax
    e20a:	48 98                	cltq   
    e20c:	66 c7 84 45 72 e9 ff 	movw   $0x1,-0x168e(%rbp,%rax,2)
    e213:	ff 01 00 
    e216:	83 85 d4 e4 ff ff 01 	addl   $0x1,-0x1b2c(%rbp)
    e21d:	83 bd d4 e4 ff ff 06 	cmpl   $0x6,-0x1b2c(%rbp)
    e224:	7e de                	jle    e204 <func_116+0x4b4>
    e226:	c7 85 d4 e4 ff ff 00 	movl   $0x0,-0x1b2c(%rbp)
    e22d:	00 00 00 
    e230:	eb 14                	jmp    e246 <func_116+0x4f6>
    e232:	8b 85 d4 e4 ff ff    	mov    -0x1b2c(%rbp),%eax
    e238:	48 98                	cltq   
    e23a:	c6 44 05 c5 ff       	movb   $0xff,-0x3b(%rbp,%rax,1)
    e23f:	83 85 d4 e4 ff ff 01 	addl   $0x1,-0x1b2c(%rbp)
    e246:	83 bd d4 e4 ff ff 02 	cmpl   $0x2,-0x1b2c(%rbp)
    e24d:	7e e3                	jle    e232 <func_116+0x4e2>
    e24f:	c7 85 d4 e4 ff ff 00 	movl   $0x0,-0x1b2c(%rbp)
    e256:	00 00 00 
    e259:	eb 1a                	jmp    e275 <func_116+0x525>
    e25b:	8b 85 d4 e4 ff ff    	mov    -0x1b2c(%rbp),%eax
    e261:	48 98                	cltq   
    e263:	c7 84 85 6c e9 ff ff 	movl   $0xffffffff,-0x1694(%rbp,%rax,4)
    e26a:	ff ff ff ff 
    e26e:	83 85 d4 e4 ff ff 01 	addl   $0x1,-0x1b2c(%rbp)
    e275:	83 bd d4 e4 ff ff 00 	cmpl   $0x0,-0x1b2c(%rbp)
    e27c:	7e dd                	jle    e25b <func_116+0x50b>
    e27e:	48 8b 85 98 e6 ff ff 	mov    -0x1968(%rbp),%rax
    e285:	48 8b 00             	mov    (%rax),%rax
    e288:	48 8d 50 ff          	lea    -0x1(%rax),%rdx
    e28c:	48 8b 85 98 e6 ff ff 	mov    -0x1968(%rbp),%rax
    e293:	48 89 10             	mov    %rdx,(%rax)
    e296:	c7 85 cc e4 ff ff 00 	movl   $0x0,-0x1b34(%rbp)
    e29d:	00 00 00 
    e2a0:	48 8d 85 40 f8 ff ff 	lea    -0x7c0(%rbp),%rax
    e2a7:	48 89 85 50 e6 ff ff 	mov    %rax,-0x19b0(%rbp)
    e2ae:	48 c7 85 40 e6 ff ff 	movq   $0x0,-0x19c0(%rbp)
    e2b5:	00 00 00 00 
    e2b9:	48 8d 85 40 e6 ff ff 	lea    -0x19c0(%rbp),%rax
    e2c0:	48 89 85 48 e6 ff ff 	mov    %rax,-0x19b8(%rbp)
    e2c7:	c7 85 c8 e4 ff ff 00 	movl   $0x0,-0x1b38(%rbp)
    e2ce:	00 00 00 
    e2d1:	eb 1e                	jmp    e2f1 <func_116+0x5a1>
    e2d3:	8b 85 c8 e4 ff ff    	mov    -0x1b38(%rbp),%eax
    e2d9:	48 98                	cltq   
    e2db:	48 8d 15 aa 23 01 00 	lea    0x123aa(%rip),%rdx        # 2068c <g_385+0xc>
    e2e2:	48 89 94 c5 40 f8 ff 	mov    %rdx,-0x7c0(%rbp,%rax,8)
    e2e9:	ff 
    e2ea:	83 85 c8 e4 ff ff 01 	addl   $0x1,-0x1b38(%rbp)
    e2f1:	83 bd c8 e4 ff ff 06 	cmpl   $0x6,-0x1b38(%rbp)
    e2f8:	7e d9                	jle    e2d3 <func_116+0x583>
    e2fa:	48 8b 85 d8 e5 ff ff 	mov    -0x1a28(%rbp),%rax
    e301:	89 c2                	mov    %eax,%edx
    e303:	8b 85 cc e4 ff ff    	mov    -0x1b34(%rbp),%eax
    e309:	21 d0                	and    %edx,%eax
    e30b:	89 85 cc e4 ff ff    	mov    %eax,-0x1b34(%rbp)
    e311:	48 8b 05 50 8a 01 00 	mov    0x18a50(%rip),%rax        # 26d68 <g_232>
    e318:	8b 00                	mov    (%rax),%eax
    e31a:	23 85 cc e4 ff ff    	and    -0x1b34(%rbp),%eax
    e320:	89 c2                	mov    %eax,%edx
    e322:	48 8b 05 3f 8a 01 00 	mov    0x18a3f(%rip),%rax        # 26d68 <g_232>
    e329:	89 10                	mov    %edx,(%rax)
    e32b:	48 8b 05 3e 8a 01 00 	mov    0x18a3e(%rip),%rax        # 26d70 <g_255>
    e332:	0f b7 00             	movzwl (%rax),%eax
    e335:	0f b7 d8             	movzwl %ax,%ebx
    e338:	8b 85 7c e4 ff ff    	mov    -0x1b84(%rbp),%eax
    e33e:	48 98                	cltq   
    e340:	48 89 c6             	mov    %rax,%rsi
    e343:	bf 01 00 00 00       	mov    $0x1,%edi
    e348:	e8 62 8d ff ff       	callq  70af <safe_div_func_uint64_t_u_u>
    e34d:	48 83 f8 07          	cmp    $0x7,%rax
    e351:	48 8b 95 40 e6 ff ff 	mov    -0x19c0(%rbp),%rdx
    e358:	48 8b 85 48 e6 ff ff 	mov    -0x19b8(%rbp),%rax
    e35f:	48 89 10             	mov    %rdx,(%rax)
    e362:	8b 05 c0 1c 01 00    	mov    0x11cc0(%rip),%eax        # 20028 <g_2>
    e368:	3d fd 00 00 00       	cmp    $0xfd,%eax
    e36d:	0f 94 c0             	sete   %al
    e370:	0f b6 c0             	movzbl %al,%eax
    e373:	f7 d0                	not    %eax
    e375:	0f b7 c0             	movzwl %ax,%eax
    e378:	89 de                	mov    %ebx,%esi
    e37a:	89 c7                	mov    %eax,%edi
    e37c:	e8 bc 89 ff ff       	callq  6d3d <safe_mul_func_uint16_t_u_u>
    e381:	48 8b 85 50 e6 ff ff 	mov    -0x19b0(%rbp),%rax
    e388:	48 8d 15 31 1e 01 00 	lea    0x11e31(%rip),%rdx        # 201c0 <g_84>
    e38f:	48 89 10             	mov    %rdx,(%rax)
    e392:	48 8b 85 50 e6 ff ff 	mov    -0x19b0(%rbp),%rax
    e399:	48 8b 00             	mov    (%rax),%rax
    e39c:	48 8d 15 1d 1e 01 00 	lea    0x11e1d(%rip),%rdx        # 201c0 <g_84>
    e3a3:	48 39 d0             	cmp    %rdx,%rax
    e3a6:	0f 95 c2             	setne  %dl
    e3a9:	48 8b 05 b8 89 01 00 	mov    0x189b8(%rip),%rax        # 26d68 <g_232>
    e3b0:	0f b6 d2             	movzbl %dl,%edx
    e3b3:	89 10                	mov    %edx,(%rax)
    e3b5:	0f b7 85 94 e4 ff ff 	movzwl -0x1b6c(%rbp),%eax
    e3bc:	66 85 c0             	test   %ax,%ax
    e3bf:	0f 85 28 01 00 00    	jne    e4ed <func_116+0x79d>
    e3c5:	0f b7 85 7e e9 ff ff 	movzwl -0x1682(%rbp),%eax
    e3cc:	44 0f b7 e0          	movzwl %ax,%r12d
    e3d0:	48 8b 85 98 e6 ff ff 	mov    -0x1968(%rbp),%rax
    e3d7:	48 8b 00             	mov    (%rax),%rax
    e3da:	48 8d 50 ff          	lea    -0x1(%rax),%rdx
    e3de:	48 8b 85 98 e6 ff ff 	mov    -0x1968(%rbp),%rax
    e3e5:	48 89 10             	mov    %rdx,(%rax)
    e3e8:	48 8b 85 98 e6 ff ff 	mov    -0x1968(%rbp),%rax
    e3ef:	48 8b 00             	mov    (%rax),%rax
    e3f2:	48 85 c0             	test   %rax,%rax
    e3f5:	75 48                	jne    e43f <func_116+0x6ef>
    e3f7:	48 8b 85 68 e4 ff ff 	mov    -0x1b98(%rbp),%rax
    e3fe:	89 c2                	mov    %eax,%edx
    e400:	8b 05 6e 1d 01 00    	mov    0x11d6e(%rip),%eax        # 20174 <g_18>
    e406:	85 c0                	test   %eax,%eax
    e408:	75 0a                	jne    e414 <func_116+0x6c4>
    e40a:	8b 85 20 ea ff ff    	mov    -0x15e0(%rbp),%eax
    e410:	85 c0                	test   %eax,%eax
    e412:	74 07                	je     e41b <func_116+0x6cb>
    e414:	b8 01 00 00 00       	mov    $0x1,%eax
    e419:	eb 05                	jmp    e420 <func_116+0x6d0>
    e41b:	b8 00 00 00 00       	mov    $0x0,%eax
    e420:	83 f8 fa             	cmp    $0xfffffffa,%eax
    e423:	0f 9d c0             	setge  %al
    e426:	0f b6 c0             	movzbl %al,%eax
    e429:	89 d6                	mov    %edx,%esi
    e42b:	89 c7                	mov    %eax,%edi
    e42d:	e8 8c 88 ff ff       	callq  6cbe <safe_rshift_func_uint8_t_u_u>
    e432:	0f b6 d0             	movzbl %al,%edx
    e435:	8b 85 ac e4 ff ff    	mov    -0x1b54(%rbp),%eax
    e43b:	39 c2                	cmp    %eax,%edx
    e43d:	7f 07                	jg     e446 <func_116+0x6f6>
    e43f:	b8 01 00 00 00       	mov    $0x1,%eax
    e444:	eb 05                	jmp    e44b <func_116+0x6fb>
    e446:	b8 00 00 00 00       	mov    $0x0,%eax
    e44b:	98                   	cwtl   
    e44c:	be 01 00 00 00       	mov    $0x1,%esi
    e451:	89 c7                	mov    %eax,%edi
    e453:	e8 7b 7f ff ff       	callq  63d3 <safe_sub_func_int16_t_s_s>
    e458:	0f bf d0             	movswl %ax,%edx
    e45b:	8b 85 ac e4 ff ff    	mov    -0x1b54(%rbp),%eax
    e461:	39 c2                	cmp    %eax,%edx
    e463:	0f 94 c0             	sete   %al
    e466:	0f b6 d0             	movzbl %al,%edx
    e469:	8b 05 a8 1e 01 00    	mov    0x11ea8(%rip),%eax        # 20317 <g_197+0x17>
    e46f:	39 c2                	cmp    %eax,%edx
    e471:	7e 0a                	jle    e47d <func_116+0x72d>
    e473:	8b 85 20 ea ff ff    	mov    -0x15e0(%rbp),%eax
    e479:	85 c0                	test   %eax,%eax
    e47b:	74 07                	je     e484 <func_116+0x734>
    e47d:	ba 01 00 00 00       	mov    $0x1,%edx
    e482:	eb 05                	jmp    e489 <func_116+0x739>
    e484:	ba 00 00 00 00       	mov    $0x0,%edx
    e489:	8b 85 7c e4 ff ff    	mov    -0x1b84(%rbp),%eax
    e48f:	39 c2                	cmp    %eax,%edx
    e491:	0f 9e c0             	setle  %al
    e494:	0f b6 d8             	movzbl %al,%ebx
    e497:	bf 82 c3 ff ff       	mov    $0xffffc382,%edi
    e49c:	e8 fc 7e ff ff       	callq  639d <safe_unary_minus_func_int16_t_s>
    e4a1:	98                   	cwtl   
    e4a2:	89 de                	mov    %ebx,%esi
    e4a4:	89 c7                	mov    %eax,%edi
    e4a6:	e8 4a 7f ff ff       	callq  63f5 <safe_mul_func_int16_t_s_s>
    e4ab:	48 8b 85 68 e6 ff ff 	mov    -0x1998(%rbp),%rax
    e4b2:	c6 00 00             	movb   $0x0,(%rax)
    e4b5:	48 8b 85 68 e6 ff ff 	mov    -0x1998(%rbp),%rax
    e4bc:	0f b6 00             	movzbl (%rax),%eax
    e4bf:	0f be c0             	movsbl %al,%eax
    e4c2:	be 03 00 00 00       	mov    $0x3,%esi
    e4c7:	89 c7                	mov    %eax,%edi
    e4c9:	e8 24 7d ff ff       	callq  61f2 <safe_sub_func_int8_t_s_s>
    e4ce:	0f be c0             	movsbl %al,%eax
    e4d1:	44 21 e0             	and    %r12d,%eax
    e4d4:	83 f8 09             	cmp    $0x9,%eax
    e4d7:	0f 9e c0             	setle  %al
    e4da:	0f b6 c0             	movzbl %al,%eax
    e4dd:	be 05 00 00 00       	mov    $0x5,%esi
    e4e2:	89 c7                	mov    %eax,%edi
    e4e4:	e8 4c 7e ff ff       	callq  6335 <safe_rshift_func_int8_t_s_s>
    e4e9:	84 c0                	test   %al,%al
    e4eb:	74 07                	je     e4f4 <func_116+0x7a4>
    e4ed:	ba 01 00 00 00       	mov    $0x1,%edx
    e4f2:	eb 05                	jmp    e4f9 <func_116+0x7a9>
    e4f4:	ba 00 00 00 00       	mov    $0x0,%edx
    e4f9:	48 8b 85 e0 e5 ff ff 	mov    -0x1a20(%rbp),%rax
    e500:	89 10                	mov    %edx,(%rax)
    e502:	48 8b 85 e0 e5 ff ff 	mov    -0x1a20(%rbp),%rax
    e509:	8b 00                	mov    (%rax),%eax
    e50b:	85 c0                	test   %eax,%eax
    e50d:	0f 84 e9 3e 00 00    	je     123fc <func_116+0x46ac>
    e513:	c6 85 8d e4 ff ff 3b 	movb   $0x3b,-0x1b73(%rbp)
    e51a:	48 c7 85 f8 e5 ff ff 	movq   $0x0,-0x1a08(%rbp)
    e521:	00 00 00 00 
    e525:	48 8d 85 f8 e5 ff ff 	lea    -0x1a08(%rbp),%rax
    e52c:	48 89 85 00 e6 ff ff 	mov    %rax,-0x1a00(%rbp)
    e533:	48 c7 85 08 e6 ff ff 	movq   $0x0,-0x19f8(%rbp)
    e53a:	00 00 00 00 
    e53e:	48 8d 05 8b 1d 01 00 	lea    0x11d8b(%rip),%rax        # 202d0 <g_139>
    e545:	48 89 85 10 e6 ff ff 	mov    %rax,-0x19f0(%rbp)
    e54c:	48 8d 85 10 e6 ff ff 	lea    -0x19f0(%rbp),%rax
    e553:	48 89 85 18 e6 ff ff 	mov    %rax,-0x19e8(%rbp)
    e55a:	48 8d 85 94 e4 ff ff 	lea    -0x1b6c(%rbp),%rax
    e561:	48 89 85 20 e6 ff ff 	mov    %rax,-0x19e0(%rbp)
    e568:	48 8d 05 6d 1d 01 00 	lea    0x11d6d(%rip),%rax        # 202dc <g_165>
    e56f:	48 89 85 38 e8 ff ff 	mov    %rax,-0x17c8(%rbp)
    e576:	48 8d 05 0f 21 01 00 	lea    0x1210f(%rip),%rax        # 2068c <g_385+0xc>
    e57d:	48 89 85 28 e6 ff ff 	mov    %rax,-0x19d8(%rbp)
    e584:	48 8d 05 21 1c 01 00 	lea    0x11c21(%rip),%rax        # 201ac <g_47>
    e58b:	48 89 85 30 e6 ff ff 	mov    %rax,-0x19d0(%rbp)
    e592:	c7 85 00 e5 ff ff ff 	movl   $0xffffffff,-0x1b00(%rbp)
    e599:	ff ff ff 
    e59c:	c7 85 b8 e4 ff ff f7 	movl   $0xfffffff7,-0x1b48(%rbp)
    e5a3:	ff ff ff 
    e5a6:	c7 85 a0 e5 ff ff 8c 	movl   $0xdc28ed8c,-0x1a60(%rbp)
    e5ad:	ed 28 dc 
    e5b0:	c6 85 8f e4 ff ff 00 	movb   $0x0,-0x1b71(%rbp)
    e5b7:	c7 85 a0 e9 ff ff 67 	movl   $0x2953e367,-0x1660(%rbp)
    e5be:	e3 53 29 
    e5c1:	c7 85 a4 e9 ff ff 67 	movl   $0x2953e367,-0x165c(%rbp)
    e5c8:	e3 53 29 
    e5cb:	c7 85 a8 e9 ff ff ed 	movl   $0x701066ed,-0x1658(%rbp)
    e5d2:	66 10 70 
    e5d5:	c7 85 ac e9 ff ff 67 	movl   $0x2953e367,-0x1654(%rbp)
    e5dc:	e3 53 29 
    e5df:	c7 85 b0 e9 ff ff 67 	movl   $0x2953e367,-0x1650(%rbp)
    e5e6:	e3 53 29 
    e5e9:	c7 85 b4 e9 ff ff ed 	movl   $0x701066ed,-0x164c(%rbp)
    e5f0:	66 10 70 
    e5f3:	c7 85 b8 e9 ff ff 67 	movl   $0x2953e367,-0x1648(%rbp)
    e5fa:	e3 53 29 
    e5fd:	c7 85 bc e9 ff ff 67 	movl   $0x2953e367,-0x1644(%rbp)
    e604:	e3 53 29 
    e607:	c7 85 c0 e9 ff ff ed 	movl   $0x701066ed,-0x1640(%rbp)
    e60e:	66 10 70 
    e611:	48 8d 05 90 1b 01 00 	lea    0x11b90(%rip),%rax        # 201a8 <g_43>
    e618:	48 89 85 40 e8 ff ff 	mov    %rax,-0x17c0(%rbp)
    e61f:	66 c7 85 a0 e4 ff ff 	movw   $0xffff,-0x1b60(%rbp)
    e626:	ff ff 
    e628:	48 8d 85 b4 e4 ff ff 	lea    -0x1b4c(%rbp),%rax
    e62f:	48 89 85 48 e8 ff ff 	mov    %rax,-0x17b8(%rbp)
    e636:	c7 85 04 e5 ff ff 00 	movl   $0x0,-0x1afc(%rbp)
    e63d:	00 00 00 
    e640:	eb 54                	jmp    e696 <func_116+0x946>
    e642:	c7 85 fc e4 ff ff 00 	movl   $0x0,-0x1b04(%rbp)
    e649:	00 00 00 
    e64c:	eb 38                	jmp    e686 <func_116+0x936>
    e64e:	8b 85 fc e4 ff ff    	mov    -0x1b04(%rbp),%eax
    e654:	48 63 c8             	movslq %eax,%rcx
    e657:	8b 85 04 e5 ff ff    	mov    -0x1afc(%rbp),%eax
    e65d:	48 63 d0             	movslq %eax,%rdx
    e660:	48 89 d0             	mov    %rdx,%rax
    e663:	48 01 c0             	add    %rax,%rax
    e666:	48 01 d0             	add    %rdx,%rax
    e669:	48 01 c0             	add    %rax,%rax
    e66c:	48 8d 14 08          	lea    (%rax,%rcx,1),%rdx
    e670:	48 8d 85 28 e6 ff ff 	lea    -0x19d8(%rbp),%rax
    e677:	48 89 84 d5 30 ea ff 	mov    %rax,-0x15d0(%rbp,%rdx,8)
    e67e:	ff 
    e67f:	83 85 fc e4 ff ff 01 	addl   $0x1,-0x1b04(%rbp)
    e686:	83 bd fc e4 ff ff 05 	cmpl   $0x5,-0x1b04(%rbp)
    e68d:	7e bf                	jle    e64e <func_116+0x8fe>
    e68f:	83 85 04 e5 ff ff 01 	addl   $0x1,-0x1afc(%rbp)
    e696:	83 bd 04 e5 ff ff 00 	cmpl   $0x0,-0x1afc(%rbp)
    e69d:	7e a3                	jle    e642 <func_116+0x8f2>
    e69f:	48 8b 85 e0 e5 ff ff 	mov    -0x1a20(%rbp),%rax
    e6a6:	8b 00                	mov    (%rax),%eax
    e6a8:	85 c0                	test   %eax,%eax
    e6aa:	74 52                	je     e6fe <func_116+0x9ae>
    e6ac:	48 8d 85 ac e4 ff ff 	lea    -0x1b54(%rbp),%rax
    e6b3:	48 89 85 50 e8 ff ff 	mov    %rax,-0x17b0(%rbp)
    e6ba:	48 c7 85 58 e8 ff ff 	movq   $0x0,-0x17a8(%rbp)
    e6c1:	00 00 00 00 
    e6c5:	48 c7 85 60 e8 ff ff 	movq   $0x0,-0x17a0(%rbp)
    e6cc:	00 00 00 00 
    e6d0:	48 8d 85 40 f8 ff ff 	lea    -0x7c0(%rbp),%rax
    e6d7:	48 8d 15 e2 7e 01 00 	lea    0x17ee2(%rip),%rdx        # 265c0 <g_2314+0x1718>
    e6de:	b9 24 00 00 00       	mov    $0x24,%ecx
    e6e3:	48 89 c7             	mov    %rax,%rdi
    e6e6:	48 89 d6             	mov    %rdx,%rsi
    e6e9:	f3 48 a5             	rep movsq %ds:(%rsi),%es:(%rdi)
    e6ec:	0f b6 85 8d e4 ff ff 	movzbl -0x1b73(%rbp),%eax
    e6f3:	83 e8 01             	sub    $0x1,%eax
    e6f6:	88 85 8d e4 ff ff    	mov    %al,-0x1b73(%rbp)
    e6fc:	eb 24                	jmp    e722 <func_116+0x9d2>
    e6fe:	48 8b 05 1b 87 01 00 	mov    0x1871b(%rip),%rax        # 26e20 <g_555>
    e705:	48 85 c0             	test   %rax,%rax
    e708:	0f 94 c0             	sete   %al
    e70b:	0f b6 c8             	movzbl %al,%ecx
    e70e:	48 8b 85 e0 e5 ff ff 	mov    -0x1a20(%rbp),%rax
    e715:	8b 10                	mov    (%rax),%edx
    e717:	48 8b 85 e0 e5 ff ff 	mov    -0x1a20(%rbp),%rax
    e71e:	21 ca                	and    %ecx,%edx
    e720:	89 10                	mov    %edx,(%rax)
    e722:	48 8b 85 00 e6 ff ff 	mov    -0x1a00(%rbp),%rax
    e729:	48 8d 15 a0 1b 01 00 	lea    0x11ba0(%rip),%rdx        # 202d0 <g_139>
    e730:	48 89 10             	mov    %rdx,(%rax)
    e733:	48 8b 95 18 e6 ff ff 	mov    -0x19e8(%rbp),%rdx
    e73a:	48 8b 00             	mov    (%rax),%rax
    e73d:	48 89 02             	mov    %rax,(%rdx)
    e740:	48 8b 85 e0 e5 ff ff 	mov    -0x1a20(%rbp),%rax
    e747:	8b 00                	mov    (%rax),%eax
    e749:	85 c0                	test   %eax,%eax
    e74b:	0f 84 b2 00 00 00    	je     e803 <func_116+0xab3>
    e751:	8b 85 d8 e4 ff ff    	mov    -0x1b28(%rbp),%eax
    e757:	0f bf d8             	movswl %ax,%ebx
    e75a:	be 02 00 00 00       	mov    $0x2,%esi
    e75f:	bf 00 00 00 00       	mov    $0x0,%edi
    e764:	e8 85 7b ff ff       	callq  62ee <safe_lshift_func_int8_t_s_u>
    e769:	0f be c0             	movsbl %al,%eax
    e76c:	89 de                	mov    %ebx,%esi
    e76e:	89 c7                	mov    %eax,%edi
    e770:	e8 80 7c ff ff       	callq  63f5 <safe_mul_func_int16_t_s_s>
    e775:	48 8b 85 e0 e5 ff ff 	mov    -0x1a20(%rbp),%rax
    e77c:	c7 00 01 00 00 00    	movl   $0x1,(%rax)
    e782:	c6 05 53 1b 01 00 19 	movb   $0x19,0x11b53(%rip)        # 202dc <g_165>
    e789:	eb 3d                	jmp    e7c8 <func_116+0xa78>
    e78b:	48 8d 05 2e 1d 01 00 	lea    0x11d2e(%rip),%rax        # 204c0 <g_342>
    e792:	48 89 85 40 e6 ff ff 	mov    %rax,-0x19c0(%rbp)
    e799:	48 8d 85 40 e6 ff ff 	lea    -0x19c0(%rbp),%rax
    e7a0:	48 89 85 88 e8 ff ff 	mov    %rax,-0x1778(%rbp)
    e7a7:	48 8b 95 40 e6 ff ff 	mov    -0x19c0(%rbp),%rdx
    e7ae:	48 8b 85 88 e8 ff ff 	mov    -0x1778(%rbp),%rax
    e7b5:	48 89 10             	mov    %rdx,(%rax)
    e7b8:	0f b6 05 1d 1b 01 00 	movzbl 0x11b1d(%rip),%eax        # 202dc <g_165>
    e7bf:	83 e8 01             	sub    $0x1,%eax
    e7c2:	88 05 14 1b 01 00    	mov    %al,0x11b14(%rip)        # 202dc <g_165>
    e7c8:	0f b6 05 0d 1b 01 00 	movzbl 0x11b0d(%rip),%eax        # 202dc <g_165>
    e7cf:	3c 18                	cmp    $0x18,%al
    e7d1:	7e b8                	jle    e78b <func_116+0xa3b>
    e7d3:	0f b7 05 fa 1c 01 00 	movzwl 0x11cfa(%rip),%eax        # 204d4 <g_352>
    e7da:	98                   	cwtl   
    e7db:	be 09 00 00 00       	mov    $0x9,%esi
    e7e0:	89 c7                	mov    %eax,%edi
    e7e2:	e8 fa 7c ff ff       	callq  64e1 <safe_lshift_func_int16_t_s_u>
    e7e7:	48 8b 95 e0 e5 ff ff 	mov    -0x1a20(%rbp),%rdx
    e7ee:	8b 0a                	mov    (%rdx),%ecx
    e7f0:	0f bf d0             	movswl %ax,%edx
    e7f3:	48 8b 85 e0 e5 ff ff 	mov    -0x1a20(%rbp),%rax
    e7fa:	21 ca                	and    %ecx,%edx
    e7fc:	89 10                	mov    %edx,(%rax)
    e7fe:	e9 56 09 00 00       	jmpq   f159 <func_116+0x1409>
    e803:	48 8d 85 94 e4 ff ff 	lea    -0x1b6c(%rbp),%rax
    e80a:	48 89 85 68 e8 ff ff 	mov    %rax,-0x1798(%rbp)
    e811:	c6 85 90 e4 ff ff ff 	movb   $0xff,-0x1b70(%rbp)
    e818:	48 8d 85 10 e6 ff ff 	lea    -0x19f0(%rbp),%rax
    e81f:	48 89 85 f0 ed ff ff 	mov    %rax,-0x1210(%rbp)
    e826:	48 8d 85 10 e6 ff ff 	lea    -0x19f0(%rbp),%rax
    e82d:	48 89 85 f8 ed ff ff 	mov    %rax,-0x1208(%rbp)
    e834:	48 8d 85 10 e6 ff ff 	lea    -0x19f0(%rbp),%rax
    e83b:	48 89 85 00 ee ff ff 	mov    %rax,-0x1200(%rbp)
    e842:	48 8d 85 10 e6 ff ff 	lea    -0x19f0(%rbp),%rax
    e849:	48 89 85 08 ee ff ff 	mov    %rax,-0x11f8(%rbp)
    e850:	48 8d 85 10 e6 ff ff 	lea    -0x19f0(%rbp),%rax
    e857:	48 89 85 10 ee ff ff 	mov    %rax,-0x11f0(%rbp)
    e85e:	48 8d 85 10 e6 ff ff 	lea    -0x19f0(%rbp),%rax
    e865:	48 89 85 18 ee ff ff 	mov    %rax,-0x11e8(%rbp)
    e86c:	48 8d 85 10 e6 ff ff 	lea    -0x19f0(%rbp),%rax
    e873:	48 89 85 20 ee ff ff 	mov    %rax,-0x11e0(%rbp)
    e87a:	48 8d 85 10 e6 ff ff 	lea    -0x19f0(%rbp),%rax
    e881:	48 89 85 28 ee ff ff 	mov    %rax,-0x11d8(%rbp)
    e888:	48 8d 85 10 e6 ff ff 	lea    -0x19f0(%rbp),%rax
    e88f:	48 89 85 30 ee ff ff 	mov    %rax,-0x11d0(%rbp)
    e896:	48 8d 85 10 e6 ff ff 	lea    -0x19f0(%rbp),%rax
    e89d:	48 89 85 38 ee ff ff 	mov    %rax,-0x11c8(%rbp)
    e8a4:	48 8d 05 85 21 01 00 	lea    0x12185(%rip),%rax        # 20a30 <g_637>
    e8ab:	48 89 85 70 e8 ff ff 	mov    %rax,-0x1790(%rbp)
    e8b2:	48 8d 85 30 e6 ff ff 	lea    -0x19d0(%rbp),%rax
    e8b9:	48 89 85 40 f8 ff ff 	mov    %rax,-0x7c0(%rbp)
    e8c0:	48 8d 85 30 e6 ff ff 	lea    -0x19d0(%rbp),%rax
    e8c7:	48 89 85 48 f8 ff ff 	mov    %rax,-0x7b8(%rbp)
    e8ce:	48 8d 85 30 e6 ff ff 	lea    -0x19d0(%rbp),%rax
    e8d5:	48 89 85 50 f8 ff ff 	mov    %rax,-0x7b0(%rbp)
    e8dc:	48 8d 85 30 e6 ff ff 	lea    -0x19d0(%rbp),%rax
    e8e3:	48 89 85 58 f8 ff ff 	mov    %rax,-0x7a8(%rbp)
    e8ea:	48 8d 85 30 e6 ff ff 	lea    -0x19d0(%rbp),%rax
    e8f1:	48 89 85 60 f8 ff ff 	mov    %rax,-0x7a0(%rbp)
    e8f8:	48 8d 85 30 e6 ff ff 	lea    -0x19d0(%rbp),%rax
    e8ff:	48 89 85 68 f8 ff ff 	mov    %rax,-0x798(%rbp)
    e906:	48 8d 85 30 e6 ff ff 	lea    -0x19d0(%rbp),%rax
    e90d:	48 89 85 70 f8 ff ff 	mov    %rax,-0x790(%rbp)
    e914:	48 8d 85 30 e6 ff ff 	lea    -0x19d0(%rbp),%rax
    e91b:	48 89 85 78 f8 ff ff 	mov    %rax,-0x788(%rbp)
    e922:	48 8d 85 30 e6 ff ff 	lea    -0x19d0(%rbp),%rax
    e929:	48 89 85 80 f8 ff ff 	mov    %rax,-0x780(%rbp)
    e930:	48 8d 85 30 e6 ff ff 	lea    -0x19d0(%rbp),%rax
    e937:	48 89 85 88 f8 ff ff 	mov    %rax,-0x778(%rbp)
    e93e:	48 8d 85 30 e6 ff ff 	lea    -0x19d0(%rbp),%rax
    e945:	48 89 85 90 f8 ff ff 	mov    %rax,-0x770(%rbp)
    e94c:	48 8d 85 30 e6 ff ff 	lea    -0x19d0(%rbp),%rax
    e953:	48 89 85 98 f8 ff ff 	mov    %rax,-0x768(%rbp)
    e95a:	48 8d 85 30 e6 ff ff 	lea    -0x19d0(%rbp),%rax
    e961:	48 89 85 a0 f8 ff ff 	mov    %rax,-0x760(%rbp)
    e968:	48 8d 85 30 e6 ff ff 	lea    -0x19d0(%rbp),%rax
    e96f:	48 89 85 a8 f8 ff ff 	mov    %rax,-0x758(%rbp)
    e976:	48 8d 85 30 e6 ff ff 	lea    -0x19d0(%rbp),%rax
    e97d:	48 89 85 b0 f8 ff ff 	mov    %rax,-0x750(%rbp)
    e984:	48 8d 85 30 e6 ff ff 	lea    -0x19d0(%rbp),%rax
    e98b:	48 89 85 b8 f8 ff ff 	mov    %rax,-0x748(%rbp)
    e992:	48 8d 85 30 e6 ff ff 	lea    -0x19d0(%rbp),%rax
    e999:	48 89 85 c0 f8 ff ff 	mov    %rax,-0x740(%rbp)
    e9a0:	48 8d 85 30 e6 ff ff 	lea    -0x19d0(%rbp),%rax
    e9a7:	48 89 85 c8 f8 ff ff 	mov    %rax,-0x738(%rbp)
    e9ae:	48 8d 85 30 e6 ff ff 	lea    -0x19d0(%rbp),%rax
    e9b5:	48 89 85 d0 f8 ff ff 	mov    %rax,-0x730(%rbp)
    e9bc:	48 8d 85 30 e6 ff ff 	lea    -0x19d0(%rbp),%rax
    e9c3:	48 89 85 d8 f8 ff ff 	mov    %rax,-0x728(%rbp)
    e9ca:	48 8d 85 30 e6 ff ff 	lea    -0x19d0(%rbp),%rax
    e9d1:	48 89 85 e0 f8 ff ff 	mov    %rax,-0x720(%rbp)
    e9d8:	48 8d 85 30 e6 ff ff 	lea    -0x19d0(%rbp),%rax
    e9df:	48 89 85 e8 f8 ff ff 	mov    %rax,-0x718(%rbp)
    e9e6:	48 8d 85 30 e6 ff ff 	lea    -0x19d0(%rbp),%rax
    e9ed:	48 89 85 f0 f8 ff ff 	mov    %rax,-0x710(%rbp)
    e9f4:	48 8d 85 30 e6 ff ff 	lea    -0x19d0(%rbp),%rax
    e9fb:	48 89 85 f8 f8 ff ff 	mov    %rax,-0x708(%rbp)
    ea02:	48 8d 85 30 e6 ff ff 	lea    -0x19d0(%rbp),%rax
    ea09:	48 89 85 00 f9 ff ff 	mov    %rax,-0x700(%rbp)
    ea10:	48 8d 85 30 e6 ff ff 	lea    -0x19d0(%rbp),%rax
    ea17:	48 89 85 08 f9 ff ff 	mov    %rax,-0x6f8(%rbp)
    ea1e:	48 8d 85 30 e6 ff ff 	lea    -0x19d0(%rbp),%rax
    ea25:	48 89 85 10 f9 ff ff 	mov    %rax,-0x6f0(%rbp)
    ea2c:	48 8d 85 30 e6 ff ff 	lea    -0x19d0(%rbp),%rax
    ea33:	48 89 85 18 f9 ff ff 	mov    %rax,-0x6e8(%rbp)
    ea3a:	48 8d 85 30 e6 ff ff 	lea    -0x19d0(%rbp),%rax
    ea41:	48 89 85 20 f9 ff ff 	mov    %rax,-0x6e0(%rbp)
    ea48:	48 8d 85 30 e6 ff ff 	lea    -0x19d0(%rbp),%rax
    ea4f:	48 89 85 28 f9 ff ff 	mov    %rax,-0x6d8(%rbp)
    ea56:	48 8d 85 30 e6 ff ff 	lea    -0x19d0(%rbp),%rax
    ea5d:	48 89 85 30 f9 ff ff 	mov    %rax,-0x6d0(%rbp)
    ea64:	48 8d 85 30 e6 ff ff 	lea    -0x19d0(%rbp),%rax
    ea6b:	48 89 85 38 f9 ff ff 	mov    %rax,-0x6c8(%rbp)
    ea72:	48 8d 85 30 e6 ff ff 	lea    -0x19d0(%rbp),%rax
    ea79:	48 89 85 40 f9 ff ff 	mov    %rax,-0x6c0(%rbp)
    ea80:	48 8d 85 30 e6 ff ff 	lea    -0x19d0(%rbp),%rax
    ea87:	48 89 85 48 f9 ff ff 	mov    %rax,-0x6b8(%rbp)
    ea8e:	48 8d 85 30 e6 ff ff 	lea    -0x19d0(%rbp),%rax
    ea95:	48 89 85 50 f9 ff ff 	mov    %rax,-0x6b0(%rbp)
    ea9c:	48 8d 85 30 e6 ff ff 	lea    -0x19d0(%rbp),%rax
    eaa3:	48 89 85 58 f9 ff ff 	mov    %rax,-0x6a8(%rbp)
    eaaa:	48 8d 85 30 e6 ff ff 	lea    -0x19d0(%rbp),%rax
    eab1:	48 89 85 60 f9 ff ff 	mov    %rax,-0x6a0(%rbp)
    eab8:	48 8d 85 30 e6 ff ff 	lea    -0x19d0(%rbp),%rax
    eabf:	48 89 85 68 f9 ff ff 	mov    %rax,-0x698(%rbp)
    eac6:	48 8d 85 30 e6 ff ff 	lea    -0x19d0(%rbp),%rax
    eacd:	48 89 85 70 f9 ff ff 	mov    %rax,-0x690(%rbp)
    ead4:	48 8d 85 30 e6 ff ff 	lea    -0x19d0(%rbp),%rax
    eadb:	48 89 85 78 f9 ff ff 	mov    %rax,-0x688(%rbp)
    eae2:	48 8d 85 30 e6 ff ff 	lea    -0x19d0(%rbp),%rax
    eae9:	48 89 85 80 f9 ff ff 	mov    %rax,-0x680(%rbp)
    eaf0:	48 8d 85 30 e6 ff ff 	lea    -0x19d0(%rbp),%rax
    eaf7:	48 89 85 88 f9 ff ff 	mov    %rax,-0x678(%rbp)
    eafe:	48 8d 85 30 e6 ff ff 	lea    -0x19d0(%rbp),%rax
    eb05:	48 89 85 90 f9 ff ff 	mov    %rax,-0x670(%rbp)
    eb0c:	48 8d 85 30 e6 ff ff 	lea    -0x19d0(%rbp),%rax
    eb13:	48 89 85 98 f9 ff ff 	mov    %rax,-0x668(%rbp)
    eb1a:	48 8d 85 30 e6 ff ff 	lea    -0x19d0(%rbp),%rax
    eb21:	48 89 85 a0 f9 ff ff 	mov    %rax,-0x660(%rbp)
    eb28:	48 8d 85 30 e6 ff ff 	lea    -0x19d0(%rbp),%rax
    eb2f:	48 89 85 a8 f9 ff ff 	mov    %rax,-0x658(%rbp)
    eb36:	48 8d 85 30 e6 ff ff 	lea    -0x19d0(%rbp),%rax
    eb3d:	48 89 85 b0 f9 ff ff 	mov    %rax,-0x650(%rbp)
    eb44:	48 8d 85 30 e6 ff ff 	lea    -0x19d0(%rbp),%rax
    eb4b:	48 89 85 b8 f9 ff ff 	mov    %rax,-0x648(%rbp)
    eb52:	48 8d 85 30 e6 ff ff 	lea    -0x19d0(%rbp),%rax
    eb59:	48 89 85 c0 f9 ff ff 	mov    %rax,-0x640(%rbp)
    eb60:	48 8d 85 30 e6 ff ff 	lea    -0x19d0(%rbp),%rax
    eb67:	48 89 85 c8 f9 ff ff 	mov    %rax,-0x638(%rbp)
    eb6e:	48 8d 85 30 e6 ff ff 	lea    -0x19d0(%rbp),%rax
    eb75:	48 89 85 d0 f9 ff ff 	mov    %rax,-0x630(%rbp)
    eb7c:	48 8d 85 30 e6 ff ff 	lea    -0x19d0(%rbp),%rax
    eb83:	48 89 85 d8 f9 ff ff 	mov    %rax,-0x628(%rbp)
    eb8a:	48 8d 85 30 e6 ff ff 	lea    -0x19d0(%rbp),%rax
    eb91:	48 89 85 e0 f9 ff ff 	mov    %rax,-0x620(%rbp)
    eb98:	48 8d 85 30 e6 ff ff 	lea    -0x19d0(%rbp),%rax
    eb9f:	48 89 85 e8 f9 ff ff 	mov    %rax,-0x618(%rbp)
    eba6:	48 8d 85 30 e6 ff ff 	lea    -0x19d0(%rbp),%rax
    ebad:	48 89 85 f0 f9 ff ff 	mov    %rax,-0x610(%rbp)
    ebb4:	48 8d 85 30 e6 ff ff 	lea    -0x19d0(%rbp),%rax
    ebbb:	48 89 85 f8 f9 ff ff 	mov    %rax,-0x608(%rbp)
    ebc2:	48 8d 85 30 e6 ff ff 	lea    -0x19d0(%rbp),%rax
    ebc9:	48 89 85 00 fa ff ff 	mov    %rax,-0x600(%rbp)
    ebd0:	48 8d 85 30 e6 ff ff 	lea    -0x19d0(%rbp),%rax
    ebd7:	48 89 85 08 fa ff ff 	mov    %rax,-0x5f8(%rbp)
    ebde:	48 8d 85 30 e6 ff ff 	lea    -0x19d0(%rbp),%rax
    ebe5:	48 89 85 10 fa ff ff 	mov    %rax,-0x5f0(%rbp)
    ebec:	48 8d 85 30 e6 ff ff 	lea    -0x19d0(%rbp),%rax
    ebf3:	48 89 85 18 fa ff ff 	mov    %rax,-0x5e8(%rbp)
    ebfa:	48 8d 85 30 e6 ff ff 	lea    -0x19d0(%rbp),%rax
    ec01:	48 89 85 20 fa ff ff 	mov    %rax,-0x5e0(%rbp)
    ec08:	48 8d 85 30 e6 ff ff 	lea    -0x19d0(%rbp),%rax
    ec0f:	48 89 85 28 fa ff ff 	mov    %rax,-0x5d8(%rbp)
    ec16:	48 8d 85 30 e6 ff ff 	lea    -0x19d0(%rbp),%rax
    ec1d:	48 89 85 30 fa ff ff 	mov    %rax,-0x5d0(%rbp)
    ec24:	48 8d 85 30 e6 ff ff 	lea    -0x19d0(%rbp),%rax
    ec2b:	48 89 85 38 fa ff ff 	mov    %rax,-0x5c8(%rbp)
    ec32:	48 8d 85 30 e6 ff ff 	lea    -0x19d0(%rbp),%rax
    ec39:	48 89 85 40 fa ff ff 	mov    %rax,-0x5c0(%rbp)
    ec40:	48 8d 85 30 e6 ff ff 	lea    -0x19d0(%rbp),%rax
    ec47:	48 89 85 48 fa ff ff 	mov    %rax,-0x5b8(%rbp)
    ec4e:	48 8d 85 30 e6 ff ff 	lea    -0x19d0(%rbp),%rax
    ec55:	48 89 85 50 fa ff ff 	mov    %rax,-0x5b0(%rbp)
    ec5c:	48 8d 85 30 e6 ff ff 	lea    -0x19d0(%rbp),%rax
    ec63:	48 89 85 58 fa ff ff 	mov    %rax,-0x5a8(%rbp)
    ec6a:	48 8d 85 30 e6 ff ff 	lea    -0x19d0(%rbp),%rax
    ec71:	48 89 85 60 fa ff ff 	mov    %rax,-0x5a0(%rbp)
    ec78:	48 8d 85 30 e6 ff ff 	lea    -0x19d0(%rbp),%rax
    ec7f:	48 89 85 68 fa ff ff 	mov    %rax,-0x598(%rbp)
    ec86:	48 8d 85 30 e6 ff ff 	lea    -0x19d0(%rbp),%rax
    ec8d:	48 89 85 70 fa ff ff 	mov    %rax,-0x590(%rbp)
    ec94:	48 8d 85 30 e6 ff ff 	lea    -0x19d0(%rbp),%rax
    ec9b:	48 89 85 78 fa ff ff 	mov    %rax,-0x588(%rbp)
    eca2:	48 8d 85 30 e6 ff ff 	lea    -0x19d0(%rbp),%rax
    eca9:	48 89 85 80 fa ff ff 	mov    %rax,-0x580(%rbp)
    ecb0:	48 8d 85 30 e6 ff ff 	lea    -0x19d0(%rbp),%rax
    ecb7:	48 89 85 88 fa ff ff 	mov    %rax,-0x578(%rbp)
    ecbe:	48 8d 85 30 e6 ff ff 	lea    -0x19d0(%rbp),%rax
    ecc5:	48 89 85 90 fa ff ff 	mov    %rax,-0x570(%rbp)
    eccc:	48 8d 85 30 e6 ff ff 	lea    -0x19d0(%rbp),%rax
    ecd3:	48 89 85 98 fa ff ff 	mov    %rax,-0x568(%rbp)
    ecda:	48 8d 85 30 e6 ff ff 	lea    -0x19d0(%rbp),%rax
    ece1:	48 89 85 a0 fa ff ff 	mov    %rax,-0x560(%rbp)
    ece8:	48 8d 85 30 e6 ff ff 	lea    -0x19d0(%rbp),%rax
    ecef:	48 89 85 a8 fa ff ff 	mov    %rax,-0x558(%rbp)
    ecf6:	48 8d 85 30 e6 ff ff 	lea    -0x19d0(%rbp),%rax
    ecfd:	48 89 85 b0 fa ff ff 	mov    %rax,-0x550(%rbp)
    ed04:	48 8d 85 30 e6 ff ff 	lea    -0x19d0(%rbp),%rax
    ed0b:	48 89 85 b8 fa ff ff 	mov    %rax,-0x548(%rbp)
    ed12:	48 8d 85 30 e6 ff ff 	lea    -0x19d0(%rbp),%rax
    ed19:	48 89 85 c0 fa ff ff 	mov    %rax,-0x540(%rbp)
    ed20:	48 8d 85 30 e6 ff ff 	lea    -0x19d0(%rbp),%rax
    ed27:	48 89 85 c8 fa ff ff 	mov    %rax,-0x538(%rbp)
    ed2e:	48 8d 85 30 e6 ff ff 	lea    -0x19d0(%rbp),%rax
    ed35:	48 89 85 d0 fa ff ff 	mov    %rax,-0x530(%rbp)
    ed3c:	48 8d 85 30 e6 ff ff 	lea    -0x19d0(%rbp),%rax
    ed43:	48 89 85 d8 fa ff ff 	mov    %rax,-0x528(%rbp)
    ed4a:	48 8d 85 30 e6 ff ff 	lea    -0x19d0(%rbp),%rax
    ed51:	48 89 85 e0 fa ff ff 	mov    %rax,-0x520(%rbp)
    ed58:	48 8d 85 30 e6 ff ff 	lea    -0x19d0(%rbp),%rax
    ed5f:	48 89 85 e8 fa ff ff 	mov    %rax,-0x518(%rbp)
    ed66:	48 8d 85 30 e6 ff ff 	lea    -0x19d0(%rbp),%rax
    ed6d:	48 89 85 f0 fa ff ff 	mov    %rax,-0x510(%rbp)
    ed74:	48 8d 85 30 e6 ff ff 	lea    -0x19d0(%rbp),%rax
    ed7b:	48 89 85 f8 fa ff ff 	mov    %rax,-0x508(%rbp)
    ed82:	48 8d 85 30 e6 ff ff 	lea    -0x19d0(%rbp),%rax
    ed89:	48 89 85 00 fb ff ff 	mov    %rax,-0x500(%rbp)
    ed90:	48 8d 85 30 e6 ff ff 	lea    -0x19d0(%rbp),%rax
    ed97:	48 89 85 08 fb ff ff 	mov    %rax,-0x4f8(%rbp)
    ed9e:	48 8d 05 a3 12 01 00 	lea    0x112a3(%rip),%rax        # 20048 <g_8>
    eda5:	48 89 85 c0 f0 ff ff 	mov    %rax,-0xf40(%rbp)
    edac:	48 8d 05 91 12 01 00 	lea    0x11291(%rip),%rax        # 20044 <g_5+0x14>
    edb3:	48 89 85 c8 f0 ff ff 	mov    %rax,-0xf38(%rbp)
    edba:	48 8d 05 f7 18 01 00 	lea    0x118f7(%rip),%rax        # 206b8 <g_402>
    edc1:	48 89 85 d0 f0 ff ff 	mov    %rax,-0xf30(%rbp)
    edc8:	48 8d 85 00 ea ff ff 	lea    -0x1600(%rbp),%rax
    edcf:	48 83 c0 20          	add    $0x20,%rax
    edd3:	48 89 85 d8 f0 ff ff 	mov    %rax,-0xf28(%rbp)
    edda:	48 c7 85 e0 f0 ff ff 	movq   $0x0,-0xf20(%rbp)
    ede1:	00 00 00 00 
    ede5:	48 8d 05 3c 12 01 00 	lea    0x1123c(%rip),%rax        # 20028 <g_2>
    edec:	48 89 85 e8 f0 ff ff 	mov    %rax,-0xf18(%rbp)
    edf3:	48 c7 85 f0 f0 ff ff 	movq   $0x0,-0xf10(%rbp)
    edfa:	00 00 00 00 
    edfe:	48 c7 85 f8 f0 ff ff 	movq   $0x0,-0xf08(%rbp)
    ee05:	00 00 00 00 
    ee09:	48 c7 85 00 f1 ff ff 	movq   $0x0,-0xf00(%rbp)
    ee10:	00 00 00 00 
    ee14:	48 c7 85 08 f1 ff ff 	movq   $0x0,-0xef8(%rbp)
    ee1b:	00 00 00 00 
    ee1f:	48 8d 05 92 18 01 00 	lea    0x11892(%rip),%rax        # 206b8 <g_402>
    ee26:	48 89 85 10 f1 ff ff 	mov    %rax,-0xef0(%rbp)
    ee2d:	48 8d 05 1c 12 01 00 	lea    0x1121c(%rip),%rax        # 20050 <g_12>
    ee34:	48 89 85 18 f1 ff ff 	mov    %rax,-0xee8(%rbp)
    ee3b:	48 8d 05 06 12 01 00 	lea    0x11206(%rip),%rax        # 20048 <g_8>
    ee42:	48 89 85 20 f1 ff ff 	mov    %rax,-0xee0(%rbp)
    ee49:	48 c7 85 28 f1 ff ff 	movq   $0x0,-0xed8(%rbp)
    ee50:	00 00 00 00 
    ee54:	48 c7 85 30 f1 ff ff 	movq   $0x0,-0xed0(%rbp)
    ee5b:	00 00 00 00 
    ee5f:	48 c7 85 38 f1 ff ff 	movq   $0x0,-0xec8(%rbp)
    ee66:	00 00 00 00 
    ee6a:	48 8d 05 47 18 01 00 	lea    0x11847(%rip),%rax        # 206b8 <g_402>
    ee71:	48 89 85 40 f1 ff ff 	mov    %rax,-0xec0(%rbp)
    ee78:	48 8d 05 a9 11 01 00 	lea    0x111a9(%rip),%rax        # 20028 <g_2>
    ee7f:	48 89 85 48 f1 ff ff 	mov    %rax,-0xeb8(%rbp)
    ee86:	48 c7 85 50 f1 ff ff 	movq   $0x0,-0xeb0(%rbp)
    ee8d:	00 00 00 00 
    ee91:	48 8d 85 00 ea ff ff 	lea    -0x1600(%rbp),%rax
    ee98:	48 83 c0 20          	add    $0x20,%rax
    ee9c:	48 89 85 58 f1 ff ff 	mov    %rax,-0xea8(%rbp)
    eea3:	48 8d 05 9e 11 01 00 	lea    0x1119e(%rip),%rax        # 20048 <g_8>
    eeaa:	48 89 85 60 f1 ff ff 	mov    %rax,-0xea0(%rbp)
    eeb1:	48 8d 05 8c 11 01 00 	lea    0x1118c(%rip),%rax        # 20044 <g_5+0x14>
    eeb8:	48 89 85 68 f1 ff ff 	mov    %rax,-0xe98(%rbp)
    eebf:	48 8d 05 f2 17 01 00 	lea    0x117f2(%rip),%rax        # 206b8 <g_402>
    eec6:	48 89 85 70 f1 ff ff 	mov    %rax,-0xe90(%rbp)
    eecd:	48 8d 85 00 ea ff ff 	lea    -0x1600(%rbp),%rax
    eed4:	48 83 c0 20          	add    $0x20,%rax
    eed8:	48 89 85 78 f1 ff ff 	mov    %rax,-0xe88(%rbp)
    eedf:	48 c7 85 80 f1 ff ff 	movq   $0x0,-0xe80(%rbp)
    eee6:	00 00 00 00 
    eeea:	48 8d 05 37 11 01 00 	lea    0x11137(%rip),%rax        # 20028 <g_2>
    eef1:	48 89 85 88 f1 ff ff 	mov    %rax,-0xe78(%rbp)
    eef8:	48 c7 85 90 f1 ff ff 	movq   $0x0,-0xe70(%rbp)
    eeff:	00 00 00 00 
    ef03:	48 c7 85 98 f1 ff ff 	movq   $0x0,-0xe68(%rbp)
    ef0a:	00 00 00 00 
    ef0e:	48 c7 85 a0 f1 ff ff 	movq   $0x0,-0xe60(%rbp)
    ef15:	00 00 00 00 
    ef19:	48 c7 85 a8 f1 ff ff 	movq   $0x0,-0xe58(%rbp)
    ef20:	00 00 00 00 
    ef24:	48 8d 05 8d 17 01 00 	lea    0x1178d(%rip),%rax        # 206b8 <g_402>
    ef2b:	48 89 85 b0 f1 ff ff 	mov    %rax,-0xe50(%rbp)
    ef32:	48 8d 05 17 11 01 00 	lea    0x11117(%rip),%rax        # 20050 <g_12>
    ef39:	48 89 85 b8 f1 ff ff 	mov    %rax,-0xe48(%rbp)
    ef40:	48 8d 05 01 11 01 00 	lea    0x11101(%rip),%rax        # 20048 <g_8>
    ef47:	48 89 85 c0 f1 ff ff 	mov    %rax,-0xe40(%rbp)
    ef4e:	48 c7 85 c8 f1 ff ff 	movq   $0x0,-0xe38(%rbp)
    ef55:	00 00 00 00 
    ef59:	48 c7 85 d0 f1 ff ff 	movq   $0x0,-0xe30(%rbp)
    ef60:	00 00 00 00 
    ef64:	48 c7 85 d8 f1 ff ff 	movq   $0x0,-0xe28(%rbp)
    ef6b:	00 00 00 00 
    ef6f:	48 8d 05 42 17 01 00 	lea    0x11742(%rip),%rax        # 206b8 <g_402>
    ef76:	48 89 85 e0 f1 ff ff 	mov    %rax,-0xe20(%rbp)
    ef7d:	48 8d 05 a4 10 01 00 	lea    0x110a4(%rip),%rax        # 20028 <g_2>
    ef84:	48 89 85 e8 f1 ff ff 	mov    %rax,-0xe18(%rbp)
    ef8b:	48 c7 85 f0 f1 ff ff 	movq   $0x0,-0xe10(%rbp)
    ef92:	00 00 00 00 
    ef96:	48 8d 85 00 ea ff ff 	lea    -0x1600(%rbp),%rax
    ef9d:	48 83 c0 20          	add    $0x20,%rax
    efa1:	48 89 85 f8 f1 ff ff 	mov    %rax,-0xe08(%rbp)
    efa8:	48 8b 05 c1 7d 01 00 	mov    0x17dc1(%rip),%rax        # 26d70 <g_255>
    efaf:	0f b7 10             	movzwl (%rax),%edx
    efb2:	8d 4a 01             	lea    0x1(%rdx),%ecx
    efb5:	66 89 08             	mov    %cx,(%rax)
    efb8:	0f b7 d2             	movzwl %dx,%edx
    efbb:	48 8b 85 e0 e5 ff ff 	mov    -0x1a20(%rbp),%rax
    efc2:	8b 00                	mov    (%rax),%eax
    efc4:	0f b7 c0             	movzwl %ax,%eax
    efc7:	89 d6                	mov    %edx,%esi
    efc9:	89 c7                	mov    %eax,%edi
    efcb:	e8 2f 7d ff ff       	callq  6cff <safe_add_func_uint16_t_u_u>
    efd0:	8b 95 20 ea ff ff    	mov    -0x15e0(%rbp),%edx
    efd6:	0f b7 c0             	movzwl %ax,%eax
    efd9:	21 d0                	and    %edx,%eax
    efdb:	89 85 20 ea ff ff    	mov    %eax,-0x15e0(%rbp)
    efe1:	48 8b 95 e0 e5 ff ff 	mov    -0x1a20(%rbp),%rdx
    efe8:	48 8b 85 e0 e5 ff ff 	mov    -0x1a20(%rbp),%rax
    efef:	8b 12                	mov    (%rdx),%edx
    eff1:	89 10                	mov    %edx,(%rax)
    eff3:	0f b6 05 e2 12 01 00 	movzbl 0x112e2(%rip),%eax        # 202dc <g_165>
    effa:	84 c0                	test   %al,%al
    effc:	90                   	nop
    effd:	f3 0f 1e fa          	endbr64 
    f001:	66 c7 05 ee 15 01 00 	movw   $0x0,0x115ee(%rip)        # 205f8 <g_370>
    f008:	00 00 
    f00a:	eb 49                	jmp    f055 <func_116+0x1305>
    f00c:	c6 85 91 e4 ff ff ee 	movb   $0xee,-0x1b6f(%rbp)
    f013:	48 c7 85 78 e8 ff ff 	movq   $0x0,-0x1788(%rbp)
    f01a:	00 00 00 00 
    f01e:	48 8d 85 00 e6 ff ff 	lea    -0x1a00(%rbp),%rax
    f025:	48 89 85 80 e8 ff ff 	mov    %rax,-0x1780(%rbp)
    f02c:	c7 85 a4 e5 ff ff 01 	movl   $0x1,-0x1a5c(%rbp)
    f033:	00 00 00 
    f036:	0f b7 05 bb 15 01 00 	movzwl 0x115bb(%rip),%eax        # 205f8 <g_370>
    f03d:	0f be c0             	movsbl %al,%eax
    f040:	be 01 00 00 00       	mov    $0x1,%esi
    f045:	89 c7                	mov    %eax,%edi
    f047:	e8 88 71 ff ff       	callq  61d4 <safe_add_func_int8_t_s_s>
    f04c:	66 98                	cbtw   
    f04e:	66 89 05 a3 15 01 00 	mov    %ax,0x115a3(%rip)        # 205f8 <g_370>
    f055:	0f b7 05 9c 15 01 00 	movzwl 0x1159c(%rip),%eax        # 205f8 <g_370>
    f05c:	66 83 f8 1e          	cmp    $0x1e,%ax
    f060:	77 aa                	ja     f00c <func_116+0x12bc>
    f062:	48 83 bd 68 e4 ff ff 	cmpq   $0x0,-0x1b98(%rbp)
    f069:	00 
    f06a:	74 0e                	je     f07a <func_116+0x132a>
    f06c:	48 8b 05 ed 13 01 00 	mov    0x113ed(%rip),%rax        # 20460 <g_292+0x10>
    f073:	25 ff ff ff 03       	and    $0x3ffffff,%eax
    f078:	85 c0                	test   %eax,%eax
    f07a:	0f b7 05 87 15 01 00 	movzwl 0x11587(%rip),%eax        # 20608 <g_374>
    f081:	0f b6 d8             	movzbl %al,%ebx
    f084:	48 8b 85 30 e6 ff ff 	mov    -0x19d0(%rbp),%rax
    f08b:	48 89 05 9e 7d 01 00 	mov    %rax,0x17d9e(%rip)        # 26e30 <g_681>
    f092:	48 8b 05 97 7d 01 00 	mov    0x17d97(%rip),%rax        # 26e30 <g_681>
    f099:	48 89 05 98 7d 01 00 	mov    %rax,0x17d98(%rip)        # 26e38 <g_682>
    f0a0:	be 06 00 00 00       	mov    $0x6,%esi
    f0a5:	bf 00 00 00 00       	mov    $0x0,%edi
    f0aa:	e8 bd 72 ff ff       	callq  636c <safe_rshift_func_int8_t_s_u>
    f0af:	66 98                	cbtw   
    f0b1:	0f b7 d0             	movzwl %ax,%edx
    f0b4:	0f b6 8d 8d e4 ff ff 	movzbl -0x1b73(%rbp),%ecx
    f0bb:	48 8b 85 e0 e5 ff ff 	mov    -0x1a20(%rbp),%rax
    f0c2:	8b 00                	mov    (%rax),%eax
    f0c4:	09 c8                	or     %ecx,%eax
    f0c6:	0f b7 c0             	movzwl %ax,%eax
    f0c9:	89 d6                	mov    %edx,%esi
    f0cb:	89 c7                	mov    %eax,%edi
    f0cd:	e8 4d 7c ff ff       	callq  6d1f <safe_sub_func_uint16_t_u_u>
    f0d2:	98                   	cwtl   
    f0d3:	89 c6                	mov    %eax,%esi
    f0d5:	bf 39 6f 00 00       	mov    $0x6f39,%edi
    f0da:	e8 16 73 ff ff       	callq  63f5 <safe_mul_func_int16_t_s_s>
    f0df:	0f b6 d0             	movzbl %al,%edx
    f0e2:	48 8b 05 2f 7d 01 00 	mov    0x17d2f(%rip),%rax        # 26e18 <g_556>
    f0e9:	0f b6 00             	movzbl (%rax),%eax
    f0ec:	0f b6 c8             	movzbl %al,%ecx
    f0ef:	48 8b 05 32 7d 01 00 	mov    0x17d32(%rip),%rax        # 26e28 <g_606>
    f0f6:	0f b6 00             	movzbl (%rax),%eax
    f0f9:	0f be c0             	movsbl %al,%eax
    f0fc:	39 c1                	cmp    %eax,%ecx
    f0fe:	0f 9e c0             	setle  %al
    f101:	0f b6 c0             	movzbl %al,%eax
    f104:	89 d6                	mov    %edx,%esi
    f106:	89 c7                	mov    %eax,%edi
    f108:	e8 86 7a ff ff       	callq  6b93 <safe_mul_func_uint8_t_u_u>
    f10d:	0f b6 c0             	movzbl %al,%eax
    f110:	89 de                	mov    %ebx,%esi
    f112:	89 c7                	mov    %eax,%edi
    f114:	e8 5f 7a ff ff       	callq  6b78 <safe_sub_func_uint8_t_u_u>
    f119:	0f b6 c0             	movzbl %al,%eax
    f11c:	be 01 00 00 00       	mov    $0x1,%esi
    f121:	89 c7                	mov    %eax,%edi
    f123:	e8 ab 72 ff ff       	callq  63d3 <safe_sub_func_int16_t_s_s>
    f128:	66 85 c0             	test   %ax,%ax
    f12b:	74 07                	je     f134 <func_116+0x13e4>
    f12d:	80 bd 8d e4 ff ff 00 	cmpb   $0x0,-0x1b73(%rbp)
    f134:	48 8b 15 05 7d 01 00 	mov    0x17d05(%rip),%rdx        # 26e40 <g_684>
    f13b:	48 8d 85 20 e6 ff ff 	lea    -0x19e0(%rbp),%rax
    f142:	48 39 c2             	cmp    %rax,%rdx
    f145:	0f 94 c0             	sete   %al
    f148:	0f b6 d0             	movzbl %al,%edx
    f14b:	8b 85 1c ea ff ff    	mov    -0x15e4(%rbp),%eax
    f151:	21 d0                	and    %edx,%eax
    f153:	89 85 1c ea ff ff    	mov    %eax,-0x15e4(%rbp)
    f159:	48 8b 85 68 e4 ff ff 	mov    -0x1b98(%rbp),%rax
    f160:	0f b7 c0             	movzwl %ax,%eax
    f163:	be 0a 00 00 00       	mov    $0xa,%esi
    f168:	89 c7                	mov    %eax,%edi
    f16a:	e8 0b 7d ff ff       	callq  6e7a <safe_rshift_func_uint16_t_u_u>
    f16f:	66 85 c0             	test   %ax,%ax
    f172:	0f 84 7e 2e 00 00    	je     11ff6 <func_116+0x42a6>
    f178:	c6 85 92 e4 ff ff 07 	movb   $0x7,-0x1b6e(%rbp)
    f17f:	c7 85 bc e4 ff ff 00 	movl   $0x0,-0x1b44(%rbp)
    f186:	00 00 00 
    f189:	48 8d 05 30 10 01 00 	lea    0x11030(%rip),%rax        # 201c0 <g_84>
    f190:	48 89 85 38 e6 ff ff 	mov    %rax,-0x19c8(%rbp)
    f197:	48 c7 85 10 ec ff ff 	movq   $0x0,-0x13f0(%rbp)
    f19e:	00 00 00 00 
    f1a2:	48 8d 85 30 ea ff ff 	lea    -0x15d0(%rbp),%rax
    f1a9:	48 83 c0 28          	add    $0x28,%rax
    f1ad:	48 89 85 18 ec ff ff 	mov    %rax,-0x13e8(%rbp)
    f1b4:	48 c7 85 20 ec ff ff 	movq   $0x0,-0x13e0(%rbp)
    f1bb:	00 00 00 00 
    f1bf:	48 8d 85 30 ea ff ff 	lea    -0x15d0(%rbp),%rax
    f1c6:	48 83 c0 20          	add    $0x20,%rax
    f1ca:	48 89 85 28 ec ff ff 	mov    %rax,-0x13d8(%rbp)
    f1d1:	48 8d 85 30 ea ff ff 	lea    -0x15d0(%rbp),%rax
    f1d8:	48 83 c0 20          	add    $0x20,%rax
    f1dc:	48 89 85 30 ec ff ff 	mov    %rax,-0x13d0(%rbp)
    f1e3:	48 8d 85 30 ea ff ff 	lea    -0x15d0(%rbp),%rax
    f1ea:	48 83 c0 20          	add    $0x20,%rax
    f1ee:	48 89 85 38 ec ff ff 	mov    %rax,-0x13c8(%rbp)
    f1f5:	48 c7 85 40 ec ff ff 	movq   $0x0,-0x13c0(%rbp)
    f1fc:	00 00 00 00 
    f200:	48 8d 85 30 ea ff ff 	lea    -0x15d0(%rbp),%rax
    f207:	48 83 c0 28          	add    $0x28,%rax
    f20b:	48 89 85 48 ec ff ff 	mov    %rax,-0x13b8(%rbp)
    f212:	48 c7 85 50 ec ff ff 	movq   $0x0,-0x13b0(%rbp)
    f219:	00 00 00 00 
    f21d:	48 8d 85 30 ea ff ff 	lea    -0x15d0(%rbp),%rax
    f224:	48 83 c0 20          	add    $0x20,%rax
    f228:	48 89 85 58 ec ff ff 	mov    %rax,-0x13a8(%rbp)
    f22f:	48 8d 85 30 ea ff ff 	lea    -0x15d0(%rbp),%rax
    f236:	48 83 c0 20          	add    $0x20,%rax
    f23a:	48 89 85 60 ec ff ff 	mov    %rax,-0x13a0(%rbp)
    f241:	48 8d 85 30 ea ff ff 	lea    -0x15d0(%rbp),%rax
    f248:	48 83 c0 20          	add    $0x20,%rax
    f24c:	48 89 85 68 ec ff ff 	mov    %rax,-0x1398(%rbp)
    f253:	48 c7 85 70 ec ff ff 	movq   $0x0,-0x1390(%rbp)
    f25a:	00 00 00 00 
    f25e:	48 8d 85 30 ea ff ff 	lea    -0x15d0(%rbp),%rax
    f265:	48 83 c0 28          	add    $0x28,%rax
    f269:	48 89 85 78 ec ff ff 	mov    %rax,-0x1388(%rbp)
    f270:	48 c7 85 80 ec ff ff 	movq   $0x0,-0x1380(%rbp)
    f277:	00 00 00 00 
    f27b:	48 8d 85 30 ea ff ff 	lea    -0x15d0(%rbp),%rax
    f282:	48 83 c0 20          	add    $0x20,%rax
    f286:	48 89 85 88 ec ff ff 	mov    %rax,-0x1378(%rbp)
    f28d:	48 8d 85 30 ea ff ff 	lea    -0x15d0(%rbp),%rax
    f294:	48 83 c0 20          	add    $0x20,%rax
    f298:	48 89 85 90 ec ff ff 	mov    %rax,-0x1370(%rbp)
    f29f:	48 8d 85 30 ea ff ff 	lea    -0x15d0(%rbp),%rax
    f2a6:	48 83 c0 20          	add    $0x20,%rax
    f2aa:	48 89 85 98 ec ff ff 	mov    %rax,-0x1368(%rbp)
    f2b1:	48 c7 85 a0 ec ff ff 	movq   $0x0,-0x1360(%rbp)
    f2b8:	00 00 00 00 
    f2bc:	48 8d 85 30 ea ff ff 	lea    -0x15d0(%rbp),%rax
    f2c3:	48 83 c0 28          	add    $0x28,%rax
    f2c7:	48 89 85 a8 ec ff ff 	mov    %rax,-0x1358(%rbp)
    f2ce:	48 c7 85 b0 ec ff ff 	movq   $0x0,-0x1350(%rbp)
    f2d5:	00 00 00 00 
    f2d9:	48 8d 85 30 ea ff ff 	lea    -0x15d0(%rbp),%rax
    f2e0:	48 83 c0 20          	add    $0x20,%rax
    f2e4:	48 89 85 b8 ec ff ff 	mov    %rax,-0x1348(%rbp)
    f2eb:	48 8d 85 30 ea ff ff 	lea    -0x15d0(%rbp),%rax
    f2f2:	48 83 c0 20          	add    $0x20,%rax
    f2f6:	48 89 85 c0 ec ff ff 	mov    %rax,-0x1340(%rbp)
    f2fd:	48 8d 85 30 ea ff ff 	lea    -0x15d0(%rbp),%rax
    f304:	48 83 c0 20          	add    $0x20,%rax
    f308:	48 89 85 c8 ec ff ff 	mov    %rax,-0x1338(%rbp)
    f30f:	48 c7 85 d0 ec ff ff 	movq   $0x0,-0x1330(%rbp)
    f316:	00 00 00 00 
    f31a:	48 8d 85 30 ea ff ff 	lea    -0x15d0(%rbp),%rax
    f321:	48 83 c0 28          	add    $0x28,%rax
    f325:	48 89 85 d8 ec ff ff 	mov    %rax,-0x1328(%rbp)
    f32c:	48 c7 85 e0 ec ff ff 	movq   $0x0,-0x1320(%rbp)
    f333:	00 00 00 00 
    f337:	48 8d 85 30 ea ff ff 	lea    -0x15d0(%rbp),%rax
    f33e:	48 83 c0 20          	add    $0x20,%rax
    f342:	48 89 85 e8 ec ff ff 	mov    %rax,-0x1318(%rbp)
    f349:	48 8d 85 30 ea ff ff 	lea    -0x15d0(%rbp),%rax
    f350:	48 83 c0 20          	add    $0x20,%rax
    f354:	48 89 85 f0 ec ff ff 	mov    %rax,-0x1310(%rbp)
    f35b:	48 8d 85 30 ea ff ff 	lea    -0x15d0(%rbp),%rax
    f362:	48 83 c0 20          	add    $0x20,%rax
    f366:	48 89 85 f8 ec ff ff 	mov    %rax,-0x1308(%rbp)
    f36d:	c7 85 c0 e4 ff ff ff 	movl   $0xffffffff,-0x1b40(%rbp)
    f374:	ff ff ff 
    f377:	c7 85 ac e5 ff ff 31 	movl   $0xf4aa2c31,-0x1a54(%rbp)
    f37e:	2c aa f4 
    f381:	c7 85 80 e9 ff ff ff 	movl   $0xffffffff,-0x1680(%rbp)
    f388:	ff ff ff 
    f38b:	c7 85 84 e9 ff ff ff 	movl   $0xffffffff,-0x167c(%rbp)
    f392:	ff ff ff 
    f395:	c7 85 88 e9 ff ff ff 	movl   $0xffffffff,-0x1678(%rbp)
    f39c:	ff ff ff 
    f39f:	c7 85 8c e9 ff ff ff 	movl   $0xffffffff,-0x1674(%rbp)
    f3a6:	ff ff ff 
    f3a9:	c7 85 90 e9 ff ff ff 	movl   $0xffffffff,-0x1670(%rbp)
    f3b0:	ff ff ff 
    f3b3:	c7 85 94 e9 ff ff ff 	movl   $0xffffffff,-0x166c(%rbp)
    f3ba:	ff ff ff 
    f3bd:	c7 85 b0 e5 ff ff ff 	movl   $0xffffffff,-0x1a50(%rbp)
    f3c4:	ff ff ff 
    f3c7:	48 b8 9c f4 66 2d bc 	movabs $0x90687fbc2d66f49c,%rax
    f3ce:	7f 68 90 
    f3d1:	48 89 85 a8 e6 ff ff 	mov    %rax,-0x1958(%rbp)
    f3d8:	c7 85 60 ea ff ff 9c 	movl   $0x6f8c299c,-0x15a0(%rbp)
    f3df:	29 8c 6f 
    f3e2:	c7 85 64 ea ff ff 04 	movl   $0x4,-0x159c(%rbp)
    f3e9:	00 00 00 
    f3ec:	c7 85 68 ea ff ff 04 	movl   $0x4,-0x1598(%rbp)
    f3f3:	00 00 00 
    f3f6:	c7 85 6c ea ff ff 9c 	movl   $0x6f8c299c,-0x1594(%rbp)
    f3fd:	29 8c 6f 
    f400:	c7 85 70 ea ff ff 04 	movl   $0x32dfa04,-0x1590(%rbp)
    f407:	fa 2d 03 
    f40a:	c7 85 74 ea ff ff 01 	movl   $0x1,-0x158c(%rbp)
    f411:	00 00 00 
    f414:	c7 85 78 ea ff ff 04 	movl   $0x32dfa04,-0x1588(%rbp)
    f41b:	fa 2d 03 
    f41e:	c7 85 7c ea ff ff 9c 	movl   $0x6f8c299c,-0x1584(%rbp)
    f425:	29 8c 6f 
    f428:	c7 85 80 ea ff ff 04 	movl   $0x4,-0x1580(%rbp)
    f42f:	00 00 00 
    f432:	c7 85 84 ea ff ff 04 	movl   $0x4,-0x157c(%rbp)
    f439:	00 00 00 
    f43c:	c7 85 88 ea ff ff 9c 	movl   $0x6f8c299c,-0x1578(%rbp)
    f443:	29 8c 6f 
    f446:	c7 85 8c ea ff ff 04 	movl   $0x32dfa04,-0x1574(%rbp)
    f44d:	fa 2d 03 
    f450:	c7 85 90 ea ff ff 01 	movl   $0x1,-0x1570(%rbp)
    f457:	00 00 00 
    f45a:	c7 85 94 ea ff ff 04 	movl   $0x32dfa04,-0x156c(%rbp)
    f461:	fa 2d 03 
    f464:	c7 85 98 ea ff ff 9c 	movl   $0x6f8c299c,-0x1568(%rbp)
    f46b:	29 8c 6f 
    f46e:	c7 85 9c ea ff ff 04 	movl   $0x4,-0x1564(%rbp)
    f475:	00 00 00 
    f478:	48 8d 05 89 11 01 00 	lea    0x11189(%rip),%rax        # 20608 <g_374>
    f47f:	48 89 85 98 e8 ff ff 	mov    %rax,-0x1768(%rbp)
    f486:	66 c7 05 61 10 01 00 	movw   $0x0,0x11061(%rip)        # 204f0 <g_360>
    f48d:	00 00 
    f48f:	e9 f3 28 00 00       	jmpq   11d87 <func_116+0x4037>
    f494:	c7 85 f4 e4 ff ff 06 	movl   $0x6,-0x1b0c(%rbp)
    f49b:	00 00 00 
    f49e:	c7 85 b4 e5 ff ff 08 	movl   $0x8,-0x1a4c(%rbp)
    f4a5:	00 00 00 
    f4a8:	c7 85 b8 e5 ff ff 95 	movl   $0x81691e95,-0x1a48(%rbp)
    f4af:	1e 69 81 
    f4b2:	48 b8 84 14 d9 4e 3c 	movabs $0xd0e54f3c4ed91484,%rax
    f4b9:	4f e5 d0 
    f4bc:	48 89 85 00 ed ff ff 	mov    %rax,-0x1300(%rbp)
    f4c3:	48 c7 85 08 ed ff ff 	movq   $0xffffffffffffffff,-0x12f8(%rbp)
    f4ca:	ff ff ff ff 
    f4ce:	48 c7 85 10 ed ff ff 	movq   $0xffffffffffffffff,-0x12f0(%rbp)
    f4d5:	ff ff ff ff 
    f4d9:	48 b9 f2 6b ea 54 5e 	movabs $0x3dafa15e54ea6bf2,%rcx
    f4e0:	a1 af 3d 
    f4e3:	48 89 8d 18 ed ff ff 	mov    %rcx,-0x12e8(%rbp)
    f4ea:	48 89 85 20 ed ff ff 	mov    %rax,-0x12e0(%rbp)
    f4f1:	48 bf da ed f4 5c 17 	movabs $0xb845bc175cf4edda,%rdi
    f4f8:	bc 45 b8 
    f4fb:	48 89 bd 28 ed ff ff 	mov    %rdi,-0x12d8(%rbp)
    f502:	48 be cc d5 fe 86 7b 	movabs $0x9b83937b86fed5cc,%rsi
    f509:	93 83 9b 
    f50c:	48 89 b5 30 ed ff ff 	mov    %rsi,-0x12d0(%rbp)
    f513:	48 89 b5 38 ed ff ff 	mov    %rsi,-0x12c8(%rbp)
    f51a:	48 bb 43 a9 9a 55 89 	movabs $0x3447ca89559aa943,%rbx
    f521:	ca 47 34 
    f524:	48 89 9d 40 ed ff ff 	mov    %rbx,-0x12c0(%rbp)
    f52b:	48 89 8d 48 ed ff ff 	mov    %rcx,-0x12b8(%rbp)
    f532:	48 89 9d 50 ed ff ff 	mov    %rbx,-0x12b0(%rbp)
    f539:	48 89 85 58 ed ff ff 	mov    %rax,-0x12a8(%rbp)
    f540:	48 89 85 60 ed ff ff 	mov    %rax,-0x12a0(%rbp)
    f547:	48 89 9d 68 ed ff ff 	mov    %rbx,-0x1298(%rbp)
    f54e:	48 89 8d 70 ed ff ff 	mov    %rcx,-0x1290(%rbp)
    f555:	48 89 9d 78 ed ff ff 	mov    %rbx,-0x1288(%rbp)
    f55c:	48 89 b5 80 ed ff ff 	mov    %rsi,-0x1280(%rbp)
    f563:	48 89 b5 88 ed ff ff 	mov    %rsi,-0x1278(%rbp)
    f56a:	48 89 bd 90 ed ff ff 	mov    %rdi,-0x1270(%rbp)
    f571:	48 89 85 98 ed ff ff 	mov    %rax,-0x1268(%rbp)
    f578:	48 89 8d a0 ed ff ff 	mov    %rcx,-0x1260(%rbp)
    f57f:	48 c7 85 a8 ed ff ff 	movq   $0xffffffffffffffff,-0x1258(%rbp)
    f586:	ff ff ff ff 
    f58a:	48 c7 85 b0 ed ff ff 	movq   $0xffffffffffffffff,-0x1250(%rbp)
    f591:	ff ff ff ff 
    f595:	48 89 85 b8 ed ff ff 	mov    %rax,-0x1248(%rbp)
    f59c:	48 c7 85 c0 ed ff ff 	movq   $0xffffffffffffffff,-0x1240(%rbp)
    f5a3:	ff ff ff ff 
    f5a7:	48 b8 33 45 12 0e b5 	movabs $0x99fc08b50e124533,%rax
    f5ae:	08 fc 99 
    f5b1:	48 89 85 c8 ed ff ff 	mov    %rax,-0x1238(%rbp)
    f5b8:	48 89 9d d0 ed ff ff 	mov    %rbx,-0x1230(%rbp)
    f5bf:	48 89 bd d8 ed ff ff 	mov    %rdi,-0x1228(%rbp)
    f5c6:	48 c7 85 e0 ed ff ff 	movq   $0x1,-0x1220(%rbp)
    f5cd:	01 00 00 00 
    f5d1:	48 89 bd e8 ed ff ff 	mov    %rdi,-0x1218(%rbp)
    f5d8:	48 8d 85 38 e6 ff ff 	lea    -0x19c8(%rbp),%rax
    f5df:	48 89 85 c0 f0 ff ff 	mov    %rax,-0xf40(%rbp)
    f5e6:	48 8d 85 38 e6 ff ff 	lea    -0x19c8(%rbp),%rax
    f5ed:	48 89 85 c8 f0 ff ff 	mov    %rax,-0xf38(%rbp)
    f5f4:	48 8d 85 38 e6 ff ff 	lea    -0x19c8(%rbp),%rax
    f5fb:	48 89 85 d0 f0 ff ff 	mov    %rax,-0xf30(%rbp)
    f602:	48 8d 85 38 e6 ff ff 	lea    -0x19c8(%rbp),%rax
    f609:	48 89 85 d8 f0 ff ff 	mov    %rax,-0xf28(%rbp)
    f610:	48 8d 85 38 e6 ff ff 	lea    -0x19c8(%rbp),%rax
    f617:	48 89 85 e0 f0 ff ff 	mov    %rax,-0xf20(%rbp)
    f61e:	48 8d 85 38 e6 ff ff 	lea    -0x19c8(%rbp),%rax
    f625:	48 89 85 e8 f0 ff ff 	mov    %rax,-0xf18(%rbp)
    f62c:	48 8d 85 38 e6 ff ff 	lea    -0x19c8(%rbp),%rax
    f633:	48 89 85 f0 f0 ff ff 	mov    %rax,-0xf10(%rbp)
    f63a:	48 c7 85 f8 f0 ff ff 	movq   $0x0,-0xf08(%rbp)
    f641:	00 00 00 00 
    f645:	48 8d 85 38 e6 ff ff 	lea    -0x19c8(%rbp),%rax
    f64c:	48 89 85 00 f1 ff ff 	mov    %rax,-0xf00(%rbp)
    f653:	48 c7 85 08 f1 ff ff 	movq   $0x0,-0xef8(%rbp)
    f65a:	00 00 00 00 
    f65e:	48 8d 85 28 e6 ff ff 	lea    -0x19d8(%rbp),%rax
    f665:	48 89 85 10 f1 ff ff 	mov    %rax,-0xef0(%rbp)
    f66c:	48 c7 85 18 f1 ff ff 	movq   $0x0,-0xee8(%rbp)
    f673:	00 00 00 00 
    f677:	48 8d 85 38 e6 ff ff 	lea    -0x19c8(%rbp),%rax
    f67e:	48 89 85 20 f1 ff ff 	mov    %rax,-0xee0(%rbp)
    f685:	48 8d 85 38 e6 ff ff 	lea    -0x19c8(%rbp),%rax
    f68c:	48 89 85 28 f1 ff ff 	mov    %rax,-0xed8(%rbp)
    f693:	48 8d 85 38 e6 ff ff 	lea    -0x19c8(%rbp),%rax
    f69a:	48 89 85 30 f1 ff ff 	mov    %rax,-0xed0(%rbp)
    f6a1:	48 8d 85 38 e6 ff ff 	lea    -0x19c8(%rbp),%rax
    f6a8:	48 89 85 38 f1 ff ff 	mov    %rax,-0xec8(%rbp)
    f6af:	48 8d 85 38 e6 ff ff 	lea    -0x19c8(%rbp),%rax
    f6b6:	48 89 85 40 f1 ff ff 	mov    %rax,-0xec0(%rbp)
    f6bd:	48 8d 85 38 e6 ff ff 	lea    -0x19c8(%rbp),%rax
    f6c4:	48 89 85 48 f1 ff ff 	mov    %rax,-0xeb8(%rbp)
    f6cb:	48 8d 85 38 e6 ff ff 	lea    -0x19c8(%rbp),%rax
    f6d2:	48 89 85 50 f1 ff ff 	mov    %rax,-0xeb0(%rbp)
    f6d9:	48 8d 85 38 e6 ff ff 	lea    -0x19c8(%rbp),%rax
    f6e0:	48 89 85 58 f1 ff ff 	mov    %rax,-0xea8(%rbp)
    f6e7:	48 8d 85 28 e6 ff ff 	lea    -0x19d8(%rbp),%rax
    f6ee:	48 89 85 60 f1 ff ff 	mov    %rax,-0xea0(%rbp)
    f6f5:	48 8d 85 38 e6 ff ff 	lea    -0x19c8(%rbp),%rax
    f6fc:	48 89 85 68 f1 ff ff 	mov    %rax,-0xe98(%rbp)
    f703:	48 8d 85 28 e6 ff ff 	lea    -0x19d8(%rbp),%rax
    f70a:	48 89 85 70 f1 ff ff 	mov    %rax,-0xe90(%rbp)
    f711:	48 8d 85 28 e6 ff ff 	lea    -0x19d8(%rbp),%rax
    f718:	48 89 85 78 f1 ff ff 	mov    %rax,-0xe88(%rbp)
    f71f:	48 c7 85 80 f1 ff ff 	movq   $0x0,-0xe80(%rbp)
    f726:	00 00 00 00 
    f72a:	48 8d 85 28 e6 ff ff 	lea    -0x19d8(%rbp),%rax
    f731:	48 89 85 88 f1 ff ff 	mov    %rax,-0xe78(%rbp)
    f738:	48 8d 85 38 e6 ff ff 	lea    -0x19c8(%rbp),%rax
    f73f:	48 89 85 90 f1 ff ff 	mov    %rax,-0xe70(%rbp)
    f746:	48 8d 85 28 e6 ff ff 	lea    -0x19d8(%rbp),%rax
    f74d:	48 89 85 98 f1 ff ff 	mov    %rax,-0xe68(%rbp)
    f754:	48 8d 85 28 e6 ff ff 	lea    -0x19d8(%rbp),%rax
    f75b:	48 89 85 a0 f1 ff ff 	mov    %rax,-0xe60(%rbp)
    f762:	48 8d 85 38 e6 ff ff 	lea    -0x19c8(%rbp),%rax
    f769:	48 89 85 a8 f1 ff ff 	mov    %rax,-0xe58(%rbp)
    f770:	48 8d 85 38 e6 ff ff 	lea    -0x19c8(%rbp),%rax
    f777:	48 89 85 b0 f1 ff ff 	mov    %rax,-0xe50(%rbp)
    f77e:	48 8d 85 28 e6 ff ff 	lea    -0x19d8(%rbp),%rax
    f785:	48 89 85 b8 f1 ff ff 	mov    %rax,-0xe48(%rbp)
    f78c:	48 c7 85 c0 f1 ff ff 	movq   $0x0,-0xe40(%rbp)
    f793:	00 00 00 00 
    f797:	48 8d 85 38 e6 ff ff 	lea    -0x19c8(%rbp),%rax
    f79e:	48 89 85 c8 f1 ff ff 	mov    %rax,-0xe38(%rbp)
    f7a5:	48 8d 85 38 e6 ff ff 	lea    -0x19c8(%rbp),%rax
    f7ac:	48 89 85 d0 f1 ff ff 	mov    %rax,-0xe30(%rbp)
    f7b3:	48 8d 85 38 e6 ff ff 	lea    -0x19c8(%rbp),%rax
    f7ba:	48 89 85 d8 f1 ff ff 	mov    %rax,-0xe28(%rbp)
    f7c1:	48 8d 85 38 e6 ff ff 	lea    -0x19c8(%rbp),%rax
    f7c8:	48 89 85 e0 f1 ff ff 	mov    %rax,-0xe20(%rbp)
    f7cf:	48 8d 85 28 e6 ff ff 	lea    -0x19d8(%rbp),%rax
    f7d6:	48 89 85 e8 f1 ff ff 	mov    %rax,-0xe18(%rbp)
    f7dd:	48 8d 85 38 e6 ff ff 	lea    -0x19c8(%rbp),%rax
    f7e4:	48 89 85 f0 f1 ff ff 	mov    %rax,-0xe10(%rbp)
    f7eb:	48 c7 85 f8 f1 ff ff 	movq   $0x0,-0xe08(%rbp)
    f7f2:	00 00 00 00 
    f7f6:	48 8d 85 28 e6 ff ff 	lea    -0x19d8(%rbp),%rax
    f7fd:	48 89 85 00 f2 ff ff 	mov    %rax,-0xe00(%rbp)
    f804:	48 8d 85 38 e6 ff ff 	lea    -0x19c8(%rbp),%rax
    f80b:	48 89 85 08 f2 ff ff 	mov    %rax,-0xdf8(%rbp)
    f812:	48 c7 85 10 f2 ff ff 	movq   $0x0,-0xdf0(%rbp)
    f819:	00 00 00 00 
    f81d:	48 8d 85 28 e6 ff ff 	lea    -0x19d8(%rbp),%rax
    f824:	48 89 85 18 f2 ff ff 	mov    %rax,-0xde8(%rbp)
    f82b:	48 8d 85 38 e6 ff ff 	lea    -0x19c8(%rbp),%rax
    f832:	48 89 85 20 f2 ff ff 	mov    %rax,-0xde0(%rbp)
    f839:	48 8d 85 38 e6 ff ff 	lea    -0x19c8(%rbp),%rax
    f840:	48 89 85 28 f2 ff ff 	mov    %rax,-0xdd8(%rbp)
    f847:	48 8d 85 28 e6 ff ff 	lea    -0x19d8(%rbp),%rax
    f84e:	48 89 85 30 f2 ff ff 	mov    %rax,-0xdd0(%rbp)
    f855:	48 8d 85 28 e6 ff ff 	lea    -0x19d8(%rbp),%rax
    f85c:	48 89 85 38 f2 ff ff 	mov    %rax,-0xdc8(%rbp)
    f863:	48 8d 85 38 e6 ff ff 	lea    -0x19c8(%rbp),%rax
    f86a:	48 89 85 40 f2 ff ff 	mov    %rax,-0xdc0(%rbp)
    f871:	48 8d 85 38 e6 ff ff 	lea    -0x19c8(%rbp),%rax
    f878:	48 89 85 48 f2 ff ff 	mov    %rax,-0xdb8(%rbp)
    f87f:	48 c7 85 50 f2 ff ff 	movq   $0x0,-0xdb0(%rbp)
    f886:	00 00 00 00 
    f88a:	48 c7 85 58 f2 ff ff 	movq   $0x0,-0xda8(%rbp)
    f891:	00 00 00 00 
    f895:	48 8d 85 38 e6 ff ff 	lea    -0x19c8(%rbp),%rax
    f89c:	48 89 85 60 f2 ff ff 	mov    %rax,-0xda0(%rbp)
    f8a3:	48 8d 85 28 e6 ff ff 	lea    -0x19d8(%rbp),%rax
    f8aa:	48 89 85 68 f2 ff ff 	mov    %rax,-0xd98(%rbp)
    f8b1:	48 c7 85 70 f2 ff ff 	movq   $0x0,-0xd90(%rbp)
    f8b8:	00 00 00 00 
    f8bc:	48 8d 85 38 e6 ff ff 	lea    -0x19c8(%rbp),%rax
    f8c3:	48 89 85 78 f2 ff ff 	mov    %rax,-0xd88(%rbp)
    f8ca:	48 c7 85 80 f2 ff ff 	movq   $0x0,-0xd80(%rbp)
    f8d1:	00 00 00 00 
    f8d5:	48 8d 85 38 e6 ff ff 	lea    -0x19c8(%rbp),%rax
    f8dc:	48 89 85 88 f2 ff ff 	mov    %rax,-0xd78(%rbp)
    f8e3:	48 8d 85 28 e6 ff ff 	lea    -0x19d8(%rbp),%rax
    f8ea:	48 89 85 90 f2 ff ff 	mov    %rax,-0xd70(%rbp)
    f8f1:	48 8d 85 38 e6 ff ff 	lea    -0x19c8(%rbp),%rax
    f8f8:	48 89 85 98 f2 ff ff 	mov    %rax,-0xd68(%rbp)
    f8ff:	48 8d 85 38 e6 ff ff 	lea    -0x19c8(%rbp),%rax
    f906:	48 89 85 a0 f2 ff ff 	mov    %rax,-0xd60(%rbp)
    f90d:	48 c7 85 a8 f2 ff ff 	movq   $0x0,-0xd58(%rbp)
    f914:	00 00 00 00 
    f918:	48 c7 85 b0 f2 ff ff 	movq   $0x0,-0xd50(%rbp)
    f91f:	00 00 00 00 
    f923:	48 8d 85 38 e6 ff ff 	lea    -0x19c8(%rbp),%rax
    f92a:	48 89 85 b8 f2 ff ff 	mov    %rax,-0xd48(%rbp)
    f931:	48 8d 85 38 e6 ff ff 	lea    -0x19c8(%rbp),%rax
    f938:	48 89 85 c0 f2 ff ff 	mov    %rax,-0xd40(%rbp)
    f93f:	48 8d 85 28 e6 ff ff 	lea    -0x19d8(%rbp),%rax
    f946:	48 89 85 c8 f2 ff ff 	mov    %rax,-0xd38(%rbp)
    f94d:	48 8d 85 28 e6 ff ff 	lea    -0x19d8(%rbp),%rax
    f954:	48 89 85 d0 f2 ff ff 	mov    %rax,-0xd30(%rbp)
    f95b:	48 8d 85 38 e6 ff ff 	lea    -0x19c8(%rbp),%rax
    f962:	48 89 85 d8 f2 ff ff 	mov    %rax,-0xd28(%rbp)
    f969:	48 c7 85 e0 f2 ff ff 	movq   $0x0,-0xd20(%rbp)
    f970:	00 00 00 00 
    f974:	48 c7 85 e8 f2 ff ff 	movq   $0x0,-0xd18(%rbp)
    f97b:	00 00 00 00 
    f97f:	48 8d 85 38 e6 ff ff 	lea    -0x19c8(%rbp),%rax
    f986:	48 89 85 f0 f2 ff ff 	mov    %rax,-0xd10(%rbp)
    f98d:	48 8d 85 28 e6 ff ff 	lea    -0x19d8(%rbp),%rax
    f994:	48 89 85 f8 f2 ff ff 	mov    %rax,-0xd08(%rbp)
    f99b:	48 8d 85 38 e6 ff ff 	lea    -0x19c8(%rbp),%rax
    f9a2:	48 89 85 00 f3 ff ff 	mov    %rax,-0xd00(%rbp)
    f9a9:	48 8d 85 38 e6 ff ff 	lea    -0x19c8(%rbp),%rax
    f9b0:	48 89 85 08 f3 ff ff 	mov    %rax,-0xcf8(%rbp)
    f9b7:	48 8d 85 38 e6 ff ff 	lea    -0x19c8(%rbp),%rax
    f9be:	48 89 85 10 f3 ff ff 	mov    %rax,-0xcf0(%rbp)
    f9c5:	48 8d 85 38 e6 ff ff 	lea    -0x19c8(%rbp),%rax
    f9cc:	48 89 85 18 f3 ff ff 	mov    %rax,-0xce8(%rbp)
    f9d3:	48 8d 85 38 e6 ff ff 	lea    -0x19c8(%rbp),%rax
    f9da:	48 89 85 20 f3 ff ff 	mov    %rax,-0xce0(%rbp)
    f9e1:	48 8d 85 38 e6 ff ff 	lea    -0x19c8(%rbp),%rax
    f9e8:	48 89 85 28 f3 ff ff 	mov    %rax,-0xcd8(%rbp)
    f9ef:	48 8d 85 38 e6 ff ff 	lea    -0x19c8(%rbp),%rax
    f9f6:	48 89 85 30 f3 ff ff 	mov    %rax,-0xcd0(%rbp)
    f9fd:	48 8d 85 38 e6 ff ff 	lea    -0x19c8(%rbp),%rax
    fa04:	48 89 85 38 f3 ff ff 	mov    %rax,-0xcc8(%rbp)
    fa0b:	48 8d 85 38 e6 ff ff 	lea    -0x19c8(%rbp),%rax
    fa12:	48 89 85 40 f3 ff ff 	mov    %rax,-0xcc0(%rbp)
    fa19:	48 8d 85 38 e6 ff ff 	lea    -0x19c8(%rbp),%rax
    fa20:	48 89 85 48 f3 ff ff 	mov    %rax,-0xcb8(%rbp)
    fa27:	48 c7 85 50 f3 ff ff 	movq   $0x0,-0xcb0(%rbp)
    fa2e:	00 00 00 00 
    fa32:	48 8d 85 38 e6 ff ff 	lea    -0x19c8(%rbp),%rax
    fa39:	48 89 85 58 f3 ff ff 	mov    %rax,-0xca8(%rbp)
    fa40:	48 c7 85 60 f3 ff ff 	movq   $0x0,-0xca0(%rbp)
    fa47:	00 00 00 00 
    fa4b:	48 8d 85 28 e6 ff ff 	lea    -0x19d8(%rbp),%rax
    fa52:	48 89 85 68 f3 ff ff 	mov    %rax,-0xc98(%rbp)
    fa59:	48 c7 85 70 f3 ff ff 	movq   $0x0,-0xc90(%rbp)
    fa60:	00 00 00 00 
    fa64:	48 8d 85 38 e6 ff ff 	lea    -0x19c8(%rbp),%rax
    fa6b:	48 89 85 78 f3 ff ff 	mov    %rax,-0xc88(%rbp)
    fa72:	48 8d 85 38 e6 ff ff 	lea    -0x19c8(%rbp),%rax
    fa79:	48 89 85 80 f3 ff ff 	mov    %rax,-0xc80(%rbp)
    fa80:	48 8d 85 38 e6 ff ff 	lea    -0x19c8(%rbp),%rax
    fa87:	48 89 85 88 f3 ff ff 	mov    %rax,-0xc78(%rbp)
    fa8e:	48 8d 85 38 e6 ff ff 	lea    -0x19c8(%rbp),%rax
    fa95:	48 89 85 90 f3 ff ff 	mov    %rax,-0xc70(%rbp)
    fa9c:	48 8d 85 38 e6 ff ff 	lea    -0x19c8(%rbp),%rax
    faa3:	48 89 85 98 f3 ff ff 	mov    %rax,-0xc68(%rbp)
    faaa:	48 8d 85 38 e6 ff ff 	lea    -0x19c8(%rbp),%rax
    fab1:	48 89 85 a0 f3 ff ff 	mov    %rax,-0xc60(%rbp)
    fab8:	48 8d 85 38 e6 ff ff 	lea    -0x19c8(%rbp),%rax
    fabf:	48 89 85 a8 f3 ff ff 	mov    %rax,-0xc58(%rbp)
    fac6:	48 8d 85 38 e6 ff ff 	lea    -0x19c8(%rbp),%rax
    facd:	48 89 85 b0 f3 ff ff 	mov    %rax,-0xc50(%rbp)
    fad4:	48 8d 85 28 e6 ff ff 	lea    -0x19d8(%rbp),%rax
    fadb:	48 89 85 b8 f3 ff ff 	mov    %rax,-0xc48(%rbp)
    fae2:	48 8d 85 38 e6 ff ff 	lea    -0x19c8(%rbp),%rax
    fae9:	48 89 85 c0 f3 ff ff 	mov    %rax,-0xc40(%rbp)
    faf0:	48 8d 85 28 e6 ff ff 	lea    -0x19d8(%rbp),%rax
    faf7:	48 89 85 c8 f3 ff ff 	mov    %rax,-0xc38(%rbp)
    fafe:	48 8d 85 28 e6 ff ff 	lea    -0x19d8(%rbp),%rax
    fb05:	48 89 85 d0 f3 ff ff 	mov    %rax,-0xc30(%rbp)
    fb0c:	48 c7 85 d8 f3 ff ff 	movq   $0x0,-0xc28(%rbp)
    fb13:	00 00 00 00 
    fb17:	48 8d 85 28 e6 ff ff 	lea    -0x19d8(%rbp),%rax
    fb1e:	48 89 85 e0 f3 ff ff 	mov    %rax,-0xc20(%rbp)
    fb25:	48 8d 85 38 e6 ff ff 	lea    -0x19c8(%rbp),%rax
    fb2c:	48 89 85 e8 f3 ff ff 	mov    %rax,-0xc18(%rbp)
    fb33:	48 8d 85 28 e6 ff ff 	lea    -0x19d8(%rbp),%rax
    fb3a:	48 89 85 f0 f3 ff ff 	mov    %rax,-0xc10(%rbp)
    fb41:	48 8d 85 28 e6 ff ff 	lea    -0x19d8(%rbp),%rax
    fb48:	48 89 85 f8 f3 ff ff 	mov    %rax,-0xc08(%rbp)
    fb4f:	48 8d 85 38 e6 ff ff 	lea    -0x19c8(%rbp),%rax
    fb56:	48 89 85 00 f4 ff ff 	mov    %rax,-0xc00(%rbp)
    fb5d:	48 8d 85 38 e6 ff ff 	lea    -0x19c8(%rbp),%rax
    fb64:	48 89 85 08 f4 ff ff 	mov    %rax,-0xbf8(%rbp)
    fb6b:	48 8d 85 28 e6 ff ff 	lea    -0x19d8(%rbp),%rax
    fb72:	48 89 85 10 f4 ff ff 	mov    %rax,-0xbf0(%rbp)
    fb79:	48 c7 85 18 f4 ff ff 	movq   $0x0,-0xbe8(%rbp)
    fb80:	00 00 00 00 
    fb84:	48 8d 85 38 e6 ff ff 	lea    -0x19c8(%rbp),%rax
    fb8b:	48 89 85 20 f4 ff ff 	mov    %rax,-0xbe0(%rbp)
    fb92:	48 8d 85 38 e6 ff ff 	lea    -0x19c8(%rbp),%rax
    fb99:	48 89 85 28 f4 ff ff 	mov    %rax,-0xbd8(%rbp)
    fba0:	48 8d 85 38 e6 ff ff 	lea    -0x19c8(%rbp),%rax
    fba7:	48 89 85 30 f4 ff ff 	mov    %rax,-0xbd0(%rbp)
    fbae:	48 8d 85 38 e6 ff ff 	lea    -0x19c8(%rbp),%rax
    fbb5:	48 89 85 38 f4 ff ff 	mov    %rax,-0xbc8(%rbp)
    fbbc:	48 8d 85 28 e6 ff ff 	lea    -0x19d8(%rbp),%rax
    fbc3:	48 89 85 40 f4 ff ff 	mov    %rax,-0xbc0(%rbp)
    fbca:	48 c7 85 48 f4 ff ff 	movq   $0x0,-0xbb8(%rbp)
    fbd1:	00 00 00 00 
    fbd5:	48 8d 85 38 e6 ff ff 	lea    -0x19c8(%rbp),%rax
    fbdc:	48 89 85 50 f4 ff ff 	mov    %rax,-0xbb0(%rbp)
    fbe3:	48 8d 85 38 e6 ff ff 	lea    -0x19c8(%rbp),%rax
    fbea:	48 89 85 58 f4 ff ff 	mov    %rax,-0xba8(%rbp)
    fbf1:	48 8d 85 28 e6 ff ff 	lea    -0x19d8(%rbp),%rax
    fbf8:	48 89 85 60 f4 ff ff 	mov    %rax,-0xba0(%rbp)
    fbff:	48 8d 85 38 e6 ff ff 	lea    -0x19c8(%rbp),%rax
    fc06:	48 89 85 68 f4 ff ff 	mov    %rax,-0xb98(%rbp)
    fc0d:	48 8d 85 38 e6 ff ff 	lea    -0x19c8(%rbp),%rax
    fc14:	48 89 85 70 f4 ff ff 	mov    %rax,-0xb90(%rbp)
    fc1b:	48 c7 85 78 f4 ff ff 	movq   $0x0,-0xb88(%rbp)
    fc22:	00 00 00 00 
    fc26:	48 c7 85 80 f4 ff ff 	movq   $0x0,-0xb80(%rbp)
    fc2d:	00 00 00 00 
    fc31:	48 8d 85 38 e6 ff ff 	lea    -0x19c8(%rbp),%rax
    fc38:	48 89 85 88 f4 ff ff 	mov    %rax,-0xb78(%rbp)
    fc3f:	48 8d 85 38 e6 ff ff 	lea    -0x19c8(%rbp),%rax
    fc46:	48 89 85 90 f4 ff ff 	mov    %rax,-0xb70(%rbp)
    fc4d:	48 c7 85 98 f4 ff ff 	movq   $0x0,-0xb68(%rbp)
    fc54:	00 00 00 00 
    fc58:	48 c7 85 a0 f4 ff ff 	movq   $0x0,-0xb60(%rbp)
    fc5f:	00 00 00 00 
    fc63:	48 8d 85 38 e6 ff ff 	lea    -0x19c8(%rbp),%rax
    fc6a:	48 89 85 a8 f4 ff ff 	mov    %rax,-0xb58(%rbp)
    fc71:	48 8d 85 38 e6 ff ff 	lea    -0x19c8(%rbp),%rax
    fc78:	48 89 85 b0 f4 ff ff 	mov    %rax,-0xb50(%rbp)
    fc7f:	48 8d 85 28 e6 ff ff 	lea    -0x19d8(%rbp),%rax
    fc86:	48 89 85 b8 f4 ff ff 	mov    %rax,-0xb48(%rbp)
    fc8d:	48 8d 85 38 e6 ff ff 	lea    -0x19c8(%rbp),%rax
    fc94:	48 89 85 c0 f4 ff ff 	mov    %rax,-0xb40(%rbp)
    fc9b:	48 8d 85 38 e6 ff ff 	lea    -0x19c8(%rbp),%rax
    fca2:	48 89 85 c8 f4 ff ff 	mov    %rax,-0xb38(%rbp)
    fca9:	48 8d 85 38 e6 ff ff 	lea    -0x19c8(%rbp),%rax
    fcb0:	48 89 85 d0 f4 ff ff 	mov    %rax,-0xb30(%rbp)
    fcb7:	48 8d 85 28 e6 ff ff 	lea    -0x19d8(%rbp),%rax
    fcbe:	48 89 85 d8 f4 ff ff 	mov    %rax,-0xb28(%rbp)
    fcc5:	48 8d 85 38 e6 ff ff 	lea    -0x19c8(%rbp),%rax
    fccc:	48 89 85 e0 f4 ff ff 	mov    %rax,-0xb20(%rbp)
    fcd3:	48 8d 85 38 e6 ff ff 	lea    -0x19c8(%rbp),%rax
    fcda:	48 89 85 e8 f4 ff ff 	mov    %rax,-0xb18(%rbp)
    fce1:	48 c7 85 f0 f4 ff ff 	movq   $0x0,-0xb10(%rbp)
    fce8:	00 00 00 00 
    fcec:	48 8d 85 28 e6 ff ff 	lea    -0x19d8(%rbp),%rax
    fcf3:	48 89 85 f8 f4 ff ff 	mov    %rax,-0xb08(%rbp)
    fcfa:	48 8d 85 38 e6 ff ff 	lea    -0x19c8(%rbp),%rax
    fd01:	48 89 85 00 f5 ff ff 	mov    %rax,-0xb00(%rbp)
    fd08:	48 8d 85 28 e6 ff ff 	lea    -0x19d8(%rbp),%rax
    fd0f:	48 89 85 08 f5 ff ff 	mov    %rax,-0xaf8(%rbp)
    fd16:	48 8d 85 38 e6 ff ff 	lea    -0x19c8(%rbp),%rax
    fd1d:	48 89 85 10 f5 ff ff 	mov    %rax,-0xaf0(%rbp)
    fd24:	48 c7 85 18 f5 ff ff 	movq   $0x0,-0xae8(%rbp)
    fd2b:	00 00 00 00 
    fd2f:	48 8d 85 38 e6 ff ff 	lea    -0x19c8(%rbp),%rax
    fd36:	48 89 85 20 f5 ff ff 	mov    %rax,-0xae0(%rbp)
    fd3d:	48 c7 85 28 f5 ff ff 	movq   $0x0,-0xad8(%rbp)
    fd44:	00 00 00 00 
    fd48:	48 c7 85 30 f5 ff ff 	movq   $0x0,-0xad0(%rbp)
    fd4f:	00 00 00 00 
    fd53:	48 8d 85 38 e6 ff ff 	lea    -0x19c8(%rbp),%rax
    fd5a:	48 89 85 38 f5 ff ff 	mov    %rax,-0xac8(%rbp)
    fd61:	48 8d 85 38 e6 ff ff 	lea    -0x19c8(%rbp),%rax
    fd68:	48 89 85 40 f5 ff ff 	mov    %rax,-0xac0(%rbp)
    fd6f:	48 8d 85 38 e6 ff ff 	lea    -0x19c8(%rbp),%rax
    fd76:	48 89 85 48 f5 ff ff 	mov    %rax,-0xab8(%rbp)
    fd7d:	48 8d 85 38 e6 ff ff 	lea    -0x19c8(%rbp),%rax
    fd84:	48 89 85 50 f5 ff ff 	mov    %rax,-0xab0(%rbp)
    fd8b:	48 c7 85 58 f5 ff ff 	movq   $0x0,-0xaa8(%rbp)
    fd92:	00 00 00 00 
    fd96:	48 8d 85 38 e6 ff ff 	lea    -0x19c8(%rbp),%rax
    fd9d:	48 89 85 60 f5 ff ff 	mov    %rax,-0xaa0(%rbp)
    fda4:	48 c7 85 68 f5 ff ff 	movq   $0x0,-0xa98(%rbp)
    fdab:	00 00 00 00 
    fdaf:	48 8d 85 38 e6 ff ff 	lea    -0x19c8(%rbp),%rax
    fdb6:	48 89 85 70 f5 ff ff 	mov    %rax,-0xa90(%rbp)
    fdbd:	48 c7 85 78 f5 ff ff 	movq   $0x0,-0xa88(%rbp)
    fdc4:	00 00 00 00 
    fdc8:	48 8d 85 28 e6 ff ff 	lea    -0x19d8(%rbp),%rax
    fdcf:	48 89 85 80 f5 ff ff 	mov    %rax,-0xa80(%rbp)
    fdd6:	48 8d 85 28 e6 ff ff 	lea    -0x19d8(%rbp),%rax
    fddd:	48 89 85 88 f5 ff ff 	mov    %rax,-0xa78(%rbp)
    fde4:	48 c7 85 90 f5 ff ff 	movq   $0x0,-0xa70(%rbp)
    fdeb:	00 00 00 00 
    fdef:	48 c7 85 98 f5 ff ff 	movq   $0x0,-0xa68(%rbp)
    fdf6:	00 00 00 00 
    fdfa:	48 8d 85 28 e6 ff ff 	lea    -0x19d8(%rbp),%rax
    fe01:	48 89 85 a0 f5 ff ff 	mov    %rax,-0xa60(%rbp)
    fe08:	48 8d 85 38 e6 ff ff 	lea    -0x19c8(%rbp),%rax
    fe0f:	48 89 85 a8 f5 ff ff 	mov    %rax,-0xa58(%rbp)
    fe16:	48 8d 85 28 e6 ff ff 	lea    -0x19d8(%rbp),%rax
    fe1d:	48 89 85 b0 f5 ff ff 	mov    %rax,-0xa50(%rbp)
    fe24:	48 8d 85 38 e6 ff ff 	lea    -0x19c8(%rbp),%rax
    fe2b:	48 89 85 b8 f5 ff ff 	mov    %rax,-0xa48(%rbp)
    fe32:	48 8d 85 38 e6 ff ff 	lea    -0x19c8(%rbp),%rax
    fe39:	48 89 85 c0 f5 ff ff 	mov    %rax,-0xa40(%rbp)
    fe40:	48 8d 85 28 e6 ff ff 	lea    -0x19d8(%rbp),%rax
    fe47:	48 89 85 c8 f5 ff ff 	mov    %rax,-0xa38(%rbp)
    fe4e:	48 8d 85 28 e6 ff ff 	lea    -0x19d8(%rbp),%rax
    fe55:	48 89 85 d0 f5 ff ff 	mov    %rax,-0xa30(%rbp)
    fe5c:	48 8d 85 38 e6 ff ff 	lea    -0x19c8(%rbp),%rax
    fe63:	48 89 85 d8 f5 ff ff 	mov    %rax,-0xa28(%rbp)
    fe6a:	48 c7 85 e0 f5 ff ff 	movq   $0x0,-0xa20(%rbp)
    fe71:	00 00 00 00 
    fe75:	48 8d 85 28 e6 ff ff 	lea    -0x19d8(%rbp),%rax
    fe7c:	48 89 85 e8 f5 ff ff 	mov    %rax,-0xa18(%rbp)
    fe83:	48 8d 85 28 e6 ff ff 	lea    -0x19d8(%rbp),%rax
    fe8a:	48 89 85 f0 f5 ff ff 	mov    %rax,-0xa10(%rbp)
    fe91:	48 8d 85 38 e6 ff ff 	lea    -0x19c8(%rbp),%rax
    fe98:	48 89 85 f8 f5 ff ff 	mov    %rax,-0xa08(%rbp)
    fe9f:	48 8d 85 38 e6 ff ff 	lea    -0x19c8(%rbp),%rax
    fea6:	48 89 85 00 f6 ff ff 	mov    %rax,-0xa00(%rbp)
    fead:	48 c7 85 08 f6 ff ff 	movq   $0x0,-0x9f8(%rbp)
    feb4:	00 00 00 00 
    feb8:	48 8d 85 38 e6 ff ff 	lea    -0x19c8(%rbp),%rax
    febf:	48 89 85 10 f6 ff ff 	mov    %rax,-0x9f0(%rbp)
    fec6:	48 c7 85 18 f6 ff ff 	movq   $0x0,-0x9e8(%rbp)
    fecd:	00 00 00 00 
    fed1:	48 8d 85 38 e6 ff ff 	lea    -0x19c8(%rbp),%rax
    fed8:	48 89 85 20 f6 ff ff 	mov    %rax,-0x9e0(%rbp)
    fedf:	48 8d 85 38 e6 ff ff 	lea    -0x19c8(%rbp),%rax
    fee6:	48 89 85 28 f6 ff ff 	mov    %rax,-0x9d8(%rbp)
    feed:	48 8d 85 38 e6 ff ff 	lea    -0x19c8(%rbp),%rax
    fef4:	48 89 85 30 f6 ff ff 	mov    %rax,-0x9d0(%rbp)
    fefb:	48 8d 85 38 e6 ff ff 	lea    -0x19c8(%rbp),%rax
    ff02:	48 89 85 38 f6 ff ff 	mov    %rax,-0x9c8(%rbp)
    ff09:	48 8d 85 38 e6 ff ff 	lea    -0x19c8(%rbp),%rax
    ff10:	48 89 85 40 f6 ff ff 	mov    %rax,-0x9c0(%rbp)
    ff17:	48 c7 85 48 f6 ff ff 	movq   $0x0,-0x9b8(%rbp)
    ff1e:	00 00 00 00 
    ff22:	48 8d 85 38 e6 ff ff 	lea    -0x19c8(%rbp),%rax
    ff29:	48 89 85 50 f6 ff ff 	mov    %rax,-0x9b0(%rbp)
    ff30:	48 c7 85 58 f6 ff ff 	movq   $0x0,-0x9a8(%rbp)
    ff37:	00 00 00 00 
    ff3b:	48 8d 85 38 e6 ff ff 	lea    -0x19c8(%rbp),%rax
    ff42:	48 89 85 60 f6 ff ff 	mov    %rax,-0x9a0(%rbp)
    ff49:	48 8d 85 38 e6 ff ff 	lea    -0x19c8(%rbp),%rax
    ff50:	48 89 85 68 f6 ff ff 	mov    %rax,-0x998(%rbp)
    ff57:	48 8d 85 28 e6 ff ff 	lea    -0x19d8(%rbp),%rax
    ff5e:	48 89 85 70 f6 ff ff 	mov    %rax,-0x990(%rbp)
    ff65:	48 8d 85 28 e6 ff ff 	lea    -0x19d8(%rbp),%rax
    ff6c:	48 89 85 78 f6 ff ff 	mov    %rax,-0x988(%rbp)
    ff73:	48 c7 85 80 f6 ff ff 	movq   $0x0,-0x980(%rbp)
    ff7a:	00 00 00 00 
    ff7e:	48 8d 85 28 e6 ff ff 	lea    -0x19d8(%rbp),%rax
    ff85:	48 89 85 88 f6 ff ff 	mov    %rax,-0x978(%rbp)
    ff8c:	48 8d 85 38 e6 ff ff 	lea    -0x19c8(%rbp),%rax
    ff93:	48 89 85 90 f6 ff ff 	mov    %rax,-0x970(%rbp)
    ff9a:	48 8d 85 38 e6 ff ff 	lea    -0x19c8(%rbp),%rax
    ffa1:	48 89 85 98 f6 ff ff 	mov    %rax,-0x968(%rbp)
    ffa8:	48 c7 85 a0 f6 ff ff 	movq   $0x0,-0x960(%rbp)
    ffaf:	00 00 00 00 
    ffb3:	48 8d 85 38 e6 ff ff 	lea    -0x19c8(%rbp),%rax
    ffba:	48 89 85 a8 f6 ff ff 	mov    %rax,-0x958(%rbp)
    ffc1:	48 8d 85 38 e6 ff ff 	lea    -0x19c8(%rbp),%rax
    ffc8:	48 89 85 b0 f6 ff ff 	mov    %rax,-0x950(%rbp)
    ffcf:	48 8d 85 28 e6 ff ff 	lea    -0x19d8(%rbp),%rax
    ffd6:	48 89 85 b8 f6 ff ff 	mov    %rax,-0x948(%rbp)
    ffdd:	48 8d 85 38 e6 ff ff 	lea    -0x19c8(%rbp),%rax
    ffe4:	48 89 85 c0 f6 ff ff 	mov    %rax,-0x940(%rbp)
    ffeb:	48 8d 85 38 e6 ff ff 	lea    -0x19c8(%rbp),%rax
    fff2:	48 89 85 c8 f6 ff ff 	mov    %rax,-0x938(%rbp)
    fff9:	48 c7 85 d0 f6 ff ff 	movq   $0x0,-0x930(%rbp)
   10000:	00 00 00 00 
   10004:	48 c7 85 d8 f6 ff ff 	movq   $0x0,-0x928(%rbp)
   1000b:	00 00 00 00 
   1000f:	48 8d 85 38 e6 ff ff 	lea    -0x19c8(%rbp),%rax
   10016:	48 89 85 e0 f6 ff ff 	mov    %rax,-0x920(%rbp)
   1001d:	48 8d 85 38 e6 ff ff 	lea    -0x19c8(%rbp),%rax
   10024:	48 89 85 e8 f6 ff ff 	mov    %rax,-0x918(%rbp)
   1002b:	48 c7 85 f0 f6 ff ff 	movq   $0x0,-0x910(%rbp)
   10032:	00 00 00 00 
   10036:	48 c7 85 f8 f6 ff ff 	movq   $0x0,-0x908(%rbp)
   1003d:	00 00 00 00 
   10041:	48 8d 85 38 e6 ff ff 	lea    -0x19c8(%rbp),%rax
   10048:	48 89 85 00 f7 ff ff 	mov    %rax,-0x900(%rbp)
   1004f:	48 8d 85 38 e6 ff ff 	lea    -0x19c8(%rbp),%rax
   10056:	48 89 85 08 f7 ff ff 	mov    %rax,-0x8f8(%rbp)
   1005d:	48 8d 85 28 e6 ff ff 	lea    -0x19d8(%rbp),%rax
   10064:	48 89 85 10 f7 ff ff 	mov    %rax,-0x8f0(%rbp)
   1006b:	48 8d 85 38 e6 ff ff 	lea    -0x19c8(%rbp),%rax
   10072:	48 89 85 18 f7 ff ff 	mov    %rax,-0x8e8(%rbp)
   10079:	48 8d 85 38 e6 ff ff 	lea    -0x19c8(%rbp),%rax
   10080:	48 89 85 20 f7 ff ff 	mov    %rax,-0x8e0(%rbp)
   10087:	48 8d 85 38 e6 ff ff 	lea    -0x19c8(%rbp),%rax
   1008e:	48 89 85 28 f7 ff ff 	mov    %rax,-0x8d8(%rbp)
   10095:	48 8d 85 28 e6 ff ff 	lea    -0x19d8(%rbp),%rax
   1009c:	48 89 85 30 f7 ff ff 	mov    %rax,-0x8d0(%rbp)
   100a3:	48 8d 85 38 e6 ff ff 	lea    -0x19c8(%rbp),%rax
   100aa:	48 89 85 38 f7 ff ff 	mov    %rax,-0x8c8(%rbp)
   100b1:	48 8d 85 38 e6 ff ff 	lea    -0x19c8(%rbp),%rax
   100b8:	48 89 85 40 f7 ff ff 	mov    %rax,-0x8c0(%rbp)
   100bf:	48 c7 85 48 f7 ff ff 	movq   $0x0,-0x8b8(%rbp)
   100c6:	00 00 00 00 
   100ca:	48 8d 85 28 e6 ff ff 	lea    -0x19d8(%rbp),%rax
   100d1:	48 89 85 50 f7 ff ff 	mov    %rax,-0x8b0(%rbp)
   100d8:	48 8d 85 38 e6 ff ff 	lea    -0x19c8(%rbp),%rax
   100df:	48 89 85 58 f7 ff ff 	mov    %rax,-0x8a8(%rbp)
   100e6:	48 8d 85 28 e6 ff ff 	lea    -0x19d8(%rbp),%rax
   100ed:	48 89 85 60 f7 ff ff 	mov    %rax,-0x8a0(%rbp)
   100f4:	48 8d 85 38 e6 ff ff 	lea    -0x19c8(%rbp),%rax
   100fb:	48 89 85 68 f7 ff ff 	mov    %rax,-0x898(%rbp)
   10102:	48 c7 85 70 f7 ff ff 	movq   $0x0,-0x890(%rbp)
   10109:	00 00 00 00 
   1010d:	48 8d 85 38 e6 ff ff 	lea    -0x19c8(%rbp),%rax
   10114:	48 89 85 78 f7 ff ff 	mov    %rax,-0x888(%rbp)
   1011b:	48 c7 85 80 f7 ff ff 	movq   $0x0,-0x880(%rbp)
   10122:	00 00 00 00 
   10126:	48 c7 85 88 f7 ff ff 	movq   $0x0,-0x878(%rbp)
   1012d:	00 00 00 00 
   10131:	48 8d 85 38 e6 ff ff 	lea    -0x19c8(%rbp),%rax
   10138:	48 89 85 90 f7 ff ff 	mov    %rax,-0x870(%rbp)
   1013f:	48 8d 85 38 e6 ff ff 	lea    -0x19c8(%rbp),%rax
   10146:	48 89 85 98 f7 ff ff 	mov    %rax,-0x868(%rbp)
   1014d:	48 8d 85 38 e6 ff ff 	lea    -0x19c8(%rbp),%rax
   10154:	48 89 85 a0 f7 ff ff 	mov    %rax,-0x860(%rbp)
   1015b:	48 8d 85 38 e6 ff ff 	lea    -0x19c8(%rbp),%rax
   10162:	48 89 85 a8 f7 ff ff 	mov    %rax,-0x858(%rbp)
   10169:	48 c7 85 b0 f7 ff ff 	movq   $0x0,-0x850(%rbp)
   10170:	00 00 00 00 
   10174:	48 8d 85 38 e6 ff ff 	lea    -0x19c8(%rbp),%rax
   1017b:	48 89 85 b8 f7 ff ff 	mov    %rax,-0x848(%rbp)
   10182:	48 c7 85 c0 f7 ff ff 	movq   $0x0,-0x840(%rbp)
   10189:	00 00 00 00 
   1018d:	48 8d 85 38 e6 ff ff 	lea    -0x19c8(%rbp),%rax
   10194:	48 89 85 c8 f7 ff ff 	mov    %rax,-0x838(%rbp)
   1019b:	48 c7 85 d0 f7 ff ff 	movq   $0x0,-0x830(%rbp)
   101a2:	00 00 00 00 
   101a6:	48 8d 85 28 e6 ff ff 	lea    -0x19d8(%rbp),%rax
   101ad:	48 89 85 d8 f7 ff ff 	mov    %rax,-0x828(%rbp)
   101b4:	48 8d 85 28 e6 ff ff 	lea    -0x19d8(%rbp),%rax
   101bb:	48 89 85 e0 f7 ff ff 	mov    %rax,-0x820(%rbp)
   101c2:	48 c7 85 e8 f7 ff ff 	movq   $0x0,-0x818(%rbp)
   101c9:	00 00 00 00 
   101cd:	48 c7 85 f0 f7 ff ff 	movq   $0x0,-0x810(%rbp)
   101d4:	00 00 00 00 
   101d8:	48 8d 85 28 e6 ff ff 	lea    -0x19d8(%rbp),%rax
   101df:	48 89 85 f8 f7 ff ff 	mov    %rax,-0x808(%rbp)
   101e6:	48 8d 85 38 e6 ff ff 	lea    -0x19c8(%rbp),%rax
   101ed:	48 89 85 00 f8 ff ff 	mov    %rax,-0x800(%rbp)
   101f4:	48 8d 85 28 e6 ff ff 	lea    -0x19d8(%rbp),%rax
   101fb:	48 89 85 08 f8 ff ff 	mov    %rax,-0x7f8(%rbp)
   10202:	48 8d 85 38 e6 ff ff 	lea    -0x19c8(%rbp),%rax
   10209:	48 89 85 10 f8 ff ff 	mov    %rax,-0x7f0(%rbp)
   10210:	48 8d 85 38 e6 ff ff 	lea    -0x19c8(%rbp),%rax
   10217:	48 89 85 18 f8 ff ff 	mov    %rax,-0x7e8(%rbp)
   1021e:	48 8d 85 28 e6 ff ff 	lea    -0x19d8(%rbp),%rax
   10225:	48 89 85 20 f8 ff ff 	mov    %rax,-0x7e0(%rbp)
   1022c:	48 8d 85 28 e6 ff ff 	lea    -0x19d8(%rbp),%rax
   10233:	48 89 85 28 f8 ff ff 	mov    %rax,-0x7d8(%rbp)
   1023a:	48 8d 85 38 e6 ff ff 	lea    -0x19c8(%rbp),%rax
   10241:	48 89 85 30 f8 ff ff 	mov    %rax,-0x7d0(%rbp)
   10248:	48 c7 85 38 f8 ff ff 	movq   $0x0,-0x7c8(%rbp)
   1024f:	00 00 00 00 
   10253:	c7 05 63 02 01 00 13 	movl   $0x13,0x10263(%rip)        # 204c0 <g_342>
   1025a:	00 00 00 
   1025d:	e9 45 02 00 00       	jmpq   104a7 <func_116+0x2757>
   10262:	48 8d 05 c7 6b 01 00 	lea    0x16bc7(%rip),%rax        # 26e30 <g_681>
   10269:	48 89 85 58 e9 ff ff 	mov    %rax,-0x16a8(%rbp)
   10270:	48 8d 05 49 02 01 00 	lea    0x10249(%rip),%rax        # 204c0 <g_342>
   10277:	48 89 85 40 f8 ff ff 	mov    %rax,-0x7c0(%rbp)
   1027e:	48 8d 05 0f 02 01 00 	lea    0x1020f(%rip),%rax        # 20494 <g_312+0x14>
   10285:	48 89 85 48 f8 ff ff 	mov    %rax,-0x7b8(%rbp)
   1028c:	48 8d 05 f1 01 01 00 	lea    0x101f1(%rip),%rax        # 20484 <g_312+0x4>
   10293:	48 89 85 50 f8 ff ff 	mov    %rax,-0x7b0(%rbp)
   1029a:	48 8d 05 f3 01 01 00 	lea    0x101f3(%rip),%rax        # 20494 <g_312+0x14>
   102a1:	48 89 85 58 f8 ff ff 	mov    %rax,-0x7a8(%rbp)
   102a8:	48 8d 05 11 02 01 00 	lea    0x10211(%rip),%rax        # 204c0 <g_342>
   102af:	48 89 85 60 f8 ff ff 	mov    %rax,-0x7a0(%rbp)
   102b6:	48 8d 05 03 02 01 00 	lea    0x10203(%rip),%rax        # 204c0 <g_342>
   102bd:	48 89 85 68 f8 ff ff 	mov    %rax,-0x798(%rbp)
   102c4:	48 8d 05 6c 04 01 00 	lea    0x1046c(%rip),%rax        # 20737 <g_544+0x17>
   102cb:	48 89 85 70 f8 ff ff 	mov    %rax,-0x790(%rbp)
   102d2:	48 8d 05 bb 01 01 00 	lea    0x101bb(%rip),%rax        # 20494 <g_312+0x14>
   102d9:	48 89 85 78 f8 ff ff 	mov    %rax,-0x788(%rbp)
   102e0:	48 8d 05 ad 01 01 00 	lea    0x101ad(%rip),%rax        # 20494 <g_312+0x14>
   102e7:	48 89 85 80 f8 ff ff 	mov    %rax,-0x780(%rbp)
   102ee:	48 8d 05 42 04 01 00 	lea    0x10442(%rip),%rax        # 20737 <g_544+0x17>
   102f5:	48 89 85 88 f8 ff ff 	mov    %rax,-0x778(%rbp)
   102fc:	48 8d 05 a9 01 01 00 	lea    0x101a9(%rip),%rax        # 204ac <g_312+0x2c>
   10303:	48 89 85 90 f8 ff ff 	mov    %rax,-0x770(%rbp)
   1030a:	48 8d 05 26 04 01 00 	lea    0x10426(%rip),%rax        # 20737 <g_544+0x17>
   10311:	48 89 85 98 f8 ff ff 	mov    %rax,-0x768(%rbp)
   10318:	48 8d 05 18 04 01 00 	lea    0x10418(%rip),%rax        # 20737 <g_544+0x17>
   1031f:	48 89 85 a0 f8 ff ff 	mov    %rax,-0x760(%rbp)
   10326:	48 8d 05 7f 01 01 00 	lea    0x1017f(%rip),%rax        # 204ac <g_312+0x2c>
   1032d:	48 89 85 a8 f8 ff ff 	mov    %rax,-0x758(%rbp)
   10334:	48 8d 05 fc 03 01 00 	lea    0x103fc(%rip),%rax        # 20737 <g_544+0x17>
   1033b:	48 89 85 b0 f8 ff ff 	mov    %rax,-0x750(%rbp)
   10342:	48 8d 05 4b 01 01 00 	lea    0x1014b(%rip),%rax        # 20494 <g_312+0x14>
   10349:	48 89 85 b8 f8 ff ff 	mov    %rax,-0x748(%rbp)
   10350:	48 8d 05 3d 01 01 00 	lea    0x1013d(%rip),%rax        # 20494 <g_312+0x14>
   10357:	48 89 85 c0 f8 ff ff 	mov    %rax,-0x740(%rbp)
   1035e:	48 8d 05 d2 03 01 00 	lea    0x103d2(%rip),%rax        # 20737 <g_544+0x17>
   10365:	48 89 85 c8 f8 ff ff 	mov    %rax,-0x738(%rbp)
   1036c:	48 8d 05 4d 01 01 00 	lea    0x1014d(%rip),%rax        # 204c0 <g_342>
   10373:	48 89 85 d0 f8 ff ff 	mov    %rax,-0x730(%rbp)
   1037a:	48 8d 05 3f 01 01 00 	lea    0x1013f(%rip),%rax        # 204c0 <g_342>
   10381:	48 89 85 d8 f8 ff ff 	mov    %rax,-0x728(%rbp)
   10388:	48 8d 05 05 01 01 00 	lea    0x10105(%rip),%rax        # 20494 <g_312+0x14>
   1038f:	48 89 85 e0 f8 ff ff 	mov    %rax,-0x720(%rbp)
   10396:	48 8d 05 e7 00 01 00 	lea    0x100e7(%rip),%rax        # 20484 <g_312+0x4>
   1039d:	48 89 85 e8 f8 ff ff 	mov    %rax,-0x718(%rbp)
   103a4:	48 8d 05 e9 00 01 00 	lea    0x100e9(%rip),%rax        # 20494 <g_312+0x14>
   103ab:	48 89 85 f0 f8 ff ff 	mov    %rax,-0x710(%rbp)
   103b2:	48 8d 05 07 01 01 00 	lea    0x10107(%rip),%rax        # 204c0 <g_342>
   103b9:	48 89 85 f8 f8 ff ff 	mov    %rax,-0x708(%rbp)
   103c0:	8b 85 7c e4 ff ff    	mov    -0x1b84(%rbp),%eax
   103c6:	0f b6 d8             	movzbl %al,%ebx
   103c9:	44 0f b6 a5 8d e4 ff 	movzbl -0x1b73(%rbp),%r12d
   103d0:	ff 
   103d1:	48 8b 05 b0 69 01 00 	mov    0x169b0(%rip),%rax        # 26d88 <g_334>
   103d8:	48 8b 85 68 e4 ff ff 	mov    -0x1b98(%rbp),%rax
   103df:	89 c2                	mov    %eax,%edx
   103e1:	48 8b 85 10 e6 ff ff 	mov    -0x19f0(%rbp),%rax
   103e8:	48 c7 00 00 00 00 00 	movq   $0x0,(%rax)
   103ef:	48 8b 85 38 e8 ff ff 	mov    -0x17c8(%rbp),%rax
   103f6:	c6 00 00             	movb   $0x0,(%rax)
   103f9:	48 8b 85 38 e8 ff ff 	mov    -0x17c8(%rbp),%rax
   10400:	0f b6 00             	movzbl (%rax),%eax
   10403:	0f be c0             	movsbl %al,%eax
   10406:	89 d6                	mov    %edx,%esi
   10408:	89 c7                	mov    %eax,%edi
   1040a:	e8 df 5e ff ff       	callq  62ee <safe_lshift_func_int8_t_s_u>
   1040f:	38 85 92 e4 ff ff    	cmp    %al,-0x1b6e(%rbp)
   10415:	0f 94 c0             	sete   %al
   10418:	0f b6 d0             	movzbl %al,%edx
   1041b:	48 8b 05 4e 69 01 00 	mov    0x1694e(%rip),%rax        # 26d70 <g_255>
   10422:	0f b7 00             	movzwl (%rax),%eax
   10425:	89 c1                	mov    %eax,%ecx
   10427:	89 d0                	mov    %edx,%eax
   10429:	31 c1                	xor    %eax,%ecx
   1042b:	89 ca                	mov    %ecx,%edx
   1042d:	48 8b 05 3c 69 01 00 	mov    0x1693c(%rip),%rax        # 26d70 <g_255>
   10434:	66 89 10             	mov    %dx,(%rax)
   10437:	48 8d 05 fa 69 01 00 	lea    0x169fa(%rip),%rax        # 26e38 <g_682>
   1043e:	48 39 85 58 e9 ff ff 	cmp    %rax,-0x16a8(%rbp)
   10445:	0f 94 c0             	sete   %al
   10448:	89 c2                	mov    %eax,%edx
   1044a:	48 8b 85 68 e4 ff ff 	mov    -0x1b98(%rbp),%rax
   10451:	09 d0                	or     %edx,%eax
   10453:	0f b6 c0             	movzbl %al,%eax
   10456:	44 89 e6             	mov    %r12d,%esi
   10459:	89 c7                	mov    %eax,%edi
   1045b:	e8 18 67 ff ff       	callq  6b78 <safe_sub_func_uint8_t_u_u>
   10460:	0f b6 c0             	movzbl %al,%eax
   10463:	21 85 f4 e4 ff ff    	and    %eax,-0x1b0c(%rbp)
   10469:	b8 01 00 00 00       	mov    $0x1,%eax
   1046e:	89 c2                	mov    %eax,%edx
   10470:	48 8b 85 e0 e5 ff ff 	mov    -0x1a20(%rbp),%rax
   10477:	8b 00                	mov    (%rax),%eax
   10479:	21 d0                	and    %edx,%eax
   1047b:	83 c8 07             	or     $0x7,%eax
   1047e:	0f b6 c0             	movzbl %al,%eax
   10481:	89 de                	mov    %ebx,%esi
   10483:	89 c7                	mov    %eax,%edi
   10485:	e8 51 67 ff ff       	callq  6bdb <safe_div_func_uint8_t_u_u>
   1048a:	89 c2                	mov    %eax,%edx
   1048c:	48 8b 85 e0 e5 ff ff 	mov    -0x1a20(%rbp),%rax
   10493:	0f b6 d2             	movzbl %dl,%edx
   10496:	89 10                	mov    %edx,(%rax)
   10498:	8b 05 22 00 01 00    	mov    0x10022(%rip),%eax        # 204c0 <g_342>
   1049e:	83 e8 01             	sub    $0x1,%eax
   104a1:	89 05 19 00 01 00    	mov    %eax,0x10019(%rip)        # 204c0 <g_342>
   104a7:	8b 05 13 00 01 00    	mov    0x10013(%rip),%eax        # 204c0 <g_342>
   104ad:	83 f8 e9             	cmp    $0xffffffe9,%eax
   104b0:	0f 8d ac fd ff ff    	jge    10262 <func_116+0x2512>
   104b6:	c7 05 d7 01 01 00 00 	movl   $0x0,0x101d7(%rip)        # 20697 <g_385+0x17>
   104bd:	00 00 00 
   104c0:	e9 c3 10 00 00       	jmpq   11588 <func_116+0x3838>
   104c5:	48 c7 85 f8 e8 ff ff 	movq   $0x1,-0x1708(%rbp)
   104cc:	01 00 00 00 
   104d0:	c7 85 c8 e5 ff ff 07 	movl   $0xbe75f007,-0x1a38(%rbp)
   104d7:	f0 75 be 
   104da:	c7 85 c4 e4 ff ff e2 	movl   $0xbc62cae2,-0x1b3c(%rbp)
   104e1:	ca 62 bc 
   104e4:	c7 85 cc e5 ff ff 4e 	movl   $0xb59374e,-0x1a34(%rbp)
   104eb:	37 59 0b 
   104ee:	66 c7 05 15 01 01 00 	movw   $0x0,0x10115(%rip)        # 2060c <g_376>
   104f5:	00 00 
   104f7:	e9 48 0d 00 00       	jmpq   11244 <func_116+0x34f4>
   104fc:	48 8d 85 00 ea ff ff 	lea    -0x1600(%rbp),%rax
   10503:	48 83 c0 28          	add    $0x28,%rax
   10507:	48 89 85 30 e9 ff ff 	mov    %rax,-0x16d0(%rbp)
   1050e:	48 8d 85 00 ea ff ff 	lea    -0x1600(%rbp),%rax
   10515:	48 83 c0 0c          	add    $0xc,%rax
   10519:	48 89 85 38 e9 ff ff 	mov    %rax,-0x16c8(%rbp)
   10520:	48 8d 85 f0 ed ff ff 	lea    -0x1210(%rbp),%rax
   10527:	48 8d 15 12 b5 00 00 	lea    0xb512(%rip),%rdx        # 1ba40 <g_1798+0x1960>
   1052e:	b9 23 00 00 00       	mov    $0x23,%ecx
   10533:	48 89 c7             	mov    %rax,%rdi
   10536:	48 89 d6             	mov    %rdx,%rsi
   10539:	f3 48 a5             	rep movsq %ds:(%rsi),%es:(%rdi)
   1053c:	48 8d 85 ac e4 ff ff 	lea    -0x1b54(%rbp),%rax
   10543:	48 89 85 40 e9 ff ff 	mov    %rax,-0x16c0(%rbp)
   1054a:	48 8d 05 67 01 01 00 	lea    0x10167(%rip),%rax        # 206b8 <g_402>
   10551:	48 89 85 48 e9 ff ff 	mov    %rax,-0x16b8(%rbp)
   10558:	48 8d 85 00 ea ff ff 	lea    -0x1600(%rbp),%rax
   1055f:	48 89 85 50 e9 ff ff 	mov    %rax,-0x16b0(%rbp)
   10566:	48 8d 05 e3 fa 00 00 	lea    0xfae3(%rip),%rax        # 20050 <g_12>
   1056d:	48 89 85 40 f8 ff ff 	mov    %rax,-0x7c0(%rbp)
   10574:	48 8d 05 f9 fb 00 00 	lea    0xfbf9(%rip),%rax        # 20174 <g_18>
   1057b:	48 89 85 48 f8 ff ff 	mov    %rax,-0x7b8(%rbp)
   10582:	48 c7 85 50 f8 ff ff 	movq   $0x0,-0x7b0(%rbp)
   10589:	00 00 00 00 
   1058d:	48 c7 85 58 f8 ff ff 	movq   $0x0,-0x7a8(%rbp)
   10594:	00 00 00 00 
   10598:	48 8d 05 19 01 01 00 	lea    0x10119(%rip),%rax        # 206b8 <g_402>
   1059f:	48 89 85 60 f8 ff ff 	mov    %rax,-0x7a0(%rbp)
   105a6:	48 8d 05 9b fa 00 00 	lea    0xfa9b(%rip),%rax        # 20048 <g_8>
   105ad:	48 89 85 68 f8 ff ff 	mov    %rax,-0x798(%rbp)
   105b4:	48 8d 85 f0 ed ff ff 	lea    -0x1210(%rbp),%rax
   105bb:	48 05 9c 00 00 00    	add    $0x9c,%rax
   105c1:	48 89 85 70 f8 ff ff 	mov    %rax,-0x790(%rbp)
   105c8:	48 8d 05 71 fa 00 00 	lea    0xfa71(%rip),%rax        # 20040 <g_5+0x10>
   105cf:	48 89 85 78 f8 ff ff 	mov    %rax,-0x788(%rbp)
   105d6:	48 8d 05 fb fc 00 00 	lea    0xfcfb(%rip),%rax        # 202d8 <g_142>
   105dd:	48 89 85 80 f8 ff ff 	mov    %rax,-0x780(%rbp)
   105e4:	48 8d 05 3d fa 00 00 	lea    0xfa3d(%rip),%rax        # 20028 <g_2>
   105eb:	48 89 85 88 f8 ff ff 	mov    %rax,-0x778(%rbp)
   105f2:	48 8d 05 4b fa 00 00 	lea    0xfa4b(%rip),%rax        # 20044 <g_5+0x14>
   105f9:	48 89 85 90 f8 ff ff 	mov    %rax,-0x770(%rbp)
   10600:	48 8d 05 21 fa 00 00 	lea    0xfa21(%rip),%rax        # 20028 <g_2>
   10607:	48 89 85 98 f8 ff ff 	mov    %rax,-0x768(%rbp)
   1060e:	48 8d 05 33 fa 00 00 	lea    0xfa33(%rip),%rax        # 20048 <g_8>
   10615:	48 89 85 a0 f8 ff ff 	mov    %rax,-0x760(%rbp)
   1061c:	48 8d 05 05 fa 00 00 	lea    0xfa05(%rip),%rax        # 20028 <g_2>
   10623:	48 89 85 a8 f8 ff ff 	mov    %rax,-0x758(%rbp)
   1062a:	48 8d 05 f7 f9 00 00 	lea    0xf9f7(%rip),%rax        # 20028 <g_2>
   10631:	48 89 85 b0 f8 ff ff 	mov    %rax,-0x750(%rbp)
   10638:	48 8d 05 11 fa 00 00 	lea    0xfa11(%rip),%rax        # 20050 <g_12>
   1063f:	48 89 85 b8 f8 ff ff 	mov    %rax,-0x748(%rbp)
   10646:	48 8d 05 6b 00 01 00 	lea    0x1006b(%rip),%rax        # 206b8 <g_402>
   1064d:	48 89 85 c0 f8 ff ff 	mov    %rax,-0x740(%rbp)
   10654:	48 8d 05 7d fc 00 00 	lea    0xfc7d(%rip),%rax        # 202d8 <g_142>
   1065b:	48 89 85 c8 f8 ff ff 	mov    %rax,-0x738(%rbp)
   10662:	48 8d 85 00 ea ff ff 	lea    -0x1600(%rbp),%rax
   10669:	48 83 c0 0c          	add    $0xc,%rax
   1066d:	48 89 85 d0 f8 ff ff 	mov    %rax,-0x730(%rbp)
   10674:	48 8d 05 3d 00 01 00 	lea    0x1003d(%rip),%rax        # 206b8 <g_402>
   1067b:	48 89 85 d8 f8 ff ff 	mov    %rax,-0x728(%rbp)
   10682:	48 8d 05 bf f9 00 00 	lea    0xf9bf(%rip),%rax        # 20048 <g_8>
   10689:	48 89 85 e0 f8 ff ff 	mov    %rax,-0x720(%rbp)
   10690:	48 8d 85 f0 ed ff ff 	lea    -0x1210(%rbp),%rax
   10697:	48 83 c0 50          	add    $0x50,%rax
   1069b:	48 89 85 e8 f8 ff ff 	mov    %rax,-0x718(%rbp)
   106a2:	48 8d 85 00 ea ff ff 	lea    -0x1600(%rbp),%rax
   106a9:	48 83 c0 20          	add    $0x20,%rax
   106ad:	48 89 85 f0 f8 ff ff 	mov    %rax,-0x710(%rbp)
   106b4:	48 c7 85 f8 f8 ff ff 	movq   $0x0,-0x708(%rbp)
   106bb:	00 00 00 00 
   106bf:	48 c7 85 00 f9 ff ff 	movq   $0x0,-0x700(%rbp)
   106c6:	00 00 00 00 
   106ca:	48 8d 05 73 f9 00 00 	lea    0xf973(%rip),%rax        # 20044 <g_5+0x14>
   106d1:	48 89 85 08 f9 ff ff 	mov    %rax,-0x6f8(%rbp)
   106d8:	48 8d 05 61 f9 00 00 	lea    0xf961(%rip),%rax        # 20040 <g_5+0x10>
   106df:	48 89 85 10 f9 ff ff 	mov    %rax,-0x6f0(%rbp)
   106e6:	48 8d 05 3b f9 00 00 	lea    0xf93b(%rip),%rax        # 20028 <g_2>
   106ed:	48 89 85 18 f9 ff ff 	mov    %rax,-0x6e8(%rbp)
   106f4:	48 8d 85 00 ea ff ff 	lea    -0x1600(%rbp),%rax
   106fb:	48 83 c0 20          	add    $0x20,%rax
   106ff:	48 89 85 20 f9 ff ff 	mov    %rax,-0x6e0(%rbp)
   10706:	48 8d 85 ac e4 ff ff 	lea    -0x1b54(%rbp),%rax
   1070d:	48 89 85 28 f9 ff ff 	mov    %rax,-0x6d8(%rbp)
   10714:	48 8d 05 35 f9 00 00 	lea    0xf935(%rip),%rax        # 20050 <g_12>
   1071b:	48 89 85 30 f9 ff ff 	mov    %rax,-0x6d0(%rbp)
   10722:	48 8d 05 8f ff 00 00 	lea    0xff8f(%rip),%rax        # 206b8 <g_402>
   10729:	48 89 85 38 f9 ff ff 	mov    %rax,-0x6c8(%rbp)
   10730:	48 8d 05 0d f9 00 00 	lea    0xf90d(%rip),%rax        # 20044 <g_5+0x14>
   10737:	48 89 85 40 f9 ff ff 	mov    %rax,-0x6c0(%rbp)
   1073e:	48 8d 85 f0 ed ff ff 	lea    -0x1210(%rbp),%rax
   10745:	48 05 9c 00 00 00    	add    $0x9c,%rax
   1074b:	48 89 85 48 f9 ff ff 	mov    %rax,-0x6b8(%rbp)
   10752:	48 8d 05 5f ff 00 00 	lea    0xff5f(%rip),%rax        # 206b8 <g_402>
   10759:	48 89 85 50 f9 ff ff 	mov    %rax,-0x6b0(%rbp)
   10760:	48 8d 05 e1 f8 00 00 	lea    0xf8e1(%rip),%rax        # 20048 <g_8>
   10767:	48 89 85 58 f9 ff ff 	mov    %rax,-0x6a8(%rbp)
   1076e:	48 8d 05 cf f8 00 00 	lea    0xf8cf(%rip),%rax        # 20044 <g_5+0x14>
   10775:	48 89 85 60 f9 ff ff 	mov    %rax,-0x6a0(%rbp)
   1077c:	48 8d 05 a5 f8 00 00 	lea    0xf8a5(%rip),%rax        # 20028 <g_2>
   10783:	48 89 85 68 f9 ff ff 	mov    %rax,-0x698(%rbp)
   1078a:	48 8d 85 f0 ed ff ff 	lea    -0x1210(%rbp),%rax
   10791:	48 05 9c 00 00 00    	add    $0x9c,%rax
   10797:	48 89 85 70 f9 ff ff 	mov    %rax,-0x690(%rbp)
   1079e:	48 8d 05 9f f8 00 00 	lea    0xf89f(%rip),%rax        # 20044 <g_5+0x14>
   107a5:	48 89 85 78 f9 ff ff 	mov    %rax,-0x688(%rbp)
   107ac:	48 8d 05 91 f8 00 00 	lea    0xf891(%rip),%rax        # 20044 <g_5+0x14>
   107b3:	48 89 85 80 f9 ff ff 	mov    %rax,-0x680(%rbp)
   107ba:	48 8d 05 8f f8 00 00 	lea    0xf88f(%rip),%rax        # 20050 <g_12>
   107c1:	48 89 85 88 f9 ff ff 	mov    %rax,-0x678(%rbp)
   107c8:	48 8d 85 f0 ed ff ff 	lea    -0x1210(%rbp),%rax
   107cf:	48 05 9c 00 00 00    	add    $0x9c,%rax
   107d5:	48 89 85 90 f9 ff ff 	mov    %rax,-0x670(%rbp)
   107dc:	48 8d 05 5d f8 00 00 	lea    0xf85d(%rip),%rax        # 20040 <g_5+0x10>
   107e3:	48 89 85 98 f9 ff ff 	mov    %rax,-0x668(%rbp)
   107ea:	48 8d 85 00 ea ff ff 	lea    -0x1600(%rbp),%rax
   107f1:	48 83 c0 20          	add    $0x20,%rax
   107f5:	48 89 85 a0 f9 ff ff 	mov    %rax,-0x660(%rbp)
   107fc:	48 8d 05 4d f8 00 00 	lea    0xf84d(%rip),%rax        # 20050 <g_12>
   10803:	48 89 85 a8 f9 ff ff 	mov    %rax,-0x658(%rbp)
   1080a:	48 8d 05 a7 fe 00 00 	lea    0xfea7(%rip),%rax        # 206b8 <g_402>
   10811:	48 89 85 b0 f9 ff ff 	mov    %rax,-0x650(%rbp)
   10818:	48 8d 85 00 ea ff ff 	lea    -0x1600(%rbp),%rax
   1081f:	48 83 c0 20          	add    $0x20,%rax
   10823:	48 89 85 b8 f9 ff ff 	mov    %rax,-0x648(%rbp)
   1082a:	48 8d 05 f7 f7 00 00 	lea    0xf7f7(%rip),%rax        # 20028 <g_2>
   10831:	48 89 85 c0 f9 ff ff 	mov    %rax,-0x640(%rbp)
   10838:	48 8d 05 35 f9 00 00 	lea    0xf935(%rip),%rax        # 20174 <g_18>
   1083f:	48 89 85 c8 f9 ff ff 	mov    %rax,-0x638(%rbp)
   10846:	48 8d 05 fb f7 00 00 	lea    0xf7fb(%rip),%rax        # 20048 <g_8>
   1084d:	48 89 85 d0 f9 ff ff 	mov    %rax,-0x630(%rbp)
   10854:	48 c7 85 d8 f9 ff ff 	movq   $0x0,-0x628(%rbp)
   1085b:	00 00 00 00 
   1085f:	48 8d 05 ea f7 00 00 	lea    0xf7ea(%rip),%rax        # 20050 <g_12>
   10866:	48 89 85 e0 f9 ff ff 	mov    %rax,-0x620(%rbp)
   1086d:	48 8d 85 00 ea ff ff 	lea    -0x1600(%rbp),%rax
   10874:	48 83 c0 20          	add    $0x20,%rax
   10878:	48 89 85 e8 f9 ff ff 	mov    %rax,-0x618(%rbp)
   1087f:	48 8d 85 f0 ed ff ff 	lea    -0x1210(%rbp),%rax
   10886:	48 83 c0 50          	add    $0x50,%rax
   1088a:	48 89 85 f0 f9 ff ff 	mov    %rax,-0x610(%rbp)
   10891:	48 8d 05 ac f7 00 00 	lea    0xf7ac(%rip),%rax        # 20044 <g_5+0x14>
   10898:	48 89 85 f8 f9 ff ff 	mov    %rax,-0x608(%rbp)
   1089f:	48 8d 85 00 ea ff ff 	lea    -0x1600(%rbp),%rax
   108a6:	48 83 c0 20          	add    $0x20,%rax
   108aa:	48 89 85 00 fa ff ff 	mov    %rax,-0x600(%rbp)
   108b1:	48 8d 85 00 ea ff ff 	lea    -0x1600(%rbp),%rax
   108b8:	48 83 c0 0c          	add    $0xc,%rax
   108bc:	48 89 85 08 fa ff ff 	mov    %rax,-0x5f8(%rbp)
   108c3:	48 8d 85 ac e4 ff ff 	lea    -0x1b54(%rbp),%rax
   108ca:	48 89 85 10 fa ff ff 	mov    %rax,-0x5f0(%rbp)
   108d1:	48 8d 05 78 f7 00 00 	lea    0xf778(%rip),%rax        # 20050 <g_12>
   108d8:	48 89 85 18 fa ff ff 	mov    %rax,-0x5e8(%rbp)
   108df:	48 8d 05 6a f7 00 00 	lea    0xf76a(%rip),%rax        # 20050 <g_12>
   108e6:	48 89 85 20 fa ff ff 	mov    %rax,-0x5e0(%rbp)
   108ed:	48 8d 05 c4 fd 00 00 	lea    0xfdc4(%rip),%rax        # 206b8 <g_402>
   108f4:	48 89 85 28 fa ff ff 	mov    %rax,-0x5d8(%rbp)
   108fb:	48 8d 85 f0 ed ff ff 	lea    -0x1210(%rbp),%rax
   10902:	48 05 9c 00 00 00    	add    $0x9c,%rax
   10908:	48 89 85 30 fa ff ff 	mov    %rax,-0x5d0(%rbp)
   1090f:	48 8d 05 32 f7 00 00 	lea    0xf732(%rip),%rax        # 20048 <g_8>
   10916:	48 89 85 38 fa ff ff 	mov    %rax,-0x5c8(%rbp)
   1091d:	48 8d 05 94 fd 00 00 	lea    0xfd94(%rip),%rax        # 206b8 <g_402>
   10924:	48 89 85 40 fa ff ff 	mov    %rax,-0x5c0(%rbp)
   1092b:	48 8d 05 16 f7 00 00 	lea    0xf716(%rip),%rax        # 20048 <g_8>
   10932:	48 89 85 48 fa ff ff 	mov    %rax,-0x5b8(%rbp)
   10939:	48 8d 05 e8 f6 00 00 	lea    0xf6e8(%rip),%rax        # 20028 <g_2>
   10940:	48 89 85 50 fa ff ff 	mov    %rax,-0x5b0(%rbp)
   10947:	48 8d 85 ac e4 ff ff 	lea    -0x1b54(%rbp),%rax
   1094e:	48 89 85 58 fa ff ff 	mov    %rax,-0x5a8(%rbp)
   10955:	48 8d 05 e8 f6 00 00 	lea    0xf6e8(%rip),%rax        # 20044 <g_5+0x14>
   1095c:	48 89 85 60 fa ff ff 	mov    %rax,-0x5a0(%rbp)
   10963:	48 8d 85 f0 ed ff ff 	lea    -0x1210(%rbp),%rax
   1096a:	48 05 9c 00 00 00    	add    $0x9c,%rax
   10970:	48 89 85 68 fa ff ff 	mov    %rax,-0x598(%rbp)
   10977:	48 8d 05 c6 f6 00 00 	lea    0xf6c6(%rip),%rax        # 20044 <g_5+0x14>
   1097e:	48 89 85 70 fa ff ff 	mov    %rax,-0x590(%rbp)
   10985:	48 8d 85 ac e4 ff ff 	lea    -0x1b54(%rbp),%rax
   1098c:	48 89 85 78 fa ff ff 	mov    %rax,-0x588(%rbp)
   10993:	48 c7 85 80 fa ff ff 	movq   $0x0,-0x580(%rbp)
   1099a:	00 00 00 00 
   1099e:	48 8d 05 ab f6 00 00 	lea    0xf6ab(%rip),%rax        # 20050 <g_12>
   109a5:	48 89 85 88 fa ff ff 	mov    %rax,-0x578(%rbp)
   109ac:	48 8d 05 8d f6 00 00 	lea    0xf68d(%rip),%rax        # 20040 <g_5+0x10>
   109b3:	48 89 85 90 fa ff ff 	mov    %rax,-0x570(%rbp)
   109ba:	48 8d 05 8f f6 00 00 	lea    0xf68f(%rip),%rax        # 20050 <g_12>
   109c1:	48 89 85 98 fa ff ff 	mov    %rax,-0x568(%rbp)
   109c8:	48 8d 05 a5 f7 00 00 	lea    0xf7a5(%rip),%rax        # 20174 <g_18>
   109cf:	48 89 85 a0 fa ff ff 	mov    %rax,-0x560(%rbp)
   109d6:	48 c7 85 a8 fa ff ff 	movq   $0x0,-0x558(%rbp)
   109dd:	00 00 00 00 
   109e1:	48 c7 85 b0 fa ff ff 	movq   $0x0,-0x550(%rbp)
   109e8:	00 00 00 00 
   109ec:	48 8d 05 c5 fc 00 00 	lea    0xfcc5(%rip),%rax        # 206b8 <g_402>
   109f3:	48 89 85 b8 fa ff ff 	mov    %rax,-0x548(%rbp)
   109fa:	48 8d 05 47 f6 00 00 	lea    0xf647(%rip),%rax        # 20048 <g_8>
   10a01:	48 89 85 c0 fa ff ff 	mov    %rax,-0x540(%rbp)
   10a08:	48 8d 85 f0 ed ff ff 	lea    -0x1210(%rbp),%rax
   10a0f:	48 05 9c 00 00 00    	add    $0x9c,%rax
   10a15:	48 89 85 c8 fa ff ff 	mov    %rax,-0x538(%rbp)
   10a1c:	48 8d 05 1d f6 00 00 	lea    0xf61d(%rip),%rax        # 20040 <g_5+0x10>
   10a23:	48 89 85 d0 fa ff ff 	mov    %rax,-0x530(%rbp)
   10a2a:	48 8d 05 a7 f8 00 00 	lea    0xf8a7(%rip),%rax        # 202d8 <g_142>
   10a31:	48 89 85 d8 fa ff ff 	mov    %rax,-0x528(%rbp)
   10a38:	48 8d 05 e9 f5 00 00 	lea    0xf5e9(%rip),%rax        # 20028 <g_2>
   10a3f:	48 89 85 e0 fa ff ff 	mov    %rax,-0x520(%rbp)
   10a46:	48 8d 05 f7 f5 00 00 	lea    0xf5f7(%rip),%rax        # 20044 <g_5+0x14>
   10a4d:	48 89 85 e8 fa ff ff 	mov    %rax,-0x518(%rbp)
   10a54:	48 8d 05 cd f5 00 00 	lea    0xf5cd(%rip),%rax        # 20028 <g_2>
   10a5b:	48 89 85 f0 fa ff ff 	mov    %rax,-0x510(%rbp)
   10a62:	48 8d 05 df f5 00 00 	lea    0xf5df(%rip),%rax        # 20048 <g_8>
   10a69:	48 89 85 f8 fa ff ff 	mov    %rax,-0x508(%rbp)
   10a70:	48 8d 05 b1 f5 00 00 	lea    0xf5b1(%rip),%rax        # 20028 <g_2>
   10a77:	48 89 85 00 fb ff ff 	mov    %rax,-0x500(%rbp)
   10a7e:	48 8d 05 a3 f5 00 00 	lea    0xf5a3(%rip),%rax        # 20028 <g_2>
   10a85:	48 89 85 08 fb ff ff 	mov    %rax,-0x4f8(%rbp)
   10a8c:	48 8d 05 bd f5 00 00 	lea    0xf5bd(%rip),%rax        # 20050 <g_12>
   10a93:	48 89 85 10 fb ff ff 	mov    %rax,-0x4f0(%rbp)
   10a9a:	48 8d 05 17 fc 00 00 	lea    0xfc17(%rip),%rax        # 206b8 <g_402>
   10aa1:	48 89 85 18 fb ff ff 	mov    %rax,-0x4e8(%rbp)
   10aa8:	48 8d 05 29 f8 00 00 	lea    0xf829(%rip),%rax        # 202d8 <g_142>
   10aaf:	48 89 85 20 fb ff ff 	mov    %rax,-0x4e0(%rbp)
   10ab6:	48 8d 85 00 ea ff ff 	lea    -0x1600(%rbp),%rax
   10abd:	48 83 c0 0c          	add    $0xc,%rax
   10ac1:	48 89 85 28 fb ff ff 	mov    %rax,-0x4d8(%rbp)
   10ac8:	48 8d 05 e9 fb 00 00 	lea    0xfbe9(%rip),%rax        # 206b8 <g_402>
   10acf:	48 89 85 30 fb ff ff 	mov    %rax,-0x4d0(%rbp)
   10ad6:	48 8d 05 6b f5 00 00 	lea    0xf56b(%rip),%rax        # 20048 <g_8>
   10add:	48 89 85 38 fb ff ff 	mov    %rax,-0x4c8(%rbp)
   10ae4:	48 8d 85 f0 ed ff ff 	lea    -0x1210(%rbp),%rax
   10aeb:	48 83 c0 50          	add    $0x50,%rax
   10aef:	48 89 85 40 fb ff ff 	mov    %rax,-0x4c0(%rbp)
   10af6:	48 8d 85 00 ea ff ff 	lea    -0x1600(%rbp),%rax
   10afd:	48 83 c0 20          	add    $0x20,%rax
   10b01:	48 89 85 48 fb ff ff 	mov    %rax,-0x4b8(%rbp)
   10b08:	48 c7 85 50 fb ff ff 	movq   $0x0,-0x4b0(%rbp)
   10b0f:	00 00 00 00 
   10b13:	48 c7 85 58 fb ff ff 	movq   $0x0,-0x4a8(%rbp)
   10b1a:	00 00 00 00 
   10b1e:	48 8d 05 1f f5 00 00 	lea    0xf51f(%rip),%rax        # 20044 <g_5+0x14>
   10b25:	48 89 85 60 fb ff ff 	mov    %rax,-0x4a0(%rbp)
   10b2c:	48 8d 05 0d f5 00 00 	lea    0xf50d(%rip),%rax        # 20040 <g_5+0x10>
   10b33:	48 89 85 68 fb ff ff 	mov    %rax,-0x498(%rbp)
   10b3a:	48 8d 05 e7 f4 00 00 	lea    0xf4e7(%rip),%rax        # 20028 <g_2>
   10b41:	48 89 85 70 fb ff ff 	mov    %rax,-0x490(%rbp)
   10b48:	48 8d 85 00 ea ff ff 	lea    -0x1600(%rbp),%rax
   10b4f:	48 83 c0 20          	add    $0x20,%rax
   10b53:	48 89 85 78 fb ff ff 	mov    %rax,-0x488(%rbp)
   10b5a:	48 8d 85 ac e4 ff ff 	lea    -0x1b54(%rbp),%rax
   10b61:	48 89 85 80 fb ff ff 	mov    %rax,-0x480(%rbp)
   10b68:	48 8d 05 e1 f4 00 00 	lea    0xf4e1(%rip),%rax        # 20050 <g_12>
   10b6f:	48 89 85 88 fb ff ff 	mov    %rax,-0x478(%rbp)
   10b76:	48 8d 05 3b fb 00 00 	lea    0xfb3b(%rip),%rax        # 206b8 <g_402>
   10b7d:	48 89 85 90 fb ff ff 	mov    %rax,-0x470(%rbp)
   10b84:	48 8d 05 b9 f4 00 00 	lea    0xf4b9(%rip),%rax        # 20044 <g_5+0x14>
   10b8b:	48 89 85 98 fb ff ff 	mov    %rax,-0x468(%rbp)
   10b92:	48 8d 85 f0 ed ff ff 	lea    -0x1210(%rbp),%rax
   10b99:	48 05 9c 00 00 00    	add    $0x9c,%rax
   10b9f:	48 89 85 a0 fb ff ff 	mov    %rax,-0x460(%rbp)
   10ba6:	48 8d 05 0b fb 00 00 	lea    0xfb0b(%rip),%rax        # 206b8 <g_402>
   10bad:	48 89 85 a8 fb ff ff 	mov    %rax,-0x458(%rbp)
   10bb4:	48 8d 05 8d f4 00 00 	lea    0xf48d(%rip),%rax        # 20048 <g_8>
   10bbb:	48 89 85 b0 fb ff ff 	mov    %rax,-0x450(%rbp)
   10bc2:	48 8d 05 7b f4 00 00 	lea    0xf47b(%rip),%rax        # 20044 <g_5+0x14>
   10bc9:	48 89 85 b8 fb ff ff 	mov    %rax,-0x448(%rbp)
   10bd0:	48 8d 05 51 f4 00 00 	lea    0xf451(%rip),%rax        # 20028 <g_2>
   10bd7:	48 89 85 c0 fb ff ff 	mov    %rax,-0x440(%rbp)
   10bde:	48 8d 85 f0 ed ff ff 	lea    -0x1210(%rbp),%rax
   10be5:	48 05 9c 00 00 00    	add    $0x9c,%rax
   10beb:	48 89 85 c8 fb ff ff 	mov    %rax,-0x438(%rbp)
   10bf2:	48 8d 05 4b f4 00 00 	lea    0xf44b(%rip),%rax        # 20044 <g_5+0x14>
   10bf9:	48 89 85 d0 fb ff ff 	mov    %rax,-0x430(%rbp)
   10c00:	48 8d 05 3d f4 00 00 	lea    0xf43d(%rip),%rax        # 20044 <g_5+0x14>
   10c07:	48 89 85 d8 fb ff ff 	mov    %rax,-0x428(%rbp)
   10c0e:	48 8d 05 3b f4 00 00 	lea    0xf43b(%rip),%rax        # 20050 <g_12>
   10c15:	48 89 85 e0 fb ff ff 	mov    %rax,-0x420(%rbp)
   10c1c:	48 8d 85 f0 ed ff ff 	lea    -0x1210(%rbp),%rax
   10c23:	48 05 9c 00 00 00    	add    $0x9c,%rax
   10c29:	48 89 85 e8 fb ff ff 	mov    %rax,-0x418(%rbp)
   10c30:	48 8d 05 09 f4 00 00 	lea    0xf409(%rip),%rax        # 20040 <g_5+0x10>
   10c37:	48 89 85 f0 fb ff ff 	mov    %rax,-0x410(%rbp)
   10c3e:	48 8d 85 00 ea ff ff 	lea    -0x1600(%rbp),%rax
   10c45:	48 83 c0 20          	add    $0x20,%rax
   10c49:	48 89 85 f8 fb ff ff 	mov    %rax,-0x408(%rbp)
   10c50:	48 8d 05 f9 f3 00 00 	lea    0xf3f9(%rip),%rax        # 20050 <g_12>
   10c57:	48 89 85 00 fc ff ff 	mov    %rax,-0x400(%rbp)
   10c5e:	48 8d 05 53 fa 00 00 	lea    0xfa53(%rip),%rax        # 206b8 <g_402>
   10c65:	48 89 85 08 fc ff ff 	mov    %rax,-0x3f8(%rbp)
   10c6c:	48 8d 85 00 ea ff ff 	lea    -0x1600(%rbp),%rax
   10c73:	48 83 c0 20          	add    $0x20,%rax
   10c77:	48 89 85 10 fc ff ff 	mov    %rax,-0x3f0(%rbp)
   10c7e:	48 8d 05 a3 f3 00 00 	lea    0xf3a3(%rip),%rax        # 20028 <g_2>
   10c85:	48 89 85 18 fc ff ff 	mov    %rax,-0x3e8(%rbp)
   10c8c:	48 8d 05 e1 f4 00 00 	lea    0xf4e1(%rip),%rax        # 20174 <g_18>
   10c93:	48 89 85 20 fc ff ff 	mov    %rax,-0x3e0(%rbp)
   10c9a:	48 8d 05 a7 f3 00 00 	lea    0xf3a7(%rip),%rax        # 20048 <g_8>
   10ca1:	48 89 85 28 fc ff ff 	mov    %rax,-0x3d8(%rbp)
   10ca8:	48 c7 85 30 fc ff ff 	movq   $0x0,-0x3d0(%rbp)
   10caf:	00 00 00 00 
   10cb3:	48 8d 05 96 f3 00 00 	lea    0xf396(%rip),%rax        # 20050 <g_12>
   10cba:	48 89 85 38 fc ff ff 	mov    %rax,-0x3c8(%rbp)
   10cc1:	48 8d 85 00 ea ff ff 	lea    -0x1600(%rbp),%rax
   10cc8:	48 83 c0 20          	add    $0x20,%rax
   10ccc:	48 89 85 40 fc ff ff 	mov    %rax,-0x3c0(%rbp)
   10cd3:	48 8d 85 f0 ed ff ff 	lea    -0x1210(%rbp),%rax
   10cda:	48 83 c0 50          	add    $0x50,%rax
   10cde:	48 89 85 48 fc ff ff 	mov    %rax,-0x3b8(%rbp)
   10ce5:	48 8d 05 58 f3 00 00 	lea    0xf358(%rip),%rax        # 20044 <g_5+0x14>
   10cec:	48 89 85 50 fc ff ff 	mov    %rax,-0x3b0(%rbp)
   10cf3:	48 8d 85 00 ea ff ff 	lea    -0x1600(%rbp),%rax
   10cfa:	48 83 c0 20          	add    $0x20,%rax
   10cfe:	48 89 85 58 fc ff ff 	mov    %rax,-0x3a8(%rbp)
   10d05:	48 8d 85 00 ea ff ff 	lea    -0x1600(%rbp),%rax
   10d0c:	48 83 c0 0c          	add    $0xc,%rax
   10d10:	48 89 85 60 fc ff ff 	mov    %rax,-0x3a0(%rbp)
   10d17:	48 8d 85 ac e4 ff ff 	lea    -0x1b54(%rbp),%rax
   10d1e:	48 89 85 68 fc ff ff 	mov    %rax,-0x398(%rbp)
   10d25:	48 8d 05 24 f3 00 00 	lea    0xf324(%rip),%rax        # 20050 <g_12>
   10d2c:	48 89 85 70 fc ff ff 	mov    %rax,-0x390(%rbp)
   10d33:	48 8d 05 16 f3 00 00 	lea    0xf316(%rip),%rax        # 20050 <g_12>
   10d3a:	48 89 85 78 fc ff ff 	mov    %rax,-0x388(%rbp)
   10d41:	48 8d 05 70 f9 00 00 	lea    0xf970(%rip),%rax        # 206b8 <g_402>
   10d48:	48 89 85 80 fc ff ff 	mov    %rax,-0x380(%rbp)
   10d4f:	48 8d 85 f0 ed ff ff 	lea    -0x1210(%rbp),%rax
   10d56:	48 05 9c 00 00 00    	add    $0x9c,%rax
   10d5c:	48 89 85 88 fc ff ff 	mov    %rax,-0x378(%rbp)
   10d63:	48 8d 05 de f2 00 00 	lea    0xf2de(%rip),%rax        # 20048 <g_8>
   10d6a:	48 89 85 90 fc ff ff 	mov    %rax,-0x370(%rbp)
   10d71:	48 8d 05 40 f9 00 00 	lea    0xf940(%rip),%rax        # 206b8 <g_402>
   10d78:	48 89 85 98 fc ff ff 	mov    %rax,-0x368(%rbp)
   10d7f:	48 8d 05 c2 f2 00 00 	lea    0xf2c2(%rip),%rax        # 20048 <g_8>
   10d86:	48 89 85 a0 fc ff ff 	mov    %rax,-0x360(%rbp)
   10d8d:	48 8d 05 94 f2 00 00 	lea    0xf294(%rip),%rax        # 20028 <g_2>
   10d94:	48 89 85 a8 fc ff ff 	mov    %rax,-0x358(%rbp)
   10d9b:	48 8d 85 ac e4 ff ff 	lea    -0x1b54(%rbp),%rax
   10da2:	48 89 85 b0 fc ff ff 	mov    %rax,-0x350(%rbp)
   10da9:	48 8d 05 94 f2 00 00 	lea    0xf294(%rip),%rax        # 20044 <g_5+0x14>
   10db0:	48 89 85 b8 fc ff ff 	mov    %rax,-0x348(%rbp)
   10db7:	48 8d 85 f0 ed ff ff 	lea    -0x1210(%rbp),%rax
   10dbe:	48 05 9c 00 00 00    	add    $0x9c,%rax
   10dc4:	48 89 85 c0 fc ff ff 	mov    %rax,-0x340(%rbp)
   10dcb:	48 8d 05 72 f2 00 00 	lea    0xf272(%rip),%rax        # 20044 <g_5+0x14>
   10dd2:	48 89 85 c8 fc ff ff 	mov    %rax,-0x338(%rbp)
   10dd9:	48 8d 85 ac e4 ff ff 	lea    -0x1b54(%rbp),%rax
   10de0:	48 89 85 d0 fc ff ff 	mov    %rax,-0x330(%rbp)
   10de7:	48 c7 85 d8 fc ff ff 	movq   $0x0,-0x328(%rbp)
   10dee:	00 00 00 00 
   10df2:	48 8d 05 57 f2 00 00 	lea    0xf257(%rip),%rax        # 20050 <g_12>
   10df9:	48 89 85 e0 fc ff ff 	mov    %rax,-0x320(%rbp)
   10e00:	48 8d 05 39 f2 00 00 	lea    0xf239(%rip),%rax        # 20040 <g_5+0x10>
   10e07:	48 89 85 e8 fc ff ff 	mov    %rax,-0x318(%rbp)
   10e0e:	48 8d 05 3b f2 00 00 	lea    0xf23b(%rip),%rax        # 20050 <g_12>
   10e15:	48 89 85 f0 fc ff ff 	mov    %rax,-0x310(%rbp)
   10e1c:	48 8d 05 51 f3 00 00 	lea    0xf351(%rip),%rax        # 20174 <g_18>
   10e23:	48 89 85 f8 fc ff ff 	mov    %rax,-0x308(%rbp)
   10e2a:	48 c7 85 00 fd ff ff 	movq   $0x0,-0x300(%rbp)
   10e31:	00 00 00 00 
   10e35:	48 c7 85 08 fd ff ff 	movq   $0x0,-0x2f8(%rbp)
   10e3c:	00 00 00 00 
   10e40:	48 8d 05 71 f8 00 00 	lea    0xf871(%rip),%rax        # 206b8 <g_402>
   10e47:	48 89 85 10 fd ff ff 	mov    %rax,-0x2f0(%rbp)
   10e4e:	48 8d 05 f3 f1 00 00 	lea    0xf1f3(%rip),%rax        # 20048 <g_8>
   10e55:	48 89 85 18 fd ff ff 	mov    %rax,-0x2e8(%rbp)
   10e5c:	48 8d 85 f0 ed ff ff 	lea    -0x1210(%rbp),%rax
   10e63:	48 05 9c 00 00 00    	add    $0x9c,%rax
   10e69:	48 89 85 20 fd ff ff 	mov    %rax,-0x2e0(%rbp)
   10e70:	48 8d 05 c9 f1 00 00 	lea    0xf1c9(%rip),%rax        # 20040 <g_5+0x10>
   10e77:	48 89 85 28 fd ff ff 	mov    %rax,-0x2d8(%rbp)
   10e7e:	48 8d 05 53 f4 00 00 	lea    0xf453(%rip),%rax        # 202d8 <g_142>
   10e85:	48 89 85 30 fd ff ff 	mov    %rax,-0x2d0(%rbp)
   10e8c:	48 8d 05 95 f1 00 00 	lea    0xf195(%rip),%rax        # 20028 <g_2>
   10e93:	48 89 85 38 fd ff ff 	mov    %rax,-0x2c8(%rbp)
   10e9a:	48 8d 05 af f1 00 00 	lea    0xf1af(%rip),%rax        # 20050 <g_12>
   10ea1:	48 89 85 40 fd ff ff 	mov    %rax,-0x2c0(%rbp)
   10ea8:	48 8d 05 99 f1 00 00 	lea    0xf199(%rip),%rax        # 20048 <g_8>
   10eaf:	48 89 85 48 fd ff ff 	mov    %rax,-0x2b8(%rbp)
   10eb6:	48 c7 85 50 fd ff ff 	movq   $0x0,-0x2b0(%rbp)
   10ebd:	00 00 00 00 
   10ec1:	48 8d 05 80 f1 00 00 	lea    0xf180(%rip),%rax        # 20048 <g_8>
   10ec8:	48 89 85 58 fd ff ff 	mov    %rax,-0x2a8(%rbp)
   10ecf:	48 8d 05 72 f1 00 00 	lea    0xf172(%rip),%rax        # 20048 <g_8>
   10ed6:	48 89 85 60 fd ff ff 	mov    %rax,-0x2a0(%rbp)
   10edd:	48 8d 05 44 f1 00 00 	lea    0xf144(%rip),%rax        # 20028 <g_2>
   10ee4:	48 89 85 68 fd ff ff 	mov    %rax,-0x298(%rbp)
   10eeb:	48 8d 05 36 f1 00 00 	lea    0xf136(%rip),%rax        # 20028 <g_2>
   10ef2:	48 89 85 70 fd ff ff 	mov    %rax,-0x290(%rbp)
   10ef9:	48 8d 05 b8 f7 00 00 	lea    0xf7b8(%rip),%rax        # 206b8 <g_402>
   10f00:	48 89 85 78 fd ff ff 	mov    %rax,-0x288(%rbp)
   10f07:	48 8d 85 00 ea ff ff 	lea    -0x1600(%rbp),%rax
   10f0e:	48 83 c0 20          	add    $0x20,%rax
   10f12:	48 89 85 80 fd ff ff 	mov    %rax,-0x280(%rbp)
   10f19:	48 8d 85 f0 ed ff ff 	lea    -0x1210(%rbp),%rax
   10f20:	48 05 9c 00 00 00    	add    $0x9c,%rax
   10f26:	48 89 85 88 fd ff ff 	mov    %rax,-0x278(%rbp)
   10f2d:	48 c7 85 90 fd ff ff 	movq   $0x0,-0x270(%rbp)
   10f34:	00 00 00 00 
   10f38:	48 8d 05 01 f1 00 00 	lea    0xf101(%rip),%rax        # 20040 <g_5+0x10>
   10f3f:	48 89 85 98 fd ff ff 	mov    %rax,-0x268(%rbp)
   10f46:	48 c7 85 a0 fd ff ff 	movq   $0x0,-0x260(%rbp)
   10f4d:	00 00 00 00 
   10f51:	48 8d 05 60 f7 00 00 	lea    0xf760(%rip),%rax        # 206b8 <g_402>
   10f58:	48 89 85 a8 fd ff ff 	mov    %rax,-0x258(%rbp)
   10f5f:	48 8d 85 00 ea ff ff 	lea    -0x1600(%rbp),%rax
   10f66:	48 83 c0 20          	add    $0x20,%rax
   10f6a:	48 89 85 b0 fd ff ff 	mov    %rax,-0x250(%rbp)
   10f71:	48 8d 05 d8 f0 00 00 	lea    0xf0d8(%rip),%rax        # 20050 <g_12>
   10f78:	48 89 85 b8 fd ff ff 	mov    %rax,-0x248(%rbp)
   10f7f:	48 8d 85 00 ea ff ff 	lea    -0x1600(%rbp),%rax
   10f86:	48 83 c0 0c          	add    $0xc,%rax
   10f8a:	48 89 85 c0 fd ff ff 	mov    %rax,-0x240(%rbp)
   10f91:	48 8d 05 40 f3 00 00 	lea    0xf340(%rip),%rax        # 202d8 <g_142>
   10f98:	48 89 85 c8 fd ff ff 	mov    %rax,-0x238(%rbp)
   10f9f:	48 c7 85 d0 fd ff ff 	movq   $0x0,-0x230(%rbp)
   10fa6:	00 00 00 00 
   10faa:	48 8d 85 f0 ed ff ff 	lea    -0x1210(%rbp),%rax
   10fb1:	48 05 9c 00 00 00    	add    $0x9c,%rax
   10fb7:	48 89 85 d8 fd ff ff 	mov    %rax,-0x228(%rbp)
   10fbe:	48 8d 05 63 f0 00 00 	lea    0xf063(%rip),%rax        # 20028 <g_2>
   10fc5:	48 89 85 e0 fd ff ff 	mov    %rax,-0x220(%rbp)
   10fcc:	48 8d 85 f0 ed ff ff 	lea    -0x1210(%rbp),%rax
   10fd3:	48 05 9c 00 00 00    	add    $0x9c,%rax
   10fd9:	48 89 85 e8 fd ff ff 	mov    %rax,-0x218(%rbp)
   10fe0:	48 8d 05 8d f1 00 00 	lea    0xf18d(%rip),%rax        # 20174 <g_18>
   10fe7:	48 89 85 f0 fd ff ff 	mov    %rax,-0x210(%rbp)
   10fee:	48 8d 05 4f f0 00 00 	lea    0xf04f(%rip),%rax        # 20044 <g_5+0x14>
   10ff5:	48 89 85 f8 fd ff ff 	mov    %rax,-0x208(%rbp)
   10ffc:	48 8d 05 25 f0 00 00 	lea    0xf025(%rip),%rax        # 20028 <g_2>
   11003:	48 89 85 00 fe ff ff 	mov    %rax,-0x200(%rbp)
   1100a:	48 c7 85 08 fe ff ff 	movq   $0x0,-0x1f8(%rbp)
   11011:	00 00 00 00 
   11015:	48 8d 05 34 f0 00 00 	lea    0xf034(%rip),%rax        # 20050 <g_12>
   1101c:	48 89 85 10 fe ff ff 	mov    %rax,-0x1f0(%rbp)
   11023:	48 8d 05 1e f0 00 00 	lea    0xf01e(%rip),%rax        # 20048 <g_8>
   1102a:	48 89 85 18 fe ff ff 	mov    %rax,-0x1e8(%rbp)
   11031:	48 8d 05 80 f6 00 00 	lea    0xf680(%rip),%rax        # 206b8 <g_402>
   11038:	48 89 85 20 fe ff ff 	mov    %rax,-0x1e0(%rbp)
   1103f:	48 8d 05 0a f0 00 00 	lea    0xf00a(%rip),%rax        # 20050 <g_12>
   11046:	48 89 85 28 fe ff ff 	mov    %rax,-0x1d8(%rbp)
   1104d:	48 8d 05 fc ef 00 00 	lea    0xeffc(%rip),%rax        # 20050 <g_12>
   11054:	48 89 85 30 fe ff ff 	mov    %rax,-0x1d0(%rbp)
   1105b:	48 8d 05 c6 ef 00 00 	lea    0xefc6(%rip),%rax        # 20028 <g_2>
   11062:	48 89 85 38 fe ff ff 	mov    %rax,-0x1c8(%rbp)
   11069:	48 8d 05 d4 ef 00 00 	lea    0xefd4(%rip),%rax        # 20044 <g_5+0x14>
   11070:	48 89 85 40 fe ff ff 	mov    %rax,-0x1c0(%rbp)
   11077:	48 8d 85 00 ea ff ff 	lea    -0x1600(%rbp),%rax
   1107e:	48 83 c0 0c          	add    $0xc,%rax
   11082:	48 89 85 48 fe ff ff 	mov    %rax,-0x1b8(%rbp)
   11089:	48 c7 85 50 fe ff ff 	movq   $0x0,-0x1b0(%rbp)
   11090:	00 00 00 00 
   11094:	48 8d 05 8d ef 00 00 	lea    0xef8d(%rip),%rax        # 20028 <g_2>
   1109b:	48 89 85 58 fe ff ff 	mov    %rax,-0x1a8(%rbp)
   110a2:	48 8d 85 f0 ed ff ff 	lea    -0x1210(%rbp),%rax
   110a9:	48 83 c0 50          	add    $0x50,%rax
   110ad:	48 89 85 60 fe ff ff 	mov    %rax,-0x1a0(%rbp)
   110b4:	48 8d 05 fd f5 00 00 	lea    0xf5fd(%rip),%rax        # 206b8 <g_402>
   110bb:	48 89 85 68 fe ff ff 	mov    %rax,-0x198(%rbp)
   110c2:	48 8d 05 0f f2 00 00 	lea    0xf20f(%rip),%rax        # 202d8 <g_142>
   110c9:	48 89 85 70 fe ff ff 	mov    %rax,-0x190(%rbp)
   110d0:	48 c7 85 78 fe ff ff 	movq   $0x0,-0x188(%rbp)
   110d7:	00 00 00 00 
   110db:	48 c7 85 80 fe ff ff 	movq   $0x0,-0x180(%rbp)
   110e2:	00 00 00 00 
   110e6:	48 8d 85 00 ea ff ff 	lea    -0x1600(%rbp),%rax
   110ed:	48 83 c0 20          	add    $0x20,%rax
   110f1:	48 89 85 88 fe ff ff 	mov    %rax,-0x178(%rbp)
   110f8:	48 8d 05 29 ef 00 00 	lea    0xef29(%rip),%rax        # 20028 <g_2>
   110ff:	48 89 85 90 fe ff ff 	mov    %rax,-0x170(%rbp)
   11106:	48 8d 05 ab f5 00 00 	lea    0xf5ab(%rip),%rax        # 206b8 <g_402>
   1110d:	48 89 85 98 fe ff ff 	mov    %rax,-0x168(%rbp)
   11114:	48 8d 05 25 ef 00 00 	lea    0xef25(%rip),%rax        # 20040 <g_5+0x10>
   1111b:	48 89 85 a0 fe ff ff 	mov    %rax,-0x160(%rbp)
   11122:	48 8d 05 27 ef 00 00 	lea    0xef27(%rip),%rax        # 20050 <g_12>
   11129:	48 89 85 a8 fe ff ff 	mov    %rax,-0x158(%rbp)
   11130:	48 c7 85 b0 fe ff ff 	movq   $0x0,-0x150(%rbp)
   11137:	00 00 00 00 
   1113b:	48 8d 85 00 ea ff ff 	lea    -0x1600(%rbp),%rax
   11142:	48 83 c0 20          	add    $0x20,%rax
   11146:	48 89 85 b8 fe ff ff 	mov    %rax,-0x148(%rbp)
   1114d:	48 8d 85 f0 ed ff ff 	lea    -0x1210(%rbp),%rax
   11154:	48 05 9c 00 00 00    	add    $0x9c,%rax
   1115a:	48 89 85 c0 fe ff ff 	mov    %rax,-0x140(%rbp)
   11161:	48 8d 05 c0 ee 00 00 	lea    0xeec0(%rip),%rax        # 20028 <g_2>
   11168:	48 89 85 c8 fe ff ff 	mov    %rax,-0x138(%rbp)
   1116f:	48 8d 05 b2 ee 00 00 	lea    0xeeb2(%rip),%rax        # 20028 <g_2>
   11176:	48 89 85 d0 fe ff ff 	mov    %rax,-0x130(%rbp)
   1117d:	48 8d 05 c0 ee 00 00 	lea    0xeec0(%rip),%rax        # 20044 <g_5+0x14>
   11184:	48 89 85 d8 fe ff ff 	mov    %rax,-0x128(%rbp)
   1118b:	48 8d 05 26 f5 00 00 	lea    0xf526(%rip),%rax        # 206b8 <g_402>
   11192:	48 89 85 e0 fe ff ff 	mov    %rax,-0x120(%rbp)
   11199:	48 c7 85 e8 fe ff ff 	movq   $0x0,-0x118(%rbp)
   111a0:	00 00 00 00 
   111a4:	48 8d 05 99 ee 00 00 	lea    0xee99(%rip),%rax        # 20044 <g_5+0x14>
   111ab:	48 89 85 f0 fe ff ff 	mov    %rax,-0x110(%rbp)
   111b2:	48 c7 85 f8 fe ff ff 	movq   $0x0,-0x108(%rbp)
   111b9:	00 00 00 00 
   111bd:	48 8b 85 e0 e5 ff ff 	mov    -0x1a20(%rbp),%rax
   111c4:	8b 08                	mov    (%rax),%ecx
   111c6:	0f b7 05 3f f4 00 00 	movzwl 0xf43f(%rip),%eax        # 2060c <g_376>
   111cd:	0f b7 c0             	movzwl %ax,%eax
   111d0:	8d 50 01             	lea    0x1(%rax),%edx
   111d3:	0f b7 05 32 f4 00 00 	movzwl 0xf432(%rip),%eax        # 2060c <g_376>
   111da:	0f b7 c0             	movzwl %ax,%eax
   111dd:	48 98                	cltq   
   111df:	48 63 d2             	movslq %edx,%rdx
   111e2:	48 01 d2             	add    %rdx,%rdx
   111e5:	48 01 d0             	add    %rdx,%rax
   111e8:	48 8d 14 00          	lea    (%rax,%rax,1),%rdx
   111ec:	48 8d 05 4d f4 00 00 	lea    0xf44d(%rip),%rax        # 20640 <g_382>
   111f3:	0f b7 04 02          	movzwl (%rdx,%rax,1),%eax
   111f7:	0f b7 d0             	movzwl %ax,%edx
   111fa:	48 8b 85 e0 e5 ff ff 	mov    -0x1a20(%rbp),%rax
   11201:	09 ca                	or     %ecx,%edx
   11203:	89 10                	mov    %edx,(%rax)
   11205:	0f b7 05 00 f4 00 00 	movzwl 0xf400(%rip),%eax        # 2060c <g_376>
   1120c:	0f b7 c0             	movzwl %ax,%eax
   1120f:	83 c0 02             	add    $0x2,%eax
   11212:	48 98                	cltq   
   11214:	0f b7 84 45 72 e9 ff 	movzwl -0x168e(%rbp,%rax,2),%eax
   1121b:	ff 
   1121c:	66 85 c0             	test   %ax,%ax
   1121f:	75 11                	jne    11232 <func_116+0x34e2>
   11221:	8b 85 6c e9 ff ff    	mov    -0x1694(%rbp),%eax
   11227:	83 e8 01             	sub    $0x1,%eax
   1122a:	89 85 6c e9 ff ff    	mov    %eax,-0x1694(%rbp)
   11230:	eb 01                	jmp    11233 <func_116+0x34e3>
   11232:	90                   	nop
   11233:	0f b7 05 d2 f3 00 00 	movzwl 0xf3d2(%rip),%eax        # 2060c <g_376>
   1123a:	83 c0 01             	add    $0x1,%eax
   1123d:	66 89 05 c8 f3 00 00 	mov    %ax,0xf3c8(%rip)        # 2060c <g_376>
   11244:	0f b7 05 c1 f3 00 00 	movzwl 0xf3c1(%rip),%eax        # 2060c <g_376>
   1124b:	66 83 f8 01          	cmp    $0x1,%ax
   1124f:	0f 86 a7 f2 ff ff    	jbe    104fc <func_116+0x27ac>
   11255:	66 c7 05 ac f3 00 00 	movw   $0x0,0xf3ac(%rip)        # 2060a <g_375>
   1125c:	00 00 
   1125e:	90                   	nop
   1125f:	0f b7 05 a4 f3 00 00 	movzwl 0xf3a4(%rip),%eax        # 2060a <g_375>
   11266:	66 83 f8 09          	cmp    $0x9,%ax
   1126a:	0f 87 09 03 00 00    	ja     11579 <func_116+0x3829>
   11270:	48 8d 85 40 f8 ff ff 	lea    -0x7c0(%rbp),%rax
   11277:	48 8d 15 e2 a8 00 00 	lea    0xa8e2(%rip),%rdx        # 1bb60 <g_1798+0x1a80>
   1127e:	b9 f0 00 00 00       	mov    $0xf0,%ecx
   11283:	48 89 c7             	mov    %rax,%rdi
   11286:	48 89 d6             	mov    %rdx,%rsi
   11289:	f3 48 a5             	rep movsq %ds:(%rsi),%es:(%rdi)
   1128c:	48 c7 85 00 e9 ff ff 	movq   $0x0,-0x1700(%rbp)
   11293:	00 00 00 00 
   11297:	48 8d 85 c4 e4 ff ff 	lea    -0x1b3c(%rbp),%rax
   1129e:	48 89 85 08 e9 ff ff 	mov    %rax,-0x16f8(%rbp)
   112a5:	48 8d 85 30 ea ff ff 	lea    -0x15d0(%rbp),%rax
   112ac:	48 83 c0 20          	add    $0x20,%rax
   112b0:	48 89 85 40 e6 ff ff 	mov    %rax,-0x19c0(%rbp)
   112b7:	48 8d 85 40 e6 ff ff 	lea    -0x19c0(%rbp),%rax
   112be:	48 89 85 10 e9 ff ff 	mov    %rax,-0x16f0(%rbp)
   112c5:	48 8d 05 ec f3 00 00 	lea    0xf3ec(%rip),%rax        # 206b8 <g_402>
   112cc:	48 89 85 18 e9 ff ff 	mov    %rax,-0x16e8(%rbp)
   112d3:	48 8d 05 e2 f3 00 00 	lea    0xf3e2(%rip),%rax        # 206bc <g_459>
   112da:	48 89 85 20 e9 ff ff 	mov    %rax,-0x16e0(%rbp)
   112e1:	48 8d 05 f0 ef 00 00 	lea    0xeff0(%rip),%rax        # 202d8 <g_142>
   112e8:	48 89 85 28 e9 ff ff 	mov    %rax,-0x16d8(%rbp)
   112ef:	8b 95 7c e4 ff ff    	mov    -0x1b84(%rbp),%edx
   112f5:	48 8b 85 28 e6 ff ff 	mov    -0x19d8(%rbp),%rax
   112fc:	88 10                	mov    %dl,(%rax)
   112fe:	0f b6 00             	movzbl (%rax),%eax
   11301:	3c b4                	cmp    $0xb4,%al
   11303:	0f 97 c2             	seta   %dl
   11306:	48 8b 85 e0 e5 ff ff 	mov    -0x1a20(%rbp),%rax
   1130d:	0f b6 d2             	movzbl %dl,%edx
   11310:	89 10                	mov    %edx,(%rax)
   11312:	48 8b 85 e0 e5 ff ff 	mov    -0x1a20(%rbp),%rax
   11319:	8b 00                	mov    (%rax),%eax
   1131b:	89 c2                	mov    %eax,%edx
   1131d:	48 8b 85 e8 f8 ff ff 	mov    -0x718(%rbp),%rax
   11324:	89 c1                	mov    %eax,%ecx
   11326:	8b 85 a0 e5 ff ff    	mov    -0x1a60(%rbp),%eax
   1132c:	09 c8                	or     %ecx,%eax
   1132e:	31 c2                	xor    %eax,%edx
   11330:	48 8b 85 e0 e5 ff ff 	mov    -0x1a20(%rbp),%rax
   11337:	89 10                	mov    %edx,(%rax)
   11339:	48 8b 85 f8 e8 ff ff 	mov    -0x1708(%rbp),%rax
   11340:	0f be d8             	movsbl %al,%ebx
   11343:	8b 85 7c e4 ff ff    	mov    -0x1b84(%rbp),%eax
   11349:	44 0f be e0          	movsbl %al,%r12d
   1134d:	48 8b 85 68 e4 ff ff 	mov    -0x1b98(%rbp),%rax
   11354:	89 85 60 e4 ff ff    	mov    %eax,-0x1ba0(%rbp)
   1135a:	44 8b 2d 03 f7 00 00 	mov    0xf703(%rip),%r13d        # 20a64 <g_640+0x4>
   11361:	44 0f be b5 92 e4 ff 	movsbl -0x1b6e(%rbp),%r14d
   11368:	ff 
   11369:	48 8b 85 68 e4 ff ff 	mov    -0x1b98(%rbp),%rax
   11370:	44 0f be f8          	movsbl %al,%r15d
   11374:	48 8b 8d e0 ec ff ff 	mov    -0x1320(%rbp),%rcx
   1137b:	48 8b 95 40 e6 ff ff 	mov    -0x19c0(%rbp),%rdx
   11382:	48 8b 85 10 e9 ff ff 	mov    -0x16f0(%rbp),%rax
   11389:	48 89 10             	mov    %rdx,(%rax)
   1138c:	48 8b 85 10 e9 ff ff 	mov    -0x16f0(%rbp),%rax
   11393:	48 8b 00             	mov    (%rax),%rax
   11396:	48 39 c1             	cmp    %rax,%rcx
   11399:	0f 94 c0             	sete   %al
   1139c:	0f b6 d0             	movzbl %al,%edx
   1139f:	0f b7 05 f5 f2 00 00 	movzwl 0xf2f5(%rip),%eax        # 2069b <g_385+0x1b>
   113a6:	0f b7 c0             	movzwl %ax,%eax
   113a9:	39 c2                	cmp    %eax,%edx
   113ab:	7d 07                	jge    113b4 <func_116+0x3664>
   113ad:	b8 01 00 00 00       	mov    $0x1,%eax
   113b2:	eb 05                	jmp    113b9 <func_116+0x3669>
   113b4:	b8 00 00 00 00       	mov    $0x0,%eax
   113b9:	98                   	cwtl   
   113ba:	48 8d 15 f7 f2 00 00 	lea    0xf2f7(%rip),%rdx        # 206b8 <g_402>
   113c1:	48 89 95 08 e9 ff ff 	mov    %rdx,-0x16f8(%rbp)
   113c8:	89 c6                	mov    %eax,%esi
   113ca:	bf 01 00 00 00       	mov    $0x1,%edi
   113cf:	e8 ff 4f ff ff       	callq  63d3 <safe_sub_func_int16_t_s_s>
   113d4:	0f be c0             	movsbl %al,%eax
   113d7:	44 89 fe             	mov    %r15d,%esi
   113da:	89 c7                	mov    %eax,%edi
   113dc:	e8 f3 4d ff ff       	callq  61d4 <safe_add_func_int8_t_s_s>
   113e1:	0f be d0             	movsbl %al,%edx
   113e4:	8b 85 7c e4 ff ff    	mov    -0x1b84(%rbp),%eax
   113ea:	39 c2                	cmp    %eax,%edx
   113ec:	0f 9c c0             	setl   %al
   113ef:	0f b6 c0             	movzbl %al,%eax
   113f2:	be 0d 00 00 00       	mov    $0xd,%esi
   113f7:	89 c7                	mov    %eax,%edi
   113f9:	e8 94 50 ff ff       	callq  6492 <safe_lshift_func_int16_t_s_s>
   113fe:	89 c2                	mov    %eax,%edx
   11400:	48 8b 85 e0 e5 ff ff 	mov    -0x1a20(%rbp),%rax
   11407:	0f bf d2             	movswl %dx,%edx
   1140a:	89 10                	mov    %edx,(%rax)
   1140c:	48 8b 85 e0 e5 ff ff 	mov    -0x1a20(%rbp),%rax
   11413:	8b 00                	mov    (%rax),%eax
   11415:	89 c2                	mov    %eax,%edx
   11417:	48 8b 05 1a 5a 01 00 	mov    0x15a1a(%rip),%rax        # 26e38 <g_682>
   1141e:	8b 00                	mov    (%rax),%eax
   11420:	09 c2                	or     %eax,%edx
   11422:	48 8b 85 e8 f8 ff ff 	mov    -0x718(%rbp),%rax
   11429:	89 c1                	mov    %eax,%ecx
   1142b:	48 8b 85 68 e6 ff ff 	mov    -0x1998(%rbp),%rax
   11432:	0f b6 00             	movzbl (%rax),%eax
   11435:	89 c6                	mov    %eax,%esi
   11437:	89 d0                	mov    %edx,%eax
   11439:	09 f0                	or     %esi,%eax
   1143b:	89 c2                	mov    %eax,%edx
   1143d:	48 8b 85 68 e6 ff ff 	mov    -0x1998(%rbp),%rax
   11444:	88 10                	mov    %dl,(%rax)
   11446:	48 8b 85 68 e6 ff ff 	mov    -0x1998(%rbp),%rax
   1144d:	0f b6 00             	movzbl (%rax),%eax
   11450:	0f be c0             	movsbl %al,%eax
   11453:	21 c1                	and    %eax,%ecx
   11455:	89 ca                	mov    %ecx,%edx
   11457:	0f b7 05 ae f0 00 00 	movzwl 0xf0ae(%rip),%eax        # 2050c <g_363+0xc>
   1145e:	0f b7 c0             	movzwl %ax,%eax
   11461:	31 d0                	xor    %edx,%eax
   11463:	89 85 bc e4 ff ff    	mov    %eax,-0x1b44(%rbp)
   11469:	8b 85 bc e4 ff ff    	mov    -0x1b44(%rbp),%eax
   1146f:	44 89 f6             	mov    %r14d,%esi
   11472:	89 c7                	mov    %eax,%edi
   11474:	e8 53 52 ff ff       	callq  66cc <safe_mod_func_int32_t_s_s>
   11479:	48 8b 95 18 e9 ff ff 	mov    -0x16e8(%rbp),%rdx
   11480:	8b 12                	mov    (%rdx),%edx
   11482:	21 c2                	and    %eax,%edx
   11484:	48 8b 85 18 e9 ff ff 	mov    -0x16e8(%rbp),%rax
   1148b:	89 10                	mov    %edx,(%rax)
   1148d:	8b 05 1d f4 00 00    	mov    0xf41d(%rip),%eax        # 208b0 <g_602+0x150>
   11493:	25 ff ff ff 03       	and    $0x3ffffff,%eax
   11498:	85 c0                	test   %eax,%eax
   1149a:	74 10                	je     114ac <func_116+0x375c>
   1149c:	80 bd 92 e4 ff ff 00 	cmpb   $0x0,-0x1b6e(%rbp)
   114a3:	74 07                	je     114ac <func_116+0x375c>
   114a5:	ba 01 00 00 00       	mov    $0x1,%edx
   114aa:	eb 05                	jmp    114b1 <func_116+0x3761>
   114ac:	ba 00 00 00 00       	mov    $0x0,%edx
   114b1:	48 8b 05 80 59 01 00 	mov    0x15980(%rip),%rax        # 26e38 <g_682>
   114b8:	89 10                	mov    %edx,(%rax)
   114ba:	8b 00                	mov    (%rax),%eax
   114bc:	44 89 ee             	mov    %r13d,%esi
   114bf:	89 c7                	mov    %eax,%edi
   114c1:	e8 0a 5a ff ff       	callq  6ed0 <safe_sub_func_uint32_t_u_u>
   114c6:	0f be 85 92 e4 ff ff 	movsbl -0x1b6e(%rbp),%eax
   114cd:	8b b5 60 e4 ff ff    	mov    -0x1ba0(%rbp),%esi
   114d3:	89 c7                	mov    %eax,%edi
   114d5:	e8 de 59 ff ff       	callq  6eb8 <safe_add_func_uint32_t_u_u>
   114da:	89 c2                	mov    %eax,%edx
   114dc:	48 8b 85 20 e6 ff ff 	mov    -0x19e0(%rbp),%rax
   114e3:	66 89 10             	mov    %dx,(%rax)
   114e6:	0f b7 10             	movzwl (%rax),%edx
   114e9:	48 8b 85 20 e9 ff ff 	mov    -0x16e0(%rbp),%rax
   114f0:	66 89 10             	mov    %dx,(%rax)
   114f3:	48 8b 85 20 e9 ff ff 	mov    -0x16e0(%rbp),%rax
   114fa:	0f b7 00             	movzwl (%rax),%eax
   114fd:	98                   	cwtl   
   114fe:	89 c7                	mov    %eax,%edi
   11500:	e8 98 4e ff ff       	callq  639d <safe_unary_minus_func_int16_t_s>
   11505:	0f bf d0             	movswl %ax,%edx
   11508:	0f b7 05 8c f1 00 00 	movzwl 0xf18c(%rip),%eax        # 2069b <g_385+0x1b>
   1150f:	0f b7 c0             	movzwl %ax,%eax
   11512:	39 c2                	cmp    %eax,%edx
   11514:	0f 94 c0             	sete   %al
   11517:	0f b6 d0             	movzbl %al,%edx
   1151a:	48 8b 05 57 f5 00 00 	mov    0xf557(%rip),%rax        # 20a78 <g_731>
   11521:	48 39 c2             	cmp    %rax,%rdx
   11524:	0f 9e c0             	setle  %al
   11527:	0f b6 c0             	movzbl %al,%eax
   1152a:	44 89 e6             	mov    %r12d,%esi
   1152d:	89 c7                	mov    %eax,%edi
   1152f:	e8 de 4c ff ff       	callq  6212 <safe_mul_func_int8_t_s_s>
   11534:	0f be c0             	movsbl %al,%eax
   11537:	89 de                	mov    %ebx,%esi
   11539:	89 c7                	mov    %eax,%edi
   1153b:	e8 2a 4d ff ff       	callq  626a <safe_div_func_int8_t_s_s>
   11540:	66 98                	cbtw   
   11542:	f7 d0                	not    %eax
   11544:	0f b7 c0             	movzwl %ax,%eax
   11547:	be 0f 00 00 00       	mov    $0xf,%esi
   1154c:	89 c7                	mov    %eax,%edi
   1154e:	e8 f5 58 ff ff       	callq  6e48 <safe_rshift_func_uint16_t_u_s>
   11553:	0f b7 d0             	movzwl %ax,%edx
   11556:	48 8b 85 28 e9 ff ff 	mov    -0x16d8(%rbp),%rax
   1155d:	8b 00                	mov    (%rax),%eax
   1155f:	21 c2                	and    %eax,%edx
   11561:	48 8b 85 28 e9 ff ff 	mov    -0x16d8(%rbp),%rax
   11568:	89 10                	mov    %edx,(%rax)
   1156a:	0f b7 05 07 f0 00 00 	movzwl 0xf007(%rip),%eax        # 20578 <g_367+0x38>
   11571:	0f b7 c0             	movzwl %ax,%eax
   11574:	e9 9a 3a 00 00       	jmpq   15013 <func_116+0x72c3>
   11579:	8b 05 18 f1 00 00    	mov    0xf118(%rip),%eax        # 20697 <g_385+0x17>
   1157f:	83 c0 01             	add    $0x1,%eax
   11582:	89 05 0f f1 00 00    	mov    %eax,0xf10f(%rip)        # 20697 <g_385+0x17>
   11588:	8b 05 09 f1 00 00    	mov    0xf109(%rip),%eax        # 20697 <g_385+0x17>
   1158e:	83 f8 09             	cmp    $0x9,%eax
   11591:	0f 8e 2e ef ff ff    	jle    104c5 <func_116+0x2775>
   11597:	48 be 74 b2 be 3b 40 	movabs $0x2569c6403bbeb274,%rsi
   1159e:	c6 69 25 
   115a1:	bf 07 00 00 00       	mov    $0x7,%edi
   115a6:	e8 04 5b ff ff       	callq  70af <safe_div_func_uint64_t_u_u>
   115ab:	48 89 c2             	mov    %rax,%rdx
   115ae:	48 8b 85 e0 e5 ff ff 	mov    -0x1a20(%rbp),%rax
   115b5:	89 10                	mov    %edx,(%rax)
   115b7:	8b 00                	mov    (%rax),%eax
   115b9:	85 c0                	test   %eax,%eax
   115bb:	0f 84 00 01 00 00    	je     116c1 <func_116+0x3971>
   115c1:	48 8d 85 00 ea ff ff 	lea    -0x1600(%rbp),%rax
   115c8:	48 83 c0 08          	add    $0x8,%rax
   115cc:	48 89 85 c0 e8 ff ff 	mov    %rax,-0x1740(%rbp)
   115d3:	48 8d 85 bc e4 ff ff 	lea    -0x1b44(%rbp),%rax
   115da:	48 89 85 c8 e8 ff ff 	mov    %rax,-0x1738(%rbp)
   115e1:	48 8d 85 00 ea ff ff 	lea    -0x1600(%rbp),%rax
   115e8:	48 83 c0 20          	add    $0x20,%rax
   115ec:	48 89 85 d0 e8 ff ff 	mov    %rax,-0x1730(%rbp)
   115f3:	48 8d 05 de ec 00 00 	lea    0xecde(%rip),%rax        # 202d8 <g_142>
   115fa:	48 89 85 d8 e8 ff ff 	mov    %rax,-0x1728(%rbp)
   11601:	48 8d 85 ac e4 ff ff 	lea    -0x1b54(%rbp),%rax
   11608:	48 89 85 e0 e8 ff ff 	mov    %rax,-0x1720(%rbp)
   1160f:	48 8d 85 bc e4 ff ff 	lea    -0x1b44(%rbp),%rax
   11616:	48 89 85 40 f8 ff ff 	mov    %rax,-0x7c0(%rbp)
   1161d:	48 8d 05 20 ea 00 00 	lea    0xea20(%rip),%rax        # 20044 <g_5+0x14>
   11624:	48 89 85 48 f8 ff ff 	mov    %rax,-0x7b8(%rbp)
   1162b:	48 8d 85 bc e4 ff ff 	lea    -0x1b44(%rbp),%rax
   11632:	48 89 85 50 f8 ff ff 	mov    %rax,-0x7b0(%rbp)
   11639:	48 8d 05 04 ea 00 00 	lea    0xea04(%rip),%rax        # 20044 <g_5+0x14>
   11640:	48 89 85 58 f8 ff ff 	mov    %rax,-0x7a8(%rbp)
   11647:	48 8d 85 bc e4 ff ff 	lea    -0x1b44(%rbp),%rax
   1164e:	48 89 85 60 f8 ff ff 	mov    %rax,-0x7a0(%rbp)
   11655:	48 8d 05 e8 e9 00 00 	lea    0xe9e8(%rip),%rax        # 20044 <g_5+0x14>
   1165c:	48 89 85 68 f8 ff ff 	mov    %rax,-0x798(%rbp)
   11663:	48 8d 85 bc e4 ff ff 	lea    -0x1b44(%rbp),%rax
   1166a:	48 89 85 70 f8 ff ff 	mov    %rax,-0x790(%rbp)
   11671:	48 8d 05 cc e9 00 00 	lea    0xe9cc(%rip),%rax        # 20044 <g_5+0x14>
   11678:	48 89 85 78 f8 ff ff 	mov    %rax,-0x788(%rbp)
   1167f:	48 8d 85 bc e4 ff ff 	lea    -0x1b44(%rbp),%rax
   11686:	48 89 85 80 f8 ff ff 	mov    %rax,-0x780(%rbp)
   1168d:	48 c7 85 e8 e8 ff ff 	movq   $0x0,-0x1718(%rbp)
   11694:	00 00 00 00 
   11698:	48 c7 85 f0 e8 ff ff 	movq   $0x0,-0x1710(%rbp)
   1169f:	00 00 00 00 
   116a3:	48 83 ad a8 e6 ff ff 	subq   $0x1,-0x1958(%rbp)
   116aa:	01 
   116ab:	48 8b 05 ae 57 01 00 	mov    0x157ae(%rip),%rax        # 26e60 <g_774>
   116b2:	48 8b 95 b0 ea ff ff 	mov    -0x1550(%rbp),%rdx
   116b9:	48 89 10             	mov    %rdx,(%rax)
   116bc:	e9 b5 06 00 00       	jmpq   11d76 <func_116+0x4026>
   116c1:	66 c7 85 a6 e4 ff ff 	movw   $0x3,-0x1b5a(%rbp)
   116c8:	03 00 
   116ca:	c7 85 bc e5 ff ff 30 	movl   $0xdfd3ed30,-0x1a44(%rbp)
   116d1:	ed d3 df 
   116d4:	c7 85 c0 e5 ff ff 5c 	movl   $0x230b8c5c,-0x1a40(%rbp)
   116db:	8c 0b 23 
   116de:	c6 85 93 e4 ff ff ff 	movb   $0xff,-0x1b6d(%rbp)
   116e5:	66 c7 85 a8 e4 ff ff 	movw   $0x6d86,-0x1b58(%rbp)
   116ec:	86 6d 
   116ee:	48 c7 85 a0 e8 ff ff 	movq   $0x0,-0x1760(%rbp)
   116f5:	00 00 00 00 
   116f9:	8b 85 a8 e9 ff ff    	mov    -0x1658(%rbp),%eax
   116ff:	85 c0                	test   %eax,%eax
   11701:	74 6d                	je     11770 <func_116+0x3a20>
   11703:	48 c7 85 40 e6 ff ff 	movq   $0x0,-0x19c0(%rbp)
   1170a:	00 00 00 00 
   1170e:	48 8d 85 40 e6 ff ff 	lea    -0x19c0(%rbp),%rax
   11715:	48 89 85 b8 e8 ff ff 	mov    %rax,-0x1748(%rbp)
   1171c:	48 8b 85 08 ed ff ff 	mov    -0x12f8(%rbp),%rax
   11723:	48 0d 41 68 97 06    	or     $0x6976841,%rax
   11729:	48 89 85 08 ed ff ff 	mov    %rax,-0x12f8(%rbp)
   11730:	48 8b 85 68 e4 ff ff 	mov    -0x1b98(%rbp),%rax
   11737:	48 89 c6             	mov    %rax,%rsi
   1173a:	bf 07 00 00 00       	mov    $0x7,%edi
   1173f:	e8 b3 52 ff ff       	callq  69f7 <safe_div_func_int64_t_s_s>
   11744:	48 8b 95 e0 e5 ff ff 	mov    -0x1a20(%rbp),%rdx
   1174b:	8b 12                	mov    (%rdx),%edx
   1174d:	89 c1                	mov    %eax,%ecx
   1174f:	48 8b 85 e0 e5 ff ff 	mov    -0x1a20(%rbp),%rax
   11756:	21 ca                	and    %ecx,%edx
   11758:	89 10                	mov    %edx,(%rax)
   1175a:	48 8b 95 40 e6 ff ff 	mov    -0x19c0(%rbp),%rdx
   11761:	48 8b 85 b8 e8 ff ff 	mov    -0x1748(%rbp),%rax
   11768:	48 89 10             	mov    %rdx,(%rax)
   1176b:	e9 1c 05 00 00       	jmpq   11c8c <func_116+0x3f3c>
   11770:	66 c7 85 aa e4 ff ff 	movw   $0x6c12,-0x1b56(%rbp)
   11777:	12 6c 
   11779:	c7 85 c4 e5 ff ff 00 	movl   $0x0,-0x1a3c(%rbp)
   11780:	00 00 00 
   11783:	48 8d 85 c0 e4 ff ff 	lea    -0x1b40(%rbp),%rax
   1178a:	48 89 85 a8 e8 ff ff 	mov    %rax,-0x1758(%rbp)
   11791:	48 8d 85 ac e4 ff ff 	lea    -0x1b54(%rbp),%rax
   11798:	48 89 85 b0 e8 ff ff 	mov    %rax,-0x1750(%rbp)
   1179f:	48 c7 85 40 f8 ff ff 	movq   $0x0,-0x7c0(%rbp)
   117a6:	00 00 00 00 
   117aa:	48 8d 85 00 ea ff ff 	lea    -0x1600(%rbp),%rax
   117b1:	48 83 c0 1c          	add    $0x1c,%rax
   117b5:	48 89 85 48 f8 ff ff 	mov    %rax,-0x7b8(%rbp)
   117bc:	48 8d 05 b1 e9 00 00 	lea    0xe9b1(%rip),%rax        # 20174 <g_18>
   117c3:	48 89 85 50 f8 ff ff 	mov    %rax,-0x7b0(%rbp)
   117ca:	48 c7 85 58 f8 ff ff 	movq   $0x0,-0x7a8(%rbp)
   117d1:	00 00 00 00 
   117d5:	48 8d 85 b8 e4 ff ff 	lea    -0x1b48(%rbp),%rax
   117dc:	48 89 85 60 f8 ff ff 	mov    %rax,-0x7a0(%rbp)
   117e3:	48 8d 85 b8 e4 ff ff 	lea    -0x1b48(%rbp),%rax
   117ea:	48 89 85 68 f8 ff ff 	mov    %rax,-0x798(%rbp)
   117f1:	48 c7 85 70 f8 ff ff 	movq   $0x0,-0x790(%rbp)
   117f8:	00 00 00 00 
   117fc:	48 8d 05 71 e9 00 00 	lea    0xe971(%rip),%rax        # 20174 <g_18>
   11803:	48 89 85 78 f8 ff ff 	mov    %rax,-0x788(%rbp)
   1180a:	48 8d 85 00 ea ff ff 	lea    -0x1600(%rbp),%rax
   11811:	48 83 c0 20          	add    $0x20,%rax
   11815:	48 89 85 80 f8 ff ff 	mov    %rax,-0x780(%rbp)
   1181c:	48 8d 85 00 ea ff ff 	lea    -0x1600(%rbp),%rax
   11823:	48 83 c0 20          	add    $0x20,%rax
   11827:	48 89 85 88 f8 ff ff 	mov    %rax,-0x778(%rbp)
   1182e:	48 8d 85 80 e9 ff ff 	lea    -0x1680(%rbp),%rax
   11835:	48 83 c0 08          	add    $0x8,%rax
   11839:	48 89 85 90 f8 ff ff 	mov    %rax,-0x770(%rbp)
   11840:	48 8d 85 00 ea ff ff 	lea    -0x1600(%rbp),%rax
   11847:	48 89 85 98 f8 ff ff 	mov    %rax,-0x768(%rbp)
   1184e:	48 c7 85 a0 f8 ff ff 	movq   $0x0,-0x760(%rbp)
   11855:	00 00 00 00 
   11859:	48 8d 85 80 e9 ff ff 	lea    -0x1680(%rbp),%rax
   11860:	48 83 c0 08          	add    $0x8,%rax
   11864:	48 89 85 a8 f8 ff ff 	mov    %rax,-0x758(%rbp)
   1186b:	48 c7 85 b0 f8 ff ff 	movq   $0x0,-0x750(%rbp)
   11872:	00 00 00 00 
   11876:	48 8d 85 00 ea ff ff 	lea    -0x1600(%rbp),%rax
   1187d:	48 89 85 b8 f8 ff ff 	mov    %rax,-0x748(%rbp)
   11884:	48 8d 05 e9 e8 00 00 	lea    0xe8e9(%rip),%rax        # 20174 <g_18>
   1188b:	48 89 85 c0 f8 ff ff 	mov    %rax,-0x740(%rbp)
   11892:	48 8d 85 00 ea ff ff 	lea    -0x1600(%rbp),%rax
   11899:	48 89 85 c8 f8 ff ff 	mov    %rax,-0x738(%rbp)
   118a0:	48 8d 05 cd e8 00 00 	lea    0xe8cd(%rip),%rax        # 20174 <g_18>
   118a7:	48 89 85 d0 f8 ff ff 	mov    %rax,-0x730(%rbp)
   118ae:	48 8d 85 b8 e4 ff ff 	lea    -0x1b48(%rbp),%rax
   118b5:	48 89 85 d8 f8 ff ff 	mov    %rax,-0x728(%rbp)
   118bc:	48 8d 85 00 ea ff ff 	lea    -0x1600(%rbp),%rax
   118c3:	48 89 85 e0 f8 ff ff 	mov    %rax,-0x720(%rbp)
   118ca:	48 8d 85 00 ea ff ff 	lea    -0x1600(%rbp),%rax
   118d1:	48 83 c0 1c          	add    $0x1c,%rax
   118d5:	48 89 85 e8 f8 ff ff 	mov    %rax,-0x718(%rbp)
   118dc:	48 8d 85 00 ea ff ff 	lea    -0x1600(%rbp),%rax
   118e3:	48 83 c0 1c          	add    $0x1c,%rax
   118e7:	48 89 85 f0 f8 ff ff 	mov    %rax,-0x710(%rbp)
   118ee:	48 8d 85 00 ea ff ff 	lea    -0x1600(%rbp),%rax
   118f5:	48 89 85 f8 f8 ff ff 	mov    %rax,-0x708(%rbp)
   118fc:	48 8d 85 00 ea ff ff 	lea    -0x1600(%rbp),%rax
   11903:	48 89 85 00 f9 ff ff 	mov    %rax,-0x700(%rbp)
   1190a:	48 8d 85 00 ea ff ff 	lea    -0x1600(%rbp),%rax
   11911:	48 83 c0 1c          	add    $0x1c,%rax
   11915:	48 89 85 08 f9 ff ff 	mov    %rax,-0x6f8(%rbp)
   1191c:	48 8d 85 00 ea ff ff 	lea    -0x1600(%rbp),%rax
   11923:	48 83 c0 1c          	add    $0x1c,%rax
   11927:	48 89 85 10 f9 ff ff 	mov    %rax,-0x6f0(%rbp)
   1192e:	48 8d 85 00 ea ff ff 	lea    -0x1600(%rbp),%rax
   11935:	48 89 85 18 f9 ff ff 	mov    %rax,-0x6e8(%rbp)
   1193c:	48 8d 85 b8 e4 ff ff 	lea    -0x1b48(%rbp),%rax
   11943:	48 89 85 20 f9 ff ff 	mov    %rax,-0x6e0(%rbp)
   1194a:	48 8d 05 23 e8 00 00 	lea    0xe823(%rip),%rax        # 20174 <g_18>
   11951:	48 89 85 28 f9 ff ff 	mov    %rax,-0x6d8(%rbp)
   11958:	48 8d 85 00 ea ff ff 	lea    -0x1600(%rbp),%rax
   1195f:	48 89 85 30 f9 ff ff 	mov    %rax,-0x6d0(%rbp)
   11966:	48 8d 05 07 e8 00 00 	lea    0xe807(%rip),%rax        # 20174 <g_18>
   1196d:	48 89 85 38 f9 ff ff 	mov    %rax,-0x6c8(%rbp)
   11974:	48 8d 85 00 ea ff ff 	lea    -0x1600(%rbp),%rax
   1197b:	48 89 85 40 f9 ff ff 	mov    %rax,-0x6c0(%rbp)
   11982:	48 c7 85 48 f9 ff ff 	movq   $0x0,-0x6b8(%rbp)
   11989:	00 00 00 00 
   1198d:	48 8d 85 80 e9 ff ff 	lea    -0x1680(%rbp),%rax
   11994:	48 83 c0 08          	add    $0x8,%rax
   11998:	48 89 85 50 f9 ff ff 	mov    %rax,-0x6b0(%rbp)
   1199f:	48 c7 85 58 f9 ff ff 	movq   $0x0,-0x6a8(%rbp)
   119a6:	00 00 00 00 
   119aa:	48 8d 85 00 ea ff ff 	lea    -0x1600(%rbp),%rax
   119b1:	48 89 85 60 f9 ff ff 	mov    %rax,-0x6a0(%rbp)
   119b8:	48 8d 85 80 e9 ff ff 	lea    -0x1680(%rbp),%rax
   119bf:	48 83 c0 08          	add    $0x8,%rax
   119c3:	48 89 85 68 f9 ff ff 	mov    %rax,-0x698(%rbp)
   119ca:	48 8d 85 00 ea ff ff 	lea    -0x1600(%rbp),%rax
   119d1:	48 83 c0 20          	add    $0x20,%rax
   119d5:	48 89 85 70 f9 ff ff 	mov    %rax,-0x690(%rbp)
   119dc:	48 8d 85 00 ea ff ff 	lea    -0x1600(%rbp),%rax
   119e3:	48 83 c0 20          	add    $0x20,%rax
   119e7:	48 89 85 78 f9 ff ff 	mov    %rax,-0x688(%rbp)
   119ee:	48 8d 05 7f e7 00 00 	lea    0xe77f(%rip),%rax        # 20174 <g_18>
   119f5:	48 89 85 80 f9 ff ff 	mov    %rax,-0x680(%rbp)
   119fc:	48 c7 85 88 f9 ff ff 	movq   $0x0,-0x678(%rbp)
   11a03:	00 00 00 00 
   11a07:	48 8d 85 b8 e4 ff ff 	lea    -0x1b48(%rbp),%rax
   11a0e:	48 89 85 90 f9 ff ff 	mov    %rax,-0x670(%rbp)
   11a15:	48 8d 85 b8 e4 ff ff 	lea    -0x1b48(%rbp),%rax
   11a1c:	48 89 85 98 f9 ff ff 	mov    %rax,-0x668(%rbp)
   11a23:	48 c7 85 a0 f9 ff ff 	movq   $0x0,-0x660(%rbp)
   11a2a:	00 00 00 00 
   11a2e:	48 8d 05 3f e7 00 00 	lea    0xe73f(%rip),%rax        # 20174 <g_18>
   11a35:	48 89 85 a8 f9 ff ff 	mov    %rax,-0x658(%rbp)
   11a3c:	48 8d 85 00 ea ff ff 	lea    -0x1600(%rbp),%rax
   11a43:	48 83 c0 1c          	add    $0x1c,%rax
   11a47:	48 89 85 b0 f9 ff ff 	mov    %rax,-0x650(%rbp)
   11a4e:	48 c7 85 b8 f9 ff ff 	movq   $0x0,-0x648(%rbp)
   11a55:	00 00 00 00 
   11a59:	48 8d 85 00 ea ff ff 	lea    -0x1600(%rbp),%rax
   11a60:	48 83 c0 20          	add    $0x20,%rax
   11a64:	48 89 85 c0 f9 ff ff 	mov    %rax,-0x640(%rbp)
   11a6b:	48 8d 85 00 ea ff ff 	lea    -0x1600(%rbp),%rax
   11a72:	48 83 c0 1c          	add    $0x1c,%rax
   11a76:	48 89 85 c8 f9 ff ff 	mov    %rax,-0x638(%rbp)
   11a7d:	48 8d 85 b8 e4 ff ff 	lea    -0x1b48(%rbp),%rax
   11a84:	48 89 85 d0 f9 ff ff 	mov    %rax,-0x630(%rbp)
   11a8b:	48 8d 85 00 ea ff ff 	lea    -0x1600(%rbp),%rax
   11a92:	48 83 c0 20          	add    $0x20,%rax
   11a96:	48 89 85 d8 f9 ff ff 	mov    %rax,-0x628(%rbp)
   11a9d:	48 8d 85 b8 e4 ff ff 	lea    -0x1b48(%rbp),%rax
   11aa4:	48 89 85 e0 f9 ff ff 	mov    %rax,-0x620(%rbp)
   11aab:	48 8d 85 00 ea ff ff 	lea    -0x1600(%rbp),%rax
   11ab2:	48 83 c0 1c          	add    $0x1c,%rax
   11ab6:	48 89 85 e8 f9 ff ff 	mov    %rax,-0x618(%rbp)
   11abd:	48 8d 85 00 ea ff ff 	lea    -0x1600(%rbp),%rax
   11ac4:	48 83 c0 20          	add    $0x20,%rax
   11ac8:	48 89 85 f0 f9 ff ff 	mov    %rax,-0x610(%rbp)
   11acf:	48 8d 05 9e e6 00 00 	lea    0xe69e(%rip),%rax        # 20174 <g_18>
   11ad6:	48 89 85 f8 f9 ff ff 	mov    %rax,-0x608(%rbp)
   11add:	48 c7 85 00 fa ff ff 	movq   $0x0,-0x600(%rbp)
   11ae4:	00 00 00 00 
   11ae8:	48 8d 85 00 ea ff ff 	lea    -0x1600(%rbp),%rax
   11aef:	48 89 85 08 fa ff ff 	mov    %rax,-0x5f8(%rbp)
   11af6:	48 8d 85 80 e9 ff ff 	lea    -0x1680(%rbp),%rax
   11afd:	48 83 c0 08          	add    $0x8,%rax
   11b01:	48 89 85 10 fa ff ff 	mov    %rax,-0x5f0(%rbp)
   11b08:	48 8d 85 00 ea ff ff 	lea    -0x1600(%rbp),%rax
   11b0f:	48 83 c0 20          	add    $0x20,%rax
   11b13:	48 89 85 18 fa ff ff 	mov    %rax,-0x5e8(%rbp)
   11b1a:	48 8d 85 00 ea ff ff 	lea    -0x1600(%rbp),%rax
   11b21:	48 83 c0 20          	add    $0x20,%rax
   11b25:	48 89 85 20 fa ff ff 	mov    %rax,-0x5e0(%rbp)
   11b2c:	48 8d 85 80 e9 ff ff 	lea    -0x1680(%rbp),%rax
   11b33:	48 83 c0 08          	add    $0x8,%rax
   11b37:	48 89 85 28 fa ff ff 	mov    %rax,-0x5d8(%rbp)
   11b3e:	48 8d 85 00 ea ff ff 	lea    -0x1600(%rbp),%rax
   11b45:	48 89 85 30 fa ff ff 	mov    %rax,-0x5d0(%rbp)
   11b4c:	48 c7 85 38 fa ff ff 	movq   $0x0,-0x5c8(%rbp)
   11b53:	00 00 00 00 
   11b57:	48 8d 05 16 e6 00 00 	lea    0xe616(%rip),%rax        # 20174 <g_18>
   11b5e:	48 89 85 40 fa ff ff 	mov    %rax,-0x5c0(%rbp)
   11b65:	48 8d 85 00 ea ff ff 	lea    -0x1600(%rbp),%rax
   11b6c:	48 83 c0 20          	add    $0x20,%rax
   11b70:	48 89 85 48 fa ff ff 	mov    %rax,-0x5b8(%rbp)
   11b77:	48 8d 85 00 ea ff ff 	lea    -0x1600(%rbp),%rax
   11b7e:	48 83 c0 1c          	add    $0x1c,%rax
   11b82:	48 89 85 50 fa ff ff 	mov    %rax,-0x5b0(%rbp)
   11b89:	48 8d 85 b8 e4 ff ff 	lea    -0x1b48(%rbp),%rax
   11b90:	48 89 85 58 fa ff ff 	mov    %rax,-0x5a8(%rbp)
   11b97:	48 8d 85 00 ea ff ff 	lea    -0x1600(%rbp),%rax
   11b9e:	48 83 c0 20          	add    $0x20,%rax
   11ba2:	48 89 85 60 fa ff ff 	mov    %rax,-0x5a0(%rbp)
   11ba9:	48 8d 85 b8 e4 ff ff 	lea    -0x1b48(%rbp),%rax
   11bb0:	48 89 85 68 fa ff ff 	mov    %rax,-0x598(%rbp)
   11bb7:	48 8d 85 00 ea ff ff 	lea    -0x1600(%rbp),%rax
   11bbe:	48 83 c0 1c          	add    $0x1c,%rax
   11bc2:	48 89 85 70 fa ff ff 	mov    %rax,-0x590(%rbp)
   11bc9:	48 8d 85 00 ea ff ff 	lea    -0x1600(%rbp),%rax
   11bd0:	48 83 c0 20          	add    $0x20,%rax
   11bd4:	48 89 85 78 fa ff ff 	mov    %rax,-0x588(%rbp)
   11bdb:	c7 85 f8 e4 ff ff 00 	movl   $0x0,-0x1b08(%rbp)
   11be2:	00 00 00 
   11be5:	eb 1a                	jmp    11c01 <func_116+0x3eb1>
   11be7:	8b 85 f8 e4 ff ff    	mov    -0x1b08(%rbp),%eax
   11bed:	48 98                	cltq   
   11bef:	c7 84 85 f0 ed ff ff 	movl   $0xd6a7aefc,-0x1210(%rbp,%rax,4)
   11bf6:	fc ae a7 d6 
   11bfa:	83 85 f8 e4 ff ff 01 	addl   $0x1,-0x1b08(%rbp)
   11c01:	83 bd f8 e4 ff ff 04 	cmpl   $0x4,-0x1b08(%rbp)
   11c08:	7e dd                	jle    11be7 <func_116+0x3e97>
   11c0a:	66 83 bd a6 e4 ff ff 	cmpw   $0x0,-0x1b5a(%rbp)
   11c11:	00 
   11c12:	0f 85 80 01 00 00    	jne    11d98 <func_116+0x4048>
   11c18:	0f bf 95 aa e4 ff ff 	movswl -0x1b56(%rbp),%edx
   11c1f:	8b 85 bc e4 ff ff    	mov    -0x1b44(%rbp),%eax
   11c25:	39 c2                	cmp    %eax,%edx
   11c27:	0f 9d c2             	setge  %dl
   11c2a:	48 8b 85 20 e6 ff ff 	mov    -0x19e0(%rbp),%rax
   11c31:	0f b6 d2             	movzbl %dl,%edx
   11c34:	66 89 10             	mov    %dx,(%rax)
   11c37:	0f b7 10             	movzwl (%rax),%edx
   11c3a:	48 83 bd 40 e8 ff ff 	cmpq   $0x0,-0x17c0(%rbp)
   11c41:	00 
   11c42:	0f 95 c0             	setne  %al
   11c45:	0f b6 c0             	movzbl %al,%eax
   11c48:	0f bf d2             	movswl %dx,%edx
   11c4b:	21 95 c4 e5 ff ff    	and    %edx,-0x1a3c(%rbp)
   11c51:	39 85 c4 e5 ff ff    	cmp    %eax,-0x1a3c(%rbp)
   11c57:	7c 0a                	jl     11c63 <func_116+0x3f13>
   11c59:	8b 85 7c e4 ff ff    	mov    -0x1b84(%rbp),%eax
   11c5f:	85 c0                	test   %eax,%eax
   11c61:	74 07                	je     11c6a <func_116+0x3f1a>
   11c63:	b9 01 00 00 00       	mov    $0x1,%ecx
   11c68:	eb 05                	jmp    11c6f <func_116+0x3f1f>
   11c6a:	b9 00 00 00 00       	mov    $0x0,%ecx
   11c6f:	48 8b 05 1a 51 01 00 	mov    0x1511a(%rip),%rax        # 26d90 <g_401>
   11c76:	8b 10                	mov    (%rax),%edx
   11c78:	09 ca                	or     %ecx,%edx
   11c7a:	89 10                	mov    %edx,(%rax)
   11c7c:	0f b6 85 93 e4 ff ff 	movzbl -0x1b6d(%rbp),%eax
   11c83:	83 c0 01             	add    $0x1,%eax
   11c86:	88 85 93 e4 ff ff    	mov    %al,-0x1b6d(%rbp)
   11c8c:	48 8b 85 18 eb ff ff 	mov    -0x14e8(%rbp),%rax
   11c93:	49 89 c4             	mov    %rax,%r12
   11c96:	48 8b 05 9b 51 01 00 	mov    0x1519b(%rip),%rax        # 26e38 <g_682>
   11c9d:	8b 18                	mov    (%rax),%ebx
   11c9f:	48 8b 05 ca 50 01 00 	mov    0x150ca(%rip),%rax        # 26d70 <g_255>
   11ca6:	0f b7 00             	movzwl (%rax),%eax
   11ca9:	89 c2                	mov    %eax,%edx
   11cab:	8b 85 7c e4 ff ff    	mov    -0x1b84(%rbp),%eax
   11cb1:	09 c2                	or     %eax,%edx
   11cb3:	48 8b 05 b6 50 01 00 	mov    0x150b6(%rip),%rax        # 26d70 <g_255>
   11cba:	66 89 10             	mov    %dx,(%rax)
   11cbd:	48 8b 85 e0 e5 ff ff 	mov    -0x1a20(%rbp),%rax
   11cc4:	c7 00 99 9f 00 00    	movl   $0x9f99,(%rax)
   11cca:	8b 00                	mov    (%rax),%eax
   11ccc:	89 85 b8 e4 ff ff    	mov    %eax,-0x1b48(%rbp)
   11cd2:	8b 85 b8 e4 ff ff    	mov    -0x1b48(%rbp),%eax
   11cd8:	0d e9 91 00 00       	or     $0x91e9,%eax
   11cdd:	48 63 d0             	movslq %eax,%rdx
   11ce0:	48 8b 85 08 ed ff ff 	mov    -0x12f8(%rbp),%rax
   11ce7:	48 39 c2             	cmp    %rax,%rdx
   11cea:	0f 9e c0             	setle  %al
   11ced:	0f b6 d0             	movzbl %al,%edx
   11cf0:	8b 85 b4 e4 ff ff    	mov    -0x1b4c(%rbp),%eax
   11cf6:	39 c2                	cmp    %eax,%edx
   11cf8:	8b 85 7c e4 ff ff    	mov    -0x1b84(%rbp),%eax
   11cfe:	48 98                	cltq   
   11d00:	48 89 c7             	mov    %rax,%rdi
   11d03:	e8 11 53 ff ff       	callq  7019 <safe_unary_minus_func_uint64_t_u>
   11d08:	0f be c0             	movsbl %al,%eax
   11d0b:	be 00 00 00 00       	mov    $0x0,%esi
   11d10:	89 c7                	mov    %eax,%edi
   11d12:	e8 55 46 ff ff       	callq  636c <safe_rshift_func_int8_t_s_u>
   11d17:	0f be c0             	movsbl %al,%eax
   11d1a:	be 34 2a 00 00       	mov    $0x2a34,%esi
   11d1f:	89 c7                	mov    %eax,%edi
   11d21:	e8 04 48 ff ff       	callq  652a <safe_rshift_func_int16_t_s_s>
   11d26:	98                   	cwtl   
   11d27:	83 f0 f7             	xor    $0xfffffff7,%eax
   11d2a:	89 de                	mov    %ebx,%esi
   11d2c:	89 c7                	mov    %eax,%edi
   11d2e:	e8 85 51 ff ff       	callq  6eb8 <safe_add_func_uint32_t_u_u>
   11d33:	83 f8 09             	cmp    $0x9,%eax
   11d36:	0f 94 c0             	sete   %al
   11d39:	0f b6 d0             	movzbl %al,%edx
   11d3c:	0f b7 85 a6 e4 ff ff 	movzwl -0x1b5a(%rbp),%eax
   11d43:	39 c2                	cmp    %eax,%edx
   11d45:	0f 9e c0             	setle  %al
   11d48:	0f b6 c0             	movzbl %al,%eax
   11d4b:	be ff ff ff ff       	mov    $0xffffffff,%esi
   11d50:	89 c7                	mov    %eax,%edi
   11d52:	e8 79 51 ff ff       	callq  6ed0 <safe_sub_func_uint32_t_u_u>
   11d57:	89 c0                	mov    %eax,%eax
   11d59:	4c 89 e6             	mov    %r12,%rsi
   11d5c:	48 89 c7             	mov    %rax,%rdi
   11d5f:	e8 93 4c ff ff       	callq  69f7 <safe_div_func_int64_t_s_s>
   11d64:	88 05 22 e9 00 00    	mov    %al,0xe922(%rip)        # 2068c <g_385+0xc>
   11d6a:	8b 85 ac e5 ff ff    	mov    -0x1a54(%rbp),%eax
   11d70:	89 85 00 e5 ff ff    	mov    %eax,-0x1b00(%rbp)
   11d76:	0f b7 05 73 e7 00 00 	movzwl 0xe773(%rip),%eax        # 204f0 <g_360>
   11d7d:	83 c0 01             	add    $0x1,%eax
   11d80:	66 89 05 69 e7 00 00 	mov    %ax,0xe769(%rip)        # 204f0 <g_360>
   11d87:	0f b7 05 62 e7 00 00 	movzwl 0xe762(%rip),%eax        # 204f0 <g_360>
   11d8e:	66 83 f8 1f          	cmp    $0x1f,%ax
   11d92:	0f 86 fc d6 ff ff    	jbe    f494 <func_116+0x1744>
   11d98:	48 8b 05 89 50 01 00 	mov    0x15089(%rip),%rax        # 26e28 <g_606>
   11d9f:	0f b6 00             	movzbl (%rax),%eax
   11da2:	0f b6 d8             	movzbl %al,%ebx
   11da5:	be c9 ff ff ff       	mov    $0xffffffc9,%esi
   11daa:	bf 01 00 00 00       	mov    $0x1,%edi
   11daf:	e8 5e 44 ff ff       	callq  6212 <safe_mul_func_int8_t_s_s>
   11db4:	48 8b 05 5d 50 01 00 	mov    0x1505d(%rip),%rax        # 26e18 <g_556>
   11dbb:	0f b6 00             	movzbl (%rax),%eax
   11dbe:	0f b6 c0             	movzbl %al,%eax
   11dc1:	89 de                	mov    %ebx,%esi
   11dc3:	89 c7                	mov    %eax,%edi
   11dc5:	e8 c9 4d ff ff       	callq  6b93 <safe_mul_func_uint8_t_u_u>
   11dca:	84 c0                	test   %al,%al
   11dcc:	74 07                	je     11dd5 <func_116+0x4085>
   11dce:	ba 01 00 00 00       	mov    $0x1,%edx
   11dd3:	eb 05                	jmp    11dda <func_116+0x408a>
   11dd5:	ba 00 00 00 00       	mov    $0x0,%edx
   11dda:	8b 85 b4 e4 ff ff    	mov    -0x1b4c(%rbp),%eax
   11de0:	31 d0                	xor    %edx,%eax
   11de2:	89 85 b4 e4 ff ff    	mov    %eax,-0x1b4c(%rbp)
   11de8:	0f b7 05 03 e7 00 00 	movzwl 0xe703(%rip),%eax        # 204f2 <g_361>
   11def:	0f b6 d8             	movzbl %al,%ebx
   11df2:	8b 85 bc e4 ff ff    	mov    -0x1b44(%rbp),%eax
   11df8:	4c 63 e0             	movslq %eax,%r12
   11dfb:	48 8b 85 68 e4 ff ff 	mov    -0x1b98(%rbp),%rax
   11e02:	44 0f b7 e8          	movzwl %ax,%r13d
   11e06:	8b 85 7c e4 ff ff    	mov    -0x1b84(%rbp),%eax
   11e0c:	4c 63 f0             	movslq %eax,%r14
   11e0f:	48 8b 85 68 e4 ff ff 	mov    -0x1b98(%rbp),%rax
   11e16:	44 0f b7 f8          	movzwl %ax,%r15d
   11e1a:	8b 85 7c e4 ff ff    	mov    -0x1b84(%rbp),%eax
   11e20:	48 98                	cltq   
   11e22:	48 89 85 60 e4 ff ff 	mov    %rax,-0x1ba0(%rbp)
   11e29:	48 8b 05 e8 4f 01 00 	mov    0x14fe8(%rip),%rax        # 26e18 <g_556>
   11e30:	0f b6 00             	movzbl (%rax),%eax
   11e33:	0f b6 c8             	movzbl %al,%ecx
   11e36:	89 8d 78 e4 ff ff    	mov    %ecx,-0x1b88(%rbp)
   11e3c:	48 8b 05 2d 4f 01 00 	mov    0x14f2d(%rip),%rax        # 26d70 <g_255>
   11e43:	0f b7 00             	movzwl (%rax),%eax
   11e46:	0f bf f8             	movswl %ax,%edi
   11e49:	89 bd 5c e4 ff ff    	mov    %edi,-0x1ba4(%rbp)
   11e4f:	48 8b 85 68 e4 ff ff 	mov    -0x1b98(%rbp),%rax
   11e56:	0f be d0             	movsbl %al,%edx
   11e59:	89 95 58 e4 ff ff    	mov    %edx,-0x1ba8(%rbp)
   11e5f:	48 8b 85 e0 e5 ff ff 	mov    -0x1a20(%rbp),%rax
   11e66:	8b 00                	mov    (%rax),%eax
   11e68:	f7 d0                	not    %eax
   11e6a:	c1 e8 1f             	shr    $0x1f,%eax
   11e6d:	0f b6 d0             	movzbl %al,%edx
   11e70:	8b 85 b8 e4 ff ff    	mov    -0x1b48(%rbp),%eax
   11e76:	09 d0                	or     %edx,%eax
   11e78:	89 c7                	mov    %eax,%edi
   11e7a:	e8 27 50 ff ff       	callq  6ea6 <safe_unary_minus_func_uint32_t_u>
   11e7f:	0f be c0             	movsbl %al,%eax
   11e82:	8b b5 58 e4 ff ff    	mov    -0x1ba8(%rbp),%esi
   11e88:	89 c7                	mov    %eax,%edi
   11e8a:	e8 83 43 ff ff       	callq  6212 <safe_mul_func_int8_t_s_s>
   11e8f:	0f be c0             	movsbl %al,%eax
   11e92:	8b b5 5c e4 ff ff    	mov    -0x1ba4(%rbp),%esi
   11e98:	89 c7                	mov    %eax,%edi
   11e9a:	e8 56 45 ff ff       	callq  63f5 <safe_mul_func_int16_t_s_s>
   11e9f:	0f b6 c0             	movzbl %al,%eax
   11ea2:	8b b5 78 e4 ff ff    	mov    -0x1b88(%rbp),%esi
   11ea8:	89 c7                	mov    %eax,%edi
   11eaa:	e8 0f 4e ff ff       	callq  6cbe <safe_rshift_func_uint8_t_u_u>
   11eaf:	48 8b 95 98 e6 ff ff 	mov    -0x1968(%rbp),%rdx
   11eb6:	48 8b 12             	mov    (%rdx),%rdx
   11eb9:	0f b6 c0             	movzbl %al,%eax
   11ebc:	48 31 c2             	xor    %rax,%rdx
   11ebf:	48 8b 85 98 e6 ff ff 	mov    -0x1968(%rbp),%rax
   11ec6:	48 89 10             	mov    %rdx,(%rax)
   11ec9:	48 8b 85 98 e6 ff ff 	mov    -0x1968(%rbp),%rax
   11ed0:	48 8b 00             	mov    (%rax),%rax
   11ed3:	48 8b b5 60 e4 ff ff 	mov    -0x1ba0(%rbp),%rsi
   11eda:	48 89 c7             	mov    %rax,%rdi
   11edd:	e8 9e 51 ff ff       	callq  7080 <safe_mod_func_uint64_t_u_u>
   11ee2:	44 89 fe             	mov    %r15d,%esi
   11ee5:	bf 3d e1 00 00       	mov    $0xe13d,%edi
   11eea:	e8 10 4e ff ff       	callq  6cff <safe_add_func_uint16_t_u_u>
   11eef:	0f b6 c0             	movzbl %al,%eax
   11ef2:	8b 95 88 e9 ff ff    	mov    -0x1678(%rbp),%edx
   11ef8:	0f b6 d2             	movzbl %dl,%edx
   11efb:	81 e2 fb 00 00 00    	and    $0xfb,%edx
   11f01:	89 c6                	mov    %eax,%esi
   11f03:	89 d7                	mov    %edx,%edi
   11f05:	e8 50 4c ff ff       	callq  6b5a <safe_add_func_uint8_t_u_u>
   11f0a:	0f b6 c0             	movzbl %al,%eax
   11f0d:	4c 89 f6             	mov    %r14,%rsi
   11f10:	48 89 c7             	mov    %rax,%rdi
   11f13:	e8 16 51 ff ff       	callq  702e <safe_add_func_uint64_t_u_u>
   11f18:	8b 95 7c e4 ff ff    	mov    -0x1b84(%rbp),%edx
   11f1e:	48 63 d2             	movslq %edx,%rdx
   11f21:	48 39 d0             	cmp    %rdx,%rax
   11f24:	0f 93 c0             	setae  %al
   11f27:	0f b6 c0             	movzbl %al,%eax
   11f2a:	44 89 ee             	mov    %r13d,%esi
   11f2d:	89 c7                	mov    %eax,%edi
   11f2f:	e8 09 4e ff ff       	callq  6d3d <safe_mul_func_uint16_t_u_u>
   11f34:	66 c7 05 43 eb 00 00 	movw   $0x1,0xeb43(%rip)        # 20a80 <g_870>
   11f3b:	01 00 
   11f3d:	0f b7 05 3c eb 00 00 	movzwl 0xeb3c(%rip),%eax        # 20a80 <g_870>
   11f44:	0f b7 c0             	movzwl %ax,%eax
   11f47:	4c 89 e6             	mov    %r12,%rsi
   11f4a:	48 89 c7             	mov    %rax,%rdi
   11f4d:	e8 2e 51 ff ff       	callq  7080 <safe_mod_func_uint64_t_u_u>
   11f52:	48 85 c0             	test   %rax,%rax
   11f55:	0f 94 c0             	sete   %al
   11f58:	0f b6 c0             	movzbl %al,%eax
   11f5b:	89 de                	mov    %ebx,%esi
   11f5d:	89 c7                	mov    %eax,%edi
   11f5f:	e8 2f 4c ff ff       	callq  6b93 <safe_mul_func_uint8_t_u_u>
   11f64:	0f b6 c0             	movzbl %al,%eax
   11f67:	39 85 00 e5 ff ff    	cmp    %eax,-0x1b00(%rbp)
   11f6d:	0f 94 c0             	sete   %al
   11f70:	0f b6 d8             	movzbl %al,%ebx
   11f73:	48 8b 85 e0 e5 ff ff 	mov    -0x1a20(%rbp),%rax
   11f7a:	8b 00                	mov    (%rax),%eax
   11f7c:	98                   	cwtl   
   11f7d:	be 04 00 00 00       	mov    $0x4,%esi
   11f82:	89 c7                	mov    %eax,%edi
   11f84:	e8 a1 45 ff ff       	callq  652a <safe_rshift_func_int16_t_s_s>
   11f89:	0f b7 c0             	movzwl %ax,%eax
   11f8c:	89 de                	mov    %ebx,%esi
   11f8e:	89 c7                	mov    %eax,%edi
   11f90:	e8 8a 4d ff ff       	callq  6d1f <safe_sub_func_uint16_t_u_u>
   11f95:	66 85 c0             	test   %ax,%ax
   11f98:	74 16                	je     11fb0 <func_116+0x4260>
   11f9a:	48 8b 05 0f 4f 01 00 	mov    0x14f0f(%rip),%rax        # 26eb0 <g_871>
   11fa1:	48 8b 95 b0 ea ff ff 	mov    -0x1550(%rbp),%rdx
   11fa8:	48 89 10             	mov    %rdx,(%rax)
   11fab:	e9 37 04 00 00       	jmpq   123e7 <func_116+0x4697>
   11fb0:	48 8d 85 e0 e5 ff ff 	lea    -0x1a20(%rbp),%rax
   11fb7:	48 89 85 60 e9 ff ff 	mov    %rax,-0x16a0(%rbp)
   11fbe:	48 8b b5 d0 e5 ff ff 	mov    -0x1a30(%rbp),%rsi
   11fc5:	48 8b 8d d0 e5 ff ff 	mov    -0x1a30(%rbp),%rcx
   11fcc:	48 8b 06             	mov    (%rsi),%rax
   11fcf:	48 8b 56 08          	mov    0x8(%rsi),%rdx
   11fd3:	48 89 01             	mov    %rax,(%rcx)
   11fd6:	48 89 51 08          	mov    %rdx,0x8(%rcx)
   11fda:	8b 46 10             	mov    0x10(%rsi),%eax
   11fdd:	89 41 10             	mov    %eax,0x10(%rcx)
   11fe0:	48 8b 85 60 e9 ff ff 	mov    -0x16a0(%rbp),%rax
   11fe7:	48 8b 95 70 e4 ff ff 	mov    -0x1b90(%rbp),%rdx
   11fee:	48 89 10             	mov    %rdx,(%rax)
   11ff1:	e9 f1 03 00 00       	jmpq   123e7 <func_116+0x4697>
   11ff6:	66 c7 85 a2 e4 ff ff 	movw   $0x34df,-0x1b5e(%rbp)
   11ffd:	df 34 
   11fff:	48 b8 15 ea 03 1d 13 	movabs $0xa353bb131d03ea15,%rax
   12006:	bb 53 a3 
   12009:	48 89 85 90 e8 ff ff 	mov    %rax,-0x1770(%rbp)
   12010:	66 c7 05 d1 e4 00 00 	movw   $0xb,0xe4d1(%rip)        # 204ea <g_356>
   12017:	0b 00 
   12019:	e9 94 03 00 00       	jmpq   123b2 <func_116+0x4662>
   1201e:	66 c7 85 a4 e4 ff ff 	movw   $0xe80b,-0x1b5c(%rbp)
   12025:	0b e8 
   12027:	48 8d 85 18 e6 ff ff 	lea    -0x19e8(%rbp),%rax
   1202e:	48 89 85 40 f8 ff ff 	mov    %rax,-0x7c0(%rbp)
   12035:	48 8d 85 08 e6 ff ff 	lea    -0x19f8(%rbp),%rax
   1203c:	48 89 85 48 f8 ff ff 	mov    %rax,-0x7b8(%rbp)
   12043:	48 8d 85 18 e6 ff ff 	lea    -0x19e8(%rbp),%rax
   1204a:	48 89 85 50 f8 ff ff 	mov    %rax,-0x7b0(%rbp)
   12051:	48 c7 85 58 f8 ff ff 	movq   $0x0,-0x7a8(%rbp)
   12058:	00 00 00 00 
   1205c:	48 8d 85 08 e6 ff ff 	lea    -0x19f8(%rbp),%rax
   12063:	48 89 85 60 f8 ff ff 	mov    %rax,-0x7a0(%rbp)
   1206a:	48 8d 85 00 e6 ff ff 	lea    -0x1a00(%rbp),%rax
   12071:	48 89 85 68 f8 ff ff 	mov    %rax,-0x798(%rbp)
   12078:	48 8d 85 08 e6 ff ff 	lea    -0x19f8(%rbp),%rax
   1207f:	48 89 85 70 f8 ff ff 	mov    %rax,-0x790(%rbp)
   12086:	48 c7 85 78 f8 ff ff 	movq   $0x0,-0x788(%rbp)
   1208d:	00 00 00 00 
   12091:	48 8d 85 08 e6 ff ff 	lea    -0x19f8(%rbp),%rax
   12098:	48 89 85 80 f8 ff ff 	mov    %rax,-0x780(%rbp)
   1209f:	48 8d 85 00 e6 ff ff 	lea    -0x1a00(%rbp),%rax
   120a6:	48 89 85 88 f8 ff ff 	mov    %rax,-0x778(%rbp)
   120ad:	48 8d 85 18 e6 ff ff 	lea    -0x19e8(%rbp),%rax
   120b4:	48 89 85 90 f8 ff ff 	mov    %rax,-0x770(%rbp)
   120bb:	48 8d 85 18 e6 ff ff 	lea    -0x19e8(%rbp),%rax
   120c2:	48 89 85 98 f8 ff ff 	mov    %rax,-0x768(%rbp)
   120c9:	48 8d 85 18 e6 ff ff 	lea    -0x19e8(%rbp),%rax
   120d0:	48 89 85 a0 f8 ff ff 	mov    %rax,-0x760(%rbp)
   120d7:	48 c7 85 a8 f8 ff ff 	movq   $0x0,-0x758(%rbp)
   120de:	00 00 00 00 
   120e2:	48 8d 85 18 e6 ff ff 	lea    -0x19e8(%rbp),%rax
   120e9:	48 89 85 b0 f8 ff ff 	mov    %rax,-0x750(%rbp)
   120f0:	48 c7 85 b8 f8 ff ff 	movq   $0x0,-0x748(%rbp)
   120f7:	00 00 00 00 
   120fb:	48 c7 85 c0 f8 ff ff 	movq   $0x0,-0x740(%rbp)
   12102:	00 00 00 00 
   12106:	48 c7 85 c8 f8 ff ff 	movq   $0x0,-0x738(%rbp)
   1210d:	00 00 00 00 
   12111:	48 8d 85 00 e6 ff ff 	lea    -0x1a00(%rbp),%rax
   12118:	48 89 85 d0 f8 ff ff 	mov    %rax,-0x730(%rbp)
   1211f:	48 8d 85 08 e6 ff ff 	lea    -0x19f8(%rbp),%rax
   12126:	48 89 85 d8 f8 ff ff 	mov    %rax,-0x728(%rbp)
   1212d:	48 8d 85 18 e6 ff ff 	lea    -0x19e8(%rbp),%rax
   12134:	48 89 85 e0 f8 ff ff 	mov    %rax,-0x720(%rbp)
   1213b:	48 8d 85 18 e6 ff ff 	lea    -0x19e8(%rbp),%rax
   12142:	48 89 85 e8 f8 ff ff 	mov    %rax,-0x718(%rbp)
   12149:	48 8d 85 18 e6 ff ff 	lea    -0x19e8(%rbp),%rax
   12150:	48 89 85 f0 f8 ff ff 	mov    %rax,-0x710(%rbp)
   12157:	48 8d 85 18 e6 ff ff 	lea    -0x19e8(%rbp),%rax
   1215e:	48 89 85 f8 f8 ff ff 	mov    %rax,-0x708(%rbp)
   12165:	48 8d 85 18 e6 ff ff 	lea    -0x19e8(%rbp),%rax
   1216c:	48 89 85 00 f9 ff ff 	mov    %rax,-0x700(%rbp)
   12173:	48 8d 85 08 e6 ff ff 	lea    -0x19f8(%rbp),%rax
   1217a:	48 89 85 08 f9 ff ff 	mov    %rax,-0x6f8(%rbp)
   12181:	48 8d 85 00 e6 ff ff 	lea    -0x1a00(%rbp),%rax
   12188:	48 89 85 10 f9 ff ff 	mov    %rax,-0x6f0(%rbp)
   1218f:	48 8d 85 00 e6 ff ff 	lea    -0x1a00(%rbp),%rax
   12196:	48 89 85 18 f9 ff ff 	mov    %rax,-0x6e8(%rbp)
   1219d:	48 8d 85 00 e6 ff ff 	lea    -0x1a00(%rbp),%rax
   121a4:	48 89 85 20 f9 ff ff 	mov    %rax,-0x6e0(%rbp)
   121ab:	48 8d 85 00 e6 ff ff 	lea    -0x1a00(%rbp),%rax
   121b2:	48 89 85 28 f9 ff ff 	mov    %rax,-0x6d8(%rbp)
   121b9:	48 8d 85 18 e6 ff ff 	lea    -0x19e8(%rbp),%rax
   121c0:	48 89 85 30 f9 ff ff 	mov    %rax,-0x6d0(%rbp)
   121c7:	48 8d 85 18 e6 ff ff 	lea    -0x19e8(%rbp),%rax
   121ce:	48 89 85 38 f9 ff ff 	mov    %rax,-0x6c8(%rbp)
   121d5:	48 8d 85 08 e6 ff ff 	lea    -0x19f8(%rbp),%rax
   121dc:	48 89 85 40 f9 ff ff 	mov    %rax,-0x6c0(%rbp)
   121e3:	48 8d 85 08 e6 ff ff 	lea    -0x19f8(%rbp),%rax
   121ea:	48 89 85 48 f9 ff ff 	mov    %rax,-0x6b8(%rbp)
   121f1:	48 8d 85 08 e6 ff ff 	lea    -0x19f8(%rbp),%rax
   121f8:	48 89 85 50 f9 ff ff 	mov    %rax,-0x6b0(%rbp)
   121ff:	48 8d 85 08 e6 ff ff 	lea    -0x19f8(%rbp),%rax
   12206:	48 89 85 58 f9 ff ff 	mov    %rax,-0x6a8(%rbp)
   1220d:	48 c7 85 60 f9 ff ff 	movq   $0x0,-0x6a0(%rbp)
   12214:	00 00 00 00 
   12218:	48 8d 85 08 e6 ff ff 	lea    -0x19f8(%rbp),%rax
   1221f:	48 89 85 68 f9 ff ff 	mov    %rax,-0x698(%rbp)
   12226:	48 8d 85 00 e6 ff ff 	lea    -0x1a00(%rbp),%rax
   1222d:	48 89 85 70 f9 ff ff 	mov    %rax,-0x690(%rbp)
   12234:	48 c7 85 78 f9 ff ff 	movq   $0x0,-0x688(%rbp)
   1223b:	00 00 00 00 
   1223f:	48 c7 85 80 f9 ff ff 	movq   $0x0,-0x680(%rbp)
   12246:	00 00 00 00 
   1224a:	48 8d 85 18 e6 ff ff 	lea    -0x19e8(%rbp),%rax
   12251:	48 89 85 88 f9 ff ff 	mov    %rax,-0x678(%rbp)
   12258:	48 8d 85 08 e6 ff ff 	lea    -0x19f8(%rbp),%rax
   1225f:	48 89 85 90 f9 ff ff 	mov    %rax,-0x670(%rbp)
   12266:	48 8d 85 18 e6 ff ff 	lea    -0x19e8(%rbp),%rax
   1226d:	48 89 85 98 f9 ff ff 	mov    %rax,-0x668(%rbp)
   12274:	48 c7 85 a0 f9 ff ff 	movq   $0x0,-0x660(%rbp)
   1227b:	00 00 00 00 
   1227f:	c7 85 a8 e5 ff ff 22 	movl   $0x54e47222,-0x1a58(%rbp)
   12286:	72 e4 54 
   12289:	48 8b 85 e0 e5 ff ff 	mov    -0x1a20(%rbp),%rax
   12290:	8b 08                	mov    (%rax),%ecx
   12292:	0f bf 95 a2 e4 ff ff 	movswl -0x1b5e(%rbp),%edx
   12299:	48 8b 85 e0 e5 ff ff 	mov    -0x1a20(%rbp),%rax
   122a0:	09 ca                	or     %ecx,%edx
   122a2:	89 10                	mov    %edx,(%rax)
   122a4:	c7 05 b6 e7 00 00 00 	movl   $0x0,0xe7b6(%rip)        # 20a64 <g_640+0x4>
   122ab:	00 00 00 
   122ae:	90                   	nop
   122af:	8b 05 af e7 00 00    	mov    0xe7af(%rip),%eax        # 20a64 <g_640+0x4>
   122b5:	83 f8 01             	cmp    $0x1,%eax
   122b8:	77 0d                	ja     122c7 <func_116+0x4577>
   122ba:	8b 05 84 e7 00 00    	mov    0xe784(%rip),%eax        # 20a44 <g_639+0x4>
   122c0:	89 c0                	mov    %eax,%eax
   122c2:	e9 4c 2d 00 00       	jmpq   15013 <func_116+0x72c3>
   122c7:	48 8b 05 5a 4b 01 00 	mov    0x14b5a(%rip),%rax        # 26e28 <g_606>
   122ce:	0f b6 00             	movzbl (%rax),%eax
   122d1:	0f b6 d8             	movzbl %al,%ebx
   122d4:	8b 85 7c e4 ff ff    	mov    -0x1b84(%rbp),%eax
   122da:	3d 57 4c 00 00       	cmp    $0x4c57,%eax
   122df:	0f 8f 89 00 00 00    	jg     1236e <func_116+0x461e>
   122e5:	48 8d 05 bc de 00 00 	lea    0xdebc(%rip),%rax        # 201a8 <g_43>
   122ec:	48 39 85 70 e4 ff ff 	cmp    %rax,-0x1b90(%rbp)
   122f3:	0f 94 c0             	sete   %al
   122f6:	0f b6 d0             	movzbl %al,%edx
   122f9:	48 8b 05 18 4b 01 00 	mov    0x14b18(%rip),%rax        # 26e18 <g_556>
   12300:	0f b6 00             	movzbl (%rax),%eax
   12303:	0f b6 c0             	movzbl %al,%eax
   12306:	89 d6                	mov    %edx,%esi
   12308:	89 c7                	mov    %eax,%edi
   1230a:	e8 84 48 ff ff       	callq  6b93 <safe_mul_func_uint8_t_u_u>
   1230f:	66 83 bd a4 e4 ff ff 	cmpw   $0x0,-0x1b5c(%rbp)
   12316:	00 
   12317:	74 3e                	je     12357 <func_116+0x4607>
   12319:	48 8b 85 90 e8 ff ff 	mov    -0x1770(%rbp),%rax
   12320:	44 0f bf e0          	movswl %ax,%r12d
   12324:	48 8b 05 9d 4b 01 00 	mov    0x14b9d(%rip),%rax        # 26ec8 <g_891>
   1232b:	48 85 c0             	test   %rax,%rax
   1232e:	0f 94 c0             	sete   %al
   12331:	0f b6 c0             	movzbl %al,%eax
   12334:	be 05 00 00 00       	mov    $0x5,%esi
   12339:	89 c7                	mov    %eax,%edi
   1233b:	e8 bf 43 ff ff       	callq  66ff <safe_div_func_int32_t_s_s>
   12340:	98                   	cwtl   
   12341:	44 89 e6             	mov    %r12d,%esi
   12344:	89 c7                	mov    %eax,%edi
   12346:	e8 aa 40 ff ff       	callq  63f5 <safe_mul_func_int16_t_s_s>
   1234b:	66 85 c0             	test   %ax,%ax
   1234e:	74 07                	je     12357 <func_116+0x4607>
   12350:	b8 01 00 00 00       	mov    $0x1,%eax
   12355:	eb 05                	jmp    1235c <func_116+0x460c>
   12357:	b8 00 00 00 00       	mov    $0x0,%eax
   1235c:	85 c0                	test   %eax,%eax
   1235e:	0f 9f c2             	setg   %dl
   12361:	48 8b 85 20 e6 ff ff 	mov    -0x19e0(%rbp),%rax
   12368:	0f b6 d2             	movzbl %dl,%edx
   1236b:	66 89 10             	mov    %dx,(%rax)
   1236e:	b8 01 00 00 00       	mov    $0x1,%eax
   12373:	0f b6 c0             	movzbl %al,%eax
   12376:	89 de                	mov    %ebx,%esi
   12378:	89 c7                	mov    %eax,%edi
   1237a:	e8 5c 48 ff ff       	callq  6bdb <safe_div_func_uint8_t_u_u>
   1237f:	0f b7 85 a4 e4 ff ff 	movzwl -0x1b5c(%rbp),%eax
   12386:	89 85 a8 e5 ff ff    	mov    %eax,-0x1a58(%rbp)
   1238c:	48 8b 85 e0 e5 ff ff 	mov    -0x1a20(%rbp),%rax
   12393:	8b 10                	mov    (%rax),%edx
   12395:	48 8b 85 e0 e5 ff ff 	mov    -0x1a20(%rbp),%rax
   1239c:	83 e2 06             	and    $0x6,%edx
   1239f:	89 10                	mov    %edx,(%rax)
   123a1:	0f b7 05 42 e1 00 00 	movzwl 0xe142(%rip),%eax        # 204ea <g_356>
   123a8:	83 c0 01             	add    $0x1,%eax
   123ab:	66 89 05 38 e1 00 00 	mov    %ax,0xe138(%rip)        # 204ea <g_356>
   123b2:	0f b7 05 31 e1 00 00 	movzwl 0xe131(%rip),%eax        # 204ea <g_356>
   123b9:	66 83 f8 19          	cmp    $0x19,%ax
   123bd:	0f 87 5b fc ff ff    	ja     1201e <func_116+0x42ce>
   123c3:	48 8b 85 90 e8 ff ff 	mov    -0x1770(%rbp),%rax
   123ca:	0f b6 c0             	movzbl %al,%eax
   123cd:	be 05 00 00 00       	mov    $0x5,%esi
   123d2:	89 c7                	mov    %eax,%edi
   123d4:	e8 73 48 ff ff       	callq  6c4c <safe_lshift_func_uint8_t_u_u>
   123d9:	89 c2                	mov    %eax,%edx
   123db:	48 8b 85 e0 e5 ff ff 	mov    -0x1a20(%rbp),%rax
   123e2:	0f b6 d2             	movzbl %dl,%edx
   123e5:	89 10                	mov    %edx,(%rax)
   123e7:	0f bf 95 a0 e4 ff ff 	movswl -0x1b60(%rbp),%edx
   123ee:	48 8b 85 48 e8 ff ff 	mov    -0x17b8(%rbp),%rax
   123f5:	89 10                	mov    %edx,(%rax)
   123f7:	e9 10 2c 00 00       	jmpq   1500c <func_116+0x72bc>
   123fc:	48 c7 85 b0 e6 ff ff 	movq   $0x0,-0x1950(%rbp)
   12403:	00 00 00 00 
   12407:	48 8d 85 d0 e5 ff ff 	lea    -0x1a30(%rbp),%rax
   1240e:	48 89 85 28 e6 ff ff 	mov    %rax,-0x19d8(%rbp)
   12415:	48 8d 85 28 e6 ff ff 	lea    -0x19d8(%rbp),%rax
   1241c:	48 89 85 b8 e6 ff ff 	mov    %rax,-0x1948(%rbp)
   12423:	c7 85 10 e6 ff ff df 	movl   $0xce94b2df,-0x19f0(%rbp)
   1242a:	b2 94 ce 
   1242d:	48 8d 05 9c 4a 01 00 	lea    0x14a9c(%rip),%rax        # 26ed0 <g_907>
   12434:	48 89 85 c0 e6 ff ff 	mov    %rax,-0x1940(%rbp)
   1243b:	48 8d 45 c5          	lea    -0x3b(%rbp),%rax
   1243f:	48 83 c0 01          	add    $0x1,%rax
   12443:	48 89 85 c8 e6 ff ff 	mov    %rax,-0x1938(%rbp)
   1244a:	c7 85 18 e6 ff ff 01 	movl   $0x1,-0x19e8(%rbp)
   12451:	00 00 00 
   12454:	c7 85 00 ed ff ff 0e 	movl   $0xedb4170e,-0x1300(%rbp)
   1245b:	17 b4 ed 
   1245e:	c7 85 04 ed ff ff c2 	movl   $0x8c50f2c2,-0x12fc(%rbp)
   12465:	f2 50 8c 
   12468:	c7 85 08 ed ff ff 0e 	movl   $0xedb4170e,-0x12f8(%rbp)
   1246f:	17 b4 ed 
   12472:	c7 85 0c ed ff ff c2 	movl   $0x8c50f2c2,-0x12f4(%rbp)
   12479:	f2 50 8c 
   1247c:	c7 85 10 ed ff ff 0e 	movl   $0xedb4170e,-0x12f0(%rbp)
   12483:	17 b4 ed 
   12486:	c7 85 14 ed ff ff c2 	movl   $0x8c50f2c2,-0x12ec(%rbp)
   1248d:	f2 50 8c 
   12490:	c7 85 18 ed ff ff 0e 	movl   $0xedb4170e,-0x12e8(%rbp)
   12497:	17 b4 ed 
   1249a:	c7 85 1c ed ff ff c2 	movl   $0x8c50f2c2,-0x12e4(%rbp)
   124a1:	f2 50 8c 
   124a4:	48 8d 05 d5 e1 00 00 	lea    0xe1d5(%rip),%rax        # 20680 <g_385>
   124ab:	48 89 85 d0 e6 ff ff 	mov    %rax,-0x1930(%rbp)
   124b2:	48 8d 05 07 4a 01 00 	lea    0x14a07(%rip),%rax        # 26ec0 <g_892>
   124b9:	48 89 85 d8 e6 ff ff 	mov    %rax,-0x1928(%rbp)
   124c0:	c7 85 08 e5 ff ff 31 	movl   $0xd2862031,-0x1af8(%rbp)
   124c7:	20 86 d2 
   124ca:	c7 85 0c e5 ff ff 97 	movl   $0x797f9697,-0x1af4(%rbp)
   124d1:	96 7f 79 
   124d4:	48 c7 85 e0 e6 ff ff 	movq   $0x0,-0x1920(%rbp)
   124db:	00 00 00 00 
   124df:	48 c7 85 e8 e6 ff ff 	movq   $0x0,-0x1918(%rbp)
   124e6:	00 00 00 00 
   124ea:	48 8d 05 cb e1 00 00 	lea    0xe1cb(%rip),%rax        # 206bc <g_459>
   124f1:	48 89 85 f0 e6 ff ff 	mov    %rax,-0x1910(%rbp)
   124f8:	48 c7 85 f8 e6 ff ff 	movq   $0x0,-0x1908(%rbp)
   124ff:	00 00 00 00 
   12503:	66 c7 85 9a e4 ff ff 	movw   $0x1,-0x1b66(%rbp)
   1250a:	01 00 
   1250c:	48 c7 85 30 e6 ff ff 	movq   $0x0,-0x19d0(%rbp)
   12513:	00 00 00 00 
   12517:	48 8d 85 30 e6 ff ff 	lea    -0x19d0(%rbp),%rax
   1251e:	48 89 85 00 e7 ff ff 	mov    %rax,-0x1900(%rbp)
   12525:	48 8d 05 9e 54 01 00 	lea    0x1549e(%rip),%rax        # 279ca <g_371>
   1252c:	48 89 85 08 e7 ff ff 	mov    %rax,-0x18f8(%rbp)
   12533:	48 8d 05 9e dd 00 00 	lea    0xdd9e(%rip),%rax        # 202d8 <g_142>
   1253a:	48 89 85 10 e7 ff ff 	mov    %rax,-0x18f0(%rbp)
   12541:	8b 05 49 e5 00 00    	mov    0xe549(%rip),%eax        # 20a90 <g_922>
   12547:	83 f8 05             	cmp    $0x5,%eax
   1254a:	0f 96 c0             	setbe  %al
   1254d:	0f b6 c0             	movzbl %al,%eax
   12550:	48 8b 95 68 e4 ff ff 	mov    -0x1b98(%rbp),%rdx
   12557:	48 89 d6             	mov    %rdx,%rsi
   1255a:	48 89 c7             	mov    %rax,%rdi
   1255d:	e8 1e 4b ff ff       	callq  7080 <safe_mod_func_uint64_t_u_u>
   12562:	8b 05 e0 e4 00 00    	mov    0xe4e0(%rip),%eax        # 20a48 <g_639+0x8>
   12568:	98                   	cwtl   
   12569:	be 00 00 00 00       	mov    $0x0,%esi
   1256e:	89 c7                	mov    %eax,%edi
   12570:	e8 80 3e ff ff       	callq  63f5 <safe_mul_func_int16_t_s_s>
   12575:	66 85 c0             	test   %ax,%ax
   12578:	0f 84 3a 1f 00 00    	je     144b8 <func_116+0x6768>
   1257e:	48 8d 05 53 dd 00 00 	lea    0xdd53(%rip),%rax        # 202d8 <g_142>
   12585:	48 89 85 38 e6 ff ff 	mov    %rax,-0x19c8(%rbp)
   1258c:	c6 85 8e e4 ff ff fc 	movb   $0xfc,-0x1b72(%rbp)
   12593:	c7 85 28 e5 ff ff 47 	movl   $0xa16f4947,-0x1ad8(%rbp)
   1259a:	49 6f a1 
   1259d:	c7 85 2c e5 ff ff bf 	movl   $0xd020cbbf,-0x1ad4(%rbp)
   125a4:	cb 20 d0 
   125a7:	c7 85 30 e5 ff ff d6 	movl   $0x679927d6,-0x1ad0(%rbp)
   125ae:	27 99 67 
   125b1:	c7 85 34 e5 ff ff e8 	movl   $0xc059e7e8,-0x1acc(%rbp)
   125b8:	e7 59 c0 
   125bb:	c7 85 38 e5 ff ff f8 	movl   $0xfffffff8,-0x1ac8(%rbp)
   125c2:	ff ff ff 
   125c5:	c7 85 3c e5 ff ff 72 	movl   $0x1ae80172,-0x1ac4(%rbp)
   125cc:	01 e8 1a 
   125cf:	c7 85 40 e5 ff ff 81 	movl   $0x4f72bb81,-0x1ac0(%rbp)
   125d6:	bb 72 4f 
   125d9:	c7 85 44 e5 ff ff 79 	movl   $0x2e7e8279,-0x1abc(%rbp)
   125e0:	82 7e 2e 
   125e3:	c7 85 48 e5 ff ff fa 	movl   $0xfffffffa,-0x1ab8(%rbp)
   125ea:	ff ff ff 
   125ed:	c7 85 4c e5 ff ff c9 	movl   $0x402635c9,-0x1ab4(%rbp)
   125f4:	35 26 40 
   125f7:	c7 85 50 e5 ff ff 45 	movl   $0xeaeaf345,-0x1ab0(%rbp)
   125fe:	f3 ea ea 
   12601:	c7 85 54 e5 ff ff 71 	movl   $0x9418dd71,-0x1aac(%rbp)
   12608:	dd 18 94 
   1260b:	c7 85 58 e5 ff ff 5b 	movl   $0xfb43d25b,-0x1aa8(%rbp)
   12612:	d2 43 fb 
   12615:	c7 85 5c e5 ff ff 44 	movl   $0x7d4ac144,-0x1aa4(%rbp)
   1261c:	c1 4a 7d 
   1261f:	c7 85 60 e5 ff ff fe 	movl   $0xfffffffe,-0x1aa0(%rbp)
   12626:	ff ff ff 
   12629:	c7 85 64 e5 ff ff 06 	movl   $0x6,-0x1a9c(%rbp)
   12630:	00 00 00 
   12633:	c7 85 68 e5 ff ff 00 	movl   $0x0,-0x1a98(%rbp)
   1263a:	00 00 00 
   1263d:	c7 85 6c e5 ff ff 0a 	movl   $0x3c35f10a,-0x1a94(%rbp)
   12644:	f1 35 3c 
   12647:	c7 85 70 e5 ff ff ff 	movl   $0xffffffff,-0x1a90(%rbp)
   1264e:	ff ff ff 
   12651:	c7 85 e8 e4 ff ff 00 	movl   $0x0,-0x1b18(%rbp)
   12658:	00 00 00 
   1265b:	eb 42                	jmp    1269f <func_116+0x494f>
   1265d:	c7 85 ec e4 ff ff 00 	movl   $0x0,-0x1b14(%rbp)
   12664:	00 00 00 
   12667:	eb 26                	jmp    1268f <func_116+0x493f>
   12669:	8b 85 ec e4 ff ff    	mov    -0x1b14(%rbp),%eax
   1266f:	48 63 d0             	movslq %eax,%rdx
   12672:	8b 85 e8 e4 ff ff    	mov    -0x1b18(%rbp),%eax
   12678:	48 98                	cltq   
   1267a:	48 01 d0             	add    %rdx,%rax
   1267d:	c7 84 85 f0 ed ff ff 	movl   $0x1,-0x1210(%rbp,%rax,4)
   12684:	01 00 00 00 
   12688:	83 85 ec e4 ff ff 01 	addl   $0x1,-0x1b14(%rbp)
   1268f:	83 bd ec e4 ff ff 00 	cmpl   $0x0,-0x1b14(%rbp)
   12696:	7e d1                	jle    12669 <func_116+0x4919>
   12698:	83 85 e8 e4 ff ff 01 	addl   $0x1,-0x1b18(%rbp)
   1269f:	83 bd e8 e4 ff ff 07 	cmpl   $0x7,-0x1b18(%rbp)
   126a6:	7e b5                	jle    1265d <func_116+0x490d>
   126a8:	90                   	nop
   126a9:	8b 85 10 e6 ff ff    	mov    -0x19f0(%rbp),%eax
   126af:	85 c0                	test   %eax,%eax
   126b1:	0f 84 59 09 00 00    	je     13010 <func_116+0x52c0>
   126b7:	48 8d 85 e0 e5 ff ff 	lea    -0x1a20(%rbp),%rax
   126be:	48 89 85 40 f8 ff ff 	mov    %rax,-0x7c0(%rbp)
   126c5:	48 8d 85 38 e6 ff ff 	lea    -0x19c8(%rbp),%rax
   126cc:	48 89 85 48 f8 ff ff 	mov    %rax,-0x7b8(%rbp)
   126d3:	48 c7 85 50 f8 ff ff 	movq   $0x0,-0x7b0(%rbp)
   126da:	00 00 00 00 
   126de:	48 c7 85 58 f8 ff ff 	movq   $0x0,-0x7a8(%rbp)
   126e5:	00 00 00 00 
   126e9:	48 c7 85 60 f8 ff ff 	movq   $0x0,-0x7a0(%rbp)
   126f0:	00 00 00 00 
   126f4:	48 8d 85 e0 e5 ff ff 	lea    -0x1a20(%rbp),%rax
   126fb:	48 89 85 68 f8 ff ff 	mov    %rax,-0x798(%rbp)
   12702:	48 8d 85 38 e6 ff ff 	lea    -0x19c8(%rbp),%rax
   12709:	48 89 85 70 f8 ff ff 	mov    %rax,-0x790(%rbp)
   12710:	48 8d 85 e0 e5 ff ff 	lea    -0x1a20(%rbp),%rax
   12717:	48 89 85 78 f8 ff ff 	mov    %rax,-0x788(%rbp)
   1271e:	48 c7 85 80 f8 ff ff 	movq   $0x0,-0x780(%rbp)
   12725:	00 00 00 00 
   12729:	48 c7 85 88 f8 ff ff 	movq   $0x0,-0x778(%rbp)
   12730:	00 00 00 00 
   12734:	48 8d 85 e0 e5 ff ff 	lea    -0x1a20(%rbp),%rax
   1273b:	48 89 85 90 f8 ff ff 	mov    %rax,-0x770(%rbp)
   12742:	48 8d 85 38 e6 ff ff 	lea    -0x19c8(%rbp),%rax
   12749:	48 89 85 98 f8 ff ff 	mov    %rax,-0x768(%rbp)
   12750:	48 8d 85 38 e6 ff ff 	lea    -0x19c8(%rbp),%rax
   12757:	48 89 85 a0 f8 ff ff 	mov    %rax,-0x760(%rbp)
   1275e:	48 8d 85 e0 e5 ff ff 	lea    -0x1a20(%rbp),%rax
   12765:	48 89 85 a8 f8 ff ff 	mov    %rax,-0x758(%rbp)
   1276c:	48 8d 85 e0 e5 ff ff 	lea    -0x1a20(%rbp),%rax
   12773:	48 89 85 b0 f8 ff ff 	mov    %rax,-0x750(%rbp)
   1277a:	48 c7 85 b8 f8 ff ff 	movq   $0x0,-0x748(%rbp)
   12781:	00 00 00 00 
   12785:	48 c7 85 c0 f8 ff ff 	movq   $0x0,-0x740(%rbp)
   1278c:	00 00 00 00 
   12790:	48 c7 85 c8 f8 ff ff 	movq   $0x0,-0x738(%rbp)
   12797:	00 00 00 00 
   1279b:	48 c7 85 d0 f8 ff ff 	movq   $0x0,-0x730(%rbp)
   127a2:	00 00 00 00 
   127a6:	48 8d 85 38 e6 ff ff 	lea    -0x19c8(%rbp),%rax
   127ad:	48 89 85 d8 f8 ff ff 	mov    %rax,-0x728(%rbp)
   127b4:	48 c7 85 e0 f8 ff ff 	movq   $0x0,-0x720(%rbp)
   127bb:	00 00 00 00 
   127bf:	48 8d 05 a2 45 01 00 	lea    0x145a2(%rip),%rax        # 26d68 <g_232>
   127c6:	48 89 85 e8 f8 ff ff 	mov    %rax,-0x718(%rbp)
   127cd:	48 8d 05 94 45 01 00 	lea    0x14594(%rip),%rax        # 26d68 <g_232>
   127d4:	48 89 85 f0 f8 ff ff 	mov    %rax,-0x710(%rbp)
   127db:	48 c7 85 f8 f8 ff ff 	movq   $0x0,-0x708(%rbp)
   127e2:	00 00 00 00 
   127e6:	48 8d 85 e0 e5 ff ff 	lea    -0x1a20(%rbp),%rax
   127ed:	48 89 85 00 f9 ff ff 	mov    %rax,-0x700(%rbp)
   127f4:	48 8d 85 e0 e5 ff ff 	lea    -0x1a20(%rbp),%rax
   127fb:	48 89 85 08 f9 ff ff 	mov    %rax,-0x6f8(%rbp)
   12802:	48 8d 85 e0 e5 ff ff 	lea    -0x1a20(%rbp),%rax
   12809:	48 89 85 10 f9 ff ff 	mov    %rax,-0x6f0(%rbp)
   12810:	48 c7 85 18 f9 ff ff 	movq   $0x0,-0x6e8(%rbp)
   12817:	00 00 00 00 
   1281b:	48 c7 85 20 f9 ff ff 	movq   $0x0,-0x6e0(%rbp)
   12822:	00 00 00 00 
   12826:	48 8d 85 38 e6 ff ff 	lea    -0x19c8(%rbp),%rax
   1282d:	48 89 85 28 f9 ff ff 	mov    %rax,-0x6d8(%rbp)
   12834:	48 8d 85 e0 e5 ff ff 	lea    -0x1a20(%rbp),%rax
   1283b:	48 89 85 30 f9 ff ff 	mov    %rax,-0x6d0(%rbp)
   12842:	48 8d 05 1f 45 01 00 	lea    0x1451f(%rip),%rax        # 26d68 <g_232>
   12849:	48 89 85 38 f9 ff ff 	mov    %rax,-0x6c8(%rbp)
   12850:	48 8d 05 11 45 01 00 	lea    0x14511(%rip),%rax        # 26d68 <g_232>
   12857:	48 89 85 40 f9 ff ff 	mov    %rax,-0x6c0(%rbp)
   1285e:	48 c7 85 48 f9 ff ff 	movq   $0x0,-0x6b8(%rbp)
   12865:	00 00 00 00 
   12869:	48 8d 05 f8 44 01 00 	lea    0x144f8(%rip),%rax        # 26d68 <g_232>
   12870:	48 89 85 50 f9 ff ff 	mov    %rax,-0x6b0(%rbp)
   12877:	48 8d 85 e0 e5 ff ff 	lea    -0x1a20(%rbp),%rax
   1287e:	48 89 85 58 f9 ff ff 	mov    %rax,-0x6a8(%rbp)
   12885:	48 8d 85 38 e6 ff ff 	lea    -0x19c8(%rbp),%rax
   1288c:	48 89 85 60 f9 ff ff 	mov    %rax,-0x6a0(%rbp)
   12893:	48 8d 85 e0 e5 ff ff 	lea    -0x1a20(%rbp),%rax
   1289a:	48 89 85 68 f9 ff ff 	mov    %rax,-0x698(%rbp)
   128a1:	48 8d 05 c0 44 01 00 	lea    0x144c0(%rip),%rax        # 26d68 <g_232>
   128a8:	48 89 85 70 f9 ff ff 	mov    %rax,-0x690(%rbp)
   128af:	48 8d 85 e0 e5 ff ff 	lea    -0x1a20(%rbp),%rax
   128b6:	48 89 85 78 f9 ff ff 	mov    %rax,-0x688(%rbp)
   128bd:	48 8d 85 e0 e5 ff ff 	lea    -0x1a20(%rbp),%rax
   128c4:	48 89 85 80 f9 ff ff 	mov    %rax,-0x680(%rbp)
   128cb:	48 8d 85 38 e6 ff ff 	lea    -0x19c8(%rbp),%rax
   128d2:	48 89 85 88 f9 ff ff 	mov    %rax,-0x678(%rbp)
   128d9:	48 c7 85 90 f9 ff ff 	movq   $0x0,-0x670(%rbp)
   128e0:	00 00 00 00 
   128e4:	48 8d 85 e0 e5 ff ff 	lea    -0x1a20(%rbp),%rax
   128eb:	48 89 85 98 f9 ff ff 	mov    %rax,-0x668(%rbp)
   128f2:	48 8d 85 e0 e5 ff ff 	lea    -0x1a20(%rbp),%rax
   128f9:	48 89 85 a0 f9 ff ff 	mov    %rax,-0x660(%rbp)
   12900:	48 c7 85 a8 f9 ff ff 	movq   $0x0,-0x658(%rbp)
   12907:	00 00 00 00 
   1290b:	48 8d 85 38 e6 ff ff 	lea    -0x19c8(%rbp),%rax
   12912:	48 89 85 b0 f9 ff ff 	mov    %rax,-0x650(%rbp)
   12919:	48 c7 85 b8 f9 ff ff 	movq   $0x0,-0x648(%rbp)
   12920:	00 00 00 00 
   12924:	48 c7 85 c0 f9 ff ff 	movq   $0x0,-0x640(%rbp)
   1292b:	00 00 00 00 
   1292f:	48 8d 85 38 e6 ff ff 	lea    -0x19c8(%rbp),%rax
   12936:	48 89 85 c8 f9 ff ff 	mov    %rax,-0x638(%rbp)
   1293d:	48 c7 85 d0 f9 ff ff 	movq   $0x0,-0x630(%rbp)
   12944:	00 00 00 00 
   12948:	48 8d 85 e0 e5 ff ff 	lea    -0x1a20(%rbp),%rax
   1294f:	48 89 85 d8 f9 ff ff 	mov    %rax,-0x628(%rbp)
   12956:	48 8d 85 e0 e5 ff ff 	lea    -0x1a20(%rbp),%rax
   1295d:	48 89 85 e0 f9 ff ff 	mov    %rax,-0x620(%rbp)
   12964:	48 c7 85 e8 f9 ff ff 	movq   $0x0,-0x618(%rbp)
   1296b:	00 00 00 00 
   1296f:	48 8d 85 38 e6 ff ff 	lea    -0x19c8(%rbp),%rax
   12976:	48 89 85 f0 f9 ff ff 	mov    %rax,-0x610(%rbp)
   1297d:	48 8d 85 e0 e5 ff ff 	lea    -0x1a20(%rbp),%rax
   12984:	48 89 85 f8 f9 ff ff 	mov    %rax,-0x608(%rbp)
   1298b:	48 8d 85 e0 e5 ff ff 	lea    -0x1a20(%rbp),%rax
   12992:	48 89 85 00 fa ff ff 	mov    %rax,-0x600(%rbp)
   12999:	48 8d 05 c8 43 01 00 	lea    0x143c8(%rip),%rax        # 26d68 <g_232>
   129a0:	48 89 85 08 fa ff ff 	mov    %rax,-0x5f8(%rbp)
   129a7:	48 8d 85 e0 e5 ff ff 	lea    -0x1a20(%rbp),%rax
   129ae:	48 89 85 10 fa ff ff 	mov    %rax,-0x5f0(%rbp)
   129b5:	48 8d 85 38 e6 ff ff 	lea    -0x19c8(%rbp),%rax
   129bc:	48 89 85 18 fa ff ff 	mov    %rax,-0x5e8(%rbp)
   129c3:	48 8d 85 e0 e5 ff ff 	lea    -0x1a20(%rbp),%rax
   129ca:	48 89 85 20 fa ff ff 	mov    %rax,-0x5e0(%rbp)
   129d1:	48 8d 05 90 43 01 00 	lea    0x14390(%rip),%rax        # 26d68 <g_232>
   129d8:	48 89 85 28 fa ff ff 	mov    %rax,-0x5d8(%rbp)
   129df:	48 c7 85 30 fa ff ff 	movq   $0x0,-0x5d0(%rbp)
   129e6:	00 00 00 00 
   129ea:	48 8d 05 77 43 01 00 	lea    0x14377(%rip),%rax        # 26d68 <g_232>
   129f1:	48 89 85 38 fa ff ff 	mov    %rax,-0x5c8(%rbp)
   129f8:	48 8d 05 69 43 01 00 	lea    0x14369(%rip),%rax        # 26d68 <g_232>
   129ff:	48 89 85 40 fa ff ff 	mov    %rax,-0x5c0(%rbp)
   12a06:	48 8d 85 e0 e5 ff ff 	lea    -0x1a20(%rbp),%rax
   12a0d:	48 89 85 48 fa ff ff 	mov    %rax,-0x5b8(%rbp)
   12a14:	48 8d 85 38 e6 ff ff 	lea    -0x19c8(%rbp),%rax
   12a1b:	48 89 85 50 fa ff ff 	mov    %rax,-0x5b0(%rbp)
   12a22:	48 c7 85 58 fa ff ff 	movq   $0x0,-0x5a8(%rbp)
   12a29:	00 00 00 00 
   12a2d:	48 c7 85 60 fa ff ff 	movq   $0x0,-0x5a0(%rbp)
   12a34:	00 00 00 00 
   12a38:	48 8d 85 e0 e5 ff ff 	lea    -0x1a20(%rbp),%rax
   12a3f:	48 89 85 68 fa ff ff 	mov    %rax,-0x598(%rbp)
   12a46:	48 8d 85 e0 e5 ff ff 	lea    -0x1a20(%rbp),%rax
   12a4d:	48 89 85 70 fa ff ff 	mov    %rax,-0x590(%rbp)
   12a54:	48 8d 85 e0 e5 ff ff 	lea    -0x1a20(%rbp),%rax
   12a5b:	48 89 85 78 fa ff ff 	mov    %rax,-0x588(%rbp)
   12a62:	48 c7 85 80 fa ff ff 	movq   $0x0,-0x580(%rbp)
   12a69:	00 00 00 00 
   12a6d:	48 8d 05 f4 42 01 00 	lea    0x142f4(%rip),%rax        # 26d68 <g_232>
   12a74:	48 89 85 88 fa ff ff 	mov    %rax,-0x578(%rbp)
   12a7b:	48 8d 05 e6 42 01 00 	lea    0x142e6(%rip),%rax        # 26d68 <g_232>
   12a82:	48 89 85 90 fa ff ff 	mov    %rax,-0x570(%rbp)
   12a89:	48 c7 85 98 fa ff ff 	movq   $0x0,-0x568(%rbp)
   12a90:	00 00 00 00 
   12a94:	48 8d 85 38 e6 ff ff 	lea    -0x19c8(%rbp),%rax
   12a9b:	48 89 85 a0 fa ff ff 	mov    %rax,-0x560(%rbp)
   12aa2:	48 c7 85 a8 fa ff ff 	movq   $0x0,-0x558(%rbp)
   12aa9:	00 00 00 00 
   12aad:	48 c7 85 b0 fa ff ff 	movq   $0x0,-0x550(%rbp)
   12ab4:	00 00 00 00 
   12ab8:	48 c7 85 b8 fa ff ff 	movq   $0x0,-0x548(%rbp)
   12abf:	00 00 00 00 
   12ac3:	48 c7 85 c0 fa ff ff 	movq   $0x0,-0x540(%rbp)
   12aca:	00 00 00 00 
   12ace:	48 8d 85 e0 e5 ff ff 	lea    -0x1a20(%rbp),%rax
   12ad5:	48 89 85 c8 fa ff ff 	mov    %rax,-0x538(%rbp)
   12adc:	48 8d 85 e0 e5 ff ff 	lea    -0x1a20(%rbp),%rax
   12ae3:	48 89 85 d0 fa ff ff 	mov    %rax,-0x530(%rbp)
   12aea:	48 8d 85 38 e6 ff ff 	lea    -0x19c8(%rbp),%rax
   12af1:	48 89 85 d8 fa ff ff 	mov    %rax,-0x528(%rbp)
   12af8:	48 8d 85 38 e6 ff ff 	lea    -0x19c8(%rbp),%rax
   12aff:	48 89 85 e0 fa ff ff 	mov    %rax,-0x520(%rbp)
   12b06:	48 8d 85 e0 e5 ff ff 	lea    -0x1a20(%rbp),%rax
   12b0d:	48 89 85 e8 fa ff ff 	mov    %rax,-0x518(%rbp)
   12b14:	48 c7 85 f0 fa ff ff 	movq   $0x0,-0x510(%rbp)
   12b1b:	00 00 00 00 
   12b1f:	48 c7 85 f8 fa ff ff 	movq   $0x0,-0x508(%rbp)
   12b26:	00 00 00 00 
   12b2a:	48 8d 85 e0 e5 ff ff 	lea    -0x1a20(%rbp),%rax
   12b31:	48 89 85 00 fb ff ff 	mov    %rax,-0x500(%rbp)
   12b38:	48 8d 85 38 e6 ff ff 	lea    -0x19c8(%rbp),%rax
   12b3f:	48 89 85 08 fb ff ff 	mov    %rax,-0x4f8(%rbp)
   12b46:	48 8d 85 e0 e5 ff ff 	lea    -0x1a20(%rbp),%rax
   12b4d:	48 89 85 10 fb ff ff 	mov    %rax,-0x4f0(%rbp)
   12b54:	48 c7 85 18 fb ff ff 	movq   $0x0,-0x4e8(%rbp)
   12b5b:	00 00 00 00 
   12b5f:	48 c7 85 20 fb ff ff 	movq   $0x0,-0x4e0(%rbp)
   12b66:	00 00 00 00 
   12b6a:	48 c7 85 28 fb ff ff 	movq   $0x0,-0x4d8(%rbp)
   12b71:	00 00 00 00 
   12b75:	48 8d 85 38 e6 ff ff 	lea    -0x19c8(%rbp),%rax
   12b7c:	48 89 85 30 fb ff ff 	mov    %rax,-0x4d0(%rbp)
   12b83:	48 8d 85 e0 e5 ff ff 	lea    -0x1a20(%rbp),%rax
   12b8a:	48 89 85 38 fb ff ff 	mov    %rax,-0x4c8(%rbp)
   12b91:	48 8d 85 e0 e5 ff ff 	lea    -0x1a20(%rbp),%rax
   12b98:	48 89 85 40 fb ff ff 	mov    %rax,-0x4c0(%rbp)
   12b9f:	48 8d 05 c2 41 01 00 	lea    0x141c2(%rip),%rax        # 26d68 <g_232>
   12ba6:	48 89 85 48 fb ff ff 	mov    %rax,-0x4b8(%rbp)
   12bad:	48 8d 85 38 e6 ff ff 	lea    -0x19c8(%rbp),%rax
   12bb4:	48 89 85 50 fb ff ff 	mov    %rax,-0x4b0(%rbp)
   12bbb:	48 8d 05 a6 41 01 00 	lea    0x141a6(%rip),%rax        # 26d68 <g_232>
   12bc2:	48 89 85 58 fb ff ff 	mov    %rax,-0x4a8(%rbp)
   12bc9:	48 8d 85 e0 e5 ff ff 	lea    -0x1a20(%rbp),%rax
   12bd0:	48 89 85 60 fb ff ff 	mov    %rax,-0x4a0(%rbp)
   12bd7:	48 c7 85 68 fb ff ff 	movq   $0x0,-0x498(%rbp)
   12bde:	00 00 00 00 
   12be2:	48 c7 85 70 fb ff ff 	movq   $0x0,-0x490(%rbp)
   12be9:	00 00 00 00 
   12bed:	48 c7 85 78 fb ff ff 	movq   $0x0,-0x488(%rbp)
   12bf4:	00 00 00 00 
   12bf8:	48 8d 85 e0 e5 ff ff 	lea    -0x1a20(%rbp),%rax
   12bff:	48 89 85 80 fb ff ff 	mov    %rax,-0x480(%rbp)
   12c06:	48 c7 85 88 fb ff ff 	movq   $0x0,-0x478(%rbp)
   12c0d:	00 00 00 00 
   12c11:	48 8d 05 50 41 01 00 	lea    0x14150(%rip),%rax        # 26d68 <g_232>
   12c18:	48 89 85 90 fb ff ff 	mov    %rax,-0x470(%rbp)
   12c1f:	48 8d 05 42 41 01 00 	lea    0x14142(%rip),%rax        # 26d68 <g_232>
   12c26:	48 89 85 98 fb ff ff 	mov    %rax,-0x468(%rbp)
   12c2d:	48 8d 85 38 e6 ff ff 	lea    -0x19c8(%rbp),%rax
   12c34:	48 89 85 a0 fb ff ff 	mov    %rax,-0x460(%rbp)
   12c3b:	48 8d 05 26 41 01 00 	lea    0x14126(%rip),%rax        # 26d68 <g_232>
   12c42:	48 89 85 a8 fb ff ff 	mov    %rax,-0x458(%rbp)
   12c49:	48 c7 85 b0 fb ff ff 	movq   $0x0,-0x450(%rbp)
   12c50:	00 00 00 00 
   12c54:	48 c7 85 b8 fb ff ff 	movq   $0x0,-0x448(%rbp)
   12c5b:	00 00 00 00 
   12c5f:	48 8d 85 e0 e5 ff ff 	lea    -0x1a20(%rbp),%rax
   12c66:	48 89 85 c0 fb ff ff 	mov    %rax,-0x440(%rbp)
   12c6d:	48 8d 05 f4 40 01 00 	lea    0x140f4(%rip),%rax        # 26d68 <g_232>
   12c74:	48 89 85 c8 fb ff ff 	mov    %rax,-0x438(%rbp)
   12c7b:	48 8d 85 38 e6 ff ff 	lea    -0x19c8(%rbp),%rax
   12c82:	48 89 85 d0 fb ff ff 	mov    %rax,-0x430(%rbp)
   12c89:	48 8d 85 e0 e5 ff ff 	lea    -0x1a20(%rbp),%rax
   12c90:	48 89 85 d8 fb ff ff 	mov    %rax,-0x428(%rbp)
   12c97:	48 8d 85 e0 e5 ff ff 	lea    -0x1a20(%rbp),%rax
   12c9e:	48 89 85 e0 fb ff ff 	mov    %rax,-0x420(%rbp)
   12ca5:	48 c7 85 e8 fb ff ff 	movq   $0x0,-0x418(%rbp)
   12cac:	00 00 00 00 
   12cb0:	48 8d 85 e0 e5 ff ff 	lea    -0x1a20(%rbp),%rax
   12cb7:	48 89 85 f0 fb ff ff 	mov    %rax,-0x410(%rbp)
   12cbe:	48 c7 85 f8 fb ff ff 	movq   $0x0,-0x408(%rbp)
   12cc5:	00 00 00 00 
   12cc9:	48 8d 85 e0 e5 ff ff 	lea    -0x1a20(%rbp),%rax
   12cd0:	48 89 85 00 fc ff ff 	mov    %rax,-0x400(%rbp)
   12cd7:	48 8d 85 38 e6 ff ff 	lea    -0x19c8(%rbp),%rax
   12cde:	48 89 85 08 fc ff ff 	mov    %rax,-0x3f8(%rbp)
   12ce5:	48 8d 85 38 e6 ff ff 	lea    -0x19c8(%rbp),%rax
   12cec:	48 89 85 10 fc ff ff 	mov    %rax,-0x3f0(%rbp)
   12cf3:	48 8d 85 38 e6 ff ff 	lea    -0x19c8(%rbp),%rax
   12cfa:	48 89 85 18 fc ff ff 	mov    %rax,-0x3e8(%rbp)
   12d01:	48 8d 85 38 e6 ff ff 	lea    -0x19c8(%rbp),%rax
   12d08:	48 89 85 20 fc ff ff 	mov    %rax,-0x3e0(%rbp)
   12d0f:	48 8d 85 e0 e5 ff ff 	lea    -0x1a20(%rbp),%rax
   12d16:	48 89 85 28 fc ff ff 	mov    %rax,-0x3d8(%rbp)
   12d1d:	48 c7 85 30 fc ff ff 	movq   $0x0,-0x3d0(%rbp)
   12d24:	00 00 00 00 
   12d28:	48 8d 85 e0 e5 ff ff 	lea    -0x1a20(%rbp),%rax
   12d2f:	48 89 85 38 fc ff ff 	mov    %rax,-0x3c8(%rbp)
   12d36:	48 c7 85 40 fc ff ff 	movq   $0x0,-0x3c0(%rbp)
   12d3d:	00 00 00 00 
   12d41:	48 8d 85 e0 e5 ff ff 	lea    -0x1a20(%rbp),%rax
   12d48:	48 89 85 48 fc ff ff 	mov    %rax,-0x3b8(%rbp)
   12d4f:	48 8d 85 e0 e5 ff ff 	lea    -0x1a20(%rbp),%rax
   12d56:	48 89 85 50 fc ff ff 	mov    %rax,-0x3b0(%rbp)
   12d5d:	48 8d 85 38 e6 ff ff 	lea    -0x19c8(%rbp),%rax
   12d64:	48 89 85 58 fc ff ff 	mov    %rax,-0x3a8(%rbp)
   12d6b:	48 8d 05 f6 3f 01 00 	lea    0x13ff6(%rip),%rax        # 26d68 <g_232>
   12d72:	48 89 85 60 fc ff ff 	mov    %rax,-0x3a0(%rbp)
   12d79:	48 8d 85 e0 e5 ff ff 	lea    -0x1a20(%rbp),%rax
   12d80:	48 89 85 68 fc ff ff 	mov    %rax,-0x398(%rbp)
   12d87:	48 c7 85 70 fc ff ff 	movq   $0x0,-0x390(%rbp)
   12d8e:	00 00 00 00 
   12d92:	48 c7 85 78 fc ff ff 	movq   $0x0,-0x388(%rbp)
   12d99:	00 00 00 00 
   12d9d:	48 8d 05 c4 3f 01 00 	lea    0x13fc4(%rip),%rax        # 26d68 <g_232>
   12da4:	48 89 85 80 fc ff ff 	mov    %rax,-0x380(%rbp)
   12dab:	48 8d 85 38 e6 ff ff 	lea    -0x19c8(%rbp),%rax
   12db2:	48 89 85 88 fc ff ff 	mov    %rax,-0x378(%rbp)
   12db9:	48 8d 05 a8 3f 01 00 	lea    0x13fa8(%rip),%rax        # 26d68 <g_232>
   12dc0:	48 89 85 90 fc ff ff 	mov    %rax,-0x370(%rbp)
   12dc7:	48 8d 05 9a 3f 01 00 	lea    0x13f9a(%rip),%rax        # 26d68 <g_232>
   12dce:	48 89 85 98 fc ff ff 	mov    %rax,-0x368(%rbp)
   12dd5:	48 c7 85 a0 fc ff ff 	movq   $0x0,-0x360(%rbp)
   12ddc:	00 00 00 00 
   12de0:	48 8d 85 e0 e5 ff ff 	lea    -0x1a20(%rbp),%rax
   12de7:	48 89 85 a8 fc ff ff 	mov    %rax,-0x358(%rbp)
   12dee:	48 c7 85 b0 fc ff ff 	movq   $0x0,-0x350(%rbp)
   12df5:	00 00 00 00 
   12df9:	48 c7 85 b8 fc ff ff 	movq   $0x0,-0x348(%rbp)
   12e00:	00 00 00 00 
   12e04:	48 8d 85 e0 e5 ff ff 	lea    -0x1a20(%rbp),%rax
   12e0b:	48 89 85 c0 fc ff ff 	mov    %rax,-0x340(%rbp)
   12e12:	48 8d 85 e0 e5 ff ff 	lea    -0x1a20(%rbp),%rax
   12e19:	48 89 85 c8 fc ff ff 	mov    %rax,-0x338(%rbp)
   12e20:	48 c7 85 d0 fc ff ff 	movq   $0x0,-0x330(%rbp)
   12e27:	00 00 00 00 
   12e2b:	48 8d 85 38 e6 ff ff 	lea    -0x19c8(%rbp),%rax
   12e32:	48 89 85 d8 fc ff ff 	mov    %rax,-0x328(%rbp)
   12e39:	48 c7 85 e0 fc ff ff 	movq   $0x0,-0x320(%rbp)
   12e40:	00 00 00 00 
   12e44:	48 8d 85 e0 e5 ff ff 	lea    -0x1a20(%rbp),%rax
   12e4b:	48 89 85 e8 fc ff ff 	mov    %rax,-0x318(%rbp)
   12e52:	48 8d 85 38 e6 ff ff 	lea    -0x19c8(%rbp),%rax
   12e59:	48 89 85 f0 fc ff ff 	mov    %rax,-0x310(%rbp)
   12e60:	48 c7 85 f8 fc ff ff 	movq   $0x0,-0x308(%rbp)
   12e67:	00 00 00 00 
   12e6b:	48 8d 05 f6 3e 01 00 	lea    0x13ef6(%rip),%rax        # 26d68 <g_232>
   12e72:	48 89 85 00 fd ff ff 	mov    %rax,-0x300(%rbp)
   12e79:	48 8d 05 e8 3e 01 00 	lea    0x13ee8(%rip),%rax        # 26d68 <g_232>
   12e80:	48 89 85 08 fd ff ff 	mov    %rax,-0x2f8(%rbp)
   12e87:	48 8d 85 38 e6 ff ff 	lea    -0x19c8(%rbp),%rax
   12e8e:	48 89 85 10 fd ff ff 	mov    %rax,-0x2f0(%rbp)
   12e95:	48 8d 85 38 e6 ff ff 	lea    -0x19c8(%rbp),%rax
   12e9c:	48 89 85 18 fd ff ff 	mov    %rax,-0x2e8(%rbp)
   12ea3:	48 c7 85 20 fd ff ff 	movq   $0x0,-0x2e0(%rbp)
   12eaa:	00 00 00 00 
   12eae:	48 8d 05 b3 3e 01 00 	lea    0x13eb3(%rip),%rax        # 26d68 <g_232>
   12eb5:	48 89 85 28 fd ff ff 	mov    %rax,-0x2d8(%rbp)
   12ebc:	48 8d 85 38 e6 ff ff 	lea    -0x19c8(%rbp),%rax
   12ec3:	48 89 85 30 fd ff ff 	mov    %rax,-0x2d0(%rbp)
   12eca:	48 c7 85 38 fd ff ff 	movq   $0x0,-0x2c8(%rbp)
   12ed1:	00 00 00 00 
   12ed5:	48 8d 85 e0 e5 ff ff 	lea    -0x1a20(%rbp),%rax
   12edc:	48 89 85 40 fd ff ff 	mov    %rax,-0x2c0(%rbp)
   12ee3:	48 8d 85 e0 e5 ff ff 	lea    -0x1a20(%rbp),%rax
   12eea:	48 89 85 48 fd ff ff 	mov    %rax,-0x2b8(%rbp)
   12ef1:	48 c7 85 50 fd ff ff 	movq   $0x0,-0x2b0(%rbp)
   12ef8:	00 00 00 00 
   12efc:	48 8d 05 65 3e 01 00 	lea    0x13e65(%rip),%rax        # 26d68 <g_232>
   12f03:	48 89 85 58 fd ff ff 	mov    %rax,-0x2a8(%rbp)
   12f0a:	48 c7 85 60 fd ff ff 	movq   $0x0,-0x2a0(%rbp)
   12f11:	00 00 00 00 
   12f15:	48 c7 85 68 fd ff ff 	movq   $0x0,-0x298(%rbp)
   12f1c:	00 00 00 00 
   12f20:	48 8d 85 38 e6 ff ff 	lea    -0x19c8(%rbp),%rax
   12f27:	48 89 85 70 fd ff ff 	mov    %rax,-0x290(%rbp)
   12f2e:	48 8d 05 33 3e 01 00 	lea    0x13e33(%rip),%rax        # 26d68 <g_232>
   12f35:	48 89 85 78 fd ff ff 	mov    %rax,-0x288(%rbp)
   12f3c:	48 c7 85 80 fd ff ff 	movq   $0x0,-0x280(%rbp)
   12f43:	00 00 00 00 
   12f47:	48 c7 85 88 fd ff ff 	movq   $0x0,-0x278(%rbp)
   12f4e:	00 00 00 00 
   12f52:	48 c7 85 90 fd ff ff 	movq   $0x0,-0x270(%rbp)
   12f59:	00 00 00 00 
   12f5d:	48 c7 85 98 fd ff ff 	movq   $0x0,-0x268(%rbp)
   12f64:	00 00 00 00 
   12f68:	48 c7 85 a0 fd ff ff 	movq   $0x0,-0x260(%rbp)
   12f6f:	00 00 00 00 
   12f73:	48 c7 85 a8 fd ff ff 	movq   $0x0,-0x258(%rbp)
   12f7a:	00 00 00 00 
   12f7e:	48 8d 85 e0 e5 ff ff 	lea    -0x1a20(%rbp),%rax
   12f85:	48 89 85 b0 fd ff ff 	mov    %rax,-0x250(%rbp)
   12f8c:	48 8d 85 e0 e5 ff ff 	lea    -0x1a20(%rbp),%rax
   12f93:	48 89 85 b8 fd ff ff 	mov    %rax,-0x248(%rbp)
   12f9a:	48 8d 85 38 e6 ff ff 	lea    -0x19c8(%rbp),%rax
   12fa1:	48 89 85 c0 fd ff ff 	mov    %rax,-0x240(%rbp)
   12fa8:	48 8d 05 b9 3d 01 00 	lea    0x13db9(%rip),%rax        # 26d68 <g_232>
   12faf:	48 89 85 c8 fd ff ff 	mov    %rax,-0x238(%rbp)
   12fb6:	48 c7 85 d0 fd ff ff 	movq   $0x0,-0x230(%rbp)
   12fbd:	00 00 00 00 
   12fc1:	48 8d 05 a0 3d 01 00 	lea    0x13da0(%rip),%rax        # 26d68 <g_232>
   12fc8:	48 89 85 d8 fd ff ff 	mov    %rax,-0x228(%rbp)
   12fcf:	48 8b 85 b8 e6 ff ff 	mov    -0x1948(%rbp),%rax
   12fd6:	48 8b 00             	mov    (%rax),%rax
   12fd9:	48 8b 08             	mov    (%rax),%rcx
   12fdc:	48 8b 05 bd da 00 00 	mov    0xdabd(%rip),%rax        # 20aa0 <g_923>
   12fe3:	48 8b 15 be da 00 00 	mov    0xdabe(%rip),%rdx        # 20aa8 <g_923+0x8>
   12fea:	48 89 01             	mov    %rax,(%rcx)
   12fed:	48 89 51 08          	mov    %rdx,0x8(%rcx)
   12ff1:	8b 05 b9 da 00 00    	mov    0xdab9(%rip),%eax        # 20ab0 <g_923+0x10>
   12ff7:	89 41 10             	mov    %eax,0x10(%rcx)
   12ffa:	48 8b 05 5f 3d 01 00 	mov    0x13d5f(%rip),%rax        # 26d60 <g_202>
   13001:	48 8b 95 38 e6 ff ff 	mov    -0x19c8(%rbp),%rdx
   13008:	48 89 10             	mov    %rdx,(%rax)
   1300b:	e9 ce 0a 00 00       	jmpq   13ade <func_116+0x5d8e>
   13010:	48 8d 05 e9 d2 00 00 	lea    0xd2e9(%rip),%rax        # 20300 <g_197>
   13017:	48 89 85 c0 f0 ff ff 	mov    %rax,-0xf40(%rbp)
   1301e:	48 8d 05 db d2 00 00 	lea    0xd2db(%rip),%rax        # 20300 <g_197>
   13025:	48 89 85 c8 f0 ff ff 	mov    %rax,-0xf38(%rbp)
   1302c:	48 8d 05 cd d2 00 00 	lea    0xd2cd(%rip),%rax        # 20300 <g_197>
   13033:	48 89 85 d0 f0 ff ff 	mov    %rax,-0xf30(%rbp)
   1303a:	48 8d 05 bf d2 00 00 	lea    0xd2bf(%rip),%rax        # 20300 <g_197>
   13041:	48 89 85 d8 f0 ff ff 	mov    %rax,-0xf28(%rbp)
   13048:	48 8d 85 c0 f0 ff ff 	lea    -0xf40(%rbp),%rax
   1304f:	48 83 c0 08          	add    $0x8,%rax
   13053:	48 89 85 40 f8 ff ff 	mov    %rax,-0x7c0(%rbp)
   1305a:	48 8d 85 c0 f0 ff ff 	lea    -0xf40(%rbp),%rax
   13061:	48 83 c0 08          	add    $0x8,%rax
   13065:	48 89 85 48 f8 ff ff 	mov    %rax,-0x7b8(%rbp)
   1306c:	48 8d 85 c0 f0 ff ff 	lea    -0xf40(%rbp),%rax
   13073:	48 83 c0 10          	add    $0x10,%rax
   13077:	48 89 85 50 f8 ff ff 	mov    %rax,-0x7b0(%rbp)
   1307e:	48 8d 85 c0 f0 ff ff 	lea    -0xf40(%rbp),%rax
   13085:	48 83 c0 10          	add    $0x10,%rax
   13089:	48 89 85 58 f8 ff ff 	mov    %rax,-0x7a8(%rbp)
   13090:	48 8d 85 c0 f0 ff ff 	lea    -0xf40(%rbp),%rax
   13097:	48 83 c0 08          	add    $0x8,%rax
   1309b:	48 89 85 60 f8 ff ff 	mov    %rax,-0x7a0(%rbp)
   130a2:	48 8d 85 c0 f0 ff ff 	lea    -0xf40(%rbp),%rax
   130a9:	48 83 c0 08          	add    $0x8,%rax
   130ad:	48 89 85 68 f8 ff ff 	mov    %rax,-0x798(%rbp)
   130b4:	48 8d 85 c0 f0 ff ff 	lea    -0xf40(%rbp),%rax
   130bb:	48 83 c0 08          	add    $0x8,%rax
   130bf:	48 89 85 70 f8 ff ff 	mov    %rax,-0x790(%rbp)
   130c6:	48 8d 85 c0 f0 ff ff 	lea    -0xf40(%rbp),%rax
   130cd:	48 83 c0 08          	add    $0x8,%rax
   130d1:	48 89 85 78 f8 ff ff 	mov    %rax,-0x788(%rbp)
   130d8:	48 8d 85 c0 f0 ff ff 	lea    -0xf40(%rbp),%rax
   130df:	48 83 c0 08          	add    $0x8,%rax
   130e3:	48 89 85 80 f8 ff ff 	mov    %rax,-0x780(%rbp)
   130ea:	48 8d 85 c0 f0 ff ff 	lea    -0xf40(%rbp),%rax
   130f1:	48 83 c0 08          	add    $0x8,%rax
   130f5:	48 89 85 88 f8 ff ff 	mov    %rax,-0x778(%rbp)
   130fc:	48 8d 85 c0 f0 ff ff 	lea    -0xf40(%rbp),%rax
   13103:	48 83 c0 08          	add    $0x8,%rax
   13107:	48 89 85 90 f8 ff ff 	mov    %rax,-0x770(%rbp)
   1310e:	48 8d 85 c0 f0 ff ff 	lea    -0xf40(%rbp),%rax
   13115:	48 83 c0 08          	add    $0x8,%rax
   13119:	48 89 85 98 f8 ff ff 	mov    %rax,-0x768(%rbp)
   13120:	48 c7 85 a0 f8 ff ff 	movq   $0x0,-0x760(%rbp)
   13127:	00 00 00 00 
   1312b:	48 8d 85 c0 f0 ff ff 	lea    -0xf40(%rbp),%rax
   13132:	48 83 c0 08          	add    $0x8,%rax
   13136:	48 89 85 a8 f8 ff ff 	mov    %rax,-0x758(%rbp)
   1313d:	48 8d 85 c0 f0 ff ff 	lea    -0xf40(%rbp),%rax
   13144:	48 83 c0 08          	add    $0x8,%rax
   13148:	48 89 85 b0 f8 ff ff 	mov    %rax,-0x750(%rbp)
   1314f:	48 8d 85 c0 f0 ff ff 	lea    -0xf40(%rbp),%rax
   13156:	48 83 c0 08          	add    $0x8,%rax
   1315a:	48 89 85 b8 f8 ff ff 	mov    %rax,-0x748(%rbp)
   13161:	48 8d 85 c0 f0 ff ff 	lea    -0xf40(%rbp),%rax
   13168:	48 83 c0 08          	add    $0x8,%rax
   1316c:	48 89 85 c0 f8 ff ff 	mov    %rax,-0x740(%rbp)
   13173:	48 8d 85 c0 f0 ff ff 	lea    -0xf40(%rbp),%rax
   1317a:	48 83 c0 08          	add    $0x8,%rax
   1317e:	48 89 85 c8 f8 ff ff 	mov    %rax,-0x738(%rbp)
   13185:	48 8d 85 c0 f0 ff ff 	lea    -0xf40(%rbp),%rax
   1318c:	48 83 c0 18          	add    $0x18,%rax
   13190:	48 89 85 d0 f8 ff ff 	mov    %rax,-0x730(%rbp)
   13197:	48 c7 85 d8 f8 ff ff 	movq   $0x0,-0x728(%rbp)
   1319e:	00 00 00 00 
   131a2:	48 8d 85 c0 f0 ff ff 	lea    -0xf40(%rbp),%rax
   131a9:	48 83 c0 08          	add    $0x8,%rax
   131ad:	48 89 85 e0 f8 ff ff 	mov    %rax,-0x720(%rbp)
   131b4:	48 8d 85 c0 f0 ff ff 	lea    -0xf40(%rbp),%rax
   131bb:	48 83 c0 08          	add    $0x8,%rax
   131bf:	48 89 85 e8 f8 ff ff 	mov    %rax,-0x718(%rbp)
   131c6:	48 8d 85 c0 f0 ff ff 	lea    -0xf40(%rbp),%rax
   131cd:	48 83 c0 08          	add    $0x8,%rax
   131d1:	48 89 85 f0 f8 ff ff 	mov    %rax,-0x710(%rbp)
   131d8:	48 8d 85 c0 f0 ff ff 	lea    -0xf40(%rbp),%rax
   131df:	48 83 c0 10          	add    $0x10,%rax
   131e3:	48 89 85 f8 f8 ff ff 	mov    %rax,-0x708(%rbp)
   131ea:	48 8d 85 c0 f0 ff ff 	lea    -0xf40(%rbp),%rax
   131f1:	48 83 c0 08          	add    $0x8,%rax
   131f5:	48 89 85 00 f9 ff ff 	mov    %rax,-0x700(%rbp)
   131fc:	48 8d 85 c0 f0 ff ff 	lea    -0xf40(%rbp),%rax
   13203:	48 83 c0 08          	add    $0x8,%rax
   13207:	48 89 85 08 f9 ff ff 	mov    %rax,-0x6f8(%rbp)
   1320e:	48 8d 85 c0 f0 ff ff 	lea    -0xf40(%rbp),%rax
   13215:	48 83 c0 08          	add    $0x8,%rax
   13219:	48 89 85 10 f9 ff ff 	mov    %rax,-0x6f0(%rbp)
   13220:	48 8d 85 c0 f0 ff ff 	lea    -0xf40(%rbp),%rax
   13227:	48 83 c0 10          	add    $0x10,%rax
   1322b:	48 89 85 18 f9 ff ff 	mov    %rax,-0x6e8(%rbp)
   13232:	48 8d 85 c0 f0 ff ff 	lea    -0xf40(%rbp),%rax
   13239:	48 83 c0 08          	add    $0x8,%rax
   1323d:	48 89 85 20 f9 ff ff 	mov    %rax,-0x6e0(%rbp)
   13244:	48 8d 85 c0 f0 ff ff 	lea    -0xf40(%rbp),%rax
   1324b:	48 83 c0 10          	add    $0x10,%rax
   1324f:	48 89 85 28 f9 ff ff 	mov    %rax,-0x6d8(%rbp)
   13256:	48 8d 85 c0 f0 ff ff 	lea    -0xf40(%rbp),%rax
   1325d:	48 83 c0 08          	add    $0x8,%rax
   13261:	48 89 85 30 f9 ff ff 	mov    %rax,-0x6d0(%rbp)
   13268:	48 8d 85 c0 f0 ff ff 	lea    -0xf40(%rbp),%rax
   1326f:	48 83 c0 18          	add    $0x18,%rax
   13273:	48 89 85 38 f9 ff ff 	mov    %rax,-0x6c8(%rbp)
   1327a:	48 8d 85 c0 f0 ff ff 	lea    -0xf40(%rbp),%rax
   13281:	48 83 c0 08          	add    $0x8,%rax
   13285:	48 89 85 40 f9 ff ff 	mov    %rax,-0x6c0(%rbp)
   1328c:	48 8d 85 c0 f0 ff ff 	lea    -0xf40(%rbp),%rax
   13293:	48 83 c0 10          	add    $0x10,%rax
   13297:	48 89 85 48 f9 ff ff 	mov    %rax,-0x6b8(%rbp)
   1329e:	48 8d 85 c0 f0 ff ff 	lea    -0xf40(%rbp),%rax
   132a5:	48 83 c0 18          	add    $0x18,%rax
   132a9:	48 89 85 50 f9 ff ff 	mov    %rax,-0x6b0(%rbp)
   132b0:	48 8d 85 c0 f0 ff ff 	lea    -0xf40(%rbp),%rax
   132b7:	48 83 c0 08          	add    $0x8,%rax
   132bb:	48 89 85 58 f9 ff ff 	mov    %rax,-0x6a8(%rbp)
   132c2:	48 8d 85 c0 f0 ff ff 	lea    -0xf40(%rbp),%rax
   132c9:	48 83 c0 08          	add    $0x8,%rax
   132cd:	48 89 85 60 f9 ff ff 	mov    %rax,-0x6a0(%rbp)
   132d4:	48 8d 85 c0 f0 ff ff 	lea    -0xf40(%rbp),%rax
   132db:	48 83 c0 08          	add    $0x8,%rax
   132df:	48 89 85 68 f9 ff ff 	mov    %rax,-0x698(%rbp)
   132e6:	48 8d 85 c0 f0 ff ff 	lea    -0xf40(%rbp),%rax
   132ed:	48 83 c0 08          	add    $0x8,%rax
   132f1:	48 89 85 70 f9 ff ff 	mov    %rax,-0x690(%rbp)
   132f8:	48 8d 85 c0 f0 ff ff 	lea    -0xf40(%rbp),%rax
   132ff:	48 83 c0 18          	add    $0x18,%rax
   13303:	48 89 85 78 f9 ff ff 	mov    %rax,-0x688(%rbp)
   1330a:	48 8d 85 c0 f0 ff ff 	lea    -0xf40(%rbp),%rax
   13311:	48 83 c0 08          	add    $0x8,%rax
   13315:	48 89 85 80 f9 ff ff 	mov    %rax,-0x680(%rbp)
   1331c:	48 8d 85 c0 f0 ff ff 	lea    -0xf40(%rbp),%rax
   13323:	48 83 c0 08          	add    $0x8,%rax
   13327:	48 89 85 88 f9 ff ff 	mov    %rax,-0x678(%rbp)
   1332e:	48 8d 85 c0 f0 ff ff 	lea    -0xf40(%rbp),%rax
   13335:	48 83 c0 08          	add    $0x8,%rax
   13339:	48 89 85 90 f9 ff ff 	mov    %rax,-0x670(%rbp)
   13340:	48 8d 85 c0 f0 ff ff 	lea    -0xf40(%rbp),%rax
   13347:	48 83 c0 18          	add    $0x18,%rax
   1334b:	48 89 85 98 f9 ff ff 	mov    %rax,-0x668(%rbp)
   13352:	48 8d 85 c0 f0 ff ff 	lea    -0xf40(%rbp),%rax
   13359:	48 83 c0 10          	add    $0x10,%rax
   1335d:	48 89 85 a0 f9 ff ff 	mov    %rax,-0x660(%rbp)
   13364:	48 8d 85 c0 f0 ff ff 	lea    -0xf40(%rbp),%rax
   1336b:	48 83 c0 08          	add    $0x8,%rax
   1336f:	48 89 85 a8 f9 ff ff 	mov    %rax,-0x658(%rbp)
   13376:	48 8d 85 c0 f0 ff ff 	lea    -0xf40(%rbp),%rax
   1337d:	48 83 c0 08          	add    $0x8,%rax
   13381:	48 89 85 b0 f9 ff ff 	mov    %rax,-0x650(%rbp)
   13388:	48 8d 85 c0 f0 ff ff 	lea    -0xf40(%rbp),%rax
   1338f:	48 83 c0 08          	add    $0x8,%rax
   13393:	48 89 85 b8 f9 ff ff 	mov    %rax,-0x648(%rbp)
   1339a:	48 8d 85 c0 f0 ff ff 	lea    -0xf40(%rbp),%rax
   133a1:	48 83 c0 10          	add    $0x10,%rax
   133a5:	48 89 85 c0 f9 ff ff 	mov    %rax,-0x640(%rbp)
   133ac:	48 8d 85 c0 f0 ff ff 	lea    -0xf40(%rbp),%rax
   133b3:	48 83 c0 08          	add    $0x8,%rax
   133b7:	48 89 85 c8 f9 ff ff 	mov    %rax,-0x638(%rbp)
   133be:	48 8d 85 c0 f0 ff ff 	lea    -0xf40(%rbp),%rax
   133c5:	48 83 c0 10          	add    $0x10,%rax
   133c9:	48 89 85 d0 f9 ff ff 	mov    %rax,-0x630(%rbp)
   133d0:	48 8d 85 c0 f0 ff ff 	lea    -0xf40(%rbp),%rax
   133d7:	48 83 c0 08          	add    $0x8,%rax
   133db:	48 89 85 d8 f9 ff ff 	mov    %rax,-0x628(%rbp)
   133e2:	48 8d 85 c0 f0 ff ff 	lea    -0xf40(%rbp),%rax
   133e9:	48 83 c0 08          	add    $0x8,%rax
   133ed:	48 89 85 e0 f9 ff ff 	mov    %rax,-0x620(%rbp)
   133f4:	48 8d 85 c0 f0 ff ff 	lea    -0xf40(%rbp),%rax
   133fb:	48 83 c0 08          	add    $0x8,%rax
   133ff:	48 89 85 e8 f9 ff ff 	mov    %rax,-0x618(%rbp)
   13406:	48 8d 85 c0 f0 ff ff 	lea    -0xf40(%rbp),%rax
   1340d:	48 89 85 f0 f9 ff ff 	mov    %rax,-0x610(%rbp)
   13414:	48 8d 85 c0 f0 ff ff 	lea    -0xf40(%rbp),%rax
   1341b:	48 83 c0 08          	add    $0x8,%rax
   1341f:	48 89 85 f8 f9 ff ff 	mov    %rax,-0x608(%rbp)
   13426:	48 8d 85 c0 f0 ff ff 	lea    -0xf40(%rbp),%rax
   1342d:	48 83 c0 08          	add    $0x8,%rax
   13431:	48 89 85 00 fa ff ff 	mov    %rax,-0x600(%rbp)
   13438:	48 8d 85 c0 f0 ff ff 	lea    -0xf40(%rbp),%rax
   1343f:	48 83 c0 08          	add    $0x8,%rax
   13443:	48 89 85 08 fa ff ff 	mov    %rax,-0x5f8(%rbp)
   1344a:	48 c7 85 10 fa ff ff 	movq   $0x0,-0x5f0(%rbp)
   13451:	00 00 00 00 
   13455:	48 8d 85 c0 f0 ff ff 	lea    -0xf40(%rbp),%rax
   1345c:	48 83 c0 18          	add    $0x18,%rax
   13460:	48 89 85 18 fa ff ff 	mov    %rax,-0x5e8(%rbp)
   13467:	48 8d 85 c0 f0 ff ff 	lea    -0xf40(%rbp),%rax
   1346e:	48 83 c0 08          	add    $0x8,%rax
   13472:	48 89 85 20 fa ff ff 	mov    %rax,-0x5e0(%rbp)
   13479:	48 8d 85 c0 f0 ff ff 	lea    -0xf40(%rbp),%rax
   13480:	48 83 c0 08          	add    $0x8,%rax
   13484:	48 89 85 28 fa ff ff 	mov    %rax,-0x5d8(%rbp)
   1348b:	48 8d 85 c0 f0 ff ff 	lea    -0xf40(%rbp),%rax
   13492:	48 83 c0 08          	add    $0x8,%rax
   13496:	48 89 85 30 fa ff ff 	mov    %rax,-0x5d0(%rbp)
   1349d:	48 8d 85 c0 f0 ff ff 	lea    -0xf40(%rbp),%rax
   134a4:	48 83 c0 18          	add    $0x18,%rax
   134a8:	48 89 85 38 fa ff ff 	mov    %rax,-0x5c8(%rbp)
   134af:	48 8d 85 c0 f0 ff ff 	lea    -0xf40(%rbp),%rax
   134b6:	48 83 c0 08          	add    $0x8,%rax
   134ba:	48 89 85 40 fa ff ff 	mov    %rax,-0x5c0(%rbp)
   134c1:	48 c7 85 48 fa ff ff 	movq   $0x0,-0x5b8(%rbp)
   134c8:	00 00 00 00 
   134cc:	48 8d 85 c0 f0 ff ff 	lea    -0xf40(%rbp),%rax
   134d3:	48 83 c0 08          	add    $0x8,%rax
   134d7:	48 89 85 50 fa ff ff 	mov    %rax,-0x5b0(%rbp)
   134de:	48 8d 85 c0 f0 ff ff 	lea    -0xf40(%rbp),%rax
   134e5:	48 83 c0 08          	add    $0x8,%rax
   134e9:	48 89 85 58 fa ff ff 	mov    %rax,-0x5a8(%rbp)
   134f0:	48 8d 85 c0 f0 ff ff 	lea    -0xf40(%rbp),%rax
   134f7:	48 83 c0 08          	add    $0x8,%rax
   134fb:	48 89 85 60 fa ff ff 	mov    %rax,-0x5a0(%rbp)
   13502:	48 8d 85 c0 f0 ff ff 	lea    -0xf40(%rbp),%rax
   13509:	48 83 c0 08          	add    $0x8,%rax
   1350d:	48 89 85 68 fa ff ff 	mov    %rax,-0x598(%rbp)
   13514:	48 c7 85 70 fa ff ff 	movq   $0x0,-0x590(%rbp)
   1351b:	00 00 00 00 
   1351f:	48 8d 85 c0 f0 ff ff 	lea    -0xf40(%rbp),%rax
   13526:	48 83 c0 18          	add    $0x18,%rax
   1352a:	48 89 85 78 fa ff ff 	mov    %rax,-0x588(%rbp)
   13531:	48 8d 85 c0 f0 ff ff 	lea    -0xf40(%rbp),%rax
   13538:	48 83 c0 08          	add    $0x8,%rax
   1353c:	48 89 85 80 fa ff ff 	mov    %rax,-0x580(%rbp)
   13543:	48 8d 85 c0 f0 ff ff 	lea    -0xf40(%rbp),%rax
   1354a:	48 83 c0 08          	add    $0x8,%rax
   1354e:	48 89 85 88 fa ff ff 	mov    %rax,-0x578(%rbp)
   13555:	48 8d 85 c0 f0 ff ff 	lea    -0xf40(%rbp),%rax
   1355c:	48 83 c0 10          	add    $0x10,%rax
   13560:	48 89 85 90 fa ff ff 	mov    %rax,-0x570(%rbp)
   13567:	48 8d 85 c0 f0 ff ff 	lea    -0xf40(%rbp),%rax
   1356e:	48 83 c0 10          	add    $0x10,%rax
   13572:	48 89 85 98 fa ff ff 	mov    %rax,-0x568(%rbp)
   13579:	48 8d 85 c0 f0 ff ff 	lea    -0xf40(%rbp),%rax
   13580:	48 83 c0 08          	add    $0x8,%rax
   13584:	48 89 85 a0 fa ff ff 	mov    %rax,-0x560(%rbp)
   1358b:	48 8d 85 c0 f0 ff ff 	lea    -0xf40(%rbp),%rax
   13592:	48 83 c0 08          	add    $0x8,%rax
   13596:	48 89 85 a8 fa ff ff 	mov    %rax,-0x558(%rbp)
   1359d:	48 8d 85 c0 f0 ff ff 	lea    -0xf40(%rbp),%rax
   135a4:	48 83 c0 08          	add    $0x8,%rax
   135a8:	48 89 85 b0 fa ff ff 	mov    %rax,-0x550(%rbp)
   135af:	48 8d 85 c0 f0 ff ff 	lea    -0xf40(%rbp),%rax
   135b6:	48 83 c0 10          	add    $0x10,%rax
   135ba:	48 89 85 b8 fa ff ff 	mov    %rax,-0x548(%rbp)
   135c1:	48 8d 85 c0 f0 ff ff 	lea    -0xf40(%rbp),%rax
   135c8:	48 83 c0 08          	add    $0x8,%rax
   135cc:	48 89 85 c0 fa ff ff 	mov    %rax,-0x540(%rbp)
   135d3:	48 8d 85 c0 f0 ff ff 	lea    -0xf40(%rbp),%rax
   135da:	48 83 c0 08          	add    $0x8,%rax
   135de:	48 89 85 c8 fa ff ff 	mov    %rax,-0x538(%rbp)
   135e5:	48 8d 85 c0 f0 ff ff 	lea    -0xf40(%rbp),%rax
   135ec:	48 83 c0 08          	add    $0x8,%rax
   135f0:	48 89 85 d0 fa ff ff 	mov    %rax,-0x530(%rbp)
   135f7:	48 c7 85 d8 fa ff ff 	movq   $0x0,-0x528(%rbp)
   135fe:	00 00 00 00 
   13602:	48 8d 85 c0 f0 ff ff 	lea    -0xf40(%rbp),%rax
   13609:	48 83 c0 08          	add    $0x8,%rax
   1360d:	48 89 85 e0 fa ff ff 	mov    %rax,-0x520(%rbp)
   13614:	48 8d 85 c0 f0 ff ff 	lea    -0xf40(%rbp),%rax
   1361b:	48 83 c0 08          	add    $0x8,%rax
   1361f:	48 89 85 e8 fa ff ff 	mov    %rax,-0x518(%rbp)
   13626:	48 8d 85 c0 f0 ff ff 	lea    -0xf40(%rbp),%rax
   1362d:	48 83 c0 08          	add    $0x8,%rax
   13631:	48 89 85 f0 fa ff ff 	mov    %rax,-0x510(%rbp)
   13638:	48 8d 85 c0 f0 ff ff 	lea    -0xf40(%rbp),%rax
   1363f:	48 83 c0 08          	add    $0x8,%rax
   13643:	48 89 85 f8 fa ff ff 	mov    %rax,-0x508(%rbp)
   1364a:	48 8d 85 c0 f0 ff ff 	lea    -0xf40(%rbp),%rax
   13651:	48 83 c0 08          	add    $0x8,%rax
   13655:	48 89 85 00 fb ff ff 	mov    %rax,-0x500(%rbp)
   1365c:	48 8d 85 c0 f0 ff ff 	lea    -0xf40(%rbp),%rax
   13663:	48 89 85 08 fb ff ff 	mov    %rax,-0x4f8(%rbp)
   1366a:	48 8d 85 c0 f0 ff ff 	lea    -0xf40(%rbp),%rax
   13671:	48 89 85 10 fb ff ff 	mov    %rax,-0x4f0(%rbp)
   13678:	48 8d 85 c0 f0 ff ff 	lea    -0xf40(%rbp),%rax
   1367f:	48 83 c0 08          	add    $0x8,%rax
   13683:	48 89 85 18 fb ff ff 	mov    %rax,-0x4e8(%rbp)
   1368a:	48 8d 85 c0 f0 ff ff 	lea    -0xf40(%rbp),%rax
   13691:	48 83 c0 08          	add    $0x8,%rax
   13695:	48 89 85 20 fb ff ff 	mov    %rax,-0x4e0(%rbp)
   1369c:	48 8d 85 c0 f0 ff ff 	lea    -0xf40(%rbp),%rax
   136a3:	48 83 c0 18          	add    $0x18,%rax
   136a7:	48 89 85 28 fb ff ff 	mov    %rax,-0x4d8(%rbp)
   136ae:	48 8d 85 c0 f0 ff ff 	lea    -0xf40(%rbp),%rax
   136b5:	48 83 c0 08          	add    $0x8,%rax
   136b9:	48 89 85 30 fb ff ff 	mov    %rax,-0x4d0(%rbp)
   136c0:	48 8d 85 c0 f0 ff ff 	lea    -0xf40(%rbp),%rax
   136c7:	48 83 c0 08          	add    $0x8,%rax
   136cb:	48 89 85 38 fb ff ff 	mov    %rax,-0x4c8(%rbp)
   136d2:	48 8d 85 c0 f0 ff ff 	lea    -0xf40(%rbp),%rax
   136d9:	48 83 c0 08          	add    $0x8,%rax
   136dd:	48 89 85 40 fb ff ff 	mov    %rax,-0x4c0(%rbp)
   136e4:	48 8d 85 c0 f0 ff ff 	lea    -0xf40(%rbp),%rax
   136eb:	48 83 c0 08          	add    $0x8,%rax
   136ef:	48 89 85 48 fb ff ff 	mov    %rax,-0x4b8(%rbp)
   136f6:	48 8d 85 c0 f0 ff ff 	lea    -0xf40(%rbp),%rax
   136fd:	48 83 c0 08          	add    $0x8,%rax
   13701:	48 89 85 50 fb ff ff 	mov    %rax,-0x4b0(%rbp)
   13708:	48 8d 85 c0 f0 ff ff 	lea    -0xf40(%rbp),%rax
   1370f:	48 83 c0 10          	add    $0x10,%rax
   13713:	48 89 85 58 fb ff ff 	mov    %rax,-0x4a8(%rbp)
   1371a:	48 8d 85 c0 f0 ff ff 	lea    -0xf40(%rbp),%rax
   13721:	48 83 c0 08          	add    $0x8,%rax
   13725:	48 89 85 60 fb ff ff 	mov    %rax,-0x4a0(%rbp)
   1372c:	48 8d 85 c0 f0 ff ff 	lea    -0xf40(%rbp),%rax
   13733:	48 83 c0 08          	add    $0x8,%rax
   13737:	48 89 85 68 fb ff ff 	mov    %rax,-0x498(%rbp)
   1373e:	48 8d 85 c0 f0 ff ff 	lea    -0xf40(%rbp),%rax
   13745:	48 83 c0 08          	add    $0x8,%rax
   13749:	48 89 85 70 fb ff ff 	mov    %rax,-0x490(%rbp)
   13750:	48 c7 85 78 fb ff ff 	movq   $0x0,-0x488(%rbp)
   13757:	00 00 00 00 
   1375b:	48 8d 85 c0 f0 ff ff 	lea    -0xf40(%rbp),%rax
   13762:	48 83 c0 10          	add    $0x10,%rax
   13766:	48 89 85 80 fb ff ff 	mov    %rax,-0x480(%rbp)
   1376d:	48 8d 85 c0 f0 ff ff 	lea    -0xf40(%rbp),%rax
   13774:	48 83 c0 08          	add    $0x8,%rax
   13778:	48 89 85 88 fb ff ff 	mov    %rax,-0x478(%rbp)
   1377f:	48 8d 85 c0 f0 ff ff 	lea    -0xf40(%rbp),%rax
   13786:	48 83 c0 08          	add    $0x8,%rax
   1378a:	48 89 85 90 fb ff ff 	mov    %rax,-0x470(%rbp)
   13791:	48 8d 85 c0 f0 ff ff 	lea    -0xf40(%rbp),%rax
   13798:	48 83 c0 08          	add    $0x8,%rax
   1379c:	48 89 85 98 fb ff ff 	mov    %rax,-0x468(%rbp)
   137a3:	48 8d 85 c0 f0 ff ff 	lea    -0xf40(%rbp),%rax
   137aa:	48 83 c0 10          	add    $0x10,%rax
   137ae:	48 89 85 a0 fb ff ff 	mov    %rax,-0x460(%rbp)
   137b5:	48 8d 85 c0 f0 ff ff 	lea    -0xf40(%rbp),%rax
   137bc:	48 83 c0 18          	add    $0x18,%rax
   137c0:	48 89 85 a8 fb ff ff 	mov    %rax,-0x458(%rbp)
   137c7:	48 8d 85 c0 f0 ff ff 	lea    -0xf40(%rbp),%rax
   137ce:	48 83 c0 08          	add    $0x8,%rax
   137d2:	48 89 85 b0 fb ff ff 	mov    %rax,-0x450(%rbp)
   137d9:	48 8d 85 c0 f0 ff ff 	lea    -0xf40(%rbp),%rax
   137e0:	48 83 c0 18          	add    $0x18,%rax
   137e4:	48 89 85 b8 fb ff ff 	mov    %rax,-0x448(%rbp)
   137eb:	48 8d 85 c0 f0 ff ff 	lea    -0xf40(%rbp),%rax
   137f2:	48 83 c0 08          	add    $0x8,%rax
   137f6:	48 89 85 c0 fb ff ff 	mov    %rax,-0x440(%rbp)
   137fd:	48 8d 85 c0 f0 ff ff 	lea    -0xf40(%rbp),%rax
   13804:	48 89 85 c8 fb ff ff 	mov    %rax,-0x438(%rbp)
   1380b:	48 8d 85 c0 f0 ff ff 	lea    -0xf40(%rbp),%rax
   13812:	48 83 c0 08          	add    $0x8,%rax
   13816:	48 89 85 d0 fb ff ff 	mov    %rax,-0x430(%rbp)
   1381d:	48 8d 85 c0 f0 ff ff 	lea    -0xf40(%rbp),%rax
   13824:	48 89 85 d8 fb ff ff 	mov    %rax,-0x428(%rbp)
   1382b:	48 8d 85 c0 f0 ff ff 	lea    -0xf40(%rbp),%rax
   13832:	48 83 c0 08          	add    $0x8,%rax
   13836:	48 89 85 e0 fb ff ff 	mov    %rax,-0x420(%rbp)
   1383d:	48 8d 85 c0 f0 ff ff 	lea    -0xf40(%rbp),%rax
   13844:	48 83 c0 08          	add    $0x8,%rax
   13848:	48 89 85 e8 fb ff ff 	mov    %rax,-0x418(%rbp)
   1384f:	48 8d 85 c0 f0 ff ff 	lea    -0xf40(%rbp),%rax
   13856:	48 83 c0 10          	add    $0x10,%rax
   1385a:	48 89 85 f0 fb ff ff 	mov    %rax,-0x410(%rbp)
   13861:	48 8d 85 c0 f0 ff ff 	lea    -0xf40(%rbp),%rax
   13868:	48 83 c0 08          	add    $0x8,%rax
   1386c:	48 89 85 f8 fb ff ff 	mov    %rax,-0x408(%rbp)
   13873:	48 8d 85 c0 f0 ff ff 	lea    -0xf40(%rbp),%rax
   1387a:	48 83 c0 08          	add    $0x8,%rax
   1387e:	48 89 85 00 fc ff ff 	mov    %rax,-0x400(%rbp)
   13885:	48 8d 85 c0 f0 ff ff 	lea    -0xf40(%rbp),%rax
   1388c:	48 83 c0 08          	add    $0x8,%rax
   13890:	48 89 85 08 fc ff ff 	mov    %rax,-0x3f8(%rbp)
   13897:	48 8d 85 c0 f0 ff ff 	lea    -0xf40(%rbp),%rax
   1389e:	48 83 c0 08          	add    $0x8,%rax
   138a2:	48 89 85 10 fc ff ff 	mov    %rax,-0x3f0(%rbp)
   138a9:	48 8d 85 c0 f0 ff ff 	lea    -0xf40(%rbp),%rax
   138b0:	48 83 c0 08          	add    $0x8,%rax
   138b4:	48 89 85 18 fc ff ff 	mov    %rax,-0x3e8(%rbp)
   138bb:	48 8d 85 c0 f0 ff ff 	lea    -0xf40(%rbp),%rax
   138c2:	48 83 c0 08          	add    $0x8,%rax
   138c6:	48 89 85 20 fc ff ff 	mov    %rax,-0x3e0(%rbp)
   138cd:	48 8d 85 c0 f0 ff ff 	lea    -0xf40(%rbp),%rax
   138d4:	48 83 c0 08          	add    $0x8,%rax
   138d8:	48 89 85 28 fc ff ff 	mov    %rax,-0x3d8(%rbp)
   138df:	48 8d 85 c0 f0 ff ff 	lea    -0xf40(%rbp),%rax
   138e6:	48 83 c0 08          	add    $0x8,%rax
   138ea:	48 89 85 30 fc ff ff 	mov    %rax,-0x3d0(%rbp)
   138f1:	48 8d 85 c0 f0 ff ff 	lea    -0xf40(%rbp),%rax
   138f8:	48 89 85 38 fc ff ff 	mov    %rax,-0x3c8(%rbp)
   138ff:	48 8d 85 c0 f0 ff ff 	lea    -0xf40(%rbp),%rax
   13906:	48 83 c0 08          	add    $0x8,%rax
   1390a:	48 89 85 40 fc ff ff 	mov    %rax,-0x3c0(%rbp)
   13911:	48 8d 85 c0 f0 ff ff 	lea    -0xf40(%rbp),%rax
   13918:	48 83 c0 08          	add    $0x8,%rax
   1391c:	48 89 85 48 fc ff ff 	mov    %rax,-0x3b8(%rbp)
   13923:	48 8d 85 c0 f0 ff ff 	lea    -0xf40(%rbp),%rax
   1392a:	48 83 c0 08          	add    $0x8,%rax
   1392e:	48 89 85 50 fc ff ff 	mov    %rax,-0x3b0(%rbp)
   13935:	48 8d 85 c0 f0 ff ff 	lea    -0xf40(%rbp),%rax
   1393c:	48 83 c0 08          	add    $0x8,%rax
   13940:	48 89 85 58 fc ff ff 	mov    %rax,-0x3a8(%rbp)
   13947:	48 8d 85 c0 f0 ff ff 	lea    -0xf40(%rbp),%rax
   1394e:	48 83 c0 08          	add    $0x8,%rax
   13952:	48 89 85 60 fc ff ff 	mov    %rax,-0x3a0(%rbp)
   13959:	48 8d 85 c0 f0 ff ff 	lea    -0xf40(%rbp),%rax
   13960:	48 83 c0 08          	add    $0x8,%rax
   13964:	48 89 85 68 fc ff ff 	mov    %rax,-0x398(%rbp)
   1396b:	48 8d 85 c0 f0 ff ff 	lea    -0xf40(%rbp),%rax
   13972:	48 83 c0 10          	add    $0x10,%rax
   13976:	48 89 85 70 fc ff ff 	mov    %rax,-0x390(%rbp)
   1397d:	48 8d 85 c0 f0 ff ff 	lea    -0xf40(%rbp),%rax
   13984:	48 83 c0 10          	add    $0x10,%rax
   13988:	48 89 85 78 fc ff ff 	mov    %rax,-0x388(%rbp)
   1398f:	48 8d 85 c0 f0 ff ff 	lea    -0xf40(%rbp),%rax
   13996:	48 83 c0 08          	add    $0x8,%rax
   1399a:	48 89 85 80 fc ff ff 	mov    %rax,-0x380(%rbp)
   139a1:	48 c7 85 88 fc ff ff 	movq   $0x0,-0x378(%rbp)
   139a8:	00 00 00 00 
   139ac:	48 8d 85 c0 f0 ff ff 	lea    -0xf40(%rbp),%rax
   139b3:	48 83 c0 08          	add    $0x8,%rax
   139b7:	48 89 85 90 fc ff ff 	mov    %rax,-0x370(%rbp)
   139be:	48 8d 85 c0 f0 ff ff 	lea    -0xf40(%rbp),%rax
   139c5:	48 83 c0 08          	add    $0x8,%rax
   139c9:	48 89 85 98 fc ff ff 	mov    %rax,-0x368(%rbp)
   139d0:	48 c7 85 a0 fc ff ff 	movq   $0x0,-0x360(%rbp)
   139d7:	00 00 00 00 
   139db:	48 8d 85 c0 f0 ff ff 	lea    -0xf40(%rbp),%rax
   139e2:	48 83 c0 08          	add    $0x8,%rax
   139e6:	48 89 85 a8 fc ff ff 	mov    %rax,-0x358(%rbp)
   139ed:	48 8d 85 c0 f0 ff ff 	lea    -0xf40(%rbp),%rax
   139f4:	48 83 c0 08          	add    $0x8,%rax
   139f8:	48 89 85 b0 fc ff ff 	mov    %rax,-0x350(%rbp)
   139ff:	48 8d 85 c0 f0 ff ff 	lea    -0xf40(%rbp),%rax
   13a06:	48 83 c0 08          	add    $0x8,%rax
   13a0a:	48 89 85 b8 fc ff ff 	mov    %rax,-0x348(%rbp)
   13a11:	c7 05 65 c7 00 00 00 	movl   $0x0,0xc765(%rip)        # 20180 <g_41>
   13a18:	00 00 00 
   13a1b:	e9 92 00 00 00       	jmpq   13ab2 <func_116+0x5d62>
   13a20:	c7 05 b6 c8 00 00 00 	movl   $0x0,0xc8b6(%rip)        # 202e0 <g_168>
   13a27:	00 00 00 
   13a2a:	eb 6c                	jmp    13a98 <func_116+0x5d48>
   13a2c:	48 c7 05 79 cc 00 00 	movq   $0x0,0xcc79(%rip)        # 206b0 <g_390>
   13a33:	00 00 00 00 
   13a37:	eb 44                	jmp    13a7d <func_116+0x5d2d>
   13a39:	8b 0d 41 c7 00 00    	mov    0xc741(%rip),%ecx        # 20180 <g_41>
   13a3f:	8b 05 9b c8 00 00    	mov    0xc89b(%rip),%eax        # 202e0 <g_168>
   13a45:	48 8b 15 64 cc 00 00 	mov    0xcc64(%rip),%rdx        # 206b0 <g_390>
   13a4c:	48 98                	cltq   
   13a4e:	48 63 c9             	movslq %ecx,%rcx
   13a51:	48 01 c9             	add    %rcx,%rcx
   13a54:	48 01 ca             	add    %rcx,%rdx
   13a57:	48 01 d0             	add    %rdx,%rax
   13a5a:	48 8d 14 00          	lea    (%rax,%rax,1),%rdx
   13a5e:	48 8d 05 9b ca 00 00 	lea    0xca9b(%rip),%rax        # 20500 <g_363>
   13a65:	66 c7 04 02 f7 ff    	movw   $0xfff7,(%rdx,%rax,1)
   13a6b:	48 8b 05 3e cc 00 00 	mov    0xcc3e(%rip),%rax        # 206b0 <g_390>
   13a72:	48 83 c0 01          	add    $0x1,%rax
   13a76:	48 89 05 33 cc 00 00 	mov    %rax,0xcc33(%rip)        # 206b0 <g_390>
   13a7d:	48 8b 05 2c cc 00 00 	mov    0xcc2c(%rip),%rax        # 206b0 <g_390>
   13a84:	48 85 c0             	test   %rax,%rax
   13a87:	74 b0                	je     13a39 <func_116+0x5ce9>
   13a89:	8b 05 51 c8 00 00    	mov    0xc851(%rip),%eax        # 202e0 <g_168>
   13a8f:	83 c0 01             	add    $0x1,%eax
   13a92:	89 05 48 c8 00 00    	mov    %eax,0xc848(%rip)        # 202e0 <g_168>
   13a98:	8b 05 42 c8 00 00    	mov    0xc842(%rip),%eax        # 202e0 <g_168>
   13a9e:	83 f8 01             	cmp    $0x1,%eax
   13aa1:	7e 89                	jle    13a2c <func_116+0x5cdc>
   13aa3:	8b 05 d7 c6 00 00    	mov    0xc6d7(%rip),%eax        # 20180 <g_41>
   13aa9:	83 c0 01             	add    $0x1,%eax
   13aac:	89 05 ce c6 00 00    	mov    %eax,0xc6ce(%rip)        # 20180 <g_41>
   13ab2:	8b 05 c8 c6 00 00    	mov    0xc6c8(%rip),%eax        # 20180 <g_41>
   13ab8:	83 f8 06             	cmp    $0x6,%eax
   13abb:	0f 8e 5f ff ff ff    	jle    13a20 <func_116+0x5cd0>
   13ac1:	8b 85 b0 e4 ff ff    	mov    -0x1b50(%rbp),%eax
   13ac7:	85 c0                	test   %eax,%eax
   13ac9:	74 05                	je     13ad0 <func_116+0x5d80>
   13acb:	e9 e5 a8 ff ff       	jmpq   e3b5 <func_116+0x665>
   13ad0:	48 8b 85 80 fb ff ff 	mov    -0x480(%rbp),%rax
   13ad7:	48 89 85 60 e6 ff ff 	mov    %rax,-0x19a0(%rbp)
   13ade:	48 8b 85 38 e6 ff ff 	mov    -0x19c8(%rbp),%rax
   13ae5:	8b 00                	mov    (%rax),%eax
   13ae7:	85 c0                	test   %eax,%eax
   13ae9:	74 1e                	je     13b09 <func_116+0x5db9>
   13aeb:	90                   	nop
   13aec:	48 8b 05 f5 33 01 00 	mov    0x133f5(%rip),%rax        # 26ee8 <g_931>
   13af3:	48 8d 95 10 e6 ff ff 	lea    -0x19f0(%rbp),%rdx
   13afa:	48 89 10             	mov    %rdx,(%rax)
   13afd:	48 8b 85 68 e4 ff ff 	mov    -0x1b98(%rbp),%rax
   13b04:	e9 0a 15 00 00       	jmpq   15013 <func_116+0x72c3>
   13b09:	c7 85 f0 e4 ff ff 11 	movl   $0x120ed811,-0x1b10(%rbp)
   13b10:	d8 0e 12 
   13b13:	48 8d 05 4e 32 01 00 	lea    0x1324e(%rip),%rax        # 26d68 <g_232>
   13b1a:	48 89 85 68 e7 ff ff 	mov    %rax,-0x1898(%rbp)
   13b21:	48 8d 05 30 33 01 00 	lea    0x13330(%rip),%rax        # 26e58 <g_775+0x8>
   13b28:	48 89 85 70 e7 ff ff 	mov    %rax,-0x1890(%rbp)
   13b2f:	48 8d 85 40 f8 ff ff 	lea    -0x7c0(%rbp),%rax
   13b36:	48 8d 15 a3 2b 01 00 	lea    0x12ba3(%rip),%rdx        # 266e0 <g_2314+0x1838>
   13b3d:	b9 50 00 00 00       	mov    $0x50,%ecx
   13b42:	48 89 c7             	mov    %rax,%rdi
   13b45:	48 89 d6             	mov    %rdx,%rsi
   13b48:	f3 48 a5             	rep movsq %ds:(%rsi),%es:(%rdi)
   13b4b:	c7 85 20 e6 ff ff ee 	movl   $0x55062cee,-0x19e0(%rbp)
   13b52:	2c 06 55 
   13b55:	c7 85 74 e5 ff ff c9 	movl   $0x57646fc9,-0x1a8c(%rbp)
   13b5c:	6f 64 57 
   13b5f:	c7 85 78 e5 ff ff ed 	movl   $0x505a89ed,-0x1a88(%rbp)
   13b66:	89 5a 50 
   13b69:	c7 85 7c e5 ff ff 85 	movl   $0x68051685,-0x1a84(%rbp)
   13b70:	16 05 68 
   13b73:	c7 85 80 e5 ff ff 05 	movl   $0x5,-0x1a80(%rbp)
   13b7a:	00 00 00 
   13b7d:	c7 85 84 e5 ff ff 5d 	movl   $0xa4d9335d,-0x1a7c(%rbp)
   13b84:	33 d9 a4 
   13b87:	c7 85 88 e5 ff ff 01 	movl   $0x1,-0x1a78(%rbp)
   13b8e:	00 00 00 
   13b91:	c7 85 8c e5 ff ff c9 	movl   $0xff31a1c9,-0x1a74(%rbp)
   13b98:	a1 31 ff 
   13b9b:	c7 85 90 e5 ff ff d2 	movl   $0x7bd877d2,-0x1a70(%rbp)
   13ba2:	77 d8 7b 
   13ba5:	66 c7 85 9c e4 ff ff 	movw   $0xbc3e,-0x1b64(%rbp)
   13bac:	3e bc 
   13bae:	c7 85 94 e5 ff ff 91 	movl   $0x760ccb91,-0x1a6c(%rbp)
   13bb5:	cb 0c 76 
   13bb8:	c7 85 dc e4 ff ff 00 	movl   $0x0,-0x1b24(%rbp)
   13bbf:	00 00 00 
   13bc2:	eb 1a                	jmp    13bde <func_116+0x5e8e>
   13bc4:	8b 85 dc e4 ff ff    	mov    -0x1b24(%rbp),%eax
   13bca:	48 98                	cltq   
   13bcc:	c7 84 85 30 ea ff ff 	movl   $0x0,-0x15d0(%rbp,%rax,4)
   13bd3:	00 00 00 00 
   13bd7:	83 85 dc e4 ff ff 01 	addl   $0x1,-0x1b24(%rbp)
   13bde:	83 bd dc e4 ff ff 00 	cmpl   $0x0,-0x1b24(%rbp)
   13be5:	7e dd                	jle    13bc4 <func_116+0x5e74>
   13be7:	c7 85 10 e6 ff ff 9e 	movl   $0xc2ffee9e,-0x19f0(%rbp)
   13bee:	ee ff c2 
   13bf1:	48 8b 05 28 32 01 00 	mov    0x13228(%rip),%rax        # 26e20 <g_555>
   13bf8:	48 8b 00             	mov    (%rax),%rax
   13bfb:	0f b6 00             	movzbl (%rax),%eax
   13bfe:	44 0f b6 e8          	movzbl %al,%r13d
   13c02:	48 8b 05 2f 32 01 00 	mov    0x1322f(%rip),%rax        # 26e38 <g_682>
   13c09:	8b 00                	mov    (%rax),%eax
   13c0b:	41 89 c6             	mov    %eax,%r14d
   13c0e:	8b 85 10 e6 ff ff    	mov    -0x19f0(%rbp),%eax
   13c14:	89 c2                	mov    %eax,%edx
   13c16:	48 83 bd c8 e6 ff ff 	cmpq   $0x0,-0x1938(%rbp)
   13c1d:	00 
   13c1e:	0f 95 c0             	setne  %al
   13c21:	0f b6 c0             	movzbl %al,%eax
   13c24:	89 d6                	mov    %edx,%esi
   13c26:	89 c7                	mov    %eax,%edi
   13c28:	e8 d0 32 ff ff       	callq  6efd <safe_mod_func_uint32_t_u_u>
   13c2d:	0f be d8             	movsbl %al,%ebx
   13c30:	8b 85 f0 e4 ff ff    	mov    -0x1b10(%rbp),%eax
   13c36:	48 89 c6             	mov    %rax,%rsi
   13c39:	48 c7 c7 ff ff ff ff 	mov    $0xffffffffffffffff,%rdi
   13c40:	e8 fc 2b ff ff       	callq  6841 <safe_add_func_int64_t_s_s>
   13c45:	44 0f be e0          	movsbl %al,%r12d
   13c49:	48 8b 05 78 32 01 00 	mov    0x13278(%rip),%rax        # 26ec8 <g_891>
   13c50:	48 8b 00             	mov    (%rax),%rax
   13c53:	48 8b 00             	mov    (%rax),%rax
   13c56:	0f b6 10             	movzbl (%rax),%edx
   13c59:	8d 4a 01             	lea    0x1(%rdx),%ecx
   13c5c:	88 08                	mov    %cl,(%rax)
   13c5e:	0f b6 c2             	movzbl %dl,%eax
   13c61:	be 02 00 00 00       	mov    $0x2,%esi
   13c66:	89 c7                	mov    %eax,%edi
   13c68:	e8 20 30 ff ff       	callq  6c8d <safe_rshift_func_uint8_t_u_s>
   13c6d:	83 f0 5d             	xor    $0x5d,%eax
   13c70:	0f be c0             	movsbl %al,%eax
   13c73:	44 89 e6             	mov    %r12d,%esi
   13c76:	89 c7                	mov    %eax,%edi
   13c78:	e8 95 25 ff ff       	callq  6212 <safe_mul_func_int8_t_s_s>
   13c7d:	0f be d0             	movsbl %al,%edx
   13c80:	8b 85 10 e6 ff ff    	mov    -0x19f0(%rbp),%eax
   13c86:	39 c2                	cmp    %eax,%edx
   13c88:	0f 9e c0             	setle  %al
   13c8b:	0f b6 c0             	movzbl %al,%eax
   13c8e:	89 de                	mov    %ebx,%esi
   13c90:	89 c7                	mov    %eax,%edi
   13c92:	e8 3d 25 ff ff       	callq  61d4 <safe_add_func_int8_t_s_s>
   13c97:	48 8d 05 32 32 01 00 	lea    0x13232(%rip),%rax        # 26ed0 <g_907>
   13c9e:	48 89 85 c0 e6 ff ff 	mov    %rax,-0x1940(%rbp)
   13ca5:	44 89 f6             	mov    %r14d,%esi
   13ca8:	bf 00 00 00 00       	mov    $0x0,%edi
   13cad:	e8 4d 2a ff ff       	callq  66ff <safe_div_func_int32_t_s_s>
   13cb2:	44 21 e8             	and    %r13d,%eax
   13cb5:	48 98                	cltq   
   13cb7:	48 39 85 68 e4 ff ff 	cmp    %rax,-0x1b98(%rbp)
   13cbe:	48 8b 95 68 e4 ff ff 	mov    -0x1b98(%rbp),%rdx
   13cc5:	48 8b 85 38 e6 ff ff 	mov    -0x19c8(%rbp),%rax
   13ccc:	8b 00                	mov    (%rax),%eax
   13cce:	89 c1                	mov    %eax,%ecx
   13cd0:	89 d0                	mov    %edx,%eax
   13cd2:	09 c1                	or     %eax,%ecx
   13cd4:	89 ca                	mov    %ecx,%edx
   13cd6:	48 8b 85 38 e6 ff ff 	mov    -0x19c8(%rbp),%rax
   13cdd:	89 10                	mov    %edx,(%rax)
   13cdf:	48 8b 95 38 e6 ff ff 	mov    -0x19c8(%rbp),%rdx
   13ce6:	48 8b 85 68 e7 ff ff 	mov    -0x1898(%rbp),%rax
   13ced:	48 89 10             	mov    %rdx,(%rax)
   13cf0:	48 8b 05 31 31 01 00 	mov    0x13131(%rip),%rax        # 26e28 <g_606>
   13cf7:	0f b6 00             	movzbl (%rax),%eax
   13cfa:	3c 36                	cmp    $0x36,%al
   13cfc:	0f 9f c0             	setg   %al
   13cff:	0f b6 d0             	movzbl %al,%edx
   13d02:	48 8b 85 98 e6 ff ff 	mov    -0x1968(%rbp),%rax
   13d09:	48 89 10             	mov    %rdx,(%rax)
   13d0c:	48 8b 85 98 e6 ff ff 	mov    -0x1968(%rbp),%rax
   13d13:	48 8b 10             	mov    (%rax),%rdx
   13d16:	48 8b 85 68 e4 ff ff 	mov    -0x1b98(%rbp),%rax
   13d1d:	48 89 d6             	mov    %rdx,%rsi
   13d20:	48 89 c7             	mov    %rax,%rdi
   13d23:	e8 06 33 ff ff       	callq  702e <safe_add_func_uint64_t_u_u>
   13d28:	89 c2                	mov    %eax,%edx
   13d2a:	48 8b 05 67 30 01 00 	mov    0x13067(%rip),%rax        # 26d98 <g_466>
   13d31:	8b 00                	mov    (%rax),%eax
   13d33:	89 d6                	mov    %edx,%esi
   13d35:	89 c7                	mov    %eax,%edi
   13d37:	e8 7c 31 ff ff       	callq  6eb8 <safe_add_func_uint32_t_u_u>
   13d3c:	85 c0                	test   %eax,%eax
   13d3e:	0f 84 23 02 00 00    	je     13f67 <func_116+0x6217>
   13d44:	48 8d 05 ad 31 01 00 	lea    0x131ad(%rip),%rax        # 26ef8 <g_957>
   13d4b:	48 89 85 20 e8 ff ff 	mov    %rax,-0x17e0(%rbp)
   13d52:	48 8d 05 3e c9 00 00 	lea    0xc93e(%rip),%rax        # 20697 <g_385+0x17>
   13d59:	48 89 85 28 e8 ff ff 	mov    %rax,-0x17d8(%rbp)
   13d60:	48 8d 05 d9 30 01 00 	lea    0x130d9(%rip),%rax        # 26e40 <g_684>
   13d67:	48 89 85 40 e6 ff ff 	mov    %rax,-0x19c0(%rbp)
   13d6e:	48 8d 85 40 e6 ff ff 	lea    -0x19c0(%rbp),%rax
   13d75:	48 89 85 30 e8 ff ff 	mov    %rax,-0x17d0(%rbp)
   13d7c:	8b 85 7c e4 ff ff    	mov    -0x1b84(%rbp),%eax
   13d82:	0f be d8             	movsbl %al,%ebx
   13d85:	48 8b 15 6c 31 01 00 	mov    0x1316c(%rip),%rdx        # 26ef8 <g_957>
   13d8c:	48 8b 85 20 e8 ff ff 	mov    -0x17e0(%rbp),%rax
   13d93:	48 89 10             	mov    %rdx,(%rax)
   13d96:	48 8b 85 20 e8 ff ff 	mov    -0x17e0(%rbp),%rax
   13d9d:	48 8b 10             	mov    (%rax),%rdx
   13da0:	48 8b 05 39 31 01 00 	mov    0x13139(%rip),%rax        # 26ee0 <g_905>
   13da7:	48 8b 00             	mov    (%rax),%rax
   13daa:	48 39 c2             	cmp    %rax,%rdx
   13dad:	8b 05 19 c7 00 00    	mov    0xc719(%rip),%eax        # 204cc <g_342+0xc>
   13db3:	48 8b 85 68 e7 ff ff 	mov    -0x1898(%rbp),%rax
   13dba:	48 8b 00             	mov    (%rax),%rax
   13dbd:	8b 10                	mov    (%rax),%edx
   13dbf:	48 8d 85 a0 ea ff ff 	lea    -0x1560(%rbp),%rax
   13dc6:	48 83 c0 48          	add    $0x48,%rax
   13dca:	48 39 85 70 e7 ff ff 	cmp    %rax,-0x1890(%rbp)
   13dd1:	0f 94 c0             	sete   %al
   13dd4:	0f b6 c0             	movzbl %al,%eax
   13dd7:	39 c2                	cmp    %eax,%edx
   13dd9:	0f 94 c0             	sete   %al
   13ddc:	44 0f b6 e8          	movzbl %al,%r13d
   13de0:	48 8b 85 68 e4 ff ff 	mov    -0x1b98(%rbp),%rax
   13de7:	44 0f b6 e0          	movzbl %al,%r12d
   13deb:	8b 85 10 e6 ff ff    	mov    -0x19f0(%rbp),%eax
   13df1:	0f b6 d0             	movzbl %al,%edx
   13df4:	48 8b 85 68 e7 ff ff 	mov    -0x1898(%rbp),%rax
   13dfb:	48 8b 00             	mov    (%rax),%rax
   13dfe:	8b 00                	mov    (%rax),%eax
   13e00:	48 98                	cltq   
   13e02:	48 39 85 68 e4 ff ff 	cmp    %rax,-0x1b98(%rbp)
   13e09:	74 14                	je     13e1f <func_116+0x60cf>
   13e0b:	48 8b 05 26 30 01 00 	mov    0x13026(%rip),%rax        # 26e38 <g_682>
   13e12:	8b 00                	mov    (%rax),%eax
   13e14:	85 c0                	test   %eax,%eax
   13e16:	74 07                	je     13e1f <func_116+0x60cf>
   13e18:	b9 01 00 00 00       	mov    $0x1,%ecx
   13e1d:	eb 05                	jmp    13e24 <func_116+0x60d4>
   13e1f:	b9 00 00 00 00       	mov    $0x0,%ecx
   13e24:	48 8b 05 fd 2f 01 00 	mov    0x12ffd(%rip),%rax        # 26e28 <g_606>
   13e2b:	0f b6 00             	movzbl (%rax),%eax
   13e2e:	0f be c0             	movsbl %al,%eax
   13e31:	39 c1                	cmp    %eax,%ecx
   13e33:	0f 94 c0             	sete   %al
   13e36:	f7 d0                	not    %eax
   13e38:	0f b6 c0             	movzbl %al,%eax
   13e3b:	89 d6                	mov    %edx,%esi
   13e3d:	89 c7                	mov    %eax,%edi
   13e3f:	e8 97 2d ff ff       	callq  6bdb <safe_div_func_uint8_t_u_u>
   13e44:	44 89 e6             	mov    %r12d,%esi
   13e47:	bf 6c 00 00 00       	mov    $0x6c,%edi
   13e4c:	e8 8a 2d ff ff       	callq  6bdb <safe_div_func_uint8_t_u_u>
   13e51:	84 c0                	test   %al,%al
   13e53:	74 11                	je     13e66 <func_116+0x6116>
   13e55:	8b 85 7c e4 ff ff    	mov    -0x1b84(%rbp),%eax
   13e5b:	85 c0                	test   %eax,%eax
   13e5d:	74 07                	je     13e66 <func_116+0x6116>
   13e5f:	b8 01 00 00 00       	mov    $0x1,%eax
   13e64:	eb 05                	jmp    13e6b <func_116+0x611b>
   13e66:	b8 00 00 00 00       	mov    $0x0,%eax
   13e6b:	44 39 e8             	cmp    %r13d,%eax
   13e6e:	0f 9e c0             	setle  %al
   13e71:	0f b6 d0             	movzbl %al,%edx
   13e74:	8b 85 7c e4 ff ff    	mov    -0x1b84(%rbp),%eax
   13e7a:	31 d0                	xor    %edx,%eax
   13e7c:	83 f8 01             	cmp    $0x1,%eax
   13e7f:	48 8b 05 42 30 01 00 	mov    0x13042(%rip),%rax        # 26ec8 <g_891>
   13e86:	48 8b 00             	mov    (%rax),%rax
   13e89:	48 39 85 70 e6 ff ff 	cmp    %rax,-0x1990(%rbp)
   13e90:	0f 94 c0             	sete   %al
   13e93:	0f b6 c0             	movzbl %al,%eax
   13e96:	be 06 00 00 00       	mov    $0x6,%esi
   13e9b:	89 c7                	mov    %eax,%edi
   13e9d:	e8 1c 2e ff ff       	callq  6cbe <safe_rshift_func_uint8_t_u_u>
   13ea2:	89 de                	mov    %ebx,%esi
   13ea4:	bf 00 00 00 00       	mov    $0x0,%edi
   13ea9:	e8 26 23 ff ff       	callq  61d4 <safe_add_func_int8_t_s_s>
   13eae:	48 0f be c0          	movsbq %al,%rax
   13eb2:	48 39 85 68 e4 ff ff 	cmp    %rax,-0x1b98(%rbp)
   13eb9:	0f 92 c0             	setb   %al
   13ebc:	0f b6 d0             	movzbl %al,%edx
   13ebf:	48 8b 85 28 e8 ff ff 	mov    -0x17d8(%rbp),%rax
   13ec6:	89 10                	mov    %edx,(%rax)
   13ec8:	0f b6 95 8b e4 ff ff 	movzbl -0x1b75(%rbp),%edx
   13ecf:	48 8b 85 e0 e5 ff ff 	mov    -0x1a20(%rbp),%rax
   13ed6:	8b 08                	mov    (%rax),%ecx
   13ed8:	0f be d2             	movsbl %dl,%edx
   13edb:	48 8b 85 e0 e5 ff ff 	mov    -0x1a20(%rbp),%rax
   13ee2:	21 ca                	and    %ecx,%edx
   13ee4:	89 10                	mov    %edx,(%rax)
   13ee6:	48 8b 85 30 e8 ff ff 	mov    -0x17d0(%rbp),%rax
   13eed:	48 8d 15 4c 2f 01 00 	lea    0x12f4c(%rip),%rdx        # 26e40 <g_684>
   13ef4:	48 89 10             	mov    %rdx,(%rax)
   13ef7:	8b 05 bf c5 00 00    	mov    0xc5bf(%rip),%eax        # 204bc <g_332>
   13efd:	85 c0                	test   %eax,%eax
   13eff:	74 05                	je     13f06 <func_116+0x61b6>
   13f01:	e9 a3 e7 ff ff       	jmpq   126a9 <func_116+0x4959>
   13f06:	c7 85 f0 e4 ff ff 00 	movl   $0x0,-0x1b10(%rbp)
   13f0d:	00 00 00 
   13f10:	eb 47                	jmp    13f59 <func_116+0x6209>
   13f12:	8b 85 f0 e4 ff ff    	mov    -0x1b10(%rbp),%eax
   13f18:	48 8d 14 c5 00 00 00 	lea    0x0(,%rax,8),%rdx
   13f1f:	00 
   13f20:	48 8d 05 79 2f 01 00 	lea    0x12f79(%rip),%rax        # 26ea0 <g_815>
   13f27:	48 8b 04 02          	mov    (%rdx,%rax,1),%rax
   13f2b:	8b 95 f0 e4 ff ff    	mov    -0x1b10(%rbp),%edx
   13f31:	48 8d 0c d5 00 00 00 	lea    0x0(,%rdx,8),%rcx
   13f38:	00 
   13f39:	48 8d 15 60 2f 01 00 	lea    0x12f60(%rip),%rdx        # 26ea0 <g_815>
   13f40:	48 89 04 11          	mov    %rax,(%rcx,%rdx,1)
   13f44:	48 8b 85 70 f9 ff ff 	mov    -0x690(%rbp),%rax
   13f4b:	48 89 85 58 f0 ff ff 	mov    %rax,-0xfa8(%rbp)
   13f52:	83 85 f0 e4 ff ff 01 	addl   $0x1,-0x1b10(%rbp)
   13f59:	83 bd f0 e4 ff ff 01 	cmpl   $0x1,-0x1b10(%rbp)
   13f60:	76 b0                	jbe    13f12 <func_116+0x61c2>
   13f62:	e9 37 05 00 00       	jmpq   1449e <func_116+0x674e>
   13f67:	66 c7 85 60 ea ff ff 	movw   $0x7cd,-0x15a0(%rbp)
   13f6e:	cd 07 
   13f70:	66 c7 85 62 ea ff ff 	movw   $0x7cd,-0x159e(%rbp)
   13f77:	cd 07 
   13f79:	66 c7 85 64 ea ff ff 	movw   $0x7cd,-0x159c(%rbp)
   13f80:	cd 07 
   13f82:	66 c7 85 66 ea ff ff 	movw   $0x7cd,-0x159a(%rbp)
   13f89:	cd 07 
   13f8b:	66 c7 85 68 ea ff ff 	movw   $0x7cd,-0x1598(%rbp)
   13f92:	cd 07 
   13f94:	66 c7 85 6a ea ff ff 	movw   $0x7cd,-0x1596(%rbp)
   13f9b:	cd 07 
   13f9d:	66 c7 85 6c ea ff ff 	movw   $0x7cd,-0x1594(%rbp)
   13fa4:	cd 07 
   13fa6:	66 c7 85 6e ea ff ff 	movw   $0x7cd,-0x1592(%rbp)
   13fad:	cd 07 
   13faf:	66 c7 85 70 ea ff ff 	movw   $0x7cd,-0x1590(%rbp)
   13fb6:	cd 07 
   13fb8:	66 c7 85 72 ea ff ff 	movw   $0x7cd,-0x158e(%rbp)
   13fbf:	cd 07 
   13fc1:	48 8d 85 20 e6 ff ff 	lea    -0x19e0(%rbp),%rax
   13fc8:	48 89 85 78 e7 ff ff 	mov    %rax,-0x1888(%rbp)
   13fcf:	48 c7 85 80 e7 ff ff 	movq   $0x0,-0x1880(%rbp)
   13fd6:	00 00 00 00 
   13fda:	48 8d 85 20 e6 ff ff 	lea    -0x19e0(%rbp),%rax
   13fe1:	48 89 85 88 e7 ff ff 	mov    %rax,-0x1878(%rbp)
   13fe8:	48 8d 85 00 ea ff ff 	lea    -0x1600(%rbp),%rax
   13fef:	48 83 c0 20          	add    $0x20,%rax
   13ff3:	48 89 85 90 e7 ff ff 	mov    %rax,-0x1870(%rbp)
   13ffa:	48 8d 85 00 ea ff ff 	lea    -0x1600(%rbp),%rax
   14001:	48 83 c0 20          	add    $0x20,%rax
   14005:	48 89 85 98 e7 ff ff 	mov    %rax,-0x1868(%rbp)
   1400c:	48 8d 85 00 ea ff ff 	lea    -0x1600(%rbp),%rax
   14013:	48 83 c0 20          	add    $0x20,%rax
   14017:	48 89 85 a0 e7 ff ff 	mov    %rax,-0x1860(%rbp)
   1401e:	48 c7 85 a8 e7 ff ff 	movq   $0x0,-0x1858(%rbp)
   14025:	00 00 00 00 
   14029:	48 8d 85 00 ea ff ff 	lea    -0x1600(%rbp),%rax
   14030:	48 83 c0 20          	add    $0x20,%rax
   14034:	48 89 85 b0 e7 ff ff 	mov    %rax,-0x1850(%rbp)
   1403b:	c7 85 98 e5 ff ff 00 	movl   $0x0,-0x1a68(%rbp)
   14042:	00 00 00 
   14045:	48 8d 05 6c c6 00 00 	lea    0xc66c(%rip),%rax        # 206b8 <g_402>
   1404c:	48 89 85 b8 e7 ff ff 	mov    %rax,-0x1848(%rbp)
   14053:	48 8d 85 ac e4 ff ff 	lea    -0x1b54(%rbp),%rax
   1405a:	48 89 85 c0 e7 ff ff 	mov    %rax,-0x1840(%rbp)
   14061:	48 8d 05 70 c2 00 00 	lea    0xc270(%rip),%rax        # 202d8 <g_142>
   14068:	48 89 85 c8 e7 ff ff 	mov    %rax,-0x1838(%rbp)
   1406f:	48 8d 85 10 e6 ff ff 	lea    -0x19f0(%rbp),%rax
   14076:	48 89 85 d0 e7 ff ff 	mov    %rax,-0x1830(%rbp)
   1407d:	48 8d 85 20 e6 ff ff 	lea    -0x19e0(%rbp),%rax
   14084:	48 89 85 c0 f0 ff ff 	mov    %rax,-0xf40(%rbp)
   1408b:	48 c7 85 c8 f0 ff ff 	movq   $0x0,-0xf38(%rbp)
   14092:	00 00 00 00 
   14096:	48 8d 85 20 e6 ff ff 	lea    -0x19e0(%rbp),%rax
   1409d:	48 89 85 d0 f0 ff ff 	mov    %rax,-0xf30(%rbp)
   140a4:	48 8d 85 20 e6 ff ff 	lea    -0x19e0(%rbp),%rax
   140ab:	48 89 85 d8 f0 ff ff 	mov    %rax,-0xf28(%rbp)
   140b2:	48 c7 85 e0 f0 ff ff 	movq   $0x0,-0xf20(%rbp)
   140b9:	00 00 00 00 
   140bd:	48 8d 85 20 e6 ff ff 	lea    -0x19e0(%rbp),%rax
   140c4:	48 89 85 e8 f0 ff ff 	mov    %rax,-0xf18(%rbp)
   140cb:	48 8d 85 20 e6 ff ff 	lea    -0x19e0(%rbp),%rax
   140d2:	48 89 85 f0 f0 ff ff 	mov    %rax,-0xf10(%rbp)
   140d9:	48 c7 85 f8 f0 ff ff 	movq   $0x0,-0xf08(%rbp)
   140e0:	00 00 00 00 
   140e4:	48 8d 85 20 e6 ff ff 	lea    -0x19e0(%rbp),%rax
   140eb:	48 89 85 00 f1 ff ff 	mov    %rax,-0xf00(%rbp)
   140f2:	48 8d 85 20 e6 ff ff 	lea    -0x19e0(%rbp),%rax
   140f9:	48 89 85 08 f1 ff ff 	mov    %rax,-0xef8(%rbp)
   14100:	48 c7 85 10 f1 ff ff 	movq   $0x0,-0xef0(%rbp)
   14107:	00 00 00 00 
   1410b:	48 8d 85 20 e6 ff ff 	lea    -0x19e0(%rbp),%rax
   14112:	48 89 85 18 f1 ff ff 	mov    %rax,-0xee8(%rbp)
   14119:	48 8d 85 20 e6 ff ff 	lea    -0x19e0(%rbp),%rax
   14120:	48 89 85 20 f1 ff ff 	mov    %rax,-0xee0(%rbp)
   14127:	48 c7 85 28 f1 ff ff 	movq   $0x0,-0xed8(%rbp)
   1412e:	00 00 00 00 
   14132:	48 8d 85 20 e6 ff ff 	lea    -0x19e0(%rbp),%rax
   14139:	48 89 85 30 f1 ff ff 	mov    %rax,-0xed0(%rbp)
   14140:	48 8d 85 20 e6 ff ff 	lea    -0x19e0(%rbp),%rax
   14147:	48 89 85 38 f1 ff ff 	mov    %rax,-0xec8(%rbp)
   1414e:	48 c7 85 40 f1 ff ff 	movq   $0x0,-0xec0(%rbp)
   14155:	00 00 00 00 
   14159:	48 8d 85 20 e6 ff ff 	lea    -0x19e0(%rbp),%rax
   14160:	48 89 85 48 f1 ff ff 	mov    %rax,-0xeb8(%rbp)
   14167:	48 8d 85 20 e6 ff ff 	lea    -0x19e0(%rbp),%rax
   1416e:	48 89 85 50 f1 ff ff 	mov    %rax,-0xeb0(%rbp)
   14175:	48 c7 85 58 f1 ff ff 	movq   $0x0,-0xea8(%rbp)
   1417c:	00 00 00 00 
   14180:	48 8d 85 20 e6 ff ff 	lea    -0x19e0(%rbp),%rax
   14187:	48 89 85 60 f1 ff ff 	mov    %rax,-0xea0(%rbp)
   1418e:	48 8d 85 20 e6 ff ff 	lea    -0x19e0(%rbp),%rax
   14195:	48 89 85 68 f1 ff ff 	mov    %rax,-0xe98(%rbp)
   1419c:	48 c7 85 70 f1 ff ff 	movq   $0x0,-0xe90(%rbp)
   141a3:	00 00 00 00 
   141a7:	48 8d 85 20 e6 ff ff 	lea    -0x19e0(%rbp),%rax
   141ae:	48 89 85 78 f1 ff ff 	mov    %rax,-0xe88(%rbp)
   141b5:	48 8d 85 20 e6 ff ff 	lea    -0x19e0(%rbp),%rax
   141bc:	48 89 85 80 f1 ff ff 	mov    %rax,-0xe80(%rbp)
   141c3:	48 c7 85 88 f1 ff ff 	movq   $0x0,-0xe78(%rbp)
   141ca:	00 00 00 00 
   141ce:	48 8d 85 20 e6 ff ff 	lea    -0x19e0(%rbp),%rax
   141d5:	48 89 85 90 f1 ff ff 	mov    %rax,-0xe70(%rbp)
   141dc:	48 8d 85 20 e6 ff ff 	lea    -0x19e0(%rbp),%rax
   141e3:	48 89 85 98 f1 ff ff 	mov    %rax,-0xe68(%rbp)
   141ea:	48 c7 85 a0 f1 ff ff 	movq   $0x0,-0xe60(%rbp)
   141f1:	00 00 00 00 
   141f5:	48 8d 85 20 e6 ff ff 	lea    -0x19e0(%rbp),%rax
   141fc:	48 89 85 a8 f1 ff ff 	mov    %rax,-0xe58(%rbp)
   14203:	48 8d 85 20 e6 ff ff 	lea    -0x19e0(%rbp),%rax
   1420a:	48 89 85 b0 f1 ff ff 	mov    %rax,-0xe50(%rbp)
   14211:	48 c7 85 b8 f1 ff ff 	movq   $0x0,-0xe48(%rbp)
   14218:	00 00 00 00 
   1421c:	48 8d 85 20 e6 ff ff 	lea    -0x19e0(%rbp),%rax
   14223:	48 89 85 c0 f1 ff ff 	mov    %rax,-0xe40(%rbp)
   1422a:	48 8d 85 20 e6 ff ff 	lea    -0x19e0(%rbp),%rax
   14231:	48 89 85 c8 f1 ff ff 	mov    %rax,-0xe38(%rbp)
   14238:	48 c7 85 d0 f1 ff ff 	movq   $0x0,-0xe30(%rbp)
   1423f:	00 00 00 00 
   14243:	48 8d 85 20 e6 ff ff 	lea    -0x19e0(%rbp),%rax
   1424a:	48 89 85 d8 f1 ff ff 	mov    %rax,-0xe28(%rbp)
   14251:	48 8d 85 20 e6 ff ff 	lea    -0x19e0(%rbp),%rax
   14258:	48 89 85 e0 f1 ff ff 	mov    %rax,-0xe20(%rbp)
   1425f:	48 c7 85 e8 f1 ff ff 	movq   $0x0,-0xe18(%rbp)
   14266:	00 00 00 00 
   1426a:	48 8d 85 20 e6 ff ff 	lea    -0x19e0(%rbp),%rax
   14271:	48 89 85 f0 f1 ff ff 	mov    %rax,-0xe10(%rbp)
   14278:	48 8d 85 20 e6 ff ff 	lea    -0x19e0(%rbp),%rax
   1427f:	48 89 85 f8 f1 ff ff 	mov    %rax,-0xe08(%rbp)
   14286:	48 c7 85 00 f2 ff ff 	movq   $0x0,-0xe00(%rbp)
   1428d:	00 00 00 00 
   14291:	48 8d 85 20 e6 ff ff 	lea    -0x19e0(%rbp),%rax
   14298:	48 89 85 08 f2 ff ff 	mov    %rax,-0xdf8(%rbp)
   1429f:	48 8d 85 20 e6 ff ff 	lea    -0x19e0(%rbp),%rax
   142a6:	48 89 85 10 f2 ff ff 	mov    %rax,-0xdf0(%rbp)
   142ad:	48 c7 85 18 f2 ff ff 	movq   $0x0,-0xde8(%rbp)
   142b4:	00 00 00 00 
   142b8:	48 8d 85 20 e6 ff ff 	lea    -0x19e0(%rbp),%rax
   142bf:	48 89 85 20 f2 ff ff 	mov    %rax,-0xde0(%rbp)
   142c6:	48 8d 85 20 e6 ff ff 	lea    -0x19e0(%rbp),%rax
   142cd:	48 89 85 28 f2 ff ff 	mov    %rax,-0xdd8(%rbp)
   142d4:	48 c7 85 30 f2 ff ff 	movq   $0x0,-0xdd0(%rbp)
   142db:	00 00 00 00 
   142df:	48 8d 85 20 e6 ff ff 	lea    -0x19e0(%rbp),%rax
   142e6:	48 89 85 38 f2 ff ff 	mov    %rax,-0xdc8(%rbp)
   142ed:	48 8d 85 20 e6 ff ff 	lea    -0x19e0(%rbp),%rax
   142f4:	48 89 85 40 f2 ff ff 	mov    %rax,-0xdc0(%rbp)
   142fb:	48 c7 85 48 f2 ff ff 	movq   $0x0,-0xdb8(%rbp)
   14302:	00 00 00 00 
   14306:	48 8d 85 20 e6 ff ff 	lea    -0x19e0(%rbp),%rax
   1430d:	48 89 85 50 f2 ff ff 	mov    %rax,-0xdb0(%rbp)
   14314:	48 8d 85 20 e6 ff ff 	lea    -0x19e0(%rbp),%rax
   1431b:	48 89 85 58 f2 ff ff 	mov    %rax,-0xda8(%rbp)
   14322:	48 c7 85 60 f2 ff ff 	movq   $0x0,-0xda0(%rbp)
   14329:	00 00 00 00 
   1432d:	48 8d 85 20 e6 ff ff 	lea    -0x19e0(%rbp),%rax
   14334:	48 89 85 68 f2 ff ff 	mov    %rax,-0xd98(%rbp)
   1433b:	48 8d 85 20 e6 ff ff 	lea    -0x19e0(%rbp),%rax
   14342:	48 89 85 70 f2 ff ff 	mov    %rax,-0xd90(%rbp)
   14349:	48 c7 85 78 f2 ff ff 	movq   $0x0,-0xd88(%rbp)
   14350:	00 00 00 00 
   14354:	48 8d 85 20 e6 ff ff 	lea    -0x19e0(%rbp),%rax
   1435b:	48 89 85 80 f2 ff ff 	mov    %rax,-0xd80(%rbp)
   14362:	48 8d 85 20 e6 ff ff 	lea    -0x19e0(%rbp),%rax
   14369:	48 89 85 88 f2 ff ff 	mov    %rax,-0xd78(%rbp)
   14370:	48 c7 85 90 f2 ff ff 	movq   $0x0,-0xd70(%rbp)
   14377:	00 00 00 00 
   1437b:	48 8d 85 20 e6 ff ff 	lea    -0x19e0(%rbp),%rax
   14382:	48 89 85 98 f2 ff ff 	mov    %rax,-0xd68(%rbp)
   14389:	66 c7 85 9e e4 ff ff 	movw   $0x9,-0x1b62(%rbp)
   14390:	09 00 
   14392:	66 c7 05 79 c2 00 00 	movw   $0x0,0xc279(%rip)        # 20614 <g_380>
   14399:	00 00 
   1439b:	90                   	nop
   1439c:	0f b7 05 71 c2 00 00 	movzwl 0xc271(%rip),%eax        # 20614 <g_380>
   143a3:	66 83 f8 1b          	cmp    $0x1b,%ax
   143a7:	0f 86 ea 00 00 00    	jbe    14497 <func_116+0x6747>
   143ad:	48 8d 05 04 c3 00 00 	lea    0xc304(%rip),%rax        # 206b8 <g_402>
   143b4:	48 89 85 d8 e7 ff ff 	mov    %rax,-0x1828(%rbp)
   143bb:	48 8d 05 f6 c2 00 00 	lea    0xc2f6(%rip),%rax        # 206b8 <g_402>
   143c2:	48 89 85 e0 e7 ff ff 	mov    %rax,-0x1820(%rbp)
   143c9:	48 c7 85 e8 e7 ff ff 	movq   $0x0,-0x1818(%rbp)
   143d0:	00 00 00 00 
   143d4:	48 8d 85 ac e4 ff ff 	lea    -0x1b54(%rbp),%rax
   143db:	48 89 85 f0 e7 ff ff 	mov    %rax,-0x1810(%rbp)
   143e2:	48 8d 85 00 ea ff ff 	lea    -0x1600(%rbp),%rax
   143e9:	48 89 85 f8 e7 ff ff 	mov    %rax,-0x1808(%rbp)
   143f0:	48 8d 85 10 e6 ff ff 	lea    -0x19f0(%rbp),%rax
   143f7:	48 89 85 00 e8 ff ff 	mov    %rax,-0x1800(%rbp)
   143fe:	48 c7 85 08 e8 ff ff 	movq   $0x0,-0x17f8(%rbp)
   14405:	00 00 00 00 
   14409:	48 8d 85 ac e4 ff ff 	lea    -0x1b54(%rbp),%rax
   14410:	48 89 85 10 e8 ff ff 	mov    %rax,-0x17f0(%rbp)
   14417:	48 8d 85 20 e6 ff ff 	lea    -0x19e0(%rbp),%rax
   1441e:	48 89 85 18 e8 ff ff 	mov    %rax,-0x17e8(%rbp)
   14425:	c7 85 9c e5 ff ff 00 	movl   $0x0,-0x1a64(%rbp)
   1442c:	00 00 00 
   1442f:	c7 85 e0 e4 ff ff 00 	movl   $0x0,-0x1b20(%rbp)
   14436:	00 00 00 
   14439:	eb 1e                	jmp    14459 <func_116+0x6709>
   1443b:	8b 85 e0 e4 ff ff    	mov    -0x1b20(%rbp),%eax
   14441:	48 98                	cltq   
   14443:	48 8d 95 b4 e4 ff ff 	lea    -0x1b4c(%rbp),%rdx
   1444a:	48 89 94 c5 10 ec ff 	mov    %rdx,-0x13f0(%rbp,%rax,8)
   14451:	ff 
   14452:	83 85 e0 e4 ff ff 01 	addl   $0x1,-0x1b20(%rbp)
   14459:	83 bd e0 e4 ff ff 02 	cmpl   $0x2,-0x1b20(%rbp)
   14460:	7e d9                	jle    1443b <func_116+0x66eb>
   14462:	0f b7 85 68 ea ff ff 	movzwl -0x1598(%rbp),%eax
   14469:	83 c0 01             	add    $0x1,%eax
   1446c:	66 89 85 68 ea ff ff 	mov    %ax,-0x1598(%rbp)
   14473:	0f b7 05 90 c1 00 00 	movzwl 0xc190(%rip),%eax        # 2060a <g_375>
   1447a:	66 85 c0             	test   %ax,%ax
   1447d:	0f 85 69 f6 ff ff    	jne    13aec <func_116+0x5d9c>
   14483:	83 85 d0 e4 ff ff 01 	addl   $0x1,-0x1b30(%rbp)
   1448a:	8b 85 10 e6 ff ff    	mov    -0x19f0(%rbp),%eax
   14490:	48 98                	cltq   
   14492:	e9 7c 0b 00 00       	jmpq   15013 <func_116+0x72c3>
   14497:	83 ad 94 e5 ff ff 01 	subl   $0x1,-0x1a6c(%rbp)
   1449e:	48 8b 85 d0 e6 ff ff 	mov    -0x1930(%rbp),%rax
   144a5:	48 89 85 d0 ea ff ff 	mov    %rax,-0x1530(%rbp)
   144ac:	0f b6 85 8c e4 ff ff 	movzbl -0x1b74(%rbp),%eax
   144b3:	e9 5b 0b 00 00       	jmpq   15013 <func_116+0x72c3>
   144b8:	48 c7 85 a0 e6 ff ff 	movq   $0xffffffffffffffff,-0x1960(%rbp)
   144bf:	ff ff ff ff 
   144c3:	48 8d 05 f6 29 01 00 	lea    0x129f6(%rip),%rax        # 26ec0 <g_892>
   144ca:	48 89 85 18 e7 ff ff 	mov    %rax,-0x18e8(%rbp)
   144d1:	48 c7 85 20 e7 ff ff 	movq   $0x0,-0x18e0(%rbp)
   144d8:	00 00 00 00 
   144dc:	48 8d 05 d5 c1 00 00 	lea    0xc1d5(%rip),%rax        # 206b8 <g_402>
   144e3:	48 89 85 40 f8 ff ff 	mov    %rax,-0x7c0(%rbp)
   144ea:	48 8d 05 c7 c1 00 00 	lea    0xc1c7(%rip),%rax        # 206b8 <g_402>
   144f1:	48 89 85 48 f8 ff ff 	mov    %rax,-0x7b8(%rbp)
   144f8:	48 8d 05 b9 c1 00 00 	lea    0xc1b9(%rip),%rax        # 206b8 <g_402>
   144ff:	48 89 85 50 f8 ff ff 	mov    %rax,-0x7b0(%rbp)
   14506:	48 8d 05 ab c1 00 00 	lea    0xc1ab(%rip),%rax        # 206b8 <g_402>
   1450d:	48 89 85 58 f8 ff ff 	mov    %rax,-0x7a8(%rbp)
   14514:	48 83 bd 68 e4 ff ff 	cmpq   $0x0,-0x1b98(%rbp)
   1451b:	00 
   1451c:	74 20                	je     1453e <func_116+0x67ee>
   1451e:	48 8b 85 a0 e6 ff ff 	mov    -0x1960(%rbp),%rax
   14525:	48 8d 50 01          	lea    0x1(%rax),%rdx
   14529:	48 89 95 a0 e6 ff ff 	mov    %rdx,-0x1960(%rbp)
   14530:	48 85 c0             	test   %rax,%rax
   14533:	74 09                	je     1453e <func_116+0x67ee>
   14535:	48 83 bd a0 e6 ff ff 	cmpq   $0x0,-0x1960(%rbp)
   1453c:	00 
   1453d:	90                   	nop
   1453e:	48 8b 85 68 e4 ff ff 	mov    -0x1b98(%rbp),%rax
   14545:	0f b6 d8             	movzbl %al,%ebx
   14548:	48 8b 05 d9 28 01 00 	mov    0x128d9(%rip),%rax        # 26e28 <g_606>
   1454f:	0f b6 00             	movzbl (%rax),%eax
   14552:	44 0f be e0          	movsbl %al,%r12d
   14556:	48 8b 85 28 e6 ff ff 	mov    -0x19d8(%rbp),%rax
   1455d:	48 8d 15 40 c4 00 00 	lea    0xc440(%rip),%rdx        # 209a4 <g_602+0x244>
   14564:	48 89 10             	mov    %rdx,(%rax)
   14567:	48 8b 85 a0 e6 ff ff 	mov    -0x1960(%rbp),%rax
   1456e:	0f b7 d0             	movzwl %ax,%edx
   14571:	48 8b 05 c0 28 01 00 	mov    0x128c0(%rip),%rax        # 26e38 <g_682>
   14578:	8b 00                	mov    (%rax),%eax
   1457a:	85 c0                	test   %eax,%eax
   1457c:	74 07                	je     14585 <func_116+0x6835>
   1457e:	b8 01 00 00 00       	mov    $0x1,%eax
   14583:	eb 05                	jmp    1458a <func_116+0x683a>
   14585:	b8 00 00 00 00       	mov    $0x0,%eax
   1458a:	0f b7 c0             	movzwl %ax,%eax
   1458d:	89 d6                	mov    %edx,%esi
   1458f:	89 c7                	mov    %eax,%edi
   14591:	e8 a7 27 ff ff       	callq  6d3d <safe_mul_func_uint16_t_u_u>
   14596:	0f b7 d0             	movzwl %ax,%edx
   14599:	48 8b 05 88 28 01 00 	mov    0x12888(%rip),%rax        # 26e28 <g_606>
   145a0:	0f b6 00             	movzbl (%rax),%eax
   145a3:	0f be c0             	movsbl %al,%eax
   145a6:	31 c2                	xor    %eax,%edx
   145a8:	48 8b 85 78 e6 ff ff 	mov    -0x1988(%rbp),%rax
   145af:	8b 00                	mov    (%rax),%eax
   145b1:	21 c2                	and    %eax,%edx
   145b3:	48 8b 85 78 e6 ff ff 	mov    -0x1988(%rbp),%rax
   145ba:	89 10                	mov    %edx,(%rax)
   145bc:	48 8b 85 78 e6 ff ff 	mov    -0x1988(%rbp),%rax
   145c3:	8b 00                	mov    (%rax),%eax
   145c5:	be 01 00 00 00       	mov    $0x1,%esi
   145ca:	89 c7                	mov    %eax,%edi
   145cc:	e8 2c 29 ff ff       	callq  6efd <safe_mod_func_uint32_t_u_u>
   145d1:	48 8b 05 08 29 01 00 	mov    0x12908(%rip),%rax        # 26ee0 <g_905>
   145d8:	48 8b 00             	mov    (%rax),%rax
   145db:	48 8b 00             	mov    (%rax),%rax
   145de:	48 c7 00 fb ff ff ff 	movq   $0xfffffffffffffffb,(%rax)
   145e5:	48 8b 10             	mov    (%rax),%rdx
   145e8:	8b 85 08 ed ff ff    	mov    -0x12f8(%rbp),%eax
   145ee:	21 d0                	and    %edx,%eax
   145f0:	89 85 08 ed ff ff    	mov    %eax,-0x12f8(%rbp)
   145f6:	8b 85 08 ed ff ff    	mov    -0x12f8(%rbp),%eax
   145fc:	89 85 18 e6 ff ff    	mov    %eax,-0x19e8(%rbp)
   14602:	48 8b 85 18 e7 ff ff 	mov    -0x18e8(%rbp),%rax
   14609:	48 3b 85 d8 e6 ff ff 	cmp    -0x1928(%rbp),%rax
   14610:	0f 95 c0             	setne  %al
   14613:	0f b6 c0             	movzbl %al,%eax
   14616:	be 03 00 00 00       	mov    $0x3,%esi
   1461b:	89 c7                	mov    %eax,%edi
   1461d:	e8 bf 1e ff ff       	callq  64e1 <safe_lshift_func_int16_t_s_u>
   14622:	48 8b 85 e0 e5 ff ff 	mov    -0x1a20(%rbp),%rax
   14629:	8b 10                	mov    (%rax),%edx
   1462b:	0f b7 05 d2 bf 00 00 	movzwl 0xbfd2(%rip),%eax        # 20604 <g_373+0x4>
   14632:	0f b7 c0             	movzwl %ax,%eax
   14635:	39 c2                	cmp    %eax,%edx
   14637:	0f 9d c0             	setge  %al
   1463a:	0f b6 d0             	movzbl %al,%edx
   1463d:	8b 85 10 e6 ff ff    	mov    -0x19f0(%rbp),%eax
   14643:	31 d0                	xor    %edx,%eax
   14645:	89 85 10 e6 ff ff    	mov    %eax,-0x19f0(%rbp)
   1464b:	8b 85 10 e6 ff ff    	mov    -0x19f0(%rbp),%eax
   14651:	48 98                	cltq   
   14653:	48 39 85 68 e4 ff ff 	cmp    %rax,-0x1b98(%rbp)
   1465a:	0f 96 c0             	setbe  %al
   1465d:	0f b6 c0             	movzbl %al,%eax
   14660:	48 33 85 68 e4 ff ff 	xor    -0x1b98(%rbp),%rax
   14667:	ba 88 cc 09 aa       	mov    $0xaa09cc88,%edx
   1466c:	48 09 d0             	or     %rdx,%rax
   1466f:	48 89 c1             	mov    %rax,%rcx
   14672:	48 8b 05 0f 27 01 00 	mov    0x1270f(%rip),%rax        # 26d88 <g_334>
   14679:	48 8b 00             	mov    (%rax),%rax
   1467c:	48 8d 15 21 c3 00 00 	lea    0xc321(%rip),%rdx        # 209a4 <g_602+0x244>
   14683:	48 39 d0             	cmp    %rdx,%rax
   14686:	0f 94 c0             	sete   %al
   14689:	0f b6 d0             	movzbl %al,%edx
   1468c:	8b 05 46 bc 00 00    	mov    0xbc46(%rip),%eax        # 202d8 <g_142>
   14692:	09 c8                	or     %ecx,%eax
   14694:	89 05 3e bc 00 00    	mov    %eax,0xbc3e(%rip)        # 202d8 <g_142>
   1469a:	8b 05 38 bc 00 00    	mov    0xbc38(%rip),%eax        # 202d8 <g_142>
   146a0:	39 85 08 e5 ff ff    	cmp    %eax,-0x1af8(%rbp)
   146a6:	0f 9d c0             	setge  %al
   146a9:	0f b6 c0             	movzbl %al,%eax
   146ac:	39 c2                	cmp    %eax,%edx
   146ae:	0f 9e c0             	setle  %al
   146b1:	0f b6 c0             	movzbl %al,%eax
   146b4:	44 89 e6             	mov    %r12d,%esi
   146b7:	89 c7                	mov    %eax,%edi
   146b9:	e8 cf 25 ff ff       	callq  6c8d <safe_rshift_func_uint8_t_u_s>
   146be:	0f b6 c0             	movzbl %al,%eax
   146c1:	89 de                	mov    %ebx,%esi
   146c3:	89 c7                	mov    %eax,%edi
   146c5:	e8 11 25 ff ff       	callq  6bdb <safe_div_func_uint8_t_u_u>
   146ca:	8b 85 7c e4 ff ff    	mov    -0x1b84(%rbp),%eax
   146d0:	85 c0                	test   %eax,%eax
   146d2:	74 07                	je     146db <func_116+0x698b>
   146d4:	b8 01 00 00 00       	mov    $0x1,%eax
   146d9:	eb 05                	jmp    146e0 <func_116+0x6990>
   146db:	b8 00 00 00 00       	mov    $0x0,%eax
   146e0:	35 f4 f7 00 00       	xor    $0xf7f4,%eax
   146e5:	89 c2                	mov    %eax,%edx
   146e7:	8b 85 7c e4 ff ff    	mov    -0x1b84(%rbp),%eax
   146ed:	39 c2                	cmp    %eax,%edx
   146ef:	0f 95 c2             	setne  %dl
   146f2:	48 8b 85 e0 e5 ff ff 	mov    -0x1a20(%rbp),%rax
   146f9:	0f b6 d2             	movzbl %dl,%edx
   146fc:	89 10                	mov    %edx,(%rax)
   146fe:	83 85 0c e5 ff ff 01 	addl   $0x1,-0x1af4(%rbp)
   14705:	48 8b 85 68 e4 ff ff 	mov    -0x1b98(%rbp),%rax
   1470c:	89 c3                	mov    %eax,%ebx
   1470e:	c7 85 10 ed ff ff 00 	movl   $0x0,-0x12f0(%rbp)
   14715:	00 00 00 
   14718:	8b 85 10 ed ff ff    	mov    -0x12f0(%rbp),%eax
   1471e:	89 c2                	mov    %eax,%edx
   14720:	48 8b 85 f0 e6 ff ff 	mov    -0x1910(%rbp),%rax
   14727:	66 89 10             	mov    %dx,(%rax)
   1472a:	48 8b 85 f0 e6 ff ff 	mov    -0x1910(%rbp),%rax
   14731:	0f b7 00             	movzwl (%rax),%eax
   14734:	0f b7 d0             	movzwl %ax,%edx
   14737:	48 8b 85 e0 e5 ff ff 	mov    -0x1a20(%rbp),%rax
   1473e:	8b 00                	mov    (%rax),%eax
   14740:	0f b7 c0             	movzwl %ax,%eax
   14743:	89 d6                	mov    %edx,%esi
   14745:	89 c7                	mov    %eax,%edi
   14747:	e8 42 26 ff ff       	callq  6d8e <safe_div_func_uint16_t_u_u>
   1474c:	0f b7 c0             	movzwl %ax,%eax
   1474f:	89 85 10 e6 ff ff    	mov    %eax,-0x19f0(%rbp)
   14755:	8b 85 10 e6 ff ff    	mov    -0x19f0(%rbp),%eax
   1475b:	85 c0                	test   %eax,%eax
   1475d:	74 11                	je     14770 <func_116+0x6a20>
   1475f:	48 83 bd 68 e4 ff ff 	cmpq   $0x0,-0x1b98(%rbp)
   14766:	00 
   14767:	75 07                	jne    14770 <func_116+0x6a20>
   14769:	b8 01 00 00 00       	mov    $0x1,%eax
   1476e:	eb 05                	jmp    14775 <func_116+0x6a25>
   14770:	b8 00 00 00 00       	mov    $0x0,%eax
   14775:	89 de                	mov    %ebx,%esi
   14777:	89 c7                	mov    %eax,%edi
   14779:	e8 3a 27 ff ff       	callq  6eb8 <safe_add_func_uint32_t_u_u>
   1477e:	8b 85 1c ed ff ff    	mov    -0x12e4(%rbp),%eax
   14784:	85 c0                	test   %eax,%eax
   14786:	0f 84 cd 06 00 00    	je     14e59 <func_116+0x7109>
   1478c:	48 8d 05 bd b8 00 00 	lea    0xb8bd(%rip),%rax        # 20050 <g_12>
   14793:	48 89 85 c0 f0 ff ff 	mov    %rax,-0xf40(%rbp)
   1479a:	48 8d 85 18 e6 ff ff 	lea    -0x19e8(%rbp),%rax
   147a1:	48 89 85 c8 f0 ff ff 	mov    %rax,-0xf38(%rbp)
   147a8:	48 8d 85 00 ed ff ff 	lea    -0x1300(%rbp),%rax
   147af:	48 83 c0 14          	add    $0x14,%rax
   147b3:	48 89 85 d0 f0 ff ff 	mov    %rax,-0xf30(%rbp)
   147ba:	48 8d 85 18 e6 ff ff 	lea    -0x19e8(%rbp),%rax
   147c1:	48 89 85 d8 f0 ff ff 	mov    %rax,-0xf28(%rbp)
   147c8:	48 8d 05 81 b8 00 00 	lea    0xb881(%rip),%rax        # 20050 <g_12>
   147cf:	48 89 85 e0 f0 ff ff 	mov    %rax,-0xf20(%rbp)
   147d6:	48 8d 05 73 b8 00 00 	lea    0xb873(%rip),%rax        # 20050 <g_12>
   147dd:	48 89 85 e8 f0 ff ff 	mov    %rax,-0xf18(%rbp)
   147e4:	48 8d 85 00 ed ff ff 	lea    -0x1300(%rbp),%rax
   147eb:	48 83 c0 14          	add    $0x14,%rax
   147ef:	48 89 85 f0 f0 ff ff 	mov    %rax,-0xf10(%rbp)
   147f6:	48 8d 05 53 b8 00 00 	lea    0xb853(%rip),%rax        # 20050 <g_12>
   147fd:	48 89 85 f8 f0 ff ff 	mov    %rax,-0xf08(%rbp)
   14804:	48 c7 85 00 f1 ff ff 	movq   $0x0,-0xf00(%rbp)
   1480b:	00 00 00 00 
   1480f:	48 c7 85 08 f1 ff ff 	movq   $0x0,-0xef8(%rbp)
   14816:	00 00 00 00 
   1481a:	48 8d 85 18 e6 ff ff 	lea    -0x19e8(%rbp),%rax
   14821:	48 89 85 10 f1 ff ff 	mov    %rax,-0xef0(%rbp)
   14828:	48 8d 05 15 b8 00 00 	lea    0xb815(%rip),%rax        # 20044 <g_5+0x14>
   1482f:	48 89 85 18 f1 ff ff 	mov    %rax,-0xee8(%rbp)
   14836:	48 8d 85 00 ed ff ff 	lea    -0x1300(%rbp),%rax
   1483d:	48 83 c0 14          	add    $0x14,%rax
   14841:	48 89 85 20 f1 ff ff 	mov    %rax,-0xee0(%rbp)
   14848:	48 8d 85 00 ed ff ff 	lea    -0x1300(%rbp),%rax
   1484f:	48 83 c0 14          	add    $0x14,%rax
   14853:	48 89 85 28 f1 ff ff 	mov    %rax,-0xed8(%rbp)
   1485a:	48 8d 05 e3 b7 00 00 	lea    0xb7e3(%rip),%rax        # 20044 <g_5+0x14>
   14861:	48 89 85 30 f1 ff ff 	mov    %rax,-0xed0(%rbp)
   14868:	48 8d 85 18 e6 ff ff 	lea    -0x19e8(%rbp),%rax
   1486f:	48 89 85 38 f1 ff ff 	mov    %rax,-0xec8(%rbp)
   14876:	48 c7 85 40 f1 ff ff 	movq   $0x0,-0xec0(%rbp)
   1487d:	00 00 00 00 
   14881:	48 c7 85 48 f1 ff ff 	movq   $0x0,-0xeb8(%rbp)
   14888:	00 00 00 00 
   1488c:	48 8d 05 bd b7 00 00 	lea    0xb7bd(%rip),%rax        # 20050 <g_12>
   14893:	48 89 85 50 f1 ff ff 	mov    %rax,-0xeb0(%rbp)
   1489a:	48 8d 85 00 ed ff ff 	lea    -0x1300(%rbp),%rax
   148a1:	48 83 c0 14          	add    $0x14,%rax
   148a5:	48 89 85 58 f1 ff ff 	mov    %rax,-0xea8(%rbp)
   148ac:	48 8d 05 9d b7 00 00 	lea    0xb79d(%rip),%rax        # 20050 <g_12>
   148b3:	48 89 85 60 f1 ff ff 	mov    %rax,-0xea0(%rbp)
   148ba:	48 8d 05 17 26 01 00 	lea    0x12617(%rip),%rax        # 26ed8 <g_906>
   148c1:	48 89 85 38 e7 ff ff 	mov    %rax,-0x18c8(%rbp)
   148c8:	48 c7 85 40 e7 ff ff 	movq   $0x0,-0x18c0(%rbp)
   148cf:	00 00 00 00 
   148d3:	c7 85 e4 e4 ff ff 00 	movl   $0x0,-0x1b1c(%rbp)
   148da:	00 00 00 
   148dd:	eb 1e                	jmp    148fd <func_116+0x6bad>
   148df:	8b 85 e4 e4 ff ff    	mov    -0x1b1c(%rbp),%eax
   148e5:	48 98                	cltq   
   148e7:	48 8d 95 e0 e5 ff ff 	lea    -0x1a20(%rbp),%rdx
   148ee:	48 89 94 c5 f0 ed ff 	mov    %rdx,-0x1210(%rbp,%rax,8)
   148f5:	ff 
   148f6:	83 85 e4 e4 ff ff 01 	addl   $0x1,-0x1b1c(%rbp)
   148fd:	83 bd e4 e4 ff ff 02 	cmpl   $0x2,-0x1b1c(%rbp)
   14904:	7e d9                	jle    148df <func_116+0x6b8f>
   14906:	48 8b 85 00 f1 ff ff 	mov    -0xf00(%rbp),%rax
   1490d:	48 89 85 e0 e5 ff ff 	mov    %rax,-0x1a20(%rbp)
   14914:	48 8b 85 e0 e5 ff ff 	mov    -0x1a20(%rbp),%rax
   1491b:	48 89 85 f8 e6 ff ff 	mov    %rax,-0x1908(%rbp)
   14922:	c6 05 03 be 00 00 07 	movb   $0x7,0xbe03(%rip)        # 2072c <g_544+0xc>
   14929:	e9 1a 05 00 00       	jmpq   14e48 <func_116+0x70f8>
   1492e:	66 c7 85 98 e4 ff ff 	movw   $0x9,-0x1b68(%rbp)
   14935:	09 00 
   14937:	c7 85 10 e5 ff ff 07 	movl   $0x7,-0x1af0(%rbp)
   1493e:	00 00 00 
   14941:	c7 85 14 e5 ff ff de 	movl   $0x4dd005de,-0x1aec(%rbp)
   14948:	05 d0 4d 
   1494b:	c7 85 18 e5 ff ff 3e 	movl   $0x1a59313e,-0x1ae8(%rbp)
   14952:	31 59 1a 
   14955:	48 8d 85 a0 ea ff ff 	lea    -0x1560(%rbp),%rax
   1495c:	48 83 c0 18          	add    $0x18,%rax
   14960:	48 89 85 48 e7 ff ff 	mov    %rax,-0x18b8(%rbp)
   14967:	48 8b 8d d0 e5 ff ff 	mov    -0x1a30(%rbp),%rcx
   1496e:	48 8b 05 4b c1 00 00 	mov    0xc14b(%rip),%rax        # 20ac0 <g_1084>
   14975:	48 8b 15 4c c1 00 00 	mov    0xc14c(%rip),%rdx        # 20ac8 <g_1084+0x8>
   1497c:	48 89 01             	mov    %rax,(%rcx)
   1497f:	48 89 51 08          	mov    %rdx,0x8(%rcx)
   14983:	8b 05 47 c1 00 00    	mov    0xc147(%rip),%eax        # 20ad0 <g_1084+0x10>
   14989:	89 41 10             	mov    %eax,0x10(%rcx)
   1498c:	66 c7 05 73 bc 00 00 	movw   $0x0,0xbc73(%rip)        # 20608 <g_374>
   14993:	00 00 
   14995:	e9 90 00 00 00       	jmpq   14a2a <func_116+0x6cda>
   1499a:	66 c7 05 35 bb 00 00 	movw   $0x0,0xbb35(%rip)        # 204d8 <g_354>
   149a1:	00 00 
   149a3:	90                   	nop
   149a4:	0f b7 05 2d bb 00 00 	movzwl 0xbb2d(%rip),%eax        # 204d8 <g_354>
   149ab:	66 83 f8 01          	cmp    $0x1,%ax
   149af:	77 37                	ja     149e8 <func_116+0x6c98>
   149b1:	0f b7 05 20 bb 00 00 	movzwl 0xbb20(%rip),%eax        # 204d8 <g_354>
   149b8:	0f b7 c0             	movzwl %ax,%eax
   149bb:	0f b7 15 16 bb 00 00 	movzwl 0xbb16(%rip),%edx        # 204d8 <g_354>
   149c2:	0f b7 d2             	movzwl %dx,%edx
   149c5:	48 63 ca             	movslq %edx,%rcx
   149c8:	48 63 d0             	movslq %eax,%rdx
   149cb:	48 89 d0             	mov    %rdx,%rax
   149ce:	48 01 c0             	add    %rax,%rax
   149d1:	48 01 d0             	add    %rdx,%rax
   149d4:	48 01 c0             	add    %rax,%rax
   149d7:	48 01 c8             	add    %rcx,%rax
   149da:	8b 84 85 00 ea ff ff 	mov    -0x1600(%rbp,%rax,4),%eax
   149e1:	48 98                	cltq   
   149e3:	e9 2b 06 00 00       	jmpq   15013 <func_116+0x72c3>
   149e8:	66 c7 05 2b bb 00 00 	movw   $0x0,0xbb2b(%rip)        # 2051c <g_364>
   149ef:	00 00 
   149f1:	eb 1a                	jmp    14a0d <func_116+0x6cbd>
   149f3:	66 c7 85 98 e4 ff ff 	movw   $0xb6fa,-0x1b68(%rbp)
   149fa:	fa b6 
   149fc:	0f b7 05 19 bb 00 00 	movzwl 0xbb19(%rip),%eax        # 2051c <g_364>
   14a03:	83 c0 01             	add    $0x1,%eax
   14a06:	66 89 05 0f bb 00 00 	mov    %ax,0xbb0f(%rip)        # 2051c <g_364>
   14a0d:	0f b7 05 08 bb 00 00 	movzwl 0xbb08(%rip),%eax        # 2051c <g_364>
   14a14:	66 85 c0             	test   %ax,%ax
   14a17:	74 da                	je     149f3 <func_116+0x6ca3>
   14a19:	0f b7 05 e8 bb 00 00 	movzwl 0xbbe8(%rip),%eax        # 20608 <g_374>
   14a20:	83 c0 01             	add    $0x1,%eax
   14a23:	66 89 05 de bb 00 00 	mov    %ax,0xbbde(%rip)        # 20608 <g_374>
   14a2a:	0f b7 05 d7 bb 00 00 	movzwl 0xbbd7(%rip),%eax        # 20608 <g_374>
   14a31:	66 83 f8 02          	cmp    $0x2,%ax
   14a35:	0f 86 5f ff ff ff    	jbe    1499a <func_116+0x6c4a>
   14a3b:	48 8b 05 46 23 01 00 	mov    0x12346(%rip),%rax        # 26d88 <g_334>
   14a42:	48 c7 00 00 00 00 00 	movq   $0x0,(%rax)
   14a49:	66 83 bd 98 e4 ff ff 	cmpw   $0x0,-0x1b68(%rbp)
   14a50:	00 
   14a51:	0f 84 20 01 00 00    	je     14b77 <func_116+0x6e27>
   14a57:	48 b8 29 6f a6 67 13 	movabs $0xc592061367a66f29,%rax
   14a5e:	06 92 c5 
   14a61:	48 89 85 40 f8 ff ff 	mov    %rax,-0x7c0(%rbp)
   14a68:	48 bb c0 9e 5f 88 28 	movabs $0xc577e828885f9ec0,%rbx
   14a6f:	e8 77 c5 
   14a72:	48 89 9d 48 f8 ff ff 	mov    %rbx,-0x7b8(%rbp)
   14a79:	48 89 85 50 f8 ff ff 	mov    %rax,-0x7b0(%rbp)
   14a80:	48 c7 85 58 f8 ff ff 	movq   $0xfffffffffffffffa,-0x7a8(%rbp)
   14a87:	fa ff ff ff 
   14a8b:	48 c7 85 60 f8 ff ff 	movq   $0xffffffffffffffff,-0x7a0(%rbp)
   14a92:	ff ff ff ff 
   14a96:	48 bb f6 33 2a 3f 13 	movabs $0x2015d5133f2a33f6,%rbx
   14a9d:	d5 15 20 
   14aa0:	48 89 9d 68 f8 ff ff 	mov    %rbx,-0x798(%rbp)
   14aa7:	48 bb 5b 8d 07 14 36 	movabs $0x248b4b3614078d5b,%rbx
   14aae:	4b 8b 24 
   14ab1:	48 89 9d 70 f8 ff ff 	mov    %rbx,-0x790(%rbp)
   14ab8:	48 bf a6 7f fa 68 9d 	movabs $0x2415b9d68fa7fa6,%rdi
   14abf:	5b 41 02 
   14ac2:	48 89 bd 78 f8 ff ff 	mov    %rdi,-0x788(%rbp)
   14ac9:	48 c7 85 80 f8 ff ff 	movq   $0xfffffffffffffff7,-0x780(%rbp)
   14ad0:	f7 ff ff ff 
   14ad4:	48 89 85 88 f8 ff ff 	mov    %rax,-0x778(%rbp)
   14adb:	48 89 85 90 f8 ff ff 	mov    %rax,-0x770(%rbp)
   14ae2:	48 c7 85 98 f8 ff ff 	movq   $0xfffffffffffffff7,-0x768(%rbp)
   14ae9:	f7 ff ff ff 
   14aed:	48 b9 c3 f7 9a 98 e6 	movabs $0x89a9ebe6989af7c3,%rcx
   14af4:	eb a9 89 
   14af7:	48 89 8d a0 f8 ff ff 	mov    %rcx,-0x760(%rbp)
   14afe:	48 89 8d a8 f8 ff ff 	mov    %rcx,-0x758(%rbp)
   14b05:	48 be 15 9b 9f ea d9 	movabs $0x37ae4ad9ea9f9b15,%rsi
   14b0c:	4a ae 37 
   14b0f:	48 89 b5 b0 f8 ff ff 	mov    %rsi,-0x750(%rbp)
   14b16:	48 89 85 b8 f8 ff ff 	mov    %rax,-0x748(%rbp)
   14b1d:	48 89 bd c0 f8 ff ff 	mov    %rdi,-0x740(%rbp)
   14b24:	48 c7 85 c8 f8 ff ff 	movq   $0xfffffffffffffffa,-0x738(%rbp)
   14b2b:	fa ff ff ff 
   14b2f:	48 89 9d d0 f8 ff ff 	mov    %rbx,-0x730(%rbp)
   14b36:	48 89 b5 d8 f8 ff ff 	mov    %rsi,-0x728(%rbp)
   14b3d:	48 c7 85 e0 f8 ff ff 	movq   $0xfffffffffffffff7,-0x720(%rbp)
   14b44:	f7 ff ff ff 
   14b48:	48 89 9d e8 f8 ff ff 	mov    %rbx,-0x718(%rbp)
   14b4f:	48 c7 85 f0 f8 ff ff 	movq   $0xfffffffffffffff7,-0x710(%rbp)
   14b56:	f7 ff ff ff 
   14b5a:	48 89 8d f8 f8 ff ff 	mov    %rcx,-0x708(%rbp)
   14b61:	c7 85 24 e5 ff ff af 	movl   $0x15b655af,-0x1adc(%rbp)
   14b68:	55 b6 15 
   14b6b:	83 85 24 e5 ff ff 01 	addl   $0x1,-0x1adc(%rbp)
   14b72:	e9 b5 02 00 00       	jmpq   14e2c <func_116+0x70dc>
   14b77:	48 c7 85 50 e7 ff ff 	movq   $0x0,-0x18b0(%rbp)
   14b7e:	00 00 00 00 
   14b82:	48 8d 85 d0 e9 ff ff 	lea    -0x1630(%rbp),%rax
   14b89:	48 83 c0 08          	add    $0x8,%rax
   14b8d:	48 89 85 58 e7 ff ff 	mov    %rax,-0x18a8(%rbp)
   14b94:	c7 85 1c e5 ff ff b9 	movl   $0xb59332b9,-0x1ae4(%rbp)
   14b9b:	32 93 b5 
   14b9e:	48 c7 85 40 f8 ff ff 	movq   $0x0,-0x7c0(%rbp)
   14ba5:	00 00 00 00 
   14ba9:	48 c7 85 48 f8 ff ff 	movq   $0x0,-0x7b8(%rbp)
   14bb0:	00 00 00 00 
   14bb4:	48 c7 85 50 f8 ff ff 	movq   $0x0,-0x7b0(%rbp)
   14bbb:	00 00 00 00 
   14bbf:	48 c7 85 58 f8 ff ff 	movq   $0x0,-0x7a8(%rbp)
   14bc6:	00 00 00 00 
   14bca:	48 c7 85 60 f8 ff ff 	movq   $0x0,-0x7a0(%rbp)
   14bd1:	00 00 00 00 
   14bd5:	48 8b 85 68 e4 ff ff 	mov    -0x1b98(%rbp),%rax
   14bdc:	0f be d8             	movsbl %al,%ebx
   14bdf:	48 8b 85 38 e7 ff ff 	mov    -0x18c8(%rbp),%rax
   14be6:	48 89 85 58 e7 ff ff 	mov    %rax,-0x18a8(%rbp)
   14bed:	48 8b 85 58 e7 ff ff 	mov    -0x18a8(%rbp),%rax
   14bf4:	48 3b 85 50 e7 ff ff 	cmp    -0x18b0(%rbp),%rax
   14bfb:	0f 95 c0             	setne  %al
   14bfe:	0f b6 c0             	movzbl %al,%eax
   14c01:	48 39 85 68 e4 ff ff 	cmp    %rax,-0x1b98(%rbp)
   14c08:	0f 94 c0             	sete   %al
   14c0b:	44 0f b6 e0          	movzbl %al,%r12d
   14c0f:	44 0f b7 ad 98 e4 ff 	movzwl -0x1b68(%rbp),%r13d
   14c16:	ff 
   14c17:	8b 85 7c e4 ff ff    	mov    -0x1b84(%rbp),%eax
   14c1d:	0f bf d0             	movswl %ax,%edx
   14c20:	8b 85 7c e4 ff ff    	mov    -0x1b84(%rbp),%eax
   14c26:	98                   	cwtl   
   14c27:	89 d6                	mov    %edx,%esi
   14c29:	89 c7                	mov    %eax,%edi
   14c2b:	e8 c5 17 ff ff       	callq  63f5 <safe_mul_func_int16_t_s_s>
   14c30:	c7 85 1c e5 ff ff 4a 	movl   $0xb06f94a,-0x1ae4(%rbp)
   14c37:	f9 06 0b 
   14c3a:	8b 85 1c e5 ff ff    	mov    -0x1ae4(%rbp),%eax
   14c40:	48 98                	cltq   
   14c42:	48 39 85 68 e4 ff ff 	cmp    %rax,-0x1b98(%rbp)
   14c49:	0f 97 c0             	seta   %al
   14c4c:	0f b6 c0             	movzbl %al,%eax
   14c4f:	41 39 c5             	cmp    %eax,%r13d
   14c52:	0f 9c c0             	setl   %al
   14c55:	0f b6 d0             	movzbl %al,%edx
   14c58:	48 8b 05 c1 21 01 00 	mov    0x121c1(%rip),%rax        # 26e20 <g_555>
   14c5f:	48 8b 00             	mov    (%rax),%rax
   14c62:	0f b6 00             	movzbl (%rax),%eax
   14c65:	0f b6 c0             	movzbl %al,%eax
   14c68:	39 c2                	cmp    %eax,%edx
   14c6a:	0f 9c c0             	setl   %al
   14c6d:	0f b6 c0             	movzbl %al,%eax
   14c70:	8b 95 10 e5 ff ff    	mov    -0x1af0(%rbp),%edx
   14c76:	89 d6                	mov    %edx,%esi
   14c78:	89 c7                	mov    %eax,%edi
   14c7a:	e8 86 1f ff ff       	callq  6c05 <safe_lshift_func_uint8_t_u_s>
   14c7f:	0f b6 c0             	movzbl %al,%eax
   14c82:	39 85 18 e5 ff ff    	cmp    %eax,-0x1ae8(%rbp)
   14c88:	0f 9f c0             	setg   %al
   14c8b:	0f b6 c0             	movzbl %al,%eax
   14c8e:	89 c6                	mov    %eax,%esi
   14c90:	bf bb 00 00 00       	mov    $0xbb,%edi
   14c95:	e8 6b 1f ff ff       	callq  6c05 <safe_lshift_func_uint8_t_u_s>
   14c9a:	0f b6 c0             	movzbl %al,%eax
   14c9d:	44 09 e0             	or     %r12d,%eax
   14ca0:	85 c0                	test   %eax,%eax
   14ca2:	75 18                	jne    14cbc <func_116+0x6f6c>
   14ca4:	8b 85 7c e4 ff ff    	mov    -0x1b84(%rbp),%eax
   14caa:	85 c0                	test   %eax,%eax
   14cac:	75 0e                	jne    14cbc <func_116+0x6f6c>
   14cae:	48 8b 05 73 21 01 00 	mov    0x12173(%rip),%rax        # 26e28 <g_606>
   14cb5:	0f b6 00             	movzbl (%rax),%eax
   14cb8:	84 c0                	test   %al,%al
   14cba:	74 07                	je     14cc3 <func_116+0x6f73>
   14cbc:	b8 01 00 00 00       	mov    $0x1,%eax
   14cc1:	eb 05                	jmp    14cc8 <func_116+0x6f78>
   14cc3:	b8 00 00 00 00       	mov    $0x0,%eax
   14cc8:	48 98                	cltq   
   14cca:	48 89 c6             	mov    %rax,%rsi
   14ccd:	bf 01 00 00 00       	mov    $0x1,%edi
   14cd2:	e8 74 23 ff ff       	callq  704b <safe_sub_func_uint64_t_u_u>
   14cd7:	0f be c0             	movsbl %al,%eax
   14cda:	89 de                	mov    %ebx,%esi
   14cdc:	89 c7                	mov    %eax,%edi
   14cde:	e8 87 15 ff ff       	callq  626a <safe_div_func_int8_t_s_s>
   14ce3:	84 c0                	test   %al,%al
   14ce5:	0f 94 c0             	sete   %al
   14ce8:	0f b6 c0             	movzbl %al,%eax
   14ceb:	be 5c f0 00 00       	mov    $0xf05c,%esi
   14cf0:	89 c7                	mov    %eax,%edi
   14cf2:	e8 97 20 ff ff       	callq  6d8e <safe_div_func_uint16_t_u_u>
   14cf7:	0f b7 d0             	movzwl %ax,%edx
   14cfa:	48 8b 85 78 e6 ff ff 	mov    -0x1988(%rbp),%rax
   14d01:	89 10                	mov    %edx,(%rax)
   14d03:	48 8b 85 78 e6 ff ff 	mov    -0x1988(%rbp),%rax
   14d0a:	8b 00                	mov    (%rax),%eax
   14d0c:	85 c0                	test   %eax,%eax
   14d0e:	74 11                	je     14d21 <func_116+0x6fd1>
   14d10:	48 83 bd 68 e4 ff ff 	cmpq   $0x0,-0x1b98(%rbp)
   14d17:	00 
   14d18:	74 07                	je     14d21 <func_116+0x6fd1>
   14d1a:	b8 01 00 00 00       	mov    $0x1,%eax
   14d1f:	eb 05                	jmp    14d26 <func_116+0x6fd6>
   14d21:	b8 00 00 00 00       	mov    $0x0,%eax
   14d26:	f7 d0                	not    %eax
   14d28:	89 85 64 f8 ff ff    	mov    %eax,-0x79c(%rbp)
   14d2e:	0f b7 85 9a e4 ff ff 	movzwl -0x1b66(%rbp),%eax
   14d35:	83 e8 01             	sub    $0x1,%eax
   14d38:	66 89 85 9a e4 ff ff 	mov    %ax,-0x1b66(%rbp)
   14d3f:	c7 85 b4 e4 ff ff 00 	movl   $0x0,-0x1b4c(%rbp)
   14d46:	00 00 00 
   14d49:	e9 cf 00 00 00       	jmpq   14e1d <func_116+0x70cd>
   14d4e:	48 8d 05 4f bb 00 00 	lea    0xbb4f(%rip),%rax        # 208a4 <g_602+0x144>
   14d55:	48 89 85 60 e7 ff ff 	mov    %rax,-0x18a0(%rbp)
   14d5c:	c7 85 20 e5 ff ff ff 	movl   $0xffffffff,-0x1ae0(%rbp)
   14d63:	ff ff ff 
   14d66:	8b 85 7c e4 ff ff    	mov    -0x1b84(%rbp),%eax
   14d6c:	0f bf d8             	movswl %ax,%ebx
   14d6f:	48 8b 05 b2 20 01 00 	mov    0x120b2(%rip),%rax        # 26e28 <g_606>
   14d76:	8b 95 14 e5 ff ff    	mov    -0x1aec(%rbp),%edx
   14d7c:	88 10                	mov    %dl,(%rax)
   14d7e:	be ac f4 fa 4c       	mov    $0x4cfaf4ac,%esi
   14d83:	bf ff 10 f3 74       	mov    $0x74f310ff,%edi
   14d88:	e8 3f 19 ff ff       	callq  66cc <safe_mod_func_int32_t_s_s>
   14d8d:	83 f8 01             	cmp    $0x1,%eax
   14d90:	0f 9f c0             	setg   %al
   14d93:	0f b6 d0             	movzbl %al,%edx
   14d96:	48 8b 85 60 e7 ff ff 	mov    -0x18a0(%rbp),%rax
   14d9d:	89 10                	mov    %edx,(%rax)
   14d9f:	48 8b 85 b8 e6 ff ff 	mov    -0x1948(%rbp),%rax
   14da6:	48 8b 00             	mov    (%rax),%rax
   14da9:	48 39 85 40 e7 ff ff 	cmp    %rax,-0x18c0(%rbp)
   14db0:	0f 94 c0             	sete   %al
   14db3:	0f b6 c0             	movzbl %al,%eax
   14db6:	be 01 00 00 00       	mov    $0x1,%esi
   14dbb:	89 c7                	mov    %eax,%edi
   14dbd:	e8 19 1e ff ff       	callq  6bdb <safe_div_func_uint8_t_u_u>
   14dc2:	0f b6 c0             	movzbl %al,%eax
   14dc5:	89 de                	mov    %ebx,%esi
   14dc7:	89 c7                	mov    %eax,%edi
   14dc9:	e8 05 16 ff ff       	callq  63d3 <safe_sub_func_int16_t_s_s>
   14dce:	48 8d 05 7b 20 01 00 	lea    0x1207b(%rip),%rax        # 26e50 <g_775>
   14dd5:	48 39 85 48 e7 ff ff 	cmp    %rax,-0x18b8(%rbp)
   14ddc:	75 08                	jne    14de6 <func_116+0x7096>
   14dde:	8b 05 9c be 00 00    	mov    0xbe9c(%rip),%eax        # 20c80 <g_1130>
   14de4:	85 c0                	test   %eax,%eax
   14de6:	8b 85 7c e4 ff ff    	mov    -0x1b84(%rbp),%eax
   14dec:	48 98                	cltq   
   14dee:	48 39 85 68 e4 ff ff 	cmp    %rax,-0x1b98(%rbp)
   14df5:	0f 96 c0             	setbe  %al
   14df8:	0f b6 c0             	movzbl %al,%eax
   14dfb:	48 39 85 68 e4 ff ff 	cmp    %rax,-0x1b98(%rbp)
   14e02:	0f 97 c0             	seta   %al
   14e05:	0f b6 c0             	movzbl %al,%eax
   14e08:	89 85 20 e5 ff ff    	mov    %eax,-0x1ae0(%rbp)
   14e0e:	8b 85 b4 e4 ff ff    	mov    -0x1b4c(%rbp),%eax
   14e14:	83 e8 01             	sub    $0x1,%eax
   14e17:	89 85 b4 e4 ff ff    	mov    %eax,-0x1b4c(%rbp)
   14e1d:	8b 85 b4 e4 ff ff    	mov    -0x1b4c(%rbp),%eax
   14e23:	83 f8 f2             	cmp    $0xfffffff2,%eax
   14e26:	0f 8d 22 ff ff ff    	jge    14d4e <func_116+0x6ffe>
   14e2c:	0f b6 05 f9 b8 00 00 	movzbl 0xb8f9(%rip),%eax        # 2072c <g_544+0xc>
   14e33:	0f b6 c0             	movzbl %al,%eax
   14e36:	be 02 00 00 00       	mov    $0x2,%esi
   14e3b:	89 c7                	mov    %eax,%edi
   14e3d:	e8 74 17 ff ff       	callq  65b6 <safe_add_func_int32_t_s_s>
   14e42:	88 05 e4 b8 00 00    	mov    %al,0xb8e4(%rip)        # 2072c <g_544+0xc>
   14e48:	0f b6 05 dd b8 00 00 	movzbl 0xb8dd(%rip),%eax        # 2072c <g_544+0xc>
   14e4f:	3c 0d                	cmp    $0xd,%al
   14e51:	0f 86 d7 fa ff ff    	jbe    1492e <func_116+0x6bde>
   14e57:	eb 35                	jmp    14e8e <func_116+0x713e>
   14e59:	48 c7 85 28 e7 ff ff 	movq   $0x0,-0x18d8(%rbp)
   14e60:	00 00 00 00 
   14e64:	48 c7 85 30 e7 ff ff 	movq   $0x0,-0x18d0(%rbp)
   14e6b:	00 00 00 00 
   14e6f:	48 8b 05 8a 20 01 00 	mov    0x1208a(%rip),%rax        # 26f00 <g_1133>
   14e76:	48 8b 95 70 e4 ff ff 	mov    -0x1b90(%rbp),%rdx
   14e7d:	48 89 10             	mov    %rdx,(%rax)
   14e80:	48 8b 85 28 e7 ff ff 	mov    -0x18d8(%rbp),%rax
   14e87:	48 89 85 e0 e5 ff ff 	mov    %rax,-0x1a20(%rbp)
   14e8e:	48 83 bd 68 e4 ff ff 	cmpq   $0x0,-0x1b98(%rbp)
   14e95:	00 
   14e96:	0f 85 3e 01 00 00    	jne    14fda <func_116+0x728a>
   14e9c:	48 8b 05 75 1f 01 00 	mov    0x11f75(%rip),%rax        # 26e18 <g_556>
   14ea3:	0f b6 00             	movzbl (%rax),%eax
   14ea6:	84 c0                	test   %al,%al
   14ea8:	0f 84 ae 00 00 00    	je     14f5c <func_116+0x720c>
   14eae:	48 8b 05 c3 1e 01 00 	mov    0x11ec3(%rip),%rax        # 26d78 <g_254>
   14eb5:	48 8b 00             	mov    (%rax),%rax
   14eb8:	0f b7 00             	movzwl (%rax),%eax
   14ebb:	0f b7 c0             	movzwl %ax,%eax
   14ebe:	be 0f 00 00 00       	mov    $0xf,%esi
   14ec3:	89 c7                	mov    %eax,%edi
   14ec5:	e8 7e 1f ff ff       	callq  6e48 <safe_rshift_func_uint16_t_u_s>
   14eca:	48 8b 15 f7 1f 01 00 	mov    0x11ff7(%rip),%rdx        # 26ec8 <g_891>
   14ed1:	48 8b 05 f0 1f 01 00 	mov    0x11ff0(%rip),%rax        # 26ec8 <g_891>
   14ed8:	48 8b 12             	mov    (%rdx),%rdx
   14edb:	48 89 10             	mov    %rdx,(%rax)
   14ede:	48 8b 00             	mov    (%rax),%rax
   14ee1:	48 39 85 00 e7 ff ff 	cmp    %rax,-0x1900(%rbp)
   14ee8:	0f 95 c3             	setne  %bl
   14eeb:	8b 85 7c e4 ff ff    	mov    -0x1b84(%rbp),%eax
   14ef1:	48 63 d0             	movslq %eax,%rdx
   14ef4:	8b 85 7c e4 ff ff    	mov    -0x1b84(%rbp),%eax
   14efa:	48 98                	cltq   
   14efc:	48 39 85 68 e4 ff ff 	cmp    %rax,-0x1b98(%rbp)
   14f03:	0f 97 c0             	seta   %al
   14f06:	0f b6 c0             	movzbl %al,%eax
   14f09:	48 89 d6             	mov    %rdx,%rsi
   14f0c:	48 89 c7             	mov    %rax,%rdi
   14f0f:	e8 37 21 ff ff       	callq  704b <safe_sub_func_uint64_t_u_u>
   14f14:	ba fd ff ff ff       	mov    $0xfffffffd,%edx
   14f19:	48 39 d0             	cmp    %rdx,%rax
   14f1c:	0f 94 c0             	sete   %al
   14f1f:	31 d8                	xor    %ebx,%eax
   14f21:	0f b6 d0             	movzbl %al,%edx
   14f24:	48 8b 85 08 e7 ff ff 	mov    -0x18f8(%rbp),%rax
   14f2b:	66 89 10             	mov    %dx,(%rax)
   14f2e:	8b 85 7c e4 ff ff    	mov    -0x1b84(%rbp),%eax
   14f34:	83 f8 01             	cmp    $0x1,%eax
   14f37:	7e 07                	jle    14f40 <func_116+0x71f0>
   14f39:	ba 01 00 00 00       	mov    $0x1,%edx
   14f3e:	eb 05                	jmp    14f45 <func_116+0x71f5>
   14f40:	ba 00 00 00 00       	mov    $0x0,%edx
   14f45:	48 8b 05 6c 1f 01 00 	mov    0x11f6c(%rip),%rax        # 26eb8 <g_893>
   14f4c:	88 10                	mov    %dl,(%rax)
   14f4e:	0f b6 00             	movzbl (%rax),%eax
   14f51:	84 c0                	test   %al,%al
   14f53:	74 07                	je     14f5c <func_116+0x720c>
   14f55:	b8 01 00 00 00       	mov    $0x1,%eax
   14f5a:	eb 05                	jmp    14f61 <func_116+0x7211>
   14f5c:	b8 00 00 00 00       	mov    $0x0,%eax
   14f61:	0f b6 c0             	movzbl %al,%eax
   14f64:	be f5 00 00 00       	mov    $0xf5,%esi
   14f69:	89 c7                	mov    %eax,%edi
   14f6b:	e8 08 1c ff ff       	callq  6b78 <safe_sub_func_uint8_t_u_u>
   14f70:	48 8b 05 b1 1e 01 00 	mov    0x11eb1(%rip),%rax        # 26e28 <g_606>
   14f77:	0f b6 00             	movzbl (%rax),%eax
   14f7a:	f7 d0                	not    %eax
   14f7c:	c0 e8 07             	shr    $0x7,%al
   14f7f:	0f b6 c0             	movzbl %al,%eax
   14f82:	8b 95 7c e4 ff ff    	mov    -0x1b84(%rbp),%edx
   14f88:	89 c6                	mov    %eax,%esi
   14f8a:	89 d7                	mov    %edx,%edi
   14f8c:	e8 3f 1f ff ff       	callq  6ed0 <safe_sub_func_uint32_t_u_u>
   14f91:	85 c0                	test   %eax,%eax
   14f93:	74 1b                	je     14fb0 <func_116+0x7260>
   14f95:	8b 05 11 b9 00 00    	mov    0xb911(%rip),%eax        # 208ac <g_602+0x14c>
   14f9b:	85 c0                	test   %eax,%eax
   14f9d:	74 11                	je     14fb0 <func_116+0x7260>
   14f9f:	8b 85 7c e4 ff ff    	mov    -0x1b84(%rbp),%eax
   14fa5:	85 c0                	test   %eax,%eax
   14fa7:	74 07                	je     14fb0 <func_116+0x7260>
   14fa9:	b8 01 00 00 00       	mov    $0x1,%eax
   14fae:	eb 05                	jmp    14fb5 <func_116+0x7265>
   14fb0:	b8 00 00 00 00       	mov    $0x0,%eax
   14fb5:	89 85 b4 e4 ff ff    	mov    %eax,-0x1b4c(%rbp)
   14fbb:	8b 85 b4 e4 ff ff    	mov    -0x1b4c(%rbp),%eax
   14fc1:	0f b6 c0             	movzbl %al,%eax
   14fc4:	be f2 00 00 00       	mov    $0xf2,%esi
   14fc9:	89 c7                	mov    %eax,%edi
   14fcb:	e8 8a 1b ff ff       	callq  6b5a <safe_add_func_uint8_t_u_u>
   14fd0:	8b 85 7c e4 ff ff    	mov    -0x1b84(%rbp),%eax
   14fd6:	85 c0                	test   %eax,%eax
   14fd8:	74 07                	je     14fe1 <func_116+0x7291>
   14fda:	b8 01 00 00 00       	mov    $0x1,%eax
   14fdf:	eb 05                	jmp    14fe6 <func_116+0x7296>
   14fe1:	b8 00 00 00 00       	mov    $0x0,%eax
   14fe6:	0f b7 c0             	movzwl %ax,%eax
   14fe9:	be 03 00 00 00       	mov    $0x3,%esi
   14fee:	89 c7                	mov    %eax,%edi
   14ff0:	e8 c9 1d ff ff       	callq  6dbe <safe_lshift_func_uint16_t_u_s>
   14ff5:	48 8b 95 10 e7 ff ff 	mov    -0x18f0(%rbp),%rdx
   14ffc:	8b 12                	mov    (%rdx),%edx
   14ffe:	0f b7 c0             	movzwl %ax,%eax
   15001:	09 c2                	or     %eax,%edx
   15003:	48 8b 85 10 e7 ff ff 	mov    -0x18f0(%rbp),%rax
   1500a:	89 10                	mov    %edx,(%rax)
   1500c:	0f b7 85 96 e4 ff ff 	movzwl -0x1b6a(%rbp),%eax
   15013:	48 8b 5d c8          	mov    -0x38(%rbp),%rbx
   15017:	64 48 33 1c 25 28 00 	xor    %fs:0x28,%rbx
   1501e:	00 00 
   15020:	74 05                	je     15027 <func_116+0x72d7>
   15022:	e8 49 10 ff ff       	callq  6070 <__stack_chk_fail@plt>
   15027:	48 81 c4 88 1b 00 00 	add    $0x1b88,%rsp
   1502e:	5b                   	pop    %rbx
   1502f:	41 5c                	pop    %r12
   15031:	41 5d                	pop    %r13
   15033:	41 5e                	pop    %r14
   15035:	41 5f                	pop    %r15
   15037:	5d                   	pop    %rbp
   15038:	c3                   	retq   

0000000000015039 <func_126>:
   15039:	f3 0f 1e fa          	endbr64 
   1503d:	55                   	push   %rbp
   1503e:	48 89 e5             	mov    %rsp,%rbp
   15041:	48 81 ec 00 0c 00 00 	sub    $0xc00,%rsp
   15048:	89 f8                	mov    %edi,%eax
   1504a:	88 85 0c f4 ff ff    	mov    %al,-0xbf4(%rbp)
   15050:	64 48 8b 04 25 28 00 	mov    %fs:0x28,%rax
   15057:	00 00 
   15059:	48 89 45 f8          	mov    %rax,-0x8(%rbp)
   1505d:	31 c0                	xor    %eax,%eax
   1505f:	48 8d 05 c6 af 00 00 	lea    0xafc6(%rip),%rax        # 2002c <g_2+0x4>
   15066:	48 89 85 90 f4 ff ff 	mov    %rax,-0xb70(%rbp)
   1506d:	48 8d 05 b8 af 00 00 	lea    0xafb8(%rip),%rax        # 2002c <g_2+0x4>
   15074:	48 89 85 98 f4 ff ff 	mov    %rax,-0xb68(%rbp)
   1507b:	48 8d 05 56 b2 00 00 	lea    0xb256(%rip),%rax        # 202d8 <g_142>
   15082:	48 89 85 a0 f4 ff ff 	mov    %rax,-0xb60(%rbp)
   15089:	48 8d 05 9c af 00 00 	lea    0xaf9c(%rip),%rax        # 2002c <g_2+0x4>
   15090:	48 89 85 a8 f4 ff ff 	mov    %rax,-0xb58(%rbp)
   15097:	48 8d 05 8e af 00 00 	lea    0xaf8e(%rip),%rax        # 2002c <g_2+0x4>
   1509e:	48 89 85 b0 f4 ff ff 	mov    %rax,-0xb50(%rbp)
   150a5:	48 8d 05 2c b2 00 00 	lea    0xb22c(%rip),%rax        # 202d8 <g_142>
   150ac:	48 89 85 b8 f4 ff ff 	mov    %rax,-0xb48(%rbp)
   150b3:	48 8d 85 a0 f8 ff ff 	lea    -0x760(%rbp),%rax
   150ba:	48 8d 15 1f 72 00 00 	lea    0x721f(%rip),%rdx        # 1c2e0 <g_1798+0x2200>
   150c1:	b9 6c 00 00 00       	mov    $0x6c,%ecx
   150c6:	48 89 c7             	mov    %rax,%rdi
   150c9:	48 89 d6             	mov    %rdx,%rsi
   150cc:	f3 48 a5             	rep movsq %ds:(%rsi),%es:(%rdi)
   150cf:	c7 85 28 f4 ff ff 00 	movl   $0x0,-0xbd8(%rbp)
   150d6:	00 00 00 
   150d9:	48 b8 ee 87 29 13 73 	movabs $0x96dbb873132987ee,%rax
   150e0:	b8 db 96 
   150e3:	48 89 85 40 f4 ff ff 	mov    %rax,-0xbc0(%rbp)
   150ea:	66 c7 85 1c f4 ff ff 	movw   $0x9c9e,-0xbe4(%rbp)
   150f1:	9e 9c 
   150f3:	48 8d 85 88 f4 ff ff 	lea    -0xb78(%rbp),%rax
   150fa:	48 89 85 00 f6 ff ff 	mov    %rax,-0xa00(%rbp)
   15101:	48 8d 85 88 f4 ff ff 	lea    -0xb78(%rbp),%rax
   15108:	48 89 85 08 f6 ff ff 	mov    %rax,-0x9f8(%rbp)
   1510f:	48 8d 85 88 f4 ff ff 	lea    -0xb78(%rbp),%rax
   15116:	48 89 85 10 f6 ff ff 	mov    %rax,-0x9f0(%rbp)
   1511d:	48 8d 85 88 f4 ff ff 	lea    -0xb78(%rbp),%rax
   15124:	48 89 85 18 f6 ff ff 	mov    %rax,-0x9e8(%rbp)
   1512b:	48 8d 85 88 f4 ff ff 	lea    -0xb78(%rbp),%rax
   15132:	48 89 85 20 f6 ff ff 	mov    %rax,-0x9e0(%rbp)
   15139:	48 8d 85 88 f4 ff ff 	lea    -0xb78(%rbp),%rax
   15140:	48 89 85 28 f6 ff ff 	mov    %rax,-0x9d8(%rbp)
   15147:	48 8d 85 88 f4 ff ff 	lea    -0xb78(%rbp),%rax
   1514e:	48 89 85 30 f6 ff ff 	mov    %rax,-0x9d0(%rbp)
   15155:	48 8d 85 88 f4 ff ff 	lea    -0xb78(%rbp),%rax
   1515c:	48 89 85 38 f6 ff ff 	mov    %rax,-0x9c8(%rbp)
   15163:	48 8d 85 88 f4 ff ff 	lea    -0xb78(%rbp),%rax
   1516a:	48 89 85 40 f6 ff ff 	mov    %rax,-0x9c0(%rbp)
   15171:	48 8d 85 88 f4 ff ff 	lea    -0xb78(%rbp),%rax
   15178:	48 89 85 48 f6 ff ff 	mov    %rax,-0x9b8(%rbp)
   1517f:	48 8d 85 88 f4 ff ff 	lea    -0xb78(%rbp),%rax
   15186:	48 89 85 50 f6 ff ff 	mov    %rax,-0x9b0(%rbp)
   1518d:	48 8d 85 88 f4 ff ff 	lea    -0xb78(%rbp),%rax
   15194:	48 89 85 58 f6 ff ff 	mov    %rax,-0x9a8(%rbp)
   1519b:	48 8d 85 88 f4 ff ff 	lea    -0xb78(%rbp),%rax
   151a2:	48 89 85 60 f6 ff ff 	mov    %rax,-0x9a0(%rbp)
   151a9:	48 8d 85 88 f4 ff ff 	lea    -0xb78(%rbp),%rax
   151b0:	48 89 85 68 f6 ff ff 	mov    %rax,-0x998(%rbp)
   151b7:	48 8d 85 88 f4 ff ff 	lea    -0xb78(%rbp),%rax
   151be:	48 89 85 70 f6 ff ff 	mov    %rax,-0x990(%rbp)
   151c5:	48 8d 85 88 f4 ff ff 	lea    -0xb78(%rbp),%rax
   151cc:	48 89 85 78 f6 ff ff 	mov    %rax,-0x988(%rbp)
   151d3:	48 8d 85 88 f4 ff ff 	lea    -0xb78(%rbp),%rax
   151da:	48 89 85 80 f6 ff ff 	mov    %rax,-0x980(%rbp)
   151e1:	48 8d 85 88 f4 ff ff 	lea    -0xb78(%rbp),%rax
   151e8:	48 89 85 88 f6 ff ff 	mov    %rax,-0x978(%rbp)
   151ef:	48 8d 85 88 f4 ff ff 	lea    -0xb78(%rbp),%rax
   151f6:	48 89 85 90 f6 ff ff 	mov    %rax,-0x970(%rbp)
   151fd:	48 8d 85 88 f4 ff ff 	lea    -0xb78(%rbp),%rax
   15204:	48 89 85 98 f6 ff ff 	mov    %rax,-0x968(%rbp)
   1520b:	48 8d 85 88 f4 ff ff 	lea    -0xb78(%rbp),%rax
   15212:	48 89 85 a0 f6 ff ff 	mov    %rax,-0x960(%rbp)
   15219:	48 8d 85 88 f4 ff ff 	lea    -0xb78(%rbp),%rax
   15220:	48 89 85 a8 f6 ff ff 	mov    %rax,-0x958(%rbp)
   15227:	48 8d 85 88 f4 ff ff 	lea    -0xb78(%rbp),%rax
   1522e:	48 89 85 b0 f6 ff ff 	mov    %rax,-0x950(%rbp)
   15235:	48 8d 85 88 f4 ff ff 	lea    -0xb78(%rbp),%rax
   1523c:	48 89 85 b8 f6 ff ff 	mov    %rax,-0x948(%rbp)
   15243:	48 8d 85 88 f4 ff ff 	lea    -0xb78(%rbp),%rax
   1524a:	48 89 85 c0 f6 ff ff 	mov    %rax,-0x940(%rbp)
   15251:	48 8d 85 88 f4 ff ff 	lea    -0xb78(%rbp),%rax
   15258:	48 89 85 c8 f6 ff ff 	mov    %rax,-0x938(%rbp)
   1525f:	48 8d 85 88 f4 ff ff 	lea    -0xb78(%rbp),%rax
   15266:	48 89 85 d0 f6 ff ff 	mov    %rax,-0x930(%rbp)
   1526d:	48 8d 85 88 f4 ff ff 	lea    -0xb78(%rbp),%rax
   15274:	48 89 85 d8 f6 ff ff 	mov    %rax,-0x928(%rbp)
   1527b:	48 8d 85 88 f4 ff ff 	lea    -0xb78(%rbp),%rax
   15282:	48 89 85 e0 f6 ff ff 	mov    %rax,-0x920(%rbp)
   15289:	48 8d 85 88 f4 ff ff 	lea    -0xb78(%rbp),%rax
   15290:	48 89 85 e8 f6 ff ff 	mov    %rax,-0x918(%rbp)
   15297:	48 8d 85 88 f4 ff ff 	lea    -0xb78(%rbp),%rax
   1529e:	48 89 85 f0 f6 ff ff 	mov    %rax,-0x910(%rbp)
   152a5:	48 8d 85 88 f4 ff ff 	lea    -0xb78(%rbp),%rax
   152ac:	48 89 85 f8 f6 ff ff 	mov    %rax,-0x908(%rbp)
   152b3:	48 8d 85 88 f4 ff ff 	lea    -0xb78(%rbp),%rax
   152ba:	48 89 85 00 f7 ff ff 	mov    %rax,-0x900(%rbp)
   152c1:	48 8d 85 88 f4 ff ff 	lea    -0xb78(%rbp),%rax
   152c8:	48 89 85 08 f7 ff ff 	mov    %rax,-0x8f8(%rbp)
   152cf:	48 8d 85 88 f4 ff ff 	lea    -0xb78(%rbp),%rax
   152d6:	48 89 85 10 f7 ff ff 	mov    %rax,-0x8f0(%rbp)
   152dd:	48 8d 85 88 f4 ff ff 	lea    -0xb78(%rbp),%rax
   152e4:	48 89 85 18 f7 ff ff 	mov    %rax,-0x8e8(%rbp)
   152eb:	48 8d 85 88 f4 ff ff 	lea    -0xb78(%rbp),%rax
   152f2:	48 89 85 20 f7 ff ff 	mov    %rax,-0x8e0(%rbp)
   152f9:	48 8d 85 88 f4 ff ff 	lea    -0xb78(%rbp),%rax
   15300:	48 89 85 28 f7 ff ff 	mov    %rax,-0x8d8(%rbp)
   15307:	48 8d 85 88 f4 ff ff 	lea    -0xb78(%rbp),%rax
   1530e:	48 89 85 30 f7 ff ff 	mov    %rax,-0x8d0(%rbp)
   15315:	48 8d 85 88 f4 ff ff 	lea    -0xb78(%rbp),%rax
   1531c:	48 89 85 38 f7 ff ff 	mov    %rax,-0x8c8(%rbp)
   15323:	48 8d 85 88 f4 ff ff 	lea    -0xb78(%rbp),%rax
   1532a:	48 89 85 40 f7 ff ff 	mov    %rax,-0x8c0(%rbp)
   15331:	48 8d 85 88 f4 ff ff 	lea    -0xb78(%rbp),%rax
   15338:	48 89 85 48 f7 ff ff 	mov    %rax,-0x8b8(%rbp)
   1533f:	48 8d 85 88 f4 ff ff 	lea    -0xb78(%rbp),%rax
   15346:	48 89 85 50 f7 ff ff 	mov    %rax,-0x8b0(%rbp)
   1534d:	48 8d 85 88 f4 ff ff 	lea    -0xb78(%rbp),%rax
   15354:	48 89 85 58 f7 ff ff 	mov    %rax,-0x8a8(%rbp)
   1535b:	48 8d 85 88 f4 ff ff 	lea    -0xb78(%rbp),%rax
   15362:	48 89 85 60 f7 ff ff 	mov    %rax,-0x8a0(%rbp)
   15369:	48 8d 85 88 f4 ff ff 	lea    -0xb78(%rbp),%rax
   15370:	48 89 85 68 f7 ff ff 	mov    %rax,-0x898(%rbp)
   15377:	48 8d 85 88 f4 ff ff 	lea    -0xb78(%rbp),%rax
   1537e:	48 89 85 70 f7 ff ff 	mov    %rax,-0x890(%rbp)
   15385:	48 8d 85 88 f4 ff ff 	lea    -0xb78(%rbp),%rax
   1538c:	48 89 85 78 f7 ff ff 	mov    %rax,-0x888(%rbp)
   15393:	48 8d 85 88 f4 ff ff 	lea    -0xb78(%rbp),%rax
   1539a:	48 89 85 80 f7 ff ff 	mov    %rax,-0x880(%rbp)
   153a1:	48 8d 85 88 f4 ff ff 	lea    -0xb78(%rbp),%rax
   153a8:	48 89 85 88 f7 ff ff 	mov    %rax,-0x878(%rbp)
   153af:	48 8d 85 88 f4 ff ff 	lea    -0xb78(%rbp),%rax
   153b6:	48 89 85 90 f7 ff ff 	mov    %rax,-0x870(%rbp)
   153bd:	48 8d 85 88 f4 ff ff 	lea    -0xb78(%rbp),%rax
   153c4:	48 89 85 98 f7 ff ff 	mov    %rax,-0x868(%rbp)
   153cb:	48 8d 85 88 f4 ff ff 	lea    -0xb78(%rbp),%rax
   153d2:	48 89 85 a0 f7 ff ff 	mov    %rax,-0x860(%rbp)
   153d9:	48 8d 85 88 f4 ff ff 	lea    -0xb78(%rbp),%rax
   153e0:	48 89 85 a8 f7 ff ff 	mov    %rax,-0x858(%rbp)
   153e7:	48 8d 85 88 f4 ff ff 	lea    -0xb78(%rbp),%rax
   153ee:	48 89 85 b0 f7 ff ff 	mov    %rax,-0x850(%rbp)
   153f5:	48 8d 85 88 f4 ff ff 	lea    -0xb78(%rbp),%rax
   153fc:	48 89 85 b8 f7 ff ff 	mov    %rax,-0x848(%rbp)
   15403:	48 8d 85 88 f4 ff ff 	lea    -0xb78(%rbp),%rax
   1540a:	48 89 85 c0 f7 ff ff 	mov    %rax,-0x840(%rbp)
   15411:	48 8d 85 88 f4 ff ff 	lea    -0xb78(%rbp),%rax
   15418:	48 89 85 c8 f7 ff ff 	mov    %rax,-0x838(%rbp)
   1541f:	48 8d 85 88 f4 ff ff 	lea    -0xb78(%rbp),%rax
   15426:	48 89 85 d0 f7 ff ff 	mov    %rax,-0x830(%rbp)
   1542d:	48 8d 85 88 f4 ff ff 	lea    -0xb78(%rbp),%rax
   15434:	48 89 85 d8 f7 ff ff 	mov    %rax,-0x828(%rbp)
   1543b:	48 8d 85 88 f4 ff ff 	lea    -0xb78(%rbp),%rax
   15442:	48 89 85 e0 f7 ff ff 	mov    %rax,-0x820(%rbp)
   15449:	48 8d 85 88 f4 ff ff 	lea    -0xb78(%rbp),%rax
   15450:	48 89 85 e8 f7 ff ff 	mov    %rax,-0x818(%rbp)
   15457:	48 8d 85 88 f4 ff ff 	lea    -0xb78(%rbp),%rax
   1545e:	48 89 85 f0 f7 ff ff 	mov    %rax,-0x810(%rbp)
   15465:	48 8d 85 88 f4 ff ff 	lea    -0xb78(%rbp),%rax
   1546c:	48 89 85 f8 f7 ff ff 	mov    %rax,-0x808(%rbp)
   15473:	48 8d 85 88 f4 ff ff 	lea    -0xb78(%rbp),%rax
   1547a:	48 89 85 00 f8 ff ff 	mov    %rax,-0x800(%rbp)
   15481:	48 8d 85 88 f4 ff ff 	lea    -0xb78(%rbp),%rax
   15488:	48 89 85 08 f8 ff ff 	mov    %rax,-0x7f8(%rbp)
   1548f:	48 8d 85 88 f4 ff ff 	lea    -0xb78(%rbp),%rax
   15496:	48 89 85 10 f8 ff ff 	mov    %rax,-0x7f0(%rbp)
   1549d:	48 8d 85 88 f4 ff ff 	lea    -0xb78(%rbp),%rax
   154a4:	48 89 85 18 f8 ff ff 	mov    %rax,-0x7e8(%rbp)
   154ab:	48 8d 85 88 f4 ff ff 	lea    -0xb78(%rbp),%rax
   154b2:	48 89 85 20 f8 ff ff 	mov    %rax,-0x7e0(%rbp)
   154b9:	48 8d 85 88 f4 ff ff 	lea    -0xb78(%rbp),%rax
   154c0:	48 89 85 28 f8 ff ff 	mov    %rax,-0x7d8(%rbp)
   154c7:	48 8d 85 88 f4 ff ff 	lea    -0xb78(%rbp),%rax
   154ce:	48 89 85 30 f8 ff ff 	mov    %rax,-0x7d0(%rbp)
   154d5:	48 8d 85 88 f4 ff ff 	lea    -0xb78(%rbp),%rax
   154dc:	48 89 85 38 f8 ff ff 	mov    %rax,-0x7c8(%rbp)
   154e3:	48 8d 85 88 f4 ff ff 	lea    -0xb78(%rbp),%rax
   154ea:	48 89 85 40 f8 ff ff 	mov    %rax,-0x7c0(%rbp)
   154f1:	48 8d 85 88 f4 ff ff 	lea    -0xb78(%rbp),%rax
   154f8:	48 89 85 48 f8 ff ff 	mov    %rax,-0x7b8(%rbp)
   154ff:	48 8d 85 88 f4 ff ff 	lea    -0xb78(%rbp),%rax
   15506:	48 89 85 50 f8 ff ff 	mov    %rax,-0x7b0(%rbp)
   1550d:	48 8d 85 88 f4 ff ff 	lea    -0xb78(%rbp),%rax
   15514:	48 89 85 58 f8 ff ff 	mov    %rax,-0x7a8(%rbp)
   1551b:	48 8d 85 88 f4 ff ff 	lea    -0xb78(%rbp),%rax
   15522:	48 89 85 60 f8 ff ff 	mov    %rax,-0x7a0(%rbp)
   15529:	48 8d 85 88 f4 ff ff 	lea    -0xb78(%rbp),%rax
   15530:	48 89 85 68 f8 ff ff 	mov    %rax,-0x798(%rbp)
   15537:	48 8d 85 88 f4 ff ff 	lea    -0xb78(%rbp),%rax
   1553e:	48 89 85 70 f8 ff ff 	mov    %rax,-0x790(%rbp)
   15545:	48 8d 85 88 f4 ff ff 	lea    -0xb78(%rbp),%rax
   1554c:	48 89 85 78 f8 ff ff 	mov    %rax,-0x788(%rbp)
   15553:	48 8d 85 88 f4 ff ff 	lea    -0xb78(%rbp),%rax
   1555a:	48 89 85 80 f8 ff ff 	mov    %rax,-0x780(%rbp)
   15561:	48 c7 85 88 f8 ff ff 	movq   $0x0,-0x778(%rbp)
   15568:	00 00 00 00 
   1556c:	48 8d 85 88 f4 ff ff 	lea    -0xb78(%rbp),%rax
   15573:	48 89 85 90 f8 ff ff 	mov    %rax,-0x770(%rbp)
   1557a:	48 8d 85 88 f4 ff ff 	lea    -0xb78(%rbp),%rax
   15581:	48 89 85 98 f8 ff ff 	mov    %rax,-0x768(%rbp)
   15588:	48 b8 44 8f 67 cb 4e 	movabs $0x6120f54ecb678f44,%rax
   1558f:	f5 20 61 
   15592:	48 89 85 48 f4 ff ff 	mov    %rax,-0xbb8(%rbp)
   15599:	48 8d 05 0c ac 00 00 	lea    0xac0c(%rip),%rax        # 201ac <g_47>
   155a0:	48 89 85 50 f4 ff ff 	mov    %rax,-0xbb0(%rbp)
   155a7:	c7 85 2c f4 ff ff ff 	movl   $0xffffffff,-0xbd4(%rbp)
   155ae:	ff ff ff 
   155b1:	66 c7 85 1e f4 ff ff 	movw   $0xffff,-0xbe2(%rbp)
   155b8:	ff ff 
   155ba:	c7 85 24 f4 ff ff 00 	movl   $0x0,-0xbdc(%rbp)
   155c1:	00 00 00 
   155c4:	eb 1e                	jmp    155e4 <func_126+0x5ab>
   155c6:	8b 85 24 f4 ff ff    	mov    -0xbdc(%rbp),%eax
   155cc:	48 98                	cltq   
   155ce:	48 8d 15 ed ab 00 00 	lea    0xabed(%rip),%rdx        # 201c2 <g_89>
   155d5:	48 89 94 c5 88 f4 ff 	mov    %rdx,-0xb78(%rbp,%rax,8)
   155dc:	ff 
   155dd:	83 85 24 f4 ff ff 01 	addl   $0x1,-0xbdc(%rbp)
   155e4:	83 bd 24 f4 ff ff 00 	cmpl   $0x0,-0xbdc(%rbp)
   155eb:	7e d9                	jle    155c6 <func_126+0x58d>
   155ed:	48 8b 85 d8 fb ff ff 	mov    -0x428(%rbp),%rax
   155f4:	48 83 c0 01          	add    $0x1,%rax
   155f8:	48 89 85 d8 fb ff ff 	mov    %rax,-0x428(%rbp)
   155ff:	8b 05 ab ab 00 00    	mov    0xabab(%rip),%eax        # 201b0 <g_76>
   15605:	89 c1                	mov    %eax,%ecx
   15607:	0f b7 05 b4 ab 00 00 	movzwl 0xabb4(%rip),%eax        # 201c2 <g_89>
   1560e:	0f b7 c0             	movzwl %ax,%eax
   15611:	48 ba 3f b0 4d cd a3 	movabs $0xa1fd85a3cd4db03f,%rdx
   15618:	85 fd a1 
   1561b:	48 31 d0             	xor    %rdx,%rax
   1561e:	48 39 c1             	cmp    %rax,%rcx
   15621:	0f 97 c0             	seta   %al
   15624:	0f b6 c0             	movzbl %al,%eax
   15627:	89 85 28 f4 ff ff    	mov    %eax,-0xbd8(%rbp)
   1562d:	c7 05 71 ab 00 00 00 	movl   $0x0,0xab71(%rip)        # 201a8 <g_43>
   15634:	00 00 00 
   15637:	e9 f7 00 00 00       	jmpq   15733 <func_126+0x6fa>
   1563c:	48 8d 05 01 aa 00 00 	lea    0xaa01(%rip),%rax        # 20044 <g_5+0x14>
   15643:	48 89 85 58 f4 ff ff 	mov    %rax,-0xba8(%rbp)
   1564a:	c7 85 20 f4 ff ff e9 	movl   $0x1ac126e9,-0xbe0(%rbp)
   15651:	26 c1 1a 
   15654:	48 8d 85 20 f4 ff ff 	lea    -0xbe0(%rbp),%rax
   1565b:	48 89 85 60 f4 ff ff 	mov    %rax,-0xba0(%rbp)
   15662:	48 8d 05 b2 ac 00 00 	lea    0xacb2(%rip),%rax        # 2031b <g_197+0x1b>
   15669:	48 89 85 38 f4 ff ff 	mov    %rax,-0xbc8(%rbp)
   15670:	48 b8 97 18 9a 9f 9c 	movabs $0x38a6609c9f9a1897,%rax
   15677:	60 a6 38 
   1567a:	48 89 85 68 f4 ff ff 	mov    %rax,-0xb98(%rbp)
   15681:	c7 85 30 f4 ff ff 51 	movl   $0xebce1e51,-0xbd0(%rbp)
   15688:	1e ce eb 
   1568b:	48 8d 85 c0 f4 ff ff 	lea    -0xb40(%rbp),%rax
   15692:	48 8d 15 a7 6f 00 00 	lea    0x6fa7(%rip),%rdx        # 1c640 <g_1798+0x2560>
   15699:	b9 28 00 00 00       	mov    $0x28,%ecx
   1569e:	48 89 c7             	mov    %rax,%rdi
   156a1:	48 89 d6             	mov    %rdx,%rsi
   156a4:	f3 48 a5             	rep movsq %ds:(%rsi),%es:(%rdi)
   156a7:	c7 85 34 f4 ff ff b7 	movl   $0x33130ab7,-0xbcc(%rbp)
   156ae:	0a 13 33 
   156b1:	48 c7 85 70 f4 ff ff 	movq   $0x0,-0xb90(%rbp)
   156b8:	00 00 00 00 
   156bc:	48 8d 85 00 fc ff ff 	lea    -0x400(%rbp),%rax
   156c3:	48 8d 15 96 12 01 00 	lea    0x11296(%rip),%rdx        # 26960 <g_2314+0x1ab8>
   156ca:	b9 7e 00 00 00       	mov    $0x7e,%ecx
   156cf:	48 89 c7             	mov    %rax,%rdi
   156d2:	48 89 d6             	mov    %rdx,%rsi
   156d5:	f3 48 a5             	rep movsq %ds:(%rsi),%es:(%rdi)
   156d8:	48 8d 85 00 fc ff ff 	lea    -0x400(%rbp),%rax
   156df:	48 05 20 01 00 00    	add    $0x120,%rax
   156e5:	48 89 85 78 f4 ff ff 	mov    %rax,-0xb88(%rbp)
   156ec:	48 8d 85 38 f4 ff ff 	lea    -0xbc8(%rbp),%rax
   156f3:	48 89 85 80 f4 ff ff 	mov    %rax,-0xb80(%rbp)
   156fa:	48 83 bd 58 f4 ff ff 	cmpq   $0x0,-0xba8(%rbp)
   15701:	00 
   15702:	74 07                	je     1570b <func_126+0x6d2>
   15704:	b8 9d 9e f4 b8       	mov    $0xb8f49e9d,%eax
   15709:	eb 05                	jmp    15710 <func_126+0x6d7>
   1570b:	b8 9c 9e f4 b8       	mov    $0xb8f49e9c,%eax
   15710:	89 85 20 f4 ff ff    	mov    %eax,-0xbe0(%rbp)
   15716:	0f b6 85 0c f4 ff ff 	movzbl -0xbf4(%rbp),%eax
   1571d:	48 31 85 40 f4 ff ff 	xor    %rax,-0xbc0(%rbp)
   15724:	8b 05 7e aa 00 00    	mov    0xaa7e(%rip),%eax        # 201a8 <g_43>
   1572a:	83 c0 01             	add    $0x1,%eax
   1572d:	89 05 75 aa 00 00    	mov    %eax,0xaa75(%rip)        # 201a8 <g_43>
   15733:	8b 05 6f aa 00 00    	mov    0xaa6f(%rip),%eax        # 201a8 <g_43>
   15739:	83 f8 02             	cmp    $0x2,%eax
   1573c:	0f 86 fa fe ff ff    	jbe    1563c <func_126+0x603>
   15742:	48 8b 05 1f 16 01 00 	mov    0x1161f(%rip),%rax        # 26d68 <g_232>
   15749:	0f b6 95 0c f4 ff ff 	movzbl -0xbf4(%rbp),%edx
   15750:	89 10                	mov    %edx,(%rax)
   15752:	48 8b 05 4f af 00 00 	mov    0xaf4f(%rip),%rax        # 206a8 <g_386>
   15759:	48 8b 75 f8          	mov    -0x8(%rbp),%rsi
   1575d:	64 48 33 34 25 28 00 	xor    %fs:0x28,%rsi
   15764:	00 00 
   15766:	74 05                	je     1576d <func_126+0x734>
   15768:	e8 03 09 ff ff       	callq  6070 <__stack_chk_fail@plt>
   1576d:	c9                   	leaveq 
   1576e:	c3                   	retq   

000000000001576f <main>:
   1576f:	f3 0f 1e fa          	endbr64 
   15773:	55                   	push   %rbp
   15774:	48 89 e5             	mov    %rsp,%rbp
   15777:	48 83 ec 20          	sub    $0x20,%rsp
   1577b:	89 7d ec             	mov    %edi,-0x14(%rbp)
   1577e:	48 89 75 e0          	mov    %rsi,-0x20(%rbp)
   15782:	c7 45 fc 00 00 00 00 	movl   $0x0,-0x4(%rbp)
   15789:	83 7d ec 02          	cmpl   $0x2,-0x14(%rbp)
   1578d:	75 25                	jne    157b4 <main+0x45>
   1578f:	48 8b 45 e0          	mov    -0x20(%rbp),%rax
   15793:	48 83 c0 08          	add    $0x8,%rax
   15797:	48 8b 00             	mov    (%rax),%rax
   1579a:	48 8d 35 df 6f 00 00 	lea    0x6fdf(%rip),%rsi        # 1c780 <g_1798+0x26a0>
   157a1:	48 89 c7             	mov    %rax,%rdi
   157a4:	e8 e7 08 ff ff       	callq  6090 <strcmp@plt>
   157a9:	85 c0                	test   %eax,%eax
   157ab:	75 07                	jne    157b4 <main+0x45>
   157ad:	c7 45 fc 01 00 00 00 	movl   $0x1,-0x4(%rbp)
   157b4:	e8 d0 09 ff ff       	callq  6189 <platform_main_begin>
   157b9:	e8 da 1d ff ff       	callq  7598 <crc32_gentab>
   157be:	e8 f2 1f ff ff       	callq  77b5 <func_1>
   157c3:	c7 45 f0 00 00 00 00 	movl   $0x0,-0x10(%rbp)
   157ca:	eb 4b                	jmp    15817 <main+0xa8>
   157cc:	8b 45 f0             	mov    -0x10(%rbp),%eax
   157cf:	48 98                	cltq   
   157d1:	48 8d 14 85 00 00 00 	lea    0x0(,%rax,4),%rdx
   157d8:	00 
   157d9:	48 8d 05 48 a8 00 00 	lea    0xa848(%rip),%rax        # 20028 <g_2>
   157e0:	8b 04 02             	mov    (%rdx,%rax,1),%eax
   157e3:	48 98                	cltq   
   157e5:	8b 55 fc             	mov    -0x4(%rbp),%edx
   157e8:	48 8d 35 93 6f 00 00 	lea    0x6f93(%rip),%rsi        # 1c782 <g_1798+0x26a2>
   157ef:	48 89 c7             	mov    %rax,%rdi
   157f2:	e8 fc 1e ff ff       	callq  76f3 <transparent_crc>
   157f7:	83 7d fc 00          	cmpl   $0x0,-0x4(%rbp)
   157fb:	74 16                	je     15813 <main+0xa4>
   157fd:	8b 45 f0             	mov    -0x10(%rbp),%eax
   15800:	89 c6                	mov    %eax,%esi
   15802:	48 8d 3d 80 6f 00 00 	lea    0x6f80(%rip),%rdi        # 1c789 <g_1798+0x26a9>
   15809:	b8 00 00 00 00       	mov    $0x0,%eax
   1580e:	e8 6d 08 ff ff       	callq  6080 <printf@plt>
   15813:	83 45 f0 01          	addl   $0x1,-0x10(%rbp)
   15817:	83 7d f0 01          	cmpl   $0x1,-0x10(%rbp)
   1581b:	7e af                	jle    157cc <main+0x5d>
   1581d:	c7 45 f0 00 00 00 00 	movl   $0x0,-0x10(%rbp)
   15824:	eb 4b                	jmp    15871 <main+0x102>
   15826:	8b 45 f0             	mov    -0x10(%rbp),%eax
   15829:	48 98                	cltq   
   1582b:	48 8d 14 85 00 00 00 	lea    0x0(,%rax,4),%rdx
   15832:	00 
   15833:	48 8d 05 f6 a7 00 00 	lea    0xa7f6(%rip),%rax        # 20030 <g_5>
   1583a:	8b 04 02             	mov    (%rdx,%rax,1),%eax
   1583d:	48 98                	cltq   
   1583f:	8b 55 fc             	mov    -0x4(%rbp),%edx
   15842:	48 8d 35 4e 6f 00 00 	lea    0x6f4e(%rip),%rsi        # 1c797 <g_1798+0x26b7>
   15849:	48 89 c7             	mov    %rax,%rdi
   1584c:	e8 a2 1e ff ff       	callq  76f3 <transparent_crc>
   15851:	83 7d fc 00          	cmpl   $0x0,-0x4(%rbp)
   15855:	74 16                	je     1586d <main+0xfe>
   15857:	8b 45 f0             	mov    -0x10(%rbp),%eax
   1585a:	89 c6                	mov    %eax,%esi
   1585c:	48 8d 3d 26 6f 00 00 	lea    0x6f26(%rip),%rdi        # 1c789 <g_1798+0x26a9>
   15863:	b8 00 00 00 00       	mov    $0x0,%eax
   15868:	e8 13 08 ff ff       	callq  6080 <printf@plt>
   1586d:	83 45 f0 01          	addl   $0x1,-0x10(%rbp)
   15871:	83 7d f0 05          	cmpl   $0x5,-0x10(%rbp)
   15875:	7e af                	jle    15826 <main+0xb7>
   15877:	8b 05 cb a7 00 00    	mov    0xa7cb(%rip),%eax        # 20048 <g_8>
   1587d:	48 98                	cltq   
   1587f:	8b 55 fc             	mov    -0x4(%rbp),%edx
   15882:	48 8d 35 15 6f 00 00 	lea    0x6f15(%rip),%rsi        # 1c79e <g_1798+0x26be>
   15889:	48 89 c7             	mov    %rax,%rdi
   1588c:	e8 62 1e ff ff       	callq  76f3 <transparent_crc>
   15891:	8b 05 b5 a7 00 00    	mov    0xa7b5(%rip),%eax        # 2004c <g_11>
   15897:	48 98                	cltq   
   15899:	8b 55 fc             	mov    -0x4(%rbp),%edx
   1589c:	48 8d 35 ff 6e 00 00 	lea    0x6eff(%rip),%rsi        # 1c7a2 <g_1798+0x26c2>
   158a3:	48 89 c7             	mov    %rax,%rdi
   158a6:	e8 48 1e ff ff       	callq  76f3 <transparent_crc>
   158ab:	8b 05 9f a7 00 00    	mov    0xa79f(%rip),%eax        # 20050 <g_12>
   158b1:	48 98                	cltq   
   158b3:	8b 55 fc             	mov    -0x4(%rbp),%edx
   158b6:	48 8d 35 ea 6e 00 00 	lea    0x6eea(%rip),%rsi        # 1c7a7 <g_1798+0x26c7>
   158bd:	48 89 c7             	mov    %rax,%rdi
   158c0:	e8 2e 1e ff ff       	callq  76f3 <transparent_crc>
   158c5:	c7 45 f0 00 00 00 00 	movl   $0x0,-0x10(%rbp)
   158cc:	eb 4b                	jmp    15919 <main+0x1aa>
   158ce:	8b 45 f0             	mov    -0x10(%rbp),%eax
   158d1:	48 98                	cltq   
   158d3:	48 8d 14 85 00 00 00 	lea    0x0(,%rax,4),%rdx
   158da:	00 
   158db:	48 8d 05 7e a7 00 00 	lea    0xa77e(%rip),%rax        # 20060 <g_15>
   158e2:	8b 04 02             	mov    (%rdx,%rax,1),%eax
   158e5:	48 98                	cltq   
   158e7:	8b 55 fc             	mov    -0x4(%rbp),%edx
   158ea:	48 8d 35 bb 6e 00 00 	lea    0x6ebb(%rip),%rsi        # 1c7ac <g_1798+0x26cc>
   158f1:	48 89 c7             	mov    %rax,%rdi
   158f4:	e8 fa 1d ff ff       	callq  76f3 <transparent_crc>
   158f9:	83 7d fc 00          	cmpl   $0x0,-0x4(%rbp)
   158fd:	74 16                	je     15915 <main+0x1a6>
   158ff:	8b 45 f0             	mov    -0x10(%rbp),%eax
   15902:	89 c6                	mov    %eax,%esi
   15904:	48 8d 3d 7e 6e 00 00 	lea    0x6e7e(%rip),%rdi        # 1c789 <g_1798+0x26a9>
   1590b:	b8 00 00 00 00       	mov    $0x0,%eax
   15910:	e8 6b 07 ff ff       	callq  6080 <printf@plt>
   15915:	83 45 f0 01          	addl   $0x1,-0x10(%rbp)
   15919:	83 7d f0 04          	cmpl   $0x4,-0x10(%rbp)
   1591d:	7e af                	jle    158ce <main+0x15f>
   1591f:	c7 45 f0 00 00 00 00 	movl   $0x0,-0x10(%rbp)
   15926:	eb 77                	jmp    1599f <main+0x230>
   15928:	c7 45 f4 00 00 00 00 	movl   $0x0,-0xc(%rbp)
   1592f:	eb 64                	jmp    15995 <main+0x226>
   15931:	8b 45 f4             	mov    -0xc(%rbp),%eax
   15934:	48 63 c8             	movslq %eax,%rcx
   15937:	8b 45 f0             	mov    -0x10(%rbp),%eax
   1593a:	48 63 d0             	movslq %eax,%rdx
   1593d:	48 89 d0             	mov    %rdx,%rax
   15940:	48 01 c0             	add    %rax,%rax
   15943:	48 01 d0             	add    %rdx,%rax
   15946:	48 01 c0             	add    %rax,%rax
   15949:	48 01 c8             	add    %rcx,%rax
   1594c:	48 8d 14 85 00 00 00 	lea    0x0(,%rax,4),%rdx
   15953:	00 
   15954:	48 8d 05 25 a7 00 00 	lea    0xa725(%rip),%rax        # 20080 <g_16>
   1595b:	8b 04 02             	mov    (%rdx,%rax,1),%eax
   1595e:	48 98                	cltq   
   15960:	8b 55 fc             	mov    -0x4(%rbp),%edx
   15963:	48 8d 35 4a 6e 00 00 	lea    0x6e4a(%rip),%rsi        # 1c7b4 <g_1798+0x26d4>
   1596a:	48 89 c7             	mov    %rax,%rdi
   1596d:	e8 81 1d ff ff       	callq  76f3 <transparent_crc>
   15972:	83 7d fc 00          	cmpl   $0x0,-0x4(%rbp)
   15976:	74 19                	je     15991 <main+0x222>
   15978:	8b 55 f4             	mov    -0xc(%rbp),%edx
   1597b:	8b 45 f0             	mov    -0x10(%rbp),%eax
   1597e:	89 c6                	mov    %eax,%esi
   15980:	48 8d 3d 38 6e 00 00 	lea    0x6e38(%rip),%rdi        # 1c7bf <g_1798+0x26df>
   15987:	b8 00 00 00 00       	mov    $0x0,%eax
   1598c:	e8 ef 06 ff ff       	callq  6080 <printf@plt>
   15991:	83 45 f4 01          	addl   $0x1,-0xc(%rbp)
   15995:	83 7d f4 05          	cmpl   $0x5,-0xc(%rbp)
   15999:	7e 96                	jle    15931 <main+0x1c2>
   1599b:	83 45 f0 01          	addl   $0x1,-0x10(%rbp)
   1599f:	83 7d f0 09          	cmpl   $0x9,-0x10(%rbp)
   159a3:	7e 83                	jle    15928 <main+0x1b9>
   159a5:	8b 05 c5 a7 00 00    	mov    0xa7c5(%rip),%eax        # 20170 <g_17>
   159ab:	48 98                	cltq   
   159ad:	8b 55 fc             	mov    -0x4(%rbp),%edx
   159b0:	48 8d 35 1a 6e 00 00 	lea    0x6e1a(%rip),%rsi        # 1c7d1 <g_1798+0x26f1>
   159b7:	48 89 c7             	mov    %rax,%rdi
   159ba:	e8 34 1d ff ff       	callq  76f3 <transparent_crc>
   159bf:	8b 05 af a7 00 00    	mov    0xa7af(%rip),%eax        # 20174 <g_18>
   159c5:	48 98                	cltq   
   159c7:	8b 55 fc             	mov    -0x4(%rbp),%edx
   159ca:	48 8d 35 05 6e 00 00 	lea    0x6e05(%rip),%rsi        # 1c7d6 <g_1798+0x26f6>
   159d1:	48 89 c7             	mov    %rax,%rdi
   159d4:	e8 1a 1d ff ff       	callq  76f3 <transparent_crc>
   159d9:	c7 45 f0 00 00 00 00 	movl   $0x0,-0x10(%rbp)
   159e0:	eb 6a                	jmp    15a4c <main+0x2dd>
   159e2:	c7 45 f4 00 00 00 00 	movl   $0x0,-0xc(%rbp)
   159e9:	eb 57                	jmp    15a42 <main+0x2d3>
   159eb:	8b 45 f4             	mov    -0xc(%rbp),%eax
   159ee:	48 63 d0             	movslq %eax,%rdx
   159f1:	8b 45 f0             	mov    -0x10(%rbp),%eax
   159f4:	48 98                	cltq   
   159f6:	48 01 d0             	add    %rdx,%rax
   159f9:	48 8d 14 85 00 00 00 	lea    0x0(,%rax,4),%rdx
   15a00:	00 
   15a01:	48 8d 05 a8 1f 01 00 	lea    0x11fa8(%rip),%rax        # 279b0 <g_29>
   15a08:	8b 04 02             	mov    (%rdx,%rax,1),%eax
   15a0b:	48 98                	cltq   
   15a0d:	8b 55 fc             	mov    -0x4(%rbp),%edx
   15a10:	48 8d 35 c4 6d 00 00 	lea    0x6dc4(%rip),%rsi        # 1c7db <g_1798+0x26fb>
   15a17:	48 89 c7             	mov    %rax,%rdi
   15a1a:	e8 d4 1c ff ff       	callq  76f3 <transparent_crc>
   15a1f:	83 7d fc 00          	cmpl   $0x0,-0x4(%rbp)
   15a23:	74 19                	je     15a3e <main+0x2cf>
   15a25:	8b 55 f4             	mov    -0xc(%rbp),%edx
   15a28:	8b 45 f0             	mov    -0x10(%rbp),%eax
   15a2b:	89 c6                	mov    %eax,%esi
   15a2d:	48 8d 3d 8b 6d 00 00 	lea    0x6d8b(%rip),%rdi        # 1c7bf <g_1798+0x26df>
   15a34:	b8 00 00 00 00       	mov    $0x0,%eax
   15a39:	e8 42 06 ff ff       	callq  6080 <printf@plt>
   15a3e:	83 45 f4 01          	addl   $0x1,-0xc(%rbp)
   15a42:	83 7d f4 00          	cmpl   $0x0,-0xc(%rbp)
   15a46:	7e a3                	jle    159eb <main+0x27c>
   15a48:	83 45 f0 01          	addl   $0x1,-0x10(%rbp)
   15a4c:	83 7d f0 03          	cmpl   $0x3,-0x10(%rbp)
   15a50:	7e 90                	jle    159e2 <main+0x273>
   15a52:	8b 05 28 a7 00 00    	mov    0xa728(%rip),%eax        # 20180 <g_41>
   15a58:	48 98                	cltq   
   15a5a:	8b 55 fc             	mov    -0x4(%rbp),%edx
   15a5d:	48 8d 35 82 6d 00 00 	lea    0x6d82(%rip),%rsi        # 1c7e6 <g_1798+0x2706>
   15a64:	48 89 c7             	mov    %rax,%rdi
   15a67:	e8 87 1c ff ff       	callq  76f3 <transparent_crc>
   15a6c:	48 8b 05 0d a7 00 00 	mov    0xa70d(%rip),%rax        # 20180 <g_41>
   15a73:	c1 e0 03             	shl    $0x3,%eax
   15a76:	66 c1 f8 03          	sar    $0x3,%ax
   15a7a:	48 0f bf c0          	movswq %ax,%rax
   15a7e:	8b 55 fc             	mov    -0x4(%rbp),%edx
   15a81:	48 8d 35 66 6d 00 00 	lea    0x6d66(%rip),%rsi        # 1c7ee <g_1798+0x270e>
   15a88:	48 89 c7             	mov    %rax,%rdi
   15a8b:	e8 63 1c ff ff       	callq  76f3 <transparent_crc>
   15a90:	8b 05 12 a7 00 00    	mov    0xa712(%rip),%eax        # 201a8 <g_43>
   15a96:	89 c1                	mov    %eax,%ecx
   15a98:	8b 45 fc             	mov    -0x4(%rbp),%eax
   15a9b:	89 c2                	mov    %eax,%edx
   15a9d:	48 8d 35 52 6d 00 00 	lea    0x6d52(%rip),%rsi        # 1c7f6 <g_1798+0x2716>
   15aa4:	48 89 cf             	mov    %rcx,%rdi
   15aa7:	e8 47 1c ff ff       	callq  76f3 <transparent_crc>
   15aac:	8b 05 fa a6 00 00    	mov    0xa6fa(%rip),%eax        # 201ac <g_47>
   15ab2:	89 c1                	mov    %eax,%ecx
   15ab4:	8b 45 fc             	mov    -0x4(%rbp),%eax
   15ab7:	89 c2                	mov    %eax,%edx
   15ab9:	48 8d 35 3b 6d 00 00 	lea    0x6d3b(%rip),%rsi        # 1c7fb <g_1798+0x271b>
   15ac0:	48 89 cf             	mov    %rcx,%rdi
   15ac3:	e8 2b 1c ff ff       	callq  76f3 <transparent_crc>
   15ac8:	8b 05 e2 a6 00 00    	mov    0xa6e2(%rip),%eax        # 201b0 <g_76>
   15ace:	89 c1                	mov    %eax,%ecx
   15ad0:	8b 45 fc             	mov    -0x4(%rbp),%eax
   15ad3:	89 c2                	mov    %eax,%edx
   15ad5:	48 8d 35 24 6d 00 00 	lea    0x6d24(%rip),%rsi        # 1c800 <g_1798+0x2720>
   15adc:	48 89 cf             	mov    %rcx,%rdi
   15adf:	e8 0f 1c ff ff       	callq  76f3 <transparent_crc>
   15ae4:	0f b6 05 c9 a6 00 00 	movzbl 0xa6c9(%rip),%eax        # 201b4 <g_78>
   15aeb:	48 0f be c0          	movsbq %al,%rax
   15aef:	8b 55 fc             	mov    -0x4(%rbp),%edx
   15af2:	48 8d 35 0c 6d 00 00 	lea    0x6d0c(%rip),%rsi        # 1c805 <g_1798+0x2725>
   15af9:	48 89 c7             	mov    %rax,%rdi
   15afc:	e8 f2 1b ff ff       	callq  76f3 <transparent_crc>
   15b01:	48 8b 05 b0 a6 00 00 	mov    0xa6b0(%rip),%rax        # 201b8 <g_82>
   15b08:	8b 55 fc             	mov    -0x4(%rbp),%edx
   15b0b:	48 8d 35 f8 6c 00 00 	lea    0x6cf8(%rip),%rsi        # 1c80a <g_1798+0x272a>
   15b12:	48 89 c7             	mov    %rax,%rdi
   15b15:	e8 d9 1b ff ff       	callq  76f3 <transparent_crc>
   15b1a:	0f b6 05 9f a6 00 00 	movzbl 0xa69f(%rip),%eax        # 201c0 <g_84>
   15b21:	0f b6 c0             	movzbl %al,%eax
   15b24:	8b 55 fc             	mov    -0x4(%rbp),%edx
   15b27:	48 8d 35 e1 6c 00 00 	lea    0x6ce1(%rip),%rsi        # 1c80f <g_1798+0x272f>
   15b2e:	48 89 c7             	mov    %rax,%rdi
   15b31:	e8 bd 1b ff ff       	callq  76f3 <transparent_crc>
   15b36:	0f b7 05 85 a6 00 00 	movzwl 0xa685(%rip),%eax        # 201c2 <g_89>
   15b3d:	0f b7 c0             	movzwl %ax,%eax
   15b40:	8b 55 fc             	mov    -0x4(%rbp),%edx
   15b43:	48 8d 35 ca 6c 00 00 	lea    0x6cca(%rip),%rsi        # 1c814 <g_1798+0x2734>
   15b4a:	48 89 c7             	mov    %rax,%rdi
   15b4d:	e8 a1 1b ff ff       	callq  76f3 <transparent_crc>
   15b52:	48 8b 05 77 a7 00 00 	mov    0xa777(%rip),%rax        # 202d0 <g_139>
   15b59:	48 89 c1             	mov    %rax,%rcx
   15b5c:	8b 45 fc             	mov    -0x4(%rbp),%eax
   15b5f:	89 c2                	mov    %eax,%edx
   15b61:	48 8d 35 b1 6c 00 00 	lea    0x6cb1(%rip),%rsi        # 1c819 <g_1798+0x2739>
   15b68:	48 89 cf             	mov    %rcx,%rdi
   15b6b:	e8 83 1b ff ff       	callq  76f3 <transparent_crc>
   15b70:	8b 05 62 a7 00 00    	mov    0xa762(%rip),%eax        # 202d8 <g_142>
   15b76:	48 98                	cltq   
   15b78:	8b 55 fc             	mov    -0x4(%rbp),%edx
   15b7b:	48 8d 35 9d 6c 00 00 	lea    0x6c9d(%rip),%rsi        # 1c81f <g_1798+0x273f>
   15b82:	48 89 c7             	mov    %rax,%rdi
   15b85:	e8 69 1b ff ff       	callq  76f3 <transparent_crc>
   15b8a:	0f b6 05 4b a7 00 00 	movzbl 0xa74b(%rip),%eax        # 202dc <g_165>
   15b91:	48 0f be c0          	movsbq %al,%rax
   15b95:	8b 55 fc             	mov    -0x4(%rbp),%edx
   15b98:	48 8d 35 86 6c 00 00 	lea    0x6c86(%rip),%rsi        # 1c825 <g_1798+0x2745>
   15b9f:	48 89 c7             	mov    %rax,%rdi
   15ba2:	e8 4c 1b ff ff       	callq  76f3 <transparent_crc>
   15ba7:	8b 05 33 a7 00 00    	mov    0xa733(%rip),%eax        # 202e0 <g_168>
   15bad:	48 98                	cltq   
   15baf:	8b 55 fc             	mov    -0x4(%rbp),%edx
   15bb2:	48 8d 35 72 6c 00 00 	lea    0x6c72(%rip),%rsi        # 1c82b <g_1798+0x274b>
   15bb9:	48 89 c7             	mov    %rax,%rdi
   15bbc:	e8 32 1b ff ff       	callq  76f3 <transparent_crc>
   15bc1:	8b 05 1d a7 00 00    	mov    0xa71d(%rip),%eax        # 202e4 <g_168+0x4>
   15bc7:	89 c1                	mov    %eax,%ecx
   15bc9:	8b 45 fc             	mov    -0x4(%rbp),%eax
   15bcc:	89 c2                	mov    %eax,%edx
   15bce:	48 8d 35 5f 6c 00 00 	lea    0x6c5f(%rip),%rsi        # 1c834 <g_1798+0x2754>
   15bd5:	48 89 cf             	mov    %rcx,%rdi
   15bd8:	e8 16 1b ff ff       	callq  76f3 <transparent_crc>
   15bdd:	8b 05 05 a7 00 00    	mov    0xa705(%rip),%eax        # 202e8 <g_168+0x8>
   15be3:	48 98                	cltq   
   15be5:	8b 55 fc             	mov    -0x4(%rbp),%edx
   15be8:	48 8d 35 4e 6c 00 00 	lea    0x6c4e(%rip),%rsi        # 1c83d <g_1798+0x275d>
   15bef:	48 89 c7             	mov    %rax,%rdi
   15bf2:	e8 fc 1a ff ff       	callq  76f3 <transparent_crc>
   15bf7:	8b 05 ef a6 00 00    	mov    0xa6ef(%rip),%eax        # 202ec <g_168+0xc>
   15bfd:	48 98                	cltq   
   15bff:	8b 55 fc             	mov    -0x4(%rbp),%edx
   15c02:	48 8d 35 3d 6c 00 00 	lea    0x6c3d(%rip),%rsi        # 1c846 <g_1798+0x2766>
   15c09:	48 89 c7             	mov    %rax,%rdi
   15c0c:	e8 e2 1a ff ff       	callq  76f3 <transparent_crc>
   15c11:	48 8b 05 d8 a6 00 00 	mov    0xa6d8(%rip),%rax        # 202f0 <g_168+0x10>
   15c18:	25 ff ff ff 03       	and    $0x3ffffff,%eax
   15c1d:	89 c1                	mov    %eax,%ecx
   15c1f:	8b 45 fc             	mov    -0x4(%rbp),%eax
   15c22:	89 c2                	mov    %eax,%edx
   15c24:	48 8d 35 24 6c 00 00 	lea    0x6c24(%rip),%rsi        # 1c84f <g_1798+0x276f>
   15c2b:	48 89 cf             	mov    %rcx,%rdi
   15c2e:	e8 c0 1a ff ff       	callq  76f3 <transparent_crc>
   15c33:	48 8b 05 c6 a6 00 00 	mov    0xa6c6(%rip),%rax        # 20300 <g_197>
   15c3a:	8b 55 fc             	mov    -0x4(%rbp),%edx
   15c3d:	48 8d 35 14 6c 00 00 	lea    0x6c14(%rip),%rsi        # 1c858 <g_1798+0x2778>
   15c44:	48 89 c7             	mov    %rax,%rdi
   15c47:	e8 a7 1a ff ff       	callq  76f3 <transparent_crc>
   15c4c:	8b 05 b6 a6 00 00    	mov    0xa6b6(%rip),%eax        # 20308 <g_197+0x8>
   15c52:	48 98                	cltq   
   15c54:	8b 55 fc             	mov    -0x4(%rbp),%edx
   15c57:	48 8d 35 06 6c 00 00 	lea    0x6c06(%rip),%rsi        # 1c864 <g_1798+0x2784>
   15c5e:	48 89 c7             	mov    %rax,%rdi
   15c61:	e8 8d 1a ff ff       	callq  76f3 <transparent_crc>
   15c66:	0f b6 05 9f a6 00 00 	movzbl 0xa69f(%rip),%eax        # 2030c <g_197+0xc>
   15c6d:	0f b6 c0             	movzbl %al,%eax
   15c70:	8b 55 fc             	mov    -0x4(%rbp),%edx
   15c73:	48 8d 35 f3 6b 00 00 	lea    0x6bf3(%rip),%rsi        # 1c86d <g_1798+0x278d>
   15c7a:	48 89 c7             	mov    %rax,%rdi
   15c7d:	e8 71 1a ff ff       	callq  76f3 <transparent_crc>
   15c82:	0f b7 05 84 a6 00 00 	movzwl 0xa684(%rip),%eax        # 2030d <g_197+0xd>
   15c89:	48 0f bf c0          	movswq %ax,%rax
   15c8d:	8b 55 fc             	mov    -0x4(%rbp),%edx
   15c90:	48 8d 35 df 6b 00 00 	lea    0x6bdf(%rip),%rsi        # 1c876 <g_1798+0x2796>
   15c97:	48 89 c7             	mov    %rax,%rdi
   15c9a:	e8 54 1a ff ff       	callq  76f3 <transparent_crc>
   15c9f:	48 8b 05 69 a6 00 00 	mov    0xa669(%rip),%rax        # 2030f <g_197+0xf>
   15ca6:	8b 55 fc             	mov    -0x4(%rbp),%edx
   15ca9:	48 8d 35 cf 6b 00 00 	lea    0x6bcf(%rip),%rsi        # 1c87f <g_1798+0x279f>
   15cb0:	48 89 c7             	mov    %rax,%rdi
   15cb3:	e8 3b 1a ff ff       	callq  76f3 <transparent_crc>
   15cb8:	8b 05 59 a6 00 00    	mov    0xa659(%rip),%eax        # 20317 <g_197+0x17>
   15cbe:	48 98                	cltq   
   15cc0:	8b 55 fc             	mov    -0x4(%rbp),%edx
   15cc3:	48 8d 35 be 6b 00 00 	lea    0x6bbe(%rip),%rsi        # 1c888 <g_1798+0x27a8>
   15cca:	48 89 c7             	mov    %rax,%rdi
   15ccd:	e8 21 1a ff ff       	callq  76f3 <transparent_crc>
   15cd2:	0f b7 05 42 a6 00 00 	movzwl 0xa642(%rip),%eax        # 2031b <g_197+0x1b>
   15cd9:	0f b7 c0             	movzwl %ax,%eax
   15cdc:	8b 55 fc             	mov    -0x4(%rbp),%edx
   15cdf:	48 8d 35 ab 6b 00 00 	lea    0x6bab(%rip),%rsi        # 1c891 <g_1798+0x27b1>
   15ce6:	48 89 c7             	mov    %rax,%rdi
   15ce9:	e8 05 1a ff ff       	callq  76f3 <transparent_crc>
   15cee:	48 8b 05 28 a6 00 00 	mov    0xa628(%rip),%rax        # 2031d <g_197+0x1d>
   15cf5:	8b 55 fc             	mov    -0x4(%rbp),%edx
   15cf8:	48 8d 35 9b 6b 00 00 	lea    0x6b9b(%rip),%rsi        # 1c89a <g_1798+0x27ba>
   15cff:	48 89 c7             	mov    %rax,%rdi
   15d02:	e8 ec 19 ff ff       	callq  76f3 <transparent_crc>
   15d07:	c7 45 f0 00 00 00 00 	movl   $0x0,-0x10(%rbp)
   15d0e:	eb 74                	jmp    15d84 <main+0x615>
   15d10:	c7 45 f4 00 00 00 00 	movl   $0x0,-0xc(%rbp)
   15d17:	eb 61                	jmp    15d7a <main+0x60b>
   15d19:	8b 45 f4             	mov    -0xc(%rbp),%eax
   15d1c:	48 63 c8             	movslq %eax,%rcx
   15d1f:	8b 45 f0             	mov    -0x10(%rbp),%eax
   15d22:	48 63 d0             	movslq %eax,%rdx
   15d25:	48 89 d0             	mov    %rdx,%rax
   15d28:	48 c1 e0 02          	shl    $0x2,%rax
   15d2c:	48 01 d0             	add    %rdx,%rax
   15d2f:	48 01 c8             	add    %rcx,%rax
   15d32:	48 8d 14 c5 00 00 00 	lea    0x0(,%rax,8),%rdx
   15d39:	00 
   15d3a:	48 8d 05 ff a5 00 00 	lea    0xa5ff(%rip),%rax        # 20340 <g_209>
   15d41:	48 8b 04 02          	mov    (%rdx,%rax,1),%rax
   15d45:	8b 55 fc             	mov    -0x4(%rbp),%edx
   15d48:	48 8d 35 57 6b 00 00 	lea    0x6b57(%rip),%rsi        # 1c8a6 <g_1798+0x27c6>
   15d4f:	48 89 c7             	mov    %rax,%rdi
   15d52:	e8 9c 19 ff ff       	callq  76f3 <transparent_crc>
   15d57:	83 7d fc 00          	cmpl   $0x0,-0x4(%rbp)
   15d5b:	74 19                	je     15d76 <main+0x607>
   15d5d:	8b 55 f4             	mov    -0xc(%rbp),%edx
   15d60:	8b 45 f0             	mov    -0x10(%rbp),%eax
   15d63:	89 c6                	mov    %eax,%esi
   15d65:	48 8d 3d 53 6a 00 00 	lea    0x6a53(%rip),%rdi        # 1c7bf <g_1798+0x26df>
   15d6c:	b8 00 00 00 00       	mov    $0x0,%eax
   15d71:	e8 0a 03 ff ff       	callq  6080 <printf@plt>
   15d76:	83 45 f4 01          	addl   $0x1,-0xc(%rbp)
   15d7a:	83 7d f4 04          	cmpl   $0x4,-0xc(%rbp)
   15d7e:	7e 99                	jle    15d19 <main+0x5aa>
   15d80:	83 45 f0 01          	addl   $0x1,-0x10(%rbp)
   15d84:	83 7d f0 05          	cmpl   $0x5,-0x10(%rbp)
   15d88:	7e 86                	jle    15d10 <main+0x5a1>
   15d8a:	c7 45 f0 00 00 00 00 	movl   $0x0,-0x10(%rbp)
   15d91:	eb 4a                	jmp    15ddd <main+0x66e>
   15d93:	8b 45 f0             	mov    -0x10(%rbp),%eax
   15d96:	48 98                	cltq   
   15d98:	48 8d 14 c5 00 00 00 	lea    0x0(,%rax,8),%rdx
   15d9f:	00 
   15da0:	48 8d 05 89 a6 00 00 	lea    0xa689(%rip),%rax        # 20430 <g_225>
   15da7:	48 8b 04 02          	mov    (%rdx,%rax,1),%rax
   15dab:	8b 55 fc             	mov    -0x4(%rbp),%edx
   15dae:	48 8d 35 00 6b 00 00 	lea    0x6b00(%rip),%rsi        # 1c8b5 <g_1798+0x27d5>
   15db5:	48 89 c7             	mov    %rax,%rdi
   15db8:	e8 36 19 ff ff       	callq  76f3 <transparent_crc>
   15dbd:	83 7d fc 00          	cmpl   $0x0,-0x4(%rbp)
   15dc1:	74 16                	je     15dd9 <main+0x66a>
   15dc3:	8b 45 f0             	mov    -0x10(%rbp),%eax
   15dc6:	89 c6                	mov    %eax,%esi
   15dc8:	48 8d 3d ba 69 00 00 	lea    0x69ba(%rip),%rdi        # 1c789 <g_1798+0x26a9>
   15dcf:	b8 00 00 00 00       	mov    $0x0,%eax
   15dd4:	e8 a7 02 ff ff       	callq  6080 <printf@plt>
   15dd9:	83 45 f0 01          	addl   $0x1,-0x10(%rbp)
   15ddd:	83 7d f0 02          	cmpl   $0x2,-0x10(%rbp)
   15de1:	7e b0                	jle    15d93 <main+0x624>
   15de3:	8b 05 5f a6 00 00    	mov    0xa65f(%rip),%eax        # 20448 <g_262>
   15de9:	48 98                	cltq   
   15deb:	8b 55 fc             	mov    -0x4(%rbp),%edx
   15dee:	48 8d 35 cc 6a 00 00 	lea    0x6acc(%rip),%rsi        # 1c8c1 <g_1798+0x27e1>
   15df5:	48 89 c7             	mov    %rax,%rdi
   15df8:	e8 f6 18 ff ff       	callq  76f3 <transparent_crc>
   15dfd:	8b 05 4d a6 00 00    	mov    0xa64d(%rip),%eax        # 20450 <g_292>
   15e03:	48 98                	cltq   
   15e05:	8b 55 fc             	mov    -0x4(%rbp),%edx
   15e08:	48 8d 35 b8 6a 00 00 	lea    0x6ab8(%rip),%rsi        # 1c8c7 <g_1798+0x27e7>
   15e0f:	48 89 c7             	mov    %rax,%rdi
   15e12:	e8 dc 18 ff ff       	callq  76f3 <transparent_crc>
   15e17:	8b 05 37 a6 00 00    	mov    0xa637(%rip),%eax        # 20454 <g_292+0x4>
   15e1d:	89 c1                	mov    %eax,%ecx
   15e1f:	8b 45 fc             	mov    -0x4(%rbp),%eax
   15e22:	89 c2                	mov    %eax,%edx
   15e24:	48 8d 35 a5 6a 00 00 	lea    0x6aa5(%rip),%rsi        # 1c8d0 <g_1798+0x27f0>
   15e2b:	48 89 cf             	mov    %rcx,%rdi
   15e2e:	e8 c0 18 ff ff       	callq  76f3 <transparent_crc>
   15e33:	8b 05 1f a6 00 00    	mov    0xa61f(%rip),%eax        # 20458 <g_292+0x8>
   15e39:	48 98                	cltq   
   15e3b:	8b 55 fc             	mov    -0x4(%rbp),%edx
   15e3e:	48 8d 35 94 6a 00 00 	lea    0x6a94(%rip),%rsi        # 1c8d9 <g_1798+0x27f9>
   15e45:	48 89 c7             	mov    %rax,%rdi
   15e48:	e8 a6 18 ff ff       	callq  76f3 <transparent_crc>
   15e4d:	8b 05 09 a6 00 00    	mov    0xa609(%rip),%eax        # 2045c <g_292+0xc>
   15e53:	48 98                	cltq   
   15e55:	8b 55 fc             	mov    -0x4(%rbp),%edx
   15e58:	48 8d 35 83 6a 00 00 	lea    0x6a83(%rip),%rsi        # 1c8e2 <g_1798+0x2802>
   15e5f:	48 89 c7             	mov    %rax,%rdi
   15e62:	e8 8c 18 ff ff       	callq  76f3 <transparent_crc>
   15e67:	48 8b 05 f2 a5 00 00 	mov    0xa5f2(%rip),%rax        # 20460 <g_292+0x10>
   15e6e:	25 ff ff ff 03       	and    $0x3ffffff,%eax
   15e73:	89 c1                	mov    %eax,%ecx
   15e75:	8b 45 fc             	mov    -0x4(%rbp),%eax
   15e78:	89 c2                	mov    %eax,%edx
   15e7a:	48 8d 35 6a 6a 00 00 	lea    0x6a6a(%rip),%rsi        # 1c8eb <g_1798+0x280b>
   15e81:	48 89 cf             	mov    %rcx,%rdi
   15e84:	e8 6a 18 ff ff       	callq  76f3 <transparent_crc>
   15e89:	c7 45 f0 00 00 00 00 	movl   $0x0,-0x10(%rbp)
   15e90:	eb 75                	jmp    15f07 <main+0x798>
   15e92:	c7 45 f4 00 00 00 00 	movl   $0x0,-0xc(%rbp)
   15e99:	eb 62                	jmp    15efd <main+0x78e>
   15e9b:	8b 45 f4             	mov    -0xc(%rbp),%eax
   15e9e:	48 63 c8             	movslq %eax,%rcx
   15ea1:	8b 45 f0             	mov    -0x10(%rbp),%eax
   15ea4:	48 63 d0             	movslq %eax,%rdx
   15ea7:	48 89 d0             	mov    %rdx,%rax
   15eaa:	48 c1 e0 02          	shl    $0x2,%rax
   15eae:	48 01 d0             	add    %rdx,%rax
   15eb1:	48 01 c8             	add    %rcx,%rax
   15eb4:	48 8d 14 85 00 00 00 	lea    0x0(,%rax,4),%rdx
   15ebb:	00 
   15ebc:	48 8d 05 bd a5 00 00 	lea    0xa5bd(%rip),%rax        # 20480 <g_312>
   15ec3:	8b 04 02             	mov    (%rdx,%rax,1),%eax
   15ec6:	48 98                	cltq   
   15ec8:	8b 55 fc             	mov    -0x4(%rbp),%edx
   15ecb:	48 8d 35 22 6a 00 00 	lea    0x6a22(%rip),%rsi        # 1c8f4 <g_1798+0x2814>
   15ed2:	48 89 c7             	mov    %rax,%rdi
   15ed5:	e8 19 18 ff ff       	callq  76f3 <transparent_crc>
   15eda:	83 7d fc 00          	cmpl   $0x0,-0x4(%rbp)
   15ede:	74 19                	je     15ef9 <main+0x78a>
   15ee0:	8b 55 f4             	mov    -0xc(%rbp),%edx
   15ee3:	8b 45 f0             	mov    -0x10(%rbp),%eax
   15ee6:	89 c6                	mov    %eax,%esi
   15ee8:	48 8d 3d d0 68 00 00 	lea    0x68d0(%rip),%rdi        # 1c7bf <g_1798+0x26df>
   15eef:	b8 00 00 00 00       	mov    $0x0,%eax
   15ef4:	e8 87 01 ff ff       	callq  6080 <printf@plt>
   15ef9:	83 45 f4 01          	addl   $0x1,-0xc(%rbp)
   15efd:	83 7d f4 04          	cmpl   $0x4,-0xc(%rbp)
   15f01:	7e 98                	jle    15e9b <main+0x72c>
   15f03:	83 45 f0 01          	addl   $0x1,-0x10(%rbp)
   15f07:	83 7d f0 02          	cmpl   $0x2,-0x10(%rbp)
   15f0b:	7e 85                	jle    15e92 <main+0x723>
   15f0d:	8b 05 a9 a5 00 00    	mov    0xa5a9(%rip),%eax        # 204bc <g_332>
   15f13:	89 c1                	mov    %eax,%ecx
   15f15:	8b 45 fc             	mov    -0x4(%rbp),%eax
   15f18:	89 c2                	mov    %eax,%edx
   15f1a:	48 8d 35 df 69 00 00 	lea    0x69df(%rip),%rsi        # 1c900 <g_1798+0x2820>
   15f21:	48 89 cf             	mov    %rcx,%rdi
   15f24:	e8 ca 17 ff ff       	callq  76f3 <transparent_crc>
   15f29:	b8 ff ff ff ff       	mov    $0xffffffff,%eax
   15f2e:	48 98                	cltq   
   15f30:	8b 55 fc             	mov    -0x4(%rbp),%edx
   15f33:	48 8d 35 cc 69 00 00 	lea    0x69cc(%rip),%rsi        # 1c906 <g_1798+0x2826>
   15f3a:	48 89 c7             	mov    %rax,%rdi
   15f3d:	e8 b1 17 ff ff       	callq  76f3 <transparent_crc>
   15f42:	b8 04 00 00 00       	mov    $0x4,%eax
   15f47:	89 c1                	mov    %eax,%ecx
   15f49:	8b 45 fc             	mov    -0x4(%rbp),%eax
   15f4c:	89 c2                	mov    %eax,%edx
   15f4e:	48 8d 35 ba 69 00 00 	lea    0x69ba(%rip),%rsi        # 1c90f <g_1798+0x282f>
   15f55:	48 89 cf             	mov    %rcx,%rdi
   15f58:	e8 96 17 ff ff       	callq  76f3 <transparent_crc>
   15f5d:	8b 05 05 41 00 00    	mov    0x4105(%rip),%eax        # 1a068 <g_336+0x8>
   15f63:	48 98                	cltq   
   15f65:	8b 55 fc             	mov    -0x4(%rbp),%edx
   15f68:	48 8d 35 a9 69 00 00 	lea    0x69a9(%rip),%rsi        # 1c918 <g_1798+0x2838>
   15f6f:	48 89 c7             	mov    %rax,%rdi
   15f72:	e8 7c 17 ff ff       	callq  76f3 <transparent_crc>
   15f77:	8b 05 ef 40 00 00    	mov    0x40ef(%rip),%eax        # 1a06c <g_336+0xc>
   15f7d:	48 98                	cltq   
   15f7f:	8b 55 fc             	mov    -0x4(%rbp),%edx
   15f82:	48 8d 35 98 69 00 00 	lea    0x6998(%rip),%rsi        # 1c921 <g_1798+0x2841>
   15f89:	48 89 c7             	mov    %rax,%rdi
   15f8c:	e8 62 17 ff ff       	callq  76f3 <transparent_crc>
   15f91:	b8 97 12 00 00       	mov    $0x1297,%eax
   15f96:	89 c1                	mov    %eax,%ecx
   15f98:	8b 45 fc             	mov    -0x4(%rbp),%eax
   15f9b:	89 c2                	mov    %eax,%edx
   15f9d:	48 8d 35 86 69 00 00 	lea    0x6986(%rip),%rsi        # 1c92a <g_1798+0x284a>
   15fa4:	48 89 cf             	mov    %rcx,%rdi
   15fa7:	e8 47 17 ff ff       	callq  76f3 <transparent_crc>
   15fac:	8b 05 0e a5 00 00    	mov    0xa50e(%rip),%eax        # 204c0 <g_342>
   15fb2:	48 98                	cltq   
   15fb4:	8b 55 fc             	mov    -0x4(%rbp),%edx
   15fb7:	48 8d 35 75 69 00 00 	lea    0x6975(%rip),%rsi        # 1c933 <g_1798+0x2853>
   15fbe:	48 89 c7             	mov    %rax,%rdi
   15fc1:	e8 2d 17 ff ff       	callq  76f3 <transparent_crc>
   15fc6:	8b 05 f8 a4 00 00    	mov    0xa4f8(%rip),%eax        # 204c4 <g_342+0x4>
   15fcc:	89 c1                	mov    %eax,%ecx
   15fce:	8b 45 fc             	mov    -0x4(%rbp),%eax
   15fd1:	89 c2                	mov    %eax,%edx
   15fd3:	48 8d 35 62 69 00 00 	lea    0x6962(%rip),%rsi        # 1c93c <g_1798+0x285c>
   15fda:	48 89 cf             	mov    %rcx,%rdi
   15fdd:	e8 11 17 ff ff       	callq  76f3 <transparent_crc>
   15fe2:	8b 05 e0 a4 00 00    	mov    0xa4e0(%rip),%eax        # 204c8 <g_342+0x8>
   15fe8:	48 98                	cltq   
   15fea:	8b 55 fc             	mov    -0x4(%rbp),%edx
   15fed:	48 8d 35 51 69 00 00 	lea    0x6951(%rip),%rsi        # 1c945 <g_1798+0x2865>
   15ff4:	48 89 c7             	mov    %rax,%rdi
   15ff7:	e8 f7 16 ff ff       	callq  76f3 <transparent_crc>
   15ffc:	8b 05 ca a4 00 00    	mov    0xa4ca(%rip),%eax        # 204cc <g_342+0xc>
   16002:	48 98                	cltq   
   16004:	8b 55 fc             	mov    -0x4(%rbp),%edx
   16007:	48 8d 35 40 69 00 00 	lea    0x6940(%rip),%rsi        # 1c94e <g_1798+0x286e>
   1600e:	48 89 c7             	mov    %rax,%rdi
   16011:	e8 dd 16 ff ff       	callq  76f3 <transparent_crc>
   16016:	8b 05 b4 a4 00 00    	mov    0xa4b4(%rip),%eax        # 204d0 <g_342+0x10>
   1601c:	25 ff ff ff 03       	and    $0x3ffffff,%eax
   16021:	89 c1                	mov    %eax,%ecx
   16023:	8b 45 fc             	mov    -0x4(%rbp),%eax
   16026:	89 c2                	mov    %eax,%edx
   16028:	48 8d 35 28 69 00 00 	lea    0x6928(%rip),%rsi        # 1c957 <g_1798+0x2877>
   1602f:	48 89 cf             	mov    %rcx,%rdi
   16032:	e8 bc 16 ff ff       	callq  76f3 <transparent_crc>
   16037:	0f b7 05 96 a4 00 00 	movzwl 0xa496(%rip),%eax        # 204d4 <g_352>
   1603e:	0f b7 c0             	movzwl %ax,%eax
   16041:	8b 55 fc             	mov    -0x4(%rbp),%edx
   16044:	48 8d 35 15 69 00 00 	lea    0x6915(%rip),%rsi        # 1c960 <g_1798+0x2880>
   1604b:	48 89 c7             	mov    %rax,%rdi
   1604e:	e8 a0 16 ff ff       	callq  76f3 <transparent_crc>
   16053:	0f b7 05 7c a4 00 00 	movzwl 0xa47c(%rip),%eax        # 204d6 <g_353>
   1605a:	0f b7 c0             	movzwl %ax,%eax
   1605d:	8b 55 fc             	mov    -0x4(%rbp),%edx
   16060:	48 8d 35 ff 68 00 00 	lea    0x68ff(%rip),%rsi        # 1c966 <g_1798+0x2886>
   16067:	48 89 c7             	mov    %rax,%rdi
   1606a:	e8 84 16 ff ff       	callq  76f3 <transparent_crc>
   1606f:	0f b7 05 62 a4 00 00 	movzwl 0xa462(%rip),%eax        # 204d8 <g_354>
   16076:	0f b7 c0             	movzwl %ax,%eax
   16079:	8b 55 fc             	mov    -0x4(%rbp),%edx
   1607c:	48 8d 35 e9 68 00 00 	lea    0x68e9(%rip),%rsi        # 1c96c <g_1798+0x288c>
   16083:	48 89 c7             	mov    %rax,%rdi
   16086:	e8 68 16 ff ff       	callq  76f3 <transparent_crc>
   1608b:	c7 45 f0 00 00 00 00 	movl   $0x0,-0x10(%rbp)
   16092:	eb 49                	jmp    160dd <main+0x96e>
   16094:	8b 45 f0             	mov    -0x10(%rbp),%eax
   16097:	48 98                	cltq   
   16099:	48 8d 14 00          	lea    (%rax,%rax,1),%rdx
   1609d:	48 8d 05 3c a4 00 00 	lea    0xa43c(%rip),%rax        # 204e0 <g_355>
   160a4:	0f b7 04 02          	movzwl (%rdx,%rax,1),%eax
   160a8:	0f b7 c0             	movzwl %ax,%eax
   160ab:	8b 55 fc             	mov    -0x4(%rbp),%edx
   160ae:	48 8d 35 bd 68 00 00 	lea    0x68bd(%rip),%rsi        # 1c972 <g_1798+0x2892>
   160b5:	48 89 c7             	mov    %rax,%rdi
   160b8:	e8 36 16 ff ff       	callq  76f3 <transparent_crc>
   160bd:	83 7d fc 00          	cmpl   $0x0,-0x4(%rbp)
   160c1:	74 16                	je     160d9 <main+0x96a>
   160c3:	8b 45 f0             	mov    -0x10(%rbp),%eax
   160c6:	89 c6                	mov    %eax,%esi
   160c8:	48 8d 3d ba 66 00 00 	lea    0x66ba(%rip),%rdi        # 1c789 <g_1798+0x26a9>
   160cf:	b8 00 00 00 00       	mov    $0x0,%eax
   160d4:	e8 a7 ff fe ff       	callq  6080 <printf@plt>
   160d9:	83 45 f0 01          	addl   $0x1,-0x10(%rbp)
   160dd:	83 7d f0 04          	cmpl   $0x4,-0x10(%rbp)
   160e1:	7e b1                	jle    16094 <main+0x925>
   160e3:	0f b7 05 00 a4 00 00 	movzwl 0xa400(%rip),%eax        # 204ea <g_356>
   160ea:	0f b7 c0             	movzwl %ax,%eax
   160ed:	8b 55 fc             	mov    -0x4(%rbp),%edx
   160f0:	48 8d 35 84 68 00 00 	lea    0x6884(%rip),%rsi        # 1c97b <g_1798+0x289b>
   160f7:	48 89 c7             	mov    %rax,%rdi
   160fa:	e8 f4 15 ff ff       	callq  76f3 <transparent_crc>
   160ff:	0f b7 05 e6 a3 00 00 	movzwl 0xa3e6(%rip),%eax        # 204ec <g_357>
   16106:	0f b7 c0             	movzwl %ax,%eax
   16109:	8b 55 fc             	mov    -0x4(%rbp),%edx
   1610c:	48 8d 35 6e 68 00 00 	lea    0x686e(%rip),%rsi        # 1c981 <g_1798+0x28a1>
   16113:	48 89 c7             	mov    %rax,%rdi
   16116:	e8 d8 15 ff ff       	callq  76f3 <transparent_crc>
   1611b:	0f b7 05 cc a3 00 00 	movzwl 0xa3cc(%rip),%eax        # 204ee <g_358>
   16122:	0f b7 c0             	movzwl %ax,%eax
   16125:	8b 55 fc             	mov    -0x4(%rbp),%edx
   16128:	48 8d 35 58 68 00 00 	lea    0x6858(%rip),%rsi        # 1c987 <g_1798+0x28a7>
   1612f:	48 89 c7             	mov    %rax,%rdi
   16132:	e8 bc 15 ff ff       	callq  76f3 <transparent_crc>
   16137:	0f b7 05 8a 18 01 00 	movzwl 0x1188a(%rip),%eax        # 279c8 <g_359>
   1613e:	0f b7 c0             	movzwl %ax,%eax
   16141:	8b 55 fc             	mov    -0x4(%rbp),%edx
   16144:	48 8d 35 42 68 00 00 	lea    0x6842(%rip),%rsi        # 1c98d <g_1798+0x28ad>
   1614b:	48 89 c7             	mov    %rax,%rdi
   1614e:	e8 a0 15 ff ff       	callq  76f3 <transparent_crc>
   16153:	0f b7 05 96 a3 00 00 	movzwl 0xa396(%rip),%eax        # 204f0 <g_360>
   1615a:	0f b7 c0             	movzwl %ax,%eax
   1615d:	8b 55 fc             	mov    -0x4(%rbp),%edx
   16160:	48 8d 35 2c 68 00 00 	lea    0x682c(%rip),%rsi        # 1c993 <g_1798+0x28b3>
   16167:	48 89 c7             	mov    %rax,%rdi
   1616a:	e8 84 15 ff ff       	callq  76f3 <transparent_crc>
   1616f:	0f b7 05 7c a3 00 00 	movzwl 0xa37c(%rip),%eax        # 204f2 <g_361>
   16176:	0f b7 c0             	movzwl %ax,%eax
   16179:	8b 55 fc             	mov    -0x4(%rbp),%edx
   1617c:	48 8d 35 16 68 00 00 	lea    0x6816(%rip),%rsi        # 1c999 <g_1798+0x28b9>
   16183:	48 89 c7             	mov    %rax,%rdi
   16186:	e8 68 15 ff ff       	callq  76f3 <transparent_crc>
   1618b:	0f b7 05 62 a3 00 00 	movzwl 0xa362(%rip),%eax        # 204f4 <g_362>
   16192:	0f b7 c0             	movzwl %ax,%eax
   16195:	8b 55 fc             	mov    -0x4(%rbp),%edx
   16198:	48 8d 35 00 68 00 00 	lea    0x6800(%rip),%rsi        # 1c99f <g_1798+0x28bf>
   1619f:	48 89 c7             	mov    %rax,%rdi
   161a2:	e8 4c 15 ff ff       	callq  76f3 <transparent_crc>
   161a7:	c7 45 f0 00 00 00 00 	movl   $0x0,-0x10(%rbp)
   161ae:	e9 8a 00 00 00       	jmpq   1623d <main+0xace>
   161b3:	c7 45 f4 00 00 00 00 	movl   $0x0,-0xc(%rbp)
   161ba:	eb 77                	jmp    16233 <main+0xac4>
   161bc:	c7 45 f8 00 00 00 00 	movl   $0x0,-0x8(%rbp)
   161c3:	eb 64                	jmp    16229 <main+0xaba>
   161c5:	8b 45 f8             	mov    -0x8(%rbp),%eax
   161c8:	48 63 d0             	movslq %eax,%rdx
   161cb:	8b 45 f4             	mov    -0xc(%rbp),%eax
   161ce:	48 98                	cltq   
   161d0:	8b 4d f0             	mov    -0x10(%rbp),%ecx
   161d3:	48 63 c9             	movslq %ecx,%rcx
   161d6:	48 01 c9             	add    %rcx,%rcx
   161d9:	48 01 ca             	add    %rcx,%rdx
   161dc:	48 01 d0             	add    %rdx,%rax
   161df:	48 8d 14 00          	lea    (%rax,%rax,1),%rdx
   161e3:	48 8d 05 16 a3 00 00 	lea    0xa316(%rip),%rax        # 20500 <g_363>
   161ea:	0f b7 04 02          	movzwl (%rdx,%rax,1),%eax
   161ee:	0f b7 c0             	movzwl %ax,%eax
   161f1:	8b 55 fc             	mov    -0x4(%rbp),%edx
   161f4:	48 8d 35 aa 67 00 00 	lea    0x67aa(%rip),%rsi        # 1c9a5 <g_1798+0x28c5>
   161fb:	48 89 c7             	mov    %rax,%rdi
   161fe:	e8 f0 14 ff ff       	callq  76f3 <transparent_crc>
   16203:	83 7d fc 00          	cmpl   $0x0,-0x4(%rbp)
   16207:	74 1c                	je     16225 <main+0xab6>
   16209:	8b 4d f8             	mov    -0x8(%rbp),%ecx
   1620c:	8b 55 f4             	mov    -0xc(%rbp),%edx
   1620f:	8b 45 f0             	mov    -0x10(%rbp),%eax
   16212:	89 c6                	mov    %eax,%esi
   16214:	48 8d 3d 99 67 00 00 	lea    0x6799(%rip),%rdi        # 1c9b4 <g_1798+0x28d4>
   1621b:	b8 00 00 00 00       	mov    $0x0,%eax
   16220:	e8 5b fe fe ff       	callq  6080 <printf@plt>
   16225:	83 45 f8 01          	addl   $0x1,-0x8(%rbp)
   16229:	83 7d f8 00          	cmpl   $0x0,-0x8(%rbp)
   1622d:	7e 96                	jle    161c5 <main+0xa56>
   1622f:	83 45 f4 01          	addl   $0x1,-0xc(%rbp)
   16233:	83 7d f4 01          	cmpl   $0x1,-0xc(%rbp)
   16237:	7e 83                	jle    161bc <main+0xa4d>
   16239:	83 45 f0 01          	addl   $0x1,-0x10(%rbp)
   1623d:	83 7d f0 06          	cmpl   $0x6,-0x10(%rbp)
   16241:	0f 8e 6c ff ff ff    	jle    161b3 <main+0xa44>
   16247:	0f b7 05 ce a2 00 00 	movzwl 0xa2ce(%rip),%eax        # 2051c <g_364>
   1624e:	0f b7 c0             	movzwl %ax,%eax
   16251:	8b 55 fc             	mov    -0x4(%rbp),%edx
   16254:	48 8d 35 6f 67 00 00 	lea    0x676f(%rip),%rsi        # 1c9ca <g_1798+0x28ea>
   1625b:	48 89 c7             	mov    %rax,%rdi
   1625e:	e8 90 14 ff ff       	callq  76f3 <transparent_crc>
   16263:	0f b7 05 b4 a2 00 00 	movzwl 0xa2b4(%rip),%eax        # 2051e <g_365>
   1626a:	0f b7 c0             	movzwl %ax,%eax
   1626d:	8b 55 fc             	mov    -0x4(%rbp),%edx
   16270:	48 8d 35 59 67 00 00 	lea    0x6759(%rip),%rsi        # 1c9d0 <g_1798+0x28f0>
   16277:	48 89 c7             	mov    %rax,%rdi
   1627a:	e8 74 14 ff ff       	callq  76f3 <transparent_crc>
   1627f:	0f b7 05 9a a2 00 00 	movzwl 0xa29a(%rip),%eax        # 20520 <g_366>
   16286:	0f b7 c0             	movzwl %ax,%eax
   16289:	8b 55 fc             	mov    -0x4(%rbp),%edx
   1628c:	48 8d 35 43 67 00 00 	lea    0x6743(%rip),%rsi        # 1c9d6 <g_1798+0x28f6>
   16293:	48 89 c7             	mov    %rax,%rdi
   16296:	e8 58 14 ff ff       	callq  76f3 <transparent_crc>
   1629b:	c7 45 f0 00 00 00 00 	movl   $0x0,-0x10(%rbp)
   162a2:	e9 b0 00 00 00       	jmpq   16357 <main+0xbe8>
   162a7:	c7 45 f4 00 00 00 00 	movl   $0x0,-0xc(%rbp)
   162ae:	e9 96 00 00 00       	jmpq   16349 <main+0xbda>
   162b3:	c7 45 f8 00 00 00 00 	movl   $0x0,-0x8(%rbp)
   162ba:	eb 7f                	jmp    1633b <main+0xbcc>
   162bc:	8b 45 f8             	mov    -0x8(%rbp),%eax
   162bf:	48 63 f0             	movslq %eax,%rsi
   162c2:	8b 45 f0             	mov    -0x10(%rbp),%eax
   162c5:	48 98                	cltq   
   162c7:	8b 55 f4             	mov    -0xc(%rbp),%edx
   162ca:	48 63 ca             	movslq %edx,%rcx
   162cd:	48 89 c2             	mov    %rax,%rdx
   162d0:	48 c1 e2 04          	shl    $0x4,%rdx
   162d4:	48 29 c2             	sub    %rax,%rdx
   162d7:	48 8d 04 12          	lea    (%rdx,%rdx,1),%rax
   162db:	48 89 c2             	mov    %rax,%rdx
   162de:	48 89 c8             	mov    %rcx,%rax
   162e1:	48 c1 e0 02          	shl    $0x2,%rax
   162e5:	48 01 c8             	add    %rcx,%rax
   162e8:	48 01 c0             	add    %rax,%rax
   162eb:	48 01 d0             	add    %rdx,%rax
   162ee:	48 01 f0             	add    %rsi,%rax
   162f1:	48 8d 14 00          	lea    (%rax,%rax,1),%rdx
   162f5:	48 8d 05 44 a2 00 00 	lea    0xa244(%rip),%rax        # 20540 <g_367>
   162fc:	0f b7 04 02          	movzwl (%rdx,%rax,1),%eax
   16300:	0f b7 c0             	movzwl %ax,%eax
   16303:	8b 55 fc             	mov    -0x4(%rbp),%edx
   16306:	48 8d 35 cf 66 00 00 	lea    0x66cf(%rip),%rsi        # 1c9dc <g_1798+0x28fc>
   1630d:	48 89 c7             	mov    %rax,%rdi
   16310:	e8 de 13 ff ff       	callq  76f3 <transparent_crc>
   16315:	83 7d fc 00          	cmpl   $0x0,-0x4(%rbp)
   16319:	74 1c                	je     16337 <main+0xbc8>
   1631b:	8b 4d f8             	mov    -0x8(%rbp),%ecx
   1631e:	8b 55 f4             	mov    -0xc(%rbp),%edx
   16321:	8b 45 f0             	mov    -0x10(%rbp),%eax
   16324:	89 c6                	mov    %eax,%esi
   16326:	48 8d 3d 87 66 00 00 	lea    0x6687(%rip),%rdi        # 1c9b4 <g_1798+0x28d4>
   1632d:	b8 00 00 00 00       	mov    $0x0,%eax
   16332:	e8 49 fd fe ff       	callq  6080 <printf@plt>
   16337:	83 45 f8 01          	addl   $0x1,-0x8(%rbp)
   1633b:	83 7d f8 09          	cmpl   $0x9,-0x8(%rbp)
   1633f:	0f 8e 77 ff ff ff    	jle    162bc <main+0xb4d>
   16345:	83 45 f4 01          	addl   $0x1,-0xc(%rbp)
   16349:	83 7d f4 02          	cmpl   $0x2,-0xc(%rbp)
   1634d:	0f 8e 60 ff ff ff    	jle    162b3 <main+0xb44>
   16353:	83 45 f0 01          	addl   $0x1,-0x10(%rbp)
   16357:	83 7d f0 02          	cmpl   $0x2,-0x10(%rbp)
   1635b:	0f 8e 46 ff ff ff    	jle    162a7 <main+0xb38>
   16361:	0f b7 05 8c a2 00 00 	movzwl 0xa28c(%rip),%eax        # 205f4 <g_368>
   16368:	0f b7 c0             	movzwl %ax,%eax
   1636b:	8b 55 fc             	mov    -0x4(%rbp),%edx
   1636e:	48 8d 35 76 66 00 00 	lea    0x6676(%rip),%rsi        # 1c9eb <g_1798+0x290b>
   16375:	48 89 c7             	mov    %rax,%rdi
   16378:	e8 76 13 ff ff       	callq  76f3 <transparent_crc>
   1637d:	0f b7 05 72 a2 00 00 	movzwl 0xa272(%rip),%eax        # 205f6 <g_369>
   16384:	0f b7 c0             	movzwl %ax,%eax
   16387:	8b 55 fc             	mov    -0x4(%rbp),%edx
   1638a:	48 8d 35 60 66 00 00 	lea    0x6660(%rip),%rsi        # 1c9f1 <g_1798+0x2911>
   16391:	48 89 c7             	mov    %rax,%rdi
   16394:	e8 5a 13 ff ff       	callq  76f3 <transparent_crc>
   16399:	0f b7 05 58 a2 00 00 	movzwl 0xa258(%rip),%eax        # 205f8 <g_370>
   163a0:	0f b7 c0             	movzwl %ax,%eax
   163a3:	8b 55 fc             	mov    -0x4(%rbp),%edx
   163a6:	48 8d 35 4a 66 00 00 	lea    0x664a(%rip),%rsi        # 1c9f7 <g_1798+0x2917>
   163ad:	48 89 c7             	mov    %rax,%rdi
   163b0:	e8 3e 13 ff ff       	callq  76f3 <transparent_crc>
   163b5:	0f b7 05 0e 16 01 00 	movzwl 0x1160e(%rip),%eax        # 279ca <g_371>
   163bc:	0f b7 c0             	movzwl %ax,%eax
   163bf:	8b 55 fc             	mov    -0x4(%rbp),%edx
   163c2:	48 8d 35 34 66 00 00 	lea    0x6634(%rip),%rsi        # 1c9fd <g_1798+0x291d>
   163c9:	48 89 c7             	mov    %rax,%rdi
   163cc:	e8 22 13 ff ff       	callq  76f3 <transparent_crc>
   163d1:	0f b7 05 22 a2 00 00 	movzwl 0xa222(%rip),%eax        # 205fa <g_372>
   163d8:	0f b7 c0             	movzwl %ax,%eax
   163db:	8b 55 fc             	mov    -0x4(%rbp),%edx
   163de:	48 8d 35 1e 66 00 00 	lea    0x661e(%rip),%rsi        # 1ca03 <g_1798+0x2923>
   163e5:	48 89 c7             	mov    %rax,%rdi
   163e8:	e8 06 13 ff ff       	callq  76f3 <transparent_crc>
   163ed:	c7 45 f0 00 00 00 00 	movl   $0x0,-0x10(%rbp)
   163f4:	eb 49                	jmp    1643f <main+0xcd0>
   163f6:	8b 45 f0             	mov    -0x10(%rbp),%eax
   163f9:	48 98                	cltq   
   163fb:	48 8d 14 00          	lea    (%rax,%rax,1),%rdx
   163ff:	48 8d 05 fa a1 00 00 	lea    0xa1fa(%rip),%rax        # 20600 <g_373>
   16406:	0f b7 04 02          	movzwl (%rdx,%rax,1),%eax
   1640a:	0f b7 c0             	movzwl %ax,%eax
   1640d:	8b 55 fc             	mov    -0x4(%rbp),%edx
   16410:	48 8d 35 f2 65 00 00 	lea    0x65f2(%rip),%rsi        # 1ca09 <g_1798+0x2929>
   16417:	48 89 c7             	mov    %rax,%rdi
   1641a:	e8 d4 12 ff ff       	callq  76f3 <transparent_crc>
   1641f:	83 7d fc 00          	cmpl   $0x0,-0x4(%rbp)
   16423:	74 16                	je     1643b <main+0xccc>
   16425:	8b 45 f0             	mov    -0x10(%rbp),%eax
   16428:	89 c6                	mov    %eax,%esi
   1642a:	48 8d 3d 58 63 00 00 	lea    0x6358(%rip),%rdi        # 1c789 <g_1798+0x26a9>
   16431:	b8 00 00 00 00       	mov    $0x0,%eax
   16436:	e8 45 fc fe ff       	callq  6080 <printf@plt>
   1643b:	83 45 f0 01          	addl   $0x1,-0x10(%rbp)
   1643f:	83 7d f0 03          	cmpl   $0x3,-0x10(%rbp)
   16443:	7e b1                	jle    163f6 <main+0xc87>
   16445:	0f b7 05 bc a1 00 00 	movzwl 0xa1bc(%rip),%eax        # 20608 <g_374>
   1644c:	0f b7 c0             	movzwl %ax,%eax
   1644f:	8b 55 fc             	mov    -0x4(%rbp),%edx
   16452:	48 8d 35 b9 65 00 00 	lea    0x65b9(%rip),%rsi        # 1ca12 <g_1798+0x2932>
   16459:	48 89 c7             	mov    %rax,%rdi
   1645c:	e8 92 12 ff ff       	callq  76f3 <transparent_crc>
   16461:	0f b7 05 a2 a1 00 00 	movzwl 0xa1a2(%rip),%eax        # 2060a <g_375>
   16468:	0f b7 c0             	movzwl %ax,%eax
   1646b:	8b 55 fc             	mov    -0x4(%rbp),%edx
   1646e:	48 8d 35 a3 65 00 00 	lea    0x65a3(%rip),%rsi        # 1ca18 <g_1798+0x2938>
   16475:	48 89 c7             	mov    %rax,%rdi
   16478:	e8 76 12 ff ff       	callq  76f3 <transparent_crc>
   1647d:	0f b7 05 88 a1 00 00 	movzwl 0xa188(%rip),%eax        # 2060c <g_376>
   16484:	0f b7 c0             	movzwl %ax,%eax
   16487:	8b 55 fc             	mov    -0x4(%rbp),%edx
   1648a:	48 8d 35 8d 65 00 00 	lea    0x658d(%rip),%rsi        # 1ca1e <g_1798+0x293e>
   16491:	48 89 c7             	mov    %rax,%rdi
   16494:	e8 5a 12 ff ff       	callq  76f3 <transparent_crc>
   16499:	0f b7 05 6e a1 00 00 	movzwl 0xa16e(%rip),%eax        # 2060e <g_377>
   164a0:	0f b7 c0             	movzwl %ax,%eax
   164a3:	8b 55 fc             	mov    -0x4(%rbp),%edx
   164a6:	48 8d 35 77 65 00 00 	lea    0x6577(%rip),%rsi        # 1ca24 <g_1798+0x2944>
   164ad:	48 89 c7             	mov    %rax,%rdi
   164b0:	e8 3e 12 ff ff       	callq  76f3 <transparent_crc>
   164b5:	0f b7 05 54 a1 00 00 	movzwl 0xa154(%rip),%eax        # 20610 <g_378>
   164bc:	0f b7 c0             	movzwl %ax,%eax
   164bf:	8b 55 fc             	mov    -0x4(%rbp),%edx
   164c2:	48 8d 35 61 65 00 00 	lea    0x6561(%rip),%rsi        # 1ca2a <g_1798+0x294a>
   164c9:	48 89 c7             	mov    %rax,%rdi
   164cc:	e8 22 12 ff ff       	callq  76f3 <transparent_crc>
   164d1:	0f b7 05 3a a1 00 00 	movzwl 0xa13a(%rip),%eax        # 20612 <g_379>
   164d8:	0f b7 c0             	movzwl %ax,%eax
   164db:	8b 55 fc             	mov    -0x4(%rbp),%edx
   164de:	48 8d 35 4b 65 00 00 	lea    0x654b(%rip),%rsi        # 1ca30 <g_1798+0x2950>
   164e5:	48 89 c7             	mov    %rax,%rdi
   164e8:	e8 06 12 ff ff       	callq  76f3 <transparent_crc>
   164ed:	0f b7 05 20 a1 00 00 	movzwl 0xa120(%rip),%eax        # 20614 <g_380>
   164f4:	0f b7 c0             	movzwl %ax,%eax
   164f7:	8b 55 fc             	mov    -0x4(%rbp),%edx
   164fa:	48 8d 35 35 65 00 00 	lea    0x6535(%rip),%rsi        # 1ca36 <g_1798+0x2956>
   16501:	48 89 c7             	mov    %rax,%rdi
   16504:	e8 ea 11 ff ff       	callq  76f3 <transparent_crc>
   16509:	c7 45 f0 00 00 00 00 	movl   $0x0,-0x10(%rbp)
   16510:	eb 68                	jmp    1657a <main+0xe0b>
   16512:	c7 45 f4 00 00 00 00 	movl   $0x0,-0xc(%rbp)
   16519:	eb 55                	jmp    16570 <main+0xe01>
   1651b:	8b 45 f4             	mov    -0xc(%rbp),%eax
   1651e:	48 63 d0             	movslq %eax,%rdx
   16521:	8b 45 f0             	mov    -0x10(%rbp),%eax
   16524:	48 98                	cltq   
   16526:	48 01 d0             	add    %rdx,%rax
   16529:	48 8d 14 00          	lea    (%rax,%rax,1),%rdx
   1652d:	48 8d 05 ec a0 00 00 	lea    0xa0ec(%rip),%rax        # 20620 <g_381>
   16534:	0f b7 04 02          	movzwl (%rdx,%rax,1),%eax
   16538:	0f b7 c0             	movzwl %ax,%eax
   1653b:	8b 55 fc             	mov    -0x4(%rbp),%edx
   1653e:	48 8d 35 f7 64 00 00 	lea    0x64f7(%rip),%rsi        # 1ca3c <g_1798+0x295c>
   16545:	48 89 c7             	mov    %rax,%rdi
   16548:	e8 a6 11 ff ff       	callq  76f3 <transparent_crc>
   1654d:	83 7d fc 00          	cmpl   $0x0,-0x4(%rbp)
   16551:	74 19                	je     1656c <main+0xdfd>
   16553:	8b 55 f4             	mov    -0xc(%rbp),%edx
   16556:	8b 45 f0             	mov    -0x10(%rbp),%eax
   16559:	89 c6                	mov    %eax,%esi
   1655b:	48 8d 3d 5d 62 00 00 	lea    0x625d(%rip),%rdi        # 1c7bf <g_1798+0x26df>
   16562:	b8 00 00 00 00       	mov    $0x0,%eax
   16567:	e8 14 fb fe ff       	callq  6080 <printf@plt>
   1656c:	83 45 f4 01          	addl   $0x1,-0xc(%rbp)
   16570:	83 7d f4 00          	cmpl   $0x0,-0xc(%rbp)
   16574:	7e a5                	jle    1651b <main+0xdac>
   16576:	83 45 f0 01          	addl   $0x1,-0x10(%rbp)
   1657a:	83 7d f0 07          	cmpl   $0x7,-0x10(%rbp)
   1657e:	7e 92                	jle    16512 <main+0xda3>
   16580:	c7 45 f0 00 00 00 00 	movl   $0x0,-0x10(%rbp)
   16587:	eb 6b                	jmp    165f4 <main+0xe85>
   16589:	c7 45 f4 00 00 00 00 	movl   $0x0,-0xc(%rbp)
   16590:	eb 58                	jmp    165ea <main+0xe7b>
   16592:	8b 45 f4             	mov    -0xc(%rbp),%eax
   16595:	48 98                	cltq   
   16597:	8b 55 f0             	mov    -0x10(%rbp),%edx
   1659a:	48 63 d2             	movslq %edx,%rdx
   1659d:	48 01 d2             	add    %rdx,%rdx
   165a0:	48 01 d0             	add    %rdx,%rax
   165a3:	48 8d 14 00          	lea    (%rax,%rax,1),%rdx
   165a7:	48 8d 05 92 a0 00 00 	lea    0xa092(%rip),%rax        # 20640 <g_382>
   165ae:	0f b7 04 02          	movzwl (%rdx,%rax,1),%eax
   165b2:	0f b7 c0             	movzwl %ax,%eax
   165b5:	8b 55 fc             	mov    -0x4(%rbp),%edx
   165b8:	48 8d 35 89 64 00 00 	lea    0x6489(%rip),%rsi        # 1ca48 <g_1798+0x2968>
   165bf:	48 89 c7             	mov    %rax,%rdi
   165c2:	e8 2c 11 ff ff       	callq  76f3 <transparent_crc>
   165c7:	83 7d fc 00          	cmpl   $0x0,-0x4(%rbp)
   165cb:	74 19                	je     165e6 <main+0xe77>
   165cd:	8b 55 f4             	mov    -0xc(%rbp),%edx
   165d0:	8b 45 f0             	mov    -0x10(%rbp),%eax
   165d3:	89 c6                	mov    %eax,%esi
   165d5:	48 8d 3d e3 61 00 00 	lea    0x61e3(%rip),%rdi        # 1c7bf <g_1798+0x26df>
   165dc:	b8 00 00 00 00       	mov    $0x0,%eax
   165e1:	e8 9a fa fe ff       	callq  6080 <printf@plt>
   165e6:	83 45 f4 01          	addl   $0x1,-0xc(%rbp)
   165ea:	83 7d f4 01          	cmpl   $0x1,-0xc(%rbp)
   165ee:	7e a2                	jle    16592 <main+0xe23>
   165f0:	83 45 f0 01          	addl   $0x1,-0x10(%rbp)
   165f4:	83 7d f0 09          	cmpl   $0x9,-0x10(%rbp)
   165f8:	7e 8f                	jle    16589 <main+0xe1a>
   165fa:	0f b7 05 67 a0 00 00 	movzwl 0xa067(%rip),%eax        # 20668 <g_383>
   16601:	0f b7 c0             	movzwl %ax,%eax
   16604:	8b 55 fc             	mov    -0x4(%rbp),%edx
   16607:	48 8d 35 46 64 00 00 	lea    0x6446(%rip),%rsi        # 1ca54 <g_1798+0x2974>
   1660e:	48 89 c7             	mov    %rax,%rdi
   16611:	e8 dd 10 ff ff       	callq  76f3 <transparent_crc>
   16616:	48 8b 05 63 a0 00 00 	mov    0xa063(%rip),%rax        # 20680 <g_385>
   1661d:	8b 55 fc             	mov    -0x4(%rbp),%edx
   16620:	48 8d 35 33 64 00 00 	lea    0x6433(%rip),%rsi        # 1ca5a <g_1798+0x297a>
   16627:	48 89 c7             	mov    %rax,%rdi
   1662a:	e8 c4 10 ff ff       	callq  76f3 <transparent_crc>
   1662f:	8b 05 53 a0 00 00    	mov    0xa053(%rip),%eax        # 20688 <g_385+0x8>
   16635:	48 98                	cltq   
   16637:	8b 55 fc             	mov    -0x4(%rbp),%edx
   1663a:	48 8d 35 25 64 00 00 	lea    0x6425(%rip),%rsi        # 1ca66 <g_1798+0x2986>
   16641:	48 89 c7             	mov    %rax,%rdi
   16644:	e8 aa 10 ff ff       	callq  76f3 <transparent_crc>
   16649:	0f b6 05 3c a0 00 00 	movzbl 0xa03c(%rip),%eax        # 2068c <g_385+0xc>
   16650:	0f b6 c0             	movzbl %al,%eax
   16653:	8b 55 fc             	mov    -0x4(%rbp),%edx
   16656:	48 8d 35 12 64 00 00 	lea    0x6412(%rip),%rsi        # 1ca6f <g_1798+0x298f>
   1665d:	48 89 c7             	mov    %rax,%rdi
   16660:	e8 8e 10 ff ff       	callq  76f3 <transparent_crc>
   16665:	0f b7 05 21 a0 00 00 	movzwl 0xa021(%rip),%eax        # 2068d <g_385+0xd>
   1666c:	48 0f bf c0          	movswq %ax,%rax
   16670:	8b 55 fc             	mov    -0x4(%rbp),%edx
   16673:	48 8d 35 fe 63 00 00 	lea    0x63fe(%rip),%rsi        # 1ca78 <g_1798+0x2998>
   1667a:	48 89 c7             	mov    %rax,%rdi
   1667d:	e8 71 10 ff ff       	callq  76f3 <transparent_crc>
   16682:	48 8b 05 06 a0 00 00 	mov    0xa006(%rip),%rax        # 2068f <g_385+0xf>
   16689:	8b 55 fc             	mov    -0x4(%rbp),%edx
   1668c:	48 8d 35 ee 63 00 00 	lea    0x63ee(%rip),%rsi        # 1ca81 <g_1798+0x29a1>
   16693:	48 89 c7             	mov    %rax,%rdi
   16696:	e8 58 10 ff ff       	callq  76f3 <transparent_crc>
   1669b:	8b 05 f6 9f 00 00    	mov    0x9ff6(%rip),%eax        # 20697 <g_385+0x17>
   166a1:	48 98                	cltq   
   166a3:	8b 55 fc             	mov    -0x4(%rbp),%edx
   166a6:	48 8d 35 dd 63 00 00 	lea    0x63dd(%rip),%rsi        # 1ca8a <g_1798+0x29aa>
   166ad:	48 89 c7             	mov    %rax,%rdi
   166b0:	e8 3e 10 ff ff       	callq  76f3 <transparent_crc>
   166b5:	0f b7 05 df 9f 00 00 	movzwl 0x9fdf(%rip),%eax        # 2069b <g_385+0x1b>
   166bc:	0f b7 c0             	movzwl %ax,%eax
   166bf:	8b 55 fc             	mov    -0x4(%rbp),%edx
   166c2:	48 8d 35 ca 63 00 00 	lea    0x63ca(%rip),%rsi        # 1ca93 <g_1798+0x29b3>
   166c9:	48 89 c7             	mov    %rax,%rdi
   166cc:	e8 22 10 ff ff       	callq  76f3 <transparent_crc>
   166d1:	48 8b 05 c5 9f 00 00 	mov    0x9fc5(%rip),%rax        # 2069d <g_385+0x1d>
   166d8:	8b 55 fc             	mov    -0x4(%rbp),%edx
   166db:	48 8d 35 ba 63 00 00 	lea    0x63ba(%rip),%rsi        # 1ca9c <g_1798+0x29bc>
   166e2:	48 89 c7             	mov    %rax,%rdi
   166e5:	e8 09 10 ff ff       	callq  76f3 <transparent_crc>
   166ea:	48 8b 05 b7 9f 00 00 	mov    0x9fb7(%rip),%rax        # 206a8 <g_386>
   166f1:	8b 55 fc             	mov    -0x4(%rbp),%edx
   166f4:	48 8d 35 ad 63 00 00 	lea    0x63ad(%rip),%rsi        # 1caa8 <g_1798+0x29c8>
   166fb:	48 89 c7             	mov    %rax,%rdi
   166fe:	e8 f0 0f ff ff       	callq  76f3 <transparent_crc>
   16703:	48 8b 05 a6 9f 00 00 	mov    0x9fa6(%rip),%rax        # 206b0 <g_390>
   1670a:	8b 55 fc             	mov    -0x4(%rbp),%edx
   1670d:	48 8d 35 9d 63 00 00 	lea    0x639d(%rip),%rsi        # 1cab1 <g_1798+0x29d1>
   16714:	48 89 c7             	mov    %rax,%rdi
   16717:	e8 d7 0f ff ff       	callq  76f3 <transparent_crc>
   1671c:	8b 05 96 9f 00 00    	mov    0x9f96(%rip),%eax        # 206b8 <g_402>
   16722:	48 98                	cltq   
   16724:	8b 55 fc             	mov    -0x4(%rbp),%edx
   16727:	48 8d 35 89 63 00 00 	lea    0x6389(%rip),%rsi        # 1cab7 <g_1798+0x29d7>
   1672e:	48 89 c7             	mov    %rax,%rdi
   16731:	e8 bd 0f ff ff       	callq  76f3 <transparent_crc>
   16736:	0f b7 05 7f 9f 00 00 	movzwl 0x9f7f(%rip),%eax        # 206bc <g_459>
   1673d:	48 0f bf c0          	movswq %ax,%rax
   16741:	8b 55 fc             	mov    -0x4(%rbp),%edx
   16744:	48 8d 35 72 63 00 00 	lea    0x6372(%rip),%rsi        # 1cabd <g_1798+0x29dd>
   1674b:	48 89 c7             	mov    %rax,%rdi
   1674e:	e8 a0 0f ff ff       	callq  76f3 <transparent_crc>
   16753:	8b 05 67 9f 00 00    	mov    0x9f67(%rip),%eax        # 206c0 <g_467>
   16759:	89 c1                	mov    %eax,%ecx
   1675b:	8b 45 fc             	mov    -0x4(%rbp),%eax
   1675e:	89 c2                	mov    %eax,%edx
   16760:	48 8d 35 5c 63 00 00 	lea    0x635c(%rip),%rsi        # 1cac3 <g_1798+0x29e3>
   16767:	48 89 cf             	mov    %rcx,%rdi
   1676a:	e8 84 0f ff ff       	callq  76f3 <transparent_crc>
   1676f:	8b 05 5b 9f 00 00    	mov    0x9f5b(%rip),%eax        # 206d0 <g_511>
   16775:	48 98                	cltq   
   16777:	8b 55 fc             	mov    -0x4(%rbp),%edx
   1677a:	48 8d 35 48 63 00 00 	lea    0x6348(%rip),%rsi        # 1cac9 <g_1798+0x29e9>
   16781:	48 89 c7             	mov    %rax,%rdi
   16784:	e8 6a 0f ff ff       	callq  76f3 <transparent_crc>
   16789:	8b 05 45 9f 00 00    	mov    0x9f45(%rip),%eax        # 206d4 <g_511+0x4>
   1678f:	89 c1                	mov    %eax,%ecx
   16791:	8b 45 fc             	mov    -0x4(%rbp),%eax
   16794:	89 c2                	mov    %eax,%edx
   16796:	48 8d 35 35 63 00 00 	lea    0x6335(%rip),%rsi        # 1cad2 <g_1798+0x29f2>
   1679d:	48 89 cf             	mov    %rcx,%rdi
   167a0:	e8 4e 0f ff ff       	callq  76f3 <transparent_crc>
   167a5:	8b 05 2d 9f 00 00    	mov    0x9f2d(%rip),%eax        # 206d8 <g_511+0x8>
   167ab:	48 98                	cltq   
   167ad:	8b 55 fc             	mov    -0x4(%rbp),%edx
   167b0:	48 8d 35 24 63 00 00 	lea    0x6324(%rip),%rsi        # 1cadb <g_1798+0x29fb>
   167b7:	48 89 c7             	mov    %rax,%rdi
   167ba:	e8 34 0f ff ff       	callq  76f3 <transparent_crc>
   167bf:	8b 05 17 9f 00 00    	mov    0x9f17(%rip),%eax        # 206dc <g_511+0xc>
   167c5:	48 98                	cltq   
   167c7:	8b 55 fc             	mov    -0x4(%rbp),%edx
   167ca:	48 8d 35 13 63 00 00 	lea    0x6313(%rip),%rsi        # 1cae4 <g_1798+0x2a04>
   167d1:	48 89 c7             	mov    %rax,%rdi
   167d4:	e8 1a 0f ff ff       	callq  76f3 <transparent_crc>
   167d9:	48 8b 05 00 9f 00 00 	mov    0x9f00(%rip),%rax        # 206e0 <g_511+0x10>
   167e0:	25 ff ff ff 03       	and    $0x3ffffff,%eax
   167e5:	89 c1                	mov    %eax,%ecx
   167e7:	8b 45 fc             	mov    -0x4(%rbp),%eax
   167ea:	89 c2                	mov    %eax,%edx
   167ec:	48 8d 35 fa 62 00 00 	lea    0x62fa(%rip),%rsi        # 1caed <g_1798+0x2a0d>
   167f3:	48 89 cf             	mov    %rcx,%rdi
   167f6:	e8 f8 0e ff ff       	callq  76f3 <transparent_crc>
   167fb:	8b 05 ef 9e 00 00    	mov    0x9eef(%rip),%eax        # 206f0 <g_512>
   16801:	48 98                	cltq   
   16803:	8b 55 fc             	mov    -0x4(%rbp),%edx
   16806:	48 8d 35 e9 62 00 00 	lea    0x62e9(%rip),%rsi        # 1caf6 <g_1798+0x2a16>
   1680d:	48 89 c7             	mov    %rax,%rdi
   16810:	e8 de 0e ff ff       	callq  76f3 <transparent_crc>
   16815:	8b 05 d9 9e 00 00    	mov    0x9ed9(%rip),%eax        # 206f4 <g_512+0x4>
   1681b:	89 c1                	mov    %eax,%ecx
   1681d:	8b 45 fc             	mov    -0x4(%rbp),%eax
   16820:	89 c2                	mov    %eax,%edx
   16822:	48 8d 35 d6 62 00 00 	lea    0x62d6(%rip),%rsi        # 1caff <g_1798+0x2a1f>
   16829:	48 89 cf             	mov    %rcx,%rdi
   1682c:	e8 c2 0e ff ff       	callq  76f3 <transparent_crc>
   16831:	8b 05 c1 9e 00 00    	mov    0x9ec1(%rip),%eax        # 206f8 <g_512+0x8>
   16837:	48 98                	cltq   
   16839:	8b 55 fc             	mov    -0x4(%rbp),%edx
   1683c:	48 8d 35 c5 62 00 00 	lea    0x62c5(%rip),%rsi        # 1cb08 <g_1798+0x2a28>
   16843:	48 89 c7             	mov    %rax,%rdi
   16846:	e8 a8 0e ff ff       	callq  76f3 <transparent_crc>
   1684b:	8b 05 ab 9e 00 00    	mov    0x9eab(%rip),%eax        # 206fc <g_512+0xc>
   16851:	48 98                	cltq   
   16853:	8b 55 fc             	mov    -0x4(%rbp),%edx
   16856:	48 8d 35 b4 62 00 00 	lea    0x62b4(%rip),%rsi        # 1cb11 <g_1798+0x2a31>
   1685d:	48 89 c7             	mov    %rax,%rdi
   16860:	e8 8e 0e ff ff       	callq  76f3 <transparent_crc>
   16865:	48 8b 05 94 9e 00 00 	mov    0x9e94(%rip),%rax        # 20700 <g_512+0x10>
   1686c:	25 ff ff ff 03       	and    $0x3ffffff,%eax
   16871:	89 c1                	mov    %eax,%ecx
   16873:	8b 45 fc             	mov    -0x4(%rbp),%eax
   16876:	89 c2                	mov    %eax,%edx
   16878:	48 8d 35 9b 62 00 00 	lea    0x629b(%rip),%rsi        # 1cb1a <g_1798+0x2a3a>
   1687f:	48 89 cf             	mov    %rcx,%rdi
   16882:	e8 6c 0e ff ff       	callq  76f3 <transparent_crc>
   16887:	48 8b 05 92 9e 00 00 	mov    0x9e92(%rip),%rax        # 20720 <g_544>
   1688e:	8b 55 fc             	mov    -0x4(%rbp),%edx
   16891:	48 8d 35 8b 62 00 00 	lea    0x628b(%rip),%rsi        # 1cb23 <g_1798+0x2a43>
   16898:	48 89 c7             	mov    %rax,%rdi
   1689b:	e8 53 0e ff ff       	callq  76f3 <transparent_crc>
   168a0:	8b 05 82 9e 00 00    	mov    0x9e82(%rip),%eax        # 20728 <g_544+0x8>
   168a6:	48 98                	cltq   
   168a8:	8b 55 fc             	mov    -0x4(%rbp),%edx
   168ab:	48 8d 35 7d 62 00 00 	lea    0x627d(%rip),%rsi        # 1cb2f <g_1798+0x2a4f>
   168b2:	48 89 c7             	mov    %rax,%rdi
   168b5:	e8 39 0e ff ff       	callq  76f3 <transparent_crc>
   168ba:	0f b6 05 6b 9e 00 00 	movzbl 0x9e6b(%rip),%eax        # 2072c <g_544+0xc>
   168c1:	0f b6 c0             	movzbl %al,%eax
   168c4:	8b 55 fc             	mov    -0x4(%rbp),%edx
   168c7:	48 8d 35 6a 62 00 00 	lea    0x626a(%rip),%rsi        # 1cb38 <g_1798+0x2a58>
   168ce:	48 89 c7             	mov    %rax,%rdi
   168d1:	e8 1d 0e ff ff       	callq  76f3 <transparent_crc>
   168d6:	0f b7 05 50 9e 00 00 	movzwl 0x9e50(%rip),%eax        # 2072d <g_544+0xd>
   168dd:	48 0f bf c0          	movswq %ax,%rax
   168e1:	8b 55 fc             	mov    -0x4(%rbp),%edx
   168e4:	48 8d 35 56 62 00 00 	lea    0x6256(%rip),%rsi        # 1cb41 <g_1798+0x2a61>
   168eb:	48 89 c7             	mov    %rax,%rdi
   168ee:	e8 00 0e ff ff       	callq  76f3 <transparent_crc>
   168f3:	48 8b 05 35 9e 00 00 	mov    0x9e35(%rip),%rax        # 2072f <g_544+0xf>
   168fa:	8b 55 fc             	mov    -0x4(%rbp),%edx
   168fd:	48 8d 35 46 62 00 00 	lea    0x6246(%rip),%rsi        # 1cb4a <g_1798+0x2a6a>
   16904:	48 89 c7             	mov    %rax,%rdi
   16907:	e8 e7 0d ff ff       	callq  76f3 <transparent_crc>
   1690c:	8b 05 25 9e 00 00    	mov    0x9e25(%rip),%eax        # 20737 <g_544+0x17>
   16912:	48 98                	cltq   
   16914:	8b 55 fc             	mov    -0x4(%rbp),%edx
   16917:	48 8d 35 35 62 00 00 	lea    0x6235(%rip),%rsi        # 1cb53 <g_1798+0x2a73>
   1691e:	48 89 c7             	mov    %rax,%rdi
   16921:	e8 cd 0d ff ff       	callq  76f3 <transparent_crc>
   16926:	0f b7 05 0e 9e 00 00 	movzwl 0x9e0e(%rip),%eax        # 2073b <g_544+0x1b>
   1692d:	0f b7 c0             	movzwl %ax,%eax
   16930:	8b 55 fc             	mov    -0x4(%rbp),%edx
   16933:	48 8d 35 22 62 00 00 	lea    0x6222(%rip),%rsi        # 1cb5c <g_1798+0x2a7c>
   1693a:	48 89 c7             	mov    %rax,%rdi
   1693d:	e8 b1 0d ff ff       	callq  76f3 <transparent_crc>
   16942:	48 8b 05 f4 9d 00 00 	mov    0x9df4(%rip),%rax        # 2073d <g_544+0x1d>
   16949:	8b 55 fc             	mov    -0x4(%rbp),%edx
   1694c:	48 8d 35 12 62 00 00 	lea    0x6212(%rip),%rsi        # 1cb65 <g_1798+0x2a85>
   16953:	48 89 c7             	mov    %rax,%rdi
   16956:	e8 98 0d ff ff       	callq  76f3 <transparent_crc>
   1695b:	0f b6 05 e3 9d 00 00 	movzbl 0x9de3(%rip),%eax        # 20745 <g_557>
   16962:	0f b6 c0             	movzbl %al,%eax
   16965:	8b 55 fc             	mov    -0x4(%rbp),%edx
   16968:	48 8d 35 02 62 00 00 	lea    0x6202(%rip),%rsi        # 1cb71 <g_1798+0x2a91>
   1696f:	48 89 c7             	mov    %rax,%rdi
   16972:	e8 7c 0d ff ff       	callq  76f3 <transparent_crc>
   16977:	c7 45 f0 00 00 00 00 	movl   $0x0,-0x10(%rbp)
   1697e:	e9 6b 02 00 00       	jmpq   16bee <main+0x147f>
   16983:	c7 45 f4 00 00 00 00 	movl   $0x0,-0xc(%rbp)
   1698a:	e9 51 02 00 00       	jmpq   16be0 <main+0x1471>
   1698f:	c7 45 f8 00 00 00 00 	movl   $0x0,-0x8(%rbp)
   16996:	e9 37 02 00 00       	jmpq   16bd2 <main+0x1463>
   1699b:	8b 45 f8             	mov    -0x8(%rbp),%eax
   1699e:	48 98                	cltq   
   169a0:	8b 55 f4             	mov    -0xc(%rbp),%edx
   169a3:	48 63 f2             	movslq %edx,%rsi
   169a6:	8b 55 f0             	mov    -0x10(%rbp),%edx
   169a9:	48 63 ca             	movslq %edx,%rcx
   169ac:	48 89 c2             	mov    %rax,%rdx
   169af:	48 c1 e2 02          	shl    $0x2,%rdx
   169b3:	48 01 c2             	add    %rax,%rdx
   169b6:	48 8d 04 95 00 00 00 	lea    0x0(,%rdx,4),%rax
   169bd:	00 
   169be:	48 89 c2             	mov    %rax,%rdx
   169c1:	48 89 f0             	mov    %rsi,%rax
   169c4:	48 c1 e0 02          	shl    $0x2,%rax
   169c8:	48 01 f0             	add    %rsi,%rax
   169cb:	48 c1 e0 04          	shl    $0x4,%rax
   169cf:	48 01 c2             	add    %rax,%rdx
   169d2:	48 89 c8             	mov    %rcx,%rax
   169d5:	48 c1 e0 02          	shl    $0x2,%rax
   169d9:	48 01 c8             	add    %rcx,%rax
   169dc:	48 c1 e0 04          	shl    $0x4,%rax
   169e0:	48 01 c2             	add    %rax,%rdx
   169e3:	48 8d 05 76 9d 00 00 	lea    0x9d76(%rip),%rax        # 20760 <g_602>
   169ea:	48 01 d0             	add    %rdx,%rax
   169ed:	8b 00                	mov    (%rax),%eax
   169ef:	48 98                	cltq   
   169f1:	8b 55 fc             	mov    -0x4(%rbp),%edx
   169f4:	48 8d 35 7c 61 00 00 	lea    0x617c(%rip),%rsi        # 1cb77 <g_1798+0x2a97>
   169fb:	48 89 c7             	mov    %rax,%rdi
   169fe:	e8 f0 0c ff ff       	callq  76f3 <transparent_crc>
   16a03:	8b 45 f8             	mov    -0x8(%rbp),%eax
   16a06:	48 98                	cltq   
   16a08:	8b 55 f4             	mov    -0xc(%rbp),%edx
   16a0b:	48 63 f2             	movslq %edx,%rsi
   16a0e:	8b 55 f0             	mov    -0x10(%rbp),%edx
   16a11:	48 63 ca             	movslq %edx,%rcx
   16a14:	48 89 c2             	mov    %rax,%rdx
   16a17:	48 c1 e2 02          	shl    $0x2,%rdx
   16a1b:	48 01 c2             	add    %rax,%rdx
   16a1e:	48 8d 04 95 00 00 00 	lea    0x0(,%rdx,4),%rax
   16a25:	00 
   16a26:	48 89 c2             	mov    %rax,%rdx
   16a29:	48 89 f0             	mov    %rsi,%rax
   16a2c:	48 c1 e0 02          	shl    $0x2,%rax
   16a30:	48 01 f0             	add    %rsi,%rax
   16a33:	48 c1 e0 04          	shl    $0x4,%rax
   16a37:	48 01 c2             	add    %rax,%rdx
   16a3a:	48 89 c8             	mov    %rcx,%rax
   16a3d:	48 c1 e0 02          	shl    $0x2,%rax
   16a41:	48 01 c8             	add    %rcx,%rax
   16a44:	48 c1 e0 04          	shl    $0x4,%rax
   16a48:	48 01 c2             	add    %rax,%rdx
   16a4b:	48 8d 05 12 9d 00 00 	lea    0x9d12(%rip),%rax        # 20764 <g_602+0x4>
   16a52:	48 01 d0             	add    %rdx,%rax
   16a55:	8b 00                	mov    (%rax),%eax
   16a57:	89 c1                	mov    %eax,%ecx
   16a59:	8b 45 fc             	mov    -0x4(%rbp),%eax
   16a5c:	89 c2                	mov    %eax,%edx
   16a5e:	48 8d 35 24 61 00 00 	lea    0x6124(%rip),%rsi        # 1cb89 <g_1798+0x2aa9>
   16a65:	48 89 cf             	mov    %rcx,%rdi
   16a68:	e8 86 0c ff ff       	callq  76f3 <transparent_crc>
   16a6d:	8b 45 f8             	mov    -0x8(%rbp),%eax
   16a70:	48 98                	cltq   
   16a72:	8b 55 f4             	mov    -0xc(%rbp),%edx
   16a75:	48 63 f2             	movslq %edx,%rsi
   16a78:	8b 55 f0             	mov    -0x10(%rbp),%edx
   16a7b:	48 63 ca             	movslq %edx,%rcx
   16a7e:	48 89 c2             	mov    %rax,%rdx
   16a81:	48 c1 e2 02          	shl    $0x2,%rdx
   16a85:	48 01 c2             	add    %rax,%rdx
   16a88:	48 8d 04 95 00 00 00 	lea    0x0(,%rdx,4),%rax
   16a8f:	00 
   16a90:	48 89 c2             	mov    %rax,%rdx
   16a93:	48 89 f0             	mov    %rsi,%rax
   16a96:	48 c1 e0 02          	shl    $0x2,%rax
   16a9a:	48 01 f0             	add    %rsi,%rax
   16a9d:	48 c1 e0 04          	shl    $0x4,%rax
   16aa1:	48 01 c2             	add    %rax,%rdx
   16aa4:	48 89 c8             	mov    %rcx,%rax
   16aa7:	48 c1 e0 02          	shl    $0x2,%rax
   16aab:	48 01 c8             	add    %rcx,%rax
   16aae:	48 c1 e0 04          	shl    $0x4,%rax
   16ab2:	48 01 c2             	add    %rax,%rdx
   16ab5:	48 8d 05 ac 9c 00 00 	lea    0x9cac(%rip),%rax        # 20768 <g_602+0x8>
   16abc:	48 01 d0             	add    %rdx,%rax
   16abf:	8b 00                	mov    (%rax),%eax
   16ac1:	48 98                	cltq   
   16ac3:	8b 55 fc             	mov    -0x4(%rbp),%edx
   16ac6:	48 8d 35 ce 60 00 00 	lea    0x60ce(%rip),%rsi        # 1cb9b <g_1798+0x2abb>
   16acd:	48 89 c7             	mov    %rax,%rdi
   16ad0:	e8 1e 0c ff ff       	callq  76f3 <transparent_crc>
   16ad5:	8b 45 f8             	mov    -0x8(%rbp),%eax
   16ad8:	48 98                	cltq   
   16ada:	8b 55 f4             	mov    -0xc(%rbp),%edx
   16add:	48 63 f2             	movslq %edx,%rsi
   16ae0:	8b 55 f0             	mov    -0x10(%rbp),%edx
   16ae3:	48 63 ca             	movslq %edx,%rcx
   16ae6:	48 89 c2             	mov    %rax,%rdx
   16ae9:	48 c1 e2 02          	shl    $0x2,%rdx
   16aed:	48 01 c2             	add    %rax,%rdx
   16af0:	48 8d 04 95 00 00 00 	lea    0x0(,%rdx,4),%rax
   16af7:	00 
   16af8:	48 89 c2             	mov    %rax,%rdx
   16afb:	48 89 f0             	mov    %rsi,%rax
   16afe:	48 c1 e0 02          	shl    $0x2,%rax
   16b02:	48 01 f0             	add    %rsi,%rax
   16b05:	48 c1 e0 04          	shl    $0x4,%rax
   16b09:	48 01 c2             	add    %rax,%rdx
   16b0c:	48 89 c8             	mov    %rcx,%rax
   16b0f:	48 c1 e0 02          	shl    $0x2,%rax
   16b13:	48 01 c8             	add    %rcx,%rax
   16b16:	48 c1 e0 04          	shl    $0x4,%rax
   16b1a:	48 01 c2             	add    %rax,%rdx
   16b1d:	48 8d 05 48 9c 00 00 	lea    0x9c48(%rip),%rax        # 2076c <g_602+0xc>
   16b24:	48 01 d0             	add    %rdx,%rax
   16b27:	8b 00                	mov    (%rax),%eax
   16b29:	48 98                	cltq   
   16b2b:	8b 55 fc             	mov    -0x4(%rbp),%edx
   16b2e:	48 8d 35 78 60 00 00 	lea    0x6078(%rip),%rsi        # 1cbad <g_1798+0x2acd>
   16b35:	48 89 c7             	mov    %rax,%rdi
   16b38:	e8 b6 0b ff ff       	callq  76f3 <transparent_crc>
   16b3d:	8b 45 f8             	mov    -0x8(%rbp),%eax
   16b40:	48 98                	cltq   
   16b42:	8b 55 f4             	mov    -0xc(%rbp),%edx
   16b45:	48 63 ca             	movslq %edx,%rcx
   16b48:	8b 55 f0             	mov    -0x10(%rbp),%edx
   16b4b:	48 63 f2             	movslq %edx,%rsi
   16b4e:	48 89 c2             	mov    %rax,%rdx
   16b51:	48 c1 e2 02          	shl    $0x2,%rdx
   16b55:	48 01 c2             	add    %rax,%rdx
   16b58:	48 8d 04 95 00 00 00 	lea    0x0(,%rdx,4),%rax
   16b5f:	00 
   16b60:	48 89 c2             	mov    %rax,%rdx
   16b63:	48 89 f0             	mov    %rsi,%rax
   16b66:	48 c1 e0 02          	shl    $0x2,%rax
   16b6a:	48 01 f0             	add    %rsi,%rax
   16b6d:	48 c1 e0 04          	shl    $0x4,%rax
   16b71:	48 01 c2             	add    %rax,%rdx
   16b74:	48 89 c8             	mov    %rcx,%rax
   16b77:	48 c1 e0 02          	shl    $0x2,%rax
   16b7b:	48 01 c8             	add    %rcx,%rax
   16b7e:	48 c1 e0 04          	shl    $0x4,%rax
   16b82:	48 01 c2             	add    %rax,%rdx
   16b85:	48 8d 05 e4 9b 00 00 	lea    0x9be4(%rip),%rax        # 20770 <g_602+0x10>
   16b8c:	48 01 d0             	add    %rdx,%rax
   16b8f:	8b 00                	mov    (%rax),%eax
   16b91:	25 ff ff ff 03       	and    $0x3ffffff,%eax
   16b96:	89 c1                	mov    %eax,%ecx
   16b98:	8b 45 fc             	mov    -0x4(%rbp),%eax
   16b9b:	89 c2                	mov    %eax,%edx
   16b9d:	48 8d 35 1b 60 00 00 	lea    0x601b(%rip),%rsi        # 1cbbf <g_1798+0x2adf>
   16ba4:	48 89 cf             	mov    %rcx,%rdi
   16ba7:	e8 47 0b ff ff       	callq  76f3 <transparent_crc>
   16bac:	83 7d fc 00          	cmpl   $0x0,-0x4(%rbp)
   16bb0:	74 1c                	je     16bce <main+0x145f>
   16bb2:	8b 4d f8             	mov    -0x8(%rbp),%ecx
   16bb5:	8b 55 f4             	mov    -0xc(%rbp),%edx
   16bb8:	8b 45 f0             	mov    -0x10(%rbp),%eax
   16bbb:	89 c6                	mov    %eax,%esi
   16bbd:	48 8d 3d f0 5d 00 00 	lea    0x5df0(%rip),%rdi        # 1c9b4 <g_1798+0x28d4>
   16bc4:	b8 00 00 00 00       	mov    $0x0,%eax
   16bc9:	e8 b2 f4 fe ff       	callq  6080 <printf@plt>
   16bce:	83 45 f8 01          	addl   $0x1,-0x8(%rbp)
   16bd2:	83 7d f8 03          	cmpl   $0x3,-0x8(%rbp)
   16bd6:	0f 8e bf fd ff ff    	jle    1699b <main+0x122c>
   16bdc:	83 45 f4 01          	addl   $0x1,-0xc(%rbp)
   16be0:	83 7d f4 00          	cmpl   $0x0,-0xc(%rbp)
   16be4:	0f 8e a5 fd ff ff    	jle    1698f <main+0x1220>
   16bea:	83 45 f0 01          	addl   $0x1,-0x10(%rbp)
   16bee:	83 7d f0 08          	cmpl   $0x8,-0x10(%rbp)
   16bf2:	0f 8e 8b fd ff ff    	jle    16983 <main+0x1214>
   16bf8:	48 8b 05 31 9e 00 00 	mov    0x9e31(%rip),%rax        # 20a30 <g_637>
   16bff:	8b 55 fc             	mov    -0x4(%rbp),%edx
   16c02:	48 8d 35 c8 5f 00 00 	lea    0x5fc8(%rip),%rsi        # 1cbd1 <g_1798+0x2af1>
   16c09:	48 89 c7             	mov    %rax,%rdi
   16c0c:	e8 e2 0a ff ff       	callq  76f3 <transparent_crc>
   16c11:	8b 05 29 9e 00 00    	mov    0x9e29(%rip),%eax        # 20a40 <g_639>
   16c17:	48 98                	cltq   
   16c19:	8b 55 fc             	mov    -0x4(%rbp),%edx
   16c1c:	48 8d 35 b7 5f 00 00 	lea    0x5fb7(%rip),%rsi        # 1cbda <g_1798+0x2afa>
   16c23:	48 89 c7             	mov    %rax,%rdi
   16c26:	e8 c8 0a ff ff       	callq  76f3 <transparent_crc>
   16c2b:	8b 05 13 9e 00 00    	mov    0x9e13(%rip),%eax        # 20a44 <g_639+0x4>
   16c31:	89 c1                	mov    %eax,%ecx
   16c33:	8b 45 fc             	mov    -0x4(%rbp),%eax
   16c36:	89 c2                	mov    %eax,%edx
   16c38:	48 8d 35 a4 5f 00 00 	lea    0x5fa4(%rip),%rsi        # 1cbe3 <g_1798+0x2b03>
   16c3f:	48 89 cf             	mov    %rcx,%rdi
   16c42:	e8 ac 0a ff ff       	callq  76f3 <transparent_crc>
   16c47:	8b 05 fb 9d 00 00    	mov    0x9dfb(%rip),%eax        # 20a48 <g_639+0x8>
   16c4d:	48 98                	cltq   
   16c4f:	8b 55 fc             	mov    -0x4(%rbp),%edx
   16c52:	48 8d 35 93 5f 00 00 	lea    0x5f93(%rip),%rsi        # 1cbec <g_1798+0x2b0c>
   16c59:	48 89 c7             	mov    %rax,%rdi
   16c5c:	e8 92 0a ff ff       	callq  76f3 <transparent_crc>
   16c61:	8b 05 e5 9d 00 00    	mov    0x9de5(%rip),%eax        # 20a4c <g_639+0xc>
   16c67:	48 98                	cltq   
   16c69:	8b 55 fc             	mov    -0x4(%rbp),%edx
   16c6c:	48 8d 35 82 5f 00 00 	lea    0x5f82(%rip),%rsi        # 1cbf5 <g_1798+0x2b15>
   16c73:	48 89 c7             	mov    %rax,%rdi
   16c76:	e8 78 0a ff ff       	callq  76f3 <transparent_crc>
   16c7b:	48 8b 05 ce 9d 00 00 	mov    0x9dce(%rip),%rax        # 20a50 <g_639+0x10>
   16c82:	25 ff ff ff 03       	and    $0x3ffffff,%eax
   16c87:	89 c1                	mov    %eax,%ecx
   16c89:	8b 45 fc             	mov    -0x4(%rbp),%eax
   16c8c:	89 c2                	mov    %eax,%edx
   16c8e:	48 8d 35 69 5f 00 00 	lea    0x5f69(%rip),%rsi        # 1cbfe <g_1798+0x2b1e>
   16c95:	48 89 cf             	mov    %rcx,%rdi
   16c98:	e8 56 0a ff ff       	callq  76f3 <transparent_crc>
   16c9d:	8b 05 bd 9d 00 00    	mov    0x9dbd(%rip),%eax        # 20a60 <g_640>
   16ca3:	48 98                	cltq   
   16ca5:	8b 55 fc             	mov    -0x4(%rbp),%edx
   16ca8:	48 8d 35 58 5f 00 00 	lea    0x5f58(%rip),%rsi        # 1cc07 <g_1798+0x2b27>
   16caf:	48 89 c7             	mov    %rax,%rdi
   16cb2:	e8 3c 0a ff ff       	callq  76f3 <transparent_crc>
   16cb7:	8b 05 a7 9d 00 00    	mov    0x9da7(%rip),%eax        # 20a64 <g_640+0x4>
   16cbd:	89 c1                	mov    %eax,%ecx
   16cbf:	8b 45 fc             	mov    -0x4(%rbp),%eax
   16cc2:	89 c2                	mov    %eax,%edx
   16cc4:	48 8d 35 45 5f 00 00 	lea    0x5f45(%rip),%rsi        # 1cc10 <g_1798+0x2b30>
   16ccb:	48 89 cf             	mov    %rcx,%rdi
   16cce:	e8 20 0a ff ff       	callq  76f3 <transparent_crc>
   16cd3:	8b 05 8f 9d 00 00    	mov    0x9d8f(%rip),%eax        # 20a68 <g_640+0x8>
   16cd9:	48 98                	cltq   
   16cdb:	8b 55 fc             	mov    -0x4(%rbp),%edx
   16cde:	48 8d 35 34 5f 00 00 	lea    0x5f34(%rip),%rsi        # 1cc19 <g_1798+0x2b39>
   16ce5:	48 89 c7             	mov    %rax,%rdi
   16ce8:	e8 06 0a ff ff       	callq  76f3 <transparent_crc>
   16ced:	8b 05 79 9d 00 00    	mov    0x9d79(%rip),%eax        # 20a6c <g_640+0xc>
   16cf3:	48 98                	cltq   
   16cf5:	8b 55 fc             	mov    -0x4(%rbp),%edx
   16cf8:	48 8d 35 23 5f 00 00 	lea    0x5f23(%rip),%rsi        # 1cc22 <g_1798+0x2b42>
   16cff:	48 89 c7             	mov    %rax,%rdi
   16d02:	e8 ec 09 ff ff       	callq  76f3 <transparent_crc>
   16d07:	8b 05 63 9d 00 00    	mov    0x9d63(%rip),%eax        # 20a70 <g_640+0x10>
   16d0d:	25 ff ff ff 03       	and    $0x3ffffff,%eax
   16d12:	89 c1                	mov    %eax,%ecx
   16d14:	8b 45 fc             	mov    -0x4(%rbp),%eax
   16d17:	89 c2                	mov    %eax,%edx
   16d19:	48 8d 35 0b 5f 00 00 	lea    0x5f0b(%rip),%rsi        # 1cc2b <g_1798+0x2b4b>
   16d20:	48 89 cf             	mov    %rcx,%rdi
   16d23:	e8 cb 09 ff ff       	callq  76f3 <transparent_crc>
   16d28:	48 8b 05 49 9d 00 00 	mov    0x9d49(%rip),%rax        # 20a78 <g_731>
   16d2f:	48 89 c1             	mov    %rax,%rcx
   16d32:	8b 45 fc             	mov    -0x4(%rbp),%eax
   16d35:	89 c2                	mov    %eax,%edx
   16d37:	48 8d 35 f6 5e 00 00 	lea    0x5ef6(%rip),%rsi        # 1cc34 <g_1798+0x2b54>
   16d3e:	48 89 cf             	mov    %rcx,%rdi
   16d41:	e8 ad 09 ff ff       	callq  76f3 <transparent_crc>
   16d46:	0f b7 05 33 9d 00 00 	movzwl 0x9d33(%rip),%eax        # 20a80 <g_870>
   16d4d:	0f b7 c0             	movzwl %ax,%eax
   16d50:	8b 55 fc             	mov    -0x4(%rbp),%edx
   16d53:	48 8d 35 e0 5e 00 00 	lea    0x5ee0(%rip),%rsi        # 1cc3a <g_1798+0x2b5a>
   16d5a:	48 89 c7             	mov    %rax,%rdi
   16d5d:	e8 91 09 ff ff       	callq  76f3 <transparent_crc>
   16d62:	8b 05 1c 9d 00 00    	mov    0x9d1c(%rip),%eax        # 20a84 <g_917>
   16d68:	48 98                	cltq   
   16d6a:	8b 55 fc             	mov    -0x4(%rbp),%edx
   16d6d:	48 8d 35 cc 5e 00 00 	lea    0x5ecc(%rip),%rsi        # 1cc40 <g_1798+0x2b60>
   16d74:	48 89 c7             	mov    %rax,%rdi
   16d77:	e8 77 09 ff ff       	callq  76f3 <transparent_crc>
   16d7c:	48 8b 05 05 9d 00 00 	mov    0x9d05(%rip),%rax        # 20a88 <g_921>
   16d83:	8b 55 fc             	mov    -0x4(%rbp),%edx
   16d86:	48 8d 35 b9 5e 00 00 	lea    0x5eb9(%rip),%rsi        # 1cc46 <g_1798+0x2b66>
   16d8d:	48 89 c7             	mov    %rax,%rdi
   16d90:	e8 5e 09 ff ff       	callq  76f3 <transparent_crc>
   16d95:	8b 05 f5 9c 00 00    	mov    0x9cf5(%rip),%eax        # 20a90 <g_922>
   16d9b:	89 c1                	mov    %eax,%ecx
   16d9d:	8b 45 fc             	mov    -0x4(%rbp),%eax
   16da0:	89 c2                	mov    %eax,%edx
   16da2:	48 8d 35 a6 5e 00 00 	lea    0x5ea6(%rip),%rsi        # 1cc4f <g_1798+0x2b6f>
   16da9:	48 89 cf             	mov    %rcx,%rdi
   16dac:	e8 42 09 ff ff       	callq  76f3 <transparent_crc>
   16db1:	8b 05 e9 9c 00 00    	mov    0x9ce9(%rip),%eax        # 20aa0 <g_923>
   16db7:	48 98                	cltq   
   16db9:	8b 55 fc             	mov    -0x4(%rbp),%edx
   16dbc:	48 8d 35 92 5e 00 00 	lea    0x5e92(%rip),%rsi        # 1cc55 <g_1798+0x2b75>
   16dc3:	48 89 c7             	mov    %rax,%rdi
   16dc6:	e8 28 09 ff ff       	callq  76f3 <transparent_crc>
   16dcb:	8b 05 d3 9c 00 00    	mov    0x9cd3(%rip),%eax        # 20aa4 <g_923+0x4>
   16dd1:	89 c1                	mov    %eax,%ecx
   16dd3:	8b 45 fc             	mov    -0x4(%rbp),%eax
   16dd6:	89 c2                	mov    %eax,%edx
   16dd8:	48 8d 35 7f 5e 00 00 	lea    0x5e7f(%rip),%rsi        # 1cc5e <g_1798+0x2b7e>
   16ddf:	48 89 cf             	mov    %rcx,%rdi
   16de2:	e8 0c 09 ff ff       	callq  76f3 <transparent_crc>
   16de7:	8b 05 bb 9c 00 00    	mov    0x9cbb(%rip),%eax        # 20aa8 <g_923+0x8>
   16ded:	48 98                	cltq   
   16def:	8b 55 fc             	mov    -0x4(%rbp),%edx
   16df2:	48 8d 35 6e 5e 00 00 	lea    0x5e6e(%rip),%rsi        # 1cc67 <g_1798+0x2b87>
   16df9:	48 89 c7             	mov    %rax,%rdi
   16dfc:	e8 f2 08 ff ff       	callq  76f3 <transparent_crc>
   16e01:	8b 05 a5 9c 00 00    	mov    0x9ca5(%rip),%eax        # 20aac <g_923+0xc>
   16e07:	48 98                	cltq   
   16e09:	8b 55 fc             	mov    -0x4(%rbp),%edx
   16e0c:	48 8d 35 5d 5e 00 00 	lea    0x5e5d(%rip),%rsi        # 1cc70 <g_1798+0x2b90>
   16e13:	48 89 c7             	mov    %rax,%rdi
   16e16:	e8 d8 08 ff ff       	callq  76f3 <transparent_crc>
   16e1b:	8b 05 8f 9c 00 00    	mov    0x9c8f(%rip),%eax        # 20ab0 <g_923+0x10>
   16e21:	25 ff ff ff 03       	and    $0x3ffffff,%eax
   16e26:	89 c1                	mov    %eax,%ecx
   16e28:	8b 45 fc             	mov    -0x4(%rbp),%eax
   16e2b:	89 c2                	mov    %eax,%edx
   16e2d:	48 8d 35 45 5e 00 00 	lea    0x5e45(%rip),%rsi        # 1cc79 <g_1798+0x2b99>
   16e34:	48 89 cf             	mov    %rcx,%rdi
   16e37:	e8 b7 08 ff ff       	callq  76f3 <transparent_crc>
   16e3c:	8b 05 de 0b 01 00    	mov    0x10bde(%rip),%eax        # 27a20 <g_962>
   16e42:	48 98                	cltq   
   16e44:	8b 55 fc             	mov    -0x4(%rbp),%edx
   16e47:	48 8d 35 34 5e 00 00 	lea    0x5e34(%rip),%rsi        # 1cc82 <g_1798+0x2ba2>
   16e4e:	48 89 c7             	mov    %rax,%rdi
   16e51:	e8 9d 08 ff ff       	callq  76f3 <transparent_crc>
   16e56:	48 8b 05 c3 0b 01 00 	mov    0x10bc3(%rip),%rax        # 27a20 <g_962>
   16e5d:	c1 e0 03             	shl    $0x3,%eax
   16e60:	66 c1 f8 03          	sar    $0x3,%ax
   16e64:	48 0f bf c0          	movswq %ax,%rax
   16e68:	8b 55 fc             	mov    -0x4(%rbp),%edx
   16e6b:	48 8d 35 19 5e 00 00 	lea    0x5e19(%rip),%rsi        # 1cc8b <g_1798+0x2bab>
   16e72:	48 89 c7             	mov    %rax,%rdi
   16e75:	e8 79 08 ff ff       	callq  76f3 <transparent_crc>
   16e7a:	8b 05 40 9c 00 00    	mov    0x9c40(%rip),%eax        # 20ac0 <g_1084>
   16e80:	48 98                	cltq   
   16e82:	8b 55 fc             	mov    -0x4(%rbp),%edx
   16e85:	48 8d 35 08 5e 00 00 	lea    0x5e08(%rip),%rsi        # 1cc94 <g_1798+0x2bb4>
   16e8c:	48 89 c7             	mov    %rax,%rdi
   16e8f:	e8 5f 08 ff ff       	callq  76f3 <transparent_crc>
   16e94:	8b 05 2a 9c 00 00    	mov    0x9c2a(%rip),%eax        # 20ac4 <g_1084+0x4>
   16e9a:	89 c1                	mov    %eax,%ecx
   16e9c:	8b 45 fc             	mov    -0x4(%rbp),%eax
   16e9f:	89 c2                	mov    %eax,%edx
   16ea1:	48 8d 35 f6 5d 00 00 	lea    0x5df6(%rip),%rsi        # 1cc9e <g_1798+0x2bbe>
   16ea8:	48 89 cf             	mov    %rcx,%rdi
   16eab:	e8 43 08 ff ff       	callq  76f3 <transparent_crc>
   16eb0:	8b 05 12 9c 00 00    	mov    0x9c12(%rip),%eax        # 20ac8 <g_1084+0x8>
   16eb6:	48 98                	cltq   
   16eb8:	8b 55 fc             	mov    -0x4(%rbp),%edx
   16ebb:	48 8d 35 e6 5d 00 00 	lea    0x5de6(%rip),%rsi        # 1cca8 <g_1798+0x2bc8>
   16ec2:	48 89 c7             	mov    %rax,%rdi
   16ec5:	e8 29 08 ff ff       	callq  76f3 <transparent_crc>
   16eca:	8b 05 fc 9b 00 00    	mov    0x9bfc(%rip),%eax        # 20acc <g_1084+0xc>
   16ed0:	48 98                	cltq   
   16ed2:	8b 55 fc             	mov    -0x4(%rbp),%edx
   16ed5:	48 8d 35 d6 5d 00 00 	lea    0x5dd6(%rip),%rsi        # 1ccb2 <g_1798+0x2bd2>
   16edc:	48 89 c7             	mov    %rax,%rdi
   16edf:	e8 0f 08 ff ff       	callq  76f3 <transparent_crc>
   16ee4:	48 8b 05 e5 9b 00 00 	mov    0x9be5(%rip),%rax        # 20ad0 <g_1084+0x10>
   16eeb:	25 ff ff ff 03       	and    $0x3ffffff,%eax
   16ef0:	89 c1                	mov    %eax,%ecx
   16ef2:	8b 45 fc             	mov    -0x4(%rbp),%eax
   16ef5:	89 c2                	mov    %eax,%edx
   16ef7:	48 8d 35 be 5d 00 00 	lea    0x5dbe(%rip),%rsi        # 1ccbc <g_1798+0x2bdc>
   16efe:	48 89 cf             	mov    %rcx,%rdi
   16f01:	e8 ed 07 ff ff       	callq  76f3 <transparent_crc>
   16f06:	c7 45 f0 00 00 00 00 	movl   $0x0,-0x10(%rbp)
   16f0d:	e9 d1 01 00 00       	jmpq   170e3 <main+0x1974>
   16f12:	8b 45 f0             	mov    -0x10(%rbp),%eax
   16f15:	48 63 d0             	movslq %eax,%rdx
   16f18:	48 89 d0             	mov    %rdx,%rax
   16f1b:	48 c1 e0 03          	shl    $0x3,%rax
   16f1f:	48 01 d0             	add    %rdx,%rax
   16f22:	48 c1 e0 02          	shl    $0x2,%rax
   16f26:	48 01 c2             	add    %rax,%rdx
   16f29:	48 8d 05 b0 9b 00 00 	lea    0x9bb0(%rip),%rax        # 20ae0 <g_1085>
   16f30:	48 8b 04 02          	mov    (%rdx,%rax,1),%rax
   16f34:	8b 55 fc             	mov    -0x4(%rbp),%edx
   16f37:	48 8d 35 88 5d 00 00 	lea    0x5d88(%rip),%rsi        # 1ccc6 <g_1798+0x2be6>
   16f3e:	48 89 c7             	mov    %rax,%rdi
   16f41:	e8 ad 07 ff ff       	callq  76f3 <transparent_crc>
   16f46:	8b 45 f0             	mov    -0x10(%rbp),%eax
   16f49:	48 63 d0             	movslq %eax,%rdx
   16f4c:	48 89 d0             	mov    %rdx,%rax
   16f4f:	48 c1 e0 03          	shl    $0x3,%rax
   16f53:	48 01 d0             	add    %rdx,%rax
   16f56:	48 c1 e0 02          	shl    $0x2,%rax
   16f5a:	48 01 c2             	add    %rax,%rdx
   16f5d:	48 8d 05 84 9b 00 00 	lea    0x9b84(%rip),%rax        # 20ae8 <g_1085+0x8>
   16f64:	8b 04 02             	mov    (%rdx,%rax,1),%eax
   16f67:	48 98                	cltq   
   16f69:	8b 55 fc             	mov    -0x4(%rbp),%edx
   16f6c:	48 8d 35 63 5d 00 00 	lea    0x5d63(%rip),%rsi        # 1ccd6 <g_1798+0x2bf6>
   16f73:	48 89 c7             	mov    %rax,%rdi
   16f76:	e8 78 07 ff ff       	callq  76f3 <transparent_crc>
   16f7b:	8b 45 f0             	mov    -0x10(%rbp),%eax
   16f7e:	48 63 d0             	movslq %eax,%rdx
   16f81:	48 89 d0             	mov    %rdx,%rax
   16f84:	48 c1 e0 03          	shl    $0x3,%rax
   16f88:	48 01 d0             	add    %rdx,%rax
   16f8b:	48 c1 e0 02          	shl    $0x2,%rax
   16f8f:	48 01 c2             	add    %rax,%rdx
   16f92:	48 8d 05 53 9b 00 00 	lea    0x9b53(%rip),%rax        # 20aec <g_1085+0xc>
   16f99:	0f b6 04 02          	movzbl (%rdx,%rax,1),%eax
   16f9d:	0f b6 c0             	movzbl %al,%eax
   16fa0:	8b 55 fc             	mov    -0x4(%rbp),%edx
   16fa3:	48 8d 35 39 5d 00 00 	lea    0x5d39(%rip),%rsi        # 1cce3 <g_1798+0x2c03>
   16faa:	48 89 c7             	mov    %rax,%rdi
   16fad:	e8 41 07 ff ff       	callq  76f3 <transparent_crc>
   16fb2:	8b 45 f0             	mov    -0x10(%rbp),%eax
   16fb5:	48 63 d0             	movslq %eax,%rdx
   16fb8:	48 89 d0             	mov    %rdx,%rax
   16fbb:	48 c1 e0 03          	shl    $0x3,%rax
   16fbf:	48 01 d0             	add    %rdx,%rax
   16fc2:	48 c1 e0 02          	shl    $0x2,%rax
   16fc6:	48 01 c2             	add    %rax,%rdx
   16fc9:	48 8d 05 10 9b 00 00 	lea    0x9b10(%rip),%rax        # 20ae0 <g_1085>
   16fd0:	0f b7 44 02 0d       	movzwl 0xd(%rdx,%rax,1),%eax
   16fd5:	48 0f bf c0          	movswq %ax,%rax
   16fd9:	8b 55 fc             	mov    -0x4(%rbp),%edx
   16fdc:	48 8d 35 0d 5d 00 00 	lea    0x5d0d(%rip),%rsi        # 1ccf0 <g_1798+0x2c10>
   16fe3:	48 89 c7             	mov    %rax,%rdi
   16fe6:	e8 08 07 ff ff       	callq  76f3 <transparent_crc>
   16feb:	8b 45 f0             	mov    -0x10(%rbp),%eax
   16fee:	48 63 d0             	movslq %eax,%rdx
   16ff1:	48 89 d0             	mov    %rdx,%rax
   16ff4:	48 c1 e0 03          	shl    $0x3,%rax
   16ff8:	48 01 d0             	add    %rdx,%rax
   16ffb:	48 c1 e0 02          	shl    $0x2,%rax
   16fff:	48 01 c2             	add    %rax,%rdx
   17002:	48 8d 05 d7 9a 00 00 	lea    0x9ad7(%rip),%rax        # 20ae0 <g_1085>
   17009:	48 8b 44 02 0f       	mov    0xf(%rdx,%rax,1),%rax
   1700e:	8b 55 fc             	mov    -0x4(%rbp),%edx
   17011:	48 8d 35 e5 5c 00 00 	lea    0x5ce5(%rip),%rsi        # 1ccfd <g_1798+0x2c1d>
   17018:	48 89 c7             	mov    %rax,%rdi
   1701b:	e8 d3 06 ff ff       	callq  76f3 <transparent_crc>
   17020:	8b 45 f0             	mov    -0x10(%rbp),%eax
   17023:	48 63 d0             	movslq %eax,%rdx
   17026:	48 89 d0             	mov    %rdx,%rax
   17029:	48 c1 e0 03          	shl    $0x3,%rax
   1702d:	48 01 d0             	add    %rdx,%rax
   17030:	48 c1 e0 02          	shl    $0x2,%rax
   17034:	48 01 c2             	add    %rax,%rdx
   17037:	48 8d 05 b2 9a 00 00 	lea    0x9ab2(%rip),%rax        # 20af0 <g_1085+0x10>
   1703e:	8b 44 02 07          	mov    0x7(%rdx,%rax,1),%eax
   17042:	48 98                	cltq   
   17044:	8b 55 fc             	mov    -0x4(%rbp),%edx
   17047:	48 8d 35 bc 5c 00 00 	lea    0x5cbc(%rip),%rsi        # 1cd0a <g_1798+0x2c2a>
   1704e:	48 89 c7             	mov    %rax,%rdi
   17051:	e8 9d 06 ff ff       	callq  76f3 <transparent_crc>
   17056:	8b 45 f0             	mov    -0x10(%rbp),%eax
   17059:	48 63 d0             	movslq %eax,%rdx
   1705c:	48 89 d0             	mov    %rdx,%rax
   1705f:	48 c1 e0 03          	shl    $0x3,%rax
   17063:	48 01 d0             	add    %rdx,%rax
   17066:	48 c1 e0 02          	shl    $0x2,%rax
   1706a:	48 01 c2             	add    %rax,%rdx
   1706d:	48 8d 05 7c 9a 00 00 	lea    0x9a7c(%rip),%rax        # 20af0 <g_1085+0x10>
   17074:	0f b7 44 02 0b       	movzwl 0xb(%rdx,%rax,1),%eax
   17079:	0f b7 c0             	movzwl %ax,%eax
   1707c:	8b 55 fc             	mov    -0x4(%rbp),%edx
   1707f:	48 8d 35 91 5c 00 00 	lea    0x5c91(%rip),%rsi        # 1cd17 <g_1798+0x2c37>
   17086:	48 89 c7             	mov    %rax,%rdi
   17089:	e8 65 06 ff ff       	callq  76f3 <transparent_crc>
   1708e:	8b 45 f0             	mov    -0x10(%rbp),%eax
   17091:	48 63 d0             	movslq %eax,%rdx
   17094:	48 89 d0             	mov    %rdx,%rax
   17097:	48 c1 e0 03          	shl    $0x3,%rax
   1709b:	48 01 d0             	add    %rdx,%rax
   1709e:	48 c1 e0 02          	shl    $0x2,%rax
   170a2:	48 01 c2             	add    %rax,%rdx
   170a5:	48 8d 05 44 9a 00 00 	lea    0x9a44(%rip),%rax        # 20af0 <g_1085+0x10>
   170ac:	48 8b 44 02 0d       	mov    0xd(%rdx,%rax,1),%rax
   170b1:	8b 55 fc             	mov    -0x4(%rbp),%edx
   170b4:	48 8d 35 69 5c 00 00 	lea    0x5c69(%rip),%rsi        # 1cd24 <g_1798+0x2c44>
   170bb:	48 89 c7             	mov    %rax,%rdi
   170be:	e8 30 06 ff ff       	callq  76f3 <transparent_crc>
   170c3:	83 7d fc 00          	cmpl   $0x0,-0x4(%rbp)
   170c7:	74 16                	je     170df <main+0x1970>
   170c9:	8b 45 f0             	mov    -0x10(%rbp),%eax
   170cc:	89 c6                	mov    %eax,%esi
   170ce:	48 8d 3d b4 56 00 00 	lea    0x56b4(%rip),%rdi        # 1c789 <g_1798+0x26a9>
   170d5:	b8 00 00 00 00       	mov    $0x0,%eax
   170da:	e8 a1 ef fe ff       	callq  6080 <printf@plt>
   170df:	83 45 f0 01          	addl   $0x1,-0x10(%rbp)
   170e3:	83 7d f0 09          	cmpl   $0x9,-0x10(%rbp)
   170e7:	0f 8e 25 fe ff ff    	jle    16f12 <main+0x17a3>
   170ed:	8b 05 6d 9b 00 00    	mov    0x9b6d(%rip),%eax        # 20c60 <g_1123>
   170f3:	48 98                	cltq   
   170f5:	8b 55 fc             	mov    -0x4(%rbp),%edx
   170f8:	48 8d 35 35 5c 00 00 	lea    0x5c35(%rip),%rsi        # 1cd34 <g_1798+0x2c54>
   170ff:	48 89 c7             	mov    %rax,%rdi
   17102:	e8 ec 05 ff ff       	callq  76f3 <transparent_crc>
   17107:	8b 05 57 9b 00 00    	mov    0x9b57(%rip),%eax        # 20c64 <g_1123+0x4>
   1710d:	89 c1                	mov    %eax,%ecx
   1710f:	8b 45 fc             	mov    -0x4(%rbp),%eax
   17112:	89 c2                	mov    %eax,%edx
   17114:	48 8d 35 23 5c 00 00 	lea    0x5c23(%rip),%rsi        # 1cd3e <g_1798+0x2c5e>
   1711b:	48 89 cf             	mov    %rcx,%rdi
   1711e:	e8 d0 05 ff ff       	callq  76f3 <transparent_crc>
   17123:	8b 05 3f 9b 00 00    	mov    0x9b3f(%rip),%eax        # 20c68 <g_1123+0x8>
   17129:	48 98                	cltq   
   1712b:	8b 55 fc             	mov    -0x4(%rbp),%edx
   1712e:	48 8d 35 13 5c 00 00 	lea    0x5c13(%rip),%rsi        # 1cd48 <g_1798+0x2c68>
   17135:	48 89 c7             	mov    %rax,%rdi
   17138:	e8 b6 05 ff ff       	callq  76f3 <transparent_crc>
   1713d:	8b 05 29 9b 00 00    	mov    0x9b29(%rip),%eax        # 20c6c <g_1123+0xc>
   17143:	48 98                	cltq   
   17145:	8b 55 fc             	mov    -0x4(%rbp),%edx
   17148:	48 8d 35 03 5c 00 00 	lea    0x5c03(%rip),%rsi        # 1cd52 <g_1798+0x2c72>
   1714f:	48 89 c7             	mov    %rax,%rdi
   17152:	e8 9c 05 ff ff       	callq  76f3 <transparent_crc>
   17157:	48 8b 05 12 9b 00 00 	mov    0x9b12(%rip),%rax        # 20c70 <g_1123+0x10>
   1715e:	25 ff ff ff 03       	and    $0x3ffffff,%eax
   17163:	89 c1                	mov    %eax,%ecx
   17165:	8b 45 fc             	mov    -0x4(%rbp),%eax
   17168:	89 c2                	mov    %eax,%edx
   1716a:	48 8d 35 eb 5b 00 00 	lea    0x5beb(%rip),%rsi        # 1cd5c <g_1798+0x2c7c>
   17171:	48 89 cf             	mov    %rcx,%rdi
   17174:	e8 7a 05 ff ff       	callq  76f3 <transparent_crc>
   17179:	48 8b 05 f8 9a 00 00 	mov    0x9af8(%rip),%rax        # 20c78 <g_1124>
   17180:	8b 55 fc             	mov    -0x4(%rbp),%edx
   17183:	48 8d 35 dc 5b 00 00 	lea    0x5bdc(%rip),%rsi        # 1cd66 <g_1798+0x2c86>
   1718a:	48 89 c7             	mov    %rax,%rdi
   1718d:	e8 61 05 ff ff       	callq  76f3 <transparent_crc>
   17192:	8b 05 e8 9a 00 00    	mov    0x9ae8(%rip),%eax        # 20c80 <g_1130>
   17198:	89 c1                	mov    %eax,%ecx
   1719a:	8b 45 fc             	mov    -0x4(%rbp),%eax
   1719d:	89 c2                	mov    %eax,%edx
   1719f:	48 8d 35 ca 5b 00 00 	lea    0x5bca(%rip),%rsi        # 1cd70 <g_1798+0x2c90>
   171a6:	48 89 cf             	mov    %rcx,%rdi
   171a9:	e8 45 05 ff ff       	callq  76f3 <transparent_crc>
   171ae:	8b 05 dc 9a 00 00    	mov    0x9adc(%rip),%eax        # 20c90 <g_1158>
   171b4:	48 98                	cltq   
   171b6:	8b 55 fc             	mov    -0x4(%rbp),%edx
   171b9:	48 8d 35 b7 5b 00 00 	lea    0x5bb7(%rip),%rsi        # 1cd77 <g_1798+0x2c97>
   171c0:	48 89 c7             	mov    %rax,%rdi
   171c3:	e8 2b 05 ff ff       	callq  76f3 <transparent_crc>
   171c8:	8b 05 c6 9a 00 00    	mov    0x9ac6(%rip),%eax        # 20c94 <g_1158+0x4>
   171ce:	89 c1                	mov    %eax,%ecx
   171d0:	8b 45 fc             	mov    -0x4(%rbp),%eax
   171d3:	89 c2                	mov    %eax,%edx
   171d5:	48 8d 35 a5 5b 00 00 	lea    0x5ba5(%rip),%rsi        # 1cd81 <g_1798+0x2ca1>
   171dc:	48 89 cf             	mov    %rcx,%rdi
   171df:	e8 0f 05 ff ff       	callq  76f3 <transparent_crc>
   171e4:	8b 05 ae 9a 00 00    	mov    0x9aae(%rip),%eax        # 20c98 <g_1158+0x8>
   171ea:	48 98                	cltq   
   171ec:	8b 55 fc             	mov    -0x4(%rbp),%edx
   171ef:	48 8d 35 95 5b 00 00 	lea    0x5b95(%rip),%rsi        # 1cd8b <g_1798+0x2cab>
   171f6:	48 89 c7             	mov    %rax,%rdi
   171f9:	e8 f5 04 ff ff       	callq  76f3 <transparent_crc>
   171fe:	8b 05 98 9a 00 00    	mov    0x9a98(%rip),%eax        # 20c9c <g_1158+0xc>
   17204:	48 98                	cltq   
   17206:	8b 55 fc             	mov    -0x4(%rbp),%edx
   17209:	48 8d 35 85 5b 00 00 	lea    0x5b85(%rip),%rsi        # 1cd95 <g_1798+0x2cb5>
   17210:	48 89 c7             	mov    %rax,%rdi
   17213:	e8 db 04 ff ff       	callq  76f3 <transparent_crc>
   17218:	48 8b 05 81 9a 00 00 	mov    0x9a81(%rip),%rax        # 20ca0 <g_1158+0x10>
   1721f:	25 ff ff ff 03       	and    $0x3ffffff,%eax
   17224:	89 c1                	mov    %eax,%ecx
   17226:	8b 45 fc             	mov    -0x4(%rbp),%eax
   17229:	89 c2                	mov    %eax,%edx
   1722b:	48 8d 35 6d 5b 00 00 	lea    0x5b6d(%rip),%rsi        # 1cd9f <g_1798+0x2cbf>
   17232:	48 89 cf             	mov    %rcx,%rdi
   17235:	e8 b9 04 ff ff       	callq  76f3 <transparent_crc>
   1723a:	8b 05 70 9a 00 00    	mov    0x9a70(%rip),%eax        # 20cb0 <g_1159>
   17240:	48 98                	cltq   
   17242:	8b 55 fc             	mov    -0x4(%rbp),%edx
   17245:	48 8d 35 5d 5b 00 00 	lea    0x5b5d(%rip),%rsi        # 1cda9 <g_1798+0x2cc9>
   1724c:	48 89 c7             	mov    %rax,%rdi
   1724f:	e8 9f 04 ff ff       	callq  76f3 <transparent_crc>
   17254:	8b 05 5a 9a 00 00    	mov    0x9a5a(%rip),%eax        # 20cb4 <g_1159+0x4>
   1725a:	89 c1                	mov    %eax,%ecx
   1725c:	8b 45 fc             	mov    -0x4(%rbp),%eax
   1725f:	89 c2                	mov    %eax,%edx
   17261:	48 8d 35 4b 5b 00 00 	lea    0x5b4b(%rip),%rsi        # 1cdb3 <g_1798+0x2cd3>
   17268:	48 89 cf             	mov    %rcx,%rdi
   1726b:	e8 83 04 ff ff       	callq  76f3 <transparent_crc>
   17270:	8b 05 42 9a 00 00    	mov    0x9a42(%rip),%eax        # 20cb8 <g_1159+0x8>
   17276:	48 98                	cltq   
   17278:	8b 55 fc             	mov    -0x4(%rbp),%edx
   1727b:	48 8d 35 3b 5b 00 00 	lea    0x5b3b(%rip),%rsi        # 1cdbd <g_1798+0x2cdd>
   17282:	48 89 c7             	mov    %rax,%rdi
   17285:	e8 69 04 ff ff       	callq  76f3 <transparent_crc>
   1728a:	8b 05 2c 9a 00 00    	mov    0x9a2c(%rip),%eax        # 20cbc <g_1159+0xc>
   17290:	48 98                	cltq   
   17292:	8b 55 fc             	mov    -0x4(%rbp),%edx
   17295:	48 8d 35 2b 5b 00 00 	lea    0x5b2b(%rip),%rsi        # 1cdc7 <g_1798+0x2ce7>
   1729c:	48 89 c7             	mov    %rax,%rdi
   1729f:	e8 4f 04 ff ff       	callq  76f3 <transparent_crc>
   172a4:	48 8b 05 15 9a 00 00 	mov    0x9a15(%rip),%rax        # 20cc0 <g_1159+0x10>
   172ab:	25 ff ff ff 03       	and    $0x3ffffff,%eax
   172b0:	89 c1                	mov    %eax,%ecx
   172b2:	8b 45 fc             	mov    -0x4(%rbp),%eax
   172b5:	89 c2                	mov    %eax,%edx
   172b7:	48 8d 35 13 5b 00 00 	lea    0x5b13(%rip),%rsi        # 1cdd1 <g_1798+0x2cf1>
   172be:	48 89 cf             	mov    %rcx,%rdi
   172c1:	e8 2d 04 ff ff       	callq  76f3 <transparent_crc>
   172c6:	8b 05 04 9a 00 00    	mov    0x9a04(%rip),%eax        # 20cd0 <g_1176>
   172cc:	48 98                	cltq   
   172ce:	8b 55 fc             	mov    -0x4(%rbp),%edx
   172d1:	48 8d 35 03 5b 00 00 	lea    0x5b03(%rip),%rsi        # 1cddb <g_1798+0x2cfb>
   172d8:	48 89 c7             	mov    %rax,%rdi
   172db:	e8 13 04 ff ff       	callq  76f3 <transparent_crc>
   172e0:	8b 05 ee 99 00 00    	mov    0x99ee(%rip),%eax        # 20cd4 <g_1176+0x4>
   172e6:	89 c1                	mov    %eax,%ecx
   172e8:	8b 45 fc             	mov    -0x4(%rbp),%eax
   172eb:	89 c2                	mov    %eax,%edx
   172ed:	48 8d 35 f1 5a 00 00 	lea    0x5af1(%rip),%rsi        # 1cde5 <g_1798+0x2d05>
   172f4:	48 89 cf             	mov    %rcx,%rdi
   172f7:	e8 f7 03 ff ff       	callq  76f3 <transparent_crc>
   172fc:	8b 05 d6 99 00 00    	mov    0x99d6(%rip),%eax        # 20cd8 <g_1176+0x8>
   17302:	48 98                	cltq   
   17304:	8b 55 fc             	mov    -0x4(%rbp),%edx
   17307:	48 8d 35 e1 5a 00 00 	lea    0x5ae1(%rip),%rsi        # 1cdef <g_1798+0x2d0f>
   1730e:	48 89 c7             	mov    %rax,%rdi
   17311:	e8 dd 03 ff ff       	callq  76f3 <transparent_crc>
   17316:	8b 05 c0 99 00 00    	mov    0x99c0(%rip),%eax        # 20cdc <g_1176+0xc>
   1731c:	48 98                	cltq   
   1731e:	8b 55 fc             	mov    -0x4(%rbp),%edx
   17321:	48 8d 35 d1 5a 00 00 	lea    0x5ad1(%rip),%rsi        # 1cdf9 <g_1798+0x2d19>
   17328:	48 89 c7             	mov    %rax,%rdi
   1732b:	e8 c3 03 ff ff       	callq  76f3 <transparent_crc>
   17330:	48 8b 05 a9 99 00 00 	mov    0x99a9(%rip),%rax        # 20ce0 <g_1176+0x10>
   17337:	25 ff ff ff 03       	and    $0x3ffffff,%eax
   1733c:	89 c1                	mov    %eax,%ecx
   1733e:	8b 45 fc             	mov    -0x4(%rbp),%eax
   17341:	89 c2                	mov    %eax,%edx
   17343:	48 8d 35 b9 5a 00 00 	lea    0x5ab9(%rip),%rsi        # 1ce03 <g_1798+0x2d23>
   1734a:	48 89 cf             	mov    %rcx,%rdi
   1734d:	e8 a1 03 ff ff       	callq  76f3 <transparent_crc>
   17352:	b8 ec 56 c8 cd       	mov    $0xcdc856ec,%eax
   17357:	48 98                	cltq   
   17359:	8b 55 fc             	mov    -0x4(%rbp),%edx
   1735c:	48 8d 35 aa 5a 00 00 	lea    0x5aaa(%rip),%rsi        # 1ce0d <g_1798+0x2d2d>
   17363:	48 89 c7             	mov    %rax,%rdi
   17366:	e8 88 03 ff ff       	callq  76f3 <transparent_crc>
   1736b:	b8 09 06 f0 7e       	mov    $0x7ef00609,%eax
   17370:	48 98                	cltq   
   17372:	8b 55 fc             	mov    -0x4(%rbp),%edx
   17375:	48 8d 35 98 5a 00 00 	lea    0x5a98(%rip),%rsi        # 1ce14 <g_1798+0x2d34>
   1737c:	48 89 c7             	mov    %rax,%rdi
   1737f:	e8 6f 03 ff ff       	callq  76f3 <transparent_crc>
   17384:	b8 01 00 00 00       	mov    $0x1,%eax
   17389:	89 c1                	mov    %eax,%ecx
   1738b:	8b 45 fc             	mov    -0x4(%rbp),%eax
   1738e:	89 c2                	mov    %eax,%edx
   17390:	48 8d 35 87 5a 00 00 	lea    0x5a87(%rip),%rsi        # 1ce1e <g_1798+0x2d3e>
   17397:	48 89 cf             	mov    %rcx,%rdi
   1739a:	e8 54 03 ff ff       	callq  76f3 <transparent_crc>
   1739f:	8b 05 e3 2c 00 00    	mov    0x2ce3(%rip),%eax        # 1a088 <g_1199+0x8>
   173a5:	48 98                	cltq   
   173a7:	8b 55 fc             	mov    -0x4(%rbp),%edx
   173aa:	48 8d 35 77 5a 00 00 	lea    0x5a77(%rip),%rsi        # 1ce28 <g_1798+0x2d48>
   173b1:	48 89 c7             	mov    %rax,%rdi
   173b4:	e8 3a 03 ff ff       	callq  76f3 <transparent_crc>
   173b9:	8b 05 cd 2c 00 00    	mov    0x2ccd(%rip),%eax        # 1a08c <g_1199+0xc>
   173bf:	48 98                	cltq   
   173c1:	8b 55 fc             	mov    -0x4(%rbp),%edx
   173c4:	48 8d 35 67 5a 00 00 	lea    0x5a67(%rip),%rsi        # 1ce32 <g_1798+0x2d52>
   173cb:	48 89 c7             	mov    %rax,%rdi
   173ce:	e8 20 03 ff ff       	callq  76f3 <transparent_crc>
   173d3:	b8 20 08 00 00       	mov    $0x820,%eax
   173d8:	89 c1                	mov    %eax,%ecx
   173da:	8b 45 fc             	mov    -0x4(%rbp),%eax
   173dd:	89 c2                	mov    %eax,%edx
   173df:	48 8d 35 56 5a 00 00 	lea    0x5a56(%rip),%rsi        # 1ce3c <g_1798+0x2d5c>
   173e6:	48 89 cf             	mov    %rcx,%rdi
   173e9:	e8 05 03 ff ff       	callq  76f3 <transparent_crc>
   173ee:	8b 05 fc 98 00 00    	mov    0x98fc(%rip),%eax        # 20cf0 <g_1202>
   173f4:	48 98                	cltq   
   173f6:	8b 55 fc             	mov    -0x4(%rbp),%edx
   173f9:	48 8d 35 46 5a 00 00 	lea    0x5a46(%rip),%rsi        # 1ce46 <g_1798+0x2d66>
   17400:	48 89 c7             	mov    %rax,%rdi
   17403:	e8 eb 02 ff ff       	callq  76f3 <transparent_crc>
   17408:	8b 05 e6 98 00 00    	mov    0x98e6(%rip),%eax        # 20cf4 <g_1202+0x4>
   1740e:	89 c1                	mov    %eax,%ecx
   17410:	8b 45 fc             	mov    -0x4(%rbp),%eax
   17413:	89 c2                	mov    %eax,%edx
   17415:	48 8d 35 34 5a 00 00 	lea    0x5a34(%rip),%rsi        # 1ce50 <g_1798+0x2d70>
   1741c:	48 89 cf             	mov    %rcx,%rdi
   1741f:	e8 cf 02 ff ff       	callq  76f3 <transparent_crc>
   17424:	8b 05 ce 98 00 00    	mov    0x98ce(%rip),%eax        # 20cf8 <g_1202+0x8>
   1742a:	48 98                	cltq   
   1742c:	8b 55 fc             	mov    -0x4(%rbp),%edx
   1742f:	48 8d 35 24 5a 00 00 	lea    0x5a24(%rip),%rsi        # 1ce5a <g_1798+0x2d7a>
   17436:	48 89 c7             	mov    %rax,%rdi
   17439:	e8 b5 02 ff ff       	callq  76f3 <transparent_crc>
   1743e:	8b 05 b8 98 00 00    	mov    0x98b8(%rip),%eax        # 20cfc <g_1202+0xc>
   17444:	48 98                	cltq   
   17446:	8b 55 fc             	mov    -0x4(%rbp),%edx
   17449:	48 8d 35 14 5a 00 00 	lea    0x5a14(%rip),%rsi        # 1ce64 <g_1798+0x2d84>
   17450:	48 89 c7             	mov    %rax,%rdi
   17453:	e8 9b 02 ff ff       	callq  76f3 <transparent_crc>
   17458:	8b 05 a2 98 00 00    	mov    0x98a2(%rip),%eax        # 20d00 <g_1202+0x10>
   1745e:	25 ff ff ff 03       	and    $0x3ffffff,%eax
   17463:	89 c1                	mov    %eax,%ecx
   17465:	8b 45 fc             	mov    -0x4(%rbp),%eax
   17468:	89 c2                	mov    %eax,%edx
   1746a:	48 8d 35 fd 59 00 00 	lea    0x59fd(%rip),%rsi        # 1ce6e <g_1798+0x2d8e>
   17471:	48 89 cf             	mov    %rcx,%rdi
   17474:	e8 7a 02 ff ff       	callq  76f3 <transparent_crc>
   17479:	8b 05 91 98 00 00    	mov    0x9891(%rip),%eax        # 20d10 <g_1204>
   1747f:	48 98                	cltq   
   17481:	8b 55 fc             	mov    -0x4(%rbp),%edx
   17484:	48 8d 35 ed 59 00 00 	lea    0x59ed(%rip),%rsi        # 1ce78 <g_1798+0x2d98>
   1748b:	48 89 c7             	mov    %rax,%rdi
   1748e:	e8 60 02 ff ff       	callq  76f3 <transparent_crc>
   17493:	8b 05 7b 98 00 00    	mov    0x987b(%rip),%eax        # 20d14 <g_1204+0x4>
   17499:	89 c1                	mov    %eax,%ecx
   1749b:	8b 45 fc             	mov    -0x4(%rbp),%eax
   1749e:	89 c2                	mov    %eax,%edx
   174a0:	48 8d 35 db 59 00 00 	lea    0x59db(%rip),%rsi        # 1ce82 <g_1798+0x2da2>
   174a7:	48 89 cf             	mov    %rcx,%rdi
   174aa:	e8 44 02 ff ff       	callq  76f3 <transparent_crc>
   174af:	8b 05 63 98 00 00    	mov    0x9863(%rip),%eax        # 20d18 <g_1204+0x8>
   174b5:	48 98                	cltq   
   174b7:	8b 55 fc             	mov    -0x4(%rbp),%edx
   174ba:	48 8d 35 cb 59 00 00 	lea    0x59cb(%rip),%rsi        # 1ce8c <g_1798+0x2dac>
   174c1:	48 89 c7             	mov    %rax,%rdi
   174c4:	e8 2a 02 ff ff       	callq  76f3 <transparent_crc>
   174c9:	8b 05 4d 98 00 00    	mov    0x984d(%rip),%eax        # 20d1c <g_1204+0xc>
   174cf:	48 98                	cltq   
   174d1:	8b 55 fc             	mov    -0x4(%rbp),%edx
   174d4:	48 8d 35 bb 59 00 00 	lea    0x59bb(%rip),%rsi        # 1ce96 <g_1798+0x2db6>
   174db:	48 89 c7             	mov    %rax,%rdi
   174de:	e8 10 02 ff ff       	callq  76f3 <transparent_crc>
   174e3:	8b 05 37 98 00 00    	mov    0x9837(%rip),%eax        # 20d20 <g_1204+0x10>
   174e9:	25 ff ff ff 03       	and    $0x3ffffff,%eax
   174ee:	89 c1                	mov    %eax,%ecx
   174f0:	8b 45 fc             	mov    -0x4(%rbp),%eax
   174f3:	89 c2                	mov    %eax,%edx
   174f5:	48 8d 35 a4 59 00 00 	lea    0x59a4(%rip),%rsi        # 1cea0 <g_1798+0x2dc0>
   174fc:	48 89 cf             	mov    %rcx,%rdi
   174ff:	e8 ef 01 ff ff       	callq  76f3 <transparent_crc>
   17504:	8b 05 26 98 00 00    	mov    0x9826(%rip),%eax        # 20d30 <g_1235>
   1750a:	48 98                	cltq   
   1750c:	8b 55 fc             	mov    -0x4(%rbp),%edx
   1750f:	48 8d 35 94 59 00 00 	lea    0x5994(%rip),%rsi        # 1ceaa <g_1798+0x2dca>
   17516:	48 89 c7             	mov    %rax,%rdi
   17519:	e8 d5 01 ff ff       	callq  76f3 <transparent_crc>
   1751e:	8b 05 10 98 00 00    	mov    0x9810(%rip),%eax        # 20d34 <g_1235+0x4>
   17524:	89 c1                	mov    %eax,%ecx
   17526:	8b 45 fc             	mov    -0x4(%rbp),%eax
   17529:	89 c2                	mov    %eax,%edx
   1752b:	48 8d 35 82 59 00 00 	lea    0x5982(%rip),%rsi        # 1ceb4 <g_1798+0x2dd4>
   17532:	48 89 cf             	mov    %rcx,%rdi
   17535:	e8 b9 01 ff ff       	callq  76f3 <transparent_crc>
   1753a:	8b 05 f8 97 00 00    	mov    0x97f8(%rip),%eax        # 20d38 <g_1235+0x8>
   17540:	48 98                	cltq   
   17542:	8b 55 fc             	mov    -0x4(%rbp),%edx
   17545:	48 8d 35 72 59 00 00 	lea    0x5972(%rip),%rsi        # 1cebe <g_1798+0x2dde>
   1754c:	48 89 c7             	mov    %rax,%rdi
   1754f:	e8 9f 01 ff ff       	callq  76f3 <transparent_crc>
   17554:	8b 05 e2 97 00 00    	mov    0x97e2(%rip),%eax        # 20d3c <g_1235+0xc>
   1755a:	48 98                	cltq   
   1755c:	8b 55 fc             	mov    -0x4(%rbp),%edx
   1755f:	48 8d 35 62 59 00 00 	lea    0x5962(%rip),%rsi        # 1cec8 <g_1798+0x2de8>
   17566:	48 89 c7             	mov    %rax,%rdi
   17569:	e8 85 01 ff ff       	callq  76f3 <transparent_crc>
   1756e:	8b 05 cc 97 00 00    	mov    0x97cc(%rip),%eax        # 20d40 <g_1235+0x10>
   17574:	25 ff ff ff 03       	and    $0x3ffffff,%eax
   17579:	89 c1                	mov    %eax,%ecx
   1757b:	8b 45 fc             	mov    -0x4(%rbp),%eax
   1757e:	89 c2                	mov    %eax,%edx
   17580:	48 8d 35 4b 59 00 00 	lea    0x594b(%rip),%rsi        # 1ced2 <g_1798+0x2df2>
   17587:	48 89 cf             	mov    %rcx,%rdi
   1758a:	e8 64 01 ff ff       	callq  76f3 <transparent_crc>
   1758f:	8b 05 fb 04 01 00    	mov    0x104fb(%rip),%eax        # 27a90 <g_1260>
   17595:	48 98                	cltq   
   17597:	8b 55 fc             	mov    -0x4(%rbp),%edx
   1759a:	48 8d 35 3b 59 00 00 	lea    0x593b(%rip),%rsi        # 1cedc <g_1798+0x2dfc>
   175a1:	48 89 c7             	mov    %rax,%rdi
   175a4:	e8 4a 01 ff ff       	callq  76f3 <transparent_crc>
   175a9:	48 8b 05 e8 04 01 00 	mov    0x104e8(%rip),%rax        # 27a98 <g_1271>
   175b0:	8b 55 fc             	mov    -0x4(%rbp),%edx
   175b3:	48 8d 35 29 59 00 00 	lea    0x5929(%rip),%rsi        # 1cee3 <g_1798+0x2e03>
   175ba:	48 89 c7             	mov    %rax,%rdi
   175bd:	e8 31 01 ff ff       	callq  76f3 <transparent_crc>
   175c2:	b8 06 00 00 00       	mov    $0x6,%eax
   175c7:	48 98                	cltq   
   175c9:	8b 55 fc             	mov    -0x4(%rbp),%edx
   175cc:	48 8d 35 17 59 00 00 	lea    0x5917(%rip),%rsi        # 1ceea <g_1798+0x2e0a>
   175d3:	48 89 c7             	mov    %rax,%rdi
   175d6:	e8 18 01 ff ff       	callq  76f3 <transparent_crc>
   175db:	b8 f3 90 e4 e0       	mov    $0xe0e490f3,%eax
   175e0:	89 c1                	mov    %eax,%ecx
   175e2:	8b 45 fc             	mov    -0x4(%rbp),%eax
   175e5:	89 c2                	mov    %eax,%edx
   175e7:	48 8d 35 06 59 00 00 	lea    0x5906(%rip),%rsi        # 1cef4 <g_1798+0x2e14>
   175ee:	48 89 cf             	mov    %rcx,%rdi
   175f1:	e8 fd 00 ff ff       	callq  76f3 <transparent_crc>
   175f6:	8b 05 ac 2a 00 00    	mov    0x2aac(%rip),%eax        # 1a0a8 <g_1308+0x8>
   175fc:	48 98                	cltq   
   175fe:	8b 55 fc             	mov    -0x4(%rbp),%edx
   17601:	48 8d 35 f6 58 00 00 	lea    0x58f6(%rip),%rsi        # 1cefe <g_1798+0x2e1e>
   17608:	48 89 c7             	mov    %rax,%rdi
   1760b:	e8 e3 00 ff ff       	callq  76f3 <transparent_crc>
   17610:	8b 05 96 2a 00 00    	mov    0x2a96(%rip),%eax        # 1a0ac <g_1308+0xc>
   17616:	48 98                	cltq   
   17618:	8b 55 fc             	mov    -0x4(%rbp),%edx
   1761b:	48 8d 35 e6 58 00 00 	lea    0x58e6(%rip),%rsi        # 1cf08 <g_1798+0x2e28>
   17622:	48 89 c7             	mov    %rax,%rdi
   17625:	e8 c9 00 ff ff       	callq  76f3 <transparent_crc>
   1762a:	b8 6a 0e 00 00       	mov    $0xe6a,%eax
   1762f:	89 c1                	mov    %eax,%ecx
   17631:	8b 45 fc             	mov    -0x4(%rbp),%eax
   17634:	89 c2                	mov    %eax,%edx
   17636:	48 8d 35 d5 58 00 00 	lea    0x58d5(%rip),%rsi        # 1cf12 <g_1798+0x2e32>
   1763d:	48 89 cf             	mov    %rcx,%rdi
   17640:	e8 ae 00 ff ff       	callq  76f3 <transparent_crc>
   17645:	c7 45 f0 00 00 00 00 	movl   $0x0,-0x10(%rbp)
   1764c:	e9 32 01 00 00       	jmpq   17783 <main+0x2014>
   17651:	8b 45 f0             	mov    -0x10(%rbp),%eax
   17654:	48 63 d0             	movslq %eax,%rdx
   17657:	48 89 d0             	mov    %rdx,%rax
   1765a:	48 c1 e0 02          	shl    $0x2,%rax
   1765e:	48 01 d0             	add    %rdx,%rax
   17661:	48 c1 e0 02          	shl    $0x2,%rax
   17665:	48 89 c2             	mov    %rax,%rdx
   17668:	48 8d 05 f1 96 00 00 	lea    0x96f1(%rip),%rax        # 20d60 <g_1315>
   1766f:	8b 04 02             	mov    (%rdx,%rax,1),%eax
   17672:	48 98                	cltq   
   17674:	8b 55 fc             	mov    -0x4(%rbp),%edx
   17677:	48 8d 35 9e 58 00 00 	lea    0x589e(%rip),%rsi        # 1cf1c <g_1798+0x2e3c>
   1767e:	48 89 c7             	mov    %rax,%rdi
   17681:	e8 6d 00 ff ff       	callq  76f3 <transparent_crc>
   17686:	8b 45 f0             	mov    -0x10(%rbp),%eax
   17689:	48 63 d0             	movslq %eax,%rdx
   1768c:	48 89 d0             	mov    %rdx,%rax
   1768f:	48 c1 e0 02          	shl    $0x2,%rax
   17693:	48 01 d0             	add    %rdx,%rax
   17696:	48 c1 e0 02          	shl    $0x2,%rax
   1769a:	48 89 c2             	mov    %rax,%rdx
   1769d:	48 8d 05 c0 96 00 00 	lea    0x96c0(%rip),%rax        # 20d64 <g_1315+0x4>
   176a4:	8b 04 02             	mov    (%rdx,%rax,1),%eax
   176a7:	89 c1                	mov    %eax,%ecx
   176a9:	8b 45 fc             	mov    -0x4(%rbp),%eax
   176ac:	89 c2                	mov    %eax,%edx
   176ae:	48 8d 35 74 58 00 00 	lea    0x5874(%rip),%rsi        # 1cf29 <g_1798+0x2e49>
   176b5:	48 89 cf             	mov    %rcx,%rdi
   176b8:	e8 36 00 ff ff       	callq  76f3 <transparent_crc>
   176bd:	8b 45 f0             	mov    -0x10(%rbp),%eax
   176c0:	48 63 d0             	movslq %eax,%rdx
   176c3:	48 89 d0             	mov    %rdx,%rax
   176c6:	48 c1 e0 02          	shl    $0x2,%rax
   176ca:	48 01 d0             	add    %rdx,%rax
   176cd:	48 c1 e0 02          	shl    $0x2,%rax
   176d1:	48 89 c2             	mov    %rax,%rdx
   176d4:	48 8d 05 8d 96 00 00 	lea    0x968d(%rip),%rax        # 20d68 <g_1315+0x8>
   176db:	8b 04 02             	mov    (%rdx,%rax,1),%eax
   176de:	48 98                	cltq   
   176e0:	8b 55 fc             	mov    -0x4(%rbp),%edx
   176e3:	48 8d 35 4c 58 00 00 	lea    0x584c(%rip),%rsi        # 1cf36 <g_1798+0x2e56>
   176ea:	48 89 c7             	mov    %rax,%rdi
   176ed:	e8 01 00 ff ff       	callq  76f3 <transparent_crc>
   176f2:	8b 45 f0             	mov    -0x10(%rbp),%eax
   176f5:	48 63 d0             	movslq %eax,%rdx
   176f8:	48 89 d0             	mov    %rdx,%rax
   176fb:	48 c1 e0 02          	shl    $0x2,%rax
   176ff:	48 01 d0             	add    %rdx,%rax
   17702:	48 c1 e0 02          	shl    $0x2,%rax
   17706:	48 89 c2             	mov    %rax,%rdx
   17709:	48 8d 05 5c 96 00 00 	lea    0x965c(%rip),%rax        # 20d6c <g_1315+0xc>
   17710:	8b 04 02             	mov    (%rdx,%rax,1),%eax
   17713:	48 98                	cltq   
   17715:	8b 55 fc             	mov    -0x4(%rbp),%edx
   17718:	48 8d 35 24 58 00 00 	lea    0x5824(%rip),%rsi        # 1cf43 <g_1798+0x2e63>
   1771f:	48 89 c7             	mov    %rax,%rdi
   17722:	e8 cc ff fe ff       	callq  76f3 <transparent_crc>
   17727:	8b 45 f0             	mov    -0x10(%rbp),%eax
   1772a:	48 63 d0             	movslq %eax,%rdx
   1772d:	48 89 d0             	mov    %rdx,%rax
   17730:	48 c1 e0 02          	shl    $0x2,%rax
   17734:	48 01 d0             	add    %rdx,%rax
   17737:	48 c1 e0 02          	shl    $0x2,%rax
   1773b:	48 89 c2             	mov    %rax,%rdx
   1773e:	48 8d 05 2b 96 00 00 	lea    0x962b(%rip),%rax        # 20d70 <g_1315+0x10>
   17745:	8b 04 02             	mov    (%rdx,%rax,1),%eax
   17748:	25 ff ff ff 03       	and    $0x3ffffff,%eax
   1774d:	89 c1                	mov    %eax,%ecx
   1774f:	8b 45 fc             	mov    -0x4(%rbp),%eax
   17752:	89 c2                	mov    %eax,%edx
   17754:	48 8d 35 f5 57 00 00 	lea    0x57f5(%rip),%rsi        # 1cf50 <g_1798+0x2e70>
   1775b:	48 89 cf             	mov    %rcx,%rdi
   1775e:	e8 90 ff fe ff       	callq  76f3 <transparent_crc>
   17763:	83 7d fc 00          	cmpl   $0x0,-0x4(%rbp)
   17767:	74 16                	je     1777f <main+0x2010>
   17769:	8b 45 f0             	mov    -0x10(%rbp),%eax
   1776c:	89 c6                	mov    %eax,%esi
   1776e:	48 8d 3d 14 50 00 00 	lea    0x5014(%rip),%rdi        # 1c789 <g_1798+0x26a9>
   17775:	b8 00 00 00 00       	mov    $0x0,%eax
   1777a:	e8 01 e9 fe ff       	callq  6080 <printf@plt>
   1777f:	83 45 f0 01          	addl   $0x1,-0x10(%rbp)
   17783:	83 7d f0 09          	cmpl   $0x9,-0x10(%rbp)
   17787:	0f 8e c4 fe ff ff    	jle    17651 <main+0x1ee2>
   1778d:	48 8b 05 ac 96 00 00 	mov    0x96ac(%rip),%rax        # 20e40 <g_1320>
   17794:	8b 55 fc             	mov    -0x4(%rbp),%edx
   17797:	48 8d 35 bf 57 00 00 	lea    0x57bf(%rip),%rsi        # 1cf5d <g_1798+0x2e7d>
   1779e:	48 89 c7             	mov    %rax,%rdi
   177a1:	e8 4d ff fe ff       	callq  76f3 <transparent_crc>
   177a6:	8b 05 9c 96 00 00    	mov    0x969c(%rip),%eax        # 20e48 <g_1320+0x8>
   177ac:	48 98                	cltq   
   177ae:	8b 55 fc             	mov    -0x4(%rbp),%edx
   177b1:	48 8d 35 b2 57 00 00 	lea    0x57b2(%rip),%rsi        # 1cf6a <g_1798+0x2e8a>
   177b8:	48 89 c7             	mov    %rax,%rdi
   177bb:	e8 33 ff fe ff       	callq  76f3 <transparent_crc>
   177c0:	0f b6 05 85 96 00 00 	movzbl 0x9685(%rip),%eax        # 20e4c <g_1320+0xc>
   177c7:	0f b6 c0             	movzbl %al,%eax
   177ca:	8b 55 fc             	mov    -0x4(%rbp),%edx
   177cd:	48 8d 35 a0 57 00 00 	lea    0x57a0(%rip),%rsi        # 1cf74 <g_1798+0x2e94>
   177d4:	48 89 c7             	mov    %rax,%rdi
   177d7:	e8 17 ff fe ff       	callq  76f3 <transparent_crc>
   177dc:	0f b7 05 6a 96 00 00 	movzwl 0x966a(%rip),%eax        # 20e4d <g_1320+0xd>
   177e3:	48 0f bf c0          	movswq %ax,%rax
   177e7:	8b 55 fc             	mov    -0x4(%rbp),%edx
   177ea:	48 8d 35 8d 57 00 00 	lea    0x578d(%rip),%rsi        # 1cf7e <g_1798+0x2e9e>
   177f1:	48 89 c7             	mov    %rax,%rdi
   177f4:	e8 fa fe fe ff       	callq  76f3 <transparent_crc>
   177f9:	48 8b 05 4f 96 00 00 	mov    0x964f(%rip),%rax        # 20e4f <g_1320+0xf>
   17800:	8b 55 fc             	mov    -0x4(%rbp),%edx
   17803:	48 8d 35 7e 57 00 00 	lea    0x577e(%rip),%rsi        # 1cf88 <g_1798+0x2ea8>
   1780a:	48 89 c7             	mov    %rax,%rdi
   1780d:	e8 e1 fe fe ff       	callq  76f3 <transparent_crc>
   17812:	8b 05 3f 96 00 00    	mov    0x963f(%rip),%eax        # 20e57 <g_1320+0x17>
   17818:	48 98                	cltq   
   1781a:	8b 55 fc             	mov    -0x4(%rbp),%edx
   1781d:	48 8d 35 6e 57 00 00 	lea    0x576e(%rip),%rsi        # 1cf92 <g_1798+0x2eb2>
   17824:	48 89 c7             	mov    %rax,%rdi
   17827:	e8 c7 fe fe ff       	callq  76f3 <transparent_crc>
   1782c:	0f b7 05 28 96 00 00 	movzwl 0x9628(%rip),%eax        # 20e5b <g_1320+0x1b>
   17833:	0f b7 c0             	movzwl %ax,%eax
   17836:	8b 55 fc             	mov    -0x4(%rbp),%edx
   17839:	48 8d 35 5c 57 00 00 	lea    0x575c(%rip),%rsi        # 1cf9c <g_1798+0x2ebc>
   17840:	48 89 c7             	mov    %rax,%rdi
   17843:	e8 ab fe fe ff       	callq  76f3 <transparent_crc>
   17848:	48 8b 05 0e 96 00 00 	mov    0x960e(%rip),%rax        # 20e5d <g_1320+0x1d>
   1784f:	8b 55 fc             	mov    -0x4(%rbp),%edx
   17852:	48 8d 35 4d 57 00 00 	lea    0x574d(%rip),%rsi        # 1cfa6 <g_1798+0x2ec6>
   17859:	48 89 c7             	mov    %rax,%rdi
   1785c:	e8 92 fe fe ff       	callq  76f3 <transparent_crc>
   17861:	48 8b 05 18 96 00 00 	mov    0x9618(%rip),%rax        # 20e80 <g_1361>
   17868:	8b 55 fc             	mov    -0x4(%rbp),%edx
   1786b:	48 8d 35 41 57 00 00 	lea    0x5741(%rip),%rsi        # 1cfb3 <g_1798+0x2ed3>
   17872:	48 89 c7             	mov    %rax,%rdi
   17875:	e8 79 fe fe ff       	callq  76f3 <transparent_crc>
   1787a:	8b 05 08 96 00 00    	mov    0x9608(%rip),%eax        # 20e88 <g_1361+0x8>
   17880:	48 98                	cltq   
   17882:	8b 55 fc             	mov    -0x4(%rbp),%edx
   17885:	48 8d 35 34 57 00 00 	lea    0x5734(%rip),%rsi        # 1cfc0 <g_1798+0x2ee0>
   1788c:	48 89 c7             	mov    %rax,%rdi
   1788f:	e8 5f fe fe ff       	callq  76f3 <transparent_crc>
   17894:	0f b6 05 f1 95 00 00 	movzbl 0x95f1(%rip),%eax        # 20e8c <g_1361+0xc>
   1789b:	0f b6 c0             	movzbl %al,%eax
   1789e:	8b 55 fc             	mov    -0x4(%rbp),%edx
   178a1:	48 8d 35 22 57 00 00 	lea    0x5722(%rip),%rsi        # 1cfca <g_1798+0x2eea>
   178a8:	48 89 c7             	mov    %rax,%rdi
   178ab:	e8 43 fe fe ff       	callq  76f3 <transparent_crc>
   178b0:	0f b7 05 d6 95 00 00 	movzwl 0x95d6(%rip),%eax        # 20e8d <g_1361+0xd>
   178b7:	48 0f bf c0          	movswq %ax,%rax
   178bb:	8b 55 fc             	mov    -0x4(%rbp),%edx
   178be:	48 8d 35 0f 57 00 00 	lea    0x570f(%rip),%rsi        # 1cfd4 <g_1798+0x2ef4>
   178c5:	48 89 c7             	mov    %rax,%rdi
   178c8:	e8 26 fe fe ff       	callq  76f3 <transparent_crc>
   178cd:	48 8b 05 bb 95 00 00 	mov    0x95bb(%rip),%rax        # 20e8f <g_1361+0xf>
   178d4:	8b 55 fc             	mov    -0x4(%rbp),%edx
   178d7:	48 8d 35 00 57 00 00 	lea    0x5700(%rip),%rsi        # 1cfde <g_1798+0x2efe>
   178de:	48 89 c7             	mov    %rax,%rdi
   178e1:	e8 0d fe fe ff       	callq  76f3 <transparent_crc>
   178e6:	8b 05 ab 95 00 00    	mov    0x95ab(%rip),%eax        # 20e97 <g_1361+0x17>
   178ec:	48 98                	cltq   
   178ee:	8b 55 fc             	mov    -0x4(%rbp),%edx
   178f1:	48 8d 35 f0 56 00 00 	lea    0x56f0(%rip),%rsi        # 1cfe8 <g_1798+0x2f08>
   178f8:	48 89 c7             	mov    %rax,%rdi
   178fb:	e8 f3 fd fe ff       	callq  76f3 <transparent_crc>
   17900:	0f b7 05 94 95 00 00 	movzwl 0x9594(%rip),%eax        # 20e9b <g_1361+0x1b>
   17907:	0f b7 c0             	movzwl %ax,%eax
   1790a:	8b 55 fc             	mov    -0x4(%rbp),%edx
   1790d:	48 8d 35 de 56 00 00 	lea    0x56de(%rip),%rsi        # 1cff2 <g_1798+0x2f12>
   17914:	48 89 c7             	mov    %rax,%rdi
   17917:	e8 d7 fd fe ff       	callq  76f3 <transparent_crc>
   1791c:	48 8b 05 7a 95 00 00 	mov    0x957a(%rip),%rax        # 20e9d <g_1361+0x1d>
   17923:	8b 55 fc             	mov    -0x4(%rbp),%edx
   17926:	48 8d 35 cf 56 00 00 	lea    0x56cf(%rip),%rsi        # 1cffc <g_1798+0x2f1c>
   1792d:	48 89 c7             	mov    %rax,%rdi
   17930:	e8 be fd fe ff       	callq  76f3 <transparent_crc>
   17935:	8b 05 75 95 00 00    	mov    0x9575(%rip),%eax        # 20eb0 <g_1425>
   1793b:	48 98                	cltq   
   1793d:	8b 55 fc             	mov    -0x4(%rbp),%edx
   17940:	48 8d 35 c2 56 00 00 	lea    0x56c2(%rip),%rsi        # 1d009 <g_1798+0x2f29>
   17947:	48 89 c7             	mov    %rax,%rdi
   1794a:	e8 a4 fd fe ff       	callq  76f3 <transparent_crc>
   1794f:	8b 05 5f 95 00 00    	mov    0x955f(%rip),%eax        # 20eb4 <g_1425+0x4>
   17955:	89 c1                	mov    %eax,%ecx
   17957:	8b 45 fc             	mov    -0x4(%rbp),%eax
   1795a:	89 c2                	mov    %eax,%edx
   1795c:	48 8d 35 b0 56 00 00 	lea    0x56b0(%rip),%rsi        # 1d013 <g_1798+0x2f33>
   17963:	48 89 cf             	mov    %rcx,%rdi
   17966:	e8 88 fd fe ff       	callq  76f3 <transparent_crc>
   1796b:	8b 05 47 95 00 00    	mov    0x9547(%rip),%eax        # 20eb8 <g_1425+0x8>
   17971:	48 98                	cltq   
   17973:	8b 55 fc             	mov    -0x4(%rbp),%edx
   17976:	48 8d 35 a0 56 00 00 	lea    0x56a0(%rip),%rsi        # 1d01d <g_1798+0x2f3d>
   1797d:	48 89 c7             	mov    %rax,%rdi
   17980:	e8 6e fd fe ff       	callq  76f3 <transparent_crc>
   17985:	8b 05 31 95 00 00    	mov    0x9531(%rip),%eax        # 20ebc <g_1425+0xc>
   1798b:	48 98                	cltq   
   1798d:	8b 55 fc             	mov    -0x4(%rbp),%edx
   17990:	48 8d 35 90 56 00 00 	lea    0x5690(%rip),%rsi        # 1d027 <g_1798+0x2f47>
   17997:	48 89 c7             	mov    %rax,%rdi
   1799a:	e8 54 fd fe ff       	callq  76f3 <transparent_crc>
   1799f:	8b 05 1b 95 00 00    	mov    0x951b(%rip),%eax        # 20ec0 <g_1425+0x10>
   179a5:	25 ff ff ff 03       	and    $0x3ffffff,%eax
   179aa:	89 c1                	mov    %eax,%ecx
   179ac:	8b 45 fc             	mov    -0x4(%rbp),%eax
   179af:	89 c2                	mov    %eax,%edx
   179b1:	48 8d 35 79 56 00 00 	lea    0x5679(%rip),%rsi        # 1d031 <g_1798+0x2f51>
   179b8:	48 89 cf             	mov    %rcx,%rdi
   179bb:	e8 33 fd fe ff       	callq  76f3 <transparent_crc>
   179c0:	8b 05 1a 95 00 00    	mov    0x951a(%rip),%eax        # 20ee0 <g_1427>
   179c6:	48 98                	cltq   
   179c8:	8b 55 fc             	mov    -0x4(%rbp),%edx
   179cb:	48 8d 35 69 56 00 00 	lea    0x5669(%rip),%rsi        # 1d03b <g_1798+0x2f5b>
   179d2:	48 89 c7             	mov    %rax,%rdi
   179d5:	e8 19 fd fe ff       	callq  76f3 <transparent_crc>
   179da:	48 8b 05 ff 94 00 00 	mov    0x94ff(%rip),%rax        # 20ee0 <g_1427>
   179e1:	c1 e0 03             	shl    $0x3,%eax
   179e4:	66 c1 f8 03          	sar    $0x3,%ax
   179e8:	48 0f bf c0          	movswq %ax,%rax
   179ec:	8b 55 fc             	mov    -0x4(%rbp),%edx
   179ef:	48 8d 35 4f 56 00 00 	lea    0x564f(%rip),%rsi        # 1d045 <g_1798+0x2f65>
   179f6:	48 89 c7             	mov    %rax,%rdi
   179f9:	e8 f5 fc fe ff       	callq  76f3 <transparent_crc>
   179fe:	8b 05 0c 95 00 00    	mov    0x950c(%rip),%eax        # 20f10 <g_1430>
   17a04:	48 98                	cltq   
   17a06:	8b 55 fc             	mov    -0x4(%rbp),%edx
   17a09:	48 8d 35 3f 56 00 00 	lea    0x563f(%rip),%rsi        # 1d04f <g_1798+0x2f6f>
   17a10:	48 89 c7             	mov    %rax,%rdi
   17a13:	e8 db fc fe ff       	callq  76f3 <transparent_crc>
   17a18:	8b 05 f6 94 00 00    	mov    0x94f6(%rip),%eax        # 20f14 <g_1430+0x4>
   17a1e:	89 c1                	mov    %eax,%ecx
   17a20:	8b 45 fc             	mov    -0x4(%rbp),%eax
   17a23:	89 c2                	mov    %eax,%edx
   17a25:	48 8d 35 2d 56 00 00 	lea    0x562d(%rip),%rsi        # 1d059 <g_1798+0x2f79>
   17a2c:	48 89 cf             	mov    %rcx,%rdi
   17a2f:	e8 bf fc fe ff       	callq  76f3 <transparent_crc>
   17a34:	8b 05 de 94 00 00    	mov    0x94de(%rip),%eax        # 20f18 <g_1430+0x8>
   17a3a:	48 98                	cltq   
   17a3c:	8b 55 fc             	mov    -0x4(%rbp),%edx
   17a3f:	48 8d 35 1d 56 00 00 	lea    0x561d(%rip),%rsi        # 1d063 <g_1798+0x2f83>
   17a46:	48 89 c7             	mov    %rax,%rdi
   17a49:	e8 a5 fc fe ff       	callq  76f3 <transparent_crc>
   17a4e:	8b 05 c8 94 00 00    	mov    0x94c8(%rip),%eax        # 20f1c <g_1430+0xc>
   17a54:	48 98                	cltq   
   17a56:	8b 55 fc             	mov    -0x4(%rbp),%edx
   17a59:	48 8d 35 0d 56 00 00 	lea    0x560d(%rip),%rsi        # 1d06d <g_1798+0x2f8d>
   17a60:	48 89 c7             	mov    %rax,%rdi
   17a63:	e8 8b fc fe ff       	callq  76f3 <transparent_crc>
   17a68:	48 8b 05 b1 94 00 00 	mov    0x94b1(%rip),%rax        # 20f20 <g_1430+0x10>
   17a6f:	25 ff ff ff 03       	and    $0x3ffffff,%eax
   17a74:	89 c1                	mov    %eax,%ecx
   17a76:	8b 45 fc             	mov    -0x4(%rbp),%eax
   17a79:	89 c2                	mov    %eax,%edx
   17a7b:	48 8d 35 f5 55 00 00 	lea    0x55f5(%rip),%rsi        # 1d077 <g_1798+0x2f97>
   17a82:	48 89 cf             	mov    %rcx,%rdi
   17a85:	e8 69 fc fe ff       	callq  76f3 <transparent_crc>
   17a8a:	c7 45 f0 00 00 00 00 	movl   $0x0,-0x10(%rbp)
   17a91:	e9 32 01 00 00       	jmpq   17bc8 <main+0x2459>
   17a96:	8b 45 f0             	mov    -0x10(%rbp),%eax
   17a99:	48 63 d0             	movslq %eax,%rdx
   17a9c:	48 89 d0             	mov    %rdx,%rax
   17a9f:	48 c1 e0 02          	shl    $0x2,%rax
   17aa3:	48 01 d0             	add    %rdx,%rax
   17aa6:	48 c1 e0 02          	shl    $0x2,%rax
   17aaa:	48 89 c2             	mov    %rax,%rdx
   17aad:	48 8d 05 8c 94 00 00 	lea    0x948c(%rip),%rax        # 20f40 <g_1437>
   17ab4:	8b 04 02             	mov    (%rdx,%rax,1),%eax
   17ab7:	48 98                	cltq   
   17ab9:	8b 55 fc             	mov    -0x4(%rbp),%edx
   17abc:	48 8d 35 be 55 00 00 	lea    0x55be(%rip),%rsi        # 1d081 <g_1798+0x2fa1>
   17ac3:	48 89 c7             	mov    %rax,%rdi
   17ac6:	e8 28 fc fe ff       	callq  76f3 <transparent_crc>
   17acb:	8b 45 f0             	mov    -0x10(%rbp),%eax
   17ace:	48 63 d0             	movslq %eax,%rdx
   17ad1:	48 89 d0             	mov    %rdx,%rax
   17ad4:	48 c1 e0 02          	shl    $0x2,%rax
   17ad8:	48 01 d0             	add    %rdx,%rax
   17adb:	48 c1 e0 02          	shl    $0x2,%rax
   17adf:	48 89 c2             	mov    %rax,%rdx
   17ae2:	48 8d 05 5b 94 00 00 	lea    0x945b(%rip),%rax        # 20f44 <g_1437+0x4>
   17ae9:	8b 04 02             	mov    (%rdx,%rax,1),%eax
   17aec:	89 c1                	mov    %eax,%ecx
   17aee:	8b 45 fc             	mov    -0x4(%rbp),%eax
   17af1:	89 c2                	mov    %eax,%edx
   17af3:	48 8d 35 94 55 00 00 	lea    0x5594(%rip),%rsi        # 1d08e <g_1798+0x2fae>
   17afa:	48 89 cf             	mov    %rcx,%rdi
   17afd:	e8 f1 fb fe ff       	callq  76f3 <transparent_crc>
   17b02:	8b 45 f0             	mov    -0x10(%rbp),%eax
   17b05:	48 63 d0             	movslq %eax,%rdx
   17b08:	48 89 d0             	mov    %rdx,%rax
   17b0b:	48 c1 e0 02          	shl    $0x2,%rax
   17b0f:	48 01 d0             	add    %rdx,%rax
   17b12:	48 c1 e0 02          	shl    $0x2,%rax
   17b16:	48 89 c2             	mov    %rax,%rdx
   17b19:	48 8d 05 28 94 00 00 	lea    0x9428(%rip),%rax        # 20f48 <g_1437+0x8>
   17b20:	8b 04 02             	mov    (%rdx,%rax,1),%eax
   17b23:	48 98                	cltq   
   17b25:	8b 55 fc             	mov    -0x4(%rbp),%edx
   17b28:	48 8d 35 6c 55 00 00 	lea    0x556c(%rip),%rsi        # 1d09b <g_1798+0x2fbb>
   17b2f:	48 89 c7             	mov    %rax,%rdi
   17b32:	e8 bc fb fe ff       	callq  76f3 <transparent_crc>
   17b37:	8b 45 f0             	mov    -0x10(%rbp),%eax
   17b3a:	48 63 d0             	movslq %eax,%rdx
   17b3d:	48 89 d0             	mov    %rdx,%rax
   17b40:	48 c1 e0 02          	shl    $0x2,%rax
   17b44:	48 01 d0             	add    %rdx,%rax
   17b47:	48 c1 e0 02          	shl    $0x2,%rax
   17b4b:	48 89 c2             	mov    %rax,%rdx
   17b4e:	48 8d 05 f7 93 00 00 	lea    0x93f7(%rip),%rax        # 20f4c <g_1437+0xc>
   17b55:	8b 04 02             	mov    (%rdx,%rax,1),%eax
   17b58:	48 98                	cltq   
   17b5a:	8b 55 fc             	mov    -0x4(%rbp),%edx
   17b5d:	48 8d 35 44 55 00 00 	lea    0x5544(%rip),%rsi        # 1d0a8 <g_1798+0x2fc8>
   17b64:	48 89 c7             	mov    %rax,%rdi
   17b67:	e8 87 fb fe ff       	callq  76f3 <transparent_crc>
   17b6c:	8b 45 f0             	mov    -0x10(%rbp),%eax
   17b6f:	48 63 d0             	movslq %eax,%rdx
   17b72:	48 89 d0             	mov    %rdx,%rax
   17b75:	48 c1 e0 02          	shl    $0x2,%rax
   17b79:	48 01 d0             	add    %rdx,%rax
   17b7c:	48 c1 e0 02          	shl    $0x2,%rax
   17b80:	48 89 c2             	mov    %rax,%rdx
   17b83:	48 8d 05 c6 93 00 00 	lea    0x93c6(%rip),%rax        # 20f50 <g_1437+0x10>
   17b8a:	8b 04 02             	mov    (%rdx,%rax,1),%eax
   17b8d:	25 ff ff ff 03       	and    $0x3ffffff,%eax
   17b92:	89 c1                	mov    %eax,%ecx
   17b94:	8b 45 fc             	mov    -0x4(%rbp),%eax
   17b97:	89 c2                	mov    %eax,%edx
   17b99:	48 8d 35 15 55 00 00 	lea    0x5515(%rip),%rsi        # 1d0b5 <g_1798+0x2fd5>
   17ba0:	48 89 cf             	mov    %rcx,%rdi
   17ba3:	e8 4b fb fe ff       	callq  76f3 <transparent_crc>
   17ba8:	83 7d fc 00          	cmpl   $0x0,-0x4(%rbp)
   17bac:	74 16                	je     17bc4 <main+0x2455>
   17bae:	8b 45 f0             	mov    -0x10(%rbp),%eax
   17bb1:	89 c6                	mov    %eax,%esi
   17bb3:	48 8d 3d cf 4b 00 00 	lea    0x4bcf(%rip),%rdi        # 1c789 <g_1798+0x26a9>
   17bba:	b8 00 00 00 00       	mov    $0x0,%eax
   17bbf:	e8 bc e4 fe ff       	callq  6080 <printf@plt>
   17bc4:	83 45 f0 01          	addl   $0x1,-0x10(%rbp)
   17bc8:	83 7d f0 09          	cmpl   $0x9,-0x10(%rbp)
   17bcc:	0f 8e c4 fe ff ff    	jle    17a96 <main+0x2327>
   17bd2:	8b 05 38 94 00 00    	mov    0x9438(%rip),%eax        # 21010 <g_1438>
   17bd8:	48 98                	cltq   
   17bda:	8b 55 fc             	mov    -0x4(%rbp),%edx
   17bdd:	48 8d 35 de 54 00 00 	lea    0x54de(%rip),%rsi        # 1d0c2 <g_1798+0x2fe2>
   17be4:	48 89 c7             	mov    %rax,%rdi
   17be7:	e8 07 fb fe ff       	callq  76f3 <transparent_crc>
   17bec:	8b 05 22 94 00 00    	mov    0x9422(%rip),%eax        # 21014 <g_1438+0x4>
   17bf2:	89 c1                	mov    %eax,%ecx
   17bf4:	8b 45 fc             	mov    -0x4(%rbp),%eax
   17bf7:	89 c2                	mov    %eax,%edx
   17bf9:	48 8d 35 cc 54 00 00 	lea    0x54cc(%rip),%rsi        # 1d0cc <g_1798+0x2fec>
   17c00:	48 89 cf             	mov    %rcx,%rdi
   17c03:	e8 eb fa fe ff       	callq  76f3 <transparent_crc>
   17c08:	8b 05 0a 94 00 00    	mov    0x940a(%rip),%eax        # 21018 <g_1438+0x8>
   17c0e:	48 98                	cltq   
   17c10:	8b 55 fc             	mov    -0x4(%rbp),%edx
   17c13:	48 8d 35 bc 54 00 00 	lea    0x54bc(%rip),%rsi        # 1d0d6 <g_1798+0x2ff6>
   17c1a:	48 89 c7             	mov    %rax,%rdi
   17c1d:	e8 d1 fa fe ff       	callq  76f3 <transparent_crc>
   17c22:	8b 05 f4 93 00 00    	mov    0x93f4(%rip),%eax        # 2101c <g_1438+0xc>
   17c28:	48 98                	cltq   
   17c2a:	8b 55 fc             	mov    -0x4(%rbp),%edx
   17c2d:	48 8d 35 ac 54 00 00 	lea    0x54ac(%rip),%rsi        # 1d0e0 <g_1798+0x3000>
   17c34:	48 89 c7             	mov    %rax,%rdi
   17c37:	e8 b7 fa fe ff       	callq  76f3 <transparent_crc>
   17c3c:	8b 05 de 93 00 00    	mov    0x93de(%rip),%eax        # 21020 <g_1438+0x10>
   17c42:	25 ff ff ff 03       	and    $0x3ffffff,%eax
   17c47:	89 c1                	mov    %eax,%ecx
   17c49:	8b 45 fc             	mov    -0x4(%rbp),%eax
   17c4c:	89 c2                	mov    %eax,%edx
   17c4e:	48 8d 35 95 54 00 00 	lea    0x5495(%rip),%rsi        # 1d0ea <g_1798+0x300a>
   17c55:	48 89 cf             	mov    %rcx,%rdi
   17c58:	e8 96 fa fe ff       	callq  76f3 <transparent_crc>
   17c5d:	48 8b 05 3c fe 00 00 	mov    0xfe3c(%rip),%rax        # 27aa0 <g_1445>
   17c64:	8b 55 fc             	mov    -0x4(%rbp),%edx
   17c67:	48 8d 35 86 54 00 00 	lea    0x5486(%rip),%rsi        # 1d0f4 <g_1798+0x3014>
   17c6e:	48 89 c7             	mov    %rax,%rdi
   17c71:	e8 7d fa fe ff       	callq  76f3 <transparent_crc>
   17c76:	48 8b 05 ab 93 00 00 	mov    0x93ab(%rip),%rax        # 21028 <g_1452>
   17c7d:	8b 55 fc             	mov    -0x4(%rbp),%edx
   17c80:	48 8d 35 77 54 00 00 	lea    0x5477(%rip),%rsi        # 1d0fe <g_1798+0x301e>
   17c87:	48 89 c7             	mov    %rax,%rdi
   17c8a:	e8 64 fa fe ff       	callq  76f3 <transparent_crc>
   17c8f:	8b 05 9b 93 00 00    	mov    0x939b(%rip),%eax        # 21030 <g_1462>
   17c95:	48 98                	cltq   
   17c97:	8b 55 fc             	mov    -0x4(%rbp),%edx
   17c9a:	48 8d 35 67 54 00 00 	lea    0x5467(%rip),%rsi        # 1d108 <g_1798+0x3028>
   17ca1:	48 89 c7             	mov    %rax,%rdi
   17ca4:	e8 4a fa fe ff       	callq  76f3 <transparent_crc>
   17ca9:	0f b6 05 84 93 00 00 	movzbl 0x9384(%rip),%eax        # 21034 <g_1471>
   17cb0:	0f b6 c0             	movzbl %al,%eax
   17cb3:	8b 55 fc             	mov    -0x4(%rbp),%edx
   17cb6:	48 8d 35 52 54 00 00 	lea    0x5452(%rip),%rsi        # 1d10f <g_1798+0x302f>
   17cbd:	48 89 c7             	mov    %rax,%rdi
   17cc0:	e8 2e fa fe ff       	callq  76f3 <transparent_crc>
   17cc5:	48 8b 05 6c 93 00 00 	mov    0x936c(%rip),%rax        # 21038 <g_1481>
   17ccc:	8b 55 fc             	mov    -0x4(%rbp),%edx
   17ccf:	48 8d 35 40 54 00 00 	lea    0x5440(%rip),%rsi        # 1d116 <g_1798+0x3036>
   17cd6:	48 89 c7             	mov    %rax,%rdi
   17cd9:	e8 15 fa fe ff       	callq  76f3 <transparent_crc>
   17cde:	c7 45 f0 00 00 00 00 	movl   $0x0,-0x10(%rbp)
   17ce5:	e9 9a 01 00 00       	jmpq   17e84 <main+0x2715>
   17cea:	c7 45 f4 00 00 00 00 	movl   $0x0,-0xc(%rbp)
   17cf1:	e9 80 01 00 00       	jmpq   17e76 <main+0x2707>
   17cf6:	8b 45 f4             	mov    -0xc(%rbp),%eax
   17cf9:	48 63 d0             	movslq %eax,%rdx
   17cfc:	8b 45 f0             	mov    -0x10(%rbp),%eax
   17cff:	48 63 c8             	movslq %eax,%rcx
   17d02:	48 89 d0             	mov    %rdx,%rax
   17d05:	48 c1 e0 02          	shl    $0x2,%rax
   17d09:	48 01 d0             	add    %rdx,%rax
   17d0c:	48 c1 e0 02          	shl    $0x2,%rax
   17d10:	48 69 d1 b4 00 00 00 	imul   $0xb4,%rcx,%rdx
   17d17:	48 01 c2             	add    %rax,%rdx
   17d1a:	48 8d 05 1f 93 00 00 	lea    0x931f(%rip),%rax        # 21040 <g_1511>
   17d21:	48 01 d0             	add    %rdx,%rax
   17d24:	8b 00                	mov    (%rax),%eax
   17d26:	48 98                	cltq   
   17d28:	8b 55 fc             	mov    -0x4(%rbp),%edx
   17d2b:	48 8d 35 ee 53 00 00 	lea    0x53ee(%rip),%rsi        # 1d120 <g_1798+0x3040>
   17d32:	48 89 c7             	mov    %rax,%rdi
   17d35:	e8 b9 f9 fe ff       	callq  76f3 <transparent_crc>
   17d3a:	8b 45 f4             	mov    -0xc(%rbp),%eax
   17d3d:	48 63 d0             	movslq %eax,%rdx
   17d40:	8b 45 f0             	mov    -0x10(%rbp),%eax
   17d43:	48 63 c8             	movslq %eax,%rcx
   17d46:	48 89 d0             	mov    %rdx,%rax
   17d49:	48 c1 e0 02          	shl    $0x2,%rax
   17d4d:	48 01 d0             	add    %rdx,%rax
   17d50:	48 c1 e0 02          	shl    $0x2,%rax
   17d54:	48 69 d1 b4 00 00 00 	imul   $0xb4,%rcx,%rdx
   17d5b:	48 01 c2             	add    %rax,%rdx
   17d5e:	48 8d 05 df 92 00 00 	lea    0x92df(%rip),%rax        # 21044 <g_1511+0x4>
   17d65:	48 01 d0             	add    %rdx,%rax
   17d68:	8b 00                	mov    (%rax),%eax
   17d6a:	89 c1                	mov    %eax,%ecx
   17d6c:	8b 45 fc             	mov    -0x4(%rbp),%eax
   17d6f:	89 c2                	mov    %eax,%edx
   17d71:	48 8d 35 b8 53 00 00 	lea    0x53b8(%rip),%rsi        # 1d130 <g_1798+0x3050>
   17d78:	48 89 cf             	mov    %rcx,%rdi
   17d7b:	e8 73 f9 fe ff       	callq  76f3 <transparent_crc>
   17d80:	8b 45 f4             	mov    -0xc(%rbp),%eax
   17d83:	48 63 d0             	movslq %eax,%rdx
   17d86:	8b 45 f0             	mov    -0x10(%rbp),%eax
   17d89:	48 63 c8             	movslq %eax,%rcx
   17d8c:	48 89 d0             	mov    %rdx,%rax
   17d8f:	48 c1 e0 02          	shl    $0x2,%rax
   17d93:	48 01 d0             	add    %rdx,%rax
   17d96:	48 c1 e0 02          	shl    $0x2,%rax
   17d9a:	48 69 d1 b4 00 00 00 	imul   $0xb4,%rcx,%rdx
   17da1:	48 01 c2             	add    %rax,%rdx
   17da4:	48 8d 05 9d 92 00 00 	lea    0x929d(%rip),%rax        # 21048 <g_1511+0x8>
   17dab:	48 01 d0             	add    %rdx,%rax
   17dae:	8b 00                	mov    (%rax),%eax
   17db0:	48 98                	cltq   
   17db2:	8b 55 fc             	mov    -0x4(%rbp),%edx
   17db5:	48 8d 35 84 53 00 00 	lea    0x5384(%rip),%rsi        # 1d140 <g_1798+0x3060>
   17dbc:	48 89 c7             	mov    %rax,%rdi
   17dbf:	e8 2f f9 fe ff       	callq  76f3 <transparent_crc>
   17dc4:	8b 45 f4             	mov    -0xc(%rbp),%eax
   17dc7:	48 63 d0             	movslq %eax,%rdx
   17dca:	8b 45 f0             	mov    -0x10(%rbp),%eax
   17dcd:	48 63 c8             	movslq %eax,%rcx
   17dd0:	48 89 d0             	mov    %rdx,%rax
   17dd3:	48 c1 e0 02          	shl    $0x2,%rax
   17dd7:	48 01 d0             	add    %rdx,%rax
   17dda:	48 c1 e0 02          	shl    $0x2,%rax
   17dde:	48 69 d1 b4 00 00 00 	imul   $0xb4,%rcx,%rdx
   17de5:	48 01 c2             	add    %rax,%rdx
   17de8:	48 8d 05 5d 92 00 00 	lea    0x925d(%rip),%rax        # 2104c <g_1511+0xc>
   17def:	48 01 d0             	add    %rdx,%rax
   17df2:	8b 00                	mov    (%rax),%eax
   17df4:	48 98                	cltq   
   17df6:	8b 55 fc             	mov    -0x4(%rbp),%edx
   17df9:	48 8d 35 50 53 00 00 	lea    0x5350(%rip),%rsi        # 1d150 <g_1798+0x3070>
   17e00:	48 89 c7             	mov    %rax,%rdi
   17e03:	e8 eb f8 fe ff       	callq  76f3 <transparent_crc>
   17e08:	8b 45 f4             	mov    -0xc(%rbp),%eax
   17e0b:	48 63 d0             	movslq %eax,%rdx
   17e0e:	8b 45 f0             	mov    -0x10(%rbp),%eax
   17e11:	48 63 c8             	movslq %eax,%rcx
   17e14:	48 89 d0             	mov    %rdx,%rax
   17e17:	48 c1 e0 02          	shl    $0x2,%rax
   17e1b:	48 01 d0             	add    %rdx,%rax
   17e1e:	48 c1 e0 02          	shl    $0x2,%rax
   17e22:	48 69 d1 b4 00 00 00 	imul   $0xb4,%rcx,%rdx
   17e29:	48 01 c2             	add    %rax,%rdx
   17e2c:	48 8d 05 1d 92 00 00 	lea    0x921d(%rip),%rax        # 21050 <g_1511+0x10>
   17e33:	48 01 d0             	add    %rdx,%rax
   17e36:	8b 00                	mov    (%rax),%eax
   17e38:	25 ff ff ff 03       	and    $0x3ffffff,%eax
   17e3d:	89 c1                	mov    %eax,%ecx
   17e3f:	8b 45 fc             	mov    -0x4(%rbp),%eax
   17e42:	89 c2                	mov    %eax,%edx
   17e44:	48 8d 35 15 53 00 00 	lea    0x5315(%rip),%rsi        # 1d160 <g_1798+0x3080>
   17e4b:	48 89 cf             	mov    %rcx,%rdi
   17e4e:	e8 a0 f8 fe ff       	callq  76f3 <transparent_crc>
   17e53:	83 7d fc 00          	cmpl   $0x0,-0x4(%rbp)
   17e57:	74 19                	je     17e72 <main+0x2703>
   17e59:	8b 55 f4             	mov    -0xc(%rbp),%edx
   17e5c:	8b 45 f0             	mov    -0x10(%rbp),%eax
   17e5f:	89 c6                	mov    %eax,%esi
   17e61:	48 8d 3d 57 49 00 00 	lea    0x4957(%rip),%rdi        # 1c7bf <g_1798+0x26df>
   17e68:	b8 00 00 00 00       	mov    $0x0,%eax
   17e6d:	e8 0e e2 fe ff       	callq  6080 <printf@plt>
   17e72:	83 45 f4 01          	addl   $0x1,-0xc(%rbp)
   17e76:	83 7d f4 08          	cmpl   $0x8,-0xc(%rbp)
   17e7a:	0f 8e 76 fe ff ff    	jle    17cf6 <main+0x2587>
   17e80:	83 45 f0 01          	addl   $0x1,-0x10(%rbp)
   17e84:	83 7d f0 02          	cmpl   $0x2,-0x10(%rbp)
   17e88:	0f 8e 5c fe ff ff    	jle    17cea <main+0x257b>
   17e8e:	0f b7 05 c7 93 00 00 	movzwl 0x93c7(%rip),%eax        # 2125c <g_1527>
   17e95:	0f b7 c0             	movzwl %ax,%eax
   17e98:	8b 55 fc             	mov    -0x4(%rbp),%edx
   17e9b:	48 8d 35 ce 52 00 00 	lea    0x52ce(%rip),%rsi        # 1d170 <g_1798+0x3090>
   17ea2:	48 89 c7             	mov    %rax,%rdi
   17ea5:	e8 49 f8 fe ff       	callq  76f3 <transparent_crc>
   17eaa:	8b 05 b0 93 00 00    	mov    0x93b0(%rip),%eax        # 21260 <g_1587>
   17eb0:	48 98                	cltq   
   17eb2:	8b 55 fc             	mov    -0x4(%rbp),%edx
   17eb5:	48 8d 35 bb 52 00 00 	lea    0x52bb(%rip),%rsi        # 1d177 <g_1798+0x3097>
   17ebc:	48 89 c7             	mov    %rax,%rdi
   17ebf:	e8 2f f8 fe ff       	callq  76f3 <transparent_crc>
   17ec4:	48 8b 05 95 93 00 00 	mov    0x9395(%rip),%rax        # 21260 <g_1587>
   17ecb:	c1 e0 03             	shl    $0x3,%eax
   17ece:	66 c1 f8 03          	sar    $0x3,%ax
   17ed2:	48 0f bf c0          	movswq %ax,%rax
   17ed6:	8b 55 fc             	mov    -0x4(%rbp),%edx
   17ed9:	48 8d 35 a1 52 00 00 	lea    0x52a1(%rip),%rsi        # 1d181 <g_1798+0x30a1>
   17ee0:	48 89 c7             	mov    %rax,%rdi
   17ee3:	e8 0b f8 fe ff       	callq  76f3 <transparent_crc>
   17ee8:	8b 05 9a 93 00 00    	mov    0x939a(%rip),%eax        # 21288 <g_1591>
   17eee:	89 c1                	mov    %eax,%ecx
   17ef0:	8b 45 fc             	mov    -0x4(%rbp),%eax
   17ef3:	89 c2                	mov    %eax,%edx
   17ef5:	48 8d 35 8f 52 00 00 	lea    0x528f(%rip),%rsi        # 1d18b <g_1798+0x30ab>
   17efc:	48 89 cf             	mov    %rcx,%rdi
   17eff:	e8 ef f7 fe ff       	callq  76f3 <transparent_crc>
   17f04:	c7 45 f0 00 00 00 00 	movl   $0x0,-0x10(%rbp)
   17f0b:	e9 d1 01 00 00       	jmpq   180e1 <main+0x2972>
   17f10:	8b 45 f0             	mov    -0x10(%rbp),%eax
   17f13:	48 63 d0             	movslq %eax,%rdx
   17f16:	48 89 d0             	mov    %rdx,%rax
   17f19:	48 c1 e0 03          	shl    $0x3,%rax
   17f1d:	48 01 d0             	add    %rdx,%rax
   17f20:	48 c1 e0 02          	shl    $0x2,%rax
   17f24:	48 01 c2             	add    %rax,%rdx
   17f27:	48 8d 05 72 93 00 00 	lea    0x9372(%rip),%rax        # 212a0 <g_1606>
   17f2e:	48 8b 04 02          	mov    (%rdx,%rax,1),%rax
   17f32:	8b 55 fc             	mov    -0x4(%rbp),%edx
   17f35:	48 8d 35 56 52 00 00 	lea    0x5256(%rip),%rsi        # 1d192 <g_1798+0x30b2>
   17f3c:	48 89 c7             	mov    %rax,%rdi
   17f3f:	e8 af f7 fe ff       	callq  76f3 <transparent_crc>
   17f44:	8b 45 f0             	mov    -0x10(%rbp),%eax
   17f47:	48 63 d0             	movslq %eax,%rdx
   17f4a:	48 89 d0             	mov    %rdx,%rax
   17f4d:	48 c1 e0 03          	shl    $0x3,%rax
   17f51:	48 01 d0             	add    %rdx,%rax
   17f54:	48 c1 e0 02          	shl    $0x2,%rax
   17f58:	48 01 c2             	add    %rax,%rdx
   17f5b:	48 8d 05 46 93 00 00 	lea    0x9346(%rip),%rax        # 212a8 <g_1606+0x8>
   17f62:	8b 04 02             	mov    (%rdx,%rax,1),%eax
   17f65:	48 98                	cltq   
   17f67:	8b 55 fc             	mov    -0x4(%rbp),%edx
   17f6a:	48 8d 35 31 52 00 00 	lea    0x5231(%rip),%rsi        # 1d1a2 <g_1798+0x30c2>
   17f71:	48 89 c7             	mov    %rax,%rdi
   17f74:	e8 7a f7 fe ff       	callq  76f3 <transparent_crc>
   17f79:	8b 45 f0             	mov    -0x10(%rbp),%eax
   17f7c:	48 63 d0             	movslq %eax,%rdx
   17f7f:	48 89 d0             	mov    %rdx,%rax
   17f82:	48 c1 e0 03          	shl    $0x3,%rax
   17f86:	48 01 d0             	add    %rdx,%rax
   17f89:	48 c1 e0 02          	shl    $0x2,%rax
   17f8d:	48 01 c2             	add    %rax,%rdx
   17f90:	48 8d 05 15 93 00 00 	lea    0x9315(%rip),%rax        # 212ac <g_1606+0xc>
   17f97:	0f b6 04 02          	movzbl (%rdx,%rax,1),%eax
   17f9b:	0f b6 c0             	movzbl %al,%eax
   17f9e:	8b 55 fc             	mov    -0x4(%rbp),%edx
   17fa1:	48 8d 35 07 52 00 00 	lea    0x5207(%rip),%rsi        # 1d1af <g_1798+0x30cf>
   17fa8:	48 89 c7             	mov    %rax,%rdi
   17fab:	e8 43 f7 fe ff       	callq  76f3 <transparent_crc>
   17fb0:	8b 45 f0             	mov    -0x10(%rbp),%eax
   17fb3:	48 63 d0             	movslq %eax,%rdx
   17fb6:	48 89 d0             	mov    %rdx,%rax
   17fb9:	48 c1 e0 03          	shl    $0x3,%rax
   17fbd:	48 01 d0             	add    %rdx,%rax
   17fc0:	48 c1 e0 02          	shl    $0x2,%rax
   17fc4:	48 01 c2             	add    %rax,%rdx
   17fc7:	48 8d 05 d2 92 00 00 	lea    0x92d2(%rip),%rax        # 212a0 <g_1606>
   17fce:	0f b7 44 02 0d       	movzwl 0xd(%rdx,%rax,1),%eax
   17fd3:	48 0f bf c0          	movswq %ax,%rax
   17fd7:	8b 55 fc             	mov    -0x4(%rbp),%edx
   17fda:	48 8d 35 db 51 00 00 	lea    0x51db(%rip),%rsi        # 1d1bc <g_1798+0x30dc>
   17fe1:	48 89 c7             	mov    %rax,%rdi
   17fe4:	e8 0a f7 fe ff       	callq  76f3 <transparent_crc>
   17fe9:	8b 45 f0             	mov    -0x10(%rbp),%eax
   17fec:	48 63 d0             	movslq %eax,%rdx
   17fef:	48 89 d0             	mov    %rdx,%rax
   17ff2:	48 c1 e0 03          	shl    $0x3,%rax
   17ff6:	48 01 d0             	add    %rdx,%rax
   17ff9:	48 c1 e0 02          	shl    $0x2,%rax
   17ffd:	48 01 c2             	add    %rax,%rdx
   18000:	48 8d 05 99 92 00 00 	lea    0x9299(%rip),%rax        # 212a0 <g_1606>
   18007:	48 8b 44 02 0f       	mov    0xf(%rdx,%rax,1),%rax
   1800c:	8b 55 fc             	mov    -0x4(%rbp),%edx
   1800f:	48 8d 35 b3 51 00 00 	lea    0x51b3(%rip),%rsi        # 1d1c9 <g_1798+0x30e9>
   18016:	48 89 c7             	mov    %rax,%rdi
   18019:	e8 d5 f6 fe ff       	callq  76f3 <transparent_crc>
   1801e:	8b 45 f0             	mov    -0x10(%rbp),%eax
   18021:	48 63 d0             	movslq %eax,%rdx
   18024:	48 89 d0             	mov    %rdx,%rax
   18027:	48 c1 e0 03          	shl    $0x3,%rax
   1802b:	48 01 d0             	add    %rdx,%rax
   1802e:	48 c1 e0 02          	shl    $0x2,%rax
   18032:	48 01 c2             	add    %rax,%rdx
   18035:	48 8d 05 74 92 00 00 	lea    0x9274(%rip),%rax        # 212b0 <g_1606+0x10>
   1803c:	8b 44 02 07          	mov    0x7(%rdx,%rax,1),%eax
   18040:	48 98                	cltq   
   18042:	8b 55 fc             	mov    -0x4(%rbp),%edx
   18045:	48 8d 35 8a 51 00 00 	lea    0x518a(%rip),%rsi        # 1d1d6 <g_1798+0x30f6>
   1804c:	48 89 c7             	mov    %rax,%rdi
   1804f:	e8 9f f6 fe ff       	callq  76f3 <transparent_crc>
   18054:	8b 45 f0             	mov    -0x10(%rbp),%eax
   18057:	48 63 d0             	movslq %eax,%rdx
   1805a:	48 89 d0             	mov    %rdx,%rax
   1805d:	48 c1 e0 03          	shl    $0x3,%rax
   18061:	48 01 d0             	add    %rdx,%rax
   18064:	48 c1 e0 02          	shl    $0x2,%rax
   18068:	48 01 c2             	add    %rax,%rdx
   1806b:	48 8d 05 3e 92 00 00 	lea    0x923e(%rip),%rax        # 212b0 <g_1606+0x10>
   18072:	0f b7 44 02 0b       	movzwl 0xb(%rdx,%rax,1),%eax
   18077:	0f b7 c0             	movzwl %ax,%eax
   1807a:	8b 55 fc             	mov    -0x4(%rbp),%edx
   1807d:	48 8d 35 5f 51 00 00 	lea    0x515f(%rip),%rsi        # 1d1e3 <g_1798+0x3103>
   18084:	48 89 c7             	mov    %rax,%rdi
   18087:	e8 67 f6 fe ff       	callq  76f3 <transparent_crc>
   1808c:	8b 45 f0             	mov    -0x10(%rbp),%eax
   1808f:	48 63 d0             	movslq %eax,%rdx
   18092:	48 89 d0             	mov    %rdx,%rax
   18095:	48 c1 e0 03          	shl    $0x3,%rax
   18099:	48 01 d0             	add    %rdx,%rax
   1809c:	48 c1 e0 02          	shl    $0x2,%rax
   180a0:	48 01 c2             	add    %rax,%rdx
   180a3:	48 8d 05 06 92 00 00 	lea    0x9206(%rip),%rax        # 212b0 <g_1606+0x10>
   180aa:	48 8b 44 02 0d       	mov    0xd(%rdx,%rax,1),%rax
   180af:	8b 55 fc             	mov    -0x4(%rbp),%edx
   180b2:	48 8d 35 37 51 00 00 	lea    0x5137(%rip),%rsi        # 1d1f0 <g_1798+0x3110>
   180b9:	48 89 c7             	mov    %rax,%rdi
   180bc:	e8 32 f6 fe ff       	callq  76f3 <transparent_crc>
   180c1:	83 7d fc 00          	cmpl   $0x0,-0x4(%rbp)
   180c5:	74 16                	je     180dd <main+0x296e>
   180c7:	8b 45 f0             	mov    -0x10(%rbp),%eax
   180ca:	89 c6                	mov    %eax,%esi
   180cc:	48 8d 3d b6 46 00 00 	lea    0x46b6(%rip),%rdi        # 1c789 <g_1798+0x26a9>
   180d3:	b8 00 00 00 00       	mov    $0x0,%eax
   180d8:	e8 a3 df fe ff       	callq  6080 <printf@plt>
   180dd:	83 45 f0 01          	addl   $0x1,-0x10(%rbp)
   180e1:	83 7d f0 07          	cmpl   $0x7,-0x10(%rbp)
   180e5:	0f 8e 25 fe ff ff    	jle    17f10 <main+0x27a1>
   180eb:	c7 45 f0 00 00 00 00 	movl   $0x0,-0x10(%rbp)
   180f2:	e9 32 01 00 00       	jmpq   18229 <main+0x2aba>
   180f7:	8b 45 f0             	mov    -0x10(%rbp),%eax
   180fa:	48 63 d0             	movslq %eax,%rdx
   180fd:	48 89 d0             	mov    %rdx,%rax
   18100:	48 c1 e0 02          	shl    $0x2,%rax
   18104:	48 01 d0             	add    %rdx,%rax
   18107:	48 c1 e0 02          	shl    $0x2,%rax
   1810b:	48 89 c2             	mov    %rax,%rdx
   1810e:	48 8d 05 cb 92 00 00 	lea    0x92cb(%rip),%rax        # 213e0 <g_1609>
   18115:	8b 04 02             	mov    (%rdx,%rax,1),%eax
   18118:	48 98                	cltq   
   1811a:	8b 55 fc             	mov    -0x4(%rbp),%edx
   1811d:	48 8d 35 dc 50 00 00 	lea    0x50dc(%rip),%rsi        # 1d200 <g_1798+0x3120>
   18124:	48 89 c7             	mov    %rax,%rdi
   18127:	e8 c7 f5 fe ff       	callq  76f3 <transparent_crc>
   1812c:	8b 45 f0             	mov    -0x10(%rbp),%eax
   1812f:	48 63 d0             	movslq %eax,%rdx
   18132:	48 89 d0             	mov    %rdx,%rax
   18135:	48 c1 e0 02          	shl    $0x2,%rax
   18139:	48 01 d0             	add    %rdx,%rax
   1813c:	48 c1 e0 02          	shl    $0x2,%rax
   18140:	48 89 c2             	mov    %rax,%rdx
   18143:	48 8d 05 9a 92 00 00 	lea    0x929a(%rip),%rax        # 213e4 <g_1609+0x4>
   1814a:	8b 04 02             	mov    (%rdx,%rax,1),%eax
   1814d:	89 c1                	mov    %eax,%ecx
   1814f:	8b 45 fc             	mov    -0x4(%rbp),%eax
   18152:	89 c2                	mov    %eax,%edx
   18154:	48 8d 35 b2 50 00 00 	lea    0x50b2(%rip),%rsi        # 1d20d <g_1798+0x312d>
   1815b:	48 89 cf             	mov    %rcx,%rdi
   1815e:	e8 90 f5 fe ff       	callq  76f3 <transparent_crc>
   18163:	8b 45 f0             	mov    -0x10(%rbp),%eax
   18166:	48 63 d0             	movslq %eax,%rdx
   18169:	48 89 d0             	mov    %rdx,%rax
   1816c:	48 c1 e0 02          	shl    $0x2,%rax
   18170:	48 01 d0             	add    %rdx,%rax
   18173:	48 c1 e0 02          	shl    $0x2,%rax
   18177:	48 89 c2             	mov    %rax,%rdx
   1817a:	48 8d 05 67 92 00 00 	lea    0x9267(%rip),%rax        # 213e8 <g_1609+0x8>
   18181:	8b 04 02             	mov    (%rdx,%rax,1),%eax
   18184:	48 98                	cltq   
   18186:	8b 55 fc             	mov    -0x4(%rbp),%edx
   18189:	48 8d 35 8a 50 00 00 	lea    0x508a(%rip),%rsi        # 1d21a <g_1798+0x313a>
   18190:	48 89 c7             	mov    %rax,%rdi
   18193:	e8 5b f5 fe ff       	callq  76f3 <transparent_crc>
   18198:	8b 45 f0             	mov    -0x10(%rbp),%eax
   1819b:	48 63 d0             	movslq %eax,%rdx
   1819e:	48 89 d0             	mov    %rdx,%rax
   181a1:	48 c1 e0 02          	shl    $0x2,%rax
   181a5:	48 01 d0             	add    %rdx,%rax
   181a8:	48 c1 e0 02          	shl    $0x2,%rax
   181ac:	48 89 c2             	mov    %rax,%rdx
   181af:	48 8d 05 36 92 00 00 	lea    0x9236(%rip),%rax        # 213ec <g_1609+0xc>
   181b6:	8b 04 02             	mov    (%rdx,%rax,1),%eax
   181b9:	48 98                	cltq   
   181bb:	8b 55 fc             	mov    -0x4(%rbp),%edx
   181be:	48 8d 35 62 50 00 00 	lea    0x5062(%rip),%rsi        # 1d227 <g_1798+0x3147>
   181c5:	48 89 c7             	mov    %rax,%rdi
   181c8:	e8 26 f5 fe ff       	callq  76f3 <transparent_crc>
   181cd:	8b 45 f0             	mov    -0x10(%rbp),%eax
   181d0:	48 63 d0             	movslq %eax,%rdx
   181d3:	48 89 d0             	mov    %rdx,%rax
   181d6:	48 c1 e0 02          	shl    $0x2,%rax
   181da:	48 01 d0             	add    %rdx,%rax
   181dd:	48 c1 e0 02          	shl    $0x2,%rax
   181e1:	48 89 c2             	mov    %rax,%rdx
   181e4:	48 8d 05 05 92 00 00 	lea    0x9205(%rip),%rax        # 213f0 <g_1609+0x10>
   181eb:	8b 04 02             	mov    (%rdx,%rax,1),%eax
   181ee:	25 ff ff ff 03       	and    $0x3ffffff,%eax
   181f3:	89 c1                	mov    %eax,%ecx
   181f5:	8b 45 fc             	mov    -0x4(%rbp),%eax
   181f8:	89 c2                	mov    %eax,%edx
   181fa:	48 8d 35 33 50 00 00 	lea    0x5033(%rip),%rsi        # 1d234 <g_1798+0x3154>
   18201:	48 89 cf             	mov    %rcx,%rdi
   18204:	e8 ea f4 fe ff       	callq  76f3 <transparent_crc>
   18209:	83 7d fc 00          	cmpl   $0x0,-0x4(%rbp)
   1820d:	74 16                	je     18225 <main+0x2ab6>
   1820f:	8b 45 f0             	mov    -0x10(%rbp),%eax
   18212:	89 c6                	mov    %eax,%esi
   18214:	48 8d 3d 6e 45 00 00 	lea    0x456e(%rip),%rdi        # 1c789 <g_1798+0x26a9>
   1821b:	b8 00 00 00 00       	mov    $0x0,%eax
   18220:	e8 5b de fe ff       	callq  6080 <printf@plt>
   18225:	83 45 f0 01          	addl   $0x1,-0x10(%rbp)
   18229:	83 7d f0 09          	cmpl   $0x9,-0x10(%rbp)
   1822d:	0f 8e c4 fe ff ff    	jle    180f7 <main+0x2988>
   18233:	48 8b 05 6e 92 00 00 	mov    0x926e(%rip),%rax        # 214a8 <g_1620>
   1823a:	8b 55 fc             	mov    -0x4(%rbp),%edx
   1823d:	48 8d 35 fd 4f 00 00 	lea    0x4ffd(%rip),%rsi        # 1d241 <g_1798+0x3161>
   18244:	48 89 c7             	mov    %rax,%rdi
   18247:	e8 a7 f4 fe ff       	callq  76f3 <transparent_crc>
   1824c:	8b 05 6e 92 00 00    	mov    0x926e(%rip),%eax        # 214c0 <g_1641>
   18252:	48 98                	cltq   
   18254:	8b 55 fc             	mov    -0x4(%rbp),%edx
   18257:	48 8d 35 ed 4f 00 00 	lea    0x4fed(%rip),%rsi        # 1d24b <g_1798+0x316b>
   1825e:	48 89 c7             	mov    %rax,%rdi
   18261:	e8 8d f4 fe ff       	callq  76f3 <transparent_crc>
   18266:	48 8b 05 53 92 00 00 	mov    0x9253(%rip),%rax        # 214c0 <g_1641>
   1826d:	c1 e0 03             	shl    $0x3,%eax
   18270:	66 c1 f8 03          	sar    $0x3,%ax
   18274:	48 0f bf c0          	movswq %ax,%rax
   18278:	8b 55 fc             	mov    -0x4(%rbp),%edx
   1827b:	48 8d 35 d3 4f 00 00 	lea    0x4fd3(%rip),%rsi        # 1d255 <g_1798+0x3175>
   18282:	48 89 c7             	mov    %rax,%rdi
   18285:	e8 69 f4 fe ff       	callq  76f3 <transparent_crc>
   1828a:	8b 05 20 f8 00 00    	mov    0xf820(%rip),%eax        # 27ab0 <g_1649>
   18290:	89 c1                	mov    %eax,%ecx
   18292:	8b 45 fc             	mov    -0x4(%rbp),%eax
   18295:	89 c2                	mov    %eax,%edx
   18297:	48 8d 35 c1 4f 00 00 	lea    0x4fc1(%rip),%rsi        # 1d25f <g_1798+0x317f>
   1829e:	48 89 cf             	mov    %rcx,%rdi
   182a1:	e8 4d f4 fe ff       	callq  76f3 <transparent_crc>
   182a6:	0f b7 05 3b 92 00 00 	movzwl 0x923b(%rip),%eax        # 214e8 <g_1650>
   182ad:	0f b7 c0             	movzwl %ax,%eax
   182b0:	8b 55 fc             	mov    -0x4(%rbp),%edx
   182b3:	48 8d 35 ac 4f 00 00 	lea    0x4fac(%rip),%rsi        # 1d266 <g_1798+0x3186>
   182ba:	48 89 c7             	mov    %rax,%rdi
   182bd:	e8 31 f4 fe ff       	callq  76f3 <transparent_crc>
   182c2:	0f b6 05 21 92 00 00 	movzbl 0x9221(%rip),%eax        # 214ea <g_1653>
   182c9:	48 0f be c0          	movsbq %al,%rax
   182cd:	8b 55 fc             	mov    -0x4(%rbp),%edx
   182d0:	48 8d 35 96 4f 00 00 	lea    0x4f96(%rip),%rsi        # 1d26d <g_1798+0x318d>
   182d7:	48 89 c7             	mov    %rax,%rdi
   182da:	e8 14 f4 fe ff       	callq  76f3 <transparent_crc>
   182df:	48 b8 b9 b4 55 ae aa 	movabs $0x6d31f7aaae55b4b9,%rax
   182e6:	f7 31 6d 
   182e9:	48 89 c1             	mov    %rax,%rcx
   182ec:	8b 45 fc             	mov    -0x4(%rbp),%eax
   182ef:	89 c2                	mov    %eax,%edx
   182f1:	48 8d 35 7c 4f 00 00 	lea    0x4f7c(%rip),%rsi        # 1d274 <g_1798+0x3194>
   182f8:	48 89 cf             	mov    %rcx,%rdi
   182fb:	e8 f3 f3 fe ff       	callq  76f3 <transparent_crc>
   18300:	c7 45 f0 00 00 00 00 	movl   $0x0,-0x10(%rbp)
   18307:	e9 32 01 00 00       	jmpq   1843e <main+0x2ccf>
   1830c:	8b 45 f0             	mov    -0x10(%rbp),%eax
   1830f:	48 63 d0             	movslq %eax,%rdx
   18312:	48 89 d0             	mov    %rdx,%rax
   18315:	48 c1 e0 02          	shl    $0x2,%rax
   18319:	48 01 d0             	add    %rdx,%rax
   1831c:	48 c1 e0 02          	shl    $0x2,%rax
   18320:	48 89 c2             	mov    %rax,%rdx
   18323:	48 8d 05 d6 91 00 00 	lea    0x91d6(%rip),%rax        # 21500 <g_1656>
   1832a:	8b 04 02             	mov    (%rdx,%rax,1),%eax
   1832d:	48 98                	cltq   
   1832f:	8b 55 fc             	mov    -0x4(%rbp),%edx
   18332:	48 8d 35 42 4f 00 00 	lea    0x4f42(%rip),%rsi        # 1d27b <g_1798+0x319b>
   18339:	48 89 c7             	mov    %rax,%rdi
   1833c:	e8 b2 f3 fe ff       	callq  76f3 <transparent_crc>
   18341:	8b 45 f0             	mov    -0x10(%rbp),%eax
   18344:	48 63 d0             	movslq %eax,%rdx
   18347:	48 89 d0             	mov    %rdx,%rax
   1834a:	48 c1 e0 02          	shl    $0x2,%rax
   1834e:	48 01 d0             	add    %rdx,%rax
   18351:	48 c1 e0 02          	shl    $0x2,%rax
   18355:	48 89 c2             	mov    %rax,%rdx
   18358:	48 8d 05 a5 91 00 00 	lea    0x91a5(%rip),%rax        # 21504 <g_1656+0x4>
   1835f:	8b 04 02             	mov    (%rdx,%rax,1),%eax
   18362:	89 c1                	mov    %eax,%ecx
   18364:	8b 45 fc             	mov    -0x4(%rbp),%eax
   18367:	89 c2                	mov    %eax,%edx
   18369:	48 8d 35 18 4f 00 00 	lea    0x4f18(%rip),%rsi        # 1d288 <g_1798+0x31a8>
   18370:	48 89 cf             	mov    %rcx,%rdi
   18373:	e8 7b f3 fe ff       	callq  76f3 <transparent_crc>
   18378:	8b 45 f0             	mov    -0x10(%rbp),%eax
   1837b:	48 63 d0             	movslq %eax,%rdx
   1837e:	48 89 d0             	mov    %rdx,%rax
   18381:	48 c1 e0 02          	shl    $0x2,%rax
   18385:	48 01 d0             	add    %rdx,%rax
   18388:	48 c1 e0 02          	shl    $0x2,%rax
   1838c:	48 89 c2             	mov    %rax,%rdx
   1838f:	48 8d 05 72 91 00 00 	lea    0x9172(%rip),%rax        # 21508 <g_1656+0x8>
   18396:	8b 04 02             	mov    (%rdx,%rax,1),%eax
   18399:	48 98                	cltq   
   1839b:	8b 55 fc             	mov    -0x4(%rbp),%edx
   1839e:	48 8d 35 f0 4e 00 00 	lea    0x4ef0(%rip),%rsi        # 1d295 <g_1798+0x31b5>
   183a5:	48 89 c7             	mov    %rax,%rdi
   183a8:	e8 46 f3 fe ff       	callq  76f3 <transparent_crc>
   183ad:	8b 45 f0             	mov    -0x10(%rbp),%eax
   183b0:	48 63 d0             	movslq %eax,%rdx
   183b3:	48 89 d0             	mov    %rdx,%rax
   183b6:	48 c1 e0 02          	shl    $0x2,%rax
   183ba:	48 01 d0             	add    %rdx,%rax
   183bd:	48 c1 e0 02          	shl    $0x2,%rax
   183c1:	48 89 c2             	mov    %rax,%rdx
   183c4:	48 8d 05 41 91 00 00 	lea    0x9141(%rip),%rax        # 2150c <g_1656+0xc>
   183cb:	8b 04 02             	mov    (%rdx,%rax,1),%eax
   183ce:	48 98                	cltq   
   183d0:	8b 55 fc             	mov    -0x4(%rbp),%edx
   183d3:	48 8d 35 c8 4e 00 00 	lea    0x4ec8(%rip),%rsi        # 1d2a2 <g_1798+0x31c2>
   183da:	48 89 c7             	mov    %rax,%rdi
   183dd:	e8 11 f3 fe ff       	callq  76f3 <transparent_crc>
   183e2:	8b 45 f0             	mov    -0x10(%rbp),%eax
   183e5:	48 63 d0             	movslq %eax,%rdx
   183e8:	48 89 d0             	mov    %rdx,%rax
   183eb:	48 c1 e0 02          	shl    $0x2,%rax
   183ef:	48 01 d0             	add    %rdx,%rax
   183f2:	48 c1 e0 02          	shl    $0x2,%rax
   183f6:	48 89 c2             	mov    %rax,%rdx
   183f9:	48 8d 05 10 91 00 00 	lea    0x9110(%rip),%rax        # 21510 <g_1656+0x10>
   18400:	8b 04 02             	mov    (%rdx,%rax,1),%eax
   18403:	25 ff ff ff 03       	and    $0x3ffffff,%eax
   18408:	89 c1                	mov    %eax,%ecx
   1840a:	8b 45 fc             	mov    -0x4(%rbp),%eax
   1840d:	89 c2                	mov    %eax,%edx
   1840f:	48 8d 35 99 4e 00 00 	lea    0x4e99(%rip),%rsi        # 1d2af <g_1798+0x31cf>
   18416:	48 89 cf             	mov    %rcx,%rdi
   18419:	e8 d5 f2 fe ff       	callq  76f3 <transparent_crc>
   1841e:	83 7d fc 00          	cmpl   $0x0,-0x4(%rbp)
   18422:	74 16                	je     1843a <main+0x2ccb>
   18424:	8b 45 f0             	mov    -0x10(%rbp),%eax
   18427:	89 c6                	mov    %eax,%esi
   18429:	48 8d 3d 59 43 00 00 	lea    0x4359(%rip),%rdi        # 1c789 <g_1798+0x26a9>
   18430:	b8 00 00 00 00       	mov    $0x0,%eax
   18435:	e8 46 dc fe ff       	callq  6080 <printf@plt>
   1843a:	83 45 f0 01          	addl   $0x1,-0x10(%rbp)
   1843e:	83 7d f0 09          	cmpl   $0x9,-0x10(%rbp)
   18442:	0f 8e c4 fe ff ff    	jle    1830c <main+0x2b9d>
   18448:	8b 05 82 91 00 00    	mov    0x9182(%rip),%eax        # 215d0 <g_1660>
   1844e:	48 98                	cltq   
   18450:	8b 55 fc             	mov    -0x4(%rbp),%edx
   18453:	48 8d 35 62 4e 00 00 	lea    0x4e62(%rip),%rsi        # 1d2bc <g_1798+0x31dc>
   1845a:	48 89 c7             	mov    %rax,%rdi
   1845d:	e8 91 f2 fe ff       	callq  76f3 <transparent_crc>
   18462:	8b 05 6c 91 00 00    	mov    0x916c(%rip),%eax        # 215d4 <g_1660+0x4>
   18468:	89 c1                	mov    %eax,%ecx
   1846a:	8b 45 fc             	mov    -0x4(%rbp),%eax
   1846d:	89 c2                	mov    %eax,%edx
   1846f:	48 8d 35 50 4e 00 00 	lea    0x4e50(%rip),%rsi        # 1d2c6 <g_1798+0x31e6>
   18476:	48 89 cf             	mov    %rcx,%rdi
   18479:	e8 75 f2 fe ff       	callq  76f3 <transparent_crc>
   1847e:	8b 05 54 91 00 00    	mov    0x9154(%rip),%eax        # 215d8 <g_1660+0x8>
   18484:	48 98                	cltq   
   18486:	8b 55 fc             	mov    -0x4(%rbp),%edx
   18489:	48 8d 35 40 4e 00 00 	lea    0x4e40(%rip),%rsi        # 1d2d0 <g_1798+0x31f0>
   18490:	48 89 c7             	mov    %rax,%rdi
   18493:	e8 5b f2 fe ff       	callq  76f3 <transparent_crc>
   18498:	8b 05 3e 91 00 00    	mov    0x913e(%rip),%eax        # 215dc <g_1660+0xc>
   1849e:	48 98                	cltq   
   184a0:	8b 55 fc             	mov    -0x4(%rbp),%edx
   184a3:	48 8d 35 30 4e 00 00 	lea    0x4e30(%rip),%rsi        # 1d2da <g_1798+0x31fa>
   184aa:	48 89 c7             	mov    %rax,%rdi
   184ad:	e8 41 f2 fe ff       	callq  76f3 <transparent_crc>
   184b2:	48 8b 05 27 91 00 00 	mov    0x9127(%rip),%rax        # 215e0 <g_1660+0x10>
   184b9:	25 ff ff ff 03       	and    $0x3ffffff,%eax
   184be:	89 c1                	mov    %eax,%ecx
   184c0:	8b 45 fc             	mov    -0x4(%rbp),%eax
   184c3:	89 c2                	mov    %eax,%edx
   184c5:	48 8d 35 18 4e 00 00 	lea    0x4e18(%rip),%rsi        # 1d2e4 <g_1798+0x3204>
   184cc:	48 89 cf             	mov    %rcx,%rdi
   184cf:	e8 1f f2 fe ff       	callq  76f3 <transparent_crc>
   184d4:	0f b7 05 09 91 00 00 	movzwl 0x9109(%rip),%eax        # 215e4 <g_1665>
   184db:	48 0f bf c0          	movswq %ax,%rax
   184df:	8b 55 fc             	mov    -0x4(%rbp),%edx
   184e2:	48 8d 35 05 4e 00 00 	lea    0x4e05(%rip),%rsi        # 1d2ee <g_1798+0x320e>
   184e9:	48 89 c7             	mov    %rax,%rdi
   184ec:	e8 02 f2 fe ff       	callq  76f3 <transparent_crc>
   184f1:	48 8b 05 08 91 00 00 	mov    0x9108(%rip),%rax        # 21600 <g_1670>
   184f8:	8b 55 fc             	mov    -0x4(%rbp),%edx
   184fb:	48 8d 35 f3 4d 00 00 	lea    0x4df3(%rip),%rsi        # 1d2f5 <g_1798+0x3215>
   18502:	48 89 c7             	mov    %rax,%rdi
   18505:	e8 e9 f1 fe ff       	callq  76f3 <transparent_crc>
   1850a:	8b 05 f8 90 00 00    	mov    0x90f8(%rip),%eax        # 21608 <g_1670+0x8>
   18510:	48 98                	cltq   
   18512:	8b 55 fc             	mov    -0x4(%rbp),%edx
   18515:	48 8d 35 e6 4d 00 00 	lea    0x4de6(%rip),%rsi        # 1d302 <g_1798+0x3222>
   1851c:	48 89 c7             	mov    %rax,%rdi
   1851f:	e8 cf f1 fe ff       	callq  76f3 <transparent_crc>
   18524:	0f b6 05 e1 90 00 00 	movzbl 0x90e1(%rip),%eax        # 2160c <g_1670+0xc>
   1852b:	0f b6 c0             	movzbl %al,%eax
   1852e:	8b 55 fc             	mov    -0x4(%rbp),%edx
   18531:	48 8d 35 d4 4d 00 00 	lea    0x4dd4(%rip),%rsi        # 1d30c <g_1798+0x322c>
   18538:	48 89 c7             	mov    %rax,%rdi
   1853b:	e8 b3 f1 fe ff       	callq  76f3 <transparent_crc>
   18540:	0f b7 05 c6 90 00 00 	movzwl 0x90c6(%rip),%eax        # 2160d <g_1670+0xd>
   18547:	48 0f bf c0          	movswq %ax,%rax
   1854b:	8b 55 fc             	mov    -0x4(%rbp),%edx
   1854e:	48 8d 35 c1 4d 00 00 	lea    0x4dc1(%rip),%rsi        # 1d316 <g_1798+0x3236>
   18555:	48 89 c7             	mov    %rax,%rdi
   18558:	e8 96 f1 fe ff       	callq  76f3 <transparent_crc>
   1855d:	48 8b 05 ab 90 00 00 	mov    0x90ab(%rip),%rax        # 2160f <g_1670+0xf>
   18564:	8b 55 fc             	mov    -0x4(%rbp),%edx
   18567:	48 8d 35 b2 4d 00 00 	lea    0x4db2(%rip),%rsi        # 1d320 <g_1798+0x3240>
   1856e:	48 89 c7             	mov    %rax,%rdi
   18571:	e8 7d f1 fe ff       	callq  76f3 <transparent_crc>
   18576:	8b 05 9b 90 00 00    	mov    0x909b(%rip),%eax        # 21617 <g_1670+0x17>
   1857c:	48 98                	cltq   
   1857e:	8b 55 fc             	mov    -0x4(%rbp),%edx
   18581:	48 8d 35 a2 4d 00 00 	lea    0x4da2(%rip),%rsi        # 1d32a <g_1798+0x324a>
   18588:	48 89 c7             	mov    %rax,%rdi
   1858b:	e8 63 f1 fe ff       	callq  76f3 <transparent_crc>
   18590:	0f b7 05 84 90 00 00 	movzwl 0x9084(%rip),%eax        # 2161b <g_1670+0x1b>
   18597:	0f b7 c0             	movzwl %ax,%eax
   1859a:	8b 55 fc             	mov    -0x4(%rbp),%edx
   1859d:	48 8d 35 90 4d 00 00 	lea    0x4d90(%rip),%rsi        # 1d334 <g_1798+0x3254>
   185a4:	48 89 c7             	mov    %rax,%rdi
   185a7:	e8 47 f1 fe ff       	callq  76f3 <transparent_crc>
   185ac:	48 8b 05 6a 90 00 00 	mov    0x906a(%rip),%rax        # 2161d <g_1670+0x1d>
   185b3:	8b 55 fc             	mov    -0x4(%rbp),%edx
   185b6:	48 8d 35 81 4d 00 00 	lea    0x4d81(%rip),%rsi        # 1d33e <g_1798+0x325e>
   185bd:	48 89 c7             	mov    %rax,%rdi
   185c0:	e8 2e f1 fe ff       	callq  76f3 <transparent_crc>
   185c5:	8b 05 5d 90 00 00    	mov    0x905d(%rip),%eax        # 21628 <g_1717>
   185cb:	89 c1                	mov    %eax,%ecx
   185cd:	8b 45 fc             	mov    -0x4(%rbp),%eax
   185d0:	89 c2                	mov    %eax,%edx
   185d2:	48 8d 35 72 4d 00 00 	lea    0x4d72(%rip),%rsi        # 1d34b <g_1798+0x326b>
   185d9:	48 89 cf             	mov    %rcx,%rdi
   185dc:	e8 12 f1 fe ff       	callq  76f3 <transparent_crc>
   185e1:	b8 03 00 00 00       	mov    $0x3,%eax
   185e6:	48 98                	cltq   
   185e8:	8b 55 fc             	mov    -0x4(%rbp),%edx
   185eb:	48 8d 35 60 4d 00 00 	lea    0x4d60(%rip),%rsi        # 1d352 <g_1798+0x3272>
   185f2:	48 89 c7             	mov    %rax,%rdi
   185f5:	e8 f9 f0 fe ff       	callq  76f3 <transparent_crc>
   185fa:	48 8b 05 3f 90 00 00 	mov    0x903f(%rip),%rax        # 21640 <g_1744>
   18601:	8b 55 fc             	mov    -0x4(%rbp),%edx
   18604:	48 8d 35 4e 4d 00 00 	lea    0x4d4e(%rip),%rsi        # 1d359 <g_1798+0x3279>
   1860b:	48 89 c7             	mov    %rax,%rdi
   1860e:	e8 e0 f0 fe ff       	callq  76f3 <transparent_crc>
   18613:	8b 05 2f 90 00 00    	mov    0x902f(%rip),%eax        # 21648 <g_1744+0x8>
   18619:	48 98                	cltq   
   1861b:	8b 55 fc             	mov    -0x4(%rbp),%edx
   1861e:	48 8d 35 41 4d 00 00 	lea    0x4d41(%rip),%rsi        # 1d366 <g_1798+0x3286>
   18625:	48 89 c7             	mov    %rax,%rdi
   18628:	e8 c6 f0 fe ff       	callq  76f3 <transparent_crc>
   1862d:	0f b6 05 18 90 00 00 	movzbl 0x9018(%rip),%eax        # 2164c <g_1744+0xc>
   18634:	0f b6 c0             	movzbl %al,%eax
   18637:	8b 55 fc             	mov    -0x4(%rbp),%edx
   1863a:	48 8d 35 2f 4d 00 00 	lea    0x4d2f(%rip),%rsi        # 1d370 <g_1798+0x3290>
   18641:	48 89 c7             	mov    %rax,%rdi
   18644:	e8 aa f0 fe ff       	callq  76f3 <transparent_crc>
   18649:	0f b7 05 fd 8f 00 00 	movzwl 0x8ffd(%rip),%eax        # 2164d <g_1744+0xd>
   18650:	48 0f bf c0          	movswq %ax,%rax
   18654:	8b 55 fc             	mov    -0x4(%rbp),%edx
   18657:	48 8d 35 1c 4d 00 00 	lea    0x4d1c(%rip),%rsi        # 1d37a <g_1798+0x329a>
   1865e:	48 89 c7             	mov    %rax,%rdi
   18661:	e8 8d f0 fe ff       	callq  76f3 <transparent_crc>
   18666:	48 8b 05 e2 8f 00 00 	mov    0x8fe2(%rip),%rax        # 2164f <g_1744+0xf>
   1866d:	8b 55 fc             	mov    -0x4(%rbp),%edx
   18670:	48 8d 35 0d 4d 00 00 	lea    0x4d0d(%rip),%rsi        # 1d384 <g_1798+0x32a4>
   18677:	48 89 c7             	mov    %rax,%rdi
   1867a:	e8 74 f0 fe ff       	callq  76f3 <transparent_crc>
   1867f:	8b 05 d2 8f 00 00    	mov    0x8fd2(%rip),%eax        # 21657 <g_1744+0x17>
   18685:	48 98                	cltq   
   18687:	8b 55 fc             	mov    -0x4(%rbp),%edx
   1868a:	48 8d 35 fd 4c 00 00 	lea    0x4cfd(%rip),%rsi        # 1d38e <g_1798+0x32ae>
   18691:	48 89 c7             	mov    %rax,%rdi
   18694:	e8 5a f0 fe ff       	callq  76f3 <transparent_crc>
   18699:	0f b7 05 bb 8f 00 00 	movzwl 0x8fbb(%rip),%eax        # 2165b <g_1744+0x1b>
   186a0:	0f b7 c0             	movzwl %ax,%eax
   186a3:	8b 55 fc             	mov    -0x4(%rbp),%edx
   186a6:	48 8d 35 eb 4c 00 00 	lea    0x4ceb(%rip),%rsi        # 1d398 <g_1798+0x32b8>
   186ad:	48 89 c7             	mov    %rax,%rdi
   186b0:	e8 3e f0 fe ff       	callq  76f3 <transparent_crc>
   186b5:	48 8b 05 a1 8f 00 00 	mov    0x8fa1(%rip),%rax        # 2165d <g_1744+0x1d>
   186bc:	8b 55 fc             	mov    -0x4(%rbp),%edx
   186bf:	48 8d 35 dc 4c 00 00 	lea    0x4cdc(%rip),%rsi        # 1d3a2 <g_1798+0x32c2>
   186c6:	48 89 c7             	mov    %rax,%rdi
   186c9:	e8 25 f0 fe ff       	callq  76f3 <transparent_crc>
   186ce:	c7 45 f0 00 00 00 00 	movl   $0x0,-0x10(%rbp)
   186d5:	eb 4d                	jmp    18724 <main+0x2fb5>
   186d7:	8b 45 f0             	mov    -0x10(%rbp),%eax
   186da:	48 98                	cltq   
   186dc:	48 8d 14 85 00 00 00 	lea    0x0(,%rax,4),%rdx
   186e3:	00 
   186e4:	48 8d 05 d5 f3 00 00 	lea    0xf3d5(%rip),%rax        # 27ac0 <g_1773>
   186eb:	8b 04 02             	mov    (%rdx,%rax,1),%eax
   186ee:	89 c1                	mov    %eax,%ecx
   186f0:	8b 45 fc             	mov    -0x4(%rbp),%eax
   186f3:	89 c2                	mov    %eax,%edx
   186f5:	48 8d 35 b3 4c 00 00 	lea    0x4cb3(%rip),%rsi        # 1d3af <g_1798+0x32cf>
   186fc:	48 89 cf             	mov    %rcx,%rdi
   186ff:	e8 ef ef fe ff       	callq  76f3 <transparent_crc>
   18704:	83 7d fc 00          	cmpl   $0x0,-0x4(%rbp)
   18708:	74 16                	je     18720 <main+0x2fb1>
   1870a:	8b 45 f0             	mov    -0x10(%rbp),%eax
   1870d:	89 c6                	mov    %eax,%esi
   1870f:	48 8d 3d 73 40 00 00 	lea    0x4073(%rip),%rdi        # 1c789 <g_1798+0x26a9>
   18716:	b8 00 00 00 00       	mov    $0x0,%eax
   1871b:	e8 60 d9 fe ff       	callq  6080 <printf@plt>
   18720:	83 45 f0 01          	addl   $0x1,-0x10(%rbp)
   18724:	83 7d f0 01          	cmpl   $0x1,-0x10(%rbp)
   18728:	7e ad                	jle    186d7 <main+0x2f68>
   1872a:	b8 f6 ff ff ff       	mov    $0xfffffff6,%eax
   1872f:	48 0f be c0          	movsbq %al,%rax
   18733:	8b 55 fc             	mov    -0x4(%rbp),%edx
   18736:	48 8d 35 7c 4c 00 00 	lea    0x4c7c(%rip),%rsi        # 1d3b9 <g_1798+0x32d9>
   1873d:	48 89 c7             	mov    %rax,%rdi
   18740:	e8 ae ef fe ff       	callq  76f3 <transparent_crc>
   18745:	48 8b 05 24 8f 00 00 	mov    0x8f24(%rip),%rax        # 21670 <g_1789>
   1874c:	8b 55 fc             	mov    -0x4(%rbp),%edx
   1874f:	48 8d 35 6a 4c 00 00 	lea    0x4c6a(%rip),%rsi        # 1d3c0 <g_1798+0x32e0>
   18756:	48 89 c7             	mov    %rax,%rdi
   18759:	e8 95 ef fe ff       	callq  76f3 <transparent_crc>
   1875e:	48 8b 05 7b 19 00 00 	mov    0x197b(%rip),%rax        # 1a0e0 <g_1798>
   18765:	8b 55 fc             	mov    -0x4(%rbp),%edx
   18768:	48 8d 35 5b 4c 00 00 	lea    0x4c5b(%rip),%rsi        # 1d3ca <g_1798+0x32ea>
   1876f:	48 89 c7             	mov    %rax,%rdi
   18772:	e8 7c ef fe ff       	callq  76f3 <transparent_crc>
   18777:	8b 05 6b 19 00 00    	mov    0x196b(%rip),%eax        # 1a0e8 <g_1798+0x8>
   1877d:	48 98                	cltq   
   1877f:	8b 55 fc             	mov    -0x4(%rbp),%edx
   18782:	48 8d 35 4e 4c 00 00 	lea    0x4c4e(%rip),%rsi        # 1d3d7 <g_1798+0x32f7>
   18789:	48 89 c7             	mov    %rax,%rdi
   1878c:	e8 62 ef fe ff       	callq  76f3 <transparent_crc>
   18791:	b8 0b 00 00 00       	mov    $0xb,%eax
   18796:	0f b6 c0             	movzbl %al,%eax
   18799:	8b 55 fc             	mov    -0x4(%rbp),%edx
   1879c:	48 8d 35 3e 4c 00 00 	lea    0x4c3e(%rip),%rsi        # 1d3e1 <g_1798+0x3301>
   187a3:	48 89 c7             	mov    %rax,%rdi
   187a6:	e8 48 ef fe ff       	callq  76f3 <transparent_crc>
   187ab:	0f b7 05 3b 19 00 00 	movzwl 0x193b(%rip),%eax        # 1a0ed <g_1798+0xd>
   187b2:	48 0f bf c0          	movswq %ax,%rax
   187b6:	8b 55 fc             	mov    -0x4(%rbp),%edx
   187b9:	48 8d 35 2b 4c 00 00 	lea    0x4c2b(%rip),%rsi        # 1d3eb <g_1798+0x330b>
   187c0:	48 89 c7             	mov    %rax,%rdi
   187c3:	e8 2b ef fe ff       	callq  76f3 <transparent_crc>
   187c8:	48 8b 05 20 19 00 00 	mov    0x1920(%rip),%rax        # 1a0ef <g_1798+0xf>
   187cf:	8b 55 fc             	mov    -0x4(%rbp),%edx
   187d2:	48 8d 35 1c 4c 00 00 	lea    0x4c1c(%rip),%rsi        # 1d3f5 <g_1798+0x3315>
   187d9:	48 89 c7             	mov    %rax,%rdi
   187dc:	e8 12 ef fe ff       	callq  76f3 <transparent_crc>
   187e1:	b8 06 00 00 00       	mov    $0x6,%eax
   187e6:	48 98                	cltq   
   187e8:	8b 55 fc             	mov    -0x4(%rbp),%edx
   187eb:	48 8d 35 0d 4c 00 00 	lea    0x4c0d(%rip),%rsi        # 1d3ff <g_1798+0x331f>
   187f2:	48 89 c7             	mov    %rax,%rdi
   187f5:	e8 f9 ee fe ff       	callq  76f3 <transparent_crc>
   187fa:	b8 ca a7 ff ff       	mov    $0xffffa7ca,%eax
   187ff:	0f b7 c0             	movzwl %ax,%eax
   18802:	8b 55 fc             	mov    -0x4(%rbp),%edx
   18805:	48 8d 35 fd 4b 00 00 	lea    0x4bfd(%rip),%rsi        # 1d409 <g_1798+0x3329>
   1880c:	48 89 c7             	mov    %rax,%rdi
   1880f:	e8 df ee fe ff       	callq  76f3 <transparent_crc>
   18814:	48 8b 05 e2 18 00 00 	mov    0x18e2(%rip),%rax        # 1a0fd <g_1798+0x1d>
   1881b:	8b 55 fc             	mov    -0x4(%rbp),%edx
   1881e:	48 8d 35 ee 4b 00 00 	lea    0x4bee(%rip),%rsi        # 1d413 <g_1798+0x3333>
   18825:	48 89 c7             	mov    %rax,%rdi
   18828:	e8 c6 ee fe ff       	callq  76f3 <transparent_crc>
   1882d:	48 8b 05 4c 8e 00 00 	mov    0x8e4c(%rip),%rax        # 21680 <g_1801>
   18834:	8b 55 fc             	mov    -0x4(%rbp),%edx
   18837:	48 8d 35 e2 4b 00 00 	lea    0x4be2(%rip),%rsi        # 1d420 <g_1798+0x3340>
   1883e:	48 89 c7             	mov    %rax,%rdi
   18841:	e8 ad ee fe ff       	callq  76f3 <transparent_crc>
   18846:	8b 05 3c 8e 00 00    	mov    0x8e3c(%rip),%eax        # 21688 <g_1801+0x8>
   1884c:	48 98                	cltq   
   1884e:	8b 55 fc             	mov    -0x4(%rbp),%edx
   18851:	48 8d 35 d5 4b 00 00 	lea    0x4bd5(%rip),%rsi        # 1d42d <g_1798+0x334d>
   18858:	48 89 c7             	mov    %rax,%rdi
   1885b:	e8 93 ee fe ff       	callq  76f3 <transparent_crc>
   18860:	0f b6 05 25 8e 00 00 	movzbl 0x8e25(%rip),%eax        # 2168c <g_1801+0xc>
   18867:	0f b6 c0             	movzbl %al,%eax
   1886a:	8b 55 fc             	mov    -0x4(%rbp),%edx
   1886d:	48 8d 35 c3 4b 00 00 	lea    0x4bc3(%rip),%rsi        # 1d437 <g_1798+0x3357>
   18874:	48 89 c7             	mov    %rax,%rdi
   18877:	e8 77 ee fe ff       	callq  76f3 <transparent_crc>
   1887c:	0f b7 05 0a 8e 00 00 	movzwl 0x8e0a(%rip),%eax        # 2168d <g_1801+0xd>
   18883:	48 0f bf c0          	movswq %ax,%rax
   18887:	8b 55 fc             	mov    -0x4(%rbp),%edx
   1888a:	48 8d 35 b0 4b 00 00 	lea    0x4bb0(%rip),%rsi        # 1d441 <g_1798+0x3361>
   18891:	48 89 c7             	mov    %rax,%rdi
   18894:	e8 5a ee fe ff       	callq  76f3 <transparent_crc>
   18899:	48 8b 05 ef 8d 00 00 	mov    0x8def(%rip),%rax        # 2168f <g_1801+0xf>
   188a0:	8b 55 fc             	mov    -0x4(%rbp),%edx
   188a3:	48 8d 35 a1 4b 00 00 	lea    0x4ba1(%rip),%rsi        # 1d44b <g_1798+0x336b>
   188aa:	48 89 c7             	mov    %rax,%rdi
   188ad:	e8 41 ee fe ff       	callq  76f3 <transparent_crc>
   188b2:	8b 05 df 8d 00 00    	mov    0x8ddf(%rip),%eax        # 21697 <g_1801+0x17>
   188b8:	48 98                	cltq   
   188ba:	8b 55 fc             	mov    -0x4(%rbp),%edx
   188bd:	48 8d 35 91 4b 00 00 	lea    0x4b91(%rip),%rsi        # 1d455 <g_1798+0x3375>
   188c4:	48 89 c7             	mov    %rax,%rdi
   188c7:	e8 27 ee fe ff       	callq  76f3 <transparent_crc>
   188cc:	0f b7 05 c8 8d 00 00 	movzwl 0x8dc8(%rip),%eax        # 2169b <g_1801+0x1b>
   188d3:	0f b7 c0             	movzwl %ax,%eax
   188d6:	8b 55 fc             	mov    -0x4(%rbp),%edx
   188d9:	48 8d 35 7f 4b 00 00 	lea    0x4b7f(%rip),%rsi        # 1d45f <g_1798+0x337f>
   188e0:	48 89 c7             	mov    %rax,%rdi
   188e3:	e8 0b ee fe ff       	callq  76f3 <transparent_crc>
   188e8:	48 8b 05 ae 8d 00 00 	mov    0x8dae(%rip),%rax        # 2169d <g_1801+0x1d>
   188ef:	8b 55 fc             	mov    -0x4(%rbp),%edx
   188f2:	48 8d 35 70 4b 00 00 	lea    0x4b70(%rip),%rsi        # 1d469 <g_1798+0x3389>
   188f9:	48 89 c7             	mov    %rax,%rdi
   188fc:	e8 f2 ed fe ff       	callq  76f3 <transparent_crc>
   18901:	0f b7 05 9e 8d 00 00 	movzwl 0x8d9e(%rip),%eax        # 216a6 <g_1815>
   18908:	0f b7 c0             	movzwl %ax,%eax
   1890b:	8b 55 fc             	mov    -0x4(%rbp),%edx
   1890e:	48 8d 35 61 4b 00 00 	lea    0x4b61(%rip),%rsi        # 1d476 <g_1798+0x3396>
   18915:	48 89 c7             	mov    %rax,%rdi
   18918:	e8 d6 ed fe ff       	callq  76f3 <transparent_crc>
   1891d:	8b 05 8d 8d 00 00    	mov    0x8d8d(%rip),%eax        # 216b0 <g_1872>
   18923:	48 98                	cltq   
   18925:	8b 55 fc             	mov    -0x4(%rbp),%edx
   18928:	48 8d 35 4e 4b 00 00 	lea    0x4b4e(%rip),%rsi        # 1d47d <g_1798+0x339d>
   1892f:	48 89 c7             	mov    %rax,%rdi
   18932:	e8 bc ed fe ff       	callq  76f3 <transparent_crc>
   18937:	8b 05 77 8d 00 00    	mov    0x8d77(%rip),%eax        # 216b4 <g_1872+0x4>
   1893d:	89 c1                	mov    %eax,%ecx
   1893f:	8b 45 fc             	mov    -0x4(%rbp),%eax
   18942:	89 c2                	mov    %eax,%edx
   18944:	48 8d 35 3c 4b 00 00 	lea    0x4b3c(%rip),%rsi        # 1d487 <g_1798+0x33a7>
   1894b:	48 89 cf             	mov    %rcx,%rdi
   1894e:	e8 a0 ed fe ff       	callq  76f3 <transparent_crc>
   18953:	8b 05 5f 8d 00 00    	mov    0x8d5f(%rip),%eax        # 216b8 <g_1872+0x8>
   18959:	48 98                	cltq   
   1895b:	8b 55 fc             	mov    -0x4(%rbp),%edx
   1895e:	48 8d 35 2c 4b 00 00 	lea    0x4b2c(%rip),%rsi        # 1d491 <g_1798+0x33b1>
   18965:	48 89 c7             	mov    %rax,%rdi
   18968:	e8 86 ed fe ff       	callq  76f3 <transparent_crc>
   1896d:	8b 05 49 8d 00 00    	mov    0x8d49(%rip),%eax        # 216bc <g_1872+0xc>
   18973:	48 98                	cltq   
   18975:	8b 55 fc             	mov    -0x4(%rbp),%edx
   18978:	48 8d 35 1c 4b 00 00 	lea    0x4b1c(%rip),%rsi        # 1d49b <g_1798+0x33bb>
   1897f:	48 89 c7             	mov    %rax,%rdi
   18982:	e8 6c ed fe ff       	callq  76f3 <transparent_crc>
   18987:	48 8b 05 32 8d 00 00 	mov    0x8d32(%rip),%rax        # 216c0 <g_1872+0x10>
   1898e:	25 ff ff ff 03       	and    $0x3ffffff,%eax
   18993:	89 c1                	mov    %eax,%ecx
   18995:	8b 45 fc             	mov    -0x4(%rbp),%eax
   18998:	89 c2                	mov    %eax,%edx
   1899a:	48 8d 35 04 4b 00 00 	lea    0x4b04(%rip),%rsi        # 1d4a5 <g_1798+0x33c5>
   189a1:	48 89 cf             	mov    %rcx,%rdi
   189a4:	e8 4a ed fe ff       	callq  76f3 <transparent_crc>
   189a9:	8b 05 21 8d 00 00    	mov    0x8d21(%rip),%eax        # 216d0 <g_1873>
   189af:	48 98                	cltq   
   189b1:	8b 55 fc             	mov    -0x4(%rbp),%edx
   189b4:	48 8d 35 f4 4a 00 00 	lea    0x4af4(%rip),%rsi        # 1d4af <g_1798+0x33cf>
   189bb:	48 89 c7             	mov    %rax,%rdi
   189be:	e8 30 ed fe ff       	callq  76f3 <transparent_crc>
   189c3:	8b 05 0b 8d 00 00    	mov    0x8d0b(%rip),%eax        # 216d4 <g_1873+0x4>
   189c9:	89 c1                	mov    %eax,%ecx
   189cb:	8b 45 fc             	mov    -0x4(%rbp),%eax
   189ce:	89 c2                	mov    %eax,%edx
   189d0:	48 8d 35 e2 4a 00 00 	lea    0x4ae2(%rip),%rsi        # 1d4b9 <g_1798+0x33d9>
   189d7:	48 89 cf             	mov    %rcx,%rdi
   189da:	e8 14 ed fe ff       	callq  76f3 <transparent_crc>
   189df:	8b 05 f3 8c 00 00    	mov    0x8cf3(%rip),%eax        # 216d8 <g_1873+0x8>
   189e5:	48 98                	cltq   
   189e7:	8b 55 fc             	mov    -0x4(%rbp),%edx
   189ea:	48 8d 35 d2 4a 00 00 	lea    0x4ad2(%rip),%rsi        # 1d4c3 <g_1798+0x33e3>
   189f1:	48 89 c7             	mov    %rax,%rdi
   189f4:	e8 fa ec fe ff       	callq  76f3 <transparent_crc>
   189f9:	8b 05 dd 8c 00 00    	mov    0x8cdd(%rip),%eax        # 216dc <g_1873+0xc>
   189ff:	48 98                	cltq   
   18a01:	8b 55 fc             	mov    -0x4(%rbp),%edx
   18a04:	48 8d 35 c2 4a 00 00 	lea    0x4ac2(%rip),%rsi        # 1d4cd <g_1798+0x33ed>
   18a0b:	48 89 c7             	mov    %rax,%rdi
   18a0e:	e8 e0 ec fe ff       	callq  76f3 <transparent_crc>
   18a13:	48 8b 05 c6 8c 00 00 	mov    0x8cc6(%rip),%rax        # 216e0 <g_1873+0x10>
   18a1a:	25 ff ff ff 03       	and    $0x3ffffff,%eax
   18a1f:	89 c1                	mov    %eax,%ecx
   18a21:	8b 45 fc             	mov    -0x4(%rbp),%eax
   18a24:	89 c2                	mov    %eax,%edx
   18a26:	48 8d 35 aa 4a 00 00 	lea    0x4aaa(%rip),%rsi        # 1d4d7 <g_1798+0x33f7>
   18a2d:	48 89 cf             	mov    %rcx,%rdi
   18a30:	e8 be ec fe ff       	callq  76f3 <transparent_crc>
   18a35:	c7 45 f0 00 00 00 00 	movl   $0x0,-0x10(%rbp)
   18a3c:	e9 66 02 00 00       	jmpq   18ca7 <main+0x3538>
   18a41:	c7 45 f4 00 00 00 00 	movl   $0x0,-0xc(%rbp)
   18a48:	e9 4c 02 00 00       	jmpq   18c99 <main+0x352a>
   18a4d:	8b 45 f4             	mov    -0xc(%rbp),%eax
   18a50:	48 63 d0             	movslq %eax,%rdx
   18a53:	8b 45 f0             	mov    -0x10(%rbp),%eax
   18a56:	48 63 c8             	movslq %eax,%rcx
   18a59:	48 89 d0             	mov    %rdx,%rax
   18a5c:	48 c1 e0 03          	shl    $0x3,%rax
   18a60:	48 01 d0             	add    %rdx,%rax
   18a63:	48 c1 e0 02          	shl    $0x2,%rax
   18a67:	48 01 d0             	add    %rdx,%rax
   18a6a:	48 6b d1 6f          	imul   $0x6f,%rcx,%rdx
   18a6e:	48 01 c2             	add    %rax,%rdx
   18a71:	48 8d 05 88 8c 00 00 	lea    0x8c88(%rip),%rax        # 21700 <g_1889>
   18a78:	48 01 d0             	add    %rdx,%rax
   18a7b:	48 8b 00             	mov    (%rax),%rax
   18a7e:	8b 55 fc             	mov    -0x4(%rbp),%edx
   18a81:	48 8d 35 59 4a 00 00 	lea    0x4a59(%rip),%rsi        # 1d4e1 <g_1798+0x3401>
   18a88:	48 89 c7             	mov    %rax,%rdi
   18a8b:	e8 63 ec fe ff       	callq  76f3 <transparent_crc>
   18a90:	8b 45 f4             	mov    -0xc(%rbp),%eax
   18a93:	48 63 d0             	movslq %eax,%rdx
   18a96:	8b 45 f0             	mov    -0x10(%rbp),%eax
   18a99:	48 63 c8             	movslq %eax,%rcx
   18a9c:	48 89 d0             	mov    %rdx,%rax
   18a9f:	48 c1 e0 03          	shl    $0x3,%rax
   18aa3:	48 01 d0             	add    %rdx,%rax
   18aa6:	48 c1 e0 02          	shl    $0x2,%rax
   18aaa:	48 01 d0             	add    %rdx,%rax
   18aad:	48 6b d1 6f          	imul   $0x6f,%rcx,%rdx
   18ab1:	48 01 c2             	add    %rax,%rdx
   18ab4:	48 8d 05 4d 8c 00 00 	lea    0x8c4d(%rip),%rax        # 21708 <g_1889+0x8>
   18abb:	48 01 d0             	add    %rdx,%rax
   18abe:	8b 00                	mov    (%rax),%eax
   18ac0:	48 98                	cltq   
   18ac2:	8b 55 fc             	mov    -0x4(%rbp),%edx
   18ac5:	48 8d 35 28 4a 00 00 	lea    0x4a28(%rip),%rsi        # 1d4f4 <g_1798+0x3414>
   18acc:	48 89 c7             	mov    %rax,%rdi
   18acf:	e8 1f ec fe ff       	callq  76f3 <transparent_crc>
   18ad4:	8b 45 f4             	mov    -0xc(%rbp),%eax
   18ad7:	48 63 d0             	movslq %eax,%rdx
   18ada:	8b 45 f0             	mov    -0x10(%rbp),%eax
   18add:	48 63 c8             	movslq %eax,%rcx
   18ae0:	48 89 d0             	mov    %rdx,%rax
   18ae3:	48 c1 e0 03          	shl    $0x3,%rax
   18ae7:	48 01 d0             	add    %rdx,%rax
   18aea:	48 c1 e0 02          	shl    $0x2,%rax
   18aee:	48 01 d0             	add    %rdx,%rax
   18af1:	48 6b d1 6f          	imul   $0x6f,%rcx,%rdx
   18af5:	48 01 c2             	add    %rax,%rdx
   18af8:	48 8d 05 0d 8c 00 00 	lea    0x8c0d(%rip),%rax        # 2170c <g_1889+0xc>
   18aff:	48 01 d0             	add    %rdx,%rax
   18b02:	0f b6 00             	movzbl (%rax),%eax
   18b05:	0f b6 c0             	movzbl %al,%eax
   18b08:	8b 55 fc             	mov    -0x4(%rbp),%edx
   18b0b:	48 8d 35 f2 49 00 00 	lea    0x49f2(%rip),%rsi        # 1d504 <g_1798+0x3424>
   18b12:	48 89 c7             	mov    %rax,%rdi
   18b15:	e8 d9 eb fe ff       	callq  76f3 <transparent_crc>
   18b1a:	8b 45 f4             	mov    -0xc(%rbp),%eax
   18b1d:	48 63 d0             	movslq %eax,%rdx
   18b20:	8b 45 f0             	mov    -0x10(%rbp),%eax
   18b23:	48 63 c8             	movslq %eax,%rcx
   18b26:	48 89 d0             	mov    %rdx,%rax
   18b29:	48 c1 e0 03          	shl    $0x3,%rax
   18b2d:	48 01 d0             	add    %rdx,%rax
   18b30:	48 c1 e0 02          	shl    $0x2,%rax
   18b34:	48 01 d0             	add    %rdx,%rax
   18b37:	48 6b d1 6f          	imul   $0x6f,%rcx,%rdx
   18b3b:	48 01 c2             	add    %rax,%rdx
   18b3e:	48 8d 05 bb 8b 00 00 	lea    0x8bbb(%rip),%rax        # 21700 <g_1889>
   18b45:	48 01 d0             	add    %rdx,%rax
   18b48:	0f b7 40 0d          	movzwl 0xd(%rax),%eax
   18b4c:	48 0f bf c0          	movswq %ax,%rax
   18b50:	8b 55 fc             	mov    -0x4(%rbp),%edx
   18b53:	48 8d 35 ba 49 00 00 	lea    0x49ba(%rip),%rsi        # 1d514 <g_1798+0x3434>
   18b5a:	48 89 c7             	mov    %rax,%rdi
   18b5d:	e8 91 eb fe ff       	callq  76f3 <transparent_crc>
   18b62:	8b 45 f4             	mov    -0xc(%rbp),%eax
   18b65:	48 63 d0             	movslq %eax,%rdx
   18b68:	8b 45 f0             	mov    -0x10(%rbp),%eax
   18b6b:	48 63 c8             	movslq %eax,%rcx
   18b6e:	48 89 d0             	mov    %rdx,%rax
   18b71:	48 c1 e0 03          	shl    $0x3,%rax
   18b75:	48 01 d0             	add    %rdx,%rax
   18b78:	48 c1 e0 02          	shl    $0x2,%rax
   18b7c:	48 01 d0             	add    %rdx,%rax
   18b7f:	48 6b d1 6f          	imul   $0x6f,%rcx,%rdx
   18b83:	48 01 c2             	add    %rax,%rdx
   18b86:	48 8d 05 73 8b 00 00 	lea    0x8b73(%rip),%rax        # 21700 <g_1889>
   18b8d:	48 01 d0             	add    %rdx,%rax
   18b90:	48 8b 40 0f          	mov    0xf(%rax),%rax
   18b94:	8b 55 fc             	mov    -0x4(%rbp),%edx
   18b97:	48 8d 35 86 49 00 00 	lea    0x4986(%rip),%rsi        # 1d524 <g_1798+0x3444>
   18b9e:	48 89 c7             	mov    %rax,%rdi
   18ba1:	e8 4d eb fe ff       	callq  76f3 <transparent_crc>
   18ba6:	8b 45 f4             	mov    -0xc(%rbp),%eax
   18ba9:	48 63 d0             	movslq %eax,%rdx
   18bac:	8b 45 f0             	mov    -0x10(%rbp),%eax
   18baf:	48 63 c8             	movslq %eax,%rcx
   18bb2:	48 89 d0             	mov    %rdx,%rax
   18bb5:	48 c1 e0 03          	shl    $0x3,%rax
   18bb9:	48 01 d0             	add    %rdx,%rax
   18bbc:	48 c1 e0 02          	shl    $0x2,%rax
   18bc0:	48 01 d0             	add    %rdx,%rax
   18bc3:	48 6b d1 6f          	imul   $0x6f,%rcx,%rdx
   18bc7:	48 01 c2             	add    %rax,%rdx
   18bca:	48 8d 05 3f 8b 00 00 	lea    0x8b3f(%rip),%rax        # 21710 <g_1889+0x10>
   18bd1:	48 01 d0             	add    %rdx,%rax
   18bd4:	8b 40 07             	mov    0x7(%rax),%eax
   18bd7:	48 98                	cltq   
   18bd9:	8b 55 fc             	mov    -0x4(%rbp),%edx
   18bdc:	48 8d 35 51 49 00 00 	lea    0x4951(%rip),%rsi        # 1d534 <g_1798+0x3454>
   18be3:	48 89 c7             	mov    %rax,%rdi
   18be6:	e8 08 eb fe ff       	callq  76f3 <transparent_crc>
   18beb:	8b 45 f4             	mov    -0xc(%rbp),%eax
   18bee:	48 63 d0             	movslq %eax,%rdx
   18bf1:	8b 45 f0             	mov    -0x10(%rbp),%eax
   18bf4:	48 63 c8             	movslq %eax,%rcx
   18bf7:	48 89 d0             	mov    %rdx,%rax
   18bfa:	48 c1 e0 03          	shl    $0x3,%rax
   18bfe:	48 01 d0             	add    %rdx,%rax
   18c01:	48 c1 e0 02          	shl    $0x2,%rax
   18c05:	48 01 d0             	add    %rdx,%rax
   18c08:	48 6b d1 6f          	imul   $0x6f,%rcx,%rdx
   18c0c:	48 01 c2             	add    %rax,%rdx
   18c0f:	48 8d 05 fa 8a 00 00 	lea    0x8afa(%rip),%rax        # 21710 <g_1889+0x10>
   18c16:	48 01 d0             	add    %rdx,%rax
   18c19:	0f b7 40 0b          	movzwl 0xb(%rax),%eax
   18c1d:	0f b7 c0             	movzwl %ax,%eax
   18c20:	8b 55 fc             	mov    -0x4(%rbp),%edx
   18c23:	48 8d 35 1a 49 00 00 	lea    0x491a(%rip),%rsi        # 1d544 <g_1798+0x3464>
   18c2a:	48 89 c7             	mov    %rax,%rdi
   18c2d:	e8 c1 ea fe ff       	callq  76f3 <transparent_crc>
   18c32:	8b 45 f4             	mov    -0xc(%rbp),%eax
   18c35:	48 63 d0             	movslq %eax,%rdx
   18c38:	8b 45 f0             	mov    -0x10(%rbp),%eax
   18c3b:	48 63 c8             	movslq %eax,%rcx
   18c3e:	48 89 d0             	mov    %rdx,%rax
   18c41:	48 c1 e0 03          	shl    $0x3,%rax
   18c45:	48 01 d0             	add    %rdx,%rax
   18c48:	48 c1 e0 02          	shl    $0x2,%rax
   18c4c:	48 01 d0             	add    %rdx,%rax
   18c4f:	48 6b d1 6f          	imul   $0x6f,%rcx,%rdx
   18c53:	48 01 c2             	add    %rax,%rdx
   18c56:	48 8d 05 b3 8a 00 00 	lea    0x8ab3(%rip),%rax        # 21710 <g_1889+0x10>
   18c5d:	48 01 d0             	add    %rdx,%rax
   18c60:	48 8b 40 0d          	mov    0xd(%rax),%rax
   18c64:	8b 55 fc             	mov    -0x4(%rbp),%edx
   18c67:	48 8d 35 e6 48 00 00 	lea    0x48e6(%rip),%rsi        # 1d554 <g_1798+0x3474>
   18c6e:	48 89 c7             	mov    %rax,%rdi
   18c71:	e8 7d ea fe ff       	callq  76f3 <transparent_crc>
   18c76:	83 7d fc 00          	cmpl   $0x0,-0x4(%rbp)
   18c7a:	74 19                	je     18c95 <main+0x3526>
   18c7c:	8b 55 f4             	mov    -0xc(%rbp),%edx
   18c7f:	8b 45 f0             	mov    -0x10(%rbp),%eax
   18c82:	89 c6                	mov    %eax,%esi
   18c84:	48 8d 3d 34 3b 00 00 	lea    0x3b34(%rip),%rdi        # 1c7bf <g_1798+0x26df>
   18c8b:	b8 00 00 00 00       	mov    $0x0,%eax
   18c90:	e8 eb d3 fe ff       	callq  6080 <printf@plt>
   18c95:	83 45 f4 01          	addl   $0x1,-0xc(%rbp)
   18c99:	83 7d f4 02          	cmpl   $0x2,-0xc(%rbp)
   18c9d:	0f 8e aa fd ff ff    	jle    18a4d <main+0x32de>
   18ca3:	83 45 f0 01          	addl   $0x1,-0x10(%rbp)
   18ca7:	83 7d f0 00          	cmpl   $0x0,-0x10(%rbp)
   18cab:	0f 8e 90 fd ff ff    	jle    18a41 <main+0x32d2>
   18cb1:	0f b6 05 b7 8a 00 00 	movzbl 0x8ab7(%rip),%eax        # 2176f <g_1948>
   18cb8:	48 0f be c0          	movsbq %al,%rax
   18cbc:	8b 55 fc             	mov    -0x4(%rbp),%edx
   18cbf:	48 8d 35 a1 48 00 00 	lea    0x48a1(%rip),%rsi        # 1d567 <g_1798+0x3487>
   18cc6:	48 89 c7             	mov    %rax,%rdi
   18cc9:	e8 25 ea fe ff       	callq  76f3 <transparent_crc>
   18cce:	48 8b 05 9b 8a 00 00 	mov    0x8a9b(%rip),%rax        # 21770 <g_1961>
   18cd5:	48 89 c1             	mov    %rax,%rcx
   18cd8:	8b 45 fc             	mov    -0x4(%rbp),%eax
   18cdb:	89 c2                	mov    %eax,%edx
   18cdd:	48 8d 35 8a 48 00 00 	lea    0x488a(%rip),%rsi        # 1d56e <g_1798+0x348e>
   18ce4:	48 89 cf             	mov    %rcx,%rdi
   18ce7:	e8 07 ea fe ff       	callq  76f3 <transparent_crc>
   18cec:	c7 45 f0 00 00 00 00 	movl   $0x0,-0x10(%rbp)
   18cf3:	e9 2b 02 00 00       	jmpq   18f23 <main+0x37b4>
   18cf8:	c7 45 f4 00 00 00 00 	movl   $0x0,-0xc(%rbp)
   18cff:	e9 11 02 00 00       	jmpq   18f15 <main+0x37a6>
   18d04:	c7 45 f8 00 00 00 00 	movl   $0x0,-0x8(%rbp)
   18d0b:	e9 f7 01 00 00       	jmpq   18f07 <main+0x3798>
   18d10:	8b 45 f8             	mov    -0x8(%rbp),%eax
   18d13:	48 63 d0             	movslq %eax,%rdx
   18d16:	8b 45 f4             	mov    -0xc(%rbp),%eax
   18d19:	48 63 c8             	movslq %eax,%rcx
   18d1c:	8b 45 f0             	mov    -0x10(%rbp),%eax
   18d1f:	48 63 f0             	movslq %eax,%rsi
   18d22:	48 89 d0             	mov    %rdx,%rax
   18d25:	48 c1 e0 02          	shl    $0x2,%rax
   18d29:	48 01 d0             	add    %rdx,%rax
   18d2c:	48 c1 e0 02          	shl    $0x2,%rax
   18d30:	48 89 ca             	mov    %rcx,%rdx
   18d33:	48 c1 e2 04          	shl    $0x4,%rdx
   18d37:	48 29 ca             	sub    %rcx,%rdx
   18d3a:	48 c1 e2 02          	shl    $0x2,%rdx
   18d3e:	48 01 c2             	add    %rax,%rdx
   18d41:	48 69 c6 58 02 00 00 	imul   $0x258,%rsi,%rax
   18d48:	48 01 c2             	add    %rax,%rdx
   18d4b:	48 8d 05 2e 8a 00 00 	lea    0x8a2e(%rip),%rax        # 21780 <g_1963>
   18d52:	48 01 d0             	add    %rdx,%rax
   18d55:	8b 00                	mov    (%rax),%eax
   18d57:	48 98                	cltq   
   18d59:	8b 55 fc             	mov    -0x4(%rbp),%edx
   18d5c:	48 8d 35 12 48 00 00 	lea    0x4812(%rip),%rsi        # 1d575 <g_1798+0x3495>
   18d63:	48 89 c7             	mov    %rax,%rdi
   18d66:	e8 88 e9 fe ff       	callq  76f3 <transparent_crc>
   18d6b:	8b 45 f8             	mov    -0x8(%rbp),%eax
   18d6e:	48 63 d0             	movslq %eax,%rdx
   18d71:	8b 45 f4             	mov    -0xc(%rbp),%eax
   18d74:	48 63 c8             	movslq %eax,%rcx
   18d77:	8b 45 f0             	mov    -0x10(%rbp),%eax
   18d7a:	48 63 f0             	movslq %eax,%rsi
   18d7d:	48 89 d0             	mov    %rdx,%rax
   18d80:	48 c1 e0 02          	shl    $0x2,%rax
   18d84:	48 01 d0             	add    %rdx,%rax
   18d87:	48 c1 e0 02          	shl    $0x2,%rax
   18d8b:	48 89 ca             	mov    %rcx,%rdx
   18d8e:	48 c1 e2 04          	shl    $0x4,%rdx
   18d92:	48 29 ca             	sub    %rcx,%rdx
   18d95:	48 c1 e2 02          	shl    $0x2,%rdx
   18d99:	48 01 c2             	add    %rax,%rdx
   18d9c:	48 69 c6 58 02 00 00 	imul   $0x258,%rsi,%rax
   18da3:	48 01 c2             	add    %rax,%rdx
   18da6:	48 8d 05 d7 89 00 00 	lea    0x89d7(%rip),%rax        # 21784 <g_1963+0x4>
   18dad:	48 01 d0             	add    %rdx,%rax
   18db0:	8b 00                	mov    (%rax),%eax
   18db2:	89 c1                	mov    %eax,%ecx
   18db4:	8b 45 fc             	mov    -0x4(%rbp),%eax
   18db7:	89 c2                	mov    %eax,%edx
   18db9:	48 8d 35 c8 47 00 00 	lea    0x47c8(%rip),%rsi        # 1d588 <g_1798+0x34a8>
   18dc0:	48 89 cf             	mov    %rcx,%rdi
   18dc3:	e8 2b e9 fe ff       	callq  76f3 <transparent_crc>
   18dc8:	8b 45 f8             	mov    -0x8(%rbp),%eax
   18dcb:	48 63 d0             	movslq %eax,%rdx
   18dce:	8b 45 f4             	mov    -0xc(%rbp),%eax
   18dd1:	48 63 c8             	movslq %eax,%rcx
   18dd4:	8b 45 f0             	mov    -0x10(%rbp),%eax
   18dd7:	48 63 f0             	movslq %eax,%rsi
   18dda:	48 89 d0             	mov    %rdx,%rax
   18ddd:	48 c1 e0 02          	shl    $0x2,%rax
   18de1:	48 01 d0             	add    %rdx,%rax
   18de4:	48 c1 e0 02          	shl    $0x2,%rax
   18de8:	48 89 ca             	mov    %rcx,%rdx
   18deb:	48 c1 e2 04          	shl    $0x4,%rdx
   18def:	48 29 ca             	sub    %rcx,%rdx
   18df2:	48 c1 e2 02          	shl    $0x2,%rdx
   18df6:	48 01 c2             	add    %rax,%rdx
   18df9:	48 69 c6 58 02 00 00 	imul   $0x258,%rsi,%rax
   18e00:	48 01 c2             	add    %rax,%rdx
   18e03:	48 8d 05 7e 89 00 00 	lea    0x897e(%rip),%rax        # 21788 <g_1963+0x8>
   18e0a:	48 01 d0             	add    %rdx,%rax
   18e0d:	8b 00                	mov    (%rax),%eax
   18e0f:	48 98                	cltq   
   18e11:	8b 55 fc             	mov    -0x4(%rbp),%edx
   18e14:	48 8d 35 80 47 00 00 	lea    0x4780(%rip),%rsi        # 1d59b <g_1798+0x34bb>
   18e1b:	48 89 c7             	mov    %rax,%rdi
   18e1e:	e8 d0 e8 fe ff       	callq  76f3 <transparent_crc>
   18e23:	8b 45 f8             	mov    -0x8(%rbp),%eax
   18e26:	48 63 d0             	movslq %eax,%rdx
   18e29:	8b 45 f4             	mov    -0xc(%rbp),%eax
   18e2c:	48 63 c8             	movslq %eax,%rcx
   18e2f:	8b 45 f0             	mov    -0x10(%rbp),%eax
   18e32:	48 63 f0             	movslq %eax,%rsi
   18e35:	48 89 d0             	mov    %rdx,%rax
   18e38:	48 c1 e0 02          	shl    $0x2,%rax
   18e3c:	48 01 d0             	add    %rdx,%rax
   18e3f:	48 c1 e0 02          	shl    $0x2,%rax
   18e43:	48 89 ca             	mov    %rcx,%rdx
   18e46:	48 c1 e2 04          	shl    $0x4,%rdx
   18e4a:	48 29 ca             	sub    %rcx,%rdx
   18e4d:	48 c1 e2 02          	shl    $0x2,%rdx
   18e51:	48 01 c2             	add    %rax,%rdx
   18e54:	48 69 c6 58 02 00 00 	imul   $0x258,%rsi,%rax
   18e5b:	48 01 c2             	add    %rax,%rdx
   18e5e:	48 8d 05 27 89 00 00 	lea    0x8927(%rip),%rax        # 2178c <g_1963+0xc>
   18e65:	48 01 d0             	add    %rdx,%rax
   18e68:	8b 00                	mov    (%rax),%eax
   18e6a:	48 98                	cltq   
   18e6c:	8b 55 fc             	mov    -0x4(%rbp),%edx
   18e6f:	48 8d 35 38 47 00 00 	lea    0x4738(%rip),%rsi        # 1d5ae <g_1798+0x34ce>
   18e76:	48 89 c7             	mov    %rax,%rdi
   18e79:	e8 75 e8 fe ff       	callq  76f3 <transparent_crc>
   18e7e:	8b 45 f8             	mov    -0x8(%rbp),%eax
   18e81:	48 63 c8             	movslq %eax,%rcx
   18e84:	8b 45 f4             	mov    -0xc(%rbp),%eax
   18e87:	48 63 d0             	movslq %eax,%rdx
   18e8a:	8b 45 f0             	mov    -0x10(%rbp),%eax
   18e8d:	48 63 f0             	movslq %eax,%rsi
   18e90:	48 89 c8             	mov    %rcx,%rax
   18e93:	48 c1 e0 02          	shl    $0x2,%rax
   18e97:	48 01 c8             	add    %rcx,%rax
   18e9a:	48 c1 e0 02          	shl    $0x2,%rax
   18e9e:	48 69 ce 58 02 00 00 	imul   $0x258,%rsi,%rcx
   18ea5:	48 01 c1             	add    %rax,%rcx
   18ea8:	48 89 d0             	mov    %rdx,%rax
   18eab:	48 c1 e0 04          	shl    $0x4,%rax
   18eaf:	48 29 d0             	sub    %rdx,%rax
   18eb2:	48 c1 e0 02          	shl    $0x2,%rax
   18eb6:	48 8d 14 01          	lea    (%rcx,%rax,1),%rdx
   18eba:	48 8d 05 cf 88 00 00 	lea    0x88cf(%rip),%rax        # 21790 <g_1963+0x10>
   18ec1:	48 01 d0             	add    %rdx,%rax
   18ec4:	8b 00                	mov    (%rax),%eax
   18ec6:	25 ff ff ff 03       	and    $0x3ffffff,%eax
   18ecb:	89 c1                	mov    %eax,%ecx
   18ecd:	8b 45 fc             	mov    -0x4(%rbp),%eax
   18ed0:	89 c2                	mov    %eax,%edx
   18ed2:	48 8d 35 e8 46 00 00 	lea    0x46e8(%rip),%rsi        # 1d5c1 <g_1798+0x34e1>
   18ed9:	48 89 cf             	mov    %rcx,%rdi
   18edc:	e8 12 e8 fe ff       	callq  76f3 <transparent_crc>
   18ee1:	83 7d fc 00          	cmpl   $0x0,-0x4(%rbp)
   18ee5:	74 1c                	je     18f03 <main+0x3794>
   18ee7:	8b 4d f8             	mov    -0x8(%rbp),%ecx
   18eea:	8b 55 f4             	mov    -0xc(%rbp),%edx
   18eed:	8b 45 f0             	mov    -0x10(%rbp),%eax
   18ef0:	89 c6                	mov    %eax,%esi
   18ef2:	48 8d 3d bb 3a 00 00 	lea    0x3abb(%rip),%rdi        # 1c9b4 <g_1798+0x28d4>
   18ef9:	b8 00 00 00 00       	mov    $0x0,%eax
   18efe:	e8 7d d1 fe ff       	callq  6080 <printf@plt>
   18f03:	83 45 f8 01          	addl   $0x1,-0x8(%rbp)
   18f07:	83 7d f8 02          	cmpl   $0x2,-0x8(%rbp)
   18f0b:	0f 8e ff fd ff ff    	jle    18d10 <main+0x35a1>
   18f11:	83 45 f4 01          	addl   $0x1,-0xc(%rbp)
   18f15:	83 7d f4 09          	cmpl   $0x9,-0xc(%rbp)
   18f19:	0f 8e e5 fd ff ff    	jle    18d04 <main+0x3595>
   18f1f:	83 45 f0 01          	addl   $0x1,-0x10(%rbp)
   18f23:	83 7d f0 06          	cmpl   $0x6,-0x10(%rbp)
   18f27:	0f 8e cb fd ff ff    	jle    18cf8 <main+0x3589>
   18f2d:	8b 05 cd 98 00 00    	mov    0x98cd(%rip),%eax        # 22800 <g_1980>
   18f33:	48 98                	cltq   
   18f35:	8b 55 fc             	mov    -0x4(%rbp),%edx
   18f38:	48 8d 35 95 46 00 00 	lea    0x4695(%rip),%rsi        # 1d5d4 <g_1798+0x34f4>
   18f3f:	48 89 c7             	mov    %rax,%rdi
   18f42:	e8 ac e7 fe ff       	callq  76f3 <transparent_crc>
   18f47:	48 8b 05 b2 98 00 00 	mov    0x98b2(%rip),%rax        # 22800 <g_1980>
   18f4e:	c1 e0 03             	shl    $0x3,%eax
   18f51:	66 c1 f8 03          	sar    $0x3,%ax
   18f55:	48 0f bf c0          	movswq %ax,%rax
   18f59:	8b 55 fc             	mov    -0x4(%rbp),%edx
   18f5c:	48 8d 35 7b 46 00 00 	lea    0x467b(%rip),%rsi        # 1d5de <g_1798+0x34fe>
   18f63:	48 89 c7             	mov    %rax,%rdi
   18f66:	e8 88 e7 fe ff       	callq  76f3 <transparent_crc>
   18f6b:	8b 05 cf 98 00 00    	mov    0x98cf(%rip),%eax        # 22840 <g_1982>
   18f71:	48 98                	cltq   
   18f73:	8b 55 fc             	mov    -0x4(%rbp),%edx
   18f76:	48 8d 35 6b 46 00 00 	lea    0x466b(%rip),%rsi        # 1d5e8 <g_1798+0x3508>
   18f7d:	48 89 c7             	mov    %rax,%rdi
   18f80:	e8 6e e7 fe ff       	callq  76f3 <transparent_crc>
   18f85:	48 8b 05 b4 98 00 00 	mov    0x98b4(%rip),%rax        # 22840 <g_1982>
   18f8c:	c1 e0 03             	shl    $0x3,%eax
   18f8f:	66 c1 f8 03          	sar    $0x3,%ax
   18f93:	48 0f bf c0          	movswq %ax,%rax
   18f97:	8b 55 fc             	mov    -0x4(%rbp),%edx
   18f9a:	48 8d 35 51 46 00 00 	lea    0x4651(%rip),%rsi        # 1d5f2 <g_1798+0x3512>
   18fa1:	48 89 c7             	mov    %rax,%rdi
   18fa4:	e8 4a e7 fe ff       	callq  76f3 <transparent_crc>
   18fa9:	c7 45 f0 00 00 00 00 	movl   $0x0,-0x10(%rbp)
   18fb0:	eb 4a                	jmp    18ffc <main+0x388d>
   18fb2:	8b 45 f0             	mov    -0x10(%rbp),%eax
   18fb5:	48 98                	cltq   
   18fb7:	48 8d 14 c5 00 00 00 	lea    0x0(,%rax,8),%rdx
   18fbe:	00 
   18fbf:	48 8d 05 ba 98 00 00 	lea    0x98ba(%rip),%rax        # 22880 <g_1995>
   18fc6:	48 8b 04 02          	mov    (%rdx,%rax,1),%rax
   18fca:	8b 55 fc             	mov    -0x4(%rbp),%edx
   18fcd:	48 8d 35 28 46 00 00 	lea    0x4628(%rip),%rsi        # 1d5fc <g_1798+0x351c>
   18fd4:	48 89 c7             	mov    %rax,%rdi
   18fd7:	e8 17 e7 fe ff       	callq  76f3 <transparent_crc>
   18fdc:	83 7d fc 00          	cmpl   $0x0,-0x4(%rbp)
   18fe0:	74 16                	je     18ff8 <main+0x3889>
   18fe2:	8b 45 f0             	mov    -0x10(%rbp),%eax
   18fe5:	89 c6                	mov    %eax,%esi
   18fe7:	48 8d 3d 9b 37 00 00 	lea    0x379b(%rip),%rdi        # 1c789 <g_1798+0x26a9>
   18fee:	b8 00 00 00 00       	mov    $0x0,%eax
   18ff3:	e8 88 d0 fe ff       	callq  6080 <printf@plt>
   18ff8:	83 45 f0 01          	addl   $0x1,-0x10(%rbp)
   18ffc:	83 7d f0 07          	cmpl   $0x7,-0x10(%rbp)
   19000:	7e b0                	jle    18fb2 <main+0x3843>
   19002:	48 8b 05 b7 98 00 00 	mov    0x98b7(%rip),%rax        # 228c0 <g_2008>
   19009:	8b 55 fc             	mov    -0x4(%rbp),%edx
   1900c:	48 8d 35 f6 45 00 00 	lea    0x45f6(%rip),%rsi        # 1d609 <g_1798+0x3529>
   19013:	48 89 c7             	mov    %rax,%rdi
   19016:	e8 d8 e6 fe ff       	callq  76f3 <transparent_crc>
   1901b:	48 8b 05 ae ea 00 00 	mov    0xeaae(%rip),%rax        # 27ad0 <g_2011>
   19022:	8b 55 fc             	mov    -0x4(%rbp),%edx
   19025:	48 8d 35 e7 45 00 00 	lea    0x45e7(%rip),%rsi        # 1d613 <g_1798+0x3533>
   1902c:	48 89 c7             	mov    %rax,%rdi
   1902f:	e8 bf e6 fe ff       	callq  76f3 <transparent_crc>
   19034:	0f b7 05 8d 98 00 00 	movzwl 0x988d(%rip),%eax        # 228c8 <g_2036>
   1903b:	48 0f bf c0          	movswq %ax,%rax
   1903f:	8b 55 fc             	mov    -0x4(%rbp),%edx
   19042:	48 8d 35 d4 45 00 00 	lea    0x45d4(%rip),%rsi        # 1d61d <g_1798+0x353d>
   19049:	48 89 c7             	mov    %rax,%rdi
   1904c:	e8 a2 e6 fe ff       	callq  76f3 <transparent_crc>
   19051:	c7 45 f0 00 00 00 00 	movl   $0x0,-0x10(%rbp)
   19058:	e9 f3 03 00 00       	jmpq   19450 <main+0x3ce1>
   1905d:	c7 45 f4 00 00 00 00 	movl   $0x0,-0xc(%rbp)
   19064:	e9 d9 03 00 00       	jmpq   19442 <main+0x3cd3>
   19069:	c7 45 f8 00 00 00 00 	movl   $0x0,-0x8(%rbp)
   19070:	e9 bf 03 00 00       	jmpq   19434 <main+0x3cc5>
   19075:	8b 45 f8             	mov    -0x8(%rbp),%eax
   19078:	48 98                	cltq   
   1907a:	8b 55 f4             	mov    -0xc(%rbp),%edx
   1907d:	48 63 f2             	movslq %edx,%rsi
   19080:	8b 55 f0             	mov    -0x10(%rbp),%edx
   19083:	48 63 ca             	movslq %edx,%rcx
   19086:	48 89 c2             	mov    %rax,%rdx
   19089:	48 c1 e2 03          	shl    $0x3,%rdx
   1908d:	48 01 c2             	add    %rax,%rdx
   19090:	48 c1 e2 02          	shl    $0x2,%rdx
   19094:	48 01 c2             	add    %rax,%rdx
   19097:	48 89 f0             	mov    %rsi,%rax
   1909a:	48 c1 e0 03          	shl    $0x3,%rax
   1909e:	48 01 f0             	add    %rsi,%rax
   190a1:	48 c1 e0 02          	shl    $0x2,%rax
   190a5:	48 01 f0             	add    %rsi,%rax
   190a8:	48 c1 e0 03          	shl    $0x3,%rax
   190ac:	48 01 c2             	add    %rax,%rdx
   190af:	48 89 c8             	mov    %rcx,%rax
   190b2:	48 c1 e0 03          	shl    $0x3,%rax
   190b6:	48 01 c8             	add    %rcx,%rax
   190b9:	48 c1 e0 02          	shl    $0x2,%rax
   190bd:	48 01 c8             	add    %rcx,%rax
   190c0:	48 c1 e0 06          	shl    $0x6,%rax
   190c4:	48 01 c2             	add    %rax,%rdx
   190c7:	48 8d 05 12 98 00 00 	lea    0x9812(%rip),%rax        # 228e0 <g_2037>
   190ce:	48 01 d0             	add    %rdx,%rax
   190d1:	48 8b 00             	mov    (%rax),%rax
   190d4:	8b 55 fc             	mov    -0x4(%rbp),%edx
   190d7:	48 8d 35 46 45 00 00 	lea    0x4546(%rip),%rsi        # 1d624 <g_1798+0x3544>
   190de:	48 89 c7             	mov    %rax,%rdi
   190e1:	e8 0d e6 fe ff       	callq  76f3 <transparent_crc>
   190e6:	8b 45 f8             	mov    -0x8(%rbp),%eax
   190e9:	48 98                	cltq   
   190eb:	8b 55 f4             	mov    -0xc(%rbp),%edx
   190ee:	48 63 f2             	movslq %edx,%rsi
   190f1:	8b 55 f0             	mov    -0x10(%rbp),%edx
   190f4:	48 63 ca             	movslq %edx,%rcx
   190f7:	48 89 c2             	mov    %rax,%rdx
   190fa:	48 c1 e2 03          	shl    $0x3,%rdx
   190fe:	48 01 c2             	add    %rax,%rdx
   19101:	48 c1 e2 02          	shl    $0x2,%rdx
   19105:	48 01 c2             	add    %rax,%rdx
   19108:	48 89 f0             	mov    %rsi,%rax
   1910b:	48 c1 e0 03          	shl    $0x3,%rax
   1910f:	48 01 f0             	add    %rsi,%rax
   19112:	48 c1 e0 02          	shl    $0x2,%rax
   19116:	48 01 f0             	add    %rsi,%rax
   19119:	48 c1 e0 03          	shl    $0x3,%rax
   1911d:	48 01 c2             	add    %rax,%rdx
   19120:	48 89 c8             	mov    %rcx,%rax
   19123:	48 c1 e0 03          	shl    $0x3,%rax
   19127:	48 01 c8             	add    %rcx,%rax
   1912a:	48 c1 e0 02          	shl    $0x2,%rax
   1912e:	48 01 c8             	add    %rcx,%rax
   19131:	48 c1 e0 06          	shl    $0x6,%rax
   19135:	48 01 c2             	add    %rax,%rdx
   19138:	48 8d 05 a9 97 00 00 	lea    0x97a9(%rip),%rax        # 228e8 <g_2037+0x8>
   1913f:	48 01 d0             	add    %rdx,%rax
   19142:	8b 00                	mov    (%rax),%eax
   19144:	48 98                	cltq   
   19146:	8b 55 fc             	mov    -0x4(%rbp),%edx
   19149:	48 8d 35 ea 44 00 00 	lea    0x44ea(%rip),%rsi        # 1d63a <g_1798+0x355a>
   19150:	48 89 c7             	mov    %rax,%rdi
   19153:	e8 9b e5 fe ff       	callq  76f3 <transparent_crc>
   19158:	8b 45 f8             	mov    -0x8(%rbp),%eax
   1915b:	48 98                	cltq   
   1915d:	8b 55 f4             	mov    -0xc(%rbp),%edx
   19160:	48 63 f2             	movslq %edx,%rsi
   19163:	8b 55 f0             	mov    -0x10(%rbp),%edx
   19166:	48 63 ca             	movslq %edx,%rcx
   19169:	48 89 c2             	mov    %rax,%rdx
   1916c:	48 c1 e2 03          	shl    $0x3,%rdx
   19170:	48 01 c2             	add    %rax,%rdx
   19173:	48 c1 e2 02          	shl    $0x2,%rdx
   19177:	48 01 c2             	add    %rax,%rdx
   1917a:	48 89 f0             	mov    %rsi,%rax
   1917d:	48 c1 e0 03          	shl    $0x3,%rax
   19181:	48 01 f0             	add    %rsi,%rax
   19184:	48 c1 e0 02          	shl    $0x2,%rax
   19188:	48 01 f0             	add    %rsi,%rax
   1918b:	48 c1 e0 03          	shl    $0x3,%rax
   1918f:	48 01 c2             	add    %rax,%rdx
   19192:	48 89 c8             	mov    %rcx,%rax
   19195:	48 c1 e0 03          	shl    $0x3,%rax
   19199:	48 01 c8             	add    %rcx,%rax
   1919c:	48 c1 e0 02          	shl    $0x2,%rax
   191a0:	48 01 c8             	add    %rcx,%rax
   191a3:	48 c1 e0 06          	shl    $0x6,%rax
   191a7:	48 01 c2             	add    %rax,%rdx
   191aa:	48 8d 05 3b 97 00 00 	lea    0x973b(%rip),%rax        # 228ec <g_2037+0xc>
   191b1:	48 01 d0             	add    %rdx,%rax
   191b4:	0f b6 00             	movzbl (%rax),%eax
   191b7:	0f b6 c0             	movzbl %al,%eax
   191ba:	8b 55 fc             	mov    -0x4(%rbp),%edx
   191bd:	48 8d 35 89 44 00 00 	lea    0x4489(%rip),%rsi        # 1d64d <g_1798+0x356d>
   191c4:	48 89 c7             	mov    %rax,%rdi
   191c7:	e8 27 e5 fe ff       	callq  76f3 <transparent_crc>
   191cc:	8b 45 f8             	mov    -0x8(%rbp),%eax
   191cf:	48 98                	cltq   
   191d1:	8b 55 f4             	mov    -0xc(%rbp),%edx
   191d4:	48 63 f2             	movslq %edx,%rsi
   191d7:	8b 55 f0             	mov    -0x10(%rbp),%edx
   191da:	48 63 ca             	movslq %edx,%rcx
   191dd:	48 89 c2             	mov    %rax,%rdx
   191e0:	48 c1 e2 03          	shl    $0x3,%rdx
   191e4:	48 01 c2             	add    %rax,%rdx
   191e7:	48 c1 e2 02          	shl    $0x2,%rdx
   191eb:	48 01 c2             	add    %rax,%rdx
   191ee:	48 89 f0             	mov    %rsi,%rax
   191f1:	48 c1 e0 03          	shl    $0x3,%rax
   191f5:	48 01 f0             	add    %rsi,%rax
   191f8:	48 c1 e0 02          	shl    $0x2,%rax
   191fc:	48 01 f0             	add    %rsi,%rax
   191ff:	48 c1 e0 03          	shl    $0x3,%rax
   19203:	48 01 c2             	add    %rax,%rdx
   19206:	48 89 c8             	mov    %rcx,%rax
   19209:	48 c1 e0 03          	shl    $0x3,%rax
   1920d:	48 01 c8             	add    %rcx,%rax
   19210:	48 c1 e0 02          	shl    $0x2,%rax
   19214:	48 01 c8             	add    %rcx,%rax
   19217:	48 c1 e0 06          	shl    $0x6,%rax
   1921b:	48 01 c2             	add    %rax,%rdx
   1921e:	48 8d 05 bb 96 00 00 	lea    0x96bb(%rip),%rax        # 228e0 <g_2037>
   19225:	48 01 d0             	add    %rdx,%rax
   19228:	0f b7 40 0d          	movzwl 0xd(%rax),%eax
   1922c:	48 0f bf c0          	movswq %ax,%rax
   19230:	8b 55 fc             	mov    -0x4(%rbp),%edx
   19233:	48 8d 35 26 44 00 00 	lea    0x4426(%rip),%rsi        # 1d660 <g_1798+0x3580>
   1923a:	48 89 c7             	mov    %rax,%rdi
   1923d:	e8 b1 e4 fe ff       	callq  76f3 <transparent_crc>
   19242:	8b 45 f8             	mov    -0x8(%rbp),%eax
   19245:	48 98                	cltq   
   19247:	8b 55 f4             	mov    -0xc(%rbp),%edx
   1924a:	48 63 f2             	movslq %edx,%rsi
   1924d:	8b 55 f0             	mov    -0x10(%rbp),%edx
   19250:	48 63 ca             	movslq %edx,%rcx
   19253:	48 89 c2             	mov    %rax,%rdx
   19256:	48 c1 e2 03          	shl    $0x3,%rdx
   1925a:	48 01 c2             	add    %rax,%rdx
   1925d:	48 c1 e2 02          	shl    $0x2,%rdx
   19261:	48 01 c2             	add    %rax,%rdx
   19264:	48 89 f0             	mov    %rsi,%rax
   19267:	48 c1 e0 03          	shl    $0x3,%rax
   1926b:	48 01 f0             	add    %rsi,%rax
   1926e:	48 c1 e0 02          	shl    $0x2,%rax
   19272:	48 01 f0             	add    %rsi,%rax
   19275:	48 c1 e0 03          	shl    $0x3,%rax
   19279:	48 01 c2             	add    %rax,%rdx
   1927c:	48 89 c8             	mov    %rcx,%rax
   1927f:	48 c1 e0 03          	shl    $0x3,%rax
   19283:	48 01 c8             	add    %rcx,%rax
   19286:	48 c1 e0 02          	shl    $0x2,%rax
   1928a:	48 01 c8             	add    %rcx,%rax
   1928d:	48 c1 e0 06          	shl    $0x6,%rax
   19291:	48 01 c2             	add    %rax,%rdx
   19294:	48 8d 05 45 96 00 00 	lea    0x9645(%rip),%rax        # 228e0 <g_2037>
   1929b:	48 01 d0             	add    %rdx,%rax
   1929e:	48 8b 40 0f          	mov    0xf(%rax),%rax
   192a2:	8b 55 fc             	mov    -0x4(%rbp),%edx
   192a5:	48 8d 35 c7 43 00 00 	lea    0x43c7(%rip),%rsi        # 1d673 <g_1798+0x3593>
   192ac:	48 89 c7             	mov    %rax,%rdi
   192af:	e8 3f e4 fe ff       	callq  76f3 <transparent_crc>
   192b4:	8b 45 f8             	mov    -0x8(%rbp),%eax
   192b7:	48 98                	cltq   
   192b9:	8b 55 f4             	mov    -0xc(%rbp),%edx
   192bc:	48 63 ca             	movslq %edx,%rcx
   192bf:	8b 55 f0             	mov    -0x10(%rbp),%edx
   192c2:	48 63 f2             	movslq %edx,%rsi
   192c5:	48 89 c2             	mov    %rax,%rdx
   192c8:	48 c1 e2 03          	shl    $0x3,%rdx
   192cc:	48 01 c2             	add    %rax,%rdx
   192cf:	48 c1 e2 02          	shl    $0x2,%rdx
   192d3:	48 01 c2             	add    %rax,%rdx
   192d6:	48 89 f0             	mov    %rsi,%rax
   192d9:	48 c1 e0 03          	shl    $0x3,%rax
   192dd:	48 01 f0             	add    %rsi,%rax
   192e0:	48 c1 e0 02          	shl    $0x2,%rax
   192e4:	48 01 f0             	add    %rsi,%rax
   192e7:	48 c1 e0 06          	shl    $0x6,%rax
   192eb:	48 01 c2             	add    %rax,%rdx
   192ee:	48 89 c8             	mov    %rcx,%rax
   192f1:	48 c1 e0 03          	shl    $0x3,%rax
   192f5:	48 01 c8             	add    %rcx,%rax
   192f8:	48 c1 e0 02          	shl    $0x2,%rax
   192fc:	48 01 c8             	add    %rcx,%rax
   192ff:	48 c1 e0 03          	shl    $0x3,%rax
   19303:	48 01 c2             	add    %rax,%rdx
   19306:	48 8d 05 e3 95 00 00 	lea    0x95e3(%rip),%rax        # 228f0 <g_2037+0x10>
   1930d:	48 01 d0             	add    %rdx,%rax
   19310:	8b 40 07             	mov    0x7(%rax),%eax
   19313:	48 98                	cltq   
   19315:	8b 55 fc             	mov    -0x4(%rbp),%edx
   19318:	48 8d 35 67 43 00 00 	lea    0x4367(%rip),%rsi        # 1d686 <g_1798+0x35a6>
   1931f:	48 89 c7             	mov    %rax,%rdi
   19322:	e8 cc e3 fe ff       	callq  76f3 <transparent_crc>
   19327:	8b 45 f8             	mov    -0x8(%rbp),%eax
   1932a:	48 98                	cltq   
   1932c:	8b 55 f4             	mov    -0xc(%rbp),%edx
   1932f:	48 63 ca             	movslq %edx,%rcx
   19332:	8b 55 f0             	mov    -0x10(%rbp),%edx
   19335:	48 63 f2             	movslq %edx,%rsi
   19338:	48 89 c2             	mov    %rax,%rdx
   1933b:	48 c1 e2 03          	shl    $0x3,%rdx
   1933f:	48 01 c2             	add    %rax,%rdx
   19342:	48 c1 e2 02          	shl    $0x2,%rdx
   19346:	48 01 c2             	add    %rax,%rdx
   19349:	48 89 f0             	mov    %rsi,%rax
   1934c:	48 c1 e0 03          	shl    $0x3,%rax
   19350:	48 01 f0             	add    %rsi,%rax
   19353:	48 c1 e0 02          	shl    $0x2,%rax
   19357:	48 01 f0             	add    %rsi,%rax
   1935a:	48 c1 e0 06          	shl    $0x6,%rax
   1935e:	48 01 c2             	add    %rax,%rdx
   19361:	48 89 c8             	mov    %rcx,%rax
   19364:	48 c1 e0 03          	shl    $0x3,%rax
   19368:	48 01 c8             	add    %rcx,%rax
   1936b:	48 c1 e0 02          	shl    $0x2,%rax
   1936f:	48 01 c8             	add    %rcx,%rax
   19372:	48 c1 e0 03          	shl    $0x3,%rax
   19376:	48 01 c2             	add    %rax,%rdx
   19379:	48 8d 05 70 95 00 00 	lea    0x9570(%rip),%rax        # 228f0 <g_2037+0x10>
   19380:	48 01 d0             	add    %rdx,%rax
   19383:	0f b7 40 0b          	movzwl 0xb(%rax),%eax
   19387:	0f b7 c0             	movzwl %ax,%eax
   1938a:	8b 55 fc             	mov    -0x4(%rbp),%edx
   1938d:	48 8d 35 05 43 00 00 	lea    0x4305(%rip),%rsi        # 1d699 <g_1798+0x35b9>
   19394:	48 89 c7             	mov    %rax,%rdi
   19397:	e8 57 e3 fe ff       	callq  76f3 <transparent_crc>
   1939c:	8b 45 f8             	mov    -0x8(%rbp),%eax
   1939f:	48 98                	cltq   
   193a1:	8b 55 f4             	mov    -0xc(%rbp),%edx
   193a4:	48 63 ca             	movslq %edx,%rcx
   193a7:	8b 55 f0             	mov    -0x10(%rbp),%edx
   193aa:	48 63 f2             	movslq %edx,%rsi
   193ad:	48 89 c2             	mov    %rax,%rdx
   193b0:	48 c1 e2 03          	shl    $0x3,%rdx
   193b4:	48 01 c2             	add    %rax,%rdx
   193b7:	48 c1 e2 02          	shl    $0x2,%rdx
   193bb:	48 01 c2             	add    %rax,%rdx
   193be:	48 89 f0             	mov    %rsi,%rax
   193c1:	48 c1 e0 03          	shl    $0x3,%rax
   193c5:	48 01 f0             	add    %rsi,%rax
   193c8:	48 c1 e0 02          	shl    $0x2,%rax
   193cc:	48 01 f0             	add    %rsi,%rax
   193cf:	48 c1 e0 06          	shl    $0x6,%rax
   193d3:	48 01 c2             	add    %rax,%rdx
   193d6:	48 89 c8             	mov    %rcx,%rax
   193d9:	48 c1 e0 03          	shl    $0x3,%rax
   193dd:	48 01 c8             	add    %rcx,%rax
   193e0:	48 c1 e0 02          	shl    $0x2,%rax
   193e4:	48 01 c8             	add    %rcx,%rax
   193e7:	48 c1 e0 03          	shl    $0x3,%rax
   193eb:	48 01 c2             	add    %rax,%rdx
   193ee:	48 8d 05 fb 94 00 00 	lea    0x94fb(%rip),%rax        # 228f0 <g_2037+0x10>
   193f5:	48 01 d0             	add    %rdx,%rax
   193f8:	48 8b 40 0d          	mov    0xd(%rax),%rax
   193fc:	8b 55 fc             	mov    -0x4(%rbp),%edx
   193ff:	48 8d 35 a6 42 00 00 	lea    0x42a6(%rip),%rsi        # 1d6ac <g_1798+0x35cc>
   19406:	48 89 c7             	mov    %rax,%rdi
   19409:	e8 e5 e2 fe ff       	callq  76f3 <transparent_crc>
   1940e:	83 7d fc 00          	cmpl   $0x0,-0x4(%rbp)
   19412:	74 1c                	je     19430 <main+0x3cc1>
   19414:	8b 4d f8             	mov    -0x8(%rbp),%ecx
   19417:	8b 55 f4             	mov    -0xc(%rbp),%edx
   1941a:	8b 45 f0             	mov    -0x10(%rbp),%eax
   1941d:	89 c6                	mov    %eax,%esi
   1941f:	48 8d 3d 8e 35 00 00 	lea    0x358e(%rip),%rdi        # 1c9b4 <g_1798+0x28d4>
   19426:	b8 00 00 00 00       	mov    $0x0,%eax
   1942b:	e8 50 cc fe ff       	callq  6080 <printf@plt>
   19430:	83 45 f8 01          	addl   $0x1,-0x8(%rbp)
   19434:	83 7d f8 07          	cmpl   $0x7,-0x8(%rbp)
   19438:	0f 8e 37 fc ff ff    	jle    19075 <main+0x3906>
   1943e:	83 45 f4 01          	addl   $0x1,-0xc(%rbp)
   19442:	83 7d f4 07          	cmpl   $0x7,-0xc(%rbp)
   19446:	0f 8e 1d fc ff ff    	jle    19069 <main+0x38fa>
   1944c:	83 45 f0 01          	addl   $0x1,-0x10(%rbp)
   19450:	83 7d f0 03          	cmpl   $0x3,-0x10(%rbp)
   19454:	0f 8e 03 fc ff ff    	jle    1905d <main+0x38ee>
   1945a:	0f b6 05 7f b9 00 00 	movzbl 0xb97f(%rip),%eax        # 24de0 <g_2067>
   19461:	0f b6 c0             	movzbl %al,%eax
   19464:	8b 55 fc             	mov    -0x4(%rbp),%edx
   19467:	48 8d 35 54 42 00 00 	lea    0x4254(%rip),%rsi        # 1d6c2 <g_1798+0x35e2>
   1946e:	48 89 c7             	mov    %rax,%rdi
   19471:	e8 7d e2 fe ff       	callq  76f3 <transparent_crc>
   19476:	8b 05 74 b9 00 00    	mov    0xb974(%rip),%eax        # 24df0 <g_2191>
   1947c:	48 98                	cltq   
   1947e:	8b 55 fc             	mov    -0x4(%rbp),%edx
   19481:	48 8d 35 41 42 00 00 	lea    0x4241(%rip),%rsi        # 1d6c9 <g_1798+0x35e9>
   19488:	48 89 c7             	mov    %rax,%rdi
   1948b:	e8 63 e2 fe ff       	callq  76f3 <transparent_crc>
   19490:	8b 05 5e b9 00 00    	mov    0xb95e(%rip),%eax        # 24df4 <g_2191+0x4>
   19496:	89 c1                	mov    %eax,%ecx
   19498:	8b 45 fc             	mov    -0x4(%rbp),%eax
   1949b:	89 c2                	mov    %eax,%edx
   1949d:	48 8d 35 2f 42 00 00 	lea    0x422f(%rip),%rsi        # 1d6d3 <g_1798+0x35f3>
   194a4:	48 89 cf             	mov    %rcx,%rdi
   194a7:	e8 47 e2 fe ff       	callq  76f3 <transparent_crc>
   194ac:	8b 05 46 b9 00 00    	mov    0xb946(%rip),%eax        # 24df8 <g_2191+0x8>
   194b2:	48 98                	cltq   
   194b4:	8b 55 fc             	mov    -0x4(%rbp),%edx
   194b7:	48 8d 35 1f 42 00 00 	lea    0x421f(%rip),%rsi        # 1d6dd <g_1798+0x35fd>
   194be:	48 89 c7             	mov    %rax,%rdi
   194c1:	e8 2d e2 fe ff       	callq  76f3 <transparent_crc>
   194c6:	8b 05 30 b9 00 00    	mov    0xb930(%rip),%eax        # 24dfc <g_2191+0xc>
   194cc:	48 98                	cltq   
   194ce:	8b 55 fc             	mov    -0x4(%rbp),%edx
   194d1:	48 8d 35 0f 42 00 00 	lea    0x420f(%rip),%rsi        # 1d6e7 <g_1798+0x3607>
   194d8:	48 89 c7             	mov    %rax,%rdi
   194db:	e8 13 e2 fe ff       	callq  76f3 <transparent_crc>
   194e0:	48 8b 05 19 b9 00 00 	mov    0xb919(%rip),%rax        # 24e00 <g_2191+0x10>
   194e7:	25 ff ff ff 03       	and    $0x3ffffff,%eax
   194ec:	89 c1                	mov    %eax,%ecx
   194ee:	8b 45 fc             	mov    -0x4(%rbp),%eax
   194f1:	89 c2                	mov    %eax,%edx
   194f3:	48 8d 35 f7 41 00 00 	lea    0x41f7(%rip),%rsi        # 1d6f1 <g_1798+0x3611>
   194fa:	48 89 cf             	mov    %rcx,%rdi
   194fd:	e8 f1 e1 fe ff       	callq  76f3 <transparent_crc>
   19502:	48 8b 05 17 b9 00 00 	mov    0xb917(%rip),%rax        # 24e20 <g_2229>
   19509:	8b 55 fc             	mov    -0x4(%rbp),%edx
   1950c:	48 8d 35 e8 41 00 00 	lea    0x41e8(%rip),%rsi        # 1d6fb <g_1798+0x361b>
   19513:	48 89 c7             	mov    %rax,%rdi
   19516:	e8 d8 e1 fe ff       	callq  76f3 <transparent_crc>
   1951b:	8b 05 07 b9 00 00    	mov    0xb907(%rip),%eax        # 24e28 <g_2229+0x8>
   19521:	48 98                	cltq   
   19523:	8b 55 fc             	mov    -0x4(%rbp),%edx
   19526:	48 8d 35 db 41 00 00 	lea    0x41db(%rip),%rsi        # 1d708 <g_1798+0x3628>
   1952d:	48 89 c7             	mov    %rax,%rdi
   19530:	e8 be e1 fe ff       	callq  76f3 <transparent_crc>
   19535:	0f b6 05 f0 b8 00 00 	movzbl 0xb8f0(%rip),%eax        # 24e2c <g_2229+0xc>
   1953c:	0f b6 c0             	movzbl %al,%eax
   1953f:	8b 55 fc             	mov    -0x4(%rbp),%edx
   19542:	48 8d 35 c9 41 00 00 	lea    0x41c9(%rip),%rsi        # 1d712 <g_1798+0x3632>
   19549:	48 89 c7             	mov    %rax,%rdi
   1954c:	e8 a2 e1 fe ff       	callq  76f3 <transparent_crc>
   19551:	0f b7 05 d5 b8 00 00 	movzwl 0xb8d5(%rip),%eax        # 24e2d <g_2229+0xd>
   19558:	48 0f bf c0          	movswq %ax,%rax
   1955c:	8b 55 fc             	mov    -0x4(%rbp),%edx
   1955f:	48 8d 35 b6 41 00 00 	lea    0x41b6(%rip),%rsi        # 1d71c <g_1798+0x363c>
   19566:	48 89 c7             	mov    %rax,%rdi
   19569:	e8 85 e1 fe ff       	callq  76f3 <transparent_crc>
   1956e:	48 8b 05 ba b8 00 00 	mov    0xb8ba(%rip),%rax        # 24e2f <g_2229+0xf>
   19575:	8b 55 fc             	mov    -0x4(%rbp),%edx
   19578:	48 8d 35 a7 41 00 00 	lea    0x41a7(%rip),%rsi        # 1d726 <g_1798+0x3646>
   1957f:	48 89 c7             	mov    %rax,%rdi
   19582:	e8 6c e1 fe ff       	callq  76f3 <transparent_crc>
   19587:	8b 05 aa b8 00 00    	mov    0xb8aa(%rip),%eax        # 24e37 <g_2229+0x17>
   1958d:	48 98                	cltq   
   1958f:	8b 55 fc             	mov    -0x4(%rbp),%edx
   19592:	48 8d 35 97 41 00 00 	lea    0x4197(%rip),%rsi        # 1d730 <g_1798+0x3650>
   19599:	48 89 c7             	mov    %rax,%rdi
   1959c:	e8 52 e1 fe ff       	callq  76f3 <transparent_crc>
   195a1:	0f b7 05 93 b8 00 00 	movzwl 0xb893(%rip),%eax        # 24e3b <g_2229+0x1b>
   195a8:	0f b7 c0             	movzwl %ax,%eax
   195ab:	8b 55 fc             	mov    -0x4(%rbp),%edx
   195ae:	48 8d 35 85 41 00 00 	lea    0x4185(%rip),%rsi        # 1d73a <g_1798+0x365a>
   195b5:	48 89 c7             	mov    %rax,%rdi
   195b8:	e8 36 e1 fe ff       	callq  76f3 <transparent_crc>
   195bd:	48 8b 05 79 b8 00 00 	mov    0xb879(%rip),%rax        # 24e3d <g_2229+0x1d>
   195c4:	8b 55 fc             	mov    -0x4(%rbp),%edx
   195c7:	48 8d 35 76 41 00 00 	lea    0x4176(%rip),%rsi        # 1d744 <g_1798+0x3664>
   195ce:	48 89 c7             	mov    %rax,%rdi
   195d1:	e8 1d e1 fe ff       	callq  76f3 <transparent_crc>
   195d6:	8b 05 74 b8 00 00    	mov    0xb874(%rip),%eax        # 24e50 <g_2251>
   195dc:	48 98                	cltq   
   195de:	8b 55 fc             	mov    -0x4(%rbp),%edx
   195e1:	48 8d 35 69 41 00 00 	lea    0x4169(%rip),%rsi        # 1d751 <g_1798+0x3671>
   195e8:	48 89 c7             	mov    %rax,%rdi
   195eb:	e8 03 e1 fe ff       	callq  76f3 <transparent_crc>
   195f0:	8b 05 5e b8 00 00    	mov    0xb85e(%rip),%eax        # 24e54 <g_2251+0x4>
   195f6:	89 c1                	mov    %eax,%ecx
   195f8:	8b 45 fc             	mov    -0x4(%rbp),%eax
   195fb:	89 c2                	mov    %eax,%edx
   195fd:	48 8d 35 57 41 00 00 	lea    0x4157(%rip),%rsi        # 1d75b <g_1798+0x367b>
   19604:	48 89 cf             	mov    %rcx,%rdi
   19607:	e8 e7 e0 fe ff       	callq  76f3 <transparent_crc>
   1960c:	8b 05 46 b8 00 00    	mov    0xb846(%rip),%eax        # 24e58 <g_2251+0x8>
   19612:	48 98                	cltq   
   19614:	8b 55 fc             	mov    -0x4(%rbp),%edx
   19617:	48 8d 35 47 41 00 00 	lea    0x4147(%rip),%rsi        # 1d765 <g_1798+0x3685>
   1961e:	48 89 c7             	mov    %rax,%rdi
   19621:	e8 cd e0 fe ff       	callq  76f3 <transparent_crc>
   19626:	8b 05 30 b8 00 00    	mov    0xb830(%rip),%eax        # 24e5c <g_2251+0xc>
   1962c:	48 98                	cltq   
   1962e:	8b 55 fc             	mov    -0x4(%rbp),%edx
   19631:	48 8d 35 37 41 00 00 	lea    0x4137(%rip),%rsi        # 1d76f <g_1798+0x368f>
   19638:	48 89 c7             	mov    %rax,%rdi
   1963b:	e8 b3 e0 fe ff       	callq  76f3 <transparent_crc>
   19640:	48 8b 05 19 b8 00 00 	mov    0xb819(%rip),%rax        # 24e60 <g_2251+0x10>
   19647:	25 ff ff ff 03       	and    $0x3ffffff,%eax
   1964c:	89 c1                	mov    %eax,%ecx
   1964e:	8b 45 fc             	mov    -0x4(%rbp),%eax
   19651:	89 c2                	mov    %eax,%edx
   19653:	48 8d 35 1f 41 00 00 	lea    0x411f(%rip),%rsi        # 1d779 <g_1798+0x3699>
   1965a:	48 89 cf             	mov    %rcx,%rdi
   1965d:	e8 91 e0 fe ff       	callq  76f3 <transparent_crc>
   19662:	8b 05 18 b8 00 00    	mov    0xb818(%rip),%eax        # 24e80 <g_2294>
   19668:	48 98                	cltq   
   1966a:	8b 55 fc             	mov    -0x4(%rbp),%edx
   1966d:	48 8d 35 0f 41 00 00 	lea    0x410f(%rip),%rsi        # 1d783 <g_1798+0x36a3>
   19674:	48 89 c7             	mov    %rax,%rdi
   19677:	e8 77 e0 fe ff       	callq  76f3 <transparent_crc>
   1967c:	48 8b 05 fd b7 00 00 	mov    0xb7fd(%rip),%rax        # 24e80 <g_2294>
   19683:	c1 e0 03             	shl    $0x3,%eax
   19686:	66 c1 f8 03          	sar    $0x3,%ax
   1968a:	48 0f bf c0          	movswq %ax,%rax
   1968e:	8b 55 fc             	mov    -0x4(%rbp),%edx
   19691:	48 8d 35 f5 40 00 00 	lea    0x40f5(%rip),%rsi        # 1d78d <g_1798+0x36ad>
   19698:	48 89 c7             	mov    %rax,%rdi
   1969b:	e8 53 e0 fe ff       	callq  76f3 <transparent_crc>
   196a0:	8b 05 02 b8 00 00    	mov    0xb802(%rip),%eax        # 24ea8 <g_2314>
   196a6:	48 98                	cltq   
   196a8:	8b 55 fc             	mov    -0x4(%rbp),%edx
   196ab:	48 8d 35 e5 40 00 00 	lea    0x40e5(%rip),%rsi        # 1d797 <g_1798+0x36b7>
   196b2:	48 89 c7             	mov    %rax,%rdi
   196b5:	e8 39 e0 fe ff       	callq  76f3 <transparent_crc>
   196ba:	8b 05 60 69 00 00    	mov    0x6960(%rip),%eax        # 20020 <crc32_context>
   196c0:	f7 d0                	not    %eax
   196c2:	89 c2                	mov    %eax,%edx
   196c4:	8b 45 fc             	mov    -0x4(%rbp),%eax
   196c7:	89 c6                	mov    %eax,%esi
   196c9:	89 d7                	mov    %edx,%edi
   196cb:	e8 c4 ca fe ff       	callq  6194 <platform_main_end>
   196d0:	b8 00 00 00 00       	mov    $0x0,%eax
   196d5:	c9                   	leaveq 
   196d6:	c3                   	retq   
   196d7:	66 0f 1f 84 00 00 00 	nopw   0x0(%rax,%rax,1)
   196de:	00 00 

00000000000196e0 <__libc_csu_init>:
   196e0:	f3 0f 1e fa          	endbr64 
   196e4:	41 57                	push   %r15
   196e6:	4c 8d 3d b3 66 00 00 	lea    0x66b3(%rip),%r15        # 1fda0 <__frame_dummy_init_array_entry>
   196ed:	41 56                	push   %r14
   196ef:	49 89 d6             	mov    %rdx,%r14
   196f2:	41 55                	push   %r13
   196f4:	49 89 f5             	mov    %rsi,%r13
   196f7:	41 54                	push   %r12
   196f9:	41 89 fc             	mov    %edi,%r12d
   196fc:	55                   	push   %rbp
   196fd:	48 8d 2d a4 66 00 00 	lea    0x66a4(%rip),%rbp        # 1fda8 <__do_global_dtors_aux_fini_array_entry>
   19704:	53                   	push   %rbx
   19705:	4c 29 fd             	sub    %r15,%rbp
   19708:	48 83 ec 08          	sub    $0x8,%rsp
   1970c:	e8 ef c8 fe ff       	callq  6000 <_init>
   19711:	48 c1 fd 03          	sar    $0x3,%rbp
   19715:	74 1f                	je     19736 <__libc_csu_init+0x56>
   19717:	31 db                	xor    %ebx,%ebx
   19719:	0f 1f 80 00 00 00 00 	nopl   0x0(%rax)
   19720:	4c 89 f2             	mov    %r14,%rdx
   19723:	4c 89 ee             	mov    %r13,%rsi
   19726:	44 89 e7             	mov    %r12d,%edi
   19729:	41 ff 14 df          	callq  *(%r15,%rbx,8)
   1972d:	48 83 c3 01          	add    $0x1,%rbx
   19731:	48 39 dd             	cmp    %rbx,%rbp
   19734:	75 ea                	jne    19720 <__libc_csu_init+0x40>
   19736:	48 83 c4 08          	add    $0x8,%rsp
   1973a:	5b                   	pop    %rbx
   1973b:	5d                   	pop    %rbp
   1973c:	41 5c                	pop    %r12
   1973e:	41 5d                	pop    %r13
   19740:	41 5e                	pop    %r14
   19742:	41 5f                	pop    %r15
   19744:	c3                   	retq   
   19745:	66 66 2e 0f 1f 84 00 	data16 nopw %cs:0x0(%rax,%rax,1)
   1974c:	00 00 00 00 

0000000000019750 <__libc_csu_fini>:
   19750:	f3 0f 1e fa          	endbr64 
   19754:	c3                   	retq   
