


Disassembly of section .text:

00000000000090a0 <_start>:
    90a0:	f3 0f 1e fa          	endbr64 
    90a4:	31 ed                	xor    %ebp,%ebp
    90a6:	49 89 d1             	mov    %rdx,%r9
    90a9:	5e                   	pop    %rsi
    90aa:	48 89 e2             	mov    %rsp,%rdx
    90ad:	48 83 e4 f0          	and    $0xfffffffffffffff0,%rsp
    90b1:	50                   	push   %rax
    90b2:	54                   	push   %rsp
    90b3:	4c 8d 05 96 af 00 00 	lea    0xaf96(%rip),%r8        # 14050 <__libc_csu_fini>
    90ba:	48 8d 0d 1f af 00 00 	lea    0xaf1f(%rip),%rcx        # 13fe0 <__libc_csu_init>
    90c1:	48 8d 3d 3b 83 00 00 	lea    0x833b(%rip),%rdi        # 11403 <main>
    90c8:	ff 15 fa 0e 01 00    	callq  *0x10efa(%rip)        # 19fc8 <__libc_start_main@GLIBC_2.2.5>
    90ce:	f4                   	hlt    
    90cf:	90                   	nop

00000000000090d0 <deregister_tm_clones>:
    90d0:	48 8d 3d 11 6c 01 00 	lea    0x16c11(%rip),%rdi        # 1fce8 <__TMC_END__>
    90d7:	48 8d 05 0a 6c 01 00 	lea    0x16c0a(%rip),%rax        # 1fce8 <__TMC_END__>
    90de:	48 39 f8             	cmp    %rdi,%rax
    90e1:	74 15                	je     90f8 <deregister_tm_clones+0x28>
    90e3:	48 8b 05 d6 0e 01 00 	mov    0x10ed6(%rip),%rax        # 19fc0 <_ITM_deregisterTMCloneTable>
    90ea:	48 85 c0             	test   %rax,%rax
    90ed:	74 09                	je     90f8 <deregister_tm_clones+0x28>
    90ef:	ff e0                	jmpq   *%rax
    90f1:	0f 1f 80 00 00 00 00 	nopl   0x0(%rax)
    90f8:	c3                   	retq   
    90f9:	0f 1f 80 00 00 00 00 	nopl   0x0(%rax)

0000000000009100 <register_tm_clones>:
    9100:	48 8d 3d e1 6b 01 00 	lea    0x16be1(%rip),%rdi        # 1fce8 <__TMC_END__>
    9107:	48 8d 35 da 6b 01 00 	lea    0x16bda(%rip),%rsi        # 1fce8 <__TMC_END__>
    910e:	48 29 fe             	sub    %rdi,%rsi
    9111:	48 89 f0             	mov    %rsi,%rax
    9114:	48 c1 ee 3f          	shr    $0x3f,%rsi
    9118:	48 c1 f8 03          	sar    $0x3,%rax
    911c:	48 01 c6             	add    %rax,%rsi
    911f:	48 d1 fe             	sar    %rsi
    9122:	74 14                	je     9138 <register_tm_clones+0x38>
    9124:	48 8b 05 ad 0e 01 00 	mov    0x10ead(%rip),%rax        # 19fd8 <_ITM_registerTMCloneTable>
    912b:	48 85 c0             	test   %rax,%rax
    912e:	74 08                	je     9138 <register_tm_clones+0x38>
    9130:	ff e0                	jmpq   *%rax
    9132:	66 0f 1f 44 00 00    	nopw   0x0(%rax,%rax,1)
    9138:	c3                   	retq   
    9139:	0f 1f 80 00 00 00 00 	nopl   0x0(%rax)

0000000000009140 <__do_global_dtors_aux>:
    9140:	f3 0f 1e fa          	endbr64 
    9144:	80 3d b5 6b 01 00 00 	cmpb   $0x0,0x16bb5(%rip)        # 1fd00 <completed.8061>
    914b:	75 2b                	jne    9178 <__do_global_dtors_aux+0x38>
    914d:	55                   	push   %rbp
    914e:	48 83 3d 8a 0e 01 00 	cmpq   $0x0,0x10e8a(%rip)        # 19fe0 <__cxa_finalize@GLIBC_2.2.5>
    9155:	00 
    9156:	48 89 e5             	mov    %rsp,%rbp
    9159:	74 0c                	je     9167 <__do_global_dtors_aux+0x27>
    915b:	48 8b 3d a6 0e 01 00 	mov    0x10ea6(%rip),%rdi        # 1a008 <__dso_handle>
    9162:	e8 f9 fe ff ff       	callq  9060 <__cxa_finalize@plt>
    9167:	e8 64 ff ff ff       	callq  90d0 <deregister_tm_clones>
    916c:	c6 05 8d 6b 01 00 01 	movb   $0x1,0x16b8d(%rip)        # 1fd00 <completed.8061>
    9173:	5d                   	pop    %rbp
    9174:	c3                   	retq   
    9175:	0f 1f 00             	nopl   (%rax)
    9178:	c3                   	retq   
    9179:	0f 1f 80 00 00 00 00 	nopl   0x0(%rax)

0000000000009180 <frame_dummy>:
    9180:	f3 0f 1e fa          	endbr64 
    9184:	e9 77 ff ff ff       	jmpq   9100 <register_tm_clones>

0000000000009189 <platform_main_begin>:
    9189:	f3 0f 1e fa          	endbr64 
    918d:	55                   	push   %rbp
    918e:	48 89 e5             	mov    %rsp,%rbp
    9191:	90                   	nop
    9192:	5d                   	pop    %rbp
    9193:	c3                   	retq   

0000000000009194 <platform_main_end>:
    9194:	f3 0f 1e fa          	endbr64 
    9198:	55                   	push   %rbp
    9199:	48 89 e5             	mov    %rsp,%rbp
    919c:	48 83 ec 10          	sub    $0x10,%rsp
    91a0:	89 7d fc             	mov    %edi,-0x4(%rbp)
    91a3:	89 75 f8             	mov    %esi,-0x8(%rbp)
    91a6:	8b 45 fc             	mov    -0x4(%rbp),%eax
    91a9:	89 c6                	mov    %eax,%esi
    91ab:	48 8d 3d 6e be 00 00 	lea    0xbe6e(%rip),%rdi        # 15020 <_IO_stdin_used+0x20>
    91b2:	b8 00 00 00 00       	mov    $0x0,%eax
    91b7:	e8 c4 fe ff ff       	callq  9080 <printf@plt>
    91bc:	90                   	nop
    91bd:	c9                   	leaveq 
    91be:	c3                   	retq   

00000000000091bf <safe_unary_minus_func_int8_t_s>:
    91bf:	f3 0f 1e fa          	endbr64 
    91c3:	55                   	push   %rbp
    91c4:	48 89 e5             	mov    %rsp,%rbp
    91c7:	89 f8                	mov    %edi,%eax
    91c9:	88 45 fc             	mov    %al,-0x4(%rbp)
    91cc:	0f b6 45 fc          	movzbl -0x4(%rbp),%eax
    91d0:	f7 d8                	neg    %eax
    91d2:	5d                   	pop    %rbp
    91d3:	c3                   	retq   

00000000000091d4 <safe_add_func_int8_t_s_s>:
    91d4:	f3 0f 1e fa          	endbr64 
    91d8:	55                   	push   %rbp
    91d9:	48 89 e5             	mov    %rsp,%rbp
    91dc:	89 fa                	mov    %edi,%edx
    91de:	89 f0                	mov    %esi,%eax
    91e0:	88 55 fc             	mov    %dl,-0x4(%rbp)
    91e3:	88 45 f8             	mov    %al,-0x8(%rbp)
    91e6:	0f b6 55 fc          	movzbl -0x4(%rbp),%edx
    91ea:	0f b6 45 f8          	movzbl -0x8(%rbp),%eax
    91ee:	01 d0                	add    %edx,%eax
    91f0:	5d                   	pop    %rbp
    91f1:	c3                   	retq   

00000000000091f2 <safe_sub_func_int8_t_s_s>:
    91f2:	f3 0f 1e fa          	endbr64 
    91f6:	55                   	push   %rbp
    91f7:	48 89 e5             	mov    %rsp,%rbp
    91fa:	89 fa                	mov    %edi,%edx
    91fc:	89 f0                	mov    %esi,%eax
    91fe:	88 55 fc             	mov    %dl,-0x4(%rbp)
    9201:	88 45 f8             	mov    %al,-0x8(%rbp)
    9204:	0f b6 55 fc          	movzbl -0x4(%rbp),%edx
    9208:	0f b6 45 f8          	movzbl -0x8(%rbp),%eax
    920c:	29 c2                	sub    %eax,%edx
    920e:	89 d0                	mov    %edx,%eax
    9210:	5d                   	pop    %rbp
    9211:	c3                   	retq   

0000000000009212 <safe_mul_func_int8_t_s_s>:
    9212:	f3 0f 1e fa          	endbr64 
    9216:	55                   	push   %rbp
    9217:	48 89 e5             	mov    %rsp,%rbp
    921a:	89 fa                	mov    %edi,%edx
    921c:	89 f0                	mov    %esi,%eax
    921e:	88 55 fc             	mov    %dl,-0x4(%rbp)
    9221:	88 45 f8             	mov    %al,-0x8(%rbp)
    9224:	0f b6 45 fc          	movzbl -0x4(%rbp),%eax
    9228:	0f b6 55 f8          	movzbl -0x8(%rbp),%edx
    922c:	0f af c2             	imul   %edx,%eax
    922f:	5d                   	pop    %rbp
    9230:	c3                   	retq   

0000000000009231 <safe_mod_func_int8_t_s_s>:
    9231:	f3 0f 1e fa          	endbr64 
    9235:	55                   	push   %rbp
    9236:	48 89 e5             	mov    %rsp,%rbp
    9239:	89 fa                	mov    %edi,%edx
    923b:	89 f0                	mov    %esi,%eax
    923d:	88 55 fc             	mov    %dl,-0x4(%rbp)
    9240:	88 45 f8             	mov    %al,-0x8(%rbp)
    9243:	80 7d f8 00          	cmpb   $0x0,-0x8(%rbp)
    9247:	74 1b                	je     9264 <safe_mod_func_int8_t_s_s+0x33>
    9249:	80 7d fc 80          	cmpb   $0x80,-0x4(%rbp)
    924d:	75 06                	jne    9255 <safe_mod_func_int8_t_s_s+0x24>
    924f:	80 7d f8 ff          	cmpb   $0xff,-0x8(%rbp)
    9253:	74 0f                	je     9264 <safe_mod_func_int8_t_s_s+0x33>
    9255:	0f be 45 fc          	movsbl -0x4(%rbp),%eax
    9259:	0f be 4d f8          	movsbl -0x8(%rbp),%ecx
    925d:	99                   	cltd   
    925e:	f7 f9                	idiv   %ecx
    9260:	89 d0                	mov    %edx,%eax
    9262:	eb 04                	jmp    9268 <safe_mod_func_int8_t_s_s+0x37>
    9264:	0f b6 45 fc          	movzbl -0x4(%rbp),%eax
    9268:	5d                   	pop    %rbp
    9269:	c3                   	retq   

000000000000926a <safe_div_func_int8_t_s_s>:
    926a:	f3 0f 1e fa          	endbr64 
    926e:	55                   	push   %rbp
    926f:	48 89 e5             	mov    %rsp,%rbp
    9272:	89 fa                	mov    %edi,%edx
    9274:	89 f0                	mov    %esi,%eax
    9276:	88 55 fc             	mov    %dl,-0x4(%rbp)
    9279:	88 45 f8             	mov    %al,-0x8(%rbp)
    927c:	80 7d f8 00          	cmpb   $0x0,-0x8(%rbp)
    9280:	74 19                	je     929b <safe_div_func_int8_t_s_s+0x31>
    9282:	80 7d fc 80          	cmpb   $0x80,-0x4(%rbp)
    9286:	75 06                	jne    928e <safe_div_func_int8_t_s_s+0x24>
    9288:	80 7d f8 ff          	cmpb   $0xff,-0x8(%rbp)
    928c:	74 0d                	je     929b <safe_div_func_int8_t_s_s+0x31>
    928e:	0f be 45 fc          	movsbl -0x4(%rbp),%eax
    9292:	0f be 4d f8          	movsbl -0x8(%rbp),%ecx
    9296:	99                   	cltd   
    9297:	f7 f9                	idiv   %ecx
    9299:	eb 04                	jmp    929f <safe_div_func_int8_t_s_s+0x35>
    929b:	0f b6 45 fc          	movzbl -0x4(%rbp),%eax
    929f:	5d                   	pop    %rbp
    92a0:	c3                   	retq   

00000000000092a1 <safe_lshift_func_int8_t_s_s>:
    92a1:	f3 0f 1e fa          	endbr64 
    92a5:	55                   	push   %rbp
    92a6:	48 89 e5             	mov    %rsp,%rbp
    92a9:	89 f8                	mov    %edi,%eax
    92ab:	89 75 f8             	mov    %esi,-0x8(%rbp)
    92ae:	88 45 fc             	mov    %al,-0x4(%rbp)
    92b1:	80 7d fc 00          	cmpb   $0x0,-0x4(%rbp)
    92b5:	78 31                	js     92e8 <safe_lshift_func_int8_t_s_s+0x47>
    92b7:	83 7d f8 00          	cmpl   $0x0,-0x8(%rbp)
    92bb:	78 2b                	js     92e8 <safe_lshift_func_int8_t_s_s+0x47>
    92bd:	83 7d f8 1f          	cmpl   $0x1f,-0x8(%rbp)
    92c1:	7f 25                	jg     92e8 <safe_lshift_func_int8_t_s_s+0x47>
    92c3:	0f be 55 fc          	movsbl -0x4(%rbp),%edx
    92c7:	8b 45 f8             	mov    -0x8(%rbp),%eax
    92ca:	be 7f 00 00 00       	mov    $0x7f,%esi
    92cf:	89 c1                	mov    %eax,%ecx
    92d1:	d3 fe                	sar    %cl,%esi
    92d3:	89 f0                	mov    %esi,%eax
    92d5:	39 c2                	cmp    %eax,%edx
    92d7:	7f 0f                	jg     92e8 <safe_lshift_func_int8_t_s_s+0x47>
    92d9:	0f be 55 fc          	movsbl -0x4(%rbp),%edx
    92dd:	8b 45 f8             	mov    -0x8(%rbp),%eax
    92e0:	89 c1                	mov    %eax,%ecx
    92e2:	d3 e2                	shl    %cl,%edx
    92e4:	89 d0                	mov    %edx,%eax
    92e6:	eb 04                	jmp    92ec <safe_lshift_func_int8_t_s_s+0x4b>
    92e8:	0f b6 45 fc          	movzbl -0x4(%rbp),%eax
    92ec:	5d                   	pop    %rbp
    92ed:	c3                   	retq   

00000000000092ee <safe_lshift_func_int8_t_s_u>:
    92ee:	f3 0f 1e fa          	endbr64 
    92f2:	55                   	push   %rbp
    92f3:	48 89 e5             	mov    %rsp,%rbp
    92f6:	89 f8                	mov    %edi,%eax
    92f8:	89 75 f8             	mov    %esi,-0x8(%rbp)
    92fb:	88 45 fc             	mov    %al,-0x4(%rbp)
    92fe:	80 7d fc 00          	cmpb   $0x0,-0x4(%rbp)
    9302:	78 2b                	js     932f <safe_lshift_func_int8_t_s_u+0x41>
    9304:	83 7d f8 1f          	cmpl   $0x1f,-0x8(%rbp)
    9308:	77 25                	ja     932f <safe_lshift_func_int8_t_s_u+0x41>
    930a:	0f be 55 fc          	movsbl -0x4(%rbp),%edx
    930e:	8b 45 f8             	mov    -0x8(%rbp),%eax
    9311:	be 7f 00 00 00       	mov    $0x7f,%esi
    9316:	89 c1                	mov    %eax,%ecx
    9318:	d3 fe                	sar    %cl,%esi
    931a:	89 f0                	mov    %esi,%eax
    931c:	39 c2                	cmp    %eax,%edx
    931e:	7f 0f                	jg     932f <safe_lshift_func_int8_t_s_u+0x41>
    9320:	0f be 55 fc          	movsbl -0x4(%rbp),%edx
    9324:	8b 45 f8             	mov    -0x8(%rbp),%eax
    9327:	89 c1                	mov    %eax,%ecx
    9329:	d3 e2                	shl    %cl,%edx
    932b:	89 d0                	mov    %edx,%eax
    932d:	eb 04                	jmp    9333 <safe_lshift_func_int8_t_s_u+0x45>
    932f:	0f b6 45 fc          	movzbl -0x4(%rbp),%eax
    9333:	5d                   	pop    %rbp
    9334:	c3                   	retq   

0000000000009335 <safe_rshift_func_int8_t_s_s>:
    9335:	f3 0f 1e fa          	endbr64 
    9339:	55                   	push   %rbp
    933a:	48 89 e5             	mov    %rsp,%rbp
    933d:	89 f8                	mov    %edi,%eax
    933f:	89 75 f8             	mov    %esi,-0x8(%rbp)
    9342:	88 45 fc             	mov    %al,-0x4(%rbp)
    9345:	80 7d fc 00          	cmpb   $0x0,-0x4(%rbp)
    9349:	78 1b                	js     9366 <safe_rshift_func_int8_t_s_s+0x31>
    934b:	83 7d f8 00          	cmpl   $0x0,-0x8(%rbp)
    934f:	78 15                	js     9366 <safe_rshift_func_int8_t_s_s+0x31>
    9351:	83 7d f8 1f          	cmpl   $0x1f,-0x8(%rbp)
    9355:	7f 0f                	jg     9366 <safe_rshift_func_int8_t_s_s+0x31>
    9357:	0f be 55 fc          	movsbl -0x4(%rbp),%edx
    935b:	8b 45 f8             	mov    -0x8(%rbp),%eax
    935e:	89 c1                	mov    %eax,%ecx
    9360:	d3 fa                	sar    %cl,%edx
    9362:	89 d0                	mov    %edx,%eax
    9364:	eb 04                	jmp    936a <safe_rshift_func_int8_t_s_s+0x35>
    9366:	0f b6 45 fc          	movzbl -0x4(%rbp),%eax
    936a:	5d                   	pop    %rbp
    936b:	c3                   	retq   

000000000000936c <safe_rshift_func_int8_t_s_u>:
    936c:	f3 0f 1e fa          	endbr64 
    9370:	55                   	push   %rbp
    9371:	48 89 e5             	mov    %rsp,%rbp
    9374:	89 f8                	mov    %edi,%eax
    9376:	89 75 f8             	mov    %esi,-0x8(%rbp)
    9379:	88 45 fc             	mov    %al,-0x4(%rbp)
    937c:	80 7d fc 00          	cmpb   $0x0,-0x4(%rbp)
    9380:	78 15                	js     9397 <safe_rshift_func_int8_t_s_u+0x2b>
    9382:	83 7d f8 1f          	cmpl   $0x1f,-0x8(%rbp)
    9386:	77 0f                	ja     9397 <safe_rshift_func_int8_t_s_u+0x2b>
    9388:	0f be 55 fc          	movsbl -0x4(%rbp),%edx
    938c:	8b 45 f8             	mov    -0x8(%rbp),%eax
    938f:	89 c1                	mov    %eax,%ecx
    9391:	d3 fa                	sar    %cl,%edx
    9393:	89 d0                	mov    %edx,%eax
    9395:	eb 04                	jmp    939b <safe_rshift_func_int8_t_s_u+0x2f>
    9397:	0f b6 45 fc          	movzbl -0x4(%rbp),%eax
    939b:	5d                   	pop    %rbp
    939c:	c3                   	retq   

000000000000939d <safe_unary_minus_func_int16_t_s>:
    939d:	f3 0f 1e fa          	endbr64 
    93a1:	55                   	push   %rbp
    93a2:	48 89 e5             	mov    %rsp,%rbp
    93a5:	89 f8                	mov    %edi,%eax
    93a7:	66 89 45 fc          	mov    %ax,-0x4(%rbp)
    93ab:	0f b7 45 fc          	movzwl -0x4(%rbp),%eax
    93af:	f7 d8                	neg    %eax
    93b1:	5d                   	pop    %rbp
    93b2:	c3                   	retq   

00000000000093b3 <safe_add_func_int16_t_s_s>:
    93b3:	f3 0f 1e fa          	endbr64 
    93b7:	55                   	push   %rbp
    93b8:	48 89 e5             	mov    %rsp,%rbp
    93bb:	89 fa                	mov    %edi,%edx
    93bd:	89 f0                	mov    %esi,%eax
    93bf:	66 89 55 fc          	mov    %dx,-0x4(%rbp)
    93c3:	66 89 45 f8          	mov    %ax,-0x8(%rbp)
    93c7:	0f b7 55 fc          	movzwl -0x4(%rbp),%edx
    93cb:	0f b7 45 f8          	movzwl -0x8(%rbp),%eax
    93cf:	01 d0                	add    %edx,%eax
    93d1:	5d                   	pop    %rbp
    93d2:	c3                   	retq   

00000000000093d3 <safe_sub_func_int16_t_s_s>:
    93d3:	f3 0f 1e fa          	endbr64 
    93d7:	55                   	push   %rbp
    93d8:	48 89 e5             	mov    %rsp,%rbp
    93db:	89 fa                	mov    %edi,%edx
    93dd:	89 f0                	mov    %esi,%eax
    93df:	66 89 55 fc          	mov    %dx,-0x4(%rbp)
    93e3:	66 89 45 f8          	mov    %ax,-0x8(%rbp)
    93e7:	0f b7 55 fc          	movzwl -0x4(%rbp),%edx
    93eb:	0f b7 45 f8          	movzwl -0x8(%rbp),%eax
    93ef:	29 c2                	sub    %eax,%edx
    93f1:	89 d0                	mov    %edx,%eax
    93f3:	5d                   	pop    %rbp
    93f4:	c3                   	retq   

00000000000093f5 <safe_mul_func_int16_t_s_s>:
    93f5:	f3 0f 1e fa          	endbr64 
    93f9:	55                   	push   %rbp
    93fa:	48 89 e5             	mov    %rsp,%rbp
    93fd:	89 fa                	mov    %edi,%edx
    93ff:	89 f0                	mov    %esi,%eax
    9401:	66 89 55 fc          	mov    %dx,-0x4(%rbp)
    9405:	66 89 45 f8          	mov    %ax,-0x8(%rbp)
    9409:	0f b7 55 fc          	movzwl -0x4(%rbp),%edx
    940d:	0f b7 45 f8          	movzwl -0x8(%rbp),%eax
    9411:	0f af c2             	imul   %edx,%eax
    9414:	5d                   	pop    %rbp
    9415:	c3                   	retq   

0000000000009416 <safe_mod_func_int16_t_s_s>:
    9416:	f3 0f 1e fa          	endbr64 
    941a:	55                   	push   %rbp
    941b:	48 89 e5             	mov    %rsp,%rbp
    941e:	89 fa                	mov    %edi,%edx
    9420:	89 f0                	mov    %esi,%eax
    9422:	66 89 55 fc          	mov    %dx,-0x4(%rbp)
    9426:	66 89 45 f8          	mov    %ax,-0x8(%rbp)
    942a:	66 83 7d f8 00       	cmpw   $0x0,-0x8(%rbp)
    942f:	74 1e                	je     944f <safe_mod_func_int16_t_s_s+0x39>
    9431:	66 81 7d fc 00 80    	cmpw   $0x8000,-0x4(%rbp)
    9437:	75 07                	jne    9440 <safe_mod_func_int16_t_s_s+0x2a>
    9439:	66 83 7d f8 ff       	cmpw   $0xffff,-0x8(%rbp)
    943e:	74 0f                	je     944f <safe_mod_func_int16_t_s_s+0x39>
    9440:	0f bf 45 fc          	movswl -0x4(%rbp),%eax
    9444:	0f bf 4d f8          	movswl -0x8(%rbp),%ecx
    9448:	99                   	cltd   
    9449:	f7 f9                	idiv   %ecx
    944b:	89 d0                	mov    %edx,%eax
    944d:	eb 04                	jmp    9453 <safe_mod_func_int16_t_s_s+0x3d>
    944f:	0f b7 45 fc          	movzwl -0x4(%rbp),%eax
    9453:	5d                   	pop    %rbp
    9454:	c3                   	retq   

0000000000009455 <safe_div_func_int16_t_s_s>:
    9455:	f3 0f 1e fa          	endbr64 
    9459:	55                   	push   %rbp
    945a:	48 89 e5             	mov    %rsp,%rbp
    945d:	89 fa                	mov    %edi,%edx
    945f:	89 f0                	mov    %esi,%eax
    9461:	66 89 55 fc          	mov    %dx,-0x4(%rbp)
    9465:	66 89 45 f8          	mov    %ax,-0x8(%rbp)
    9469:	66 83 7d f8 00       	cmpw   $0x0,-0x8(%rbp)
    946e:	74 1c                	je     948c <safe_div_func_int16_t_s_s+0x37>
    9470:	66 81 7d fc 00 80    	cmpw   $0x8000,-0x4(%rbp)
    9476:	75 07                	jne    947f <safe_div_func_int16_t_s_s+0x2a>
    9478:	66 83 7d f8 ff       	cmpw   $0xffff,-0x8(%rbp)
    947d:	74 0d                	je     948c <safe_div_func_int16_t_s_s+0x37>
    947f:	0f bf 45 fc          	movswl -0x4(%rbp),%eax
    9483:	0f bf 4d f8          	movswl -0x8(%rbp),%ecx
    9487:	99                   	cltd   
    9488:	f7 f9                	idiv   %ecx
    948a:	eb 04                	jmp    9490 <safe_div_func_int16_t_s_s+0x3b>
    948c:	0f b7 45 fc          	movzwl -0x4(%rbp),%eax
    9490:	5d                   	pop    %rbp
    9491:	c3                   	retq   

0000000000009492 <safe_lshift_func_int16_t_s_s>:
    9492:	f3 0f 1e fa          	endbr64 
    9496:	55                   	push   %rbp
    9497:	48 89 e5             	mov    %rsp,%rbp
    949a:	89 f8                	mov    %edi,%eax
    949c:	89 75 f8             	mov    %esi,-0x8(%rbp)
    949f:	66 89 45 fc          	mov    %ax,-0x4(%rbp)
    94a3:	66 83 7d fc 00       	cmpw   $0x0,-0x4(%rbp)
    94a8:	78 31                	js     94db <safe_lshift_func_int16_t_s_s+0x49>
    94aa:	83 7d f8 00          	cmpl   $0x0,-0x8(%rbp)
    94ae:	78 2b                	js     94db <safe_lshift_func_int16_t_s_s+0x49>
    94b0:	83 7d f8 1f          	cmpl   $0x1f,-0x8(%rbp)
    94b4:	7f 25                	jg     94db <safe_lshift_func_int16_t_s_s+0x49>
    94b6:	0f bf 55 fc          	movswl -0x4(%rbp),%edx
    94ba:	8b 45 f8             	mov    -0x8(%rbp),%eax
    94bd:	be ff 7f 00 00       	mov    $0x7fff,%esi
    94c2:	89 c1                	mov    %eax,%ecx
    94c4:	d3 fe                	sar    %cl,%esi
    94c6:	89 f0                	mov    %esi,%eax
    94c8:	39 c2                	cmp    %eax,%edx
    94ca:	7f 0f                	jg     94db <safe_lshift_func_int16_t_s_s+0x49>
    94cc:	0f bf 55 fc          	movswl -0x4(%rbp),%edx
    94d0:	8b 45 f8             	mov    -0x8(%rbp),%eax
    94d3:	89 c1                	mov    %eax,%ecx
    94d5:	d3 e2                	shl    %cl,%edx
    94d7:	89 d0                	mov    %edx,%eax
    94d9:	eb 04                	jmp    94df <safe_lshift_func_int16_t_s_s+0x4d>
    94db:	0f b7 45 fc          	movzwl -0x4(%rbp),%eax
    94df:	5d                   	pop    %rbp
    94e0:	c3                   	retq   

00000000000094e1 <safe_lshift_func_int16_t_s_u>:
    94e1:	f3 0f 1e fa          	endbr64 
    94e5:	55                   	push   %rbp
    94e6:	48 89 e5             	mov    %rsp,%rbp
    94e9:	89 f8                	mov    %edi,%eax
    94eb:	89 75 f8             	mov    %esi,-0x8(%rbp)
    94ee:	66 89 45 fc          	mov    %ax,-0x4(%rbp)
    94f2:	66 83 7d fc 00       	cmpw   $0x0,-0x4(%rbp)
    94f7:	78 2b                	js     9524 <safe_lshift_func_int16_t_s_u+0x43>
    94f9:	83 7d f8 1f          	cmpl   $0x1f,-0x8(%rbp)
    94fd:	77 25                	ja     9524 <safe_lshift_func_int16_t_s_u+0x43>
    94ff:	0f bf 55 fc          	movswl -0x4(%rbp),%edx
    9503:	8b 45 f8             	mov    -0x8(%rbp),%eax
    9506:	be ff 7f 00 00       	mov    $0x7fff,%esi
    950b:	89 c1                	mov    %eax,%ecx
    950d:	d3 fe                	sar    %cl,%esi
    950f:	89 f0                	mov    %esi,%eax
    9511:	39 c2                	cmp    %eax,%edx
    9513:	7f 0f                	jg     9524 <safe_lshift_func_int16_t_s_u+0x43>
    9515:	0f bf 55 fc          	movswl -0x4(%rbp),%edx
    9519:	8b 45 f8             	mov    -0x8(%rbp),%eax
    951c:	89 c1                	mov    %eax,%ecx
    951e:	d3 e2                	shl    %cl,%edx
    9520:	89 d0                	mov    %edx,%eax
    9522:	eb 04                	jmp    9528 <safe_lshift_func_int16_t_s_u+0x47>
    9524:	0f b7 45 fc          	movzwl -0x4(%rbp),%eax
    9528:	5d                   	pop    %rbp
    9529:	c3                   	retq   

000000000000952a <safe_rshift_func_int16_t_s_s>:
    952a:	f3 0f 1e fa          	endbr64 
    952e:	55                   	push   %rbp
    952f:	48 89 e5             	mov    %rsp,%rbp
    9532:	89 f8                	mov    %edi,%eax
    9534:	89 75 f8             	mov    %esi,-0x8(%rbp)
    9537:	66 89 45 fc          	mov    %ax,-0x4(%rbp)
    953b:	66 83 7d fc 00       	cmpw   $0x0,-0x4(%rbp)
    9540:	78 1b                	js     955d <safe_rshift_func_int16_t_s_s+0x33>
    9542:	83 7d f8 00          	cmpl   $0x0,-0x8(%rbp)
    9546:	78 15                	js     955d <safe_rshift_func_int16_t_s_s+0x33>
    9548:	83 7d f8 1f          	cmpl   $0x1f,-0x8(%rbp)
    954c:	7f 0f                	jg     955d <safe_rshift_func_int16_t_s_s+0x33>
    954e:	0f bf 55 fc          	movswl -0x4(%rbp),%edx
    9552:	8b 45 f8             	mov    -0x8(%rbp),%eax
    9555:	89 c1                	mov    %eax,%ecx
    9557:	d3 fa                	sar    %cl,%edx
    9559:	89 d0                	mov    %edx,%eax
    955b:	eb 04                	jmp    9561 <safe_rshift_func_int16_t_s_s+0x37>
    955d:	0f b7 45 fc          	movzwl -0x4(%rbp),%eax
    9561:	5d                   	pop    %rbp
    9562:	c3                   	retq   

0000000000009563 <safe_rshift_func_int16_t_s_u>:
    9563:	f3 0f 1e fa          	endbr64 
    9567:	55                   	push   %rbp
    9568:	48 89 e5             	mov    %rsp,%rbp
    956b:	89 f8                	mov    %edi,%eax
    956d:	89 75 f8             	mov    %esi,-0x8(%rbp)
    9570:	66 89 45 fc          	mov    %ax,-0x4(%rbp)
    9574:	66 83 7d fc 00       	cmpw   $0x0,-0x4(%rbp)
    9579:	78 15                	js     9590 <safe_rshift_func_int16_t_s_u+0x2d>
    957b:	83 7d f8 1f          	cmpl   $0x1f,-0x8(%rbp)
    957f:	77 0f                	ja     9590 <safe_rshift_func_int16_t_s_u+0x2d>
    9581:	0f bf 55 fc          	movswl -0x4(%rbp),%edx
    9585:	8b 45 f8             	mov    -0x8(%rbp),%eax
    9588:	89 c1                	mov    %eax,%ecx
    958a:	d3 fa                	sar    %cl,%edx
    958c:	89 d0                	mov    %edx,%eax
    958e:	eb 04                	jmp    9594 <safe_rshift_func_int16_t_s_u+0x31>
    9590:	0f b7 45 fc          	movzwl -0x4(%rbp),%eax
    9594:	5d                   	pop    %rbp
    9595:	c3                   	retq   

0000000000009596 <safe_unary_minus_func_int32_t_s>:
    9596:	f3 0f 1e fa          	endbr64 
    959a:	55                   	push   %rbp
    959b:	48 89 e5             	mov    %rsp,%rbp
    959e:	89 7d fc             	mov    %edi,-0x4(%rbp)
    95a1:	81 7d fc 00 00 00 80 	cmpl   $0x80000000,-0x4(%rbp)
    95a8:	74 07                	je     95b1 <safe_unary_minus_func_int32_t_s+0x1b>
    95aa:	8b 45 fc             	mov    -0x4(%rbp),%eax
    95ad:	f7 d8                	neg    %eax
    95af:	eb 03                	jmp    95b4 <safe_unary_minus_func_int32_t_s+0x1e>
    95b1:	8b 45 fc             	mov    -0x4(%rbp),%eax
    95b4:	5d                   	pop    %rbp
    95b5:	c3                   	retq   

00000000000095b6 <safe_add_func_int32_t_s_s>:
    95b6:	f3 0f 1e fa          	endbr64 
    95ba:	55                   	push   %rbp
    95bb:	48 89 e5             	mov    %rsp,%rbp
    95be:	89 7d fc             	mov    %edi,-0x4(%rbp)
    95c1:	89 75 f8             	mov    %esi,-0x8(%rbp)
    95c4:	83 7d fc 00          	cmpl   $0x0,-0x4(%rbp)
    95c8:	7e 13                	jle    95dd <safe_add_func_int32_t_s_s+0x27>
    95ca:	83 7d f8 00          	cmpl   $0x0,-0x8(%rbp)
    95ce:	7e 0d                	jle    95dd <safe_add_func_int32_t_s_s+0x27>
    95d0:	b8 ff ff ff 7f       	mov    $0x7fffffff,%eax
    95d5:	2b 45 f8             	sub    -0x8(%rbp),%eax
    95d8:	39 45 fc             	cmp    %eax,-0x4(%rbp)
    95db:	7f 23                	jg     9600 <safe_add_func_int32_t_s_s+0x4a>
    95dd:	83 7d fc 00          	cmpl   $0x0,-0x4(%rbp)
    95e1:	79 13                	jns    95f6 <safe_add_func_int32_t_s_s+0x40>
    95e3:	83 7d f8 00          	cmpl   $0x0,-0x8(%rbp)
    95e7:	79 0d                	jns    95f6 <safe_add_func_int32_t_s_s+0x40>
    95e9:	b8 00 00 00 80       	mov    $0x80000000,%eax
    95ee:	2b 45 f8             	sub    -0x8(%rbp),%eax
    95f1:	39 45 fc             	cmp    %eax,-0x4(%rbp)
    95f4:	7c 0a                	jl     9600 <safe_add_func_int32_t_s_s+0x4a>
    95f6:	8b 55 fc             	mov    -0x4(%rbp),%edx
    95f9:	8b 45 f8             	mov    -0x8(%rbp),%eax
    95fc:	01 d0                	add    %edx,%eax
    95fe:	eb 03                	jmp    9603 <safe_add_func_int32_t_s_s+0x4d>
    9600:	8b 45 fc             	mov    -0x4(%rbp),%eax
    9603:	5d                   	pop    %rbp
    9604:	c3                   	retq   

0000000000009605 <safe_sub_func_int32_t_s_s>:
    9605:	f3 0f 1e fa          	endbr64 
    9609:	55                   	push   %rbp
    960a:	48 89 e5             	mov    %rsp,%rbp
    960d:	89 7d fc             	mov    %edi,-0x4(%rbp)
    9610:	89 75 f8             	mov    %esi,-0x8(%rbp)
    9613:	8b 45 fc             	mov    -0x4(%rbp),%eax
    9616:	33 45 f8             	xor    -0x8(%rbp),%eax
    9619:	89 c2                	mov    %eax,%edx
    961b:	8b 45 fc             	mov    -0x4(%rbp),%eax
    961e:	33 45 f8             	xor    -0x8(%rbp),%eax
    9621:	25 00 00 00 80       	and    $0x80000000,%eax
    9626:	33 45 fc             	xor    -0x4(%rbp),%eax
    9629:	2b 45 f8             	sub    -0x8(%rbp),%eax
    962c:	33 45 f8             	xor    -0x8(%rbp),%eax
    962f:	21 d0                	and    %edx,%eax
    9631:	85 c0                	test   %eax,%eax
    9633:	78 08                	js     963d <safe_sub_func_int32_t_s_s+0x38>
    9635:	8b 45 fc             	mov    -0x4(%rbp),%eax
    9638:	2b 45 f8             	sub    -0x8(%rbp),%eax
    963b:	eb 03                	jmp    9640 <safe_sub_func_int32_t_s_s+0x3b>
    963d:	8b 45 fc             	mov    -0x4(%rbp),%eax
    9640:	5d                   	pop    %rbp
    9641:	c3                   	retq   

0000000000009642 <safe_mul_func_int32_t_s_s>:
    9642:	f3 0f 1e fa          	endbr64 
    9646:	55                   	push   %rbp
    9647:	48 89 e5             	mov    %rsp,%rbp
    964a:	89 7d fc             	mov    %edi,-0x4(%rbp)
    964d:	89 75 f8             	mov    %esi,-0x8(%rbp)
    9650:	83 7d fc 00          	cmpl   $0x0,-0x4(%rbp)
    9654:	7e 14                	jle    966a <safe_mul_func_int32_t_s_s+0x28>
    9656:	83 7d f8 00          	cmpl   $0x0,-0x8(%rbp)
    965a:	7e 0e                	jle    966a <safe_mul_func_int32_t_s_s+0x28>
    965c:	b8 ff ff ff 7f       	mov    $0x7fffffff,%eax
    9661:	99                   	cltd   
    9662:	f7 7d f8             	idivl  -0x8(%rbp)
    9665:	39 45 fc             	cmp    %eax,-0x4(%rbp)
    9668:	7f 5d                	jg     96c7 <safe_mul_func_int32_t_s_s+0x85>
    966a:	83 7d fc 00          	cmpl   $0x0,-0x4(%rbp)
    966e:	7e 14                	jle    9684 <safe_mul_func_int32_t_s_s+0x42>
    9670:	83 7d f8 00          	cmpl   $0x0,-0x8(%rbp)
    9674:	7f 0e                	jg     9684 <safe_mul_func_int32_t_s_s+0x42>
    9676:	b8 00 00 00 80       	mov    $0x80000000,%eax
    967b:	99                   	cltd   
    967c:	f7 7d fc             	idivl  -0x4(%rbp)
    967f:	39 45 f8             	cmp    %eax,-0x8(%rbp)
    9682:	7c 43                	jl     96c7 <safe_mul_func_int32_t_s_s+0x85>
    9684:	83 7d fc 00          	cmpl   $0x0,-0x4(%rbp)
    9688:	7f 14                	jg     969e <safe_mul_func_int32_t_s_s+0x5c>
    968a:	83 7d f8 00          	cmpl   $0x0,-0x8(%rbp)
    968e:	7e 0e                	jle    969e <safe_mul_func_int32_t_s_s+0x5c>
    9690:	b8 00 00 00 80       	mov    $0x80000000,%eax
    9695:	99                   	cltd   
    9696:	f7 7d f8             	idivl  -0x8(%rbp)
    9699:	39 45 fc             	cmp    %eax,-0x4(%rbp)
    969c:	7c 29                	jl     96c7 <safe_mul_func_int32_t_s_s+0x85>
    969e:	83 7d fc 00          	cmpl   $0x0,-0x4(%rbp)
    96a2:	7f 1a                	jg     96be <safe_mul_func_int32_t_s_s+0x7c>
    96a4:	83 7d f8 00          	cmpl   $0x0,-0x8(%rbp)
    96a8:	7f 14                	jg     96be <safe_mul_func_int32_t_s_s+0x7c>
    96aa:	83 7d fc 00          	cmpl   $0x0,-0x4(%rbp)
    96ae:	74 0e                	je     96be <safe_mul_func_int32_t_s_s+0x7c>
    96b0:	b8 ff ff ff 7f       	mov    $0x7fffffff,%eax
    96b5:	99                   	cltd   
    96b6:	f7 7d fc             	idivl  -0x4(%rbp)
    96b9:	39 45 f8             	cmp    %eax,-0x8(%rbp)
    96bc:	7c 09                	jl     96c7 <safe_mul_func_int32_t_s_s+0x85>
    96be:	8b 45 fc             	mov    -0x4(%rbp),%eax
    96c1:	0f af 45 f8          	imul   -0x8(%rbp),%eax
    96c5:	eb 03                	jmp    96ca <safe_mul_func_int32_t_s_s+0x88>
    96c7:	8b 45 fc             	mov    -0x4(%rbp),%eax
    96ca:	5d                   	pop    %rbp
    96cb:	c3                   	retq   

00000000000096cc <safe_mod_func_int32_t_s_s>:
    96cc:	f3 0f 1e fa          	endbr64 
    96d0:	55                   	push   %rbp
    96d1:	48 89 e5             	mov    %rsp,%rbp
    96d4:	89 7d fc             	mov    %edi,-0x4(%rbp)
    96d7:	89 75 f8             	mov    %esi,-0x8(%rbp)
    96da:	83 7d f8 00          	cmpl   $0x0,-0x8(%rbp)
    96de:	74 1a                	je     96fa <safe_mod_func_int32_t_s_s+0x2e>
    96e0:	81 7d fc 00 00 00 80 	cmpl   $0x80000000,-0x4(%rbp)
    96e7:	75 06                	jne    96ef <safe_mod_func_int32_t_s_s+0x23>
    96e9:	83 7d f8 ff          	cmpl   $0xffffffff,-0x8(%rbp)
    96ed:	74 0b                	je     96fa <safe_mod_func_int32_t_s_s+0x2e>
    96ef:	8b 45 fc             	mov    -0x4(%rbp),%eax
    96f2:	99                   	cltd   
    96f3:	f7 7d f8             	idivl  -0x8(%rbp)
    96f6:	89 d0                	mov    %edx,%eax
    96f8:	eb 03                	jmp    96fd <safe_mod_func_int32_t_s_s+0x31>
    96fa:	8b 45 fc             	mov    -0x4(%rbp),%eax
    96fd:	5d                   	pop    %rbp
    96fe:	c3                   	retq   

00000000000096ff <safe_div_func_int32_t_s_s>:
    96ff:	f3 0f 1e fa          	endbr64 
    9703:	55                   	push   %rbp
    9704:	48 89 e5             	mov    %rsp,%rbp
    9707:	89 7d fc             	mov    %edi,-0x4(%rbp)
    970a:	89 75 f8             	mov    %esi,-0x8(%rbp)
    970d:	83 7d f8 00          	cmpl   $0x0,-0x8(%rbp)
    9711:	74 18                	je     972b <safe_div_func_int32_t_s_s+0x2c>
    9713:	81 7d fc 00 00 00 80 	cmpl   $0x80000000,-0x4(%rbp)
    971a:	75 06                	jne    9722 <safe_div_func_int32_t_s_s+0x23>
    971c:	83 7d f8 ff          	cmpl   $0xffffffff,-0x8(%rbp)
    9720:	74 09                	je     972b <safe_div_func_int32_t_s_s+0x2c>
    9722:	8b 45 fc             	mov    -0x4(%rbp),%eax
    9725:	99                   	cltd   
    9726:	f7 7d f8             	idivl  -0x8(%rbp)
    9729:	eb 03                	jmp    972e <safe_div_func_int32_t_s_s+0x2f>
    972b:	8b 45 fc             	mov    -0x4(%rbp),%eax
    972e:	5d                   	pop    %rbp
    972f:	c3                   	retq   

0000000000009730 <safe_lshift_func_int32_t_s_s>:
    9730:	f3 0f 1e fa          	endbr64 
    9734:	55                   	push   %rbp
    9735:	48 89 e5             	mov    %rsp,%rbp
    9738:	89 7d fc             	mov    %edi,-0x4(%rbp)
    973b:	89 75 f8             	mov    %esi,-0x8(%rbp)
    973e:	83 7d fc 00          	cmpl   $0x0,-0x4(%rbp)
    9742:	78 2d                	js     9771 <safe_lshift_func_int32_t_s_s+0x41>
    9744:	83 7d f8 00          	cmpl   $0x0,-0x8(%rbp)
    9748:	78 27                	js     9771 <safe_lshift_func_int32_t_s_s+0x41>
    974a:	83 7d f8 1f          	cmpl   $0x1f,-0x8(%rbp)
    974e:	7f 21                	jg     9771 <safe_lshift_func_int32_t_s_s+0x41>
    9750:	8b 45 f8             	mov    -0x8(%rbp),%eax
    9753:	ba ff ff ff 7f       	mov    $0x7fffffff,%edx
    9758:	89 c1                	mov    %eax,%ecx
    975a:	d3 fa                	sar    %cl,%edx
    975c:	89 d0                	mov    %edx,%eax
    975e:	39 45 fc             	cmp    %eax,-0x4(%rbp)
    9761:	7f 0e                	jg     9771 <safe_lshift_func_int32_t_s_s+0x41>
    9763:	8b 45 f8             	mov    -0x8(%rbp),%eax
    9766:	8b 55 fc             	mov    -0x4(%rbp),%edx
    9769:	89 c1                	mov    %eax,%ecx
    976b:	d3 e2                	shl    %cl,%edx
    976d:	89 d0                	mov    %edx,%eax
    976f:	eb 03                	jmp    9774 <safe_lshift_func_int32_t_s_s+0x44>
    9771:	8b 45 fc             	mov    -0x4(%rbp),%eax
    9774:	5d                   	pop    %rbp
    9775:	c3                   	retq   

0000000000009776 <safe_lshift_func_int32_t_s_u>:
    9776:	f3 0f 1e fa          	endbr64 
    977a:	55                   	push   %rbp
    977b:	48 89 e5             	mov    %rsp,%rbp
    977e:	89 7d fc             	mov    %edi,-0x4(%rbp)
    9781:	89 75 f8             	mov    %esi,-0x8(%rbp)
    9784:	83 7d fc 00          	cmpl   $0x0,-0x4(%rbp)
    9788:	78 27                	js     97b1 <safe_lshift_func_int32_t_s_u+0x3b>
    978a:	83 7d f8 1f          	cmpl   $0x1f,-0x8(%rbp)
    978e:	77 21                	ja     97b1 <safe_lshift_func_int32_t_s_u+0x3b>
    9790:	8b 45 f8             	mov    -0x8(%rbp),%eax
    9793:	ba ff ff ff 7f       	mov    $0x7fffffff,%edx
    9798:	89 c1                	mov    %eax,%ecx
    979a:	d3 fa                	sar    %cl,%edx
    979c:	89 d0                	mov    %edx,%eax
    979e:	39 45 fc             	cmp    %eax,-0x4(%rbp)
    97a1:	7f 0e                	jg     97b1 <safe_lshift_func_int32_t_s_u+0x3b>
    97a3:	8b 45 f8             	mov    -0x8(%rbp),%eax
    97a6:	8b 55 fc             	mov    -0x4(%rbp),%edx
    97a9:	89 c1                	mov    %eax,%ecx
    97ab:	d3 e2                	shl    %cl,%edx
    97ad:	89 d0                	mov    %edx,%eax
    97af:	eb 03                	jmp    97b4 <safe_lshift_func_int32_t_s_u+0x3e>
    97b1:	8b 45 fc             	mov    -0x4(%rbp),%eax
    97b4:	5d                   	pop    %rbp
    97b5:	c3                   	retq   

00000000000097b6 <safe_rshift_func_int32_t_s_s>:
    97b6:	f3 0f 1e fa          	endbr64 
    97ba:	55                   	push   %rbp
    97bb:	48 89 e5             	mov    %rsp,%rbp
    97be:	89 7d fc             	mov    %edi,-0x4(%rbp)
    97c1:	89 75 f8             	mov    %esi,-0x8(%rbp)
    97c4:	83 7d fc 00          	cmpl   $0x0,-0x4(%rbp)
    97c8:	78 1a                	js     97e4 <safe_rshift_func_int32_t_s_s+0x2e>
    97ca:	83 7d f8 00          	cmpl   $0x0,-0x8(%rbp)
    97ce:	78 14                	js     97e4 <safe_rshift_func_int32_t_s_s+0x2e>
    97d0:	83 7d f8 1f          	cmpl   $0x1f,-0x8(%rbp)
    97d4:	7f 0e                	jg     97e4 <safe_rshift_func_int32_t_s_s+0x2e>
    97d6:	8b 45 f8             	mov    -0x8(%rbp),%eax
    97d9:	8b 55 fc             	mov    -0x4(%rbp),%edx
    97dc:	89 c1                	mov    %eax,%ecx
    97de:	d3 fa                	sar    %cl,%edx
    97e0:	89 d0                	mov    %edx,%eax
    97e2:	eb 03                	jmp    97e7 <safe_rshift_func_int32_t_s_s+0x31>
    97e4:	8b 45 fc             	mov    -0x4(%rbp),%eax
    97e7:	5d                   	pop    %rbp
    97e8:	c3                   	retq   

00000000000097e9 <safe_rshift_func_int32_t_s_u>:
    97e9:	f3 0f 1e fa          	endbr64 
    97ed:	55                   	push   %rbp
    97ee:	48 89 e5             	mov    %rsp,%rbp
    97f1:	89 7d fc             	mov    %edi,-0x4(%rbp)
    97f4:	89 75 f8             	mov    %esi,-0x8(%rbp)
    97f7:	83 7d fc 00          	cmpl   $0x0,-0x4(%rbp)
    97fb:	78 14                	js     9811 <safe_rshift_func_int32_t_s_u+0x28>
    97fd:	83 7d f8 1f          	cmpl   $0x1f,-0x8(%rbp)
    9801:	77 0e                	ja     9811 <safe_rshift_func_int32_t_s_u+0x28>
    9803:	8b 45 f8             	mov    -0x8(%rbp),%eax
    9806:	8b 55 fc             	mov    -0x4(%rbp),%edx
    9809:	89 c1                	mov    %eax,%ecx
    980b:	d3 fa                	sar    %cl,%edx
    980d:	89 d0                	mov    %edx,%eax
    980f:	eb 03                	jmp    9814 <safe_rshift_func_int32_t_s_u+0x2b>
    9811:	8b 45 fc             	mov    -0x4(%rbp),%eax
    9814:	5d                   	pop    %rbp
    9815:	c3                   	retq   

0000000000009816 <safe_unary_minus_func_int64_t_s>:
    9816:	f3 0f 1e fa          	endbr64 
    981a:	55                   	push   %rbp
    981b:	48 89 e5             	mov    %rsp,%rbp
    981e:	48 89 7d f8          	mov    %rdi,-0x8(%rbp)
    9822:	48 b8 00 00 00 00 00 	movabs $0x8000000000000000,%rax
    9829:	00 00 80 
    982c:	48 39 45 f8          	cmp    %rax,-0x8(%rbp)
    9830:	74 09                	je     983b <safe_unary_minus_func_int64_t_s+0x25>
    9832:	48 8b 45 f8          	mov    -0x8(%rbp),%rax
    9836:	48 f7 d8             	neg    %rax
    9839:	eb 04                	jmp    983f <safe_unary_minus_func_int64_t_s+0x29>
    983b:	48 8b 45 f8          	mov    -0x8(%rbp),%rax
    983f:	5d                   	pop    %rbp
    9840:	c3                   	retq   

0000000000009841 <safe_add_func_int64_t_s_s>:
    9841:	f3 0f 1e fa          	endbr64 
    9845:	55                   	push   %rbp
    9846:	48 89 e5             	mov    %rsp,%rbp
    9849:	48 89 7d f8          	mov    %rdi,-0x8(%rbp)
    984d:	48 89 75 f0          	mov    %rsi,-0x10(%rbp)
    9851:	48 83 7d f8 00       	cmpq   $0x0,-0x8(%rbp)
    9856:	7e 1b                	jle    9873 <safe_add_func_int64_t_s_s+0x32>
    9858:	48 83 7d f0 00       	cmpq   $0x0,-0x10(%rbp)
    985d:	7e 14                	jle    9873 <safe_add_func_int64_t_s_s+0x32>
    985f:	48 b8 ff ff ff ff ff 	movabs $0x7fffffffffffffff,%rax
    9866:	ff ff 7f 
    9869:	48 2b 45 f0          	sub    -0x10(%rbp),%rax
    986d:	48 39 45 f8          	cmp    %rax,-0x8(%rbp)
    9871:	7f 2f                	jg     98a2 <safe_add_func_int64_t_s_s+0x61>
    9873:	48 83 7d f8 00       	cmpq   $0x0,-0x8(%rbp)
    9878:	79 1b                	jns    9895 <safe_add_func_int64_t_s_s+0x54>
    987a:	48 83 7d f0 00       	cmpq   $0x0,-0x10(%rbp)
    987f:	79 14                	jns    9895 <safe_add_func_int64_t_s_s+0x54>
    9881:	48 b8 00 00 00 00 00 	movabs $0x8000000000000000,%rax
    9888:	00 00 80 
    988b:	48 2b 45 f0          	sub    -0x10(%rbp),%rax
    988f:	48 39 45 f8          	cmp    %rax,-0x8(%rbp)
    9893:	7c 0d                	jl     98a2 <safe_add_func_int64_t_s_s+0x61>
    9895:	48 8b 55 f8          	mov    -0x8(%rbp),%rdx
    9899:	48 8b 45 f0          	mov    -0x10(%rbp),%rax
    989d:	48 01 d0             	add    %rdx,%rax
    98a0:	eb 04                	jmp    98a6 <safe_add_func_int64_t_s_s+0x65>
    98a2:	48 8b 45 f8          	mov    -0x8(%rbp),%rax
    98a6:	5d                   	pop    %rbp
    98a7:	c3                   	retq   

00000000000098a8 <safe_sub_func_int64_t_s_s>:
    98a8:	f3 0f 1e fa          	endbr64 
    98ac:	55                   	push   %rbp
    98ad:	48 89 e5             	mov    %rsp,%rbp
    98b0:	48 89 7d f8          	mov    %rdi,-0x8(%rbp)
    98b4:	48 89 75 f0          	mov    %rsi,-0x10(%rbp)
    98b8:	48 8b 45 f8          	mov    -0x8(%rbp),%rax
    98bc:	48 33 45 f0          	xor    -0x10(%rbp),%rax
    98c0:	48 89 c2             	mov    %rax,%rdx
    98c3:	48 8b 45 f8          	mov    -0x8(%rbp),%rax
    98c7:	48 33 45 f0          	xor    -0x10(%rbp),%rax
    98cb:	48 b9 00 00 00 00 00 	movabs $0x8000000000000000,%rcx
    98d2:	00 00 80 
    98d5:	48 21 c8             	and    %rcx,%rax
    98d8:	48 33 45 f8          	xor    -0x8(%rbp),%rax
    98dc:	48 2b 45 f0          	sub    -0x10(%rbp),%rax
    98e0:	48 33 45 f0          	xor    -0x10(%rbp),%rax
    98e4:	48 21 d0             	and    %rdx,%rax
    98e7:	48 85 c0             	test   %rax,%rax
    98ea:	78 0a                	js     98f6 <safe_sub_func_int64_t_s_s+0x4e>
    98ec:	48 8b 45 f8          	mov    -0x8(%rbp),%rax
    98f0:	48 2b 45 f0          	sub    -0x10(%rbp),%rax
    98f4:	eb 04                	jmp    98fa <safe_sub_func_int64_t_s_s+0x52>
    98f6:	48 8b 45 f8          	mov    -0x8(%rbp),%rax
    98fa:	5d                   	pop    %rbp
    98fb:	c3                   	retq   

00000000000098fc <safe_mul_func_int64_t_s_s>:
    98fc:	f3 0f 1e fa          	endbr64 
    9900:	55                   	push   %rbp
    9901:	48 89 e5             	mov    %rsp,%rbp
    9904:	48 89 7d f8          	mov    %rdi,-0x8(%rbp)
    9908:	48 89 75 f0          	mov    %rsi,-0x10(%rbp)
    990c:	48 83 7d f8 00       	cmpq   $0x0,-0x8(%rbp)
    9911:	7e 1d                	jle    9930 <safe_mul_func_int64_t_s_s+0x34>
    9913:	48 83 7d f0 00       	cmpq   $0x0,-0x10(%rbp)
    9918:	7e 16                	jle    9930 <safe_mul_func_int64_t_s_s+0x34>
    991a:	48 b8 ff ff ff ff ff 	movabs $0x7fffffffffffffff,%rax
    9921:	ff ff 7f 
    9924:	48 99                	cqto   
    9926:	48 f7 7d f0          	idivq  -0x10(%rbp)
    992a:	48 39 45 f8          	cmp    %rax,-0x8(%rbp)
    992e:	7f 7e                	jg     99ae <safe_mul_func_int64_t_s_s+0xb2>
    9930:	48 83 7d f8 00       	cmpq   $0x0,-0x8(%rbp)
    9935:	7e 1d                	jle    9954 <safe_mul_func_int64_t_s_s+0x58>
    9937:	48 83 7d f0 00       	cmpq   $0x0,-0x10(%rbp)
    993c:	7f 16                	jg     9954 <safe_mul_func_int64_t_s_s+0x58>
    993e:	48 b8 00 00 00 00 00 	movabs $0x8000000000000000,%rax
    9945:	00 00 80 
    9948:	48 99                	cqto   
    994a:	48 f7 7d f8          	idivq  -0x8(%rbp)
    994e:	48 39 45 f0          	cmp    %rax,-0x10(%rbp)
    9952:	7c 5a                	jl     99ae <safe_mul_func_int64_t_s_s+0xb2>
    9954:	48 83 7d f8 00       	cmpq   $0x0,-0x8(%rbp)
    9959:	7f 1d                	jg     9978 <safe_mul_func_int64_t_s_s+0x7c>
    995b:	48 83 7d f0 00       	cmpq   $0x0,-0x10(%rbp)
    9960:	7e 16                	jle    9978 <safe_mul_func_int64_t_s_s+0x7c>
    9962:	48 b8 00 00 00 00 00 	movabs $0x8000000000000000,%rax
    9969:	00 00 80 
    996c:	48 99                	cqto   
    996e:	48 f7 7d f0          	idivq  -0x10(%rbp)
    9972:	48 39 45 f8          	cmp    %rax,-0x8(%rbp)
    9976:	7c 36                	jl     99ae <safe_mul_func_int64_t_s_s+0xb2>
    9978:	48 83 7d f8 00       	cmpq   $0x0,-0x8(%rbp)
    997d:	7f 24                	jg     99a3 <safe_mul_func_int64_t_s_s+0xa7>
    997f:	48 83 7d f0 00       	cmpq   $0x0,-0x10(%rbp)
    9984:	7f 1d                	jg     99a3 <safe_mul_func_int64_t_s_s+0xa7>
    9986:	48 83 7d f8 00       	cmpq   $0x0,-0x8(%rbp)
    998b:	74 16                	je     99a3 <safe_mul_func_int64_t_s_s+0xa7>
    998d:	48 b8 ff ff ff ff ff 	movabs $0x7fffffffffffffff,%rax
    9994:	ff ff 7f 
    9997:	48 99                	cqto   
    9999:	48 f7 7d f8          	idivq  -0x8(%rbp)
    999d:	48 39 45 f0          	cmp    %rax,-0x10(%rbp)
    99a1:	7c 0b                	jl     99ae <safe_mul_func_int64_t_s_s+0xb2>
    99a3:	48 8b 45 f8          	mov    -0x8(%rbp),%rax
    99a7:	48 0f af 45 f0       	imul   -0x10(%rbp),%rax
    99ac:	eb 04                	jmp    99b2 <safe_mul_func_int64_t_s_s+0xb6>
    99ae:	48 8b 45 f8          	mov    -0x8(%rbp),%rax
    99b2:	5d                   	pop    %rbp
    99b3:	c3                   	retq   

00000000000099b4 <safe_mod_func_int64_t_s_s>:
    99b4:	f3 0f 1e fa          	endbr64 
    99b8:	55                   	push   %rbp
    99b9:	48 89 e5             	mov    %rsp,%rbp
    99bc:	48 89 7d f8          	mov    %rdi,-0x8(%rbp)
    99c0:	48 89 75 f0          	mov    %rsi,-0x10(%rbp)
    99c4:	48 83 7d f0 00       	cmpq   $0x0,-0x10(%rbp)
    99c9:	74 26                	je     99f1 <safe_mod_func_int64_t_s_s+0x3d>
    99cb:	48 b8 00 00 00 00 00 	movabs $0x8000000000000000,%rax
    99d2:	00 00 80 
    99d5:	48 39 45 f8          	cmp    %rax,-0x8(%rbp)
    99d9:	75 07                	jne    99e2 <safe_mod_func_int64_t_s_s+0x2e>
    99db:	48 83 7d f0 ff       	cmpq   $0xffffffffffffffff,-0x10(%rbp)
    99e0:	74 0f                	je     99f1 <safe_mod_func_int64_t_s_s+0x3d>
    99e2:	48 8b 45 f8          	mov    -0x8(%rbp),%rax
    99e6:	48 99                	cqto   
    99e8:	48 f7 7d f0          	idivq  -0x10(%rbp)
    99ec:	48 89 d0             	mov    %rdx,%rax
    99ef:	eb 04                	jmp    99f5 <safe_mod_func_int64_t_s_s+0x41>
    99f1:	48 8b 45 f8          	mov    -0x8(%rbp),%rax
    99f5:	5d                   	pop    %rbp
    99f6:	c3                   	retq   

00000000000099f7 <safe_div_func_int64_t_s_s>:
    99f7:	f3 0f 1e fa          	endbr64 
    99fb:	55                   	push   %rbp
    99fc:	48 89 e5             	mov    %rsp,%rbp
    99ff:	48 89 7d f8          	mov    %rdi,-0x8(%rbp)
    9a03:	48 89 75 f0          	mov    %rsi,-0x10(%rbp)
    9a07:	48 83 7d f0 00       	cmpq   $0x0,-0x10(%rbp)
    9a0c:	74 23                	je     9a31 <safe_div_func_int64_t_s_s+0x3a>
    9a0e:	48 b8 00 00 00 00 00 	movabs $0x8000000000000000,%rax
    9a15:	00 00 80 
    9a18:	48 39 45 f8          	cmp    %rax,-0x8(%rbp)
    9a1c:	75 07                	jne    9a25 <safe_div_func_int64_t_s_s+0x2e>
    9a1e:	48 83 7d f0 ff       	cmpq   $0xffffffffffffffff,-0x10(%rbp)
    9a23:	74 0c                	je     9a31 <safe_div_func_int64_t_s_s+0x3a>
    9a25:	48 8b 45 f8          	mov    -0x8(%rbp),%rax
    9a29:	48 99                	cqto   
    9a2b:	48 f7 7d f0          	idivq  -0x10(%rbp)
    9a2f:	eb 04                	jmp    9a35 <safe_div_func_int64_t_s_s+0x3e>
    9a31:	48 8b 45 f8          	mov    -0x8(%rbp),%rax
    9a35:	5d                   	pop    %rbp
    9a36:	c3                   	retq   

0000000000009a37 <safe_lshift_func_int64_t_s_s>:
    9a37:	f3 0f 1e fa          	endbr64 
    9a3b:	55                   	push   %rbp
    9a3c:	48 89 e5             	mov    %rsp,%rbp
    9a3f:	48 89 7d f8          	mov    %rdi,-0x8(%rbp)
    9a43:	89 75 f4             	mov    %esi,-0xc(%rbp)
    9a46:	48 83 7d f8 00       	cmpq   $0x0,-0x8(%rbp)
    9a4b:	78 38                	js     9a85 <safe_lshift_func_int64_t_s_s+0x4e>
    9a4d:	83 7d f4 00          	cmpl   $0x0,-0xc(%rbp)
    9a51:	78 32                	js     9a85 <safe_lshift_func_int64_t_s_s+0x4e>
    9a53:	83 7d f4 1f          	cmpl   $0x1f,-0xc(%rbp)
    9a57:	7f 2c                	jg     9a85 <safe_lshift_func_int64_t_s_s+0x4e>
    9a59:	8b 45 f4             	mov    -0xc(%rbp),%eax
    9a5c:	48 ba ff ff ff ff ff 	movabs $0x7fffffffffffffff,%rdx
    9a63:	ff ff 7f 
    9a66:	89 c1                	mov    %eax,%ecx
    9a68:	48 d3 fa             	sar    %cl,%rdx
    9a6b:	48 89 d0             	mov    %rdx,%rax
    9a6e:	48 39 45 f8          	cmp    %rax,-0x8(%rbp)
    9a72:	7f 11                	jg     9a85 <safe_lshift_func_int64_t_s_s+0x4e>
    9a74:	8b 45 f4             	mov    -0xc(%rbp),%eax
    9a77:	48 8b 55 f8          	mov    -0x8(%rbp),%rdx
    9a7b:	89 c1                	mov    %eax,%ecx
    9a7d:	48 d3 e2             	shl    %cl,%rdx
    9a80:	48 89 d0             	mov    %rdx,%rax
    9a83:	eb 04                	jmp    9a89 <safe_lshift_func_int64_t_s_s+0x52>
    9a85:	48 8b 45 f8          	mov    -0x8(%rbp),%rax
    9a89:	5d                   	pop    %rbp
    9a8a:	c3                   	retq   

0000000000009a8b <safe_lshift_func_int64_t_s_u>:
    9a8b:	f3 0f 1e fa          	endbr64 
    9a8f:	55                   	push   %rbp
    9a90:	48 89 e5             	mov    %rsp,%rbp
    9a93:	48 89 7d f8          	mov    %rdi,-0x8(%rbp)
    9a97:	89 75 f4             	mov    %esi,-0xc(%rbp)
    9a9a:	48 83 7d f8 00       	cmpq   $0x0,-0x8(%rbp)
    9a9f:	78 32                	js     9ad3 <safe_lshift_func_int64_t_s_u+0x48>
    9aa1:	83 7d f4 1f          	cmpl   $0x1f,-0xc(%rbp)
    9aa5:	77 2c                	ja     9ad3 <safe_lshift_func_int64_t_s_u+0x48>
    9aa7:	8b 45 f4             	mov    -0xc(%rbp),%eax
    9aaa:	48 ba ff ff ff ff ff 	movabs $0x7fffffffffffffff,%rdx
    9ab1:	ff ff 7f 
    9ab4:	89 c1                	mov    %eax,%ecx
    9ab6:	48 d3 fa             	sar    %cl,%rdx
    9ab9:	48 89 d0             	mov    %rdx,%rax
    9abc:	48 39 45 f8          	cmp    %rax,-0x8(%rbp)
    9ac0:	7f 11                	jg     9ad3 <safe_lshift_func_int64_t_s_u+0x48>
    9ac2:	8b 45 f4             	mov    -0xc(%rbp),%eax
    9ac5:	48 8b 55 f8          	mov    -0x8(%rbp),%rdx
    9ac9:	89 c1                	mov    %eax,%ecx
    9acb:	48 d3 e2             	shl    %cl,%rdx
    9ace:	48 89 d0             	mov    %rdx,%rax
    9ad1:	eb 04                	jmp    9ad7 <safe_lshift_func_int64_t_s_u+0x4c>
    9ad3:	48 8b 45 f8          	mov    -0x8(%rbp),%rax
    9ad7:	5d                   	pop    %rbp
    9ad8:	c3                   	retq   

0000000000009ad9 <safe_rshift_func_int64_t_s_s>:
    9ad9:	f3 0f 1e fa          	endbr64 
    9add:	55                   	push   %rbp
    9ade:	48 89 e5             	mov    %rsp,%rbp
    9ae1:	48 89 7d f8          	mov    %rdi,-0x8(%rbp)
    9ae5:	89 75 f4             	mov    %esi,-0xc(%rbp)
    9ae8:	48 83 7d f8 00       	cmpq   $0x0,-0x8(%rbp)
    9aed:	78 1d                	js     9b0c <safe_rshift_func_int64_t_s_s+0x33>
    9aef:	83 7d f4 00          	cmpl   $0x0,-0xc(%rbp)
    9af3:	78 17                	js     9b0c <safe_rshift_func_int64_t_s_s+0x33>
    9af5:	83 7d f4 1f          	cmpl   $0x1f,-0xc(%rbp)
    9af9:	7f 11                	jg     9b0c <safe_rshift_func_int64_t_s_s+0x33>
    9afb:	8b 45 f4             	mov    -0xc(%rbp),%eax
    9afe:	48 8b 55 f8          	mov    -0x8(%rbp),%rdx
    9b02:	89 c1                	mov    %eax,%ecx
    9b04:	48 d3 fa             	sar    %cl,%rdx
    9b07:	48 89 d0             	mov    %rdx,%rax
    9b0a:	eb 04                	jmp    9b10 <safe_rshift_func_int64_t_s_s+0x37>
    9b0c:	48 8b 45 f8          	mov    -0x8(%rbp),%rax
    9b10:	5d                   	pop    %rbp
    9b11:	c3                   	retq   

0000000000009b12 <safe_rshift_func_int64_t_s_u>:
    9b12:	f3 0f 1e fa          	endbr64 
    9b16:	55                   	push   %rbp
    9b17:	48 89 e5             	mov    %rsp,%rbp
    9b1a:	48 89 7d f8          	mov    %rdi,-0x8(%rbp)
    9b1e:	89 75 f4             	mov    %esi,-0xc(%rbp)
    9b21:	48 83 7d f8 00       	cmpq   $0x0,-0x8(%rbp)
    9b26:	78 17                	js     9b3f <safe_rshift_func_int64_t_s_u+0x2d>
    9b28:	83 7d f4 1f          	cmpl   $0x1f,-0xc(%rbp)
    9b2c:	77 11                	ja     9b3f <safe_rshift_func_int64_t_s_u+0x2d>
    9b2e:	8b 45 f4             	mov    -0xc(%rbp),%eax
    9b31:	48 8b 55 f8          	mov    -0x8(%rbp),%rdx
    9b35:	89 c1                	mov    %eax,%ecx
    9b37:	48 d3 fa             	sar    %cl,%rdx
    9b3a:	48 89 d0             	mov    %rdx,%rax
    9b3d:	eb 04                	jmp    9b43 <safe_rshift_func_int64_t_s_u+0x31>
    9b3f:	48 8b 45 f8          	mov    -0x8(%rbp),%rax
    9b43:	5d                   	pop    %rbp
    9b44:	c3                   	retq   

0000000000009b45 <safe_unary_minus_func_uint8_t_u>:
    9b45:	f3 0f 1e fa          	endbr64 
    9b49:	55                   	push   %rbp
    9b4a:	48 89 e5             	mov    %rsp,%rbp
    9b4d:	89 f8                	mov    %edi,%eax
    9b4f:	88 45 fc             	mov    %al,-0x4(%rbp)
    9b52:	0f b6 45 fc          	movzbl -0x4(%rbp),%eax
    9b56:	f7 d8                	neg    %eax
    9b58:	5d                   	pop    %rbp
    9b59:	c3                   	retq   

0000000000009b5a <safe_add_func_uint8_t_u_u>:
    9b5a:	f3 0f 1e fa          	endbr64 
    9b5e:	55                   	push   %rbp
    9b5f:	48 89 e5             	mov    %rsp,%rbp
    9b62:	89 fa                	mov    %edi,%edx
    9b64:	89 f0                	mov    %esi,%eax
    9b66:	88 55 fc             	mov    %dl,-0x4(%rbp)
    9b69:	88 45 f8             	mov    %al,-0x8(%rbp)
    9b6c:	0f b6 55 fc          	movzbl -0x4(%rbp),%edx
    9b70:	0f b6 45 f8          	movzbl -0x8(%rbp),%eax
    9b74:	01 d0                	add    %edx,%eax
    9b76:	5d                   	pop    %rbp
    9b77:	c3                   	retq   

0000000000009b78 <safe_sub_func_uint8_t_u_u>:
    9b78:	f3 0f 1e fa          	endbr64 
    9b7c:	55                   	push   %rbp
    9b7d:	48 89 e5             	mov    %rsp,%rbp
    9b80:	89 fa                	mov    %edi,%edx
    9b82:	89 f0                	mov    %esi,%eax
    9b84:	88 55 fc             	mov    %dl,-0x4(%rbp)
    9b87:	88 45 f8             	mov    %al,-0x8(%rbp)
    9b8a:	0f b6 45 fc          	movzbl -0x4(%rbp),%eax
    9b8e:	2a 45 f8             	sub    -0x8(%rbp),%al
    9b91:	5d                   	pop    %rbp
    9b92:	c3                   	retq   

0000000000009b93 <safe_mul_func_uint8_t_u_u>:
    9b93:	f3 0f 1e fa          	endbr64 
    9b97:	55                   	push   %rbp
    9b98:	48 89 e5             	mov    %rsp,%rbp
    9b9b:	89 fa                	mov    %edi,%edx
    9b9d:	89 f0                	mov    %esi,%eax
    9b9f:	88 55 fc             	mov    %dl,-0x4(%rbp)
    9ba2:	88 45 f8             	mov    %al,-0x8(%rbp)
    9ba5:	0f b6 45 fc          	movzbl -0x4(%rbp),%eax
    9ba9:	f6 65 f8             	mulb   -0x8(%rbp)
    9bac:	5d                   	pop    %rbp
    9bad:	c3                   	retq   

0000000000009bae <safe_mod_func_uint8_t_u_u>:
    9bae:	f3 0f 1e fa          	endbr64 
    9bb2:	55                   	push   %rbp
    9bb3:	48 89 e5             	mov    %rsp,%rbp
    9bb6:	89 fa                	mov    %edi,%edx
    9bb8:	89 f0                	mov    %esi,%eax
    9bba:	88 55 fc             	mov    %dl,-0x4(%rbp)
    9bbd:	88 45 f8             	mov    %al,-0x8(%rbp)
    9bc0:	80 7d f8 00          	cmpb   $0x0,-0x8(%rbp)
    9bc4:	74 0f                	je     9bd5 <safe_mod_func_uint8_t_u_u+0x27>
    9bc6:	0f b6 45 fc          	movzbl -0x4(%rbp),%eax
    9bca:	0f b6 c0             	movzbl %al,%eax
    9bcd:	f6 75 f8             	divb   -0x8(%rbp)
    9bd0:	0f b6 c4             	movzbl %ah,%eax
    9bd3:	eb 04                	jmp    9bd9 <safe_mod_func_uint8_t_u_u+0x2b>
    9bd5:	0f b6 45 fc          	movzbl -0x4(%rbp),%eax
    9bd9:	5d                   	pop    %rbp
    9bda:	c3                   	retq   

0000000000009bdb <safe_div_func_uint8_t_u_u>:
    9bdb:	f3 0f 1e fa          	endbr64 
    9bdf:	55                   	push   %rbp
    9be0:	48 89 e5             	mov    %rsp,%rbp
    9be3:	89 fa                	mov    %edi,%edx
    9be5:	89 f0                	mov    %esi,%eax
    9be7:	88 55 fc             	mov    %dl,-0x4(%rbp)
    9bea:	88 45 f8             	mov    %al,-0x8(%rbp)
    9bed:	80 7d f8 00          	cmpb   $0x0,-0x8(%rbp)
    9bf1:	74 0c                	je     9bff <safe_div_func_uint8_t_u_u+0x24>
    9bf3:	0f b6 45 fc          	movzbl -0x4(%rbp),%eax
    9bf7:	0f b6 c0             	movzbl %al,%eax
    9bfa:	f6 75 f8             	divb   -0x8(%rbp)
    9bfd:	eb 04                	jmp    9c03 <safe_div_func_uint8_t_u_u+0x28>
    9bff:	0f b6 45 fc          	movzbl -0x4(%rbp),%eax
    9c03:	5d                   	pop    %rbp
    9c04:	c3                   	retq   

0000000000009c05 <safe_lshift_func_uint8_t_u_s>:
    9c05:	f3 0f 1e fa          	endbr64 
    9c09:	55                   	push   %rbp
    9c0a:	48 89 e5             	mov    %rsp,%rbp
    9c0d:	89 f8                	mov    %edi,%eax
    9c0f:	89 75 f8             	mov    %esi,-0x8(%rbp)
    9c12:	88 45 fc             	mov    %al,-0x4(%rbp)
    9c15:	83 7d f8 00          	cmpl   $0x0,-0x8(%rbp)
    9c19:	78 2b                	js     9c46 <safe_lshift_func_uint8_t_u_s+0x41>
    9c1b:	83 7d f8 1f          	cmpl   $0x1f,-0x8(%rbp)
    9c1f:	7f 25                	jg     9c46 <safe_lshift_func_uint8_t_u_s+0x41>
    9c21:	0f b6 55 fc          	movzbl -0x4(%rbp),%edx
    9c25:	8b 45 f8             	mov    -0x8(%rbp),%eax
    9c28:	be ff 00 00 00       	mov    $0xff,%esi
    9c2d:	89 c1                	mov    %eax,%ecx
    9c2f:	d3 fe                	sar    %cl,%esi
    9c31:	89 f0                	mov    %esi,%eax
    9c33:	39 c2                	cmp    %eax,%edx
    9c35:	7f 0f                	jg     9c46 <safe_lshift_func_uint8_t_u_s+0x41>
    9c37:	0f b6 55 fc          	movzbl -0x4(%rbp),%edx
    9c3b:	8b 45 f8             	mov    -0x8(%rbp),%eax
    9c3e:	89 c1                	mov    %eax,%ecx
    9c40:	d3 e2                	shl    %cl,%edx
    9c42:	89 d0                	mov    %edx,%eax
    9c44:	eb 04                	jmp    9c4a <safe_lshift_func_uint8_t_u_s+0x45>
    9c46:	0f b6 45 fc          	movzbl -0x4(%rbp),%eax
    9c4a:	5d                   	pop    %rbp
    9c4b:	c3                   	retq   

0000000000009c4c <safe_lshift_func_uint8_t_u_u>:
    9c4c:	f3 0f 1e fa          	endbr64 
    9c50:	55                   	push   %rbp
    9c51:	48 89 e5             	mov    %rsp,%rbp
    9c54:	89 f8                	mov    %edi,%eax
    9c56:	89 75 f8             	mov    %esi,-0x8(%rbp)
    9c59:	88 45 fc             	mov    %al,-0x4(%rbp)
    9c5c:	83 7d f8 1f          	cmpl   $0x1f,-0x8(%rbp)
    9c60:	77 25                	ja     9c87 <safe_lshift_func_uint8_t_u_u+0x3b>
    9c62:	0f b6 55 fc          	movzbl -0x4(%rbp),%edx
    9c66:	8b 45 f8             	mov    -0x8(%rbp),%eax
    9c69:	be ff 00 00 00       	mov    $0xff,%esi
    9c6e:	89 c1                	mov    %eax,%ecx
    9c70:	d3 fe                	sar    %cl,%esi
    9c72:	89 f0                	mov    %esi,%eax
    9c74:	39 c2                	cmp    %eax,%edx
    9c76:	7f 0f                	jg     9c87 <safe_lshift_func_uint8_t_u_u+0x3b>
    9c78:	0f b6 55 fc          	movzbl -0x4(%rbp),%edx
    9c7c:	8b 45 f8             	mov    -0x8(%rbp),%eax
    9c7f:	89 c1                	mov    %eax,%ecx
    9c81:	d3 e2                	shl    %cl,%edx
    9c83:	89 d0                	mov    %edx,%eax
    9c85:	eb 04                	jmp    9c8b <safe_lshift_func_uint8_t_u_u+0x3f>
    9c87:	0f b6 45 fc          	movzbl -0x4(%rbp),%eax
    9c8b:	5d                   	pop    %rbp
    9c8c:	c3                   	retq   

0000000000009c8d <safe_rshift_func_uint8_t_u_s>:
    9c8d:	f3 0f 1e fa          	endbr64 
    9c91:	55                   	push   %rbp
    9c92:	48 89 e5             	mov    %rsp,%rbp
    9c95:	89 f8                	mov    %edi,%eax
    9c97:	89 75 f8             	mov    %esi,-0x8(%rbp)
    9c9a:	88 45 fc             	mov    %al,-0x4(%rbp)
    9c9d:	83 7d f8 00          	cmpl   $0x0,-0x8(%rbp)
    9ca1:	78 15                	js     9cb8 <safe_rshift_func_uint8_t_u_s+0x2b>
    9ca3:	83 7d f8 1f          	cmpl   $0x1f,-0x8(%rbp)
    9ca7:	7f 0f                	jg     9cb8 <safe_rshift_func_uint8_t_u_s+0x2b>
    9ca9:	0f b6 55 fc          	movzbl -0x4(%rbp),%edx
    9cad:	8b 45 f8             	mov    -0x8(%rbp),%eax
    9cb0:	89 c1                	mov    %eax,%ecx
    9cb2:	d3 fa                	sar    %cl,%edx
    9cb4:	89 d0                	mov    %edx,%eax
    9cb6:	eb 04                	jmp    9cbc <safe_rshift_func_uint8_t_u_s+0x2f>
    9cb8:	0f b6 45 fc          	movzbl -0x4(%rbp),%eax
    9cbc:	5d                   	pop    %rbp
    9cbd:	c3                   	retq   

0000000000009cbe <safe_rshift_func_uint8_t_u_u>:
    9cbe:	f3 0f 1e fa          	endbr64 
    9cc2:	55                   	push   %rbp
    9cc3:	48 89 e5             	mov    %rsp,%rbp
    9cc6:	89 f8                	mov    %edi,%eax
    9cc8:	89 75 f8             	mov    %esi,-0x8(%rbp)
    9ccb:	88 45 fc             	mov    %al,-0x4(%rbp)
    9cce:	83 7d f8 1f          	cmpl   $0x1f,-0x8(%rbp)
    9cd2:	77 0f                	ja     9ce3 <safe_rshift_func_uint8_t_u_u+0x25>
    9cd4:	0f b6 55 fc          	movzbl -0x4(%rbp),%edx
    9cd8:	8b 45 f8             	mov    -0x8(%rbp),%eax
    9cdb:	89 c1                	mov    %eax,%ecx
    9cdd:	d3 fa                	sar    %cl,%edx
    9cdf:	89 d0                	mov    %edx,%eax
    9ce1:	eb 04                	jmp    9ce7 <safe_rshift_func_uint8_t_u_u+0x29>
    9ce3:	0f b6 45 fc          	movzbl -0x4(%rbp),%eax
    9ce7:	5d                   	pop    %rbp
    9ce8:	c3                   	retq   

0000000000009ce9 <safe_unary_minus_func_uint16_t_u>:
    9ce9:	f3 0f 1e fa          	endbr64 
    9ced:	55                   	push   %rbp
    9cee:	48 89 e5             	mov    %rsp,%rbp
    9cf1:	89 f8                	mov    %edi,%eax
    9cf3:	66 89 45 fc          	mov    %ax,-0x4(%rbp)
    9cf7:	0f b7 45 fc          	movzwl -0x4(%rbp),%eax
    9cfb:	f7 d8                	neg    %eax
    9cfd:	5d                   	pop    %rbp
    9cfe:	c3                   	retq   

0000000000009cff <safe_add_func_uint16_t_u_u>:
    9cff:	f3 0f 1e fa          	endbr64 
    9d03:	55                   	push   %rbp
    9d04:	48 89 e5             	mov    %rsp,%rbp
    9d07:	89 fa                	mov    %edi,%edx
    9d09:	89 f0                	mov    %esi,%eax
    9d0b:	66 89 55 fc          	mov    %dx,-0x4(%rbp)
    9d0f:	66 89 45 f8          	mov    %ax,-0x8(%rbp)
    9d13:	0f b7 55 fc          	movzwl -0x4(%rbp),%edx
    9d17:	0f b7 45 f8          	movzwl -0x8(%rbp),%eax
    9d1b:	01 d0                	add    %edx,%eax
    9d1d:	5d                   	pop    %rbp
    9d1e:	c3                   	retq   

0000000000009d1f <safe_sub_func_uint16_t_u_u>:
    9d1f:	f3 0f 1e fa          	endbr64 
    9d23:	55                   	push   %rbp
    9d24:	48 89 e5             	mov    %rsp,%rbp
    9d27:	89 fa                	mov    %edi,%edx
    9d29:	89 f0                	mov    %esi,%eax
    9d2b:	66 89 55 fc          	mov    %dx,-0x4(%rbp)
    9d2f:	66 89 45 f8          	mov    %ax,-0x8(%rbp)
    9d33:	0f b7 45 fc          	movzwl -0x4(%rbp),%eax
    9d37:	66 2b 45 f8          	sub    -0x8(%rbp),%ax
    9d3b:	5d                   	pop    %rbp
    9d3c:	c3                   	retq   

0000000000009d3d <safe_mul_func_uint16_t_u_u>:
    9d3d:	f3 0f 1e fa          	endbr64 
    9d41:	55                   	push   %rbp
    9d42:	48 89 e5             	mov    %rsp,%rbp
    9d45:	89 fa                	mov    %edi,%edx
    9d47:	89 f0                	mov    %esi,%eax
    9d49:	66 89 55 fc          	mov    %dx,-0x4(%rbp)
    9d4d:	66 89 45 f8          	mov    %ax,-0x8(%rbp)
    9d51:	0f b7 45 fc          	movzwl -0x4(%rbp),%eax
    9d55:	66 0f af 45 f8       	imul   -0x8(%rbp),%ax
    9d5a:	5d                   	pop    %rbp
    9d5b:	c3                   	retq   

0000000000009d5c <safe_mod_func_uint16_t_u_u>:
    9d5c:	f3 0f 1e fa          	endbr64 
    9d60:	55                   	push   %rbp
    9d61:	48 89 e5             	mov    %rsp,%rbp
    9d64:	89 fa                	mov    %edi,%edx
    9d66:	89 f0                	mov    %esi,%eax
    9d68:	66 89 55 fc          	mov    %dx,-0x4(%rbp)
    9d6c:	66 89 45 f8          	mov    %ax,-0x8(%rbp)
    9d70:	66 83 7d f8 00       	cmpw   $0x0,-0x8(%rbp)
    9d75:	74 11                	je     9d88 <safe_mod_func_uint16_t_u_u+0x2c>
    9d77:	0f b7 45 fc          	movzwl -0x4(%rbp),%eax
    9d7b:	ba 00 00 00 00       	mov    $0x0,%edx
    9d80:	66 f7 75 f8          	divw   -0x8(%rbp)
    9d84:	89 d0                	mov    %edx,%eax
    9d86:	eb 04                	jmp    9d8c <safe_mod_func_uint16_t_u_u+0x30>
    9d88:	0f b7 45 fc          	movzwl -0x4(%rbp),%eax
    9d8c:	5d                   	pop    %rbp
    9d8d:	c3                   	retq   

0000000000009d8e <safe_div_func_uint16_t_u_u>:
    9d8e:	f3 0f 1e fa          	endbr64 
    9d92:	55                   	push   %rbp
    9d93:	48 89 e5             	mov    %rsp,%rbp
    9d96:	89 fa                	mov    %edi,%edx
    9d98:	89 f0                	mov    %esi,%eax
    9d9a:	66 89 55 fc          	mov    %dx,-0x4(%rbp)
    9d9e:	66 89 45 f8          	mov    %ax,-0x8(%rbp)
    9da2:	66 83 7d f8 00       	cmpw   $0x0,-0x8(%rbp)
    9da7:	74 0f                	je     9db8 <safe_div_func_uint16_t_u_u+0x2a>
    9da9:	0f b7 45 fc          	movzwl -0x4(%rbp),%eax
    9dad:	ba 00 00 00 00       	mov    $0x0,%edx
    9db2:	66 f7 75 f8          	divw   -0x8(%rbp)
    9db6:	eb 04                	jmp    9dbc <safe_div_func_uint16_t_u_u+0x2e>
    9db8:	0f b7 45 fc          	movzwl -0x4(%rbp),%eax
    9dbc:	5d                   	pop    %rbp
    9dbd:	c3                   	retq   

0000000000009dbe <safe_lshift_func_uint16_t_u_s>:
    9dbe:	f3 0f 1e fa          	endbr64 
    9dc2:	55                   	push   %rbp
    9dc3:	48 89 e5             	mov    %rsp,%rbp
    9dc6:	89 f8                	mov    %edi,%eax
    9dc8:	89 75 f8             	mov    %esi,-0x8(%rbp)
    9dcb:	66 89 45 fc          	mov    %ax,-0x4(%rbp)
    9dcf:	83 7d f8 00          	cmpl   $0x0,-0x8(%rbp)
    9dd3:	78 2b                	js     9e00 <safe_lshift_func_uint16_t_u_s+0x42>
    9dd5:	83 7d f8 1f          	cmpl   $0x1f,-0x8(%rbp)
    9dd9:	7f 25                	jg     9e00 <safe_lshift_func_uint16_t_u_s+0x42>
    9ddb:	0f b7 55 fc          	movzwl -0x4(%rbp),%edx
    9ddf:	8b 45 f8             	mov    -0x8(%rbp),%eax
    9de2:	be ff ff 00 00       	mov    $0xffff,%esi
    9de7:	89 c1                	mov    %eax,%ecx
    9de9:	d3 fe                	sar    %cl,%esi
    9deb:	89 f0                	mov    %esi,%eax
    9ded:	39 c2                	cmp    %eax,%edx
    9def:	7f 0f                	jg     9e00 <safe_lshift_func_uint16_t_u_s+0x42>
    9df1:	0f b7 55 fc          	movzwl -0x4(%rbp),%edx
    9df5:	8b 45 f8             	mov    -0x8(%rbp),%eax
    9df8:	89 c1                	mov    %eax,%ecx
    9dfa:	d3 e2                	shl    %cl,%edx
    9dfc:	89 d0                	mov    %edx,%eax
    9dfe:	eb 04                	jmp    9e04 <safe_lshift_func_uint16_t_u_s+0x46>
    9e00:	0f b7 45 fc          	movzwl -0x4(%rbp),%eax
    9e04:	5d                   	pop    %rbp
    9e05:	c3                   	retq   

0000000000009e06 <safe_lshift_func_uint16_t_u_u>:
    9e06:	f3 0f 1e fa          	endbr64 
    9e0a:	55                   	push   %rbp
    9e0b:	48 89 e5             	mov    %rsp,%rbp
    9e0e:	89 f8                	mov    %edi,%eax
    9e10:	89 75 f8             	mov    %esi,-0x8(%rbp)
    9e13:	66 89 45 fc          	mov    %ax,-0x4(%rbp)
    9e17:	83 7d f8 1f          	cmpl   $0x1f,-0x8(%rbp)
    9e1b:	77 25                	ja     9e42 <safe_lshift_func_uint16_t_u_u+0x3c>
    9e1d:	0f b7 55 fc          	movzwl -0x4(%rbp),%edx
    9e21:	8b 45 f8             	mov    -0x8(%rbp),%eax
    9e24:	be ff ff 00 00       	mov    $0xffff,%esi
    9e29:	89 c1                	mov    %eax,%ecx
    9e2b:	d3 fe                	sar    %cl,%esi
    9e2d:	89 f0                	mov    %esi,%eax
    9e2f:	39 c2                	cmp    %eax,%edx
    9e31:	7f 0f                	jg     9e42 <safe_lshift_func_uint16_t_u_u+0x3c>
    9e33:	0f b7 55 fc          	movzwl -0x4(%rbp),%edx
    9e37:	8b 45 f8             	mov    -0x8(%rbp),%eax
    9e3a:	89 c1                	mov    %eax,%ecx
    9e3c:	d3 e2                	shl    %cl,%edx
    9e3e:	89 d0                	mov    %edx,%eax
    9e40:	eb 04                	jmp    9e46 <safe_lshift_func_uint16_t_u_u+0x40>
    9e42:	0f b7 45 fc          	movzwl -0x4(%rbp),%eax
    9e46:	5d                   	pop    %rbp
    9e47:	c3                   	retq   

0000000000009e48 <safe_rshift_func_uint16_t_u_s>:
    9e48:	f3 0f 1e fa          	endbr64 
    9e4c:	55                   	push   %rbp
    9e4d:	48 89 e5             	mov    %rsp,%rbp
    9e50:	89 f8                	mov    %edi,%eax
    9e52:	89 75 f8             	mov    %esi,-0x8(%rbp)
    9e55:	66 89 45 fc          	mov    %ax,-0x4(%rbp)
    9e59:	83 7d f8 00          	cmpl   $0x0,-0x8(%rbp)
    9e5d:	78 15                	js     9e74 <safe_rshift_func_uint16_t_u_s+0x2c>
    9e5f:	83 7d f8 1f          	cmpl   $0x1f,-0x8(%rbp)
    9e63:	7f 0f                	jg     9e74 <safe_rshift_func_uint16_t_u_s+0x2c>
    9e65:	0f b7 55 fc          	movzwl -0x4(%rbp),%edx
    9e69:	8b 45 f8             	mov    -0x8(%rbp),%eax
    9e6c:	89 c1                	mov    %eax,%ecx
    9e6e:	d3 fa                	sar    %cl,%edx
    9e70:	89 d0                	mov    %edx,%eax
    9e72:	eb 04                	jmp    9e78 <safe_rshift_func_uint16_t_u_s+0x30>
    9e74:	0f b7 45 fc          	movzwl -0x4(%rbp),%eax
    9e78:	5d                   	pop    %rbp
    9e79:	c3                   	retq   

0000000000009e7a <safe_rshift_func_uint16_t_u_u>:
    9e7a:	f3 0f 1e fa          	endbr64 
    9e7e:	55                   	push   %rbp
    9e7f:	48 89 e5             	mov    %rsp,%rbp
    9e82:	89 f8                	mov    %edi,%eax
    9e84:	89 75 f8             	mov    %esi,-0x8(%rbp)
    9e87:	66 89 45 fc          	mov    %ax,-0x4(%rbp)
    9e8b:	83 7d f8 1f          	cmpl   $0x1f,-0x8(%rbp)
    9e8f:	77 0f                	ja     9ea0 <safe_rshift_func_uint16_t_u_u+0x26>
    9e91:	0f b7 55 fc          	movzwl -0x4(%rbp),%edx
    9e95:	8b 45 f8             	mov    -0x8(%rbp),%eax
    9e98:	89 c1                	mov    %eax,%ecx
    9e9a:	d3 fa                	sar    %cl,%edx
    9e9c:	89 d0                	mov    %edx,%eax
    9e9e:	eb 04                	jmp    9ea4 <safe_rshift_func_uint16_t_u_u+0x2a>
    9ea0:	0f b7 45 fc          	movzwl -0x4(%rbp),%eax
    9ea4:	5d                   	pop    %rbp
    9ea5:	c3                   	retq   

0000000000009ea6 <safe_unary_minus_func_uint32_t_u>:
    9ea6:	f3 0f 1e fa          	endbr64 
    9eaa:	55                   	push   %rbp
    9eab:	48 89 e5             	mov    %rsp,%rbp
    9eae:	89 7d fc             	mov    %edi,-0x4(%rbp)
    9eb1:	8b 45 fc             	mov    -0x4(%rbp),%eax
    9eb4:	f7 d8                	neg    %eax
    9eb6:	5d                   	pop    %rbp
    9eb7:	c3                   	retq   

0000000000009eb8 <safe_add_func_uint32_t_u_u>:
    9eb8:	f3 0f 1e fa          	endbr64 
    9ebc:	55                   	push   %rbp
    9ebd:	48 89 e5             	mov    %rsp,%rbp
    9ec0:	89 7d fc             	mov    %edi,-0x4(%rbp)
    9ec3:	89 75 f8             	mov    %esi,-0x8(%rbp)
    9ec6:	8b 55 fc             	mov    -0x4(%rbp),%edx
    9ec9:	8b 45 f8             	mov    -0x8(%rbp),%eax
    9ecc:	01 d0                	add    %edx,%eax
    9ece:	5d                   	pop    %rbp
    9ecf:	c3                   	retq   

0000000000009ed0 <safe_sub_func_uint32_t_u_u>:
    9ed0:	f3 0f 1e fa          	endbr64 
    9ed4:	55                   	push   %rbp
    9ed5:	48 89 e5             	mov    %rsp,%rbp
    9ed8:	89 7d fc             	mov    %edi,-0x4(%rbp)
    9edb:	89 75 f8             	mov    %esi,-0x8(%rbp)
    9ede:	8b 45 fc             	mov    -0x4(%rbp),%eax
    9ee1:	2b 45 f8             	sub    -0x8(%rbp),%eax
    9ee4:	5d                   	pop    %rbp
    9ee5:	c3                   	retq   

0000000000009ee6 <safe_mul_func_uint32_t_u_u>:
    9ee6:	f3 0f 1e fa          	endbr64 
    9eea:	55                   	push   %rbp
    9eeb:	48 89 e5             	mov    %rsp,%rbp
    9eee:	89 7d fc             	mov    %edi,-0x4(%rbp)
    9ef1:	89 75 f8             	mov    %esi,-0x8(%rbp)
    9ef4:	8b 45 fc             	mov    -0x4(%rbp),%eax
    9ef7:	0f af 45 f8          	imul   -0x8(%rbp),%eax
    9efb:	5d                   	pop    %rbp
    9efc:	c3                   	retq   

0000000000009efd <safe_mod_func_uint32_t_u_u>:
    9efd:	f3 0f 1e fa          	endbr64 
    9f01:	55                   	push   %rbp
    9f02:	48 89 e5             	mov    %rsp,%rbp
    9f05:	89 7d fc             	mov    %edi,-0x4(%rbp)
    9f08:	89 75 f8             	mov    %esi,-0x8(%rbp)
    9f0b:	83 7d f8 00          	cmpl   $0x0,-0x8(%rbp)
    9f0f:	74 0f                	je     9f20 <safe_mod_func_uint32_t_u_u+0x23>
    9f11:	8b 45 fc             	mov    -0x4(%rbp),%eax
    9f14:	ba 00 00 00 00       	mov    $0x0,%edx
    9f19:	f7 75 f8             	divl   -0x8(%rbp)
    9f1c:	89 d0                	mov    %edx,%eax
    9f1e:	eb 03                	jmp    9f23 <safe_mod_func_uint32_t_u_u+0x26>
    9f20:	8b 45 fc             	mov    -0x4(%rbp),%eax
    9f23:	5d                   	pop    %rbp
    9f24:	c3                   	retq   

0000000000009f25 <safe_div_func_uint32_t_u_u>:
    9f25:	f3 0f 1e fa          	endbr64 
    9f29:	55                   	push   %rbp
    9f2a:	48 89 e5             	mov    %rsp,%rbp
    9f2d:	89 7d fc             	mov    %edi,-0x4(%rbp)
    9f30:	89 75 f8             	mov    %esi,-0x8(%rbp)
    9f33:	83 7d f8 00          	cmpl   $0x0,-0x8(%rbp)
    9f37:	74 0d                	je     9f46 <safe_div_func_uint32_t_u_u+0x21>
    9f39:	8b 45 fc             	mov    -0x4(%rbp),%eax
    9f3c:	ba 00 00 00 00       	mov    $0x0,%edx
    9f41:	f7 75 f8             	divl   -0x8(%rbp)
    9f44:	eb 03                	jmp    9f49 <safe_div_func_uint32_t_u_u+0x24>
    9f46:	8b 45 fc             	mov    -0x4(%rbp),%eax
    9f49:	5d                   	pop    %rbp
    9f4a:	c3                   	retq   

0000000000009f4b <safe_lshift_func_uint32_t_u_s>:
    9f4b:	f3 0f 1e fa          	endbr64 
    9f4f:	55                   	push   %rbp
    9f50:	48 89 e5             	mov    %rsp,%rbp
    9f53:	89 7d fc             	mov    %edi,-0x4(%rbp)
    9f56:	89 75 f8             	mov    %esi,-0x8(%rbp)
    9f59:	83 7d f8 00          	cmpl   $0x0,-0x8(%rbp)
    9f5d:	78 27                	js     9f86 <safe_lshift_func_uint32_t_u_s+0x3b>
    9f5f:	83 7d f8 1f          	cmpl   $0x1f,-0x8(%rbp)
    9f63:	7f 21                	jg     9f86 <safe_lshift_func_uint32_t_u_s+0x3b>
    9f65:	8b 45 f8             	mov    -0x8(%rbp),%eax
    9f68:	ba ff ff ff ff       	mov    $0xffffffff,%edx
    9f6d:	89 c1                	mov    %eax,%ecx
    9f6f:	d3 ea                	shr    %cl,%edx
    9f71:	89 d0                	mov    %edx,%eax
    9f73:	39 45 fc             	cmp    %eax,-0x4(%rbp)
    9f76:	77 0e                	ja     9f86 <safe_lshift_func_uint32_t_u_s+0x3b>
    9f78:	8b 45 f8             	mov    -0x8(%rbp),%eax
    9f7b:	8b 55 fc             	mov    -0x4(%rbp),%edx
    9f7e:	89 c1                	mov    %eax,%ecx
    9f80:	d3 e2                	shl    %cl,%edx
    9f82:	89 d0                	mov    %edx,%eax
    9f84:	eb 03                	jmp    9f89 <safe_lshift_func_uint32_t_u_s+0x3e>
    9f86:	8b 45 fc             	mov    -0x4(%rbp),%eax
    9f89:	5d                   	pop    %rbp
    9f8a:	c3                   	retq   

0000000000009f8b <safe_lshift_func_uint32_t_u_u>:
    9f8b:	f3 0f 1e fa          	endbr64 
    9f8f:	55                   	push   %rbp
    9f90:	48 89 e5             	mov    %rsp,%rbp
    9f93:	89 7d fc             	mov    %edi,-0x4(%rbp)
    9f96:	89 75 f8             	mov    %esi,-0x8(%rbp)
    9f99:	83 7d f8 1f          	cmpl   $0x1f,-0x8(%rbp)
    9f9d:	77 21                	ja     9fc0 <safe_lshift_func_uint32_t_u_u+0x35>
    9f9f:	8b 45 f8             	mov    -0x8(%rbp),%eax
    9fa2:	ba ff ff ff ff       	mov    $0xffffffff,%edx
    9fa7:	89 c1                	mov    %eax,%ecx
    9fa9:	d3 ea                	shr    %cl,%edx
    9fab:	89 d0                	mov    %edx,%eax
    9fad:	39 45 fc             	cmp    %eax,-0x4(%rbp)
    9fb0:	77 0e                	ja     9fc0 <safe_lshift_func_uint32_t_u_u+0x35>
    9fb2:	8b 45 f8             	mov    -0x8(%rbp),%eax
    9fb5:	8b 55 fc             	mov    -0x4(%rbp),%edx
    9fb8:	89 c1                	mov    %eax,%ecx
    9fba:	d3 e2                	shl    %cl,%edx
    9fbc:	89 d0                	mov    %edx,%eax
    9fbe:	eb 03                	jmp    9fc3 <safe_lshift_func_uint32_t_u_u+0x38>
    9fc0:	8b 45 fc             	mov    -0x4(%rbp),%eax
    9fc3:	5d                   	pop    %rbp
    9fc4:	c3                   	retq   

0000000000009fc5 <safe_rshift_func_uint32_t_u_s>:
    9fc5:	f3 0f 1e fa          	endbr64 
    9fc9:	55                   	push   %rbp
    9fca:	48 89 e5             	mov    %rsp,%rbp
    9fcd:	89 7d fc             	mov    %edi,-0x4(%rbp)
    9fd0:	89 75 f8             	mov    %esi,-0x8(%rbp)
    9fd3:	83 7d f8 00          	cmpl   $0x0,-0x8(%rbp)
    9fd7:	78 14                	js     9fed <safe_rshift_func_uint32_t_u_s+0x28>
    9fd9:	83 7d f8 1f          	cmpl   $0x1f,-0x8(%rbp)
    9fdd:	7f 0e                	jg     9fed <safe_rshift_func_uint32_t_u_s+0x28>
    9fdf:	8b 45 f8             	mov    -0x8(%rbp),%eax
    9fe2:	8b 55 fc             	mov    -0x4(%rbp),%edx
    9fe5:	89 c1                	mov    %eax,%ecx
    9fe7:	d3 ea                	shr    %cl,%edx
    9fe9:	89 d0                	mov    %edx,%eax
    9feb:	eb 03                	jmp    9ff0 <safe_rshift_func_uint32_t_u_s+0x2b>
    9fed:	8b 45 fc             	mov    -0x4(%rbp),%eax
    9ff0:	5d                   	pop    %rbp
    9ff1:	c3                   	retq   

0000000000009ff2 <safe_rshift_func_uint32_t_u_u>:
    9ff2:	f3 0f 1e fa          	endbr64 
    9ff6:	55                   	push   %rbp
    9ff7:	48 89 e5             	mov    %rsp,%rbp
    9ffa:	89 7d fc             	mov    %edi,-0x4(%rbp)
    9ffd:	89 75 f8             	mov    %esi,-0x8(%rbp)
    a000:	83 7d f8 1f          	cmpl   $0x1f,-0x8(%rbp)
    a004:	77 0e                	ja     a014 <safe_rshift_func_uint32_t_u_u+0x22>
    a006:	8b 45 f8             	mov    -0x8(%rbp),%eax
    a009:	8b 55 fc             	mov    -0x4(%rbp),%edx
    a00c:	89 c1                	mov    %eax,%ecx
    a00e:	d3 ea                	shr    %cl,%edx
    a010:	89 d0                	mov    %edx,%eax
    a012:	eb 03                	jmp    a017 <safe_rshift_func_uint32_t_u_u+0x25>
    a014:	8b 45 fc             	mov    -0x4(%rbp),%eax
    a017:	5d                   	pop    %rbp
    a018:	c3                   	retq   

000000000000a019 <safe_unary_minus_func_uint64_t_u>:
    a019:	f3 0f 1e fa          	endbr64 
    a01d:	55                   	push   %rbp
    a01e:	48 89 e5             	mov    %rsp,%rbp
    a021:	48 89 7d f8          	mov    %rdi,-0x8(%rbp)
    a025:	48 8b 45 f8          	mov    -0x8(%rbp),%rax
    a029:	48 f7 d8             	neg    %rax
    a02c:	5d                   	pop    %rbp
    a02d:	c3                   	retq   

000000000000a02e <safe_add_func_uint64_t_u_u>:
    a02e:	f3 0f 1e fa          	endbr64 
    a032:	55                   	push   %rbp
    a033:	48 89 e5             	mov    %rsp,%rbp
    a036:	48 89 7d f8          	mov    %rdi,-0x8(%rbp)
    a03a:	48 89 75 f0          	mov    %rsi,-0x10(%rbp)
    a03e:	48 8b 55 f8          	mov    -0x8(%rbp),%rdx
    a042:	48 8b 45 f0          	mov    -0x10(%rbp),%rax
    a046:	48 01 d0             	add    %rdx,%rax
    a049:	5d                   	pop    %rbp
    a04a:	c3                   	retq   

000000000000a04b <safe_sub_func_uint64_t_u_u>:
    a04b:	f3 0f 1e fa          	endbr64 
    a04f:	55                   	push   %rbp
    a050:	48 89 e5             	mov    %rsp,%rbp
    a053:	48 89 7d f8          	mov    %rdi,-0x8(%rbp)
    a057:	48 89 75 f0          	mov    %rsi,-0x10(%rbp)
    a05b:	48 8b 45 f8          	mov    -0x8(%rbp),%rax
    a05f:	48 2b 45 f0          	sub    -0x10(%rbp),%rax
    a063:	5d                   	pop    %rbp
    a064:	c3                   	retq   

000000000000a065 <safe_mul_func_uint64_t_u_u>:
    a065:	f3 0f 1e fa          	endbr64 
    a069:	55                   	push   %rbp
    a06a:	48 89 e5             	mov    %rsp,%rbp
    a06d:	48 89 7d f8          	mov    %rdi,-0x8(%rbp)
    a071:	48 89 75 f0          	mov    %rsi,-0x10(%rbp)
    a075:	48 8b 45 f8          	mov    -0x8(%rbp),%rax
    a079:	48 0f af 45 f0       	imul   -0x10(%rbp),%rax
    a07e:	5d                   	pop    %rbp
    a07f:	c3                   	retq   

000000000000a080 <safe_mod_func_uint64_t_u_u>:
    a080:	f3 0f 1e fa          	endbr64 
    a084:	55                   	push   %rbp
    a085:	48 89 e5             	mov    %rsp,%rbp
    a088:	48 89 7d f8          	mov    %rdi,-0x8(%rbp)
    a08c:	48 89 75 f0          	mov    %rsi,-0x10(%rbp)
    a090:	48 83 7d f0 00       	cmpq   $0x0,-0x10(%rbp)
    a095:	74 12                	je     a0a9 <safe_mod_func_uint64_t_u_u+0x29>
    a097:	48 8b 45 f8          	mov    -0x8(%rbp),%rax
    a09b:	ba 00 00 00 00       	mov    $0x0,%edx
    a0a0:	48 f7 75 f0          	divq   -0x10(%rbp)
    a0a4:	48 89 d0             	mov    %rdx,%rax
    a0a7:	eb 04                	jmp    a0ad <safe_mod_func_uint64_t_u_u+0x2d>
    a0a9:	48 8b 45 f8          	mov    -0x8(%rbp),%rax
    a0ad:	5d                   	pop    %rbp
    a0ae:	c3                   	retq   

000000000000a0af <safe_div_func_uint64_t_u_u>:
    a0af:	f3 0f 1e fa          	endbr64 
    a0b3:	55                   	push   %rbp
    a0b4:	48 89 e5             	mov    %rsp,%rbp
    a0b7:	48 89 7d f8          	mov    %rdi,-0x8(%rbp)
    a0bb:	48 89 75 f0          	mov    %rsi,-0x10(%rbp)
    a0bf:	48 83 7d f0 00       	cmpq   $0x0,-0x10(%rbp)
    a0c4:	74 0f                	je     a0d5 <safe_div_func_uint64_t_u_u+0x26>
    a0c6:	48 8b 45 f8          	mov    -0x8(%rbp),%rax
    a0ca:	ba 00 00 00 00       	mov    $0x0,%edx
    a0cf:	48 f7 75 f0          	divq   -0x10(%rbp)
    a0d3:	eb 04                	jmp    a0d9 <safe_div_func_uint64_t_u_u+0x2a>
    a0d5:	48 8b 45 f8          	mov    -0x8(%rbp),%rax
    a0d9:	5d                   	pop    %rbp
    a0da:	c3                   	retq   

000000000000a0db <safe_lshift_func_uint64_t_u_s>:
    a0db:	f3 0f 1e fa          	endbr64 
    a0df:	55                   	push   %rbp
    a0e0:	48 89 e5             	mov    %rsp,%rbp
    a0e3:	48 89 7d f8          	mov    %rdi,-0x8(%rbp)
    a0e7:	89 75 f4             	mov    %esi,-0xc(%rbp)
    a0ea:	83 7d f4 00          	cmpl   $0x0,-0xc(%rbp)
    a0ee:	78 2f                	js     a11f <safe_lshift_func_uint64_t_u_s+0x44>
    a0f0:	83 7d f4 1f          	cmpl   $0x1f,-0xc(%rbp)
    a0f4:	7f 29                	jg     a11f <safe_lshift_func_uint64_t_u_s+0x44>
    a0f6:	8b 45 f4             	mov    -0xc(%rbp),%eax
    a0f9:	48 c7 c2 ff ff ff ff 	mov    $0xffffffffffffffff,%rdx
    a100:	89 c1                	mov    %eax,%ecx
    a102:	48 d3 ea             	shr    %cl,%rdx
    a105:	48 89 d0             	mov    %rdx,%rax
    a108:	48 39 45 f8          	cmp    %rax,-0x8(%rbp)
    a10c:	77 11                	ja     a11f <safe_lshift_func_uint64_t_u_s+0x44>
    a10e:	8b 45 f4             	mov    -0xc(%rbp),%eax
    a111:	48 8b 55 f8          	mov    -0x8(%rbp),%rdx
    a115:	89 c1                	mov    %eax,%ecx
    a117:	48 d3 e2             	shl    %cl,%rdx
    a11a:	48 89 d0             	mov    %rdx,%rax
    a11d:	eb 04                	jmp    a123 <safe_lshift_func_uint64_t_u_s+0x48>
    a11f:	48 8b 45 f8          	mov    -0x8(%rbp),%rax
    a123:	5d                   	pop    %rbp
    a124:	c3                   	retq   

000000000000a125 <safe_lshift_func_uint64_t_u_u>:
    a125:	f3 0f 1e fa          	endbr64 
    a129:	55                   	push   %rbp
    a12a:	48 89 e5             	mov    %rsp,%rbp
    a12d:	48 89 7d f8          	mov    %rdi,-0x8(%rbp)
    a131:	89 75 f4             	mov    %esi,-0xc(%rbp)
    a134:	83 7d f4 1f          	cmpl   $0x1f,-0xc(%rbp)
    a138:	77 29                	ja     a163 <safe_lshift_func_uint64_t_u_u+0x3e>
    a13a:	8b 45 f4             	mov    -0xc(%rbp),%eax
    a13d:	48 c7 c2 ff ff ff ff 	mov    $0xffffffffffffffff,%rdx
    a144:	89 c1                	mov    %eax,%ecx
    a146:	48 d3 ea             	shr    %cl,%rdx
    a149:	48 89 d0             	mov    %rdx,%rax
    a14c:	48 39 45 f8          	cmp    %rax,-0x8(%rbp)
    a150:	77 11                	ja     a163 <safe_lshift_func_uint64_t_u_u+0x3e>
    a152:	8b 45 f4             	mov    -0xc(%rbp),%eax
    a155:	48 8b 55 f8          	mov    -0x8(%rbp),%rdx
    a159:	89 c1                	mov    %eax,%ecx
    a15b:	48 d3 e2             	shl    %cl,%rdx
    a15e:	48 89 d0             	mov    %rdx,%rax
    a161:	eb 04                	jmp    a167 <safe_lshift_func_uint64_t_u_u+0x42>
    a163:	48 8b 45 f8          	mov    -0x8(%rbp),%rax
    a167:	5d                   	pop    %rbp
    a168:	c3                   	retq   

000000000000a169 <safe_rshift_func_uint64_t_u_s>:
    a169:	f3 0f 1e fa          	endbr64 
    a16d:	55                   	push   %rbp
    a16e:	48 89 e5             	mov    %rsp,%rbp
    a171:	48 89 7d f8          	mov    %rdi,-0x8(%rbp)
    a175:	89 75 f4             	mov    %esi,-0xc(%rbp)
    a178:	83 7d f4 00          	cmpl   $0x0,-0xc(%rbp)
    a17c:	78 17                	js     a195 <safe_rshift_func_uint64_t_u_s+0x2c>
    a17e:	83 7d f4 1f          	cmpl   $0x1f,-0xc(%rbp)
    a182:	7f 11                	jg     a195 <safe_rshift_func_uint64_t_u_s+0x2c>
    a184:	8b 45 f4             	mov    -0xc(%rbp),%eax
    a187:	48 8b 55 f8          	mov    -0x8(%rbp),%rdx
    a18b:	89 c1                	mov    %eax,%ecx
    a18d:	48 d3 ea             	shr    %cl,%rdx
    a190:	48 89 d0             	mov    %rdx,%rax
    a193:	eb 04                	jmp    a199 <safe_rshift_func_uint64_t_u_s+0x30>
    a195:	48 8b 45 f8          	mov    -0x8(%rbp),%rax
    a199:	5d                   	pop    %rbp
    a19a:	c3                   	retq   

000000000000a19b <safe_rshift_func_uint64_t_u_u>:
    a19b:	f3 0f 1e fa          	endbr64 
    a19f:	55                   	push   %rbp
    a1a0:	48 89 e5             	mov    %rsp,%rbp
    a1a3:	48 89 7d f8          	mov    %rdi,-0x8(%rbp)
    a1a7:	89 75 f4             	mov    %esi,-0xc(%rbp)
    a1aa:	83 7d f4 1f          	cmpl   $0x1f,-0xc(%rbp)
    a1ae:	77 11                	ja     a1c1 <safe_rshift_func_uint64_t_u_u+0x26>
    a1b0:	8b 45 f4             	mov    -0xc(%rbp),%eax
    a1b3:	48 8b 55 f8          	mov    -0x8(%rbp),%rdx
    a1b7:	89 c1                	mov    %eax,%ecx
    a1b9:	48 d3 ea             	shr    %cl,%rdx
    a1bc:	48 89 d0             	mov    %rdx,%rax
    a1bf:	eb 04                	jmp    a1c5 <safe_rshift_func_uint64_t_u_u+0x2a>
    a1c1:	48 8b 45 f8          	mov    -0x8(%rbp),%rax
    a1c5:	5d                   	pop    %rbp
    a1c6:	c3                   	retq   

000000000000a1c7 <safe_add_func_float_f_f>:
    a1c7:	f3 0f 1e fa          	endbr64 
    a1cb:	55                   	push   %rbp
    a1cc:	48 89 e5             	mov    %rsp,%rbp
    a1cf:	f3 0f 11 45 fc       	movss  %xmm0,-0x4(%rbp)
    a1d4:	f3 0f 11 4d f8       	movss  %xmm1,-0x8(%rbp)
    a1d9:	f3 0f 10 4d fc       	movss  -0x4(%rbp),%xmm1
    a1de:	f3 0f 10 05 e2 cd 00 	movss  0xcde2(%rip),%xmm0        # 16fc8 <l_2725.4586+0x708>
    a1e5:	00 
    a1e6:	f3 0f 59 c8          	mulss  %xmm0,%xmm1
    a1ea:	f3 0f 10 55 f8       	movss  -0x8(%rbp),%xmm2
    a1ef:	f3 0f 10 05 d1 cd 00 	movss  0xcdd1(%rip),%xmm0        # 16fc8 <l_2725.4586+0x708>
    a1f6:	00 
    a1f7:	f3 0f 59 c2          	mulss  %xmm2,%xmm0
    a1fb:	f3 0f 58 c1          	addss  %xmm1,%xmm0
    a1ff:	f3 0f 10 0d c9 cd 00 	movss  0xcdc9(%rip),%xmm1        # 16fd0 <l_2725.4586+0x710>
    a206:	00 
    a207:	0f 54 c1             	andps  %xmm1,%xmm0
    a20a:	0f 2f 05 cf cd 00 00 	comiss 0xcdcf(%rip),%xmm0        # 16fe0 <l_2725.4586+0x720>
    a211:	76 07                	jbe    a21a <safe_add_func_float_f_f+0x53>
    a213:	f3 0f 10 45 fc       	movss  -0x4(%rbp),%xmm0
    a218:	eb 0a                	jmp    a224 <safe_add_func_float_f_f+0x5d>
    a21a:	f3 0f 10 45 fc       	movss  -0x4(%rbp),%xmm0
    a21f:	f3 0f 58 45 f8       	addss  -0x8(%rbp),%xmm0
    a224:	5d                   	pop    %rbp
    a225:	c3                   	retq   

000000000000a226 <safe_sub_func_float_f_f>:
    a226:	f3 0f 1e fa          	endbr64 
    a22a:	55                   	push   %rbp
    a22b:	48 89 e5             	mov    %rsp,%rbp
    a22e:	f3 0f 11 45 fc       	movss  %xmm0,-0x4(%rbp)
    a233:	f3 0f 11 4d f8       	movss  %xmm1,-0x8(%rbp)
    a238:	f3 0f 10 4d fc       	movss  -0x4(%rbp),%xmm1
    a23d:	f3 0f 10 05 83 cd 00 	movss  0xcd83(%rip),%xmm0        # 16fc8 <l_2725.4586+0x708>
    a244:	00 
    a245:	f3 0f 59 c1          	mulss  %xmm1,%xmm0
    a249:	f3 0f 10 55 f8       	movss  -0x8(%rbp),%xmm2
    a24e:	f3 0f 10 0d 72 cd 00 	movss  0xcd72(%rip),%xmm1        # 16fc8 <l_2725.4586+0x708>
    a255:	00 
    a256:	f3 0f 59 ca          	mulss  %xmm2,%xmm1
    a25a:	f3 0f 5c c1          	subss  %xmm1,%xmm0
    a25e:	f3 0f 10 0d 6a cd 00 	movss  0xcd6a(%rip),%xmm1        # 16fd0 <l_2725.4586+0x710>
    a265:	00 
    a266:	0f 54 c1             	andps  %xmm1,%xmm0
    a269:	0f 2f 05 70 cd 00 00 	comiss 0xcd70(%rip),%xmm0        # 16fe0 <l_2725.4586+0x720>
    a270:	76 07                	jbe    a279 <safe_sub_func_float_f_f+0x53>
    a272:	f3 0f 10 45 fc       	movss  -0x4(%rbp),%xmm0
    a277:	eb 0a                	jmp    a283 <safe_sub_func_float_f_f+0x5d>
    a279:	f3 0f 10 45 fc       	movss  -0x4(%rbp),%xmm0
    a27e:	f3 0f 5c 45 f8       	subss  -0x8(%rbp),%xmm0
    a283:	5d                   	pop    %rbp
    a284:	c3                   	retq   

000000000000a285 <safe_mul_func_float_f_f>:
    a285:	f3 0f 1e fa          	endbr64 
    a289:	55                   	push   %rbp
    a28a:	48 89 e5             	mov    %rsp,%rbp
    a28d:	f3 0f 11 45 fc       	movss  %xmm0,-0x4(%rbp)
    a292:	f3 0f 11 4d f8       	movss  %xmm1,-0x8(%rbp)
    a297:	f3 0f 10 4d fc       	movss  -0x4(%rbp),%xmm1
    a29c:	f3 0f 10 05 40 cd 00 	movss  0xcd40(%rip),%xmm0        # 16fe4 <l_2725.4586+0x724>
    a2a3:	00 
    a2a4:	f3 0f 59 c8          	mulss  %xmm0,%xmm1
    a2a8:	f3 0f 10 55 f8       	movss  -0x8(%rbp),%xmm2
    a2ad:	f3 0f 10 05 33 cd 00 	movss  0xcd33(%rip),%xmm0        # 16fe8 <l_2725.4586+0x728>
    a2b4:	00 
    a2b5:	f3 0f 59 c2          	mulss  %xmm2,%xmm0
    a2b9:	f3 0f 59 c1          	mulss  %xmm1,%xmm0
    a2bd:	f3 0f 10 0d 0b cd 00 	movss  0xcd0b(%rip),%xmm1        # 16fd0 <l_2725.4586+0x710>
    a2c4:	00 
    a2c5:	0f 54 c1             	andps  %xmm1,%xmm0
    a2c8:	0f 2f 05 1d cd 00 00 	comiss 0xcd1d(%rip),%xmm0        # 16fec <l_2725.4586+0x72c>
    a2cf:	76 07                	jbe    a2d8 <safe_mul_func_float_f_f+0x53>
    a2d1:	f3 0f 10 45 fc       	movss  -0x4(%rbp),%xmm0
    a2d6:	eb 0a                	jmp    a2e2 <safe_mul_func_float_f_f+0x5d>
    a2d8:	f3 0f 10 45 fc       	movss  -0x4(%rbp),%xmm0
    a2dd:	f3 0f 59 45 f8       	mulss  -0x8(%rbp),%xmm0
    a2e2:	5d                   	pop    %rbp
    a2e3:	c3                   	retq   

000000000000a2e4 <safe_div_func_float_f_f>:
    a2e4:	f3 0f 1e fa          	endbr64 
    a2e8:	55                   	push   %rbp
    a2e9:	48 89 e5             	mov    %rsp,%rbp
    a2ec:	f3 0f 11 45 fc       	movss  %xmm0,-0x4(%rbp)
    a2f1:	f3 0f 11 4d f8       	movss  %xmm1,-0x8(%rbp)
    a2f6:	f3 0f 10 45 f8       	movss  -0x8(%rbp),%xmm0
    a2fb:	f3 0f 10 0d cd cc 00 	movss  0xcccd(%rip),%xmm1        # 16fd0 <l_2725.4586+0x710>
    a302:	00 
    a303:	0f 54 c8             	andps  %xmm0,%xmm1
    a306:	f3 0f 10 05 e2 cc 00 	movss  0xcce2(%rip),%xmm0        # 16ff0 <l_2725.4586+0x730>
    a30d:	00 
    a30e:	0f 2f c1             	comiss %xmm1,%xmm0
    a311:	0f 97 c0             	seta   %al
    a314:	83 f0 01             	xor    $0x1,%eax
    a317:	84 c0                	test   %al,%al
    a319:	75 56                	jne    a371 <safe_div_func_float_f_f+0x8d>
    a31b:	66 0f ef c0          	pxor   %xmm0,%xmm0
    a31f:	0f 2e 45 f8          	ucomiss -0x8(%rbp),%xmm0
    a323:	7a 0a                	jp     a32f <safe_div_func_float_f_f+0x4b>
    a325:	66 0f ef c0          	pxor   %xmm0,%xmm0
    a329:	0f 2e 45 f8          	ucomiss -0x8(%rbp),%xmm0
    a32d:	74 4e                	je     a37d <safe_div_func_float_f_f+0x99>
    a32f:	f3 0f 10 4d fc       	movss  -0x4(%rbp),%xmm1
    a334:	f3 0f 10 05 b8 cc 00 	movss  0xccb8(%rip),%xmm0        # 16ff4 <l_2725.4586+0x734>
    a33b:	00 
    a33c:	f3 0f 59 c1          	mulss  %xmm1,%xmm0
    a340:	f3 0f 10 55 f8       	movss  -0x8(%rbp),%xmm2
    a345:	f3 0f 10 0d ab cc 00 	movss  0xccab(%rip),%xmm1        # 16ff8 <l_2725.4586+0x738>
    a34c:	00 
    a34d:	f3 0f 59 ca          	mulss  %xmm2,%xmm1
    a351:	f3 0f 5e c1          	divss  %xmm1,%xmm0
    a355:	f3 0f 10 0d 73 cc 00 	movss  0xcc73(%rip),%xmm1        # 16fd0 <l_2725.4586+0x710>
    a35c:	00 
    a35d:	0f 54 c1             	andps  %xmm1,%xmm0
    a360:	0f 2f 05 95 cc 00 00 	comiss 0xcc95(%rip),%xmm0        # 16ffc <l_2725.4586+0x73c>
    a367:	0f 97 c0             	seta   %al
    a36a:	83 f0 01             	xor    $0x1,%eax
    a36d:	84 c0                	test   %al,%al
    a36f:	74 0c                	je     a37d <safe_div_func_float_f_f+0x99>
    a371:	f3 0f 10 45 fc       	movss  -0x4(%rbp),%xmm0
    a376:	f3 0f 5e 45 f8       	divss  -0x8(%rbp),%xmm0
    a37b:	eb 05                	jmp    a382 <safe_div_func_float_f_f+0x9e>
    a37d:	f3 0f 10 45 fc       	movss  -0x4(%rbp),%xmm0
    a382:	5d                   	pop    %rbp
    a383:	c3                   	retq   

000000000000a384 <safe_add_func_double_f_f>:
    a384:	f3 0f 1e fa          	endbr64 
    a388:	55                   	push   %rbp
    a389:	48 89 e5             	mov    %rsp,%rbp
    a38c:	f2 0f 11 45 f8       	movsd  %xmm0,-0x8(%rbp)
    a391:	f2 0f 11 4d f0       	movsd  %xmm1,-0x10(%rbp)
    a396:	f2 0f 10 4d f8       	movsd  -0x8(%rbp),%xmm1
    a39b:	f2 0f 10 05 5d cc 00 	movsd  0xcc5d(%rip),%xmm0        # 17000 <l_2725.4586+0x740>
    a3a2:	00 
    a3a3:	f2 0f 59 c8          	mulsd  %xmm0,%xmm1
    a3a7:	f2 0f 10 55 f0       	movsd  -0x10(%rbp),%xmm2
    a3ac:	f2 0f 10 05 4c cc 00 	movsd  0xcc4c(%rip),%xmm0        # 17000 <l_2725.4586+0x740>
    a3b3:	00 
    a3b4:	f2 0f 59 c2          	mulsd  %xmm2,%xmm0
    a3b8:	f2 0f 58 c1          	addsd  %xmm1,%xmm0
    a3bc:	f3 0f 7e 0d 4c cc 00 	movq   0xcc4c(%rip),%xmm1        # 17010 <l_2725.4586+0x750>
    a3c3:	00 
    a3c4:	66 0f 54 c1          	andpd  %xmm1,%xmm0
    a3c8:	66 0f 2f 05 50 cc 00 	comisd 0xcc50(%rip),%xmm0        # 17020 <l_2725.4586+0x760>
    a3cf:	00 
    a3d0:	76 07                	jbe    a3d9 <safe_add_func_double_f_f+0x55>
    a3d2:	f2 0f 10 45 f8       	movsd  -0x8(%rbp),%xmm0
    a3d7:	eb 0a                	jmp    a3e3 <safe_add_func_double_f_f+0x5f>
    a3d9:	f2 0f 10 45 f8       	movsd  -0x8(%rbp),%xmm0
    a3de:	f2 0f 58 45 f0       	addsd  -0x10(%rbp),%xmm0
    a3e3:	5d                   	pop    %rbp
    a3e4:	c3                   	retq   

000000000000a3e5 <safe_sub_func_double_f_f>:
    a3e5:	f3 0f 1e fa          	endbr64 
    a3e9:	55                   	push   %rbp
    a3ea:	48 89 e5             	mov    %rsp,%rbp
    a3ed:	f2 0f 11 45 f8       	movsd  %xmm0,-0x8(%rbp)
    a3f2:	f2 0f 11 4d f0       	movsd  %xmm1,-0x10(%rbp)
    a3f7:	f2 0f 10 4d f8       	movsd  -0x8(%rbp),%xmm1
    a3fc:	f2 0f 10 05 fc cb 00 	movsd  0xcbfc(%rip),%xmm0        # 17000 <l_2725.4586+0x740>
    a403:	00 
    a404:	f2 0f 59 c1          	mulsd  %xmm1,%xmm0
    a408:	f2 0f 10 55 f0       	movsd  -0x10(%rbp),%xmm2
    a40d:	f2 0f 10 0d eb cb 00 	movsd  0xcbeb(%rip),%xmm1        # 17000 <l_2725.4586+0x740>
    a414:	00 
    a415:	f2 0f 59 ca          	mulsd  %xmm2,%xmm1
    a419:	f2 0f 5c c1          	subsd  %xmm1,%xmm0
    a41d:	f3 0f 7e 0d eb cb 00 	movq   0xcbeb(%rip),%xmm1        # 17010 <l_2725.4586+0x750>
    a424:	00 
    a425:	66 0f 54 c1          	andpd  %xmm1,%xmm0
    a429:	66 0f 2f 05 ef cb 00 	comisd 0xcbef(%rip),%xmm0        # 17020 <l_2725.4586+0x760>
    a430:	00 
    a431:	76 07                	jbe    a43a <safe_sub_func_double_f_f+0x55>
    a433:	f2 0f 10 45 f8       	movsd  -0x8(%rbp),%xmm0
    a438:	eb 0a                	jmp    a444 <safe_sub_func_double_f_f+0x5f>
    a43a:	f2 0f 10 45 f8       	movsd  -0x8(%rbp),%xmm0
    a43f:	f2 0f 5c 45 f0       	subsd  -0x10(%rbp),%xmm0
    a444:	5d                   	pop    %rbp
    a445:	c3                   	retq   

000000000000a446 <safe_mul_func_double_f_f>:
    a446:	f3 0f 1e fa          	endbr64 
    a44a:	55                   	push   %rbp
    a44b:	48 89 e5             	mov    %rsp,%rbp
    a44e:	f2 0f 11 45 f8       	movsd  %xmm0,-0x8(%rbp)
    a453:	f2 0f 11 4d f0       	movsd  %xmm1,-0x10(%rbp)
    a458:	f2 0f 10 4d f8       	movsd  -0x8(%rbp),%xmm1
    a45d:	f2 0f 10 05 c3 cb 00 	movsd  0xcbc3(%rip),%xmm0        # 17028 <l_2725.4586+0x768>
    a464:	00 
    a465:	f2 0f 59 c8          	mulsd  %xmm0,%xmm1
    a469:	f2 0f 10 55 f0       	movsd  -0x10(%rbp),%xmm2
    a46e:	f2 0f 10 05 ba cb 00 	movsd  0xcbba(%rip),%xmm0        # 17030 <l_2725.4586+0x770>
    a475:	00 
    a476:	f2 0f 59 c2          	mulsd  %xmm2,%xmm0
    a47a:	f2 0f 59 c1          	mulsd  %xmm1,%xmm0
    a47e:	f3 0f 7e 0d 8a cb 00 	movq   0xcb8a(%rip),%xmm1        # 17010 <l_2725.4586+0x750>
    a485:	00 
    a486:	66 0f 54 c1          	andpd  %xmm1,%xmm0
    a48a:	66 0f 2f 05 a6 cb 00 	comisd 0xcba6(%rip),%xmm0        # 17038 <l_2725.4586+0x778>
    a491:	00 
    a492:	76 07                	jbe    a49b <safe_mul_func_double_f_f+0x55>
    a494:	f2 0f 10 45 f8       	movsd  -0x8(%rbp),%xmm0
    a499:	eb 0a                	jmp    a4a5 <safe_mul_func_double_f_f+0x5f>
    a49b:	f2 0f 10 45 f8       	movsd  -0x8(%rbp),%xmm0
    a4a0:	f2 0f 59 45 f0       	mulsd  -0x10(%rbp),%xmm0
    a4a5:	5d                   	pop    %rbp
    a4a6:	c3                   	retq   

000000000000a4a7 <safe_div_func_double_f_f>:
    a4a7:	f3 0f 1e fa          	endbr64 
    a4ab:	55                   	push   %rbp
    a4ac:	48 89 e5             	mov    %rsp,%rbp
    a4af:	f2 0f 11 45 f8       	movsd  %xmm0,-0x8(%rbp)
    a4b4:	f2 0f 11 4d f0       	movsd  %xmm1,-0x10(%rbp)
    a4b9:	f2 0f 10 45 f0       	movsd  -0x10(%rbp),%xmm0
    a4be:	f3 0f 7e 0d 4a cb 00 	movq   0xcb4a(%rip),%xmm1        # 17010 <l_2725.4586+0x750>
    a4c5:	00 
    a4c6:	66 0f 54 c8          	andpd  %xmm0,%xmm1
    a4ca:	f2 0f 10 05 6e cb 00 	movsd  0xcb6e(%rip),%xmm0        # 17040 <l_2725.4586+0x780>
    a4d1:	00 
    a4d2:	66 0f 2f c1          	comisd %xmm1,%xmm0
    a4d6:	0f 97 c0             	seta   %al
    a4d9:	83 f0 01             	xor    $0x1,%eax
    a4dc:	84 c0                	test   %al,%al
    a4de:	75 5a                	jne    a53a <safe_div_func_double_f_f+0x93>
    a4e0:	66 0f ef c0          	pxor   %xmm0,%xmm0
    a4e4:	66 0f 2e 45 f0       	ucomisd -0x10(%rbp),%xmm0
    a4e9:	7a 0b                	jp     a4f6 <safe_div_func_double_f_f+0x4f>
    a4eb:	66 0f ef c0          	pxor   %xmm0,%xmm0
    a4ef:	66 0f 2e 45 f0       	ucomisd -0x10(%rbp),%xmm0
    a4f4:	74 50                	je     a546 <safe_div_func_double_f_f+0x9f>
    a4f6:	f2 0f 10 4d f8       	movsd  -0x8(%rbp),%xmm1
    a4fb:	f2 0f 10 05 45 cb 00 	movsd  0xcb45(%rip),%xmm0        # 17048 <l_2725.4586+0x788>
    a502:	00 
    a503:	f2 0f 59 c1          	mulsd  %xmm1,%xmm0
    a507:	f2 0f 10 55 f0       	movsd  -0x10(%rbp),%xmm2
    a50c:	f2 0f 10 0d 3c cb 00 	movsd  0xcb3c(%rip),%xmm1        # 17050 <l_2725.4586+0x790>
    a513:	00 
    a514:	f2 0f 59 ca          	mulsd  %xmm2,%xmm1
    a518:	f2 0f 5e c1          	divsd  %xmm1,%xmm0
    a51c:	f3 0f 7e 0d ec ca 00 	movq   0xcaec(%rip),%xmm1        # 17010 <l_2725.4586+0x750>
    a523:	00 
    a524:	66 0f 54 c1          	andpd  %xmm1,%xmm0
    a528:	66 0f 2f 05 28 cb 00 	comisd 0xcb28(%rip),%xmm0        # 17058 <l_2725.4586+0x798>
    a52f:	00 
    a530:	0f 97 c0             	seta   %al
    a533:	83 f0 01             	xor    $0x1,%eax
    a536:	84 c0                	test   %al,%al
    a538:	74 0c                	je     a546 <safe_div_func_double_f_f+0x9f>
    a53a:	f2 0f 10 45 f8       	movsd  -0x8(%rbp),%xmm0
    a53f:	f2 0f 5e 45 f0       	divsd  -0x10(%rbp),%xmm0
    a544:	eb 05                	jmp    a54b <safe_div_func_double_f_f+0xa4>
    a546:	f2 0f 10 45 f8       	movsd  -0x8(%rbp),%xmm0
    a54b:	5d                   	pop    %rbp
    a54c:	c3                   	retq   

000000000000a54d <safe_convert_func_float_to_int32_t>:
    a54d:	f3 0f 1e fa          	endbr64 
    a551:	55                   	push   %rbp
    a552:	48 89 e5             	mov    %rsp,%rbp
    a555:	f3 0f 11 45 fc       	movss  %xmm0,-0x4(%rbp)
    a55a:	f3 0f 10 05 fe ca 00 	movss  0xcafe(%rip),%xmm0        # 17060 <l_2725.4586+0x7a0>
    a561:	00 
    a562:	0f 2f 45 fc          	comiss -0x4(%rbp),%xmm0
    a566:	0f 93 c0             	setae  %al
    a569:	83 f0 01             	xor    $0x1,%eax
    a56c:	84 c0                	test   %al,%al
    a56e:	74 21                	je     a591 <safe_convert_func_float_to_int32_t+0x44>
    a570:	f3 0f 10 45 fc       	movss  -0x4(%rbp),%xmm0
    a575:	0f 2f 05 e8 ca 00 00 	comiss 0xcae8(%rip),%xmm0        # 17064 <l_2725.4586+0x7a4>
    a57c:	0f 93 c0             	setae  %al
    a57f:	83 f0 01             	xor    $0x1,%eax
    a582:	84 c0                	test   %al,%al
    a584:	74 0b                	je     a591 <safe_convert_func_float_to_int32_t+0x44>
    a586:	f3 0f 10 45 fc       	movss  -0x4(%rbp),%xmm0
    a58b:	f3 0f 2c c0          	cvttss2si %xmm0,%eax
    a58f:	eb 05                	jmp    a596 <safe_convert_func_float_to_int32_t+0x49>
    a591:	b8 ff ff ff 7f       	mov    $0x7fffffff,%eax
    a596:	5d                   	pop    %rbp
    a597:	c3                   	retq   

000000000000a598 <crc32_gentab>:
    a598:	f3 0f 1e fa          	endbr64 
    a59c:	55                   	push   %rbp
    a59d:	48 89 e5             	mov    %rsp,%rbp
    a5a0:	c7 45 fc 20 83 b8 ed 	movl   $0xedb88320,-0x4(%rbp)
    a5a7:	c7 45 f4 00 00 00 00 	movl   $0x0,-0xc(%rbp)
    a5ae:	eb 51                	jmp    a601 <crc32_gentab+0x69>
    a5b0:	8b 45 f4             	mov    -0xc(%rbp),%eax
    a5b3:	89 45 f0             	mov    %eax,-0x10(%rbp)
    a5b6:	c7 45 f8 08 00 00 00 	movl   $0x8,-0x8(%rbp)
    a5bd:	eb 1e                	jmp    a5dd <crc32_gentab+0x45>
    a5bf:	8b 45 f0             	mov    -0x10(%rbp),%eax
    a5c2:	83 e0 01             	and    $0x1,%eax
    a5c5:	85 c0                	test   %eax,%eax
    a5c7:	74 0d                	je     a5d6 <crc32_gentab+0x3e>
    a5c9:	8b 45 f0             	mov    -0x10(%rbp),%eax
    a5cc:	d1 e8                	shr    %eax
    a5ce:	33 45 fc             	xor    -0x4(%rbp),%eax
    a5d1:	89 45 f0             	mov    %eax,-0x10(%rbp)
    a5d4:	eb 03                	jmp    a5d9 <crc32_gentab+0x41>
    a5d6:	d1 6d f0             	shrl   -0x10(%rbp)
    a5d9:	83 6d f8 01          	subl   $0x1,-0x8(%rbp)
    a5dd:	83 7d f8 00          	cmpl   $0x0,-0x8(%rbp)
    a5e1:	7f dc                	jg     a5bf <crc32_gentab+0x27>
    a5e3:	8b 45 f4             	mov    -0xc(%rbp),%eax
    a5e6:	48 98                	cltq   
    a5e8:	48 8d 0c 85 00 00 00 	lea    0x0(,%rax,4),%rcx
    a5ef:	00 
    a5f0:	48 8d 15 29 57 01 00 	lea    0x15729(%rip),%rdx        # 1fd20 <crc32_tab>
    a5f7:	8b 45 f0             	mov    -0x10(%rbp),%eax
    a5fa:	89 04 11             	mov    %eax,(%rcx,%rdx,1)
    a5fd:	83 45 f4 01          	addl   $0x1,-0xc(%rbp)
    a601:	81 7d f4 ff 00 00 00 	cmpl   $0xff,-0xc(%rbp)
    a608:	7e a6                	jle    a5b0 <crc32_gentab+0x18>
    a60a:	90                   	nop
    a60b:	90                   	nop
    a60c:	5d                   	pop    %rbp
    a60d:	c3                   	retq   

000000000000a60e <crc32_byte>:
    a60e:	f3 0f 1e fa          	endbr64 
    a612:	55                   	push   %rbp
    a613:	48 89 e5             	mov    %rsp,%rbp
    a616:	89 f8                	mov    %edi,%eax
    a618:	88 45 fc             	mov    %al,-0x4(%rbp)
    a61b:	8b 05 ff f9 00 00    	mov    0xf9ff(%rip),%eax        # 1a020 <crc32_context>
    a621:	c1 e8 08             	shr    $0x8,%eax
    a624:	89 c1                	mov    %eax,%ecx
    a626:	0f b6 55 fc          	movzbl -0x4(%rbp),%edx
    a62a:	8b 05 f0 f9 00 00    	mov    0xf9f0(%rip),%eax        # 1a020 <crc32_context>
    a630:	31 d0                	xor    %edx,%eax
    a632:	0f b6 c0             	movzbl %al,%eax
    a635:	89 c0                	mov    %eax,%eax
    a637:	48 8d 14 85 00 00 00 	lea    0x0(,%rax,4),%rdx
    a63e:	00 
    a63f:	48 8d 05 da 56 01 00 	lea    0x156da(%rip),%rax        # 1fd20 <crc32_tab>
    a646:	8b 04 02             	mov    (%rdx,%rax,1),%eax
    a649:	31 c8                	xor    %ecx,%eax
    a64b:	89 05 cf f9 00 00    	mov    %eax,0xf9cf(%rip)        # 1a020 <crc32_context>
    a651:	90                   	nop
    a652:	5d                   	pop    %rbp
    a653:	c3                   	retq   

000000000000a654 <crc32_8bytes>:
    a654:	f3 0f 1e fa          	endbr64 
    a658:	55                   	push   %rbp
    a659:	48 89 e5             	mov    %rsp,%rbp
    a65c:	48 83 ec 08          	sub    $0x8,%rsp
    a660:	48 89 7d f8          	mov    %rdi,-0x8(%rbp)
    a664:	48 8b 45 f8          	mov    -0x8(%rbp),%rax
    a668:	0f b6 c0             	movzbl %al,%eax
    a66b:	89 c7                	mov    %eax,%edi
    a66d:	e8 9c ff ff ff       	callq  a60e <crc32_byte>
    a672:	48 8b 45 f8          	mov    -0x8(%rbp),%rax
    a676:	48 c1 e8 08          	shr    $0x8,%rax
    a67a:	0f b6 c0             	movzbl %al,%eax
    a67d:	89 c7                	mov    %eax,%edi
    a67f:	e8 8a ff ff ff       	callq  a60e <crc32_byte>
    a684:	48 8b 45 f8          	mov    -0x8(%rbp),%rax
    a688:	48 c1 e8 10          	shr    $0x10,%rax
    a68c:	0f b6 c0             	movzbl %al,%eax
    a68f:	89 c7                	mov    %eax,%edi
    a691:	e8 78 ff ff ff       	callq  a60e <crc32_byte>
    a696:	48 8b 45 f8          	mov    -0x8(%rbp),%rax
    a69a:	48 c1 e8 18          	shr    $0x18,%rax
    a69e:	0f b6 c0             	movzbl %al,%eax
    a6a1:	89 c7                	mov    %eax,%edi
    a6a3:	e8 66 ff ff ff       	callq  a60e <crc32_byte>
    a6a8:	48 8b 45 f8          	mov    -0x8(%rbp),%rax
    a6ac:	48 c1 e8 20          	shr    $0x20,%rax
    a6b0:	0f b6 c0             	movzbl %al,%eax
    a6b3:	89 c7                	mov    %eax,%edi
    a6b5:	e8 54 ff ff ff       	callq  a60e <crc32_byte>
    a6ba:	48 8b 45 f8          	mov    -0x8(%rbp),%rax
    a6be:	48 c1 e8 28          	shr    $0x28,%rax
    a6c2:	0f b6 c0             	movzbl %al,%eax
    a6c5:	89 c7                	mov    %eax,%edi
    a6c7:	e8 42 ff ff ff       	callq  a60e <crc32_byte>
    a6cc:	48 8b 45 f8          	mov    -0x8(%rbp),%rax
    a6d0:	48 c1 e8 30          	shr    $0x30,%rax
    a6d4:	0f b6 c0             	movzbl %al,%eax
    a6d7:	89 c7                	mov    %eax,%edi
    a6d9:	e8 30 ff ff ff       	callq  a60e <crc32_byte>
    a6de:	48 8b 45 f8          	mov    -0x8(%rbp),%rax
    a6e2:	48 c1 e8 38          	shr    $0x38,%rax
    a6e6:	0f b6 c0             	movzbl %al,%eax
    a6e9:	89 c7                	mov    %eax,%edi
    a6eb:	e8 1e ff ff ff       	callq  a60e <crc32_byte>
    a6f0:	90                   	nop
    a6f1:	c9                   	leaveq 
    a6f2:	c3                   	retq   

000000000000a6f3 <transparent_crc>:
    a6f3:	f3 0f 1e fa          	endbr64 
    a6f7:	55                   	push   %rbp
    a6f8:	48 89 e5             	mov    %rsp,%rbp
    a6fb:	48 83 ec 20          	sub    $0x20,%rsp
    a6ff:	48 89 7d f8          	mov    %rdi,-0x8(%rbp)
    a703:	48 89 75 f0          	mov    %rsi,-0x10(%rbp)
    a707:	89 55 ec             	mov    %edx,-0x14(%rbp)
    a70a:	48 8b 45 f8          	mov    -0x8(%rbp),%rax
    a70e:	48 89 c7             	mov    %rax,%rdi
    a711:	e8 3e ff ff ff       	callq  a654 <crc32_8bytes>
    a716:	83 7d ec 00          	cmpl   $0x0,-0x14(%rbp)
    a71a:	74 22                	je     a73e <transparent_crc+0x4b>
    a71c:	8b 05 fe f8 00 00    	mov    0xf8fe(%rip),%eax        # 1a020 <crc32_context>
    a722:	f7 d0                	not    %eax
    a724:	89 c2                	mov    %eax,%edx
    a726:	48 8b 45 f0          	mov    -0x10(%rbp),%rax
    a72a:	48 89 c6             	mov    %rax,%rsi
    a72d:	48 8d 3d fc a8 00 00 	lea    0xa8fc(%rip),%rdi        # 15030 <_IO_stdin_used+0x30>
    a734:	b8 00 00 00 00       	mov    $0x0,%eax
    a739:	e8 42 e9 ff ff       	callq  9080 <printf@plt>
    a73e:	90                   	nop
    a73f:	c9                   	leaveq 
    a740:	c3                   	retq   

000000000000a741 <transparent_crc_bytes>:
    a741:	f3 0f 1e fa          	endbr64 
    a745:	55                   	push   %rbp
    a746:	48 89 e5             	mov    %rsp,%rbp
    a749:	48 83 ec 30          	sub    $0x30,%rsp
    a74d:	48 89 7d e8          	mov    %rdi,-0x18(%rbp)
    a751:	89 75 e4             	mov    %esi,-0x1c(%rbp)
    a754:	48 89 55 d8          	mov    %rdx,-0x28(%rbp)
    a758:	89 4d e0             	mov    %ecx,-0x20(%rbp)
    a75b:	c7 45 fc 00 00 00 00 	movl   $0x0,-0x4(%rbp)
    a762:	eb 1e                	jmp    a782 <transparent_crc_bytes+0x41>
    a764:	8b 45 fc             	mov    -0x4(%rbp),%eax
    a767:	48 63 d0             	movslq %eax,%rdx
    a76a:	48 8b 45 e8          	mov    -0x18(%rbp),%rax
    a76e:	48 01 d0             	add    %rdx,%rax
    a771:	0f b6 00             	movzbl (%rax),%eax
    a774:	0f b6 c0             	movzbl %al,%eax
    a777:	89 c7                	mov    %eax,%edi
    a779:	e8 90 fe ff ff       	callq  a60e <crc32_byte>
    a77e:	83 45 fc 01          	addl   $0x1,-0x4(%rbp)
    a782:	8b 45 fc             	mov    -0x4(%rbp),%eax
    a785:	3b 45 e4             	cmp    -0x1c(%rbp),%eax
    a788:	7c da                	jl     a764 <transparent_crc_bytes+0x23>
    a78a:	83 7d e0 00          	cmpl   $0x0,-0x20(%rbp)
    a78e:	74 22                	je     a7b2 <transparent_crc_bytes+0x71>
    a790:	8b 05 8a f8 00 00    	mov    0xf88a(%rip),%eax        # 1a020 <crc32_context>
    a796:	f7 d0                	not    %eax
    a798:	89 c2                	mov    %eax,%edx
    a79a:	48 8b 45 d8          	mov    -0x28(%rbp),%rax
    a79e:	48 89 c6             	mov    %rax,%rsi
    a7a1:	48 8d 3d 88 a8 00 00 	lea    0xa888(%rip),%rdi        # 15030 <_IO_stdin_used+0x30>
    a7a8:	b8 00 00 00 00       	mov    $0x0,%eax
    a7ad:	e8 ce e8 ff ff       	callq  9080 <printf@plt>
    a7b2:	90                   	nop
    a7b3:	c9                   	leaveq 
    a7b4:	c3                   	retq   

000000000000a7b5 <func_1>:
    a7b5:	f3 0f 1e fa          	endbr64 
    a7b9:	55                   	push   %rbp
    a7ba:	48 89 e5             	mov    %rsp,%rbp
    a7bd:	41 57                	push   %r15
    a7bf:	41 56                	push   %r14
    a7c1:	41 55                	push   %r13
    a7c3:	41 54                	push   %r12
    a7c5:	53                   	push   %rbx
    a7c6:	48 81 ec 98 0c 00 00 	sub    $0xc98,%rsp
    a7cd:	48 89 bd 88 f3 ff ff 	mov    %rdi,-0xc78(%rbp)
    a7d4:	64 48 8b 04 25 28 00 	mov    %fs:0x28,%rax
    a7db:	00 00 
    a7dd:	48 89 45 c8          	mov    %rax,-0x38(%rbp)
    a7e1:	31 c0                	xor    %eax,%eax
    a7e3:	48 8d 05 3a f8 00 00 	lea    0xf83a(%rip),%rax        # 1a024 <g_3>
    a7ea:	48 89 85 00 f4 ff ff 	mov    %rax,-0xc00(%rbp)
    a7f1:	48 8d 05 2c f8 00 00 	lea    0xf82c(%rip),%rax        # 1a024 <g_3>
    a7f8:	48 89 85 08 f4 ff ff 	mov    %rax,-0xbf8(%rbp)
    a7ff:	48 8d 05 aa 54 01 00 	lea    0x154aa(%rip),%rax        # 1fcb0 <g_2689+0x10>
    a806:	48 89 85 10 f4 ff ff 	mov    %rax,-0xbf0(%rbp)
    a80d:	48 8d 05 9c 54 01 00 	lea    0x1549c(%rip),%rax        # 1fcb0 <g_2689+0x10>
    a814:	48 89 85 18 f4 ff ff 	mov    %rax,-0xbe8(%rbp)
    a81b:	48 8d 85 30 f5 ff ff 	lea    -0xad0(%rbp),%rax
    a822:	48 83 c0 08          	add    $0x8,%rax
    a826:	48 89 85 20 f4 ff ff 	mov    %rax,-0xbe0(%rbp)
    a82d:	c7 85 b4 f3 ff ff fc 	movl   $0xfffffffc,-0xc4c(%rbp)
    a834:	ff ff ff 
    a837:	66 c7 85 92 f3 ff ff 	movw   $0x307d,-0xc6e(%rbp)
    a83e:	7d 30 
    a840:	48 c7 85 28 f4 ff ff 	movq   $0x0,-0xbd8(%rbp)
    a847:	00 00 00 00 
    a84b:	66 c7 85 94 f3 ff ff 	movw   $0x8a8e,-0xc6c(%rbp)
    a852:	8e 8a 
    a854:	48 c7 85 30 f4 ff ff 	movq   $0x0,-0xbd0(%rbp)
    a85b:	00 00 00 00 
    a85f:	48 8d 05 ba 4b 01 00 	lea    0x14bba(%rip),%rax        # 1f420 <g_2069>
    a866:	48 89 85 38 f4 ff ff 	mov    %rax,-0xbc8(%rbp)
    a86d:	c7 85 ac f3 ff ff 00 	movl   $0x0,-0xc54(%rbp)
    a874:	00 00 00 
    a877:	eb 1e                	jmp    a897 <func_1+0xe2>
    a879:	8b 85 ac f3 ff ff    	mov    -0xc54(%rbp),%eax
    a87f:	48 98                	cltq   
    a881:	48 8d 15 9c f7 00 00 	lea    0xf79c(%rip),%rdx        # 1a024 <g_3>
    a888:	48 89 94 c5 40 f5 ff 	mov    %rdx,-0xac0(%rbp,%rax,8)
    a88f:	ff 
    a890:	83 85 ac f3 ff ff 01 	addl   $0x1,-0xc54(%rbp)
    a897:	83 bd ac f3 ff ff 03 	cmpl   $0x3,-0xc54(%rbp)
    a89e:	7e d9                	jle    a879 <func_1+0xc4>
    a8a0:	c7 85 ac f3 ff ff 00 	movl   $0x0,-0xc54(%rbp)
    a8a7:	00 00 00 
    a8aa:	eb 1a                	jmp    a8c6 <func_1+0x111>
    a8ac:	8b 85 ac f3 ff ff    	mov    -0xc54(%rbp),%eax
    a8b2:	48 98                	cltq   
    a8b4:	c7 84 85 30 f5 ff ff 	movl   $0xc7dc9bba,-0xad0(%rbp,%rax,4)
    a8bb:	ba 9b dc c7 
    a8bf:	83 85 ac f3 ff ff 01 	addl   $0x1,-0xc54(%rbp)
    a8c6:	83 bd ac f3 ff ff 03 	cmpl   $0x3,-0xc54(%rbp)
    a8cd:	7e dd                	jle    a8ac <func_1+0xf7>
    a8cf:	90                   	nop
    a8d0:	0f b6 05 53 f7 00 00 	movzbl 0xf753(%rip),%eax        # 1a02a <g_6>
    a8d7:	83 e8 01             	sub    $0x1,%eax
    a8da:	88 05 4a f7 00 00    	mov    %al,0xf74a(%rip)        # 1a02a <g_6>
    a8e0:	c7 05 3a f7 00 00 00 	movl   $0x0,0xf73a(%rip)        # 1a024 <g_3>
    a8e7:	00 00 00 
    a8ea:	e9 40 0e 00 00       	jmpq   b72f <func_1+0xf7a>
    a8ef:	48 b8 0d e6 78 19 c5 	movabs $0xa2e712c51978e60d,%rax
    a8f6:	12 e7 a2 
    a8f9:	48 89 85 80 f4 ff ff 	mov    %rax,-0xb80(%rbp)
    a900:	48 c7 85 88 f4 ff ff 	movq   $0x0,-0xb78(%rbp)
    a907:	00 00 00 00 
    a90b:	c7 85 a4 f3 ff ff d1 	movl   $0xde9992d1,-0xc5c(%rbp)
    a912:	92 99 de 
    a915:	c7 05 0d f7 00 00 00 	movl   $0x0,0xf70d(%rip)        # 1a02c <g_11>
    a91c:	00 00 00 
    a91f:	90                   	nop
    a920:	8b 05 06 f7 00 00    	mov    0xf706(%rip),%eax        # 1a02c <g_11>
    a926:	83 f8 f9             	cmp    $0xfffffff9,%eax
    a929:	0f 8c 5a 05 00 00    	jl     ae89 <func_1+0x6d4>
    a92f:	48 8d 05 f6 f6 00 00 	lea    0xf6f6(%rip),%rax        # 1a02c <g_11>
    a936:	48 89 85 c8 f4 ff ff 	mov    %rax,-0xb38(%rbp)
    a93d:	48 c7 85 d0 f4 ff ff 	movq   $0x0,-0xb30(%rbp)
    a944:	00 00 00 00 
    a948:	48 8d 05 e1 f6 00 00 	lea    0xf6e1(%rip),%rax        # 1a030 <g_57>
    a94f:	48 89 85 d8 f4 ff ff 	mov    %rax,-0xb28(%rbp)
    a956:	48 8d 05 83 58 01 00 	lea    0x15883(%rip),%rax        # 201e0 <g_2895>
    a95d:	48 89 85 e0 f4 ff ff 	mov    %rax,-0xb20(%rbp)
    a964:	48 8d 05 29 f7 00 00 	lea    0xf729(%rip),%rax        # 1a094 <g_118>
    a96b:	48 89 85 e8 f4 ff ff 	mov    %rax,-0xb18(%rbp)
    a972:	c7 85 f0 f3 ff ff 3c 	movl   $0x4483c33c,-0xc10(%rbp)
    a979:	c3 83 44 
    a97c:	48 8d 05 a9 f6 00 00 	lea    0xf6a9(%rip),%rax        # 1a02c <g_11>
    a983:	48 89 85 f0 f4 ff ff 	mov    %rax,-0xb10(%rbp)
    a98a:	48 8b 85 80 f4 ff ff 	mov    -0xb80(%rbp),%rax
    a991:	41 89 c7             	mov    %eax,%r15d
    a994:	48 8b 85 80 f4 ff ff 	mov    -0xb80(%rbp),%rax
    a99b:	44 0f b7 e0          	movzwl %ax,%r12d
    a99f:	48 8b 85 c8 f4 ff ff 	mov    -0xb38(%rbp),%rax
    a9a6:	8b 00                	mov    (%rax),%eax
    a9a8:	0f be d8             	movsbl %al,%ebx
    a9ab:	48 8b 85 80 f4 ff ff 	mov    -0xb80(%rbp),%rax
    a9b2:	44 0f be e8          	movsbl %al,%r13d
    a9b6:	48 8b 05 93 46 01 00 	mov    0x14693(%rip),%rax        # 1f050 <g_422>
    a9bd:	44 8b 30             	mov    (%rax),%r14d
    a9c0:	48 8b 85 c8 f4 ff ff 	mov    -0xb38(%rbp),%rax
    a9c7:	8b 00                	mov    (%rax),%eax
    a9c9:	89 85 4c f3 ff ff    	mov    %eax,-0xcb4(%rbp)
    a9cf:	48 8b 85 d8 f4 ff ff 	mov    -0xb28(%rbp),%rax
    a9d6:	0f b7 00             	movzwl (%rax),%eax
    a9d9:	89 c2                	mov    %eax,%edx
    a9db:	48 8b 85 00 f4 ff ff 	mov    -0xc00(%rbp),%rax
    a9e2:	8b 00                	mov    (%rax),%eax
    a9e4:	31 d0                	xor    %edx,%eax
    a9e6:	89 c2                	mov    %eax,%edx
    a9e8:	48 8b 85 d8 f4 ff ff 	mov    -0xb28(%rbp),%rax
    a9ef:	66 89 10             	mov    %dx,(%rax)
    a9f2:	48 8b 85 c8 f4 ff ff 	mov    -0xb38(%rbp),%rax
    a9f9:	8b 00                	mov    (%rax),%eax
    a9fb:	0f b7 c0             	movzwl %ax,%eax
    a9fe:	89 c7                	mov    %eax,%edi
    aa00:	e8 1c 2f 00 00       	callq  d921 <func_44>
    aa05:	0f b7 c0             	movzwl %ax,%eax
    aa08:	ba 00 00 00 00       	mov    $0x0,%edx
    aa0d:	89 c6                	mov    %eax,%esi
    aa0f:	48 8d 3d 0e f6 00 00 	lea    0xf60e(%rip),%rdi        # 1a024 <g_3>
    aa16:	e8 19 2a 00 00       	callq  d434 <func_40>
    aa1b:	48 89 c7             	mov    %rax,%rdi
    aa1e:	e8 50 24 00 00       	callq  ce73 <func_38>
    aa23:	48 89 c7             	mov    %rax,%rdi
    aa26:	48 8b 85 c8 f4 ff ff 	mov    -0xb38(%rbp),%rax
    aa2d:	44 89 f1             	mov    %r14d,%ecx
    aa30:	8b 95 4c f3 ff ff    	mov    -0xcb4(%rbp),%edx
    aa36:	48 89 c6             	mov    %rax,%rsi
    aa39:	e8 8b 21 00 00       	callq  cbc9 <func_33>
    aa3e:	48 89 c6             	mov    %rax,%rsi
    aa41:	48 8b 85 00 f4 ff ff 	mov    -0xc00(%rbp),%rax
    aa48:	48 3b 85 c8 f4 ff ff 	cmp    -0xb38(%rbp),%rax
    aa4f:	0f 94 c0             	sete   %al
    aa52:	0f b6 c0             	movzbl %al,%eax
    aa55:	48 8b 95 08 f4 ff ff 	mov    -0xbf8(%rbp),%rdx
    aa5c:	44 89 e9             	mov    %r13d,%ecx
    aa5f:	89 c7                	mov    %eax,%edi
    aa61:	e8 9f 1a 00 00       	callq  c505 <func_27>
    aa66:	44 89 e2             	mov    %r12d,%edx
    aa69:	89 de                	mov    %ebx,%esi
    aa6b:	48 89 c7             	mov    %rax,%rdi
    aa6e:	e8 18 1a 00 00       	callq  c48b <func_23>
    aa73:	0f b7 d0             	movzwl %ax,%edx
    aa76:	48 8b 85 80 f4 ff ff 	mov    -0xb80(%rbp),%rax
    aa7d:	48 f7 d0             	not    %rax
    aa80:	48 c1 e8 3f          	shr    $0x3f,%rax
    aa84:	0f b6 c0             	movzbl %al,%eax
    aa87:	89 d6                	mov    %edx,%esi
    aa89:	89 c7                	mov    %eax,%edi
    aa8b:	e8 cc f2 ff ff       	callq  9d5c <safe_mod_func_uint16_t_u_u>
    aa90:	66 85 c0             	test   %ax,%ax
    aa93:	75 0d                	jne    aaa2 <func_1+0x2ed>
    aa95:	48 8b 85 c8 f4 ff ff 	mov    -0xb38(%rbp),%rax
    aa9c:	8b 00                	mov    (%rax),%eax
    aa9e:	85 c0                	test   %eax,%eax
    aaa0:	74 07                	je     aaa9 <func_1+0x2f4>
    aaa2:	b8 01 00 00 00       	mov    $0x1,%eax
    aaa7:	eb 05                	jmp    aaae <func_1+0x2f9>
    aaa9:	b8 00 00 00 00       	mov    $0x0,%eax
    aaae:	89 c6                	mov    %eax,%esi
    aab0:	bf f7 ff 00 00       	mov    $0xfff7,%edi
    aab5:	e8 8e f3 ff ff       	callq  9e48 <safe_rshift_func_uint16_t_u_s>
    aaba:	0f b6 c0             	movzbl %al,%eax
    aabd:	44 89 fe             	mov    %r15d,%esi
    aac0:	89 c7                	mov    %eax,%edi
    aac2:	e8 c6 f1 ff ff       	callq  9c8d <safe_rshift_func_uint8_t_u_s>
    aac7:	84 c0                	test   %al,%al
    aac9:	0f 94 c0             	sete   %al
    aacc:	0f b6 c8             	movzbl %al,%ecx
    aacf:	48 8b 85 e0 f4 ff ff 	mov    -0xb20(%rbp),%rax
    aad6:	48 8b 10             	mov    (%rax),%rdx
    aad9:	48 63 c1             	movslq %ecx,%rax
    aadc:	48 31 c2             	xor    %rax,%rdx
    aadf:	48 8b 85 e0 f4 ff ff 	mov    -0xb20(%rbp),%rax
    aae6:	48 89 10             	mov    %rdx,(%rax)
    aae9:	48 8b 85 e0 f4 ff ff 	mov    -0xb20(%rbp),%rax
    aaf0:	48 8b 00             	mov    (%rax),%rax
    aaf3:	48 39 85 80 f4 ff ff 	cmp    %rax,-0xb80(%rbp)
    aafa:	0f 8f 77 02 00 00    	jg     ad77 <func_1+0x5c2>
    ab00:	48 8d 05 fd f8 00 00 	lea    0xf8fd(%rip),%rax        # 1a404 <g_1023+0x4>
    ab07:	48 89 85 f8 f4 ff ff 	mov    %rax,-0xb08(%rbp)
    ab0e:	48 c7 85 00 f5 ff ff 	movq   $0x0,-0xb00(%rbp)
    ab15:	00 00 00 00 
    ab19:	c7 85 f4 f3 ff ff 00 	movl   $0x0,-0xc0c(%rbp)
    ab20:	00 00 00 
    ab23:	48 c7 85 08 f5 ff ff 	movq   $0x0,-0xaf8(%rbp)
    ab2a:	00 00 00 00 
    ab2e:	48 8d 05 c3 3e 01 00 	lea    0x13ec3(%rip),%rax        # 1e9f8 <g_54+0x4d8>
    ab35:	48 89 85 10 f5 ff ff 	mov    %rax,-0xaf0(%rbp)
    ab3c:	48 8b 85 f8 f4 ff ff 	mov    -0xb08(%rbp),%rax
    ab43:	48 89 85 d0 f4 ff ff 	mov    %rax,-0xb30(%rbp)
    ab4a:	48 8b 05 9f 48 01 00 	mov    0x1489f(%rip),%rax        # 1f3f0 <g_1834>
    ab51:	48 8b 00             	mov    (%rax),%rax
    ab54:	48 39 85 d0 f4 ff ff 	cmp    %rax,-0xb30(%rbp)
    ab5b:	0f 94 c0             	sete   %al
    ab5e:	0f b6 c8             	movzbl %al,%ecx
    ab61:	48 8b 05 e0 44 01 00 	mov    0x144e0(%rip),%rax        # 1f048 <g_385>
    ab68:	8b 10                	mov    (%rax),%edx
    ab6a:	48 8b 05 d7 44 01 00 	mov    0x144d7(%rip),%rax        # 1f048 <g_385>
    ab71:	09 ca                	or     %ecx,%edx
    ab73:	89 10                	mov    %edx,(%rax)
    ab75:	48 c7 05 90 f7 00 00 	movq   $0x0,0xf790(%rip)        # 1a310 <g_962+0x10>
    ab7c:	00 00 00 00 
    ab80:	e9 b4 01 00 00       	jmpq   ad39 <func_1+0x584>
    ab85:	48 c7 85 f8 f3 ff ff 	movq   $0x1,-0xc08(%rbp)
    ab8c:	01 00 00 00 
    ab90:	48 8d 05 dc 06 01 00 	lea    0x106dc(%rip),%rax        # 1b273 <g_1583+0x3>
    ab97:	48 89 85 18 f5 ff ff 	mov    %rax,-0xae8(%rbp)
    ab9e:	c6 05 a9 f4 00 00 f7 	movb   $0xf7,0xf4a9(%rip)        # 1a04e <g_66+0xe>
    aba5:	90                   	nop
    aba6:	0f b6 05 a1 f4 00 00 	movzbl 0xf4a1(%rip),%eax        # 1a04e <g_66+0xe>
    abad:	3c 20                	cmp    $0x20,%al
    abaf:	0f 86 67 01 00 00    	jbe    ad1c <func_1+0x567>
    abb5:	48 8d 05 68 08 01 00 	lea    0x10868(%rip),%rax        # 1b424 <g_2940>
    abbc:	48 89 85 20 f5 ff ff 	mov    %rax,-0xae0(%rbp)
    abc3:	c7 85 9c f3 ff ff ea 	movl   $0x702b1fea,-0xc64(%rbp)
    abca:	1f 2b 70 
    abcd:	48 8b 85 d8 f4 ff ff 	mov    -0xb28(%rbp),%rax
    abd4:	66 c7 00 d1 02       	movw   $0x2d1,(%rax)
    abd9:	48 8b 85 f8 f3 ff ff 	mov    -0xc08(%rbp),%rax
    abe0:	0f b7 c0             	movzwl %ax,%eax
    abe3:	be 09 00 00 00       	mov    $0x9,%esi
    abe8:	89 c7                	mov    %eax,%edi
    abea:	e8 8b f2 ff ff       	callq  9e7a <safe_rshift_func_uint16_t_u_u>
    abef:	0f b7 d0             	movzwl %ax,%edx
    abf2:	48 8d 85 f8 f3 ff ff 	lea    -0xc08(%rbp),%rax
    abf9:	48 39 85 88 f4 ff ff 	cmp    %rax,-0xb78(%rbp)
    ac00:	0f 95 c0             	setne  %al
    ac03:	0f b6 c0             	movzbl %al,%eax
    ac06:	39 c2                	cmp    %eax,%edx
    ac08:	48 8b 85 80 f4 ff ff 	mov    -0xb80(%rbp),%rax
    ac0f:	0f bf d8             	movswl %ax,%ebx
    ac12:	48 8b 85 20 f5 ff ff 	mov    -0xae0(%rbp),%rax
    ac19:	c7 00 01 00 00 00    	movl   $0x1,(%rax)
    ac1f:	be 0f 00 00 00       	mov    $0xf,%esi
    ac24:	bf 00 00 00 00       	mov    $0x0,%edi
    ac29:	e8 1a f2 ff ff       	callq  9e48 <safe_rshift_func_uint16_t_u_s>
    ac2e:	0f b7 d0             	movzwl %ax,%edx
    ac31:	48 8b 85 c8 f4 ff ff 	mov    -0xb38(%rbp),%rax
    ac38:	8b 00                	mov    (%rax),%eax
    ac3a:	39 c2                	cmp    %eax,%edx
    ac3c:	0f 9c c0             	setl   %al
    ac3f:	0f b6 c0             	movzbl %al,%eax
    ac42:	8b 95 9c f3 ff ff    	mov    -0xc64(%rbp),%edx
    ac48:	09 d0                	or     %edx,%eax
    ac4a:	98                   	cwtl   
    ac4b:	89 de                	mov    %ebx,%esi
    ac4d:	89 c7                	mov    %eax,%edi
    ac4f:	e8 c2 e7 ff ff       	callq  9416 <safe_mod_func_int16_t_s_s>
    ac54:	48 8b 05 95 0f 01 00 	mov    0x10f95(%rip),%rax        # 1bbf0 <g_3243>
    ac5b:	48 8b 15 96 0f 01 00 	mov    0x10f96(%rip),%rdx        # 1bbf8 <g_3243+0x8>
    ac62:	48 8b 85 18 f5 ff ff 	mov    -0xae8(%rbp),%rax
    ac69:	48 3b 85 e8 f4 ff ff 	cmp    -0xb18(%rbp),%rax
    ac70:	0f 95 c0             	setne  %al
    ac73:	0f b6 c0             	movzbl %al,%eax
    ac76:	be ff ff 00 00       	mov    $0xffff,%esi
    ac7b:	89 c7                	mov    %eax,%edi
    ac7d:	e8 0c f1 ff ff       	callq  9d8e <safe_div_func_uint16_t_u_u>
    ac82:	0f b7 c0             	movzwl %ax,%eax
    ac85:	be 01 00 00 00       	mov    $0x1,%esi
    ac8a:	48 89 c7             	mov    %rax,%rdi
    ac8d:	e8 22 ed ff ff       	callq  99b4 <safe_mod_func_int64_t_s_s>
    ac92:	48 83 bd 80 f4 ff ff 	cmpq   $0x0,-0xb80(%rbp)
    ac99:	00 
    ac9a:	0f 95 c0             	setne  %al
    ac9d:	0f b6 d0             	movzbl %al,%edx
    aca0:	48 8b 85 c8 f4 ff ff 	mov    -0xb38(%rbp),%rax
    aca7:	8b 00                	mov    (%rax),%eax
    aca9:	89 d1                	mov    %edx,%ecx
    acab:	09 c1                	or     %eax,%ecx
    acad:	48 8b 05 94 43 01 00 	mov    0x14394(%rip),%rax        # 1f048 <g_385>
    acb4:	8b 10                	mov    (%rax),%edx
    acb6:	48 8b 05 8b 43 01 00 	mov    0x1438b(%rip),%rax        # 1f048 <g_385>
    acbd:	31 ca                	xor    %ecx,%edx
    acbf:	89 10                	mov    %edx,(%rax)
    acc1:	48 8d 85 9c f3 ff ff 	lea    -0xc64(%rbp),%rax
    acc8:	48 89 85 c8 f4 ff ff 	mov    %rax,-0xb38(%rbp)
    accf:	48 8b 85 88 f3 ff ff 	mov    -0xc78(%rbp),%rax
    acd6:	48 8b 0d 93 11 01 00 	mov    0x11193(%rip),%rcx        # 1be70 <g_3246+0x270>
    acdd:	48 8b 1d 94 11 01 00 	mov    0x11194(%rip),%rbx        # 1be78 <g_3246+0x278>
    ace4:	48 89 08             	mov    %rcx,(%rax)
    ace7:	48 89 58 08          	mov    %rbx,0x8(%rax)
    aceb:	48 8b 0d 8e 11 01 00 	mov    0x1118e(%rip),%rcx        # 1be80 <g_3246+0x280>
    acf2:	48 8b 1d 8f 11 01 00 	mov    0x1118f(%rip),%rbx        # 1be88 <g_3246+0x288>
    acf9:	48 89 48 10          	mov    %rcx,0x10(%rax)
    acfd:	48 89 58 18          	mov    %rbx,0x18(%rax)
    ad01:	48 8b 0d 88 11 01 00 	mov    0x11188(%rip),%rcx        # 1be90 <g_3246+0x290>
    ad08:	48 8b 1d 89 11 01 00 	mov    0x11189(%rip),%rbx        # 1be98 <g_3246+0x298>
    ad0f:	48 89 48 20          	mov    %rcx,0x20(%rax)
    ad13:	48 89 58 28          	mov    %rbx,0x28(%rax)
    ad17:	e9 42 17 00 00       	jmpq   c45e <func_1+0x1ca9>
    ad1c:	48 8b 85 c8 f4 ff ff 	mov    -0xb38(%rbp),%rax
    ad23:	8b 00                	mov    (%rax),%eax
    ad25:	85 c0                	test   %eax,%eax
    ad27:	48 8b 05 e2 f5 00 00 	mov    0xf5e2(%rip),%rax        # 1a310 <g_962+0x10>
    ad2e:	48 83 c0 01          	add    $0x1,%rax
    ad32:	48 89 05 d7 f5 00 00 	mov    %rax,0xf5d7(%rip)        # 1a310 <g_962+0x10>
    ad39:	48 8b 05 d0 f5 00 00 	mov    0xf5d0(%rip),%rax        # 1a310 <g_962+0x10>
    ad40:	48 83 f8 38          	cmp    $0x38,%rax
    ad44:	0f 87 3b fe ff ff    	ja     ab85 <func_1+0x3d0>
    ad4a:	48 8b 85 10 f5 ff ff 	mov    -0xaf0(%rbp),%rax
    ad51:	48 8b 95 c8 f4 ff ff 	mov    -0xb38(%rbp),%rdx
    ad58:	48 89 10             	mov    %rdx,(%rax)
    ad5b:	48 8b 05 86 42 01 00 	mov    0x14286(%rip),%rax        # 1efe8 <g_180>
    ad62:	48 8b 00             	mov    (%rax),%rax
    ad65:	48 8b 95 10 f5 ff ff 	mov    -0xaf0(%rbp),%rdx
    ad6c:	48 8b 12             	mov    (%rdx),%rdx
    ad6f:	48 89 10             	mov    %rdx,(%rax)
    ad72:	e9 c5 00 00 00       	jmpq   ae3c <func_1+0x687>
    ad77:	c6 85 91 f3 ff ff 98 	movb   $0x98,-0xc6f(%rbp)
    ad7e:	c6 05 10 f3 00 00 00 	movb   $0x0,0xf310(%rip)        # 1a095 <g_120>
    ad85:	eb 7f                	jmp    ae06 <func_1+0x651>
    ad87:	66 c7 85 9a f3 ff ff 	movw   $0xfffa,-0xc66(%rbp)
    ad8e:	fa ff 
    ad90:	48 8b 05 69 46 01 00 	mov    0x14669(%rip),%rax        # 1f400 <g_1953>
    ad97:	8b 08                	mov    (%rax),%ecx
    ad99:	0f b7 95 9a f3 ff ff 	movzwl -0xc66(%rbp),%edx
    ada0:	48 8b 05 59 46 01 00 	mov    0x14659(%rip),%rax        # 1f400 <g_1953>
    ada7:	21 ca                	and    %ecx,%edx
    ada9:	89 10                	mov    %edx,(%rax)
    adab:	48 c7 05 1a 07 01 00 	movq   $0xffffffffffffffe3,0x1071a(%rip)        # 1b4d0 <g_3020+0x10>
    adb2:	e3 ff ff ff 
    adb6:	eb 1f                	jmp    add7 <func_1+0x622>
    adb8:	48 8b 85 c8 f4 ff ff 	mov    -0xb38(%rbp),%rax
    adbf:	8b 00                	mov    (%rax),%eax
    adc1:	85 c0                	test   %eax,%eax
    adc3:	75 21                	jne    ade6 <func_1+0x631>
    adc5:	48 8b 05 04 07 01 00 	mov    0x10704(%rip),%rax        # 1b4d0 <g_3020+0x10>
    adcc:	48 83 c0 01          	add    $0x1,%rax
    add0:	48 89 05 f9 06 01 00 	mov    %rax,0x106f9(%rip)        # 1b4d0 <g_3020+0x10>
    add7:	48 8b 05 f2 06 01 00 	mov    0x106f2(%rip),%rax        # 1b4d0 <g_3020+0x10>
    adde:	48 83 f8 2d          	cmp    $0x2d,%rax
    ade2:	75 d4                	jne    adb8 <func_1+0x603>
    ade4:	eb 01                	jmp    ade7 <func_1+0x632>
    ade6:	90                   	nop
    ade7:	48 8b 05 5a 42 01 00 	mov    0x1425a(%rip),%rax        # 1f048 <g_385>
    adee:	8b 95 f0 f3 ff ff    	mov    -0xc10(%rbp),%edx
    adf4:	89 10                	mov    %edx,(%rax)
    adf6:	0f b6 05 98 f2 00 00 	movzbl 0xf298(%rip),%eax        # 1a095 <g_120>
    adfd:	83 c0 01             	add    $0x1,%eax
    ae00:	88 05 8f f2 00 00    	mov    %al,0xf28f(%rip)        # 1a095 <g_120>
    ae06:	0f b6 05 88 f2 00 00 	movzbl 0xf288(%rip),%eax        # 1a095 <g_120>
    ae0d:	3c 0e                	cmp    $0xe,%al
    ae0f:	0f 8e 72 ff ff ff    	jle    ad87 <func_1+0x5d2>
    ae15:	48 83 bd f0 f4 ff ff 	cmpq   $0x0,-0xb10(%rbp)
    ae1c:	00 
    ae1d:	0f 94 c2             	sete   %dl
    ae20:	48 8b 05 d9 45 01 00 	mov    0x145d9(%rip),%rax        # 1f400 <g_1953>
    ae27:	0f b6 d2             	movzbl %dl,%edx
    ae2a:	89 10                	mov    %edx,(%rax)
    ae2c:	0f b6 85 91 f3 ff ff 	movzbl -0xc6f(%rbp),%eax
    ae33:	83 c0 01             	add    $0x1,%eax
    ae36:	88 85 91 f3 ff ff    	mov    %al,-0xc6f(%rbp)
    ae3c:	48 8b 85 88 f3 ff ff 	mov    -0xc78(%rbp),%rax
    ae43:	48 8b 0d 96 19 01 00 	mov    0x11996(%rip),%rcx        # 1c7e0 <g_3260>
    ae4a:	48 8b 1d 97 19 01 00 	mov    0x11997(%rip),%rbx        # 1c7e8 <g_3260+0x8>
    ae51:	48 89 08             	mov    %rcx,(%rax)
    ae54:	48 89 58 08          	mov    %rbx,0x8(%rax)
    ae58:	48 8b 0d 91 19 01 00 	mov    0x11991(%rip),%rcx        # 1c7f0 <g_3260+0x10>
    ae5f:	48 8b 1d 92 19 01 00 	mov    0x11992(%rip),%rbx        # 1c7f8 <g_3260+0x18>
    ae66:	48 89 48 10          	mov    %rcx,0x10(%rax)
    ae6a:	48 89 58 18          	mov    %rbx,0x18(%rax)
    ae6e:	48 8b 0d 8b 19 01 00 	mov    0x1198b(%rip),%rcx        # 1c800 <g_3260+0x20>
    ae75:	48 8b 1d 8c 19 01 00 	mov    0x1198c(%rip),%rbx        # 1c808 <g_3260+0x28>
    ae7c:	48 89 48 20          	mov    %rcx,0x20(%rax)
    ae80:	48 89 58 28          	mov    %rbx,0x28(%rax)
    ae84:	e9 d5 15 00 00       	jmpq   c45e <func_1+0x1ca9>
    ae89:	c7 85 a4 f3 ff ff ff 	movl   $0xffffffff,-0xc5c(%rbp)
    ae90:	ff ff ff 
    ae93:	e9 6c 08 00 00       	jmpq   b704 <func_1+0xf4f>
    ae98:	66 c7 85 60 f6 ff ff 	movw   $0xffff,-0x9a0(%rbp)
    ae9f:	ff ff 
    aea1:	66 c7 85 62 f6 ff ff 	movw   $0xffff,-0x99e(%rbp)
    aea8:	ff ff 
    aeaa:	66 c7 85 64 f6 ff ff 	movw   $0xffff,-0x99c(%rbp)
    aeb1:	ff ff 
    aeb3:	66 c7 85 66 f6 ff ff 	movw   $0xffff,-0x99a(%rbp)
    aeba:	ff ff 
    aebc:	66 c7 85 68 f6 ff ff 	movw   $0xffff,-0x998(%rbp)
    aec3:	ff ff 
    aec5:	66 c7 85 6a f6 ff ff 	movw   $0xffff,-0x996(%rbp)
    aecc:	ff ff 
    aece:	66 c7 85 6c f6 ff ff 	movw   $0xffff,-0x994(%rbp)
    aed5:	ff ff 
    aed7:	66 c7 85 6e f6 ff ff 	movw   $0xffff,-0x992(%rbp)
    aede:	ff ff 
    aee0:	48 8d 05 5d 05 01 00 	lea    0x1055d(%rip),%rax        # 1b444 <g_2949+0x4>
    aee7:	48 89 85 90 f4 ff ff 	mov    %rax,-0xb70(%rbp)
    aeee:	c7 85 ec f3 ff ff fc 	movl   $0xfffffffc,-0xc14(%rbp)
    aef5:	ff ff ff 
    aef8:	48 8d 85 30 f5 ff ff 	lea    -0xad0(%rbp),%rax
    aeff:	48 83 c0 08          	add    $0x8,%rax
    af03:	48 89 85 98 f4 ff ff 	mov    %rax,-0xb68(%rbp)
    af0a:	48 8d 05 13 05 01 00 	lea    0x10513(%rip),%rax        # 1b424 <g_2940>
    af11:	48 89 85 a0 f4 ff ff 	mov    %rax,-0xb60(%rbp)
    af18:	66 c7 85 98 f3 ff ff 	movw   $0x282c,-0xc68(%rbp)
    af1f:	2c 28 
    af21:	c7 85 9c f3 ff ff ff 	movl   $0x486c3bff,-0xc64(%rbp)
    af28:	3b 6c 48 
    af2b:	48 8d 05 ce 44 01 00 	lea    0x144ce(%rip),%rax        # 1f400 <g_1953>
    af32:	48 89 85 a8 f4 ff ff 	mov    %rax,-0xb58(%rbp)
    af39:	48 c7 85 f8 f3 ff ff 	movq   $0x0,-0xc08(%rbp)
    af40:	00 00 00 00 
    af44:	48 c7 85 30 f9 ff ff 	movq   $0x0,-0x6d0(%rbp)
    af4b:	00 00 00 00 
    af4f:	48 8d 85 f8 f3 ff ff 	lea    -0xc08(%rbp),%rax
    af56:	48 89 85 38 f9 ff ff 	mov    %rax,-0x6c8(%rbp)
    af5d:	48 8d 85 f8 f3 ff ff 	lea    -0xc08(%rbp),%rax
    af64:	48 89 85 40 f9 ff ff 	mov    %rax,-0x6c0(%rbp)
    af6b:	48 8d 85 f8 f3 ff ff 	lea    -0xc08(%rbp),%rax
    af72:	48 89 85 48 f9 ff ff 	mov    %rax,-0x6b8(%rbp)
    af79:	48 c7 85 50 f9 ff ff 	movq   $0x0,-0x6b0(%rbp)
    af80:	00 00 00 00 
    af84:	48 c7 85 58 f9 ff ff 	movq   $0x0,-0x6a8(%rbp)
    af8b:	00 00 00 00 
    af8f:	48 8d 85 f8 f3 ff ff 	lea    -0xc08(%rbp),%rax
    af96:	48 89 85 60 f9 ff ff 	mov    %rax,-0x6a0(%rbp)
    af9d:	48 8d 85 f8 f3 ff ff 	lea    -0xc08(%rbp),%rax
    afa4:	48 89 85 68 f9 ff ff 	mov    %rax,-0x698(%rbp)
    afab:	48 8d 85 f8 f3 ff ff 	lea    -0xc08(%rbp),%rax
    afb2:	48 89 85 70 f9 ff ff 	mov    %rax,-0x690(%rbp)
    afb9:	48 8d 85 f8 f3 ff ff 	lea    -0xc08(%rbp),%rax
    afc0:	48 89 85 78 f9 ff ff 	mov    %rax,-0x688(%rbp)
    afc7:	48 8d 85 f8 f3 ff ff 	lea    -0xc08(%rbp),%rax
    afce:	48 89 85 80 f9 ff ff 	mov    %rax,-0x680(%rbp)
    afd5:	48 8d 85 f8 f3 ff ff 	lea    -0xc08(%rbp),%rax
    afdc:	48 89 85 88 f9 ff ff 	mov    %rax,-0x678(%rbp)
    afe3:	48 8d 85 f8 f3 ff ff 	lea    -0xc08(%rbp),%rax
    afea:	48 89 85 90 f9 ff ff 	mov    %rax,-0x670(%rbp)
    aff1:	48 8d 85 f8 f3 ff ff 	lea    -0xc08(%rbp),%rax
    aff8:	48 89 85 98 f9 ff ff 	mov    %rax,-0x668(%rbp)
    afff:	48 8d 85 f8 f3 ff ff 	lea    -0xc08(%rbp),%rax
    b006:	48 89 85 a0 f9 ff ff 	mov    %rax,-0x660(%rbp)
    b00d:	48 c7 85 a8 f9 ff ff 	movq   $0x0,-0x658(%rbp)
    b014:	00 00 00 00 
    b018:	48 8d 85 f8 f3 ff ff 	lea    -0xc08(%rbp),%rax
    b01f:	48 89 85 b0 f9 ff ff 	mov    %rax,-0x650(%rbp)
    b026:	48 c7 85 b8 f9 ff ff 	movq   $0x0,-0x648(%rbp)
    b02d:	00 00 00 00 
    b031:	48 8d 85 f8 f3 ff ff 	lea    -0xc08(%rbp),%rax
    b038:	48 89 85 c0 f9 ff ff 	mov    %rax,-0x640(%rbp)
    b03f:	48 8d 85 f8 f3 ff ff 	lea    -0xc08(%rbp),%rax
    b046:	48 89 85 c8 f9 ff ff 	mov    %rax,-0x638(%rbp)
    b04d:	48 8d 85 f8 f3 ff ff 	lea    -0xc08(%rbp),%rax
    b054:	48 89 85 d0 f9 ff ff 	mov    %rax,-0x630(%rbp)
    b05b:	48 8d 85 f8 f3 ff ff 	lea    -0xc08(%rbp),%rax
    b062:	48 89 85 d8 f9 ff ff 	mov    %rax,-0x628(%rbp)
    b069:	48 8d 85 f8 f3 ff ff 	lea    -0xc08(%rbp),%rax
    b070:	48 89 85 e0 f9 ff ff 	mov    %rax,-0x620(%rbp)
    b077:	48 8d 85 f8 f3 ff ff 	lea    -0xc08(%rbp),%rax
    b07e:	48 89 85 e8 f9 ff ff 	mov    %rax,-0x618(%rbp)
    b085:	48 8d 85 f8 f3 ff ff 	lea    -0xc08(%rbp),%rax
    b08c:	48 89 85 f0 f9 ff ff 	mov    %rax,-0x610(%rbp)
    b093:	48 8d 85 f8 f3 ff ff 	lea    -0xc08(%rbp),%rax
    b09a:	48 89 85 f8 f9 ff ff 	mov    %rax,-0x608(%rbp)
    b0a1:	48 8d 85 f8 f3 ff ff 	lea    -0xc08(%rbp),%rax
    b0a8:	48 89 85 00 fa ff ff 	mov    %rax,-0x600(%rbp)
    b0af:	48 8d 85 f8 f3 ff ff 	lea    -0xc08(%rbp),%rax
    b0b6:	48 89 85 08 fa ff ff 	mov    %rax,-0x5f8(%rbp)
    b0bd:	48 8d 85 f8 f3 ff ff 	lea    -0xc08(%rbp),%rax
    b0c4:	48 89 85 10 fa ff ff 	mov    %rax,-0x5f0(%rbp)
    b0cb:	48 c7 85 18 fa ff ff 	movq   $0x0,-0x5e8(%rbp)
    b0d2:	00 00 00 00 
    b0d6:	48 8d 85 f8 f3 ff ff 	lea    -0xc08(%rbp),%rax
    b0dd:	48 89 85 20 fa ff ff 	mov    %rax,-0x5e0(%rbp)
    b0e4:	48 c7 85 28 fa ff ff 	movq   $0x0,-0x5d8(%rbp)
    b0eb:	00 00 00 00 
    b0ef:	48 8d 85 f8 f3 ff ff 	lea    -0xc08(%rbp),%rax
    b0f6:	48 89 85 30 fa ff ff 	mov    %rax,-0x5d0(%rbp)
    b0fd:	48 8d 85 f8 f3 ff ff 	lea    -0xc08(%rbp),%rax
    b104:	48 89 85 38 fa ff ff 	mov    %rax,-0x5c8(%rbp)
    b10b:	48 8d 85 f8 f3 ff ff 	lea    -0xc08(%rbp),%rax
    b112:	48 89 85 40 fa ff ff 	mov    %rax,-0x5c0(%rbp)
    b119:	48 8d 85 f8 f3 ff ff 	lea    -0xc08(%rbp),%rax
    b120:	48 89 85 48 fa ff ff 	mov    %rax,-0x5b8(%rbp)
    b127:	48 8d 85 f8 f3 ff ff 	lea    -0xc08(%rbp),%rax
    b12e:	48 89 85 50 fa ff ff 	mov    %rax,-0x5b0(%rbp)
    b135:	48 8d 85 f8 f3 ff ff 	lea    -0xc08(%rbp),%rax
    b13c:	48 89 85 58 fa ff ff 	mov    %rax,-0x5a8(%rbp)
    b143:	48 8d 85 f8 f3 ff ff 	lea    -0xc08(%rbp),%rax
    b14a:	48 89 85 60 fa ff ff 	mov    %rax,-0x5a0(%rbp)
    b151:	48 8d 85 f8 f3 ff ff 	lea    -0xc08(%rbp),%rax
    b158:	48 89 85 68 fa ff ff 	mov    %rax,-0x598(%rbp)
    b15f:	48 8d 85 f8 f3 ff ff 	lea    -0xc08(%rbp),%rax
    b166:	48 89 85 70 fa ff ff 	mov    %rax,-0x590(%rbp)
    b16d:	48 c7 85 78 fa ff ff 	movq   $0x0,-0x588(%rbp)
    b174:	00 00 00 00 
    b178:	48 c7 85 80 fa ff ff 	movq   $0x0,-0x580(%rbp)
    b17f:	00 00 00 00 
    b183:	48 8d 85 f8 f3 ff ff 	lea    -0xc08(%rbp),%rax
    b18a:	48 89 85 88 fa ff ff 	mov    %rax,-0x578(%rbp)
    b191:	48 8d 85 f8 f3 ff ff 	lea    -0xc08(%rbp),%rax
    b198:	48 89 85 90 fa ff ff 	mov    %rax,-0x570(%rbp)
    b19f:	48 8d 85 f8 f3 ff ff 	lea    -0xc08(%rbp),%rax
    b1a6:	48 89 85 98 fa ff ff 	mov    %rax,-0x568(%rbp)
    b1ad:	48 c7 85 a0 fa ff ff 	movq   $0x0,-0x560(%rbp)
    b1b4:	00 00 00 00 
    b1b8:	48 8d 85 f8 f3 ff ff 	lea    -0xc08(%rbp),%rax
    b1bf:	48 89 85 a8 fa ff ff 	mov    %rax,-0x558(%rbp)
    b1c6:	48 c7 85 b0 f4 ff ff 	movq   $0x0,-0xb50(%rbp)
    b1cd:	00 00 00 00 
    b1d1:	48 8d 05 24 f0 00 00 	lea    0xf024(%rip),%rax        # 1a1fc <g_370>
    b1d8:	48 89 85 b8 f4 ff ff 	mov    %rax,-0xb48(%rbp)
    b1df:	8b 85 ec f3 ff ff    	mov    -0xc14(%rbp),%eax
    b1e5:	48 63 d8             	movslq %eax,%rbx
    b1e8:	0f b6 85 64 f6 ff ff 	movzbl -0x99c(%rbp),%eax
    b1ef:	44 0f be e0          	movsbl %al,%r12d
    b1f3:	48 8b 85 90 f4 ff ff 	mov    -0xb70(%rbp),%rax
    b1fa:	0f b7 00             	movzwl (%rax),%eax
    b1fd:	8d 50 ff             	lea    -0x1(%rax),%edx
    b200:	48 8b 85 90 f4 ff ff 	mov    -0xb70(%rbp),%rax
    b207:	66 89 10             	mov    %dx,(%rax)
    b20a:	48 8b 85 00 f4 ff ff 	mov    -0xc00(%rbp),%rax
    b211:	8b 00                	mov    (%rax),%eax
    b213:	89 c1                	mov    %eax,%ecx
    b215:	8b 95 ec f3 ff ff    	mov    -0xc14(%rbp),%edx
    b21b:	48 8b 85 98 f4 ff ff 	mov    -0xb68(%rbp),%rax
    b222:	89 10                	mov    %edx,(%rax)
    b224:	48 8b 85 98 f4 ff ff 	mov    -0xb68(%rbp),%rax
    b22b:	8b 10                	mov    (%rax),%edx
    b22d:	48 8b 85 a0 f4 ff ff 	mov    -0xb60(%rbp),%rax
    b234:	8b 00                	mov    (%rax),%eax
    b236:	09 c2                	or     %eax,%edx
    b238:	48 8b 85 a0 f4 ff ff 	mov    -0xb60(%rbp),%rax
    b23f:	89 10                	mov    %edx,(%rax)
    b241:	48 8b 85 a0 f4 ff ff 	mov    -0xb60(%rbp),%rax
    b248:	8b 00                	mov    (%rax),%eax
    b24a:	89 ce                	mov    %ecx,%esi
    b24c:	89 c7                	mov    %eax,%edi
    b24e:	e8 aa ec ff ff       	callq  9efd <safe_mod_func_uint32_t_u_u>
    b253:	3d fe 00 00 00       	cmp    $0xfe,%eax
    b258:	48 8b 85 08 f4 ff ff 	mov    -0xbf8(%rbp),%rax
    b25f:	8b 00                	mov    (%rax),%eax
    b261:	89 c6                	mov    %eax,%esi
    b263:	bf 38 84 00 00       	mov    $0x8438,%edi
    b268:	e8 51 eb ff ff       	callq  9dbe <safe_lshift_func_uint16_t_u_s>
    b26d:	be 9f 00 00 00       	mov    $0x9f,%esi
    b272:	bf 01 00 00 00       	mov    $0x1,%edi
    b277:	e8 17 e9 ff ff       	callq  9b93 <safe_mul_func_uint8_t_u_u>
    b27c:	48 8b 05 e5 49 01 00 	mov    0x149e5(%rip),%rax        # 1fc68 <g_2370>
    b283:	48 8b 00             	mov    (%rax),%rax
    b286:	0f b7 00             	movzwl (%rax),%eax
    b289:	0f b7 c0             	movzwl %ax,%eax
    b28c:	89 c6                	mov    %eax,%esi
    b28e:	bf 8b 1c 00 00       	mov    $0x1c8b,%edi
    b293:	e8 67 ea ff ff       	callq  9cff <safe_add_func_uint16_t_u_u>
    b298:	98                   	cwtl   
    b299:	be 00 00 00 00       	mov    $0x0,%esi
    b29e:	89 c7                	mov    %eax,%edi
    b2a0:	e8 ed e1 ff ff       	callq  9492 <safe_lshift_func_int16_t_s_s>
    b2a5:	48 0f bf c0          	movswq %ax,%rax
    b2a9:	48 39 85 80 f4 ff ff 	cmp    %rax,-0xb80(%rbp)
    b2b0:	0f 9f c0             	setg   %al
    b2b3:	0f b6 d0             	movzbl %al,%edx
    b2b6:	0f bf 85 98 f3 ff ff 	movswl -0xc68(%rbp),%eax
    b2bd:	39 c2                	cmp    %eax,%edx
    b2bf:	0f 94 c0             	sete   %al
    b2c2:	0f b6 c0             	movzbl %al,%eax
    b2c5:	48 39 85 80 f4 ff ff 	cmp    %rax,-0xb80(%rbp)
    b2cc:	0f 9d c0             	setge  %al
    b2cf:	44 0f b6 e8          	movzbl %al,%r13d
    b2d3:	0f b7 05 3c ef 00 00 	movzwl 0xef3c(%rip),%eax        # 1a216 <g_506+0x6>
    b2da:	83 c0 01             	add    $0x1,%eax
    b2dd:	66 89 05 32 ef 00 00 	mov    %ax,0xef32(%rip)        # 1a216 <g_506+0x6>
    b2e4:	0f b7 05 2b ef 00 00 	movzwl 0xef2b(%rip),%eax        # 1a216 <g_506+0x6>
    b2eb:	0f b7 c0             	movzwl %ax,%eax
    b2ee:	be 04 00 00 00       	mov    $0x4,%esi
    b2f3:	89 c7                	mov    %eax,%edi
    b2f5:	e8 80 eb ff ff       	callq  9e7a <safe_rshift_func_uint16_t_u_u>
    b2fa:	0f b7 c0             	movzwl %ax,%eax
    b2fd:	44 89 ee             	mov    %r13d,%esi
    b300:	89 c7                	mov    %eax,%edi
    b302:	e8 c9 eb ff ff       	callq  9ed0 <safe_sub_func_uint32_t_u_u>
    b307:	89 c0                	mov    %eax,%eax
    b309:	48 89 c7             	mov    %rax,%rdi
    b30c:	e8 08 ed ff ff       	callq  a019 <safe_unary_minus_func_uint64_t_u>
    b311:	48 89 c2             	mov    %rax,%rdx
    b314:	48 8b 05 45 49 01 00 	mov    0x14945(%rip),%rax        # 1fc60 <g_2371>
    b31b:	66 89 10             	mov    %dx,(%rax)
    b31e:	0f b7 00             	movzwl (%rax),%eax
    b321:	98                   	cwtl   
    b322:	44 89 e6             	mov    %r12d,%esi
    b325:	89 c7                	mov    %eax,%edi
    b327:	e8 29 e1 ff ff       	callq  9455 <safe_div_func_int16_t_s_s>
    b32c:	98                   	cwtl   
    b32d:	be ff ff ff ff       	mov    $0xffffffff,%esi
    b332:	89 c7                	mov    %eax,%edi
    b334:	e8 7a e0 ff ff       	callq  93b3 <safe_add_func_int16_t_s_s>
    b339:	48 8b 05 c0 40 01 00 	mov    0x140c0(%rip),%rax        # 1f400 <g_1953>
    b340:	8b 00                	mov    (%rax),%eax
    b342:	83 f8 01             	cmp    $0x1,%eax
    b345:	be ff 00 00 00       	mov    $0xff,%esi
    b34a:	bf 5e 00 00 00       	mov    $0x5e,%edi
    b34f:	e8 3f e8 ff ff       	callq  9b93 <safe_mul_func_uint8_t_u_u>
    b354:	0f b6 c0             	movzbl %al,%eax
    b357:	48 89 de             	mov    %rbx,%rsi
    b35a:	48 89 c7             	mov    %rax,%rdi
    b35d:	e8 df e4 ff ff       	callq  9841 <safe_add_func_int64_t_s_s>
    b362:	89 c2                	mov    %eax,%edx
    b364:	8b 85 9c f3 ff ff    	mov    -0xc64(%rbp),%eax
    b36a:	31 d0                	xor    %edx,%eax
    b36c:	89 85 9c f3 ff ff    	mov    %eax,-0xc64(%rbp)
    b372:	66 c7 05 c9 00 01 00 	movw   $0x0,0x100c9(%rip)        # 1b444 <g_2949+0x4>
    b379:	00 00 
    b37b:	e9 69 01 00 00       	jmpq   b4e9 <func_1+0xd34>
    b380:	48 8d 05 a1 4d 01 00 	lea    0x14da1(%rip),%rax        # 20128 <g_803>
    b387:	48 89 85 c0 f4 ff ff 	mov    %rax,-0xb40(%rbp)
    b38e:	0f b7 05 af 00 01 00 	movzwl 0x100af(%rip),%eax        # 1b444 <g_2949+0x4>
    b395:	0f b7 c0             	movzwl %ax,%eax
    b398:	48 98                	cltq   
    b39a:	48 8d 15 a7 fe 00 00 	lea    0xfea7(%rip),%rdx        # 1b248 <g_1547>
    b3a1:	0f b6 04 10          	movzbl (%rax,%rdx,1),%eax
    b3a5:	0f b6 c8             	movzbl %al,%ecx
    b3a8:	48 8d 85 50 f3 ff ff 	lea    -0xcb0(%rbp),%rax
    b3af:	48 8d 95 9c f3 ff ff 	lea    -0xc64(%rbp),%rdx
    b3b6:	89 ce                	mov    %ecx,%esi
    b3b8:	48 89 c7             	mov    %rax,%rdi
    b3bb:	e8 96 41 00 00       	callq  f556 <func_72>
    b3c0:	48 8b 85 c0 f4 ff ff 	mov    -0xb40(%rbp),%rax
    b3c7:	48 8b 95 a8 f4 ff ff 	mov    -0xb58(%rbp),%rdx
    b3ce:	48 89 10             	mov    %rdx,(%rax)
    b3d1:	48 8b 85 08 f4 ff ff 	mov    -0xbf8(%rbp),%rax
    b3d8:	8b 00                	mov    (%rax),%eax
    b3da:	48 63 d8             	movslq %eax,%rbx
    b3dd:	48 8b 85 c0 f4 ff ff 	mov    -0xb40(%rbp),%rax
    b3e4:	48 8b 00             	mov    (%rax),%rax
    b3e7:	48 8b 00             	mov    (%rax),%rax
    b3ea:	8b 00                	mov    (%rax),%eax
    b3ec:	0f be d0             	movsbl %al,%edx
    b3ef:	48 8b 85 c0 f4 ff ff 	mov    -0xb40(%rbp),%rax
    b3f6:	48 8b 00             	mov    (%rax),%rax
    b3f9:	48 8b 00             	mov    (%rax),%rax
    b3fc:	8b 00                	mov    (%rax),%eax
    b3fe:	83 f0 01             	xor    $0x1,%eax
    b401:	0f be c0             	movsbl %al,%eax
    b404:	89 d6                	mov    %edx,%esi
    b406:	89 c7                	mov    %eax,%edi
    b408:	e8 5d de ff ff       	callq  926a <safe_div_func_int8_t_s_s>
    b40d:	0f be d0             	movsbl %al,%edx
    b410:	48 8b 85 c0 f4 ff ff 	mov    -0xb40(%rbp),%rax
    b417:	48 8b 00             	mov    (%rax),%rax
    b41a:	48 8b 00             	mov    (%rax),%rax
    b41d:	8b 00                	mov    (%rax),%eax
    b41f:	39 c2                	cmp    %eax,%edx
    b421:	0f 9f c0             	setg   %al
    b424:	0f b6 c0             	movzbl %al,%eax
    b427:	48 39 85 80 f4 ff ff 	cmp    %rax,-0xb80(%rbp)
    b42e:	0f 95 c0             	setne  %al
    b431:	0f b6 c0             	movzbl %al,%eax
    b434:	48 39 85 80 f4 ff ff 	cmp    %rax,-0xb80(%rbp)
    b43b:	0f 9d c0             	setge  %al
    b43e:	0f b6 c0             	movzbl %al,%eax
    b441:	48 89 de             	mov    %rbx,%rsi
    b444:	48 89 c7             	mov    %rax,%rdi
    b447:	e8 ab e5 ff ff       	callq  99f7 <safe_div_func_int64_t_s_s>
    b44c:	48 89 c2             	mov    %rax,%rdx
    b44f:	48 8b 85 c0 f4 ff ff 	mov    -0xb40(%rbp),%rax
    b456:	48 8b 00             	mov    (%rax),%rax
    b459:	48 8b 00             	mov    (%rax),%rax
    b45c:	8b 00                	mov    (%rax),%eax
    b45e:	48 98                	cltq   
    b460:	48 89 d6             	mov    %rdx,%rsi
    b463:	48 89 c7             	mov    %rax,%rdi
    b466:	e8 e0 eb ff ff       	callq  a04b <safe_sub_func_uint64_t_u_u>
    b46b:	48 8b 15 5e 48 01 00 	mov    0x1485e(%rip),%rdx        # 1fcd0 <g_2986>
    b472:	48 8b 12             	mov    (%rdx),%rdx
    b475:	48 8b 12             	mov    (%rdx),%rdx
    b478:	48 8b 12             	mov    (%rdx),%rdx
    b47b:	48 31 d0             	xor    %rdx,%rax
    b47e:	be 07 00 00 00       	mov    $0x7,%esi
    b483:	48 89 c7             	mov    %rax,%rdi
    b486:	e8 f5 eb ff ff       	callq  a080 <safe_mod_func_uint64_t_u_u>
    b48b:	0f b7 c0             	movzwl %ax,%eax
    b48e:	be 01 00 00 00       	mov    $0x1,%esi
    b493:	89 c7                	mov    %eax,%edi
    b495:	e8 85 e8 ff ff       	callq  9d1f <safe_sub_func_uint16_t_u_u>
    b49a:	48 8b 15 2f 3f 01 00 	mov    0x13f2f(%rip),%rdx        # 1f3d0 <g_1468>
    b4a1:	0f b6 12             	movzbl (%rdx),%edx
    b4a4:	0f b6 d2             	movzbl %dl,%edx
    b4a7:	66 39 d0             	cmp    %dx,%ax
    b4aa:	72 07                	jb     b4b3 <func_1+0xcfe>
    b4ac:	ba 63 00 00 00       	mov    $0x63,%edx
    b4b1:	eb 05                	jmp    b4b8 <func_1+0xd03>
    b4b3:	ba 62 00 00 00       	mov    $0x62,%edx
    b4b8:	48 8b 85 00 f4 ff ff 	mov    -0xc00(%rbp),%rax
    b4bf:	8b 00                	mov    (%rax),%eax
    b4c1:	89 d6                	mov    %edx,%esi
    b4c3:	89 c7                	mov    %eax,%edi
    b4c5:	e8 5b ea ff ff       	callq  9f25 <safe_div_func_uint32_t_u_u>
    b4ca:	89 c2                	mov    %eax,%edx
    b4cc:	48 8b 85 a8 f4 ff ff 	mov    -0xb58(%rbp),%rax
    b4d3:	48 8b 00             	mov    (%rax),%rax
    b4d6:	89 10                	mov    %edx,(%rax)
    b4d8:	0f b7 05 65 ff 00 00 	movzwl 0xff65(%rip),%eax        # 1b444 <g_2949+0x4>
    b4df:	83 c0 01             	add    $0x1,%eax
    b4e2:	66 89 05 5b ff 00 00 	mov    %ax,0xff5b(%rip)        # 1b444 <g_2949+0x4>
    b4e9:	0f b7 05 54 ff 00 00 	movzwl 0xff54(%rip),%eax        # 1b444 <g_2949+0x4>
    b4f0:	66 83 f8 09          	cmp    $0x9,%ax
    b4f4:	0f 86 86 fe ff ff    	jbe    b380 <func_1+0xbcb>
    b4fa:	66 c7 05 c9 fd 00 00 	movw   $0x0,0xfdc9(%rip)        # 1b2cc <g_1914+0xc>
    b501:	00 00 
    b503:	eb 32                	jmp    b537 <func_1+0xd82>
    b505:	0f b7 05 c0 fd 00 00 	movzwl 0xfdc0(%rip),%eax        # 1b2cc <g_1914+0xc>
    b50c:	98                   	cwtl   
    b50d:	48 98                	cltq   
    b50f:	48 8d 14 c5 00 00 00 	lea    0x0(,%rax,8),%rdx
    b516:	00 
    b517:	48 8d 05 82 47 01 00 	lea    0x14782(%rip),%rax        # 1fca0 <g_2689>
    b51e:	48 c7 04 02 00 00 00 	movq   $0x0,(%rdx,%rax,1)
    b525:	00 
    b526:	0f b7 05 9f fd 00 00 	movzwl 0xfd9f(%rip),%eax        # 1b2cc <g_1914+0xc>
    b52d:	83 c0 01             	add    $0x1,%eax
    b530:	66 89 05 95 fd 00 00 	mov    %ax,0xfd95(%rip)        # 1b2cc <g_1914+0xc>
    b537:	0f b7 05 8e fd 00 00 	movzwl 0xfd8e(%rip),%eax        # 1b2cc <g_1914+0xc>
    b53e:	66 83 f8 04          	cmp    $0x4,%ax
    b542:	7e c1                	jle    b505 <func_1+0xd50>
    b544:	b8 b2 03 6c 83       	mov    $0x836c03b2,%eax
    b549:	48 39 85 80 f4 ff ff 	cmp    %rax,-0xb80(%rbp)
    b550:	0f 85 8e 01 00 00    	jne    b6e4 <func_1+0xf2f>
    b556:	0f b7 05 67 ff 00 00 	movzwl 0xff67(%rip),%eax        # 1b4c4 <g_3020+0x4>
    b55d:	0f b7 d8             	movzwl %ax,%ebx
    b560:	48 8b 05 69 3e 01 00 	mov    0x13e69(%rip),%rax        # 1f3d0 <g_1468>
    b567:	0f b6 00             	movzbl (%rax),%eax
    b56a:	44 0f b6 e0          	movzbl %al,%r12d
    b56e:	8b 05 40 eb 00 00    	mov    0xeb40(%rip),%eax        # 1a0b4 <g_136>
    b574:	44 0f b7 e8          	movzwl %ax,%r13d
    b578:	48 8b 85 a8 f4 ff ff 	mov    -0xb58(%rbp),%rax
    b57f:	48 8b 00             	mov    (%rax),%rax
    b582:	8b 00                	mov    (%rax),%eax
    b584:	85 c0                	test   %eax,%eax
    b586:	0f 94 c0             	sete   %al
    b589:	44 0f b6 f0          	movzbl %al,%r14d
    b58d:	8b 85 a4 f3 ff ff    	mov    -0xc5c(%rbp),%eax
    b593:	0f be c0             	movsbl %al,%eax
    b596:	89 c6                	mov    %eax,%esi
    b598:	bf 00 00 00 00       	mov    $0x0,%edi
    b59d:	e8 70 dc ff ff       	callq  9212 <safe_mul_func_int8_t_s_s>
    b5a2:	89 c2                	mov    %eax,%edx
    b5a4:	48 8b 05 bd 46 01 00 	mov    0x146bd(%rip),%rax        # 1fc68 <g_2370>
    b5ab:	48 8b 00             	mov    (%rax),%rax
    b5ae:	66 0f be d2          	movsbw %dl,%dx
    b5b2:	66 89 10             	mov    %dx,(%rax)
    b5b5:	0f b7 00             	movzwl (%rax),%eax
    b5b8:	98                   	cwtl   
    b5b9:	41 39 c6             	cmp    %eax,%r14d
    b5bc:	48 8b 85 a8 f4 ff ff 	mov    -0xb58(%rbp),%rax
    b5c3:	48 8b 00             	mov    (%rax),%rax
    b5c6:	8b 00                	mov    (%rax),%eax
    b5c8:	0f b7 c0             	movzwl %ax,%eax
    b5cb:	89 c6                	mov    %eax,%esi
    b5cd:	bf 01 00 00 00       	mov    $0x1,%edi
    b5d2:	e8 b7 e7 ff ff       	callq  9d8e <safe_div_func_uint16_t_u_u>
    b5d7:	b8 f6 37 00 00       	mov    $0x37f6,%eax
    b5dc:	0f b7 c0             	movzwl %ax,%eax
    b5df:	44 89 ee             	mov    %r13d,%esi
    b5e2:	89 c7                	mov    %eax,%edi
    b5e4:	e8 36 e7 ff ff       	callq  9d1f <safe_sub_func_uint16_t_u_u>
    b5e9:	48 8b 85 a8 f4 ff ff 	mov    -0xb58(%rbp),%rax
    b5f0:	48 8b 00             	mov    (%rax),%rax
    b5f3:	8b 00                	mov    (%rax),%eax
    b5f5:	f7 d0                	not    %eax
    b5f7:	0f be c0             	movsbl %al,%eax
    b5fa:	44 89 e6             	mov    %r12d,%esi
    b5fd:	89 c7                	mov    %eax,%edi
    b5ff:	e8 ea dc ff ff       	callq  92ee <safe_lshift_func_int8_t_s_u>
    b604:	89 de                	mov    %ebx,%esi
    b606:	bf 01 00 00 00       	mov    $0x1,%edi
    b60b:	e8 82 de ff ff       	callq  9492 <safe_lshift_func_int16_t_s_s>
    b610:	0f b6 c0             	movzbl %al,%eax
    b613:	be 06 00 00 00       	mov    $0x6,%esi
    b618:	89 c7                	mov    %eax,%edi
    b61a:	e8 8f e5 ff ff       	callq  9bae <safe_mod_func_uint8_t_u_u>
    b61f:	be 0d 00 00 00       	mov    $0xd,%esi
    b624:	bf 00 00 00 00       	mov    $0x0,%edi
    b629:	e8 fc de ff ff       	callq  952a <safe_rshift_func_int16_t_s_s>
    b62e:	83 f0 01             	xor    $0x1,%eax
    b631:	0f bf d0             	movswl %ax,%edx
    b634:	48 8b 85 b8 f4 ff ff 	mov    -0xb48(%rbp),%rax
    b63b:	0f b7 00             	movzwl (%rax),%eax
    b63e:	09 c2                	or     %eax,%edx
    b640:	48 8b 85 b8 f4 ff ff 	mov    -0xb48(%rbp),%rax
    b647:	66 89 10             	mov    %dx,(%rax)
    b64a:	48 8b 85 b8 f4 ff ff 	mov    -0xb48(%rbp),%rax
    b651:	0f b7 00             	movzwl (%rax),%eax
    b654:	0f b7 c0             	movzwl %ax,%eax
    b657:	89 c6                	mov    %eax,%esi
    b659:	bf 01 00 00 00       	mov    $0x1,%edi
    b65e:	e8 2b e7 ff ff       	callq  9d8e <safe_div_func_uint16_t_u_u>
    b663:	0f b7 d0             	movzwl %ax,%edx
    b666:	48 8b 85 00 f4 ff ff 	mov    -0xc00(%rbp),%rax
    b66d:	8b 00                	mov    (%rax),%eax
    b66f:	39 c2                	cmp    %eax,%edx
    b671:	0f 9f c0             	setg   %al
    b674:	0f b6 d0             	movzbl %al,%edx
    b677:	48 8b 85 90 f4 ff ff 	mov    -0xb70(%rbp),%rax
    b67e:	66 89 10             	mov    %dx,(%rax)
    b681:	48 8b 85 90 f4 ff ff 	mov    -0xb70(%rbp),%rax
    b688:	0f b7 00             	movzwl (%rax),%eax
    b68b:	66 35 fc a3          	xor    $0xa3fc,%ax
    b68f:	0f b7 d0             	movzwl %ax,%edx
    b692:	48 8b 85 a8 f4 ff ff 	mov    -0xb58(%rbp),%rax
    b699:	48 8b 00             	mov    (%rax),%rax
    b69c:	8b 00                	mov    (%rax),%eax
    b69e:	48 98                	cltq   
    b6a0:	48 39 c2             	cmp    %rax,%rdx
    b6a3:	0f 9f c0             	setg   %al
    b6a6:	0f b6 d0             	movzbl %al,%edx
    b6a9:	48 8b 85 98 f4 ff ff 	mov    -0xb68(%rbp),%rax
    b6b0:	89 10                	mov    %edx,(%rax)
    b6b2:	48 8b 85 98 f4 ff ff 	mov    -0xb68(%rbp),%rax
    b6b9:	8b 10                	mov    (%rax),%edx
    b6bb:	48 8b 85 a8 f4 ff ff 	mov    -0xb58(%rbp),%rax
    b6c2:	48 8b 00             	mov    (%rax),%rax
    b6c5:	8b 00                	mov    (%rax),%eax
    b6c7:	39 c2                	cmp    %eax,%edx
    b6c9:	0f 95 c0             	setne  %al
    b6cc:	0f b6 c0             	movzbl %al,%eax
    b6cf:	be 2c 00 00 00       	mov    $0x2c,%esi
    b6d4:	89 c7                	mov    %eax,%edi
    b6d6:	e8 9d e4 ff ff       	callq  9b78 <safe_sub_func_uint8_t_u_u>
    b6db:	3c ff                	cmp    $0xff,%al
    b6dd:	b9 01 00 00 00       	mov    $0x1,%ecx
    b6e2:	eb 05                	jmp    b6e9 <func_1+0xf34>
    b6e4:	b9 00 00 00 00       	mov    $0x0,%ecx
    b6e9:	48 8b 05 58 39 01 00 	mov    0x13958(%rip),%rax        # 1f048 <g_385>
    b6f0:	8b 10                	mov    (%rax),%edx
    b6f2:	48 8b 05 4f 39 01 00 	mov    0x1394f(%rip),%rax        # 1f048 <g_385>
    b6f9:	21 ca                	and    %ecx,%edx
    b6fb:	89 10                	mov    %edx,(%rax)
    b6fd:	83 85 a4 f3 ff ff 01 	addl   $0x1,-0xc5c(%rbp)
    b704:	83 bd a4 f3 ff ff 18 	cmpl   $0x18,-0xc5c(%rbp)
    b70b:	0f 8f 87 f7 ff ff    	jg     ae98 <func_1+0x6e3>
    b711:	48 8b 05 e8 3c 01 00 	mov    0x13ce8(%rip),%rax        # 1f400 <g_1953>
    b718:	8b 95 a4 f3 ff ff    	mov    -0xc5c(%rbp),%edx
    b71e:	89 10                	mov    %edx,(%rax)
    b720:	8b 05 fe e8 00 00    	mov    0xe8fe(%rip),%eax        # 1a024 <g_3>
    b726:	83 c0 01             	add    $0x1,%eax
    b729:	89 05 f5 e8 00 00    	mov    %eax,0xe8f5(%rip)        # 1a024 <g_3>
    b72f:	8b 05 ef e8 00 00    	mov    0xe8ef(%rip),%eax        # 1a024 <g_3>
    b735:	83 f8 03             	cmp    $0x3,%eax
    b738:	0f 8e b1 f1 ff ff    	jle    a8ef <func_1+0x13a>
    b73e:	48 8b 85 08 f4 ff ff 	mov    -0xbf8(%rbp),%rax
    b745:	8b 00                	mov    (%rax),%eax
    b747:	41 89 c5             	mov    %eax,%r13d
    b74a:	48 8b 05 0f 3d 01 00 	mov    0x13d0f(%rip),%rax        # 1f460 <g_2073>
    b751:	0f b6 00             	movzbl (%rax),%eax
    b754:	0f b6 d8             	movzbl %al,%ebx
    b757:	48 8b 85 00 f4 ff ff 	mov    -0xc00(%rbp),%rax
    b75e:	8b 00                	mov    (%rax),%eax
    b760:	44 0f b7 e0          	movzwl %ax,%r12d
    b764:	48 8b 05 7d 38 01 00 	mov    0x1387d(%rip),%rax        # 1efe8 <g_180>
    b76b:	48 8b 00             	mov    (%rax),%rax
    b76e:	48 8b 00             	mov    (%rax),%rax
    b771:	8b 10                	mov    (%rax),%edx
    b773:	48 8b 85 00 f4 ff ff 	mov    -0xc00(%rbp),%rax
    b77a:	8b 00                	mov    (%rax),%eax
    b77c:	89 d6                	mov    %edx,%esi
    b77e:	89 c7                	mov    %eax,%edi
    b780:	e8 47 df ff ff       	callq  96cc <safe_mod_func_int32_t_s_s>
    b785:	3d 71 90 78 0a       	cmp    $0xa789071,%eax
    b78a:	0f 9e c0             	setle  %al
    b78d:	0f b6 c0             	movzbl %al,%eax
    b790:	44 89 e6             	mov    %r12d,%esi
    b793:	89 c7                	mov    %eax,%edi
    b795:	e8 a3 e5 ff ff       	callq  9d3d <safe_mul_func_uint16_t_u_u>
    b79a:	0f b6 c0             	movzbl %al,%eax
    b79d:	89 de                	mov    %ebx,%esi
    b79f:	89 c7                	mov    %eax,%edi
    b7a1:	e8 b4 e3 ff ff       	callq  9b5a <safe_add_func_uint8_t_u_u>
    b7a6:	84 c0                	test   %al,%al
    b7a8:	0f 95 c0             	setne  %al
    b7ab:	0f b6 c0             	movzbl %al,%eax
    b7ae:	89 c6                	mov    %eax,%esi
    b7b0:	bf 04 00 00 00       	mov    $0x4,%edi
    b7b5:	e8 fc dd ff ff       	callq  95b6 <safe_add_func_int32_t_s_s>
    b7ba:	48 8b 15 17 3c 01 00 	mov    0x13c17(%rip),%rdx        # 1f3d8 <g_1467>
    b7c1:	48 8b 12             	mov    (%rdx),%rdx
    b7c4:	0f b6 12             	movzbl (%rdx),%edx
    b7c7:	0f b6 d2             	movzbl %dl,%edx
    b7ca:	39 d0                	cmp    %edx,%eax
    b7cc:	0f 9f c0             	setg   %al
    b7cf:	0f b6 d0             	movzbl %al,%edx
    b7d2:	48 8b 85 20 f4 ff ff 	mov    -0xbe0(%rbp),%rax
    b7d9:	8b 00                	mov    (%rax),%eax
    b7db:	09 c2                	or     %eax,%edx
    b7dd:	48 8b 85 20 f4 ff ff 	mov    -0xbe0(%rbp),%rax
    b7e4:	89 10                	mov    %edx,(%rax)
    b7e6:	48 8b 85 20 f4 ff ff 	mov    -0xbe0(%rbp),%rax
    b7ed:	8b 00                	mov    (%rax),%eax
    b7ef:	44 89 ee             	mov    %r13d,%esi
    b7f2:	89 c7                	mov    %eax,%edi
    b7f4:	e8 2c e7 ff ff       	callq  9f25 <safe_div_func_uint32_t_u_u>
    b7f9:	b8 00 00 00 00       	mov    $0x0,%eax
    b7fe:	be f9 ff ff ff       	mov    $0xfffffff9,%esi
    b803:	89 c7                	mov    %eax,%edi
    b805:	e8 fb dd ff ff       	callq  9605 <safe_sub_func_int32_t_s_s>
    b80a:	85 c0                	test   %eax,%eax
    b80c:	0f 84 d3 01 00 00    	je     b9e5 <func_1+0x1230>
    b812:	c7 85 d8 f3 ff ff 90 	movl   $0xb513ea90,-0xc28(%rbp)
    b819:	ea 13 b5 
    b81c:	c7 85 dc f3 ff ff fa 	movl   $0xfffffffa,-0xc24(%rbp)
    b823:	ff ff ff 
    b826:	c7 85 e0 f3 ff ff fa 	movl   $0xfffffffa,-0xc20(%rbp)
    b82d:	ff ff ff 
    b830:	c7 85 e4 f3 ff ff ff 	movl   $0xffffffff,-0xc1c(%rbp)
    b837:	ff ff ff 
    b83a:	66 c7 85 30 f9 ff ff 	movw   $0xb2bc,-0x6d0(%rbp)
    b841:	bc b2 
    b843:	66 c7 85 32 f9 ff ff 	movw   $0xb2bc,-0x6ce(%rbp)
    b84a:	bc b2 
    b84c:	66 c7 85 34 f9 ff ff 	movw   $0x0,-0x6cc(%rbp)
    b853:	00 00 
    b855:	66 c7 85 36 f9 ff ff 	movw   $0xb2bc,-0x6ca(%rbp)
    b85c:	bc b2 
    b85e:	66 c7 85 38 f9 ff ff 	movw   $0xb2bc,-0x6c8(%rbp)
    b865:	bc b2 
    b867:	66 c7 85 3a f9 ff ff 	movw   $0x0,-0x6c6(%rbp)
    b86e:	00 00 
    b870:	48 c7 85 78 f4 ff ff 	movq   $0x0,-0xb88(%rbp)
    b877:	00 00 00 00 
    b87b:	c7 85 e8 f3 ff ff 00 	movl   $0x0,-0xc18(%rbp)
    b882:	00 00 00 
    b885:	c7 85 a8 f3 ff ff 00 	movl   $0x0,-0xc58(%rbp)
    b88c:	00 00 00 
    b88f:	eb 1a                	jmp    b8ab <func_1+0x10f6>
    b891:	8b 85 a8 f3 ff ff    	mov    -0xc58(%rbp),%eax
    b897:	48 98                	cltq   
    b899:	c7 84 85 60 f6 ff ff 	movl   $0xf8caf791,-0x9a0(%rbp,%rax,4)
    b8a0:	91 f7 ca f8 
    b8a4:	83 85 a8 f3 ff ff 01 	addl   $0x1,-0xc58(%rbp)
    b8ab:	83 bd a8 f3 ff ff 00 	cmpl   $0x0,-0xc58(%rbp)
    b8b2:	7e dd                	jle    b891 <func_1+0x10dc>
    b8b4:	0f b7 85 38 f9 ff ff 	movzwl -0x6c8(%rbp),%eax
    b8bb:	83 e8 01             	sub    $0x1,%eax
    b8be:	66 89 85 38 f9 ff ff 	mov    %ax,-0x6c8(%rbp)
    b8c5:	0f b7 05 4a e9 00 00 	movzwl 0xe94a(%rip),%eax        # 1a216 <g_506+0x6>
    b8cc:	0f bf d8             	movswl %ax,%ebx
    b8cf:	48 8b 05 8a 3b 01 00 	mov    0x13b8a(%rip),%rax        # 1f460 <g_2073>
    b8d6:	0f b6 10             	movzbl (%rax),%edx
    b8d9:	0f b7 85 38 f9 ff ff 	movzwl -0x6c8(%rbp),%eax
    b8e0:	0f b7 c8             	movzwl %ax,%ecx
    b8e3:	81 bd e4 f3 ff ff df 	cmpl   $0x3ddf,-0xc1c(%rbp)
    b8ea:	3d 00 00 
    b8ed:	0f 9f c0             	setg   %al
    b8f0:	0f b6 c0             	movzbl %al,%eax
    b8f3:	39 c1                	cmp    %eax,%ecx
    b8f5:	7e 0d                	jle    b904 <func_1+0x114f>
    b8f7:	48 8b 85 00 f4 ff ff 	mov    -0xc00(%rbp),%rax
    b8fe:	8b 00                	mov    (%rax),%eax
    b900:	85 c0                	test   %eax,%eax
    b902:	74 07                	je     b90b <func_1+0x1156>
    b904:	b8 01 00 00 00       	mov    $0x1,%eax
    b909:	eb 05                	jmp    b910 <func_1+0x115b>
    b90b:	b8 00 00 00 00       	mov    $0x0,%eax
    b910:	89 c1                	mov    %eax,%ecx
    b912:	48 8b 05 47 3b 01 00 	mov    0x13b47(%rip),%rax        # 1f460 <g_2073>
    b919:	21 ca                	and    %ecx,%edx
    b91b:	88 10                	mov    %dl,(%rax)
    b91d:	0f b6 00             	movzbl (%rax),%eax
    b920:	0f be c0             	movsbl %al,%eax
    b923:	89 c6                	mov    %eax,%esi
    b925:	bf f7 ff ff ff       	mov    $0xfffffff7,%edi
    b92a:	e8 c3 d8 ff ff       	callq  91f2 <safe_sub_func_int8_t_s_s>
    b92f:	0f be c0             	movsbl %al,%eax
    b932:	89 de                	mov    %ebx,%esi
    b934:	89 c7                	mov    %eax,%edi
    b936:	e8 db da ff ff       	callq  9416 <safe_mod_func_int16_t_s_s>
    b93b:	b8 01 00 00 00       	mov    $0x1,%eax
    b940:	83 f8 01             	cmp    $0x1,%eax
    b943:	7f 53                	jg     b998 <func_1+0x11e3>
    b945:	0f b7 85 32 f9 ff ff 	movzwl -0x6ce(%rbp),%eax
    b94c:	66 85 c0             	test   %ax,%ax
    b94f:	74 47                	je     b998 <func_1+0x11e3>
    b951:	48 8d 05 88 e2 00 00 	lea    0xe288(%rip),%rax        # 19be0 <g_2179>
    b958:	48 8b 00             	mov    (%rax),%rax
    b95b:	48 8b 10             	mov    (%rax),%rdx
    b95e:	48 8b 85 88 f3 ff ff 	mov    -0xc78(%rbp),%rax
    b965:	48 8b 0a             	mov    (%rdx),%rcx
    b968:	48 8b 5a 08          	mov    0x8(%rdx),%rbx
    b96c:	48 89 08             	mov    %rcx,(%rax)
    b96f:	48 89 58 08          	mov    %rbx,0x8(%rax)
    b973:	48 8b 4a 10          	mov    0x10(%rdx),%rcx
    b977:	48 8b 5a 18          	mov    0x18(%rdx),%rbx
    b97b:	48 89 48 10          	mov    %rcx,0x10(%rax)
    b97f:	48 89 58 18          	mov    %rbx,0x18(%rax)
    b983:	48 8b 4a 20          	mov    0x20(%rdx),%rcx
    b987:	48 8b 5a 28          	mov    0x28(%rdx),%rbx
    b98b:	48 89 48 20          	mov    %rcx,0x20(%rax)
    b98f:	48 89 58 28          	mov    %rbx,0x28(%rax)
    b993:	e9 c6 0a 00 00       	jmpq   c45e <func_1+0x1ca9>
    b998:	48 8b 85 88 f3 ff ff 	mov    -0xc78(%rbp),%rax
    b99f:	48 8b 0d da 0e 01 00 	mov    0x10eda(%rip),%rcx        # 1c880 <g_3381>
    b9a6:	48 8b 1d db 0e 01 00 	mov    0x10edb(%rip),%rbx        # 1c888 <g_3381+0x8>
    b9ad:	48 89 08             	mov    %rcx,(%rax)
    b9b0:	48 89 58 08          	mov    %rbx,0x8(%rax)
    b9b4:	48 8b 0d d5 0e 01 00 	mov    0x10ed5(%rip),%rcx        # 1c890 <g_3381+0x10>
    b9bb:	48 8b 1d d6 0e 01 00 	mov    0x10ed6(%rip),%rbx        # 1c898 <g_3381+0x18>
    b9c2:	48 89 48 10          	mov    %rcx,0x10(%rax)
    b9c6:	48 89 58 18          	mov    %rbx,0x18(%rax)
    b9ca:	48 8b 0d cf 0e 01 00 	mov    0x10ecf(%rip),%rcx        # 1c8a0 <g_3381+0x20>
    b9d1:	48 8b 1d d0 0e 01 00 	mov    0x10ed0(%rip),%rbx        # 1c8a8 <g_3381+0x28>
    b9d8:	48 89 48 20          	mov    %rcx,0x20(%rax)
    b9dc:	48 89 58 28          	mov    %rbx,0x28(%rax)
    b9e0:	e9 79 0a 00 00       	jmpq   c45e <func_1+0x1ca9>
    b9e5:	48 b8 7a 3a b0 e6 c5 	movabs $0x2e5c6ac5e6b03a7a,%rax
    b9ec:	6a 5c 2e 
    b9ef:	48 89 85 40 f4 ff ff 	mov    %rax,-0xbc0(%rbp)
    b9f6:	c7 85 b8 f3 ff ff fa 	movl   $0xfffffffa,-0xc48(%rbp)
    b9fd:	ff ff ff 
    ba00:	c7 85 bc f3 ff ff 97 	movl   $0xfa545997,-0xc44(%rbp)
    ba07:	59 54 fa 
    ba0a:	c7 85 a0 f3 ff ff 00 	movl   $0x0,-0xc60(%rbp)
    ba11:	00 00 00 
    ba14:	eb 1a                	jmp    ba30 <func_1+0x127b>
    ba16:	8b 85 a0 f3 ff ff    	mov    -0xc60(%rbp),%eax
    ba1c:	48 98                	cltq   
    ba1e:	c7 84 85 60 f5 ff ff 	movl   $0x3a62c6a2,-0xaa0(%rbp,%rax,4)
    ba25:	a2 c6 62 3a 
    ba29:	83 85 a0 f3 ff ff 01 	addl   $0x1,-0xc60(%rbp)
    ba30:	83 bd a0 f3 ff ff 07 	cmpl   $0x7,-0xc60(%rbp)
    ba37:	7e dd                	jle    ba16 <func_1+0x1261>
    ba39:	c7 85 a0 f3 ff ff 00 	movl   $0x0,-0xc60(%rbp)
    ba40:	00 00 00 
    ba43:	eb 14                	jmp    ba59 <func_1+0x12a4>
    ba45:	8b 85 a0 f3 ff ff    	mov    -0xc60(%rbp),%eax
    ba4b:	48 98                	cltq   
    ba4d:	c6 44 05 c3 00       	movb   $0x0,-0x3d(%rbp,%rax,1)
    ba52:	83 85 a0 f3 ff ff 01 	addl   $0x1,-0xc60(%rbp)
    ba59:	83 bd a0 f3 ff ff 04 	cmpl   $0x4,-0xc60(%rbp)
    ba60:	7e e3                	jle    ba45 <func_1+0x1290>
    ba62:	c7 05 b8 f9 00 00 01 	movl   $0x1,0xf9b8(%rip)        # 1b424 <g_2940>
    ba69:	00 00 00 
    ba6c:	e9 8e 09 00 00       	jmpq   c3ff <func_1+0x1c4a>
    ba71:	c7 85 80 f5 ff ff e6 	movl   $0x95bc35e6,-0xa80(%rbp)
    ba78:	35 bc 95 
    ba7b:	c7 85 84 f5 ff ff e6 	movl   $0x95bc35e6,-0xa7c(%rbp)
    ba82:	35 bc 95 
    ba85:	c7 85 88 f5 ff ff e6 	movl   $0x95bc35e6,-0xa78(%rbp)
    ba8c:	35 bc 95 
    ba8f:	c7 85 8c f5 ff ff 00 	movl   $0x0,-0xa74(%rbp)
    ba96:	00 00 00 
    ba99:	c7 85 90 f5 ff ff 00 	movl   $0x0,-0xa70(%rbp)
    baa0:	00 00 00 
    baa3:	c7 85 94 f5 ff ff 00 	movl   $0x0,-0xa6c(%rbp)
    baaa:	00 00 00 
    baad:	c7 85 98 f5 ff ff e6 	movl   $0x95bc35e6,-0xa68(%rbp)
    bab4:	35 bc 95 
    bab7:	c7 85 9c f5 ff ff e6 	movl   $0x95bc35e6,-0xa64(%rbp)
    babe:	35 bc 95 
    bac1:	c7 85 a0 f5 ff ff e6 	movl   $0x95bc35e6,-0xa60(%rbp)
    bac8:	35 bc 95 
    bacb:	c7 85 a4 f5 ff ff 00 	movl   $0x0,-0xa5c(%rbp)
    bad2:	00 00 00 
    bad5:	c7 85 a8 f5 ff ff 00 	movl   $0x0,-0xa58(%rbp)
    badc:	00 00 00 
    badf:	c7 85 ac f5 ff ff 00 	movl   $0x0,-0xa54(%rbp)
    bae6:	00 00 00 
    bae9:	c7 85 b0 f5 ff ff e6 	movl   $0x95bc35e6,-0xa50(%rbp)
    baf0:	35 bc 95 
    baf3:	c7 85 b4 f5 ff ff e6 	movl   $0x95bc35e6,-0xa4c(%rbp)
    bafa:	35 bc 95 
    bafd:	c7 85 b8 f5 ff ff e6 	movl   $0x95bc35e6,-0xa48(%rbp)
    bb04:	35 bc 95 
    bb07:	c7 85 bc f5 ff ff 00 	movl   $0x0,-0xa44(%rbp)
    bb0e:	00 00 00 
    bb11:	c7 85 c0 f5 ff ff 00 	movl   $0x0,-0xa40(%rbp)
    bb18:	00 00 00 
    bb1b:	c7 85 c4 f5 ff ff 00 	movl   $0x0,-0xa3c(%rbp)
    bb22:	00 00 00 
    bb25:	c7 85 c8 f5 ff ff e6 	movl   $0x95bc35e6,-0xa38(%rbp)
    bb2c:	35 bc 95 
    bb2f:	c7 85 cc f5 ff ff e6 	movl   $0x95bc35e6,-0xa34(%rbp)
    bb36:	35 bc 95 
    bb39:	c7 85 d0 f5 ff ff e6 	movl   $0x95bc35e6,-0xa30(%rbp)
    bb40:	35 bc 95 
    bb43:	c7 85 d4 f5 ff ff 00 	movl   $0x0,-0xa2c(%rbp)
    bb4a:	00 00 00 
    bb4d:	c7 85 d8 f5 ff ff 00 	movl   $0x0,-0xa28(%rbp)
    bb54:	00 00 00 
    bb57:	c7 85 dc f5 ff ff 00 	movl   $0x0,-0xa24(%rbp)
    bb5e:	00 00 00 
    bb61:	c7 85 e0 f5 ff ff e6 	movl   $0x95bc35e6,-0xa20(%rbp)
    bb68:	35 bc 95 
    bb6b:	c7 85 e4 f5 ff ff e6 	movl   $0x95bc35e6,-0xa1c(%rbp)
    bb72:	35 bc 95 
    bb75:	c7 85 e8 f5 ff ff e6 	movl   $0x95bc35e6,-0xa18(%rbp)
    bb7c:	35 bc 95 
    bb7f:	c7 85 ec f5 ff ff 00 	movl   $0x0,-0xa14(%rbp)
    bb86:	00 00 00 
    bb89:	c7 85 f0 f5 ff ff 00 	movl   $0x0,-0xa10(%rbp)
    bb90:	00 00 00 
    bb93:	c7 85 f4 f5 ff ff 00 	movl   $0x0,-0xa0c(%rbp)
    bb9a:	00 00 00 
    bb9d:	c7 85 f8 f5 ff ff e6 	movl   $0x95bc35e6,-0xa08(%rbp)
    bba4:	35 bc 95 
    bba7:	c7 85 fc f5 ff ff e6 	movl   $0x95bc35e6,-0xa04(%rbp)
    bbae:	35 bc 95 
    bbb1:	c7 85 00 f6 ff ff e6 	movl   $0x95bc35e6,-0xa00(%rbp)
    bbb8:	35 bc 95 
    bbbb:	c7 85 04 f6 ff ff 00 	movl   $0x0,-0x9fc(%rbp)
    bbc2:	00 00 00 
    bbc5:	c7 85 08 f6 ff ff 00 	movl   $0x0,-0x9f8(%rbp)
    bbcc:	00 00 00 
    bbcf:	c7 85 0c f6 ff ff 00 	movl   $0x0,-0x9f4(%rbp)
    bbd6:	00 00 00 
    bbd9:	c7 85 10 f6 ff ff e6 	movl   $0x95bc35e6,-0x9f0(%rbp)
    bbe0:	35 bc 95 
    bbe3:	c7 85 14 f6 ff ff e6 	movl   $0x95bc35e6,-0x9ec(%rbp)
    bbea:	35 bc 95 
    bbed:	c7 85 18 f6 ff ff e6 	movl   $0x95bc35e6,-0x9e8(%rbp)
    bbf4:	35 bc 95 
    bbf7:	c7 85 1c f6 ff ff 00 	movl   $0x0,-0x9e4(%rbp)
    bbfe:	00 00 00 
    bc01:	c7 85 20 f6 ff ff 00 	movl   $0x0,-0x9e0(%rbp)
    bc08:	00 00 00 
    bc0b:	c7 85 24 f6 ff ff 00 	movl   $0x0,-0x9dc(%rbp)
    bc12:	00 00 00 
    bc15:	c7 85 28 f6 ff ff e6 	movl   $0x95bc35e6,-0x9d8(%rbp)
    bc1c:	35 bc 95 
    bc1f:	c7 85 2c f6 ff ff e6 	movl   $0x95bc35e6,-0x9d4(%rbp)
    bc26:	35 bc 95 
    bc29:	c7 85 30 f6 ff ff e6 	movl   $0x95bc35e6,-0x9d0(%rbp)
    bc30:	35 bc 95 
    bc33:	c7 85 34 f6 ff ff 00 	movl   $0x0,-0x9cc(%rbp)
    bc3a:	00 00 00 
    bc3d:	c7 85 38 f6 ff ff 00 	movl   $0x0,-0x9c8(%rbp)
    bc44:	00 00 00 
    bc47:	c7 85 3c f6 ff ff 00 	movl   $0x0,-0x9c4(%rbp)
    bc4e:	00 00 00 
    bc51:	c7 85 40 f6 ff ff e6 	movl   $0x95bc35e6,-0x9c0(%rbp)
    bc58:	35 bc 95 
    bc5b:	c7 85 44 f6 ff ff e6 	movl   $0x95bc35e6,-0x9bc(%rbp)
    bc62:	35 bc 95 
    bc65:	c7 85 48 f6 ff ff e6 	movl   $0x95bc35e6,-0x9b8(%rbp)
    bc6c:	35 bc 95 
    bc6f:	c7 85 4c f6 ff ff 00 	movl   $0x0,-0x9b4(%rbp)
    bc76:	00 00 00 
    bc79:	c7 85 50 f6 ff ff 00 	movl   $0x0,-0x9b0(%rbp)
    bc80:	00 00 00 
    bc83:	c7 85 54 f6 ff ff 00 	movl   $0x0,-0x9ac(%rbp)
    bc8a:	00 00 00 
    bc8d:	48 8d 05 d4 3f 01 00 	lea    0x13fd4(%rip),%rax        # 1fc68 <g_2370>
    bc94:	48 89 85 f8 f3 ff ff 	mov    %rax,-0xc08(%rbp)
    bc9b:	48 8d 85 f8 f3 ff ff 	lea    -0xc08(%rbp),%rax
    bca2:	48 89 85 48 f4 ff ff 	mov    %rax,-0xbb8(%rbp)
    bca9:	c7 85 c0 f3 ff ff 01 	movl   $0x1,-0xc40(%rbp)
    bcb0:	00 00 00 
    bcb3:	48 c7 85 50 f4 ff ff 	movq   $0x0,-0xbb0(%rbp)
    bcba:	00 00 00 00 
    bcbe:	48 8d 05 9b 37 01 00 	lea    0x1379b(%rip),%rax        # 1f460 <g_2073>
    bcc5:	48 89 85 58 f4 ff ff 	mov    %rax,-0xba8(%rbp)
    bccc:	c7 85 b0 f3 ff ff 00 	movl   $0x0,-0xc50(%rbp)
    bcd3:	00 00 00 
    bcd6:	eb 1e                	jmp    bcf6 <func_1+0x1541>
    bcd8:	8b 85 b0 f3 ff ff    	mov    -0xc50(%rbp),%eax
    bcde:	48 98                	cltq   
    bce0:	48 8d 15 51 44 01 00 	lea    0x14451(%rip),%rdx        # 20138 <g_1141>
    bce7:	48 89 94 c5 28 f5 ff 	mov    %rdx,-0xad8(%rbp,%rax,8)
    bcee:	ff 
    bcef:	83 85 b0 f3 ff ff 01 	addl   $0x1,-0xc50(%rbp)
    bcf6:	83 bd b0 f3 ff ff 00 	cmpl   $0x0,-0xc50(%rbp)
    bcfd:	7e d9                	jle    bcd8 <func_1+0x1523>
    bcff:	8b 85 10 f6 ff ff    	mov    -0x9f0(%rbp),%eax
    bd05:	83 c0 01             	add    $0x1,%eax
    bd08:	89 85 10 f6 ff ff    	mov    %eax,-0x9f0(%rbp)
    bd0e:	48 8b 05 4b 37 01 00 	mov    0x1374b(%rip),%rax        # 1f460 <g_2073>
    bd15:	0f b6 00             	movzbl (%rax),%eax
    bd18:	89 c2                	mov    %eax,%edx
    bd1a:	8b 85 50 f6 ff ff    	mov    -0x9b0(%rbp),%eax
    bd20:	31 c2                	xor    %eax,%edx
    bd22:	48 8b 05 37 37 01 00 	mov    0x13737(%rip),%rax        # 1f460 <g_2073>
    bd29:	88 10                	mov    %dl,(%rax)
    bd2b:	0f b6 00             	movzbl (%rax),%eax
    bd2e:	3c 01                	cmp    $0x1,%al
    bd30:	0f 94 c0             	sete   %al
    bd33:	0f b6 c8             	movzbl %al,%ecx
    bd36:	48 8b 05 0b 33 01 00 	mov    0x1330b(%rip),%rax        # 1f048 <g_385>
    bd3d:	8b 10                	mov    (%rax),%edx
    bd3f:	48 8b 05 02 33 01 00 	mov    0x13302(%rip),%rax        # 1f048 <g_385>
    bd46:	09 ca                	or     %ecx,%edx
    bd48:	89 10                	mov    %edx,(%rax)
    bd4a:	c7 05 2c 0b 01 00 00 	movl   $0x0,0x10b2c(%rip)        # 1c880 <g_3381>
    bd51:	00 00 00 
    bd54:	e9 88 06 00 00       	jmpq   c3e1 <func_1+0x1c2c>
    bd59:	c6 85 90 f3 ff ff f9 	movb   $0xf9,-0xc70(%rbp)
    bd60:	c7 85 c4 f3 ff ff 97 	movl   $0x941f5f97,-0xc3c(%rbp)
    bd67:	5f 1f 94 
    bd6a:	c7 85 c8 f3 ff ff 01 	movl   $0x1,-0xc38(%rbp)
    bd71:	00 00 00 
    bd74:	48 c7 85 60 f4 ff ff 	movq   $0x0,-0xba0(%rbp)
    bd7b:	00 00 00 00 
    bd7f:	48 8b 85 60 f4 ff ff 	mov    -0xba0(%rbp),%rax
    bd86:	89 85 4c f3 ff ff    	mov    %eax,-0xcb4(%rbp)
    bd8c:	8b 9d 04 f6 ff ff    	mov    -0x9fc(%rbp),%ebx
    bd92:	48 8b 05 3f 3f 01 00 	mov    0x13f3f(%rip),%rax        # 1fcd8 <g_2985>
    bd99:	48 8b 00             	mov    (%rax),%rax
    bd9c:	48 8b 00             	mov    (%rax),%rax
    bd9f:	48 8b 00             	mov    (%rax),%rax
    bda2:	48 8b 10             	mov    (%rax),%rdx
    bda5:	48 83 ea 01          	sub    $0x1,%rdx
    bda9:	48 89 10             	mov    %rdx,(%rax)
    bdac:	48 8b 00             	mov    (%rax),%rax
    bdaf:	48 89 c7             	mov    %rax,%rdi
    bdb2:	e8 62 e2 ff ff       	callq  a019 <safe_unary_minus_func_uint64_t_u>
    bdb7:	48 85 c0             	test   %rax,%rax
    bdba:	0f 84 9d 01 00 00    	je     bf5d <func_1+0x17a8>
    bdc0:	48 8b 85 40 f4 ff ff 	mov    -0xbc0(%rbp),%rax
    bdc7:	44 0f bf e0          	movswl %ax,%r12d
    bdcb:	44 0f b6 ad 90 f3 ff 	movzbl -0xc70(%rbp),%r13d
    bdd2:	ff 
    bdd3:	8b 85 c8 f3 ff ff    	mov    -0xc38(%rbp),%eax
    bdd9:	44 0f bf f0          	movswl %ax,%r14d
    bddd:	48 8b 05 44 35 01 00 	mov    0x13544(%rip),%rax        # 1f328 <g_1165>
    bde4:	48 8b 00             	mov    (%rax),%rax
    bde7:	48 8b 00             	mov    (%rax),%rax
    bdea:	66 89 85 4a f3 ff ff 	mov    %ax,-0xcb6(%rbp)
    bdf1:	48 8b 05 d8 31 01 00 	mov    0x131d8(%rip),%rax        # 1efd0 <g_138>
    bdf8:	8b 00                	mov    (%rax),%eax
    bdfa:	66 89 85 48 f3 ff ff 	mov    %ax,-0xcb8(%rbp)
    be01:	8b 85 10 f6 ff ff    	mov    -0x9f0(%rbp),%eax
    be07:	89 85 44 f3 ff ff    	mov    %eax,-0xcbc(%rbp)
    be0d:	44 8b bd 10 f6 ff ff 	mov    -0x9f0(%rbp),%r15d
    be14:	8b 85 10 f6 ff ff    	mov    -0x9f0(%rbp),%eax
    be1a:	98                   	cwtl   
    be1b:	be 1b ae ff ff       	mov    $0xffffae1b,%esi
    be20:	89 c7                	mov    %eax,%edi
    be22:	e8 ac d5 ff ff       	callq  93d3 <safe_sub_func_int16_t_s_s>
    be27:	66 85 c0             	test   %ax,%ax
    be2a:	75 0d                	jne    be39 <func_1+0x1684>
    be2c:	48 8b 85 00 f4 ff ff 	mov    -0xc00(%rbp),%rax
    be33:	8b 00                	mov    (%rax),%eax
    be35:	85 c0                	test   %eax,%eax
    be37:	74 11                	je     be4a <func_1+0x1695>
    be39:	48 83 bd 40 f4 ff ff 	cmpq   $0x0,-0xbc0(%rbp)
    be40:	00 
    be41:	74 07                	je     be4a <func_1+0x1695>
    be43:	b8 01 00 00 00       	mov    $0x1,%eax
    be48:	eb 05                	jmp    be4f <func_1+0x169a>
    be4a:	b8 00 00 00 00       	mov    $0x0,%eax
    be4f:	48 98                	cltq   
    be51:	48 89 c7             	mov    %rax,%rdi
    be54:	e8 bd d9 ff ff       	callq  9816 <safe_unary_minus_func_int64_t_s>
    be59:	66 83 bd 94 f3 ff ff 	cmpw   $0x1,-0xc6c(%rbp)
    be60:	01 
    be61:	0f 9f c0             	setg   %al
    be64:	0f b6 c0             	movzbl %al,%eax
    be67:	be 1f 76 a9 6a       	mov    $0x6aa9761f,%esi
    be6c:	89 c7                	mov    %eax,%edi
    be6e:	e8 5d e0 ff ff       	callq  9ed0 <safe_sub_func_uint32_t_u_u>
    be73:	8b 95 c4 f3 ff ff    	mov    -0xc3c(%rbp),%edx
    be79:	21 d0                	and    %edx,%eax
    be7b:	89 85 c4 f3 ff ff    	mov    %eax,-0xc3c(%rbp)
    be81:	8b 85 c4 f3 ff ff    	mov    -0xc3c(%rbp),%eax
    be87:	0f be c0             	movsbl %al,%eax
    be8a:	44 89 fe             	mov    %r15d,%esi
    be8d:	89 c7                	mov    %eax,%edi
    be8f:	e8 5a d4 ff ff       	callq  92ee <safe_lshift_func_int8_t_s_u>
    be94:	0f be c0             	movsbl %al,%eax
    be97:	8b b5 44 f3 ff ff    	mov    -0xcbc(%rbp),%esi
    be9d:	89 c7                	mov    %eax,%edi
    be9f:	e8 fd d3 ff ff       	callq  92a1 <safe_lshift_func_int8_t_s_s>
    bea4:	66 98                	cbtw   
    bea6:	66 0b 85 48 f3 ff ff 	or     -0xcb8(%rbp),%ax
    bead:	98                   	cwtl   
    beae:	be f6 ff ff ff       	mov    $0xfffffff6,%esi
    beb3:	89 c7                	mov    %eax,%edi
    beb5:	e8 f9 d4 ff ff       	callq  93b3 <safe_add_func_int16_t_s_s>
    beba:	0f b6 95 90 f3 ff ff 	movzbl -0xc70(%rbp),%edx
    bec1:	31 d0                	xor    %edx,%eax
    bec3:	66 23 85 4a f3 ff ff 	and    -0xcb6(%rbp),%ax
    beca:	98                   	cwtl   
    becb:	44 89 f6             	mov    %r14d,%esi
    bece:	89 c7                	mov    %eax,%edi
    bed0:	e8 80 d5 ff ff       	callq  9455 <safe_div_func_int16_t_s_s>
    bed5:	8b 85 3c f6 ff ff    	mov    -0x9c4(%rbp),%eax
    bedb:	33 85 c8 f3 ff ff    	xor    -0xc38(%rbp),%eax
    bee1:	89 c2                	mov    %eax,%edx
    bee3:	48 8b 85 20 f4 ff ff 	mov    -0xbe0(%rbp),%rax
    beea:	89 10                	mov    %edx,(%rax)
    beec:	48 8b 85 20 f4 ff ff 	mov    -0xbe0(%rbp),%rax
    bef3:	8b 00                	mov    (%rax),%eax
    bef5:	44 89 ee             	mov    %r13d,%esi
    bef8:	89 c7                	mov    %eax,%edi
    befa:	e8 26 e0 ff ff       	callq  9f25 <safe_div_func_uint32_t_u_u>
    beff:	85 c0                	test   %eax,%eax
    bf01:	75 07                	jne    bf0a <func_1+0x1755>
    bf03:	b8 ed 00 00 00       	mov    $0xed,%eax
    bf08:	eb 05                	jmp    bf0f <func_1+0x175a>
    bf0a:	b8 ec 00 00 00       	mov    $0xec,%eax
    bf0f:	44 89 e6             	mov    %r12d,%esi
    bf12:	89 c7                	mov    %eax,%edi
    bf14:	e8 ba d4 ff ff       	callq  93d3 <safe_sub_func_int16_t_s_s>
    bf19:	83 f0 fc             	xor    $0xfffffffc,%eax
    bf1c:	0f b7 d0             	movzwl %ax,%edx
    bf1f:	48 83 bd 48 f4 ff ff 	cmpq   $0x0,-0xbb8(%rbp)
    bf26:	00 
    bf27:	0f 95 c0             	setne  %al
    bf2a:	0f b6 c0             	movzbl %al,%eax
    bf2d:	89 d6                	mov    %edx,%esi
    bf2f:	89 c7                	mov    %eax,%edi
    bf31:	e8 07 de ff ff       	callq  9d3d <safe_mul_func_uint16_t_u_u>
    bf36:	66 85 c0             	test   %ax,%ax
    bf39:	74 07                	je     bf42 <func_1+0x178d>
    bf3b:	ba 01 00 00 00       	mov    $0x1,%edx
    bf40:	eb 05                	jmp    bf47 <func_1+0x1792>
    bf42:	ba 00 00 00 00       	mov    $0x0,%edx
    bf47:	8b 05 7b f6 00 00    	mov    0xf67b(%rip),%eax        # 1b5c8 <g_3132+0x8>
    bf4d:	25 ff ff 1f 00       	and    $0x1fffff,%eax
    bf52:	39 c2                	cmp    %eax,%edx
    bf54:	7c 07                	jl     bf5d <func_1+0x17a8>
    bf56:	b8 01 00 00 00       	mov    $0x1,%eax
    bf5b:	eb 05                	jmp    bf62 <func_1+0x17ad>
    bf5d:	b8 00 00 00 00       	mov    $0x0,%eax
    bf62:	89 c2                	mov    %eax,%edx
    bf64:	8b 85 10 f6 ff ff    	mov    -0x9f0(%rbp),%eax
    bf6a:	09 d0                	or     %edx,%eax
    bf6c:	89 c2                	mov    %eax,%edx
    bf6e:	48 8b 85 40 f4 ff ff 	mov    -0xbc0(%rbp),%rax
    bf75:	0f be c0             	movsbl %al,%eax
    bf78:	89 d6                	mov    %edx,%esi
    bf7a:	89 c7                	mov    %eax,%edi
    bf7c:	e8 20 d3 ff ff       	callq  92a1 <safe_lshift_func_int8_t_s_s>
    bf81:	48 8b 85 40 f4 ff ff 	mov    -0xbc0(%rbp),%rax
    bf88:	0f be d0             	movsbl %al,%edx
    bf8b:	0f b6 85 90 f3 ff ff 	movzbl -0xc70(%rbp),%eax
    bf92:	0f be c0             	movsbl %al,%eax
    bf95:	89 d6                	mov    %edx,%esi
    bf97:	89 c7                	mov    %eax,%edi
    bf99:	e8 74 d2 ff ff       	callq  9212 <safe_mul_func_int8_t_s_s>
    bf9e:	0f be c0             	movsbl %al,%eax
    bfa1:	89 de                	mov    %ebx,%esi
    bfa3:	89 c7                	mov    %eax,%edi
    bfa5:	e8 7b df ff ff       	callq  9f25 <safe_div_func_uint32_t_u_u>
    bfaa:	0f be c0             	movsbl %al,%eax
    bfad:	8b b5 4c f3 ff ff    	mov    -0xcb4(%rbp),%esi
    bfb3:	89 c7                	mov    %eax,%edi
    bfb5:	e8 b2 d3 ff ff       	callq  936c <safe_rshift_func_int8_t_s_u>
    bfba:	0f be d0             	movsbl %al,%edx
    bfbd:	48 8b 85 08 f4 ff ff 	mov    -0xbf8(%rbp),%rax
    bfc4:	8b 00                	mov    (%rax),%eax
    bfc6:	39 c2                	cmp    %eax,%edx
    bfc8:	0f 9e c2             	setle  %dl
    bfcb:	48 8b 05 76 30 01 00 	mov    0x13076(%rip),%rax        # 1f048 <g_385>
    bfd2:	0f b6 d2             	movzbl %dl,%edx
    bfd5:	89 10                	mov    %edx,(%rax)
    bfd7:	66 c7 05 24 e3 00 00 	movw   $0x0,0xe324(%rip)        # 1a304 <g_962+0x4>
    bfde:	00 00 
    bfe0:	e9 a1 03 00 00       	jmpq   c386 <func_1+0x1bd1>
    bfe5:	c7 85 cc f3 ff ff 02 	movl   $0x2,-0xc34(%rbp)
    bfec:	00 00 00 
    bfef:	48 8d 85 60 f6 ff ff 	lea    -0x9a0(%rbp),%rax
    bff6:	48 8d 15 c3 90 00 00 	lea    0x90c3(%rip),%rdx        # 150c0 <g_2569+0x40>
    bffd:	b9 5a 00 00 00       	mov    $0x5a,%ecx
    c002:	48 89 c7             	mov    %rax,%rdi
    c005:	48 89 d6             	mov    %rdx,%rsi
    c008:	f3 48 a5             	rep movsq %ds:(%rsi),%es:(%rdi)
    c00b:	66 c7 05 f0 f4 00 00 	movw   $0x0,0xf4f0(%rip)        # 1b504 <g_3046+0x4>
    c012:	00 00 
    c014:	e9 3c 01 00 00       	jmpq   c155 <func_1+0x19a0>
    c019:	48 8d 05 f0 f2 00 00 	lea    0xf2f0(%rip),%rax        # 1b310 <g_2149+0x10>
    c020:	48 89 85 70 f4 ff ff 	mov    %rax,-0xb90(%rbp)
    c027:	48 8d 85 30 f9 ff ff 	lea    -0x6d0(%rbp),%rax
    c02e:	48 8d 15 8b 08 01 00 	lea    0x1088b(%rip),%rdx        # 1c8c0 <g_3381+0x40>
    c035:	b9 d2 00 00 00       	mov    $0xd2,%ecx
    c03a:	48 89 c7             	mov    %rax,%rdi
    c03d:	48 89 d6             	mov    %rdx,%rsi
    c040:	f3 48 a5             	rep movsq %ds:(%rsi),%es:(%rdi)
    c043:	66 c7 85 96 f3 ff ff 	movw   $0x9874,-0xc6a(%rbp)
    c04a:	74 98 
    c04c:	c7 85 d4 f3 ff ff 0e 	movl   $0xfc61360e,-0xc2c(%rbp)
    c053:	36 61 fc 
    c056:	48 8b 05 13 e0 00 00 	mov    0xe013(%rip),%rax        # 1a070 <g_111>
    c05d:	48 85 c0             	test   %rax,%rax
    c060:	74 05                	je     c067 <func_1+0x18b2>
    c062:	e9 69 e8 ff ff       	jmpq   a8d0 <func_1+0x11b>
    c067:	44 8b a5 10 f6 ff ff 	mov    -0x9f0(%rbp),%r12d
    c06e:	0f b6 05 79 07 01 00 	movzbl 0x10779(%rip),%eax        # 1c7ee <g_3260+0xe>
    c075:	0f b6 d8             	movzbl %al,%ebx
    c078:	48 8b 85 40 f4 ff ff 	mov    -0xbc0(%rbp),%rax
    c07f:	89 c6                	mov    %eax,%esi
    c081:	bf 00 00 00 00       	mov    $0x0,%edi
    c086:	e8 ef dd ff ff       	callq  9e7a <safe_rshift_func_uint16_t_u_u>
    c08b:	0f b7 d0             	movzwl %ax,%edx
    c08e:	48 8b 85 70 f4 ff ff 	mov    -0xb90(%rbp),%rax
    c095:	48 89 10             	mov    %rdx,(%rax)
    c098:	48 8b 05 41 33 01 00 	mov    0x13341(%rip),%rax        # 1f3e0 <g_1732>
    c09f:	be 5a 00 00 00       	mov    $0x5a,%esi
    c0a4:	bf 00 00 00 00       	mov    $0x0,%edi
    c0a9:	e8 ac da ff ff       	callq  9b5a <safe_add_func_uint8_t_u_u>
    c0ae:	0f b6 c0             	movzbl %al,%eax
    c0b1:	89 de                	mov    %ebx,%esi
    c0b3:	89 c7                	mov    %eax,%edi
    c0b5:	e8 43 de ff ff       	callq  9efd <safe_mod_func_uint32_t_u_u>
    c0ba:	48 8b 85 28 f5 ff ff 	mov    -0xad8(%rbp),%rax
    c0c1:	48 85 c0             	test   %rax,%rax
    c0c4:	0f 95 c0             	setne  %al
    c0c7:	0f b6 c0             	movzbl %al,%eax
    c0ca:	89 85 c4 f3 ff ff    	mov    %eax,-0xc3c(%rbp)
    c0d0:	8b 85 c4 f3 ff ff    	mov    -0xc3c(%rbp),%eax
    c0d6:	0f b7 d8             	movzwl %ax,%ebx
    c0d9:	48 83 bd 30 f4 ff ff 	cmpq   $0x0,-0xbd0(%rbp)
    c0e0:	00 
    c0e1:	0f 94 c0             	sete   %al
    c0e4:	0f b6 c0             	movzbl %al,%eax
    c0e7:	be 00 00 00 00       	mov    $0x0,%esi
    c0ec:	89 c7                	mov    %eax,%edi
    c0ee:	e8 a0 da ff ff       	callq  9b93 <safe_mul_func_uint8_t_u_u>
    c0f3:	22 85 90 f3 ff ff    	and    -0xc70(%rbp),%al
    c0f9:	0f b6 c0             	movzbl %al,%eax
    c0fc:	89 de                	mov    %ebx,%esi
    c0fe:	89 c7                	mov    %eax,%edi
    c100:	e8 38 dc ff ff       	callq  9d3d <safe_mul_func_uint16_t_u_u>
    c105:	89 c2                	mov    %eax,%edx
    c107:	48 8b 05 52 33 01 00 	mov    0x13352(%rip),%rax        # 1f460 <g_2073>
    c10e:	88 10                	mov    %dl,(%rax)
    c110:	0f b6 00             	movzbl (%rax),%eax
    c113:	0f be c0             	movsbl %al,%eax
    c116:	41 39 c4             	cmp    %eax,%r12d
    c119:	0f 95 c0             	setne  %al
    c11c:	0f b6 d0             	movzbl %al,%edx
    c11f:	48 8b 05 c2 2e 01 00 	mov    0x12ec2(%rip),%rax        # 1efe8 <g_180>
    c126:	48 8b 00             	mov    (%rax),%rax
    c129:	48 8b 00             	mov    (%rax),%rax
    c12c:	8b 00                	mov    (%rax),%eax
    c12e:	39 c2                	cmp    %eax,%edx
    c130:	0f 94 c0             	sete   %al
    c133:	0f b6 c0             	movzbl %al,%eax
    c136:	66 31 85 96 f3 ff ff 	xor    %ax,-0xc6a(%rbp)
    c13d:	83 ad d4 f3 ff ff 01 	subl   $0x1,-0xc2c(%rbp)
    c144:	0f b7 05 b9 f3 00 00 	movzwl 0xf3b9(%rip),%eax        # 1b504 <g_3046+0x4>
    c14b:	83 c0 01             	add    $0x1,%eax
    c14e:	66 89 05 af f3 00 00 	mov    %ax,0xf3af(%rip)        # 1b504 <g_3046+0x4>
    c155:	0f b7 05 a8 f3 00 00 	movzwl 0xf3a8(%rip),%eax        # 1b504 <g_3046+0x4>
    c15c:	66 83 f8 02          	cmp    $0x2,%ax
    c160:	0f 86 b3 fe ff ff    	jbe    c019 <func_1+0x1864>
    c166:	48 8b 05 2b e0 00 00 	mov    0xe02b(%rip),%rax        # 1a198 <g_142+0x18>
    c16d:	48 85 c0             	test   %rax,%rax
    c170:	0f 95 c0             	setne  %al
    c173:	0f b6 d0             	movzbl %al,%edx
    c176:	8b 85 28 f7 ff ff    	mov    -0x8d8(%rbp),%eax
    c17c:	85 c0                	test   %eax,%eax
    c17e:	74 16                	je     c196 <func_1+0x19e1>
    c180:	48 8b 05 01 30 01 00 	mov    0x13001(%rip),%rax        # 1f188 <g_983>
    c187:	48 8b 00             	mov    (%rax),%rax
    c18a:	48 85 c0             	test   %rax,%rax
    c18d:	74 07                	je     c196 <func_1+0x19e1>
    c18f:	b8 01 00 00 00       	mov    $0x1,%eax
    c194:	eb 05                	jmp    c19b <func_1+0x19e6>
    c196:	b8 00 00 00 00       	mov    $0x0,%eax
    c19b:	48 98                	cltq   
    c19d:	48 39 85 60 f4 ff ff 	cmp    %rax,-0xba0(%rbp)
    c1a4:	0f 97 c0             	seta   %al
    c1a7:	0f b6 c0             	movzbl %al,%eax
    c1aa:	89 d6                	mov    %edx,%esi
    c1ac:	89 c7                	mov    %eax,%edi
    c1ae:	e8 8a db ff ff       	callq  9d3d <safe_mul_func_uint16_t_u_u>
    c1b3:	66 85 c0             	test   %ax,%ax
    c1b6:	74 58                	je     c210 <func_1+0x1a5b>
    c1b8:	c7 85 d0 f3 ff ff 01 	movl   $0x1,-0xc30(%rbp)
    c1bf:	00 00 00 
    c1c2:	0f b6 45 c7          	movzbl -0x39(%rbp),%eax
    c1c6:	84 c0                	test   %al,%al
    c1c8:	0f 85 cb 01 00 00    	jne    c399 <func_1+0x1be4>
    c1ce:	48 8d 05 eb 3f 01 00 	lea    0x13feb(%rip),%rax        # 201c0 <g_2249>
    c1d5:	48 89 05 54 37 01 00 	mov    %rax,0x13754(%rip)        # 1f930 <g_2248+0x450>
    c1dc:	48 8b 05 4d 37 01 00 	mov    0x1374d(%rip),%rax        # 1f930 <g_2248+0x450>
    c1e3:	48 39 85 50 f4 ff ff 	cmp    %rax,-0xbb0(%rbp)
    c1ea:	0f 94 c0             	sete   %al
    c1ed:	0f b6 c8             	movzbl %al,%ecx
    c1f0:	48 8b 05 51 2e 01 00 	mov    0x12e51(%rip),%rax        # 1f048 <g_385>
    c1f7:	8b 10                	mov    (%rax),%edx
    c1f9:	48 8b 05 48 2e 01 00 	mov    0x12e48(%rip),%rax        # 1f048 <g_385>
    c200:	09 ca                	or     %ecx,%edx
    c202:	89 10                	mov    %edx,(%rax)
    c204:	83 85 d0 f3 ff ff 01 	addl   $0x1,-0xc30(%rbp)
    c20b:	e9 65 01 00 00       	jmpq   c375 <func_1+0x1bc0>
    c210:	48 c7 85 68 f4 ff ff 	movq   $0x0,-0xb98(%rbp)
    c217:	00 00 00 00 
    c21b:	48 83 bd 68 f4 ff ff 	cmpq   $0x0,-0xb98(%rbp)
    c222:	00 
    c223:	0f 85 73 01 00 00    	jne    c39c <func_1+0x1be7>
    c229:	48 8b 85 00 f4 ff ff 	mov    -0xc00(%rbp),%rax
    c230:	8b 10                	mov    (%rax),%edx
    c232:	48 8b 05 c7 31 01 00 	mov    0x131c7(%rip),%rax        # 1f400 <g_1953>
    c239:	8b 00                	mov    (%rax),%eax
    c23b:	31 c2                	xor    %eax,%edx
    c23d:	48 8b 85 00 f4 ff ff 	mov    -0xc00(%rbp),%rax
    c244:	89 10                	mov    %edx,(%rax)
    c246:	48 8b 85 00 f4 ff ff 	mov    -0xc00(%rbp),%rax
    c24d:	c7 00 01 00 00 00    	movl   $0x1,(%rax)
    c253:	48 8b 05 06 32 01 00 	mov    0x13206(%rip),%rax        # 1f460 <g_2073>
    c25a:	0f b6 00             	movzbl (%rax),%eax
    c25d:	0f be d8             	movsbl %al,%ebx
    c260:	44 8b a5 c8 f3 ff ff 	mov    -0xc38(%rbp),%r12d
    c267:	0f b6 45 c7          	movzbl -0x39(%rbp),%eax
    c26b:	44 0f be e8          	movsbl %al,%r13d
    c26f:	48 8b 05 8a 31 01 00 	mov    0x1318a(%rip),%rax        # 1f400 <g_1953>
    c276:	8b 00                	mov    (%rax),%eax
    c278:	41 89 c6             	mov    %eax,%r14d
    c27b:	be 01 00 00 00       	mov    $0x1,%esi
    c280:	bf f7 ff ff ff       	mov    $0xfffffff7,%edi
    c285:	e8 17 d0 ff ff       	callq  92a1 <safe_lshift_func_int8_t_s_s>
    c28a:	48 0f be c0          	movsbq %al,%rax
    c28e:	48 83 bd 58 f4 ff ff 	cmpq   $0x0,-0xba8(%rbp)
    c295:	00 
    c296:	0f 94 c2             	sete   %dl
    c299:	0f b6 ca             	movzbl %dl,%ecx
    c29c:	48 83 bd 68 f4 ff ff 	cmpq   $0xffffffffffffffff,-0xb98(%rbp)
    c2a3:	ff 
    c2a4:	74 10                	je     c2b6 <func_1+0x1b01>
    c2a6:	83 bd c8 f3 ff ff 01 	cmpl   $0x1,-0xc38(%rbp)
    c2ad:	74 07                	je     c2b6 <func_1+0x1b01>
    c2af:	ba 01 00 00 00       	mov    $0x1,%edx
    c2b4:	eb 05                	jmp    c2bb <func_1+0x1b06>
    c2b6:	ba 00 00 00 00       	mov    $0x0,%edx
    c2bb:	48 63 d2             	movslq %edx,%rdx
    c2be:	48 21 ca             	and    %rcx,%rdx
    c2c1:	48 39 d0             	cmp    %rdx,%rax
    c2c4:	0f 9e c0             	setle  %al
    c2c7:	0f b6 d0             	movzbl %al,%edx
    c2ca:	8b 85 28 f7 ff ff    	mov    -0x8d8(%rbp),%eax
    c2d0:	39 c2                	cmp    %eax,%edx
    c2d2:	7e 07                	jle    c2db <func_1+0x1b26>
    c2d4:	b8 01 00 00 00       	mov    $0x1,%eax
    c2d9:	eb 05                	jmp    c2e0 <func_1+0x1b2b>
    c2db:	b8 00 00 00 00       	mov    $0x0,%eax
    c2e0:	be 13 2b 1f c8       	mov    $0xc81f2b13,%esi
    c2e5:	89 c7                	mov    %eax,%edi
    c2e7:	e8 ca d2 ff ff       	callq  95b6 <safe_add_func_int32_t_s_s>
    c2ec:	44 89 f6             	mov    %r14d,%esi
    c2ef:	89 c7                	mov    %eax,%edi
    c2f1:	e8 07 dc ff ff       	callq  9efd <safe_mod_func_uint32_t_u_u>
    c2f6:	44 89 ee             	mov    %r13d,%esi
    c2f9:	89 c7                	mov    %eax,%edi
    c2fb:	e8 fd db ff ff       	callq  9efd <safe_mod_func_uint32_t_u_u>
    c300:	8b 05 a2 f2 00 00    	mov    0xf2a2(%rip),%eax        # 1b5a8 <g_3050+0x28>
    c306:	c1 e0 04             	shl    $0x4,%eax
    c309:	c1 f8 04             	sar    $0x4,%eax
    c30c:	83 f8 01             	cmp    $0x1,%eax
    c30f:	0f 9f c0             	setg   %al
    c312:	0f b6 d0             	movzbl %al,%edx
    c315:	48 8b 85 00 f4 ff ff 	mov    -0xc00(%rbp),%rax
    c31c:	89 10                	mov    %edx,(%rax)
    c31e:	48 8b 85 00 f4 ff ff 	mov    -0xc00(%rbp),%rax
    c325:	8b 00                	mov    (%rax),%eax
    c327:	83 f8 fe             	cmp    $0xfffffffe,%eax
    c32a:	0f 9d c0             	setge  %al
    c32d:	0f b6 c0             	movzbl %al,%eax
    c330:	be 07 00 00 00       	mov    $0x7,%esi
    c335:	89 c7                	mov    %eax,%edi
    c337:	e8 90 d3 ff ff       	callq  96cc <safe_mod_func_int32_t_s_s>
    c33c:	f7 d0                	not    %eax
    c33e:	c1 e8 1f             	shr    $0x1f,%eax
    c341:	0f b6 c0             	movzbl %al,%eax
    c344:	48 39 85 40 f4 ff ff 	cmp    %rax,-0xbc0(%rbp)
    c34b:	0f 9e c0             	setle  %al
    c34e:	0f b6 c0             	movzbl %al,%eax
    c351:	44 89 e6             	mov    %r12d,%esi
    c354:	89 c7                	mov    %eax,%edi
    c356:	e8 46 cf ff ff       	callq  92a1 <safe_lshift_func_int8_t_s_s>
    c35b:	89 de                	mov    %ebx,%esi
    c35d:	bf 01 00 00 00       	mov    $0x1,%edi
    c362:	e8 03 cf ff ff       	callq  926a <safe_div_func_int8_t_s_s>
    c367:	89 c2                	mov    %eax,%edx
    c369:	48 8b 05 90 30 01 00 	mov    0x13090(%rip),%rax        # 1f400 <g_1953>
    c370:	0f be d2             	movsbl %dl,%edx
    c373:	89 10                	mov    %edx,(%rax)
    c375:	0f b7 05 88 df 00 00 	movzwl 0xdf88(%rip),%eax        # 1a304 <g_962+0x4>
    c37c:	83 c0 01             	add    $0x1,%eax
    c37f:	66 89 05 7e df 00 00 	mov    %ax,0xdf7e(%rip)        # 1a304 <g_962+0x4>
    c386:	0f b7 05 77 df 00 00 	movzwl 0xdf77(%rip),%eax        # 1a304 <g_962+0x4>
    c38d:	66 83 f8 02          	cmp    $0x2,%ax
    c391:	0f 86 4e fc ff ff    	jbe    bfe5 <func_1+0x1830>
    c397:	eb 04                	jmp    c39d <func_1+0x1be8>
    c399:	90                   	nop
    c39a:	eb 01                	jmp    c39d <func_1+0x1be8>
    c39c:	90                   	nop
    c39d:	c7 05 7d dc 00 00 00 	movl   $0x0,0xdc7d(%rip)        # 1a024 <g_3>
    c3a4:	00 00 00 
    c3a7:	eb 1e                	jmp    c3c7 <func_1+0x1c12>
    c3a9:	48 8b 05 20 2c 01 00 	mov    0x12c20(%rip),%rax        # 1efd0 <g_138>
    c3b0:	8b 00                	mov    (%rax),%eax
    c3b2:	89 85 bc f3 ff ff    	mov    %eax,-0xc44(%rbp)
    c3b8:	8b 05 66 dc 00 00    	mov    0xdc66(%rip),%eax        # 1a024 <g_3>
    c3be:	83 c0 01             	add    $0x1,%eax
    c3c1:	89 05 5d dc 00 00    	mov    %eax,0xdc5d(%rip)        # 1a024 <g_3>
    c3c7:	8b 05 57 dc 00 00    	mov    0xdc57(%rip),%eax        # 1a024 <g_3>
    c3cd:	83 f8 04             	cmp    $0x4,%eax
    c3d0:	7e d7                	jle    c3a9 <func_1+0x1bf4>
    c3d2:	8b 05 a8 04 01 00    	mov    0x104a8(%rip),%eax        # 1c880 <g_3381>
    c3d8:	83 c0 01             	add    $0x1,%eax
    c3db:	89 05 9f 04 01 00    	mov    %eax,0x1049f(%rip)        # 1c880 <g_3381>
    c3e1:	8b 05 99 04 01 00    	mov    0x10499(%rip),%eax        # 1c880 <g_3381>
    c3e7:	83 f8 04             	cmp    $0x4,%eax
    c3ea:	0f 86 69 f9 ff ff    	jbe    bd59 <func_1+0x15a4>
    c3f0:	8b 05 2e f0 00 00    	mov    0xf02e(%rip),%eax        # 1b424 <g_2940>
    c3f6:	83 c0 01             	add    $0x1,%eax
    c3f9:	89 05 25 f0 00 00    	mov    %eax,0xf025(%rip)        # 1b424 <g_2940>
    c3ff:	8b 05 1f f0 00 00    	mov    0xf01f(%rip),%eax        # 1b424 <g_2940>
    c405:	83 f8 04             	cmp    $0x4,%eax
    c408:	0f 86 63 f6 ff ff    	jbe    ba71 <func_1+0x12bc>
    c40e:	48 8b 85 10 f4 ff ff 	mov    -0xbf0(%rbp),%rax
    c415:	48 8b 10             	mov    (%rax),%rdx
    c418:	48 8b 85 18 f4 ff ff 	mov    -0xbe8(%rbp),%rax
    c41f:	48 89 10             	mov    %rdx,(%rax)
    c422:	48 8b 15 a7 2d 01 00 	mov    0x12da7(%rip),%rdx        # 1f1d0 <g_1022>
    c429:	48 8b 85 88 f3 ff ff 	mov    -0xc78(%rbp),%rax
    c430:	48 8b 0a             	mov    (%rdx),%rcx
    c433:	48 8b 5a 08          	mov    0x8(%rdx),%rbx
    c437:	48 89 08             	mov    %rcx,(%rax)
    c43a:	48 89 58 08          	mov    %rbx,0x8(%rax)
    c43e:	48 8b 4a 10          	mov    0x10(%rdx),%rcx
    c442:	48 8b 5a 18          	mov    0x18(%rdx),%rbx
    c446:	48 89 48 10          	mov    %rcx,0x10(%rax)
    c44a:	48 89 58 18          	mov    %rbx,0x18(%rax)
    c44e:	48 8b 4a 20          	mov    0x20(%rdx),%rcx
    c452:	48 8b 5a 28          	mov    0x28(%rdx),%rbx
    c456:	48 89 48 20          	mov    %rcx,0x20(%rax)
    c45a:	48 89 58 28          	mov    %rbx,0x28(%rax)
    c45e:	48 8b 45 c8          	mov    -0x38(%rbp),%rax
    c462:	64 48 33 04 25 28 00 	xor    %fs:0x28,%rax
    c469:	00 00 
    c46b:	74 05                	je     c472 <func_1+0x1cbd>
    c46d:	e8 fe cb ff ff       	callq  9070 <__stack_chk_fail@plt>
    c472:	48 8b 85 88 f3 ff ff 	mov    -0xc78(%rbp),%rax
    c479:	48 81 c4 98 0c 00 00 	add    $0xc98,%rsp
    c480:	5b                   	pop    %rbx
    c481:	41 5c                	pop    %r12
    c483:	41 5d                	pop    %r13
    c485:	41 5e                	pop    %r14
    c487:	41 5f                	pop    %r15
    c489:	5d                   	pop    %rbp
    c48a:	c3                   	retq   

000000000000c48b <func_23>:
    c48b:	f3 0f 1e fa          	endbr64 
    c48f:	55                   	push   %rbp
    c490:	48 89 e5             	mov    %rsp,%rbp
    c493:	48 83 ec 20          	sub    $0x20,%rsp
    c497:	48 89 7d e8          	mov    %rdi,-0x18(%rbp)
    c49b:	89 f1                	mov    %esi,%ecx
    c49d:	89 d0                	mov    %edx,%eax
    c49f:	89 ca                	mov    %ecx,%edx
    c4a1:	88 55 e4             	mov    %dl,-0x1c(%rbp)
    c4a4:	66 89 45 e0          	mov    %ax,-0x20(%rbp)
    c4a8:	c6 45 ff 07          	movb   $0x7,-0x1(%rbp)
    c4ac:	80 45 ff 01          	addb   $0x1,-0x1(%rbp)
    c4b0:	0f b6 45 ff          	movzbl -0x1(%rbp),%eax
    c4b4:	be 06 00 00 00       	mov    $0x6,%esi
    c4b9:	89 c7                	mov    %eax,%edi
    c4bb:	e8 fe d7 ff ff       	callq  9cbe <safe_rshift_func_uint8_t_u_u>
    c4c0:	0f b6 c8             	movzbl %al,%ecx
    c4c3:	48 8b 05 06 2f 01 00 	mov    0x12f06(%rip),%rax        # 1f3d0 <g_1468>
    c4ca:	0f b6 10             	movzbl (%rax),%edx
    c4cd:	8d 72 ff             	lea    -0x1(%rdx),%esi
    c4d0:	40 88 30             	mov    %sil,(%rax)
    c4d3:	0f b6 c2             	movzbl %dl,%eax
    c4d6:	89 ce                	mov    %ecx,%esi
    c4d8:	89 c7                	mov    %eax,%edi
    c4da:	e8 ae d7 ff ff       	callq  9c8d <safe_rshift_func_uint8_t_u_s>
    c4df:	48 8b 15 62 2b 01 00 	mov    0x12b62(%rip),%rdx        # 1f048 <g_385>
    c4e6:	8b 0a                	mov    (%rdx),%ecx
    c4e8:	0f b6 d0             	movzbl %al,%edx
    c4eb:	48 8b 05 56 2b 01 00 	mov    0x12b56(%rip),%rax        # 1f048 <g_385>
    c4f2:	31 ca                	xor    %ecx,%edx
    c4f4:	89 10                	mov    %edx,(%rax)
    c4f6:	48 8b 05 6b 37 01 00 	mov    0x1376b(%rip),%rax        # 1fc68 <g_2370>
    c4fd:	48 8b 00             	mov    (%rax),%rax
    c500:	0f b7 00             	movzwl (%rax),%eax
    c503:	c9                   	leaveq 
    c504:	c3                   	retq   

000000000000c505 <func_27>:
    c505:	f3 0f 1e fa          	endbr64 
    c509:	55                   	push   %rbp
    c50a:	48 89 e5             	mov    %rsp,%rbp
    c50d:	41 54                	push   %r12
    c50f:	53                   	push   %rbx
    c510:	48 81 ec 50 0b 00 00 	sub    $0xb50,%rsp
    c517:	89 bd bc f4 ff ff    	mov    %edi,-0xb44(%rbp)
    c51d:	48 89 b5 b0 f4 ff ff 	mov    %rsi,-0xb50(%rbp)
    c524:	48 89 95 a8 f4 ff ff 	mov    %rdx,-0xb58(%rbp)
    c52b:	89 c8                	mov    %ecx,%eax
    c52d:	88 85 b8 f4 ff ff    	mov    %al,-0xb48(%rbp)
    c533:	64 48 8b 04 25 28 00 	mov    %fs:0x28,%rax
    c53a:	00 00 
    c53c:	48 89 45 e8          	mov    %rax,-0x18(%rbp)
    c540:	31 c0                	xor    %eax,%eax
    c542:	c7 85 e4 f4 ff ff 1d 	movl   $0x571f691d,-0xb1c(%rbp)
    c549:	69 1f 57 
    c54c:	48 8d 85 b0 f5 ff ff 	lea    -0xa50(%rbp),%rax
    c553:	48 8d 15 06 0a 01 00 	lea    0x10a06(%rip),%rdx        # 1cf60 <g_3381+0x6e0>
    c55a:	b9 23 00 00 00       	mov    $0x23,%ecx
    c55f:	48 89 c7             	mov    %rax,%rdi
    c562:	48 89 d6             	mov    %rdx,%rsi
    c565:	f3 48 a5             	rep movsq %ds:(%rsi),%es:(%rdi)
    c568:	48 8d 05 d1 da 00 00 	lea    0xdad1(%rip),%rax        # 1a040 <g_66>
    c56f:	48 89 85 e8 f4 ff ff 	mov    %rax,-0xb18(%rbp)
    c576:	48 8d 85 e8 f4 ff ff 	lea    -0xb18(%rbp),%rax
    c57d:	48 89 85 60 f5 ff ff 	mov    %rax,-0xaa0(%rbp)
    c584:	48 c7 85 20 f5 ff ff 	movq   $0x0,-0xae0(%rbp)
    c58b:	00 00 00 00 
    c58f:	c6 85 c9 f4 ff ff 03 	movb   $0x3,-0xb37(%rbp)
    c596:	c7 85 cc f4 ff ff 00 	movl   $0x0,-0xb34(%rbp)
    c59d:	00 00 00 
    c5a0:	48 8d 05 09 37 01 00 	lea    0x13709(%rip),%rax        # 1fcb0 <g_2689+0x10>
    c5a7:	48 89 85 68 f5 ff ff 	mov    %rax,-0xa98(%rbp)
    c5ae:	48 c7 85 f0 f4 ff ff 	movq   $0x0,-0xb10(%rbp)
    c5b5:	00 00 00 00 
    c5b9:	48 8d 85 f0 f4 ff ff 	lea    -0xb10(%rbp),%rax
    c5c0:	48 89 85 50 f5 ff ff 	mov    %rax,-0xab0(%rbp)
    c5c7:	c7 85 d0 f4 ff ff cc 	movl   $0x129970cc,-0xb30(%rbp)
    c5ce:	70 99 12 
    c5d1:	48 c7 85 58 f5 ff ff 	movq   $0x0,-0xaa8(%rbp)
    c5d8:	00 00 00 00 
    c5dc:	48 8d 85 60 f8 ff ff 	lea    -0x7a0(%rbp),%rax
    c5e3:	48 8d 15 b6 8d 00 00 	lea    0x8db6(%rip),%rdx        # 153a0 <g_2569+0x320>
    c5ea:	b9 79 00 00 00       	mov    $0x79,%ecx
    c5ef:	48 89 c7             	mov    %rax,%rdi
    c5f2:	48 89 d6             	mov    %rdx,%rsi
    c5f5:	f3 48 a5             	rep movsq %ds:(%rsi),%es:(%rdi)
    c5f8:	48 89 f2             	mov    %rsi,%rdx
    c5fb:	48 89 f8             	mov    %rdi,%rax
    c5fe:	8b 0a                	mov    (%rdx),%ecx
    c600:	89 08                	mov    %ecx,(%rax)
    c602:	48 8d 40 04          	lea    0x4(%rax),%rax
    c606:	48 8d 52 04          	lea    0x4(%rdx),%rdx
    c60a:	48 8d 05 0f 2e 01 00 	lea    0x12e0f(%rip),%rax        # 1f420 <g_2069>
    c611:	48 89 85 f8 f4 ff ff 	mov    %rax,-0xb08(%rbp)
    c618:	48 c7 85 00 f5 ff ff 	movq   $0x0,-0xb00(%rbp)
    c61f:	00 00 00 00 
    c623:	48 8d 85 00 f5 ff ff 	lea    -0xb00(%rbp),%rax
    c62a:	48 89 85 08 f5 ff ff 	mov    %rax,-0xaf8(%rbp)
    c631:	48 b8 38 ab 03 90 7d 	movabs $0x78ae8d7d9003ab38,%rax
    c638:	8d ae 78 
    c63b:	48 89 85 28 f5 ff ff 	mov    %rax,-0xad8(%rbp)
    c642:	c7 85 70 f5 ff ff 01 	movl   $0xf9f9b401,-0xa90(%rbp)
    c649:	b4 f9 f9 
    c64c:	66 c7 85 74 f5 ff ff 	movw   $0x1b4,-0xa8c(%rbp)
    c653:	b4 01 
    c655:	c6 85 76 f5 ff ff fa 	movb   $0xfa,-0xa8a(%rbp)
    c65c:	c7 85 77 f5 ff ff 03 	movl   $0x3092403,-0xa89(%rbp)
    c663:	24 09 03 
    c666:	66 c7 85 7b f5 ff ff 	movw   $0x82c,-0xa85(%rbp)
    c66d:	2c 08 
    c66f:	c6 85 7d f5 ff ff 24 	movb   $0x24,-0xa83(%rbp)
    c676:	c7 85 7e f5 ff ff 09 	movl   $0xf7013809,-0xa82(%rbp)
    c67d:	38 01 f7 
    c680:	66 c7 85 82 f5 ff ff 	movw   $0x3801,-0xa7e(%rbp)
    c687:	01 38 
    c689:	c6 85 84 f5 ff ff 09 	movb   $0x9,-0xa7c(%rbp)
    c690:	c7 85 85 f5 ff ff 01 	movl   $0xccff2401,-0xa7b(%rbp)
    c697:	24 ff cc 
    c69a:	66 c7 85 89 f5 ff ff 	movw   $0x101,-0xa77(%rbp)
    c6a1:	01 01 
    c6a3:	c6 85 8b f5 ff ff cc 	movb   $0xcc,-0xa75(%rbp)
    c6aa:	c7 85 8c f5 ff ff fc 	movl   $0xffb4fc,-0xa74(%rbp)
    c6b1:	b4 ff 00 
    c6b4:	66 c7 85 90 f5 ff ff 	movw   $0xff00,-0xa70(%rbp)
    c6bb:	00 ff 
    c6bd:	c6 85 92 f5 ff ff b4 	movb   $0xb4,-0xa6e(%rbp)
    c6c4:	c7 85 93 f5 ff ff 24 	movl   $0xffffff24,-0xa6d(%rbp)
    c6cb:	ff ff ff 
    c6ce:	66 c7 85 97 f5 ff ff 	movw   $0xccff,-0xa69(%rbp)
    c6d5:	ff cc 
    c6d7:	c6 85 99 f5 ff ff 2c 	movb   $0x2c,-0xa67(%rbp)
    c6de:	c7 85 9a f5 ff ff ff 	movl   $0xff0100ff,-0xa66(%rbp)
    c6e5:	00 01 ff 
    c6e8:	66 c7 85 9e f5 ff ff 	movw   $0xffb4,-0xa62(%rbp)
    c6ef:	b4 ff 
    c6f1:	c6 85 a0 f5 ff ff 01 	movb   $0x1,-0xa60(%rbp)
    c6f8:	c7 85 a1 f5 ff ff 01 	movl   $0xff090101,-0xa5f(%rbp)
    c6ff:	01 09 ff 
    c702:	66 c7 85 a5 f5 ff ff 	movw   $0x8724,-0xa5b(%rbp)
    c709:	24 87 
    c70b:	c6 85 a7 f5 ff ff 01 	movb   $0x1,-0xa59(%rbp)
    c712:	c7 85 a8 f5 ff ff 09 	movl   $0xf90109,-0xa58(%rbp)
    c719:	01 f9 00 
    c71c:	66 c7 85 ac f5 ff ff 	movw   $0x3838,-0xa54(%rbp)
    c723:	38 38 
    c725:	c6 85 ae f5 ff ff 00 	movb   $0x0,-0xa52(%rbp)
    c72c:	48 8d 05 4d ee 00 00 	lea    0xee4d(%rip),%rax        # 1b580 <g_3050>
    c733:	48 89 85 30 f5 ff ff 	mov    %rax,-0xad0(%rbp)
    c73a:	48 8d 05 1f 2d 01 00 	lea    0x12d1f(%rip),%rax        # 1f460 <g_2073>
    c741:	48 89 85 38 f5 ff ff 	mov    %rax,-0xac8(%rbp)
    c748:	48 8d 05 11 2a 01 00 	lea    0x12a11(%rip),%rax        # 1f160 <g_888+0x20>
    c74f:	48 89 85 10 f5 ff ff 	mov    %rax,-0xaf0(%rbp)
    c756:	c7 85 d4 f4 ff ff 02 	movl   $0x2,-0xb2c(%rbp)
    c75d:	00 00 00 
    c760:	c7 85 d8 f4 ff ff 52 	movl   $0x179e9c52,-0xb28(%rbp)
    c767:	9c 9e 17 
    c76a:	c7 85 dc f4 ff ff 01 	movl   $0x1,-0xb24(%rbp)
    c771:	00 00 00 
    c774:	c7 85 e0 f4 ff ff 00 	movl   $0x0,-0xb20(%rbp)
    c77b:	00 00 00 
    c77e:	66 c7 85 ca f4 ff ff 	movw   $0xffff,-0xb36(%rbp)
    c785:	ff ff 
    c787:	48 c7 85 40 f5 ff ff 	movq   $0x0,-0xac0(%rbp)
    c78e:	00 00 00 00 
    c792:	48 8d 85 cc f4 ff ff 	lea    -0xb34(%rbp),%rax
    c799:	48 89 85 48 f5 ff ff 	mov    %rax,-0xab8(%rbp)
    c7a0:	48 8d 05 55 d9 00 00 	lea    0xd955(%rip),%rax        # 1a0fc <g_139+0x3c>
    c7a7:	48 89 85 d0 f6 ff ff 	mov    %rax,-0x930(%rbp)
    c7ae:	48 8d 85 d0 f4 ff ff 	lea    -0xb30(%rbp),%rax
    c7b5:	48 89 85 d8 f6 ff ff 	mov    %rax,-0x928(%rbp)
    c7bc:	48 8d 05 dd ea 00 00 	lea    0xeadd(%rip),%rax        # 1b2a0 <g_1783>
    c7c3:	48 89 85 e0 f6 ff ff 	mov    %rax,-0x920(%rbp)
    c7ca:	48 8d 85 d0 f4 ff ff 	lea    -0xb30(%rbp),%rax
    c7d1:	48 89 85 e8 f6 ff ff 	mov    %rax,-0x918(%rbp)
    c7d8:	48 8d 05 1d d9 00 00 	lea    0xd91d(%rip),%rax        # 1a0fc <g_139+0x3c>
    c7df:	48 89 85 f0 f6 ff ff 	mov    %rax,-0x910(%rbp)
    c7e6:	48 8d 05 0f d9 00 00 	lea    0xd90f(%rip),%rax        # 1a0fc <g_139+0x3c>
    c7ed:	48 89 85 f8 f6 ff ff 	mov    %rax,-0x908(%rbp)
    c7f4:	48 8d 85 d0 f4 ff ff 	lea    -0xb30(%rbp),%rax
    c7fb:	48 89 85 00 f7 ff ff 	mov    %rax,-0x900(%rbp)
    c802:	48 8d 05 97 ea 00 00 	lea    0xea97(%rip),%rax        # 1b2a0 <g_1783>
    c809:	48 89 85 08 f7 ff ff 	mov    %rax,-0x8f8(%rbp)
    c810:	48 8d 85 d0 f4 ff ff 	lea    -0xb30(%rbp),%rax
    c817:	48 89 85 10 f7 ff ff 	mov    %rax,-0x8f0(%rbp)
    c81e:	48 8d 05 d7 d8 00 00 	lea    0xd8d7(%rip),%rax        # 1a0fc <g_139+0x3c>
    c825:	48 89 85 18 f7 ff ff 	mov    %rax,-0x8e8(%rbp)
    c82c:	48 8d 05 c9 d8 00 00 	lea    0xd8c9(%rip),%rax        # 1a0fc <g_139+0x3c>
    c833:	48 89 85 20 f7 ff ff 	mov    %rax,-0x8e0(%rbp)
    c83a:	48 8d 85 d0 f4 ff ff 	lea    -0xb30(%rbp),%rax
    c841:	48 89 85 28 f7 ff ff 	mov    %rax,-0x8d8(%rbp)
    c848:	48 8d 05 51 ea 00 00 	lea    0xea51(%rip),%rax        # 1b2a0 <g_1783>
    c84f:	48 89 85 30 f7 ff ff 	mov    %rax,-0x8d0(%rbp)
    c856:	48 8d 85 d0 f4 ff ff 	lea    -0xb30(%rbp),%rax
    c85d:	48 89 85 38 f7 ff ff 	mov    %rax,-0x8c8(%rbp)
    c864:	48 8d 05 91 d8 00 00 	lea    0xd891(%rip),%rax        # 1a0fc <g_139+0x3c>
    c86b:	48 89 85 40 f7 ff ff 	mov    %rax,-0x8c0(%rbp)
    c872:	48 8d 05 83 d8 00 00 	lea    0xd883(%rip),%rax        # 1a0fc <g_139+0x3c>
    c879:	48 89 85 48 f7 ff ff 	mov    %rax,-0x8b8(%rbp)
    c880:	48 8d 85 d0 f4 ff ff 	lea    -0xb30(%rbp),%rax
    c887:	48 89 85 50 f7 ff ff 	mov    %rax,-0x8b0(%rbp)
    c88e:	48 8d 05 0b ea 00 00 	lea    0xea0b(%rip),%rax        # 1b2a0 <g_1783>
    c895:	48 89 85 58 f7 ff ff 	mov    %rax,-0x8a8(%rbp)
    c89c:	48 8d 85 d0 f4 ff ff 	lea    -0xb30(%rbp),%rax
    c8a3:	48 89 85 60 f7 ff ff 	mov    %rax,-0x8a0(%rbp)
    c8aa:	48 8d 05 4b d8 00 00 	lea    0xd84b(%rip),%rax        # 1a0fc <g_139+0x3c>
    c8b1:	48 89 85 68 f7 ff ff 	mov    %rax,-0x898(%rbp)
    c8b8:	48 8d 05 3d d8 00 00 	lea    0xd83d(%rip),%rax        # 1a0fc <g_139+0x3c>
    c8bf:	48 89 85 70 f7 ff ff 	mov    %rax,-0x890(%rbp)
    c8c6:	48 8d 85 d0 f4 ff ff 	lea    -0xb30(%rbp),%rax
    c8cd:	48 89 85 78 f7 ff ff 	mov    %rax,-0x888(%rbp)
    c8d4:	48 8d 05 c5 e9 00 00 	lea    0xe9c5(%rip),%rax        # 1b2a0 <g_1783>
    c8db:	48 89 85 80 f7 ff ff 	mov    %rax,-0x880(%rbp)
    c8e2:	48 8d 85 d0 f4 ff ff 	lea    -0xb30(%rbp),%rax
    c8e9:	48 89 85 88 f7 ff ff 	mov    %rax,-0x878(%rbp)
    c8f0:	48 8d 05 05 d8 00 00 	lea    0xd805(%rip),%rax        # 1a0fc <g_139+0x3c>
    c8f7:	48 89 85 90 f7 ff ff 	mov    %rax,-0x870(%rbp)
    c8fe:	48 8d 05 f7 d7 00 00 	lea    0xd7f7(%rip),%rax        # 1a0fc <g_139+0x3c>
    c905:	48 89 85 98 f7 ff ff 	mov    %rax,-0x868(%rbp)
    c90c:	48 8d 85 d0 f4 ff ff 	lea    -0xb30(%rbp),%rax
    c913:	48 89 85 a0 f7 ff ff 	mov    %rax,-0x860(%rbp)
    c91a:	48 8d 05 7f e9 00 00 	lea    0xe97f(%rip),%rax        # 1b2a0 <g_1783>
    c921:	48 89 85 a8 f7 ff ff 	mov    %rax,-0x858(%rbp)
    c928:	48 8d 85 d0 f4 ff ff 	lea    -0xb30(%rbp),%rax
    c92f:	48 89 85 b0 f7 ff ff 	mov    %rax,-0x850(%rbp)
    c936:	48 8d 05 bf d7 00 00 	lea    0xd7bf(%rip),%rax        # 1a0fc <g_139+0x3c>
    c93d:	48 89 85 b8 f7 ff ff 	mov    %rax,-0x848(%rbp)
    c944:	48 8d 05 b1 d7 00 00 	lea    0xd7b1(%rip),%rax        # 1a0fc <g_139+0x3c>
    c94b:	48 89 85 c0 f7 ff ff 	mov    %rax,-0x840(%rbp)
    c952:	48 8d 85 d0 f4 ff ff 	lea    -0xb30(%rbp),%rax
    c959:	48 89 85 c8 f7 ff ff 	mov    %rax,-0x838(%rbp)
    c960:	48 8d 05 39 e9 00 00 	lea    0xe939(%rip),%rax        # 1b2a0 <g_1783>
    c967:	48 89 85 d0 f7 ff ff 	mov    %rax,-0x830(%rbp)
    c96e:	48 8d 85 d0 f4 ff ff 	lea    -0xb30(%rbp),%rax
    c975:	48 89 85 d8 f7 ff ff 	mov    %rax,-0x828(%rbp)
    c97c:	48 8d 05 79 d7 00 00 	lea    0xd779(%rip),%rax        # 1a0fc <g_139+0x3c>
    c983:	48 89 85 e0 f7 ff ff 	mov    %rax,-0x820(%rbp)
    c98a:	48 8d 05 6b d7 00 00 	lea    0xd76b(%rip),%rax        # 1a0fc <g_139+0x3c>
    c991:	48 89 85 e8 f7 ff ff 	mov    %rax,-0x818(%rbp)
    c998:	48 8d 85 d0 f4 ff ff 	lea    -0xb30(%rbp),%rax
    c99f:	48 89 85 f0 f7 ff ff 	mov    %rax,-0x810(%rbp)
    c9a6:	48 8d 05 f3 e8 00 00 	lea    0xe8f3(%rip),%rax        # 1b2a0 <g_1783>
    c9ad:	48 89 85 f8 f7 ff ff 	mov    %rax,-0x808(%rbp)
    c9b4:	48 8d 85 d0 f4 ff ff 	lea    -0xb30(%rbp),%rax
    c9bb:	48 89 85 00 f8 ff ff 	mov    %rax,-0x800(%rbp)
    c9c2:	48 8d 05 33 d7 00 00 	lea    0xd733(%rip),%rax        # 1a0fc <g_139+0x3c>
    c9c9:	48 89 85 08 f8 ff ff 	mov    %rax,-0x7f8(%rbp)
    c9d0:	48 8d 05 25 d7 00 00 	lea    0xd725(%rip),%rax        # 1a0fc <g_139+0x3c>
    c9d7:	48 89 85 10 f8 ff ff 	mov    %rax,-0x7f0(%rbp)
    c9de:	48 8d 05 bb e8 00 00 	lea    0xe8bb(%rip),%rax        # 1b2a0 <g_1783>
    c9e5:	48 89 85 18 f8 ff ff 	mov    %rax,-0x7e8(%rbp)
    c9ec:	48 8d 05 09 d7 00 00 	lea    0xd709(%rip),%rax        # 1a0fc <g_139+0x3c>
    c9f3:	48 89 85 20 f8 ff ff 	mov    %rax,-0x7e0(%rbp)
    c9fa:	48 8d 05 9f e8 00 00 	lea    0xe89f(%rip),%rax        # 1b2a0 <g_1783>
    ca01:	48 89 85 28 f8 ff ff 	mov    %rax,-0x7d8(%rbp)
    ca08:	48 8d 05 91 e8 00 00 	lea    0xe891(%rip),%rax        # 1b2a0 <g_1783>
    ca0f:	48 89 85 30 f8 ff ff 	mov    %rax,-0x7d0(%rbp)
    ca16:	48 8d 05 83 e8 00 00 	lea    0xe883(%rip),%rax        # 1b2a0 <g_1783>
    ca1d:	48 89 85 38 f8 ff ff 	mov    %rax,-0x7c8(%rbp)
    ca24:	48 8d 05 75 e8 00 00 	lea    0xe875(%rip),%rax        # 1b2a0 <g_1783>
    ca2b:	48 89 85 40 f8 ff ff 	mov    %rax,-0x7c0(%rbp)
    ca32:	48 8d 05 c3 d6 00 00 	lea    0xd6c3(%rip),%rax        # 1a0fc <g_139+0x3c>
    ca39:	48 89 85 48 f8 ff ff 	mov    %rax,-0x7b8(%rbp)
    ca40:	48 8d 05 59 e8 00 00 	lea    0xe859(%rip),%rax        # 1b2a0 <g_1783>
    ca47:	48 89 85 50 f8 ff ff 	mov    %rax,-0x7b0(%rbp)
    ca4e:	c6 85 c8 f4 ff ff 8a 	movb   $0x8a,-0xb38(%rbp)
    ca55:	48 c7 85 18 f5 ff ff 	movq   $0x0,-0xae8(%rbp)
    ca5c:	00 00 00 00 
    ca60:	48 8b 05 f9 29 01 00 	mov    0x129f9(%rip),%rax        # 1f460 <g_2073>
    ca67:	8b 95 e4 f4 ff ff    	mov    -0xb1c(%rbp),%edx
    ca6d:	88 10                	mov    %dl,(%rax)
    ca6f:	0f b6 00             	movzbl (%rax),%eax
    ca72:	84 c0                	test   %al,%al
    ca74:	0f 85 83 00 00 00    	jne    cafd <func_27+0x5f8>
    ca7a:	48 8b 85 b0 f5 ff ff 	mov    -0xa50(%rbp),%rax
    ca81:	48 85 c0             	test   %rax,%rax
    ca84:	0f 95 c0             	setne  %al
    ca87:	0f b6 d8             	movzbl %al,%ebx
    ca8a:	48 83 bd 60 f5 ff ff 	cmpq   $0x0,-0xaa0(%rbp)
    ca91:	00 
    ca92:	0f 95 c0             	setne  %al
    ca95:	44 0f b6 e0          	movzbl %al,%r12d
    ca99:	48 83 bd 20 f5 ff ff 	cmpq   $0x0,-0xae0(%rbp)
    caa0:	00 
    caa1:	75 07                	jne    caaa <func_27+0x5a5>
    caa3:	b8 01 00 00 00       	mov    $0x1,%eax
    caa8:	eb 05                	jmp    caaf <func_27+0x5aa>
    caaa:	b8 00 00 00 00       	mov    $0x0,%eax
    caaf:	48 63 d0             	movslq %eax,%rdx
    cab2:	48 0f be 85 b8 f4 ff 	movsbq -0xb48(%rbp),%rax
    cab9:	ff 
    caba:	48 89 d6             	mov    %rdx,%rsi
    cabd:	48 89 c7             	mov    %rax,%rdi
    cac0:	e8 ea d5 ff ff       	callq  a0af <safe_div_func_uint64_t_u_u>
    cac5:	48 f7 d0             	not    %rax
    cac8:	49 39 c4             	cmp    %rax,%r12
    cacb:	0f 96 c0             	setbe  %al
    cace:	0f b6 c0             	movzbl %al,%eax
    cad1:	be 1d ff ff ff       	mov    $0xffffff1d,%esi
    cad6:	89 c7                	mov    %eax,%edi
    cad8:	e8 18 c9 ff ff       	callq  93f5 <safe_mul_func_int16_t_s_s>
    cadd:	48 be 7c ad 56 30 97 	movabs $0xb58577973056ad7c,%rsi
    cae4:	77 85 b5 
    cae7:	bf 00 00 00 00       	mov    $0x0,%edi
    caec:	e8 5a d5 ff ff       	callq  a04b <safe_sub_func_uint64_t_u_u>
    caf1:	48 83 f8 08          	cmp    $0x8,%rax
    caf5:	0f 96 c0             	setbe  %al
    caf8:	0f b6 c0             	movzbl %al,%eax
    cafb:	39 c3                	cmp    %eax,%ebx
    cafd:	48 8b 05 e4 24 01 00 	mov    0x124e4(%rip),%rax        # 1efe8 <g_180>
    cb04:	48 8b 00             	mov    (%rax),%rax
    cb07:	48 8d 95 bc f4 ff ff 	lea    -0xb44(%rbp),%rdx
    cb0e:	48 89 10             	mov    %rdx,(%rax)
    cb11:	48 8b 05 e8 28 01 00 	mov    0x128e8(%rip),%rax        # 1f400 <g_1953>
    cb18:	8b 10                	mov    (%rax),%edx
    cb1a:	48 8b 05 df 28 01 00 	mov    0x128df(%rip),%rax        # 1f400 <g_1953>
    cb21:	83 ca 01             	or     $0x1,%edx
    cb24:	89 10                	mov    %edx,(%rax)
    cb26:	48 8b 05 bb 24 01 00 	mov    0x124bb(%rip),%rax        # 1efe8 <g_180>
    cb2d:	48 8b 00             	mov    (%rax),%rax
    cb30:	48 8d 95 bc f4 ff ff 	lea    -0xb44(%rbp),%rdx
    cb37:	48 89 10             	mov    %rdx,(%rax)
    cb3a:	80 ad c8 f4 ff ff 01 	subb   $0x1,-0xb38(%rbp)
    cb41:	48 8b 85 48 f5 ff ff 	mov    -0xab8(%rbp),%rax
    cb48:	8b 10                	mov    (%rax),%edx
    cb4a:	48 8b 85 b0 f4 ff ff 	mov    -0xb50(%rbp),%rax
    cb51:	8b 00                	mov    (%rax),%eax
    cb53:	21 c2                	and    %eax,%edx
    cb55:	48 8b 85 48 f5 ff ff 	mov    -0xab8(%rbp),%rax
    cb5c:	89 10                	mov    %edx,(%rax)
    cb5e:	48 8b 05 9b 28 01 00 	mov    0x1289b(%rip),%rax        # 1f400 <g_1953>
    cb65:	8b 08                	mov    (%rax),%ecx
    cb67:	8b 85 bc f4 ff ff    	mov    -0xb44(%rbp),%eax
    cb6d:	85 c0                	test   %eax,%eax
    cb6f:	74 10                	je     cb81 <func_27+0x67c>
    cb71:	80 bd b8 f4 ff ff 00 	cmpb   $0x0,-0xb48(%rbp)
    cb78:	74 07                	je     cb81 <func_27+0x67c>
    cb7a:	ba 01 00 00 00       	mov    $0x1,%edx
    cb7f:	eb 05                	jmp    cb86 <func_27+0x681>
    cb81:	ba 00 00 00 00       	mov    $0x0,%edx
    cb86:	48 8b 85 48 f5 ff ff 	mov    -0xab8(%rbp),%rax
    cb8d:	8b 00                	mov    (%rax),%eax
    cb8f:	39 c2                	cmp    %eax,%edx
    cb91:	0f 9f c0             	setg   %al
    cb94:	0f b6 d0             	movzbl %al,%edx
    cb97:	48 8b 05 62 28 01 00 	mov    0x12862(%rip),%rax        # 1f400 <g_1953>
    cb9e:	21 ca                	and    %ecx,%edx
    cba0:	89 10                	mov    %edx,(%rax)
    cba2:	48 8b 85 18 f5 ff ff 	mov    -0xae8(%rbp),%rax
    cba9:	48 8b 5d e8          	mov    -0x18(%rbp),%rbx
    cbad:	64 48 33 1c 25 28 00 	xor    %fs:0x28,%rbx
    cbb4:	00 00 
    cbb6:	74 05                	je     cbbd <func_27+0x6b8>
    cbb8:	e8 b3 c4 ff ff       	callq  9070 <__stack_chk_fail@plt>
    cbbd:	48 81 c4 50 0b 00 00 	add    $0xb50,%rsp
    cbc4:	5b                   	pop    %rbx
    cbc5:	41 5c                	pop    %r12
    cbc7:	5d                   	pop    %rbp
    cbc8:	c3                   	retq   

000000000000cbc9 <func_33>:
    cbc9:	f3 0f 1e fa          	endbr64 
    cbcd:	55                   	push   %rbp
    cbce:	48 89 e5             	mov    %rsp,%rbp
    cbd1:	41 57                	push   %r15
    cbd3:	41 56                	push   %r14
    cbd5:	41 55                	push   %r13
    cbd7:	41 54                	push   %r12
    cbd9:	53                   	push   %rbx
    cbda:	48 81 ec a8 00 00 00 	sub    $0xa8,%rsp
    cbe1:	48 89 bd 48 ff ff ff 	mov    %rdi,-0xb8(%rbp)
    cbe8:	48 89 b5 40 ff ff ff 	mov    %rsi,-0xc0(%rbp)
    cbef:	89 95 3c ff ff ff    	mov    %edx,-0xc4(%rbp)
    cbf5:	89 8d 38 ff ff ff    	mov    %ecx,-0xc8(%rbp)
    cbfb:	64 48 8b 04 25 28 00 	mov    %fs:0x28,%rax
    cc02:	00 00 
    cc04:	48 89 45 c8          	mov    %rax,-0x38(%rbp)
    cc08:	31 c0                	xor    %eax,%eax
    cc0a:	c6 85 53 ff ff ff 07 	movb   $0x7,-0xad(%rbp)
    cc11:	48 8d 05 2c d4 00 00 	lea    0xd42c(%rip),%rax        # 1a044 <g_66+0x4>
    cc18:	48 89 85 58 ff ff ff 	mov    %rax,-0xa8(%rbp)
    cc1f:	48 8d 05 12 35 01 00 	lea    0x13512(%rip),%rax        # 20138 <g_1141>
    cc26:	48 89 85 60 ff ff ff 	mov    %rax,-0xa0(%rbp)
    cc2d:	48 8d 05 84 30 01 00 	lea    0x13084(%rip),%rax        # 1fcb8 <g_2689+0x18>
    cc34:	48 89 85 68 ff ff ff 	mov    %rax,-0x98(%rbp)
    cc3b:	48 8d 05 50 d4 00 00 	lea    0xd450(%rip),%rax        # 1a092 <g_115>
    cc42:	48 89 85 70 ff ff ff 	mov    %rax,-0x90(%rbp)
    cc49:	c7 45 80 88 eb 1b b4 	movl   $0xb41beb88,-0x80(%rbp)
    cc50:	c7 45 84 88 eb 1b b4 	movl   $0xb41beb88,-0x7c(%rbp)
    cc57:	c7 45 88 88 eb 1b b4 	movl   $0xb41beb88,-0x78(%rbp)
    cc5e:	c7 45 8c 88 eb 1b b4 	movl   $0xb41beb88,-0x74(%rbp)
    cc65:	c7 45 90 88 eb 1b b4 	movl   $0xb41beb88,-0x70(%rbp)
    cc6c:	c7 45 94 88 eb 1b b4 	movl   $0xb41beb88,-0x6c(%rbp)
    cc73:	c7 45 98 88 eb 1b b4 	movl   $0xb41beb88,-0x68(%rbp)
    cc7a:	c7 45 9c 88 eb 1b b4 	movl   $0xb41beb88,-0x64(%rbp)
    cc81:	c7 45 a0 88 eb 1b b4 	movl   $0xb41beb88,-0x60(%rbp)
    cc88:	c7 45 a4 88 eb 1b b4 	movl   $0xb41beb88,-0x5c(%rbp)
    cc8f:	c7 45 a8 88 eb 1b b4 	movl   $0xb41beb88,-0x58(%rbp)
    cc96:	c7 45 ac 88 eb 1b b4 	movl   $0xb41beb88,-0x54(%rbp)
    cc9d:	c7 45 b0 88 eb 1b b4 	movl   $0xb41beb88,-0x50(%rbp)
    cca4:	c7 45 b4 88 eb 1b b4 	movl   $0xb41beb88,-0x4c(%rbp)
    ccab:	c7 45 b8 88 eb 1b b4 	movl   $0xb41beb88,-0x48(%rbp)
    ccb2:	c7 45 bc 88 eb 1b b4 	movl   $0xb41beb88,-0x44(%rbp)
    ccb9:	c7 85 54 ff ff ff 00 	movl   $0xa15ad100,-0xac(%rbp)
    ccc0:	d1 5a a1 
    ccc3:	48 8d 05 d6 e5 00 00 	lea    0xe5d6(%rip),%rax        # 1b2a0 <g_1783>
    ccca:	48 89 85 78 ff ff ff 	mov    %rax,-0x88(%rbp)
    ccd1:	48 8b 05 70 23 01 00 	mov    0x12370(%rip),%rax        # 1f048 <g_385>
    ccd8:	8b 08                	mov    (%rax),%ecx
    ccda:	0f b6 95 53 ff ff ff 	movzbl -0xad(%rbp),%edx
    cce1:	48 8b 05 60 23 01 00 	mov    0x12360(%rip),%rax        # 1f048 <g_385>
    cce8:	21 ca                	and    %ecx,%edx
    ccea:	89 10                	mov    %edx,(%rax)
    ccec:	0f b6 85 53 ff ff ff 	movzbl -0xad(%rbp),%eax
    ccf3:	0f be d8             	movsbl %al,%ebx
    ccf6:	48 8b 05 33 d7 00 00 	mov    0xd733(%rip),%rax        # 1a430 <g_1120>
    ccfd:	44 0f b7 e0          	movzwl %ax,%r12d
    cd01:	80 bd 53 ff ff ff 01 	cmpb   $0x1,-0xad(%rbp)
    cd08:	0f 95 c0             	setne  %al
    cd0b:	44 0f b6 f0          	movzbl %al,%r14d
    cd0f:	48 8b 05 4a 2f 01 00 	mov    0x12f4a(%rip),%rax        # 1fc60 <g_2371>
    cd16:	0f b7 00             	movzwl (%rax),%eax
    cd19:	44 0f bf e8          	movswl %ax,%r13d
    cd1d:	48 8b 05 7c 9c 00 00 	mov    0x9c7c(%rip),%rax        # 169a0 <l_2725.4586+0xe0>
    cd24:	41 89 c7             	mov    %eax,%r15d
    cd27:	8b 05 c7 d4 00 00    	mov    0xd4c7(%rip),%eax        # 1a1f4 <g_366+0x4>
    cd2d:	0f b7 d0             	movzwl %ax,%edx
    cd30:	48 8b 05 c1 26 01 00 	mov    0x126c1(%rip),%rax        # 1f3f8 <g_1890>
    cd37:	8b 8d 3c ff ff ff    	mov    -0xc4(%rbp),%ecx
    cd3d:	89 08                	mov    %ecx,(%rax)
    cd3f:	0f b6 85 53 ff ff ff 	movzbl -0xad(%rbp),%eax
    cd46:	8b 8d 38 ff ff ff    	mov    -0xc8(%rbp),%ecx
    cd4c:	31 c8                	xor    %ecx,%eax
    cd4e:	0f b7 c0             	movzwl %ax,%eax
    cd51:	89 d6                	mov    %edx,%esi
    cd53:	89 c7                	mov    %eax,%edi
    cd55:	e8 02 d0 ff ff       	callq  9d5c <safe_mod_func_uint16_t_u_u>
    cd5a:	0f be c0             	movsbl %al,%eax
    cd5d:	44 89 fe             	mov    %r15d,%esi
    cd60:	89 c7                	mov    %eax,%edi
    cd62:	e8 87 c5 ff ff       	callq  92ee <safe_lshift_func_int8_t_s_u>
    cd67:	0f be c0             	movsbl %al,%eax
    cd6a:	44 89 ee             	mov    %r13d,%esi
    cd6d:	89 c7                	mov    %eax,%edi
    cd6f:	e8 e1 c6 ff ff       	callq  9455 <safe_div_func_int16_t_s_s>
    cd74:	98                   	cwtl   
    cd75:	41 39 c6             	cmp    %eax,%r14d
    cd78:	48 8b 85 70 ff ff ff 	mov    -0x90(%rbp),%rax
    cd7f:	66 c7 00 00 00       	movw   $0x0,(%rax)
    cd84:	48 8b 85 70 ff ff ff 	mov    -0x90(%rbp),%rax
    cd8b:	0f b7 00             	movzwl (%rax),%eax
    cd8e:	0f b7 c0             	movzwl %ax,%eax
    cd91:	44 89 e6             	mov    %r12d,%esi
    cd94:	89 c7                	mov    %eax,%edi
    cd96:	e8 c1 cf ff ff       	callq  9d5c <safe_mod_func_uint16_t_u_u>
    cd9b:	0f b7 d0             	movzwl %ax,%edx
    cd9e:	48 8b 05 3b 26 01 00 	mov    0x1263b(%rip),%rax        # 1f3e0 <g_1732>
    cda5:	8b 00                	mov    (%rax),%eax
    cda7:	89 d6                	mov    %edx,%esi
    cda9:	89 c7                	mov    %eax,%edi
    cdab:	e8 1c c9 ff ff       	callq  96cc <safe_mod_func_int32_t_s_s>
    cdb0:	89 45 a8             	mov    %eax,-0x58(%rbp)
    cdb3:	8b 45 a8             	mov    -0x58(%rbp),%eax
    cdb6:	89 c2                	mov    %eax,%edx
    cdb8:	8b 85 38 ff ff ff    	mov    -0xc8(%rbp),%eax
    cdbe:	89 d6                	mov    %edx,%esi
    cdc0:	89 c7                	mov    %eax,%edi
    cdc2:	e8 09 d1 ff ff       	callq  9ed0 <safe_sub_func_uint32_t_u_u>
    cdc7:	89 c2                	mov    %eax,%edx
    cdc9:	48 8b 05 90 26 01 00 	mov    0x12690(%rip),%rax        # 1f460 <g_2073>
    cdd0:	88 10                	mov    %dl,(%rax)
    cdd2:	0f b6 00             	movzbl (%rax),%eax
    cdd5:	0f be c0             	movsbl %al,%eax
    cdd8:	89 de                	mov    %ebx,%esi
    cdda:	89 c7                	mov    %eax,%edi
    cddc:	e8 f3 c3 ff ff       	callq  91d4 <safe_add_func_int8_t_s_s>
    cde1:	66 98                	cbtw   
    cde3:	0f b7 d0             	movzwl %ax,%edx
    cde6:	48 8b 85 58 ff ff ff 	mov    -0xa8(%rbp),%rax
    cded:	0f b7 00             	movzwl (%rax),%eax
    cdf0:	8d 70 01             	lea    0x1(%rax),%esi
    cdf3:	48 8b 8d 58 ff ff ff 	mov    -0xa8(%rbp),%rcx
    cdfa:	66 89 31             	mov    %si,(%rcx)
    cdfd:	0f b7 c0             	movzwl %ax,%eax
    ce00:	89 d6                	mov    %edx,%esi
    ce02:	89 c7                	mov    %eax,%edi
    ce04:	e8 f6 ce ff ff       	callq  9cff <safe_add_func_uint16_t_u_u>
    ce09:	0f b7 c0             	movzwl %ax,%eax
    ce0c:	48 be d0 6d 3b 0b e1 	movabs $0x43a603e10b3b6dd0,%rsi
    ce13:	03 a6 43 
    ce16:	48 89 c7             	mov    %rax,%rdi
    ce19:	e8 2d d2 ff ff       	callq  a04b <safe_sub_func_uint64_t_u_u>
    ce1e:	0f b6 85 53 ff ff ff 	movzbl -0xad(%rbp),%eax
    ce25:	be ff 00 00 00       	mov    $0xff,%esi
    ce2a:	89 c7                	mov    %eax,%edi
    ce2c:	e8 62 cd ff ff       	callq  9b93 <safe_mul_func_uint8_t_u_u>
    ce31:	0f b6 c0             	movzbl %al,%eax
    ce34:	39 85 38 ff ff ff    	cmp    %eax,-0xc8(%rbp)
    ce3a:	0f 9e c0             	setle  %al
    ce3d:	0f b6 c0             	movzbl %al,%eax
    ce40:	31 85 54 ff ff ff    	xor    %eax,-0xac(%rbp)
    ce46:	48 8b 85 78 ff ff ff 	mov    -0x88(%rbp),%rax
    ce4d:	48 8b 5d c8          	mov    -0x38(%rbp),%rbx
    ce51:	64 48 33 1c 25 28 00 	xor    %fs:0x28,%rbx
    ce58:	00 00 
    ce5a:	74 05                	je     ce61 <func_33+0x298>
    ce5c:	e8 0f c2 ff ff       	callq  9070 <__stack_chk_fail@plt>
    ce61:	48 81 c4 a8 00 00 00 	add    $0xa8,%rsp
    ce68:	5b                   	pop    %rbx
    ce69:	41 5c                	pop    %r12
    ce6b:	41 5d                	pop    %r13
    ce6d:	41 5e                	pop    %r14
    ce6f:	41 5f                	pop    %r15
    ce71:	5d                   	pop    %rbp
    ce72:	c3                   	retq   

000000000000ce73 <func_38>:
    ce73:	f3 0f 1e fa          	endbr64 
    ce77:	55                   	push   %rbp
    ce78:	48 89 e5             	mov    %rsp,%rbp
    ce7b:	53                   	push   %rbx
    ce7c:	48 81 ec 28 03 00 00 	sub    $0x328,%rsp
    ce83:	48 89 bd d8 fc ff ff 	mov    %rdi,-0x328(%rbp)
    ce8a:	64 48 8b 04 25 28 00 	mov    %fs:0x28,%rax
    ce91:	00 00 
    ce93:	48 89 45 e8          	mov    %rax,-0x18(%rbp)
    ce97:	31 c0                	xor    %eax,%eax
    ce99:	c6 85 e9 fc ff ff fc 	movb   $0xfc,-0x317(%rbp)
    cea0:	c7 85 f0 fc ff ff 00 	movl   $0x0,-0x310(%rbp)
    cea7:	00 00 00 
    ceaa:	48 8d 05 e7 d1 00 00 	lea    0xd1e7(%rip),%rax        # 1a098 <g_126>
    ceb1:	48 89 85 08 fd ff ff 	mov    %rax,-0x2f8(%rbp)
    ceb8:	48 8d 05 01 33 01 00 	lea    0x13301(%rip),%rax        # 201c0 <g_2249>
    cebf:	48 89 85 10 fd ff ff 	mov    %rax,-0x2f0(%rbp)
    cec6:	c7 85 f4 fc ff ff 3d 	movl   $0x76c583d,-0x30c(%rbp)
    cecd:	58 6c 07 
    ced0:	c7 85 f8 fc ff ff 68 	movl   $0x31bf7c68,-0x308(%rbp)
    ced7:	7c bf 31 
    ceda:	c7 85 30 fd ff ff 1e 	movl   $0xac72c91e,-0x2d0(%rbp)
    cee1:	c9 72 ac 
    cee4:	c7 85 34 fd ff ff 1e 	movl   $0xac72c91e,-0x2cc(%rbp)
    ceeb:	c9 72 ac 
    ceee:	c7 85 38 fd ff ff 1e 	movl   $0xac72c91e,-0x2c8(%rbp)
    cef5:	c9 72 ac 
    cef8:	c7 85 3c fd ff ff 1e 	movl   $0xac72c91e,-0x2c4(%rbp)
    ceff:	c9 72 ac 
    cf02:	c7 85 40 fd ff ff 1e 	movl   $0xac72c91e,-0x2c0(%rbp)
    cf09:	c9 72 ac 
    cf0c:	c7 85 44 fd ff ff 1e 	movl   $0xac72c91e,-0x2bc(%rbp)
    cf13:	c9 72 ac 
    cf16:	c7 85 48 fd ff ff 1e 	movl   $0xac72c91e,-0x2b8(%rbp)
    cf1d:	c9 72 ac 
    cf20:	c7 85 4c fd ff ff 1e 	movl   $0xac72c91e,-0x2b4(%rbp)
    cf27:	c9 72 ac 
    cf2a:	c7 85 50 fd ff ff 1e 	movl   $0xac72c91e,-0x2b0(%rbp)
    cf31:	c9 72 ac 
    cf34:	c7 85 54 fd ff ff 1e 	movl   $0xac72c91e,-0x2ac(%rbp)
    cf3b:	c9 72 ac 
    cf3e:	48 8d 05 4f 81 00 00 	lea    0x814f(%rip),%rax        # 15094 <g_2569+0x14>
    cf45:	48 89 85 18 fd ff ff 	mov    %rax,-0x2e8(%rbp)
    cf4c:	c6 85 ea fc ff ff b2 	movb   $0xb2,-0x316(%rbp)
    cf53:	48 c7 85 00 fd ff ff 	movq   $0x0,-0x300(%rbp)
    cf5a:	00 00 00 00 
    cf5e:	48 8d 85 00 fd ff ff 	lea    -0x300(%rbp),%rax
    cf65:	48 89 85 60 fd ff ff 	mov    %rax,-0x2a0(%rbp)
    cf6c:	48 8d 85 00 fd ff ff 	lea    -0x300(%rbp),%rax
    cf73:	48 89 85 68 fd ff ff 	mov    %rax,-0x298(%rbp)
    cf7a:	48 c7 85 70 fd ff ff 	movq   $0x0,-0x290(%rbp)
    cf81:	00 00 00 00 
    cf85:	48 8d 85 00 fd ff ff 	lea    -0x300(%rbp),%rax
    cf8c:	48 89 85 78 fd ff ff 	mov    %rax,-0x288(%rbp)
    cf93:	48 8d 85 00 fd ff ff 	lea    -0x300(%rbp),%rax
    cf9a:	48 89 85 80 fd ff ff 	mov    %rax,-0x280(%rbp)
    cfa1:	48 8d 85 00 fd ff ff 	lea    -0x300(%rbp),%rax
    cfa8:	48 89 85 88 fd ff ff 	mov    %rax,-0x278(%rbp)
    cfaf:	48 8d 85 00 fd ff ff 	lea    -0x300(%rbp),%rax
    cfb6:	48 89 85 90 fd ff ff 	mov    %rax,-0x270(%rbp)
    cfbd:	48 8d 85 00 fd ff ff 	lea    -0x300(%rbp),%rax
    cfc4:	48 89 85 98 fd ff ff 	mov    %rax,-0x268(%rbp)
    cfcb:	48 c7 85 a0 fd ff ff 	movq   $0x0,-0x260(%rbp)
    cfd2:	00 00 00 00 
    cfd6:	48 8d 85 00 fd ff ff 	lea    -0x300(%rbp),%rax
    cfdd:	48 89 85 a8 fd ff ff 	mov    %rax,-0x258(%rbp)
    cfe4:	48 c7 85 b0 fd ff ff 	movq   $0x0,-0x250(%rbp)
    cfeb:	00 00 00 00 
    cfef:	48 8d 85 00 fd ff ff 	lea    -0x300(%rbp),%rax
    cff6:	48 89 85 b8 fd ff ff 	mov    %rax,-0x248(%rbp)
    cffd:	48 8d 85 00 fd ff ff 	lea    -0x300(%rbp),%rax
    d004:	48 89 85 c0 fd ff ff 	mov    %rax,-0x240(%rbp)
    d00b:	48 8d 85 00 fd ff ff 	lea    -0x300(%rbp),%rax
    d012:	48 89 85 c8 fd ff ff 	mov    %rax,-0x238(%rbp)
    d019:	48 8d 85 00 fd ff ff 	lea    -0x300(%rbp),%rax
    d020:	48 89 85 d0 fd ff ff 	mov    %rax,-0x230(%rbp)
    d027:	48 8d 85 00 fd ff ff 	lea    -0x300(%rbp),%rax
    d02e:	48 89 85 d8 fd ff ff 	mov    %rax,-0x228(%rbp)
    d035:	48 8d 85 00 fd ff ff 	lea    -0x300(%rbp),%rax
    d03c:	48 89 85 e0 fd ff ff 	mov    %rax,-0x220(%rbp)
    d043:	48 8d 85 00 fd ff ff 	lea    -0x300(%rbp),%rax
    d04a:	48 89 85 e8 fd ff ff 	mov    %rax,-0x218(%rbp)
    d051:	48 c7 85 f0 fd ff ff 	movq   $0x0,-0x210(%rbp)
    d058:	00 00 00 00 
    d05c:	48 c7 85 f8 fd ff ff 	movq   $0x0,-0x208(%rbp)
    d063:	00 00 00 00 
    d067:	48 8d 85 00 fd ff ff 	lea    -0x300(%rbp),%rax
    d06e:	48 89 85 00 fe ff ff 	mov    %rax,-0x200(%rbp)
    d075:	48 8d 85 00 fd ff ff 	lea    -0x300(%rbp),%rax
    d07c:	48 89 85 08 fe ff ff 	mov    %rax,-0x1f8(%rbp)
    d083:	48 8d 85 00 fd ff ff 	lea    -0x300(%rbp),%rax
    d08a:	48 89 85 10 fe ff ff 	mov    %rax,-0x1f0(%rbp)
    d091:	48 8d 85 00 fd ff ff 	lea    -0x300(%rbp),%rax
    d098:	48 89 85 18 fe ff ff 	mov    %rax,-0x1e8(%rbp)
    d09f:	48 8d 85 00 fd ff ff 	lea    -0x300(%rbp),%rax
    d0a6:	48 89 85 20 fe ff ff 	mov    %rax,-0x1e0(%rbp)
    d0ad:	48 8d 85 00 fd ff ff 	lea    -0x300(%rbp),%rax
    d0b4:	48 89 85 28 fe ff ff 	mov    %rax,-0x1d8(%rbp)
    d0bb:	48 c7 85 30 fe ff ff 	movq   $0x0,-0x1d0(%rbp)
    d0c2:	00 00 00 00 
    d0c6:	48 8d 85 00 fd ff ff 	lea    -0x300(%rbp),%rax
    d0cd:	48 89 85 38 fe ff ff 	mov    %rax,-0x1c8(%rbp)
    d0d4:	48 c7 85 40 fe ff ff 	movq   $0x0,-0x1c0(%rbp)
    d0db:	00 00 00 00 
    d0df:	48 c7 85 48 fe ff ff 	movq   $0x0,-0x1b8(%rbp)
    d0e6:	00 00 00 00 
    d0ea:	48 c7 85 50 fe ff ff 	movq   $0x0,-0x1b0(%rbp)
    d0f1:	00 00 00 00 
    d0f5:	48 8d 85 00 fd ff ff 	lea    -0x300(%rbp),%rax
    d0fc:	48 89 85 58 fe ff ff 	mov    %rax,-0x1a8(%rbp)
    d103:	48 8d 85 00 fd ff ff 	lea    -0x300(%rbp),%rax
    d10a:	48 89 85 60 fe ff ff 	mov    %rax,-0x1a0(%rbp)
    d111:	48 8d 85 00 fd ff ff 	lea    -0x300(%rbp),%rax
    d118:	48 89 85 68 fe ff ff 	mov    %rax,-0x198(%rbp)
    d11f:	48 8d 85 00 fd ff ff 	lea    -0x300(%rbp),%rax
    d126:	48 89 85 70 fe ff ff 	mov    %rax,-0x190(%rbp)
    d12d:	48 8d 85 00 fd ff ff 	lea    -0x300(%rbp),%rax
    d134:	48 89 85 78 fe ff ff 	mov    %rax,-0x188(%rbp)
    d13b:	48 8d 85 00 fd ff ff 	lea    -0x300(%rbp),%rax
    d142:	48 89 85 80 fe ff ff 	mov    %rax,-0x180(%rbp)
    d149:	48 c7 85 88 fe ff ff 	movq   $0x0,-0x178(%rbp)
    d150:	00 00 00 00 
    d154:	48 8d 85 00 fd ff ff 	lea    -0x300(%rbp),%rax
    d15b:	48 89 85 90 fe ff ff 	mov    %rax,-0x170(%rbp)
    d162:	48 8d 85 00 fd ff ff 	lea    -0x300(%rbp),%rax
    d169:	48 89 85 98 fe ff ff 	mov    %rax,-0x168(%rbp)
    d170:	48 8d 85 00 fd ff ff 	lea    -0x300(%rbp),%rax
    d177:	48 89 85 a0 fe ff ff 	mov    %rax,-0x160(%rbp)
    d17e:	48 c7 85 a8 fe ff ff 	movq   $0x0,-0x158(%rbp)
    d185:	00 00 00 00 
    d189:	48 8d 85 00 fd ff ff 	lea    -0x300(%rbp),%rax
    d190:	48 89 85 b0 fe ff ff 	mov    %rax,-0x150(%rbp)
    d197:	48 8d 85 00 fd ff ff 	lea    -0x300(%rbp),%rax
    d19e:	48 89 85 b8 fe ff ff 	mov    %rax,-0x148(%rbp)
    d1a5:	48 8d 85 00 fd ff ff 	lea    -0x300(%rbp),%rax
    d1ac:	48 89 85 c0 fe ff ff 	mov    %rax,-0x140(%rbp)
    d1b3:	48 8d 85 00 fd ff ff 	lea    -0x300(%rbp),%rax
    d1ba:	48 89 85 c8 fe ff ff 	mov    %rax,-0x138(%rbp)
    d1c1:	48 8d 85 00 fd ff ff 	lea    -0x300(%rbp),%rax
    d1c8:	48 89 85 d0 fe ff ff 	mov    %rax,-0x130(%rbp)
    d1cf:	48 8d 85 00 fd ff ff 	lea    -0x300(%rbp),%rax
    d1d6:	48 89 85 d8 fe ff ff 	mov    %rax,-0x128(%rbp)
    d1dd:	48 8d 85 00 fd ff ff 	lea    -0x300(%rbp),%rax
    d1e4:	48 89 85 e0 fe ff ff 	mov    %rax,-0x120(%rbp)
    d1eb:	48 8d 85 00 fd ff ff 	lea    -0x300(%rbp),%rax
    d1f2:	48 89 85 e8 fe ff ff 	mov    %rax,-0x118(%rbp)
    d1f9:	48 8d 85 00 fd ff ff 	lea    -0x300(%rbp),%rax
    d200:	48 89 85 f0 fe ff ff 	mov    %rax,-0x110(%rbp)
    d207:	48 8d 85 00 fd ff ff 	lea    -0x300(%rbp),%rax
    d20e:	48 89 85 f8 fe ff ff 	mov    %rax,-0x108(%rbp)
    d215:	48 8d 85 00 fd ff ff 	lea    -0x300(%rbp),%rax
    d21c:	48 89 85 00 ff ff ff 	mov    %rax,-0x100(%rbp)
    d223:	48 8d 85 00 fd ff ff 	lea    -0x300(%rbp),%rax
    d22a:	48 89 85 08 ff ff ff 	mov    %rax,-0xf8(%rbp)
    d231:	48 8d 85 00 fd ff ff 	lea    -0x300(%rbp),%rax
    d238:	48 89 85 10 ff ff ff 	mov    %rax,-0xf0(%rbp)
    d23f:	48 8d 85 00 fd ff ff 	lea    -0x300(%rbp),%rax
    d246:	48 89 85 18 ff ff ff 	mov    %rax,-0xe8(%rbp)
    d24d:	48 8d 85 00 fd ff ff 	lea    -0x300(%rbp),%rax
    d254:	48 89 85 20 ff ff ff 	mov    %rax,-0xe0(%rbp)
    d25b:	48 c7 85 28 ff ff ff 	movq   $0x0,-0xd8(%rbp)
    d262:	00 00 00 00 
    d266:	48 8d 85 00 fd ff ff 	lea    -0x300(%rbp),%rax
    d26d:	48 89 85 30 ff ff ff 	mov    %rax,-0xd0(%rbp)
    d274:	48 8d 85 00 fd ff ff 	lea    -0x300(%rbp),%rax
    d27b:	48 89 85 38 ff ff ff 	mov    %rax,-0xc8(%rbp)
    d282:	48 8d 85 00 fd ff ff 	lea    -0x300(%rbp),%rax
    d289:	48 89 85 40 ff ff ff 	mov    %rax,-0xc0(%rbp)
    d290:	48 8d 85 00 fd ff ff 	lea    -0x300(%rbp),%rax
    d297:	48 89 85 48 ff ff ff 	mov    %rax,-0xb8(%rbp)
    d29e:	48 8d 85 00 fd ff ff 	lea    -0x300(%rbp),%rax
    d2a5:	48 89 85 50 ff ff ff 	mov    %rax,-0xb0(%rbp)
    d2ac:	48 8d 85 00 fd ff ff 	lea    -0x300(%rbp),%rax
    d2b3:	48 89 85 58 ff ff ff 	mov    %rax,-0xa8(%rbp)
    d2ba:	48 8d 85 00 fd ff ff 	lea    -0x300(%rbp),%rax
    d2c1:	48 89 85 60 ff ff ff 	mov    %rax,-0xa0(%rbp)
    d2c8:	48 c7 85 68 ff ff ff 	movq   $0x0,-0x98(%rbp)
    d2cf:	00 00 00 00 
    d2d3:	48 8d 85 00 fd ff ff 	lea    -0x300(%rbp),%rax
    d2da:	48 89 85 70 ff ff ff 	mov    %rax,-0x90(%rbp)
    d2e1:	48 8d 85 00 fd ff ff 	lea    -0x300(%rbp),%rax
    d2e8:	48 89 85 78 ff ff ff 	mov    %rax,-0x88(%rbp)
    d2ef:	48 c7 45 80 00 00 00 	movq   $0x0,-0x80(%rbp)
    d2f6:	00 
    d2f7:	48 c7 45 88 00 00 00 	movq   $0x0,-0x78(%rbp)
    d2fe:	00 
    d2ff:	48 c7 45 90 00 00 00 	movq   $0x0,-0x70(%rbp)
    d306:	00 
    d307:	48 c7 45 98 00 00 00 	movq   $0x0,-0x68(%rbp)
    d30e:	00 
    d30f:	48 8d 85 00 fd ff ff 	lea    -0x300(%rbp),%rax
    d316:	48 89 45 a0          	mov    %rax,-0x60(%rbp)
    d31a:	48 c7 45 a8 00 00 00 	movq   $0x0,-0x58(%rbp)
    d321:	00 
    d322:	48 8d 85 00 fd ff ff 	lea    -0x300(%rbp),%rax
    d329:	48 89 45 b0          	mov    %rax,-0x50(%rbp)
    d32d:	48 c7 45 b8 00 00 00 	movq   $0x0,-0x48(%rbp)
    d334:	00 
    d335:	48 8d 85 00 fd ff ff 	lea    -0x300(%rbp),%rax
    d33c:	48 89 45 c0          	mov    %rax,-0x40(%rbp)
    d340:	48 8d 85 00 fd ff ff 	lea    -0x300(%rbp),%rax
    d347:	48 89 45 c8          	mov    %rax,-0x38(%rbp)
    d34b:	48 8d 85 00 fd ff ff 	lea    -0x300(%rbp),%rax
    d352:	48 89 45 d0          	mov    %rax,-0x30(%rbp)
    d356:	48 c7 45 d8 00 00 00 	movq   $0x0,-0x28(%rbp)
    d35d:	00 
    d35e:	c7 85 fc fc ff ff fc 	movl   $0xfffffffc,-0x304(%rbp)
    d365:	ff ff ff 
    d368:	c6 85 eb fc ff ff 01 	movb   $0x1,-0x315(%rbp)
    d36f:	48 c7 85 20 fd ff ff 	movq   $0x0,-0x2e0(%rbp)
    d376:	00 00 00 00 
    d37a:	48 8d 05 f7 14 01 00 	lea    0x114f7(%rip),%rax        # 1e878 <g_54+0x358>
    d381:	48 89 85 28 fd ff ff 	mov    %rax,-0x2d8(%rbp)
    d388:	c7 85 ec fc ff ff 00 	movl   $0x0,-0x314(%rbp)
    d38f:	00 00 00 
    d392:	eb 14                	jmp    d3a8 <func_38+0x535>
    d394:	8b 85 ec fc ff ff    	mov    -0x314(%rbp),%eax
    d39a:	48 98                	cltq   
    d39c:	c6 44 05 e7 ff       	movb   $0xff,-0x19(%rbp,%rax,1)
    d3a1:	83 85 ec fc ff ff 01 	addl   $0x1,-0x314(%rbp)
    d3a8:	83 bd ec fc ff ff 00 	cmpl   $0x0,-0x314(%rbp)
    d3af:	7e e3                	jle    d394 <func_38+0x521>
    d3b1:	66 0f be 9d e9 fc ff 	movsbw -0x317(%rbp),%bx
    d3b8:	ff 
    d3b9:	0f be 85 e9 fc ff ff 	movsbl -0x317(%rbp),%eax
    d3c0:	89 85 f0 fc ff ff    	mov    %eax,-0x310(%rbp)
    d3c6:	83 bd f0 fc ff ff 00 	cmpl   $0x0,-0x310(%rbp)
    d3cd:	74 11                	je     d3e0 <func_38+0x56d>
    d3cf:	48 83 bd 08 fd ff ff 	cmpq   $0x0,-0x2f8(%rbp)
    d3d6:	00 
    d3d7:	74 07                	je     d3e0 <func_38+0x56d>
    d3d9:	b8 01 00 00 00       	mov    $0x1,%eax
    d3de:	eb 05                	jmp    d3e5 <func_38+0x572>
    d3e0:	b8 00 00 00 00       	mov    $0x0,%eax
    d3e5:	98                   	cwtl   
    d3e6:	be ff ff ff ff       	mov    $0xffffffff,%esi
    d3eb:	89 c7                	mov    %eax,%edi
    d3ed:	e8 63 c0 ff ff       	callq  9455 <safe_div_func_int16_t_s_s>
    d3f2:	66 39 c3             	cmp    %ax,%bx
    d3f5:	0f 9d c0             	setge  %al
    d3f8:	0f b6 c8             	movzbl %al,%ecx
    d3fb:	48 8b 05 fe 1f 01 00 	mov    0x11ffe(%rip),%rax        # 1f400 <g_1953>
    d402:	8b 10                	mov    (%rax),%edx
    d404:	48 8b 05 f5 1f 01 00 	mov    0x11ff5(%rip),%rax        # 1f400 <g_1953>
    d40b:	31 ca                	xor    %ecx,%edx
    d40d:	89 10                	mov    %edx,(%rax)
    d40f:	48 8b 85 d8 fc ff ff 	mov    -0x328(%rbp),%rax
    d416:	48 8b 75 e8          	mov    -0x18(%rbp),%rsi
    d41a:	64 48 33 34 25 28 00 	xor    %fs:0x28,%rsi
    d421:	00 00 
    d423:	74 05                	je     d42a <func_38+0x5b7>
    d425:	e8 46 bc ff ff       	callq  9070 <__stack_chk_fail@plt>
    d42a:	48 81 c4 28 03 00 00 	add    $0x328,%rsp
    d431:	5b                   	pop    %rbx
    d432:	5d                   	pop    %rbp
    d433:	c3                   	retq   

000000000000d434 <func_40>:
    d434:	f3 0f 1e fa          	endbr64 
    d438:	55                   	push   %rbp
    d439:	48 89 e5             	mov    %rsp,%rbp
    d43c:	48 81 ec 90 07 00 00 	sub    $0x790,%rsp
    d443:	48 89 bd 78 f8 ff ff 	mov    %rdi,-0x788(%rbp)
    d44a:	89 f0                	mov    %esi,%eax
    d44c:	89 95 70 f8 ff ff    	mov    %edx,-0x790(%rbp)
    d452:	66 89 85 74 f8 ff ff 	mov    %ax,-0x78c(%rbp)
    d459:	64 48 8b 04 25 28 00 	mov    %fs:0x28,%rax
    d460:	00 00 
    d462:	48 89 45 f8          	mov    %rax,-0x8(%rbp)
    d466:	31 c0                	xor    %eax,%eax
    d468:	48 8d 05 89 1f 01 00 	lea    0x11f89(%rip),%rax        # 1f3f8 <g_1890>
    d46f:	48 89 85 e0 f8 ff ff 	mov    %rax,-0x720(%rbp)
    d476:	c7 85 94 f8 ff ff 00 	movl   $0x0,-0x76c(%rbp)
    d47d:	00 00 00 
    d480:	48 8d 05 69 1c 01 00 	lea    0x11c69(%rip),%rax        # 1f0f0 <g_889+0x90>
    d487:	48 89 85 e8 f8 ff ff 	mov    %rax,-0x718(%rbp)
    d48e:	c7 85 98 f8 ff ff 00 	movl   $0x0,-0x768(%rbp)
    d495:	00 00 00 
    d498:	48 8d 05 a1 2c 01 00 	lea    0x12ca1(%rip),%rax        # 20140 <g_1408>
    d49f:	48 89 85 f0 f8 ff ff 	mov    %rax,-0x710(%rbp)
    d4a6:	c7 85 8c f8 ff ff f6 	movl   $0xfffffff6,-0x774(%rbp)
    d4ad:	ff ff ff 
    d4b0:	48 8d 85 8c f8 ff ff 	lea    -0x774(%rbp),%rax
    d4b7:	48 89 85 f8 f8 ff ff 	mov    %rax,-0x708(%rbp)
    d4be:	48 8d 05 5f cb 00 00 	lea    0xcb5f(%rip),%rax        # 1a024 <g_3>
    d4c5:	48 89 85 00 f9 ff ff 	mov    %rax,-0x700(%rbp)
    d4cc:	c7 85 9c f8 ff ff f6 	movl   $0x5bcaedf6,-0x764(%rbp)
    d4d3:	ed ca 5b 
    d4d6:	48 c7 85 08 f9 ff ff 	movq   $0x0,-0x6f8(%rbp)
    d4dd:	00 00 00 00 
    d4e1:	c7 85 90 f9 ff ff 5e 	movl   $0xfb9f465e,-0x670(%rbp)
    d4e8:	46 9f fb 
    d4eb:	c7 85 94 f9 ff ff 5e 	movl   $0xfb9f465e,-0x66c(%rbp)
    d4f2:	46 9f fb 
    d4f5:	c7 85 98 f9 ff ff 5e 	movl   $0xfb9f465e,-0x668(%rbp)
    d4fc:	46 9f fb 
    d4ff:	c7 85 9c f9 ff ff 5e 	movl   $0xfb9f465e,-0x664(%rbp)
    d506:	46 9f fb 
    d509:	c7 85 a0 f9 ff ff 5e 	movl   $0xfb9f465e,-0x660(%rbp)
    d510:	46 9f fb 
    d513:	c7 85 a4 f9 ff ff 5e 	movl   $0xfb9f465e,-0x65c(%rbp)
    d51a:	46 9f fb 
    d51d:	c7 85 a8 f9 ff ff 5e 	movl   $0xfb9f465e,-0x658(%rbp)
    d524:	46 9f fb 
    d527:	c7 85 ac f9 ff ff 5e 	movl   $0xfb9f465e,-0x654(%rbp)
    d52e:	46 9f fb 
    d531:	66 c7 85 84 f8 ff ff 	movw   $0x49fa,-0x77c(%rbp)
    d538:	fa 49 
    d53a:	48 8d 05 83 ce 00 00 	lea    0xce83(%rip),%rax        # 1a3c4 <g_1021+0x4>
    d541:	48 89 85 c0 f8 ff ff 	mov    %rax,-0x740(%rbp)
    d548:	48 8d 85 c0 f8 ff ff 	lea    -0x740(%rbp),%rax
    d54f:	48 89 85 10 f9 ff ff 	mov    %rax,-0x6f0(%rbp)
    d556:	48 8d 05 73 1c 01 00 	lea    0x11c73(%rip),%rax        # 1f1d0 <g_1022>
    d55d:	48 89 85 c8 f8 ff ff 	mov    %rax,-0x738(%rbp)
    d564:	48 8d 85 c8 f8 ff ff 	lea    -0x738(%rbp),%rax
    d56b:	48 89 85 50 fa ff ff 	mov    %rax,-0x5b0(%rbp)
    d572:	48 8d 85 c8 f8 ff ff 	lea    -0x738(%rbp),%rax
    d579:	48 89 85 58 fa ff ff 	mov    %rax,-0x5a8(%rbp)
    d580:	48 8d 85 c8 f8 ff ff 	lea    -0x738(%rbp),%rax
    d587:	48 89 85 60 fa ff ff 	mov    %rax,-0x5a0(%rbp)
    d58e:	48 8d 85 c8 f8 ff ff 	lea    -0x738(%rbp),%rax
    d595:	48 89 85 68 fa ff ff 	mov    %rax,-0x598(%rbp)
    d59c:	48 8d 85 c8 f8 ff ff 	lea    -0x738(%rbp),%rax
    d5a3:	48 89 85 70 fa ff ff 	mov    %rax,-0x590(%rbp)
    d5aa:	48 8d 85 c8 f8 ff ff 	lea    -0x738(%rbp),%rax
    d5b1:	48 89 85 78 fa ff ff 	mov    %rax,-0x588(%rbp)
    d5b8:	48 8d 85 c8 f8 ff ff 	lea    -0x738(%rbp),%rax
    d5bf:	48 89 85 80 fa ff ff 	mov    %rax,-0x580(%rbp)
    d5c6:	48 8d 85 c8 f8 ff ff 	lea    -0x738(%rbp),%rax
    d5cd:	48 89 85 88 fa ff ff 	mov    %rax,-0x578(%rbp)
    d5d4:	48 8d 85 c8 f8 ff ff 	lea    -0x738(%rbp),%rax
    d5db:	48 89 85 90 fa ff ff 	mov    %rax,-0x570(%rbp)
    d5e2:	c7 85 a0 f8 ff ff 07 	movl   $0x7,-0x760(%rbp)
    d5e9:	00 00 00 
    d5ec:	66 c7 85 86 f8 ff ff 	movw   $0xbfc9,-0x77a(%rbp)
    d5f3:	c9 bf 
    d5f5:	48 8d 05 2c 2b 01 00 	lea    0x12b2c(%rip),%rax        # 20128 <g_803>
    d5fc:	48 89 85 18 f9 ff ff 	mov    %rax,-0x6e8(%rbp)
    d603:	c7 85 a4 f8 ff ff ac 	movl   $0xa1975ac,-0x75c(%rbp)
    d60a:	75 19 0a 
    d60d:	66 c7 85 88 f8 ff ff 	movw   $0x34aa,-0x778(%rbp)
    d614:	aa 34 
    d616:	48 8d 85 90 f9 ff ff 	lea    -0x670(%rbp),%rax
    d61d:	48 83 c0 08          	add    $0x8,%rax
    d621:	48 89 85 20 f9 ff ff 	mov    %rax,-0x6e0(%rbp)
    d628:	c7 85 e0 f9 ff ff fe 	movl   $0xfffffffe,-0x620(%rbp)
    d62f:	ff ff ff 
    d632:	c7 85 e4 f9 ff ff 5f 	movl   $0x5c6a8b5f,-0x61c(%rbp)
    d639:	8b 6a 5c 
    d63c:	c7 85 e8 f9 ff ff fe 	movl   $0xfffffffe,-0x618(%rbp)
    d643:	ff ff ff 
    d646:	c7 85 ec f9 ff ff 5f 	movl   $0x5c6a8b5f,-0x614(%rbp)
    d64d:	8b 6a 5c 
    d650:	c7 85 f0 f9 ff ff fe 	movl   $0xfffffffe,-0x610(%rbp)
    d657:	ff ff ff 
    d65a:	c7 85 f4 f9 ff ff 5f 	movl   $0x5c6a8b5f,-0x60c(%rbp)
    d661:	8b 6a 5c 
    d664:	c7 85 f8 f9 ff ff fe 	movl   $0xfffffffe,-0x608(%rbp)
    d66b:	ff ff ff 
    d66e:	c7 85 fc f9 ff ff 5f 	movl   $0x5c6a8b5f,-0x604(%rbp)
    d675:	8b 6a 5c 
    d678:	c7 85 00 fa ff ff fe 	movl   $0xfffffffe,-0x600(%rbp)
    d67f:	ff ff ff 
    d682:	c7 85 04 fa ff ff 5f 	movl   $0x5c6a8b5f,-0x5fc(%rbp)
    d689:	8b 6a 5c 
    d68c:	48 8d 85 90 f9 ff ff 	lea    -0x670(%rbp),%rax
    d693:	48 83 c0 08          	add    $0x8,%rax
    d697:	48 89 85 28 f9 ff ff 	mov    %rax,-0x6d8(%rbp)
    d69e:	c6 85 83 f8 ff ff 09 	movb   $0x9,-0x77d(%rbp)
    d6a5:	48 8d 85 b0 f9 ff ff 	lea    -0x650(%rbp),%rax
    d6ac:	48 83 c0 10          	add    $0x10,%rax
    d6b0:	48 89 85 30 f9 ff ff 	mov    %rax,-0x6d0(%rbp)
    d6b7:	c7 85 90 f8 ff ff 00 	movl   $0x0,-0x770(%rbp)
    d6be:	00 00 00 
    d6c1:	eb 1b                	jmp    d6de <func_40+0x2aa>
    d6c3:	8b 85 90 f8 ff ff    	mov    -0x770(%rbp),%eax
    d6c9:	48 98                	cltq   
    d6cb:	48 c7 84 c5 b0 f9 ff 	movq   $0x0,-0x650(%rbp,%rax,8)
    d6d2:	ff 00 00 00 00 
    d6d7:	83 85 90 f8 ff ff 01 	addl   $0x1,-0x770(%rbp)
    d6de:	83 bd 90 f8 ff ff 04 	cmpl   $0x4,-0x770(%rbp)
    d6e5:	7e dc                	jle    d6c3 <func_40+0x28f>
    d6e7:	66 c7 05 a2 c9 00 00 	movw   $0x0,0xc9a2(%rip)        # 1a092 <g_115>
    d6ee:	00 00 
    d6f0:	e9 fe 01 00 00       	jmpq   d8f3 <func_40+0x4bf>
    d6f5:	48 c7 85 10 fa ff ff 	movq   $0x0,-0x5f0(%rbp)
    d6fc:	00 00 00 00 
    d700:	48 8d 05 9b cb 00 00 	lea    0xcb9b(%rip),%rax        # 1a2a2 <g_727+0x2>
    d707:	48 89 85 18 fa ff ff 	mov    %rax,-0x5e8(%rbp)
    d70e:	48 c7 85 20 fa ff ff 	movq   $0x0,-0x5e0(%rbp)
    d715:	00 00 00 00 
    d719:	48 c7 85 28 fa ff ff 	movq   $0x0,-0x5d8(%rbp)
    d720:	00 00 00 00 
    d724:	48 8d 05 77 cb 00 00 	lea    0xcb77(%rip),%rax        # 1a2a2 <g_727+0x2>
    d72b:	48 89 85 30 fa ff ff 	mov    %rax,-0x5d0(%rbp)
    d732:	48 c7 85 38 fa ff ff 	movq   $0x0,-0x5c8(%rbp)
    d739:	00 00 00 00 
    d73d:	48 c7 85 40 fa ff ff 	movq   $0x0,-0x5c0(%rbp)
    d744:	00 00 00 00 
    d748:	48 8d 85 10 fa ff ff 	lea    -0x5f0(%rbp),%rax
    d74f:	48 83 c0 28          	add    $0x28,%rax
    d753:	48 89 85 38 f9 ff ff 	mov    %rax,-0x6c8(%rbp)
    d75a:	c7 85 a8 f8 ff ff f8 	movl   $0xfffffff8,-0x758(%rbp)
    d761:	ff ff ff 
    d764:	48 8d 05 59 cc 00 00 	lea    0xcc59(%rip),%rax        # 1a3c4 <g_1021+0x4>
    d76b:	48 89 85 40 f9 ff ff 	mov    %rax,-0x6c0(%rbp)
    d772:	48 8d 85 e0 fb ff ff 	lea    -0x420(%rbp),%rax
    d779:	48 8d 15 00 f9 00 00 	lea    0xf900(%rip),%rdx        # 1d080 <g_3381+0x800>
    d780:	b9 3c 00 00 00       	mov    $0x3c,%ecx
    d785:	48 89 c7             	mov    %rax,%rdi
    d788:	48 89 d6             	mov    %rdx,%rsi
    d78b:	f3 48 a5             	rep movsq %ds:(%rsi),%es:(%rdi)
    d78e:	c7 85 ac f8 ff ff 3c 	movl   $0x6024b3c,-0x754(%rbp)
    d795:	4b 02 06 
    d798:	48 8d 05 01 db 00 00 	lea    0xdb01(%rip),%rax        # 1b2a0 <g_1783>
    d79f:	48 89 85 48 f9 ff ff 	mov    %rax,-0x6b8(%rbp)
    d7a6:	48 8d 85 a0 fa ff ff 	lea    -0x560(%rbp),%rax
    d7ad:	48 8d 15 ac fa 00 00 	lea    0xfaac(%rip),%rdx        # 1d260 <g_3381+0x9e0>
    d7b4:	b9 28 00 00 00       	mov    $0x28,%ecx
    d7b9:	48 89 c7             	mov    %rax,%rdi
    d7bc:	48 89 d6             	mov    %rdx,%rsi
    d7bf:	f3 48 a5             	rep movsq %ds:(%rsi),%es:(%rdi)
    d7c2:	c7 85 b0 f8 ff ff 00 	movl   $0x0,-0x750(%rbp)
    d7c9:	00 00 00 
    d7cc:	48 8d 85 c0 fd ff ff 	lea    -0x240(%rbp),%rax
    d7d3:	48 8d 15 a6 7f 00 00 	lea    0x7fa6(%rip),%rdx        # 15780 <g_2569+0x700>
    d7da:	b9 46 00 00 00       	mov    $0x46,%ecx
    d7df:	48 89 c7             	mov    %rax,%rdi
    d7e2:	48 89 d6             	mov    %rdx,%rsi
    d7e5:	f3 48 a5             	rep movsq %ds:(%rsi),%es:(%rdi)
    d7e8:	c7 85 b4 f8 ff ff ff 	movl   $0xffffffff,-0x74c(%rbp)
    d7ef:	ff ff ff 
    d7f2:	48 8d 05 2f 29 01 00 	lea    0x1292f(%rip),%rax        # 20128 <g_803>
    d7f9:	48 89 85 50 f9 ff ff 	mov    %rax,-0x6b0(%rbp)
    d800:	c7 85 b8 f8 ff ff a4 	movl   $0x6442b0a4,-0x748(%rbp)
    d807:	b0 42 64 
    d80a:	48 8d 05 07 19 01 00 	lea    0x11907(%rip),%rax        # 1f118 <g_889+0xb8>
    d811:	48 89 85 d0 f8 ff ff 	mov    %rax,-0x730(%rbp)
    d818:	48 8d 85 d0 f8 ff ff 	lea    -0x730(%rbp),%rax
    d81f:	48 89 85 d8 f8 ff ff 	mov    %rax,-0x728(%rbp)
    d826:	48 8d 85 d8 f8 ff ff 	lea    -0x728(%rbp),%rax
    d82d:	48 89 85 58 f9 ff ff 	mov    %rax,-0x6a8(%rbp)
    d834:	48 8d 85 10 fa ff ff 	lea    -0x5f0(%rbp),%rax
    d83b:	48 89 85 60 f9 ff ff 	mov    %rax,-0x6a0(%rbp)
    d842:	66 c7 85 8a f8 ff ff 	movw   $0x5,-0x776(%rbp)
    d849:	05 00 
    d84b:	48 8d 05 66 1b 01 00 	lea    0x11b66(%rip),%rax        # 1f3b8 <g_1163+0x18>
    d852:	48 89 85 68 f9 ff ff 	mov    %rax,-0x698(%rbp)
    d859:	48 8d 05 20 cb 00 00 	lea    0xcb20(%rip),%rax        # 1a380 <g_1017>
    d860:	48 89 85 70 f9 ff ff 	mov    %rax,-0x690(%rbp)
    d867:	c7 85 bc f8 ff ff 34 	movl   $0x44667734,-0x744(%rbp)
    d86e:	77 66 44 
    d871:	48 8d 85 c0 fd ff ff 	lea    -0x240(%rbp),%rax
    d878:	48 83 c0 78          	add    $0x78,%rax
    d87c:	48 89 85 78 f9 ff ff 	mov    %rax,-0x688(%rbp)
    d883:	48 8d 85 10 fa ff ff 	lea    -0x5f0(%rbp),%rax
    d88a:	48 83 c0 18          	add    $0x18,%rax
    d88e:	48 89 85 80 f9 ff ff 	mov    %rax,-0x680(%rbp)
    d895:	48 8d 05 34 29 01 00 	lea    0x12934(%rip),%rax        # 201d0 <g_2416>
    d89c:	48 89 85 88 f9 ff ff 	mov    %rax,-0x678(%rbp)
    d8a3:	48 8b 95 38 fa ff ff 	mov    -0x5c8(%rbp),%rdx
    d8aa:	48 8b 85 38 f9 ff ff 	mov    -0x6c8(%rbp),%rax
    d8b1:	48 89 10             	mov    %rdx,(%rax)
    d8b4:	48 8b 85 38 f9 ff ff 	mov    -0x6c8(%rbp),%rax
    d8bb:	48 8b 10             	mov    (%rax),%rdx
    d8be:	48 8b 05 7b c3 00 00 	mov    0xc37b(%rip),%rax        # 19c40 <l_1902.4659+0x40>
    d8c5:	48 39 c2             	cmp    %rax,%rdx
    d8c8:	0f 95 c0             	setne  %al
    d8cb:	0f b6 c8             	movzbl %al,%ecx
    d8ce:	48 8b 05 73 17 01 00 	mov    0x11773(%rip),%rax        # 1f048 <g_385>
    d8d5:	8b 10                	mov    (%rax),%edx
    d8d7:	48 8b 05 6a 17 01 00 	mov    0x1176a(%rip),%rax        # 1f048 <g_385>
    d8de:	21 ca                	and    %ecx,%edx
    d8e0:	89 10                	mov    %edx,(%rax)
    d8e2:	0f b7 05 a9 c7 00 00 	movzwl 0xc7a9(%rip),%eax        # 1a092 <g_115>
    d8e9:	83 c0 01             	add    $0x1,%eax
    d8ec:	66 89 05 9f c7 00 00 	mov    %ax,0xc79f(%rip)        # 1a092 <g_115>
    d8f3:	0f b7 05 98 c7 00 00 	movzwl 0xc798(%rip),%eax        # 1a092 <g_115>
    d8fa:	66 83 f8 2c          	cmp    $0x2c,%ax
    d8fe:	0f 86 f1 fd ff ff    	jbe    d6f5 <func_40+0x2c1>
    d904:	48 8b 05 cd 28 01 00 	mov    0x128cd(%rip),%rax        # 201d8 <g_2421>
    d90b:	48 8b 75 f8          	mov    -0x8(%rbp),%rsi
    d90f:	64 48 33 34 25 28 00 	xor    %fs:0x28,%rsi
    d916:	00 00 
    d918:	74 05                	je     d91f <func_40+0x4eb>
    d91a:	e8 51 b7 ff ff       	callq  9070 <__stack_chk_fail@plt>
    d91f:	c9                   	leaveq 
    d920:	c3                   	retq   

000000000000d921 <func_44>:
    d921:	f3 0f 1e fa          	endbr64 
    d925:	55                   	push   %rbp
    d926:	48 89 e5             	mov    %rsp,%rbp
    d929:	41 56                	push   %r14
    d92b:	41 55                	push   %r13
    d92d:	41 54                	push   %r12
    d92f:	53                   	push   %rbx
    d930:	48 81 ec f0 0c 00 00 	sub    $0xcf0,%rsp
    d937:	89 f8                	mov    %edi,%eax
    d939:	66 89 85 fc f2 ff ff 	mov    %ax,-0xd04(%rbp)
    d940:	64 48 8b 04 25 28 00 	mov    %fs:0x28,%rax
    d947:	00 00 
    d949:	48 89 45 d8          	mov    %rax,-0x28(%rbp)
    d94d:	31 c0                	xor    %eax,%eax
    d94f:	c7 85 a0 f5 ff ff e1 	movl   $0x6c49a7e1,-0xa60(%rbp)
    d956:	a7 49 6c 
    d959:	c7 85 a4 f5 ff ff e1 	movl   $0x6c49a7e1,-0xa5c(%rbp)
    d960:	a7 49 6c 
    d963:	c7 85 a8 f5 ff ff e1 	movl   $0x6c49a7e1,-0xa58(%rbp)
    d96a:	a7 49 6c 
    d96d:	c7 85 ac f5 ff ff e1 	movl   $0x6c49a7e1,-0xa54(%rbp)
    d974:	a7 49 6c 
    d977:	c7 85 b0 f5 ff ff e1 	movl   $0x6c49a7e1,-0xa50(%rbp)
    d97e:	a7 49 6c 
    d981:	c7 85 b4 f5 ff ff e1 	movl   $0x6c49a7e1,-0xa4c(%rbp)
    d988:	a7 49 6c 
    d98b:	c7 85 b8 f5 ff ff e1 	movl   $0x6c49a7e1,-0xa48(%rbp)
    d992:	a7 49 6c 
    d995:	c7 85 bc f5 ff ff e1 	movl   $0x6c49a7e1,-0xa44(%rbp)
    d99c:	a7 49 6c 
    d99f:	c7 85 c0 f5 ff ff e1 	movl   $0x6c49a7e1,-0xa40(%rbp)
    d9a6:	a7 49 6c 
    d9a9:	c7 85 14 f3 ff ff f7 	movl   $0xfffffff7,-0xcec(%rbp)
    d9b0:	ff ff ff 
    d9b3:	c6 85 0a f3 ff ff 3a 	movb   $0x3a,-0xcf6(%rbp)
    d9ba:	c7 85 18 f3 ff ff ff 	movl   $0xffffffff,-0xce8(%rbp)
    d9c1:	ff ff ff 
    d9c4:	c7 85 1c f3 ff ff a9 	movl   $0x2c3e49a9,-0xce4(%rbp)
    d9cb:	49 3e 2c 
    d9ce:	c7 85 20 f3 ff ff 02 	movl   $0x2,-0xce0(%rbp)
    d9d5:	00 00 00 
    d9d8:	48 8d 05 e9 17 01 00 	lea    0x117e9(%rip),%rax        # 1f1c8 <g_981>
    d9df:	48 89 85 e0 f3 ff ff 	mov    %rax,-0xc20(%rbp)
    d9e6:	48 8d 05 93 18 01 00 	lea    0x11893(%rip),%rax        # 1f280 <g_1140+0xa0>
    d9ed:	48 89 85 e8 f3 ff ff 	mov    %rax,-0xc18(%rbp)
    d9f4:	c7 85 5c f3 ff ff 00 	movl   $0x0,-0xca4(%rbp)
    d9fb:	00 00 00 
    d9fe:	c6 85 0b f3 ff ff 09 	movb   $0x9,-0xcf5(%rbp)
    da05:	48 8d 05 04 ca 00 00 	lea    0xca04(%rip),%rax        # 1a410 <g_1023+0x10>
    da0c:	48 89 85 f0 f3 ff ff 	mov    %rax,-0xc10(%rbp)
    da13:	c7 85 60 f3 ff ff fb 	movl   $0xfffffffb,-0xca0(%rbp)
    da1a:	ff ff ff 
    da1d:	48 c7 85 f8 f3 ff ff 	movq   $0x0,-0xc08(%rbp)
    da24:	00 00 00 00 
    da28:	48 8d 05 95 c7 00 00 	lea    0xc795(%rip),%rax        # 1a1c4 <g_207+0x4>
    da2f:	48 89 85 00 f4 ff ff 	mov    %rax,-0xc00(%rbp)
    da36:	66 c7 85 fc f2 ff ff 	movw   $0x2,-0xd04(%rbp)
    da3d:	02 00 
    da3f:	e9 9b 12 00 00       	jmpq   ecdf <func_44+0x13be>
    da44:	48 8d 05 2d 17 01 00 	lea    0x1172d(%rip),%rax        # 1f178 <g_915>
    da4b:	48 89 85 08 f4 ff ff 	mov    %rax,-0xbf8(%rbp)
    da52:	48 c7 85 10 f4 ff ff 	movq   $0xfffffffffffffffc,-0xbf0(%rbp)
    da59:	fc ff ff ff 
    da5d:	48 8d 85 00 f8 ff ff 	lea    -0x800(%rbp),%rax
    da64:	48 8d 15 35 f9 00 00 	lea    0xf935(%rip),%rdx        # 1d3a0 <g_3381+0xb20>
    da6b:	b9 fa 00 00 00       	mov    $0xfa,%ecx
    da70:	48 89 c7             	mov    %rax,%rdi
    da73:	48 89 d6             	mov    %rdx,%rsi
    da76:	f3 48 a5             	rep movsq %ds:(%rsi),%es:(%rdi)
    da79:	48 c7 85 18 f4 ff ff 	movq   $0xfffffffffffffffa,-0xbe8(%rbp)
    da80:	fa ff ff ff 
    da84:	c7 85 64 f3 ff ff ad 	movl   $0x76cf95ad,-0xc9c(%rbp)
    da8b:	95 cf 76 
    da8e:	c7 85 68 f3 ff ff 88 	movl   $0x2f215d88,-0xc98(%rbp)
    da95:	5d 21 2f 
    da98:	c7 85 6c f3 ff ff 00 	movl   $0x0,-0xc94(%rbp)
    da9f:	00 00 00 
    daa2:	c7 85 70 f3 ff ff 56 	movl   $0x14930356,-0xc90(%rbp)
    daa9:	03 93 14 
    daac:	c7 85 74 f3 ff ff 09 	movl   $0x9,-0xc8c(%rbp)
    dab3:	00 00 00 
    dab6:	c7 85 78 f3 ff ff 08 	movl   $0x8,-0xc88(%rbp)
    dabd:	00 00 00 
    dac0:	c7 85 00 f6 ff ff 51 	movl   $0x5e9a7a51,-0xa00(%rbp)
    dac7:	7a 9a 5e 
    daca:	c7 85 04 f6 ff ff 00 	movl   $0x0,-0x9fc(%rbp)
    dad1:	00 00 00 
    dad4:	c7 85 08 f6 ff ff 51 	movl   $0x5e9a7a51,-0x9f8(%rbp)
    dadb:	7a 9a 5e 
    dade:	c7 85 0c f6 ff ff 51 	movl   $0x5e9a7a51,-0x9f4(%rbp)
    dae5:	7a 9a 5e 
    dae8:	c7 85 10 f6 ff ff 00 	movl   $0x0,-0x9f0(%rbp)
    daef:	00 00 00 
    daf2:	c7 85 14 f6 ff ff 51 	movl   $0x5e9a7a51,-0x9ec(%rbp)
    daf9:	7a 9a 5e 
    dafc:	c7 85 18 f6 ff ff 51 	movl   $0x5e9a7a51,-0x9e8(%rbp)
    db03:	7a 9a 5e 
    db06:	c7 85 1c f6 ff ff 00 	movl   $0x0,-0x9e4(%rbp)
    db0d:	00 00 00 
    db10:	c7 85 20 f6 ff ff 51 	movl   $0x5e9a7a51,-0x9e0(%rbp)
    db17:	7a 9a 5e 
    db1a:	c7 85 24 f6 ff ff b2 	movl   $0x341210b2,-0x9dc(%rbp)
    db21:	10 12 34 
    db24:	c7 85 28 f6 ff ff b0 	movl   $0x515e24b0,-0x9d8(%rbp)
    db2b:	24 5e 51 
    db2e:	c7 85 2c f6 ff ff b2 	movl   $0x341210b2,-0x9d4(%rbp)
    db35:	10 12 34 
    db38:	c7 85 30 f6 ff ff b2 	movl   $0x341210b2,-0x9d0(%rbp)
    db3f:	10 12 34 
    db42:	c7 85 34 f6 ff ff b0 	movl   $0x515e24b0,-0x9cc(%rbp)
    db49:	24 5e 51 
    db4c:	c7 85 38 f6 ff ff b2 	movl   $0x341210b2,-0x9c8(%rbp)
    db53:	10 12 34 
    db56:	c7 85 3c f6 ff ff b2 	movl   $0x341210b2,-0x9c4(%rbp)
    db5d:	10 12 34 
    db60:	c7 85 40 f6 ff ff b0 	movl   $0x515e24b0,-0x9c0(%rbp)
    db67:	24 5e 51 
    db6a:	c7 85 44 f6 ff ff b2 	movl   $0x341210b2,-0x9bc(%rbp)
    db71:	10 12 34 
    db74:	c7 85 40 f3 ff ff 00 	movl   $0x0,-0xcc0(%rbp)
    db7b:	00 00 00 
    db7e:	eb 1b                	jmp    db9b <func_44+0x27a>
    db80:	8b 85 40 f3 ff ff    	mov    -0xcc0(%rbp),%eax
    db86:	48 98                	cltq   
    db88:	48 c7 84 c5 40 f5 ff 	movq   $0x0,-0xac0(%rbp,%rax,8)
    db8f:	ff 00 00 00 00 
    db94:	83 85 40 f3 ff ff 01 	addl   $0x1,-0xcc0(%rbp)
    db9b:	83 bd 40 f3 ff ff 02 	cmpl   $0x2,-0xcc0(%rbp)
    dba2:	7e dc                	jle    db80 <func_44+0x25f>
    dba4:	48 8b 05 25 14 01 00 	mov    0x11425(%rip),%rax        # 1efd0 <g_138>
    dbab:	8b 18                	mov    (%rax),%ebx
    dbad:	0f b7 05 d0 c7 00 00 	movzwl 0xc7d0(%rip),%eax        # 1a384 <g_1017+0x4>
    dbb4:	0f b7 c0             	movzwl %ax,%eax
    dbb7:	89 c6                	mov    %eax,%esi
    dbb9:	bf 00 00 00 00       	mov    $0x0,%edi
    dbbe:	e8 43 c2 ff ff       	callq  9e06 <safe_lshift_func_uint16_t_u_u>
    dbc3:	0f be c0             	movsbl %al,%eax
    dbc6:	be 08 00 00 00       	mov    $0x8,%esi
    dbcb:	89 c7                	mov    %eax,%edi
    dbcd:	e8 40 b6 ff ff       	callq  9212 <safe_mul_func_int8_t_s_s>
    dbd2:	0f be c0             	movsbl %al,%eax
    dbd5:	be ac ff ff ff       	mov    $0xffffffac,%esi
    dbda:	89 c7                	mov    %eax,%edi
    dbdc:	e8 31 b6 ff ff       	callq  9212 <safe_mul_func_int8_t_s_s>
    dbe1:	0f be d0             	movsbl %al,%edx
    dbe4:	0f b6 05 63 c4 00 00 	movzbl 0xc463(%rip),%eax        # 1a04e <g_66+0xe>
    dbeb:	0f b6 c0             	movzbl %al,%eax
    dbee:	39 c2                	cmp    %eax,%edx
    dbf0:	0f 9c c0             	setl   %al
    dbf3:	0f b6 c0             	movzbl %al,%eax
    dbf6:	8b 95 b4 f5 ff ff    	mov    -0xa4c(%rbp),%edx
    dbfc:	21 d0                	and    %edx,%eax
    dbfe:	98                   	cwtl   
    dbff:	be fe ff ff ff       	mov    $0xfffffffe,%esi
    dc04:	89 c7                	mov    %eax,%edi
    dc06:	e8 ea b7 ff ff       	callq  93f5 <safe_mul_func_int16_t_s_s>
    dc0b:	98                   	cwtl   
    dc0c:	31 d8                	xor    %ebx,%eax
    dc0e:	83 f8 2f             	cmp    $0x2f,%eax
    dc11:	0f 9f c0             	setg   %al
    dc14:	0f b6 c0             	movzbl %al,%eax
    dc17:	48 89 85 10 f4 ff ff 	mov    %rax,-0xbf0(%rbp)
    dc1e:	48 8b 85 10 f4 ff ff 	mov    -0xbf0(%rbp),%rax
    dc25:	41 89 c4             	mov    %eax,%r12d
    dc28:	0f b7 85 fc f2 ff ff 	movzwl -0xd04(%rbp),%eax
    dc2f:	0f bf d8             	movswl %ax,%ebx
    dc32:	0f b7 85 fc f2 ff ff 	movzwl -0xd04(%rbp),%eax
    dc39:	0f b7 c0             	movzwl %ax,%eax
    dc3c:	48 98                	cltq   
    dc3e:	8b 84 85 a0 f5 ff ff 	mov    -0xa60(%rbp,%rax,4),%eax
    dc45:	89 c7                	mov    %eax,%edi
    dc47:	e8 fa 16 00 00       	callq  f346 <func_51>
    dc4c:	98                   	cwtl   
    dc4d:	89 de                	mov    %ebx,%esi
    dc4f:	89 c7                	mov    %eax,%edi
    dc51:	e8 9f b7 ff ff       	callq  93f5 <safe_mul_func_int16_t_s_s>
    dc56:	0f be c0             	movsbl %al,%eax
    dc59:	44 89 e6             	mov    %r12d,%esi
    dc5c:	89 c7                	mov    %eax,%edi
    dc5e:	e8 09 b7 ff ff       	callq  936c <safe_rshift_func_int8_t_s_u>
    dc63:	48 0f be d0          	movsbq %al,%rdx
    dc67:	48 8b 05 02 c4 00 00 	mov    0xc402(%rip),%rax        # 1a070 <g_111>
    dc6e:	48 39 c2             	cmp    %rax,%rdx
    dc71:	0f 84 45 04 00 00    	je     e0bc <func_44+0x79b>
    dc77:	c6 85 0c f3 ff ff f6 	movb   $0xf6,-0xcf4(%rbp)
    dc7e:	48 8d 05 fb 15 01 00 	lea    0x115fb(%rip),%rax        # 1f280 <g_1140+0xa0>
    dc85:	48 89 85 d0 f3 ff ff 	mov    %rax,-0xc30(%rbp)
    dc8c:	48 8d 85 d0 f3 ff ff 	lea    -0xc30(%rbp),%rax
    dc93:	48 89 85 d8 f3 ff ff 	mov    %rax,-0xc28(%rbp)
    dc9a:	48 8d 85 d8 f3 ff ff 	lea    -0xc28(%rbp),%rax
    dca1:	48 89 85 28 f4 ff ff 	mov    %rax,-0xbd8(%rbp)
    dca8:	48 8d 05 a1 c6 00 00 	lea    0xc6a1(%rip),%rax        # 1a350 <g_999+0x10>
    dcaf:	48 89 85 30 f4 ff ff 	mov    %rax,-0xbd0(%rbp)
    dcb6:	48 8d 05 03 17 01 00 	lea    0x11703(%rip),%rax        # 1f3c0 <g_1300>
    dcbd:	48 89 85 38 f4 ff ff 	mov    %rax,-0xbc8(%rbp)
    dcc4:	48 c7 85 40 f4 ff ff 	movq   $0x0,-0xbc0(%rbp)
    dccb:	00 00 00 00 
    dccf:	48 8d 05 cc c5 00 00 	lea    0xc5cc(%rip),%rax        # 1a2a2 <g_727+0x2>
    dcd6:	48 89 85 48 f4 ff ff 	mov    %rax,-0xbb8(%rbp)
    dcdd:	48 8d 05 6c c5 00 00 	lea    0xc56c(%rip),%rax        # 1a250 <g_538+0x10>
    dce4:	48 89 85 50 f4 ff ff 	mov    %rax,-0xbb0(%rbp)
    dceb:	c7 85 50 f6 ff ff 00 	movl   $0x0,-0x9b0(%rbp)
    dcf2:	00 00 00 
    dcf5:	c7 85 54 f6 ff ff 00 	movl   $0x0,-0x9ac(%rbp)
    dcfc:	00 00 00 
    dcff:	c7 85 58 f6 ff ff 00 	movl   $0x0,-0x9a8(%rbp)
    dd06:	00 00 00 
    dd09:	c7 85 5c f6 ff ff 00 	movl   $0x0,-0x9a4(%rbp)
    dd10:	00 00 00 
    dd13:	48 8d 05 f6 c6 00 00 	lea    0xc6f6(%rip),%rax        # 1a410 <g_1023+0x10>
    dd1a:	48 89 85 58 f4 ff ff 	mov    %rax,-0xba8(%rbp)
    dd21:	48 8d 05 70 c3 00 00 	lea    0xc370(%rip),%rax        # 1a098 <g_126>
    dd28:	48 89 85 e0 f6 ff ff 	mov    %rax,-0x920(%rbp)
    dd2f:	48 8d 05 62 c3 00 00 	lea    0xc362(%rip),%rax        # 1a098 <g_126>
    dd36:	48 89 85 e8 f6 ff ff 	mov    %rax,-0x918(%rbp)
    dd3d:	48 8d 05 54 c3 00 00 	lea    0xc354(%rip),%rax        # 1a098 <g_126>
    dd44:	48 89 85 f0 f6 ff ff 	mov    %rax,-0x910(%rbp)
    dd4b:	48 8d 05 46 c3 00 00 	lea    0xc346(%rip),%rax        # 1a098 <g_126>
    dd52:	48 89 85 f8 f6 ff ff 	mov    %rax,-0x908(%rbp)
    dd59:	48 8d 05 38 c3 00 00 	lea    0xc338(%rip),%rax        # 1a098 <g_126>
    dd60:	48 89 85 00 f7 ff ff 	mov    %rax,-0x900(%rbp)
    dd67:	c7 85 7c f3 ff ff ff 	movl   $0xffffffff,-0xc84(%rbp)
    dd6e:	ff ff ff 
    dd71:	48 8d 05 9e c4 00 00 	lea    0xc49e(%rip),%rax        # 1a216 <g_506+0x6>
    dd78:	48 89 85 60 f4 ff ff 	mov    %rax,-0xba0(%rbp)
    dd7f:	80 bd 0c f3 ff ff 00 	cmpb   $0x0,-0xcf4(%rbp)
    dd86:	0f 85 66 0f 00 00    	jne    ecf2 <func_44+0x13d1>
    dd8c:	0f b7 85 fc f2 ff ff 	movzwl -0xd04(%rbp),%eax
    dd93:	0f b7 d8             	movzwl %ax,%ebx
    dd96:	0f b6 85 0c f3 ff ff 	movzbl -0xcf4(%rbp),%eax
    dd9d:	44 0f b6 e0          	movzbl %al,%r12d
    dda1:	8b 05 d9 c5 00 00    	mov    0xc5d9(%rip),%eax        # 1a380 <g_1017>
    dda7:	98                   	cwtl   
    dda8:	89 c6                	mov    %eax,%esi
    ddaa:	bf 01 00 00 00       	mov    $0x1,%edi
    ddaf:	e8 1f b6 ff ff       	callq  93d3 <safe_sub_func_int16_t_s_s>
    ddb4:	0f be d0             	movsbl %al,%edx
    ddb7:	0f b7 85 fc f2 ff ff 	movzwl -0xd04(%rbp),%eax
    ddbe:	0f be c0             	movsbl %al,%eax
    ddc1:	89 d6                	mov    %edx,%esi
    ddc3:	89 c7                	mov    %eax,%edi
    ddc5:	e8 28 b4 ff ff       	callq  91f2 <safe_sub_func_int8_t_s_s>
    ddca:	8b 05 38 c6 00 00    	mov    0xc638(%rip),%eax        # 1a408 <g_1023+0x8>
    ddd0:	25 ff ff 1f 00       	and    $0x1fffff,%eax
    ddd5:	3d f9 00 00 00       	cmp    $0xf9,%eax
    ddda:	0f 97 c0             	seta   %al
    dddd:	0f b6 c8             	movzbl %al,%ecx
    dde0:	48 8b 85 30 f4 ff ff 	mov    -0xbd0(%rbp),%rax
    dde7:	48 8b 10             	mov    (%rax),%rdx
    ddea:	48 63 c1             	movslq %ecx,%rax
    dded:	48 31 c2             	xor    %rax,%rdx
    ddf0:	48 8b 85 30 f4 ff ff 	mov    -0xbd0(%rbp),%rax
    ddf7:	48 89 10             	mov    %rdx,(%rax)
    ddfa:	8b 05 88 c5 00 00    	mov    0xc588(%rip),%eax        # 1a388 <g_1017+0x8>
    de00:	25 ff ff 1f 00       	and    $0x1fffff,%eax
    de05:	0f b7 c0             	movzwl %ax,%eax
    de08:	be 03 00 00 00       	mov    $0x3,%esi
    de0d:	89 c7                	mov    %eax,%edi
    de0f:	e8 f2 bf ff ff       	callq  9e06 <safe_lshift_func_uint16_t_u_u>
    de14:	0f b7 d0             	movzwl %ax,%edx
    de17:	48 8b 05 12 c6 00 00 	mov    0xc612(%rip),%rax        # 1a430 <g_1120>
    de1e:	48 39 c2             	cmp    %rax,%rdx
    de21:	0f 96 c0             	setbe  %al
    de24:	0f b6 d0             	movzbl %al,%edx
    de27:	8b 85 a0 f5 ff ff    	mov    -0xa60(%rbp),%eax
    de2d:	39 c2                	cmp    %eax,%edx
    de2f:	0f 9c c0             	setl   %al
    de32:	0f b6 c0             	movzbl %al,%eax
    de35:	be f8 ff ff ff       	mov    $0xfffffff8,%esi
    de3a:	89 c7                	mov    %eax,%edi
    de3c:	e8 be b8 ff ff       	callq  96ff <safe_div_func_int32_t_s_s>
    de41:	0f b7 95 fc f2 ff ff 	movzwl -0xd04(%rbp),%edx
    de48:	0f b7 d2             	movzwl %dx,%edx
    de4b:	21 c2                	and    %eax,%edx
    de4d:	0f b7 85 fc f2 ff ff 	movzwl -0xd04(%rbp),%eax
    de54:	0f b7 c0             	movzwl %ax,%eax
    de57:	39 c2                	cmp    %eax,%edx
    de59:	0f 95 c0             	setne  %al
    de5c:	0f b6 c0             	movzbl %al,%eax
    de5f:	0f b7 95 fc f2 ff ff 	movzwl -0xd04(%rbp),%edx
    de66:	09 d0                	or     %edx,%eax
    de68:	0f b7 c0             	movzwl %ax,%eax
    de6b:	be 02 00 00 00       	mov    $0x2,%esi
    de70:	89 c7                	mov    %eax,%edi
    de72:	e8 d1 bf ff ff       	callq  9e48 <safe_rshift_func_uint16_t_u_s>
    de77:	48 8b 85 30 ff ff ff 	mov    -0xd0(%rbp),%rax
    de7e:	48 39 85 40 f4 ff ff 	cmp    %rax,-0xbc0(%rbp)
    de85:	0f b7 85 fc f2 ff ff 	movzwl -0xd04(%rbp),%eax
    de8c:	66 85 c0             	test   %ax,%ax
    de8f:	0f 95 c0             	setne  %al
    de92:	0f b6 c0             	movzbl %al,%eax
    de95:	44 89 e6             	mov    %r12d,%esi
    de98:	89 c7                	mov    %eax,%edi
    de9a:	e8 bb bc ff ff       	callq  9b5a <safe_add_func_uint8_t_u_u>
    de9f:	0f b6 d0             	movzbl %al,%edx
    dea2:	48 8b 85 48 f4 ff ff 	mov    -0xbb8(%rbp),%rax
    dea9:	66 89 10             	mov    %dx,(%rax)
    deac:	0f b7 85 fc f2 ff ff 	movzwl -0xd04(%rbp),%eax
    deb3:	98                   	cwtl   
    deb4:	89 de                	mov    %ebx,%esi
    deb6:	89 c7                	mov    %eax,%edi
    deb8:	e8 24 b6 ff ff       	callq  94e1 <safe_lshift_func_int16_t_s_u>
    debd:	66 85 c0             	test   %ax,%ax
    dec0:	0f 94 c0             	sete   %al
    dec3:	0f b6 d0             	movzbl %al,%edx
    dec6:	48 8b 05 fb 14 01 00 	mov    0x114fb(%rip),%rax        # 1f3c8 <g_1407>
    decd:	48 89 05 f4 14 01 00 	mov    %rax,0x114f4(%rip)        # 1f3c8 <g_1407>
    ded4:	48 8b 05 ed 14 01 00 	mov    0x114ed(%rip),%rax        # 1f3c8 <g_1407>
    dedb:	48 39 85 28 f4 ff ff 	cmp    %rax,-0xbd8(%rbp)
    dee2:	0f 94 c0             	sete   %al
    dee5:	0f b6 c0             	movzbl %al,%eax
    dee8:	89 d6                	mov    %edx,%esi
    deea:	89 c7                	mov    %eax,%edi
    deec:	e8 15 bf ff ff       	callq  9e06 <safe_lshift_func_uint16_t_u_u>
    def1:	0f b7 c0             	movzwl %ax,%eax
    def4:	48 83 c8 fc          	or     $0xfffffffffffffffc,%rax
    def8:	48 83 f8 ff          	cmp    $0xffffffffffffffff,%rax
    defc:	0f 9d c0             	setge  %al
    deff:	0f b6 d0             	movzbl %al,%edx
    df02:	8b 85 bc f5 ff ff    	mov    -0xa44(%rbp),%eax
    df08:	39 c2                	cmp    %eax,%edx
    df0a:	0f 9e c0             	setle  %al
    df0d:	0f b6 d0             	movzbl %al,%edx
    df10:	48 8b 85 50 f4 ff ff 	mov    -0xbb0(%rbp),%rax
    df17:	48 89 10             	mov    %rdx,(%rax)
    df1a:	48 8b 85 50 f4 ff ff 	mov    -0xbb0(%rbp),%rax
    df21:	48 8b 00             	mov    (%rax),%rax
    df24:	48 85 c0             	test   %rax,%rax
    df27:	74 11                	je     df3a <func_44+0x619>
    df29:	8b 85 5c f6 ff ff    	mov    -0x9a4(%rbp),%eax
    df2f:	85 c0                	test   %eax,%eax
    df31:	74 07                	je     df3a <func_44+0x619>
    df33:	b8 01 00 00 00       	mov    $0x1,%eax
    df38:	eb 05                	jmp    df3f <func_44+0x61e>
    df3a:	b8 00 00 00 00       	mov    $0x0,%eax
    df3f:	48 63 d0             	movslq %eax,%rdx
    df42:	48 8b 85 58 f4 ff ff 	mov    -0xba8(%rbp),%rax
    df49:	48 89 10             	mov    %rdx,(%rax)
    df4c:	48 8b 85 58 f4 ff ff 	mov    -0xba8(%rbp),%rax
    df53:	48 8b 10             	mov    (%rax),%rdx
    df56:	0f b7 85 fc f2 ff ff 	movzwl -0xd04(%rbp),%eax
    df5d:	0f b7 c0             	movzwl %ax,%eax
    df60:	48 39 c2             	cmp    %rax,%rdx
    df63:	0f 93 c2             	setae  %dl
    df66:	48 8b 05 db 10 01 00 	mov    0x110db(%rip),%rax        # 1f048 <g_385>
    df6d:	0f b6 d2             	movzbl %dl,%edx
    df70:	89 10                	mov    %edx,(%rax)
    df72:	48 c7 05 d3 c0 00 00 	movq   $0x0,0xc0d3(%rip)        # 1a050 <g_66+0x10>
    df79:	00 00 00 00 
    df7d:	90                   	nop
    df7e:	48 8b 05 cb c0 00 00 	mov    0xc0cb(%rip),%rax        # 1a050 <g_66+0x10>
    df85:	48 83 f8 36          	cmp    $0x36,%rax
    df89:	76 15                	jbe    dfa0 <func_44+0x67f>
    df8b:	c7 85 80 f3 ff ff 00 	movl   $0x0,-0xc80(%rbp)
    df92:	00 00 00 
    df95:	8b 85 80 f3 ff ff    	mov    -0xc80(%rbp),%eax
    df9b:	e9 82 13 00 00       	jmpq   f322 <func_44+0x1a01>
    dfa0:	8b 85 ac f5 ff ff    	mov    -0xa54(%rbp),%eax
    dfa6:	89 05 ec c0 00 00    	mov    %eax,0xc0ec(%rip)        # 1a098 <g_126>
    dfac:	8b 05 e6 c0 00 00    	mov    0xc0e6(%rip),%eax        # 1a098 <g_126>
    dfb2:	35 8c 04 bc a0       	xor    $0xa0bc048c,%eax
    dfb7:	89 c2                	mov    %eax,%edx
    dfb9:	48 8b 85 48 f4 ff ff 	mov    -0xbb8(%rbp),%rax
    dfc0:	0f b7 00             	movzwl (%rax),%eax
    dfc3:	31 c2                	xor    %eax,%edx
    dfc5:	48 8b 85 48 f4 ff ff 	mov    -0xbb8(%rbp),%rax
    dfcc:	66 89 10             	mov    %dx,(%rax)
    dfcf:	48 8b 85 48 f4 ff ff 	mov    -0xbb8(%rbp),%rax
    dfd6:	0f b7 00             	movzwl (%rax),%eax
    dfd9:	98                   	cwtl   
    dfda:	89 85 7c f3 ff ff    	mov    %eax,-0xc84(%rbp)
    dfe0:	be 06 00 00 00       	mov    $0x6,%esi
    dfe5:	bf cb 00 00 00       	mov    $0xcb,%edi
    dfea:	e8 9e bc ff ff       	callq  9c8d <safe_rshift_func_uint8_t_u_s>
    dfef:	84 c0                	test   %al,%al
    dff1:	0f 84 99 00 00 00    	je     e090 <func_44+0x76f>
    dff7:	8b 15 17 c1 00 00    	mov    0xc117(%rip),%edx        # 1a114 <g_139+0x54>
    dffd:	48 8b 05 24 13 01 00 	mov    0x11324(%rip),%rax        # 1f328 <g_1165>
    e004:	48 8b 00             	mov    (%rax),%rax
    e007:	48 8b 08             	mov    (%rax),%rcx
    e00a:	8b 05 98 c3 00 00    	mov    0xc398(%rip),%eax        # 1a3a8 <g_1017+0x28>
    e010:	25 ff ff ff 0f       	and    $0xfffffff,%eax
    e015:	3d b5 00 00 00       	cmp    $0xb5,%eax
    e01a:	0f 94 c0             	sete   %al
    e01d:	0f b6 c0             	movzbl %al,%eax
    e020:	48 39 c1             	cmp    %rax,%rcx
    e023:	0f 96 c0             	setbe  %al
    e026:	0f b6 c0             	movzbl %al,%eax
    e029:	39 c2                	cmp    %eax,%edx
    e02b:	0f 9c c0             	setl   %al
    e02e:	0f b6 d0             	movzbl %al,%edx
    e031:	48 8b 85 60 f4 ff ff 	mov    -0xba0(%rbp),%rax
    e038:	0f b7 00             	movzwl (%rax),%eax
    e03b:	8d 70 ff             	lea    -0x1(%rax),%esi
    e03e:	48 8b 8d 60 f4 ff ff 	mov    -0xba0(%rbp),%rcx
    e045:	66 89 31             	mov    %si,(%rcx)
    e048:	0f b7 c0             	movzwl %ax,%eax
    e04b:	89 d6                	mov    %edx,%esi
    e04d:	89 c7                	mov    %eax,%edi
    e04f:	e8 e9 bc ff ff       	callq  9d3d <safe_mul_func_uint16_t_u_u>
    e054:	0f b7 d0             	movzwl %ax,%edx
    e057:	8b 85 14 f3 ff ff    	mov    -0xcec(%rbp),%eax
    e05d:	31 d0                	xor    %edx,%eax
    e05f:	89 85 14 f3 ff ff    	mov    %eax,-0xcec(%rbp)
    e065:	8b 85 14 f3 ff ff    	mov    -0xcec(%rbp),%eax
    e06b:	83 f8 03             	cmp    $0x3,%eax
    e06e:	0f be 95 0c f3 ff ff 	movsbl -0xcf4(%rbp),%edx
    e075:	8b 85 a4 f5 ff ff    	mov    -0xa5c(%rbp),%eax
    e07b:	21 d0                	and    %edx,%eax
    e07d:	48 98                	cltq   
    e07f:	83 e0 08             	and    $0x8,%eax
    e082:	48 85 c0             	test   %rax,%rax
    e085:	74 08                	je     e08f <func_44+0x76e>
    e087:	8b 85 14 f3 ff ff    	mov    -0xcec(%rbp),%eax
    e08d:	85 c0                	test   %eax,%eax
    e08f:	90                   	nop
    e090:	66 c7 05 09 c2 00 00 	movw   $0x1,0xc209(%rip)        # 1a2a2 <g_727+0x2>
    e097:	01 00 
    e099:	48 8b 85 58 f4 ff ff 	mov    -0xba8(%rbp),%rax
    e0a0:	48 bb ee 29 83 30 3e 	movabs $0x16793c3e308329ee,%rbx
    e0a7:	3c 79 16 
    e0aa:	48 89 18             	mov    %rbx,(%rax)
    e0ad:	48 8b 05 94 0f 01 00 	mov    0x10f94(%rip),%rax        # 1f048 <g_385>
    e0b4:	c7 00 4b 00 00 00    	movl   $0x4b,(%rax)
    e0ba:	eb 65                	jmp    e121 <func_44+0x800>
    e0bc:	48 b8 16 e3 a7 a0 66 	movabs $0x3a0ed866a0a7e316,%rax
    e0c3:	d8 0e 3a 
    e0c6:	48 89 85 20 f4 ff ff 	mov    %rax,-0xbe0(%rbp)
    e0cd:	0f b7 85 fc f2 ff ff 	movzwl -0xd04(%rbp),%eax
    e0d4:	66 85 c0             	test   %ax,%ax
    e0d7:	0f 85 18 0c 00 00    	jne    ecf5 <func_44+0x13d4>
    e0dd:	0f b7 85 fc f2 ff ff 	movzwl -0xd04(%rbp),%eax
    e0e4:	0f b7 c0             	movzwl %ax,%eax
    e0e7:	48 98                	cltq   
    e0e9:	8b 94 85 a0 f5 ff ff 	mov    -0xa60(%rbp,%rax,4),%edx
    e0f0:	48 8b 85 20 f4 ff ff 	mov    -0xbe0(%rbp),%rax
    e0f7:	89 c1                	mov    %eax,%ecx
    e0f9:	0f b7 85 fc f2 ff ff 	movzwl -0xd04(%rbp),%eax
    e100:	0f b7 c0             	movzwl %ax,%eax
    e103:	21 d1                	and    %edx,%ecx
    e105:	48 63 d0             	movslq %eax,%rdx
    e108:	89 8c 95 a0 f5 ff ff 	mov    %ecx,-0xa60(%rbp,%rdx,4)
    e10f:	48 8b 15 32 0f 01 00 	mov    0x10f32(%rip),%rdx        # 1f048 <g_385>
    e116:	48 98                	cltq   
    e118:	8b 84 85 a0 f5 ff ff 	mov    -0xa60(%rbp,%rax,4),%eax
    e11f:	89 02                	mov    %eax,(%rdx)
    e121:	c7 05 15 c2 00 00 00 	movl   $0x0,0xc215(%rip)        # 1a340 <g_999>
    e128:	00 00 00 
    e12b:	e9 8f 0b 00 00       	jmpq   ecbf <func_44+0x139e>
    e130:	48 c7 85 c8 f3 ff ff 	movq   $0x0,-0xc38(%rbp)
    e137:	00 00 00 00 
    e13b:	48 8d 85 c8 f3 ff ff 	lea    -0xc38(%rbp),%rax
    e142:	48 89 85 68 f4 ff ff 	mov    %rax,-0xb98(%rbp)
    e149:	48 8d 05 30 11 01 00 	lea    0x11130(%rip),%rax        # 1f280 <g_1140+0xa0>
    e150:	48 89 85 70 f4 ff ff 	mov    %rax,-0xb90(%rbp)
    e157:	c7 85 24 f3 ff ff 2e 	movl   $0xde535e2e,-0xcdc(%rbp)
    e15e:	5e 53 de 
    e161:	c7 85 28 f3 ff ff fc 	movl   $0xfffffffc,-0xcd8(%rbp)
    e168:	ff ff ff 
    e16b:	66 c7 85 10 f3 ff ff 	movw   $0x4,-0xcf0(%rbp)
    e172:	04 00 
    e174:	66 c7 85 0e f3 ff ff 	movw   $0xfffb,-0xcf2(%rbp)
    e17b:	fb ff 
    e17d:	c7 85 84 f3 ff ff 84 	movl   $0x777e9084,-0xc7c(%rbp)
    e184:	90 7e 77 
    e187:	48 8d 05 82 c1 00 00 	lea    0xc182(%rip),%rax        # 1a310 <g_962+0x10>
    e18e:	48 89 85 78 f4 ff ff 	mov    %rax,-0xb88(%rbp)
    e195:	c7 85 3c f3 ff ff 00 	movl   $0x0,-0xcc4(%rbp)
    e19c:	00 00 00 
    e19f:	eb 21                	jmp    e1c2 <func_44+0x8a1>
    e1a1:	8b 85 3c f3 ff ff    	mov    -0xcc4(%rbp),%eax
    e1a7:	48 98                	cltq   
    e1a9:	48 bb 8e 24 15 a0 d6 	movabs $0x72c871d6a015248e,%rbx
    e1b0:	71 c8 72 
    e1b3:	48 89 9c c5 60 f5 ff 	mov    %rbx,-0xaa0(%rbp,%rax,8)
    e1ba:	ff 
    e1bb:	83 85 3c f3 ff ff 01 	addl   $0x1,-0xcc4(%rbp)
    e1c2:	83 bd 3c f3 ff ff 02 	cmpl   $0x2,-0xcc4(%rbp)
    e1c9:	7e d6                	jle    e1a1 <func_44+0x880>
    e1cb:	c7 85 3c f3 ff ff 00 	movl   $0x0,-0xcc4(%rbp)
    e1d2:	00 00 00 
    e1d5:	eb 1a                	jmp    e1f1 <func_44+0x8d0>
    e1d7:	8b 85 3c f3 ff ff    	mov    -0xcc4(%rbp),%eax
    e1dd:	48 98                	cltq   
    e1df:	c7 84 85 30 f5 ff ff 	movl   $0x8,-0xad0(%rbp,%rax,4)
    e1e6:	08 00 00 00 
    e1ea:	83 85 3c f3 ff ff 01 	addl   $0x1,-0xcc4(%rbp)
    e1f1:	83 bd 3c f3 ff ff 01 	cmpl   $0x1,-0xcc4(%rbp)
    e1f8:	7e dd                	jle    e1d7 <func_44+0x8b6>
    e1fa:	c7 05 94 be 00 00 00 	movl   $0x0,0xbe94(%rip)        # 1a098 <g_126>
    e201:	00 00 00 
    e204:	e9 ef 08 00 00       	jmpq   eaf8 <func_44+0x11d7>
    e209:	48 8d 05 70 10 01 00 	lea    0x11070(%rip),%rax        # 1f280 <g_1140+0xa0>
    e210:	48 89 85 d0 f3 ff ff 	mov    %rax,-0xc30(%rbp)
    e217:	48 8d 85 d0 f3 ff ff 	lea    -0xc30(%rbp),%rax
    e21e:	48 89 85 d8 f3 ff ff 	mov    %rax,-0xc28(%rbp)
    e225:	48 8d 85 d8 f3 ff ff 	lea    -0xc28(%rbp),%rax
    e22c:	48 89 85 80 f4 ff ff 	mov    %rax,-0xb80(%rbp)
    e233:	c7 85 88 f3 ff ff 01 	movl   $0x1,-0xc78(%rbp)
    e23a:	00 00 00 
    e23d:	c7 85 2c f3 ff ff 01 	movl   $0x1,-0xcd4(%rbp)
    e244:	00 00 00 
    e247:	c7 85 8c f3 ff ff 02 	movl   $0x2,-0xc74(%rbp)
    e24e:	00 00 00 
    e251:	c7 85 90 f3 ff ff 08 	movl   $0x8,-0xc70(%rbp)
    e258:	00 00 00 
    e25b:	c7 85 94 f3 ff ff 01 	movl   $0x1,-0xc6c(%rbp)
    e262:	00 00 00 
    e265:	c7 85 30 f3 ff ff 05 	movl   $0x5,-0xcd0(%rbp)
    e26c:	00 00 00 
    e26f:	c7 85 98 f3 ff ff f3 	movl   $0x8ac677f3,-0xc68(%rbp)
    e276:	77 c6 8a 
    e279:	c7 85 50 f6 ff ff 01 	movl   $0x1,-0x9b0(%rbp)
    e280:	00 00 00 
    e283:	c7 85 54 f6 ff ff 03 	movl   $0x3,-0x9ac(%rbp)
    e28a:	00 00 00 
    e28d:	c7 85 58 f6 ff ff 01 	movl   $0x1,-0x9a8(%rbp)
    e294:	00 00 00 
    e297:	c7 85 5c f6 ff ff 01 	movl   $0x1,-0x9a4(%rbp)
    e29e:	00 00 00 
    e2a1:	c7 85 60 f6 ff ff 03 	movl   $0x3,-0x9a0(%rbp)
    e2a8:	00 00 00 
    e2ab:	c7 85 64 f6 ff ff ff 	movl   $0xffffffff,-0x99c(%rbp)
    e2b2:	ff ff ff 
    e2b5:	c7 85 68 f6 ff ff b4 	movl   $0xa6ad90b4,-0x998(%rbp)
    e2bc:	90 ad a6 
    e2bf:	c7 85 6c f6 ff ff ff 	movl   $0xffffffff,-0x994(%rbp)
    e2c6:	ff ff ff 
    e2c9:	c7 85 70 f6 ff ff 12 	movl   $0x2699f912,-0x990(%rbp)
    e2d0:	f9 99 26 
    e2d3:	c7 85 74 f6 ff ff ff 	movl   $0xffffffff,-0x98c(%rbp)
    e2da:	ff ff ff 
    e2dd:	c7 85 78 f6 ff ff 03 	movl   $0x3,-0x988(%rbp)
    e2e4:	00 00 00 
    e2e7:	c7 85 7c f6 ff ff 03 	movl   $0x3,-0x984(%rbp)
    e2ee:	00 00 00 
    e2f1:	c7 85 80 f6 ff ff 6f 	movl   $0x1942596f,-0x980(%rbp)
    e2f8:	59 42 19 
    e2fb:	c7 85 84 f6 ff ff 03 	movl   $0x3,-0x97c(%rbp)
    e302:	00 00 00 
    e305:	c7 85 88 f6 ff ff 03 	movl   $0x3,-0x978(%rbp)
    e30c:	00 00 00 
    e30f:	c7 85 8c f6 ff ff ff 	movl   $0xffffffff,-0x974(%rbp)
    e316:	ff ff ff 
    e319:	c7 85 90 f6 ff ff 12 	movl   $0x2699f912,-0x970(%rbp)
    e320:	f9 99 26 
    e323:	c7 85 94 f6 ff ff ff 	movl   $0xffffffff,-0x96c(%rbp)
    e32a:	ff ff ff 
    e32d:	c7 85 98 f6 ff ff b4 	movl   $0xa6ad90b4,-0x968(%rbp)
    e334:	90 ad a6 
    e337:	c7 85 9c f6 ff ff ff 	movl   $0xffffffff,-0x964(%rbp)
    e33e:	ff ff ff 
    e341:	c7 85 a0 f6 ff ff 03 	movl   $0x3,-0x960(%rbp)
    e348:	00 00 00 
    e34b:	c7 85 a4 f6 ff ff 01 	movl   $0x1,-0x95c(%rbp)
    e352:	00 00 00 
    e355:	c7 85 a8 f6 ff ff 01 	movl   $0x1,-0x958(%rbp)
    e35c:	00 00 00 
    e35f:	c7 85 ac f6 ff ff 03 	movl   $0x3,-0x954(%rbp)
    e366:	00 00 00 
    e369:	c7 85 b0 f6 ff ff 01 	movl   $0x1,-0x950(%rbp)
    e370:	00 00 00 
    e373:	c7 85 b4 f6 ff ff ff 	movl   $0xffffffff,-0x94c(%rbp)
    e37a:	ff ff ff 
    e37d:	c7 85 b8 f6 ff ff 12 	movl   $0x2699f912,-0x948(%rbp)
    e384:	f9 99 26 
    e387:	c7 85 bc f6 ff ff 95 	movl   $0x409a9395,-0x944(%rbp)
    e38e:	93 9a 40 
    e391:	c7 85 c0 f6 ff ff 12 	movl   $0x2699f912,-0x940(%rbp)
    e398:	f9 99 26 
    e39b:	c7 85 c4 f6 ff ff ff 	movl   $0xffffffff,-0x93c(%rbp)
    e3a2:	ff ff ff 
    e3a5:	c7 85 c8 f6 ff ff 01 	movl   $0x1,-0x938(%rbp)
    e3ac:	00 00 00 
    e3af:	c7 85 cc f6 ff ff 03 	movl   $0x3,-0x934(%rbp)
    e3b6:	00 00 00 
    e3b9:	c7 85 d0 f6 ff ff 01 	movl   $0x1,-0x930(%rbp)
    e3c0:	00 00 00 
    e3c3:	c7 85 d4 f6 ff ff 01 	movl   $0x1,-0x92c(%rbp)
    e3ca:	00 00 00 
    e3cd:	c7 85 d8 f6 ff ff 03 	movl   $0x3,-0x928(%rbp)
    e3d4:	00 00 00 
    e3d7:	48 8d 85 30 f3 ff ff 	lea    -0xcd0(%rbp),%rax
    e3de:	48 89 85 88 f4 ff ff 	mov    %rax,-0xb78(%rbp)
    e3e5:	48 8d 05 08 be 00 00 	lea    0xbe08(%rip),%rax        # 1a1f4 <g_366+0x4>
    e3ec:	48 89 85 90 f4 ff ff 	mov    %rax,-0xb70(%rbp)
    e3f3:	48 8d 85 28 f3 ff ff 	lea    -0xcd8(%rbp),%rax
    e3fa:	48 89 85 e0 f6 ff ff 	mov    %rax,-0x920(%rbp)
    e401:	48 8d 85 00 f6 ff ff 	lea    -0xa00(%rbp),%rax
    e408:	48 83 c0 18          	add    $0x18,%rax
    e40c:	48 89 85 e8 f6 ff ff 	mov    %rax,-0x918(%rbp)
    e413:	48 8d 85 28 f3 ff ff 	lea    -0xcd8(%rbp),%rax
    e41a:	48 89 85 f0 f6 ff ff 	mov    %rax,-0x910(%rbp)
    e421:	48 c7 85 f8 f6 ff ff 	movq   $0x0,-0x908(%rbp)
    e428:	00 00 00 00 
    e42c:	48 8d 85 24 f3 ff ff 	lea    -0xcdc(%rbp),%rax
    e433:	48 89 85 00 f7 ff ff 	mov    %rax,-0x900(%rbp)
    e43a:	48 c7 85 08 f7 ff ff 	movq   $0x0,-0x8f8(%rbp)
    e441:	00 00 00 00 
    e445:	48 8d 85 28 f3 ff ff 	lea    -0xcd8(%rbp),%rax
    e44c:	48 89 85 10 f7 ff ff 	mov    %rax,-0x8f0(%rbp)
    e453:	48 8d 85 00 f6 ff ff 	lea    -0xa00(%rbp),%rax
    e45a:	48 83 c0 18          	add    $0x18,%rax
    e45e:	48 89 85 18 f7 ff ff 	mov    %rax,-0x8e8(%rbp)
    e465:	48 8d 85 28 f3 ff ff 	lea    -0xcd8(%rbp),%rax
    e46c:	48 89 85 20 f7 ff ff 	mov    %rax,-0x8e0(%rbp)
    e473:	48 c7 85 28 f7 ff ff 	movq   $0x0,-0x8d8(%rbp)
    e47a:	00 00 00 00 
    e47e:	48 8d 85 24 f3 ff ff 	lea    -0xcdc(%rbp),%rax
    e485:	48 89 85 30 f7 ff ff 	mov    %rax,-0x8d0(%rbp)
    e48c:	48 c7 85 38 f7 ff ff 	movq   $0x0,-0x8c8(%rbp)
    e493:	00 00 00 00 
    e497:	48 8d 85 28 f3 ff ff 	lea    -0xcd8(%rbp),%rax
    e49e:	48 89 85 40 f7 ff ff 	mov    %rax,-0x8c0(%rbp)
    e4a5:	48 8d 85 00 f6 ff ff 	lea    -0xa00(%rbp),%rax
    e4ac:	48 83 c0 18          	add    $0x18,%rax
    e4b0:	48 89 85 48 f7 ff ff 	mov    %rax,-0x8b8(%rbp)
    e4b7:	48 8d 85 28 f3 ff ff 	lea    -0xcd8(%rbp),%rax
    e4be:	48 89 85 50 f7 ff ff 	mov    %rax,-0x8b0(%rbp)
    e4c5:	48 c7 85 58 f7 ff ff 	movq   $0x0,-0x8a8(%rbp)
    e4cc:	00 00 00 00 
    e4d0:	48 c7 85 60 f7 ff ff 	movq   $0x0,-0x8a0(%rbp)
    e4d7:	00 00 00 00 
    e4db:	48 8d 85 00 f6 ff ff 	lea    -0xa00(%rbp),%rax
    e4e2:	48 83 c0 18          	add    $0x18,%rax
    e4e6:	48 89 85 68 f7 ff ff 	mov    %rax,-0x898(%rbp)
    e4ed:	48 8d 85 24 f3 ff ff 	lea    -0xcdc(%rbp),%rax
    e4f4:	48 89 85 70 f7 ff ff 	mov    %rax,-0x890(%rbp)
    e4fb:	48 8d 85 2c f3 ff ff 	lea    -0xcd4(%rbp),%rax
    e502:	48 89 85 78 f7 ff ff 	mov    %rax,-0x888(%rbp)
    e509:	48 8d 85 24 f3 ff ff 	lea    -0xcdc(%rbp),%rax
    e510:	48 89 85 80 f7 ff ff 	mov    %rax,-0x880(%rbp)
    e517:	48 8d 85 00 f6 ff ff 	lea    -0xa00(%rbp),%rax
    e51e:	48 83 c0 18          	add    $0x18,%rax
    e522:	48 89 85 88 f7 ff ff 	mov    %rax,-0x878(%rbp)
    e529:	48 c7 85 90 f7 ff ff 	movq   $0x0,-0x870(%rbp)
    e530:	00 00 00 00 
    e534:	48 8d 85 00 f6 ff ff 	lea    -0xa00(%rbp),%rax
    e53b:	48 83 c0 18          	add    $0x18,%rax
    e53f:	48 89 85 98 f7 ff ff 	mov    %rax,-0x868(%rbp)
    e546:	48 8d 85 24 f3 ff ff 	lea    -0xcdc(%rbp),%rax
    e54d:	48 89 85 a0 f7 ff ff 	mov    %rax,-0x860(%rbp)
    e554:	48 8d 85 2c f3 ff ff 	lea    -0xcd4(%rbp),%rax
    e55b:	48 89 85 a8 f7 ff ff 	mov    %rax,-0x858(%rbp)
    e562:	48 8d 85 24 f3 ff ff 	lea    -0xcdc(%rbp),%rax
    e569:	48 89 85 b0 f7 ff ff 	mov    %rax,-0x850(%rbp)
    e570:	48 8d 85 00 f6 ff ff 	lea    -0xa00(%rbp),%rax
    e577:	48 83 c0 18          	add    $0x18,%rax
    e57b:	48 89 85 b8 f7 ff ff 	mov    %rax,-0x848(%rbp)
    e582:	48 c7 85 c0 f7 ff ff 	movq   $0x0,-0x840(%rbp)
    e589:	00 00 00 00 
    e58d:	48 8d 85 00 f6 ff ff 	lea    -0xa00(%rbp),%rax
    e594:	48 83 c0 18          	add    $0x18,%rax
    e598:	48 89 85 c8 f7 ff ff 	mov    %rax,-0x838(%rbp)
    e59f:	48 8d 85 24 f3 ff ff 	lea    -0xcdc(%rbp),%rax
    e5a6:	48 89 85 d0 f7 ff ff 	mov    %rax,-0x830(%rbp)
    e5ad:	48 8d 85 2c f3 ff ff 	lea    -0xcd4(%rbp),%rax
    e5b4:	48 89 85 d8 f7 ff ff 	mov    %rax,-0x828(%rbp)
    e5bb:	48 8d 85 24 f3 ff ff 	lea    -0xcdc(%rbp),%rax
    e5c2:	48 89 85 e0 f7 ff ff 	mov    %rax,-0x820(%rbp)
    e5c9:	48 8d 85 00 f6 ff ff 	lea    -0xa00(%rbp),%rax
    e5d0:	48 83 c0 18          	add    $0x18,%rax
    e5d4:	48 89 85 e8 f7 ff ff 	mov    %rax,-0x818(%rbp)
    e5db:	48 c7 85 f0 f7 ff ff 	movq   $0x0,-0x810(%rbp)
    e5e2:	00 00 00 00 
    e5e6:	48 8d 85 00 f6 ff ff 	lea    -0xa00(%rbp),%rax
    e5ed:	48 83 c0 18          	add    $0x18,%rax
    e5f1:	48 89 85 f8 f7 ff ff 	mov    %rax,-0x808(%rbp)
    e5f8:	c7 85 34 f3 ff ff 00 	movl   $0x0,-0xccc(%rbp)
    e5ff:	00 00 00 
    e602:	eb 21                	jmp    e625 <func_44+0xd04>
    e604:	8b 85 34 f3 ff ff    	mov    -0xccc(%rbp),%eax
    e60a:	48 98                	cltq   
    e60c:	48 bb 31 36 e1 d0 29 	movabs $0x3faecb29d0e13631,%rbx
    e613:	cb ae 3f 
    e616:	48 89 9c c5 28 f5 ff 	mov    %rbx,-0xad8(%rbp,%rax,8)
    e61d:	ff 
    e61e:	83 85 34 f3 ff ff 01 	addl   $0x1,-0xccc(%rbp)
    e625:	83 bd 34 f3 ff ff 00 	cmpl   $0x0,-0xccc(%rbp)
    e62c:	7e d6                	jle    e604 <func_44+0xce3>
    e62e:	c6 05 99 bd 00 00 00 	movb   $0x0,0xbd99(%rip)        # 1a3ce <g_1021+0xe>
    e635:	e9 61 04 00 00       	jmpq   ea9b <func_44+0x117a>
    e63a:	48 8d 05 03 bd 00 00 	lea    0xbd03(%rip),%rax        # 1a344 <g_999+0x4>
    e641:	48 89 85 d0 f5 ff ff 	mov    %rax,-0xa30(%rbp)
    e648:	48 8d 05 f5 bc 00 00 	lea    0xbcf5(%rip),%rax        # 1a344 <g_999+0x4>
    e64f:	48 89 85 d8 f5 ff ff 	mov    %rax,-0xa28(%rbp)
    e656:	48 8d 05 e7 bc 00 00 	lea    0xbce7(%rip),%rax        # 1a344 <g_999+0x4>
    e65d:	48 89 85 e0 f5 ff ff 	mov    %rax,-0xa20(%rbp)
    e664:	48 8d 05 d9 bc 00 00 	lea    0xbcd9(%rip),%rax        # 1a344 <g_999+0x4>
    e66b:	48 89 85 e8 f5 ff ff 	mov    %rax,-0xa18(%rbp)
    e672:	48 8d 05 cb bc 00 00 	lea    0xbccb(%rip),%rax        # 1a344 <g_999+0x4>
    e679:	48 89 85 f0 f5 ff ff 	mov    %rax,-0xa10(%rbp)
    e680:	48 8d 85 a0 f5 ff ff 	lea    -0xa60(%rbp),%rax
    e687:	48 83 c0 0c          	add    $0xc,%rax
    e68b:	48 89 85 98 f4 ff ff 	mov    %rax,-0xb68(%rbp)
    e692:	c7 85 9c f3 ff ff 8e 	movl   $0xad25e28e,-0xc64(%rbp)
    e699:	e2 25 ad 
    e69c:	c7 85 a0 f3 ff ff fd 	movl   $0xfffffffd,-0xc60(%rbp)
    e6a3:	ff ff ff 
    e6a6:	c7 85 a4 f3 ff ff 8e 	movl   $0x83d2db8e,-0xc5c(%rbp)
    e6ad:	db d2 83 
    e6b0:	c7 85 38 f3 ff ff 00 	movl   $0x0,-0xcc8(%rbp)
    e6b7:	00 00 00 
    e6ba:	eb 1a                	jmp    e6d6 <func_44+0xdb5>
    e6bc:	8b 85 38 f3 ff ff    	mov    -0xcc8(%rbp),%eax
    e6c2:	48 98                	cltq   
    e6c4:	c7 84 85 38 f5 ff ff 	movl   $0xfffffffa,-0xac8(%rbp,%rax,4)
    e6cb:	fa ff ff ff 
    e6cf:	83 85 38 f3 ff ff 01 	addl   $0x1,-0xcc8(%rbp)
    e6d6:	83 bd 38 f3 ff ff 01 	cmpl   $0x1,-0xcc8(%rbp)
    e6dd:	7e dd                	jle    e6bc <func_44+0xd9b>
    e6df:	b8 01 00 00 00       	mov    $0x1,%eax
    e6e4:	0f bf d8             	movswl %ax,%ebx
    e6e7:	48 8b 85 28 f5 ff ff 	mov    -0xad8(%rbp),%rax
    e6ee:	48 85 c0             	test   %rax,%rax
    e6f1:	0f 84 8d 00 00 00    	je     e784 <func_44+0xe63>
    e6f7:	0f b7 85 fc f2 ff ff 	movzwl -0xd04(%rbp),%eax
    e6fe:	0f b7 d0             	movzwl %ax,%edx
    e701:	48 8b 05 40 09 01 00 	mov    0x10940(%rip),%rax        # 1f048 <g_385>
    e708:	8b 00                	mov    (%rax),%eax
    e70a:	39 c2                	cmp    %eax,%edx
    e70c:	0f 9d c0             	setge  %al
    e70f:	0f b6 c0             	movzbl %al,%eax
    e712:	be 8e ff ff ff       	mov    $0xffffff8e,%esi
    e717:	89 c7                	mov    %eax,%edi
    e719:	e8 f4 aa ff ff       	callq  9212 <safe_mul_func_int8_t_s_s>
    e71e:	0f be d0             	movsbl %al,%edx
    e721:	48 c7 05 ac 0c 01 00 	movq   $0x0,0x10cac(%rip)        # 1f3d8 <g_1467>
    e728:	00 00 00 00 
    e72c:	48 c7 85 68 f5 ff ff 	movq   $0xfff8,-0xa98(%rbp)
    e733:	f8 ff 00 00 
    e737:	8b 85 14 f3 ff ff    	mov    -0xcec(%rbp),%eax
    e73d:	85 c0                	test   %eax,%eax
    e73f:	74 07                	je     e748 <func_44+0xe27>
    e741:	b8 01 00 00 00       	mov    $0x1,%eax
    e746:	eb 05                	jmp    e74d <func_44+0xe2c>
    e748:	b8 00 00 00 00       	mov    $0x0,%eax
    e74d:	83 f8 07             	cmp    $0x7,%eax
    e750:	0f 97 c0             	seta   %al
    e753:	0f b6 c8             	movzbl %al,%ecx
    e756:	48 8b 05 73 0c 01 00 	mov    0x10c73(%rip),%rax        # 1f3d0 <g_1468>
    e75d:	0f b6 00             	movzbl (%rax),%eax
    e760:	0f b6 c0             	movzbl %al,%eax
    e763:	31 c8                	xor    %ecx,%eax
    e765:	39 c2                	cmp    %eax,%edx
    e767:	0f 94 c0             	sete   %al
    e76a:	0f b6 c0             	movzbl %al,%eax
    e76d:	89 c6                	mov    %eax,%esi
    e76f:	bf fe 00 00 00       	mov    $0xfe,%edi
    e774:	e8 1a b4 ff ff       	callq  9b93 <safe_mul_func_uint8_t_u_u>
    e779:	84 c0                	test   %al,%al
    e77b:	74 07                	je     e784 <func_44+0xe63>
    e77d:	b8 01 00 00 00       	mov    $0x1,%eax
    e782:	eb 05                	jmp    e789 <func_44+0xe68>
    e784:	b8 00 00 00 00       	mov    $0x0,%eax
    e789:	98                   	cwtl   
    e78a:	89 de                	mov    %ebx,%esi
    e78c:	89 c7                	mov    %eax,%edi
    e78e:	e8 20 ac ff ff       	callq  93b3 <safe_add_func_int16_t_s_s>
    e793:	0f bf d0             	movswl %ax,%edx
    e796:	0f b7 85 fc f2 ff ff 	movzwl -0xd04(%rbp),%eax
    e79d:	0f b7 c0             	movzwl %ax,%eax
    e7a0:	39 c2                	cmp    %eax,%edx
    e7a2:	0f 9f c0             	setg   %al
    e7a5:	0f b6 c0             	movzbl %al,%eax
    e7a8:	0f b6 15 5f bc 00 00 	movzbl 0xbc5f(%rip),%edx        # 1a40e <g_1023+0xe>
    e7af:	31 d0                	xor    %edx,%eax
    e7b1:	88 05 57 bc 00 00    	mov    %al,0xbc57(%rip)        # 1a40e <g_1023+0xe>
    e7b7:	0f b6 05 50 bc 00 00 	movzbl 0xbc50(%rip),%eax        # 1a40e <g_1023+0xe>
    e7be:	0f b6 d0             	movzbl %al,%edx
    e7c1:	48 8b 85 98 f4 ff ff 	mov    -0xb68(%rbp),%rax
    e7c8:	8b 00                	mov    (%rax),%eax
    e7ca:	21 c2                	and    %eax,%edx
    e7cc:	48 8b 85 98 f4 ff ff 	mov    -0xb68(%rbp),%rax
    e7d3:	89 10                	mov    %edx,(%rax)
    e7d5:	48 8b 85 98 f4 ff ff 	mov    -0xb68(%rbp),%rax
    e7dc:	8b 00                	mov    (%rax),%eax
    e7de:	85 c0                	test   %eax,%eax
    e7e0:	0f 84 b2 00 00 00    	je     e898 <func_44+0xf77>
    e7e6:	48 83 bd 68 f4 ff ff 	cmpq   $0x0,-0xb98(%rbp)
    e7ed:	00 
    e7ee:	41 0f 95 c4          	setne  %r12b
    e7f2:	8b 9d a0 f5 ff ff    	mov    -0xa60(%rbp),%ebx
    e7f8:	0f b7 85 fc f2 ff ff 	movzwl -0xd04(%rbp),%eax
    e7ff:	0f b7 d0             	movzwl %ax,%edx
    e802:	48 8d 05 af 0b 01 00 	lea    0x10baf(%rip),%rax        # 1f3b8 <g_1163+0x18>
    e809:	48 39 85 80 f4 ff ff 	cmp    %rax,-0xb80(%rbp)
    e810:	0f 94 c0             	sete   %al
    e813:	0f b6 c0             	movzbl %al,%eax
    e816:	89 d6                	mov    %edx,%esi
    e818:	89 c7                	mov    %eax,%edi
    e81a:	e8 de b6 ff ff       	callq  9efd <safe_mod_func_uint32_t_u_u>
    e81f:	89 c0                	mov    %eax,%eax
    e821:	48 39 85 18 f4 ff ff 	cmp    %rax,-0xbe8(%rbp)
    e828:	0f 9f c0             	setg   %al
    e82b:	0f b6 c0             	movzbl %al,%eax
    e82e:	be fa ff ff ff       	mov    $0xfffffffa,%esi
    e833:	89 c7                	mov    %eax,%edi
    e835:	e8 79 ab ff ff       	callq  93b3 <safe_add_func_int16_t_s_s>
    e83a:	98                   	cwtl   
    e83b:	39 c3                	cmp    %eax,%ebx
    e83d:	0f 9f c0             	setg   %al
    e840:	0f b6 d0             	movzbl %al,%edx
    e843:	48 8b 05 96 07 01 00 	mov    0x10796(%rip),%rax        # 1efe0 <g_181>
    e84a:	48 8b 00             	mov    (%rax),%rax
    e84d:	8b 00                	mov    (%rax),%eax
    e84f:	39 c2                	cmp    %eax,%edx
    e851:	0f 94 c0             	sete   %al
    e854:	44 09 e0             	or     %r12d,%eax
    e857:	0f b6 c0             	movzbl %al,%eax
    e85a:	be fc 00 00 00       	mov    $0xfc,%esi
    e85f:	89 c7                	mov    %eax,%edi
    e861:	e8 f4 b2 ff ff       	callq  9b5a <safe_add_func_uint8_t_u_u>
    e866:	0f b6 d0             	movzbl %al,%edx
    e869:	0f b7 85 fc f2 ff ff 	movzwl -0xd04(%rbp),%eax
    e870:	66 39 c2             	cmp    %ax,%dx
    e873:	0f 95 c0             	setne  %al
    e876:	0f b6 c8             	movzbl %al,%ecx
    e879:	48 8b 05 c8 07 01 00 	mov    0x107c8(%rip),%rax        # 1f048 <g_385>
    e880:	8b 10                	mov    (%rax),%edx
    e882:	48 8b 05 bf 07 01 00 	mov    0x107bf(%rip),%rax        # 1f048 <g_385>
    e889:	21 ca                	and    %ecx,%edx
    e88b:	89 10                	mov    %edx,(%rax)
    e88d:	8b 85 b0 f5 ff ff    	mov    -0xa50(%rbp),%eax
    e893:	e9 8a 0a 00 00       	jmpq   f322 <func_44+0x1a01>
    e898:	48 c7 85 a0 f4 ff ff 	movq   $0x0,-0xb60(%rbp)
    e89f:	00 00 00 00 
    e8a3:	48 8d 05 52 b8 00 00 	lea    0xb852(%rip),%rax        # 1a0fc <g_139+0x3c>
    e8aa:	48 89 85 a8 f4 ff ff 	mov    %rax,-0xb58(%rbp)
    e8b1:	48 c7 85 b0 f4 ff ff 	movq   $0x0,-0xb50(%rbp)
    e8b8:	00 00 00 00 
    e8bc:	48 8d 05 31 b9 00 00 	lea    0xb931(%rip),%rax        # 1a1f4 <g_366+0x4>
    e8c3:	48 89 85 b8 f4 ff ff 	mov    %rax,-0xb48(%rbp)
    e8ca:	48 8d 85 a0 f5 ff ff 	lea    -0xa60(%rbp),%rax
    e8d1:	48 83 c0 0c          	add    $0xc,%rax
    e8d5:	48 89 85 c0 f4 ff ff 	mov    %rax,-0xb40(%rbp)
    e8dc:	c7 85 a8 f3 ff ff 05 	movl   $0x5,-0xc58(%rbp)
    e8e3:	00 00 00 
    e8e6:	48 8d 05 07 b9 00 00 	lea    0xb907(%rip),%rax        # 1a1f4 <g_366+0x4>
    e8ed:	48 89 85 c8 f4 ff ff 	mov    %rax,-0xb38(%rbp)
    e8f4:	c7 85 ac f3 ff ff f8 	movl   $0xfffffff8,-0xc54(%rbp)
    e8fb:	ff ff ff 
    e8fe:	c7 85 44 f3 ff ff 00 	movl   $0x0,-0xcbc(%rbp)
    e905:	00 00 00 
    e908:	eb 1e                	jmp    e928 <func_44+0x1007>
    e90a:	8b 85 44 f3 ff ff    	mov    -0xcbc(%rbp),%eax
    e910:	48 98                	cltq   
    e912:	48 8d 95 14 f3 ff ff 	lea    -0xcec(%rbp),%rdx
    e919:	48 89 94 c5 80 f5 ff 	mov    %rdx,-0xa80(%rbp,%rax,8)
    e920:	ff 
    e921:	83 85 44 f3 ff ff 01 	addl   $0x1,-0xcbc(%rbp)
    e928:	83 bd 44 f3 ff ff 01 	cmpl   $0x1,-0xcbc(%rbp)
    e92f:	7e d9                	jle    e90a <func_44+0xfe9>
    e931:	48 8b 85 d8 f3 ff ff 	mov    -0xc28(%rbp),%rax
    e938:	48 8b 95 70 f4 ff ff 	mov    -0xb90(%rbp),%rdx
    e93f:	48 89 10             	mov    %rdx,(%rax)
    e942:	83 ad ac f3 ff ff 01 	subl   $0x1,-0xc54(%rbp)
    e949:	44 8b b5 30 f5 ff ff 	mov    -0xad0(%rbp),%r14d
    e950:	0f b7 05 ad ba 00 00 	movzwl 0xbaad(%rip),%eax        # 1a404 <g_1023+0x4>
    e957:	0f b7 d8             	movzwl %ax,%ebx
    e95a:	0f b7 85 fc f2 ff ff 	movzwl -0xd04(%rbp),%eax
    e961:	44 0f b7 e0          	movzwl %ax,%r12d
    e965:	0f b6 05 54 b9 00 00 	movzbl 0xb954(%rip),%eax        # 1a2c0 <g_869>
    e96c:	66 98                	cbtw   
    e96e:	44 0f b7 e8          	movzwl %ax,%r13d
    e972:	8b 85 18 f3 ff ff    	mov    -0xce8(%rbp),%eax
    e978:	0f bf d0             	movswl %ax,%edx
    e97b:	8b 05 bf b6 00 00    	mov    0xb6bf(%rip),%eax        # 1a040 <g_66>
    e981:	98                   	cwtl   
    e982:	89 d6                	mov    %edx,%esi
    e984:	89 c7                	mov    %eax,%edi
    e986:	e8 48 aa ff ff       	callq  93d3 <safe_sub_func_int16_t_s_s>
    e98b:	c7 85 28 f3 ff ff 01 	movl   $0x1,-0xcd8(%rbp)
    e992:	00 00 00 
    e995:	8b 85 28 f3 ff ff    	mov    -0xcd8(%rbp),%eax
    e99b:	0f b7 c0             	movzwl %ax,%eax
    e99e:	44 89 ee             	mov    %r13d,%esi
    e9a1:	89 c7                	mov    %eax,%edi
    e9a3:	e8 95 b3 ff ff       	callq  9d3d <safe_mul_func_uint16_t_u_u>
    e9a8:	0f b6 c0             	movzbl %al,%eax
    e9ab:	44 89 e6             	mov    %r12d,%esi
    e9ae:	89 c7                	mov    %eax,%edi
    e9b0:	e8 50 b2 ff ff       	callq  9c05 <safe_lshift_func_uint8_t_u_s>
    e9b5:	0f b6 c0             	movzbl %al,%eax
    e9b8:	f7 d0                	not    %eax
    e9ba:	48 98                	cltq   
    e9bc:	83 e0 31             	and    $0x31,%eax
    e9bf:	8b 95 18 f3 ff ff    	mov    -0xce8(%rbp),%edx
    e9c5:	89 d2                	mov    %edx,%edx
    e9c7:	48 39 d0             	cmp    %rdx,%rax
    e9ca:	0f 9d c0             	setge  %al
    e9cd:	0f b6 d0             	movzbl %al,%edx
    e9d0:	8b 05 6a c8 00 00    	mov    0xc86a(%rip),%eax        # 1b240 <g_1533>
    e9d6:	39 c2                	cmp    %eax,%edx
    e9d8:	0f 9d c0             	setge  %al
    e9db:	0f b6 c0             	movzbl %al,%eax
    e9de:	89 de                	mov    %ebx,%esi
    e9e0:	89 c7                	mov    %eax,%edi
    e9e2:	e8 61 b4 ff ff       	callq  9e48 <safe_rshift_func_uint16_t_u_s>
    e9e7:	0f b7 c0             	movzwl %ax,%eax
    e9ea:	89 c6                	mov    %eax,%esi
    e9ec:	bf ff ff ff ff       	mov    $0xffffffff,%edi
    e9f1:	e8 d6 ac ff ff       	callq  96cc <safe_mod_func_int32_t_s_s>
    e9f6:	41 39 c6             	cmp    %eax,%r14d
    e9f9:	74 3d                	je     ea38 <func_44+0x1117>
    e9fb:	8b 85 18 f3 ff ff    	mov    -0xce8(%rbp),%eax
    ea01:	0f bf d0             	movswl %ax,%edx
    ea04:	0f be 85 0a f3 ff ff 	movsbl -0xcf6(%rbp),%eax
    ea0b:	89 d6                	mov    %edx,%esi
    ea0d:	89 c7                	mov    %eax,%edi
    ea0f:	e8 02 aa ff ff       	callq  9416 <safe_mod_func_int16_t_s_s>
    ea14:	48 8b 15 2d 06 01 00 	mov    0x1062d(%rip),%rdx        # 1f048 <g_385>
    ea1b:	8b 0a                	mov    (%rdx),%ecx
    ea1d:	0f bf d0             	movswl %ax,%edx
    ea20:	48 8b 05 21 06 01 00 	mov    0x10621(%rip),%rax        # 1f048 <g_385>
    ea27:	09 ca                	or     %ecx,%edx
    ea29:	89 10                	mov    %edx,(%rax)
    ea2b:	8b 10                	mov    (%rax),%edx
    ea2d:	48 8b 85 98 f4 ff ff 	mov    -0xb68(%rbp),%rax
    ea34:	89 10                	mov    %edx,(%rax)
    ea36:	eb 53                	jmp    ea8b <func_44+0x116a>
    ea38:	48 8d 85 24 f3 ff ff 	lea    -0xcdc(%rbp),%rax
    ea3f:	48 89 85 d0 f4 ff ff 	mov    %rax,-0xb30(%rbp)
    ea46:	c7 85 b0 f3 ff ff 68 	movl   $0x2e084d68,-0xc50(%rbp)
    ea4d:	4d 08 2e 
    ea50:	c7 85 48 f3 ff ff 00 	movl   $0x0,-0xcb8(%rbp)
    ea57:	00 00 00 
    ea5a:	eb 1e                	jmp    ea7a <func_44+0x1159>
    ea5c:	8b 85 48 f3 ff ff    	mov    -0xcb8(%rbp),%eax
    ea62:	48 98                	cltq   
    ea64:	48 8d 15 89 b7 00 00 	lea    0xb789(%rip),%rdx        # 1a1f4 <g_366+0x4>
    ea6b:	48 89 94 c5 80 f5 ff 	mov    %rdx,-0xa80(%rbp,%rax,8)
    ea72:	ff 
    ea73:	83 85 48 f3 ff ff 01 	addl   $0x1,-0xcb8(%rbp)
    ea7a:	83 bd 48 f3 ff ff 02 	cmpl   $0x2,-0xcb8(%rbp)
    ea81:	7e d9                	jle    ea5c <func_44+0x113b>
    ea83:	66 83 85 0e f3 ff ff 	addw   $0x1,-0xcf2(%rbp)
    ea8a:	01 
    ea8b:	0f b6 05 3c b9 00 00 	movzbl 0xb93c(%rip),%eax        # 1a3ce <g_1021+0xe>
    ea92:	83 c0 01             	add    $0x1,%eax
    ea95:	88 05 33 b9 00 00    	mov    %al,0xb933(%rip)        # 1a3ce <g_1021+0xe>
    ea9b:	0f b6 05 2c b9 00 00 	movzbl 0xb92c(%rip),%eax        # 1a3ce <g_1021+0xe>
    eaa2:	3c 1d                	cmp    $0x1d,%al
    eaa4:	0f 87 90 fb ff ff    	ja     e63a <func_44+0xd19>
    eaaa:	48 8b 05 2f 05 01 00 	mov    0x1052f(%rip),%rax        # 1efe0 <g_181>
    eab1:	48 8d 95 a0 f5 ff ff 	lea    -0xa60(%rbp),%rdx
    eab8:	48 83 c2 20          	add    $0x20,%rdx
    eabc:	48 89 10             	mov    %rdx,(%rax)
    eabf:	0f b7 85 fc f2 ff ff 	movzwl -0xd04(%rbp),%eax
    eac6:	66 85 c0             	test   %ax,%ax
    eac9:	75 12                	jne    eadd <func_44+0x11bc>
    eacb:	0f b6 05 7d c7 00 00 	movzbl 0xc77d(%rip),%eax        # 1b24f <g_1547+0x7>
    ead2:	83 e8 01             	sub    $0x1,%eax
    ead5:	88 05 74 c7 00 00    	mov    %al,0xc774(%rip)        # 1b24f <g_1547+0x7>
    eadb:	eb 01                	jmp    eade <func_44+0x11bd>
    eadd:	90                   	nop
    eade:	8b 05 b4 b5 00 00    	mov    0xb5b4(%rip),%eax        # 1a098 <g_126>
    eae4:	98                   	cwtl   
    eae5:	be 09 00 00 00       	mov    $0x9,%esi
    eaea:	89 c7                	mov    %eax,%edi
    eaec:	e8 c2 a8 ff ff       	callq  93b3 <safe_add_func_int16_t_s_s>
    eaf1:	98                   	cwtl   
    eaf2:	89 05 a0 b5 00 00    	mov    %eax,0xb5a0(%rip)        # 1a098 <g_126>
    eaf8:	8b 05 9a b5 00 00    	mov    0xb59a(%rip),%eax        # 1a098 <g_126>
    eafe:	83 f8 3b             	cmp    $0x3b,%eax
    eb01:	0f 87 02 f7 ff ff    	ja     e209 <func_44+0x8e8>
    eb07:	0f b7 85 fc f2 ff ff 	movzwl -0xd04(%rbp),%eax
    eb0e:	0f b7 c0             	movzwl %ax,%eax
    eb11:	89 85 b8 f5 ff ff    	mov    %eax,-0xa48(%rbp)
    eb17:	8b 8d b8 f5 ff ff    	mov    -0xa48(%rbp),%ecx
    eb1d:	48 8b 85 78 f4 ff ff 	mov    -0xb88(%rbp),%rax
    eb24:	48 8b 10             	mov    (%rax),%rdx
    eb27:	48 63 c1             	movslq %ecx,%rax
    eb2a:	48 31 c2             	xor    %rax,%rdx
    eb2d:	48 8b 85 78 f4 ff ff 	mov    -0xb88(%rbp),%rax
    eb34:	48 89 10             	mov    %rdx,(%rax)
    eb37:	48 8b 85 78 f4 ff ff 	mov    -0xb88(%rbp),%rax
    eb3e:	48 8b 00             	mov    (%rax),%rax
    eb41:	48 85 c0             	test   %rax,%rax
    eb44:	0f 84 c9 00 00 00    	je     ec13 <func_44+0x12f2>
    eb4a:	8b 05 f0 b7 00 00    	mov    0xb7f0(%rip),%eax        # 1a340 <g_999>
    eb50:	0f bf d8             	movswl %ax,%ebx
    eb53:	bf 01 00 00 00       	mov    $0x1,%edi
    eb58:	e8 bc b4 ff ff       	callq  a019 <safe_unary_minus_func_uint64_t_u>
    eb5d:	41 89 c4             	mov    %eax,%r12d
    eb60:	8b 85 18 f3 ff ff    	mov    -0xce8(%rbp),%eax
    eb66:	8b 95 14 f3 ff ff    	mov    -0xcec(%rbp),%edx
    eb6c:	09 d0                	or     %edx,%eax
    eb6e:	89 c7                	mov    %eax,%edi
    eb70:	e8 21 aa ff ff       	callq  9596 <safe_unary_minus_func_int32_t_s>
    eb75:	48 8b 05 54 04 01 00 	mov    0x10454(%rip),%rax        # 1efd0 <g_138>
    eb7c:	8b 00                	mov    (%rax),%eax
    eb7e:	89 85 a8 f5 ff ff    	mov    %eax,-0xa58(%rbp)
    eb84:	8b 85 a8 f5 ff ff    	mov    -0xa58(%rbp),%eax
    eb8a:	3d 05 e0 9f 6c       	cmp    $0x6c9fe005,%eax
    eb8f:	0f 94 c0             	sete   %al
    eb92:	0f b6 d0             	movzbl %al,%edx
    eb95:	8b 85 1c f3 ff ff    	mov    -0xce4(%rbp),%eax
    eb9b:	09 d0                	or     %edx,%eax
    eb9d:	89 85 1c f3 ff ff    	mov    %eax,-0xce4(%rbp)
    eba3:	8b 85 1c f3 ff ff    	mov    -0xce4(%rbp),%eax
    eba9:	85 c0                	test   %eax,%eax
    ebab:	74 13                	je     ebc0 <func_44+0x129f>
    ebad:	0f b7 85 fc f2 ff ff 	movzwl -0xd04(%rbp),%eax
    ebb4:	66 85 c0             	test   %ax,%ax
    ebb7:	74 07                	je     ebc0 <func_44+0x129f>
    ebb9:	b8 01 00 00 00       	mov    $0x1,%eax
    ebbe:	eb 05                	jmp    ebc5 <func_44+0x12a4>
    ebc0:	b8 00 00 00 00       	mov    $0x0,%eax
    ebc5:	48 63 d0             	movslq %eax,%rdx
    ebc8:	48 0f be 85 0a f3 ff 	movsbq -0xcf6(%rbp),%rax
    ebcf:	ff 
    ebd0:	48 89 d6             	mov    %rdx,%rsi
    ebd3:	48 89 c7             	mov    %rax,%rdi
    ebd6:	e8 66 ac ff ff       	callq  9841 <safe_add_func_int64_t_s_s>
    ebdb:	8b 85 20 f3 ff ff    	mov    -0xce0(%rbp),%eax
    ebe1:	0f b7 c0             	movzwl %ax,%eax
    ebe4:	be e4 f7 00 00       	mov    $0xf7e4,%esi
    ebe9:	89 c7                	mov    %eax,%edi
    ebeb:	e8 4d b1 ff ff       	callq  9d3d <safe_mul_func_uint16_t_u_u>
    ebf0:	0f b7 c0             	movzwl %ax,%eax
    ebf3:	be 01 00 00 00       	mov    $0x1,%esi
    ebf8:	89 c7                	mov    %eax,%edi
    ebfa:	e8 06 aa ff ff       	callq  9605 <safe_sub_func_int32_t_s_s>
    ebff:	44 09 e0             	or     %r12d,%eax
    ec02:	98                   	cwtl   
    ec03:	89 de                	mov    %ebx,%esi
    ec05:	89 c7                	mov    %eax,%edi
    ec07:	e8 e9 a7 ff ff       	callq  93f5 <safe_mul_func_int16_t_s_s>
    ec0c:	80 bd 0a f3 ff ff 00 	cmpb   $0x0,-0xcf6(%rbp)
    ec13:	48 8b 05 2e 04 01 00 	mov    0x1042e(%rip),%rax        # 1f048 <g_385>
    ec1a:	c7 00 c2 35 6f ba    	movl   $0xba6f35c2,(%rax)
    ec20:	c6 05 89 b5 00 00 00 	movb   $0x0,0xb589(%rip)        # 1a1b0 <g_161>
    ec27:	eb 71                	jmp    ec9a <func_44+0x1379>
    ec29:	c6 85 0d f3 ff ff 0e 	movb   $0xe,-0xcf3(%rbp)
    ec30:	8b 85 20 f3 ff ff    	mov    -0xce0(%rbp),%eax
    ec36:	89 85 84 f3 ff ff    	mov    %eax,-0xc7c(%rbp)
    ec3c:	83 bd 84 f3 ff ff 00 	cmpl   $0x0,-0xc7c(%rbp)
    ec43:	74 1f                	je     ec64 <func_44+0x1343>
    ec45:	48 8b 05 fc 03 01 00 	mov    0x103fc(%rip),%rax        # 1f048 <g_385>
    ec4c:	8b 08                	mov    (%rax),%ecx
    ec4e:	48 8b 05 83 03 01 00 	mov    0x10383(%rip),%rax        # 1efd8 <g_182>
    ec55:	8b 10                	mov    (%rax),%edx
    ec57:	48 8b 05 ea 03 01 00 	mov    0x103ea(%rip),%rax        # 1f048 <g_385>
    ec5e:	21 ca                	and    %ecx,%edx
    ec60:	89 10                	mov    %edx,(%rax)
    ec62:	eb 19                	jmp    ec7d <func_44+0x135c>
    ec64:	48 8b 05 dd 03 01 00 	mov    0x103dd(%rip),%rax        # 1f048 <g_385>
    ec6b:	c7 00 00 00 00 00    	movl   $0x0,(%rax)
    ec71:	0f b7 85 fc f2 ff ff 	movzwl -0xd04(%rbp),%eax
    ec78:	e9 a5 06 00 00       	jmpq   f322 <func_44+0x1a01>
    ec7d:	0f b6 05 2c b5 00 00 	movzbl 0xb52c(%rip),%eax        # 1a1b0 <g_161>
    ec84:	0f b6 c0             	movzbl %al,%eax
    ec87:	be 09 00 00 00       	mov    $0x9,%esi
    ec8c:	48 89 c7             	mov    %rax,%rdi
    ec8f:	e8 9a b3 ff ff       	callq  a02e <safe_add_func_uint64_t_u_u>
    ec94:	88 05 16 b5 00 00    	mov    %al,0xb516(%rip)        # 1a1b0 <g_161>
    ec9a:	0f b6 05 0f b5 00 00 	movzbl 0xb50f(%rip),%eax        # 1a1b0 <g_161>
    eca1:	3c 21                	cmp    $0x21,%al
    eca3:	77 84                	ja     ec29 <func_44+0x1308>
    eca5:	8b 05 95 b6 00 00    	mov    0xb695(%rip),%eax        # 1a340 <g_999>
    ecab:	98                   	cwtl   
    ecac:	be 01 00 00 00       	mov    $0x1,%esi
    ecb1:	89 c7                	mov    %eax,%edi
    ecb3:	e8 fb a6 ff ff       	callq  93b3 <safe_add_func_int16_t_s_s>
    ecb8:	98                   	cwtl   
    ecb9:	89 05 81 b6 00 00    	mov    %eax,0xb681(%rip)        # 1a340 <g_999>
    ecbf:	8b 05 7b b6 00 00    	mov    0xb67b(%rip),%eax        # 1a340 <g_999>
    ecc5:	83 f8 1b             	cmp    $0x1b,%eax
    ecc8:	0f 84 62 f4 ff ff    	je     e130 <func_44+0x80f>
    ecce:	0f b7 85 fc f2 ff ff 	movzwl -0xd04(%rbp),%eax
    ecd5:	83 c0 01             	add    $0x1,%eax
    ecd8:	66 89 85 fc f2 ff ff 	mov    %ax,-0xd04(%rbp)
    ecdf:	0f b7 85 fc f2 ff ff 	movzwl -0xd04(%rbp),%eax
    ece6:	66 83 f8 08          	cmp    $0x8,%ax
    ecea:	0f 86 54 ed ff ff    	jbe    da44 <func_44+0x123>
    ecf0:	eb 04                	jmp    ecf6 <func_44+0x13d5>
    ecf2:	90                   	nop
    ecf3:	eb 01                	jmp    ecf6 <func_44+0x13d5>
    ecf5:	90                   	nop
    ecf6:	8b 85 1c f3 ff ff    	mov    -0xce4(%rbp),%eax
    ecfc:	48 63 d8             	movslq %eax,%rbx
    ecff:	48 8b 85 e0 f3 ff ff 	mov    -0xc20(%rbp),%rax
    ed06:	48 8d 15 a3 04 01 00 	lea    0x104a3(%rip),%rdx        # 1f1b0 <g_982+0x10>
    ed0d:	48 89 10             	mov    %rdx,(%rax)
    ed10:	0f b6 05 5c c5 00 00 	movzbl 0xc55c(%rip),%eax        # 1b273 <g_1583+0x3>
    ed17:	44 0f be e0          	movsbl %al,%r12d
    ed1b:	be 16 ea 2f 49       	mov    $0x492fea16,%esi
    ed20:	bf ff ff ff ff       	mov    $0xffffffff,%edi
    ed25:	e8 fb b1 ff ff       	callq  9f25 <safe_div_func_uint32_t_u_u>
    ed2a:	44 89 e6             	mov    %r12d,%esi
    ed2d:	89 c7                	mov    %eax,%edi
    ed2f:	e8 f1 b1 ff ff       	callq  9f25 <safe_div_func_uint32_t_u_u>
    ed34:	0f b7 85 fc f2 ff ff 	movzwl -0xd04(%rbp),%eax
    ed3b:	0f b7 d0             	movzwl %ax,%edx
    ed3e:	8b 85 1c f3 ff ff    	mov    -0xce4(%rbp),%eax
    ed44:	39 c2                	cmp    %eax,%edx
    ed46:	0f 9d c0             	setge  %al
    ed49:	0f b6 d0             	movzbl %al,%edx
    ed4c:	48 8d 05 5d 04 01 00 	lea    0x1045d(%rip),%rax        # 1f1b0 <g_982+0x10>
    ed53:	48 39 85 e8 f3 ff ff 	cmp    %rax,-0xc18(%rbp)
    ed5a:	0f 95 c0             	setne  %al
    ed5d:	0f b6 c8             	movzbl %al,%ecx
    ed60:	0f b7 85 fc f2 ff ff 	movzwl -0xd04(%rbp),%eax
    ed67:	0f b7 c0             	movzwl %ax,%eax
    ed6a:	39 c1                	cmp    %eax,%ecx
    ed6c:	0f 9e c1             	setle  %cl
    ed6f:	8b 85 b8 f5 ff ff    	mov    -0xa48(%rbp),%eax
    ed75:	83 f8 fe             	cmp    $0xfffffffe,%eax
    ed78:	0f 94 c0             	sete   %al
    ed7b:	09 c8                	or     %ecx,%eax
    ed7d:	0f b6 c0             	movzbl %al,%eax
    ed80:	39 c2                	cmp    %eax,%edx
    ed82:	0f 9d c0             	setge  %al
    ed85:	0f b6 c0             	movzbl %al,%eax
    ed88:	be d7 ff ff ff       	mov    $0xffffffd7,%esi
    ed8d:	89 c7                	mov    %eax,%edi
    ed8f:	e8 d6 a4 ff ff       	callq  926a <safe_div_func_int8_t_s_s>
    ed94:	0f be d0             	movsbl %al,%edx
    ed97:	8b 85 20 f3 ff ff    	mov    -0xce0(%rbp),%eax
    ed9d:	09 d0                	or     %edx,%eax
    ed9f:	89 85 20 f3 ff ff    	mov    %eax,-0xce0(%rbp)
    eda5:	8b 85 20 f3 ff ff    	mov    -0xce0(%rbp),%eax
    edab:	48 98                	cltq   
    edad:	48 89 de             	mov    %rbx,%rsi
    edb0:	48 89 c7             	mov    %rax,%rdi
    edb3:	e8 c8 b2 ff ff       	callq  a080 <safe_mod_func_uint64_t_u_u>
    edb8:	89 c7                	mov    %eax,%edi
    edba:	e8 e7 b0 ff ff       	callq  9ea6 <safe_unary_minus_func_uint32_t_u>
    edbf:	0f b7 d0             	movzwl %ax,%edx
    edc2:	66 0f be 85 0a f3 ff 	movsbw -0xcf6(%rbp),%ax
    edc9:	ff 
    edca:	0f b7 c0             	movzwl %ax,%eax
    edcd:	89 d6                	mov    %edx,%esi
    edcf:	89 c7                	mov    %eax,%edi
    edd1:	e8 67 af ff ff       	callq  9d3d <safe_mul_func_uint16_t_u_u>
    edd6:	ba 01 00 00 00       	mov    $0x1,%edx
    eddb:	48 8b 05 66 02 01 00 	mov    0x10266(%rip),%rax        # 1f048 <g_385>
    ede2:	89 10                	mov    %edx,(%rax)
    ede4:	8b 85 1c f3 ff ff    	mov    -0xce4(%rbp),%eax
    edea:	85 c0                	test   %eax,%eax
    edec:	74 0c                	je     edfa <func_44+0x14d9>
    edee:	0f b7 85 fc f2 ff ff 	movzwl -0xd04(%rbp),%eax
    edf5:	e9 28 05 00 00       	jmpq   f322 <func_44+0x1a01>
    edfa:	48 8d 85 1c f3 ff ff 	lea    -0xce4(%rbp),%rax
    ee01:	48 89 85 d8 f4 ff ff 	mov    %rax,-0xb28(%rbp)
    ee08:	48 8d 85 20 f3 ff ff 	lea    -0xce0(%rbp),%rax
    ee0f:	48 89 85 e0 f4 ff ff 	mov    %rax,-0xb20(%rbp)
    ee16:	48 8d 85 14 f3 ff ff 	lea    -0xcec(%rbp),%rax
    ee1d:	48 89 85 e8 f4 ff ff 	mov    %rax,-0xb18(%rbp)
    ee24:	48 8d 05 c9 b3 00 00 	lea    0xb3c9(%rip),%rax        # 1a1f4 <g_366+0x4>
    ee2b:	48 89 85 f0 f4 ff ff 	mov    %rax,-0xb10(%rbp)
    ee32:	48 8d 05 bb b3 00 00 	lea    0xb3bb(%rip),%rax        # 1a1f4 <g_366+0x4>
    ee39:	48 89 85 f8 f4 ff ff 	mov    %rax,-0xb08(%rbp)
    ee40:	c7 85 d8 f3 ff ff 8d 	movl   $0xb42e048d,-0xc28(%rbp)
    ee47:	04 2e b4 
    ee4a:	48 8d 85 a0 f5 ff ff 	lea    -0xa60(%rbp),%rax
    ee51:	48 83 c0 0c          	add    $0xc,%rax
    ee55:	48 89 85 00 f5 ff ff 	mov    %rax,-0xb00(%rbp)
    ee5c:	48 8d 85 20 f3 ff ff 	lea    -0xce0(%rbp),%rax
    ee63:	48 89 85 e0 f6 ff ff 	mov    %rax,-0x920(%rbp)
    ee6a:	48 8d 85 20 f3 ff ff 	lea    -0xce0(%rbp),%rax
    ee71:	48 89 85 e8 f6 ff ff 	mov    %rax,-0x918(%rbp)
    ee78:	48 8d 05 a5 b1 00 00 	lea    0xb1a5(%rip),%rax        # 1a024 <g_3>
    ee7f:	48 89 85 f0 f6 ff ff 	mov    %rax,-0x910(%rbp)
    ee86:	48 8d 85 a0 f5 ff ff 	lea    -0xa60(%rbp),%rax
    ee8d:	48 83 c0 18          	add    $0x18,%rax
    ee91:	48 89 85 f8 f6 ff ff 	mov    %rax,-0x908(%rbp)
    ee98:	48 8d 05 55 b3 00 00 	lea    0xb355(%rip),%rax        # 1a1f4 <g_366+0x4>
    ee9f:	48 89 85 00 f7 ff ff 	mov    %rax,-0x900(%rbp)
    eea6:	48 8d 05 77 b1 00 00 	lea    0xb177(%rip),%rax        # 1a024 <g_3>
    eead:	48 89 85 08 f7 ff ff 	mov    %rax,-0x8f8(%rbp)
    eeb4:	48 8d 85 20 f3 ff ff 	lea    -0xce0(%rbp),%rax
    eebb:	48 89 85 10 f7 ff ff 	mov    %rax,-0x8f0(%rbp)
    eec2:	48 8d 85 20 f3 ff ff 	lea    -0xce0(%rbp),%rax
    eec9:	48 89 85 18 f7 ff ff 	mov    %rax,-0x8e8(%rbp)
    eed0:	48 8d 05 4d b1 00 00 	lea    0xb14d(%rip),%rax        # 1a024 <g_3>
    eed7:	48 89 85 20 f7 ff ff 	mov    %rax,-0x8e0(%rbp)
    eede:	48 8d 85 a0 f5 ff ff 	lea    -0xa60(%rbp),%rax
    eee5:	48 83 c0 18          	add    $0x18,%rax
    eee9:	48 89 85 28 f7 ff ff 	mov    %rax,-0x8d8(%rbp)
    eef0:	48 8d 05 fd b2 00 00 	lea    0xb2fd(%rip),%rax        # 1a1f4 <g_366+0x4>
    eef7:	48 89 85 30 f7 ff ff 	mov    %rax,-0x8d0(%rbp)
    eefe:	48 8d 05 1f b1 00 00 	lea    0xb11f(%rip),%rax        # 1a024 <g_3>
    ef05:	48 89 85 38 f7 ff ff 	mov    %rax,-0x8c8(%rbp)
    ef0c:	48 8d 85 20 f3 ff ff 	lea    -0xce0(%rbp),%rax
    ef13:	48 89 85 40 f7 ff ff 	mov    %rax,-0x8c0(%rbp)
    ef1a:	48 8d 85 20 f3 ff ff 	lea    -0xce0(%rbp),%rax
    ef21:	48 89 85 48 f7 ff ff 	mov    %rax,-0x8b8(%rbp)
    ef28:	48 8d 05 f5 b0 00 00 	lea    0xb0f5(%rip),%rax        # 1a024 <g_3>
    ef2f:	48 89 85 50 f7 ff ff 	mov    %rax,-0x8b0(%rbp)
    ef36:	48 8d 85 a0 f5 ff ff 	lea    -0xa60(%rbp),%rax
    ef3d:	48 83 c0 18          	add    $0x18,%rax
    ef41:	48 89 85 58 f7 ff ff 	mov    %rax,-0x8a8(%rbp)
    ef48:	48 8d 05 a5 b2 00 00 	lea    0xb2a5(%rip),%rax        # 1a1f4 <g_366+0x4>
    ef4f:	48 89 85 60 f7 ff ff 	mov    %rax,-0x8a0(%rbp)
    ef56:	48 8d 05 c7 b0 00 00 	lea    0xb0c7(%rip),%rax        # 1a024 <g_3>
    ef5d:	48 89 85 68 f7 ff ff 	mov    %rax,-0x898(%rbp)
    ef64:	48 8d 85 20 f3 ff ff 	lea    -0xce0(%rbp),%rax
    ef6b:	48 89 85 70 f7 ff ff 	mov    %rax,-0x890(%rbp)
    ef72:	48 8d 85 20 f3 ff ff 	lea    -0xce0(%rbp),%rax
    ef79:	48 89 85 78 f7 ff ff 	mov    %rax,-0x888(%rbp)
    ef80:	48 8d 05 9d b0 00 00 	lea    0xb09d(%rip),%rax        # 1a024 <g_3>
    ef87:	48 89 85 80 f7 ff ff 	mov    %rax,-0x880(%rbp)
    ef8e:	48 8d 85 a0 f5 ff ff 	lea    -0xa60(%rbp),%rax
    ef95:	48 83 c0 18          	add    $0x18,%rax
    ef99:	48 89 85 88 f7 ff ff 	mov    %rax,-0x878(%rbp)
    efa0:	48 8d 05 4d b2 00 00 	lea    0xb24d(%rip),%rax        # 1a1f4 <g_366+0x4>
    efa7:	48 89 85 90 f7 ff ff 	mov    %rax,-0x870(%rbp)
    efae:	48 8d 05 6f b0 00 00 	lea    0xb06f(%rip),%rax        # 1a024 <g_3>
    efb5:	48 89 85 98 f7 ff ff 	mov    %rax,-0x868(%rbp)
    efbc:	66 c7 85 12 f3 ff ff 	movw   $0xffff,-0xcee(%rbp)
    efc3:	ff ff 
    efc5:	48 8d 85 00 f8 ff ff 	lea    -0x800(%rbp),%rax
    efcc:	48 8d 15 ad eb 00 00 	lea    0xebad(%rip),%rdx        # 1db80 <g_3381+0x1300>
    efd3:	b9 3f 00 00 00       	mov    $0x3f,%ecx
    efd8:	48 89 c7             	mov    %rax,%rdi
    efdb:	48 89 d6             	mov    %rdx,%rsi
    efde:	f3 48 a5             	rep movsq %ds:(%rsi),%es:(%rdi)
    efe1:	48 8d 85 00 f8 ff ff 	lea    -0x800(%rbp),%rax
    efe8:	48 05 f8 00 00 00    	add    $0xf8,%rax
    efee:	48 89 85 08 f5 ff ff 	mov    %rax,-0xaf8(%rbp)
    eff5:	c7 85 4c f3 ff ff 00 	movl   $0x0,-0xcb4(%rbp)
    effc:	00 00 00 
    efff:	eb 1e                	jmp    f01f <func_44+0x16fe>
    f001:	8b 85 4c f3 ff ff    	mov    -0xcb4(%rbp),%eax
    f007:	48 98                	cltq   
    f009:	48 8d 15 92 b2 00 00 	lea    0xb292(%rip),%rdx        # 1a2a2 <g_727+0x2>
    f010:	48 89 94 c5 50 f6 ff 	mov    %rdx,-0x9b0(%rbp,%rax,8)
    f017:	ff 
    f018:	83 85 4c f3 ff ff 01 	addl   $0x1,-0xcb4(%rbp)
    f01f:	83 bd 4c f3 ff ff 06 	cmpl   $0x6,-0xcb4(%rbp)
    f026:	7e d9                	jle    f001 <func_44+0x16e0>
    f028:	0f b7 85 12 f3 ff ff 	movzwl -0xcee(%rbp),%eax
    f02f:	83 e8 01             	sub    $0x1,%eax
    f032:	66 89 85 12 f3 ff ff 	mov    %ax,-0xcee(%rbp)
    f039:	48 8b 85 e0 f4 ff ff 	mov    -0xb20(%rbp),%rax
    f040:	8b 18                	mov    (%rax),%ebx
    f042:	0f b7 85 fc f2 ff ff 	movzwl -0xd04(%rbp),%eax
    f049:	44 0f b7 e0          	movzwl %ax,%r12d
    f04d:	0f b7 85 fc f2 ff ff 	movzwl -0xd04(%rbp),%eax
    f054:	0f b7 d0             	movzwl %ax,%edx
    f057:	48 8b 85 e0 f4 ff ff 	mov    -0xb20(%rbp),%rax
    f05e:	8b 00                	mov    (%rax),%eax
    f060:	98                   	cwtl   
    f061:	89 d6                	mov    %edx,%esi
    f063:	89 c7                	mov    %eax,%edi
    f065:	e8 28 a4 ff ff       	callq  9492 <safe_lshift_func_int16_t_s_s>
    f06a:	0f b7 85 fc f2 ff ff 	movzwl -0xd04(%rbp),%eax
    f071:	66 85 c0             	test   %ax,%ax
    f074:	0f 94 c0             	sete   %al
    f077:	0f b6 c0             	movzbl %al,%eax
    f07a:	44 89 e6             	mov    %r12d,%esi
    f07d:	89 c7                	mov    %eax,%edi
    f07f:	e8 79 ae ff ff       	callq  9efd <safe_mod_func_uint32_t_u_u>
    f084:	89 c6                	mov    %eax,%esi
    f086:	bf 00 00 00 00       	mov    $0x0,%edi
    f08b:	e8 02 a4 ff ff       	callq  9492 <safe_lshift_func_int16_t_s_s>
    f090:	b8 01 00 00 00       	mov    $0x1,%eax
    f095:	89 c2                	mov    %eax,%edx
    f097:	8b 85 14 f3 ff ff    	mov    -0xcec(%rbp),%eax
    f09d:	09 d0                	or     %edx,%eax
    f09f:	0f be c0             	movsbl %al,%eax
    f0a2:	be 31 00 00 00       	mov    $0x31,%esi
    f0a7:	89 c7                	mov    %eax,%edi
    f0a9:	e8 44 a1 ff ff       	callq  91f2 <safe_sub_func_int8_t_s_s>
    f0ae:	0f be c0             	movsbl %al,%eax
    f0b1:	be 0a 00 00 00       	mov    $0xa,%esi
    f0b6:	89 c7                	mov    %eax,%edi
    f0b8:	e8 35 a1 ff ff       	callq  91f2 <safe_sub_func_int8_t_s_s>
    f0bd:	0f be c0             	movsbl %al,%eax
    f0c0:	f7 d0                	not    %eax
    f0c2:	89 de                	mov    %ebx,%esi
    f0c4:	89 c7                	mov    %eax,%edi
    f0c6:	e8 34 a6 ff ff       	callq  96ff <safe_div_func_int32_t_s_s>
    f0cb:	0f b7 c0             	movzwl %ax,%eax
    f0ce:	be bc 6a 00 00       	mov    $0x6abc,%esi
    f0d3:	89 c7                	mov    %eax,%edi
    f0d5:	e8 45 ac ff ff       	callq  9d1f <safe_sub_func_uint16_t_u_u>
    f0da:	bf 00 00 00 00       	mov    $0x0,%edi
    f0df:	e8 c2 ad ff ff       	callq  9ea6 <safe_unary_minus_func_uint32_t_u>
    f0e4:	8b 85 a8 f5 ff ff    	mov    -0xa58(%rbp),%eax
    f0ea:	83 c8 08             	or     $0x8,%eax
    f0ed:	89 85 a8 f5 ff ff    	mov    %eax,-0xa58(%rbp)
    f0f3:	8b 85 a8 f5 ff ff    	mov    -0xa58(%rbp),%eax
    f0f9:	98                   	cwtl   
    f0fa:	be b7 2a 00 00       	mov    $0x2ab7,%esi
    f0ff:	89 c7                	mov    %eax,%edi
    f101:	e8 ef a2 ff ff       	callq  93f5 <safe_mul_func_int16_t_s_s>
    f106:	0f b7 85 fc f2 ff ff 	movzwl -0xd04(%rbp),%eax
    f10d:	0f b7 d8             	movzwl %ax,%ebx
    f110:	8b 85 18 f3 ff ff    	mov    -0xce8(%rbp),%eax
    f116:	be 3a b7 02 23       	mov    $0x2302b73a,%esi
    f11b:	89 c7                	mov    %eax,%edi
    f11d:	e8 e3 a4 ff ff       	callq  9605 <safe_sub_func_int32_t_s_s>
    f122:	0f b7 c0             	movzwl %ax,%eax
    f125:	be 01 00 00 00       	mov    $0x1,%esi
    f12a:	89 c7                	mov    %eax,%edi
    f12c:	e8 8d ac ff ff       	callq  9dbe <safe_lshift_func_uint16_t_u_s>
    f131:	0f b7 c0             	movzwl %ax,%eax
    f134:	48 89 de             	mov    %rbx,%rsi
    f137:	48 89 c7             	mov    %rax,%rdi
    f13a:	e8 41 af ff ff       	callq  a080 <safe_mod_func_uint64_t_u_u>
    f13f:	48 8b 05 a2 fe 00 00 	mov    0xfea2(%rip),%rax        # 1efe8 <g_180>
    f146:	48 8b 00             	mov    (%rax),%rax
    f149:	48 8d 95 14 f3 ff ff 	lea    -0xcec(%rbp),%rdx
    f150:	48 89 10             	mov    %rdx,(%rax)
    f153:	66 c7 05 36 af 00 00 	movw   $0xffe6,0xaf36(%rip)        # 1a092 <g_115>
    f15a:	e6 ff 
    f15c:	e9 a6 01 00 00       	jmpq   f307 <func_44+0x19e6>
    f161:	48 b8 3c e8 44 d9 31 	movabs $0x33f5cb31d944e83c,%rax
    f168:	cb f5 33 
    f16b:	48 89 85 10 f5 ff ff 	mov    %rax,-0xaf0(%rbp)
    f172:	c7 85 b4 f3 ff ff 7f 	movl   $0x8faef67f,-0xc4c(%rbp)
    f179:	f6 ae 8f 
    f17c:	c7 85 b8 f3 ff ff 51 	movl   $0xa73d8b51,-0xc48(%rbp)
    f183:	8b 3d a7 
    f186:	c7 85 bc f3 ff ff b2 	movl   $0xa1c605b2,-0xc44(%rbp)
    f18d:	05 c6 a1 
    f190:	48 c7 85 18 f5 ff ff 	movq   $0x0,-0xae8(%rbp)
    f197:	00 00 00 00 
    f19b:	c7 85 c0 f3 ff ff 39 	movl   $0x7a589d39,-0xc40(%rbp)
    f1a2:	9d 58 7a 
    f1a5:	48 8d 05 94 ae 00 00 	lea    0xae94(%rip),%rax        # 1a040 <g_66>
    f1ac:	48 89 85 20 f5 ff ff 	mov    %rax,-0xae0(%rbp)
    f1b3:	c7 85 50 f3 ff ff 00 	movl   $0x0,-0xcb0(%rbp)
    f1ba:	00 00 00 
    f1bd:	e9 87 00 00 00       	jmpq   f249 <func_44+0x1928>
    f1c2:	c7 85 54 f3 ff ff 00 	movl   $0x0,-0xcac(%rbp)
    f1c9:	00 00 00 
    f1cc:	eb 6b                	jmp    f239 <func_44+0x1918>
    f1ce:	c7 85 58 f3 ff ff 00 	movl   $0x0,-0xca8(%rbp)
    f1d5:	00 00 00 
    f1d8:	eb 4f                	jmp    f229 <func_44+0x1908>
    f1da:	8b 85 58 f3 ff ff    	mov    -0xca8(%rbp),%eax
    f1e0:	48 63 f0             	movslq %eax,%rsi
    f1e3:	8b 85 50 f3 ff ff    	mov    -0xcb0(%rbp),%eax
    f1e9:	48 98                	cltq   
    f1eb:	8b 95 54 f3 ff ff    	mov    -0xcac(%rbp),%edx
    f1f1:	48 63 ca             	movslq %edx,%rcx
    f1f4:	48 89 c2             	mov    %rax,%rdx
    f1f7:	48 c1 e2 03          	shl    $0x3,%rdx
    f1fb:	48 01 c2             	add    %rax,%rdx
    f1fe:	48 8d 04 12          	lea    (%rdx,%rdx,1),%rax
    f202:	48 89 c2             	mov    %rax,%rdx
    f205:	48 89 c8             	mov    %rcx,%rax
    f208:	48 01 c0             	add    %rax,%rax
    f20b:	48 01 c8             	add    %rcx,%rax
    f20e:	48 01 c0             	add    %rax,%rax
    f211:	48 01 d0             	add    %rdx,%rax
    f214:	48 01 f0             	add    %rsi,%rax
    f217:	c7 84 85 00 f8 ff ff 	movl   $0xaa8beafe,-0x800(%rbp,%rax,4)
    f21e:	fe ea 8b aa 
    f222:	83 85 58 f3 ff ff 01 	addl   $0x1,-0xca8(%rbp)
    f229:	83 bd 58 f3 ff ff 05 	cmpl   $0x5,-0xca8(%rbp)
    f230:	7e a8                	jle    f1da <func_44+0x18b9>
    f232:	83 85 54 f3 ff ff 01 	addl   $0x1,-0xcac(%rbp)
    f239:	83 bd 54 f3 ff ff 02 	cmpl   $0x2,-0xcac(%rbp)
    f240:	7e 8c                	jle    f1ce <func_44+0x18ad>
    f242:	83 85 50 f3 ff ff 01 	addl   $0x1,-0xcb0(%rbp)
    f249:	83 bd 50 f3 ff ff 09 	cmpl   $0x9,-0xcb0(%rbp)
    f250:	0f 8e 6c ff ff ff    	jle    f1c2 <func_44+0x18a1>
    f256:	c7 85 50 f3 ff ff 00 	movl   $0x0,-0xcb0(%rbp)
    f25d:	00 00 00 
    f260:	eb 1e                	jmp    f280 <func_44+0x195f>
    f262:	8b 85 50 f3 ff ff    	mov    -0xcb0(%rbp),%eax
    f268:	48 98                	cltq   
    f26a:	48 8d 15 0f 00 01 00 	lea    0x1000f(%rip),%rdx        # 1f280 <g_1140+0xa0>
    f271:	48 89 94 c5 50 f6 ff 	mov    %rdx,-0x9b0(%rbp,%rax,8)
    f278:	ff 
    f279:	83 85 50 f3 ff ff 01 	addl   $0x1,-0xcb0(%rbp)
    f280:	83 bd 50 f3 ff ff 01 	cmpl   $0x1,-0xcb0(%rbp)
    f287:	7e d9                	jle    f262 <func_44+0x1941>
    f289:	c7 85 50 f3 ff ff 00 	movl   $0x0,-0xcb0(%rbp)
    f290:	00 00 00 
    f293:	eb 1e                	jmp    f2b3 <func_44+0x1992>
    f295:	8b 85 50 f3 ff ff    	mov    -0xcb0(%rbp),%eax
    f29b:	48 98                	cltq   
    f29d:	48 8d 15 f4 ad 00 00 	lea    0xadf4(%rip),%rdx        # 1a098 <g_126>
    f2a4:	48 89 94 c5 e0 f6 ff 	mov    %rdx,-0x920(%rbp,%rax,8)
    f2ab:	ff 
    f2ac:	83 85 50 f3 ff ff 01 	addl   $0x1,-0xcb0(%rbp)
    f2b3:	83 bd 50 f3 ff ff 08 	cmpl   $0x8,-0xcb0(%rbp)
    f2ba:	7e d9                	jle    f295 <func_44+0x1974>
    f2bc:	48 83 bd 10 f5 ff ff 	cmpq   $0x0,-0xaf0(%rbp)
    f2c3:	00 
    f2c4:	75 54                	jne    f31a <func_44+0x19f9>
    f2c6:	c7 85 20 f3 ff ff 00 	movl   $0x0,-0xce0(%rbp)
    f2cd:	00 00 00 
    f2d0:	90                   	nop
    f2d1:	8b 85 20 f3 ff ff    	mov    -0xce0(%rbp),%eax
    f2d7:	83 f8 f5             	cmp    $0xfffffff5,%eax
    f2da:	7c 12                	jl     f2ee <func_44+0x19cd>
    f2dc:	c7 85 c4 f3 ff ff 74 	movl   $0x3f883b74,-0xc3c(%rbp)
    f2e3:	3b 88 3f 
    f2e6:	8b 85 c4 f3 ff ff    	mov    -0xc3c(%rbp),%eax
    f2ec:	eb 34                	jmp    f322 <func_44+0x1a01>
    f2ee:	48 83 bd 10 f5 ff ff 	cmpq   $0x0,-0xaf0(%rbp)
    f2f5:	00 
    f2f6:	0f b7 05 95 ad 00 00 	movzwl 0xad95(%rip),%eax        # 1a092 <g_115>
    f2fd:	83 c0 01             	add    $0x1,%eax
    f300:	66 89 05 8b ad 00 00 	mov    %ax,0xad8b(%rip)        # 1a092 <g_115>
    f307:	0f b7 05 84 ad 00 00 	movzwl 0xad84(%rip),%eax        # 1a092 <g_115>
    f30e:	66 83 f8 1c          	cmp    $0x1c,%ax
    f312:	0f 85 49 fe ff ff    	jne    f161 <func_44+0x1840>
    f318:	eb 01                	jmp    f31b <func_44+0x19fa>
    f31a:	90                   	nop
    f31b:	0f b7 85 fc f2 ff ff 	movzwl -0xd04(%rbp),%eax
    f322:	48 8b 5d d8          	mov    -0x28(%rbp),%rbx
    f326:	64 48 33 1c 25 28 00 	xor    %fs:0x28,%rbx
    f32d:	00 00 
    f32f:	74 05                	je     f336 <func_44+0x1a15>
    f331:	e8 3a 9d ff ff       	callq  9070 <__stack_chk_fail@plt>
    f336:	48 81 c4 f0 0c 00 00 	add    $0xcf0,%rsp
    f33d:	5b                   	pop    %rbx
    f33e:	41 5c                	pop    %r12
    f340:	41 5d                	pop    %r13
    f342:	41 5e                	pop    %r14
    f344:	5d                   	pop    %rbp
    f345:	c3                   	retq   

000000000000f346 <func_51>:
    f346:	f3 0f 1e fa          	endbr64 
    f34a:	55                   	push   %rbp
    f34b:	48 89 e5             	mov    %rsp,%rbp
    f34e:	48 81 ec a0 01 00 00 	sub    $0x1a0,%rsp
    f355:	89 bd 6c fe ff ff    	mov    %edi,-0x194(%rbp)
    f35b:	64 48 8b 04 25 28 00 	mov    %fs:0x28,%rax
    f362:	00 00 
    f364:	48 89 45 f8          	mov    %rax,-0x8(%rbp)
    f368:	31 c0                	xor    %eax,%eax
    f36a:	48 c7 85 98 fe ff ff 	movq   $0x0,-0x168(%rbp)
    f371:	00 00 00 00 
    f375:	c7 85 88 fe ff ff b9 	movl   $0x59f953b9,-0x178(%rbp)
    f37c:	53 f9 59 
    f37f:	48 8d 05 02 af 00 00 	lea    0xaf02(%rip),%rax        # 1a288 <g_538+0x48>
    f386:	48 89 85 a0 fe ff ff 	mov    %rax,-0x160(%rbp)
    f38d:	66 c7 85 7c fe ff ff 	movw   $0xf345,-0x184(%rbp)
    f394:	45 f3 
    f396:	c7 85 d0 fe ff ff 0f 	movl   $0xf97fe40f,-0x130(%rbp)
    f39d:	e4 7f f9 
    f3a0:	c7 85 d4 fe ff ff 0f 	movl   $0xf97fe40f,-0x12c(%rbp)
    f3a7:	e4 7f f9 
    f3aa:	c7 85 d8 fe ff ff fe 	movl   $0xfffffffe,-0x128(%rbp)
    f3b1:	ff ff ff 
    f3b4:	c7 85 dc fe ff ff 0f 	movl   $0xf97fe40f,-0x124(%rbp)
    f3bb:	e4 7f f9 
    f3be:	c7 85 e0 fe ff ff 0f 	movl   $0xf97fe40f,-0x120(%rbp)
    f3c5:	e4 7f f9 
    f3c8:	c7 85 e4 fe ff ff fe 	movl   $0xfffffffe,-0x11c(%rbp)
    f3cf:	ff ff ff 
    f3d2:	c6 85 7b fe ff ff 01 	movb   $0x1,-0x185(%rbp)
    f3d9:	c7 85 8c fe ff ff 7d 	movl   $0xd058537d,-0x174(%rbp)
    f3e0:	53 58 d0 
    f3e3:	66 c7 85 b0 fe ff ff 	movw   $0x8,-0x150(%rbp)
    f3ea:	08 00 
    f3ec:	66 c7 85 b2 fe ff ff 	movw   $0xed71,-0x14e(%rbp)
    f3f3:	71 ed 
    f3f5:	66 c7 85 b4 fe ff ff 	movw   $0x8,-0x14c(%rbp)
    f3fc:	08 00 
    f3fe:	66 c7 85 b6 fe ff ff 	movw   $0xed71,-0x14a(%rbp)
    f405:	71 ed 
    f407:	66 c7 85 b8 fe ff ff 	movw   $0x8,-0x148(%rbp)
    f40e:	08 00 
    f410:	66 c7 85 ba fe ff ff 	movw   $0xed71,-0x146(%rbp)
    f417:	71 ed 
    f419:	66 c7 85 bc fe ff ff 	movw   $0x8,-0x144(%rbp)
    f420:	08 00 
    f422:	66 c7 85 be fe ff ff 	movw   $0xed71,-0x142(%rbp)
    f429:	71 ed 
    f42b:	66 c7 85 c0 fe ff ff 	movw   $0x8,-0x140(%rbp)
    f432:	08 00 
    f434:	66 c7 85 c2 fe ff ff 	movw   $0xed71,-0x13e(%rbp)
    f43b:	71 ed 
    f43d:	c7 85 90 fe ff ff ff 	movl   $0xffffffff,-0x170(%rbp)
    f444:	ff ff ff 
    f447:	c7 85 94 fe ff ff ff 	movl   $0xffffffff,-0x16c(%rbp)
    f44e:	ff ff ff 
    f451:	66 c7 85 7e fe ff ff 	movw   $0xffff,-0x182(%rbp)
    f458:	ff ff 
    f45a:	c7 85 80 fe ff ff 00 	movl   $0x0,-0x180(%rbp)
    f461:	00 00 00 
    f464:	eb 1e                	jmp    f484 <func_51+0x13e>
    f466:	8b 85 80 fe ff ff    	mov    -0x180(%rbp),%eax
    f46c:	48 98                	cltq   
    f46e:	48 8d 15 23 f4 00 00 	lea    0xf423(%rip),%rdx        # 1e898 <g_54+0x378>
    f475:	48 89 94 c5 a8 fe ff 	mov    %rdx,-0x158(%rbp,%rax,8)
    f47c:	ff 
    f47d:	83 85 80 fe ff ff 01 	addl   $0x1,-0x180(%rbp)
    f484:	83 bd 80 fe ff ff 00 	cmpl   $0x0,-0x180(%rbp)
    f48b:	7e d9                	jle    f466 <func_51+0x120>
    f48d:	c7 85 80 fe ff ff 00 	movl   $0x0,-0x180(%rbp)
    f494:	00 00 00 
    f497:	eb 53                	jmp    f4ec <func_51+0x1a6>
    f499:	c7 85 84 fe ff ff 00 	movl   $0x0,-0x17c(%rbp)
    f4a0:	00 00 00 
    f4a3:	eb 37                	jmp    f4dc <func_51+0x196>
    f4a5:	8b 85 84 fe ff ff    	mov    -0x17c(%rbp),%eax
    f4ab:	48 63 c8             	movslq %eax,%rcx
    f4ae:	8b 85 80 fe ff ff    	mov    -0x180(%rbp),%eax
    f4b4:	48 63 d0             	movslq %eax,%rdx
    f4b7:	48 89 d0             	mov    %rdx,%rax
    f4ba:	48 01 c0             	add    %rax,%rax
    f4bd:	48 01 d0             	add    %rdx,%rax
    f4c0:	48 01 c0             	add    %rax,%rax
    f4c3:	48 01 c8             	add    %rcx,%rax
    f4c6:	48 8d 15 81 ab 00 00 	lea    0xab81(%rip),%rdx        # 1a04e <g_66+0xe>
    f4cd:	48 89 94 c5 30 ff ff 	mov    %rdx,-0xd0(%rbp,%rax,8)
    f4d4:	ff 
    f4d5:	83 85 84 fe ff ff 01 	addl   $0x1,-0x17c(%rbp)
    f4dc:	83 bd 84 fe ff ff 05 	cmpl   $0x5,-0x17c(%rbp)
    f4e3:	7e c0                	jle    f4a5 <func_51+0x15f>
    f4e5:	83 85 80 fe ff ff 01 	addl   $0x1,-0x180(%rbp)
    f4ec:	83 bd 80 fe ff ff 03 	cmpl   $0x3,-0x180(%rbp)
    f4f3:	7e a4                	jle    f499 <func_51+0x153>
    f4f5:	c7 85 80 fe ff ff 00 	movl   $0x0,-0x180(%rbp)
    f4fc:	00 00 00 
    f4ff:	eb 1e                	jmp    f51f <func_51+0x1d9>
    f501:	8b 85 80 fe ff ff    	mov    -0x180(%rbp),%eax
    f507:	48 98                	cltq   
    f509:	48 8d 15 3e ae 00 00 	lea    0xae3e(%rip),%rdx        # 1a34e <g_999+0xe>
    f510:	48 89 94 c5 f0 fe ff 	mov    %rdx,-0x110(%rbp,%rax,8)
    f517:	ff 
    f518:	83 85 80 fe ff ff 01 	addl   $0x1,-0x180(%rbp)
    f51f:	83 bd 80 fe ff ff 06 	cmpl   $0x6,-0x180(%rbp)
    f526:	7e d9                	jle    f501 <func_51+0x1bb>
    f528:	48 8d 05 fd aa 00 00 	lea    0xaafd(%rip),%rax        # 1a02c <g_11>
    f52f:	48 89 85 98 fe ff ff 	mov    %rax,-0x168(%rbp)
    f536:	0f b6 05 d1 ad 00 00 	movzbl 0xadd1(%rip),%eax        # 1a30e <g_962+0xe>
    f53d:	0f b6 c0             	movzbl %al,%eax
    f540:	48 8b 75 f8          	mov    -0x8(%rbp),%rsi
    f544:	64 48 33 34 25 28 00 	xor    %fs:0x28,%rsi
    f54b:	00 00 
    f54d:	74 05                	je     f554 <func_51+0x20e>
    f54f:	e8 1c 9b ff ff       	callq  9070 <__stack_chk_fail@plt>
    f554:	c9                   	leaveq 
    f555:	c3                   	retq   

000000000000f556 <func_72>:
    f556:	f3 0f 1e fa          	endbr64 
    f55a:	55                   	push   %rbp
    f55b:	48 89 e5             	mov    %rsp,%rbp
    f55e:	41 55                	push   %r13
    f560:	41 54                	push   %r12
    f562:	53                   	push   %rbx
    f563:	48 81 ec 98 01 00 00 	sub    $0x198,%rsp
    f56a:	48 89 bd 68 fe ff ff 	mov    %rdi,-0x198(%rbp)
    f571:	89 b5 64 fe ff ff    	mov    %esi,-0x19c(%rbp)
    f577:	48 89 95 58 fe ff ff 	mov    %rdx,-0x1a8(%rbp)
    f57e:	64 48 8b 04 25 28 00 	mov    %fs:0x28,%rax
    f585:	00 00 
    f587:	48 89 45 d8          	mov    %rax,-0x28(%rbp)
    f58b:	31 c0                	xor    %eax,%eax
    f58d:	48 c7 85 e0 fe ff ff 	movq   $0x0,-0x120(%rbp)
    f594:	00 00 00 00 
    f598:	48 c7 85 e8 fe ff ff 	movq   $0x0,-0x118(%rbp)
    f59f:	00 00 00 00 
    f5a3:	48 c7 85 f0 fe ff ff 	movq   $0x0,-0x110(%rbp)
    f5aa:	00 00 00 00 
    f5ae:	48 c7 85 f8 fe ff ff 	movq   $0x0,-0x108(%rbp)
    f5b5:	00 00 00 00 
    f5b9:	48 c7 85 00 ff ff ff 	movq   $0x0,-0x100(%rbp)
    f5c0:	00 00 00 00 
    f5c4:	48 8d 05 a5 aa 00 00 	lea    0xaaa5(%rip),%rax        # 1a070 <g_111>
    f5cb:	48 89 85 40 ff ff ff 	mov    %rax,-0xc0(%rbp)
    f5d2:	48 8d 05 97 aa 00 00 	lea    0xaa97(%rip),%rax        # 1a070 <g_111>
    f5d9:	48 89 85 48 ff ff ff 	mov    %rax,-0xb8(%rbp)
    f5e0:	48 8d 05 21 ac 00 00 	lea    0xac21(%rip),%rax        # 1a208 <g_504>
    f5e7:	48 89 85 50 ff ff ff 	mov    %rax,-0xb0(%rbp)
    f5ee:	48 8d 05 7b aa 00 00 	lea    0xaa7b(%rip),%rax        # 1a070 <g_111>
    f5f5:	48 89 85 58 ff ff ff 	mov    %rax,-0xa8(%rbp)
    f5fc:	48 8d 05 6d aa 00 00 	lea    0xaa6d(%rip),%rax        # 1a070 <g_111>
    f603:	48 89 85 60 ff ff ff 	mov    %rax,-0xa0(%rbp)
    f60a:	48 8d 05 f7 ab 00 00 	lea    0xabf7(%rip),%rax        # 1a208 <g_504>
    f611:	48 89 85 68 ff ff ff 	mov    %rax,-0x98(%rbp)
    f618:	48 8d 05 51 aa 00 00 	lea    0xaa51(%rip),%rax        # 1a070 <g_111>
    f61f:	48 89 85 70 ff ff ff 	mov    %rax,-0x90(%rbp)
    f626:	c7 85 74 fe ff ff 11 	movl   $0xa98a9e11,-0x18c(%rbp)
    f62d:	9e 8a a9 
    f630:	c6 05 5e aa 00 00 fa 	movb   $0xfa,0xaa5e(%rip)        # 1a095 <g_120>
    f637:	e9 38 03 00 00       	jmpq   f974 <func_72+0x41e>
    f63c:	48 c7 85 90 fe ff ff 	movq   $0x0,-0x170(%rbp)
    f643:	00 00 00 00 
    f647:	48 8d 05 ba ab 00 00 	lea    0xabba(%rip),%rax        # 1a208 <g_504>
    f64e:	48 89 85 98 fe ff ff 	mov    %rax,-0x168(%rbp)
    f655:	48 c7 85 a0 fe ff ff 	movq   $0x0,-0x160(%rbp)
    f65c:	00 00 00 00 
    f660:	48 8d 85 40 ff ff ff 	lea    -0xc0(%rbp),%rax
    f667:	48 83 c0 10          	add    $0x10,%rax
    f66b:	48 89 85 a8 fe ff ff 	mov    %rax,-0x158(%rbp)
    f672:	48 8d 05 19 aa 00 00 	lea    0xaa19(%rip),%rax        # 1a092 <g_115>
    f679:	48 89 85 b0 fe ff ff 	mov    %rax,-0x150(%rbp)
    f680:	48 8d 05 8f ab 00 00 	lea    0xab8f(%rip),%rax        # 1a216 <g_506+0x6>
    f687:	48 89 85 b8 fe ff ff 	mov    %rax,-0x148(%rbp)
    f68e:	c7 85 78 fe ff ff ff 	movl   $0xffffffff,-0x188(%rbp)
    f695:	ff ff ff 
    f698:	c7 85 7c fe ff ff ff 	movl   $0xffffffff,-0x184(%rbp)
    f69f:	ff ff ff 
    f6a2:	48 8d 05 17 ac 00 00 	lea    0xac17(%rip),%rax        # 1a2c0 <g_869>
    f6a9:	48 89 85 c0 fe ff ff 	mov    %rax,-0x140(%rbp)
    f6b0:	48 c7 85 c8 fe ff ff 	movq   $0x0,-0x138(%rbp)
    f6b7:	00 00 00 00 
    f6bb:	48 c7 85 d0 fe ff ff 	movq   $0x0,-0x130(%rbp)
    f6c2:	00 00 00 00 
    f6c6:	48 8d 05 2f ab 00 00 	lea    0xab2f(%rip),%rax        # 1a1fc <g_370>
    f6cd:	48 89 45 80          	mov    %rax,-0x80(%rbp)
    f6d1:	48 8d 05 24 ab 00 00 	lea    0xab24(%rip),%rax        # 1a1fc <g_370>
    f6d8:	48 89 45 88          	mov    %rax,-0x78(%rbp)
    f6dc:	48 8d 05 19 ab 00 00 	lea    0xab19(%rip),%rax        # 1a1fc <g_370>
    f6e3:	48 89 45 90          	mov    %rax,-0x70(%rbp)
    f6e7:	48 8d 05 0e ab 00 00 	lea    0xab0e(%rip),%rax        # 1a1fc <g_370>
    f6ee:	48 89 45 98          	mov    %rax,-0x68(%rbp)
    f6f2:	48 8d 05 03 ab 00 00 	lea    0xab03(%rip),%rax        # 1a1fc <g_370>
    f6f9:	48 89 45 a0          	mov    %rax,-0x60(%rbp)
    f6fd:	48 8d 05 f8 aa 00 00 	lea    0xaaf8(%rip),%rax        # 1a1fc <g_370>
    f704:	48 89 45 a8          	mov    %rax,-0x58(%rbp)
    f708:	48 8d 05 ed aa 00 00 	lea    0xaaed(%rip),%rax        # 1a1fc <g_370>
    f70f:	48 89 45 b0          	mov    %rax,-0x50(%rbp)
    f713:	48 8d 05 e2 aa 00 00 	lea    0xaae2(%rip),%rax        # 1a1fc <g_370>
    f71a:	48 89 45 b8          	mov    %rax,-0x48(%rbp)
    f71e:	48 8d 05 d7 aa 00 00 	lea    0xaad7(%rip),%rax        # 1a1fc <g_370>
    f725:	48 89 45 c0          	mov    %rax,-0x40(%rbp)
    f729:	48 8d 05 cc aa 00 00 	lea    0xaacc(%rip),%rax        # 1a1fc <g_370>
    f730:	48 89 45 c8          	mov    %rax,-0x38(%rbp)
    f734:	48 8d 05 f5 a8 00 00 	lea    0xa8f5(%rip),%rax        # 1a030 <g_57>
    f73b:	48 89 85 d8 fe ff ff 	mov    %rax,-0x128(%rbp)
    f742:	c7 85 80 fe ff ff 03 	movl   $0x3,-0x180(%rbp)
    f749:	00 00 00 
    f74c:	c7 85 84 fe ff ff 00 	movl   $0x0,-0x17c(%rbp)
    f753:	00 00 00 
    f756:	c7 85 88 fe ff ff 30 	movl   $0xe15f0c30,-0x178(%rbp)
    f75d:	0c 5f e1 
    f760:	c7 85 8c fe ff ff 85 	movl   $0x696a5585,-0x174(%rbp)
    f767:	55 6a 69 
    f76a:	48 b8 78 9e b1 9e 78 	movabs $0x9eb19e789eb19e78,%rax
    f771:	9e b1 9e 
    f774:	48 89 85 10 ff ff ff 	mov    %rax,-0xf0(%rbp)
    f77b:	48 89 85 18 ff ff ff 	mov    %rax,-0xe8(%rbp)
    f782:	48 89 85 20 ff ff ff 	mov    %rax,-0xe0(%rbp)
    f789:	48 89 85 28 ff ff ff 	mov    %rax,-0xd8(%rbp)
    f790:	48 89 85 30 ff ff ff 	mov    %rax,-0xd0(%rbp)
    f797:	48 89 85 38 ff ff ff 	mov    %rax,-0xc8(%rbp)
    f79e:	66 c7 85 72 fe ff ff 	movw   $0x18d1,-0x18e(%rbp)
    f7a5:	d1 18 
    f7a7:	48 8b 05 d2 f9 00 00 	mov    0xf9d2(%rip),%rax        # 1f180 <g_914>
    f7ae:	48 8b 95 f8 fe ff ff 	mov    -0x108(%rbp),%rdx
    f7b5:	48 89 10             	mov    %rdx,(%rax)
    f7b8:	48 8b 05 a9 f9 00 00 	mov    0xf9a9(%rip),%rax        # 1f168 <g_887>
    f7bf:	48 8b 00             	mov    (%rax),%rax
    f7c2:	48 8b 95 98 fe ff ff 	mov    -0x168(%rbp),%rdx
    f7c9:	48 89 10             	mov    %rdx,(%rax)
    f7cc:	48 8b 08             	mov    (%rax),%rcx
    f7cf:	48 8b 95 50 ff ff ff 	mov    -0xb0(%rbp),%rdx
    f7d6:	48 8b 85 a8 fe ff ff 	mov    -0x158(%rbp),%rax
    f7dd:	48 89 10             	mov    %rdx,(%rax)
    f7e0:	48 8b 85 a8 fe ff ff 	mov    -0x158(%rbp),%rax
    f7e7:	48 8b 00             	mov    (%rax),%rax
    f7ea:	48 39 c1             	cmp    %rax,%rcx
    f7ed:	0f 94 c0             	sete   %al
    f7f0:	0f b6 d0             	movzbl %al,%edx
    f7f3:	48 8b 85 b0 fe ff ff 	mov    -0x150(%rbp),%rax
    f7fa:	66 89 10             	mov    %dx,(%rax)
    f7fd:	48 8b 85 b0 fe ff ff 	mov    -0x150(%rbp),%rax
    f804:	0f b7 10             	movzwl (%rax),%edx
    f807:	48 8b 85 b8 fe ff ff 	mov    -0x148(%rbp),%rax
    f80e:	66 89 10             	mov    %dx,(%rax)
    f811:	8b 85 64 fe ff ff    	mov    -0x19c(%rbp),%eax
    f817:	0f b7 d8             	movzwl %ax,%ebx
    f81a:	8b 05 d4 a9 00 00    	mov    0xa9d4(%rip),%eax        # 1a1f4 <g_366+0x4>
    f820:	41 89 c4             	mov    %eax,%r12d
    f823:	8b 05 3f a8 00 00    	mov    0xa83f(%rip),%eax        # 1a068 <g_66+0x28>
    f829:	c1 e0 04             	shl    $0x4,%eax
    f82c:	c1 f8 04             	sar    $0x4,%eax
    f82f:	41 89 c5             	mov    %eax,%r13d
    f832:	0f b6 05 af aa 00 00 	movzbl 0xaaaf(%rip),%eax        # 1a2e8 <g_899+0x8>
    f839:	3c 6e                	cmp    $0x6e,%al
    f83b:	8b 85 7c fe ff ff    	mov    -0x184(%rbp),%eax
    f841:	0f b6 c0             	movzbl %al,%eax
    f844:	be 04 00 00 00       	mov    $0x4,%esi
    f849:	89 c7                	mov    %eax,%edi
    f84b:	e8 fc a3 ff ff       	callq  9c4c <safe_lshift_func_uint8_t_u_u>
    f850:	0f b6 c0             	movzbl %al,%eax
    f853:	be 0e 00 00 00       	mov    $0xe,%esi
    f858:	89 c7                	mov    %eax,%edi
    f85a:	e8 e9 a5 ff ff       	callq  9e48 <safe_rshift_func_uint16_t_u_s>
    f85f:	48 8b 15 4a aa 00 00 	mov    0xaa4a(%rip),%rdx        # 1a2b0 <g_851>
    f866:	8b 85 64 fe ff ff    	mov    -0x19c(%rbp),%eax
    f86c:	48 98                	cltq   
    f86e:	48 39 c2             	cmp    %rax,%rdx
    f871:	ba 00 00 00 00       	mov    $0x0,%edx
    f876:	48 8b 85 c0 fe ff ff 	mov    -0x140(%rbp),%rax
    f87d:	0f b6 00             	movzbl (%rax),%eax
    f880:	09 c2                	or     %eax,%edx
    f882:	48 8b 85 c0 fe ff ff 	mov    -0x140(%rbp),%rax
    f889:	88 10                	mov    %dl,(%rax)
    f88b:	48 8b 85 c0 fe ff ff 	mov    -0x140(%rbp),%rax
    f892:	0f b6 00             	movzbl (%rax),%eax
    f895:	0f be c0             	movsbl %al,%eax
    f898:	39 85 78 fe ff ff    	cmp    %eax,-0x188(%rbp)
    f89e:	0f 9d c0             	setge  %al
    f8a1:	0f b6 c0             	movzbl %al,%eax
    f8a4:	44 89 ee             	mov    %r13d,%esi
    f8a7:	89 c7                	mov    %eax,%edi
    f8a9:	e8 08 9d ff ff       	callq  95b6 <safe_add_func_int32_t_s_s>
    f8ae:	89 c2                	mov    %eax,%edx
    f8b0:	8b 05 e2 a7 00 00    	mov    0xa7e2(%rip),%eax        # 1a098 <g_126>
    f8b6:	21 d0                	and    %edx,%eax
    f8b8:	89 c2                	mov    %eax,%edx
    f8ba:	0f b7 05 3b a9 00 00 	movzwl 0xa93b(%rip),%eax        # 1a1fc <g_370>
    f8c1:	21 d0                	and    %edx,%eax
    f8c3:	66 89 05 32 a9 00 00 	mov    %ax,0xa932(%rip)        # 1a1fc <g_370>
    f8ca:	0f b7 05 2b a9 00 00 	movzwl 0xa92b(%rip),%eax        # 1a1fc <g_370>
    f8d1:	98                   	cwtl   
    f8d2:	44 89 e6             	mov    %r12d,%esi
    f8d5:	89 c7                	mov    %eax,%edi
    f8d7:	e8 05 9c ff ff       	callq  94e1 <safe_lshift_func_int16_t_s_u>
    f8dc:	89 c2                	mov    %eax,%edx
    f8de:	48 8b 85 d8 fe ff ff 	mov    -0x128(%rbp),%rax
    f8e5:	66 89 10             	mov    %dx,(%rax)
    f8e8:	48 8b 85 d8 fe ff ff 	mov    -0x128(%rbp),%rax
    f8ef:	0f b7 00             	movzwl (%rax),%eax
    f8f2:	0f b7 c0             	movzwl %ax,%eax
    f8f5:	89 de                	mov    %ebx,%esi
    f8f7:	89 c7                	mov    %eax,%edi
    f8f9:	e8 3f a4 ff ff       	callq  9d3d <safe_mul_func_uint16_t_u_u>
    f8fe:	8b 05 28 a7 00 00    	mov    0xa728(%rip),%eax        # 1a02c <g_11>
    f904:	0f b7 d0             	movzwl %ax,%edx
    f907:	8b 85 64 fe ff ff    	mov    -0x19c(%rbp),%eax
    f90d:	0f b7 c0             	movzwl %ax,%eax
    f910:	89 d6                	mov    %edx,%esi
    f912:	89 c7                	mov    %eax,%edi
    f914:	e8 43 a4 ff ff       	callq  9d5c <safe_mod_func_uint16_t_u_u>
    f919:	0f b7 c0             	movzwl %ax,%eax
    f91c:	be c4 99 a9 65       	mov    $0x65a999c4,%esi
    f921:	89 c7                	mov    %eax,%edi
    f923:	e8 fd a5 ff ff       	callq  9f25 <safe_div_func_uint32_t_u_u>
    f928:	0f be c0             	movsbl %al,%eax
    f92b:	be 03 00 00 00       	mov    $0x3,%esi
    f930:	89 c7                	mov    %eax,%edi
    f932:	e8 6a 99 ff ff       	callq  92a1 <safe_lshift_func_int8_t_s_s>
    f937:	83 bd 64 fe ff ff 00 	cmpl   $0x0,-0x19c(%rbp)
    f93e:	0f 9f c0             	setg   %al
    f941:	0f b6 c0             	movzbl %al,%eax
    f944:	be f8 ff ff ff       	mov    $0xfffffff8,%esi
    f949:	89 c7                	mov    %eax,%edi
    f94b:	e8 e1 98 ff ff       	callq  9231 <safe_mod_func_int8_t_s_s>
    f950:	0f be d0             	movsbl %al,%edx
    f953:	48 8b 85 58 fe ff ff 	mov    -0x1a8(%rbp),%rax
    f95a:	89 10                	mov    %edx,(%rax)
    f95c:	66 83 ad 72 fe ff ff 	subw   $0x1,-0x18e(%rbp)
    f963:	01 
    f964:	0f b6 05 2a a7 00 00 	movzbl 0xa72a(%rip),%eax        # 1a095 <g_120>
    f96b:	83 c0 01             	add    $0x1,%eax
    f96e:	88 05 21 a7 00 00    	mov    %al,0xa721(%rip)        # 1a095 <g_120>
    f974:	0f b6 05 1a a7 00 00 	movzbl 0xa71a(%rip),%eax        # 1a095 <g_120>
    f97b:	3c 0b                	cmp    $0xb,%al
    f97d:	0f 84 b9 fc ff ff    	je     f63c <func_72+0xe6>
    f983:	48 8b 85 68 fe ff ff 	mov    -0x198(%rbp),%rax
    f98a:	48 8b 0d ef a7 00 00 	mov    0xa7ef(%rip),%rcx        # 1a180 <g_142>
    f991:	48 8b 1d f0 a7 00 00 	mov    0xa7f0(%rip),%rbx        # 1a188 <g_142+0x8>
    f998:	48 89 08             	mov    %rcx,(%rax)
    f99b:	48 89 58 08          	mov    %rbx,0x8(%rax)
    f99f:	48 8b 0d ea a7 00 00 	mov    0xa7ea(%rip),%rcx        # 1a190 <g_142+0x10>
    f9a6:	48 8b 1d eb a7 00 00 	mov    0xa7eb(%rip),%rbx        # 1a198 <g_142+0x18>
    f9ad:	48 89 48 10          	mov    %rcx,0x10(%rax)
    f9b1:	48 89 58 18          	mov    %rbx,0x18(%rax)
    f9b5:	48 8b 0d e4 a7 00 00 	mov    0xa7e4(%rip),%rcx        # 1a1a0 <g_142+0x20>
    f9bc:	48 8b 1d e5 a7 00 00 	mov    0xa7e5(%rip),%rbx        # 1a1a8 <g_142+0x28>
    f9c3:	48 89 48 20          	mov    %rcx,0x20(%rax)
    f9c7:	48 89 58 28          	mov    %rbx,0x28(%rax)
    f9cb:	48 8b 45 d8          	mov    -0x28(%rbp),%rax
    f9cf:	64 48 33 04 25 28 00 	xor    %fs:0x28,%rax
    f9d6:	00 00 
    f9d8:	74 05                	je     f9df <func_72+0x489>
    f9da:	e8 91 96 ff ff       	callq  9070 <__stack_chk_fail@plt>
    f9df:	48 8b 85 68 fe ff ff 	mov    -0x198(%rbp),%rax
    f9e6:	48 81 c4 98 01 00 00 	add    $0x198,%rsp
    f9ed:	5b                   	pop    %rbx
    f9ee:	41 5c                	pop    %r12
    f9f0:	41 5d                	pop    %r13
    f9f2:	5d                   	pop    %rbp
    f9f3:	c3                   	retq   

000000000000f9f4 <func_80>:
    f9f4:	f3 0f 1e fa          	endbr64 
    f9f8:	55                   	push   %rbp
    f9f9:	48 89 e5             	mov    %rsp,%rbp
    f9fc:	48 81 ec 00 10 00 00 	sub    $0x1000,%rsp
    fa03:	48 83 0c 24 00       	orq    $0x0,(%rsp)
    fa08:	48 81 ec 90 07 00 00 	sub    $0x790,%rsp
    fa0f:	89 f8                	mov    %edi,%eax
    fa11:	88 85 7c e8 ff ff    	mov    %al,-0x1784(%rbp)
    fa17:	64 48 8b 04 25 28 00 	mov    %fs:0x28,%rax
    fa1e:	00 00 
    fa20:	48 89 45 f8          	mov    %rax,-0x8(%rbp)
    fa24:	31 c0                	xor    %eax,%eax
    fa26:	66 c7 85 88 e8 ff ff 	movw   $0x996a,-0x1778(%rbp)
    fa2d:	6a 99 
    fa2f:	c7 85 b0 e8 ff ff d5 	movl   $0x29ed7cd5,-0x1750(%rbp)
    fa36:	7c ed 29 
    fa39:	c7 85 94 e8 ff ff 08 	movl   $0x8,-0x176c(%rbp)
    fa40:	00 00 00 
    fa43:	66 c7 85 8a e8 ff ff 	movw   $0xf357,-0x1776(%rbp)
    fa4a:	57 f3 
    fa4c:	48 c7 85 f0 e8 ff ff 	movq   $0x0,-0x1710(%rbp)
    fa53:	00 00 00 00 
    fa57:	48 b8 7d b5 9c 7b a7 	movabs $0x109e43a77b9cb57d,%rax
    fa5e:	43 9e 10 
    fa61:	48 89 85 10 e9 ff ff 	mov    %rax,-0x16f0(%rbp)
    fa68:	48 8d 85 60 f8 ff ff 	lea    -0x7a0(%rbp),%rax
    fa6f:	48 8d 15 0a e3 00 00 	lea    0xe30a(%rip),%rdx        # 1dd80 <g_3381+0x1500>
    fa76:	b9 f3 00 00 00       	mov    $0xf3,%ecx
    fa7b:	48 89 c7             	mov    %rax,%rdi
    fa7e:	48 89 d6             	mov    %rdx,%rsi
    fa81:	f3 48 a5             	rep movsq %ds:(%rsi),%es:(%rdi)
    fa84:	c7 85 a0 e9 ff ff 02 	movl   $0x2,-0x1660(%rbp)
    fa8b:	00 00 00 
    fa8e:	c7 85 a4 e9 ff ff 02 	movl   $0x2,-0x165c(%rbp)
    fa95:	00 00 00 
    fa98:	c7 85 a8 e9 ff ff 02 	movl   $0x2,-0x1658(%rbp)
    fa9f:	00 00 00 
    faa2:	c7 85 ac e9 ff ff 02 	movl   $0x2,-0x1654(%rbp)
    faa9:	00 00 00 
    faac:	c7 85 b0 e9 ff ff 02 	movl   $0x2,-0x1650(%rbp)
    fab3:	00 00 00 
    fab6:	c7 85 b4 e9 ff ff 02 	movl   $0x2,-0x164c(%rbp)
    fabd:	00 00 00 
    fac0:	c6 85 85 e8 ff ff 26 	movb   $0x26,-0x177b(%rbp)
    fac7:	c7 85 b4 e8 ff ff d5 	movl   $0x1eedb1d5,-0x174c(%rbp)
    face:	b1 ed 1e 
    fad1:	c7 85 b8 e8 ff ff 61 	movl   $0xddd2a761,-0x1748(%rbp)
    fad8:	a7 d2 dd 
    fadb:	c7 85 bc e8 ff ff 07 	movl   $0x7,-0x1744(%rbp)
    fae2:	00 00 00 
    fae5:	c6 85 86 e8 ff ff f7 	movb   $0xf7,-0x177a(%rbp)
    faec:	c7 85 98 e8 ff ff fc 	movl   $0xfffffffc,-0x1768(%rbp)
    faf3:	ff ff ff 
    faf6:	66 c7 85 8c e8 ff ff 	movw   $0x3fe0,-0x1774(%rbp)
    fafd:	e0 3f 
    faff:	48 c7 85 c0 eb ff ff 	movq   $0x1,-0x1440(%rbp)
    fb06:	01 00 00 00 
    fb0a:	48 c7 85 c8 eb ff ff 	movq   $0x1,-0x1438(%rbp)
    fb11:	01 00 00 00 
    fb15:	48 c7 85 d0 eb ff ff 	movq   $0x1,-0x1430(%rbp)
    fb1c:	01 00 00 00 
    fb20:	48 c7 85 d8 eb ff ff 	movq   $0x1,-0x1428(%rbp)
    fb27:	01 00 00 00 
    fb2b:	48 c7 85 e0 eb ff ff 	movq   $0x1,-0x1420(%rbp)
    fb32:	01 00 00 00 
    fb36:	48 c7 85 e8 eb ff ff 	movq   $0x1,-0x1418(%rbp)
    fb3d:	01 00 00 00 
    fb41:	48 c7 85 f0 eb ff ff 	movq   $0x1,-0x1410(%rbp)
    fb48:	01 00 00 00 
    fb4c:	48 c7 85 f8 eb ff ff 	movq   $0x1,-0x1408(%rbp)
    fb53:	01 00 00 00 
    fb57:	48 c7 85 00 ec ff ff 	movq   $0x1,-0x1400(%rbp)
    fb5e:	01 00 00 00 
    fb62:	48 c7 85 08 ec ff ff 	movq   $0x1,-0x13f8(%rbp)
    fb69:	01 00 00 00 
    fb6d:	48 c7 85 10 ec ff ff 	movq   $0x1,-0x13f0(%rbp)
    fb74:	01 00 00 00 
    fb78:	48 c7 85 18 ec ff ff 	movq   $0x1,-0x13e8(%rbp)
    fb7f:	01 00 00 00 
    fb83:	48 c7 85 20 ec ff ff 	movq   $0x1,-0x13e0(%rbp)
    fb8a:	01 00 00 00 
    fb8e:	48 c7 85 28 ec ff ff 	movq   $0x1,-0x13d8(%rbp)
    fb95:	01 00 00 00 
    fb99:	48 c7 85 30 ec ff ff 	movq   $0x1,-0x13d0(%rbp)
    fba0:	01 00 00 00 
    fba4:	48 c7 85 38 ec ff ff 	movq   $0x1,-0x13c8(%rbp)
    fbab:	01 00 00 00 
    fbaf:	48 c7 85 40 ec ff ff 	movq   $0x1,-0x13c0(%rbp)
    fbb6:	01 00 00 00 
    fbba:	48 c7 85 48 ec ff ff 	movq   $0x1,-0x13b8(%rbp)
    fbc1:	01 00 00 00 
    fbc5:	48 c7 85 50 ec ff ff 	movq   $0x1,-0x13b0(%rbp)
    fbcc:	01 00 00 00 
    fbd0:	48 c7 85 58 ec ff ff 	movq   $0x1,-0x13a8(%rbp)
    fbd7:	01 00 00 00 
    fbdb:	48 c7 85 60 ec ff ff 	movq   $0x1,-0x13a0(%rbp)
    fbe2:	01 00 00 00 
    fbe6:	48 c7 85 68 ec ff ff 	movq   $0x1,-0x1398(%rbp)
    fbed:	01 00 00 00 
    fbf1:	48 c7 85 70 ec ff ff 	movq   $0x1,-0x1390(%rbp)
    fbf8:	01 00 00 00 
    fbfc:	48 c7 85 78 ec ff ff 	movq   $0x1,-0x1388(%rbp)
    fc03:	01 00 00 00 
    fc07:	48 c7 85 80 ec ff ff 	movq   $0x1,-0x1380(%rbp)
    fc0e:	01 00 00 00 
    fc12:	48 c7 85 88 ec ff ff 	movq   $0x1,-0x1378(%rbp)
    fc19:	01 00 00 00 
    fc1d:	48 c7 85 90 ec ff ff 	movq   $0x1,-0x1370(%rbp)
    fc24:	01 00 00 00 
    fc28:	48 c7 85 98 ec ff ff 	movq   $0x1,-0x1368(%rbp)
    fc2f:	01 00 00 00 
    fc33:	48 c7 85 a0 ec ff ff 	movq   $0x1,-0x1360(%rbp)
    fc3a:	01 00 00 00 
    fc3e:	48 c7 85 a8 ec ff ff 	movq   $0x1,-0x1358(%rbp)
    fc45:	01 00 00 00 
    fc49:	48 c7 85 b0 ec ff ff 	movq   $0x1,-0x1350(%rbp)
    fc50:	01 00 00 00 
    fc54:	48 c7 85 b8 ec ff ff 	movq   $0x1,-0x1348(%rbp)
    fc5b:	01 00 00 00 
    fc5f:	48 c7 85 f8 e8 ff ff 	movq   $0x0,-0x1708(%rbp)
    fc66:	00 00 00 00 
    fc6a:	48 c7 85 18 e9 ff ff 	movq   $0x0,-0x16e8(%rbp)
    fc71:	00 00 00 00 
    fc75:	48 c7 85 10 ea ff ff 	movq   $0x0,-0x15f0(%rbp)
    fc7c:	00 00 00 00 
    fc80:	48 c7 85 18 ea ff ff 	movq   $0x0,-0x15e8(%rbp)
    fc87:	00 00 00 00 
    fc8b:	48 c7 85 20 ea ff ff 	movq   $0x0,-0x15e0(%rbp)
    fc92:	00 00 00 00 
    fc96:	48 8d 05 d3 a3 00 00 	lea    0xa3d3(%rip),%rax        # 1a070 <g_111>
    fc9d:	48 89 85 28 ea ff ff 	mov    %rax,-0x15d8(%rbp)
    fca4:	48 8d 05 c5 a3 00 00 	lea    0xa3c5(%rip),%rax        # 1a070 <g_111>
    fcab:	48 89 85 30 ea ff ff 	mov    %rax,-0x15d0(%rbp)
    fcb2:	48 8d 05 b7 a3 00 00 	lea    0xa3b7(%rip),%rax        # 1a070 <g_111>
    fcb9:	48 89 85 38 ea ff ff 	mov    %rax,-0x15c8(%rbp)
    fcc0:	48 8d 85 10 ea ff ff 	lea    -0x15f0(%rbp),%rax
    fcc7:	48 83 c0 18          	add    $0x18,%rax
    fccb:	48 89 85 00 e9 ff ff 	mov    %rax,-0x1700(%rbp)
    fcd2:	48 8d 85 00 e9 ff ff 	lea    -0x1700(%rbp),%rax
    fcd9:	48 89 85 20 e9 ff ff 	mov    %rax,-0x16e0(%rbp)
    fce0:	66 c7 85 8e e8 ff ff 	movw   $0x25b7,-0x1772(%rbp)
    fce7:	b7 25 
    fce9:	c7 85 9c e8 ff ff 00 	movl   $0x0,-0x1764(%rbp)
    fcf0:	00 00 00 
    fcf3:	eb 72                	jmp    fd67 <func_80+0x373>
    fcf5:	c7 85 a0 e8 ff ff 00 	movl   $0x0,-0x1760(%rbp)
    fcfc:	00 00 00 
    fcff:	eb 56                	jmp    fd57 <func_80+0x363>
    fd01:	c7 85 a4 e8 ff ff 00 	movl   $0x0,-0x175c(%rbp)
    fd08:	00 00 00 
    fd0b:	eb 3a                	jmp    fd47 <func_80+0x353>
    fd0d:	8b 85 a4 e8 ff ff    	mov    -0x175c(%rbp),%eax
    fd13:	48 63 d0             	movslq %eax,%rdx
    fd16:	8b 85 a0 e8 ff ff    	mov    -0x1760(%rbp),%eax
    fd1c:	48 98                	cltq   
    fd1e:	8b 8d 9c e8 ff ff    	mov    -0x1764(%rbp),%ecx
    fd24:	48 63 c9             	movslq %ecx,%rcx
    fd27:	48 c1 e1 02          	shl    $0x2,%rcx
    fd2b:	48 01 ca             	add    %rcx,%rdx
    fd2e:	48 01 c2             	add    %rax,%rdx
    fd31:	48 8d 85 f0 e8 ff ff 	lea    -0x1710(%rbp),%rax
    fd38:	48 89 84 d5 c0 ea ff 	mov    %rax,-0x1540(%rbp,%rdx,8)
    fd3f:	ff 
    fd40:	83 85 a4 e8 ff ff 01 	addl   $0x1,-0x175c(%rbp)
    fd47:	83 bd a4 e8 ff ff 00 	cmpl   $0x0,-0x175c(%rbp)
    fd4e:	7e bd                	jle    fd0d <func_80+0x319>
    fd50:	83 85 a0 e8 ff ff 01 	addl   $0x1,-0x1760(%rbp)
    fd57:	83 bd a0 e8 ff ff 03 	cmpl   $0x3,-0x1760(%rbp)
    fd5e:	7e a1                	jle    fd01 <func_80+0x30d>
    fd60:	83 85 9c e8 ff ff 01 	addl   $0x1,-0x1764(%rbp)
    fd67:	83 bd 9c e8 ff ff 07 	cmpl   $0x7,-0x1764(%rbp)
    fd6e:	7e 85                	jle    fcf5 <func_80+0x301>
    fd70:	90                   	nop
    fd71:	c6 05 d6 a2 00 00 f6 	movb   $0xf6,0xa2d6(%rip)        # 1a04e <g_66+0xe>
    fd78:	e9 ae 01 00 00       	jmpq   ff2b <func_80+0x537>
    fd7d:	48 8d 05 c0 a2 00 00 	lea    0xa2c0(%rip),%rax        # 1a044 <g_66+0x4>
    fd84:	48 89 85 58 e9 ff ff 	mov    %rax,-0x16a8(%rbp)
    fd8b:	48 8d 05 de a2 00 00 	lea    0xa2de(%rip),%rax        # 1a070 <g_111>
    fd92:	48 89 85 a0 f1 ff ff 	mov    %rax,-0xe60(%rbp)
    fd99:	48 8d 05 d0 a2 00 00 	lea    0xa2d0(%rip),%rax        # 1a070 <g_111>
    fda0:	48 89 85 a8 f1 ff ff 	mov    %rax,-0xe58(%rbp)
    fda7:	48 8d 05 c2 a2 00 00 	lea    0xa2c2(%rip),%rax        # 1a070 <g_111>
    fdae:	48 89 85 b0 f1 ff ff 	mov    %rax,-0xe50(%rbp)
    fdb5:	48 8d 05 b4 a2 00 00 	lea    0xa2b4(%rip),%rax        # 1a070 <g_111>
    fdbc:	48 89 85 b8 f1 ff ff 	mov    %rax,-0xe48(%rbp)
    fdc3:	48 8d 05 a6 a2 00 00 	lea    0xa2a6(%rip),%rax        # 1a070 <g_111>
    fdca:	48 89 85 c0 f1 ff ff 	mov    %rax,-0xe40(%rbp)
    fdd1:	48 8d 05 98 a2 00 00 	lea    0xa298(%rip),%rax        # 1a070 <g_111>
    fdd8:	48 89 85 c8 f1 ff ff 	mov    %rax,-0xe38(%rbp)
    fddf:	48 8d 05 8a a2 00 00 	lea    0xa28a(%rip),%rax        # 1a070 <g_111>
    fde6:	48 89 85 d0 f1 ff ff 	mov    %rax,-0xe30(%rbp)
    fded:	48 8d 05 7c a2 00 00 	lea    0xa27c(%rip),%rax        # 1a070 <g_111>
    fdf4:	48 89 85 d8 f1 ff ff 	mov    %rax,-0xe28(%rbp)
    fdfb:	48 8d 05 6e a2 00 00 	lea    0xa26e(%rip),%rax        # 1a070 <g_111>
    fe02:	48 89 85 e0 f1 ff ff 	mov    %rax,-0xe20(%rbp)
    fe09:	48 8d 05 60 a2 00 00 	lea    0xa260(%rip),%rax        # 1a070 <g_111>
    fe10:	48 89 85 e8 f1 ff ff 	mov    %rax,-0xe18(%rbp)
    fe17:	c7 85 ec e8 ff ff 00 	movl   $0x0,-0x1714(%rbp)
    fe1e:	00 00 00 
    fe21:	48 8d 05 6c a2 00 00 	lea    0xa26c(%rip),%rax        # 1a094 <g_118>
    fe28:	48 89 85 60 e9 ff ff 	mov    %rax,-0x16a0(%rbp)
    fe2f:	48 8d 05 5f a2 00 00 	lea    0xa25f(%rip),%rax        # 1a095 <g_120>
    fe36:	48 89 85 68 e9 ff ff 	mov    %rax,-0x1698(%rbp)
    fe3d:	c7 85 c0 ec ff ff 3e 	movl   $0xfff60d3e,-0x1340(%rbp)
    fe44:	0d f6 ff 
    fe47:	c7 85 c4 ec ff ff 3e 	movl   $0xfff60d3e,-0x133c(%rbp)
    fe4e:	0d f6 ff 
    fe51:	c7 85 c8 ec ff ff 3e 	movl   $0xfff60d3e,-0x1338(%rbp)
    fe58:	0d f6 ff 
    fe5b:	c7 85 cc ec ff ff 3e 	movl   $0xfff60d3e,-0x1334(%rbp)
    fe62:	0d f6 ff 
    fe65:	48 c7 85 70 e9 ff ff 	movq   $0x8,-0x1690(%rbp)
    fe6c:	08 00 00 00 
    fe70:	48 8d 05 49 a2 00 00 	lea    0xa249(%rip),%rax        # 1a0c0 <g_139>
    fe77:	48 89 85 78 e9 ff ff 	mov    %rax,-0x1688(%rbp)
    fe7e:	48 c7 85 08 e9 ff ff 	movq   $0x0,-0x16f8(%rbp)
    fe85:	00 00 00 00 
    fe89:	48 8d 85 08 e9 ff ff 	lea    -0x16f8(%rbp),%rax
    fe90:	48 89 85 80 e9 ff ff 	mov    %rax,-0x1680(%rbp)
    fe97:	48 8d 85 f0 e8 ff ff 	lea    -0x1710(%rbp),%rax
    fe9e:	48 89 85 88 e9 ff ff 	mov    %rax,-0x1678(%rbp)
    fea5:	66 c7 85 92 e8 ff ff 	movw   $0x0,-0x176e(%rbp)
    feac:	00 00 
    feae:	48 8d 85 40 ee ff ff 	lea    -0x11c0(%rbp),%rax
    feb5:	48 89 85 90 e9 ff ff 	mov    %rax,-0x1670(%rbp)
    febc:	c7 85 a8 e8 ff ff 00 	movl   $0x0,-0x1758(%rbp)
    fec3:	00 00 00 
    fec6:	eb 1b                	jmp    fee3 <func_80+0x4ef>
    fec8:	8b 85 a8 e8 ff ff    	mov    -0x1758(%rbp),%eax
    fece:	48 98                	cltq   
    fed0:	48 c7 84 c5 40 ee ff 	movq   $0x0,-0x11c0(%rbp,%rax,8)
    fed7:	ff 00 00 00 00 
    fedc:	83 85 a8 e8 ff ff 01 	addl   $0x1,-0x1758(%rbp)
    fee3:	83 bd a8 e8 ff ff 02 	cmpl   $0x2,-0x1758(%rbp)
    feea:	7e dc                	jle    fec8 <func_80+0x4d4>
    feec:	c7 85 a8 e8 ff ff 00 	movl   $0x0,-0x1758(%rbp)
    fef3:	00 00 00 
    fef6:	eb 1a                	jmp    ff12 <func_80+0x51e>
    fef8:	8b 85 a8 e8 ff ff    	mov    -0x1758(%rbp),%eax
    fefe:	48 98                	cltq   
    ff00:	c7 84 85 80 ea ff ff 	movl   $0xffffffff,-0x1580(%rbp,%rax,4)
    ff07:	ff ff ff ff 
    ff0b:	83 85 a8 e8 ff ff 01 	addl   $0x1,-0x1758(%rbp)
    ff12:	83 bd a8 e8 ff ff 00 	cmpl   $0x0,-0x1758(%rbp)
    ff19:	7e dd                	jle    fef8 <func_80+0x504>
    ff1b:	0f b6 05 2c a1 00 00 	movzbl 0xa12c(%rip),%eax        # 1a04e <g_66+0xe>
    ff22:	83 c0 01             	add    $0x1,%eax
    ff25:	88 05 23 a1 00 00    	mov    %al,0xa123(%rip)        # 1a04e <g_66+0xe>
    ff2b:	0f b6 05 1c a1 00 00 	movzbl 0xa11c(%rip),%eax        # 1a04e <g_66+0xe>
    ff32:	3c 2e                	cmp    $0x2e,%al
    ff34:	0f 86 43 fe ff ff    	jbe    fd7d <func_80+0x389>
    ff3a:	c6 05 6f a2 00 00 00 	movb   $0x0,0xa26f(%rip)        # 1a1b0 <g_161>
    ff41:	e9 7e 14 00 00       	jmpq   113c4 <func_80+0x19d0>
    ff46:	c7 85 c0 e8 ff ff a7 	movl   $0x1b348a7,-0x1740(%rbp)
    ff4d:	48 b3 01 
    ff50:	48 8d 05 41 a1 00 00 	lea    0xa141(%rip),%rax        # 1a098 <g_126>
    ff57:	48 89 85 28 e9 ff ff 	mov    %rax,-0x16d8(%rbp)
    ff5e:	c7 85 c4 e8 ff ff 6d 	movl   $0xd040726d,-0x173c(%rbp)
    ff65:	72 40 d0 
    ff68:	c7 85 c8 e8 ff ff c6 	movl   $0xf4e25dc6,-0x1738(%rbp)
    ff6f:	5d e2 f4 
    ff72:	48 8d 05 83 a2 00 00 	lea    0xa283(%rip),%rax        # 1a1fc <g_370>
    ff79:	48 89 85 30 e9 ff ff 	mov    %rax,-0x16d0(%rbp)
    ff80:	c6 85 87 e8 ff ff 00 	movb   $0x0,-0x1779(%rbp)
    ff87:	48 c7 85 38 e9 ff ff 	movq   $0xffffffffffffffff,-0x16c8(%rbp)
    ff8e:	ff ff ff ff 
    ff92:	c7 85 cc e8 ff ff f6 	movl   $0xfffffff6,-0x1734(%rbp)
    ff99:	ff ff ff 
    ff9c:	66 c7 85 90 e8 ff ff 	movw   $0xfffb,-0x1770(%rbp)
    ffa3:	fb ff 
    ffa5:	c7 85 d0 e8 ff ff e8 	movl   $0xba0dc3e8,-0x1730(%rbp)
    ffac:	c3 0d ba 
    ffaf:	c7 85 d4 e8 ff ff 06 	movl   $0x6,-0x172c(%rbp)
    ffb6:	00 00 00 
    ffb9:	c7 85 d8 e8 ff ff cd 	movl   $0x4a3794cd,-0x1728(%rbp)
    ffc0:	94 37 4a 
    ffc3:	c7 85 dc e8 ff ff fc 	movl   $0xfffffffc,-0x1724(%rbp)
    ffca:	ff ff ff 
    ffcd:	c7 85 e0 e8 ff ff ff 	movl   $0xffffffff,-0x1720(%rbp)
    ffd4:	ff ff ff 
    ffd7:	c7 85 e4 e8 ff ff ff 	movl   $0xffffffff,-0x171c(%rbp)
    ffde:	ff ff ff 
    ffe1:	48 8d 85 40 ee ff ff 	lea    -0x11c0(%rbp),%rax
    ffe8:	48 8d 15 d1 59 00 00 	lea    0x59d1(%rip),%rdx        # 159c0 <g_2569+0x940>
    ffef:	b9 6c 00 00 00       	mov    $0x6c,%ecx
    fff4:	48 89 c7             	mov    %rax,%rdi
    fff7:	48 89 d6             	mov    %rdx,%rsi
    fffa:	f3 48 a5             	rep movsq %ds:(%rsi),%es:(%rdi)
    fffd:	48 b8 af 6c e7 a8 8e 	movabs $0x952ff08ea8e76caf,%rax
   10004:	f0 2f 95 
   10007:	48 89 85 40 e9 ff ff 	mov    %rax,-0x16c0(%rbp)
   1000e:	48 8d 85 c0 eb ff ff 	lea    -0x1440(%rbp),%rax
   10015:	48 05 a8 00 00 00    	add    $0xa8,%rax
   1001b:	48 89 85 c0 ec ff ff 	mov    %rax,-0x1340(%rbp)
   10022:	48 8d 85 c0 eb ff ff 	lea    -0x1440(%rbp),%rax
   10029:	48 05 a8 00 00 00    	add    $0xa8,%rax
   1002f:	48 89 85 c8 ec ff ff 	mov    %rax,-0x1338(%rbp)
   10036:	48 c7 85 d0 ec ff ff 	movq   $0x0,-0x1330(%rbp)
   1003d:	00 00 00 00 
   10041:	48 8d 05 08 a2 00 00 	lea    0xa208(%rip),%rax        # 1a250 <g_538+0x10>
   10048:	48 89 85 d8 ec ff ff 	mov    %rax,-0x1328(%rbp)
   1004f:	48 c7 85 e0 ec ff ff 	movq   $0x0,-0x1320(%rbp)
   10056:	00 00 00 00 
   1005a:	48 8d 85 c0 eb ff ff 	lea    -0x1440(%rbp),%rax
   10061:	48 05 a8 00 00 00    	add    $0xa8,%rax
   10067:	48 89 85 e8 ec ff ff 	mov    %rax,-0x1318(%rbp)
   1006e:	48 8d 85 c0 eb ff ff 	lea    -0x1440(%rbp),%rax
   10075:	48 05 a8 00 00 00    	add    $0xa8,%rax
   1007b:	48 89 85 f0 ec ff ff 	mov    %rax,-0x1310(%rbp)
   10082:	48 c7 85 f8 ec ff ff 	movq   $0x0,-0x1308(%rbp)
   10089:	00 00 00 00 
   1008d:	48 8d 85 c0 eb ff ff 	lea    -0x1440(%rbp),%rax
   10094:	48 05 d0 00 00 00    	add    $0xd0,%rax
   1009a:	48 89 85 00 ed ff ff 	mov    %rax,-0x1300(%rbp)
   100a1:	48 c7 85 08 ed ff ff 	movq   $0x0,-0x12f8(%rbp)
   100a8:	00 00 00 00 
   100ac:	48 c7 85 10 ed ff ff 	movq   $0x0,-0x12f0(%rbp)
   100b3:	00 00 00 00 
   100b7:	48 8d 85 c0 eb ff ff 	lea    -0x1440(%rbp),%rax
   100be:	48 05 d0 00 00 00    	add    $0xd0,%rax
   100c4:	48 89 85 18 ed ff ff 	mov    %rax,-0x12e8(%rbp)
   100cb:	48 8d 85 c0 eb ff ff 	lea    -0x1440(%rbp),%rax
   100d2:	48 05 a8 00 00 00    	add    $0xa8,%rax
   100d8:	48 89 85 20 ed ff ff 	mov    %rax,-0x12e0(%rbp)
   100df:	48 8d 85 c0 eb ff ff 	lea    -0x1440(%rbp),%rax
   100e6:	48 05 d0 00 00 00    	add    $0xd0,%rax
   100ec:	48 89 85 28 ed ff ff 	mov    %rax,-0x12d8(%rbp)
   100f3:	48 c7 85 30 ed ff ff 	movq   $0x0,-0x12d0(%rbp)
   100fa:	00 00 00 00 
   100fe:	48 c7 85 38 ed ff ff 	movq   $0x0,-0x12c8(%rbp)
   10105:	00 00 00 00 
   10109:	48 c7 85 40 ed ff ff 	movq   $0x0,-0x12c0(%rbp)
   10110:	00 00 00 00 
   10114:	48 8d 85 c0 eb ff ff 	lea    -0x1440(%rbp),%rax
   1011b:	48 05 a8 00 00 00    	add    $0xa8,%rax
   10121:	48 89 85 48 ed ff ff 	mov    %rax,-0x12b8(%rbp)
   10128:	48 8d 05 21 a1 00 00 	lea    0xa121(%rip),%rax        # 1a250 <g_538+0x10>
   1012f:	48 89 85 50 ed ff ff 	mov    %rax,-0x12b0(%rbp)
   10136:	48 8d 05 13 a1 00 00 	lea    0xa113(%rip),%rax        # 1a250 <g_538+0x10>
   1013d:	48 89 85 58 ed ff ff 	mov    %rax,-0x12a8(%rbp)
   10144:	48 8d 85 c0 eb ff ff 	lea    -0x1440(%rbp),%rax
   1014b:	48 05 a8 00 00 00    	add    $0xa8,%rax
   10151:	48 89 85 60 ed ff ff 	mov    %rax,-0x12a0(%rbp)
   10158:	48 c7 85 68 ed ff ff 	movq   $0x0,-0x1298(%rbp)
   1015f:	00 00 00 00 
   10163:	48 8d 85 c0 eb ff ff 	lea    -0x1440(%rbp),%rax
   1016a:	48 05 a8 00 00 00    	add    $0xa8,%rax
   10170:	48 89 85 70 ed ff ff 	mov    %rax,-0x1290(%rbp)
   10177:	48 8d 05 d2 a0 00 00 	lea    0xa0d2(%rip),%rax        # 1a250 <g_538+0x10>
   1017e:	48 89 85 78 ed ff ff 	mov    %rax,-0x1288(%rbp)
   10185:	48 8d 85 c0 eb ff ff 	lea    -0x1440(%rbp),%rax
   1018c:	48 05 d0 00 00 00    	add    $0xd0,%rax
   10192:	48 89 85 80 ed ff ff 	mov    %rax,-0x1280(%rbp)
   10199:	48 8d 85 c0 eb ff ff 	lea    -0x1440(%rbp),%rax
   101a0:	48 05 a8 00 00 00    	add    $0xa8,%rax
   101a6:	48 89 85 88 ed ff ff 	mov    %rax,-0x1278(%rbp)
   101ad:	48 8d 85 c0 eb ff ff 	lea    -0x1440(%rbp),%rax
   101b4:	48 05 d0 00 00 00    	add    $0xd0,%rax
   101ba:	48 89 85 90 ed ff ff 	mov    %rax,-0x1270(%rbp)
   101c1:	48 c7 85 98 ed ff ff 	movq   $0x0,-0x1268(%rbp)
   101c8:	00 00 00 00 
   101cc:	48 c7 85 a0 ed ff ff 	movq   $0x0,-0x1260(%rbp)
   101d3:	00 00 00 00 
   101d7:	48 8d 85 c0 eb ff ff 	lea    -0x1440(%rbp),%rax
   101de:	48 05 d0 00 00 00    	add    $0xd0,%rax
   101e4:	48 89 85 a8 ed ff ff 	mov    %rax,-0x1258(%rbp)
   101eb:	48 8d 85 c0 eb ff ff 	lea    -0x1440(%rbp),%rax
   101f2:	48 05 a8 00 00 00    	add    $0xa8,%rax
   101f8:	48 89 85 b0 ed ff ff 	mov    %rax,-0x1250(%rbp)
   101ff:	48 8d 85 c0 eb ff ff 	lea    -0x1440(%rbp),%rax
   10206:	48 05 d0 00 00 00    	add    $0xd0,%rax
   1020c:	48 89 85 b8 ed ff ff 	mov    %rax,-0x1248(%rbp)
   10213:	48 8d 85 c0 eb ff ff 	lea    -0x1440(%rbp),%rax
   1021a:	48 05 a8 00 00 00    	add    $0xa8,%rax
   10220:	48 89 85 c0 ed ff ff 	mov    %rax,-0x1240(%rbp)
   10227:	48 c7 85 c8 ed ff ff 	movq   $0x0,-0x1238(%rbp)
   1022e:	00 00 00 00 
   10232:	48 8d 05 17 a0 00 00 	lea    0xa017(%rip),%rax        # 1a250 <g_538+0x10>
   10239:	48 89 85 d0 ed ff ff 	mov    %rax,-0x1230(%rbp)
   10240:	48 c7 85 d8 ed ff ff 	movq   $0x0,-0x1228(%rbp)
   10247:	00 00 00 00 
   1024b:	48 8d 85 c0 eb ff ff 	lea    -0x1440(%rbp),%rax
   10252:	48 05 a8 00 00 00    	add    $0xa8,%rax
   10258:	48 89 85 e0 ed ff ff 	mov    %rax,-0x1220(%rbp)
   1025f:	48 8d 85 c0 eb ff ff 	lea    -0x1440(%rbp),%rax
   10266:	48 05 a8 00 00 00    	add    $0xa8,%rax
   1026c:	48 89 85 e8 ed ff ff 	mov    %rax,-0x1218(%rbp)
   10273:	48 c7 85 f0 ed ff ff 	movq   $0x0,-0x1210(%rbp)
   1027a:	00 00 00 00 
   1027e:	48 8d 05 cb 9f 00 00 	lea    0x9fcb(%rip),%rax        # 1a250 <g_538+0x10>
   10285:	48 89 85 f8 ed ff ff 	mov    %rax,-0x1208(%rbp)
   1028c:	48 8d 85 c0 eb ff ff 	lea    -0x1440(%rbp),%rax
   10293:	48 05 a8 00 00 00    	add    $0xa8,%rax
   10299:	48 89 85 00 ee ff ff 	mov    %rax,-0x1200(%rbp)
   102a0:	48 8d 85 c0 eb ff ff 	lea    -0x1440(%rbp),%rax
   102a7:	48 05 a8 00 00 00    	add    $0xa8,%rax
   102ad:	48 89 85 08 ee ff ff 	mov    %rax,-0x11f8(%rbp)
   102b4:	48 c7 85 10 ee ff ff 	movq   $0x0,-0x11f0(%rbp)
   102bb:	00 00 00 00 
   102bf:	48 8d 05 8a 9f 00 00 	lea    0x9f8a(%rip),%rax        # 1a250 <g_538+0x10>
   102c6:	48 89 85 18 ee ff ff 	mov    %rax,-0x11e8(%rbp)
   102cd:	48 c7 85 20 ee ff ff 	movq   $0x0,-0x11e0(%rbp)
   102d4:	00 00 00 00 
   102d8:	48 8d 85 c0 eb ff ff 	lea    -0x1440(%rbp),%rax
   102df:	48 05 a8 00 00 00    	add    $0xa8,%rax
   102e5:	48 89 85 28 ee ff ff 	mov    %rax,-0x11d8(%rbp)
   102ec:	48 8d 85 c0 eb ff ff 	lea    -0x1440(%rbp),%rax
   102f3:	48 05 a8 00 00 00    	add    $0xa8,%rax
   102f9:	48 89 85 30 ee ff ff 	mov    %rax,-0x11d0(%rbp)
   10300:	48 c7 85 38 ee ff ff 	movq   $0x0,-0x11c8(%rbp)
   10307:	00 00 00 00 
   1030b:	48 8d 85 c0 ec ff ff 	lea    -0x1340(%rbp),%rax
   10312:	48 05 78 01 00 00    	add    $0x178,%rax
   10318:	48 89 85 48 e9 ff ff 	mov    %rax,-0x16b8(%rbp)
   1031f:	48 8d 85 c0 eb ff ff 	lea    -0x1440(%rbp),%rax
   10326:	48 05 f8 00 00 00    	add    $0xf8,%rax
   1032c:	48 89 85 08 e9 ff ff 	mov    %rax,-0x16f8(%rbp)
   10333:	48 8d 85 08 e9 ff ff 	lea    -0x16f8(%rbp),%rax
   1033a:	48 89 85 40 ea ff ff 	mov    %rax,-0x15c0(%rbp)
   10341:	48 8d 85 08 e9 ff ff 	lea    -0x16f8(%rbp),%rax
   10348:	48 89 85 48 ea ff ff 	mov    %rax,-0x15b8(%rbp)
   1034f:	48 8d 85 08 e9 ff ff 	lea    -0x16f8(%rbp),%rax
   10356:	48 89 85 50 ea ff ff 	mov    %rax,-0x15b0(%rbp)
   1035d:	48 8d 85 08 e9 ff ff 	lea    -0x16f8(%rbp),%rax
   10364:	48 89 85 58 ea ff ff 	mov    %rax,-0x15a8(%rbp)
   1036b:	48 8d 85 08 e9 ff ff 	lea    -0x16f8(%rbp),%rax
   10372:	48 89 85 60 ea ff ff 	mov    %rax,-0x15a0(%rbp)
   10379:	48 8d 85 08 e9 ff ff 	lea    -0x16f8(%rbp),%rax
   10380:	48 89 85 68 ea ff ff 	mov    %rax,-0x1598(%rbp)
   10387:	48 8d 85 08 e9 ff ff 	lea    -0x16f8(%rbp),%rax
   1038e:	48 89 85 70 ea ff ff 	mov    %rax,-0x1590(%rbp)
   10395:	48 8d 05 14 9e 00 00 	lea    0x9e14(%rip),%rax        # 1a1b0 <g_161>
   1039c:	48 89 85 c0 e9 ff ff 	mov    %rax,-0x1640(%rbp)
   103a3:	48 8d 05 06 9e 00 00 	lea    0x9e06(%rip),%rax        # 1a1b0 <g_161>
   103aa:	48 89 85 c8 e9 ff ff 	mov    %rax,-0x1638(%rbp)
   103b1:	48 8d 05 f8 9d 00 00 	lea    0x9df8(%rip),%rax        # 1a1b0 <g_161>
   103b8:	48 89 85 d0 e9 ff ff 	mov    %rax,-0x1630(%rbp)
   103bf:	48 8d 85 c0 e9 ff ff 	lea    -0x1640(%rbp),%rax
   103c6:	48 89 85 50 e9 ff ff 	mov    %rax,-0x16b0(%rbp)
   103cd:	48 8d 85 98 e9 ff ff 	lea    -0x1668(%rbp),%rax
   103d4:	48 89 85 80 ea ff ff 	mov    %rax,-0x1580(%rbp)
   103db:	48 8d 85 98 e9 ff ff 	lea    -0x1668(%rbp),%rax
   103e2:	48 89 85 88 ea ff ff 	mov    %rax,-0x1578(%rbp)
   103e9:	48 8d 85 98 e9 ff ff 	lea    -0x1668(%rbp),%rax
   103f0:	48 89 85 90 ea ff ff 	mov    %rax,-0x1570(%rbp)
   103f7:	48 8d 85 98 e9 ff ff 	lea    -0x1668(%rbp),%rax
   103fe:	48 89 85 98 ea ff ff 	mov    %rax,-0x1568(%rbp)
   10405:	48 8d 85 98 e9 ff ff 	lea    -0x1668(%rbp),%rax
   1040c:	48 89 85 a0 ea ff ff 	mov    %rax,-0x1560(%rbp)
   10413:	48 8d 85 98 e9 ff ff 	lea    -0x1668(%rbp),%rax
   1041a:	48 89 85 a8 ea ff ff 	mov    %rax,-0x1558(%rbp)
   10421:	48 8d 85 98 e9 ff ff 	lea    -0x1668(%rbp),%rax
   10428:	48 89 85 b0 ea ff ff 	mov    %rax,-0x1550(%rbp)
   1042f:	48 8d 85 98 e9 ff ff 	lea    -0x1668(%rbp),%rax
   10436:	48 89 85 b8 ea ff ff 	mov    %rax,-0x1548(%rbp)
   1043d:	48 c7 85 a0 f1 ff ff 	movq   $0x0,-0xe60(%rbp)
   10444:	00 00 00 00 
   10448:	48 8d 85 80 ea ff ff 	lea    -0x1580(%rbp),%rax
   1044f:	48 83 c0 28          	add    $0x28,%rax
   10453:	48 89 85 a8 f1 ff ff 	mov    %rax,-0xe58(%rbp)
   1045a:	48 8d 85 80 ea ff ff 	lea    -0x1580(%rbp),%rax
   10461:	48 83 c0 18          	add    $0x18,%rax
   10465:	48 89 85 b0 f1 ff ff 	mov    %rax,-0xe50(%rbp)
   1046c:	48 c7 85 b8 f1 ff ff 	movq   $0x0,-0xe48(%rbp)
   10473:	00 00 00 00 
   10477:	48 8d 85 80 ea ff ff 	lea    -0x1580(%rbp),%rax
   1047e:	48 83 c0 28          	add    $0x28,%rax
   10482:	48 89 85 c0 f1 ff ff 	mov    %rax,-0xe40(%rbp)
   10489:	48 8d 85 80 ea ff ff 	lea    -0x1580(%rbp),%rax
   10490:	48 83 c0 10          	add    $0x10,%rax
   10494:	48 89 85 c8 f1 ff ff 	mov    %rax,-0xe38(%rbp)
   1049b:	48 8d 85 80 ea ff ff 	lea    -0x1580(%rbp),%rax
   104a2:	48 83 c0 28          	add    $0x28,%rax
   104a6:	48 89 85 d0 f1 ff ff 	mov    %rax,-0xe30(%rbp)
   104ad:	48 c7 85 d8 f1 ff ff 	movq   $0x0,-0xe28(%rbp)
   104b4:	00 00 00 00 
   104b8:	48 8d 85 80 ea ff ff 	lea    -0x1580(%rbp),%rax
   104bf:	48 83 c0 18          	add    $0x18,%rax
   104c3:	48 89 85 e0 f1 ff ff 	mov    %rax,-0xe20(%rbp)
   104ca:	48 8d 85 80 ea ff ff 	lea    -0x1580(%rbp),%rax
   104d1:	48 83 c0 10          	add    $0x10,%rax
   104d5:	48 89 85 e8 f1 ff ff 	mov    %rax,-0xe18(%rbp)
   104dc:	48 8d 85 80 ea ff ff 	lea    -0x1580(%rbp),%rax
   104e3:	48 83 c0 10          	add    $0x10,%rax
   104e7:	48 89 85 f0 f1 ff ff 	mov    %rax,-0xe10(%rbp)
   104ee:	48 8d 85 80 ea ff ff 	lea    -0x1580(%rbp),%rax
   104f5:	48 83 c0 10          	add    $0x10,%rax
   104f9:	48 89 85 f8 f1 ff ff 	mov    %rax,-0xe08(%rbp)
   10500:	48 c7 85 00 f2 ff ff 	movq   $0x0,-0xe00(%rbp)
   10507:	00 00 00 00 
   1050b:	48 c7 85 08 f2 ff ff 	movq   $0x0,-0xdf8(%rbp)
   10512:	00 00 00 00 
   10516:	48 8d 85 80 ea ff ff 	lea    -0x1580(%rbp),%rax
   1051d:	48 83 c0 18          	add    $0x18,%rax
   10521:	48 89 85 10 f2 ff ff 	mov    %rax,-0xdf0(%rbp)
   10528:	48 8d 85 80 ea ff ff 	lea    -0x1580(%rbp),%rax
   1052f:	48 83 c0 10          	add    $0x10,%rax
   10533:	48 89 85 18 f2 ff ff 	mov    %rax,-0xde8(%rbp)
   1053a:	48 c7 85 20 f2 ff ff 	movq   $0x0,-0xde0(%rbp)
   10541:	00 00 00 00 
   10545:	48 8d 85 80 ea ff ff 	lea    -0x1580(%rbp),%rax
   1054c:	48 83 c0 18          	add    $0x18,%rax
   10550:	48 89 85 28 f2 ff ff 	mov    %rax,-0xdd8(%rbp)
   10557:	48 8d 85 80 ea ff ff 	lea    -0x1580(%rbp),%rax
   1055e:	48 83 c0 10          	add    $0x10,%rax
   10562:	48 89 85 30 f2 ff ff 	mov    %rax,-0xdd0(%rbp)
   10569:	48 8d 85 80 ea ff ff 	lea    -0x1580(%rbp),%rax
   10570:	48 83 c0 28          	add    $0x28,%rax
   10574:	48 89 85 38 f2 ff ff 	mov    %rax,-0xdc8(%rbp)
   1057b:	48 8d 85 80 ea ff ff 	lea    -0x1580(%rbp),%rax
   10582:	48 83 c0 10          	add    $0x10,%rax
   10586:	48 89 85 40 f2 ff ff 	mov    %rax,-0xdc0(%rbp)
   1058d:	48 c7 85 48 f2 ff ff 	movq   $0x0,-0xdb8(%rbp)
   10594:	00 00 00 00 
   10598:	48 c7 85 50 f2 ff ff 	movq   $0x0,-0xdb0(%rbp)
   1059f:	00 00 00 00 
   105a3:	48 8d 85 80 ea ff ff 	lea    -0x1580(%rbp),%rax
   105aa:	48 83 c0 10          	add    $0x10,%rax
   105ae:	48 89 85 58 f2 ff ff 	mov    %rax,-0xda8(%rbp)
   105b5:	48 8d 85 80 ea ff ff 	lea    -0x1580(%rbp),%rax
   105bc:	48 83 c0 28          	add    $0x28,%rax
   105c0:	48 89 85 60 f2 ff ff 	mov    %rax,-0xda0(%rbp)
   105c7:	48 8d 85 80 ea ff ff 	lea    -0x1580(%rbp),%rax
   105ce:	48 83 c0 10          	add    $0x10,%rax
   105d2:	48 89 85 68 f2 ff ff 	mov    %rax,-0xd98(%rbp)
   105d9:	48 8d 85 80 ea ff ff 	lea    -0x1580(%rbp),%rax
   105e0:	48 83 c0 10          	add    $0x10,%rax
   105e4:	48 89 85 70 f2 ff ff 	mov    %rax,-0xd90(%rbp)
   105eb:	48 8d 85 80 ea ff ff 	lea    -0x1580(%rbp),%rax
   105f2:	48 83 c0 10          	add    $0x10,%rax
   105f6:	48 89 85 78 f2 ff ff 	mov    %rax,-0xd88(%rbp)
   105fd:	48 c7 85 80 f2 ff ff 	movq   $0x0,-0xd80(%rbp)
   10604:	00 00 00 00 
   10608:	48 8d 85 80 ea ff ff 	lea    -0x1580(%rbp),%rax
   1060f:	48 83 c0 10          	add    $0x10,%rax
   10613:	48 89 85 88 f2 ff ff 	mov    %rax,-0xd78(%rbp)
   1061a:	48 8d 85 80 ea ff ff 	lea    -0x1580(%rbp),%rax
   10621:	48 83 c0 10          	add    $0x10,%rax
   10625:	48 89 85 90 f2 ff ff 	mov    %rax,-0xd70(%rbp)
   1062c:	48 8d 85 80 ea ff ff 	lea    -0x1580(%rbp),%rax
   10633:	48 83 c0 28          	add    $0x28,%rax
   10637:	48 89 85 98 f2 ff ff 	mov    %rax,-0xd68(%rbp)
   1063e:	48 8d 85 80 ea ff ff 	lea    -0x1580(%rbp),%rax
   10645:	48 83 c0 10          	add    $0x10,%rax
   10649:	48 89 85 a0 f2 ff ff 	mov    %rax,-0xd60(%rbp)
   10650:	48 c7 85 a8 f2 ff ff 	movq   $0x0,-0xd58(%rbp)
   10657:	00 00 00 00 
   1065b:	48 c7 85 b0 f2 ff ff 	movq   $0x0,-0xd50(%rbp)
   10662:	00 00 00 00 
   10666:	48 8d 85 80 ea ff ff 	lea    -0x1580(%rbp),%rax
   1066d:	48 83 c0 10          	add    $0x10,%rax
   10671:	48 89 85 b8 f2 ff ff 	mov    %rax,-0xd48(%rbp)
   10678:	48 8d 85 80 ea ff ff 	lea    -0x1580(%rbp),%rax
   1067f:	48 83 c0 10          	add    $0x10,%rax
   10683:	48 89 85 c0 f2 ff ff 	mov    %rax,-0xd40(%rbp)
   1068a:	48 c7 85 c8 f2 ff ff 	movq   $0x0,-0xd38(%rbp)
   10691:	00 00 00 00 
   10695:	48 8d 85 80 ea ff ff 	lea    -0x1580(%rbp),%rax
   1069c:	48 83 c0 18          	add    $0x18,%rax
   106a0:	48 89 85 d0 f2 ff ff 	mov    %rax,-0xd30(%rbp)
   106a7:	48 c7 85 d8 f2 ff ff 	movq   $0x0,-0xd28(%rbp)
   106ae:	00 00 00 00 
   106b2:	48 8d 85 80 ea ff ff 	lea    -0x1580(%rbp),%rax
   106b9:	48 83 c0 10          	add    $0x10,%rax
   106bd:	48 89 85 e0 f2 ff ff 	mov    %rax,-0xd20(%rbp)
   106c4:	48 8d 85 80 ea ff ff 	lea    -0x1580(%rbp),%rax
   106cb:	48 83 c0 18          	add    $0x18,%rax
   106cf:	48 89 85 e8 f2 ff ff 	mov    %rax,-0xd18(%rbp)
   106d6:	48 c7 85 f0 f2 ff ff 	movq   $0x0,-0xd10(%rbp)
   106dd:	00 00 00 00 
   106e1:	48 c7 85 f8 f2 ff ff 	movq   $0x0,-0xd08(%rbp)
   106e8:	00 00 00 00 
   106ec:	48 8d 85 80 ea ff ff 	lea    -0x1580(%rbp),%rax
   106f3:	48 83 c0 10          	add    $0x10,%rax
   106f7:	48 89 85 00 f3 ff ff 	mov    %rax,-0xd00(%rbp)
   106fe:	48 c7 85 08 f3 ff ff 	movq   $0x0,-0xcf8(%rbp)
   10705:	00 00 00 00 
   10709:	48 8d 85 80 ea ff ff 	lea    -0x1580(%rbp),%rax
   10710:	48 83 c0 28          	add    $0x28,%rax
   10714:	48 89 85 10 f3 ff ff 	mov    %rax,-0xcf0(%rbp)
   1071b:	48 8d 85 80 ea ff ff 	lea    -0x1580(%rbp),%rax
   10722:	48 83 c0 18          	add    $0x18,%rax
   10726:	48 89 85 18 f3 ff ff 	mov    %rax,-0xce8(%rbp)
   1072d:	48 c7 85 20 f3 ff ff 	movq   $0x0,-0xce0(%rbp)
   10734:	00 00 00 00 
   10738:	48 8d 85 80 ea ff ff 	lea    -0x1580(%rbp),%rax
   1073f:	48 83 c0 28          	add    $0x28,%rax
   10743:	48 89 85 28 f3 ff ff 	mov    %rax,-0xcd8(%rbp)
   1074a:	48 8d 85 80 ea ff ff 	lea    -0x1580(%rbp),%rax
   10751:	48 83 c0 10          	add    $0x10,%rax
   10755:	48 89 85 30 f3 ff ff 	mov    %rax,-0xcd0(%rbp)
   1075c:	48 8d 85 80 ea ff ff 	lea    -0x1580(%rbp),%rax
   10763:	48 83 c0 28          	add    $0x28,%rax
   10767:	48 89 85 38 f3 ff ff 	mov    %rax,-0xcc8(%rbp)
   1076e:	48 c7 85 40 f3 ff ff 	movq   $0x0,-0xcc0(%rbp)
   10775:	00 00 00 00 
   10779:	48 8d 85 80 ea ff ff 	lea    -0x1580(%rbp),%rax
   10780:	48 83 c0 18          	add    $0x18,%rax
   10784:	48 89 85 48 f3 ff ff 	mov    %rax,-0xcb8(%rbp)
   1078b:	48 8d 85 80 ea ff ff 	lea    -0x1580(%rbp),%rax
   10792:	48 83 c0 10          	add    $0x10,%rax
   10796:	48 89 85 50 f3 ff ff 	mov    %rax,-0xcb0(%rbp)
   1079d:	48 8d 85 80 ea ff ff 	lea    -0x1580(%rbp),%rax
   107a4:	48 83 c0 10          	add    $0x10,%rax
   107a8:	48 89 85 58 f3 ff ff 	mov    %rax,-0xca8(%rbp)
   107af:	48 8d 85 80 ea ff ff 	lea    -0x1580(%rbp),%rax
   107b6:	48 83 c0 10          	add    $0x10,%rax
   107ba:	48 89 85 60 f3 ff ff 	mov    %rax,-0xca0(%rbp)
   107c1:	48 c7 85 68 f3 ff ff 	movq   $0x0,-0xc98(%rbp)
   107c8:	00 00 00 00 
   107cc:	48 c7 85 70 f3 ff ff 	movq   $0x0,-0xc90(%rbp)
   107d3:	00 00 00 00 
   107d7:	48 8d 85 80 ea ff ff 	lea    -0x1580(%rbp),%rax
   107de:	48 83 c0 18          	add    $0x18,%rax
   107e2:	48 89 85 78 f3 ff ff 	mov    %rax,-0xc88(%rbp)
   107e9:	48 8d 85 80 ea ff ff 	lea    -0x1580(%rbp),%rax
   107f0:	48 83 c0 10          	add    $0x10,%rax
   107f4:	48 89 85 80 f3 ff ff 	mov    %rax,-0xc80(%rbp)
   107fb:	48 c7 85 88 f3 ff ff 	movq   $0x0,-0xc78(%rbp)
   10802:	00 00 00 00 
   10806:	48 8d 85 80 ea ff ff 	lea    -0x1580(%rbp),%rax
   1080d:	48 83 c0 18          	add    $0x18,%rax
   10811:	48 89 85 90 f3 ff ff 	mov    %rax,-0xc70(%rbp)
   10818:	48 8d 85 80 ea ff ff 	lea    -0x1580(%rbp),%rax
   1081f:	48 83 c0 10          	add    $0x10,%rax
   10823:	48 89 85 98 f3 ff ff 	mov    %rax,-0xc68(%rbp)
   1082a:	48 8d 85 80 ea ff ff 	lea    -0x1580(%rbp),%rax
   10831:	48 83 c0 28          	add    $0x28,%rax
   10835:	48 89 85 a0 f3 ff ff 	mov    %rax,-0xc60(%rbp)
   1083c:	48 8d 85 80 ea ff ff 	lea    -0x1580(%rbp),%rax
   10843:	48 83 c0 10          	add    $0x10,%rax
   10847:	48 89 85 a8 f3 ff ff 	mov    %rax,-0xc58(%rbp)
   1084e:	48 c7 85 b0 f3 ff ff 	movq   $0x0,-0xc50(%rbp)
   10855:	00 00 00 00 
   10859:	48 c7 85 b8 f3 ff ff 	movq   $0x0,-0xc48(%rbp)
   10860:	00 00 00 00 
   10864:	48 8d 85 80 ea ff ff 	lea    -0x1580(%rbp),%rax
   1086b:	48 83 c0 10          	add    $0x10,%rax
   1086f:	48 89 85 c0 f3 ff ff 	mov    %rax,-0xc40(%rbp)
   10876:	48 8d 85 80 ea ff ff 	lea    -0x1580(%rbp),%rax
   1087d:	48 83 c0 28          	add    $0x28,%rax
   10881:	48 89 85 c8 f3 ff ff 	mov    %rax,-0xc38(%rbp)
   10888:	48 8d 85 80 ea ff ff 	lea    -0x1580(%rbp),%rax
   1088f:	48 83 c0 10          	add    $0x10,%rax
   10893:	48 89 85 d0 f3 ff ff 	mov    %rax,-0xc30(%rbp)
   1089a:	48 8d 85 80 ea ff ff 	lea    -0x1580(%rbp),%rax
   108a1:	48 83 c0 10          	add    $0x10,%rax
   108a5:	48 89 85 d8 f3 ff ff 	mov    %rax,-0xc28(%rbp)
   108ac:	48 8d 85 80 ea ff ff 	lea    -0x1580(%rbp),%rax
   108b3:	48 83 c0 10          	add    $0x10,%rax
   108b7:	48 89 85 e0 f3 ff ff 	mov    %rax,-0xc20(%rbp)
   108be:	48 c7 85 e8 f3 ff ff 	movq   $0x0,-0xc18(%rbp)
   108c5:	00 00 00 00 
   108c9:	48 8d 85 80 ea ff ff 	lea    -0x1580(%rbp),%rax
   108d0:	48 83 c0 10          	add    $0x10,%rax
   108d4:	48 89 85 f0 f3 ff ff 	mov    %rax,-0xc10(%rbp)
   108db:	48 8d 85 80 ea ff ff 	lea    -0x1580(%rbp),%rax
   108e2:	48 83 c0 10          	add    $0x10,%rax
   108e6:	48 89 85 f8 f3 ff ff 	mov    %rax,-0xc08(%rbp)
   108ed:	48 8d 85 80 ea ff ff 	lea    -0x1580(%rbp),%rax
   108f4:	48 83 c0 28          	add    $0x28,%rax
   108f8:	48 89 85 00 f4 ff ff 	mov    %rax,-0xc00(%rbp)
   108ff:	48 8d 85 80 ea ff ff 	lea    -0x1580(%rbp),%rax
   10906:	48 83 c0 10          	add    $0x10,%rax
   1090a:	48 89 85 08 f4 ff ff 	mov    %rax,-0xbf8(%rbp)
   10911:	48 c7 85 10 f4 ff ff 	movq   $0x0,-0xbf0(%rbp)
   10918:	00 00 00 00 
   1091c:	48 c7 85 18 f4 ff ff 	movq   $0x0,-0xbe8(%rbp)
   10923:	00 00 00 00 
   10927:	48 8d 85 80 ea ff ff 	lea    -0x1580(%rbp),%rax
   1092e:	48 83 c0 10          	add    $0x10,%rax
   10932:	48 89 85 20 f4 ff ff 	mov    %rax,-0xbe0(%rbp)
   10939:	48 8d 85 80 ea ff ff 	lea    -0x1580(%rbp),%rax
   10940:	48 83 c0 10          	add    $0x10,%rax
   10944:	48 89 85 28 f4 ff ff 	mov    %rax,-0xbd8(%rbp)
   1094b:	48 c7 85 30 f4 ff ff 	movq   $0x0,-0xbd0(%rbp)
   10952:	00 00 00 00 
   10956:	48 8d 85 80 ea ff ff 	lea    -0x1580(%rbp),%rax
   1095d:	48 83 c0 18          	add    $0x18,%rax
   10961:	48 89 85 38 f4 ff ff 	mov    %rax,-0xbc8(%rbp)
   10968:	48 c7 85 40 f4 ff ff 	movq   $0x0,-0xbc0(%rbp)
   1096f:	00 00 00 00 
   10973:	48 8d 85 80 ea ff ff 	lea    -0x1580(%rbp),%rax
   1097a:	48 83 c0 10          	add    $0x10,%rax
   1097e:	48 89 85 48 f4 ff ff 	mov    %rax,-0xbb8(%rbp)
   10985:	48 8d 85 80 ea ff ff 	lea    -0x1580(%rbp),%rax
   1098c:	48 83 c0 18          	add    $0x18,%rax
   10990:	48 89 85 50 f4 ff ff 	mov    %rax,-0xbb0(%rbp)
   10997:	48 c7 85 58 f4 ff ff 	movq   $0x0,-0xba8(%rbp)
   1099e:	00 00 00 00 
   109a2:	48 c7 85 60 f4 ff ff 	movq   $0x0,-0xba0(%rbp)
   109a9:	00 00 00 00 
   109ad:	48 8d 85 80 ea ff ff 	lea    -0x1580(%rbp),%rax
   109b4:	48 83 c0 10          	add    $0x10,%rax
   109b8:	48 89 85 68 f4 ff ff 	mov    %rax,-0xb98(%rbp)
   109bf:	48 c7 85 70 f4 ff ff 	movq   $0x0,-0xb90(%rbp)
   109c6:	00 00 00 00 
   109ca:	48 8d 85 80 ea ff ff 	lea    -0x1580(%rbp),%rax
   109d1:	48 83 c0 28          	add    $0x28,%rax
   109d5:	48 89 85 78 f4 ff ff 	mov    %rax,-0xb88(%rbp)
   109dc:	48 8d 85 80 ea ff ff 	lea    -0x1580(%rbp),%rax
   109e3:	48 83 c0 18          	add    $0x18,%rax
   109e7:	48 89 85 80 f4 ff ff 	mov    %rax,-0xb80(%rbp)
   109ee:	48 c7 85 88 f4 ff ff 	movq   $0x0,-0xb78(%rbp)
   109f5:	00 00 00 00 
   109f9:	48 8d 85 80 ea ff ff 	lea    -0x1580(%rbp),%rax
   10a00:	48 83 c0 28          	add    $0x28,%rax
   10a04:	48 89 85 90 f4 ff ff 	mov    %rax,-0xb70(%rbp)
   10a0b:	48 8d 85 80 ea ff ff 	lea    -0x1580(%rbp),%rax
   10a12:	48 83 c0 10          	add    $0x10,%rax
   10a16:	48 89 85 98 f4 ff ff 	mov    %rax,-0xb68(%rbp)
   10a1d:	48 8d 85 80 ea ff ff 	lea    -0x1580(%rbp),%rax
   10a24:	48 83 c0 28          	add    $0x28,%rax
   10a28:	48 89 85 a0 f4 ff ff 	mov    %rax,-0xb60(%rbp)
   10a2f:	48 c7 85 a8 f4 ff ff 	movq   $0x0,-0xb58(%rbp)
   10a36:	00 00 00 00 
   10a3a:	48 8d 85 80 ea ff ff 	lea    -0x1580(%rbp),%rax
   10a41:	48 83 c0 18          	add    $0x18,%rax
   10a45:	48 89 85 b0 f4 ff ff 	mov    %rax,-0xb50(%rbp)
   10a4c:	48 8d 85 80 ea ff ff 	lea    -0x1580(%rbp),%rax
   10a53:	48 83 c0 10          	add    $0x10,%rax
   10a57:	48 89 85 b8 f4 ff ff 	mov    %rax,-0xb48(%rbp)
   10a5e:	48 8d 85 80 ea ff ff 	lea    -0x1580(%rbp),%rax
   10a65:	48 83 c0 10          	add    $0x10,%rax
   10a69:	48 89 85 c0 f4 ff ff 	mov    %rax,-0xb40(%rbp)
   10a70:	48 8d 85 80 ea ff ff 	lea    -0x1580(%rbp),%rax
   10a77:	48 83 c0 10          	add    $0x10,%rax
   10a7b:	48 89 85 c8 f4 ff ff 	mov    %rax,-0xb38(%rbp)
   10a82:	48 c7 85 d0 f4 ff ff 	movq   $0x0,-0xb30(%rbp)
   10a89:	00 00 00 00 
   10a8d:	48 c7 85 d8 f4 ff ff 	movq   $0x0,-0xb28(%rbp)
   10a94:	00 00 00 00 
   10a98:	48 8d 85 80 ea ff ff 	lea    -0x1580(%rbp),%rax
   10a9f:	48 83 c0 18          	add    $0x18,%rax
   10aa3:	48 89 85 e0 f4 ff ff 	mov    %rax,-0xb20(%rbp)
   10aaa:	48 8d 85 80 ea ff ff 	lea    -0x1580(%rbp),%rax
   10ab1:	48 83 c0 10          	add    $0x10,%rax
   10ab5:	48 89 85 e8 f4 ff ff 	mov    %rax,-0xb18(%rbp)
   10abc:	48 c7 85 f0 f4 ff ff 	movq   $0x0,-0xb10(%rbp)
   10ac3:	00 00 00 00 
   10ac7:	48 8d 85 80 ea ff ff 	lea    -0x1580(%rbp),%rax
   10ace:	48 83 c0 18          	add    $0x18,%rax
   10ad2:	48 89 85 f8 f4 ff ff 	mov    %rax,-0xb08(%rbp)
   10ad9:	48 8d 85 80 ea ff ff 	lea    -0x1580(%rbp),%rax
   10ae0:	48 83 c0 10          	add    $0x10,%rax
   10ae4:	48 89 85 00 f5 ff ff 	mov    %rax,-0xb00(%rbp)
   10aeb:	48 8d 85 80 ea ff ff 	lea    -0x1580(%rbp),%rax
   10af2:	48 83 c0 28          	add    $0x28,%rax
   10af6:	48 89 85 08 f5 ff ff 	mov    %rax,-0xaf8(%rbp)
   10afd:	48 8d 85 80 ea ff ff 	lea    -0x1580(%rbp),%rax
   10b04:	48 83 c0 10          	add    $0x10,%rax
   10b08:	48 89 85 10 f5 ff ff 	mov    %rax,-0xaf0(%rbp)
   10b0f:	48 c7 85 18 f5 ff ff 	movq   $0x0,-0xae8(%rbp)
   10b16:	00 00 00 00 
   10b1a:	48 c7 85 20 f5 ff ff 	movq   $0x0,-0xae0(%rbp)
   10b21:	00 00 00 00 
   10b25:	48 8d 85 80 ea ff ff 	lea    -0x1580(%rbp),%rax
   10b2c:	48 83 c0 10          	add    $0x10,%rax
   10b30:	48 89 85 28 f5 ff ff 	mov    %rax,-0xad8(%rbp)
   10b37:	48 8d 85 80 ea ff ff 	lea    -0x1580(%rbp),%rax
   10b3e:	48 83 c0 28          	add    $0x28,%rax
   10b42:	48 89 85 30 f5 ff ff 	mov    %rax,-0xad0(%rbp)
   10b49:	48 8d 85 80 ea ff ff 	lea    -0x1580(%rbp),%rax
   10b50:	48 83 c0 10          	add    $0x10,%rax
   10b54:	48 89 85 38 f5 ff ff 	mov    %rax,-0xac8(%rbp)
   10b5b:	48 8d 85 80 ea ff ff 	lea    -0x1580(%rbp),%rax
   10b62:	48 83 c0 10          	add    $0x10,%rax
   10b66:	48 89 85 40 f5 ff ff 	mov    %rax,-0xac0(%rbp)
   10b6d:	48 8d 85 80 ea ff ff 	lea    -0x1580(%rbp),%rax
   10b74:	48 83 c0 10          	add    $0x10,%rax
   10b78:	48 89 85 48 f5 ff ff 	mov    %rax,-0xab8(%rbp)
   10b7f:	48 c7 85 50 f5 ff ff 	movq   $0x0,-0xab0(%rbp)
   10b86:	00 00 00 00 
   10b8a:	48 8d 85 80 ea ff ff 	lea    -0x1580(%rbp),%rax
   10b91:	48 83 c0 10          	add    $0x10,%rax
   10b95:	48 89 85 58 f5 ff ff 	mov    %rax,-0xaa8(%rbp)
   10b9c:	48 8d 85 80 ea ff ff 	lea    -0x1580(%rbp),%rax
   10ba3:	48 83 c0 10          	add    $0x10,%rax
   10ba7:	48 89 85 60 f5 ff ff 	mov    %rax,-0xaa0(%rbp)
   10bae:	48 8d 85 80 ea ff ff 	lea    -0x1580(%rbp),%rax
   10bb5:	48 83 c0 28          	add    $0x28,%rax
   10bb9:	48 89 85 68 f5 ff ff 	mov    %rax,-0xa98(%rbp)
   10bc0:	48 8d 85 80 ea ff ff 	lea    -0x1580(%rbp),%rax
   10bc7:	48 83 c0 10          	add    $0x10,%rax
   10bcb:	48 89 85 70 f5 ff ff 	mov    %rax,-0xa90(%rbp)
   10bd2:	48 c7 85 78 f5 ff ff 	movq   $0x0,-0xa88(%rbp)
   10bd9:	00 00 00 00 
   10bdd:	48 c7 85 80 f5 ff ff 	movq   $0x0,-0xa80(%rbp)
   10be4:	00 00 00 00 
   10be8:	48 8d 85 80 ea ff ff 	lea    -0x1580(%rbp),%rax
   10bef:	48 83 c0 10          	add    $0x10,%rax
   10bf3:	48 89 85 88 f5 ff ff 	mov    %rax,-0xa78(%rbp)
   10bfa:	48 8d 85 80 ea ff ff 	lea    -0x1580(%rbp),%rax
   10c01:	48 83 c0 10          	add    $0x10,%rax
   10c05:	48 89 85 90 f5 ff ff 	mov    %rax,-0xa70(%rbp)
   10c0c:	48 c7 85 98 f5 ff ff 	movq   $0x0,-0xa68(%rbp)
   10c13:	00 00 00 00 
   10c17:	48 8d 85 80 ea ff ff 	lea    -0x1580(%rbp),%rax
   10c1e:	48 83 c0 18          	add    $0x18,%rax
   10c22:	48 89 85 a0 f5 ff ff 	mov    %rax,-0xa60(%rbp)
   10c29:	48 c7 85 a8 f5 ff ff 	movq   $0x0,-0xa58(%rbp)
   10c30:	00 00 00 00 
   10c34:	48 8d 85 80 ea ff ff 	lea    -0x1580(%rbp),%rax
   10c3b:	48 83 c0 10          	add    $0x10,%rax
   10c3f:	48 89 85 b0 f5 ff ff 	mov    %rax,-0xa50(%rbp)
   10c46:	48 8d 85 80 ea ff ff 	lea    -0x1580(%rbp),%rax
   10c4d:	48 83 c0 18          	add    $0x18,%rax
   10c51:	48 89 85 b8 f5 ff ff 	mov    %rax,-0xa48(%rbp)
   10c58:	48 c7 85 c0 f5 ff ff 	movq   $0x0,-0xa40(%rbp)
   10c5f:	00 00 00 00 
   10c63:	48 c7 85 c8 f5 ff ff 	movq   $0x0,-0xa38(%rbp)
   10c6a:	00 00 00 00 
   10c6e:	48 8d 85 80 ea ff ff 	lea    -0x1580(%rbp),%rax
   10c75:	48 83 c0 10          	add    $0x10,%rax
   10c79:	48 89 85 d0 f5 ff ff 	mov    %rax,-0xa30(%rbp)
   10c80:	48 c7 85 d8 f5 ff ff 	movq   $0x0,-0xa28(%rbp)
   10c87:	00 00 00 00 
   10c8b:	48 8d 85 80 ea ff ff 	lea    -0x1580(%rbp),%rax
   10c92:	48 83 c0 28          	add    $0x28,%rax
   10c96:	48 89 85 e0 f5 ff ff 	mov    %rax,-0xa20(%rbp)
   10c9d:	48 8d 85 80 ea ff ff 	lea    -0x1580(%rbp),%rax
   10ca4:	48 83 c0 18          	add    $0x18,%rax
   10ca8:	48 89 85 e8 f5 ff ff 	mov    %rax,-0xa18(%rbp)
   10caf:	48 c7 85 f0 f5 ff ff 	movq   $0x0,-0xa10(%rbp)
   10cb6:	00 00 00 00 
   10cba:	48 8d 85 80 ea ff ff 	lea    -0x1580(%rbp),%rax
   10cc1:	48 83 c0 28          	add    $0x28,%rax
   10cc5:	48 89 85 f8 f5 ff ff 	mov    %rax,-0xa08(%rbp)
   10ccc:	48 8d 85 80 ea ff ff 	lea    -0x1580(%rbp),%rax
   10cd3:	48 83 c0 10          	add    $0x10,%rax
   10cd7:	48 89 85 00 f6 ff ff 	mov    %rax,-0xa00(%rbp)
   10cde:	48 8d 85 80 ea ff ff 	lea    -0x1580(%rbp),%rax
   10ce5:	48 83 c0 28          	add    $0x28,%rax
   10ce9:	48 89 85 08 f6 ff ff 	mov    %rax,-0x9f8(%rbp)
   10cf0:	48 c7 85 10 f6 ff ff 	movq   $0x0,-0x9f0(%rbp)
   10cf7:	00 00 00 00 
   10cfb:	48 8d 85 80 ea ff ff 	lea    -0x1580(%rbp),%rax
   10d02:	48 83 c0 18          	add    $0x18,%rax
   10d06:	48 89 85 18 f6 ff ff 	mov    %rax,-0x9e8(%rbp)
   10d0d:	48 8d 85 80 ea ff ff 	lea    -0x1580(%rbp),%rax
   10d14:	48 83 c0 10          	add    $0x10,%rax
   10d18:	48 89 85 20 f6 ff ff 	mov    %rax,-0x9e0(%rbp)
   10d1f:	48 8d 85 80 ea ff ff 	lea    -0x1580(%rbp),%rax
   10d26:	48 83 c0 10          	add    $0x10,%rax
   10d2a:	48 89 85 28 f6 ff ff 	mov    %rax,-0x9d8(%rbp)
   10d31:	48 8d 85 80 ea ff ff 	lea    -0x1580(%rbp),%rax
   10d38:	48 83 c0 10          	add    $0x10,%rax
   10d3c:	48 89 85 30 f6 ff ff 	mov    %rax,-0x9d0(%rbp)
   10d43:	48 c7 85 38 f6 ff ff 	movq   $0x0,-0x9c8(%rbp)
   10d4a:	00 00 00 00 
   10d4e:	48 c7 85 40 f6 ff ff 	movq   $0x0,-0x9c0(%rbp)
   10d55:	00 00 00 00 
   10d59:	48 8d 85 80 ea ff ff 	lea    -0x1580(%rbp),%rax
   10d60:	48 83 c0 18          	add    $0x18,%rax
   10d64:	48 89 85 48 f6 ff ff 	mov    %rax,-0x9b8(%rbp)
   10d6b:	48 8d 85 80 ea ff ff 	lea    -0x1580(%rbp),%rax
   10d72:	48 83 c0 10          	add    $0x10,%rax
   10d76:	48 89 85 50 f6 ff ff 	mov    %rax,-0x9b0(%rbp)
   10d7d:	48 c7 85 58 f6 ff ff 	movq   $0x0,-0x9a8(%rbp)
   10d84:	00 00 00 00 
   10d88:	48 8d 85 80 ea ff ff 	lea    -0x1580(%rbp),%rax
   10d8f:	48 83 c0 18          	add    $0x18,%rax
   10d93:	48 89 85 60 f6 ff ff 	mov    %rax,-0x9a0(%rbp)
   10d9a:	48 8d 85 80 ea ff ff 	lea    -0x1580(%rbp),%rax
   10da1:	48 83 c0 10          	add    $0x10,%rax
   10da5:	48 89 85 68 f6 ff ff 	mov    %rax,-0x998(%rbp)
   10dac:	48 8d 85 80 ea ff ff 	lea    -0x1580(%rbp),%rax
   10db3:	48 83 c0 28          	add    $0x28,%rax
   10db7:	48 89 85 70 f6 ff ff 	mov    %rax,-0x990(%rbp)
   10dbe:	48 8d 85 80 ea ff ff 	lea    -0x1580(%rbp),%rax
   10dc5:	48 83 c0 10          	add    $0x10,%rax
   10dc9:	48 89 85 78 f6 ff ff 	mov    %rax,-0x988(%rbp)
   10dd0:	48 c7 85 80 f6 ff ff 	movq   $0x0,-0x980(%rbp)
   10dd7:	00 00 00 00 
   10ddb:	48 c7 85 88 f6 ff ff 	movq   $0x0,-0x978(%rbp)
   10de2:	00 00 00 00 
   10de6:	48 8d 85 80 ea ff ff 	lea    -0x1580(%rbp),%rax
   10ded:	48 83 c0 10          	add    $0x10,%rax
   10df1:	48 89 85 90 f6 ff ff 	mov    %rax,-0x970(%rbp)
   10df8:	48 8d 85 80 ea ff ff 	lea    -0x1580(%rbp),%rax
   10dff:	48 83 c0 28          	add    $0x28,%rax
   10e03:	48 89 85 98 f6 ff ff 	mov    %rax,-0x968(%rbp)
   10e0a:	48 8d 85 80 ea ff ff 	lea    -0x1580(%rbp),%rax
   10e11:	48 83 c0 10          	add    $0x10,%rax
   10e15:	48 89 85 a0 f6 ff ff 	mov    %rax,-0x960(%rbp)
   10e1c:	48 8d 85 80 ea ff ff 	lea    -0x1580(%rbp),%rax
   10e23:	48 83 c0 10          	add    $0x10,%rax
   10e27:	48 89 85 a8 f6 ff ff 	mov    %rax,-0x958(%rbp)
   10e2e:	48 8d 85 80 ea ff ff 	lea    -0x1580(%rbp),%rax
   10e35:	48 83 c0 10          	add    $0x10,%rax
   10e39:	48 89 85 b0 f6 ff ff 	mov    %rax,-0x950(%rbp)
   10e40:	48 c7 85 b8 f6 ff ff 	movq   $0x0,-0x948(%rbp)
   10e47:	00 00 00 00 
   10e4b:	48 8d 85 80 ea ff ff 	lea    -0x1580(%rbp),%rax
   10e52:	48 83 c0 10          	add    $0x10,%rax
   10e56:	48 89 85 c0 f6 ff ff 	mov    %rax,-0x940(%rbp)
   10e5d:	48 8d 85 80 ea ff ff 	lea    -0x1580(%rbp),%rax
   10e64:	48 83 c0 10          	add    $0x10,%rax
   10e68:	48 89 85 c8 f6 ff ff 	mov    %rax,-0x938(%rbp)
   10e6f:	48 8d 85 80 ea ff ff 	lea    -0x1580(%rbp),%rax
   10e76:	48 83 c0 28          	add    $0x28,%rax
   10e7a:	48 89 85 d0 f6 ff ff 	mov    %rax,-0x930(%rbp)
   10e81:	48 8d 85 80 ea ff ff 	lea    -0x1580(%rbp),%rax
   10e88:	48 83 c0 10          	add    $0x10,%rax
   10e8c:	48 89 85 d8 f6 ff ff 	mov    %rax,-0x928(%rbp)
   10e93:	48 c7 85 e0 f6 ff ff 	movq   $0x0,-0x920(%rbp)
   10e9a:	00 00 00 00 
   10e9e:	48 c7 85 e8 f6 ff ff 	movq   $0x0,-0x918(%rbp)
   10ea5:	00 00 00 00 
   10ea9:	48 8d 85 80 ea ff ff 	lea    -0x1580(%rbp),%rax
   10eb0:	48 83 c0 10          	add    $0x10,%rax
   10eb4:	48 89 85 f0 f6 ff ff 	mov    %rax,-0x910(%rbp)
   10ebb:	48 8d 85 80 ea ff ff 	lea    -0x1580(%rbp),%rax
   10ec2:	48 83 c0 10          	add    $0x10,%rax
   10ec6:	48 89 85 f8 f6 ff ff 	mov    %rax,-0x908(%rbp)
   10ecd:	48 c7 85 00 f7 ff ff 	movq   $0x0,-0x900(%rbp)
   10ed4:	00 00 00 00 
   10ed8:	48 8d 85 80 ea ff ff 	lea    -0x1580(%rbp),%rax
   10edf:	48 83 c0 28          	add    $0x28,%rax
   10ee3:	48 89 85 08 f7 ff ff 	mov    %rax,-0x8f8(%rbp)
   10eea:	48 8d 85 80 ea ff ff 	lea    -0x1580(%rbp),%rax
   10ef1:	48 83 c0 10          	add    $0x10,%rax
   10ef5:	48 89 85 10 f7 ff ff 	mov    %rax,-0x8f0(%rbp)
   10efc:	48 8d 85 80 ea ff ff 	lea    -0x1580(%rbp),%rax
   10f03:	48 89 85 18 f7 ff ff 	mov    %rax,-0x8e8(%rbp)
   10f0a:	48 c7 85 20 f7 ff ff 	movq   $0x0,-0x8e0(%rbp)
   10f11:	00 00 00 00 
   10f15:	48 8d 85 80 ea ff ff 	lea    -0x1580(%rbp),%rax
   10f1c:	48 83 c0 10          	add    $0x10,%rax
   10f20:	48 89 85 28 f7 ff ff 	mov    %rax,-0x8d8(%rbp)
   10f27:	48 c7 85 30 f7 ff ff 	movq   $0x0,-0x8d0(%rbp)
   10f2e:	00 00 00 00 
   10f32:	48 8d 85 80 ea ff ff 	lea    -0x1580(%rbp),%rax
   10f39:	48 83 c0 10          	add    $0x10,%rax
   10f3d:	48 89 85 38 f7 ff ff 	mov    %rax,-0x8c8(%rbp)
   10f44:	48 8d 85 80 ea ff ff 	lea    -0x1580(%rbp),%rax
   10f4b:	48 83 c0 10          	add    $0x10,%rax
   10f4f:	48 89 85 40 f7 ff ff 	mov    %rax,-0x8c0(%rbp)
   10f56:	48 8d 85 80 ea ff ff 	lea    -0x1580(%rbp),%rax
   10f5d:	48 83 c0 08          	add    $0x8,%rax
   10f61:	48 89 85 48 f7 ff ff 	mov    %rax,-0x8b8(%rbp)
   10f68:	48 8d 85 80 ea ff ff 	lea    -0x1580(%rbp),%rax
   10f6f:	48 83 c0 28          	add    $0x28,%rax
   10f73:	48 89 85 50 f7 ff ff 	mov    %rax,-0x8b0(%rbp)
   10f7a:	48 c7 85 58 f7 ff ff 	movq   $0x0,-0x8a8(%rbp)
   10f81:	00 00 00 00 
   10f85:	48 8d 85 80 ea ff ff 	lea    -0x1580(%rbp),%rax
   10f8c:	48 83 c0 08          	add    $0x8,%rax
   10f90:	48 89 85 60 f7 ff ff 	mov    %rax,-0x8a0(%rbp)
   10f97:	48 8d 85 80 ea ff ff 	lea    -0x1580(%rbp),%rax
   10f9e:	48 83 c0 10          	add    $0x10,%rax
   10fa2:	48 89 85 68 f7 ff ff 	mov    %rax,-0x898(%rbp)
   10fa9:	48 8d 85 80 ea ff ff 	lea    -0x1580(%rbp),%rax
   10fb0:	48 83 c0 08          	add    $0x8,%rax
   10fb4:	48 89 85 70 f7 ff ff 	mov    %rax,-0x890(%rbp)
   10fbb:	48 c7 85 78 f7 ff ff 	movq   $0x0,-0x888(%rbp)
   10fc2:	00 00 00 00 
   10fc6:	48 8d 85 80 ea ff ff 	lea    -0x1580(%rbp),%rax
   10fcd:	48 83 c0 28          	add    $0x28,%rax
   10fd1:	48 89 85 80 f7 ff ff 	mov    %rax,-0x880(%rbp)
   10fd8:	48 8d 85 80 ea ff ff 	lea    -0x1580(%rbp),%rax
   10fdf:	48 89 85 88 f7 ff ff 	mov    %rax,-0x878(%rbp)
   10fe6:	48 8d 85 80 ea ff ff 	lea    -0x1580(%rbp),%rax
   10fed:	48 89 85 90 f7 ff ff 	mov    %rax,-0x870(%rbp)
   10ff4:	48 8d 85 80 ea ff ff 	lea    -0x1580(%rbp),%rax
   10ffb:	48 83 c0 10          	add    $0x10,%rax
   10fff:	48 89 85 98 f7 ff ff 	mov    %rax,-0x868(%rbp)
   11006:	48 c7 85 a0 f7 ff ff 	movq   $0x0,-0x860(%rbp)
   1100d:	00 00 00 00 
   11011:	48 8d 85 80 ea ff ff 	lea    -0x1580(%rbp),%rax
   11018:	48 83 c0 10          	add    $0x10,%rax
   1101c:	48 89 85 a8 f7 ff ff 	mov    %rax,-0x858(%rbp)
   11023:	48 c7 85 b0 f7 ff ff 	movq   $0x0,-0x850(%rbp)
   1102a:	00 00 00 00 
   1102e:	48 8d 85 80 ea ff ff 	lea    -0x1580(%rbp),%rax
   11035:	48 89 85 b8 f7 ff ff 	mov    %rax,-0x848(%rbp)
   1103c:	48 8d 85 80 ea ff ff 	lea    -0x1580(%rbp),%rax
   11043:	48 83 c0 10          	add    $0x10,%rax
   11047:	48 89 85 c0 f7 ff ff 	mov    %rax,-0x840(%rbp)
   1104e:	48 8d 85 80 ea ff ff 	lea    -0x1580(%rbp),%rax
   11055:	48 83 c0 28          	add    $0x28,%rax
   11059:	48 89 85 c8 f7 ff ff 	mov    %rax,-0x838(%rbp)
   11060:	48 8d 85 80 ea ff ff 	lea    -0x1580(%rbp),%rax
   11067:	48 83 c0 10          	add    $0x10,%rax
   1106b:	48 89 85 d0 f7 ff ff 	mov    %rax,-0x830(%rbp)
   11072:	48 8d 85 80 ea ff ff 	lea    -0x1580(%rbp),%rax
   11079:	48 83 c0 08          	add    $0x8,%rax
   1107d:	48 89 85 d8 f7 ff ff 	mov    %rax,-0x828(%rbp)
   11084:	48 c7 85 e0 f7 ff ff 	movq   $0x0,-0x820(%rbp)
   1108b:	00 00 00 00 
   1108f:	48 8d 85 80 ea ff ff 	lea    -0x1580(%rbp),%rax
   11096:	48 83 c0 10          	add    $0x10,%rax
   1109a:	48 89 85 e8 f7 ff ff 	mov    %rax,-0x818(%rbp)
   110a1:	48 8d 85 80 ea ff ff 	lea    -0x1580(%rbp),%rax
   110a8:	48 83 c0 10          	add    $0x10,%rax
   110ac:	48 89 85 f0 f7 ff ff 	mov    %rax,-0x810(%rbp)
   110b3:	48 c7 85 f8 f7 ff ff 	movq   $0x0,-0x808(%rbp)
   110ba:	00 00 00 00 
   110be:	48 8d 85 80 ea ff ff 	lea    -0x1580(%rbp),%rax
   110c5:	48 83 c0 08          	add    $0x8,%rax
   110c9:	48 89 85 00 f8 ff ff 	mov    %rax,-0x800(%rbp)
   110d0:	48 8d 85 80 ea ff ff 	lea    -0x1580(%rbp),%rax
   110d7:	48 83 c0 10          	add    $0x10,%rax
   110db:	48 89 85 08 f8 ff ff 	mov    %rax,-0x7f8(%rbp)
   110e2:	48 8d 85 80 ea ff ff 	lea    -0x1580(%rbp),%rax
   110e9:	48 83 c0 10          	add    $0x10,%rax
   110ed:	48 89 85 10 f8 ff ff 	mov    %rax,-0x7f0(%rbp)
   110f4:	48 8d 85 80 ea ff ff 	lea    -0x1580(%rbp),%rax
   110fb:	48 83 c0 10          	add    $0x10,%rax
   110ff:	48 89 85 18 f8 ff ff 	mov    %rax,-0x7e8(%rbp)
   11106:	48 8d 85 80 ea ff ff 	lea    -0x1580(%rbp),%rax
   1110d:	48 83 c0 10          	add    $0x10,%rax
   11111:	48 89 85 20 f8 ff ff 	mov    %rax,-0x7e0(%rbp)
   11118:	48 8d 85 80 ea ff ff 	lea    -0x1580(%rbp),%rax
   1111f:	48 83 c0 10          	add    $0x10,%rax
   11123:	48 89 85 28 f8 ff ff 	mov    %rax,-0x7d8(%rbp)
   1112a:	48 8d 85 80 ea ff ff 	lea    -0x1580(%rbp),%rax
   11131:	48 83 c0 10          	add    $0x10,%rax
   11135:	48 89 85 30 f8 ff ff 	mov    %rax,-0x7d0(%rbp)
   1113c:	48 8d 85 80 ea ff ff 	lea    -0x1580(%rbp),%rax
   11143:	48 83 c0 08          	add    $0x8,%rax
   11147:	48 89 85 38 f8 ff ff 	mov    %rax,-0x7c8(%rbp)
   1114e:	48 c7 85 40 f8 ff ff 	movq   $0x0,-0x7c0(%rbp)
   11155:	00 00 00 00 
   11159:	48 8d 85 80 ea ff ff 	lea    -0x1580(%rbp),%rax
   11160:	48 83 c0 10          	add    $0x10,%rax
   11164:	48 89 85 48 f8 ff ff 	mov    %rax,-0x7b8(%rbp)
   1116b:	48 8d 85 80 ea ff ff 	lea    -0x1580(%rbp),%rax
   11172:	48 83 c0 10          	add    $0x10,%rax
   11176:	48 89 85 50 f8 ff ff 	mov    %rax,-0x7b0(%rbp)
   1117d:	48 c7 85 58 f8 ff ff 	movq   $0x0,-0x7a8(%rbp)
   11184:	00 00 00 00 
   11188:	c7 85 e8 e8 ff ff ba 	movl   $0x1872f1ba,-0x1718(%rbp)
   1118f:	f1 72 18 
   11192:	c7 85 ac e8 ff ff 00 	movl   $0x0,-0x1754(%rbp)
   11199:	00 00 00 
   1119c:	eb 1e                	jmp    111bc <func_80+0x17c8>
   1119e:	8b 85 ac e8 ff ff    	mov    -0x1754(%rbp),%eax
   111a4:	48 98                	cltq   
   111a6:	48 8d 95 f8 e8 ff ff 	lea    -0x1708(%rbp),%rdx
   111ad:	48 89 94 c5 98 e9 ff 	mov    %rdx,-0x1668(%rbp,%rax,8)
   111b4:	ff 
   111b5:	83 85 ac e8 ff ff 01 	addl   $0x1,-0x1754(%rbp)
   111bc:	83 bd ac e8 ff ff 00 	cmpl   $0x0,-0x1754(%rbp)
   111c3:	7e d9                	jle    1119e <func_80+0x17aa>
   111c5:	c7 05 e1 8e 00 00 01 	movl   $0x1,0x8ee1(%rip)        # 1a0b0 <g_134>
   111cc:	00 00 00 
   111cf:	e9 76 01 00 00       	jmpq   1134a <func_80+0x1956>
   111d4:	8b 05 d6 8e 00 00    	mov    0x8ed6(%rip),%eax        # 1a0b0 <g_134>
   111da:	8d 50 01             	lea    0x1(%rax),%edx
   111dd:	48 8b 05 fc dd 00 00 	mov    0xddfc(%rip),%rax        # 1efe0 <g_181>
   111e4:	48 63 d2             	movslq %edx,%rdx
   111e7:	48 8d 0c 95 00 00 00 	lea    0x0(,%rdx,4),%rcx
   111ee:	00 
   111ef:	48 8d 15 fa 8f 00 00 	lea    0x8ffa(%rip),%rdx        # 1a1f0 <g_366>
   111f6:	48 01 ca             	add    %rcx,%rdx
   111f9:	48 89 10             	mov    %rdx,(%rax)
   111fc:	48 8b 05 cd dd 00 00 	mov    0xddcd(%rip),%rax        # 1efd0 <g_138>
   11203:	c7 00 00 00 00 00    	movl   $0x0,(%rax)
   11209:	c7 05 a1 8e 00 00 08 	movl   $0x8,0x8ea1(%rip)        # 1a0b4 <g_136>
   11210:	00 00 00 
   11213:	e9 f6 00 00 00       	jmpq   1130e <func_80+0x191a>
   11218:	48 c7 85 10 e9 ff ff 	movq   $0x0,-0x16f0(%rbp)
   1121f:	00 00 00 00 
   11223:	e9 c9 00 00 00       	jmpq   112f1 <func_80+0x18fd>
   11228:	c7 85 e0 e9 ff ff d9 	movl   $0xe5d0d9d9,-0x1620(%rbp)
   1122f:	d9 d0 e5 
   11232:	c7 85 e4 e9 ff ff e5 	movl   $0x21a118e5,-0x161c(%rbp)
   11239:	18 a1 21 
   1123c:	c7 85 e8 e9 ff ff bf 	movl   $0x978b3fbf,-0x1618(%rbp)
   11243:	3f 8b 97 
   11246:	c7 85 ec e9 ff ff e5 	movl   $0x21a118e5,-0x1614(%rbp)
   1124d:	18 a1 21 
   11250:	c7 85 f0 e9 ff ff d9 	movl   $0xe5d0d9d9,-0x1610(%rbp)
   11257:	d9 d0 e5 
   1125a:	c7 85 f4 e9 ff ff d9 	movl   $0xe5d0d9d9,-0x160c(%rbp)
   11261:	d9 d0 e5 
   11264:	c7 85 f8 e9 ff ff e5 	movl   $0x21a118e5,-0x1608(%rbp)
   1126b:	18 a1 21 
   1126e:	c7 85 fc e9 ff ff bf 	movl   $0x978b3fbf,-0x1604(%rbp)
   11275:	3f 8b 97 
   11278:	c7 85 00 ea ff ff e5 	movl   $0x21a118e5,-0x1600(%rbp)
   1127f:	18 a1 21 
   11282:	c7 85 04 ea ff ff d9 	movl   $0xe5d0d9d9,-0x15fc(%rbp)
   11289:	d9 d0 e5 
   1128c:	c7 85 98 e8 ff ff 00 	movl   $0x0,-0x1768(%rbp)
   11293:	00 00 00 
   11296:	eb 16                	jmp    112ae <func_80+0x18ba>
   11298:	8b 85 f8 e9 ff ff    	mov    -0x1608(%rbp),%eax
   1129e:	83 e8 01             	sub    $0x1,%eax
   112a1:	89 85 f8 e9 ff ff    	mov    %eax,-0x1608(%rbp)
   112a7:	83 85 98 e8 ff ff 01 	addl   $0x1,-0x1768(%rbp)
   112ae:	83 bd 98 e8 ff ff 01 	cmpl   $0x1,-0x1768(%rbp)
   112b5:	76 e1                	jbe    11298 <func_80+0x18a4>
   112b7:	8b 05 f3 8d 00 00    	mov    0x8df3(%rip),%eax        # 1a0b0 <g_134>
   112bd:	8b 15 ed 8d 00 00    	mov    0x8ded(%rip),%edx        # 1a0b0 <g_134>
   112c3:	83 c2 07             	add    $0x7,%edx
   112c6:	48 63 ca             	movslq %edx,%rcx
   112c9:	48 63 d0             	movslq %eax,%rdx
   112cc:	48 89 d0             	mov    %rdx,%rax
   112cf:	48 c1 e0 03          	shl    $0x3,%rax
   112d3:	48 01 d0             	add    %rdx,%rax
   112d6:	48 8d 14 08          	lea    (%rax,%rcx,1),%rdx
   112da:	48 8d 05 9f 8d 00 00 	lea    0x8d9f(%rip),%rax        # 1a080 <g_114>
   112e1:	48 01 d0             	add    %rdx,%rax
   112e4:	0f b6 00             	movzbl (%rax),%eax
   112e7:	84 c0                	test   %al,%al
   112e9:	48 83 85 10 e9 ff ff 	addq   $0x1,-0x16f0(%rbp)
   112f0:	01 
   112f1:	48 83 bd 10 e9 ff ff 	cmpq   $0x9,-0x16f0(%rbp)
   112f8:	09 
   112f9:	0f 86 29 ff ff ff    	jbe    11228 <func_80+0x1834>
   112ff:	8b 05 af 8d 00 00    	mov    0x8daf(%rip),%eax        # 1a0b4 <g_136>
   11305:	83 e8 01             	sub    $0x1,%eax
   11308:	89 05 a6 8d 00 00    	mov    %eax,0x8da6(%rip)        # 1a0b4 <g_136>
   1130e:	8b 05 a0 8d 00 00    	mov    0x8da0(%rip),%eax        # 1a0b4 <g_136>
   11314:	85 c0                	test   %eax,%eax
   11316:	0f 8f fc fe ff ff    	jg     11218 <func_80+0x1824>
   1131c:	48 8b 05 c5 dc 00 00 	mov    0xdcc5(%rip),%rax        # 1efe8 <g_180>
   11323:	48 8b 00             	mov    (%rax),%rax
   11326:	48 8b 00             	mov    (%rax),%rax
   11329:	48 85 c0             	test   %rax,%rax
   1132c:	0f 94 c2             	sete   %dl
   1132f:	48 8b 05 12 dd 00 00 	mov    0xdd12(%rip),%rax        # 1f048 <g_385>
   11336:	0f b6 d2             	movzbl %dl,%edx
   11339:	89 10                	mov    %edx,(%rax)
   1133b:	8b 05 6f 8d 00 00    	mov    0x8d6f(%rip),%eax        # 1a0b0 <g_134>
   11341:	83 e8 01             	sub    $0x1,%eax
   11344:	89 05 66 8d 00 00    	mov    %eax,0x8d66(%rip)        # 1a0b0 <g_134>
   1134a:	8b 05 60 8d 00 00    	mov    0x8d60(%rip),%eax        # 1a0b0 <g_134>
   11350:	85 c0                	test   %eax,%eax
   11352:	0f 89 7c fe ff ff    	jns    111d4 <func_80+0x17e0>
   11358:	c7 85 94 e8 ff ff 00 	movl   $0x0,-0x176c(%rbp)
   1135f:	00 00 00 
   11362:	eb 38                	jmp    1139c <func_80+0x19a8>
   11364:	83 bd 98 e8 ff ff 00 	cmpl   $0x0,-0x1768(%rbp)
   1136b:	74 05                	je     11372 <func_80+0x197e>
   1136d:	e9 ff e9 ff ff       	jmpq   fd71 <func_80+0x37d>
   11372:	48 8b 05 d7 8e 00 00 	mov    0x8ed7(%rip),%rax        # 1a250 <g_538+0x10>
   11379:	48 85 c0             	test   %rax,%rax
   1137c:	75 29                	jne    113a7 <func_80+0x19b3>
   1137e:	8b 85 94 e8 ff ff    	mov    -0x176c(%rbp),%eax
   11384:	0f b7 c0             	movzwl %ax,%eax
   11387:	be 01 00 00 00       	mov    $0x1,%esi
   1138c:	89 c7                	mov    %eax,%edi
   1138e:	e8 8c 89 ff ff       	callq  9d1f <safe_sub_func_uint16_t_u_u>
   11393:	0f b7 c0             	movzwl %ax,%eax
   11396:	89 85 94 e8 ff ff    	mov    %eax,-0x176c(%rbp)
   1139c:	83 bd 94 e8 ff ff f8 	cmpl   $0xfffffff8,-0x176c(%rbp)
   113a3:	75 bf                	jne    11364 <func_80+0x1970>
   113a5:	eb 01                	jmp    113a8 <func_80+0x19b4>
   113a7:	90                   	nop
   113a8:	0f b6 05 01 8e 00 00 	movzbl 0x8e01(%rip),%eax        # 1a1b0 <g_161>
   113af:	0f b6 c0             	movzbl %al,%eax
   113b2:	be 05 00 00 00       	mov    $0x5,%esi
   113b7:	89 c7                	mov    %eax,%edi
   113b9:	e8 f8 81 ff ff       	callq  95b6 <safe_add_func_int32_t_s_s>
   113be:	88 05 ec 8d 00 00    	mov    %al,0x8dec(%rip)        # 1a1b0 <g_161>
   113c4:	0f b6 05 e5 8d 00 00 	movzbl 0x8de5(%rip),%eax        # 1a1b0 <g_161>
   113cb:	3c 28                	cmp    $0x28,%al
   113cd:	0f 85 73 eb ff ff    	jne    ff46 <func_80+0x552>
   113d3:	48 8b 05 6e dc 00 00 	mov    0xdc6e(%rip),%rax        # 1f048 <g_385>
   113da:	0f b6 95 7c e8 ff ff 	movzbl -0x1784(%rbp),%edx
   113e1:	89 10                	mov    %edx,(%rax)
   113e3:	0f b7 05 2c 8e 00 00 	movzwl 0x8e2c(%rip),%eax        # 1a216 <g_506+0x6>
   113ea:	0f b7 c0             	movzwl %ax,%eax
   113ed:	48 8b 75 f8          	mov    -0x8(%rbp),%rsi
   113f1:	64 48 33 34 25 28 00 	xor    %fs:0x28,%rsi
   113f8:	00 00 
   113fa:	74 05                	je     11401 <func_80+0x1a0d>
   113fc:	e8 6f 7c ff ff       	callq  9070 <__stack_chk_fail@plt>
   11401:	c9                   	leaveq 
   11402:	c3                   	retq   

0000000000011403 <main>:
   11403:	f3 0f 1e fa          	endbr64 
   11407:	55                   	push   %rbp
   11408:	48 89 e5             	mov    %rsp,%rbp
   1140b:	48 83 ec 60          	sub    $0x60,%rsp
   1140f:	89 7d dc             	mov    %edi,-0x24(%rbp)
   11412:	48 89 75 d0          	mov    %rsi,-0x30(%rbp)
   11416:	64 48 8b 04 25 28 00 	mov    %fs:0x28,%rax
   1141d:	00 00 
   1141f:	48 89 45 f8          	mov    %rax,-0x8(%rbp)
   11423:	31 c0                	xor    %eax,%eax
   11425:	c7 45 f4 00 00 00 00 	movl   $0x0,-0xc(%rbp)
   1142c:	83 7d dc 02          	cmpl   $0x2,-0x24(%rbp)
   11430:	75 25                	jne    11457 <main+0x54>
   11432:	48 8b 45 d0          	mov    -0x30(%rbp),%rax
   11436:	48 83 c0 08          	add    $0x8,%rax
   1143a:	48 8b 00             	mov    (%rax),%rax
   1143d:	48 8d 35 dc 48 00 00 	lea    0x48dc(%rip),%rsi        # 15d20 <g_2569+0xca0>
   11444:	48 89 c7             	mov    %rax,%rdi
   11447:	e8 44 7c ff ff       	callq  9090 <strcmp@plt>
   1144c:	85 c0                	test   %eax,%eax
   1144e:	75 07                	jne    11457 <main+0x54>
   11450:	c7 45 f4 01 00 00 00 	movl   $0x1,-0xc(%rbp)
   11457:	e8 2d 7d ff ff       	callq  9189 <platform_main_begin>
   1145c:	e8 37 91 ff ff       	callq  a598 <crc32_gentab>
   11461:	48 8d 45 a0          	lea    -0x60(%rbp),%rax
   11465:	48 89 c7             	mov    %rax,%rdi
   11468:	e8 48 93 ff ff       	callq  a7b5 <func_1>
   1146d:	8b 05 b1 8b 00 00    	mov    0x8bb1(%rip),%eax        # 1a024 <g_3>
   11473:	48 98                	cltq   
   11475:	8b 55 f4             	mov    -0xc(%rbp),%edx
   11478:	48 8d 35 a3 48 00 00 	lea    0x48a3(%rip),%rsi        # 15d22 <g_2569+0xca2>
   1147f:	48 89 c7             	mov    %rax,%rdi
   11482:	e8 6c 92 ff ff       	callq  a6f3 <transparent_crc>
   11487:	0f b7 05 9a 8b 00 00 	movzwl 0x8b9a(%rip),%eax        # 1a028 <g_5>
   1148e:	48 0f bf c0          	movswq %ax,%rax
   11492:	8b 55 f4             	mov    -0xc(%rbp),%edx
   11495:	48 8d 35 8a 48 00 00 	lea    0x488a(%rip),%rsi        # 15d26 <g_2569+0xca6>
   1149c:	48 89 c7             	mov    %rax,%rdi
   1149f:	e8 4f 92 ff ff       	callq  a6f3 <transparent_crc>
   114a4:	0f b6 05 7f 8b 00 00 	movzbl 0x8b7f(%rip),%eax        # 1a02a <g_6>
   114ab:	0f b6 c0             	movzbl %al,%eax
   114ae:	8b 55 f4             	mov    -0xc(%rbp),%edx
   114b1:	48 8d 35 72 48 00 00 	lea    0x4872(%rip),%rsi        # 15d2a <g_2569+0xcaa>
   114b8:	48 89 c7             	mov    %rax,%rdi
   114bb:	e8 33 92 ff ff       	callq  a6f3 <transparent_crc>
   114c0:	8b 05 66 8b 00 00    	mov    0x8b66(%rip),%eax        # 1a02c <g_11>
   114c6:	48 98                	cltq   
   114c8:	8b 55 f4             	mov    -0xc(%rbp),%edx
   114cb:	48 8d 35 5c 48 00 00 	lea    0x485c(%rip),%rsi        # 15d2e <g_2569+0xcae>
   114d2:	48 89 c7             	mov    %rax,%rdi
   114d5:	e8 19 92 ff ff       	callq  a6f3 <transparent_crc>
   114da:	0f b7 05 4f 8b 00 00 	movzwl 0x8b4f(%rip),%eax        # 1a030 <g_57>
   114e1:	0f b7 c0             	movzwl %ax,%eax
   114e4:	8b 55 f4             	mov    -0xc(%rbp),%edx
   114e7:	48 8d 35 45 48 00 00 	lea    0x4845(%rip),%rsi        # 15d33 <g_2569+0xcb3>
   114ee:	48 89 c7             	mov    %rax,%rdi
   114f1:	e8 fd 91 ff ff       	callq  a6f3 <transparent_crc>
   114f6:	8b 05 44 8b 00 00    	mov    0x8b44(%rip),%eax        # 1a040 <g_66>
   114fc:	89 c1                	mov    %eax,%ecx
   114fe:	8b 45 f4             	mov    -0xc(%rbp),%eax
   11501:	89 c2                	mov    %eax,%edx
   11503:	48 8d 35 2e 48 00 00 	lea    0x482e(%rip),%rsi        # 15d38 <g_2569+0xcb8>
   1150a:	48 89 cf             	mov    %rcx,%rdi
   1150d:	e8 e1 91 ff ff       	callq  a6f3 <transparent_crc>
   11512:	0f b7 05 2b 8b 00 00 	movzwl 0x8b2b(%rip),%eax        # 1a044 <g_66+0x4>
   11519:	0f b7 c0             	movzwl %ax,%eax
   1151c:	8b 55 f4             	mov    -0xc(%rbp),%edx
   1151f:	48 8d 35 1a 48 00 00 	lea    0x481a(%rip),%rsi        # 15d40 <g_2569+0xcc0>
   11526:	48 89 c7             	mov    %rax,%rdi
   11529:	e8 c5 91 ff ff       	callq  a6f3 <transparent_crc>
   1152e:	8b 05 14 8b 00 00    	mov    0x8b14(%rip),%eax        # 1a048 <g_66+0x8>
   11534:	25 ff ff 1f 00       	and    $0x1fffff,%eax
   11539:	89 c1                	mov    %eax,%ecx
   1153b:	8b 45 f4             	mov    -0xc(%rbp),%eax
   1153e:	89 c2                	mov    %eax,%edx
   11540:	48 8d 35 01 48 00 00 	lea    0x4801(%rip),%rsi        # 15d48 <g_2569+0xcc8>
   11547:	48 89 cf             	mov    %rcx,%rdi
   1154a:	e8 a4 91 ff ff       	callq  a6f3 <transparent_crc>
   1154f:	0f b7 05 f6 8a 00 00 	movzwl 0x8af6(%rip),%eax        # 1a04c <g_66+0xc>
   11556:	48 0f bf c0          	movswq %ax,%rax
   1155a:	8b 55 f4             	mov    -0xc(%rbp),%edx
   1155d:	48 8d 35 ec 47 00 00 	lea    0x47ec(%rip),%rsi        # 15d50 <g_2569+0xcd0>
   11564:	48 89 c7             	mov    %rax,%rdi
   11567:	e8 87 91 ff ff       	callq  a6f3 <transparent_crc>
   1156c:	0f b6 05 db 8a 00 00 	movzbl 0x8adb(%rip),%eax        # 1a04e <g_66+0xe>
   11573:	0f b6 c0             	movzbl %al,%eax
   11576:	8b 55 f4             	mov    -0xc(%rbp),%edx
   11579:	48 8d 35 d8 47 00 00 	lea    0x47d8(%rip),%rsi        # 15d58 <g_2569+0xcd8>
   11580:	48 89 c7             	mov    %rax,%rdi
   11583:	e8 6b 91 ff ff       	callq  a6f3 <transparent_crc>
   11588:	48 8b 05 c1 8a 00 00 	mov    0x8ac1(%rip),%rax        # 1a050 <g_66+0x10>
   1158f:	8b 55 f4             	mov    -0xc(%rbp),%edx
   11592:	48 8d 35 c7 47 00 00 	lea    0x47c7(%rip),%rsi        # 15d60 <g_2569+0xce0>
   11599:	48 89 c7             	mov    %rax,%rdi
   1159c:	e8 52 91 ff ff       	callq  a6f3 <transparent_crc>
   115a1:	48 8b 05 b0 8a 00 00 	mov    0x8ab0(%rip),%rax        # 1a058 <g_66+0x18>
   115a8:	48 89 c1             	mov    %rax,%rcx
   115ab:	8b 45 f4             	mov    -0xc(%rbp),%eax
   115ae:	89 c2                	mov    %eax,%edx
   115b0:	48 8d 35 b1 47 00 00 	lea    0x47b1(%rip),%rsi        # 15d68 <g_2569+0xce8>
   115b7:	48 89 cf             	mov    %rcx,%rdi
   115ba:	e8 34 91 ff ff       	callq  a6f3 <transparent_crc>
   115bf:	0f b6 05 9a 8a 00 00 	movzbl 0x8a9a(%rip),%eax        # 1a060 <g_66+0x20>
   115c6:	0f b6 c0             	movzbl %al,%eax
   115c9:	8b 55 f4             	mov    -0xc(%rbp),%edx
   115cc:	48 8d 35 a0 47 00 00 	lea    0x47a0(%rip),%rsi        # 15d73 <g_2569+0xcf3>
   115d3:	48 89 c7             	mov    %rax,%rdi
   115d6:	e8 18 91 ff ff       	callq  a6f3 <transparent_crc>
   115db:	8b 05 87 8a 00 00    	mov    0x8a87(%rip),%eax        # 1a068 <g_66+0x28>
   115e1:	c1 e0 04             	shl    $0x4,%eax
   115e4:	c1 f8 04             	sar    $0x4,%eax
   115e7:	48 98                	cltq   
   115e9:	8b 55 f4             	mov    -0xc(%rbp),%edx
   115ec:	48 8d 35 8b 47 00 00 	lea    0x478b(%rip),%rsi        # 15d7e <g_2569+0xcfe>
   115f3:	48 89 c7             	mov    %rax,%rdi
   115f6:	e8 f8 90 ff ff       	callq  a6f3 <transparent_crc>
   115fb:	48 8b 05 6e 8a 00 00 	mov    0x8a6e(%rip),%rax        # 1a070 <g_111>
   11602:	48 89 c1             	mov    %rax,%rcx
   11605:	8b 45 f4             	mov    -0xc(%rbp),%eax
   11608:	89 c2                	mov    %eax,%edx
   1160a:	48 8d 35 75 47 00 00 	lea    0x4775(%rip),%rsi        # 15d86 <g_2569+0xd06>
   11611:	48 89 cf             	mov    %rcx,%rdi
   11614:	e8 da 90 ff ff       	callq  a6f3 <transparent_crc>
   11619:	c7 45 e8 00 00 00 00 	movl   $0x0,-0x18(%rbp)
   11620:	eb 73                	jmp    11695 <main+0x292>
   11622:	c7 45 ec 00 00 00 00 	movl   $0x0,-0x14(%rbp)
   11629:	eb 60                	jmp    1168b <main+0x288>
   1162b:	8b 45 ec             	mov    -0x14(%rbp),%eax
   1162e:	48 63 c8             	movslq %eax,%rcx
   11631:	8b 45 e8             	mov    -0x18(%rbp),%eax
   11634:	48 63 d0             	movslq %eax,%rdx
   11637:	48 89 d0             	mov    %rdx,%rax
   1163a:	48 c1 e0 03          	shl    $0x3,%rax
   1163e:	48 01 d0             	add    %rdx,%rax
   11641:	48 8d 14 08          	lea    (%rax,%rcx,1),%rdx
   11645:	48 8d 05 34 8a 00 00 	lea    0x8a34(%rip),%rax        # 1a080 <g_114>
   1164c:	48 01 d0             	add    %rdx,%rax
   1164f:	0f b6 00             	movzbl (%rax),%eax
   11652:	48 0f be c0          	movsbq %al,%rax
   11656:	8b 55 f4             	mov    -0xc(%rbp),%edx
   11659:	48 8d 35 2c 47 00 00 	lea    0x472c(%rip),%rsi        # 15d8c <g_2569+0xd0c>
   11660:	48 89 c7             	mov    %rax,%rdi
   11663:	e8 8b 90 ff ff       	callq  a6f3 <transparent_crc>
   11668:	83 7d f4 00          	cmpl   $0x0,-0xc(%rbp)
   1166c:	74 19                	je     11687 <main+0x284>
   1166e:	8b 55 ec             	mov    -0x14(%rbp),%edx
   11671:	8b 45 e8             	mov    -0x18(%rbp),%eax
   11674:	89 c6                	mov    %eax,%esi
   11676:	48 8d 3d 1b 47 00 00 	lea    0x471b(%rip),%rdi        # 15d98 <g_2569+0xd18>
   1167d:	b8 00 00 00 00       	mov    $0x0,%eax
   11682:	e8 f9 79 ff ff       	callq  9080 <printf@plt>
   11687:	83 45 ec 01          	addl   $0x1,-0x14(%rbp)
   1168b:	83 7d ec 08          	cmpl   $0x8,-0x14(%rbp)
   1168f:	7e 9a                	jle    1162b <main+0x228>
   11691:	83 45 e8 01          	addl   $0x1,-0x18(%rbp)
   11695:	83 7d e8 01          	cmpl   $0x1,-0x18(%rbp)
   11699:	7e 87                	jle    11622 <main+0x21f>
   1169b:	0f b7 05 f0 89 00 00 	movzwl 0x89f0(%rip),%eax        # 1a092 <g_115>
   116a2:	0f b7 c0             	movzwl %ax,%eax
   116a5:	8b 55 f4             	mov    -0xc(%rbp),%edx
   116a8:	48 8d 35 fb 46 00 00 	lea    0x46fb(%rip),%rsi        # 15daa <g_2569+0xd2a>
   116af:	48 89 c7             	mov    %rax,%rdi
   116b2:	e8 3c 90 ff ff       	callq  a6f3 <transparent_crc>
   116b7:	0f b6 05 d6 89 00 00 	movzbl 0x89d6(%rip),%eax        # 1a094 <g_118>
   116be:	48 0f be c0          	movsbq %al,%rax
   116c2:	8b 55 f4             	mov    -0xc(%rbp),%edx
   116c5:	48 8d 35 e4 46 00 00 	lea    0x46e4(%rip),%rsi        # 15db0 <g_2569+0xd30>
   116cc:	48 89 c7             	mov    %rax,%rdi
   116cf:	e8 1f 90 ff ff       	callq  a6f3 <transparent_crc>
   116d4:	0f b6 05 ba 89 00 00 	movzbl 0x89ba(%rip),%eax        # 1a095 <g_120>
   116db:	48 0f be c0          	movsbq %al,%rax
   116df:	8b 55 f4             	mov    -0xc(%rbp),%edx
   116e2:	48 8d 35 cd 46 00 00 	lea    0x46cd(%rip),%rsi        # 15db6 <g_2569+0xd36>
   116e9:	48 89 c7             	mov    %rax,%rdi
   116ec:	e8 02 90 ff ff       	callq  a6f3 <transparent_crc>
   116f1:	8b 05 a1 89 00 00    	mov    0x89a1(%rip),%eax        # 1a098 <g_126>
   116f7:	89 c1                	mov    %eax,%ecx
   116f9:	8b 45 f4             	mov    -0xc(%rbp),%eax
   116fc:	89 c2                	mov    %eax,%edx
   116fe:	48 8d 35 b7 46 00 00 	lea    0x46b7(%rip),%rsi        # 15dbc <g_2569+0xd3c>
   11705:	48 89 cf             	mov    %rcx,%rdi
   11708:	e8 e6 8f ff ff       	callq  a6f3 <transparent_crc>
   1170d:	48 8b 05 8c 89 00 00 	mov    0x898c(%rip),%rax        # 1a0a0 <g_127>
   11714:	48 89 c1             	mov    %rax,%rcx
   11717:	8b 45 f4             	mov    -0xc(%rbp),%eax
   1171a:	89 c2                	mov    %eax,%edx
   1171c:	48 8d 35 9f 46 00 00 	lea    0x469f(%rip),%rsi        # 15dc2 <g_2569+0xd42>
   11723:	48 89 cf             	mov    %rcx,%rdi
   11726:	e8 c8 8f ff ff       	callq  a6f3 <transparent_crc>
   1172b:	0f b6 05 76 89 00 00 	movzbl 0x8976(%rip),%eax        # 1a0a8 <g_127+0x8>
   11732:	0f b6 c0             	movzbl %al,%eax
   11735:	8b 55 f4             	mov    -0xc(%rbp),%edx
   11738:	48 8d 35 8c 46 00 00 	lea    0x468c(%rip),%rsi        # 15dcb <g_2569+0xd4b>
   1173f:	48 89 c7             	mov    %rax,%rdi
   11742:	e8 ac 8f ff ff       	callq  a6f3 <transparent_crc>
   11747:	8b 05 63 89 00 00    	mov    0x8963(%rip),%eax        # 1a0b0 <g_134>
   1174d:	48 98                	cltq   
   1174f:	8b 55 f4             	mov    -0xc(%rbp),%edx
   11752:	48 8d 35 7b 46 00 00 	lea    0x467b(%rip),%rsi        # 15dd4 <g_2569+0xd54>
   11759:	48 89 c7             	mov    %rax,%rdi
   1175c:	e8 92 8f ff ff       	callq  a6f3 <transparent_crc>
   11761:	8b 05 4d 89 00 00    	mov    0x894d(%rip),%eax        # 1a0b4 <g_136>
   11767:	48 98                	cltq   
   11769:	8b 55 f4             	mov    -0xc(%rbp),%edx
   1176c:	48 8d 35 67 46 00 00 	lea    0x4667(%rip),%rsi        # 15dda <g_2569+0xd5a>
   11773:	48 89 c7             	mov    %rax,%rdi
   11776:	e8 78 8f ff ff       	callq  a6f3 <transparent_crc>
   1177b:	c7 45 e8 00 00 00 00 	movl   $0x0,-0x18(%rbp)
   11782:	e9 9a 00 00 00       	jmpq   11821 <main+0x41e>
   11787:	c7 45 ec 00 00 00 00 	movl   $0x0,-0x14(%rbp)
   1178e:	e9 80 00 00 00       	jmpq   11813 <main+0x410>
   11793:	c7 45 f0 00 00 00 00 	movl   $0x0,-0x10(%rbp)
   1179a:	eb 6d                	jmp    11809 <main+0x406>
   1179c:	8b 45 f0             	mov    -0x10(%rbp),%eax
   1179f:	48 63 c8             	movslq %eax,%rcx
   117a2:	8b 45 e8             	mov    -0x18(%rbp),%eax
   117a5:	48 63 d0             	movslq %eax,%rdx
   117a8:	8b 45 ec             	mov    -0x14(%rbp),%eax
   117ab:	48 98                	cltq   
   117ad:	48 01 c2             	add    %rax,%rdx
   117b0:	48 89 d0             	mov    %rdx,%rax
   117b3:	48 c1 e0 02          	shl    $0x2,%rax
   117b7:	48 01 d0             	add    %rdx,%rax
   117ba:	48 01 c8             	add    %rcx,%rax
   117bd:	48 8d 14 85 00 00 00 	lea    0x0(,%rax,4),%rdx
   117c4:	00 
   117c5:	48 8d 05 f4 88 00 00 	lea    0x88f4(%rip),%rax        # 1a0c0 <g_139>
   117cc:	8b 04 02             	mov    (%rdx,%rax,1),%eax
   117cf:	48 98                	cltq   
   117d1:	8b 55 f4             	mov    -0xc(%rbp),%edx
   117d4:	48 8d 35 05 46 00 00 	lea    0x4605(%rip),%rsi        # 15de0 <g_2569+0xd60>
   117db:	48 89 c7             	mov    %rax,%rdi
   117de:	e8 10 8f ff ff       	callq  a6f3 <transparent_crc>
   117e3:	83 7d f4 00          	cmpl   $0x0,-0xc(%rbp)
   117e7:	74 1c                	je     11805 <main+0x402>
   117e9:	8b 4d f0             	mov    -0x10(%rbp),%ecx
   117ec:	8b 55 ec             	mov    -0x14(%rbp),%edx
   117ef:	8b 45 e8             	mov    -0x18(%rbp),%eax
   117f2:	89 c6                	mov    %eax,%esi
   117f4:	48 8d 3d f4 45 00 00 	lea    0x45f4(%rip),%rdi        # 15def <g_2569+0xd6f>
   117fb:	b8 00 00 00 00       	mov    $0x0,%eax
   11800:	e8 7b 78 ff ff       	callq  9080 <printf@plt>
   11805:	83 45 f0 01          	addl   $0x1,-0x10(%rbp)
   11809:	83 7d f0 04          	cmpl   $0x4,-0x10(%rbp)
   1180d:	7e 8d                	jle    1179c <main+0x399>
   1180f:	83 45 ec 01          	addl   $0x1,-0x14(%rbp)
   11813:	83 7d ec 00          	cmpl   $0x0,-0x14(%rbp)
   11817:	0f 8e 76 ff ff ff    	jle    11793 <main+0x390>
   1181d:	83 45 e8 01          	addl   $0x1,-0x18(%rbp)
   11821:	83 7d e8 08          	cmpl   $0x8,-0x18(%rbp)
   11825:	0f 8e 5c ff ff ff    	jle    11787 <main+0x384>
   1182b:	8b 05 4f 89 00 00    	mov    0x894f(%rip),%eax        # 1a180 <g_142>
   11831:	89 c1                	mov    %eax,%ecx
   11833:	8b 45 f4             	mov    -0xc(%rbp),%eax
   11836:	89 c2                	mov    %eax,%edx
   11838:	48 8d 35 c6 45 00 00 	lea    0x45c6(%rip),%rsi        # 15e05 <g_2569+0xd85>
   1183f:	48 89 cf             	mov    %rcx,%rdi
   11842:	e8 ac 8e ff ff       	callq  a6f3 <transparent_crc>
   11847:	0f b7 05 36 89 00 00 	movzwl 0x8936(%rip),%eax        # 1a184 <g_142+0x4>
   1184e:	0f b7 c0             	movzwl %ax,%eax
   11851:	8b 55 f4             	mov    -0xc(%rbp),%edx
   11854:	48 8d 35 b3 45 00 00 	lea    0x45b3(%rip),%rsi        # 15e0e <g_2569+0xd8e>
   1185b:	48 89 c7             	mov    %rax,%rdi
   1185e:	e8 90 8e ff ff       	callq  a6f3 <transparent_crc>
   11863:	48 8b 05 1e 89 00 00 	mov    0x891e(%rip),%rax        # 1a188 <g_142+0x8>
   1186a:	25 ff ff 1f 00       	and    $0x1fffff,%eax
   1186f:	89 c1                	mov    %eax,%ecx
   11871:	8b 45 f4             	mov    -0xc(%rbp),%eax
   11874:	89 c2                	mov    %eax,%edx
   11876:	48 8d 35 9a 45 00 00 	lea    0x459a(%rip),%rsi        # 15e17 <g_2569+0xd97>
   1187d:	48 89 cf             	mov    %rcx,%rdi
   11880:	e8 6e 8e ff ff       	callq  a6f3 <transparent_crc>
   11885:	0f b7 05 00 89 00 00 	movzwl 0x8900(%rip),%eax        # 1a18c <g_142+0xc>
   1188c:	48 0f bf c0          	movswq %ax,%rax
   11890:	8b 55 f4             	mov    -0xc(%rbp),%edx
   11893:	48 8d 35 86 45 00 00 	lea    0x4586(%rip),%rsi        # 15e20 <g_2569+0xda0>
   1189a:	48 89 c7             	mov    %rax,%rdi
   1189d:	e8 51 8e ff ff       	callq  a6f3 <transparent_crc>
   118a2:	0f b6 05 e5 88 00 00 	movzbl 0x88e5(%rip),%eax        # 1a18e <g_142+0xe>
   118a9:	0f b6 c0             	movzbl %al,%eax
   118ac:	8b 55 f4             	mov    -0xc(%rbp),%edx
   118af:	48 8d 35 73 45 00 00 	lea    0x4573(%rip),%rsi        # 15e29 <g_2569+0xda9>
   118b6:	48 89 c7             	mov    %rax,%rdi
   118b9:	e8 35 8e ff ff       	callq  a6f3 <transparent_crc>
   118be:	48 8b 05 cb 88 00 00 	mov    0x88cb(%rip),%rax        # 1a190 <g_142+0x10>
   118c5:	8b 55 f4             	mov    -0xc(%rbp),%edx
   118c8:	48 8d 35 63 45 00 00 	lea    0x4563(%rip),%rsi        # 15e32 <g_2569+0xdb2>
   118cf:	48 89 c7             	mov    %rax,%rdi
   118d2:	e8 1c 8e ff ff       	callq  a6f3 <transparent_crc>
   118d7:	48 8b 05 ba 88 00 00 	mov    0x88ba(%rip),%rax        # 1a198 <g_142+0x18>
   118de:	48 89 c1             	mov    %rax,%rcx
   118e1:	8b 45 f4             	mov    -0xc(%rbp),%eax
   118e4:	89 c2                	mov    %eax,%edx
   118e6:	48 8d 35 4e 45 00 00 	lea    0x454e(%rip),%rsi        # 15e3b <g_2569+0xdbb>
   118ed:	48 89 cf             	mov    %rcx,%rdi
   118f0:	e8 fe 8d ff ff       	callq  a6f3 <transparent_crc>
   118f5:	0f b6 05 a4 88 00 00 	movzbl 0x88a4(%rip),%eax        # 1a1a0 <g_142+0x20>
   118fc:	0f b6 c0             	movzbl %al,%eax
   118ff:	8b 55 f4             	mov    -0xc(%rbp),%edx
   11902:	48 8d 35 3e 45 00 00 	lea    0x453e(%rip),%rsi        # 15e47 <g_2569+0xdc7>
   11909:	48 89 c7             	mov    %rax,%rdi
   1190c:	e8 e2 8d ff ff       	callq  a6f3 <transparent_crc>
   11911:	48 8b 05 90 88 00 00 	mov    0x8890(%rip),%rax        # 1a1a8 <g_142+0x28>
   11918:	c1 e0 04             	shl    $0x4,%eax
   1191b:	c1 f8 04             	sar    $0x4,%eax
   1191e:	48 98                	cltq   
   11920:	8b 55 f4             	mov    -0xc(%rbp),%edx
   11923:	48 8d 35 29 45 00 00 	lea    0x4529(%rip),%rsi        # 15e53 <g_2569+0xdd3>
   1192a:	48 89 c7             	mov    %rax,%rdi
   1192d:	e8 c1 8d ff ff       	callq  a6f3 <transparent_crc>
   11932:	0f b6 05 77 88 00 00 	movzbl 0x8877(%rip),%eax        # 1a1b0 <g_161>
   11939:	0f b6 c0             	movzbl %al,%eax
   1193c:	8b 55 f4             	mov    -0xc(%rbp),%edx
   1193f:	48 8d 35 16 45 00 00 	lea    0x4516(%rip),%rsi        # 15e5c <g_2569+0xddc>
   11946:	48 89 c7             	mov    %rax,%rdi
   11949:	e8 a5 8d ff ff       	callq  a6f3 <transparent_crc>
   1194e:	c7 45 e8 00 00 00 00 	movl   $0x0,-0x18(%rbp)
   11955:	eb 4b                	jmp    119a2 <main+0x59f>
   11957:	8b 45 e8             	mov    -0x18(%rbp),%eax
   1195a:	48 98                	cltq   
   1195c:	48 8d 14 85 00 00 00 	lea    0x0(,%rax,4),%rdx
   11963:	00 
   11964:	48 8d 05 55 88 00 00 	lea    0x8855(%rip),%rax        # 1a1c0 <g_207>
   1196b:	8b 04 02             	mov    (%rdx,%rax,1),%eax
   1196e:	48 98                	cltq   
   11970:	8b 55 f4             	mov    -0xc(%rbp),%edx
   11973:	48 8d 35 e8 44 00 00 	lea    0x44e8(%rip),%rsi        # 15e62 <g_2569+0xde2>
   1197a:	48 89 c7             	mov    %rax,%rdi
   1197d:	e8 71 8d ff ff       	callq  a6f3 <transparent_crc>
   11982:	83 7d f4 00          	cmpl   $0x0,-0xc(%rbp)
   11986:	74 16                	je     1199e <main+0x59b>
   11988:	8b 45 e8             	mov    -0x18(%rbp),%eax
   1198b:	89 c6                	mov    %eax,%esi
   1198d:	48 8d 3d d7 44 00 00 	lea    0x44d7(%rip),%rdi        # 15e6b <g_2569+0xdeb>
   11994:	b8 00 00 00 00       	mov    $0x0,%eax
   11999:	e8 e2 76 ff ff       	callq  9080 <printf@plt>
   1199e:	83 45 e8 01          	addl   $0x1,-0x18(%rbp)
   119a2:	83 7d e8 09          	cmpl   $0x9,-0x18(%rbp)
   119a6:	7e af                	jle    11957 <main+0x554>
   119a8:	48 8b 05 39 88 00 00 	mov    0x8839(%rip),%rax        # 1a1e8 <g_320>
   119af:	8b 55 f4             	mov    -0xc(%rbp),%edx
   119b2:	48 8d 35 c0 44 00 00 	lea    0x44c0(%rip),%rsi        # 15e79 <g_2569+0xdf9>
   119b9:	48 89 c7             	mov    %rax,%rdi
   119bc:	e8 32 8d ff ff       	callq  a6f3 <transparent_crc>
   119c1:	c7 45 e8 00 00 00 00 	movl   $0x0,-0x18(%rbp)
   119c8:	eb 4b                	jmp    11a15 <main+0x612>
   119ca:	8b 45 e8             	mov    -0x18(%rbp),%eax
   119cd:	48 98                	cltq   
   119cf:	48 8d 14 85 00 00 00 	lea    0x0(,%rax,4),%rdx
   119d6:	00 
   119d7:	48 8d 05 12 88 00 00 	lea    0x8812(%rip),%rax        # 1a1f0 <g_366>
   119de:	8b 04 02             	mov    (%rdx,%rax,1),%eax
   119e1:	48 98                	cltq   
   119e3:	8b 55 f4             	mov    -0xc(%rbp),%edx
   119e6:	48 8d 35 92 44 00 00 	lea    0x4492(%rip),%rsi        # 15e7f <g_2569+0xdff>
   119ed:	48 89 c7             	mov    %rax,%rdi
   119f0:	e8 fe 8c ff ff       	callq  a6f3 <transparent_crc>
   119f5:	83 7d f4 00          	cmpl   $0x0,-0xc(%rbp)
   119f9:	74 16                	je     11a11 <main+0x60e>
   119fb:	8b 45 e8             	mov    -0x18(%rbp),%eax
   119fe:	89 c6                	mov    %eax,%esi
   11a00:	48 8d 3d 64 44 00 00 	lea    0x4464(%rip),%rdi        # 15e6b <g_2569+0xdeb>
   11a07:	b8 00 00 00 00       	mov    $0x0,%eax
   11a0c:	e8 6f 76 ff ff       	callq  9080 <printf@plt>
   11a11:	83 45 e8 01          	addl   $0x1,-0x18(%rbp)
   11a15:	83 7d e8 02          	cmpl   $0x2,-0x18(%rbp)
   11a19:	7e af                	jle    119ca <main+0x5c7>
   11a1b:	0f b7 05 da 87 00 00 	movzwl 0x87da(%rip),%eax        # 1a1fc <g_370>
   11a22:	48 0f bf c0          	movswq %ax,%rax
   11a26:	8b 55 f4             	mov    -0xc(%rbp),%edx
   11a29:	48 8d 35 58 44 00 00 	lea    0x4458(%rip),%rsi        # 15e88 <g_2569+0xe08>
   11a30:	48 89 c7             	mov    %rax,%rdi
   11a33:	e8 bb 8c ff ff       	callq  a6f3 <transparent_crc>
   11a38:	48 8b 05 c1 87 00 00 	mov    0x87c1(%rip),%rax        # 1a200 <g_402>
   11a3f:	8b 55 f4             	mov    -0xc(%rbp),%edx
   11a42:	48 8d 35 45 44 00 00 	lea    0x4445(%rip),%rsi        # 15e8e <g_2569+0xe0e>
   11a49:	48 89 c7             	mov    %rax,%rdi
   11a4c:	e8 a2 8c ff ff       	callq  a6f3 <transparent_crc>
   11a51:	48 8b 05 b0 87 00 00 	mov    0x87b0(%rip),%rax        # 1a208 <g_504>
   11a58:	48 89 c1             	mov    %rax,%rcx
   11a5b:	8b 45 f4             	mov    -0xc(%rbp),%eax
   11a5e:	89 c2                	mov    %eax,%edx
   11a60:	48 8d 35 2d 44 00 00 	lea    0x442d(%rip),%rsi        # 15e94 <g_2569+0xe14>
   11a67:	48 89 cf             	mov    %rcx,%rdi
   11a6a:	e8 84 8c ff ff       	callq  a6f3 <transparent_crc>
   11a6f:	c7 45 e8 00 00 00 00 	movl   $0x0,-0x18(%rbp)
   11a76:	eb 49                	jmp    11ac1 <main+0x6be>
   11a78:	8b 45 e8             	mov    -0x18(%rbp),%eax
   11a7b:	48 98                	cltq   
   11a7d:	48 8d 14 00          	lea    (%rax,%rax,1),%rdx
   11a81:	48 8d 05 88 87 00 00 	lea    0x8788(%rip),%rax        # 1a210 <g_506>
   11a88:	0f b7 04 02          	movzwl (%rdx,%rax,1),%eax
   11a8c:	0f b7 c0             	movzwl %ax,%eax
   11a8f:	8b 55 f4             	mov    -0xc(%rbp),%edx
   11a92:	48 8d 35 01 44 00 00 	lea    0x4401(%rip),%rsi        # 15e9a <g_2569+0xe1a>
   11a99:	48 89 c7             	mov    %rax,%rdi
   11a9c:	e8 52 8c ff ff       	callq  a6f3 <transparent_crc>
   11aa1:	83 7d f4 00          	cmpl   $0x0,-0xc(%rbp)
   11aa5:	74 16                	je     11abd <main+0x6ba>
   11aa7:	8b 45 e8             	mov    -0x18(%rbp),%eax
   11aaa:	89 c6                	mov    %eax,%esi
   11aac:	48 8d 3d b8 43 00 00 	lea    0x43b8(%rip),%rdi        # 15e6b <g_2569+0xdeb>
   11ab3:	b8 00 00 00 00       	mov    $0x0,%eax
   11ab8:	e8 c3 75 ff ff       	callq  9080 <printf@plt>
   11abd:	83 45 e8 01          	addl   $0x1,-0x18(%rbp)
   11ac1:	83 7d e8 08          	cmpl   $0x8,-0x18(%rbp)
   11ac5:	7e b1                	jle    11a78 <main+0x675>
   11ac7:	c7 45 e8 00 00 00 00 	movl   $0x0,-0x18(%rbp)
   11ace:	eb 4a                	jmp    11b1a <main+0x717>
   11ad0:	8b 45 e8             	mov    -0x18(%rbp),%eax
   11ad3:	48 98                	cltq   
   11ad5:	48 8d 14 c5 00 00 00 	lea    0x0(,%rax,8),%rdx
   11adc:	00 
   11add:	48 8d 05 5c 87 00 00 	lea    0x875c(%rip),%rax        # 1a240 <g_538>
   11ae4:	48 8b 04 02          	mov    (%rdx,%rax,1),%rax
   11ae8:	8b 55 f4             	mov    -0xc(%rbp),%edx
   11aeb:	48 8d 35 b1 43 00 00 	lea    0x43b1(%rip),%rsi        # 15ea3 <g_2569+0xe23>
   11af2:	48 89 c7             	mov    %rax,%rdi
   11af5:	e8 f9 8b ff ff       	callq  a6f3 <transparent_crc>
   11afa:	83 7d f4 00          	cmpl   $0x0,-0xc(%rbp)
   11afe:	74 16                	je     11b16 <main+0x713>
   11b00:	8b 45 e8             	mov    -0x18(%rbp),%eax
   11b03:	89 c6                	mov    %eax,%esi
   11b05:	48 8d 3d 5f 43 00 00 	lea    0x435f(%rip),%rdi        # 15e6b <g_2569+0xdeb>
   11b0c:	b8 00 00 00 00       	mov    $0x0,%eax
   11b11:	e8 6a 75 ff ff       	callq  9080 <printf@plt>
   11b16:	83 45 e8 01          	addl   $0x1,-0x18(%rbp)
   11b1a:	83 7d e8 09          	cmpl   $0x9,-0x18(%rbp)
   11b1e:	7e b0                	jle    11ad0 <main+0x6cd>
   11b20:	48 8b 05 69 87 00 00 	mov    0x8769(%rip),%rax        # 1a290 <g_563>
   11b27:	48 89 c1             	mov    %rax,%rcx
   11b2a:	8b 45 f4             	mov    -0xc(%rbp),%eax
   11b2d:	89 c2                	mov    %eax,%edx
   11b2f:	48 8d 35 76 43 00 00 	lea    0x4376(%rip),%rsi        # 15eac <g_2569+0xe2c>
   11b36:	48 89 cf             	mov    %rcx,%rdi
   11b39:	e8 b5 8b ff ff       	callq  a6f3 <transparent_crc>
   11b3e:	0f b6 05 53 87 00 00 	movzbl 0x8753(%rip),%eax        # 1a298 <g_563+0x8>
   11b45:	0f b6 c0             	movzbl %al,%eax
   11b48:	8b 55 f4             	mov    -0xc(%rbp),%edx
   11b4b:	48 8d 35 63 43 00 00 	lea    0x4363(%rip),%rsi        # 15eb5 <g_2569+0xe35>
   11b52:	48 89 c7             	mov    %rax,%rdi
   11b55:	e8 99 8b ff ff       	callq  a6f3 <transparent_crc>
   11b5a:	c7 45 e8 00 00 00 00 	movl   $0x0,-0x18(%rbp)
   11b61:	eb 6c                	jmp    11bcf <main+0x7cc>
   11b63:	c7 45 ec 00 00 00 00 	movl   $0x0,-0x14(%rbp)
   11b6a:	eb 59                	jmp    11bc5 <main+0x7c2>
   11b6c:	8b 45 ec             	mov    -0x14(%rbp),%eax
   11b6f:	48 98                	cltq   
   11b71:	8b 55 e8             	mov    -0x18(%rbp),%edx
   11b74:	48 63 d2             	movslq %edx,%rdx
   11b77:	48 01 d2             	add    %rdx,%rdx
   11b7a:	48 01 d0             	add    %rdx,%rax
   11b7d:	48 8d 14 00          	lea    (%rax,%rax,1),%rdx
   11b81:	48 8d 05 18 87 00 00 	lea    0x8718(%rip),%rax        # 1a2a0 <g_727>
   11b88:	0f b7 04 02          	movzwl (%rdx,%rax,1),%eax
   11b8c:	48 0f bf c0          	movswq %ax,%rax
   11b90:	8b 55 f4             	mov    -0xc(%rbp),%edx
   11b93:	48 8d 35 24 43 00 00 	lea    0x4324(%rip),%rsi        # 15ebe <g_2569+0xe3e>
   11b9a:	48 89 c7             	mov    %rax,%rdi
   11b9d:	e8 51 8b ff ff       	callq  a6f3 <transparent_crc>
   11ba2:	83 7d f4 00          	cmpl   $0x0,-0xc(%rbp)
   11ba6:	74 19                	je     11bc1 <main+0x7be>
   11ba8:	8b 55 ec             	mov    -0x14(%rbp),%edx
   11bab:	8b 45 e8             	mov    -0x18(%rbp),%eax
   11bae:	89 c6                	mov    %eax,%esi
   11bb0:	48 8d 3d e1 41 00 00 	lea    0x41e1(%rip),%rdi        # 15d98 <g_2569+0xd18>
   11bb7:	b8 00 00 00 00       	mov    $0x0,%eax
   11bbc:	e8 bf 74 ff ff       	callq  9080 <printf@plt>
   11bc1:	83 45 ec 01          	addl   $0x1,-0x14(%rbp)
   11bc5:	83 7d ec 01          	cmpl   $0x1,-0x14(%rbp)
   11bc9:	7e a1                	jle    11b6c <main+0x769>
   11bcb:	83 45 e8 01          	addl   $0x1,-0x18(%rbp)
   11bcf:	83 7d e8 00          	cmpl   $0x0,-0x18(%rbp)
   11bd3:	7e 8e                	jle    11b63 <main+0x760>
   11bd5:	48 8b 05 d4 86 00 00 	mov    0x86d4(%rip),%rax        # 1a2b0 <g_851>
   11bdc:	48 89 c1             	mov    %rax,%rcx
   11bdf:	8b 45 f4             	mov    -0xc(%rbp),%eax
   11be2:	89 c2                	mov    %eax,%edx
   11be4:	48 8d 35 df 42 00 00 	lea    0x42df(%rip),%rsi        # 15eca <g_2569+0xe4a>
   11beb:	48 89 cf             	mov    %rcx,%rdi
   11bee:	e8 00 8b ff ff       	callq  a6f3 <transparent_crc>
   11bf3:	0f b6 05 be 86 00 00 	movzbl 0x86be(%rip),%eax        # 1a2b8 <g_851+0x8>
   11bfa:	0f b6 c0             	movzbl %al,%eax
   11bfd:	8b 55 f4             	mov    -0xc(%rbp),%edx
   11c00:	48 8d 35 cc 42 00 00 	lea    0x42cc(%rip),%rsi        # 15ed3 <g_2569+0xe53>
   11c07:	48 89 c7             	mov    %rax,%rdi
   11c0a:	e8 e4 8a ff ff       	callq  a6f3 <transparent_crc>
   11c0f:	0f b6 05 aa 86 00 00 	movzbl 0x86aa(%rip),%eax        # 1a2c0 <g_869>
   11c16:	48 0f be c0          	movsbq %al,%rax
   11c1a:	8b 55 f4             	mov    -0xc(%rbp),%edx
   11c1d:	48 8d 35 b8 42 00 00 	lea    0x42b8(%rip),%rsi        # 15edc <g_2569+0xe5c>
   11c24:	48 89 c7             	mov    %rax,%rdi
   11c27:	e8 c7 8a ff ff       	callq  a6f3 <transparent_crc>
   11c2c:	48 8b 05 9d 86 00 00 	mov    0x869d(%rip),%rax        # 1a2d0 <g_890>
   11c33:	48 89 c1             	mov    %rax,%rcx
   11c36:	8b 45 f4             	mov    -0xc(%rbp),%eax
   11c39:	89 c2                	mov    %eax,%edx
   11c3b:	48 8d 35 a0 42 00 00 	lea    0x42a0(%rip),%rsi        # 15ee2 <g_2569+0xe62>
   11c42:	48 89 cf             	mov    %rcx,%rdi
   11c45:	e8 a9 8a ff ff       	callq  a6f3 <transparent_crc>
   11c4a:	0f b6 05 87 86 00 00 	movzbl 0x8687(%rip),%eax        # 1a2d8 <g_890+0x8>
   11c51:	0f b6 c0             	movzbl %al,%eax
   11c54:	8b 55 f4             	mov    -0xc(%rbp),%edx
   11c57:	48 8d 35 8d 42 00 00 	lea    0x428d(%rip),%rsi        # 15eeb <g_2569+0xe6b>
   11c5e:	48 89 c7             	mov    %rax,%rdi
   11c61:	e8 8d 8a ff ff       	callq  a6f3 <transparent_crc>
   11c66:	48 8b 05 73 86 00 00 	mov    0x8673(%rip),%rax        # 1a2e0 <g_899>
   11c6d:	48 89 c1             	mov    %rax,%rcx
   11c70:	8b 45 f4             	mov    -0xc(%rbp),%eax
   11c73:	89 c2                	mov    %eax,%edx
   11c75:	48 8d 35 78 42 00 00 	lea    0x4278(%rip),%rsi        # 15ef4 <g_2569+0xe74>
   11c7c:	48 89 cf             	mov    %rcx,%rdi
   11c7f:	e8 6f 8a ff ff       	callq  a6f3 <transparent_crc>
   11c84:	0f b6 05 5d 86 00 00 	movzbl 0x865d(%rip),%eax        # 1a2e8 <g_899+0x8>
   11c8b:	0f b6 c0             	movzbl %al,%eax
   11c8e:	8b 55 f4             	mov    -0xc(%rbp),%edx
   11c91:	48 8d 35 65 42 00 00 	lea    0x4265(%rip),%rsi        # 15efd <g_2569+0xe7d>
   11c98:	48 89 c7             	mov    %rax,%rdi
   11c9b:	e8 53 8a ff ff       	callq  a6f3 <transparent_crc>
   11ca0:	8b 05 5a 86 00 00    	mov    0x865a(%rip),%eax        # 1a300 <g_962>
   11ca6:	89 c1                	mov    %eax,%ecx
   11ca8:	8b 45 f4             	mov    -0xc(%rbp),%eax
   11cab:	89 c2                	mov    %eax,%edx
   11cad:	48 8d 35 52 42 00 00 	lea    0x4252(%rip),%rsi        # 15f06 <g_2569+0xe86>
   11cb4:	48 89 cf             	mov    %rcx,%rdi
   11cb7:	e8 37 8a ff ff       	callq  a6f3 <transparent_crc>
   11cbc:	0f b7 05 41 86 00 00 	movzwl 0x8641(%rip),%eax        # 1a304 <g_962+0x4>
   11cc3:	0f b7 c0             	movzwl %ax,%eax
   11cc6:	8b 55 f4             	mov    -0xc(%rbp),%edx
   11cc9:	48 8d 35 3f 42 00 00 	lea    0x423f(%rip),%rsi        # 15f0f <g_2569+0xe8f>
   11cd0:	48 89 c7             	mov    %rax,%rdi
   11cd3:	e8 1b 8a ff ff       	callq  a6f3 <transparent_crc>
   11cd8:	8b 05 2a 86 00 00    	mov    0x862a(%rip),%eax        # 1a308 <g_962+0x8>
   11cde:	25 ff ff 1f 00       	and    $0x1fffff,%eax
   11ce3:	89 c1                	mov    %eax,%ecx
   11ce5:	8b 45 f4             	mov    -0xc(%rbp),%eax
   11ce8:	89 c2                	mov    %eax,%edx
   11cea:	48 8d 35 27 42 00 00 	lea    0x4227(%rip),%rsi        # 15f18 <g_2569+0xe98>
   11cf1:	48 89 cf             	mov    %rcx,%rdi
   11cf4:	e8 fa 89 ff ff       	callq  a6f3 <transparent_crc>
   11cf9:	0f b7 05 0c 86 00 00 	movzwl 0x860c(%rip),%eax        # 1a30c <g_962+0xc>
   11d00:	48 0f bf c0          	movswq %ax,%rax
   11d04:	8b 55 f4             	mov    -0xc(%rbp),%edx
   11d07:	48 8d 35 13 42 00 00 	lea    0x4213(%rip),%rsi        # 15f21 <g_2569+0xea1>
   11d0e:	48 89 c7             	mov    %rax,%rdi
   11d11:	e8 dd 89 ff ff       	callq  a6f3 <transparent_crc>
   11d16:	0f b6 05 f1 85 00 00 	movzbl 0x85f1(%rip),%eax        # 1a30e <g_962+0xe>
   11d1d:	0f b6 c0             	movzbl %al,%eax
   11d20:	8b 55 f4             	mov    -0xc(%rbp),%edx
   11d23:	48 8d 35 00 42 00 00 	lea    0x4200(%rip),%rsi        # 15f2a <g_2569+0xeaa>
   11d2a:	48 89 c7             	mov    %rax,%rdi
   11d2d:	e8 c1 89 ff ff       	callq  a6f3 <transparent_crc>
   11d32:	48 8b 05 d7 85 00 00 	mov    0x85d7(%rip),%rax        # 1a310 <g_962+0x10>
   11d39:	8b 55 f4             	mov    -0xc(%rbp),%edx
   11d3c:	48 8d 35 f0 41 00 00 	lea    0x41f0(%rip),%rsi        # 15f33 <g_2569+0xeb3>
   11d43:	48 89 c7             	mov    %rax,%rdi
   11d46:	e8 a8 89 ff ff       	callq  a6f3 <transparent_crc>
   11d4b:	48 8b 05 c6 85 00 00 	mov    0x85c6(%rip),%rax        # 1a318 <g_962+0x18>
   11d52:	48 89 c1             	mov    %rax,%rcx
   11d55:	8b 45 f4             	mov    -0xc(%rbp),%eax
   11d58:	89 c2                	mov    %eax,%edx
   11d5a:	48 8d 35 db 41 00 00 	lea    0x41db(%rip),%rsi        # 15f3c <g_2569+0xebc>
   11d61:	48 89 cf             	mov    %rcx,%rdi
   11d64:	e8 8a 89 ff ff       	callq  a6f3 <transparent_crc>
   11d69:	0f b6 05 b0 85 00 00 	movzbl 0x85b0(%rip),%eax        # 1a320 <g_962+0x20>
   11d70:	0f b6 c0             	movzbl %al,%eax
   11d73:	8b 55 f4             	mov    -0xc(%rbp),%edx
   11d76:	48 8d 35 cb 41 00 00 	lea    0x41cb(%rip),%rsi        # 15f48 <g_2569+0xec8>
   11d7d:	48 89 c7             	mov    %rax,%rdi
   11d80:	e8 6e 89 ff ff       	callq  a6f3 <transparent_crc>
   11d85:	8b 05 9d 85 00 00    	mov    0x859d(%rip),%eax        # 1a328 <g_962+0x28>
   11d8b:	c1 e0 04             	shl    $0x4,%eax
   11d8e:	c1 f8 04             	sar    $0x4,%eax
   11d91:	48 98                	cltq   
   11d93:	8b 55 f4             	mov    -0xc(%rbp),%edx
   11d96:	48 8d 35 b7 41 00 00 	lea    0x41b7(%rip),%rsi        # 15f54 <g_2569+0xed4>
   11d9d:	48 89 c7             	mov    %rax,%rdi
   11da0:	e8 4e 89 ff ff       	callq  a6f3 <transparent_crc>
   11da5:	b9 01 00 00 00       	mov    $0x1,%ecx
   11daa:	8b 45 f4             	mov    -0xc(%rbp),%eax
   11dad:	89 c2                	mov    %eax,%edx
   11daf:	48 8d 35 a7 41 00 00 	lea    0x41a7(%rip),%rsi        # 15f5d <g_2569+0xedd>
   11db6:	48 89 cf             	mov    %rcx,%rdi
   11db9:	e8 35 89 ff ff       	callq  a6f3 <transparent_crc>
   11dbe:	8b 05 7c 85 00 00    	mov    0x857c(%rip),%eax        # 1a340 <g_999>
   11dc4:	89 c1                	mov    %eax,%ecx
   11dc6:	8b 45 f4             	mov    -0xc(%rbp),%eax
   11dc9:	89 c2                	mov    %eax,%edx
   11dcb:	48 8d 35 91 41 00 00 	lea    0x4191(%rip),%rsi        # 15f63 <g_2569+0xee3>
   11dd2:	48 89 cf             	mov    %rcx,%rdi
   11dd5:	e8 19 89 ff ff       	callq  a6f3 <transparent_crc>
   11dda:	0f b7 05 63 85 00 00 	movzwl 0x8563(%rip),%eax        # 1a344 <g_999+0x4>
   11de1:	0f b7 c0             	movzwl %ax,%eax
   11de4:	8b 55 f4             	mov    -0xc(%rbp),%edx
   11de7:	48 8d 35 7e 41 00 00 	lea    0x417e(%rip),%rsi        # 15f6c <g_2569+0xeec>
   11dee:	48 89 c7             	mov    %rax,%rdi
   11df1:	e8 fd 88 ff ff       	callq  a6f3 <transparent_crc>
   11df6:	8b 05 4c 85 00 00    	mov    0x854c(%rip),%eax        # 1a348 <g_999+0x8>
   11dfc:	25 ff ff 1f 00       	and    $0x1fffff,%eax
   11e01:	89 c1                	mov    %eax,%ecx
   11e03:	8b 45 f4             	mov    -0xc(%rbp),%eax
   11e06:	89 c2                	mov    %eax,%edx
   11e08:	48 8d 35 66 41 00 00 	lea    0x4166(%rip),%rsi        # 15f75 <g_2569+0xef5>
   11e0f:	48 89 cf             	mov    %rcx,%rdi
   11e12:	e8 dc 88 ff ff       	callq  a6f3 <transparent_crc>
   11e17:	0f b7 05 2e 85 00 00 	movzwl 0x852e(%rip),%eax        # 1a34c <g_999+0xc>
   11e1e:	48 0f bf c0          	movswq %ax,%rax
   11e22:	8b 55 f4             	mov    -0xc(%rbp),%edx
   11e25:	48 8d 35 52 41 00 00 	lea    0x4152(%rip),%rsi        # 15f7e <g_2569+0xefe>
   11e2c:	48 89 c7             	mov    %rax,%rdi
   11e2f:	e8 bf 88 ff ff       	callq  a6f3 <transparent_crc>
   11e34:	0f b6 05 13 85 00 00 	movzbl 0x8513(%rip),%eax        # 1a34e <g_999+0xe>
   11e3b:	0f b6 c0             	movzbl %al,%eax
   11e3e:	8b 55 f4             	mov    -0xc(%rbp),%edx
   11e41:	48 8d 35 3f 41 00 00 	lea    0x413f(%rip),%rsi        # 15f87 <g_2569+0xf07>
   11e48:	48 89 c7             	mov    %rax,%rdi
   11e4b:	e8 a3 88 ff ff       	callq  a6f3 <transparent_crc>
   11e50:	48 8b 05 f9 84 00 00 	mov    0x84f9(%rip),%rax        # 1a350 <g_999+0x10>
   11e57:	8b 55 f4             	mov    -0xc(%rbp),%edx
   11e5a:	48 8d 35 2f 41 00 00 	lea    0x412f(%rip),%rsi        # 15f90 <g_2569+0xf10>
   11e61:	48 89 c7             	mov    %rax,%rdi
   11e64:	e8 8a 88 ff ff       	callq  a6f3 <transparent_crc>
   11e69:	48 8b 05 e8 84 00 00 	mov    0x84e8(%rip),%rax        # 1a358 <g_999+0x18>
   11e70:	48 89 c1             	mov    %rax,%rcx
   11e73:	8b 45 f4             	mov    -0xc(%rbp),%eax
   11e76:	89 c2                	mov    %eax,%edx
   11e78:	48 8d 35 1a 41 00 00 	lea    0x411a(%rip),%rsi        # 15f99 <g_2569+0xf19>
   11e7f:	48 89 cf             	mov    %rcx,%rdi
   11e82:	e8 6c 88 ff ff       	callq  a6f3 <transparent_crc>
   11e87:	0f b6 05 d2 84 00 00 	movzbl 0x84d2(%rip),%eax        # 1a360 <g_999+0x20>
   11e8e:	0f b6 c0             	movzbl %al,%eax
   11e91:	8b 55 f4             	mov    -0xc(%rbp),%edx
   11e94:	48 8d 35 0a 41 00 00 	lea    0x410a(%rip),%rsi        # 15fa5 <g_2569+0xf25>
   11e9b:	48 89 c7             	mov    %rax,%rdi
   11e9e:	e8 50 88 ff ff       	callq  a6f3 <transparent_crc>
   11ea3:	8b 05 bf 84 00 00    	mov    0x84bf(%rip),%eax        # 1a368 <g_999+0x28>
   11ea9:	c1 e0 04             	shl    $0x4,%eax
   11eac:	c1 f8 04             	sar    $0x4,%eax
   11eaf:	48 98                	cltq   
   11eb1:	8b 55 f4             	mov    -0xc(%rbp),%edx
   11eb4:	48 8d 35 f6 40 00 00 	lea    0x40f6(%rip),%rsi        # 15fb1 <g_2569+0xf31>
   11ebb:	48 89 c7             	mov    %rax,%rdi
   11ebe:	e8 30 88 ff ff       	callq  a6f3 <transparent_crc>
   11ec3:	8b 05 b7 84 00 00    	mov    0x84b7(%rip),%eax        # 1a380 <g_1017>
   11ec9:	89 c1                	mov    %eax,%ecx
   11ecb:	8b 45 f4             	mov    -0xc(%rbp),%eax
   11ece:	89 c2                	mov    %eax,%edx
   11ed0:	48 8d 35 e3 40 00 00 	lea    0x40e3(%rip),%rsi        # 15fba <g_2569+0xf3a>
   11ed7:	48 89 cf             	mov    %rcx,%rdi
   11eda:	e8 14 88 ff ff       	callq  a6f3 <transparent_crc>
   11edf:	0f b7 05 9e 84 00 00 	movzwl 0x849e(%rip),%eax        # 1a384 <g_1017+0x4>
   11ee6:	0f b7 c0             	movzwl %ax,%eax
   11ee9:	8b 55 f4             	mov    -0xc(%rbp),%edx
   11eec:	48 8d 35 d1 40 00 00 	lea    0x40d1(%rip),%rsi        # 15fc4 <g_2569+0xf44>
   11ef3:	48 89 c7             	mov    %rax,%rdi
   11ef6:	e8 f8 87 ff ff       	callq  a6f3 <transparent_crc>
   11efb:	8b 05 87 84 00 00    	mov    0x8487(%rip),%eax        # 1a388 <g_1017+0x8>
   11f01:	25 ff ff 1f 00       	and    $0x1fffff,%eax
   11f06:	89 c1                	mov    %eax,%ecx
   11f08:	8b 45 f4             	mov    -0xc(%rbp),%eax
   11f0b:	89 c2                	mov    %eax,%edx
   11f0d:	48 8d 35 ba 40 00 00 	lea    0x40ba(%rip),%rsi        # 15fce <g_2569+0xf4e>
   11f14:	48 89 cf             	mov    %rcx,%rdi
   11f17:	e8 d7 87 ff ff       	callq  a6f3 <transparent_crc>
   11f1c:	0f b7 05 69 84 00 00 	movzwl 0x8469(%rip),%eax        # 1a38c <g_1017+0xc>
   11f23:	48 0f bf c0          	movswq %ax,%rax
   11f27:	8b 55 f4             	mov    -0xc(%rbp),%edx
   11f2a:	48 8d 35 a7 40 00 00 	lea    0x40a7(%rip),%rsi        # 15fd8 <g_2569+0xf58>
   11f31:	48 89 c7             	mov    %rax,%rdi
   11f34:	e8 ba 87 ff ff       	callq  a6f3 <transparent_crc>
   11f39:	0f b6 05 4e 84 00 00 	movzbl 0x844e(%rip),%eax        # 1a38e <g_1017+0xe>
   11f40:	0f b6 c0             	movzbl %al,%eax
   11f43:	8b 55 f4             	mov    -0xc(%rbp),%edx
   11f46:	48 8d 35 95 40 00 00 	lea    0x4095(%rip),%rsi        # 15fe2 <g_2569+0xf62>
   11f4d:	48 89 c7             	mov    %rax,%rdi
   11f50:	e8 9e 87 ff ff       	callq  a6f3 <transparent_crc>
   11f55:	48 8b 05 34 84 00 00 	mov    0x8434(%rip),%rax        # 1a390 <g_1017+0x10>
   11f5c:	8b 55 f4             	mov    -0xc(%rbp),%edx
   11f5f:	48 8d 35 86 40 00 00 	lea    0x4086(%rip),%rsi        # 15fec <g_2569+0xf6c>
   11f66:	48 89 c7             	mov    %rax,%rdi
   11f69:	e8 85 87 ff ff       	callq  a6f3 <transparent_crc>
   11f6e:	48 8b 05 23 84 00 00 	mov    0x8423(%rip),%rax        # 1a398 <g_1017+0x18>
   11f75:	48 89 c1             	mov    %rax,%rcx
   11f78:	8b 45 f4             	mov    -0xc(%rbp),%eax
   11f7b:	89 c2                	mov    %eax,%edx
   11f7d:	48 8d 35 72 40 00 00 	lea    0x4072(%rip),%rsi        # 15ff6 <g_2569+0xf76>
   11f84:	48 89 cf             	mov    %rcx,%rdi
   11f87:	e8 67 87 ff ff       	callq  a6f3 <transparent_crc>
   11f8c:	0f b6 05 0d 84 00 00 	movzbl 0x840d(%rip),%eax        # 1a3a0 <g_1017+0x20>
   11f93:	0f b6 c0             	movzbl %al,%eax
   11f96:	8b 55 f4             	mov    -0xc(%rbp),%edx
   11f99:	48 8d 35 63 40 00 00 	lea    0x4063(%rip),%rsi        # 16003 <g_2569+0xf83>
   11fa0:	48 89 c7             	mov    %rax,%rdi
   11fa3:	e8 4b 87 ff ff       	callq  a6f3 <transparent_crc>
   11fa8:	8b 05 fa 83 00 00    	mov    0x83fa(%rip),%eax        # 1a3a8 <g_1017+0x28>
   11fae:	c1 e0 04             	shl    $0x4,%eax
   11fb1:	c1 f8 04             	sar    $0x4,%eax
   11fb4:	48 98                	cltq   
   11fb6:	8b 55 f4             	mov    -0xc(%rbp),%edx
   11fb9:	48 8d 35 50 40 00 00 	lea    0x4050(%rip),%rsi        # 16010 <g_2569+0xf90>
   11fc0:	48 89 c7             	mov    %rax,%rdi
   11fc3:	e8 2b 87 ff ff       	callq  a6f3 <transparent_crc>
   11fc8:	8b 05 f2 83 00 00    	mov    0x83f2(%rip),%eax        # 1a3c0 <g_1021>
   11fce:	89 c1                	mov    %eax,%ecx
   11fd0:	8b 45 f4             	mov    -0xc(%rbp),%eax
   11fd3:	89 c2                	mov    %eax,%edx
   11fd5:	48 8d 35 3e 40 00 00 	lea    0x403e(%rip),%rsi        # 1601a <g_2569+0xf9a>
   11fdc:	48 89 cf             	mov    %rcx,%rdi
   11fdf:	e8 0f 87 ff ff       	callq  a6f3 <transparent_crc>
   11fe4:	0f b7 05 d9 83 00 00 	movzwl 0x83d9(%rip),%eax        # 1a3c4 <g_1021+0x4>
   11feb:	0f b7 c0             	movzwl %ax,%eax
   11fee:	8b 55 f4             	mov    -0xc(%rbp),%edx
   11ff1:	48 8d 35 2c 40 00 00 	lea    0x402c(%rip),%rsi        # 16024 <g_2569+0xfa4>
   11ff8:	48 89 c7             	mov    %rax,%rdi
   11ffb:	e8 f3 86 ff ff       	callq  a6f3 <transparent_crc>
   12000:	8b 05 c2 83 00 00    	mov    0x83c2(%rip),%eax        # 1a3c8 <g_1021+0x8>
   12006:	25 ff ff 1f 00       	and    $0x1fffff,%eax
   1200b:	89 c1                	mov    %eax,%ecx
   1200d:	8b 45 f4             	mov    -0xc(%rbp),%eax
   12010:	89 c2                	mov    %eax,%edx
   12012:	48 8d 35 15 40 00 00 	lea    0x4015(%rip),%rsi        # 1602e <g_2569+0xfae>
   12019:	48 89 cf             	mov    %rcx,%rdi
   1201c:	e8 d2 86 ff ff       	callq  a6f3 <transparent_crc>
   12021:	0f b7 05 a4 83 00 00 	movzwl 0x83a4(%rip),%eax        # 1a3cc <g_1021+0xc>
   12028:	48 0f bf c0          	movswq %ax,%rax
   1202c:	8b 55 f4             	mov    -0xc(%rbp),%edx
   1202f:	48 8d 35 02 40 00 00 	lea    0x4002(%rip),%rsi        # 16038 <g_2569+0xfb8>
   12036:	48 89 c7             	mov    %rax,%rdi
   12039:	e8 b5 86 ff ff       	callq  a6f3 <transparent_crc>
   1203e:	0f b6 05 89 83 00 00 	movzbl 0x8389(%rip),%eax        # 1a3ce <g_1021+0xe>
   12045:	0f b6 c0             	movzbl %al,%eax
   12048:	8b 55 f4             	mov    -0xc(%rbp),%edx
   1204b:	48 8d 35 f0 3f 00 00 	lea    0x3ff0(%rip),%rsi        # 16042 <g_2569+0xfc2>
   12052:	48 89 c7             	mov    %rax,%rdi
   12055:	e8 99 86 ff ff       	callq  a6f3 <transparent_crc>
   1205a:	48 8b 05 6f 83 00 00 	mov    0x836f(%rip),%rax        # 1a3d0 <g_1021+0x10>
   12061:	8b 55 f4             	mov    -0xc(%rbp),%edx
   12064:	48 8d 35 e1 3f 00 00 	lea    0x3fe1(%rip),%rsi        # 1604c <g_2569+0xfcc>
   1206b:	48 89 c7             	mov    %rax,%rdi
   1206e:	e8 80 86 ff ff       	callq  a6f3 <transparent_crc>
   12073:	48 8b 05 5e 83 00 00 	mov    0x835e(%rip),%rax        # 1a3d8 <g_1021+0x18>
   1207a:	48 89 c1             	mov    %rax,%rcx
   1207d:	8b 45 f4             	mov    -0xc(%rbp),%eax
   12080:	89 c2                	mov    %eax,%edx
   12082:	48 8d 35 cd 3f 00 00 	lea    0x3fcd(%rip),%rsi        # 16056 <g_2569+0xfd6>
   12089:	48 89 cf             	mov    %rcx,%rdi
   1208c:	e8 62 86 ff ff       	callq  a6f3 <transparent_crc>
   12091:	0f b6 05 48 83 00 00 	movzbl 0x8348(%rip),%eax        # 1a3e0 <g_1021+0x20>
   12098:	0f b6 c0             	movzbl %al,%eax
   1209b:	8b 55 f4             	mov    -0xc(%rbp),%edx
   1209e:	48 8d 35 be 3f 00 00 	lea    0x3fbe(%rip),%rsi        # 16063 <g_2569+0xfe3>
   120a5:	48 89 c7             	mov    %rax,%rdi
   120a8:	e8 46 86 ff ff       	callq  a6f3 <transparent_crc>
   120ad:	8b 05 35 83 00 00    	mov    0x8335(%rip),%eax        # 1a3e8 <g_1021+0x28>
   120b3:	c1 e0 04             	shl    $0x4,%eax
   120b6:	c1 f8 04             	sar    $0x4,%eax
   120b9:	48 98                	cltq   
   120bb:	8b 55 f4             	mov    -0xc(%rbp),%edx
   120be:	48 8d 35 ab 3f 00 00 	lea    0x3fab(%rip),%rsi        # 16070 <g_2569+0xff0>
   120c5:	48 89 c7             	mov    %rax,%rdi
   120c8:	e8 26 86 ff ff       	callq  a6f3 <transparent_crc>
   120cd:	8b 05 2d 83 00 00    	mov    0x832d(%rip),%eax        # 1a400 <g_1023>
   120d3:	89 c1                	mov    %eax,%ecx
   120d5:	8b 45 f4             	mov    -0xc(%rbp),%eax
   120d8:	89 c2                	mov    %eax,%edx
   120da:	48 8d 35 99 3f 00 00 	lea    0x3f99(%rip),%rsi        # 1607a <g_2569+0xffa>
   120e1:	48 89 cf             	mov    %rcx,%rdi
   120e4:	e8 0a 86 ff ff       	callq  a6f3 <transparent_crc>
   120e9:	0f b7 05 14 83 00 00 	movzwl 0x8314(%rip),%eax        # 1a404 <g_1023+0x4>
   120f0:	0f b7 c0             	movzwl %ax,%eax
   120f3:	8b 55 f4             	mov    -0xc(%rbp),%edx
   120f6:	48 8d 35 87 3f 00 00 	lea    0x3f87(%rip),%rsi        # 16084 <g_2569+0x1004>
   120fd:	48 89 c7             	mov    %rax,%rdi
   12100:	e8 ee 85 ff ff       	callq  a6f3 <transparent_crc>
   12105:	8b 05 fd 82 00 00    	mov    0x82fd(%rip),%eax        # 1a408 <g_1023+0x8>
   1210b:	25 ff ff 1f 00       	and    $0x1fffff,%eax
   12110:	89 c1                	mov    %eax,%ecx
   12112:	8b 45 f4             	mov    -0xc(%rbp),%eax
   12115:	89 c2                	mov    %eax,%edx
   12117:	48 8d 35 70 3f 00 00 	lea    0x3f70(%rip),%rsi        # 1608e <g_2569+0x100e>
   1211e:	48 89 cf             	mov    %rcx,%rdi
   12121:	e8 cd 85 ff ff       	callq  a6f3 <transparent_crc>
   12126:	0f b7 05 df 82 00 00 	movzwl 0x82df(%rip),%eax        # 1a40c <g_1023+0xc>
   1212d:	48 0f bf c0          	movswq %ax,%rax
   12131:	8b 55 f4             	mov    -0xc(%rbp),%edx
   12134:	48 8d 35 5d 3f 00 00 	lea    0x3f5d(%rip),%rsi        # 16098 <g_2569+0x1018>
   1213b:	48 89 c7             	mov    %rax,%rdi
   1213e:	e8 b0 85 ff ff       	callq  a6f3 <transparent_crc>
   12143:	0f b6 05 c4 82 00 00 	movzbl 0x82c4(%rip),%eax        # 1a40e <g_1023+0xe>
   1214a:	0f b6 c0             	movzbl %al,%eax
   1214d:	8b 55 f4             	mov    -0xc(%rbp),%edx
   12150:	48 8d 35 4b 3f 00 00 	lea    0x3f4b(%rip),%rsi        # 160a2 <g_2569+0x1022>
   12157:	48 89 c7             	mov    %rax,%rdi
   1215a:	e8 94 85 ff ff       	callq  a6f3 <transparent_crc>
   1215f:	48 8b 05 aa 82 00 00 	mov    0x82aa(%rip),%rax        # 1a410 <g_1023+0x10>
   12166:	8b 55 f4             	mov    -0xc(%rbp),%edx
   12169:	48 8d 35 3c 3f 00 00 	lea    0x3f3c(%rip),%rsi        # 160ac <g_2569+0x102c>
   12170:	48 89 c7             	mov    %rax,%rdi
   12173:	e8 7b 85 ff ff       	callq  a6f3 <transparent_crc>
   12178:	48 8b 05 99 82 00 00 	mov    0x8299(%rip),%rax        # 1a418 <g_1023+0x18>
   1217f:	48 89 c1             	mov    %rax,%rcx
   12182:	8b 45 f4             	mov    -0xc(%rbp),%eax
   12185:	89 c2                	mov    %eax,%edx
   12187:	48 8d 35 28 3f 00 00 	lea    0x3f28(%rip),%rsi        # 160b6 <g_2569+0x1036>
   1218e:	48 89 cf             	mov    %rcx,%rdi
   12191:	e8 5d 85 ff ff       	callq  a6f3 <transparent_crc>
   12196:	0f b6 05 83 82 00 00 	movzbl 0x8283(%rip),%eax        # 1a420 <g_1023+0x20>
   1219d:	0f b6 c0             	movzbl %al,%eax
   121a0:	8b 55 f4             	mov    -0xc(%rbp),%edx
   121a3:	48 8d 35 19 3f 00 00 	lea    0x3f19(%rip),%rsi        # 160c3 <g_2569+0x1043>
   121aa:	48 89 c7             	mov    %rax,%rdi
   121ad:	e8 41 85 ff ff       	callq  a6f3 <transparent_crc>
   121b2:	8b 05 70 82 00 00    	mov    0x8270(%rip),%eax        # 1a428 <g_1023+0x28>
   121b8:	c1 e0 04             	shl    $0x4,%eax
   121bb:	c1 f8 04             	sar    $0x4,%eax
   121be:	48 98                	cltq   
   121c0:	8b 55 f4             	mov    -0xc(%rbp),%edx
   121c3:	48 8d 35 06 3f 00 00 	lea    0x3f06(%rip),%rsi        # 160d0 <g_2569+0x1050>
   121ca:	48 89 c7             	mov    %rax,%rdi
   121cd:	e8 21 85 ff ff       	callq  a6f3 <transparent_crc>
   121d2:	48 8b 05 57 82 00 00 	mov    0x8257(%rip),%rax        # 1a430 <g_1120>
   121d9:	8b 55 f4             	mov    -0xc(%rbp),%edx
   121dc:	48 8d 35 f7 3e 00 00 	lea    0x3ef7(%rip),%rsi        # 160da <g_2569+0x105a>
   121e3:	48 89 c7             	mov    %rax,%rdi
   121e6:	e8 08 85 ff ff       	callq  a6f3 <transparent_crc>
   121eb:	48 8b 05 4e 82 00 00 	mov    0x824e(%rip),%rax        # 1a440 <g_1210>
   121f2:	48 89 c1             	mov    %rax,%rcx
   121f5:	8b 45 f4             	mov    -0xc(%rbp),%eax
   121f8:	89 c2                	mov    %eax,%edx
   121fa:	48 8d 35 e0 3e 00 00 	lea    0x3ee0(%rip),%rsi        # 160e1 <g_2569+0x1061>
   12201:	48 89 cf             	mov    %rcx,%rdi
   12204:	e8 ea 84 ff ff       	callq  a6f3 <transparent_crc>
   12209:	0f b6 05 38 82 00 00 	movzbl 0x8238(%rip),%eax        # 1a448 <g_1210+0x8>
   12210:	0f b6 c0             	movzbl %al,%eax
   12213:	8b 55 f4             	mov    -0xc(%rbp),%edx
   12216:	48 8d 35 ce 3e 00 00 	lea    0x3ece(%rip),%rsi        # 160eb <g_2569+0x106b>
   1221d:	48 89 c7             	mov    %rax,%rdi
   12220:	e8 ce 84 ff ff       	callq  a6f3 <transparent_crc>
   12225:	c7 45 e8 00 00 00 00 	movl   $0x0,-0x18(%rbp)
   1222c:	eb 7a                	jmp    122a8 <main+0xea5>
   1222e:	8b 45 e8             	mov    -0x18(%rbp),%eax
   12231:	48 98                	cltq   
   12233:	48 c1 e0 04          	shl    $0x4,%rax
   12237:	48 89 c2             	mov    %rax,%rdx
   1223a:	48 8d 05 1f 82 00 00 	lea    0x821f(%rip),%rax        # 1a460 <g_1213>
   12241:	48 8b 04 02          	mov    (%rdx,%rax,1),%rax
   12245:	48 89 c1             	mov    %rax,%rcx
   12248:	8b 45 f4             	mov    -0xc(%rbp),%eax
   1224b:	89 c2                	mov    %eax,%edx
   1224d:	48 8d 35 a1 3e 00 00 	lea    0x3ea1(%rip),%rsi        # 160f5 <g_2569+0x1075>
   12254:	48 89 cf             	mov    %rcx,%rdi
   12257:	e8 97 84 ff ff       	callq  a6f3 <transparent_crc>
   1225c:	8b 45 e8             	mov    -0x18(%rbp),%eax
   1225f:	48 98                	cltq   
   12261:	48 c1 e0 04          	shl    $0x4,%rax
   12265:	48 89 c2             	mov    %rax,%rdx
   12268:	48 8d 05 f9 81 00 00 	lea    0x81f9(%rip),%rax        # 1a468 <g_1213+0x8>
   1226f:	0f b6 04 02          	movzbl (%rdx,%rax,1),%eax
   12273:	0f b6 c0             	movzbl %al,%eax
   12276:	8b 55 f4             	mov    -0xc(%rbp),%edx
   12279:	48 8d 35 82 3e 00 00 	lea    0x3e82(%rip),%rsi        # 16102 <g_2569+0x1082>
   12280:	48 89 c7             	mov    %rax,%rdi
   12283:	e8 6b 84 ff ff       	callq  a6f3 <transparent_crc>
   12288:	83 7d f4 00          	cmpl   $0x0,-0xc(%rbp)
   1228c:	74 16                	je     122a4 <main+0xea1>
   1228e:	8b 45 e8             	mov    -0x18(%rbp),%eax
   12291:	89 c6                	mov    %eax,%esi
   12293:	48 8d 3d d1 3b 00 00 	lea    0x3bd1(%rip),%rdi        # 15e6b <g_2569+0xdeb>
   1229a:	b8 00 00 00 00       	mov    $0x0,%eax
   1229f:	e8 dc 6d ff ff       	callq  9080 <printf@plt>
   122a4:	83 45 e8 01          	addl   $0x1,-0x18(%rbp)
   122a8:	83 7d e8 02          	cmpl   $0x2,-0x18(%rbp)
   122ac:	7e 80                	jle    1222e <main+0xe2b>
   122ae:	48 8b 05 db 81 00 00 	mov    0x81db(%rip),%rax        # 1a490 <g_1223>
   122b5:	48 89 c1             	mov    %rax,%rcx
   122b8:	8b 45 f4             	mov    -0xc(%rbp),%eax
   122bb:	89 c2                	mov    %eax,%edx
   122bd:	48 8d 35 4b 3e 00 00 	lea    0x3e4b(%rip),%rsi        # 1610f <g_2569+0x108f>
   122c4:	48 89 cf             	mov    %rcx,%rdi
   122c7:	e8 27 84 ff ff       	callq  a6f3 <transparent_crc>
   122cc:	0f b6 05 c5 81 00 00 	movzbl 0x81c5(%rip),%eax        # 1a498 <g_1223+0x8>
   122d3:	0f b6 c0             	movzbl %al,%eax
   122d6:	8b 55 f4             	mov    -0xc(%rbp),%edx
   122d9:	48 8d 35 39 3e 00 00 	lea    0x3e39(%rip),%rsi        # 16119 <g_2569+0x1099>
   122e0:	48 89 c7             	mov    %rax,%rdi
   122e3:	e8 0b 84 ff ff       	callq  a6f3 <transparent_crc>
   122e8:	c7 45 e8 00 00 00 00 	movl   $0x0,-0x18(%rbp)
   122ef:	eb 7a                	jmp    1236b <main+0xf68>
   122f1:	8b 45 e8             	mov    -0x18(%rbp),%eax
   122f4:	48 98                	cltq   
   122f6:	48 c1 e0 04          	shl    $0x4,%rax
   122fa:	48 89 c2             	mov    %rax,%rdx
   122fd:	48 8d 05 9c 81 00 00 	lea    0x819c(%rip),%rax        # 1a4a0 <g_1226>
   12304:	48 8b 04 02          	mov    (%rdx,%rax,1),%rax
   12308:	48 89 c1             	mov    %rax,%rcx
   1230b:	8b 45 f4             	mov    -0xc(%rbp),%eax
   1230e:	89 c2                	mov    %eax,%edx
   12310:	48 8d 35 0c 3e 00 00 	lea    0x3e0c(%rip),%rsi        # 16123 <g_2569+0x10a3>
   12317:	48 89 cf             	mov    %rcx,%rdi
   1231a:	e8 d4 83 ff ff       	callq  a6f3 <transparent_crc>
   1231f:	8b 45 e8             	mov    -0x18(%rbp),%eax
   12322:	48 98                	cltq   
   12324:	48 c1 e0 04          	shl    $0x4,%rax
   12328:	48 89 c2             	mov    %rax,%rdx
   1232b:	48 8d 05 76 81 00 00 	lea    0x8176(%rip),%rax        # 1a4a8 <g_1226+0x8>
   12332:	0f b6 04 02          	movzbl (%rdx,%rax,1),%eax
   12336:	0f b6 c0             	movzbl %al,%eax
   12339:	8b 55 f4             	mov    -0xc(%rbp),%edx
   1233c:	48 8d 35 ed 3d 00 00 	lea    0x3ded(%rip),%rsi        # 16130 <g_2569+0x10b0>
   12343:	48 89 c7             	mov    %rax,%rdi
   12346:	e8 a8 83 ff ff       	callq  a6f3 <transparent_crc>
   1234b:	83 7d f4 00          	cmpl   $0x0,-0xc(%rbp)
   1234f:	74 16                	je     12367 <main+0xf64>
   12351:	8b 45 e8             	mov    -0x18(%rbp),%eax
   12354:	89 c6                	mov    %eax,%esi
   12356:	48 8d 3d 0e 3b 00 00 	lea    0x3b0e(%rip),%rdi        # 15e6b <g_2569+0xdeb>
   1235d:	b8 00 00 00 00       	mov    $0x0,%eax
   12362:	e8 19 6d ff ff       	callq  9080 <printf@plt>
   12367:	83 45 e8 01          	addl   $0x1,-0x18(%rbp)
   1236b:	83 7d e8 04          	cmpl   $0x4,-0x18(%rbp)
   1236f:	7e 80                	jle    122f1 <main+0xeee>
   12371:	8b 05 89 81 00 00    	mov    0x8189(%rip),%eax        # 1a500 <g_1246>
   12377:	89 c1                	mov    %eax,%ecx
   12379:	8b 45 f4             	mov    -0xc(%rbp),%eax
   1237c:	89 c2                	mov    %eax,%edx
   1237e:	48 8d 35 b8 3d 00 00 	lea    0x3db8(%rip),%rsi        # 1613d <g_2569+0x10bd>
   12385:	48 89 cf             	mov    %rcx,%rdi
   12388:	e8 66 83 ff ff       	callq  a6f3 <transparent_crc>
   1238d:	0f b7 05 70 81 00 00 	movzwl 0x8170(%rip),%eax        # 1a504 <g_1246+0x4>
   12394:	0f b7 c0             	movzwl %ax,%eax
   12397:	8b 55 f4             	mov    -0xc(%rbp),%edx
   1239a:	48 8d 35 a6 3d 00 00 	lea    0x3da6(%rip),%rsi        # 16147 <g_2569+0x10c7>
   123a1:	48 89 c7             	mov    %rax,%rdi
   123a4:	e8 4a 83 ff ff       	callq  a6f3 <transparent_crc>
   123a9:	48 8b 05 58 81 00 00 	mov    0x8158(%rip),%rax        # 1a508 <g_1246+0x8>
   123b0:	25 ff ff 1f 00       	and    $0x1fffff,%eax
   123b5:	89 c1                	mov    %eax,%ecx
   123b7:	8b 45 f4             	mov    -0xc(%rbp),%eax
   123ba:	89 c2                	mov    %eax,%edx
   123bc:	48 8d 35 8e 3d 00 00 	lea    0x3d8e(%rip),%rsi        # 16151 <g_2569+0x10d1>
   123c3:	48 89 cf             	mov    %rcx,%rdi
   123c6:	e8 28 83 ff ff       	callq  a6f3 <transparent_crc>
   123cb:	0f b7 05 3a 81 00 00 	movzwl 0x813a(%rip),%eax        # 1a50c <g_1246+0xc>
   123d2:	48 0f bf c0          	movswq %ax,%rax
   123d6:	8b 55 f4             	mov    -0xc(%rbp),%edx
   123d9:	48 8d 35 7b 3d 00 00 	lea    0x3d7b(%rip),%rsi        # 1615b <g_2569+0x10db>
   123e0:	48 89 c7             	mov    %rax,%rdi
   123e3:	e8 0b 83 ff ff       	callq  a6f3 <transparent_crc>
   123e8:	0f b6 05 1f 81 00 00 	movzbl 0x811f(%rip),%eax        # 1a50e <g_1246+0xe>
   123ef:	0f b6 c0             	movzbl %al,%eax
   123f2:	8b 55 f4             	mov    -0xc(%rbp),%edx
   123f5:	48 8d 35 69 3d 00 00 	lea    0x3d69(%rip),%rsi        # 16165 <g_2569+0x10e5>
   123fc:	48 89 c7             	mov    %rax,%rdi
   123ff:	e8 ef 82 ff ff       	callq  a6f3 <transparent_crc>
   12404:	48 8b 05 05 81 00 00 	mov    0x8105(%rip),%rax        # 1a510 <g_1246+0x10>
   1240b:	8b 55 f4             	mov    -0xc(%rbp),%edx
   1240e:	48 8d 35 5a 3d 00 00 	lea    0x3d5a(%rip),%rsi        # 1616f <g_2569+0x10ef>
   12415:	48 89 c7             	mov    %rax,%rdi
   12418:	e8 d6 82 ff ff       	callq  a6f3 <transparent_crc>
   1241d:	48 8b 05 f4 80 00 00 	mov    0x80f4(%rip),%rax        # 1a518 <g_1246+0x18>
   12424:	48 89 c1             	mov    %rax,%rcx
   12427:	8b 45 f4             	mov    -0xc(%rbp),%eax
   1242a:	89 c2                	mov    %eax,%edx
   1242c:	48 8d 35 46 3d 00 00 	lea    0x3d46(%rip),%rsi        # 16179 <g_2569+0x10f9>
   12433:	48 89 cf             	mov    %rcx,%rdi
   12436:	e8 b8 82 ff ff       	callq  a6f3 <transparent_crc>
   1243b:	0f b6 05 de 80 00 00 	movzbl 0x80de(%rip),%eax        # 1a520 <g_1246+0x20>
   12442:	0f b6 c0             	movzbl %al,%eax
   12445:	8b 55 f4             	mov    -0xc(%rbp),%edx
   12448:	48 8d 35 37 3d 00 00 	lea    0x3d37(%rip),%rsi        # 16186 <g_2569+0x1106>
   1244f:	48 89 c7             	mov    %rax,%rdi
   12452:	e8 9c 82 ff ff       	callq  a6f3 <transparent_crc>
   12457:	48 8b 05 ca 80 00 00 	mov    0x80ca(%rip),%rax        # 1a528 <g_1246+0x28>
   1245e:	c1 e0 04             	shl    $0x4,%eax
   12461:	c1 f8 04             	sar    $0x4,%eax
   12464:	48 98                	cltq   
   12466:	8b 55 f4             	mov    -0xc(%rbp),%edx
   12469:	48 8d 35 23 3d 00 00 	lea    0x3d23(%rip),%rsi        # 16193 <g_2569+0x1113>
   12470:	48 89 c7             	mov    %rax,%rdi
   12473:	e8 7b 82 ff ff       	callq  a6f3 <transparent_crc>
   12478:	48 8b 05 b1 80 00 00 	mov    0x80b1(%rip),%rax        # 1a530 <g_1384>
   1247f:	8b 55 f4             	mov    -0xc(%rbp),%edx
   12482:	48 8d 35 14 3d 00 00 	lea    0x3d14(%rip),%rsi        # 1619d <g_2569+0x111d>
   12489:	48 89 c7             	mov    %rax,%rdi
   1248c:	e8 62 82 ff ff       	callq  a6f3 <transparent_crc>
   12491:	c7 45 e8 00 00 00 00 	movl   $0x0,-0x18(%rbp)
   12498:	e9 c5 00 00 00       	jmpq   12562 <main+0x115f>
   1249d:	c7 45 ec 00 00 00 00 	movl   $0x0,-0x14(%rbp)
   124a4:	e9 ab 00 00 00       	jmpq   12554 <main+0x1151>
   124a9:	8b 45 ec             	mov    -0x14(%rbp),%eax
   124ac:	48 63 c8             	movslq %eax,%rcx
   124af:	8b 45 e8             	mov    -0x18(%rbp),%eax
   124b2:	48 63 d0             	movslq %eax,%rdx
   124b5:	48 89 d0             	mov    %rdx,%rax
   124b8:	48 c1 e0 02          	shl    $0x2,%rax
   124bc:	48 01 d0             	add    %rdx,%rax
   124bf:	48 01 c0             	add    %rax,%rax
   124c2:	48 01 c8             	add    %rcx,%rax
   124c5:	48 c1 e0 04          	shl    $0x4,%rax
   124c9:	48 89 c2             	mov    %rax,%rdx
   124cc:	48 8d 05 6d 80 00 00 	lea    0x806d(%rip),%rax        # 1a540 <g_1401>
   124d3:	48 8b 04 02          	mov    (%rdx,%rax,1),%rax
   124d7:	48 89 c1             	mov    %rax,%rcx
   124da:	8b 45 f4             	mov    -0xc(%rbp),%eax
   124dd:	89 c2                	mov    %eax,%edx
   124df:	48 8d 35 be 3c 00 00 	lea    0x3cbe(%rip),%rsi        # 161a4 <g_2569+0x1124>
   124e6:	48 89 cf             	mov    %rcx,%rdi
   124e9:	e8 05 82 ff ff       	callq  a6f3 <transparent_crc>
   124ee:	8b 45 ec             	mov    -0x14(%rbp),%eax
   124f1:	48 63 c8             	movslq %eax,%rcx
   124f4:	8b 45 e8             	mov    -0x18(%rbp),%eax
   124f7:	48 63 d0             	movslq %eax,%rdx
   124fa:	48 89 d0             	mov    %rdx,%rax
   124fd:	48 c1 e0 02          	shl    $0x2,%rax
   12501:	48 01 d0             	add    %rdx,%rax
   12504:	48 01 c0             	add    %rax,%rax
   12507:	48 01 c8             	add    %rcx,%rax
   1250a:	48 c1 e0 04          	shl    $0x4,%rax
   1250e:	48 89 c2             	mov    %rax,%rdx
   12511:	48 8d 05 30 80 00 00 	lea    0x8030(%rip),%rax        # 1a548 <g_1401+0x8>
   12518:	0f b6 04 02          	movzbl (%rdx,%rax,1),%eax
   1251c:	0f b6 c0             	movzbl %al,%eax
   1251f:	8b 55 f4             	mov    -0xc(%rbp),%edx
   12522:	48 8d 35 8b 3c 00 00 	lea    0x3c8b(%rip),%rsi        # 161b4 <g_2569+0x1134>
   12529:	48 89 c7             	mov    %rax,%rdi
   1252c:	e8 c2 81 ff ff       	callq  a6f3 <transparent_crc>
   12531:	83 7d f4 00          	cmpl   $0x0,-0xc(%rbp)
   12535:	74 19                	je     12550 <main+0x114d>
   12537:	8b 55 ec             	mov    -0x14(%rbp),%edx
   1253a:	8b 45 e8             	mov    -0x18(%rbp),%eax
   1253d:	89 c6                	mov    %eax,%esi
   1253f:	48 8d 3d 52 38 00 00 	lea    0x3852(%rip),%rdi        # 15d98 <g_2569+0xd18>
   12546:	b8 00 00 00 00       	mov    $0x0,%eax
   1254b:	e8 30 6b ff ff       	callq  9080 <printf@plt>
   12550:	83 45 ec 01          	addl   $0x1,-0x14(%rbp)
   12554:	83 7d ec 09          	cmpl   $0x9,-0x14(%rbp)
   12558:	0f 8e 4b ff ff ff    	jle    124a9 <main+0x10a6>
   1255e:	83 45 e8 01          	addl   $0x1,-0x18(%rbp)
   12562:	83 7d e8 09          	cmpl   $0x9,-0x18(%rbp)
   12566:	0f 8e 31 ff ff ff    	jle    1249d <main+0x109a>
   1256c:	c7 45 e8 00 00 00 00 	movl   $0x0,-0x18(%rbp)
   12573:	e9 14 01 00 00       	jmpq   1268c <main+0x1289>
   12578:	c7 45 ec 00 00 00 00 	movl   $0x0,-0x14(%rbp)
   1257f:	e9 fa 00 00 00       	jmpq   1267e <main+0x127b>
   12584:	c7 45 f0 00 00 00 00 	movl   $0x0,-0x10(%rbp)
   1258b:	e9 e0 00 00 00       	jmpq   12670 <main+0x126d>
   12590:	8b 45 f0             	mov    -0x10(%rbp),%eax
   12593:	48 63 f0             	movslq %eax,%rsi
   12596:	8b 45 e8             	mov    -0x18(%rbp),%eax
   12599:	48 63 d0             	movslq %eax,%rdx
   1259c:	8b 45 ec             	mov    -0x14(%rbp),%eax
   1259f:	48 63 c8             	movslq %eax,%rcx
   125a2:	48 89 d0             	mov    %rdx,%rax
   125a5:	48 01 c0             	add    %rax,%rax
   125a8:	48 01 d0             	add    %rdx,%rax
   125ab:	48 8d 14 c5 00 00 00 	lea    0x0(,%rax,8),%rdx
   125b2:	00 
   125b3:	48 01 d0             	add    %rdx,%rax
   125b6:	48 89 ca             	mov    %rcx,%rdx
   125b9:	48 01 d2             	add    %rdx,%rdx
   125bc:	48 01 ca             	add    %rcx,%rdx
   125bf:	48 01 d0             	add    %rdx,%rax
   125c2:	48 01 f0             	add    %rsi,%rax
   125c5:	48 c1 e0 04          	shl    $0x4,%rax
   125c9:	48 89 c2             	mov    %rax,%rdx
   125cc:	48 8d 05 ad 85 00 00 	lea    0x85ad(%rip),%rax        # 1ab80 <g_1472>
   125d3:	48 8b 04 02          	mov    (%rdx,%rax,1),%rax
   125d7:	48 89 c1             	mov    %rax,%rcx
   125da:	8b 45 f4             	mov    -0xc(%rbp),%eax
   125dd:	89 c2                	mov    %eax,%edx
   125df:	48 8d 35 de 3b 00 00 	lea    0x3bde(%rip),%rsi        # 161c4 <g_2569+0x1144>
   125e6:	48 89 cf             	mov    %rcx,%rdi
   125e9:	e8 05 81 ff ff       	callq  a6f3 <transparent_crc>
   125ee:	8b 45 f0             	mov    -0x10(%rbp),%eax
   125f1:	48 63 f0             	movslq %eax,%rsi
   125f4:	8b 45 e8             	mov    -0x18(%rbp),%eax
   125f7:	48 63 d0             	movslq %eax,%rdx
   125fa:	8b 45 ec             	mov    -0x14(%rbp),%eax
   125fd:	48 63 c8             	movslq %eax,%rcx
   12600:	48 89 d0             	mov    %rdx,%rax
   12603:	48 01 c0             	add    %rax,%rax
   12606:	48 01 d0             	add    %rdx,%rax
   12609:	48 8d 14 c5 00 00 00 	lea    0x0(,%rax,8),%rdx
   12610:	00 
   12611:	48 01 d0             	add    %rdx,%rax
   12614:	48 89 ca             	mov    %rcx,%rdx
   12617:	48 01 d2             	add    %rdx,%rdx
   1261a:	48 01 ca             	add    %rcx,%rdx
   1261d:	48 01 d0             	add    %rdx,%rax
   12620:	48 01 f0             	add    %rsi,%rax
   12623:	48 c1 e0 04          	shl    $0x4,%rax
   12627:	48 89 c2             	mov    %rax,%rdx
   1262a:	48 8d 05 57 85 00 00 	lea    0x8557(%rip),%rax        # 1ab88 <g_1472+0x8>
   12631:	0f b6 04 02          	movzbl (%rdx,%rax,1),%eax
   12635:	0f b6 c0             	movzbl %al,%eax
   12638:	8b 55 f4             	mov    -0xc(%rbp),%edx
   1263b:	48 8d 35 95 3b 00 00 	lea    0x3b95(%rip),%rsi        # 161d7 <g_2569+0x1157>
   12642:	48 89 c7             	mov    %rax,%rdi
   12645:	e8 a9 80 ff ff       	callq  a6f3 <transparent_crc>
   1264a:	83 7d f4 00          	cmpl   $0x0,-0xc(%rbp)
   1264e:	74 1c                	je     1266c <main+0x1269>
   12650:	8b 4d f0             	mov    -0x10(%rbp),%ecx
   12653:	8b 55 ec             	mov    -0x14(%rbp),%edx
   12656:	8b 45 e8             	mov    -0x18(%rbp),%eax
   12659:	89 c6                	mov    %eax,%esi
   1265b:	48 8d 3d 8d 37 00 00 	lea    0x378d(%rip),%rdi        # 15def <g_2569+0xd6f>
   12662:	b8 00 00 00 00       	mov    $0x0,%eax
   12667:	e8 14 6a ff ff       	callq  9080 <printf@plt>
   1266c:	83 45 f0 01          	addl   $0x1,-0x10(%rbp)
   12670:	83 7d f0 02          	cmpl   $0x2,-0x10(%rbp)
   12674:	0f 8e 16 ff ff ff    	jle    12590 <main+0x118d>
   1267a:	83 45 ec 01          	addl   $0x1,-0x14(%rbp)
   1267e:	83 7d ec 08          	cmpl   $0x8,-0x14(%rbp)
   12682:	0f 8e fc fe ff ff    	jle    12584 <main+0x1181>
   12688:	83 45 e8 01          	addl   $0x1,-0x18(%rbp)
   1268c:	83 7d e8 03          	cmpl   $0x3,-0x18(%rbp)
   12690:	0f 8e e2 fe ff ff    	jle    12578 <main+0x1175>
   12696:	48 8b 05 c3 29 00 00 	mov    0x29c3(%rip),%rax        # 15060 <g_1477>
   1269d:	48 89 c1             	mov    %rax,%rcx
   126a0:	8b 45 f4             	mov    -0xc(%rbp),%eax
   126a3:	89 c2                	mov    %eax,%edx
   126a5:	48 8d 35 3e 3b 00 00 	lea    0x3b3e(%rip),%rsi        # 161ea <g_2569+0x116a>
   126ac:	48 89 cf             	mov    %rcx,%rdi
   126af:	e8 3f 80 ff ff       	callq  a6f3 <transparent_crc>
   126b4:	0f b6 05 ad 29 00 00 	movzbl 0x29ad(%rip),%eax        # 15068 <g_1477+0x8>
   126bb:	0f b6 c0             	movzbl %al,%eax
   126be:	8b 55 f4             	mov    -0xc(%rbp),%edx
   126c1:	48 8d 35 2c 3b 00 00 	lea    0x3b2c(%rip),%rsi        # 161f4 <g_2569+0x1174>
   126c8:	48 89 c7             	mov    %rax,%rdi
   126cb:	e8 23 80 ff ff       	callq  a6f3 <transparent_crc>
   126d0:	8b 05 6a 8b 00 00    	mov    0x8b6a(%rip),%eax        # 1b240 <g_1533>
   126d6:	48 98                	cltq   
   126d8:	8b 55 f4             	mov    -0xc(%rbp),%edx
   126db:	48 8d 35 1c 3b 00 00 	lea    0x3b1c(%rip),%rsi        # 161fe <g_2569+0x117e>
   126e2:	48 89 c7             	mov    %rax,%rdi
   126e5:	e8 09 80 ff ff       	callq  a6f3 <transparent_crc>
   126ea:	c7 45 e8 00 00 00 00 	movl   $0x0,-0x18(%rbp)
   126f1:	eb 45                	jmp    12738 <main+0x1335>
   126f3:	8b 45 e8             	mov    -0x18(%rbp),%eax
   126f6:	48 98                	cltq   
   126f8:	48 8d 15 49 8b 00 00 	lea    0x8b49(%rip),%rdx        # 1b248 <g_1547>
   126ff:	0f b6 04 10          	movzbl (%rax,%rdx,1),%eax
   12703:	0f b6 c0             	movzbl %al,%eax
   12706:	8b 55 f4             	mov    -0xc(%rbp),%edx
   12709:	48 8d 35 f5 3a 00 00 	lea    0x3af5(%rip),%rsi        # 16205 <g_2569+0x1185>
   12710:	48 89 c7             	mov    %rax,%rdi
   12713:	e8 db 7f ff ff       	callq  a6f3 <transparent_crc>
   12718:	83 7d f4 00          	cmpl   $0x0,-0xc(%rbp)
   1271c:	74 16                	je     12734 <main+0x1331>
   1271e:	8b 45 e8             	mov    -0x18(%rbp),%eax
   12721:	89 c6                	mov    %eax,%esi
   12723:	48 8d 3d 41 37 00 00 	lea    0x3741(%rip),%rdi        # 15e6b <g_2569+0xdeb>
   1272a:	b8 00 00 00 00       	mov    $0x0,%eax
   1272f:	e8 4c 69 ff ff       	callq  9080 <printf@plt>
   12734:	83 45 e8 01          	addl   $0x1,-0x18(%rbp)
   12738:	83 7d e8 09          	cmpl   $0x9,-0x18(%rbp)
   1273c:	7e b5                	jle    126f3 <main+0x12f0>
   1273e:	48 8b 05 1b 8b 00 00 	mov    0x8b1b(%rip),%rax        # 1b260 <g_1559>
   12745:	48 89 c1             	mov    %rax,%rcx
   12748:	8b 45 f4             	mov    -0xc(%rbp),%eax
   1274b:	89 c2                	mov    %eax,%edx
   1274d:	48 8d 35 bb 3a 00 00 	lea    0x3abb(%rip),%rsi        # 1620f <g_2569+0x118f>
   12754:	48 89 cf             	mov    %rcx,%rdi
   12757:	e8 97 7f ff ff       	callq  a6f3 <transparent_crc>
   1275c:	0f b6 05 05 8b 00 00 	movzbl 0x8b05(%rip),%eax        # 1b268 <g_1559+0x8>
   12763:	0f b6 c0             	movzbl %al,%eax
   12766:	8b 55 f4             	mov    -0xc(%rbp),%edx
   12769:	48 8d 35 a9 3a 00 00 	lea    0x3aa9(%rip),%rsi        # 16219 <g_2569+0x1199>
   12770:	48 89 c7             	mov    %rax,%rdi
   12773:	e8 7b 7f ff ff       	callq  a6f3 <transparent_crc>
   12778:	c7 45 e8 00 00 00 00 	movl   $0x0,-0x18(%rbp)
   1277f:	eb 46                	jmp    127c7 <main+0x13c4>
   12781:	8b 45 e8             	mov    -0x18(%rbp),%eax
   12784:	48 98                	cltq   
   12786:	48 8d 15 e3 8a 00 00 	lea    0x8ae3(%rip),%rdx        # 1b270 <g_1583>
   1278d:	0f b6 04 10          	movzbl (%rax,%rdx,1),%eax
   12791:	48 0f be c0          	movsbq %al,%rax
   12795:	8b 55 f4             	mov    -0xc(%rbp),%edx
   12798:	48 8d 35 84 3a 00 00 	lea    0x3a84(%rip),%rsi        # 16223 <g_2569+0x11a3>
   1279f:	48 89 c7             	mov    %rax,%rdi
   127a2:	e8 4c 7f ff ff       	callq  a6f3 <transparent_crc>
   127a7:	83 7d f4 00          	cmpl   $0x0,-0xc(%rbp)
   127ab:	74 16                	je     127c3 <main+0x13c0>
   127ad:	8b 45 e8             	mov    -0x18(%rbp),%eax
   127b0:	89 c6                	mov    %eax,%esi
   127b2:	48 8d 3d b2 36 00 00 	lea    0x36b2(%rip),%rdi        # 15e6b <g_2569+0xdeb>
   127b9:	b8 00 00 00 00       	mov    $0x0,%eax
   127be:	e8 bd 68 ff ff       	callq  9080 <printf@plt>
   127c3:	83 45 e8 01          	addl   $0x1,-0x18(%rbp)
   127c7:	83 7d e8 08          	cmpl   $0x8,-0x18(%rbp)
   127cb:	7e b4                	jle    12781 <main+0x137e>
   127cd:	c7 45 e8 00 00 00 00 	movl   $0x0,-0x18(%rbp)
   127d4:	eb 4a                	jmp    12820 <main+0x141d>
   127d6:	8b 45 e8             	mov    -0x18(%rbp),%eax
   127d9:	48 98                	cltq   
   127db:	48 8d 14 00          	lea    (%rax,%rax,1),%rdx
   127df:	48 8d 05 9a 8a 00 00 	lea    0x8a9a(%rip),%rax        # 1b280 <g_1633>
   127e6:	0f b7 04 02          	movzwl (%rdx,%rax,1),%eax
   127ea:	48 0f bf c0          	movswq %ax,%rax
   127ee:	8b 55 f4             	mov    -0xc(%rbp),%edx
   127f1:	48 8d 35 35 3a 00 00 	lea    0x3a35(%rip),%rsi        # 1622d <g_2569+0x11ad>
   127f8:	48 89 c7             	mov    %rax,%rdi
   127fb:	e8 f3 7e ff ff       	callq  a6f3 <transparent_crc>
   12800:	83 7d f4 00          	cmpl   $0x0,-0xc(%rbp)
   12804:	74 16                	je     1281c <main+0x1419>
   12806:	8b 45 e8             	mov    -0x18(%rbp),%eax
   12809:	89 c6                	mov    %eax,%esi
   1280b:	48 8d 3d 59 36 00 00 	lea    0x3659(%rip),%rdi        # 15e6b <g_2569+0xdeb>
   12812:	b8 00 00 00 00       	mov    $0x0,%eax
   12817:	e8 64 68 ff ff       	callq  9080 <printf@plt>
   1281c:	83 45 e8 01          	addl   $0x1,-0x18(%rbp)
   12820:	83 7d e8 04          	cmpl   $0x4,-0x18(%rbp)
   12824:	7e b0                	jle    127d6 <main+0x13d3>
   12826:	48 8b 05 63 8a 00 00 	mov    0x8a63(%rip),%rax        # 1b290 <g_1751>
   1282d:	48 89 c1             	mov    %rax,%rcx
   12830:	8b 45 f4             	mov    -0xc(%rbp),%eax
   12833:	89 c2                	mov    %eax,%edx
   12835:	48 8d 35 fb 39 00 00 	lea    0x39fb(%rip),%rsi        # 16237 <g_2569+0x11b7>
   1283c:	48 89 cf             	mov    %rcx,%rdi
   1283f:	e8 af 7e ff ff       	callq  a6f3 <transparent_crc>
   12844:	0f b6 05 4d 8a 00 00 	movzbl 0x8a4d(%rip),%eax        # 1b298 <g_1751+0x8>
   1284b:	0f b6 c0             	movzbl %al,%eax
   1284e:	8b 55 f4             	mov    -0xc(%rbp),%edx
   12851:	48 8d 35 e9 39 00 00 	lea    0x39e9(%rip),%rsi        # 16241 <g_2569+0x11c1>
   12858:	48 89 c7             	mov    %rax,%rdi
   1285b:	e8 93 7e ff ff       	callq  a6f3 <transparent_crc>
   12860:	8b 05 3a 8a 00 00    	mov    0x8a3a(%rip),%eax        # 1b2a0 <g_1783>
   12866:	48 98                	cltq   
   12868:	8b 55 f4             	mov    -0xc(%rbp),%edx
   1286b:	48 8d 35 d9 39 00 00 	lea    0x39d9(%rip),%rsi        # 1624b <g_2569+0x11cb>
   12872:	48 89 c7             	mov    %rax,%rdi
   12875:	e8 79 7e ff ff       	callq  a6f3 <transparent_crc>
   1287a:	48 8b 05 2f 8a 00 00 	mov    0x8a2f(%rip),%rax        # 1b2b0 <g_1887>
   12881:	48 89 c1             	mov    %rax,%rcx
   12884:	8b 45 f4             	mov    -0xc(%rbp),%eax
   12887:	89 c2                	mov    %eax,%edx
   12889:	48 8d 35 c2 39 00 00 	lea    0x39c2(%rip),%rsi        # 16252 <g_2569+0x11d2>
   12890:	48 89 cf             	mov    %rcx,%rdi
   12893:	e8 5b 7e ff ff       	callq  a6f3 <transparent_crc>
   12898:	0f b6 05 19 8a 00 00 	movzbl 0x8a19(%rip),%eax        # 1b2b8 <g_1887+0x8>
   1289f:	0f b6 c0             	movzbl %al,%eax
   128a2:	8b 55 f4             	mov    -0xc(%rbp),%edx
   128a5:	48 8d 35 b0 39 00 00 	lea    0x39b0(%rip),%rsi        # 1625c <g_2569+0x11dc>
   128ac:	48 89 c7             	mov    %rax,%rdi
   128af:	e8 3f 7e ff ff       	callq  a6f3 <transparent_crc>
   128b4:	8b 05 06 8a 00 00    	mov    0x8a06(%rip),%eax        # 1b2c0 <g_1914>
   128ba:	89 c1                	mov    %eax,%ecx
   128bc:	8b 45 f4             	mov    -0xc(%rbp),%eax
   128bf:	89 c2                	mov    %eax,%edx
   128c1:	48 8d 35 9e 39 00 00 	lea    0x399e(%rip),%rsi        # 16266 <g_2569+0x11e6>
   128c8:	48 89 cf             	mov    %rcx,%rdi
   128cb:	e8 23 7e ff ff       	callq  a6f3 <transparent_crc>
   128d0:	0f b7 05 ed 89 00 00 	movzwl 0x89ed(%rip),%eax        # 1b2c4 <g_1914+0x4>
   128d7:	0f b7 c0             	movzwl %ax,%eax
   128da:	8b 55 f4             	mov    -0xc(%rbp),%edx
   128dd:	48 8d 35 8c 39 00 00 	lea    0x398c(%rip),%rsi        # 16270 <g_2569+0x11f0>
   128e4:	48 89 c7             	mov    %rax,%rdi
   128e7:	e8 07 7e ff ff       	callq  a6f3 <transparent_crc>
   128ec:	8b 05 d6 89 00 00    	mov    0x89d6(%rip),%eax        # 1b2c8 <g_1914+0x8>
   128f2:	25 ff ff 1f 00       	and    $0x1fffff,%eax
   128f7:	89 c1                	mov    %eax,%ecx
   128f9:	8b 45 f4             	mov    -0xc(%rbp),%eax
   128fc:	89 c2                	mov    %eax,%edx
   128fe:	48 8d 35 75 39 00 00 	lea    0x3975(%rip),%rsi        # 1627a <g_2569+0x11fa>
   12905:	48 89 cf             	mov    %rcx,%rdi
   12908:	e8 e6 7d ff ff       	callq  a6f3 <transparent_crc>
   1290d:	0f b7 05 b8 89 00 00 	movzwl 0x89b8(%rip),%eax        # 1b2cc <g_1914+0xc>
   12914:	48 0f bf c0          	movswq %ax,%rax
   12918:	8b 55 f4             	mov    -0xc(%rbp),%edx
   1291b:	48 8d 35 62 39 00 00 	lea    0x3962(%rip),%rsi        # 16284 <g_2569+0x1204>
   12922:	48 89 c7             	mov    %rax,%rdi
   12925:	e8 c9 7d ff ff       	callq  a6f3 <transparent_crc>
   1292a:	0f b6 05 9d 89 00 00 	movzbl 0x899d(%rip),%eax        # 1b2ce <g_1914+0xe>
   12931:	0f b6 c0             	movzbl %al,%eax
   12934:	8b 55 f4             	mov    -0xc(%rbp),%edx
   12937:	48 8d 35 50 39 00 00 	lea    0x3950(%rip),%rsi        # 1628e <g_2569+0x120e>
   1293e:	48 89 c7             	mov    %rax,%rdi
   12941:	e8 ad 7d ff ff       	callq  a6f3 <transparent_crc>
   12946:	48 8b 05 83 89 00 00 	mov    0x8983(%rip),%rax        # 1b2d0 <g_1914+0x10>
   1294d:	8b 55 f4             	mov    -0xc(%rbp),%edx
   12950:	48 8d 35 41 39 00 00 	lea    0x3941(%rip),%rsi        # 16298 <g_2569+0x1218>
   12957:	48 89 c7             	mov    %rax,%rdi
   1295a:	e8 94 7d ff ff       	callq  a6f3 <transparent_crc>
   1295f:	48 8b 05 72 89 00 00 	mov    0x8972(%rip),%rax        # 1b2d8 <g_1914+0x18>
   12966:	48 89 c1             	mov    %rax,%rcx
   12969:	8b 45 f4             	mov    -0xc(%rbp),%eax
   1296c:	89 c2                	mov    %eax,%edx
   1296e:	48 8d 35 2d 39 00 00 	lea    0x392d(%rip),%rsi        # 162a2 <g_2569+0x1222>
   12975:	48 89 cf             	mov    %rcx,%rdi
   12978:	e8 76 7d ff ff       	callq  a6f3 <transparent_crc>
   1297d:	0f b6 05 5c 89 00 00 	movzbl 0x895c(%rip),%eax        # 1b2e0 <g_1914+0x20>
   12984:	0f b6 c0             	movzbl %al,%eax
   12987:	8b 55 f4             	mov    -0xc(%rbp),%edx
   1298a:	48 8d 35 1e 39 00 00 	lea    0x391e(%rip),%rsi        # 162af <g_2569+0x122f>
   12991:	48 89 c7             	mov    %rax,%rdi
   12994:	e8 5a 7d ff ff       	callq  a6f3 <transparent_crc>
   12999:	8b 05 49 89 00 00    	mov    0x8949(%rip),%eax        # 1b2e8 <g_1914+0x28>
   1299f:	c1 e0 04             	shl    $0x4,%eax
   129a2:	c1 f8 04             	sar    $0x4,%eax
   129a5:	48 98                	cltq   
   129a7:	8b 55 f4             	mov    -0xc(%rbp),%edx
   129aa:	48 8d 35 0b 39 00 00 	lea    0x390b(%rip),%rsi        # 162bc <g_2569+0x123c>
   129b1:	48 89 c7             	mov    %rax,%rdi
   129b4:	e8 3a 7d ff ff       	callq  a6f3 <transparent_crc>
   129b9:	48 8b 05 30 89 00 00 	mov    0x8930(%rip),%rax        # 1b2f0 <g_1966>
   129c0:	8b 55 f4             	mov    -0xc(%rbp),%edx
   129c3:	48 8d 35 fc 38 00 00 	lea    0x38fc(%rip),%rsi        # 162c6 <g_2569+0x1246>
   129ca:	48 89 c7             	mov    %rax,%rdi
   129cd:	e8 21 7d ff ff       	callq  a6f3 <transparent_crc>
   129d2:	b8 ff ff ff ff       	mov    $0xffffffff,%eax
   129d7:	48 98                	cltq   
   129d9:	8b 55 f4             	mov    -0xc(%rbp),%edx
   129dc:	48 8d 35 ea 38 00 00 	lea    0x38ea(%rip),%rsi        # 162cd <g_2569+0x124d>
   129e3:	48 89 c7             	mov    %rax,%rdi
   129e6:	e8 08 7d ff ff       	callq  a6f3 <transparent_crc>
   129eb:	c7 45 e8 00 00 00 00 	movl   $0x0,-0x18(%rbp)
   129f2:	eb 71                	jmp    12a65 <main+0x1662>
   129f4:	c7 45 ec 00 00 00 00 	movl   $0x0,-0x14(%rbp)
   129fb:	eb 5e                	jmp    12a5b <main+0x1658>
   129fd:	8b 45 ec             	mov    -0x14(%rbp),%eax
   12a00:	48 98                	cltq   
   12a02:	8b 55 e8             	mov    -0x18(%rbp),%edx
   12a05:	48 63 d2             	movslq %edx,%rdx
   12a08:	48 01 d2             	add    %rdx,%rdx
   12a0b:	48 01 d0             	add    %rdx,%rax
   12a0e:	48 8d 14 c5 00 00 00 	lea    0x0(,%rax,8),%rdx
   12a15:	00 
   12a16:	48 8d 05 e3 88 00 00 	lea    0x88e3(%rip),%rax        # 1b300 <g_2149>
   12a1d:	48 8b 04 02          	mov    (%rdx,%rax,1),%rax
   12a21:	48 89 c1             	mov    %rax,%rcx
   12a24:	8b 45 f4             	mov    -0xc(%rbp),%eax
   12a27:	89 c2                	mov    %eax,%edx
   12a29:	48 8d 35 a4 38 00 00 	lea    0x38a4(%rip),%rsi        # 162d4 <g_2569+0x1254>
   12a30:	48 89 cf             	mov    %rcx,%rdi
   12a33:	e8 bb 7c ff ff       	callq  a6f3 <transparent_crc>
   12a38:	83 7d f4 00          	cmpl   $0x0,-0xc(%rbp)
   12a3c:	74 19                	je     12a57 <main+0x1654>
   12a3e:	8b 55 ec             	mov    -0x14(%rbp),%edx
   12a41:	8b 45 e8             	mov    -0x18(%rbp),%eax
   12a44:	89 c6                	mov    %eax,%esi
   12a46:	48 8d 3d 4b 33 00 00 	lea    0x334b(%rip),%rdi        # 15d98 <g_2569+0xd18>
   12a4d:	b8 00 00 00 00       	mov    $0x0,%eax
   12a52:	e8 29 66 ff ff       	callq  9080 <printf@plt>
   12a57:	83 45 ec 01          	addl   $0x1,-0x14(%rbp)
   12a5b:	83 7d ec 01          	cmpl   $0x1,-0x14(%rbp)
   12a5f:	7e 9c                	jle    129fd <main+0x15fa>
   12a61:	83 45 e8 01          	addl   $0x1,-0x18(%rbp)
   12a65:	83 7d e8 01          	cmpl   $0x1,-0x18(%rbp)
   12a69:	7e 89                	jle    129f4 <main+0x15f1>
   12a6b:	48 8b 05 ae 88 00 00 	mov    0x88ae(%rip),%rax        # 1b320 <g_2408>
   12a72:	48 89 c1             	mov    %rax,%rcx
   12a75:	8b 45 f4             	mov    -0xc(%rbp),%eax
   12a78:	89 c2                	mov    %eax,%edx
   12a7a:	48 8d 35 60 38 00 00 	lea    0x3860(%rip),%rsi        # 162e1 <g_2569+0x1261>
   12a81:	48 89 cf             	mov    %rcx,%rdi
   12a84:	e8 6a 7c ff ff       	callq  a6f3 <transparent_crc>
   12a89:	0f b6 05 98 88 00 00 	movzbl 0x8898(%rip),%eax        # 1b328 <g_2408+0x8>
   12a90:	0f b6 c0             	movzbl %al,%eax
   12a93:	8b 55 f4             	mov    -0xc(%rbp),%edx
   12a96:	48 8d 35 4e 38 00 00 	lea    0x384e(%rip),%rsi        # 162eb <g_2569+0x126b>
   12a9d:	48 89 c7             	mov    %rax,%rdi
   12aa0:	e8 4e 7c ff ff       	callq  a6f3 <transparent_crc>
   12aa5:	c7 45 e8 00 00 00 00 	movl   $0x0,-0x18(%rbp)
   12aac:	eb 7a                	jmp    12b28 <main+0x1725>
   12aae:	8b 45 e8             	mov    -0x18(%rbp),%eax
   12ab1:	48 98                	cltq   
   12ab3:	48 c1 e0 04          	shl    $0x4,%rax
   12ab7:	48 89 c2             	mov    %rax,%rdx
   12aba:	48 8d 05 7f 88 00 00 	lea    0x887f(%rip),%rax        # 1b340 <g_2481>
   12ac1:	48 8b 04 02          	mov    (%rdx,%rax,1),%rax
   12ac5:	48 89 c1             	mov    %rax,%rcx
   12ac8:	8b 45 f4             	mov    -0xc(%rbp),%eax
   12acb:	89 c2                	mov    %eax,%edx
   12acd:	48 8d 35 21 38 00 00 	lea    0x3821(%rip),%rsi        # 162f5 <g_2569+0x1275>
   12ad4:	48 89 cf             	mov    %rcx,%rdi
   12ad7:	e8 17 7c ff ff       	callq  a6f3 <transparent_crc>
   12adc:	8b 45 e8             	mov    -0x18(%rbp),%eax
   12adf:	48 98                	cltq   
   12ae1:	48 c1 e0 04          	shl    $0x4,%rax
   12ae5:	48 89 c2             	mov    %rax,%rdx
   12ae8:	48 8d 05 59 88 00 00 	lea    0x8859(%rip),%rax        # 1b348 <g_2481+0x8>
   12aef:	0f b6 04 02          	movzbl (%rdx,%rax,1),%eax
   12af3:	0f b6 c0             	movzbl %al,%eax
   12af6:	8b 55 f4             	mov    -0xc(%rbp),%edx
   12af9:	48 8d 35 02 38 00 00 	lea    0x3802(%rip),%rsi        # 16302 <g_2569+0x1282>
   12b00:	48 89 c7             	mov    %rax,%rdi
   12b03:	e8 eb 7b ff ff       	callq  a6f3 <transparent_crc>
   12b08:	83 7d f4 00          	cmpl   $0x0,-0xc(%rbp)
   12b0c:	74 16                	je     12b24 <main+0x1721>
   12b0e:	8b 45 e8             	mov    -0x18(%rbp),%eax
   12b11:	89 c6                	mov    %eax,%esi
   12b13:	48 8d 3d 51 33 00 00 	lea    0x3351(%rip),%rdi        # 15e6b <g_2569+0xdeb>
   12b1a:	b8 00 00 00 00       	mov    $0x0,%eax
   12b1f:	e8 5c 65 ff ff       	callq  9080 <printf@plt>
   12b24:	83 45 e8 01          	addl   $0x1,-0x18(%rbp)
   12b28:	83 7d e8 03          	cmpl   $0x3,-0x18(%rbp)
   12b2c:	7e 80                	jle    12aae <main+0x16ab>
   12b2e:	0f b6 05 4b 88 00 00 	movzbl 0x884b(%rip),%eax        # 1b380 <g_2483>
   12b35:	48 0f be c0          	movsbq %al,%rax
   12b39:	8b 55 f4             	mov    -0xc(%rbp),%edx
   12b3c:	48 8d 35 cc 37 00 00 	lea    0x37cc(%rip),%rsi        # 1630f <g_2569+0x128f>
   12b43:	48 89 c7             	mov    %rax,%rdi
   12b46:	e8 a8 7b ff ff       	callq  a6f3 <transparent_crc>
   12b4b:	c7 45 e8 00 00 00 00 	movl   $0x0,-0x18(%rbp)
   12b52:	eb 7a                	jmp    12bce <main+0x17cb>
   12b54:	8b 45 e8             	mov    -0x18(%rbp),%eax
   12b57:	48 98                	cltq   
   12b59:	48 c1 e0 04          	shl    $0x4,%rax
   12b5d:	48 89 c2             	mov    %rax,%rdx
   12b60:	48 8d 05 39 88 00 00 	lea    0x8839(%rip),%rax        # 1b3a0 <g_2532>
   12b67:	48 8b 04 02          	mov    (%rdx,%rax,1),%rax
   12b6b:	48 89 c1             	mov    %rax,%rcx
   12b6e:	8b 45 f4             	mov    -0xc(%rbp),%eax
   12b71:	89 c2                	mov    %eax,%edx
   12b73:	48 8d 35 9c 37 00 00 	lea    0x379c(%rip),%rsi        # 16316 <g_2569+0x1296>
   12b7a:	48 89 cf             	mov    %rcx,%rdi
   12b7d:	e8 71 7b ff ff       	callq  a6f3 <transparent_crc>
   12b82:	8b 45 e8             	mov    -0x18(%rbp),%eax
   12b85:	48 98                	cltq   
   12b87:	48 c1 e0 04          	shl    $0x4,%rax
   12b8b:	48 89 c2             	mov    %rax,%rdx
   12b8e:	48 8d 05 13 88 00 00 	lea    0x8813(%rip),%rax        # 1b3a8 <g_2532+0x8>
   12b95:	0f b6 04 02          	movzbl (%rdx,%rax,1),%eax
   12b99:	0f b6 c0             	movzbl %al,%eax
   12b9c:	8b 55 f4             	mov    -0xc(%rbp),%edx
   12b9f:	48 8d 35 7d 37 00 00 	lea    0x377d(%rip),%rsi        # 16323 <g_2569+0x12a3>
   12ba6:	48 89 c7             	mov    %rax,%rdi
   12ba9:	e8 45 7b ff ff       	callq  a6f3 <transparent_crc>
   12bae:	83 7d f4 00          	cmpl   $0x0,-0xc(%rbp)
   12bb2:	74 16                	je     12bca <main+0x17c7>
   12bb4:	8b 45 e8             	mov    -0x18(%rbp),%eax
   12bb7:	89 c6                	mov    %eax,%esi
   12bb9:	48 8d 3d ab 32 00 00 	lea    0x32ab(%rip),%rdi        # 15e6b <g_2569+0xdeb>
   12bc0:	b8 00 00 00 00       	mov    $0x0,%eax
   12bc5:	e8 b6 64 ff ff       	callq  9080 <printf@plt>
   12bca:	83 45 e8 01          	addl   $0x1,-0x18(%rbp)
   12bce:	83 7d e8 01          	cmpl   $0x1,-0x18(%rbp)
   12bd2:	7e 80                	jle    12b54 <main+0x1751>
   12bd4:	c7 45 e8 00 00 00 00 	movl   $0x0,-0x18(%rbp)
   12bdb:	eb 6c                	jmp    12c49 <main+0x1846>
   12bdd:	c7 45 ec 00 00 00 00 	movl   $0x0,-0x14(%rbp)
   12be4:	eb 59                	jmp    12c3f <main+0x183c>
   12be6:	8b 45 ec             	mov    -0x14(%rbp),%eax
   12be9:	48 98                	cltq   
   12beb:	8b 55 e8             	mov    -0x18(%rbp),%edx
   12bee:	48 63 d2             	movslq %edx,%rdx
   12bf1:	48 c1 e2 03          	shl    $0x3,%rdx
   12bf5:	48 01 d0             	add    %rdx,%rax
   12bf8:	48 8d 14 00          	lea    (%rax,%rax,1),%rdx
   12bfc:	48 8d 05 7d 24 00 00 	lea    0x247d(%rip),%rax        # 15080 <g_2569>
   12c03:	0f b7 04 02          	movzwl (%rdx,%rax,1),%eax
   12c07:	0f b7 c0             	movzwl %ax,%eax
   12c0a:	8b 55 f4             	mov    -0xc(%rbp),%edx
   12c0d:	48 8d 35 1c 37 00 00 	lea    0x371c(%rip),%rsi        # 16330 <g_2569+0x12b0>
   12c14:	48 89 c7             	mov    %rax,%rdi
   12c17:	e8 d7 7a ff ff       	callq  a6f3 <transparent_crc>
   12c1c:	83 7d f4 00          	cmpl   $0x0,-0xc(%rbp)
   12c20:	74 19                	je     12c3b <main+0x1838>
   12c22:	8b 55 ec             	mov    -0x14(%rbp),%edx
   12c25:	8b 45 e8             	mov    -0x18(%rbp),%eax
   12c28:	89 c6                	mov    %eax,%esi
   12c2a:	48 8d 3d 67 31 00 00 	lea    0x3167(%rip),%rdi        # 15d98 <g_2569+0xd18>
   12c31:	b8 00 00 00 00       	mov    $0x0,%eax
   12c36:	e8 45 64 ff ff       	callq  9080 <printf@plt>
   12c3b:	83 45 ec 01          	addl   $0x1,-0x14(%rbp)
   12c3f:	83 7d ec 07          	cmpl   $0x7,-0x14(%rbp)
   12c43:	7e a1                	jle    12be6 <main+0x17e3>
   12c45:	83 45 e8 01          	addl   $0x1,-0x18(%rbp)
   12c49:	83 7d e8 03          	cmpl   $0x3,-0x18(%rbp)
   12c4d:	7e 8e                	jle    12bdd <main+0x17da>
   12c4f:	8b 05 6b 87 00 00    	mov    0x876b(%rip),%eax        # 1b3c0 <g_2586>
   12c55:	48 98                	cltq   
   12c57:	8b 55 f4             	mov    -0xc(%rbp),%edx
   12c5a:	48 8d 35 dc 36 00 00 	lea    0x36dc(%rip),%rsi        # 1633d <g_2569+0x12bd>
   12c61:	48 89 c7             	mov    %rax,%rdi
   12c64:	e8 8a 7a ff ff       	callq  a6f3 <transparent_crc>
   12c69:	48 8b 05 60 87 00 00 	mov    0x8760(%rip),%rax        # 1b3d0 <g_2692>
   12c70:	48 89 c1             	mov    %rax,%rcx
   12c73:	8b 45 f4             	mov    -0xc(%rbp),%eax
   12c76:	89 c2                	mov    %eax,%edx
   12c78:	48 8d 35 c5 36 00 00 	lea    0x36c5(%rip),%rsi        # 16344 <g_2569+0x12c4>
   12c7f:	48 89 cf             	mov    %rcx,%rdi
   12c82:	e8 6c 7a ff ff       	callq  a6f3 <transparent_crc>
   12c87:	0f b6 05 4a 87 00 00 	movzbl 0x874a(%rip),%eax        # 1b3d8 <g_2692+0x8>
   12c8e:	0f b6 c0             	movzbl %al,%eax
   12c91:	8b 55 f4             	mov    -0xc(%rbp),%edx
   12c94:	48 8d 35 b3 36 00 00 	lea    0x36b3(%rip),%rsi        # 1634e <g_2569+0x12ce>
   12c9b:	48 89 c7             	mov    %rax,%rdi
   12c9e:	e8 50 7a ff ff       	callq  a6f3 <transparent_crc>
   12ca3:	48 8b 05 36 87 00 00 	mov    0x8736(%rip),%rax        # 1b3e0 <g_2764>
   12caa:	48 89 c1             	mov    %rax,%rcx
   12cad:	8b 45 f4             	mov    -0xc(%rbp),%eax
   12cb0:	89 c2                	mov    %eax,%edx
   12cb2:	48 8d 35 9f 36 00 00 	lea    0x369f(%rip),%rsi        # 16358 <g_2569+0x12d8>
   12cb9:	48 89 cf             	mov    %rcx,%rdi
   12cbc:	e8 32 7a ff ff       	callq  a6f3 <transparent_crc>
   12cc1:	0f b6 05 20 87 00 00 	movzbl 0x8720(%rip),%eax        # 1b3e8 <g_2764+0x8>
   12cc8:	0f b6 c0             	movzbl %al,%eax
   12ccb:	8b 55 f4             	mov    -0xc(%rbp),%edx
   12cce:	48 8d 35 8d 36 00 00 	lea    0x368d(%rip),%rsi        # 16362 <g_2569+0x12e2>
   12cd5:	48 89 c7             	mov    %rax,%rdi
   12cd8:	e8 16 7a ff ff       	callq  a6f3 <transparent_crc>
   12cdd:	c7 45 e8 00 00 00 00 	movl   $0x0,-0x18(%rbp)
   12ce4:	eb 7a                	jmp    12d60 <main+0x195d>
   12ce6:	8b 45 e8             	mov    -0x18(%rbp),%eax
   12ce9:	48 98                	cltq   
   12ceb:	48 c1 e0 04          	shl    $0x4,%rax
   12cef:	48 89 c2             	mov    %rax,%rdx
   12cf2:	48 8d 05 07 87 00 00 	lea    0x8707(%rip),%rax        # 1b400 <g_2808>
   12cf9:	48 8b 04 02          	mov    (%rdx,%rax,1),%rax
   12cfd:	48 89 c1             	mov    %rax,%rcx
   12d00:	8b 45 f4             	mov    -0xc(%rbp),%eax
   12d03:	89 c2                	mov    %eax,%edx
   12d05:	48 8d 35 60 36 00 00 	lea    0x3660(%rip),%rsi        # 1636c <g_2569+0x12ec>
   12d0c:	48 89 cf             	mov    %rcx,%rdi
   12d0f:	e8 df 79 ff ff       	callq  a6f3 <transparent_crc>
   12d14:	8b 45 e8             	mov    -0x18(%rbp),%eax
   12d17:	48 98                	cltq   
   12d19:	48 c1 e0 04          	shl    $0x4,%rax
   12d1d:	48 89 c2             	mov    %rax,%rdx
   12d20:	48 8d 05 e1 86 00 00 	lea    0x86e1(%rip),%rax        # 1b408 <g_2808+0x8>
   12d27:	0f b6 04 02          	movzbl (%rdx,%rax,1),%eax
   12d2b:	0f b6 c0             	movzbl %al,%eax
   12d2e:	8b 55 f4             	mov    -0xc(%rbp),%edx
   12d31:	48 8d 35 41 36 00 00 	lea    0x3641(%rip),%rsi        # 16379 <g_2569+0x12f9>
   12d38:	48 89 c7             	mov    %rax,%rdi
   12d3b:	e8 b3 79 ff ff       	callq  a6f3 <transparent_crc>
   12d40:	83 7d f4 00          	cmpl   $0x0,-0xc(%rbp)
   12d44:	74 16                	je     12d5c <main+0x1959>
   12d46:	8b 45 e8             	mov    -0x18(%rbp),%eax
   12d49:	89 c6                	mov    %eax,%esi
   12d4b:	48 8d 3d 19 31 00 00 	lea    0x3119(%rip),%rdi        # 15e6b <g_2569+0xdeb>
   12d52:	b8 00 00 00 00       	mov    $0x0,%eax
   12d57:	e8 24 63 ff ff       	callq  9080 <printf@plt>
   12d5c:	83 45 e8 01          	addl   $0x1,-0x18(%rbp)
   12d60:	83 7d e8 01          	cmpl   $0x1,-0x18(%rbp)
   12d64:	7e 80                	jle    12ce6 <main+0x18e3>
   12d66:	8b 05 b4 86 00 00    	mov    0x86b4(%rip),%eax        # 1b420 <g_2891>
   12d6c:	48 98                	cltq   
   12d6e:	8b 55 f4             	mov    -0xc(%rbp),%edx
   12d71:	48 8d 35 0e 36 00 00 	lea    0x360e(%rip),%rsi        # 16386 <g_2569+0x1306>
   12d78:	48 89 c7             	mov    %rax,%rdi
   12d7b:	e8 73 79 ff ff       	callq  a6f3 <transparent_crc>
   12d80:	48 8b 05 59 d4 00 00 	mov    0xd459(%rip),%rax        # 201e0 <g_2895>
   12d87:	48 89 c1             	mov    %rax,%rcx
   12d8a:	8b 45 f4             	mov    -0xc(%rbp),%eax
   12d8d:	89 c2                	mov    %eax,%edx
   12d8f:	48 8d 35 f7 35 00 00 	lea    0x35f7(%rip),%rsi        # 1638d <g_2569+0x130d>
   12d96:	48 89 cf             	mov    %rcx,%rdi
   12d99:	e8 55 79 ff ff       	callq  a6f3 <transparent_crc>
   12d9e:	8b 05 80 86 00 00    	mov    0x8680(%rip),%eax        # 1b424 <g_2940>
   12da4:	89 c1                	mov    %eax,%ecx
   12da6:	8b 45 f4             	mov    -0xc(%rbp),%eax
   12da9:	89 c2                	mov    %eax,%edx
   12dab:	48 8d 35 e2 35 00 00 	lea    0x35e2(%rip),%rsi        # 16394 <g_2569+0x1314>
   12db2:	48 89 cf             	mov    %rcx,%rdi
   12db5:	e8 39 79 ff ff       	callq  a6f3 <transparent_crc>
   12dba:	8b 05 80 86 00 00    	mov    0x8680(%rip),%eax        # 1b440 <g_2949>
   12dc0:	89 c1                	mov    %eax,%ecx
   12dc2:	8b 45 f4             	mov    -0xc(%rbp),%eax
   12dc5:	89 c2                	mov    %eax,%edx
   12dc7:	48 8d 35 cd 35 00 00 	lea    0x35cd(%rip),%rsi        # 1639b <g_2569+0x131b>
   12dce:	48 89 cf             	mov    %rcx,%rdi
   12dd1:	e8 1d 79 ff ff       	callq  a6f3 <transparent_crc>
   12dd6:	0f b7 05 67 86 00 00 	movzwl 0x8667(%rip),%eax        # 1b444 <g_2949+0x4>
   12ddd:	0f b7 c0             	movzwl %ax,%eax
   12de0:	8b 55 f4             	mov    -0xc(%rbp),%edx
   12de3:	48 8d 35 bb 35 00 00 	lea    0x35bb(%rip),%rsi        # 163a5 <g_2569+0x1325>
   12dea:	48 89 c7             	mov    %rax,%rdi
   12ded:	e8 01 79 ff ff       	callq  a6f3 <transparent_crc>
   12df2:	8b 05 50 86 00 00    	mov    0x8650(%rip),%eax        # 1b448 <g_2949+0x8>
   12df8:	25 ff ff 1f 00       	and    $0x1fffff,%eax
   12dfd:	89 c1                	mov    %eax,%ecx
   12dff:	8b 45 f4             	mov    -0xc(%rbp),%eax
   12e02:	89 c2                	mov    %eax,%edx
   12e04:	48 8d 35 a4 35 00 00 	lea    0x35a4(%rip),%rsi        # 163af <g_2569+0x132f>
   12e0b:	48 89 cf             	mov    %rcx,%rdi
   12e0e:	e8 e0 78 ff ff       	callq  a6f3 <transparent_crc>
   12e13:	0f b7 05 32 86 00 00 	movzwl 0x8632(%rip),%eax        # 1b44c <g_2949+0xc>
   12e1a:	48 0f bf c0          	movswq %ax,%rax
   12e1e:	8b 55 f4             	mov    -0xc(%rbp),%edx
   12e21:	48 8d 35 91 35 00 00 	lea    0x3591(%rip),%rsi        # 163b9 <g_2569+0x1339>
   12e28:	48 89 c7             	mov    %rax,%rdi
   12e2b:	e8 c3 78 ff ff       	callq  a6f3 <transparent_crc>
   12e30:	0f b6 05 17 86 00 00 	movzbl 0x8617(%rip),%eax        # 1b44e <g_2949+0xe>
   12e37:	0f b6 c0             	movzbl %al,%eax
   12e3a:	8b 55 f4             	mov    -0xc(%rbp),%edx
   12e3d:	48 8d 35 7f 35 00 00 	lea    0x357f(%rip),%rsi        # 163c3 <g_2569+0x1343>
   12e44:	48 89 c7             	mov    %rax,%rdi
   12e47:	e8 a7 78 ff ff       	callq  a6f3 <transparent_crc>
   12e4c:	48 8b 05 fd 85 00 00 	mov    0x85fd(%rip),%rax        # 1b450 <g_2949+0x10>
   12e53:	8b 55 f4             	mov    -0xc(%rbp),%edx
   12e56:	48 8d 35 70 35 00 00 	lea    0x3570(%rip),%rsi        # 163cd <g_2569+0x134d>
   12e5d:	48 89 c7             	mov    %rax,%rdi
   12e60:	e8 8e 78 ff ff       	callq  a6f3 <transparent_crc>
   12e65:	48 8b 05 ec 85 00 00 	mov    0x85ec(%rip),%rax        # 1b458 <g_2949+0x18>
   12e6c:	48 89 c1             	mov    %rax,%rcx
   12e6f:	8b 45 f4             	mov    -0xc(%rbp),%eax
   12e72:	89 c2                	mov    %eax,%edx
   12e74:	48 8d 35 5c 35 00 00 	lea    0x355c(%rip),%rsi        # 163d7 <g_2569+0x1357>
   12e7b:	48 89 cf             	mov    %rcx,%rdi
   12e7e:	e8 70 78 ff ff       	callq  a6f3 <transparent_crc>
   12e83:	0f b6 05 d6 85 00 00 	movzbl 0x85d6(%rip),%eax        # 1b460 <g_2949+0x20>
   12e8a:	0f b6 c0             	movzbl %al,%eax
   12e8d:	8b 55 f4             	mov    -0xc(%rbp),%edx
   12e90:	48 8d 35 4d 35 00 00 	lea    0x354d(%rip),%rsi        # 163e4 <g_2569+0x1364>
   12e97:	48 89 c7             	mov    %rax,%rdi
   12e9a:	e8 54 78 ff ff       	callq  a6f3 <transparent_crc>
   12e9f:	8b 05 c3 85 00 00    	mov    0x85c3(%rip),%eax        # 1b468 <g_2949+0x28>
   12ea5:	c1 e0 04             	shl    $0x4,%eax
   12ea8:	c1 f8 04             	sar    $0x4,%eax
   12eab:	48 98                	cltq   
   12ead:	8b 55 f4             	mov    -0xc(%rbp),%edx
   12eb0:	48 8d 35 3a 35 00 00 	lea    0x353a(%rip),%rsi        # 163f1 <g_2569+0x1371>
   12eb7:	48 89 c7             	mov    %rax,%rdi
   12eba:	e8 34 78 ff ff       	callq  a6f3 <transparent_crc>
   12ebf:	48 8b 05 aa 85 00 00 	mov    0x85aa(%rip),%rax        # 1b470 <g_2989>
   12ec6:	8b 55 f4             	mov    -0xc(%rbp),%edx
   12ec9:	48 8d 35 2b 35 00 00 	lea    0x352b(%rip),%rsi        # 163fb <g_2569+0x137b>
   12ed0:	48 89 c7             	mov    %rax,%rdi
   12ed3:	e8 1b 78 ff ff       	callq  a6f3 <transparent_crc>
   12ed8:	8b 05 a2 85 00 00    	mov    0x85a2(%rip),%eax        # 1b480 <g_2993>
   12ede:	89 c1                	mov    %eax,%ecx
   12ee0:	8b 45 f4             	mov    -0xc(%rbp),%eax
   12ee3:	89 c2                	mov    %eax,%edx
   12ee5:	48 8d 35 16 35 00 00 	lea    0x3516(%rip),%rsi        # 16402 <g_2569+0x1382>
   12eec:	48 89 cf             	mov    %rcx,%rdi
   12eef:	e8 ff 77 ff ff       	callq  a6f3 <transparent_crc>
   12ef4:	0f b7 05 89 85 00 00 	movzwl 0x8589(%rip),%eax        # 1b484 <g_2993+0x4>
   12efb:	0f b7 c0             	movzwl %ax,%eax
   12efe:	8b 55 f4             	mov    -0xc(%rbp),%edx
   12f01:	48 8d 35 04 35 00 00 	lea    0x3504(%rip),%rsi        # 1640c <g_2569+0x138c>
   12f08:	48 89 c7             	mov    %rax,%rdi
   12f0b:	e8 e3 77 ff ff       	callq  a6f3 <transparent_crc>
   12f10:	8b 05 72 85 00 00    	mov    0x8572(%rip),%eax        # 1b488 <g_2993+0x8>
   12f16:	25 ff ff 1f 00       	and    $0x1fffff,%eax
   12f1b:	89 c1                	mov    %eax,%ecx
   12f1d:	8b 45 f4             	mov    -0xc(%rbp),%eax
   12f20:	89 c2                	mov    %eax,%edx
   12f22:	48 8d 35 ed 34 00 00 	lea    0x34ed(%rip),%rsi        # 16416 <g_2569+0x1396>
   12f29:	48 89 cf             	mov    %rcx,%rdi
   12f2c:	e8 c2 77 ff ff       	callq  a6f3 <transparent_crc>
   12f31:	0f b7 05 54 85 00 00 	movzwl 0x8554(%rip),%eax        # 1b48c <g_2993+0xc>
   12f38:	48 0f bf c0          	movswq %ax,%rax
   12f3c:	8b 55 f4             	mov    -0xc(%rbp),%edx
   12f3f:	48 8d 35 da 34 00 00 	lea    0x34da(%rip),%rsi        # 16420 <g_2569+0x13a0>
   12f46:	48 89 c7             	mov    %rax,%rdi
   12f49:	e8 a5 77 ff ff       	callq  a6f3 <transparent_crc>
   12f4e:	0f b6 05 39 85 00 00 	movzbl 0x8539(%rip),%eax        # 1b48e <g_2993+0xe>
   12f55:	0f b6 c0             	movzbl %al,%eax
   12f58:	8b 55 f4             	mov    -0xc(%rbp),%edx
   12f5b:	48 8d 35 c8 34 00 00 	lea    0x34c8(%rip),%rsi        # 1642a <g_2569+0x13aa>
   12f62:	48 89 c7             	mov    %rax,%rdi
   12f65:	e8 89 77 ff ff       	callq  a6f3 <transparent_crc>
   12f6a:	48 8b 05 1f 85 00 00 	mov    0x851f(%rip),%rax        # 1b490 <g_2993+0x10>
   12f71:	8b 55 f4             	mov    -0xc(%rbp),%edx
   12f74:	48 8d 35 b9 34 00 00 	lea    0x34b9(%rip),%rsi        # 16434 <g_2569+0x13b4>
   12f7b:	48 89 c7             	mov    %rax,%rdi
   12f7e:	e8 70 77 ff ff       	callq  a6f3 <transparent_crc>
   12f83:	48 8b 05 0e 85 00 00 	mov    0x850e(%rip),%rax        # 1b498 <g_2993+0x18>
   12f8a:	48 89 c1             	mov    %rax,%rcx
   12f8d:	8b 45 f4             	mov    -0xc(%rbp),%eax
   12f90:	89 c2                	mov    %eax,%edx
   12f92:	48 8d 35 a5 34 00 00 	lea    0x34a5(%rip),%rsi        # 1643e <g_2569+0x13be>
   12f99:	48 89 cf             	mov    %rcx,%rdi
   12f9c:	e8 52 77 ff ff       	callq  a6f3 <transparent_crc>
   12fa1:	0f b6 05 f8 84 00 00 	movzbl 0x84f8(%rip),%eax        # 1b4a0 <g_2993+0x20>
   12fa8:	0f b6 c0             	movzbl %al,%eax
   12fab:	8b 55 f4             	mov    -0xc(%rbp),%edx
   12fae:	48 8d 35 96 34 00 00 	lea    0x3496(%rip),%rsi        # 1644b <g_2569+0x13cb>
   12fb5:	48 89 c7             	mov    %rax,%rdi
   12fb8:	e8 36 77 ff ff       	callq  a6f3 <transparent_crc>
   12fbd:	8b 05 e5 84 00 00    	mov    0x84e5(%rip),%eax        # 1b4a8 <g_2993+0x28>
   12fc3:	c1 e0 04             	shl    $0x4,%eax
   12fc6:	c1 f8 04             	sar    $0x4,%eax
   12fc9:	48 98                	cltq   
   12fcb:	8b 55 f4             	mov    -0xc(%rbp),%edx
   12fce:	48 8d 35 83 34 00 00 	lea    0x3483(%rip),%rsi        # 16458 <g_2569+0x13d8>
   12fd5:	48 89 c7             	mov    %rax,%rdi
   12fd8:	e8 16 77 ff ff       	callq  a6f3 <transparent_crc>
   12fdd:	8b 05 dd 84 00 00    	mov    0x84dd(%rip),%eax        # 1b4c0 <g_3020>
   12fe3:	89 c1                	mov    %eax,%ecx
   12fe5:	8b 45 f4             	mov    -0xc(%rbp),%eax
   12fe8:	89 c2                	mov    %eax,%edx
   12fea:	48 8d 35 71 34 00 00 	lea    0x3471(%rip),%rsi        # 16462 <g_2569+0x13e2>
   12ff1:	48 89 cf             	mov    %rcx,%rdi
   12ff4:	e8 fa 76 ff ff       	callq  a6f3 <transparent_crc>
   12ff9:	0f b7 05 c4 84 00 00 	movzwl 0x84c4(%rip),%eax        # 1b4c4 <g_3020+0x4>
   13000:	0f b7 c0             	movzwl %ax,%eax
   13003:	8b 55 f4             	mov    -0xc(%rbp),%edx
   13006:	48 8d 35 5f 34 00 00 	lea    0x345f(%rip),%rsi        # 1646c <g_2569+0x13ec>
   1300d:	48 89 c7             	mov    %rax,%rdi
   13010:	e8 de 76 ff ff       	callq  a6f3 <transparent_crc>
   13015:	8b 05 ad 84 00 00    	mov    0x84ad(%rip),%eax        # 1b4c8 <g_3020+0x8>
   1301b:	25 ff ff 1f 00       	and    $0x1fffff,%eax
   13020:	89 c1                	mov    %eax,%ecx
   13022:	8b 45 f4             	mov    -0xc(%rbp),%eax
   13025:	89 c2                	mov    %eax,%edx
   13027:	48 8d 35 48 34 00 00 	lea    0x3448(%rip),%rsi        # 16476 <g_2569+0x13f6>
   1302e:	48 89 cf             	mov    %rcx,%rdi
   13031:	e8 bd 76 ff ff       	callq  a6f3 <transparent_crc>
   13036:	0f b7 05 8f 84 00 00 	movzwl 0x848f(%rip),%eax        # 1b4cc <g_3020+0xc>
   1303d:	48 0f bf c0          	movswq %ax,%rax
   13041:	8b 55 f4             	mov    -0xc(%rbp),%edx
   13044:	48 8d 35 35 34 00 00 	lea    0x3435(%rip),%rsi        # 16480 <g_2569+0x1400>
   1304b:	48 89 c7             	mov    %rax,%rdi
   1304e:	e8 a0 76 ff ff       	callq  a6f3 <transparent_crc>
   13053:	0f b6 05 74 84 00 00 	movzbl 0x8474(%rip),%eax        # 1b4ce <g_3020+0xe>
   1305a:	0f b6 c0             	movzbl %al,%eax
   1305d:	8b 55 f4             	mov    -0xc(%rbp),%edx
   13060:	48 8d 35 23 34 00 00 	lea    0x3423(%rip),%rsi        # 1648a <g_2569+0x140a>
   13067:	48 89 c7             	mov    %rax,%rdi
   1306a:	e8 84 76 ff ff       	callq  a6f3 <transparent_crc>
   1306f:	48 8b 05 5a 84 00 00 	mov    0x845a(%rip),%rax        # 1b4d0 <g_3020+0x10>
   13076:	8b 55 f4             	mov    -0xc(%rbp),%edx
   13079:	48 8d 35 14 34 00 00 	lea    0x3414(%rip),%rsi        # 16494 <g_2569+0x1414>
   13080:	48 89 c7             	mov    %rax,%rdi
   13083:	e8 6b 76 ff ff       	callq  a6f3 <transparent_crc>
   13088:	48 8b 05 49 84 00 00 	mov    0x8449(%rip),%rax        # 1b4d8 <g_3020+0x18>
   1308f:	48 89 c1             	mov    %rax,%rcx
   13092:	8b 45 f4             	mov    -0xc(%rbp),%eax
   13095:	89 c2                	mov    %eax,%edx
   13097:	48 8d 35 00 34 00 00 	lea    0x3400(%rip),%rsi        # 1649e <g_2569+0x141e>
   1309e:	48 89 cf             	mov    %rcx,%rdi
   130a1:	e8 4d 76 ff ff       	callq  a6f3 <transparent_crc>
   130a6:	0f b6 05 33 84 00 00 	movzbl 0x8433(%rip),%eax        # 1b4e0 <g_3020+0x20>
   130ad:	0f b6 c0             	movzbl %al,%eax
   130b0:	8b 55 f4             	mov    -0xc(%rbp),%edx
   130b3:	48 8d 35 f1 33 00 00 	lea    0x33f1(%rip),%rsi        # 164ab <g_2569+0x142b>
   130ba:	48 89 c7             	mov    %rax,%rdi
   130bd:	e8 31 76 ff ff       	callq  a6f3 <transparent_crc>
   130c2:	8b 05 20 84 00 00    	mov    0x8420(%rip),%eax        # 1b4e8 <g_3020+0x28>
   130c8:	c1 e0 04             	shl    $0x4,%eax
   130cb:	c1 f8 04             	sar    $0x4,%eax
   130ce:	48 98                	cltq   
   130d0:	8b 55 f4             	mov    -0xc(%rbp),%edx
   130d3:	48 8d 35 de 33 00 00 	lea    0x33de(%rip),%rsi        # 164b8 <g_2569+0x1438>
   130da:	48 89 c7             	mov    %rax,%rdi
   130dd:	e8 11 76 ff ff       	callq  a6f3 <transparent_crc>
   130e2:	8b 05 18 84 00 00    	mov    0x8418(%rip),%eax        # 1b500 <g_3046>
   130e8:	89 c1                	mov    %eax,%ecx
   130ea:	8b 45 f4             	mov    -0xc(%rbp),%eax
   130ed:	89 c2                	mov    %eax,%edx
   130ef:	48 8d 35 cc 33 00 00 	lea    0x33cc(%rip),%rsi        # 164c2 <g_2569+0x1442>
   130f6:	48 89 cf             	mov    %rcx,%rdi
   130f9:	e8 f5 75 ff ff       	callq  a6f3 <transparent_crc>
   130fe:	0f b7 05 ff 83 00 00 	movzwl 0x83ff(%rip),%eax        # 1b504 <g_3046+0x4>
   13105:	0f b7 c0             	movzwl %ax,%eax
   13108:	8b 55 f4             	mov    -0xc(%rbp),%edx
   1310b:	48 8d 35 ba 33 00 00 	lea    0x33ba(%rip),%rsi        # 164cc <g_2569+0x144c>
   13112:	48 89 c7             	mov    %rax,%rdi
   13115:	e8 d9 75 ff ff       	callq  a6f3 <transparent_crc>
   1311a:	8b 05 e8 83 00 00    	mov    0x83e8(%rip),%eax        # 1b508 <g_3046+0x8>
   13120:	25 ff ff 1f 00       	and    $0x1fffff,%eax
   13125:	89 c1                	mov    %eax,%ecx
   13127:	8b 45 f4             	mov    -0xc(%rbp),%eax
   1312a:	89 c2                	mov    %eax,%edx
   1312c:	48 8d 35 a3 33 00 00 	lea    0x33a3(%rip),%rsi        # 164d6 <g_2569+0x1456>
   13133:	48 89 cf             	mov    %rcx,%rdi
   13136:	e8 b8 75 ff ff       	callq  a6f3 <transparent_crc>
   1313b:	0f b7 05 ca 83 00 00 	movzwl 0x83ca(%rip),%eax        # 1b50c <g_3046+0xc>
   13142:	48 0f bf c0          	movswq %ax,%rax
   13146:	8b 55 f4             	mov    -0xc(%rbp),%edx
   13149:	48 8d 35 90 33 00 00 	lea    0x3390(%rip),%rsi        # 164e0 <g_2569+0x1460>
   13150:	48 89 c7             	mov    %rax,%rdi
   13153:	e8 9b 75 ff ff       	callq  a6f3 <transparent_crc>
   13158:	0f b6 05 af 83 00 00 	movzbl 0x83af(%rip),%eax        # 1b50e <g_3046+0xe>
   1315f:	0f b6 c0             	movzbl %al,%eax
   13162:	8b 55 f4             	mov    -0xc(%rbp),%edx
   13165:	48 8d 35 7e 33 00 00 	lea    0x337e(%rip),%rsi        # 164ea <g_2569+0x146a>
   1316c:	48 89 c7             	mov    %rax,%rdi
   1316f:	e8 7f 75 ff ff       	callq  a6f3 <transparent_crc>
   13174:	48 8b 05 95 83 00 00 	mov    0x8395(%rip),%rax        # 1b510 <g_3046+0x10>
   1317b:	8b 55 f4             	mov    -0xc(%rbp),%edx
   1317e:	48 8d 35 6f 33 00 00 	lea    0x336f(%rip),%rsi        # 164f4 <g_2569+0x1474>
   13185:	48 89 c7             	mov    %rax,%rdi
   13188:	e8 66 75 ff ff       	callq  a6f3 <transparent_crc>
   1318d:	48 8b 05 84 83 00 00 	mov    0x8384(%rip),%rax        # 1b518 <g_3046+0x18>
   13194:	48 89 c1             	mov    %rax,%rcx
   13197:	8b 45 f4             	mov    -0xc(%rbp),%eax
   1319a:	89 c2                	mov    %eax,%edx
   1319c:	48 8d 35 5b 33 00 00 	lea    0x335b(%rip),%rsi        # 164fe <g_2569+0x147e>
   131a3:	48 89 cf             	mov    %rcx,%rdi
   131a6:	e8 48 75 ff ff       	callq  a6f3 <transparent_crc>
   131ab:	0f b6 05 6e 83 00 00 	movzbl 0x836e(%rip),%eax        # 1b520 <g_3046+0x20>
   131b2:	0f b6 c0             	movzbl %al,%eax
   131b5:	8b 55 f4             	mov    -0xc(%rbp),%edx
   131b8:	48 8d 35 4c 33 00 00 	lea    0x334c(%rip),%rsi        # 1650b <g_2569+0x148b>
   131bf:	48 89 c7             	mov    %rax,%rdi
   131c2:	e8 2c 75 ff ff       	callq  a6f3 <transparent_crc>
   131c7:	8b 05 5b 83 00 00    	mov    0x835b(%rip),%eax        # 1b528 <g_3046+0x28>
   131cd:	c1 e0 04             	shl    $0x4,%eax
   131d0:	c1 f8 04             	sar    $0x4,%eax
   131d3:	48 98                	cltq   
   131d5:	8b 55 f4             	mov    -0xc(%rbp),%edx
   131d8:	48 8d 35 39 33 00 00 	lea    0x3339(%rip),%rsi        # 16518 <g_2569+0x1498>
   131df:	48 89 c7             	mov    %rax,%rdi
   131e2:	e8 0c 75 ff ff       	callq  a6f3 <transparent_crc>
   131e7:	8b 05 53 83 00 00    	mov    0x8353(%rip),%eax        # 1b540 <g_3047>
   131ed:	89 c1                	mov    %eax,%ecx
   131ef:	8b 45 f4             	mov    -0xc(%rbp),%eax
   131f2:	89 c2                	mov    %eax,%edx
   131f4:	48 8d 35 27 33 00 00 	lea    0x3327(%rip),%rsi        # 16522 <g_2569+0x14a2>
   131fb:	48 89 cf             	mov    %rcx,%rdi
   131fe:	e8 f0 74 ff ff       	callq  a6f3 <transparent_crc>
   13203:	0f b7 05 3a 83 00 00 	movzwl 0x833a(%rip),%eax        # 1b544 <g_3047+0x4>
   1320a:	0f b7 c0             	movzwl %ax,%eax
   1320d:	8b 55 f4             	mov    -0xc(%rbp),%edx
   13210:	48 8d 35 15 33 00 00 	lea    0x3315(%rip),%rsi        # 1652c <g_2569+0x14ac>
   13217:	48 89 c7             	mov    %rax,%rdi
   1321a:	e8 d4 74 ff ff       	callq  a6f3 <transparent_crc>
   1321f:	48 8b 05 22 83 00 00 	mov    0x8322(%rip),%rax        # 1b548 <g_3047+0x8>
   13226:	25 ff ff 1f 00       	and    $0x1fffff,%eax
   1322b:	89 c1                	mov    %eax,%ecx
   1322d:	8b 45 f4             	mov    -0xc(%rbp),%eax
   13230:	89 c2                	mov    %eax,%edx
   13232:	48 8d 35 fd 32 00 00 	lea    0x32fd(%rip),%rsi        # 16536 <g_2569+0x14b6>
   13239:	48 89 cf             	mov    %rcx,%rdi
   1323c:	e8 b2 74 ff ff       	callq  a6f3 <transparent_crc>
   13241:	0f b7 05 04 83 00 00 	movzwl 0x8304(%rip),%eax        # 1b54c <g_3047+0xc>
   13248:	48 0f bf c0          	movswq %ax,%rax
   1324c:	8b 55 f4             	mov    -0xc(%rbp),%edx
   1324f:	48 8d 35 ea 32 00 00 	lea    0x32ea(%rip),%rsi        # 16540 <g_2569+0x14c0>
   13256:	48 89 c7             	mov    %rax,%rdi
   13259:	e8 95 74 ff ff       	callq  a6f3 <transparent_crc>
   1325e:	0f b6 05 e9 82 00 00 	movzbl 0x82e9(%rip),%eax        # 1b54e <g_3047+0xe>
   13265:	0f b6 c0             	movzbl %al,%eax
   13268:	8b 55 f4             	mov    -0xc(%rbp),%edx
   1326b:	48 8d 35 d8 32 00 00 	lea    0x32d8(%rip),%rsi        # 1654a <g_2569+0x14ca>
   13272:	48 89 c7             	mov    %rax,%rdi
   13275:	e8 79 74 ff ff       	callq  a6f3 <transparent_crc>
   1327a:	48 8b 05 cf 82 00 00 	mov    0x82cf(%rip),%rax        # 1b550 <g_3047+0x10>
   13281:	8b 55 f4             	mov    -0xc(%rbp),%edx
   13284:	48 8d 35 c9 32 00 00 	lea    0x32c9(%rip),%rsi        # 16554 <g_2569+0x14d4>
   1328b:	48 89 c7             	mov    %rax,%rdi
   1328e:	e8 60 74 ff ff       	callq  a6f3 <transparent_crc>
   13293:	48 8b 05 be 82 00 00 	mov    0x82be(%rip),%rax        # 1b558 <g_3047+0x18>
   1329a:	48 89 c1             	mov    %rax,%rcx
   1329d:	8b 45 f4             	mov    -0xc(%rbp),%eax
   132a0:	89 c2                	mov    %eax,%edx
   132a2:	48 8d 35 b5 32 00 00 	lea    0x32b5(%rip),%rsi        # 1655e <g_2569+0x14de>
   132a9:	48 89 cf             	mov    %rcx,%rdi
   132ac:	e8 42 74 ff ff       	callq  a6f3 <transparent_crc>
   132b1:	0f b6 05 a8 82 00 00 	movzbl 0x82a8(%rip),%eax        # 1b560 <g_3047+0x20>
   132b8:	0f b6 c0             	movzbl %al,%eax
   132bb:	8b 55 f4             	mov    -0xc(%rbp),%edx
   132be:	48 8d 35 a6 32 00 00 	lea    0x32a6(%rip),%rsi        # 1656b <g_2569+0x14eb>
   132c5:	48 89 c7             	mov    %rax,%rdi
   132c8:	e8 26 74 ff ff       	callq  a6f3 <transparent_crc>
   132cd:	48 8b 05 94 82 00 00 	mov    0x8294(%rip),%rax        # 1b568 <g_3047+0x28>
   132d4:	c1 e0 04             	shl    $0x4,%eax
   132d7:	c1 f8 04             	sar    $0x4,%eax
   132da:	48 98                	cltq   
   132dc:	8b 55 f4             	mov    -0xc(%rbp),%edx
   132df:	48 8d 35 92 32 00 00 	lea    0x3292(%rip),%rsi        # 16578 <g_2569+0x14f8>
   132e6:	48 89 c7             	mov    %rax,%rdi
   132e9:	e8 05 74 ff ff       	callq  a6f3 <transparent_crc>
   132ee:	8b 05 8c 82 00 00    	mov    0x828c(%rip),%eax        # 1b580 <g_3050>
   132f4:	89 c1                	mov    %eax,%ecx
   132f6:	8b 45 f4             	mov    -0xc(%rbp),%eax
   132f9:	89 c2                	mov    %eax,%edx
   132fb:	48 8d 35 80 32 00 00 	lea    0x3280(%rip),%rsi        # 16582 <g_2569+0x1502>
   13302:	48 89 cf             	mov    %rcx,%rdi
   13305:	e8 e9 73 ff ff       	callq  a6f3 <transparent_crc>
   1330a:	0f b7 05 73 82 00 00 	movzwl 0x8273(%rip),%eax        # 1b584 <g_3050+0x4>
   13311:	0f b7 c0             	movzwl %ax,%eax
   13314:	8b 55 f4             	mov    -0xc(%rbp),%edx
   13317:	48 8d 35 6e 32 00 00 	lea    0x326e(%rip),%rsi        # 1658c <g_2569+0x150c>
   1331e:	48 89 c7             	mov    %rax,%rdi
   13321:	e8 cd 73 ff ff       	callq  a6f3 <transparent_crc>
   13326:	8b 05 5c 82 00 00    	mov    0x825c(%rip),%eax        # 1b588 <g_3050+0x8>
   1332c:	25 ff ff 1f 00       	and    $0x1fffff,%eax
   13331:	89 c1                	mov    %eax,%ecx
   13333:	8b 45 f4             	mov    -0xc(%rbp),%eax
   13336:	89 c2                	mov    %eax,%edx
   13338:	48 8d 35 57 32 00 00 	lea    0x3257(%rip),%rsi        # 16596 <g_2569+0x1516>
   1333f:	48 89 cf             	mov    %rcx,%rdi
   13342:	e8 ac 73 ff ff       	callq  a6f3 <transparent_crc>
   13347:	0f b7 05 3e 82 00 00 	movzwl 0x823e(%rip),%eax        # 1b58c <g_3050+0xc>
   1334e:	48 0f bf c0          	movswq %ax,%rax
   13352:	8b 55 f4             	mov    -0xc(%rbp),%edx
   13355:	48 8d 35 44 32 00 00 	lea    0x3244(%rip),%rsi        # 165a0 <g_2569+0x1520>
   1335c:	48 89 c7             	mov    %rax,%rdi
   1335f:	e8 8f 73 ff ff       	callq  a6f3 <transparent_crc>
   13364:	0f b6 05 23 82 00 00 	movzbl 0x8223(%rip),%eax        # 1b58e <g_3050+0xe>
   1336b:	0f b6 c0             	movzbl %al,%eax
   1336e:	8b 55 f4             	mov    -0xc(%rbp),%edx
   13371:	48 8d 35 32 32 00 00 	lea    0x3232(%rip),%rsi        # 165aa <g_2569+0x152a>
   13378:	48 89 c7             	mov    %rax,%rdi
   1337b:	e8 73 73 ff ff       	callq  a6f3 <transparent_crc>
   13380:	48 8b 05 09 82 00 00 	mov    0x8209(%rip),%rax        # 1b590 <g_3050+0x10>
   13387:	8b 55 f4             	mov    -0xc(%rbp),%edx
   1338a:	48 8d 35 23 32 00 00 	lea    0x3223(%rip),%rsi        # 165b4 <g_2569+0x1534>
   13391:	48 89 c7             	mov    %rax,%rdi
   13394:	e8 5a 73 ff ff       	callq  a6f3 <transparent_crc>
   13399:	48 8b 05 f8 81 00 00 	mov    0x81f8(%rip),%rax        # 1b598 <g_3050+0x18>
   133a0:	48 89 c1             	mov    %rax,%rcx
   133a3:	8b 45 f4             	mov    -0xc(%rbp),%eax
   133a6:	89 c2                	mov    %eax,%edx
   133a8:	48 8d 35 0f 32 00 00 	lea    0x320f(%rip),%rsi        # 165be <g_2569+0x153e>
   133af:	48 89 cf             	mov    %rcx,%rdi
   133b2:	e8 3c 73 ff ff       	callq  a6f3 <transparent_crc>
   133b7:	0f b6 05 e2 81 00 00 	movzbl 0x81e2(%rip),%eax        # 1b5a0 <g_3050+0x20>
   133be:	0f b6 c0             	movzbl %al,%eax
   133c1:	8b 55 f4             	mov    -0xc(%rbp),%edx
   133c4:	48 8d 35 00 32 00 00 	lea    0x3200(%rip),%rsi        # 165cb <g_2569+0x154b>
   133cb:	48 89 c7             	mov    %rax,%rdi
   133ce:	e8 20 73 ff ff       	callq  a6f3 <transparent_crc>
   133d3:	8b 05 cf 81 00 00    	mov    0x81cf(%rip),%eax        # 1b5a8 <g_3050+0x28>
   133d9:	c1 e0 04             	shl    $0x4,%eax
   133dc:	c1 f8 04             	sar    $0x4,%eax
   133df:	48 98                	cltq   
   133e1:	8b 55 f4             	mov    -0xc(%rbp),%edx
   133e4:	48 8d 35 ed 31 00 00 	lea    0x31ed(%rip),%rsi        # 165d8 <g_2569+0x1558>
   133eb:	48 89 c7             	mov    %rax,%rdi
   133ee:	e8 00 73 ff ff       	callq  a6f3 <transparent_crc>
   133f3:	c7 45 e8 00 00 00 00 	movl   $0x0,-0x18(%rbp)
   133fa:	e9 11 02 00 00       	jmpq   13610 <main+0x220d>
   133ff:	8b 45 e8             	mov    -0x18(%rbp),%eax
   13402:	48 63 d0             	movslq %eax,%rdx
   13405:	48 89 d0             	mov    %rdx,%rax
   13408:	48 01 c0             	add    %rax,%rax
   1340b:	48 01 d0             	add    %rdx,%rax
   1340e:	48 c1 e0 04          	shl    $0x4,%rax
   13412:	48 89 c2             	mov    %rax,%rdx
   13415:	48 8d 05 a4 81 00 00 	lea    0x81a4(%rip),%rax        # 1b5c0 <g_3132>
   1341c:	8b 04 02             	mov    (%rdx,%rax,1),%eax
   1341f:	89 c1                	mov    %eax,%ecx
   13421:	8b 45 f4             	mov    -0xc(%rbp),%eax
   13424:	89 c2                	mov    %eax,%edx
   13426:	48 8d 35 b5 31 00 00 	lea    0x31b5(%rip),%rsi        # 165e2 <g_2569+0x1562>
   1342d:	48 89 cf             	mov    %rcx,%rdi
   13430:	e8 be 72 ff ff       	callq  a6f3 <transparent_crc>
   13435:	8b 45 e8             	mov    -0x18(%rbp),%eax
   13438:	48 63 d0             	movslq %eax,%rdx
   1343b:	48 89 d0             	mov    %rdx,%rax
   1343e:	48 01 c0             	add    %rax,%rax
   13441:	48 01 d0             	add    %rdx,%rax
   13444:	48 c1 e0 04          	shl    $0x4,%rax
   13448:	48 89 c2             	mov    %rax,%rdx
   1344b:	48 8d 05 72 81 00 00 	lea    0x8172(%rip),%rax        # 1b5c4 <g_3132+0x4>
   13452:	0f b7 04 02          	movzwl (%rdx,%rax,1),%eax
   13456:	0f b7 c0             	movzwl %ax,%eax
   13459:	8b 55 f4             	mov    -0xc(%rbp),%edx
   1345c:	48 8d 35 8c 31 00 00 	lea    0x318c(%rip),%rsi        # 165ef <g_2569+0x156f>
   13463:	48 89 c7             	mov    %rax,%rdi
   13466:	e8 88 72 ff ff       	callq  a6f3 <transparent_crc>
   1346b:	8b 45 e8             	mov    -0x18(%rbp),%eax
   1346e:	48 63 d0             	movslq %eax,%rdx
   13471:	48 89 d0             	mov    %rdx,%rax
   13474:	48 01 c0             	add    %rax,%rax
   13477:	48 01 d0             	add    %rdx,%rax
   1347a:	48 c1 e0 04          	shl    $0x4,%rax
   1347e:	48 89 c2             	mov    %rax,%rdx
   13481:	48 8d 05 38 81 00 00 	lea    0x8138(%rip),%rax        # 1b5c0 <g_3132>
   13488:	8b 44 02 08          	mov    0x8(%rdx,%rax,1),%eax
   1348c:	25 ff ff 1f 00       	and    $0x1fffff,%eax
   13491:	89 c1                	mov    %eax,%ecx
   13493:	8b 45 f4             	mov    -0xc(%rbp),%eax
   13496:	89 c2                	mov    %eax,%edx
   13498:	48 8d 35 5d 31 00 00 	lea    0x315d(%rip),%rsi        # 165fc <g_2569+0x157c>
   1349f:	48 89 cf             	mov    %rcx,%rdi
   134a2:	e8 4c 72 ff ff       	callq  a6f3 <transparent_crc>
   134a7:	8b 45 e8             	mov    -0x18(%rbp),%eax
   134aa:	48 63 d0             	movslq %eax,%rdx
   134ad:	48 89 d0             	mov    %rdx,%rax
   134b0:	48 01 c0             	add    %rax,%rax
   134b3:	48 01 d0             	add    %rdx,%rax
   134b6:	48 c1 e0 04          	shl    $0x4,%rax
   134ba:	48 89 c2             	mov    %rax,%rdx
   134bd:	48 8d 05 08 81 00 00 	lea    0x8108(%rip),%rax        # 1b5cc <g_3132+0xc>
   134c4:	0f b7 04 02          	movzwl (%rdx,%rax,1),%eax
   134c8:	48 0f bf c0          	movswq %ax,%rax
   134cc:	8b 55 f4             	mov    -0xc(%rbp),%edx
   134cf:	48 8d 35 33 31 00 00 	lea    0x3133(%rip),%rsi        # 16609 <g_2569+0x1589>
   134d6:	48 89 c7             	mov    %rax,%rdi
   134d9:	e8 15 72 ff ff       	callq  a6f3 <transparent_crc>
   134de:	8b 45 e8             	mov    -0x18(%rbp),%eax
   134e1:	48 63 d0             	movslq %eax,%rdx
   134e4:	48 89 d0             	mov    %rdx,%rax
   134e7:	48 01 c0             	add    %rax,%rax
   134ea:	48 01 d0             	add    %rdx,%rax
   134ed:	48 c1 e0 04          	shl    $0x4,%rax
   134f1:	48 89 c2             	mov    %rax,%rdx
   134f4:	48 8d 05 d3 80 00 00 	lea    0x80d3(%rip),%rax        # 1b5ce <g_3132+0xe>
   134fb:	0f b6 04 02          	movzbl (%rdx,%rax,1),%eax
   134ff:	0f b6 c0             	movzbl %al,%eax
   13502:	8b 55 f4             	mov    -0xc(%rbp),%edx
   13505:	48 8d 35 0a 31 00 00 	lea    0x310a(%rip),%rsi        # 16616 <g_2569+0x1596>
   1350c:	48 89 c7             	mov    %rax,%rdi
   1350f:	e8 df 71 ff ff       	callq  a6f3 <transparent_crc>
   13514:	8b 45 e8             	mov    -0x18(%rbp),%eax
   13517:	48 63 d0             	movslq %eax,%rdx
   1351a:	48 89 d0             	mov    %rdx,%rax
   1351d:	48 01 c0             	add    %rax,%rax
   13520:	48 01 d0             	add    %rdx,%rax
   13523:	48 c1 e0 04          	shl    $0x4,%rax
   13527:	48 89 c2             	mov    %rax,%rdx
   1352a:	48 8d 05 9f 80 00 00 	lea    0x809f(%rip),%rax        # 1b5d0 <g_3132+0x10>
   13531:	48 8b 04 02          	mov    (%rdx,%rax,1),%rax
   13535:	8b 55 f4             	mov    -0xc(%rbp),%edx
   13538:	48 8d 35 e4 30 00 00 	lea    0x30e4(%rip),%rsi        # 16623 <g_2569+0x15a3>
   1353f:	48 89 c7             	mov    %rax,%rdi
   13542:	e8 ac 71 ff ff       	callq  a6f3 <transparent_crc>
   13547:	8b 45 e8             	mov    -0x18(%rbp),%eax
   1354a:	48 63 d0             	movslq %eax,%rdx
   1354d:	48 89 d0             	mov    %rdx,%rax
   13550:	48 01 c0             	add    %rax,%rax
   13553:	48 01 d0             	add    %rdx,%rax
   13556:	48 c1 e0 04          	shl    $0x4,%rax
   1355a:	48 89 c2             	mov    %rax,%rdx
   1355d:	48 8d 05 74 80 00 00 	lea    0x8074(%rip),%rax        # 1b5d8 <g_3132+0x18>
   13564:	48 8b 04 02          	mov    (%rdx,%rax,1),%rax
   13568:	48 89 c1             	mov    %rax,%rcx
   1356b:	8b 45 f4             	mov    -0xc(%rbp),%eax
   1356e:	89 c2                	mov    %eax,%edx
   13570:	48 8d 35 b9 30 00 00 	lea    0x30b9(%rip),%rsi        # 16630 <g_2569+0x15b0>
   13577:	48 89 cf             	mov    %rcx,%rdi
   1357a:	e8 74 71 ff ff       	callq  a6f3 <transparent_crc>
   1357f:	8b 45 e8             	mov    -0x18(%rbp),%eax
   13582:	48 63 d0             	movslq %eax,%rdx
   13585:	48 89 d0             	mov    %rdx,%rax
   13588:	48 01 c0             	add    %rax,%rax
   1358b:	48 01 d0             	add    %rdx,%rax
   1358e:	48 c1 e0 04          	shl    $0x4,%rax
   13592:	48 89 c2             	mov    %rax,%rdx
   13595:	48 8d 05 44 80 00 00 	lea    0x8044(%rip),%rax        # 1b5e0 <g_3132+0x20>
   1359c:	0f b6 04 02          	movzbl (%rdx,%rax,1),%eax
   135a0:	0f b6 c0             	movzbl %al,%eax
   135a3:	8b 55 f4             	mov    -0xc(%rbp),%edx
   135a6:	48 8d 35 93 30 00 00 	lea    0x3093(%rip),%rsi        # 16640 <g_2569+0x15c0>
   135ad:	48 89 c7             	mov    %rax,%rdi
   135b0:	e8 3e 71 ff ff       	callq  a6f3 <transparent_crc>
   135b5:	8b 45 e8             	mov    -0x18(%rbp),%eax
   135b8:	48 63 d0             	movslq %eax,%rdx
   135bb:	48 89 d0             	mov    %rdx,%rax
   135be:	48 01 c0             	add    %rax,%rax
   135c1:	48 01 d0             	add    %rdx,%rax
   135c4:	48 c1 e0 04          	shl    $0x4,%rax
   135c8:	48 89 c2             	mov    %rax,%rdx
   135cb:	48 8d 05 0e 80 00 00 	lea    0x800e(%rip),%rax        # 1b5e0 <g_3132+0x20>
   135d2:	8b 44 02 08          	mov    0x8(%rdx,%rax,1),%eax
   135d6:	c1 e0 04             	shl    $0x4,%eax
   135d9:	c1 f8 04             	sar    $0x4,%eax
   135dc:	48 98                	cltq   
   135de:	8b 55 f4             	mov    -0xc(%rbp),%edx
   135e1:	48 8d 35 68 30 00 00 	lea    0x3068(%rip),%rsi        # 16650 <g_2569+0x15d0>
   135e8:	48 89 c7             	mov    %rax,%rdi
   135eb:	e8 03 71 ff ff       	callq  a6f3 <transparent_crc>
   135f0:	83 7d f4 00          	cmpl   $0x0,-0xc(%rbp)
   135f4:	74 16                	je     1360c <main+0x2209>
   135f6:	8b 45 e8             	mov    -0x18(%rbp),%eax
   135f9:	89 c6                	mov    %eax,%esi
   135fb:	48 8d 3d 69 28 00 00 	lea    0x2869(%rip),%rdi        # 15e6b <g_2569+0xdeb>
   13602:	b8 00 00 00 00       	mov    $0x0,%eax
   13607:	e8 74 5a ff ff       	callq  9080 <printf@plt>
   1360c:	83 45 e8 01          	addl   $0x1,-0x18(%rbp)
   13610:	83 7d e8 01          	cmpl   $0x1,-0x18(%rbp)
   13614:	0f 8e e5 fd ff ff    	jle    133ff <main+0x1ffc>
   1361a:	c7 45 e8 00 00 00 00 	movl   $0x0,-0x18(%rbp)
   13621:	e9 bf 00 00 00       	jmpq   136e5 <main+0x22e2>
   13626:	c7 45 ec 00 00 00 00 	movl   $0x0,-0x14(%rbp)
   1362d:	e9 a5 00 00 00       	jmpq   136d7 <main+0x22d4>
   13632:	8b 45 ec             	mov    -0x14(%rbp),%eax
   13635:	48 63 c8             	movslq %eax,%rcx
   13638:	8b 45 e8             	mov    -0x18(%rbp),%eax
   1363b:	48 63 d0             	movslq %eax,%rdx
   1363e:	48 89 d0             	mov    %rdx,%rax
   13641:	48 c1 e0 03          	shl    $0x3,%rax
   13645:	48 01 d0             	add    %rdx,%rax
   13648:	48 01 c8             	add    %rcx,%rax
   1364b:	48 c1 e0 04          	shl    $0x4,%rax
   1364f:	48 89 c2             	mov    %rax,%rdx
   13652:	48 8d 05 c7 7f 00 00 	lea    0x7fc7(%rip),%rax        # 1b620 <g_3189>
   13659:	48 8b 04 02          	mov    (%rdx,%rax,1),%rax
   1365d:	48 89 c1             	mov    %rax,%rcx
   13660:	8b 45 f4             	mov    -0xc(%rbp),%eax
   13663:	89 c2                	mov    %eax,%edx
   13665:	48 8d 35 f1 2f 00 00 	lea    0x2ff1(%rip),%rsi        # 1665d <g_2569+0x15dd>
   1366c:	48 89 cf             	mov    %rcx,%rdi
   1366f:	e8 7f 70 ff ff       	callq  a6f3 <transparent_crc>
   13674:	8b 45 ec             	mov    -0x14(%rbp),%eax
   13677:	48 63 c8             	movslq %eax,%rcx
   1367a:	8b 45 e8             	mov    -0x18(%rbp),%eax
   1367d:	48 63 d0             	movslq %eax,%rdx
   13680:	48 89 d0             	mov    %rdx,%rax
   13683:	48 c1 e0 03          	shl    $0x3,%rax
   13687:	48 01 d0             	add    %rdx,%rax
   1368a:	48 01 c8             	add    %rcx,%rax
   1368d:	48 c1 e0 04          	shl    $0x4,%rax
   13691:	48 89 c2             	mov    %rax,%rdx
   13694:	48 8d 05 8d 7f 00 00 	lea    0x7f8d(%rip),%rax        # 1b628 <g_3189+0x8>
   1369b:	0f b6 04 02          	movzbl (%rdx,%rax,1),%eax
   1369f:	0f b6 c0             	movzbl %al,%eax
   136a2:	8b 55 f4             	mov    -0xc(%rbp),%edx
   136a5:	48 8d 35 c1 2f 00 00 	lea    0x2fc1(%rip),%rsi        # 1666d <g_2569+0x15ed>
   136ac:	48 89 c7             	mov    %rax,%rdi
   136af:	e8 3f 70 ff ff       	callq  a6f3 <transparent_crc>
   136b4:	83 7d f4 00          	cmpl   $0x0,-0xc(%rbp)
   136b8:	74 19                	je     136d3 <main+0x22d0>
   136ba:	8b 55 ec             	mov    -0x14(%rbp),%edx
   136bd:	8b 45 e8             	mov    -0x18(%rbp),%eax
   136c0:	89 c6                	mov    %eax,%esi
   136c2:	48 8d 3d cf 26 00 00 	lea    0x26cf(%rip),%rdi        # 15d98 <g_2569+0xd18>
   136c9:	b8 00 00 00 00       	mov    $0x0,%eax
   136ce:	e8 ad 59 ff ff       	callq  9080 <printf@plt>
   136d3:	83 45 ec 01          	addl   $0x1,-0x14(%rbp)
   136d7:	83 7d ec 08          	cmpl   $0x8,-0x14(%rbp)
   136db:	0f 8e 51 ff ff ff    	jle    13632 <main+0x222f>
   136e1:	83 45 e8 01          	addl   $0x1,-0x18(%rbp)
   136e5:	83 7d e8 09          	cmpl   $0x9,-0x18(%rbp)
   136e9:	0f 8e 37 ff ff ff    	jle    13626 <main+0x2223>
   136ef:	8b 05 cb 84 00 00    	mov    0x84cb(%rip),%eax        # 1bbc0 <g_3232>
   136f5:	89 c1                	mov    %eax,%ecx
   136f7:	8b 45 f4             	mov    -0xc(%rbp),%eax
   136fa:	89 c2                	mov    %eax,%edx
   136fc:	48 8d 35 7a 2f 00 00 	lea    0x2f7a(%rip),%rsi        # 1667d <g_2569+0x15fd>
   13703:	48 89 cf             	mov    %rcx,%rdi
   13706:	e8 e8 6f ff ff       	callq  a6f3 <transparent_crc>
   1370b:	0f b7 05 b2 84 00 00 	movzwl 0x84b2(%rip),%eax        # 1bbc4 <g_3232+0x4>
   13712:	0f b7 c0             	movzwl %ax,%eax
   13715:	8b 55 f4             	mov    -0xc(%rbp),%edx
   13718:	48 8d 35 68 2f 00 00 	lea    0x2f68(%rip),%rsi        # 16687 <g_2569+0x1607>
   1371f:	48 89 c7             	mov    %rax,%rdi
   13722:	e8 cc 6f ff ff       	callq  a6f3 <transparent_crc>
   13727:	48 8b 05 9a 84 00 00 	mov    0x849a(%rip),%rax        # 1bbc8 <g_3232+0x8>
   1372e:	25 ff ff 1f 00       	and    $0x1fffff,%eax
   13733:	89 c1                	mov    %eax,%ecx
   13735:	8b 45 f4             	mov    -0xc(%rbp),%eax
   13738:	89 c2                	mov    %eax,%edx
   1373a:	48 8d 35 50 2f 00 00 	lea    0x2f50(%rip),%rsi        # 16691 <g_2569+0x1611>
   13741:	48 89 cf             	mov    %rcx,%rdi
   13744:	e8 aa 6f ff ff       	callq  a6f3 <transparent_crc>
   13749:	0f b7 05 7c 84 00 00 	movzwl 0x847c(%rip),%eax        # 1bbcc <g_3232+0xc>
   13750:	48 0f bf c0          	movswq %ax,%rax
   13754:	8b 55 f4             	mov    -0xc(%rbp),%edx
   13757:	48 8d 35 3d 2f 00 00 	lea    0x2f3d(%rip),%rsi        # 1669b <g_2569+0x161b>
   1375e:	48 89 c7             	mov    %rax,%rdi
   13761:	e8 8d 6f ff ff       	callq  a6f3 <transparent_crc>
   13766:	0f b6 05 61 84 00 00 	movzbl 0x8461(%rip),%eax        # 1bbce <g_3232+0xe>
   1376d:	0f b6 c0             	movzbl %al,%eax
   13770:	8b 55 f4             	mov    -0xc(%rbp),%edx
   13773:	48 8d 35 2b 2f 00 00 	lea    0x2f2b(%rip),%rsi        # 166a5 <g_2569+0x1625>
   1377a:	48 89 c7             	mov    %rax,%rdi
   1377d:	e8 71 6f ff ff       	callq  a6f3 <transparent_crc>
   13782:	48 8b 05 47 84 00 00 	mov    0x8447(%rip),%rax        # 1bbd0 <g_3232+0x10>
   13789:	8b 55 f4             	mov    -0xc(%rbp),%edx
   1378c:	48 8d 35 1c 2f 00 00 	lea    0x2f1c(%rip),%rsi        # 166af <g_2569+0x162f>
   13793:	48 89 c7             	mov    %rax,%rdi
   13796:	e8 58 6f ff ff       	callq  a6f3 <transparent_crc>
   1379b:	48 8b 05 36 84 00 00 	mov    0x8436(%rip),%rax        # 1bbd8 <g_3232+0x18>
   137a2:	48 89 c1             	mov    %rax,%rcx
   137a5:	8b 45 f4             	mov    -0xc(%rbp),%eax
   137a8:	89 c2                	mov    %eax,%edx
   137aa:	48 8d 35 08 2f 00 00 	lea    0x2f08(%rip),%rsi        # 166b9 <g_2569+0x1639>
   137b1:	48 89 cf             	mov    %rcx,%rdi
   137b4:	e8 3a 6f ff ff       	callq  a6f3 <transparent_crc>
   137b9:	0f b6 05 20 84 00 00 	movzbl 0x8420(%rip),%eax        # 1bbe0 <g_3232+0x20>
   137c0:	0f b6 c0             	movzbl %al,%eax
   137c3:	8b 55 f4             	mov    -0xc(%rbp),%edx
   137c6:	48 8d 35 f9 2e 00 00 	lea    0x2ef9(%rip),%rsi        # 166c6 <g_2569+0x1646>
   137cd:	48 89 c7             	mov    %rax,%rdi
   137d0:	e8 1e 6f ff ff       	callq  a6f3 <transparent_crc>
   137d5:	48 8b 05 0c 84 00 00 	mov    0x840c(%rip),%rax        # 1bbe8 <g_3232+0x28>
   137dc:	c1 e0 04             	shl    $0x4,%eax
   137df:	c1 f8 04             	sar    $0x4,%eax
   137e2:	48 98                	cltq   
   137e4:	8b 55 f4             	mov    -0xc(%rbp),%edx
   137e7:	48 8d 35 e5 2e 00 00 	lea    0x2ee5(%rip),%rsi        # 166d3 <g_2569+0x1653>
   137ee:	48 89 c7             	mov    %rax,%rdi
   137f1:	e8 fd 6e ff ff       	callq  a6f3 <transparent_crc>
   137f6:	48 8b 05 f3 83 00 00 	mov    0x83f3(%rip),%rax        # 1bbf0 <g_3243>
   137fd:	48 89 c1             	mov    %rax,%rcx
   13800:	8b 45 f4             	mov    -0xc(%rbp),%eax
   13803:	89 c2                	mov    %eax,%edx
   13805:	48 8d 35 d1 2e 00 00 	lea    0x2ed1(%rip),%rsi        # 166dd <g_2569+0x165d>
   1380c:	48 89 cf             	mov    %rcx,%rdi
   1380f:	e8 df 6e ff ff       	callq  a6f3 <transparent_crc>
   13814:	0f b6 05 dd 83 00 00 	movzbl 0x83dd(%rip),%eax        # 1bbf8 <g_3243+0x8>
   1381b:	0f b6 c0             	movzbl %al,%eax
   1381e:	8b 55 f4             	mov    -0xc(%rbp),%edx
   13821:	48 8d 35 bf 2e 00 00 	lea    0x2ebf(%rip),%rsi        # 166e7 <g_2569+0x1667>
   13828:	48 89 c7             	mov    %rax,%rdi
   1382b:	e8 c3 6e ff ff       	callq  a6f3 <transparent_crc>
   13830:	c7 45 e8 00 00 00 00 	movl   $0x0,-0x18(%rbp)
   13837:	e9 f9 03 00 00       	jmpq   13c35 <main+0x2832>
   1383c:	c7 45 ec 00 00 00 00 	movl   $0x0,-0x14(%rbp)
   13843:	e9 df 03 00 00       	jmpq   13c27 <main+0x2824>
   13848:	c7 45 f0 00 00 00 00 	movl   $0x0,-0x10(%rbp)
   1384f:	e9 c5 03 00 00       	jmpq   13c19 <main+0x2816>
   13854:	8b 45 f0             	mov    -0x10(%rbp),%eax
   13857:	48 98                	cltq   
   13859:	8b 55 ec             	mov    -0x14(%rbp),%edx
   1385c:	48 63 f2             	movslq %edx,%rsi
   1385f:	8b 55 e8             	mov    -0x18(%rbp),%edx
   13862:	48 63 ca             	movslq %edx,%rcx
   13865:	48 89 c2             	mov    %rax,%rdx
   13868:	48 01 d2             	add    %rdx,%rdx
   1386b:	48 01 c2             	add    %rax,%rdx
   1386e:	48 89 d0             	mov    %rdx,%rax
   13871:	48 c1 e0 04          	shl    $0x4,%rax
   13875:	48 89 c2             	mov    %rax,%rdx
   13878:	48 89 f0             	mov    %rsi,%rax
   1387b:	48 c1 e0 03          	shl    $0x3,%rax
   1387f:	48 01 f0             	add    %rsi,%rax
   13882:	48 c1 e0 04          	shl    $0x4,%rax
   13886:	48 01 c2             	add    %rax,%rdx
   13889:	48 89 c8             	mov    %rcx,%rax
   1388c:	48 c1 e0 06          	shl    $0x6,%rax
   13890:	48 29 c8             	sub    %rcx,%rax
   13893:	48 c1 e0 04          	shl    $0x4,%rax
   13897:	48 01 c2             	add    %rax,%rdx
   1389a:	48 8d 05 5f 83 00 00 	lea    0x835f(%rip),%rax        # 1bc00 <g_3246>
   138a1:	48 01 d0             	add    %rdx,%rax
   138a4:	8b 00                	mov    (%rax),%eax
   138a6:	89 c1                	mov    %eax,%ecx
   138a8:	8b 45 f4             	mov    -0xc(%rbp),%eax
   138ab:	89 c2                	mov    %eax,%edx
   138ad:	48 8d 35 3d 2e 00 00 	lea    0x2e3d(%rip),%rsi        # 166f1 <g_2569+0x1671>
   138b4:	48 89 cf             	mov    %rcx,%rdi
   138b7:	e8 37 6e ff ff       	callq  a6f3 <transparent_crc>
   138bc:	8b 45 f0             	mov    -0x10(%rbp),%eax
   138bf:	48 98                	cltq   
   138c1:	8b 55 ec             	mov    -0x14(%rbp),%edx
   138c4:	48 63 f2             	movslq %edx,%rsi
   138c7:	8b 55 e8             	mov    -0x18(%rbp),%edx
   138ca:	48 63 ca             	movslq %edx,%rcx
   138cd:	48 89 c2             	mov    %rax,%rdx
   138d0:	48 01 d2             	add    %rdx,%rdx
   138d3:	48 01 c2             	add    %rax,%rdx
   138d6:	48 89 d0             	mov    %rdx,%rax
   138d9:	48 c1 e0 04          	shl    $0x4,%rax
   138dd:	48 89 c2             	mov    %rax,%rdx
   138e0:	48 89 f0             	mov    %rsi,%rax
   138e3:	48 c1 e0 03          	shl    $0x3,%rax
   138e7:	48 01 f0             	add    %rsi,%rax
   138ea:	48 c1 e0 04          	shl    $0x4,%rax
   138ee:	48 01 c2             	add    %rax,%rdx
   138f1:	48 89 c8             	mov    %rcx,%rax
   138f4:	48 c1 e0 06          	shl    $0x6,%rax
   138f8:	48 29 c8             	sub    %rcx,%rax
   138fb:	48 c1 e0 04          	shl    $0x4,%rax
   138ff:	48 01 c2             	add    %rax,%rdx
   13902:	48 8d 05 fb 82 00 00 	lea    0x82fb(%rip),%rax        # 1bc04 <g_3246+0x4>
   13909:	48 01 d0             	add    %rdx,%rax
   1390c:	0f b7 00             	movzwl (%rax),%eax
   1390f:	0f b7 c0             	movzwl %ax,%eax
   13912:	8b 55 f4             	mov    -0xc(%rbp),%edx
   13915:	48 8d 35 e8 2d 00 00 	lea    0x2de8(%rip),%rsi        # 16704 <g_2569+0x1684>
   1391c:	48 89 c7             	mov    %rax,%rdi
   1391f:	e8 cf 6d ff ff       	callq  a6f3 <transparent_crc>
   13924:	8b 45 f0             	mov    -0x10(%rbp),%eax
   13927:	48 98                	cltq   
   13929:	8b 55 ec             	mov    -0x14(%rbp),%edx
   1392c:	48 63 f2             	movslq %edx,%rsi
   1392f:	8b 55 e8             	mov    -0x18(%rbp),%edx
   13932:	48 63 ca             	movslq %edx,%rcx
   13935:	48 89 c2             	mov    %rax,%rdx
   13938:	48 01 d2             	add    %rdx,%rdx
   1393b:	48 01 c2             	add    %rax,%rdx
   1393e:	48 89 d0             	mov    %rdx,%rax
   13941:	48 c1 e0 04          	shl    $0x4,%rax
   13945:	48 89 c2             	mov    %rax,%rdx
   13948:	48 89 f0             	mov    %rsi,%rax
   1394b:	48 c1 e0 03          	shl    $0x3,%rax
   1394f:	48 01 f0             	add    %rsi,%rax
   13952:	48 c1 e0 04          	shl    $0x4,%rax
   13956:	48 01 c2             	add    %rax,%rdx
   13959:	48 89 c8             	mov    %rcx,%rax
   1395c:	48 c1 e0 06          	shl    $0x6,%rax
   13960:	48 29 c8             	sub    %rcx,%rax
   13963:	48 c1 e0 04          	shl    $0x4,%rax
   13967:	48 01 c2             	add    %rax,%rdx
   1396a:	48 8d 05 8f 82 00 00 	lea    0x828f(%rip),%rax        # 1bc00 <g_3246>
   13971:	48 01 d0             	add    %rdx,%rax
   13974:	8b 40 08             	mov    0x8(%rax),%eax
   13977:	25 ff ff 1f 00       	and    $0x1fffff,%eax
   1397c:	89 c1                	mov    %eax,%ecx
   1397e:	8b 45 f4             	mov    -0xc(%rbp),%eax
   13981:	89 c2                	mov    %eax,%edx
   13983:	48 8d 35 8d 2d 00 00 	lea    0x2d8d(%rip),%rsi        # 16717 <g_2569+0x1697>
   1398a:	48 89 cf             	mov    %rcx,%rdi
   1398d:	e8 61 6d ff ff       	callq  a6f3 <transparent_crc>
   13992:	8b 45 f0             	mov    -0x10(%rbp),%eax
   13995:	48 98                	cltq   
   13997:	8b 55 ec             	mov    -0x14(%rbp),%edx
   1399a:	48 63 f2             	movslq %edx,%rsi
   1399d:	8b 55 e8             	mov    -0x18(%rbp),%edx
   139a0:	48 63 ca             	movslq %edx,%rcx
   139a3:	48 89 c2             	mov    %rax,%rdx
   139a6:	48 01 d2             	add    %rdx,%rdx
   139a9:	48 01 c2             	add    %rax,%rdx
   139ac:	48 89 d0             	mov    %rdx,%rax
   139af:	48 c1 e0 04          	shl    $0x4,%rax
   139b3:	48 89 c2             	mov    %rax,%rdx
   139b6:	48 89 f0             	mov    %rsi,%rax
   139b9:	48 c1 e0 03          	shl    $0x3,%rax
   139bd:	48 01 f0             	add    %rsi,%rax
   139c0:	48 c1 e0 04          	shl    $0x4,%rax
   139c4:	48 01 c2             	add    %rax,%rdx
   139c7:	48 89 c8             	mov    %rcx,%rax
   139ca:	48 c1 e0 06          	shl    $0x6,%rax
   139ce:	48 29 c8             	sub    %rcx,%rax
   139d1:	48 c1 e0 04          	shl    $0x4,%rax
   139d5:	48 01 c2             	add    %rax,%rdx
   139d8:	48 8d 05 2d 82 00 00 	lea    0x822d(%rip),%rax        # 1bc0c <g_3246+0xc>
   139df:	48 01 d0             	add    %rdx,%rax
   139e2:	0f b7 00             	movzwl (%rax),%eax
   139e5:	48 0f bf c0          	movswq %ax,%rax
   139e9:	8b 55 f4             	mov    -0xc(%rbp),%edx
   139ec:	48 8d 35 37 2d 00 00 	lea    0x2d37(%rip),%rsi        # 1672a <g_2569+0x16aa>
   139f3:	48 89 c7             	mov    %rax,%rdi
   139f6:	e8 f8 6c ff ff       	callq  a6f3 <transparent_crc>
   139fb:	8b 45 f0             	mov    -0x10(%rbp),%eax
   139fe:	48 98                	cltq   
   13a00:	8b 55 ec             	mov    -0x14(%rbp),%edx
   13a03:	48 63 f2             	movslq %edx,%rsi
   13a06:	8b 55 e8             	mov    -0x18(%rbp),%edx
   13a09:	48 63 ca             	movslq %edx,%rcx
   13a0c:	48 89 c2             	mov    %rax,%rdx
   13a0f:	48 01 d2             	add    %rdx,%rdx
   13a12:	48 01 c2             	add    %rax,%rdx
   13a15:	48 89 d0             	mov    %rdx,%rax
   13a18:	48 c1 e0 04          	shl    $0x4,%rax
   13a1c:	48 89 c2             	mov    %rax,%rdx
   13a1f:	48 89 f0             	mov    %rsi,%rax
   13a22:	48 c1 e0 03          	shl    $0x3,%rax
   13a26:	48 01 f0             	add    %rsi,%rax
   13a29:	48 c1 e0 04          	shl    $0x4,%rax
   13a2d:	48 01 c2             	add    %rax,%rdx
   13a30:	48 89 c8             	mov    %rcx,%rax
   13a33:	48 c1 e0 06          	shl    $0x6,%rax
   13a37:	48 29 c8             	sub    %rcx,%rax
   13a3a:	48 c1 e0 04          	shl    $0x4,%rax
   13a3e:	48 01 c2             	add    %rax,%rdx
   13a41:	48 8d 05 c6 81 00 00 	lea    0x81c6(%rip),%rax        # 1bc0e <g_3246+0xe>
   13a48:	48 01 d0             	add    %rdx,%rax
   13a4b:	0f b6 00             	movzbl (%rax),%eax
   13a4e:	0f b6 c0             	movzbl %al,%eax
   13a51:	8b 55 f4             	mov    -0xc(%rbp),%edx
   13a54:	48 8d 35 e2 2c 00 00 	lea    0x2ce2(%rip),%rsi        # 1673d <g_2569+0x16bd>
   13a5b:	48 89 c7             	mov    %rax,%rdi
   13a5e:	e8 90 6c ff ff       	callq  a6f3 <transparent_crc>
   13a63:	8b 45 f0             	mov    -0x10(%rbp),%eax
   13a66:	48 63 d0             	movslq %eax,%rdx
   13a69:	8b 45 ec             	mov    -0x14(%rbp),%eax
   13a6c:	48 63 c8             	movslq %eax,%rcx
   13a6f:	8b 45 e8             	mov    -0x18(%rbp),%eax
   13a72:	48 63 f0             	movslq %eax,%rsi
   13a75:	48 89 d0             	mov    %rdx,%rax
   13a78:	48 01 c0             	add    %rax,%rax
   13a7b:	48 01 d0             	add    %rdx,%rax
   13a7e:	48 c1 e0 04          	shl    $0x4,%rax
   13a82:	48 89 f2             	mov    %rsi,%rdx
   13a85:	48 c1 e2 06          	shl    $0x6,%rdx
   13a89:	48 29 f2             	sub    %rsi,%rdx
   13a8c:	48 c1 e2 04          	shl    $0x4,%rdx
   13a90:	48 01 c2             	add    %rax,%rdx
   13a93:	48 89 c8             	mov    %rcx,%rax
   13a96:	48 c1 e0 03          	shl    $0x3,%rax
   13a9a:	48 01 c8             	add    %rcx,%rax
   13a9d:	48 c1 e0 04          	shl    $0x4,%rax
   13aa1:	48 01 c2             	add    %rax,%rdx
   13aa4:	48 8d 05 65 81 00 00 	lea    0x8165(%rip),%rax        # 1bc10 <g_3246+0x10>
   13aab:	48 01 d0             	add    %rdx,%rax
   13aae:	48 8b 00             	mov    (%rax),%rax
   13ab1:	8b 55 f4             	mov    -0xc(%rbp),%edx
   13ab4:	48 8d 35 95 2c 00 00 	lea    0x2c95(%rip),%rsi        # 16750 <g_2569+0x16d0>
   13abb:	48 89 c7             	mov    %rax,%rdi
   13abe:	e8 30 6c ff ff       	callq  a6f3 <transparent_crc>
   13ac3:	8b 45 f0             	mov    -0x10(%rbp),%eax
   13ac6:	48 63 d0             	movslq %eax,%rdx
   13ac9:	8b 45 ec             	mov    -0x14(%rbp),%eax
   13acc:	48 63 c8             	movslq %eax,%rcx
   13acf:	8b 45 e8             	mov    -0x18(%rbp),%eax
   13ad2:	48 63 f0             	movslq %eax,%rsi
   13ad5:	48 89 d0             	mov    %rdx,%rax
   13ad8:	48 01 c0             	add    %rax,%rax
   13adb:	48 01 d0             	add    %rdx,%rax
   13ade:	48 c1 e0 04          	shl    $0x4,%rax
   13ae2:	48 89 f2             	mov    %rsi,%rdx
   13ae5:	48 c1 e2 06          	shl    $0x6,%rdx
   13ae9:	48 29 f2             	sub    %rsi,%rdx
   13aec:	48 c1 e2 04          	shl    $0x4,%rdx
   13af0:	48 01 c2             	add    %rax,%rdx
   13af3:	48 89 c8             	mov    %rcx,%rax
   13af6:	48 c1 e0 03          	shl    $0x3,%rax
   13afa:	48 01 c8             	add    %rcx,%rax
   13afd:	48 c1 e0 04          	shl    $0x4,%rax
   13b01:	48 01 c2             	add    %rax,%rdx
   13b04:	48 8d 05 0d 81 00 00 	lea    0x810d(%rip),%rax        # 1bc18 <g_3246+0x18>
   13b0b:	48 01 d0             	add    %rdx,%rax
   13b0e:	48 8b 00             	mov    (%rax),%rax
   13b11:	48 89 c1             	mov    %rax,%rcx
   13b14:	8b 45 f4             	mov    -0xc(%rbp),%eax
   13b17:	89 c2                	mov    %eax,%edx
   13b19:	48 8d 35 43 2c 00 00 	lea    0x2c43(%rip),%rsi        # 16763 <g_2569+0x16e3>
   13b20:	48 89 cf             	mov    %rcx,%rdi
   13b23:	e8 cb 6b ff ff       	callq  a6f3 <transparent_crc>
   13b28:	8b 45 f0             	mov    -0x10(%rbp),%eax
   13b2b:	48 63 d0             	movslq %eax,%rdx
   13b2e:	8b 45 ec             	mov    -0x14(%rbp),%eax
   13b31:	48 63 c8             	movslq %eax,%rcx
   13b34:	8b 45 e8             	mov    -0x18(%rbp),%eax
   13b37:	48 63 f0             	movslq %eax,%rsi
   13b3a:	48 89 d0             	mov    %rdx,%rax
   13b3d:	48 01 c0             	add    %rax,%rax
   13b40:	48 01 d0             	add    %rdx,%rax
   13b43:	48 c1 e0 04          	shl    $0x4,%rax
   13b47:	48 89 f2             	mov    %rsi,%rdx
   13b4a:	48 c1 e2 06          	shl    $0x6,%rdx
   13b4e:	48 29 f2             	sub    %rsi,%rdx
   13b51:	48 c1 e2 04          	shl    $0x4,%rdx
   13b55:	48 01 c2             	add    %rax,%rdx
   13b58:	48 89 c8             	mov    %rcx,%rax
   13b5b:	48 c1 e0 03          	shl    $0x3,%rax
   13b5f:	48 01 c8             	add    %rcx,%rax
   13b62:	48 c1 e0 04          	shl    $0x4,%rax
   13b66:	48 01 c2             	add    %rax,%rdx
   13b69:	48 8d 05 b0 80 00 00 	lea    0x80b0(%rip),%rax        # 1bc20 <g_3246+0x20>
   13b70:	48 01 d0             	add    %rdx,%rax
   13b73:	0f b6 00             	movzbl (%rax),%eax
   13b76:	0f b6 c0             	movzbl %al,%eax
   13b79:	8b 55 f4             	mov    -0xc(%rbp),%edx
   13b7c:	48 8d 35 f6 2b 00 00 	lea    0x2bf6(%rip),%rsi        # 16779 <g_2569+0x16f9>
   13b83:	48 89 c7             	mov    %rax,%rdi
   13b86:	e8 68 6b ff ff       	callq  a6f3 <transparent_crc>
   13b8b:	8b 45 f0             	mov    -0x10(%rbp),%eax
   13b8e:	48 63 d0             	movslq %eax,%rdx
   13b91:	8b 45 ec             	mov    -0x14(%rbp),%eax
   13b94:	48 63 c8             	movslq %eax,%rcx
   13b97:	8b 45 e8             	mov    -0x18(%rbp),%eax
   13b9a:	48 63 f0             	movslq %eax,%rsi
   13b9d:	48 89 d0             	mov    %rdx,%rax
   13ba0:	48 01 c0             	add    %rax,%rax
   13ba3:	48 01 d0             	add    %rdx,%rax
   13ba6:	48 c1 e0 04          	shl    $0x4,%rax
   13baa:	48 89 f2             	mov    %rsi,%rdx
   13bad:	48 c1 e2 06          	shl    $0x6,%rdx
   13bb1:	48 29 f2             	sub    %rsi,%rdx
   13bb4:	48 c1 e2 04          	shl    $0x4,%rdx
   13bb8:	48 01 c2             	add    %rax,%rdx
   13bbb:	48 89 c8             	mov    %rcx,%rax
   13bbe:	48 c1 e0 03          	shl    $0x3,%rax
   13bc2:	48 01 c8             	add    %rcx,%rax
   13bc5:	48 c1 e0 04          	shl    $0x4,%rax
   13bc9:	48 01 c2             	add    %rax,%rdx
   13bcc:	48 8d 05 4d 80 00 00 	lea    0x804d(%rip),%rax        # 1bc20 <g_3246+0x20>
   13bd3:	48 01 d0             	add    %rdx,%rax
   13bd6:	8b 40 08             	mov    0x8(%rax),%eax
   13bd9:	c1 e0 04             	shl    $0x4,%eax
   13bdc:	c1 f8 04             	sar    $0x4,%eax
   13bdf:	48 98                	cltq   
   13be1:	8b 55 f4             	mov    -0xc(%rbp),%edx
   13be4:	48 8d 35 a4 2b 00 00 	lea    0x2ba4(%rip),%rsi        # 1678f <g_2569+0x170f>
   13beb:	48 89 c7             	mov    %rax,%rdi
   13bee:	e8 00 6b ff ff       	callq  a6f3 <transparent_crc>
   13bf3:	83 7d f4 00          	cmpl   $0x0,-0xc(%rbp)
   13bf7:	74 1c                	je     13c15 <main+0x2812>
   13bf9:	8b 4d f0             	mov    -0x10(%rbp),%ecx
   13bfc:	8b 55 ec             	mov    -0x14(%rbp),%edx
   13bff:	8b 45 e8             	mov    -0x18(%rbp),%eax
   13c02:	89 c6                	mov    %eax,%esi
   13c04:	48 8d 3d e4 21 00 00 	lea    0x21e4(%rip),%rdi        # 15def <g_2569+0xd6f>
   13c0b:	b8 00 00 00 00       	mov    $0x0,%eax
   13c10:	e8 6b 54 ff ff       	callq  9080 <printf@plt>
   13c15:	83 45 f0 01          	addl   $0x1,-0x10(%rbp)
   13c19:	83 7d f0 02          	cmpl   $0x2,-0x10(%rbp)
   13c1d:	0f 8e 31 fc ff ff    	jle    13854 <main+0x2451>
   13c23:	83 45 ec 01          	addl   $0x1,-0x14(%rbp)
   13c27:	83 7d ec 06          	cmpl   $0x6,-0x14(%rbp)
   13c2b:	0f 8e 17 fc ff ff    	jle    13848 <main+0x2445>
   13c31:	83 45 e8 01          	addl   $0x1,-0x18(%rbp)
   13c35:	83 7d e8 02          	cmpl   $0x2,-0x18(%rbp)
   13c39:	0f 8e fd fb ff ff    	jle    1383c <main+0x2439>
   13c3f:	8b 05 9b 8b 00 00    	mov    0x8b9b(%rip),%eax        # 1c7e0 <g_3260>
   13c45:	89 c1                	mov    %eax,%ecx
   13c47:	8b 45 f4             	mov    -0xc(%rbp),%eax
   13c4a:	89 c2                	mov    %eax,%edx
   13c4c:	48 8d 35 4f 2b 00 00 	lea    0x2b4f(%rip),%rsi        # 167a2 <g_2569+0x1722>
   13c53:	48 89 cf             	mov    %rcx,%rdi
   13c56:	e8 98 6a ff ff       	callq  a6f3 <transparent_crc>
   13c5b:	0f b7 05 82 8b 00 00 	movzwl 0x8b82(%rip),%eax        # 1c7e4 <g_3260+0x4>
   13c62:	0f b7 c0             	movzwl %ax,%eax
   13c65:	8b 55 f4             	mov    -0xc(%rbp),%edx
   13c68:	48 8d 35 3d 2b 00 00 	lea    0x2b3d(%rip),%rsi        # 167ac <g_2569+0x172c>
   13c6f:	48 89 c7             	mov    %rax,%rdi
   13c72:	e8 7c 6a ff ff       	callq  a6f3 <transparent_crc>
   13c77:	8b 05 6b 8b 00 00    	mov    0x8b6b(%rip),%eax        # 1c7e8 <g_3260+0x8>
   13c7d:	25 ff ff 1f 00       	and    $0x1fffff,%eax
   13c82:	89 c1                	mov    %eax,%ecx
   13c84:	8b 45 f4             	mov    -0xc(%rbp),%eax
   13c87:	89 c2                	mov    %eax,%edx
   13c89:	48 8d 35 26 2b 00 00 	lea    0x2b26(%rip),%rsi        # 167b6 <g_2569+0x1736>
   13c90:	48 89 cf             	mov    %rcx,%rdi
   13c93:	e8 5b 6a ff ff       	callq  a6f3 <transparent_crc>
   13c98:	0f b7 05 4d 8b 00 00 	movzwl 0x8b4d(%rip),%eax        # 1c7ec <g_3260+0xc>
   13c9f:	48 0f bf c0          	movswq %ax,%rax
   13ca3:	8b 55 f4             	mov    -0xc(%rbp),%edx
   13ca6:	48 8d 35 13 2b 00 00 	lea    0x2b13(%rip),%rsi        # 167c0 <g_2569+0x1740>
   13cad:	48 89 c7             	mov    %rax,%rdi
   13cb0:	e8 3e 6a ff ff       	callq  a6f3 <transparent_crc>
   13cb5:	0f b6 05 32 8b 00 00 	movzbl 0x8b32(%rip),%eax        # 1c7ee <g_3260+0xe>
   13cbc:	0f b6 c0             	movzbl %al,%eax
   13cbf:	8b 55 f4             	mov    -0xc(%rbp),%edx
   13cc2:	48 8d 35 01 2b 00 00 	lea    0x2b01(%rip),%rsi        # 167ca <g_2569+0x174a>
   13cc9:	48 89 c7             	mov    %rax,%rdi
   13ccc:	e8 22 6a ff ff       	callq  a6f3 <transparent_crc>
   13cd1:	48 8b 05 18 8b 00 00 	mov    0x8b18(%rip),%rax        # 1c7f0 <g_3260+0x10>
   13cd8:	8b 55 f4             	mov    -0xc(%rbp),%edx
   13cdb:	48 8d 35 f2 2a 00 00 	lea    0x2af2(%rip),%rsi        # 167d4 <g_2569+0x1754>
   13ce2:	48 89 c7             	mov    %rax,%rdi
   13ce5:	e8 09 6a ff ff       	callq  a6f3 <transparent_crc>
   13cea:	48 8b 05 07 8b 00 00 	mov    0x8b07(%rip),%rax        # 1c7f8 <g_3260+0x18>
   13cf1:	48 89 c1             	mov    %rax,%rcx
   13cf4:	8b 45 f4             	mov    -0xc(%rbp),%eax
   13cf7:	89 c2                	mov    %eax,%edx
   13cf9:	48 8d 35 de 2a 00 00 	lea    0x2ade(%rip),%rsi        # 167de <g_2569+0x175e>
   13d00:	48 89 cf             	mov    %rcx,%rdi
   13d03:	e8 eb 69 ff ff       	callq  a6f3 <transparent_crc>
   13d08:	0f b6 05 f1 8a 00 00 	movzbl 0x8af1(%rip),%eax        # 1c800 <g_3260+0x20>
   13d0f:	0f b6 c0             	movzbl %al,%eax
   13d12:	8b 55 f4             	mov    -0xc(%rbp),%edx
   13d15:	48 8d 35 cf 2a 00 00 	lea    0x2acf(%rip),%rsi        # 167eb <g_2569+0x176b>
   13d1c:	48 89 c7             	mov    %rax,%rdi
   13d1f:	e8 cf 69 ff ff       	callq  a6f3 <transparent_crc>
   13d24:	8b 05 de 8a 00 00    	mov    0x8ade(%rip),%eax        # 1c808 <g_3260+0x28>
   13d2a:	c1 e0 04             	shl    $0x4,%eax
   13d2d:	c1 f8 04             	sar    $0x4,%eax
   13d30:	48 98                	cltq   
   13d32:	8b 55 f4             	mov    -0xc(%rbp),%edx
   13d35:	48 8d 35 bc 2a 00 00 	lea    0x2abc(%rip),%rsi        # 167f8 <g_2569+0x1778>
   13d3c:	48 89 c7             	mov    %rax,%rdi
   13d3f:	e8 af 69 ff ff       	callq  a6f3 <transparent_crc>
   13d44:	48 8b 05 c5 8a 00 00 	mov    0x8ac5(%rip),%rax        # 1c810 <g_3321>
   13d4b:	48 89 c1             	mov    %rax,%rcx
   13d4e:	8b 45 f4             	mov    -0xc(%rbp),%eax
   13d51:	89 c2                	mov    %eax,%edx
   13d53:	48 8d 35 a8 2a 00 00 	lea    0x2aa8(%rip),%rsi        # 16802 <g_2569+0x1782>
   13d5a:	48 89 cf             	mov    %rcx,%rdi
   13d5d:	e8 91 69 ff ff       	callq  a6f3 <transparent_crc>
   13d62:	0f b6 05 af 8a 00 00 	movzbl 0x8aaf(%rip),%eax        # 1c818 <g_3321+0x8>
   13d69:	0f b6 c0             	movzbl %al,%eax
   13d6c:	8b 55 f4             	mov    -0xc(%rbp),%edx
   13d6f:	48 8d 35 96 2a 00 00 	lea    0x2a96(%rip),%rsi        # 1680c <g_2569+0x178c>
   13d76:	48 89 c7             	mov    %rax,%rdi
   13d79:	e8 75 69 ff ff       	callq  a6f3 <transparent_crc>
   13d7e:	0f b7 05 9b 8a 00 00 	movzwl 0x8a9b(%rip),%eax        # 1c820 <g_3365>
   13d85:	48 0f bf c0          	movswq %ax,%rax
   13d89:	8b 55 f4             	mov    -0xc(%rbp),%edx
   13d8c:	48 8d 35 83 2a 00 00 	lea    0x2a83(%rip),%rsi        # 16816 <g_2569+0x1796>
   13d93:	48 89 c7             	mov    %rax,%rdi
   13d96:	e8 58 69 ff ff       	callq  a6f3 <transparent_crc>
   13d9b:	c7 45 e8 00 00 00 00 	movl   $0x0,-0x18(%rbp)
   13da2:	e9 ea 00 00 00       	jmpq   13e91 <main+0x2a8e>
   13da7:	c7 45 ec 00 00 00 00 	movl   $0x0,-0x14(%rbp)
   13dae:	e9 d0 00 00 00       	jmpq   13e83 <main+0x2a80>
   13db3:	c7 45 f0 00 00 00 00 	movl   $0x0,-0x10(%rbp)
   13dba:	e9 b6 00 00 00       	jmpq   13e75 <main+0x2a72>
   13dbf:	8b 45 f0             	mov    -0x10(%rbp),%eax
   13dc2:	48 63 c8             	movslq %eax,%rcx
   13dc5:	8b 45 e8             	mov    -0x18(%rbp),%eax
   13dc8:	48 63 d0             	movslq %eax,%rdx
   13dcb:	8b 45 ec             	mov    -0x14(%rbp),%eax
   13dce:	48 98                	cltq   
   13dd0:	48 01 c2             	add    %rax,%rdx
   13dd3:	48 89 d0             	mov    %rdx,%rax
   13dd6:	48 01 c0             	add    %rax,%rax
   13dd9:	48 01 d0             	add    %rdx,%rax
   13ddc:	48 01 c8             	add    %rcx,%rax
   13ddf:	48 c1 e0 04          	shl    $0x4,%rax
   13de3:	48 89 c2             	mov    %rax,%rdx
   13de6:	48 8d 05 53 8a 00 00 	lea    0x8a53(%rip),%rax        # 1c840 <g_3379>
   13ded:	48 8b 04 02          	mov    (%rdx,%rax,1),%rax
   13df1:	48 89 c1             	mov    %rax,%rcx
   13df4:	8b 45 f4             	mov    -0xc(%rbp),%eax
   13df7:	89 c2                	mov    %eax,%edx
   13df9:	48 8d 35 1d 2a 00 00 	lea    0x2a1d(%rip),%rsi        # 1681d <g_2569+0x179d>
   13e00:	48 89 cf             	mov    %rcx,%rdi
   13e03:	e8 eb 68 ff ff       	callq  a6f3 <transparent_crc>
   13e08:	8b 45 f0             	mov    -0x10(%rbp),%eax
   13e0b:	48 63 c8             	movslq %eax,%rcx
   13e0e:	8b 45 e8             	mov    -0x18(%rbp),%eax
   13e11:	48 63 d0             	movslq %eax,%rdx
   13e14:	8b 45 ec             	mov    -0x14(%rbp),%eax
   13e17:	48 98                	cltq   
   13e19:	48 01 c2             	add    %rax,%rdx
   13e1c:	48 89 d0             	mov    %rdx,%rax
   13e1f:	48 01 c0             	add    %rax,%rax
   13e22:	48 01 d0             	add    %rdx,%rax
   13e25:	48 01 c8             	add    %rcx,%rax
   13e28:	48 c1 e0 04          	shl    $0x4,%rax
   13e2c:	48 89 c2             	mov    %rax,%rdx
   13e2f:	48 8d 05 12 8a 00 00 	lea    0x8a12(%rip),%rax        # 1c848 <g_3379+0x8>
   13e36:	0f b6 04 02          	movzbl (%rdx,%rax,1),%eax
   13e3a:	0f b6 c0             	movzbl %al,%eax
   13e3d:	8b 55 f4             	mov    -0xc(%rbp),%edx
   13e40:	48 8d 35 e9 29 00 00 	lea    0x29e9(%rip),%rsi        # 16830 <g_2569+0x17b0>
   13e47:	48 89 c7             	mov    %rax,%rdi
   13e4a:	e8 a4 68 ff ff       	callq  a6f3 <transparent_crc>
   13e4f:	83 7d f4 00          	cmpl   $0x0,-0xc(%rbp)
   13e53:	74 1c                	je     13e71 <main+0x2a6e>
   13e55:	8b 4d f0             	mov    -0x10(%rbp),%ecx
   13e58:	8b 55 ec             	mov    -0x14(%rbp),%edx
   13e5b:	8b 45 e8             	mov    -0x18(%rbp),%eax
   13e5e:	89 c6                	mov    %eax,%esi
   13e60:	48 8d 3d 88 1f 00 00 	lea    0x1f88(%rip),%rdi        # 15def <g_2569+0xd6f>
   13e67:	b8 00 00 00 00       	mov    $0x0,%eax
   13e6c:	e8 0f 52 ff ff       	callq  9080 <printf@plt>
   13e71:	83 45 f0 01          	addl   $0x1,-0x10(%rbp)
   13e75:	83 7d f0 02          	cmpl   $0x2,-0x10(%rbp)
   13e79:	0f 8e 40 ff ff ff    	jle    13dbf <main+0x29bc>
   13e7f:	83 45 ec 01          	addl   $0x1,-0x14(%rbp)
   13e83:	83 7d ec 00          	cmpl   $0x0,-0x14(%rbp)
   13e87:	0f 8e 26 ff ff ff    	jle    13db3 <main+0x29b0>
   13e8d:	83 45 e8 01          	addl   $0x1,-0x18(%rbp)
   13e91:	83 7d e8 00          	cmpl   $0x0,-0x18(%rbp)
   13e95:	0f 8e 0c ff ff ff    	jle    13da7 <main+0x29a4>
   13e9b:	8b 05 df 89 00 00    	mov    0x89df(%rip),%eax        # 1c880 <g_3381>
   13ea1:	89 c1                	mov    %eax,%ecx
   13ea3:	8b 45 f4             	mov    -0xc(%rbp),%eax
   13ea6:	89 c2                	mov    %eax,%edx
   13ea8:	48 8d 35 94 29 00 00 	lea    0x2994(%rip),%rsi        # 16843 <g_2569+0x17c3>
   13eaf:	48 89 cf             	mov    %rcx,%rdi
   13eb2:	e8 3c 68 ff ff       	callq  a6f3 <transparent_crc>
   13eb7:	0f b7 05 c6 89 00 00 	movzwl 0x89c6(%rip),%eax        # 1c884 <g_3381+0x4>
   13ebe:	0f b7 c0             	movzwl %ax,%eax
   13ec1:	8b 55 f4             	mov    -0xc(%rbp),%edx
   13ec4:	48 8d 35 82 29 00 00 	lea    0x2982(%rip),%rsi        # 1684d <g_2569+0x17cd>
   13ecb:	48 89 c7             	mov    %rax,%rdi
   13ece:	e8 20 68 ff ff       	callq  a6f3 <transparent_crc>
   13ed3:	8b 05 af 89 00 00    	mov    0x89af(%rip),%eax        # 1c888 <g_3381+0x8>
   13ed9:	25 ff ff 1f 00       	and    $0x1fffff,%eax
   13ede:	89 c1                	mov    %eax,%ecx
   13ee0:	8b 45 f4             	mov    -0xc(%rbp),%eax
   13ee3:	89 c2                	mov    %eax,%edx
   13ee5:	48 8d 35 6b 29 00 00 	lea    0x296b(%rip),%rsi        # 16857 <g_2569+0x17d7>
   13eec:	48 89 cf             	mov    %rcx,%rdi
   13eef:	e8 ff 67 ff ff       	callq  a6f3 <transparent_crc>
   13ef4:	0f b7 05 91 89 00 00 	movzwl 0x8991(%rip),%eax        # 1c88c <g_3381+0xc>
   13efb:	48 0f bf c0          	movswq %ax,%rax
   13eff:	8b 55 f4             	mov    -0xc(%rbp),%edx
   13f02:	48 8d 35 58 29 00 00 	lea    0x2958(%rip),%rsi        # 16861 <g_2569+0x17e1>
   13f09:	48 89 c7             	mov    %rax,%rdi
   13f0c:	e8 e2 67 ff ff       	callq  a6f3 <transparent_crc>
   13f11:	0f b6 05 76 89 00 00 	movzbl 0x8976(%rip),%eax        # 1c88e <g_3381+0xe>
   13f18:	0f b6 c0             	movzbl %al,%eax
   13f1b:	8b 55 f4             	mov    -0xc(%rbp),%edx
   13f1e:	48 8d 35 46 29 00 00 	lea    0x2946(%rip),%rsi        # 1686b <g_2569+0x17eb>
   13f25:	48 89 c7             	mov    %rax,%rdi
   13f28:	e8 c6 67 ff ff       	callq  a6f3 <transparent_crc>
   13f2d:	48 8b 05 5c 89 00 00 	mov    0x895c(%rip),%rax        # 1c890 <g_3381+0x10>
   13f34:	8b 55 f4             	mov    -0xc(%rbp),%edx
   13f37:	48 8d 35 37 29 00 00 	lea    0x2937(%rip),%rsi        # 16875 <g_2569+0x17f5>
   13f3e:	48 89 c7             	mov    %rax,%rdi
   13f41:	e8 ad 67 ff ff       	callq  a6f3 <transparent_crc>
   13f46:	48 8b 05 4b 89 00 00 	mov    0x894b(%rip),%rax        # 1c898 <g_3381+0x18>
   13f4d:	48 89 c1             	mov    %rax,%rcx
   13f50:	8b 45 f4             	mov    -0xc(%rbp),%eax
   13f53:	89 c2                	mov    %eax,%edx
   13f55:	48 8d 35 23 29 00 00 	lea    0x2923(%rip),%rsi        # 1687f <g_2569+0x17ff>
   13f5c:	48 89 cf             	mov    %rcx,%rdi
   13f5f:	e8 8f 67 ff ff       	callq  a6f3 <transparent_crc>
   13f64:	0f b6 05 35 89 00 00 	movzbl 0x8935(%rip),%eax        # 1c8a0 <g_3381+0x20>
   13f6b:	0f b6 c0             	movzbl %al,%eax
   13f6e:	8b 55 f4             	mov    -0xc(%rbp),%edx
   13f71:	48 8d 35 14 29 00 00 	lea    0x2914(%rip),%rsi        # 1688c <g_2569+0x180c>
   13f78:	48 89 c7             	mov    %rax,%rdi
   13f7b:	e8 73 67 ff ff       	callq  a6f3 <transparent_crc>
   13f80:	8b 05 22 89 00 00    	mov    0x8922(%rip),%eax        # 1c8a8 <g_3381+0x28>
   13f86:	c1 e0 04             	shl    $0x4,%eax
   13f89:	c1 f8 04             	sar    $0x4,%eax
   13f8c:	48 98                	cltq   
   13f8e:	8b 55 f4             	mov    -0xc(%rbp),%edx
   13f91:	48 8d 35 01 29 00 00 	lea    0x2901(%rip),%rsi        # 16899 <g_2569+0x1819>
   13f98:	48 89 c7             	mov    %rax,%rdi
   13f9b:	e8 53 67 ff ff       	callq  a6f3 <transparent_crc>
   13fa0:	8b 05 7a 60 00 00    	mov    0x607a(%rip),%eax        # 1a020 <crc32_context>
   13fa6:	f7 d0                	not    %eax
   13fa8:	89 c2                	mov    %eax,%edx
   13faa:	8b 45 f4             	mov    -0xc(%rbp),%eax
   13fad:	89 c6                	mov    %eax,%esi
   13faf:	89 d7                	mov    %edx,%edi
   13fb1:	e8 de 51 ff ff       	callq  9194 <platform_main_end>
   13fb6:	b8 00 00 00 00       	mov    $0x0,%eax
   13fbb:	48 8b 4d f8          	mov    -0x8(%rbp),%rcx
   13fbf:	64 48 33 0c 25 28 00 	xor    %fs:0x28,%rcx
   13fc6:	00 00 
   13fc8:	74 05                	je     13fcf <main+0x2bcc>
   13fca:	e8 a1 50 ff ff       	callq  9070 <__stack_chk_fail@plt>
   13fcf:	c9                   	leaveq 
   13fd0:	c3                   	retq   
   13fd1:	66 2e 0f 1f 84 00 00 	nopw   %cs:0x0(%rax,%rax,1)
   13fd8:	00 00 00 
   13fdb:	0f 1f 44 00 00       	nopl   0x0(%rax,%rax,1)

0000000000013fe0 <__libc_csu_init>:
   13fe0:	f3 0f 1e fa          	endbr64 
   13fe4:	41 57                	push   %r15
   13fe6:	4c 8d 3d e3 5b 00 00 	lea    0x5be3(%rip),%r15        # 19bd0 <__frame_dummy_init_array_entry>
   13fed:	41 56                	push   %r14
   13fef:	49 89 d6             	mov    %rdx,%r14
   13ff2:	41 55                	push   %r13
   13ff4:	49 89 f5             	mov    %rsi,%r13
   13ff7:	41 54                	push   %r12
   13ff9:	41 89 fc             	mov    %edi,%r12d
   13ffc:	55                   	push   %rbp
   13ffd:	48 8d 2d d4 5b 00 00 	lea    0x5bd4(%rip),%rbp        # 19bd8 <__do_global_dtors_aux_fini_array_entry>
   14004:	53                   	push   %rbx
   14005:	4c 29 fd             	sub    %r15,%rbp
   14008:	48 83 ec 08          	sub    $0x8,%rsp
   1400c:	e8 ef 4f ff ff       	callq  9000 <_init>
   14011:	48 c1 fd 03          	sar    $0x3,%rbp
   14015:	74 1f                	je     14036 <__libc_csu_init+0x56>
   14017:	31 db                	xor    %ebx,%ebx
   14019:	0f 1f 80 00 00 00 00 	nopl   0x0(%rax)
   14020:	4c 89 f2             	mov    %r14,%rdx
   14023:	4c 89 ee             	mov    %r13,%rsi
   14026:	44 89 e7             	mov    %r12d,%edi
   14029:	41 ff 14 df          	callq  *(%r15,%rbx,8)
   1402d:	48 83 c3 01          	add    $0x1,%rbx
   14031:	48 39 dd             	cmp    %rbx,%rbp
   14034:	75 ea                	jne    14020 <__libc_csu_init+0x40>
   14036:	48 83 c4 08          	add    $0x8,%rsp
   1403a:	5b                   	pop    %rbx
   1403b:	5d                   	pop    %rbp
   1403c:	41 5c                	pop    %r12
   1403e:	41 5d                	pop    %r13
   14040:	41 5e                	pop    %r14
   14042:	41 5f                	pop    %r15
   14044:	c3                   	retq   
   14045:	66 66 2e 0f 1f 84 00 	data16 nopw %cs:0x0(%rax,%rax,1)
   1404c:	00 00 00 00 

0000000000014050 <__libc_csu_fini>:
   14050:	f3 0f 1e fa          	endbr64 
   14054:	c3                   	retq   
