


Disassembly of section .text:

00000000000070c0 <_start>:
    70c0:	f3 0f 1e fa          	endbr64 
    70c4:	31 ed                	xor    %ebp,%ebp
    70c6:	49 89 d1             	mov    %rdx,%r9
    70c9:	5e                   	pop    %rsi
    70ca:	48 89 e2             	mov    %rsp,%rdx
    70cd:	48 83 e4 f0          	and    $0xfffffffffffffff0,%rsp
    70d1:	50                   	push   %rax
    70d2:	54                   	push   %rsp
    70d3:	4c 8d 05 c6 d0 00 00 	lea    0xd0c6(%rip),%r8        # 141a0 <__libc_csu_fini>
    70da:	48 8d 0d 4f d0 00 00 	lea    0xd04f(%rip),%rcx        # 14130 <__libc_csu_init>
    70e1:	48 8d 3d 16 b3 00 00 	lea    0xb316(%rip),%rdi        # 123fe <main>
    70e8:	ff 15 f2 5e 01 00    	callq  *0x15ef2(%rip)        # 1cfe0 <__libc_start_main@GLIBC_2.2.5>
    70ee:	f4                   	hlt    
    70ef:	90                   	nop

00000000000070f0 <deregister_tm_clones>:
    70f0:	48 8d 3d b9 9b 01 00 	lea    0x19bb9(%rip),%rdi        # 20cb0 <__TMC_END__>
    70f7:	48 8d 05 b2 9b 01 00 	lea    0x19bb2(%rip),%rax        # 20cb0 <__TMC_END__>
    70fe:	48 39 f8             	cmp    %rdi,%rax
    7101:	74 15                	je     7118 <deregister_tm_clones+0x28>
    7103:	48 8b 05 ce 5e 01 00 	mov    0x15ece(%rip),%rax        # 1cfd8 <_ITM_deregisterTMCloneTable>
    710a:	48 85 c0             	test   %rax,%rax
    710d:	74 09                	je     7118 <deregister_tm_clones+0x28>
    710f:	ff e0                	jmpq   *%rax
    7111:	0f 1f 80 00 00 00 00 	nopl   0x0(%rax)
    7118:	c3                   	retq   
    7119:	0f 1f 80 00 00 00 00 	nopl   0x0(%rax)

0000000000007120 <register_tm_clones>:
    7120:	48 8d 3d 89 9b 01 00 	lea    0x19b89(%rip),%rdi        # 20cb0 <__TMC_END__>
    7127:	48 8d 35 82 9b 01 00 	lea    0x19b82(%rip),%rsi        # 20cb0 <__TMC_END__>
    712e:	48 29 fe             	sub    %rdi,%rsi
    7131:	48 89 f0             	mov    %rsi,%rax
    7134:	48 c1 ee 3f          	shr    $0x3f,%rsi
    7138:	48 c1 f8 03          	sar    $0x3,%rax
    713c:	48 01 c6             	add    %rax,%rsi
    713f:	48 d1 fe             	sar    %rsi
    7142:	74 14                	je     7158 <register_tm_clones+0x38>
    7144:	48 8b 05 a5 5e 01 00 	mov    0x15ea5(%rip),%rax        # 1cff0 <_ITM_registerTMCloneTable>
    714b:	48 85 c0             	test   %rax,%rax
    714e:	74 08                	je     7158 <register_tm_clones+0x38>
    7150:	ff e0                	jmpq   *%rax
    7152:	66 0f 1f 44 00 00    	nopw   0x0(%rax,%rax,1)
    7158:	c3                   	retq   
    7159:	0f 1f 80 00 00 00 00 	nopl   0x0(%rax)

0000000000007160 <__do_global_dtors_aux>:
    7160:	f3 0f 1e fa          	endbr64 
    7164:	80 3d 55 9b 01 00 00 	cmpb   $0x0,0x19b55(%rip)        # 20cc0 <completed.8061>
    716b:	75 2b                	jne    7198 <__do_global_dtors_aux+0x38>
    716d:	55                   	push   %rbp
    716e:	48 83 3d 82 5e 01 00 	cmpq   $0x0,0x15e82(%rip)        # 1cff8 <__cxa_finalize@GLIBC_2.2.5>
    7175:	00 
    7176:	48 89 e5             	mov    %rsp,%rbp
    7179:	74 0c                	je     7187 <__do_global_dtors_aux+0x27>
    717b:	48 8b 3d 86 5e 01 00 	mov    0x15e86(%rip),%rdi        # 1d008 <__dso_handle>
    7182:	e8 e9 fe ff ff       	callq  7070 <__cxa_finalize@plt>
    7187:	e8 64 ff ff ff       	callq  70f0 <deregister_tm_clones>
    718c:	c6 05 2d 9b 01 00 01 	movb   $0x1,0x19b2d(%rip)        # 20cc0 <completed.8061>
    7193:	5d                   	pop    %rbp
    7194:	c3                   	retq   
    7195:	0f 1f 00             	nopl   (%rax)
    7198:	c3                   	retq   
    7199:	0f 1f 80 00 00 00 00 	nopl   0x0(%rax)

00000000000071a0 <frame_dummy>:
    71a0:	f3 0f 1e fa          	endbr64 
    71a4:	e9 77 ff ff ff       	jmpq   7120 <register_tm_clones>

00000000000071a9 <platform_main_begin>:
    71a9:	f3 0f 1e fa          	endbr64 
    71ad:	55                   	push   %rbp
    71ae:	48 89 e5             	mov    %rsp,%rbp
    71b1:	90                   	nop
    71b2:	5d                   	pop    %rbp
    71b3:	c3                   	retq   

00000000000071b4 <platform_main_end>:
    71b4:	f3 0f 1e fa          	endbr64 
    71b8:	55                   	push   %rbp
    71b9:	48 89 e5             	mov    %rsp,%rbp
    71bc:	48 83 ec 10          	sub    $0x10,%rsp
    71c0:	89 7d fc             	mov    %edi,-0x4(%rbp)
    71c3:	89 75 f8             	mov    %esi,-0x8(%rbp)
    71c6:	8b 45 fc             	mov    -0x4(%rbp),%eax
    71c9:	89 c6                	mov    %eax,%esi
    71cb:	48 8d 3d 4e de 00 00 	lea    0xde4e(%rip),%rdi        # 15020 <_IO_stdin_used+0x20>
    71d2:	b8 00 00 00 00       	mov    $0x0,%eax
    71d7:	e8 b4 fe ff ff       	callq  7090 <printf@plt>
    71dc:	90                   	nop
    71dd:	c9                   	leaveq 
    71de:	c3                   	retq   

00000000000071df <safe_unary_minus_func_int8_t_s>:
    71df:	f3 0f 1e fa          	endbr64 
    71e3:	55                   	push   %rbp
    71e4:	48 89 e5             	mov    %rsp,%rbp
    71e7:	89 f8                	mov    %edi,%eax
    71e9:	88 45 fc             	mov    %al,-0x4(%rbp)
    71ec:	0f b6 45 fc          	movzbl -0x4(%rbp),%eax
    71f0:	f7 d8                	neg    %eax
    71f2:	5d                   	pop    %rbp
    71f3:	c3                   	retq   

00000000000071f4 <safe_add_func_int8_t_s_s>:
    71f4:	f3 0f 1e fa          	endbr64 
    71f8:	55                   	push   %rbp
    71f9:	48 89 e5             	mov    %rsp,%rbp
    71fc:	89 fa                	mov    %edi,%edx
    71fe:	89 f0                	mov    %esi,%eax
    7200:	88 55 fc             	mov    %dl,-0x4(%rbp)
    7203:	88 45 f8             	mov    %al,-0x8(%rbp)
    7206:	0f b6 55 fc          	movzbl -0x4(%rbp),%edx
    720a:	0f b6 45 f8          	movzbl -0x8(%rbp),%eax
    720e:	01 d0                	add    %edx,%eax
    7210:	5d                   	pop    %rbp
    7211:	c3                   	retq   

0000000000007212 <safe_sub_func_int8_t_s_s>:
    7212:	f3 0f 1e fa          	endbr64 
    7216:	55                   	push   %rbp
    7217:	48 89 e5             	mov    %rsp,%rbp
    721a:	89 fa                	mov    %edi,%edx
    721c:	89 f0                	mov    %esi,%eax
    721e:	88 55 fc             	mov    %dl,-0x4(%rbp)
    7221:	88 45 f8             	mov    %al,-0x8(%rbp)
    7224:	0f b6 55 fc          	movzbl -0x4(%rbp),%edx
    7228:	0f b6 45 f8          	movzbl -0x8(%rbp),%eax
    722c:	29 c2                	sub    %eax,%edx
    722e:	89 d0                	mov    %edx,%eax
    7230:	5d                   	pop    %rbp
    7231:	c3                   	retq   

0000000000007232 <safe_mul_func_int8_t_s_s>:
    7232:	f3 0f 1e fa          	endbr64 
    7236:	55                   	push   %rbp
    7237:	48 89 e5             	mov    %rsp,%rbp
    723a:	89 fa                	mov    %edi,%edx
    723c:	89 f0                	mov    %esi,%eax
    723e:	88 55 fc             	mov    %dl,-0x4(%rbp)
    7241:	88 45 f8             	mov    %al,-0x8(%rbp)
    7244:	0f b6 45 fc          	movzbl -0x4(%rbp),%eax
    7248:	0f b6 55 f8          	movzbl -0x8(%rbp),%edx
    724c:	0f af c2             	imul   %edx,%eax
    724f:	5d                   	pop    %rbp
    7250:	c3                   	retq   

0000000000007251 <safe_mod_func_int8_t_s_s>:
    7251:	f3 0f 1e fa          	endbr64 
    7255:	55                   	push   %rbp
    7256:	48 89 e5             	mov    %rsp,%rbp
    7259:	89 fa                	mov    %edi,%edx
    725b:	89 f0                	mov    %esi,%eax
    725d:	88 55 fc             	mov    %dl,-0x4(%rbp)
    7260:	88 45 f8             	mov    %al,-0x8(%rbp)
    7263:	80 7d f8 00          	cmpb   $0x0,-0x8(%rbp)
    7267:	74 1b                	je     7284 <safe_mod_func_int8_t_s_s+0x33>
    7269:	80 7d fc 80          	cmpb   $0x80,-0x4(%rbp)
    726d:	75 06                	jne    7275 <safe_mod_func_int8_t_s_s+0x24>
    726f:	80 7d f8 ff          	cmpb   $0xff,-0x8(%rbp)
    7273:	74 0f                	je     7284 <safe_mod_func_int8_t_s_s+0x33>
    7275:	0f be 45 fc          	movsbl -0x4(%rbp),%eax
    7279:	0f be 4d f8          	movsbl -0x8(%rbp),%ecx
    727d:	99                   	cltd   
    727e:	f7 f9                	idiv   %ecx
    7280:	89 d0                	mov    %edx,%eax
    7282:	eb 04                	jmp    7288 <safe_mod_func_int8_t_s_s+0x37>
    7284:	0f b6 45 fc          	movzbl -0x4(%rbp),%eax
    7288:	5d                   	pop    %rbp
    7289:	c3                   	retq   

000000000000728a <safe_div_func_int8_t_s_s>:
    728a:	f3 0f 1e fa          	endbr64 
    728e:	55                   	push   %rbp
    728f:	48 89 e5             	mov    %rsp,%rbp
    7292:	89 fa                	mov    %edi,%edx
    7294:	89 f0                	mov    %esi,%eax
    7296:	88 55 fc             	mov    %dl,-0x4(%rbp)
    7299:	88 45 f8             	mov    %al,-0x8(%rbp)
    729c:	80 7d f8 00          	cmpb   $0x0,-0x8(%rbp)
    72a0:	74 19                	je     72bb <safe_div_func_int8_t_s_s+0x31>
    72a2:	80 7d fc 80          	cmpb   $0x80,-0x4(%rbp)
    72a6:	75 06                	jne    72ae <safe_div_func_int8_t_s_s+0x24>
    72a8:	80 7d f8 ff          	cmpb   $0xff,-0x8(%rbp)
    72ac:	74 0d                	je     72bb <safe_div_func_int8_t_s_s+0x31>
    72ae:	0f be 45 fc          	movsbl -0x4(%rbp),%eax
    72b2:	0f be 4d f8          	movsbl -0x8(%rbp),%ecx
    72b6:	99                   	cltd   
    72b7:	f7 f9                	idiv   %ecx
    72b9:	eb 04                	jmp    72bf <safe_div_func_int8_t_s_s+0x35>
    72bb:	0f b6 45 fc          	movzbl -0x4(%rbp),%eax
    72bf:	5d                   	pop    %rbp
    72c0:	c3                   	retq   

00000000000072c1 <safe_lshift_func_int8_t_s_s>:
    72c1:	f3 0f 1e fa          	endbr64 
    72c5:	55                   	push   %rbp
    72c6:	48 89 e5             	mov    %rsp,%rbp
    72c9:	89 f8                	mov    %edi,%eax
    72cb:	89 75 f8             	mov    %esi,-0x8(%rbp)
    72ce:	88 45 fc             	mov    %al,-0x4(%rbp)
    72d1:	80 7d fc 00          	cmpb   $0x0,-0x4(%rbp)
    72d5:	78 31                	js     7308 <safe_lshift_func_int8_t_s_s+0x47>
    72d7:	83 7d f8 00          	cmpl   $0x0,-0x8(%rbp)
    72db:	78 2b                	js     7308 <safe_lshift_func_int8_t_s_s+0x47>
    72dd:	83 7d f8 1f          	cmpl   $0x1f,-0x8(%rbp)
    72e1:	7f 25                	jg     7308 <safe_lshift_func_int8_t_s_s+0x47>
    72e3:	0f be 55 fc          	movsbl -0x4(%rbp),%edx
    72e7:	8b 45 f8             	mov    -0x8(%rbp),%eax
    72ea:	be 7f 00 00 00       	mov    $0x7f,%esi
    72ef:	89 c1                	mov    %eax,%ecx
    72f1:	d3 fe                	sar    %cl,%esi
    72f3:	89 f0                	mov    %esi,%eax
    72f5:	39 c2                	cmp    %eax,%edx
    72f7:	7f 0f                	jg     7308 <safe_lshift_func_int8_t_s_s+0x47>
    72f9:	0f be 55 fc          	movsbl -0x4(%rbp),%edx
    72fd:	8b 45 f8             	mov    -0x8(%rbp),%eax
    7300:	89 c1                	mov    %eax,%ecx
    7302:	d3 e2                	shl    %cl,%edx
    7304:	89 d0                	mov    %edx,%eax
    7306:	eb 04                	jmp    730c <safe_lshift_func_int8_t_s_s+0x4b>
    7308:	0f b6 45 fc          	movzbl -0x4(%rbp),%eax
    730c:	5d                   	pop    %rbp
    730d:	c3                   	retq   

000000000000730e <safe_lshift_func_int8_t_s_u>:
    730e:	f3 0f 1e fa          	endbr64 
    7312:	55                   	push   %rbp
    7313:	48 89 e5             	mov    %rsp,%rbp
    7316:	89 f8                	mov    %edi,%eax
    7318:	89 75 f8             	mov    %esi,-0x8(%rbp)
    731b:	88 45 fc             	mov    %al,-0x4(%rbp)
    731e:	80 7d fc 00          	cmpb   $0x0,-0x4(%rbp)
    7322:	78 2b                	js     734f <safe_lshift_func_int8_t_s_u+0x41>
    7324:	83 7d f8 1f          	cmpl   $0x1f,-0x8(%rbp)
    7328:	77 25                	ja     734f <safe_lshift_func_int8_t_s_u+0x41>
    732a:	0f be 55 fc          	movsbl -0x4(%rbp),%edx
    732e:	8b 45 f8             	mov    -0x8(%rbp),%eax
    7331:	be 7f 00 00 00       	mov    $0x7f,%esi
    7336:	89 c1                	mov    %eax,%ecx
    7338:	d3 fe                	sar    %cl,%esi
    733a:	89 f0                	mov    %esi,%eax
    733c:	39 c2                	cmp    %eax,%edx
    733e:	7f 0f                	jg     734f <safe_lshift_func_int8_t_s_u+0x41>
    7340:	0f be 55 fc          	movsbl -0x4(%rbp),%edx
    7344:	8b 45 f8             	mov    -0x8(%rbp),%eax
    7347:	89 c1                	mov    %eax,%ecx
    7349:	d3 e2                	shl    %cl,%edx
    734b:	89 d0                	mov    %edx,%eax
    734d:	eb 04                	jmp    7353 <safe_lshift_func_int8_t_s_u+0x45>
    734f:	0f b6 45 fc          	movzbl -0x4(%rbp),%eax
    7353:	5d                   	pop    %rbp
    7354:	c3                   	retq   

0000000000007355 <safe_rshift_func_int8_t_s_s>:
    7355:	f3 0f 1e fa          	endbr64 
    7359:	55                   	push   %rbp
    735a:	48 89 e5             	mov    %rsp,%rbp
    735d:	89 f8                	mov    %edi,%eax
    735f:	89 75 f8             	mov    %esi,-0x8(%rbp)
    7362:	88 45 fc             	mov    %al,-0x4(%rbp)
    7365:	80 7d fc 00          	cmpb   $0x0,-0x4(%rbp)
    7369:	78 1b                	js     7386 <safe_rshift_func_int8_t_s_s+0x31>
    736b:	83 7d f8 00          	cmpl   $0x0,-0x8(%rbp)
    736f:	78 15                	js     7386 <safe_rshift_func_int8_t_s_s+0x31>
    7371:	83 7d f8 1f          	cmpl   $0x1f,-0x8(%rbp)
    7375:	7f 0f                	jg     7386 <safe_rshift_func_int8_t_s_s+0x31>
    7377:	0f be 55 fc          	movsbl -0x4(%rbp),%edx
    737b:	8b 45 f8             	mov    -0x8(%rbp),%eax
    737e:	89 c1                	mov    %eax,%ecx
    7380:	d3 fa                	sar    %cl,%edx
    7382:	89 d0                	mov    %edx,%eax
    7384:	eb 04                	jmp    738a <safe_rshift_func_int8_t_s_s+0x35>
    7386:	0f b6 45 fc          	movzbl -0x4(%rbp),%eax
    738a:	5d                   	pop    %rbp
    738b:	c3                   	retq   

000000000000738c <safe_rshift_func_int8_t_s_u>:
    738c:	f3 0f 1e fa          	endbr64 
    7390:	55                   	push   %rbp
    7391:	48 89 e5             	mov    %rsp,%rbp
    7394:	89 f8                	mov    %edi,%eax
    7396:	89 75 f8             	mov    %esi,-0x8(%rbp)
    7399:	88 45 fc             	mov    %al,-0x4(%rbp)
    739c:	80 7d fc 00          	cmpb   $0x0,-0x4(%rbp)
    73a0:	78 15                	js     73b7 <safe_rshift_func_int8_t_s_u+0x2b>
    73a2:	83 7d f8 1f          	cmpl   $0x1f,-0x8(%rbp)
    73a6:	77 0f                	ja     73b7 <safe_rshift_func_int8_t_s_u+0x2b>
    73a8:	0f be 55 fc          	movsbl -0x4(%rbp),%edx
    73ac:	8b 45 f8             	mov    -0x8(%rbp),%eax
    73af:	89 c1                	mov    %eax,%ecx
    73b1:	d3 fa                	sar    %cl,%edx
    73b3:	89 d0                	mov    %edx,%eax
    73b5:	eb 04                	jmp    73bb <safe_rshift_func_int8_t_s_u+0x2f>
    73b7:	0f b6 45 fc          	movzbl -0x4(%rbp),%eax
    73bb:	5d                   	pop    %rbp
    73bc:	c3                   	retq   

00000000000073bd <safe_unary_minus_func_int16_t_s>:
    73bd:	f3 0f 1e fa          	endbr64 
    73c1:	55                   	push   %rbp
    73c2:	48 89 e5             	mov    %rsp,%rbp
    73c5:	89 f8                	mov    %edi,%eax
    73c7:	66 89 45 fc          	mov    %ax,-0x4(%rbp)
    73cb:	0f b7 45 fc          	movzwl -0x4(%rbp),%eax
    73cf:	f7 d8                	neg    %eax
    73d1:	5d                   	pop    %rbp
    73d2:	c3                   	retq   

00000000000073d3 <safe_add_func_int16_t_s_s>:
    73d3:	f3 0f 1e fa          	endbr64 
    73d7:	55                   	push   %rbp
    73d8:	48 89 e5             	mov    %rsp,%rbp
    73db:	89 fa                	mov    %edi,%edx
    73dd:	89 f0                	mov    %esi,%eax
    73df:	66 89 55 fc          	mov    %dx,-0x4(%rbp)
    73e3:	66 89 45 f8          	mov    %ax,-0x8(%rbp)
    73e7:	0f b7 55 fc          	movzwl -0x4(%rbp),%edx
    73eb:	0f b7 45 f8          	movzwl -0x8(%rbp),%eax
    73ef:	01 d0                	add    %edx,%eax
    73f1:	5d                   	pop    %rbp
    73f2:	c3                   	retq   

00000000000073f3 <safe_sub_func_int16_t_s_s>:
    73f3:	f3 0f 1e fa          	endbr64 
    73f7:	55                   	push   %rbp
    73f8:	48 89 e5             	mov    %rsp,%rbp
    73fb:	89 fa                	mov    %edi,%edx
    73fd:	89 f0                	mov    %esi,%eax
    73ff:	66 89 55 fc          	mov    %dx,-0x4(%rbp)
    7403:	66 89 45 f8          	mov    %ax,-0x8(%rbp)
    7407:	0f b7 55 fc          	movzwl -0x4(%rbp),%edx
    740b:	0f b7 45 f8          	movzwl -0x8(%rbp),%eax
    740f:	29 c2                	sub    %eax,%edx
    7411:	89 d0                	mov    %edx,%eax
    7413:	5d                   	pop    %rbp
    7414:	c3                   	retq   

0000000000007415 <safe_mul_func_int16_t_s_s>:
    7415:	f3 0f 1e fa          	endbr64 
    7419:	55                   	push   %rbp
    741a:	48 89 e5             	mov    %rsp,%rbp
    741d:	89 fa                	mov    %edi,%edx
    741f:	89 f0                	mov    %esi,%eax
    7421:	66 89 55 fc          	mov    %dx,-0x4(%rbp)
    7425:	66 89 45 f8          	mov    %ax,-0x8(%rbp)
    7429:	0f b7 55 fc          	movzwl -0x4(%rbp),%edx
    742d:	0f b7 45 f8          	movzwl -0x8(%rbp),%eax
    7431:	0f af c2             	imul   %edx,%eax
    7434:	5d                   	pop    %rbp
    7435:	c3                   	retq   

0000000000007436 <safe_mod_func_int16_t_s_s>:
    7436:	f3 0f 1e fa          	endbr64 
    743a:	55                   	push   %rbp
    743b:	48 89 e5             	mov    %rsp,%rbp
    743e:	89 fa                	mov    %edi,%edx
    7440:	89 f0                	mov    %esi,%eax
    7442:	66 89 55 fc          	mov    %dx,-0x4(%rbp)
    7446:	66 89 45 f8          	mov    %ax,-0x8(%rbp)
    744a:	66 83 7d f8 00       	cmpw   $0x0,-0x8(%rbp)
    744f:	74 1e                	je     746f <safe_mod_func_int16_t_s_s+0x39>
    7451:	66 81 7d fc 00 80    	cmpw   $0x8000,-0x4(%rbp)
    7457:	75 07                	jne    7460 <safe_mod_func_int16_t_s_s+0x2a>
    7459:	66 83 7d f8 ff       	cmpw   $0xffff,-0x8(%rbp)
    745e:	74 0f                	je     746f <safe_mod_func_int16_t_s_s+0x39>
    7460:	0f bf 45 fc          	movswl -0x4(%rbp),%eax
    7464:	0f bf 4d f8          	movswl -0x8(%rbp),%ecx
    7468:	99                   	cltd   
    7469:	f7 f9                	idiv   %ecx
    746b:	89 d0                	mov    %edx,%eax
    746d:	eb 04                	jmp    7473 <safe_mod_func_int16_t_s_s+0x3d>
    746f:	0f b7 45 fc          	movzwl -0x4(%rbp),%eax
    7473:	5d                   	pop    %rbp
    7474:	c3                   	retq   

0000000000007475 <safe_div_func_int16_t_s_s>:
    7475:	f3 0f 1e fa          	endbr64 
    7479:	55                   	push   %rbp
    747a:	48 89 e5             	mov    %rsp,%rbp
    747d:	89 fa                	mov    %edi,%edx
    747f:	89 f0                	mov    %esi,%eax
    7481:	66 89 55 fc          	mov    %dx,-0x4(%rbp)
    7485:	66 89 45 f8          	mov    %ax,-0x8(%rbp)
    7489:	66 83 7d f8 00       	cmpw   $0x0,-0x8(%rbp)
    748e:	74 1c                	je     74ac <safe_div_func_int16_t_s_s+0x37>
    7490:	66 81 7d fc 00 80    	cmpw   $0x8000,-0x4(%rbp)
    7496:	75 07                	jne    749f <safe_div_func_int16_t_s_s+0x2a>
    7498:	66 83 7d f8 ff       	cmpw   $0xffff,-0x8(%rbp)
    749d:	74 0d                	je     74ac <safe_div_func_int16_t_s_s+0x37>
    749f:	0f bf 45 fc          	movswl -0x4(%rbp),%eax
    74a3:	0f bf 4d f8          	movswl -0x8(%rbp),%ecx
    74a7:	99                   	cltd   
    74a8:	f7 f9                	idiv   %ecx
    74aa:	eb 04                	jmp    74b0 <safe_div_func_int16_t_s_s+0x3b>
    74ac:	0f b7 45 fc          	movzwl -0x4(%rbp),%eax
    74b0:	5d                   	pop    %rbp
    74b1:	c3                   	retq   

00000000000074b2 <safe_lshift_func_int16_t_s_s>:
    74b2:	f3 0f 1e fa          	endbr64 
    74b6:	55                   	push   %rbp
    74b7:	48 89 e5             	mov    %rsp,%rbp
    74ba:	89 f8                	mov    %edi,%eax
    74bc:	89 75 f8             	mov    %esi,-0x8(%rbp)
    74bf:	66 89 45 fc          	mov    %ax,-0x4(%rbp)
    74c3:	66 83 7d fc 00       	cmpw   $0x0,-0x4(%rbp)
    74c8:	78 31                	js     74fb <safe_lshift_func_int16_t_s_s+0x49>
    74ca:	83 7d f8 00          	cmpl   $0x0,-0x8(%rbp)
    74ce:	78 2b                	js     74fb <safe_lshift_func_int16_t_s_s+0x49>
    74d0:	83 7d f8 1f          	cmpl   $0x1f,-0x8(%rbp)
    74d4:	7f 25                	jg     74fb <safe_lshift_func_int16_t_s_s+0x49>
    74d6:	0f bf 55 fc          	movswl -0x4(%rbp),%edx
    74da:	8b 45 f8             	mov    -0x8(%rbp),%eax
    74dd:	be ff 7f 00 00       	mov    $0x7fff,%esi
    74e2:	89 c1                	mov    %eax,%ecx
    74e4:	d3 fe                	sar    %cl,%esi
    74e6:	89 f0                	mov    %esi,%eax
    74e8:	39 c2                	cmp    %eax,%edx
    74ea:	7f 0f                	jg     74fb <safe_lshift_func_int16_t_s_s+0x49>
    74ec:	0f bf 55 fc          	movswl -0x4(%rbp),%edx
    74f0:	8b 45 f8             	mov    -0x8(%rbp),%eax
    74f3:	89 c1                	mov    %eax,%ecx
    74f5:	d3 e2                	shl    %cl,%edx
    74f7:	89 d0                	mov    %edx,%eax
    74f9:	eb 04                	jmp    74ff <safe_lshift_func_int16_t_s_s+0x4d>
    74fb:	0f b7 45 fc          	movzwl -0x4(%rbp),%eax
    74ff:	5d                   	pop    %rbp
    7500:	c3                   	retq   

0000000000007501 <safe_lshift_func_int16_t_s_u>:
    7501:	f3 0f 1e fa          	endbr64 
    7505:	55                   	push   %rbp
    7506:	48 89 e5             	mov    %rsp,%rbp
    7509:	89 f8                	mov    %edi,%eax
    750b:	89 75 f8             	mov    %esi,-0x8(%rbp)
    750e:	66 89 45 fc          	mov    %ax,-0x4(%rbp)
    7512:	66 83 7d fc 00       	cmpw   $0x0,-0x4(%rbp)
    7517:	78 2b                	js     7544 <safe_lshift_func_int16_t_s_u+0x43>
    7519:	83 7d f8 1f          	cmpl   $0x1f,-0x8(%rbp)
    751d:	77 25                	ja     7544 <safe_lshift_func_int16_t_s_u+0x43>
    751f:	0f bf 55 fc          	movswl -0x4(%rbp),%edx
    7523:	8b 45 f8             	mov    -0x8(%rbp),%eax
    7526:	be ff 7f 00 00       	mov    $0x7fff,%esi
    752b:	89 c1                	mov    %eax,%ecx
    752d:	d3 fe                	sar    %cl,%esi
    752f:	89 f0                	mov    %esi,%eax
    7531:	39 c2                	cmp    %eax,%edx
    7533:	7f 0f                	jg     7544 <safe_lshift_func_int16_t_s_u+0x43>
    7535:	0f bf 55 fc          	movswl -0x4(%rbp),%edx
    7539:	8b 45 f8             	mov    -0x8(%rbp),%eax
    753c:	89 c1                	mov    %eax,%ecx
    753e:	d3 e2                	shl    %cl,%edx
    7540:	89 d0                	mov    %edx,%eax
    7542:	eb 04                	jmp    7548 <safe_lshift_func_int16_t_s_u+0x47>
    7544:	0f b7 45 fc          	movzwl -0x4(%rbp),%eax
    7548:	5d                   	pop    %rbp
    7549:	c3                   	retq   

000000000000754a <safe_rshift_func_int16_t_s_s>:
    754a:	f3 0f 1e fa          	endbr64 
    754e:	55                   	push   %rbp
    754f:	48 89 e5             	mov    %rsp,%rbp
    7552:	89 f8                	mov    %edi,%eax
    7554:	89 75 f8             	mov    %esi,-0x8(%rbp)
    7557:	66 89 45 fc          	mov    %ax,-0x4(%rbp)
    755b:	66 83 7d fc 00       	cmpw   $0x0,-0x4(%rbp)
    7560:	78 1b                	js     757d <safe_rshift_func_int16_t_s_s+0x33>
    7562:	83 7d f8 00          	cmpl   $0x0,-0x8(%rbp)
    7566:	78 15                	js     757d <safe_rshift_func_int16_t_s_s+0x33>
    7568:	83 7d f8 1f          	cmpl   $0x1f,-0x8(%rbp)
    756c:	7f 0f                	jg     757d <safe_rshift_func_int16_t_s_s+0x33>
    756e:	0f bf 55 fc          	movswl -0x4(%rbp),%edx
    7572:	8b 45 f8             	mov    -0x8(%rbp),%eax
    7575:	89 c1                	mov    %eax,%ecx
    7577:	d3 fa                	sar    %cl,%edx
    7579:	89 d0                	mov    %edx,%eax
    757b:	eb 04                	jmp    7581 <safe_rshift_func_int16_t_s_s+0x37>
    757d:	0f b7 45 fc          	movzwl -0x4(%rbp),%eax
    7581:	5d                   	pop    %rbp
    7582:	c3                   	retq   

0000000000007583 <safe_rshift_func_int16_t_s_u>:
    7583:	f3 0f 1e fa          	endbr64 
    7587:	55                   	push   %rbp
    7588:	48 89 e5             	mov    %rsp,%rbp
    758b:	89 f8                	mov    %edi,%eax
    758d:	89 75 f8             	mov    %esi,-0x8(%rbp)
    7590:	66 89 45 fc          	mov    %ax,-0x4(%rbp)
    7594:	66 83 7d fc 00       	cmpw   $0x0,-0x4(%rbp)
    7599:	78 15                	js     75b0 <safe_rshift_func_int16_t_s_u+0x2d>
    759b:	83 7d f8 1f          	cmpl   $0x1f,-0x8(%rbp)
    759f:	77 0f                	ja     75b0 <safe_rshift_func_int16_t_s_u+0x2d>
    75a1:	0f bf 55 fc          	movswl -0x4(%rbp),%edx
    75a5:	8b 45 f8             	mov    -0x8(%rbp),%eax
    75a8:	89 c1                	mov    %eax,%ecx
    75aa:	d3 fa                	sar    %cl,%edx
    75ac:	89 d0                	mov    %edx,%eax
    75ae:	eb 04                	jmp    75b4 <safe_rshift_func_int16_t_s_u+0x31>
    75b0:	0f b7 45 fc          	movzwl -0x4(%rbp),%eax
    75b4:	5d                   	pop    %rbp
    75b5:	c3                   	retq   

00000000000075b6 <safe_unary_minus_func_int32_t_s>:
    75b6:	f3 0f 1e fa          	endbr64 
    75ba:	55                   	push   %rbp
    75bb:	48 89 e5             	mov    %rsp,%rbp
    75be:	89 7d fc             	mov    %edi,-0x4(%rbp)
    75c1:	81 7d fc 00 00 00 80 	cmpl   $0x80000000,-0x4(%rbp)
    75c8:	74 07                	je     75d1 <safe_unary_minus_func_int32_t_s+0x1b>
    75ca:	8b 45 fc             	mov    -0x4(%rbp),%eax
    75cd:	f7 d8                	neg    %eax
    75cf:	eb 03                	jmp    75d4 <safe_unary_minus_func_int32_t_s+0x1e>
    75d1:	8b 45 fc             	mov    -0x4(%rbp),%eax
    75d4:	5d                   	pop    %rbp
    75d5:	c3                   	retq   

00000000000075d6 <safe_add_func_int32_t_s_s>:
    75d6:	f3 0f 1e fa          	endbr64 
    75da:	55                   	push   %rbp
    75db:	48 89 e5             	mov    %rsp,%rbp
    75de:	89 7d fc             	mov    %edi,-0x4(%rbp)
    75e1:	89 75 f8             	mov    %esi,-0x8(%rbp)
    75e4:	83 7d fc 00          	cmpl   $0x0,-0x4(%rbp)
    75e8:	7e 13                	jle    75fd <safe_add_func_int32_t_s_s+0x27>
    75ea:	83 7d f8 00          	cmpl   $0x0,-0x8(%rbp)
    75ee:	7e 0d                	jle    75fd <safe_add_func_int32_t_s_s+0x27>
    75f0:	b8 ff ff ff 7f       	mov    $0x7fffffff,%eax
    75f5:	2b 45 f8             	sub    -0x8(%rbp),%eax
    75f8:	39 45 fc             	cmp    %eax,-0x4(%rbp)
    75fb:	7f 23                	jg     7620 <safe_add_func_int32_t_s_s+0x4a>
    75fd:	83 7d fc 00          	cmpl   $0x0,-0x4(%rbp)
    7601:	79 13                	jns    7616 <safe_add_func_int32_t_s_s+0x40>
    7603:	83 7d f8 00          	cmpl   $0x0,-0x8(%rbp)
    7607:	79 0d                	jns    7616 <safe_add_func_int32_t_s_s+0x40>
    7609:	b8 00 00 00 80       	mov    $0x80000000,%eax
    760e:	2b 45 f8             	sub    -0x8(%rbp),%eax
    7611:	39 45 fc             	cmp    %eax,-0x4(%rbp)
    7614:	7c 0a                	jl     7620 <safe_add_func_int32_t_s_s+0x4a>
    7616:	8b 55 fc             	mov    -0x4(%rbp),%edx
    7619:	8b 45 f8             	mov    -0x8(%rbp),%eax
    761c:	01 d0                	add    %edx,%eax
    761e:	eb 03                	jmp    7623 <safe_add_func_int32_t_s_s+0x4d>
    7620:	8b 45 fc             	mov    -0x4(%rbp),%eax
    7623:	5d                   	pop    %rbp
    7624:	c3                   	retq   

0000000000007625 <safe_sub_func_int32_t_s_s>:
    7625:	f3 0f 1e fa          	endbr64 
    7629:	55                   	push   %rbp
    762a:	48 89 e5             	mov    %rsp,%rbp
    762d:	89 7d fc             	mov    %edi,-0x4(%rbp)
    7630:	89 75 f8             	mov    %esi,-0x8(%rbp)
    7633:	8b 45 fc             	mov    -0x4(%rbp),%eax
    7636:	33 45 f8             	xor    -0x8(%rbp),%eax
    7639:	89 c2                	mov    %eax,%edx
    763b:	8b 45 fc             	mov    -0x4(%rbp),%eax
    763e:	33 45 f8             	xor    -0x8(%rbp),%eax
    7641:	25 00 00 00 80       	and    $0x80000000,%eax
    7646:	33 45 fc             	xor    -0x4(%rbp),%eax
    7649:	2b 45 f8             	sub    -0x8(%rbp),%eax
    764c:	33 45 f8             	xor    -0x8(%rbp),%eax
    764f:	21 d0                	and    %edx,%eax
    7651:	85 c0                	test   %eax,%eax
    7653:	78 08                	js     765d <safe_sub_func_int32_t_s_s+0x38>
    7655:	8b 45 fc             	mov    -0x4(%rbp),%eax
    7658:	2b 45 f8             	sub    -0x8(%rbp),%eax
    765b:	eb 03                	jmp    7660 <safe_sub_func_int32_t_s_s+0x3b>
    765d:	8b 45 fc             	mov    -0x4(%rbp),%eax
    7660:	5d                   	pop    %rbp
    7661:	c3                   	retq   

0000000000007662 <safe_mul_func_int32_t_s_s>:
    7662:	f3 0f 1e fa          	endbr64 
    7666:	55                   	push   %rbp
    7667:	48 89 e5             	mov    %rsp,%rbp
    766a:	89 7d fc             	mov    %edi,-0x4(%rbp)
    766d:	89 75 f8             	mov    %esi,-0x8(%rbp)
    7670:	83 7d fc 00          	cmpl   $0x0,-0x4(%rbp)
    7674:	7e 14                	jle    768a <safe_mul_func_int32_t_s_s+0x28>
    7676:	83 7d f8 00          	cmpl   $0x0,-0x8(%rbp)
    767a:	7e 0e                	jle    768a <safe_mul_func_int32_t_s_s+0x28>
    767c:	b8 ff ff ff 7f       	mov    $0x7fffffff,%eax
    7681:	99                   	cltd   
    7682:	f7 7d f8             	idivl  -0x8(%rbp)
    7685:	39 45 fc             	cmp    %eax,-0x4(%rbp)
    7688:	7f 5d                	jg     76e7 <safe_mul_func_int32_t_s_s+0x85>
    768a:	83 7d fc 00          	cmpl   $0x0,-0x4(%rbp)
    768e:	7e 14                	jle    76a4 <safe_mul_func_int32_t_s_s+0x42>
    7690:	83 7d f8 00          	cmpl   $0x0,-0x8(%rbp)
    7694:	7f 0e                	jg     76a4 <safe_mul_func_int32_t_s_s+0x42>
    7696:	b8 00 00 00 80       	mov    $0x80000000,%eax
    769b:	99                   	cltd   
    769c:	f7 7d fc             	idivl  -0x4(%rbp)
    769f:	39 45 f8             	cmp    %eax,-0x8(%rbp)
    76a2:	7c 43                	jl     76e7 <safe_mul_func_int32_t_s_s+0x85>
    76a4:	83 7d fc 00          	cmpl   $0x0,-0x4(%rbp)
    76a8:	7f 14                	jg     76be <safe_mul_func_int32_t_s_s+0x5c>
    76aa:	83 7d f8 00          	cmpl   $0x0,-0x8(%rbp)
    76ae:	7e 0e                	jle    76be <safe_mul_func_int32_t_s_s+0x5c>
    76b0:	b8 00 00 00 80       	mov    $0x80000000,%eax
    76b5:	99                   	cltd   
    76b6:	f7 7d f8             	idivl  -0x8(%rbp)
    76b9:	39 45 fc             	cmp    %eax,-0x4(%rbp)
    76bc:	7c 29                	jl     76e7 <safe_mul_func_int32_t_s_s+0x85>
    76be:	83 7d fc 00          	cmpl   $0x0,-0x4(%rbp)
    76c2:	7f 1a                	jg     76de <safe_mul_func_int32_t_s_s+0x7c>
    76c4:	83 7d f8 00          	cmpl   $0x0,-0x8(%rbp)
    76c8:	7f 14                	jg     76de <safe_mul_func_int32_t_s_s+0x7c>
    76ca:	83 7d fc 00          	cmpl   $0x0,-0x4(%rbp)
    76ce:	74 0e                	je     76de <safe_mul_func_int32_t_s_s+0x7c>
    76d0:	b8 ff ff ff 7f       	mov    $0x7fffffff,%eax
    76d5:	99                   	cltd   
    76d6:	f7 7d fc             	idivl  -0x4(%rbp)
    76d9:	39 45 f8             	cmp    %eax,-0x8(%rbp)
    76dc:	7c 09                	jl     76e7 <safe_mul_func_int32_t_s_s+0x85>
    76de:	8b 45 fc             	mov    -0x4(%rbp),%eax
    76e1:	0f af 45 f8          	imul   -0x8(%rbp),%eax
    76e5:	eb 03                	jmp    76ea <safe_mul_func_int32_t_s_s+0x88>
    76e7:	8b 45 fc             	mov    -0x4(%rbp),%eax
    76ea:	5d                   	pop    %rbp
    76eb:	c3                   	retq   

00000000000076ec <safe_mod_func_int32_t_s_s>:
    76ec:	f3 0f 1e fa          	endbr64 
    76f0:	55                   	push   %rbp
    76f1:	48 89 e5             	mov    %rsp,%rbp
    76f4:	89 7d fc             	mov    %edi,-0x4(%rbp)
    76f7:	89 75 f8             	mov    %esi,-0x8(%rbp)
    76fa:	83 7d f8 00          	cmpl   $0x0,-0x8(%rbp)
    76fe:	74 1a                	je     771a <safe_mod_func_int32_t_s_s+0x2e>
    7700:	81 7d fc 00 00 00 80 	cmpl   $0x80000000,-0x4(%rbp)
    7707:	75 06                	jne    770f <safe_mod_func_int32_t_s_s+0x23>
    7709:	83 7d f8 ff          	cmpl   $0xffffffff,-0x8(%rbp)
    770d:	74 0b                	je     771a <safe_mod_func_int32_t_s_s+0x2e>
    770f:	8b 45 fc             	mov    -0x4(%rbp),%eax
    7712:	99                   	cltd   
    7713:	f7 7d f8             	idivl  -0x8(%rbp)
    7716:	89 d0                	mov    %edx,%eax
    7718:	eb 03                	jmp    771d <safe_mod_func_int32_t_s_s+0x31>
    771a:	8b 45 fc             	mov    -0x4(%rbp),%eax
    771d:	5d                   	pop    %rbp
    771e:	c3                   	retq   

000000000000771f <safe_div_func_int32_t_s_s>:
    771f:	f3 0f 1e fa          	endbr64 
    7723:	55                   	push   %rbp
    7724:	48 89 e5             	mov    %rsp,%rbp
    7727:	89 7d fc             	mov    %edi,-0x4(%rbp)
    772a:	89 75 f8             	mov    %esi,-0x8(%rbp)
    772d:	83 7d f8 00          	cmpl   $0x0,-0x8(%rbp)
    7731:	74 18                	je     774b <safe_div_func_int32_t_s_s+0x2c>
    7733:	81 7d fc 00 00 00 80 	cmpl   $0x80000000,-0x4(%rbp)
    773a:	75 06                	jne    7742 <safe_div_func_int32_t_s_s+0x23>
    773c:	83 7d f8 ff          	cmpl   $0xffffffff,-0x8(%rbp)
    7740:	74 09                	je     774b <safe_div_func_int32_t_s_s+0x2c>
    7742:	8b 45 fc             	mov    -0x4(%rbp),%eax
    7745:	99                   	cltd   
    7746:	f7 7d f8             	idivl  -0x8(%rbp)
    7749:	eb 03                	jmp    774e <safe_div_func_int32_t_s_s+0x2f>
    774b:	8b 45 fc             	mov    -0x4(%rbp),%eax
    774e:	5d                   	pop    %rbp
    774f:	c3                   	retq   

0000000000007750 <safe_lshift_func_int32_t_s_s>:
    7750:	f3 0f 1e fa          	endbr64 
    7754:	55                   	push   %rbp
    7755:	48 89 e5             	mov    %rsp,%rbp
    7758:	89 7d fc             	mov    %edi,-0x4(%rbp)
    775b:	89 75 f8             	mov    %esi,-0x8(%rbp)
    775e:	83 7d fc 00          	cmpl   $0x0,-0x4(%rbp)
    7762:	78 2d                	js     7791 <safe_lshift_func_int32_t_s_s+0x41>
    7764:	83 7d f8 00          	cmpl   $0x0,-0x8(%rbp)
    7768:	78 27                	js     7791 <safe_lshift_func_int32_t_s_s+0x41>
    776a:	83 7d f8 1f          	cmpl   $0x1f,-0x8(%rbp)
    776e:	7f 21                	jg     7791 <safe_lshift_func_int32_t_s_s+0x41>
    7770:	8b 45 f8             	mov    -0x8(%rbp),%eax
    7773:	ba ff ff ff 7f       	mov    $0x7fffffff,%edx
    7778:	89 c1                	mov    %eax,%ecx
    777a:	d3 fa                	sar    %cl,%edx
    777c:	89 d0                	mov    %edx,%eax
    777e:	39 45 fc             	cmp    %eax,-0x4(%rbp)
    7781:	7f 0e                	jg     7791 <safe_lshift_func_int32_t_s_s+0x41>
    7783:	8b 45 f8             	mov    -0x8(%rbp),%eax
    7786:	8b 55 fc             	mov    -0x4(%rbp),%edx
    7789:	89 c1                	mov    %eax,%ecx
    778b:	d3 e2                	shl    %cl,%edx
    778d:	89 d0                	mov    %edx,%eax
    778f:	eb 03                	jmp    7794 <safe_lshift_func_int32_t_s_s+0x44>
    7791:	8b 45 fc             	mov    -0x4(%rbp),%eax
    7794:	5d                   	pop    %rbp
    7795:	c3                   	retq   

0000000000007796 <safe_lshift_func_int32_t_s_u>:
    7796:	f3 0f 1e fa          	endbr64 
    779a:	55                   	push   %rbp
    779b:	48 89 e5             	mov    %rsp,%rbp
    779e:	89 7d fc             	mov    %edi,-0x4(%rbp)
    77a1:	89 75 f8             	mov    %esi,-0x8(%rbp)
    77a4:	83 7d fc 00          	cmpl   $0x0,-0x4(%rbp)
    77a8:	78 27                	js     77d1 <safe_lshift_func_int32_t_s_u+0x3b>
    77aa:	83 7d f8 1f          	cmpl   $0x1f,-0x8(%rbp)
    77ae:	77 21                	ja     77d1 <safe_lshift_func_int32_t_s_u+0x3b>
    77b0:	8b 45 f8             	mov    -0x8(%rbp),%eax
    77b3:	ba ff ff ff 7f       	mov    $0x7fffffff,%edx
    77b8:	89 c1                	mov    %eax,%ecx
    77ba:	d3 fa                	sar    %cl,%edx
    77bc:	89 d0                	mov    %edx,%eax
    77be:	39 45 fc             	cmp    %eax,-0x4(%rbp)
    77c1:	7f 0e                	jg     77d1 <safe_lshift_func_int32_t_s_u+0x3b>
    77c3:	8b 45 f8             	mov    -0x8(%rbp),%eax
    77c6:	8b 55 fc             	mov    -0x4(%rbp),%edx
    77c9:	89 c1                	mov    %eax,%ecx
    77cb:	d3 e2                	shl    %cl,%edx
    77cd:	89 d0                	mov    %edx,%eax
    77cf:	eb 03                	jmp    77d4 <safe_lshift_func_int32_t_s_u+0x3e>
    77d1:	8b 45 fc             	mov    -0x4(%rbp),%eax
    77d4:	5d                   	pop    %rbp
    77d5:	c3                   	retq   

00000000000077d6 <safe_rshift_func_int32_t_s_s>:
    77d6:	f3 0f 1e fa          	endbr64 
    77da:	55                   	push   %rbp
    77db:	48 89 e5             	mov    %rsp,%rbp
    77de:	89 7d fc             	mov    %edi,-0x4(%rbp)
    77e1:	89 75 f8             	mov    %esi,-0x8(%rbp)
    77e4:	83 7d fc 00          	cmpl   $0x0,-0x4(%rbp)
    77e8:	78 1a                	js     7804 <safe_rshift_func_int32_t_s_s+0x2e>
    77ea:	83 7d f8 00          	cmpl   $0x0,-0x8(%rbp)
    77ee:	78 14                	js     7804 <safe_rshift_func_int32_t_s_s+0x2e>
    77f0:	83 7d f8 1f          	cmpl   $0x1f,-0x8(%rbp)
    77f4:	7f 0e                	jg     7804 <safe_rshift_func_int32_t_s_s+0x2e>
    77f6:	8b 45 f8             	mov    -0x8(%rbp),%eax
    77f9:	8b 55 fc             	mov    -0x4(%rbp),%edx
    77fc:	89 c1                	mov    %eax,%ecx
    77fe:	d3 fa                	sar    %cl,%edx
    7800:	89 d0                	mov    %edx,%eax
    7802:	eb 03                	jmp    7807 <safe_rshift_func_int32_t_s_s+0x31>
    7804:	8b 45 fc             	mov    -0x4(%rbp),%eax
    7807:	5d                   	pop    %rbp
    7808:	c3                   	retq   

0000000000007809 <safe_rshift_func_int32_t_s_u>:
    7809:	f3 0f 1e fa          	endbr64 
    780d:	55                   	push   %rbp
    780e:	48 89 e5             	mov    %rsp,%rbp
    7811:	89 7d fc             	mov    %edi,-0x4(%rbp)
    7814:	89 75 f8             	mov    %esi,-0x8(%rbp)
    7817:	83 7d fc 00          	cmpl   $0x0,-0x4(%rbp)
    781b:	78 14                	js     7831 <safe_rshift_func_int32_t_s_u+0x28>
    781d:	83 7d f8 1f          	cmpl   $0x1f,-0x8(%rbp)
    7821:	77 0e                	ja     7831 <safe_rshift_func_int32_t_s_u+0x28>
    7823:	8b 45 f8             	mov    -0x8(%rbp),%eax
    7826:	8b 55 fc             	mov    -0x4(%rbp),%edx
    7829:	89 c1                	mov    %eax,%ecx
    782b:	d3 fa                	sar    %cl,%edx
    782d:	89 d0                	mov    %edx,%eax
    782f:	eb 03                	jmp    7834 <safe_rshift_func_int32_t_s_u+0x2b>
    7831:	8b 45 fc             	mov    -0x4(%rbp),%eax
    7834:	5d                   	pop    %rbp
    7835:	c3                   	retq   

0000000000007836 <safe_unary_minus_func_int64_t_s>:
    7836:	f3 0f 1e fa          	endbr64 
    783a:	55                   	push   %rbp
    783b:	48 89 e5             	mov    %rsp,%rbp
    783e:	48 89 7d f8          	mov    %rdi,-0x8(%rbp)
    7842:	48 b8 00 00 00 00 00 	movabs $0x8000000000000000,%rax
    7849:	00 00 80 
    784c:	48 39 45 f8          	cmp    %rax,-0x8(%rbp)
    7850:	74 09                	je     785b <safe_unary_minus_func_int64_t_s+0x25>
    7852:	48 8b 45 f8          	mov    -0x8(%rbp),%rax
    7856:	48 f7 d8             	neg    %rax
    7859:	eb 04                	jmp    785f <safe_unary_minus_func_int64_t_s+0x29>
    785b:	48 8b 45 f8          	mov    -0x8(%rbp),%rax
    785f:	5d                   	pop    %rbp
    7860:	c3                   	retq   

0000000000007861 <safe_add_func_int64_t_s_s>:
    7861:	f3 0f 1e fa          	endbr64 
    7865:	55                   	push   %rbp
    7866:	48 89 e5             	mov    %rsp,%rbp
    7869:	48 89 7d f8          	mov    %rdi,-0x8(%rbp)
    786d:	48 89 75 f0          	mov    %rsi,-0x10(%rbp)
    7871:	48 83 7d f8 00       	cmpq   $0x0,-0x8(%rbp)
    7876:	7e 1b                	jle    7893 <safe_add_func_int64_t_s_s+0x32>
    7878:	48 83 7d f0 00       	cmpq   $0x0,-0x10(%rbp)
    787d:	7e 14                	jle    7893 <safe_add_func_int64_t_s_s+0x32>
    787f:	48 b8 ff ff ff ff ff 	movabs $0x7fffffffffffffff,%rax
    7886:	ff ff 7f 
    7889:	48 2b 45 f0          	sub    -0x10(%rbp),%rax
    788d:	48 39 45 f8          	cmp    %rax,-0x8(%rbp)
    7891:	7f 2f                	jg     78c2 <safe_add_func_int64_t_s_s+0x61>
    7893:	48 83 7d f8 00       	cmpq   $0x0,-0x8(%rbp)
    7898:	79 1b                	jns    78b5 <safe_add_func_int64_t_s_s+0x54>
    789a:	48 83 7d f0 00       	cmpq   $0x0,-0x10(%rbp)
    789f:	79 14                	jns    78b5 <safe_add_func_int64_t_s_s+0x54>
    78a1:	48 b8 00 00 00 00 00 	movabs $0x8000000000000000,%rax
    78a8:	00 00 80 
    78ab:	48 2b 45 f0          	sub    -0x10(%rbp),%rax
    78af:	48 39 45 f8          	cmp    %rax,-0x8(%rbp)
    78b3:	7c 0d                	jl     78c2 <safe_add_func_int64_t_s_s+0x61>
    78b5:	48 8b 55 f8          	mov    -0x8(%rbp),%rdx
    78b9:	48 8b 45 f0          	mov    -0x10(%rbp),%rax
    78bd:	48 01 d0             	add    %rdx,%rax
    78c0:	eb 04                	jmp    78c6 <safe_add_func_int64_t_s_s+0x65>
    78c2:	48 8b 45 f8          	mov    -0x8(%rbp),%rax
    78c6:	5d                   	pop    %rbp
    78c7:	c3                   	retq   

00000000000078c8 <safe_sub_func_int64_t_s_s>:
    78c8:	f3 0f 1e fa          	endbr64 
    78cc:	55                   	push   %rbp
    78cd:	48 89 e5             	mov    %rsp,%rbp
    78d0:	48 89 7d f8          	mov    %rdi,-0x8(%rbp)
    78d4:	48 89 75 f0          	mov    %rsi,-0x10(%rbp)
    78d8:	48 8b 45 f8          	mov    -0x8(%rbp),%rax
    78dc:	48 33 45 f0          	xor    -0x10(%rbp),%rax
    78e0:	48 89 c2             	mov    %rax,%rdx
    78e3:	48 8b 45 f8          	mov    -0x8(%rbp),%rax
    78e7:	48 33 45 f0          	xor    -0x10(%rbp),%rax
    78eb:	48 b9 00 00 00 00 00 	movabs $0x8000000000000000,%rcx
    78f2:	00 00 80 
    78f5:	48 21 c8             	and    %rcx,%rax
    78f8:	48 33 45 f8          	xor    -0x8(%rbp),%rax
    78fc:	48 2b 45 f0          	sub    -0x10(%rbp),%rax
    7900:	48 33 45 f0          	xor    -0x10(%rbp),%rax
    7904:	48 21 d0             	and    %rdx,%rax
    7907:	48 85 c0             	test   %rax,%rax
    790a:	78 0a                	js     7916 <safe_sub_func_int64_t_s_s+0x4e>
    790c:	48 8b 45 f8          	mov    -0x8(%rbp),%rax
    7910:	48 2b 45 f0          	sub    -0x10(%rbp),%rax
    7914:	eb 04                	jmp    791a <safe_sub_func_int64_t_s_s+0x52>
    7916:	48 8b 45 f8          	mov    -0x8(%rbp),%rax
    791a:	5d                   	pop    %rbp
    791b:	c3                   	retq   

000000000000791c <safe_mul_func_int64_t_s_s>:
    791c:	f3 0f 1e fa          	endbr64 
    7920:	55                   	push   %rbp
    7921:	48 89 e5             	mov    %rsp,%rbp
    7924:	48 89 7d f8          	mov    %rdi,-0x8(%rbp)
    7928:	48 89 75 f0          	mov    %rsi,-0x10(%rbp)
    792c:	48 83 7d f8 00       	cmpq   $0x0,-0x8(%rbp)
    7931:	7e 1d                	jle    7950 <safe_mul_func_int64_t_s_s+0x34>
    7933:	48 83 7d f0 00       	cmpq   $0x0,-0x10(%rbp)
    7938:	7e 16                	jle    7950 <safe_mul_func_int64_t_s_s+0x34>
    793a:	48 b8 ff ff ff ff ff 	movabs $0x7fffffffffffffff,%rax
    7941:	ff ff 7f 
    7944:	48 99                	cqto   
    7946:	48 f7 7d f0          	idivq  -0x10(%rbp)
    794a:	48 39 45 f8          	cmp    %rax,-0x8(%rbp)
    794e:	7f 7e                	jg     79ce <safe_mul_func_int64_t_s_s+0xb2>
    7950:	48 83 7d f8 00       	cmpq   $0x0,-0x8(%rbp)
    7955:	7e 1d                	jle    7974 <safe_mul_func_int64_t_s_s+0x58>
    7957:	48 83 7d f0 00       	cmpq   $0x0,-0x10(%rbp)
    795c:	7f 16                	jg     7974 <safe_mul_func_int64_t_s_s+0x58>
    795e:	48 b8 00 00 00 00 00 	movabs $0x8000000000000000,%rax
    7965:	00 00 80 
    7968:	48 99                	cqto   
    796a:	48 f7 7d f8          	idivq  -0x8(%rbp)
    796e:	48 39 45 f0          	cmp    %rax,-0x10(%rbp)
    7972:	7c 5a                	jl     79ce <safe_mul_func_int64_t_s_s+0xb2>
    7974:	48 83 7d f8 00       	cmpq   $0x0,-0x8(%rbp)
    7979:	7f 1d                	jg     7998 <safe_mul_func_int64_t_s_s+0x7c>
    797b:	48 83 7d f0 00       	cmpq   $0x0,-0x10(%rbp)
    7980:	7e 16                	jle    7998 <safe_mul_func_int64_t_s_s+0x7c>
    7982:	48 b8 00 00 00 00 00 	movabs $0x8000000000000000,%rax
    7989:	00 00 80 
    798c:	48 99                	cqto   
    798e:	48 f7 7d f0          	idivq  -0x10(%rbp)
    7992:	48 39 45 f8          	cmp    %rax,-0x8(%rbp)
    7996:	7c 36                	jl     79ce <safe_mul_func_int64_t_s_s+0xb2>
    7998:	48 83 7d f8 00       	cmpq   $0x0,-0x8(%rbp)
    799d:	7f 24                	jg     79c3 <safe_mul_func_int64_t_s_s+0xa7>
    799f:	48 83 7d f0 00       	cmpq   $0x0,-0x10(%rbp)
    79a4:	7f 1d                	jg     79c3 <safe_mul_func_int64_t_s_s+0xa7>
    79a6:	48 83 7d f8 00       	cmpq   $0x0,-0x8(%rbp)
    79ab:	74 16                	je     79c3 <safe_mul_func_int64_t_s_s+0xa7>
    79ad:	48 b8 ff ff ff ff ff 	movabs $0x7fffffffffffffff,%rax
    79b4:	ff ff 7f 
    79b7:	48 99                	cqto   
    79b9:	48 f7 7d f8          	idivq  -0x8(%rbp)
    79bd:	48 39 45 f0          	cmp    %rax,-0x10(%rbp)
    79c1:	7c 0b                	jl     79ce <safe_mul_func_int64_t_s_s+0xb2>
    79c3:	48 8b 45 f8          	mov    -0x8(%rbp),%rax
    79c7:	48 0f af 45 f0       	imul   -0x10(%rbp),%rax
    79cc:	eb 04                	jmp    79d2 <safe_mul_func_int64_t_s_s+0xb6>
    79ce:	48 8b 45 f8          	mov    -0x8(%rbp),%rax
    79d2:	5d                   	pop    %rbp
    79d3:	c3                   	retq   

00000000000079d4 <safe_mod_func_int64_t_s_s>:
    79d4:	f3 0f 1e fa          	endbr64 
    79d8:	55                   	push   %rbp
    79d9:	48 89 e5             	mov    %rsp,%rbp
    79dc:	48 89 7d f8          	mov    %rdi,-0x8(%rbp)
    79e0:	48 89 75 f0          	mov    %rsi,-0x10(%rbp)
    79e4:	48 83 7d f0 00       	cmpq   $0x0,-0x10(%rbp)
    79e9:	74 26                	je     7a11 <safe_mod_func_int64_t_s_s+0x3d>
    79eb:	48 b8 00 00 00 00 00 	movabs $0x8000000000000000,%rax
    79f2:	00 00 80 
    79f5:	48 39 45 f8          	cmp    %rax,-0x8(%rbp)
    79f9:	75 07                	jne    7a02 <safe_mod_func_int64_t_s_s+0x2e>
    79fb:	48 83 7d f0 ff       	cmpq   $0xffffffffffffffff,-0x10(%rbp)
    7a00:	74 0f                	je     7a11 <safe_mod_func_int64_t_s_s+0x3d>
    7a02:	48 8b 45 f8          	mov    -0x8(%rbp),%rax
    7a06:	48 99                	cqto   
    7a08:	48 f7 7d f0          	idivq  -0x10(%rbp)
    7a0c:	48 89 d0             	mov    %rdx,%rax
    7a0f:	eb 04                	jmp    7a15 <safe_mod_func_int64_t_s_s+0x41>
    7a11:	48 8b 45 f8          	mov    -0x8(%rbp),%rax
    7a15:	5d                   	pop    %rbp
    7a16:	c3                   	retq   

0000000000007a17 <safe_div_func_int64_t_s_s>:
    7a17:	f3 0f 1e fa          	endbr64 
    7a1b:	55                   	push   %rbp
    7a1c:	48 89 e5             	mov    %rsp,%rbp
    7a1f:	48 89 7d f8          	mov    %rdi,-0x8(%rbp)
    7a23:	48 89 75 f0          	mov    %rsi,-0x10(%rbp)
    7a27:	48 83 7d f0 00       	cmpq   $0x0,-0x10(%rbp)
    7a2c:	74 23                	je     7a51 <safe_div_func_int64_t_s_s+0x3a>
    7a2e:	48 b8 00 00 00 00 00 	movabs $0x8000000000000000,%rax
    7a35:	00 00 80 
    7a38:	48 39 45 f8          	cmp    %rax,-0x8(%rbp)
    7a3c:	75 07                	jne    7a45 <safe_div_func_int64_t_s_s+0x2e>
    7a3e:	48 83 7d f0 ff       	cmpq   $0xffffffffffffffff,-0x10(%rbp)
    7a43:	74 0c                	je     7a51 <safe_div_func_int64_t_s_s+0x3a>
    7a45:	48 8b 45 f8          	mov    -0x8(%rbp),%rax
    7a49:	48 99                	cqto   
    7a4b:	48 f7 7d f0          	idivq  -0x10(%rbp)
    7a4f:	eb 04                	jmp    7a55 <safe_div_func_int64_t_s_s+0x3e>
    7a51:	48 8b 45 f8          	mov    -0x8(%rbp),%rax
    7a55:	5d                   	pop    %rbp
    7a56:	c3                   	retq   

0000000000007a57 <safe_lshift_func_int64_t_s_s>:
    7a57:	f3 0f 1e fa          	endbr64 
    7a5b:	55                   	push   %rbp
    7a5c:	48 89 e5             	mov    %rsp,%rbp
    7a5f:	48 89 7d f8          	mov    %rdi,-0x8(%rbp)
    7a63:	89 75 f4             	mov    %esi,-0xc(%rbp)
    7a66:	48 83 7d f8 00       	cmpq   $0x0,-0x8(%rbp)
    7a6b:	78 38                	js     7aa5 <safe_lshift_func_int64_t_s_s+0x4e>
    7a6d:	83 7d f4 00          	cmpl   $0x0,-0xc(%rbp)
    7a71:	78 32                	js     7aa5 <safe_lshift_func_int64_t_s_s+0x4e>
    7a73:	83 7d f4 1f          	cmpl   $0x1f,-0xc(%rbp)
    7a77:	7f 2c                	jg     7aa5 <safe_lshift_func_int64_t_s_s+0x4e>
    7a79:	8b 45 f4             	mov    -0xc(%rbp),%eax
    7a7c:	48 ba ff ff ff ff ff 	movabs $0x7fffffffffffffff,%rdx
    7a83:	ff ff 7f 
    7a86:	89 c1                	mov    %eax,%ecx
    7a88:	48 d3 fa             	sar    %cl,%rdx
    7a8b:	48 89 d0             	mov    %rdx,%rax
    7a8e:	48 39 45 f8          	cmp    %rax,-0x8(%rbp)
    7a92:	7f 11                	jg     7aa5 <safe_lshift_func_int64_t_s_s+0x4e>
    7a94:	8b 45 f4             	mov    -0xc(%rbp),%eax
    7a97:	48 8b 55 f8          	mov    -0x8(%rbp),%rdx
    7a9b:	89 c1                	mov    %eax,%ecx
    7a9d:	48 d3 e2             	shl    %cl,%rdx
    7aa0:	48 89 d0             	mov    %rdx,%rax
    7aa3:	eb 04                	jmp    7aa9 <safe_lshift_func_int64_t_s_s+0x52>
    7aa5:	48 8b 45 f8          	mov    -0x8(%rbp),%rax
    7aa9:	5d                   	pop    %rbp
    7aaa:	c3                   	retq   

0000000000007aab <safe_lshift_func_int64_t_s_u>:
    7aab:	f3 0f 1e fa          	endbr64 
    7aaf:	55                   	push   %rbp
    7ab0:	48 89 e5             	mov    %rsp,%rbp
    7ab3:	48 89 7d f8          	mov    %rdi,-0x8(%rbp)
    7ab7:	89 75 f4             	mov    %esi,-0xc(%rbp)
    7aba:	48 83 7d f8 00       	cmpq   $0x0,-0x8(%rbp)
    7abf:	78 32                	js     7af3 <safe_lshift_func_int64_t_s_u+0x48>
    7ac1:	83 7d f4 1f          	cmpl   $0x1f,-0xc(%rbp)
    7ac5:	77 2c                	ja     7af3 <safe_lshift_func_int64_t_s_u+0x48>
    7ac7:	8b 45 f4             	mov    -0xc(%rbp),%eax
    7aca:	48 ba ff ff ff ff ff 	movabs $0x7fffffffffffffff,%rdx
    7ad1:	ff ff 7f 
    7ad4:	89 c1                	mov    %eax,%ecx
    7ad6:	48 d3 fa             	sar    %cl,%rdx
    7ad9:	48 89 d0             	mov    %rdx,%rax
    7adc:	48 39 45 f8          	cmp    %rax,-0x8(%rbp)
    7ae0:	7f 11                	jg     7af3 <safe_lshift_func_int64_t_s_u+0x48>
    7ae2:	8b 45 f4             	mov    -0xc(%rbp),%eax
    7ae5:	48 8b 55 f8          	mov    -0x8(%rbp),%rdx
    7ae9:	89 c1                	mov    %eax,%ecx
    7aeb:	48 d3 e2             	shl    %cl,%rdx
    7aee:	48 89 d0             	mov    %rdx,%rax
    7af1:	eb 04                	jmp    7af7 <safe_lshift_func_int64_t_s_u+0x4c>
    7af3:	48 8b 45 f8          	mov    -0x8(%rbp),%rax
    7af7:	5d                   	pop    %rbp
    7af8:	c3                   	retq   

0000000000007af9 <safe_rshift_func_int64_t_s_s>:
    7af9:	f3 0f 1e fa          	endbr64 
    7afd:	55                   	push   %rbp
    7afe:	48 89 e5             	mov    %rsp,%rbp
    7b01:	48 89 7d f8          	mov    %rdi,-0x8(%rbp)
    7b05:	89 75 f4             	mov    %esi,-0xc(%rbp)
    7b08:	48 83 7d f8 00       	cmpq   $0x0,-0x8(%rbp)
    7b0d:	78 1d                	js     7b2c <safe_rshift_func_int64_t_s_s+0x33>
    7b0f:	83 7d f4 00          	cmpl   $0x0,-0xc(%rbp)
    7b13:	78 17                	js     7b2c <safe_rshift_func_int64_t_s_s+0x33>
    7b15:	83 7d f4 1f          	cmpl   $0x1f,-0xc(%rbp)
    7b19:	7f 11                	jg     7b2c <safe_rshift_func_int64_t_s_s+0x33>
    7b1b:	8b 45 f4             	mov    -0xc(%rbp),%eax
    7b1e:	48 8b 55 f8          	mov    -0x8(%rbp),%rdx
    7b22:	89 c1                	mov    %eax,%ecx
    7b24:	48 d3 fa             	sar    %cl,%rdx
    7b27:	48 89 d0             	mov    %rdx,%rax
    7b2a:	eb 04                	jmp    7b30 <safe_rshift_func_int64_t_s_s+0x37>
    7b2c:	48 8b 45 f8          	mov    -0x8(%rbp),%rax
    7b30:	5d                   	pop    %rbp
    7b31:	c3                   	retq   

0000000000007b32 <safe_rshift_func_int64_t_s_u>:
    7b32:	f3 0f 1e fa          	endbr64 
    7b36:	55                   	push   %rbp
    7b37:	48 89 e5             	mov    %rsp,%rbp
    7b3a:	48 89 7d f8          	mov    %rdi,-0x8(%rbp)
    7b3e:	89 75 f4             	mov    %esi,-0xc(%rbp)
    7b41:	48 83 7d f8 00       	cmpq   $0x0,-0x8(%rbp)
    7b46:	78 17                	js     7b5f <safe_rshift_func_int64_t_s_u+0x2d>
    7b48:	83 7d f4 1f          	cmpl   $0x1f,-0xc(%rbp)
    7b4c:	77 11                	ja     7b5f <safe_rshift_func_int64_t_s_u+0x2d>
    7b4e:	8b 45 f4             	mov    -0xc(%rbp),%eax
    7b51:	48 8b 55 f8          	mov    -0x8(%rbp),%rdx
    7b55:	89 c1                	mov    %eax,%ecx
    7b57:	48 d3 fa             	sar    %cl,%rdx
    7b5a:	48 89 d0             	mov    %rdx,%rax
    7b5d:	eb 04                	jmp    7b63 <safe_rshift_func_int64_t_s_u+0x31>
    7b5f:	48 8b 45 f8          	mov    -0x8(%rbp),%rax
    7b63:	5d                   	pop    %rbp
    7b64:	c3                   	retq   

0000000000007b65 <safe_unary_minus_func_uint8_t_u>:
    7b65:	f3 0f 1e fa          	endbr64 
    7b69:	55                   	push   %rbp
    7b6a:	48 89 e5             	mov    %rsp,%rbp
    7b6d:	89 f8                	mov    %edi,%eax
    7b6f:	88 45 fc             	mov    %al,-0x4(%rbp)
    7b72:	0f b6 45 fc          	movzbl -0x4(%rbp),%eax
    7b76:	f7 d8                	neg    %eax
    7b78:	5d                   	pop    %rbp
    7b79:	c3                   	retq   

0000000000007b7a <safe_add_func_uint8_t_u_u>:
    7b7a:	f3 0f 1e fa          	endbr64 
    7b7e:	55                   	push   %rbp
    7b7f:	48 89 e5             	mov    %rsp,%rbp
    7b82:	89 fa                	mov    %edi,%edx
    7b84:	89 f0                	mov    %esi,%eax
    7b86:	88 55 fc             	mov    %dl,-0x4(%rbp)
    7b89:	88 45 f8             	mov    %al,-0x8(%rbp)
    7b8c:	0f b6 55 fc          	movzbl -0x4(%rbp),%edx
    7b90:	0f b6 45 f8          	movzbl -0x8(%rbp),%eax
    7b94:	01 d0                	add    %edx,%eax
    7b96:	5d                   	pop    %rbp
    7b97:	c3                   	retq   

0000000000007b98 <safe_sub_func_uint8_t_u_u>:
    7b98:	f3 0f 1e fa          	endbr64 
    7b9c:	55                   	push   %rbp
    7b9d:	48 89 e5             	mov    %rsp,%rbp
    7ba0:	89 fa                	mov    %edi,%edx
    7ba2:	89 f0                	mov    %esi,%eax
    7ba4:	88 55 fc             	mov    %dl,-0x4(%rbp)
    7ba7:	88 45 f8             	mov    %al,-0x8(%rbp)
    7baa:	0f b6 45 fc          	movzbl -0x4(%rbp),%eax
    7bae:	2a 45 f8             	sub    -0x8(%rbp),%al
    7bb1:	5d                   	pop    %rbp
    7bb2:	c3                   	retq   

0000000000007bb3 <safe_mul_func_uint8_t_u_u>:
    7bb3:	f3 0f 1e fa          	endbr64 
    7bb7:	55                   	push   %rbp
    7bb8:	48 89 e5             	mov    %rsp,%rbp
    7bbb:	89 fa                	mov    %edi,%edx
    7bbd:	89 f0                	mov    %esi,%eax
    7bbf:	88 55 fc             	mov    %dl,-0x4(%rbp)
    7bc2:	88 45 f8             	mov    %al,-0x8(%rbp)
    7bc5:	0f b6 45 fc          	movzbl -0x4(%rbp),%eax
    7bc9:	f6 65 f8             	mulb   -0x8(%rbp)
    7bcc:	5d                   	pop    %rbp
    7bcd:	c3                   	retq   

0000000000007bce <safe_mod_func_uint8_t_u_u>:
    7bce:	f3 0f 1e fa          	endbr64 
    7bd2:	55                   	push   %rbp
    7bd3:	48 89 e5             	mov    %rsp,%rbp
    7bd6:	89 fa                	mov    %edi,%edx
    7bd8:	89 f0                	mov    %esi,%eax
    7bda:	88 55 fc             	mov    %dl,-0x4(%rbp)
    7bdd:	88 45 f8             	mov    %al,-0x8(%rbp)
    7be0:	80 7d f8 00          	cmpb   $0x0,-0x8(%rbp)
    7be4:	74 0f                	je     7bf5 <safe_mod_func_uint8_t_u_u+0x27>
    7be6:	0f b6 45 fc          	movzbl -0x4(%rbp),%eax
    7bea:	0f b6 c0             	movzbl %al,%eax
    7bed:	f6 75 f8             	divb   -0x8(%rbp)
    7bf0:	0f b6 c4             	movzbl %ah,%eax
    7bf3:	eb 04                	jmp    7bf9 <safe_mod_func_uint8_t_u_u+0x2b>
    7bf5:	0f b6 45 fc          	movzbl -0x4(%rbp),%eax
    7bf9:	5d                   	pop    %rbp
    7bfa:	c3                   	retq   

0000000000007bfb <safe_div_func_uint8_t_u_u>:
    7bfb:	f3 0f 1e fa          	endbr64 
    7bff:	55                   	push   %rbp
    7c00:	48 89 e5             	mov    %rsp,%rbp
    7c03:	89 fa                	mov    %edi,%edx
    7c05:	89 f0                	mov    %esi,%eax
    7c07:	88 55 fc             	mov    %dl,-0x4(%rbp)
    7c0a:	88 45 f8             	mov    %al,-0x8(%rbp)
    7c0d:	80 7d f8 00          	cmpb   $0x0,-0x8(%rbp)
    7c11:	74 0c                	je     7c1f <safe_div_func_uint8_t_u_u+0x24>
    7c13:	0f b6 45 fc          	movzbl -0x4(%rbp),%eax
    7c17:	0f b6 c0             	movzbl %al,%eax
    7c1a:	f6 75 f8             	divb   -0x8(%rbp)
    7c1d:	eb 04                	jmp    7c23 <safe_div_func_uint8_t_u_u+0x28>
    7c1f:	0f b6 45 fc          	movzbl -0x4(%rbp),%eax
    7c23:	5d                   	pop    %rbp
    7c24:	c3                   	retq   

0000000000007c25 <safe_lshift_func_uint8_t_u_s>:
    7c25:	f3 0f 1e fa          	endbr64 
    7c29:	55                   	push   %rbp
    7c2a:	48 89 e5             	mov    %rsp,%rbp
    7c2d:	89 f8                	mov    %edi,%eax
    7c2f:	89 75 f8             	mov    %esi,-0x8(%rbp)
    7c32:	88 45 fc             	mov    %al,-0x4(%rbp)
    7c35:	83 7d f8 00          	cmpl   $0x0,-0x8(%rbp)
    7c39:	78 2b                	js     7c66 <safe_lshift_func_uint8_t_u_s+0x41>
    7c3b:	83 7d f8 1f          	cmpl   $0x1f,-0x8(%rbp)
    7c3f:	7f 25                	jg     7c66 <safe_lshift_func_uint8_t_u_s+0x41>
    7c41:	0f b6 55 fc          	movzbl -0x4(%rbp),%edx
    7c45:	8b 45 f8             	mov    -0x8(%rbp),%eax
    7c48:	be ff 00 00 00       	mov    $0xff,%esi
    7c4d:	89 c1                	mov    %eax,%ecx
    7c4f:	d3 fe                	sar    %cl,%esi
    7c51:	89 f0                	mov    %esi,%eax
    7c53:	39 c2                	cmp    %eax,%edx
    7c55:	7f 0f                	jg     7c66 <safe_lshift_func_uint8_t_u_s+0x41>
    7c57:	0f b6 55 fc          	movzbl -0x4(%rbp),%edx
    7c5b:	8b 45 f8             	mov    -0x8(%rbp),%eax
    7c5e:	89 c1                	mov    %eax,%ecx
    7c60:	d3 e2                	shl    %cl,%edx
    7c62:	89 d0                	mov    %edx,%eax
    7c64:	eb 04                	jmp    7c6a <safe_lshift_func_uint8_t_u_s+0x45>
    7c66:	0f b6 45 fc          	movzbl -0x4(%rbp),%eax
    7c6a:	5d                   	pop    %rbp
    7c6b:	c3                   	retq   

0000000000007c6c <safe_lshift_func_uint8_t_u_u>:
    7c6c:	f3 0f 1e fa          	endbr64 
    7c70:	55                   	push   %rbp
    7c71:	48 89 e5             	mov    %rsp,%rbp
    7c74:	89 f8                	mov    %edi,%eax
    7c76:	89 75 f8             	mov    %esi,-0x8(%rbp)
    7c79:	88 45 fc             	mov    %al,-0x4(%rbp)
    7c7c:	83 7d f8 1f          	cmpl   $0x1f,-0x8(%rbp)
    7c80:	77 25                	ja     7ca7 <safe_lshift_func_uint8_t_u_u+0x3b>
    7c82:	0f b6 55 fc          	movzbl -0x4(%rbp),%edx
    7c86:	8b 45 f8             	mov    -0x8(%rbp),%eax
    7c89:	be ff 00 00 00       	mov    $0xff,%esi
    7c8e:	89 c1                	mov    %eax,%ecx
    7c90:	d3 fe                	sar    %cl,%esi
    7c92:	89 f0                	mov    %esi,%eax
    7c94:	39 c2                	cmp    %eax,%edx
    7c96:	7f 0f                	jg     7ca7 <safe_lshift_func_uint8_t_u_u+0x3b>
    7c98:	0f b6 55 fc          	movzbl -0x4(%rbp),%edx
    7c9c:	8b 45 f8             	mov    -0x8(%rbp),%eax
    7c9f:	89 c1                	mov    %eax,%ecx
    7ca1:	d3 e2                	shl    %cl,%edx
    7ca3:	89 d0                	mov    %edx,%eax
    7ca5:	eb 04                	jmp    7cab <safe_lshift_func_uint8_t_u_u+0x3f>
    7ca7:	0f b6 45 fc          	movzbl -0x4(%rbp),%eax
    7cab:	5d                   	pop    %rbp
    7cac:	c3                   	retq   

0000000000007cad <safe_rshift_func_uint8_t_u_s>:
    7cad:	f3 0f 1e fa          	endbr64 
    7cb1:	55                   	push   %rbp
    7cb2:	48 89 e5             	mov    %rsp,%rbp
    7cb5:	89 f8                	mov    %edi,%eax
    7cb7:	89 75 f8             	mov    %esi,-0x8(%rbp)
    7cba:	88 45 fc             	mov    %al,-0x4(%rbp)
    7cbd:	83 7d f8 00          	cmpl   $0x0,-0x8(%rbp)
    7cc1:	78 15                	js     7cd8 <safe_rshift_func_uint8_t_u_s+0x2b>
    7cc3:	83 7d f8 1f          	cmpl   $0x1f,-0x8(%rbp)
    7cc7:	7f 0f                	jg     7cd8 <safe_rshift_func_uint8_t_u_s+0x2b>
    7cc9:	0f b6 55 fc          	movzbl -0x4(%rbp),%edx
    7ccd:	8b 45 f8             	mov    -0x8(%rbp),%eax
    7cd0:	89 c1                	mov    %eax,%ecx
    7cd2:	d3 fa                	sar    %cl,%edx
    7cd4:	89 d0                	mov    %edx,%eax
    7cd6:	eb 04                	jmp    7cdc <safe_rshift_func_uint8_t_u_s+0x2f>
    7cd8:	0f b6 45 fc          	movzbl -0x4(%rbp),%eax
    7cdc:	5d                   	pop    %rbp
    7cdd:	c3                   	retq   

0000000000007cde <safe_rshift_func_uint8_t_u_u>:
    7cde:	f3 0f 1e fa          	endbr64 
    7ce2:	55                   	push   %rbp
    7ce3:	48 89 e5             	mov    %rsp,%rbp
    7ce6:	89 f8                	mov    %edi,%eax
    7ce8:	89 75 f8             	mov    %esi,-0x8(%rbp)
    7ceb:	88 45 fc             	mov    %al,-0x4(%rbp)
    7cee:	83 7d f8 1f          	cmpl   $0x1f,-0x8(%rbp)
    7cf2:	77 0f                	ja     7d03 <safe_rshift_func_uint8_t_u_u+0x25>
    7cf4:	0f b6 55 fc          	movzbl -0x4(%rbp),%edx
    7cf8:	8b 45 f8             	mov    -0x8(%rbp),%eax
    7cfb:	89 c1                	mov    %eax,%ecx
    7cfd:	d3 fa                	sar    %cl,%edx
    7cff:	89 d0                	mov    %edx,%eax
    7d01:	eb 04                	jmp    7d07 <safe_rshift_func_uint8_t_u_u+0x29>
    7d03:	0f b6 45 fc          	movzbl -0x4(%rbp),%eax
    7d07:	5d                   	pop    %rbp
    7d08:	c3                   	retq   

0000000000007d09 <safe_unary_minus_func_uint16_t_u>:
    7d09:	f3 0f 1e fa          	endbr64 
    7d0d:	55                   	push   %rbp
    7d0e:	48 89 e5             	mov    %rsp,%rbp
    7d11:	89 f8                	mov    %edi,%eax
    7d13:	66 89 45 fc          	mov    %ax,-0x4(%rbp)
    7d17:	0f b7 45 fc          	movzwl -0x4(%rbp),%eax
    7d1b:	f7 d8                	neg    %eax
    7d1d:	5d                   	pop    %rbp
    7d1e:	c3                   	retq   

0000000000007d1f <safe_add_func_uint16_t_u_u>:
    7d1f:	f3 0f 1e fa          	endbr64 
    7d23:	55                   	push   %rbp
    7d24:	48 89 e5             	mov    %rsp,%rbp
    7d27:	89 fa                	mov    %edi,%edx
    7d29:	89 f0                	mov    %esi,%eax
    7d2b:	66 89 55 fc          	mov    %dx,-0x4(%rbp)
    7d2f:	66 89 45 f8          	mov    %ax,-0x8(%rbp)
    7d33:	0f b7 55 fc          	movzwl -0x4(%rbp),%edx
    7d37:	0f b7 45 f8          	movzwl -0x8(%rbp),%eax
    7d3b:	01 d0                	add    %edx,%eax
    7d3d:	5d                   	pop    %rbp
    7d3e:	c3                   	retq   

0000000000007d3f <safe_sub_func_uint16_t_u_u>:
    7d3f:	f3 0f 1e fa          	endbr64 
    7d43:	55                   	push   %rbp
    7d44:	48 89 e5             	mov    %rsp,%rbp
    7d47:	89 fa                	mov    %edi,%edx
    7d49:	89 f0                	mov    %esi,%eax
    7d4b:	66 89 55 fc          	mov    %dx,-0x4(%rbp)
    7d4f:	66 89 45 f8          	mov    %ax,-0x8(%rbp)
    7d53:	0f b7 45 fc          	movzwl -0x4(%rbp),%eax
    7d57:	66 2b 45 f8          	sub    -0x8(%rbp),%ax
    7d5b:	5d                   	pop    %rbp
    7d5c:	c3                   	retq   

0000000000007d5d <safe_mul_func_uint16_t_u_u>:
    7d5d:	f3 0f 1e fa          	endbr64 
    7d61:	55                   	push   %rbp
    7d62:	48 89 e5             	mov    %rsp,%rbp
    7d65:	89 fa                	mov    %edi,%edx
    7d67:	89 f0                	mov    %esi,%eax
    7d69:	66 89 55 fc          	mov    %dx,-0x4(%rbp)
    7d6d:	66 89 45 f8          	mov    %ax,-0x8(%rbp)
    7d71:	0f b7 45 fc          	movzwl -0x4(%rbp),%eax
    7d75:	66 0f af 45 f8       	imul   -0x8(%rbp),%ax
    7d7a:	5d                   	pop    %rbp
    7d7b:	c3                   	retq   

0000000000007d7c <safe_mod_func_uint16_t_u_u>:
    7d7c:	f3 0f 1e fa          	endbr64 
    7d80:	55                   	push   %rbp
    7d81:	48 89 e5             	mov    %rsp,%rbp
    7d84:	89 fa                	mov    %edi,%edx
    7d86:	89 f0                	mov    %esi,%eax
    7d88:	66 89 55 fc          	mov    %dx,-0x4(%rbp)
    7d8c:	66 89 45 f8          	mov    %ax,-0x8(%rbp)
    7d90:	66 83 7d f8 00       	cmpw   $0x0,-0x8(%rbp)
    7d95:	74 11                	je     7da8 <safe_mod_func_uint16_t_u_u+0x2c>
    7d97:	0f b7 45 fc          	movzwl -0x4(%rbp),%eax
    7d9b:	ba 00 00 00 00       	mov    $0x0,%edx
    7da0:	66 f7 75 f8          	divw   -0x8(%rbp)
    7da4:	89 d0                	mov    %edx,%eax
    7da6:	eb 04                	jmp    7dac <safe_mod_func_uint16_t_u_u+0x30>
    7da8:	0f b7 45 fc          	movzwl -0x4(%rbp),%eax
    7dac:	5d                   	pop    %rbp
    7dad:	c3                   	retq   

0000000000007dae <safe_div_func_uint16_t_u_u>:
    7dae:	f3 0f 1e fa          	endbr64 
    7db2:	55                   	push   %rbp
    7db3:	48 89 e5             	mov    %rsp,%rbp
    7db6:	89 fa                	mov    %edi,%edx
    7db8:	89 f0                	mov    %esi,%eax
    7dba:	66 89 55 fc          	mov    %dx,-0x4(%rbp)
    7dbe:	66 89 45 f8          	mov    %ax,-0x8(%rbp)
    7dc2:	66 83 7d f8 00       	cmpw   $0x0,-0x8(%rbp)
    7dc7:	74 0f                	je     7dd8 <safe_div_func_uint16_t_u_u+0x2a>
    7dc9:	0f b7 45 fc          	movzwl -0x4(%rbp),%eax
    7dcd:	ba 00 00 00 00       	mov    $0x0,%edx
    7dd2:	66 f7 75 f8          	divw   -0x8(%rbp)
    7dd6:	eb 04                	jmp    7ddc <safe_div_func_uint16_t_u_u+0x2e>
    7dd8:	0f b7 45 fc          	movzwl -0x4(%rbp),%eax
    7ddc:	5d                   	pop    %rbp
    7ddd:	c3                   	retq   

0000000000007dde <safe_lshift_func_uint16_t_u_s>:
    7dde:	f3 0f 1e fa          	endbr64 
    7de2:	55                   	push   %rbp
    7de3:	48 89 e5             	mov    %rsp,%rbp
    7de6:	89 f8                	mov    %edi,%eax
    7de8:	89 75 f8             	mov    %esi,-0x8(%rbp)
    7deb:	66 89 45 fc          	mov    %ax,-0x4(%rbp)
    7def:	83 7d f8 00          	cmpl   $0x0,-0x8(%rbp)
    7df3:	78 2b                	js     7e20 <safe_lshift_func_uint16_t_u_s+0x42>
    7df5:	83 7d f8 1f          	cmpl   $0x1f,-0x8(%rbp)
    7df9:	7f 25                	jg     7e20 <safe_lshift_func_uint16_t_u_s+0x42>
    7dfb:	0f b7 55 fc          	movzwl -0x4(%rbp),%edx
    7dff:	8b 45 f8             	mov    -0x8(%rbp),%eax
    7e02:	be ff ff 00 00       	mov    $0xffff,%esi
    7e07:	89 c1                	mov    %eax,%ecx
    7e09:	d3 fe                	sar    %cl,%esi
    7e0b:	89 f0                	mov    %esi,%eax
    7e0d:	39 c2                	cmp    %eax,%edx
    7e0f:	7f 0f                	jg     7e20 <safe_lshift_func_uint16_t_u_s+0x42>
    7e11:	0f b7 55 fc          	movzwl -0x4(%rbp),%edx
    7e15:	8b 45 f8             	mov    -0x8(%rbp),%eax
    7e18:	89 c1                	mov    %eax,%ecx
    7e1a:	d3 e2                	shl    %cl,%edx
    7e1c:	89 d0                	mov    %edx,%eax
    7e1e:	eb 04                	jmp    7e24 <safe_lshift_func_uint16_t_u_s+0x46>
    7e20:	0f b7 45 fc          	movzwl -0x4(%rbp),%eax
    7e24:	5d                   	pop    %rbp
    7e25:	c3                   	retq   

0000000000007e26 <safe_lshift_func_uint16_t_u_u>:
    7e26:	f3 0f 1e fa          	endbr64 
    7e2a:	55                   	push   %rbp
    7e2b:	48 89 e5             	mov    %rsp,%rbp
    7e2e:	89 f8                	mov    %edi,%eax
    7e30:	89 75 f8             	mov    %esi,-0x8(%rbp)
    7e33:	66 89 45 fc          	mov    %ax,-0x4(%rbp)
    7e37:	83 7d f8 1f          	cmpl   $0x1f,-0x8(%rbp)
    7e3b:	77 25                	ja     7e62 <safe_lshift_func_uint16_t_u_u+0x3c>
    7e3d:	0f b7 55 fc          	movzwl -0x4(%rbp),%edx
    7e41:	8b 45 f8             	mov    -0x8(%rbp),%eax
    7e44:	be ff ff 00 00       	mov    $0xffff,%esi
    7e49:	89 c1                	mov    %eax,%ecx
    7e4b:	d3 fe                	sar    %cl,%esi
    7e4d:	89 f0                	mov    %esi,%eax
    7e4f:	39 c2                	cmp    %eax,%edx
    7e51:	7f 0f                	jg     7e62 <safe_lshift_func_uint16_t_u_u+0x3c>
    7e53:	0f b7 55 fc          	movzwl -0x4(%rbp),%edx
    7e57:	8b 45 f8             	mov    -0x8(%rbp),%eax
    7e5a:	89 c1                	mov    %eax,%ecx
    7e5c:	d3 e2                	shl    %cl,%edx
    7e5e:	89 d0                	mov    %edx,%eax
    7e60:	eb 04                	jmp    7e66 <safe_lshift_func_uint16_t_u_u+0x40>
    7e62:	0f b7 45 fc          	movzwl -0x4(%rbp),%eax
    7e66:	5d                   	pop    %rbp
    7e67:	c3                   	retq   

0000000000007e68 <safe_rshift_func_uint16_t_u_s>:
    7e68:	f3 0f 1e fa          	endbr64 
    7e6c:	55                   	push   %rbp
    7e6d:	48 89 e5             	mov    %rsp,%rbp
    7e70:	89 f8                	mov    %edi,%eax
    7e72:	89 75 f8             	mov    %esi,-0x8(%rbp)
    7e75:	66 89 45 fc          	mov    %ax,-0x4(%rbp)
    7e79:	83 7d f8 00          	cmpl   $0x0,-0x8(%rbp)
    7e7d:	78 15                	js     7e94 <safe_rshift_func_uint16_t_u_s+0x2c>
    7e7f:	83 7d f8 1f          	cmpl   $0x1f,-0x8(%rbp)
    7e83:	7f 0f                	jg     7e94 <safe_rshift_func_uint16_t_u_s+0x2c>
    7e85:	0f b7 55 fc          	movzwl -0x4(%rbp),%edx
    7e89:	8b 45 f8             	mov    -0x8(%rbp),%eax
    7e8c:	89 c1                	mov    %eax,%ecx
    7e8e:	d3 fa                	sar    %cl,%edx
    7e90:	89 d0                	mov    %edx,%eax
    7e92:	eb 04                	jmp    7e98 <safe_rshift_func_uint16_t_u_s+0x30>
    7e94:	0f b7 45 fc          	movzwl -0x4(%rbp),%eax
    7e98:	5d                   	pop    %rbp
    7e99:	c3                   	retq   

0000000000007e9a <safe_rshift_func_uint16_t_u_u>:
    7e9a:	f3 0f 1e fa          	endbr64 
    7e9e:	55                   	push   %rbp
    7e9f:	48 89 e5             	mov    %rsp,%rbp
    7ea2:	89 f8                	mov    %edi,%eax
    7ea4:	89 75 f8             	mov    %esi,-0x8(%rbp)
    7ea7:	66 89 45 fc          	mov    %ax,-0x4(%rbp)
    7eab:	83 7d f8 1f          	cmpl   $0x1f,-0x8(%rbp)
    7eaf:	77 0f                	ja     7ec0 <safe_rshift_func_uint16_t_u_u+0x26>
    7eb1:	0f b7 55 fc          	movzwl -0x4(%rbp),%edx
    7eb5:	8b 45 f8             	mov    -0x8(%rbp),%eax
    7eb8:	89 c1                	mov    %eax,%ecx
    7eba:	d3 fa                	sar    %cl,%edx
    7ebc:	89 d0                	mov    %edx,%eax
    7ebe:	eb 04                	jmp    7ec4 <safe_rshift_func_uint16_t_u_u+0x2a>
    7ec0:	0f b7 45 fc          	movzwl -0x4(%rbp),%eax
    7ec4:	5d                   	pop    %rbp
    7ec5:	c3                   	retq   

0000000000007ec6 <safe_unary_minus_func_uint32_t_u>:
    7ec6:	f3 0f 1e fa          	endbr64 
    7eca:	55                   	push   %rbp
    7ecb:	48 89 e5             	mov    %rsp,%rbp
    7ece:	89 7d fc             	mov    %edi,-0x4(%rbp)
    7ed1:	8b 45 fc             	mov    -0x4(%rbp),%eax
    7ed4:	f7 d8                	neg    %eax
    7ed6:	5d                   	pop    %rbp
    7ed7:	c3                   	retq   

0000000000007ed8 <safe_add_func_uint32_t_u_u>:
    7ed8:	f3 0f 1e fa          	endbr64 
    7edc:	55                   	push   %rbp
    7edd:	48 89 e5             	mov    %rsp,%rbp
    7ee0:	89 7d fc             	mov    %edi,-0x4(%rbp)
    7ee3:	89 75 f8             	mov    %esi,-0x8(%rbp)
    7ee6:	8b 55 fc             	mov    -0x4(%rbp),%edx
    7ee9:	8b 45 f8             	mov    -0x8(%rbp),%eax
    7eec:	01 d0                	add    %edx,%eax
    7eee:	5d                   	pop    %rbp
    7eef:	c3                   	retq   

0000000000007ef0 <safe_sub_func_uint32_t_u_u>:
    7ef0:	f3 0f 1e fa          	endbr64 
    7ef4:	55                   	push   %rbp
    7ef5:	48 89 e5             	mov    %rsp,%rbp
    7ef8:	89 7d fc             	mov    %edi,-0x4(%rbp)
    7efb:	89 75 f8             	mov    %esi,-0x8(%rbp)
    7efe:	8b 45 fc             	mov    -0x4(%rbp),%eax
    7f01:	2b 45 f8             	sub    -0x8(%rbp),%eax
    7f04:	5d                   	pop    %rbp
    7f05:	c3                   	retq   

0000000000007f06 <safe_mul_func_uint32_t_u_u>:
    7f06:	f3 0f 1e fa          	endbr64 
    7f0a:	55                   	push   %rbp
    7f0b:	48 89 e5             	mov    %rsp,%rbp
    7f0e:	89 7d fc             	mov    %edi,-0x4(%rbp)
    7f11:	89 75 f8             	mov    %esi,-0x8(%rbp)
    7f14:	8b 45 fc             	mov    -0x4(%rbp),%eax
    7f17:	0f af 45 f8          	imul   -0x8(%rbp),%eax
    7f1b:	5d                   	pop    %rbp
    7f1c:	c3                   	retq   

0000000000007f1d <safe_mod_func_uint32_t_u_u>:
    7f1d:	f3 0f 1e fa          	endbr64 
    7f21:	55                   	push   %rbp
    7f22:	48 89 e5             	mov    %rsp,%rbp
    7f25:	89 7d fc             	mov    %edi,-0x4(%rbp)
    7f28:	89 75 f8             	mov    %esi,-0x8(%rbp)
    7f2b:	83 7d f8 00          	cmpl   $0x0,-0x8(%rbp)
    7f2f:	74 0f                	je     7f40 <safe_mod_func_uint32_t_u_u+0x23>
    7f31:	8b 45 fc             	mov    -0x4(%rbp),%eax
    7f34:	ba 00 00 00 00       	mov    $0x0,%edx
    7f39:	f7 75 f8             	divl   -0x8(%rbp)
    7f3c:	89 d0                	mov    %edx,%eax
    7f3e:	eb 03                	jmp    7f43 <safe_mod_func_uint32_t_u_u+0x26>
    7f40:	8b 45 fc             	mov    -0x4(%rbp),%eax
    7f43:	5d                   	pop    %rbp
    7f44:	c3                   	retq   

0000000000007f45 <safe_div_func_uint32_t_u_u>:
    7f45:	f3 0f 1e fa          	endbr64 
    7f49:	55                   	push   %rbp
    7f4a:	48 89 e5             	mov    %rsp,%rbp
    7f4d:	89 7d fc             	mov    %edi,-0x4(%rbp)
    7f50:	89 75 f8             	mov    %esi,-0x8(%rbp)
    7f53:	83 7d f8 00          	cmpl   $0x0,-0x8(%rbp)
    7f57:	74 0d                	je     7f66 <safe_div_func_uint32_t_u_u+0x21>
    7f59:	8b 45 fc             	mov    -0x4(%rbp),%eax
    7f5c:	ba 00 00 00 00       	mov    $0x0,%edx
    7f61:	f7 75 f8             	divl   -0x8(%rbp)
    7f64:	eb 03                	jmp    7f69 <safe_div_func_uint32_t_u_u+0x24>
    7f66:	8b 45 fc             	mov    -0x4(%rbp),%eax
    7f69:	5d                   	pop    %rbp
    7f6a:	c3                   	retq   

0000000000007f6b <safe_lshift_func_uint32_t_u_s>:
    7f6b:	f3 0f 1e fa          	endbr64 
    7f6f:	55                   	push   %rbp
    7f70:	48 89 e5             	mov    %rsp,%rbp
    7f73:	89 7d fc             	mov    %edi,-0x4(%rbp)
    7f76:	89 75 f8             	mov    %esi,-0x8(%rbp)
    7f79:	83 7d f8 00          	cmpl   $0x0,-0x8(%rbp)
    7f7d:	78 27                	js     7fa6 <safe_lshift_func_uint32_t_u_s+0x3b>
    7f7f:	83 7d f8 1f          	cmpl   $0x1f,-0x8(%rbp)
    7f83:	7f 21                	jg     7fa6 <safe_lshift_func_uint32_t_u_s+0x3b>
    7f85:	8b 45 f8             	mov    -0x8(%rbp),%eax
    7f88:	ba ff ff ff ff       	mov    $0xffffffff,%edx
    7f8d:	89 c1                	mov    %eax,%ecx
    7f8f:	d3 ea                	shr    %cl,%edx
    7f91:	89 d0                	mov    %edx,%eax
    7f93:	39 45 fc             	cmp    %eax,-0x4(%rbp)
    7f96:	77 0e                	ja     7fa6 <safe_lshift_func_uint32_t_u_s+0x3b>
    7f98:	8b 45 f8             	mov    -0x8(%rbp),%eax
    7f9b:	8b 55 fc             	mov    -0x4(%rbp),%edx
    7f9e:	89 c1                	mov    %eax,%ecx
    7fa0:	d3 e2                	shl    %cl,%edx
    7fa2:	89 d0                	mov    %edx,%eax
    7fa4:	eb 03                	jmp    7fa9 <safe_lshift_func_uint32_t_u_s+0x3e>
    7fa6:	8b 45 fc             	mov    -0x4(%rbp),%eax
    7fa9:	5d                   	pop    %rbp
    7faa:	c3                   	retq   

0000000000007fab <safe_lshift_func_uint32_t_u_u>:
    7fab:	f3 0f 1e fa          	endbr64 
    7faf:	55                   	push   %rbp
    7fb0:	48 89 e5             	mov    %rsp,%rbp
    7fb3:	89 7d fc             	mov    %edi,-0x4(%rbp)
    7fb6:	89 75 f8             	mov    %esi,-0x8(%rbp)
    7fb9:	83 7d f8 1f          	cmpl   $0x1f,-0x8(%rbp)
    7fbd:	77 21                	ja     7fe0 <safe_lshift_func_uint32_t_u_u+0x35>
    7fbf:	8b 45 f8             	mov    -0x8(%rbp),%eax
    7fc2:	ba ff ff ff ff       	mov    $0xffffffff,%edx
    7fc7:	89 c1                	mov    %eax,%ecx
    7fc9:	d3 ea                	shr    %cl,%edx
    7fcb:	89 d0                	mov    %edx,%eax
    7fcd:	39 45 fc             	cmp    %eax,-0x4(%rbp)
    7fd0:	77 0e                	ja     7fe0 <safe_lshift_func_uint32_t_u_u+0x35>
    7fd2:	8b 45 f8             	mov    -0x8(%rbp),%eax
    7fd5:	8b 55 fc             	mov    -0x4(%rbp),%edx
    7fd8:	89 c1                	mov    %eax,%ecx
    7fda:	d3 e2                	shl    %cl,%edx
    7fdc:	89 d0                	mov    %edx,%eax
    7fde:	eb 03                	jmp    7fe3 <safe_lshift_func_uint32_t_u_u+0x38>
    7fe0:	8b 45 fc             	mov    -0x4(%rbp),%eax
    7fe3:	5d                   	pop    %rbp
    7fe4:	c3                   	retq   

0000000000007fe5 <safe_rshift_func_uint32_t_u_s>:
    7fe5:	f3 0f 1e fa          	endbr64 
    7fe9:	55                   	push   %rbp
    7fea:	48 89 e5             	mov    %rsp,%rbp
    7fed:	89 7d fc             	mov    %edi,-0x4(%rbp)
    7ff0:	89 75 f8             	mov    %esi,-0x8(%rbp)
    7ff3:	83 7d f8 00          	cmpl   $0x0,-0x8(%rbp)
    7ff7:	78 14                	js     800d <safe_rshift_func_uint32_t_u_s+0x28>
    7ff9:	83 7d f8 1f          	cmpl   $0x1f,-0x8(%rbp)
    7ffd:	7f 0e                	jg     800d <safe_rshift_func_uint32_t_u_s+0x28>
    7fff:	8b 45 f8             	mov    -0x8(%rbp),%eax
    8002:	8b 55 fc             	mov    -0x4(%rbp),%edx
    8005:	89 c1                	mov    %eax,%ecx
    8007:	d3 ea                	shr    %cl,%edx
    8009:	89 d0                	mov    %edx,%eax
    800b:	eb 03                	jmp    8010 <safe_rshift_func_uint32_t_u_s+0x2b>
    800d:	8b 45 fc             	mov    -0x4(%rbp),%eax
    8010:	5d                   	pop    %rbp
    8011:	c3                   	retq   

0000000000008012 <safe_rshift_func_uint32_t_u_u>:
    8012:	f3 0f 1e fa          	endbr64 
    8016:	55                   	push   %rbp
    8017:	48 89 e5             	mov    %rsp,%rbp
    801a:	89 7d fc             	mov    %edi,-0x4(%rbp)
    801d:	89 75 f8             	mov    %esi,-0x8(%rbp)
    8020:	83 7d f8 1f          	cmpl   $0x1f,-0x8(%rbp)
    8024:	77 0e                	ja     8034 <safe_rshift_func_uint32_t_u_u+0x22>
    8026:	8b 45 f8             	mov    -0x8(%rbp),%eax
    8029:	8b 55 fc             	mov    -0x4(%rbp),%edx
    802c:	89 c1                	mov    %eax,%ecx
    802e:	d3 ea                	shr    %cl,%edx
    8030:	89 d0                	mov    %edx,%eax
    8032:	eb 03                	jmp    8037 <safe_rshift_func_uint32_t_u_u+0x25>
    8034:	8b 45 fc             	mov    -0x4(%rbp),%eax
    8037:	5d                   	pop    %rbp
    8038:	c3                   	retq   

0000000000008039 <safe_unary_minus_func_uint64_t_u>:
    8039:	f3 0f 1e fa          	endbr64 
    803d:	55                   	push   %rbp
    803e:	48 89 e5             	mov    %rsp,%rbp
    8041:	48 89 7d f8          	mov    %rdi,-0x8(%rbp)
    8045:	48 8b 45 f8          	mov    -0x8(%rbp),%rax
    8049:	48 f7 d8             	neg    %rax
    804c:	5d                   	pop    %rbp
    804d:	c3                   	retq   

000000000000804e <safe_add_func_uint64_t_u_u>:
    804e:	f3 0f 1e fa          	endbr64 
    8052:	55                   	push   %rbp
    8053:	48 89 e5             	mov    %rsp,%rbp
    8056:	48 89 7d f8          	mov    %rdi,-0x8(%rbp)
    805a:	48 89 75 f0          	mov    %rsi,-0x10(%rbp)
    805e:	48 8b 55 f8          	mov    -0x8(%rbp),%rdx
    8062:	48 8b 45 f0          	mov    -0x10(%rbp),%rax
    8066:	48 01 d0             	add    %rdx,%rax
    8069:	5d                   	pop    %rbp
    806a:	c3                   	retq   

000000000000806b <safe_sub_func_uint64_t_u_u>:
    806b:	f3 0f 1e fa          	endbr64 
    806f:	55                   	push   %rbp
    8070:	48 89 e5             	mov    %rsp,%rbp
    8073:	48 89 7d f8          	mov    %rdi,-0x8(%rbp)
    8077:	48 89 75 f0          	mov    %rsi,-0x10(%rbp)
    807b:	48 8b 45 f8          	mov    -0x8(%rbp),%rax
    807f:	48 2b 45 f0          	sub    -0x10(%rbp),%rax
    8083:	5d                   	pop    %rbp
    8084:	c3                   	retq   

0000000000008085 <safe_mul_func_uint64_t_u_u>:
    8085:	f3 0f 1e fa          	endbr64 
    8089:	55                   	push   %rbp
    808a:	48 89 e5             	mov    %rsp,%rbp
    808d:	48 89 7d f8          	mov    %rdi,-0x8(%rbp)
    8091:	48 89 75 f0          	mov    %rsi,-0x10(%rbp)
    8095:	48 8b 45 f8          	mov    -0x8(%rbp),%rax
    8099:	48 0f af 45 f0       	imul   -0x10(%rbp),%rax
    809e:	5d                   	pop    %rbp
    809f:	c3                   	retq   

00000000000080a0 <safe_mod_func_uint64_t_u_u>:
    80a0:	f3 0f 1e fa          	endbr64 
    80a4:	55                   	push   %rbp
    80a5:	48 89 e5             	mov    %rsp,%rbp
    80a8:	48 89 7d f8          	mov    %rdi,-0x8(%rbp)
    80ac:	48 89 75 f0          	mov    %rsi,-0x10(%rbp)
    80b0:	48 83 7d f0 00       	cmpq   $0x0,-0x10(%rbp)
    80b5:	74 12                	je     80c9 <safe_mod_func_uint64_t_u_u+0x29>
    80b7:	48 8b 45 f8          	mov    -0x8(%rbp),%rax
    80bb:	ba 00 00 00 00       	mov    $0x0,%edx
    80c0:	48 f7 75 f0          	divq   -0x10(%rbp)
    80c4:	48 89 d0             	mov    %rdx,%rax
    80c7:	eb 04                	jmp    80cd <safe_mod_func_uint64_t_u_u+0x2d>
    80c9:	48 8b 45 f8          	mov    -0x8(%rbp),%rax
    80cd:	5d                   	pop    %rbp
    80ce:	c3                   	retq   

00000000000080cf <safe_div_func_uint64_t_u_u>:
    80cf:	f3 0f 1e fa          	endbr64 
    80d3:	55                   	push   %rbp
    80d4:	48 89 e5             	mov    %rsp,%rbp
    80d7:	48 89 7d f8          	mov    %rdi,-0x8(%rbp)
    80db:	48 89 75 f0          	mov    %rsi,-0x10(%rbp)
    80df:	48 83 7d f0 00       	cmpq   $0x0,-0x10(%rbp)
    80e4:	74 0f                	je     80f5 <safe_div_func_uint64_t_u_u+0x26>
    80e6:	48 8b 45 f8          	mov    -0x8(%rbp),%rax
    80ea:	ba 00 00 00 00       	mov    $0x0,%edx
    80ef:	48 f7 75 f0          	divq   -0x10(%rbp)
    80f3:	eb 04                	jmp    80f9 <safe_div_func_uint64_t_u_u+0x2a>
    80f5:	48 8b 45 f8          	mov    -0x8(%rbp),%rax
    80f9:	5d                   	pop    %rbp
    80fa:	c3                   	retq   

00000000000080fb <safe_lshift_func_uint64_t_u_s>:
    80fb:	f3 0f 1e fa          	endbr64 
    80ff:	55                   	push   %rbp
    8100:	48 89 e5             	mov    %rsp,%rbp
    8103:	48 89 7d f8          	mov    %rdi,-0x8(%rbp)
    8107:	89 75 f4             	mov    %esi,-0xc(%rbp)
    810a:	83 7d f4 00          	cmpl   $0x0,-0xc(%rbp)
    810e:	78 2f                	js     813f <safe_lshift_func_uint64_t_u_s+0x44>
    8110:	83 7d f4 1f          	cmpl   $0x1f,-0xc(%rbp)
    8114:	7f 29                	jg     813f <safe_lshift_func_uint64_t_u_s+0x44>
    8116:	8b 45 f4             	mov    -0xc(%rbp),%eax
    8119:	48 c7 c2 ff ff ff ff 	mov    $0xffffffffffffffff,%rdx
    8120:	89 c1                	mov    %eax,%ecx
    8122:	48 d3 ea             	shr    %cl,%rdx
    8125:	48 89 d0             	mov    %rdx,%rax
    8128:	48 39 45 f8          	cmp    %rax,-0x8(%rbp)
    812c:	77 11                	ja     813f <safe_lshift_func_uint64_t_u_s+0x44>
    812e:	8b 45 f4             	mov    -0xc(%rbp),%eax
    8131:	48 8b 55 f8          	mov    -0x8(%rbp),%rdx
    8135:	89 c1                	mov    %eax,%ecx
    8137:	48 d3 e2             	shl    %cl,%rdx
    813a:	48 89 d0             	mov    %rdx,%rax
    813d:	eb 04                	jmp    8143 <safe_lshift_func_uint64_t_u_s+0x48>
    813f:	48 8b 45 f8          	mov    -0x8(%rbp),%rax
    8143:	5d                   	pop    %rbp
    8144:	c3                   	retq   

0000000000008145 <safe_lshift_func_uint64_t_u_u>:
    8145:	f3 0f 1e fa          	endbr64 
    8149:	55                   	push   %rbp
    814a:	48 89 e5             	mov    %rsp,%rbp
    814d:	48 89 7d f8          	mov    %rdi,-0x8(%rbp)
    8151:	89 75 f4             	mov    %esi,-0xc(%rbp)
    8154:	83 7d f4 1f          	cmpl   $0x1f,-0xc(%rbp)
    8158:	77 29                	ja     8183 <safe_lshift_func_uint64_t_u_u+0x3e>
    815a:	8b 45 f4             	mov    -0xc(%rbp),%eax
    815d:	48 c7 c2 ff ff ff ff 	mov    $0xffffffffffffffff,%rdx
    8164:	89 c1                	mov    %eax,%ecx
    8166:	48 d3 ea             	shr    %cl,%rdx
    8169:	48 89 d0             	mov    %rdx,%rax
    816c:	48 39 45 f8          	cmp    %rax,-0x8(%rbp)
    8170:	77 11                	ja     8183 <safe_lshift_func_uint64_t_u_u+0x3e>
    8172:	8b 45 f4             	mov    -0xc(%rbp),%eax
    8175:	48 8b 55 f8          	mov    -0x8(%rbp),%rdx
    8179:	89 c1                	mov    %eax,%ecx
    817b:	48 d3 e2             	shl    %cl,%rdx
    817e:	48 89 d0             	mov    %rdx,%rax
    8181:	eb 04                	jmp    8187 <safe_lshift_func_uint64_t_u_u+0x42>
    8183:	48 8b 45 f8          	mov    -0x8(%rbp),%rax
    8187:	5d                   	pop    %rbp
    8188:	c3                   	retq   

0000000000008189 <safe_rshift_func_uint64_t_u_s>:
    8189:	f3 0f 1e fa          	endbr64 
    818d:	55                   	push   %rbp
    818e:	48 89 e5             	mov    %rsp,%rbp
    8191:	48 89 7d f8          	mov    %rdi,-0x8(%rbp)
    8195:	89 75 f4             	mov    %esi,-0xc(%rbp)
    8198:	83 7d f4 00          	cmpl   $0x0,-0xc(%rbp)
    819c:	78 17                	js     81b5 <safe_rshift_func_uint64_t_u_s+0x2c>
    819e:	83 7d f4 1f          	cmpl   $0x1f,-0xc(%rbp)
    81a2:	7f 11                	jg     81b5 <safe_rshift_func_uint64_t_u_s+0x2c>
    81a4:	8b 45 f4             	mov    -0xc(%rbp),%eax
    81a7:	48 8b 55 f8          	mov    -0x8(%rbp),%rdx
    81ab:	89 c1                	mov    %eax,%ecx
    81ad:	48 d3 ea             	shr    %cl,%rdx
    81b0:	48 89 d0             	mov    %rdx,%rax
    81b3:	eb 04                	jmp    81b9 <safe_rshift_func_uint64_t_u_s+0x30>
    81b5:	48 8b 45 f8          	mov    -0x8(%rbp),%rax
    81b9:	5d                   	pop    %rbp
    81ba:	c3                   	retq   

00000000000081bb <safe_rshift_func_uint64_t_u_u>:
    81bb:	f3 0f 1e fa          	endbr64 
    81bf:	55                   	push   %rbp
    81c0:	48 89 e5             	mov    %rsp,%rbp
    81c3:	48 89 7d f8          	mov    %rdi,-0x8(%rbp)
    81c7:	89 75 f4             	mov    %esi,-0xc(%rbp)
    81ca:	83 7d f4 1f          	cmpl   $0x1f,-0xc(%rbp)
    81ce:	77 11                	ja     81e1 <safe_rshift_func_uint64_t_u_u+0x26>
    81d0:	8b 45 f4             	mov    -0xc(%rbp),%eax
    81d3:	48 8b 55 f8          	mov    -0x8(%rbp),%rdx
    81d7:	89 c1                	mov    %eax,%ecx
    81d9:	48 d3 ea             	shr    %cl,%rdx
    81dc:	48 89 d0             	mov    %rdx,%rax
    81df:	eb 04                	jmp    81e5 <safe_rshift_func_uint64_t_u_u+0x2a>
    81e1:	48 8b 45 f8          	mov    -0x8(%rbp),%rax
    81e5:	5d                   	pop    %rbp
    81e6:	c3                   	retq   

00000000000081e7 <safe_add_func_float_f_f>:
    81e7:	f3 0f 1e fa          	endbr64 
    81eb:	55                   	push   %rbp
    81ec:	48 89 e5             	mov    %rsp,%rbp
    81ef:	f3 0f 11 45 fc       	movss  %xmm0,-0x4(%rbp)
    81f4:	f3 0f 11 4d f8       	movss  %xmm1,-0x8(%rbp)
    81f9:	f3 0f 10 4d fc       	movss  -0x4(%rbp),%xmm1
    81fe:	f3 0f 10 05 ba 22 01 	movss  0x122ba(%rip),%xmm0        # 1a4c0 <l_1588.4557+0xc0>
    8205:	00 
    8206:	f3 0f 59 c8          	mulss  %xmm0,%xmm1
    820a:	f3 0f 10 55 f8       	movss  -0x8(%rbp),%xmm2
    820f:	f3 0f 10 05 a9 22 01 	movss  0x122a9(%rip),%xmm0        # 1a4c0 <l_1588.4557+0xc0>
    8216:	00 
    8217:	f3 0f 59 c2          	mulss  %xmm2,%xmm0
    821b:	f3 0f 58 c1          	addss  %xmm1,%xmm0
    821f:	f3 0f 10 0d a9 22 01 	movss  0x122a9(%rip),%xmm1        # 1a4d0 <l_1588.4557+0xd0>
    8226:	00 
    8227:	0f 54 c1             	andps  %xmm1,%xmm0
    822a:	0f 2f 05 af 22 01 00 	comiss 0x122af(%rip),%xmm0        # 1a4e0 <l_1588.4557+0xe0>
    8231:	76 07                	jbe    823a <safe_add_func_float_f_f+0x53>
    8233:	f3 0f 10 45 fc       	movss  -0x4(%rbp),%xmm0
    8238:	eb 0a                	jmp    8244 <safe_add_func_float_f_f+0x5d>
    823a:	f3 0f 10 45 fc       	movss  -0x4(%rbp),%xmm0
    823f:	f3 0f 58 45 f8       	addss  -0x8(%rbp),%xmm0
    8244:	5d                   	pop    %rbp
    8245:	c3                   	retq   

0000000000008246 <safe_sub_func_float_f_f>:
    8246:	f3 0f 1e fa          	endbr64 
    824a:	55                   	push   %rbp
    824b:	48 89 e5             	mov    %rsp,%rbp
    824e:	f3 0f 11 45 fc       	movss  %xmm0,-0x4(%rbp)
    8253:	f3 0f 11 4d f8       	movss  %xmm1,-0x8(%rbp)
    8258:	f3 0f 10 4d fc       	movss  -0x4(%rbp),%xmm1
    825d:	f3 0f 10 05 5b 22 01 	movss  0x1225b(%rip),%xmm0        # 1a4c0 <l_1588.4557+0xc0>
    8264:	00 
    8265:	f3 0f 59 c1          	mulss  %xmm1,%xmm0
    8269:	f3 0f 10 55 f8       	movss  -0x8(%rbp),%xmm2
    826e:	f3 0f 10 0d 4a 22 01 	movss  0x1224a(%rip),%xmm1        # 1a4c0 <l_1588.4557+0xc0>
    8275:	00 
    8276:	f3 0f 59 ca          	mulss  %xmm2,%xmm1
    827a:	f3 0f 5c c1          	subss  %xmm1,%xmm0
    827e:	f3 0f 10 0d 4a 22 01 	movss  0x1224a(%rip),%xmm1        # 1a4d0 <l_1588.4557+0xd0>
    8285:	00 
    8286:	0f 54 c1             	andps  %xmm1,%xmm0
    8289:	0f 2f 05 50 22 01 00 	comiss 0x12250(%rip),%xmm0        # 1a4e0 <l_1588.4557+0xe0>
    8290:	76 07                	jbe    8299 <safe_sub_func_float_f_f+0x53>
    8292:	f3 0f 10 45 fc       	movss  -0x4(%rbp),%xmm0
    8297:	eb 0a                	jmp    82a3 <safe_sub_func_float_f_f+0x5d>
    8299:	f3 0f 10 45 fc       	movss  -0x4(%rbp),%xmm0
    829e:	f3 0f 5c 45 f8       	subss  -0x8(%rbp),%xmm0
    82a3:	5d                   	pop    %rbp
    82a4:	c3                   	retq   

00000000000082a5 <safe_mul_func_float_f_f>:
    82a5:	f3 0f 1e fa          	endbr64 
    82a9:	55                   	push   %rbp
    82aa:	48 89 e5             	mov    %rsp,%rbp
    82ad:	f3 0f 11 45 fc       	movss  %xmm0,-0x4(%rbp)
    82b2:	f3 0f 11 4d f8       	movss  %xmm1,-0x8(%rbp)
    82b7:	f3 0f 10 4d fc       	movss  -0x4(%rbp),%xmm1
    82bc:	f3 0f 10 05 20 22 01 	movss  0x12220(%rip),%xmm0        # 1a4e4 <l_1588.4557+0xe4>
    82c3:	00 
    82c4:	f3 0f 59 c8          	mulss  %xmm0,%xmm1
    82c8:	f3 0f 10 55 f8       	movss  -0x8(%rbp),%xmm2
    82cd:	f3 0f 10 05 13 22 01 	movss  0x12213(%rip),%xmm0        # 1a4e8 <l_1588.4557+0xe8>
    82d4:	00 
    82d5:	f3 0f 59 c2          	mulss  %xmm2,%xmm0
    82d9:	f3 0f 59 c1          	mulss  %xmm1,%xmm0
    82dd:	f3 0f 10 0d eb 21 01 	movss  0x121eb(%rip),%xmm1        # 1a4d0 <l_1588.4557+0xd0>
    82e4:	00 
    82e5:	0f 54 c1             	andps  %xmm1,%xmm0
    82e8:	0f 2f 05 fd 21 01 00 	comiss 0x121fd(%rip),%xmm0        # 1a4ec <l_1588.4557+0xec>
    82ef:	76 07                	jbe    82f8 <safe_mul_func_float_f_f+0x53>
    82f1:	f3 0f 10 45 fc       	movss  -0x4(%rbp),%xmm0
    82f6:	eb 0a                	jmp    8302 <safe_mul_func_float_f_f+0x5d>
    82f8:	f3 0f 10 45 fc       	movss  -0x4(%rbp),%xmm0
    82fd:	f3 0f 59 45 f8       	mulss  -0x8(%rbp),%xmm0
    8302:	5d                   	pop    %rbp
    8303:	c3                   	retq   

0000000000008304 <safe_div_func_float_f_f>:
    8304:	f3 0f 1e fa          	endbr64 
    8308:	55                   	push   %rbp
    8309:	48 89 e5             	mov    %rsp,%rbp
    830c:	f3 0f 11 45 fc       	movss  %xmm0,-0x4(%rbp)
    8311:	f3 0f 11 4d f8       	movss  %xmm1,-0x8(%rbp)
    8316:	f3 0f 10 45 f8       	movss  -0x8(%rbp),%xmm0
    831b:	f3 0f 10 0d ad 21 01 	movss  0x121ad(%rip),%xmm1        # 1a4d0 <l_1588.4557+0xd0>
    8322:	00 
    8323:	0f 54 c8             	andps  %xmm0,%xmm1
    8326:	f3 0f 10 05 c2 21 01 	movss  0x121c2(%rip),%xmm0        # 1a4f0 <l_1588.4557+0xf0>
    832d:	00 
    832e:	0f 2f c1             	comiss %xmm1,%xmm0
    8331:	0f 97 c0             	seta   %al
    8334:	83 f0 01             	xor    $0x1,%eax
    8337:	84 c0                	test   %al,%al
    8339:	75 56                	jne    8391 <safe_div_func_float_f_f+0x8d>
    833b:	66 0f ef c0          	pxor   %xmm0,%xmm0
    833f:	0f 2e 45 f8          	ucomiss -0x8(%rbp),%xmm0
    8343:	7a 0a                	jp     834f <safe_div_func_float_f_f+0x4b>
    8345:	66 0f ef c0          	pxor   %xmm0,%xmm0
    8349:	0f 2e 45 f8          	ucomiss -0x8(%rbp),%xmm0
    834d:	74 4e                	je     839d <safe_div_func_float_f_f+0x99>
    834f:	f3 0f 10 4d fc       	movss  -0x4(%rbp),%xmm1
    8354:	f3 0f 10 05 98 21 01 	movss  0x12198(%rip),%xmm0        # 1a4f4 <l_1588.4557+0xf4>
    835b:	00 
    835c:	f3 0f 59 c1          	mulss  %xmm1,%xmm0
    8360:	f3 0f 10 55 f8       	movss  -0x8(%rbp),%xmm2
    8365:	f3 0f 10 0d 8b 21 01 	movss  0x1218b(%rip),%xmm1        # 1a4f8 <l_1588.4557+0xf8>
    836c:	00 
    836d:	f3 0f 59 ca          	mulss  %xmm2,%xmm1
    8371:	f3 0f 5e c1          	divss  %xmm1,%xmm0
    8375:	f3 0f 10 0d 53 21 01 	movss  0x12153(%rip),%xmm1        # 1a4d0 <l_1588.4557+0xd0>
    837c:	00 
    837d:	0f 54 c1             	andps  %xmm1,%xmm0
    8380:	0f 2f 05 75 21 01 00 	comiss 0x12175(%rip),%xmm0        # 1a4fc <l_1588.4557+0xfc>
    8387:	0f 97 c0             	seta   %al
    838a:	83 f0 01             	xor    $0x1,%eax
    838d:	84 c0                	test   %al,%al
    838f:	74 0c                	je     839d <safe_div_func_float_f_f+0x99>
    8391:	f3 0f 10 45 fc       	movss  -0x4(%rbp),%xmm0
    8396:	f3 0f 5e 45 f8       	divss  -0x8(%rbp),%xmm0
    839b:	eb 05                	jmp    83a2 <safe_div_func_float_f_f+0x9e>
    839d:	f3 0f 10 45 fc       	movss  -0x4(%rbp),%xmm0
    83a2:	5d                   	pop    %rbp
    83a3:	c3                   	retq   

00000000000083a4 <safe_add_func_double_f_f>:
    83a4:	f3 0f 1e fa          	endbr64 
    83a8:	55                   	push   %rbp
    83a9:	48 89 e5             	mov    %rsp,%rbp
    83ac:	f2 0f 11 45 f8       	movsd  %xmm0,-0x8(%rbp)
    83b1:	f2 0f 11 4d f0       	movsd  %xmm1,-0x10(%rbp)
    83b6:	f2 0f 10 4d f8       	movsd  -0x8(%rbp),%xmm1
    83bb:	f2 0f 10 05 3d 21 01 	movsd  0x1213d(%rip),%xmm0        # 1a500 <l_1588.4557+0x100>
    83c2:	00 
    83c3:	f2 0f 59 c8          	mulsd  %xmm0,%xmm1
    83c7:	f2 0f 10 55 f0       	movsd  -0x10(%rbp),%xmm2
    83cc:	f2 0f 10 05 2c 21 01 	movsd  0x1212c(%rip),%xmm0        # 1a500 <l_1588.4557+0x100>
    83d3:	00 
    83d4:	f2 0f 59 c2          	mulsd  %xmm2,%xmm0
    83d8:	f2 0f 58 c1          	addsd  %xmm1,%xmm0
    83dc:	f3 0f 7e 0d 2c 21 01 	movq   0x1212c(%rip),%xmm1        # 1a510 <l_1588.4557+0x110>
    83e3:	00 
    83e4:	66 0f 54 c1          	andpd  %xmm1,%xmm0
    83e8:	66 0f 2f 05 30 21 01 	comisd 0x12130(%rip),%xmm0        # 1a520 <l_1588.4557+0x120>
    83ef:	00 
    83f0:	76 07                	jbe    83f9 <safe_add_func_double_f_f+0x55>
    83f2:	f2 0f 10 45 f8       	movsd  -0x8(%rbp),%xmm0
    83f7:	eb 0a                	jmp    8403 <safe_add_func_double_f_f+0x5f>
    83f9:	f2 0f 10 45 f8       	movsd  -0x8(%rbp),%xmm0
    83fe:	f2 0f 58 45 f0       	addsd  -0x10(%rbp),%xmm0
    8403:	5d                   	pop    %rbp
    8404:	c3                   	retq   

0000000000008405 <safe_sub_func_double_f_f>:
    8405:	f3 0f 1e fa          	endbr64 
    8409:	55                   	push   %rbp
    840a:	48 89 e5             	mov    %rsp,%rbp
    840d:	f2 0f 11 45 f8       	movsd  %xmm0,-0x8(%rbp)
    8412:	f2 0f 11 4d f0       	movsd  %xmm1,-0x10(%rbp)
    8417:	f2 0f 10 4d f8       	movsd  -0x8(%rbp),%xmm1
    841c:	f2 0f 10 05 dc 20 01 	movsd  0x120dc(%rip),%xmm0        # 1a500 <l_1588.4557+0x100>
    8423:	00 
    8424:	f2 0f 59 c1          	mulsd  %xmm1,%xmm0
    8428:	f2 0f 10 55 f0       	movsd  -0x10(%rbp),%xmm2
    842d:	f2 0f 10 0d cb 20 01 	movsd  0x120cb(%rip),%xmm1        # 1a500 <l_1588.4557+0x100>
    8434:	00 
    8435:	f2 0f 59 ca          	mulsd  %xmm2,%xmm1
    8439:	f2 0f 5c c1          	subsd  %xmm1,%xmm0
    843d:	f3 0f 7e 0d cb 20 01 	movq   0x120cb(%rip),%xmm1        # 1a510 <l_1588.4557+0x110>
    8444:	00 
    8445:	66 0f 54 c1          	andpd  %xmm1,%xmm0
    8449:	66 0f 2f 05 cf 20 01 	comisd 0x120cf(%rip),%xmm0        # 1a520 <l_1588.4557+0x120>
    8450:	00 
    8451:	76 07                	jbe    845a <safe_sub_func_double_f_f+0x55>
    8453:	f2 0f 10 45 f8       	movsd  -0x8(%rbp),%xmm0
    8458:	eb 0a                	jmp    8464 <safe_sub_func_double_f_f+0x5f>
    845a:	f2 0f 10 45 f8       	movsd  -0x8(%rbp),%xmm0
    845f:	f2 0f 5c 45 f0       	subsd  -0x10(%rbp),%xmm0
    8464:	5d                   	pop    %rbp
    8465:	c3                   	retq   

0000000000008466 <safe_mul_func_double_f_f>:
    8466:	f3 0f 1e fa          	endbr64 
    846a:	55                   	push   %rbp
    846b:	48 89 e5             	mov    %rsp,%rbp
    846e:	f2 0f 11 45 f8       	movsd  %xmm0,-0x8(%rbp)
    8473:	f2 0f 11 4d f0       	movsd  %xmm1,-0x10(%rbp)
    8478:	f2 0f 10 4d f8       	movsd  -0x8(%rbp),%xmm1
    847d:	f2 0f 10 05 a3 20 01 	movsd  0x120a3(%rip),%xmm0        # 1a528 <l_1588.4557+0x128>
    8484:	00 
    8485:	f2 0f 59 c8          	mulsd  %xmm0,%xmm1
    8489:	f2 0f 10 55 f0       	movsd  -0x10(%rbp),%xmm2
    848e:	f2 0f 10 05 9a 20 01 	movsd  0x1209a(%rip),%xmm0        # 1a530 <l_1588.4557+0x130>
    8495:	00 
    8496:	f2 0f 59 c2          	mulsd  %xmm2,%xmm0
    849a:	f2 0f 59 c1          	mulsd  %xmm1,%xmm0
    849e:	f3 0f 7e 0d 6a 20 01 	movq   0x1206a(%rip),%xmm1        # 1a510 <l_1588.4557+0x110>
    84a5:	00 
    84a6:	66 0f 54 c1          	andpd  %xmm1,%xmm0
    84aa:	66 0f 2f 05 86 20 01 	comisd 0x12086(%rip),%xmm0        # 1a538 <l_1588.4557+0x138>
    84b1:	00 
    84b2:	76 07                	jbe    84bb <safe_mul_func_double_f_f+0x55>
    84b4:	f2 0f 10 45 f8       	movsd  -0x8(%rbp),%xmm0
    84b9:	eb 0a                	jmp    84c5 <safe_mul_func_double_f_f+0x5f>
    84bb:	f2 0f 10 45 f8       	movsd  -0x8(%rbp),%xmm0
    84c0:	f2 0f 59 45 f0       	mulsd  -0x10(%rbp),%xmm0
    84c5:	5d                   	pop    %rbp
    84c6:	c3                   	retq   

00000000000084c7 <safe_div_func_double_f_f>:
    84c7:	f3 0f 1e fa          	endbr64 
    84cb:	55                   	push   %rbp
    84cc:	48 89 e5             	mov    %rsp,%rbp
    84cf:	f2 0f 11 45 f8       	movsd  %xmm0,-0x8(%rbp)
    84d4:	f2 0f 11 4d f0       	movsd  %xmm1,-0x10(%rbp)
    84d9:	f2 0f 10 45 f0       	movsd  -0x10(%rbp),%xmm0
    84de:	f3 0f 7e 0d 2a 20 01 	movq   0x1202a(%rip),%xmm1        # 1a510 <l_1588.4557+0x110>
    84e5:	00 
    84e6:	66 0f 54 c8          	andpd  %xmm0,%xmm1
    84ea:	f2 0f 10 05 4e 20 01 	movsd  0x1204e(%rip),%xmm0        # 1a540 <l_1588.4557+0x140>
    84f1:	00 
    84f2:	66 0f 2f c1          	comisd %xmm1,%xmm0
    84f6:	0f 97 c0             	seta   %al
    84f9:	83 f0 01             	xor    $0x1,%eax
    84fc:	84 c0                	test   %al,%al
    84fe:	75 5a                	jne    855a <safe_div_func_double_f_f+0x93>
    8500:	66 0f ef c0          	pxor   %xmm0,%xmm0
    8504:	66 0f 2e 45 f0       	ucomisd -0x10(%rbp),%xmm0
    8509:	7a 0b                	jp     8516 <safe_div_func_double_f_f+0x4f>
    850b:	66 0f ef c0          	pxor   %xmm0,%xmm0
    850f:	66 0f 2e 45 f0       	ucomisd -0x10(%rbp),%xmm0
    8514:	74 50                	je     8566 <safe_div_func_double_f_f+0x9f>
    8516:	f2 0f 10 4d f8       	movsd  -0x8(%rbp),%xmm1
    851b:	f2 0f 10 05 25 20 01 	movsd  0x12025(%rip),%xmm0        # 1a548 <l_1588.4557+0x148>
    8522:	00 
    8523:	f2 0f 59 c1          	mulsd  %xmm1,%xmm0
    8527:	f2 0f 10 55 f0       	movsd  -0x10(%rbp),%xmm2
    852c:	f2 0f 10 0d 1c 20 01 	movsd  0x1201c(%rip),%xmm1        # 1a550 <l_1588.4557+0x150>
    8533:	00 
    8534:	f2 0f 59 ca          	mulsd  %xmm2,%xmm1
    8538:	f2 0f 5e c1          	divsd  %xmm1,%xmm0
    853c:	f3 0f 7e 0d cc 1f 01 	movq   0x11fcc(%rip),%xmm1        # 1a510 <l_1588.4557+0x110>
    8543:	00 
    8544:	66 0f 54 c1          	andpd  %xmm1,%xmm0
    8548:	66 0f 2f 05 08 20 01 	comisd 0x12008(%rip),%xmm0        # 1a558 <l_1588.4557+0x158>
    854f:	00 
    8550:	0f 97 c0             	seta   %al
    8553:	83 f0 01             	xor    $0x1,%eax
    8556:	84 c0                	test   %al,%al
    8558:	74 0c                	je     8566 <safe_div_func_double_f_f+0x9f>
    855a:	f2 0f 10 45 f8       	movsd  -0x8(%rbp),%xmm0
    855f:	f2 0f 5e 45 f0       	divsd  -0x10(%rbp),%xmm0
    8564:	eb 05                	jmp    856b <safe_div_func_double_f_f+0xa4>
    8566:	f2 0f 10 45 f8       	movsd  -0x8(%rbp),%xmm0
    856b:	5d                   	pop    %rbp
    856c:	c3                   	retq   

000000000000856d <safe_convert_func_float_to_int32_t>:
    856d:	f3 0f 1e fa          	endbr64 
    8571:	55                   	push   %rbp
    8572:	48 89 e5             	mov    %rsp,%rbp
    8575:	f3 0f 11 45 fc       	movss  %xmm0,-0x4(%rbp)
    857a:	f3 0f 10 05 de 1f 01 	movss  0x11fde(%rip),%xmm0        # 1a560 <l_1588.4557+0x160>
    8581:	00 
    8582:	0f 2f 45 fc          	comiss -0x4(%rbp),%xmm0
    8586:	0f 93 c0             	setae  %al
    8589:	83 f0 01             	xor    $0x1,%eax
    858c:	84 c0                	test   %al,%al
    858e:	74 21                	je     85b1 <safe_convert_func_float_to_int32_t+0x44>
    8590:	f3 0f 10 45 fc       	movss  -0x4(%rbp),%xmm0
    8595:	0f 2f 05 c8 1f 01 00 	comiss 0x11fc8(%rip),%xmm0        # 1a564 <l_1588.4557+0x164>
    859c:	0f 93 c0             	setae  %al
    859f:	83 f0 01             	xor    $0x1,%eax
    85a2:	84 c0                	test   %al,%al
    85a4:	74 0b                	je     85b1 <safe_convert_func_float_to_int32_t+0x44>
    85a6:	f3 0f 10 45 fc       	movss  -0x4(%rbp),%xmm0
    85ab:	f3 0f 2c c0          	cvttss2si %xmm0,%eax
    85af:	eb 05                	jmp    85b6 <safe_convert_func_float_to_int32_t+0x49>
    85b1:	b8 ff ff ff 7f       	mov    $0x7fffffff,%eax
    85b6:	5d                   	pop    %rbp
    85b7:	c3                   	retq   

00000000000085b8 <crc32_gentab>:
    85b8:	f3 0f 1e fa          	endbr64 
    85bc:	55                   	push   %rbp
    85bd:	48 89 e5             	mov    %rsp,%rbp
    85c0:	c7 45 fc 20 83 b8 ed 	movl   $0xedb88320,-0x4(%rbp)
    85c7:	c7 45 f4 00 00 00 00 	movl   $0x0,-0xc(%rbp)
    85ce:	eb 51                	jmp    8621 <crc32_gentab+0x69>
    85d0:	8b 45 f4             	mov    -0xc(%rbp),%eax
    85d3:	89 45 f0             	mov    %eax,-0x10(%rbp)
    85d6:	c7 45 f8 08 00 00 00 	movl   $0x8,-0x8(%rbp)
    85dd:	eb 1e                	jmp    85fd <crc32_gentab+0x45>
    85df:	8b 45 f0             	mov    -0x10(%rbp),%eax
    85e2:	83 e0 01             	and    $0x1,%eax
    85e5:	85 c0                	test   %eax,%eax
    85e7:	74 0d                	je     85f6 <crc32_gentab+0x3e>
    85e9:	8b 45 f0             	mov    -0x10(%rbp),%eax
    85ec:	d1 e8                	shr    %eax
    85ee:	33 45 fc             	xor    -0x4(%rbp),%eax
    85f1:	89 45 f0             	mov    %eax,-0x10(%rbp)
    85f4:	eb 03                	jmp    85f9 <crc32_gentab+0x41>
    85f6:	d1 6d f0             	shrl   -0x10(%rbp)
    85f9:	83 6d f8 01          	subl   $0x1,-0x8(%rbp)
    85fd:	83 7d f8 00          	cmpl   $0x0,-0x8(%rbp)
    8601:	7f dc                	jg     85df <crc32_gentab+0x27>
    8603:	8b 45 f4             	mov    -0xc(%rbp),%eax
    8606:	48 98                	cltq   
    8608:	48 8d 0c 85 00 00 00 	lea    0x0(,%rax,4),%rcx
    860f:	00 
    8610:	48 8d 15 c9 86 01 00 	lea    0x186c9(%rip),%rdx        # 20ce0 <crc32_tab>
    8617:	8b 45 f0             	mov    -0x10(%rbp),%eax
    861a:	89 04 11             	mov    %eax,(%rcx,%rdx,1)
    861d:	83 45 f4 01          	addl   $0x1,-0xc(%rbp)
    8621:	81 7d f4 ff 00 00 00 	cmpl   $0xff,-0xc(%rbp)
    8628:	7e a6                	jle    85d0 <crc32_gentab+0x18>
    862a:	90                   	nop
    862b:	90                   	nop
    862c:	5d                   	pop    %rbp
    862d:	c3                   	retq   

000000000000862e <crc32_byte>:
    862e:	f3 0f 1e fa          	endbr64 
    8632:	55                   	push   %rbp
    8633:	48 89 e5             	mov    %rsp,%rbp
    8636:	89 f8                	mov    %edi,%eax
    8638:	88 45 fc             	mov    %al,-0x4(%rbp)
    863b:	8b 05 df 49 01 00    	mov    0x149df(%rip),%eax        # 1d020 <crc32_context>
    8641:	c1 e8 08             	shr    $0x8,%eax
    8644:	89 c1                	mov    %eax,%ecx
    8646:	0f b6 55 fc          	movzbl -0x4(%rbp),%edx
    864a:	8b 05 d0 49 01 00    	mov    0x149d0(%rip),%eax        # 1d020 <crc32_context>
    8650:	31 d0                	xor    %edx,%eax
    8652:	0f b6 c0             	movzbl %al,%eax
    8655:	89 c0                	mov    %eax,%eax
    8657:	48 8d 14 85 00 00 00 	lea    0x0(,%rax,4),%rdx
    865e:	00 
    865f:	48 8d 05 7a 86 01 00 	lea    0x1867a(%rip),%rax        # 20ce0 <crc32_tab>
    8666:	8b 04 02             	mov    (%rdx,%rax,1),%eax
    8669:	31 c8                	xor    %ecx,%eax
    866b:	89 05 af 49 01 00    	mov    %eax,0x149af(%rip)        # 1d020 <crc32_context>
    8671:	90                   	nop
    8672:	5d                   	pop    %rbp
    8673:	c3                   	retq   

0000000000008674 <crc32_8bytes>:
    8674:	f3 0f 1e fa          	endbr64 
    8678:	55                   	push   %rbp
    8679:	48 89 e5             	mov    %rsp,%rbp
    867c:	48 83 ec 08          	sub    $0x8,%rsp
    8680:	48 89 7d f8          	mov    %rdi,-0x8(%rbp)
    8684:	48 8b 45 f8          	mov    -0x8(%rbp),%rax
    8688:	0f b6 c0             	movzbl %al,%eax
    868b:	89 c7                	mov    %eax,%edi
    868d:	e8 9c ff ff ff       	callq  862e <crc32_byte>
    8692:	48 8b 45 f8          	mov    -0x8(%rbp),%rax
    8696:	48 c1 e8 08          	shr    $0x8,%rax
    869a:	0f b6 c0             	movzbl %al,%eax
    869d:	89 c7                	mov    %eax,%edi
    869f:	e8 8a ff ff ff       	callq  862e <crc32_byte>
    86a4:	48 8b 45 f8          	mov    -0x8(%rbp),%rax
    86a8:	48 c1 e8 10          	shr    $0x10,%rax
    86ac:	0f b6 c0             	movzbl %al,%eax
    86af:	89 c7                	mov    %eax,%edi
    86b1:	e8 78 ff ff ff       	callq  862e <crc32_byte>
    86b6:	48 8b 45 f8          	mov    -0x8(%rbp),%rax
    86ba:	48 c1 e8 18          	shr    $0x18,%rax
    86be:	0f b6 c0             	movzbl %al,%eax
    86c1:	89 c7                	mov    %eax,%edi
    86c3:	e8 66 ff ff ff       	callq  862e <crc32_byte>
    86c8:	48 8b 45 f8          	mov    -0x8(%rbp),%rax
    86cc:	48 c1 e8 20          	shr    $0x20,%rax
    86d0:	0f b6 c0             	movzbl %al,%eax
    86d3:	89 c7                	mov    %eax,%edi
    86d5:	e8 54 ff ff ff       	callq  862e <crc32_byte>
    86da:	48 8b 45 f8          	mov    -0x8(%rbp),%rax
    86de:	48 c1 e8 28          	shr    $0x28,%rax
    86e2:	0f b6 c0             	movzbl %al,%eax
    86e5:	89 c7                	mov    %eax,%edi
    86e7:	e8 42 ff ff ff       	callq  862e <crc32_byte>
    86ec:	48 8b 45 f8          	mov    -0x8(%rbp),%rax
    86f0:	48 c1 e8 30          	shr    $0x30,%rax
    86f4:	0f b6 c0             	movzbl %al,%eax
    86f7:	89 c7                	mov    %eax,%edi
    86f9:	e8 30 ff ff ff       	callq  862e <crc32_byte>
    86fe:	48 8b 45 f8          	mov    -0x8(%rbp),%rax
    8702:	48 c1 e8 38          	shr    $0x38,%rax
    8706:	0f b6 c0             	movzbl %al,%eax
    8709:	89 c7                	mov    %eax,%edi
    870b:	e8 1e ff ff ff       	callq  862e <crc32_byte>
    8710:	90                   	nop
    8711:	c9                   	leaveq 
    8712:	c3                   	retq   

0000000000008713 <transparent_crc>:
    8713:	f3 0f 1e fa          	endbr64 
    8717:	55                   	push   %rbp
    8718:	48 89 e5             	mov    %rsp,%rbp
    871b:	48 83 ec 20          	sub    $0x20,%rsp
    871f:	48 89 7d f8          	mov    %rdi,-0x8(%rbp)
    8723:	48 89 75 f0          	mov    %rsi,-0x10(%rbp)
    8727:	89 55 ec             	mov    %edx,-0x14(%rbp)
    872a:	48 8b 45 f8          	mov    -0x8(%rbp),%rax
    872e:	48 89 c7             	mov    %rax,%rdi
    8731:	e8 3e ff ff ff       	callq  8674 <crc32_8bytes>
    8736:	83 7d ec 00          	cmpl   $0x0,-0x14(%rbp)
    873a:	74 22                	je     875e <transparent_crc+0x4b>
    873c:	8b 05 de 48 01 00    	mov    0x148de(%rip),%eax        # 1d020 <crc32_context>
    8742:	f7 d0                	not    %eax
    8744:	89 c2                	mov    %eax,%edx
    8746:	48 8b 45 f0          	mov    -0x10(%rbp),%rax
    874a:	48 89 c6             	mov    %rax,%rsi
    874d:	48 8d 3d dc c8 00 00 	lea    0xc8dc(%rip),%rdi        # 15030 <_IO_stdin_used+0x30>
    8754:	b8 00 00 00 00       	mov    $0x0,%eax
    8759:	e8 32 e9 ff ff       	callq  7090 <printf@plt>
    875e:	90                   	nop
    875f:	c9                   	leaveq 
    8760:	c3                   	retq   

0000000000008761 <transparent_crc_bytes>:
    8761:	f3 0f 1e fa          	endbr64 
    8765:	55                   	push   %rbp
    8766:	48 89 e5             	mov    %rsp,%rbp
    8769:	48 83 ec 30          	sub    $0x30,%rsp
    876d:	48 89 7d e8          	mov    %rdi,-0x18(%rbp)
    8771:	89 75 e4             	mov    %esi,-0x1c(%rbp)
    8774:	48 89 55 d8          	mov    %rdx,-0x28(%rbp)
    8778:	89 4d e0             	mov    %ecx,-0x20(%rbp)
    877b:	c7 45 fc 00 00 00 00 	movl   $0x0,-0x4(%rbp)
    8782:	eb 1e                	jmp    87a2 <transparent_crc_bytes+0x41>
    8784:	8b 45 fc             	mov    -0x4(%rbp),%eax
    8787:	48 63 d0             	movslq %eax,%rdx
    878a:	48 8b 45 e8          	mov    -0x18(%rbp),%rax
    878e:	48 01 d0             	add    %rdx,%rax
    8791:	0f b6 00             	movzbl (%rax),%eax
    8794:	0f b6 c0             	movzbl %al,%eax
    8797:	89 c7                	mov    %eax,%edi
    8799:	e8 90 fe ff ff       	callq  862e <crc32_byte>
    879e:	83 45 fc 01          	addl   $0x1,-0x4(%rbp)
    87a2:	8b 45 fc             	mov    -0x4(%rbp),%eax
    87a5:	3b 45 e4             	cmp    -0x1c(%rbp),%eax
    87a8:	7c da                	jl     8784 <transparent_crc_bytes+0x23>
    87aa:	83 7d e0 00          	cmpl   $0x0,-0x20(%rbp)
    87ae:	74 22                	je     87d2 <transparent_crc_bytes+0x71>
    87b0:	8b 05 6a 48 01 00    	mov    0x1486a(%rip),%eax        # 1d020 <crc32_context>
    87b6:	f7 d0                	not    %eax
    87b8:	89 c2                	mov    %eax,%edx
    87ba:	48 8b 45 d8          	mov    -0x28(%rbp),%rax
    87be:	48 89 c6             	mov    %rax,%rsi
    87c1:	48 8d 3d 68 c8 00 00 	lea    0xc868(%rip),%rdi        # 15030 <_IO_stdin_used+0x30>
    87c8:	b8 00 00 00 00       	mov    $0x0,%eax
    87cd:	e8 be e8 ff ff       	callq  7090 <printf@plt>
    87d2:	90                   	nop
    87d3:	c9                   	leaveq 
    87d4:	c3                   	retq   

00000000000087d5 <func_1>:
    87d5:	f3 0f 1e fa          	endbr64 
    87d9:	55                   	push   %rbp
    87da:	48 89 e5             	mov    %rsp,%rbp
    87dd:	53                   	push   %rbx
    87de:	48 81 ec c8 04 00 00 	sub    $0x4c8,%rsp
    87e5:	48 89 bd 38 fb ff ff 	mov    %rdi,-0x4c8(%rbp)
    87ec:	64 48 8b 04 25 28 00 	mov    %fs:0x28,%rax
    87f3:	00 00 
    87f5:	48 89 45 e8          	mov    %rax,-0x18(%rbp)
    87f9:	31 c0                	xor    %eax,%eax
    87fb:	48 8d 05 22 48 01 00 	lea    0x14822(%rip),%rax        # 1d024 <g_8>
    8802:	48 89 85 78 fb ff ff 	mov    %rax,-0x488(%rbp)
    8809:	c7 85 58 fb ff ff 01 	movl   $0x1,-0x4a8(%rbp)
    8810:	00 00 00 
    8813:	c7 85 5c fb ff ff a5 	movl   $0x89a1faa5,-0x4a4(%rbp)
    881a:	fa a1 89 
    881d:	c7 85 60 fb ff ff 00 	movl   $0x0,-0x4a0(%rbp)
    8824:	00 00 00 
    8827:	c7 85 64 fb ff ff 07 	movl   $0x7,-0x49c(%rbp)
    882e:	00 00 00 
    8831:	c7 85 50 fb ff ff 75 	movl   $0xede5f775,-0x4b0(%rbp)
    8838:	f7 e5 ed 
    883b:	c7 85 d0 fb ff ff 66 	movl   $0x86246566,-0x430(%rbp)
    8842:	65 24 86 
    8845:	c7 85 d4 fb ff ff 05 	movl   $0xaa2fa705,-0x42c(%rbp)
    884c:	a7 2f aa 
    884f:	c7 85 d8 fb ff ff 05 	movl   $0xaa2fa705,-0x428(%rbp)
    8856:	a7 2f aa 
    8859:	c7 85 dc fb ff ff 66 	movl   $0x86246566,-0x424(%rbp)
    8860:	65 24 86 
    8863:	c7 85 e0 fb ff ff 66 	movl   $0x86246566,-0x420(%rbp)
    886a:	65 24 86 
    886d:	c7 85 e4 fb ff ff 05 	movl   $0xaa2fa705,-0x41c(%rbp)
    8874:	a7 2f aa 
    8877:	c7 85 e8 fb ff ff 05 	movl   $0xaa2fa705,-0x418(%rbp)
    887e:	a7 2f aa 
    8881:	c7 85 ec fb ff ff 66 	movl   $0x86246566,-0x414(%rbp)
    8888:	65 24 86 
    888b:	c7 85 f0 fb ff ff 66 	movl   $0x86246566,-0x410(%rbp)
    8892:	65 24 86 
    8895:	c7 85 f4 fb ff ff 05 	movl   $0xaa2fa705,-0x40c(%rbp)
    889c:	a7 2f aa 
    889f:	c7 85 f8 fb ff ff 66 	movl   $0x86246566,-0x408(%rbp)
    88a6:	65 24 86 
    88a9:	c7 85 fc fb ff ff 66 	movl   $0x86246566,-0x404(%rbp)
    88b0:	65 24 86 
    88b3:	c7 85 00 fc ff ff 05 	movl   $0xaa2fa705,-0x400(%rbp)
    88ba:	a7 2f aa 
    88bd:	c7 85 04 fc ff ff 05 	movl   $0xaa2fa705,-0x3fc(%rbp)
    88c4:	a7 2f aa 
    88c7:	c7 85 08 fc ff ff 66 	movl   $0x86246566,-0x3f8(%rbp)
    88ce:	65 24 86 
    88d1:	c7 85 0c fc ff ff 66 	movl   $0x86246566,-0x3f4(%rbp)
    88d8:	65 24 86 
    88db:	c7 85 10 fc ff ff 05 	movl   $0xaa2fa705,-0x3f0(%rbp)
    88e2:	a7 2f aa 
    88e5:	c7 85 14 fc ff ff 05 	movl   $0xaa2fa705,-0x3ec(%rbp)
    88ec:	a7 2f aa 
    88ef:	c7 85 18 fc ff ff 66 	movl   $0x86246566,-0x3e8(%rbp)
    88f6:	65 24 86 
    88f9:	c7 85 1c fc ff ff 66 	movl   $0x86246566,-0x3e4(%rbp)
    8900:	65 24 86 
    8903:	c7 85 68 fb ff ff 8c 	movl   $0x1657508c,-0x498(%rbp)
    890a:	50 57 16 
    890d:	c6 85 4d fb ff ff 7b 	movb   $0x7b,-0x4b3(%rbp)
    8914:	48 8d 05 39 47 01 00 	lea    0x14739(%rip),%rax        # 1d054 <g_93+0x14>
    891b:	48 89 85 80 fb ff ff 	mov    %rax,-0x480(%rbp)
    8922:	48 8d 85 20 fc ff ff 	lea    -0x3e0(%rbp),%rax
    8929:	48 8d 15 30 c7 00 00 	lea    0xc730(%rip),%rdx        # 15060 <g_427+0x8>
    8930:	b9 3c 00 00 00       	mov    $0x3c,%ecx
    8935:	48 89 c7             	mov    %rax,%rdi
    8938:	48 89 d6             	mov    %rdx,%rsi
    893b:	f3 48 a5             	rep movsq %ds:(%rsi),%es:(%rdi)
    893e:	48 8b 1d e3 46 01 00 	mov    0x146e3(%rip),%rbx        # 1d028 <g_11>
    8945:	48 8b 85 78 fb ff ff 	mov    -0x488(%rbp),%rax
    894c:	8b 00                	mov    (%rax),%eax
    894e:	8d 50 ff             	lea    -0x1(%rax),%edx
    8951:	48 8b 85 78 fb ff ff 	mov    -0x488(%rbp),%rax
    8958:	89 10                	mov    %edx,(%rax)
    895a:	48 8b 85 78 fb ff ff 	mov    -0x488(%rbp),%rax
    8961:	8b 00                	mov    (%rax),%eax
    8963:	be 01 00 00 00       	mov    $0x1,%esi
    8968:	89 c7                	mov    %eax,%edi
    896a:	e8 d6 f5 ff ff       	callq  7f45 <safe_div_func_uint32_t_u_u>
    896f:	89 c0                	mov    %eax,%eax
    8971:	48 89 de             	mov    %rbx,%rsi
    8974:	48 89 c7             	mov    %rax,%rdi
    8977:	e8 81 04 00 00       	callq  8dfd <func_2>
    897c:	85 c0                	test   %eax,%eax
    897e:	0f 84 6c 01 00 00    	je     8af0 <func_1+0x31b>
    8984:	48 8d 05 d5 4e 01 00 	lea    0x14ed5(%rip),%rax        # 1d860 <g_1759>
    898b:	48 89 85 98 fb ff ff 	mov    %rax,-0x468(%rbp)
    8992:	48 8d 05 87 4e 01 00 	lea    0x14e87(%rip),%rax        # 1d820 <g_1757>
    8999:	48 89 85 a0 fb ff ff 	mov    %rax,-0x460(%rbp)
    89a0:	48 8d 05 55 54 01 00 	lea    0x15455(%rip),%rax        # 1ddfc <g_2254>
    89a7:	48 89 85 a8 fb ff ff 	mov    %rax,-0x458(%rbp)
    89ae:	c7 85 74 fb ff ff b3 	movl   $0xcb3c9eb3,-0x48c(%rbp)
    89b5:	9e 3c cb 
    89b8:	c6 85 4f fb ff ff 00 	movb   $0x0,-0x4b1(%rbp)
    89bf:	48 8d 85 00 fe ff ff 	lea    -0x200(%rbp),%rax
    89c6:	48 8d 15 73 c8 00 00 	lea    0xc873(%rip),%rdx        # 15240 <g_427+0x1e8>
    89cd:	b9 3c 00 00 00       	mov    $0x3c,%ecx
    89d2:	48 89 c7             	mov    %rax,%rdi
    89d5:	48 89 d6             	mov    %rdx,%rsi
    89d8:	f3 48 a5             	rep movsq %ds:(%rsi),%es:(%rdi)
    89db:	c7 85 54 fb ff ff 00 	movl   $0x0,-0x4ac(%rbp)
    89e2:	00 00 00 
    89e5:	eb 1e                	jmp    8a05 <func_1+0x230>
    89e7:	8b 85 54 fb ff ff    	mov    -0x4ac(%rbp),%eax
    89ed:	48 98                	cltq   
    89ef:	48 8d 15 4a 49 01 00 	lea    0x1494a(%rip),%rdx        # 1d340 <g_658>
    89f6:	48 89 94 c5 b0 fb ff 	mov    %rdx,-0x450(%rbp,%rax,8)
    89fd:	ff 
    89fe:	83 85 54 fb ff ff 01 	addl   $0x1,-0x4ac(%rbp)
    8a05:	83 bd 54 fb ff ff 03 	cmpl   $0x3,-0x4ac(%rbp)
    8a0c:	7e d9                	jle    89e7 <func_1+0x212>
    8a0e:	c6 05 9f 47 01 00 00 	movb   $0x0,0x1479f(%rip)        # 1d1b4 <g_237+0x14>
    8a15:	eb 78                	jmp    8a8f <func_1+0x2ba>
    8a17:	c6 05 66 4d 01 00 00 	movb   $0x0,0x14d66(%rip)        # 1d784 <g_1224>
    8a1e:	eb 54                	jmp    8a74 <func_1+0x29f>
    8a20:	0f b6 05 8d 47 01 00 	movzbl 0x1478d(%rip),%eax        # 1d1b4 <g_237+0x14>
    8a27:	0f b6 c0             	movzbl %al,%eax
    8a2a:	0f b6 15 53 4d 01 00 	movzbl 0x14d53(%rip),%edx        # 1d784 <g_1224>
    8a31:	0f b6 d2             	movzbl %dl,%edx
    8a34:	48 63 ca             	movslq %edx,%rcx
    8a37:	48 63 d0             	movslq %eax,%rdx
    8a3a:	48 89 d0             	mov    %rdx,%rax
    8a3d:	48 c1 e0 02          	shl    $0x2,%rax
    8a41:	48 01 d0             	add    %rdx,%rax
    8a44:	48 01 c0             	add    %rax,%rax
    8a47:	48 01 c8             	add    %rcx,%rax
    8a4a:	48 8d 14 c5 00 00 00 	lea    0x0(,%rax,8),%rdx
    8a51:	00 
    8a52:	48 8d 05 27 7a 01 00 	lea    0x17a27(%rip),%rax        # 20480 <g_980>
    8a59:	48 8d 0d 78 72 01 00 	lea    0x17278(%rip),%rcx        # 1fcd8 <g_362>
    8a60:	48 89 0c 02          	mov    %rcx,(%rdx,%rax,1)
    8a64:	0f b6 05 19 4d 01 00 	movzbl 0x14d19(%rip),%eax        # 1d784 <g_1224>
    8a6b:	83 c0 01             	add    $0x1,%eax
    8a6e:	88 05 10 4d 01 00    	mov    %al,0x14d10(%rip)        # 1d784 <g_1224>
    8a74:	0f b6 05 09 4d 01 00 	movzbl 0x14d09(%rip),%eax        # 1d784 <g_1224>
    8a7b:	3c 09                	cmp    $0x9,%al
    8a7d:	76 a1                	jbe    8a20 <func_1+0x24b>
    8a7f:	0f b6 05 2e 47 01 00 	movzbl 0x1472e(%rip),%eax        # 1d1b4 <g_237+0x14>
    8a86:	83 c0 01             	add    $0x1,%eax
    8a89:	88 05 25 47 01 00    	mov    %al,0x14725(%rip)        # 1d1b4 <g_237+0x14>
    8a8f:	0f b6 05 1e 47 01 00 	movzbl 0x1471e(%rip),%eax        # 1d1b4 <g_237+0x14>
    8a96:	3c 07                	cmp    $0x7,%al
    8a98:	0f 86 79 ff ff ff    	jbe    8a17 <func_1+0x242>
    8a9e:	0f b6 85 4f fb ff ff 	movzbl -0x4b1(%rbp),%eax
    8aa5:	83 c0 01             	add    $0x1,%eax
    8aa8:	88 85 4f fb ff ff    	mov    %al,-0x4b1(%rbp)
    8aae:	48 8b 85 38 fb ff ff 	mov    -0x4c8(%rbp),%rax
    8ab5:	48 8b 8d 78 fe ff ff 	mov    -0x188(%rbp),%rcx
    8abc:	48 8b 9d 80 fe ff ff 	mov    -0x180(%rbp),%rbx
    8ac3:	48 89 08             	mov    %rcx,(%rax)
    8ac6:	48 89 58 08          	mov    %rbx,0x8(%rax)
    8aca:	48 8b 8d 88 fe ff ff 	mov    -0x178(%rbp),%rcx
    8ad1:	48 8b 9d 90 fe ff ff 	mov    -0x170(%rbp),%rbx
    8ad8:	48 89 48 10          	mov    %rcx,0x10(%rax)
    8adc:	48 89 58 18          	mov    %rbx,0x18(%rax)
    8ae0:	48 8b 95 98 fe ff ff 	mov    -0x168(%rbp),%rdx
    8ae7:	48 89 50 20          	mov    %rdx,0x20(%rax)
    8aeb:	e9 e8 02 00 00       	jmpq   8dd8 <func_1+0x603>
    8af0:	c6 85 4e fb ff ff 00 	movb   $0x0,-0x4b2(%rbp)
    8af7:	48 c7 85 88 fb ff ff 	movq   $0x0,-0x478(%rbp)
    8afe:	00 00 00 00 
    8b02:	48 c7 85 90 fb ff ff 	movq   $0x0,-0x470(%rbp)
    8b09:	00 00 00 00 
    8b0d:	c7 85 6c fb ff ff 29 	movl   $0xa1573729,-0x494(%rbp)
    8b14:	37 57 a1 
    8b17:	c7 85 70 fb ff ff 9b 	movl   $0x993c7a9b,-0x490(%rbp)
    8b1e:	7a 3c 99 
    8b21:	0f b6 85 4d fb ff ff 	movzbl -0x4b3(%rbp),%eax
    8b28:	83 e8 01             	sub    $0x1,%eax
    8b2b:	88 85 4d fb ff ff    	mov    %al,-0x4b3(%rbp)
    8b31:	8b 85 6c fb ff ff    	mov    -0x494(%rbp),%eax
    8b37:	0f b7 d8             	movzwl %ax,%ebx
    8b3a:	48 8b 05 0f 7e 01 00 	mov    0x17e0f(%rip),%rax        # 20950 <g_1848>
    8b41:	48 8b 00             	mov    (%rax),%rax
    8b44:	48 39 85 90 fb ff ff 	cmp    %rax,-0x470(%rbp)
    8b4b:	74 10                	je     8b5d <func_1+0x388>
    8b4d:	80 bd 4e fb ff ff 00 	cmpb   $0x0,-0x4b2(%rbp)
    8b54:	74 07                	je     8b5d <func_1+0x388>
    8b56:	b8 01 00 00 00       	mov    $0x1,%eax
    8b5b:	eb 05                	jmp    8b62 <func_1+0x38d>
    8b5d:	b8 00 00 00 00       	mov    $0x0,%eax
    8b62:	0f b6 c0             	movzbl %al,%eax
    8b65:	be 07 00 00 00       	mov    $0x7,%esi
    8b6a:	89 c7                	mov    %eax,%edi
    8b6c:	e8 fb f0 ff ff       	callq  7c6c <safe_lshift_func_uint8_t_u_u>
    8b71:	0f b6 d0             	movzbl %al,%edx
    8b74:	48 8b 05 d5 7d 01 00 	mov    0x17dd5(%rip),%rax        # 20950 <g_1848>
    8b7b:	48 8b 00             	mov    (%rax),%rax
    8b7e:	48 8b 00             	mov    (%rax),%rax
    8b81:	48 8b 00             	mov    (%rax),%rax
    8b84:	48 39 c2             	cmp    %rax,%rdx
    8b87:	0f 97 c0             	seta   %al
    8b8a:	0f b6 d0             	movzbl %al,%edx
    8b8d:	0f b6 85 4d fb ff ff 	movzbl -0x4b3(%rbp),%eax
    8b94:	31 d0                	xor    %edx,%eax
    8b96:	98                   	cwtl   
    8b97:	be 3d de ff ff       	mov    $0xffffde3d,%esi
    8b9c:	89 c7                	mov    %eax,%edi
    8b9e:	e8 d2 e8 ff ff       	callq  7475 <safe_div_func_int16_t_s_s>
    8ba3:	be f2 ed 00 00       	mov    $0xedf2,%esi
    8ba8:	bf 01 00 00 00       	mov    $0x1,%edi
    8bad:	e8 ca f1 ff ff       	callq  7d7c <safe_mod_func_uint16_t_u_u>
    8bb2:	98                   	cwtl   
    8bb3:	be f9 ff ff ff       	mov    $0xfffffff9,%esi
    8bb8:	89 c7                	mov    %eax,%edi
    8bba:	e8 b6 e8 ff ff       	callq  7475 <safe_div_func_int16_t_s_s>
    8bbf:	89 c2                	mov    %eax,%edx
    8bc1:	8b 85 60 fb ff ff    	mov    -0x4a0(%rbp),%eax
    8bc7:	31 d0                	xor    %edx,%eax
    8bc9:	0f be d0             	movsbl %al,%edx
    8bcc:	48 83 bd 80 fb ff ff 	cmpq   $0x0,-0x480(%rbp)
    8bd3:	00 
    8bd4:	0f 95 c0             	setne  %al
    8bd7:	0f b6 c0             	movzbl %al,%eax
    8bda:	89 d6                	mov    %edx,%esi
    8bdc:	89 c7                	mov    %eax,%edi
    8bde:	e8 4f e6 ff ff       	callq  7232 <safe_mul_func_int8_t_s_s>
    8be3:	8b 85 10 fc ff ff    	mov    -0x3f0(%rbp),%eax
    8be9:	83 c8 01             	or     $0x1,%eax
    8bec:	be d1 8f e5 1d       	mov    $0x1de58fd1,%esi
    8bf1:	89 c7                	mov    %eax,%edi
    8bf3:	e8 25 f3 ff ff       	callq  7f1d <safe_mod_func_uint32_t_u_u>
    8bf8:	be 5a 2e 08 06       	mov    $0x6082e5a,%esi
    8bfd:	89 c7                	mov    %eax,%edi
    8bff:	e8 d4 f2 ff ff       	callq  7ed8 <safe_add_func_uint32_t_u_u>
    8c04:	8b 95 58 fb ff ff    	mov    -0x4a8(%rbp),%edx
    8c0a:	21 d0                	and    %edx,%eax
    8c0c:	85 c0                	test   %eax,%eax
    8c0e:	74 10                	je     8c20 <func_1+0x44b>
    8c10:	80 bd 4e fb ff ff 00 	cmpb   $0x0,-0x4b2(%rbp)
    8c17:	74 07                	je     8c20 <func_1+0x44b>
    8c19:	ba 01 00 00 00       	mov    $0x1,%edx
    8c1e:	eb 05                	jmp    8c25 <func_1+0x450>
    8c20:	ba 00 00 00 00       	mov    $0x0,%edx
    8c25:	48 8b 05 74 70 01 00 	mov    0x17074(%rip),%rax        # 1fca0 <g_228>
    8c2c:	48 8b 08             	mov    (%rax),%rcx
    8c2f:	48 63 d2             	movslq %edx,%rdx
    8c32:	48 8b 05 67 70 01 00 	mov    0x17067(%rip),%rax        # 1fca0 <g_228>
    8c39:	48 21 ca             	and    %rcx,%rdx
    8c3c:	48 89 10             	mov    %rdx,(%rax)
    8c3f:	48 8b 10             	mov    (%rax),%rdx
    8c42:	8b 85 6c fb ff ff    	mov    -0x494(%rbp),%eax
    8c48:	48 98                	cltq   
    8c4a:	48 39 c2             	cmp    %rax,%rdx
    8c4d:	0f 92 c0             	setb   %al
    8c50:	0f b6 c0             	movzbl %al,%eax
    8c53:	be ff ff ff ff       	mov    $0xffffffff,%esi
    8c58:	89 c7                	mov    %eax,%edi
    8c5a:	e8 79 f2 ff ff       	callq  7ed8 <safe_add_func_uint32_t_u_u>
    8c5f:	8b 95 70 fb ff ff    	mov    -0x490(%rbp),%edx
    8c65:	09 c2                	or     %eax,%edx
    8c67:	8b 85 10 fc ff ff    	mov    -0x3f0(%rbp),%eax
    8c6d:	39 c2                	cmp    %eax,%edx
    8c6f:	0f 96 c0             	setbe  %al
    8c72:	0f b6 c0             	movzbl %al,%eax
    8c75:	be 81 ff ff ff       	mov    $0xffffff81,%esi
    8c7a:	89 c7                	mov    %eax,%edi
    8c7c:	e8 b1 e5 ff ff       	callq  7232 <safe_mul_func_int8_t_s_s>
    8c81:	66 98                	cbtw   
    8c83:	0f b7 c0             	movzwl %ax,%eax
    8c86:	89 de                	mov    %ebx,%esi
    8c88:	89 c7                	mov    %eax,%edi
    8c8a:	e8 ed f0 ff ff       	callq  7d7c <safe_mod_func_uint16_t_u_u>
    8c8f:	0f b7 c0             	movzwl %ax,%eax
    8c92:	89 85 70 fb ff ff    	mov    %eax,-0x490(%rbp)
    8c98:	c7 85 50 fb ff ff 00 	movl   $0x0,-0x4b0(%rbp)
    8c9f:	00 00 00 
    8ca2:	e9 e4 00 00 00       	jmpq   8d8b <func_1+0x5b6>
    8ca7:	48 c7 85 00 fe ff ff 	movq   $0xfffffffffffffffe,-0x200(%rbp)
    8cae:	fe ff ff ff 
    8cb2:	48 b8 2d b0 5f e7 d2 	movabs $0x996f87d2e75fb02d,%rax
    8cb9:	87 6f 99 
    8cbc:	48 89 85 08 fe ff ff 	mov    %rax,-0x1f8(%rbp)
    8cc3:	48 c7 85 10 fe ff ff 	movq   $0xfffffffffffffff9,-0x1f0(%rbp)
    8cca:	f9 ff ff ff 
    8cce:	48 c7 85 18 fe ff ff 	movq   $0xfffffffffffffffe,-0x1e8(%rbp)
    8cd5:	fe ff ff ff 
    8cd9:	48 c7 85 20 fe ff ff 	movq   $0xfffffffffffffffe,-0x1e0(%rbp)
    8ce0:	fe ff ff ff 
    8ce4:	48 89 85 28 fe ff ff 	mov    %rax,-0x1d8(%rbp)
    8ceb:	48 c7 85 30 fe ff ff 	movq   $0xfffffffffffffff6,-0x1d0(%rbp)
    8cf2:	f6 ff ff ff 
    8cf6:	48 89 85 38 fe ff ff 	mov    %rax,-0x1c8(%rbp)
    8cfd:	48 89 85 40 fe ff ff 	mov    %rax,-0x1c0(%rbp)
    8d04:	48 89 85 48 fe ff ff 	mov    %rax,-0x1b8(%rbp)
    8d0b:	48 bb e2 38 69 12 fc 	movabs $0x413353fc126938e2,%rbx
    8d12:	53 33 41 
    8d15:	48 89 9d 50 fe ff ff 	mov    %rbx,-0x1b0(%rbp)
    8d1c:	48 c7 85 58 fe ff ff 	movq   $0xfffffffffffffff9,-0x1a8(%rbp)
    8d23:	f9 ff ff ff 
    8d27:	48 c7 85 60 fe ff ff 	movq   $0xfffffffffffffff6,-0x1a0(%rbp)
    8d2e:	f6 ff ff ff 
    8d32:	48 89 9d 68 fe ff ff 	mov    %rbx,-0x198(%rbp)
    8d39:	48 c7 85 70 fe ff ff 	movq   $0xfffffffffffffff6,-0x190(%rbp)
    8d40:	f6 ff ff ff 
    8d44:	48 c7 85 78 fe ff ff 	movq   $0xfffffffffffffffe,-0x188(%rbp)
    8d4b:	fe ff ff ff 
    8d4f:	48 89 85 80 fe ff ff 	mov    %rax,-0x180(%rbp)
    8d56:	48 c7 85 88 fe ff ff 	movq   $0xfffffffffffffff9,-0x178(%rbp)
    8d5d:	f9 ff ff ff 
    8d61:	48 8b 85 70 fe ff ff 	mov    -0x190(%rbp),%rax
    8d68:	48 85 c0             	test   %rax,%rax
    8d6b:	75 2d                	jne    8d9a <func_1+0x5c5>
    8d6d:	8b 85 50 fb ff ff    	mov    -0x4b0(%rbp),%eax
    8d73:	0f b6 c0             	movzbl %al,%eax
    8d76:	be 06 00 00 00       	mov    $0x6,%esi
    8d7b:	89 c7                	mov    %eax,%edi
    8d7d:	e8 16 ee ff ff       	callq  7b98 <safe_sub_func_uint8_t_u_u>
    8d82:	0f b6 c0             	movzbl %al,%eax
    8d85:	89 85 50 fb ff ff    	mov    %eax,-0x4b0(%rbp)
    8d8b:	83 bd 50 fb ff ff ee 	cmpl   $0xffffffee,-0x4b0(%rbp)
    8d92:	0f 85 0f ff ff ff    	jne    8ca7 <func_1+0x4d2>
    8d98:	eb 01                	jmp    8d9b <func_1+0x5c6>
    8d9a:	90                   	nop
    8d9b:	48 8b 85 38 fb ff ff 	mov    -0x4c8(%rbp),%rax
    8da2:	48 8b 8d 48 fc ff ff 	mov    -0x3b8(%rbp),%rcx
    8da9:	48 8b 9d 50 fc ff ff 	mov    -0x3b0(%rbp),%rbx
    8db0:	48 89 08             	mov    %rcx,(%rax)
    8db3:	48 89 58 08          	mov    %rbx,0x8(%rax)
    8db7:	48 8b 8d 58 fc ff ff 	mov    -0x3a8(%rbp),%rcx
    8dbe:	48 8b 9d 60 fc ff ff 	mov    -0x3a0(%rbp),%rbx
    8dc5:	48 89 48 10          	mov    %rcx,0x10(%rax)
    8dc9:	48 89 58 18          	mov    %rbx,0x18(%rax)
    8dcd:	48 8b 95 68 fc ff ff 	mov    -0x398(%rbp),%rdx
    8dd4:	48 89 50 20          	mov    %rdx,0x20(%rax)
    8dd8:	48 8b 45 e8          	mov    -0x18(%rbp),%rax
    8ddc:	64 48 33 04 25 28 00 	xor    %fs:0x28,%rax
    8de3:	00 00 
    8de5:	74 05                	je     8dec <func_1+0x617>
    8de7:	e8 94 e2 ff ff       	callq  7080 <__stack_chk_fail@plt>
    8dec:	48 8b 85 38 fb ff ff 	mov    -0x4c8(%rbp),%rax
    8df3:	48 81 c4 c8 04 00 00 	add    $0x4c8,%rsp
    8dfa:	5b                   	pop    %rbx
    8dfb:	5d                   	pop    %rbp
    8dfc:	c3                   	retq   

0000000000008dfd <func_2>:
    8dfd:	f3 0f 1e fa          	endbr64 
    8e01:	55                   	push   %rbp
    8e02:	48 89 e5             	mov    %rsp,%rbp
    8e05:	41 57                	push   %r15
    8e07:	41 56                	push   %r14
    8e09:	41 55                	push   %r13
    8e0b:	41 54                	push   %r12
    8e0d:	53                   	push   %rbx
    8e0e:	48 81 ec 00 10 00 00 	sub    $0x1000,%rsp
    8e15:	48 83 0c 24 00       	orq    $0x0,(%rsp)
    8e1a:	48 81 ec 78 07 00 00 	sub    $0x778,%rsp
    8e21:	48 89 bd 78 e8 ff ff 	mov    %rdi,-0x1788(%rbp)
    8e28:	48 89 b5 70 e8 ff ff 	mov    %rsi,-0x1790(%rbp)
    8e2f:	64 48 8b 04 25 28 00 	mov    %fs:0x28,%rax
    8e36:	00 00 
    8e38:	48 89 45 c8          	mov    %rax,-0x38(%rbp)
    8e3c:	31 c0                	xor    %eax,%eax
    8e3e:	c6 85 8c e8 ff ff 9e 	movb   $0x9e,-0x1774(%rbp)
    8e45:	c6 85 8a e8 ff ff ff 	movb   $0xff,-0x1776(%rbp)
    8e4c:	48 8d 85 10 f2 ff ff 	lea    -0xdf0(%rbp),%rax
    8e53:	48 8d 15 c6 c5 00 00 	lea    0xc5c6(%rip),%rdx        # 15420 <g_427+0x3c8>
    8e5a:	b9 24 00 00 00       	mov    $0x24,%ecx
    8e5f:	48 89 c7             	mov    %rax,%rdi
    8e62:	48 89 d6             	mov    %rdx,%rsi
    8e65:	f3 48 a5             	rep movsq %ds:(%rsi),%es:(%rdi)
    8e68:	c7 85 98 e8 ff ff ff 	movl   $0xffffffff,-0x1768(%rbp)
    8e6f:	ff ff ff 
    8e72:	48 8d 05 23 45 01 00 	lea    0x14523(%rip),%rax        # 1d39c <g_712+0x1c>
    8e79:	48 89 85 d8 e9 ff ff 	mov    %rax,-0x1628(%rbp)
    8e80:	48 8d 05 89 6e 01 00 	lea    0x16e89(%rip),%rax        # 1fd10 <g_437>
    8e87:	48 89 85 58 e9 ff ff 	mov    %rax,-0x16a8(%rbp)
    8e8e:	c7 85 f8 e8 ff ff ff 	movl   $0xffffffff,-0x1708(%rbp)
    8e95:	ff ff ff 
    8e98:	48 8d 85 f0 f0 ff ff 	lea    -0xf10(%rbp),%rax
    8e9f:	48 8d 15 9a c6 00 00 	lea    0xc69a(%rip),%rdx        # 15540 <g_427+0x4e8>
    8ea6:	b9 23 00 00 00       	mov    $0x23,%ecx
    8eab:	48 89 c7             	mov    %rax,%rdi
    8eae:	48 89 d6             	mov    %rdx,%rsi
    8eb1:	f3 48 a5             	rep movsq %ds:(%rsi),%es:(%rdi)
    8eb4:	48 8d 05 a5 82 01 00 	lea    0x182a5(%rip),%rax        # 21160 <g_1781>
    8ebb:	48 89 85 e0 e9 ff ff 	mov    %rax,-0x1620(%rbp)
    8ec2:	48 8d 85 58 e9 ff ff 	lea    -0x16a8(%rbp),%rax
    8ec9:	48 89 85 60 e9 ff ff 	mov    %rax,-0x16a0(%rbp)
    8ed0:	48 8d 05 1b 42 01 00 	lea    0x1421b(%rip),%rax        # 1d0f2 <g_205+0x2>
    8ed7:	48 89 85 68 e9 ff ff 	mov    %rax,-0x1698(%rbp)
    8ede:	48 8d 85 68 e9 ff ff 	lea    -0x1698(%rbp),%rax
    8ee5:	48 89 85 e8 e9 ff ff 	mov    %rax,-0x1618(%rbp)
    8eec:	48 8d 05 69 82 01 00 	lea    0x18269(%rip),%rax        # 2115c <g_1353>
    8ef3:	48 89 85 f0 e9 ff ff 	mov    %rax,-0x1610(%rbp)
    8efa:	c7 85 c0 ee ff ff e8 	movl   $0x99f47fe8,-0x1140(%rbp)
    8f01:	7f f4 99 
    8f04:	c6 85 c4 ee ff ff 00 	movb   $0x0,-0x113c(%rbp)
    8f0b:	48 b8 c3 b9 b7 ea bf 	movabs $0x5c0450bfeab7b9c3,%rax
    8f12:	50 04 5c 
    8f15:	48 89 85 c8 ee ff ff 	mov    %rax,-0x1138(%rbp)
    8f1c:	c7 85 d0 ee ff ff fd 	movl   $0xfffffffd,-0x1130(%rbp)
    8f23:	ff ff ff 
    8f26:	c6 85 d4 ee ff ff 3c 	movb   $0x3c,-0x112c(%rbp)
    8f2d:	c7 85 d8 ee ff ff 00 	movl   $0x0,-0x1128(%rbp)
    8f34:	00 00 00 
    8f37:	66 c7 85 dc ee ff ff 	movw   $0xfffd,-0x1124(%rbp)
    8f3e:	fd ff 
    8f40:	c7 85 e0 ee ff ff 00 	movl   $0x0,-0x1120(%rbp)
    8f47:	00 00 00 
    8f4a:	c6 85 e4 ee ff ff 01 	movb   $0x1,-0x111c(%rbp)
    8f51:	c6 85 e5 ee ff ff 01 	movb   $0x1,-0x111b(%rbp)
    8f58:	c7 85 e8 ee ff ff e8 	movl   $0x99f47fe8,-0x1118(%rbp)
    8f5f:	7f f4 99 
    8f62:	c6 85 ec ee ff ff 00 	movb   $0x0,-0x1114(%rbp)
    8f69:	48 89 85 f0 ee ff ff 	mov    %rax,-0x1110(%rbp)
    8f70:	c7 85 f8 ee ff ff fd 	movl   $0xfffffffd,-0x1108(%rbp)
    8f77:	ff ff ff 
    8f7a:	c6 85 fc ee ff ff 3c 	movb   $0x3c,-0x1104(%rbp)
    8f81:	c7 85 00 ef ff ff 00 	movl   $0x0,-0x1100(%rbp)
    8f88:	00 00 00 
    8f8b:	66 c7 85 04 ef ff ff 	movw   $0xfffd,-0x10fc(%rbp)
    8f92:	fd ff 
    8f94:	c7 85 08 ef ff ff 00 	movl   $0x0,-0x10f8(%rbp)
    8f9b:	00 00 00 
    8f9e:	c6 85 0c ef ff ff 01 	movb   $0x1,-0x10f4(%rbp)
    8fa5:	c6 85 0d ef ff ff 01 	movb   $0x1,-0x10f3(%rbp)
    8fac:	48 8d 05 6d 48 01 00 	lea    0x1486d(%rip),%rax        # 1d820 <g_1757>
    8fb3:	48 89 85 f8 e9 ff ff 	mov    %rax,-0x1608(%rbp)
    8fba:	c7 85 a8 e8 ff ff 1a 	movl   $0xb120fd1a,-0x1758(%rbp)
    8fc1:	fd 20 b1 
    8fc4:	48 c7 85 00 ea ff ff 	movq   $0x0,-0x1600(%rbp)
    8fcb:	00 00 00 00 
    8fcf:	48 8d 05 5a 6d 01 00 	lea    0x16d5a(%rip),%rax        # 1fd30 <g_473>
    8fd6:	48 89 85 08 ea ff ff 	mov    %rax,-0x15f8(%rbp)
    8fdd:	66 c7 85 94 e8 ff ff 	movw   $0x6385,-0x176c(%rbp)
    8fe4:	85 63 
    8fe6:	48 8d 05 db 77 01 00 	lea    0x177db(%rip),%rax        # 207c8 <g_1779+0x8>
    8fed:	48 89 85 10 ea ff ff 	mov    %rax,-0x15f0(%rbp)
    8ff4:	48 c7 85 70 e9 ff ff 	movq   $0x0,-0x1690(%rbp)
    8ffb:	00 00 00 00 
    8fff:	48 8d 85 70 e9 ff ff 	lea    -0x1690(%rbp),%rax
    9006:	48 89 85 78 e9 ff ff 	mov    %rax,-0x1688(%rbp)
    900d:	48 8d 85 78 e9 ff ff 	lea    -0x1688(%rbp),%rax
    9014:	48 89 85 18 ea ff ff 	mov    %rax,-0x15e8(%rbp)
    901b:	c7 85 a0 e8 ff ff 00 	movl   $0x0,-0x1760(%rbp)
    9022:	00 00 00 
    9025:	eb 1e                	jmp    9045 <func_2+0x248>
    9027:	8b 85 a0 e8 ff ff    	mov    -0x1760(%rbp),%eax
    902d:	48 98                	cltq   
    902f:	48 8d 15 6a 6c 01 00 	lea    0x16c6a(%rip),%rdx        # 1fca0 <g_228>
    9036:	48 89 94 c5 20 ee ff 	mov    %rdx,-0x11e0(%rbp,%rax,8)
    903d:	ff 
    903e:	83 85 a0 e8 ff ff 01 	addl   $0x1,-0x1760(%rbp)
    9045:	83 bd a0 e8 ff ff 08 	cmpl   $0x8,-0x1760(%rbp)
    904c:	7e d9                	jle    9027 <func_2+0x22a>
    904e:	c7 85 a0 e8 ff ff 00 	movl   $0x0,-0x1760(%rbp)
    9055:	00 00 00 
    9058:	eb 1a                	jmp    9074 <func_2+0x277>
    905a:	8b 85 a0 e8 ff ff    	mov    -0x1760(%rbp),%eax
    9060:	48 98                	cltq   
    9062:	c7 84 85 a0 ec ff ff 	movl   $0xf0388e5c,-0x1360(%rbp,%rax,4)
    9069:	5c 8e 38 f0 
    906d:	83 85 a0 e8 ff ff 01 	addl   $0x1,-0x1760(%rbp)
    9074:	83 bd a0 e8 ff ff 09 	cmpl   $0x9,-0x1760(%rbp)
    907b:	7e dd                	jle    905a <func_2+0x25d>
    907d:	c7 85 a0 e8 ff ff 00 	movl   $0x0,-0x1760(%rbp)
    9084:	00 00 00 
    9087:	eb 1e                	jmp    90a7 <func_2+0x2aa>
    9089:	8b 85 a0 e8 ff ff    	mov    -0x1760(%rbp),%eax
    908f:	48 98                	cltq   
    9091:	48 8d 15 c0 78 01 00 	lea    0x178c0(%rip),%rdx        # 20958 <g_1861>
    9098:	48 89 94 c5 d0 ec ff 	mov    %rdx,-0x1330(%rbp,%rax,8)
    909f:	ff 
    90a0:	83 85 a0 e8 ff ff 01 	addl   $0x1,-0x1760(%rbp)
    90a7:	83 bd a0 e8 ff ff 04 	cmpl   $0x4,-0x1760(%rbp)
    90ae:	7e d9                	jle    9089 <func_2+0x28c>
    90b0:	c7 05 6a 3f 01 00 03 	movl   $0x3,0x13f6a(%rip)        # 1d024 <g_8>
    90b7:	00 00 00 
    90ba:	e9 88 01 00 00       	jmpq   9247 <func_2+0x44a>
    90bf:	48 8d 05 5e 3f 01 00 	lea    0x13f5e(%rip),%rax        # 1d024 <g_8>
    90c6:	48 89 85 98 eb ff ff 	mov    %rax,-0x1468(%rbp)
    90cd:	48 8d 05 cc 40 01 00 	lea    0x140cc(%rip),%rax        # 1d1a0 <g_237>
    90d4:	48 89 85 a0 eb ff ff 	mov    %rax,-0x1460(%rbp)
    90db:	48 c7 85 a8 eb ff ff 	movq   $0x0,-0x1458(%rbp)
    90e2:	00 00 00 00 
    90e6:	c7 85 a4 e8 ff ff 00 	movl   $0x0,-0x175c(%rbp)
    90ed:	00 00 00 
    90f0:	eb 14                	jmp    9106 <func_2+0x309>
    90f2:	8b 85 a4 e8 ff ff    	mov    -0x175c(%rbp),%eax
    90f8:	48 98                	cltq   
    90fa:	c6 44 05 c7 35       	movb   $0x35,-0x39(%rbp,%rax,1)
    90ff:	83 85 a4 e8 ff ff 01 	addl   $0x1,-0x175c(%rbp)
    9106:	83 bd a4 e8 ff ff 00 	cmpl   $0x0,-0x175c(%rbp)
    910d:	7e e3                	jle    90f2 <func_2+0x2f5>
    910f:	48 8b 85 08 f3 ff ff 	mov    -0xcf8(%rbp),%rax
    9116:	41 89 c4             	mov    %eax,%r12d
    9119:	0f be 9d 8c e8 ff ff 	movsbl -0x1774(%rbp),%ebx
    9120:	48 8b 85 98 eb ff ff 	mov    -0x1468(%rbp),%rax
    9127:	48 89 c6             	mov    %rax,%rsi
    912a:	48 8d 3d f3 3e 01 00 	lea    0x13ef3(%rip),%rdi        # 1d024 <g_8>
    9131:	e8 02 4d 00 00       	callq  de38 <func_26>
    9136:	0f b6 d0             	movzbl %al,%edx
    9139:	8b 05 51 42 01 00    	mov    0x14251(%rip),%eax        # 1d390 <g_712+0x10>
    913f:	89 c0                	mov    %eax,%eax
    9141:	48 39 85 70 e8 ff ff 	cmp    %rax,-0x1790(%rbp)
    9148:	0f 95 c0             	setne  %al
    914b:	0f b6 c8             	movzbl %al,%ecx
    914e:	0f b6 45 c7          	movzbl -0x39(%rbp),%eax
    9152:	0f b6 c0             	movzbl %al,%eax
    9155:	39 c1                	cmp    %eax,%ecx
    9157:	0f 9f c0             	setg   %al
    915a:	0f b6 c0             	movzbl %al,%eax
    915d:	39 c2                	cmp    %eax,%edx
    915f:	0f 95 c0             	setne  %al
    9162:	0f b6 c0             	movzbl %al,%eax
    9165:	89 de                	mov    %ebx,%esi
    9167:	89 c7                	mov    %eax,%edi
    9169:	e8 af ed ff ff       	callq  7f1d <safe_mod_func_uint32_t_u_u>
    916e:	89 c0                	mov    %eax,%eax
    9170:	48 39 85 70 e8 ff ff 	cmp    %rax,-0x1790(%rbp)
    9177:	0f 97 c0             	seta   %al
    917a:	0f b6 c0             	movzbl %al,%eax
    917d:	48 89 c7             	mov    %rax,%rdi
    9180:	e8 56 34 00 00       	callq  c5db <func_22>
    9185:	0f b7 d0             	movzwl %ax,%edx
    9188:	0f be 85 8c e8 ff ff 	movsbl -0x1774(%rbp),%eax
    918f:	89 d6                	mov    %edx,%esi
    9191:	89 c7                	mov    %eax,%edi
    9193:	e8 eb e3 ff ff       	callq  7583 <safe_rshift_func_int16_t_s_u>
    9198:	0f b6 95 8a e8 ff ff 	movzbl -0x1776(%rbp),%edx
    919f:	66 0f be d2          	movsbw %dl,%dx
    91a3:	66 39 d0             	cmp    %dx,%ax
    91a6:	75 0b                	jne    91b3 <func_2+0x3b6>
    91a8:	0f b6 85 8a e8 ff ff 	movzbl -0x1776(%rbp),%eax
    91af:	84 c0                	test   %al,%al
    91b1:	74 07                	je     91ba <func_2+0x3bd>
    91b3:	b8 01 00 00 00       	mov    $0x1,%eax
    91b8:	eb 05                	jmp    91bf <func_2+0x3c2>
    91ba:	b8 00 00 00 00       	mov    $0x0,%eax
    91bf:	44 89 e6             	mov    %r12d,%esi
    91c2:	89 c7                	mov    %eax,%edi
    91c4:	e8 54 ed ff ff       	callq  7f1d <safe_mod_func_uint32_t_u_u>
    91c9:	0f b6 d0             	movzbl %al,%edx
    91cc:	0f b6 45 c7          	movzbl -0x39(%rbp),%eax
    91d0:	0f b6 c0             	movzbl %al,%eax
    91d3:	89 d6                	mov    %edx,%esi
    91d5:	89 c7                	mov    %eax,%edi
    91d7:	e8 f2 e9 ff ff       	callq  7bce <safe_mod_func_uint8_t_u_u>
    91dc:	0f b6 c0             	movzbl %al,%eax
    91df:	89 85 98 e8 ff ff    	mov    %eax,-0x1768(%rbp)
    91e5:	48 8d 85 98 e8 ff ff 	lea    -0x1768(%rbp),%rax
    91ec:	48 89 85 a0 eb ff ff 	mov    %rax,-0x1460(%rbp)
    91f3:	48 8b 05 0e 75 01 00 	mov    0x1750e(%rip),%rax        # 20708 <g_998>
    91fa:	48 8b 00             	mov    (%rax),%rax
    91fd:	48 8b 00             	mov    (%rax),%rax
    9200:	8b 08                	mov    (%rax),%ecx
    9202:	48 8b 05 57 77 01 00 	mov    0x17757(%rip),%rax        # 20960 <g_1949>
    9209:	48 8b 00             	mov    (%rax),%rax
    920c:	48 8b 00             	mov    (%rax),%rax
    920f:	48 39 85 a8 eb ff ff 	cmp    %rax,-0x1458(%rbp)
    9216:	0f 95 c0             	setne  %al
    9219:	0f b6 d0             	movzbl %al,%edx
    921c:	48 8b 05 e5 74 01 00 	mov    0x174e5(%rip),%rax        # 20708 <g_998>
    9223:	48 8b 00             	mov    (%rax),%rax
    9226:	48 8b 00             	mov    (%rax),%rax
    9229:	09 ca                	or     %ecx,%edx
    922b:	89 10                	mov    %edx,(%rax)
    922d:	8b 05 f1 3d 01 00    	mov    0x13df1(%rip),%eax        # 1d024 <g_8>
    9233:	98                   	cwtl   
    9234:	be 06 00 00 00       	mov    $0x6,%esi
    9239:	89 c7                	mov    %eax,%edi
    923b:	e8 93 e1 ff ff       	callq  73d3 <safe_add_func_int16_t_s_s>
    9240:	98                   	cwtl   
    9241:	89 05 dd 3d 01 00    	mov    %eax,0x13ddd(%rip)        # 1d024 <g_8>
    9247:	8b 05 d7 3d 01 00    	mov    0x13dd7(%rip),%eax        # 1d024 <g_8>
    924d:	83 f8 33             	cmp    $0x33,%eax
    9250:	0f 85 69 fe ff ff    	jne    90bf <func_2+0x2c2>
    9256:	48 8d 05 b1 45 01 00 	lea    0x145b1(%rip),%rax        # 1d80e <g_1590>
    925d:	48 39 85 d8 e9 ff ff 	cmp    %rax,-0x1628(%rbp)
    9264:	0f 84 46 01 00 00    	je     93b0 <func_2+0x5b3>
    926a:	48 8d 05 9f 6a 01 00 	lea    0x16a9f(%rip),%rax        # 1fd10 <g_437>
    9271:	48 89 85 10 ec ff ff 	mov    %rax,-0x13f0(%rbp)
    9278:	48 c7 85 60 eb ff ff 	movq   $0x0,-0x14a0(%rbp)
    927f:	00 00 00 00 
    9283:	48 8d 85 10 ec ff ff 	lea    -0x13f0(%rbp),%rax
    928a:	48 89 85 68 eb ff ff 	mov    %rax,-0x1498(%rbp)
    9291:	48 c7 85 70 eb ff ff 	movq   $0x0,-0x1490(%rbp)
    9298:	00 00 00 00 
    929c:	48 8d 85 98 e8 ff ff 	lea    -0x1768(%rbp),%rax
    92a3:	48 89 85 78 eb ff ff 	mov    %rax,-0x1488(%rbp)
    92aa:	c7 85 50 e9 ff ff 82 	movl   $0xa98dbf82,-0x16b0(%rbp)
    92b1:	bf 8d a9 
    92b4:	48 8d 05 85 3d 01 00 	lea    0x13d85(%rip),%rax        # 1d040 <g_93>
    92bb:	48 89 85 80 eb ff ff 	mov    %rax,-0x1480(%rbp)
    92c2:	48 8d 05 77 40 01 00 	lea    0x14077(%rip),%rax        # 1d340 <g_658>
    92c9:	48 89 85 88 eb ff ff 	mov    %rax,-0x1478(%rbp)
    92d0:	48 8d 05 89 45 01 00 	lea    0x14589(%rip),%rax        # 1d860 <g_1759>
    92d7:	48 89 85 90 eb ff ff 	mov    %rax,-0x1470(%rbp)
    92de:	48 c7 85 f0 f7 ff ff 	movq   $0x0,-0x810(%rbp)
    92e5:	00 00 00 00 
    92e9:	48 8d 05 50 40 01 00 	lea    0x14050(%rip),%rax        # 1d340 <g_658>
    92f0:	48 89 85 f8 f7 ff ff 	mov    %rax,-0x808(%rbp)
    92f7:	48 8d 05 42 40 01 00 	lea    0x14042(%rip),%rax        # 1d340 <g_658>
    92fe:	48 89 85 00 f8 ff ff 	mov    %rax,-0x800(%rbp)
    9305:	48 c7 85 08 f8 ff ff 	movq   $0x0,-0x7f8(%rbp)
    930c:	00 00 00 00 
    9310:	48 8d 05 29 40 01 00 	lea    0x14029(%rip),%rax        # 1d340 <g_658>
    9317:	48 89 85 10 f8 ff ff 	mov    %rax,-0x7f0(%rbp)
    931e:	48 8d 05 1b 40 01 00 	lea    0x1401b(%rip),%rax        # 1d340 <g_658>
    9325:	48 89 85 18 f8 ff ff 	mov    %rax,-0x7e8(%rbp)
    932c:	48 c7 85 20 f8 ff ff 	movq   $0x0,-0x7e0(%rbp)
    9333:	00 00 00 00 
    9337:	48 8d 05 02 40 01 00 	lea    0x14002(%rip),%rax        # 1d340 <g_658>
    933e:	48 89 85 28 f8 ff ff 	mov    %rax,-0x7d8(%rbp)
    9345:	c7 85 54 e9 ff ff 01 	movl   $0x1,-0x16ac(%rbp)
    934c:	00 00 00 
    934f:	48 8b 95 10 ec ff ff 	mov    -0x13f0(%rbp),%rdx
    9356:	48 8b 85 68 eb ff ff 	mov    -0x1498(%rbp),%rax
    935d:	48 89 10             	mov    %rdx,(%rax)
    9360:	48 8b 85 58 e9 ff ff 	mov    -0x16a8(%rbp),%rax
    9367:	48 89 85 58 e9 ff ff 	mov    %rax,-0x16a8(%rbp)
    936e:	be 01 00 00 00       	mov    $0x1,%esi
    9373:	bf 01 00 00 00       	mov    $0x1,%edi
    9378:	e8 1d eb ff ff       	callq  7e9a <safe_rshift_func_uint16_t_u_u>
    937d:	66 85 c0             	test   %ax,%ax
    9380:	48 83 bd 70 e8 ff ff 	cmpq   $0x0,-0x1790(%rbp)
    9387:	00 
    9388:	48 8b 05 79 73 01 00 	mov    0x17379(%rip),%rax        # 20708 <g_998>
    938f:	48 8b 00             	mov    (%rax),%rax
    9392:	48 c7 00 00 00 00 00 	movq   $0x0,(%rax)
    9399:	48 8b 05 80 4a 01 00 	mov    0x14a80(%rip),%rax        # 1de20 <g_2255+0x20>
    93a0:	48 83 c0 01          	add    $0x1,%rax
    93a4:	48 89 05 75 4a 01 00 	mov    %rax,0x14a75(%rip)        # 1de20 <g_2255+0x20>
    93ab:	e9 fe 31 00 00       	jmpq   c5ae <func_2+0x37b1>
    93b0:	48 b8 3d be 94 8b 49 	movabs $0x4a7974498b94be3d,%rax
    93b7:	74 79 4a 
    93ba:	48 89 85 20 ea ff ff 	mov    %rax,-0x15e0(%rbp)
    93c1:	48 8d 05 f0 68 01 00 	lea    0x168f0(%rip),%rax        # 1fcb8 <g_276>
    93c8:	48 89 85 80 e9 ff ff 	mov    %rax,-0x1680(%rbp)
    93cf:	48 c7 85 a0 f4 ff ff 	movq   $0x0,-0xb60(%rbp)
    93d6:	00 00 00 00 
    93da:	48 8d 85 80 e9 ff ff 	lea    -0x1680(%rbp),%rax
    93e1:	48 89 85 a8 f4 ff ff 	mov    %rax,-0xb58(%rbp)
    93e8:	48 8d 85 80 e9 ff ff 	lea    -0x1680(%rbp),%rax
    93ef:	48 89 85 b0 f4 ff ff 	mov    %rax,-0xb50(%rbp)
    93f6:	48 8d 85 80 e9 ff ff 	lea    -0x1680(%rbp),%rax
    93fd:	48 89 85 b8 f4 ff ff 	mov    %rax,-0xb48(%rbp)
    9404:	48 c7 85 c0 f4 ff ff 	movq   $0x0,-0xb40(%rbp)
    940b:	00 00 00 00 
    940f:	48 8d 85 80 e9 ff ff 	lea    -0x1680(%rbp),%rax
    9416:	48 89 85 c8 f4 ff ff 	mov    %rax,-0xb38(%rbp)
    941d:	48 c7 85 d0 f4 ff ff 	movq   $0x0,-0xb30(%rbp)
    9424:	00 00 00 00 
    9428:	48 8d 85 80 e9 ff ff 	lea    -0x1680(%rbp),%rax
    942f:	48 89 85 d8 f4 ff ff 	mov    %rax,-0xb28(%rbp)
    9436:	48 8d 85 80 e9 ff ff 	lea    -0x1680(%rbp),%rax
    943d:	48 89 85 e0 f4 ff ff 	mov    %rax,-0xb20(%rbp)
    9444:	48 8d 85 80 e9 ff ff 	lea    -0x1680(%rbp),%rax
    944b:	48 89 85 e8 f4 ff ff 	mov    %rax,-0xb18(%rbp)
    9452:	48 c7 85 f0 f4 ff ff 	movq   $0x0,-0xb10(%rbp)
    9459:	00 00 00 00 
    945d:	48 8d 85 80 e9 ff ff 	lea    -0x1680(%rbp),%rax
    9464:	48 89 85 f8 f4 ff ff 	mov    %rax,-0xb08(%rbp)
    946b:	48 8d 85 80 e9 ff ff 	lea    -0x1680(%rbp),%rax
    9472:	48 89 85 00 f5 ff ff 	mov    %rax,-0xb00(%rbp)
    9479:	48 c7 85 08 f5 ff ff 	movq   $0x0,-0xaf8(%rbp)
    9480:	00 00 00 00 
    9484:	48 c7 85 10 f5 ff ff 	movq   $0x0,-0xaf0(%rbp)
    948b:	00 00 00 00 
    948f:	48 8d 85 80 e9 ff ff 	lea    -0x1680(%rbp),%rax
    9496:	48 89 85 18 f5 ff ff 	mov    %rax,-0xae8(%rbp)
    949d:	48 c7 85 20 f5 ff ff 	movq   $0x0,-0xae0(%rbp)
    94a4:	00 00 00 00 
    94a8:	48 8d 85 80 e9 ff ff 	lea    -0x1680(%rbp),%rax
    94af:	48 89 85 28 f5 ff ff 	mov    %rax,-0xad8(%rbp)
    94b6:	48 8d 85 80 e9 ff ff 	lea    -0x1680(%rbp),%rax
    94bd:	48 89 85 30 f5 ff ff 	mov    %rax,-0xad0(%rbp)
    94c4:	48 8d 85 80 e9 ff ff 	lea    -0x1680(%rbp),%rax
    94cb:	48 89 85 38 f5 ff ff 	mov    %rax,-0xac8(%rbp)
    94d2:	48 c7 85 40 f5 ff ff 	movq   $0x0,-0xac0(%rbp)
    94d9:	00 00 00 00 
    94dd:	48 8d 85 80 e9 ff ff 	lea    -0x1680(%rbp),%rax
    94e4:	48 89 85 48 f5 ff ff 	mov    %rax,-0xab8(%rbp)
    94eb:	48 c7 85 50 f5 ff ff 	movq   $0x0,-0xab0(%rbp)
    94f2:	00 00 00 00 
    94f6:	48 8d 85 80 e9 ff ff 	lea    -0x1680(%rbp),%rax
    94fd:	48 89 85 58 f5 ff ff 	mov    %rax,-0xaa8(%rbp)
    9504:	48 8d 85 80 e9 ff ff 	lea    -0x1680(%rbp),%rax
    950b:	48 89 85 60 f5 ff ff 	mov    %rax,-0xaa0(%rbp)
    9512:	48 8d 85 80 e9 ff ff 	lea    -0x1680(%rbp),%rax
    9519:	48 89 85 68 f5 ff ff 	mov    %rax,-0xa98(%rbp)
    9520:	48 8d 85 80 e9 ff ff 	lea    -0x1680(%rbp),%rax
    9527:	48 89 85 70 f5 ff ff 	mov    %rax,-0xa90(%rbp)
    952e:	48 c7 85 78 f5 ff ff 	movq   $0x0,-0xa88(%rbp)
    9535:	00 00 00 00 
    9539:	48 c7 85 80 f5 ff ff 	movq   $0x0,-0xa80(%rbp)
    9540:	00 00 00 00 
    9544:	48 8d 85 80 e9 ff ff 	lea    -0x1680(%rbp),%rax
    954b:	48 89 85 88 f5 ff ff 	mov    %rax,-0xa78(%rbp)
    9552:	48 8d 85 80 e9 ff ff 	lea    -0x1680(%rbp),%rax
    9559:	48 89 85 90 f5 ff ff 	mov    %rax,-0xa70(%rbp)
    9560:	48 8d 85 80 e9 ff ff 	lea    -0x1680(%rbp),%rax
    9567:	48 89 85 98 f5 ff ff 	mov    %rax,-0xa68(%rbp)
    956e:	48 8d 85 80 e9 ff ff 	lea    -0x1680(%rbp),%rax
    9575:	48 89 85 a0 f5 ff ff 	mov    %rax,-0xa60(%rbp)
    957c:	48 8d 85 80 e9 ff ff 	lea    -0x1680(%rbp),%rax
    9583:	48 89 85 a8 f5 ff ff 	mov    %rax,-0xa58(%rbp)
    958a:	48 c7 85 b0 f5 ff ff 	movq   $0x0,-0xa50(%rbp)
    9591:	00 00 00 00 
    9595:	48 8d 85 80 e9 ff ff 	lea    -0x1680(%rbp),%rax
    959c:	48 89 85 b8 f5 ff ff 	mov    %rax,-0xa48(%rbp)
    95a3:	48 8d 85 80 e9 ff ff 	lea    -0x1680(%rbp),%rax
    95aa:	48 89 85 c0 f5 ff ff 	mov    %rax,-0xa40(%rbp)
    95b1:	48 8d 85 80 e9 ff ff 	lea    -0x1680(%rbp),%rax
    95b8:	48 89 85 c8 f5 ff ff 	mov    %rax,-0xa38(%rbp)
    95bf:	48 8d 85 80 e9 ff ff 	lea    -0x1680(%rbp),%rax
    95c6:	48 89 85 d0 f5 ff ff 	mov    %rax,-0xa30(%rbp)
    95cd:	48 8d 85 80 e9 ff ff 	lea    -0x1680(%rbp),%rax
    95d4:	48 89 85 d8 f5 ff ff 	mov    %rax,-0xa28(%rbp)
    95db:	48 8d 85 80 e9 ff ff 	lea    -0x1680(%rbp),%rax
    95e2:	48 89 85 e0 f5 ff ff 	mov    %rax,-0xa20(%rbp)
    95e9:	48 8d 85 80 e9 ff ff 	lea    -0x1680(%rbp),%rax
    95f0:	48 89 85 e8 f5 ff ff 	mov    %rax,-0xa18(%rbp)
    95f7:	48 8d 85 80 e9 ff ff 	lea    -0x1680(%rbp),%rax
    95fe:	48 89 85 f0 f5 ff ff 	mov    %rax,-0xa10(%rbp)
    9605:	48 8d 85 80 e9 ff ff 	lea    -0x1680(%rbp),%rax
    960c:	48 89 85 f8 f5 ff ff 	mov    %rax,-0xa08(%rbp)
    9613:	48 8d 85 80 e9 ff ff 	lea    -0x1680(%rbp),%rax
    961a:	48 89 85 00 f6 ff ff 	mov    %rax,-0xa00(%rbp)
    9621:	48 8d 85 80 e9 ff ff 	lea    -0x1680(%rbp),%rax
    9628:	48 89 85 08 f6 ff ff 	mov    %rax,-0x9f8(%rbp)
    962f:	48 8d 85 80 e9 ff ff 	lea    -0x1680(%rbp),%rax
    9636:	48 89 85 10 f6 ff ff 	mov    %rax,-0x9f0(%rbp)
    963d:	48 8d 85 80 e9 ff ff 	lea    -0x1680(%rbp),%rax
    9644:	48 89 85 18 f6 ff ff 	mov    %rax,-0x9e8(%rbp)
    964b:	48 8d 85 80 e9 ff ff 	lea    -0x1680(%rbp),%rax
    9652:	48 89 85 20 f6 ff ff 	mov    %rax,-0x9e0(%rbp)
    9659:	48 8d 85 80 e9 ff ff 	lea    -0x1680(%rbp),%rax
    9660:	48 89 85 28 f6 ff ff 	mov    %rax,-0x9d8(%rbp)
    9667:	48 8d 85 80 e9 ff ff 	lea    -0x1680(%rbp),%rax
    966e:	48 89 85 30 f6 ff ff 	mov    %rax,-0x9d0(%rbp)
    9675:	48 8d 85 80 e9 ff ff 	lea    -0x1680(%rbp),%rax
    967c:	48 89 85 38 f6 ff ff 	mov    %rax,-0x9c8(%rbp)
    9683:	48 8d 85 80 e9 ff ff 	lea    -0x1680(%rbp),%rax
    968a:	48 89 85 40 f6 ff ff 	mov    %rax,-0x9c0(%rbp)
    9691:	48 8d 85 80 e9 ff ff 	lea    -0x1680(%rbp),%rax
    9698:	48 89 85 48 f6 ff ff 	mov    %rax,-0x9b8(%rbp)
    969f:	48 8d 85 80 e9 ff ff 	lea    -0x1680(%rbp),%rax
    96a6:	48 89 85 50 f6 ff ff 	mov    %rax,-0x9b0(%rbp)
    96ad:	48 8d 85 80 e9 ff ff 	lea    -0x1680(%rbp),%rax
    96b4:	48 89 85 58 f6 ff ff 	mov    %rax,-0x9a8(%rbp)
    96bb:	48 8d 85 80 e9 ff ff 	lea    -0x1680(%rbp),%rax
    96c2:	48 89 85 60 f6 ff ff 	mov    %rax,-0x9a0(%rbp)
    96c9:	48 8d 85 80 e9 ff ff 	lea    -0x1680(%rbp),%rax
    96d0:	48 89 85 68 f6 ff ff 	mov    %rax,-0x998(%rbp)
    96d7:	48 8d 85 80 e9 ff ff 	lea    -0x1680(%rbp),%rax
    96de:	48 89 85 70 f6 ff ff 	mov    %rax,-0x990(%rbp)
    96e5:	48 8d 85 80 e9 ff ff 	lea    -0x1680(%rbp),%rax
    96ec:	48 89 85 78 f6 ff ff 	mov    %rax,-0x988(%rbp)
    96f3:	48 8d 85 80 e9 ff ff 	lea    -0x1680(%rbp),%rax
    96fa:	48 89 85 80 f6 ff ff 	mov    %rax,-0x980(%rbp)
    9701:	48 8d 85 80 e9 ff ff 	lea    -0x1680(%rbp),%rax
    9708:	48 89 85 88 f6 ff ff 	mov    %rax,-0x978(%rbp)
    970f:	48 8d 85 80 e9 ff ff 	lea    -0x1680(%rbp),%rax
    9716:	48 89 85 90 f6 ff ff 	mov    %rax,-0x970(%rbp)
    971d:	48 8d 85 80 e9 ff ff 	lea    -0x1680(%rbp),%rax
    9724:	48 89 85 98 f6 ff ff 	mov    %rax,-0x968(%rbp)
    972b:	48 8d 85 80 e9 ff ff 	lea    -0x1680(%rbp),%rax
    9732:	48 89 85 a0 f6 ff ff 	mov    %rax,-0x960(%rbp)
    9739:	48 c7 85 a8 f6 ff ff 	movq   $0x0,-0x958(%rbp)
    9740:	00 00 00 00 
    9744:	48 8d 85 80 e9 ff ff 	lea    -0x1680(%rbp),%rax
    974b:	48 89 85 b0 f6 ff ff 	mov    %rax,-0x950(%rbp)
    9752:	48 8d 85 80 e9 ff ff 	lea    -0x1680(%rbp),%rax
    9759:	48 89 85 b8 f6 ff ff 	mov    %rax,-0x948(%rbp)
    9760:	48 8d 85 80 e9 ff ff 	lea    -0x1680(%rbp),%rax
    9767:	48 89 85 c0 f6 ff ff 	mov    %rax,-0x940(%rbp)
    976e:	48 8d 85 80 e9 ff ff 	lea    -0x1680(%rbp),%rax
    9775:	48 89 85 c8 f6 ff ff 	mov    %rax,-0x938(%rbp)
    977c:	48 c7 85 d0 f6 ff ff 	movq   $0x0,-0x930(%rbp)
    9783:	00 00 00 00 
    9787:	48 8d 85 80 e9 ff ff 	lea    -0x1680(%rbp),%rax
    978e:	48 89 85 d8 f6 ff ff 	mov    %rax,-0x928(%rbp)
    9795:	48 8d 85 80 e9 ff ff 	lea    -0x1680(%rbp),%rax
    979c:	48 89 85 e0 f6 ff ff 	mov    %rax,-0x920(%rbp)
    97a3:	48 8d 85 80 e9 ff ff 	lea    -0x1680(%rbp),%rax
    97aa:	48 89 85 e8 f6 ff ff 	mov    %rax,-0x918(%rbp)
    97b1:	48 8d 85 80 e9 ff ff 	lea    -0x1680(%rbp),%rax
    97b8:	48 89 85 f0 f6 ff ff 	mov    %rax,-0x910(%rbp)
    97bf:	48 8d 85 80 e9 ff ff 	lea    -0x1680(%rbp),%rax
    97c6:	48 89 85 f8 f6 ff ff 	mov    %rax,-0x908(%rbp)
    97cd:	48 c7 85 00 f7 ff ff 	movq   $0x0,-0x900(%rbp)
    97d4:	00 00 00 00 
    97d8:	48 8d 85 80 e9 ff ff 	lea    -0x1680(%rbp),%rax
    97df:	48 89 85 08 f7 ff ff 	mov    %rax,-0x8f8(%rbp)
    97e6:	48 8d 85 80 e9 ff ff 	lea    -0x1680(%rbp),%rax
    97ed:	48 89 85 10 f7 ff ff 	mov    %rax,-0x8f0(%rbp)
    97f4:	48 8d 85 80 e9 ff ff 	lea    -0x1680(%rbp),%rax
    97fb:	48 89 85 18 f7 ff ff 	mov    %rax,-0x8e8(%rbp)
    9802:	48 8d 85 80 e9 ff ff 	lea    -0x1680(%rbp),%rax
    9809:	48 89 85 20 f7 ff ff 	mov    %rax,-0x8e0(%rbp)
    9810:	48 8d 85 80 e9 ff ff 	lea    -0x1680(%rbp),%rax
    9817:	48 89 85 28 f7 ff ff 	mov    %rax,-0x8d8(%rbp)
    981e:	48 8d 85 80 e9 ff ff 	lea    -0x1680(%rbp),%rax
    9825:	48 89 85 30 f7 ff ff 	mov    %rax,-0x8d0(%rbp)
    982c:	48 8d 85 80 e9 ff ff 	lea    -0x1680(%rbp),%rax
    9833:	48 89 85 38 f7 ff ff 	mov    %rax,-0x8c8(%rbp)
    983a:	48 8d 85 80 e9 ff ff 	lea    -0x1680(%rbp),%rax
    9841:	48 89 85 40 f7 ff ff 	mov    %rax,-0x8c0(%rbp)
    9848:	48 8d 85 80 e9 ff ff 	lea    -0x1680(%rbp),%rax
    984f:	48 89 85 48 f7 ff ff 	mov    %rax,-0x8b8(%rbp)
    9856:	48 c7 85 50 f7 ff ff 	movq   $0x0,-0x8b0(%rbp)
    985d:	00 00 00 00 
    9861:	48 8d 85 80 e9 ff ff 	lea    -0x1680(%rbp),%rax
    9868:	48 89 85 58 f7 ff ff 	mov    %rax,-0x8a8(%rbp)
    986f:	48 8d 85 80 e9 ff ff 	lea    -0x1680(%rbp),%rax
    9876:	48 89 85 60 f7 ff ff 	mov    %rax,-0x8a0(%rbp)
    987d:	48 8d 85 80 e9 ff ff 	lea    -0x1680(%rbp),%rax
    9884:	48 89 85 68 f7 ff ff 	mov    %rax,-0x898(%rbp)
    988b:	48 8d 85 80 e9 ff ff 	lea    -0x1680(%rbp),%rax
    9892:	48 89 85 70 f7 ff ff 	mov    %rax,-0x890(%rbp)
    9899:	48 8d 85 80 e9 ff ff 	lea    -0x1680(%rbp),%rax
    98a0:	48 89 85 78 f7 ff ff 	mov    %rax,-0x888(%rbp)
    98a7:	48 8d 85 80 e9 ff ff 	lea    -0x1680(%rbp),%rax
    98ae:	48 89 85 80 f7 ff ff 	mov    %rax,-0x880(%rbp)
    98b5:	48 8d 85 80 e9 ff ff 	lea    -0x1680(%rbp),%rax
    98bc:	48 89 85 88 f7 ff ff 	mov    %rax,-0x878(%rbp)
    98c3:	48 8d 85 80 e9 ff ff 	lea    -0x1680(%rbp),%rax
    98ca:	48 89 85 90 f7 ff ff 	mov    %rax,-0x870(%rbp)
    98d1:	48 8d 85 80 e9 ff ff 	lea    -0x1680(%rbp),%rax
    98d8:	48 89 85 98 f7 ff ff 	mov    %rax,-0x868(%rbp)
    98df:	48 8d 85 80 e9 ff ff 	lea    -0x1680(%rbp),%rax
    98e6:	48 89 85 a0 f7 ff ff 	mov    %rax,-0x860(%rbp)
    98ed:	48 8d 85 80 e9 ff ff 	lea    -0x1680(%rbp),%rax
    98f4:	48 89 85 a8 f7 ff ff 	mov    %rax,-0x858(%rbp)
    98fb:	48 8d 85 80 e9 ff ff 	lea    -0x1680(%rbp),%rax
    9902:	48 89 85 b0 f7 ff ff 	mov    %rax,-0x850(%rbp)
    9909:	48 8d 85 80 e9 ff ff 	lea    -0x1680(%rbp),%rax
    9910:	48 89 85 b8 f7 ff ff 	mov    %rax,-0x848(%rbp)
    9917:	48 8d 85 80 e9 ff ff 	lea    -0x1680(%rbp),%rax
    991e:	48 89 85 c0 f7 ff ff 	mov    %rax,-0x840(%rbp)
    9925:	48 8d 85 80 e9 ff ff 	lea    -0x1680(%rbp),%rax
    992c:	48 89 85 c8 f7 ff ff 	mov    %rax,-0x838(%rbp)
    9933:	48 c7 85 d0 f7 ff ff 	movq   $0x0,-0x830(%rbp)
    993a:	00 00 00 00 
    993e:	48 8d 85 80 e9 ff ff 	lea    -0x1680(%rbp),%rax
    9945:	48 89 85 d8 f7 ff ff 	mov    %rax,-0x828(%rbp)
    994c:	48 8d 85 80 e9 ff ff 	lea    -0x1680(%rbp),%rax
    9953:	48 89 85 e0 f7 ff ff 	mov    %rax,-0x820(%rbp)
    995a:	48 8d 85 a0 f4 ff ff 	lea    -0xb60(%rbp),%rax
    9961:	48 05 08 01 00 00    	add    $0x108,%rax
    9967:	48 89 85 88 e9 ff ff 	mov    %rax,-0x1678(%rbp)
    996e:	48 8d 85 88 e9 ff ff 	lea    -0x1678(%rbp),%rax
    9975:	48 89 85 28 ea ff ff 	mov    %rax,-0x15d8(%rbp)
    997c:	48 c7 85 30 ea ff ff 	movq   $0x0,-0x15d0(%rbp)
    9983:	00 00 00 00 
    9987:	48 c7 85 38 ea ff ff 	movq   $0x0,-0x15c8(%rbp)
    998e:	00 00 00 00 
    9992:	48 8d 05 27 5d 01 00 	lea    0x15d27(%rip),%rax        # 1f6c0 <g_139+0x1a0>
    9999:	48 89 85 40 ea ff ff 	mov    %rax,-0x15c0(%rbp)
    99a0:	48 c7 85 48 ea ff ff 	movq   $0x0,-0x15b8(%rbp)
    99a7:	00 00 00 00 
    99ab:	66 c7 85 8e e8 ff ff 	movw   $0x1,-0x1772(%rbp)
    99b2:	01 00 
    99b4:	48 8d 05 8d 77 01 00 	lea    0x1778d(%rip),%rax        # 21148 <g_907>
    99bb:	48 89 85 90 e9 ff ff 	mov    %rax,-0x1670(%rbp)
    99c2:	48 8d 85 90 e9 ff ff 	lea    -0x1670(%rbp),%rax
    99c9:	48 89 85 98 e9 ff ff 	mov    %rax,-0x1668(%rbp)
    99d0:	48 8d 85 98 e9 ff ff 	lea    -0x1668(%rbp),%rax
    99d7:	48 89 85 50 ea ff ff 	mov    %rax,-0x15b0(%rbp)
    99de:	48 c7 85 a0 e9 ff ff 	movq   $0x0,-0x1660(%rbp)
    99e5:	00 00 00 00 
    99e9:	48 8d 85 30 f3 ff ff 	lea    -0xcd0(%rbp),%rax
    99f0:	48 8d 15 69 bc 00 00 	lea    0xbc69(%rip),%rdx        # 15660 <g_427+0x608>
    99f7:	b9 2d 00 00 00       	mov    $0x2d,%ecx
    99fc:	48 89 c7             	mov    %rax,%rdi
    99ff:	48 89 d6             	mov    %rdx,%rsi
    9a02:	f3 48 a5             	rep movsq %ds:(%rsi),%es:(%rdi)
    9a05:	48 b8 96 61 b5 c4 26 	movabs $0x51376f26c4b56196,%rax
    9a0c:	6f 37 51 
    9a0f:	48 89 85 58 ea ff ff 	mov    %rax,-0x15a8(%rbp)
    9a16:	48 c7 85 a8 e9 ff ff 	movq   $0x0,-0x1658(%rbp)
    9a1d:	00 00 00 00 
    9a21:	48 8d 85 a8 e9 ff ff 	lea    -0x1658(%rbp),%rax
    9a28:	48 89 85 60 ea ff ff 	mov    %rax,-0x15a0(%rbp)
    9a2f:	c7 85 b0 eb ff ff 91 	movl   $0x5d46ab91,-0x1450(%rbp)
    9a36:	ab 46 5d 
    9a39:	c6 85 b4 eb ff ff 0b 	movb   $0xb,-0x144c(%rbp)
    9a40:	48 c7 85 b8 eb ff ff 	movq   $0x1,-0x1448(%rbp)
    9a47:	01 00 00 00 
    9a4b:	c7 85 c0 eb ff ff ff 	movl   $0xffffffff,-0x1440(%rbp)
    9a52:	ff ff ff 
    9a55:	c6 85 c4 eb ff ff fc 	movb   $0xfc,-0x143c(%rbp)
    9a5c:	c7 85 c8 eb ff ff f2 	movl   $0x154d8ff2,-0x1438(%rbp)
    9a63:	8f 4d 15 
    9a66:	66 c7 85 cc eb ff ff 	movw   $0xe9b4,-0x1434(%rbp)
    9a6d:	b4 e9 
    9a6f:	c7 85 d0 eb ff ff fd 	movl   $0xfffffffd,-0x1430(%rbp)
    9a76:	ff ff ff 
    9a79:	c6 85 d4 eb ff ff 01 	movb   $0x1,-0x142c(%rbp)
    9a80:	c6 85 d5 eb ff ff 67 	movb   $0x67,-0x142b(%rbp)
    9a87:	48 8d 05 82 6c 01 00 	lea    0x16c82(%rip),%rax        # 20710 <g_1073>
    9a8e:	48 89 85 68 ea ff ff 	mov    %rax,-0x1598(%rbp)
    9a95:	c7 85 fc e8 ff ff ff 	movl   $0xffffffff,-0x1704(%rbp)
    9a9c:	ff ff ff 
    9a9f:	48 8d 85 f0 f0 ff ff 	lea    -0xf10(%rbp),%rax
    9aa6:	48 83 c0 2c          	add    $0x2c,%rax
    9aaa:	48 89 85 a0 ed ff ff 	mov    %rax,-0x1260(%rbp)
    9ab1:	48 8d 85 f0 f0 ff ff 	lea    -0xf10(%rbp),%rax
    9ab8:	48 83 c0 2c          	add    $0x2c,%rax
    9abc:	48 89 85 a8 ed ff ff 	mov    %rax,-0x1258(%rbp)
    9ac3:	48 8d 05 7a 38 01 00 	lea    0x1387a(%rip),%rax        # 1d344 <g_658+0x4>
    9aca:	48 89 85 b0 ed ff ff 	mov    %rax,-0x1250(%rbp)
    9ad1:	48 8d 85 f0 f0 ff ff 	lea    -0xf10(%rbp),%rax
    9ad8:	48 83 c0 2c          	add    $0x2c,%rax
    9adc:	48 89 85 b8 ed ff ff 	mov    %rax,-0x1248(%rbp)
    9ae3:	48 8d 85 f0 f0 ff ff 	lea    -0xf10(%rbp),%rax
    9aea:	48 83 c0 2c          	add    $0x2c,%rax
    9aee:	48 89 85 c0 ed ff ff 	mov    %rax,-0x1240(%rbp)
    9af5:	48 8d 05 48 38 01 00 	lea    0x13848(%rip),%rax        # 1d344 <g_658+0x4>
    9afc:	48 89 85 c8 ed ff ff 	mov    %rax,-0x1238(%rbp)
    9b03:	48 8d 85 f0 f0 ff ff 	lea    -0xf10(%rbp),%rax
    9b0a:	48 83 c0 2c          	add    $0x2c,%rax
    9b0e:	48 89 85 d0 ed ff ff 	mov    %rax,-0x1230(%rbp)
    9b15:	c7 85 ac e8 ff ff fc 	movl   $0xfffffffc,-0x1754(%rbp)
    9b1c:	ff ff ff 
    9b1f:	48 8d 05 32 6e 01 00 	lea    0x16e32(%rip),%rax        # 20958 <g_1861>
    9b26:	48 89 85 b0 e9 ff ff 	mov    %rax,-0x1650(%rbp)
    9b2d:	48 8d 85 b0 e9 ff ff 	lea    -0x1650(%rbp),%rax
    9b34:	48 89 85 10 ef ff ff 	mov    %rax,-0x10f0(%rbp)
    9b3b:	48 8d 85 b0 e9 ff ff 	lea    -0x1650(%rbp),%rax
    9b42:	48 89 85 18 ef ff ff 	mov    %rax,-0x10e8(%rbp)
    9b49:	48 8d 85 b0 e9 ff ff 	lea    -0x1650(%rbp),%rax
    9b50:	48 89 85 20 ef ff ff 	mov    %rax,-0x10e0(%rbp)
    9b57:	48 8d 85 b0 e9 ff ff 	lea    -0x1650(%rbp),%rax
    9b5e:	48 89 85 28 ef ff ff 	mov    %rax,-0x10d8(%rbp)
    9b65:	48 8d 85 b0 e9 ff ff 	lea    -0x1650(%rbp),%rax
    9b6c:	48 89 85 30 ef ff ff 	mov    %rax,-0x10d0(%rbp)
    9b73:	48 8d 85 b0 e9 ff ff 	lea    -0x1650(%rbp),%rax
    9b7a:	48 89 85 38 ef ff ff 	mov    %rax,-0x10c8(%rbp)
    9b81:	48 8d 85 b0 e9 ff ff 	lea    -0x1650(%rbp),%rax
    9b88:	48 89 85 40 ef ff ff 	mov    %rax,-0x10c0(%rbp)
    9b8f:	48 8d 85 b0 e9 ff ff 	lea    -0x1650(%rbp),%rax
    9b96:	48 89 85 48 ef ff ff 	mov    %rax,-0x10b8(%rbp)
    9b9d:	48 8d 85 b0 e9 ff ff 	lea    -0x1650(%rbp),%rax
    9ba4:	48 89 85 50 ef ff ff 	mov    %rax,-0x10b0(%rbp)
    9bab:	48 8d 85 b0 e9 ff ff 	lea    -0x1650(%rbp),%rax
    9bb2:	48 89 85 58 ef ff ff 	mov    %rax,-0x10a8(%rbp)
    9bb9:	48 8d 85 b0 e9 ff ff 	lea    -0x1650(%rbp),%rax
    9bc0:	48 89 85 60 ef ff ff 	mov    %rax,-0x10a0(%rbp)
    9bc7:	48 8d 85 b0 e9 ff ff 	lea    -0x1650(%rbp),%rax
    9bce:	48 89 85 68 ef ff ff 	mov    %rax,-0x1098(%rbp)
    9bd5:	48 8d 85 b0 e9 ff ff 	lea    -0x1650(%rbp),%rax
    9bdc:	48 89 85 70 ef ff ff 	mov    %rax,-0x1090(%rbp)
    9be3:	48 8d 85 b0 e9 ff ff 	lea    -0x1650(%rbp),%rax
    9bea:	48 89 85 78 ef ff ff 	mov    %rax,-0x1088(%rbp)
    9bf1:	48 8d 85 b0 e9 ff ff 	lea    -0x1650(%rbp),%rax
    9bf8:	48 89 85 80 ef ff ff 	mov    %rax,-0x1080(%rbp)
    9bff:	48 8d 85 b0 e9 ff ff 	lea    -0x1650(%rbp),%rax
    9c06:	48 89 85 88 ef ff ff 	mov    %rax,-0x1078(%rbp)
    9c0d:	c7 85 b0 e8 ff ff 00 	movl   $0x0,-0x1750(%rbp)
    9c14:	00 00 00 
    9c17:	eb 1b                	jmp    9c34 <func_2+0xe37>
    9c19:	8b 85 b0 e8 ff ff    	mov    -0x1750(%rbp),%eax
    9c1f:	48 98                	cltq   
    9c21:	48 c7 84 c5 40 ec ff 	movq   $0x0,-0x13c0(%rbp,%rax,8)
    9c28:	ff 00 00 00 00 
    9c2d:	83 85 b0 e8 ff ff 01 	addl   $0x1,-0x1750(%rbp)
    9c34:	83 bd b0 e8 ff ff 01 	cmpl   $0x1,-0x1750(%rbp)
    9c3b:	7e dc                	jle    9c19 <func_2+0xe1c>
    9c3d:	c7 85 b0 e8 ff ff 00 	movl   $0x0,-0x1750(%rbp)
    9c44:	00 00 00 
    9c47:	eb 1e                	jmp    9c67 <func_2+0xe6a>
    9c49:	8b 85 b0 e8 ff ff    	mov    -0x1750(%rbp),%eax
    9c4f:	48 98                	cltq   
    9c51:	48 8d 95 a0 e9 ff ff 	lea    -0x1660(%rbp),%rdx
    9c58:	48 89 94 c5 60 ed ff 	mov    %rdx,-0x12a0(%rbp,%rax,8)
    9c5f:	ff 
    9c60:	83 85 b0 e8 ff ff 01 	addl   $0x1,-0x1750(%rbp)
    9c67:	83 bd b0 e8 ff ff 06 	cmpl   $0x6,-0x1750(%rbp)
    9c6e:	7e d9                	jle    9c49 <func_2+0xe4c>
    9c70:	48 8b 85 70 e8 ff ff 	mov    -0x1790(%rbp),%rax
    9c77:	89 c2                	mov    %eax,%edx
    9c79:	48 8b 85 20 ea ff ff 	mov    -0x15e0(%rbp),%rax
    9c80:	0f be c0             	movsbl %al,%eax
    9c83:	89 d6                	mov    %edx,%esi
    9c85:	89 c7                	mov    %eax,%edi
    9c87:	e8 00 d7 ff ff       	callq  738c <safe_rshift_func_int8_t_s_u>
    9c8c:	48 8b 15 7d 58 01 00 	mov    0x1587d(%rip),%rdx        # 1f510 <g_140>
    9c93:	48 8b 05 76 58 01 00 	mov    0x15876(%rip),%rax        # 1f510 <g_140>
    9c9a:	8b 12                	mov    (%rdx),%edx
    9c9c:	89 10                	mov    %edx,(%rax)
    9c9e:	48 8b 85 e0 e9 ff ff 	mov    -0x1620(%rbp),%rax
    9ca5:	48 3b 85 38 ea ff ff 	cmp    -0x15c8(%rbp),%rax
    9cac:	0f 95 c0             	setne  %al
    9caf:	0f b6 c0             	movzbl %al,%eax
    9cb2:	be 6f 00 00 00       	mov    $0x6f,%esi
    9cb7:	89 c7                	mov    %eax,%edi
    9cb9:	e8 10 df ff ff       	callq  7bce <safe_mod_func_uint8_t_u_u>
    9cbe:	48 8b 85 28 ea ff ff 	mov    -0x15d8(%rbp),%rax
    9cc5:	48 89 85 30 ea ff ff 	mov    %rax,-0x15d0(%rbp)
    9ccc:	48 8b 85 40 ec ff ff 	mov    -0x13c0(%rbp),%rax
    9cd3:	48 39 85 30 ea ff ff 	cmp    %rax,-0x15d0(%rbp)
    9cda:	0f 95 c0             	setne  %al
    9cdd:	0f b6 d0             	movzbl %al,%edx
    9ce0:	48 8b 05 61 6a 01 00 	mov    0x16a61(%rip),%rax        # 20748 <g_1550>
    9ce7:	0f b6 00             	movzbl (%rax),%eax
    9cea:	0f be c0             	movsbl %al,%eax
    9ced:	39 c2                	cmp    %eax,%edx
    9cef:	0f 84 3e 02 00 00    	je     9f33 <func_2+0x1136>
    9cf5:	48 8d 05 0c 6a 01 00 	lea    0x16a0c(%rip),%rax        # 20708 <g_998>
    9cfc:	48 89 85 50 eb ff ff 	mov    %rax,-0x14b0(%rbp)
    9d03:	c7 85 48 e9 ff ff 04 	movl   $0x4,-0x16b8(%rbp)
    9d0a:	00 00 00 
    9d0d:	c7 85 4c e9 ff ff f7 	movl   $0x12a8c3f7,-0x16b4(%rbp)
    9d14:	c3 a8 12 
    9d17:	c6 05 86 34 01 00 00 	movb   $0x0,0x13486(%rip)        # 1d1a4 <g_237+0x4>
    9d1e:	90                   	nop
    9d1f:	0f b6 05 7e 34 01 00 	movzbl 0x1347e(%rip),%eax        # 1d1a4 <g_237+0x4>
    9d26:	3c 0c                	cmp    $0xc,%al
    9d28:	0f 8e b4 27 00 00    	jle    c4e2 <func_2+0x36e5>
    9d2e:	c7 85 f0 f7 ff ff 31 	movl   $0x3b64e31,-0x810(%rbp)
    9d35:	4e b6 03 
    9d38:	c7 85 f4 f7 ff ff 31 	movl   $0x3b64e31,-0x80c(%rbp)
    9d3f:	4e b6 03 
    9d42:	c7 85 f8 f7 ff ff 31 	movl   $0x3b64e31,-0x808(%rbp)
    9d49:	4e b6 03 
    9d4c:	c7 85 fc f7 ff ff 31 	movl   $0x3b64e31,-0x804(%rbp)
    9d53:	4e b6 03 
    9d56:	c7 85 00 f8 ff ff 31 	movl   $0x3b64e31,-0x800(%rbp)
    9d5d:	4e b6 03 
    9d60:	48 8b 05 69 5f 01 00 	mov    0x15f69(%rip),%rax        # 1fcd0 <g_309>
    9d67:	8b 00                	mov    (%rax),%eax
    9d69:	85 c0                	test   %eax,%eax
    9d6b:	74 16                	je     9d83 <func_2+0xf86>
    9d6d:	c7 85 00 f8 ff ff fc 	movl   $0xfffffffc,-0x800(%rbp)
    9d74:	ff ff ff 
    9d77:	48 8b 85 70 e8 ff ff 	mov    -0x1790(%rbp),%rax
    9d7e:	e9 32 28 00 00       	jmpq   c5b5 <func_2+0x37b8>
    9d83:	48 8d 05 76 5f 01 00 	lea    0x15f76(%rip),%rax        # 1fd00 <g_434>
    9d8a:	48 89 85 d0 e9 ff ff 	mov    %rax,-0x1630(%rbp)
    9d91:	48 8d 85 d0 e9 ff ff 	lea    -0x1630(%rbp),%rax
    9d98:	48 89 85 e0 eb ff ff 	mov    %rax,-0x1420(%rbp)
    9d9f:	48 8d 85 e0 eb ff ff 	lea    -0x1420(%rbp),%rax
    9da6:	48 89 85 10 ec ff ff 	mov    %rax,-0x13f0(%rbp)
    9dad:	48 8d 85 10 ec ff ff 	lea    -0x13f0(%rbp),%rax
    9db4:	48 89 85 58 eb ff ff 	mov    %rax,-0x14a8(%rbp)
    9dbb:	0f b6 05 82 3a 01 00 	movzbl 0x13a82(%rip),%eax        # 1d844 <g_1757+0x24>
    9dc2:	0f b6 d8             	movzbl %al,%ebx
    9dc5:	48 8b 85 78 e8 ff ff 	mov    -0x1788(%rbp),%rax
    9dcc:	44 0f be e0          	movsbl %al,%r12d
    9dd0:	48 8b 05 71 69 01 00 	mov    0x16971(%rip),%rax        # 20748 <g_1550>
    9dd7:	0f b6 00             	movzbl (%rax),%eax
    9dda:	0f b6 d0             	movzbl %al,%edx
    9ddd:	48 8b 85 70 e8 ff ff 	mov    -0x1790(%rbp),%rax
    9de4:	0f b6 c0             	movzbl %al,%eax
    9de7:	89 d6                	mov    %edx,%esi
    9de9:	89 c7                	mov    %eax,%edi
    9deb:	e8 de dd ff ff       	callq  7bce <safe_mod_func_uint8_t_u_u>
    9df0:	84 c0                	test   %al,%al
    9df2:	0f 84 e4 00 00 00    	je     9edc <func_2+0x10df>
    9df8:	48 8b 85 78 e8 ff ff 	mov    -0x1788(%rbp),%rax
    9dff:	41 89 c7             	mov    %eax,%r15d
    9e02:	48 8b 85 70 e8 ff ff 	mov    -0x1790(%rbp),%rax
    9e09:	44 0f be e8          	movsbl %al,%r13d
    9e0d:	48 8b 95 10 ec ff ff 	mov    -0x13f0(%rbp),%rdx
    9e14:	48 8b 85 58 eb ff ff 	mov    -0x14a8(%rbp),%rax
    9e1b:	48 89 10             	mov    %rdx,(%rax)
    9e1e:	48 8b 85 58 eb ff ff 	mov    -0x14a8(%rbp),%rax
    9e25:	48 8b 00             	mov    (%rax),%rax
    9e28:	48 39 85 50 eb ff ff 	cmp    %rax,-0x14b0(%rbp)
    9e2f:	0f 95 c0             	setne  %al
    9e32:	0f b6 c0             	movzbl %al,%eax
    9e35:	89 85 48 e9 ff ff    	mov    %eax,-0x16b8(%rbp)
    9e3b:	8b 85 48 e9 ff ff    	mov    -0x16b8(%rbp),%eax
    9e41:	88 85 6f e8 ff ff    	mov    %al,-0x1791(%rbp)
    9e47:	48 8b 05 1a 6b 01 00 	mov    0x16b1a(%rip),%rax        # 20968 <g_1948>
    9e4e:	48 8b 00             	mov    (%rax),%rax
    9e51:	48 8b 00             	mov    (%rax),%rax
    9e54:	48 8b 00             	mov    (%rax),%rax
    9e57:	0f b7 00             	movzwl (%rax),%eax
    9e5a:	44 0f b7 f0          	movzwl %ax,%r14d
    9e5e:	be 01 00 00 00       	mov    $0x1,%esi
    9e63:	bf 01 00 00 00       	mov    $0x1,%edi
    9e68:	e8 c5 d3 ff ff       	callq  7232 <safe_mul_func_int8_t_s_s>
    9e6d:	0f be c0             	movsbl %al,%eax
    9e70:	be 4c 00 00 00       	mov    $0x4c,%esi
    9e75:	89 c7                	mov    %eax,%edi
    9e77:	e8 b6 d3 ff ff       	callq  7232 <safe_mul_func_int8_t_s_s>
    9e7c:	48 8b 85 e0 eb ff ff 	mov    -0x1420(%rbp),%rax
    9e83:	48 8b 00             	mov    (%rax),%rax
    9e86:	48 8b 00             	mov    (%rax),%rax
    9e89:	8b 00                	mov    (%rax),%eax
    9e8b:	0f b7 c0             	movzwl %ax,%eax
    9e8e:	44 89 f6             	mov    %r14d,%esi
    9e91:	89 c7                	mov    %eax,%edi
    9e93:	e8 e4 de ff ff       	callq  7d7c <safe_mod_func_uint16_t_u_u>
    9e98:	32 85 6f e8 ff ff    	xor    -0x1791(%rbp),%al
    9e9e:	0f be c0             	movsbl %al,%eax
    9ea1:	44 89 ee             	mov    %r13d,%esi
    9ea4:	89 c7                	mov    %eax,%edi
    9ea6:	e8 49 d3 ff ff       	callq  71f4 <safe_add_func_int8_t_s_s>
    9eab:	0f be c0             	movsbl %al,%eax
    9eae:	83 e0 63             	and    $0x63,%eax
    9eb1:	89 c6                	mov    %eax,%esi
    9eb3:	bf 59 00 00 00       	mov    $0x59,%edi
    9eb8:	e8 75 d3 ff ff       	callq  7232 <safe_mul_func_int8_t_s_s>
    9ebd:	0f b6 c0             	movzbl %al,%eax
    9ec0:	be 04 00 00 00       	mov    $0x4,%esi
    9ec5:	89 c7                	mov    %eax,%edi
    9ec7:	e8 59 dd ff ff       	callq  7c25 <safe_lshift_func_uint8_t_u_s>
    9ecc:	0f b6 c0             	movzbl %al,%eax
    9ecf:	44 89 fe             	mov    %r15d,%esi
    9ed2:	89 c7                	mov    %eax,%edi
    9ed4:	e8 05 df ff ff       	callq  7dde <safe_lshift_func_uint16_t_u_s>
    9ed9:	66 85 c0             	test   %ax,%ax
    9edc:	44 89 e6             	mov    %r12d,%esi
    9edf:	bf ff ff ff ff       	mov    $0xffffffff,%edi
    9ee4:	e8 0b d3 ff ff       	callq  71f4 <safe_add_func_int8_t_s_s>
    9ee9:	48 8b 05 50 68 01 00 	mov    0x16850(%rip),%rax        # 20740 <g_1279>
    9ef0:	48 8b 85 50 eb ff ff 	mov    -0x14b0(%rbp),%rax
    9ef7:	48 89 85 60 e9 ff ff 	mov    %rax,-0x16a0(%rbp)
    9efe:	89 de                	mov    %ebx,%esi
    9f00:	bf 00 00 00 00       	mov    $0x0,%edi
    9f05:	e8 c9 d4 ff ff       	callq  73d3 <safe_add_func_int16_t_s_s>
    9f0a:	66 83 f8 11          	cmp    $0x11,%ax
    9f0e:	0f 9f c0             	setg   %al
    9f11:	0f b6 c0             	movzbl %al,%eax
    9f14:	31 85 4c e9 ff ff    	xor    %eax,-0x16b4(%rbp)
    9f1a:	48 83 bd 78 e8 ff ff 	cmpq   $0x0,-0x1788(%rbp)
    9f21:	00 
    9f22:	0f 85 b9 25 00 00    	jne    c4e1 <func_2+0x36e4>
    9f28:	8b 85 fc f7 ff ff    	mov    -0x804(%rbp),%eax
    9f2e:	e9 82 26 00 00       	jmpq   c5b5 <func_2+0x37b8>
    9f33:	c7 85 b4 e8 ff ff 67 	movl   $0x6bc52267,-0x174c(%rbp)
    9f3a:	22 c5 6b 
    9f3d:	c7 85 b8 e8 ff ff 00 	movl   $0x0,-0x1748(%rbp)
    9f44:	00 00 00 
    9f47:	66 c7 85 90 e8 ff ff 	movw   $0x82fb,-0x1770(%rbp)
    9f4e:	fb 82 
    9f50:	48 8d 05 9b 31 01 00 	lea    0x1319b(%rip),%rax        # 1d0f2 <g_205+0x2>
    9f57:	48 89 85 70 ea ff ff 	mov    %rax,-0x1590(%rbp)
    9f5e:	48 c7 85 70 ee ff ff 	movq   $0xfffffffffffffffa,-0x1190(%rbp)
    9f65:	fa ff ff ff 
    9f69:	48 b8 32 ff 15 7e f6 	movabs $0x9be73af67e15ff32,%rax
    9f70:	3a e7 9b 
    9f73:	48 89 85 78 ee ff ff 	mov    %rax,-0x1188(%rbp)
    9f7a:	48 89 85 80 ee ff ff 	mov    %rax,-0x1180(%rbp)
    9f81:	48 c7 85 88 ee ff ff 	movq   $0xfffffffffffffffa,-0x1178(%rbp)
    9f88:	fa ff ff ff 
    9f8c:	48 89 85 90 ee ff ff 	mov    %rax,-0x1170(%rbp)
    9f93:	48 89 85 98 ee ff ff 	mov    %rax,-0x1168(%rbp)
    9f9a:	48 c7 85 a0 ee ff ff 	movq   $0xfffffffffffffffa,-0x1160(%rbp)
    9fa1:	fa ff ff ff 
    9fa5:	48 89 85 a8 ee ff ff 	mov    %rax,-0x1158(%rbp)
    9fac:	48 89 85 b0 ee ff ff 	mov    %rax,-0x1150(%rbp)
    9fb3:	48 b8 15 fc 9d d8 9b 	movabs $0x93d0c39bd89dfc15,%rax
    9fba:	c3 d0 93 
    9fbd:	48 89 85 78 ea ff ff 	mov    %rax,-0x1588(%rbp)
    9fc4:	48 c7 85 80 ea ff ff 	movq   $0x0,-0x1580(%rbp)
    9fcb:	00 00 00 00 
    9fcf:	48 c7 85 88 ea ff ff 	movq   $0x0,-0x1578(%rbp)
    9fd6:	00 00 00 00 
    9fda:	48 8d 05 27 32 01 00 	lea    0x13227(%rip),%rax        # 1d208 <g_292>
    9fe1:	48 89 85 90 ea ff ff 	mov    %rax,-0x1570(%rbp)
    9fe8:	c7 85 e0 eb ff ff 01 	movl   $0x1,-0x1420(%rbp)
    9fef:	00 00 00 
    9ff2:	c6 85 e4 eb ff ff 01 	movb   $0x1,-0x141c(%rbp)
    9ff9:	48 c7 85 e8 eb ff ff 	movq   $0x0,-0x1418(%rbp)
    a000:	00 00 00 00 
    a004:	c7 85 f0 eb ff ff 01 	movl   $0x1,-0x1410(%rbp)
    a00b:	00 00 00 
    a00e:	c6 85 f4 eb ff ff 8a 	movb   $0x8a,-0x140c(%rbp)
    a015:	c7 85 f8 eb ff ff ab 	movl   $0xf2a67bab,-0x1408(%rbp)
    a01c:	7b a6 f2 
    a01f:	66 c7 85 fc eb ff ff 	movw   $0x1,-0x1404(%rbp)
    a026:	01 00 
    a028:	c7 85 00 ec ff ff ff 	movl   $0xffffffff,-0x1400(%rbp)
    a02f:	ff ff ff 
    a032:	c6 85 04 ec ff ff fe 	movb   $0xfe,-0x13fc(%rbp)
    a039:	c6 85 05 ec ff ff 06 	movb   $0x6,-0x13fb(%rbp)
    a040:	c7 85 90 ef ff ff 07 	movl   $0x7,-0x1070(%rbp)
    a047:	00 00 00 
    a04a:	c7 85 94 ef ff ff ff 	movl   $0xffffffff,-0x106c(%rbp)
    a051:	ff ff ff 
    a054:	c7 85 98 ef ff ff e0 	movl   $0xb850c3e0,-0x1068(%rbp)
    a05b:	c3 50 b8 
    a05e:	c7 85 9c ef ff ff 01 	movl   $0x1,-0x1064(%rbp)
    a065:	00 00 00 
    a068:	c7 85 a0 ef ff ff e0 	movl   $0xb850c3e0,-0x1060(%rbp)
    a06f:	c3 50 b8 
    a072:	c7 85 a4 ef ff ff ff 	movl   $0xffffffff,-0x105c(%rbp)
    a079:	ff ff ff 
    a07c:	c7 85 a8 ef ff ff 07 	movl   $0x7,-0x1058(%rbp)
    a083:	00 00 00 
    a086:	c7 85 ac ef ff ff ff 	movl   $0xffffffff,-0x1054(%rbp)
    a08d:	ff ff ff 
    a090:	c7 85 b0 ef ff ff e0 	movl   $0xb850c3e0,-0x1050(%rbp)
    a097:	c3 50 b8 
    a09a:	c7 85 b4 ef ff ff 01 	movl   $0x1,-0x104c(%rbp)
    a0a1:	00 00 00 
    a0a4:	c7 85 b8 ef ff ff e0 	movl   $0xb850c3e0,-0x1048(%rbp)
    a0ab:	c3 50 b8 
    a0ae:	c7 85 bc ef ff ff 01 	movl   $0x1,-0x1044(%rbp)
    a0b5:	00 00 00 
    a0b8:	c7 85 c0 ef ff ff e0 	movl   $0xb850c3e0,-0x1040(%rbp)
    a0bf:	c3 50 b8 
    a0c2:	c7 85 c4 ef ff ff ff 	movl   $0xffffffff,-0x103c(%rbp)
    a0c9:	ff ff ff 
    a0cc:	c7 85 c8 ef ff ff 07 	movl   $0x7,-0x1038(%rbp)
    a0d3:	00 00 00 
    a0d6:	c7 85 cc ef ff ff ff 	movl   $0xffffffff,-0x1034(%rbp)
    a0dd:	ff ff ff 
    a0e0:	c7 85 d0 ef ff ff e0 	movl   $0xb850c3e0,-0x1030(%rbp)
    a0e7:	c3 50 b8 
    a0ea:	c7 85 d4 ef ff ff 01 	movl   $0x1,-0x102c(%rbp)
    a0f1:	00 00 00 
    a0f4:	c7 85 d8 ef ff ff e0 	movl   $0xb850c3e0,-0x1028(%rbp)
    a0fb:	c3 50 b8 
    a0fe:	c7 85 dc ef ff ff ff 	movl   $0xffffffff,-0x1024(%rbp)
    a105:	ff ff ff 
    a108:	c7 85 e0 ef ff ff 07 	movl   $0x7,-0x1020(%rbp)
    a10f:	00 00 00 
    a112:	c7 85 e4 ef ff ff 01 	movl   $0x1,-0x101c(%rbp)
    a119:	00 00 00 
    a11c:	c7 85 e8 ef ff ff 35 	movl   $0x4a7e1435,-0x1018(%rbp)
    a123:	14 7e 4a 
    a126:	c7 85 ec ef ff ff 01 	movl   $0x1,-0x1014(%rbp)
    a12d:	00 00 00 
    a130:	c7 85 f0 ef ff ff 07 	movl   $0x7,-0x1010(%rbp)
    a137:	00 00 00 
    a13a:	c7 85 f4 ef ff ff 69 	movl   $0x7ead4369,-0x100c(%rbp)
    a141:	43 ad 7e 
    a144:	c7 85 f8 ef ff ff 07 	movl   $0x7,-0x1008(%rbp)
    a14b:	00 00 00 
    a14e:	c7 85 fc ef ff ff 01 	movl   $0x1,-0x1004(%rbp)
    a155:	00 00 00 
    a158:	c7 85 00 f0 ff ff 35 	movl   $0x4a7e1435,-0x1000(%rbp)
    a15f:	14 7e 4a 
    a162:	c7 85 04 f0 ff ff 01 	movl   $0x1,-0xffc(%rbp)
    a169:	00 00 00 
    a16c:	c7 85 08 f0 ff ff 07 	movl   $0x7,-0xff8(%rbp)
    a173:	00 00 00 
    a176:	c7 85 0c f0 ff ff ff 	movl   $0xffffffff,-0xff4(%rbp)
    a17d:	ff ff ff 
    a180:	c7 85 10 f0 ff ff e0 	movl   $0xb850c3e0,-0xff0(%rbp)
    a187:	c3 50 b8 
    a18a:	c7 85 14 f0 ff ff 01 	movl   $0x1,-0xfec(%rbp)
    a191:	00 00 00 
    a194:	c7 85 18 f0 ff ff e0 	movl   $0xb850c3e0,-0xfe8(%rbp)
    a19b:	c3 50 b8 
    a19e:	c7 85 1c f0 ff ff ff 	movl   $0xffffffff,-0xfe4(%rbp)
    a1a5:	ff ff ff 
    a1a8:	c7 85 20 f0 ff ff 07 	movl   $0x7,-0xfe0(%rbp)
    a1af:	00 00 00 
    a1b2:	c7 85 24 f0 ff ff ff 	movl   $0xffffffff,-0xfdc(%rbp)
    a1b9:	ff ff ff 
    a1bc:	c7 85 28 f0 ff ff e0 	movl   $0xb850c3e0,-0xfd8(%rbp)
    a1c3:	c3 50 b8 
    a1c6:	c7 85 2c f0 ff ff 01 	movl   $0x1,-0xfd4(%rbp)
    a1cd:	00 00 00 
    a1d0:	c7 85 00 e9 ff ff 2e 	movl   $0x12adc42e,-0x1700(%rbp)
    a1d7:	c4 ad 12 
    a1da:	48 8d 05 17 67 01 00 	lea    0x16717(%rip),%rax        # 208f8 <g_1779+0x138>
    a1e1:	48 89 85 b8 e9 ff ff 	mov    %rax,-0x1648(%rbp)
    a1e8:	c7 85 bc e8 ff ff 01 	movl   $0x1,-0x1744(%rbp)
    a1ef:	00 00 00 
    a1f2:	c7 85 c0 e8 ff ff 00 	movl   $0x0,-0x1740(%rbp)
    a1f9:	00 00 00 
    a1fc:	eb 45                	jmp    a243 <func_2+0x1446>
    a1fe:	c7 85 c4 e8 ff ff 00 	movl   $0x0,-0x173c(%rbp)
    a205:	00 00 00 
    a208:	eb 29                	jmp    a233 <func_2+0x1436>
    a20a:	8b 85 c4 e8 ff ff    	mov    -0x173c(%rbp),%eax
    a210:	48 98                	cltq   
    a212:	8b 95 c0 e8 ff ff    	mov    -0x1740(%rbp),%edx
    a218:	48 63 d2             	movslq %edx,%rdx
    a21b:	48 01 d2             	add    %rdx,%rdx
    a21e:	48 01 d0             	add    %rdx,%rax
    a221:	c7 84 85 00 ed ff ff 	movl   $0xe7f7e744,-0x1300(%rbp,%rax,4)
    a228:	44 e7 f7 e7 
    a22c:	83 85 c4 e8 ff ff 01 	addl   $0x1,-0x173c(%rbp)
    a233:	83 bd c4 e8 ff ff 01 	cmpl   $0x1,-0x173c(%rbp)
    a23a:	7e ce                	jle    a20a <func_2+0x140d>
    a23c:	83 85 c0 e8 ff ff 01 	addl   $0x1,-0x1740(%rbp)
    a243:	83 bd c0 e8 ff ff 04 	cmpl   $0x4,-0x1740(%rbp)
    a24a:	7e b2                	jle    a1fe <func_2+0x1401>
    a24c:	c7 85 c0 e8 ff ff 00 	movl   $0x0,-0x1740(%rbp)
    a253:	00 00 00 
    a256:	eb 1a                	jmp    a272 <func_2+0x1475>
    a258:	8b 85 c0 e8 ff ff    	mov    -0x1740(%rbp),%eax
    a25e:	48 98                	cltq   
    a260:	c7 84 85 60 ec ff ff 	movl   $0xfffffffc,-0x13a0(%rbp,%rax,4)
    a267:	fc ff ff ff 
    a26b:	83 85 c0 e8 ff ff 01 	addl   $0x1,-0x1740(%rbp)
    a272:	83 bd c0 e8 ff ff 05 	cmpl   $0x5,-0x1740(%rbp)
    a279:	7e dd                	jle    a258 <func_2+0x145b>
    a27b:	48 8b 05 86 52 01 00 	mov    0x15286(%rip),%rax        # 1f508 <g_101>
    a282:	8b 00                	mov    (%rax),%eax
    a284:	85 c0                	test   %eax,%eax
    a286:	0f 84 90 0c 00 00    	je     af1c <func_2+0x211f>
    a28c:	c7 85 9c e8 ff ff fc 	movl   $0xfffffffc,-0x1764(%rbp)
    a293:	ff ff ff 
    a296:	48 c7 85 c0 e9 ff ff 	movq   $0x0,-0x1640(%rbp)
    a29d:	00 00 00 00 
    a2a1:	c6 85 8b e8 ff ff 02 	movb   $0x2,-0x1775(%rbp)
    a2a8:	c7 85 f8 e8 ff ff 00 	movl   $0x0,-0x1708(%rbp)
    a2af:	00 00 00 
    a2b2:	83 bd f8 e8 ff ff 05 	cmpl   $0x5,-0x1708(%rbp)
    a2b9:	7f 0e                	jg     a2c9 <func_2+0x14cc>
    a2bb:	48 8b 05 3e 5a 01 00 	mov    0x15a3e(%rip),%rax        # 1fd00 <g_434>
    a2c2:	8b 00                	mov    (%rax),%eax
    a2c4:	e9 ec 22 00 00       	jmpq   c5b5 <func_2+0x37b8>
    a2c9:	48 8b 05 58 64 01 00 	mov    0x16458(%rip),%rax        # 20728 <g_1282>
    a2d0:	48 8b 00             	mov    (%rax),%rax
    a2d3:	c7 00 ff ff ff ff    	movl   $0xffffffff,(%rax)
    a2d9:	48 83 bd 78 e8 ff ff 	cmpq   $0x0,-0x1788(%rbp)
    a2e0:	00 
    a2e1:	74 38                	je     a31b <func_2+0x151e>
    a2e3:	48 8b 05 4e 64 01 00 	mov    0x1644e(%rip),%rax        # 20738 <g_1280>
    a2ea:	48 8b 00             	mov    (%rax),%rax
    a2ed:	48 8b 00             	mov    (%rax),%rax
    a2f0:	48 8b 00             	mov    (%rax),%rax
    a2f3:	8b 95 9c e8 ff ff    	mov    -0x1764(%rbp),%edx
    a2f9:	89 10                	mov    %edx,(%rax)
    a2fb:	48 8b 95 60 e9 ff ff 	mov    -0x16a0(%rbp),%rdx
    a302:	48 8b 12             	mov    (%rdx),%rdx
    a305:	48 8b 12             	mov    (%rdx),%rdx
    a308:	48 8b 12             	mov    (%rdx),%rdx
    a30b:	8b 00                	mov    (%rax),%eax
    a30d:	89 02                	mov    %eax,(%rdx)
    a30f:	c6 05 72 2f 01 00 00 	movb   $0x0,0x12f72(%rip)        # 1d288 <g_405>
    a316:	e9 f0 0b 00 00       	jmpq   af0b <func_2+0x210e>
    a31b:	66 c7 85 92 e8 ff ff 	movw   $0xfffe,-0x176e(%rbp)
    a322:	fe ff 
    a324:	48 8d 05 9d 35 01 00 	lea    0x1359d(%rip),%rax        # 1d8c8 <g_1934>
    a32b:	48 89 85 98 ea ff ff 	mov    %rax,-0x1568(%rbp)
    a332:	c7 05 44 34 01 00 e5 	movl   $0xffffffe5,0x13444(%rip)        # 1d780 <g_1218>
    a339:	ff ff ff 
    a33c:	eb 3c                	jmp    a37a <func_2+0x157d>
    a33e:	66 c7 85 96 e8 ff ff 	movw   $0x1,-0x176a(%rbp)
    a345:	01 00 
    a347:	48 8b 85 80 e9 ff ff 	mov    -0x1680(%rbp),%rax
    a34e:	48 8d 95 9c e8 ff ff 	lea    -0x1764(%rbp),%rdx
    a355:	48 89 10             	mov    %rdx,(%rax)
    a358:	66 83 ad 92 e8 ff ff 	subw   $0x1,-0x176e(%rbp)
    a35f:	01 
    a360:	8b 05 1a 34 01 00    	mov    0x1341a(%rip),%eax        # 1d780 <g_1218>
    a366:	98                   	cwtl   
    a367:	be 01 00 00 00       	mov    $0x1,%esi
    a36c:	89 c7                	mov    %eax,%edi
    a36e:	e8 60 d0 ff ff       	callq  73d3 <safe_add_func_int16_t_s_s>
    a373:	98                   	cwtl   
    a374:	89 05 06 34 01 00    	mov    %eax,0x13406(%rip)        # 1d780 <g_1218>
    a37a:	8b 05 00 34 01 00    	mov    0x13400(%rip),%eax        # 1d780 <g_1218>
    a380:	83 f8 2f             	cmp    $0x2f,%eax
    a383:	75 b9                	jne    a33e <func_2+0x1541>
    a385:	48 8b 85 78 e8 ff ff 	mov    -0x1788(%rbp),%rax
    a38c:	0f be d8             	movsbl %al,%ebx
    a38f:	48 8b 85 98 ea ff ff 	mov    -0x1568(%rbp),%rax
    a396:	48 8b 00             	mov    (%rax),%rax
    a399:	48 23 85 70 e8 ff ff 	and    -0x1790(%rbp),%rax
    a3a0:	48 89 c2             	mov    %rax,%rdx
    a3a3:	48 8b 85 98 ea ff ff 	mov    -0x1568(%rbp),%rax
    a3aa:	48 89 10             	mov    %rdx,(%rax)
    a3ad:	48 8b 85 98 ea ff ff 	mov    -0x1568(%rbp),%rax
    a3b4:	48 8b 00             	mov    (%rax),%rax
    a3b7:	8b 95 b4 e8 ff ff    	mov    -0x174c(%rbp),%edx
    a3bd:	48 63 ca             	movslq %edx,%rcx
    a3c0:	48 8b 95 c0 e9 ff ff 	mov    -0x1640(%rbp),%rdx
    a3c7:	48 09 ca             	or     %rcx,%rdx
    a3ca:	48 39 d0             	cmp    %rdx,%rax
    a3cd:	0f 95 c2             	setne  %dl
    a3d0:	48 8b 85 60 e9 ff ff 	mov    -0x16a0(%rbp),%rax
    a3d7:	48 8b 00             	mov    (%rax),%rax
    a3da:	48 8b 00             	mov    (%rax),%rax
    a3dd:	48 8b 00             	mov    (%rax),%rax
    a3e0:	0f b6 d2             	movzbl %dl,%edx
    a3e3:	89 10                	mov    %edx,(%rax)
    a3e5:	8b 00                	mov    (%rax),%eax
    a3e7:	48 98                	cltq   
    a3e9:	48 39 85 78 e8 ff ff 	cmp    %rax,-0x1788(%rbp)
    a3f0:	0f 86 ee 00 00 00    	jbe    a4e4 <func_2+0x16e7>
    a3f6:	48 8b 05 2b 2c 01 00 	mov    0x12c2b(%rip),%rax        # 1d028 <g_11>
    a3fd:	44 0f b7 e0          	movzwl %ax,%r12d
    a401:	4c 8b ad 70 e8 ff ff 	mov    -0x1790(%rbp),%r13
    a408:	48 8b 05 51 65 01 00 	mov    0x16551(%rip),%rax        # 20960 <g_1949>
    a40f:	48 8b 00             	mov    (%rax),%rax
    a412:	48 8b 00             	mov    (%rax),%rax
    a415:	0f b7 00             	movzwl (%rax),%eax
    a418:	0f bf d0             	movswl %ax,%edx
    a41b:	48 8b 05 26 63 01 00 	mov    0x16326(%rip),%rax        # 20748 <g_1550>
    a422:	c6 00 a6             	movb   $0xa6,(%rax)
    a425:	48 8b 85 70 e8 ff ff 	mov    -0x1790(%rbp),%rax
    a42c:	83 c8 a6             	or     $0xffffffa6,%eax
    a42f:	98                   	cwtl   
    a430:	89 d6                	mov    %edx,%esi
    a432:	89 c7                	mov    %eax,%edi
    a434:	e8 dc cf ff ff       	callq  7415 <safe_mul_func_int16_t_s_s>
    a439:	48 8b 85 60 e9 ff ff 	mov    -0x16a0(%rbp),%rax
    a440:	48 8b 00             	mov    (%rax),%rax
    a443:	48 8b 00             	mov    (%rax),%rax
    a446:	48 8b 00             	mov    (%rax),%rax
    a449:	8b 00                	mov    (%rax),%eax
    a44b:	48 98                	cltq   
    a44d:	48 39 85 78 e8 ff ff 	cmp    %rax,-0x1788(%rbp)
    a454:	0f 95 c0             	setne  %al
    a457:	0f b6 c0             	movzbl %al,%eax
    a45a:	89 c7                	mov    %eax,%edi
    a45c:	e8 04 d7 ff ff       	callq  7b65 <safe_unary_minus_func_uint8_t_u>
    a461:	0f b6 c0             	movzbl %al,%eax
    a464:	4c 89 ee             	mov    %r13,%rsi
    a467:	48 89 c7             	mov    %rax,%rdi
    a46a:	e8 65 d5 ff ff       	callq  79d4 <safe_mod_func_int64_t_s_s>
    a46f:	be 36 39 86 91       	mov    $0x91863936,%esi
    a474:	89 c7                	mov    %eax,%edi
    a476:	e8 71 d2 ff ff       	callq  76ec <safe_mod_func_int32_t_s_s>
    a47b:	89 c2                	mov    %eax,%edx
    a47d:	8b 85 b4 e8 ff ff    	mov    -0x174c(%rbp),%eax
    a483:	09 d0                	or     %edx,%eax
    a485:	0f b7 c0             	movzwl %ax,%eax
    a488:	44 89 e6             	mov    %r12d,%esi
    a48b:	89 c7                	mov    %eax,%edi
    a48d:	e8 8d d8 ff ff       	callq  7d1f <safe_add_func_uint16_t_u_u>
    a492:	48 8b 05 af 58 01 00 	mov    0x158af(%rip),%rax        # 1fd48 <g_596>
    a499:	48 8b 00             	mov    (%rax),%rax
    a49c:	48 85 c0             	test   %rax,%rax
    a49f:	74 15                	je     a4b6 <func_2+0x16b9>
    a4a1:	48 8b 05 40 58 01 00 	mov    0x15840(%rip),%rax        # 1fce8 <g_367>
    a4a8:	0f b6 00             	movzbl (%rax),%eax
    a4ab:	84 c0                	test   %al,%al
    a4ad:	74 07                	je     a4b6 <func_2+0x16b9>
    a4af:	b8 01 00 00 00       	mov    $0x1,%eax
    a4b4:	eb 05                	jmp    a4bb <func_2+0x16be>
    a4b6:	b8 00 00 00 00       	mov    $0x0,%eax
    a4bb:	85 c0                	test   %eax,%eax
    a4bd:	75 11                	jne    a4d0 <func_2+0x16d3>
    a4bf:	48 8b 85 58 e9 ff ff 	mov    -0x16a8(%rbp),%rax
    a4c6:	48 8b 00             	mov    (%rax),%rax
    a4c9:	48 8b 00             	mov    (%rax),%rax
    a4cc:	8b 00                	mov    (%rax),%eax
    a4ce:	85 c0                	test   %eax,%eax
    a4d0:	be fe ff ff ff       	mov    $0xfffffffe,%esi
    a4d5:	bf 00 00 00 00       	mov    $0x0,%edi
    a4da:	e8 36 cf ff ff       	callq  7415 <safe_mul_func_int16_t_s_s>
    a4df:	66 85 c0             	test   %ax,%ax
    a4e2:	74 07                	je     a4eb <func_2+0x16ee>
    a4e4:	b8 01 00 00 00       	mov    $0x1,%eax
    a4e9:	eb 05                	jmp    a4f0 <func_2+0x16f3>
    a4eb:	b8 00 00 00 00       	mov    $0x0,%eax
    a4f0:	0f be c0             	movsbl %al,%eax
    a4f3:	be fb ff ff ff       	mov    $0xfffffffb,%esi
    a4f8:	89 c7                	mov    %eax,%edi
    a4fa:	e8 33 cd ff ff       	callq  7232 <safe_mul_func_int8_t_s_s>
    a4ff:	0f be c0             	movsbl %al,%eax
    a502:	89 de                	mov    %ebx,%esi
    a504:	89 c7                	mov    %eax,%edi
    a506:	e8 27 cd ff ff       	callq  7232 <safe_mul_func_int8_t_s_s>
    a50b:	84 c0                	test   %al,%al
    a50d:	74 10                	je     a51f <func_2+0x1722>
    a50f:	83 bd b4 e8 ff ff 00 	cmpl   $0x0,-0x174c(%rbp)
    a516:	74 07                	je     a51f <func_2+0x1722>
    a518:	b9 01 00 00 00       	mov    $0x1,%ecx
    a51d:	eb 05                	jmp    a524 <func_2+0x1727>
    a51f:	b9 00 00 00 00       	mov    $0x0,%ecx
    a524:	48 8b 05 dd 4f 01 00 	mov    0x14fdd(%rip),%rax        # 1f508 <g_101>
    a52b:	8b 10                	mov    (%rax),%edx
    a52d:	48 8b 05 d4 4f 01 00 	mov    0x14fd4(%rip),%rax        # 1f508 <g_101>
    a534:	09 ca                	or     %ecx,%edx
    a536:	89 10                	mov    %edx,(%rax)
    a538:	48 8b 85 78 e8 ff ff 	mov    -0x1788(%rbp),%rax
    a53f:	e9 71 20 00 00       	jmpq   c5b5 <func_2+0x37b8>
    a544:	48 8d 05 2d 53 01 00 	lea    0x1532d(%rip),%rax        # 1f878 <g_139+0x358>
    a54b:	48 89 85 30 f0 ff ff 	mov    %rax,-0xfd0(%rbp)
    a552:	48 8d 05 df 56 01 00 	lea    0x156df(%rip),%rax        # 1fc38 <g_139+0x718>
    a559:	48 89 85 38 f0 ff ff 	mov    %rax,-0xfc8(%rbp)
    a560:	48 8d 05 11 53 01 00 	lea    0x15311(%rip),%rax        # 1f878 <g_139+0x358>
    a567:	48 89 85 40 f0 ff ff 	mov    %rax,-0xfc0(%rbp)
    a56e:	48 8d 05 03 53 01 00 	lea    0x15303(%rip),%rax        # 1f878 <g_139+0x358>
    a575:	48 89 85 48 f0 ff ff 	mov    %rax,-0xfb8(%rbp)
    a57c:	48 8d 05 b5 56 01 00 	lea    0x156b5(%rip),%rax        # 1fc38 <g_139+0x718>
    a583:	48 89 85 50 f0 ff ff 	mov    %rax,-0xfb0(%rbp)
    a58a:	48 8d 05 e7 52 01 00 	lea    0x152e7(%rip),%rax        # 1f878 <g_139+0x358>
    a591:	48 89 85 58 f0 ff ff 	mov    %rax,-0xfa8(%rbp)
    a598:	48 8d 05 d9 52 01 00 	lea    0x152d9(%rip),%rax        # 1f878 <g_139+0x358>
    a59f:	48 89 85 60 f0 ff ff 	mov    %rax,-0xfa0(%rbp)
    a5a6:	48 8d 05 8b 56 01 00 	lea    0x1568b(%rip),%rax        # 1fc38 <g_139+0x718>
    a5ad:	48 89 85 68 f0 ff ff 	mov    %rax,-0xf98(%rbp)
    a5b4:	48 8d 85 30 f0 ff ff 	lea    -0xfd0(%rbp),%rax
    a5bb:	48 83 c0 10          	add    $0x10,%rax
    a5bf:	48 89 85 a0 ea ff ff 	mov    %rax,-0x1560(%rbp)
    a5c6:	48 8d 05 87 2a 01 00 	lea    0x12a87(%rip),%rax        # 1d054 <g_93+0x14>
    a5cd:	48 89 85 a8 ea ff ff 	mov    %rax,-0x1558(%rbp)
    a5d4:	c7 85 c8 e8 ff ff 01 	movl   $0x1,-0x1738(%rbp)
    a5db:	00 00 00 
    a5de:	48 8d 85 98 e9 ff ff 	lea    -0x1668(%rbp),%rax
    a5e5:	48 89 85 b0 ea ff ff 	mov    %rax,-0x1550(%rbp)
    a5ec:	48 c7 85 b8 ea ff ff 	movq   $0x0,-0x1548(%rbp)
    a5f3:	00 00 00 00 
    a5f7:	c7 85 cc e8 ff ff 00 	movl   $0x0,-0x1734(%rbp)
    a5fe:	00 00 00 
    a601:	eb 1e                	jmp    a621 <func_2+0x1824>
    a603:	8b 85 cc e8 ff ff    	mov    -0x1734(%rbp),%eax
    a609:	48 98                	cltq   
    a60b:	48 8d 15 fc 31 01 00 	lea    0x131fc(%rip),%rdx        # 1d80e <g_1590>
    a612:	48 89 94 c5 50 ec ff 	mov    %rdx,-0x13b0(%rbp,%rax,8)
    a619:	ff 
    a61a:	83 85 cc e8 ff ff 01 	addl   $0x1,-0x1734(%rbp)
    a621:	83 bd cc e8 ff ff 01 	cmpl   $0x1,-0x1734(%rbp)
    a628:	7e d9                	jle    a603 <func_2+0x1806>
    a62a:	c7 85 cc e8 ff ff 00 	movl   $0x0,-0x1734(%rbp)
    a631:	00 00 00 
    a634:	eb 1e                	jmp    a654 <func_2+0x1857>
    a636:	8b 85 cc e8 ff ff    	mov    -0x1734(%rbp),%eax
    a63c:	48 98                	cltq   
    a63e:	48 8d 15 5b 56 01 00 	lea    0x1565b(%rip),%rdx        # 1fca0 <g_228>
    a645:	48 89 94 c5 e0 ed ff 	mov    %rdx,-0x1220(%rbp,%rax,8)
    a64c:	ff 
    a64d:	83 85 cc e8 ff ff 01 	addl   $0x1,-0x1734(%rbp)
    a654:	83 bd cc e8 ff ff 06 	cmpl   $0x6,-0x1734(%rbp)
    a65b:	7e d9                	jle    a636 <func_2+0x1839>
    a65d:	48 8b 85 70 e8 ff ff 	mov    -0x1790(%rbp),%rax
    a664:	89 c3                	mov    %eax,%ebx
    a666:	48 83 bd 78 e8 ff ff 	cmpq   $0x0,-0x1788(%rbp)
    a66d:	00 
    a66e:	74 78                	je     a6e8 <func_2+0x18eb>
    a670:	48 8b 85 70 e8 ff ff 	mov    -0x1790(%rbp),%rax
    a677:	0f b7 c0             	movzwl %ax,%eax
    a67a:	48 8b 15 b7 56 01 00 	mov    0x156b7(%rip),%rdx        # 1fd38 <g_472>
    a681:	48 8b 12             	mov    (%rdx),%rdx
    a684:	48 8b 12             	mov    (%rdx),%rdx
    a687:	0f b7 12             	movzwl (%rdx),%edx
    a68a:	0f b7 d2             	movzwl %dx,%edx
    a68d:	48 39 95 70 e8 ff ff 	cmp    %rdx,-0x1790(%rbp)
    a694:	77 07                	ja     a69d <func_2+0x18a0>
    a696:	ba fe 00 00 00       	mov    $0xfe,%edx
    a69b:	eb 05                	jmp    a6a2 <func_2+0x18a5>
    a69d:	ba ff 00 00 00       	mov    $0xff,%edx
    a6a2:	89 c6                	mov    %eax,%esi
    a6a4:	89 d7                	mov    %edx,%edi
    a6a6:	e8 94 d6 ff ff       	callq  7d3f <safe_sub_func_uint16_t_u_u>
    a6ab:	8b 85 9c e8 ff ff    	mov    -0x1764(%rbp),%eax
    a6b1:	89 c2                	mov    %eax,%edx
    a6b3:	48 8b 85 70 e8 ff ff 	mov    -0x1790(%rbp),%rax
    a6ba:	21 d0                	and    %edx,%eax
    a6bc:	0f b7 c0             	movzwl %ax,%eax
    a6bf:	be 0b 00 00 00       	mov    $0xb,%esi
    a6c4:	89 c7                	mov    %eax,%edi
    a6c6:	e8 13 d7 ff ff       	callq  7dde <safe_lshift_func_uint16_t_u_s>
    a6cb:	0f b7 c0             	movzwl %ax,%eax
    a6ce:	8b 95 b4 e8 ff ff    	mov    -0x174c(%rbp),%edx
    a6d4:	89 d6                	mov    %edx,%esi
    a6d6:	89 c7                	mov    %eax,%edi
    a6d8:	e8 42 d0 ff ff       	callq  771f <safe_div_func_int32_t_s_s>
    a6dd:	85 c0                	test   %eax,%eax
    a6df:	74 07                	je     a6e8 <func_2+0x18eb>
    a6e1:	b8 01 00 00 00       	mov    $0x1,%eax
    a6e6:	eb 05                	jmp    a6ed <func_2+0x18f0>
    a6e8:	b8 00 00 00 00       	mov    $0x0,%eax
    a6ed:	0f be d0             	movsbl %al,%edx
    a6f0:	48 8b 85 78 e8 ff ff 	mov    -0x1788(%rbp),%rax
    a6f7:	0f be c0             	movsbl %al,%eax
    a6fa:	89 d6                	mov    %edx,%esi
    a6fc:	89 c7                	mov    %eax,%edi
    a6fe:	e8 f1 ca ff ff       	callq  71f4 <safe_add_func_int8_t_s_s>
    a703:	0f be c0             	movsbl %al,%eax
    a706:	89 de                	mov    %ebx,%esi
    a708:	89 c7                	mov    %eax,%edi
    a70a:	e8 ff cb ff ff       	callq  730e <safe_lshift_func_int8_t_s_u>
    a70f:	84 c0                	test   %al,%al
    a711:	74 10                	je     a723 <func_2+0x1926>
    a713:	83 bd b4 e8 ff ff 00 	cmpl   $0x0,-0x174c(%rbp)
    a71a:	74 07                	je     a723 <func_2+0x1926>
    a71c:	b8 01 00 00 00       	mov    $0x1,%eax
    a721:	eb 05                	jmp    a728 <func_2+0x192b>
    a723:	b8 00 00 00 00       	mov    $0x0,%eax
    a728:	89 c2                	mov    %eax,%edx
    a72a:	48 8b 85 70 e8 ff ff 	mov    -0x1790(%rbp),%rax
    a731:	89 d6                	mov    %edx,%esi
    a733:	89 c7                	mov    %eax,%edi
    a735:	e8 e3 d7 ff ff       	callq  7f1d <safe_mod_func_uint32_t_u_u>
    a73a:	be 03 00 00 00       	mov    $0x3,%esi
    a73f:	89 c7                	mov    %eax,%edi
    a741:	e8 ff d7 ff ff       	callq  7f45 <safe_div_func_uint32_t_u_u>
    a746:	48 83 bd 70 e8 ff ff 	cmpq   $0x0,-0x1790(%rbp)
    a74d:	00 
    a74e:	74 07                	je     a757 <func_2+0x195a>
    a750:	b8 01 00 00 00       	mov    $0x1,%eax
    a755:	eb 05                	jmp    a75c <func_2+0x195f>
    a757:	b8 00 00 00 00       	mov    $0x0,%eax
    a75c:	48 98                	cltq   
    a75e:	48 39 85 78 e8 ff ff 	cmp    %rax,-0x1788(%rbp)
    a765:	0f 93 c0             	setae  %al
    a768:	0f b6 c8             	movzbl %al,%ecx
    a76b:	48 8b 85 60 e9 ff ff 	mov    -0x16a0(%rbp),%rax
    a772:	48 8b 00             	mov    (%rax),%rax
    a775:	48 8b 00             	mov    (%rax),%rax
    a778:	48 8b 00             	mov    (%rax),%rax
    a77b:	8b 10                	mov    (%rax),%edx
    a77d:	48 8b 85 60 e9 ff ff 	mov    -0x16a0(%rbp),%rax
    a784:	48 8b 00             	mov    (%rax),%rax
    a787:	48 8b 00             	mov    (%rax),%rax
    a78a:	48 8b 00             	mov    (%rax),%rax
    a78d:	21 ca                	and    %ecx,%edx
    a78f:	89 10                	mov    %edx,(%rax)
    a791:	c6 05 1c 2a 01 00 00 	movb   $0x0,0x12a1c(%rip)        # 1d1b4 <g_237+0x14>
    a798:	90                   	nop
    a799:	0f b6 05 14 2a 01 00 	movzbl 0x12a14(%rip),%eax        # 1d1b4 <g_237+0x14>
    a7a0:	3c 01                	cmp    $0x1,%al
    a7a2:	77 0c                	ja     a7b0 <func_2+0x19b3>
    a7a4:	48 8b 85 70 e8 ff ff 	mov    -0x1790(%rbp),%rax
    a7ab:	e9 05 1e 00 00       	jmpq   c5b5 <func_2+0x37b8>
    a7b0:	48 8b 85 70 e8 ff ff 	mov    -0x1790(%rbp),%rax
    a7b7:	0f b7 d8             	movzwl %ax,%ebx
    a7ba:	48 8b 85 a0 ea ff ff 	mov    -0x1560(%rbp),%rax
    a7c1:	48 c7 00 00 00 00 00 	movq   $0x0,(%rax)
    a7c8:	48 8b 85 a0 ea ff ff 	mov    -0x1560(%rbp),%rax
    a7cf:	48 8b 00             	mov    (%rax),%rax
    a7d2:	48 39 85 40 ea ff ff 	cmp    %rax,-0x15c0(%rbp)
    a7d9:	8b 05 f1 30 01 00    	mov    0x130f1(%rip),%eax        # 1d8d0 <g_1974>
    a7df:	85 c0                	test   %eax,%eax
    a7e1:	75 55                	jne    a838 <func_2+0x1a3b>
    a7e3:	81 bd b8 e8 ff ff 85 	cmpl   $0x519d3f85,-0x1748(%rbp)
    a7ea:	3f 9d 51 
    a7ed:	0f b6 05 7c 69 01 00 	movzbl 0x1697c(%rip),%eax        # 21170 <g_2003>
    a7f4:	48 8b 05 cd 54 01 00 	mov    0x154cd(%rip),%rax        # 1fcc8 <g_294>
    a7fb:	48 8b 00             	mov    (%rax),%rax
    a7fe:	48 89 c2             	mov    %rax,%rdx
    a801:	48 8b 85 c0 e9 ff ff 	mov    -0x1640(%rbp),%rax
    a808:	48 89 d6             	mov    %rdx,%rsi
    a80b:	48 89 c7             	mov    %rax,%rdi
    a80e:	e8 8d d8 ff ff       	callq  80a0 <safe_mod_func_uint64_t_u_u>
    a813:	f7 d0                	not    %eax
    a815:	88 85 8b e8 ff ff    	mov    %al,-0x1775(%rbp)
    a81b:	48 8b 85 60 e9 ff ff 	mov    -0x16a0(%rbp),%rax
    a822:	48 8b 00             	mov    (%rax),%rax
    a825:	48 8b 00             	mov    (%rax),%rax
    a828:	48 8b 00             	mov    (%rax),%rax
    a82b:	8b 00                	mov    (%rax),%eax
    a82d:	48 98                	cltq   
    a82f:	48 39 85 78 e8 ff ff 	cmp    %rax,-0x1788(%rbp)
    a836:	74 07                	je     a83f <func_2+0x1a42>
    a838:	b8 01 00 00 00       	mov    $0x1,%eax
    a83d:	eb 05                	jmp    a844 <func_2+0x1a47>
    a83f:	b8 00 00 00 00       	mov    $0x0,%eax
    a844:	0f b6 d0             	movzbl %al,%edx
    a847:	48 8b 85 a8 ea ff ff 	mov    -0x1558(%rbp),%rax
    a84e:	0f b6 00             	movzbl (%rax),%eax
    a851:	8d 70 01             	lea    0x1(%rax),%esi
    a854:	48 8b 8d a8 ea ff ff 	mov    -0x1558(%rbp),%rcx
    a85b:	40 88 31             	mov    %sil,(%rcx)
    a85e:	0f b6 c0             	movzbl %al,%eax
    a861:	89 85 b4 e8 ff ff    	mov    %eax,-0x174c(%rbp)
    a867:	8b 85 b4 e8 ff ff    	mov    -0x174c(%rbp),%eax
    a86d:	0f b6 c0             	movzbl %al,%eax
    a870:	89 d6                	mov    %edx,%esi
    a872:	89 c7                	mov    %eax,%edi
    a874:	e8 01 d3 ff ff       	callq  7b7a <safe_add_func_uint8_t_u_u>
    a879:	48 8b 85 60 e9 ff ff 	mov    -0x16a0(%rbp),%rax
    a880:	48 8b 00             	mov    (%rax),%rax
    a883:	48 8b 00             	mov    (%rax),%rax
    a886:	48 8b 00             	mov    (%rax),%rax
    a889:	c7 00 77 07 71 8d    	movl   $0x8d710777,(%rax)
    a88f:	8b 00                	mov    (%rax),%eax
    a891:	0f b7 c0             	movzwl %ax,%eax
    a894:	89 de                	mov    %ebx,%esi
    a896:	89 c7                	mov    %eax,%edi
    a898:	e8 a2 d4 ff ff       	callq  7d3f <safe_sub_func_uint16_t_u_u>
    a89d:	48 8b 85 70 e8 ff ff 	mov    -0x1790(%rbp),%rax
    a8a4:	66 89 05 63 2f 01 00 	mov    %ax,0x12f63(%rip)        # 1d80e <g_1590>
    a8ab:	0f b7 05 5c 2f 01 00 	movzwl 0x12f5c(%rip),%eax        # 1d80e <g_1590>
    a8b2:	98                   	cwtl   
    a8b3:	be 01 00 00 00       	mov    $0x1,%esi
    a8b8:	89 c7                	mov    %eax,%edi
    a8ba:	e8 42 cc ff ff       	callq  7501 <safe_lshift_func_int16_t_s_u>
    a8bf:	66 85 c0             	test   %ax,%ax
    a8c2:	74 2d                	je     a8f1 <func_2+0x1af4>
    a8c4:	48 8b 85 58 e9 ff ff 	mov    -0x16a8(%rbp),%rax
    a8cb:	48 8b 10             	mov    (%rax),%rdx
    a8ce:	48 8b 85 58 e9 ff ff 	mov    -0x16a8(%rbp),%rax
    a8d5:	48 8b 00             	mov    (%rax),%rax
    a8d8:	48 8b 12             	mov    (%rdx),%rdx
    a8db:	48 89 10             	mov    %rdx,(%rax)
    a8de:	48 83 bd 78 e8 ff ff 	cmpq   $0x0,-0x1788(%rbp)
    a8e5:	00 
    a8e6:	0f 84 6e 05 00 00    	je     ae5a <func_2+0x205d>
    a8ec:	e9 3f 06 00 00       	jmpq   af30 <func_2+0x2133>
    a8f1:	c7 85 80 ec ff ff f9 	movl   $0xfffffff9,-0x1380(%rbp)
    a8f8:	ff ff ff 
    a8fb:	c7 85 84 ec ff ff 01 	movl   $0x1,-0x137c(%rbp)
    a902:	00 00 00 
    a905:	c7 85 88 ec ff ff 01 	movl   $0x1,-0x1378(%rbp)
    a90c:	00 00 00 
    a90f:	c7 85 8c ec ff ff f9 	movl   $0xfffffff9,-0x1374(%rbp)
    a916:	ff ff ff 
    a919:	c7 85 90 ec ff ff 01 	movl   $0x1,-0x1370(%rbp)
    a920:	00 00 00 
    a923:	c7 85 94 ec ff ff 01 	movl   $0x1,-0x136c(%rbp)
    a92a:	00 00 00 
    a92d:	c7 85 98 ec ff ff f9 	movl   $0xfffffff9,-0x1368(%rbp)
    a934:	ff ff ff 
    a937:	48 8d 05 8a 2e 01 00 	lea    0x12e8a(%rip),%rax        # 1d7c8 <g_1331>
    a93e:	48 89 85 c0 ea ff ff 	mov    %rax,-0x1540(%rbp)
    a945:	c7 85 04 e9 ff ff ff 	movl   $0xffffffff,-0x16fc(%rbp)
    a94c:	ff ff ff 
    a94f:	48 c7 85 c8 ea ff ff 	movq   $0x0,-0x1538(%rbp)
    a956:	00 00 00 00 
    a95a:	48 8d 05 03 2a 01 00 	lea    0x12a03(%rip),%rax        # 1d364 <g_658+0x24>
    a961:	48 89 85 d0 ea ff ff 	mov    %rax,-0x1530(%rbp)
    a968:	48 8d 05 d9 67 01 00 	lea    0x167d9(%rip),%rax        # 21148 <g_907>
    a96f:	48 89 85 c8 e9 ff ff 	mov    %rax,-0x1638(%rbp)
    a976:	48 8d 85 c8 e9 ff ff 	lea    -0x1638(%rbp),%rax
    a97d:	48 89 85 d0 e9 ff ff 	mov    %rax,-0x1630(%rbp)
    a984:	48 8d 85 d0 e9 ff ff 	lea    -0x1630(%rbp),%rax
    a98b:	48 89 85 f0 f7 ff ff 	mov    %rax,-0x810(%rbp)
    a992:	48 8d 85 d0 e9 ff ff 	lea    -0x1630(%rbp),%rax
    a999:	48 89 85 f8 f7 ff ff 	mov    %rax,-0x808(%rbp)
    a9a0:	48 8d 85 d0 e9 ff ff 	lea    -0x1630(%rbp),%rax
    a9a7:	48 89 85 00 f8 ff ff 	mov    %rax,-0x800(%rbp)
    a9ae:	48 c7 85 08 f8 ff ff 	movq   $0x0,-0x7f8(%rbp)
    a9b5:	00 00 00 00 
    a9b9:	48 c7 85 10 f8 ff ff 	movq   $0x0,-0x7f0(%rbp)
    a9c0:	00 00 00 00 
    a9c4:	48 8d 85 d0 e9 ff ff 	lea    -0x1630(%rbp),%rax
    a9cb:	48 89 85 18 f8 ff ff 	mov    %rax,-0x7e8(%rbp)
    a9d2:	48 8d 85 d0 e9 ff ff 	lea    -0x1630(%rbp),%rax
    a9d9:	48 89 85 20 f8 ff ff 	mov    %rax,-0x7e0(%rbp)
    a9e0:	48 8d 85 d0 e9 ff ff 	lea    -0x1630(%rbp),%rax
    a9e7:	48 89 85 28 f8 ff ff 	mov    %rax,-0x7d8(%rbp)
    a9ee:	48 8d 85 d0 e9 ff ff 	lea    -0x1630(%rbp),%rax
    a9f5:	48 89 85 30 f8 ff ff 	mov    %rax,-0x7d0(%rbp)
    a9fc:	48 8d 85 d0 e9 ff ff 	lea    -0x1630(%rbp),%rax
    aa03:	48 89 85 38 f8 ff ff 	mov    %rax,-0x7c8(%rbp)
    aa0a:	48 8d 85 d0 e9 ff ff 	lea    -0x1630(%rbp),%rax
    aa11:	48 89 85 40 f8 ff ff 	mov    %rax,-0x7c0(%rbp)
    aa18:	48 c7 85 48 f8 ff ff 	movq   $0x0,-0x7b8(%rbp)
    aa1f:	00 00 00 00 
    aa23:	48 8d 85 d0 e9 ff ff 	lea    -0x1630(%rbp),%rax
    aa2a:	48 89 85 50 f8 ff ff 	mov    %rax,-0x7b0(%rbp)
    aa31:	48 8d 85 d0 e9 ff ff 	lea    -0x1630(%rbp),%rax
    aa38:	48 89 85 58 f8 ff ff 	mov    %rax,-0x7a8(%rbp)
    aa3f:	48 8d 85 d0 e9 ff ff 	lea    -0x1630(%rbp),%rax
    aa46:	48 89 85 60 f8 ff ff 	mov    %rax,-0x7a0(%rbp)
    aa4d:	48 8d 85 d0 e9 ff ff 	lea    -0x1630(%rbp),%rax
    aa54:	48 89 85 68 f8 ff ff 	mov    %rax,-0x798(%rbp)
    aa5b:	48 8d 85 d0 e9 ff ff 	lea    -0x1630(%rbp),%rax
    aa62:	48 89 85 70 f8 ff ff 	mov    %rax,-0x790(%rbp)
    aa69:	48 c7 85 78 f8 ff ff 	movq   $0x0,-0x788(%rbp)
    aa70:	00 00 00 00 
    aa74:	48 8d 85 d0 e9 ff ff 	lea    -0x1630(%rbp),%rax
    aa7b:	48 89 85 80 f8 ff ff 	mov    %rax,-0x780(%rbp)
    aa82:	48 8d 85 d0 e9 ff ff 	lea    -0x1630(%rbp),%rax
    aa89:	48 89 85 88 f8 ff ff 	mov    %rax,-0x778(%rbp)
    aa90:	48 c7 85 90 f8 ff ff 	movq   $0x0,-0x770(%rbp)
    aa97:	00 00 00 00 
    aa9b:	48 8d 85 d0 e9 ff ff 	lea    -0x1630(%rbp),%rax
    aaa2:	48 89 85 98 f8 ff ff 	mov    %rax,-0x768(%rbp)
    aaa9:	48 c7 85 a0 f8 ff ff 	movq   $0x0,-0x760(%rbp)
    aab0:	00 00 00 00 
    aab4:	48 8d 85 d0 e9 ff ff 	lea    -0x1630(%rbp),%rax
    aabb:	48 89 85 a8 f8 ff ff 	mov    %rax,-0x758(%rbp)
    aac2:	48 c7 85 b0 f8 ff ff 	movq   $0x0,-0x750(%rbp)
    aac9:	00 00 00 00 
    aacd:	48 8d 85 d0 e9 ff ff 	lea    -0x1630(%rbp),%rax
    aad4:	48 89 85 b8 f8 ff ff 	mov    %rax,-0x748(%rbp)
    aadb:	48 c7 85 c0 f8 ff ff 	movq   $0x0,-0x740(%rbp)
    aae2:	00 00 00 00 
    aae6:	48 8d 85 d0 e9 ff ff 	lea    -0x1630(%rbp),%rax
    aaed:	48 89 85 c8 f8 ff ff 	mov    %rax,-0x738(%rbp)
    aaf4:	48 c7 85 d0 f8 ff ff 	movq   $0x0,-0x730(%rbp)
    aafb:	00 00 00 00 
    aaff:	48 8d 85 d0 e9 ff ff 	lea    -0x1630(%rbp),%rax
    ab06:	48 89 85 d8 f8 ff ff 	mov    %rax,-0x728(%rbp)
    ab0d:	48 8d 85 d0 e9 ff ff 	lea    -0x1630(%rbp),%rax
    ab14:	48 89 85 e0 f8 ff ff 	mov    %rax,-0x720(%rbp)
    ab1b:	48 c7 85 e8 f8 ff ff 	movq   $0x0,-0x718(%rbp)
    ab22:	00 00 00 00 
    ab26:	48 8d 05 1b 5c 01 00 	lea    0x15c1b(%rip),%rax        # 20748 <g_1550>
    ab2d:	48 89 85 30 ed ff ff 	mov    %rax,-0x12d0(%rbp)
    ab34:	48 8d 05 0d 5c 01 00 	lea    0x15c0d(%rip),%rax        # 20748 <g_1550>
    ab3b:	48 89 85 38 ed ff ff 	mov    %rax,-0x12c8(%rbp)
    ab42:	48 8d 05 ff 5b 01 00 	lea    0x15bff(%rip),%rax        # 20748 <g_1550>
    ab49:	48 89 85 40 ed ff ff 	mov    %rax,-0x12c0(%rbp)
    ab50:	48 8d 05 f1 5b 01 00 	lea    0x15bf1(%rip),%rax        # 20748 <g_1550>
    ab57:	48 89 85 48 ed ff ff 	mov    %rax,-0x12b8(%rbp)
    ab5e:	48 8d 05 e3 5b 01 00 	lea    0x15be3(%rip),%rax        # 20748 <g_1550>
    ab65:	48 89 85 50 ed ff ff 	mov    %rax,-0x12b0(%rbp)
    ab6c:	48 8d 05 d5 5b 01 00 	lea    0x15bd5(%rip),%rax        # 20748 <g_1550>
    ab73:	48 89 85 58 ed ff ff 	mov    %rax,-0x12a8(%rbp)
    ab7a:	c7 85 10 ec ff ff b9 	movl   $0x206272b9,-0x13f0(%rbp)
    ab81:	72 62 20 
    ab84:	c6 85 14 ec ff ff d1 	movb   $0xd1,-0x13ec(%rbp)
    ab8b:	48 c7 85 18 ec ff ff 	movq   $0xffffffffffffffff,-0x13e8(%rbp)
    ab92:	ff ff ff ff 
    ab96:	c7 85 20 ec ff ff f9 	movl   $0xfffffff9,-0x13e0(%rbp)
    ab9d:	ff ff ff 
    aba0:	c6 85 24 ec ff ff 4a 	movb   $0x4a,-0x13dc(%rbp)
    aba7:	c7 85 28 ec ff ff ff 	movl   $0xffffffff,-0x13d8(%rbp)
    abae:	ff ff ff 
    abb1:	66 c7 85 2c ec ff ff 	movw   $0x50f7,-0x13d4(%rbp)
    abb8:	f7 50 
    abba:	c7 85 30 ec ff ff ad 	movl   $0xa90673ad,-0x13d0(%rbp)
    abc1:	73 06 a9 
    abc4:	c6 85 34 ec ff ff ff 	movb   $0xff,-0x13cc(%rbp)
    abcb:	c6 85 35 ec ff ff 01 	movb   $0x1,-0x13cb(%rbp)
    abd2:	48 8b 85 78 e8 ff ff 	mov    -0x1788(%rbp),%rax
    abd9:	0f be d8             	movsbl %al,%ebx
    abdc:	48 8b 85 c0 ea ff ff 	mov    -0x1540(%rbp),%rax
    abe3:	0f b7 00             	movzwl (%rax),%eax
    abe6:	8d 50 01             	lea    0x1(%rax),%edx
    abe9:	48 8b 85 c0 ea ff ff 	mov    -0x1540(%rbp),%rax
    abf0:	66 89 10             	mov    %dx,(%rax)
    abf3:	48 8b 85 58 e9 ff ff 	mov    -0x16a8(%rbp),%rax
    abfa:	48 8b 00             	mov    (%rax),%rax
    abfd:	48 8b 00             	mov    (%rax),%rax
    ac00:	8b 10                	mov    (%rax),%edx
    ac02:	48 8b 05 07 49 01 00 	mov    0x14907(%rip),%rax        # 1f510 <g_140>
    ac09:	89 10                	mov    %edx,(%rax)
    ac0b:	8b 10                	mov    (%rax),%edx
    ac0d:	8b 85 b8 e8 ff ff    	mov    -0x1748(%rbp),%eax
    ac13:	3b 85 c8 e8 ff ff    	cmp    -0x1738(%rbp),%eax
    ac19:	0f 9d c0             	setge  %al
    ac1c:	0f b6 c0             	movzbl %al,%eax
    ac1f:	39 c2                	cmp    %eax,%edx
    ac21:	73 11                	jae    ac34 <func_2+0x1e37>
    ac23:	48 83 bd 78 e8 ff ff 	cmpq   $0x0,-0x1788(%rbp)
    ac2a:	00 
    ac2b:	74 07                	je     ac34 <func_2+0x1e37>
    ac2d:	b8 01 00 00 00       	mov    $0x1,%eax
    ac32:	eb 05                	jmp    ac39 <func_2+0x1e3c>
    ac34:	b8 00 00 00 00       	mov    $0x0,%eax
    ac39:	48 98                	cltq   
    ac3b:	48 39 85 48 ea ff ff 	cmp    %rax,-0x15b8(%rbp)
    ac42:	0f 97 c0             	seta   %al
    ac45:	0f b6 c0             	movzbl %al,%eax
    ac48:	66 21 85 8e e8 ff ff 	and    %ax,-0x1772(%rbp)
    ac4f:	48 8b 95 c0 e9 ff ff 	mov    -0x1640(%rbp),%rdx
    ac56:	48 8b 05 0b 5d 01 00 	mov    0x15d0b(%rip),%rax        # 20968 <g_1948>
    ac5d:	48 8b 00             	mov    (%rax),%rax
    ac60:	48 8b 00             	mov    (%rax),%rax
    ac63:	48 8b 00             	mov    (%rax),%rax
    ac66:	66 89 10             	mov    %dx,(%rax)
    ac69:	0f b7 00             	movzwl (%rax),%eax
    ac6c:	0f bf d0             	movswl %ax,%edx
    ac6f:	8b 85 8c ec ff ff    	mov    -0x1374(%rbp),%eax
    ac75:	89 c1                	mov    %eax,%ecx
    ac77:	48 8b 85 60 e9 ff ff 	mov    -0x16a0(%rbp),%rax
    ac7e:	48 8b 00             	mov    (%rax),%rax
    ac81:	48 8b 00             	mov    (%rax),%rax
    ac84:	48 8b 00             	mov    (%rax),%rax
    ac87:	8b 00                	mov    (%rax),%eax
    ac89:	31 c8                	xor    %ecx,%eax
    ac8b:	98                   	cwtl   
    ac8c:	89 d6                	mov    %edx,%esi
    ac8e:	89 c7                	mov    %eax,%edi
    ac90:	e8 a1 c7 ff ff       	callq  7436 <safe_mod_func_int16_t_s_s>
    ac95:	0f b6 c0             	movzbl %al,%eax
    ac98:	be 00 00 00 00       	mov    $0x0,%esi
    ac9d:	89 c7                	mov    %eax,%edi
    ac9f:	e8 d6 ce ff ff       	callq  7b7a <safe_add_func_uint8_t_u_u>
    aca4:	0f be c0             	movsbl %al,%eax
    aca7:	89 c7                	mov    %eax,%edi
    aca9:	e8 31 c5 ff ff       	callq  71df <safe_unary_minus_func_int8_t_s>
    acae:	44 0f be e0          	movsbl %al,%r12d
    acb2:	8b 05 e8 24 01 00    	mov    0x124e8(%rip),%eax        # 1d1a0 <g_237>
    acb8:	98                   	cwtl   
    acb9:	be 0a 00 00 00       	mov    $0xa,%esi
    acbe:	89 c7                	mov    %eax,%edi
    acc0:	e8 85 c8 ff ff       	callq  754a <safe_rshift_func_int16_t_s_s>
    acc5:	0f b7 c0             	movzwl %ax,%eax
    acc8:	44 89 e6             	mov    %r12d,%esi
    accb:	89 c7                	mov    %eax,%edi
    accd:	e8 c8 d1 ff ff       	callq  7e9a <safe_rshift_func_uint16_t_u_u>
    acd2:	89 de                	mov    %ebx,%esi
    acd4:	bf 73 00 00 00       	mov    $0x73,%edi
    acd9:	e8 73 c5 ff ff       	callq  7251 <safe_mod_func_int8_t_s_s>
    acde:	be 00 00 00 00       	mov    $0x0,%esi
    ace3:	bf ff ff 00 00       	mov    $0xffff,%edi
    ace8:	e8 52 d0 ff ff       	callq  7d3f <safe_sub_func_uint16_t_u_u>
    aced:	48 83 bd 70 e8 ff ff 	cmpq   $0x1,-0x1790(%rbp)
    acf4:	01 
    acf5:	0f 97 c0             	seta   %al
    acf8:	0f b6 c0             	movzbl %al,%eax
    acfb:	89 85 04 e9 ff ff    	mov    %eax,-0x16fc(%rbp)
    ad01:	48 8b 85 a8 ea ff ff 	mov    -0x1558(%rbp),%rax
    ad08:	0f b6 00             	movzbl (%rax),%eax
    ad0b:	8d 48 ff             	lea    -0x1(%rax),%ecx
    ad0e:	48 8b 95 a8 ea ff ff 	mov    -0x1558(%rbp),%rdx
    ad15:	88 0a                	mov    %cl,(%rdx)
    ad17:	48 8b 95 d0 ea ff ff 	mov    -0x1530(%rbp),%rdx
    ad1e:	0f b6 12             	movzbl (%rdx),%edx
    ad21:	09 c2                	or     %eax,%edx
    ad23:	48 8b 85 d0 ea ff ff 	mov    -0x1530(%rbp),%rax
    ad2a:	88 10                	mov    %dl,(%rax)
    ad2c:	48 8b 85 68 f8 ff ff 	mov    -0x798(%rbp),%rax
    ad33:	48 8b 95 50 ea ff ff 	mov    -0x15b0(%rbp),%rdx
    ad3a:	48 89 95 b0 ea ff ff 	mov    %rdx,-0x1550(%rbp)
    ad41:	48 39 85 b0 ea ff ff 	cmp    %rax,-0x1550(%rbp)
    ad48:	48 8b 05 c1 47 01 00 	mov    0x147c1(%rip),%rax        # 1f510 <g_140>
    ad4f:	8b 10                	mov    (%rax),%edx
    ad51:	83 c2 01             	add    $0x1,%edx
    ad54:	89 10                	mov    %edx,(%rax)
    ad56:	48 8b 05 f3 5b 01 00 	mov    0x15bf3(%rip),%rax        # 20950 <g_1848>
    ad5d:	48 8b 00             	mov    (%rax),%rax
    ad60:	48 8b 00             	mov    (%rax),%rax
    ad63:	48 8b 00             	mov    (%rax),%rax
    ad66:	49 89 c4             	mov    %rax,%r12
    ad69:	48 8d 05 7b 63 01 00 	lea    0x1637b(%rip),%rax        # 210eb <g_54+0x3>
    ad70:	48 89 05 d1 59 01 00 	mov    %rax,0x159d1(%rip)        # 20748 <g_1550>
    ad77:	48 8b 05 ca 59 01 00 	mov    0x159ca(%rip),%rax        # 20748 <g_1550>
    ad7e:	48 8d 15 6d 23 01 00 	lea    0x1236d(%rip),%rdx        # 1d0f2 <g_205+0x2>
    ad85:	48 39 d0             	cmp    %rdx,%rax
    ad88:	0f 95 c0             	setne  %al
    ad8b:	0f b6 d8             	movzbl %al,%ebx
    ad8e:	8b 85 b4 e8 ff ff    	mov    -0x174c(%rbp),%eax
    ad94:	0f b6 d0             	movzbl %al,%edx
    ad97:	c7 85 b8 e8 ff ff 01 	movl   $0x1,-0x1748(%rbp)
    ad9e:	00 00 00 
    ada1:	48 83 bd 70 e8 ff ff 	cmpq   $0x1,-0x1790(%rbp)
    ada8:	01 
    ada9:	0f 95 c0             	setne  %al
    adac:	0f b6 c0             	movzbl %al,%eax
    adaf:	89 d6                	mov    %edx,%esi
    adb1:	89 c7                	mov    %eax,%edi
    adb3:	e8 fb cd ff ff       	callq  7bb3 <safe_mul_func_uint8_t_u_u>
    adb8:	48 8b 05 a9 5b 01 00 	mov    0x15ba9(%rip),%rax        # 20968 <g_1948>
    adbf:	48 8b 00             	mov    (%rax),%rax
    adc2:	48 8b 00             	mov    (%rax),%rax
    adc5:	48 8b 00             	mov    (%rax),%rax
    adc8:	0f b7 00             	movzwl (%rax),%eax
    adcb:	0f b7 c0             	movzwl %ax,%eax
    adce:	48 39 85 70 e8 ff ff 	cmp    %rax,-0x1790(%rbp)
    add5:	0f 93 c0             	setae  %al
    add8:	0f b6 c0             	movzbl %al,%eax
    addb:	39 85 c8 e8 ff ff    	cmp    %eax,-0x1738(%rbp)
    ade1:	0f 9e c0             	setle  %al
    ade4:	0f b6 c0             	movzbl %al,%eax
    ade7:	89 85 c8 e8 ff ff    	mov    %eax,-0x1738(%rbp)
    aded:	39 9d c8 e8 ff ff    	cmp    %ebx,-0x1738(%rbp)
    adf3:	0f 9e c0             	setle  %al
    adf6:	0f b6 c0             	movzbl %al,%eax
    adf9:	89 c7                	mov    %eax,%edi
    adfb:	e8 bd c5 ff ff       	callq  73bd <safe_unary_minus_func_int16_t_s>
    ae00:	48 8d 85 c0 e9 ff ff 	lea    -0x1640(%rbp),%rax
    ae07:	48 39 85 b8 ea ff ff 	cmp    %rax,-0x1548(%rbp)
    ae0e:	0f 95 c0             	setne  %al
    ae11:	0f b6 c0             	movzbl %al,%eax
    ae14:	c1 e8 1f             	shr    $0x1f,%eax
    ae17:	0f b6 c0             	movzbl %al,%eax
    ae1a:	4c 89 e6             	mov    %r12,%rsi
    ae1d:	48 89 c7             	mov    %rax,%rdi
    ae20:	e8 a3 ca ff ff       	callq  78c8 <safe_sub_func_int64_t_s_s>
    ae25:	0f b7 05 8c 25 01 00 	movzwl 0x1258c(%rip),%eax        # 1d3b8 <g_1038>
    ae2c:	66 83 f8 01          	cmp    $0x1,%ax
    ae30:	0f 97 c0             	seta   %al
    ae33:	0f b6 c8             	movzbl %al,%ecx
    ae36:	48 8b 05 cb 46 01 00 	mov    0x146cb(%rip),%rax        # 1f508 <g_101>
    ae3d:	8b 10                	mov    (%rax),%edx
    ae3f:	48 8b 05 c2 46 01 00 	mov    0x146c2(%rip),%rax        # 1f508 <g_101>
    ae46:	21 ca                	and    %ecx,%edx
    ae48:	89 10                	mov    %edx,(%rax)
    ae4a:	8b 10                	mov    (%rax),%edx
    ae4c:	8b 85 08 ed ff ff    	mov    -0x12f8(%rbp),%eax
    ae52:	09 d0                	or     %edx,%eax
    ae54:	89 85 08 ed ff ff    	mov    %eax,-0x12f8(%rbp)
    ae5a:	83 bd c8 e8 ff ff 00 	cmpl   $0x0,-0x1738(%rbp)
    ae61:	0f 85 93 00 00 00    	jne    aefa <func_2+0x20fd>
    ae67:	c7 05 0f 25 01 00 00 	movl   $0x0,0x1250f(%rip)        # 1d380 <g_712>
    ae6e:	00 00 00 
    ae71:	eb 76                	jmp    aee9 <func_2+0x20ec>
    ae73:	c7 85 d0 e8 ff ff 00 	movl   $0x0,-0x1730(%rbp)
    ae7a:	00 00 00 
    ae7d:	eb 52                	jmp    aed1 <func_2+0x20d4>
    ae7f:	c7 85 d4 e8 ff ff 00 	movl   $0x0,-0x172c(%rbp)
    ae86:	00 00 00 
    ae89:	eb 36                	jmp    aec1 <func_2+0x20c4>
    ae8b:	8b 85 d4 e8 ff ff    	mov    -0x172c(%rbp),%eax
    ae91:	48 63 c8             	movslq %eax,%rcx
    ae94:	8b 85 d0 e8 ff ff    	mov    -0x1730(%rbp),%eax
    ae9a:	48 63 d0             	movslq %eax,%rdx
    ae9d:	48 89 d0             	mov    %rdx,%rax
    aea0:	48 c1 e0 02          	shl    $0x2,%rax
    aea4:	48 01 d0             	add    %rdx,%rax
    aea7:	48 8d 5d d0          	lea    -0x30(%rbp),%rbx
    aeab:	48 01 d8             	add    %rbx,%rax
    aeae:	48 01 c8             	add    %rcx,%rax
    aeb1:	48 2d e0 07 00 00    	sub    $0x7e0,%rax
    aeb7:	c6 00 ff             	movb   $0xff,(%rax)
    aeba:	83 85 d4 e8 ff ff 01 	addl   $0x1,-0x172c(%rbp)
    aec1:	83 bd d4 e8 ff ff 04 	cmpl   $0x4,-0x172c(%rbp)
    aec8:	7e c1                	jle    ae8b <func_2+0x208e>
    aeca:	83 85 d0 e8 ff ff 01 	addl   $0x1,-0x1730(%rbp)
    aed1:	83 bd d0 e8 ff ff 05 	cmpl   $0x5,-0x1730(%rbp)
    aed8:	7e a5                	jle    ae7f <func_2+0x2082>
    aeda:	8b 05 a0 24 01 00    	mov    0x124a0(%rip),%eax        # 1d380 <g_712>
    aee0:	83 c0 01             	add    $0x1,%eax
    aee3:	89 05 97 24 01 00    	mov    %eax,0x12497(%rip)        # 1d380 <g_712>
    aee9:	8b 05 91 24 01 00    	mov    0x12491(%rip),%eax        # 1d380 <g_712>
    aeef:	83 f8 01             	cmp    $0x1,%eax
    aef2:	0f 8e 7b ff ff ff    	jle    ae73 <func_2+0x2076>
    aef8:	eb 01                	jmp    aefb <func_2+0x20fe>
    aefa:	90                   	nop
    aefb:	0f b6 05 86 23 01 00 	movzbl 0x12386(%rip),%eax        # 1d288 <g_405>
    af02:	83 c0 01             	add    $0x1,%eax
    af05:	88 05 7d 23 01 00    	mov    %al,0x1237d(%rip)        # 1d288 <g_405>
    af0b:	0f b6 05 76 23 01 00 	movzbl 0x12376(%rip),%eax        # 1d288 <g_405>
    af12:	3c 01                	cmp    $0x1,%al
    af14:	0f 8e 2a f6 ff ff    	jle    a544 <func_2+0x1747>
    af1a:	eb 14                	jmp    af30 <func_2+0x2133>
    af1c:	48 8b 05 0d 58 01 00 	mov    0x1580d(%rip),%rax        # 20730 <g_1281>
    af23:	48 8b 00             	mov    (%rax),%rax
    af26:	48 8b 00             	mov    (%rax),%rax
    af29:	8b 00                	mov    (%rax),%eax
    af2b:	e9 85 16 00 00       	jmpq   c5b5 <func_2+0x37b8>
    af30:	48 8b 05 d1 57 01 00 	mov    0x157d1(%rip),%rax        # 20708 <g_998>
    af37:	48 8b 10             	mov    (%rax),%rdx
    af3a:	48 8b 85 60 e9 ff ff 	mov    -0x16a0(%rbp),%rax
    af41:	48 8b 00             	mov    (%rax),%rax
    af44:	48 8b 00             	mov    (%rax),%rax
    af47:	48 39 c2             	cmp    %rax,%rdx
    af4a:	0f 95 c0             	setne  %al
    af4d:	44 0f b6 e8          	movzbl %al,%r13d
    af51:	48 8b 85 60 e9 ff ff 	mov    -0x16a0(%rbp),%rax
    af58:	48 8b 00             	mov    (%rax),%rax
    af5b:	48 8b 00             	mov    (%rax),%rax
    af5e:	48 8b 00             	mov    (%rax),%rax
    af61:	8b 18                	mov    (%rax),%ebx
    af63:	48 8b 05 f6 54 01 00 	mov    0x154f6(%rip),%rax        # 20460 <g_719>
    af6a:	48 8b 10             	mov    (%rax),%rdx
    af6d:	48 8b 05 94 57 01 00 	mov    0x15794(%rip),%rax        # 20708 <g_998>
    af74:	48 8b 00             	mov    (%rax),%rax
    af77:	48 8b 00             	mov    (%rax),%rax
    af7a:	48 39 c2             	cmp    %rax,%rdx
    af7d:	0f 95 c0             	setne  %al
    af80:	44 0f b6 f0          	movzbl %al,%r14d
    af84:	44 0f b7 a5 90 e8 ff 	movzwl -0x1770(%rbp),%r12d
    af8b:	ff 
    af8c:	be 42 06 00 00       	mov    $0x642,%esi
    af91:	bf 01 00 00 00       	mov    $0x1,%edi
    af96:	e8 84 cd ff ff       	callq  7d1f <safe_add_func_uint16_t_u_u>
    af9b:	0f b7 d0             	movzwl %ax,%edx
    af9e:	48 8b 85 60 e9 ff ff 	mov    -0x16a0(%rbp),%rax
    afa5:	48 8b 00             	mov    (%rax),%rax
    afa8:	48 8b 00             	mov    (%rax),%rax
    afab:	48 8b 00             	mov    (%rax),%rax
    afae:	8b 00                	mov    (%rax),%eax
    afb0:	39 c2                	cmp    %eax,%edx
    afb2:	0f 9f c0             	setg   %al
    afb5:	0f b6 c0             	movzbl %al,%eax
    afb8:	89 c6                	mov    %eax,%esi
    afba:	bf 01 00 00 00       	mov    $0x1,%edi
    afbf:	e8 99 cd ff ff       	callq  7d5d <safe_mul_func_uint16_t_u_u>
    afc4:	0f b7 d0             	movzwl %ax,%edx
    afc7:	48 83 bd f0 e9 ff ff 	cmpq   $0x0,-0x1610(%rbp)
    afce:	00 
    afcf:	0f 95 c0             	setne  %al
    afd2:	0f b6 c0             	movzbl %al,%eax
    afd5:	89 d6                	mov    %edx,%esi
    afd7:	89 c7                	mov    %eax,%edi
    afd9:	e8 d4 c4 ff ff       	callq  74b2 <safe_lshift_func_int16_t_s_s>
    afde:	66 83 f8 06          	cmp    $0x6,%ax
    afe2:	0f 9f c0             	setg   %al
    afe5:	0f b6 d0             	movzbl %al,%edx
    afe8:	0f b7 85 90 e8 ff ff 	movzwl -0x1770(%rbp),%eax
    afef:	09 d0                	or     %edx,%eax
    aff1:	be 9f 9e 5a 38       	mov    $0x385a9e9f,%esi
    aff6:	89 c7                	mov    %eax,%edi
    aff8:	e8 f3 ce ff ff       	callq  7ef0 <safe_sub_func_uint32_t_u_u>
    affd:	0f be c0             	movsbl %al,%eax
    b000:	44 89 e6             	mov    %r12d,%esi
    b003:	89 c7                	mov    %eax,%edi
    b005:	e8 82 c3 ff ff       	callq  738c <safe_rshift_func_int8_t_s_u>
    b00a:	0f be c0             	movsbl %al,%eax
    b00d:	44 89 f2             	mov    %r14d,%edx
    b010:	21 c2                	and    %eax,%edx
    b012:	48 8b 85 70 ea ff ff 	mov    -0x1590(%rbp),%rax
    b019:	0f b6 00             	movzbl (%rax),%eax
    b01c:	21 c2                	and    %eax,%edx
    b01e:	48 8b 85 70 ea ff ff 	mov    -0x1590(%rbp),%rax
    b025:	88 10                	mov    %dl,(%rax)
    b027:	48 8b 85 70 ea ff ff 	mov    -0x1590(%rbp),%rax
    b02e:	0f b6 00             	movzbl (%rax),%eax
    b031:	48 0f be c0          	movsbq %al,%rax
    b035:	34 fb                	xor    $0xfb,%al
    b037:	48 89 c2             	mov    %rax,%rdx
    b03a:	8b 85 08 ed ff ff    	mov    -0x12f8(%rbp),%eax
    b040:	48 98                	cltq   
    b042:	48 39 c2             	cmp    %rax,%rdx
    b045:	0f 92 c0             	setb   %al
    b048:	0f b6 d0             	movzbl %al,%edx
    b04b:	48 8b 85 58 e9 ff ff 	mov    -0x16a8(%rbp),%rax
    b052:	48 8b 00             	mov    (%rax),%rax
    b055:	48 8b 00             	mov    (%rax),%rax
    b058:	8b 00                	mov    (%rax),%eax
    b05a:	09 d0                	or     %edx,%eax
    b05c:	48 98                	cltq   
    b05e:	be 02 00 00 00       	mov    $0x2,%esi
    b063:	48 89 c7             	mov    %rax,%rdi
    b066:	e8 e3 cf ff ff       	callq  804e <safe_add_func_uint64_t_u_u>
    b06b:	48 8b 95 80 e9 ff ff 	mov    -0x1680(%rbp),%rdx
    b072:	48 8b 12             	mov    (%rdx),%rdx
    b075:	8b 12                	mov    (%rdx),%edx
    b077:	48 63 d2             	movslq %edx,%rdx
    b07a:	48 39 d0             	cmp    %rdx,%rax
    b07d:	0f 96 c0             	setbe  %al
    b080:	0f b6 c0             	movzbl %al,%eax
    b083:	89 de                	mov    %ebx,%esi
    b085:	89 c7                	mov    %eax,%edi
    b087:	e8 26 c4 ff ff       	callq  74b2 <safe_lshift_func_int16_t_s_s>
    b08c:	98                   	cwtl   
    b08d:	44 09 e8             	or     %r13d,%eax
    b090:	48 98                	cltq   
    b092:	48 39 85 70 e8 ff ff 	cmp    %rax,-0x1790(%rbp)
    b099:	0f 93 c0             	setae  %al
    b09c:	0f b6 c8             	movzbl %al,%ecx
    b09f:	48 8b 05 62 44 01 00 	mov    0x14462(%rip),%rax        # 1f508 <g_101>
    b0a6:	8b 10                	mov    (%rax),%edx
    b0a8:	48 8b 05 59 44 01 00 	mov    0x14459(%rip),%rax        # 1f508 <g_101>
    b0af:	31 ca                	xor    %ecx,%edx
    b0b1:	89 10                	mov    %edx,(%rax)
    b0b3:	48 8b 85 58 e9 ff ff 	mov    -0x16a8(%rbp),%rax
    b0ba:	48 8b 00             	mov    (%rax),%rax
    b0bd:	48 8b 00             	mov    (%rax),%rax
    b0c0:	48 8b 95 78 e8 ff ff 	mov    -0x1788(%rbp),%rdx
    b0c7:	89 10                	mov    %edx,(%rax)
    b0c9:	8b 00                	mov    (%rax),%eax
    b0cb:	85 c0                	test   %eax,%eax
    b0cd:	0f 84 60 01 00 00    	je     b233 <func_2+0x2436>
    b0d3:	48 8b 85 70 e8 ff ff 	mov    -0x1790(%rbp),%rax
    b0da:	41 89 c6             	mov    %eax,%r14d
    b0dd:	48 8b 85 60 e9 ff ff 	mov    -0x16a0(%rbp),%rax
    b0e4:	48 8b 00             	mov    (%rax),%rax
    b0e7:	48 8b 00             	mov    (%rax),%rax
    b0ea:	48 8b 00             	mov    (%rax),%rax
    b0ed:	44 8b 20             	mov    (%rax),%r12d
    b0f0:	48 8d 05 f1 4b 01 00 	lea    0x14bf1(%rip),%rax        # 1fce8 <g_367>
    b0f7:	48 8b 00             	mov    (%rax),%rax
    b0fa:	0f b6 00             	movzbl (%rax),%eax
    b0fd:	44 0f b6 e8          	movzbl %al,%r13d
    b101:	48 8b 85 70 ee ff ff 	mov    -0x1190(%rbp),%rax
    b108:	41 89 c7             	mov    %eax,%r15d
    b10b:	0f b7 95 90 e8 ff ff 	movzwl -0x1770(%rbp),%edx
    b112:	48 8b 05 8f 4b 01 00 	mov    0x14b8f(%rip),%rax        # 1fca8 <g_227>
    b119:	48 8b 00             	mov    (%rax),%rax
    b11c:	48 8b 00             	mov    (%rax),%rax
    b11f:	48 89 d6             	mov    %rdx,%rsi
    b122:	48 89 c7             	mov    %rax,%rdi
    b125:	e8 a5 cf ff ff       	callq  80cf <safe_div_func_uint64_t_u_u>
    b12a:	48 89 c3             	mov    %rax,%rbx
    b12d:	48 8b 85 70 e8 ff ff 	mov    -0x1790(%rbp),%rax
    b134:	98                   	cwtl   
    b135:	be 0b 00 00 00       	mov    $0xb,%esi
    b13a:	89 c7                	mov    %eax,%edi
    b13c:	e8 c0 c3 ff ff       	callq  7501 <safe_lshift_func_int16_t_s_u>
    b141:	48 0f bf c0          	movswq %ax,%rax
    b145:	48 39 c3             	cmp    %rax,%rbx
    b148:	77 25                	ja     b16f <func_2+0x2372>
    b14a:	48 8b 95 80 ed ff ff 	mov    -0x1280(%rbp),%rdx
    b151:	48 8b 05 28 60 01 00 	mov    0x16028(%rip),%rax        # 21180 <g_2458>
    b158:	48 39 c2             	cmp    %rax,%rdx
    b15b:	0f 95 c0             	setne  %al
    b15e:	0f b6 d0             	movzbl %al,%edx
    b161:	0f b7 85 88 f3 ff ff 	movzwl -0xc78(%rbp),%eax
    b168:	98                   	cwtl   
    b169:	21 d0                	and    %edx,%eax
    b16b:	85 c0                	test   %eax,%eax
    b16d:	74 07                	je     b176 <func_2+0x2379>
    b16f:	b8 01 00 00 00       	mov    $0x1,%eax
    b174:	eb 05                	jmp    b17b <func_2+0x237e>
    b176:	b8 00 00 00 00       	mov    $0x0,%eax
    b17b:	09 85 b8 e8 ff ff    	or     %eax,-0x1748(%rbp)
    b181:	48 8b 85 58 e9 ff ff 	mov    -0x16a8(%rbp),%rax
    b188:	48 8b 00             	mov    (%rax),%rax
    b18b:	48 8b 00             	mov    (%rax),%rax
    b18e:	8b 00                	mov    (%rax),%eax
    b190:	39 85 b8 e8 ff ff    	cmp    %eax,-0x1748(%rbp)
    b196:	7f 07                	jg     b19f <func_2+0x23a2>
    b198:	b8 01 00 00 00       	mov    $0x1,%eax
    b19d:	eb 05                	jmp    b1a4 <func_2+0x23a7>
    b19f:	b8 00 00 00 00       	mov    $0x0,%eax
    b1a4:	0f be d0             	movsbl %al,%edx
    b1a7:	48 8b 05 c2 57 01 00 	mov    0x157c2(%rip),%rax        # 20970 <g_2424>
    b1ae:	0f b6 00             	movzbl (%rax),%eax
    b1b1:	0f be c0             	movsbl %al,%eax
    b1b4:	89 d6                	mov    %edx,%esi
    b1b6:	89 c7                	mov    %eax,%edi
    b1b8:	e8 cd c0 ff ff       	callq  728a <safe_div_func_int8_t_s_s>
    b1bd:	0f be c0             	movsbl %al,%eax
    b1c0:	44 89 fe             	mov    %r15d,%esi
    b1c3:	89 c7                	mov    %eax,%edi
    b1c5:	e8 c2 c1 ff ff       	callq  738c <safe_rshift_func_int8_t_s_u>
    b1ca:	0f be c0             	movsbl %al,%eax
    b1cd:	be 31 2a 00 00       	mov    $0x2a31,%esi
    b1d2:	89 c7                	mov    %eax,%edi
    b1d4:	e8 1a c2 ff ff       	callq  73f3 <safe_sub_func_int16_t_s_s>
    b1d9:	98                   	cwtl   
    b1da:	44 89 ea             	mov    %r13d,%edx
    b1dd:	31 c2                	xor    %eax,%edx
    b1df:	48 8b 85 58 e9 ff ff 	mov    -0x16a8(%rbp),%rax
    b1e6:	48 8b 00             	mov    (%rax),%rax
    b1e9:	48 8b 00             	mov    (%rax),%rax
    b1ec:	44 31 e2             	xor    %r12d,%edx
    b1ef:	89 10                	mov    %edx,(%rax)
    b1f1:	8b 00                	mov    (%rax),%eax
    b1f3:	98                   	cwtl   
    b1f4:	44 89 f6             	mov    %r14d,%esi
    b1f7:	89 c7                	mov    %eax,%edi
    b1f9:	e8 85 c3 ff ff       	callq  7583 <safe_rshift_func_int16_t_s_u>
    b1fe:	48 83 bd 78 ea ff ff 	cmpq   $0xfffffffffffffffc,-0x1588(%rbp)
    b205:	fc 
    b206:	0f 95 c0             	setne  %al
    b209:	0f b6 c8             	movzbl %al,%ecx
    b20c:	48 8b 85 90 ea ff ff 	mov    -0x1570(%rbp),%rax
    b213:	48 8b 10             	mov    (%rax),%rdx
    b216:	48 63 c1             	movslq %ecx,%rax
    b219:	48 31 c2             	xor    %rax,%rdx
    b21c:	48 8b 85 90 ea ff ff 	mov    -0x1570(%rbp),%rax
    b223:	48 89 10             	mov    %rdx,(%rax)
    b226:	48 8b 85 90 ea ff ff 	mov    -0x1570(%rbp),%rax
    b22d:	48 8b 00             	mov    (%rax),%rax
    b230:	48 85 c0             	test   %rax,%rax
    b233:	83 bd b4 e8 ff ff 00 	cmpl   $0x0,-0x174c(%rbp)
    b23a:	0f 84 ba 02 00 00    	je     b4fa <func_2+0x26fd>
    b240:	48 c7 85 30 eb ff ff 	movq   $0x2,-0x14d0(%rbp)
    b247:	02 00 00 00 
    b24b:	48 8d 85 f0 f0 ff ff 	lea    -0xf10(%rbp),%rax
    b252:	48 83 c0 3c          	add    $0x3c,%rax
    b256:	48 89 85 38 eb ff ff 	mov    %rax,-0x14c8(%rbp)
    b25d:	48 8d 05 1c 21 01 00 	lea    0x1211c(%rip),%rax        # 1d380 <g_712>
    b264:	48 89 85 f0 f7 ff ff 	mov    %rax,-0x810(%rbp)
    b26b:	48 8d 05 0e 21 01 00 	lea    0x1210e(%rip),%rax        # 1d380 <g_712>
    b272:	48 89 85 f8 f7 ff ff 	mov    %rax,-0x808(%rbp)
    b279:	48 8d 05 00 21 01 00 	lea    0x12100(%rip),%rax        # 1d380 <g_712>
    b280:	48 89 85 00 f8 ff ff 	mov    %rax,-0x800(%rbp)
    b287:	48 8d 05 f2 20 01 00 	lea    0x120f2(%rip),%rax        # 1d380 <g_712>
    b28e:	48 89 85 08 f8 ff ff 	mov    %rax,-0x7f8(%rbp)
    b295:	48 8d 05 e4 20 01 00 	lea    0x120e4(%rip),%rax        # 1d380 <g_712>
    b29c:	48 89 85 10 f8 ff ff 	mov    %rax,-0x7f0(%rbp)
    b2a3:	48 8d 05 d6 20 01 00 	lea    0x120d6(%rip),%rax        # 1d380 <g_712>
    b2aa:	48 89 85 18 f8 ff ff 	mov    %rax,-0x7e8(%rbp)
    b2b1:	48 8d 05 c8 20 01 00 	lea    0x120c8(%rip),%rax        # 1d380 <g_712>
    b2b8:	48 89 85 20 f8 ff ff 	mov    %rax,-0x7e0(%rbp)
    b2bf:	48 8d 05 ba 20 01 00 	lea    0x120ba(%rip),%rax        # 1d380 <g_712>
    b2c6:	48 89 85 28 f8 ff ff 	mov    %rax,-0x7d8(%rbp)
    b2cd:	48 8d 05 ac 20 01 00 	lea    0x120ac(%rip),%rax        # 1d380 <g_712>
    b2d4:	48 89 85 30 f8 ff ff 	mov    %rax,-0x7d0(%rbp)
    b2db:	48 8d 85 f0 f7 ff ff 	lea    -0x810(%rbp),%rax
    b2e2:	48 83 c0 20          	add    $0x20,%rax
    b2e6:	48 89 85 40 eb ff ff 	mov    %rax,-0x14c0(%rbp)
    b2ed:	c7 85 24 e9 ff ff ff 	movl   $0xffffffff,-0x16dc(%rbp)
    b2f4:	ff ff ff 
    b2f7:	c7 85 28 e9 ff ff f3 	movl   $0x38479cf3,-0x16d8(%rbp)
    b2fe:	9c 47 38 
    b301:	48 b8 83 c0 30 ba 60 	movabs $0x89b1fe60ba30c083,%rax
    b308:	fe b1 89 
    b30b:	48 89 85 48 eb ff ff 	mov    %rax,-0x14b8(%rbp)
    b312:	c7 85 2c e9 ff ff 09 	movl   $0x9,-0x16d4(%rbp)
    b319:	00 00 00 
    b31c:	c7 85 30 e9 ff ff 3a 	movl   $0x6879413a,-0x16d0(%rbp)
    b323:	41 79 68 
    b326:	c7 85 34 e9 ff ff 01 	movl   $0x1,-0x16cc(%rbp)
    b32d:	00 00 00 
    b330:	c7 85 38 e9 ff ff 01 	movl   $0x1,-0x16c8(%rbp)
    b337:	00 00 00 
    b33a:	c7 85 3c e9 ff ff cf 	movl   $0x7f92becf,-0x16c4(%rbp)
    b341:	be 92 7f 
    b344:	c7 85 40 e9 ff ff 91 	movl   $0x522191,-0x16c0(%rbp)
    b34b:	21 52 00 
    b34e:	c7 85 44 e9 ff ff 68 	movl   $0xcfb0e268,-0x16bc(%rbp)
    b355:	e2 b0 cf 
    b358:	c7 85 d8 e8 ff ff 00 	movl   $0x0,-0x1728(%rbp)
    b35f:	00 00 00 
    b362:	eb 21                	jmp    b385 <func_2+0x2588>
    b364:	8b 85 d8 e8 ff ff    	mov    -0x1728(%rbp),%eax
    b36a:	48 98                	cltq   
    b36c:	48 bb a0 12 04 e9 34 	movabs $0x233cb234e90412a0,%rbx
    b373:	b2 3c 23 
    b376:	48 89 9c c5 30 f0 ff 	mov    %rbx,-0xfd0(%rbp,%rax,8)
    b37d:	ff 
    b37e:	83 85 d8 e8 ff ff 01 	addl   $0x1,-0x1728(%rbp)
    b385:	83 bd d8 e8 ff ff 03 	cmpl   $0x3,-0x1728(%rbp)
    b38c:	7e d6                	jle    b364 <func_2+0x2567>
    b38e:	90                   	nop
    b38f:	48 8b 85 70 e8 ff ff 	mov    -0x1790(%rbp),%rax
    b396:	41 89 c6             	mov    %eax,%r14d
    b399:	8b 9d f0 eb ff ff    	mov    -0x1410(%rbp),%ebx
    b39f:	48 8b 85 60 e9 ff ff 	mov    -0x16a0(%rbp),%rax
    b3a6:	48 8b 00             	mov    (%rax),%rax
    b3a9:	48 8b 00             	mov    (%rax),%rax
    b3ac:	48 8b 00             	mov    (%rax),%rax
    b3af:	8b 00                	mov    (%rax),%eax
    b3b1:	44 0f be e0          	movsbl %al,%r12d
    b3b5:	48 8b 85 78 e8 ff ff 	mov    -0x1788(%rbp),%rax
    b3bc:	44 0f b6 e8          	movzbl %al,%r13d
    b3c0:	8b 95 64 ec ff ff    	mov    -0x139c(%rbp),%edx
    b3c6:	48 8b 8d 10 f8 ff ff 	mov    -0x7f0(%rbp),%rcx
    b3cd:	48 8b 85 40 eb ff ff 	mov    -0x14c0(%rbp),%rax
    b3d4:	48 89 08             	mov    %rcx,(%rax)
    b3d7:	48 8b 85 40 eb ff ff 	mov    -0x14c0(%rbp),%rax
    b3de:	48 8b 00             	mov    (%rax),%rax
    b3e1:	48 39 85 f8 e9 ff ff 	cmp    %rax,-0x1608(%rbp)
    b3e8:	0f 95 c0             	setne  %al
    b3eb:	0f b6 c0             	movzbl %al,%eax
    b3ee:	89 d6                	mov    %edx,%esi
    b3f0:	89 c7                	mov    %eax,%edi
    b3f2:	e8 95 bf ff ff       	callq  738c <safe_rshift_func_int8_t_s_u>
    b3f7:	66 98                	cbtw   
    b3f9:	0f b7 c0             	movzwl %ax,%eax
    b3fc:	be 03 00 00 00       	mov    $0x3,%esi
    b401:	89 c7                	mov    %eax,%edi
    b403:	e8 92 ca ff ff       	callq  7e9a <safe_rshift_func_uint16_t_u_u>
    b408:	0f b7 85 90 e8 ff ff 	movzwl -0x1770(%rbp),%eax
    b40f:	0f b6 c0             	movzbl %al,%eax
    b412:	44 89 ee             	mov    %r13d,%esi
    b415:	89 c7                	mov    %eax,%edi
    b417:	e8 7c c7 ff ff       	callq  7b98 <safe_sub_func_uint8_t_u_u>
    b41c:	48 8b 85 78 ea ff ff 	mov    -0x1588(%rbp),%rax
    b423:	0f b6 d0             	movzbl %al,%edx
    b426:	48 8b 85 38 eb ff ff 	mov    -0x14c8(%rbp),%rax
    b42d:	0f b6 00             	movzbl (%rax),%eax
    b430:	83 f0 84             	xor    $0xffffff84,%eax
    b433:	89 c1                	mov    %eax,%ecx
    b435:	48 8b 85 38 eb ff ff 	mov    -0x14c8(%rbp),%rax
    b43c:	88 08                	mov    %cl,(%rax)
    b43e:	48 8b 85 38 eb ff ff 	mov    -0x14c8(%rbp),%rax
    b445:	0f b6 00             	movzbl (%rax),%eax
    b448:	0f b6 c0             	movzbl %al,%eax
    b44b:	89 d6                	mov    %edx,%esi
    b44d:	89 c7                	mov    %eax,%edi
    b44f:	e8 a7 c7 ff ff       	callq  7bfb <safe_div_func_uint8_t_u_u>
    b454:	3c 05                	cmp    $0x5,%al
    b456:	48 8b 85 30 eb ff ff 	mov    -0x14d0(%rbp),%rax
    b45d:	89 c2                	mov    %eax,%edx
    b45f:	48 8b 85 78 e8 ff ff 	mov    -0x1788(%rbp),%rax
    b466:	21 d0                	and    %edx,%eax
    b468:	0f be c0             	movsbl %al,%eax
    b46b:	44 89 e6             	mov    %r12d,%esi
    b46e:	89 c7                	mov    %eax,%edi
    b470:	e8 7f bd ff ff       	callq  71f4 <safe_add_func_int8_t_s_s>
    b475:	48 0f be c0          	movsbq %al,%rax
    b479:	48 39 85 78 e8 ff ff 	cmp    %rax,-0x1788(%rbp)
    b480:	0f 95 c0             	setne  %al
    b483:	0f b6 c0             	movzbl %al,%eax
    b486:	89 85 24 e9 ff ff    	mov    %eax,-0x16dc(%rbp)
    b48c:	48 8b 85 48 f0 ff ff 	mov    -0xfb8(%rbp),%rax
    b493:	48 39 85 78 e8 ff ff 	cmp    %rax,-0x1788(%rbp)
    b49a:	0f 97 c0             	seta   %al
    b49d:	0f b6 c0             	movzbl %al,%eax
    b4a0:	89 de                	mov    %ebx,%esi
    b4a2:	48 89 c7             	mov    %rax,%rdi
    b4a5:	e8 27 6f 00 00       	callq  123d1 <func_76>
    b4aa:	8b 85 e0 eb ff ff    	mov    -0x1420(%rbp),%eax
    b4b0:	0f be c0             	movsbl %al,%eax
    b4b3:	44 89 f6             	mov    %r14d,%esi
    b4b6:	89 c7                	mov    %eax,%edi
    b4b8:	e8 51 be ff ff       	callq  730e <safe_lshift_func_int8_t_s_u>
    b4bd:	89 c2                	mov    %eax,%edx
    b4bf:	48 8b 85 58 e9 ff ff 	mov    -0x16a8(%rbp),%rax
    b4c6:	48 8b 00             	mov    (%rax),%rax
    b4c9:	48 8b 00             	mov    (%rax),%rax
    b4cc:	0f be d2             	movsbl %dl,%edx
    b4cf:	89 10                	mov    %edx,(%rax)
    b4d1:	48 8b 15 50 52 01 00 	mov    0x15250(%rip),%rdx        # 20728 <g_1282>
    b4d8:	48 8b 12             	mov    (%rdx),%rdx
    b4db:	8b 00                	mov    (%rax),%eax
    b4dd:	89 02                	mov    %eax,(%rdx)
    b4df:	83 ad a8 e8 ff ff 01 	subl   $0x1,-0x1758(%rbp)
    b4e6:	0f b6 85 f4 eb ff ff 	movzbl -0x140c(%rbp),%eax
    b4ed:	84 c0                	test   %al,%al
    b4ef:	0f 84 ed 0f 00 00    	je     c4e2 <func_2+0x36e5>
    b4f5:	e9 95 fe ff ff       	jmpq   b38f <func_2+0x2592>
    b4fa:	c7 85 e0 ed ff ff f7 	movl   $0xfffffff7,-0x1220(%rbp)
    b501:	ff ff ff 
    b504:	c7 85 e4 ed ff ff ff 	movl   $0xffffffff,-0x121c(%rbp)
    b50b:	ff ff ff 
    b50e:	c7 85 e8 ed ff ff ff 	movl   $0xffffffff,-0x1218(%rbp)
    b515:	ff ff ff 
    b518:	c7 85 ec ed ff ff f7 	movl   $0xfffffff7,-0x1214(%rbp)
    b51f:	ff ff ff 
    b522:	c7 85 f0 ed ff ff ff 	movl   $0xffffffff,-0x1210(%rbp)
    b529:	ff ff ff 
    b52c:	c7 85 f4 ed ff ff ff 	movl   $0xffffffff,-0x120c(%rbp)
    b533:	ff ff ff 
    b536:	c7 85 f8 ed ff ff f7 	movl   $0xfffffff7,-0x1208(%rbp)
    b53d:	ff ff ff 
    b540:	c7 85 fc ed ff ff ff 	movl   $0xffffffff,-0x1204(%rbp)
    b547:	ff ff ff 
    b54a:	c7 85 00 ee ff ff ff 	movl   $0xffffffff,-0x1200(%rbp)
    b551:	ff ff ff 
    b554:	c7 85 08 e9 ff ff bd 	movl   $0xcfae09bd,-0x16f8(%rbp)
    b55b:	09 ae cf 
    b55e:	48 8d 05 eb 1b 01 00 	lea    0x11beb(%rip),%rax        # 1d150 <g_214+0x50>
    b565:	48 89 85 d8 ea ff ff 	mov    %rax,-0x1528(%rbp)
    b56c:	48 8d 05 05 5c 01 00 	lea    0x15c05(%rip),%rax        # 21178 <g_2354>
    b573:	48 89 85 e0 ea ff ff 	mov    %rax,-0x1520(%rbp)
    b57a:	48 8d 05 87 3f 01 00 	lea    0x13f87(%rip),%rax        # 1f508 <g_101>
    b581:	48 89 85 c8 e9 ff ff 	mov    %rax,-0x1638(%rbp)
    b588:	48 8d 85 c8 e9 ff ff 	lea    -0x1638(%rbp),%rax
    b58f:	48 89 85 e8 ea ff ff 	mov    %rax,-0x1518(%rbp)
    b596:	48 8d 05 73 3f 01 00 	lea    0x13f73(%rip),%rax        # 1f510 <g_140>
    b59d:	48 89 85 d0 e9 ff ff 	mov    %rax,-0x1630(%rbp)
    b5a4:	c7 85 30 f0 ff ff f7 	movl   $0xfffffff7,-0xfd0(%rbp)
    b5ab:	ff ff ff 
    b5ae:	c7 85 34 f0 ff ff a7 	movl   $0x8df115a7,-0xfcc(%rbp)
    b5b5:	15 f1 8d 
    b5b8:	c7 85 38 f0 ff ff 09 	movl   $0xedee2509,-0xfc8(%rbp)
    b5bf:	25 ee ed 
    b5c2:	c7 85 3c f0 ff ff 00 	movl   $0x0,-0xfc4(%rbp)
    b5c9:	00 00 00 
    b5cc:	c7 85 40 f0 ff ff 09 	movl   $0xedee2509,-0xfc0(%rbp)
    b5d3:	25 ee ed 
    b5d6:	c7 85 44 f0 ff ff fb 	movl   $0xfffffffb,-0xfbc(%rbp)
    b5dd:	ff ff ff 
    b5e0:	c7 85 48 f0 ff ff fb 	movl   $0xfffffffb,-0xfb8(%rbp)
    b5e7:	ff ff ff 
    b5ea:	c7 85 4c f0 ff ff 01 	movl   $0x1,-0xfb4(%rbp)
    b5f1:	00 00 00 
    b5f4:	c7 85 50 f0 ff ff 00 	movl   $0x0,-0xfb0(%rbp)
    b5fb:	00 00 00 
    b5fe:	c7 85 54 f0 ff ff b7 	movl   $0xc6fe63b7,-0xfac(%rbp)
    b605:	63 fe c6 
    b608:	c7 85 58 f0 ff ff 01 	movl   $0x1,-0xfa8(%rbp)
    b60f:	00 00 00 
    b612:	c7 85 5c f0 ff ff 47 	movl   $0x21b65c47,-0xfa4(%rbp)
    b619:	5c b6 21 
    b61c:	c7 85 60 f0 ff ff 09 	movl   $0xedee2509,-0xfa0(%rbp)
    b623:	25 ee ed 
    b626:	c7 85 64 f0 ff ff 09 	movl   $0xedee2509,-0xf9c(%rbp)
    b62d:	25 ee ed 
    b630:	c7 85 68 f0 ff ff 47 	movl   $0x21b65c47,-0xf98(%rbp)
    b637:	5c b6 21 
    b63a:	c7 85 6c f0 ff ff b7 	movl   $0xc6fe63b7,-0xf94(%rbp)
    b641:	63 fe c6 
    b644:	c7 85 70 f0 ff ff 01 	movl   $0x1,-0xf90(%rbp)
    b64b:	00 00 00 
    b64e:	c7 85 74 f0 ff ff 05 	movl   $0x79364305,-0xf8c(%rbp)
    b655:	43 36 79 
    b658:	c7 85 78 f0 ff ff b7 	movl   $0xc6fe63b7,-0xf88(%rbp)
    b65f:	63 fe c6 
    b662:	c7 85 7c f0 ff ff de 	movl   $0xa07420de,-0xf84(%rbp)
    b669:	20 74 a0 
    b66c:	c7 85 80 f0 ff ff a7 	movl   $0x8df115a7,-0xf80(%rbp)
    b673:	15 f1 8d 
    b676:	c7 85 84 f0 ff ff 47 	movl   $0x21b65c47,-0xf7c(%rbp)
    b67d:	5c b6 21 
    b680:	c7 85 88 f0 ff ff f7 	movl   $0xfffffff7,-0xf78(%rbp)
    b687:	ff ff ff 
    b68a:	c7 85 8c f0 ff ff 47 	movl   $0x21b65c47,-0xf74(%rbp)
    b691:	5c b6 21 
    b694:	c7 85 90 f0 ff ff a7 	movl   $0x8df115a7,-0xf70(%rbp)
    b69b:	15 f1 8d 
    b69e:	c7 85 94 f0 ff ff 05 	movl   $0x79364305,-0xf6c(%rbp)
    b6a5:	43 36 79 
    b6a8:	c7 85 98 f0 ff ff fb 	movl   $0xfffffffb,-0xf68(%rbp)
    b6af:	ff ff ff 
    b6b2:	c7 85 9c f0 ff ff 01 	movl   $0x1,-0xf64(%rbp)
    b6b9:	00 00 00 
    b6bc:	c7 85 a0 f0 ff ff de 	movl   $0xa07420de,-0xf60(%rbp)
    b6c3:	20 74 a0 
    b6c6:	c7 85 a4 f0 ff ff fb 	movl   $0xfffffffb,-0xf5c(%rbp)
    b6cd:	ff ff ff 
    b6d0:	c7 85 a8 f0 ff ff a7 	movl   $0x8df115a7,-0xf58(%rbp)
    b6d7:	15 f1 8d 
    b6da:	c7 85 ac f0 ff ff 0d 	movl   $0xb4053c0d,-0xf54(%rbp)
    b6e1:	3c 05 b4 
    b6e4:	c7 85 b0 f0 ff ff 0d 	movl   $0xb4053c0d,-0xf50(%rbp)
    b6eb:	3c 05 b4 
    b6ee:	c7 85 b4 f0 ff ff a7 	movl   $0x8df115a7,-0xf4c(%rbp)
    b6f5:	15 f1 8d 
    b6f8:	c7 85 b8 f0 ff ff 09 	movl   $0xedee2509,-0xf48(%rbp)
    b6ff:	25 ee ed 
    b702:	c7 85 bc f0 ff ff b7 	movl   $0xc6fe63b7,-0xf44(%rbp)
    b709:	63 fe c6 
    b70c:	c7 85 c0 f0 ff ff 00 	movl   $0x0,-0xf40(%rbp)
    b713:	00 00 00 
    b716:	c7 85 c4 f0 ff ff 01 	movl   $0x1,-0xf3c(%rbp)
    b71d:	00 00 00 
    b720:	c7 85 c8 f0 ff ff fb 	movl   $0xfffffffb,-0xf38(%rbp)
    b727:	ff ff ff 
    b72a:	c7 85 cc f0 ff ff fb 	movl   $0xfffffffb,-0xf34(%rbp)
    b731:	ff ff ff 
    b734:	c7 85 d0 f0 ff ff 01 	movl   $0x1,-0xf30(%rbp)
    b73b:	00 00 00 
    b73e:	c7 85 d4 f0 ff ff a7 	movl   $0x8df115a7,-0xf2c(%rbp)
    b745:	15 f1 8d 
    b748:	c7 85 d8 f0 ff ff 01 	movl   $0x1,-0xf28(%rbp)
    b74f:	00 00 00 
    b752:	c7 85 dc f0 ff ff 09 	movl   $0xedee2509,-0xf24(%rbp)
    b759:	25 ee ed 
    b75c:	c7 85 e0 f0 ff ff a7 	movl   $0x8df115a7,-0xf20(%rbp)
    b763:	15 f1 8d 
    b766:	48 8d 05 c3 45 01 00 	lea    0x145c3(%rip),%rax        # 1fd30 <g_473>
    b76d:	48 89 85 f0 ea ff ff 	mov    %rax,-0x1510(%rbp)
    b774:	c7 85 dc e8 ff ff 00 	movl   $0x0,-0x1724(%rbp)
    b77b:	00 00 00 
    b77e:	eb 1b                	jmp    b79b <func_2+0x299e>
    b780:	8b 85 dc e8 ff ff    	mov    -0x1724(%rbp),%eax
    b786:	48 98                	cltq   
    b788:	48 c7 84 c5 30 ed ff 	movq   $0x0,-0x12d0(%rbp,%rax,8)
    b78f:	ff 00 00 00 00 
    b794:	83 85 dc e8 ff ff 01 	addl   $0x1,-0x1724(%rbp)
    b79b:	83 bd dc e8 ff ff 02 	cmpl   $0x2,-0x1724(%rbp)
    b7a2:	7e dc                	jle    b780 <func_2+0x2983>
    b7a4:	48 8b 05 55 45 01 00 	mov    0x14555(%rip),%rax        # 1fd00 <g_434>
    b7ab:	8b 00                	mov    (%rax),%eax
    b7ad:	85 c0                	test   %eax,%eax
    b7af:	0f 84 a5 04 00 00    	je     bc5a <func_2+0x2e5d>
    b7b5:	c7 85 e0 e8 ff ff ac 	movl   $0x5b540cac,-0x1720(%rbp)
    b7bc:	0c 54 5b 
    b7bf:	c7 85 10 ec ff ff cb 	movl   $0xc54e8bcb,-0x13f0(%rbp)
    b7c6:	8b 4e c5 
    b7c9:	48 8d 05 60 45 01 00 	lea    0x14560(%rip),%rax        # 1fd30 <g_473>
    b7d0:	48 89 85 f8 ea ff ff 	mov    %rax,-0x1508(%rbp)
    b7d7:	be 0c 00 00 00       	mov    $0xc,%esi
    b7dc:	bf ff ff 00 00       	mov    $0xffff,%edi
    b7e1:	e8 f8 c5 ff ff       	callq  7dde <safe_lshift_func_uint16_t_u_s>
    b7e6:	48 8b 15 1b 3d 01 00 	mov    0x13d1b(%rip),%rdx        # 1f508 <g_101>
    b7ed:	8b 0a                	mov    (%rdx),%ecx
    b7ef:	0f b7 d0             	movzwl %ax,%edx
    b7f2:	48 8b 05 0f 3d 01 00 	mov    0x13d0f(%rip),%rax        # 1f508 <g_101>
    b7f9:	21 ca                	and    %ecx,%edx
    b7fb:	89 10                	mov    %edx,(%rax)
    b7fd:	66 c7 05 b2 1b 01 00 	movw   $0x0,0x11bb2(%rip)        # 1d3b8 <g_1038>
    b804:	00 00 
    b806:	e9 10 01 00 00       	jmpq   b91b <func_2+0x2b1e>
    b80b:	48 8b 85 80 e9 ff ff 	mov    -0x1680(%rbp),%rax
    b812:	48 8b 10             	mov    (%rax),%rdx
    b815:	48 8b 05 ec 3c 01 00 	mov    0x13cec(%rip),%rax        # 1f508 <g_101>
    b81c:	8b 12                	mov    (%rdx),%edx
    b81e:	89 10                	mov    %edx,(%rax)
    b820:	8b 85 e0 ed ff ff    	mov    -0x1220(%rbp),%eax
    b826:	0f bf d8             	movswl %ax,%ebx
    b829:	8b 85 74 ec ff ff    	mov    -0x138c(%rbp),%eax
    b82f:	98                   	cwtl   
    b830:	89 c6                	mov    %eax,%esi
    b832:	bf cd 5a 00 00       	mov    $0x5acd,%edi
    b837:	e8 b7 bb ff ff       	callq  73f3 <safe_sub_func_int16_t_s_s>
    b83c:	f7 d0                	not    %eax
    b83e:	66 c1 e8 0f          	shr    $0xf,%ax
    b842:	0f b6 c0             	movzbl %al,%eax
    b845:	be 04 00 00 00       	mov    $0x4,%esi
    b84a:	89 c7                	mov    %eax,%edi
    b84c:	e8 bd ba ff ff       	callq  730e <safe_lshift_func_int8_t_s_u>
    b851:	0f be d0             	movsbl %al,%edx
    b854:	8b 8d e0 ed ff ff    	mov    -0x1220(%rbp),%ecx
    b85a:	48 8b 85 60 ea ff ff 	mov    -0x15a0(%rbp),%rax
    b861:	48 89 05 28 59 01 00 	mov    %rax,0x15928(%rip)        # 21190 <g_2519>
    b868:	48 8b 35 21 59 01 00 	mov    0x15921(%rip),%rsi        # 21190 <g_2519>
    b86f:	48 8b 05 32 54 01 00 	mov    0x15432(%rip),%rax        # 20ca8 <g_2520>
    b876:	48 89 05 2b 54 01 00 	mov    %rax,0x1542b(%rip)        # 20ca8 <g_2520>
    b87d:	48 8b 05 24 54 01 00 	mov    0x15424(%rip),%rax        # 20ca8 <g_2520>
    b884:	48 39 c6             	cmp    %rax,%rsi
    b887:	0f 95 c0             	setne  %al
    b88a:	0f b6 c0             	movzbl %al,%eax
    b88d:	39 c1                	cmp    %eax,%ecx
    b88f:	74 07                	je     b898 <func_2+0x2a9b>
    b891:	b9 01 00 00 00       	mov    $0x1,%ecx
    b896:	eb 05                	jmp    b89d <func_2+0x2aa0>
    b898:	b9 00 00 00 00       	mov    $0x0,%ecx
    b89d:	48 8b 85 58 e9 ff ff 	mov    -0x16a8(%rbp),%rax
    b8a4:	48 8b 00             	mov    (%rax),%rax
    b8a7:	48 8b 00             	mov    (%rax),%rax
    b8aa:	89 08                	mov    %ecx,(%rax)
    b8ac:	8b 00                	mov    (%rax),%eax
    b8ae:	0f b6 c0             	movzbl %al,%eax
    b8b1:	89 d6                	mov    %edx,%esi
    b8b3:	89 c7                	mov    %eax,%edi
    b8b5:	e8 b2 c3 ff ff       	callq  7c6c <safe_lshift_func_uint8_t_u_u>
    b8ba:	0f b6 c0             	movzbl %al,%eax
    b8bd:	48 39 85 78 e8 ff ff 	cmp    %rax,-0x1788(%rbp)
    b8c4:	0f 93 c0             	setae  %al
    b8c7:	0f b6 c0             	movzbl %al,%eax
    b8ca:	89 c6                	mov    %eax,%esi
    b8cc:	bf 4e 00 00 00       	mov    $0x4e,%edi
    b8d1:	e8 5c b9 ff ff       	callq  7232 <safe_mul_func_int8_t_s_s>
    b8d6:	0f be c0             	movsbl %al,%eax
    b8d9:	89 de                	mov    %ebx,%esi
    b8db:	89 c7                	mov    %eax,%edi
    b8dd:	e8 11 bb ff ff       	callq  73f3 <safe_sub_func_int16_t_s_s>
    b8e2:	0f be c0             	movsbl %al,%eax
    b8e5:	be 6b 00 00 00       	mov    $0x6b,%esi
    b8ea:	89 c7                	mov    %eax,%edi
    b8ec:	e8 21 b9 ff ff       	callq  7212 <safe_sub_func_int8_t_s_s>
    b8f1:	0f be c0             	movsbl %al,%eax
    b8f4:	09 85 e0 e8 ff ff    	or     %eax,-0x1720(%rbp)
    b8fa:	48 8b 05 27 4e 01 00 	mov    0x14e27(%rip),%rax        # 20728 <g_1282>
    b901:	48 8b 00             	mov    (%rax),%rax
    b904:	c7 00 1d 57 f2 7d    	movl   $0x7df2571d,(%rax)
    b90a:	0f b7 05 a7 1a 01 00 	movzwl 0x11aa7(%rip),%eax        # 1d3b8 <g_1038>
    b911:	83 c0 01             	add    $0x1,%eax
    b914:	66 89 05 9d 1a 01 00 	mov    %ax,0x11a9d(%rip)        # 1d3b8 <g_1038>
    b91b:	0f b7 05 96 1a 01 00 	movzwl 0x11a96(%rip),%eax        # 1d3b8 <g_1038>
    b922:	66 83 f8 02          	cmp    $0x2,%ax
    b926:	0f 86 df fe ff ff    	jbe    b80b <func_2+0x2a0e>
    b92c:	48 8b 85 78 e8 ff ff 	mov    -0x1788(%rbp),%rax
    b933:	0f bf d8             	movswl %ax,%ebx
    b936:	8b 85 10 ec ff ff    	mov    -0x13f0(%rbp),%eax
    b93c:	41 89 c5             	mov    %eax,%r13d
    b93f:	48 8b 85 70 e8 ff ff 	mov    -0x1790(%rbp),%rax
    b946:	44 0f b7 e0          	movzwl %ax,%r12d
    b94a:	be 01 00 00 00       	mov    $0x1,%esi
    b94f:	bf 00 00 00 00       	mov    $0x0,%edi
    b954:	e8 47 c7 ff ff       	callq  80a0 <safe_mod_func_uint64_t_u_u>
    b959:	83 e0 3c             	and    $0x3c,%eax
    b95c:	48 39 85 70 e8 ff ff 	cmp    %rax,-0x1790(%rbp)
    b963:	0f 92 c0             	setb   %al
    b966:	0f b6 d0             	movzbl %al,%edx
    b969:	48 8b 05 f0 4f 01 00 	mov    0x14ff0(%rip),%rax        # 20960 <g_1949>
    b970:	48 8b 00             	mov    (%rax),%rax
    b973:	48 8b 00             	mov    (%rax),%rax
    b976:	0f b7 00             	movzwl (%rax),%eax
    b979:	89 c1                	mov    %eax,%ecx
    b97b:	89 d0                	mov    %edx,%eax
    b97d:	09 c1                	or     %eax,%ecx
    b97f:	89 ca                	mov    %ecx,%edx
    b981:	48 8b 05 d8 4f 01 00 	mov    0x14fd8(%rip),%rax        # 20960 <g_1949>
    b988:	48 8b 00             	mov    (%rax),%rax
    b98b:	48 8b 00             	mov    (%rax),%rax
    b98e:	66 89 10             	mov    %dx,(%rax)
    b991:	0f b7 00             	movzwl (%rax),%eax
    b994:	0f b7 c0             	movzwl %ax,%eax
    b997:	89 85 0c ed ff ff    	mov    %eax,-0x12f4(%rbp)
    b99d:	8b 85 0c ed ff ff    	mov    -0x12f4(%rbp),%eax
    b9a3:	89 85 08 e9 ff ff    	mov    %eax,-0x16f8(%rbp)
    b9a9:	8b 85 08 e9 ff ff    	mov    -0x16f8(%rbp),%eax
    b9af:	0f b7 c0             	movzwl %ax,%eax
    b9b2:	44 89 e6             	mov    %r12d,%esi
    b9b5:	89 c7                	mov    %eax,%edi
    b9b7:	e8 a1 c3 ff ff       	callq  7d5d <safe_mul_func_uint16_t_u_u>
    b9bc:	0f b7 c0             	movzwl %ax,%eax
    b9bf:	44 89 ee             	mov    %r13d,%esi
    b9c2:	89 c7                	mov    %eax,%edi
    b9c4:	e8 7c c5 ff ff       	callq  7f45 <safe_div_func_uint32_t_u_u>
    b9c9:	3d 4a 19 00 00       	cmp    $0x194a,%eax
    b9ce:	0f 97 c0             	seta   %al
    b9d1:	0f b6 d0             	movzbl %al,%edx
    b9d4:	48 8b 05 35 3b 01 00 	mov    0x13b35(%rip),%rax        # 1f510 <g_140>
    b9db:	8b 00                	mov    (%rax),%eax
    b9dd:	21 d0                	and    %edx,%eax
    b9df:	98                   	cwtl   
    b9e0:	83 e0 01             	and    $0x1,%eax
    b9e3:	89 de                	mov    %ebx,%esi
    b9e5:	89 c7                	mov    %eax,%edi
    b9e7:	e8 29 ba ff ff       	callq  7415 <safe_mul_func_int16_t_s_s>
    b9ec:	66 85 c0             	test   %ax,%ax
    b9ef:	0f 84 ef 00 00 00    	je     bae4 <func_2+0x2ce7>
    b9f5:	48 8d 85 f0 f7 ff ff 	lea    -0x810(%rbp),%rax
    b9fc:	48 8d 15 dd 24 01 00 	lea    0x124dd(%rip),%rdx        # 1dee0 <g_2602+0x17>
    ba03:	b9 fa 00 00 00       	mov    $0xfa,%ecx
    ba08:	48 89 c7             	mov    %rax,%rdi
    ba0b:	48 89 d6             	mov    %rdx,%rsi
    ba0e:	f3 48 a5             	rep movsq %ds:(%rsi),%es:(%rdi)
    ba11:	48 8b 05 f8 3a 01 00 	mov    0x13af8(%rip),%rax        # 1f510 <g_140>
    ba18:	8b 18                	mov    (%rax),%ebx
    ba1a:	48 8b 85 00 ea ff ff 	mov    -0x1600(%rbp),%rax
    ba21:	48 3b 85 d8 ea ff ff 	cmp    -0x1528(%rbp),%rax
    ba28:	0f 95 c0             	setne  %al
    ba2b:	0f b6 d0             	movzbl %al,%edx
    ba2e:	48 8b 05 33 4f 01 00 	mov    0x14f33(%rip),%rax        # 20968 <g_1948>
    ba35:	48 8b 8d a8 fd ff ff 	mov    -0x258(%rbp),%rcx
    ba3c:	48 89 08             	mov    %rcx,(%rax)
    ba3f:	48 8b 00             	mov    (%rax),%rax
    ba42:	48 39 85 f8 ea ff ff 	cmp    %rax,-0x1508(%rbp)
    ba49:	0f 95 c0             	setne  %al
    ba4c:	0f b6 c0             	movzbl %al,%eax
    ba4f:	89 d6                	mov    %edx,%esi
    ba51:	89 c7                	mov    %eax,%edi
    ba53:	e8 b6 b8 ff ff       	callq  730e <safe_lshift_func_int8_t_s_u>
    ba58:	0f be c0             	movsbl %al,%eax
    ba5b:	f7 d0                	not    %eax
    ba5d:	89 de                	mov    %ebx,%esi
    ba5f:	89 c7                	mov    %eax,%edi
    ba61:	e8 72 c4 ff ff       	callq  7ed8 <safe_add_func_uint32_t_u_u>
    ba66:	89 c2                	mov    %eax,%edx
    ba68:	48 8b 05 a1 3a 01 00 	mov    0x13aa1(%rip),%rax        # 1f510 <g_140>
    ba6f:	8b 00                	mov    (%rax),%eax
    ba71:	89 d6                	mov    %edx,%esi
    ba73:	89 c7                	mov    %eax,%edi
    ba75:	e8 a3 c4 ff ff       	callq  7f1d <safe_mod_func_uint32_t_u_u>
    ba7a:	48 8b 85 70 e8 ff ff 	mov    -0x1790(%rbp),%rax
    ba81:	89 85 e0 e8 ff ff    	mov    %eax,-0x1720(%rbp)
    ba87:	48 8b 85 40 ed ff ff 	mov    -0x12c0(%rbp),%rax
    ba8e:	48 39 85 68 ea ff ff 	cmp    %rax,-0x1598(%rbp)
    ba95:	0f 95 c2             	setne  %dl
    ba98:	48 8b 05 a9 4c 01 00 	mov    0x14ca9(%rip),%rax        # 20748 <g_1550>
    ba9f:	88 10                	mov    %dl,(%rax)
    baa1:	0f b6 00             	movzbl (%rax),%eax
    baa4:	84 c0                	test   %al,%al
    baa6:	0f 95 c0             	setne  %al
    baa9:	0f b6 c0             	movzbl %al,%eax
    baac:	48 39 85 78 e8 ff ff 	cmp    %rax,-0x1788(%rbp)
    bab3:	0f 92 c0             	setb   %al
    bab6:	0f b6 d0             	movzbl %al,%edx
    bab9:	48 8b 05 70 4c 01 00 	mov    0x14c70(%rip),%rax        # 20730 <g_1281>
    bac0:	48 8b 00             	mov    (%rax),%rax
    bac3:	48 8b 00             	mov    (%rax),%rax
    bac6:	0b 95 e0 e8 ff ff    	or     -0x1720(%rbp),%edx
    bacc:	89 10                	mov    %edx,(%rax)
    bace:	48 8b 85 80 e9 ff ff 	mov    -0x1680(%rbp),%rax
    bad5:	48 8d 95 10 ec ff ff 	lea    -0x13f0(%rbp),%rdx
    badc:	48 89 10             	mov    %rdx,(%rax)
    badf:	e9 82 06 00 00       	jmpq   c166 <func_2+0x3369>
    bae4:	48 8d 05 35 42 01 00 	lea    0x14235(%rip),%rax        # 1fd20 <g_462>
    baeb:	48 89 85 00 eb ff ff 	mov    %rax,-0x1500(%rbp)
    baf2:	c7 85 e4 e8 ff ff 00 	movl   $0x0,-0x171c(%rbp)
    baf9:	00 00 00 
    bafc:	eb 22                	jmp    bb20 <func_2+0x2d23>
    bafe:	8b 85 e4 e8 ff ff    	mov    -0x171c(%rbp),%eax
    bb04:	48 98                	cltq   
    bb06:	48 8d 95 b0 eb ff ff 	lea    -0x1450(%rbp),%rdx
    bb0d:	48 83 c2 24          	add    $0x24,%rdx
    bb11:	48 89 94 c5 f0 f7 ff 	mov    %rdx,-0x810(%rbp,%rax,8)
    bb18:	ff 
    bb19:	83 85 e4 e8 ff ff 01 	addl   $0x1,-0x171c(%rbp)
    bb20:	83 bd e4 e8 ff ff 01 	cmpl   $0x1,-0x171c(%rbp)
    bb27:	7e d5                	jle    bafe <func_2+0x2d01>
    bb29:	8b 9d e0 e8 ff ff    	mov    -0x1720(%rbp),%ebx
    bb2f:	8b 85 e0 e8 ff ff    	mov    -0x1720(%rbp),%eax
    bb35:	4c 63 e0             	movslq %eax,%r12
    bb38:	48 8b 05 29 4e 01 00 	mov    0x14e29(%rip),%rax        # 20968 <g_1948>
    bb3f:	48 8b 00             	mov    (%rax),%rax
    bb42:	48 8b 00             	mov    (%rax),%rax
    bb45:	48 8b 00             	mov    (%rax),%rax
    bb48:	0f b7 10             	movzwl (%rax),%edx
    bb4b:	83 c2 01             	add    $0x1,%edx
    bb4e:	66 89 10             	mov    %dx,(%rax)
    bb51:	0f b7 00             	movzwl (%rax),%eax
    bb54:	44 0f b7 e8          	movzwl %ax,%r13d
    bb58:	48 8b 85 70 e8 ff ff 	mov    -0x1790(%rbp),%rax
    bb5f:	0f b7 d0             	movzwl %ax,%edx
    bb62:	8b 85 10 ec ff ff    	mov    -0x13f0(%rbp),%eax
    bb68:	0f b7 c0             	movzwl %ax,%eax
    bb6b:	89 d6                	mov    %edx,%esi
    bb6d:	89 c7                	mov    %eax,%edi
    bb6f:	e8 08 c2 ff ff       	callq  7d7c <safe_mod_func_uint16_t_u_u>
    bb74:	66 85 c0             	test   %ax,%ax
    bb77:	74 07                	je     bb80 <func_2+0x2d83>
    bb79:	b8 01 00 00 00       	mov    $0x1,%eax
    bb7e:	eb 05                	jmp    bb85 <func_2+0x2d88>
    bb80:	b8 00 00 00 00       	mov    $0x0,%eax
    bb85:	44 31 e8             	xor    %r13d,%eax
    bb88:	48 63 d0             	movslq %eax,%rdx
    bb8b:	48 83 bd e0 ea ff ff 	cmpq   $0x0,-0x1520(%rbp)
    bb92:	00 
    bb93:	0f 95 c0             	setne  %al
    bb96:	0f b6 c0             	movzbl %al,%eax
    bb99:	48 89 d6             	mov    %rdx,%rsi
    bb9c:	48 89 c7             	mov    %rax,%rdi
    bb9f:	e8 30 be ff ff       	callq  79d4 <safe_mod_func_int64_t_s_s>
    bba4:	49 39 c4             	cmp    %rax,%r12
    bba7:	0f 9e c0             	setle  %al
    bbaa:	0f b6 c0             	movzbl %al,%eax
    bbad:	be 0f 00 00 00       	mov    $0xf,%esi
    bbb2:	89 c7                	mov    %eax,%edi
    bbb4:	e8 6d c2 ff ff       	callq  7e26 <safe_lshift_func_uint16_t_u_u>
    bbb9:	0f b7 c0             	movzwl %ax,%eax
    bbbc:	89 de                	mov    %ebx,%esi
    bbbe:	89 c7                	mov    %eax,%edi
    bbc0:	e8 2b c3 ff ff       	callq  7ef0 <safe_sub_func_uint32_t_u_u>
    bbc5:	48 c7 05 d8 40 01 00 	movq   $0x0,0x140d8(%rip)        # 1fca8 <g_227>
    bbcc:	00 00 00 00 
    bbd0:	48 8b 15 d1 40 01 00 	mov    0x140d1(%rip),%rdx        # 1fca8 <g_227>
    bbd7:	48 8b 05 72 4d 01 00 	mov    0x14d72(%rip),%rax        # 20950 <g_1848>
    bbde:	48 8b 00             	mov    (%rax),%rax
    bbe1:	48 39 c2             	cmp    %rax,%rdx
    bbe4:	0f 95 c0             	setne  %al
    bbe7:	0f b6 c0             	movzbl %al,%eax
    bbea:	be bc e7 da 18       	mov    $0x18dae7bc,%esi
    bbef:	89 c7                	mov    %eax,%edi
    bbf1:	e8 27 c3 ff ff       	callq  7f1d <safe_mod_func_uint32_t_u_u>
    bbf6:	85 c0                	test   %eax,%eax
    bbf8:	74 07                	je     bc01 <func_2+0x2e04>
    bbfa:	b8 01 00 00 00       	mov    $0x1,%eax
    bbff:	eb 05                	jmp    bc06 <func_2+0x2e09>
    bc01:	b8 00 00 00 00       	mov    $0x0,%eax
    bc06:	89 85 b8 e8 ff ff    	mov    %eax,-0x1748(%rbp)
    bc0c:	8b 85 b8 e8 ff ff    	mov    -0x1748(%rbp),%eax
    bc12:	0f b6 c0             	movzbl %al,%eax
    bc15:	be 02 00 00 00       	mov    $0x2,%esi
    bc1a:	89 c7                	mov    %eax,%edi
    bc1c:	e8 4b c0 ff ff       	callq  7c6c <safe_lshift_func_uint8_t_u_u>
    bc21:	48 8b 15 e0 38 01 00 	mov    0x138e0(%rip),%rdx        # 1f508 <g_101>
    bc28:	8b 0a                	mov    (%rdx),%ecx
    bc2a:	0f b6 d0             	movzbl %al,%edx
    bc2d:	48 8b 05 d4 38 01 00 	mov    0x138d4(%rip),%rax        # 1f508 <g_101>
    bc34:	21 ca                	and    %ecx,%edx
    bc36:	89 10                	mov    %edx,(%rax)
    bc38:	48 8b 05 01 4b 01 00 	mov    0x14b01(%rip),%rax        # 20740 <g_1279>
    bc3f:	48 8b 00             	mov    (%rax),%rax
    bc42:	48 8b 00             	mov    (%rax),%rax
    bc45:	48 8b 00             	mov    (%rax),%rax
    bc48:	48 8b 10             	mov    (%rax),%rdx
    bc4b:	48 8b 85 00 eb ff ff 	mov    -0x1500(%rbp),%rax
    bc52:	48 89 10             	mov    %rdx,(%rax)
    bc55:	e9 0c 05 00 00       	jmpq   c166 <func_2+0x3369>
    bc5a:	c6 85 8d e8 ff ff a0 	movb   $0xa0,-0x1773(%rbp)
    bc61:	c7 85 0c e9 ff ff fa 	movl   $0xfffffffa,-0x16f4(%rbp)
    bc68:	ff ff ff 
    bc6b:	c7 85 e8 e8 ff ff 00 	movl   $0x0,-0x1718(%rbp)
    bc72:	00 00 00 
    bc75:	eb 1a                	jmp    bc91 <func_2+0x2e94>
    bc77:	8b 85 e8 e8 ff ff    	mov    -0x1718(%rbp),%eax
    bc7d:	48 98                	cltq   
    bc7f:	c7 84 85 80 ec ff ff 	movl   $0x69c2a56a,-0x1380(%rbp,%rax,4)
    bc86:	6a a5 c2 69 
    bc8a:	83 85 e8 e8 ff ff 01 	addl   $0x1,-0x1718(%rbp)
    bc91:	83 bd e8 e8 ff ff 04 	cmpl   $0x4,-0x1718(%rbp)
    bc98:	7e dd                	jle    bc77 <func_2+0x2e7a>
    bc9a:	c6 05 03 17 01 00 13 	movb   $0x13,0x11703(%rip)        # 1d3a4 <g_712+0x24>
    bca1:	e9 cd 01 00 00       	jmpq   be73 <func_2+0x3076>
    bca6:	c7 85 ec e8 ff ff 00 	movl   $0x0,-0x1714(%rbp)
    bcad:	00 00 00 
    bcb0:	eb 4c                	jmp    bcfe <func_2+0x2f01>
    bcb2:	c7 85 f0 e8 ff ff 00 	movl   $0x0,-0x1710(%rbp)
    bcb9:	00 00 00 
    bcbc:	eb 30                	jmp    bcee <func_2+0x2ef1>
    bcbe:	8b 85 f0 e8 ff ff    	mov    -0x1710(%rbp),%eax
    bcc4:	48 63 c8             	movslq %eax,%rcx
    bcc7:	8b 85 ec e8 ff ff    	mov    -0x1714(%rbp),%eax
    bccd:	48 63 d0             	movslq %eax,%rdx
    bcd0:	48 89 d0             	mov    %rdx,%rax
    bcd3:	48 01 c0             	add    %rax,%rax
    bcd6:	48 01 d0             	add    %rdx,%rax
    bcd9:	48 01 c8             	add    %rcx,%rax
    bcdc:	c7 84 85 f0 f7 ff ff 	movl   $0x52110f49,-0x810(%rbp,%rax,4)
    bce3:	49 0f 11 52 
    bce7:	83 85 f0 e8 ff ff 01 	addl   $0x1,-0x1710(%rbp)
    bcee:	83 bd f0 e8 ff ff 02 	cmpl   $0x2,-0x1710(%rbp)
    bcf5:	7e c7                	jle    bcbe <func_2+0x2ec1>
    bcf7:	83 85 ec e8 ff ff 01 	addl   $0x1,-0x1714(%rbp)
    bcfe:	83 bd ec e8 ff ff 06 	cmpl   $0x6,-0x1714(%rbp)
    bd05:	7e ab                	jle    bcb2 <func_2+0x2eb5>
    bd07:	8b 85 04 f8 ff ff    	mov    -0x7fc(%rbp),%eax
    bd0d:	83 e8 01             	sub    $0x1,%eax
    bd10:	89 85 04 f8 ff ff    	mov    %eax,-0x7fc(%rbp)
    bd16:	48 8b 85 78 e8 ff ff 	mov    -0x1788(%rbp),%rax
    bd1d:	0f b6 d8             	movzbl %al,%ebx
    bd20:	8b 85 04 f8 ff ff    	mov    -0x7fc(%rbp),%eax
    bd26:	41 89 c5             	mov    %eax,%r13d
    bd29:	48 83 bd 70 e8 ff ff 	cmpq   $0x0,-0x1790(%rbp)
    bd30:	00 
    bd31:	0f 84 e3 00 00 00    	je     be1a <func_2+0x301d>
    bd37:	48 8b 85 60 e9 ff ff 	mov    -0x16a0(%rbp),%rax
    bd3e:	48 8b 00             	mov    (%rax),%rax
    bd41:	48 39 85 e8 ea ff ff 	cmp    %rax,-0x1518(%rbp)
    bd48:	0f 95 c0             	setne  %al
    bd4b:	0f b6 c0             	movzbl %al,%eax
    bd4e:	be 09 00 00 00       	mov    $0x9,%esi
    bd53:	89 c7                	mov    %eax,%edi
    bd55:	e8 58 b7 ff ff       	callq  74b2 <safe_lshift_func_int16_t_s_s>
    bd5a:	48 8b 85 60 e9 ff ff 	mov    -0x16a0(%rbp),%rax
    bd61:	48 8b 00             	mov    (%rax),%rax
    bd64:	48 8b 00             	mov    (%rax),%rax
    bd67:	48 8b 00             	mov    (%rax),%rax
    bd6a:	44 8b 20             	mov    (%rax),%r12d
    bd6d:	0f be 95 8d e8 ff ff 	movsbl -0x1773(%rbp),%edx
    bd74:	48 8b 85 70 ea ff ff 	mov    -0x1590(%rbp),%rax
    bd7b:	0f b6 00             	movzbl (%rax),%eax
    bd7e:	89 c1                	mov    %eax,%ecx
    bd80:	48 8b 85 78 e8 ff ff 	mov    -0x1788(%rbp),%rax
    bd87:	31 c8                	xor    %ecx,%eax
    bd89:	89 c1                	mov    %eax,%ecx
    bd8b:	48 8b 85 70 ea ff ff 	mov    -0x1590(%rbp),%rax
    bd92:	88 08                	mov    %cl,(%rax)
    bd94:	48 8b 85 70 ea ff ff 	mov    -0x1590(%rbp),%rax
    bd9b:	0f b6 00             	movzbl (%rax),%eax
    bd9e:	0f be c0             	movsbl %al,%eax
    bda1:	89 d6                	mov    %edx,%esi
    bda3:	89 c7                	mov    %eax,%edi
    bda5:	e8 a7 b4 ff ff       	callq  7251 <safe_mod_func_int8_t_s_s>
    bdaa:	be 02 00 00 00       	mov    $0x2,%esi
    bdaf:	bf 01 00 00 00       	mov    $0x1,%edi
    bdb4:	e8 f9 b6 ff ff       	callq  74b2 <safe_lshift_func_int16_t_s_s>
    bdb9:	98                   	cwtl   
    bdba:	41 39 c4             	cmp    %eax,%r12d
    bdbd:	74 11                	je     bdd0 <func_2+0x2fd3>
    bdbf:	48 83 bd 78 e8 ff ff 	cmpq   $0x0,-0x1788(%rbp)
    bdc6:	00 
    bdc7:	74 07                	je     bdd0 <func_2+0x2fd3>
    bdc9:	ba 01 00 00 00       	mov    $0x1,%edx
    bdce:	eb 05                	jmp    bdd5 <func_2+0x2fd8>
    bdd0:	ba 00 00 00 00       	mov    $0x0,%edx
    bdd5:	0f b6 05 d8 19 01 00 	movzbl 0x119d8(%rip),%eax        # 1d7b4 <g_1261+0x14>
    bddc:	0f b6 c0             	movzbl %al,%eax
    bddf:	39 c2                	cmp    %eax,%edx
    bde1:	0f 9c c0             	setl   %al
    bde4:	0f b6 c0             	movzbl %al,%eax
    bde7:	89 c7                	mov    %eax,%edi
    bde9:	e8 77 bd ff ff       	callq  7b65 <safe_unary_minus_func_uint8_t_u>
    bdee:	48 8b 05 73 4b 01 00 	mov    0x14b73(%rip),%rax        # 20968 <g_1948>
    bdf5:	48 8b 00             	mov    (%rax),%rax
    bdf8:	48 8b 00             	mov    (%rax),%rax
    bdfb:	48 8b 00             	mov    (%rax),%rax
    bdfe:	0f b7 00             	movzwl (%rax),%eax
    be01:	0f b7 c0             	movzwl %ax,%eax
    be04:	31 85 ac e8 ff ff    	xor    %eax,-0x1754(%rbp)
    be0a:	83 bd ac e8 ff ff 01 	cmpl   $0x1,-0x1754(%rbp)
    be11:	7e 07                	jle    be1a <func_2+0x301d>
    be13:	b8 01 00 00 00       	mov    $0x1,%eax
    be18:	eb 05                	jmp    be1f <func_2+0x3022>
    be1a:	b8 00 00 00 00       	mov    $0x0,%eax
    be1f:	44 89 ee             	mov    %r13d,%esi
    be22:	89 c7                	mov    %eax,%edi
    be24:	e8 c3 b8 ff ff       	callq  76ec <safe_mod_func_int32_t_s_s>
    be29:	48 8b 05 30 4b 01 00 	mov    0x14b30(%rip),%rax        # 20960 <g_1949>
    be30:	48 8b 00             	mov    (%rax),%rax
    be33:	48 8b 00             	mov    (%rax),%rax
    be36:	0f b7 00             	movzwl (%rax),%eax
    be39:	66 35 79 85          	xor    $0x8579,%ax
    be3d:	0f b7 f0             	movzwl %ax,%esi
    be40:	48 8b 85 a8 ed ff ff 	mov    -0x1258(%rbp),%rax
    be47:	4c 8b 25 c2 3e 01 00 	mov    0x13ec2(%rip),%r12        # 1fd10 <g_437>
    be4e:	48 8d 95 8a e8 ff ff 	lea    -0x1776(%rbp),%rdx
    be55:	89 d9                	mov    %ebx,%ecx
    be57:	48 89 c7             	mov    %rax,%rdi
    be5a:	e8 1a 24 00 00       	callq  e279 <func_32>
    be5f:	49 89 04 24          	mov    %rax,(%r12)
    be63:	0f b6 05 3a 15 01 00 	movzbl 0x1153a(%rip),%eax        # 1d3a4 <g_712+0x24>
    be6a:	83 c0 01             	add    $0x1,%eax
    be6d:	88 05 31 15 01 00    	mov    %al,0x11531(%rip)        # 1d3a4 <g_712+0x24>
    be73:	0f b6 05 2a 15 01 00 	movzbl 0x1152a(%rip),%eax        # 1d3a4 <g_712+0x24>
    be7a:	3c 3c                	cmp    $0x3c,%al
    be7c:	0f 85 24 fe ff ff    	jne    bca6 <func_2+0x2ea9>
    be82:	48 8b 85 d0 e9 ff ff 	mov    -0x1630(%rbp),%rax
    be89:	48 85 c0             	test   %rax,%rax
    be8c:	0f 95 c2             	setne  %dl
    be8f:	48 8b 85 e8 ea ff ff 	mov    -0x1518(%rbp),%rax
    be96:	48 8b 00             	mov    (%rax),%rax
    be99:	48 8b 00             	mov    (%rax),%rax
    be9c:	0f b6 d2             	movzbl %dl,%edx
    be9f:	89 10                	mov    %edx,(%rax)
    bea1:	c6 05 fc 12 01 00 04 	movb   $0x4,0x112fc(%rip)        # 1d1a4 <g_237+0x4>
    bea8:	e9 aa 02 00 00       	jmpq   c157 <func_2+0x335a>
    bead:	c7 85 10 e9 ff ff ff 	movl   $0xffffffff,-0x16f0(%rbp)
    beb4:	ff ff ff 
    beb7:	c7 85 f0 f7 ff ff 19 	movl   $0xf845b019,-0x810(%rbp)
    bebe:	b0 45 f8 
    bec1:	c7 85 f4 f7 ff ff ff 	movl   $0xffffffff,-0x80c(%rbp)
    bec8:	ff ff ff 
    becb:	c7 85 f8 f7 ff ff e5 	movl   $0xcc03eee5,-0x808(%rbp)
    bed2:	ee 03 cc 
    bed5:	c7 85 fc f7 ff ff 19 	movl   $0xf845b019,-0x804(%rbp)
    bedc:	b0 45 f8 
    bedf:	c7 85 00 f8 ff ff a9 	movl   $0x9b86ffa9,-0x800(%rbp)
    bee6:	ff 86 9b 
    bee9:	c7 85 04 f8 ff ff a9 	movl   $0x9b86ffa9,-0x7fc(%rbp)
    bef0:	ff 86 9b 
    bef3:	c7 85 08 f8 ff ff 97 	movl   $0xbeedf197,-0x7f8(%rbp)
    befa:	f1 ed be 
    befd:	c7 85 0c f8 ff ff 00 	movl   $0x0,-0x7f4(%rbp)
    bf04:	00 00 00 
    bf07:	c7 85 10 f8 ff ff e5 	movl   $0xcc03eee5,-0x7f0(%rbp)
    bf0e:	ee 03 cc 
    bf11:	c7 85 14 f8 ff ff 00 	movl   $0x0,-0x7ec(%rbp)
    bf18:	00 00 00 
    bf1b:	c7 85 18 f8 ff ff 00 	movl   $0x0,-0x7e8(%rbp)
    bf22:	00 00 00 
    bf25:	c7 85 1c f8 ff ff ff 	movl   $0xffffffff,-0x7e4(%rbp)
    bf2c:	ff ff ff 
    bf2f:	c7 85 20 f8 ff ff 7f 	movl   $0xb0b9837f,-0x7e0(%rbp)
    bf36:	83 b9 b0 
    bf39:	c7 85 24 f8 ff ff 00 	movl   $0x0,-0x7dc(%rbp)
    bf40:	00 00 00 
    bf43:	c7 85 28 f8 ff ff a9 	movl   $0x9b86ffa9,-0x7d8(%rbp)
    bf4a:	ff 86 9b 
    bf4d:	c7 85 2c f8 ff ff 97 	movl   $0xbeedf197,-0x7d4(%rbp)
    bf54:	f1 ed be 
    bf57:	c7 85 30 f8 ff ff a9 	movl   $0x9b86ffa9,-0x7d0(%rbp)
    bf5e:	ff 86 9b 
    bf61:	c7 85 34 f8 ff ff 00 	movl   $0x0,-0x7cc(%rbp)
    bf68:	00 00 00 
    bf6b:	c7 85 38 f8 ff ff 7f 	movl   $0xb0b9837f,-0x7c8(%rbp)
    bf72:	83 b9 b0 
    bf75:	c7 85 3c f8 ff ff ff 	movl   $0xffffffff,-0x7c4(%rbp)
    bf7c:	ff ff ff 
    bf7f:	c7 85 40 f8 ff ff 00 	movl   $0x0,-0x7c0(%rbp)
    bf86:	00 00 00 
    bf89:	c7 85 44 f8 ff ff 00 	movl   $0x0,-0x7bc(%rbp)
    bf90:	00 00 00 
    bf93:	c7 85 48 f8 ff ff e5 	movl   $0xcc03eee5,-0x7b8(%rbp)
    bf9a:	ee 03 cc 
    bf9d:	c7 85 4c f8 ff ff 00 	movl   $0x0,-0x7b4(%rbp)
    bfa4:	00 00 00 
    bfa7:	c7 85 50 f8 ff ff 97 	movl   $0xbeedf197,-0x7b0(%rbp)
    bfae:	f1 ed be 
    bfb1:	c7 85 54 f8 ff ff a9 	movl   $0x9b86ffa9,-0x7ac(%rbp)
    bfb8:	ff 86 9b 
    bfbb:	c7 85 58 f8 ff ff a9 	movl   $0x9b86ffa9,-0x7a8(%rbp)
    bfc2:	ff 86 9b 
    bfc5:	c7 85 5c f8 ff ff 19 	movl   $0xf845b019,-0x7a4(%rbp)
    bfcc:	b0 45 f8 
    bfcf:	c7 85 60 f8 ff ff e5 	movl   $0xcc03eee5,-0x7a0(%rbp)
    bfd6:	ee 03 cc 
    bfd9:	c7 85 64 f8 ff ff ff 	movl   $0xffffffff,-0x79c(%rbp)
    bfe0:	ff ff ff 
    bfe3:	c7 85 68 f8 ff ff 19 	movl   $0xf845b019,-0x798(%rbp)
    bfea:	b0 45 f8 
    bfed:	c7 85 6c f8 ff ff ff 	movl   $0xffffffff,-0x794(%rbp)
    bff4:	ff ff ff 
    bff7:	c7 85 70 f8 ff ff e5 	movl   $0xcc03eee5,-0x790(%rbp)
    bffe:	ee 03 cc 
    c001:	c7 85 74 f8 ff ff 19 	movl   $0xf845b019,-0x78c(%rbp)
    c008:	b0 45 f8 
    c00b:	c7 85 78 f8 ff ff a9 	movl   $0x9b86ffa9,-0x788(%rbp)
    c012:	ff 86 9b 
    c015:	c7 85 7c f8 ff ff a9 	movl   $0x9b86ffa9,-0x784(%rbp)
    c01c:	ff 86 9b 
    c01f:	c7 85 80 f8 ff ff 97 	movl   $0xbeedf197,-0x780(%rbp)
    c026:	f1 ed be 
    c029:	c7 85 84 f8 ff ff 00 	movl   $0x0,-0x77c(%rbp)
    c030:	00 00 00 
    c033:	c7 85 88 f8 ff ff e5 	movl   $0xcc03eee5,-0x778(%rbp)
    c03a:	ee 03 cc 
    c03d:	c7 85 8c f8 ff ff 00 	movl   $0x0,-0x774(%rbp)
    c044:	00 00 00 
    c047:	c7 85 90 f8 ff ff 00 	movl   $0x0,-0x770(%rbp)
    c04e:	00 00 00 
    c051:	c7 85 94 f8 ff ff ff 	movl   $0xffffffff,-0x76c(%rbp)
    c058:	ff ff ff 
    c05b:	c7 85 98 f8 ff ff 7f 	movl   $0xb0b9837f,-0x768(%rbp)
    c062:	83 b9 b0 
    c065:	c7 85 9c f8 ff ff 00 	movl   $0x0,-0x764(%rbp)
    c06c:	00 00 00 
    c06f:	c7 85 a0 f8 ff ff a9 	movl   $0x9b86ffa9,-0x760(%rbp)
    c076:	ff 86 9b 
    c079:	c7 85 a4 f8 ff ff 97 	movl   $0xbeedf197,-0x75c(%rbp)
    c080:	f1 ed be 
    c083:	c7 85 a8 f8 ff ff a9 	movl   $0x9b86ffa9,-0x758(%rbp)
    c08a:	ff 86 9b 
    c08d:	c7 85 ac f8 ff ff 00 	movl   $0x0,-0x754(%rbp)
    c094:	00 00 00 
    c097:	c7 85 b0 f8 ff ff 7f 	movl   $0xb0b9837f,-0x750(%rbp)
    c09e:	83 b9 b0 
    c0a1:	c7 85 b4 f8 ff ff ff 	movl   $0xffffffff,-0x74c(%rbp)
    c0a8:	ff ff ff 
    c0ab:	c7 85 b8 f8 ff ff 00 	movl   $0x0,-0x748(%rbp)
    c0b2:	00 00 00 
    c0b5:	c7 85 bc f8 ff ff 00 	movl   $0x0,-0x744(%rbp)
    c0bc:	00 00 00 
    c0bf:	c7 85 c0 f8 ff ff e5 	movl   $0xcc03eee5,-0x740(%rbp)
    c0c6:	ee 03 cc 
    c0c9:	c7 85 c4 f8 ff ff 00 	movl   $0x0,-0x73c(%rbp)
    c0d0:	00 00 00 
    c0d3:	c7 85 c8 f8 ff ff 97 	movl   $0xbeedf197,-0x738(%rbp)
    c0da:	f1 ed be 
    c0dd:	c7 85 cc f8 ff ff a9 	movl   $0x9b86ffa9,-0x734(%rbp)
    c0e4:	ff 86 9b 
    c0e7:	c7 85 d0 f8 ff ff a9 	movl   $0x9b86ffa9,-0x730(%rbp)
    c0ee:	ff 86 9b 
    c0f1:	c7 85 d4 f8 ff ff 19 	movl   $0xf845b019,-0x72c(%rbp)
    c0f8:	b0 45 f8 
    c0fb:	c7 85 d8 f8 ff ff e5 	movl   $0xcc03eee5,-0x728(%rbp)
    c102:	ee 03 cc 
    c105:	c7 85 dc f8 ff ff ff 	movl   $0xffffffff,-0x724(%rbp)
    c10c:	ff ff ff 
    c10f:	c7 85 e0 f8 ff ff 19 	movl   $0xf845b019,-0x720(%rbp)
    c116:	b0 45 f8 
    c119:	c7 85 e4 f8 ff ff ff 	movl   $0xffffffff,-0x71c(%rbp)
    c120:	ff ff ff 
    c123:	c7 85 e8 f8 ff ff e5 	movl   $0xcc03eee5,-0x718(%rbp)
    c12a:	ee 03 cc 
    c12d:	c7 85 ec f8 ff ff 19 	movl   $0xf845b019,-0x714(%rbp)
    c134:	b0 45 f8 
    c137:	0f b6 05 8b 1d 01 00 	movzbl 0x11d8b(%rip),%eax        # 1dec9 <g_2602>
    c13e:	83 e8 01             	sub    $0x1,%eax
    c141:	88 05 82 1d 01 00    	mov    %al,0x11d82(%rip)        # 1dec9 <g_2602>
    c147:	0f b6 05 56 10 01 00 	movzbl 0x11056(%rip),%eax        # 1d1a4 <g_237+0x4>
    c14e:	83 e8 01             	sub    $0x1,%eax
    c151:	88 05 4d 10 01 00    	mov    %al,0x1104d(%rip)        # 1d1a4 <g_237+0x4>
    c157:	0f b6 05 46 10 01 00 	movzbl 0x11046(%rip),%eax        # 1d1a4 <g_237+0x4>
    c15e:	84 c0                	test   %al,%al
    c160:	0f 89 47 fd ff ff    	jns    bead <func_2+0x30b0>
    c166:	48 8b 05 fb 47 01 00 	mov    0x147fb(%rip),%rax        # 20968 <g_1948>
    c16d:	48 8b 95 08 ea ff ff 	mov    -0x15f8(%rbp),%rdx
    c174:	48 89 10             	mov    %rdx,(%rax)
    c177:	48 8b 00             	mov    (%rax),%rax
    c17a:	48 39 85 f0 ea ff ff 	cmp    %rax,-0x1510(%rbp)
    c181:	0f 95 c0             	setne  %al
    c184:	0f b6 c8             	movzbl %al,%ecx
    c187:	48 8b 85 60 e9 ff ff 	mov    -0x16a0(%rbp),%rax
    c18e:	48 8b 00             	mov    (%rax),%rax
    c191:	48 8b 00             	mov    (%rax),%rax
    c194:	48 8b 00             	mov    (%rax),%rax
    c197:	8b 10                	mov    (%rax),%edx
    c199:	48 8b 85 60 e9 ff ff 	mov    -0x16a0(%rbp),%rax
    c1a0:	48 8b 00             	mov    (%rax),%rax
    c1a3:	48 8b 00             	mov    (%rax),%rax
    c1a6:	48 8b 00             	mov    (%rax),%rax
    c1a9:	09 ca                	or     %ecx,%edx
    c1ab:	89 10                	mov    %edx,(%rax)
    c1ad:	c7 05 f9 1c 01 00 00 	movl   $0x0,0x11cf9(%rip)        # 1deb0 <g_2487+0x10>
    c1b4:	00 00 00 
    c1b7:	e9 06 02 00 00       	jmpq   c3c2 <func_2+0x35c5>
    c1bc:	c7 85 14 e9 ff ff 43 	movl   $0x2d89c043,-0x16ec(%rbp)
    c1c3:	c0 89 2d 
    c1c6:	48 8d 85 b8 e9 ff ff 	lea    -0x1648(%rbp),%rax
    c1cd:	48 89 85 08 eb ff ff 	mov    %rax,-0x14f8(%rbp)
    c1d4:	8b 95 14 e9 ff ff    	mov    -0x16ec(%rbp),%edx
    c1da:	8b 85 00 e9 ff ff    	mov    -0x1700(%rbp),%eax
    c1e0:	89 d6                	mov    %edx,%esi
    c1e2:	89 c7                	mov    %eax,%edi
    c1e4:	e8 ef bc ff ff       	callq  7ed8 <safe_add_func_uint32_t_u_u>
    c1e9:	48 8b 15 18 33 01 00 	mov    0x13318(%rip),%rdx        # 1f508 <g_101>
    c1f0:	8b 12                	mov    (%rdx),%edx
    c1f2:	09 c2                	or     %eax,%edx
    c1f4:	48 8b 05 0d 33 01 00 	mov    0x1330d(%rip),%rax        # 1f508 <g_101>
    c1fb:	89 10                	mov    %edx,(%rax)
    c1fd:	c7 05 59 16 01 00 01 	movl   $0x1,0x11659(%rip)        # 1d860 <g_1759>
    c204:	00 00 00 
    c207:	eb 47                	jmp    c250 <func_2+0x3453>
    c209:	8b 05 51 16 01 00    	mov    0x11651(%rip),%eax        # 1d860 <g_1759>
    c20f:	8d 50 01             	lea    0x1(%rax),%edx
    c212:	8b 05 48 16 01 00    	mov    0x11648(%rip),%eax        # 1d860 <g_1759>
    c218:	48 63 c8             	movslq %eax,%rcx
    c21b:	48 63 d2             	movslq %edx,%rdx
    c21e:	48 89 d0             	mov    %rdx,%rax
    c221:	48 c1 e0 02          	shl    $0x2,%rax
    c225:	48 01 d0             	add    %rdx,%rax
    c228:	48 01 c8             	add    %rcx,%rax
    c22b:	8b 84 85 30 f0 ff ff 	mov    -0xfd0(%rbp,%rax,4),%eax
    c232:	85 c0                	test   %eax,%eax
    c234:	75 27                	jne    c25d <func_2+0x3460>
    c236:	48 8b 05 73 3a 01 00 	mov    0x13a73(%rip),%rax        # 1fcb0 <g_263>
    c23d:	8b 00                	mov    (%rax),%eax
    c23f:	85 c0                	test   %eax,%eax
    c241:	8b 05 19 16 01 00    	mov    0x11619(%rip),%eax        # 1d860 <g_1759>
    c247:	83 c0 01             	add    $0x1,%eax
    c24a:	89 05 10 16 01 00    	mov    %eax,0x11610(%rip)        # 1d860 <g_1759>
    c250:	8b 05 0a 16 01 00    	mov    0x1160a(%rip),%eax        # 1d860 <g_1759>
    c256:	83 f8 04             	cmp    $0x4,%eax
    c259:	7e ae                	jle    c209 <func_2+0x340c>
    c25b:	eb 01                	jmp    c25e <func_2+0x3461>
    c25d:	90                   	nop
    c25e:	48 8b 85 e8 ea ff ff 	mov    -0x1518(%rbp),%rax
    c265:	48 8b 00             	mov    (%rax),%rax
    c268:	48 8b 00             	mov    (%rax),%rax
    c26b:	8b 00                	mov    (%rax),%eax
    c26d:	85 c0                	test   %eax,%eax
    c26f:	75 28                	jne    c299 <func_2+0x349c>
    c271:	48 8b 95 b8 e9 ff ff 	mov    -0x1648(%rbp),%rdx
    c278:	48 8b 85 08 eb ff ff 	mov    -0x14f8(%rbp),%rax
    c27f:	48 89 10             	mov    %rdx,(%rax)
    c282:	48 8b 85 08 eb ff ff 	mov    -0x14f8(%rbp),%rax
    c289:	48 8b 00             	mov    (%rax),%rax
    c28c:	48 39 85 10 ea ff ff 	cmp    %rax,-0x15f0(%rbp)
    c293:	0f 85 94 00 00 00    	jne    c32d <func_2+0x3530>
    c299:	48 8d 05 a0 3a 01 00 	lea    0x13aa0(%rip),%rax        # 1fd40 <g_597>
    c2a0:	48 89 85 20 eb ff ff 	mov    %rax,-0x14e0(%rbp)
    c2a7:	c7 85 18 e9 ff ff ff 	movl   $0xffffffff,-0x16e8(%rbp)
    c2ae:	ff ff ff 
    c2b1:	c7 85 1c e9 ff ff 24 	movl   $0x8f39d724,-0x16e4(%rbp)
    c2b8:	d7 39 8f 
    c2bb:	c7 85 20 e9 ff ff ff 	movl   $0xffffffff,-0x16e0(%rbp)
    c2c2:	ff ff ff 
    c2c5:	c7 85 f4 e8 ff ff 00 	movl   $0x0,-0x170c(%rbp)
    c2cc:	00 00 00 
    c2cf:	eb 1a                	jmp    c2eb <func_2+0x34ee>
    c2d1:	8b 85 f4 e8 ff ff    	mov    -0x170c(%rbp),%eax
    c2d7:	48 98                	cltq   
    c2d9:	c7 84 85 f0 f7 ff ff 	movl   $0xfffffffb,-0x810(%rbp,%rax,4)
    c2e0:	fb ff ff ff 
    c2e4:	83 85 f4 e8 ff ff 01 	addl   $0x1,-0x170c(%rbp)
    c2eb:	83 bd f4 e8 ff ff 00 	cmpl   $0x0,-0x170c(%rbp)
    c2f2:	7e dd                	jle    c2d1 <func_2+0x34d4>
    c2f4:	48 8b 05 15 3a 01 00 	mov    0x13a15(%rip),%rax        # 1fd10 <g_437>
    c2fb:	48 8d 95 90 ef ff ff 	lea    -0x1070(%rbp),%rdx
    c302:	48 83 c2 44          	add    $0x44,%rdx
    c306:	48 89 10             	mov    %rdx,(%rax)
    c309:	48 8b 05 38 3a 01 00 	mov    0x13a38(%rip),%rax        # 1fd48 <g_596>
    c310:	48 8b 10             	mov    (%rax),%rdx
    c313:	48 8b 85 20 eb ff ff 	mov    -0x14e0(%rbp),%rax
    c31a:	48 89 10             	mov    %rdx,(%rax)
    c31d:	83 ad 1c e9 ff ff 01 	subl   $0x1,-0x16e4(%rbp)
    c324:	83 85 bc e8 ff ff 01 	addl   $0x1,-0x1744(%rbp)
    c32b:	eb 5b                	jmp    c388 <func_2+0x358b>
    c32d:	48 c7 85 10 eb ff ff 	movq   $0x0,-0x14f0(%rbp)
    c334:	00 00 00 00 
    c338:	48 8d 85 d0 e9 ff ff 	lea    -0x1630(%rbp),%rax
    c33f:	48 89 85 10 ec ff ff 	mov    %rax,-0x13f0(%rbp)
    c346:	48 8d 85 10 ec ff ff 	lea    -0x13f0(%rbp),%rax
    c34d:	48 89 85 18 eb ff ff 	mov    %rax,-0x14e8(%rbp)
    c354:	48 8b 85 18 eb ff ff 	mov    -0x14e8(%rbp),%rax
    c35b:	48 8d 15 a6 37 01 00 	lea    0x137a6(%rip),%rdx        # 1fb08 <g_139+0x5e8>
    c362:	48 89 10             	mov    %rdx,(%rax)
    c365:	48 8b 85 18 eb ff ff 	mov    -0x14e8(%rbp),%rax
    c36c:	48 8b 10             	mov    (%rax),%rdx
    c36f:	48 8d 85 d0 e9 ff ff 	lea    -0x1630(%rbp),%rax
    c376:	48 39 c2             	cmp    %rax,%rdx
    c379:	0f 95 c2             	setne  %dl
    c37c:	48 8b 05 7d 39 01 00 	mov    0x1397d(%rip),%rax        # 1fd00 <g_434>
    c383:	0f b6 d2             	movzbl %dl,%edx
    c386:	89 10                	mov    %edx,(%rax)
    c388:	66 c7 85 90 e8 ff ff 	movw   $0x0,-0x1770(%rbp)
    c38f:	00 00 
    c391:	eb 16                	jmp    c3a9 <func_2+0x35ac>
    c393:	48 8d 05 2f 1b 01 00 	lea    0x11b2f(%rip),%rax        # 1dec9 <g_2602>
    c39a:	48 89 85 28 eb ff ff 	mov    %rax,-0x14d8(%rbp)
    c3a1:	66 83 85 90 e8 ff ff 	addw   $0x1,-0x1770(%rbp)
    c3a8:	01 
    c3a9:	66 83 bd 90 e8 ff ff 	cmpw   $0x4,-0x1770(%rbp)
    c3b0:	04 
    c3b1:	76 e0                	jbe    c393 <func_2+0x3596>
    c3b3:	8b 05 f7 1a 01 00    	mov    0x11af7(%rip),%eax        # 1deb0 <g_2487+0x10>
    c3b9:	83 c0 01             	add    $0x1,%eax
    c3bc:	89 05 ee 1a 01 00    	mov    %eax,0x11aee(%rip)        # 1deb0 <g_2487+0x10>
    c3c2:	8b 05 e8 1a 01 00    	mov    0x11ae8(%rip),%eax        # 1deb0 <g_2487+0x10>
    c3c8:	83 f8 09             	cmp    $0x9,%eax
    c3cb:	0f 86 eb fd ff ff    	jbe    c1bc <func_2+0x33bf>
    c3d1:	48 8b 85 78 e8 ff ff 	mov    -0x1788(%rbp),%rax
    c3d8:	89 c3                	mov    %eax,%ebx
    c3da:	48 8b 05 67 39 01 00 	mov    0x13967(%rip),%rax        # 1fd48 <g_596>
    c3e1:	48 8b 00             	mov    (%rax),%rax
    c3e4:	48 8b 00             	mov    (%rax),%rax
    c3e7:	48 8b 05 1a 39 01 00 	mov    0x1391a(%rip),%rax        # 1fd08 <g_433>
    c3ee:	48 8b 05 f3 38 01 00 	mov    0x138f3(%rip),%rax        # 1fce8 <g_367>
    c3f5:	0f b6 00             	movzbl (%rax),%eax
    c3f8:	48 8d 05 a1 48 01 00 	lea    0x148a1(%rip),%rax        # 20ca0 <g_2521>
    c3ff:	48 39 85 18 ea ff ff 	cmp    %rax,-0x15e8(%rbp)
    c406:	0f 95 c0             	setne  %al
    c409:	0f b6 c0             	movzbl %al,%eax
    c40c:	be 00 00 00 00       	mov    $0x0,%esi
    c411:	89 c7                	mov    %eax,%edi
    c413:	e8 54 b8 ff ff       	callq  7c6c <safe_lshift_func_uint8_t_u_u>
    c418:	0f be d0             	movsbl %al,%edx
    c41b:	8b 8d f0 eb ff ff    	mov    -0x1410(%rbp),%ecx
    c421:	48 8b 05 20 43 01 00 	mov    0x14320(%rip),%rax        # 20748 <g_1550>
    c428:	88 08                	mov    %cl,(%rax)
    c42a:	0f b6 08             	movzbl (%rax),%ecx
    c42d:	48 8b 85 70 ea ff ff 	mov    -0x1590(%rbp),%rax
    c434:	88 08                	mov    %cl,(%rax)
    c436:	48 8b 85 70 ea ff ff 	mov    -0x1590(%rbp),%rax
    c43d:	0f b6 00             	movzbl (%rax),%eax
    c440:	0f be c0             	movsbl %al,%eax
    c443:	89 d6                	mov    %edx,%esi
    c445:	89 c7                	mov    %eax,%edi
    c447:	e8 e6 ad ff ff       	callq  7232 <safe_mul_func_int8_t_s_s>
    c44c:	0f be c0             	movsbl %al,%eax
    c44f:	be 03 00 00 00       	mov    $0x3,%esi
    c454:	89 c7                	mov    %eax,%edi
    c456:	e8 ef b0 ff ff       	callq  754a <safe_rshift_func_int16_t_s_s>
    c45b:	98                   	cwtl   
    c45c:	89 c6                	mov    %eax,%esi
    c45e:	bf f7 ff ff ff       	mov    $0xfffffff7,%edi
    c463:	e8 4a b0 ff ff       	callq  74b2 <safe_lshift_func_int16_t_s_s>
    c468:	48 0f bf d0          	movswq %ax,%rdx
    c46c:	48 8b 85 c8 e9 ff ff 	mov    -0x1638(%rbp),%rax
    c473:	48 8b 00             	mov    (%rax),%rax
    c476:	8b 00                	mov    (%rax),%eax
    c478:	83 c8 01             	or     $0x1,%eax
    c47b:	48 98                	cltq   
    c47d:	48 39 c2             	cmp    %rax,%rdx
    c480:	0f 92 c0             	setb   %al
    c483:	0f b6 c0             	movzbl %al,%eax
    c486:	be 01 00 00 00       	mov    $0x1,%esi
    c48b:	89 c7                	mov    %eax,%edi
    c48d:	e8 4c b8 ff ff       	callq  7cde <safe_rshift_func_uint8_t_u_u>
    c492:	84 c0                	test   %al,%al
    c494:	75 08                	jne    c49e <func_2+0x36a1>
    c496:	48 83 bd 70 e8 ff ff 	cmpq   $0x0,-0x1790(%rbp)
    c49d:	00 
    c49e:	be 0b 00 00 00       	mov    $0xb,%esi
    c4a3:	bf 01 00 00 00       	mov    $0x1,%edi
    c4a8:	e8 ed b9 ff ff       	callq  7e9a <safe_rshift_func_uint16_t_u_u>
    c4ad:	48 8b 05 7c 38 01 00 	mov    0x1387c(%rip),%rax        # 1fd30 <g_473>
    c4b4:	48 8b 00             	mov    (%rax),%rax
    c4b7:	0f b7 00             	movzwl (%rax),%eax
    c4ba:	0f bf d0             	movswl %ax,%edx
    c4bd:	48 8b 85 70 e8 ff ff 	mov    -0x1790(%rbp),%rax
    c4c4:	98                   	cwtl   
    c4c5:	89 d6                	mov    %edx,%esi
    c4c7:	89 c7                	mov    %eax,%edi
    c4c9:	e8 a7 af ff ff       	callq  7475 <safe_div_func_int16_t_s_s>
    c4ce:	98                   	cwtl   
    c4cf:	89 de                	mov    %ebx,%esi
    c4d1:	89 c7                	mov    %eax,%edi
    c4d3:	e8 29 b0 ff ff       	callq  7501 <safe_lshift_func_int16_t_s_u>
    c4d8:	98                   	cwtl   
    c4d9:	31 85 b8 e8 ff ff    	xor    %eax,-0x1748(%rbp)
    c4df:	eb 01                	jmp    c4e2 <func_2+0x36e5>
    c4e1:	90                   	nop
    c4e2:	48 8b 85 70 e8 ff ff 	mov    -0x1790(%rbp),%rax
    c4e9:	0f be d8             	movsbl %al,%ebx
    c4ec:	48 8b 05 55 42 01 00 	mov    0x14255(%rip),%rax        # 20748 <g_1550>
    c4f3:	0f b6 00             	movzbl (%rax),%eax
    c4f6:	44 0f be e0          	movsbl %al,%r12d
    c4fa:	48 83 bd 70 e8 ff ff 	cmpq   $0x0,-0x1790(%rbp)
    c501:	00 
    c502:	74 22                	je     c526 <func_2+0x3729>
    c504:	48 83 bd 70 e8 ff ff 	cmpq   $0x0,-0x1790(%rbp)
    c50b:	00 
    c50c:	75 17                	jne    c525 <func_2+0x3728>
    c50e:	48 8b 05 2b 42 01 00 	mov    0x1422b(%rip),%rax        # 20740 <g_1279>
    c515:	48 8b 00             	mov    (%rax),%rax
    c518:	48 8b 00             	mov    (%rax),%rax
    c51b:	48 8b 00             	mov    (%rax),%rax
    c51e:	48 8b 00             	mov    (%rax),%rax
    c521:	8b 00                	mov    (%rax),%eax
    c523:	85 c0                	test   %eax,%eax
    c525:	90                   	nop
    c526:	48 8d 05 2b 44 01 00 	lea    0x1442b(%rip),%rax        # 20958 <g_1861>
    c52d:	48 89 85 d0 ec ff ff 	mov    %rax,-0x1330(%rbp)
    c534:	be ff ff ff ff       	mov    $0xffffffff,%esi
    c539:	bf 00 00 00 00       	mov    $0x0,%edi
    c53e:	e8 b1 ac ff ff       	callq  71f4 <safe_add_func_int8_t_s_s>
    c543:	0f be c0             	movsbl %al,%eax
    c546:	44 89 e6             	mov    %r12d,%esi
    c549:	89 c7                	mov    %eax,%edi
    c54b:	e8 01 ad ff ff       	callq  7251 <safe_mod_func_int8_t_s_s>
    c550:	48 0f be c0          	movsbq %al,%rax
    c554:	48 89 c6             	mov    %rax,%rsi
    c557:	bf 00 00 00 00       	mov    $0x0,%edi
    c55c:	e8 ed ba ff ff       	callq  804e <safe_add_func_uint64_t_u_u>
    c561:	48 39 85 78 e8 ff ff 	cmp    %rax,-0x1788(%rbp)
    c568:	0f 97 c2             	seta   %dl
    c56b:	48 8b 05 d6 41 01 00 	mov    0x141d6(%rip),%rax        # 20748 <g_1550>
    c572:	88 10                	mov    %dl,(%rax)
    c574:	0f b6 00             	movzbl (%rax),%eax
    c577:	0f be c0             	movsbl %al,%eax
    c57a:	89 de                	mov    %ebx,%esi
    c57c:	89 c7                	mov    %eax,%edi
    c57e:	e8 8f ac ff ff       	callq  7212 <safe_sub_func_int8_t_s_s>
    c583:	48 8b 15 7e 2f 01 00 	mov    0x12f7e(%rip),%rdx        # 1f508 <g_101>
    c58a:	8b 0a                	mov    (%rdx),%ecx
    c58c:	0f be d0             	movsbl %al,%edx
    c58f:	48 8b 05 72 2f 01 00 	mov    0x12f72(%rip),%rax        # 1f508 <g_101>
    c596:	31 ca                	xor    %ecx,%edx
    c598:	89 10                	mov    %edx,(%rax)
    c59a:	48 8b 15 97 41 01 00 	mov    0x14197(%rip),%rdx        # 20738 <g_1280>
    c5a1:	48 8b 12             	mov    (%rdx),%rdx
    c5a4:	48 8b 12             	mov    (%rdx),%rdx
    c5a7:	48 8b 12             	mov    (%rdx),%rdx
    c5aa:	8b 00                	mov    (%rax),%eax
    c5ac:	89 02                	mov    %eax,(%rdx)
    c5ae:	48 8b 85 70 e8 ff ff 	mov    -0x1790(%rbp),%rax
    c5b5:	48 8b 5d c8          	mov    -0x38(%rbp),%rbx
    c5b9:	64 48 33 1c 25 28 00 	xor    %fs:0x28,%rbx
    c5c0:	00 00 
    c5c2:	74 05                	je     c5c9 <func_2+0x37cc>
    c5c4:	e8 b7 aa ff ff       	callq  7080 <__stack_chk_fail@plt>
    c5c9:	48 81 c4 78 17 00 00 	add    $0x1778,%rsp
    c5d0:	5b                   	pop    %rbx
    c5d1:	41 5c                	pop    %r12
    c5d3:	41 5d                	pop    %r13
    c5d5:	41 5e                	pop    %r14
    c5d7:	41 5f                	pop    %r15
    c5d9:	5d                   	pop    %rbp
    c5da:	c3                   	retq   

000000000000c5db <func_22>:
    c5db:	f3 0f 1e fa          	endbr64 
    c5df:	55                   	push   %rbp
    c5e0:	48 89 e5             	mov    %rsp,%rbp
    c5e3:	41 55                	push   %r13
    c5e5:	41 54                	push   %r12
    c5e7:	53                   	push   %rbx
    c5e8:	48 81 ec 00 10 00 00 	sub    $0x1000,%rsp
    c5ef:	48 83 0c 24 00       	orq    $0x0,(%rsp)
    c5f4:	48 81 ec e8 0c 00 00 	sub    $0xce8,%rsp
    c5fb:	48 89 bd 08 e3 ff ff 	mov    %rdi,-0x1cf8(%rbp)
    c602:	64 48 8b 04 25 28 00 	mov    %fs:0x28,%rax
    c609:	00 00 
    c60b:	48 89 45 d8          	mov    %rax,-0x28(%rbp)
    c60f:	31 c0                	xor    %eax,%eax
    c611:	c7 85 a0 e6 ff ff ff 	movl   $0x417ffff,-0x1960(%rbp)
    c618:	ff 17 04 
    c61b:	c7 85 a4 e6 ff ff 04 	movl   $0xff07ff04,-0x195c(%rbp)
    c622:	ff 07 ff 
    c625:	c7 85 a8 e6 ff ff ff 	movl   $0xbefffeff,-0x1958(%rbp)
    c62c:	fe ff be 
    c62f:	c7 85 ac e6 ff ff b1 	movl   $0xff0907b1,-0x1954(%rbp)
    c636:	07 09 ff 
    c639:	c7 85 b0 e6 ff ff 28 	movl   $0x7beb128,-0x1950(%rbp)
    c640:	b1 be 07 
    c643:	c7 85 b4 e6 ff ff ff 	movl   $0xffbe73ff,-0x194c(%rbp)
    c64a:	73 be ff 
    c64d:	c7 85 b8 e6 ff ff 28 	movl   $0x6171728,-0x1948(%rbp)
    c654:	17 17 06 
    c657:	c7 85 bc e6 ff ff 09 	movl   $0x7002809,-0x1944(%rbp)
    c65e:	28 00 07 
    c661:	c7 85 c0 e6 ff ff 00 	movl   $0x8040700,-0x1940(%rbp)
    c668:	07 04 08 
    c66b:	c7 85 c4 e6 ff ff ff 	movl   $0x8ff01ff,-0x193c(%rbp)
    c672:	01 ff 08 
    c675:	c7 85 c8 e6 ff ff ff 	movl   $0x7ff07ff,-0x1938(%rbp)
    c67c:	07 ff 07 
    c67f:	c7 85 cc e6 ff ff be 	movl   $0x67328be,-0x1934(%rbp)
    c686:	28 73 06 
    c689:	c7 85 44 e3 ff ff f9 	movl   $0xfffffff9,-0x1cbc(%rbp)
    c690:	ff ff ff 
    c693:	c6 85 15 e3 ff ff f9 	movb   $0xf9,-0x1ceb(%rbp)
    c69a:	48 c7 85 d8 e3 ff ff 	movq   $0xfffffffffffffffc,-0x1c28(%rbp)
    c6a1:	fc ff ff ff 
    c6a5:	48 8d 85 b0 f2 ff ff 	lea    -0xd50(%rbp),%rax
    c6ac:	48 8d 15 2d 91 00 00 	lea    0x912d(%rip),%rdx        # 157e0 <g_427+0x788>
    c6b3:	b9 a4 01 00 00       	mov    $0x1a4,%ecx
    c6b8:	48 89 c7             	mov    %rax,%rdi
    c6bb:	48 89 d6             	mov    %rdx,%rsi
    c6be:	f3 48 a5             	rep movsq %ds:(%rsi),%es:(%rdi)
    c6c1:	66 c7 85 1a e3 ff ff 	movw   $0x2176,-0x1ce6(%rbp)
    c6c8:	76 21 
    c6ca:	48 c7 85 e0 e3 ff ff 	movq   $0x0,-0x1c20(%rbp)
    c6d1:	00 00 00 00 
    c6d5:	48 8d 05 c4 0a 01 00 	lea    0x10ac4(%rip),%rax        # 1d1a0 <g_237>
    c6dc:	48 89 85 98 e3 ff ff 	mov    %rax,-0x1c68(%rbp)
    c6e3:	48 8d 85 98 e3 ff ff 	lea    -0x1c68(%rbp),%rax
    c6ea:	48 89 85 e8 e3 ff ff 	mov    %rax,-0x1c18(%rbp)
    c6f1:	66 c7 85 1c e3 ff ff 	movw   $0x80e9,-0x1ce4(%rbp)
    c6f8:	e9 80 
    c6fa:	48 c7 85 a0 e3 ff ff 	movq   $0x0,-0x1c60(%rbp)
    c701:	00 00 00 00 
    c705:	48 8d 05 ac 09 01 00 	lea    0x109ac(%rip),%rax        # 1d0b8 <g_95+0x38>
    c70c:	48 89 85 00 e7 ff ff 	mov    %rax,-0x1900(%rbp)
    c713:	48 8d 05 9e 09 01 00 	lea    0x1099e(%rip),%rax        # 1d0b8 <g_95+0x38>
    c71a:	48 89 85 08 e7 ff ff 	mov    %rax,-0x18f8(%rbp)
    c721:	48 8d 05 80 0c 01 00 	lea    0x10c80(%rip),%rax        # 1d3a8 <g_809>
    c728:	48 89 85 10 e7 ff ff 	mov    %rax,-0x18f0(%rbp)
    c72f:	48 8d 05 82 09 01 00 	lea    0x10982(%rip),%rax        # 1d0b8 <g_95+0x38>
    c736:	48 89 85 18 e7 ff ff 	mov    %rax,-0x18e8(%rbp)
    c73d:	48 8d 05 74 09 01 00 	lea    0x10974(%rip),%rax        # 1d0b8 <g_95+0x38>
    c744:	48 89 85 20 e7 ff ff 	mov    %rax,-0x18e0(%rbp)
    c74b:	48 8d 05 56 0c 01 00 	lea    0x10c56(%rip),%rax        # 1d3a8 <g_809>
    c752:	48 89 85 28 e7 ff ff 	mov    %rax,-0x18d8(%rbp)
    c759:	48 8d 05 58 09 01 00 	lea    0x10958(%rip),%rax        # 1d0b8 <g_95+0x38>
    c760:	48 89 85 30 e7 ff ff 	mov    %rax,-0x18d0(%rbp)
    c767:	48 8d 05 4a 09 01 00 	lea    0x1094a(%rip),%rax        # 1d0b8 <g_95+0x38>
    c76e:	48 89 85 38 e7 ff ff 	mov    %rax,-0x18c8(%rbp)
    c775:	c7 85 2c e3 ff ff 69 	movl   $0x1f0d0a69,-0x1cd4(%rbp)
    c77c:	0a 0d 1f 
    c77f:	c6 85 16 e3 ff ff 41 	movb   $0x41,-0x1cea(%rbp)
    c786:	48 c7 85 f0 e3 ff ff 	movq   $0x1,-0x1c10(%rbp)
    c78d:	01 00 00 00 
    c791:	c6 85 17 e3 ff ff 00 	movb   $0x0,-0x1ce9(%rbp)
    c798:	c7 85 48 e3 ff ff 1f 	movl   $0xe4e971f,-0x1cb8(%rbp)
    c79f:	97 4e 0e 
    c7a2:	c7 85 4c e3 ff ff 01 	movl   $0x1,-0x1cb4(%rbp)
    c7a9:	00 00 00 
    c7ac:	c7 85 50 e3 ff ff c2 	movl   $0xfa6e6ec2,-0x1cb0(%rbp)
    c7b3:	6e 6e fa 
    c7b6:	48 c7 85 a8 e3 ff ff 	movq   $0x0,-0x1c58(%rbp)
    c7bd:	00 00 00 00 
    c7c1:	48 c7 85 10 e8 ff ff 	movq   $0x0,-0x17f0(%rbp)
    c7c8:	00 00 00 00 
    c7cc:	48 8d 85 90 e5 ff ff 	lea    -0x1a70(%rbp),%rax
    c7d3:	48 83 c0 08          	add    $0x8,%rax
    c7d7:	48 89 85 18 e8 ff ff 	mov    %rax,-0x17e8(%rbp)
    c7de:	48 8d 85 90 e5 ff ff 	lea    -0x1a70(%rbp),%rax
    c7e5:	48 89 85 20 e8 ff ff 	mov    %rax,-0x17e0(%rbp)
    c7ec:	48 8d 85 90 e5 ff ff 	lea    -0x1a70(%rbp),%rax
    c7f3:	48 83 c0 08          	add    $0x8,%rax
    c7f7:	48 89 85 28 e8 ff ff 	mov    %rax,-0x17d8(%rbp)
    c7fe:	48 8d 85 90 e5 ff ff 	lea    -0x1a70(%rbp),%rax
    c805:	48 83 c0 08          	add    $0x8,%rax
    c809:	48 89 85 30 e8 ff ff 	mov    %rax,-0x17d0(%rbp)
    c810:	48 c7 85 38 e8 ff ff 	movq   $0x0,-0x17c8(%rbp)
    c817:	00 00 00 00 
    c81b:	48 8d 85 90 e5 ff ff 	lea    -0x1a70(%rbp),%rax
    c822:	48 83 c0 08          	add    $0x8,%rax
    c826:	48 89 85 40 e8 ff ff 	mov    %rax,-0x17c0(%rbp)
    c82d:	48 8d 85 90 e5 ff ff 	lea    -0x1a70(%rbp),%rax
    c834:	48 83 c0 08          	add    $0x8,%rax
    c838:	48 89 85 48 e8 ff ff 	mov    %rax,-0x17b8(%rbp)
    c83f:	48 8d 85 90 e5 ff ff 	lea    -0x1a70(%rbp),%rax
    c846:	48 89 85 50 e8 ff ff 	mov    %rax,-0x17b0(%rbp)
    c84d:	48 8d 85 90 e5 ff ff 	lea    -0x1a70(%rbp),%rax
    c854:	48 89 85 58 e8 ff ff 	mov    %rax,-0x17a8(%rbp)
    c85b:	48 8d 85 90 e5 ff ff 	lea    -0x1a70(%rbp),%rax
    c862:	48 89 85 60 e8 ff ff 	mov    %rax,-0x17a0(%rbp)
    c869:	48 8d 85 90 e5 ff ff 	lea    -0x1a70(%rbp),%rax
    c870:	48 89 85 68 e8 ff ff 	mov    %rax,-0x1798(%rbp)
    c877:	48 c7 85 70 e8 ff ff 	movq   $0x0,-0x1790(%rbp)
    c87e:	00 00 00 00 
    c882:	48 8d 85 90 e5 ff ff 	lea    -0x1a70(%rbp),%rax
    c889:	48 83 c0 08          	add    $0x8,%rax
    c88d:	48 89 85 78 e8 ff ff 	mov    %rax,-0x1788(%rbp)
    c894:	48 8d 85 90 e5 ff ff 	lea    -0x1a70(%rbp),%rax
    c89b:	48 83 c0 08          	add    $0x8,%rax
    c89f:	48 89 85 80 e8 ff ff 	mov    %rax,-0x1780(%rbp)
    c8a6:	48 c7 85 88 e8 ff ff 	movq   $0x0,-0x1778(%rbp)
    c8ad:	00 00 00 00 
    c8b1:	48 8d 85 90 e5 ff ff 	lea    -0x1a70(%rbp),%rax
    c8b8:	48 89 85 90 e8 ff ff 	mov    %rax,-0x1770(%rbp)
    c8bf:	48 8d 85 90 e5 ff ff 	lea    -0x1a70(%rbp),%rax
    c8c6:	48 89 85 98 e8 ff ff 	mov    %rax,-0x1768(%rbp)
    c8cd:	48 c7 85 a0 e8 ff ff 	movq   $0x0,-0x1760(%rbp)
    c8d4:	00 00 00 00 
    c8d8:	48 8d 85 90 e5 ff ff 	lea    -0x1a70(%rbp),%rax
    c8df:	48 83 c0 08          	add    $0x8,%rax
    c8e3:	48 89 85 a8 e8 ff ff 	mov    %rax,-0x1758(%rbp)
    c8ea:	48 8d 85 90 e5 ff ff 	lea    -0x1a70(%rbp),%rax
    c8f1:	48 89 85 b0 e8 ff ff 	mov    %rax,-0x1750(%rbp)
    c8f8:	48 8d 85 90 e5 ff ff 	lea    -0x1a70(%rbp),%rax
    c8ff:	48 83 c0 08          	add    $0x8,%rax
    c903:	48 89 85 b8 e8 ff ff 	mov    %rax,-0x1748(%rbp)
    c90a:	48 8d 85 90 e5 ff ff 	lea    -0x1a70(%rbp),%rax
    c911:	48 89 85 c0 e8 ff ff 	mov    %rax,-0x1740(%rbp)
    c918:	48 8d 85 90 e5 ff ff 	lea    -0x1a70(%rbp),%rax
    c91f:	48 83 c0 08          	add    $0x8,%rax
    c923:	48 89 85 c8 e8 ff ff 	mov    %rax,-0x1738(%rbp)
    c92a:	48 8d 85 90 e5 ff ff 	lea    -0x1a70(%rbp),%rax
    c931:	48 83 c0 08          	add    $0x8,%rax
    c935:	48 89 85 d0 e8 ff ff 	mov    %rax,-0x1730(%rbp)
    c93c:	48 8d 85 90 e5 ff ff 	lea    -0x1a70(%rbp),%rax
    c943:	48 89 85 d8 e8 ff ff 	mov    %rax,-0x1728(%rbp)
    c94a:	48 8d 85 90 e5 ff ff 	lea    -0x1a70(%rbp),%rax
    c951:	48 83 c0 08          	add    $0x8,%rax
    c955:	48 89 85 e0 e8 ff ff 	mov    %rax,-0x1720(%rbp)
    c95c:	48 8d 85 90 e5 ff ff 	lea    -0x1a70(%rbp),%rax
    c963:	48 83 c0 08          	add    $0x8,%rax
    c967:	48 89 85 e8 e8 ff ff 	mov    %rax,-0x1718(%rbp)
    c96e:	48 8d 85 90 e5 ff ff 	lea    -0x1a70(%rbp),%rax
    c975:	48 83 c0 08          	add    $0x8,%rax
    c979:	48 89 85 f0 e8 ff ff 	mov    %rax,-0x1710(%rbp)
    c980:	48 8d 85 90 e5 ff ff 	lea    -0x1a70(%rbp),%rax
    c987:	48 83 c0 08          	add    $0x8,%rax
    c98b:	48 89 85 f8 e8 ff ff 	mov    %rax,-0x1708(%rbp)
    c992:	48 8d 85 90 e5 ff ff 	lea    -0x1a70(%rbp),%rax
    c999:	48 83 c0 08          	add    $0x8,%rax
    c99d:	48 89 85 00 e9 ff ff 	mov    %rax,-0x1700(%rbp)
    c9a4:	48 8d 85 90 e5 ff ff 	lea    -0x1a70(%rbp),%rax
    c9ab:	48 83 c0 08          	add    $0x8,%rax
    c9af:	48 89 85 08 e9 ff ff 	mov    %rax,-0x16f8(%rbp)
    c9b6:	48 8d 85 90 e5 ff ff 	lea    -0x1a70(%rbp),%rax
    c9bd:	48 89 85 10 e9 ff ff 	mov    %rax,-0x16f0(%rbp)
    c9c4:	48 8d 85 90 e5 ff ff 	lea    -0x1a70(%rbp),%rax
    c9cb:	48 83 c0 08          	add    $0x8,%rax
    c9cf:	48 89 85 18 e9 ff ff 	mov    %rax,-0x16e8(%rbp)
    c9d6:	48 8d 85 90 e5 ff ff 	lea    -0x1a70(%rbp),%rax
    c9dd:	48 89 85 20 e9 ff ff 	mov    %rax,-0x16e0(%rbp)
    c9e4:	48 8d 85 90 e5 ff ff 	lea    -0x1a70(%rbp),%rax
    c9eb:	48 83 c0 08          	add    $0x8,%rax
    c9ef:	48 89 85 28 e9 ff ff 	mov    %rax,-0x16d8(%rbp)
    c9f6:	48 8d 85 90 e5 ff ff 	lea    -0x1a70(%rbp),%rax
    c9fd:	48 83 c0 08          	add    $0x8,%rax
    ca01:	48 89 85 30 e9 ff ff 	mov    %rax,-0x16d0(%rbp)
    ca08:	48 8d 85 90 e5 ff ff 	lea    -0x1a70(%rbp),%rax
    ca0f:	48 89 85 38 e9 ff ff 	mov    %rax,-0x16c8(%rbp)
    ca16:	48 c7 85 40 e9 ff ff 	movq   $0x0,-0x16c0(%rbp)
    ca1d:	00 00 00 00 
    ca21:	48 8d 85 90 e5 ff ff 	lea    -0x1a70(%rbp),%rax
    ca28:	48 83 c0 08          	add    $0x8,%rax
    ca2c:	48 89 85 48 e9 ff ff 	mov    %rax,-0x16b8(%rbp)
    ca33:	48 8d 85 90 e5 ff ff 	lea    -0x1a70(%rbp),%rax
    ca3a:	48 83 c0 08          	add    $0x8,%rax
    ca3e:	48 89 85 50 e9 ff ff 	mov    %rax,-0x16b0(%rbp)
    ca45:	48 8d 85 90 e5 ff ff 	lea    -0x1a70(%rbp),%rax
    ca4c:	48 83 c0 08          	add    $0x8,%rax
    ca50:	48 89 85 58 e9 ff ff 	mov    %rax,-0x16a8(%rbp)
    ca57:	48 c7 85 60 e9 ff ff 	movq   $0x0,-0x16a0(%rbp)
    ca5e:	00 00 00 00 
    ca62:	48 8d 85 90 e5 ff ff 	lea    -0x1a70(%rbp),%rax
    ca69:	48 83 c0 08          	add    $0x8,%rax
    ca6d:	48 89 85 68 e9 ff ff 	mov    %rax,-0x1698(%rbp)
    ca74:	48 8d 85 90 e5 ff ff 	lea    -0x1a70(%rbp),%rax
    ca7b:	48 83 c0 08          	add    $0x8,%rax
    ca7f:	48 89 85 70 e9 ff ff 	mov    %rax,-0x1690(%rbp)
    ca86:	48 8d 85 90 e5 ff ff 	lea    -0x1a70(%rbp),%rax
    ca8d:	48 89 85 78 e9 ff ff 	mov    %rax,-0x1688(%rbp)
    ca94:	48 8d 85 90 e5 ff ff 	lea    -0x1a70(%rbp),%rax
    ca9b:	48 89 85 80 e9 ff ff 	mov    %rax,-0x1680(%rbp)
    caa2:	48 8d 85 90 e5 ff ff 	lea    -0x1a70(%rbp),%rax
    caa9:	48 83 c0 08          	add    $0x8,%rax
    caad:	48 89 85 88 e9 ff ff 	mov    %rax,-0x1678(%rbp)
    cab4:	48 8d 85 90 e5 ff ff 	lea    -0x1a70(%rbp),%rax
    cabb:	48 83 c0 08          	add    $0x8,%rax
    cabf:	48 89 85 90 e9 ff ff 	mov    %rax,-0x1670(%rbp)
    cac6:	48 8d 85 90 e5 ff ff 	lea    -0x1a70(%rbp),%rax
    cacd:	48 89 85 98 e9 ff ff 	mov    %rax,-0x1668(%rbp)
    cad4:	48 8d 85 90 e5 ff ff 	lea    -0x1a70(%rbp),%rax
    cadb:	48 83 c0 08          	add    $0x8,%rax
    cadf:	48 89 85 a0 e9 ff ff 	mov    %rax,-0x1660(%rbp)
    cae6:	48 8d 85 90 e5 ff ff 	lea    -0x1a70(%rbp),%rax
    caed:	48 83 c0 08          	add    $0x8,%rax
    caf1:	48 89 85 a8 e9 ff ff 	mov    %rax,-0x1658(%rbp)
    caf8:	48 8d 85 90 e5 ff ff 	lea    -0x1a70(%rbp),%rax
    caff:	48 89 85 b0 e9 ff ff 	mov    %rax,-0x1650(%rbp)
    cb06:	48 8d 85 90 e5 ff ff 	lea    -0x1a70(%rbp),%rax
    cb0d:	48 89 85 b8 e9 ff ff 	mov    %rax,-0x1648(%rbp)
    cb14:	48 8d 85 90 e5 ff ff 	lea    -0x1a70(%rbp),%rax
    cb1b:	48 83 c0 08          	add    $0x8,%rax
    cb1f:	48 89 85 c0 e9 ff ff 	mov    %rax,-0x1640(%rbp)
    cb26:	48 8d 85 90 e5 ff ff 	lea    -0x1a70(%rbp),%rax
    cb2d:	48 83 c0 08          	add    $0x8,%rax
    cb31:	48 89 85 c8 e9 ff ff 	mov    %rax,-0x1638(%rbp)
    cb38:	48 8d 85 90 e5 ff ff 	lea    -0x1a70(%rbp),%rax
    cb3f:	48 83 c0 08          	add    $0x8,%rax
    cb43:	48 89 85 d0 e9 ff ff 	mov    %rax,-0x1630(%rbp)
    cb4a:	48 8d 85 90 e5 ff ff 	lea    -0x1a70(%rbp),%rax
    cb51:	48 83 c0 08          	add    $0x8,%rax
    cb55:	48 89 85 d8 e9 ff ff 	mov    %rax,-0x1628(%rbp)
    cb5c:	48 c7 85 e0 e9 ff ff 	movq   $0x0,-0x1620(%rbp)
    cb63:	00 00 00 00 
    cb67:	48 8d 85 90 e5 ff ff 	lea    -0x1a70(%rbp),%rax
    cb6e:	48 89 85 e8 e9 ff ff 	mov    %rax,-0x1618(%rbp)
    cb75:	48 8d 85 90 e5 ff ff 	lea    -0x1a70(%rbp),%rax
    cb7c:	48 83 c0 08          	add    $0x8,%rax
    cb80:	48 89 85 f0 e9 ff ff 	mov    %rax,-0x1610(%rbp)
    cb87:	48 8d 85 90 e5 ff ff 	lea    -0x1a70(%rbp),%rax
    cb8e:	48 83 c0 08          	add    $0x8,%rax
    cb92:	48 89 85 f8 e9 ff ff 	mov    %rax,-0x1608(%rbp)
    cb99:	48 8d 85 90 e5 ff ff 	lea    -0x1a70(%rbp),%rax
    cba0:	48 89 85 00 ea ff ff 	mov    %rax,-0x1600(%rbp)
    cba7:	48 8d 85 90 e5 ff ff 	lea    -0x1a70(%rbp),%rax
    cbae:	48 83 c0 08          	add    $0x8,%rax
    cbb2:	48 89 85 08 ea ff ff 	mov    %rax,-0x15f8(%rbp)
    cbb9:	48 8d 85 90 e5 ff ff 	lea    -0x1a70(%rbp),%rax
    cbc0:	48 83 c0 08          	add    $0x8,%rax
    cbc4:	48 89 85 10 ea ff ff 	mov    %rax,-0x15f0(%rbp)
    cbcb:	48 8d 85 90 e5 ff ff 	lea    -0x1a70(%rbp),%rax
    cbd2:	48 89 85 18 ea ff ff 	mov    %rax,-0x15e8(%rbp)
    cbd9:	48 8d 85 90 e5 ff ff 	lea    -0x1a70(%rbp),%rax
    cbe0:	48 83 c0 08          	add    $0x8,%rax
    cbe4:	48 89 85 20 ea ff ff 	mov    %rax,-0x15e0(%rbp)
    cbeb:	48 c7 85 28 ea ff ff 	movq   $0x0,-0x15d8(%rbp)
    cbf2:	00 00 00 00 
    cbf6:	48 8d 85 90 e5 ff ff 	lea    -0x1a70(%rbp),%rax
    cbfd:	48 83 c0 08          	add    $0x8,%rax
    cc01:	48 89 85 30 ea ff ff 	mov    %rax,-0x15d0(%rbp)
    cc08:	48 8d 85 90 e5 ff ff 	lea    -0x1a70(%rbp),%rax
    cc0f:	48 89 85 38 ea ff ff 	mov    %rax,-0x15c8(%rbp)
    cc16:	48 8d 85 90 e5 ff ff 	lea    -0x1a70(%rbp),%rax
    cc1d:	48 83 c0 08          	add    $0x8,%rax
    cc21:	48 89 85 40 ea ff ff 	mov    %rax,-0x15c0(%rbp)
    cc28:	48 8d 85 90 e5 ff ff 	lea    -0x1a70(%rbp),%rax
    cc2f:	48 83 c0 08          	add    $0x8,%rax
    cc33:	48 89 85 48 ea ff ff 	mov    %rax,-0x15b8(%rbp)
    cc3a:	48 8d 85 90 e5 ff ff 	lea    -0x1a70(%rbp),%rax
    cc41:	48 83 c0 08          	add    $0x8,%rax
    cc45:	48 89 85 50 ea ff ff 	mov    %rax,-0x15b0(%rbp)
    cc4c:	48 8d 85 90 e5 ff ff 	lea    -0x1a70(%rbp),%rax
    cc53:	48 83 c0 08          	add    $0x8,%rax
    cc57:	48 89 85 58 ea ff ff 	mov    %rax,-0x15a8(%rbp)
    cc5e:	48 8d 85 90 e5 ff ff 	lea    -0x1a70(%rbp),%rax
    cc65:	48 83 c0 08          	add    $0x8,%rax
    cc69:	48 89 85 60 ea ff ff 	mov    %rax,-0x15a0(%rbp)
    cc70:	48 8d 85 90 e5 ff ff 	lea    -0x1a70(%rbp),%rax
    cc77:	48 83 c0 08          	add    $0x8,%rax
    cc7b:	48 89 85 68 ea ff ff 	mov    %rax,-0x1598(%rbp)
    cc82:	48 8d 85 90 e5 ff ff 	lea    -0x1a70(%rbp),%rax
    cc89:	48 83 c0 08          	add    $0x8,%rax
    cc8d:	48 89 85 70 ea ff ff 	mov    %rax,-0x1590(%rbp)
    cc94:	48 8d 85 90 e5 ff ff 	lea    -0x1a70(%rbp),%rax
    cc9b:	48 89 85 78 ea ff ff 	mov    %rax,-0x1588(%rbp)
    cca2:	48 c7 85 80 ea ff ff 	movq   $0x0,-0x1580(%rbp)
    cca9:	00 00 00 00 
    ccad:	48 8d 85 90 e5 ff ff 	lea    -0x1a70(%rbp),%rax
    ccb4:	48 83 c0 08          	add    $0x8,%rax
    ccb8:	48 89 85 88 ea ff ff 	mov    %rax,-0x1578(%rbp)
    ccbf:	48 8d 85 90 e5 ff ff 	lea    -0x1a70(%rbp),%rax
    ccc6:	48 83 c0 08          	add    $0x8,%rax
    ccca:	48 89 85 90 ea ff ff 	mov    %rax,-0x1570(%rbp)
    ccd1:	48 8d 85 90 e5 ff ff 	lea    -0x1a70(%rbp),%rax
    ccd8:	48 83 c0 08          	add    $0x8,%rax
    ccdc:	48 89 85 98 ea ff ff 	mov    %rax,-0x1568(%rbp)
    cce3:	48 8d 85 90 e5 ff ff 	lea    -0x1a70(%rbp),%rax
    ccea:	48 89 85 a0 ea ff ff 	mov    %rax,-0x1560(%rbp)
    ccf1:	48 c7 85 a8 ea ff ff 	movq   $0x0,-0x1558(%rbp)
    ccf8:	00 00 00 00 
    ccfc:	48 8d 85 90 e5 ff ff 	lea    -0x1a70(%rbp),%rax
    cd03:	48 83 c0 08          	add    $0x8,%rax
    cd07:	48 89 85 b0 ea ff ff 	mov    %rax,-0x1550(%rbp)
    cd0e:	48 8d 85 90 e5 ff ff 	lea    -0x1a70(%rbp),%rax
    cd15:	48 83 c0 08          	add    $0x8,%rax
    cd19:	48 89 85 b8 ea ff ff 	mov    %rax,-0x1548(%rbp)
    cd20:	48 8d 85 90 e5 ff ff 	lea    -0x1a70(%rbp),%rax
    cd27:	48 83 c0 08          	add    $0x8,%rax
    cd2b:	48 89 85 c0 ea ff ff 	mov    %rax,-0x1540(%rbp)
    cd32:	48 8d 85 90 e5 ff ff 	lea    -0x1a70(%rbp),%rax
    cd39:	48 83 c0 08          	add    $0x8,%rax
    cd3d:	48 89 85 c8 ea ff ff 	mov    %rax,-0x1538(%rbp)
    cd44:	48 8d 85 90 e5 ff ff 	lea    -0x1a70(%rbp),%rax
    cd4b:	48 83 c0 08          	add    $0x8,%rax
    cd4f:	48 89 85 d0 ea ff ff 	mov    %rax,-0x1530(%rbp)
    cd56:	48 8d 85 90 e5 ff ff 	lea    -0x1a70(%rbp),%rax
    cd5d:	48 83 c0 08          	add    $0x8,%rax
    cd61:	48 89 85 d8 ea ff ff 	mov    %rax,-0x1528(%rbp)
    cd68:	c7 85 54 e3 ff ff 00 	movl   $0x0,-0x1cac(%rbp)
    cd6f:	00 00 00 
    cd72:	48 b8 ba d0 fd 84 8f 	movabs $0x6439518f84fdd0ba,%rax
    cd79:	51 39 64 
    cd7c:	48 89 85 b0 e3 ff ff 	mov    %rax,-0x1c50(%rbp)
    cd83:	48 8d 05 9a 02 01 00 	lea    0x1029a(%rip),%rax        # 1d024 <g_8>
    cd8a:	48 89 85 e0 ea ff ff 	mov    %rax,-0x1520(%rbp)
    cd91:	48 8d 05 28 04 01 00 	lea    0x10428(%rip),%rax        # 1d1c0 <g_237+0x20>
    cd98:	48 89 85 e8 ea ff ff 	mov    %rax,-0x1518(%rbp)
    cd9f:	48 8d 05 3e 08 01 00 	lea    0x1083e(%rip),%rax        # 1d5e4 <g_1168+0x224>
    cda6:	48 89 85 f0 ea ff ff 	mov    %rax,-0x1510(%rbp)
    cdad:	48 8d 05 70 02 01 00 	lea    0x10270(%rip),%rax        # 1d024 <g_8>
    cdb4:	48 89 85 f8 ea ff ff 	mov    %rax,-0x1508(%rbp)
    cdbb:	48 8d 05 de 05 01 00 	lea    0x105de(%rip),%rax        # 1d3a0 <g_712+0x20>
    cdc2:	48 89 85 00 eb ff ff 	mov    %rax,-0x1500(%rbp)
    cdc9:	48 8d 05 90 02 01 00 	lea    0x10290(%rip),%rax        # 1d060 <g_93+0x20>
    cdd0:	48 89 85 08 eb ff ff 	mov    %rax,-0x14f8(%rbp)
    cdd7:	48 8d 05 82 02 01 00 	lea    0x10282(%rip),%rax        # 1d060 <g_93+0x20>
    cdde:	48 89 85 10 eb ff ff 	mov    %rax,-0x14f0(%rbp)
    cde5:	48 8d 85 b0 f2 ff ff 	lea    -0xd50(%rbp),%rax
    cdec:	48 05 00 07 00 00    	add    $0x700,%rax
    cdf2:	48 89 85 18 eb ff ff 	mov    %rax,-0x14e8(%rbp)
    cdf9:	48 8d 05 ec 07 01 00 	lea    0x107ec(%rip),%rax        # 1d5ec <g_1168+0x22c>
    ce00:	48 89 85 20 eb ff ff 	mov    %rax,-0x14e0(%rbp)
    ce07:	48 8d 05 52 05 01 00 	lea    0x10552(%rip),%rax        # 1d360 <g_658+0x20>
    ce0e:	48 89 85 28 eb ff ff 	mov    %rax,-0x14d8(%rbp)
    ce15:	48 8d 05 a4 03 01 00 	lea    0x103a4(%rip),%rax        # 1d1c0 <g_237+0x20>
    ce1c:	48 89 85 30 eb ff ff 	mov    %rax,-0x14d0(%rbp)
    ce23:	48 8d 05 36 05 01 00 	lea    0x10536(%rip),%rax        # 1d360 <g_658+0x20>
    ce2a:	48 89 85 38 eb ff ff 	mov    %rax,-0x14c8(%rbp)
    ce31:	48 8d 05 ec 01 01 00 	lea    0x101ec(%rip),%rax        # 1d024 <g_8>
    ce38:	48 89 85 40 eb ff ff 	mov    %rax,-0x14c0(%rbp)
    ce3f:	48 8d 05 a6 07 01 00 	lea    0x107a6(%rip),%rax        # 1d5ec <g_1168+0x22c>
    ce46:	48 89 85 48 eb ff ff 	mov    %rax,-0x14b8(%rbp)
    ce4d:	48 8d 05 98 07 01 00 	lea    0x10798(%rip),%rax        # 1d5ec <g_1168+0x22c>
    ce54:	48 89 85 50 eb ff ff 	mov    %rax,-0x14b0(%rbp)
    ce5b:	48 8d 05 8a 07 01 00 	lea    0x1078a(%rip),%rax        # 1d5ec <g_1168+0x22c>
    ce62:	48 89 85 58 eb ff ff 	mov    %rax,-0x14a8(%rbp)
    ce69:	48 8d 05 30 05 01 00 	lea    0x10530(%rip),%rax        # 1d3a0 <g_712+0x20>
    ce70:	48 89 85 60 eb ff ff 	mov    %rax,-0x14a0(%rbp)
    ce77:	48 8d 05 22 05 01 00 	lea    0x10522(%rip),%rax        # 1d3a0 <g_712+0x20>
    ce7e:	48 89 85 68 eb ff ff 	mov    %rax,-0x1498(%rbp)
    ce85:	48 8d 05 60 07 01 00 	lea    0x10760(%rip),%rax        # 1d5ec <g_1168+0x22c>
    ce8c:	48 89 85 70 eb ff ff 	mov    %rax,-0x1490(%rbp)
    ce93:	48 8d 05 52 07 01 00 	lea    0x10752(%rip),%rax        # 1d5ec <g_1168+0x22c>
    ce9a:	48 89 85 78 eb ff ff 	mov    %rax,-0x1488(%rbp)
    cea1:	48 8d 05 b4 07 01 00 	lea    0x107b4(%rip),%rax        # 1d65c <g_1168+0x29c>
    cea8:	48 89 85 80 eb ff ff 	mov    %rax,-0x1480(%rbp)
    ceaf:	48 8d 05 0a 03 01 00 	lea    0x1030a(%rip),%rax        # 1d1c0 <g_237+0x20>
    ceb6:	48 89 85 88 eb ff ff 	mov    %rax,-0x1478(%rbp)
    cebd:	48 8d 05 fc 02 01 00 	lea    0x102fc(%rip),%rax        # 1d1c0 <g_237+0x20>
    cec4:	48 89 85 90 eb ff ff 	mov    %rax,-0x1470(%rbp)
    cecb:	48 8d 05 8a 07 01 00 	lea    0x1078a(%rip),%rax        # 1d65c <g_1168+0x29c>
    ced2:	48 89 85 98 eb ff ff 	mov    %rax,-0x1468(%rbp)
    ced9:	48 8d 05 80 04 01 00 	lea    0x10480(%rip),%rax        # 1d360 <g_658+0x20>
    cee0:	48 89 85 a0 eb ff ff 	mov    %rax,-0x1460(%rbp)
    cee7:	48 c7 85 a8 eb ff ff 	movq   $0x0,-0x1458(%rbp)
    ceee:	00 00 00 00 
    cef2:	48 8d 05 2b 01 01 00 	lea    0x1012b(%rip),%rax        # 1d024 <g_8>
    cef9:	48 89 85 b0 eb ff ff 	mov    %rax,-0x1450(%rbp)
    cf00:	48 8d 05 b9 02 01 00 	lea    0x102b9(%rip),%rax        # 1d1c0 <g_237+0x20>
    cf07:	48 89 85 b8 eb ff ff 	mov    %rax,-0x1448(%rbp)
    cf0e:	48 c7 85 c0 eb ff ff 	movq   $0x0,-0x1440(%rbp)
    cf15:	00 00 00 00 
    cf19:	48 8d 05 04 01 01 00 	lea    0x10104(%rip),%rax        # 1d024 <g_8>
    cf20:	48 89 85 c8 eb ff ff 	mov    %rax,-0x1438(%rbp)
    cf27:	48 8d 05 32 01 01 00 	lea    0x10132(%rip),%rax        # 1d060 <g_93+0x20>
    cf2e:	48 89 85 d0 eb ff ff 	mov    %rax,-0x1430(%rbp)
    cf35:	48 c7 85 d8 eb ff ff 	movq   $0x0,-0x1428(%rbp)
    cf3c:	00 00 00 00 
    cf40:	48 8d 85 b0 f2 ff ff 	lea    -0xd50(%rbp),%rax
    cf47:	48 05 00 07 00 00    	add    $0x700,%rax
    cf4d:	48 89 85 e0 eb ff ff 	mov    %rax,-0x1420(%rbp)
    cf54:	48 8d 85 b0 f2 ff ff 	lea    -0xd50(%rbp),%rax
    cf5b:	48 05 00 07 00 00    	add    $0x700,%rax
    cf61:	48 89 85 e8 eb ff ff 	mov    %rax,-0x1418(%rbp)
    cf68:	48 8d 05 f1 00 01 00 	lea    0x100f1(%rip),%rax        # 1d060 <g_93+0x20>
    cf6f:	48 89 85 f0 eb ff ff 	mov    %rax,-0x1410(%rbp)
    cf76:	48 8d 05 6f 06 01 00 	lea    0x1066f(%rip),%rax        # 1d5ec <g_1168+0x22c>
    cf7d:	48 89 85 f8 eb ff ff 	mov    %rax,-0x1408(%rbp)
    cf84:	48 8d 05 35 02 01 00 	lea    0x10235(%rip),%rax        # 1d1c0 <g_237+0x20>
    cf8b:	48 89 85 00 ec ff ff 	mov    %rax,-0x1400(%rbp)
    cf92:	48 8d 05 8b 00 01 00 	lea    0x1008b(%rip),%rax        # 1d024 <g_8>
    cf99:	48 89 85 08 ec ff ff 	mov    %rax,-0x13f8(%rbp)
    cfa0:	48 c7 85 10 ec ff ff 	movq   $0x0,-0x13f0(%rbp)
    cfa7:	00 00 00 00 
    cfab:	48 c7 85 18 ec ff ff 	movq   $0x0,-0x13e8(%rbp)
    cfb2:	00 00 00 00 
    cfb6:	48 8d 05 a3 00 01 00 	lea    0x100a3(%rip),%rax        # 1d060 <g_93+0x20>
    cfbd:	48 89 85 20 ec ff ff 	mov    %rax,-0x13e0(%rbp)
    cfc4:	48 c7 85 28 ec ff ff 	movq   $0x0,-0x13d8(%rbp)
    cfcb:	00 00 00 00 
    cfcf:	48 8d 85 b0 f2 ff ff 	lea    -0xd50(%rbp),%rax
    cfd6:	48 05 00 07 00 00    	add    $0x700,%rax
    cfdc:	48 89 85 30 ec ff ff 	mov    %rax,-0x13d0(%rbp)
    cfe3:	48 8d 05 72 06 01 00 	lea    0x10672(%rip),%rax        # 1d65c <g_1168+0x29c>
    cfea:	48 89 85 38 ec ff ff 	mov    %rax,-0x13c8(%rbp)
    cff1:	48 8d 05 a8 03 01 00 	lea    0x103a8(%rip),%rax        # 1d3a0 <g_712+0x20>
    cff8:	48 89 85 40 ec ff ff 	mov    %rax,-0x13c0(%rbp)
    cfff:	48 8d 05 1e 00 01 00 	lea    0x1001e(%rip),%rax        # 1d024 <g_8>
    d006:	48 89 85 48 ec ff ff 	mov    %rax,-0x13b8(%rbp)
    d00d:	48 8d 05 8c 03 01 00 	lea    0x1038c(%rip),%rax        # 1d3a0 <g_712+0x20>
    d014:	48 89 85 50 ec ff ff 	mov    %rax,-0x13b0(%rbp)
    d01b:	48 c7 85 58 ec ff ff 	movq   $0x0,-0x13a8(%rbp)
    d022:	00 00 00 00 
    d026:	48 8d 05 bf 05 01 00 	lea    0x105bf(%rip),%rax        # 1d5ec <g_1168+0x22c>
    d02d:	48 89 85 60 ec ff ff 	mov    %rax,-0x13a0(%rbp)
    d034:	48 c7 85 68 ec ff ff 	movq   $0x0,-0x1398(%rbp)
    d03b:	00 00 00 00 
    d03f:	48 8d 85 b0 f2 ff ff 	lea    -0xd50(%rbp),%rax
    d046:	48 05 00 07 00 00    	add    $0x700,%rax
    d04c:	48 89 85 70 ec ff ff 	mov    %rax,-0x1390(%rbp)
    d053:	48 8d 05 06 03 01 00 	lea    0x10306(%rip),%rax        # 1d360 <g_658+0x20>
    d05a:	48 89 85 78 ec ff ff 	mov    %rax,-0x1388(%rbp)
    d061:	48 c7 85 80 ec ff ff 	movq   $0x0,-0x1380(%rbp)
    d068:	00 00 00 00 
    d06c:	48 8d 05 79 05 01 00 	lea    0x10579(%rip),%rax        # 1d5ec <g_1168+0x22c>
    d073:	48 89 85 88 ec ff ff 	mov    %rax,-0x1378(%rbp)
    d07a:	48 8d 85 b0 f2 ff ff 	lea    -0xd50(%rbp),%rax
    d081:	48 05 00 07 00 00    	add    $0x700,%rax
    d087:	48 89 85 90 ec ff ff 	mov    %rax,-0x1370(%rbp)
    d08e:	48 8d 05 0b 03 01 00 	lea    0x1030b(%rip),%rax        # 1d3a0 <g_712+0x20>
    d095:	48 89 85 98 ec ff ff 	mov    %rax,-0x1368(%rbp)
    d09c:	48 8d 05 49 05 01 00 	lea    0x10549(%rip),%rax        # 1d5ec <g_1168+0x22c>
    d0a3:	48 89 85 a0 ec ff ff 	mov    %rax,-0x1360(%rbp)
    d0aa:	48 8d 05 af 02 01 00 	lea    0x102af(%rip),%rax        # 1d360 <g_658+0x20>
    d0b1:	48 89 85 a8 ec ff ff 	mov    %rax,-0x1358(%rbp)
    d0b8:	48 8d 05 2d 05 01 00 	lea    0x1052d(%rip),%rax        # 1d5ec <g_1168+0x22c>
    d0bf:	48 89 85 b0 ec ff ff 	mov    %rax,-0x1350(%rbp)
    d0c6:	48 8d 05 d3 02 01 00 	lea    0x102d3(%rip),%rax        # 1d3a0 <g_712+0x20>
    d0cd:	48 89 85 b8 ec ff ff 	mov    %rax,-0x1348(%rbp)
    d0d4:	48 8d 85 b0 f2 ff ff 	lea    -0xd50(%rbp),%rax
    d0db:	48 05 00 07 00 00    	add    $0x700,%rax
    d0e1:	48 89 85 c0 ec ff ff 	mov    %rax,-0x1340(%rbp)
    d0e8:	48 8d 05 35 ff 00 00 	lea    0xff35(%rip),%rax        # 1d024 <g_8>
    d0ef:	48 89 85 c8 ec ff ff 	mov    %rax,-0x1338(%rbp)
    d0f6:	48 8d 05 63 ff 00 00 	lea    0xff63(%rip),%rax        # 1d060 <g_93+0x20>
    d0fd:	48 89 85 d0 ec ff ff 	mov    %rax,-0x1330(%rbp)
    d104:	48 8d 05 19 ff 00 00 	lea    0xff19(%rip),%rax        # 1d024 <g_8>
    d10b:	48 89 85 d8 ec ff ff 	mov    %rax,-0x1328(%rbp)
    d112:	48 8d 85 b0 f2 ff ff 	lea    -0xd50(%rbp),%rax
    d119:	48 05 00 07 00 00    	add    $0x700,%rax
    d11f:	48 89 85 e0 ec ff ff 	mov    %rax,-0x1320(%rbp)
    d126:	48 8d 05 93 00 01 00 	lea    0x10093(%rip),%rax        # 1d1c0 <g_237+0x20>
    d12d:	48 89 85 e8 ec ff ff 	mov    %rax,-0x1318(%rbp)
    d134:	48 8d 05 25 ff 00 00 	lea    0xff25(%rip),%rax        # 1d060 <g_93+0x20>
    d13b:	48 89 85 f0 ec ff ff 	mov    %rax,-0x1310(%rbp)
    d142:	48 8d 05 43 04 01 00 	lea    0x10443(%rip),%rax        # 1d58c <g_1168+0x1cc>
    d149:	48 89 85 f8 ec ff ff 	mov    %rax,-0x1308(%rbp)
    d150:	48 8d 85 b0 f2 ff ff 	lea    -0xd50(%rbp),%rax
    d157:	48 05 00 07 00 00    	add    $0x700,%rax
    d15d:	48 89 85 00 ed ff ff 	mov    %rax,-0x1300(%rbp)
    d164:	48 8d 05 f5 fe 00 00 	lea    0xfef5(%rip),%rax        # 1d060 <g_93+0x20>
    d16b:	48 89 85 08 ed ff ff 	mov    %rax,-0x12f8(%rbp)
    d172:	48 c7 85 10 ed ff ff 	movq   $0x0,-0x12f0(%rbp)
    d179:	00 00 00 00 
    d17d:	48 8d 05 e4 05 01 00 	lea    0x105e4(%rip),%rax        # 1d768 <g_1168+0x3a8>
    d184:	48 89 85 18 ed ff ff 	mov    %rax,-0x12e8(%rbp)
    d18b:	48 8d 05 ce fe 00 00 	lea    0xfece(%rip),%rax        # 1d060 <g_93+0x20>
    d192:	48 89 85 20 ed ff ff 	mov    %rax,-0x12e0(%rbp)
    d199:	48 8d 05 4c 04 01 00 	lea    0x1044c(%rip),%rax        # 1d5ec <g_1168+0x22c>
    d1a0:	48 89 85 28 ed ff ff 	mov    %rax,-0x12d8(%rbp)
    d1a7:	48 8d 85 b0 f2 ff ff 	lea    -0xd50(%rbp),%rax
    d1ae:	48 05 00 07 00 00    	add    $0x700,%rax
    d1b4:	48 89 85 30 ed ff ff 	mov    %rax,-0x12d0(%rbp)
    d1bb:	48 c7 85 38 ed ff ff 	movq   $0x0,-0x12c8(%rbp)
    d1c2:	00 00 00 00 
    d1c6:	48 8d 05 f3 ff 00 00 	lea    0xfff3(%rip),%rax        # 1d1c0 <g_237+0x20>
    d1cd:	48 89 85 40 ed ff ff 	mov    %rax,-0x12c0(%rbp)
    d1d4:	48 8d 05 49 fe 00 00 	lea    0xfe49(%rip),%rax        # 1d024 <g_8>
    d1db:	48 89 85 48 ed ff ff 	mov    %rax,-0x12b8(%rbp)
    d1e2:	48 8d 05 b7 01 01 00 	lea    0x101b7(%rip),%rax        # 1d3a0 <g_712+0x20>
    d1e9:	48 89 85 50 ed ff ff 	mov    %rax,-0x12b0(%rbp)
    d1f0:	48 8d 05 69 fe 00 00 	lea    0xfe69(%rip),%rax        # 1d060 <g_93+0x20>
    d1f7:	48 89 85 58 ed ff ff 	mov    %rax,-0x12a8(%rbp)
    d1fe:	48 c7 85 60 ed ff ff 	movq   $0x0,-0x12a0(%rbp)
    d205:	00 00 00 00 
    d209:	48 8d 05 dc 03 01 00 	lea    0x103dc(%rip),%rax        # 1d5ec <g_1168+0x22c>
    d210:	48 89 85 68 ed ff ff 	mov    %rax,-0x1298(%rbp)
    d217:	48 8d 05 06 fe 00 00 	lea    0xfe06(%rip),%rax        # 1d024 <g_8>
    d21e:	48 89 85 70 ed ff ff 	mov    %rax,-0x1290(%rbp)
    d225:	48 8d 05 34 01 01 00 	lea    0x10134(%rip),%rax        # 1d360 <g_658+0x20>
    d22c:	48 89 85 78 ed ff ff 	mov    %rax,-0x1288(%rbp)
    d233:	48 8d 85 b0 f2 ff ff 	lea    -0xd50(%rbp),%rax
    d23a:	48 05 00 07 00 00    	add    $0x700,%rax
    d240:	48 89 85 80 ed ff ff 	mov    %rax,-0x1280(%rbp)
    d247:	48 8d 05 d6 fd 00 00 	lea    0xfdd6(%rip),%rax        # 1d024 <g_8>
    d24e:	48 89 85 88 ed ff ff 	mov    %rax,-0x1278(%rbp)
    d255:	48 8d 05 04 01 01 00 	lea    0x10104(%rip),%rax        # 1d360 <g_658+0x20>
    d25c:	48 89 85 90 ed ff ff 	mov    %rax,-0x1270(%rbp)
    d263:	48 8d 05 fe 04 01 00 	lea    0x104fe(%rip),%rax        # 1d768 <g_1168+0x3a8>
    d26a:	48 89 85 98 ed ff ff 	mov    %rax,-0x1268(%rbp)
    d271:	48 c7 85 a0 ed ff ff 	movq   $0x0,-0x1260(%rbp)
    d278:	00 00 00 00 
    d27c:	48 8d 05 1d 01 01 00 	lea    0x1011d(%rip),%rax        # 1d3a0 <g_712+0x20>
    d283:	48 89 85 a8 ed ff ff 	mov    %rax,-0x1258(%rbp)
    d28a:	c7 85 58 e3 ff ff 00 	movl   $0x0,-0x1ca8(%rbp)
    d291:	00 00 00 
    d294:	48 8d 05 95 2a 01 00 	lea    0x12a95(%rip),%rax        # 1fd30 <g_473>
    d29b:	48 89 85 b8 e3 ff ff 	mov    %rax,-0x1c48(%rbp)
    d2a2:	48 8d 85 b8 e3 ff ff 	lea    -0x1c48(%rbp),%rax
    d2a9:	48 89 85 f8 e3 ff ff 	mov    %rax,-0x1c08(%rbp)
    d2b0:	66 c7 85 a0 e5 ff ff 	movw   $0x6,-0x1a60(%rbp)
    d2b7:	06 00 
    d2b9:	66 c7 85 a2 e5 ff ff 	movw   $0xd242,-0x1a5e(%rbp)
    d2c0:	42 d2 
    d2c2:	66 c7 85 a4 e5 ff ff 	movw   $0x6,-0x1a5c(%rbp)
    d2c9:	06 00 
    d2cb:	66 c7 85 a6 e5 ff ff 	movw   $0xd242,-0x1a5a(%rbp)
    d2d2:	42 d2 
    d2d4:	66 c7 85 a8 e5 ff ff 	movw   $0x6,-0x1a58(%rbp)
    d2db:	06 00 
    d2dd:	66 c7 85 aa e5 ff ff 	movw   $0xd242,-0x1a56(%rbp)
    d2e4:	42 d2 
    d2e6:	66 c7 85 ac e5 ff ff 	movw   $0x6,-0x1a54(%rbp)
    d2ed:	06 00 
    d2ef:	66 c7 85 ae e5 ff ff 	movw   $0xd242,-0x1a52(%rbp)
    d2f6:	42 d2 
    d2f8:	66 c7 85 b0 e5 ff ff 	movw   $0x6,-0x1a50(%rbp)
    d2ff:	06 00 
    d301:	66 c7 85 1e e3 ff ff 	movw   $0xb35a,-0x1ce2(%rbp)
    d308:	5a b3 
    d30a:	c7 85 5c e3 ff ff d7 	movl   $0x49ce12d7,-0x1ca4(%rbp)
    d311:	12 ce 49 
    d314:	66 c7 85 20 e3 ff ff 	movw   $0xfff8,-0x1ce0(%rbp)
    d31b:	f8 ff 
    d31d:	c7 85 60 e3 ff ff fe 	movl   $0xfffffffe,-0x1ca0(%rbp)
    d324:	ff ff ff 
    d327:	48 c7 85 00 e4 ff ff 	movq   $0x0,-0x1c00(%rbp)
    d32e:	00 00 00 00 
    d332:	c6 85 18 e3 ff ff a1 	movb   $0xa1,-0x1ce8(%rbp)
    d339:	66 c7 85 22 e3 ff ff 	movw   $0xfff9,-0x1cde(%rbp)
    d340:	f9 ff 
    d342:	48 b8 f6 d2 28 08 a1 	movabs $0xcb70eca10828d2f6,%rax
    d349:	ec 70 cb 
    d34c:	48 89 85 08 e4 ff ff 	mov    %rax,-0x1bf8(%rbp)
    d353:	48 c7 85 10 e4 ff ff 	movq   $0x0,-0x1bf0(%rbp)
    d35a:	00 00 00 00 
    d35e:	48 8d 85 a0 e6 ff ff 	lea    -0x1960(%rbp),%rax
    d365:	48 83 c0 14          	add    $0x14,%rax
    d369:	48 89 85 18 e4 ff ff 	mov    %rax,-0x1be8(%rbp)
    d370:	48 8d 85 d0 e6 ff ff 	lea    -0x1930(%rbp),%rax
    d377:	48 89 85 c0 e3 ff ff 	mov    %rax,-0x1c40(%rbp)
    d37e:	48 8d 85 c0 e3 ff ff 	lea    -0x1c40(%rbp),%rax
    d385:	48 89 85 20 e4 ff ff 	mov    %rax,-0x1be0(%rbp)
    d38c:	c7 85 64 e3 ff ff c2 	movl   $0x96c92c2,-0x1c9c(%rbp)
    d393:	92 6c 09 
    d396:	c7 85 68 e3 ff ff ff 	movl   $0xffffffff,-0x1c98(%rbp)
    d39d:	ff ff ff 
    d3a0:	c7 85 6c e3 ff ff 2c 	movl   $0xeee3722c,-0x1c94(%rbp)
    d3a7:	72 e3 ee 
    d3aa:	48 8d 05 73 04 01 00 	lea    0x10473(%rip),%rax        # 1d824 <g_1757+0x4>
    d3b1:	48 89 85 28 e4 ff ff 	mov    %rax,-0x1bd8(%rbp)
    d3b8:	c7 85 70 e3 ff ff 7c 	movl   $0xaa23257c,-0x1c90(%rbp)
    d3bf:	25 23 aa 
    d3c2:	66 c7 85 24 e3 ff ff 	movw   $0xffff,-0x1cdc(%rbp)
    d3c9:	ff ff 
    d3cb:	48 8d 05 76 3d 01 00 	lea    0x13d76(%rip),%rax        # 21148 <g_907>
    d3d2:	48 89 85 30 e4 ff ff 	mov    %rax,-0x1bd0(%rbp)
    d3d9:	48 8d 05 68 3d 01 00 	lea    0x13d68(%rip),%rax        # 21148 <g_907>
    d3e0:	48 89 85 38 e4 ff ff 	mov    %rax,-0x1bc8(%rbp)
    d3e7:	48 8d 05 5a 3d 01 00 	lea    0x13d5a(%rip),%rax        # 21148 <g_907>
    d3ee:	48 89 85 40 e4 ff ff 	mov    %rax,-0x1bc0(%rbp)
    d3f5:	48 8d 85 10 e8 ff ff 	lea    -0x17f0(%rbp),%rax
    d3fc:	48 05 98 02 00 00    	add    $0x298,%rax
    d402:	48 89 85 48 e4 ff ff 	mov    %rax,-0x1bb8(%rbp)
    d409:	48 8d 85 10 e8 ff ff 	lea    -0x17f0(%rbp),%rax
    d410:	48 05 f8 01 00 00    	add    $0x1f8,%rax
    d416:	48 89 85 c8 e3 ff ff 	mov    %rax,-0x1c38(%rbp)
    d41d:	48 8d 85 c8 e3 ff ff 	lea    -0x1c38(%rbp),%rax
    d424:	48 89 85 50 e4 ff ff 	mov    %rax,-0x1bb0(%rbp)
    d42b:	c7 85 20 e5 ff ff fc 	movl   $0xfffffffc,-0x1ae0(%rbp)
    d432:	ff ff ff 
    d435:	c6 85 24 e5 ff ff 3f 	movb   $0x3f,-0x1adc(%rbp)
    d43c:	48 b8 5f 1e 60 0e f9 	movabs $0x5bb0eff90e601e5f,%rax
    d443:	ef b0 5b 
    d446:	48 89 85 28 e5 ff ff 	mov    %rax,-0x1ad8(%rbp)
    d44d:	c7 85 30 e5 ff ff 6b 	movl   $0xca29116b,-0x1ad0(%rbp)
    d454:	11 29 ca 
    d457:	c6 85 34 e5 ff ff ff 	movb   $0xff,-0x1acc(%rbp)
    d45e:	c7 85 38 e5 ff ff 3f 	movl   $0x24280c3f,-0x1ac8(%rbp)
    d465:	0c 28 24 
    d468:	66 c7 85 3c e5 ff ff 	movw   $0xfff6,-0x1ac4(%rbp)
    d46f:	f6 ff 
    d471:	c7 85 40 e5 ff ff 7b 	movl   $0xe12e7b,-0x1ac0(%rbp)
    d478:	2e e1 00 
    d47b:	c6 85 44 e5 ff ff 08 	movb   $0x8,-0x1abc(%rbp)
    d482:	c6 85 45 e5 ff ff fa 	movb   $0xfa,-0x1abb(%rbp)
    d489:	48 b8 c5 4d 82 61 61 	movabs $0xd5bcf46161824dc5,%rax
    d490:	f4 bc d5 
    d493:	48 89 85 58 e4 ff ff 	mov    %rax,-0x1ba8(%rbp)
    d49a:	48 c7 85 60 e4 ff ff 	movq   $0x2,-0x1ba0(%rbp)
    d4a1:	02 00 00 00 
    d4a5:	c7 85 30 e3 ff ff 00 	movl   $0x0,-0x1cd0(%rbp)
    d4ac:	00 00 00 
    d4af:	eb 1e                	jmp    d4cf <func_22+0xef4>
    d4b1:	8b 85 30 e3 ff ff    	mov    -0x1cd0(%rbp),%eax
    d4b7:	48 98                	cltq   
    d4b9:	48 8d 15 80 3c 01 00 	lea    0x13c80(%rip),%rdx        # 21140 <g_838>
    d4c0:	48 89 94 c5 90 e5 ff 	mov    %rdx,-0x1a70(%rbp,%rax,8)
    d4c7:	ff 
    d4c8:	83 85 30 e3 ff ff 01 	addl   $0x1,-0x1cd0(%rbp)
    d4cf:	83 bd 30 e3 ff ff 01 	cmpl   $0x1,-0x1cd0(%rbp)
    d4d6:	7e d9                	jle    d4b1 <func_22+0xed6>
    d4d8:	c7 85 30 e3 ff ff 00 	movl   $0x0,-0x1cd0(%rbp)
    d4df:	00 00 00 
    d4e2:	eb 1e                	jmp    d502 <func_22+0xf27>
    d4e4:	8b 85 30 e3 ff ff    	mov    -0x1cd0(%rbp),%eax
    d4ea:	48 98                	cltq   
    d4ec:	48 8d 15 15 fd 00 00 	lea    0xfd15(%rip),%rdx        # 1d208 <g_292>
    d4f3:	48 89 94 c5 00 e6 ff 	mov    %rdx,-0x1a00(%rbp,%rax,8)
    d4fa:	ff 
    d4fb:	83 85 30 e3 ff ff 01 	addl   $0x1,-0x1cd0(%rbp)
    d502:	83 bd 30 e3 ff ff 03 	cmpl   $0x3,-0x1cd0(%rbp)
    d509:	7e d9                	jle    d4e4 <func_22+0xf09>
    d50b:	c7 85 30 e3 ff ff 00 	movl   $0x0,-0x1cd0(%rbp)
    d512:	00 00 00 
    d515:	eb 42                	jmp    d559 <func_22+0xf7e>
    d517:	c7 85 34 e3 ff ff 00 	movl   $0x0,-0x1ccc(%rbp)
    d51e:	00 00 00 
    d521:	eb 26                	jmp    d549 <func_22+0xf6e>
    d523:	8b 85 34 e3 ff ff    	mov    -0x1ccc(%rbp),%eax
    d529:	48 63 d0             	movslq %eax,%rdx
    d52c:	8b 85 30 e3 ff ff    	mov    -0x1cd0(%rbp),%eax
    d532:	48 98                	cltq   
    d534:	48 01 d0             	add    %rdx,%rax
    d537:	c7 84 85 84 e5 ff ff 	movl   $0x1,-0x1a7c(%rbp,%rax,4)
    d53e:	01 00 00 00 
    d542:	83 85 34 e3 ff ff 01 	addl   $0x1,-0x1ccc(%rbp)
    d549:	83 bd 34 e3 ff ff 00 	cmpl   $0x0,-0x1ccc(%rbp)
    d550:	7e d1                	jle    d523 <func_22+0xf48>
    d552:	83 85 30 e3 ff ff 01 	addl   $0x1,-0x1cd0(%rbp)
    d559:	83 bd 30 e3 ff ff 02 	cmpl   $0x2,-0x1cd0(%rbp)
    d560:	7e b5                	jle    d517 <func_22+0xf3c>
    d562:	c7 85 30 e3 ff ff 00 	movl   $0x0,-0x1cd0(%rbp)
    d569:	00 00 00 
    d56c:	eb 46                	jmp    d5b4 <func_22+0xfd9>
    d56e:	c7 85 34 e3 ff ff 00 	movl   $0x0,-0x1ccc(%rbp)
    d575:	00 00 00 
    d578:	eb 2a                	jmp    d5a4 <func_22+0xfc9>
    d57a:	8b 85 34 e3 ff ff    	mov    -0x1ccc(%rbp),%eax
    d580:	48 63 d0             	movslq %eax,%rdx
    d583:	8b 85 30 e3 ff ff    	mov    -0x1cd0(%rbp),%eax
    d589:	48 98                	cltq   
    d58b:	48 01 c2             	add    %rax,%rdx
    d58e:	48 8d 85 b0 e3 ff ff 	lea    -0x1c50(%rbp),%rax
    d595:	48 89 84 d5 d0 e6 ff 	mov    %rax,-0x1930(%rbp,%rdx,8)
    d59c:	ff 
    d59d:	83 85 34 e3 ff ff 01 	addl   $0x1,-0x1ccc(%rbp)
    d5a4:	83 bd 34 e3 ff ff 00 	cmpl   $0x0,-0x1ccc(%rbp)
    d5ab:	7e cd                	jle    d57a <func_22+0xf9f>
    d5ad:	83 85 30 e3 ff ff 01 	addl   $0x1,-0x1cd0(%rbp)
    d5b4:	83 bd 30 e3 ff ff 05 	cmpl   $0x5,-0x1cd0(%rbp)
    d5bb:	7e b1                	jle    d56e <func_22+0xf93>
    d5bd:	c7 85 30 e3 ff ff 00 	movl   $0x0,-0x1cd0(%rbp)
    d5c4:	00 00 00 
    d5c7:	eb 1a                	jmp    d5e3 <func_22+0x1008>
    d5c9:	8b 85 30 e3 ff ff    	mov    -0x1cd0(%rbp),%eax
    d5cf:	48 98                	cltq   
    d5d1:	c7 84 85 80 e5 ff ff 	movl   $0xffffffff,-0x1a80(%rbp,%rax,4)
    d5d8:	ff ff ff ff 
    d5dc:	83 85 30 e3 ff ff 01 	addl   $0x1,-0x1cd0(%rbp)
    d5e3:	83 bd 30 e3 ff ff 00 	cmpl   $0x0,-0x1cd0(%rbp)
    d5ea:	7e dd                	jle    d5c9 <func_22+0xfee>
    d5ec:	c7 85 30 e3 ff ff 00 	movl   $0x0,-0x1cd0(%rbp)
    d5f3:	00 00 00 
    d5f6:	eb 1b                	jmp    d613 <func_22+0x1038>
    d5f8:	8b 85 30 e3 ff ff    	mov    -0x1cd0(%rbp),%eax
    d5fe:	48 98                	cltq   
    d600:	48 c7 84 c5 70 e6 ff 	movq   $0x7,-0x1990(%rbp,%rax,8)
    d607:	ff 07 00 00 00 
    d60c:	83 85 30 e3 ff ff 01 	addl   $0x1,-0x1cd0(%rbp)
    d613:	83 bd 30 e3 ff ff 04 	cmpl   $0x4,-0x1cd0(%rbp)
    d61a:	7e dc                	jle    d5f8 <func_22+0x101d>
    d61c:	48 83 bd 08 e3 ff ff 	cmpq   $0x0,-0x1cf8(%rbp)
    d623:	00 
    d624:	0f 84 17 04 00 00    	je     da41 <func_22+0x1466>
    d62a:	c7 85 78 e3 ff ff a2 	movl   $0x7c5f65a2,-0x1c88(%rbp)
    d631:	65 5f 7c 
    d634:	c7 85 7c e3 ff ff fb 	movl   $0xfffffffb,-0x1c84(%rbp)
    d63b:	ff ff ff 
    d63e:	c6 85 19 e3 ff ff 33 	movb   $0x33,-0x1ce7(%rbp)
    d645:	48 8d 05 54 26 01 00 	lea    0x12654(%rip),%rax        # 1fca0 <g_228>
    d64c:	48 89 85 90 e4 ff ff 	mov    %rax,-0x1b70(%rbp)
    d653:	48 8d 85 a0 e3 ff ff 	lea    -0x1c60(%rbp),%rax
    d65a:	48 89 85 98 e4 ff ff 	mov    %rax,-0x1b68(%rbp)
    d661:	48 8d 05 b0 30 01 00 	lea    0x130b0(%rip),%rax        # 20718 <g_1072>
    d668:	48 89 85 a0 e4 ff ff 	mov    %rax,-0x1b60(%rbp)
    d66f:	48 8d 05 2e fd 00 00 	lea    0xfd2e(%rip),%rax        # 1d3a4 <g_712+0x24>
    d676:	48 89 85 a8 e4 ff ff 	mov    %rax,-0x1b58(%rbp)
    d67d:	c7 85 e0 e5 ff ff fe 	movl   $0xfffffffe,-0x1a20(%rbp)
    d684:	ff ff ff 
    d687:	c7 85 e4 e5 ff ff fe 	movl   $0xfffffffe,-0x1a1c(%rbp)
    d68e:	ff ff ff 
    d691:	c7 85 e8 e5 ff ff fe 	movl   $0xfffffffe,-0x1a18(%rbp)
    d698:	ff ff ff 
    d69b:	c7 85 ec e5 ff ff fe 	movl   $0xfffffffe,-0x1a14(%rbp)
    d6a2:	ff ff ff 
    d6a5:	c7 85 f0 e5 ff ff fe 	movl   $0xfffffffe,-0x1a10(%rbp)
    d6ac:	ff ff ff 
    d6af:	c7 85 f4 e5 ff ff fe 	movl   $0xfffffffe,-0x1a0c(%rbp)
    d6b6:	ff ff ff 
    d6b9:	c7 85 50 e5 ff ff 00 	movl   $0x0,-0x1ab0(%rbp)
    d6c0:	00 00 00 
    d6c3:	c6 85 54 e5 ff ff 04 	movb   $0x4,-0x1aac(%rbp)
    d6ca:	48 b8 ff e5 be a1 2a 	movabs $0x93cf7e2aa1bee5ff,%rax
    d6d1:	7e cf 93 
    d6d4:	48 89 85 58 e5 ff ff 	mov    %rax,-0x1aa8(%rbp)
    d6db:	c7 85 60 e5 ff ff a9 	movl   $0x131e80a9,-0x1aa0(%rbp)
    d6e2:	80 1e 13 
    d6e5:	c6 85 64 e5 ff ff 36 	movb   $0x36,-0x1a9c(%rbp)
    d6ec:	c7 85 68 e5 ff ff ee 	movl   $0xf04e94ee,-0x1a98(%rbp)
    d6f3:	94 4e f0 
    d6f6:	66 c7 85 6c e5 ff ff 	movw   $0x66f7,-0x1a94(%rbp)
    d6fd:	f7 66 
    d6ff:	c7 85 70 e5 ff ff 4d 	movl   $0xb3a0bb4d,-0x1a90(%rbp)
    d706:	bb a0 b3 
    d709:	c6 85 74 e5 ff ff aa 	movb   $0xaa,-0x1a8c(%rbp)
    d710:	c6 85 75 e5 ff ff 17 	movb   $0x17,-0x1a8b(%rbp)
    d717:	c7 85 80 e3 ff ff 35 	movl   $0x2e361935,-0x1c80(%rbp)
    d71e:	19 36 2e 
    d721:	48 8d 05 08 26 01 00 	lea    0x12608(%rip),%rax        # 1fd30 <g_473>
    d728:	48 89 85 b0 e4 ff ff 	mov    %rax,-0x1b50(%rbp)
    d72f:	48 8d 85 a8 e3 ff ff 	lea    -0x1c58(%rbp),%rax
    d736:	48 89 85 b8 e4 ff ff 	mov    %rax,-0x1b48(%rbp)
    d73d:	48 8d 05 cc 1d 01 00 	lea    0x11dcc(%rip),%rax        # 1f510 <g_140>
    d744:	48 89 85 c0 e4 ff ff 	mov    %rax,-0x1b40(%rbp)
    d74b:	48 8d 05 32 fc 00 00 	lea    0xfc32(%rip),%rax        # 1d384 <g_712+0x4>
    d752:	48 89 85 c8 e4 ff ff 	mov    %rax,-0x1b38(%rbp)
    d759:	48 c7 85 d0 e4 ff ff 	movq   $0x0,-0x1b30(%rbp)
    d760:	00 00 00 00 
    d764:	48 8d 85 b0 f2 ff ff 	lea    -0xd50(%rbp),%rax
    d76b:	48 05 e4 06 00 00    	add    $0x6e4,%rax
    d771:	48 89 85 d8 e4 ff ff 	mov    %rax,-0x1b28(%rbp)
    d778:	48 8d 85 10 e8 ff ff 	lea    -0x17f0(%rbp),%rax
    d77f:	48 05 88 01 00 00    	add    $0x188,%rax
    d785:	48 89 85 e0 e4 ff ff 	mov    %rax,-0x1b20(%rbp)
    d78c:	c7 85 84 e3 ff ff ff 	movl   $0xffffffff,-0x1c7c(%rbp)
    d793:	ff ff ff 
    d796:	48 8d 05 73 25 01 00 	lea    0x12573(%rip),%rax        # 1fd10 <g_437>
    d79d:	48 89 85 d0 e3 ff ff 	mov    %rax,-0x1c30(%rbp)
    d7a4:	48 8d 85 80 e7 ff ff 	lea    -0x1880(%rbp),%rax
    d7ab:	48 83 c0 08          	add    $0x8,%rax
    d7af:	48 89 85 e8 e4 ff ff 	mov    %rax,-0x1b18(%rbp)
    d7b6:	66 c7 85 26 e3 ff ff 	movw   $0x7338,-0x1cda(%rbp)
    d7bd:	38 73 
    d7bf:	66 c7 85 28 e3 ff ff 	movw   $0xffff,-0x1cd8(%rbp)
    d7c6:	ff ff 
    d7c8:	c7 85 88 e3 ff ff ff 	movl   $0xffffffff,-0x1c78(%rbp)
    d7cf:	ff ff ff 
    d7d2:	66 c7 85 2a e3 ff ff 	movw   $0xd4,-0x1cd6(%rbp)
    d7d9:	d4 00 
    d7db:	66 c7 85 40 e6 ff ff 	movw   $0x108a,-0x19c0(%rbp)
    d7e2:	8a 10 
    d7e4:	66 c7 85 42 e6 ff ff 	movw   $0x700b,-0x19be(%rbp)
    d7eb:	0b 70 
    d7ed:	66 c7 85 44 e6 ff ff 	movw   $0x8ad0,-0x19bc(%rbp)
    d7f4:	d0 8a 
    d7f6:	66 c7 85 46 e6 ff ff 	movw   $0x8ad0,-0x19ba(%rbp)
    d7fd:	d0 8a 
    d7ff:	66 c7 85 48 e6 ff ff 	movw   $0x700b,-0x19b8(%rbp)
    d806:	0b 70 
    d808:	66 c7 85 4a e6 ff ff 	movw   $0x108a,-0x19b6(%rbp)
    d80f:	8a 10 
    d811:	66 c7 85 4c e6 ff ff 	movw   $0x1,-0x19b4(%rbp)
    d818:	01 00 
    d81a:	66 c7 85 4e e6 ff ff 	movw   $0x700b,-0x19b2(%rbp)
    d821:	0b 70 
    d823:	66 c7 85 50 e6 ff ff 	movw   $0x1,-0x19b0(%rbp)
    d82a:	01 00 
    d82c:	66 c7 85 52 e6 ff ff 	movw   $0x108a,-0x19ae(%rbp)
    d833:	8a 10 
    d835:	66 c7 85 54 e6 ff ff 	movw   $0x700b,-0x19ac(%rbp)
    d83c:	0b 70 
    d83e:	66 c7 85 56 e6 ff ff 	movw   $0x8ad0,-0x19aa(%rbp)
    d845:	d0 8a 
    d847:	66 c7 85 58 e6 ff ff 	movw   $0x8ad0,-0x19a8(%rbp)
    d84e:	d0 8a 
    d850:	66 c7 85 5a e6 ff ff 	movw   $0x700b,-0x19a6(%rbp)
    d857:	0b 70 
    d859:	66 c7 85 5c e6 ff ff 	movw   $0x108a,-0x19a4(%rbp)
    d860:	8a 10 
    d862:	66 c7 85 5e e6 ff ff 	movw   $0x1,-0x19a2(%rbp)
    d869:	01 00 
    d86b:	66 c7 85 60 e6 ff ff 	movw   $0x700b,-0x19a0(%rbp)
    d872:	0b 70 
    d874:	66 c7 85 62 e6 ff ff 	movw   $0x1,-0x199e(%rbp)
    d87b:	01 00 
    d87d:	c7 85 38 e3 ff ff 00 	movl   $0x0,-0x1cc8(%rbp)
    d884:	00 00 00 
    d887:	eb 1e                	jmp    d8a7 <func_22+0x12cc>
    d889:	8b 85 38 e3 ff ff    	mov    -0x1cc8(%rbp),%eax
    d88f:	48 98                	cltq   
    d891:	48 8d 15 18 f9 00 00 	lea    0xf918(%rip),%rdx        # 1d1b0 <g_237+0x10>
    d898:	48 89 94 c5 c0 e5 ff 	mov    %rdx,-0x1a40(%rbp,%rax,8)
    d89f:	ff 
    d8a0:	83 85 38 e3 ff ff 01 	addl   $0x1,-0x1cc8(%rbp)
    d8a7:	83 bd 38 e3 ff ff 02 	cmpl   $0x2,-0x1cc8(%rbp)
    d8ae:	7e d9                	jle    d889 <func_22+0x12ae>
    d8b0:	c7 85 38 e3 ff ff 00 	movl   $0x0,-0x1cc8(%rbp)
    d8b7:	00 00 00 
    d8ba:	eb 1e                	jmp    d8da <func_22+0x12ff>
    d8bc:	8b 85 38 e3 ff ff    	mov    -0x1cc8(%rbp),%eax
    d8c2:	48 98                	cltq   
    d8c4:	48 8d 95 d0 e3 ff ff 	lea    -0x1c30(%rbp),%rdx
    d8cb:	48 89 94 c5 80 e7 ff 	mov    %rdx,-0x1880(%rbp,%rax,8)
    d8d2:	ff 
    d8d3:	83 85 38 e3 ff ff 01 	addl   $0x1,-0x1cc8(%rbp)
    d8da:	83 bd 38 e3 ff ff 08 	cmpl   $0x8,-0x1cc8(%rbp)
    d8e1:	7e d9                	jle    d8bc <func_22+0x12e1>
    d8e3:	66 c7 05 02 f8 00 00 	movw   $0xfffd,0xf802(%rip)        # 1d0ee <g_177>
    d8ea:	fd ff 
    d8ec:	e9 3a 01 00 00       	jmpq   da2b <func_22+0x1450>
    d8f1:	48 8d 05 88 fa 00 00 	lea    0xfa88(%rip),%rax        # 1d380 <g_712>
    d8f8:	48 89 85 f0 e4 ff ff 	mov    %rax,-0x1b10(%rbp)
    d8ff:	48 8d 05 3a fa 00 00 	lea    0xfa3a(%rip),%rax        # 1d340 <g_658>
    d906:	48 89 85 f8 e4 ff ff 	mov    %rax,-0x1b08(%rbp)
    d90d:	c7 85 8c e3 ff ff 09 	movl   $0x9,-0x1c74(%rbp)
    d914:	00 00 00 
    d917:	48 8d 05 aa 23 01 00 	lea    0x123aa(%rip),%rax        # 1fcc8 <g_294>
    d91e:	48 89 85 40 e7 ff ff 	mov    %rax,-0x18c0(%rbp)
    d925:	48 8d 05 9c 23 01 00 	lea    0x1239c(%rip),%rax        # 1fcc8 <g_294>
    d92c:	48 89 85 48 e7 ff ff 	mov    %rax,-0x18b8(%rbp)
    d933:	48 8d 05 8e 23 01 00 	lea    0x1238e(%rip),%rax        # 1fcc8 <g_294>
    d93a:	48 89 85 50 e7 ff ff 	mov    %rax,-0x18b0(%rbp)
    d941:	48 8d 05 80 23 01 00 	lea    0x12380(%rip),%rax        # 1fcc8 <g_294>
    d948:	48 89 85 58 e7 ff ff 	mov    %rax,-0x18a8(%rbp)
    d94f:	48 8d 05 72 23 01 00 	lea    0x12372(%rip),%rax        # 1fcc8 <g_294>
    d956:	48 89 85 60 e7 ff ff 	mov    %rax,-0x18a0(%rbp)
    d95d:	48 8d 05 64 23 01 00 	lea    0x12364(%rip),%rax        # 1fcc8 <g_294>
    d964:	48 89 85 68 e7 ff ff 	mov    %rax,-0x1898(%rbp)
    d96b:	48 8d 05 56 23 01 00 	lea    0x12356(%rip),%rax        # 1fcc8 <g_294>
    d972:	48 89 85 70 e7 ff ff 	mov    %rax,-0x1890(%rbp)
    d979:	48 8d 05 48 23 01 00 	lea    0x12348(%rip),%rax        # 1fcc8 <g_294>
    d980:	48 89 85 78 e7 ff ff 	mov    %rax,-0x1888(%rbp)
    d987:	48 8d 85 40 e7 ff ff 	lea    -0x18c0(%rbp),%rax
    d98e:	48 83 c0 28          	add    $0x28,%rax
    d992:	48 89 85 00 e5 ff ff 	mov    %rax,-0x1b00(%rbp)
    d999:	48 8d 05 70 23 01 00 	lea    0x12370(%rip),%rax        # 1fd10 <g_437>
    d9a0:	48 89 85 08 e5 ff ff 	mov    %rax,-0x1af8(%rbp)
    d9a7:	48 8d 85 b0 ed ff ff 	lea    -0x1250(%rbp),%rax
    d9ae:	48 8d 15 4b 8b 00 00 	lea    0x8b4b(%rip),%rdx        # 16500 <g_427+0x14a8>
    d9b5:	b9 28 00 00 00       	mov    $0x28,%ecx
    d9ba:	48 89 c7             	mov    %rax,%rdi
    d9bd:	48 89 d6             	mov    %rdx,%rsi
    d9c0:	f3 48 a5             	rep movsq %ds:(%rsi),%es:(%rdi)
    d9c3:	48 8d 05 76 37 01 00 	lea    0x13776(%rip),%rax        # 21140 <g_838>
    d9ca:	48 89 85 10 e5 ff ff 	mov    %rax,-0x1af0(%rbp)
    d9d1:	c7 85 90 e3 ff ff c9 	movl   $0x214615c9,-0x1c70(%rbp)
    d9d8:	15 46 21 
    d9db:	c7 85 3c e3 ff ff 00 	movl   $0x0,-0x1cc4(%rbp)
    d9e2:	00 00 00 
    d9e5:	eb 1a                	jmp    da01 <func_22+0x1426>
    d9e7:	8b 85 3c e3 ff ff    	mov    -0x1cc4(%rbp),%eax
    d9ed:	48 98                	cltq   
    d9ef:	c7 84 85 20 e6 ff ff 	movl   $0x1,-0x19e0(%rbp,%rax,4)
    d9f6:	01 00 00 00 
    d9fa:	83 85 3c e3 ff ff 01 	addl   $0x1,-0x1cc4(%rbp)
    da01:	83 bd 3c e3 ff ff 07 	cmpl   $0x7,-0x1cc4(%rbp)
    da08:	7e dd                	jle    d9e7 <func_22+0x140c>
    da0a:	0f b6 85 b4 e6 ff ff 	movzbl -0x194c(%rbp),%eax
    da11:	83 c0 01             	add    $0x1,%eax
    da14:	88 85 b4 e6 ff ff    	mov    %al,-0x194c(%rbp)
    da1a:	0f b7 05 cd f6 00 00 	movzwl 0xf6cd(%rip),%eax        # 1d0ee <g_177>
    da21:	83 c0 01             	add    $0x1,%eax
    da24:	66 89 05 c3 f6 00 00 	mov    %ax,0xf6c3(%rip)        # 1d0ee <g_177>
    da2b:	0f b7 05 bc f6 00 00 	movzwl 0xf6bc(%rip),%eax        # 1d0ee <g_177>
    da32:	66 83 f8 14          	cmp    $0x14,%ax
    da36:	0f 8f b5 fe ff ff    	jg     d8f1 <func_22+0x1316>
    da3c:	e9 1d 01 00 00       	jmpq   db5e <func_22+0x1583>
    da41:	48 c7 85 68 e4 ff ff 	movq   $0x0,-0x1b98(%rbp)
    da48:	00 00 00 00 
    da4c:	48 8d 85 b0 ed ff ff 	lea    -0x1250(%rbp),%rax
    da53:	48 8d 15 66 0c 01 00 	lea    0x10c66(%rip),%rdx        # 1e6c0 <g_2602+0x7f7>
    da5a:	b9 a0 00 00 00       	mov    $0xa0,%ecx
    da5f:	48 89 c7             	mov    %rax,%rdi
    da62:	48 89 d6             	mov    %rdx,%rsi
    da65:	f3 48 a5             	rep movsq %ds:(%rsi),%es:(%rdi)
    da68:	48 c7 85 70 e4 ff ff 	movq   $0x0,-0x1b90(%rbp)
    da6f:	00 00 00 00 
    da73:	48 8d 85 2c e3 ff ff 	lea    -0x1cd4(%rbp),%rax
    da7a:	48 89 85 78 e4 ff ff 	mov    %rax,-0x1b88(%rbp)
    da81:	c7 85 74 e3 ff ff 31 	movl   $0xf0715c31,-0x1c8c(%rbp)
    da88:	5c 71 f0 
    da8b:	48 8d 85 a0 e5 ff ff 	lea    -0x1a60(%rbp),%rax
    da92:	48 83 c0 02          	add    $0x2,%rax
    da96:	48 89 85 80 e4 ff ff 	mov    %rax,-0x1b80(%rbp)
    da9d:	48 8d 85 b0 f2 ff ff 	lea    -0xd50(%rbp),%rax
    daa4:	48 05 e4 06 00 00    	add    $0x6e4,%rax
    daaa:	48 89 85 88 e4 ff ff 	mov    %rax,-0x1b78(%rbp)
    dab1:	8b 85 74 e3 ff ff    	mov    -0x1c8c(%rbp),%eax
    dab7:	0f b6 d8             	movzbl %al,%ebx
    daba:	48 83 bd 80 e4 ff ff 	cmpq   $0x0,-0x1b80(%rbp)
    dac1:	00 
    dac2:	0f 95 c0             	setne  %al
    dac5:	44 0f b6 e0          	movzbl %al,%r12d
    dac9:	48 8b 85 78 e4 ff ff 	mov    -0x1b88(%rbp),%rax
    dad0:	c7 00 00 00 00 00    	movl   $0x0,(%rax)
    dad6:	48 8b 05 1b 2e 01 00 	mov    0x12e1b(%rip),%rax        # 208f8 <g_1779+0x138>
    dadd:	48 89 85 00 e4 ff ff 	mov    %rax,-0x1c00(%rbp)
    dae4:	48 8d 05 bd f2 00 00 	lea    0xf2bd(%rip),%rax        # 1cda8 <g_366>
    daeb:	48 39 85 00 e4 ff ff 	cmp    %rax,-0x1c00(%rbp)
    daf2:	0f 95 c0             	setne  %al
    daf5:	0f b6 c0             	movzbl %al,%eax
    daf8:	be 04 00 00 00       	mov    $0x4,%esi
    dafd:	89 c7                	mov    %eax,%edi
    daff:	e8 51 98 ff ff       	callq  7355 <safe_rshift_func_int8_t_s_s>
    db04:	48 0f be c0          	movsbq %al,%rax
    db08:	4c 89 e6             	mov    %r12,%rsi
    db0b:	48 89 c7             	mov    %rax,%rdi
    db0e:	e8 4e 9d ff ff       	callq  7861 <safe_add_func_int64_t_s_s>
    db13:	4c 8b 25 f6 21 01 00 	mov    0x121f6(%rip),%r12        # 1fd10 <g_437>
    db1a:	48 8b 95 88 e4 ff ff 	mov    -0x1b78(%rbp),%rdx
    db21:	48 8b 85 08 e3 ff ff 	mov    -0x1cf8(%rbp),%rax
    db28:	89 d9                	mov    %ebx,%ecx
    db2a:	48 89 c6             	mov    %rax,%rsi
    db2d:	48 8d 3d b7 35 01 00 	lea    0x135b7(%rip),%rdi        # 210eb <g_54+0x3>
    db34:	e8 40 07 00 00       	callq  e279 <func_32>
    db39:	49 89 04 24          	mov    %rax,(%r12)
    db3d:	8b 85 74 e3 ff ff    	mov    -0x1c8c(%rbp),%eax
    db43:	48 98                	cltq   
    db45:	48 39 85 08 e3 ff ff 	cmp    %rax,-0x1cf8(%rbp)
    db4c:	0f 95 c2             	setne  %dl
    db4f:	48 8b 05 ba 21 01 00 	mov    0x121ba(%rip),%rax        # 1fd10 <g_437>
    db56:	48 8b 00             	mov    (%rax),%rax
    db59:	0f b6 d2             	movzbl %dl,%edx
    db5c:	89 10                	mov    %edx,(%rax)
    db5e:	c6 05 2f f8 00 00 00 	movb   $0x0,0xf82f(%rip)        # 1d394 <g_712+0x14>
    db65:	e9 96 02 00 00       	jmpq   de00 <func_22+0x1825>
    db6a:	48 c7 85 80 e7 ff ff 	movq   $0xffffffffffffffff,-0x1880(%rbp)
    db71:	ff ff ff ff 
    db75:	48 c7 85 88 e7 ff ff 	movq   $0xffffffffffffffff,-0x1878(%rbp)
    db7c:	ff ff ff ff 
    db80:	48 c7 85 90 e7 ff ff 	movq   $0xfffffffffffffffe,-0x1870(%rbp)
    db87:	fe ff ff ff 
    db8b:	48 c7 85 98 e7 ff ff 	movq   $0xffffffffffffffff,-0x1868(%rbp)
    db92:	ff ff ff ff 
    db96:	48 c7 85 a0 e7 ff ff 	movq   $0xffffffffffffffff,-0x1860(%rbp)
    db9d:	ff ff ff ff 
    dba1:	48 c7 85 a8 e7 ff ff 	movq   $0xfffffffffffffffe,-0x1858(%rbp)
    dba8:	fe ff ff ff 
    dbac:	48 c7 85 b0 e7 ff ff 	movq   $0xffffffffffffffff,-0x1850(%rbp)
    dbb3:	ff ff ff ff 
    dbb7:	48 c7 85 b8 e7 ff ff 	movq   $0xffffffffffffffff,-0x1848(%rbp)
    dbbe:	ff ff ff ff 
    dbc2:	48 c7 85 c0 e7 ff ff 	movq   $0xfffffffffffffffe,-0x1840(%rbp)
    dbc9:	fe ff ff ff 
    dbcd:	48 b8 59 f2 ca d6 3e 	movabs $0x7ebd613ed6caf259,%rax
    dbd4:	61 bd 7e 
    dbd7:	48 89 85 c8 e7 ff ff 	mov    %rax,-0x1838(%rbp)
    dbde:	48 89 85 d0 e7 ff ff 	mov    %rax,-0x1830(%rbp)
    dbe5:	48 bb 26 72 cc 72 c7 	movabs $0x838890c772cc7226,%rbx
    dbec:	90 88 83 
    dbef:	48 89 9d d8 e7 ff ff 	mov    %rbx,-0x1828(%rbp)
    dbf6:	48 89 85 e0 e7 ff ff 	mov    %rax,-0x1820(%rbp)
    dbfd:	48 89 85 e8 e7 ff ff 	mov    %rax,-0x1818(%rbp)
    dc04:	48 89 9d f0 e7 ff ff 	mov    %rbx,-0x1810(%rbp)
    dc0b:	48 89 85 f8 e7 ff ff 	mov    %rax,-0x1808(%rbp)
    dc12:	48 89 85 00 e8 ff ff 	mov    %rax,-0x1800(%rbp)
    dc19:	48 89 9d 08 e8 ff ff 	mov    %rbx,-0x17f8(%rbp)
    dc20:	c7 85 94 e3 ff ff 07 	movl   $0x7,-0x1c6c(%rbp)
    dc27:	00 00 00 
    dc2a:	48 8d 05 77 20 01 00 	lea    0x12077(%rip),%rax        # 1fca8 <g_227>
    dc31:	48 89 85 18 e5 ff ff 	mov    %rax,-0x1ae8(%rbp)
    dc38:	48 8d 85 b0 ed ff ff 	lea    -0x1250(%rbp),%rax
    dc3f:	48 8d 15 fa 89 00 00 	lea    0x89fa(%rip),%rdx        # 16640 <g_427+0x15e8>
    dc46:	b9 32 00 00 00       	mov    $0x32,%ecx
    dc4b:	48 89 c7             	mov    %rax,%rdi
    dc4e:	48 89 d6             	mov    %rdx,%rsi
    dc51:	f3 48 a5             	rep movsq %ds:(%rsi),%es:(%rdi)
    dc54:	c7 85 40 e3 ff ff 00 	movl   $0x0,-0x1cc0(%rbp)
    dc5b:	00 00 00 
    dc5e:	eb 14                	jmp    dc74 <func_22+0x1699>
    dc60:	8b 85 40 e3 ff ff    	mov    -0x1cc0(%rbp),%eax
    dc66:	48 98                	cltq   
    dc68:	c6 44 05 d3 06       	movb   $0x6,-0x2d(%rbp,%rax,1)
    dc6d:	83 85 40 e3 ff ff 01 	addl   $0x1,-0x1cc0(%rbp)
    dc74:	83 bd 40 e3 ff ff 04 	cmpl   $0x4,-0x1cc0(%rbp)
    dc7b:	7e e3                	jle    dc60 <func_22+0x1685>
    dc7d:	48 8b 85 b8 e7 ff ff 	mov    -0x1848(%rbp),%rax
    dc84:	41 89 c5             	mov    %eax,%r13d
    dc87:	48 8b 85 08 e3 ff ff 	mov    -0x1cf8(%rbp),%rax
    dc8e:	0f bf d8             	movswl %ax,%ebx
    dc91:	48 8b 85 c0 e7 ff ff 	mov    -0x1840(%rbp),%rax
    dc98:	49 89 c4             	mov    %rax,%r12
    dc9b:	48 8b 85 c8 e7 ff ff 	mov    -0x1838(%rbp),%rax
    dca2:	89 c6                	mov    %eax,%esi
    dca4:	bf 00 00 00 00       	mov    $0x0,%edi
    dca9:	e8 04 98 ff ff       	callq  74b2 <safe_lshift_func_int16_t_s_s>
    dcae:	98                   	cwtl   
    dcaf:	89 c6                	mov    %eax,%esi
    dcb1:	bf f6 ff 00 00       	mov    $0xfff6,%edi
    dcb6:	e8 6b a1 ff ff       	callq  7e26 <safe_lshift_func_uint16_t_u_u>
    dcbb:	0f b7 c0             	movzwl %ax,%eax
    dcbe:	89 85 94 e3 ff ff    	mov    %eax,-0x1c6c(%rbp)
    dcc4:	48 8b 05 dd 1f 01 00 	mov    0x11fdd(%rip),%rax        # 1fca8 <g_227>
    dccb:	48 8b 00             	mov    (%rax),%rax
    dcce:	8b 95 94 e3 ff ff    	mov    -0x1c6c(%rbp),%edx
    dcd4:	48 63 d2             	movslq %edx,%rdx
    dcd7:	48 89 10             	mov    %rdx,(%rax)
    dcda:	48 8b 00             	mov    (%rax),%rax
    dcdd:	4c 89 e6             	mov    %r12,%rsi
    dce0:	48 89 c7             	mov    %rax,%rdi
    dce3:	e8 83 a3 ff ff       	callq  806b <safe_sub_func_uint64_t_u_u>
    dce8:	0f b6 45 d4          	movzbl -0x2c(%rbp),%eax
    dcec:	0f be d0             	movsbl %al,%edx
    dcef:	48 8d 05 fa 1f 01 00 	lea    0x11ffa(%rip),%rax        # 1fcf0 <g_426>
    dcf6:	48 39 85 18 e5 ff ff 	cmp    %rax,-0x1ae8(%rbp)
    dcfd:	0f 95 c0             	setne  %al
    dd00:	0f b6 c0             	movzbl %al,%eax
    dd03:	21 c2                	and    %eax,%edx
    dd05:	0f be 85 18 e3 ff ff 	movsbl -0x1ce8(%rbp),%eax
    dd0c:	39 c2                	cmp    %eax,%edx
    dd0e:	0f 9c c0             	setl   %al
    dd11:	0f b6 c0             	movzbl %al,%eax
    dd14:	be 01 00 00 00       	mov    $0x1,%esi
    dd19:	89 c7                	mov    %eax,%edi
    dd1b:	e8 d4 94 ff ff       	callq  71f4 <safe_add_func_int8_t_s_s>
    dd20:	89 c2                	mov    %eax,%edx
    dd22:	48 8b 05 df 29 01 00 	mov    0x129df(%rip),%rax        # 20708 <g_998>
    dd29:	48 8b 00             	mov    (%rax),%rax
    dd2c:	48 8b 00             	mov    (%rax),%rax
    dd2f:	0f be d2             	movsbl %dl,%edx
    dd32:	89 10                	mov    %edx,(%rax)
    dd34:	8b 00                	mov    (%rax),%eax
    dd36:	48 98                	cltq   
    dd38:	48 39 85 08 e3 ff ff 	cmp    %rax,-0x1cf8(%rbp)
    dd3f:	0f 9d c0             	setge  %al
    dd42:	0f b6 d0             	movzbl %al,%edx
    dd45:	48 8b 85 00 e8 ff ff 	mov    -0x1800(%rbp),%rax
    dd4c:	98                   	cwtl   
    dd4d:	89 d6                	mov    %edx,%esi
    dd4f:	89 c7                	mov    %eax,%edi
    dd51:	e8 9d 96 ff ff       	callq  73f3 <safe_sub_func_int16_t_s_s>
    dd56:	66 85 c0             	test   %ax,%ax
    dd59:	74 1b                	je     dd76 <func_22+0x179b>
    dd5b:	48 83 bd 08 e3 ff ff 	cmpq   $0x0,-0x1cf8(%rbp)
    dd62:	00 
    dd63:	74 11                	je     dd76 <func_22+0x179b>
    dd65:	48 83 bd 08 e3 ff ff 	cmpq   $0x0,-0x1cf8(%rbp)
    dd6c:	00 
    dd6d:	74 07                	je     dd76 <func_22+0x179b>
    dd6f:	ba 01 00 00 00       	mov    $0x1,%edx
    dd74:	eb 05                	jmp    dd7b <func_22+0x17a0>
    dd76:	ba 00 00 00 00       	mov    $0x0,%edx
    dd7b:	48 8b 85 b8 e3 ff ff 	mov    -0x1c48(%rbp),%rax
    dd82:	48 8b 00             	mov    (%rax),%rax
    dd85:	48 8b 00             	mov    (%rax),%rax
    dd88:	66 89 10             	mov    %dx,(%rax)
    dd8b:	0f b7 00             	movzwl (%rax),%eax
    dd8e:	44 0f b7 e0          	movzwl %ax,%r12d
    dd92:	48 8b 05 67 29 01 00 	mov    0x12967(%rip),%rax        # 20700 <g_984>
    dd99:	48 8b 00             	mov    (%rax),%rax
    dd9c:	48 85 c0             	test   %rax,%rax
    dd9f:	0f 95 c0             	setne  %al
    dda2:	0f b6 c0             	movzbl %al,%eax
    dda5:	be 01 00 00 00       	mov    $0x1,%esi
    ddaa:	89 c7                	mov    %eax,%edi
    ddac:	e8 ac 9f ff ff       	callq  7d5d <safe_mul_func_uint16_t_u_u>
    ddb1:	98                   	cwtl   
    ddb2:	44 89 e6             	mov    %r12d,%esi
    ddb5:	89 c7                	mov    %eax,%edi
    ddb7:	e8 c7 97 ff ff       	callq  7583 <safe_rshift_func_int16_t_s_u>
    ddbc:	98                   	cwtl   
    ddbd:	89 de                	mov    %ebx,%esi
    ddbf:	89 c7                	mov    %eax,%edi
    ddc1:	e8 70 96 ff ff       	callq  7436 <safe_mod_func_int16_t_s_s>
    ddc6:	0f bf d0             	movswl %ax,%edx
    ddc9:	0f b6 05 75 fa 00 00 	movzbl 0xfa75(%rip),%eax        # 1d845 <g_1757+0x25>
    ddd0:	0f b6 c0             	movzbl %al,%eax
    ddd3:	39 c2                	cmp    %eax,%edx
    ddd5:	0f 95 c0             	setne  %al
    ddd8:	0f b6 c0             	movzbl %al,%eax
    dddb:	44 21 e8             	and    %r13d,%eax
    ddde:	89 85 f0 ed ff ff    	mov    %eax,-0x1210(%rbp)
    dde4:	0f b6 05 a9 f5 00 00 	movzbl 0xf5a9(%rip),%eax        # 1d394 <g_712+0x14>
    ddeb:	0f b6 c0             	movzbl %al,%eax
    ddee:	be 02 00 00 00       	mov    $0x2,%esi
    ddf3:	89 c7                	mov    %eax,%edi
    ddf5:	e8 d9 95 ff ff       	callq  73d3 <safe_add_func_int16_t_s_s>
    ddfa:	88 05 94 f5 00 00    	mov    %al,0xf594(%rip)        # 1d394 <g_712+0x14>
    de00:	0f b6 05 8d f5 00 00 	movzbl 0xf58d(%rip),%eax        # 1d394 <g_712+0x14>
    de07:	3c 14                	cmp    $0x14,%al
    de09:	0f 86 5b fd ff ff    	jbe    db6a <func_22+0x158f>
    de0f:	48 8b 85 60 e4 ff ff 	mov    -0x1ba0(%rbp),%rax
    de16:	48 8b 4d d8          	mov    -0x28(%rbp),%rcx
    de1a:	64 48 33 0c 25 28 00 	xor    %fs:0x28,%rcx
    de21:	00 00 
    de23:	74 05                	je     de2a <func_22+0x184f>
    de25:	e8 56 92 ff ff       	callq  7080 <__stack_chk_fail@plt>
    de2a:	48 81 c4 e8 1c 00 00 	add    $0x1ce8,%rsp
    de31:	5b                   	pop    %rbx
    de32:	41 5c                	pop    %r12
    de34:	41 5d                	pop    %r13
    de36:	5d                   	pop    %rbp
    de37:	c3                   	retq   

000000000000de38 <func_26>:
    de38:	f3 0f 1e fa          	endbr64 
    de3c:	55                   	push   %rbp
    de3d:	48 89 e5             	mov    %rsp,%rbp
    de40:	41 55                	push   %r13
    de42:	41 54                	push   %r12
    de44:	53                   	push   %rbx
    de45:	48 81 ec a8 03 00 00 	sub    $0x3a8,%rsp
    de4c:	48 89 bd 48 fc ff ff 	mov    %rdi,-0x3b8(%rbp)
    de53:	48 89 b5 40 fc ff ff 	mov    %rsi,-0x3c0(%rbp)
    de5a:	64 48 8b 04 25 28 00 	mov    %fs:0x28,%rax
    de61:	00 00 
    de63:	48 89 45 d8          	mov    %rax,-0x28(%rbp)
    de67:	31 c0                	xor    %eax,%eax
    de69:	c7 85 5c fc ff ff 02 	movl   $0x2,-0x3a4(%rbp)
    de70:	00 00 00 
    de73:	48 8d 05 0e f4 00 00 	lea    0xf40e(%rip),%rax        # 1d288 <g_405>
    de7a:	48 89 85 90 fc ff ff 	mov    %rax,-0x370(%rbp)
    de81:	48 8d 05 00 f4 00 00 	lea    0xf400(%rip),%rax        # 1d288 <g_405>
    de88:	48 89 85 98 fc ff ff 	mov    %rax,-0x368(%rbp)
    de8f:	48 8d 05 f2 f3 00 00 	lea    0xf3f2(%rip),%rax        # 1d288 <g_405>
    de96:	48 89 85 a0 fc ff ff 	mov    %rax,-0x360(%rbp)
    de9d:	48 8d 05 e4 f3 00 00 	lea    0xf3e4(%rip),%rax        # 1d288 <g_405>
    dea4:	48 89 85 a8 fc ff ff 	mov    %rax,-0x358(%rbp)
    deab:	48 8d 05 d6 f3 00 00 	lea    0xf3d6(%rip),%rax        # 1d288 <g_405>
    deb2:	48 89 85 b0 fc ff ff 	mov    %rax,-0x350(%rbp)
    deb9:	48 8d 05 c8 f3 00 00 	lea    0xf3c8(%rip),%rax        # 1d288 <g_405>
    dec0:	48 89 85 b8 fc ff ff 	mov    %rax,-0x348(%rbp)
    dec7:	48 8d 05 ba f3 00 00 	lea    0xf3ba(%rip),%rax        # 1d288 <g_405>
    dece:	48 89 85 c0 fc ff ff 	mov    %rax,-0x340(%rbp)
    ded5:	48 8d 05 64 f1 00 00 	lea    0xf164(%rip),%rax        # 1d040 <g_93>
    dedc:	48 89 85 60 fc ff ff 	mov    %rax,-0x3a0(%rbp)
    dee3:	48 8d 05 1e 1c 01 00 	lea    0x11c1e(%rip),%rax        # 1fb08 <g_139+0x5e8>
    deea:	48 89 85 68 fc ff ff 	mov    %rax,-0x398(%rbp)
    def1:	48 8d 05 f6 f1 00 00 	lea    0xf1f6(%rip),%rax        # 1d0ee <g_177>
    def8:	48 89 85 70 fc ff ff 	mov    %rax,-0x390(%rbp)
    deff:	48 8d 05 5e f1 00 00 	lea    0xf15e(%rip),%rax        # 1d064 <g_93+0x24>
    df06:	48 89 85 10 fd ff ff 	mov    %rax,-0x2f0(%rbp)
    df0d:	48 8d 05 50 f4 00 00 	lea    0xf450(%rip),%rax        # 1d364 <g_658+0x24>
    df14:	48 89 85 18 fd ff ff 	mov    %rax,-0x2e8(%rbp)
    df1b:	48 8d 05 42 f1 00 00 	lea    0xf142(%rip),%rax        # 1d064 <g_93+0x24>
    df22:	48 89 85 20 fd ff ff 	mov    %rax,-0x2e0(%rbp)
    df29:	48 8d 05 34 f1 00 00 	lea    0xf134(%rip),%rax        # 1d064 <g_93+0x24>
    df30:	48 89 85 28 fd ff ff 	mov    %rax,-0x2d8(%rbp)
    df37:	48 8d 05 26 f4 00 00 	lea    0xf426(%rip),%rax        # 1d364 <g_658+0x24>
    df3e:	48 89 85 30 fd ff ff 	mov    %rax,-0x2d0(%rbp)
    df45:	48 8d 05 18 f1 00 00 	lea    0xf118(%rip),%rax        # 1d064 <g_93+0x24>
    df4c:	48 89 85 38 fd ff ff 	mov    %rax,-0x2c8(%rbp)
    df53:	48 8d 05 0a f1 00 00 	lea    0xf10a(%rip),%rax        # 1d064 <g_93+0x24>
    df5a:	48 89 85 40 fd ff ff 	mov    %rax,-0x2c0(%rbp)
    df61:	48 8d 05 fc f3 00 00 	lea    0xf3fc(%rip),%rax        # 1d364 <g_658+0x24>
    df68:	48 89 85 48 fd ff ff 	mov    %rax,-0x2b8(%rbp)
    df6f:	66 c7 85 56 fc ff ff 	movw   $0x85e8,-0x3aa(%rbp)
    df76:	e8 85 
    df78:	c7 85 58 fc ff ff 00 	movl   $0x0,-0x3a8(%rbp)
    df7f:	00 00 00 
    df82:	eb 1b                	jmp    df9f <func_26+0x167>
    df84:	8b 85 58 fc ff ff    	mov    -0x3a8(%rbp),%eax
    df8a:	48 98                	cltq   
    df8c:	48 c7 84 c5 d0 fc ff 	movq   $0xfffffffffffffff8,-0x330(%rbp,%rax,8)
    df93:	ff f8 ff ff ff 
    df98:	83 85 58 fc ff ff 01 	addl   $0x1,-0x3a8(%rbp)
    df9f:	83 bd 58 fc ff ff 07 	cmpl   $0x7,-0x3a8(%rbp)
    dfa6:	7e dc                	jle    df84 <func_26+0x14c>
    dfa8:	48 c7 05 75 f0 00 00 	movq   $0xffffffffffffffe9,0xf075(%rip)        # 1d028 <g_11>
    dfaf:	e9 ff ff ff 
    dfb3:	e9 04 01 00 00       	jmpq   e0bc <func_26+0x284>
    dfb8:	48 b8 fe b7 01 00 01 	movabs $0xfeb7010001b7fe,%rax
    dfbf:	b7 fe 00 
    dfc2:	48 89 85 50 fd ff ff 	mov    %rax,-0x2b0(%rbp)
    dfc9:	48 b8 01 b7 fe 00 d6 	movabs $0xfe00d6d600feb701,%rax
    dfd0:	d6 00 fe 
    dfd3:	48 89 85 58 fd ff ff 	mov    %rax,-0x2a8(%rbp)
    dfda:	48 b8 1c 1c b7 01 d6 	movabs $0x100d601b71c1c,%rax
    dfe1:	00 01 00 
    dfe4:	48 89 85 60 fd ff ff 	mov    %rax,-0x2a0(%rbp)
    dfeb:	48 b8 01 fe 01 fe 01 	movabs $0x1c8c01fe01fe01,%rax
    dff2:	8c 1c 00 
    dff5:	48 89 85 68 fd ff ff 	mov    %rax,-0x298(%rbp)
    dffc:	48 b8 fe d6 01 01 01 	movabs $0xfed601010101d6fe,%rax
    e003:	01 d6 fe 
    e006:	48 89 85 70 fd ff ff 	mov    %rax,-0x290(%rbp)
    e00d:	48 b8 b7 8c 01 00 1c 	movabs $0x1c011c00018cb7,%rax
    e014:	01 1c 00 
    e017:	48 89 85 78 fd ff ff 	mov    %rax,-0x288(%rbp)
    e01e:	48 b8 01 8b 8c fe d6 	movabs $0x10101d6fe8c8b01,%rax
    e025:	01 01 01 
    e028:	48 89 85 80 fd ff ff 	mov    %rax,-0x280(%rbp)
    e02f:	48 b8 01 b7 1c 1c b7 	movabs $0xd601b71c1cb701,%rax
    e036:	01 d6 00 
    e039:	48 89 85 88 fd ff ff 	mov    %rax,-0x278(%rbp)
    e040:	48 b8 01 01 8b b7 d6 	movabs $0x18bb7d6b78b0101,%rax
    e047:	b7 8b 01 
    e04a:	48 89 85 90 fd ff ff 	mov    %rax,-0x270(%rbp)
    e051:	48 8d 05 50 f3 00 00 	lea    0xf350(%rip),%rax        # 1d3a8 <g_809>
    e058:	48 89 85 78 fc ff ff 	mov    %rax,-0x388(%rbp)
    e05f:	48 8d 85 a0 fd ff ff 	lea    -0x260(%rbp),%rax
    e066:	48 8d 15 73 87 00 00 	lea    0x8773(%rip),%rdx        # 167e0 <g_427+0x1788>
    e06d:	b9 46 00 00 00       	mov    $0x46,%ecx
    e072:	48 89 c7             	mov    %rax,%rdi
    e075:	48 89 d6             	mov    %rdx,%rsi
    e078:	f3 48 a5             	rep movsq %ds:(%rsi),%es:(%rdi)
    e07b:	48 8d 85 d0 fc ff ff 	lea    -0x330(%rbp),%rax
    e082:	48 83 c0 08          	add    $0x8,%rax
    e086:	48 89 85 80 fc ff ff 	mov    %rax,-0x380(%rbp)
    e08d:	48 8d 05 a4 30 01 00 	lea    0x130a4(%rip),%rax        # 21138 <g_814>
    e094:	48 89 85 88 fc ff ff 	mov    %rax,-0x378(%rbp)
    e09b:	48 8b 05 86 ef 00 00 	mov    0xef86(%rip),%rax        # 1d028 <g_11>
    e0a2:	0f be c0             	movsbl %al,%eax
    e0a5:	be 01 00 00 00       	mov    $0x1,%esi
    e0aa:	89 c7                	mov    %eax,%edi
    e0ac:	e8 43 91 ff ff       	callq  71f4 <safe_add_func_int8_t_s_s>
    e0b1:	48 0f be c0          	movsbq %al,%rax
    e0b5:	48 89 05 6c ef 00 00 	mov    %rax,0xef6c(%rip)        # 1d028 <g_11>
    e0bc:	48 8b 05 65 ef 00 00 	mov    0xef65(%rip),%rax        # 1d028 <g_11>
    e0c3:	48 83 f8 0d          	cmp    $0xd,%rax
    e0c7:	0f 85 eb fe ff ff    	jne    dfb8 <func_26+0x180>
    e0cd:	48 8b 85 60 fc ff ff 	mov    -0x3a0(%rbp),%rax
    e0d4:	8b 00                	mov    (%rax),%eax
    e0d6:	89 c2                	mov    %eax,%edx
    e0d8:	48 8b 85 60 fc ff ff 	mov    -0x3a0(%rbp),%rax
    e0df:	8b 00                	mov    (%rax),%eax
    e0e1:	89 d6                	mov    %edx,%esi
    e0e3:	89 c7                	mov    %eax,%edi
    e0e5:	e8 5b 9e ff ff       	callq  7f45 <safe_div_func_uint32_t_u_u>
    e0ea:	48 8b 85 60 fc ff ff 	mov    -0x3a0(%rbp),%rax
    e0f1:	8b 00                	mov    (%rax),%eax
    e0f3:	41 89 c5             	mov    %eax,%r13d
    e0f6:	48 8b 85 60 fc ff ff 	mov    -0x3a0(%rbp),%rax
    e0fd:	8b 00                	mov    (%rax),%eax
    e0ff:	0f bf d8             	movswl %ax,%ebx
    e102:	8b 05 58 f2 00 00    	mov    0xf258(%rip),%eax        # 1d360 <g_658+0x20>
    e108:	44 0f b6 e0          	movzbl %al,%r12d
    e10c:	48 8b 85 60 fc ff ff 	mov    -0x3a0(%rbp),%rax
    e113:	8b 00                	mov    (%rax),%eax
    e115:	0f b7 c0             	movzwl %ax,%eax
    e118:	89 c6                	mov    %eax,%esi
    e11a:	bf 00 00 00 00       	mov    $0x0,%edi
    e11f:	e8 39 9c ff ff       	callq  7d5d <safe_mul_func_uint16_t_u_u>
    e124:	0f b7 c0             	movzwl %ax,%eax
    e127:	48 ba bd 74 0f b5 2e 	movabs $0x7a6edc2eb50f74bd,%rdx
    e12e:	dc 6e 7a 
    e131:	48 09 c2             	or     %rax,%rdx
    e134:	0f b6 05 49 f2 00 00 	movzbl 0xf249(%rip),%eax        # 1d384 <g_712+0x4>
    e13b:	48 0f be c0          	movsbq %al,%rax
    e13f:	48 39 c2             	cmp    %rax,%rdx
    e142:	0f 9f c0             	setg   %al
    e145:	0f b6 c0             	movzbl %al,%eax
    e148:	44 89 e6             	mov    %r12d,%esi
    e14b:	89 c7                	mov    %eax,%edi
    e14d:	e8 28 9a ff ff       	callq  7b7a <safe_add_func_uint8_t_u_u>
    e152:	0f b6 c0             	movzbl %al,%eax
    e155:	89 de                	mov    %ebx,%esi
    e157:	89 c7                	mov    %eax,%edi
    e159:	e8 95 92 ff ff       	callq  73f3 <safe_sub_func_int16_t_s_s>
    e15e:	be 05 00 00 00       	mov    $0x5,%esi
    e163:	bf 00 00 00 00       	mov    $0x0,%edi
    e168:	e8 b9 9c ff ff       	callq  7e26 <safe_lshift_func_uint16_t_u_u>
    e16d:	0f be d0             	movsbl %al,%edx
    e170:	48 8b 85 60 fc ff ff 	mov    -0x3a0(%rbp),%rax
    e177:	8b 00                	mov    (%rax),%eax
    e179:	0f be c0             	movsbl %al,%eax
    e17c:	89 d6                	mov    %edx,%esi
    e17e:	89 c7                	mov    %eax,%edi
    e180:	e8 ad 90 ff ff       	callq  7232 <safe_mul_func_int8_t_s_s>
    e185:	0f be c0             	movsbl %al,%eax
    e188:	89 c7                	mov    %eax,%edi
    e18a:	e8 50 90 ff ff       	callq  71df <safe_unary_minus_func_int8_t_s>
    e18f:	48 8b 85 60 fc ff ff 	mov    -0x3a0(%rbp),%rax
    e196:	8b 00                	mov    (%rax),%eax
    e198:	44 89 ee             	mov    %r13d,%esi
    e19b:	89 c7                	mov    %eax,%edi
    e19d:	e8 36 9d ff ff       	callq  7ed8 <safe_add_func_uint32_t_u_u>
    e1a2:	89 c2                	mov    %eax,%edx
    e1a4:	48 8b 05 7d 1b 01 00 	mov    0x11b7d(%rip),%rax        # 1fd28 <g_474>
    e1ab:	66 89 10             	mov    %dx,(%rax)
    e1ae:	0f b7 00             	movzwl (%rax),%eax
    e1b1:	98                   	cwtl   
    e1b2:	89 c6                	mov    %eax,%esi
    e1b4:	bf 01 00 00 00       	mov    $0x1,%edi
    e1b9:	e8 57 92 ff ff       	callq  7415 <safe_mul_func_int16_t_s_s>
    e1be:	48 8b 85 60 fc ff ff 	mov    -0x3a0(%rbp),%rax
    e1c5:	8b 00                	mov    (%rax),%eax
    e1c7:	89 c2                	mov    %eax,%edx
    e1c9:	48 8b 85 70 fc ff ff 	mov    -0x390(%rbp),%rax
    e1d0:	66 89 10             	mov    %dx,(%rax)
    e1d3:	48 8b 85 70 fc ff ff 	mov    -0x390(%rbp),%rax
    e1da:	0f b7 00             	movzwl (%rax),%eax
    e1dd:	0f bf d0             	movswl %ax,%edx
    e1e0:	48 8b 85 60 fc ff ff 	mov    -0x3a0(%rbp),%rax
    e1e7:	8b 00                	mov    (%rax),%eax
    e1e9:	89 d1                	mov    %edx,%ecx
    e1eb:	31 c1                	xor    %eax,%ecx
    e1ed:	0f b6 05 d0 ef 00 00 	movzbl 0xefd0(%rip),%eax        # 1d1c4 <g_237+0x24>
    e1f4:	89 c2                	mov    %eax,%edx
    e1f6:	89 c8                	mov    %ecx,%eax
    e1f8:	21 d0                	and    %edx,%eax
    e1fa:	88 05 c4 ef 00 00    	mov    %al,0xefc4(%rip)        # 1d1c4 <g_237+0x24>
    e200:	0f b6 05 bd ef 00 00 	movzbl 0xefbd(%rip),%eax        # 1d1c4 <g_237+0x24>
    e207:	84 c0                	test   %al,%al
    e209:	75 0c                	jne    e217 <func_26+0x3df>
    e20b:	48 8b 05 d6 1a 01 00 	mov    0x11ad6(%rip),%rax        # 1fce8 <g_367>
    e212:	0f b6 00             	movzbl (%rax),%eax
    e215:	84 c0                	test   %al,%al
    e217:	48 8b 05 f2 12 01 00 	mov    0x112f2(%rip),%rax        # 1f510 <g_140>
    e21e:	8b 00                	mov    (%rax),%eax
    e220:	48 8b 95 60 fc ff ff 	mov    -0x3a0(%rbp),%rdx
    e227:	8b 12                	mov    (%rdx),%edx
    e229:	89 c6                	mov    %eax,%esi
    e22b:	89 d7                	mov    %edx,%edi
    e22d:	e8 be 9c ff ff       	callq  7ef0 <safe_sub_func_uint32_t_u_u>
    e232:	48 8b 85 60 fc ff ff 	mov    -0x3a0(%rbp),%rax
    e239:	8b 00                	mov    (%rax),%eax
    e23b:	f7 d0                	not    %eax
    e23d:	c1 e8 1f             	shr    $0x1f,%eax
    e240:	0f b6 c0             	movzbl %al,%eax
    e243:	66 89 85 56 fc ff ff 	mov    %ax,-0x3aa(%rbp)
    e24a:	48 8d 05 97 1a 01 00 	lea    0x11a97(%rip),%rax        # 1fce8 <g_367>
    e251:	48 8b 00             	mov    (%rax),%rax
    e254:	0f b6 00             	movzbl (%rax),%eax
    e257:	48 8b 5d d8          	mov    -0x28(%rbp),%rbx
    e25b:	64 48 33 1c 25 28 00 	xor    %fs:0x28,%rbx
    e262:	00 00 
    e264:	74 05                	je     e26b <func_26+0x433>
    e266:	e8 15 8e ff ff       	callq  7080 <__stack_chk_fail@plt>
    e26b:	48 81 c4 a8 03 00 00 	add    $0x3a8,%rsp
    e272:	5b                   	pop    %rbx
    e273:	41 5c                	pop    %r12
    e275:	41 5d                	pop    %r13
    e277:	5d                   	pop    %rbp
    e278:	c3                   	retq   

000000000000e279 <func_32>:
    e279:	f3 0f 1e fa          	endbr64 
    e27d:	55                   	push   %rbp
    e27e:	48 89 e5             	mov    %rsp,%rbp
    e281:	48 89 7d e8          	mov    %rdi,-0x18(%rbp)
    e285:	48 89 75 e0          	mov    %rsi,-0x20(%rbp)
    e289:	48 89 55 d8          	mov    %rdx,-0x28(%rbp)
    e28d:	89 c8                	mov    %ecx,%eax
    e28f:	88 45 d4             	mov    %al,-0x2c(%rbp)
    e292:	48 8d 05 a7 f0 00 00 	lea    0xf0a7(%rip),%rax        # 1d340 <g_658>
    e299:	48 89 45 f8          	mov    %rax,-0x8(%rbp)
    e29d:	48 8b 05 5c 1a 01 00 	mov    0x11a5c(%rip),%rax        # 1fd00 <g_434>
    e2a4:	c7 00 e8 22 00 e0    	movl   $0xe00022e8,(%rax)
    e2aa:	48 8b 45 f8          	mov    -0x8(%rbp),%rax
    e2ae:	5d                   	pop    %rbp
    e2af:	c3                   	retq   

000000000000e2b0 <func_37>:
    e2b0:	f3 0f 1e fa          	endbr64 
    e2b4:	55                   	push   %rbp
    e2b5:	48 89 e5             	mov    %rsp,%rbp
    e2b8:	41 54                	push   %r12
    e2ba:	53                   	push   %rbx
    e2bb:	48 81 ec 00 05 00 00 	sub    $0x500,%rsp
    e2c2:	89 bd fc fa ff ff    	mov    %edi,-0x504(%rbp)
    e2c8:	89 f0                	mov    %esi,%eax
    e2ca:	66 89 85 f8 fa ff ff 	mov    %ax,-0x508(%rbp)
    e2d1:	64 48 8b 04 25 28 00 	mov    %fs:0x28,%rax
    e2d8:	00 00 
    e2da:	48 89 45 e8          	mov    %rax,-0x18(%rbp)
    e2de:	31 c0                	xor    %eax,%eax
    e2e0:	48 8d 05 49 ed 00 00 	lea    0xed49(%rip),%rax        # 1d030 <g_42>
    e2e7:	48 89 85 28 fb ff ff 	mov    %rax,-0x4d8(%rbp)
    e2ee:	48 8d 05 3b ed 00 00 	lea    0xed3b(%rip),%rax        # 1d030 <g_42>
    e2f5:	48 89 85 30 fb ff ff 	mov    %rax,-0x4d0(%rbp)
    e2fc:	c7 85 0c fb ff ff ea 	movl   $0xbad479ea,-0x4f4(%rbp)
    e303:	79 d4 ba 
    e306:	48 8d 85 0c fb ff ff 	lea    -0x4f4(%rbp),%rax
    e30d:	48 89 85 38 fb ff ff 	mov    %rax,-0x4c8(%rbp)
    e314:	48 8d 05 15 ed 00 00 	lea    0xed15(%rip),%rax        # 1d030 <g_42>
    e31b:	48 89 85 40 fb ff ff 	mov    %rax,-0x4c0(%rbp)
    e322:	48 c7 85 48 fb ff ff 	movq   $0x0,-0x4b8(%rbp)
    e329:	00 00 00 00 
    e32d:	48 8d 05 fc ec 00 00 	lea    0xecfc(%rip),%rax        # 1d030 <g_42>
    e334:	48 89 85 50 fb ff ff 	mov    %rax,-0x4b0(%rbp)
    e33b:	48 8d 05 ee ec 00 00 	lea    0xecee(%rip),%rax        # 1d030 <g_42>
    e342:	48 89 85 58 fb ff ff 	mov    %rax,-0x4a8(%rbp)
    e349:	48 8d 85 0c fb ff ff 	lea    -0x4f4(%rbp),%rax
    e350:	48 89 85 60 fb ff ff 	mov    %rax,-0x4a0(%rbp)
    e357:	48 8d 05 d2 ec 00 00 	lea    0xecd2(%rip),%rax        # 1d030 <g_42>
    e35e:	48 89 85 68 fb ff ff 	mov    %rax,-0x498(%rbp)
    e365:	c7 85 10 fb ff ff 83 	movl   $0x2a227283,-0x4f0(%rbp)
    e36c:	72 22 2a 
    e36f:	48 c7 85 b0 fb ff ff 	movq   $0x0,-0x450(%rbp)
    e376:	00 00 00 00 
    e37a:	48 c7 85 b8 fb ff ff 	movq   $0x0,-0x448(%rbp)
    e381:	00 00 00 00 
    e385:	48 8d 85 10 fb ff ff 	lea    -0x4f0(%rbp),%rax
    e38c:	48 89 85 c0 fb ff ff 	mov    %rax,-0x440(%rbp)
    e393:	48 8d 05 96 ec 00 00 	lea    0xec96(%rip),%rax        # 1d030 <g_42>
    e39a:	48 89 85 c8 fb ff ff 	mov    %rax,-0x438(%rbp)
    e3a1:	48 8d 85 10 fb ff ff 	lea    -0x4f0(%rbp),%rax
    e3a8:	48 89 85 d0 fb ff ff 	mov    %rax,-0x430(%rbp)
    e3af:	48 c7 85 d8 fb ff ff 	movq   $0x0,-0x428(%rbp)
    e3b6:	00 00 00 00 
    e3ba:	48 c7 85 e0 fb ff ff 	movq   $0x0,-0x420(%rbp)
    e3c1:	00 00 00 00 
    e3c5:	48 c7 85 e8 fb ff ff 	movq   $0x0,-0x418(%rbp)
    e3cc:	00 00 00 00 
    e3d0:	48 c7 85 f0 fb ff ff 	movq   $0x0,-0x410(%rbp)
    e3d7:	00 00 00 00 
    e3db:	48 8d 85 10 fb ff ff 	lea    -0x4f0(%rbp),%rax
    e3e2:	48 89 85 f8 fb ff ff 	mov    %rax,-0x408(%rbp)
    e3e9:	48 8d 05 40 ec 00 00 	lea    0xec40(%rip),%rax        # 1d030 <g_42>
    e3f0:	48 89 85 00 fc ff ff 	mov    %rax,-0x400(%rbp)
    e3f7:	48 8d 85 10 fb ff ff 	lea    -0x4f0(%rbp),%rax
    e3fe:	48 89 85 08 fc ff ff 	mov    %rax,-0x3f8(%rbp)
    e405:	48 c7 85 10 fc ff ff 	movq   $0x0,-0x3f0(%rbp)
    e40c:	00 00 00 00 
    e410:	48 c7 85 18 fc ff ff 	movq   $0x0,-0x3e8(%rbp)
    e417:	00 00 00 00 
    e41b:	48 8d 05 c9 2c 01 00 	lea    0x12cc9(%rip),%rax        # 210eb <g_54+0x3>
    e422:	48 89 85 90 fb ff ff 	mov    %rax,-0x470(%rbp)
    e429:	48 8d 05 bb 2c 01 00 	lea    0x12cbb(%rip),%rax        # 210eb <g_54+0x3>
    e430:	48 89 85 98 fb ff ff 	mov    %rax,-0x468(%rbp)
    e437:	48 8d 05 ad 2c 01 00 	lea    0x12cad(%rip),%rax        # 210eb <g_54+0x3>
    e43e:	48 89 85 a0 fb ff ff 	mov    %rax,-0x460(%rbp)
    e445:	48 8d 05 9f 2c 01 00 	lea    0x12c9f(%rip),%rax        # 210eb <g_54+0x3>
    e44c:	48 89 85 a8 fb ff ff 	mov    %rax,-0x458(%rbp)
    e453:	8b 05 9b 2c 01 00    	mov    0x12c9b(%rip),%eax        # 210f4 <g_55>
    e459:	83 e8 01             	sub    $0x1,%eax
    e45c:	89 05 92 2c 01 00    	mov    %eax,0x12c92(%rip)        # 210f4 <g_55>
    e462:	48 8b 85 90 fb ff ff 	mov    -0x470(%rbp),%rax
    e469:	48 8b 15 b8 eb 00 00 	mov    0xebb8(%rip),%rdx        # 1d028 <g_11>
    e470:	48 89 c6             	mov    %rax,%rsi
    e473:	48 89 d7             	mov    %rdx,%rdi
    e476:	e8 7b 01 00 00       	callq  e5f6 <func_58>
    e47b:	85 c0                	test   %eax,%eax
    e47d:	0f 84 ae 00 00 00    	je     e531 <func_37+0x281>
    e483:	c7 85 1c fb ff ff 5b 	movl   $0xe8459b5b,-0x4e4(%rbp)
    e48a:	9b 45 e8 
    e48d:	c7 85 20 fb ff ff 01 	movl   $0x1,-0x4e0(%rbp)
    e494:	00 00 00 
    e497:	c7 85 24 fb ff ff 80 	movl   $0xba577980,-0x4dc(%rbp)
    e49e:	79 57 ba 
    e4a1:	66 c7 85 0a fb ff ff 	movw   $0xffff,-0x4f6(%rbp)
    e4a8:	ff ff 
    e4aa:	48 8d 85 20 fc ff ff 	lea    -0x3e0(%rbp),%rax
    e4b1:	48 8d 15 68 85 00 00 	lea    0x8568(%rip),%rdx        # 16a20 <g_427+0x19c8>
    e4b8:	b9 78 00 00 00       	mov    $0x78,%ecx
    e4bd:	48 89 c7             	mov    %rax,%rdi
    e4c0:	48 89 d6             	mov    %rdx,%rsi
    e4c3:	f3 48 a5             	rep movsq %ds:(%rsi),%es:(%rdi)
    e4c6:	c7 85 14 fb ff ff 00 	movl   $0x0,-0x4ec(%rbp)
    e4cd:	00 00 00 
    e4d0:	eb 45                	jmp    e517 <func_37+0x267>
    e4d2:	c7 85 18 fb ff ff 00 	movl   $0x0,-0x4e8(%rbp)
    e4d9:	00 00 00 
    e4dc:	eb 29                	jmp    e507 <func_37+0x257>
    e4de:	8b 85 18 fb ff ff    	mov    -0x4e8(%rbp),%eax
    e4e4:	48 98                	cltq   
    e4e6:	8b 95 14 fb ff ff    	mov    -0x4ec(%rbp),%edx
    e4ec:	48 63 d2             	movslq %edx,%rdx
    e4ef:	48 01 d2             	add    %rdx,%rdx
    e4f2:	48 01 d0             	add    %rdx,%rax
    e4f5:	c7 84 85 70 fb ff ff 	movl   $0x94c23928,-0x490(%rbp,%rax,4)
    e4fc:	28 39 c2 94 
    e500:	83 85 18 fb ff ff 01 	addl   $0x1,-0x4e8(%rbp)
    e507:	83 bd 18 fb ff ff 01 	cmpl   $0x1,-0x4e8(%rbp)
    e50e:	7e ce                	jle    e4de <func_37+0x22e>
    e510:	83 85 14 fb ff ff 01 	addl   $0x1,-0x4ec(%rbp)
    e517:	83 bd 14 fb ff ff 02 	cmpl   $0x2,-0x4ec(%rbp)
    e51e:	7e b2                	jle    e4d2 <func_37+0x222>
    e520:	8b 85 58 fe ff ff    	mov    -0x1a8(%rbp),%eax
    e526:	83 c0 01             	add    $0x1,%eax
    e529:	89 85 58 fe ff ff    	mov    %eax,-0x1a8(%rbp)
    e52f:	eb 10                	jmp    e541 <func_37+0x291>
    e531:	0f b7 95 f8 fa ff ff 	movzwl -0x508(%rbp),%edx
    e538:	48 8b 85 38 fb ff ff 	mov    -0x4c8(%rbp),%rax
    e53f:	89 10                	mov    %edx,(%rax)
    e541:	48 8b 85 38 fb ff ff 	mov    -0x4c8(%rbp),%rax
    e548:	8b 00                	mov    (%rax),%eax
    e54a:	33 85 fc fa ff ff    	xor    -0x504(%rbp),%eax
    e550:	89 c2                	mov    %eax,%edx
    e552:	48 8b 85 38 fb ff ff 	mov    -0x4c8(%rbp),%rax
    e559:	89 10                	mov    %edx,(%rax)
    e55b:	48 8b 05 86 17 01 00 	mov    0x11786(%rip),%rax        # 1fce8 <g_367>
    e562:	0f b6 00             	movzbl (%rax),%eax
    e565:	0f b6 d8             	movzbl %al,%ebx
    e568:	0f b7 85 f8 fa ff ff 	movzwl -0x508(%rbp),%eax
    e56f:	8b 95 fc fa ff ff    	mov    -0x504(%rbp),%edx
    e575:	89 d6                	mov    %edx,%esi
    e577:	89 c7                	mov    %eax,%edi
    e579:	e8 72 99 ff ff       	callq  7ef0 <safe_sub_func_uint32_t_u_u>
    e57e:	41 89 c4             	mov    %eax,%r12d
    e581:	48 8b 85 30 fb ff ff 	mov    -0x4d0(%rbp),%rax
    e588:	8b 00                	mov    (%rax),%eax
    e58a:	be 01 00 00 00       	mov    $0x1,%esi
    e58f:	89 c7                	mov    %eax,%edi
    e591:	e8 af 99 ff ff       	callq  7f45 <safe_div_func_uint32_t_u_u>
    e596:	0f b6 15 a7 ed 00 00 	movzbl 0xeda7(%rip),%edx        # 1d344 <g_658+0x4>
    e59d:	0f be d2             	movsbl %dl,%edx
    e5a0:	83 e2 01             	and    $0x1,%edx
    e5a3:	39 d0                	cmp    %edx,%eax
    e5a5:	0f 95 c0             	setne  %al
    e5a8:	0f b6 c0             	movzbl %al,%eax
    e5ab:	44 89 e6             	mov    %r12d,%esi
    e5ae:	89 c7                	mov    %eax,%edi
    e5b0:	e8 68 99 ff ff       	callq  7f1d <safe_mod_func_uint32_t_u_u>
    e5b5:	0f b6 c0             	movzbl %al,%eax
    e5b8:	89 de                	mov    %ebx,%esi
    e5ba:	89 c7                	mov    %eax,%edi
    e5bc:	e8 1d 97 ff ff       	callq  7cde <safe_rshift_func_uint8_t_u_u>
    e5c1:	89 c2                	mov    %eax,%edx
    e5c3:	48 8b 05 36 17 01 00 	mov    0x11736(%rip),%rax        # 1fd00 <g_434>
    e5ca:	0f b6 d2             	movzbl %dl,%edx
    e5cd:	89 10                	mov    %edx,(%rax)
    e5cf:	48 8b 85 a8 fb ff ff 	mov    -0x458(%rbp),%rax
    e5d6:	48 8b 4d e8          	mov    -0x18(%rbp),%rcx
    e5da:	64 48 33 0c 25 28 00 	xor    %fs:0x28,%rcx
    e5e1:	00 00 
    e5e3:	74 05                	je     e5ea <func_37+0x33a>
    e5e5:	e8 96 8a ff ff       	callq  7080 <__stack_chk_fail@plt>
    e5ea:	48 81 c4 00 05 00 00 	add    $0x500,%rsp
    e5f1:	5b                   	pop    %rbx
    e5f2:	41 5c                	pop    %r12
    e5f4:	5d                   	pop    %rbp
    e5f5:	c3                   	retq   

000000000000e5f6 <func_58>:
    e5f6:	f3 0f 1e fa          	endbr64 
    e5fa:	55                   	push   %rbp
    e5fb:	48 89 e5             	mov    %rsp,%rbp
    e5fe:	41 57                	push   %r15
    e600:	41 56                	push   %r14
    e602:	41 55                	push   %r13
    e604:	41 54                	push   %r12
    e606:	53                   	push   %rbx
    e607:	48 81 ec c8 08 00 00 	sub    $0x8c8,%rsp
    e60e:	48 89 bd 28 f7 ff ff 	mov    %rdi,-0x8d8(%rbp)
    e615:	48 89 b5 20 f7 ff ff 	mov    %rsi,-0x8e0(%rbp)
    e61c:	64 48 8b 04 25 28 00 	mov    %fs:0x28,%rax
    e623:	00 00 
    e625:	48 89 45 c8          	mov    %rax,-0x38(%rbp)
    e629:	31 c0                	xor    %eax,%eax
    e62b:	48 8d 05 fe e9 00 00 	lea    0xe9fe(%rip),%rax        # 1d030 <g_42>
    e632:	48 89 85 50 f7 ff ff 	mov    %rax,-0x8b0(%rbp)
    e639:	c7 85 34 f7 ff ff 01 	movl   $0x1,-0x8cc(%rbp)
    e640:	00 00 00 
    e643:	48 8d 05 b6 2a 01 00 	lea    0x12ab6(%rip),%rax        # 21100 <g_90>
    e64a:	48 89 85 58 f7 ff ff 	mov    %rax,-0x8a8(%rbp)
    e651:	48 8d 05 dc e9 00 00 	lea    0xe9dc(%rip),%rax        # 1d034 <g_92>
    e658:	48 89 85 60 f7 ff ff 	mov    %rax,-0x8a0(%rbp)
    e65f:	48 8d 05 52 ea 00 00 	lea    0xea52(%rip),%rax        # 1d0b8 <g_95+0x38>
    e666:	48 89 85 68 f7 ff ff 	mov    %rax,-0x898(%rbp)
    e66d:	c7 85 3c f7 ff ff 50 	movl   $0x3d715150,-0x8c4(%rbp)
    e674:	51 71 3d 
    e677:	c7 85 40 f7 ff ff bc 	movl   $0x3a2bbebc,-0x8c0(%rbp)
    e67e:	be 2b 3a 
    e681:	48 8d 85 00 f9 ff ff 	lea    -0x700(%rbp),%rax
    e688:	48 8d 15 51 87 00 00 	lea    0x8751(%rip),%rdx        # 16de0 <g_427+0x1d88>
    e68f:	b9 d8 00 00 00       	mov    $0xd8,%ecx
    e694:	48 89 c7             	mov    %rax,%rdi
    e697:	48 89 d6             	mov    %rdx,%rsi
    e69a:	f3 48 a5             	rep movsq %ds:(%rsi),%es:(%rdi)
    e69d:	c7 85 44 f7 ff ff f5 	movl   $0x94d9c2f5,-0x8bc(%rbp)
    e6a4:	c2 d9 94 
    e6a7:	48 c7 85 48 f7 ff ff 	movq   $0x0,-0x8b8(%rbp)
    e6ae:	00 00 00 00 
    e6b2:	48 8d 85 48 f7 ff ff 	lea    -0x8b8(%rbp),%rax
    e6b9:	48 89 85 70 f7 ff ff 	mov    %rax,-0x890(%rbp)
    e6c0:	c7 85 38 f7 ff ff 00 	movl   $0x0,-0x8c8(%rbp)
    e6c7:	00 00 00 
    e6ca:	eb 1e                	jmp    e6ea <func_58+0xf4>
    e6cc:	8b 85 38 f7 ff ff    	mov    -0x8c8(%rbp),%eax
    e6d2:	48 98                	cltq   
    e6d4:	48 8d 15 55 16 01 00 	lea    0x11655(%rip),%rdx        # 1fd30 <g_473>
    e6db:	48 89 94 c5 80 f7 ff 	mov    %rdx,-0x880(%rbp,%rax,8)
    e6e2:	ff 
    e6e3:	83 85 38 f7 ff ff 01 	addl   $0x1,-0x8c8(%rbp)
    e6ea:	83 bd 38 f7 ff ff 04 	cmpl   $0x4,-0x8c8(%rbp)
    e6f1:	7e d9                	jle    e6cc <func_58+0xd6>
    e6f3:	be e9 56 f0 76       	mov    $0x76f056e9,%esi
    e6f8:	bf 01 00 00 00       	mov    $0x1,%edi
    e6fd:	e8 ee 97 ff ff       	callq  7ef0 <safe_sub_func_uint32_t_u_u>
    e702:	48 8b 85 28 f7 ff ff 	mov    -0x8d8(%rbp),%rax
    e709:	0f b7 d8             	movzwl %ax,%ebx
    e70c:	48 8b 85 e8 f9 ff ff 	mov    -0x618(%rbp),%rax
    e713:	0f b7 c0             	movzwl %ax,%eax
    e716:	89 85 1c f7 ff ff    	mov    %eax,-0x8e4(%rbp)
    e71c:	48 8b 85 28 f7 ff ff 	mov    -0x8d8(%rbp),%rax
    e723:	44 0f b7 f0          	movzwl %ax,%r14d
    e727:	8b 85 40 f7 ff ff    	mov    -0x8c0(%rbp),%eax
    e72d:	4c 63 e8             	movslq %eax,%r13
    e730:	8b 85 3c f7 ff ff    	mov    -0x8c4(%rbp),%eax
    e736:	44 0f bf e0          	movswl %ax,%r12d
    e73a:	8b 05 f0 e8 00 00    	mov    0xe8f0(%rip),%eax        # 1d030 <g_42>
    e740:	89 c2                	mov    %eax,%edx
    e742:	48 8b 85 50 f7 ff ff 	mov    -0x8b0(%rbp),%rax
    e749:	8b 00                	mov    (%rax),%eax
    e74b:	48 98                	cltq   
    e74d:	89 d6                	mov    %edx,%esi
    e74f:	48 89 c7             	mov    %rax,%rdi
    e752:	e8 7a 3c 00 00       	callq  123d1 <func_76>
    e757:	48 8b 05 ea e8 00 00 	mov    0xe8ea(%rip),%rax        # 1d048 <g_93+0x8>
    e75e:	44 0f b7 f8          	movzwl %ax,%r15d
    e762:	48 8b 85 28 f7 ff ff 	mov    -0x8d8(%rbp),%rax
    e769:	48 89 85 10 f7 ff ff 	mov    %rax,-0x8f0(%rbp)
    e770:	8b 05 ae e8 00 00    	mov    0xe8ae(%rip),%eax        # 1d024 <g_8>
    e776:	0f be d0             	movsbl %al,%edx
    e779:	48 8b 85 58 f7 ff ff 	mov    -0x8a8(%rbp),%rax
    e780:	48 89 85 60 f7 ff ff 	mov    %rax,-0x8a0(%rbp)
    e787:	48 8b 85 60 f7 ff ff 	mov    -0x8a0(%rbp),%rax
    e78e:	48 3b 85 50 f7 ff ff 	cmp    -0x8b0(%rbp),%rax
    e795:	74 08                	je     e79f <func_58+0x1a9>
    e797:	48 83 bd 28 f7 ff ff 	cmpq   $0x0,-0x8d8(%rbp)
    e79e:	00 
    e79f:	c7 85 34 f7 ff ff 31 	movl   $0xda102f31,-0x8cc(%rbp)
    e7a6:	2f 10 da 
    e7a9:	48 8b 85 58 f7 ff ff 	mov    -0x8a8(%rbp),%rax
    e7b0:	8b 8d 34 f7 ff ff    	mov    -0x8cc(%rbp),%ecx
    e7b6:	89 08                	mov    %ecx,(%rax)
    e7b8:	48 8b 85 58 f7 ff ff 	mov    -0x8a8(%rbp),%rax
    e7bf:	8b 00                	mov    (%rax),%eax
    e7c1:	48 98                	cltq   
    e7c3:	48 39 85 28 f7 ff ff 	cmp    %rax,-0x8d8(%rbp)
    e7ca:	0f 95 c0             	setne  %al
    e7cd:	0f b6 c0             	movzbl %al,%eax
    e7d0:	89 d6                	mov    %edx,%esi
    e7d2:	89 c7                	mov    %eax,%edi
    e7d4:	e8 b1 8a ff ff       	callq  728a <safe_div_func_int8_t_s_s>
    e7d9:	0f b6 05 64 e8 00 00 	movzbl 0xe864(%rip),%eax        # 1d044 <g_93+0x4>
    e7e0:	3c 03                	cmp    $0x3,%al
    e7e2:	0f 95 c0             	setne  %al
    e7e5:	0f b6 d0             	movzbl %al,%edx
    e7e8:	8b 05 46 e8 00 00    	mov    0xe846(%rip),%eax        # 1d034 <g_92>
    e7ee:	39 c2                	cmp    %eax,%edx
    e7f0:	0f 95 c0             	setne  %al
    e7f3:	0f b6 d0             	movzbl %al,%edx
    e7f6:	48 8b 85 68 f7 ff ff 	mov    -0x898(%rbp),%rax
    e7fd:	48 89 10             	mov    %rdx,(%rax)
    e800:	48 8b 85 68 f7 ff ff 	mov    -0x898(%rbp),%rax
    e807:	48 8b 00             	mov    (%rax),%rax
    e80a:	48 8b b5 10 f7 ff ff 	mov    -0x8f0(%rbp),%rsi
    e811:	48 89 c7             	mov    %rax,%rdi
    e814:	e8 52 98 ff ff       	callq  806b <safe_sub_func_uint64_t_u_u>
    e819:	48 83 f8 02          	cmp    $0x2,%rax
    e81d:	0f 95 c0             	setne  %al
    e820:	0f b6 c0             	movzbl %al,%eax
    e823:	44 89 fe             	mov    %r15d,%esi
    e826:	89 c7                	mov    %eax,%edi
    e828:	e8 81 95 ff ff       	callq  7dae <safe_div_func_uint16_t_u_u>
    e82d:	66 85 c0             	test   %ax,%ax
    e830:	0f 95 c0             	setne  %al
    e833:	0f b6 d0             	movzbl %al,%edx
    e836:	48 8b 85 50 f7 ff ff 	mov    -0x8b0(%rbp),%rax
    e83d:	89 10                	mov    %edx,(%rax)
    e83f:	48 8b 85 50 f7 ff ff 	mov    -0x8b0(%rbp),%rax
    e846:	8b 00                	mov    (%rax),%eax
    e848:	44 8b 85 1c f7 ff ff 	mov    -0x8e4(%rbp),%r8d
    e84f:	44 89 f1             	mov    %r14d,%ecx
    e852:	4c 89 ea             	mov    %r13,%rdx
    e855:	44 89 e6             	mov    %r12d,%esi
    e858:	89 c7                	mov    %eax,%edi
    e85a:	e8 ba 3a 00 00       	callq  12319 <func_69>
    e85f:	0f b6 c0             	movzbl %al,%eax
    e862:	48 8b 95 58 f7 ff ff 	mov    -0x8a8(%rbp),%rdx
    e869:	48 89 d6             	mov    %rdx,%rsi
    e86c:	89 c7                	mov    %eax,%edi
    e86e:	e8 6e 01 00 00       	callq  e9e1 <func_66>
    e873:	0f b7 c0             	movzwl %ax,%eax
    e876:	89 de                	mov    %ebx,%esi
    e878:	89 c7                	mov    %eax,%edi
    e87a:	e8 de 94 ff ff       	callq  7d5d <safe_mul_func_uint16_t_u_u>
    e87f:	0f b7 c0             	movzwl %ax,%eax
    e882:	31 85 44 f7 ff ff    	xor    %eax,-0x8bc(%rbp)
    e888:	c7 05 ee ea 00 00 ef 	movl   $0xffffffef,0xeaee(%rip)        # 1d380 <g_712>
    e88f:	ff ff ff 
    e892:	e9 0b 01 00 00       	jmpq   e9a2 <func_58+0x3ac>
    e897:	48 8d 85 b0 f7 ff ff 	lea    -0x850(%rbp),%rax
    e89e:	48 8d 15 fb 8b 00 00 	lea    0x8bfb(%rip),%rdx        # 174a0 <g_427+0x2448>
    e8a5:	b9 28 00 00 00       	mov    $0x28,%ecx
    e8aa:	48 89 c7             	mov    %rax,%rdi
    e8ad:	48 89 d6             	mov    %rdx,%rsi
    e8b0:	f3 48 a5             	rep movsq %ds:(%rsi),%es:(%rdi)
    e8b3:	48 89 f2             	mov    %rsi,%rdx
    e8b6:	48 89 f8             	mov    %rdi,%rax
    e8b9:	8b 0a                	mov    (%rdx),%ecx
    e8bb:	89 08                	mov    %ecx,(%rax)
    e8bd:	48 8d 40 04          	lea    0x4(%rax),%rax
    e8c1:	48 8d 52 04          	lea    0x4(%rdx),%rdx
    e8c5:	c7 85 34 f7 ff ff 00 	movl   $0x0,-0x8cc(%rbp)
    e8cc:	00 00 00 
    e8cf:	e9 9f 00 00 00       	jmpq   e973 <func_58+0x37d>
    e8d4:	c6 85 33 f7 ff ff f6 	movb   $0xf6,-0x8cd(%rbp)
    e8db:	c6 05 d2 e8 00 00 fb 	movb   $0xfb,0xe8d2(%rip)        # 1d1b4 <g_237+0x14>
    e8e2:	eb 66                	jmp    e94a <func_58+0x354>
    e8e4:	48 8d 85 80 f7 ff ff 	lea    -0x880(%rbp),%rax
    e8eb:	48 83 c0 08          	add    $0x8,%rax
    e8ef:	48 89 85 78 f7 ff ff 	mov    %rax,-0x888(%rbp)
    e8f6:	48 8b 95 88 f7 ff ff 	mov    -0x878(%rbp),%rdx
    e8fd:	48 8b 85 78 f7 ff ff 	mov    -0x888(%rbp),%rax
    e904:	48 89 10             	mov    %rdx,(%rax)
    e907:	48 8b 85 78 f7 ff ff 	mov    -0x888(%rbp),%rax
    e90e:	48 8b 00             	mov    (%rax),%rax
    e911:	48 85 c0             	test   %rax,%rax
    e914:	0f 95 c0             	setne  %al
    e917:	0f b6 d0             	movzbl %al,%edx
    e91a:	48 8b 85 60 f7 ff ff 	mov    -0x8a0(%rbp),%rax
    e921:	8b 00                	mov    (%rax),%eax
    e923:	21 c2                	and    %eax,%edx
    e925:	48 8b 85 60 f7 ff ff 	mov    -0x8a0(%rbp),%rax
    e92c:	89 10                	mov    %edx,(%rax)
    e92e:	0f b6 05 7f e8 00 00 	movzbl 0xe87f(%rip),%eax        # 1d1b4 <g_237+0x14>
    e935:	0f b6 c0             	movzbl %al,%eax
    e938:	be 05 00 00 00       	mov    $0x5,%esi
    e93d:	89 c7                	mov    %eax,%edi
    e93f:	e8 db 93 ff ff       	callq  7d1f <safe_add_func_uint16_t_u_u>
    e944:	88 05 6a e8 00 00    	mov    %al,0xe86a(%rip)        # 1d1b4 <g_237+0x14>
    e94a:	0f b6 05 63 e8 00 00 	movzbl 0xe863(%rip),%eax        # 1d1b4 <g_237+0x14>
    e951:	3c 1e                	cmp    $0x1e,%al
    e953:	75 8f                	jne    e8e4 <func_58+0x2ee>
    e955:	8b 85 34 f7 ff ff    	mov    -0x8cc(%rbp),%eax
    e95b:	0f b6 c0             	movzbl %al,%eax
    e95e:	be 02 00 00 00       	mov    $0x2,%esi
    e963:	89 c7                	mov    %eax,%edi
    e965:	e8 2e 92 ff ff       	callq  7b98 <safe_sub_func_uint8_t_u_u>
    e96a:	0f b6 c0             	movzbl %al,%eax
    e96d:	89 85 34 f7 ff ff    	mov    %eax,-0x8cc(%rbp)
    e973:	83 bd 34 f7 ff ff fb 	cmpl   $0xfffffffb,-0x8cc(%rbp)
    e97a:	0f 8c 54 ff ff ff    	jl     e8d4 <func_58+0x2de>
    e980:	48 83 bd 28 f7 ff ff 	cmpq   $0x0,-0x8d8(%rbp)
    e987:	00 
    e988:	75 29                	jne    e9b3 <func_58+0x3bd>
    e98a:	8b 05 f0 e9 00 00    	mov    0xe9f0(%rip),%eax        # 1d380 <g_712>
    e990:	be 04 00 00 00       	mov    $0x4,%esi
    e995:	89 c7                	mov    %eax,%edi
    e997:	e8 3a 8c ff ff       	callq  75d6 <safe_add_func_int32_t_s_s>
    e99c:	89 05 de e9 00 00    	mov    %eax,0xe9de(%rip)        # 1d380 <g_712>
    e9a2:	8b 05 d8 e9 00 00    	mov    0xe9d8(%rip),%eax        # 1d380 <g_712>
    e9a8:	83 f8 19             	cmp    $0x19,%eax
    e9ab:	0f 8f e6 fe ff ff    	jg     e897 <func_58+0x2a1>
    e9b1:	eb 01                	jmp    e9b4 <func_58+0x3be>
    e9b3:	90                   	nop
    e9b4:	48 8b 85 28 f7 ff ff 	mov    -0x8d8(%rbp),%rax
    e9bb:	48 8b 5d c8          	mov    -0x38(%rbp),%rbx
    e9bf:	64 48 33 1c 25 28 00 	xor    %fs:0x28,%rbx
    e9c6:	00 00 
    e9c8:	74 05                	je     e9cf <func_58+0x3d9>
    e9ca:	e8 b1 86 ff ff       	callq  7080 <__stack_chk_fail@plt>
    e9cf:	48 81 c4 c8 08 00 00 	add    $0x8c8,%rsp
    e9d6:	5b                   	pop    %rbx
    e9d7:	41 5c                	pop    %r12
    e9d9:	41 5d                	pop    %r13
    e9db:	41 5e                	pop    %r14
    e9dd:	41 5f                	pop    %r15
    e9df:	5d                   	pop    %rbp
    e9e0:	c3                   	retq   

000000000000e9e1 <func_66>:
    e9e1:	f3 0f 1e fa          	endbr64 
    e9e5:	55                   	push   %rbp
    e9e6:	48 89 e5             	mov    %rsp,%rbp
    e9e9:	41 57                	push   %r15
    e9eb:	41 56                	push   %r14
    e9ed:	41 55                	push   %r13
    e9ef:	41 54                	push   %r12
    e9f1:	53                   	push   %rbx
    e9f2:	48 81 ec 00 10 00 00 	sub    $0x1000,%rsp
    e9f9:	48 83 0c 24 00       	orq    $0x0,(%rsp)
    e9fe:	48 81 ec 00 10 00 00 	sub    $0x1000,%rsp
    ea05:	48 83 0c 24 00       	orq    $0x0,(%rsp)
    ea0a:	48 81 ec 00 10 00 00 	sub    $0x1000,%rsp
    ea11:	48 83 0c 24 00       	orq    $0x0,(%rsp)
    ea16:	48 81 ec c8 05 00 00 	sub    $0x5c8,%rsp
    ea1d:	89 f8                	mov    %edi,%eax
    ea1f:	48 89 b5 10 ca ff ff 	mov    %rsi,-0x35f0(%rbp)
    ea26:	88 85 1c ca ff ff    	mov    %al,-0x35e4(%rbp)
    ea2c:	64 48 8b 04 25 28 00 	mov    %fs:0x28,%rax
    ea33:	00 00 
    ea35:	48 89 45 c8          	mov    %rax,-0x38(%rbp)
    ea39:	31 c0                	xor    %eax,%eax
    ea3b:	48 8d 05 e2 e5 00 00 	lea    0xe5e2(%rip),%rax        # 1d024 <g_8>
    ea42:	48 89 85 b8 ca ff ff 	mov    %rax,-0x3548(%rbp)
    ea49:	48 c7 85 c0 ca ff ff 	movq   $0x0,-0x3540(%rbp)
    ea50:	00 00 00 00 
    ea54:	48 8d 85 c0 ca ff ff 	lea    -0x3540(%rbp),%rax
    ea5b:	48 89 85 e8 ca ff ff 	mov    %rax,-0x3518(%rbp)
    ea62:	48 8d 05 9f 0a 01 00 	lea    0x10a9f(%rip),%rax        # 1f508 <g_101>
    ea69:	48 89 85 f0 ca ff ff 	mov    %rax,-0x3510(%rbp)
    ea70:	48 8d 85 f0 de ff ff 	lea    -0x2110(%rbp),%rax
    ea77:	48 8d 0d 82 8b 00 00 	lea    0x8b82(%rip),%rcx        # 17600 <g_427+0x25a8>
    ea7e:	ba d0 20 00 00       	mov    $0x20d0,%edx
    ea83:	48 89 ce             	mov    %rcx,%rsi
    ea86:	48 89 c7             	mov    %rax,%rdi
    ea89:	e8 22 86 ff ff       	callq  70b0 <memcpy@plt>
    ea8e:	66 c7 85 a0 cc ff ff 	movw   $0xc6f8,-0x3360(%rbp)
    ea95:	f8 c6 
    ea97:	66 c7 85 a2 cc ff ff 	movw   $0x80cc,-0x335e(%rbp)
    ea9e:	cc 80 
    eaa0:	66 c7 85 a4 cc ff ff 	movw   $0xc6f8,-0x335c(%rbp)
    eaa7:	f8 c6 
    eaa9:	66 c7 85 a6 cc ff ff 	movw   $0xc6f8,-0x335a(%rbp)
    eab0:	f8 c6 
    eab2:	66 c7 85 a8 cc ff ff 	movw   $0x80cc,-0x3358(%rbp)
    eab9:	cc 80 
    eabb:	66 c7 85 aa cc ff ff 	movw   $0xc6f8,-0x3356(%rbp)
    eac2:	f8 c6 
    eac4:	66 c7 85 ac cc ff ff 	movw   $0xc6f8,-0x3354(%rbp)
    eacb:	f8 c6 
    eacd:	66 c7 85 ae cc ff ff 	movw   $0x80cc,-0x3352(%rbp)
    ead4:	cc 80 
    ead6:	48 c7 85 c8 ca ff ff 	movq   $0x0,-0x3538(%rbp)
    eadd:	00 00 00 00 
    eae1:	c7 85 3c ca ff ff 5d 	movl   $0x1e464b5d,-0x35c4(%rbp)
    eae8:	4b 46 1e 
    eaeb:	48 8d 85 94 cc ff ff 	lea    -0x336c(%rbp),%rax
    eaf2:	48 83 c0 04          	add    $0x4,%rax
    eaf6:	48 89 85 f8 ca ff ff 	mov    %rax,-0x3508(%rbp)
    eafd:	48 c7 85 d0 ca ff ff 	movq   $0x0,-0x3530(%rbp)
    eb04:	00 00 00 00 
    eb08:	48 8d 85 d0 ca ff ff 	lea    -0x3530(%rbp),%rax
    eb0f:	48 89 85 00 cb ff ff 	mov    %rax,-0x3500(%rbp)
    eb16:	48 c7 85 08 cb ff ff 	movq   $0x0,-0x34f8(%rbp)
    eb1d:	00 00 00 00 
    eb21:	c6 85 2f ca ff ff 4e 	movb   $0x4e,-0x35d1(%rbp)
    eb28:	48 8d 05 15 e5 00 00 	lea    0xe515(%rip),%rax        # 1d044 <g_93+0x4>
    eb2f:	48 89 85 10 cb ff ff 	mov    %rax,-0x34f0(%rbp)
    eb36:	48 8d 05 b1 e5 00 00 	lea    0xe5b1(%rip),%rax        # 1d0ee <g_177>
    eb3d:	48 89 85 18 cb ff ff 	mov    %rax,-0x34e8(%rbp)
    eb44:	66 c7 85 34 ca ff ff 	movw   $0x1,-0x35cc(%rbp)
    eb4b:	01 00 
    eb4d:	48 c7 85 20 cd ff ff 	movq   $0x0,-0x32e0(%rbp)
    eb54:	00 00 00 00 
    eb58:	48 8d 05 e1 e4 00 00 	lea    0xe4e1(%rip),%rax        # 1d040 <g_93>
    eb5f:	48 89 85 28 cd ff ff 	mov    %rax,-0x32d8(%rbp)
    eb66:	48 8d 85 94 cc ff ff 	lea    -0x336c(%rbp),%rax
    eb6d:	48 89 85 30 cd ff ff 	mov    %rax,-0x32d0(%rbp)
    eb74:	48 8d 05 85 25 01 00 	lea    0x12585(%rip),%rax        # 21100 <g_90>
    eb7b:	48 89 85 38 cd ff ff 	mov    %rax,-0x32c8(%rbp)
    eb82:	48 8d 05 a7 e4 00 00 	lea    0xe4a7(%rip),%rax        # 1d030 <g_42>
    eb89:	48 89 85 40 cd ff ff 	mov    %rax,-0x32c0(%rbp)
    eb90:	48 8d 05 a9 e4 00 00 	lea    0xe4a9(%rip),%rax        # 1d040 <g_93>
    eb97:	48 89 85 48 cd ff ff 	mov    %rax,-0x32b8(%rbp)
    eb9e:	48 8d 05 5b 25 01 00 	lea    0x1255b(%rip),%rax        # 21100 <g_90>
    eba5:	48 89 85 50 cd ff ff 	mov    %rax,-0x32b0(%rbp)
    ebac:	48 8d 85 94 cc ff ff 	lea    -0x336c(%rbp),%rax
    ebb3:	48 83 c0 08          	add    $0x8,%rax
    ebb7:	48 89 85 58 cd ff ff 	mov    %rax,-0x32a8(%rbp)
    ebbe:	48 8d 05 3b 25 01 00 	lea    0x1253b(%rip),%rax        # 21100 <g_90>
    ebc5:	48 89 85 60 cd ff ff 	mov    %rax,-0x32a0(%rbp)
    ebcc:	48 8d 85 94 cc ff ff 	lea    -0x336c(%rbp),%rax
    ebd3:	48 83 c0 08          	add    $0x8,%rax
    ebd7:	48 89 85 68 cd ff ff 	mov    %rax,-0x3298(%rbp)
    ebde:	48 8d 85 94 cc ff ff 	lea    -0x336c(%rbp),%rax
    ebe5:	48 83 c0 08          	add    $0x8,%rax
    ebe9:	48 89 85 70 cd ff ff 	mov    %rax,-0x3290(%rbp)
    ebf0:	48 8d 85 94 cc ff ff 	lea    -0x336c(%rbp),%rax
    ebf7:	48 83 c0 08          	add    $0x8,%rax
    ebfb:	48 89 85 78 cd ff ff 	mov    %rax,-0x3288(%rbp)
    ec02:	48 8d 05 f7 24 01 00 	lea    0x124f7(%rip),%rax        # 21100 <g_90>
    ec09:	48 89 85 80 cd ff ff 	mov    %rax,-0x3280(%rbp)
    ec10:	48 8d 85 94 cc ff ff 	lea    -0x336c(%rbp),%rax
    ec17:	48 83 c0 08          	add    $0x8,%rax
    ec1b:	48 89 85 88 cd ff ff 	mov    %rax,-0x3278(%rbp)
    ec22:	48 c7 85 90 cd ff ff 	movq   $0x0,-0x3270(%rbp)
    ec29:	00 00 00 00 
    ec2d:	48 8d 05 fc e3 00 00 	lea    0xe3fc(%rip),%rax        # 1d030 <g_42>
    ec34:	48 89 85 98 cd ff ff 	mov    %rax,-0x3268(%rbp)
    ec3b:	48 8d 85 94 cc ff ff 	lea    -0x336c(%rbp),%rax
    ec42:	48 89 85 a0 cd ff ff 	mov    %rax,-0x3260(%rbp)
    ec49:	48 c7 85 a8 cd ff ff 	movq   $0x0,-0x3258(%rbp)
    ec50:	00 00 00 00 
    ec54:	48 8d 05 a5 24 01 00 	lea    0x124a5(%rip),%rax        # 21100 <g_90>
    ec5b:	48 89 85 b0 cd ff ff 	mov    %rax,-0x3250(%rbp)
    ec62:	48 8d 05 c7 e3 00 00 	lea    0xe3c7(%rip),%rax        # 1d030 <g_42>
    ec69:	48 89 85 b8 cd ff ff 	mov    %rax,-0x3248(%rbp)
    ec70:	48 8d 85 94 cc ff ff 	lea    -0x336c(%rbp),%rax
    ec77:	48 83 c0 08          	add    $0x8,%rax
    ec7b:	48 89 85 c0 cd ff ff 	mov    %rax,-0x3240(%rbp)
    ec82:	48 8d 85 f0 de ff ff 	lea    -0x2110(%rbp),%rax
    ec89:	48 05 68 1a 00 00    	add    $0x1a68,%rax
    ec8f:	48 89 85 c8 cd ff ff 	mov    %rax,-0x3238(%rbp)
    ec96:	48 8d 85 f0 de ff ff 	lea    -0x2110(%rbp),%rax
    ec9d:	48 05 68 1a 00 00    	add    $0x1a68,%rax
    eca3:	48 89 85 d0 cd ff ff 	mov    %rax,-0x3230(%rbp)
    ecaa:	48 8d 05 4f 24 01 00 	lea    0x1244f(%rip),%rax        # 21100 <g_90>
    ecb1:	48 89 85 d8 cd ff ff 	mov    %rax,-0x3228(%rbp)
    ecb8:	48 8d 05 41 24 01 00 	lea    0x12441(%rip),%rax        # 21100 <g_90>
    ecbf:	48 89 85 e0 cd ff ff 	mov    %rax,-0x3220(%rbp)
    ecc6:	48 8d 05 33 24 01 00 	lea    0x12433(%rip),%rax        # 21100 <g_90>
    eccd:	48 89 85 e8 cd ff ff 	mov    %rax,-0x3218(%rbp)
    ecd4:	48 8d 05 55 e3 00 00 	lea    0xe355(%rip),%rax        # 1d030 <g_42>
    ecdb:	48 89 85 f0 cd ff ff 	mov    %rax,-0x3210(%rbp)
    ece2:	48 8d 05 47 e3 00 00 	lea    0xe347(%rip),%rax        # 1d030 <g_42>
    ece9:	48 89 85 f8 cd ff ff 	mov    %rax,-0x3208(%rbp)
    ecf0:	48 8d 05 09 24 01 00 	lea    0x12409(%rip),%rax        # 21100 <g_90>
    ecf7:	48 89 85 00 ce ff ff 	mov    %rax,-0x3200(%rbp)
    ecfe:	48 8d 05 fb 23 01 00 	lea    0x123fb(%rip),%rax        # 21100 <g_90>
    ed05:	48 89 85 08 ce ff ff 	mov    %rax,-0x31f8(%rbp)
    ed0c:	c7 85 70 ca ff ff 38 	movl   $0x56414d38,-0x3590(%rbp)
    ed13:	4d 41 56 
    ed16:	48 8d 05 23 e6 00 00 	lea    0xe623(%rip),%rax        # 1d340 <g_658>
    ed1d:	48 89 85 20 cb ff ff 	mov    %rax,-0x34e0(%rbp)
    ed24:	c7 85 44 ca ff ff 00 	movl   $0x0,-0x35bc(%rbp)
    ed2b:	00 00 00 
    ed2e:	eb 1a                	jmp    ed4a <func_66+0x369>
    ed30:	8b 85 44 ca ff ff    	mov    -0x35bc(%rbp),%eax
    ed36:	48 98                	cltq   
    ed38:	c7 84 85 94 cc ff ff 	movl   $0x1,-0x336c(%rbp,%rax,4)
    ed3f:	01 00 00 00 
    ed43:	83 85 44 ca ff ff 01 	addl   $0x1,-0x35bc(%rbp)
    ed4a:	83 bd 44 ca ff ff 02 	cmpl   $0x2,-0x35bc(%rbp)
    ed51:	7e dd                	jle    ed30 <func_66+0x34f>
    ed53:	c7 85 44 ca ff ff 00 	movl   $0x0,-0x35bc(%rbp)
    ed5a:	00 00 00 
    ed5d:	eb 42                	jmp    eda1 <func_66+0x3c0>
    ed5f:	c7 85 48 ca ff ff 00 	movl   $0x0,-0x35b8(%rbp)
    ed66:	00 00 00 
    ed69:	eb 26                	jmp    ed91 <func_66+0x3b0>
    ed6b:	8b 85 48 ca ff ff    	mov    -0x35b8(%rbp),%eax
    ed71:	48 63 d0             	movslq %eax,%rdx
    ed74:	8b 85 44 ca ff ff    	mov    -0x35bc(%rbp),%eax
    ed7a:	48 98                	cltq   
    ed7c:	48 01 d0             	add    %rdx,%rax
    ed7f:	c7 84 85 c0 cc ff ff 	movl   $0x0,-0x3340(%rbp,%rax,4)
    ed86:	00 00 00 00 
    ed8a:	83 85 48 ca ff ff 01 	addl   $0x1,-0x35b8(%rbp)
    ed91:	83 bd 48 ca ff ff 00 	cmpl   $0x0,-0x35b8(%rbp)
    ed98:	7e d1                	jle    ed6b <func_66+0x38a>
    ed9a:	83 85 44 ca ff ff 01 	addl   $0x1,-0x35bc(%rbp)
    eda1:	83 bd 44 ca ff ff 06 	cmpl   $0x6,-0x35bc(%rbp)
    eda8:	7e b5                	jle    ed5f <func_66+0x37e>
    edaa:	c7 85 44 ca ff ff 00 	movl   $0x0,-0x35bc(%rbp)
    edb1:	00 00 00 
    edb4:	eb 1e                	jmp    edd4 <func_66+0x3f3>
    edb6:	8b 85 44 ca ff ff    	mov    -0x35bc(%rbp),%eax
    edbc:	48 98                	cltq   
    edbe:	48 8d 15 2b 23 01 00 	lea    0x1232b(%rip),%rdx        # 210f0 <g_54+0x8>
    edc5:	48 89 94 c5 b0 cc ff 	mov    %rdx,-0x3350(%rbp,%rax,8)
    edcc:	ff 
    edcd:	83 85 44 ca ff ff 01 	addl   $0x1,-0x35bc(%rbp)
    edd4:	83 bd 44 ca ff ff 01 	cmpl   $0x1,-0x35bc(%rbp)
    eddb:	7e d9                	jle    edb6 <func_66+0x3d5>
    eddd:	c6 05 60 e2 00 00 00 	movb   $0x0,0xe260(%rip)        # 1d044 <g_93+0x4>
    ede4:	e9 77 25 00 00       	jmpq   11360 <func_66+0x297f>
    ede9:	48 b8 40 31 08 cb b6 	movabs $0x4f7139b6cb083140,%rax
    edf0:	39 71 4f 
    edf3:	48 89 85 b0 cb ff ff 	mov    %rax,-0x3450(%rbp)
    edfa:	48 8d 85 b8 ca ff ff 	lea    -0x3548(%rbp),%rax
    ee01:	48 89 85 b8 cb ff ff 	mov    %rax,-0x3448(%rbp)
    ee08:	c6 85 2e ca ff ff 05 	movb   $0x5,-0x35d2(%rbp)
    ee0f:	c7 85 40 ca ff ff fc 	movl   $0xfffffffc,-0x35c0(%rbp)
    ee16:	ff ff ff 
    ee19:	c7 85 a8 ca ff ff 00 	movl   $0x0,-0x3558(%rbp)
    ee20:	00 00 00 
    ee23:	c7 85 ac ca ff ff a7 	movl   $0xf4dc61a7,-0x3554(%rbp)
    ee2a:	61 dc f4 
    ee2d:	c7 85 d8 ca ff ff a3 	movl   $0xe97413a3,-0x3528(%rbp)
    ee34:	13 74 e9 
    ee37:	66 c7 85 38 ca ff ff 	movw   $0xd9e5,-0x35c8(%rbp)
    ee3e:	e5 d9 
    ee40:	48 8d 85 94 cc ff ff 	lea    -0x336c(%rbp),%rax
    ee47:	48 83 c0 08          	add    $0x8,%rax
    ee4b:	48 89 85 c0 cb ff ff 	mov    %rax,-0x3440(%rbp)
    ee52:	48 8d 85 94 cc ff ff 	lea    -0x336c(%rbp),%rax
    ee59:	48 83 c0 04          	add    $0x4,%rax
    ee5d:	48 89 85 60 cf ff ff 	mov    %rax,-0x30a0(%rbp)
    ee64:	48 8d 85 40 ca ff ff 	lea    -0x35c0(%rbp),%rax
    ee6b:	48 89 85 68 cf ff ff 	mov    %rax,-0x3098(%rbp)
    ee72:	48 c7 85 70 cf ff ff 	movq   $0x0,-0x3090(%rbp)
    ee79:	00 00 00 00 
    ee7d:	48 c7 85 78 cf ff ff 	movq   $0x0,-0x3088(%rbp)
    ee84:	00 00 00 00 
    ee88:	48 8d 05 a5 e1 00 00 	lea    0xe1a5(%rip),%rax        # 1d034 <g_92>
    ee8f:	48 89 85 80 cf ff ff 	mov    %rax,-0x3080(%rbp)
    ee96:	48 8d 05 a3 e1 00 00 	lea    0xe1a3(%rip),%rax        # 1d040 <g_93>
    ee9d:	48 89 85 88 cf ff ff 	mov    %rax,-0x3078(%rbp)
    eea4:	48 8d 85 88 cc ff ff 	lea    -0x3378(%rbp),%rax
    eeab:	48 89 85 90 cf ff ff 	mov    %rax,-0x3070(%rbp)
    eeb2:	48 c7 85 98 cf ff ff 	movq   $0x0,-0x3068(%rbp)
    eeb9:	00 00 00 00 
    eebd:	48 c7 85 a0 cf ff ff 	movq   $0x0,-0x3060(%rbp)
    eec4:	00 00 00 00 
    eec8:	48 8d 05 31 22 01 00 	lea    0x12231(%rip),%rax        # 21100 <g_90>
    eecf:	48 89 85 a8 cf ff ff 	mov    %rax,-0x3058(%rbp)
    eed6:	48 c7 85 b0 cf ff ff 	movq   $0x0,-0x3050(%rbp)
    eedd:	00 00 00 00 
    eee1:	48 c7 85 b8 cf ff ff 	movq   $0x0,-0x3048(%rbp)
    eee8:	00 00 00 00 
    eeec:	48 8d 05 3d e1 00 00 	lea    0xe13d(%rip),%rax        # 1d030 <g_42>
    eef3:	48 89 85 c0 cf ff ff 	mov    %rax,-0x3040(%rbp)
    eefa:	48 8d 85 88 cc ff ff 	lea    -0x3378(%rbp),%rax
    ef01:	48 89 85 c8 cf ff ff 	mov    %rax,-0x3038(%rbp)
    ef08:	48 8d 85 f0 de ff ff 	lea    -0x2110(%rbp),%rax
    ef0f:	48 05 68 1a 00 00    	add    $0x1a68,%rax
    ef15:	48 89 85 d0 cf ff ff 	mov    %rax,-0x3030(%rbp)
    ef1c:	48 8d 05 0d e1 00 00 	lea    0xe10d(%rip),%rax        # 1d030 <g_42>
    ef23:	48 89 85 d8 cf ff ff 	mov    %rax,-0x3028(%rbp)
    ef2a:	48 c7 85 e0 cf ff ff 	movq   $0x0,-0x3020(%rbp)
    ef31:	00 00 00 00 
    ef35:	48 8d 05 f4 e0 00 00 	lea    0xe0f4(%rip),%rax        # 1d030 <g_42>
    ef3c:	48 89 85 e8 cf ff ff 	mov    %rax,-0x3018(%rbp)
    ef43:	48 8d 85 88 cc ff ff 	lea    -0x3378(%rbp),%rax
    ef4a:	48 83 c0 04          	add    $0x4,%rax
    ef4e:	48 89 85 f0 cf ff ff 	mov    %rax,-0x3010(%rbp)
    ef55:	48 8d 05 44 e2 00 00 	lea    0xe244(%rip),%rax        # 1d1a0 <g_237>
    ef5c:	48 89 85 f8 cf ff ff 	mov    %rax,-0x3008(%rbp)
    ef63:	48 8d 85 94 cc ff ff 	lea    -0x336c(%rbp),%rax
    ef6a:	48 83 c0 08          	add    $0x8,%rax
    ef6e:	48 89 85 00 d0 ff ff 	mov    %rax,-0x3000(%rbp)
    ef75:	48 c7 85 08 d0 ff ff 	movq   $0x0,-0x2ff8(%rbp)
    ef7c:	00 00 00 00 
    ef80:	48 8d 05 ad e0 00 00 	lea    0xe0ad(%rip),%rax        # 1d034 <g_92>
    ef87:	48 89 85 10 d0 ff ff 	mov    %rax,-0x2ff0(%rbp)
    ef8e:	48 8d 85 88 cc ff ff 	lea    -0x3378(%rbp),%rax
    ef95:	48 89 85 18 d0 ff ff 	mov    %rax,-0x2fe8(%rbp)
    ef9c:	48 8d 05 9d e0 00 00 	lea    0xe09d(%rip),%rax        # 1d040 <g_93>
    efa3:	48 89 85 20 d0 ff ff 	mov    %rax,-0x2fe0(%rbp)
    efaa:	48 8d 85 d8 ca ff ff 	lea    -0x3528(%rbp),%rax
    efb1:	48 89 85 28 d0 ff ff 	mov    %rax,-0x2fd8(%rbp)
    efb8:	48 8d 05 41 21 01 00 	lea    0x12141(%rip),%rax        # 21100 <g_90>
    efbf:	48 89 85 30 d0 ff ff 	mov    %rax,-0x2fd0(%rbp)
    efc6:	48 8d 85 d8 ca ff ff 	lea    -0x3528(%rbp),%rax
    efcd:	48 89 85 38 d0 ff ff 	mov    %rax,-0x2fc8(%rbp)
    efd4:	48 8d 85 94 cc ff ff 	lea    -0x336c(%rbp),%rax
    efdb:	48 83 c0 04          	add    $0x4,%rax
    efdf:	48 89 85 40 d0 ff ff 	mov    %rax,-0x2fc0(%rbp)
    efe6:	48 c7 85 48 d0 ff ff 	movq   $0x0,-0x2fb8(%rbp)
    efed:	00 00 00 00 
    eff1:	48 8d 05 3c e0 00 00 	lea    0xe03c(%rip),%rax        # 1d034 <g_92>
    eff8:	48 89 85 50 d0 ff ff 	mov    %rax,-0x2fb0(%rbp)
    efff:	48 8d 85 88 cc ff ff 	lea    -0x3378(%rbp),%rax
    f006:	48 83 c0 04          	add    $0x4,%rax
    f00a:	48 89 85 58 d0 ff ff 	mov    %rax,-0x2fa8(%rbp)
    f011:	48 8d 85 f0 de ff ff 	lea    -0x2110(%rbp),%rax
    f018:	48 05 68 1a 00 00    	add    $0x1a68,%rax
    f01e:	48 89 85 60 d0 ff ff 	mov    %rax,-0x2fa0(%rbp)
    f025:	48 8d 85 88 cc ff ff 	lea    -0x3378(%rbp),%rax
    f02c:	48 89 85 68 d0 ff ff 	mov    %rax,-0x2f98(%rbp)
    f033:	48 8d 05 f6 df 00 00 	lea    0xdff6(%rip),%rax        # 1d030 <g_42>
    f03a:	48 89 85 70 d0 ff ff 	mov    %rax,-0x2f90(%rbp)
    f041:	48 8d 05 b8 20 01 00 	lea    0x120b8(%rip),%rax        # 21100 <g_90>
    f048:	48 89 85 78 d0 ff ff 	mov    %rax,-0x2f88(%rbp)
    f04f:	48 8d 85 94 cc ff ff 	lea    -0x336c(%rbp),%rax
    f056:	48 83 c0 04          	add    $0x4,%rax
    f05a:	48 89 85 80 d0 ff ff 	mov    %rax,-0x2f80(%rbp)
    f061:	48 8d 85 94 cc ff ff 	lea    -0x336c(%rbp),%rax
    f068:	48 83 c0 08          	add    $0x8,%rax
    f06c:	48 89 85 88 d0 ff ff 	mov    %rax,-0x2f78(%rbp)
    f073:	48 8d 05 b6 df 00 00 	lea    0xdfb6(%rip),%rax        # 1d030 <g_42>
    f07a:	48 89 85 90 d0 ff ff 	mov    %rax,-0x2f70(%rbp)
    f081:	48 8d 85 f0 de ff ff 	lea    -0x2110(%rbp),%rax
    f088:	48 05 68 1a 00 00    	add    $0x1a68,%rax
    f08e:	48 89 85 98 d0 ff ff 	mov    %rax,-0x2f68(%rbp)
    f095:	48 8d 85 40 ca ff ff 	lea    -0x35c0(%rbp),%rax
    f09c:	48 89 85 a0 d0 ff ff 	mov    %rax,-0x2f60(%rbp)
    f0a3:	48 8d 05 56 20 01 00 	lea    0x12056(%rip),%rax        # 21100 <g_90>
    f0aa:	48 89 85 a8 d0 ff ff 	mov    %rax,-0x2f58(%rbp)
    f0b1:	48 8d 85 94 cc ff ff 	lea    -0x336c(%rbp),%rax
    f0b8:	48 83 c0 08          	add    $0x8,%rax
    f0bc:	48 89 85 b0 d0 ff ff 	mov    %rax,-0x2f50(%rbp)
    f0c3:	48 8d 85 d8 ca ff ff 	lea    -0x3528(%rbp),%rax
    f0ca:	48 89 85 b8 d0 ff ff 	mov    %rax,-0x2f48(%rbp)
    f0d1:	48 8d 05 58 df 00 00 	lea    0xdf58(%rip),%rax        # 1d030 <g_42>
    f0d8:	48 89 85 c0 d0 ff ff 	mov    %rax,-0x2f40(%rbp)
    f0df:	48 8d 85 88 cc ff ff 	lea    -0x3378(%rbp),%rax
    f0e6:	48 83 c0 04          	add    $0x4,%rax
    f0ea:	48 89 85 c8 d0 ff ff 	mov    %rax,-0x2f38(%rbp)
    f0f1:	48 8d 85 d8 ca ff ff 	lea    -0x3528(%rbp),%rax
    f0f8:	48 89 85 d0 d0 ff ff 	mov    %rax,-0x2f30(%rbp)
    f0ff:	48 8d 85 94 cc ff ff 	lea    -0x336c(%rbp),%rax
    f106:	48 83 c0 04          	add    $0x4,%rax
    f10a:	48 89 85 d8 d0 ff ff 	mov    %rax,-0x2f28(%rbp)
    f111:	48 8d 85 d8 ca ff ff 	lea    -0x3528(%rbp),%rax
    f118:	48 89 85 e0 d0 ff ff 	mov    %rax,-0x2f20(%rbp)
    f11f:	48 8d 05 da 1f 01 00 	lea    0x11fda(%rip),%rax        # 21100 <g_90>
    f126:	48 89 85 e8 d0 ff ff 	mov    %rax,-0x2f18(%rbp)
    f12d:	48 8d 85 88 cc ff ff 	lea    -0x3378(%rbp),%rax
    f134:	48 89 85 f0 d0 ff ff 	mov    %rax,-0x2f10(%rbp)
    f13b:	48 8d 85 88 cc ff ff 	lea    -0x3378(%rbp),%rax
    f142:	48 83 c0 04          	add    $0x4,%rax
    f146:	48 89 85 f8 d0 ff ff 	mov    %rax,-0x2f08(%rbp)
    f14d:	48 8d 85 94 cc ff ff 	lea    -0x336c(%rbp),%rax
    f154:	48 83 c0 08          	add    $0x8,%rax
    f158:	48 89 85 00 d1 ff ff 	mov    %rax,-0x2f00(%rbp)
    f15f:	48 8d 85 88 cc ff ff 	lea    -0x3378(%rbp),%rax
    f166:	48 83 c0 04          	add    $0x4,%rax
    f16a:	48 89 85 08 d1 ff ff 	mov    %rax,-0x2ef8(%rbp)
    f171:	48 8d 85 88 cc ff ff 	lea    -0x3378(%rbp),%rax
    f178:	48 89 85 10 d1 ff ff 	mov    %rax,-0x2ef0(%rbp)
    f17f:	48 8d 05 7a 1f 01 00 	lea    0x11f7a(%rip),%rax        # 21100 <g_90>
    f186:	48 89 85 18 d1 ff ff 	mov    %rax,-0x2ee8(%rbp)
    f18d:	48 8d 05 a0 de 00 00 	lea    0xdea0(%rip),%rax        # 1d034 <g_92>
    f194:	48 89 85 20 d1 ff ff 	mov    %rax,-0x2ee0(%rbp)
    f19b:	48 c7 85 28 d1 ff ff 	movq   $0x0,-0x2ed8(%rbp)
    f1a2:	00 00 00 00 
    f1a6:	48 8d 05 93 de 00 00 	lea    0xde93(%rip),%rax        # 1d040 <g_93>
    f1ad:	48 89 85 30 d1 ff ff 	mov    %rax,-0x2ed0(%rbp)
    f1b4:	48 8d 85 40 ca ff ff 	lea    -0x35c0(%rbp),%rax
    f1bb:	48 89 85 38 d1 ff ff 	mov    %rax,-0x2ec8(%rbp)
    f1c2:	48 c7 85 40 d1 ff ff 	movq   $0x0,-0x2ec0(%rbp)
    f1c9:	00 00 00 00 
    f1cd:	48 8d 85 88 cc ff ff 	lea    -0x3378(%rbp),%rax
    f1d4:	48 89 85 48 d1 ff ff 	mov    %rax,-0x2eb8(%rbp)
    f1db:	48 8d 05 1e 1f 01 00 	lea    0x11f1e(%rip),%rax        # 21100 <g_90>
    f1e2:	48 89 85 50 d1 ff ff 	mov    %rax,-0x2eb0(%rbp)
    f1e9:	48 8d 85 88 cc ff ff 	lea    -0x3378(%rbp),%rax
    f1f0:	48 83 c0 04          	add    $0x4,%rax
    f1f4:	48 89 85 58 d1 ff ff 	mov    %rax,-0x2ea8(%rbp)
    f1fb:	48 8d 05 32 de 00 00 	lea    0xde32(%rip),%rax        # 1d034 <g_92>
    f202:	48 89 85 60 d1 ff ff 	mov    %rax,-0x2ea0(%rbp)
    f209:	48 8d 85 d8 ca ff ff 	lea    -0x3528(%rbp),%rax
    f210:	48 89 85 68 d1 ff ff 	mov    %rax,-0x2e98(%rbp)
    f217:	48 c7 85 70 d1 ff ff 	movq   $0x0,-0x2e90(%rbp)
    f21e:	00 00 00 00 
    f222:	48 8d 05 0b de 00 00 	lea    0xde0b(%rip),%rax        # 1d034 <g_92>
    f229:	48 89 85 78 d1 ff ff 	mov    %rax,-0x2e88(%rbp)
    f230:	48 c7 85 80 d1 ff ff 	movq   $0x0,-0x2e80(%rbp)
    f237:	00 00 00 00 
    f23b:	48 c7 85 88 d1 ff ff 	movq   $0x0,-0x2e78(%rbp)
    f242:	00 00 00 00 
    f246:	48 c7 85 90 d1 ff ff 	movq   $0x0,-0x2e70(%rbp)
    f24d:	00 00 00 00 
    f251:	48 8d 85 94 cc ff ff 	lea    -0x336c(%rbp),%rax
    f258:	48 83 c0 08          	add    $0x8,%rax
    f25c:	48 89 85 98 d1 ff ff 	mov    %rax,-0x2e68(%rbp)
    f263:	48 8d 05 d6 dd 00 00 	lea    0xddd6(%rip),%rax        # 1d040 <g_93>
    f26a:	48 89 85 a0 d1 ff ff 	mov    %rax,-0x2e60(%rbp)
    f271:	48 8d 05 88 1e 01 00 	lea    0x11e88(%rip),%rax        # 21100 <g_90>
    f278:	48 89 85 a8 d1 ff ff 	mov    %rax,-0x2e58(%rbp)
    f27f:	48 8d 85 88 cc ff ff 	lea    -0x3378(%rbp),%rax
    f286:	48 89 85 b0 d1 ff ff 	mov    %rax,-0x2e50(%rbp)
    f28d:	48 c7 85 b8 d1 ff ff 	movq   $0x0,-0x2e48(%rbp)
    f294:	00 00 00 00 
    f298:	48 8d 05 95 dd 00 00 	lea    0xdd95(%rip),%rax        # 1d034 <g_92>
    f29f:	48 89 85 c0 d1 ff ff 	mov    %rax,-0x2e40(%rbp)
    f2a6:	48 c7 85 c8 d1 ff ff 	movq   $0x0,-0x2e38(%rbp)
    f2ad:	00 00 00 00 
    f2b1:	48 8d 05 78 dd 00 00 	lea    0xdd78(%rip),%rax        # 1d030 <g_42>
    f2b8:	48 89 85 d0 d1 ff ff 	mov    %rax,-0x2e30(%rbp)
    f2bf:	48 8d 85 88 cc ff ff 	lea    -0x3378(%rbp),%rax
    f2c6:	48 83 c0 04          	add    $0x4,%rax
    f2ca:	48 89 85 d8 d1 ff ff 	mov    %rax,-0x2e28(%rbp)
    f2d1:	48 8d 05 c8 de 00 00 	lea    0xdec8(%rip),%rax        # 1d1a0 <g_237>
    f2d8:	48 89 85 e0 d1 ff ff 	mov    %rax,-0x2e20(%rbp)
    f2df:	48 8d 85 94 cc ff ff 	lea    -0x336c(%rbp),%rax
    f2e6:	48 83 c0 08          	add    $0x8,%rax
    f2ea:	48 89 85 e8 d1 ff ff 	mov    %rax,-0x2e18(%rbp)
    f2f1:	48 c7 85 f0 d1 ff ff 	movq   $0x0,-0x2e10(%rbp)
    f2f8:	00 00 00 00 
    f2fc:	48 8d 05 3d dd 00 00 	lea    0xdd3d(%rip),%rax        # 1d040 <g_93>
    f303:	48 89 85 f8 d1 ff ff 	mov    %rax,-0x2e08(%rbp)
    f30a:	48 8d 85 d8 ca ff ff 	lea    -0x3528(%rbp),%rax
    f311:	48 89 85 00 d2 ff ff 	mov    %rax,-0x2e00(%rbp)
    f318:	48 8d 05 21 dd 00 00 	lea    0xdd21(%rip),%rax        # 1d040 <g_93>
    f31f:	48 89 85 08 d2 ff ff 	mov    %rax,-0x2df8(%rbp)
    f326:	48 8d 05 03 dd 00 00 	lea    0xdd03(%rip),%rax        # 1d030 <g_42>
    f32d:	48 89 85 10 d2 ff ff 	mov    %rax,-0x2df0(%rbp)
    f334:	48 8d 05 f9 dc 00 00 	lea    0xdcf9(%rip),%rax        # 1d034 <g_92>
    f33b:	48 89 85 18 d2 ff ff 	mov    %rax,-0x2de8(%rbp)
    f342:	48 8d 05 57 de 00 00 	lea    0xde57(%rip),%rax        # 1d1a0 <g_237>
    f349:	48 89 85 20 d2 ff ff 	mov    %rax,-0x2de0(%rbp)
    f350:	48 c7 85 28 d2 ff ff 	movq   $0x0,-0x2dd8(%rbp)
    f357:	00 00 00 00 
    f35b:	48 8d 05 9e 1d 01 00 	lea    0x11d9e(%rip),%rax        # 21100 <g_90>
    f362:	48 89 85 30 d2 ff ff 	mov    %rax,-0x2dd0(%rbp)
    f369:	48 8d 85 88 cc ff ff 	lea    -0x3378(%rbp),%rax
    f370:	48 89 85 38 d2 ff ff 	mov    %rax,-0x2dc8(%rbp)
    f377:	48 8d 85 40 ca ff ff 	lea    -0x35c0(%rbp),%rax
    f37e:	48 89 85 40 d2 ff ff 	mov    %rax,-0x2dc0(%rbp)
    f385:	48 8d 85 94 cc ff ff 	lea    -0x336c(%rbp),%rax
    f38c:	48 83 c0 08          	add    $0x8,%rax
    f390:	48 89 85 48 d2 ff ff 	mov    %rax,-0x2db8(%rbp)
    f397:	48 c7 85 50 d2 ff ff 	movq   $0x0,-0x2db0(%rbp)
    f39e:	00 00 00 00 
    f3a2:	48 c7 85 58 d2 ff ff 	movq   $0x0,-0x2da8(%rbp)
    f3a9:	00 00 00 00 
    f3ad:	48 8d 05 4c 1d 01 00 	lea    0x11d4c(%rip),%rax        # 21100 <g_90>
    f3b4:	48 89 85 60 d2 ff ff 	mov    %rax,-0x2da0(%rbp)
    f3bb:	48 8d 85 88 cc ff ff 	lea    -0x3378(%rbp),%rax
    f3c2:	48 89 85 68 d2 ff ff 	mov    %rax,-0x2d98(%rbp)
    f3c9:	48 8d 85 88 cc ff ff 	lea    -0x3378(%rbp),%rax
    f3d0:	48 89 85 70 d2 ff ff 	mov    %rax,-0x2d90(%rbp)
    f3d7:	48 8d 85 88 cc ff ff 	lea    -0x3378(%rbp),%rax
    f3de:	48 83 c0 04          	add    $0x4,%rax
    f3e2:	48 89 85 78 d2 ff ff 	mov    %rax,-0x2d88(%rbp)
    f3e9:	48 8d 05 44 dc 00 00 	lea    0xdc44(%rip),%rax        # 1d034 <g_92>
    f3f0:	48 89 85 80 d2 ff ff 	mov    %rax,-0x2d80(%rbp)
    f3f7:	48 8d 05 42 dc 00 00 	lea    0xdc42(%rip),%rax        # 1d040 <g_93>
    f3fe:	48 89 85 88 d2 ff ff 	mov    %rax,-0x2d78(%rbp)
    f405:	48 c7 85 90 d2 ff ff 	movq   $0x0,-0x2d70(%rbp)
    f40c:	00 00 00 00 
    f410:	48 8d 05 89 dd 00 00 	lea    0xdd89(%rip),%rax        # 1d1a0 <g_237>
    f417:	48 89 85 98 d2 ff ff 	mov    %rax,-0x2d68(%rbp)
    f41e:	48 c7 85 a0 d2 ff ff 	movq   $0x0,-0x2d60(%rbp)
    f425:	00 00 00 00 
    f429:	48 8d 85 d8 ca ff ff 	lea    -0x3528(%rbp),%rax
    f430:	48 89 85 a8 d2 ff ff 	mov    %rax,-0x2d58(%rbp)
    f437:	48 8d 85 f0 de ff ff 	lea    -0x2110(%rbp),%rax
    f43e:	48 05 68 1a 00 00    	add    $0x1a68,%rax
    f444:	48 89 85 b0 d2 ff ff 	mov    %rax,-0x2d50(%rbp)
    f44b:	48 8d 85 88 cc ff ff 	lea    -0x3378(%rbp),%rax
    f452:	48 89 85 b8 d2 ff ff 	mov    %rax,-0x2d48(%rbp)
    f459:	48 8d 05 d4 db 00 00 	lea    0xdbd4(%rip),%rax        # 1d034 <g_92>
    f460:	48 89 85 c0 d2 ff ff 	mov    %rax,-0x2d40(%rbp)
    f467:	48 c7 85 c8 d2 ff ff 	movq   $0x0,-0x2d38(%rbp)
    f46e:	00 00 00 00 
    f472:	48 c7 85 d0 d2 ff ff 	movq   $0x0,-0x2d30(%rbp)
    f479:	00 00 00 00 
    f47d:	48 8d 05 b0 db 00 00 	lea    0xdbb0(%rip),%rax        # 1d034 <g_92>
    f484:	48 89 85 d8 d2 ff ff 	mov    %rax,-0x2d28(%rbp)
    f48b:	48 c7 85 e0 d2 ff ff 	movq   $0x0,-0x2d20(%rbp)
    f492:	00 00 00 00 
    f496:	48 8d 05 63 1c 01 00 	lea    0x11c63(%rip),%rax        # 21100 <g_90>
    f49d:	48 89 85 e8 d2 ff ff 	mov    %rax,-0x2d18(%rbp)
    f4a4:	48 c7 85 f0 d2 ff ff 	movq   $0x0,-0x2d10(%rbp)
    f4ab:	00 00 00 00 
    f4af:	48 8d 85 d8 ca ff ff 	lea    -0x3528(%rbp),%rax
    f4b6:	48 89 85 f8 d2 ff ff 	mov    %rax,-0x2d08(%rbp)
    f4bd:	48 8d 85 40 ca ff ff 	lea    -0x35c0(%rbp),%rax
    f4c4:	48 89 85 00 d3 ff ff 	mov    %rax,-0x2d00(%rbp)
    f4cb:	48 8d 85 88 cc ff ff 	lea    -0x3378(%rbp),%rax
    f4d2:	48 83 c0 04          	add    $0x4,%rax
    f4d6:	48 89 85 08 d3 ff ff 	mov    %rax,-0x2cf8(%rbp)
    f4dd:	48 8d 05 1c 1c 01 00 	lea    0x11c1c(%rip),%rax        # 21100 <g_90>
    f4e4:	48 89 85 10 d3 ff ff 	mov    %rax,-0x2cf0(%rbp)
    f4eb:	48 c7 85 18 d3 ff ff 	movq   $0x0,-0x2ce8(%rbp)
    f4f2:	00 00 00 00 
    f4f6:	48 8d 85 94 cc ff ff 	lea    -0x336c(%rbp),%rax
    f4fd:	48 83 c0 08          	add    $0x8,%rax
    f501:	48 89 85 20 d3 ff ff 	mov    %rax,-0x2ce0(%rbp)
    f508:	48 8d 05 f1 1b 01 00 	lea    0x11bf1(%rip),%rax        # 21100 <g_90>
    f50f:	48 89 85 28 d3 ff ff 	mov    %rax,-0x2cd8(%rbp)
    f516:	48 8d 05 e3 1b 01 00 	lea    0x11be3(%rip),%rax        # 21100 <g_90>
    f51d:	48 89 85 30 d3 ff ff 	mov    %rax,-0x2cd0(%rbp)
    f524:	48 8d 85 88 cc ff ff 	lea    -0x3378(%rbp),%rax
    f52b:	48 89 85 38 d3 ff ff 	mov    %rax,-0x2cc8(%rbp)
    f532:	48 8d 85 d8 ca ff ff 	lea    -0x3528(%rbp),%rax
    f539:	48 89 85 40 d3 ff ff 	mov    %rax,-0x2cc0(%rbp)
    f540:	48 8d 05 f9 da 00 00 	lea    0xdaf9(%rip),%rax        # 1d040 <g_93>
    f547:	48 89 85 48 d3 ff ff 	mov    %rax,-0x2cb8(%rbp)
    f54e:	48 8d 85 88 cc ff ff 	lea    -0x3378(%rbp),%rax
    f555:	48 83 c0 04          	add    $0x4,%rax
    f559:	48 89 85 50 d3 ff ff 	mov    %rax,-0x2cb0(%rbp)
    f560:	48 8d 05 cd da 00 00 	lea    0xdacd(%rip),%rax        # 1d034 <g_92>
    f567:	48 89 85 58 d3 ff ff 	mov    %rax,-0x2ca8(%rbp)
    f56e:	48 c7 85 60 d3 ff ff 	movq   $0x0,-0x2ca0(%rbp)
    f575:	00 00 00 00 
    f579:	48 8d 05 20 dc 00 00 	lea    0xdc20(%rip),%rax        # 1d1a0 <g_237>
    f580:	48 89 85 68 d3 ff ff 	mov    %rax,-0x2c98(%rbp)
    f587:	48 8d 05 72 1b 01 00 	lea    0x11b72(%rip),%rax        # 21100 <g_90>
    f58e:	48 89 85 70 d3 ff ff 	mov    %rax,-0x2c90(%rbp)
    f595:	48 8d 85 88 cc ff ff 	lea    -0x3378(%rbp),%rax
    f59c:	48 83 c0 04          	add    $0x4,%rax
    f5a0:	48 89 85 78 d3 ff ff 	mov    %rax,-0x2c88(%rbp)
    f5a7:	48 8d 05 82 da 00 00 	lea    0xda82(%rip),%rax        # 1d030 <g_42>
    f5ae:	48 89 85 80 d3 ff ff 	mov    %rax,-0x2c80(%rbp)
    f5b5:	48 8d 05 78 da 00 00 	lea    0xda78(%rip),%rax        # 1d034 <g_92>
    f5bc:	48 89 85 88 d3 ff ff 	mov    %rax,-0x2c78(%rbp)
    f5c3:	48 c7 85 90 d3 ff ff 	movq   $0x0,-0x2c70(%rbp)
    f5ca:	00 00 00 00 
    f5ce:	48 8d 05 2b 1b 01 00 	lea    0x11b2b(%rip),%rax        # 21100 <g_90>
    f5d5:	48 89 85 98 d3 ff ff 	mov    %rax,-0x2c68(%rbp)
    f5dc:	48 8d 85 94 cc ff ff 	lea    -0x336c(%rbp),%rax
    f5e3:	48 83 c0 04          	add    $0x4,%rax
    f5e7:	48 89 85 a0 d3 ff ff 	mov    %rax,-0x2c60(%rbp)
    f5ee:	48 8d 05 3b da 00 00 	lea    0xda3b(%rip),%rax        # 1d030 <g_42>
    f5f5:	48 89 85 a8 d3 ff ff 	mov    %rax,-0x2c58(%rbp)
    f5fc:	48 c7 85 b0 d3 ff ff 	movq   $0x0,-0x2c50(%rbp)
    f603:	00 00 00 00 
    f607:	48 8d 85 88 cc ff ff 	lea    -0x3378(%rbp),%rax
    f60e:	48 89 85 b8 d3 ff ff 	mov    %rax,-0x2c48(%rbp)
    f615:	48 8d 05 e4 1a 01 00 	lea    0x11ae4(%rip),%rax        # 21100 <g_90>
    f61c:	48 89 85 c0 d3 ff ff 	mov    %rax,-0x2c40(%rbp)
    f623:	48 8d 05 d6 1a 01 00 	lea    0x11ad6(%rip),%rax        # 21100 <g_90>
    f62a:	48 89 85 c8 d3 ff ff 	mov    %rax,-0x2c38(%rbp)
    f631:	48 8d 05 c8 1a 01 00 	lea    0x11ac8(%rip),%rax        # 21100 <g_90>
    f638:	48 89 85 d0 d3 ff ff 	mov    %rax,-0x2c30(%rbp)
    f63f:	48 8d 85 40 ca ff ff 	lea    -0x35c0(%rbp),%rax
    f646:	48 89 85 d8 d3 ff ff 	mov    %rax,-0x2c28(%rbp)
    f64d:	48 8d 05 ac 1a 01 00 	lea    0x11aac(%rip),%rax        # 21100 <g_90>
    f654:	48 89 85 e0 d3 ff ff 	mov    %rax,-0x2c20(%rbp)
    f65b:	48 8d 05 3e db 00 00 	lea    0xdb3e(%rip),%rax        # 1d1a0 <g_237>
    f662:	48 89 85 e8 d3 ff ff 	mov    %rax,-0x2c18(%rbp)
    f669:	48 8d 85 f0 de ff ff 	lea    -0x2110(%rbp),%rax
    f670:	48 05 68 1a 00 00    	add    $0x1a68,%rax
    f676:	48 89 85 f0 d3 ff ff 	mov    %rax,-0x2c10(%rbp)
    f67d:	48 8d 85 94 cc ff ff 	lea    -0x336c(%rbp),%rax
    f684:	48 83 c0 08          	add    $0x8,%rax
    f688:	48 89 85 f8 d3 ff ff 	mov    %rax,-0x2c08(%rbp)
    f68f:	48 8d 85 d8 ca ff ff 	lea    -0x3528(%rbp),%rax
    f696:	48 89 85 00 d4 ff ff 	mov    %rax,-0x2c00(%rbp)
    f69d:	48 8d 05 5c 1a 01 00 	lea    0x11a5c(%rip),%rax        # 21100 <g_90>
    f6a4:	48 89 85 08 d4 ff ff 	mov    %rax,-0x2bf8(%rbp)
    f6ab:	48 8d 85 94 cc ff ff 	lea    -0x336c(%rbp),%rax
    f6b2:	48 83 c0 08          	add    $0x8,%rax
    f6b6:	48 89 85 10 d4 ff ff 	mov    %rax,-0x2bf0(%rbp)
    f6bd:	48 8d 05 dc da 00 00 	lea    0xdadc(%rip),%rax        # 1d1a0 <g_237>
    f6c4:	48 89 85 18 d4 ff ff 	mov    %rax,-0x2be8(%rbp)
    f6cb:	48 8d 05 2e 1a 01 00 	lea    0x11a2e(%rip),%rax        # 21100 <g_90>
    f6d2:	48 89 85 20 d4 ff ff 	mov    %rax,-0x2be0(%rbp)
    f6d9:	48 8d 05 20 1a 01 00 	lea    0x11a20(%rip),%rax        # 21100 <g_90>
    f6e0:	48 89 85 28 d4 ff ff 	mov    %rax,-0x2bd8(%rbp)
    f6e7:	48 8d 05 12 1a 01 00 	lea    0x11a12(%rip),%rax        # 21100 <g_90>
    f6ee:	48 89 85 30 d4 ff ff 	mov    %rax,-0x2bd0(%rbp)
    f6f5:	48 8d 85 88 cc ff ff 	lea    -0x3378(%rbp),%rax
    f6fc:	48 89 85 38 d4 ff ff 	mov    %rax,-0x2bc8(%rbp)
    f703:	48 8d 05 26 d9 00 00 	lea    0xd926(%rip),%rax        # 1d030 <g_42>
    f70a:	48 89 85 40 d4 ff ff 	mov    %rax,-0x2bc0(%rbp)
    f711:	48 8d 85 94 cc ff ff 	lea    -0x336c(%rbp),%rax
    f718:	48 83 c0 08          	add    $0x8,%rax
    f71c:	48 89 85 48 d4 ff ff 	mov    %rax,-0x2bb8(%rbp)
    f723:	48 8d 05 06 d9 00 00 	lea    0xd906(%rip),%rax        # 1d030 <g_42>
    f72a:	48 89 85 50 d4 ff ff 	mov    %rax,-0x2bb0(%rbp)
    f731:	48 c7 85 58 d4 ff ff 	movq   $0x0,-0x2ba8(%rbp)
    f738:	00 00 00 00 
    f73c:	48 8d 85 94 cc ff ff 	lea    -0x336c(%rbp),%rax
    f743:	48 83 c0 04          	add    $0x4,%rax
    f747:	48 89 85 60 d4 ff ff 	mov    %rax,-0x2ba0(%rbp)
    f74e:	48 8d 85 94 cc ff ff 	lea    -0x336c(%rbp),%rax
    f755:	48 83 c0 04          	add    $0x4,%rax
    f759:	48 89 85 68 d4 ff ff 	mov    %rax,-0x2b98(%rbp)
    f760:	48 c7 85 70 d4 ff ff 	movq   $0x0,-0x2b90(%rbp)
    f767:	00 00 00 00 
    f76b:	48 8d 05 be d8 00 00 	lea    0xd8be(%rip),%rax        # 1d030 <g_42>
    f772:	48 89 85 78 d4 ff ff 	mov    %rax,-0x2b88(%rbp)
    f779:	48 8d 85 40 ca ff ff 	lea    -0x35c0(%rbp),%rax
    f780:	48 89 85 80 d4 ff ff 	mov    %rax,-0x2b80(%rbp)
    f787:	48 8d 85 d8 ca ff ff 	lea    -0x3528(%rbp),%rax
    f78e:	48 89 85 88 d4 ff ff 	mov    %rax,-0x2b78(%rbp)
    f795:	48 c7 85 90 d4 ff ff 	movq   $0x0,-0x2b70(%rbp)
    f79c:	00 00 00 00 
    f7a0:	48 8d 05 f9 d9 00 00 	lea    0xd9f9(%rip),%rax        # 1d1a0 <g_237>
    f7a7:	48 89 85 98 d4 ff ff 	mov    %rax,-0x2b68(%rbp)
    f7ae:	48 8d 85 88 cc ff ff 	lea    -0x3378(%rbp),%rax
    f7b5:	48 83 c0 04          	add    $0x4,%rax
    f7b9:	48 89 85 a0 d4 ff ff 	mov    %rax,-0x2b60(%rbp)
    f7c0:	48 c7 85 a8 d4 ff ff 	movq   $0x0,-0x2b58(%rbp)
    f7c7:	00 00 00 00 
    f7cb:	48 8d 85 d8 ca ff ff 	lea    -0x3528(%rbp),%rax
    f7d2:	48 89 85 b0 d4 ff ff 	mov    %rax,-0x2b50(%rbp)
    f7d9:	48 8d 85 d8 ca ff ff 	lea    -0x3528(%rbp),%rax
    f7e0:	48 89 85 b8 d4 ff ff 	mov    %rax,-0x2b48(%rbp)
    f7e7:	48 c7 85 c0 d4 ff ff 	movq   $0x0,-0x2b40(%rbp)
    f7ee:	00 00 00 00 
    f7f2:	48 8d 85 88 cc ff ff 	lea    -0x3378(%rbp),%rax
    f7f9:	48 83 c0 04          	add    $0x4,%rax
    f7fd:	48 89 85 c8 d4 ff ff 	mov    %rax,-0x2b38(%rbp)
    f804:	48 8d 05 f5 18 01 00 	lea    0x118f5(%rip),%rax        # 21100 <g_90>
    f80b:	48 89 85 d0 d4 ff ff 	mov    %rax,-0x2b30(%rbp)
    f812:	48 8d 05 17 d8 00 00 	lea    0xd817(%rip),%rax        # 1d030 <g_42>
    f819:	48 89 85 d8 d4 ff ff 	mov    %rax,-0x2b28(%rbp)
    f820:	48 c7 85 e0 d4 ff ff 	movq   $0x0,-0x2b20(%rbp)
    f827:	00 00 00 00 
    f82b:	48 8d 05 fe d7 00 00 	lea    0xd7fe(%rip),%rax        # 1d030 <g_42>
    f832:	48 89 85 e8 d4 ff ff 	mov    %rax,-0x2b18(%rbp)
    f839:	48 8d 05 f0 d7 00 00 	lea    0xd7f0(%rip),%rax        # 1d030 <g_42>
    f840:	48 89 85 f0 d4 ff ff 	mov    %rax,-0x2b10(%rbp)
    f847:	48 8d 85 94 cc ff ff 	lea    -0x336c(%rbp),%rax
    f84e:	48 83 c0 08          	add    $0x8,%rax
    f852:	48 89 85 f8 d4 ff ff 	mov    %rax,-0x2b08(%rbp)
    f859:	48 8d 05 a0 18 01 00 	lea    0x118a0(%rip),%rax        # 21100 <g_90>
    f860:	48 89 85 00 d5 ff ff 	mov    %rax,-0x2b00(%rbp)
    f867:	48 8d 85 f0 de ff ff 	lea    -0x2110(%rbp),%rax
    f86e:	48 05 68 1a 00 00    	add    $0x1a68,%rax
    f874:	48 89 85 08 d5 ff ff 	mov    %rax,-0x2af8(%rbp)
    f87b:	48 8d 05 7e 18 01 00 	lea    0x1187e(%rip),%rax        # 21100 <g_90>
    f882:	48 89 85 10 d5 ff ff 	mov    %rax,-0x2af0(%rbp)
    f889:	48 8d 05 a0 d7 00 00 	lea    0xd7a0(%rip),%rax        # 1d030 <g_42>
    f890:	48 89 85 18 d5 ff ff 	mov    %rax,-0x2ae8(%rbp)
    f897:	48 8d 05 62 18 01 00 	lea    0x11862(%rip),%rax        # 21100 <g_90>
    f89e:	48 89 85 20 d5 ff ff 	mov    %rax,-0x2ae0(%rbp)
    f8a5:	48 8d 05 88 d7 00 00 	lea    0xd788(%rip),%rax        # 1d034 <g_92>
    f8ac:	48 89 85 28 d5 ff ff 	mov    %rax,-0x2ad8(%rbp)
    f8b3:	48 c7 85 30 d5 ff ff 	movq   $0x0,-0x2ad0(%rbp)
    f8ba:	00 00 00 00 
    f8be:	48 8d 05 6b d7 00 00 	lea    0xd76b(%rip),%rax        # 1d030 <g_42>
    f8c5:	48 89 85 38 d5 ff ff 	mov    %rax,-0x2ac8(%rbp)
    f8cc:	48 8d 85 94 cc ff ff 	lea    -0x336c(%rbp),%rax
    f8d3:	48 83 c0 04          	add    $0x4,%rax
    f8d7:	48 89 85 40 d5 ff ff 	mov    %rax,-0x2ac0(%rbp)
    f8de:	48 8d 85 d8 ca ff ff 	lea    -0x3528(%rbp),%rax
    f8e5:	48 89 85 48 d5 ff ff 	mov    %rax,-0x2ab8(%rbp)
    f8ec:	48 c7 85 50 d5 ff ff 	movq   $0x0,-0x2ab0(%rbp)
    f8f3:	00 00 00 00 
    f8f7:	48 8d 85 94 cc ff ff 	lea    -0x336c(%rbp),%rax
    f8fe:	48 83 c0 08          	add    $0x8,%rax
    f902:	48 89 85 58 d5 ff ff 	mov    %rax,-0x2aa8(%rbp)
    f909:	48 8d 85 d8 ca ff ff 	lea    -0x3528(%rbp),%rax
    f910:	48 89 85 60 d5 ff ff 	mov    %rax,-0x2aa0(%rbp)
    f917:	48 8d 85 88 cc ff ff 	lea    -0x3378(%rbp),%rax
    f91e:	48 89 85 68 d5 ff ff 	mov    %rax,-0x2a98(%rbp)
    f925:	48 c7 85 70 d5 ff ff 	movq   $0x0,-0x2a90(%rbp)
    f92c:	00 00 00 00 
    f930:	48 8d 05 f9 d6 00 00 	lea    0xd6f9(%rip),%rax        # 1d030 <g_42>
    f937:	48 89 85 78 d5 ff ff 	mov    %rax,-0x2a88(%rbp)
    f93e:	48 8d 85 88 cc ff ff 	lea    -0x3378(%rbp),%rax
    f945:	48 89 85 80 d5 ff ff 	mov    %rax,-0x2a80(%rbp)
    f94c:	48 c7 85 88 d5 ff ff 	movq   $0x0,-0x2a78(%rbp)
    f953:	00 00 00 00 
    f957:	48 8d 05 d6 d6 00 00 	lea    0xd6d6(%rip),%rax        # 1d034 <g_92>
    f95e:	48 89 85 90 d5 ff ff 	mov    %rax,-0x2a70(%rbp)
    f965:	48 8d 85 88 cc ff ff 	lea    -0x3378(%rbp),%rax
    f96c:	48 89 85 98 d5 ff ff 	mov    %rax,-0x2a68(%rbp)
    f973:	48 8d 05 c6 d6 00 00 	lea    0xd6c6(%rip),%rax        # 1d040 <g_93>
    f97a:	48 89 85 a0 d5 ff ff 	mov    %rax,-0x2a60(%rbp)
    f981:	48 8d 85 d8 ca ff ff 	lea    -0x3528(%rbp),%rax
    f988:	48 89 85 a8 d5 ff ff 	mov    %rax,-0x2a58(%rbp)
    f98f:	48 8d 05 6a 17 01 00 	lea    0x1176a(%rip),%rax        # 21100 <g_90>
    f996:	48 89 85 b0 d5 ff ff 	mov    %rax,-0x2a50(%rbp)
    f99d:	48 c7 85 b8 d5 ff ff 	movq   $0x0,-0x2a48(%rbp)
    f9a4:	00 00 00 00 
    f9a8:	48 8d 85 94 cc ff ff 	lea    -0x336c(%rbp),%rax
    f9af:	48 83 c0 08          	add    $0x8,%rax
    f9b3:	48 89 85 c0 d5 ff ff 	mov    %rax,-0x2a40(%rbp)
    f9ba:	48 8d 85 f0 de ff ff 	lea    -0x2110(%rbp),%rax
    f9c1:	48 05 68 1a 00 00    	add    $0x1a68,%rax
    f9c7:	48 89 85 c8 d5 ff ff 	mov    %rax,-0x2a38(%rbp)
    f9ce:	48 c7 85 d0 d5 ff ff 	movq   $0x0,-0x2a30(%rbp)
    f9d5:	00 00 00 00 
    f9d9:	48 8d 05 50 d6 00 00 	lea    0xd650(%rip),%rax        # 1d030 <g_42>
    f9e0:	48 89 85 d8 d5 ff ff 	mov    %rax,-0x2a28(%rbp)
    f9e7:	48 8d 85 f0 de ff ff 	lea    -0x2110(%rbp),%rax
    f9ee:	48 05 68 1a 00 00    	add    $0x1a68,%rax
    f9f4:	48 89 85 e0 d5 ff ff 	mov    %rax,-0x2a20(%rbp)
    f9fb:	48 8d 05 fe 16 01 00 	lea    0x116fe(%rip),%rax        # 21100 <g_90>
    fa02:	48 89 85 e8 d5 ff ff 	mov    %rax,-0x2a18(%rbp)
    fa09:	48 8d 05 20 d6 00 00 	lea    0xd620(%rip),%rax        # 1d030 <g_42>
    fa10:	48 89 85 f0 d5 ff ff 	mov    %rax,-0x2a10(%rbp)
    fa17:	48 8d 85 40 ca ff ff 	lea    -0x35c0(%rbp),%rax
    fa1e:	48 89 85 f8 d5 ff ff 	mov    %rax,-0x2a08(%rbp)
    fa25:	48 8d 05 14 d6 00 00 	lea    0xd614(%rip),%rax        # 1d040 <g_93>
    fa2c:	48 89 85 00 d6 ff ff 	mov    %rax,-0x2a00(%rbp)
    fa33:	48 8d 85 d8 ca ff ff 	lea    -0x3528(%rbp),%rax
    fa3a:	48 89 85 08 d6 ff ff 	mov    %rax,-0x29f8(%rbp)
    fa41:	48 c7 85 10 d6 ff ff 	movq   $0x0,-0x29f0(%rbp)
    fa48:	00 00 00 00 
    fa4c:	48 8d 85 94 cc ff ff 	lea    -0x336c(%rbp),%rax
    fa53:	48 83 c0 04          	add    $0x4,%rax
    fa57:	48 89 85 18 d6 ff ff 	mov    %rax,-0x29e8(%rbp)
    fa5e:	48 8d 05 9b 16 01 00 	lea    0x1169b(%rip),%rax        # 21100 <g_90>
    fa65:	48 89 85 20 d6 ff ff 	mov    %rax,-0x29e0(%rbp)
    fa6c:	48 8d 05 bd d5 00 00 	lea    0xd5bd(%rip),%rax        # 1d030 <g_42>
    fa73:	48 89 85 28 d6 ff ff 	mov    %rax,-0x29d8(%rbp)
    fa7a:	48 8d 05 7f 16 01 00 	lea    0x1167f(%rip),%rax        # 21100 <g_90>
    fa81:	48 89 85 30 d6 ff ff 	mov    %rax,-0x29d0(%rbp)
    fa88:	48 8d 85 f0 de ff ff 	lea    -0x2110(%rbp),%rax
    fa8f:	48 05 68 1a 00 00    	add    $0x1a68,%rax
    fa95:	48 89 85 38 d6 ff ff 	mov    %rax,-0x29c8(%rbp)
    fa9c:	48 8d 05 91 d5 00 00 	lea    0xd591(%rip),%rax        # 1d034 <g_92>
    faa3:	48 89 85 40 d6 ff ff 	mov    %rax,-0x29c0(%rbp)
    faaa:	48 8d 05 4f 16 01 00 	lea    0x1164f(%rip),%rax        # 21100 <g_90>
    fab1:	48 89 85 48 d6 ff ff 	mov    %rax,-0x29b8(%rbp)
    fab8:	48 8d 85 94 cc ff ff 	lea    -0x336c(%rbp),%rax
    fabf:	48 83 c0 08          	add    $0x8,%rax
    fac3:	48 89 85 50 d6 ff ff 	mov    %rax,-0x29b0(%rbp)
    faca:	48 8d 05 2f 16 01 00 	lea    0x1162f(%rip),%rax        # 21100 <g_90>
    fad1:	48 89 85 58 d6 ff ff 	mov    %rax,-0x29a8(%rbp)
    fad8:	48 8d 85 94 cc ff ff 	lea    -0x336c(%rbp),%rax
    fadf:	48 83 c0 08          	add    $0x8,%rax
    fae3:	48 89 85 60 d6 ff ff 	mov    %rax,-0x29a0(%rbp)
    faea:	48 8d 85 88 cc ff ff 	lea    -0x3378(%rbp),%rax
    faf1:	48 89 85 68 d6 ff ff 	mov    %rax,-0x2998(%rbp)
    faf8:	48 8d 05 31 d5 00 00 	lea    0xd531(%rip),%rax        # 1d030 <g_42>
    faff:	48 89 85 70 d6 ff ff 	mov    %rax,-0x2990(%rbp)
    fb06:	48 8d 85 d8 ca ff ff 	lea    -0x3528(%rbp),%rax
    fb0d:	48 89 85 78 d6 ff ff 	mov    %rax,-0x2988(%rbp)
    fb14:	48 8d 85 f0 de ff ff 	lea    -0x2110(%rbp),%rax
    fb1b:	48 05 68 1a 00 00    	add    $0x1a68,%rax
    fb21:	48 89 85 80 d6 ff ff 	mov    %rax,-0x2980(%rbp)
    fb28:	48 8d 85 d8 ca ff ff 	lea    -0x3528(%rbp),%rax
    fb2f:	48 89 85 88 d6 ff ff 	mov    %rax,-0x2978(%rbp)
    fb36:	48 8d 05 f3 d4 00 00 	lea    0xd4f3(%rip),%rax        # 1d030 <g_42>
    fb3d:	48 89 85 90 d6 ff ff 	mov    %rax,-0x2970(%rbp)
    fb44:	48 c7 85 98 d6 ff ff 	movq   $0x0,-0x2968(%rbp)
    fb4b:	00 00 00 00 
    fb4f:	48 c7 85 a0 d6 ff ff 	movq   $0x0,-0x2960(%rbp)
    fb56:	00 00 00 00 
    fb5a:	48 8d 05 9f 15 01 00 	lea    0x1159f(%rip),%rax        # 21100 <g_90>
    fb61:	48 89 85 a8 d6 ff ff 	mov    %rax,-0x2958(%rbp)
    fb68:	48 8d 85 88 cc ff ff 	lea    -0x3378(%rbp),%rax
    fb6f:	48 89 85 b0 d6 ff ff 	mov    %rax,-0x2950(%rbp)
    fb76:	48 8d 05 23 d6 00 00 	lea    0xd623(%rip),%rax        # 1d1a0 <g_237>
    fb7d:	48 89 85 b8 d6 ff ff 	mov    %rax,-0x2948(%rbp)
    fb84:	48 c7 85 c0 d6 ff ff 	movq   $0x0,-0x2940(%rbp)
    fb8b:	00 00 00 00 
    fb8f:	48 8d 85 94 cc ff ff 	lea    -0x336c(%rbp),%rax
    fb96:	48 83 c0 04          	add    $0x4,%rax
    fb9a:	48 89 85 c8 d6 ff ff 	mov    %rax,-0x2938(%rbp)
    fba1:	48 8d 05 58 15 01 00 	lea    0x11558(%rip),%rax        # 21100 <g_90>
    fba8:	48 89 85 d0 d6 ff ff 	mov    %rax,-0x2930(%rbp)
    fbaf:	48 8d 85 88 cc ff ff 	lea    -0x3378(%rbp),%rax
    fbb6:	48 89 85 d8 d6 ff ff 	mov    %rax,-0x2928(%rbp)
    fbbd:	48 8d 85 88 cc ff ff 	lea    -0x3378(%rbp),%rax
    fbc4:	48 83 c0 04          	add    $0x4,%rax
    fbc8:	48 89 85 e0 d6 ff ff 	mov    %rax,-0x2920(%rbp)
    fbcf:	48 c7 85 e8 d6 ff ff 	movq   $0x0,-0x2918(%rbp)
    fbd6:	00 00 00 00 
    fbda:	48 8d 85 88 cc ff ff 	lea    -0x3378(%rbp),%rax
    fbe1:	48 83 c0 04          	add    $0x4,%rax
    fbe5:	48 89 85 f0 d6 ff ff 	mov    %rax,-0x2910(%rbp)
    fbec:	48 c7 85 f8 d6 ff ff 	movq   $0x0,-0x2908(%rbp)
    fbf3:	00 00 00 00 
    fbf7:	48 8d 85 f0 de ff ff 	lea    -0x2110(%rbp),%rax
    fbfe:	48 05 68 1a 00 00    	add    $0x1a68,%rax
    fc04:	48 89 85 00 d7 ff ff 	mov    %rax,-0x2900(%rbp)
    fc0b:	c7 85 4c ca ff ff 00 	movl   $0x0,-0x35b4(%rbp)
    fc12:	00 00 00 
    fc15:	eb 1a                	jmp    fc31 <func_66+0x1250>
    fc17:	8b 85 4c ca ff ff    	mov    -0x35b4(%rbp),%eax
    fc1d:	48 98                	cltq   
    fc1f:	c7 84 85 88 cc ff ff 	movl   $0x0,-0x3378(%rbp,%rax,4)
    fc26:	00 00 00 00 
    fc2a:	83 85 4c ca ff ff 01 	addl   $0x1,-0x35b4(%rbp)
    fc31:	83 bd 4c ca ff ff 01 	cmpl   $0x1,-0x35b4(%rbp)
    fc38:	7e dd                	jle    fc17 <func_66+0x1236>
    fc3a:	48 8b 85 b0 cb ff ff 	mov    -0x3450(%rbp),%rax
    fc41:	25 7c 74 0d 3a       	and    $0x3a0d747c,%eax
    fc46:	48 85 c0             	test   %rax,%rax
    fc49:	0f 84 7c 0a 00 00    	je     106cb <func_66+0x1cea>
    fc4f:	48 c7 85 e0 cb ff ff 	movq   $0x0,-0x3420(%rbp)
    fc56:	00 00 00 00 
    fc5a:	c7 85 50 ca ff ff 00 	movl   $0x0,-0x35b0(%rbp)
    fc61:	00 00 00 
    fc64:	eb 1b                	jmp    fc81 <func_66+0x12a0>
    fc66:	8b 85 50 ca ff ff    	mov    -0x35b0(%rbp),%eax
    fc6c:	48 98                	cltq   
    fc6e:	48 c7 84 c5 78 cc ff 	movq   $0x0,-0x3388(%rbp,%rax,8)
    fc75:	ff 00 00 00 00 
    fc7a:	83 85 50 ca ff ff 01 	addl   $0x1,-0x35b0(%rbp)
    fc81:	83 bd 50 ca ff ff 00 	cmpl   $0x0,-0x35b0(%rbp)
    fc88:	7e dc                	jle    fc66 <func_66+0x1285>
    fc8a:	c6 85 1c ca ff ff 00 	movb   $0x0,-0x35e4(%rbp)
    fc91:	e9 2c 09 00 00       	jmpq   105c2 <func_66+0x1be1>
    fc96:	48 8d 05 13 d4 00 00 	lea    0xd413(%rip),%rax        # 1d0b0 <g_95+0x30>
    fc9d:	48 89 85 e8 cb ff ff 	mov    %rax,-0x3418(%rbp)
    fca4:	c7 85 54 ca ff ff 01 	movl   $0x1,-0x35ac(%rbp)
    fcab:	00 00 00 
    fcae:	c7 85 b0 ca ff ff ff 	movl   $0xffffffff,-0x3550(%rbp)
    fcb5:	ff ff ff 
    fcb8:	48 8d 85 10 d7 ff ff 	lea    -0x28f0(%rbp),%rax
    fcbf:	48 8d 15 fa ee 00 00 	lea    0xeefa(%rip),%rdx        # 1ebc0 <g_2602+0xcf7>
    fcc6:	b9 fc 00 00 00       	mov    $0xfc,%ecx
    fccb:	48 89 c7             	mov    %rax,%rdi
    fcce:	48 89 d6             	mov    %rdx,%rsi
    fcd1:	f3 48 a5             	rep movsq %ds:(%rsi),%es:(%rdi)
    fcd4:	48 8d 05 11 d4 00 00 	lea    0xd411(%rip),%rax        # 1d0ec <g_149>
    fcdb:	48 89 85 f0 cb ff ff 	mov    %rax,-0x3410(%rbp)
    fce2:	48 8d 05 7b d3 00 00 	lea    0xd37b(%rip),%rax        # 1d064 <g_93+0x24>
    fce9:	48 89 85 f8 cb ff ff 	mov    %rax,-0x3408(%rbp)
    fcf0:	48 8b 85 78 cc ff ff 	mov    -0x3388(%rbp),%rax
    fcf7:	48 85 c0             	test   %rax,%rax
    fcfa:	0f 84 0d 04 00 00    	je     1010d <func_66+0x172c>
    fd00:	48 8d 85 10 ce ff ff 	lea    -0x31f0(%rbp),%rax
    fd07:	48 8d 15 92 f6 00 00 	lea    0xf692(%rip),%rdx        # 1f3a0 <g_2602+0x14d7>
    fd0e:	b9 2a 00 00 00       	mov    $0x2a,%ecx
    fd13:	48 89 c7             	mov    %rax,%rdi
    fd16:	48 89 d6             	mov    %rdx,%rsi
    fd19:	f3 48 a5             	rep movsq %ds:(%rsi),%es:(%rdi)
    fd1c:	48 8d 85 10 ce ff ff 	lea    -0x31f0(%rbp),%rax
    fd23:	48 83 c0 68          	add    $0x68,%rax
    fd27:	48 89 85 18 cc ff ff 	mov    %rax,-0x33e8(%rbp)
    fd2e:	48 8d 85 b8 ca ff ff 	lea    -0x3548(%rbp),%rax
    fd35:	48 89 85 50 cc ff ff 	mov    %rax,-0x33b0(%rbp)
    fd3c:	c7 85 e0 cc ff ff fb 	movl   $0xfffffffb,-0x3320(%rbp)
    fd43:	ff ff ff 
    fd46:	c7 85 e4 cc ff ff fb 	movl   $0xfffffffb,-0x331c(%rbp)
    fd4d:	ff ff ff 
    fd50:	c7 85 e8 cc ff ff fb 	movl   $0xfffffffb,-0x3318(%rbp)
    fd57:	ff ff ff 
    fd5a:	c7 85 ec cc ff ff fb 	movl   $0xfffffffb,-0x3314(%rbp)
    fd61:	ff ff ff 
    fd64:	c7 85 f0 cc ff ff fb 	movl   $0xfffffffb,-0x3310(%rbp)
    fd6b:	ff ff ff 
    fd6e:	c7 85 f4 cc ff ff fb 	movl   $0xfffffffb,-0x330c(%rbp)
    fd75:	ff ff ff 
    fd78:	c7 85 f8 cc ff ff fb 	movl   $0xfffffffb,-0x3308(%rbp)
    fd7f:	ff ff ff 
    fd82:	c7 85 fc cc ff ff fb 	movl   $0xfffffffb,-0x3304(%rbp)
    fd89:	ff ff ff 
    fd8c:	c7 85 00 cd ff ff fb 	movl   $0xfffffffb,-0x3300(%rbp)
    fd93:	ff ff ff 
    fd96:	c7 85 04 cd ff ff fb 	movl   $0xfffffffb,-0x32fc(%rbp)
    fd9d:	ff ff ff 
    fda0:	c7 85 08 cd ff ff fb 	movl   $0xfffffffb,-0x32f8(%rbp)
    fda7:	ff ff ff 
    fdaa:	c7 85 0c cd ff ff fb 	movl   $0xfffffffb,-0x32f4(%rbp)
    fdb1:	ff ff ff 
    fdb4:	c7 85 10 cd ff ff fb 	movl   $0xfffffffb,-0x32f0(%rbp)
    fdbb:	ff ff ff 
    fdbe:	c7 85 14 cd ff ff fb 	movl   $0xfffffffb,-0x32ec(%rbp)
    fdc5:	ff ff ff 
    fdc8:	c7 85 18 cd ff ff fb 	movl   $0xfffffffb,-0x32e8(%rbp)
    fdcf:	ff ff ff 
    fdd2:	c7 85 1c cd ff ff fb 	movl   $0xfffffffb,-0x32e4(%rbp)
    fdd9:	ff ff ff 
    fddc:	48 8d 05 7d d2 00 00 	lea    0xd27d(%rip),%rax        # 1d060 <g_93+0x20>
    fde3:	48 89 85 20 cc ff ff 	mov    %rax,-0x33e0(%rbp)
    fdea:	48 8d 05 17 fd 00 00 	lea    0xfd17(%rip),%rax        # 1fb08 <g_139+0x5e8>
    fdf1:	48 89 85 28 cc ff ff 	mov    %rax,-0x33d8(%rbp)
    fdf8:	48 c7 85 30 cc ff ff 	movq   $0x0,-0x33d0(%rbp)
    fdff:	00 00 00 00 
    fe03:	48 8d 85 50 cc ff ff 	lea    -0x33b0(%rbp),%rax
    fe0a:	48 89 85 38 cc ff ff 	mov    %rax,-0x33c8(%rbp)
    fe11:	48 8d 05 d3 12 01 00 	lea    0x112d3(%rip),%rax        # 210eb <g_54+0x3>
    fe18:	48 89 85 40 cc ff ff 	mov    %rax,-0x33c0(%rbp)
    fe1f:	48 8d 05 c6 d2 00 00 	lea    0xd2c6(%rip),%rax        # 1d0ec <g_149>
    fe26:	48 89 85 48 cc ff ff 	mov    %rax,-0x33b8(%rbp)
    fe2d:	c6 85 33 ca ff ff 64 	movb   $0x64,-0x35cd(%rbp)
    fe34:	c7 85 b4 ca ff ff 0c 	movl   $0xf492790c,-0x354c(%rbp)
    fe3b:	79 92 f4 
    fe3e:	8b 05 94 d2 00 00    	mov    0xd294(%rip),%eax        # 1d0d8 <g_108+0x18>
    fe44:	0f b6 05 a0 12 01 00 	movzbl 0x112a0(%rip),%eax        # 210eb <g_54+0x3>
    fe4b:	0f be d0             	movsbl %al,%edx
    fe4e:	48 8b 85 18 cc ff ff 	mov    -0x33e8(%rbp),%rax
    fe55:	48 8d 0d cc d1 00 00 	lea    0xd1cc(%rip),%rcx        # 1d028 <g_11>
    fe5c:	48 89 08             	mov    %rcx,(%rax)
    fe5f:	48 8b 85 18 cc ff ff 	mov    -0x33e8(%rbp),%rax
    fe66:	48 8b 00             	mov    (%rax),%rax
    fe69:	48 39 85 e8 cb ff ff 	cmp    %rax,-0x3418(%rbp)
    fe70:	0f 95 c0             	setne  %al
    fe73:	0f b6 c0             	movzbl %al,%eax
    fe76:	09 d0                	or     %edx,%eax
    fe78:	be 00 00 00 00       	mov    $0x0,%esi
    fe7d:	89 c7                	mov    %eax,%edi
    fe7f:	e8 52 77 ff ff       	callq  75d6 <safe_add_func_int32_t_s_s>
    fe84:	0f b6 95 1c ca ff ff 	movzbl -0x35e4(%rbp),%edx
    fe8b:	89 15 a3 d1 00 00    	mov    %edx,0xd1a3(%rip)        # 1d034 <g_92>
    fe91:	8b 15 9d d1 00 00    	mov    0xd19d(%rip),%edx        # 1d034 <g_92>
    fe97:	8b 0d 63 12 01 00    	mov    0x11263(%rip),%ecx        # 21100 <g_90>
    fe9d:	21 c8                	and    %ecx,%eax
    fe9f:	89 05 5b 12 01 00    	mov    %eax,0x1125b(%rip)        # 21100 <g_90>
    fea5:	8b 05 55 12 01 00    	mov    0x11255(%rip),%eax        # 21100 <g_90>
    feab:	39 c2                	cmp    %eax,%edx
    fead:	0f 95 c0             	setne  %al
    feb0:	0f b6 c0             	movzbl %al,%eax
    feb3:	48 be d1 a3 0f 63 ea 	movabs $0xaa8532ea630fa3d1,%rsi
    feba:	32 85 aa 
    febd:	48 89 c7             	mov    %rax,%rdi
    fec0:	e8 52 7b ff ff       	callq  7a17 <safe_div_func_int64_t_s_s>
    fec5:	48 89 c2             	mov    %rax,%rdx
    fec8:	48 8b 85 50 cc ff ff 	mov    -0x33b0(%rbp),%rax
    fecf:	48 8b 8d b8 ca ff ff 	mov    -0x3548(%rbp),%rcx
    fed6:	48 89 08             	mov    %rcx,(%rax)
    fed9:	48 8b 00             	mov    (%rax),%rax
    fedc:	48 39 85 10 ca ff ff 	cmp    %rax,-0x35f0(%rbp)
    fee3:	0f 95 c0             	setne  %al
    fee6:	0f b6 c0             	movzbl %al,%eax
    fee9:	48 39 c2             	cmp    %rax,%rdx
    feec:	0f 9e c0             	setle  %al
    feef:	0f b6 c0             	movzbl %al,%eax
    fef2:	be 02 00 00 00       	mov    $0x2,%esi
    fef7:	89 c7                	mov    %eax,%edi
    fef9:	e8 4c 76 ff ff       	callq  754a <safe_rshift_func_int16_t_s_s>
    fefe:	48 0f bf d0          	movswq %ax,%rdx
    ff02:	48 8b 05 1f d1 00 00 	mov    0xd11f(%rip),%rax        # 1d028 <g_11>
    ff09:	48 39 c2             	cmp    %rax,%rdx
    ff0c:	ba 00 00 00 00       	mov    $0x0,%edx
    ff11:	8b 85 e4 cc ff ff    	mov    -0x331c(%rbp),%eax
    ff17:	09 d0                	or     %edx,%eax
    ff19:	89 85 e4 cc ff ff    	mov    %eax,-0x331c(%rbp)
    ff1f:	8b 05 0f d1 00 00    	mov    0xd10f(%rip),%eax        # 1d034 <g_92>
    ff25:	83 e0 01             	and    $0x1,%eax
    ff28:	89 05 06 d1 00 00    	mov    %eax,0xd106(%rip)        # 1d034 <g_92>
    ff2e:	0f b6 9d 33 ca ff ff 	movzbl -0x35cd(%rbp),%ebx
    ff35:	48 8b 15 cc fb 00 00 	mov    0xfbcc(%rip),%rdx        # 1fb08 <g_139+0x5e8>
    ff3c:	48 8b 85 28 cc ff ff 	mov    -0x33d8(%rbp),%rax
    ff43:	48 89 10             	mov    %rdx,(%rax)
    ff46:	48 8b 85 28 cc ff ff 	mov    -0x33d8(%rbp),%rax
    ff4d:	48 8b 08             	mov    (%rax),%rcx
    ff50:	48 8b 85 38 cc ff ff 	mov    -0x33c8(%rbp),%rax
    ff57:	48 8b 95 b8 cb ff ff 	mov    -0x3448(%rbp),%rdx
    ff5e:	48 89 10             	mov    %rdx,(%rax)
    ff61:	48 8b 85 38 cc ff ff 	mov    -0x33c8(%rbp),%rax
    ff68:	48 8b 00             	mov    (%rax),%rax
    ff6b:	48 39 c1             	cmp    %rax,%rcx
    ff6e:	0f 95 c0             	setne  %al
    ff71:	0f b6 d0             	movzbl %al,%edx
    ff74:	8b 05 6e d1 00 00    	mov    0xd16e(%rip),%eax        # 1d0e8 <g_144>
    ff7a:	21 d0                	and    %edx,%eax
    ff7c:	89 05 66 d1 00 00    	mov    %eax,0xd166(%rip)        # 1d0e8 <g_144>
    ff82:	8b 05 60 d1 00 00    	mov    0xd160(%rip),%eax        # 1d0e8 <g_144>
    ff88:	0f b7 c0             	movzwl %ax,%eax
    ff8b:	be 08 00 00 00       	mov    $0x8,%esi
    ff90:	89 c7                	mov    %eax,%edi
    ff92:	e8 8f 7e ff ff       	callq  7e26 <safe_lshift_func_uint16_t_u_u>
    ff97:	66 85 c0             	test   %ax,%ax
    ff9a:	74 47                	je     ffe3 <func_66+0x1602>
    ff9c:	48 83 bd e8 ca ff ff 	cmpq   $0x0,-0x3518(%rbp)
    ffa3:	00 
    ffa4:	0f 95 c0             	setne  %al
    ffa7:	89 c2                	mov    %eax,%edx
    ffa9:	48 8b 85 40 cc ff ff 	mov    -0x33c0(%rbp),%rax
    ffb0:	88 10                	mov    %dl,(%rax)
    ffb2:	48 8b 85 40 cc ff ff 	mov    -0x33c0(%rbp),%rax
    ffb9:	0f b6 10             	movzbl (%rax),%edx
    ffbc:	48 8b 85 48 cc ff ff 	mov    -0x33b8(%rbp),%rax
    ffc3:	88 10                	mov    %dl,(%rax)
    ffc5:	48 8b 85 48 cc ff ff 	mov    -0x33b8(%rbp),%rax
    ffcc:	0f b6 00             	movzbl (%rax),%eax
    ffcf:	84 c0                	test   %al,%al
    ffd1:	75 09                	jne    ffdc <func_66+0x15fb>
    ffd3:	80 bd 1c ca ff ff 00 	cmpb   $0x0,-0x35e4(%rbp)
    ffda:	74 07                	je     ffe3 <func_66+0x1602>
    ffdc:	b8 01 00 00 00       	mov    $0x1,%eax
    ffe1:	eb 05                	jmp    ffe8 <func_66+0x1607>
    ffe3:	b8 00 00 00 00       	mov    $0x0,%eax
    ffe8:	44 0f be e0          	movsbl %al,%r12d
    ffec:	48 83 bd b8 cb ff ff 	cmpq   $0x0,-0x3448(%rbp)
    fff3:	00 
    fff4:	0f 95 c0             	setne  %al
    fff7:	0f b6 c0             	movzbl %al,%eax
    fffa:	89 c6                	mov    %eax,%esi
    fffc:	bf e2 bf 00 00       	mov    $0xbfe2,%edi
   10001:	e8 39 7d ff ff       	callq  7d3f <safe_sub_func_uint16_t_u_u>
   10006:	66 85 c0             	test   %ax,%ax
   10009:	74 13                	je     1001e <func_66+0x163d>
   1000b:	48 8b 05 16 d0 00 00 	mov    0xd016(%rip),%rax        # 1d028 <g_11>
   10012:	48 85 c0             	test   %rax,%rax
   10015:	74 07                	je     1001e <func_66+0x163d>
   10017:	b8 01 00 00 00       	mov    $0x1,%eax
   1001c:	eb 05                	jmp    10023 <func_66+0x1642>
   1001e:	b8 00 00 00 00       	mov    $0x0,%eax
   10023:	0f be c0             	movsbl %al,%eax
   10026:	44 89 e6             	mov    %r12d,%esi
   10029:	89 c7                	mov    %eax,%edi
   1002b:	e8 02 72 ff ff       	callq  7232 <safe_mul_func_int8_t_s_s>
   10030:	0f be c0             	movsbl %al,%eax
   10033:	be f9 88 18 f9       	mov    $0xf91888f9,%esi
   10038:	89 c7                	mov    %eax,%edi
   1003a:	e8 97 75 ff ff       	callq  75d6 <safe_add_func_int32_t_s_s>
   1003f:	89 de                	mov    %ebx,%esi
   10041:	bf 01 00 00 00       	mov    $0x1,%edi
   10046:	e8 ff 74 ff ff       	callq  754a <safe_rshift_func_int16_t_s_s>
   1004b:	0f b7 c0             	movzwl %ax,%eax
   1004e:	be 0b 00 00 00       	mov    $0xb,%esi
   10053:	89 c7                	mov    %eax,%edi
   10055:	e8 40 7e ff ff       	callq  7e9a <safe_rshift_func_uint16_t_u_u>
   1005a:	48 83 bd b0 cb ff ff 	cmpq   $0x0,-0x3450(%rbp)
   10061:	00 
   10062:	75 09                	jne    1006d <func_66+0x168c>
   10064:	0f b6 05 7a d0 00 00 	movzbl 0xd07a(%rip),%eax        # 1d0e5 <g_108+0x25>
   1006b:	84 c0                	test   %al,%al
   1006d:	8b 85 54 ca ff ff    	mov    -0x35ac(%rbp),%eax
   10073:	48 8b 95 20 cc ff ff 	mov    -0x33e0(%rbp),%rdx
   1007a:	8b 12                	mov    (%rdx),%edx
   1007c:	8d 4a ff             	lea    -0x1(%rdx),%ecx
   1007f:	48 8b 95 20 cc ff ff 	mov    -0x33e0(%rbp),%rdx
   10086:	89 0a                	mov    %ecx,(%rdx)
   10088:	48 8b 95 20 cc ff ff 	mov    -0x33e0(%rbp),%rdx
   1008f:	8b 12                	mov    (%rdx),%edx
   10091:	09 85 b4 ca ff ff    	or     %eax,-0x354c(%rbp)
   10097:	8b 85 b4 ca ff ff    	mov    -0x354c(%rbp),%eax
   1009d:	09 d0                	or     %edx,%eax
   1009f:	89 85 54 ca ff ff    	mov    %eax,-0x35ac(%rbp)
   100a5:	8b 05 2d d0 00 00    	mov    0xd02d(%rip),%eax        # 1d0d8 <g_108+0x18>
   100ab:	0f b6 85 2e ca ff ff 	movzbl -0x35d2(%rbp),%eax
   100b2:	48 0f be d8          	movsbq %al,%rbx
   100b6:	be 00 00 00 00       	mov    $0x0,%esi
   100bb:	bf 07 00 00 00       	mov    $0x7,%edi
   100c0:	e8 19 7d ff ff       	callq  7dde <safe_lshift_func_uint16_t_u_s>
   100c5:	66 85 c0             	test   %ax,%ax
   100c8:	0f 94 c0             	sete   %al
   100cb:	0f b6 c0             	movzbl %al,%eax
   100ce:	48 89 de             	mov    %rbx,%rsi
   100d1:	48 89 c7             	mov    %rax,%rdi
   100d4:	e8 75 7f ff ff       	callq  804e <safe_add_func_uint64_t_u_u>
   100d9:	89 c0                	mov    %eax,%eax
   100db:	48 85 c0             	test   %rax,%rax
   100de:	0f 94 c0             	sete   %al
   100e1:	0f b6 c0             	movzbl %al,%eax
   100e4:	be bb dc 67 e9       	mov    $0xe967dcbb,%esi
   100e9:	89 c7                	mov    %eax,%edi
   100eb:	e8 e8 7d ff ff       	callq  7ed8 <safe_add_func_uint32_t_u_u>
   100f0:	8b 95 9c cc ff ff    	mov    -0x3364(%rbp),%edx
   100f6:	31 d0                	xor    %edx,%eax
   100f8:	89 85 9c cc ff ff    	mov    %eax,-0x3364(%rbp)
   100fe:	c7 05 28 cf 00 00 02 	movl   $0x2,0xcf28(%rip)        # 1d030 <g_42>
   10105:	00 00 00 
   10108:	e9 ac 03 00 00       	jmpq   104b9 <func_66+0x1ad8>
   1010d:	48 b8 d9 00 4d 50 55 	movabs $0x9fdd955504d00d9,%rax
   10114:	d9 fd 09 
   10117:	48 89 85 50 cc ff ff 	mov    %rax,-0x33b0(%rbp)
   1011e:	c7 85 10 ce ff ff cb 	movl   $0x2101fbcb,-0x31f0(%rbp)
   10125:	fb 01 21 
   10128:	c7 85 14 ce ff ff cb 	movl   $0x2101fbcb,-0x31ec(%rbp)
   1012f:	fb 01 21 
   10132:	c7 85 18 ce ff ff cb 	movl   $0x2101fbcb,-0x31e8(%rbp)
   10139:	fb 01 21 
   1013c:	c7 85 1c ce ff ff cb 	movl   $0x2101fbcb,-0x31e4(%rbp)
   10143:	fb 01 21 
   10146:	c7 85 20 ce ff ff cb 	movl   $0x2101fbcb,-0x31e0(%rbp)
   1014d:	fb 01 21 
   10150:	c7 85 24 ce ff ff cb 	movl   $0x2101fbcb,-0x31dc(%rbp)
   10157:	fb 01 21 
   1015a:	66 c7 85 3a ca ff ff 	movw   $0xb19,-0x35c6(%rbp)
   10161:	19 0b 
   10163:	c7 05 c3 ce 00 00 00 	movl   $0x0,0xcec3(%rip)        # 1d030 <g_42>
   1016a:	00 00 00 
   1016d:	e9 e2 02 00 00       	jmpq   10454 <func_66+0x1a73>
   10172:	48 8d 05 73 cf 00 00 	lea    0xcf73(%rip),%rax        # 1d0ec <g_149>
   10179:	48 89 85 00 cc ff ff 	mov    %rax,-0x3400(%rbp)
   10180:	48 8d 05 81 f3 00 00 	lea    0xf381(%rip),%rax        # 1f508 <g_101>
   10187:	48 89 85 08 cc ff ff 	mov    %rax,-0x33f8(%rbp)
   1018e:	48 8d 05 cf ce 00 00 	lea    0xcecf(%rip),%rax        # 1d064 <g_93+0x24>
   10195:	48 89 85 10 cc ff ff 	mov    %rax,-0x33f0(%rbp)
   1019c:	c7 85 58 ca ff ff 00 	movl   $0x0,-0x35a8(%rbp)
   101a3:	00 00 00 
   101a6:	eb 1e                	jmp    101c6 <func_66+0x17e5>
   101a8:	8b 85 58 ca ff ff    	mov    -0x35a8(%rbp),%eax
   101ae:	48 98                	cltq   
   101b0:	48 8d 15 37 cf 00 00 	lea    0xcf37(%rip),%rdx        # 1d0ee <g_177>
   101b7:	48 89 94 c5 80 cc ff 	mov    %rdx,-0x3380(%rbp,%rax,8)
   101be:	ff 
   101bf:	83 85 58 ca ff ff 01 	addl   $0x1,-0x35a8(%rbp)
   101c6:	83 bd 58 ca ff ff 00 	cmpl   $0x0,-0x35a8(%rbp)
   101cd:	7e d9                	jle    101a8 <func_66+0x17c7>
   101cf:	c7 85 58 ca ff ff 00 	movl   $0x0,-0x35a8(%rbp)
   101d6:	00 00 00 
   101d9:	eb 1e                	jmp    101f9 <func_66+0x1818>
   101db:	8b 85 58 ca ff ff    	mov    -0x35a8(%rbp),%eax
   101e1:	48 98                	cltq   
   101e3:	48 8d 95 50 cc ff ff 	lea    -0x33b0(%rbp),%rdx
   101ea:	48 89 94 c5 e0 cc ff 	mov    %rdx,-0x3320(%rbp,%rax,8)
   101f1:	ff 
   101f2:	83 85 58 ca ff ff 01 	addl   $0x1,-0x35a8(%rbp)
   101f9:	83 bd 58 ca ff ff 00 	cmpl   $0x0,-0x35a8(%rbp)
   10200:	7e d9                	jle    101db <func_66+0x17fa>
   10202:	48 8b 85 50 cc ff ff 	mov    -0x33b0(%rbp),%rax
   10209:	48 85 c0             	test   %rax,%rax
   1020c:	74 14                	je     10222 <func_66+0x1841>
   1020e:	48 8b 05 fb f2 00 00 	mov    0xf2fb(%rip),%rax        # 1f510 <g_140>
   10215:	8b 00                	mov    (%rax),%eax
   10217:	85 c0                	test   %eax,%eax
   10219:	74 07                	je     10222 <func_66+0x1841>
   1021b:	bb 01 00 00 00       	mov    $0x1,%ebx
   10220:	eb 05                	jmp    10227 <func_66+0x1846>
   10222:	bb 00 00 00 00       	mov    $0x0,%ebx
   10227:	48 8b 85 08 cc ff ff 	mov    -0x33f8(%rbp),%rax
   1022e:	48 89 85 f0 ca ff ff 	mov    %rax,-0x3510(%rbp)
   10235:	48 8d 05 cc f2 00 00 	lea    0xf2cc(%rip),%rax        # 1f508 <g_101>
   1023c:	48 39 85 f0 ca ff ff 	cmp    %rax,-0x3510(%rbp)
   10243:	0f 95 c0             	setne  %al
   10246:	0f b6 c0             	movzbl %al,%eax
   10249:	be 00 00 00 00       	mov    $0x0,%esi
   1024e:	89 c7                	mov    %eax,%edi
   10250:	e8 17 7a ff ff       	callq  7c6c <safe_lshift_func_uint8_t_u_u>
   10255:	0f b6 c0             	movzbl %al,%eax
   10258:	89 de                	mov    %ebx,%esi
   1025a:	89 c7                	mov    %eax,%edi
   1025c:	e8 51 72 ff ff       	callq  74b2 <safe_lshift_func_int16_t_s_s>
   10261:	89 c2                	mov    %eax,%edx
   10263:	48 8b 85 10 cc ff ff 	mov    -0x33f0(%rbp),%rax
   1026a:	88 10                	mov    %dl,(%rax)
   1026c:	48 8b 85 10 cc ff ff 	mov    -0x33f0(%rbp),%rax
   10273:	0f b6 00             	movzbl (%rax),%eax
   10276:	0f b6 c0             	movzbl %al,%eax
   10279:	89 c6                	mov    %eax,%esi
   1027b:	bf 05 00 00 00       	mov    $0x5,%edi
   10280:	e8 e7 79 ff ff       	callq  7c6c <safe_lshift_func_uint8_t_u_u>
   10285:	0f b6 c0             	movzbl %al,%eax
   10288:	89 85 40 ca ff ff    	mov    %eax,-0x35c0(%rbp)
   1028e:	44 8b a5 40 ca ff ff 	mov    -0x35c0(%rbp),%r12d
   10295:	0f b7 05 c0 cd 00 00 	movzwl 0xcdc0(%rip),%eax        # 1d05c <g_93+0x1c>
   1029c:	0f b7 d8             	movzwl %ax,%ebx
   1029f:	48 8b 85 b0 cb ff ff 	mov    -0x3450(%rbp),%rax
   102a6:	41 89 c5             	mov    %eax,%r13d
   102a9:	0f b6 85 1c ca ff ff 	movzbl -0x35e4(%rbp),%eax
   102b0:	89 c6                	mov    %eax,%esi
   102b2:	bf 74 00 00 00       	mov    $0x74,%edi
   102b7:	e8 3f 79 ff ff       	callq  7bfb <safe_div_func_uint8_t_u_u>
   102bc:	0f b6 c0             	movzbl %al,%eax
   102bf:	44 89 ee             	mov    %r13d,%esi
   102c2:	89 c7                	mov    %eax,%edi
   102c4:	e8 e4 79 ff ff       	callq  7cad <safe_rshift_func_uint8_t_u_s>
   102c9:	0f b6 15 15 ce 00 00 	movzbl 0xce15(%rip),%edx        # 1d0e5 <g_108+0x25>
   102d0:	31 d0                	xor    %edx,%eax
   102d2:	0f b6 c0             	movzbl %al,%eax
   102d5:	be 01 00 00 00       	mov    $0x1,%esi
   102da:	89 c7                	mov    %eax,%edi
   102dc:	e8 a2 72 ff ff       	callq  7583 <safe_rshift_func_int16_t_s_u>
   102e1:	66 83 f8 01          	cmp    $0x1,%ax
   102e5:	0f 97 c0             	seta   %al
   102e8:	0f b6 d0             	movzbl %al,%edx
   102eb:	48 8b 85 10 ca ff ff 	mov    -0x35f0(%rbp),%rax
   102f2:	8b 00                	mov    (%rax),%eax
   102f4:	21 d0                	and    %edx,%eax
   102f6:	0f b7 c0             	movzwl %ax,%eax
   102f9:	89 de                	mov    %ebx,%esi
   102fb:	89 c7                	mov    %eax,%edi
   102fd:	e8 7a 7a ff ff       	callq  7d7c <safe_mod_func_uint16_t_u_u>
   10302:	0f b7 c0             	movzwl %ax,%eax
   10305:	44 31 e0             	xor    %r12d,%eax
   10308:	09 85 54 ca ff ff    	or     %eax,-0x35ac(%rbp)
   1030e:	0f b7 85 3a ca ff ff 	movzwl -0x35c6(%rbp),%eax
   10315:	0f be d8             	movsbl %al,%ebx
   10318:	0f b6 85 1c ca ff ff 	movzbl -0x35e4(%rbp),%eax
   1031f:	0f be c0             	movsbl %al,%eax
   10322:	be 06 00 00 00       	mov    $0x6,%esi
   10327:	89 c7                	mov    %eax,%edi
   10329:	e8 27 70 ff ff       	callq  7355 <safe_rshift_func_int8_t_s_s>
   1032e:	41 89 c5             	mov    %eax,%r13d
   10331:	48 8b 85 10 ca ff ff 	mov    -0x35f0(%rbp),%rax
   10338:	8b 00                	mov    (%rax),%eax
   1033a:	41 89 c7             	mov    %eax,%r15d
   1033d:	44 0f b6 a5 1c ca ff 	movzbl -0x35e4(%rbp),%r12d
   10344:	ff 
   10345:	48 8b 95 b8 ca ff ff 	mov    -0x3548(%rbp),%rdx
   1034c:	48 8b 85 b8 cb ff ff 	mov    -0x3448(%rbp),%rax
   10353:	48 89 10             	mov    %rdx,(%rax)
   10356:	48 8b 85 b8 cb ff ff 	mov    -0x3448(%rbp),%rax
   1035d:	48 8b 00             	mov    (%rax),%rax
   10360:	48 39 85 10 ca ff ff 	cmp    %rax,-0x35f0(%rbp)
   10367:	0f 95 c0             	setne  %al
   1036a:	0f b6 c0             	movzbl %al,%eax
   1036d:	be 00 00 00 00       	mov    $0x0,%esi
   10372:	89 c7                	mov    %eax,%edi
   10374:	e8 01 78 ff ff       	callq  7b7a <safe_add_func_uint8_t_u_u>
   10379:	44 0f b6 f0          	movzbl %al,%r14d
   1037d:	8b 05 a1 cc 00 00    	mov    0xcca1(%rip),%eax        # 1d024 <g_8>
   10383:	89 c0                	mov    %eax,%eax
   10385:	48 89 c6             	mov    %rax,%rsi
   10388:	bf 00 00 00 00       	mov    $0x0,%edi
   1038d:	e8 bc 7c ff ff       	callq  804e <safe_add_func_uint64_t_u_u>
   10392:	49 39 c6             	cmp    %rax,%r14
   10395:	0f 95 c0             	setne  %al
   10398:	0f b6 c0             	movzbl %al,%eax
   1039b:	89 85 10 ce ff ff    	mov    %eax,-0x31f0(%rbp)
   103a1:	8b 85 10 ce ff ff    	mov    -0x31f0(%rbp),%eax
   103a7:	89 85 54 ca ff ff    	mov    %eax,-0x35ac(%rbp)
   103ad:	83 bd 54 ca ff ff 00 	cmpl   $0x0,-0x35ac(%rbp)
   103b4:	74 07                	je     103bd <func_66+0x19dc>
   103b6:	b8 01 00 00 00       	mov    $0x1,%eax
   103bb:	eb 05                	jmp    103c2 <func_66+0x19e1>
   103bd:	b8 00 00 00 00       	mov    $0x0,%eax
   103c2:	48 98                	cltq   
   103c4:	48 39 85 b0 cb ff ff 	cmp    %rax,-0x3450(%rbp)
   103cb:	0f 93 c0             	setae  %al
   103ce:	0f b6 c0             	movzbl %al,%eax
   103d1:	be 1d 00 00 00       	mov    $0x1d,%esi
   103d6:	89 c7                	mov    %eax,%edi
   103d8:	e8 35 6e ff ff       	callq  7212 <safe_sub_func_int8_t_s_s>
   103dd:	0f be c0             	movsbl %al,%eax
   103e0:	44 89 e6             	mov    %r12d,%esi
   103e3:	89 c7                	mov    %eax,%edi
   103e5:	e8 17 71 ff ff       	callq  7501 <safe_lshift_func_int16_t_s_u>
   103ea:	98                   	cwtl   
   103eb:	8b 95 b0 ca ff ff    	mov    -0x3550(%rbp),%edx
   103f1:	89 d6                	mov    %edx,%esi
   103f3:	89 c7                	mov    %eax,%edi
   103f5:	e8 f2 72 ff ff       	callq  76ec <safe_mod_func_int32_t_s_s>
   103fa:	44 09 f8             	or     %r15d,%eax
   103fd:	88 05 ef cc 00 00    	mov    %al,0xccef(%rip)        # 1d0f2 <g_205+0x2>
   10403:	0f b6 05 e8 cc 00 00 	movzbl 0xcce8(%rip),%eax        # 1d0f2 <g_205+0x2>
   1040a:	41 38 c5             	cmp    %al,%r13b
   1040d:	0f 95 c0             	setne  %al
   10410:	0f b6 c0             	movzbl %al,%eax
   10413:	89 de                	mov    %ebx,%esi
   10415:	89 c7                	mov    %eax,%edi
   10417:	e8 d8 6d ff ff       	callq  71f4 <safe_add_func_int8_t_s_s>
   1041c:	ba 01 00 00 00       	mov    $0x1,%edx
   10421:	8b 85 40 ca ff ff    	mov    -0x35c0(%rbp),%eax
   10427:	09 d0                	or     %edx,%eax
   10429:	89 85 40 ca ff ff    	mov    %eax,-0x35c0(%rbp)
   1042f:	8b 85 40 ca ff ff    	mov    -0x35c0(%rbp),%eax
   10435:	85 c0                	test   %eax,%eax
   10437:	75 2c                	jne    10465 <func_66+0x1a84>
   10439:	8b 05 f1 cb 00 00    	mov    0xcbf1(%rip),%eax        # 1d030 <g_42>
   1043f:	48 98                	cltq   
   10441:	be 07 00 00 00       	mov    $0x7,%esi
   10446:	48 89 c7             	mov    %rax,%rdi
   10449:	e8 7a 74 ff ff       	callq  78c8 <safe_sub_func_int64_t_s_s>
   1044e:	89 05 dc cb 00 00    	mov    %eax,0xcbdc(%rip)        # 1d030 <g_42>
   10454:	8b 05 d6 cb 00 00    	mov    0xcbd6(%rip),%eax        # 1d030 <g_42>
   1045a:	83 f8 f4             	cmp    $0xfffffff4,%eax
   1045d:	0f 8c 0f fd ff ff    	jl     10172 <func_66+0x1791>
   10463:	eb 01                	jmp    10466 <func_66+0x1a85>
   10465:	90                   	nop
   10466:	0f b6 85 1c ca ff ff 	movzbl -0x35e4(%rbp),%eax
   1046d:	e9 81 1e 00 00       	jmpq   122f3 <func_66+0x3912>
   10472:	8b 05 ac cb 00 00    	mov    0xcbac(%rip),%eax        # 1d024 <g_8>
   10478:	89 c0                	mov    %eax,%eax
   1047a:	48 89 c6             	mov    %rax,%rsi
   1047d:	bf 07 00 00 00       	mov    $0x7,%edi
   10482:	e8 da 73 ff ff       	callq  7861 <safe_add_func_int64_t_s_s>
   10487:	8b 15 a3 cb 00 00    	mov    0xcba3(%rip),%edx        # 1d030 <g_42>
   1048d:	48 63 d2             	movslq %edx,%rdx
   10490:	8b 94 95 94 cc ff ff 	mov    -0x336c(%rbp,%rdx,4),%edx
   10497:	89 c1                	mov    %eax,%ecx
   10499:	8b 05 91 cb 00 00    	mov    0xcb91(%rip),%eax        # 1d030 <g_42>
   1049f:	09 ca                	or     %ecx,%edx
   104a1:	48 98                	cltq   
   104a3:	89 94 85 94 cc ff ff 	mov    %edx,-0x336c(%rbp,%rax,4)
   104aa:	8b 05 80 cb 00 00    	mov    0xcb80(%rip),%eax        # 1d030 <g_42>
   104b0:	83 e8 01             	sub    $0x1,%eax
   104b3:	89 05 77 cb 00 00    	mov    %eax,0xcb77(%rip)        # 1d030 <g_42>
   104b9:	8b 05 71 cb 00 00    	mov    0xcb71(%rip),%eax        # 1d030 <g_42>
   104bf:	85 c0                	test   %eax,%eax
   104c1:	79 af                	jns    10472 <func_66+0x1a91>
   104c3:	44 0f b6 a5 1c ca ff 	movzbl -0x35e4(%rbp),%r12d
   104ca:	ff 
   104cb:	44 0f b6 ad 1c ca ff 	movzbl -0x35e4(%rbp),%r13d
   104d2:	ff 
   104d3:	0f b7 05 8a cc 00 00 	movzwl 0xcc8a(%rip),%eax        # 1d164 <g_214+0x64>
   104da:	8d 50 01             	lea    0x1(%rax),%edx
   104dd:	66 89 15 80 cc 00 00 	mov    %dx,0xcc80(%rip)        # 1d164 <g_214+0x64>
   104e4:	0f b7 c0             	movzwl %ax,%eax
   104e7:	be 05 00 00 00       	mov    $0x5,%esi
   104ec:	89 c7                	mov    %eax,%edi
   104ee:	e8 a7 79 ff ff       	callq  7e9a <safe_rshift_func_uint16_t_u_u>
   104f3:	66 85 c0             	test   %ax,%ax
   104f6:	74 63                	je     1055b <func_66+0x1b7a>
   104f8:	0f b6 05 45 cb 00 00 	movzbl 0xcb45(%rip),%eax        # 1d044 <g_93+0x4>
   104ff:	0f be d8             	movsbl %al,%ebx
   10502:	8b 85 a8 ca ff ff    	mov    -0x3558(%rbp),%eax
   10508:	0f b6 d0             	movzbl %al,%edx
   1050b:	8b 85 54 ca ff ff    	mov    -0x35ac(%rbp),%eax
   10511:	0f b6 c0             	movzbl %al,%eax
   10514:	89 d6                	mov    %edx,%esi
   10516:	89 c7                	mov    %eax,%edi
   10518:	e8 96 76 ff ff       	callq  7bb3 <safe_mul_func_uint8_t_u_u>
   1051d:	0f b6 d0             	movzbl %al,%edx
   10520:	8b 05 ba cb 00 00    	mov    0xcbba(%rip),%eax        # 1d0e0 <g_108+0x20>
   10526:	0f b6 c0             	movzbl %al,%eax
   10529:	89 d6                	mov    %edx,%esi
   1052b:	89 c7                	mov    %eax,%edi
   1052d:	e8 81 76 ff ff       	callq  7bb3 <safe_mul_func_uint8_t_u_u>
   10532:	3c 05                	cmp    $0x5,%al
   10534:	0f 95 c0             	setne  %al
   10537:	89 c2                	mov    %eax,%edx
   10539:	48 8b 85 f0 cb ff ff 	mov    -0x3410(%rbp),%rax
   10540:	88 10                	mov    %dl,(%rax)
   10542:	89 de                	mov    %ebx,%esi
   10544:	bf 00 00 00 00       	mov    $0x0,%edi
   10549:	e8 cf 79 ff ff       	callq  7f1d <safe_mod_func_uint32_t_u_u>
   1054e:	0f b6 15 10 cb 00 00 	movzbl 0xcb10(%rip),%edx        # 1d065 <g_93+0x25>
   10555:	0f b6 d2             	movzbl %dl,%edx
   10558:	39 d0                	cmp    %edx,%eax
   1055a:	90                   	nop
   1055b:	c7 85 40 ca ff ff 01 	movl   $0x1,-0x35c0(%rbp)
   10562:	00 00 00 
   10565:	48 83 bd e0 cb ff ff 	cmpq   $0x0,-0x3420(%rbp)
   1056c:	00 
   1056d:	0f 95 c0             	setne  %al
   10570:	89 c2                	mov    %eax,%edx
   10572:	48 8b 85 f8 cb ff ff 	mov    -0x3408(%rbp),%rax
   10579:	88 10                	mov    %dl,(%rax)
   1057b:	0f b6 85 1c ca ff ff 	movzbl -0x35e4(%rbp),%eax
   10582:	8b 95 54 ca ff ff    	mov    -0x35ac(%rbp),%edx
   10588:	89 d6                	mov    %edx,%esi
   1058a:	89 c7                	mov    %eax,%edi
   1058c:	e8 8e 71 ff ff       	callq  771f <safe_div_func_int32_t_s_s>
   10591:	41 39 c5             	cmp    %eax,%r13d
   10594:	0f 95 c0             	setne  %al
   10597:	0f b6 c0             	movzbl %al,%eax
   1059a:	41 39 c4             	cmp    %eax,%r12d
   1059d:	0f 95 c0             	setne  %al
   105a0:	0f b6 c0             	movzbl %al,%eax
   105a3:	89 85 54 ca ff ff    	mov    %eax,-0x35ac(%rbp)
   105a9:	0f b6 85 1c ca ff ff 	movzbl -0x35e4(%rbp),%eax
   105b0:	be 08 00 00 00       	mov    $0x8,%esi
   105b5:	89 c7                	mov    %eax,%edi
   105b7:	e8 17 6e ff ff       	callq  73d3 <safe_add_func_int16_t_s_s>
   105bc:	88 85 1c ca ff ff    	mov    %al,-0x35e4(%rbp)
   105c2:	80 bd 1c ca ff ff 30 	cmpb   $0x30,-0x35e4(%rbp)
   105c9:	0f 85 c7 f6 ff ff    	jne    fc96 <func_66+0x12b5>
   105cf:	44 0f b6 a5 1c ca ff 	movzbl -0x35e4(%rbp),%r12d
   105d6:	ff 
   105d7:	0f b6 05 e6 cb 00 00 	movzbl 0xcbe6(%rip),%eax        # 1d1c4 <g_237+0x24>
   105de:	0f b6 d8             	movzbl %al,%ebx
   105e1:	48 8b 05 28 ef 00 00 	mov    0xef28(%rip),%rax        # 1f510 <g_140>
   105e8:	44 8b 28             	mov    (%rax),%r13d
   105eb:	8b 95 88 cc ff ff    	mov    -0x3378(%rbp),%edx
   105f1:	8b 85 40 ca ff ff    	mov    -0x35c0(%rbp),%eax
   105f7:	09 d0                	or     %edx,%eax
   105f9:	89 85 88 cc ff ff    	mov    %eax,-0x3378(%rbp)
   105ff:	8b 85 88 cc ff ff    	mov    -0x3378(%rbp),%eax
   10605:	89 c1                	mov    %eax,%ecx
   10607:	48 8b 85 b8 cb ff ff 	mov    -0x3448(%rbp),%rax
   1060e:	48 8b 10             	mov    (%rax),%rdx
   10611:	48 8b 85 b8 ca ff ff 	mov    -0x3548(%rbp),%rax
   10618:	48 39 c2             	cmp    %rax,%rdx
   1061b:	0f 95 c0             	setne  %al
   1061e:	0f b6 c0             	movzbl %al,%eax
   10621:	89 ce                	mov    %ecx,%esi
   10623:	89 c7                	mov    %eax,%edi
   10625:	e8 ae 78 ff ff       	callq  7ed8 <safe_add_func_uint32_t_u_u>
   1062a:	41 39 c5             	cmp    %eax,%r13d
   1062d:	74 07                	je     10636 <func_66+0x1c55>
   1062f:	ba 01 00 00 00       	mov    $0x1,%edx
   10634:	eb 05                	jmp    1063b <func_66+0x1c5a>
   10636:	ba 00 00 00 00       	mov    $0x0,%edx
   1063b:	8b 85 d8 ca ff ff    	mov    -0x3528(%rbp),%eax
   10641:	09 d0                	or     %edx,%eax
   10643:	89 85 d8 ca ff ff    	mov    %eax,-0x3528(%rbp)
   10649:	8b 95 d8 ca ff ff    	mov    -0x3528(%rbp),%edx
   1064f:	0f b6 85 1c ca ff ff 	movzbl -0x35e4(%rbp),%eax
   10656:	09 c2                	or     %eax,%edx
   10658:	8b 85 40 ca ff ff    	mov    -0x35c0(%rbp),%eax
   1065e:	39 c2                	cmp    %eax,%edx
   10660:	0f 95 c0             	setne  %al
   10663:	0f b6 c0             	movzbl %al,%eax
   10666:	89 c6                	mov    %eax,%esi
   10668:	bf fa 00 00 00       	mov    $0xfa,%edi
   1066d:	e8 b3 75 ff ff       	callq  7c25 <safe_lshift_func_uint8_t_u_s>
   10672:	0f be c0             	movsbl %al,%eax
   10675:	be 03 00 00 00       	mov    $0x3,%esi
   1067a:	89 c7                	mov    %eax,%edi
   1067c:	e8 40 6c ff ff       	callq  72c1 <safe_lshift_func_int8_t_s_s>
   10681:	0f be c0             	movsbl %al,%eax
   10684:	89 de                	mov    %ebx,%esi
   10686:	89 c7                	mov    %eax,%edi
   10688:	e8 81 6c ff ff       	callq  730e <safe_lshift_func_int8_t_s_u>
   1068d:	0f be c0             	movsbl %al,%eax
   10690:	44 09 e0             	or     %r12d,%eax
   10693:	85 c0                	test   %eax,%eax
   10695:	74 10                	je     106a7 <func_66+0x1cc6>
   10697:	80 bd 1c ca ff ff 00 	cmpb   $0x0,-0x35e4(%rbp)
   1069e:	74 07                	je     106a7 <func_66+0x1cc6>
   106a0:	ba 01 00 00 00       	mov    $0x1,%edx
   106a5:	eb 05                	jmp    106ac <func_66+0x1ccb>
   106a7:	ba 00 00 00 00       	mov    $0x0,%edx
   106ac:	8b 85 98 cc ff ff    	mov    -0x3368(%rbp),%eax
   106b2:	21 d0                	and    %edx,%eax
   106b4:	89 85 98 cc ff ff    	mov    %eax,-0x3368(%rbp)
   106ba:	8b 85 98 cc ff ff    	mov    -0x3368(%rbp),%eax
   106c0:	89 85 40 ca ff ff    	mov    %eax,-0x35c0(%rbp)
   106c6:	e9 e5 01 00 00       	jmpq   108b0 <func_66+0x1ecf>
   106cb:	c6 85 32 ca ff ff fb 	movb   $0xfb,-0x35ce(%rbp)
   106d2:	48 b8 9f ac be 69 e6 	movabs $0xcbe354e669beac9f,%rax
   106d9:	54 e3 cb 
   106dc:	48 89 85 c8 cb ff ff 	mov    %rax,-0x3438(%rbp)
   106e3:	48 8d 05 00 0a 01 00 	lea    0x10a00(%rip),%rax        # 210ea <g_54+0x2>
   106ea:	48 89 85 d0 cb ff ff 	mov    %rax,-0x3430(%rbp)
   106f1:	48 8d 85 f0 de ff ff 	lea    -0x2110(%rbp),%rax
   106f8:	48 05 68 1a 00 00    	add    $0x1a68,%rax
   106fe:	48 89 85 d8 cb ff ff 	mov    %rax,-0x3428(%rbp)
   10705:	c7 85 d8 ca ff ff 00 	movl   $0x0,-0x3528(%rbp)
   1070c:	00 00 00 
   1070f:	eb 22                	jmp    10733 <func_66+0x1d52>
   10711:	8b 85 d8 ca ff ff    	mov    -0x3528(%rbp),%eax
   10717:	48 98                	cltq   
   10719:	c7 84 85 94 cc ff ff 	movl   $0x0,-0x336c(%rbp,%rax,4)
   10720:	00 00 00 00 
   10724:	8b 85 d8 ca ff ff    	mov    -0x3528(%rbp),%eax
   1072a:	83 c0 01             	add    $0x1,%eax
   1072d:	89 85 d8 ca ff ff    	mov    %eax,-0x3528(%rbp)
   10733:	8b 85 d8 ca ff ff    	mov    -0x3528(%rbp),%eax
   10739:	83 f8 02             	cmp    $0x2,%eax
   1073c:	7e d3                	jle    10711 <func_66+0x1d30>
   1073e:	0f b6 9d 1c ca ff ff 	movzbl -0x35e4(%rbp),%ebx
   10745:	44 0f b6 a5 32 ca ff 	movzbl -0x35ce(%rbp),%r12d
   1074c:	ff 
   1074d:	8b 85 8c cc ff ff    	mov    -0x3374(%rbp),%eax
   10753:	44 0f be e8          	movsbl %al,%r13d
   10757:	48 8b 85 c8 cb ff ff 	mov    -0x3438(%rbp),%rax
   1075e:	41 89 c6             	mov    %eax,%r14d
   10761:	be 00 00 00 00       	mov    $0x0,%esi
   10766:	bf fe ff 00 00       	mov    $0xfffe,%edi
   1076b:	e8 af 75 ff ff       	callq  7d1f <safe_add_func_uint16_t_u_u>
   10770:	0f b7 c0             	movzwl %ax,%eax
   10773:	44 89 f6             	mov    %r14d,%esi
   10776:	89 c7                	mov    %eax,%edi
   10778:	e8 5b 77 ff ff       	callq  7ed8 <safe_add_func_uint32_t_u_u>
   1077d:	85 c0                	test   %eax,%eax
   1077f:	74 1e                	je     1079f <func_66+0x1dbe>
   10781:	48 8b 85 c8 cb ff ff 	mov    -0x3438(%rbp),%rax
   10788:	89 85 40 ca ff ff    	mov    %eax,-0x35c0(%rbp)
   1078e:	8b 85 40 ca ff ff    	mov    -0x35c0(%rbp),%eax
   10794:	85 c0                	test   %eax,%eax
   10796:	74 07                	je     1079f <func_66+0x1dbe>
   10798:	b8 01 00 00 00       	mov    $0x1,%eax
   1079d:	eb 05                	jmp    107a4 <func_66+0x1dc3>
   1079f:	b8 00 00 00 00       	mov    $0x0,%eax
   107a4:	83 f8 06             	cmp    $0x6,%eax
   107a7:	0f 95 c0             	setne  %al
   107aa:	0f b6 c0             	movzbl %al,%eax
   107ad:	44 89 ee             	mov    %r13d,%esi
   107b0:	89 c7                	mov    %eax,%edi
   107b2:	e8 3d 6a ff ff       	callq  71f4 <safe_add_func_int8_t_s_s>
   107b7:	0f be c0             	movsbl %al,%eax
   107ba:	be ff ff ff ff       	mov    $0xffffffff,%esi
   107bf:	89 c7                	mov    %eax,%edi
   107c1:	e8 7f 77 ff ff       	callq  7f45 <safe_div_func_uint32_t_u_u>
   107c6:	85 c0                	test   %eax,%eax
   107c8:	75 0c                	jne    107d6 <func_66+0x1df5>
   107ca:	48 8b 05 57 c8 00 00 	mov    0xc857(%rip),%rax        # 1d028 <g_11>
   107d1:	48 85 c0             	test   %rax,%rax
   107d4:	74 07                	je     107dd <func_66+0x1dfc>
   107d6:	b8 01 00 00 00       	mov    $0x1,%eax
   107db:	eb 05                	jmp    107e2 <func_66+0x1e01>
   107dd:	b8 00 00 00 00       	mov    $0x0,%eax
   107e2:	0f be c0             	movsbl %al,%eax
   107e5:	be 04 00 00 00       	mov    $0x4,%esi
   107ea:	89 c7                	mov    %eax,%edi
   107ec:	e8 64 6b ff ff       	callq  7355 <safe_rshift_func_int8_t_s_s>
   107f1:	48 8b 95 d0 cb ff ff 	mov    -0x3430(%rbp),%rdx
   107f8:	88 02                	mov    %al,(%rdx)
   107fa:	48 8b 85 d0 cb ff ff 	mov    -0x3430(%rbp),%rax
   10801:	0f b6 00             	movzbl (%rax),%eax
   10804:	0f be c0             	movsbl %al,%eax
   10807:	44 89 e6             	mov    %r12d,%esi
   1080a:	89 c7                	mov    %eax,%edi
   1080c:	e8 b0 6a ff ff       	callq  72c1 <safe_lshift_func_int8_t_s_s>
   10811:	0f b6 95 32 ca ff ff 	movzbl -0x35ce(%rbp),%edx
   10818:	0f b7 05 11 c9 00 00 	movzwl 0xc911(%rip),%eax        # 1d130 <g_214+0x30>
   1081f:	0f b7 c0             	movzwl %ax,%eax
   10822:	39 c2                	cmp    %eax,%edx
   10824:	7c 0a                	jl     10830 <func_66+0x1e4f>
   10826:	66 83 bd 38 ca ff ff 	cmpw   $0x0,-0x35c8(%rbp)
   1082d:	00 
   1082e:	74 07                	je     10837 <func_66+0x1e56>
   10830:	ba 01 00 00 00       	mov    $0x1,%edx
   10835:	eb 05                	jmp    1083c <func_66+0x1e5b>
   10837:	ba 00 00 00 00       	mov    $0x0,%edx
   1083c:	0f b6 85 1c ca ff ff 	movzbl -0x35e4(%rbp),%eax
   10843:	09 d0                	or     %edx,%eax
   10845:	85 c0                	test   %eax,%eax
   10847:	75 0c                	jne    10855 <func_66+0x1e74>
   10849:	48 8b 05 78 c9 00 00 	mov    0xc978(%rip),%rax        # 1d1c8 <g_262>
   10850:	48 85 c0             	test   %rax,%rax
   10853:	74 07                	je     1085c <func_66+0x1e7b>
   10855:	b8 01 00 00 00       	mov    $0x1,%eax
   1085a:	eb 05                	jmp    10861 <func_66+0x1e80>
   1085c:	b8 00 00 00 00       	mov    $0x0,%eax
   10861:	89 de                	mov    %ebx,%esi
   10863:	89 c7                	mov    %eax,%edi
   10865:	e8 b3 76 ff ff       	callq  7f1d <safe_mod_func_uint32_t_u_u>
   1086a:	3d 38 5f 00 00       	cmp    $0x5f38,%eax
   1086f:	0f 97 c0             	seta   %al
   10872:	0f b6 d0             	movzbl %al,%edx
   10875:	0f b6 85 1c ca ff ff 	movzbl -0x35e4(%rbp),%eax
   1087c:	39 c2                	cmp    %eax,%edx
   1087e:	0f 9f c0             	setg   %al
   10881:	0f b6 c8             	movzbl %al,%ecx
   10884:	0f b6 95 1c ca ff ff 	movzbl -0x35e4(%rbp),%edx
   1088b:	48 8b 05 1e f4 00 00 	mov    0xf41e(%rip),%rax        # 1fcb0 <g_263>
   10892:	09 ca                	or     %ecx,%edx
   10894:	89 10                	mov    %edx,(%rax)
   10896:	48 8b 85 d8 cb ff ff 	mov    -0x3428(%rbp),%rax
   1089d:	8b 10                	mov    (%rax),%edx
   1089f:	8b 85 d8 ca ff ff    	mov    -0x3528(%rbp),%eax
   108a5:	21 c2                	and    %eax,%edx
   108a7:	48 8b 85 d8 cb ff ff 	mov    -0x3428(%rbp),%rax
   108ae:	89 10                	mov    %edx,(%rax)
   108b0:	48 8b 05 51 08 01 00 	mov    0x10851(%rip),%rax        # 21108 <g_268>
   108b7:	48 83 e8 01          	sub    $0x1,%rax
   108bb:	48 89 05 46 08 01 00 	mov    %rax,0x10846(%rip)        # 21108 <g_268>
   108c2:	c7 05 d4 c8 00 00 00 	movl   $0x0,0xc8d4(%rip)        # 1d1a0 <g_237>
   108c9:	00 00 00 
   108cc:	e9 64 0a 00 00       	jmpq   11335 <func_66+0x2954>
   108d1:	48 8d 05 c8 c8 00 00 	lea    0xc8c8(%rip),%rax        # 1d1a0 <g_237>
   108d8:	48 89 85 50 cc ff ff 	mov    %rax,-0x33b0(%rbp)
   108df:	48 8d 85 50 cc ff ff 	lea    -0x33b0(%rbp),%rax
   108e6:	48 89 85 10 d7 ff ff 	mov    %rax,-0x28f0(%rbp)
   108ed:	48 8d 85 50 cc ff ff 	lea    -0x33b0(%rbp),%rax
   108f4:	48 89 85 18 d7 ff ff 	mov    %rax,-0x28e8(%rbp)
   108fb:	48 c7 85 20 d7 ff ff 	movq   $0x0,-0x28e0(%rbp)
   10902:	00 00 00 00 
   10906:	48 8d 85 50 cc ff ff 	lea    -0x33b0(%rbp),%rax
   1090d:	48 89 85 28 d7 ff ff 	mov    %rax,-0x28d8(%rbp)
   10914:	48 8d 85 50 cc ff ff 	lea    -0x33b0(%rbp),%rax
   1091b:	48 89 85 30 d7 ff ff 	mov    %rax,-0x28d0(%rbp)
   10922:	48 c7 85 38 d7 ff ff 	movq   $0x0,-0x28c8(%rbp)
   10929:	00 00 00 00 
   1092d:	48 8d 85 50 cc ff ff 	lea    -0x33b0(%rbp),%rax
   10934:	48 89 85 40 d7 ff ff 	mov    %rax,-0x28c0(%rbp)
   1093b:	48 8d 85 50 cc ff ff 	lea    -0x33b0(%rbp),%rax
   10942:	48 89 85 48 d7 ff ff 	mov    %rax,-0x28b8(%rbp)
   10949:	48 8d 85 50 cc ff ff 	lea    -0x33b0(%rbp),%rax
   10950:	48 89 85 50 d7 ff ff 	mov    %rax,-0x28b0(%rbp)
   10957:	48 8d 85 50 cc ff ff 	lea    -0x33b0(%rbp),%rax
   1095e:	48 89 85 58 d7 ff ff 	mov    %rax,-0x28a8(%rbp)
   10965:	48 8d 85 50 cc ff ff 	lea    -0x33b0(%rbp),%rax
   1096c:	48 89 85 60 d7 ff ff 	mov    %rax,-0x28a0(%rbp)
   10973:	48 8d 85 50 cc ff ff 	lea    -0x33b0(%rbp),%rax
   1097a:	48 89 85 68 d7 ff ff 	mov    %rax,-0x2898(%rbp)
   10981:	48 8d 85 50 cc ff ff 	lea    -0x33b0(%rbp),%rax
   10988:	48 89 85 70 d7 ff ff 	mov    %rax,-0x2890(%rbp)
   1098f:	48 8d 85 50 cc ff ff 	lea    -0x33b0(%rbp),%rax
   10996:	48 89 85 78 d7 ff ff 	mov    %rax,-0x2888(%rbp)
   1099d:	48 8d 85 50 cc ff ff 	lea    -0x33b0(%rbp),%rax
   109a4:	48 89 85 80 d7 ff ff 	mov    %rax,-0x2880(%rbp)
   109ab:	48 c7 85 88 d7 ff ff 	movq   $0x0,-0x2878(%rbp)
   109b2:	00 00 00 00 
   109b6:	48 8d 85 50 cc ff ff 	lea    -0x33b0(%rbp),%rax
   109bd:	48 89 85 90 d7 ff ff 	mov    %rax,-0x2870(%rbp)
   109c4:	48 8d 85 50 cc ff ff 	lea    -0x33b0(%rbp),%rax
   109cb:	48 89 85 98 d7 ff ff 	mov    %rax,-0x2868(%rbp)
   109d2:	48 8d 85 50 cc ff ff 	lea    -0x33b0(%rbp),%rax
   109d9:	48 89 85 a0 d7 ff ff 	mov    %rax,-0x2860(%rbp)
   109e0:	48 8d 85 50 cc ff ff 	lea    -0x33b0(%rbp),%rax
   109e7:	48 89 85 a8 d7 ff ff 	mov    %rax,-0x2858(%rbp)
   109ee:	48 8d 85 50 cc ff ff 	lea    -0x33b0(%rbp),%rax
   109f5:	48 89 85 b0 d7 ff ff 	mov    %rax,-0x2850(%rbp)
   109fc:	48 c7 85 b8 d7 ff ff 	movq   $0x0,-0x2848(%rbp)
   10a03:	00 00 00 00 
   10a07:	48 8d 85 50 cc ff ff 	lea    -0x33b0(%rbp),%rax
   10a0e:	48 89 85 c0 d7 ff ff 	mov    %rax,-0x2840(%rbp)
   10a15:	48 c7 85 c8 d7 ff ff 	movq   $0x0,-0x2838(%rbp)
   10a1c:	00 00 00 00 
   10a20:	48 8d 85 50 cc ff ff 	lea    -0x33b0(%rbp),%rax
   10a27:	48 89 85 d0 d7 ff ff 	mov    %rax,-0x2830(%rbp)
   10a2e:	48 c7 85 d8 d7 ff ff 	movq   $0x0,-0x2828(%rbp)
   10a35:	00 00 00 00 
   10a39:	48 c7 85 e0 d7 ff ff 	movq   $0x0,-0x2820(%rbp)
   10a40:	00 00 00 00 
   10a44:	48 8d 85 50 cc ff ff 	lea    -0x33b0(%rbp),%rax
   10a4b:	48 89 85 e8 d7 ff ff 	mov    %rax,-0x2818(%rbp)
   10a52:	48 8d 85 50 cc ff ff 	lea    -0x33b0(%rbp),%rax
   10a59:	48 89 85 f0 d7 ff ff 	mov    %rax,-0x2810(%rbp)
   10a60:	48 8d 85 50 cc ff ff 	lea    -0x33b0(%rbp),%rax
   10a67:	48 89 85 f8 d7 ff ff 	mov    %rax,-0x2808(%rbp)
   10a6e:	48 8d 85 50 cc ff ff 	lea    -0x33b0(%rbp),%rax
   10a75:	48 89 85 00 d8 ff ff 	mov    %rax,-0x2800(%rbp)
   10a7c:	48 c7 85 08 d8 ff ff 	movq   $0x0,-0x27f8(%rbp)
   10a83:	00 00 00 00 
   10a87:	48 8d 85 50 cc ff ff 	lea    -0x33b0(%rbp),%rax
   10a8e:	48 89 85 10 d8 ff ff 	mov    %rax,-0x27f0(%rbp)
   10a95:	48 8d 85 50 cc ff ff 	lea    -0x33b0(%rbp),%rax
   10a9c:	48 89 85 18 d8 ff ff 	mov    %rax,-0x27e8(%rbp)
   10aa3:	48 8d 85 50 cc ff ff 	lea    -0x33b0(%rbp),%rax
   10aaa:	48 89 85 20 d8 ff ff 	mov    %rax,-0x27e0(%rbp)
   10ab1:	48 8d 85 50 cc ff ff 	lea    -0x33b0(%rbp),%rax
   10ab8:	48 89 85 28 d8 ff ff 	mov    %rax,-0x27d8(%rbp)
   10abf:	48 8d 85 50 cc ff ff 	lea    -0x33b0(%rbp),%rax
   10ac6:	48 89 85 30 d8 ff ff 	mov    %rax,-0x27d0(%rbp)
   10acd:	48 8d 85 50 cc ff ff 	lea    -0x33b0(%rbp),%rax
   10ad4:	48 89 85 38 d8 ff ff 	mov    %rax,-0x27c8(%rbp)
   10adb:	48 8d 85 50 cc ff ff 	lea    -0x33b0(%rbp),%rax
   10ae2:	48 89 85 40 d8 ff ff 	mov    %rax,-0x27c0(%rbp)
   10ae9:	48 8d 85 50 cc ff ff 	lea    -0x33b0(%rbp),%rax
   10af0:	48 89 85 48 d8 ff ff 	mov    %rax,-0x27b8(%rbp)
   10af7:	48 8d 85 50 cc ff ff 	lea    -0x33b0(%rbp),%rax
   10afe:	48 89 85 50 d8 ff ff 	mov    %rax,-0x27b0(%rbp)
   10b05:	48 c7 85 58 d8 ff ff 	movq   $0x0,-0x27a8(%rbp)
   10b0c:	00 00 00 00 
   10b10:	48 8d 85 50 cc ff ff 	lea    -0x33b0(%rbp),%rax
   10b17:	48 89 85 60 d8 ff ff 	mov    %rax,-0x27a0(%rbp)
   10b1e:	48 8d 85 50 cc ff ff 	lea    -0x33b0(%rbp),%rax
   10b25:	48 89 85 68 d8 ff ff 	mov    %rax,-0x2798(%rbp)
   10b2c:	48 c7 85 70 d8 ff ff 	movq   $0x0,-0x2790(%rbp)
   10b33:	00 00 00 00 
   10b37:	48 8d 85 50 cc ff ff 	lea    -0x33b0(%rbp),%rax
   10b3e:	48 89 85 78 d8 ff ff 	mov    %rax,-0x2788(%rbp)
   10b45:	48 c7 85 80 d8 ff ff 	movq   $0x0,-0x2780(%rbp)
   10b4c:	00 00 00 00 
   10b50:	48 8d 85 50 cc ff ff 	lea    -0x33b0(%rbp),%rax
   10b57:	48 89 85 88 d8 ff ff 	mov    %rax,-0x2778(%rbp)
   10b5e:	48 8d 85 50 cc ff ff 	lea    -0x33b0(%rbp),%rax
   10b65:	48 89 85 90 d8 ff ff 	mov    %rax,-0x2770(%rbp)
   10b6c:	48 8d 85 50 cc ff ff 	lea    -0x33b0(%rbp),%rax
   10b73:	48 89 85 98 d8 ff ff 	mov    %rax,-0x2768(%rbp)
   10b7a:	48 8d 85 50 cc ff ff 	lea    -0x33b0(%rbp),%rax
   10b81:	48 89 85 a0 d8 ff ff 	mov    %rax,-0x2760(%rbp)
   10b88:	48 c7 85 a8 d8 ff ff 	movq   $0x0,-0x2758(%rbp)
   10b8f:	00 00 00 00 
   10b93:	48 8d 85 50 cc ff ff 	lea    -0x33b0(%rbp),%rax
   10b9a:	48 89 85 b0 d8 ff ff 	mov    %rax,-0x2750(%rbp)
   10ba1:	48 c7 85 b8 d8 ff ff 	movq   $0x0,-0x2748(%rbp)
   10ba8:	00 00 00 00 
   10bac:	48 c7 85 c0 d8 ff ff 	movq   $0x0,-0x2740(%rbp)
   10bb3:	00 00 00 00 
   10bb7:	48 8d 85 50 cc ff ff 	lea    -0x33b0(%rbp),%rax
   10bbe:	48 89 85 c8 d8 ff ff 	mov    %rax,-0x2738(%rbp)
   10bc5:	48 8d 85 50 cc ff ff 	lea    -0x33b0(%rbp),%rax
   10bcc:	48 89 85 d0 d8 ff ff 	mov    %rax,-0x2730(%rbp)
   10bd3:	48 c7 85 d8 d8 ff ff 	movq   $0x0,-0x2728(%rbp)
   10bda:	00 00 00 00 
   10bde:	48 c7 85 e0 d8 ff ff 	movq   $0x0,-0x2720(%rbp)
   10be5:	00 00 00 00 
   10be9:	48 8d 85 50 cc ff ff 	lea    -0x33b0(%rbp),%rax
   10bf0:	48 89 85 e8 d8 ff ff 	mov    %rax,-0x2718(%rbp)
   10bf7:	48 c7 85 f0 d8 ff ff 	movq   $0x0,-0x2710(%rbp)
   10bfe:	00 00 00 00 
   10c02:	48 8d 85 50 cc ff ff 	lea    -0x33b0(%rbp),%rax
   10c09:	48 89 85 f8 d8 ff ff 	mov    %rax,-0x2708(%rbp)
   10c10:	48 8d 85 50 cc ff ff 	lea    -0x33b0(%rbp),%rax
   10c17:	48 89 85 00 d9 ff ff 	mov    %rax,-0x2700(%rbp)
   10c1e:	48 8d 85 50 cc ff ff 	lea    -0x33b0(%rbp),%rax
   10c25:	48 89 85 08 d9 ff ff 	mov    %rax,-0x26f8(%rbp)
   10c2c:	48 8d 85 50 cc ff ff 	lea    -0x33b0(%rbp),%rax
   10c33:	48 89 85 10 d9 ff ff 	mov    %rax,-0x26f0(%rbp)
   10c3a:	48 8d 85 50 cc ff ff 	lea    -0x33b0(%rbp),%rax
   10c41:	48 89 85 18 d9 ff ff 	mov    %rax,-0x26e8(%rbp)
   10c48:	48 8d 85 50 cc ff ff 	lea    -0x33b0(%rbp),%rax
   10c4f:	48 89 85 20 d9 ff ff 	mov    %rax,-0x26e0(%rbp)
   10c56:	48 c7 85 28 d9 ff ff 	movq   $0x0,-0x26d8(%rbp)
   10c5d:	00 00 00 00 
   10c61:	48 8d 85 50 cc ff ff 	lea    -0x33b0(%rbp),%rax
   10c68:	48 89 85 30 d9 ff ff 	mov    %rax,-0x26d0(%rbp)
   10c6f:	48 8d 85 50 cc ff ff 	lea    -0x33b0(%rbp),%rax
   10c76:	48 89 85 38 d9 ff ff 	mov    %rax,-0x26c8(%rbp)
   10c7d:	48 c7 85 40 d9 ff ff 	movq   $0x0,-0x26c0(%rbp)
   10c84:	00 00 00 00 
   10c88:	48 8d 85 50 cc ff ff 	lea    -0x33b0(%rbp),%rax
   10c8f:	48 89 85 48 d9 ff ff 	mov    %rax,-0x26b8(%rbp)
   10c96:	48 8d 85 50 cc ff ff 	lea    -0x33b0(%rbp),%rax
   10c9d:	48 89 85 50 d9 ff ff 	mov    %rax,-0x26b0(%rbp)
   10ca4:	48 8d 85 50 cc ff ff 	lea    -0x33b0(%rbp),%rax
   10cab:	48 89 85 58 d9 ff ff 	mov    %rax,-0x26a8(%rbp)
   10cb2:	48 8d 85 50 cc ff ff 	lea    -0x33b0(%rbp),%rax
   10cb9:	48 89 85 60 d9 ff ff 	mov    %rax,-0x26a0(%rbp)
   10cc0:	48 8d 85 50 cc ff ff 	lea    -0x33b0(%rbp),%rax
   10cc7:	48 89 85 68 d9 ff ff 	mov    %rax,-0x2698(%rbp)
   10cce:	48 8d 85 50 cc ff ff 	lea    -0x33b0(%rbp),%rax
   10cd5:	48 89 85 70 d9 ff ff 	mov    %rax,-0x2690(%rbp)
   10cdc:	48 8d 85 50 cc ff ff 	lea    -0x33b0(%rbp),%rax
   10ce3:	48 89 85 78 d9 ff ff 	mov    %rax,-0x2688(%rbp)
   10cea:	48 8d 85 50 cc ff ff 	lea    -0x33b0(%rbp),%rax
   10cf1:	48 89 85 80 d9 ff ff 	mov    %rax,-0x2680(%rbp)
   10cf8:	48 8d 85 50 cc ff ff 	lea    -0x33b0(%rbp),%rax
   10cff:	48 89 85 88 d9 ff ff 	mov    %rax,-0x2678(%rbp)
   10d06:	48 c7 85 90 d9 ff ff 	movq   $0x0,-0x2670(%rbp)
   10d0d:	00 00 00 00 
   10d11:	48 8d 85 50 cc ff ff 	lea    -0x33b0(%rbp),%rax
   10d18:	48 89 85 98 d9 ff ff 	mov    %rax,-0x2668(%rbp)
   10d1f:	48 8d 85 50 cc ff ff 	lea    -0x33b0(%rbp),%rax
   10d26:	48 89 85 a0 d9 ff ff 	mov    %rax,-0x2660(%rbp)
   10d2d:	48 8d 85 50 cc ff ff 	lea    -0x33b0(%rbp),%rax
   10d34:	48 89 85 a8 d9 ff ff 	mov    %rax,-0x2658(%rbp)
   10d3b:	48 8d 85 50 cc ff ff 	lea    -0x33b0(%rbp),%rax
   10d42:	48 89 85 b0 d9 ff ff 	mov    %rax,-0x2650(%rbp)
   10d49:	48 8d 85 50 cc ff ff 	lea    -0x33b0(%rbp),%rax
   10d50:	48 89 85 b8 d9 ff ff 	mov    %rax,-0x2648(%rbp)
   10d57:	48 c7 85 c0 d9 ff ff 	movq   $0x0,-0x2640(%rbp)
   10d5e:	00 00 00 00 
   10d62:	48 8d 85 50 cc ff ff 	lea    -0x33b0(%rbp),%rax
   10d69:	48 89 85 c8 d9 ff ff 	mov    %rax,-0x2638(%rbp)
   10d70:	48 c7 85 d0 d9 ff ff 	movq   $0x0,-0x2630(%rbp)
   10d77:	00 00 00 00 
   10d7b:	48 8d 85 50 cc ff ff 	lea    -0x33b0(%rbp),%rax
   10d82:	48 89 85 d8 d9 ff ff 	mov    %rax,-0x2628(%rbp)
   10d89:	48 c7 85 e0 d9 ff ff 	movq   $0x0,-0x2620(%rbp)
   10d90:	00 00 00 00 
   10d94:	48 c7 85 e8 d9 ff ff 	movq   $0x0,-0x2618(%rbp)
   10d9b:	00 00 00 00 
   10d9f:	48 8d 85 50 cc ff ff 	lea    -0x33b0(%rbp),%rax
   10da6:	48 89 85 f0 d9 ff ff 	mov    %rax,-0x2610(%rbp)
   10dad:	48 8d 85 50 cc ff ff 	lea    -0x33b0(%rbp),%rax
   10db4:	48 89 85 f8 d9 ff ff 	mov    %rax,-0x2608(%rbp)
   10dbb:	48 8d 85 50 cc ff ff 	lea    -0x33b0(%rbp),%rax
   10dc2:	48 89 85 00 da ff ff 	mov    %rax,-0x2600(%rbp)
   10dc9:	48 8d 85 50 cc ff ff 	lea    -0x33b0(%rbp),%rax
   10dd0:	48 89 85 08 da ff ff 	mov    %rax,-0x25f8(%rbp)
   10dd7:	48 c7 85 10 da ff ff 	movq   $0x0,-0x25f0(%rbp)
   10dde:	00 00 00 00 
   10de2:	48 8d 85 50 cc ff ff 	lea    -0x33b0(%rbp),%rax
   10de9:	48 89 85 18 da ff ff 	mov    %rax,-0x25e8(%rbp)
   10df0:	48 8d 85 50 cc ff ff 	lea    -0x33b0(%rbp),%rax
   10df7:	48 89 85 20 da ff ff 	mov    %rax,-0x25e0(%rbp)
   10dfe:	48 8d 85 50 cc ff ff 	lea    -0x33b0(%rbp),%rax
   10e05:	48 89 85 28 da ff ff 	mov    %rax,-0x25d8(%rbp)
   10e0c:	48 8d 85 50 cc ff ff 	lea    -0x33b0(%rbp),%rax
   10e13:	48 89 85 30 da ff ff 	mov    %rax,-0x25d0(%rbp)
   10e1a:	48 8d 85 50 cc ff ff 	lea    -0x33b0(%rbp),%rax
   10e21:	48 89 85 38 da ff ff 	mov    %rax,-0x25c8(%rbp)
   10e28:	48 8d 85 50 cc ff ff 	lea    -0x33b0(%rbp),%rax
   10e2f:	48 89 85 40 da ff ff 	mov    %rax,-0x25c0(%rbp)
   10e36:	48 8d 85 50 cc ff ff 	lea    -0x33b0(%rbp),%rax
   10e3d:	48 89 85 48 da ff ff 	mov    %rax,-0x25b8(%rbp)
   10e44:	48 8d 85 50 cc ff ff 	lea    -0x33b0(%rbp),%rax
   10e4b:	48 89 85 50 da ff ff 	mov    %rax,-0x25b0(%rbp)
   10e52:	48 8d 85 50 cc ff ff 	lea    -0x33b0(%rbp),%rax
   10e59:	48 89 85 58 da ff ff 	mov    %rax,-0x25a8(%rbp)
   10e60:	48 c7 85 60 da ff ff 	movq   $0x0,-0x25a0(%rbp)
   10e67:	00 00 00 00 
   10e6b:	48 8d 85 50 cc ff ff 	lea    -0x33b0(%rbp),%rax
   10e72:	48 89 85 68 da ff ff 	mov    %rax,-0x2598(%rbp)
   10e79:	48 8d 85 50 cc ff ff 	lea    -0x33b0(%rbp),%rax
   10e80:	48 89 85 70 da ff ff 	mov    %rax,-0x2590(%rbp)
   10e87:	48 c7 85 78 da ff ff 	movq   $0x0,-0x2588(%rbp)
   10e8e:	00 00 00 00 
   10e92:	48 8d 85 50 cc ff ff 	lea    -0x33b0(%rbp),%rax
   10e99:	48 89 85 80 da ff ff 	mov    %rax,-0x2580(%rbp)
   10ea0:	48 c7 85 88 da ff ff 	movq   $0x0,-0x2578(%rbp)
   10ea7:	00 00 00 00 
   10eab:	48 8d 85 50 cc ff ff 	lea    -0x33b0(%rbp),%rax
   10eb2:	48 89 85 90 da ff ff 	mov    %rax,-0x2570(%rbp)
   10eb9:	48 8d 85 50 cc ff ff 	lea    -0x33b0(%rbp),%rax
   10ec0:	48 89 85 98 da ff ff 	mov    %rax,-0x2568(%rbp)
   10ec7:	48 8d 85 50 cc ff ff 	lea    -0x33b0(%rbp),%rax
   10ece:	48 89 85 a0 da ff ff 	mov    %rax,-0x2560(%rbp)
   10ed5:	48 8d 85 50 cc ff ff 	lea    -0x33b0(%rbp),%rax
   10edc:	48 89 85 a8 da ff ff 	mov    %rax,-0x2558(%rbp)
   10ee3:	48 c7 85 b0 da ff ff 	movq   $0x0,-0x2550(%rbp)
   10eea:	00 00 00 00 
   10eee:	48 8d 85 50 cc ff ff 	lea    -0x33b0(%rbp),%rax
   10ef5:	48 89 85 b8 da ff ff 	mov    %rax,-0x2548(%rbp)
   10efc:	48 c7 85 c0 da ff ff 	movq   $0x0,-0x2540(%rbp)
   10f03:	00 00 00 00 
   10f07:	48 c7 85 c8 da ff ff 	movq   $0x0,-0x2538(%rbp)
   10f0e:	00 00 00 00 
   10f12:	48 8d 85 50 cc ff ff 	lea    -0x33b0(%rbp),%rax
   10f19:	48 89 85 d0 da ff ff 	mov    %rax,-0x2530(%rbp)
   10f20:	48 8d 85 50 cc ff ff 	lea    -0x33b0(%rbp),%rax
   10f27:	48 89 85 d8 da ff ff 	mov    %rax,-0x2528(%rbp)
   10f2e:	48 c7 85 e0 da ff ff 	movq   $0x0,-0x2520(%rbp)
   10f35:	00 00 00 00 
   10f39:	48 c7 85 e8 da ff ff 	movq   $0x0,-0x2518(%rbp)
   10f40:	00 00 00 00 
   10f44:	48 8d 85 50 cc ff ff 	lea    -0x33b0(%rbp),%rax
   10f4b:	48 89 85 f0 da ff ff 	mov    %rax,-0x2510(%rbp)
   10f52:	48 c7 85 f8 da ff ff 	movq   $0x0,-0x2508(%rbp)
   10f59:	00 00 00 00 
   10f5d:	48 8d 85 50 cc ff ff 	lea    -0x33b0(%rbp),%rax
   10f64:	48 89 85 00 db ff ff 	mov    %rax,-0x2500(%rbp)
   10f6b:	48 8d 85 50 cc ff ff 	lea    -0x33b0(%rbp),%rax
   10f72:	48 89 85 08 db ff ff 	mov    %rax,-0x24f8(%rbp)
   10f79:	48 8d 85 50 cc ff ff 	lea    -0x33b0(%rbp),%rax
   10f80:	48 89 85 10 db ff ff 	mov    %rax,-0x24f0(%rbp)
   10f87:	48 8d 85 50 cc ff ff 	lea    -0x33b0(%rbp),%rax
   10f8e:	48 89 85 18 db ff ff 	mov    %rax,-0x24e8(%rbp)
   10f95:	48 8d 85 50 cc ff ff 	lea    -0x33b0(%rbp),%rax
   10f9c:	48 89 85 20 db ff ff 	mov    %rax,-0x24e0(%rbp)
   10fa3:	48 8d 85 50 cc ff ff 	lea    -0x33b0(%rbp),%rax
   10faa:	48 89 85 28 db ff ff 	mov    %rax,-0x24d8(%rbp)
   10fb1:	48 c7 85 30 db ff ff 	movq   $0x0,-0x24d0(%rbp)
   10fb8:	00 00 00 00 
   10fbc:	48 8d 85 50 cc ff ff 	lea    -0x33b0(%rbp),%rax
   10fc3:	48 89 85 38 db ff ff 	mov    %rax,-0x24c8(%rbp)
   10fca:	48 8d 85 50 cc ff ff 	lea    -0x33b0(%rbp),%rax
   10fd1:	48 89 85 40 db ff ff 	mov    %rax,-0x24c0(%rbp)
   10fd8:	48 c7 85 48 db ff ff 	movq   $0x0,-0x24b8(%rbp)
   10fdf:	00 00 00 00 
   10fe3:	48 8d 85 50 cc ff ff 	lea    -0x33b0(%rbp),%rax
   10fea:	48 89 85 50 db ff ff 	mov    %rax,-0x24b0(%rbp)
   10ff1:	48 8d 85 50 cc ff ff 	lea    -0x33b0(%rbp),%rax
   10ff8:	48 89 85 58 db ff ff 	mov    %rax,-0x24a8(%rbp)
   10fff:	48 8d 85 50 cc ff ff 	lea    -0x33b0(%rbp),%rax
   11006:	48 89 85 60 db ff ff 	mov    %rax,-0x24a0(%rbp)
   1100d:	48 8d 85 50 cc ff ff 	lea    -0x33b0(%rbp),%rax
   11014:	48 89 85 68 db ff ff 	mov    %rax,-0x2498(%rbp)
   1101b:	48 8d 85 50 cc ff ff 	lea    -0x33b0(%rbp),%rax
   11022:	48 89 85 70 db ff ff 	mov    %rax,-0x2490(%rbp)
   11029:	48 8d 85 50 cc ff ff 	lea    -0x33b0(%rbp),%rax
   11030:	48 89 85 78 db ff ff 	mov    %rax,-0x2488(%rbp)
   11037:	48 8d 85 50 cc ff ff 	lea    -0x33b0(%rbp),%rax
   1103e:	48 89 85 80 db ff ff 	mov    %rax,-0x2480(%rbp)
   11045:	48 8d 85 50 cc ff ff 	lea    -0x33b0(%rbp),%rax
   1104c:	48 89 85 88 db ff ff 	mov    %rax,-0x2478(%rbp)
   11053:	48 8d 85 50 cc ff ff 	lea    -0x33b0(%rbp),%rax
   1105a:	48 89 85 90 db ff ff 	mov    %rax,-0x2470(%rbp)
   11061:	48 c7 85 98 db ff ff 	movq   $0x0,-0x2468(%rbp)
   11068:	00 00 00 00 
   1106c:	48 8d 85 50 cc ff ff 	lea    -0x33b0(%rbp),%rax
   11073:	48 89 85 a0 db ff ff 	mov    %rax,-0x2460(%rbp)
   1107a:	48 8d 85 50 cc ff ff 	lea    -0x33b0(%rbp),%rax
   11081:	48 89 85 a8 db ff ff 	mov    %rax,-0x2458(%rbp)
   11088:	48 8d 85 50 cc ff ff 	lea    -0x33b0(%rbp),%rax
   1108f:	48 89 85 b0 db ff ff 	mov    %rax,-0x2450(%rbp)
   11096:	48 8d 85 50 cc ff ff 	lea    -0x33b0(%rbp),%rax
   1109d:	48 89 85 b8 db ff ff 	mov    %rax,-0x2448(%rbp)
   110a4:	48 8d 85 50 cc ff ff 	lea    -0x33b0(%rbp),%rax
   110ab:	48 89 85 c0 db ff ff 	mov    %rax,-0x2440(%rbp)
   110b2:	48 c7 85 c8 db ff ff 	movq   $0x0,-0x2438(%rbp)
   110b9:	00 00 00 00 
   110bd:	48 8d 85 50 cc ff ff 	lea    -0x33b0(%rbp),%rax
   110c4:	48 89 85 d0 db ff ff 	mov    %rax,-0x2430(%rbp)
   110cb:	48 c7 85 d8 db ff ff 	movq   $0x0,-0x2428(%rbp)
   110d2:	00 00 00 00 
   110d6:	48 8d 85 50 cc ff ff 	lea    -0x33b0(%rbp),%rax
   110dd:	48 89 85 e0 db ff ff 	mov    %rax,-0x2420(%rbp)
   110e4:	48 c7 85 e8 db ff ff 	movq   $0x0,-0x2418(%rbp)
   110eb:	00 00 00 00 
   110ef:	48 c7 85 f0 db ff ff 	movq   $0x0,-0x2410(%rbp)
   110f6:	00 00 00 00 
   110fa:	48 8d 85 50 cc ff ff 	lea    -0x33b0(%rbp),%rax
   11101:	48 89 85 f8 db ff ff 	mov    %rax,-0x2408(%rbp)
   11108:	48 8d 85 50 cc ff ff 	lea    -0x33b0(%rbp),%rax
   1110f:	48 89 85 00 dc ff ff 	mov    %rax,-0x2400(%rbp)
   11116:	48 8d 85 50 cc ff ff 	lea    -0x33b0(%rbp),%rax
   1111d:	48 89 85 08 dc ff ff 	mov    %rax,-0x23f8(%rbp)
   11124:	48 8d 85 50 cc ff ff 	lea    -0x33b0(%rbp),%rax
   1112b:	48 89 85 10 dc ff ff 	mov    %rax,-0x23f0(%rbp)
   11132:	48 c7 85 18 dc ff ff 	movq   $0x0,-0x23e8(%rbp)
   11139:	00 00 00 00 
   1113d:	48 8d 85 50 cc ff ff 	lea    -0x33b0(%rbp),%rax
   11144:	48 89 85 20 dc ff ff 	mov    %rax,-0x23e0(%rbp)
   1114b:	48 8d 85 50 cc ff ff 	lea    -0x33b0(%rbp),%rax
   11152:	48 89 85 28 dc ff ff 	mov    %rax,-0x23d8(%rbp)
   11159:	48 8d 85 50 cc ff ff 	lea    -0x33b0(%rbp),%rax
   11160:	48 89 85 30 dc ff ff 	mov    %rax,-0x23d0(%rbp)
   11167:	48 8d 85 50 cc ff ff 	lea    -0x33b0(%rbp),%rax
   1116e:	48 89 85 38 dc ff ff 	mov    %rax,-0x23c8(%rbp)
   11175:	48 8d 85 50 cc ff ff 	lea    -0x33b0(%rbp),%rax
   1117c:	48 89 85 40 dc ff ff 	mov    %rax,-0x23c0(%rbp)
   11183:	48 8d 85 50 cc ff ff 	lea    -0x33b0(%rbp),%rax
   1118a:	48 89 85 48 dc ff ff 	mov    %rax,-0x23b8(%rbp)
   11191:	48 8d 85 50 cc ff ff 	lea    -0x33b0(%rbp),%rax
   11198:	48 89 85 50 dc ff ff 	mov    %rax,-0x23b0(%rbp)
   1119f:	48 8d 85 50 cc ff ff 	lea    -0x33b0(%rbp),%rax
   111a6:	48 89 85 58 dc ff ff 	mov    %rax,-0x23a8(%rbp)
   111ad:	48 8d 85 50 cc ff ff 	lea    -0x33b0(%rbp),%rax
   111b4:	48 89 85 60 dc ff ff 	mov    %rax,-0x23a0(%rbp)
   111bb:	48 c7 85 68 dc ff ff 	movq   $0x0,-0x2398(%rbp)
   111c2:	00 00 00 00 
   111c6:	48 8d 85 50 cc ff ff 	lea    -0x33b0(%rbp),%rax
   111cd:	48 89 85 70 dc ff ff 	mov    %rax,-0x2390(%rbp)
   111d4:	48 8d 85 50 cc ff ff 	lea    -0x33b0(%rbp),%rax
   111db:	48 89 85 78 dc ff ff 	mov    %rax,-0x2388(%rbp)
   111e2:	48 c7 85 80 dc ff ff 	movq   $0x0,-0x2380(%rbp)
   111e9:	00 00 00 00 
   111ed:	48 8d 85 50 cc ff ff 	lea    -0x33b0(%rbp),%rax
   111f4:	48 89 85 88 dc ff ff 	mov    %rax,-0x2378(%rbp)
   111fb:	48 c7 85 90 dc ff ff 	movq   $0x0,-0x2370(%rbp)
   11202:	00 00 00 00 
   11206:	48 8d 85 50 cc ff ff 	lea    -0x33b0(%rbp),%rax
   1120d:	48 89 85 98 dc ff ff 	mov    %rax,-0x2368(%rbp)
   11214:	48 8d 85 50 cc ff ff 	lea    -0x33b0(%rbp),%rax
   1121b:	48 89 85 a0 dc ff ff 	mov    %rax,-0x2360(%rbp)
   11222:	48 8d 85 50 cc ff ff 	lea    -0x33b0(%rbp),%rax
   11229:	48 89 85 a8 dc ff ff 	mov    %rax,-0x2358(%rbp)
   11230:	48 8b 05 89 ea 00 00 	mov    0xea89(%rip),%rax        # 1fcc0 <g_275>
   11237:	48 8b 95 10 ca ff ff 	mov    -0x35f0(%rbp),%rdx
   1123e:	48 89 10             	mov    %rdx,(%rax)
   11241:	c7 05 9d be 00 00 00 	movl   $0x0,0xbe9d(%rip)        # 1d0e8 <g_144>
   11248:	00 00 00 
   1124b:	e9 be 00 00 00       	jmpq   1130e <func_66+0x292d>
   11250:	c7 05 06 be 00 00 00 	movl   $0x0,0xbe06(%rip)        # 1d060 <g_93+0x20>
   11257:	00 00 00 
   1125a:	e9 91 00 00 00       	jmpq   112f0 <func_66+0x290f>
   1125f:	66 c7 05 86 be 00 00 	movw   $0x0,0xbe86(%rip)        # 1d0ee <g_177>
   11266:	00 00 
   11268:	eb 6a                	jmp    112d4 <func_66+0x28f3>
   1126a:	8b 05 78 be 00 00    	mov    0xbe78(%rip),%eax        # 1d0e8 <g_144>
   11270:	8b 35 ea bd 00 00    	mov    0xbdea(%rip),%esi        # 1d060 <g_93+0x20>
   11276:	0f b7 15 71 be 00 00 	movzwl 0xbe71(%rip),%edx        # 1d0ee <g_177>
   1127d:	0f bf d2             	movswl %dx,%edx
   11280:	48 63 ca             	movslq %edx,%rcx
   11283:	48 98                	cltq   
   11285:	89 f6                	mov    %esi,%esi
   11287:	48 89 c2             	mov    %rax,%rdx
   1128a:	48 01 d2             	add    %rdx,%rdx
   1128d:	48 01 c2             	add    %rax,%rdx
   11290:	48 89 d0             	mov    %rdx,%rax
   11293:	48 c1 e0 04          	shl    $0x4,%rax
   11297:	48 89 c2             	mov    %rax,%rdx
   1129a:	48 89 f0             	mov    %rsi,%rax
   1129d:	48 01 c0             	add    %rax,%rax
   112a0:	48 01 f0             	add    %rsi,%rax
   112a3:	48 01 c0             	add    %rax,%rax
   112a6:	48 01 d0             	add    %rdx,%rax
   112a9:	48 01 c8             	add    %rcx,%rax
   112ac:	48 8d 14 c5 00 00 00 	lea    0x0(,%rax,8),%rdx
   112b3:	00 
   112b4:	48 8d 05 65 e2 00 00 	lea    0xe265(%rip),%rax        # 1f520 <g_139>
   112bb:	48 c7 04 02 00 00 00 	movq   $0x0,(%rdx,%rax,1)
   112c2:	00 
   112c3:	0f b7 05 24 be 00 00 	movzwl 0xbe24(%rip),%eax        # 1d0ee <g_177>
   112ca:	83 c0 01             	add    $0x1,%eax
   112cd:	66 89 05 1a be 00 00 	mov    %ax,0xbe1a(%rip)        # 1d0ee <g_177>
   112d4:	0f b7 05 13 be 00 00 	movzwl 0xbe13(%rip),%eax        # 1d0ee <g_177>
   112db:	66 83 f8 05          	cmp    $0x5,%ax
   112df:	7e 89                	jle    1126a <func_66+0x2889>
   112e1:	8b 05 79 bd 00 00    	mov    0xbd79(%rip),%eax        # 1d060 <g_93+0x20>
   112e7:	83 c0 01             	add    $0x1,%eax
   112ea:	89 05 70 bd 00 00    	mov    %eax,0xbd70(%rip)        # 1d060 <g_93+0x20>
   112f0:	8b 05 6a bd 00 00    	mov    0xbd6a(%rip),%eax        # 1d060 <g_93+0x20>
   112f6:	83 f8 07             	cmp    $0x7,%eax
   112f9:	0f 86 60 ff ff ff    	jbe    1125f <func_66+0x287e>
   112ff:	8b 05 e3 bd 00 00    	mov    0xbde3(%rip),%eax        # 1d0e8 <g_144>
   11305:	83 c0 01             	add    $0x1,%eax
   11308:	89 05 da bd 00 00    	mov    %eax,0xbdda(%rip)        # 1d0e8 <g_144>
   1130e:	8b 05 d4 bd 00 00    	mov    0xbdd4(%rip),%eax        # 1d0e8 <g_144>
   11314:	83 f8 04             	cmp    $0x4,%eax
   11317:	0f 8e 33 ff ff ff    	jle    11250 <func_66+0x286f>
   1131d:	8b 05 7d be 00 00    	mov    0xbe7d(%rip),%eax        # 1d1a0 <g_237>
   11323:	be 03 00 00 00       	mov    $0x3,%esi
   11328:	89 c7                	mov    %eax,%edi
   1132a:	e8 a7 62 ff ff       	callq  75d6 <safe_add_func_int32_t_s_s>
   1132f:	89 05 6b be 00 00    	mov    %eax,0xbe6b(%rip)        # 1d1a0 <g_237>
   11335:	8b 05 65 be 00 00    	mov    0xbe65(%rip),%eax        # 1d1a0 <g_237>
   1133b:	83 f8 0e             	cmp    $0xe,%eax
   1133e:	0f 8f 8d f5 ff ff    	jg     108d1 <func_66+0x1ef0>
   11344:	0f b6 05 f9 bc 00 00 	movzbl 0xbcf9(%rip),%eax        # 1d044 <g_93+0x4>
   1134b:	0f be c0             	movsbl %al,%eax
   1134e:	be 01 00 00 00       	mov    $0x1,%esi
   11353:	89 c7                	mov    %eax,%edi
   11355:	e8 79 60 ff ff       	callq  73d3 <safe_add_func_int16_t_s_s>
   1135a:	88 05 e4 bc 00 00    	mov    %al,0xbce4(%rip)        # 1d044 <g_93+0x4>
   11360:	0f b6 05 dd bc 00 00 	movzbl 0xbcdd(%rip),%eax        # 1d044 <g_93+0x4>
   11367:	3c 14                	cmp    $0x14,%al
   11369:	0f 85 7a da ff ff    	jne    ede9 <func_66+0x408>
   1136f:	c6 05 3e be 00 00 00 	movb   $0x0,0xbe3e(%rip)        # 1d1b4 <g_237+0x14>
   11376:	e9 84 06 00 00       	jmpq   119ff <func_66+0x301e>
   1137b:	48 b8 9e 59 a2 be d0 	movabs $0xd1a2b5d0bea2599e,%rax
   11382:	b5 a2 d1 
   11385:	48 89 85 90 cb ff ff 	mov    %rax,-0x3470(%rbp)
   1138c:	48 8d 85 c0 ca ff ff 	lea    -0x3540(%rbp),%rax
   11393:	48 89 85 98 cb ff ff 	mov    %rax,-0x3468(%rbp)
   1139a:	c7 85 a0 ca ff ff 01 	movl   $0x1,-0x3560(%rbp)
   113a1:	00 00 00 
   113a4:	c7 85 a4 ca ff ff 01 	movl   $0x1,-0x355c(%rbp)
   113ab:	00 00 00 
   113ae:	48 c7 85 a0 cb ff ff 	movq   $0x0,-0x3460(%rbp)
   113b5:	00 00 00 00 
   113b9:	48 8d 05 70 bd 00 00 	lea    0xbd70(%rip),%rax        # 1d130 <g_214+0x30>
   113c0:	48 89 85 60 cf ff ff 	mov    %rax,-0x30a0(%rbp)
   113c7:	48 8d 05 62 bd 00 00 	lea    0xbd62(%rip),%rax        # 1d130 <g_214+0x30>
   113ce:	48 89 85 68 cf ff ff 	mov    %rax,-0x3098(%rbp)
   113d5:	48 8d 05 5e bd 00 00 	lea    0xbd5e(%rip),%rax        # 1d13a <g_214+0x3a>
   113dc:	48 89 85 70 cf ff ff 	mov    %rax,-0x3090(%rbp)
   113e3:	48 8d 05 46 bd 00 00 	lea    0xbd46(%rip),%rax        # 1d130 <g_214+0x30>
   113ea:	48 89 85 78 cf ff ff 	mov    %rax,-0x3088(%rbp)
   113f1:	48 8d 05 38 bd 00 00 	lea    0xbd38(%rip),%rax        # 1d130 <g_214+0x30>
   113f8:	48 89 85 80 cf ff ff 	mov    %rax,-0x3080(%rbp)
   113ff:	48 8d 05 2a bd 00 00 	lea    0xbd2a(%rip),%rax        # 1d130 <g_214+0x30>
   11406:	48 89 85 88 cf ff ff 	mov    %rax,-0x3078(%rbp)
   1140d:	48 8d 05 1c bd 00 00 	lea    0xbd1c(%rip),%rax        # 1d130 <g_214+0x30>
   11414:	48 89 85 90 cf ff ff 	mov    %rax,-0x3070(%rbp)
   1141b:	48 8d 05 0e bd 00 00 	lea    0xbd0e(%rip),%rax        # 1d130 <g_214+0x30>
   11422:	48 89 85 98 cf ff ff 	mov    %rax,-0x3068(%rbp)
   11429:	48 8d 05 00 bd 00 00 	lea    0xbd00(%rip),%rax        # 1d130 <g_214+0x30>
   11430:	48 89 85 a0 cf ff ff 	mov    %rax,-0x3060(%rbp)
   11437:	48 8d 05 f2 bc 00 00 	lea    0xbcf2(%rip),%rax        # 1d130 <g_214+0x30>
   1143e:	48 89 85 a8 cf ff ff 	mov    %rax,-0x3058(%rbp)
   11445:	48 8d 05 e4 bc 00 00 	lea    0xbce4(%rip),%rax        # 1d130 <g_214+0x30>
   1144c:	48 89 85 b0 cf ff ff 	mov    %rax,-0x3050(%rbp)
   11453:	48 8d 05 d6 bc 00 00 	lea    0xbcd6(%rip),%rax        # 1d130 <g_214+0x30>
   1145a:	48 89 85 b8 cf ff ff 	mov    %rax,-0x3048(%rbp)
   11461:	48 8d 05 c8 bc 00 00 	lea    0xbcc8(%rip),%rax        # 1d130 <g_214+0x30>
   11468:	48 89 85 c0 cf ff ff 	mov    %rax,-0x3040(%rbp)
   1146f:	48 8d 05 ba bc 00 00 	lea    0xbcba(%rip),%rax        # 1d130 <g_214+0x30>
   11476:	48 89 85 c8 cf ff ff 	mov    %rax,-0x3038(%rbp)
   1147d:	48 8d 05 b6 bc 00 00 	lea    0xbcb6(%rip),%rax        # 1d13a <g_214+0x3a>
   11484:	48 89 85 d0 cf ff ff 	mov    %rax,-0x3030(%rbp)
   1148b:	48 8d 05 9e bc 00 00 	lea    0xbc9e(%rip),%rax        # 1d130 <g_214+0x30>
   11492:	48 89 85 d8 cf ff ff 	mov    %rax,-0x3028(%rbp)
   11499:	48 8d 05 90 bc 00 00 	lea    0xbc90(%rip),%rax        # 1d130 <g_214+0x30>
   114a0:	48 89 85 e0 cf ff ff 	mov    %rax,-0x3020(%rbp)
   114a7:	48 8d 05 82 bc 00 00 	lea    0xbc82(%rip),%rax        # 1d130 <g_214+0x30>
   114ae:	48 89 85 e8 cf ff ff 	mov    %rax,-0x3018(%rbp)
   114b5:	48 8d 05 74 bc 00 00 	lea    0xbc74(%rip),%rax        # 1d130 <g_214+0x30>
   114bc:	48 89 85 f0 cf ff ff 	mov    %rax,-0x3010(%rbp)
   114c3:	48 8d 05 66 bc 00 00 	lea    0xbc66(%rip),%rax        # 1d130 <g_214+0x30>
   114ca:	48 89 85 f8 cf ff ff 	mov    %rax,-0x3008(%rbp)
   114d1:	48 8d 05 58 bc 00 00 	lea    0xbc58(%rip),%rax        # 1d130 <g_214+0x30>
   114d8:	48 89 85 00 d0 ff ff 	mov    %rax,-0x3000(%rbp)
   114df:	48 c7 85 10 ce ff ff 	movq   $0x0,-0x31f0(%rbp)
   114e6:	00 00 00 00 
   114ea:	48 8d 85 60 cf ff ff 	lea    -0x30a0(%rbp),%rax
   114f1:	48 83 c0 20          	add    $0x20,%rax
   114f5:	48 89 85 18 ce ff ff 	mov    %rax,-0x31e8(%rbp)
   114fc:	48 8d 85 60 cf ff ff 	lea    -0x30a0(%rbp),%rax
   11503:	48 83 c0 20          	add    $0x20,%rax
   11507:	48 89 85 20 ce ff ff 	mov    %rax,-0x31e0(%rbp)
   1150e:	48 c7 85 28 ce ff ff 	movq   $0x0,-0x31d8(%rbp)
   11515:	00 00 00 00 
   11519:	48 8d 85 60 cf ff ff 	lea    -0x30a0(%rbp),%rax
   11520:	48 83 c0 20          	add    $0x20,%rax
   11524:	48 89 85 30 ce ff ff 	mov    %rax,-0x31d0(%rbp)
   1152b:	48 8d 85 60 cf ff ff 	lea    -0x30a0(%rbp),%rax
   11532:	48 83 c0 20          	add    $0x20,%rax
   11536:	48 89 85 38 ce ff ff 	mov    %rax,-0x31c8(%rbp)
   1153d:	48 8d 85 60 cf ff ff 	lea    -0x30a0(%rbp),%rax
   11544:	48 83 c0 38          	add    $0x38,%rax
   11548:	48 89 85 40 ce ff ff 	mov    %rax,-0x31c0(%rbp)
   1154f:	48 8d 85 60 cf ff ff 	lea    -0x30a0(%rbp),%rax
   11556:	48 83 c0 20          	add    $0x20,%rax
   1155a:	48 89 85 48 ce ff ff 	mov    %rax,-0x31b8(%rbp)
   11561:	48 8d 85 60 cf ff ff 	lea    -0x30a0(%rbp),%rax
   11568:	48 83 c0 20          	add    $0x20,%rax
   1156c:	48 89 85 50 ce ff ff 	mov    %rax,-0x31b0(%rbp)
   11573:	48 8d 85 60 cf ff ff 	lea    -0x30a0(%rbp),%rax
   1157a:	48 83 c0 38          	add    $0x38,%rax
   1157e:	48 89 85 58 ce ff ff 	mov    %rax,-0x31a8(%rbp)
   11585:	48 8d 85 60 cf ff ff 	lea    -0x30a0(%rbp),%rax
   1158c:	48 83 c0 20          	add    $0x20,%rax
   11590:	48 89 85 60 ce ff ff 	mov    %rax,-0x31a0(%rbp)
   11597:	48 8d 85 60 cf ff ff 	lea    -0x30a0(%rbp),%rax
   1159e:	48 83 c0 20          	add    $0x20,%rax
   115a2:	48 89 85 68 ce ff ff 	mov    %rax,-0x3198(%rbp)
   115a9:	48 8d 85 60 cf ff ff 	lea    -0x30a0(%rbp),%rax
   115b0:	48 83 c0 20          	add    $0x20,%rax
   115b4:	48 89 85 70 ce ff ff 	mov    %rax,-0x3190(%rbp)
   115bb:	48 8d 85 60 cf ff ff 	lea    -0x30a0(%rbp),%rax
   115c2:	48 83 c0 20          	add    $0x20,%rax
   115c6:	48 89 85 78 ce ff ff 	mov    %rax,-0x3188(%rbp)
   115cd:	48 8d 85 60 cf ff ff 	lea    -0x30a0(%rbp),%rax
   115d4:	48 83 c0 20          	add    $0x20,%rax
   115d8:	48 89 85 80 ce ff ff 	mov    %rax,-0x3180(%rbp)
   115df:	48 8d 85 60 cf ff ff 	lea    -0x30a0(%rbp),%rax
   115e6:	48 83 c0 20          	add    $0x20,%rax
   115ea:	48 89 85 88 ce ff ff 	mov    %rax,-0x3178(%rbp)
   115f1:	48 8d 85 60 cf ff ff 	lea    -0x30a0(%rbp),%rax
   115f8:	48 83 c0 20          	add    $0x20,%rax
   115fc:	48 89 85 90 ce ff ff 	mov    %rax,-0x3170(%rbp)
   11603:	48 8d 85 60 cf ff ff 	lea    -0x30a0(%rbp),%rax
   1160a:	48 83 c0 20          	add    $0x20,%rax
   1160e:	48 89 85 98 ce ff ff 	mov    %rax,-0x3168(%rbp)
   11615:	48 8d 85 f0 de ff ff 	lea    -0x2110(%rbp),%rax
   1161c:	48 05 6c 1a 00 00    	add    $0x1a6c,%rax
   11622:	48 89 85 a8 cb ff ff 	mov    %rax,-0x3458(%rbp)
   11629:	48 8d 85 f0 de ff ff 	lea    -0x2110(%rbp),%rax
   11630:	48 05 88 1a 00 00    	add    $0x1a88,%rax
   11636:	48 89 85 10 d7 ff ff 	mov    %rax,-0x28f0(%rbp)
   1163d:	48 8d 85 f0 de ff ff 	lea    -0x2110(%rbp),%rax
   11644:	48 05 88 1a 00 00    	add    $0x1a88,%rax
   1164a:	48 89 85 18 d7 ff ff 	mov    %rax,-0x28e8(%rbp)
   11651:	48 8d 85 f0 de ff ff 	lea    -0x2110(%rbp),%rax
   11658:	48 05 88 1a 00 00    	add    $0x1a88,%rax
   1165e:	48 89 85 20 d7 ff ff 	mov    %rax,-0x28e0(%rbp)
   11665:	48 8d 05 54 bb 00 00 	lea    0xbb54(%rip),%rax        # 1d1c0 <g_237+0x20>
   1166c:	48 89 85 28 d7 ff ff 	mov    %rax,-0x28d8(%rbp)
   11673:	48 8d 85 c0 cc ff ff 	lea    -0x3340(%rbp),%rax
   1167a:	48 83 c0 10          	add    $0x10,%rax
   1167e:	48 89 85 30 d7 ff ff 	mov    %rax,-0x28d0(%rbp)
   11685:	48 8d 05 98 b9 00 00 	lea    0xb998(%rip),%rax        # 1d024 <g_8>
   1168c:	48 89 85 38 d7 ff ff 	mov    %rax,-0x28c8(%rbp)
   11693:	48 8d 05 26 bb 00 00 	lea    0xbb26(%rip),%rax        # 1d1c0 <g_237+0x20>
   1169a:	48 89 85 40 d7 ff ff 	mov    %rax,-0x28c0(%rbp)
   116a1:	48 8d 85 3c ca ff ff 	lea    -0x35c4(%rbp),%rax
   116a8:	48 89 85 48 d7 ff ff 	mov    %rax,-0x28b8(%rbp)
   116af:	48 c7 85 50 d7 ff ff 	movq   $0x0,-0x28b0(%rbp)
   116b6:	00 00 00 00 
   116ba:	48 8d 85 3c ca ff ff 	lea    -0x35c4(%rbp),%rax
   116c1:	48 89 85 58 d7 ff ff 	mov    %rax,-0x28a8(%rbp)
   116c8:	48 8d 85 3c ca ff ff 	lea    -0x35c4(%rbp),%rax
   116cf:	48 89 85 60 d7 ff ff 	mov    %rax,-0x28a0(%rbp)
   116d6:	48 8d 05 83 b9 00 00 	lea    0xb983(%rip),%rax        # 1d060 <g_93+0x20>
   116dd:	48 89 85 68 d7 ff ff 	mov    %rax,-0x2898(%rbp)
   116e4:	48 8d 85 f0 de ff ff 	lea    -0x2110(%rbp),%rax
   116eb:	48 05 88 1a 00 00    	add    $0x1a88,%rax
   116f1:	48 89 85 70 d7 ff ff 	mov    %rax,-0x2890(%rbp)
   116f8:	48 8d 05 25 b9 00 00 	lea    0xb925(%rip),%rax        # 1d024 <g_8>
   116ff:	48 89 85 78 d7 ff ff 	mov    %rax,-0x2888(%rbp)
   11706:	48 8d 05 b3 ba 00 00 	lea    0xbab3(%rip),%rax        # 1d1c0 <g_237+0x20>
   1170d:	48 89 85 80 d7 ff ff 	mov    %rax,-0x2880(%rbp)
   11714:	48 8d 05 a5 ba 00 00 	lea    0xbaa5(%rip),%rax        # 1d1c0 <g_237+0x20>
   1171b:	48 89 85 88 d7 ff ff 	mov    %rax,-0x2878(%rbp)
   11722:	48 8d 85 3c ca ff ff 	lea    -0x35c4(%rbp),%rax
   11729:	48 89 85 90 d7 ff ff 	mov    %rax,-0x2870(%rbp)
   11730:	48 8d 05 29 b9 00 00 	lea    0xb929(%rip),%rax        # 1d060 <g_93+0x20>
   11737:	48 89 85 98 d7 ff ff 	mov    %rax,-0x2868(%rbp)
   1173e:	48 8d 85 f0 de ff ff 	lea    -0x2110(%rbp),%rax
   11745:	48 05 88 1a 00 00    	add    $0x1a88,%rax
   1174b:	48 89 85 a0 d7 ff ff 	mov    %rax,-0x2860(%rbp)
   11752:	48 8d 05 cb b8 00 00 	lea    0xb8cb(%rip),%rax        # 1d024 <g_8>
   11759:	48 89 85 a8 d7 ff ff 	mov    %rax,-0x2858(%rbp)
   11760:	48 8d 05 f9 b8 00 00 	lea    0xb8f9(%rip),%rax        # 1d060 <g_93+0x20>
   11767:	48 89 85 b0 d7 ff ff 	mov    %rax,-0x2850(%rbp)
   1176e:	48 8d 05 af b8 00 00 	lea    0xb8af(%rip),%rax        # 1d024 <g_8>
   11775:	48 89 85 b8 d7 ff ff 	mov    %rax,-0x2848(%rbp)
   1177c:	48 8d 05 a1 b8 00 00 	lea    0xb8a1(%rip),%rax        # 1d024 <g_8>
   11783:	48 89 85 c0 d7 ff ff 	mov    %rax,-0x2840(%rbp)
   1178a:	48 8d 05 cf b8 00 00 	lea    0xb8cf(%rip),%rax        # 1d060 <g_93+0x20>
   11791:	48 89 85 c8 d7 ff ff 	mov    %rax,-0x2838(%rbp)
   11798:	48 8d 05 c1 b8 00 00 	lea    0xb8c1(%rip),%rax        # 1d060 <g_93+0x20>
   1179f:	48 89 85 d0 d7 ff ff 	mov    %rax,-0x2830(%rbp)
   117a6:	48 8d 05 77 b8 00 00 	lea    0xb877(%rip),%rax        # 1d024 <g_8>
   117ad:	48 89 85 d8 d7 ff ff 	mov    %rax,-0x2828(%rbp)
   117b4:	48 8d 05 69 b8 00 00 	lea    0xb869(%rip),%rax        # 1d024 <g_8>
   117bb:	48 89 85 e0 d7 ff ff 	mov    %rax,-0x2820(%rbp)
   117c2:	48 8d 05 97 b8 00 00 	lea    0xb897(%rip),%rax        # 1d060 <g_93+0x20>
   117c9:	48 89 85 e8 d7 ff ff 	mov    %rax,-0x2818(%rbp)
   117d0:	48 8d 05 4d b8 00 00 	lea    0xb84d(%rip),%rax        # 1d024 <g_8>
   117d7:	48 89 85 f0 d7 ff ff 	mov    %rax,-0x2810(%rbp)
   117de:	48 8d 85 f0 de ff ff 	lea    -0x2110(%rbp),%rax
   117e5:	48 05 88 1a 00 00    	add    $0x1a88,%rax
   117eb:	48 89 85 f8 d7 ff ff 	mov    %rax,-0x2808(%rbp)
   117f2:	48 8d 05 67 b8 00 00 	lea    0xb867(%rip),%rax        # 1d060 <g_93+0x20>
   117f9:	48 89 85 00 d8 ff ff 	mov    %rax,-0x2800(%rbp)
   11800:	48 8d 85 3c ca ff ff 	lea    -0x35c4(%rbp),%rax
   11807:	48 89 85 08 d8 ff ff 	mov    %rax,-0x27f8(%rbp)
   1180e:	48 8d 05 ab b9 00 00 	lea    0xb9ab(%rip),%rax        # 1d1c0 <g_237+0x20>
   11815:	48 89 85 10 d8 ff ff 	mov    %rax,-0x27f0(%rbp)
   1181c:	48 8d 05 9d b9 00 00 	lea    0xb99d(%rip),%rax        # 1d1c0 <g_237+0x20>
   11823:	48 89 85 18 d8 ff ff 	mov    %rax,-0x27e8(%rbp)
   1182a:	48 8d 05 f3 b7 00 00 	lea    0xb7f3(%rip),%rax        # 1d024 <g_8>
   11831:	48 89 85 20 d8 ff ff 	mov    %rax,-0x27e0(%rbp)
   11838:	48 8d 85 f0 de ff ff 	lea    -0x2110(%rbp),%rax
   1183f:	48 05 88 1a 00 00    	add    $0x1a88,%rax
   11845:	48 89 85 28 d8 ff ff 	mov    %rax,-0x27d8(%rbp)
   1184c:	48 8d 05 0d b8 00 00 	lea    0xb80d(%rip),%rax        # 1d060 <g_93+0x20>
   11853:	48 89 85 30 d8 ff ff 	mov    %rax,-0x27d0(%rbp)
   1185a:	48 8d 85 3c ca ff ff 	lea    -0x35c4(%rbp),%rax
   11861:	48 89 85 38 d8 ff ff 	mov    %rax,-0x27c8(%rbp)
   11868:	48 8d 85 3c ca ff ff 	lea    -0x35c4(%rbp),%rax
   1186f:	48 89 85 40 d8 ff ff 	mov    %rax,-0x27c0(%rbp)
   11876:	48 c7 85 48 d8 ff ff 	movq   $0x0,-0x27b8(%rbp)
   1187d:	00 00 00 00 
   11881:	48 8d 85 3c ca ff ff 	lea    -0x35c4(%rbp),%rax
   11888:	48 89 85 50 d8 ff ff 	mov    %rax,-0x27b0(%rbp)
   1188f:	48 8d 05 2a b9 00 00 	lea    0xb92a(%rip),%rax        # 1d1c0 <g_237+0x20>
   11896:	48 89 85 58 d8 ff ff 	mov    %rax,-0x27a8(%rbp)
   1189d:	48 8d 05 80 b7 00 00 	lea    0xb780(%rip),%rax        # 1d024 <g_8>
   118a4:	48 89 85 60 d8 ff ff 	mov    %rax,-0x27a0(%rbp)
   118ab:	48 8d 85 c0 cc ff ff 	lea    -0x3340(%rbp),%rax
   118b2:	48 83 c0 10          	add    $0x10,%rax
   118b6:	48 89 85 68 d8 ff ff 	mov    %rax,-0x2798(%rbp)
   118bd:	48 8d 05 fc b8 00 00 	lea    0xb8fc(%rip),%rax        # 1d1c0 <g_237+0x20>
   118c4:	48 89 85 70 d8 ff ff 	mov    %rax,-0x2790(%rbp)
   118cb:	48 8d 85 f0 de ff ff 	lea    -0x2110(%rbp),%rax
   118d2:	48 05 88 1a 00 00    	add    $0x1a88,%rax
   118d8:	48 89 85 78 d8 ff ff 	mov    %rax,-0x2788(%rbp)
   118df:	48 8d 85 f0 de ff ff 	lea    -0x2110(%rbp),%rax
   118e6:	48 05 88 1a 00 00    	add    $0x1a88,%rax
   118ec:	48 89 85 80 d8 ff ff 	mov    %rax,-0x2780(%rbp)
   118f3:	48 8d 85 f0 de ff ff 	lea    -0x2110(%rbp),%rax
   118fa:	48 05 88 1a 00 00    	add    $0x1a88,%rax
   11900:	48 89 85 88 d8 ff ff 	mov    %rax,-0x2778(%rbp)
   11907:	48 8d 85 3c ca ff ff 	lea    -0x35c4(%rbp),%rax
   1190e:	48 89 85 90 d8 ff ff 	mov    %rax,-0x2770(%rbp)
   11915:	48 8d 05 08 b7 00 00 	lea    0xb708(%rip),%rax        # 1d024 <g_8>
   1191c:	48 89 85 98 d8 ff ff 	mov    %rax,-0x2768(%rbp)
   11923:	48 8d 85 c0 cc ff ff 	lea    -0x3340(%rbp),%rax
   1192a:	48 83 c0 10          	add    $0x10,%rax
   1192e:	48 89 85 a0 d8 ff ff 	mov    %rax,-0x2760(%rbp)
   11935:	48 8d 85 3c ca ff ff 	lea    -0x35c4(%rbp),%rax
   1193c:	48 89 85 a8 d8 ff ff 	mov    %rax,-0x2758(%rbp)
   11943:	48 8d 85 c0 cc ff ff 	lea    -0x3340(%rbp),%rax
   1194a:	48 83 c0 10          	add    $0x10,%rax
   1194e:	48 89 85 b0 d8 ff ff 	mov    %rax,-0x2750(%rbp)
   11955:	48 8d 05 c8 b6 00 00 	lea    0xb6c8(%rip),%rax        # 1d024 <g_8>
   1195c:	48 89 85 b8 d8 ff ff 	mov    %rax,-0x2748(%rbp)
   11963:	48 8d 85 3c ca ff ff 	lea    -0x35c4(%rbp),%rax
   1196a:	48 89 85 c0 d8 ff ff 	mov    %rax,-0x2740(%rbp)
   11971:	48 8d 85 f0 de ff ff 	lea    -0x2110(%rbp),%rax
   11978:	48 05 88 1a 00 00    	add    $0x1a88,%rax
   1197e:	48 89 85 c8 d8 ff ff 	mov    %rax,-0x2738(%rbp)
   11985:	48 8d 05 34 b8 00 00 	lea    0xb834(%rip),%rax        # 1d1c0 <g_237+0x20>
   1198c:	48 89 85 d0 d8 ff ff 	mov    %rax,-0x2730(%rbp)
   11993:	48 8d 05 c6 b6 00 00 	lea    0xb6c6(%rip),%rax        # 1d060 <g_93+0x20>
   1199a:	48 89 85 d8 d8 ff ff 	mov    %rax,-0x2728(%rbp)
   119a1:	48 8d 05 7c b6 00 00 	lea    0xb67c(%rip),%rax        # 1d024 <g_8>
   119a8:	48 89 85 e0 d8 ff ff 	mov    %rax,-0x2720(%rbp)
   119af:	48 8d 85 3c ca ff ff 	lea    -0x35c4(%rbp),%rax
   119b6:	48 89 85 e8 d8 ff ff 	mov    %rax,-0x2718(%rbp)
   119bd:	48 c7 85 f0 d8 ff ff 	movq   $0x0,-0x2710(%rbp)
   119c4:	00 00 00 00 
   119c8:	48 8d 05 55 b6 00 00 	lea    0xb655(%rip),%rax        # 1d024 <g_8>
   119cf:	48 89 85 f8 d8 ff ff 	mov    %rax,-0x2708(%rbp)
   119d6:	48 8d 05 e3 b7 00 00 	lea    0xb7e3(%rip),%rax        # 1d1c0 <g_237+0x20>
   119dd:	48 89 85 00 d9 ff ff 	mov    %rax,-0x2700(%rbp)
   119e4:	48 c7 85 08 d9 ff ff 	movq   $0x0,-0x26f8(%rbp)
   119eb:	00 00 00 00 
   119ef:	0f b6 05 be b7 00 00 	movzbl 0xb7be(%rip),%eax        # 1d1b4 <g_237+0x14>
   119f6:	83 c0 01             	add    $0x1,%eax
   119f9:	88 05 b5 b7 00 00    	mov    %al,0xb7b5(%rip)        # 1d1b4 <g_237+0x14>
   119ff:	0f b6 05 ae b7 00 00 	movzbl 0xb7ae(%rip),%eax        # 1d1b4 <g_237+0x14>
   11a06:	3c 02                	cmp    $0x2,%al
   11a08:	0f 86 6d f9 ff ff    	jbe    1137b <func_66+0x299a>
   11a0e:	48 8b 05 03 f7 00 00 	mov    0xf703(%rip),%rax        # 21118 <g_485>
   11a15:	48 8b 85 10 cb ff ff 	mov    -0x34f0(%rbp),%rax
   11a1c:	c6 00 f9             	movb   $0xf9,(%rax)
   11a1f:	8b 05 9b b7 00 00    	mov    0xb79b(%rip),%eax        # 1d1c0 <g_237+0x20>
   11a25:	83 c8 f9             	or     $0xfffffff9,%eax
   11a28:	89 c2                	mov    %eax,%edx
   11a2a:	48 8b 85 18 cb ff ff 	mov    -0x34e8(%rbp),%rax
   11a31:	66 89 10             	mov    %dx,(%rax)
   11a34:	48 8b 85 f8 ca ff ff 	mov    -0x3508(%rbp),%rax
   11a3b:	44 8b 30             	mov    (%rax),%r14d
   11a3e:	0f b6 9d 1c ca ff ff 	movzbl -0x35e4(%rbp),%ebx
   11a45:	0f b6 15 9e f6 00 00 	movzbl 0xf69e(%rip),%edx        # 210ea <g_54+0x2>
   11a4c:	48 8b 85 f8 ca ff ff 	mov    -0x3508(%rbp),%rax
   11a53:	8b 00                	mov    (%rax),%eax
   11a55:	31 d0                	xor    %edx,%eax
   11a57:	88 05 8d f6 00 00    	mov    %al,0xf68d(%rip)        # 210ea <g_54+0x2>
   11a5d:	0f b6 05 86 f6 00 00 	movzbl 0xf686(%rip),%eax        # 210ea <g_54+0x2>
   11a64:	66 44 0f be f8       	movsbw %al,%r15w
   11a69:	0f b6 05 83 b6 00 00 	movzbl 0xb683(%rip),%eax        # 1d0f3 <g_205+0x3>
   11a70:	44 0f be e0          	movsbl %al,%r12d
   11a74:	0f b6 05 29 b7 00 00 	movzbl 0xb729(%rip),%eax        # 1d1a4 <g_237+0x4>
   11a7b:	44 0f be e8          	movsbl %al,%r13d
   11a7f:	0f b6 85 1c ca ff ff 	movzbl -0x35e4(%rbp),%eax
   11a86:	83 e0 01             	and    $0x1,%eax
   11a89:	be c8 72 00 00       	mov    $0x72c8,%esi
   11a8e:	89 c7                	mov    %eax,%edi
   11a90:	e8 80 59 ff ff       	callq  7415 <safe_mul_func_int16_t_s_s>
   11a95:	66 85 c0             	test   %ax,%ax
   11a98:	75 12                	jne    11aac <func_66+0x30cb>
   11a9a:	48 8b 05 8f e2 00 00 	mov    0xe28f(%rip),%rax        # 1fd30 <g_473>
   11aa1:	48 8b 00             	mov    (%rax),%rax
   11aa4:	0f b7 00             	movzwl (%rax),%eax
   11aa7:	66 85 c0             	test   %ax,%ax
   11aaa:	74 07                	je     11ab3 <func_66+0x30d2>
   11aac:	b8 01 00 00 00       	mov    $0x1,%eax
   11ab1:	eb 05                	jmp    11ab8 <func_66+0x30d7>
   11ab3:	b8 00 00 00 00       	mov    $0x0,%eax
   11ab8:	98                   	cwtl   
   11ab9:	44 89 ee             	mov    %r13d,%esi
   11abc:	89 c7                	mov    %eax,%edi
   11abe:	e8 52 59 ff ff       	callq  7415 <safe_mul_func_int16_t_s_s>
   11ac3:	66 85 c0             	test   %ax,%ax
   11ac6:	75 07                	jne    11acf <func_66+0x30ee>
   11ac8:	b8 be 00 00 00       	mov    $0xbe,%eax
   11acd:	eb 05                	jmp    11ad4 <func_66+0x30f3>
   11acf:	b8 bf 00 00 00       	mov    $0xbf,%eax
   11ad4:	44 89 e6             	mov    %r12d,%esi
   11ad7:	89 c7                	mov    %eax,%edi
   11ad9:	e8 47 61 ff ff       	callq  7c25 <safe_lshift_func_uint8_t_u_s>
   11ade:	0f b6 c0             	movzbl %al,%eax
   11ae1:	be 02 00 00 00       	mov    $0x2,%esi
   11ae6:	89 c7                	mov    %eax,%edi
   11ae8:	e8 38 61 ff ff       	callq  7c25 <safe_lshift_func_uint8_t_u_s>
   11aed:	0f b6 c0             	movzbl %al,%eax
   11af0:	89 05 3a b5 00 00    	mov    %eax,0xb53a(%rip)        # 1d030 <g_42>
   11af6:	0f b7 05 bf b6 00 00 	movzwl 0xb6bf(%rip),%eax        # 1d1bc <g_237+0x1c>
   11afd:	98                   	cwtl   
   11afe:	be ff ff ff ff       	mov    $0xffffffff,%esi
   11b03:	89 c7                	mov    %eax,%edi
   11b05:	e8 c9 58 ff ff       	callq  73d3 <safe_add_func_int16_t_s_s>
   11b0a:	48 0f bf d0          	movswq %ax,%rdx
   11b0e:	48 8b 05 93 b5 00 00 	mov    0xb593(%rip),%rax        # 1d0a8 <g_95+0x28>
   11b15:	48 39 c2             	cmp    %rax,%rdx
   11b18:	0f 95 c0             	setne  %al
   11b1b:	88 05 33 b5 00 00    	mov    %al,0xb533(%rip)        # 1d054 <g_93+0x14>
   11b21:	0f b6 05 2c b5 00 00 	movzbl 0xb52c(%rip),%eax        # 1d054 <g_93+0x14>
   11b28:	0f b6 c0             	movzbl %al,%eax
   11b2b:	44 31 f8             	xor    %r15d,%eax
   11b2e:	98                   	cwtl   
   11b2f:	89 de                	mov    %ebx,%esi
   11b31:	89 c7                	mov    %eax,%edi
   11b33:	e8 3d 59 ff ff       	callq  7475 <safe_div_func_int16_t_s_s>
   11b38:	98                   	cwtl   
   11b39:	44 31 f0             	xor    %r14d,%eax
   11b3c:	89 c2                	mov    %eax,%edx
   11b3e:	0f b6 05 a7 b5 00 00 	movzbl 0xb5a7(%rip),%eax        # 1d0ec <g_149>
   11b45:	21 d0                	and    %edx,%eax
   11b47:	88 05 9f b5 00 00    	mov    %al,0xb59f(%rip)        # 1d0ec <g_149>
   11b4d:	c7 45 c2 00 00 00 00 	movl   $0x0,-0x3e(%rbp)
   11b54:	66 c7 45 c6 00 00    	movw   $0x0,-0x3a(%rbp)
   11b5a:	c7 85 74 ca ff ff 00 	movl   $0x0,-0x358c(%rbp)
   11b61:	00 00 00 
   11b64:	48 8d 85 f0 de ff ff 	lea    -0x2110(%rbp),%rax
   11b6b:	48 05 8d 1a 00 00    	add    $0x1a8d,%rax
   11b71:	48 89 85 d8 ca ff ff 	mov    %rax,-0x3528(%rbp)
   11b78:	48 8d 85 d8 ca ff ff 	lea    -0x3528(%rbp),%rax
   11b7f:	48 89 85 28 cb ff ff 	mov    %rax,-0x34d8(%rbp)
   11b86:	c7 85 78 ca ff ff c2 	movl   $0xadeee7c2,-0x3588(%rbp)
   11b8d:	e7 ee ad 
   11b90:	48 8d 05 91 f5 00 00 	lea    0xf591(%rip),%rax        # 21128 <g_652>
   11b97:	48 89 85 30 cb ff ff 	mov    %rax,-0x34d0(%rbp)
   11b9e:	c7 85 7c ca ff ff a9 	movl   $0x8aff25a9,-0x3584(%rbp)
   11ba5:	25 ff 8a 
   11ba8:	c7 85 60 cf ff ff 96 	movl   $0x71a8ad96,-0x30a0(%rbp)
   11baf:	ad a8 71 
   11bb2:	c7 85 64 cf ff ff ce 	movl   $0xfd62eece,-0x309c(%rbp)
   11bb9:	ee 62 fd 
   11bbc:	c7 85 68 cf ff ff ce 	movl   $0xfd62eece,-0x3098(%rbp)
   11bc3:	ee 62 fd 
   11bc6:	c7 85 6c cf ff ff 96 	movl   $0x71a8ad96,-0x3094(%rbp)
   11bcd:	ad a8 71 
   11bd0:	c7 85 70 cf ff ff ce 	movl   $0xfd62eece,-0x3090(%rbp)
   11bd7:	ee 62 fd 
   11bda:	c7 85 74 cf ff ff ce 	movl   $0xfd62eece,-0x308c(%rbp)
   11be1:	ee 62 fd 
   11be4:	c7 85 78 cf ff ff 96 	movl   $0x71a8ad96,-0x3088(%rbp)
   11beb:	ad a8 71 
   11bee:	c7 85 7c cf ff ff ce 	movl   $0xfd62eece,-0x3084(%rbp)
   11bf5:	ee 62 fd 
   11bf8:	c7 85 80 cf ff ff ce 	movl   $0xfd62eece,-0x3080(%rbp)
   11bff:	ee 62 fd 
   11c02:	c7 85 50 cc ff ff 33 	movl   $0x1aef233,-0x33b0(%rbp)
   11c09:	f2 ae 01 
   11c0c:	c6 85 54 cc ff ff 01 	movb   $0x1,-0x33ac(%rbp)
   11c13:	48 c7 85 58 cc ff ff 	movq   $0xfffffffffffffffa,-0x33a8(%rbp)
   11c1a:	fa ff ff ff 
   11c1e:	c7 85 60 cc ff ff 01 	movl   $0x1,-0x33a0(%rbp)
   11c25:	00 00 00 
   11c28:	c6 85 64 cc ff ff 01 	movb   $0x1,-0x339c(%rbp)
   11c2f:	c7 85 68 cc ff ff 01 	movl   $0x1,-0x3398(%rbp)
   11c36:	00 00 00 
   11c39:	66 c7 85 6c cc ff ff 	movw   $0x7e90,-0x3394(%rbp)
   11c40:	90 7e 
   11c42:	c7 85 70 cc ff ff 68 	movl   $0xcec6fb68,-0x3390(%rbp)
   11c49:	fb c6 ce 
   11c4c:	c6 85 74 cc ff ff 6d 	movb   $0x6d,-0x338c(%rbp)
   11c53:	c6 85 75 cc ff ff 4d 	movb   $0x4d,-0x338b(%rbp)
   11c5a:	48 c7 85 e0 ca ff ff 	movq   $0x1,-0x3520(%rbp)
   11c61:	01 00 00 00 
   11c65:	c7 85 5c ca ff ff 00 	movl   $0x0,-0x35a4(%rbp)
   11c6c:	00 00 00 
   11c6f:	eb 43                	jmp    11cb4 <func_66+0x32d3>
   11c71:	c7 85 60 ca ff ff 00 	movl   $0x0,-0x35a0(%rbp)
   11c78:	00 00 00 
   11c7b:	eb 27                	jmp    11ca4 <func_66+0x32c3>
   11c7d:	8b 85 60 ca ff ff    	mov    -0x35a0(%rbp),%eax
   11c83:	48 63 d0             	movslq %eax,%rdx
   11c86:	8b 85 5c ca ff ff    	mov    -0x35a4(%rbp),%eax
   11c8c:	48 98                	cltq   
   11c8e:	48 01 d0             	add    %rdx,%rax
   11c91:	48 c7 84 c5 88 cc ff 	movq   $0x0,-0x3378(%rbp,%rax,8)
   11c98:	ff 00 00 00 00 
   11c9d:	83 85 60 ca ff ff 01 	addl   $0x1,-0x35a0(%rbp)
   11ca4:	83 bd 60 ca ff ff 00 	cmpl   $0x0,-0x35a0(%rbp)
   11cab:	7e d0                	jle    11c7d <func_66+0x329c>
   11cad:	83 85 5c ca ff ff 01 	addl   $0x1,-0x35a4(%rbp)
   11cb4:	83 bd 5c ca ff ff 00 	cmpl   $0x0,-0x35a4(%rbp)
   11cbb:	7e b4                	jle    11c71 <func_66+0x3290>
   11cbd:	c7 05 79 b3 00 00 1a 	movl   $0x1a,0xb379(%rip)        # 1d040 <g_93>
   11cc4:	00 00 00 
   11cc7:	e9 11 06 00 00       	jmpq   122dd <func_66+0x38fc>
   11ccc:	c7 85 80 ca ff ff 01 	movl   $0x1,-0x3580(%rbp)
   11cd3:	00 00 00 
   11cd6:	c7 85 84 ca ff ff 00 	movl   $0x0,-0x357c(%rbp)
   11cdd:	00 00 00 
   11ce0:	48 8d 85 c8 ca ff ff 	lea    -0x3538(%rbp),%rax
   11ce7:	48 89 85 38 cb ff ff 	mov    %rax,-0x34c8(%rbp)
   11cee:	48 c7 85 40 cb ff ff 	movq   $0x0,-0x34c0(%rbp)
   11cf5:	00 00 00 00 
   11cf9:	48 8d 85 88 cc ff ff 	lea    -0x3378(%rbp),%rax
   11d00:	48 89 85 48 cb ff ff 	mov    %rax,-0x34b8(%rbp)
   11d07:	c7 85 88 ca ff ff e0 	movl   $0xe92f90e0,-0x3578(%rbp)
   11d0e:	90 2f e9 
   11d11:	66 c7 85 10 ce ff ff 	movw   $0x9,-0x31f0(%rbp)
   11d18:	09 00 
   11d1a:	66 c7 85 12 ce ff ff 	movw   $0xa3a7,-0x31ee(%rbp)
   11d21:	a7 a3 
   11d23:	66 c7 85 14 ce ff ff 	movw   $0xa3a7,-0x31ec(%rbp)
   11d2a:	a7 a3 
   11d2c:	66 c7 85 16 ce ff ff 	movw   $0x9,-0x31ea(%rbp)
   11d33:	09 00 
   11d35:	66 c7 85 18 ce ff ff 	movw   $0xa3a7,-0x31e8(%rbp)
   11d3c:	a7 a3 
   11d3e:	66 c7 85 1a ce ff ff 	movw   $0xa3a7,-0x31e6(%rbp)
   11d45:	a7 a3 
   11d47:	66 c7 85 1c ce ff ff 	movw   $0x9,-0x31e4(%rbp)
   11d4e:	09 00 
   11d50:	66 c7 85 1e ce ff ff 	movw   $0xa3a7,-0x31e2(%rbp)
   11d57:	a7 a3 
   11d59:	66 c7 85 20 ce ff ff 	movw   $0xa3a7,-0x31e0(%rbp)
   11d60:	a7 a3 
   11d62:	66 c7 85 22 ce ff ff 	movw   $0x9,-0x31de(%rbp)
   11d69:	09 00 
   11d6b:	48 8d 05 2e b4 00 00 	lea    0xb42e(%rip),%rax        # 1d1a0 <g_237>
   11d72:	48 89 85 50 cb ff ff 	mov    %rax,-0x34b0(%rbp)
   11d79:	c7 85 8c ca ff ff 03 	movl   $0x3,-0x3574(%rbp)
   11d80:	00 00 00 
   11d83:	c6 05 2a b4 00 00 00 	movb   $0x0,0xb42a(%rip)        # 1d1b4 <g_237+0x14>
   11d8a:	e9 b3 00 00 00       	jmpq   11e42 <func_66+0x3461>
   11d8f:	c6 85 31 ca ff ff 00 	movb   $0x0,-0x35cf(%rbp)
   11d96:	48 8d 05 5b f3 00 00 	lea    0xf35b(%rip),%rax        # 210f8 <g_81>
   11d9d:	48 89 85 10 d7 ff ff 	mov    %rax,-0x28f0(%rbp)
   11da4:	48 8d 05 4d f3 00 00 	lea    0xf34d(%rip),%rax        # 210f8 <g_81>
   11dab:	48 89 85 18 d7 ff ff 	mov    %rax,-0x28e8(%rbp)
   11db2:	48 8d 05 3f f3 00 00 	lea    0xf33f(%rip),%rax        # 210f8 <g_81>
   11db9:	48 89 85 20 d7 ff ff 	mov    %rax,-0x28e0(%rbp)
   11dc0:	48 8d 05 31 f3 00 00 	lea    0xf331(%rip),%rax        # 210f8 <g_81>
   11dc7:	48 89 85 28 d7 ff ff 	mov    %rax,-0x28d8(%rbp)
   11dce:	48 8d 05 23 f3 00 00 	lea    0xf323(%rip),%rax        # 210f8 <g_81>
   11dd5:	48 89 85 30 d7 ff ff 	mov    %rax,-0x28d0(%rbp)
   11ddc:	48 8d 05 15 f3 00 00 	lea    0xf315(%rip),%rax        # 210f8 <g_81>
   11de3:	48 89 85 38 d7 ff ff 	mov    %rax,-0x28c8(%rbp)
   11dea:	48 8d 05 07 f3 00 00 	lea    0xf307(%rip),%rax        # 210f8 <g_81>
   11df1:	48 89 85 40 d7 ff ff 	mov    %rax,-0x28c0(%rbp)
   11df8:	48 8d 05 f9 f2 00 00 	lea    0xf2f9(%rip),%rax        # 210f8 <g_81>
   11dff:	48 89 85 48 d7 ff ff 	mov    %rax,-0x28b8(%rbp)
   11e06:	66 c7 85 36 ca ff ff 	movw   $0x1,-0x35ca(%rbp)
   11e0d:	01 00 
   11e0f:	c7 85 9c ca ff ff 00 	movl   $0x0,-0x3564(%rbp)
   11e16:	00 00 00 
   11e19:	48 8d 05 40 b2 00 00 	lea    0xb240(%rip),%rax        # 1d060 <g_93+0x20>
   11e20:	48 89 85 80 cb ff ff 	mov    %rax,-0x3480(%rbp)
   11e27:	48 c7 85 88 cb ff ff 	movq   $0x0,-0x3478(%rbp)
   11e2e:	00 00 00 00 
   11e32:	0f b6 05 7b b3 00 00 	movzbl 0xb37b(%rip),%eax        # 1d1b4 <g_237+0x14>
   11e39:	83 c0 01             	add    $0x1,%eax
   11e3c:	88 05 72 b3 00 00    	mov    %al,0xb372(%rip)        # 1d1b4 <g_237+0x14>
   11e42:	0f b6 05 6b b3 00 00 	movzbl 0xb36b(%rip),%eax        # 1d1b4 <g_237+0x14>
   11e49:	3c 16                	cmp    $0x16,%al
   11e4b:	0f 87 3e ff ff ff    	ja     11d8f <func_66+0x33ae>
   11e51:	c6 05 4c b3 00 00 00 	movb   $0x0,0xb34c(%rip)        # 1d1a4 <g_237+0x4>
   11e58:	e9 62 04 00 00       	jmpq   122bf <func_66+0x38de>
   11e5d:	c6 85 30 ca ff ff e0 	movb   $0xe0,-0x35d0(%rbp)
   11e64:	c7 85 90 ca ff ff 00 	movl   $0x0,-0x3570(%rbp)
   11e6b:	00 00 00 
   11e6e:	c7 85 94 ca ff ff ff 	movl   $0xffffffff,-0x356c(%rbp)
   11e75:	ff ff ff 
   11e78:	0f b6 85 30 ca ff ff 	movzbl -0x35d0(%rbp),%eax
   11e7f:	83 e8 01             	sub    $0x1,%eax
   11e82:	88 85 30 ca ff ff    	mov    %al,-0x35d0(%rbp)
   11e88:	48 c7 05 75 b3 00 00 	movq   $0x0,0xb375(%rip)        # 1d208 <g_292>
   11e8f:	00 00 00 00 
   11e93:	e9 06 04 00 00       	jmpq   1229e <func_66+0x38bd>
   11e98:	c7 85 64 ca ff ff ff 	movl   $0xffffffff,-0x359c(%rbp)
   11e9f:	ff ff ff 
   11ea2:	c7 85 68 ca ff ff 8d 	movl   $0x68cb68d,-0x3598(%rbp)
   11ea9:	b6 8c 06 
   11eac:	c6 05 91 b1 00 00 0d 	movb   $0xd,0xb191(%rip)        # 1d044 <g_93+0x4>
   11eb3:	90                   	nop
   11eb4:	0f b6 05 89 b1 00 00 	movzbl 0xb189(%rip),%eax        # 1d044 <g_93+0x4>
   11ebb:	3c 09                	cmp    $0x9,%al
   11ebd:	74 0c                	je     11ecb <func_66+0x34ea>
   11ebf:	0f b6 85 1c ca ff ff 	movzbl -0x35e4(%rbp),%eax
   11ec6:	e9 28 04 00 00       	jmpq   122f3 <func_66+0x3912>
   11ecb:	48 c7 05 32 f2 00 00 	movq   $0x0,0xf232(%rip)        # 21108 <g_268>
   11ed2:	00 00 00 00 
   11ed6:	e9 3b 03 00 00       	jmpq   12216 <func_66+0x3835>
   11edb:	c7 85 10 d7 ff ff 00 	movl   $0x0,-0x28f0(%rbp)
   11ee2:	00 00 00 
   11ee5:	c6 85 14 d7 ff ff cc 	movb   $0xcc,-0x28ec(%rbp)
   11eec:	48 c7 85 18 d7 ff ff 	movq   $0x0,-0x28e8(%rbp)
   11ef3:	00 00 00 00 
   11ef7:	c7 85 20 d7 ff ff f7 	movl   $0xfffffff7,-0x28e0(%rbp)
   11efe:	ff ff ff 
   11f01:	c6 85 24 d7 ff ff ff 	movb   $0xff,-0x28dc(%rbp)
   11f08:	c7 85 28 d7 ff ff ff 	movl   $0xffffffff,-0x28d8(%rbp)
   11f0f:	ff ff ff 
   11f12:	66 c7 85 2c d7 ff ff 	movw   $0x7c16,-0x28d4(%rbp)
   11f19:	16 7c 
   11f1b:	c7 85 30 d7 ff ff 00 	movl   $0x0,-0x28d0(%rbp)
   11f22:	00 00 00 
   11f25:	c6 85 34 d7 ff ff bf 	movb   $0xbf,-0x28cc(%rbp)
   11f2c:	c6 85 35 d7 ff ff 70 	movb   $0x70,-0x28cb(%rbp)
   11f33:	c7 85 98 ca ff ff 99 	movl   $0x73d59699,-0x3568(%rbp)
   11f3a:	96 d5 73 
   11f3d:	48 c7 85 68 cb ff ff 	movq   $0x0,-0x3498(%rbp)
   11f44:	00 00 00 00 
   11f48:	48 8d 85 3c ca ff ff 	lea    -0x35c4(%rbp),%rax
   11f4f:	48 89 85 70 cb ff ff 	mov    %rax,-0x3490(%rbp)
   11f56:	48 8d 05 9b f1 00 00 	lea    0xf19b(%rip),%rax        # 210f8 <g_81>
   11f5d:	48 89 85 78 cb ff ff 	mov    %rax,-0x3488(%rbp)
   11f64:	c7 85 6c ca ff ff 00 	movl   $0x0,-0x3594(%rbp)
   11f6b:	00 00 00 
   11f6e:	eb 1b                	jmp    11f8b <func_66+0x35aa>
   11f70:	8b 85 6c ca ff ff    	mov    -0x3594(%rbp),%eax
   11f76:	48 98                	cltq   
   11f78:	48 c7 84 c5 e0 cc ff 	movq   $0x0,-0x3320(%rbp,%rax,8)
   11f7f:	ff 00 00 00 00 
   11f84:	83 85 6c ca ff ff 01 	addl   $0x1,-0x3594(%rbp)
   11f8b:	83 bd 6c ca ff ff 01 	cmpl   $0x1,-0x3594(%rbp)
   11f92:	7e dc                	jle    11f70 <func_66+0x358f>
   11f94:	80 bd 1c ca ff ff 00 	cmpb   $0x0,-0x35e4(%rbp)
   11f9b:	0f 94 c0             	sete   %al
   11f9e:	0f b6 c0             	movzbl %al,%eax
   11fa1:	80 bd 1c ca ff ff 00 	cmpb   $0x0,-0x35e4(%rbp)
   11fa8:	74 10                	je     11fba <func_66+0x35d9>
   11faa:	80 bd 1c ca ff ff 00 	cmpb   $0x0,-0x35e4(%rbp)
   11fb1:	74 07                	je     11fba <func_66+0x35d9>
   11fb3:	b9 01 00 00 00       	mov    $0x1,%ecx
   11fb8:	eb 05                	jmp    11fbf <func_66+0x35de>
   11fba:	b9 00 00 00 00       	mov    $0x0,%ecx
   11fbf:	0f b6 15 8e b0 00 00 	movzbl 0xb08e(%rip),%edx        # 1d054 <g_93+0x14>
   11fc6:	0f b6 d2             	movzbl %dl,%edx
   11fc9:	31 ca                	xor    %ecx,%edx
   11fcb:	39 d0                	cmp    %edx,%eax
   11fcd:	0f 9c c0             	setl   %al
   11fd0:	0f b6 d8             	movzbl %al,%ebx
   11fd3:	48 8d 05 0e dd 00 00 	lea    0xdd0e(%rip),%rax        # 1fce8 <g_367>
   11fda:	48 8b 00             	mov    (%rax),%rax
   11fdd:	0f b6 00             	movzbl (%rax),%eax
   11fe0:	44 0f b6 e0          	movzbl %al,%r12d
   11fe4:	be 26 38 00 00       	mov    $0x3826,%esi
   11fe9:	bf 00 00 00 00       	mov    $0x0,%edi
   11fee:	e8 2c 5d ff ff       	callq  7d1f <safe_add_func_uint16_t_u_u>
   11ff3:	0f b6 c0             	movzbl %al,%eax
   11ff6:	44 89 e6             	mov    %r12d,%esi
   11ff9:	89 c7                	mov    %eax,%edi
   11ffb:	e8 b3 5b ff ff       	callq  7bb3 <safe_mul_func_uint8_t_u_u>
   12000:	0f b6 c0             	movzbl %al,%eax
   12003:	89 de                	mov    %ebx,%esi
   12005:	89 c7                	mov    %eax,%edi
   12007:	e8 d2 5d ff ff       	callq  7dde <safe_lshift_func_uint16_t_u_s>
   1200c:	be 91 00 00 00       	mov    $0x91,%esi
   12011:	bf 01 00 00 00       	mov    $0x1,%edi
   12016:	e8 98 5b ff ff       	callq  7bb3 <safe_mul_func_uint8_t_u_u>
   1201b:	8b 95 7c cf ff ff    	mov    -0x3084(%rbp),%edx
   12021:	0f b6 c0             	movzbl %al,%eax
   12024:	31 d0                	xor    %edx,%eax
   12026:	89 85 7c cf ff ff    	mov    %eax,-0x3084(%rbp)
   1202c:	8b 05 b6 b2 00 00    	mov    0xb2b6(%rip),%eax        # 1d2e8 <g_481+0x48>
   12032:	0f b7 d8             	movzwl %ax,%ebx
   12035:	0f b6 85 1c ca ff ff 	movzbl -0x35e4(%rbp),%eax
   1203c:	be 04 00 00 00       	mov    $0x4,%esi
   12041:	89 c7                	mov    %eax,%edi
   12043:	e8 15 5d ff ff       	callq  7d5d <safe_mul_func_uint16_t_u_u>
   12048:	41 89 c6             	mov    %eax,%r14d
   1204b:	44 0f b6 a5 1c ca ff 	movzbl -0x35e4(%rbp),%r12d
   12052:	ff 
   12053:	44 0f b6 ad 1c ca ff 	movzbl -0x35e4(%rbp),%r13d
   1205a:	ff 
   1205b:	48 8b 85 10 ca ff ff 	mov    -0x35f0(%rbp),%rax
   12062:	8b 10                	mov    (%rax),%edx
   12064:	48 8b 85 10 ca ff ff 	mov    -0x35f0(%rbp),%rax
   1206b:	8b 00                	mov    (%rax),%eax
   1206d:	89 d6                	mov    %edx,%esi
   1206f:	89 c7                	mov    %eax,%edi
   12071:	e8 cf 5e ff ff       	callq  7f45 <safe_div_func_uint32_t_u_u>
   12076:	4c 89 ee             	mov    %r13,%rsi
   12079:	bf 01 00 00 00       	mov    $0x1,%edi
   1207e:	e8 94 59 ff ff       	callq  7a17 <safe_div_func_int64_t_s_s>
   12083:	48 89 c2             	mov    %rax,%rdx
   12086:	48 b8 e6 2f 73 5d d5 	movabs $0xd583a4d55d732fe6,%rax
   1208d:	a4 83 d5 
   12090:	48 09 c2             	or     %rax,%rdx
   12093:	48 8b 85 10 ca ff ff 	mov    -0x35f0(%rbp),%rax
   1209a:	8b 00                	mov    (%rax),%eax
   1209c:	89 c0                	mov    %eax,%eax
   1209e:	48 39 c2             	cmp    %rax,%rdx
   120a1:	0f 92 c0             	setb   %al
   120a4:	0f b6 c0             	movzbl %al,%eax
   120a7:	be 02 00 00 00       	mov    $0x2,%esi
   120ac:	89 c7                	mov    %eax,%edi
   120ae:	e8 fa 5b ff ff       	callq  7cad <safe_rshift_func_uint8_t_u_s>
   120b3:	0f b6 c0             	movzbl %al,%eax
   120b6:	4c 89 e6             	mov    %r12,%rsi
   120b9:	48 89 c7             	mov    %rax,%rdi
   120bc:	e8 a0 57 ff ff       	callq  7861 <safe_add_func_int64_t_s_s>
   120c1:	44 09 f0             	or     %r14d,%eax
   120c4:	0f b7 c0             	movzwl %ax,%eax
   120c7:	89 de                	mov    %ebx,%esi
   120c9:	89 c7                	mov    %eax,%edi
   120cb:	e8 4f 5c ff ff       	callq  7d1f <safe_add_func_uint16_t_u_u>
   120d0:	0f b6 95 1c ca ff ff 	movzbl -0x35e4(%rbp),%edx
   120d7:	66 39 d0             	cmp    %dx,%ax
   120da:	0f 97 c0             	seta   %al
   120dd:	0f b6 d0             	movzbl %al,%edx
   120e0:	48 8b 85 f8 ca ff ff 	mov    -0x3508(%rbp),%rax
   120e7:	8b 00                	mov    (%rax),%eax
   120e9:	09 c2                	or     %eax,%edx
   120eb:	48 8b 85 f8 ca ff ff 	mov    -0x3508(%rbp),%rax
   120f2:	89 10                	mov    %edx,(%rax)
   120f4:	83 85 64 ca ff ff 01 	addl   $0x1,-0x359c(%rbp)
   120fb:	48 83 85 e0 ca ff ff 	addq   $0x1,-0x3520(%rbp)
   12102:	01 
   12103:	48 8b 05 26 f0 00 00 	mov    0xf026(%rip),%rax        # 21130 <g_709>
   1210a:	48 8b 05 b7 db 00 00 	mov    0xdbb7(%rip),%rax        # 1fcc8 <g_294>
   12111:	48 8b 10             	mov    (%rax),%rdx
   12114:	0f b6 85 75 cc ff ff 	movzbl -0x338b(%rbp),%eax
   1211b:	0f b6 c0             	movzbl %al,%eax
   1211e:	09 85 68 ca ff ff    	or     %eax,-0x3598(%rbp)
   12124:	8b 85 68 ca ff ff    	mov    -0x3598(%rbp),%eax
   1212a:	48 98                	cltq   
   1212c:	48 89 d6             	mov    %rdx,%rsi
   1212f:	48 89 c7             	mov    %rax,%rdi
   12132:	e8 9d 58 ff ff       	callq  79d4 <safe_mod_func_int64_t_s_s>
   12137:	48 be b7 e6 4b 4f 09 	movabs $0xa539ae094f4be6b7,%rsi
   1213e:	ae 39 a5 
   12141:	bf 01 00 00 00       	mov    $0x1,%edi
   12146:	e8 03 5f ff ff       	callq  804e <safe_add_func_uint64_t_u_u>
   1214b:	48 8b 85 78 cb ff ff 	mov    -0x3488(%rbp),%rax
   12152:	c7 00 01 00 00 00    	movl   $0x1,(%rax)
   12158:	48 8b 85 78 cb ff ff 	mov    -0x3488(%rbp),%rax
   1215f:	8b 10                	mov    (%rax),%edx
   12161:	48 8b 85 10 ca ff ff 	mov    -0x35f0(%rbp),%rax
   12168:	8b 00                	mov    (%rax),%eax
   1216a:	39 c2                	cmp    %eax,%edx
   1216c:	0f 97 c0             	seta   %al
   1216f:	0f b6 d0             	movzbl %al,%edx
   12172:	0f b6 85 1c ca ff ff 	movzbl -0x35e4(%rbp),%eax
   12179:	39 c2                	cmp    %eax,%edx
   1217b:	0f 9f c0             	setg   %al
   1217e:	0f b6 d0             	movzbl %al,%edx
   12181:	48 8b 05 40 db 00 00 	mov    0xdb40(%rip),%rax        # 1fcc8 <g_294>
   12188:	48 8b 00             	mov    (%rax),%rax
   1218b:	48 85 c0             	test   %rax,%rax
   1218e:	75 09                	jne    12199 <func_66+0x37b8>
   12190:	80 bd 1c ca ff ff 00 	cmpb   $0x0,-0x35e4(%rbp)
   12197:	74 07                	je     121a0 <func_66+0x37bf>
   12199:	b8 01 00 00 00       	mov    $0x1,%eax
   1219e:	eb 05                	jmp    121a5 <func_66+0x37c4>
   121a0:	b8 00 00 00 00       	mov    $0x0,%eax
   121a5:	89 c6                	mov    %eax,%esi
   121a7:	48 8b 85 70 cb ff ff 	mov    -0x3490(%rbp),%rax
   121ae:	8b 08                	mov    (%rax),%ecx
   121b0:	8b 85 98 ca ff ff    	mov    -0x3568(%rbp),%eax
   121b6:	09 c1                	or     %eax,%ecx
   121b8:	48 8b 85 70 cb ff ff 	mov    -0x3490(%rbp),%rax
   121bf:	89 08                	mov    %ecx,(%rax)
   121c1:	48 8b 85 70 cb ff ff 	mov    -0x3490(%rbp),%rax
   121c8:	8b 00                	mov    (%rax),%eax
   121ca:	09 f0                	or     %esi,%eax
   121cc:	0f be c0             	movsbl %al,%eax
   121cf:	89 d6                	mov    %edx,%esi
   121d1:	89 c7                	mov    %eax,%edi
   121d3:	e8 1c 50 ff ff       	callq  71f4 <safe_add_func_int8_t_s_s>
   121d8:	48 0f be c0          	movsbq %al,%rax
   121dc:	25 43 67 03 a5       	and    $0xa5036743,%eax
   121e1:	48 85 c0             	test   %rax,%rax
   121e4:	74 10                	je     121f6 <func_66+0x3815>
   121e6:	80 bd 1c ca ff ff 00 	cmpb   $0x0,-0x35e4(%rbp)
   121ed:	74 07                	je     121f6 <func_66+0x3815>
   121ef:	ba 01 00 00 00       	mov    $0x1,%edx
   121f4:	eb 05                	jmp    121fb <func_66+0x381a>
   121f6:	ba 00 00 00 00       	mov    $0x0,%edx
   121fb:	48 8b 85 f8 ca ff ff 	mov    -0x3508(%rbp),%rax
   12202:	89 10                	mov    %edx,(%rax)
   12204:	48 8b 05 fd ee 00 00 	mov    0xeefd(%rip),%rax        # 21108 <g_268>
   1220b:	48 83 c0 01          	add    $0x1,%rax
   1220f:	48 89 05 f2 ee 00 00 	mov    %rax,0xeef2(%rip)        # 21108 <g_268>
   12216:	48 8b 05 eb ee 00 00 	mov    0xeeeb(%rip),%rax        # 21108 <g_268>
   1221d:	48 83 f8 07          	cmp    $0x7,%rax
   12221:	0f 86 b4 fc ff ff    	jbe    11edb <func_66+0x34fa>
   12227:	48 8b 85 f8 ca ff ff 	mov    -0x3508(%rbp),%rax
   1222e:	8b 00                	mov    (%rax),%eax
   12230:	23 85 90 ca ff ff    	and    -0x3570(%rbp),%eax
   12236:	89 c2                	mov    %eax,%edx
   12238:	48 8b 85 f8 ca ff ff 	mov    -0x3508(%rbp),%rax
   1223f:	89 10                	mov    %edx,(%rax)
   12241:	c6 85 74 cc ff ff 00 	movb   $0x0,-0x338c(%rbp)
   12248:	eb 37                	jmp    12281 <func_66+0x38a0>
   1224a:	48 c7 85 58 cb ff ff 	movq   $0x0,-0x34a8(%rbp)
   12251:	00 00 00 00 
   12255:	48 c7 85 60 cb ff ff 	movq   $0x0,-0x34a0(%rbp)
   1225c:	00 00 00 00 
   12260:	48 8b 05 f9 e1 00 00 	mov    0xe1f9(%rip),%rax        # 20460 <g_719>
   12267:	48 8b 95 10 ca ff ff 	mov    -0x35f0(%rbp),%rdx
   1226e:	48 89 10             	mov    %rdx,(%rax)
   12271:	0f b6 85 74 cc ff ff 	movzbl -0x338c(%rbp),%eax
   12278:	83 c0 01             	add    $0x1,%eax
   1227b:	88 85 74 cc ff ff    	mov    %al,-0x338c(%rbp)
   12281:	0f b6 85 74 cc ff ff 	movzbl -0x338c(%rbp),%eax
   12288:	3c 01                	cmp    $0x1,%al
   1228a:	76 be                	jbe    1224a <func_66+0x3869>
   1228c:	48 8b 05 75 af 00 00 	mov    0xaf75(%rip),%rax        # 1d208 <g_292>
   12293:	48 83 e8 01          	sub    $0x1,%rax
   12297:	48 89 05 6a af 00 00 	mov    %rax,0xaf6a(%rip)        # 1d208 <g_292>
   1229e:	48 8b 05 63 af 00 00 	mov    0xaf63(%rip),%rax        # 1d208 <g_292>
   122a5:	48 83 f8 e3          	cmp    $0xffffffffffffffe3,%rax
   122a9:	0f 85 e9 fb ff ff    	jne    11e98 <func_66+0x34b7>
   122af:	0f b6 05 ee ae 00 00 	movzbl 0xaeee(%rip),%eax        # 1d1a4 <g_237+0x4>
   122b6:	83 e8 01             	sub    $0x1,%eax
   122b9:	88 05 e5 ae 00 00    	mov    %al,0xaee5(%rip)        # 1d1a4 <g_237+0x4>
   122bf:	0f b6 05 de ae 00 00 	movzbl 0xaede(%rip),%eax        # 1d1a4 <g_237+0x4>
   122c6:	3c e2                	cmp    $0xe2,%al
   122c8:	0f 85 8f fb ff ff    	jne    11e5d <func_66+0x347c>
   122ce:	8b 05 6c ad 00 00    	mov    0xad6c(%rip),%eax        # 1d040 <g_93>
   122d4:	83 e8 01             	sub    $0x1,%eax
   122d7:	89 05 63 ad 00 00    	mov    %eax,0xad63(%rip)        # 1d040 <g_93>
   122dd:	8b 05 5d ad 00 00    	mov    0xad5d(%rip),%eax        # 1d040 <g_93>
   122e3:	83 f8 04             	cmp    $0x4,%eax
   122e6:	0f 8e e0 f9 ff ff    	jle    11ccc <func_66+0x32eb>
   122ec:	0f b6 85 1c ca ff ff 	movzbl -0x35e4(%rbp),%eax
   122f3:	48 8b 5d c8          	mov    -0x38(%rbp),%rbx
   122f7:	64 48 33 1c 25 28 00 	xor    %fs:0x28,%rbx
   122fe:	00 00 
   12300:	74 05                	je     12307 <func_66+0x3926>
   12302:	e8 79 4d ff ff       	callq  7080 <__stack_chk_fail@plt>
   12307:	48 81 c4 c8 35 00 00 	add    $0x35c8,%rsp
   1230e:	5b                   	pop    %rbx
   1230f:	41 5c                	pop    %r12
   12311:	41 5d                	pop    %r13
   12313:	41 5e                	pop    %r14
   12315:	41 5f                	pop    %r15
   12317:	5d                   	pop    %rbp
   12318:	c3                   	retq   

0000000000012319 <func_69>:
   12319:	f3 0f 1e fa          	endbr64 
   1231d:	55                   	push   %rbp
   1231e:	48 89 e5             	mov    %rsp,%rbp
   12321:	48 83 ec 70          	sub    $0x70,%rsp
   12325:	89 7d ac             	mov    %edi,-0x54(%rbp)
   12328:	48 89 55 a0          	mov    %rdx,-0x60(%rbp)
   1232c:	89 c8                	mov    %ecx,%eax
   1232e:	44 89 c2             	mov    %r8d,%edx
   12331:	89 f1                	mov    %esi,%ecx
   12333:	66 89 4d a8          	mov    %cx,-0x58(%rbp)
   12337:	66 89 45 9c          	mov    %ax,-0x64(%rbp)
   1233b:	89 d0                	mov    %edx,%eax
   1233d:	66 89 45 98          	mov    %ax,-0x68(%rbp)
   12341:	64 48 8b 04 25 28 00 	mov    %fs:0x28,%rax
   12348:	00 00 
   1234a:	48 89 45 f8          	mov    %rax,-0x8(%rbp)
   1234e:	31 c0                	xor    %eax,%eax
   12350:	48 8d 05 d9 ac 00 00 	lea    0xacd9(%rip),%rax        # 1d030 <g_42>
   12357:	48 89 45 b0          	mov    %rax,-0x50(%rbp)
   1235b:	48 8d 45 b0          	lea    -0x50(%rbp),%rax
   1235f:	48 89 45 c0          	mov    %rax,-0x40(%rbp)
   12363:	48 8d 45 b0          	lea    -0x50(%rbp),%rax
   12367:	48 89 45 c8          	mov    %rax,-0x38(%rbp)
   1236b:	48 8d 45 b0          	lea    -0x50(%rbp),%rax
   1236f:	48 89 45 d0          	mov    %rax,-0x30(%rbp)
   12373:	48 8d 45 b0          	lea    -0x50(%rbp),%rax
   12377:	48 89 45 d8          	mov    %rax,-0x28(%rbp)
   1237b:	48 8d 45 b0          	lea    -0x50(%rbp),%rax
   1237f:	48 89 45 e0          	mov    %rax,-0x20(%rbp)
   12383:	48 8d 45 b0          	lea    -0x50(%rbp),%rax
   12387:	48 89 45 e8          	mov    %rax,-0x18(%rbp)
   1238b:	48 c7 45 b8 00 00 00 	movq   $0x0,-0x48(%rbp)
   12392:	00 
   12393:	48 8d 45 ac          	lea    -0x54(%rbp),%rax
   12397:	48 89 05 6a d1 00 00 	mov    %rax,0xd16a(%rip)        # 1f508 <g_101>
   1239e:	48 8b 05 63 d1 00 00 	mov    0xd163(%rip),%rax        # 1f508 <g_101>
   123a5:	48 89 05 54 d1 00 00 	mov    %rax,0xd154(%rip)        # 1f500 <g_80>
   123ac:	48 8d 45 ac          	lea    -0x54(%rbp),%rax
   123b0:	48 89 45 b8          	mov    %rax,-0x48(%rbp)
   123b4:	0f b6 05 99 ac 00 00 	movzbl 0xac99(%rip),%eax        # 1d054 <g_93+0x14>
   123bb:	48 8b 7d f8          	mov    -0x8(%rbp),%rdi
   123bf:	64 48 33 3c 25 28 00 	xor    %fs:0x28,%rdi
   123c6:	00 00 
   123c8:	74 05                	je     123cf <func_69+0xb6>
   123ca:	e8 b1 4c ff ff       	callq  7080 <__stack_chk_fail@plt>
   123cf:	c9                   	leaveq 
   123d0:	c3                   	retq   

00000000000123d1 <func_76>:
   123d1:	f3 0f 1e fa          	endbr64 
   123d5:	55                   	push   %rbp
   123d6:	48 89 e5             	mov    %rsp,%rbp
   123d9:	48 89 7d e8          	mov    %rdi,-0x18(%rbp)
   123dd:	89 75 e4             	mov    %esi,-0x1c(%rbp)
   123e0:	c7 45 fc a8 d7 6b 1b 	movl   $0x1b6bd7a8,-0x4(%rbp)
   123e7:	48 8b 05 12 d1 00 00 	mov    0xd112(%rip),%rax        # 1f500 <g_80>
   123ee:	8b 10                	mov    (%rax),%edx
   123f0:	0b 55 fc             	or     -0x4(%rbp),%edx
   123f3:	89 10                	mov    %edx,(%rax)
   123f5:	48 8b 05 fc ec 00 00 	mov    0xecfc(%rip),%rax        # 210f8 <g_81>
   123fc:	5d                   	pop    %rbp
   123fd:	c3                   	retq   

00000000000123fe <main>:
   123fe:	f3 0f 1e fa          	endbr64 
   12402:	55                   	push   %rbp
   12403:	48 89 e5             	mov    %rsp,%rbp
   12406:	48 83 ec 60          	sub    $0x60,%rsp
   1240a:	89 7d dc             	mov    %edi,-0x24(%rbp)
   1240d:	48 89 75 d0          	mov    %rsi,-0x30(%rbp)
   12411:	64 48 8b 04 25 28 00 	mov    %fs:0x28,%rax
   12418:	00 00 
   1241a:	48 89 45 f8          	mov    %rax,-0x8(%rbp)
   1241e:	31 c0                	xor    %eax,%eax
   12420:	c7 45 f4 00 00 00 00 	movl   $0x0,-0xc(%rbp)
   12427:	83 7d dc 02          	cmpl   $0x2,-0x24(%rbp)
   1242b:	74 25                	je     12452 <main+0x54>
   1242d:	48 8b 45 d0          	mov    -0x30(%rbp),%rax
   12431:	48 83 c0 08          	add    $0x8,%rax
   12435:	48 8b 00             	mov    (%rax),%rax
   12438:	48 8d 35 91 72 00 00 	lea    0x7291(%rip),%rsi        # 196d0 <g_427+0x4678>
   1243f:	48 89 c7             	mov    %rax,%rdi
   12442:	e8 59 4c ff ff       	callq  70a0 <strcmp@plt>
   12447:	85 c0                	test   %eax,%eax
   12449:	74 07                	je     12452 <main+0x54>
   1244b:	c7 45 f4 01 00 00 00 	movl   $0x1,-0xc(%rbp)
   12452:	e8 52 4d ff ff       	callq  71a9 <platform_main_begin>
   12457:	e8 5c 61 ff ff       	callq  85b8 <crc32_gentab>
   1245c:	48 8d 45 a0          	lea    -0x60(%rbp),%rax
   12460:	48 89 c7             	mov    %rax,%rdi
   12463:	e8 6d 63 ff ff       	callq  87d5 <func_1>
   12468:	8b 05 b6 ab 00 00    	mov    0xabb6(%rip),%eax        # 1d024 <g_8>
   1246e:	89 c1                	mov    %eax,%ecx
   12470:	8b 45 f4             	mov    -0xc(%rbp),%eax
   12473:	89 c2                	mov    %eax,%edx
   12475:	48 8d 35 56 72 00 00 	lea    0x7256(%rip),%rsi        # 196d2 <g_427+0x467a>
   1247c:	48 89 cf             	mov    %rcx,%rdi
   1247f:	e8 8f 62 ff ff       	callq  8713 <transparent_crc>
   12484:	48 8b 05 9d ab 00 00 	mov    0xab9d(%rip),%rax        # 1d028 <g_11>
   1248b:	8b 55 f4             	mov    -0xc(%rbp),%edx
   1248e:	48 8d 35 41 72 00 00 	lea    0x7241(%rip),%rsi        # 196d6 <g_427+0x467e>
   12495:	48 89 c7             	mov    %rax,%rdi
   12498:	e8 76 62 ff ff       	callq  8713 <transparent_crc>
   1249d:	8b 05 8d ab 00 00    	mov    0xab8d(%rip),%eax        # 1d030 <g_42>
   124a3:	48 98                	cltq   
   124a5:	8b 55 f4             	mov    -0xc(%rbp),%edx
   124a8:	48 8d 35 2c 72 00 00 	lea    0x722c(%rip),%rsi        # 196db <g_427+0x4683>
   124af:	48 89 c7             	mov    %rax,%rdi
   124b2:	e8 5c 62 ff ff       	callq  8713 <transparent_crc>
   124b7:	c7 45 e8 00 00 00 00 	movl   $0x0,-0x18(%rbp)
   124be:	eb 46                	jmp    12506 <main+0x108>
   124c0:	8b 45 e8             	mov    -0x18(%rbp),%eax
   124c3:	48 98                	cltq   
   124c5:	48 8d 15 1c ec 00 00 	lea    0xec1c(%rip),%rdx        # 210e8 <g_54>
   124cc:	0f b6 04 10          	movzbl (%rax,%rdx,1),%eax
   124d0:	48 0f be c0          	movsbq %al,%rax
   124d4:	8b 55 f4             	mov    -0xc(%rbp),%edx
   124d7:	48 8d 35 02 72 00 00 	lea    0x7202(%rip),%rsi        # 196e0 <g_427+0x4688>
   124de:	48 89 c7             	mov    %rax,%rdi
   124e1:	e8 2d 62 ff ff       	callq  8713 <transparent_crc>
   124e6:	83 7d f4 00          	cmpl   $0x0,-0xc(%rbp)
   124ea:	74 16                	je     12502 <main+0x104>
   124ec:	8b 45 e8             	mov    -0x18(%rbp),%eax
   124ef:	89 c6                	mov    %eax,%esi
   124f1:	48 8d 3d f0 71 00 00 	lea    0x71f0(%rip),%rdi        # 196e8 <g_427+0x4690>
   124f8:	b8 00 00 00 00       	mov    $0x0,%eax
   124fd:	e8 8e 4b ff ff       	callq  7090 <printf@plt>
   12502:	83 45 e8 01          	addl   $0x1,-0x18(%rbp)
   12506:	83 7d e8 09          	cmpl   $0x9,-0x18(%rbp)
   1250a:	7e b4                	jle    124c0 <main+0xc2>
   1250c:	8b 05 e2 eb 00 00    	mov    0xebe2(%rip),%eax        # 210f4 <g_55>
   12512:	89 c1                	mov    %eax,%ecx
   12514:	8b 45 f4             	mov    -0xc(%rbp),%eax
   12517:	89 c2                	mov    %eax,%edx
   12519:	48 8d 35 d6 71 00 00 	lea    0x71d6(%rip),%rsi        # 196f6 <g_427+0x469e>
   12520:	48 89 cf             	mov    %rcx,%rdi
   12523:	e8 eb 61 ff ff       	callq  8713 <transparent_crc>
   12528:	8b 05 d2 eb 00 00    	mov    0xebd2(%rip),%eax        # 21100 <g_90>
   1252e:	48 98                	cltq   
   12530:	8b 55 f4             	mov    -0xc(%rbp),%edx
   12533:	48 8d 35 c1 71 00 00 	lea    0x71c1(%rip),%rsi        # 196fb <g_427+0x46a3>
   1253a:	48 89 c7             	mov    %rax,%rdi
   1253d:	e8 d1 61 ff ff       	callq  8713 <transparent_crc>
   12542:	8b 05 ec aa 00 00    	mov    0xaaec(%rip),%eax        # 1d034 <g_92>
   12548:	48 98                	cltq   
   1254a:	8b 55 f4             	mov    -0xc(%rbp),%edx
   1254d:	48 8d 35 ac 71 00 00 	lea    0x71ac(%rip),%rsi        # 19700 <g_427+0x46a8>
   12554:	48 89 c7             	mov    %rax,%rdi
   12557:	e8 b7 61 ff ff       	callq  8713 <transparent_crc>
   1255c:	8b 05 de aa 00 00    	mov    0xaade(%rip),%eax        # 1d040 <g_93>
   12562:	48 98                	cltq   
   12564:	8b 55 f4             	mov    -0xc(%rbp),%edx
   12567:	48 8d 35 97 71 00 00 	lea    0x7197(%rip),%rsi        # 19705 <g_427+0x46ad>
   1256e:	48 89 c7             	mov    %rax,%rdi
   12571:	e8 9d 61 ff ff       	callq  8713 <transparent_crc>
   12576:	0f b6 05 c7 aa 00 00 	movzbl 0xaac7(%rip),%eax        # 1d044 <g_93+0x4>
   1257d:	48 0f be c0          	movsbq %al,%rax
   12581:	8b 55 f4             	mov    -0xc(%rbp),%edx
   12584:	48 8d 35 82 71 00 00 	lea    0x7182(%rip),%rsi        # 1970d <g_427+0x46b5>
   1258b:	48 89 c7             	mov    %rax,%rdi
   1258e:	e8 80 61 ff ff       	callq  8713 <transparent_crc>
   12593:	48 8b 05 ae aa 00 00 	mov    0xaaae(%rip),%rax        # 1d048 <g_93+0x8>
   1259a:	8b 55 f4             	mov    -0xc(%rbp),%edx
   1259d:	48 8d 35 71 71 00 00 	lea    0x7171(%rip),%rsi        # 19715 <g_427+0x46bd>
   125a4:	48 89 c7             	mov    %rax,%rdi
   125a7:	e8 67 61 ff ff       	callq  8713 <transparent_crc>
   125ac:	8b 05 9e aa 00 00    	mov    0xaa9e(%rip),%eax        # 1d050 <g_93+0x10>
   125b2:	89 c1                	mov    %eax,%ecx
   125b4:	8b 45 f4             	mov    -0xc(%rbp),%eax
   125b7:	89 c2                	mov    %eax,%edx
   125b9:	48 8d 35 5d 71 00 00 	lea    0x715d(%rip),%rsi        # 1971d <g_427+0x46c5>
   125c0:	48 89 cf             	mov    %rcx,%rdi
   125c3:	e8 4b 61 ff ff       	callq  8713 <transparent_crc>
   125c8:	0f b6 05 85 aa 00 00 	movzbl 0xaa85(%rip),%eax        # 1d054 <g_93+0x14>
   125cf:	0f b6 c0             	movzbl %al,%eax
   125d2:	8b 55 f4             	mov    -0xc(%rbp),%edx
   125d5:	48 8d 35 49 71 00 00 	lea    0x7149(%rip),%rsi        # 19725 <g_427+0x46cd>
   125dc:	48 89 c7             	mov    %rax,%rdi
   125df:	e8 2f 61 ff ff       	callq  8713 <transparent_crc>
   125e4:	8b 05 6e aa 00 00    	mov    0xaa6e(%rip),%eax        # 1d058 <g_93+0x18>
   125ea:	89 c1                	mov    %eax,%ecx
   125ec:	8b 45 f4             	mov    -0xc(%rbp),%eax
   125ef:	89 c2                	mov    %eax,%edx
   125f1:	48 8d 35 35 71 00 00 	lea    0x7135(%rip),%rsi        # 1972d <g_427+0x46d5>
   125f8:	48 89 cf             	mov    %rcx,%rdi
   125fb:	e8 13 61 ff ff       	callq  8713 <transparent_crc>
   12600:	0f b7 05 55 aa 00 00 	movzwl 0xaa55(%rip),%eax        # 1d05c <g_93+0x1c>
   12607:	48 0f bf c0          	movswq %ax,%rax
   1260b:	8b 55 f4             	mov    -0xc(%rbp),%edx
   1260e:	48 8d 35 20 71 00 00 	lea    0x7120(%rip),%rsi        # 19735 <g_427+0x46dd>
   12615:	48 89 c7             	mov    %rax,%rdi
   12618:	e8 f6 60 ff ff       	callq  8713 <transparent_crc>
   1261d:	8b 05 3d aa 00 00    	mov    0xaa3d(%rip),%eax        # 1d060 <g_93+0x20>
   12623:	89 c1                	mov    %eax,%ecx
   12625:	8b 45 f4             	mov    -0xc(%rbp),%eax
   12628:	89 c2                	mov    %eax,%edx
   1262a:	48 8d 35 0c 71 00 00 	lea    0x710c(%rip),%rsi        # 1973d <g_427+0x46e5>
   12631:	48 89 cf             	mov    %rcx,%rdi
   12634:	e8 da 60 ff ff       	callq  8713 <transparent_crc>
   12639:	0f b6 05 24 aa 00 00 	movzbl 0xaa24(%rip),%eax        # 1d064 <g_93+0x24>
   12640:	0f b6 c0             	movzbl %al,%eax
   12643:	8b 55 f4             	mov    -0xc(%rbp),%edx
   12646:	48 8d 35 f8 70 00 00 	lea    0x70f8(%rip),%rsi        # 19745 <g_427+0x46ed>
   1264d:	48 89 c7             	mov    %rax,%rdi
   12650:	e8 be 60 ff ff       	callq  8713 <transparent_crc>
   12655:	0f b6 05 09 aa 00 00 	movzbl 0xaa09(%rip),%eax        # 1d065 <g_93+0x25>
   1265c:	0f b6 c0             	movzbl %al,%eax
   1265f:	8b 55 f4             	mov    -0xc(%rbp),%edx
   12662:	48 8d 35 e4 70 00 00 	lea    0x70e4(%rip),%rsi        # 1974d <g_427+0x46f5>
   12669:	48 89 c7             	mov    %rax,%rdi
   1266c:	e8 a2 60 ff ff       	callq  8713 <transparent_crc>
   12671:	c7 45 e8 00 00 00 00 	movl   $0x0,-0x18(%rbp)
   12678:	eb 6d                	jmp    126e7 <main+0x2e9>
   1267a:	c7 45 ec 00 00 00 00 	movl   $0x0,-0x14(%rbp)
   12681:	eb 5a                	jmp    126dd <main+0x2df>
   12683:	8b 45 ec             	mov    -0x14(%rbp),%eax
   12686:	48 98                	cltq   
   12688:	8b 55 e8             	mov    -0x18(%rbp),%edx
   1268b:	48 63 d2             	movslq %edx,%rdx
   1268e:	48 c1 e2 03          	shl    $0x3,%rdx
   12692:	48 01 d0             	add    %rdx,%rax
   12695:	48 8d 14 c5 00 00 00 	lea    0x0(,%rax,8),%rdx
   1269c:	00 
   1269d:	48 8d 05 dc a9 00 00 	lea    0xa9dc(%rip),%rax        # 1d080 <g_95>
   126a4:	48 8b 04 02          	mov    (%rdx,%rax,1),%rax
   126a8:	8b 55 f4             	mov    -0xc(%rbp),%edx
   126ab:	48 8d 35 a3 70 00 00 	lea    0x70a3(%rip),%rsi        # 19755 <g_427+0x46fd>
   126b2:	48 89 c7             	mov    %rax,%rdi
   126b5:	e8 59 60 ff ff       	callq  8713 <transparent_crc>
   126ba:	83 7d f4 00          	cmpl   $0x0,-0xc(%rbp)
   126be:	74 19                	je     126d9 <main+0x2db>
   126c0:	8b 55 ec             	mov    -0x14(%rbp),%edx
   126c3:	8b 45 e8             	mov    -0x18(%rbp),%eax
   126c6:	89 c6                	mov    %eax,%esi
   126c8:	48 8d 3d 91 70 00 00 	lea    0x7091(%rip),%rdi        # 19760 <g_427+0x4708>
   126cf:	b8 00 00 00 00       	mov    $0x0,%eax
   126d4:	e8 b7 49 ff ff       	callq  7090 <printf@plt>
   126d9:	83 45 ec 01          	addl   $0x1,-0x14(%rbp)
   126dd:	83 7d ec 07          	cmpl   $0x7,-0x14(%rbp)
   126e1:	7e a0                	jle    12683 <main+0x285>
   126e3:	83 45 e8 01          	addl   $0x1,-0x18(%rbp)
   126e7:	83 7d e8 00          	cmpl   $0x0,-0x18(%rbp)
   126eb:	7e 8d                	jle    1267a <main+0x27c>
   126ed:	8b 05 cd a9 00 00    	mov    0xa9cd(%rip),%eax        # 1d0c0 <g_108>
   126f3:	48 98                	cltq   
   126f5:	8b 55 f4             	mov    -0xc(%rbp),%edx
   126f8:	48 8d 35 73 70 00 00 	lea    0x7073(%rip),%rsi        # 19772 <g_427+0x471a>
   126ff:	48 89 c7             	mov    %rax,%rdi
   12702:	e8 0c 60 ff ff       	callq  8713 <transparent_crc>
   12707:	0f b6 05 b6 a9 00 00 	movzbl 0xa9b6(%rip),%eax        # 1d0c4 <g_108+0x4>
   1270e:	48 0f be c0          	movsbq %al,%rax
   12712:	8b 55 f4             	mov    -0xc(%rbp),%edx
   12715:	48 8d 35 62 70 00 00 	lea    0x7062(%rip),%rsi        # 1977e <g_427+0x4726>
   1271c:	48 89 c7             	mov    %rax,%rdi
   1271f:	e8 ef 5f ff ff       	callq  8713 <transparent_crc>
   12724:	48 8b 05 9d a9 00 00 	mov    0xa99d(%rip),%rax        # 1d0c8 <g_108+0x8>
   1272b:	8b 55 f4             	mov    -0xc(%rbp),%edx
   1272e:	48 8d 35 55 70 00 00 	lea    0x7055(%rip),%rsi        # 1978a <g_427+0x4732>
   12735:	48 89 c7             	mov    %rax,%rdi
   12738:	e8 d6 5f ff ff       	callq  8713 <transparent_crc>
   1273d:	8b 05 8d a9 00 00    	mov    0xa98d(%rip),%eax        # 1d0d0 <g_108+0x10>
   12743:	89 c1                	mov    %eax,%ecx
   12745:	8b 45 f4             	mov    -0xc(%rbp),%eax
   12748:	89 c2                	mov    %eax,%edx
   1274a:	48 8d 35 45 70 00 00 	lea    0x7045(%rip),%rsi        # 19796 <g_427+0x473e>
   12751:	48 89 cf             	mov    %rcx,%rdi
   12754:	e8 ba 5f ff ff       	callq  8713 <transparent_crc>
   12759:	0f b6 05 74 a9 00 00 	movzbl 0xa974(%rip),%eax        # 1d0d4 <g_108+0x14>
   12760:	0f b6 c0             	movzbl %al,%eax
   12763:	8b 55 f4             	mov    -0xc(%rbp),%edx
   12766:	48 8d 35 35 70 00 00 	lea    0x7035(%rip),%rsi        # 197a2 <g_427+0x474a>
   1276d:	48 89 c7             	mov    %rax,%rdi
   12770:	e8 9e 5f ff ff       	callq  8713 <transparent_crc>
   12775:	8b 05 5d a9 00 00    	mov    0xa95d(%rip),%eax        # 1d0d8 <g_108+0x18>
   1277b:	89 c1                	mov    %eax,%ecx
   1277d:	8b 45 f4             	mov    -0xc(%rbp),%eax
   12780:	89 c2                	mov    %eax,%edx
   12782:	48 8d 35 25 70 00 00 	lea    0x7025(%rip),%rsi        # 197ae <g_427+0x4756>
   12789:	48 89 cf             	mov    %rcx,%rdi
   1278c:	e8 82 5f ff ff       	callq  8713 <transparent_crc>
   12791:	0f b7 05 44 a9 00 00 	movzwl 0xa944(%rip),%eax        # 1d0dc <g_108+0x1c>
   12798:	48 0f bf c0          	movswq %ax,%rax
   1279c:	8b 55 f4             	mov    -0xc(%rbp),%edx
   1279f:	48 8d 35 14 70 00 00 	lea    0x7014(%rip),%rsi        # 197ba <g_427+0x4762>
   127a6:	48 89 c7             	mov    %rax,%rdi
   127a9:	e8 65 5f ff ff       	callq  8713 <transparent_crc>
   127ae:	8b 05 2c a9 00 00    	mov    0xa92c(%rip),%eax        # 1d0e0 <g_108+0x20>
   127b4:	89 c1                	mov    %eax,%ecx
   127b6:	8b 45 f4             	mov    -0xc(%rbp),%eax
   127b9:	89 c2                	mov    %eax,%edx
   127bb:	48 8d 35 04 70 00 00 	lea    0x7004(%rip),%rsi        # 197c6 <g_427+0x476e>
   127c2:	48 89 cf             	mov    %rcx,%rdi
   127c5:	e8 49 5f ff ff       	callq  8713 <transparent_crc>
   127ca:	0f b6 05 13 a9 00 00 	movzbl 0xa913(%rip),%eax        # 1d0e4 <g_108+0x24>
   127d1:	0f b6 c0             	movzbl %al,%eax
   127d4:	8b 55 f4             	mov    -0xc(%rbp),%edx
   127d7:	48 8d 35 f4 6f 00 00 	lea    0x6ff4(%rip),%rsi        # 197d2 <g_427+0x477a>
   127de:	48 89 c7             	mov    %rax,%rdi
   127e1:	e8 2d 5f ff ff       	callq  8713 <transparent_crc>
   127e6:	0f b6 05 f8 a8 00 00 	movzbl 0xa8f8(%rip),%eax        # 1d0e5 <g_108+0x25>
   127ed:	0f b6 c0             	movzbl %al,%eax
   127f0:	8b 55 f4             	mov    -0xc(%rbp),%edx
   127f3:	48 8d 35 e4 6f 00 00 	lea    0x6fe4(%rip),%rsi        # 197de <g_427+0x4786>
   127fa:	48 89 c7             	mov    %rax,%rdi
   127fd:	e8 11 5f ff ff       	callq  8713 <transparent_crc>
   12802:	8b 05 e0 a8 00 00    	mov    0xa8e0(%rip),%eax        # 1d0e8 <g_144>
   12808:	48 98                	cltq   
   1280a:	8b 55 f4             	mov    -0xc(%rbp),%edx
   1280d:	48 8d 35 d6 6f 00 00 	lea    0x6fd6(%rip),%rsi        # 197ea <g_427+0x4792>
   12814:	48 89 c7             	mov    %rax,%rdi
   12817:	e8 f7 5e ff ff       	callq  8713 <transparent_crc>
   1281c:	0f b6 05 c9 a8 00 00 	movzbl 0xa8c9(%rip),%eax        # 1d0ec <g_149>
   12823:	48 0f be c0          	movsbq %al,%rax
   12827:	8b 55 f4             	mov    -0xc(%rbp),%edx
   1282a:	48 8d 35 bf 6f 00 00 	lea    0x6fbf(%rip),%rsi        # 197f0 <g_427+0x4798>
   12831:	48 89 c7             	mov    %rax,%rdi
   12834:	e8 da 5e ff ff       	callq  8713 <transparent_crc>
   12839:	0f b7 05 ae a8 00 00 	movzwl 0xa8ae(%rip),%eax        # 1d0ee <g_177>
   12840:	48 0f bf c0          	movswq %ax,%rax
   12844:	8b 55 f4             	mov    -0xc(%rbp),%edx
   12847:	48 8d 35 a8 6f 00 00 	lea    0x6fa8(%rip),%rsi        # 197f6 <g_427+0x479e>
   1284e:	48 89 c7             	mov    %rax,%rdi
   12851:	e8 bd 5e ff ff       	callq  8713 <transparent_crc>
   12856:	c7 45 e8 00 00 00 00 	movl   $0x0,-0x18(%rbp)
   1285d:	eb 46                	jmp    128a5 <main+0x4a7>
   1285f:	8b 45 e8             	mov    -0x18(%rbp),%eax
   12862:	48 98                	cltq   
   12864:	48 8d 15 85 a8 00 00 	lea    0xa885(%rip),%rdx        # 1d0f0 <g_205>
   1286b:	0f b6 04 10          	movzbl (%rax,%rdx,1),%eax
   1286f:	48 0f be c0          	movsbq %al,%rax
   12873:	8b 55 f4             	mov    -0xc(%rbp),%edx
   12876:	48 8d 35 7f 6f 00 00 	lea    0x6f7f(%rip),%rsi        # 197fc <g_427+0x47a4>
   1287d:	48 89 c7             	mov    %rax,%rdi
   12880:	e8 8e 5e ff ff       	callq  8713 <transparent_crc>
   12885:	83 7d f4 00          	cmpl   $0x0,-0xc(%rbp)
   12889:	74 16                	je     128a1 <main+0x4a3>
   1288b:	8b 45 e8             	mov    -0x18(%rbp),%eax
   1288e:	89 c6                	mov    %eax,%esi
   12890:	48 8d 3d 51 6e 00 00 	lea    0x6e51(%rip),%rdi        # 196e8 <g_427+0x4690>
   12897:	b8 00 00 00 00       	mov    $0x0,%eax
   1289c:	e8 ef 47 ff ff       	callq  7090 <printf@plt>
   128a1:	83 45 e8 01          	addl   $0x1,-0x18(%rbp)
   128a5:	83 7d e8 04          	cmpl   $0x4,-0x18(%rbp)
   128a9:	7e b4                	jle    1285f <main+0x461>
   128ab:	c7 45 e8 00 00 00 00 	movl   $0x0,-0x18(%rbp)
   128b2:	e9 95 00 00 00       	jmpq   1294c <main+0x54e>
   128b7:	c7 45 ec 00 00 00 00 	movl   $0x0,-0x14(%rbp)
   128be:	eb 7e                	jmp    1293e <main+0x540>
   128c0:	c7 45 f0 00 00 00 00 	movl   $0x0,-0x10(%rbp)
   128c7:	eb 6b                	jmp    12934 <main+0x536>
   128c9:	8b 45 f0             	mov    -0x10(%rbp),%eax
   128cc:	48 63 c8             	movslq %eax,%rcx
   128cf:	8b 45 e8             	mov    -0x18(%rbp),%eax
   128d2:	48 63 d0             	movslq %eax,%rdx
   128d5:	8b 45 ec             	mov    -0x14(%rbp),%eax
   128d8:	48 98                	cltq   
   128da:	48 01 c2             	add    %rax,%rdx
   128dd:	48 89 d0             	mov    %rdx,%rax
   128e0:	48 c1 e0 03          	shl    $0x3,%rax
   128e4:	48 01 d0             	add    %rdx,%rax
   128e7:	48 01 c8             	add    %rcx,%rax
   128ea:	48 8d 14 00          	lea    (%rax,%rax,1),%rdx
   128ee:	48 8d 05 0b a8 00 00 	lea    0xa80b(%rip),%rax        # 1d100 <g_214>
   128f5:	0f b7 04 02          	movzwl (%rdx,%rax,1),%eax
   128f9:	0f b7 c0             	movzwl %ax,%eax
   128fc:	8b 55 f4             	mov    -0xc(%rbp),%edx
   128ff:	48 8d 35 ff 6e 00 00 	lea    0x6eff(%rip),%rsi        # 19805 <g_427+0x47ad>
   12906:	48 89 c7             	mov    %rax,%rdi
   12909:	e8 05 5e ff ff       	callq  8713 <transparent_crc>
   1290e:	83 7d f4 00          	cmpl   $0x0,-0xc(%rbp)
   12912:	74 1c                	je     12930 <main+0x532>
   12914:	8b 4d f0             	mov    -0x10(%rbp),%ecx
   12917:	8b 55 ec             	mov    -0x14(%rbp),%edx
   1291a:	8b 45 e8             	mov    -0x18(%rbp),%eax
   1291d:	89 c6                	mov    %eax,%esi
   1291f:	48 8d 3d ee 6e 00 00 	lea    0x6eee(%rip),%rdi        # 19814 <g_427+0x47bc>
   12926:	b8 00 00 00 00       	mov    $0x0,%eax
   1292b:	e8 60 47 ff ff       	callq  7090 <printf@plt>
   12930:	83 45 f0 01          	addl   $0x1,-0x10(%rbp)
   12934:	83 7d f0 08          	cmpl   $0x8,-0x10(%rbp)
   12938:	7e 8f                	jle    128c9 <main+0x4cb>
   1293a:	83 45 ec 01          	addl   $0x1,-0x14(%rbp)
   1293e:	83 7d ec 00          	cmpl   $0x0,-0x14(%rbp)
   12942:	0f 8e 78 ff ff ff    	jle    128c0 <main+0x4c2>
   12948:	83 45 e8 01          	addl   $0x1,-0x18(%rbp)
   1294c:	83 7d e8 07          	cmpl   $0x7,-0x18(%rbp)
   12950:	0f 8e 61 ff ff ff    	jle    128b7 <main+0x4b9>
   12956:	8b 05 44 a8 00 00    	mov    0xa844(%rip),%eax        # 1d1a0 <g_237>
   1295c:	48 98                	cltq   
   1295e:	8b 55 f4             	mov    -0xc(%rbp),%edx
   12961:	48 8d 35 c2 6e 00 00 	lea    0x6ec2(%rip),%rsi        # 1982a <g_427+0x47d2>
   12968:	48 89 c7             	mov    %rax,%rdi
   1296b:	e8 a3 5d ff ff       	callq  8713 <transparent_crc>
   12970:	0f b6 05 2d a8 00 00 	movzbl 0xa82d(%rip),%eax        # 1d1a4 <g_237+0x4>
   12977:	48 0f be c0          	movsbq %al,%rax
   1297b:	8b 55 f4             	mov    -0xc(%rbp),%edx
   1297e:	48 8d 35 b1 6e 00 00 	lea    0x6eb1(%rip),%rsi        # 19836 <g_427+0x47de>
   12985:	48 89 c7             	mov    %rax,%rdi
   12988:	e8 86 5d ff ff       	callq  8713 <transparent_crc>
   1298d:	48 8b 05 14 a8 00 00 	mov    0xa814(%rip),%rax        # 1d1a8 <g_237+0x8>
   12994:	8b 55 f4             	mov    -0xc(%rbp),%edx
   12997:	48 8d 35 a4 6e 00 00 	lea    0x6ea4(%rip),%rsi        # 19842 <g_427+0x47ea>
   1299e:	48 89 c7             	mov    %rax,%rdi
   129a1:	e8 6d 5d ff ff       	callq  8713 <transparent_crc>
   129a6:	8b 05 04 a8 00 00    	mov    0xa804(%rip),%eax        # 1d1b0 <g_237+0x10>
   129ac:	89 c1                	mov    %eax,%ecx
   129ae:	8b 45 f4             	mov    -0xc(%rbp),%eax
   129b1:	89 c2                	mov    %eax,%edx
   129b3:	48 8d 35 94 6e 00 00 	lea    0x6e94(%rip),%rsi        # 1984e <g_427+0x47f6>
   129ba:	48 89 cf             	mov    %rcx,%rdi
   129bd:	e8 51 5d ff ff       	callq  8713 <transparent_crc>
   129c2:	0f b6 05 eb a7 00 00 	movzbl 0xa7eb(%rip),%eax        # 1d1b4 <g_237+0x14>
   129c9:	0f b6 c0             	movzbl %al,%eax
   129cc:	8b 55 f4             	mov    -0xc(%rbp),%edx
   129cf:	48 8d 35 84 6e 00 00 	lea    0x6e84(%rip),%rsi        # 1985a <g_427+0x4802>
   129d6:	48 89 c7             	mov    %rax,%rdi
   129d9:	e8 35 5d ff ff       	callq  8713 <transparent_crc>
   129de:	8b 05 d4 a7 00 00    	mov    0xa7d4(%rip),%eax        # 1d1b8 <g_237+0x18>
   129e4:	89 c1                	mov    %eax,%ecx
   129e6:	8b 45 f4             	mov    -0xc(%rbp),%eax
   129e9:	89 c2                	mov    %eax,%edx
   129eb:	48 8d 35 74 6e 00 00 	lea    0x6e74(%rip),%rsi        # 19866 <g_427+0x480e>
   129f2:	48 89 cf             	mov    %rcx,%rdi
   129f5:	e8 19 5d ff ff       	callq  8713 <transparent_crc>
   129fa:	0f b7 05 bb a7 00 00 	movzwl 0xa7bb(%rip),%eax        # 1d1bc <g_237+0x1c>
   12a01:	48 0f bf c0          	movswq %ax,%rax
   12a05:	8b 55 f4             	mov    -0xc(%rbp),%edx
   12a08:	48 8d 35 63 6e 00 00 	lea    0x6e63(%rip),%rsi        # 19872 <g_427+0x481a>
   12a0f:	48 89 c7             	mov    %rax,%rdi
   12a12:	e8 fc 5c ff ff       	callq  8713 <transparent_crc>
   12a17:	8b 05 a3 a7 00 00    	mov    0xa7a3(%rip),%eax        # 1d1c0 <g_237+0x20>
   12a1d:	89 c1                	mov    %eax,%ecx
   12a1f:	8b 45 f4             	mov    -0xc(%rbp),%eax
   12a22:	89 c2                	mov    %eax,%edx
   12a24:	48 8d 35 53 6e 00 00 	lea    0x6e53(%rip),%rsi        # 1987e <g_427+0x4826>
   12a2b:	48 89 cf             	mov    %rcx,%rdi
   12a2e:	e8 e0 5c ff ff       	callq  8713 <transparent_crc>
   12a33:	0f b6 05 8a a7 00 00 	movzbl 0xa78a(%rip),%eax        # 1d1c4 <g_237+0x24>
   12a3a:	0f b6 c0             	movzbl %al,%eax
   12a3d:	8b 55 f4             	mov    -0xc(%rbp),%edx
   12a40:	48 8d 35 43 6e 00 00 	lea    0x6e43(%rip),%rsi        # 1988a <g_427+0x4832>
   12a47:	48 89 c7             	mov    %rax,%rdi
   12a4a:	e8 c4 5c ff ff       	callq  8713 <transparent_crc>
   12a4f:	0f b6 05 6f a7 00 00 	movzbl 0xa76f(%rip),%eax        # 1d1c5 <g_237+0x25>
   12a56:	0f b6 c0             	movzbl %al,%eax
   12a59:	8b 55 f4             	mov    -0xc(%rbp),%edx
   12a5c:	48 8d 35 33 6e 00 00 	lea    0x6e33(%rip),%rsi        # 19896 <g_427+0x483e>
   12a63:	48 89 c7             	mov    %rax,%rdi
   12a66:	e8 a8 5c ff ff       	callq  8713 <transparent_crc>
   12a6b:	48 8b 05 56 a7 00 00 	mov    0xa756(%rip),%rax        # 1d1c8 <g_262>
   12a72:	8b 55 f4             	mov    -0xc(%rbp),%edx
   12a75:	48 8d 35 26 6e 00 00 	lea    0x6e26(%rip),%rsi        # 198a2 <g_427+0x484a>
   12a7c:	48 89 c7             	mov    %rax,%rdi
   12a7f:	e8 8f 5c ff ff       	callq  8713 <transparent_crc>
   12a84:	48 8b 05 7d e6 00 00 	mov    0xe67d(%rip),%rax        # 21108 <g_268>
   12a8b:	8b 55 f4             	mov    -0xc(%rbp),%edx
   12a8e:	48 8d 35 13 6e 00 00 	lea    0x6e13(%rip),%rsi        # 198a8 <g_427+0x4850>
   12a95:	48 89 c7             	mov    %rax,%rdi
   12a98:	e8 76 5c ff ff       	callq  8713 <transparent_crc>
   12a9d:	8b 05 3d a7 00 00    	mov    0xa73d(%rip),%eax        # 1d1e0 <g_280>
   12aa3:	48 98                	cltq   
   12aa5:	8b 55 f4             	mov    -0xc(%rbp),%edx
   12aa8:	48 8d 35 ff 6d 00 00 	lea    0x6dff(%rip),%rsi        # 198ae <g_427+0x4856>
   12aaf:	48 89 c7             	mov    %rax,%rdi
   12ab2:	e8 5c 5c ff ff       	callq  8713 <transparent_crc>
   12ab7:	0f b6 05 26 a7 00 00 	movzbl 0xa726(%rip),%eax        # 1d1e4 <g_280+0x4>
   12abe:	48 0f be c0          	movsbq %al,%rax
   12ac2:	8b 55 f4             	mov    -0xc(%rbp),%edx
   12ac5:	48 8d 35 ee 6d 00 00 	lea    0x6dee(%rip),%rsi        # 198ba <g_427+0x4862>
   12acc:	48 89 c7             	mov    %rax,%rdi
   12acf:	e8 3f 5c ff ff       	callq  8713 <transparent_crc>
   12ad4:	48 8b 05 0d a7 00 00 	mov    0xa70d(%rip),%rax        # 1d1e8 <g_280+0x8>
   12adb:	8b 55 f4             	mov    -0xc(%rbp),%edx
   12ade:	48 8d 35 e1 6d 00 00 	lea    0x6de1(%rip),%rsi        # 198c6 <g_427+0x486e>
   12ae5:	48 89 c7             	mov    %rax,%rdi
   12ae8:	e8 26 5c ff ff       	callq  8713 <transparent_crc>
   12aed:	8b 05 fd a6 00 00    	mov    0xa6fd(%rip),%eax        # 1d1f0 <g_280+0x10>
   12af3:	89 c1                	mov    %eax,%ecx
   12af5:	8b 45 f4             	mov    -0xc(%rbp),%eax
   12af8:	89 c2                	mov    %eax,%edx
   12afa:	48 8d 35 d1 6d 00 00 	lea    0x6dd1(%rip),%rsi        # 198d2 <g_427+0x487a>
   12b01:	48 89 cf             	mov    %rcx,%rdi
   12b04:	e8 0a 5c ff ff       	callq  8713 <transparent_crc>
   12b09:	0f b6 05 e4 a6 00 00 	movzbl 0xa6e4(%rip),%eax        # 1d1f4 <g_280+0x14>
   12b10:	0f b6 c0             	movzbl %al,%eax
   12b13:	8b 55 f4             	mov    -0xc(%rbp),%edx
   12b16:	48 8d 35 c1 6d 00 00 	lea    0x6dc1(%rip),%rsi        # 198de <g_427+0x4886>
   12b1d:	48 89 c7             	mov    %rax,%rdi
   12b20:	e8 ee 5b ff ff       	callq  8713 <transparent_crc>
   12b25:	8b 05 cd a6 00 00    	mov    0xa6cd(%rip),%eax        # 1d1f8 <g_280+0x18>
   12b2b:	89 c1                	mov    %eax,%ecx
   12b2d:	8b 45 f4             	mov    -0xc(%rbp),%eax
   12b30:	89 c2                	mov    %eax,%edx
   12b32:	48 8d 35 b1 6d 00 00 	lea    0x6db1(%rip),%rsi        # 198ea <g_427+0x4892>
   12b39:	48 89 cf             	mov    %rcx,%rdi
   12b3c:	e8 d2 5b ff ff       	callq  8713 <transparent_crc>
   12b41:	0f b7 05 b4 a6 00 00 	movzwl 0xa6b4(%rip),%eax        # 1d1fc <g_280+0x1c>
   12b48:	48 0f bf c0          	movswq %ax,%rax
   12b4c:	8b 55 f4             	mov    -0xc(%rbp),%edx
   12b4f:	48 8d 35 a0 6d 00 00 	lea    0x6da0(%rip),%rsi        # 198f6 <g_427+0x489e>
   12b56:	48 89 c7             	mov    %rax,%rdi
   12b59:	e8 b5 5b ff ff       	callq  8713 <transparent_crc>
   12b5e:	8b 05 9c a6 00 00    	mov    0xa69c(%rip),%eax        # 1d200 <g_280+0x20>
   12b64:	89 c1                	mov    %eax,%ecx
   12b66:	8b 45 f4             	mov    -0xc(%rbp),%eax
   12b69:	89 c2                	mov    %eax,%edx
   12b6b:	48 8d 35 90 6d 00 00 	lea    0x6d90(%rip),%rsi        # 19902 <g_427+0x48aa>
   12b72:	48 89 cf             	mov    %rcx,%rdi
   12b75:	e8 99 5b ff ff       	callq  8713 <transparent_crc>
   12b7a:	0f b6 05 83 a6 00 00 	movzbl 0xa683(%rip),%eax        # 1d204 <g_280+0x24>
   12b81:	0f b6 c0             	movzbl %al,%eax
   12b84:	8b 55 f4             	mov    -0xc(%rbp),%edx
   12b87:	48 8d 35 80 6d 00 00 	lea    0x6d80(%rip),%rsi        # 1990e <g_427+0x48b6>
   12b8e:	48 89 c7             	mov    %rax,%rdi
   12b91:	e8 7d 5b ff ff       	callq  8713 <transparent_crc>
   12b96:	0f b6 05 68 a6 00 00 	movzbl 0xa668(%rip),%eax        # 1d205 <g_280+0x25>
   12b9d:	0f b6 c0             	movzbl %al,%eax
   12ba0:	8b 55 f4             	mov    -0xc(%rbp),%edx
   12ba3:	48 8d 35 70 6d 00 00 	lea    0x6d70(%rip),%rsi        # 1991a <g_427+0x48c2>
   12baa:	48 89 c7             	mov    %rax,%rdi
   12bad:	e8 61 5b ff ff       	callq  8713 <transparent_crc>
   12bb2:	48 8b 05 4f a6 00 00 	mov    0xa64f(%rip),%rax        # 1d208 <g_292>
   12bb9:	48 89 c1             	mov    %rax,%rcx
   12bbc:	8b 45 f4             	mov    -0xc(%rbp),%eax
   12bbf:	89 c2                	mov    %eax,%edx
   12bc1:	48 8d 35 5e 6d 00 00 	lea    0x6d5e(%rip),%rsi        # 19926 <g_427+0x48ce>
   12bc8:	48 89 cf             	mov    %rcx,%rdi
   12bcb:	e8 43 5b ff ff       	callq  8713 <transparent_crc>
   12bd0:	8b 05 4a a6 00 00    	mov    0xa64a(%rip),%eax        # 1d220 <g_293>
   12bd6:	48 98                	cltq   
   12bd8:	8b 55 f4             	mov    -0xc(%rbp),%edx
   12bdb:	48 8d 35 4a 6d 00 00 	lea    0x6d4a(%rip),%rsi        # 1992c <g_427+0x48d4>
   12be2:	48 89 c7             	mov    %rax,%rdi
   12be5:	e8 29 5b ff ff       	callq  8713 <transparent_crc>
   12bea:	0f b6 05 33 a6 00 00 	movzbl 0xa633(%rip),%eax        # 1d224 <g_293+0x4>
   12bf1:	48 0f be c0          	movsbq %al,%rax
   12bf5:	8b 55 f4             	mov    -0xc(%rbp),%edx
   12bf8:	48 8d 35 39 6d 00 00 	lea    0x6d39(%rip),%rsi        # 19938 <g_427+0x48e0>
   12bff:	48 89 c7             	mov    %rax,%rdi
   12c02:	e8 0c 5b ff ff       	callq  8713 <transparent_crc>
   12c07:	48 8b 05 1a a6 00 00 	mov    0xa61a(%rip),%rax        # 1d228 <g_293+0x8>
   12c0e:	8b 55 f4             	mov    -0xc(%rbp),%edx
   12c11:	48 8d 35 2c 6d 00 00 	lea    0x6d2c(%rip),%rsi        # 19944 <g_427+0x48ec>
   12c18:	48 89 c7             	mov    %rax,%rdi
   12c1b:	e8 f3 5a ff ff       	callq  8713 <transparent_crc>
   12c20:	8b 05 0a a6 00 00    	mov    0xa60a(%rip),%eax        # 1d230 <g_293+0x10>
   12c26:	89 c1                	mov    %eax,%ecx
   12c28:	8b 45 f4             	mov    -0xc(%rbp),%eax
   12c2b:	89 c2                	mov    %eax,%edx
   12c2d:	48 8d 35 1c 6d 00 00 	lea    0x6d1c(%rip),%rsi        # 19950 <g_427+0x48f8>
   12c34:	48 89 cf             	mov    %rcx,%rdi
   12c37:	e8 d7 5a ff ff       	callq  8713 <transparent_crc>
   12c3c:	0f b6 05 f1 a5 00 00 	movzbl 0xa5f1(%rip),%eax        # 1d234 <g_293+0x14>
   12c43:	0f b6 c0             	movzbl %al,%eax
   12c46:	8b 55 f4             	mov    -0xc(%rbp),%edx
   12c49:	48 8d 35 0c 6d 00 00 	lea    0x6d0c(%rip),%rsi        # 1995c <g_427+0x4904>
   12c50:	48 89 c7             	mov    %rax,%rdi
   12c53:	e8 bb 5a ff ff       	callq  8713 <transparent_crc>
   12c58:	8b 05 da a5 00 00    	mov    0xa5da(%rip),%eax        # 1d238 <g_293+0x18>
   12c5e:	89 c1                	mov    %eax,%ecx
   12c60:	8b 45 f4             	mov    -0xc(%rbp),%eax
   12c63:	89 c2                	mov    %eax,%edx
   12c65:	48 8d 35 fc 6c 00 00 	lea    0x6cfc(%rip),%rsi        # 19968 <g_427+0x4910>
   12c6c:	48 89 cf             	mov    %rcx,%rdi
   12c6f:	e8 9f 5a ff ff       	callq  8713 <transparent_crc>
   12c74:	0f b7 05 c1 a5 00 00 	movzwl 0xa5c1(%rip),%eax        # 1d23c <g_293+0x1c>
   12c7b:	48 0f bf c0          	movswq %ax,%rax
   12c7f:	8b 55 f4             	mov    -0xc(%rbp),%edx
   12c82:	48 8d 35 eb 6c 00 00 	lea    0x6ceb(%rip),%rsi        # 19974 <g_427+0x491c>
   12c89:	48 89 c7             	mov    %rax,%rdi
   12c8c:	e8 82 5a ff ff       	callq  8713 <transparent_crc>
   12c91:	8b 05 a9 a5 00 00    	mov    0xa5a9(%rip),%eax        # 1d240 <g_293+0x20>
   12c97:	89 c1                	mov    %eax,%ecx
   12c99:	8b 45 f4             	mov    -0xc(%rbp),%eax
   12c9c:	89 c2                	mov    %eax,%edx
   12c9e:	48 8d 35 db 6c 00 00 	lea    0x6cdb(%rip),%rsi        # 19980 <g_427+0x4928>
   12ca5:	48 89 cf             	mov    %rcx,%rdi
   12ca8:	e8 66 5a ff ff       	callq  8713 <transparent_crc>
   12cad:	0f b6 05 90 a5 00 00 	movzbl 0xa590(%rip),%eax        # 1d244 <g_293+0x24>
   12cb4:	0f b6 c0             	movzbl %al,%eax
   12cb7:	8b 55 f4             	mov    -0xc(%rbp),%edx
   12cba:	48 8d 35 cb 6c 00 00 	lea    0x6ccb(%rip),%rsi        # 1998c <g_427+0x4934>
   12cc1:	48 89 c7             	mov    %rax,%rdi
   12cc4:	e8 4a 5a ff ff       	callq  8713 <transparent_crc>
   12cc9:	0f b6 05 75 a5 00 00 	movzbl 0xa575(%rip),%eax        # 1d245 <g_293+0x25>
   12cd0:	0f b6 c0             	movzbl %al,%eax
   12cd3:	8b 55 f4             	mov    -0xc(%rbp),%edx
   12cd6:	48 8d 35 bb 6c 00 00 	lea    0x6cbb(%rip),%rsi        # 19998 <g_427+0x4940>
   12cdd:	48 89 c7             	mov    %rax,%rdi
   12ce0:	e8 2e 5a ff ff       	callq  8713 <transparent_crc>
   12ce5:	8b 05 75 a5 00 00    	mov    0xa575(%rip),%eax        # 1d260 <g_297>
   12ceb:	48 98                	cltq   
   12ced:	8b 55 f4             	mov    -0xc(%rbp),%edx
   12cf0:	48 8d 35 ad 6c 00 00 	lea    0x6cad(%rip),%rsi        # 199a4 <g_427+0x494c>
   12cf7:	48 89 c7             	mov    %rax,%rdi
   12cfa:	e8 14 5a ff ff       	callq  8713 <transparent_crc>
   12cff:	0f b6 05 5e a5 00 00 	movzbl 0xa55e(%rip),%eax        # 1d264 <g_297+0x4>
   12d06:	48 0f be c0          	movsbq %al,%rax
   12d0a:	8b 55 f4             	mov    -0xc(%rbp),%edx
   12d0d:	48 8d 35 9c 6c 00 00 	lea    0x6c9c(%rip),%rsi        # 199b0 <g_427+0x4958>
   12d14:	48 89 c7             	mov    %rax,%rdi
   12d17:	e8 f7 59 ff ff       	callq  8713 <transparent_crc>
   12d1c:	48 8b 05 45 a5 00 00 	mov    0xa545(%rip),%rax        # 1d268 <g_297+0x8>
   12d23:	8b 55 f4             	mov    -0xc(%rbp),%edx
   12d26:	48 8d 35 8f 6c 00 00 	lea    0x6c8f(%rip),%rsi        # 199bc <g_427+0x4964>
   12d2d:	48 89 c7             	mov    %rax,%rdi
   12d30:	e8 de 59 ff ff       	callq  8713 <transparent_crc>
   12d35:	8b 05 35 a5 00 00    	mov    0xa535(%rip),%eax        # 1d270 <g_297+0x10>
   12d3b:	89 c1                	mov    %eax,%ecx
   12d3d:	8b 45 f4             	mov    -0xc(%rbp),%eax
   12d40:	89 c2                	mov    %eax,%edx
   12d42:	48 8d 35 7f 6c 00 00 	lea    0x6c7f(%rip),%rsi        # 199c8 <g_427+0x4970>
   12d49:	48 89 cf             	mov    %rcx,%rdi
   12d4c:	e8 c2 59 ff ff       	callq  8713 <transparent_crc>
   12d51:	0f b6 05 1c a5 00 00 	movzbl 0xa51c(%rip),%eax        # 1d274 <g_297+0x14>
   12d58:	0f b6 c0             	movzbl %al,%eax
   12d5b:	8b 55 f4             	mov    -0xc(%rbp),%edx
   12d5e:	48 8d 35 6f 6c 00 00 	lea    0x6c6f(%rip),%rsi        # 199d4 <g_427+0x497c>
   12d65:	48 89 c7             	mov    %rax,%rdi
   12d68:	e8 a6 59 ff ff       	callq  8713 <transparent_crc>
   12d6d:	8b 05 05 a5 00 00    	mov    0xa505(%rip),%eax        # 1d278 <g_297+0x18>
   12d73:	89 c1                	mov    %eax,%ecx
   12d75:	8b 45 f4             	mov    -0xc(%rbp),%eax
   12d78:	89 c2                	mov    %eax,%edx
   12d7a:	48 8d 35 5f 6c 00 00 	lea    0x6c5f(%rip),%rsi        # 199e0 <g_427+0x4988>
   12d81:	48 89 cf             	mov    %rcx,%rdi
   12d84:	e8 8a 59 ff ff       	callq  8713 <transparent_crc>
   12d89:	0f b7 05 ec a4 00 00 	movzwl 0xa4ec(%rip),%eax        # 1d27c <g_297+0x1c>
   12d90:	48 0f bf c0          	movswq %ax,%rax
   12d94:	8b 55 f4             	mov    -0xc(%rbp),%edx
   12d97:	48 8d 35 4e 6c 00 00 	lea    0x6c4e(%rip),%rsi        # 199ec <g_427+0x4994>
   12d9e:	48 89 c7             	mov    %rax,%rdi
   12da1:	e8 6d 59 ff ff       	callq  8713 <transparent_crc>
   12da6:	8b 05 d4 a4 00 00    	mov    0xa4d4(%rip),%eax        # 1d280 <g_297+0x20>
   12dac:	89 c1                	mov    %eax,%ecx
   12dae:	8b 45 f4             	mov    -0xc(%rbp),%eax
   12db1:	89 c2                	mov    %eax,%edx
   12db3:	48 8d 35 3e 6c 00 00 	lea    0x6c3e(%rip),%rsi        # 199f8 <g_427+0x49a0>
   12dba:	48 89 cf             	mov    %rcx,%rdi
   12dbd:	e8 51 59 ff ff       	callq  8713 <transparent_crc>
   12dc2:	0f b6 05 bb a4 00 00 	movzbl 0xa4bb(%rip),%eax        # 1d284 <g_297+0x24>
   12dc9:	0f b6 c0             	movzbl %al,%eax
   12dcc:	8b 55 f4             	mov    -0xc(%rbp),%edx
   12dcf:	48 8d 35 2e 6c 00 00 	lea    0x6c2e(%rip),%rsi        # 19a04 <g_427+0x49ac>
   12dd6:	48 89 c7             	mov    %rax,%rdi
   12dd9:	e8 35 59 ff ff       	callq  8713 <transparent_crc>
   12dde:	0f b6 05 a0 a4 00 00 	movzbl 0xa4a0(%rip),%eax        # 1d285 <g_297+0x25>
   12de5:	0f b6 c0             	movzbl %al,%eax
   12de8:	8b 55 f4             	mov    -0xc(%rbp),%edx
   12deb:	48 8d 35 1e 6c 00 00 	lea    0x6c1e(%rip),%rsi        # 19a10 <g_427+0x49b8>
   12df2:	48 89 c7             	mov    %rax,%rdi
   12df5:	e8 19 59 ff ff       	callq  8713 <transparent_crc>
   12dfa:	0f b6 05 87 a4 00 00 	movzbl 0xa487(%rip),%eax        # 1d288 <g_405>
   12e01:	48 0f be c0          	movsbq %al,%rax
   12e05:	8b 55 f4             	mov    -0xc(%rbp),%edx
   12e08:	48 8d 35 0d 6c 00 00 	lea    0x6c0d(%rip),%rsi        # 19a1c <g_427+0x49c4>
   12e0f:	48 89 c7             	mov    %rax,%rdi
   12e12:	e8 fc 58 ff ff       	callq  8713 <transparent_crc>
   12e17:	c7 45 e8 00 00 00 00 	movl   $0x0,-0x18(%rbp)
   12e1e:	e9 43 02 00 00       	jmpq   13066 <main+0xc68>
   12e23:	8b 45 e8             	mov    -0x18(%rbp),%eax
   12e26:	48 63 d0             	movslq %eax,%rdx
   12e29:	48 89 d0             	mov    %rdx,%rax
   12e2c:	48 c1 e0 02          	shl    $0x2,%rax
   12e30:	48 01 d0             	add    %rdx,%rax
   12e33:	48 c1 e0 03          	shl    $0x3,%rax
   12e37:	48 89 c2             	mov    %rax,%rdx
   12e3a:	48 8d 05 5f a4 00 00 	lea    0xa45f(%rip),%rax        # 1d2a0 <g_481>
   12e41:	8b 04 02             	mov    (%rdx,%rax,1),%eax
   12e44:	48 98                	cltq   
   12e46:	8b 55 f4             	mov    -0xc(%rbp),%edx
   12e49:	48 8d 35 d2 6b 00 00 	lea    0x6bd2(%rip),%rsi        # 19a22 <g_427+0x49ca>
   12e50:	48 89 c7             	mov    %rax,%rdi
   12e53:	e8 bb 58 ff ff       	callq  8713 <transparent_crc>
   12e58:	8b 45 e8             	mov    -0x18(%rbp),%eax
   12e5b:	48 63 d0             	movslq %eax,%rdx
   12e5e:	48 89 d0             	mov    %rdx,%rax
   12e61:	48 c1 e0 02          	shl    $0x2,%rax
   12e65:	48 01 d0             	add    %rdx,%rax
   12e68:	48 c1 e0 03          	shl    $0x3,%rax
   12e6c:	48 89 c2             	mov    %rax,%rdx
   12e6f:	48 8d 05 2e a4 00 00 	lea    0xa42e(%rip),%rax        # 1d2a4 <g_481+0x4>
   12e76:	0f b6 04 02          	movzbl (%rdx,%rax,1),%eax
   12e7a:	48 0f be c0          	movsbq %al,%rax
   12e7e:	8b 55 f4             	mov    -0xc(%rbp),%edx
   12e81:	48 8d 35 a9 6b 00 00 	lea    0x6ba9(%rip),%rsi        # 19a31 <g_427+0x49d9>
   12e88:	48 89 c7             	mov    %rax,%rdi
   12e8b:	e8 83 58 ff ff       	callq  8713 <transparent_crc>
   12e90:	8b 45 e8             	mov    -0x18(%rbp),%eax
   12e93:	48 63 d0             	movslq %eax,%rdx
   12e96:	48 89 d0             	mov    %rdx,%rax
   12e99:	48 c1 e0 02          	shl    $0x2,%rax
   12e9d:	48 01 d0             	add    %rdx,%rax
   12ea0:	48 c1 e0 03          	shl    $0x3,%rax
   12ea4:	48 89 c2             	mov    %rax,%rdx
   12ea7:	48 8d 05 fa a3 00 00 	lea    0xa3fa(%rip),%rax        # 1d2a8 <g_481+0x8>
   12eae:	48 8b 04 02          	mov    (%rdx,%rax,1),%rax
   12eb2:	8b 55 f4             	mov    -0xc(%rbp),%edx
   12eb5:	48 8d 35 84 6b 00 00 	lea    0x6b84(%rip),%rsi        # 19a40 <g_427+0x49e8>
   12ebc:	48 89 c7             	mov    %rax,%rdi
   12ebf:	e8 4f 58 ff ff       	callq  8713 <transparent_crc>
   12ec4:	8b 45 e8             	mov    -0x18(%rbp),%eax
   12ec7:	48 63 d0             	movslq %eax,%rdx
   12eca:	48 89 d0             	mov    %rdx,%rax
   12ecd:	48 c1 e0 02          	shl    $0x2,%rax
   12ed1:	48 01 d0             	add    %rdx,%rax
   12ed4:	48 c1 e0 03          	shl    $0x3,%rax
   12ed8:	48 89 c2             	mov    %rax,%rdx
   12edb:	48 8d 05 ce a3 00 00 	lea    0xa3ce(%rip),%rax        # 1d2b0 <g_481+0x10>
   12ee2:	8b 04 02             	mov    (%rdx,%rax,1),%eax
   12ee5:	89 c1                	mov    %eax,%ecx
   12ee7:	8b 45 f4             	mov    -0xc(%rbp),%eax
   12eea:	89 c2                	mov    %eax,%edx
   12eec:	48 8d 35 5c 6b 00 00 	lea    0x6b5c(%rip),%rsi        # 19a4f <g_427+0x49f7>
   12ef3:	48 89 cf             	mov    %rcx,%rdi
   12ef6:	e8 18 58 ff ff       	callq  8713 <transparent_crc>
   12efb:	8b 45 e8             	mov    -0x18(%rbp),%eax
   12efe:	48 63 d0             	movslq %eax,%rdx
   12f01:	48 89 d0             	mov    %rdx,%rax
   12f04:	48 c1 e0 02          	shl    $0x2,%rax
   12f08:	48 01 d0             	add    %rdx,%rax
   12f0b:	48 c1 e0 03          	shl    $0x3,%rax
   12f0f:	48 89 c2             	mov    %rax,%rdx
   12f12:	48 8d 05 9b a3 00 00 	lea    0xa39b(%rip),%rax        # 1d2b4 <g_481+0x14>
   12f19:	0f b6 04 02          	movzbl (%rdx,%rax,1),%eax
   12f1d:	0f b6 c0             	movzbl %al,%eax
   12f20:	8b 55 f4             	mov    -0xc(%rbp),%edx
   12f23:	48 8d 35 34 6b 00 00 	lea    0x6b34(%rip),%rsi        # 19a5e <g_427+0x4a06>
   12f2a:	48 89 c7             	mov    %rax,%rdi
   12f2d:	e8 e1 57 ff ff       	callq  8713 <transparent_crc>
   12f32:	8b 45 e8             	mov    -0x18(%rbp),%eax
   12f35:	48 63 d0             	movslq %eax,%rdx
   12f38:	48 89 d0             	mov    %rdx,%rax
   12f3b:	48 c1 e0 02          	shl    $0x2,%rax
   12f3f:	48 01 d0             	add    %rdx,%rax
   12f42:	48 c1 e0 03          	shl    $0x3,%rax
   12f46:	48 89 c2             	mov    %rax,%rdx
   12f49:	48 8d 05 68 a3 00 00 	lea    0xa368(%rip),%rax        # 1d2b8 <g_481+0x18>
   12f50:	8b 04 02             	mov    (%rdx,%rax,1),%eax
   12f53:	89 c1                	mov    %eax,%ecx
   12f55:	8b 45 f4             	mov    -0xc(%rbp),%eax
   12f58:	89 c2                	mov    %eax,%edx
   12f5a:	48 8d 35 0c 6b 00 00 	lea    0x6b0c(%rip),%rsi        # 19a6d <g_427+0x4a15>
   12f61:	48 89 cf             	mov    %rcx,%rdi
   12f64:	e8 aa 57 ff ff       	callq  8713 <transparent_crc>
   12f69:	8b 45 e8             	mov    -0x18(%rbp),%eax
   12f6c:	48 63 d0             	movslq %eax,%rdx
   12f6f:	48 89 d0             	mov    %rdx,%rax
   12f72:	48 c1 e0 02          	shl    $0x2,%rax
   12f76:	48 01 d0             	add    %rdx,%rax
   12f79:	48 c1 e0 03          	shl    $0x3,%rax
   12f7d:	48 89 c2             	mov    %rax,%rdx
   12f80:	48 8d 05 35 a3 00 00 	lea    0xa335(%rip),%rax        # 1d2bc <g_481+0x1c>
   12f87:	0f b7 04 02          	movzwl (%rdx,%rax,1),%eax
   12f8b:	48 0f bf c0          	movswq %ax,%rax
   12f8f:	8b 55 f4             	mov    -0xc(%rbp),%edx
   12f92:	48 8d 35 e3 6a 00 00 	lea    0x6ae3(%rip),%rsi        # 19a7c <g_427+0x4a24>
   12f99:	48 89 c7             	mov    %rax,%rdi
   12f9c:	e8 72 57 ff ff       	callq  8713 <transparent_crc>
   12fa1:	8b 45 e8             	mov    -0x18(%rbp),%eax
   12fa4:	48 63 d0             	movslq %eax,%rdx
   12fa7:	48 89 d0             	mov    %rdx,%rax
   12faa:	48 c1 e0 02          	shl    $0x2,%rax
   12fae:	48 01 d0             	add    %rdx,%rax
   12fb1:	48 c1 e0 03          	shl    $0x3,%rax
   12fb5:	48 89 c2             	mov    %rax,%rdx
   12fb8:	48 8d 05 01 a3 00 00 	lea    0xa301(%rip),%rax        # 1d2c0 <g_481+0x20>
   12fbf:	8b 04 02             	mov    (%rdx,%rax,1),%eax
   12fc2:	89 c1                	mov    %eax,%ecx
   12fc4:	8b 45 f4             	mov    -0xc(%rbp),%eax
   12fc7:	89 c2                	mov    %eax,%edx
   12fc9:	48 8d 35 bb 6a 00 00 	lea    0x6abb(%rip),%rsi        # 19a8b <g_427+0x4a33>
   12fd0:	48 89 cf             	mov    %rcx,%rdi
   12fd3:	e8 3b 57 ff ff       	callq  8713 <transparent_crc>
   12fd8:	8b 45 e8             	mov    -0x18(%rbp),%eax
   12fdb:	48 63 d0             	movslq %eax,%rdx
   12fde:	48 89 d0             	mov    %rdx,%rax
   12fe1:	48 c1 e0 02          	shl    $0x2,%rax
   12fe5:	48 01 d0             	add    %rdx,%rax
   12fe8:	48 c1 e0 03          	shl    $0x3,%rax
   12fec:	48 89 c2             	mov    %rax,%rdx
   12fef:	48 8d 05 ce a2 00 00 	lea    0xa2ce(%rip),%rax        # 1d2c4 <g_481+0x24>
   12ff6:	0f b6 04 02          	movzbl (%rdx,%rax,1),%eax
   12ffa:	0f b6 c0             	movzbl %al,%eax
   12ffd:	8b 55 f4             	mov    -0xc(%rbp),%edx
   13000:	48 8d 35 93 6a 00 00 	lea    0x6a93(%rip),%rsi        # 19a9a <g_427+0x4a42>
   13007:	48 89 c7             	mov    %rax,%rdi
   1300a:	e8 04 57 ff ff       	callq  8713 <transparent_crc>
   1300f:	8b 45 e8             	mov    -0x18(%rbp),%eax
   13012:	48 63 d0             	movslq %eax,%rdx
   13015:	48 89 d0             	mov    %rdx,%rax
   13018:	48 c1 e0 02          	shl    $0x2,%rax
   1301c:	48 01 d0             	add    %rdx,%rax
   1301f:	48 c1 e0 03          	shl    $0x3,%rax
   13023:	48 89 c2             	mov    %rax,%rdx
   13026:	48 8d 05 98 a2 00 00 	lea    0xa298(%rip),%rax        # 1d2c5 <g_481+0x25>
   1302d:	0f b6 04 02          	movzbl (%rdx,%rax,1),%eax
   13031:	0f b6 c0             	movzbl %al,%eax
   13034:	8b 55 f4             	mov    -0xc(%rbp),%edx
   13037:	48 8d 35 6b 6a 00 00 	lea    0x6a6b(%rip),%rsi        # 19aa9 <g_427+0x4a51>
   1303e:	48 89 c7             	mov    %rax,%rdi
   13041:	e8 cd 56 ff ff       	callq  8713 <transparent_crc>
   13046:	83 7d f4 00          	cmpl   $0x0,-0xc(%rbp)
   1304a:	74 16                	je     13062 <main+0xc64>
   1304c:	8b 45 e8             	mov    -0x18(%rbp),%eax
   1304f:	89 c6                	mov    %eax,%esi
   13051:	48 8d 3d 90 66 00 00 	lea    0x6690(%rip),%rdi        # 196e8 <g_427+0x4690>
   13058:	b8 00 00 00 00       	mov    $0x0,%eax
   1305d:	e8 2e 40 ff ff       	callq  7090 <printf@plt>
   13062:	83 45 e8 01          	addl   $0x1,-0x18(%rbp)
   13066:	83 7d e8 01          	cmpl   $0x1,-0x18(%rbp)
   1306a:	0f 8e b3 fd ff ff    	jle    12e23 <main+0xa25>
   13070:	8b 05 8a a2 00 00    	mov    0xa28a(%rip),%eax        # 1d300 <g_609>
   13076:	48 98                	cltq   
   13078:	8b 55 f4             	mov    -0xc(%rbp),%edx
   1307b:	48 8d 35 36 6a 00 00 	lea    0x6a36(%rip),%rsi        # 19ab8 <g_427+0x4a60>
   13082:	48 89 c7             	mov    %rax,%rdi
   13085:	e8 89 56 ff ff       	callq  8713 <transparent_crc>
   1308a:	0f b6 05 73 a2 00 00 	movzbl 0xa273(%rip),%eax        # 1d304 <g_609+0x4>
   13091:	48 0f be c0          	movsbq %al,%rax
   13095:	8b 55 f4             	mov    -0xc(%rbp),%edx
   13098:	48 8d 35 25 6a 00 00 	lea    0x6a25(%rip),%rsi        # 19ac4 <g_427+0x4a6c>
   1309f:	48 89 c7             	mov    %rax,%rdi
   130a2:	e8 6c 56 ff ff       	callq  8713 <transparent_crc>
   130a7:	48 8b 05 5a a2 00 00 	mov    0xa25a(%rip),%rax        # 1d308 <g_609+0x8>
   130ae:	8b 55 f4             	mov    -0xc(%rbp),%edx
   130b1:	48 8d 35 18 6a 00 00 	lea    0x6a18(%rip),%rsi        # 19ad0 <g_427+0x4a78>
   130b8:	48 89 c7             	mov    %rax,%rdi
   130bb:	e8 53 56 ff ff       	callq  8713 <transparent_crc>
   130c0:	8b 05 4a a2 00 00    	mov    0xa24a(%rip),%eax        # 1d310 <g_609+0x10>
   130c6:	89 c1                	mov    %eax,%ecx
   130c8:	8b 45 f4             	mov    -0xc(%rbp),%eax
   130cb:	89 c2                	mov    %eax,%edx
   130cd:	48 8d 35 08 6a 00 00 	lea    0x6a08(%rip),%rsi        # 19adc <g_427+0x4a84>
   130d4:	48 89 cf             	mov    %rcx,%rdi
   130d7:	e8 37 56 ff ff       	callq  8713 <transparent_crc>
   130dc:	0f b6 05 31 a2 00 00 	movzbl 0xa231(%rip),%eax        # 1d314 <g_609+0x14>
   130e3:	0f b6 c0             	movzbl %al,%eax
   130e6:	8b 55 f4             	mov    -0xc(%rbp),%edx
   130e9:	48 8d 35 f8 69 00 00 	lea    0x69f8(%rip),%rsi        # 19ae8 <g_427+0x4a90>
   130f0:	48 89 c7             	mov    %rax,%rdi
   130f3:	e8 1b 56 ff ff       	callq  8713 <transparent_crc>
   130f8:	8b 05 1a a2 00 00    	mov    0xa21a(%rip),%eax        # 1d318 <g_609+0x18>
   130fe:	89 c1                	mov    %eax,%ecx
   13100:	8b 45 f4             	mov    -0xc(%rbp),%eax
   13103:	89 c2                	mov    %eax,%edx
   13105:	48 8d 35 e8 69 00 00 	lea    0x69e8(%rip),%rsi        # 19af4 <g_427+0x4a9c>
   1310c:	48 89 cf             	mov    %rcx,%rdi
   1310f:	e8 ff 55 ff ff       	callq  8713 <transparent_crc>
   13114:	0f b7 05 01 a2 00 00 	movzwl 0xa201(%rip),%eax        # 1d31c <g_609+0x1c>
   1311b:	48 0f bf c0          	movswq %ax,%rax
   1311f:	8b 55 f4             	mov    -0xc(%rbp),%edx
   13122:	48 8d 35 d7 69 00 00 	lea    0x69d7(%rip),%rsi        # 19b00 <g_427+0x4aa8>
   13129:	48 89 c7             	mov    %rax,%rdi
   1312c:	e8 e2 55 ff ff       	callq  8713 <transparent_crc>
   13131:	8b 05 e9 a1 00 00    	mov    0xa1e9(%rip),%eax        # 1d320 <g_609+0x20>
   13137:	89 c1                	mov    %eax,%ecx
   13139:	8b 45 f4             	mov    -0xc(%rbp),%eax
   1313c:	89 c2                	mov    %eax,%edx
   1313e:	48 8d 35 c7 69 00 00 	lea    0x69c7(%rip),%rsi        # 19b0c <g_427+0x4ab4>
   13145:	48 89 cf             	mov    %rcx,%rdi
   13148:	e8 c6 55 ff ff       	callq  8713 <transparent_crc>
   1314d:	0f b6 05 d0 a1 00 00 	movzbl 0xa1d0(%rip),%eax        # 1d324 <g_609+0x24>
   13154:	0f b6 c0             	movzbl %al,%eax
   13157:	8b 55 f4             	mov    -0xc(%rbp),%edx
   1315a:	48 8d 35 b7 69 00 00 	lea    0x69b7(%rip),%rsi        # 19b18 <g_427+0x4ac0>
   13161:	48 89 c7             	mov    %rax,%rdi
   13164:	e8 aa 55 ff ff       	callq  8713 <transparent_crc>
   13169:	0f b6 05 b5 a1 00 00 	movzbl 0xa1b5(%rip),%eax        # 1d325 <g_609+0x25>
   13170:	0f b6 c0             	movzbl %al,%eax
   13173:	8b 55 f4             	mov    -0xc(%rbp),%edx
   13176:	48 8d 35 a7 69 00 00 	lea    0x69a7(%rip),%rsi        # 19b24 <g_427+0x4acc>
   1317d:	48 89 c7             	mov    %rax,%rdi
   13180:	e8 8e 55 ff ff       	callq  8713 <transparent_crc>
   13185:	0f b7 05 9c a1 00 00 	movzwl 0xa19c(%rip),%eax        # 1d328 <g_627>
   1318c:	0f b7 c0             	movzwl %ax,%eax
   1318f:	8b 55 f4             	mov    -0xc(%rbp),%edx
   13192:	48 8d 35 97 69 00 00 	lea    0x6997(%rip),%rsi        # 19b30 <g_427+0x4ad8>
   13199:	48 89 c7             	mov    %rax,%rdi
   1319c:	e8 72 55 ff ff       	callq  8713 <transparent_crc>
   131a1:	c7 45 e8 00 00 00 00 	movl   $0x0,-0x18(%rbp)
   131a8:	e9 43 02 00 00       	jmpq   133f0 <main+0xff2>
   131ad:	8b 45 e8             	mov    -0x18(%rbp),%eax
   131b0:	48 63 d0             	movslq %eax,%rdx
   131b3:	48 89 d0             	mov    %rdx,%rax
   131b6:	48 c1 e0 02          	shl    $0x2,%rax
   131ba:	48 01 d0             	add    %rdx,%rax
   131bd:	48 c1 e0 03          	shl    $0x3,%rax
   131c1:	48 89 c2             	mov    %rax,%rdx
   131c4:	48 8d 05 75 a1 00 00 	lea    0xa175(%rip),%rax        # 1d340 <g_658>
   131cb:	8b 04 02             	mov    (%rdx,%rax,1),%eax
   131ce:	48 98                	cltq   
   131d0:	8b 55 f4             	mov    -0xc(%rbp),%edx
   131d3:	48 8d 35 5c 69 00 00 	lea    0x695c(%rip),%rsi        # 19b36 <g_427+0x4ade>
   131da:	48 89 c7             	mov    %rax,%rdi
   131dd:	e8 31 55 ff ff       	callq  8713 <transparent_crc>
   131e2:	8b 45 e8             	mov    -0x18(%rbp),%eax
   131e5:	48 63 d0             	movslq %eax,%rdx
   131e8:	48 89 d0             	mov    %rdx,%rax
   131eb:	48 c1 e0 02          	shl    $0x2,%rax
   131ef:	48 01 d0             	add    %rdx,%rax
   131f2:	48 c1 e0 03          	shl    $0x3,%rax
   131f6:	48 89 c2             	mov    %rax,%rdx
   131f9:	48 8d 05 44 a1 00 00 	lea    0xa144(%rip),%rax        # 1d344 <g_658+0x4>
   13200:	0f b6 04 02          	movzbl (%rdx,%rax,1),%eax
   13204:	48 0f be c0          	movsbq %al,%rax
   13208:	8b 55 f4             	mov    -0xc(%rbp),%edx
   1320b:	48 8d 35 33 69 00 00 	lea    0x6933(%rip),%rsi        # 19b45 <g_427+0x4aed>
   13212:	48 89 c7             	mov    %rax,%rdi
   13215:	e8 f9 54 ff ff       	callq  8713 <transparent_crc>
   1321a:	8b 45 e8             	mov    -0x18(%rbp),%eax
   1321d:	48 63 d0             	movslq %eax,%rdx
   13220:	48 89 d0             	mov    %rdx,%rax
   13223:	48 c1 e0 02          	shl    $0x2,%rax
   13227:	48 01 d0             	add    %rdx,%rax
   1322a:	48 c1 e0 03          	shl    $0x3,%rax
   1322e:	48 89 c2             	mov    %rax,%rdx
   13231:	48 8d 05 10 a1 00 00 	lea    0xa110(%rip),%rax        # 1d348 <g_658+0x8>
   13238:	48 8b 04 02          	mov    (%rdx,%rax,1),%rax
   1323c:	8b 55 f4             	mov    -0xc(%rbp),%edx
   1323f:	48 8d 35 0e 69 00 00 	lea    0x690e(%rip),%rsi        # 19b54 <g_427+0x4afc>
   13246:	48 89 c7             	mov    %rax,%rdi
   13249:	e8 c5 54 ff ff       	callq  8713 <transparent_crc>
   1324e:	8b 45 e8             	mov    -0x18(%rbp),%eax
   13251:	48 63 d0             	movslq %eax,%rdx
   13254:	48 89 d0             	mov    %rdx,%rax
   13257:	48 c1 e0 02          	shl    $0x2,%rax
   1325b:	48 01 d0             	add    %rdx,%rax
   1325e:	48 c1 e0 03          	shl    $0x3,%rax
   13262:	48 89 c2             	mov    %rax,%rdx
   13265:	48 8d 05 e4 a0 00 00 	lea    0xa0e4(%rip),%rax        # 1d350 <g_658+0x10>
   1326c:	8b 04 02             	mov    (%rdx,%rax,1),%eax
   1326f:	89 c1                	mov    %eax,%ecx
   13271:	8b 45 f4             	mov    -0xc(%rbp),%eax
   13274:	89 c2                	mov    %eax,%edx
   13276:	48 8d 35 e6 68 00 00 	lea    0x68e6(%rip),%rsi        # 19b63 <g_427+0x4b0b>
   1327d:	48 89 cf             	mov    %rcx,%rdi
   13280:	e8 8e 54 ff ff       	callq  8713 <transparent_crc>
   13285:	8b 45 e8             	mov    -0x18(%rbp),%eax
   13288:	48 63 d0             	movslq %eax,%rdx
   1328b:	48 89 d0             	mov    %rdx,%rax
   1328e:	48 c1 e0 02          	shl    $0x2,%rax
   13292:	48 01 d0             	add    %rdx,%rax
   13295:	48 c1 e0 03          	shl    $0x3,%rax
   13299:	48 89 c2             	mov    %rax,%rdx
   1329c:	48 8d 05 b1 a0 00 00 	lea    0xa0b1(%rip),%rax        # 1d354 <g_658+0x14>
   132a3:	0f b6 04 02          	movzbl (%rdx,%rax,1),%eax
   132a7:	0f b6 c0             	movzbl %al,%eax
   132aa:	8b 55 f4             	mov    -0xc(%rbp),%edx
   132ad:	48 8d 35 be 68 00 00 	lea    0x68be(%rip),%rsi        # 19b72 <g_427+0x4b1a>
   132b4:	48 89 c7             	mov    %rax,%rdi
   132b7:	e8 57 54 ff ff       	callq  8713 <transparent_crc>
   132bc:	8b 45 e8             	mov    -0x18(%rbp),%eax
   132bf:	48 63 d0             	movslq %eax,%rdx
   132c2:	48 89 d0             	mov    %rdx,%rax
   132c5:	48 c1 e0 02          	shl    $0x2,%rax
   132c9:	48 01 d0             	add    %rdx,%rax
   132cc:	48 c1 e0 03          	shl    $0x3,%rax
   132d0:	48 89 c2             	mov    %rax,%rdx
   132d3:	48 8d 05 7e a0 00 00 	lea    0xa07e(%rip),%rax        # 1d358 <g_658+0x18>
   132da:	8b 04 02             	mov    (%rdx,%rax,1),%eax
   132dd:	89 c1                	mov    %eax,%ecx
   132df:	8b 45 f4             	mov    -0xc(%rbp),%eax
   132e2:	89 c2                	mov    %eax,%edx
   132e4:	48 8d 35 96 68 00 00 	lea    0x6896(%rip),%rsi        # 19b81 <g_427+0x4b29>
   132eb:	48 89 cf             	mov    %rcx,%rdi
   132ee:	e8 20 54 ff ff       	callq  8713 <transparent_crc>
   132f3:	8b 45 e8             	mov    -0x18(%rbp),%eax
   132f6:	48 63 d0             	movslq %eax,%rdx
   132f9:	48 89 d0             	mov    %rdx,%rax
   132fc:	48 c1 e0 02          	shl    $0x2,%rax
   13300:	48 01 d0             	add    %rdx,%rax
   13303:	48 c1 e0 03          	shl    $0x3,%rax
   13307:	48 89 c2             	mov    %rax,%rdx
   1330a:	48 8d 05 4b a0 00 00 	lea    0xa04b(%rip),%rax        # 1d35c <g_658+0x1c>
   13311:	0f b7 04 02          	movzwl (%rdx,%rax,1),%eax
   13315:	48 0f bf c0          	movswq %ax,%rax
   13319:	8b 55 f4             	mov    -0xc(%rbp),%edx
   1331c:	48 8d 35 6d 68 00 00 	lea    0x686d(%rip),%rsi        # 19b90 <g_427+0x4b38>
   13323:	48 89 c7             	mov    %rax,%rdi
   13326:	e8 e8 53 ff ff       	callq  8713 <transparent_crc>
   1332b:	8b 45 e8             	mov    -0x18(%rbp),%eax
   1332e:	48 63 d0             	movslq %eax,%rdx
   13331:	48 89 d0             	mov    %rdx,%rax
   13334:	48 c1 e0 02          	shl    $0x2,%rax
   13338:	48 01 d0             	add    %rdx,%rax
   1333b:	48 c1 e0 03          	shl    $0x3,%rax
   1333f:	48 89 c2             	mov    %rax,%rdx
   13342:	48 8d 05 17 a0 00 00 	lea    0xa017(%rip),%rax        # 1d360 <g_658+0x20>
   13349:	8b 04 02             	mov    (%rdx,%rax,1),%eax
   1334c:	89 c1                	mov    %eax,%ecx
   1334e:	8b 45 f4             	mov    -0xc(%rbp),%eax
   13351:	89 c2                	mov    %eax,%edx
   13353:	48 8d 35 45 68 00 00 	lea    0x6845(%rip),%rsi        # 19b9f <g_427+0x4b47>
   1335a:	48 89 cf             	mov    %rcx,%rdi
   1335d:	e8 b1 53 ff ff       	callq  8713 <transparent_crc>
   13362:	8b 45 e8             	mov    -0x18(%rbp),%eax
   13365:	48 63 d0             	movslq %eax,%rdx
   13368:	48 89 d0             	mov    %rdx,%rax
   1336b:	48 c1 e0 02          	shl    $0x2,%rax
   1336f:	48 01 d0             	add    %rdx,%rax
   13372:	48 c1 e0 03          	shl    $0x3,%rax
   13376:	48 89 c2             	mov    %rax,%rdx
   13379:	48 8d 05 e4 9f 00 00 	lea    0x9fe4(%rip),%rax        # 1d364 <g_658+0x24>
   13380:	0f b6 04 02          	movzbl (%rdx,%rax,1),%eax
   13384:	0f b6 c0             	movzbl %al,%eax
   13387:	8b 55 f4             	mov    -0xc(%rbp),%edx
   1338a:	48 8d 35 1d 68 00 00 	lea    0x681d(%rip),%rsi        # 19bae <g_427+0x4b56>
   13391:	48 89 c7             	mov    %rax,%rdi
   13394:	e8 7a 53 ff ff       	callq  8713 <transparent_crc>
   13399:	8b 45 e8             	mov    -0x18(%rbp),%eax
   1339c:	48 63 d0             	movslq %eax,%rdx
   1339f:	48 89 d0             	mov    %rdx,%rax
   133a2:	48 c1 e0 02          	shl    $0x2,%rax
   133a6:	48 01 d0             	add    %rdx,%rax
   133a9:	48 c1 e0 03          	shl    $0x3,%rax
   133ad:	48 89 c2             	mov    %rax,%rdx
   133b0:	48 8d 05 ae 9f 00 00 	lea    0x9fae(%rip),%rax        # 1d365 <g_658+0x25>
   133b7:	0f b6 04 02          	movzbl (%rdx,%rax,1),%eax
   133bb:	0f b6 c0             	movzbl %al,%eax
   133be:	8b 55 f4             	mov    -0xc(%rbp),%edx
   133c1:	48 8d 35 f5 67 00 00 	lea    0x67f5(%rip),%rsi        # 19bbd <g_427+0x4b65>
   133c8:	48 89 c7             	mov    %rax,%rdi
   133cb:	e8 43 53 ff ff       	callq  8713 <transparent_crc>
   133d0:	83 7d f4 00          	cmpl   $0x0,-0xc(%rbp)
   133d4:	74 16                	je     133ec <main+0xfee>
   133d6:	8b 45 e8             	mov    -0x18(%rbp),%eax
   133d9:	89 c6                	mov    %eax,%esi
   133db:	48 8d 3d 06 63 00 00 	lea    0x6306(%rip),%rdi        # 196e8 <g_427+0x4690>
   133e2:	b8 00 00 00 00       	mov    $0x0,%eax
   133e7:	e8 a4 3c ff ff       	callq  7090 <printf@plt>
   133ec:	83 45 e8 01          	addl   $0x1,-0x18(%rbp)
   133f0:	83 7d e8 00          	cmpl   $0x0,-0x18(%rbp)
   133f4:	0f 8e b3 fd ff ff    	jle    131ad <main+0xdaf>
   133fa:	8b 05 80 9f 00 00    	mov    0x9f80(%rip),%eax        # 1d380 <g_712>
   13400:	48 98                	cltq   
   13402:	8b 55 f4             	mov    -0xc(%rbp),%edx
   13405:	48 8d 35 c0 67 00 00 	lea    0x67c0(%rip),%rsi        # 19bcc <g_427+0x4b74>
   1340c:	48 89 c7             	mov    %rax,%rdi
   1340f:	e8 ff 52 ff ff       	callq  8713 <transparent_crc>
   13414:	0f b6 05 69 9f 00 00 	movzbl 0x9f69(%rip),%eax        # 1d384 <g_712+0x4>
   1341b:	48 0f be c0          	movsbq %al,%rax
   1341f:	8b 55 f4             	mov    -0xc(%rbp),%edx
   13422:	48 8d 35 af 67 00 00 	lea    0x67af(%rip),%rsi        # 19bd8 <g_427+0x4b80>
   13429:	48 89 c7             	mov    %rax,%rdi
   1342c:	e8 e2 52 ff ff       	callq  8713 <transparent_crc>
   13431:	48 8b 05 50 9f 00 00 	mov    0x9f50(%rip),%rax        # 1d388 <g_712+0x8>
   13438:	8b 55 f4             	mov    -0xc(%rbp),%edx
   1343b:	48 8d 35 a2 67 00 00 	lea    0x67a2(%rip),%rsi        # 19be4 <g_427+0x4b8c>
   13442:	48 89 c7             	mov    %rax,%rdi
   13445:	e8 c9 52 ff ff       	callq  8713 <transparent_crc>
   1344a:	8b 05 40 9f 00 00    	mov    0x9f40(%rip),%eax        # 1d390 <g_712+0x10>
   13450:	89 c1                	mov    %eax,%ecx
   13452:	8b 45 f4             	mov    -0xc(%rbp),%eax
   13455:	89 c2                	mov    %eax,%edx
   13457:	48 8d 35 92 67 00 00 	lea    0x6792(%rip),%rsi        # 19bf0 <g_427+0x4b98>
   1345e:	48 89 cf             	mov    %rcx,%rdi
   13461:	e8 ad 52 ff ff       	callq  8713 <transparent_crc>
   13466:	0f b6 05 27 9f 00 00 	movzbl 0x9f27(%rip),%eax        # 1d394 <g_712+0x14>
   1346d:	0f b6 c0             	movzbl %al,%eax
   13470:	8b 55 f4             	mov    -0xc(%rbp),%edx
   13473:	48 8d 35 82 67 00 00 	lea    0x6782(%rip),%rsi        # 19bfc <g_427+0x4ba4>
   1347a:	48 89 c7             	mov    %rax,%rdi
   1347d:	e8 91 52 ff ff       	callq  8713 <transparent_crc>
   13482:	8b 05 10 9f 00 00    	mov    0x9f10(%rip),%eax        # 1d398 <g_712+0x18>
   13488:	89 c1                	mov    %eax,%ecx
   1348a:	8b 45 f4             	mov    -0xc(%rbp),%eax
   1348d:	89 c2                	mov    %eax,%edx
   1348f:	48 8d 35 72 67 00 00 	lea    0x6772(%rip),%rsi        # 19c08 <g_427+0x4bb0>
   13496:	48 89 cf             	mov    %rcx,%rdi
   13499:	e8 75 52 ff ff       	callq  8713 <transparent_crc>
   1349e:	0f b7 05 f7 9e 00 00 	movzwl 0x9ef7(%rip),%eax        # 1d39c <g_712+0x1c>
   134a5:	48 0f bf c0          	movswq %ax,%rax
   134a9:	8b 55 f4             	mov    -0xc(%rbp),%edx
   134ac:	48 8d 35 61 67 00 00 	lea    0x6761(%rip),%rsi        # 19c14 <g_427+0x4bbc>
   134b3:	48 89 c7             	mov    %rax,%rdi
   134b6:	e8 58 52 ff ff       	callq  8713 <transparent_crc>
   134bb:	8b 05 df 9e 00 00    	mov    0x9edf(%rip),%eax        # 1d3a0 <g_712+0x20>
   134c1:	89 c1                	mov    %eax,%ecx
   134c3:	8b 45 f4             	mov    -0xc(%rbp),%eax
   134c6:	89 c2                	mov    %eax,%edx
   134c8:	48 8d 35 51 67 00 00 	lea    0x6751(%rip),%rsi        # 19c20 <g_427+0x4bc8>
   134cf:	48 89 cf             	mov    %rcx,%rdi
   134d2:	e8 3c 52 ff ff       	callq  8713 <transparent_crc>
   134d7:	0f b6 05 c6 9e 00 00 	movzbl 0x9ec6(%rip),%eax        # 1d3a4 <g_712+0x24>
   134de:	0f b6 c0             	movzbl %al,%eax
   134e1:	8b 55 f4             	mov    -0xc(%rbp),%edx
   134e4:	48 8d 35 41 67 00 00 	lea    0x6741(%rip),%rsi        # 19c2c <g_427+0x4bd4>
   134eb:	48 89 c7             	mov    %rax,%rdi
   134ee:	e8 20 52 ff ff       	callq  8713 <transparent_crc>
   134f3:	0f b6 05 ab 9e 00 00 	movzbl 0x9eab(%rip),%eax        # 1d3a5 <g_712+0x25>
   134fa:	0f b6 c0             	movzbl %al,%eax
   134fd:	8b 55 f4             	mov    -0xc(%rbp),%edx
   13500:	48 8d 35 31 67 00 00 	lea    0x6731(%rip),%rsi        # 19c38 <g_427+0x4be0>
   13507:	48 89 c7             	mov    %rax,%rdi
   1350a:	e8 04 52 ff ff       	callq  8713 <transparent_crc>
   1350f:	48 8b 05 92 9e 00 00 	mov    0x9e92(%rip),%rax        # 1d3a8 <g_809>
   13516:	8b 55 f4             	mov    -0xc(%rbp),%edx
   13519:	48 8d 35 24 67 00 00 	lea    0x6724(%rip),%rsi        # 19c44 <g_427+0x4bec>
   13520:	48 89 c7             	mov    %rax,%rdi
   13523:	e8 eb 51 ff ff       	callq  8713 <transparent_crc>
   13528:	48 8b 05 09 dc 00 00 	mov    0xdc09(%rip),%rax        # 21138 <g_814>
   1352f:	48 89 c1             	mov    %rax,%rcx
   13532:	8b 45 f4             	mov    -0xc(%rbp),%eax
   13535:	89 c2                	mov    %eax,%edx
   13537:	48 8d 35 0c 67 00 00 	lea    0x670c(%rip),%rsi        # 19c4a <g_427+0x4bf2>
   1353e:	48 89 cf             	mov    %rcx,%rdi
   13541:	e8 cd 51 ff ff       	callq  8713 <transparent_crc>
   13546:	0f b7 05 6b 9e 00 00 	movzwl 0x9e6b(%rip),%eax        # 1d3b8 <g_1038>
   1354d:	0f b7 c0             	movzwl %ax,%eax
   13550:	8b 55 f4             	mov    -0xc(%rbp),%edx
   13553:	48 8d 35 f6 66 00 00 	lea    0x66f6(%rip),%rsi        # 19c50 <g_427+0x4bf8>
   1355a:	48 89 c7             	mov    %rax,%rdi
   1355d:	e8 b1 51 ff ff       	callq  8713 <transparent_crc>
   13562:	c7 45 e8 00 00 00 00 	movl   $0x0,-0x18(%rbp)
   13569:	e9 a4 00 00 00       	jmpq   13612 <main+0x1214>
   1356e:	c7 45 ec 00 00 00 00 	movl   $0x0,-0x14(%rbp)
   13575:	e9 8a 00 00 00       	jmpq   13604 <main+0x1206>
   1357a:	c7 45 f0 00 00 00 00 	movl   $0x0,-0x10(%rbp)
   13581:	eb 77                	jmp    135fa <main+0x11fc>
   13583:	8b 45 f0             	mov    -0x10(%rbp),%eax
   13586:	48 63 c8             	movslq %eax,%rcx
   13589:	8b 45 e8             	mov    -0x18(%rbp),%eax
   1358c:	48 63 d0             	movslq %eax,%rdx
   1358f:	8b 45 ec             	mov    -0x14(%rbp),%eax
   13592:	48 63 f0             	movslq %eax,%rsi
   13595:	48 89 d0             	mov    %rdx,%rax
   13598:	48 c1 e0 02          	shl    $0x2,%rax
   1359c:	48 01 d0             	add    %rdx,%rax
   1359f:	48 01 c0             	add    %rax,%rax
   135a2:	48 01 f0             	add    %rsi,%rax
   135a5:	48 c1 e0 02          	shl    $0x2,%rax
   135a9:	48 01 c8             	add    %rcx,%rax
   135ac:	48 8d 14 85 00 00 00 	lea    0x0(,%rax,4),%rdx
   135b3:	00 
   135b4:	48 8d 05 05 9e 00 00 	lea    0x9e05(%rip),%rax        # 1d3c0 <g_1168>
   135bb:	8b 04 02             	mov    (%rdx,%rax,1),%eax
   135be:	89 c1                	mov    %eax,%ecx
   135c0:	8b 45 f4             	mov    -0xc(%rbp),%eax
   135c3:	89 c2                	mov    %eax,%edx
   135c5:	48 8d 35 8b 66 00 00 	lea    0x668b(%rip),%rsi        # 19c57 <g_427+0x4bff>
   135cc:	48 89 cf             	mov    %rcx,%rdi
   135cf:	e8 3f 51 ff ff       	callq  8713 <transparent_crc>
   135d4:	83 7d f4 00          	cmpl   $0x0,-0xc(%rbp)
   135d8:	74 1c                	je     135f6 <main+0x11f8>
   135da:	8b 4d f0             	mov    -0x10(%rbp),%ecx
   135dd:	8b 55 ec             	mov    -0x14(%rbp),%edx
   135e0:	8b 45 e8             	mov    -0x18(%rbp),%eax
   135e3:	89 c6                	mov    %eax,%esi
   135e5:	48 8d 3d 28 62 00 00 	lea    0x6228(%rip),%rdi        # 19814 <g_427+0x47bc>
   135ec:	b8 00 00 00 00       	mov    $0x0,%eax
   135f1:	e8 9a 3a ff ff       	callq  7090 <printf@plt>
   135f6:	83 45 f0 01          	addl   $0x1,-0x10(%rbp)
   135fa:	83 7d f0 03          	cmpl   $0x3,-0x10(%rbp)
   135fe:	7e 83                	jle    13583 <main+0x1185>
   13600:	83 45 ec 01          	addl   $0x1,-0x14(%rbp)
   13604:	83 7d ec 09          	cmpl   $0x9,-0x14(%rbp)
   13608:	0f 8e 6c ff ff ff    	jle    1357a <main+0x117c>
   1360e:	83 45 e8 01          	addl   $0x1,-0x18(%rbp)
   13612:	83 7d e8 05          	cmpl   $0x5,-0x18(%rbp)
   13616:	0f 8e 52 ff ff ff    	jle    1356e <main+0x1170>
   1361c:	8b 05 36 db 00 00    	mov    0xdb36(%rip),%eax        # 21158 <g_1216>
   13622:	48 98                	cltq   
   13624:	8b 55 f4             	mov    -0xc(%rbp),%edx
   13627:	48 8d 35 39 66 00 00 	lea    0x6639(%rip),%rsi        # 19c67 <g_427+0x4c0f>
   1362e:	48 89 c7             	mov    %rax,%rdi
   13631:	e8 dd 50 ff ff       	callq  8713 <transparent_crc>
   13636:	8b 05 44 a1 00 00    	mov    0xa144(%rip),%eax        # 1d780 <g_1218>
   1363c:	89 c1                	mov    %eax,%ecx
   1363e:	8b 45 f4             	mov    -0xc(%rbp),%eax
   13641:	89 c2                	mov    %eax,%edx
   13643:	48 8d 35 24 66 00 00 	lea    0x6624(%rip),%rsi        # 19c6e <g_427+0x4c16>
   1364a:	48 89 cf             	mov    %rcx,%rdi
   1364d:	e8 c1 50 ff ff       	callq  8713 <transparent_crc>
   13652:	0f b6 05 2b a1 00 00 	movzbl 0xa12b(%rip),%eax        # 1d784 <g_1224>
   13659:	0f b6 c0             	movzbl %al,%eax
   1365c:	8b 55 f4             	mov    -0xc(%rbp),%edx
   1365f:	48 8d 35 0f 66 00 00 	lea    0x660f(%rip),%rsi        # 19c75 <g_427+0x4c1d>
   13666:	48 89 c7             	mov    %rax,%rdi
   13669:	e8 a5 50 ff ff       	callq  8713 <transparent_crc>
   1366e:	8b 05 2c a1 00 00    	mov    0xa12c(%rip),%eax        # 1d7a0 <g_1261>
   13674:	48 98                	cltq   
   13676:	8b 55 f4             	mov    -0xc(%rbp),%edx
   13679:	48 8d 35 fc 65 00 00 	lea    0x65fc(%rip),%rsi        # 19c7c <g_427+0x4c24>
   13680:	48 89 c7             	mov    %rax,%rdi
   13683:	e8 8b 50 ff ff       	callq  8713 <transparent_crc>
   13688:	0f b6 05 15 a1 00 00 	movzbl 0xa115(%rip),%eax        # 1d7a4 <g_1261+0x4>
   1368f:	48 0f be c0          	movsbq %al,%rax
   13693:	8b 55 f4             	mov    -0xc(%rbp),%edx
   13696:	48 8d 35 ec 65 00 00 	lea    0x65ec(%rip),%rsi        # 19c89 <g_427+0x4c31>
   1369d:	48 89 c7             	mov    %rax,%rdi
   136a0:	e8 6e 50 ff ff       	callq  8713 <transparent_crc>
   136a5:	48 8b 05 fc a0 00 00 	mov    0xa0fc(%rip),%rax        # 1d7a8 <g_1261+0x8>
   136ac:	8b 55 f4             	mov    -0xc(%rbp),%edx
   136af:	48 8d 35 e0 65 00 00 	lea    0x65e0(%rip),%rsi        # 19c96 <g_427+0x4c3e>
   136b6:	48 89 c7             	mov    %rax,%rdi
   136b9:	e8 55 50 ff ff       	callq  8713 <transparent_crc>
   136be:	8b 05 ec a0 00 00    	mov    0xa0ec(%rip),%eax        # 1d7b0 <g_1261+0x10>
   136c4:	89 c1                	mov    %eax,%ecx
   136c6:	8b 45 f4             	mov    -0xc(%rbp),%eax
   136c9:	89 c2                	mov    %eax,%edx
   136cb:	48 8d 35 d1 65 00 00 	lea    0x65d1(%rip),%rsi        # 19ca3 <g_427+0x4c4b>
   136d2:	48 89 cf             	mov    %rcx,%rdi
   136d5:	e8 39 50 ff ff       	callq  8713 <transparent_crc>
   136da:	0f b6 05 d3 a0 00 00 	movzbl 0xa0d3(%rip),%eax        # 1d7b4 <g_1261+0x14>
   136e1:	0f b6 c0             	movzbl %al,%eax
   136e4:	8b 55 f4             	mov    -0xc(%rbp),%edx
   136e7:	48 8d 35 c2 65 00 00 	lea    0x65c2(%rip),%rsi        # 19cb0 <g_427+0x4c58>
   136ee:	48 89 c7             	mov    %rax,%rdi
   136f1:	e8 1d 50 ff ff       	callq  8713 <transparent_crc>
   136f6:	8b 05 bc a0 00 00    	mov    0xa0bc(%rip),%eax        # 1d7b8 <g_1261+0x18>
   136fc:	89 c1                	mov    %eax,%ecx
   136fe:	8b 45 f4             	mov    -0xc(%rbp),%eax
   13701:	89 c2                	mov    %eax,%edx
   13703:	48 8d 35 b3 65 00 00 	lea    0x65b3(%rip),%rsi        # 19cbd <g_427+0x4c65>
   1370a:	48 89 cf             	mov    %rcx,%rdi
   1370d:	e8 01 50 ff ff       	callq  8713 <transparent_crc>
   13712:	0f b7 05 a3 a0 00 00 	movzwl 0xa0a3(%rip),%eax        # 1d7bc <g_1261+0x1c>
   13719:	48 0f bf c0          	movswq %ax,%rax
   1371d:	8b 55 f4             	mov    -0xc(%rbp),%edx
   13720:	48 8d 35 a3 65 00 00 	lea    0x65a3(%rip),%rsi        # 19cca <g_427+0x4c72>
   13727:	48 89 c7             	mov    %rax,%rdi
   1372a:	e8 e4 4f ff ff       	callq  8713 <transparent_crc>
   1372f:	8b 05 8b a0 00 00    	mov    0xa08b(%rip),%eax        # 1d7c0 <g_1261+0x20>
   13735:	89 c1                	mov    %eax,%ecx
   13737:	8b 45 f4             	mov    -0xc(%rbp),%eax
   1373a:	89 c2                	mov    %eax,%edx
   1373c:	48 8d 35 94 65 00 00 	lea    0x6594(%rip),%rsi        # 19cd7 <g_427+0x4c7f>
   13743:	48 89 cf             	mov    %rcx,%rdi
   13746:	e8 c8 4f ff ff       	callq  8713 <transparent_crc>
   1374b:	0f b6 05 72 a0 00 00 	movzbl 0xa072(%rip),%eax        # 1d7c4 <g_1261+0x24>
   13752:	0f b6 c0             	movzbl %al,%eax
   13755:	8b 55 f4             	mov    -0xc(%rbp),%edx
   13758:	48 8d 35 85 65 00 00 	lea    0x6585(%rip),%rsi        # 19ce4 <g_427+0x4c8c>
   1375f:	48 89 c7             	mov    %rax,%rdi
   13762:	e8 ac 4f ff ff       	callq  8713 <transparent_crc>
   13767:	0f b6 05 57 a0 00 00 	movzbl 0xa057(%rip),%eax        # 1d7c5 <g_1261+0x25>
   1376e:	0f b6 c0             	movzbl %al,%eax
   13771:	8b 55 f4             	mov    -0xc(%rbp),%edx
   13774:	48 8d 35 76 65 00 00 	lea    0x6576(%rip),%rsi        # 19cf1 <g_427+0x4c99>
   1377b:	48 89 c7             	mov    %rax,%rdi
   1377e:	e8 90 4f ff ff       	callq  8713 <transparent_crc>
   13783:	0f b7 05 3e a0 00 00 	movzwl 0xa03e(%rip),%eax        # 1d7c8 <g_1331>
   1378a:	0f b7 c0             	movzwl %ax,%eax
   1378d:	8b 55 f4             	mov    -0xc(%rbp),%edx
   13790:	48 8d 35 67 65 00 00 	lea    0x6567(%rip),%rsi        # 19cfe <g_427+0x4ca6>
   13797:	48 89 c7             	mov    %rax,%rdi
   1379a:	e8 74 4f ff ff       	callq  8713 <transparent_crc>
   1379f:	8b 05 b7 d9 00 00    	mov    0xd9b7(%rip),%eax        # 2115c <g_1353>
   137a5:	48 98                	cltq   
   137a7:	8b 55 f4             	mov    -0xc(%rbp),%edx
   137aa:	48 8d 35 54 65 00 00 	lea    0x6554(%rip),%rsi        # 19d05 <g_427+0x4cad>
   137b1:	48 89 c7             	mov    %rax,%rdi
   137b4:	e8 5a 4f ff ff       	callq  8713 <transparent_crc>
   137b9:	8b 05 21 a0 00 00    	mov    0xa021(%rip),%eax        # 1d7e0 <g_1367>
   137bf:	48 98                	cltq   
   137c1:	8b 55 f4             	mov    -0xc(%rbp),%edx
   137c4:	48 8d 35 41 65 00 00 	lea    0x6541(%rip),%rsi        # 19d0c <g_427+0x4cb4>
   137cb:	48 89 c7             	mov    %rax,%rdi
   137ce:	e8 40 4f ff ff       	callq  8713 <transparent_crc>
   137d3:	0f b6 05 0a a0 00 00 	movzbl 0xa00a(%rip),%eax        # 1d7e4 <g_1367+0x4>
   137da:	48 0f be c0          	movsbq %al,%rax
   137de:	8b 55 f4             	mov    -0xc(%rbp),%edx
   137e1:	48 8d 35 31 65 00 00 	lea    0x6531(%rip),%rsi        # 19d19 <g_427+0x4cc1>
   137e8:	48 89 c7             	mov    %rax,%rdi
   137eb:	e8 23 4f ff ff       	callq  8713 <transparent_crc>
   137f0:	48 8b 05 f1 9f 00 00 	mov    0x9ff1(%rip),%rax        # 1d7e8 <g_1367+0x8>
   137f7:	8b 55 f4             	mov    -0xc(%rbp),%edx
   137fa:	48 8d 35 25 65 00 00 	lea    0x6525(%rip),%rsi        # 19d26 <g_427+0x4cce>
   13801:	48 89 c7             	mov    %rax,%rdi
   13804:	e8 0a 4f ff ff       	callq  8713 <transparent_crc>
   13809:	8b 05 e1 9f 00 00    	mov    0x9fe1(%rip),%eax        # 1d7f0 <g_1367+0x10>
   1380f:	89 c1                	mov    %eax,%ecx
   13811:	8b 45 f4             	mov    -0xc(%rbp),%eax
   13814:	89 c2                	mov    %eax,%edx
   13816:	48 8d 35 16 65 00 00 	lea    0x6516(%rip),%rsi        # 19d33 <g_427+0x4cdb>
   1381d:	48 89 cf             	mov    %rcx,%rdi
   13820:	e8 ee 4e ff ff       	callq  8713 <transparent_crc>
   13825:	0f b6 05 c8 9f 00 00 	movzbl 0x9fc8(%rip),%eax        # 1d7f4 <g_1367+0x14>
   1382c:	0f b6 c0             	movzbl %al,%eax
   1382f:	8b 55 f4             	mov    -0xc(%rbp),%edx
   13832:	48 8d 35 07 65 00 00 	lea    0x6507(%rip),%rsi        # 19d40 <g_427+0x4ce8>
   13839:	48 89 c7             	mov    %rax,%rdi
   1383c:	e8 d2 4e ff ff       	callq  8713 <transparent_crc>
   13841:	8b 05 b1 9f 00 00    	mov    0x9fb1(%rip),%eax        # 1d7f8 <g_1367+0x18>
   13847:	89 c1                	mov    %eax,%ecx
   13849:	8b 45 f4             	mov    -0xc(%rbp),%eax
   1384c:	89 c2                	mov    %eax,%edx
   1384e:	48 8d 35 f8 64 00 00 	lea    0x64f8(%rip),%rsi        # 19d4d <g_427+0x4cf5>
   13855:	48 89 cf             	mov    %rcx,%rdi
   13858:	e8 b6 4e ff ff       	callq  8713 <transparent_crc>
   1385d:	0f b7 05 98 9f 00 00 	movzwl 0x9f98(%rip),%eax        # 1d7fc <g_1367+0x1c>
   13864:	48 0f bf c0          	movswq %ax,%rax
   13868:	8b 55 f4             	mov    -0xc(%rbp),%edx
   1386b:	48 8d 35 e8 64 00 00 	lea    0x64e8(%rip),%rsi        # 19d5a <g_427+0x4d02>
   13872:	48 89 c7             	mov    %rax,%rdi
   13875:	e8 99 4e ff ff       	callq  8713 <transparent_crc>
   1387a:	8b 05 80 9f 00 00    	mov    0x9f80(%rip),%eax        # 1d800 <g_1367+0x20>
   13880:	89 c1                	mov    %eax,%ecx
   13882:	8b 45 f4             	mov    -0xc(%rbp),%eax
   13885:	89 c2                	mov    %eax,%edx
   13887:	48 8d 35 d9 64 00 00 	lea    0x64d9(%rip),%rsi        # 19d67 <g_427+0x4d0f>
   1388e:	48 89 cf             	mov    %rcx,%rdi
   13891:	e8 7d 4e ff ff       	callq  8713 <transparent_crc>
   13896:	0f b6 05 67 9f 00 00 	movzbl 0x9f67(%rip),%eax        # 1d804 <g_1367+0x24>
   1389d:	0f b6 c0             	movzbl %al,%eax
   138a0:	8b 55 f4             	mov    -0xc(%rbp),%edx
   138a3:	48 8d 35 ca 64 00 00 	lea    0x64ca(%rip),%rsi        # 19d74 <g_427+0x4d1c>
   138aa:	48 89 c7             	mov    %rax,%rdi
   138ad:	e8 61 4e ff ff       	callq  8713 <transparent_crc>
   138b2:	0f b6 05 4c 9f 00 00 	movzbl 0x9f4c(%rip),%eax        # 1d805 <g_1367+0x25>
   138b9:	0f b6 c0             	movzbl %al,%eax
   138bc:	8b 55 f4             	mov    -0xc(%rbp),%edx
   138bf:	48 8d 35 bb 64 00 00 	lea    0x64bb(%rip),%rsi        # 19d81 <g_427+0x4d29>
   138c6:	48 89 c7             	mov    %rax,%rdi
   138c9:	e8 45 4e ff ff       	callq  8713 <transparent_crc>
   138ce:	8b 05 34 9f 00 00    	mov    0x9f34(%rip),%eax        # 1d808 <g_1408>
   138d4:	48 98                	cltq   
   138d6:	8b 55 f4             	mov    -0xc(%rbp),%edx
   138d9:	48 8d 35 ae 64 00 00 	lea    0x64ae(%rip),%rsi        # 19d8e <g_427+0x4d36>
   138e0:	48 89 c7             	mov    %rax,%rdi
   138e3:	e8 2b 4e ff ff       	callq  8713 <transparent_crc>
   138e8:	0f b7 05 1d 9f 00 00 	movzwl 0x9f1d(%rip),%eax        # 1d80c <g_1443>
   138ef:	0f b7 c0             	movzwl %ax,%eax
   138f2:	8b 55 f4             	mov    -0xc(%rbp),%edx
   138f5:	48 8d 35 99 64 00 00 	lea    0x6499(%rip),%rsi        # 19d95 <g_427+0x4d3d>
   138fc:	48 89 c7             	mov    %rax,%rdi
   138ff:	e8 0f 4e ff ff       	callq  8713 <transparent_crc>
   13904:	0f b7 05 03 9f 00 00 	movzwl 0x9f03(%rip),%eax        # 1d80e <g_1590>
   1390b:	48 0f bf c0          	movswq %ax,%rax
   1390f:	8b 55 f4             	mov    -0xc(%rbp),%edx
   13912:	48 8d 35 83 64 00 00 	lea    0x6483(%rip),%rsi        # 19d9c <g_427+0x4d44>
   13919:	48 89 c7             	mov    %rax,%rdi
   1391c:	e8 f2 4d ff ff       	callq  8713 <transparent_crc>
   13921:	0f b7 05 e8 9e 00 00 	movzwl 0x9ee8(%rip),%eax        # 1d810 <g_1701>
   13928:	48 0f bf c0          	movswq %ax,%rax
   1392c:	8b 55 f4             	mov    -0xc(%rbp),%edx
   1392f:	48 8d 35 6d 64 00 00 	lea    0x646d(%rip),%rsi        # 19da3 <g_427+0x4d4b>
   13936:	48 89 c7             	mov    %rax,%rdi
   13939:	e8 d5 4d ff ff       	callq  8713 <transparent_crc>
   1393e:	0f b6 05 cd 9e 00 00 	movzbl 0x9ecd(%rip),%eax        # 1d812 <g_1702>
   13945:	0f b6 c0             	movzbl %al,%eax
   13948:	8b 55 f4             	mov    -0xc(%rbp),%edx
   1394b:	48 8d 35 58 64 00 00 	lea    0x6458(%rip),%rsi        # 19daa <g_427+0x4d52>
   13952:	48 89 c7             	mov    %rax,%rdi
   13955:	e8 b9 4d ff ff       	callq  8713 <transparent_crc>
   1395a:	8b 05 c0 9e 00 00    	mov    0x9ec0(%rip),%eax        # 1d820 <g_1757>
   13960:	48 98                	cltq   
   13962:	8b 55 f4             	mov    -0xc(%rbp),%edx
   13965:	48 8d 35 45 64 00 00 	lea    0x6445(%rip),%rsi        # 19db1 <g_427+0x4d59>
   1396c:	48 89 c7             	mov    %rax,%rdi
   1396f:	e8 9f 4d ff ff       	callq  8713 <transparent_crc>
   13974:	0f b6 05 a9 9e 00 00 	movzbl 0x9ea9(%rip),%eax        # 1d824 <g_1757+0x4>
   1397b:	48 0f be c0          	movsbq %al,%rax
   1397f:	8b 55 f4             	mov    -0xc(%rbp),%edx
   13982:	48 8d 35 35 64 00 00 	lea    0x6435(%rip),%rsi        # 19dbe <g_427+0x4d66>
   13989:	48 89 c7             	mov    %rax,%rdi
   1398c:	e8 82 4d ff ff       	callq  8713 <transparent_crc>
   13991:	48 8b 05 90 9e 00 00 	mov    0x9e90(%rip),%rax        # 1d828 <g_1757+0x8>
   13998:	8b 55 f4             	mov    -0xc(%rbp),%edx
   1399b:	48 8d 35 29 64 00 00 	lea    0x6429(%rip),%rsi        # 19dcb <g_427+0x4d73>
   139a2:	48 89 c7             	mov    %rax,%rdi
   139a5:	e8 69 4d ff ff       	callq  8713 <transparent_crc>
   139aa:	8b 05 80 9e 00 00    	mov    0x9e80(%rip),%eax        # 1d830 <g_1757+0x10>
   139b0:	89 c1                	mov    %eax,%ecx
   139b2:	8b 45 f4             	mov    -0xc(%rbp),%eax
   139b5:	89 c2                	mov    %eax,%edx
   139b7:	48 8d 35 1a 64 00 00 	lea    0x641a(%rip),%rsi        # 19dd8 <g_427+0x4d80>
   139be:	48 89 cf             	mov    %rcx,%rdi
   139c1:	e8 4d 4d ff ff       	callq  8713 <transparent_crc>
   139c6:	0f b6 05 67 9e 00 00 	movzbl 0x9e67(%rip),%eax        # 1d834 <g_1757+0x14>
   139cd:	0f b6 c0             	movzbl %al,%eax
   139d0:	8b 55 f4             	mov    -0xc(%rbp),%edx
   139d3:	48 8d 35 0b 64 00 00 	lea    0x640b(%rip),%rsi        # 19de5 <g_427+0x4d8d>
   139da:	48 89 c7             	mov    %rax,%rdi
   139dd:	e8 31 4d ff ff       	callq  8713 <transparent_crc>
   139e2:	8b 05 50 9e 00 00    	mov    0x9e50(%rip),%eax        # 1d838 <g_1757+0x18>
   139e8:	89 c1                	mov    %eax,%ecx
   139ea:	8b 45 f4             	mov    -0xc(%rbp),%eax
   139ed:	89 c2                	mov    %eax,%edx
   139ef:	48 8d 35 fc 63 00 00 	lea    0x63fc(%rip),%rsi        # 19df2 <g_427+0x4d9a>
   139f6:	48 89 cf             	mov    %rcx,%rdi
   139f9:	e8 15 4d ff ff       	callq  8713 <transparent_crc>
   139fe:	0f b7 05 37 9e 00 00 	movzwl 0x9e37(%rip),%eax        # 1d83c <g_1757+0x1c>
   13a05:	48 0f bf c0          	movswq %ax,%rax
   13a09:	8b 55 f4             	mov    -0xc(%rbp),%edx
   13a0c:	48 8d 35 ec 63 00 00 	lea    0x63ec(%rip),%rsi        # 19dff <g_427+0x4da7>
   13a13:	48 89 c7             	mov    %rax,%rdi
   13a16:	e8 f8 4c ff ff       	callq  8713 <transparent_crc>
   13a1b:	8b 05 1f 9e 00 00    	mov    0x9e1f(%rip),%eax        # 1d840 <g_1757+0x20>
   13a21:	89 c1                	mov    %eax,%ecx
   13a23:	8b 45 f4             	mov    -0xc(%rbp),%eax
   13a26:	89 c2                	mov    %eax,%edx
   13a28:	48 8d 35 dd 63 00 00 	lea    0x63dd(%rip),%rsi        # 19e0c <g_427+0x4db4>
   13a2f:	48 89 cf             	mov    %rcx,%rdi
   13a32:	e8 dc 4c ff ff       	callq  8713 <transparent_crc>
   13a37:	0f b6 05 06 9e 00 00 	movzbl 0x9e06(%rip),%eax        # 1d844 <g_1757+0x24>
   13a3e:	0f b6 c0             	movzbl %al,%eax
   13a41:	8b 55 f4             	mov    -0xc(%rbp),%edx
   13a44:	48 8d 35 ce 63 00 00 	lea    0x63ce(%rip),%rsi        # 19e19 <g_427+0x4dc1>
   13a4b:	48 89 c7             	mov    %rax,%rdi
   13a4e:	e8 c0 4c ff ff       	callq  8713 <transparent_crc>
   13a53:	0f b6 05 eb 9d 00 00 	movzbl 0x9deb(%rip),%eax        # 1d845 <g_1757+0x25>
   13a5a:	0f b6 c0             	movzbl %al,%eax
   13a5d:	8b 55 f4             	mov    -0xc(%rbp),%edx
   13a60:	48 8d 35 bf 63 00 00 	lea    0x63bf(%rip),%rsi        # 19e26 <g_427+0x4dce>
   13a67:	48 89 c7             	mov    %rax,%rdi
   13a6a:	e8 a4 4c ff ff       	callq  8713 <transparent_crc>
   13a6f:	8b 05 eb 9d 00 00    	mov    0x9deb(%rip),%eax        # 1d860 <g_1759>
   13a75:	48 98                	cltq   
   13a77:	8b 55 f4             	mov    -0xc(%rbp),%edx
   13a7a:	48 8d 35 b2 63 00 00 	lea    0x63b2(%rip),%rsi        # 19e33 <g_427+0x4ddb>
   13a81:	48 89 c7             	mov    %rax,%rdi
   13a84:	e8 8a 4c ff ff       	callq  8713 <transparent_crc>
   13a89:	0f b6 05 d4 9d 00 00 	movzbl 0x9dd4(%rip),%eax        # 1d864 <g_1759+0x4>
   13a90:	48 0f be c0          	movsbq %al,%rax
   13a94:	8b 55 f4             	mov    -0xc(%rbp),%edx
   13a97:	48 8d 35 a2 63 00 00 	lea    0x63a2(%rip),%rsi        # 19e40 <g_427+0x4de8>
   13a9e:	48 89 c7             	mov    %rax,%rdi
   13aa1:	e8 6d 4c ff ff       	callq  8713 <transparent_crc>
   13aa6:	48 8b 05 bb 9d 00 00 	mov    0x9dbb(%rip),%rax        # 1d868 <g_1759+0x8>
   13aad:	8b 55 f4             	mov    -0xc(%rbp),%edx
   13ab0:	48 8d 35 96 63 00 00 	lea    0x6396(%rip),%rsi        # 19e4d <g_427+0x4df5>
   13ab7:	48 89 c7             	mov    %rax,%rdi
   13aba:	e8 54 4c ff ff       	callq  8713 <transparent_crc>
   13abf:	8b 05 ab 9d 00 00    	mov    0x9dab(%rip),%eax        # 1d870 <g_1759+0x10>
   13ac5:	89 c1                	mov    %eax,%ecx
   13ac7:	8b 45 f4             	mov    -0xc(%rbp),%eax
   13aca:	89 c2                	mov    %eax,%edx
   13acc:	48 8d 35 87 63 00 00 	lea    0x6387(%rip),%rsi        # 19e5a <g_427+0x4e02>
   13ad3:	48 89 cf             	mov    %rcx,%rdi
   13ad6:	e8 38 4c ff ff       	callq  8713 <transparent_crc>
   13adb:	0f b6 05 92 9d 00 00 	movzbl 0x9d92(%rip),%eax        # 1d874 <g_1759+0x14>
   13ae2:	0f b6 c0             	movzbl %al,%eax
   13ae5:	8b 55 f4             	mov    -0xc(%rbp),%edx
   13ae8:	48 8d 35 78 63 00 00 	lea    0x6378(%rip),%rsi        # 19e67 <g_427+0x4e0f>
   13aef:	48 89 c7             	mov    %rax,%rdi
   13af2:	e8 1c 4c ff ff       	callq  8713 <transparent_crc>
   13af7:	8b 05 7b 9d 00 00    	mov    0x9d7b(%rip),%eax        # 1d878 <g_1759+0x18>
   13afd:	89 c1                	mov    %eax,%ecx
   13aff:	8b 45 f4             	mov    -0xc(%rbp),%eax
   13b02:	89 c2                	mov    %eax,%edx
   13b04:	48 8d 35 69 63 00 00 	lea    0x6369(%rip),%rsi        # 19e74 <g_427+0x4e1c>
   13b0b:	48 89 cf             	mov    %rcx,%rdi
   13b0e:	e8 00 4c ff ff       	callq  8713 <transparent_crc>
   13b13:	0f b7 05 62 9d 00 00 	movzwl 0x9d62(%rip),%eax        # 1d87c <g_1759+0x1c>
   13b1a:	48 0f bf c0          	movswq %ax,%rax
   13b1e:	8b 55 f4             	mov    -0xc(%rbp),%edx
   13b21:	48 8d 35 59 63 00 00 	lea    0x6359(%rip),%rsi        # 19e81 <g_427+0x4e29>
   13b28:	48 89 c7             	mov    %rax,%rdi
   13b2b:	e8 e3 4b ff ff       	callq  8713 <transparent_crc>
   13b30:	8b 05 4a 9d 00 00    	mov    0x9d4a(%rip),%eax        # 1d880 <g_1759+0x20>
   13b36:	89 c1                	mov    %eax,%ecx
   13b38:	8b 45 f4             	mov    -0xc(%rbp),%eax
   13b3b:	89 c2                	mov    %eax,%edx
   13b3d:	48 8d 35 4a 63 00 00 	lea    0x634a(%rip),%rsi        # 19e8e <g_427+0x4e36>
   13b44:	48 89 cf             	mov    %rcx,%rdi
   13b47:	e8 c7 4b ff ff       	callq  8713 <transparent_crc>
   13b4c:	0f b6 05 31 9d 00 00 	movzbl 0x9d31(%rip),%eax        # 1d884 <g_1759+0x24>
   13b53:	0f b6 c0             	movzbl %al,%eax
   13b56:	8b 55 f4             	mov    -0xc(%rbp),%edx
   13b59:	48 8d 35 3b 63 00 00 	lea    0x633b(%rip),%rsi        # 19e9b <g_427+0x4e43>
   13b60:	48 89 c7             	mov    %rax,%rdi
   13b63:	e8 ab 4b ff ff       	callq  8713 <transparent_crc>
   13b68:	0f b6 05 16 9d 00 00 	movzbl 0x9d16(%rip),%eax        # 1d885 <g_1759+0x25>
   13b6f:	0f b6 c0             	movzbl %al,%eax
   13b72:	8b 55 f4             	mov    -0xc(%rbp),%edx
   13b75:	48 8d 35 2c 63 00 00 	lea    0x632c(%rip),%rsi        # 19ea8 <g_427+0x4e50>
   13b7c:	48 89 c7             	mov    %rax,%rdi
   13b7f:	e8 8f 4b ff ff       	callq  8713 <transparent_crc>
   13b84:	8b 05 16 9d 00 00    	mov    0x9d16(%rip),%eax        # 1d8a0 <g_1928>
   13b8a:	48 98                	cltq   
   13b8c:	8b 55 f4             	mov    -0xc(%rbp),%edx
   13b8f:	48 8d 35 1f 63 00 00 	lea    0x631f(%rip),%rsi        # 19eb5 <g_427+0x4e5d>
   13b96:	48 89 c7             	mov    %rax,%rdi
   13b99:	e8 75 4b ff ff       	callq  8713 <transparent_crc>
   13b9e:	0f b6 05 ff 9c 00 00 	movzbl 0x9cff(%rip),%eax        # 1d8a4 <g_1928+0x4>
   13ba5:	48 0f be c0          	movsbq %al,%rax
   13ba9:	8b 55 f4             	mov    -0xc(%rbp),%edx
   13bac:	48 8d 35 0f 63 00 00 	lea    0x630f(%rip),%rsi        # 19ec2 <g_427+0x4e6a>
   13bb3:	48 89 c7             	mov    %rax,%rdi
   13bb6:	e8 58 4b ff ff       	callq  8713 <transparent_crc>
   13bbb:	48 8b 05 e6 9c 00 00 	mov    0x9ce6(%rip),%rax        # 1d8a8 <g_1928+0x8>
   13bc2:	8b 55 f4             	mov    -0xc(%rbp),%edx
   13bc5:	48 8d 35 03 63 00 00 	lea    0x6303(%rip),%rsi        # 19ecf <g_427+0x4e77>
   13bcc:	48 89 c7             	mov    %rax,%rdi
   13bcf:	e8 3f 4b ff ff       	callq  8713 <transparent_crc>
   13bd4:	8b 05 d6 9c 00 00    	mov    0x9cd6(%rip),%eax        # 1d8b0 <g_1928+0x10>
   13bda:	89 c1                	mov    %eax,%ecx
   13bdc:	8b 45 f4             	mov    -0xc(%rbp),%eax
   13bdf:	89 c2                	mov    %eax,%edx
   13be1:	48 8d 35 f4 62 00 00 	lea    0x62f4(%rip),%rsi        # 19edc <g_427+0x4e84>
   13be8:	48 89 cf             	mov    %rcx,%rdi
   13beb:	e8 23 4b ff ff       	callq  8713 <transparent_crc>
   13bf0:	0f b6 05 bd 9c 00 00 	movzbl 0x9cbd(%rip),%eax        # 1d8b4 <g_1928+0x14>
   13bf7:	0f b6 c0             	movzbl %al,%eax
   13bfa:	8b 55 f4             	mov    -0xc(%rbp),%edx
   13bfd:	48 8d 35 e5 62 00 00 	lea    0x62e5(%rip),%rsi        # 19ee9 <g_427+0x4e91>
   13c04:	48 89 c7             	mov    %rax,%rdi
   13c07:	e8 07 4b ff ff       	callq  8713 <transparent_crc>
   13c0c:	8b 05 a6 9c 00 00    	mov    0x9ca6(%rip),%eax        # 1d8b8 <g_1928+0x18>
   13c12:	89 c1                	mov    %eax,%ecx
   13c14:	8b 45 f4             	mov    -0xc(%rbp),%eax
   13c17:	89 c2                	mov    %eax,%edx
   13c19:	48 8d 35 d6 62 00 00 	lea    0x62d6(%rip),%rsi        # 19ef6 <g_427+0x4e9e>
   13c20:	48 89 cf             	mov    %rcx,%rdi
   13c23:	e8 eb 4a ff ff       	callq  8713 <transparent_crc>
   13c28:	0f b7 05 8d 9c 00 00 	movzwl 0x9c8d(%rip),%eax        # 1d8bc <g_1928+0x1c>
   13c2f:	48 0f bf c0          	movswq %ax,%rax
   13c33:	8b 55 f4             	mov    -0xc(%rbp),%edx
   13c36:	48 8d 35 c6 62 00 00 	lea    0x62c6(%rip),%rsi        # 19f03 <g_427+0x4eab>
   13c3d:	48 89 c7             	mov    %rax,%rdi
   13c40:	e8 ce 4a ff ff       	callq  8713 <transparent_crc>
   13c45:	8b 05 75 9c 00 00    	mov    0x9c75(%rip),%eax        # 1d8c0 <g_1928+0x20>
   13c4b:	89 c1                	mov    %eax,%ecx
   13c4d:	8b 45 f4             	mov    -0xc(%rbp),%eax
   13c50:	89 c2                	mov    %eax,%edx
   13c52:	48 8d 35 b7 62 00 00 	lea    0x62b7(%rip),%rsi        # 19f10 <g_427+0x4eb8>
   13c59:	48 89 cf             	mov    %rcx,%rdi
   13c5c:	e8 b2 4a ff ff       	callq  8713 <transparent_crc>
   13c61:	0f b6 05 5c 9c 00 00 	movzbl 0x9c5c(%rip),%eax        # 1d8c4 <g_1928+0x24>
   13c68:	0f b6 c0             	movzbl %al,%eax
   13c6b:	8b 55 f4             	mov    -0xc(%rbp),%edx
   13c6e:	48 8d 35 a8 62 00 00 	lea    0x62a8(%rip),%rsi        # 19f1d <g_427+0x4ec5>
   13c75:	48 89 c7             	mov    %rax,%rdi
   13c78:	e8 96 4a ff ff       	callq  8713 <transparent_crc>
   13c7d:	0f b6 05 41 9c 00 00 	movzbl 0x9c41(%rip),%eax        # 1d8c5 <g_1928+0x25>
   13c84:	0f b6 c0             	movzbl %al,%eax
   13c87:	8b 55 f4             	mov    -0xc(%rbp),%edx
   13c8a:	48 8d 35 99 62 00 00 	lea    0x6299(%rip),%rsi        # 19f2a <g_427+0x4ed2>
   13c91:	48 89 c7             	mov    %rax,%rdi
   13c94:	e8 7a 4a ff ff       	callq  8713 <transparent_crc>
   13c99:	48 8b 05 28 9c 00 00 	mov    0x9c28(%rip),%rax        # 1d8c8 <g_1934>
   13ca0:	48 89 c1             	mov    %rax,%rcx
   13ca3:	8b 45 f4             	mov    -0xc(%rbp),%eax
   13ca6:	89 c2                	mov    %eax,%edx
   13ca8:	48 8d 35 88 62 00 00 	lea    0x6288(%rip),%rsi        # 19f37 <g_427+0x4edf>
   13caf:	48 89 cf             	mov    %rcx,%rdi
   13cb2:	e8 5c 4a ff ff       	callq  8713 <transparent_crc>
   13cb7:	8b 05 13 9c 00 00    	mov    0x9c13(%rip),%eax        # 1d8d0 <g_1974>
   13cbd:	48 98                	cltq   
   13cbf:	8b 55 f4             	mov    -0xc(%rbp),%edx
   13cc2:	48 8d 35 75 62 00 00 	lea    0x6275(%rip),%rsi        # 19f3e <g_427+0x4ee6>
   13cc9:	48 89 c7             	mov    %rax,%rdi
   13ccc:	e8 42 4a ff ff       	callq  8713 <transparent_crc>
   13cd1:	0f b7 05 fc 9b 00 00 	movzwl 0x9bfc(%rip),%eax        # 1d8d4 <g_2002>
   13cd8:	48 0f bf c0          	movswq %ax,%rax
   13cdc:	8b 55 f4             	mov    -0xc(%rbp),%edx
   13cdf:	48 8d 35 5f 62 00 00 	lea    0x625f(%rip),%rsi        # 19f45 <g_427+0x4eed>
   13ce6:	48 89 c7             	mov    %rax,%rdi
   13ce9:	e8 25 4a ff ff       	callq  8713 <transparent_crc>
   13cee:	0f b6 05 7b d4 00 00 	movzbl 0xd47b(%rip),%eax        # 21170 <g_2003>
   13cf5:	0f b6 c0             	movzbl %al,%eax
   13cf8:	8b 55 f4             	mov    -0xc(%rbp),%edx
   13cfb:	48 8d 35 4a 62 00 00 	lea    0x624a(%rip),%rsi        # 19f4c <g_427+0x4ef4>
   13d02:	48 89 c7             	mov    %rax,%rdi
   13d05:	e8 09 4a ff ff       	callq  8713 <transparent_crc>
   13d0a:	c7 45 e8 00 00 00 00 	movl   $0x0,-0x18(%rbp)
   13d11:	e9 b8 00 00 00       	jmpq   13dce <main+0x19d0>
   13d16:	c7 45 ec 00 00 00 00 	movl   $0x0,-0x14(%rbp)
   13d1d:	e9 9e 00 00 00       	jmpq   13dc0 <main+0x19c2>
   13d22:	c7 45 f0 00 00 00 00 	movl   $0x0,-0x10(%rbp)
   13d29:	e9 84 00 00 00       	jmpq   13db2 <main+0x19b4>
   13d2e:	8b 45 f0             	mov    -0x10(%rbp),%eax
   13d31:	48 63 f0             	movslq %eax,%rsi
   13d34:	8b 45 e8             	mov    -0x18(%rbp),%eax
   13d37:	48 98                	cltq   
   13d39:	8b 55 ec             	mov    -0x14(%rbp),%edx
   13d3c:	48 63 ca             	movslq %edx,%rcx
   13d3f:	48 89 c2             	mov    %rax,%rdx
   13d42:	48 c1 e2 03          	shl    $0x3,%rdx
   13d46:	48 01 c2             	add    %rax,%rdx
   13d49:	48 8d 04 12          	lea    (%rdx,%rdx,1),%rax
   13d4d:	48 89 c2             	mov    %rax,%rdx
   13d50:	48 89 c8             	mov    %rcx,%rax
   13d53:	48 01 c0             	add    %rax,%rax
   13d56:	48 01 c8             	add    %rcx,%rax
   13d59:	48 01 c0             	add    %rax,%rax
   13d5c:	48 01 d0             	add    %rdx,%rax
   13d5f:	48 01 f0             	add    %rsi,%rax
   13d62:	48 8d 14 c5 00 00 00 	lea    0x0(,%rax,8),%rdx
   13d69:	00 
   13d6a:	48 8d 05 6f 9b 00 00 	lea    0x9b6f(%rip),%rax        # 1d8e0 <g_2050>
   13d71:	48 8b 04 02          	mov    (%rdx,%rax,1),%rax
   13d75:	48 89 c1             	mov    %rax,%rcx
   13d78:	8b 45 f4             	mov    -0xc(%rbp),%eax
   13d7b:	89 c2                	mov    %eax,%edx
   13d7d:	48 8d 35 cf 61 00 00 	lea    0x61cf(%rip),%rsi        # 19f53 <g_427+0x4efb>
   13d84:	48 89 cf             	mov    %rcx,%rdi
   13d87:	e8 87 49 ff ff       	callq  8713 <transparent_crc>
   13d8c:	83 7d f4 00          	cmpl   $0x0,-0xc(%rbp)
   13d90:	74 1c                	je     13dae <main+0x19b0>
   13d92:	8b 4d f0             	mov    -0x10(%rbp),%ecx
   13d95:	8b 55 ec             	mov    -0x14(%rbp),%edx
   13d98:	8b 45 e8             	mov    -0x18(%rbp),%eax
   13d9b:	89 c6                	mov    %eax,%esi
   13d9d:	48 8d 3d 70 5a 00 00 	lea    0x5a70(%rip),%rdi        # 19814 <g_427+0x47bc>
   13da4:	b8 00 00 00 00       	mov    $0x0,%eax
   13da9:	e8 e2 32 ff ff       	callq  7090 <printf@plt>
   13dae:	83 45 f0 01          	addl   $0x1,-0x10(%rbp)
   13db2:	83 7d f0 05          	cmpl   $0x5,-0x10(%rbp)
   13db6:	0f 8e 72 ff ff ff    	jle    13d2e <main+0x1930>
   13dbc:	83 45 ec 01          	addl   $0x1,-0x14(%rbp)
   13dc0:	83 7d ec 02          	cmpl   $0x2,-0x14(%rbp)
   13dc4:	0f 8e 58 ff ff ff    	jle    13d22 <main+0x1924>
   13dca:	83 45 e8 01          	addl   $0x1,-0x18(%rbp)
   13dce:	83 7d e8 08          	cmpl   $0x8,-0x18(%rbp)
   13dd2:	0f 8e 3e ff ff ff    	jle    13d16 <main+0x1918>
   13dd8:	8b 05 12 a0 00 00    	mov    0xa012(%rip),%eax        # 1ddf0 <g_2250>
   13dde:	48 98                	cltq   
   13de0:	8b 55 f4             	mov    -0xc(%rbp),%edx
   13de3:	48 8d 35 79 61 00 00 	lea    0x6179(%rip),%rsi        # 19f63 <g_427+0x4f0b>
   13dea:	48 89 c7             	mov    %rax,%rdi
   13ded:	e8 21 49 ff ff       	callq  8713 <transparent_crc>
   13df2:	0f b6 05 fb 9f 00 00 	movzbl 0x9ffb(%rip),%eax        # 1ddf4 <g_2251>
   13df9:	48 0f be c0          	movsbq %al,%rax
   13dfd:	8b 55 f4             	mov    -0xc(%rbp),%edx
   13e00:	48 8d 35 63 61 00 00 	lea    0x6163(%rip),%rsi        # 19f6a <g_427+0x4f12>
   13e07:	48 89 c7             	mov    %rax,%rdi
   13e0a:	e8 04 49 ff ff       	callq  8713 <transparent_crc>
   13e0f:	8b 05 e3 9f 00 00    	mov    0x9fe3(%rip),%eax        # 1ddf8 <g_2253>
   13e15:	48 98                	cltq   
   13e17:	8b 55 f4             	mov    -0xc(%rbp),%edx
   13e1a:	48 8d 35 50 61 00 00 	lea    0x6150(%rip),%rsi        # 19f71 <g_427+0x4f19>
   13e21:	48 89 c7             	mov    %rax,%rdi
   13e24:	e8 ea 48 ff ff       	callq  8713 <transparent_crc>
   13e29:	8b 05 cd 9f 00 00    	mov    0x9fcd(%rip),%eax        # 1ddfc <g_2254>
   13e2f:	48 98                	cltq   
   13e31:	8b 55 f4             	mov    -0xc(%rbp),%edx
   13e34:	48 8d 35 3d 61 00 00 	lea    0x613d(%rip),%rsi        # 19f78 <g_427+0x4f20>
   13e3b:	48 89 c7             	mov    %rax,%rdi
   13e3e:	e8 d0 48 ff ff       	callq  8713 <transparent_crc>
   13e43:	c7 45 e8 00 00 00 00 	movl   $0x0,-0x18(%rbp)
   13e4a:	eb 4a                	jmp    13e96 <main+0x1a98>
   13e4c:	8b 45 e8             	mov    -0x18(%rbp),%eax
   13e4f:	48 98                	cltq   
   13e51:	48 8d 14 c5 00 00 00 	lea    0x0(,%rax,8),%rdx
   13e58:	00 
   13e59:	48 8d 05 a0 9f 00 00 	lea    0x9fa0(%rip),%rax        # 1de00 <g_2255>
   13e60:	48 8b 04 02          	mov    (%rdx,%rax,1),%rax
   13e64:	8b 55 f4             	mov    -0xc(%rbp),%edx
   13e67:	48 8d 35 11 61 00 00 	lea    0x6111(%rip),%rsi        # 19f7f <g_427+0x4f27>
   13e6e:	48 89 c7             	mov    %rax,%rdi
   13e71:	e8 9d 48 ff ff       	callq  8713 <transparent_crc>
   13e76:	83 7d f4 00          	cmpl   $0x0,-0xc(%rbp)
   13e7a:	74 16                	je     13e92 <main+0x1a94>
   13e7c:	8b 45 e8             	mov    -0x18(%rbp),%eax
   13e7f:	89 c6                	mov    %eax,%esi
   13e81:	48 8d 3d 60 58 00 00 	lea    0x5860(%rip),%rdi        # 196e8 <g_427+0x4690>
   13e88:	b8 00 00 00 00       	mov    $0x0,%eax
   13e8d:	e8 fe 31 ff ff       	callq  7090 <printf@plt>
   13e92:	83 45 e8 01          	addl   $0x1,-0x18(%rbp)
   13e96:	83 7d e8 08          	cmpl   $0x8,-0x18(%rbp)
   13e9a:	7e b0                	jle    13e4c <main+0x1a4e>
   13e9c:	8b 05 be 9f 00 00    	mov    0x9fbe(%rip),%eax        # 1de60 <g_2486>
   13ea2:	48 98                	cltq   
   13ea4:	8b 55 f4             	mov    -0xc(%rbp),%edx
   13ea7:	48 8d 35 db 60 00 00 	lea    0x60db(%rip),%rsi        # 19f89 <g_427+0x4f31>
   13eae:	48 89 c7             	mov    %rax,%rdi
   13eb1:	e8 5d 48 ff ff       	callq  8713 <transparent_crc>
   13eb6:	0f b6 05 a7 9f 00 00 	movzbl 0x9fa7(%rip),%eax        # 1de64 <g_2486+0x4>
   13ebd:	48 0f be c0          	movsbq %al,%rax
   13ec1:	8b 55 f4             	mov    -0xc(%rbp),%edx
   13ec4:	48 8d 35 cb 60 00 00 	lea    0x60cb(%rip),%rsi        # 19f96 <g_427+0x4f3e>
   13ecb:	48 89 c7             	mov    %rax,%rdi
   13ece:	e8 40 48 ff ff       	callq  8713 <transparent_crc>
   13ed3:	48 8b 05 8e 9f 00 00 	mov    0x9f8e(%rip),%rax        # 1de68 <g_2486+0x8>
   13eda:	8b 55 f4             	mov    -0xc(%rbp),%edx
   13edd:	48 8d 35 bf 60 00 00 	lea    0x60bf(%rip),%rsi        # 19fa3 <g_427+0x4f4b>
   13ee4:	48 89 c7             	mov    %rax,%rdi
   13ee7:	e8 27 48 ff ff       	callq  8713 <transparent_crc>
   13eec:	8b 05 7e 9f 00 00    	mov    0x9f7e(%rip),%eax        # 1de70 <g_2486+0x10>
   13ef2:	89 c1                	mov    %eax,%ecx
   13ef4:	8b 45 f4             	mov    -0xc(%rbp),%eax
   13ef7:	89 c2                	mov    %eax,%edx
   13ef9:	48 8d 35 b0 60 00 00 	lea    0x60b0(%rip),%rsi        # 19fb0 <g_427+0x4f58>
   13f00:	48 89 cf             	mov    %rcx,%rdi
   13f03:	e8 0b 48 ff ff       	callq  8713 <transparent_crc>
   13f08:	0f b6 05 65 9f 00 00 	movzbl 0x9f65(%rip),%eax        # 1de74 <g_2486+0x14>
   13f0f:	0f b6 c0             	movzbl %al,%eax
   13f12:	8b 55 f4             	mov    -0xc(%rbp),%edx
   13f15:	48 8d 35 a1 60 00 00 	lea    0x60a1(%rip),%rsi        # 19fbd <g_427+0x4f65>
   13f1c:	48 89 c7             	mov    %rax,%rdi
   13f1f:	e8 ef 47 ff ff       	callq  8713 <transparent_crc>
   13f24:	8b 05 4e 9f 00 00    	mov    0x9f4e(%rip),%eax        # 1de78 <g_2486+0x18>
   13f2a:	89 c1                	mov    %eax,%ecx
   13f2c:	8b 45 f4             	mov    -0xc(%rbp),%eax
   13f2f:	89 c2                	mov    %eax,%edx
   13f31:	48 8d 35 92 60 00 00 	lea    0x6092(%rip),%rsi        # 19fca <g_427+0x4f72>
   13f38:	48 89 cf             	mov    %rcx,%rdi
   13f3b:	e8 d3 47 ff ff       	callq  8713 <transparent_crc>
   13f40:	0f b7 05 35 9f 00 00 	movzwl 0x9f35(%rip),%eax        # 1de7c <g_2486+0x1c>
   13f47:	48 0f bf c0          	movswq %ax,%rax
   13f4b:	8b 55 f4             	mov    -0xc(%rbp),%edx
   13f4e:	48 8d 35 82 60 00 00 	lea    0x6082(%rip),%rsi        # 19fd7 <g_427+0x4f7f>
   13f55:	48 89 c7             	mov    %rax,%rdi
   13f58:	e8 b6 47 ff ff       	callq  8713 <transparent_crc>
   13f5d:	8b 05 1d 9f 00 00    	mov    0x9f1d(%rip),%eax        # 1de80 <g_2486+0x20>
   13f63:	89 c1                	mov    %eax,%ecx
   13f65:	8b 45 f4             	mov    -0xc(%rbp),%eax
   13f68:	89 c2                	mov    %eax,%edx
   13f6a:	48 8d 35 73 60 00 00 	lea    0x6073(%rip),%rsi        # 19fe4 <g_427+0x4f8c>
   13f71:	48 89 cf             	mov    %rcx,%rdi
   13f74:	e8 9a 47 ff ff       	callq  8713 <transparent_crc>
   13f79:	0f b6 05 04 9f 00 00 	movzbl 0x9f04(%rip),%eax        # 1de84 <g_2486+0x24>
   13f80:	0f b6 c0             	movzbl %al,%eax
   13f83:	8b 55 f4             	mov    -0xc(%rbp),%edx
   13f86:	48 8d 35 64 60 00 00 	lea    0x6064(%rip),%rsi        # 19ff1 <g_427+0x4f99>
   13f8d:	48 89 c7             	mov    %rax,%rdi
   13f90:	e8 7e 47 ff ff       	callq  8713 <transparent_crc>
   13f95:	0f b6 05 e9 9e 00 00 	movzbl 0x9ee9(%rip),%eax        # 1de85 <g_2486+0x25>
   13f9c:	0f b6 c0             	movzbl %al,%eax
   13f9f:	8b 55 f4             	mov    -0xc(%rbp),%edx
   13fa2:	48 8d 35 55 60 00 00 	lea    0x6055(%rip),%rsi        # 19ffe <g_427+0x4fa6>
   13fa9:	48 89 c7             	mov    %rax,%rdi
   13fac:	e8 62 47 ff ff       	callq  8713 <transparent_crc>
   13fb1:	8b 05 e9 9e 00 00    	mov    0x9ee9(%rip),%eax        # 1dea0 <g_2487>
   13fb7:	48 98                	cltq   
   13fb9:	8b 55 f4             	mov    -0xc(%rbp),%edx
   13fbc:	48 8d 35 48 60 00 00 	lea    0x6048(%rip),%rsi        # 1a00b <g_427+0x4fb3>
   13fc3:	48 89 c7             	mov    %rax,%rdi
   13fc6:	e8 48 47 ff ff       	callq  8713 <transparent_crc>
   13fcb:	0f b6 05 d2 9e 00 00 	movzbl 0x9ed2(%rip),%eax        # 1dea4 <g_2487+0x4>
   13fd2:	48 0f be c0          	movsbq %al,%rax
   13fd6:	8b 55 f4             	mov    -0xc(%rbp),%edx
   13fd9:	48 8d 35 38 60 00 00 	lea    0x6038(%rip),%rsi        # 1a018 <g_427+0x4fc0>
   13fe0:	48 89 c7             	mov    %rax,%rdi
   13fe3:	e8 2b 47 ff ff       	callq  8713 <transparent_crc>
   13fe8:	48 8b 05 b9 9e 00 00 	mov    0x9eb9(%rip),%rax        # 1dea8 <g_2487+0x8>
   13fef:	8b 55 f4             	mov    -0xc(%rbp),%edx
   13ff2:	48 8d 35 2c 60 00 00 	lea    0x602c(%rip),%rsi        # 1a025 <g_427+0x4fcd>
   13ff9:	48 89 c7             	mov    %rax,%rdi
   13ffc:	e8 12 47 ff ff       	callq  8713 <transparent_crc>
   14001:	8b 05 a9 9e 00 00    	mov    0x9ea9(%rip),%eax        # 1deb0 <g_2487+0x10>
   14007:	89 c1                	mov    %eax,%ecx
   14009:	8b 45 f4             	mov    -0xc(%rbp),%eax
   1400c:	89 c2                	mov    %eax,%edx
   1400e:	48 8d 35 1d 60 00 00 	lea    0x601d(%rip),%rsi        # 1a032 <g_427+0x4fda>
   14015:	48 89 cf             	mov    %rcx,%rdi
   14018:	e8 f6 46 ff ff       	callq  8713 <transparent_crc>
   1401d:	0f b6 05 90 9e 00 00 	movzbl 0x9e90(%rip),%eax        # 1deb4 <g_2487+0x14>
   14024:	0f b6 c0             	movzbl %al,%eax
   14027:	8b 55 f4             	mov    -0xc(%rbp),%edx
   1402a:	48 8d 35 0e 60 00 00 	lea    0x600e(%rip),%rsi        # 1a03f <g_427+0x4fe7>
   14031:	48 89 c7             	mov    %rax,%rdi
   14034:	e8 da 46 ff ff       	callq  8713 <transparent_crc>
   14039:	8b 05 79 9e 00 00    	mov    0x9e79(%rip),%eax        # 1deb8 <g_2487+0x18>
   1403f:	89 c1                	mov    %eax,%ecx
   14041:	8b 45 f4             	mov    -0xc(%rbp),%eax
   14044:	89 c2                	mov    %eax,%edx
   14046:	48 8d 35 ff 5f 00 00 	lea    0x5fff(%rip),%rsi        # 1a04c <g_427+0x4ff4>
   1404d:	48 89 cf             	mov    %rcx,%rdi
   14050:	e8 be 46 ff ff       	callq  8713 <transparent_crc>
   14055:	0f b7 05 60 9e 00 00 	movzwl 0x9e60(%rip),%eax        # 1debc <g_2487+0x1c>
   1405c:	48 0f bf c0          	movswq %ax,%rax
   14060:	8b 55 f4             	mov    -0xc(%rbp),%edx
   14063:	48 8d 35 ef 5f 00 00 	lea    0x5fef(%rip),%rsi        # 1a059 <g_427+0x5001>
   1406a:	48 89 c7             	mov    %rax,%rdi
   1406d:	e8 a1 46 ff ff       	callq  8713 <transparent_crc>
   14072:	8b 05 48 9e 00 00    	mov    0x9e48(%rip),%eax        # 1dec0 <g_2487+0x20>
   14078:	89 c1                	mov    %eax,%ecx
   1407a:	8b 45 f4             	mov    -0xc(%rbp),%eax
   1407d:	89 c2                	mov    %eax,%edx
   1407f:	48 8d 35 e0 5f 00 00 	lea    0x5fe0(%rip),%rsi        # 1a066 <g_427+0x500e>
   14086:	48 89 cf             	mov    %rcx,%rdi
   14089:	e8 85 46 ff ff       	callq  8713 <transparent_crc>
   1408e:	0f b6 05 2f 9e 00 00 	movzbl 0x9e2f(%rip),%eax        # 1dec4 <g_2487+0x24>
   14095:	0f b6 c0             	movzbl %al,%eax
   14098:	8b 55 f4             	mov    -0xc(%rbp),%edx
   1409b:	48 8d 35 d1 5f 00 00 	lea    0x5fd1(%rip),%rsi        # 1a073 <g_427+0x501b>
   140a2:	48 89 c7             	mov    %rax,%rdi
   140a5:	e8 69 46 ff ff       	callq  8713 <transparent_crc>
   140aa:	0f b6 05 14 9e 00 00 	movzbl 0x9e14(%rip),%eax        # 1dec5 <g_2487+0x25>
   140b1:	0f b6 c0             	movzbl %al,%eax
   140b4:	8b 55 f4             	mov    -0xc(%rbp),%edx
   140b7:	48 8d 35 c2 5f 00 00 	lea    0x5fc2(%rip),%rsi        # 1a080 <g_427+0x5028>
   140be:	48 89 c7             	mov    %rax,%rdi
   140c1:	e8 4d 46 ff ff       	callq  8713 <transparent_crc>
   140c6:	0f b6 05 fb 9d 00 00 	movzbl 0x9dfb(%rip),%eax        # 1dec8 <g_2596>
   140cd:	48 0f be c0          	movsbq %al,%rax
   140d1:	8b 55 f4             	mov    -0xc(%rbp),%edx
   140d4:	48 8d 35 b2 5f 00 00 	lea    0x5fb2(%rip),%rsi        # 1a08d <g_427+0x5035>
   140db:	48 89 c7             	mov    %rax,%rdi
   140de:	e8 30 46 ff ff       	callq  8713 <transparent_crc>
   140e3:	0f b6 05 df 9d 00 00 	movzbl 0x9ddf(%rip),%eax        # 1dec9 <g_2602>
   140ea:	0f b6 c0             	movzbl %al,%eax
   140ed:	8b 55 f4             	mov    -0xc(%rbp),%edx
   140f0:	48 8d 35 9d 5f 00 00 	lea    0x5f9d(%rip),%rsi        # 1a094 <g_427+0x503c>
   140f7:	48 89 c7             	mov    %rax,%rdi
   140fa:	e8 14 46 ff ff       	callq  8713 <transparent_crc>
   140ff:	8b 05 1b 8f 00 00    	mov    0x8f1b(%rip),%eax        # 1d020 <crc32_context>
   14105:	f7 d0                	not    %eax
   14107:	89 c2                	mov    %eax,%edx
   14109:	8b 45 f4             	mov    -0xc(%rbp),%eax
   1410c:	89 c6                	mov    %eax,%esi
   1410e:	89 d7                	mov    %edx,%edi
   14110:	e8 9f 30 ff ff       	callq  71b4 <platform_main_end>
   14115:	b8 00 00 00 00       	mov    $0x0,%eax
   1411a:	48 8b 4d f8          	mov    -0x8(%rbp),%rcx
   1411e:	64 48 33 0c 25 28 00 	xor    %fs:0x28,%rcx
   14125:	00 00 
   14127:	74 05                	je     1412e <main+0x1d30>
   14129:	e8 52 2f ff ff       	callq  7080 <__stack_chk_fail@plt>
   1412e:	c9                   	leaveq 
   1412f:	c3                   	retq   

0000000000014130 <__libc_csu_init>:
   14130:	f3 0f 1e fa          	endbr64 
   14134:	41 57                	push   %r15
   14136:	4c 8d 3d 5b 8c 00 00 	lea    0x8c5b(%rip),%r15        # 1cd98 <__frame_dummy_init_array_entry>
   1413d:	41 56                	push   %r14
   1413f:	49 89 d6             	mov    %rdx,%r14
   14142:	41 55                	push   %r13
   14144:	49 89 f5             	mov    %rsi,%r13
   14147:	41 54                	push   %r12
   14149:	41 89 fc             	mov    %edi,%r12d
   1414c:	55                   	push   %rbp
   1414d:	48 8d 2d 4c 8c 00 00 	lea    0x8c4c(%rip),%rbp        # 1cda0 <__do_global_dtors_aux_fini_array_entry>
   14154:	53                   	push   %rbx
   14155:	4c 29 fd             	sub    %r15,%rbp
   14158:	48 83 ec 08          	sub    $0x8,%rsp
   1415c:	e8 9f 2e ff ff       	callq  7000 <_init>
   14161:	48 c1 fd 03          	sar    $0x3,%rbp
   14165:	74 1f                	je     14186 <__libc_csu_init+0x56>
   14167:	31 db                	xor    %ebx,%ebx
   14169:	0f 1f 80 00 00 00 00 	nopl   0x0(%rax)
   14170:	4c 89 f2             	mov    %r14,%rdx
   14173:	4c 89 ee             	mov    %r13,%rsi
   14176:	44 89 e7             	mov    %r12d,%edi
   14179:	41 ff 14 df          	callq  *(%r15,%rbx,8)
   1417d:	48 83 c3 01          	add    $0x1,%rbx
   14181:	48 39 dd             	cmp    %rbx,%rbp
   14184:	75 ea                	jne    14170 <__libc_csu_init+0x40>
   14186:	48 83 c4 08          	add    $0x8,%rsp
   1418a:	5b                   	pop    %rbx
   1418b:	5d                   	pop    %rbp
   1418c:	41 5c                	pop    %r12
   1418e:	41 5d                	pop    %r13
   14190:	41 5e                	pop    %r14
   14192:	41 5f                	pop    %r15
   14194:	c3                   	retq   
   14195:	66 66 2e 0f 1f 84 00 	data16 nopw %cs:0x0(%rax,%rax,1)
   1419c:	00 00 00 00 

00000000000141a0 <__libc_csu_fini>:
   141a0:	f3 0f 1e fa          	endbr64 
   141a4:	c3                   	retq   
