


Disassembly of section .text:

00000000000090a0 <_start>:
    90a0:	f3 0f 1e fa          	endbr64 
    90a4:	31 ed                	xor    %ebp,%ebp
    90a6:	49 89 d1             	mov    %rdx,%r9
    90a9:	5e                   	pop    %rsi
    90aa:	48 89 e2             	mov    %rsp,%rdx
    90ad:	48 83 e4 f0          	and    $0xfffffffffffffff0,%rsp
    90b1:	50                   	push   %rax
    90b2:	54                   	push   %rsp
    90b3:	4c 8d 05 76 9e 00 00 	lea    0x9e76(%rip),%r8        # 12f30 <__libc_csu_fini>
    90ba:	48 8d 0d ff 9d 00 00 	lea    0x9dff(%rip),%rcx        # 12ec0 <__libc_csu_init>
    90c1:	48 8d 3d 59 96 00 00 	lea    0x9659(%rip),%rdi        # 12721 <main>
    90c8:	ff 15 fa de 00 00    	callq  *0xdefa(%rip)        # 16fc8 <__libc_start_main@GLIBC_2.2.5>
    90ce:	f4                   	hlt    
    90cf:	90                   	nop

00000000000090d0 <deregister_tm_clones>:
    90d0:	48 8d 3d 31 16 01 00 	lea    0x11631(%rip),%rdi        # 1a708 <__TMC_END__>
    90d7:	48 8d 05 2a 16 01 00 	lea    0x1162a(%rip),%rax        # 1a708 <__TMC_END__>
    90de:	48 39 f8             	cmp    %rdi,%rax
    90e1:	74 15                	je     90f8 <deregister_tm_clones+0x28>
    90e3:	48 8b 05 d6 de 00 00 	mov    0xded6(%rip),%rax        # 16fc0 <_ITM_deregisterTMCloneTable>
    90ea:	48 85 c0             	test   %rax,%rax
    90ed:	74 09                	je     90f8 <deregister_tm_clones+0x28>
    90ef:	ff e0                	jmpq   *%rax
    90f1:	0f 1f 80 00 00 00 00 	nopl   0x0(%rax)
    90f8:	c3                   	retq   
    90f9:	0f 1f 80 00 00 00 00 	nopl   0x0(%rax)

0000000000009100 <register_tm_clones>:
    9100:	48 8d 3d 01 16 01 00 	lea    0x11601(%rip),%rdi        # 1a708 <__TMC_END__>
    9107:	48 8d 35 fa 15 01 00 	lea    0x115fa(%rip),%rsi        # 1a708 <__TMC_END__>
    910e:	48 29 fe             	sub    %rdi,%rsi
    9111:	48 89 f0             	mov    %rsi,%rax
    9114:	48 c1 ee 3f          	shr    $0x3f,%rsi
    9118:	48 c1 f8 03          	sar    $0x3,%rax
    911c:	48 01 c6             	add    %rax,%rsi
    911f:	48 d1 fe             	sar    %rsi
    9122:	74 14                	je     9138 <register_tm_clones+0x38>
    9124:	48 8b 05 ad de 00 00 	mov    0xdead(%rip),%rax        # 16fd8 <_ITM_registerTMCloneTable>
    912b:	48 85 c0             	test   %rax,%rax
    912e:	74 08                	je     9138 <register_tm_clones+0x38>
    9130:	ff e0                	jmpq   *%rax
    9132:	66 0f 1f 44 00 00    	nopw   0x0(%rax,%rax,1)
    9138:	c3                   	retq   
    9139:	0f 1f 80 00 00 00 00 	nopl   0x0(%rax)

0000000000009140 <__do_global_dtors_aux>:
    9140:	f3 0f 1e fa          	endbr64 
    9144:	80 3d d5 15 01 00 00 	cmpb   $0x0,0x115d5(%rip)        # 1a720 <completed.8061>
    914b:	75 2b                	jne    9178 <__do_global_dtors_aux+0x38>
    914d:	55                   	push   %rbp
    914e:	48 83 3d 8a de 00 00 	cmpq   $0x0,0xde8a(%rip)        # 16fe0 <__cxa_finalize@GLIBC_2.2.5>
    9155:	00 
    9156:	48 89 e5             	mov    %rsp,%rbp
    9159:	74 0c                	je     9167 <__do_global_dtors_aux+0x27>
    915b:	48 8b 3d a6 de 00 00 	mov    0xdea6(%rip),%rdi        # 17008 <__dso_handle>
    9162:	e8 f9 fe ff ff       	callq  9060 <__cxa_finalize@plt>
    9167:	e8 64 ff ff ff       	callq  90d0 <deregister_tm_clones>
    916c:	c6 05 ad 15 01 00 01 	movb   $0x1,0x115ad(%rip)        # 1a720 <completed.8061>
    9173:	5d                   	pop    %rbp
    9174:	c3                   	retq   
    9175:	0f 1f 00             	nopl   (%rax)
    9178:	c3                   	retq   
    9179:	0f 1f 80 00 00 00 00 	nopl   0x0(%rax)

0000000000009180 <frame_dummy>:
    9180:	f3 0f 1e fa          	endbr64 
    9184:	e9 77 ff ff ff       	jmpq   9100 <register_tm_clones>

0000000000009189 <platform_main_begin>:
    9189:	f3 0f 1e fa          	endbr64 
    918d:	55                   	push   %rbp
    918e:	48 89 e5             	mov    %rsp,%rbp
    9191:	90                   	nop
    9192:	5d                   	pop    %rbp
    9193:	c3                   	retq   

0000000000009194 <platform_main_end>:
    9194:	f3 0f 1e fa          	endbr64 
    9198:	55                   	push   %rbp
    9199:	48 89 e5             	mov    %rsp,%rbp
    919c:	48 83 ec 10          	sub    $0x10,%rsp
    91a0:	89 7d fc             	mov    %edi,-0x4(%rbp)
    91a3:	89 75 f8             	mov    %esi,-0x8(%rbp)
    91a6:	8b 45 fc             	mov    -0x4(%rbp),%eax
    91a9:	89 c6                	mov    %eax,%esi
    91ab:	48 8d 3d 6e 9e 00 00 	lea    0x9e6e(%rip),%rdi        # 13020 <_IO_stdin_used+0x20>
    91b2:	b8 00 00 00 00       	mov    $0x0,%eax
    91b7:	e8 c4 fe ff ff       	callq  9080 <printf@plt>
    91bc:	90                   	nop
    91bd:	c9                   	leaveq 
    91be:	c3                   	retq   

00000000000091bf <safe_unary_minus_func_int8_t_s>:
    91bf:	f3 0f 1e fa          	endbr64 
    91c3:	55                   	push   %rbp
    91c4:	48 89 e5             	mov    %rsp,%rbp
    91c7:	89 f8                	mov    %edi,%eax
    91c9:	88 45 fc             	mov    %al,-0x4(%rbp)
    91cc:	0f b6 45 fc          	movzbl -0x4(%rbp),%eax
    91d0:	f7 d8                	neg    %eax
    91d2:	5d                   	pop    %rbp
    91d3:	c3                   	retq   

00000000000091d4 <safe_add_func_int8_t_s_s>:
    91d4:	f3 0f 1e fa          	endbr64 
    91d8:	55                   	push   %rbp
    91d9:	48 89 e5             	mov    %rsp,%rbp
    91dc:	89 fa                	mov    %edi,%edx
    91de:	89 f0                	mov    %esi,%eax
    91e0:	88 55 fc             	mov    %dl,-0x4(%rbp)
    91e3:	88 45 f8             	mov    %al,-0x8(%rbp)
    91e6:	0f b6 55 fc          	movzbl -0x4(%rbp),%edx
    91ea:	0f b6 45 f8          	movzbl -0x8(%rbp),%eax
    91ee:	01 d0                	add    %edx,%eax
    91f0:	5d                   	pop    %rbp
    91f1:	c3                   	retq   

00000000000091f2 <safe_sub_func_int8_t_s_s>:
    91f2:	f3 0f 1e fa          	endbr64 
    91f6:	55                   	push   %rbp
    91f7:	48 89 e5             	mov    %rsp,%rbp
    91fa:	89 fa                	mov    %edi,%edx
    91fc:	89 f0                	mov    %esi,%eax
    91fe:	88 55 fc             	mov    %dl,-0x4(%rbp)
    9201:	88 45 f8             	mov    %al,-0x8(%rbp)
    9204:	0f b6 55 fc          	movzbl -0x4(%rbp),%edx
    9208:	0f b6 45 f8          	movzbl -0x8(%rbp),%eax
    920c:	29 c2                	sub    %eax,%edx
    920e:	89 d0                	mov    %edx,%eax
    9210:	5d                   	pop    %rbp
    9211:	c3                   	retq   

0000000000009212 <safe_mul_func_int8_t_s_s>:
    9212:	f3 0f 1e fa          	endbr64 
    9216:	55                   	push   %rbp
    9217:	48 89 e5             	mov    %rsp,%rbp
    921a:	89 fa                	mov    %edi,%edx
    921c:	89 f0                	mov    %esi,%eax
    921e:	88 55 fc             	mov    %dl,-0x4(%rbp)
    9221:	88 45 f8             	mov    %al,-0x8(%rbp)
    9224:	0f b6 45 fc          	movzbl -0x4(%rbp),%eax
    9228:	0f b6 55 f8          	movzbl -0x8(%rbp),%edx
    922c:	0f af c2             	imul   %edx,%eax
    922f:	5d                   	pop    %rbp
    9230:	c3                   	retq   

0000000000009231 <safe_mod_func_int8_t_s_s>:
    9231:	f3 0f 1e fa          	endbr64 
    9235:	55                   	push   %rbp
    9236:	48 89 e5             	mov    %rsp,%rbp
    9239:	89 fa                	mov    %edi,%edx
    923b:	89 f0                	mov    %esi,%eax
    923d:	88 55 fc             	mov    %dl,-0x4(%rbp)
    9240:	88 45 f8             	mov    %al,-0x8(%rbp)
    9243:	80 7d f8 00          	cmpb   $0x0,-0x8(%rbp)
    9247:	74 1b                	je     9264 <safe_mod_func_int8_t_s_s+0x33>
    9249:	80 7d fc 80          	cmpb   $0x80,-0x4(%rbp)
    924d:	75 06                	jne    9255 <safe_mod_func_int8_t_s_s+0x24>
    924f:	80 7d f8 ff          	cmpb   $0xff,-0x8(%rbp)
    9253:	74 0f                	je     9264 <safe_mod_func_int8_t_s_s+0x33>
    9255:	0f be 45 fc          	movsbl -0x4(%rbp),%eax
    9259:	0f be 4d f8          	movsbl -0x8(%rbp),%ecx
    925d:	99                   	cltd   
    925e:	f7 f9                	idiv   %ecx
    9260:	89 d0                	mov    %edx,%eax
    9262:	eb 04                	jmp    9268 <safe_mod_func_int8_t_s_s+0x37>
    9264:	0f b6 45 fc          	movzbl -0x4(%rbp),%eax
    9268:	5d                   	pop    %rbp
    9269:	c3                   	retq   

000000000000926a <safe_div_func_int8_t_s_s>:
    926a:	f3 0f 1e fa          	endbr64 
    926e:	55                   	push   %rbp
    926f:	48 89 e5             	mov    %rsp,%rbp
    9272:	89 fa                	mov    %edi,%edx
    9274:	89 f0                	mov    %esi,%eax
    9276:	88 55 fc             	mov    %dl,-0x4(%rbp)
    9279:	88 45 f8             	mov    %al,-0x8(%rbp)
    927c:	80 7d f8 00          	cmpb   $0x0,-0x8(%rbp)
    9280:	74 19                	je     929b <safe_div_func_int8_t_s_s+0x31>
    9282:	80 7d fc 80          	cmpb   $0x80,-0x4(%rbp)
    9286:	75 06                	jne    928e <safe_div_func_int8_t_s_s+0x24>
    9288:	80 7d f8 ff          	cmpb   $0xff,-0x8(%rbp)
    928c:	74 0d                	je     929b <safe_div_func_int8_t_s_s+0x31>
    928e:	0f be 45 fc          	movsbl -0x4(%rbp),%eax
    9292:	0f be 4d f8          	movsbl -0x8(%rbp),%ecx
    9296:	99                   	cltd   
    9297:	f7 f9                	idiv   %ecx
    9299:	eb 04                	jmp    929f <safe_div_func_int8_t_s_s+0x35>
    929b:	0f b6 45 fc          	movzbl -0x4(%rbp),%eax
    929f:	5d                   	pop    %rbp
    92a0:	c3                   	retq   

00000000000092a1 <safe_lshift_func_int8_t_s_s>:
    92a1:	f3 0f 1e fa          	endbr64 
    92a5:	55                   	push   %rbp
    92a6:	48 89 e5             	mov    %rsp,%rbp
    92a9:	89 f8                	mov    %edi,%eax
    92ab:	89 75 f8             	mov    %esi,-0x8(%rbp)
    92ae:	88 45 fc             	mov    %al,-0x4(%rbp)
    92b1:	80 7d fc 00          	cmpb   $0x0,-0x4(%rbp)
    92b5:	78 31                	js     92e8 <safe_lshift_func_int8_t_s_s+0x47>
    92b7:	83 7d f8 00          	cmpl   $0x0,-0x8(%rbp)
    92bb:	78 2b                	js     92e8 <safe_lshift_func_int8_t_s_s+0x47>
    92bd:	83 7d f8 1f          	cmpl   $0x1f,-0x8(%rbp)
    92c1:	7f 25                	jg     92e8 <safe_lshift_func_int8_t_s_s+0x47>
    92c3:	0f be 55 fc          	movsbl -0x4(%rbp),%edx
    92c7:	8b 45 f8             	mov    -0x8(%rbp),%eax
    92ca:	be 7f 00 00 00       	mov    $0x7f,%esi
    92cf:	89 c1                	mov    %eax,%ecx
    92d1:	d3 fe                	sar    %cl,%esi
    92d3:	89 f0                	mov    %esi,%eax
    92d5:	39 c2                	cmp    %eax,%edx
    92d7:	7f 0f                	jg     92e8 <safe_lshift_func_int8_t_s_s+0x47>
    92d9:	0f be 55 fc          	movsbl -0x4(%rbp),%edx
    92dd:	8b 45 f8             	mov    -0x8(%rbp),%eax
    92e0:	89 c1                	mov    %eax,%ecx
    92e2:	d3 e2                	shl    %cl,%edx
    92e4:	89 d0                	mov    %edx,%eax
    92e6:	eb 04                	jmp    92ec <safe_lshift_func_int8_t_s_s+0x4b>
    92e8:	0f b6 45 fc          	movzbl -0x4(%rbp),%eax
    92ec:	5d                   	pop    %rbp
    92ed:	c3                   	retq   

00000000000092ee <safe_lshift_func_int8_t_s_u>:
    92ee:	f3 0f 1e fa          	endbr64 
    92f2:	55                   	push   %rbp
    92f3:	48 89 e5             	mov    %rsp,%rbp
    92f6:	89 f8                	mov    %edi,%eax
    92f8:	89 75 f8             	mov    %esi,-0x8(%rbp)
    92fb:	88 45 fc             	mov    %al,-0x4(%rbp)
    92fe:	80 7d fc 00          	cmpb   $0x0,-0x4(%rbp)
    9302:	78 2b                	js     932f <safe_lshift_func_int8_t_s_u+0x41>
    9304:	83 7d f8 1f          	cmpl   $0x1f,-0x8(%rbp)
    9308:	77 25                	ja     932f <safe_lshift_func_int8_t_s_u+0x41>
    930a:	0f be 55 fc          	movsbl -0x4(%rbp),%edx
    930e:	8b 45 f8             	mov    -0x8(%rbp),%eax
    9311:	be 7f 00 00 00       	mov    $0x7f,%esi
    9316:	89 c1                	mov    %eax,%ecx
    9318:	d3 fe                	sar    %cl,%esi
    931a:	89 f0                	mov    %esi,%eax
    931c:	39 c2                	cmp    %eax,%edx
    931e:	7f 0f                	jg     932f <safe_lshift_func_int8_t_s_u+0x41>
    9320:	0f be 55 fc          	movsbl -0x4(%rbp),%edx
    9324:	8b 45 f8             	mov    -0x8(%rbp),%eax
    9327:	89 c1                	mov    %eax,%ecx
    9329:	d3 e2                	shl    %cl,%edx
    932b:	89 d0                	mov    %edx,%eax
    932d:	eb 04                	jmp    9333 <safe_lshift_func_int8_t_s_u+0x45>
    932f:	0f b6 45 fc          	movzbl -0x4(%rbp),%eax
    9333:	5d                   	pop    %rbp
    9334:	c3                   	retq   

0000000000009335 <safe_rshift_func_int8_t_s_s>:
    9335:	f3 0f 1e fa          	endbr64 
    9339:	55                   	push   %rbp
    933a:	48 89 e5             	mov    %rsp,%rbp
    933d:	89 f8                	mov    %edi,%eax
    933f:	89 75 f8             	mov    %esi,-0x8(%rbp)
    9342:	88 45 fc             	mov    %al,-0x4(%rbp)
    9345:	80 7d fc 00          	cmpb   $0x0,-0x4(%rbp)
    9349:	78 1b                	js     9366 <safe_rshift_func_int8_t_s_s+0x31>
    934b:	83 7d f8 00          	cmpl   $0x0,-0x8(%rbp)
    934f:	78 15                	js     9366 <safe_rshift_func_int8_t_s_s+0x31>
    9351:	83 7d f8 1f          	cmpl   $0x1f,-0x8(%rbp)
    9355:	7f 0f                	jg     9366 <safe_rshift_func_int8_t_s_s+0x31>
    9357:	0f be 55 fc          	movsbl -0x4(%rbp),%edx
    935b:	8b 45 f8             	mov    -0x8(%rbp),%eax
    935e:	89 c1                	mov    %eax,%ecx
    9360:	d3 fa                	sar    %cl,%edx
    9362:	89 d0                	mov    %edx,%eax
    9364:	eb 04                	jmp    936a <safe_rshift_func_int8_t_s_s+0x35>
    9366:	0f b6 45 fc          	movzbl -0x4(%rbp),%eax
    936a:	5d                   	pop    %rbp
    936b:	c3                   	retq   

000000000000936c <safe_rshift_func_int8_t_s_u>:
    936c:	f3 0f 1e fa          	endbr64 
    9370:	55                   	push   %rbp
    9371:	48 89 e5             	mov    %rsp,%rbp
    9374:	89 f8                	mov    %edi,%eax
    9376:	89 75 f8             	mov    %esi,-0x8(%rbp)
    9379:	88 45 fc             	mov    %al,-0x4(%rbp)
    937c:	80 7d fc 00          	cmpb   $0x0,-0x4(%rbp)
    9380:	78 15                	js     9397 <safe_rshift_func_int8_t_s_u+0x2b>
    9382:	83 7d f8 1f          	cmpl   $0x1f,-0x8(%rbp)
    9386:	77 0f                	ja     9397 <safe_rshift_func_int8_t_s_u+0x2b>
    9388:	0f be 55 fc          	movsbl -0x4(%rbp),%edx
    938c:	8b 45 f8             	mov    -0x8(%rbp),%eax
    938f:	89 c1                	mov    %eax,%ecx
    9391:	d3 fa                	sar    %cl,%edx
    9393:	89 d0                	mov    %edx,%eax
    9395:	eb 04                	jmp    939b <safe_rshift_func_int8_t_s_u+0x2f>
    9397:	0f b6 45 fc          	movzbl -0x4(%rbp),%eax
    939b:	5d                   	pop    %rbp
    939c:	c3                   	retq   

000000000000939d <safe_unary_minus_func_int16_t_s>:
    939d:	f3 0f 1e fa          	endbr64 
    93a1:	55                   	push   %rbp
    93a2:	48 89 e5             	mov    %rsp,%rbp
    93a5:	89 f8                	mov    %edi,%eax
    93a7:	66 89 45 fc          	mov    %ax,-0x4(%rbp)
    93ab:	0f b7 45 fc          	movzwl -0x4(%rbp),%eax
    93af:	f7 d8                	neg    %eax
    93b1:	5d                   	pop    %rbp
    93b2:	c3                   	retq   

00000000000093b3 <safe_add_func_int16_t_s_s>:
    93b3:	f3 0f 1e fa          	endbr64 
    93b7:	55                   	push   %rbp
    93b8:	48 89 e5             	mov    %rsp,%rbp
    93bb:	89 fa                	mov    %edi,%edx
    93bd:	89 f0                	mov    %esi,%eax
    93bf:	66 89 55 fc          	mov    %dx,-0x4(%rbp)
    93c3:	66 89 45 f8          	mov    %ax,-0x8(%rbp)
    93c7:	0f b7 55 fc          	movzwl -0x4(%rbp),%edx
    93cb:	0f b7 45 f8          	movzwl -0x8(%rbp),%eax
    93cf:	01 d0                	add    %edx,%eax
    93d1:	5d                   	pop    %rbp
    93d2:	c3                   	retq   

00000000000093d3 <safe_sub_func_int16_t_s_s>:
    93d3:	f3 0f 1e fa          	endbr64 
    93d7:	55                   	push   %rbp
    93d8:	48 89 e5             	mov    %rsp,%rbp
    93db:	89 fa                	mov    %edi,%edx
    93dd:	89 f0                	mov    %esi,%eax
    93df:	66 89 55 fc          	mov    %dx,-0x4(%rbp)
    93e3:	66 89 45 f8          	mov    %ax,-0x8(%rbp)
    93e7:	0f b7 55 fc          	movzwl -0x4(%rbp),%edx
    93eb:	0f b7 45 f8          	movzwl -0x8(%rbp),%eax
    93ef:	29 c2                	sub    %eax,%edx
    93f1:	89 d0                	mov    %edx,%eax
    93f3:	5d                   	pop    %rbp
    93f4:	c3                   	retq   

00000000000093f5 <safe_mul_func_int16_t_s_s>:
    93f5:	f3 0f 1e fa          	endbr64 
    93f9:	55                   	push   %rbp
    93fa:	48 89 e5             	mov    %rsp,%rbp
    93fd:	89 fa                	mov    %edi,%edx
    93ff:	89 f0                	mov    %esi,%eax
    9401:	66 89 55 fc          	mov    %dx,-0x4(%rbp)
    9405:	66 89 45 f8          	mov    %ax,-0x8(%rbp)
    9409:	0f b7 55 fc          	movzwl -0x4(%rbp),%edx
    940d:	0f b7 45 f8          	movzwl -0x8(%rbp),%eax
    9411:	0f af c2             	imul   %edx,%eax
    9414:	5d                   	pop    %rbp
    9415:	c3                   	retq   

0000000000009416 <safe_mod_func_int16_t_s_s>:
    9416:	f3 0f 1e fa          	endbr64 
    941a:	55                   	push   %rbp
    941b:	48 89 e5             	mov    %rsp,%rbp
    941e:	89 fa                	mov    %edi,%edx
    9420:	89 f0                	mov    %esi,%eax
    9422:	66 89 55 fc          	mov    %dx,-0x4(%rbp)
    9426:	66 89 45 f8          	mov    %ax,-0x8(%rbp)
    942a:	66 83 7d f8 00       	cmpw   $0x0,-0x8(%rbp)
    942f:	74 1e                	je     944f <safe_mod_func_int16_t_s_s+0x39>
    9431:	66 81 7d fc 00 80    	cmpw   $0x8000,-0x4(%rbp)
    9437:	75 07                	jne    9440 <safe_mod_func_int16_t_s_s+0x2a>
    9439:	66 83 7d f8 ff       	cmpw   $0xffff,-0x8(%rbp)
    943e:	74 0f                	je     944f <safe_mod_func_int16_t_s_s+0x39>
    9440:	0f bf 45 fc          	movswl -0x4(%rbp),%eax
    9444:	0f bf 4d f8          	movswl -0x8(%rbp),%ecx
    9448:	99                   	cltd   
    9449:	f7 f9                	idiv   %ecx
    944b:	89 d0                	mov    %edx,%eax
    944d:	eb 04                	jmp    9453 <safe_mod_func_int16_t_s_s+0x3d>
    944f:	0f b7 45 fc          	movzwl -0x4(%rbp),%eax
    9453:	5d                   	pop    %rbp
    9454:	c3                   	retq   

0000000000009455 <safe_div_func_int16_t_s_s>:
    9455:	f3 0f 1e fa          	endbr64 
    9459:	55                   	push   %rbp
    945a:	48 89 e5             	mov    %rsp,%rbp
    945d:	89 fa                	mov    %edi,%edx
    945f:	89 f0                	mov    %esi,%eax
    9461:	66 89 55 fc          	mov    %dx,-0x4(%rbp)
    9465:	66 89 45 f8          	mov    %ax,-0x8(%rbp)
    9469:	66 83 7d f8 00       	cmpw   $0x0,-0x8(%rbp)
    946e:	74 1c                	je     948c <safe_div_func_int16_t_s_s+0x37>
    9470:	66 81 7d fc 00 80    	cmpw   $0x8000,-0x4(%rbp)
    9476:	75 07                	jne    947f <safe_div_func_int16_t_s_s+0x2a>
    9478:	66 83 7d f8 ff       	cmpw   $0xffff,-0x8(%rbp)
    947d:	74 0d                	je     948c <safe_div_func_int16_t_s_s+0x37>
    947f:	0f bf 45 fc          	movswl -0x4(%rbp),%eax
    9483:	0f bf 4d f8          	movswl -0x8(%rbp),%ecx
    9487:	99                   	cltd   
    9488:	f7 f9                	idiv   %ecx
    948a:	eb 04                	jmp    9490 <safe_div_func_int16_t_s_s+0x3b>
    948c:	0f b7 45 fc          	movzwl -0x4(%rbp),%eax
    9490:	5d                   	pop    %rbp
    9491:	c3                   	retq   

0000000000009492 <safe_lshift_func_int16_t_s_s>:
    9492:	f3 0f 1e fa          	endbr64 
    9496:	55                   	push   %rbp
    9497:	48 89 e5             	mov    %rsp,%rbp
    949a:	89 f8                	mov    %edi,%eax
    949c:	89 75 f8             	mov    %esi,-0x8(%rbp)
    949f:	66 89 45 fc          	mov    %ax,-0x4(%rbp)
    94a3:	66 83 7d fc 00       	cmpw   $0x0,-0x4(%rbp)
    94a8:	78 31                	js     94db <safe_lshift_func_int16_t_s_s+0x49>
    94aa:	83 7d f8 00          	cmpl   $0x0,-0x8(%rbp)
    94ae:	78 2b                	js     94db <safe_lshift_func_int16_t_s_s+0x49>
    94b0:	83 7d f8 1f          	cmpl   $0x1f,-0x8(%rbp)
    94b4:	7f 25                	jg     94db <safe_lshift_func_int16_t_s_s+0x49>
    94b6:	0f bf 55 fc          	movswl -0x4(%rbp),%edx
    94ba:	8b 45 f8             	mov    -0x8(%rbp),%eax
    94bd:	be ff 7f 00 00       	mov    $0x7fff,%esi
    94c2:	89 c1                	mov    %eax,%ecx
    94c4:	d3 fe                	sar    %cl,%esi
    94c6:	89 f0                	mov    %esi,%eax
    94c8:	39 c2                	cmp    %eax,%edx
    94ca:	7f 0f                	jg     94db <safe_lshift_func_int16_t_s_s+0x49>
    94cc:	0f bf 55 fc          	movswl -0x4(%rbp),%edx
    94d0:	8b 45 f8             	mov    -0x8(%rbp),%eax
    94d3:	89 c1                	mov    %eax,%ecx
    94d5:	d3 e2                	shl    %cl,%edx
    94d7:	89 d0                	mov    %edx,%eax
    94d9:	eb 04                	jmp    94df <safe_lshift_func_int16_t_s_s+0x4d>
    94db:	0f b7 45 fc          	movzwl -0x4(%rbp),%eax
    94df:	5d                   	pop    %rbp
    94e0:	c3                   	retq   

00000000000094e1 <safe_lshift_func_int16_t_s_u>:
    94e1:	f3 0f 1e fa          	endbr64 
    94e5:	55                   	push   %rbp
    94e6:	48 89 e5             	mov    %rsp,%rbp
    94e9:	89 f8                	mov    %edi,%eax
    94eb:	89 75 f8             	mov    %esi,-0x8(%rbp)
    94ee:	66 89 45 fc          	mov    %ax,-0x4(%rbp)
    94f2:	66 83 7d fc 00       	cmpw   $0x0,-0x4(%rbp)
    94f7:	78 2b                	js     9524 <safe_lshift_func_int16_t_s_u+0x43>
    94f9:	83 7d f8 1f          	cmpl   $0x1f,-0x8(%rbp)
    94fd:	77 25                	ja     9524 <safe_lshift_func_int16_t_s_u+0x43>
    94ff:	0f bf 55 fc          	movswl -0x4(%rbp),%edx
    9503:	8b 45 f8             	mov    -0x8(%rbp),%eax
    9506:	be ff 7f 00 00       	mov    $0x7fff,%esi
    950b:	89 c1                	mov    %eax,%ecx
    950d:	d3 fe                	sar    %cl,%esi
    950f:	89 f0                	mov    %esi,%eax
    9511:	39 c2                	cmp    %eax,%edx
    9513:	7f 0f                	jg     9524 <safe_lshift_func_int16_t_s_u+0x43>
    9515:	0f bf 55 fc          	movswl -0x4(%rbp),%edx
    9519:	8b 45 f8             	mov    -0x8(%rbp),%eax
    951c:	89 c1                	mov    %eax,%ecx
    951e:	d3 e2                	shl    %cl,%edx
    9520:	89 d0                	mov    %edx,%eax
    9522:	eb 04                	jmp    9528 <safe_lshift_func_int16_t_s_u+0x47>
    9524:	0f b7 45 fc          	movzwl -0x4(%rbp),%eax
    9528:	5d                   	pop    %rbp
    9529:	c3                   	retq   

000000000000952a <safe_rshift_func_int16_t_s_s>:
    952a:	f3 0f 1e fa          	endbr64 
    952e:	55                   	push   %rbp
    952f:	48 89 e5             	mov    %rsp,%rbp
    9532:	89 f8                	mov    %edi,%eax
    9534:	89 75 f8             	mov    %esi,-0x8(%rbp)
    9537:	66 89 45 fc          	mov    %ax,-0x4(%rbp)
    953b:	66 83 7d fc 00       	cmpw   $0x0,-0x4(%rbp)
    9540:	78 1b                	js     955d <safe_rshift_func_int16_t_s_s+0x33>
    9542:	83 7d f8 00          	cmpl   $0x0,-0x8(%rbp)
    9546:	78 15                	js     955d <safe_rshift_func_int16_t_s_s+0x33>
    9548:	83 7d f8 1f          	cmpl   $0x1f,-0x8(%rbp)
    954c:	7f 0f                	jg     955d <safe_rshift_func_int16_t_s_s+0x33>
    954e:	0f bf 55 fc          	movswl -0x4(%rbp),%edx
    9552:	8b 45 f8             	mov    -0x8(%rbp),%eax
    9555:	89 c1                	mov    %eax,%ecx
    9557:	d3 fa                	sar    %cl,%edx
    9559:	89 d0                	mov    %edx,%eax
    955b:	eb 04                	jmp    9561 <safe_rshift_func_int16_t_s_s+0x37>
    955d:	0f b7 45 fc          	movzwl -0x4(%rbp),%eax
    9561:	5d                   	pop    %rbp
    9562:	c3                   	retq   

0000000000009563 <safe_rshift_func_int16_t_s_u>:
    9563:	f3 0f 1e fa          	endbr64 
    9567:	55                   	push   %rbp
    9568:	48 89 e5             	mov    %rsp,%rbp
    956b:	89 f8                	mov    %edi,%eax
    956d:	89 75 f8             	mov    %esi,-0x8(%rbp)
    9570:	66 89 45 fc          	mov    %ax,-0x4(%rbp)
    9574:	66 83 7d fc 00       	cmpw   $0x0,-0x4(%rbp)
    9579:	78 15                	js     9590 <safe_rshift_func_int16_t_s_u+0x2d>
    957b:	83 7d f8 1f          	cmpl   $0x1f,-0x8(%rbp)
    957f:	77 0f                	ja     9590 <safe_rshift_func_int16_t_s_u+0x2d>
    9581:	0f bf 55 fc          	movswl -0x4(%rbp),%edx
    9585:	8b 45 f8             	mov    -0x8(%rbp),%eax
    9588:	89 c1                	mov    %eax,%ecx
    958a:	d3 fa                	sar    %cl,%edx
    958c:	89 d0                	mov    %edx,%eax
    958e:	eb 04                	jmp    9594 <safe_rshift_func_int16_t_s_u+0x31>
    9590:	0f b7 45 fc          	movzwl -0x4(%rbp),%eax
    9594:	5d                   	pop    %rbp
    9595:	c3                   	retq   

0000000000009596 <safe_unary_minus_func_int32_t_s>:
    9596:	f3 0f 1e fa          	endbr64 
    959a:	55                   	push   %rbp
    959b:	48 89 e5             	mov    %rsp,%rbp
    959e:	89 7d fc             	mov    %edi,-0x4(%rbp)
    95a1:	81 7d fc 00 00 00 80 	cmpl   $0x80000000,-0x4(%rbp)
    95a8:	74 07                	je     95b1 <safe_unary_minus_func_int32_t_s+0x1b>
    95aa:	8b 45 fc             	mov    -0x4(%rbp),%eax
    95ad:	f7 d8                	neg    %eax
    95af:	eb 03                	jmp    95b4 <safe_unary_minus_func_int32_t_s+0x1e>
    95b1:	8b 45 fc             	mov    -0x4(%rbp),%eax
    95b4:	5d                   	pop    %rbp
    95b5:	c3                   	retq   

00000000000095b6 <safe_add_func_int32_t_s_s>:
    95b6:	f3 0f 1e fa          	endbr64 
    95ba:	55                   	push   %rbp
    95bb:	48 89 e5             	mov    %rsp,%rbp
    95be:	89 7d fc             	mov    %edi,-0x4(%rbp)
    95c1:	89 75 f8             	mov    %esi,-0x8(%rbp)
    95c4:	83 7d fc 00          	cmpl   $0x0,-0x4(%rbp)
    95c8:	7e 13                	jle    95dd <safe_add_func_int32_t_s_s+0x27>
    95ca:	83 7d f8 00          	cmpl   $0x0,-0x8(%rbp)
    95ce:	7e 0d                	jle    95dd <safe_add_func_int32_t_s_s+0x27>
    95d0:	b8 ff ff ff 7f       	mov    $0x7fffffff,%eax
    95d5:	2b 45 f8             	sub    -0x8(%rbp),%eax
    95d8:	39 45 fc             	cmp    %eax,-0x4(%rbp)
    95db:	7f 23                	jg     9600 <safe_add_func_int32_t_s_s+0x4a>
    95dd:	83 7d fc 00          	cmpl   $0x0,-0x4(%rbp)
    95e1:	79 13                	jns    95f6 <safe_add_func_int32_t_s_s+0x40>
    95e3:	83 7d f8 00          	cmpl   $0x0,-0x8(%rbp)
    95e7:	79 0d                	jns    95f6 <safe_add_func_int32_t_s_s+0x40>
    95e9:	b8 00 00 00 80       	mov    $0x80000000,%eax
    95ee:	2b 45 f8             	sub    -0x8(%rbp),%eax
    95f1:	39 45 fc             	cmp    %eax,-0x4(%rbp)
    95f4:	7c 0a                	jl     9600 <safe_add_func_int32_t_s_s+0x4a>
    95f6:	8b 55 fc             	mov    -0x4(%rbp),%edx
    95f9:	8b 45 f8             	mov    -0x8(%rbp),%eax
    95fc:	01 d0                	add    %edx,%eax
    95fe:	eb 03                	jmp    9603 <safe_add_func_int32_t_s_s+0x4d>
    9600:	8b 45 fc             	mov    -0x4(%rbp),%eax
    9603:	5d                   	pop    %rbp
    9604:	c3                   	retq   

0000000000009605 <safe_sub_func_int32_t_s_s>:
    9605:	f3 0f 1e fa          	endbr64 
    9609:	55                   	push   %rbp
    960a:	48 89 e5             	mov    %rsp,%rbp
    960d:	89 7d fc             	mov    %edi,-0x4(%rbp)
    9610:	89 75 f8             	mov    %esi,-0x8(%rbp)
    9613:	8b 45 fc             	mov    -0x4(%rbp),%eax
    9616:	33 45 f8             	xor    -0x8(%rbp),%eax
    9619:	89 c2                	mov    %eax,%edx
    961b:	8b 45 fc             	mov    -0x4(%rbp),%eax
    961e:	33 45 f8             	xor    -0x8(%rbp),%eax
    9621:	25 00 00 00 80       	and    $0x80000000,%eax
    9626:	33 45 fc             	xor    -0x4(%rbp),%eax
    9629:	2b 45 f8             	sub    -0x8(%rbp),%eax
    962c:	33 45 f8             	xor    -0x8(%rbp),%eax
    962f:	21 d0                	and    %edx,%eax
    9631:	85 c0                	test   %eax,%eax
    9633:	78 08                	js     963d <safe_sub_func_int32_t_s_s+0x38>
    9635:	8b 45 fc             	mov    -0x4(%rbp),%eax
    9638:	2b 45 f8             	sub    -0x8(%rbp),%eax
    963b:	eb 03                	jmp    9640 <safe_sub_func_int32_t_s_s+0x3b>
    963d:	8b 45 fc             	mov    -0x4(%rbp),%eax
    9640:	5d                   	pop    %rbp
    9641:	c3                   	retq   

0000000000009642 <safe_mul_func_int32_t_s_s>:
    9642:	f3 0f 1e fa          	endbr64 
    9646:	55                   	push   %rbp
    9647:	48 89 e5             	mov    %rsp,%rbp
    964a:	89 7d fc             	mov    %edi,-0x4(%rbp)
    964d:	89 75 f8             	mov    %esi,-0x8(%rbp)
    9650:	83 7d fc 00          	cmpl   $0x0,-0x4(%rbp)
    9654:	7e 14                	jle    966a <safe_mul_func_int32_t_s_s+0x28>
    9656:	83 7d f8 00          	cmpl   $0x0,-0x8(%rbp)
    965a:	7e 0e                	jle    966a <safe_mul_func_int32_t_s_s+0x28>
    965c:	b8 ff ff ff 7f       	mov    $0x7fffffff,%eax
    9661:	99                   	cltd   
    9662:	f7 7d f8             	idivl  -0x8(%rbp)
    9665:	39 45 fc             	cmp    %eax,-0x4(%rbp)
    9668:	7f 5d                	jg     96c7 <safe_mul_func_int32_t_s_s+0x85>
    966a:	83 7d fc 00          	cmpl   $0x0,-0x4(%rbp)
    966e:	7e 14                	jle    9684 <safe_mul_func_int32_t_s_s+0x42>
    9670:	83 7d f8 00          	cmpl   $0x0,-0x8(%rbp)
    9674:	7f 0e                	jg     9684 <safe_mul_func_int32_t_s_s+0x42>
    9676:	b8 00 00 00 80       	mov    $0x80000000,%eax
    967b:	99                   	cltd   
    967c:	f7 7d fc             	idivl  -0x4(%rbp)
    967f:	39 45 f8             	cmp    %eax,-0x8(%rbp)
    9682:	7c 43                	jl     96c7 <safe_mul_func_int32_t_s_s+0x85>
    9684:	83 7d fc 00          	cmpl   $0x0,-0x4(%rbp)
    9688:	7f 14                	jg     969e <safe_mul_func_int32_t_s_s+0x5c>
    968a:	83 7d f8 00          	cmpl   $0x0,-0x8(%rbp)
    968e:	7e 0e                	jle    969e <safe_mul_func_int32_t_s_s+0x5c>
    9690:	b8 00 00 00 80       	mov    $0x80000000,%eax
    9695:	99                   	cltd   
    9696:	f7 7d f8             	idivl  -0x8(%rbp)
    9699:	39 45 fc             	cmp    %eax,-0x4(%rbp)
    969c:	7c 29                	jl     96c7 <safe_mul_func_int32_t_s_s+0x85>
    969e:	83 7d fc 00          	cmpl   $0x0,-0x4(%rbp)
    96a2:	7f 1a                	jg     96be <safe_mul_func_int32_t_s_s+0x7c>
    96a4:	83 7d f8 00          	cmpl   $0x0,-0x8(%rbp)
    96a8:	7f 14                	jg     96be <safe_mul_func_int32_t_s_s+0x7c>
    96aa:	83 7d fc 00          	cmpl   $0x0,-0x4(%rbp)
    96ae:	74 0e                	je     96be <safe_mul_func_int32_t_s_s+0x7c>
    96b0:	b8 ff ff ff 7f       	mov    $0x7fffffff,%eax
    96b5:	99                   	cltd   
    96b6:	f7 7d fc             	idivl  -0x4(%rbp)
    96b9:	39 45 f8             	cmp    %eax,-0x8(%rbp)
    96bc:	7c 09                	jl     96c7 <safe_mul_func_int32_t_s_s+0x85>
    96be:	8b 45 fc             	mov    -0x4(%rbp),%eax
    96c1:	0f af 45 f8          	imul   -0x8(%rbp),%eax
    96c5:	eb 03                	jmp    96ca <safe_mul_func_int32_t_s_s+0x88>
    96c7:	8b 45 fc             	mov    -0x4(%rbp),%eax
    96ca:	5d                   	pop    %rbp
    96cb:	c3                   	retq   

00000000000096cc <safe_mod_func_int32_t_s_s>:
    96cc:	f3 0f 1e fa          	endbr64 
    96d0:	55                   	push   %rbp
    96d1:	48 89 e5             	mov    %rsp,%rbp
    96d4:	89 7d fc             	mov    %edi,-0x4(%rbp)
    96d7:	89 75 f8             	mov    %esi,-0x8(%rbp)
    96da:	83 7d f8 00          	cmpl   $0x0,-0x8(%rbp)
    96de:	74 1a                	je     96fa <safe_mod_func_int32_t_s_s+0x2e>
    96e0:	81 7d fc 00 00 00 80 	cmpl   $0x80000000,-0x4(%rbp)
    96e7:	75 06                	jne    96ef <safe_mod_func_int32_t_s_s+0x23>
    96e9:	83 7d f8 ff          	cmpl   $0xffffffff,-0x8(%rbp)
    96ed:	74 0b                	je     96fa <safe_mod_func_int32_t_s_s+0x2e>
    96ef:	8b 45 fc             	mov    -0x4(%rbp),%eax
    96f2:	99                   	cltd   
    96f3:	f7 7d f8             	idivl  -0x8(%rbp)
    96f6:	89 d0                	mov    %edx,%eax
    96f8:	eb 03                	jmp    96fd <safe_mod_func_int32_t_s_s+0x31>
    96fa:	8b 45 fc             	mov    -0x4(%rbp),%eax
    96fd:	5d                   	pop    %rbp
    96fe:	c3                   	retq   

00000000000096ff <safe_div_func_int32_t_s_s>:
    96ff:	f3 0f 1e fa          	endbr64 
    9703:	55                   	push   %rbp
    9704:	48 89 e5             	mov    %rsp,%rbp
    9707:	89 7d fc             	mov    %edi,-0x4(%rbp)
    970a:	89 75 f8             	mov    %esi,-0x8(%rbp)
    970d:	83 7d f8 00          	cmpl   $0x0,-0x8(%rbp)
    9711:	74 18                	je     972b <safe_div_func_int32_t_s_s+0x2c>
    9713:	81 7d fc 00 00 00 80 	cmpl   $0x80000000,-0x4(%rbp)
    971a:	75 06                	jne    9722 <safe_div_func_int32_t_s_s+0x23>
    971c:	83 7d f8 ff          	cmpl   $0xffffffff,-0x8(%rbp)
    9720:	74 09                	je     972b <safe_div_func_int32_t_s_s+0x2c>
    9722:	8b 45 fc             	mov    -0x4(%rbp),%eax
    9725:	99                   	cltd   
    9726:	f7 7d f8             	idivl  -0x8(%rbp)
    9729:	eb 03                	jmp    972e <safe_div_func_int32_t_s_s+0x2f>
    972b:	8b 45 fc             	mov    -0x4(%rbp),%eax
    972e:	5d                   	pop    %rbp
    972f:	c3                   	retq   

0000000000009730 <safe_lshift_func_int32_t_s_s>:
    9730:	f3 0f 1e fa          	endbr64 
    9734:	55                   	push   %rbp
    9735:	48 89 e5             	mov    %rsp,%rbp
    9738:	89 7d fc             	mov    %edi,-0x4(%rbp)
    973b:	89 75 f8             	mov    %esi,-0x8(%rbp)
    973e:	83 7d fc 00          	cmpl   $0x0,-0x4(%rbp)
    9742:	78 2d                	js     9771 <safe_lshift_func_int32_t_s_s+0x41>
    9744:	83 7d f8 00          	cmpl   $0x0,-0x8(%rbp)
    9748:	78 27                	js     9771 <safe_lshift_func_int32_t_s_s+0x41>
    974a:	83 7d f8 1f          	cmpl   $0x1f,-0x8(%rbp)
    974e:	7f 21                	jg     9771 <safe_lshift_func_int32_t_s_s+0x41>
    9750:	8b 45 f8             	mov    -0x8(%rbp),%eax
    9753:	ba ff ff ff 7f       	mov    $0x7fffffff,%edx
    9758:	89 c1                	mov    %eax,%ecx
    975a:	d3 fa                	sar    %cl,%edx
    975c:	89 d0                	mov    %edx,%eax
    975e:	39 45 fc             	cmp    %eax,-0x4(%rbp)
    9761:	7f 0e                	jg     9771 <safe_lshift_func_int32_t_s_s+0x41>
    9763:	8b 45 f8             	mov    -0x8(%rbp),%eax
    9766:	8b 55 fc             	mov    -0x4(%rbp),%edx
    9769:	89 c1                	mov    %eax,%ecx
    976b:	d3 e2                	shl    %cl,%edx
    976d:	89 d0                	mov    %edx,%eax
    976f:	eb 03                	jmp    9774 <safe_lshift_func_int32_t_s_s+0x44>
    9771:	8b 45 fc             	mov    -0x4(%rbp),%eax
    9774:	5d                   	pop    %rbp
    9775:	c3                   	retq   

0000000000009776 <safe_lshift_func_int32_t_s_u>:
    9776:	f3 0f 1e fa          	endbr64 
    977a:	55                   	push   %rbp
    977b:	48 89 e5             	mov    %rsp,%rbp
    977e:	89 7d fc             	mov    %edi,-0x4(%rbp)
    9781:	89 75 f8             	mov    %esi,-0x8(%rbp)
    9784:	83 7d fc 00          	cmpl   $0x0,-0x4(%rbp)
    9788:	78 27                	js     97b1 <safe_lshift_func_int32_t_s_u+0x3b>
    978a:	83 7d f8 1f          	cmpl   $0x1f,-0x8(%rbp)
    978e:	77 21                	ja     97b1 <safe_lshift_func_int32_t_s_u+0x3b>
    9790:	8b 45 f8             	mov    -0x8(%rbp),%eax
    9793:	ba ff ff ff 7f       	mov    $0x7fffffff,%edx
    9798:	89 c1                	mov    %eax,%ecx
    979a:	d3 fa                	sar    %cl,%edx
    979c:	89 d0                	mov    %edx,%eax
    979e:	39 45 fc             	cmp    %eax,-0x4(%rbp)
    97a1:	7f 0e                	jg     97b1 <safe_lshift_func_int32_t_s_u+0x3b>
    97a3:	8b 45 f8             	mov    -0x8(%rbp),%eax
    97a6:	8b 55 fc             	mov    -0x4(%rbp),%edx
    97a9:	89 c1                	mov    %eax,%ecx
    97ab:	d3 e2                	shl    %cl,%edx
    97ad:	89 d0                	mov    %edx,%eax
    97af:	eb 03                	jmp    97b4 <safe_lshift_func_int32_t_s_u+0x3e>
    97b1:	8b 45 fc             	mov    -0x4(%rbp),%eax
    97b4:	5d                   	pop    %rbp
    97b5:	c3                   	retq   

00000000000097b6 <safe_rshift_func_int32_t_s_s>:
    97b6:	f3 0f 1e fa          	endbr64 
    97ba:	55                   	push   %rbp
    97bb:	48 89 e5             	mov    %rsp,%rbp
    97be:	89 7d fc             	mov    %edi,-0x4(%rbp)
    97c1:	89 75 f8             	mov    %esi,-0x8(%rbp)
    97c4:	83 7d fc 00          	cmpl   $0x0,-0x4(%rbp)
    97c8:	78 1a                	js     97e4 <safe_rshift_func_int32_t_s_s+0x2e>
    97ca:	83 7d f8 00          	cmpl   $0x0,-0x8(%rbp)
    97ce:	78 14                	js     97e4 <safe_rshift_func_int32_t_s_s+0x2e>
    97d0:	83 7d f8 1f          	cmpl   $0x1f,-0x8(%rbp)
    97d4:	7f 0e                	jg     97e4 <safe_rshift_func_int32_t_s_s+0x2e>
    97d6:	8b 45 f8             	mov    -0x8(%rbp),%eax
    97d9:	8b 55 fc             	mov    -0x4(%rbp),%edx
    97dc:	89 c1                	mov    %eax,%ecx
    97de:	d3 fa                	sar    %cl,%edx
    97e0:	89 d0                	mov    %edx,%eax
    97e2:	eb 03                	jmp    97e7 <safe_rshift_func_int32_t_s_s+0x31>
    97e4:	8b 45 fc             	mov    -0x4(%rbp),%eax
    97e7:	5d                   	pop    %rbp
    97e8:	c3                   	retq   

00000000000097e9 <safe_rshift_func_int32_t_s_u>:
    97e9:	f3 0f 1e fa          	endbr64 
    97ed:	55                   	push   %rbp
    97ee:	48 89 e5             	mov    %rsp,%rbp
    97f1:	89 7d fc             	mov    %edi,-0x4(%rbp)
    97f4:	89 75 f8             	mov    %esi,-0x8(%rbp)
    97f7:	83 7d fc 00          	cmpl   $0x0,-0x4(%rbp)
    97fb:	78 14                	js     9811 <safe_rshift_func_int32_t_s_u+0x28>
    97fd:	83 7d f8 1f          	cmpl   $0x1f,-0x8(%rbp)
    9801:	77 0e                	ja     9811 <safe_rshift_func_int32_t_s_u+0x28>
    9803:	8b 45 f8             	mov    -0x8(%rbp),%eax
    9806:	8b 55 fc             	mov    -0x4(%rbp),%edx
    9809:	89 c1                	mov    %eax,%ecx
    980b:	d3 fa                	sar    %cl,%edx
    980d:	89 d0                	mov    %edx,%eax
    980f:	eb 03                	jmp    9814 <safe_rshift_func_int32_t_s_u+0x2b>
    9811:	8b 45 fc             	mov    -0x4(%rbp),%eax
    9814:	5d                   	pop    %rbp
    9815:	c3                   	retq   

0000000000009816 <safe_unary_minus_func_int64_t_s>:
    9816:	f3 0f 1e fa          	endbr64 
    981a:	55                   	push   %rbp
    981b:	48 89 e5             	mov    %rsp,%rbp
    981e:	48 89 7d f8          	mov    %rdi,-0x8(%rbp)
    9822:	48 b8 00 00 00 00 00 	movabs $0x8000000000000000,%rax
    9829:	00 00 80 
    982c:	48 39 45 f8          	cmp    %rax,-0x8(%rbp)
    9830:	74 09                	je     983b <safe_unary_minus_func_int64_t_s+0x25>
    9832:	48 8b 45 f8          	mov    -0x8(%rbp),%rax
    9836:	48 f7 d8             	neg    %rax
    9839:	eb 04                	jmp    983f <safe_unary_minus_func_int64_t_s+0x29>
    983b:	48 8b 45 f8          	mov    -0x8(%rbp),%rax
    983f:	5d                   	pop    %rbp
    9840:	c3                   	retq   

0000000000009841 <safe_add_func_int64_t_s_s>:
    9841:	f3 0f 1e fa          	endbr64 
    9845:	55                   	push   %rbp
    9846:	48 89 e5             	mov    %rsp,%rbp
    9849:	48 89 7d f8          	mov    %rdi,-0x8(%rbp)
    984d:	48 89 75 f0          	mov    %rsi,-0x10(%rbp)
    9851:	48 83 7d f8 00       	cmpq   $0x0,-0x8(%rbp)
    9856:	7e 1b                	jle    9873 <safe_add_func_int64_t_s_s+0x32>
    9858:	48 83 7d f0 00       	cmpq   $0x0,-0x10(%rbp)
    985d:	7e 14                	jle    9873 <safe_add_func_int64_t_s_s+0x32>
    985f:	48 b8 ff ff ff ff ff 	movabs $0x7fffffffffffffff,%rax
    9866:	ff ff 7f 
    9869:	48 2b 45 f0          	sub    -0x10(%rbp),%rax
    986d:	48 39 45 f8          	cmp    %rax,-0x8(%rbp)
    9871:	7f 2f                	jg     98a2 <safe_add_func_int64_t_s_s+0x61>
    9873:	48 83 7d f8 00       	cmpq   $0x0,-0x8(%rbp)
    9878:	79 1b                	jns    9895 <safe_add_func_int64_t_s_s+0x54>
    987a:	48 83 7d f0 00       	cmpq   $0x0,-0x10(%rbp)
    987f:	79 14                	jns    9895 <safe_add_func_int64_t_s_s+0x54>
    9881:	48 b8 00 00 00 00 00 	movabs $0x8000000000000000,%rax
    9888:	00 00 80 
    988b:	48 2b 45 f0          	sub    -0x10(%rbp),%rax
    988f:	48 39 45 f8          	cmp    %rax,-0x8(%rbp)
    9893:	7c 0d                	jl     98a2 <safe_add_func_int64_t_s_s+0x61>
    9895:	48 8b 55 f8          	mov    -0x8(%rbp),%rdx
    9899:	48 8b 45 f0          	mov    -0x10(%rbp),%rax
    989d:	48 01 d0             	add    %rdx,%rax
    98a0:	eb 04                	jmp    98a6 <safe_add_func_int64_t_s_s+0x65>
    98a2:	48 8b 45 f8          	mov    -0x8(%rbp),%rax
    98a6:	5d                   	pop    %rbp
    98a7:	c3                   	retq   

00000000000098a8 <safe_sub_func_int64_t_s_s>:
    98a8:	f3 0f 1e fa          	endbr64 
    98ac:	55                   	push   %rbp
    98ad:	48 89 e5             	mov    %rsp,%rbp
    98b0:	48 89 7d f8          	mov    %rdi,-0x8(%rbp)
    98b4:	48 89 75 f0          	mov    %rsi,-0x10(%rbp)
    98b8:	48 8b 45 f8          	mov    -0x8(%rbp),%rax
    98bc:	48 33 45 f0          	xor    -0x10(%rbp),%rax
    98c0:	48 89 c2             	mov    %rax,%rdx
    98c3:	48 8b 45 f8          	mov    -0x8(%rbp),%rax
    98c7:	48 33 45 f0          	xor    -0x10(%rbp),%rax
    98cb:	48 b9 00 00 00 00 00 	movabs $0x8000000000000000,%rcx
    98d2:	00 00 80 
    98d5:	48 21 c8             	and    %rcx,%rax
    98d8:	48 33 45 f8          	xor    -0x8(%rbp),%rax
    98dc:	48 2b 45 f0          	sub    -0x10(%rbp),%rax
    98e0:	48 33 45 f0          	xor    -0x10(%rbp),%rax
    98e4:	48 21 d0             	and    %rdx,%rax
    98e7:	48 85 c0             	test   %rax,%rax
    98ea:	78 0a                	js     98f6 <safe_sub_func_int64_t_s_s+0x4e>
    98ec:	48 8b 45 f8          	mov    -0x8(%rbp),%rax
    98f0:	48 2b 45 f0          	sub    -0x10(%rbp),%rax
    98f4:	eb 04                	jmp    98fa <safe_sub_func_int64_t_s_s+0x52>
    98f6:	48 8b 45 f8          	mov    -0x8(%rbp),%rax
    98fa:	5d                   	pop    %rbp
    98fb:	c3                   	retq   

00000000000098fc <safe_mul_func_int64_t_s_s>:
    98fc:	f3 0f 1e fa          	endbr64 
    9900:	55                   	push   %rbp
    9901:	48 89 e5             	mov    %rsp,%rbp
    9904:	48 89 7d f8          	mov    %rdi,-0x8(%rbp)
    9908:	48 89 75 f0          	mov    %rsi,-0x10(%rbp)
    990c:	48 83 7d f8 00       	cmpq   $0x0,-0x8(%rbp)
    9911:	7e 1d                	jle    9930 <safe_mul_func_int64_t_s_s+0x34>
    9913:	48 83 7d f0 00       	cmpq   $0x0,-0x10(%rbp)
    9918:	7e 16                	jle    9930 <safe_mul_func_int64_t_s_s+0x34>
    991a:	48 b8 ff ff ff ff ff 	movabs $0x7fffffffffffffff,%rax
    9921:	ff ff 7f 
    9924:	48 99                	cqto   
    9926:	48 f7 7d f0          	idivq  -0x10(%rbp)
    992a:	48 39 45 f8          	cmp    %rax,-0x8(%rbp)
    992e:	7f 7e                	jg     99ae <safe_mul_func_int64_t_s_s+0xb2>
    9930:	48 83 7d f8 00       	cmpq   $0x0,-0x8(%rbp)
    9935:	7e 1d                	jle    9954 <safe_mul_func_int64_t_s_s+0x58>
    9937:	48 83 7d f0 00       	cmpq   $0x0,-0x10(%rbp)
    993c:	7f 16                	jg     9954 <safe_mul_func_int64_t_s_s+0x58>
    993e:	48 b8 00 00 00 00 00 	movabs $0x8000000000000000,%rax
    9945:	00 00 80 
    9948:	48 99                	cqto   
    994a:	48 f7 7d f8          	idivq  -0x8(%rbp)
    994e:	48 39 45 f0          	cmp    %rax,-0x10(%rbp)
    9952:	7c 5a                	jl     99ae <safe_mul_func_int64_t_s_s+0xb2>
    9954:	48 83 7d f8 00       	cmpq   $0x0,-0x8(%rbp)
    9959:	7f 1d                	jg     9978 <safe_mul_func_int64_t_s_s+0x7c>
    995b:	48 83 7d f0 00       	cmpq   $0x0,-0x10(%rbp)
    9960:	7e 16                	jle    9978 <safe_mul_func_int64_t_s_s+0x7c>
    9962:	48 b8 00 00 00 00 00 	movabs $0x8000000000000000,%rax
    9969:	00 00 80 
    996c:	48 99                	cqto   
    996e:	48 f7 7d f0          	idivq  -0x10(%rbp)
    9972:	48 39 45 f8          	cmp    %rax,-0x8(%rbp)
    9976:	7c 36                	jl     99ae <safe_mul_func_int64_t_s_s+0xb2>
    9978:	48 83 7d f8 00       	cmpq   $0x0,-0x8(%rbp)
    997d:	7f 24                	jg     99a3 <safe_mul_func_int64_t_s_s+0xa7>
    997f:	48 83 7d f0 00       	cmpq   $0x0,-0x10(%rbp)
    9984:	7f 1d                	jg     99a3 <safe_mul_func_int64_t_s_s+0xa7>
    9986:	48 83 7d f8 00       	cmpq   $0x0,-0x8(%rbp)
    998b:	74 16                	je     99a3 <safe_mul_func_int64_t_s_s+0xa7>
    998d:	48 b8 ff ff ff ff ff 	movabs $0x7fffffffffffffff,%rax
    9994:	ff ff 7f 
    9997:	48 99                	cqto   
    9999:	48 f7 7d f8          	idivq  -0x8(%rbp)
    999d:	48 39 45 f0          	cmp    %rax,-0x10(%rbp)
    99a1:	7c 0b                	jl     99ae <safe_mul_func_int64_t_s_s+0xb2>
    99a3:	48 8b 45 f8          	mov    -0x8(%rbp),%rax
    99a7:	48 0f af 45 f0       	imul   -0x10(%rbp),%rax
    99ac:	eb 04                	jmp    99b2 <safe_mul_func_int64_t_s_s+0xb6>
    99ae:	48 8b 45 f8          	mov    -0x8(%rbp),%rax
    99b2:	5d                   	pop    %rbp
    99b3:	c3                   	retq   

00000000000099b4 <safe_mod_func_int64_t_s_s>:
    99b4:	f3 0f 1e fa          	endbr64 
    99b8:	55                   	push   %rbp
    99b9:	48 89 e5             	mov    %rsp,%rbp
    99bc:	48 89 7d f8          	mov    %rdi,-0x8(%rbp)
    99c0:	48 89 75 f0          	mov    %rsi,-0x10(%rbp)
    99c4:	48 83 7d f0 00       	cmpq   $0x0,-0x10(%rbp)
    99c9:	74 26                	je     99f1 <safe_mod_func_int64_t_s_s+0x3d>
    99cb:	48 b8 00 00 00 00 00 	movabs $0x8000000000000000,%rax
    99d2:	00 00 80 
    99d5:	48 39 45 f8          	cmp    %rax,-0x8(%rbp)
    99d9:	75 07                	jne    99e2 <safe_mod_func_int64_t_s_s+0x2e>
    99db:	48 83 7d f0 ff       	cmpq   $0xffffffffffffffff,-0x10(%rbp)
    99e0:	74 0f                	je     99f1 <safe_mod_func_int64_t_s_s+0x3d>
    99e2:	48 8b 45 f8          	mov    -0x8(%rbp),%rax
    99e6:	48 99                	cqto   
    99e8:	48 f7 7d f0          	idivq  -0x10(%rbp)
    99ec:	48 89 d0             	mov    %rdx,%rax
    99ef:	eb 04                	jmp    99f5 <safe_mod_func_int64_t_s_s+0x41>
    99f1:	48 8b 45 f8          	mov    -0x8(%rbp),%rax
    99f5:	5d                   	pop    %rbp
    99f6:	c3                   	retq   

00000000000099f7 <safe_div_func_int64_t_s_s>:
    99f7:	f3 0f 1e fa          	endbr64 
    99fb:	55                   	push   %rbp
    99fc:	48 89 e5             	mov    %rsp,%rbp
    99ff:	48 89 7d f8          	mov    %rdi,-0x8(%rbp)
    9a03:	48 89 75 f0          	mov    %rsi,-0x10(%rbp)
    9a07:	48 83 7d f0 00       	cmpq   $0x0,-0x10(%rbp)
    9a0c:	74 23                	je     9a31 <safe_div_func_int64_t_s_s+0x3a>
    9a0e:	48 b8 00 00 00 00 00 	movabs $0x8000000000000000,%rax
    9a15:	00 00 80 
    9a18:	48 39 45 f8          	cmp    %rax,-0x8(%rbp)
    9a1c:	75 07                	jne    9a25 <safe_div_func_int64_t_s_s+0x2e>
    9a1e:	48 83 7d f0 ff       	cmpq   $0xffffffffffffffff,-0x10(%rbp)
    9a23:	74 0c                	je     9a31 <safe_div_func_int64_t_s_s+0x3a>
    9a25:	48 8b 45 f8          	mov    -0x8(%rbp),%rax
    9a29:	48 99                	cqto   
    9a2b:	48 f7 7d f0          	idivq  -0x10(%rbp)
    9a2f:	eb 04                	jmp    9a35 <safe_div_func_int64_t_s_s+0x3e>
    9a31:	48 8b 45 f8          	mov    -0x8(%rbp),%rax
    9a35:	5d                   	pop    %rbp
    9a36:	c3                   	retq   

0000000000009a37 <safe_lshift_func_int64_t_s_s>:
    9a37:	f3 0f 1e fa          	endbr64 
    9a3b:	55                   	push   %rbp
    9a3c:	48 89 e5             	mov    %rsp,%rbp
    9a3f:	48 89 7d f8          	mov    %rdi,-0x8(%rbp)
    9a43:	89 75 f4             	mov    %esi,-0xc(%rbp)
    9a46:	48 83 7d f8 00       	cmpq   $0x0,-0x8(%rbp)
    9a4b:	78 38                	js     9a85 <safe_lshift_func_int64_t_s_s+0x4e>
    9a4d:	83 7d f4 00          	cmpl   $0x0,-0xc(%rbp)
    9a51:	78 32                	js     9a85 <safe_lshift_func_int64_t_s_s+0x4e>
    9a53:	83 7d f4 1f          	cmpl   $0x1f,-0xc(%rbp)
    9a57:	7f 2c                	jg     9a85 <safe_lshift_func_int64_t_s_s+0x4e>
    9a59:	8b 45 f4             	mov    -0xc(%rbp),%eax
    9a5c:	48 ba ff ff ff ff ff 	movabs $0x7fffffffffffffff,%rdx
    9a63:	ff ff 7f 
    9a66:	89 c1                	mov    %eax,%ecx
    9a68:	48 d3 fa             	sar    %cl,%rdx
    9a6b:	48 89 d0             	mov    %rdx,%rax
    9a6e:	48 39 45 f8          	cmp    %rax,-0x8(%rbp)
    9a72:	7f 11                	jg     9a85 <safe_lshift_func_int64_t_s_s+0x4e>
    9a74:	8b 45 f4             	mov    -0xc(%rbp),%eax
    9a77:	48 8b 55 f8          	mov    -0x8(%rbp),%rdx
    9a7b:	89 c1                	mov    %eax,%ecx
    9a7d:	48 d3 e2             	shl    %cl,%rdx
    9a80:	48 89 d0             	mov    %rdx,%rax
    9a83:	eb 04                	jmp    9a89 <safe_lshift_func_int64_t_s_s+0x52>
    9a85:	48 8b 45 f8          	mov    -0x8(%rbp),%rax
    9a89:	5d                   	pop    %rbp
    9a8a:	c3                   	retq   

0000000000009a8b <safe_lshift_func_int64_t_s_u>:
    9a8b:	f3 0f 1e fa          	endbr64 
    9a8f:	55                   	push   %rbp
    9a90:	48 89 e5             	mov    %rsp,%rbp
    9a93:	48 89 7d f8          	mov    %rdi,-0x8(%rbp)
    9a97:	89 75 f4             	mov    %esi,-0xc(%rbp)
    9a9a:	48 83 7d f8 00       	cmpq   $0x0,-0x8(%rbp)
    9a9f:	78 32                	js     9ad3 <safe_lshift_func_int64_t_s_u+0x48>
    9aa1:	83 7d f4 1f          	cmpl   $0x1f,-0xc(%rbp)
    9aa5:	77 2c                	ja     9ad3 <safe_lshift_func_int64_t_s_u+0x48>
    9aa7:	8b 45 f4             	mov    -0xc(%rbp),%eax
    9aaa:	48 ba ff ff ff ff ff 	movabs $0x7fffffffffffffff,%rdx
    9ab1:	ff ff 7f 
    9ab4:	89 c1                	mov    %eax,%ecx
    9ab6:	48 d3 fa             	sar    %cl,%rdx
    9ab9:	48 89 d0             	mov    %rdx,%rax
    9abc:	48 39 45 f8          	cmp    %rax,-0x8(%rbp)
    9ac0:	7f 11                	jg     9ad3 <safe_lshift_func_int64_t_s_u+0x48>
    9ac2:	8b 45 f4             	mov    -0xc(%rbp),%eax
    9ac5:	48 8b 55 f8          	mov    -0x8(%rbp),%rdx
    9ac9:	89 c1                	mov    %eax,%ecx
    9acb:	48 d3 e2             	shl    %cl,%rdx
    9ace:	48 89 d0             	mov    %rdx,%rax
    9ad1:	eb 04                	jmp    9ad7 <safe_lshift_func_int64_t_s_u+0x4c>
    9ad3:	48 8b 45 f8          	mov    -0x8(%rbp),%rax
    9ad7:	5d                   	pop    %rbp
    9ad8:	c3                   	retq   

0000000000009ad9 <safe_rshift_func_int64_t_s_s>:
    9ad9:	f3 0f 1e fa          	endbr64 
    9add:	55                   	push   %rbp
    9ade:	48 89 e5             	mov    %rsp,%rbp
    9ae1:	48 89 7d f8          	mov    %rdi,-0x8(%rbp)
    9ae5:	89 75 f4             	mov    %esi,-0xc(%rbp)
    9ae8:	48 83 7d f8 00       	cmpq   $0x0,-0x8(%rbp)
    9aed:	78 1d                	js     9b0c <safe_rshift_func_int64_t_s_s+0x33>
    9aef:	83 7d f4 00          	cmpl   $0x0,-0xc(%rbp)
    9af3:	78 17                	js     9b0c <safe_rshift_func_int64_t_s_s+0x33>
    9af5:	83 7d f4 1f          	cmpl   $0x1f,-0xc(%rbp)
    9af9:	7f 11                	jg     9b0c <safe_rshift_func_int64_t_s_s+0x33>
    9afb:	8b 45 f4             	mov    -0xc(%rbp),%eax
    9afe:	48 8b 55 f8          	mov    -0x8(%rbp),%rdx
    9b02:	89 c1                	mov    %eax,%ecx
    9b04:	48 d3 fa             	sar    %cl,%rdx
    9b07:	48 89 d0             	mov    %rdx,%rax
    9b0a:	eb 04                	jmp    9b10 <safe_rshift_func_int64_t_s_s+0x37>
    9b0c:	48 8b 45 f8          	mov    -0x8(%rbp),%rax
    9b10:	5d                   	pop    %rbp
    9b11:	c3                   	retq   

0000000000009b12 <safe_rshift_func_int64_t_s_u>:
    9b12:	f3 0f 1e fa          	endbr64 
    9b16:	55                   	push   %rbp
    9b17:	48 89 e5             	mov    %rsp,%rbp
    9b1a:	48 89 7d f8          	mov    %rdi,-0x8(%rbp)
    9b1e:	89 75 f4             	mov    %esi,-0xc(%rbp)
    9b21:	48 83 7d f8 00       	cmpq   $0x0,-0x8(%rbp)
    9b26:	78 17                	js     9b3f <safe_rshift_func_int64_t_s_u+0x2d>
    9b28:	83 7d f4 1f          	cmpl   $0x1f,-0xc(%rbp)
    9b2c:	77 11                	ja     9b3f <safe_rshift_func_int64_t_s_u+0x2d>
    9b2e:	8b 45 f4             	mov    -0xc(%rbp),%eax
    9b31:	48 8b 55 f8          	mov    -0x8(%rbp),%rdx
    9b35:	89 c1                	mov    %eax,%ecx
    9b37:	48 d3 fa             	sar    %cl,%rdx
    9b3a:	48 89 d0             	mov    %rdx,%rax
    9b3d:	eb 04                	jmp    9b43 <safe_rshift_func_int64_t_s_u+0x31>
    9b3f:	48 8b 45 f8          	mov    -0x8(%rbp),%rax
    9b43:	5d                   	pop    %rbp
    9b44:	c3                   	retq   

0000000000009b45 <safe_unary_minus_func_uint8_t_u>:
    9b45:	f3 0f 1e fa          	endbr64 
    9b49:	55                   	push   %rbp
    9b4a:	48 89 e5             	mov    %rsp,%rbp
    9b4d:	89 f8                	mov    %edi,%eax
    9b4f:	88 45 fc             	mov    %al,-0x4(%rbp)
    9b52:	0f b6 45 fc          	movzbl -0x4(%rbp),%eax
    9b56:	f7 d8                	neg    %eax
    9b58:	5d                   	pop    %rbp
    9b59:	c3                   	retq   

0000000000009b5a <safe_add_func_uint8_t_u_u>:
    9b5a:	f3 0f 1e fa          	endbr64 
    9b5e:	55                   	push   %rbp
    9b5f:	48 89 e5             	mov    %rsp,%rbp
    9b62:	89 fa                	mov    %edi,%edx
    9b64:	89 f0                	mov    %esi,%eax
    9b66:	88 55 fc             	mov    %dl,-0x4(%rbp)
    9b69:	88 45 f8             	mov    %al,-0x8(%rbp)
    9b6c:	0f b6 55 fc          	movzbl -0x4(%rbp),%edx
    9b70:	0f b6 45 f8          	movzbl -0x8(%rbp),%eax
    9b74:	01 d0                	add    %edx,%eax
    9b76:	5d                   	pop    %rbp
    9b77:	c3                   	retq   

0000000000009b78 <safe_sub_func_uint8_t_u_u>:
    9b78:	f3 0f 1e fa          	endbr64 
    9b7c:	55                   	push   %rbp
    9b7d:	48 89 e5             	mov    %rsp,%rbp
    9b80:	89 fa                	mov    %edi,%edx
    9b82:	89 f0                	mov    %esi,%eax
    9b84:	88 55 fc             	mov    %dl,-0x4(%rbp)
    9b87:	88 45 f8             	mov    %al,-0x8(%rbp)
    9b8a:	0f b6 45 fc          	movzbl -0x4(%rbp),%eax
    9b8e:	2a 45 f8             	sub    -0x8(%rbp),%al
    9b91:	5d                   	pop    %rbp
    9b92:	c3                   	retq   

0000000000009b93 <safe_mul_func_uint8_t_u_u>:
    9b93:	f3 0f 1e fa          	endbr64 
    9b97:	55                   	push   %rbp
    9b98:	48 89 e5             	mov    %rsp,%rbp
    9b9b:	89 fa                	mov    %edi,%edx
    9b9d:	89 f0                	mov    %esi,%eax
    9b9f:	88 55 fc             	mov    %dl,-0x4(%rbp)
    9ba2:	88 45 f8             	mov    %al,-0x8(%rbp)
    9ba5:	0f b6 45 fc          	movzbl -0x4(%rbp),%eax
    9ba9:	f6 65 f8             	mulb   -0x8(%rbp)
    9bac:	5d                   	pop    %rbp
    9bad:	c3                   	retq   

0000000000009bae <safe_mod_func_uint8_t_u_u>:
    9bae:	f3 0f 1e fa          	endbr64 
    9bb2:	55                   	push   %rbp
    9bb3:	48 89 e5             	mov    %rsp,%rbp
    9bb6:	89 fa                	mov    %edi,%edx
    9bb8:	89 f0                	mov    %esi,%eax
    9bba:	88 55 fc             	mov    %dl,-0x4(%rbp)
    9bbd:	88 45 f8             	mov    %al,-0x8(%rbp)
    9bc0:	80 7d f8 00          	cmpb   $0x0,-0x8(%rbp)
    9bc4:	74 0f                	je     9bd5 <safe_mod_func_uint8_t_u_u+0x27>
    9bc6:	0f b6 45 fc          	movzbl -0x4(%rbp),%eax
    9bca:	0f b6 c0             	movzbl %al,%eax
    9bcd:	f6 75 f8             	divb   -0x8(%rbp)
    9bd0:	0f b6 c4             	movzbl %ah,%eax
    9bd3:	eb 04                	jmp    9bd9 <safe_mod_func_uint8_t_u_u+0x2b>
    9bd5:	0f b6 45 fc          	movzbl -0x4(%rbp),%eax
    9bd9:	5d                   	pop    %rbp
    9bda:	c3                   	retq   

0000000000009bdb <safe_div_func_uint8_t_u_u>:
    9bdb:	f3 0f 1e fa          	endbr64 
    9bdf:	55                   	push   %rbp
    9be0:	48 89 e5             	mov    %rsp,%rbp
    9be3:	89 fa                	mov    %edi,%edx
    9be5:	89 f0                	mov    %esi,%eax
    9be7:	88 55 fc             	mov    %dl,-0x4(%rbp)
    9bea:	88 45 f8             	mov    %al,-0x8(%rbp)
    9bed:	80 7d f8 00          	cmpb   $0x0,-0x8(%rbp)
    9bf1:	74 0c                	je     9bff <safe_div_func_uint8_t_u_u+0x24>
    9bf3:	0f b6 45 fc          	movzbl -0x4(%rbp),%eax
    9bf7:	0f b6 c0             	movzbl %al,%eax
    9bfa:	f6 75 f8             	divb   -0x8(%rbp)
    9bfd:	eb 04                	jmp    9c03 <safe_div_func_uint8_t_u_u+0x28>
    9bff:	0f b6 45 fc          	movzbl -0x4(%rbp),%eax
    9c03:	5d                   	pop    %rbp
    9c04:	c3                   	retq   

0000000000009c05 <safe_lshift_func_uint8_t_u_s>:
    9c05:	f3 0f 1e fa          	endbr64 
    9c09:	55                   	push   %rbp
    9c0a:	48 89 e5             	mov    %rsp,%rbp
    9c0d:	89 f8                	mov    %edi,%eax
    9c0f:	89 75 f8             	mov    %esi,-0x8(%rbp)
    9c12:	88 45 fc             	mov    %al,-0x4(%rbp)
    9c15:	83 7d f8 00          	cmpl   $0x0,-0x8(%rbp)
    9c19:	78 2b                	js     9c46 <safe_lshift_func_uint8_t_u_s+0x41>
    9c1b:	83 7d f8 1f          	cmpl   $0x1f,-0x8(%rbp)
    9c1f:	7f 25                	jg     9c46 <safe_lshift_func_uint8_t_u_s+0x41>
    9c21:	0f b6 55 fc          	movzbl -0x4(%rbp),%edx
    9c25:	8b 45 f8             	mov    -0x8(%rbp),%eax
    9c28:	be ff 00 00 00       	mov    $0xff,%esi
    9c2d:	89 c1                	mov    %eax,%ecx
    9c2f:	d3 fe                	sar    %cl,%esi
    9c31:	89 f0                	mov    %esi,%eax
    9c33:	39 c2                	cmp    %eax,%edx
    9c35:	7f 0f                	jg     9c46 <safe_lshift_func_uint8_t_u_s+0x41>
    9c37:	0f b6 55 fc          	movzbl -0x4(%rbp),%edx
    9c3b:	8b 45 f8             	mov    -0x8(%rbp),%eax
    9c3e:	89 c1                	mov    %eax,%ecx
    9c40:	d3 e2                	shl    %cl,%edx
    9c42:	89 d0                	mov    %edx,%eax
    9c44:	eb 04                	jmp    9c4a <safe_lshift_func_uint8_t_u_s+0x45>
    9c46:	0f b6 45 fc          	movzbl -0x4(%rbp),%eax
    9c4a:	5d                   	pop    %rbp
    9c4b:	c3                   	retq   

0000000000009c4c <safe_lshift_func_uint8_t_u_u>:
    9c4c:	f3 0f 1e fa          	endbr64 
    9c50:	55                   	push   %rbp
    9c51:	48 89 e5             	mov    %rsp,%rbp
    9c54:	89 f8                	mov    %edi,%eax
    9c56:	89 75 f8             	mov    %esi,-0x8(%rbp)
    9c59:	88 45 fc             	mov    %al,-0x4(%rbp)
    9c5c:	83 7d f8 1f          	cmpl   $0x1f,-0x8(%rbp)
    9c60:	77 25                	ja     9c87 <safe_lshift_func_uint8_t_u_u+0x3b>
    9c62:	0f b6 55 fc          	movzbl -0x4(%rbp),%edx
    9c66:	8b 45 f8             	mov    -0x8(%rbp),%eax
    9c69:	be ff 00 00 00       	mov    $0xff,%esi
    9c6e:	89 c1                	mov    %eax,%ecx
    9c70:	d3 fe                	sar    %cl,%esi
    9c72:	89 f0                	mov    %esi,%eax
    9c74:	39 c2                	cmp    %eax,%edx
    9c76:	7f 0f                	jg     9c87 <safe_lshift_func_uint8_t_u_u+0x3b>
    9c78:	0f b6 55 fc          	movzbl -0x4(%rbp),%edx
    9c7c:	8b 45 f8             	mov    -0x8(%rbp),%eax
    9c7f:	89 c1                	mov    %eax,%ecx
    9c81:	d3 e2                	shl    %cl,%edx
    9c83:	89 d0                	mov    %edx,%eax
    9c85:	eb 04                	jmp    9c8b <safe_lshift_func_uint8_t_u_u+0x3f>
    9c87:	0f b6 45 fc          	movzbl -0x4(%rbp),%eax
    9c8b:	5d                   	pop    %rbp
    9c8c:	c3                   	retq   

0000000000009c8d <safe_rshift_func_uint8_t_u_s>:
    9c8d:	f3 0f 1e fa          	endbr64 
    9c91:	55                   	push   %rbp
    9c92:	48 89 e5             	mov    %rsp,%rbp
    9c95:	89 f8                	mov    %edi,%eax
    9c97:	89 75 f8             	mov    %esi,-0x8(%rbp)
    9c9a:	88 45 fc             	mov    %al,-0x4(%rbp)
    9c9d:	83 7d f8 00          	cmpl   $0x0,-0x8(%rbp)
    9ca1:	78 15                	js     9cb8 <safe_rshift_func_uint8_t_u_s+0x2b>
    9ca3:	83 7d f8 1f          	cmpl   $0x1f,-0x8(%rbp)
    9ca7:	7f 0f                	jg     9cb8 <safe_rshift_func_uint8_t_u_s+0x2b>
    9ca9:	0f b6 55 fc          	movzbl -0x4(%rbp),%edx
    9cad:	8b 45 f8             	mov    -0x8(%rbp),%eax
    9cb0:	89 c1                	mov    %eax,%ecx
    9cb2:	d3 fa                	sar    %cl,%edx
    9cb4:	89 d0                	mov    %edx,%eax
    9cb6:	eb 04                	jmp    9cbc <safe_rshift_func_uint8_t_u_s+0x2f>
    9cb8:	0f b6 45 fc          	movzbl -0x4(%rbp),%eax
    9cbc:	5d                   	pop    %rbp
    9cbd:	c3                   	retq   

0000000000009cbe <safe_rshift_func_uint8_t_u_u>:
    9cbe:	f3 0f 1e fa          	endbr64 
    9cc2:	55                   	push   %rbp
    9cc3:	48 89 e5             	mov    %rsp,%rbp
    9cc6:	89 f8                	mov    %edi,%eax
    9cc8:	89 75 f8             	mov    %esi,-0x8(%rbp)
    9ccb:	88 45 fc             	mov    %al,-0x4(%rbp)
    9cce:	83 7d f8 1f          	cmpl   $0x1f,-0x8(%rbp)
    9cd2:	77 0f                	ja     9ce3 <safe_rshift_func_uint8_t_u_u+0x25>
    9cd4:	0f b6 55 fc          	movzbl -0x4(%rbp),%edx
    9cd8:	8b 45 f8             	mov    -0x8(%rbp),%eax
    9cdb:	89 c1                	mov    %eax,%ecx
    9cdd:	d3 fa                	sar    %cl,%edx
    9cdf:	89 d0                	mov    %edx,%eax
    9ce1:	eb 04                	jmp    9ce7 <safe_rshift_func_uint8_t_u_u+0x29>
    9ce3:	0f b6 45 fc          	movzbl -0x4(%rbp),%eax
    9ce7:	5d                   	pop    %rbp
    9ce8:	c3                   	retq   

0000000000009ce9 <safe_unary_minus_func_uint16_t_u>:
    9ce9:	f3 0f 1e fa          	endbr64 
    9ced:	55                   	push   %rbp
    9cee:	48 89 e5             	mov    %rsp,%rbp
    9cf1:	89 f8                	mov    %edi,%eax
    9cf3:	66 89 45 fc          	mov    %ax,-0x4(%rbp)
    9cf7:	0f b7 45 fc          	movzwl -0x4(%rbp),%eax
    9cfb:	f7 d8                	neg    %eax
    9cfd:	5d                   	pop    %rbp
    9cfe:	c3                   	retq   

0000000000009cff <safe_add_func_uint16_t_u_u>:
    9cff:	f3 0f 1e fa          	endbr64 
    9d03:	55                   	push   %rbp
    9d04:	48 89 e5             	mov    %rsp,%rbp
    9d07:	89 fa                	mov    %edi,%edx
    9d09:	89 f0                	mov    %esi,%eax
    9d0b:	66 89 55 fc          	mov    %dx,-0x4(%rbp)
    9d0f:	66 89 45 f8          	mov    %ax,-0x8(%rbp)
    9d13:	0f b7 55 fc          	movzwl -0x4(%rbp),%edx
    9d17:	0f b7 45 f8          	movzwl -0x8(%rbp),%eax
    9d1b:	01 d0                	add    %edx,%eax
    9d1d:	5d                   	pop    %rbp
    9d1e:	c3                   	retq   

0000000000009d1f <safe_sub_func_uint16_t_u_u>:
    9d1f:	f3 0f 1e fa          	endbr64 
    9d23:	55                   	push   %rbp
    9d24:	48 89 e5             	mov    %rsp,%rbp
    9d27:	89 fa                	mov    %edi,%edx
    9d29:	89 f0                	mov    %esi,%eax
    9d2b:	66 89 55 fc          	mov    %dx,-0x4(%rbp)
    9d2f:	66 89 45 f8          	mov    %ax,-0x8(%rbp)
    9d33:	0f b7 45 fc          	movzwl -0x4(%rbp),%eax
    9d37:	66 2b 45 f8          	sub    -0x8(%rbp),%ax
    9d3b:	5d                   	pop    %rbp
    9d3c:	c3                   	retq   

0000000000009d3d <safe_mul_func_uint16_t_u_u>:
    9d3d:	f3 0f 1e fa          	endbr64 
    9d41:	55                   	push   %rbp
    9d42:	48 89 e5             	mov    %rsp,%rbp
    9d45:	89 fa                	mov    %edi,%edx
    9d47:	89 f0                	mov    %esi,%eax
    9d49:	66 89 55 fc          	mov    %dx,-0x4(%rbp)
    9d4d:	66 89 45 f8          	mov    %ax,-0x8(%rbp)
    9d51:	0f b7 45 fc          	movzwl -0x4(%rbp),%eax
    9d55:	66 0f af 45 f8       	imul   -0x8(%rbp),%ax
    9d5a:	5d                   	pop    %rbp
    9d5b:	c3                   	retq   

0000000000009d5c <safe_mod_func_uint16_t_u_u>:
    9d5c:	f3 0f 1e fa          	endbr64 
    9d60:	55                   	push   %rbp
    9d61:	48 89 e5             	mov    %rsp,%rbp
    9d64:	89 fa                	mov    %edi,%edx
    9d66:	89 f0                	mov    %esi,%eax
    9d68:	66 89 55 fc          	mov    %dx,-0x4(%rbp)
    9d6c:	66 89 45 f8          	mov    %ax,-0x8(%rbp)
    9d70:	66 83 7d f8 00       	cmpw   $0x0,-0x8(%rbp)
    9d75:	74 11                	je     9d88 <safe_mod_func_uint16_t_u_u+0x2c>
    9d77:	0f b7 45 fc          	movzwl -0x4(%rbp),%eax
    9d7b:	ba 00 00 00 00       	mov    $0x0,%edx
    9d80:	66 f7 75 f8          	divw   -0x8(%rbp)
    9d84:	89 d0                	mov    %edx,%eax
    9d86:	eb 04                	jmp    9d8c <safe_mod_func_uint16_t_u_u+0x30>
    9d88:	0f b7 45 fc          	movzwl -0x4(%rbp),%eax
    9d8c:	5d                   	pop    %rbp
    9d8d:	c3                   	retq   

0000000000009d8e <safe_div_func_uint16_t_u_u>:
    9d8e:	f3 0f 1e fa          	endbr64 
    9d92:	55                   	push   %rbp
    9d93:	48 89 e5             	mov    %rsp,%rbp
    9d96:	89 fa                	mov    %edi,%edx
    9d98:	89 f0                	mov    %esi,%eax
    9d9a:	66 89 55 fc          	mov    %dx,-0x4(%rbp)
    9d9e:	66 89 45 f8          	mov    %ax,-0x8(%rbp)
    9da2:	66 83 7d f8 00       	cmpw   $0x0,-0x8(%rbp)
    9da7:	74 0f                	je     9db8 <safe_div_func_uint16_t_u_u+0x2a>
    9da9:	0f b7 45 fc          	movzwl -0x4(%rbp),%eax
    9dad:	ba 00 00 00 00       	mov    $0x0,%edx
    9db2:	66 f7 75 f8          	divw   -0x8(%rbp)
    9db6:	eb 04                	jmp    9dbc <safe_div_func_uint16_t_u_u+0x2e>
    9db8:	0f b7 45 fc          	movzwl -0x4(%rbp),%eax
    9dbc:	5d                   	pop    %rbp
    9dbd:	c3                   	retq   

0000000000009dbe <safe_lshift_func_uint16_t_u_s>:
    9dbe:	f3 0f 1e fa          	endbr64 
    9dc2:	55                   	push   %rbp
    9dc3:	48 89 e5             	mov    %rsp,%rbp
    9dc6:	89 f8                	mov    %edi,%eax
    9dc8:	89 75 f8             	mov    %esi,-0x8(%rbp)
    9dcb:	66 89 45 fc          	mov    %ax,-0x4(%rbp)
    9dcf:	83 7d f8 00          	cmpl   $0x0,-0x8(%rbp)
    9dd3:	78 2b                	js     9e00 <safe_lshift_func_uint16_t_u_s+0x42>
    9dd5:	83 7d f8 1f          	cmpl   $0x1f,-0x8(%rbp)
    9dd9:	7f 25                	jg     9e00 <safe_lshift_func_uint16_t_u_s+0x42>
    9ddb:	0f b7 55 fc          	movzwl -0x4(%rbp),%edx
    9ddf:	8b 45 f8             	mov    -0x8(%rbp),%eax
    9de2:	be ff ff 00 00       	mov    $0xffff,%esi
    9de7:	89 c1                	mov    %eax,%ecx
    9de9:	d3 fe                	sar    %cl,%esi
    9deb:	89 f0                	mov    %esi,%eax
    9ded:	39 c2                	cmp    %eax,%edx
    9def:	7f 0f                	jg     9e00 <safe_lshift_func_uint16_t_u_s+0x42>
    9df1:	0f b7 55 fc          	movzwl -0x4(%rbp),%edx
    9df5:	8b 45 f8             	mov    -0x8(%rbp),%eax
    9df8:	89 c1                	mov    %eax,%ecx
    9dfa:	d3 e2                	shl    %cl,%edx
    9dfc:	89 d0                	mov    %edx,%eax
    9dfe:	eb 04                	jmp    9e04 <safe_lshift_func_uint16_t_u_s+0x46>
    9e00:	0f b7 45 fc          	movzwl -0x4(%rbp),%eax
    9e04:	5d                   	pop    %rbp
    9e05:	c3                   	retq   

0000000000009e06 <safe_lshift_func_uint16_t_u_u>:
    9e06:	f3 0f 1e fa          	endbr64 
    9e0a:	55                   	push   %rbp
    9e0b:	48 89 e5             	mov    %rsp,%rbp
    9e0e:	89 f8                	mov    %edi,%eax
    9e10:	89 75 f8             	mov    %esi,-0x8(%rbp)
    9e13:	66 89 45 fc          	mov    %ax,-0x4(%rbp)
    9e17:	83 7d f8 1f          	cmpl   $0x1f,-0x8(%rbp)
    9e1b:	77 25                	ja     9e42 <safe_lshift_func_uint16_t_u_u+0x3c>
    9e1d:	0f b7 55 fc          	movzwl -0x4(%rbp),%edx
    9e21:	8b 45 f8             	mov    -0x8(%rbp),%eax
    9e24:	be ff ff 00 00       	mov    $0xffff,%esi
    9e29:	89 c1                	mov    %eax,%ecx
    9e2b:	d3 fe                	sar    %cl,%esi
    9e2d:	89 f0                	mov    %esi,%eax
    9e2f:	39 c2                	cmp    %eax,%edx
    9e31:	7f 0f                	jg     9e42 <safe_lshift_func_uint16_t_u_u+0x3c>
    9e33:	0f b7 55 fc          	movzwl -0x4(%rbp),%edx
    9e37:	8b 45 f8             	mov    -0x8(%rbp),%eax
    9e3a:	89 c1                	mov    %eax,%ecx
    9e3c:	d3 e2                	shl    %cl,%edx
    9e3e:	89 d0                	mov    %edx,%eax
    9e40:	eb 04                	jmp    9e46 <safe_lshift_func_uint16_t_u_u+0x40>
    9e42:	0f b7 45 fc          	movzwl -0x4(%rbp),%eax
    9e46:	5d                   	pop    %rbp
    9e47:	c3                   	retq   

0000000000009e48 <safe_rshift_func_uint16_t_u_s>:
    9e48:	f3 0f 1e fa          	endbr64 
    9e4c:	55                   	push   %rbp
    9e4d:	48 89 e5             	mov    %rsp,%rbp
    9e50:	89 f8                	mov    %edi,%eax
    9e52:	89 75 f8             	mov    %esi,-0x8(%rbp)
    9e55:	66 89 45 fc          	mov    %ax,-0x4(%rbp)
    9e59:	83 7d f8 00          	cmpl   $0x0,-0x8(%rbp)
    9e5d:	78 15                	js     9e74 <safe_rshift_func_uint16_t_u_s+0x2c>
    9e5f:	83 7d f8 1f          	cmpl   $0x1f,-0x8(%rbp)
    9e63:	7f 0f                	jg     9e74 <safe_rshift_func_uint16_t_u_s+0x2c>
    9e65:	0f b7 55 fc          	movzwl -0x4(%rbp),%edx
    9e69:	8b 45 f8             	mov    -0x8(%rbp),%eax
    9e6c:	89 c1                	mov    %eax,%ecx
    9e6e:	d3 fa                	sar    %cl,%edx
    9e70:	89 d0                	mov    %edx,%eax
    9e72:	eb 04                	jmp    9e78 <safe_rshift_func_uint16_t_u_s+0x30>
    9e74:	0f b7 45 fc          	movzwl -0x4(%rbp),%eax
    9e78:	5d                   	pop    %rbp
    9e79:	c3                   	retq   

0000000000009e7a <safe_rshift_func_uint16_t_u_u>:
    9e7a:	f3 0f 1e fa          	endbr64 
    9e7e:	55                   	push   %rbp
    9e7f:	48 89 e5             	mov    %rsp,%rbp
    9e82:	89 f8                	mov    %edi,%eax
    9e84:	89 75 f8             	mov    %esi,-0x8(%rbp)
    9e87:	66 89 45 fc          	mov    %ax,-0x4(%rbp)
    9e8b:	83 7d f8 1f          	cmpl   $0x1f,-0x8(%rbp)
    9e8f:	77 0f                	ja     9ea0 <safe_rshift_func_uint16_t_u_u+0x26>
    9e91:	0f b7 55 fc          	movzwl -0x4(%rbp),%edx
    9e95:	8b 45 f8             	mov    -0x8(%rbp),%eax
    9e98:	89 c1                	mov    %eax,%ecx
    9e9a:	d3 fa                	sar    %cl,%edx
    9e9c:	89 d0                	mov    %edx,%eax
    9e9e:	eb 04                	jmp    9ea4 <safe_rshift_func_uint16_t_u_u+0x2a>
    9ea0:	0f b7 45 fc          	movzwl -0x4(%rbp),%eax
    9ea4:	5d                   	pop    %rbp
    9ea5:	c3                   	retq   

0000000000009ea6 <safe_unary_minus_func_uint32_t_u>:
    9ea6:	f3 0f 1e fa          	endbr64 
    9eaa:	55                   	push   %rbp
    9eab:	48 89 e5             	mov    %rsp,%rbp
    9eae:	89 7d fc             	mov    %edi,-0x4(%rbp)
    9eb1:	8b 45 fc             	mov    -0x4(%rbp),%eax
    9eb4:	f7 d8                	neg    %eax
    9eb6:	5d                   	pop    %rbp
    9eb7:	c3                   	retq   

0000000000009eb8 <safe_add_func_uint32_t_u_u>:
    9eb8:	f3 0f 1e fa          	endbr64 
    9ebc:	55                   	push   %rbp
    9ebd:	48 89 e5             	mov    %rsp,%rbp
    9ec0:	89 7d fc             	mov    %edi,-0x4(%rbp)
    9ec3:	89 75 f8             	mov    %esi,-0x8(%rbp)
    9ec6:	8b 55 fc             	mov    -0x4(%rbp),%edx
    9ec9:	8b 45 f8             	mov    -0x8(%rbp),%eax
    9ecc:	01 d0                	add    %edx,%eax
    9ece:	5d                   	pop    %rbp
    9ecf:	c3                   	retq   

0000000000009ed0 <safe_sub_func_uint32_t_u_u>:
    9ed0:	f3 0f 1e fa          	endbr64 
    9ed4:	55                   	push   %rbp
    9ed5:	48 89 e5             	mov    %rsp,%rbp
    9ed8:	89 7d fc             	mov    %edi,-0x4(%rbp)
    9edb:	89 75 f8             	mov    %esi,-0x8(%rbp)
    9ede:	8b 45 fc             	mov    -0x4(%rbp),%eax
    9ee1:	2b 45 f8             	sub    -0x8(%rbp),%eax
    9ee4:	5d                   	pop    %rbp
    9ee5:	c3                   	retq   

0000000000009ee6 <safe_mul_func_uint32_t_u_u>:
    9ee6:	f3 0f 1e fa          	endbr64 
    9eea:	55                   	push   %rbp
    9eeb:	48 89 e5             	mov    %rsp,%rbp
    9eee:	89 7d fc             	mov    %edi,-0x4(%rbp)
    9ef1:	89 75 f8             	mov    %esi,-0x8(%rbp)
    9ef4:	8b 45 fc             	mov    -0x4(%rbp),%eax
    9ef7:	0f af 45 f8          	imul   -0x8(%rbp),%eax
    9efb:	5d                   	pop    %rbp
    9efc:	c3                   	retq   

0000000000009efd <safe_mod_func_uint32_t_u_u>:
    9efd:	f3 0f 1e fa          	endbr64 
    9f01:	55                   	push   %rbp
    9f02:	48 89 e5             	mov    %rsp,%rbp
    9f05:	89 7d fc             	mov    %edi,-0x4(%rbp)
    9f08:	89 75 f8             	mov    %esi,-0x8(%rbp)
    9f0b:	83 7d f8 00          	cmpl   $0x0,-0x8(%rbp)
    9f0f:	74 0f                	je     9f20 <safe_mod_func_uint32_t_u_u+0x23>
    9f11:	8b 45 fc             	mov    -0x4(%rbp),%eax
    9f14:	ba 00 00 00 00       	mov    $0x0,%edx
    9f19:	f7 75 f8             	divl   -0x8(%rbp)
    9f1c:	89 d0                	mov    %edx,%eax
    9f1e:	eb 03                	jmp    9f23 <safe_mod_func_uint32_t_u_u+0x26>
    9f20:	8b 45 fc             	mov    -0x4(%rbp),%eax
    9f23:	5d                   	pop    %rbp
    9f24:	c3                   	retq   

0000000000009f25 <safe_div_func_uint32_t_u_u>:
    9f25:	f3 0f 1e fa          	endbr64 
    9f29:	55                   	push   %rbp
    9f2a:	48 89 e5             	mov    %rsp,%rbp
    9f2d:	89 7d fc             	mov    %edi,-0x4(%rbp)
    9f30:	89 75 f8             	mov    %esi,-0x8(%rbp)
    9f33:	83 7d f8 00          	cmpl   $0x0,-0x8(%rbp)
    9f37:	74 0d                	je     9f46 <safe_div_func_uint32_t_u_u+0x21>
    9f39:	8b 45 fc             	mov    -0x4(%rbp),%eax
    9f3c:	ba 00 00 00 00       	mov    $0x0,%edx
    9f41:	f7 75 f8             	divl   -0x8(%rbp)
    9f44:	eb 03                	jmp    9f49 <safe_div_func_uint32_t_u_u+0x24>
    9f46:	8b 45 fc             	mov    -0x4(%rbp),%eax
    9f49:	5d                   	pop    %rbp
    9f4a:	c3                   	retq   

0000000000009f4b <safe_lshift_func_uint32_t_u_s>:
    9f4b:	f3 0f 1e fa          	endbr64 
    9f4f:	55                   	push   %rbp
    9f50:	48 89 e5             	mov    %rsp,%rbp
    9f53:	89 7d fc             	mov    %edi,-0x4(%rbp)
    9f56:	89 75 f8             	mov    %esi,-0x8(%rbp)
    9f59:	83 7d f8 00          	cmpl   $0x0,-0x8(%rbp)
    9f5d:	78 27                	js     9f86 <safe_lshift_func_uint32_t_u_s+0x3b>
    9f5f:	83 7d f8 1f          	cmpl   $0x1f,-0x8(%rbp)
    9f63:	7f 21                	jg     9f86 <safe_lshift_func_uint32_t_u_s+0x3b>
    9f65:	8b 45 f8             	mov    -0x8(%rbp),%eax
    9f68:	ba ff ff ff ff       	mov    $0xffffffff,%edx
    9f6d:	89 c1                	mov    %eax,%ecx
    9f6f:	d3 ea                	shr    %cl,%edx
    9f71:	89 d0                	mov    %edx,%eax
    9f73:	39 45 fc             	cmp    %eax,-0x4(%rbp)
    9f76:	77 0e                	ja     9f86 <safe_lshift_func_uint32_t_u_s+0x3b>
    9f78:	8b 45 f8             	mov    -0x8(%rbp),%eax
    9f7b:	8b 55 fc             	mov    -0x4(%rbp),%edx
    9f7e:	89 c1                	mov    %eax,%ecx
    9f80:	d3 e2                	shl    %cl,%edx
    9f82:	89 d0                	mov    %edx,%eax
    9f84:	eb 03                	jmp    9f89 <safe_lshift_func_uint32_t_u_s+0x3e>
    9f86:	8b 45 fc             	mov    -0x4(%rbp),%eax
    9f89:	5d                   	pop    %rbp
    9f8a:	c3                   	retq   

0000000000009f8b <safe_lshift_func_uint32_t_u_u>:
    9f8b:	f3 0f 1e fa          	endbr64 
    9f8f:	55                   	push   %rbp
    9f90:	48 89 e5             	mov    %rsp,%rbp
    9f93:	89 7d fc             	mov    %edi,-0x4(%rbp)
    9f96:	89 75 f8             	mov    %esi,-0x8(%rbp)
    9f99:	83 7d f8 1f          	cmpl   $0x1f,-0x8(%rbp)
    9f9d:	77 21                	ja     9fc0 <safe_lshift_func_uint32_t_u_u+0x35>
    9f9f:	8b 45 f8             	mov    -0x8(%rbp),%eax
    9fa2:	ba ff ff ff ff       	mov    $0xffffffff,%edx
    9fa7:	89 c1                	mov    %eax,%ecx
    9fa9:	d3 ea                	shr    %cl,%edx
    9fab:	89 d0                	mov    %edx,%eax
    9fad:	39 45 fc             	cmp    %eax,-0x4(%rbp)
    9fb0:	77 0e                	ja     9fc0 <safe_lshift_func_uint32_t_u_u+0x35>
    9fb2:	8b 45 f8             	mov    -0x8(%rbp),%eax
    9fb5:	8b 55 fc             	mov    -0x4(%rbp),%edx
    9fb8:	89 c1                	mov    %eax,%ecx
    9fba:	d3 e2                	shl    %cl,%edx
    9fbc:	89 d0                	mov    %edx,%eax
    9fbe:	eb 03                	jmp    9fc3 <safe_lshift_func_uint32_t_u_u+0x38>
    9fc0:	8b 45 fc             	mov    -0x4(%rbp),%eax
    9fc3:	5d                   	pop    %rbp
    9fc4:	c3                   	retq   

0000000000009fc5 <safe_rshift_func_uint32_t_u_s>:
    9fc5:	f3 0f 1e fa          	endbr64 
    9fc9:	55                   	push   %rbp
    9fca:	48 89 e5             	mov    %rsp,%rbp
    9fcd:	89 7d fc             	mov    %edi,-0x4(%rbp)
    9fd0:	89 75 f8             	mov    %esi,-0x8(%rbp)
    9fd3:	83 7d f8 00          	cmpl   $0x0,-0x8(%rbp)
    9fd7:	78 14                	js     9fed <safe_rshift_func_uint32_t_u_s+0x28>
    9fd9:	83 7d f8 1f          	cmpl   $0x1f,-0x8(%rbp)
    9fdd:	7f 0e                	jg     9fed <safe_rshift_func_uint32_t_u_s+0x28>
    9fdf:	8b 45 f8             	mov    -0x8(%rbp),%eax
    9fe2:	8b 55 fc             	mov    -0x4(%rbp),%edx
    9fe5:	89 c1                	mov    %eax,%ecx
    9fe7:	d3 ea                	shr    %cl,%edx
    9fe9:	89 d0                	mov    %edx,%eax
    9feb:	eb 03                	jmp    9ff0 <safe_rshift_func_uint32_t_u_s+0x2b>
    9fed:	8b 45 fc             	mov    -0x4(%rbp),%eax
    9ff0:	5d                   	pop    %rbp
    9ff1:	c3                   	retq   

0000000000009ff2 <safe_rshift_func_uint32_t_u_u>:
    9ff2:	f3 0f 1e fa          	endbr64 
    9ff6:	55                   	push   %rbp
    9ff7:	48 89 e5             	mov    %rsp,%rbp
    9ffa:	89 7d fc             	mov    %edi,-0x4(%rbp)
    9ffd:	89 75 f8             	mov    %esi,-0x8(%rbp)
    a000:	83 7d f8 1f          	cmpl   $0x1f,-0x8(%rbp)
    a004:	77 0e                	ja     a014 <safe_rshift_func_uint32_t_u_u+0x22>
    a006:	8b 45 f8             	mov    -0x8(%rbp),%eax
    a009:	8b 55 fc             	mov    -0x4(%rbp),%edx
    a00c:	89 c1                	mov    %eax,%ecx
    a00e:	d3 ea                	shr    %cl,%edx
    a010:	89 d0                	mov    %edx,%eax
    a012:	eb 03                	jmp    a017 <safe_rshift_func_uint32_t_u_u+0x25>
    a014:	8b 45 fc             	mov    -0x4(%rbp),%eax
    a017:	5d                   	pop    %rbp
    a018:	c3                   	retq   

000000000000a019 <safe_unary_minus_func_uint64_t_u>:
    a019:	f3 0f 1e fa          	endbr64 
    a01d:	55                   	push   %rbp
    a01e:	48 89 e5             	mov    %rsp,%rbp
    a021:	48 89 7d f8          	mov    %rdi,-0x8(%rbp)
    a025:	48 8b 45 f8          	mov    -0x8(%rbp),%rax
    a029:	48 f7 d8             	neg    %rax
    a02c:	5d                   	pop    %rbp
    a02d:	c3                   	retq   

000000000000a02e <safe_add_func_uint64_t_u_u>:
    a02e:	f3 0f 1e fa          	endbr64 
    a032:	55                   	push   %rbp
    a033:	48 89 e5             	mov    %rsp,%rbp
    a036:	48 89 7d f8          	mov    %rdi,-0x8(%rbp)
    a03a:	48 89 75 f0          	mov    %rsi,-0x10(%rbp)
    a03e:	48 8b 55 f8          	mov    -0x8(%rbp),%rdx
    a042:	48 8b 45 f0          	mov    -0x10(%rbp),%rax
    a046:	48 01 d0             	add    %rdx,%rax
    a049:	5d                   	pop    %rbp
    a04a:	c3                   	retq   

000000000000a04b <safe_sub_func_uint64_t_u_u>:
    a04b:	f3 0f 1e fa          	endbr64 
    a04f:	55                   	push   %rbp
    a050:	48 89 e5             	mov    %rsp,%rbp
    a053:	48 89 7d f8          	mov    %rdi,-0x8(%rbp)
    a057:	48 89 75 f0          	mov    %rsi,-0x10(%rbp)
    a05b:	48 8b 45 f8          	mov    -0x8(%rbp),%rax
    a05f:	48 2b 45 f0          	sub    -0x10(%rbp),%rax
    a063:	5d                   	pop    %rbp
    a064:	c3                   	retq   

000000000000a065 <safe_mul_func_uint64_t_u_u>:
    a065:	f3 0f 1e fa          	endbr64 
    a069:	55                   	push   %rbp
    a06a:	48 89 e5             	mov    %rsp,%rbp
    a06d:	48 89 7d f8          	mov    %rdi,-0x8(%rbp)
    a071:	48 89 75 f0          	mov    %rsi,-0x10(%rbp)
    a075:	48 8b 45 f8          	mov    -0x8(%rbp),%rax
    a079:	48 0f af 45 f0       	imul   -0x10(%rbp),%rax
    a07e:	5d                   	pop    %rbp
    a07f:	c3                   	retq   

000000000000a080 <safe_mod_func_uint64_t_u_u>:
    a080:	f3 0f 1e fa          	endbr64 
    a084:	55                   	push   %rbp
    a085:	48 89 e5             	mov    %rsp,%rbp
    a088:	48 89 7d f8          	mov    %rdi,-0x8(%rbp)
    a08c:	48 89 75 f0          	mov    %rsi,-0x10(%rbp)
    a090:	48 83 7d f0 00       	cmpq   $0x0,-0x10(%rbp)
    a095:	74 12                	je     a0a9 <safe_mod_func_uint64_t_u_u+0x29>
    a097:	48 8b 45 f8          	mov    -0x8(%rbp),%rax
    a09b:	ba 00 00 00 00       	mov    $0x0,%edx
    a0a0:	48 f7 75 f0          	divq   -0x10(%rbp)
    a0a4:	48 89 d0             	mov    %rdx,%rax
    a0a7:	eb 04                	jmp    a0ad <safe_mod_func_uint64_t_u_u+0x2d>
    a0a9:	48 8b 45 f8          	mov    -0x8(%rbp),%rax
    a0ad:	5d                   	pop    %rbp
    a0ae:	c3                   	retq   

000000000000a0af <safe_div_func_uint64_t_u_u>:
    a0af:	f3 0f 1e fa          	endbr64 
    a0b3:	55                   	push   %rbp
    a0b4:	48 89 e5             	mov    %rsp,%rbp
    a0b7:	48 89 7d f8          	mov    %rdi,-0x8(%rbp)
    a0bb:	48 89 75 f0          	mov    %rsi,-0x10(%rbp)
    a0bf:	48 83 7d f0 00       	cmpq   $0x0,-0x10(%rbp)
    a0c4:	74 0f                	je     a0d5 <safe_div_func_uint64_t_u_u+0x26>
    a0c6:	48 8b 45 f8          	mov    -0x8(%rbp),%rax
    a0ca:	ba 00 00 00 00       	mov    $0x0,%edx
    a0cf:	48 f7 75 f0          	divq   -0x10(%rbp)
    a0d3:	eb 04                	jmp    a0d9 <safe_div_func_uint64_t_u_u+0x2a>
    a0d5:	48 8b 45 f8          	mov    -0x8(%rbp),%rax
    a0d9:	5d                   	pop    %rbp
    a0da:	c3                   	retq   

000000000000a0db <safe_lshift_func_uint64_t_u_s>:
    a0db:	f3 0f 1e fa          	endbr64 
    a0df:	55                   	push   %rbp
    a0e0:	48 89 e5             	mov    %rsp,%rbp
    a0e3:	48 89 7d f8          	mov    %rdi,-0x8(%rbp)
    a0e7:	89 75 f4             	mov    %esi,-0xc(%rbp)
    a0ea:	83 7d f4 00          	cmpl   $0x0,-0xc(%rbp)
    a0ee:	78 2f                	js     a11f <safe_lshift_func_uint64_t_u_s+0x44>
    a0f0:	83 7d f4 1f          	cmpl   $0x1f,-0xc(%rbp)
    a0f4:	7f 29                	jg     a11f <safe_lshift_func_uint64_t_u_s+0x44>
    a0f6:	8b 45 f4             	mov    -0xc(%rbp),%eax
    a0f9:	48 c7 c2 ff ff ff ff 	mov    $0xffffffffffffffff,%rdx
    a100:	89 c1                	mov    %eax,%ecx
    a102:	48 d3 ea             	shr    %cl,%rdx
    a105:	48 89 d0             	mov    %rdx,%rax
    a108:	48 39 45 f8          	cmp    %rax,-0x8(%rbp)
    a10c:	77 11                	ja     a11f <safe_lshift_func_uint64_t_u_s+0x44>
    a10e:	8b 45 f4             	mov    -0xc(%rbp),%eax
    a111:	48 8b 55 f8          	mov    -0x8(%rbp),%rdx
    a115:	89 c1                	mov    %eax,%ecx
    a117:	48 d3 e2             	shl    %cl,%rdx
    a11a:	48 89 d0             	mov    %rdx,%rax
    a11d:	eb 04                	jmp    a123 <safe_lshift_func_uint64_t_u_s+0x48>
    a11f:	48 8b 45 f8          	mov    -0x8(%rbp),%rax
    a123:	5d                   	pop    %rbp
    a124:	c3                   	retq   

000000000000a125 <safe_lshift_func_uint64_t_u_u>:
    a125:	f3 0f 1e fa          	endbr64 
    a129:	55                   	push   %rbp
    a12a:	48 89 e5             	mov    %rsp,%rbp
    a12d:	48 89 7d f8          	mov    %rdi,-0x8(%rbp)
    a131:	89 75 f4             	mov    %esi,-0xc(%rbp)
    a134:	83 7d f4 1f          	cmpl   $0x1f,-0xc(%rbp)
    a138:	77 29                	ja     a163 <safe_lshift_func_uint64_t_u_u+0x3e>
    a13a:	8b 45 f4             	mov    -0xc(%rbp),%eax
    a13d:	48 c7 c2 ff ff ff ff 	mov    $0xffffffffffffffff,%rdx
    a144:	89 c1                	mov    %eax,%ecx
    a146:	48 d3 ea             	shr    %cl,%rdx
    a149:	48 89 d0             	mov    %rdx,%rax
    a14c:	48 39 45 f8          	cmp    %rax,-0x8(%rbp)
    a150:	77 11                	ja     a163 <safe_lshift_func_uint64_t_u_u+0x3e>
    a152:	8b 45 f4             	mov    -0xc(%rbp),%eax
    a155:	48 8b 55 f8          	mov    -0x8(%rbp),%rdx
    a159:	89 c1                	mov    %eax,%ecx
    a15b:	48 d3 e2             	shl    %cl,%rdx
    a15e:	48 89 d0             	mov    %rdx,%rax
    a161:	eb 04                	jmp    a167 <safe_lshift_func_uint64_t_u_u+0x42>
    a163:	48 8b 45 f8          	mov    -0x8(%rbp),%rax
    a167:	5d                   	pop    %rbp
    a168:	c3                   	retq   

000000000000a169 <safe_rshift_func_uint64_t_u_s>:
    a169:	f3 0f 1e fa          	endbr64 
    a16d:	55                   	push   %rbp
    a16e:	48 89 e5             	mov    %rsp,%rbp
    a171:	48 89 7d f8          	mov    %rdi,-0x8(%rbp)
    a175:	89 75 f4             	mov    %esi,-0xc(%rbp)
    a178:	83 7d f4 00          	cmpl   $0x0,-0xc(%rbp)
    a17c:	78 17                	js     a195 <safe_rshift_func_uint64_t_u_s+0x2c>
    a17e:	83 7d f4 1f          	cmpl   $0x1f,-0xc(%rbp)
    a182:	7f 11                	jg     a195 <safe_rshift_func_uint64_t_u_s+0x2c>
    a184:	8b 45 f4             	mov    -0xc(%rbp),%eax
    a187:	48 8b 55 f8          	mov    -0x8(%rbp),%rdx
    a18b:	89 c1                	mov    %eax,%ecx
    a18d:	48 d3 ea             	shr    %cl,%rdx
    a190:	48 89 d0             	mov    %rdx,%rax
    a193:	eb 04                	jmp    a199 <safe_rshift_func_uint64_t_u_s+0x30>
    a195:	48 8b 45 f8          	mov    -0x8(%rbp),%rax
    a199:	5d                   	pop    %rbp
    a19a:	c3                   	retq   

000000000000a19b <safe_rshift_func_uint64_t_u_u>:
    a19b:	f3 0f 1e fa          	endbr64 
    a19f:	55                   	push   %rbp
    a1a0:	48 89 e5             	mov    %rsp,%rbp
    a1a3:	48 89 7d f8          	mov    %rdi,-0x8(%rbp)
    a1a7:	89 75 f4             	mov    %esi,-0xc(%rbp)
    a1aa:	83 7d f4 1f          	cmpl   $0x1f,-0xc(%rbp)
    a1ae:	77 11                	ja     a1c1 <safe_rshift_func_uint64_t_u_u+0x26>
    a1b0:	8b 45 f4             	mov    -0xc(%rbp),%eax
    a1b3:	48 8b 55 f8          	mov    -0x8(%rbp),%rdx
    a1b7:	89 c1                	mov    %eax,%ecx
    a1b9:	48 d3 ea             	shr    %cl,%rdx
    a1bc:	48 89 d0             	mov    %rdx,%rax
    a1bf:	eb 04                	jmp    a1c5 <safe_rshift_func_uint64_t_u_u+0x2a>
    a1c1:	48 8b 45 f8          	mov    -0x8(%rbp),%rax
    a1c5:	5d                   	pop    %rbp
    a1c6:	c3                   	retq   

000000000000a1c7 <safe_add_func_float_f_f>:
    a1c7:	f3 0f 1e fa          	endbr64 
    a1cb:	55                   	push   %rbp
    a1cc:	48 89 e5             	mov    %rsp,%rbp
    a1cf:	f3 0f 11 45 fc       	movss  %xmm0,-0x4(%rbp)
    a1d4:	f3 0f 11 4d f8       	movss  %xmm1,-0x8(%rbp)
    a1d9:	f3 0f 10 4d fc       	movss  -0x4(%rbp),%xmm1
    a1de:	f3 0f 10 05 d6 95 00 	movss  0x95d6(%rip),%xmm0        # 137bc <_IO_stdin_used+0x7bc>
    a1e5:	00 
    a1e6:	f3 0f 59 c8          	mulss  %xmm0,%xmm1
    a1ea:	f3 0f 10 55 f8       	movss  -0x8(%rbp),%xmm2
    a1ef:	f3 0f 10 05 c5 95 00 	movss  0x95c5(%rip),%xmm0        # 137bc <_IO_stdin_used+0x7bc>
    a1f6:	00 
    a1f7:	f3 0f 59 c2          	mulss  %xmm2,%xmm0
    a1fb:	f3 0f 58 c1          	addss  %xmm1,%xmm0
    a1ff:	f3 0f 10 0d b9 95 00 	movss  0x95b9(%rip),%xmm1        # 137c0 <_IO_stdin_used+0x7c0>
    a206:	00 
    a207:	0f 54 c1             	andps  %xmm1,%xmm0
    a20a:	0f 2f 05 bf 95 00 00 	comiss 0x95bf(%rip),%xmm0        # 137d0 <_IO_stdin_used+0x7d0>
    a211:	76 07                	jbe    a21a <safe_add_func_float_f_f+0x53>
    a213:	f3 0f 10 45 fc       	movss  -0x4(%rbp),%xmm0
    a218:	eb 0a                	jmp    a224 <safe_add_func_float_f_f+0x5d>
    a21a:	f3 0f 10 45 fc       	movss  -0x4(%rbp),%xmm0
    a21f:	f3 0f 58 45 f8       	addss  -0x8(%rbp),%xmm0
    a224:	5d                   	pop    %rbp
    a225:	c3                   	retq   

000000000000a226 <safe_sub_func_float_f_f>:
    a226:	f3 0f 1e fa          	endbr64 
    a22a:	55                   	push   %rbp
    a22b:	48 89 e5             	mov    %rsp,%rbp
    a22e:	f3 0f 11 45 fc       	movss  %xmm0,-0x4(%rbp)
    a233:	f3 0f 11 4d f8       	movss  %xmm1,-0x8(%rbp)
    a238:	f3 0f 10 4d fc       	movss  -0x4(%rbp),%xmm1
    a23d:	f3 0f 10 05 77 95 00 	movss  0x9577(%rip),%xmm0        # 137bc <_IO_stdin_used+0x7bc>
    a244:	00 
    a245:	f3 0f 59 c1          	mulss  %xmm1,%xmm0
    a249:	f3 0f 10 55 f8       	movss  -0x8(%rbp),%xmm2
    a24e:	f3 0f 10 0d 66 95 00 	movss  0x9566(%rip),%xmm1        # 137bc <_IO_stdin_used+0x7bc>
    a255:	00 
    a256:	f3 0f 59 ca          	mulss  %xmm2,%xmm1
    a25a:	f3 0f 5c c1          	subss  %xmm1,%xmm0
    a25e:	f3 0f 10 0d 5a 95 00 	movss  0x955a(%rip),%xmm1        # 137c0 <_IO_stdin_used+0x7c0>
    a265:	00 
    a266:	0f 54 c1             	andps  %xmm1,%xmm0
    a269:	0f 2f 05 60 95 00 00 	comiss 0x9560(%rip),%xmm0        # 137d0 <_IO_stdin_used+0x7d0>
    a270:	76 07                	jbe    a279 <safe_sub_func_float_f_f+0x53>
    a272:	f3 0f 10 45 fc       	movss  -0x4(%rbp),%xmm0
    a277:	eb 0a                	jmp    a283 <safe_sub_func_float_f_f+0x5d>
    a279:	f3 0f 10 45 fc       	movss  -0x4(%rbp),%xmm0
    a27e:	f3 0f 5c 45 f8       	subss  -0x8(%rbp),%xmm0
    a283:	5d                   	pop    %rbp
    a284:	c3                   	retq   

000000000000a285 <safe_mul_func_float_f_f>:
    a285:	f3 0f 1e fa          	endbr64 
    a289:	55                   	push   %rbp
    a28a:	48 89 e5             	mov    %rsp,%rbp
    a28d:	f3 0f 11 45 fc       	movss  %xmm0,-0x4(%rbp)
    a292:	f3 0f 11 4d f8       	movss  %xmm1,-0x8(%rbp)
    a297:	f3 0f 10 4d fc       	movss  -0x4(%rbp),%xmm1
    a29c:	f3 0f 10 05 30 95 00 	movss  0x9530(%rip),%xmm0        # 137d4 <_IO_stdin_used+0x7d4>
    a2a3:	00 
    a2a4:	f3 0f 59 c8          	mulss  %xmm0,%xmm1
    a2a8:	f3 0f 10 55 f8       	movss  -0x8(%rbp),%xmm2
    a2ad:	f3 0f 10 05 23 95 00 	movss  0x9523(%rip),%xmm0        # 137d8 <_IO_stdin_used+0x7d8>
    a2b4:	00 
    a2b5:	f3 0f 59 c2          	mulss  %xmm2,%xmm0
    a2b9:	f3 0f 59 c1          	mulss  %xmm1,%xmm0
    a2bd:	f3 0f 10 0d fb 94 00 	movss  0x94fb(%rip),%xmm1        # 137c0 <_IO_stdin_used+0x7c0>
    a2c4:	00 
    a2c5:	0f 54 c1             	andps  %xmm1,%xmm0
    a2c8:	0f 2f 05 0d 95 00 00 	comiss 0x950d(%rip),%xmm0        # 137dc <_IO_stdin_used+0x7dc>
    a2cf:	76 07                	jbe    a2d8 <safe_mul_func_float_f_f+0x53>
    a2d1:	f3 0f 10 45 fc       	movss  -0x4(%rbp),%xmm0
    a2d6:	eb 0a                	jmp    a2e2 <safe_mul_func_float_f_f+0x5d>
    a2d8:	f3 0f 10 45 fc       	movss  -0x4(%rbp),%xmm0
    a2dd:	f3 0f 59 45 f8       	mulss  -0x8(%rbp),%xmm0
    a2e2:	5d                   	pop    %rbp
    a2e3:	c3                   	retq   

000000000000a2e4 <safe_div_func_float_f_f>:
    a2e4:	f3 0f 1e fa          	endbr64 
    a2e8:	55                   	push   %rbp
    a2e9:	48 89 e5             	mov    %rsp,%rbp
    a2ec:	f3 0f 11 45 fc       	movss  %xmm0,-0x4(%rbp)
    a2f1:	f3 0f 11 4d f8       	movss  %xmm1,-0x8(%rbp)
    a2f6:	f3 0f 10 45 f8       	movss  -0x8(%rbp),%xmm0
    a2fb:	f3 0f 10 0d bd 94 00 	movss  0x94bd(%rip),%xmm1        # 137c0 <_IO_stdin_used+0x7c0>
    a302:	00 
    a303:	0f 54 c8             	andps  %xmm0,%xmm1
    a306:	f3 0f 10 05 d2 94 00 	movss  0x94d2(%rip),%xmm0        # 137e0 <_IO_stdin_used+0x7e0>
    a30d:	00 
    a30e:	0f 2f c1             	comiss %xmm1,%xmm0
    a311:	0f 97 c0             	seta   %al
    a314:	83 f0 01             	xor    $0x1,%eax
    a317:	84 c0                	test   %al,%al
    a319:	75 56                	jne    a371 <safe_div_func_float_f_f+0x8d>
    a31b:	66 0f ef c0          	pxor   %xmm0,%xmm0
    a31f:	0f 2e 45 f8          	ucomiss -0x8(%rbp),%xmm0
    a323:	7a 0a                	jp     a32f <safe_div_func_float_f_f+0x4b>
    a325:	66 0f ef c0          	pxor   %xmm0,%xmm0
    a329:	0f 2e 45 f8          	ucomiss -0x8(%rbp),%xmm0
    a32d:	74 4e                	je     a37d <safe_div_func_float_f_f+0x99>
    a32f:	f3 0f 10 4d fc       	movss  -0x4(%rbp),%xmm1
    a334:	f3 0f 10 05 a8 94 00 	movss  0x94a8(%rip),%xmm0        # 137e4 <_IO_stdin_used+0x7e4>
    a33b:	00 
    a33c:	f3 0f 59 c1          	mulss  %xmm1,%xmm0
    a340:	f3 0f 10 55 f8       	movss  -0x8(%rbp),%xmm2
    a345:	f3 0f 10 0d 9b 94 00 	movss  0x949b(%rip),%xmm1        # 137e8 <_IO_stdin_used+0x7e8>
    a34c:	00 
    a34d:	f3 0f 59 ca          	mulss  %xmm2,%xmm1
    a351:	f3 0f 5e c1          	divss  %xmm1,%xmm0
    a355:	f3 0f 10 0d 63 94 00 	movss  0x9463(%rip),%xmm1        # 137c0 <_IO_stdin_used+0x7c0>
    a35c:	00 
    a35d:	0f 54 c1             	andps  %xmm1,%xmm0
    a360:	0f 2f 05 85 94 00 00 	comiss 0x9485(%rip),%xmm0        # 137ec <_IO_stdin_used+0x7ec>
    a367:	0f 97 c0             	seta   %al
    a36a:	83 f0 01             	xor    $0x1,%eax
    a36d:	84 c0                	test   %al,%al
    a36f:	74 0c                	je     a37d <safe_div_func_float_f_f+0x99>
    a371:	f3 0f 10 45 fc       	movss  -0x4(%rbp),%xmm0
    a376:	f3 0f 5e 45 f8       	divss  -0x8(%rbp),%xmm0
    a37b:	eb 05                	jmp    a382 <safe_div_func_float_f_f+0x9e>
    a37d:	f3 0f 10 45 fc       	movss  -0x4(%rbp),%xmm0
    a382:	5d                   	pop    %rbp
    a383:	c3                   	retq   

000000000000a384 <safe_add_func_double_f_f>:
    a384:	f3 0f 1e fa          	endbr64 
    a388:	55                   	push   %rbp
    a389:	48 89 e5             	mov    %rsp,%rbp
    a38c:	f2 0f 11 45 f8       	movsd  %xmm0,-0x8(%rbp)
    a391:	f2 0f 11 4d f0       	movsd  %xmm1,-0x10(%rbp)
    a396:	f2 0f 10 4d f8       	movsd  -0x8(%rbp),%xmm1
    a39b:	f2 0f 10 05 4d 94 00 	movsd  0x944d(%rip),%xmm0        # 137f0 <_IO_stdin_used+0x7f0>
    a3a2:	00 
    a3a3:	f2 0f 59 c8          	mulsd  %xmm0,%xmm1
    a3a7:	f2 0f 10 55 f0       	movsd  -0x10(%rbp),%xmm2
    a3ac:	f2 0f 10 05 3c 94 00 	movsd  0x943c(%rip),%xmm0        # 137f0 <_IO_stdin_used+0x7f0>
    a3b3:	00 
    a3b4:	f2 0f 59 c2          	mulsd  %xmm2,%xmm0
    a3b8:	f2 0f 58 c1          	addsd  %xmm1,%xmm0
    a3bc:	f3 0f 7e 0d 3c 94 00 	movq   0x943c(%rip),%xmm1        # 13800 <_IO_stdin_used+0x800>
    a3c3:	00 
    a3c4:	66 0f 54 c1          	andpd  %xmm1,%xmm0
    a3c8:	66 0f 2f 05 40 94 00 	comisd 0x9440(%rip),%xmm0        # 13810 <_IO_stdin_used+0x810>
    a3cf:	00 
    a3d0:	76 07                	jbe    a3d9 <safe_add_func_double_f_f+0x55>
    a3d2:	f2 0f 10 45 f8       	movsd  -0x8(%rbp),%xmm0
    a3d7:	eb 0a                	jmp    a3e3 <safe_add_func_double_f_f+0x5f>
    a3d9:	f2 0f 10 45 f8       	movsd  -0x8(%rbp),%xmm0
    a3de:	f2 0f 58 45 f0       	addsd  -0x10(%rbp),%xmm0
    a3e3:	5d                   	pop    %rbp
    a3e4:	c3                   	retq   

000000000000a3e5 <safe_sub_func_double_f_f>:
    a3e5:	f3 0f 1e fa          	endbr64 
    a3e9:	55                   	push   %rbp
    a3ea:	48 89 e5             	mov    %rsp,%rbp
    a3ed:	f2 0f 11 45 f8       	movsd  %xmm0,-0x8(%rbp)
    a3f2:	f2 0f 11 4d f0       	movsd  %xmm1,-0x10(%rbp)
    a3f7:	f2 0f 10 4d f8       	movsd  -0x8(%rbp),%xmm1
    a3fc:	f2 0f 10 05 ec 93 00 	movsd  0x93ec(%rip),%xmm0        # 137f0 <_IO_stdin_used+0x7f0>
    a403:	00 
    a404:	f2 0f 59 c1          	mulsd  %xmm1,%xmm0
    a408:	f2 0f 10 55 f0       	movsd  -0x10(%rbp),%xmm2
    a40d:	f2 0f 10 0d db 93 00 	movsd  0x93db(%rip),%xmm1        # 137f0 <_IO_stdin_used+0x7f0>
    a414:	00 
    a415:	f2 0f 59 ca          	mulsd  %xmm2,%xmm1
    a419:	f2 0f 5c c1          	subsd  %xmm1,%xmm0
    a41d:	f3 0f 7e 0d db 93 00 	movq   0x93db(%rip),%xmm1        # 13800 <_IO_stdin_used+0x800>
    a424:	00 
    a425:	66 0f 54 c1          	andpd  %xmm1,%xmm0
    a429:	66 0f 2f 05 df 93 00 	comisd 0x93df(%rip),%xmm0        # 13810 <_IO_stdin_used+0x810>
    a430:	00 
    a431:	76 07                	jbe    a43a <safe_sub_func_double_f_f+0x55>
    a433:	f2 0f 10 45 f8       	movsd  -0x8(%rbp),%xmm0
    a438:	eb 0a                	jmp    a444 <safe_sub_func_double_f_f+0x5f>
    a43a:	f2 0f 10 45 f8       	movsd  -0x8(%rbp),%xmm0
    a43f:	f2 0f 5c 45 f0       	subsd  -0x10(%rbp),%xmm0
    a444:	5d                   	pop    %rbp
    a445:	c3                   	retq   

000000000000a446 <safe_mul_func_double_f_f>:
    a446:	f3 0f 1e fa          	endbr64 
    a44a:	55                   	push   %rbp
    a44b:	48 89 e5             	mov    %rsp,%rbp
    a44e:	f2 0f 11 45 f8       	movsd  %xmm0,-0x8(%rbp)
    a453:	f2 0f 11 4d f0       	movsd  %xmm1,-0x10(%rbp)
    a458:	f2 0f 10 4d f8       	movsd  -0x8(%rbp),%xmm1
    a45d:	f2 0f 10 05 b3 93 00 	movsd  0x93b3(%rip),%xmm0        # 13818 <_IO_stdin_used+0x818>
    a464:	00 
    a465:	f2 0f 59 c8          	mulsd  %xmm0,%xmm1
    a469:	f2 0f 10 55 f0       	movsd  -0x10(%rbp),%xmm2
    a46e:	f2 0f 10 05 aa 93 00 	movsd  0x93aa(%rip),%xmm0        # 13820 <_IO_stdin_used+0x820>
    a475:	00 
    a476:	f2 0f 59 c2          	mulsd  %xmm2,%xmm0
    a47a:	f2 0f 59 c1          	mulsd  %xmm1,%xmm0
    a47e:	f3 0f 7e 0d 7a 93 00 	movq   0x937a(%rip),%xmm1        # 13800 <_IO_stdin_used+0x800>
    a485:	00 
    a486:	66 0f 54 c1          	andpd  %xmm1,%xmm0
    a48a:	66 0f 2f 05 96 93 00 	comisd 0x9396(%rip),%xmm0        # 13828 <_IO_stdin_used+0x828>
    a491:	00 
    a492:	76 07                	jbe    a49b <safe_mul_func_double_f_f+0x55>
    a494:	f2 0f 10 45 f8       	movsd  -0x8(%rbp),%xmm0
    a499:	eb 0a                	jmp    a4a5 <safe_mul_func_double_f_f+0x5f>
    a49b:	f2 0f 10 45 f8       	movsd  -0x8(%rbp),%xmm0
    a4a0:	f2 0f 59 45 f0       	mulsd  -0x10(%rbp),%xmm0
    a4a5:	5d                   	pop    %rbp
    a4a6:	c3                   	retq   

000000000000a4a7 <safe_div_func_double_f_f>:
    a4a7:	f3 0f 1e fa          	endbr64 
    a4ab:	55                   	push   %rbp
    a4ac:	48 89 e5             	mov    %rsp,%rbp
    a4af:	f2 0f 11 45 f8       	movsd  %xmm0,-0x8(%rbp)
    a4b4:	f2 0f 11 4d f0       	movsd  %xmm1,-0x10(%rbp)
    a4b9:	f2 0f 10 45 f0       	movsd  -0x10(%rbp),%xmm0
    a4be:	f3 0f 7e 0d 3a 93 00 	movq   0x933a(%rip),%xmm1        # 13800 <_IO_stdin_used+0x800>
    a4c5:	00 
    a4c6:	66 0f 54 c8          	andpd  %xmm0,%xmm1
    a4ca:	f2 0f 10 05 5e 93 00 	movsd  0x935e(%rip),%xmm0        # 13830 <_IO_stdin_used+0x830>
    a4d1:	00 
    a4d2:	66 0f 2f c1          	comisd %xmm1,%xmm0
    a4d6:	0f 97 c0             	seta   %al
    a4d9:	83 f0 01             	xor    $0x1,%eax
    a4dc:	84 c0                	test   %al,%al
    a4de:	75 5a                	jne    a53a <safe_div_func_double_f_f+0x93>
    a4e0:	66 0f ef c0          	pxor   %xmm0,%xmm0
    a4e4:	66 0f 2e 45 f0       	ucomisd -0x10(%rbp),%xmm0
    a4e9:	7a 0b                	jp     a4f6 <safe_div_func_double_f_f+0x4f>
    a4eb:	66 0f ef c0          	pxor   %xmm0,%xmm0
    a4ef:	66 0f 2e 45 f0       	ucomisd -0x10(%rbp),%xmm0
    a4f4:	74 50                	je     a546 <safe_div_func_double_f_f+0x9f>
    a4f6:	f2 0f 10 4d f8       	movsd  -0x8(%rbp),%xmm1
    a4fb:	f2 0f 10 05 35 93 00 	movsd  0x9335(%rip),%xmm0        # 13838 <_IO_stdin_used+0x838>
    a502:	00 
    a503:	f2 0f 59 c1          	mulsd  %xmm1,%xmm0
    a507:	f2 0f 10 55 f0       	movsd  -0x10(%rbp),%xmm2
    a50c:	f2 0f 10 0d 2c 93 00 	movsd  0x932c(%rip),%xmm1        # 13840 <_IO_stdin_used+0x840>
    a513:	00 
    a514:	f2 0f 59 ca          	mulsd  %xmm2,%xmm1
    a518:	f2 0f 5e c1          	divsd  %xmm1,%xmm0
    a51c:	f3 0f 7e 0d dc 92 00 	movq   0x92dc(%rip),%xmm1        # 13800 <_IO_stdin_used+0x800>
    a523:	00 
    a524:	66 0f 54 c1          	andpd  %xmm1,%xmm0
    a528:	66 0f 2f 05 18 93 00 	comisd 0x9318(%rip),%xmm0        # 13848 <_IO_stdin_used+0x848>
    a52f:	00 
    a530:	0f 97 c0             	seta   %al
    a533:	83 f0 01             	xor    $0x1,%eax
    a536:	84 c0                	test   %al,%al
    a538:	74 0c                	je     a546 <safe_div_func_double_f_f+0x9f>
    a53a:	f2 0f 10 45 f8       	movsd  -0x8(%rbp),%xmm0
    a53f:	f2 0f 5e 45 f0       	divsd  -0x10(%rbp),%xmm0
    a544:	eb 05                	jmp    a54b <safe_div_func_double_f_f+0xa4>
    a546:	f2 0f 10 45 f8       	movsd  -0x8(%rbp),%xmm0
    a54b:	5d                   	pop    %rbp
    a54c:	c3                   	retq   

000000000000a54d <safe_convert_func_float_to_int32_t>:
    a54d:	f3 0f 1e fa          	endbr64 
    a551:	55                   	push   %rbp
    a552:	48 89 e5             	mov    %rsp,%rbp
    a555:	f3 0f 11 45 fc       	movss  %xmm0,-0x4(%rbp)
    a55a:	f3 0f 10 05 ee 92 00 	movss  0x92ee(%rip),%xmm0        # 13850 <_IO_stdin_used+0x850>
    a561:	00 
    a562:	0f 2f 45 fc          	comiss -0x4(%rbp),%xmm0
    a566:	0f 93 c0             	setae  %al
    a569:	83 f0 01             	xor    $0x1,%eax
    a56c:	84 c0                	test   %al,%al
    a56e:	74 21                	je     a591 <safe_convert_func_float_to_int32_t+0x44>
    a570:	f3 0f 10 45 fc       	movss  -0x4(%rbp),%xmm0
    a575:	0f 2f 05 d8 92 00 00 	comiss 0x92d8(%rip),%xmm0        # 13854 <_IO_stdin_used+0x854>
    a57c:	0f 93 c0             	setae  %al
    a57f:	83 f0 01             	xor    $0x1,%eax
    a582:	84 c0                	test   %al,%al
    a584:	74 0b                	je     a591 <safe_convert_func_float_to_int32_t+0x44>
    a586:	f3 0f 10 45 fc       	movss  -0x4(%rbp),%xmm0
    a58b:	f3 0f 2c c0          	cvttss2si %xmm0,%eax
    a58f:	eb 05                	jmp    a596 <safe_convert_func_float_to_int32_t+0x49>
    a591:	b8 ff ff ff 7f       	mov    $0x7fffffff,%eax
    a596:	5d                   	pop    %rbp
    a597:	c3                   	retq   

000000000000a598 <crc32_gentab>:
    a598:	f3 0f 1e fa          	endbr64 
    a59c:	55                   	push   %rbp
    a59d:	48 89 e5             	mov    %rsp,%rbp
    a5a0:	c7 45 fc 20 83 b8 ed 	movl   $0xedb88320,-0x4(%rbp)
    a5a7:	c7 45 f4 00 00 00 00 	movl   $0x0,-0xc(%rbp)
    a5ae:	eb 51                	jmp    a601 <crc32_gentab+0x69>
    a5b0:	8b 45 f4             	mov    -0xc(%rbp),%eax
    a5b3:	89 45 f0             	mov    %eax,-0x10(%rbp)
    a5b6:	c7 45 f8 08 00 00 00 	movl   $0x8,-0x8(%rbp)
    a5bd:	eb 1e                	jmp    a5dd <crc32_gentab+0x45>
    a5bf:	8b 45 f0             	mov    -0x10(%rbp),%eax
    a5c2:	83 e0 01             	and    $0x1,%eax
    a5c5:	85 c0                	test   %eax,%eax
    a5c7:	74 0d                	je     a5d6 <crc32_gentab+0x3e>
    a5c9:	8b 45 f0             	mov    -0x10(%rbp),%eax
    a5cc:	d1 e8                	shr    %eax
    a5ce:	33 45 fc             	xor    -0x4(%rbp),%eax
    a5d1:	89 45 f0             	mov    %eax,-0x10(%rbp)
    a5d4:	eb 03                	jmp    a5d9 <crc32_gentab+0x41>
    a5d6:	d1 6d f0             	shrl   -0x10(%rbp)
    a5d9:	83 6d f8 01          	subl   $0x1,-0x8(%rbp)
    a5dd:	83 7d f8 00          	cmpl   $0x0,-0x8(%rbp)
    a5e1:	7f dc                	jg     a5bf <crc32_gentab+0x27>
    a5e3:	8b 45 f4             	mov    -0xc(%rbp),%eax
    a5e6:	48 98                	cltq   
    a5e8:	48 8d 0c 85 00 00 00 	lea    0x0(,%rax,4),%rcx
    a5ef:	00 
    a5f0:	48 8d 15 49 01 01 00 	lea    0x10149(%rip),%rdx        # 1a740 <crc32_tab>
    a5f7:	8b 45 f0             	mov    -0x10(%rbp),%eax
    a5fa:	89 04 11             	mov    %eax,(%rcx,%rdx,1)
    a5fd:	83 45 f4 01          	addl   $0x1,-0xc(%rbp)
    a601:	81 7d f4 ff 00 00 00 	cmpl   $0xff,-0xc(%rbp)
    a608:	7e a6                	jle    a5b0 <crc32_gentab+0x18>
    a60a:	90                   	nop
    a60b:	90                   	nop
    a60c:	5d                   	pop    %rbp
    a60d:	c3                   	retq   

000000000000a60e <crc32_byte>:
    a60e:	f3 0f 1e fa          	endbr64 
    a612:	55                   	push   %rbp
    a613:	48 89 e5             	mov    %rsp,%rbp
    a616:	89 f8                	mov    %edi,%eax
    a618:	88 45 fc             	mov    %al,-0x4(%rbp)
    a61b:	8b 05 ff c9 00 00    	mov    0xc9ff(%rip),%eax        # 17020 <crc32_context>
    a621:	c1 e8 08             	shr    $0x8,%eax
    a624:	89 c1                	mov    %eax,%ecx
    a626:	0f b6 55 fc          	movzbl -0x4(%rbp),%edx
    a62a:	8b 05 f0 c9 00 00    	mov    0xc9f0(%rip),%eax        # 17020 <crc32_context>
    a630:	31 d0                	xor    %edx,%eax
    a632:	0f b6 c0             	movzbl %al,%eax
    a635:	89 c0                	mov    %eax,%eax
    a637:	48 8d 14 85 00 00 00 	lea    0x0(,%rax,4),%rdx
    a63e:	00 
    a63f:	48 8d 05 fa 00 01 00 	lea    0x100fa(%rip),%rax        # 1a740 <crc32_tab>
    a646:	8b 04 02             	mov    (%rdx,%rax,1),%eax
    a649:	31 c8                	xor    %ecx,%eax
    a64b:	89 05 cf c9 00 00    	mov    %eax,0xc9cf(%rip)        # 17020 <crc32_context>
    a651:	90                   	nop
    a652:	5d                   	pop    %rbp
    a653:	c3                   	retq   

000000000000a654 <crc32_8bytes>:
    a654:	f3 0f 1e fa          	endbr64 
    a658:	55                   	push   %rbp
    a659:	48 89 e5             	mov    %rsp,%rbp
    a65c:	48 83 ec 08          	sub    $0x8,%rsp
    a660:	48 89 7d f8          	mov    %rdi,-0x8(%rbp)
    a664:	48 8b 45 f8          	mov    -0x8(%rbp),%rax
    a668:	0f b6 c0             	movzbl %al,%eax
    a66b:	89 c7                	mov    %eax,%edi
    a66d:	e8 9c ff ff ff       	callq  a60e <crc32_byte>
    a672:	48 8b 45 f8          	mov    -0x8(%rbp),%rax
    a676:	48 c1 e8 08          	shr    $0x8,%rax
    a67a:	0f b6 c0             	movzbl %al,%eax
    a67d:	89 c7                	mov    %eax,%edi
    a67f:	e8 8a ff ff ff       	callq  a60e <crc32_byte>
    a684:	48 8b 45 f8          	mov    -0x8(%rbp),%rax
    a688:	48 c1 e8 10          	shr    $0x10,%rax
    a68c:	0f b6 c0             	movzbl %al,%eax
    a68f:	89 c7                	mov    %eax,%edi
    a691:	e8 78 ff ff ff       	callq  a60e <crc32_byte>
    a696:	48 8b 45 f8          	mov    -0x8(%rbp),%rax
    a69a:	48 c1 e8 18          	shr    $0x18,%rax
    a69e:	0f b6 c0             	movzbl %al,%eax
    a6a1:	89 c7                	mov    %eax,%edi
    a6a3:	e8 66 ff ff ff       	callq  a60e <crc32_byte>
    a6a8:	48 8b 45 f8          	mov    -0x8(%rbp),%rax
    a6ac:	48 c1 e8 20          	shr    $0x20,%rax
    a6b0:	0f b6 c0             	movzbl %al,%eax
    a6b3:	89 c7                	mov    %eax,%edi
    a6b5:	e8 54 ff ff ff       	callq  a60e <crc32_byte>
    a6ba:	48 8b 45 f8          	mov    -0x8(%rbp),%rax
    a6be:	48 c1 e8 28          	shr    $0x28,%rax
    a6c2:	0f b6 c0             	movzbl %al,%eax
    a6c5:	89 c7                	mov    %eax,%edi
    a6c7:	e8 42 ff ff ff       	callq  a60e <crc32_byte>
    a6cc:	48 8b 45 f8          	mov    -0x8(%rbp),%rax
    a6d0:	48 c1 e8 30          	shr    $0x30,%rax
    a6d4:	0f b6 c0             	movzbl %al,%eax
    a6d7:	89 c7                	mov    %eax,%edi
    a6d9:	e8 30 ff ff ff       	callq  a60e <crc32_byte>
    a6de:	48 8b 45 f8          	mov    -0x8(%rbp),%rax
    a6e2:	48 c1 e8 38          	shr    $0x38,%rax
    a6e6:	0f b6 c0             	movzbl %al,%eax
    a6e9:	89 c7                	mov    %eax,%edi
    a6eb:	e8 1e ff ff ff       	callq  a60e <crc32_byte>
    a6f0:	90                   	nop
    a6f1:	c9                   	leaveq 
    a6f2:	c3                   	retq   

000000000000a6f3 <transparent_crc>:
    a6f3:	f3 0f 1e fa          	endbr64 
    a6f7:	55                   	push   %rbp
    a6f8:	48 89 e5             	mov    %rsp,%rbp
    a6fb:	48 83 ec 20          	sub    $0x20,%rsp
    a6ff:	48 89 7d f8          	mov    %rdi,-0x8(%rbp)
    a703:	48 89 75 f0          	mov    %rsi,-0x10(%rbp)
    a707:	89 55 ec             	mov    %edx,-0x14(%rbp)
    a70a:	48 8b 45 f8          	mov    -0x8(%rbp),%rax
    a70e:	48 89 c7             	mov    %rax,%rdi
    a711:	e8 3e ff ff ff       	callq  a654 <crc32_8bytes>
    a716:	83 7d ec 00          	cmpl   $0x0,-0x14(%rbp)
    a71a:	74 22                	je     a73e <transparent_crc+0x4b>
    a71c:	8b 05 fe c8 00 00    	mov    0xc8fe(%rip),%eax        # 17020 <crc32_context>
    a722:	f7 d0                	not    %eax
    a724:	89 c2                	mov    %eax,%edx
    a726:	48 8b 45 f0          	mov    -0x10(%rbp),%rax
    a72a:	48 89 c6             	mov    %rax,%rsi
    a72d:	48 8d 3d fc 88 00 00 	lea    0x88fc(%rip),%rdi        # 13030 <_IO_stdin_used+0x30>
    a734:	b8 00 00 00 00       	mov    $0x0,%eax
    a739:	e8 42 e9 ff ff       	callq  9080 <printf@plt>
    a73e:	90                   	nop
    a73f:	c9                   	leaveq 
    a740:	c3                   	retq   

000000000000a741 <transparent_crc_bytes>:
    a741:	f3 0f 1e fa          	endbr64 
    a745:	55                   	push   %rbp
    a746:	48 89 e5             	mov    %rsp,%rbp
    a749:	48 83 ec 30          	sub    $0x30,%rsp
    a74d:	48 89 7d e8          	mov    %rdi,-0x18(%rbp)
    a751:	89 75 e4             	mov    %esi,-0x1c(%rbp)
    a754:	48 89 55 d8          	mov    %rdx,-0x28(%rbp)
    a758:	89 4d e0             	mov    %ecx,-0x20(%rbp)
    a75b:	c7 45 fc 00 00 00 00 	movl   $0x0,-0x4(%rbp)
    a762:	eb 1e                	jmp    a782 <transparent_crc_bytes+0x41>
    a764:	8b 45 fc             	mov    -0x4(%rbp),%eax
    a767:	48 63 d0             	movslq %eax,%rdx
    a76a:	48 8b 45 e8          	mov    -0x18(%rbp),%rax
    a76e:	48 01 d0             	add    %rdx,%rax
    a771:	0f b6 00             	movzbl (%rax),%eax
    a774:	0f b6 c0             	movzbl %al,%eax
    a777:	89 c7                	mov    %eax,%edi
    a779:	e8 90 fe ff ff       	callq  a60e <crc32_byte>
    a77e:	83 45 fc 01          	addl   $0x1,-0x4(%rbp)
    a782:	8b 45 fc             	mov    -0x4(%rbp),%eax
    a785:	3b 45 e4             	cmp    -0x1c(%rbp),%eax
    a788:	7c da                	jl     a764 <transparent_crc_bytes+0x23>
    a78a:	83 7d e0 00          	cmpl   $0x0,-0x20(%rbp)
    a78e:	74 22                	je     a7b2 <transparent_crc_bytes+0x71>
    a790:	8b 05 8a c8 00 00    	mov    0xc88a(%rip),%eax        # 17020 <crc32_context>
    a796:	f7 d0                	not    %eax
    a798:	89 c2                	mov    %eax,%edx
    a79a:	48 8b 45 d8          	mov    -0x28(%rbp),%rax
    a79e:	48 89 c6             	mov    %rax,%rsi
    a7a1:	48 8d 3d 88 88 00 00 	lea    0x8888(%rip),%rdi        # 13030 <_IO_stdin_used+0x30>
    a7a8:	b8 00 00 00 00       	mov    $0x0,%eax
    a7ad:	e8 ce e8 ff ff       	callq  9080 <printf@plt>
    a7b2:	90                   	nop
    a7b3:	c9                   	leaveq 
    a7b4:	c3                   	retq   

000000000000a7b5 <func_1>:
    a7b5:	f3 0f 1e fa          	endbr64 
    a7b9:	55                   	push   %rbp
    a7ba:	48 89 e5             	mov    %rsp,%rbp
    a7bd:	41 55                	push   %r13
    a7bf:	41 54                	push   %r12
    a7c1:	53                   	push   %rbx
    a7c2:	48 81 ec 98 06 00 00 	sub    $0x698,%rsp
    a7c9:	64 48 8b 04 25 28 00 	mov    %fs:0x28,%rax
    a7d0:	00 00 
    a7d2:	48 89 45 d8          	mov    %rax,-0x28(%rbp)
    a7d6:	31 c0                	xor    %eax,%eax
    a7d8:	48 c7 85 d0 f9 ff ff 	movq   $0x1,-0x630(%rbp)
    a7df:	01 00 00 00 
    a7e3:	48 c7 85 d8 f9 ff ff 	movq   $0x1,-0x628(%rbp)
    a7ea:	01 00 00 00 
    a7ee:	48 c7 85 e0 f9 ff ff 	movq   $0x1,-0x620(%rbp)
    a7f5:	01 00 00 00 
    a7f9:	48 c7 85 e8 f9 ff ff 	movq   $0x1,-0x618(%rbp)
    a800:	01 00 00 00 
    a804:	48 c7 85 f0 f9 ff ff 	movq   $0x1,-0x610(%rbp)
    a80b:	01 00 00 00 
    a80f:	c7 85 c0 f9 ff ff ff 	movl   $0xffffffff,-0x640(%rbp)
    a816:	ff ff ff 
    a819:	c7 85 c4 f9 ff ff ff 	movl   $0xffffffff,-0x63c(%rbp)
    a820:	ff ff ff 
    a823:	c7 85 c8 f9 ff ff ff 	movl   $0xffffffff,-0x638(%rbp)
    a82a:	ff ff ff 
    a82d:	c7 85 cc f9 ff ff ff 	movl   $0xffffffff,-0x634(%rbp)
    a834:	ff ff ff 
    a837:	48 8d 85 d0 f9 ff ff 	lea    -0x630(%rbp),%rax
    a83e:	48 83 c0 10          	add    $0x10,%rax
    a842:	48 89 85 70 f9 ff ff 	mov    %rax,-0x690(%rbp)
    a849:	48 b8 01 1e 5b f6 a3 	movabs $0xffff01a3f65b1e01,%rax
    a850:	01 ff ff 
    a853:	48 89 85 60 fa ff ff 	mov    %rax,-0x5a0(%rbp)
    a85a:	c6 85 68 fa ff ff 01 	movb   $0x1,-0x598(%rbp)
    a861:	48 b8 5b ff 7a ff 5b 	movabs $0x1502015bff7aff5b,%rax
    a868:	01 02 15 
    a86b:	48 89 85 69 fa ff ff 	mov    %rax,-0x597(%rbp)
    a872:	c6 85 71 fa ff ff ff 	movb   $0xff,-0x58f(%rbp)
    a879:	48 b8 fd ff 01 ff 1e 	movabs $0xab03ab1eff01fffd,%rax
    a880:	ab 03 ab 
    a883:	48 89 85 72 fa ff ff 	mov    %rax,-0x58e(%rbp)
    a88a:	c6 85 7a fa ff ff 1e 	movb   $0x1e,-0x586(%rbp)
    a891:	48 b8 02 1e 1e 02 01 	movabs $0x37a0101021e1e02,%rax
    a898:	01 7a 03 
    a89b:	48 89 85 7b fa ff ff 	mov    %rax,-0x585(%rbp)
    a8a2:	c6 85 83 fa ff ff 72 	movb   $0x72,-0x57d(%rbp)
    a8a9:	48 b8 02 04 ff 01 72 	movabs $0x7201017201ff0402,%rax
    a8b0:	01 01 72 
    a8b3:	48 89 85 84 fa ff ff 	mov    %rax,-0x57c(%rbp)
    a8ba:	c6 85 8c fa ff ff 01 	movb   $0x1,-0x574(%rbp)
    a8c1:	48 b8 fd ab fd ff 01 	movabs $0xf6ff0301fffdabfd,%rax
    a8c8:	03 ff f6 
    a8cb:	48 89 85 8d fa ff ff 	mov    %rax,-0x573(%rbp)
    a8d2:	c6 85 95 fa ff ff 01 	movb   $0x1,-0x56b(%rbp)
    a8d9:	48 b8 5b fd 72 7a 1e 	movabs $0x7a1ef61e7a72fd5b,%rax
    a8e0:	f6 1e 7a 
    a8e3:	48 89 85 96 fa ff ff 	mov    %rax,-0x56a(%rbp)
    a8ea:	c6 85 9e fa ff ff 72 	movb   $0x72,-0x562(%rbp)
    a8f1:	48 b8 01 01 ab ff 5b 	movabs $0x7a72fd5bffab0101,%rax
    a8f8:	fd 72 7a 
    a8fb:	48 89 85 9f fa ff ff 	mov    %rax,-0x561(%rbp)
    a902:	c6 85 a7 fa ff ff 1e 	movb   $0x1e,-0x559(%rbp)
    a909:	48 b8 03 ff f6 01 a3 	movabs $0xf601a3a301f6ff03,%rax
    a910:	a3 01 f6 
    a913:	48 89 85 a8 fa ff ff 	mov    %rax,-0x558(%rbp)
    a91a:	c6 85 b0 fa ff ff ff 	movb   $0xff,-0x550(%rbp)
    a921:	48 8d 05 38 02 01 00 	lea    0x10238(%rip),%rax        # 1ab60 <g_334>
    a928:	48 89 85 80 f9 ff ff 	mov    %rax,-0x680(%rbp)
    a92f:	c7 05 f7 c6 00 00 04 	movl   $0x4,0xc6f7(%rip)        # 17030 <g_6>
    a936:	00 00 00 
    a939:	eb 3a                	jmp    a975 <func_1+0x1c0>
    a93b:	c7 05 ef c6 00 00 00 	movl   $0x0,0xc6ef(%rip)        # 17034 <g_7>
    a942:	00 00 00 
    a945:	90                   	nop
    a946:	8b 05 e8 c6 00 00    	mov    0xc6e8(%rip),%eax        # 17034 <g_7>
    a94c:	83 f8 04             	cmp    $0x4,%eax
    a94f:	7f 15                	jg     a966 <func_1+0x1b1>
    a951:	8b 05 dd c6 00 00    	mov    0xc6dd(%rip),%eax        # 17034 <g_7>
    a957:	48 98                	cltq   
    a959:	48 8b 84 c5 d0 f9 ff 	mov    -0x630(%rbp,%rax,8),%rax
    a960:	ff 
    a961:	e9 38 08 00 00       	jmpq   b19e <func_1+0x9e9>
    a966:	8b 05 c4 c6 00 00    	mov    0xc6c4(%rip),%eax        # 17030 <g_6>
    a96c:	83 e8 01             	sub    $0x1,%eax
    a96f:	89 05 bb c6 00 00    	mov    %eax,0xc6bb(%rip)        # 17030 <g_6>
    a975:	8b 05 b5 c6 00 00    	mov    0xc6b5(%rip),%eax        # 17030 <g_6>
    a97b:	85 c0                	test   %eax,%eax
    a97d:	79 bc                	jns    a93b <func_1+0x186>
    a97f:	c7 05 ab c6 00 00 1c 	movl   $0x1c,0xc6ab(%rip)        # 17034 <g_7>
    a986:	00 00 00 
    a989:	e9 f8 07 00 00       	jmpq   b186 <func_1+0x9d1>
    a98e:	c7 85 60 f9 ff ff 12 	movl   $0xf1448112,-0x6a0(%rbp)
    a995:	81 44 f1 
    a998:	c7 85 68 f9 ff ff 01 	movl   $0x1,-0x698(%rbp)
    a99f:	00 00 00 
    a9a2:	c6 85 57 f9 ff ff 00 	movb   $0x0,-0x6a9(%rbp)
    a9a9:	48 8d 85 70 f9 ff ff 	lea    -0x690(%rbp),%rax
    a9b0:	48 89 85 60 fb ff ff 	mov    %rax,-0x4a0(%rbp)
    a9b7:	48 8d 85 70 f9 ff ff 	lea    -0x690(%rbp),%rax
    a9be:	48 89 85 68 fb ff ff 	mov    %rax,-0x498(%rbp)
    a9c5:	48 8d 85 70 f9 ff ff 	lea    -0x690(%rbp),%rax
    a9cc:	48 89 85 70 fb ff ff 	mov    %rax,-0x490(%rbp)
    a9d3:	48 8d 85 70 f9 ff ff 	lea    -0x690(%rbp),%rax
    a9da:	48 89 85 78 fb ff ff 	mov    %rax,-0x488(%rbp)
    a9e1:	48 8d 85 70 f9 ff ff 	lea    -0x690(%rbp),%rax
    a9e8:	48 89 85 80 fb ff ff 	mov    %rax,-0x480(%rbp)
    a9ef:	48 8d 85 70 f9 ff ff 	lea    -0x690(%rbp),%rax
    a9f6:	48 89 85 88 fb ff ff 	mov    %rax,-0x478(%rbp)
    a9fd:	48 8d 85 70 f9 ff ff 	lea    -0x690(%rbp),%rax
    aa04:	48 89 85 90 fb ff ff 	mov    %rax,-0x470(%rbp)
    aa0b:	48 8d 85 70 f9 ff ff 	lea    -0x690(%rbp),%rax
    aa12:	48 89 85 98 fb ff ff 	mov    %rax,-0x468(%rbp)
    aa19:	48 8d 85 70 f9 ff ff 	lea    -0x690(%rbp),%rax
    aa20:	48 89 85 a0 fb ff ff 	mov    %rax,-0x460(%rbp)
    aa27:	48 8d 85 70 f9 ff ff 	lea    -0x690(%rbp),%rax
    aa2e:	48 89 85 a8 fb ff ff 	mov    %rax,-0x458(%rbp)
    aa35:	48 8d 85 70 f9 ff ff 	lea    -0x690(%rbp),%rax
    aa3c:	48 89 85 b0 fb ff ff 	mov    %rax,-0x450(%rbp)
    aa43:	48 8d 85 70 f9 ff ff 	lea    -0x690(%rbp),%rax
    aa4a:	48 89 85 b8 fb ff ff 	mov    %rax,-0x448(%rbp)
    aa51:	48 8d 85 70 f9 ff ff 	lea    -0x690(%rbp),%rax
    aa58:	48 89 85 c0 fb ff ff 	mov    %rax,-0x440(%rbp)
    aa5f:	48 8d 85 70 f9 ff ff 	lea    -0x690(%rbp),%rax
    aa66:	48 89 85 c8 fb ff ff 	mov    %rax,-0x438(%rbp)
    aa6d:	48 8d 85 70 f9 ff ff 	lea    -0x690(%rbp),%rax
    aa74:	48 89 85 d0 fb ff ff 	mov    %rax,-0x430(%rbp)
    aa7b:	48 8d 85 70 f9 ff ff 	lea    -0x690(%rbp),%rax
    aa82:	48 89 85 d8 fb ff ff 	mov    %rax,-0x428(%rbp)
    aa89:	48 8d 85 70 f9 ff ff 	lea    -0x690(%rbp),%rax
    aa90:	48 89 85 e0 fb ff ff 	mov    %rax,-0x420(%rbp)
    aa97:	48 8d 85 70 f9 ff ff 	lea    -0x690(%rbp),%rax
    aa9e:	48 89 85 e8 fb ff ff 	mov    %rax,-0x418(%rbp)
    aaa5:	48 8d 85 70 f9 ff ff 	lea    -0x690(%rbp),%rax
    aaac:	48 89 85 f0 fb ff ff 	mov    %rax,-0x410(%rbp)
    aab3:	48 8d 85 70 f9 ff ff 	lea    -0x690(%rbp),%rax
    aaba:	48 89 85 f8 fb ff ff 	mov    %rax,-0x408(%rbp)
    aac1:	48 8d 85 70 f9 ff ff 	lea    -0x690(%rbp),%rax
    aac8:	48 89 85 00 fc ff ff 	mov    %rax,-0x400(%rbp)
    aacf:	48 8d 85 70 f9 ff ff 	lea    -0x690(%rbp),%rax
    aad6:	48 89 85 08 fc ff ff 	mov    %rax,-0x3f8(%rbp)
    aadd:	48 8d 85 70 f9 ff ff 	lea    -0x690(%rbp),%rax
    aae4:	48 89 85 10 fc ff ff 	mov    %rax,-0x3f0(%rbp)
    aaeb:	48 8d 85 70 f9 ff ff 	lea    -0x690(%rbp),%rax
    aaf2:	48 89 85 18 fc ff ff 	mov    %rax,-0x3e8(%rbp)
    aaf9:	48 8d 85 70 f9 ff ff 	lea    -0x690(%rbp),%rax
    ab00:	48 89 85 20 fc ff ff 	mov    %rax,-0x3e0(%rbp)
    ab07:	48 8d 85 70 f9 ff ff 	lea    -0x690(%rbp),%rax
    ab0e:	48 89 85 28 fc ff ff 	mov    %rax,-0x3d8(%rbp)
    ab15:	48 8d 85 70 f9 ff ff 	lea    -0x690(%rbp),%rax
    ab1c:	48 89 85 30 fc ff ff 	mov    %rax,-0x3d0(%rbp)
    ab23:	48 8d 85 70 f9 ff ff 	lea    -0x690(%rbp),%rax
    ab2a:	48 89 85 38 fc ff ff 	mov    %rax,-0x3c8(%rbp)
    ab31:	48 8d 85 70 f9 ff ff 	lea    -0x690(%rbp),%rax
    ab38:	48 89 85 40 fc ff ff 	mov    %rax,-0x3c0(%rbp)
    ab3f:	48 8d 85 70 f9 ff ff 	lea    -0x690(%rbp),%rax
    ab46:	48 89 85 48 fc ff ff 	mov    %rax,-0x3b8(%rbp)
    ab4d:	48 8d 85 70 f9 ff ff 	lea    -0x690(%rbp),%rax
    ab54:	48 89 85 50 fc ff ff 	mov    %rax,-0x3b0(%rbp)
    ab5b:	48 8d 85 70 f9 ff ff 	lea    -0x690(%rbp),%rax
    ab62:	48 89 85 58 fc ff ff 	mov    %rax,-0x3a8(%rbp)
    ab69:	48 8d 85 70 f9 ff ff 	lea    -0x690(%rbp),%rax
    ab70:	48 89 85 60 fc ff ff 	mov    %rax,-0x3a0(%rbp)
    ab77:	48 8d 85 70 f9 ff ff 	lea    -0x690(%rbp),%rax
    ab7e:	48 89 85 68 fc ff ff 	mov    %rax,-0x398(%rbp)
    ab85:	48 8d 85 70 f9 ff ff 	lea    -0x690(%rbp),%rax
    ab8c:	48 89 85 70 fc ff ff 	mov    %rax,-0x390(%rbp)
    ab93:	48 8d 85 70 f9 ff ff 	lea    -0x690(%rbp),%rax
    ab9a:	48 89 85 78 fc ff ff 	mov    %rax,-0x388(%rbp)
    aba1:	48 8d 85 70 f9 ff ff 	lea    -0x690(%rbp),%rax
    aba8:	48 89 85 80 fc ff ff 	mov    %rax,-0x380(%rbp)
    abaf:	48 8d 85 70 f9 ff ff 	lea    -0x690(%rbp),%rax
    abb6:	48 89 85 88 fc ff ff 	mov    %rax,-0x378(%rbp)
    abbd:	48 8d 85 70 f9 ff ff 	lea    -0x690(%rbp),%rax
    abc4:	48 89 85 90 fc ff ff 	mov    %rax,-0x370(%rbp)
    abcb:	48 8d 85 70 f9 ff ff 	lea    -0x690(%rbp),%rax
    abd2:	48 89 85 98 fc ff ff 	mov    %rax,-0x368(%rbp)
    abd9:	48 8d 85 60 fb ff ff 	lea    -0x4a0(%rbp),%rax
    abe0:	48 89 85 88 f9 ff ff 	mov    %rax,-0x678(%rbp)
    abe7:	48 8d 85 e0 fd ff ff 	lea    -0x220(%rbp),%rax
    abee:	48 8d 15 cb cd 00 00 	lea    0xcdcb(%rip),%rdx        # 179c0 <g_1455+0x10>
    abf5:	b9 3f 00 00 00       	mov    $0x3f,%ecx
    abfa:	48 89 c7             	mov    %rax,%rdi
    abfd:	48 89 d6             	mov    %rdx,%rsi
    ac00:	f3 48 a5             	rep movsq %ds:(%rsi),%es:(%rdi)
    ac03:	c7 85 6c f9 ff ff 53 	movl   $0x44150953,-0x694(%rbp)
    ac0a:	09 15 44 
    ac0d:	48 c7 85 78 f9 ff ff 	movq   $0x0,-0x688(%rbp)
    ac14:	00 00 00 00 
    ac18:	48 8d 85 78 f9 ff ff 	lea    -0x688(%rbp),%rax
    ac1f:	48 89 85 90 f9 ff ff 	mov    %rax,-0x670(%rbp)
    ac26:	c7 85 64 f9 ff ff 00 	movl   $0x0,-0x69c(%rbp)
    ac2d:	00 00 00 
    ac30:	eb 1e                	jmp    ac50 <func_1+0x49b>
    ac32:	8b 85 64 f9 ff ff    	mov    -0x69c(%rbp),%eax
    ac38:	48 98                	cltq   
    ac3a:	48 8d 15 27 cb 00 00 	lea    0xcb27(%rip),%rdx        # 17768 <g_145>
    ac41:	48 89 94 c5 b8 f9 ff 	mov    %rdx,-0x648(%rbp,%rax,8)
    ac48:	ff 
    ac49:	83 85 64 f9 ff ff 01 	addl   $0x1,-0x69c(%rbp)
    ac50:	83 bd 64 f9 ff ff 00 	cmpl   $0x0,-0x69c(%rbp)
    ac57:	7e d9                	jle    ac32 <func_1+0x47d>
    ac59:	c7 05 cd c3 00 00 00 	movl   $0x0,0xc3cd(%rip)        # 17030 <g_6>
    ac60:	00 00 00 
    ac63:	e9 ea 01 00 00       	jmpq   ae52 <func_1+0x69d>
    ac68:	48 c7 85 98 f9 ff ff 	movq   $0x0,-0x668(%rbp)
    ac6f:	00 00 00 00 
    ac73:	48 8d 85 a0 fc ff ff 	lea    -0x360(%rbp),%rax
    ac7a:	48 8d 15 3f cf 00 00 	lea    0xcf3f(%rip),%rdx        # 17bc0 <g_1455+0x210>
    ac81:	b9 28 00 00 00       	mov    $0x28,%ecx
    ac86:	48 89 c7             	mov    %rax,%rdi
    ac89:	48 89 d6             	mov    %rdx,%rsi
    ac8c:	f3 48 a5             	rep movsq %ds:(%rsi),%es:(%rdi)
    ac8f:	48 c7 85 a0 f9 ff ff 	movq   $0x0,-0x660(%rbp)
    ac96:	00 00 00 00 
    ac9a:	48 8d 05 f7 f9 00 00 	lea    0xf9f7(%rip),%rax        # 1a698 <g_694>
    aca1:	48 89 85 a8 f9 ff ff 	mov    %rax,-0x658(%rbp)
    aca8:	48 8d 05 af c3 00 00 	lea    0xc3af(%rip),%rax        # 1705e <g_67+0x6>
    acaf:	48 89 85 b0 f9 ff ff 	mov    %rax,-0x650(%rbp)
    acb6:	48 c7 85 30 fa ff ff 	movq   $0x0,-0x5d0(%rbp)
    acbd:	00 00 00 00 
    acc1:	48 c7 85 38 fa ff ff 	movq   $0x0,-0x5c8(%rbp)
    acc8:	00 00 00 00 
    accc:	48 c7 85 40 fa ff ff 	movq   $0x0,-0x5c0(%rbp)
    acd3:	00 00 00 00 
    acd7:	48 c7 85 48 fa ff ff 	movq   $0x0,-0x5b8(%rbp)
    acde:	00 00 00 00 
    ace2:	48 c7 85 50 fa ff ff 	movq   $0x0,-0x5b0(%rbp)
    ace9:	00 00 00 00 
    aced:	48 8d 05 fc f9 00 00 	lea    0xf9fc(%rip),%rax        # 1a6f0 <g_1327>
    acf4:	48 89 85 c0 fa ff ff 	mov    %rax,-0x540(%rbp)
    acfb:	48 8d 05 ee f9 00 00 	lea    0xf9ee(%rip),%rax        # 1a6f0 <g_1327>
    ad02:	48 89 85 c8 fa ff ff 	mov    %rax,-0x538(%rbp)
    ad09:	48 8d 05 e0 f9 00 00 	lea    0xf9e0(%rip),%rax        # 1a6f0 <g_1327>
    ad10:	48 89 85 d0 fa ff ff 	mov    %rax,-0x530(%rbp)
    ad17:	48 8d 05 d2 f9 00 00 	lea    0xf9d2(%rip),%rax        # 1a6f0 <g_1327>
    ad1e:	48 89 85 d8 fa ff ff 	mov    %rax,-0x528(%rbp)
    ad25:	48 8d 05 c4 f9 00 00 	lea    0xf9c4(%rip),%rax        # 1a6f0 <g_1327>
    ad2c:	48 89 85 e0 fa ff ff 	mov    %rax,-0x520(%rbp)
    ad33:	48 8d 05 b6 f9 00 00 	lea    0xf9b6(%rip),%rax        # 1a6f0 <g_1327>
    ad3a:	48 89 85 e8 fa ff ff 	mov    %rax,-0x518(%rbp)
    ad41:	48 c7 85 f0 fa ff ff 	movq   $0x0,-0x510(%rbp)
    ad48:	00 00 00 00 
    ad4c:	48 8d 05 9d f9 00 00 	lea    0xf99d(%rip),%rax        # 1a6f0 <g_1327>
    ad53:	48 89 85 f8 fa ff ff 	mov    %rax,-0x508(%rbp)
    ad5a:	48 8d 05 8f f9 00 00 	lea    0xf98f(%rip),%rax        # 1a6f0 <g_1327>
    ad61:	48 89 85 00 fb ff ff 	mov    %rax,-0x500(%rbp)
    ad68:	48 8d 05 81 f9 00 00 	lea    0xf981(%rip),%rax        # 1a6f0 <g_1327>
    ad6f:	48 89 85 08 fb ff ff 	mov    %rax,-0x4f8(%rbp)
    ad76:	48 8d 05 73 f9 00 00 	lea    0xf973(%rip),%rax        # 1a6f0 <g_1327>
    ad7d:	48 89 85 10 fb ff ff 	mov    %rax,-0x4f0(%rbp)
    ad84:	48 8d 05 65 f9 00 00 	lea    0xf965(%rip),%rax        # 1a6f0 <g_1327>
    ad8b:	48 89 85 18 fb ff ff 	mov    %rax,-0x4e8(%rbp)
    ad92:	48 8d 05 57 f9 00 00 	lea    0xf957(%rip),%rax        # 1a6f0 <g_1327>
    ad99:	48 89 85 20 fb ff ff 	mov    %rax,-0x4e0(%rbp)
    ada0:	48 8d 05 49 f9 00 00 	lea    0xf949(%rip),%rax        # 1a6f0 <g_1327>
    ada7:	48 89 85 28 fb ff ff 	mov    %rax,-0x4d8(%rbp)
    adae:	48 8d 05 3b f9 00 00 	lea    0xf93b(%rip),%rax        # 1a6f0 <g_1327>
    adb5:	48 89 85 30 fb ff ff 	mov    %rax,-0x4d0(%rbp)
    adbc:	48 8d 05 2d f9 00 00 	lea    0xf92d(%rip),%rax        # 1a6f0 <g_1327>
    adc3:	48 89 85 38 fb ff ff 	mov    %rax,-0x4c8(%rbp)
    adca:	48 8d 05 1f f9 00 00 	lea    0xf91f(%rip),%rax        # 1a6f0 <g_1327>
    add1:	48 89 85 40 fb ff ff 	mov    %rax,-0x4c0(%rbp)
    add8:	48 8d 05 11 f9 00 00 	lea    0xf911(%rip),%rax        # 1a6f0 <g_1327>
    addf:	48 89 85 48 fb ff ff 	mov    %rax,-0x4b8(%rbp)
    ade6:	48 c7 85 50 fb ff ff 	movq   $0x0,-0x4b0(%rbp)
    aded:	00 00 00 00 
    adf1:	48 8d 05 f8 f8 00 00 	lea    0xf8f8(%rip),%rax        # 1a6f0 <g_1327>
    adf8:	48 89 85 58 fb ff ff 	mov    %rax,-0x4a8(%rbp)
    adff:	c7 85 5c f9 ff ff 00 	movl   $0x0,-0x6a4(%rbp)
    ae06:	00 00 00 
    ae09:	eb 1e                	jmp    ae29 <func_1+0x674>
    ae0b:	8b 85 5c f9 ff ff    	mov    -0x6a4(%rbp),%eax
    ae11:	48 98                	cltq   
    ae13:	48 8d 15 76 f8 00 00 	lea    0xf876(%rip),%rdx        # 1a690 <g_695>
    ae1a:	48 89 94 c5 00 fa ff 	mov    %rdx,-0x600(%rbp,%rax,8)
    ae21:	ff 
    ae22:	83 85 5c f9 ff ff 01 	addl   $0x1,-0x6a4(%rbp)
    ae29:	83 bd 5c f9 ff ff 04 	cmpl   $0x4,-0x6a4(%rbp)
    ae30:	7e d9                	jle    ae0b <func_1+0x656>
    ae32:	0f b7 05 07 c2 00 00 	movzwl 0xc207(%rip),%eax        # 17040 <g_20+0x4>
    ae39:	83 e8 01             	sub    $0x1,%eax
    ae3c:	66 89 05 fd c1 00 00 	mov    %ax,0xc1fd(%rip)        # 17040 <g_20+0x4>
    ae43:	8b 05 e7 c1 00 00    	mov    0xc1e7(%rip),%eax        # 17030 <g_6>
    ae49:	83 c0 01             	add    $0x1,%eax
    ae4c:	89 05 de c1 00 00    	mov    %eax,0xc1de(%rip)        # 17030 <g_6>
    ae52:	8b 05 d8 c1 00 00    	mov    0xc1d8(%rip),%eax        # 17030 <g_6>
    ae58:	83 f8 1d             	cmp    $0x1d,%eax
    ae5b:	0f 85 07 fe ff ff    	jne    ac68 <func_1+0x4b3>
    ae61:	8b 85 cc f9 ff ff    	mov    -0x634(%rbp),%eax
    ae67:	85 c0                	test   %eax,%eax
    ae69:	0f 85 28 03 00 00    	jne    b197 <func_1+0x9e2>
    ae6f:	48 8b 05 d2 f7 00 00 	mov    0xf7d2(%rip),%rax        # 1a648 <g_103>
    ae76:	48 8b 00             	mov    (%rax),%rax
    ae79:	48 8b 18             	mov    (%rax),%rbx
    ae7c:	44 8b 25 c9 fc 00 00 	mov    0xfcc9(%rip),%r12d        # 1ab4c <g_51>
    ae83:	0f b6 05 b8 c1 00 00 	movzbl 0xc1b8(%rip),%eax        # 17042 <g_32>
    ae8a:	66 98                	cbtw   
    ae8c:	66 89 05 d5 ca 00 00 	mov    %ax,0xcad5(%rip)        # 17968 <g_323>
    ae93:	0f b7 05 ce ca 00 00 	movzwl 0xcace(%rip),%eax        # 17968 <g_323>
    ae9a:	98                   	cwtl   
    ae9b:	be 0d f1 ff ff       	mov    $0xfffff10d,%esi
    aea0:	89 c7                	mov    %eax,%edi
    aea2:	e8 4e e5 ff ff       	callq  93f5 <safe_mul_func_int16_t_s_s>
    aea7:	44 0f bf e8          	movswl %ax,%r13d
    aeab:	8b 85 cc f9 ff ff    	mov    -0x634(%rbp),%eax
    aeb1:	48 98                	cltq   
    aeb3:	48 89 c6             	mov    %rax,%rsi
    aeb6:	48 bf ef b1 c0 2d b1 	movabs $0x6594a2b12dc0b1ef,%rdi
    aebd:	a2 94 65 
    aec0:	e8 7c e9 ff ff       	callq  9841 <safe_add_func_int64_t_s_s>
    aec5:	44 89 ee             	mov    %r13d,%esi
    aec8:	89 c7                	mov    %eax,%edi
    aeca:	e8 56 f0 ff ff       	callq  9f25 <safe_div_func_uint32_t_u_u>
    aecf:	89 c6                	mov    %eax,%esi
    aed1:	bf 00 00 00 00       	mov    $0x0,%edi
    aed6:	e8 2b ef ff ff       	callq  9e06 <safe_lshift_func_uint16_t_u_u>
    aedb:	0f b6 95 79 fa ff ff 	movzbl -0x587(%rbp),%edx
    aee2:	0f b6 d2             	movzbl %dl,%edx
    aee5:	66 39 d0             	cmp    %dx,%ax
    aee8:	0f 93 c0             	setae  %al
    aeeb:	0f b6 d0             	movzbl %al,%edx
    aeee:	0f be 85 57 f9 ff ff 	movsbl -0x6a9(%rbp),%eax
    aef5:	21 d0                	and    %edx,%eax
    aef7:	41 89 c5             	mov    %eax,%r13d
    aefa:	48 83 bd 88 f9 ff ff 	cmpq   $0x0,-0x678(%rbp)
    af01:	00 
    af02:	0f 95 c0             	setne  %al
    af05:	0f b6 c0             	movzbl %al,%eax
    af08:	89 85 60 f9 ff ff    	mov    %eax,-0x6a0(%rbp)
    af0e:	8b 85 60 f9 ff ff    	mov    -0x6a0(%rbp),%eax
    af14:	0f b7 c0             	movzwl %ax,%eax
    af17:	89 c7                	mov    %eax,%edi
    af19:	e8 cb ed ff ff       	callq  9ce9 <safe_unary_minus_func_uint16_t_u>
    af1e:	0f b6 c0             	movzbl %al,%eax
    af21:	44 89 ee             	mov    %r13d,%esi
    af24:	89 c7                	mov    %eax,%edi
    af26:	e8 93 ed ff ff       	callq  9cbe <safe_rshift_func_uint8_t_u_u>
    af2b:	48 be 52 9b 1d 8e 3d 	movabs $0xfa82e33d8e1d9b52,%rsi
    af32:	e3 82 fa 
    af35:	bf 01 00 00 00       	mov    $0x1,%edi
    af3a:	e8 70 f1 ff ff       	callq  a0af <safe_div_func_uint64_t_u_u>
    af3f:	89 c7                	mov    %eax,%edi
    af41:	e8 60 ef ff ff       	callq  9ea6 <safe_unary_minus_func_uint32_t_u>
    af46:	8b 95 68 f9 ff ff    	mov    -0x698(%rbp),%edx
    af4c:	39 d0                	cmp    %edx,%eax
    af4e:	44 89 e6             	mov    %r12d,%esi
    af51:	bf 00 00 00 00       	mov    $0x0,%edi
    af56:	e8 cf e5 ff ff       	callq  952a <safe_rshift_func_int16_t_s_s>
    af5b:	98                   	cwtl   
    af5c:	89 85 cc f9 ff ff    	mov    %eax,-0x634(%rbp)
    af62:	8b 85 cc f9 ff ff    	mov    -0x634(%rbp),%eax
    af68:	48 98                	cltq   
    af6a:	48 89 de             	mov    %rbx,%rsi
    af6d:	48 89 c7             	mov    %rax,%rdi
    af70:	e8 3f ea ff ff       	callq  99b4 <safe_mod_func_int64_t_s_s>
    af75:	48 8b 15 14 f7 00 00 	mov    0xf714(%rip),%rdx        # 1a690 <g_695>
    af7c:	48 8b 12             	mov    (%rdx),%rdx
    af7f:	48 8b 12             	mov    (%rdx),%rdx
    af82:	8b 12                	mov    (%rdx),%edx
    af84:	89 c1                	mov    %eax,%ecx
    af86:	48 8b 05 03 f7 00 00 	mov    0xf703(%rip),%rax        # 1a690 <g_695>
    af8d:	48 8b 00             	mov    (%rax),%rax
    af90:	48 8b 00             	mov    (%rax),%rax
    af93:	21 ca                	and    %ecx,%edx
    af95:	89 10                	mov    %edx,(%rax)
    af97:	48 8b 05 52 f7 00 00 	mov    0xf752(%rip),%rax        # 1a6f0 <g_1327>
    af9e:	0f b6 00             	movzbl (%rax),%eax
    afa1:	0f be d8             	movsbl %al,%ebx
    afa4:	48 83 bd 80 f9 ff ff 	cmpq   $0x0,-0x680(%rbp)
    afab:	00 
    afac:	0f 85 b0 00 00 00    	jne    b062 <func_1+0x8ad>
    afb2:	4c 8b 25 f7 c9 00 00 	mov    0xc9f7(%rip),%r12        # 179b0 <g_1455>
    afb9:	48 8b 85 90 f9 ff ff 	mov    -0x670(%rbp),%rax
    afc0:	48 8d 15 a1 c7 00 00 	lea    0xc7a1(%rip),%rdx        # 17768 <g_145>
    afc7:	48 89 10             	mov    %rdx,(%rax)
    afca:	0f b6 85 79 fa ff ff 	movzbl -0x587(%rbp),%eax
    afd1:	0f be c0             	movsbl %al,%eax
    afd4:	be 01 00 00 00       	mov    $0x1,%esi
    afd9:	89 c7                	mov    %eax,%edi
    afdb:	e8 8c e3 ff ff       	callq  936c <safe_rshift_func_int8_t_s_u>
    afe0:	48 8b 05 d9 c6 00 00 	mov    0xc6d9(%rip),%rax        # 176c0 <g_111>
    afe7:	48 8d 50 ff          	lea    -0x1(%rax),%rdx
    afeb:	48 89 15 ce c6 00 00 	mov    %rdx,0xc6ce(%rip)        # 176c0 <g_111>
    aff2:	89 c2                	mov    %eax,%edx
    aff4:	83 bd 60 f9 ff ff 00 	cmpl   $0x0,-0x6a0(%rbp)
    affb:	0f 94 c0             	sete   %al
    affe:	0f b6 c0             	movzbl %al,%eax
    b001:	09 d0                	or     %edx,%eax
    b003:	0f b7 d0             	movzwl %ax,%edx
    b006:	83 bd 60 f9 ff ff 00 	cmpl   $0x0,-0x6a0(%rbp)
    b00d:	0f 94 c0             	sete   %al
    b010:	0f b6 c0             	movzbl %al,%eax
    b013:	21 85 68 f9 ff ff    	and    %eax,-0x698(%rbp)
    b019:	8b 85 68 f9 ff ff    	mov    -0x698(%rbp),%eax
    b01f:	0f b7 c0             	movzwl %ax,%eax
    b022:	89 d6                	mov    %edx,%esi
    b024:	89 c7                	mov    %eax,%edi
    b026:	e8 d4 ec ff ff       	callq  9cff <safe_add_func_uint16_t_u_u>
    b02b:	0f b7 c0             	movzwl %ax,%eax
    b02e:	4c 89 e6             	mov    %r12,%rsi
    b031:	48 89 c7             	mov    %rax,%rdi
    b034:	e8 47 f0 ff ff       	callq  a080 <safe_mod_func_uint64_t_u_u>
    b039:	0f b7 c0             	movzwl %ax,%eax
    b03c:	be 0c 00 00 00       	mov    $0xc,%esi
    b041:	89 c7                	mov    %eax,%edi
    b043:	e8 32 ee ff ff       	callq  9e7a <safe_rshift_func_uint16_t_u_u>
    b048:	be 05 00 00 00       	mov    $0x5,%esi
    b04d:	bf 01 00 00 00       	mov    $0x1,%edi
    b052:	e8 ae eb ff ff       	callq  9c05 <safe_lshift_func_uint8_t_u_s>
    b057:	84 c0                	test   %al,%al
    b059:	74 07                	je     b062 <func_1+0x8ad>
    b05b:	b8 01 00 00 00       	mov    $0x1,%eax
    b060:	eb 05                	jmp    b067 <func_1+0x8b2>
    b062:	b8 00 00 00 00       	mov    $0x0,%eax
    b067:	0f be c0             	movsbl %al,%eax
    b06a:	89 de                	mov    %ebx,%esi
    b06c:	89 c7                	mov    %eax,%edi
    b06e:	e8 7f e1 ff ff       	callq  91f2 <safe_sub_func_int8_t_s_s>
    b073:	3c ff                	cmp    $0xff,%al
    b075:	0f 84 e1 00 00 00    	je     b15c <func_1+0x9a7>
    b07b:	c7 85 60 f9 ff ff 10 	movl   $0x10,-0x6a0(%rbp)
    b082:	00 00 00 
    b085:	e9 c3 00 00 00       	jmpq   b14d <func_1+0x998>
    b08a:	c7 85 58 f9 ff ff 05 	movl   $0x5,-0x6a8(%rbp)
    b091:	00 00 00 
    b094:	48 8b 05 cd f5 00 00 	mov    0xf5cd(%rip),%rax        # 1a668 <g_398>
    b09b:	c7 00 3b fe 6b 74    	movl   $0x746bfe3b,(%rax)
    b0a1:	c7 05 c1 c6 00 00 0f 	movl   $0xf,0xc6c1(%rip)        # 1776c <g_217>
    b0a8:	00 00 00 
    b0ab:	90                   	nop
    b0ac:	8b 05 ba c6 00 00    	mov    0xc6ba(%rip),%eax        # 1776c <g_217>
    b0b2:	83 f8 0f             	cmp    $0xf,%eax
    b0b5:	76 0b                	jbe    b0c2 <func_1+0x90d>
    b0b7:	8b 85 58 f9 ff ff    	mov    -0x6a8(%rbp),%eax
    b0bd:	e9 dc 00 00 00       	jmpq   b19e <func_1+0x9e9>
    b0c2:	c6 05 79 bf 00 00 05 	movb   $0x5,0xbf79(%rip)        # 17042 <g_32>
    b0c9:	eb 5f                	jmp    b12a <func_1+0x975>
    b0cb:	c6 05 d6 c8 00 00 00 	movb   $0x0,0xc8d6(%rip)        # 179a8 <g_1014>
    b0d2:	eb 2d                	jmp    b101 <func_1+0x94c>
    b0d4:	48 8b 05 25 f6 00 00 	mov    0xf625(%rip),%rax        # 1a700 <g_1465>
    b0db:	48 8d 15 c6 fa 00 00 	lea    0xfac6(%rip),%rdx        # 1aba8 <g_456>
    b0e2:	48 89 10             	mov    %rdx,(%rax)
    b0e5:	0f b6 05 bc c8 00 00 	movzbl 0xc8bc(%rip),%eax        # 179a8 <g_1014>
    b0ec:	0f be c0             	movsbl %al,%eax
    b0ef:	be 06 00 00 00       	mov    $0x6,%esi
    b0f4:	89 c7                	mov    %eax,%edi
    b0f6:	e8 bb e4 ff ff       	callq  95b6 <safe_add_func_int32_t_s_s>
    b0fb:	88 05 a7 c8 00 00    	mov    %al,0xc8a7(%rip)        # 179a8 <g_1014>
    b101:	0f b6 05 a0 c8 00 00 	movzbl 0xc8a0(%rip),%eax        # 179a8 <g_1014>
    b108:	3c 08                	cmp    $0x8,%al
    b10a:	74 c8                	je     b0d4 <func_1+0x91f>
    b10c:	0f b6 05 2f bf 00 00 	movzbl 0xbf2f(%rip),%eax        # 17042 <g_32>
    b113:	66 98                	cbtw   
    b115:	0f b7 c0             	movzwl %ax,%eax
    b118:	be 02 00 00 00       	mov    $0x2,%esi
    b11d:	89 c7                	mov    %eax,%edi
    b11f:	e8 db eb ff ff       	callq  9cff <safe_add_func_uint16_t_u_u>
    b124:	88 05 18 bf 00 00    	mov    %al,0xbf18(%rip)        # 17042 <g_32>
    b12a:	0f b6 05 11 bf 00 00 	movzbl 0xbf11(%rip),%eax        # 17042 <g_32>
    b131:	3c 17                	cmp    $0x17,%al
    b133:	74 96                	je     b0cb <func_1+0x916>
    b135:	48 8b 05 24 f5 00 00 	mov    0xf524(%rip),%rax        # 1a660 <g_295>
    b13c:	48 8d 95 58 f9 ff ff 	lea    -0x6a8(%rbp),%rdx
    b143:	48 89 10             	mov    %rdx,(%rax)
    b146:	83 ad 60 f9 ff ff 01 	subl   $0x1,-0x6a0(%rbp)
    b14d:	83 bd 60 f9 ff ff ec 	cmpl   $0xffffffec,-0x6a0(%rbp)
    b154:	0f 8c 30 ff ff ff    	jl     b08a <func_1+0x8d5>
    b15a:	eb 1b                	jmp    b177 <func_1+0x9c2>
    b15c:	48 8b 05 35 f5 00 00 	mov    0xf535(%rip),%rax        # 1a698 <g_694>
    b163:	48 8b 00             	mov    (%rax),%rax
    b166:	48 8b 00             	mov    (%rax),%rax
    b169:	48 8b 10             	mov    (%rax),%rdx
    b16c:	48 8b 05 dd f4 00 00 	mov    0xf4dd(%rip),%rax        # 1a650 <g_123>
    b173:	8b 12                	mov    (%rdx),%edx
    b175:	89 10                	mov    %edx,(%rax)
    b177:	8b 05 b7 be 00 00    	mov    0xbeb7(%rip),%eax        # 17034 <g_7>
    b17d:	83 e8 01             	sub    $0x1,%eax
    b180:	89 05 ae be 00 00    	mov    %eax,0xbeae(%rip)        # 17034 <g_7>
    b186:	8b 05 a8 be 00 00    	mov    0xbea8(%rip),%eax        # 17034 <g_7>
    b18c:	83 f8 fb             	cmp    $0xfffffffb,%eax
    b18f:	0f 8d f9 f7 ff ff    	jge    a98e <func_1+0x1d9>
    b195:	eb 01                	jmp    b198 <func_1+0x9e3>
    b197:	90                   	nop
    b198:	8b 85 c8 f9 ff ff    	mov    -0x638(%rbp),%eax
    b19e:	48 8b 5d d8          	mov    -0x28(%rbp),%rbx
    b1a2:	64 48 33 1c 25 28 00 	xor    %fs:0x28,%rbx
    b1a9:	00 00 
    b1ab:	74 05                	je     b1b2 <func_1+0x9fd>
    b1ad:	e8 be de ff ff       	callq  9070 <__stack_chk_fail@plt>
    b1b2:	48 81 c4 98 06 00 00 	add    $0x698,%rsp
    b1b9:	5b                   	pop    %rbx
    b1ba:	41 5c                	pop    %r12
    b1bc:	41 5d                	pop    %r13
    b1be:	5d                   	pop    %rbp
    b1bf:	c3                   	retq   

000000000000b1c0 <func_23>:
    b1c0:	f3 0f 1e fa          	endbr64 
    b1c4:	55                   	push   %rbp
    b1c5:	48 89 e5             	mov    %rsp,%rbp
    b1c8:	41 57                	push   %r15
    b1ca:	41 56                	push   %r14
    b1cc:	41 55                	push   %r13
    b1ce:	41 54                	push   %r12
    b1d0:	53                   	push   %rbx
    b1d1:	48 81 ec 00 10 00 00 	sub    $0x1000,%rsp
    b1d8:	48 83 0c 24 00       	orq    $0x0,(%rsp)
    b1dd:	48 81 ec 58 05 00 00 	sub    $0x558,%rsp
    b1e4:	48 89 bd 88 ea ff ff 	mov    %rdi,-0x1578(%rbp)
    b1eb:	89 f0                	mov    %esi,%eax
    b1ed:	88 85 84 ea ff ff    	mov    %al,-0x157c(%rbp)
    b1f3:	64 48 8b 04 25 28 00 	mov    %fs:0x28,%rax
    b1fa:	00 00 
    b1fc:	48 89 45 c8          	mov    %rax,-0x38(%rbp)
    b200:	31 c0                	xor    %eax,%eax
    b202:	48 c7 85 d0 ea ff ff 	movq   $0x7,-0x1530(%rbp)
    b209:	07 00 00 00 
    b20d:	c6 85 94 ea ff ff 49 	movb   $0x49,-0x156c(%rbp)
    b214:	48 c7 85 00 eb ff ff 	movq   $0x0,-0x1500(%rbp)
    b21b:	00 00 00 00 
    b21f:	48 c7 85 08 eb ff ff 	movq   $0xfffffffffffffffd,-0x14f8(%rbp)
    b226:	fd ff ff ff 
    b22a:	c7 85 98 ea ff ff 00 	movl   $0x0,-0x1568(%rbp)
    b231:	00 00 00 
    b234:	eb 1a                	jmp    b250 <func_23+0x90>
    b236:	8b 85 98 ea ff ff    	mov    -0x1568(%rbp),%eax
    b23c:	48 98                	cltq   
    b23e:	c7 84 85 00 ec ff ff 	movl   $0x3,-0x1400(%rbp,%rax,4)
    b245:	03 00 00 00 
    b249:	83 85 98 ea ff ff 01 	addl   $0x1,-0x1568(%rbp)
    b250:	83 bd 98 ea ff ff 07 	cmpl   $0x7,-0x1568(%rbp)
    b257:	7e dd                	jle    b236 <func_23+0x76>
    b259:	c7 85 98 ea ff ff 00 	movl   $0x0,-0x1568(%rbp)
    b260:	00 00 00 
    b263:	eb 1a                	jmp    b27f <func_23+0xbf>
    b265:	8b 85 98 ea ff ff    	mov    -0x1568(%rbp),%eax
    b26b:	48 98                	cltq   
    b26d:	c7 84 85 e0 eb ff ff 	movl   $0x8099c817,-0x1420(%rbp,%rax,4)
    b274:	17 c8 99 80 
    b278:	83 85 98 ea ff ff 01 	addl   $0x1,-0x1568(%rbp)
    b27f:	83 bd 98 ea ff ff 06 	cmpl   $0x6,-0x1568(%rbp)
    b286:	7e dd                	jle    b265 <func_23+0xa5>
    b288:	c6 85 84 ea ff ff 00 	movb   $0x0,-0x157c(%rbp)
    b28f:	90                   	nop
    b290:	0f b6 85 84 ea ff ff 	movzbl -0x157c(%rbp),%eax
    b297:	3c 1e                	cmp    $0x1e,%al
    b299:	0f 86 c9 28 00 00    	jbe    db68 <func_23+0x29a8>
    b29f:	48 b8 3b 57 c2 d6 35 	movabs $0x7e097e35d6c2573b,%rax
    b2a6:	7e 09 7e 
    b2a9:	48 89 85 d8 ea ff ff 	mov    %rax,-0x1528(%rbp)
    b2b0:	c7 85 9c ea ff ff 09 	movl   $0x9,-0x1564(%rbp)
    b2b7:	00 00 00 
    b2ba:	48 8d 85 d0 ea ff ff 	lea    -0x1530(%rbp),%rax
    b2c1:	48 89 85 10 eb ff ff 	mov    %rax,-0x14f0(%rbp)
    b2c8:	48 c7 85 e0 ea ff ff 	movq   $0xfffffffffffffffc,-0x1520(%rbp)
    b2cf:	fc ff ff ff 
    b2d3:	48 c7 85 e8 ea ff ff 	movq   $0x0,-0x1518(%rbp)
    b2da:	00 00 00 00 
    b2de:	48 8d 85 e8 ea ff ff 	lea    -0x1518(%rbp),%rax
    b2e5:	48 89 85 18 eb ff ff 	mov    %rax,-0x14e8(%rbp)
    b2ec:	48 b8 c4 3a 57 1c 16 	movabs $0xd7f32c161c573ac4,%rax
    b2f3:	2c f3 d7 
    b2f6:	48 89 85 20 eb ff ff 	mov    %rax,-0x14e0(%rbp)
    b2fd:	66 c7 85 96 ea ff ff 	movw   $0x715f,-0x156a(%rbp)
    b304:	5f 71 
    b306:	c7 85 a0 ea ff ff 00 	movl   $0x0,-0x1560(%rbp)
    b30d:	00 00 00 
    b310:	eb 1e                	jmp    b330 <func_23+0x170>
    b312:	8b 85 a0 ea ff ff    	mov    -0x1560(%rbp),%eax
    b318:	48 98                	cltq   
    b31a:	48 8d 15 1f c4 00 00 	lea    0xc41f(%rip),%rdx        # 17740 <g_122>
    b321:	48 89 94 c5 b0 eb ff 	mov    %rdx,-0x1450(%rbp,%rax,8)
    b328:	ff 
    b329:	83 85 a0 ea ff ff 01 	addl   $0x1,-0x1560(%rbp)
    b330:	83 bd a0 ea ff ff 01 	cmpl   $0x1,-0x1560(%rbp)
    b337:	7e d9                	jle    b312 <func_23+0x152>
    b339:	48 8b 85 88 ea ff ff 	mov    -0x1578(%rbp),%rax
    b340:	8b 00                	mov    (%rax),%eax
    b342:	85 c0                	test   %eax,%eax
    b344:	0f 84 a5 00 00 00    	je     b3ef <func_23+0x22f>
    b34a:	48 8d 05 23 c6 00 00 	lea    0xc623(%rip),%rax        # 17974 <g_652>
    b351:	48 89 85 28 eb ff ff 	mov    %rax,-0x14d8(%rbp)
    b358:	48 8b 05 11 f3 00 00 	mov    0xf311(%rip),%rax        # 1a670 <g_397>
    b35f:	48 8b 00             	mov    (%rax),%rax
    b362:	48 89 85 28 eb ff ff 	mov    %rax,-0x14d8(%rbp)
    b369:	c6 05 39 c6 00 00 14 	movb   $0x14,0xc639(%rip)        # 179a9 <g_1052>
    b370:	eb 70                	jmp    b3e2 <func_23+0x222>
    b372:	c7 85 a4 ea ff ff 00 	movl   $0x0,-0x155c(%rbp)
    b379:	00 00 00 
    b37c:	eb 19                	jmp    b397 <func_23+0x1d7>
    b37e:	8b 85 a4 ea ff ff    	mov    -0x155c(%rbp),%eax
    b384:	48 98                	cltq   
    b386:	66 c7 84 45 30 f8 ff 	movw   $0x595f,-0x7d0(%rbp,%rax,2)
    b38d:	ff 5f 59 
    b390:	83 85 a4 ea ff ff 01 	addl   $0x1,-0x155c(%rbp)
    b397:	83 bd a4 ea ff ff 06 	cmpl   $0x6,-0x155c(%rbp)
    b39e:	7e de                	jle    b37e <func_23+0x1be>
    b3a0:	48 8b 05 c9 f2 00 00 	mov    0xf2c9(%rip),%rax        # 1a670 <g_397>
    b3a7:	48 8b 00             	mov    (%rax),%rax
    b3aa:	8b 08                	mov    (%rax),%ecx
    b3ac:	0f b7 85 3a f8 ff ff 	movzwl -0x7c6(%rbp),%eax
    b3b3:	0f bf d0             	movswl %ax,%edx
    b3b6:	48 8b 05 b3 f2 00 00 	mov    0xf2b3(%rip),%rax        # 1a670 <g_397>
    b3bd:	48 8b 00             	mov    (%rax),%rax
    b3c0:	21 ca                	and    %ecx,%edx
    b3c2:	89 10                	mov    %edx,(%rax)
    b3c4:	0f b6 05 de c5 00 00 	movzbl 0xc5de(%rip),%eax        # 179a9 <g_1052>
    b3cb:	48 0f be c0          	movsbq %al,%rax
    b3cf:	be 07 00 00 00       	mov    $0x7,%esi
    b3d4:	48 89 c7             	mov    %rax,%rdi
    b3d7:	e8 6f ec ff ff       	callq  a04b <safe_sub_func_uint64_t_u_u>
    b3dc:	88 05 c7 c5 00 00    	mov    %al,0xc5c7(%rip)        # 179a9 <g_1052>
    b3e2:	0f b6 05 c0 c5 00 00 	movzbl 0xc5c0(%rip),%eax        # 179a9 <g_1052>
    b3e9:	3c f8                	cmp    $0xf8,%al
    b3eb:	75 85                	jne    b372 <func_23+0x1b2>
    b3ed:	eb 0c                	jmp    b3fb <func_23+0x23b>
    b3ef:	48 8b 85 88 ea ff ff 	mov    -0x1578(%rbp),%rax
    b3f6:	e9 74 27 00 00       	jmpq   db6f <func_23+0x29af>
    b3fb:	c7 05 47 f7 00 00 09 	movl   $0x9,0xf747(%rip)        # 1ab4c <g_51>
    b402:	00 00 00 
    b405:	e9 36 27 00 00       	jmpq   db40 <func_23+0x2980>
    b40a:	c7 85 a8 ea ff ff ff 	movl   $0xffffffff,-0x1558(%rbp)
    b411:	ff ff ff 
    b414:	48 8d 05 27 bc 00 00 	lea    0xbc27(%rip),%rax        # 17042 <g_32>
    b41b:	48 89 85 30 eb ff ff 	mov    %rax,-0x14d0(%rbp)
    b422:	c7 85 ac ea ff ff 00 	movl   $0x0,-0x1554(%rbp)
    b429:	00 00 00 
    b42c:	eb 1b                	jmp    b449 <func_23+0x289>
    b42e:	8b 85 ac ea ff ff    	mov    -0x1554(%rbp),%eax
    b434:	48 98                	cltq   
    b436:	48 c7 84 c5 50 ec ff 	movq   $0x0,-0x13b0(%rbp,%rax,8)
    b43d:	ff 00 00 00 00 
    b442:	83 85 ac ea ff ff 01 	addl   $0x1,-0x1554(%rbp)
    b449:	83 bd ac ea ff ff 08 	cmpl   $0x8,-0x1554(%rbp)
    b450:	7e dc                	jle    b42e <func_23+0x26e>
    b452:	c7 85 ac ea ff ff 00 	movl   $0x0,-0x1554(%rbp)
    b459:	00 00 00 
    b45c:	eb 47                	jmp    b4a5 <func_23+0x2e5>
    b45e:	c7 85 b0 ea ff ff 00 	movl   $0x0,-0x1550(%rbp)
    b465:	00 00 00 
    b468:	eb 2b                	jmp    b495 <func_23+0x2d5>
    b46a:	8b 85 b0 ea ff ff    	mov    -0x1550(%rbp),%eax
    b470:	48 63 d0             	movslq %eax,%rdx
    b473:	8b 85 ac ea ff ff    	mov    -0x1554(%rbp),%eax
    b479:	48 98                	cltq   
    b47b:	48 8d 5d d0          	lea    -0x30(%rbp),%rbx
    b47f:	48 01 da             	add    %rbx,%rdx
    b482:	48 01 d0             	add    %rdx,%rax
    b485:	48 2d 29 14 00 00    	sub    $0x1429,%rax
    b48b:	c6 00 de             	movb   $0xde,(%rax)
    b48e:	83 85 b0 ea ff ff 01 	addl   $0x1,-0x1550(%rbp)
    b495:	83 bd b0 ea ff ff 00 	cmpl   $0x0,-0x1550(%rbp)
    b49c:	7e cc                	jle    b46a <func_23+0x2aa>
    b49e:	83 85 ac ea ff ff 01 	addl   $0x1,-0x1554(%rbp)
    b4a5:	83 bd ac ea ff ff 08 	cmpl   $0x8,-0x1554(%rbp)
    b4ac:	7e b0                	jle    b45e <func_23+0x29e>
    b4ae:	8b 05 98 f6 00 00    	mov    0xf698(%rip),%eax        # 1ab4c <g_51>
    b4b4:	48 98                	cltq   
    b4b6:	48 8d 14 85 00 00 00 	lea    0x0(,%rax,4),%rdx
    b4bd:	00 
    b4be:	48 8d 05 7b c2 00 00 	lea    0xc27b(%rip),%rax        # 17740 <g_122>
    b4c5:	c7 04 02 05 00 00 00 	movl   $0x5,(%rdx,%rax,1)
    b4cc:	48 c7 05 f1 c1 00 00 	movq   $0x9,0xc1f1(%rip)        # 176c8 <g_118>
    b4d3:	09 00 00 00 
    b4d7:	e9 45 26 00 00       	jmpq   db21 <func_23+0x2961>
    b4dc:	48 c7 85 38 eb ff ff 	movq   $0x0,-0x14c8(%rbp)
    b4e3:	00 00 00 00 
    b4e7:	48 c7 85 40 eb ff ff 	movq   $0x0,-0x14c0(%rbp)
    b4ee:	00 00 00 00 
    b4f2:	48 c7 85 48 eb ff ff 	movq   $0x0,-0x14b8(%rbp)
    b4f9:	00 00 00 00 
    b4fd:	48 8d 05 9c c4 00 00 	lea    0xc49c(%rip),%rax        # 179a0 <g_917+0x10>
    b504:	48 89 85 50 eb ff ff 	mov    %rax,-0x14b0(%rbp)
    b50b:	48 8d 85 80 ee ff ff 	lea    -0x1180(%rbp),%rax
    b512:	48 8d 15 e7 c7 00 00 	lea    0xc7e7(%rip),%rdx        # 17d00 <g_1455+0x350>
    b519:	b9 46 00 00 00       	mov    $0x46,%ecx
    b51e:	48 89 c7             	mov    %rax,%rdi
    b521:	48 89 d6             	mov    %rdx,%rsi
    b524:	f3 48 a5             	rep movsq %ds:(%rsi),%es:(%rdi)
    b527:	48 8d 05 12 bb 00 00 	lea    0xbb12(%rip),%rax        # 17040 <g_20+0x4>
    b52e:	48 89 85 58 eb ff ff 	mov    %rax,-0x14a8(%rbp)
    b535:	48 8d 85 a0 ec ff ff 	lea    -0x1360(%rbp),%rax
    b53c:	48 8d 15 fd c9 00 00 	lea    0xc9fd(%rip),%rdx        # 17f40 <g_1455+0x590>
    b543:	b9 3c 00 00 00       	mov    $0x3c,%ecx
    b548:	48 89 c7             	mov    %rax,%rdi
    b54b:	48 89 d6             	mov    %rdx,%rsi
    b54e:	f3 48 a5             	rep movsq %ds:(%rsi),%es:(%rdi)
    b551:	48 8d 85 a0 ec ff ff 	lea    -0x1360(%rbp),%rax
    b558:	48 83 c0 18          	add    $0x18,%rax
    b55c:	48 89 85 60 eb ff ff 	mov    %rax,-0x14a0(%rbp)
    b563:	c7 85 bc ea ff ff 5f 	movl   $0x353ac95f,-0x1544(%rbp)
    b56a:	c9 3a 35 
    b56d:	c7 85 b4 ea ff ff 00 	movl   $0x0,-0x154c(%rbp)
    b574:	00 00 00 
    b577:	eb 30                	jmp    b5a9 <func_23+0x3e9>
    b579:	48 8b 05 48 c1 00 00 	mov    0xc148(%rip),%rax        # 176c8 <g_118>
    b580:	48 8d 14 85 00 00 00 	lea    0x0(,%rax,4),%rdx
    b587:	00 
    b588:	48 8d 05 b1 c1 00 00 	lea    0xc1b1(%rip),%rax        # 17740 <g_122>
    b58f:	48 01 c2             	add    %rax,%rdx
    b592:	8b 85 b4 ea ff ff    	mov    -0x154c(%rbp),%eax
    b598:	48 98                	cltq   
    b59a:	48 89 94 c5 20 ec ff 	mov    %rdx,-0x13e0(%rbp,%rax,8)
    b5a1:	ff 
    b5a2:	83 85 b4 ea ff ff 01 	addl   $0x1,-0x154c(%rbp)
    b5a9:	83 bd b4 ea ff ff 04 	cmpl   $0x4,-0x154c(%rbp)
    b5b0:	7e c7                	jle    b579 <func_23+0x3b9>
    b5b2:	48 8b 85 d0 ea ff ff 	mov    -0x1530(%rbp),%rax
    b5b9:	48 83 e8 01          	sub    $0x1,%rax
    b5bd:	48 89 85 d0 ea ff ff 	mov    %rax,-0x1530(%rbp)
    b5c4:	48 c7 05 91 c3 00 00 	movq   $0x0,0xc391(%rip)        # 17960 <g_264>
    b5cb:	00 00 00 00 
    b5cf:	e9 5d 12 00 00       	jmpq   c831 <func_23+0x1671>
    b5d4:	48 8d 85 d0 ea ff ff 	lea    -0x1530(%rbp),%rax
    b5db:	48 89 85 b0 f0 ff ff 	mov    %rax,-0xf50(%rbp)
    b5e2:	48 c7 85 b8 f0 ff ff 	movq   $0x0,-0xf48(%rbp)
    b5e9:	00 00 00 00 
    b5ed:	48 8d 85 d0 ea ff ff 	lea    -0x1530(%rbp),%rax
    b5f4:	48 89 85 c0 f0 ff ff 	mov    %rax,-0xf40(%rbp)
    b5fb:	48 8d 85 d0 ea ff ff 	lea    -0x1530(%rbp),%rax
    b602:	48 89 85 c8 f0 ff ff 	mov    %rax,-0xf38(%rbp)
    b609:	48 8d 85 d0 ea ff ff 	lea    -0x1530(%rbp),%rax
    b610:	48 89 85 d0 f0 ff ff 	mov    %rax,-0xf30(%rbp)
    b617:	48 8d 05 a2 c0 00 00 	lea    0xc0a2(%rip),%rax        # 176c0 <g_111>
    b61e:	48 89 85 d8 f0 ff ff 	mov    %rax,-0xf28(%rbp)
    b625:	48 8d 05 94 c0 00 00 	lea    0xc094(%rip),%rax        # 176c0 <g_111>
    b62c:	48 89 85 e0 f0 ff ff 	mov    %rax,-0xf20(%rbp)
    b633:	48 8d 85 d0 ea ff ff 	lea    -0x1530(%rbp),%rax
    b63a:	48 89 85 e8 f0 ff ff 	mov    %rax,-0xf18(%rbp)
    b641:	48 8d 85 d0 ea ff ff 	lea    -0x1530(%rbp),%rax
    b648:	48 89 85 f0 f0 ff ff 	mov    %rax,-0xf10(%rbp)
    b64f:	48 8d 85 d0 ea ff ff 	lea    -0x1530(%rbp),%rax
    b656:	48 89 85 f8 f0 ff ff 	mov    %rax,-0xf08(%rbp)
    b65d:	48 8d 85 d0 ea ff ff 	lea    -0x1530(%rbp),%rax
    b664:	48 89 85 00 f1 ff ff 	mov    %rax,-0xf00(%rbp)
    b66b:	48 8d 05 4e c0 00 00 	lea    0xc04e(%rip),%rax        # 176c0 <g_111>
    b672:	48 89 85 08 f1 ff ff 	mov    %rax,-0xef8(%rbp)
    b679:	48 8d 05 40 c0 00 00 	lea    0xc040(%rip),%rax        # 176c0 <g_111>
    b680:	48 89 85 10 f1 ff ff 	mov    %rax,-0xef0(%rbp)
    b687:	48 8d 05 32 c0 00 00 	lea    0xc032(%rip),%rax        # 176c0 <g_111>
    b68e:	48 89 85 18 f1 ff ff 	mov    %rax,-0xee8(%rbp)
    b695:	48 8d 85 d0 ea ff ff 	lea    -0x1530(%rbp),%rax
    b69c:	48 89 85 20 f1 ff ff 	mov    %rax,-0xee0(%rbp)
    b6a3:	48 8d 85 d0 ea ff ff 	lea    -0x1530(%rbp),%rax
    b6aa:	48 89 85 28 f1 ff ff 	mov    %rax,-0xed8(%rbp)
    b6b1:	48 8d 85 d0 ea ff ff 	lea    -0x1530(%rbp),%rax
    b6b8:	48 89 85 30 f1 ff ff 	mov    %rax,-0xed0(%rbp)
    b6bf:	48 8d 05 fa bf 00 00 	lea    0xbffa(%rip),%rax        # 176c0 <g_111>
    b6c6:	48 89 85 38 f1 ff ff 	mov    %rax,-0xec8(%rbp)
    b6cd:	48 8d 85 d0 ea ff ff 	lea    -0x1530(%rbp),%rax
    b6d4:	48 89 85 40 f1 ff ff 	mov    %rax,-0xec0(%rbp)
    b6db:	48 8d 85 d0 ea ff ff 	lea    -0x1530(%rbp),%rax
    b6e2:	48 89 85 48 f1 ff ff 	mov    %rax,-0xeb8(%rbp)
    b6e9:	48 8d 85 d0 ea ff ff 	lea    -0x1530(%rbp),%rax
    b6f0:	48 89 85 50 f1 ff ff 	mov    %rax,-0xeb0(%rbp)
    b6f7:	48 c7 85 58 f1 ff ff 	movq   $0x0,-0xea8(%rbp)
    b6fe:	00 00 00 00 
    b702:	48 8d 85 d0 ea ff ff 	lea    -0x1530(%rbp),%rax
    b709:	48 89 85 60 f1 ff ff 	mov    %rax,-0xea0(%rbp)
    b710:	48 8d 05 a9 bf 00 00 	lea    0xbfa9(%rip),%rax        # 176c0 <g_111>
    b717:	48 89 85 68 f1 ff ff 	mov    %rax,-0xe98(%rbp)
    b71e:	48 8d 85 d0 ea ff ff 	lea    -0x1530(%rbp),%rax
    b725:	48 89 85 70 f1 ff ff 	mov    %rax,-0xe90(%rbp)
    b72c:	48 8d 05 8d bf 00 00 	lea    0xbf8d(%rip),%rax        # 176c0 <g_111>
    b733:	48 89 85 78 f1 ff ff 	mov    %rax,-0xe88(%rbp)
    b73a:	48 c7 85 80 f1 ff ff 	movq   $0x0,-0xe80(%rbp)
    b741:	00 00 00 00 
    b745:	48 8d 85 d0 ea ff ff 	lea    -0x1530(%rbp),%rax
    b74c:	48 89 85 88 f1 ff ff 	mov    %rax,-0xe78(%rbp)
    b753:	48 c7 85 90 f1 ff ff 	movq   $0x0,-0xe70(%rbp)
    b75a:	00 00 00 00 
    b75e:	48 8d 05 5b bf 00 00 	lea    0xbf5b(%rip),%rax        # 176c0 <g_111>
    b765:	48 89 85 98 f1 ff ff 	mov    %rax,-0xe68(%rbp)
    b76c:	48 8d 05 4d bf 00 00 	lea    0xbf4d(%rip),%rax        # 176c0 <g_111>
    b773:	48 89 85 a0 f1 ff ff 	mov    %rax,-0xe60(%rbp)
    b77a:	48 8d 85 d0 ea ff ff 	lea    -0x1530(%rbp),%rax
    b781:	48 89 85 a8 f1 ff ff 	mov    %rax,-0xe58(%rbp)
    b788:	48 8d 85 d0 ea ff ff 	lea    -0x1530(%rbp),%rax
    b78f:	48 89 85 b0 f1 ff ff 	mov    %rax,-0xe50(%rbp)
    b796:	48 8d 85 d0 ea ff ff 	lea    -0x1530(%rbp),%rax
    b79d:	48 89 85 b8 f1 ff ff 	mov    %rax,-0xe48(%rbp)
    b7a4:	48 8d 05 15 bf 00 00 	lea    0xbf15(%rip),%rax        # 176c0 <g_111>
    b7ab:	48 89 85 c0 f1 ff ff 	mov    %rax,-0xe40(%rbp)
    b7b2:	48 8d 85 d0 ea ff ff 	lea    -0x1530(%rbp),%rax
    b7b9:	48 89 85 c8 f1 ff ff 	mov    %rax,-0xe38(%rbp)
    b7c0:	48 8d 05 f9 be 00 00 	lea    0xbef9(%rip),%rax        # 176c0 <g_111>
    b7c7:	48 89 85 d0 f1 ff ff 	mov    %rax,-0xe30(%rbp)
    b7ce:	48 8d 85 d0 ea ff ff 	lea    -0x1530(%rbp),%rax
    b7d5:	48 89 85 d8 f1 ff ff 	mov    %rax,-0xe28(%rbp)
    b7dc:	48 8d 85 d0 ea ff ff 	lea    -0x1530(%rbp),%rax
    b7e3:	48 89 85 e0 f1 ff ff 	mov    %rax,-0xe20(%rbp)
    b7ea:	48 8d 85 d0 ea ff ff 	lea    -0x1530(%rbp),%rax
    b7f1:	48 89 85 e8 f1 ff ff 	mov    %rax,-0xe18(%rbp)
    b7f8:	48 8d 85 d0 ea ff ff 	lea    -0x1530(%rbp),%rax
    b7ff:	48 89 85 f0 f1 ff ff 	mov    %rax,-0xe10(%rbp)
    b806:	48 c7 85 f8 f1 ff ff 	movq   $0x0,-0xe08(%rbp)
    b80d:	00 00 00 00 
    b811:	48 8d 85 d0 ea ff ff 	lea    -0x1530(%rbp),%rax
    b818:	48 89 85 00 f2 ff ff 	mov    %rax,-0xe00(%rbp)
    b81f:	48 8d 85 d0 ea ff ff 	lea    -0x1530(%rbp),%rax
    b826:	48 89 85 08 f2 ff ff 	mov    %rax,-0xdf8(%rbp)
    b82d:	48 8d 05 8c be 00 00 	lea    0xbe8c(%rip),%rax        # 176c0 <g_111>
    b834:	48 89 85 10 f2 ff ff 	mov    %rax,-0xdf0(%rbp)
    b83b:	48 8d 05 7e be 00 00 	lea    0xbe7e(%rip),%rax        # 176c0 <g_111>
    b842:	48 89 85 18 f2 ff ff 	mov    %rax,-0xde8(%rbp)
    b849:	48 8d 05 70 be 00 00 	lea    0xbe70(%rip),%rax        # 176c0 <g_111>
    b850:	48 89 85 20 f2 ff ff 	mov    %rax,-0xde0(%rbp)
    b857:	48 8d 05 62 be 00 00 	lea    0xbe62(%rip),%rax        # 176c0 <g_111>
    b85e:	48 89 85 28 f2 ff ff 	mov    %rax,-0xdd8(%rbp)
    b865:	48 8d 85 d0 ea ff ff 	lea    -0x1530(%rbp),%rax
    b86c:	48 89 85 30 f2 ff ff 	mov    %rax,-0xdd0(%rbp)
    b873:	48 8d 85 d0 ea ff ff 	lea    -0x1530(%rbp),%rax
    b87a:	48 89 85 38 f2 ff ff 	mov    %rax,-0xdc8(%rbp)
    b881:	48 8d 85 d0 ea ff ff 	lea    -0x1530(%rbp),%rax
    b888:	48 89 85 40 f2 ff ff 	mov    %rax,-0xdc0(%rbp)
    b88f:	48 8d 85 d0 ea ff ff 	lea    -0x1530(%rbp),%rax
    b896:	48 89 85 48 f2 ff ff 	mov    %rax,-0xdb8(%rbp)
    b89d:	48 c7 85 50 f2 ff ff 	movq   $0x0,-0xdb0(%rbp)
    b8a4:	00 00 00 00 
    b8a8:	48 8d 85 d0 ea ff ff 	lea    -0x1530(%rbp),%rax
    b8af:	48 89 85 58 f2 ff ff 	mov    %rax,-0xda8(%rbp)
    b8b6:	48 8d 85 d0 ea ff ff 	lea    -0x1530(%rbp),%rax
    b8bd:	48 89 85 60 f2 ff ff 	mov    %rax,-0xda0(%rbp)
    b8c4:	48 8d 05 f5 bd 00 00 	lea    0xbdf5(%rip),%rax        # 176c0 <g_111>
    b8cb:	48 89 85 68 f2 ff ff 	mov    %rax,-0xd98(%rbp)
    b8d2:	48 8d 05 e7 bd 00 00 	lea    0xbde7(%rip),%rax        # 176c0 <g_111>
    b8d9:	48 89 85 70 f2 ff ff 	mov    %rax,-0xd90(%rbp)
    b8e0:	48 8d 05 d9 bd 00 00 	lea    0xbdd9(%rip),%rax        # 176c0 <g_111>
    b8e7:	48 89 85 78 f2 ff ff 	mov    %rax,-0xd88(%rbp)
    b8ee:	48 8d 85 d0 ea ff ff 	lea    -0x1530(%rbp),%rax
    b8f5:	48 89 85 80 f2 ff ff 	mov    %rax,-0xd80(%rbp)
    b8fc:	48 8d 85 d0 ea ff ff 	lea    -0x1530(%rbp),%rax
    b903:	48 89 85 88 f2 ff ff 	mov    %rax,-0xd78(%rbp)
    b90a:	48 8d 05 af bd 00 00 	lea    0xbdaf(%rip),%rax        # 176c0 <g_111>
    b911:	48 89 85 90 f2 ff ff 	mov    %rax,-0xd70(%rbp)
    b918:	48 8d 85 d0 ea ff ff 	lea    -0x1530(%rbp),%rax
    b91f:	48 89 85 98 f2 ff ff 	mov    %rax,-0xd68(%rbp)
    b926:	48 8d 05 93 bd 00 00 	lea    0xbd93(%rip),%rax        # 176c0 <g_111>
    b92d:	48 89 85 a0 f2 ff ff 	mov    %rax,-0xd60(%rbp)
    b934:	48 8d 85 d0 ea ff ff 	lea    -0x1530(%rbp),%rax
    b93b:	48 89 85 a8 f2 ff ff 	mov    %rax,-0xd58(%rbp)
    b942:	48 8d 85 d0 ea ff ff 	lea    -0x1530(%rbp),%rax
    b949:	48 89 85 b0 f2 ff ff 	mov    %rax,-0xd50(%rbp)
    b950:	48 8d 85 d0 ea ff ff 	lea    -0x1530(%rbp),%rax
    b957:	48 89 85 b8 f2 ff ff 	mov    %rax,-0xd48(%rbp)
    b95e:	48 8d 85 d0 ea ff ff 	lea    -0x1530(%rbp),%rax
    b965:	48 89 85 c0 f2 ff ff 	mov    %rax,-0xd40(%rbp)
    b96c:	48 8d 05 4d bd 00 00 	lea    0xbd4d(%rip),%rax        # 176c0 <g_111>
    b973:	48 89 85 c8 f2 ff ff 	mov    %rax,-0xd38(%rbp)
    b97a:	48 8d 85 d0 ea ff ff 	lea    -0x1530(%rbp),%rax
    b981:	48 89 85 d0 f2 ff ff 	mov    %rax,-0xd30(%rbp)
    b988:	48 8d 85 d0 ea ff ff 	lea    -0x1530(%rbp),%rax
    b98f:	48 89 85 d8 f2 ff ff 	mov    %rax,-0xd28(%rbp)
    b996:	48 8d 85 d0 ea ff ff 	lea    -0x1530(%rbp),%rax
    b99d:	48 89 85 e0 f2 ff ff 	mov    %rax,-0xd20(%rbp)
    b9a4:	48 8d 05 15 bd 00 00 	lea    0xbd15(%rip),%rax        # 176c0 <g_111>
    b9ab:	48 89 85 e8 f2 ff ff 	mov    %rax,-0xd18(%rbp)
    b9b2:	48 8d 85 d0 ea ff ff 	lea    -0x1530(%rbp),%rax
    b9b9:	48 89 85 f0 f2 ff ff 	mov    %rax,-0xd10(%rbp)
    b9c0:	48 8d 85 d0 ea ff ff 	lea    -0x1530(%rbp),%rax
    b9c7:	48 89 85 f8 f2 ff ff 	mov    %rax,-0xd08(%rbp)
    b9ce:	48 8d 05 eb bc 00 00 	lea    0xbceb(%rip),%rax        # 176c0 <g_111>
    b9d5:	48 89 85 00 f3 ff ff 	mov    %rax,-0xd00(%rbp)
    b9dc:	48 8d 05 dd bc 00 00 	lea    0xbcdd(%rip),%rax        # 176c0 <g_111>
    b9e3:	48 89 85 08 f3 ff ff 	mov    %rax,-0xcf8(%rbp)
    b9ea:	48 8d 85 d0 ea ff ff 	lea    -0x1530(%rbp),%rax
    b9f1:	48 89 85 10 f3 ff ff 	mov    %rax,-0xcf0(%rbp)
    b9f8:	48 c7 85 18 f3 ff ff 	movq   $0x0,-0xce8(%rbp)
    b9ff:	00 00 00 00 
    ba03:	48 8d 85 d0 ea ff ff 	lea    -0x1530(%rbp),%rax
    ba0a:	48 89 85 20 f3 ff ff 	mov    %rax,-0xce0(%rbp)
    ba11:	48 c7 85 28 f3 ff ff 	movq   $0x0,-0xcd8(%rbp)
    ba18:	00 00 00 00 
    ba1c:	48 8d 85 d0 ea ff ff 	lea    -0x1530(%rbp),%rax
    ba23:	48 89 85 30 f3 ff ff 	mov    %rax,-0xcd0(%rbp)
    ba2a:	48 8d 05 8f bc 00 00 	lea    0xbc8f(%rip),%rax        # 176c0 <g_111>
    ba31:	48 89 85 38 f3 ff ff 	mov    %rax,-0xcc8(%rbp)
    ba38:	48 8d 85 d0 ea ff ff 	lea    -0x1530(%rbp),%rax
    ba3f:	48 89 85 40 f3 ff ff 	mov    %rax,-0xcc0(%rbp)
    ba46:	48 8d 85 d0 ea ff ff 	lea    -0x1530(%rbp),%rax
    ba4d:	48 89 85 48 f3 ff ff 	mov    %rax,-0xcb8(%rbp)
    ba54:	48 8d 85 d0 ea ff ff 	lea    -0x1530(%rbp),%rax
    ba5b:	48 89 85 50 f3 ff ff 	mov    %rax,-0xcb0(%rbp)
    ba62:	48 8d 05 57 bc 00 00 	lea    0xbc57(%rip),%rax        # 176c0 <g_111>
    ba69:	48 89 85 58 f3 ff ff 	mov    %rax,-0xca8(%rbp)
    ba70:	48 8d 85 d0 ea ff ff 	lea    -0x1530(%rbp),%rax
    ba77:	48 89 85 60 f3 ff ff 	mov    %rax,-0xca0(%rbp)
    ba7e:	48 8d 85 d0 ea ff ff 	lea    -0x1530(%rbp),%rax
    ba85:	48 89 85 68 f3 ff ff 	mov    %rax,-0xc98(%rbp)
    ba8c:	48 8d 85 d0 ea ff ff 	lea    -0x1530(%rbp),%rax
    ba93:	48 89 85 70 f3 ff ff 	mov    %rax,-0xc90(%rbp)
    ba9a:	48 8d 05 1f bc 00 00 	lea    0xbc1f(%rip),%rax        # 176c0 <g_111>
    baa1:	48 89 85 78 f3 ff ff 	mov    %rax,-0xc88(%rbp)
    baa8:	48 8d 85 d0 ea ff ff 	lea    -0x1530(%rbp),%rax
    baaf:	48 89 85 80 f3 ff ff 	mov    %rax,-0xc80(%rbp)
    bab6:	48 8d 85 d0 ea ff ff 	lea    -0x1530(%rbp),%rax
    babd:	48 89 85 88 f3 ff ff 	mov    %rax,-0xc78(%rbp)
    bac4:	48 c7 85 90 f3 ff ff 	movq   $0x0,-0xc70(%rbp)
    bacb:	00 00 00 00 
    bacf:	48 8d 85 d0 ea ff ff 	lea    -0x1530(%rbp),%rax
    bad6:	48 89 85 98 f3 ff ff 	mov    %rax,-0xc68(%rbp)
    badd:	48 8d 05 dc bb 00 00 	lea    0xbbdc(%rip),%rax        # 176c0 <g_111>
    bae4:	48 89 85 a0 f3 ff ff 	mov    %rax,-0xc60(%rbp)
    baeb:	48 8d 05 ce bb 00 00 	lea    0xbbce(%rip),%rax        # 176c0 <g_111>
    baf2:	48 89 85 a8 f3 ff ff 	mov    %rax,-0xc58(%rbp)
    baf9:	48 8d 05 c0 bb 00 00 	lea    0xbbc0(%rip),%rax        # 176c0 <g_111>
    bb00:	48 89 85 b0 f3 ff ff 	mov    %rax,-0xc50(%rbp)
    bb07:	48 8d 85 d0 ea ff ff 	lea    -0x1530(%rbp),%rax
    bb0e:	48 89 85 b8 f3 ff ff 	mov    %rax,-0xc48(%rbp)
    bb15:	48 8d 85 d0 ea ff ff 	lea    -0x1530(%rbp),%rax
    bb1c:	48 89 85 c0 f3 ff ff 	mov    %rax,-0xc40(%rbp)
    bb23:	48 8d 05 96 bb 00 00 	lea    0xbb96(%rip),%rax        # 176c0 <g_111>
    bb2a:	48 89 85 c8 f3 ff ff 	mov    %rax,-0xc38(%rbp)
    bb31:	48 8d 05 88 bb 00 00 	lea    0xbb88(%rip),%rax        # 176c0 <g_111>
    bb38:	48 89 85 d0 f3 ff ff 	mov    %rax,-0xc30(%rbp)
    bb3f:	48 8d 05 7a bb 00 00 	lea    0xbb7a(%rip),%rax        # 176c0 <g_111>
    bb46:	48 89 85 d8 f3 ff ff 	mov    %rax,-0xc28(%rbp)
    bb4d:	48 8d 85 d0 ea ff ff 	lea    -0x1530(%rbp),%rax
    bb54:	48 89 85 e0 f3 ff ff 	mov    %rax,-0xc20(%rbp)
    bb5b:	48 8d 85 d0 ea ff ff 	lea    -0x1530(%rbp),%rax
    bb62:	48 89 85 e8 f3 ff ff 	mov    %rax,-0xc18(%rbp)
    bb69:	48 8d 85 d0 ea ff ff 	lea    -0x1530(%rbp),%rax
    bb70:	48 89 85 f0 f3 ff ff 	mov    %rax,-0xc10(%rbp)
    bb77:	48 c7 85 f8 f3 ff ff 	movq   $0x0,-0xc08(%rbp)
    bb7e:	00 00 00 00 
    bb82:	48 8d 85 d0 ea ff ff 	lea    -0x1530(%rbp),%rax
    bb89:	48 89 85 00 f4 ff ff 	mov    %rax,-0xc00(%rbp)
    bb90:	48 8d 85 d0 ea ff ff 	lea    -0x1530(%rbp),%rax
    bb97:	48 89 85 08 f4 ff ff 	mov    %rax,-0xbf8(%rbp)
    bb9e:	48 8d 85 d0 ea ff ff 	lea    -0x1530(%rbp),%rax
    bba5:	48 89 85 10 f4 ff ff 	mov    %rax,-0xbf0(%rbp)
    bbac:	48 8d 85 d0 ea ff ff 	lea    -0x1530(%rbp),%rax
    bbb3:	48 89 85 18 f4 ff ff 	mov    %rax,-0xbe8(%rbp)
    bbba:	48 8d 85 d0 ea ff ff 	lea    -0x1530(%rbp),%rax
    bbc1:	48 89 85 20 f4 ff ff 	mov    %rax,-0xbe0(%rbp)
    bbc8:	48 8d 85 d0 ea ff ff 	lea    -0x1530(%rbp),%rax
    bbcf:	48 89 85 28 f4 ff ff 	mov    %rax,-0xbd8(%rbp)
    bbd6:	48 8d 85 d0 ea ff ff 	lea    -0x1530(%rbp),%rax
    bbdd:	48 89 85 30 f4 ff ff 	mov    %rax,-0xbd0(%rbp)
    bbe4:	48 8d 05 d5 ba 00 00 	lea    0xbad5(%rip),%rax        # 176c0 <g_111>
    bbeb:	48 89 85 38 f4 ff ff 	mov    %rax,-0xbc8(%rbp)
    bbf2:	48 8d 85 d0 ea ff ff 	lea    -0x1530(%rbp),%rax
    bbf9:	48 89 85 40 f4 ff ff 	mov    %rax,-0xbc0(%rbp)
    bc00:	48 8d 05 b9 ba 00 00 	lea    0xbab9(%rip),%rax        # 176c0 <g_111>
    bc07:	48 89 85 48 f4 ff ff 	mov    %rax,-0xbb8(%rbp)
    bc0e:	48 8d 85 d0 ea ff ff 	lea    -0x1530(%rbp),%rax
    bc15:	48 89 85 50 f4 ff ff 	mov    %rax,-0xbb0(%rbp)
    bc1c:	48 8d 05 9d ba 00 00 	lea    0xba9d(%rip),%rax        # 176c0 <g_111>
    bc23:	48 89 85 58 f4 ff ff 	mov    %rax,-0xba8(%rbp)
    bc2a:	48 8d 05 8f ba 00 00 	lea    0xba8f(%rip),%rax        # 176c0 <g_111>
    bc31:	48 89 85 60 f4 ff ff 	mov    %rax,-0xba0(%rbp)
    bc38:	48 8d 05 81 ba 00 00 	lea    0xba81(%rip),%rax        # 176c0 <g_111>
    bc3f:	48 89 85 68 f4 ff ff 	mov    %rax,-0xb98(%rbp)
    bc46:	48 8d 85 d0 ea ff ff 	lea    -0x1530(%rbp),%rax
    bc4d:	48 89 85 70 f4 ff ff 	mov    %rax,-0xb90(%rbp)
    bc54:	48 8d 05 65 ba 00 00 	lea    0xba65(%rip),%rax        # 176c0 <g_111>
    bc5b:	48 89 85 78 f4 ff ff 	mov    %rax,-0xb88(%rbp)
    bc62:	48 8d 85 d0 ea ff ff 	lea    -0x1530(%rbp),%rax
    bc69:	48 89 85 80 f4 ff ff 	mov    %rax,-0xb80(%rbp)
    bc70:	48 8d 85 d0 ea ff ff 	lea    -0x1530(%rbp),%rax
    bc77:	48 89 85 88 f4 ff ff 	mov    %rax,-0xb78(%rbp)
    bc7e:	48 8d 05 3b ba 00 00 	lea    0xba3b(%rip),%rax        # 176c0 <g_111>
    bc85:	48 89 85 90 f4 ff ff 	mov    %rax,-0xb70(%rbp)
    bc8c:	48 8d 85 d0 ea ff ff 	lea    -0x1530(%rbp),%rax
    bc93:	48 89 85 98 f4 ff ff 	mov    %rax,-0xb68(%rbp)
    bc9a:	48 8d 05 1f ba 00 00 	lea    0xba1f(%rip),%rax        # 176c0 <g_111>
    bca1:	48 89 85 a0 f4 ff ff 	mov    %rax,-0xb60(%rbp)
    bca8:	48 8d 05 11 ba 00 00 	lea    0xba11(%rip),%rax        # 176c0 <g_111>
    bcaf:	48 89 85 a8 f4 ff ff 	mov    %rax,-0xb58(%rbp)
    bcb6:	48 8d 85 d0 ea ff ff 	lea    -0x1530(%rbp),%rax
    bcbd:	48 89 85 b0 f4 ff ff 	mov    %rax,-0xb50(%rbp)
    bcc4:	48 8d 85 d0 ea ff ff 	lea    -0x1530(%rbp),%rax
    bccb:	48 89 85 b8 f4 ff ff 	mov    %rax,-0xb48(%rbp)
    bcd2:	48 8d 05 e7 b9 00 00 	lea    0xb9e7(%rip),%rax        # 176c0 <g_111>
    bcd9:	48 89 85 c0 f4 ff ff 	mov    %rax,-0xb40(%rbp)
    bce0:	48 8d 05 d9 b9 00 00 	lea    0xb9d9(%rip),%rax        # 176c0 <g_111>
    bce7:	48 89 85 c8 f4 ff ff 	mov    %rax,-0xb38(%rbp)
    bcee:	48 8d 85 d0 ea ff ff 	lea    -0x1530(%rbp),%rax
    bcf5:	48 89 85 d0 f4 ff ff 	mov    %rax,-0xb30(%rbp)
    bcfc:	48 8d 85 d0 ea ff ff 	lea    -0x1530(%rbp),%rax
    bd03:	48 89 85 d8 f4 ff ff 	mov    %rax,-0xb28(%rbp)
    bd0a:	48 8d 85 d0 ea ff ff 	lea    -0x1530(%rbp),%rax
    bd11:	48 89 85 e0 f4 ff ff 	mov    %rax,-0xb20(%rbp)
    bd18:	48 c7 85 e8 f4 ff ff 	movq   $0x0,-0xb18(%rbp)
    bd1f:	00 00 00 00 
    bd23:	48 8d 05 96 b9 00 00 	lea    0xb996(%rip),%rax        # 176c0 <g_111>
    bd2a:	48 89 85 f0 f4 ff ff 	mov    %rax,-0xb10(%rbp)
    bd31:	48 8d 05 88 b9 00 00 	lea    0xb988(%rip),%rax        # 176c0 <g_111>
    bd38:	48 89 85 f8 f4 ff ff 	mov    %rax,-0xb08(%rbp)
    bd3f:	48 8d 85 d0 ea ff ff 	lea    -0x1530(%rbp),%rax
    bd46:	48 89 85 00 f5 ff ff 	mov    %rax,-0xb00(%rbp)
    bd4d:	48 c7 85 08 f5 ff ff 	movq   $0x0,-0xaf8(%rbp)
    bd54:	00 00 00 00 
    bd58:	48 c7 85 10 f5 ff ff 	movq   $0x0,-0xaf0(%rbp)
    bd5f:	00 00 00 00 
    bd63:	48 8d 85 d0 ea ff ff 	lea    -0x1530(%rbp),%rax
    bd6a:	48 89 85 18 f5 ff ff 	mov    %rax,-0xae8(%rbp)
    bd71:	48 8d 85 d0 ea ff ff 	lea    -0x1530(%rbp),%rax
    bd78:	48 89 85 20 f5 ff ff 	mov    %rax,-0xae0(%rbp)
    bd7f:	48 8d 85 d0 ea ff ff 	lea    -0x1530(%rbp),%rax
    bd86:	48 89 85 28 f5 ff ff 	mov    %rax,-0xad8(%rbp)
    bd8d:	48 8d 05 2c b9 00 00 	lea    0xb92c(%rip),%rax        # 176c0 <g_111>
    bd94:	48 89 85 30 f5 ff ff 	mov    %rax,-0xad0(%rbp)
    bd9b:	48 8d 05 1e b9 00 00 	lea    0xb91e(%rip),%rax        # 176c0 <g_111>
    bda2:	48 89 85 38 f5 ff ff 	mov    %rax,-0xac8(%rbp)
    bda9:	48 8d 05 10 b9 00 00 	lea    0xb910(%rip),%rax        # 176c0 <g_111>
    bdb0:	48 89 85 40 f5 ff ff 	mov    %rax,-0xac0(%rbp)
    bdb7:	48 8d 85 d0 ea ff ff 	lea    -0x1530(%rbp),%rax
    bdbe:	48 89 85 48 f5 ff ff 	mov    %rax,-0xab8(%rbp)
    bdc5:	48 c7 85 50 f5 ff ff 	movq   $0x0,-0xab0(%rbp)
    bdcc:	00 00 00 00 
    bdd0:	48 8d 85 d0 ea ff ff 	lea    -0x1530(%rbp),%rax
    bdd7:	48 89 85 58 f5 ff ff 	mov    %rax,-0xaa8(%rbp)
    bdde:	48 8d 85 d0 ea ff ff 	lea    -0x1530(%rbp),%rax
    bde5:	48 89 85 60 f5 ff ff 	mov    %rax,-0xaa0(%rbp)
    bdec:	48 8d 05 cd b8 00 00 	lea    0xb8cd(%rip),%rax        # 176c0 <g_111>
    bdf3:	48 89 85 68 f5 ff ff 	mov    %rax,-0xa98(%rbp)
    bdfa:	48 8d 85 d0 ea ff ff 	lea    -0x1530(%rbp),%rax
    be01:	48 89 85 70 f5 ff ff 	mov    %rax,-0xa90(%rbp)
    be08:	48 8d 05 b1 b8 00 00 	lea    0xb8b1(%rip),%rax        # 176c0 <g_111>
    be0f:	48 89 85 78 f5 ff ff 	mov    %rax,-0xa88(%rbp)
    be16:	48 8d 05 a3 b8 00 00 	lea    0xb8a3(%rip),%rax        # 176c0 <g_111>
    be1d:	48 89 85 80 f5 ff ff 	mov    %rax,-0xa80(%rbp)
    be24:	48 c7 85 88 f5 ff ff 	movq   $0x0,-0xa78(%rbp)
    be2b:	00 00 00 00 
    be2f:	48 8d 85 d0 ea ff ff 	lea    -0x1530(%rbp),%rax
    be36:	48 89 85 90 f5 ff ff 	mov    %rax,-0xa70(%rbp)
    be3d:	48 8d 05 7c b8 00 00 	lea    0xb87c(%rip),%rax        # 176c0 <g_111>
    be44:	48 89 85 98 f5 ff ff 	mov    %rax,-0xa68(%rbp)
    be4b:	48 8d 05 6e b8 00 00 	lea    0xb86e(%rip),%rax        # 176c0 <g_111>
    be52:	48 89 85 a0 f5 ff ff 	mov    %rax,-0xa60(%rbp)
    be59:	48 8d 85 d0 ea ff ff 	lea    -0x1530(%rbp),%rax
    be60:	48 89 85 a8 f5 ff ff 	mov    %rax,-0xa58(%rbp)
    be67:	48 c7 85 b0 f5 ff ff 	movq   $0x0,-0xa50(%rbp)
    be6e:	00 00 00 00 
    be72:	48 8d 05 47 b8 00 00 	lea    0xb847(%rip),%rax        # 176c0 <g_111>
    be79:	48 89 85 b8 f5 ff ff 	mov    %rax,-0xa48(%rbp)
    be80:	48 8d 85 d0 ea ff ff 	lea    -0x1530(%rbp),%rax
    be87:	48 89 85 c0 f5 ff ff 	mov    %rax,-0xa40(%rbp)
    be8e:	48 8d 05 2b b8 00 00 	lea    0xb82b(%rip),%rax        # 176c0 <g_111>
    be95:	48 89 85 c8 f5 ff ff 	mov    %rax,-0xa38(%rbp)
    be9c:	48 8d 85 d0 ea ff ff 	lea    -0x1530(%rbp),%rax
    bea3:	48 89 85 d0 f5 ff ff 	mov    %rax,-0xa30(%rbp)
    beaa:	48 c7 85 d8 f5 ff ff 	movq   $0x0,-0xa28(%rbp)
    beb1:	00 00 00 00 
    beb5:	48 8d 85 d0 ea ff ff 	lea    -0x1530(%rbp),%rax
    bebc:	48 89 85 e0 f5 ff ff 	mov    %rax,-0xa20(%rbp)
    bec3:	48 8d 85 d0 ea ff ff 	lea    -0x1530(%rbp),%rax
    beca:	48 89 85 e8 f5 ff ff 	mov    %rax,-0xa18(%rbp)
    bed1:	48 8d 85 d0 ea ff ff 	lea    -0x1530(%rbp),%rax
    bed8:	48 89 85 f0 f5 ff ff 	mov    %rax,-0xa10(%rbp)
    bedf:	48 c7 85 f8 f5 ff ff 	movq   $0x0,-0xa08(%rbp)
    bee6:	00 00 00 00 
    beea:	48 8d 05 cf b7 00 00 	lea    0xb7cf(%rip),%rax        # 176c0 <g_111>
    bef1:	48 89 85 00 f6 ff ff 	mov    %rax,-0xa00(%rbp)
    bef8:	48 8d 85 d0 ea ff ff 	lea    -0x1530(%rbp),%rax
    beff:	48 89 85 08 f6 ff ff 	mov    %rax,-0x9f8(%rbp)
    bf06:	48 8d 05 b3 b7 00 00 	lea    0xb7b3(%rip),%rax        # 176c0 <g_111>
    bf0d:	48 89 85 10 f6 ff ff 	mov    %rax,-0x9f0(%rbp)
    bf14:	48 8d 85 d0 ea ff ff 	lea    -0x1530(%rbp),%rax
    bf1b:	48 89 85 18 f6 ff ff 	mov    %rax,-0x9e8(%rbp)
    bf22:	48 8d 05 97 b7 00 00 	lea    0xb797(%rip),%rax        # 176c0 <g_111>
    bf29:	48 89 85 20 f6 ff ff 	mov    %rax,-0x9e0(%rbp)
    bf30:	48 8d 85 d0 ea ff ff 	lea    -0x1530(%rbp),%rax
    bf37:	48 89 85 28 f6 ff ff 	mov    %rax,-0x9d8(%rbp)
    bf3e:	48 8d 05 7b b7 00 00 	lea    0xb77b(%rip),%rax        # 176c0 <g_111>
    bf45:	48 89 85 30 f6 ff ff 	mov    %rax,-0x9d0(%rbp)
    bf4c:	48 8d 85 d0 ea ff ff 	lea    -0x1530(%rbp),%rax
    bf53:	48 89 85 38 f6 ff ff 	mov    %rax,-0x9c8(%rbp)
    bf5a:	48 8d 05 5f b7 00 00 	lea    0xb75f(%rip),%rax        # 176c0 <g_111>
    bf61:	48 89 85 40 f6 ff ff 	mov    %rax,-0x9c0(%rbp)
    bf68:	48 8d 85 d0 ea ff ff 	lea    -0x1530(%rbp),%rax
    bf6f:	48 89 85 48 f6 ff ff 	mov    %rax,-0x9b8(%rbp)
    bf76:	48 8d 85 d0 ea ff ff 	lea    -0x1530(%rbp),%rax
    bf7d:	48 89 85 50 f6 ff ff 	mov    %rax,-0x9b0(%rbp)
    bf84:	48 8d 05 35 b7 00 00 	lea    0xb735(%rip),%rax        # 176c0 <g_111>
    bf8b:	48 89 85 58 f6 ff ff 	mov    %rax,-0x9a8(%rbp)
    bf92:	48 8d 85 d0 ea ff ff 	lea    -0x1530(%rbp),%rax
    bf99:	48 89 85 60 f6 ff ff 	mov    %rax,-0x9a0(%rbp)
    bfa0:	48 8d 85 d0 ea ff ff 	lea    -0x1530(%rbp),%rax
    bfa7:	48 89 85 68 f6 ff ff 	mov    %rax,-0x998(%rbp)
    bfae:	48 8d 05 0b b7 00 00 	lea    0xb70b(%rip),%rax        # 176c0 <g_111>
    bfb5:	48 89 85 70 f6 ff ff 	mov    %rax,-0x990(%rbp)
    bfbc:	48 8d 05 fd b6 00 00 	lea    0xb6fd(%rip),%rax        # 176c0 <g_111>
    bfc3:	48 89 85 78 f6 ff ff 	mov    %rax,-0x988(%rbp)
    bfca:	48 8d 85 d0 ea ff ff 	lea    -0x1530(%rbp),%rax
    bfd1:	48 89 85 80 f6 ff ff 	mov    %rax,-0x980(%rbp)
    bfd8:	48 8d 05 e1 b6 00 00 	lea    0xb6e1(%rip),%rax        # 176c0 <g_111>
    bfdf:	48 89 85 88 f6 ff ff 	mov    %rax,-0x978(%rbp)
    bfe6:	48 8d 05 d3 b6 00 00 	lea    0xb6d3(%rip),%rax        # 176c0 <g_111>
    bfed:	48 89 85 90 f6 ff ff 	mov    %rax,-0x970(%rbp)
    bff4:	48 8d 85 d0 ea ff ff 	lea    -0x1530(%rbp),%rax
    bffb:	48 89 85 98 f6 ff ff 	mov    %rax,-0x968(%rbp)
    c002:	48 8d 05 b7 b6 00 00 	lea    0xb6b7(%rip),%rax        # 176c0 <g_111>
    c009:	48 89 85 a0 f6 ff ff 	mov    %rax,-0x960(%rbp)
    c010:	48 c7 85 a8 f6 ff ff 	movq   $0x0,-0x958(%rbp)
    c017:	00 00 00 00 
    c01b:	48 c7 85 b0 f6 ff ff 	movq   $0x0,-0x950(%rbp)
    c022:	00 00 00 00 
    c026:	48 8d 05 93 b6 00 00 	lea    0xb693(%rip),%rax        # 176c0 <g_111>
    c02d:	48 89 85 b8 f6 ff ff 	mov    %rax,-0x948(%rbp)
    c034:	48 8d 85 d0 ea ff ff 	lea    -0x1530(%rbp),%rax
    c03b:	48 89 85 c0 f6 ff ff 	mov    %rax,-0x940(%rbp)
    c042:	48 8d 85 d0 ea ff ff 	lea    -0x1530(%rbp),%rax
    c049:	48 89 85 c8 f6 ff ff 	mov    %rax,-0x938(%rbp)
    c050:	48 8d 85 d0 ea ff ff 	lea    -0x1530(%rbp),%rax
    c057:	48 89 85 d0 f6 ff ff 	mov    %rax,-0x930(%rbp)
    c05e:	48 8d 85 d0 ea ff ff 	lea    -0x1530(%rbp),%rax
    c065:	48 89 85 d8 f6 ff ff 	mov    %rax,-0x928(%rbp)
    c06c:	48 8d 85 d0 ea ff ff 	lea    -0x1530(%rbp),%rax
    c073:	48 89 85 e0 f6 ff ff 	mov    %rax,-0x920(%rbp)
    c07a:	48 8d 85 d0 ea ff ff 	lea    -0x1530(%rbp),%rax
    c081:	48 89 85 e8 f6 ff ff 	mov    %rax,-0x918(%rbp)
    c088:	48 8d 05 31 b6 00 00 	lea    0xb631(%rip),%rax        # 176c0 <g_111>
    c08f:	48 89 85 f0 f6 ff ff 	mov    %rax,-0x910(%rbp)
    c096:	48 8d 85 d0 ea ff ff 	lea    -0x1530(%rbp),%rax
    c09d:	48 89 85 f8 f6 ff ff 	mov    %rax,-0x908(%rbp)
    c0a4:	48 8d 85 d0 ea ff ff 	lea    -0x1530(%rbp),%rax
    c0ab:	48 89 85 00 f7 ff ff 	mov    %rax,-0x900(%rbp)
    c0b2:	48 8d 85 d0 ea ff ff 	lea    -0x1530(%rbp),%rax
    c0b9:	48 89 85 08 f7 ff ff 	mov    %rax,-0x8f8(%rbp)
    c0c0:	48 8d 85 d0 ea ff ff 	lea    -0x1530(%rbp),%rax
    c0c7:	48 89 85 10 f7 ff ff 	mov    %rax,-0x8f0(%rbp)
    c0ce:	48 8d 85 d0 ea ff ff 	lea    -0x1530(%rbp),%rax
    c0d5:	48 89 85 18 f7 ff ff 	mov    %rax,-0x8e8(%rbp)
    c0dc:	48 c7 85 20 f7 ff ff 	movq   $0x0,-0x8e0(%rbp)
    c0e3:	00 00 00 00 
    c0e7:	48 8d 85 d0 ea ff ff 	lea    -0x1530(%rbp),%rax
    c0ee:	48 89 85 28 f7 ff ff 	mov    %rax,-0x8d8(%rbp)
    c0f5:	48 8d 85 d0 ea ff ff 	lea    -0x1530(%rbp),%rax
    c0fc:	48 89 85 30 f7 ff ff 	mov    %rax,-0x8d0(%rbp)
    c103:	48 8d 05 b6 b5 00 00 	lea    0xb5b6(%rip),%rax        # 176c0 <g_111>
    c10a:	48 89 85 38 f7 ff ff 	mov    %rax,-0x8c8(%rbp)
    c111:	48 8d 05 a8 b5 00 00 	lea    0xb5a8(%rip),%rax        # 176c0 <g_111>
    c118:	48 89 85 40 f7 ff ff 	mov    %rax,-0x8c0(%rbp)
    c11f:	48 8d 05 9a b5 00 00 	lea    0xb59a(%rip),%rax        # 176c0 <g_111>
    c126:	48 89 85 48 f7 ff ff 	mov    %rax,-0x8b8(%rbp)
    c12d:	48 8d 85 d0 ea ff ff 	lea    -0x1530(%rbp),%rax
    c134:	48 89 85 50 f7 ff ff 	mov    %rax,-0x8b0(%rbp)
    c13b:	48 8d 85 d0 ea ff ff 	lea    -0x1530(%rbp),%rax
    c142:	48 89 85 58 f7 ff ff 	mov    %rax,-0x8a8(%rbp)
    c149:	48 8d 85 d0 ea ff ff 	lea    -0x1530(%rbp),%rax
    c150:	48 89 85 60 f7 ff ff 	mov    %rax,-0x8a0(%rbp)
    c157:	48 8d 05 62 b5 00 00 	lea    0xb562(%rip),%rax        # 176c0 <g_111>
    c15e:	48 89 85 68 f7 ff ff 	mov    %rax,-0x898(%rbp)
    c165:	48 8d 85 d0 ea ff ff 	lea    -0x1530(%rbp),%rax
    c16c:	48 89 85 70 f7 ff ff 	mov    %rax,-0x890(%rbp)
    c173:	48 8d 85 d0 ea ff ff 	lea    -0x1530(%rbp),%rax
    c17a:	48 89 85 78 f7 ff ff 	mov    %rax,-0x888(%rbp)
    c181:	48 8d 85 d0 ea ff ff 	lea    -0x1530(%rbp),%rax
    c188:	48 89 85 80 f7 ff ff 	mov    %rax,-0x880(%rbp)
    c18f:	48 c7 85 88 f7 ff ff 	movq   $0x0,-0x878(%rbp)
    c196:	00 00 00 00 
    c19a:	48 8d 85 d0 ea ff ff 	lea    -0x1530(%rbp),%rax
    c1a1:	48 89 85 90 f7 ff ff 	mov    %rax,-0x870(%rbp)
    c1a8:	48 8d 85 d0 ea ff ff 	lea    -0x1530(%rbp),%rax
    c1af:	48 89 85 98 f7 ff ff 	mov    %rax,-0x868(%rbp)
    c1b6:	48 8d 85 d0 ea ff ff 	lea    -0x1530(%rbp),%rax
    c1bd:	48 89 85 a0 f7 ff ff 	mov    %rax,-0x860(%rbp)
    c1c4:	48 8d 85 d0 ea ff ff 	lea    -0x1530(%rbp),%rax
    c1cb:	48 89 85 a8 f7 ff ff 	mov    %rax,-0x858(%rbp)
    c1d2:	48 8d 85 d0 ea ff ff 	lea    -0x1530(%rbp),%rax
    c1d9:	48 89 85 b0 f7 ff ff 	mov    %rax,-0x850(%rbp)
    c1e0:	48 8d 85 d0 ea ff ff 	lea    -0x1530(%rbp),%rax
    c1e7:	48 89 85 b8 f7 ff ff 	mov    %rax,-0x848(%rbp)
    c1ee:	48 8d 85 d0 ea ff ff 	lea    -0x1530(%rbp),%rax
    c1f5:	48 89 85 c0 f7 ff ff 	mov    %rax,-0x840(%rbp)
    c1fc:	48 8d 05 bd b4 00 00 	lea    0xb4bd(%rip),%rax        # 176c0 <g_111>
    c203:	48 89 85 c8 f7 ff ff 	mov    %rax,-0x838(%rbp)
    c20a:	48 8d 85 d0 ea ff ff 	lea    -0x1530(%rbp),%rax
    c211:	48 89 85 d0 f7 ff ff 	mov    %rax,-0x830(%rbp)
    c218:	48 8d 05 a1 b4 00 00 	lea    0xb4a1(%rip),%rax        # 176c0 <g_111>
    c21f:	48 89 85 d8 f7 ff ff 	mov    %rax,-0x828(%rbp)
    c226:	48 8d 85 d0 ea ff ff 	lea    -0x1530(%rbp),%rax
    c22d:	48 89 85 e0 f7 ff ff 	mov    %rax,-0x820(%rbp)
    c234:	48 8d 05 85 b4 00 00 	lea    0xb485(%rip),%rax        # 176c0 <g_111>
    c23b:	48 89 85 e8 f7 ff ff 	mov    %rax,-0x818(%rbp)
    c242:	48 8d 05 77 b4 00 00 	lea    0xb477(%rip),%rax        # 176c0 <g_111>
    c249:	48 89 85 f0 f7 ff ff 	mov    %rax,-0x810(%rbp)
    c250:	48 8d 05 69 b4 00 00 	lea    0xb469(%rip),%rax        # 176c0 <g_111>
    c257:	48 89 85 f8 f7 ff ff 	mov    %rax,-0x808(%rbp)
    c25e:	48 8d 85 d0 ea ff ff 	lea    -0x1530(%rbp),%rax
    c265:	48 89 85 00 f8 ff ff 	mov    %rax,-0x800(%rbp)
    c26c:	48 8d 05 4d b4 00 00 	lea    0xb44d(%rip),%rax        # 176c0 <g_111>
    c273:	48 89 85 08 f8 ff ff 	mov    %rax,-0x7f8(%rbp)
    c27a:	48 8d 85 d0 ea ff ff 	lea    -0x1530(%rbp),%rax
    c281:	48 89 85 10 f8 ff ff 	mov    %rax,-0x7f0(%rbp)
    c288:	48 8d 85 d0 ea ff ff 	lea    -0x1530(%rbp),%rax
    c28f:	48 89 85 18 f8 ff ff 	mov    %rax,-0x7e8(%rbp)
    c296:	48 8d 05 23 b4 00 00 	lea    0xb423(%rip),%rax        # 176c0 <g_111>
    c29d:	48 89 85 20 f8 ff ff 	mov    %rax,-0x7e0(%rbp)
    c2a4:	48 8d 85 d0 ea ff ff 	lea    -0x1530(%rbp),%rax
    c2ab:	48 89 85 28 f8 ff ff 	mov    %rax,-0x7d8(%rbp)
    c2b2:	48 8d 05 87 ad 00 00 	lea    0xad87(%rip),%rax        # 17040 <g_20+0x4>
    c2b9:	48 89 85 88 eb ff ff 	mov    %rax,-0x1478(%rbp)
    c2c0:	48 c7 85 90 eb ff ff 	movq   $0x0,-0x1470(%rbp)
    c2c7:	00 00 00 00 
    c2cb:	48 8d 05 8d ad 00 00 	lea    0xad8d(%rip),%rax        # 1705f <g_67+0x7>
    c2d2:	48 89 85 98 eb ff ff 	mov    %rax,-0x1468(%rbp)
    c2d9:	c7 85 b8 ea ff ff 00 	movl   $0x0,-0x1548(%rbp)
    c2e0:	00 00 00 
    c2e3:	eb 1a                	jmp    c2ff <func_23+0x113f>
    c2e5:	8b 85 b8 ea ff ff    	mov    -0x1548(%rbp),%eax
    c2eb:	48 98                	cltq   
    c2ed:	c7 84 85 c0 eb ff ff 	movl   $0xe081e47d,-0x1440(%rbp,%rax,4)
    c2f4:	7d e4 81 e0 
    c2f8:	83 85 b8 ea ff ff 01 	addl   $0x1,-0x1548(%rbp)
    c2ff:	83 bd b8 ea ff ff 04 	cmpl   $0x4,-0x1548(%rbp)
    c306:	7e dd                	jle    c2e5 <func_23+0x1125>
    c308:	48 8b 85 50 eb ff ff 	mov    -0x14b0(%rbp),%rax
    c30f:	c7 00 f2 a0 3b 9b    	movl   $0x9b3ba0f2,(%rax)
    c315:	48 8b 05 54 e3 00 00 	mov    0xe354(%rip),%rax        # 1a670 <g_397>
    c31c:	48 8b 00             	mov    (%rax),%rax
    c31f:	48 8b 95 50 eb ff ff 	mov    -0x14b0(%rbp),%rdx
    c326:	8b 12                	mov    (%rdx),%edx
    c328:	89 10                	mov    %edx,(%rax)
    c32a:	0f b6 85 84 ea ff ff 	movzbl -0x157c(%rbp),%eax
    c331:	0f b6 d8             	movzbl %al,%ebx
    c334:	8b 85 d0 eb ff ff    	mov    -0x1430(%rbp),%eax
    c33a:	44 0f bf e0          	movswl %ax,%r12d
    c33e:	c7 85 a8 ea ff ff 00 	movl   $0x0,-0x1558(%rbp)
    c345:	00 00 00 
    c348:	8b 05 fe e7 00 00    	mov    0xe7fe(%rip),%eax        # 1ab4c <g_51>
    c34e:	48 98                	cltq   
    c350:	48 8d 14 85 00 00 00 	lea    0x0(,%rax,4),%rdx
    c357:	00 
    c358:	48 8d 05 e1 b3 00 00 	lea    0xb3e1(%rip),%rax        # 17740 <g_122>
    c35f:	8b 04 02             	mov    (%rdx,%rax,1),%eax
    c362:	85 c0                	test   %eax,%eax
    c364:	8b 05 e2 e7 00 00    	mov    0xe7e2(%rip),%eax        # 1ab4c <g_51>
    c36a:	48 98                	cltq   
    c36c:	48 8d 14 85 00 00 00 	lea    0x0(,%rax,4),%rdx
    c373:	00 
    c374:	48 8d 05 c5 b3 00 00 	lea    0xb3c5(%rip),%rax        # 17740 <g_122>
    c37b:	8b 04 02             	mov    (%rdx,%rax,1),%eax
    c37e:	41 89 c6             	mov    %eax,%r14d
    c381:	48 8b 05 18 e3 00 00 	mov    0xe318(%rip),%rax        # 1a6a0 <g_901>
    c388:	4c 8b 28             	mov    (%rax),%r13
    c38b:	0f b6 85 84 ea ff ff 	movzbl -0x157c(%rbp),%eax
    c392:	0f b6 d0             	movzbl %al,%edx
    c395:	48 8b 85 88 f5 ff ff 	mov    -0xa78(%rbp),%rax
    c39c:	48 39 85 10 eb ff ff 	cmp    %rax,-0x14f0(%rbp)
    c3a3:	0f 95 c0             	setne  %al
    c3a6:	0f b6 c8             	movzbl %al,%ecx
    c3a9:	48 8b 85 88 eb ff ff 	mov    -0x1478(%rbp),%rax
    c3b0:	66 89 08             	mov    %cx,(%rax)
    c3b3:	48 8b 85 88 eb ff ff 	mov    -0x1478(%rbp),%rax
    c3ba:	0f b7 00             	movzwl (%rax),%eax
    c3bd:	0f b7 c0             	movzwl %ax,%eax
    c3c0:	89 d6                	mov    %edx,%esi
    c3c2:	89 c7                	mov    %eax,%edi
    c3c4:	e8 93 d9 ff ff       	callq  9d5c <safe_mod_func_uint16_t_u_u>
    c3c9:	0f b7 c0             	movzwl %ax,%eax
    c3cc:	49 39 c5             	cmp    %rax,%r13
    c3cf:	41 0f 97 c5          	seta   %r13b
    c3d3:	0f b6 85 84 ea ff ff 	movzbl -0x157c(%rbp),%eax
    c3da:	0f b6 c0             	movzbl %al,%eax
    c3dd:	be 07 00 00 00       	mov    $0x7,%esi
    c3e2:	89 c7                	mov    %eax,%edi
    c3e4:	e8 91 da ff ff       	callq  9e7a <safe_rshift_func_uint16_t_u_u>
    c3e9:	0f b7 d0             	movzwl %ax,%edx
    c3ec:	48 8b 85 78 ec ff ff 	mov    -0x1388(%rbp),%rax
    c3f3:	48 8d 0d a6 e2 00 00 	lea    0xe2a6(%rip),%rcx        # 1a6a0 <g_901>
    c3fa:	48 39 c8             	cmp    %rcx,%rax
    c3fd:	0f 95 c0             	setne  %al
    c400:	0f b6 c0             	movzbl %al,%eax
    c403:	39 c2                	cmp    %eax,%edx
    c405:	0f 94 c0             	sete   %al
    c408:	44 21 e8             	and    %r13d,%eax
    c40b:	89 c2                	mov    %eax,%edx
    c40d:	0f b6 85 84 ea ff ff 	movzbl -0x157c(%rbp),%eax
    c414:	21 d0                	and    %edx,%eax
    c416:	44 21 f0             	and    %r14d,%eax
    c419:	0f be c0             	movsbl %al,%eax
    c41c:	89 c7                	mov    %eax,%edi
    c41e:	e8 9c cd ff ff       	callq  91bf <safe_unary_minus_func_int8_t_s>
    c423:	0f be c0             	movsbl %al,%eax
    c426:	be 01 00 00 00       	mov    $0x1,%esi
    c42b:	89 c7                	mov    %eax,%edi
    c42d:	e8 38 ce ff ff       	callq  926a <safe_div_func_int8_t_s_s>
    c432:	0f be c0             	movsbl %al,%eax
    c435:	44 89 e6             	mov    %r12d,%esi
    c438:	89 c7                	mov    %eax,%edi
    c43a:	e8 94 cf ff ff       	callq  93d3 <safe_sub_func_int16_t_s_s>
    c43f:	98                   	cwtl   
    c440:	89 de                	mov    %ebx,%esi
    c442:	89 c7                	mov    %eax,%edi
    c444:	e8 ac cf ff ff       	callq  93f5 <safe_mul_func_int16_t_s_s>
    c449:	66 85 c0             	test   %ax,%ax
    c44c:	74 12                	je     c460 <func_23+0x12a0>
    c44e:	48 8b 05 3b e2 00 00 	mov    0xe23b(%rip),%rax        # 1a690 <g_695>
    c455:	48 8b 00             	mov    (%rax),%rax
    c458:	48 8b 00             	mov    (%rax),%rax
    c45b:	e9 0f 17 00 00       	jmpq   db6f <func_23+0x29af>
    c460:	c6 85 95 ea ff ff 00 	movb   $0x0,-0x156b(%rbp)
    c467:	48 8d 85 30 f8 ff ff 	lea    -0x7d0(%rbp),%rax
    c46e:	48 8d 15 ab bc 00 00 	lea    0xbcab(%rip),%rdx        # 18120 <g_1455+0x770>
    c475:	b9 f3 00 00 00       	mov    $0xf3,%ecx
    c47a:	48 89 c7             	mov    %rax,%rdi
    c47d:	48 89 d6             	mov    %rdx,%rsi
    c480:	f3 48 a5             	rep movsq %ds:(%rsi),%es:(%rdi)
    c483:	c7 85 cc ea ff ff 7a 	movl   $0xebdd157a,-0x1534(%rbp)
    c48a:	15 dd eb 
    c48d:	0f be 95 95 ea ff ff 	movsbl -0x156b(%rbp),%edx
    c494:	8b 85 c4 eb ff ff    	mov    -0x143c(%rbp),%eax
    c49a:	89 c1                	mov    %eax,%ecx
    c49c:	48 8b 85 88 eb ff ff 	mov    -0x1478(%rbp),%rax
    c4a3:	66 89 08             	mov    %cx,(%rax)
    c4a6:	48 8b 85 88 eb ff ff 	mov    -0x1478(%rbp),%rax
    c4ad:	0f b7 00             	movzwl (%rax),%eax
    c4b0:	0f b7 c0             	movzwl %ax,%eax
    c4b3:	89 d3                	mov    %edx,%ebx
    c4b5:	09 c3                	or     %eax,%ebx
    c4b7:	8b 05 9b e6 00 00    	mov    0xe69b(%rip),%eax        # 1ab58 <g_81+0x8>
    c4bd:	0f b6 c0             	movzbl %al,%eax
    c4c0:	be 06 00 00 00       	mov    $0x6,%esi
    c4c5:	89 c7                	mov    %eax,%edi
    c4c7:	e8 80 d7 ff ff       	callq  9c4c <safe_lshift_func_uint8_t_u_u>
    c4cc:	0f b6 c0             	movzbl %al,%eax
    c4cf:	39 c3                	cmp    %eax,%ebx
    c4d1:	0f 9e c0             	setle  %al
    c4d4:	0f b6 c8             	movzbl %al,%ecx
    c4d7:	48 8b 05 a2 e1 00 00 	mov    0xe1a2(%rip),%rax        # 1a680 <g_395>
    c4de:	48 8b 00             	mov    (%rax),%rax
    c4e1:	48 8b 00             	mov    (%rax),%rax
    c4e4:	48 8b 00             	mov    (%rax),%rax
    c4e7:	8b 10                	mov    (%rax),%edx
    c4e9:	31 ca                	xor    %ecx,%edx
    c4eb:	89 10                	mov    %edx,(%rax)
    c4ed:	48 8b 05 84 e1 00 00 	mov    0xe184(%rip),%rax        # 1a678 <g_396>
    c4f4:	48 8b 00             	mov    (%rax),%rax
    c4f7:	48 8b 00             	mov    (%rax),%rax
    c4fa:	8b 08                	mov    (%rax),%ecx
    c4fc:	8b 15 4a e6 00 00    	mov    0xe64a(%rip),%edx        # 1ab4c <g_51>
    c502:	48 63 d2             	movslq %edx,%rdx
    c505:	48 8d 34 95 00 00 00 	lea    0x0(,%rdx,4),%rsi
    c50c:	00 
    c50d:	48 8d 15 2c b2 00 00 	lea    0xb22c(%rip),%rdx        # 17740 <g_122>
    c514:	8b 34 16             	mov    (%rsi,%rdx,1),%esi
    c517:	48 8d 15 ca e1 00 00 	lea    0xe1ca(%rip),%rdx        # 1a6e8 <g_1143+0x28>
    c51e:	48 39 95 90 eb ff ff 	cmp    %rdx,-0x1470(%rbp)
    c525:	0f 95 c2             	setne  %dl
    c528:	0f b6 d2             	movzbl %dl,%edx
    c52b:	39 d6                	cmp    %edx,%esi
    c52d:	0f 95 c2             	setne  %dl
    c530:	0f b6 d2             	movzbl %dl,%edx
    c533:	31 ca                	xor    %ecx,%edx
    c535:	89 10                	mov    %edx,(%rax)
    c537:	0f b6 85 84 ea ff ff 	movzbl -0x157c(%rbp),%eax
    c53e:	0f b6 c0             	movzbl %al,%eax
    c541:	be 06 00 00 00       	mov    $0x6,%esi
    c546:	89 c7                	mov    %eax,%edi
    c548:	e8 b9 d8 ff ff       	callq  9e06 <safe_lshift_func_uint16_t_u_u>
    c54d:	0f b7 d8             	movzwl %ax,%ebx
    c550:	0f b6 85 84 ea ff ff 	movzbl -0x157c(%rbp),%eax
    c557:	84 c0                	test   %al,%al
    c559:	0f 94 c0             	sete   %al
    c55c:	44 0f b6 e0          	movzbl %al,%r12d
    c560:	48 8b 85 d0 ea ff ff 	mov    -0x1530(%rbp),%rax
    c567:	88 05 f1 aa 00 00    	mov    %al,0xaaf1(%rip)        # 1705e <g_67+0x6>
    c56d:	44 0f b6 2d e9 aa 00 	movzbl 0xaae9(%rip),%r13d        # 1705e <g_67+0x6>
    c574:	00 
    c575:	0f b6 85 84 ea ff ff 	movzbl -0x157c(%rbp),%eax
    c57c:	0f b6 d0             	movzbl %al,%edx
    c57f:	48 8b 85 88 eb ff ff 	mov    -0x1478(%rbp),%rax
    c586:	66 89 10             	mov    %dx,(%rax)
    c589:	0f b6 05 19 b4 00 00 	movzbl 0xb419(%rip),%eax        # 179a9 <g_1052>
    c590:	84 c0                	test   %al,%al
    c592:	74 13                	je     c5a7 <func_23+0x13e7>
    c594:	48 8b 85 d0 ea ff ff 	mov    -0x1530(%rbp),%rax
    c59b:	48 85 c0             	test   %rax,%rax
    c59e:	74 07                	je     c5a7 <func_23+0x13e7>
    c5a0:	ba 01 00 00 00       	mov    $0x1,%edx
    c5a5:	eb 05                	jmp    c5ac <func_23+0x13ec>
    c5a7:	ba 00 00 00 00       	mov    $0x0,%edx
    c5ac:	0f b6 85 84 ea ff ff 	movzbl -0x157c(%rbp),%eax
    c5b3:	0f b6 c0             	movzbl %al,%eax
    c5b6:	39 c2                	cmp    %eax,%edx
    c5b8:	0f 9d c0             	setge  %al
    c5bb:	88 05 e8 b3 00 00    	mov    %al,0xb3e8(%rip)        # 179a9 <g_1052>
    c5c1:	0f b6 05 e1 b3 00 00 	movzbl 0xb3e1(%rip),%eax        # 179a9 <g_1052>
    c5c8:	0f be d0             	movsbl %al,%edx
    c5cb:	0f b6 85 84 ea ff ff 	movzbl -0x157c(%rbp),%eax
    c5d2:	0f b6 c0             	movzbl %al,%eax
    c5d5:	39 c2                	cmp    %eax,%edx
    c5d7:	0f 94 c0             	sete   %al
    c5da:	0f b6 c0             	movzbl %al,%eax
    c5dd:	be 2d 49 24 66       	mov    $0x6624492d,%esi
    c5e2:	89 c7                	mov    %eax,%edi
    c5e4:	e8 e3 d0 ff ff       	callq  96cc <safe_mod_func_int32_t_s_s>
    c5e9:	c7 85 cc ea ff ff 02 	movl   $0x2,-0x1534(%rbp)
    c5f0:	00 00 00 
    c5f3:	8b 85 cc ea ff ff    	mov    -0x1534(%rbp),%eax
    c5f9:	89 c6                	mov    %eax,%esi
    c5fb:	bf 00 00 00 00       	mov    $0x0,%edi
    c600:	e8 cb d8 ff ff       	callq  9ed0 <safe_sub_func_uint32_t_u_u>
    c605:	48 8b 05 3c aa 00 00 	mov    0xaa3c(%rip),%rax        # 17048 <g_61>
    c60c:	0f b6 c0             	movzbl %al,%eax
    c60f:	be 00 00 00 00       	mov    $0x0,%esi
    c614:	89 c7                	mov    %eax,%edi
    c616:	e8 72 d6 ff ff       	callq  9c8d <safe_rshift_func_uint8_t_u_s>
    c61b:	41 38 c5             	cmp    %al,%r13b
    c61e:	0f 94 c0             	sete   %al
    c621:	0f b6 c0             	movzbl %al,%eax
    c624:	41 39 c4             	cmp    %eax,%r12d
    c627:	0f 9c c0             	setl   %al
    c62a:	0f b6 c0             	movzbl %al,%eax
    c62d:	39 c3                	cmp    %eax,%ebx
    c62f:	0f 9f c0             	setg   %al
    c632:	0f b6 d0             	movzbl %al,%edx
    c635:	48 8b 85 88 ea ff ff 	mov    -0x1578(%rbp),%rax
    c63c:	8b 00                	mov    (%rax),%eax
    c63e:	39 c2                	cmp    %eax,%edx
    c640:	0f 9e c0             	setle  %al
    c643:	0f b6 c0             	movzbl %al,%eax
    c646:	48 be 16 2e 5d f5 90 	movabs $0x16c1ad90f55d2e16,%rsi
    c64d:	ad c1 16 
    c650:	48 89 c7             	mov    %rax,%rdi
    c653:	e8 5c d3 ff ff       	callq  99b4 <safe_mod_func_int64_t_s_s>
    c658:	8b 85 d0 eb ff ff    	mov    -0x1430(%rbp),%eax
    c65e:	3d 73 fb 00 00       	cmp    $0xfb73,%eax
    c663:	0f 97 c0             	seta   %al
    c666:	0f b6 d0             	movzbl %al,%edx
    c669:	0f b6 85 84 ea ff ff 	movzbl -0x157c(%rbp),%eax
    c670:	0f b6 c0             	movzbl %al,%eax
    c673:	39 c2                	cmp    %eax,%edx
    c675:	0f 9f c0             	setg   %al
    c678:	0f b6 c0             	movzbl %al,%eax
    c67b:	09 85 9c ea ff ff    	or     %eax,-0x1564(%rbp)
    c681:	8b 85 9c ea ff ff    	mov    -0x1564(%rbp),%eax
    c687:	0f b6 c0             	movzbl %al,%eax
    c68a:	89 c7                	mov    %eax,%edi
    c68c:	e8 b4 d4 ff ff       	callq  9b45 <safe_unary_minus_func_uint8_t_u>
    c691:	48 8b 85 88 ea ff ff 	mov    -0x1578(%rbp),%rax
    c698:	8b 18                	mov    (%rax),%ebx
    c69a:	8b 05 c0 e4 00 00    	mov    0xe4c0(%rip),%eax        # 1ab60 <g_334>
    c6a0:	0f b6 c0             	movzbl %al,%eax
    c6a3:	89 c6                	mov    %eax,%esi
    c6a5:	bf f6 00 00 00       	mov    $0xf6,%edi
    c6aa:	e8 e4 d4 ff ff       	callq  9b93 <safe_mul_func_uint8_t_u_u>
    c6af:	0f b6 d0             	movzbl %al,%edx
    c6b2:	48 8b 85 50 eb ff ff 	mov    -0x14b0(%rbp),%rax
    c6b9:	8b 00                	mov    (%rax),%eax
    c6bb:	21 c3                	and    %eax,%ebx
    c6bd:	89 d9                	mov    %ebx,%ecx
    c6bf:	48 8b 85 50 eb ff ff 	mov    -0x14b0(%rbp),%rax
    c6c6:	89 08                	mov    %ecx,(%rax)
    c6c8:	48 8b 85 50 eb ff ff 	mov    -0x14b0(%rbp),%rax
    c6cf:	8b 00                	mov    (%rax),%eax
    c6d1:	39 c2                	cmp    %eax,%edx
    c6d3:	0f 9d c0             	setge  %al
    c6d6:	0f b6 d0             	movzbl %al,%edx
    c6d9:	48 8b 05 a8 df 00 00 	mov    0xdfa8(%rip),%rax        # 1a688 <g_696>
    c6e0:	48 8b 00             	mov    (%rax),%rax
    c6e3:	8b 00                	mov    (%rax),%eax
    c6e5:	39 c2                	cmp    %eax,%edx
    c6e7:	0f 9c c2             	setl   %dl
    c6ea:	48 8b 05 8f df 00 00 	mov    0xdf8f(%rip),%rax        # 1a680 <g_395>
    c6f1:	48 8b 00             	mov    (%rax),%rax
    c6f4:	48 8b 00             	mov    (%rax),%rax
    c6f7:	48 8b 00             	mov    (%rax),%rax
    c6fa:	0f b6 d2             	movzbl %dl,%edx
    c6fd:	89 10                	mov    %edx,(%rax)
    c6ff:	8b 85 d0 eb ff ff    	mov    -0x1430(%rbp),%eax
    c705:	0f b6 c0             	movzbl %al,%eax
    c708:	89 c6                	mov    %eax,%esi
    c70a:	bf 01 00 00 00       	mov    $0x1,%edi
    c70f:	e8 7f d4 ff ff       	callq  9b93 <safe_mul_func_uint8_t_u_u>
    c714:	0f b6 85 84 ea ff ff 	movzbl -0x157c(%rbp),%eax
    c71b:	0f b6 d8             	movzbl %al,%ebx
    c71e:	48 8b 85 d0 ea ff ff 	mov    -0x1530(%rbp),%rax
    c725:	98                   	cwtl   
    c726:	be ff ff ff ff       	mov    $0xffffffff,%esi
    c72b:	89 c7                	mov    %eax,%edi
    c72d:	e8 a1 cc ff ff       	callq  93d3 <safe_sub_func_int16_t_s_s>
    c732:	0f b6 c0             	movzbl %al,%eax
    c735:	89 de                	mov    %ebx,%esi
    c737:	89 c7                	mov    %eax,%edi
    c739:	e8 4f d5 ff ff       	callq  9c8d <safe_rshift_func_uint8_t_u_s>
    c73e:	48 8b 85 98 eb ff ff 	mov    -0x1468(%rbp),%rax
    c745:	c6 00 9d             	movb   $0x9d,(%rax)
    c748:	be 01 00 00 00       	mov    $0x1,%esi
    c74d:	bf 9d 00 00 00       	mov    $0x9d,%edi
    c752:	e8 3c d4 ff ff       	callq  9b93 <safe_mul_func_uint8_t_u_u>
    c757:	0f b6 d8             	movzbl %al,%ebx
    c75a:	48 8b 95 d8 ea ff ff 	mov    -0x1528(%rbp),%rdx
    c761:	0f b6 85 84 ea ff ff 	movzbl -0x157c(%rbp),%eax
    c768:	0f b6 c0             	movzbl %al,%eax
    c76b:	48 89 d6             	mov    %rdx,%rsi
    c76e:	48 89 c7             	mov    %rax,%rdi
    c771:	e8 81 d2 ff ff       	callq  99f7 <safe_div_func_int64_t_s_s>
    c776:	48 89 de             	mov    %rbx,%rsi
    c779:	48 89 c7             	mov    %rax,%rdi
    c77c:	e8 ff d8 ff ff       	callq  a080 <safe_mod_func_uint64_t_u_u>
    c781:	48 8b 85 88 eb ff ff 	mov    -0x1478(%rbp),%rax
    c788:	66 c7 00 00 00       	movw   $0x0,(%rax)
    c78d:	48 8b 85 e0 ea ff ff 	mov    -0x1520(%rbp),%rax
    c794:	48 83 c8 05          	or     $0x5,%rax
    c798:	48 89 c2             	mov    %rax,%rdx
    c79b:	48 8b 85 e0 ea ff ff 	mov    -0x1520(%rbp),%rax
    c7a2:	48 39 c2             	cmp    %rax,%rdx
    c7a5:	72 3e                	jb     c7e5 <func_23+0x1625>
    c7a7:	48 8b 05 d2 de 00 00 	mov    0xded2(%rip),%rax        # 1a680 <g_395>
    c7ae:	48 8b 00             	mov    (%rax),%rax
    c7b1:	48 8b 00             	mov    (%rax),%rax
    c7b4:	48 8b 00             	mov    (%rax),%rax
    c7b7:	8b 00                	mov    (%rax),%eax
    c7b9:	21 85 a8 ea ff ff    	and    %eax,-0x1558(%rbp)
    c7bf:	48 8b 05 d2 de 00 00 	mov    0xded2(%rip),%rax        # 1a698 <g_694>
    c7c6:	48 8b 00             	mov    (%rax),%rax
    c7c9:	48 8b 00             	mov    (%rax),%rax
    c7cc:	48 8b 95 b8 eb ff ff 	mov    -0x1448(%rbp),%rdx
    c7d3:	48 89 10             	mov    %rdx,(%rax)
    c7d6:	48 8b 05 73 de 00 00 	mov    0xde73(%rip),%rax        # 1a650 <g_123>
    c7dd:	8b 00                	mov    (%rax),%eax
    c7df:	85 c0                	test   %eax,%eax
    c7e1:	74 17                	je     c7fa <func_23+0x163a>
    c7e3:	eb 3a                	jmp    c81f <func_23+0x165f>
    c7e5:	48 8b 05 ac de 00 00 	mov    0xdeac(%rip),%rax        # 1a698 <g_694>
    c7ec:	48 8b 00             	mov    (%rax),%rax
    c7ef:	48 8b 00             	mov    (%rax),%rax
    c7f2:	48 8b 00             	mov    (%rax),%rax
    c7f5:	e9 75 13 00 00       	jmpq   db6f <func_23+0x29af>
    c7fa:	48 83 bd 18 eb ff ff 	cmpq   $0x0,-0x14e8(%rbp)
    c801:	00 
    c802:	75 07                	jne    c80b <func_23+0x164b>
    c804:	ba bc 00 00 00       	mov    $0xbc,%edx
    c809:	eb 05                	jmp    c810 <func_23+0x1650>
    c80b:	ba bd 00 00 00       	mov    $0xbd,%edx
    c810:	48 8b 05 79 de 00 00 	mov    0xde79(%rip),%rax        # 1a690 <g_695>
    c817:	48 8b 00             	mov    (%rax),%rax
    c81a:	48 8b 00             	mov    (%rax),%rax
    c81d:	89 10                	mov    %edx,(%rax)
    c81f:	48 8b 05 3a b1 00 00 	mov    0xb13a(%rip),%rax        # 17960 <g_264>
    c826:	48 83 c0 01          	add    $0x1,%rax
    c82a:	48 89 05 2f b1 00 00 	mov    %rax,0xb12f(%rip)        # 17960 <g_264>
    c831:	48 8b 05 28 b1 00 00 	mov    0xb128(%rip),%rax        # 17960 <g_264>
    c838:	48 83 f8 09          	cmp    $0x9,%rax
    c83c:	0f 8e 92 ed ff ff    	jle    b5d4 <func_23+0x414>
    c842:	0f b6 85 84 ea ff ff 	movzbl -0x157c(%rbp),%eax
    c849:	0f be d8             	movsbl %al,%ebx
    c84c:	0f b6 85 84 ea ff ff 	movzbl -0x157c(%rbp),%eax
    c853:	44 0f b6 e0          	movzbl %al,%r12d
    c857:	48 8b 85 78 ec ff ff 	mov    -0x1388(%rbp),%rax
    c85e:	48 39 85 00 eb ff ff 	cmp    %rax,-0x1500(%rbp)
    c865:	0f 95 c0             	setne  %al
    c868:	0f b6 c0             	movzbl %al,%eax
    c86b:	48 89 05 4e ae 00 00 	mov    %rax,0xae4e(%rip)        # 176c0 <g_111>
    c872:	48 8b 05 47 ae 00 00 	mov    0xae47(%rip),%rax        # 176c0 <g_111>
    c879:	89 85 18 ec ff ff    	mov    %eax,-0x13e8(%rbp)
    c87f:	0f b6 85 84 ea ff ff 	movzbl -0x157c(%rbp),%eax
    c886:	44 0f b6 e8          	movzbl %al,%r13d
    c88a:	0f b6 85 84 ea ff ff 	movzbl -0x157c(%rbp),%eax
    c891:	44 0f b6 f0          	movzbl %al,%r14d
    c895:	48 8b 85 b0 ee ff ff 	mov    -0x1150(%rbp),%rax
    c89c:	48 8d 15 06 b1 00 00 	lea    0xb106(%rip),%rdx        # 179a9 <g_1052>
    c8a3:	48 39 d0             	cmp    %rdx,%rax
    c8a6:	0f 94 c0             	sete   %al
    c8a9:	44 0f b6 f8          	movzbl %al,%r15d
    c8ad:	48 8b 85 88 ea ff ff 	mov    -0x1578(%rbp),%rax
    c8b4:	8b 00                	mov    (%rax),%eax
    c8b6:	f7 d0                	not    %eax
    c8b8:	c1 e8 1f             	shr    $0x1f,%eax
    c8bb:	0f b6 c0             	movzbl %al,%eax
    c8be:	be 5f d4 62 71       	mov    $0x7162d45f,%esi
    c8c3:	89 c7                	mov    %eax,%edi
    c8c5:	e8 5b d6 ff ff       	callq  9f25 <safe_div_func_uint32_t_u_u>
    c8ca:	89 c0                	mov    %eax,%eax
    c8cc:	25 69 18 00 00       	and    $0x1869,%eax
    c8d1:	49 39 c7             	cmp    %rax,%r15
    c8d4:	0f 95 c0             	setne  %al
    c8d7:	0f b6 d0             	movzbl %al,%edx
    c8da:	48 8b 85 50 eb ff ff 	mov    -0x14b0(%rbp),%rax
    c8e1:	89 10                	mov    %edx,(%rax)
    c8e3:	48 8b 85 50 eb ff ff 	mov    -0x14b0(%rbp),%rax
    c8ea:	8b 00                	mov    (%rax),%eax
    c8ec:	be 28 05 bf 25       	mov    $0x25bf0528,%esi
    c8f1:	89 c7                	mov    %eax,%edi
    c8f3:	e8 0d cd ff ff       	callq  9605 <safe_sub_func_int32_t_s_s>
    c8f8:	88 85 ab eb ff ff    	mov    %al,-0x1455(%rbp)
    c8fe:	0f b6 85 ab eb ff ff 	movzbl -0x1455(%rbp),%eax
    c905:	66 98                	cbtw   
    c907:	0f b7 c0             	movzwl %ax,%eax
    c90a:	be 01 00 00 00       	mov    $0x1,%esi
    c90f:	89 c7                	mov    %eax,%edi
    c911:	e8 09 d4 ff ff       	callq  9d1f <safe_sub_func_uint16_t_u_u>
    c916:	0f b7 c0             	movzwl %ax,%eax
    c919:	44 89 f6             	mov    %r14d,%esi
    c91c:	89 c7                	mov    %eax,%edi
    c91e:	e8 dc d3 ff ff       	callq  9cff <safe_add_func_uint16_t_u_u>
    c923:	0f b7 c0             	movzwl %ax,%eax
    c926:	4c 89 ee             	mov    %r13,%rsi
    c929:	48 89 c7             	mov    %rax,%rdi
    c92c:	e8 4f d7 ff ff       	callq  a080 <safe_mod_func_uint64_t_u_u>
    c931:	0f b6 85 84 ea ff ff 	movzbl -0x157c(%rbp),%eax
    c938:	84 c0                	test   %al,%al
    c93a:	74 07                	je     c943 <func_23+0x1783>
    c93c:	b8 01 00 00 00       	mov    $0x1,%eax
    c941:	eb 05                	jmp    c948 <func_23+0x1788>
    c943:	b8 00 00 00 00       	mov    $0x0,%eax
    c948:	0f b7 c0             	movzwl %ax,%eax
    c94b:	44 89 e6             	mov    %r12d,%esi
    c94e:	89 c7                	mov    %eax,%edi
    c950:	e8 e8 d3 ff ff       	callq  9d3d <safe_mul_func_uint16_t_u_u>
    c955:	0f be c0             	movsbl %al,%eax
    c958:	89 de                	mov    %ebx,%esi
    c95a:	89 c7                	mov    %eax,%edi
    c95c:	e8 91 c8 ff ff       	callq  91f2 <safe_sub_func_int8_t_s_s>
    c961:	48 8b 05 00 dd 00 00 	mov    0xdd00(%rip),%rax        # 1a668 <g_398>
    c968:	8b 00                	mov    (%rax),%eax
    c96a:	85 c0                	test   %eax,%eax
    c96c:	0f 9e c0             	setle  %al
    c96f:	0f b6 c0             	movzbl %al,%eax
    c972:	be 07 00 00 00       	mov    $0x7,%esi
    c977:	89 c7                	mov    %eax,%edi
    c979:	e8 40 d3 ff ff       	callq  9cbe <safe_rshift_func_uint8_t_u_u>
    c97e:	0f b6 d0             	movzbl %al,%edx
    c981:	0f b6 8d 94 ea ff ff 	movzbl -0x156c(%rbp),%ecx
    c988:	48 8b 05 f9 dc 00 00 	mov    0xdcf9(%rip),%rax        # 1a688 <g_696>
    c98f:	48 8b 00             	mov    (%rax),%rax
    c992:	8b 00                	mov    (%rax),%eax
    c994:	21 c1                	and    %eax,%ecx
    c996:	48 8b 85 88 ea ff ff 	mov    -0x1578(%rbp),%rax
    c99d:	8b 00                	mov    (%rax),%eax
    c99f:	39 c1                	cmp    %eax,%ecx
    c9a1:	0f 9e c0             	setle  %al
    c9a4:	0f b6 c0             	movzbl %al,%eax
    c9a7:	89 d6                	mov    %edx,%esi
    c9a9:	89 c7                	mov    %eax,%edi
    c9ab:	e8 6f d3 ff ff       	callq  9d1f <safe_sub_func_uint16_t_u_u>
    c9b0:	c7 85 ec eb ff ff 01 	movl   $0x1,-0x1414(%rbp)
    c9b7:	00 00 00 
    c9ba:	8b 85 ec eb ff ff    	mov    -0x1414(%rbp),%eax
    c9c0:	48 98                	cltq   
    c9c2:	48 21 85 08 eb ff ff 	and    %rax,-0x14f8(%rbp)
    c9c9:	66 c7 05 96 ad 00 00 	movw   $0xb,0xad96(%rip)        # 17768 <g_145>
    c9d0:	0b 00 
    c9d2:	e9 24 11 00 00       	jmpq   dafb <func_23+0x293b>
    c9d7:	48 8d 05 82 e1 00 00 	lea    0xe182(%rip),%rax        # 1ab60 <g_334>
    c9de:	48 89 85 f0 ea ff ff 	mov    %rax,-0x1510(%rbp)
    c9e5:	48 8d 05 dc ad 00 00 	lea    0xaddc(%rip),%rax        # 177c8 <g_246+0x48>
    c9ec:	48 89 85 68 eb ff ff 	mov    %rax,-0x1498(%rbp)
    c9f3:	48 b8 06 78 e9 cf 71 	movabs $0x679b9d71cfe97806,%rax
    c9fa:	9d 9b 67 
    c9fd:	48 89 85 f8 ea ff ff 	mov    %rax,-0x1508(%rbp)
    ca04:	48 8d 05 3d a6 00 00 	lea    0xa63d(%rip),%rax        # 17048 <g_61>
    ca0b:	48 89 85 30 f8 ff ff 	mov    %rax,-0x7d0(%rbp)
    ca12:	48 c7 85 38 f8 ff ff 	movq   $0x0,-0x7c8(%rbp)
    ca19:	00 00 00 00 
    ca1d:	48 8d 85 e0 ea ff ff 	lea    -0x1520(%rbp),%rax
    ca24:	48 89 85 40 f8 ff ff 	mov    %rax,-0x7c0(%rbp)
    ca2b:	48 8d 05 46 af 00 00 	lea    0xaf46(%rip),%rax        # 17978 <g_680>
    ca32:	48 89 85 48 f8 ff ff 	mov    %rax,-0x7b8(%rbp)
    ca39:	48 8d 85 d8 ea ff ff 	lea    -0x1528(%rbp),%rax
    ca40:	48 89 85 50 f8 ff ff 	mov    %rax,-0x7b0(%rbp)
    ca47:	48 8d 05 12 af 00 00 	lea    0xaf12(%rip),%rax        # 17960 <g_264>
    ca4e:	48 89 85 58 f8 ff ff 	mov    %rax,-0x7a8(%rbp)
    ca55:	48 c7 85 60 f8 ff ff 	movq   $0x0,-0x7a0(%rbp)
    ca5c:	00 00 00 00 
    ca60:	48 8d 05 61 ac 00 00 	lea    0xac61(%rip),%rax        # 176c8 <g_118>
    ca67:	48 89 85 68 f8 ff ff 	mov    %rax,-0x798(%rbp)
    ca6e:	48 8d 05 03 af 00 00 	lea    0xaf03(%rip),%rax        # 17978 <g_680>
    ca75:	48 89 85 70 f8 ff ff 	mov    %rax,-0x790(%rbp)
    ca7c:	48 8d 85 e0 ea ff ff 	lea    -0x1520(%rbp),%rax
    ca83:	48 89 85 78 f8 ff ff 	mov    %rax,-0x788(%rbp)
    ca8a:	48 c7 85 80 f8 ff ff 	movq   $0x0,-0x780(%rbp)
    ca91:	00 00 00 00 
    ca95:	48 8d 05 2c ac 00 00 	lea    0xac2c(%rip),%rax        # 176c8 <g_118>
    ca9c:	48 89 85 88 f8 ff ff 	mov    %rax,-0x778(%rbp)
    caa3:	48 c7 85 90 f8 ff ff 	movq   $0x0,-0x770(%rbp)
    caaa:	00 00 00 00 
    caae:	48 8d 85 d8 ea ff ff 	lea    -0x1528(%rbp),%rax
    cab5:	48 89 85 98 f8 ff ff 	mov    %rax,-0x768(%rbp)
    cabc:	48 8d 05 c5 ae 00 00 	lea    0xaec5(%rip),%rax        # 17988 <g_730>
    cac3:	48 89 85 a0 f8 ff ff 	mov    %rax,-0x760(%rbp)
    caca:	48 8d 85 f8 ea ff ff 	lea    -0x1508(%rbp),%rax
    cad1:	48 89 85 a8 f8 ff ff 	mov    %rax,-0x758(%rbp)
    cad8:	48 8d 85 e0 ea ff ff 	lea    -0x1520(%rbp),%rax
    cadf:	48 89 85 b0 f8 ff ff 	mov    %rax,-0x750(%rbp)
    cae6:	48 c7 85 b8 f8 ff ff 	movq   $0x0,-0x748(%rbp)
    caed:	00 00 00 00 
    caf1:	48 8d 85 f8 ea ff ff 	lea    -0x1508(%rbp),%rax
    caf8:	48 89 85 c0 f8 ff ff 	mov    %rax,-0x740(%rbp)
    caff:	48 c7 85 c8 f8 ff ff 	movq   $0x0,-0x738(%rbp)
    cb06:	00 00 00 00 
    cb0a:	48 8d 85 e0 ea ff ff 	lea    -0x1520(%rbp),%rax
    cb11:	48 89 85 d0 f8 ff ff 	mov    %rax,-0x730(%rbp)
    cb18:	48 c7 85 d8 f8 ff ff 	movq   $0x0,-0x728(%rbp)
    cb1f:	00 00 00 00 
    cb23:	48 8d 05 5e ae 00 00 	lea    0xae5e(%rip),%rax        # 17988 <g_730>
    cb2a:	48 89 85 e0 f8 ff ff 	mov    %rax,-0x720(%rbp)
    cb31:	48 8d 85 f8 ea ff ff 	lea    -0x1508(%rbp),%rax
    cb38:	48 89 85 e8 f8 ff ff 	mov    %rax,-0x718(%rbp)
    cb3f:	48 8d 85 e0 ea ff ff 	lea    -0x1520(%rbp),%rax
    cb46:	48 89 85 f0 f8 ff ff 	mov    %rax,-0x710(%rbp)
    cb4d:	48 8d 05 34 ae 00 00 	lea    0xae34(%rip),%rax        # 17988 <g_730>
    cb54:	48 89 85 f8 f8 ff ff 	mov    %rax,-0x708(%rbp)
    cb5b:	48 8d 85 f8 ea ff ff 	lea    -0x1508(%rbp),%rax
    cb62:	48 89 85 00 f9 ff ff 	mov    %rax,-0x700(%rbp)
    cb69:	48 c7 85 08 f9 ff ff 	movq   $0x0,-0x6f8(%rbp)
    cb70:	00 00 00 00 
    cb74:	48 8d 05 e5 ad 00 00 	lea    0xade5(%rip),%rax        # 17960 <g_264>
    cb7b:	48 89 85 10 f9 ff ff 	mov    %rax,-0x6f0(%rbp)
    cb82:	48 8d 05 ef ad 00 00 	lea    0xadef(%rip),%rax        # 17978 <g_680>
    cb89:	48 89 85 18 f9 ff ff 	mov    %rax,-0x6e8(%rbp)
    cb90:	48 8d 05 e1 ad 00 00 	lea    0xade1(%rip),%rax        # 17978 <g_680>
    cb97:	48 89 85 20 f9 ff ff 	mov    %rax,-0x6e0(%rbp)
    cb9e:	48 8d 85 d8 ea ff ff 	lea    -0x1528(%rbp),%rax
    cba5:	48 89 85 28 f9 ff ff 	mov    %rax,-0x6d8(%rbp)
    cbac:	48 8d 85 f8 ea ff ff 	lea    -0x1508(%rbp),%rax
    cbb3:	48 89 85 30 f9 ff ff 	mov    %rax,-0x6d0(%rbp)
    cbba:	48 8d 05 b7 ad 00 00 	lea    0xadb7(%rip),%rax        # 17978 <g_680>
    cbc1:	48 89 85 38 f9 ff ff 	mov    %rax,-0x6c8(%rbp)
    cbc8:	48 8d 85 f8 ea ff ff 	lea    -0x1508(%rbp),%rax
    cbcf:	48 89 85 40 f9 ff ff 	mov    %rax,-0x6c0(%rbp)
    cbd6:	48 8d 85 e0 ea ff ff 	lea    -0x1520(%rbp),%rax
    cbdd:	48 89 85 48 f9 ff ff 	mov    %rax,-0x6b8(%rbp)
    cbe4:	48 8d 05 8d ad 00 00 	lea    0xad8d(%rip),%rax        # 17978 <g_680>
    cbeb:	48 89 85 50 f9 ff ff 	mov    %rax,-0x6b0(%rbp)
    cbf2:	48 8d 05 4f a4 00 00 	lea    0xa44f(%rip),%rax        # 17048 <g_61>
    cbf9:	48 89 85 58 f9 ff ff 	mov    %rax,-0x6a8(%rbp)
    cc00:	48 8d 05 59 ad 00 00 	lea    0xad59(%rip),%rax        # 17960 <g_264>
    cc07:	48 89 85 60 f9 ff ff 	mov    %rax,-0x6a0(%rbp)
    cc0e:	48 c7 85 68 f9 ff ff 	movq   $0x0,-0x698(%rbp)
    cc15:	00 00 00 00 
    cc19:	48 8d 85 d8 ea ff ff 	lea    -0x1528(%rbp),%rax
    cc20:	48 89 85 70 f9 ff ff 	mov    %rax,-0x690(%rbp)
    cc27:	48 8d 05 5a ad 00 00 	lea    0xad5a(%rip),%rax        # 17988 <g_730>
    cc2e:	48 89 85 78 f9 ff ff 	mov    %rax,-0x688(%rbp)
    cc35:	48 8d 85 e0 ea ff ff 	lea    -0x1520(%rbp),%rax
    cc3c:	48 89 85 80 f9 ff ff 	mov    %rax,-0x680(%rbp)
    cc43:	48 8d 85 f8 ea ff ff 	lea    -0x1508(%rbp),%rax
    cc4a:	48 89 85 88 f9 ff ff 	mov    %rax,-0x678(%rbp)
    cc51:	48 8d 05 20 ad 00 00 	lea    0xad20(%rip),%rax        # 17978 <g_680>
    cc58:	48 89 85 90 f9 ff ff 	mov    %rax,-0x670(%rbp)
    cc5f:	48 c7 85 98 f9 ff ff 	movq   $0x0,-0x668(%rbp)
    cc66:	00 00 00 00 
    cc6a:	48 c7 85 a0 f9 ff ff 	movq   $0x0,-0x660(%rbp)
    cc71:	00 00 00 00 
    cc75:	48 8d 85 e0 ea ff ff 	lea    -0x1520(%rbp),%rax
    cc7c:	48 89 85 a8 f9 ff ff 	mov    %rax,-0x658(%rbp)
    cc83:	48 8d 85 f8 ea ff ff 	lea    -0x1508(%rbp),%rax
    cc8a:	48 89 85 b0 f9 ff ff 	mov    %rax,-0x650(%rbp)
    cc91:	48 8d 05 b0 a3 00 00 	lea    0xa3b0(%rip),%rax        # 17048 <g_61>
    cc98:	48 89 85 b8 f9 ff ff 	mov    %rax,-0x648(%rbp)
    cc9f:	48 8d 05 ba ac 00 00 	lea    0xacba(%rip),%rax        # 17960 <g_264>
    cca6:	48 89 85 c0 f9 ff ff 	mov    %rax,-0x640(%rbp)
    ccad:	48 8d 85 f8 ea ff ff 	lea    -0x1508(%rbp),%rax
    ccb4:	48 89 85 c8 f9 ff ff 	mov    %rax,-0x638(%rbp)
    ccbb:	48 8d 05 c6 ac 00 00 	lea    0xacc6(%rip),%rax        # 17988 <g_730>
    ccc2:	48 89 85 d0 f9 ff ff 	mov    %rax,-0x630(%rbp)
    ccc9:	48 8d 85 e0 ea ff ff 	lea    -0x1520(%rbp),%rax
    ccd0:	48 89 85 d8 f9 ff ff 	mov    %rax,-0x628(%rbp)
    ccd7:	48 c7 85 e0 f9 ff ff 	movq   $0x0,-0x620(%rbp)
    ccde:	00 00 00 00 
    cce2:	48 c7 85 e8 f9 ff ff 	movq   $0x0,-0x618(%rbp)
    cce9:	00 00 00 00 
    cced:	48 8d 05 54 a3 00 00 	lea    0xa354(%rip),%rax        # 17048 <g_61>
    ccf4:	48 89 85 f0 f9 ff ff 	mov    %rax,-0x610(%rbp)
    ccfb:	48 8d 85 e0 ea ff ff 	lea    -0x1520(%rbp),%rax
    cd02:	48 89 85 f8 f9 ff ff 	mov    %rax,-0x608(%rbp)
    cd09:	48 8d 05 38 a3 00 00 	lea    0xa338(%rip),%rax        # 17048 <g_61>
    cd10:	48 89 85 00 fa ff ff 	mov    %rax,-0x600(%rbp)
    cd17:	48 8d 85 e0 ea ff ff 	lea    -0x1520(%rbp),%rax
    cd1e:	48 89 85 08 fa ff ff 	mov    %rax,-0x5f8(%rbp)
    cd25:	48 c7 85 10 fa ff ff 	movq   $0x0,-0x5f0(%rbp)
    cd2c:	00 00 00 00 
    cd30:	48 8d 85 e0 ea ff ff 	lea    -0x1520(%rbp),%rax
    cd37:	48 89 85 18 fa ff ff 	mov    %rax,-0x5e8(%rbp)
    cd3e:	48 8d 85 f8 ea ff ff 	lea    -0x1508(%rbp),%rax
    cd45:	48 89 85 20 fa ff ff 	mov    %rax,-0x5e0(%rbp)
    cd4c:	48 8d 05 25 ac 00 00 	lea    0xac25(%rip),%rax        # 17978 <g_680>
    cd53:	48 89 85 28 fa ff ff 	mov    %rax,-0x5d8(%rbp)
    cd5a:	48 c7 85 30 fa ff ff 	movq   $0x0,-0x5d0(%rbp)
    cd61:	00 00 00 00 
    cd65:	48 8d 05 dc a2 00 00 	lea    0xa2dc(%rip),%rax        # 17048 <g_61>
    cd6c:	48 89 85 38 fa ff ff 	mov    %rax,-0x5c8(%rbp)
    cd73:	48 8d 05 fe ab 00 00 	lea    0xabfe(%rip),%rax        # 17978 <g_680>
    cd7a:	48 89 85 40 fa ff ff 	mov    %rax,-0x5c0(%rbp)
    cd81:	48 8d 85 f8 ea ff ff 	lea    -0x1508(%rbp),%rax
    cd88:	48 89 85 48 fa ff ff 	mov    %rax,-0x5b8(%rbp)
    cd8f:	48 8d 05 ca ab 00 00 	lea    0xabca(%rip),%rax        # 17960 <g_264>
    cd96:	48 89 85 50 fa ff ff 	mov    %rax,-0x5b0(%rbp)
    cd9d:	48 8d 05 d4 ab 00 00 	lea    0xabd4(%rip),%rax        # 17978 <g_680>
    cda4:	48 89 85 58 fa ff ff 	mov    %rax,-0x5a8(%rbp)
    cdab:	48 8d 05 16 a9 00 00 	lea    0xa916(%rip),%rax        # 176c8 <g_118>
    cdb2:	48 89 85 60 fa ff ff 	mov    %rax,-0x5a0(%rbp)
    cdb9:	48 c7 85 68 fa ff ff 	movq   $0x0,-0x598(%rbp)
    cdc0:	00 00 00 00 
    cdc4:	48 c7 85 70 fa ff ff 	movq   $0x0,-0x590(%rbp)
    cdcb:	00 00 00 00 
    cdcf:	48 8d 05 72 a2 00 00 	lea    0xa272(%rip),%rax        # 17048 <g_61>
    cdd6:	48 89 85 78 fa ff ff 	mov    %rax,-0x588(%rbp)
    cddd:	48 8d 85 e0 ea ff ff 	lea    -0x1520(%rbp),%rax
    cde4:	48 89 85 80 fa ff ff 	mov    %rax,-0x580(%rbp)
    cdeb:	48 8d 85 e0 ea ff ff 	lea    -0x1520(%rbp),%rax
    cdf2:	48 89 85 88 fa ff ff 	mov    %rax,-0x578(%rbp)
    cdf9:	48 8d 85 f8 ea ff ff 	lea    -0x1508(%rbp),%rax
    ce00:	48 89 85 90 fa ff ff 	mov    %rax,-0x570(%rbp)
    ce07:	48 c7 85 98 fa ff ff 	movq   $0x0,-0x568(%rbp)
    ce0e:	00 00 00 00 
    ce12:	48 c7 85 a0 fa ff ff 	movq   $0x0,-0x560(%rbp)
    ce19:	00 00 00 00 
    ce1d:	48 8d 05 54 ab 00 00 	lea    0xab54(%rip),%rax        # 17978 <g_680>
    ce24:	48 89 85 a8 fa ff ff 	mov    %rax,-0x558(%rbp)
    ce2b:	48 8d 05 46 ab 00 00 	lea    0xab46(%rip),%rax        # 17978 <g_680>
    ce32:	48 89 85 b0 fa ff ff 	mov    %rax,-0x550(%rbp)
    ce39:	48 8d 85 f8 ea ff ff 	lea    -0x1508(%rbp),%rax
    ce40:	48 89 85 b8 fa ff ff 	mov    %rax,-0x548(%rbp)
    ce47:	48 8d 05 12 ab 00 00 	lea    0xab12(%rip),%rax        # 17960 <g_264>
    ce4e:	48 89 85 c0 fa ff ff 	mov    %rax,-0x540(%rbp)
    ce55:	48 8d 05 04 ab 00 00 	lea    0xab04(%rip),%rax        # 17960 <g_264>
    ce5c:	48 89 85 c8 fa ff ff 	mov    %rax,-0x538(%rbp)
    ce63:	48 8d 85 f8 ea ff ff 	lea    -0x1508(%rbp),%rax
    ce6a:	48 89 85 d0 fa ff ff 	mov    %rax,-0x530(%rbp)
    ce71:	48 8d 05 d0 a1 00 00 	lea    0xa1d0(%rip),%rax        # 17048 <g_61>
    ce78:	48 89 85 d8 fa ff ff 	mov    %rax,-0x528(%rbp)
    ce7f:	48 8d 05 da aa 00 00 	lea    0xaada(%rip),%rax        # 17960 <g_264>
    ce86:	48 89 85 e0 fa ff ff 	mov    %rax,-0x520(%rbp)
    ce8d:	48 c7 85 e8 fa ff ff 	movq   $0x0,-0x518(%rbp)
    ce94:	00 00 00 00 
    ce98:	48 8d 85 f8 ea ff ff 	lea    -0x1508(%rbp),%rax
    ce9f:	48 89 85 f0 fa ff ff 	mov    %rax,-0x510(%rbp)
    cea6:	48 c7 85 f8 fa ff ff 	movq   $0x0,-0x508(%rbp)
    cead:	00 00 00 00 
    ceb1:	48 8d 85 e0 ea ff ff 	lea    -0x1520(%rbp),%rax
    ceb8:	48 89 85 00 fb ff ff 	mov    %rax,-0x500(%rbp)
    cebf:	48 c7 85 08 fb ff ff 	movq   $0x0,-0x4f8(%rbp)
    cec6:	00 00 00 00 
    ceca:	48 8d 05 a7 aa 00 00 	lea    0xaaa7(%rip),%rax        # 17978 <g_680>
    ced1:	48 89 85 10 fb ff ff 	mov    %rax,-0x4f0(%rbp)
    ced8:	48 c7 85 18 fb ff ff 	movq   $0x0,-0x4e8(%rbp)
    cedf:	00 00 00 00 
    cee3:	48 8d 05 5e a1 00 00 	lea    0xa15e(%rip),%rax        # 17048 <g_61>
    ceea:	48 89 85 20 fb ff ff 	mov    %rax,-0x4e0(%rbp)
    cef1:	48 8d 85 e0 ea ff ff 	lea    -0x1520(%rbp),%rax
    cef8:	48 89 85 28 fb ff ff 	mov    %rax,-0x4d8(%rbp)
    ceff:	48 8d 05 72 aa 00 00 	lea    0xaa72(%rip),%rax        # 17978 <g_680>
    cf06:	48 89 85 30 fb ff ff 	mov    %rax,-0x4d0(%rbp)
    cf0d:	48 8d 05 64 aa 00 00 	lea    0xaa64(%rip),%rax        # 17978 <g_680>
    cf14:	48 89 85 38 fb ff ff 	mov    %rax,-0x4c8(%rbp)
    cf1b:	48 c7 85 40 fb ff ff 	movq   $0x0,-0x4c0(%rbp)
    cf22:	00 00 00 00 
    cf26:	48 8d 05 4b aa 00 00 	lea    0xaa4b(%rip),%rax        # 17978 <g_680>
    cf2d:	48 89 85 48 fb ff ff 	mov    %rax,-0x4b8(%rbp)
    cf34:	48 c7 85 50 fb ff ff 	movq   $0x0,-0x4b0(%rbp)
    cf3b:	00 00 00 00 
    cf3f:	48 8d 85 e0 ea ff ff 	lea    -0x1520(%rbp),%rax
    cf46:	48 89 85 58 fb ff ff 	mov    %rax,-0x4a8(%rbp)
    cf4d:	48 8d 05 24 aa 00 00 	lea    0xaa24(%rip),%rax        # 17978 <g_680>
    cf54:	48 89 85 60 fb ff ff 	mov    %rax,-0x4a0(%rbp)
    cf5b:	48 8d 85 d8 ea ff ff 	lea    -0x1528(%rbp),%rax
    cf62:	48 89 85 68 fb ff ff 	mov    %rax,-0x498(%rbp)
    cf69:	48 8d 05 f0 a9 00 00 	lea    0xa9f0(%rip),%rax        # 17960 <g_264>
    cf70:	48 89 85 70 fb ff ff 	mov    %rax,-0x490(%rbp)
    cf77:	48 c7 85 78 fb ff ff 	movq   $0x0,-0x488(%rbp)
    cf7e:	00 00 00 00 
    cf82:	48 8d 05 3f a7 00 00 	lea    0xa73f(%rip),%rax        # 176c8 <g_118>
    cf89:	48 89 85 80 fb ff ff 	mov    %rax,-0x480(%rbp)
    cf90:	48 8d 05 e1 a9 00 00 	lea    0xa9e1(%rip),%rax        # 17978 <g_680>
    cf97:	48 89 85 88 fb ff ff 	mov    %rax,-0x478(%rbp)
    cf9e:	48 8d 85 e0 ea ff ff 	lea    -0x1520(%rbp),%rax
    cfa5:	48 89 85 90 fb ff ff 	mov    %rax,-0x470(%rbp)
    cfac:	48 c7 85 98 fb ff ff 	movq   $0x0,-0x468(%rbp)
    cfb3:	00 00 00 00 
    cfb7:	48 8d 05 0a a7 00 00 	lea    0xa70a(%rip),%rax        # 176c8 <g_118>
    cfbe:	48 89 85 a0 fb ff ff 	mov    %rax,-0x460(%rbp)
    cfc5:	48 c7 85 a8 fb ff ff 	movq   $0x0,-0x458(%rbp)
    cfcc:	00 00 00 00 
    cfd0:	48 8d 85 d8 ea ff ff 	lea    -0x1528(%rbp),%rax
    cfd7:	48 89 85 b0 fb ff ff 	mov    %rax,-0x450(%rbp)
    cfde:	48 8d 05 a3 a9 00 00 	lea    0xa9a3(%rip),%rax        # 17988 <g_730>
    cfe5:	48 89 85 b8 fb ff ff 	mov    %rax,-0x448(%rbp)
    cfec:	48 8d 85 f8 ea ff ff 	lea    -0x1508(%rbp),%rax
    cff3:	48 89 85 c0 fb ff ff 	mov    %rax,-0x440(%rbp)
    cffa:	48 8d 85 e0 ea ff ff 	lea    -0x1520(%rbp),%rax
    d001:	48 89 85 c8 fb ff ff 	mov    %rax,-0x438(%rbp)
    d008:	48 c7 85 d0 fb ff ff 	movq   $0x0,-0x430(%rbp)
    d00f:	00 00 00 00 
    d013:	48 8d 85 f8 ea ff ff 	lea    -0x1508(%rbp),%rax
    d01a:	48 89 85 d8 fb ff ff 	mov    %rax,-0x428(%rbp)
    d021:	48 c7 85 e0 fb ff ff 	movq   $0x0,-0x420(%rbp)
    d028:	00 00 00 00 
    d02c:	48 8d 85 e0 ea ff ff 	lea    -0x1520(%rbp),%rax
    d033:	48 89 85 e8 fb ff ff 	mov    %rax,-0x418(%rbp)
    d03a:	48 c7 85 f0 fb ff ff 	movq   $0x0,-0x410(%rbp)
    d041:	00 00 00 00 
    d045:	48 8d 05 3c a9 00 00 	lea    0xa93c(%rip),%rax        # 17988 <g_730>
    d04c:	48 89 85 f8 fb ff ff 	mov    %rax,-0x408(%rbp)
    d053:	48 8d 85 f8 ea ff ff 	lea    -0x1508(%rbp),%rax
    d05a:	48 89 85 00 fc ff ff 	mov    %rax,-0x400(%rbp)
    d061:	48 8d 85 e0 ea ff ff 	lea    -0x1520(%rbp),%rax
    d068:	48 89 85 08 fc ff ff 	mov    %rax,-0x3f8(%rbp)
    d06f:	48 8d 05 12 a9 00 00 	lea    0xa912(%rip),%rax        # 17988 <g_730>
    d076:	48 89 85 10 fc ff ff 	mov    %rax,-0x3f0(%rbp)
    d07d:	48 8d 85 f8 ea ff ff 	lea    -0x1508(%rbp),%rax
    d084:	48 89 85 18 fc ff ff 	mov    %rax,-0x3e8(%rbp)
    d08b:	48 c7 85 20 fc ff ff 	movq   $0x0,-0x3e0(%rbp)
    d092:	00 00 00 00 
    d096:	48 8d 05 c3 a8 00 00 	lea    0xa8c3(%rip),%rax        # 17960 <g_264>
    d09d:	48 89 85 28 fc ff ff 	mov    %rax,-0x3d8(%rbp)
    d0a4:	48 8d 05 cd a8 00 00 	lea    0xa8cd(%rip),%rax        # 17978 <g_680>
    d0ab:	48 89 85 30 fc ff ff 	mov    %rax,-0x3d0(%rbp)
    d0b2:	48 8d 05 bf a8 00 00 	lea    0xa8bf(%rip),%rax        # 17978 <g_680>
    d0b9:	48 89 85 38 fc ff ff 	mov    %rax,-0x3c8(%rbp)
    d0c0:	48 8d 85 d8 ea ff ff 	lea    -0x1528(%rbp),%rax
    d0c7:	48 89 85 40 fc ff ff 	mov    %rax,-0x3c0(%rbp)
    d0ce:	48 8d 85 f8 ea ff ff 	lea    -0x1508(%rbp),%rax
    d0d5:	48 89 85 48 fc ff ff 	mov    %rax,-0x3b8(%rbp)
    d0dc:	48 8d 05 95 a8 00 00 	lea    0xa895(%rip),%rax        # 17978 <g_680>
    d0e3:	48 89 85 50 fc ff ff 	mov    %rax,-0x3b0(%rbp)
    d0ea:	48 8d 85 f8 ea ff ff 	lea    -0x1508(%rbp),%rax
    d0f1:	48 89 85 58 fc ff ff 	mov    %rax,-0x3a8(%rbp)
    d0f8:	48 8d 85 e0 ea ff ff 	lea    -0x1520(%rbp),%rax
    d0ff:	48 89 85 60 fc ff ff 	mov    %rax,-0x3a0(%rbp)
    d106:	48 8d 05 6b a8 00 00 	lea    0xa86b(%rip),%rax        # 17978 <g_680>
    d10d:	48 89 85 68 fc ff ff 	mov    %rax,-0x398(%rbp)
    d114:	48 8d 05 2d 9f 00 00 	lea    0x9f2d(%rip),%rax        # 17048 <g_61>
    d11b:	48 89 85 70 fc ff ff 	mov    %rax,-0x390(%rbp)
    d122:	48 8d 05 37 a8 00 00 	lea    0xa837(%rip),%rax        # 17960 <g_264>
    d129:	48 89 85 78 fc ff ff 	mov    %rax,-0x388(%rbp)
    d130:	48 c7 85 80 fc ff ff 	movq   $0x0,-0x380(%rbp)
    d137:	00 00 00 00 
    d13b:	48 8d 85 d8 ea ff ff 	lea    -0x1528(%rbp),%rax
    d142:	48 89 85 88 fc ff ff 	mov    %rax,-0x378(%rbp)
    d149:	48 8d 05 38 a8 00 00 	lea    0xa838(%rip),%rax        # 17988 <g_730>
    d150:	48 89 85 90 fc ff ff 	mov    %rax,-0x370(%rbp)
    d157:	48 8d 85 e0 ea ff ff 	lea    -0x1520(%rbp),%rax
    d15e:	48 89 85 98 fc ff ff 	mov    %rax,-0x368(%rbp)
    d165:	48 8d 85 f8 ea ff ff 	lea    -0x1508(%rbp),%rax
    d16c:	48 89 85 a0 fc ff ff 	mov    %rax,-0x360(%rbp)
    d173:	48 8d 05 fe a7 00 00 	lea    0xa7fe(%rip),%rax        # 17978 <g_680>
    d17a:	48 89 85 a8 fc ff ff 	mov    %rax,-0x358(%rbp)
    d181:	48 c7 85 b0 fc ff ff 	movq   $0x0,-0x350(%rbp)
    d188:	00 00 00 00 
    d18c:	48 c7 85 b8 fc ff ff 	movq   $0x0,-0x348(%rbp)
    d193:	00 00 00 00 
    d197:	48 8d 85 e0 ea ff ff 	lea    -0x1520(%rbp),%rax
    d19e:	48 89 85 c0 fc ff ff 	mov    %rax,-0x340(%rbp)
    d1a5:	48 8d 85 f8 ea ff ff 	lea    -0x1508(%rbp),%rax
    d1ac:	48 89 85 c8 fc ff ff 	mov    %rax,-0x338(%rbp)
    d1b3:	48 8d 05 8e 9e 00 00 	lea    0x9e8e(%rip),%rax        # 17048 <g_61>
    d1ba:	48 89 85 d0 fc ff ff 	mov    %rax,-0x330(%rbp)
    d1c1:	48 8d 05 98 a7 00 00 	lea    0xa798(%rip),%rax        # 17960 <g_264>
    d1c8:	48 89 85 d8 fc ff ff 	mov    %rax,-0x328(%rbp)
    d1cf:	48 8d 85 f8 ea ff ff 	lea    -0x1508(%rbp),%rax
    d1d6:	48 89 85 e0 fc ff ff 	mov    %rax,-0x320(%rbp)
    d1dd:	48 8d 05 a4 a7 00 00 	lea    0xa7a4(%rip),%rax        # 17988 <g_730>
    d1e4:	48 89 85 e8 fc ff ff 	mov    %rax,-0x318(%rbp)
    d1eb:	48 8d 85 e0 ea ff ff 	lea    -0x1520(%rbp),%rax
    d1f2:	48 89 85 f0 fc ff ff 	mov    %rax,-0x310(%rbp)
    d1f9:	48 c7 85 f8 fc ff ff 	movq   $0x0,-0x308(%rbp)
    d200:	00 00 00 00 
    d204:	48 c7 85 00 fd ff ff 	movq   $0x0,-0x300(%rbp)
    d20b:	00 00 00 00 
    d20f:	48 8d 05 32 9e 00 00 	lea    0x9e32(%rip),%rax        # 17048 <g_61>
    d216:	48 89 85 08 fd ff ff 	mov    %rax,-0x2f8(%rbp)
    d21d:	48 8d 85 e0 ea ff ff 	lea    -0x1520(%rbp),%rax
    d224:	48 89 85 10 fd ff ff 	mov    %rax,-0x2f0(%rbp)
    d22b:	48 8d 05 16 9e 00 00 	lea    0x9e16(%rip),%rax        # 17048 <g_61>
    d232:	48 89 85 18 fd ff ff 	mov    %rax,-0x2e8(%rbp)
    d239:	48 8d 85 e0 ea ff ff 	lea    -0x1520(%rbp),%rax
    d240:	48 89 85 20 fd ff ff 	mov    %rax,-0x2e0(%rbp)
    d247:	48 c7 85 28 fd ff ff 	movq   $0x0,-0x2d8(%rbp)
    d24e:	00 00 00 00 
    d252:	48 8d 85 e0 ea ff ff 	lea    -0x1520(%rbp),%rax
    d259:	48 89 85 30 fd ff ff 	mov    %rax,-0x2d0(%rbp)
    d260:	48 8d 85 f8 ea ff ff 	lea    -0x1508(%rbp),%rax
    d267:	48 89 85 38 fd ff ff 	mov    %rax,-0x2c8(%rbp)
    d26e:	48 8d 05 03 a7 00 00 	lea    0xa703(%rip),%rax        # 17978 <g_680>
    d275:	48 89 85 40 fd ff ff 	mov    %rax,-0x2c0(%rbp)
    d27c:	48 c7 85 48 fd ff ff 	movq   $0x0,-0x2b8(%rbp)
    d283:	00 00 00 00 
    d287:	48 8d 05 ba 9d 00 00 	lea    0x9dba(%rip),%rax        # 17048 <g_61>
    d28e:	48 89 85 50 fd ff ff 	mov    %rax,-0x2b0(%rbp)
    d295:	48 8d 05 dc a6 00 00 	lea    0xa6dc(%rip),%rax        # 17978 <g_680>
    d29c:	48 89 85 58 fd ff ff 	mov    %rax,-0x2a8(%rbp)
    d2a3:	48 8d 85 f8 ea ff ff 	lea    -0x1508(%rbp),%rax
    d2aa:	48 89 85 60 fd ff ff 	mov    %rax,-0x2a0(%rbp)
    d2b1:	48 8d 05 a8 a6 00 00 	lea    0xa6a8(%rip),%rax        # 17960 <g_264>
    d2b8:	48 89 85 68 fd ff ff 	mov    %rax,-0x298(%rbp)
    d2bf:	48 8d 05 b2 a6 00 00 	lea    0xa6b2(%rip),%rax        # 17978 <g_680>
    d2c6:	48 89 85 70 fd ff ff 	mov    %rax,-0x290(%rbp)
    d2cd:	48 8d 05 f4 a3 00 00 	lea    0xa3f4(%rip),%rax        # 176c8 <g_118>
    d2d4:	48 89 85 78 fd ff ff 	mov    %rax,-0x288(%rbp)
    d2db:	48 c7 85 80 fd ff ff 	movq   $0x0,-0x280(%rbp)
    d2e2:	00 00 00 00 
    d2e6:	48 c7 85 88 fd ff ff 	movq   $0x0,-0x278(%rbp)
    d2ed:	00 00 00 00 
    d2f1:	48 8d 05 50 9d 00 00 	lea    0x9d50(%rip),%rax        # 17048 <g_61>
    d2f8:	48 89 85 90 fd ff ff 	mov    %rax,-0x270(%rbp)
    d2ff:	48 8d 85 e0 ea ff ff 	lea    -0x1520(%rbp),%rax
    d306:	48 89 85 98 fd ff ff 	mov    %rax,-0x268(%rbp)
    d30d:	48 8d 85 e0 ea ff ff 	lea    -0x1520(%rbp),%rax
    d314:	48 89 85 a0 fd ff ff 	mov    %rax,-0x260(%rbp)
    d31b:	48 8d 85 f8 ea ff ff 	lea    -0x1508(%rbp),%rax
    d322:	48 89 85 a8 fd ff ff 	mov    %rax,-0x258(%rbp)
    d329:	48 c7 85 b0 fd ff ff 	movq   $0x0,-0x250(%rbp)
    d330:	00 00 00 00 
    d334:	48 c7 85 b8 fd ff ff 	movq   $0x0,-0x248(%rbp)
    d33b:	00 00 00 00 
    d33f:	48 8d 05 32 a6 00 00 	lea    0xa632(%rip),%rax        # 17978 <g_680>
    d346:	48 89 85 c0 fd ff ff 	mov    %rax,-0x240(%rbp)
    d34d:	48 8d 05 24 a6 00 00 	lea    0xa624(%rip),%rax        # 17978 <g_680>
    d354:	48 89 85 c8 fd ff ff 	mov    %rax,-0x238(%rbp)
    d35b:	48 8d 85 f8 ea ff ff 	lea    -0x1508(%rbp),%rax
    d362:	48 89 85 d0 fd ff ff 	mov    %rax,-0x230(%rbp)
    d369:	48 8d 05 f0 a5 00 00 	lea    0xa5f0(%rip),%rax        # 17960 <g_264>
    d370:	48 89 85 d8 fd ff ff 	mov    %rax,-0x228(%rbp)
    d377:	48 8d 05 e2 a5 00 00 	lea    0xa5e2(%rip),%rax        # 17960 <g_264>
    d37e:	48 89 85 e0 fd ff ff 	mov    %rax,-0x220(%rbp)
    d385:	48 8d 85 f8 ea ff ff 	lea    -0x1508(%rbp),%rax
    d38c:	48 89 85 e8 fd ff ff 	mov    %rax,-0x218(%rbp)
    d393:	48 8d 05 ae 9c 00 00 	lea    0x9cae(%rip),%rax        # 17048 <g_61>
    d39a:	48 89 85 f0 fd ff ff 	mov    %rax,-0x210(%rbp)
    d3a1:	48 8d 05 b8 a5 00 00 	lea    0xa5b8(%rip),%rax        # 17960 <g_264>
    d3a8:	48 89 85 f8 fd ff ff 	mov    %rax,-0x208(%rbp)
    d3af:	48 c7 85 00 fe ff ff 	movq   $0x0,-0x200(%rbp)
    d3b6:	00 00 00 00 
    d3ba:	48 8d 85 f8 ea ff ff 	lea    -0x1508(%rbp),%rax
    d3c1:	48 89 85 08 fe ff ff 	mov    %rax,-0x1f8(%rbp)
    d3c8:	48 c7 85 10 fe ff ff 	movq   $0x0,-0x1f0(%rbp)
    d3cf:	00 00 00 00 
    d3d3:	48 8d 85 e0 ea ff ff 	lea    -0x1520(%rbp),%rax
    d3da:	48 89 85 18 fe ff ff 	mov    %rax,-0x1e8(%rbp)
    d3e1:	48 c7 85 20 fe ff ff 	movq   $0x0,-0x1e0(%rbp)
    d3e8:	00 00 00 00 
    d3ec:	48 8d 05 85 a5 00 00 	lea    0xa585(%rip),%rax        # 17978 <g_680>
    d3f3:	48 89 85 28 fe ff ff 	mov    %rax,-0x1d8(%rbp)
    d3fa:	48 8d 05 47 9c 00 00 	lea    0x9c47(%rip),%rax        # 17048 <g_61>
    d401:	48 89 85 30 fe ff ff 	mov    %rax,-0x1d0(%rbp)
    d408:	48 8d 05 79 a5 00 00 	lea    0xa579(%rip),%rax        # 17988 <g_730>
    d40f:	48 89 85 38 fe ff ff 	mov    %rax,-0x1c8(%rbp)
    d416:	48 8d 85 d8 ea ff ff 	lea    -0x1528(%rbp),%rax
    d41d:	48 89 85 40 fe ff ff 	mov    %rax,-0x1c0(%rbp)
    d424:	48 c7 85 48 fe ff ff 	movq   $0x0,-0x1b8(%rbp)
    d42b:	00 00 00 00 
    d42f:	48 8d 85 e0 ea ff ff 	lea    -0x1520(%rbp),%rax
    d436:	48 89 85 50 fe ff ff 	mov    %rax,-0x1b0(%rbp)
    d43d:	48 8d 85 e0 ea ff ff 	lea    -0x1520(%rbp),%rax
    d444:	48 89 85 58 fe ff ff 	mov    %rax,-0x1a8(%rbp)
    d44b:	48 8d 85 f8 ea ff ff 	lea    -0x1508(%rbp),%rax
    d452:	48 89 85 60 fe ff ff 	mov    %rax,-0x1a0(%rbp)
    d459:	48 8d 05 00 a5 00 00 	lea    0xa500(%rip),%rax        # 17960 <g_264>
    d460:	48 89 85 68 fe ff ff 	mov    %rax,-0x198(%rbp)
    d467:	48 c7 85 70 fe ff ff 	movq   $0x0,-0x190(%rbp)
    d46e:	00 00 00 00 
    d472:	48 c7 85 78 fe ff ff 	movq   $0x0,-0x188(%rbp)
    d479:	00 00 00 00 
    d47d:	48 c7 85 80 fe ff ff 	movq   $0x0,-0x180(%rbp)
    d484:	00 00 00 00 
    d488:	48 8d 05 e9 a4 00 00 	lea    0xa4e9(%rip),%rax        # 17978 <g_680>
    d48f:	48 89 85 88 fe ff ff 	mov    %rax,-0x178(%rbp)
    d496:	48 8d 05 ab 9b 00 00 	lea    0x9bab(%rip),%rax        # 17048 <g_61>
    d49d:	48 89 85 90 fe ff ff 	mov    %rax,-0x170(%rbp)
    d4a4:	48 8d 05 1d a2 00 00 	lea    0xa21d(%rip),%rax        # 176c8 <g_118>
    d4ab:	48 89 85 98 fe ff ff 	mov    %rax,-0x168(%rbp)
    d4b2:	48 c7 85 a0 fe ff ff 	movq   $0x0,-0x160(%rbp)
    d4b9:	00 00 00 00 
    d4bd:	48 8d 05 04 a2 00 00 	lea    0xa204(%rip),%rax        # 176c8 <g_118>
    d4c4:	48 89 85 a8 fe ff ff 	mov    %rax,-0x158(%rbp)
    d4cb:	48 8d 05 8e a4 00 00 	lea    0xa48e(%rip),%rax        # 17960 <g_264>
    d4d2:	48 89 85 b0 fe ff ff 	mov    %rax,-0x150(%rbp)
    d4d9:	48 8d 05 98 a4 00 00 	lea    0xa498(%rip),%rax        # 17978 <g_680>
    d4e0:	48 89 85 b8 fe ff ff 	mov    %rax,-0x148(%rbp)
    d4e7:	c7 85 c0 ea ff ff 4d 	movl   $0xdff2d4d,-0x1540(%rbp)
    d4ee:	2d ff 0d 
    d4f1:	c7 85 c4 ea ff ff 7a 	movl   $0xd93ca7a,-0x153c(%rbp)
    d4f8:	ca 93 0d 
    d4fb:	48 8d 05 a6 a4 00 00 	lea    0xa4a6(%rip),%rax        # 179a8 <g_1014>
    d502:	48 89 85 70 eb ff ff 	mov    %rax,-0x1490(%rbp)
    d509:	48 8b 85 88 ea ff ff 	mov    -0x1578(%rbp),%rax
    d510:	8b 00                	mov    (%rax),%eax
    d512:	41 89 c4             	mov    %eax,%r12d
    d515:	0f b6 85 84 ea ff ff 	movzbl -0x157c(%rbp),%eax
    d51c:	0f b6 d8             	movzbl %al,%ebx
    d51f:	0f b6 85 84 ea ff ff 	movzbl -0x157c(%rbp),%eax
    d526:	0f b6 d0             	movzbl %al,%edx
    d529:	48 8b 8d a8 ee ff ff 	mov    -0x1158(%rbp),%rcx
    d530:	48 8b 85 00 ef ff ff 	mov    -0x1100(%rbp),%rax
    d537:	48 39 c1             	cmp    %rax,%rcx
    d53a:	0f 95 c0             	setne  %al
    d53d:	0f b6 c0             	movzbl %al,%eax
    d540:	09 d0                	or     %edx,%eax
    d542:	98                   	cwtl   
    d543:	be 01 00 00 00       	mov    $0x1,%esi
    d548:	89 c7                	mov    %eax,%edi
    d54a:	e8 a6 be ff ff       	callq  93f5 <safe_mul_func_int16_t_s_s>
    d54f:	66 85 c0             	test   %ax,%ax
    d552:	74 10                	je     d564 <func_23+0x23a4>
    d554:	83 bd a8 ea ff ff 00 	cmpl   $0x0,-0x1558(%rbp)
    d55b:	74 07                	je     d564 <func_23+0x23a4>
    d55d:	b8 01 00 00 00       	mov    $0x1,%eax
    d562:	eb 05                	jmp    d569 <func_23+0x23a9>
    d564:	b8 00 00 00 00       	mov    $0x0,%eax
    d569:	0f b7 c0             	movzwl %ax,%eax
    d56c:	89 de                	mov    %ebx,%esi
    d56e:	89 c7                	mov    %eax,%edi
    d570:	e8 49 c8 ff ff       	callq  9dbe <safe_lshift_func_uint16_t_u_s>
    d575:	0f b7 c0             	movzwl %ax,%eax
    d578:	44 89 e6             	mov    %r12d,%esi
    d57b:	89 c7                	mov    %eax,%edi
    d57d:	e8 4e c9 ff ff       	callq  9ed0 <safe_sub_func_uint32_t_u_u>
    d582:	98                   	cwtl   
    d583:	be 03 00 00 00       	mov    $0x3,%esi
    d588:	89 c7                	mov    %eax,%edi
    d58a:	e8 9b bf ff ff       	callq  952a <safe_rshift_func_int16_t_s_s>
    d58f:	48 8b 95 50 eb ff ff 	mov    -0x14b0(%rbp),%rdx
    d596:	8b 12                	mov    (%rdx),%edx
    d598:	98                   	cwtl   
    d599:	31 c2                	xor    %eax,%edx
    d59b:	48 8b 85 50 eb ff ff 	mov    -0x14b0(%rbp),%rax
    d5a2:	89 10                	mov    %edx,(%rax)
    d5a4:	48 8b 85 50 eb ff ff 	mov    -0x14b0(%rbp),%rax
    d5ab:	8b 08                	mov    (%rax),%ecx
    d5ad:	48 8b 05 bc d0 00 00 	mov    0xd0bc(%rip),%rax        # 1a670 <g_397>
    d5b4:	48 8b 00             	mov    (%rax),%rax
    d5b7:	8b 10                	mov    (%rax),%edx
    d5b9:	48 8b 05 b0 d0 00 00 	mov    0xd0b0(%rip),%rax        # 1a670 <g_397>
    d5c0:	48 8b 00             	mov    (%rax),%rax
    d5c3:	31 ca                	xor    %ecx,%edx
    d5c5:	89 10                	mov    %edx,(%rax)
    d5c7:	48 8b 05 9a d0 00 00 	mov    0xd09a(%rip),%rax        # 1a668 <g_398>
    d5ce:	8b 00                	mov    (%rax),%eax
    d5d0:	85 c0                	test   %eax,%eax
    d5d2:	0f 85 c2 00 00 00    	jne    d69a <func_23+0x24da>
    d5d8:	0f b6 85 84 ea ff ff 	movzbl -0x157c(%rbp),%eax
    d5df:	0f b6 d8             	movzbl %al,%ebx
    d5e2:	48 8b 95 f0 ea ff ff 	mov    -0x1510(%rbp),%rdx
    d5e9:	8b 02                	mov    (%rdx),%eax
    d5eb:	8d 48 ff             	lea    -0x1(%rax),%ecx
    d5ee:	89 0a                	mov    %ecx,(%rdx)
    d5f0:	85 c0                	test   %eax,%eax
    d5f2:	0f 85 84 00 00 00    	jne    d67c <func_23+0x24bc>
    d5f8:	0f b6 05 5f 9a 00 00 	movzbl 0x9a5f(%rip),%eax        # 1705e <g_67+0x6>
    d5ff:	84 c0                	test   %al,%al
    d601:	0f 94 c0             	sete   %al
    d604:	0f b6 c0             	movzbl %al,%eax
    d607:	48 89 c7             	mov    %rax,%rdi
    d60a:	e8 0a ca ff ff       	callq  a019 <safe_unary_minus_func_uint64_t_u>
    d60f:	89 c2                	mov    %eax,%edx
    d611:	48 8b 85 68 eb ff ff 	mov    -0x1498(%rbp),%rax
    d618:	66 89 10             	mov    %dx,(%rax)
    d61b:	48 8b 85 68 eb ff ff 	mov    -0x1498(%rbp),%rax
    d622:	0f b7 00             	movzwl (%rax),%eax
    d625:	98                   	cwtl   
    d626:	f7 d0                	not    %eax
    d628:	89 c2                	mov    %eax,%edx
    d62a:	0f b6 85 84 ea ff ff 	movzbl -0x157c(%rbp),%eax
    d631:	0f b6 c0             	movzbl %al,%eax
    d634:	39 c2                	cmp    %eax,%edx
    d636:	0f 9d c0             	setge  %al
    d639:	0f b6 c0             	movzbl %al,%eax
    d63c:	be 9b c3 4b fb       	mov    $0xfb4bc39b,%esi
    d641:	89 c7                	mov    %eax,%edi
    d643:	e8 b7 c0 ff ff       	callq  96ff <safe_div_func_int32_t_s_s>
    d648:	0f b6 95 ae eb ff ff 	movzbl -0x1452(%rbp),%edx
    d64f:	0f be d2             	movsbl %dl,%edx
    d652:	39 d0                	cmp    %edx,%eax
    d654:	0f 9f c0             	setg   %al
    d657:	0f b6 c0             	movzbl %al,%eax
    d65a:	89 85 18 ec ff ff    	mov    %eax,-0x13e8(%rbp)
    d660:	8b 95 18 ec ff ff    	mov    -0x13e8(%rbp),%edx
    d666:	48 8b 85 50 eb ff ff 	mov    -0x14b0(%rbp),%rax
    d66d:	89 10                	mov    %edx,(%rax)
    d66f:	48 8b 85 50 eb ff ff 	mov    -0x14b0(%rbp),%rax
    d676:	8b 00                	mov    (%rax),%eax
    d678:	85 c0                	test   %eax,%eax
    d67a:	74 09                	je     d685 <func_23+0x24c5>
    d67c:	0f b6 85 84 ea ff ff 	movzbl -0x157c(%rbp),%eax
    d683:	84 c0                	test   %al,%al
    d685:	48 89 de             	mov    %rbx,%rsi
    d688:	48 bf c7 85 0a 5f 9d 	movabs $0x5f8d029d5f0a85c7,%rdi
    d68f:	02 8d 5f 
    d692:	e8 aa c1 ff ff       	callq  9841 <safe_add_func_int64_t_s_s>
    d697:	48 85 c0             	test   %rax,%rax
    d69a:	48 8d 05 07 a3 00 00 	lea    0xa307(%rip),%rax        # 179a8 <g_1014>
    d6a1:	48 89 05 48 d0 00 00 	mov    %rax,0xd048(%rip)        # 1a6f0 <g_1327>
    d6a8:	48 8b 15 41 d0 00 00 	mov    0xd041(%rip),%rdx        # 1a6f0 <g_1327>
    d6af:	48 8b 85 18 eb ff ff 	mov    -0x14e8(%rbp),%rax
    d6b6:	48 89 10             	mov    %rdx,(%rax)
    d6b9:	48 8b 85 18 eb ff ff 	mov    -0x14e8(%rbp),%rax
    d6c0:	48 8b 00             	mov    (%rax),%rax
    d6c3:	48 39 85 30 eb ff ff 	cmp    %rax,-0x14d0(%rbp)
    d6ca:	0f 94 c2             	sete   %dl
    d6cd:	0f b7 05 9c a2 00 00 	movzwl 0xa29c(%rip),%eax        # 17970 <g_567>
    d6d4:	83 e0 01             	and    $0x1,%eax
    d6d7:	21 d0                	and    %edx,%eax
    d6d9:	84 c0                	test   %al,%al
    d6db:	75 0c                	jne    d6e9 <func_23+0x2529>
    d6dd:	48 8b 85 f8 ea ff ff 	mov    -0x1508(%rbp),%rax
    d6e4:	48 85 c0             	test   %rax,%rax
    d6e7:	74 07                	je     d6f0 <func_23+0x2530>
    d6e9:	ba 01 00 00 00       	mov    $0x1,%edx
    d6ee:	eb 05                	jmp    d6f5 <func_23+0x2535>
    d6f0:	ba 00 00 00 00       	mov    $0x0,%edx
    d6f5:	48 8b 05 6c cf 00 00 	mov    0xcf6c(%rip),%rax        # 1a668 <g_398>
    d6fc:	89 10                	mov    %edx,(%rax)
    d6fe:	0f b6 85 84 ea ff ff 	movzbl -0x157c(%rbp),%eax
    d705:	0f be d8             	movsbl %al,%ebx
    d708:	0f b6 85 84 ea ff ff 	movzbl -0x157c(%rbp),%eax
    d70f:	84 c0                	test   %al,%al
    d711:	74 18                	je     d72b <func_23+0x256b>
    d713:	48 8d 85 f0 ea ff ff 	lea    -0x1510(%rbp),%rax
    d71a:	48 39 85 60 eb ff ff 	cmp    %rax,-0x14a0(%rbp)
    d721:	75 08                	jne    d72b <func_23+0x256b>
    d723:	41 bc 01 00 00 00    	mov    $0x1,%r12d
    d729:	eb 06                	jmp    d731 <func_23+0x2571>
    d72b:	41 bc 00 00 00 00    	mov    $0x0,%r12d
    d731:	8b 05 ed 98 00 00    	mov    0x98ed(%rip),%eax        # 17024 <g_3>
    d737:	3d ff ff 00 00       	cmp    $0xffff,%eax
    d73c:	0f 94 c0             	sete   %al
    d73f:	0f b6 c0             	movzbl %al,%eax
    d742:	be 07 00 00 00       	mov    $0x7,%esi
    d747:	89 c7                	mov    %eax,%edi
    d749:	e8 70 c6 ff ff       	callq  9dbe <safe_lshift_func_uint16_t_u_s>
    d74e:	66 85 c0             	test   %ax,%ax
    d751:	0f 94 c0             	sete   %al
    d754:	0f b6 d0             	movzbl %al,%edx
    d757:	0f b6 85 84 ea ff ff 	movzbl -0x157c(%rbp),%eax
    d75e:	0f b6 c0             	movzbl %al,%eax
    d761:	39 c2                	cmp    %eax,%edx
    d763:	0f 9e c2             	setle  %dl
    d766:	48 8b 85 e8 ea ff ff 	mov    -0x1518(%rbp),%rax
    d76d:	88 10                	mov    %dl,(%rax)
    d76f:	0f b6 00             	movzbl (%rax),%eax
    d772:	0f be c0             	movsbl %al,%eax
    d775:	be ff ff ff ff       	mov    $0xffffffff,%esi
    d77a:	89 c7                	mov    %eax,%edi
    d77c:	e8 91 ba ff ff       	callq  9212 <safe_mul_func_int8_t_s_s>
    d781:	0f be c0             	movsbl %al,%eax
    d784:	41 39 c4             	cmp    %eax,%r12d
    d787:	74 07                	je     d790 <func_23+0x25d0>
    d789:	ba 03 00 00 00       	mov    $0x3,%edx
    d78e:	eb 05                	jmp    d795 <func_23+0x25d5>
    d790:	ba 02 00 00 00       	mov    $0x2,%edx
    d795:	0f b6 85 84 ea ff ff 	movzbl -0x157c(%rbp),%eax
    d79c:	09 d0                	or     %edx,%eax
    d79e:	0f be c0             	movsbl %al,%eax
    d7a1:	89 de                	mov    %ebx,%esi
    d7a3:	89 c7                	mov    %eax,%edi
    d7a5:	e8 48 ba ff ff       	callq  91f2 <safe_sub_func_int8_t_s_s>
    d7aa:	48 8b 95 30 eb ff ff 	mov    -0x14d0(%rbp),%rdx
    d7b1:	88 02                	mov    %al,(%rdx)
    d7b3:	48 8b 85 30 eb ff ff 	mov    -0x14d0(%rbp),%rax
    d7ba:	0f b6 00             	movzbl (%rax),%eax
    d7bd:	84 c0                	test   %al,%al
    d7bf:	0f 95 c0             	setne  %al
    d7c2:	0f b6 c0             	movzbl %al,%eax
    d7c5:	be 0d 00 00 00       	mov    $0xd,%esi
    d7ca:	89 c7                	mov    %eax,%edi
    d7cc:	e8 c1 bc ff ff       	callq  9492 <safe_lshift_func_int16_t_s_s>
    d7d1:	0f b6 85 84 ea ff ff 	movzbl -0x157c(%rbp),%eax
    d7d8:	0f b6 d0             	movzbl %al,%edx
    d7db:	48 8b 85 68 eb ff ff 	mov    -0x1498(%rbp),%rax
    d7e2:	66 89 10             	mov    %dx,(%rax)
    d7e5:	48 8b 85 68 eb ff ff 	mov    -0x1498(%rbp),%rax
    d7ec:	0f b7 00             	movzwl (%rax),%eax
    d7ef:	66 85 c0             	test   %ax,%ax
    d7f2:	74 2f                	je     d823 <func_23+0x2663>
    d7f4:	48 8b 05 8d ce 00 00 	mov    0xce8d(%rip),%rax        # 1a688 <g_696>
    d7fb:	48 8b 00             	mov    (%rax),%rax
    d7fe:	8b 00                	mov    (%rax),%eax
    d800:	3d c6 01 8e 3a       	cmp    $0x3a8e01c6,%eax
    d805:	0f 9f c0             	setg   %al
    d808:	0f b6 c0             	movzbl %al,%eax
    d80b:	be 05 00 00 00       	mov    $0x5,%esi
    d810:	89 c7                	mov    %eax,%edi
    d812:	e8 a7 c5 ff ff       	callq  9dbe <safe_lshift_func_uint16_t_u_s>
    d817:	66 85 c0             	test   %ax,%ax
    d81a:	74 07                	je     d823 <func_23+0x2663>
    d81c:	b8 01 00 00 00       	mov    $0x1,%eax
    d821:	eb 05                	jmp    d828 <func_23+0x2668>
    d823:	b8 00 00 00 00       	mov    $0x0,%eax
    d828:	89 85 c0 ea ff ff    	mov    %eax,-0x1540(%rbp)
    d82e:	8b 85 c0 ea ff ff    	mov    -0x1540(%rbp),%eax
    d834:	48 98                	cltq   
    d836:	48 89 05 4b a1 00 00 	mov    %rax,0xa14b(%rip)        # 17988 <g_730>
    d83d:	48 8b 15 44 a1 00 00 	mov    0xa144(%rip),%rdx        # 17988 <g_730>
    d844:	48 8b 05 a5 ce 00 00 	mov    0xcea5(%rip),%rax        # 1a6f0 <g_1327>
    d84b:	0f b6 00             	movzbl (%rax),%eax
    d84e:	0f be c8             	movsbl %al,%ecx
    d851:	0f b6 85 84 ea ff ff 	movzbl -0x157c(%rbp),%eax
    d858:	0f b6 c0             	movzbl %al,%eax
    d85b:	39 c1                	cmp    %eax,%ecx
    d85d:	0f 9d c0             	setge  %al
    d860:	0f b6 c0             	movzbl %al,%eax
    d863:	48 21 d0             	and    %rdx,%rax
    d866:	48 85 c0             	test   %rax,%rax
    d869:	74 13                	je     d87e <func_23+0x26be>
    d86b:	0f b7 05 f6 9e 00 00 	movzwl 0x9ef6(%rip),%eax        # 17768 <g_145>
    d872:	66 85 c0             	test   %ax,%ax
    d875:	74 07                	je     d87e <func_23+0x26be>
    d877:	ba 01 00 00 00       	mov    $0x1,%edx
    d87c:	eb 05                	jmp    d883 <func_23+0x26c3>
    d87e:	ba 00 00 00 00       	mov    $0x0,%edx
    d883:	0f b6 85 84 ea ff ff 	movzbl -0x157c(%rbp),%eax
    d88a:	0f b6 c0             	movzbl %al,%eax
    d88d:	39 c2                	cmp    %eax,%edx
    d88f:	0f 9d c0             	setge  %al
    d892:	0f b6 c0             	movzbl %al,%eax
    d895:	48 be 17 67 ac a8 cc 	movabs $0x984277cca8ac6717,%rsi
    d89c:	77 42 98 
    d89f:	48 89 c7             	mov    %rax,%rdi
    d8a2:	e8 50 c1 ff ff       	callq  99f7 <safe_div_func_int64_t_s_s>
    d8a7:	48 89 c7             	mov    %rax,%rdi
    d8aa:	e8 67 bf ff ff       	callq  9816 <safe_unary_minus_func_int64_t_s>
    d8af:	48 83 f8 38          	cmp    $0x38,%rax
    d8b3:	74 1c                	je     d8d1 <func_23+0x2711>
    d8b5:	83 bd c4 ea ff ff 00 	cmpl   $0x0,-0x153c(%rbp)
    d8bc:	0f 85 4c 02 00 00    	jne    db0e <func_23+0x294e>
    d8c2:	48 8b 05 bf cd 00 00 	mov    0xcdbf(%rip),%rax        # 1a688 <g_696>
    d8c9:	48 8b 00             	mov    (%rax),%rax
    d8cc:	e9 9e 02 00 00       	jmpq   db6f <func_23+0x29af>
    d8d1:	c7 85 c8 ea ff ff 6f 	movl   $0x81a40d6f,-0x1538(%rbp)
    d8d8:	0d a4 81 
    d8db:	48 c7 85 78 eb ff ff 	movq   $0x9,-0x1488(%rbp)
    d8e2:	09 00 00 00 
    d8e6:	48 8d 05 7b a0 00 00 	lea    0xa07b(%rip),%rax        # 17968 <g_323>
    d8ed:	48 89 85 80 eb ff ff 	mov    %rax,-0x1480(%rbp)
    d8f4:	48 8b 05 8d cd 00 00 	mov    0xcd8d(%rip),%rax        # 1a688 <g_696>
    d8fb:	48 8b 95 88 ea ff ff 	mov    -0x1578(%rbp),%rdx
    d902:	48 89 10             	mov    %rdx,(%rax)
    d905:	0f b6 85 84 ea ff ff 	movzbl -0x157c(%rbp),%eax
    d90c:	0f b6 d8             	movzbl %al,%ebx
    d90f:	0f b6 85 84 ea ff ff 	movzbl -0x157c(%rbp),%eax
    d916:	0f b6 d0             	movzbl %al,%edx
    d919:	48 8b 05 88 cd 00 00 	mov    0xcd88(%rip),%rax        # 1a6a8 <g_900>
    d920:	48 8b 00             	mov    (%rax),%rax
    d923:	48 8b 08             	mov    (%rax),%rcx
    d926:	48 8b 05 1b cd 00 00 	mov    0xcd1b(%rip),%rax        # 1a648 <g_103>
    d92d:	48 8b 00             	mov    (%rax),%rax
    d930:	48 8b 00             	mov    (%rax),%rax
    d933:	48 31 c1             	xor    %rax,%rcx
    d936:	48 8b 85 f8 ea ff ff 	mov    -0x1508(%rbp),%rax
    d93d:	48 21 c8             	and    %rcx,%rax
    d940:	48 39 c2             	cmp    %rax,%rdx
    d943:	0f 95 c0             	setne  %al
    d946:	44 0f b6 e0          	movzbl %al,%r12d
    d94a:	0f b6 95 84 ea ff ff 	movzbl -0x157c(%rbp),%edx
    d951:	48 8b 85 f0 ea ff ff 	mov    -0x1510(%rbp),%rax
    d958:	0f b6 d2             	movzbl %dl,%edx
    d95b:	89 10                	mov    %edx,(%rax)
    d95d:	44 8b 28             	mov    (%rax),%r13d
    d960:	48 8b 85 78 eb ff ff 	mov    -0x1488(%rbp),%rax
    d967:	0f b7 c0             	movzwl %ax,%eax
    d96a:	be 0d 00 00 00       	mov    $0xd,%esi
    d96f:	89 c7                	mov    %eax,%edi
    d971:	e8 04 c5 ff ff       	callq  9e7a <safe_rshift_func_uint16_t_u_u>
    d976:	0f b7 d0             	movzwl %ax,%edx
    d979:	8b 85 c8 ea ff ff    	mov    -0x1538(%rbp),%eax
    d97f:	98                   	cwtl   
    d980:	89 d6                	mov    %edx,%esi
    d982:	89 c7                	mov    %eax,%edi
    d984:	e8 09 bb ff ff       	callq  9492 <safe_lshift_func_int16_t_s_s>
    d989:	98                   	cwtl   
    d98a:	44 21 e8             	and    %r13d,%eax
    d98d:	41 39 c4             	cmp    %eax,%r12d
    d990:	0f 92 c0             	setb   %al
    d993:	44 0f b6 e0          	movzbl %al,%r12d
    d997:	0f b6 85 84 ea ff ff 	movzbl -0x157c(%rbp),%eax
    d99e:	0f b6 d0             	movzbl %al,%edx
    d9a1:	8b 05 89 96 00 00    	mov    0x9689(%rip),%eax        # 17030 <g_6>
    d9a7:	48 98                	cltq   
    d9a9:	48 39 c2             	cmp    %rax,%rdx
    d9ac:	0f 97 c0             	seta   %al
    d9af:	0f b6 c0             	movzbl %al,%eax
    d9b2:	be d1 2f f4 16       	mov    $0x16f42fd1,%esi
    d9b7:	89 c7                	mov    %eax,%edi
    d9b9:	e8 12 c5 ff ff       	callq  9ed0 <safe_sub_func_uint32_t_u_u>
    d9be:	98                   	cwtl   
    d9bf:	be 01 00 00 00       	mov    $0x1,%esi
    d9c4:	89 c7                	mov    %eax,%edi
    d9c6:	e8 4b ba ff ff       	callq  9416 <safe_mod_func_int16_t_s_s>
    d9cb:	44 09 e0             	or     %r12d,%eax
    d9ce:	0f b7 c0             	movzwl %ax,%eax
    d9d1:	be 06 00 00 00       	mov    $0x6,%esi
    d9d6:	89 c7                	mov    %eax,%edi
    d9d8:	e8 e1 c3 ff ff       	callq  9dbe <safe_lshift_func_uint16_t_u_s>
    d9dd:	0f b7 c0             	movzwl %ax,%eax
    d9e0:	48 8b 15 89 cc 00 00 	mov    0xcc89(%rip),%rdx        # 1a670 <g_397>
    d9e7:	4c 8b 22             	mov    (%rdx),%r12
    d9ea:	89 de                	mov    %ebx,%esi
    d9ec:	89 c7                	mov    %eax,%edi
    d9ee:	e8 c3 bb ff ff       	callq  95b6 <safe_add_func_int32_t_s_s>
    d9f3:	41 89 04 24          	mov    %eax,(%r12)
    d9f7:	48 8b 05 ca 9c 00 00 	mov    0x9cca(%rip),%rax        # 176c8 <g_118>
    d9fe:	48 8d 14 85 00 00 00 	lea    0x0(,%rax,4),%rdx
    da05:	00 
    da06:	48 8d 05 33 9d 00 00 	lea    0x9d33(%rip),%rax        # 17740 <g_122>
    da0d:	48 01 d0             	add    %rdx,%rax
    da10:	48 89 85 88 ea ff ff 	mov    %rax,-0x1578(%rbp)
    da17:	48 83 bd 70 eb ff ff 	cmpq   $0x0,-0x1490(%rbp)
    da1e:	00 
    da1f:	0f 95 c0             	setne  %al
    da22:	0f b6 d0             	movzbl %al,%edx
    da25:	0f b6 85 84 ea ff ff 	movzbl -0x157c(%rbp),%eax
    da2c:	0f be c0             	movsbl %al,%eax
    da2f:	89 d6                	mov    %edx,%esi
    da31:	89 c7                	mov    %eax,%edi
    da33:	e8 9c b7 ff ff       	callq  91d4 <safe_add_func_int8_t_s_s>
    da38:	48 8b 05 b1 cc 00 00 	mov    0xccb1(%rip),%rax        # 1a6f0 <g_1327>
    da3f:	0f b6 00             	movzbl (%rax),%eax
    da42:	0f be d0             	movsbl %al,%edx
    da45:	48 8b 85 78 eb ff ff 	mov    -0x1488(%rbp),%rax
    da4c:	0f be c0             	movsbl %al,%eax
    da4f:	89 d6                	mov    %edx,%esi
    da51:	89 c7                	mov    %eax,%edi
    da53:	e8 12 b8 ff ff       	callq  926a <safe_div_func_int8_t_s_s>
    da58:	0f be d0             	movsbl %al,%edx
    da5b:	0f b6 85 ab eb ff ff 	movzbl -0x1455(%rbp),%eax
    da62:	66 0f be f0          	movsbw %al,%si
    da66:	0f b7 0d 03 9f 00 00 	movzwl 0x9f03(%rip),%ecx        # 17970 <g_567>
    da6d:	48 8b 85 68 eb ff ff 	mov    -0x1498(%rbp),%rax
    da74:	66 89 08             	mov    %cx,(%rax)
    da77:	48 8b 85 68 eb ff ff 	mov    -0x1498(%rbp),%rax
    da7e:	0f b7 00             	movzwl (%rax),%eax
    da81:	66 39 c6             	cmp    %ax,%si
    da84:	0f 9e c0             	setle  %al
    da87:	0f b6 c0             	movzbl %al,%eax
    da8a:	89 d6                	mov    %edx,%esi
    da8c:	89 c7                	mov    %eax,%edi
    da8e:	e8 62 b9 ff ff       	callq  93f5 <safe_mul_func_int16_t_s_s>
    da93:	48 8b 95 80 eb ff ff 	mov    -0x1480(%rbp),%rdx
    da9a:	66 89 02             	mov    %ax,(%rdx)
    da9d:	48 8b 85 80 eb ff ff 	mov    -0x1480(%rbp),%rax
    daa4:	0f b7 00             	movzwl (%rax),%eax
    daa7:	98                   	cwtl   
    daa8:	be 03 00 00 00       	mov    $0x3,%esi
    daad:	89 c7                	mov    %eax,%edi
    daaf:	e8 de b9 ff ff       	callq  9492 <safe_lshift_func_int16_t_s_s>
    dab4:	98                   	cwtl   
    dab5:	39 85 c4 ea ff ff    	cmp    %eax,-0x153c(%rbp)
    dabb:	48 83 bd 08 eb ff ff 	cmpq   $0x0,-0x14f8(%rbp)
    dac2:	00 
    dac3:	b9 01 00 00 00       	mov    $0x1,%ecx
    dac8:	48 8b 05 a9 cb 00 00 	mov    0xcba9(%rip),%rax        # 1a678 <g_396>
    dacf:	48 8b 00             	mov    (%rax),%rax
    dad2:	48 8b 00             	mov    (%rax),%rax
    dad5:	8b 10                	mov    (%rax),%edx
    dad7:	21 ca                	and    %ecx,%edx
    dad9:	89 10                	mov    %edx,(%rax)
    dadb:	0f b7 05 86 9c 00 00 	movzwl 0x9c86(%rip),%eax        # 17768 <g_145>
    dae2:	0f b6 c0             	movzbl %al,%eax
    dae5:	be 03 00 00 00       	mov    $0x3,%esi
    daea:	89 c7                	mov    %eax,%edi
    daec:	e8 87 c0 ff ff       	callq  9b78 <safe_sub_func_uint8_t_u_u>
    daf1:	0f b6 c0             	movzbl %al,%eax
    daf4:	66 89 05 6d 9c 00 00 	mov    %ax,0x9c6d(%rip)        # 17768 <g_145>
    dafb:	0f b7 05 66 9c 00 00 	movzwl 0x9c66(%rip),%eax        # 17768 <g_145>
    db02:	66 83 f8 05          	cmp    $0x5,%ax
    db06:	0f 87 cb ee ff ff    	ja     c9d7 <func_23+0x1817>
    db0c:	eb 01                	jmp    db0f <func_23+0x294f>
    db0e:	90                   	nop
    db0f:	48 8b 05 b2 9b 00 00 	mov    0x9bb2(%rip),%rax        # 176c8 <g_118>
    db16:	48 83 e8 01          	sub    $0x1,%rax
    db1a:	48 89 05 a7 9b 00 00 	mov    %rax,0x9ba7(%rip)        # 176c8 <g_118>
    db21:	48 8b 05 a0 9b 00 00 	mov    0x9ba0(%rip),%rax        # 176c8 <g_118>
    db28:	48 85 c0             	test   %rax,%rax
    db2b:	0f 89 ab d9 ff ff    	jns    b4dc <func_23+0x31c>
    db31:	8b 05 15 d0 00 00    	mov    0xd015(%rip),%eax        # 1ab4c <g_51>
    db37:	83 e8 01             	sub    $0x1,%eax
    db3a:	89 05 0c d0 00 00    	mov    %eax,0xd00c(%rip)        # 1ab4c <g_51>
    db40:	8b 05 06 d0 00 00    	mov    0xd006(%rip),%eax        # 1ab4c <g_51>
    db46:	85 c0                	test   %eax,%eax
    db48:	0f 89 bc d8 ff ff    	jns    b40a <func_23+0x24a>
    db4e:	0f b7 85 96 ea ff ff 	movzwl -0x156a(%rbp),%eax
    db55:	83 e8 01             	sub    $0x1,%eax
    db58:	66 89 85 96 ea ff ff 	mov    %ax,-0x156a(%rbp)
    db5f:	48 8b 85 88 ea ff ff 	mov    -0x1578(%rbp),%rax
    db66:	eb 07                	jmp    db6f <func_23+0x29af>
    db68:	48 8b 85 88 ea ff ff 	mov    -0x1578(%rbp),%rax
    db6f:	48 8b 5d c8          	mov    -0x38(%rbp),%rbx
    db73:	64 48 33 1c 25 28 00 	xor    %fs:0x28,%rbx
    db7a:	00 00 
    db7c:	74 05                	je     db83 <func_23+0x29c3>
    db7e:	e8 ed b4 ff ff       	callq  9070 <__stack_chk_fail@plt>
    db83:	48 81 c4 58 15 00 00 	add    $0x1558,%rsp
    db8a:	5b                   	pop    %rbx
    db8b:	41 5c                	pop    %r12
    db8d:	41 5d                	pop    %r13
    db8f:	41 5e                	pop    %r14
    db91:	41 5f                	pop    %r15
    db93:	5d                   	pop    %rbp
    db94:	c3                   	retq   

000000000000db95 <func_37>:
    db95:	f3 0f 1e fa          	endbr64 
    db99:	55                   	push   %rbp
    db9a:	48 89 e5             	mov    %rsp,%rbp
    db9d:	41 57                	push   %r15
    db9f:	41 56                	push   %r14
    dba1:	41 55                	push   %r13
    dba3:	41 54                	push   %r12
    dba5:	53                   	push   %rbx
    dba6:	48 81 ec 88 01 00 00 	sub    $0x188,%rsp
    dbad:	48 89 bd 68 fe ff ff 	mov    %rdi,-0x198(%rbp)
    dbb4:	48 89 b5 60 fe ff ff 	mov    %rsi,-0x1a0(%rbp)
    dbbb:	48 89 95 58 fe ff ff 	mov    %rdx,-0x1a8(%rbp)
    dbc2:	89 c8                	mov    %ecx,%eax
    dbc4:	66 89 85 54 fe ff ff 	mov    %ax,-0x1ac(%rbp)
    dbcb:	64 48 8b 04 25 28 00 	mov    %fs:0x28,%rax
    dbd2:	00 00 
    dbd4:	48 89 45 c8          	mov    %rax,-0x38(%rbp)
    dbd8:	31 c0                	xor    %eax,%eax
    dbda:	48 8d 05 33 9b 00 00 	lea    0x9b33(%rip),%rax        # 17714 <g_120+0x34>
    dbe1:	48 89 85 b0 fe ff ff 	mov    %rax,-0x150(%rbp)
    dbe8:	48 8d 05 6f 94 00 00 	lea    0x946f(%rip),%rax        # 1705e <g_67+0x6>
    dbef:	48 89 85 b8 fe ff ff 	mov    %rax,-0x148(%rbp)
    dbf6:	48 8d 05 63 cf 00 00 	lea    0xcf63(%rip),%rax        # 1ab60 <g_334>
    dbfd:	48 89 85 98 fe ff ff 	mov    %rax,-0x168(%rbp)
    dc04:	48 8d 85 98 fe ff ff 	lea    -0x168(%rbp),%rax
    dc0b:	48 89 85 a0 fe ff ff 	mov    %rax,-0x160(%rbp)
    dc12:	48 8d 85 a0 fe ff ff 	lea    -0x160(%rbp),%rax
    dc19:	48 89 85 c0 fe ff ff 	mov    %rax,-0x140(%rbp)
    dc20:	48 8d 05 61 ca 00 00 	lea    0xca61(%rip),%rax        # 1a688 <g_696>
    dc27:	48 89 85 a8 fe ff ff 	mov    %rax,-0x158(%rbp)
    dc2e:	48 8d 85 a8 fe ff ff 	lea    -0x158(%rbp),%rax
    dc35:	48 89 85 c8 fe ff ff 	mov    %rax,-0x138(%rbp)
    dc3c:	48 c7 85 d0 fe ff ff 	movq   $0x0,-0x130(%rbp)
    dc43:	00 00 00 00 
    dc47:	48 8d 05 9a ca 00 00 	lea    0xca9a(%rip),%rax        # 1a6e8 <g_1143+0x28>
    dc4e:	48 89 85 d8 fe ff ff 	mov    %rax,-0x128(%rbp)
    dc55:	c7 85 80 fe ff ff 52 	movl   $0xa19e0f52,-0x180(%rbp)
    dc5c:	0f 9e a1 
    dc5f:	66 c7 85 7e fe ff ff 	movw   $0x3,-0x182(%rbp)
    dc66:	03 00 
    dc68:	66 c7 45 80 01 fc    	movw   $0xfc01,-0x80(%rbp)
    dc6e:	c6 45 82 07          	movb   $0x7,-0x7e(%rbp)
    dc72:	66 c7 45 83 01 fc    	movw   $0xfc01,-0x7d(%rbp)
    dc78:	c6 45 85 01          	movb   $0x1,-0x7b(%rbp)
    dc7c:	66 c7 45 86 ea 01    	movw   $0x1ea,-0x7a(%rbp)
    dc82:	c6 45 88 07          	movb   $0x7,-0x78(%rbp)
    dc86:	66 c7 45 89 ea 01    	movw   $0x1ea,-0x77(%rbp)
    dc8c:	c6 45 8b 01          	movb   $0x1,-0x75(%rbp)
    dc90:	66 c7 45 8c 01 01    	movw   $0x101,-0x74(%rbp)
    dc96:	c6 45 8e 01          	movb   $0x1,-0x72(%rbp)
    dc9a:	66 c7 45 8f 01 fc    	movw   $0xfc01,-0x71(%rbp)
    dca0:	c6 45 91 07          	movb   $0x7,-0x6f(%rbp)
    dca4:	66 c7 45 92 01 fc    	movw   $0xfc01,-0x6e(%rbp)
    dcaa:	c6 45 94 01          	movb   $0x1,-0x6c(%rbp)
    dcae:	66 c7 45 95 ea 01    	movw   $0x1ea,-0x6b(%rbp)
    dcb4:	c6 45 97 07          	movb   $0x7,-0x69(%rbp)
    dcb8:	66 c7 45 98 ea 01    	movw   $0x1ea,-0x68(%rbp)
    dcbe:	c6 45 9a 01          	movb   $0x1,-0x66(%rbp)
    dcc2:	66 c7 45 9b 01 01    	movw   $0x101,-0x65(%rbp)
    dcc8:	c6 45 9d 01          	movb   $0x1,-0x63(%rbp)
    dccc:	66 c7 45 9e 01 fc    	movw   $0xfc01,-0x62(%rbp)
    dcd2:	c6 45 a0 07          	movb   $0x7,-0x60(%rbp)
    dcd6:	66 c7 45 a1 01 fc    	movw   $0xfc01,-0x5f(%rbp)
    dcdc:	c6 45 a3 01          	movb   $0x1,-0x5d(%rbp)
    dce0:	66 c7 45 a4 ea 01    	movw   $0x1ea,-0x5c(%rbp)
    dce6:	c6 45 a6 07          	movb   $0x7,-0x5a(%rbp)
    dcea:	66 c7 45 a7 ea 01    	movw   $0x1ea,-0x59(%rbp)
    dcf0:	c6 45 a9 01          	movb   $0x1,-0x57(%rbp)
    dcf4:	66 c7 45 aa 01 01    	movw   $0x101,-0x56(%rbp)
    dcfa:	c6 45 ac 01          	movb   $0x1,-0x54(%rbp)
    dcfe:	66 c7 45 ad 01 fc    	movw   $0xfc01,-0x53(%rbp)
    dd04:	c6 45 af 07          	movb   $0x7,-0x51(%rbp)
    dd08:	66 c7 45 b0 01 fc    	movw   $0xfc01,-0x50(%rbp)
    dd0e:	c6 45 b2 01          	movb   $0x1,-0x4e(%rbp)
    dd12:	66 c7 45 b3 ea 01    	movw   $0x1ea,-0x4d(%rbp)
    dd18:	c6 45 b5 07          	movb   $0x7,-0x4b(%rbp)
    dd1c:	66 c7 45 b6 ea 01    	movw   $0x1ea,-0x4a(%rbp)
    dd22:	c6 45 b8 01          	movb   $0x1,-0x48(%rbp)
    dd26:	66 c7 45 b9 01 01    	movw   $0x101,-0x47(%rbp)
    dd2c:	c6 45 bb 01          	movb   $0x1,-0x45(%rbp)
    dd30:	c7 85 84 fe ff ff d2 	movl   $0x2fd4a0d2,-0x17c(%rbp)
    dd37:	a0 d4 2f 
    dd3a:	48 8b 85 c8 fe ff ff 	mov    -0x138(%rbp),%rax
    dd41:	48 8b 00             	mov    (%rax),%rax
    dd44:	48 8b 10             	mov    (%rax),%rdx
    dd47:	48 8b 85 c8 fe ff ff 	mov    -0x138(%rbp),%rax
    dd4e:	48 8b 00             	mov    (%rax),%rax
    dd51:	48 8b 00             	mov    (%rax),%rax
    dd54:	48 8b 12             	mov    (%rdx),%rdx
    dd57:	48 89 10             	mov    %rdx,(%rax)
    dd5a:	66 c7 05 05 9c 00 00 	movw   $0x0,0x9c05(%rip)        # 17968 <g_323>
    dd61:	00 00 
    dd63:	e9 1c 07 00 00       	jmpq   e484 <func_37+0x8ef>
    dd68:	66 c7 85 40 ff ff ff 	movw   $0x0,-0xc0(%rbp)
    dd6f:	00 00 
    dd71:	66 c7 85 42 ff ff ff 	movw   $0x0,-0xbe(%rbp)
    dd78:	00 00 
    dd7a:	66 c7 85 44 ff ff ff 	movw   $0xfffd,-0xbc(%rbp)
    dd81:	fd ff 
    dd83:	66 c7 85 46 ff ff ff 	movw   $0xfffd,-0xba(%rbp)
    dd8a:	fd ff 
    dd8c:	66 c7 85 48 ff ff ff 	movw   $0x0,-0xb8(%rbp)
    dd93:	00 00 
    dd95:	66 c7 85 4a ff ff ff 	movw   $0x0,-0xb6(%rbp)
    dd9c:	00 00 
    dd9e:	66 c7 85 4c ff ff ff 	movw   $0x0,-0xb4(%rbp)
    dda5:	00 00 
    dda7:	66 c7 85 4e ff ff ff 	movw   $0x1a7a,-0xb2(%rbp)
    ddae:	7a 1a 
    ddb0:	66 c7 85 50 ff ff ff 	movw   $0xdfe4,-0xb0(%rbp)
    ddb7:	e4 df 
    ddb9:	66 c7 85 52 ff ff ff 	movw   $0xdfe4,-0xae(%rbp)
    ddc0:	e4 df 
    ddc2:	66 c7 85 54 ff ff ff 	movw   $0x1a7a,-0xac(%rbp)
    ddc9:	7a 1a 
    ddcb:	66 c7 85 56 ff ff ff 	movw   $0x3bc0,-0xaa(%rbp)
    ddd2:	c0 3b 
    ddd4:	66 c7 85 58 ff ff ff 	movw   $0x1a7a,-0xa8(%rbp)
    dddb:	7a 1a 
    dddd:	66 c7 85 5a ff ff ff 	movw   $0xdfe4,-0xa6(%rbp)
    dde4:	e4 df 
    dde6:	66 c7 85 5c ff ff ff 	movw   $0xc3e5,-0xa4(%rbp)
    dded:	e5 c3 
    ddef:	66 c7 85 5e ff ff ff 	movw   $0xc3e5,-0xa2(%rbp)
    ddf6:	e5 c3 
    ddf8:	66 c7 85 60 ff ff ff 	movw   $0x0,-0xa0(%rbp)
    ddff:	00 00 
    de01:	66 c7 85 62 ff ff ff 	movw   $0xfffd,-0x9e(%rbp)
    de08:	fd ff 
    de0a:	66 c7 85 64 ff ff ff 	movw   $0x0,-0x9c(%rbp)
    de11:	00 00 
    de13:	66 c7 85 66 ff ff ff 	movw   $0xc3e5,-0x9a(%rbp)
    de1a:	e5 c3 
    de1c:	66 c7 85 68 ff ff ff 	movw   $0xc3e5,-0x98(%rbp)
    de23:	e5 c3 
    de25:	66 c7 85 6a ff ff ff 	movw   $0xcda9,-0x96(%rbp)
    de2c:	a9 cd 
    de2e:	66 c7 85 6c ff ff ff 	movw   $0xdfe4,-0x94(%rbp)
    de35:	e4 df 
    de37:	66 c7 85 6e ff ff ff 	movw   $0xefad,-0x92(%rbp)
    de3e:	ad ef 
    de40:	66 c7 85 70 ff ff ff 	movw   $0xdfe4,-0x90(%rbp)
    de47:	e4 df 
    de49:	66 c7 85 72 ff ff ff 	movw   $0xcda9,-0x8e(%rbp)
    de50:	a9 cd 
    de52:	66 c7 85 74 ff ff ff 	movw   $0xcda9,-0x8c(%rbp)
    de59:	a9 cd 
    de5b:	66 c7 85 76 ff ff ff 	movw   $0xdfe4,-0x8a(%rbp)
    de62:	e4 df 
    de64:	c7 05 f2 cc 00 00 ec 	movl   $0xffffffec,0xccf2(%rip)        # 1ab60 <g_334>
    de6b:	ff ff ff 
    de6e:	e9 f1 05 00 00       	jmpq   e464 <func_37+0x8cf>
    de73:	48 c7 85 10 ff ff ff 	movq   $0x0,-0xf0(%rbp)
    de7a:	00 00 00 00 
    de7e:	48 c7 85 18 ff ff ff 	movq   $0x0,-0xe8(%rbp)
    de85:	00 00 00 00 
    de89:	48 c7 85 20 ff ff ff 	movq   $0x0,-0xe0(%rbp)
    de90:	00 00 00 00 
    de94:	48 c7 85 28 ff ff ff 	movq   $0x0,-0xd8(%rbp)
    de9b:	00 00 00 00 
    de9f:	48 c7 85 30 ff ff ff 	movq   $0x0,-0xd0(%rbp)
    dea6:	00 00 00 00 
    deaa:	48 c7 85 38 ff ff ff 	movq   $0x0,-0xc8(%rbp)
    deb1:	00 00 00 00 
    deb5:	48 8d 85 10 ff ff ff 	lea    -0xf0(%rbp),%rax
    debc:	48 83 c0 08          	add    $0x8,%rax
    dec0:	48 89 85 e0 fe ff ff 	mov    %rax,-0x120(%rbp)
    dec7:	48 c7 85 e8 fe ff ff 	movq   $0x0,-0x118(%rbp)
    dece:	00 00 00 00 
    ded2:	48 8d 05 a7 9a 00 00 	lea    0x9aa7(%rip),%rax        # 17980 <g_706>
    ded9:	48 89 85 f0 fe ff ff 	mov    %rax,-0x110(%rbp)
    dee0:	c7 85 88 fe ff ff a2 	movl   $0x17b3a2,-0x178(%rbp)
    dee7:	b3 17 00 
    deea:	48 8d 05 7f 9a 00 00 	lea    0x9a7f(%rip),%rax        # 17970 <g_567>
    def1:	48 89 85 f8 fe ff ff 	mov    %rax,-0x108(%rbp)
    def8:	c7 85 8c fe ff ff b0 	movl   $0x23aa68b0,-0x174(%rbp)
    deff:	68 aa 23 
    df02:	48 c7 85 00 ff ff ff 	movq   $0x0,-0x100(%rbp)
    df09:	00 00 00 00 
    df0d:	c7 85 90 fe ff ff 53 	movl   $0x7e118053,-0x170(%rbp)
    df14:	80 11 7e 
    df17:	48 8b 95 30 ff ff ff 	mov    -0xd0(%rbp),%rdx
    df1e:	48 8b 85 e0 fe ff ff 	mov    -0x120(%rbp),%rax
    df25:	48 89 10             	mov    %rdx,(%rax)
    df28:	48 8b 05 59 c7 00 00 	mov    0xc759(%rip),%rax        # 1a688 <g_696>
    df2f:	48 8b 00             	mov    (%rax),%rax
    df32:	8b 00                	mov    (%rax),%eax
    df34:	85 c0                	test   %eax,%eax
    df36:	0f 85 0f 05 00 00    	jne    e44b <func_37+0x8b6>
    df3c:	0f b6 05 1b 91 00 00 	movzbl 0x911b(%rip),%eax        # 1705e <g_67+0x6>
    df43:	0f b6 d8             	movzbl %al,%ebx
    df46:	8b 85 8c fe ff ff    	mov    -0x174(%rbp),%eax
    df4c:	44 0f be e0          	movsbl %al,%r12d
    df50:	8b 85 8c fe ff ff    	mov    -0x174(%rbp),%eax
    df56:	4c 63 e8             	movslq %eax,%r13
    df59:	8b 05 d5 90 00 00    	mov    0x90d5(%rip),%eax        # 17034 <g_7>
    df5f:	89 85 50 fe ff ff    	mov    %eax,-0x1b0(%rbp)
    df65:	48 8b 85 58 fe ff ff 	mov    -0x1a8(%rbp),%rax
    df6c:	44 0f bf f0          	movswl %ax,%r14d
    df70:	0f b6 05 32 9a 00 00 	movzbl 0x9a32(%rip),%eax        # 179a9 <g_1052>
    df77:	44 0f be f8          	movsbl %al,%r15d
    df7b:	0f b7 85 54 fe ff ff 	movzwl -0x1ac(%rbp),%eax
    df82:	48 89 05 d7 99 00 00 	mov    %rax,0x99d7(%rip)        # 17960 <g_264>
    df89:	48 8b 85 60 fe ff ff 	mov    -0x1a0(%rbp),%rax
    df90:	48 3b 85 f0 fe ff ff 	cmp    -0x110(%rbp),%rax
    df97:	0f 94 c0             	sete   %al
    df9a:	0f b6 d0             	movzbl %al,%edx
    df9d:	48 8b 05 f4 c6 00 00 	mov    0xc6f4(%rip),%rax        # 1a698 <g_694>
    dfa4:	48 8b 00             	mov    (%rax),%rax
    dfa7:	48 8b 00             	mov    (%rax),%rax
    dfaa:	48 8b 00             	mov    (%rax),%rax
    dfad:	8b 00                	mov    (%rax),%eax
    dfaf:	39 c2                	cmp    %eax,%edx
    dfb1:	0f 9c c0             	setl   %al
    dfb4:	0f b6 d0             	movzbl %al,%edx
    dfb7:	0f b7 85 58 ff ff ff 	movzwl -0xa8(%rbp),%eax
    dfbe:	98                   	cwtl   
    dfbf:	39 c2                	cmp    %eax,%edx
    dfc1:	7f 10                	jg     dfd3 <func_37+0x43e>
    dfc3:	83 bd 88 fe ff ff 00 	cmpl   $0x0,-0x178(%rbp)
    dfca:	74 07                	je     dfd3 <func_37+0x43e>
    dfcc:	b8 01 00 00 00       	mov    $0x1,%eax
    dfd1:	eb 05                	jmp    dfd8 <func_37+0x443>
    dfd3:	b8 00 00 00 00       	mov    $0x0,%eax
    dfd8:	3d f6 ff 00 00       	cmp    $0xfff6,%eax
    dfdd:	0f 96 c0             	setbe  %al
    dfe0:	0f b6 c0             	movzbl %al,%eax
    dfe3:	39 85 88 fe ff ff    	cmp    %eax,-0x178(%rbp)
    dfe9:	74 11                	je     dffc <func_37+0x467>
    dfeb:	48 83 bd 58 fe ff ff 	cmpq   $0x0,-0x1a8(%rbp)
    dff2:	00 
    dff3:	74 07                	je     dffc <func_37+0x467>
    dff5:	b8 01 00 00 00       	mov    $0x1,%eax
    dffa:	eb 05                	jmp    e001 <func_37+0x46c>
    dffc:	b8 00 00 00 00       	mov    $0x0,%eax
    e001:	83 c8 02             	or     $0x2,%eax
    e004:	89 85 88 fe ff ff    	mov    %eax,-0x178(%rbp)
    e00a:	8b 85 88 fe ff ff    	mov    -0x178(%rbp),%eax
    e010:	0f b6 c0             	movzbl %al,%eax
    e013:	89 c6                	mov    %eax,%esi
    e015:	bf 41 00 00 00       	mov    $0x41,%edi
    e01a:	e8 74 bb ff ff       	callq  9b93 <safe_mul_func_uint8_t_u_u>
    e01f:	0f b6 d0             	movzbl %al,%edx
    e022:	48 8b 85 a8 fe ff ff 	mov    -0x158(%rbp),%rax
    e029:	48 8b 00             	mov    (%rax),%rax
    e02c:	48 8b 00             	mov    (%rax),%rax
    e02f:	8b 00                	mov    (%rax),%eax
    e031:	39 c2                	cmp    %eax,%edx
    e033:	0f 94 c0             	sete   %al
    e036:	0f b6 c0             	movzbl %al,%eax
    e039:	be dc d7 ff ff       	mov    $0xffffd7dc,%esi
    e03e:	89 c7                	mov    %eax,%edi
    e040:	e8 b0 b3 ff ff       	callq  93f5 <safe_mul_func_int16_t_s_s>
    e045:	0f bf d0             	movswl %ax,%edx
    e048:	48 8b 85 58 fe ff ff 	mov    -0x1a8(%rbp),%rax
    e04f:	0f b7 c0             	movzwl %ax,%eax
    e052:	89 d6                	mov    %edx,%esi
    e054:	89 c7                	mov    %eax,%edi
    e056:	e8 ab bd ff ff       	callq  9e06 <safe_lshift_func_uint16_t_u_u>
    e05b:	0f b7 c0             	movzwl %ax,%eax
    e05e:	44 89 fe             	mov    %r15d,%esi
    e061:	89 c7                	mov    %eax,%edi
    e063:	e8 e0 bd ff ff       	callq  9e48 <safe_rshift_func_uint16_t_u_s>
    e068:	66 85 c0             	test   %ax,%ax
    e06b:	75 09                	jne    e076 <func_37+0x4e1>
    e06d:	83 bd 88 fe ff ff 00 	cmpl   $0x0,-0x178(%rbp)
    e074:	74 07                	je     e07d <func_37+0x4e8>
    e076:	ba 01 00 00 00       	mov    $0x1,%edx
    e07b:	eb 05                	jmp    e082 <func_37+0x4ed>
    e07d:	ba 00 00 00 00       	mov    $0x0,%edx
    e082:	0f b7 85 54 fe ff ff 	movzwl -0x1ac(%rbp),%eax
    e089:	39 c2                	cmp    %eax,%edx
    e08b:	0f 9d c0             	setge  %al
    e08e:	0f b6 c0             	movzbl %al,%eax
    e091:	be 00 00 00 00       	mov    $0x0,%esi
    e096:	89 c7                	mov    %eax,%edi
    e098:	e8 04 b2 ff ff       	callq  92a1 <safe_lshift_func_int8_t_s_s>
    e09d:	66 0f be d0          	movsbw %al,%dx
    e0a1:	48 8b 85 f8 fe ff ff 	mov    -0x108(%rbp),%rax
    e0a8:	66 89 10             	mov    %dx,(%rax)
    e0ab:	48 8b 85 f8 fe ff ff 	mov    -0x108(%rbp),%rax
    e0b2:	0f b7 00             	movzwl (%rax),%eax
    e0b5:	98                   	cwtl   
    e0b6:	44 89 f6             	mov    %r14d,%esi
    e0b9:	89 c7                	mov    %eax,%edi
    e0bb:	e8 13 b3 ff ff       	callq  93d3 <safe_sub_func_int16_t_s_s>
    e0c0:	0f be c0             	movsbl %al,%eax
    e0c3:	8b b5 50 fe ff ff    	mov    -0x1b0(%rbp),%esi
    e0c9:	89 c7                	mov    %eax,%edi
    e0cb:	e8 9c b2 ff ff       	callq  936c <safe_rshift_func_int8_t_s_u>
    e0d0:	48 0f be c0          	movsbq %al,%rax
    e0d4:	4c 89 ee             	mov    %r13,%rsi
    e0d7:	48 89 c7             	mov    %rax,%rdi
    e0da:	e8 18 b9 ff ff       	callq  99f7 <safe_div_func_int64_t_s_s>
    e0df:	0f b7 d0             	movzwl %ax,%edx
    e0e2:	48 83 bd e8 fe ff ff 	cmpq   $0x0,-0x118(%rbp)
    e0e9:	00 
    e0ea:	0f 95 c0             	setne  %al
    e0ed:	0f b6 c0             	movzbl %al,%eax
    e0f0:	89 d6                	mov    %edx,%esi
    e0f2:	89 c7                	mov    %eax,%edi
    e0f4:	e8 95 bc ff ff       	callq  9d8e <safe_div_func_uint16_t_u_u>
    e0f9:	0f b7 95 58 ff ff ff 	movzwl -0xa8(%rbp),%edx
    e100:	0f b7 c0             	movzwl %ax,%eax
    e103:	31 85 90 fe ff ff    	xor    %eax,-0x170(%rbp)
    e109:	8b 85 90 fe ff ff    	mov    -0x170(%rbp),%eax
    e10f:	f7 d0                	not    %eax
    e111:	31 d0                	xor    %edx,%eax
    e113:	0f be c0             	movsbl %al,%eax
    e116:	44 89 e6             	mov    %r12d,%esi
    e119:	89 c7                	mov    %eax,%edi
    e11b:	e8 f2 b0 ff ff       	callq  9212 <safe_mul_func_int8_t_s_s>
    e120:	0f be c0             	movsbl %al,%eax
    e123:	be c2 38 16 07       	mov    $0x71638c2,%esi
    e128:	89 c7                	mov    %eax,%edi
    e12a:	e8 89 bd ff ff       	callq  9eb8 <safe_add_func_uint32_t_u_u>
    e12f:	0f b7 c0             	movzwl %ax,%eax
    e132:	be 02 00 00 00       	mov    $0x2,%esi
    e137:	89 c7                	mov    %eax,%edi
    e139:	e8 50 bc ff ff       	callq  9d8e <safe_div_func_uint16_t_u_u>
    e13e:	89 de                	mov    %ebx,%esi
    e140:	bf 01 00 00 00       	mov    $0x1,%edi
    e145:	e8 bb ba ff ff       	callq  9c05 <safe_lshift_func_uint8_t_u_s>
    e14a:	48 83 bd 58 fe ff ff 	cmpq   $0x1,-0x1a8(%rbp)
    e151:	01 
    e152:	0f 95 c0             	setne  %al
    e155:	0f b6 d0             	movzbl %al,%edx
    e158:	0f b7 85 54 fe ff ff 	movzwl -0x1ac(%rbp),%eax
    e15f:	39 c2                	cmp    %eax,%edx
    e161:	7f 08                	jg     e16b <func_37+0x5d6>
    e163:	66 83 bd 54 fe ff ff 	cmpw   $0x0,-0x1ac(%rbp)
    e16a:	00 
    e16b:	8b 85 88 fe ff ff    	mov    -0x178(%rbp),%eax
    e171:	48 63 d0             	movslq %eax,%rdx
    e174:	48 8b 05 2d c5 00 00 	mov    0xc52d(%rip),%rax        # 1a6a8 <g_900>
    e17b:	48 8b 00             	mov    (%rax),%rax
    e17e:	48 8b 00             	mov    (%rax),%rax
    e181:	48 39 c2             	cmp    %rax,%rdx
    e184:	72 10                	jb     e196 <func_37+0x601>
    e186:	0f b7 85 58 ff ff ff 	movzwl -0xa8(%rbp),%eax
    e18d:	66 85 c0             	test   %ax,%ax
    e190:	0f 84 9e 01 00 00    	je     e334 <func_37+0x79f>
    e196:	c7 85 94 fe ff ff 01 	movl   $0x1,-0x16c(%rbp)
    e19d:	00 00 00 
    e1a0:	48 8d 05 19 95 00 00 	lea    0x9519(%rip),%rax        # 176c0 <g_111>
    e1a7:	48 89 85 08 ff ff ff 	mov    %rax,-0xf8(%rbp)
    e1ae:	48 8b 85 b0 fe ff ff 	mov    -0x150(%rbp),%rax
    e1b5:	8b 00                	mov    (%rax),%eax
    e1b7:	89 c3                	mov    %eax,%ebx
    e1b9:	83 bd 94 fe ff ff 01 	cmpl   $0x1,-0x16c(%rbp)
    e1c0:	0f 9e c0             	setle  %al
    e1c3:	0f b6 c0             	movzbl %al,%eax
    e1c6:	39 85 8c fe ff ff    	cmp    %eax,-0x174(%rbp)
    e1cc:	0f 9e c0             	setle  %al
    e1cf:	0f b6 d0             	movzbl %al,%edx
    e1d2:	0f b6 05 69 8e 00 00 	movzbl 0x8e69(%rip),%eax        # 17042 <g_32>
    e1d9:	0f be c0             	movsbl %al,%eax
    e1dc:	39 c2                	cmp    %eax,%edx
    e1de:	0f 95 c0             	setne  %al
    e1e1:	0f b6 c0             	movzbl %al,%eax
    e1e4:	89 c7                	mov    %eax,%edi
    e1e6:	e8 bb bc ff ff       	callq  9ea6 <safe_unary_minus_func_uint32_t_u>
    e1eb:	85 c0                	test   %eax,%eax
    e1ed:	74 07                	je     e1f6 <func_37+0x661>
    e1ef:	83 bd 94 fe ff ff 00 	cmpl   $0x0,-0x16c(%rbp)
    e1f6:	66 83 bd 54 fe ff ff 	cmpw   $0x0,-0x1ac(%rbp)
    e1fd:	00 
    e1fe:	75 0a                	jne    e20a <func_37+0x675>
    e200:	66 83 bd 7e fe ff ff 	cmpw   $0x0,-0x182(%rbp)
    e207:	00 
    e208:	74 0f                	je     e219 <func_37+0x684>
    e20a:	0f b6 45 b9          	movzbl -0x47(%rbp),%eax
    e20e:	84 c0                	test   %al,%al
    e210:	74 07                	je     e219 <func_37+0x684>
    e212:	b8 01 00 00 00       	mov    $0x1,%eax
    e217:	eb 05                	jmp    e21e <func_37+0x689>
    e219:	b8 00 00 00 00       	mov    $0x0,%eax
    e21e:	09 d8                	or     %ebx,%eax
    e220:	98                   	cwtl   
    e221:	be 03 00 00 00       	mov    $0x3,%esi
    e226:	89 c7                	mov    %eax,%edi
    e228:	e8 36 b3 ff ff       	callq  9563 <safe_rshift_func_int16_t_s_u>
    e22d:	98                   	cwtl   
    e22e:	89 85 8c fe ff ff    	mov    %eax,-0x174(%rbp)
    e234:	0f b7 85 58 ff ff ff 	movzwl -0xa8(%rbp),%eax
    e23b:	89 c2                	mov    %eax,%edx
    e23d:	48 8b 85 58 fe ff ff 	mov    -0x1a8(%rbp),%rax
    e244:	31 c2                	xor    %eax,%edx
    e246:	0f b7 85 54 fe ff ff 	movzwl -0x1ac(%rbp),%eax
    e24d:	31 d0                	xor    %edx,%eax
    e24f:	0f be c0             	movsbl %al,%eax
    e252:	be 04 00 00 00       	mov    $0x4,%esi
    e257:	89 c7                	mov    %eax,%edi
    e259:	e8 43 b0 ff ff       	callq  92a1 <safe_lshift_func_int8_t_s_s>
    e25e:	48 0f be c0          	movsbq %al,%rax
    e262:	8b 95 94 fe ff ff    	mov    -0x16c(%rbp),%edx
    e268:	0b 95 80 fe ff ff    	or     -0x180(%rbp),%edx
    e26e:	89 d2                	mov    %edx,%edx
    e270:	48 89 c6             	mov    %rax,%rsi
    e273:	48 89 d7             	mov    %rdx,%rdi
    e276:	e8 05 be ff ff       	callq  a080 <safe_mod_func_uint64_t_u_u>
    e27b:	48 8b 95 08 ff ff ff 	mov    -0xf8(%rbp),%rdx
    e282:	48 8b 12             	mov    (%rdx),%rdx
    e285:	48 09 c2             	or     %rax,%rdx
    e288:	48 8b 85 08 ff ff ff 	mov    -0xf8(%rbp),%rax
    e28f:	48 89 10             	mov    %rdx,(%rax)
    e292:	48 8b 85 08 ff ff ff 	mov    -0xf8(%rbp),%rax
    e299:	48 8b 00             	mov    (%rax),%rax
    e29c:	89 c2                	mov    %eax,%edx
    e29e:	48 8b 05 e3 96 00 00 	mov    0x96e3(%rip),%rax        # 17988 <g_730>
    e2a5:	98                   	cwtl   
    e2a6:	89 d6                	mov    %edx,%esi
    e2a8:	89 c7                	mov    %eax,%edi
    e2aa:	e8 e3 b1 ff ff       	callq  9492 <safe_lshift_func_int16_t_s_s>
    e2af:	0f b6 05 a8 8d 00 00 	movzbl 0x8da8(%rip),%eax        # 1705e <g_67+0x6>
    e2b6:	0f b6 d0             	movzbl %al,%edx
    e2b9:	48 83 bd 58 fe ff ff 	cmpq   $0xfffffffffffffff8,-0x1a8(%rbp)
    e2c0:	f8 
    e2c1:	0f 96 c0             	setbe  %al
    e2c4:	0f b6 c0             	movzbl %al,%eax
    e2c7:	39 85 84 fe ff ff    	cmp    %eax,-0x17c(%rbp)
    e2cd:	0f 96 c0             	setbe  %al
    e2d0:	0f b6 c0             	movzbl %al,%eax
    e2d3:	48 39 85 58 fe ff ff 	cmp    %rax,-0x1a8(%rbp)
    e2da:	0f 94 c0             	sete   %al
    e2dd:	0f b6 c0             	movzbl %al,%eax
    e2e0:	48 39 85 58 fe ff ff 	cmp    %rax,-0x1a8(%rbp)
    e2e7:	0f 93 c0             	setae  %al
    e2ea:	0f b6 c8             	movzbl %al,%ecx
    e2ed:	48 8b 05 d4 93 00 00 	mov    0x93d4(%rip),%rax        # 176c8 <g_118>
    e2f4:	48 21 c8             	and    %rcx,%rax
    e2f7:	48 39 c2             	cmp    %rax,%rdx
    e2fa:	0f 9c c0             	setl   %al
    e2fd:	0f b6 c0             	movzbl %al,%eax
    e300:	48 23 85 58 fe ff ff 	and    -0x1a8(%rbp),%rax
    e307:	48 be 50 2d ed ab 91 	movabs $0xe2f15491abed2d50,%rsi
    e30e:	54 f1 e2 
    e311:	48 89 c7             	mov    %rax,%rdi
    e314:	e8 15 bd ff ff       	callq  a02e <safe_add_func_uint64_t_u_u>
    e319:	48 8b 95 60 fe ff ff 	mov    -0x1a0(%rbp),%rdx
    e320:	8b 12                	mov    (%rdx),%edx
    e322:	21 d0                	and    %edx,%eax
    e324:	89 c2                	mov    %eax,%edx
    e326:	48 8b 85 60 fe ff ff 	mov    -0x1a0(%rbp),%rax
    e32d:	89 10                	mov    %edx,(%rax)
    e32f:	e9 18 01 00 00       	jmpq   e44c <func_37+0x8b7>
    e334:	8b 05 fe 8c 00 00    	mov    0x8cfe(%rip),%eax        # 17038 <g_14>
    e33a:	0f be d8             	movsbl %al,%ebx
    e33d:	0f b7 85 54 fe ff ff 	movzwl -0x1ac(%rbp),%eax
    e344:	44 0f bf e0          	movswl %ax,%r12d
    e348:	48 8b 85 a8 fe ff ff 	mov    -0x158(%rbp),%rax
    e34f:	48 8b 00             	mov    (%rax),%rax
    e352:	48 8b 00             	mov    (%rax),%rax
    e355:	8b 00                	mov    (%rax),%eax
    e357:	48 63 d0             	movslq %eax,%rdx
    e35a:	48 8b 05 3f c3 00 00 	mov    0xc33f(%rip),%rax        # 1a6a0 <g_901>
    e361:	48 8b 00             	mov    (%rax),%rax
    e364:	48 39 c2             	cmp    %rax,%rdx
    e367:	0f 95 c0             	setne  %al
    e36a:	0f b6 c0             	movzbl %al,%eax
    e36d:	be 02 00 00 00       	mov    $0x2,%esi
    e372:	89 c7                	mov    %eax,%edi
    e374:	e8 cf ba ff ff       	callq  9e48 <safe_rshift_func_uint16_t_u_s>
    e379:	0f b7 d0             	movzwl %ax,%edx
    e37c:	0f b7 85 54 fe ff ff 	movzwl -0x1ac(%rbp),%eax
    e383:	89 d6                	mov    %edx,%esi
    e385:	89 c7                	mov    %eax,%edi
    e387:	e8 b1 b9 ff ff       	callq  9d3d <safe_mul_func_uint16_t_u_u>
    e38c:	48 8b 05 0d c3 00 00 	mov    0xc30d(%rip),%rax        # 1a6a0 <g_901>
    e393:	48 8b 00             	mov    (%rax),%rax
    e396:	48 ba 39 fa a1 3e 84 	movabs $0x6172ca843ea1fa39,%rdx
    e39d:	ca 72 61 
    e3a0:	48 39 d0             	cmp    %rdx,%rax
    e3a3:	0f 97 c0             	seta   %al
    e3a6:	0f b6 d0             	movzbl %al,%edx
    e3a9:	48 8b 85 f0 fe ff ff 	mov    -0x110(%rbp),%rax
    e3b0:	89 10                	mov    %edx,(%rax)
    e3b2:	48 8b 85 f0 fe ff ff 	mov    -0x110(%rbp),%rax
    e3b9:	8b 10                	mov    (%rax),%edx
    e3bb:	8b 85 8c fe ff ff    	mov    -0x174(%rbp),%eax
    e3c1:	31 d0                	xor    %edx,%eax
    e3c3:	89 85 8c fe ff ff    	mov    %eax,-0x174(%rbp)
    e3c9:	81 bd 8c fe ff ff 6f 	cmpl   $0x4b788f6f,-0x174(%rbp)
    e3d0:	8f 78 4b 
    e3d3:	0f 95 c0             	setne  %al
    e3d6:	0f b6 d0             	movzbl %al,%edx
    e3d9:	48 8b 05 c0 c2 00 00 	mov    0xc2c0(%rip),%rax        # 1a6a0 <g_901>
    e3e0:	48 8b 00             	mov    (%rax),%rax
    e3e3:	09 d0                	or     %edx,%eax
    e3e5:	0f b7 c0             	movzwl %ax,%eax
    e3e8:	be ff ff 00 00       	mov    $0xffff,%esi
    e3ed:	89 c7                	mov    %eax,%edi
    e3ef:	e8 2b b9 ff ff       	callq  9d1f <safe_sub_func_uint16_t_u_u>
    e3f4:	48 8b 05 a5 c2 00 00 	mov    0xc2a5(%rip),%rax        # 1a6a0 <g_901>
    e3fb:	48 8b 00             	mov    (%rax),%rax
    e3fe:	83 c8 01             	or     $0x1,%eax
    e401:	98                   	cwtl   
    e402:	44 89 e6             	mov    %r12d,%esi
    e405:	89 c7                	mov    %eax,%edi
    e407:	e8 0a b0 ff ff       	callq  9416 <safe_mod_func_int16_t_s_s>
    e40c:	66 c1 e8 0f          	shr    $0xf,%ax
    e410:	0f b6 c0             	movzbl %al,%eax
    e413:	48 be db 2e 54 77 e6 	movabs $0x6168b0e677542edb,%rsi
    e41a:	b0 68 61 
    e41d:	48 89 c7             	mov    %rax,%rdi
    e420:	e8 d2 b5 ff ff       	callq  99f7 <safe_div_func_int64_t_s_s>
    e425:	0f b7 85 54 fe ff ff 	movzwl -0x1ac(%rbp),%eax
    e42c:	0f be c0             	movsbl %al,%eax
    e42f:	89 de                	mov    %ebx,%esi
    e431:	89 c7                	mov    %eax,%edi
    e433:	e8 ba ad ff ff       	callq  91f2 <safe_sub_func_int8_t_s_s>
    e438:	8b 15 0e 93 00 00    	mov    0x930e(%rip),%edx        # 1774c <g_122+0xc>
    e43e:	0f be c0             	movsbl %al,%eax
    e441:	09 d0                	or     %edx,%eax
    e443:	89 05 03 93 00 00    	mov    %eax,0x9303(%rip)        # 1774c <g_122+0xc>
    e449:	eb 01                	jmp    e44c <func_37+0x8b7>
    e44b:	90                   	nop
    e44c:	8b 05 0e c7 00 00    	mov    0xc70e(%rip),%eax        # 1ab60 <g_334>
    e452:	be 05 00 00 00       	mov    $0x5,%esi
    e457:	89 c7                	mov    %eax,%edi
    e459:	e8 5a ba ff ff       	callq  9eb8 <safe_add_func_uint32_t_u_u>
    e45e:	89 05 fc c6 00 00    	mov    %eax,0xc6fc(%rip)        # 1ab60 <g_334>
    e464:	8b 05 f6 c6 00 00    	mov    0xc6f6(%rip),%eax        # 1ab60 <g_334>
    e46a:	83 f8 11             	cmp    $0x11,%eax
    e46d:	0f 87 00 fa ff ff    	ja     de73 <func_37+0x2de>
    e473:	0f b7 05 ee 94 00 00 	movzwl 0x94ee(%rip),%eax        # 17968 <g_323>
    e47a:	83 c0 01             	add    $0x1,%eax
    e47d:	66 89 05 e4 94 00 00 	mov    %ax,0x94e4(%rip)        # 17968 <g_323>
    e484:	0f b7 05 dd 94 00 00 	movzwl 0x94dd(%rip),%eax        # 17968 <g_323>
    e48b:	66 83 f8 0c          	cmp    $0xc,%ax
    e48f:	0f 8e d3 f8 ff ff    	jle    dd68 <func_37+0x1d3>
    e495:	48 8b 85 58 fe ff ff 	mov    -0x1a8(%rbp),%rax
    e49c:	48 8b 4d c8          	mov    -0x38(%rbp),%rcx
    e4a0:	64 48 33 0c 25 28 00 	xor    %fs:0x28,%rcx
    e4a7:	00 00 
    e4a9:	74 05                	je     e4b0 <func_37+0x91b>
    e4ab:	e8 c0 ab ff ff       	callq  9070 <__stack_chk_fail@plt>
    e4b0:	48 81 c4 88 01 00 00 	add    $0x188,%rsp
    e4b7:	5b                   	pop    %rbx
    e4b8:	41 5c                	pop    %r12
    e4ba:	41 5d                	pop    %r13
    e4bc:	41 5e                	pop    %r14
    e4be:	41 5f                	pop    %r15
    e4c0:	5d                   	pop    %rbp
    e4c1:	c3                   	retq   

000000000000e4c2 <func_42>:
    e4c2:	f3 0f 1e fa          	endbr64 
    e4c6:	55                   	push   %rbp
    e4c7:	48 89 e5             	mov    %rsp,%rbp
    e4ca:	41 57                	push   %r15
    e4cc:	41 56                	push   %r14
    e4ce:	41 55                	push   %r13
    e4d0:	41 54                	push   %r12
    e4d2:	53                   	push   %rbx
    e4d3:	48 81 ec 08 0c 00 00 	sub    $0xc08,%rsp
    e4da:	89 f8                	mov    %edi,%eax
    e4dc:	48 89 b5 d0 f3 ff ff 	mov    %rsi,-0xc30(%rbp)
    e4e3:	88 85 dc f3 ff ff    	mov    %al,-0xc24(%rbp)
    e4e9:	64 48 8b 04 25 28 00 	mov    %fs:0x28,%rax
    e4f0:	00 00 
    e4f2:	48 89 45 c8          	mov    %rax,-0x38(%rbp)
    e4f6:	31 c0                	xor    %eax,%eax
    e4f8:	48 8d 05 45 92 00 00 	lea    0x9245(%rip),%rax        # 17744 <g_122+0x4>
    e4ff:	48 89 85 38 f4 ff ff 	mov    %rax,-0xbc8(%rbp)
    e506:	c7 85 ec f3 ff ff f6 	movl   $0xfffffff6,-0xc14(%rbp)
    e50d:	ff ff ff 
    e510:	48 c7 85 40 f4 ff ff 	movq   $0x0,-0xbc0(%rbp)
    e517:	00 00 00 00 
    e51b:	c7 85 f0 f3 ff ff 94 	movl   $0xd985ec94,-0xc10(%rbp)
    e522:	ec 85 d9 
    e525:	48 8d 05 7d 94 00 00 	lea    0x947d(%rip),%rax        # 179a9 <g_1052>
    e52c:	48 89 85 48 f4 ff ff 	mov    %rax,-0xbb8(%rbp)
    e533:	48 8d 05 86 91 00 00 	lea    0x9186(%rip),%rax        # 176c0 <g_111>
    e53a:	48 89 85 50 f4 ff ff 	mov    %rax,-0xbb0(%rbp)
    e541:	48 8d 05 50 c1 00 00 	lea    0xc150(%rip),%rax        # 1a698 <g_694>
    e548:	48 89 85 58 f4 ff ff 	mov    %rax,-0xba8(%rbp)
    e54f:	48 c7 05 1e 94 00 00 	movq   $0xfffffffffffffffd,0x941e(%rip)        # 17978 <g_680>
    e556:	fd ff ff ff 
    e55a:	e9 de 00 00 00       	jmpq   e63d <func_42+0x17b>
    e55f:	48 c7 85 b8 f4 ff ff 	movq   $0x0,-0xb48(%rbp)
    e566:	00 00 00 00 
    e56a:	48 c7 85 c0 f4 ff ff 	movq   $0x0,-0xb40(%rbp)
    e571:	00 00 00 00 
    e575:	48 8d 85 00 f9 ff ff 	lea    -0x700(%rbp),%rax
    e57c:	48 8d 15 3d a3 00 00 	lea    0xa33d(%rip),%rdx        # 188c0 <g_1455+0xf10>
    e583:	b9 d8 00 00 00       	mov    $0xd8,%ecx
    e588:	48 89 c7             	mov    %rax,%rdi
    e58b:	48 89 d6             	mov    %rdx,%rsi
    e58e:	f3 48 a5             	rep movsq %ds:(%rsi),%es:(%rdi)
    e591:	48 8d 05 30 91 00 00 	lea    0x9130(%rip),%rax        # 176c8 <g_118>
    e598:	48 89 85 c8 f4 ff ff 	mov    %rax,-0xb38(%rbp)
    e59f:	48 c7 85 d0 f4 ff ff 	movq   $0x0,-0xb30(%rbp)
    e5a6:	00 00 00 00 
    e5aa:	c7 85 e8 f3 ff ff 00 	movl   $0x0,-0xc18(%rbp)
    e5b1:	00 00 00 
    e5b4:	eb 1b                	jmp    e5d1 <func_42+0x10f>
    e5b6:	8b 85 e8 f3 ff ff    	mov    -0xc18(%rbp),%eax
    e5bc:	48 98                	cltq   
    e5be:	48 c7 84 c5 20 f7 ff 	movq   $0x0,-0x8e0(%rbp,%rax,8)
    e5c5:	ff 00 00 00 00 
    e5ca:	83 85 e8 f3 ff ff 01 	addl   $0x1,-0xc18(%rbp)
    e5d1:	83 bd e8 f3 ff ff 01 	cmpl   $0x1,-0xc18(%rbp)
    e5d8:	7e dc                	jle    e5b6 <func_42+0xf4>
    e5da:	0f b7 05 5b 8a 00 00 	movzwl 0x8a5b(%rip),%eax        # 1703c <g_20>
    e5e1:	0f b7 c0             	movzwl %ax,%eax
    e5e4:	48 8b 95 d0 f3 ff ff 	mov    -0xc30(%rbp),%rdx
    e5eb:	48 89 95 d0 f4 ff ff 	mov    %rdx,-0xb30(%rbp)
    e5f2:	89 c6                	mov    %eax,%esi
    e5f4:	bf 00 00 00 00       	mov    $0x0,%edi
    e5f9:	e8 3f b7 ff ff       	callq  9d3d <safe_mul_func_uint16_t_u_u>
    e5fe:	98                   	cwtl   
    e5ff:	be 03 00 00 00       	mov    $0x3,%esi
    e604:	89 c7                	mov    %eax,%edi
    e606:	e8 1f af ff ff       	callq  952a <safe_rshift_func_int16_t_s_s>
    e60b:	0f bf d0             	movswl %ax,%edx
    e60e:	48 8b 85 38 f4 ff ff 	mov    -0xbc8(%rbp),%rax
    e615:	89 10                	mov    %edx,(%rax)
    e617:	48 8b 15 42 c0 00 00 	mov    0xc042(%rip),%rdx        # 1a660 <g_295>
    e61e:	48 8b 05 3b c0 00 00 	mov    0xc03b(%rip),%rax        # 1a660 <g_295>
    e625:	48 8b 12             	mov    (%rdx),%rdx
    e628:	48 89 10             	mov    %rdx,(%rax)
    e62b:	48 8b 05 46 93 00 00 	mov    0x9346(%rip),%rax        # 17978 <g_680>
    e632:	48 83 e8 01          	sub    $0x1,%rax
    e636:	48 89 05 3b 93 00 00 	mov    %rax,0x933b(%rip)        # 17978 <g_680>
    e63d:	48 8b 05 34 93 00 00 	mov    0x9334(%rip),%rax        # 17978 <g_680>
    e644:	48 83 f8 ed          	cmp    $0xffffffffffffffed,%rax
    e648:	0f 8d 11 ff ff ff    	jge    e55f <func_42+0x9d>
    e64e:	48 c7 05 67 90 00 00 	movq   $0x0,0x9067(%rip)        # 176c0 <g_111>
    e655:	00 00 00 00 
    e659:	e9 49 10 00 00       	jmpq   f6a7 <func_42+0x11e5>
    e65e:	48 8d 05 fb 92 00 00 	lea    0x92fb(%rip),%rax        # 17960 <g_264>
    e665:	48 89 85 70 f4 ff ff 	mov    %rax,-0xb90(%rbp)
    e66c:	48 c7 85 10 f5 ff ff 	movq   $0x0,-0xaf0(%rbp)
    e673:	00 00 00 00 
    e677:	48 c7 85 18 f5 ff ff 	movq   $0x0,-0xae8(%rbp)
    e67e:	00 00 00 00 
    e682:	48 8d 05 1f 93 00 00 	lea    0x931f(%rip),%rax        # 179a8 <g_1014>
    e689:	48 89 85 20 f5 ff ff 	mov    %rax,-0xae0(%rbp)
    e690:	48 c7 85 28 f5 ff ff 	movq   $0x0,-0xad8(%rbp)
    e697:	00 00 00 00 
    e69b:	48 c7 85 30 f5 ff ff 	movq   $0x0,-0xad0(%rbp)
    e6a2:	00 00 00 00 
    e6a6:	48 8d 05 fb 92 00 00 	lea    0x92fb(%rip),%rax        # 179a8 <g_1014>
    e6ad:	48 89 85 38 f5 ff ff 	mov    %rax,-0xac8(%rbp)
    e6b4:	48 c7 85 40 f5 ff ff 	movq   $0x0,-0xac0(%rbp)
    e6bb:	00 00 00 00 
    e6bf:	48 8d 85 20 f7 ff ff 	lea    -0x8e0(%rbp),%rax
    e6c6:	48 8d 15 b3 a8 00 00 	lea    0xa8b3(%rip),%rdx        # 18f80 <g_1455+0x15d0>
    e6cd:	b9 3c 00 00 00       	mov    $0x3c,%ecx
    e6d2:	48 89 c7             	mov    %rax,%rdi
    e6d5:	48 89 d6             	mov    %rdx,%rsi
    e6d8:	f3 48 a5             	rep movsq %ds:(%rsi),%es:(%rdi)
    e6db:	48 c7 85 10 f4 ff ff 	movq   $0x0,-0xbf0(%rbp)
    e6e2:	00 00 00 00 
    e6e6:	48 8d 85 10 f4 ff ff 	lea    -0xbf0(%rbp),%rax
    e6ed:	48 89 85 18 f4 ff ff 	mov    %rax,-0xbe8(%rbp)
    e6f4:	c6 85 e0 f3 ff ff 94 	movb   $0x94,-0xc20(%rbp)
    e6fb:	c7 85 f4 f3 ff ff 00 	movl   $0x0,-0xc0c(%rbp)
    e702:	00 00 00 
    e705:	eb 1b                	jmp    e722 <func_42+0x260>
    e707:	8b 85 f4 f3 ff ff    	mov    -0xc0c(%rbp),%eax
    e70d:	48 98                	cltq   
    e70f:	48 c7 84 c5 e0 f4 ff 	movq   $0x0,-0xb20(%rbp,%rax,8)
    e716:	ff 00 00 00 00 
    e71b:	83 85 f4 f3 ff ff 01 	addl   $0x1,-0xc0c(%rbp)
    e722:	83 bd f4 f3 ff ff 01 	cmpl   $0x1,-0xc0c(%rbp)
    e729:	7e dc                	jle    e707 <func_42+0x245>
    e72b:	c7 85 f4 f3 ff ff 00 	movl   $0x0,-0xc0c(%rbp)
    e732:	00 00 00 
    e735:	eb 7c                	jmp    e7b3 <func_42+0x2f1>
    e737:	c7 85 f8 f3 ff ff 00 	movl   $0x0,-0xc08(%rbp)
    e73e:	00 00 00 
    e741:	eb 60                	jmp    e7a3 <func_42+0x2e1>
    e743:	c7 85 fc f3 ff ff 00 	movl   $0x0,-0xc04(%rbp)
    e74a:	00 00 00 
    e74d:	eb 44                	jmp    e793 <func_42+0x2d1>
    e74f:	8b 85 fc f3 ff ff    	mov    -0xc04(%rbp),%eax
    e755:	48 63 f0             	movslq %eax,%rsi
    e758:	8b 85 f8 f3 ff ff    	mov    -0xc08(%rbp),%eax
    e75e:	48 63 c8             	movslq %eax,%rcx
    e761:	8b 85 f4 f3 ff ff    	mov    -0xc0c(%rbp),%eax
    e767:	48 63 d0             	movslq %eax,%rdx
    e76a:	48 89 d0             	mov    %rdx,%rax
    e76d:	48 01 c0             	add    %rax,%rax
    e770:	48 01 d0             	add    %rdx,%rax
    e773:	48 01 c0             	add    %rax,%rax
    e776:	48 01 f0             	add    %rsi,%rax
    e779:	48 8d 14 08          	lea    (%rax,%rcx,1),%rdx
    e77d:	48 8d 85 18 f4 ff ff 	lea    -0xbe8(%rbp),%rax
    e784:	48 89 84 d5 d0 f5 ff 	mov    %rax,-0xa30(%rbp,%rdx,8)
    e78b:	ff 
    e78c:	83 85 fc f3 ff ff 01 	addl   $0x1,-0xc04(%rbp)
    e793:	83 bd fc f3 ff ff 00 	cmpl   $0x0,-0xc04(%rbp)
    e79a:	7e b3                	jle    e74f <func_42+0x28d>
    e79c:	83 85 f8 f3 ff ff 01 	addl   $0x1,-0xc08(%rbp)
    e7a3:	83 bd f8 f3 ff ff 05 	cmpl   $0x5,-0xc08(%rbp)
    e7aa:	7e 97                	jle    e743 <func_42+0x281>
    e7ac:	83 85 f4 f3 ff ff 01 	addl   $0x1,-0xc0c(%rbp)
    e7b3:	83 bd f4 f3 ff ff 06 	cmpl   $0x6,-0xc0c(%rbp)
    e7ba:	0f 8e 77 ff ff ff    	jle    e737 <func_42+0x275>
    e7c0:	48 8b 05 f9 8e 00 00 	mov    0x8ef9(%rip),%rax        # 176c0 <g_111>
    e7c7:	48 8d 14 85 00 00 00 	lea    0x0(,%rax,4),%rdx
    e7ce:	00 
    e7cf:	48 8d 05 7a c3 00 00 	lea    0xc37a(%rip),%rax        # 1ab50 <g_81>
    e7d6:	8b 04 02             	mov    (%rdx,%rax,1),%eax
    e7d9:	85 c0                	test   %eax,%eax
    e7db:	0f 84 5e 0e 00 00    	je     f63f <func_42+0x117d>
    e7e1:	0f b6 05 5a 88 00 00 	movzbl 0x885a(%rip),%eax        # 17042 <g_32>
    e7e8:	66 0f be d0          	movsbw %al,%dx
    e7ec:	48 8b 85 38 f4 ff ff 	mov    -0xbc8(%rbp),%rax
    e7f3:	8b 00                	mov    (%rax),%eax
    e7f5:	09 d0                	or     %edx,%eax
    e7f7:	98                   	cwtl   
    e7f8:	be 0c 00 00 00       	mov    $0xc,%esi
    e7fd:	89 c7                	mov    %eax,%edi
    e7ff:	e8 5f ad ff ff       	callq  9563 <safe_rshift_func_int16_t_s_u>
    e804:	44 0f bf e0          	movswl %ax,%r12d
    e808:	8b 1d 06 8f 00 00    	mov    0x8f06(%rip),%ebx        # 17714 <g_120+0x34>
    e80e:	48 8b 05 ab 8e 00 00 	mov    0x8eab(%rip),%rax        # 176c0 <g_111>
    e815:	48 8d 14 85 00 00 00 	lea    0x0(,%rax,4),%rdx
    e81c:	00 
    e81d:	48 8d 05 2c c3 00 00 	lea    0xc32c(%rip),%rax        # 1ab50 <g_81>
    e824:	8b 04 02             	mov    (%rdx,%rax,1),%eax
    e827:	89 c2                	mov    %eax,%edx
    e829:	48 8b 85 70 f4 ff ff 	mov    -0xb90(%rbp),%rax
    e830:	48 89 10             	mov    %rdx,(%rax)
    e833:	48 8b 85 70 f4 ff ff 	mov    -0xb90(%rbp),%rax
    e83a:	48 8b 10             	mov    (%rax),%rdx
    e83d:	48 8b 85 e8 f4 ff ff 	mov    -0xb18(%rbp),%rax
    e844:	48 85 c0             	test   %rax,%rax
    e847:	0f 94 c0             	sete   %al
    e84a:	0f b6 c0             	movzbl %al,%eax
    e84d:	48 39 c2             	cmp    %rax,%rdx
    e850:	0f 9f c0             	setg   %al
    e853:	0f b6 c0             	movzbl %al,%eax
    e856:	be 0f 00 00 00       	mov    $0xf,%esi
    e85b:	89 c7                	mov    %eax,%edi
    e85d:	e8 e6 b5 ff ff       	callq  9e48 <safe_rshift_func_uint16_t_u_s>
    e862:	66 85 c0             	test   %ax,%ax
    e865:	74 07                	je     e86e <func_42+0x3ac>
    e867:	b8 01 00 00 00       	mov    $0x1,%eax
    e86c:	eb 05                	jmp    e873 <func_42+0x3b1>
    e86e:	b8 00 00 00 00       	mov    $0x0,%eax
    e873:	48 98                	cltq   
    e875:	be 03 00 00 00       	mov    $0x3,%esi
    e87a:	48 89 c7             	mov    %rax,%rdi
    e87d:	e8 ac b7 ff ff       	callq  a02e <safe_add_func_uint64_t_u_u>
    e882:	0f b6 85 dc f3 ff ff 	movzbl -0xc24(%rbp),%eax
    e889:	0f be c0             	movsbl %al,%eax
    e88c:	89 85 f0 f3 ff ff    	mov    %eax,-0xc10(%rbp)
    e892:	8b 85 f0 f3 ff ff    	mov    -0xc10(%rbp),%eax
    e898:	0f be c0             	movsbl %al,%eax
    e89b:	89 de                	mov    %ebx,%esi
    e89d:	89 c7                	mov    %eax,%edi
    e89f:	e8 91 aa ff ff       	callq  9335 <safe_rshift_func_int8_t_s_s>
    e8a4:	0f be d0             	movsbl %al,%edx
    e8a7:	8b 05 83 87 00 00    	mov    0x8783(%rip),%eax        # 17030 <g_6>
    e8ad:	39 c2                	cmp    %eax,%edx
    e8af:	0f 9c c0             	setl   %al
    e8b2:	0f b6 d0             	movzbl %al,%edx
    e8b5:	48 8b 85 38 f4 ff ff 	mov    -0xbc8(%rbp),%rax
    e8bc:	8b 00                	mov    (%rax),%eax
    e8be:	31 c2                	xor    %eax,%edx
    e8c0:	48 8b 05 91 bd 00 00 	mov    0xbd91(%rip),%rax        # 1a658 <g_296>
    e8c7:	8b 00                	mov    (%rax),%eax
    e8c9:	21 c2                	and    %eax,%edx
    e8cb:	48 8b 05 c6 bd 00 00 	mov    0xbdc6(%rip),%rax        # 1a698 <g_694>
    e8d2:	48 8b 00             	mov    (%rax),%rax
    e8d5:	48 8b 00             	mov    (%rax),%rax
    e8d8:	48 8b 00             	mov    (%rax),%rax
    e8db:	8b 00                	mov    (%rax),%eax
    e8dd:	39 c2                	cmp    %eax,%edx
    e8df:	0f 95 c0             	setne  %al
    e8e2:	0f b6 c0             	movzbl %al,%eax
    e8e5:	41 39 c4             	cmp    %eax,%r12d
    e8e8:	0f 9c c0             	setl   %al
    e8eb:	0f b6 d8             	movzbl %al,%ebx
    e8ee:	8b 05 b0 90 00 00    	mov    0x90b0(%rip),%eax        # 179a4 <g_917+0x14>
    e8f4:	0f be c0             	movsbl %al,%eax
    e8f7:	be 01 00 00 00       	mov    $0x1,%esi
    e8fc:	89 c7                	mov    %eax,%edi
    e8fe:	e8 9e a9 ff ff       	callq  92a1 <safe_lshift_func_int8_t_s_s>
    e903:	0f be c0             	movsbl %al,%eax
    e906:	89 de                	mov    %ebx,%esi
    e908:	89 c7                	mov    %eax,%edi
    e90a:	e8 c5 a8 ff ff       	callq  91d4 <safe_add_func_int8_t_s_s>
    e90f:	0f b6 95 dc f3 ff ff 	movzbl -0xc24(%rbp),%edx
    e916:	38 d0                	cmp    %dl,%al
    e918:	0f 9f c0             	setg   %al
    e91b:	0f b6 c0             	movzbl %al,%eax
    e91e:	be 06 00 00 00       	mov    $0x6,%esi
    e923:	89 c7                	mov    %eax,%edi
    e925:	e8 1e b5 ff ff       	callq  9e48 <safe_rshift_func_uint16_t_u_s>
    e92a:	0f be c0             	movsbl %al,%eax
    e92d:	be 04 00 00 00       	mov    $0x4,%esi
    e932:	89 c7                	mov    %eax,%edi
    e934:	e8 b5 a9 ff ff       	callq  92ee <safe_lshift_func_int8_t_s_u>
    e939:	84 c0                	test   %al,%al
    e93b:	0f 84 fe 0c 00 00    	je     f63f <func_42+0x117d>
    e941:	48 8d 05 ec 86 00 00 	lea    0x86ec(%rip),%rax        # 17034 <g_7>
    e948:	48 89 85 78 f4 ff ff 	mov    %rax,-0xb88(%rbp)
    e94f:	c7 85 50 f5 ff ff 5c 	movl   $0x883fce5c,-0xab0(%rbp)
    e956:	ce 3f 88 
    e959:	c7 85 54 f5 ff ff 5c 	movl   $0x883fce5c,-0xaac(%rbp)
    e960:	ce 3f 88 
    e963:	c7 85 58 f5 ff ff 5c 	movl   $0x883fce5c,-0xaa8(%rbp)
    e96a:	ce 3f 88 
    e96d:	c7 85 5c f5 ff ff 5c 	movl   $0x883fce5c,-0xaa4(%rbp)
    e974:	ce 3f 88 
    e977:	c7 85 60 f5 ff ff 5c 	movl   $0x883fce5c,-0xaa0(%rbp)
    e97e:	ce 3f 88 
    e981:	c7 85 64 f5 ff ff 5c 	movl   $0x883fce5c,-0xa9c(%rbp)
    e988:	ce 3f 88 
    e98b:	c7 85 68 f5 ff ff 5c 	movl   $0x883fce5c,-0xa98(%rbp)
    e992:	ce 3f 88 
    e995:	c7 85 6c f5 ff ff 5c 	movl   $0x883fce5c,-0xa94(%rbp)
    e99c:	ce 3f 88 
    e99f:	c7 85 70 f5 ff ff 5c 	movl   $0x883fce5c,-0xa90(%rbp)
    e9a6:	ce 3f 88 
    e9a9:	c7 85 74 f5 ff ff 5c 	movl   $0x883fce5c,-0xa8c(%rbp)
    e9b0:	ce 3f 88 
    e9b3:	c7 85 78 f5 ff ff 5c 	movl   $0x883fce5c,-0xa88(%rbp)
    e9ba:	ce 3f 88 
    e9bd:	c7 85 7c f5 ff ff 5c 	movl   $0x883fce5c,-0xa84(%rbp)
    e9c4:	ce 3f 88 
    e9c7:	c7 85 80 f5 ff ff 5c 	movl   $0x883fce5c,-0xa80(%rbp)
    e9ce:	ce 3f 88 
    e9d1:	c7 85 84 f5 ff ff 5c 	movl   $0x883fce5c,-0xa7c(%rbp)
    e9d8:	ce 3f 88 
    e9db:	c7 85 88 f5 ff ff 5c 	movl   $0x883fce5c,-0xa78(%rbp)
    e9e2:	ce 3f 88 
    e9e5:	c7 85 8c f5 ff ff 5c 	movl   $0x883fce5c,-0xa74(%rbp)
    e9ec:	ce 3f 88 
    e9ef:	c7 85 90 f5 ff ff 5c 	movl   $0x883fce5c,-0xa70(%rbp)
    e9f6:	ce 3f 88 
    e9f9:	c7 85 94 f5 ff ff 5c 	movl   $0x883fce5c,-0xa6c(%rbp)
    ea00:	ce 3f 88 
    ea03:	c7 85 98 f5 ff ff 5c 	movl   $0x883fce5c,-0xa68(%rbp)
    ea0a:	ce 3f 88 
    ea0d:	c7 85 9c f5 ff ff 5c 	movl   $0x883fce5c,-0xa64(%rbp)
    ea14:	ce 3f 88 
    ea17:	c7 85 a0 f5 ff ff 5c 	movl   $0x883fce5c,-0xa60(%rbp)
    ea1e:	ce 3f 88 
    ea21:	c7 85 a4 f5 ff ff 5c 	movl   $0x883fce5c,-0xa5c(%rbp)
    ea28:	ce 3f 88 
    ea2b:	c7 85 a8 f5 ff ff 5c 	movl   $0x883fce5c,-0xa58(%rbp)
    ea32:	ce 3f 88 
    ea35:	c7 85 ac f5 ff ff 5c 	movl   $0x883fce5c,-0xa54(%rbp)
    ea3c:	ce 3f 88 
    ea3f:	c7 85 b0 f5 ff ff 5c 	movl   $0x883fce5c,-0xa50(%rbp)
    ea46:	ce 3f 88 
    ea49:	c7 85 b4 f5 ff ff 5c 	movl   $0x883fce5c,-0xa4c(%rbp)
    ea50:	ce 3f 88 
    ea53:	c7 85 b8 f5 ff ff 5c 	movl   $0x883fce5c,-0xa48(%rbp)
    ea5a:	ce 3f 88 
    ea5d:	c7 85 bc f5 ff ff 5c 	movl   $0x883fce5c,-0xa44(%rbp)
    ea64:	ce 3f 88 
    ea67:	c7 85 c0 f5 ff ff 5c 	movl   $0x883fce5c,-0xa40(%rbp)
    ea6e:	ce 3f 88 
    ea71:	c7 85 c4 f5 ff ff 5c 	movl   $0x883fce5c,-0xa3c(%rbp)
    ea78:	ce 3f 88 
    ea7b:	48 c7 85 20 f4 ff ff 	movq   $0x0,-0xbe0(%rbp)
    ea82:	00 00 00 00 
    ea86:	c6 85 e1 f3 ff ff ca 	movb   $0xca,-0xc1f(%rbp)
    ea8d:	48 c7 85 80 f4 ff ff 	movq   $0x0,-0xb80(%rbp)
    ea94:	00 00 00 00 
    ea98:	c7 85 ec f3 ff ff 03 	movl   $0x3,-0xc14(%rbp)
    ea9f:	00 00 00 
    eaa2:	eb 3a                	jmp    eade <func_42+0x61c>
    eaa4:	c7 85 f0 f3 ff ff 02 	movl   $0x2,-0xc10(%rbp)
    eaab:	00 00 00 
    eaae:	eb 1e                	jmp    eace <func_42+0x60c>
    eab0:	48 8b 05 e1 bb 00 00 	mov    0xbbe1(%rip),%rax        # 1a698 <g_694>
    eab7:	48 8b 00             	mov    (%rax),%rax
    eaba:	48 8b 00             	mov    (%rax),%rax
    eabd:	48 8b 95 78 f4 ff ff 	mov    -0xb88(%rbp),%rdx
    eac4:	48 89 10             	mov    %rdx,(%rax)
    eac7:	83 85 f0 f3 ff ff 01 	addl   $0x1,-0xc10(%rbp)
    eace:	83 bd f0 f3 ff ff 06 	cmpl   $0x6,-0xc10(%rbp)
    ead5:	76 d9                	jbe    eab0 <func_42+0x5ee>
    ead7:	83 ad ec f3 ff ff 01 	subl   $0x1,-0xc14(%rbp)
    eade:	83 bd ec f3 ff ff 00 	cmpl   $0x0,-0xc14(%rbp)
    eae5:	79 bd                	jns    eaa4 <func_42+0x5e2>
    eae7:	48 c7 05 86 8e 00 00 	movq   $0x0,0x8e86(%rip)        # 17978 <g_680>
    eaee:	00 00 00 00 
    eaf2:	e9 35 0b 00 00       	jmpq   f62c <func_42+0x116a>
    eaf7:	66 c7 85 e2 f3 ff ff 	movw   $0xffff,-0xc1e(%rbp)
    eafe:	ff ff 
    eb00:	48 8d 05 59 bb 00 00 	lea    0xbb59(%rip),%rax        # 1a660 <g_295>
    eb07:	48 89 85 28 f4 ff ff 	mov    %rax,-0xbd8(%rbp)
    eb0e:	48 8d 85 28 f4 ff ff 	lea    -0xbd8(%rbp),%rax
    eb15:	48 89 85 30 f4 ff ff 	mov    %rax,-0xbd0(%rbp)
    eb1c:	48 8d 85 30 f4 ff ff 	lea    -0xbd0(%rbp),%rax
    eb23:	48 89 85 88 f4 ff ff 	mov    %rax,-0xb78(%rbp)
    eb2a:	48 8d 05 4f 8e 00 00 	lea    0x8e4f(%rip),%rax        # 17980 <g_706>
    eb31:	48 89 85 f0 f4 ff ff 	mov    %rax,-0xb10(%rbp)
    eb38:	48 8d 05 41 8e 00 00 	lea    0x8e41(%rip),%rax        # 17980 <g_706>
    eb3f:	48 89 85 f8 f4 ff ff 	mov    %rax,-0xb08(%rbp)
    eb46:	48 8d 05 33 8e 00 00 	lea    0x8e33(%rip),%rax        # 17980 <g_706>
    eb4d:	48 89 85 00 f5 ff ff 	mov    %rax,-0xb00(%rbp)
    eb54:	48 8d 05 25 8e 00 00 	lea    0x8e25(%rip),%rax        # 17980 <g_706>
    eb5b:	48 89 85 08 f5 ff ff 	mov    %rax,-0xaf8(%rbp)
    eb62:	c7 85 04 f4 ff ff fd 	movl   $0xfffffffd,-0xbfc(%rbp)
    eb69:	ff ff ff 
    eb6c:	48 c7 05 11 8e 00 00 	movq   $0x2,0x8e11(%rip)        # 17988 <g_730>
    eb73:	02 00 00 00 
    eb77:	e9 8d 0a 00 00       	jmpq   f609 <func_42+0x1147>
    eb7c:	c7 85 e4 f3 ff ff f6 	movl   $0xfffffff6,-0xc1c(%rbp)
    eb83:	ff ff ff 
    eb86:	c7 85 08 f4 ff ff 93 	movl   $0x944e7793,-0xbf8(%rbp)
    eb8d:	77 4e 94 
    eb90:	48 8b 05 e1 8d 00 00 	mov    0x8de1(%rip),%rax        # 17978 <g_680>
    eb97:	48 8d 14 85 00 00 00 	lea    0x0(,%rax,4),%rdx
    eb9e:	00 
    eb9f:	48 8d 05 aa bf 00 00 	lea    0xbfaa(%rip),%rax        # 1ab50 <g_81>
    eba6:	8b 04 02             	mov    (%rdx,%rax,1),%eax
    eba9:	89 c3                	mov    %eax,%ebx
    ebab:	be 06 00 00 00       	mov    $0x6,%esi
    ebb0:	bf 82 3b 00 00       	mov    $0x3b82,%edi
    ebb5:	e8 c0 b2 ff ff       	callq  9e7a <safe_rshift_func_uint16_t_u_u>
    ebba:	0f bf d0             	movswl %ax,%edx
    ebbd:	8b 85 e4 f3 ff ff    	mov    -0xc1c(%rbp),%eax
    ebc3:	98                   	cwtl   
    ebc4:	89 d6                	mov    %edx,%esi
    ebc6:	89 c7                	mov    %eax,%edi
    ebc8:	e8 88 a8 ff ff       	callq  9455 <safe_div_func_int16_t_s_s>
    ebcd:	0f bf d0             	movswl %ax,%edx
    ebd0:	48 8b 85 38 f4 ff ff 	mov    -0xbc8(%rbp),%rax
    ebd7:	8b 00                	mov    (%rax),%eax
    ebd9:	98                   	cwtl   
    ebda:	89 d6                	mov    %edx,%esi
    ebdc:	89 c7                	mov    %eax,%edi
    ebde:	e8 12 a8 ff ff       	callq  93f5 <safe_mul_func_int16_t_s_s>
    ebe3:	be 38 e8 ff ff       	mov    $0xffffe838,%esi
    ebe8:	bf 00 00 00 00       	mov    $0x0,%edi
    ebed:	e8 03 a8 ff ff       	callq  93f5 <safe_mul_func_int16_t_s_s>
    ebf2:	48 0f bf c0          	movswq %ax,%rax
    ebf6:	48 89 de             	mov    %rbx,%rsi
    ebf9:	48 89 c7             	mov    %rax,%rdi
    ebfc:	e8 b3 ad ff ff       	callq  99b4 <safe_mod_func_int64_t_s_s>
    ec01:	98                   	cwtl   
    ec02:	89 c6                	mov    %eax,%esi
    ec04:	bf ff ff ff ff       	mov    $0xffffffff,%edi
    ec09:	e8 47 a8 ff ff       	callq  9455 <safe_div_func_int16_t_s_s>
    ec0e:	48 8b 05 63 8d 00 00 	mov    0x8d63(%rip),%rax        # 17978 <g_680>
    ec15:	48 8d 14 85 00 00 00 	lea    0x0(,%rax,4),%rdx
    ec1c:	00 
    ec1d:	48 8d 05 2c bf 00 00 	lea    0xbf2c(%rip),%rax        # 1ab50 <g_81>
    ec24:	8b 04 02             	mov    (%rdx,%rax,1),%eax
    ec27:	83 f8 6f             	cmp    $0x6f,%eax
    ec2a:	0f 96 c0             	setbe  %al
    ec2d:	0f b6 c0             	movzbl %al,%eax
    ec30:	be 63 35 40 72       	mov    $0x72403563,%esi
    ec35:	89 c7                	mov    %eax,%edi
    ec37:	e8 c1 b2 ff ff       	callq  9efd <safe_mod_func_uint32_t_u_u>
    ec3c:	85 c0                	test   %eax,%eax
    ec3e:	0f 84 42 07 00 00    	je     f386 <func_42+0xec4>
    ec44:	48 8d 05 f5 83 00 00 	lea    0x83f5(%rip),%rax        # 17040 <g_20+0x4>
    ec4b:	48 89 85 a0 f4 ff ff 	mov    %rax,-0xb60(%rbp)
    ec52:	48 8d 05 17 8d 00 00 	lea    0x8d17(%rip),%rax        # 17970 <g_567>
    ec59:	48 89 85 a8 f4 ff ff 	mov    %rax,-0xb58(%rbp)
    ec60:	48 8d 05 19 8d 00 00 	lea    0x8d19(%rip),%rax        # 17980 <g_706>
    ec67:	48 89 85 00 f9 ff ff 	mov    %rax,-0x700(%rbp)
    ec6e:	48 8d 05 0b 8d 00 00 	lea    0x8d0b(%rip),%rax        # 17980 <g_706>
    ec75:	48 89 85 08 f9 ff ff 	mov    %rax,-0x6f8(%rbp)
    ec7c:	48 8d 05 dd be 00 00 	lea    0xbedd(%rip),%rax        # 1ab60 <g_334>
    ec83:	48 89 85 10 f9 ff ff 	mov    %rax,-0x6f0(%rbp)
    ec8a:	48 8d 05 cf be 00 00 	lea    0xbecf(%rip),%rax        # 1ab60 <g_334>
    ec91:	48 89 85 18 f9 ff ff 	mov    %rax,-0x6e8(%rbp)
    ec98:	48 8d 05 e1 8c 00 00 	lea    0x8ce1(%rip),%rax        # 17980 <g_706>
    ec9f:	48 89 85 20 f9 ff ff 	mov    %rax,-0x6e0(%rbp)
    eca6:	48 8d 05 d3 8c 00 00 	lea    0x8cd3(%rip),%rax        # 17980 <g_706>
    ecad:	48 89 85 28 f9 ff ff 	mov    %rax,-0x6d8(%rbp)
    ecb4:	48 8d 05 a5 be 00 00 	lea    0xbea5(%rip),%rax        # 1ab60 <g_334>
    ecbb:	48 89 85 30 f9 ff ff 	mov    %rax,-0x6d0(%rbp)
    ecc2:	48 8d 05 97 be 00 00 	lea    0xbe97(%rip),%rax        # 1ab60 <g_334>
    ecc9:	48 89 85 38 f9 ff ff 	mov    %rax,-0x6c8(%rbp)
    ecd0:	48 8d 05 a9 8c 00 00 	lea    0x8ca9(%rip),%rax        # 17980 <g_706>
    ecd7:	48 89 85 40 f9 ff ff 	mov    %rax,-0x6c0(%rbp)
    ecde:	48 8d 05 9b 8c 00 00 	lea    0x8c9b(%rip),%rax        # 17980 <g_706>
    ece5:	48 89 85 48 f9 ff ff 	mov    %rax,-0x6b8(%rbp)
    ecec:	48 8d 05 8d 8c 00 00 	lea    0x8c8d(%rip),%rax        # 17980 <g_706>
    ecf3:	48 89 85 50 f9 ff ff 	mov    %rax,-0x6b0(%rbp)
    ecfa:	48 c7 85 58 f9 ff ff 	movq   $0x0,-0x6a8(%rbp)
    ed01:	00 00 00 00 
    ed05:	48 8d 05 54 be 00 00 	lea    0xbe54(%rip),%rax        # 1ab60 <g_334>
    ed0c:	48 89 85 60 f9 ff ff 	mov    %rax,-0x6a0(%rbp)
    ed13:	48 c7 85 68 f9 ff ff 	movq   $0x0,-0x698(%rbp)
    ed1a:	00 00 00 00 
    ed1e:	48 8d 85 e4 f3 ff ff 	lea    -0xc1c(%rbp),%rax
    ed25:	48 89 85 70 f9 ff ff 	mov    %rax,-0x690(%rbp)
    ed2c:	48 8d 05 2d be 00 00 	lea    0xbe2d(%rip),%rax        # 1ab60 <g_334>
    ed33:	48 89 85 78 f9 ff ff 	mov    %rax,-0x688(%rbp)
    ed3a:	48 c7 85 80 f9 ff ff 	movq   $0x0,-0x680(%rbp)
    ed41:	00 00 00 00 
    ed45:	48 8d 05 14 be 00 00 	lea    0xbe14(%rip),%rax        # 1ab60 <g_334>
    ed4c:	48 89 85 88 f9 ff ff 	mov    %rax,-0x678(%rbp)
    ed53:	48 8d 05 26 8c 00 00 	lea    0x8c26(%rip),%rax        # 17980 <g_706>
    ed5a:	48 89 85 90 f9 ff ff 	mov    %rax,-0x670(%rbp)
    ed61:	48 8d 85 e4 f3 ff ff 	lea    -0xc1c(%rbp),%rax
    ed68:	48 89 85 98 f9 ff ff 	mov    %rax,-0x668(%rbp)
    ed6f:	48 8d 05 0a 8c 00 00 	lea    0x8c0a(%rip),%rax        # 17980 <g_706>
    ed76:	48 89 85 a0 f9 ff ff 	mov    %rax,-0x660(%rbp)
    ed7d:	48 8d 05 dc bd 00 00 	lea    0xbddc(%rip),%rax        # 1ab60 <g_334>
    ed84:	48 89 85 a8 f9 ff ff 	mov    %rax,-0x658(%rbp)
    ed8b:	48 c7 85 b0 f9 ff ff 	movq   $0x0,-0x650(%rbp)
    ed92:	00 00 00 00 
    ed96:	48 8d 05 e3 8b 00 00 	lea    0x8be3(%rip),%rax        # 17980 <g_706>
    ed9d:	48 89 85 b8 f9 ff ff 	mov    %rax,-0x648(%rbp)
    eda4:	48 8d 05 b5 bd 00 00 	lea    0xbdb5(%rip),%rax        # 1ab60 <g_334>
    edab:	48 89 85 c0 f9 ff ff 	mov    %rax,-0x640(%rbp)
    edb2:	48 8d 05 c7 8b 00 00 	lea    0x8bc7(%rip),%rax        # 17980 <g_706>
    edb9:	48 89 85 c8 f9 ff ff 	mov    %rax,-0x638(%rbp)
    edc0:	48 8d 05 b9 8b 00 00 	lea    0x8bb9(%rip),%rax        # 17980 <g_706>
    edc7:	48 89 85 d0 f9 ff ff 	mov    %rax,-0x630(%rbp)
    edce:	48 8d 05 ab 8b 00 00 	lea    0x8bab(%rip),%rax        # 17980 <g_706>
    edd5:	48 89 85 d8 f9 ff ff 	mov    %rax,-0x628(%rbp)
    eddc:	48 8d 05 9d 8b 00 00 	lea    0x8b9d(%rip),%rax        # 17980 <g_706>
    ede3:	48 89 85 e0 f9 ff ff 	mov    %rax,-0x620(%rbp)
    edea:	48 8d 05 6f bd 00 00 	lea    0xbd6f(%rip),%rax        # 1ab60 <g_334>
    edf1:	48 89 85 e8 f9 ff ff 	mov    %rax,-0x618(%rbp)
    edf8:	48 8d 05 61 bd 00 00 	lea    0xbd61(%rip),%rax        # 1ab60 <g_334>
    edff:	48 89 85 f0 f9 ff ff 	mov    %rax,-0x610(%rbp)
    ee06:	48 8d 05 73 8b 00 00 	lea    0x8b73(%rip),%rax        # 17980 <g_706>
    ee0d:	48 89 85 f8 f9 ff ff 	mov    %rax,-0x608(%rbp)
    ee14:	48 8d 05 65 8b 00 00 	lea    0x8b65(%rip),%rax        # 17980 <g_706>
    ee1b:	48 89 85 00 fa ff ff 	mov    %rax,-0x600(%rbp)
    ee22:	48 8d 05 37 bd 00 00 	lea    0xbd37(%rip),%rax        # 1ab60 <g_334>
    ee29:	48 89 85 08 fa ff ff 	mov    %rax,-0x5f8(%rbp)
    ee30:	48 8d 05 29 bd 00 00 	lea    0xbd29(%rip),%rax        # 1ab60 <g_334>
    ee37:	48 89 85 10 fa ff ff 	mov    %rax,-0x5f0(%rbp)
    ee3e:	48 8d 05 3b 8b 00 00 	lea    0x8b3b(%rip),%rax        # 17980 <g_706>
    ee45:	48 89 85 18 fa ff ff 	mov    %rax,-0x5e8(%rbp)
    ee4c:	48 8d 05 2d 8b 00 00 	lea    0x8b2d(%rip),%rax        # 17980 <g_706>
    ee53:	48 89 85 20 fa ff ff 	mov    %rax,-0x5e0(%rbp)
    ee5a:	48 8d 05 1f 8b 00 00 	lea    0x8b1f(%rip),%rax        # 17980 <g_706>
    ee61:	48 89 85 28 fa ff ff 	mov    %rax,-0x5d8(%rbp)
    ee68:	48 c7 85 30 fa ff ff 	movq   $0x0,-0x5d0(%rbp)
    ee6f:	00 00 00 00 
    ee73:	48 8d 05 e6 bc 00 00 	lea    0xbce6(%rip),%rax        # 1ab60 <g_334>
    ee7a:	48 89 85 38 fa ff ff 	mov    %rax,-0x5c8(%rbp)
    ee81:	48 c7 85 40 fa ff ff 	movq   $0x0,-0x5c0(%rbp)
    ee88:	00 00 00 00 
    ee8c:	48 8d 85 e4 f3 ff ff 	lea    -0xc1c(%rbp),%rax
    ee93:	48 89 85 48 fa ff ff 	mov    %rax,-0x5b8(%rbp)
    ee9a:	48 8d 05 bf bc 00 00 	lea    0xbcbf(%rip),%rax        # 1ab60 <g_334>
    eea1:	48 89 85 50 fa ff ff 	mov    %rax,-0x5b0(%rbp)
    eea8:	48 c7 85 58 fa ff ff 	movq   $0x0,-0x5a8(%rbp)
    eeaf:	00 00 00 00 
    eeb3:	48 8d 05 a6 bc 00 00 	lea    0xbca6(%rip),%rax        # 1ab60 <g_334>
    eeba:	48 89 85 60 fa ff ff 	mov    %rax,-0x5a0(%rbp)
    eec1:	48 8d 05 b8 8a 00 00 	lea    0x8ab8(%rip),%rax        # 17980 <g_706>
    eec8:	48 89 85 68 fa ff ff 	mov    %rax,-0x598(%rbp)
    eecf:	48 8d 85 e4 f3 ff ff 	lea    -0xc1c(%rbp),%rax
    eed6:	48 89 85 70 fa ff ff 	mov    %rax,-0x590(%rbp)
    eedd:	48 8d 05 9c 8a 00 00 	lea    0x8a9c(%rip),%rax        # 17980 <g_706>
    eee4:	48 89 85 78 fa ff ff 	mov    %rax,-0x588(%rbp)
    eeeb:	48 8d 05 6e bc 00 00 	lea    0xbc6e(%rip),%rax        # 1ab60 <g_334>
    eef2:	48 89 85 80 fa ff ff 	mov    %rax,-0x580(%rbp)
    eef9:	48 c7 85 88 fa ff ff 	movq   $0x0,-0x578(%rbp)
    ef00:	00 00 00 00 
    ef04:	48 8d 05 75 8a 00 00 	lea    0x8a75(%rip),%rax        # 17980 <g_706>
    ef0b:	48 89 85 90 fa ff ff 	mov    %rax,-0x570(%rbp)
    ef12:	48 8d 05 47 bc 00 00 	lea    0xbc47(%rip),%rax        # 1ab60 <g_334>
    ef19:	48 89 85 98 fa ff ff 	mov    %rax,-0x568(%rbp)
    ef20:	48 8d 05 59 8a 00 00 	lea    0x8a59(%rip),%rax        # 17980 <g_706>
    ef27:	48 89 85 a0 fa ff ff 	mov    %rax,-0x560(%rbp)
    ef2e:	48 8d 05 4b 8a 00 00 	lea    0x8a4b(%rip),%rax        # 17980 <g_706>
    ef35:	48 89 85 a8 fa ff ff 	mov    %rax,-0x558(%rbp)
    ef3c:	48 8d 05 3d 8a 00 00 	lea    0x8a3d(%rip),%rax        # 17980 <g_706>
    ef43:	48 89 85 b0 fa ff ff 	mov    %rax,-0x550(%rbp)
    ef4a:	48 8d 05 2f 8a 00 00 	lea    0x8a2f(%rip),%rax        # 17980 <g_706>
    ef51:	48 89 85 b8 fa ff ff 	mov    %rax,-0x548(%rbp)
    ef58:	48 8d 05 01 bc 00 00 	lea    0xbc01(%rip),%rax        # 1ab60 <g_334>
    ef5f:	48 89 85 c0 fa ff ff 	mov    %rax,-0x540(%rbp)
    ef66:	48 8d 05 f3 bb 00 00 	lea    0xbbf3(%rip),%rax        # 1ab60 <g_334>
    ef6d:	48 89 85 c8 fa ff ff 	mov    %rax,-0x538(%rbp)
    ef74:	48 8d 05 05 8a 00 00 	lea    0x8a05(%rip),%rax        # 17980 <g_706>
    ef7b:	48 89 85 d0 fa ff ff 	mov    %rax,-0x530(%rbp)
    ef82:	48 8d 05 f7 89 00 00 	lea    0x89f7(%rip),%rax        # 17980 <g_706>
    ef89:	48 89 85 d8 fa ff ff 	mov    %rax,-0x528(%rbp)
    ef90:	48 8d 05 c9 bb 00 00 	lea    0xbbc9(%rip),%rax        # 1ab60 <g_334>
    ef97:	48 89 85 e0 fa ff ff 	mov    %rax,-0x520(%rbp)
    ef9e:	48 8d 05 bb bb 00 00 	lea    0xbbbb(%rip),%rax        # 1ab60 <g_334>
    efa5:	48 89 85 e8 fa ff ff 	mov    %rax,-0x518(%rbp)
    efac:	48 8d 05 cd 89 00 00 	lea    0x89cd(%rip),%rax        # 17980 <g_706>
    efb3:	48 89 85 f0 fa ff ff 	mov    %rax,-0x510(%rbp)
    efba:	48 8d 05 bf 89 00 00 	lea    0x89bf(%rip),%rax        # 17980 <g_706>
    efc1:	48 89 85 f8 fa ff ff 	mov    %rax,-0x508(%rbp)
    efc8:	48 8d 05 b1 89 00 00 	lea    0x89b1(%rip),%rax        # 17980 <g_706>
    efcf:	48 89 85 00 fb ff ff 	mov    %rax,-0x500(%rbp)
    efd6:	48 c7 85 08 fb ff ff 	movq   $0x0,-0x4f8(%rbp)
    efdd:	00 00 00 00 
    efe1:	48 8d 05 78 bb 00 00 	lea    0xbb78(%rip),%rax        # 1ab60 <g_334>
    efe8:	48 89 85 10 fb ff ff 	mov    %rax,-0x4f0(%rbp)
    efef:	48 c7 85 18 fb ff ff 	movq   $0x0,-0x4e8(%rbp)
    eff6:	00 00 00 00 
    effa:	48 8d 85 e4 f3 ff ff 	lea    -0xc1c(%rbp),%rax
    f001:	48 89 85 20 fb ff ff 	mov    %rax,-0x4e0(%rbp)
    f008:	48 8d 05 51 bb 00 00 	lea    0xbb51(%rip),%rax        # 1ab60 <g_334>
    f00f:	48 89 85 28 fb ff ff 	mov    %rax,-0x4d8(%rbp)
    f016:	48 c7 85 30 fb ff ff 	movq   $0x0,-0x4d0(%rbp)
    f01d:	00 00 00 00 
    f021:	48 8d 05 38 bb 00 00 	lea    0xbb38(%rip),%rax        # 1ab60 <g_334>
    f028:	48 89 85 38 fb ff ff 	mov    %rax,-0x4c8(%rbp)
    f02f:	c7 85 0c f4 ff ff 1d 	movl   $0x3ce38e1d,-0xbf4(%rbp)
    f036:	8e e3 3c 
    f039:	48 8b 05 48 b6 00 00 	mov    0xb648(%rip),%rax        # 1a688 <g_696>
    f040:	48 8b 95 d0 f3 ff ff 	mov    -0xc30(%rbp),%rdx
    f047:	48 89 10             	mov    %rdx,(%rax)
    f04a:	8b 05 20 87 00 00    	mov    0x8720(%rip),%eax        # 17770 <g_231>
    f050:	48 63 d8             	movslq %eax,%rbx
    f053:	48 8b 05 66 86 00 00 	mov    0x8666(%rip),%rax        # 176c0 <g_111>
    f05a:	48 8d 14 85 00 00 00 	lea    0x0(,%rax,4),%rdx
    f061:	00 
    f062:	48 8d 0d e7 ba 00 00 	lea    0xbae7(%rip),%rcx        # 1ab50 <g_81>
    f069:	8b 14 0a             	mov    (%rdx,%rcx,1),%edx
    f06c:	8d 4a 01             	lea    0x1(%rdx),%ecx
    f06f:	48 8d 14 85 00 00 00 	lea    0x0(,%rax,4),%rdx
    f076:	00 
    f077:	48 8d 05 d2 ba 00 00 	lea    0xbad2(%rip),%rax        # 1ab50 <g_81>
    f07e:	89 0c 02             	mov    %ecx,(%rdx,%rax,1)
    f081:	0f b6 85 dc f3 ff ff 	movzbl -0xc24(%rbp),%eax
    f088:	44 0f be e8          	movsbl %al,%r13d
    f08c:	48 8b 85 78 f4 ff ff 	mov    -0xb88(%rbp),%rax
    f093:	8b 00                	mov    (%rax),%eax
    f095:	85 c0                	test   %eax,%eax
    f097:	75 0a                	jne    f0a3 <func_42+0xbe1>
    f099:	66 83 bd e2 f3 ff ff 	cmpw   $0x0,-0xc1e(%rbp)
    f0a0:	00 
    f0a1:	74 08                	je     f0ab <func_42+0xbe9>
    f0a3:	41 be 01 00 00 00    	mov    $0x1,%r14d
    f0a9:	eb 06                	jmp    f0b1 <func_42+0xbef>
    f0ab:	41 be 00 00 00 00    	mov    $0x0,%r14d
    f0b1:	0f b7 85 e2 f3 ff ff 	movzwl -0xc1e(%rbp),%eax
    f0b8:	44 0f bf e0          	movswl %ax,%r12d
    f0bc:	0f b6 05 e5 88 00 00 	movzbl 0x88e5(%rip),%eax        # 179a8 <g_1014>
    f0c3:	48 0f be c0          	movsbq %al,%rax
    f0c7:	48 8b 95 c8 f8 ff ff 	mov    -0x738(%rbp),%rdx
    f0ce:	48 8d 0d 67 7f 00 00 	lea    0x7f67(%rip),%rcx        # 1703c <g_20>
    f0d5:	48 39 ca             	cmp    %rcx,%rdx
    f0d8:	0f 94 c2             	sete   %dl
    f0db:	0f b6 d2             	movzbl %dl,%edx
    f0de:	31 95 08 f4 ff ff    	xor    %edx,-0xbf8(%rbp)
    f0e4:	48 8b 15 d5 85 00 00 	mov    0x85d5(%rip),%rdx        # 176c0 <g_111>
    f0eb:	48 8d 0c 95 00 00 00 	lea    0x0(,%rdx,4),%rcx
    f0f2:	00 
    f0f3:	48 8d 15 56 ba 00 00 	lea    0xba56(%rip),%rdx        # 1ab50 <g_81>
    f0fa:	8b 14 11             	mov    (%rcx,%rdx,1),%edx
    f0fd:	89 d2                	mov    %edx,%edx
    f0ff:	48 89 c6             	mov    %rax,%rsi
    f102:	48 89 d7             	mov    %rdx,%rdi
    f105:	e8 76 af ff ff       	callq  a080 <safe_mod_func_uint64_t_u_u>
    f10a:	48 8b 95 a0 f4 ff ff 	mov    -0xb60(%rbp),%rdx
    f111:	0f b7 12             	movzwl (%rdx),%edx
    f114:	31 c2                	xor    %eax,%edx
    f116:	48 8b 85 a0 f4 ff ff 	mov    -0xb60(%rbp),%rax
    f11d:	66 89 10             	mov    %dx,(%rax)
    f120:	48 8b 85 a0 f4 ff ff 	mov    -0xb60(%rbp),%rax
    f127:	0f b7 00             	movzwl (%rax),%eax
    f12a:	0f b7 d0             	movzwl %ax,%edx
    f12d:	0f b6 05 75 88 00 00 	movzbl 0x8875(%rip),%eax        # 179a9 <g_1052>
    f134:	0f be c0             	movsbl %al,%eax
    f137:	39 c2                	cmp    %eax,%edx
    f139:	0f 9e c0             	setle  %al
    f13c:	0f b6 d0             	movzbl %al,%edx
    f13f:	0f b6 85 dc f3 ff ff 	movzbl -0xc24(%rbp),%eax
    f146:	0f be c0             	movsbl %al,%eax
    f149:	39 c2                	cmp    %eax,%edx
    f14b:	0f 9f c0             	setg   %al
    f14e:	0f b6 d0             	movzbl %al,%edx
    f151:	48 8b 85 a8 f4 ff ff 	mov    -0xb58(%rbp),%rax
    f158:	0f b7 00             	movzwl (%rax),%eax
    f15b:	21 c2                	and    %eax,%edx
    f15d:	48 8b 85 a8 f4 ff ff 	mov    -0xb58(%rbp),%rax
    f164:	66 89 10             	mov    %dx,(%rax)
    f167:	0f b6 85 dc f3 ff ff 	movzbl -0xc24(%rbp),%eax
    f16e:	66 98                	cbtw   
    f170:	8b 95 08 f4 ff ff    	mov    -0xbf8(%rbp),%edx
    f176:	31 d0                	xor    %edx,%eax
    f178:	98                   	cwtl   
    f179:	44 89 e6             	mov    %r12d,%esi
    f17c:	89 c7                	mov    %eax,%edi
    f17e:	e8 d2 a2 ff ff       	callq  9455 <safe_div_func_int16_t_s_s>
    f183:	be 97 00 00 00       	mov    $0x97,%esi
    f188:	bf 01 00 00 00       	mov    $0x1,%edi
    f18d:	e8 c8 a9 ff ff       	callq  9b5a <safe_add_func_uint8_t_u_u>
    f192:	0f b6 c0             	movzbl %al,%eax
    f195:	44 31 f0             	xor    %r14d,%eax
    f198:	be ff ff ff ff       	mov    $0xffffffff,%esi
    f19d:	89 c7                	mov    %eax,%edi
    f19f:	e8 61 a4 ff ff       	callq  9605 <safe_sub_func_int32_t_s_s>
    f1a4:	89 c6                	mov    %eax,%esi
    f1a6:	bf 01 00 00 00       	mov    $0x1,%edi
    f1ab:	e8 b3 a3 ff ff       	callq  9563 <safe_rshift_func_int16_t_s_u>
    f1b0:	98                   	cwtl   
    f1b1:	44 89 ea             	mov    %r13d,%edx
    f1b4:	21 c2                	and    %eax,%edx
    f1b6:	0f b6 85 dc f3 ff ff 	movzbl -0xc24(%rbp),%eax
    f1bd:	0f be c0             	movsbl %al,%eax
    f1c0:	39 c2                	cmp    %eax,%edx
    f1c2:	48 89 de             	mov    %rbx,%rsi
    f1c5:	48 bf 50 84 d3 24 fe 	movabs $0x22027cfe24d38450,%rdi
    f1cc:	7c 02 22 
    f1cf:	e8 5a ae ff ff       	callq  a02e <safe_add_func_uint64_t_u_u>
    f1d4:	8b 95 6c f5 ff ff    	mov    -0xa94(%rbp),%edx
    f1da:	31 d0                	xor    %edx,%eax
    f1dc:	89 85 6c f5 ff ff    	mov    %eax,-0xa94(%rbp)
    f1e2:	0f b6 85 dc f3 ff ff 	movzbl -0xc24(%rbp),%eax
    f1e9:	44 0f be e8          	movsbl %al,%r13d
    f1ed:	0f b6 85 dc f3 ff ff 	movzbl -0xc24(%rbp),%eax
    f1f4:	48 0f be d8          	movsbq %al,%rbx
    f1f8:	48 83 bd 88 f4 ff ff 	cmpq   $0x0,-0xb78(%rbp)
    f1ff:	00 
    f200:	0f 95 c0             	setne  %al
    f203:	0f b6 d0             	movzbl %al,%edx
    f206:	0f b6 85 dc f3 ff ff 	movzbl -0xc24(%rbp),%eax
    f20d:	0f be c0             	movsbl %al,%eax
    f210:	89 d6                	mov    %edx,%esi
    f212:	89 c7                	mov    %eax,%edi
    f214:	e8 53 a1 ff ff       	callq  936c <safe_rshift_func_int8_t_s_u>
    f219:	44 0f be f0          	movsbl %al,%r14d
    f21d:	48 8b 85 88 f4 ff ff 	mov    -0xb78(%rbp),%rax
    f224:	48 8b 00             	mov    (%rax),%rax
    f227:	48 8b 00             	mov    (%rax),%rax
    f22a:	48 8b 00             	mov    (%rax),%rax
    f22d:	48 8b 00             	mov    (%rax),%rax
    f230:	44 8b 38             	mov    (%rax),%r15d
    f233:	0f b6 85 dc f3 ff ff 	movzbl -0xc24(%rbp),%eax
    f23a:	4c 0f be e0          	movsbq %al,%r12
    f23e:	48 8b 05 7b 84 00 00 	mov    0x847b(%rip),%rax        # 176c0 <g_111>
    f245:	48 8d 14 85 00 00 00 	lea    0x0(,%rax,4),%rdx
    f24c:	00 
    f24d:	48 8d 05 fc b8 00 00 	lea    0xb8fc(%rip),%rax        # 1ab50 <g_81>
    f254:	8b 14 02             	mov    (%rdx,%rax,1),%edx
    f257:	48 8b 05 3a b4 00 00 	mov    0xb43a(%rip),%rax        # 1a698 <g_694>
    f25e:	48 8b 00             	mov    (%rax),%rax
    f261:	48 85 c0             	test   %rax,%rax
    f264:	0f 94 c0             	sete   %al
    f267:	0f b6 c0             	movzbl %al,%eax
    f26a:	89 d6                	mov    %edx,%esi
    f26c:	89 c7                	mov    %eax,%edi
    f26e:	e8 d9 a9 ff ff       	callq  9c4c <safe_lshift_func_uint8_t_u_u>
    f273:	0f b6 c0             	movzbl %al,%eax
    f276:	8b 15 d0 b8 00 00    	mov    0xb8d0(%rip),%edx        # 1ab4c <g_51>
    f27c:	21 d0                	and    %edx,%eax
    f27e:	98                   	cwtl   
    f27f:	be 98 5d 00 00       	mov    $0x5d98,%esi
    f284:	89 c7                	mov    %eax,%edi
    f286:	e8 28 a1 ff ff       	callq  93b3 <safe_add_func_int16_t_s_s>
    f28b:	0f b6 85 dc f3 ff ff 	movzbl -0xc24(%rbp),%eax
    f292:	0f be d0             	movsbl %al,%edx
    f295:	48 8b 85 78 f4 ff ff 	mov    -0xb88(%rbp),%rax
    f29c:	8b 00                	mov    (%rax),%eax
    f29e:	31 c2                	xor    %eax,%edx
    f2a0:	48 8b 05 e9 b3 00 00 	mov    0xb3e9(%rip),%rax        # 1a690 <g_695>
    f2a7:	48 8b 00             	mov    (%rax),%rax
    f2aa:	48 8b 00             	mov    (%rax),%rax
    f2ad:	8b 00                	mov    (%rax),%eax
    f2af:	09 95 0c f4 ff ff    	or     %edx,-0xbf4(%rbp)
    f2b5:	0b 85 0c f4 ff ff    	or     -0xbf4(%rbp),%eax
    f2bb:	48 98                	cltq   
    f2bd:	25 b0 00 00 00       	and    $0xb0,%eax
    f2c2:	48 89 c2             	mov    %rax,%rdx
    f2c5:	48 8b 05 dc b3 00 00 	mov    0xb3dc(%rip),%rax        # 1a6a8 <g_900>
    f2cc:	48 8b 00             	mov    (%rax),%rax
    f2cf:	48 8b 00             	mov    (%rax),%rax
    f2d2:	48 39 c2             	cmp    %rax,%rdx
    f2d5:	0f 97 c0             	seta   %al
    f2d8:	0f b6 c0             	movzbl %al,%eax
    f2db:	be ff 00 00 00       	mov    $0xff,%esi
    f2e0:	89 c7                	mov    %eax,%edi
    f2e2:	e8 f4 a8 ff ff       	callq  9bdb <safe_div_func_uint8_t_u_u>
    f2e7:	0f b6 c0             	movzbl %al,%eax
    f2ea:	4c 89 e6             	mov    %r12,%rsi
    f2ed:	48 89 c7             	mov    %rax,%rdi
    f2f0:	e8 b3 a5 ff ff       	callq  98a8 <safe_sub_func_int64_t_s_s>
    f2f5:	48 8b 15 a4 b3 00 00 	mov    0xb3a4(%rip),%rdx        # 1a6a0 <g_901>
    f2fc:	48 8b 12             	mov    (%rdx),%rdx
    f2ff:	48 39 d0             	cmp    %rdx,%rax
    f302:	0f 95 c0             	setne  %al
    f305:	0f b6 c0             	movzbl %al,%eax
    f308:	41 39 c7             	cmp    %eax,%r15d
    f30b:	0f 9c c0             	setl   %al
    f30e:	0f b6 c0             	movzbl %al,%eax
    f311:	be 02 00 00 00       	mov    $0x2,%esi
    f316:	89 c7                	mov    %eax,%edi
    f318:	e8 a1 a9 ff ff       	callq  9cbe <safe_rshift_func_uint8_t_u_u>
    f31d:	0f b6 c0             	movzbl %al,%eax
    f320:	41 39 c6             	cmp    %eax,%r14d
    f323:	0f 94 c0             	sete   %al
    f326:	0f b6 c0             	movzbl %al,%eax
    f329:	48 89 de             	mov    %rbx,%rsi
    f32c:	48 89 c7             	mov    %rax,%rdi
    f32f:	e8 17 ad ff ff       	callq  a04b <safe_sub_func_uint64_t_u_u>
    f334:	89 c2                	mov    %eax,%edx
    f336:	48 8b 85 a0 f4 ff ff 	mov    -0xb60(%rbp),%rax
    f33d:	66 89 10             	mov    %dx,(%rax)
    f340:	48 8b 85 a0 f4 ff ff 	mov    -0xb60(%rbp),%rax
    f347:	0f b7 00             	movzwl (%rax),%eax
    f34a:	0f b7 d0             	movzwl %ax,%edx
    f34d:	48 8b 85 28 f4 ff ff 	mov    -0xbd8(%rbp),%rax
    f354:	48 8b 00             	mov    (%rax),%rax
    f357:	48 8b 00             	mov    (%rax),%rax
    f35a:	8b 00                	mov    (%rax),%eax
    f35c:	39 c2                	cmp    %eax,%edx
    f35e:	0f 9d c0             	setge  %al
    f361:	0f b6 c0             	movzbl %al,%eax
    f364:	41 39 c5             	cmp    %eax,%r13d
    f367:	0f 94 c0             	sete   %al
    f36a:	0f b6 d0             	movzbl %al,%edx
    f36d:	48 8b 85 38 f4 ff ff 	mov    -0xbc8(%rbp),%rax
    f374:	8b 00                	mov    (%rax),%eax
    f376:	31 c2                	xor    %eax,%edx
    f378:	48 8b 85 38 f4 ff ff 	mov    -0xbc8(%rbp),%rax
    f37f:	89 10                	mov    %edx,(%rax)
    f381:	e9 61 02 00 00       	jmpq   f5e7 <func_42+0x1125>
    f386:	48 c7 85 90 f4 ff ff 	movq   $0x0,-0xb70(%rbp)
    f38d:	00 00 00 00 
    f391:	48 8d 85 00 f9 ff ff 	lea    -0x700(%rbp),%rax
    f398:	48 8d 15 c1 9d 00 00 	lea    0x9dc1(%rip),%rdx        # 19160 <g_1455+0x17b0>
    f39f:	b9 d8 00 00 00       	mov    $0xd8,%ecx
    f3a4:	48 89 c7             	mov    %rax,%rdi
    f3a7:	48 89 d6             	mov    %rdx,%rsi
    f3aa:	f3 48 a5             	rep movsq %ds:(%rsi),%es:(%rdi)
    f3ad:	48 8d 85 20 f4 ff ff 	lea    -0xbe0(%rbp),%rax
    f3b4:	48 89 85 98 f4 ff ff 	mov    %rax,-0xb68(%rbp)
    f3bb:	c7 85 00 f4 ff ff 00 	movl   $0x0,-0xc00(%rbp)
    f3c2:	00 00 00 
    f3c5:	eb 19                	jmp    f3e0 <func_42+0xf1e>
    f3c7:	8b 85 00 f4 ff ff    	mov    -0xc00(%rbp),%eax
    f3cd:	48 98                	cltq   
    f3cf:	66 c7 84 45 d8 f4 ff 	movw   $0xed02,-0xb28(%rbp,%rax,2)
    f3d6:	ff 02 ed 
    f3d9:	83 85 00 f4 ff ff 01 	addl   $0x1,-0xc00(%rbp)
    f3e0:	83 bd 00 f4 ff ff 03 	cmpl   $0x3,-0xc00(%rbp)
    f3e7:	7e de                	jle    f3c7 <func_42+0xf05>
    f3e9:	48 8b 15 70 b2 00 00 	mov    0xb270(%rip),%rdx        # 1a660 <g_295>
    f3f0:	48 8b 05 69 b2 00 00 	mov    0xb269(%rip),%rax        # 1a660 <g_295>
    f3f7:	48 8b 12             	mov    (%rdx),%rdx
    f3fa:	48 89 10             	mov    %rdx,(%rax)
    f3fd:	48 8b 05 7c b2 00 00 	mov    0xb27c(%rip),%rax        # 1a680 <g_395>
    f404:	48 8b 00             	mov    (%rax),%rax
    f407:	48 8b 10             	mov    (%rax),%rdx
    f40a:	48 8b 05 67 b2 00 00 	mov    0xb267(%rip),%rax        # 1a678 <g_396>
    f411:	48 8b 00             	mov    (%rax),%rax
    f414:	48 8b 12             	mov    (%rdx),%rdx
    f417:	48 89 10             	mov    %rdx,(%rax)
    f41a:	0f b7 85 de f4 ff ff 	movzwl -0xb22(%rbp),%eax
    f421:	66 85 c0             	test   %ax,%ax
    f424:	0f 85 f0 01 00 00    	jne    f61a <func_42+0x1158>
    f42a:	0f b6 85 dc f3 ff ff 	movzbl -0xc24(%rbp),%eax
    f431:	0f be d8             	movsbl %al,%ebx
    f434:	0f b6 85 dc f3 ff ff 	movzbl -0xc24(%rbp),%eax
    f43b:	44 0f b6 e0          	movzbl %al,%r12d
    f43f:	48 8b 85 d0 f3 ff ff 	mov    -0xc30(%rbp),%rax
    f446:	48 89 85 f8 f4 ff ff 	mov    %rax,-0xb08(%rbp)
    f44d:	48 8b 85 f8 f4 ff ff 	mov    -0xb08(%rbp),%rax
    f454:	48 8d 15 05 b7 00 00 	lea    0xb705(%rip),%rdx        # 1ab60 <g_334>
    f45b:	48 39 d0             	cmp    %rdx,%rax
    f45e:	0f 95 c0             	setne  %al
    f461:	0f b6 d0             	movzbl %al,%edx
    f464:	48 8b 85 38 f4 ff ff 	mov    -0xbc8(%rbp),%rax
    f46b:	8b 00                	mov    (%rax),%eax
    f46d:	09 c2                	or     %eax,%edx
    f46f:	48 8b 85 38 f4 ff ff 	mov    -0xbc8(%rbp),%rax
    f476:	89 10                	mov    %edx,(%rax)
    f478:	8b 95 ec f3 ff ff    	mov    -0xc14(%rbp),%edx
    f47e:	0f b6 85 dc f3 ff ff 	movzbl -0xc24(%rbp),%eax
    f485:	0f be c0             	movsbl %al,%eax
    f488:	89 d6                	mov    %edx,%esi
    f48a:	89 c7                	mov    %eax,%edi
    f48c:	e8 6c aa ff ff       	callq  9efd <safe_mod_func_uint32_t_u_u>
    f491:	85 c0                	test   %eax,%eax
    f493:	75 16                	jne    f4ab <func_42+0xfe9>
    f495:	48 8b 85 30 f4 ff ff 	mov    -0xbd0(%rbp),%rax
    f49c:	48 8b 00             	mov    (%rax),%rax
    f49f:	48 8b 00             	mov    (%rax),%rax
    f4a2:	48 8b 00             	mov    (%rax),%rax
    f4a5:	8b 00                	mov    (%rax),%eax
    f4a7:	85 c0                	test   %eax,%eax
    f4a9:	74 07                	je     f4b2 <func_42+0xff0>
    f4ab:	b8 01 00 00 00       	mov    $0x1,%eax
    f4b0:	eb 05                	jmp    f4b7 <func_42+0xff5>
    f4b2:	b8 00 00 00 00       	mov    $0x0,%eax
    f4b7:	48 98                	cltq   
    f4b9:	48 89 c6             	mov    %rax,%rsi
    f4bc:	bf 00 00 00 00       	mov    $0x0,%edi
    f4c1:	e8 e9 ab ff ff       	callq  a0af <safe_div_func_uint64_t_u_u>
    f4c6:	8b 05 4c 82 00 00    	mov    0x824c(%rip),%eax        # 17718 <g_120+0x38>
    f4cc:	48 98                	cltq   
    f4ce:	ba 18 60 f1 d5       	mov    $0xd5f16018,%edx
    f4d3:	48 39 d0             	cmp    %rdx,%rax
    f4d6:	0f 97 c0             	seta   %al
    f4d9:	0f b6 c0             	movzbl %al,%eax
    f4dc:	89 85 08 f4 ff ff    	mov    %eax,-0xbf8(%rbp)
    f4e2:	8b 85 08 f4 ff ff    	mov    -0xbf8(%rbp),%eax
    f4e8:	0f b6 c0             	movzbl %al,%eax
    f4eb:	89 c7                	mov    %eax,%edi
    f4ed:	e8 53 a6 ff ff       	callq  9b45 <safe_unary_minus_func_uint8_t_u>
    f4f2:	48 8d 05 b0 84 00 00 	lea    0x84b0(%rip),%rax        # 179a9 <g_1052>
    f4f9:	48 39 85 48 f4 ff ff 	cmp    %rax,-0xbb8(%rbp)
    f500:	0f 94 c0             	sete   %al
    f503:	0f b6 c0             	movzbl %al,%eax
    f506:	44 89 e6             	mov    %r12d,%esi
    f509:	89 c7                	mov    %eax,%edi
    f50b:	e8 4a a6 ff ff       	callq  9b5a <safe_add_func_uint8_t_u_u>
    f510:	0f b6 d0             	movzbl %al,%edx
    f513:	48 8b 85 70 f4 ff ff 	mov    -0xb90(%rbp),%rax
    f51a:	48 89 10             	mov    %rdx,(%rax)
    f51d:	48 8b 85 70 f4 ff ff 	mov    -0xb90(%rbp),%rax
    f524:	48 8b 00             	mov    (%rax),%rax
    f527:	48 ba 41 d8 2a 71 d5 	movabs $0xe93f66d5712ad841,%rdx
    f52e:	66 3f e9 
    f531:	48 39 d0             	cmp    %rdx,%rax
    f534:	0f 95 c0             	setne  %al
    f537:	0f b6 d0             	movzbl %al,%edx
    f53a:	48 8b 85 98 f4 ff ff 	mov    -0xb68(%rbp),%rax
    f541:	48 89 10             	mov    %rdx,(%rax)
    f544:	48 8b 85 78 f4 ff ff 	mov    -0xb88(%rbp),%rax
    f54b:	8b 00                	mov    (%rax),%eax
    f54d:	83 f8 01             	cmp    $0x1,%eax
    f550:	0f 95 c0             	setne  %al
    f553:	0f b6 d0             	movzbl %al,%edx
    f556:	0f b7 05 e3 7a 00 00 	movzwl 0x7ae3(%rip),%eax        # 17040 <g_20+0x4>
    f55d:	0f b7 c0             	movzwl %ax,%eax
    f560:	21 d0                	and    %edx,%eax
    f562:	89 c7                	mov    %eax,%edi
    f564:	e8 2d a0 ff ff       	callq  9596 <safe_unary_minus_func_int32_t_s>
    f569:	0f b6 85 dc f3 ff ff 	movzbl -0xc24(%rbp),%eax
    f570:	84 c0                	test   %al,%al
    f572:	0f 94 c0             	sete   %al
    f575:	0f b6 c0             	movzbl %al,%eax
    f578:	be f6 ff ff ff       	mov    $0xfffffff6,%esi
    f57d:	89 c7                	mov    %eax,%edi
    f57f:	e8 2f 9e ff ff       	callq  93b3 <safe_add_func_int16_t_s_s>
    f584:	66 85 c0             	test   %ax,%ax
    f587:	74 10                	je     f599 <func_42+0x10d7>
    f589:	80 bd e1 f3 ff ff 00 	cmpb   $0x0,-0xc1f(%rbp)
    f590:	74 07                	je     f599 <func_42+0x10d7>
    f592:	b8 01 00 00 00       	mov    $0x1,%eax
    f597:	eb 05                	jmp    f59e <func_42+0x10dc>
    f599:	b8 00 00 00 00       	mov    $0x0,%eax
    f59e:	89 c2                	mov    %eax,%edx
    f5a0:	0f b7 05 c9 83 00 00 	movzwl 0x83c9(%rip),%eax        # 17970 <g_567>
    f5a7:	98                   	cwtl   
    f5a8:	89 d6                	mov    %edx,%esi
    f5aa:	89 c7                	mov    %eax,%edi
    f5ac:	e8 b2 9f ff ff       	callq  9563 <safe_rshift_func_int16_t_s_u>
    f5b1:	48 8b 85 10 f5 ff ff 	mov    -0xaf0(%rbp),%rax
    f5b8:	48 39 85 80 f4 ff ff 	cmp    %rax,-0xb80(%rbp)
    f5bf:	0f 94 c0             	sete   %al
    f5c2:	0f b6 c0             	movzbl %al,%eax
    f5c5:	89 de                	mov    %ebx,%esi
    f5c7:	89 c7                	mov    %eax,%edi
    f5c9:	e8 5c 9f ff ff       	callq  952a <safe_rshift_func_int16_t_s_s>
    f5ce:	48 8b 85 40 f6 ff ff 	mov    -0x9c0(%rbp),%rax
    f5d5:	48 85 c0             	test   %rax,%rax
    f5d8:	0f 94 c0             	sete   %al
    f5db:	0f b6 d0             	movzbl %al,%edx
    f5de:	48 8b 85 d0 f3 ff ff 	mov    -0xc30(%rbp),%rax
    f5e5:	89 10                	mov    %edx,(%rax)
    f5e7:	0f b6 85 e0 f3 ff ff 	movzbl -0xc20(%rbp),%eax
    f5ee:	83 e8 01             	sub    $0x1,%eax
    f5f1:	88 85 e0 f3 ff ff    	mov    %al,-0xc20(%rbp)
    f5f7:	48 8b 05 8a 83 00 00 	mov    0x838a(%rip),%rax        # 17988 <g_730>
    f5fe:	48 83 c0 01          	add    $0x1,%rax
    f602:	48 89 05 7f 83 00 00 	mov    %rax,0x837f(%rip)        # 17988 <g_730>
    f609:	48 8b 05 78 83 00 00 	mov    0x8378(%rip),%rax        # 17988 <g_730>
    f610:	48 83 f8 06          	cmp    $0x6,%rax
    f614:	0f 8e 62 f5 ff ff    	jle    eb7c <func_42+0x6ba>
    f61a:	48 8b 05 57 83 00 00 	mov    0x8357(%rip),%rax        # 17978 <g_680>
    f621:	48 83 c0 01          	add    $0x1,%rax
    f625:	48 89 05 4c 83 00 00 	mov    %rax,0x834c(%rip)        # 17978 <g_680>
    f62c:	48 8b 05 45 83 00 00 	mov    0x8345(%rip),%rax        # 17978 <g_680>
    f633:	48 83 f8 03          	cmp    $0x3,%rax
    f637:	0f 8e ba f4 ff ff    	jle    eaf7 <func_42+0x635>
    f63d:	eb 56                	jmp    f695 <func_42+0x11d3>
    f63f:	66 c7 05 20 81 00 00 	movw   $0x0,0x8120(%rip)        # 17768 <g_145>
    f646:	00 00 
    f648:	90                   	nop
    f649:	0f b7 05 18 81 00 00 	movzwl 0x8118(%rip),%eax        # 17768 <g_145>
    f650:	66 83 f8 03          	cmp    $0x3,%ax
    f654:	77 28                	ja     f67e <func_42+0x11bc>
    f656:	48 8d 05 03 83 00 00 	lea    0x8303(%rip),%rax        # 17960 <g_264>
    f65d:	48 89 85 b0 f4 ff ff 	mov    %rax,-0xb50(%rbp)
    f664:	48 8b 85 d0 f3 ff ff 	mov    -0xc30(%rbp),%rax
    f66b:	8b 00                	mov    (%rax),%eax
    f66d:	85 c0                	test   %eax,%eax
    f66f:	75 0c                	jne    f67d <func_42+0x11bb>
    f671:	48 8b 85 b0 f4 ff ff 	mov    -0xb50(%rbp),%rax
    f678:	e9 4a 02 00 00       	jmpq   f8c7 <func_42+0x1405>
    f67d:	90                   	nop
    f67e:	48 8b 05 13 b0 00 00 	mov    0xb013(%rip),%rax        # 1a698 <g_694>
    f685:	48 8b 00             	mov    (%rax),%rax
    f688:	48 8b 00             	mov    (%rax),%rax
    f68b:	48 8b 95 d0 f3 ff ff 	mov    -0xc30(%rbp),%rdx
    f692:	48 89 10             	mov    %rdx,(%rax)
    f695:	48 8b 05 24 80 00 00 	mov    0x8024(%rip),%rax        # 176c0 <g_111>
    f69c:	48 83 c0 01          	add    $0x1,%rax
    f6a0:	48 89 05 19 80 00 00 	mov    %rax,0x8019(%rip)        # 176c0 <g_111>
    f6a7:	48 8b 05 12 80 00 00 	mov    0x8012(%rip),%rax        # 176c0 <g_111>
    f6ae:	48 83 f8 03          	cmp    $0x3,%rax
    f6b2:	0f 86 a6 ef ff ff    	jbe    e65e <func_42+0x19c>
    f6b8:	48 8b 05 e1 af 00 00 	mov    0xafe1(%rip),%rax        # 1a6a0 <g_901>
    f6bf:	48 8b 10             	mov    (%rax),%rdx
    f6c2:	8b 05 4c 80 00 00    	mov    0x804c(%rip),%eax        # 17714 <g_120+0x34>
    f6c8:	48 98                	cltq   
    f6ca:	48 39 c2             	cmp    %rax,%rdx
    f6cd:	0f 93 c0             	setae  %al
    f6d0:	0f b6 d8             	movzbl %al,%ebx
    f6d3:	be 05 00 00 00       	mov    $0x5,%esi
    f6d8:	bf f3 5a 00 00       	mov    $0x5af3,%edi
    f6dd:	e8 98 a7 ff ff       	callq  9e7a <safe_rshift_func_uint16_t_u_u>
    f6e2:	0f be d0             	movsbl %al,%edx
    f6e5:	48 8d 85 dc f3 ff ff 	lea    -0xc24(%rbp),%rax
    f6ec:	48 39 85 48 f4 ff ff 	cmp    %rax,-0xbb8(%rbp)
    f6f3:	0f 94 c0             	sete   %al
    f6f6:	0f b6 c0             	movzbl %al,%eax
    f6f9:	89 d6                	mov    %edx,%esi
    f6fb:	89 c7                	mov    %eax,%edi
    f6fd:	e8 2f 9b ff ff       	callq  9231 <safe_mod_func_int8_t_s_s>
    f702:	0f be c0             	movsbl %al,%eax
    f705:	21 d8                	and    %ebx,%eax
    f707:	f7 d0                	not    %eax
    f709:	48 63 d0             	movslq %eax,%rdx
    f70c:	48 8b 85 50 f4 ff ff 	mov    -0xbb0(%rbp),%rax
    f713:	48 89 10             	mov    %rdx,(%rax)
    f716:	48 8b 85 38 f4 ff ff 	mov    -0xbc8(%rbp),%rax
    f71d:	8b 10                	mov    (%rax),%edx
    f71f:	48 8b 85 38 f4 ff ff 	mov    -0xbc8(%rbp),%rax
    f726:	89 10                	mov    %edx,(%rax)
    f728:	c7 05 3a 80 00 00 00 	movl   $0x0,0x803a(%rip)        # 1776c <g_217>
    f72f:	00 00 00 
    f732:	e9 7a 01 00 00       	jmpq   f8b1 <func_42+0x13ef>
    f737:	48 c7 85 60 f4 ff ff 	movq   $0x5,-0xba0(%rbp)
    f73e:	05 00 00 00 
    f742:	48 c7 85 68 f4 ff ff 	movq   $0x0,-0xb98(%rbp)
    f749:	00 00 00 00 
    f74d:	48 8b 85 d0 f3 ff ff 	mov    -0xc30(%rbp),%rax
    f754:	8b 10                	mov    (%rax),%edx
    f756:	48 8b 05 3b af 00 00 	mov    0xaf3b(%rip),%rax        # 1a698 <g_694>
    f75d:	48 8b 00             	mov    (%rax),%rax
    f760:	48 85 c0             	test   %rax,%rax
    f763:	0f 95 c0             	setne  %al
    f766:	0f b6 c0             	movzbl %al,%eax
    f769:	09 c2                	or     %eax,%edx
    f76b:	48 8b 85 d0 f3 ff ff 	mov    -0xc30(%rbp),%rax
    f772:	89 10                	mov    %edx,(%rax)
    f774:	48 8b 85 d0 f3 ff ff 	mov    -0xc30(%rbp),%rax
    f77b:	8b 00                	mov    (%rax),%eax
    f77d:	85 c0                	test   %eax,%eax
    f77f:	0f 85 1c 01 00 00    	jne    f8a1 <func_42+0x13df>
    f785:	48 8b 05 ec 6e 00 00 	mov    0x6eec(%rip),%rax        # 16678 <l_1116.4408+0xb8>
    f78c:	48 39 85 58 f4 ff ff 	cmp    %rax,-0xba8(%rbp)
    f793:	41 0f 95 c6          	setne  %r14b
    f797:	0f b6 85 dc f3 ff ff 	movzbl -0xc24(%rbp),%eax
    f79e:	44 0f be e8          	movsbl %al,%r13d
    f7a2:	0f b6 85 dc f3 ff ff 	movzbl -0xc24(%rbp),%eax
    f7a9:	0f b6 d8             	movzbl %al,%ebx
    f7ac:	0f b6 85 dc f3 ff ff 	movzbl -0xc24(%rbp),%eax
    f7b3:	4c 0f be e0          	movsbq %al,%r12
    f7b7:	48 8b 85 38 f4 ff ff 	mov    -0xbc8(%rbp),%rax
    f7be:	8b 00                	mov    (%rax),%eax
    f7c0:	0f be c0             	movsbl %al,%eax
    f7c3:	89 c6                	mov    %eax,%esi
    f7c5:	bf 01 00 00 00       	mov    $0x1,%edi
    f7ca:	e8 62 9a ff ff       	callq  9231 <safe_mod_func_int8_t_s_s>
    f7cf:	48 8b 85 48 f4 ff ff 	mov    -0xbb8(%rbp),%rax
    f7d6:	0f b6 10             	movzbl (%rax),%edx
    f7d9:	0f b6 85 dc f3 ff ff 	movzbl -0xc24(%rbp),%eax
    f7e0:	09 c2                	or     %eax,%edx
    f7e2:	48 8b 85 48 f4 ff ff 	mov    -0xbb8(%rbp),%rax
    f7e9:	88 10                	mov    %dl,(%rax)
    f7eb:	48 8b 85 48 f4 ff ff 	mov    -0xbb8(%rbp),%rax
    f7f2:	0f b6 00             	movzbl (%rax),%eax
    f7f5:	0f be d0             	movsbl %al,%edx
    f7f8:	48 8b 05 a1 ae 00 00 	mov    0xaea1(%rip),%rax        # 1a6a0 <g_901>
    f7ff:	48 8b 08             	mov    (%rax),%rcx
    f802:	0f b6 85 dc f3 ff ff 	movzbl -0xc24(%rbp),%eax
    f809:	48 0f be c0          	movsbq %al,%rax
    f80d:	48 39 c1             	cmp    %rax,%rcx
    f810:	0f 95 c0             	setne  %al
    f813:	0f b6 c8             	movzbl %al,%ecx
    f816:	48 8b 85 d0 f3 ff ff 	mov    -0xc30(%rbp),%rax
    f81d:	8b 00                	mov    (%rax),%eax
    f81f:	39 c1                	cmp    %eax,%ecx
    f821:	0f 95 c0             	setne  %al
    f824:	0f b6 c0             	movzbl %al,%eax
    f827:	31 d0                	xor    %edx,%eax
    f829:	48 63 d0             	movslq %eax,%rdx
    f82c:	48 8b 85 50 f4 ff ff 	mov    -0xbb0(%rbp),%rax
    f833:	48 89 10             	mov    %rdx,(%rax)
    f836:	48 8b 85 50 f4 ff ff 	mov    -0xbb0(%rbp),%rax
    f83d:	48 8b 00             	mov    (%rax),%rax
    f840:	4c 89 e6             	mov    %r12,%rsi
    f843:	48 89 c7             	mov    %rax,%rdi
    f846:	e8 64 a8 ff ff       	callq  a0af <safe_div_func_uint64_t_u_u>
    f84b:	0f b6 c0             	movzbl %al,%eax
    f84e:	89 de                	mov    %ebx,%esi
    f850:	89 c7                	mov    %eax,%edi
    f852:	e8 03 a3 ff ff       	callq  9b5a <safe_add_func_uint8_t_u_u>
    f857:	0f b6 c0             	movzbl %al,%eax
    f85a:	41 39 c5             	cmp    %eax,%r13d
    f85d:	0f 9f c0             	setg   %al
    f860:	44 21 f0             	and    %r14d,%eax
    f863:	0f b6 c0             	movzbl %al,%eax
    f866:	35 05 ab 4d fe       	xor    $0xfe4dab05,%eax
    f86b:	89 c2                	mov    %eax,%edx
    f86d:	48 8b 85 d0 f3 ff ff 	mov    -0xc30(%rbp),%rax
    f874:	89 10                	mov    %edx,(%rax)
    f876:	48 8b 85 d0 f3 ff ff 	mov    -0xc30(%rbp),%rax
    f87d:	8b 00                	mov    (%rax),%eax
    f87f:	21 85 ec f3 ff ff    	and    %eax,-0xc14(%rbp)
    f885:	c6 85 dc f3 ff ff 01 	movb   $0x1,-0xc24(%rbp)
    f88c:	90                   	nop
    f88d:	0f b6 85 dc f3 ff ff 	movzbl -0xc24(%rbp),%eax
    f894:	3c 04                	cmp    $0x4,%al
    f896:	7f 0a                	jg     f8a2 <func_42+0x13e0>
    f898:	48 8b 85 68 f4 ff ff 	mov    -0xb98(%rbp),%rax
    f89f:	eb 26                	jmp    f8c7 <func_42+0x1405>
    f8a1:	90                   	nop
    f8a2:	8b 05 c4 7e 00 00    	mov    0x7ec4(%rip),%eax        # 1776c <g_217>
    f8a8:	83 c0 01             	add    $0x1,%eax
    f8ab:	89 05 bb 7e 00 00    	mov    %eax,0x7ebb(%rip)        # 1776c <g_217>
    f8b1:	8b 05 b5 7e 00 00    	mov    0x7eb5(%rip),%eax        # 1776c <g_217>
    f8b7:	83 f8 08             	cmp    $0x8,%eax
    f8ba:	0f 86 77 fe ff ff    	jbe    f737 <func_42+0x1275>
    f8c0:	48 8b 85 50 f4 ff ff 	mov    -0xbb0(%rbp),%rax
    f8c7:	48 8b 5d c8          	mov    -0x38(%rbp),%rbx
    f8cb:	64 48 33 1c 25 28 00 	xor    %fs:0x28,%rbx
    f8d2:	00 00 
    f8d4:	74 05                	je     f8db <func_42+0x1419>
    f8d6:	e8 95 97 ff ff       	callq  9070 <__stack_chk_fail@plt>
    f8db:	48 81 c4 08 0c 00 00 	add    $0xc08,%rsp
    f8e2:	5b                   	pop    %rbx
    f8e3:	41 5c                	pop    %r12
    f8e5:	41 5d                	pop    %r13
    f8e7:	41 5e                	pop    %r14
    f8e9:	41 5f                	pop    %r15
    f8eb:	5d                   	pop    %rbp
    f8ec:	c3                   	retq   

000000000000f8ed <func_45>:
    f8ed:	f3 0f 1e fa          	endbr64 
    f8f1:	55                   	push   %rbp
    f8f2:	48 89 e5             	mov    %rsp,%rbp
    f8f5:	48 81 ec e0 01 00 00 	sub    $0x1e0,%rsp
    f8fc:	48 89 bd 28 fe ff ff 	mov    %rdi,-0x1d8(%rbp)
    f903:	89 b5 24 fe ff ff    	mov    %esi,-0x1dc(%rbp)
    f909:	64 48 8b 04 25 28 00 	mov    %fs:0x28,%rax
    f910:	00 00 
    f912:	48 89 45 f8          	mov    %rax,-0x8(%rbp)
    f916:	31 c0                	xor    %eax,%eax
    f918:	c6 85 38 fe ff ff f7 	movb   $0xf7,-0x1c8(%rbp)
    f91f:	c7 85 3c fe ff ff 03 	movl   $0x3,-0x1c4(%rbp)
    f926:	00 00 00 
    f929:	c7 85 40 fe ff ff f4 	movl   $0x5449f5f4,-0x1c0(%rbp)
    f930:	f5 49 54 
    f933:	c7 85 44 fe ff ff de 	movl   $0x3f7f32de,-0x1bc(%rbp)
    f93a:	32 7f 3f 
    f93d:	c7 85 48 fe ff ff ff 	movl   $0xffffffff,-0x1b8(%rbp)
    f944:	ff ff ff 
    f947:	c7 85 4c fe ff ff 01 	movl   $0x1,-0x1b4(%rbp)
    f94e:	00 00 00 
    f951:	c7 85 50 fe ff ff 75 	movl   $0xb6202e75,-0x1b0(%rbp)
    f958:	2e 20 b6 
    f95b:	c7 85 54 fe ff ff 4c 	movl   $0x66e9e34c,-0x1ac(%rbp)
    f962:	e3 e9 66 
    f965:	c7 85 a0 fe ff ff 00 	movl   $0x0,-0x160(%rbp)
    f96c:	00 00 00 
    f96f:	c7 85 a4 fe ff ff 00 	movl   $0x0,-0x15c(%rbp)
    f976:	00 00 00 
    f979:	c7 85 a8 fe ff ff 00 	movl   $0x0,-0x158(%rbp)
    f980:	00 00 00 
    f983:	c7 85 ac fe ff ff 00 	movl   $0x0,-0x154(%rbp)
    f98a:	00 00 00 
    f98d:	c7 85 b0 fe ff ff 00 	movl   $0x0,-0x150(%rbp)
    f994:	00 00 00 
    f997:	c7 85 b4 fe ff ff bc 	movl   $0xac0cccbc,-0x14c(%rbp)
    f99e:	cc 0c ac 
    f9a1:	c7 85 b8 fe ff ff bc 	movl   $0xac0cccbc,-0x148(%rbp)
    f9a8:	cc 0c ac 
    f9ab:	c7 85 bc fe ff ff bc 	movl   $0xac0cccbc,-0x144(%rbp)
    f9b2:	cc 0c ac 
    f9b5:	c7 85 c0 fe ff ff bc 	movl   $0xac0cccbc,-0x140(%rbp)
    f9bc:	cc 0c ac 
    f9bf:	c7 85 c4 fe ff ff bc 	movl   $0xac0cccbc,-0x13c(%rbp)
    f9c6:	cc 0c ac 
    f9c9:	c7 85 c8 fe ff ff 00 	movl   $0x0,-0x138(%rbp)
    f9d0:	00 00 00 
    f9d3:	c7 85 cc fe ff ff 00 	movl   $0x0,-0x134(%rbp)
    f9da:	00 00 00 
    f9dd:	c7 85 d0 fe ff ff 00 	movl   $0x0,-0x130(%rbp)
    f9e4:	00 00 00 
    f9e7:	c7 85 d4 fe ff ff 00 	movl   $0x0,-0x12c(%rbp)
    f9ee:	00 00 00 
    f9f1:	c7 85 d8 fe ff ff 00 	movl   $0x0,-0x128(%rbp)
    f9f8:	00 00 00 
    f9fb:	c7 85 dc fe ff ff bc 	movl   $0xac0cccbc,-0x124(%rbp)
    fa02:	cc 0c ac 
    fa05:	c7 85 e0 fe ff ff bc 	movl   $0xac0cccbc,-0x120(%rbp)
    fa0c:	cc 0c ac 
    fa0f:	c7 85 e4 fe ff ff bc 	movl   $0xac0cccbc,-0x11c(%rbp)
    fa16:	cc 0c ac 
    fa19:	c7 85 e8 fe ff ff bc 	movl   $0xac0cccbc,-0x118(%rbp)
    fa20:	cc 0c ac 
    fa23:	c7 85 ec fe ff ff bc 	movl   $0xac0cccbc,-0x114(%rbp)
    fa2a:	cc 0c ac 
    fa2d:	48 8d 05 8c 7c 00 00 	lea    0x7c8c(%rip),%rax        # 176c0 <g_111>
    fa34:	48 89 85 60 fe ff ff 	mov    %rax,-0x1a0(%rbp)
    fa3b:	48 c7 85 68 fe ff ff 	movq   $0x0,-0x198(%rbp)
    fa42:	00 00 00 00 
    fa46:	c6 05 f5 75 00 00 00 	movb   $0x0,0x75f5(%rip)        # 17042 <g_32>
    fa4d:	e9 c0 00 00 00       	jmpq   fb12 <func_45+0x225>
    fa52:	48 8d 05 f7 75 00 00 	lea    0x75f7(%rip),%rax        # 17050 <g_63>
    fa59:	48 89 85 70 fe ff ff 	mov    %rax,-0x190(%rbp)
    fa60:	48 8d 05 f7 75 00 00 	lea    0x75f7(%rip),%rax        # 1705e <g_67+0x6>
    fa67:	48 89 85 78 fe ff ff 	mov    %rax,-0x188(%rbp)
    fa6e:	c7 85 58 fe ff ff f7 	movl   $0xfffffff7,-0x1a8(%rbp)
    fa75:	ff ff ff 
    fa78:	c7 85 5c fe ff ff 00 	movl   $0x0,-0x1a4(%rbp)
    fa7f:	00 00 00 
    fa82:	48 c7 85 80 fe ff ff 	movq   $0x0,-0x180(%rbp)
    fa89:	00 00 00 00 
    fa8d:	48 8d 05 10 7f 00 00 	lea    0x7f10(%rip),%rax        # 179a4 <g_917+0x14>
    fa94:	48 89 85 88 fe ff ff 	mov    %rax,-0x178(%rbp)
    fa9b:	66 c7 85 3a fe ff ff 	movw   $0xfbf2,-0x1c6(%rbp)
    faa2:	f2 fb 
    faa4:	c6 85 39 fe ff ff b2 	movb   $0xb2,-0x1c7(%rbp)
    faab:	48 8d 85 f0 fe ff ff 	lea    -0x110(%rbp),%rax
    fab2:	48 8d 15 a7 35 00 00 	lea    0x35a7(%rip),%rdx        # 13060 <_IO_stdin_used+0x60>
    fab9:	b9 1f 00 00 00       	mov    $0x1f,%ecx
    fabe:	48 89 c7             	mov    %rax,%rdi
    fac1:	48 89 d6             	mov    %rdx,%rsi
    fac4:	f3 48 a5             	rep movsq %ds:(%rsi),%es:(%rdi)
    fac7:	48 89 f2             	mov    %rsi,%rdx
    faca:	48 89 f8             	mov    %rdi,%rax
    facd:	8b 0a                	mov    (%rdx),%ecx
    facf:	89 08                	mov    %ecx,(%rax)
    fad1:	48 8d 40 04          	lea    0x4(%rax),%rax
    fad5:	48 8d 52 04          	lea    0x4(%rdx),%rdx
    fad9:	48 b8 de 12 54 f2 dc 	movabs $0x6316e8dcf25412de,%rax
    fae0:	e8 16 63 
    fae3:	48 89 85 90 fe ff ff 	mov    %rax,-0x170(%rbp)
    faea:	48 8d 05 9f ab 00 00 	lea    0xab9f(%rip),%rax        # 1a690 <g_695>
    faf1:	48 89 85 98 fe ff ff 	mov    %rax,-0x168(%rbp)
    faf8:	c7 85 24 fe ff ff ff 	movl   $0xffffffff,-0x1dc(%rbp)
    faff:	ff ff ff 
    fb02:	0f b6 05 39 75 00 00 	movzbl 0x7539(%rip),%eax        # 17042 <g_32>
    fb09:	83 c0 01             	add    $0x1,%eax
    fb0c:	88 05 30 75 00 00    	mov    %al,0x7530(%rip)        # 17042 <g_32>
    fb12:	0f b6 05 29 75 00 00 	movzbl 0x7529(%rip),%eax        # 17042 <g_32>
    fb19:	3c 02                	cmp    $0x2,%al
    fb1b:	0f 8e 31 ff ff ff    	jle    fa52 <func_45+0x165>
    fb21:	8b 85 3c fe ff ff    	mov    -0x1c4(%rbp),%eax
    fb27:	48 8b 4d f8          	mov    -0x8(%rbp),%rcx
    fb2b:	64 48 33 0c 25 28 00 	xor    %fs:0x28,%rcx
    fb32:	00 00 
    fb34:	74 05                	je     fb3b <func_45+0x24e>
    fb36:	e8 35 95 ff ff       	callq  9070 <__stack_chk_fail@plt>
    fb3b:	c9                   	leaveq 
    fb3c:	c3                   	retq   

000000000000fb3d <func_52>:
    fb3d:	f3 0f 1e fa          	endbr64 
    fb41:	55                   	push   %rbp
    fb42:	48 89 e5             	mov    %rsp,%rbp
    fb45:	41 56                	push   %r14
    fb47:	41 55                	push   %r13
    fb49:	41 54                	push   %r12
    fb4b:	53                   	push   %rbx
    fb4c:	48 81 ec 40 06 00 00 	sub    $0x640,%rsp
    fb53:	48 89 b5 b0 f9 ff ff 	mov    %rsi,-0x650(%rbp)
    fb5a:	89 d0                	mov    %edx,%eax
    fb5c:	89 ca                	mov    %ecx,%edx
    fb5e:	89 f9                	mov    %edi,%ecx
    fb60:	88 8d bc f9 ff ff    	mov    %cl,-0x644(%rbp)
    fb66:	66 89 85 b8 f9 ff ff 	mov    %ax,-0x648(%rbp)
    fb6d:	89 d0                	mov    %edx,%eax
    fb6f:	88 85 ac f9 ff ff    	mov    %al,-0x654(%rbp)
    fb75:	64 48 8b 04 25 28 00 	mov    %fs:0x28,%rax
    fb7c:	00 00 
    fb7e:	48 89 45 d8          	mov    %rax,-0x28(%rbp)
    fb82:	31 c0                	xor    %eax,%eax
    fb84:	66 c7 85 38 fa ff ff 	movw   $0x101,-0x5c8(%rbp)
    fb8b:	01 01 
    fb8d:	66 c7 85 3a fa ff ff 	movw   $0x101,-0x5c6(%rbp)
    fb94:	01 01 
    fb96:	66 c7 85 3c fa ff ff 	movw   $0x101,-0x5c4(%rbp)
    fb9d:	01 01 
    fb9f:	66 c7 85 3e fa ff ff 	movw   $0x101,-0x5c2(%rbp)
    fba6:	01 01 
    fba8:	48 8d 05 e9 af 00 00 	lea    0xafe9(%rip),%rax        # 1ab98 <g_414+0x18>
    fbaf:	48 89 85 e8 f9 ff ff 	mov    %rax,-0x618(%rbp)
    fbb6:	48 8d 85 50 fb ff ff 	lea    -0x4b0(%rbp),%rax
    fbbd:	48 8d 15 5c 9c 00 00 	lea    0x9c5c(%rip),%rdx        # 19820 <g_1455+0x1e70>
    fbc4:	b9 90 00 00 00       	mov    $0x90,%ecx
    fbc9:	48 89 c7             	mov    %rax,%rdi
    fbcc:	48 89 d6             	mov    %rdx,%rsi
    fbcf:	f3 48 a5             	rep movsq %ds:(%rsi),%es:(%rdi)
    fbd2:	c7 85 d0 f9 ff ff 00 	movl   $0x0,-0x630(%rbp)
    fbd9:	00 00 00 
    fbdc:	48 8d 05 7c 74 00 00 	lea    0x747c(%rip),%rax        # 1705f <g_67+0x7>
    fbe3:	48 89 85 f0 f9 ff ff 	mov    %rax,-0x610(%rbp)
    fbea:	48 c7 85 e0 f9 ff ff 	movq   $0x0,-0x620(%rbp)
    fbf1:	00 00 00 00 
    fbf5:	48 c7 85 f8 f9 ff ff 	movq   $0x0,-0x608(%rbp)
    fbfc:	00 00 00 00 
    fc00:	48 8d 85 40 fa ff ff 	lea    -0x5c0(%rbp),%rax
    fc07:	48 83 c0 08          	add    $0x8,%rax
    fc0b:	48 89 85 00 fa ff ff 	mov    %rax,-0x600(%rbp)
    fc12:	48 8d 05 87 aa 00 00 	lea    0xaa87(%rip),%rax        # 1a6a0 <g_901>
    fc19:	48 89 85 50 fa ff ff 	mov    %rax,-0x5b0(%rbp)
    fc20:	48 8d 05 79 aa 00 00 	lea    0xaa79(%rip),%rax        # 1a6a0 <g_901>
    fc27:	48 89 85 58 fa ff ff 	mov    %rax,-0x5a8(%rbp)
    fc2e:	48 8d 05 6b aa 00 00 	lea    0xaa6b(%rip),%rax        # 1a6a0 <g_901>
    fc35:	48 89 85 60 fa ff ff 	mov    %rax,-0x5a0(%rbp)
    fc3c:	48 8d 05 5d aa 00 00 	lea    0xaa5d(%rip),%rax        # 1a6a0 <g_901>
    fc43:	48 89 85 68 fa ff ff 	mov    %rax,-0x598(%rbp)
    fc4a:	48 8d 05 4f aa 00 00 	lea    0xaa4f(%rip),%rax        # 1a6a0 <g_901>
    fc51:	48 89 85 70 fa ff ff 	mov    %rax,-0x590(%rbp)
    fc58:	c6 85 ca f9 ff ff 05 	movb   $0x5,-0x636(%rbp)
    fc5f:	c7 85 d8 f9 ff ff 06 	movl   $0x6,-0x628(%rbp)
    fc66:	00 00 00 
    fc69:	48 c7 85 08 fa ff ff 	movq   $0x0,-0x5f8(%rbp)
    fc70:	00 00 00 00 
    fc74:	48 8d 85 d0 f9 ff ff 	lea    -0x630(%rbp),%rax
    fc7b:	48 89 85 10 fa ff ff 	mov    %rax,-0x5f0(%rbp)
    fc82:	66 c7 85 cc f9 ff ff 	movw   $0xa629,-0x634(%rbp)
    fc89:	29 a6 
    fc8b:	48 8d 05 9e 73 00 00 	lea    0x739e(%rip),%rax        # 17030 <g_6>
    fc92:	48 89 85 80 fa ff ff 	mov    %rax,-0x580(%rbp)
    fc99:	48 8d 05 90 73 00 00 	lea    0x7390(%rip),%rax        # 17030 <g_6>
    fca0:	48 89 85 88 fa ff ff 	mov    %rax,-0x578(%rbp)
    fca7:	48 8d 05 82 73 00 00 	lea    0x7382(%rip),%rax        # 17030 <g_6>
    fcae:	48 89 85 90 fa ff ff 	mov    %rax,-0x570(%rbp)
    fcb5:	48 8d 05 74 73 00 00 	lea    0x7374(%rip),%rax        # 17030 <g_6>
    fcbc:	48 89 85 98 fa ff ff 	mov    %rax,-0x568(%rbp)
    fcc3:	48 8d 05 66 73 00 00 	lea    0x7366(%rip),%rax        # 17030 <g_6>
    fcca:	48 89 85 a0 fa ff ff 	mov    %rax,-0x560(%rbp)
    fcd1:	66 c7 85 ce f9 ff ff 	movw   $0x7095,-0x632(%rbp)
    fcd8:	95 70 
    fcda:	c6 85 cb f9 ff ff f1 	movb   $0xf1,-0x635(%rbp)
    fce1:	48 c7 85 18 fa ff ff 	movq   $0x1,-0x5e8(%rbp)
    fce8:	01 00 00 00 
    fcec:	c7 85 d4 f9 ff ff 00 	movl   $0x0,-0x62c(%rbp)
    fcf3:	00 00 00 
    fcf6:	eb 1e                	jmp    fd16 <func_52+0x1d9>
    fcf8:	8b 85 d4 f9 ff ff    	mov    -0x62c(%rbp),%eax
    fcfe:	48 98                	cltq   
    fd00:	48 8d 95 e0 f9 ff ff 	lea    -0x620(%rbp),%rdx
    fd07:	48 89 94 c5 40 fa ff 	mov    %rdx,-0x5c0(%rbp,%rax,8)
    fd0e:	ff 
    fd0f:	83 85 d4 f9 ff ff 01 	addl   $0x1,-0x62c(%rbp)
    fd16:	83 bd d4 f9 ff ff 01 	cmpl   $0x1,-0x62c(%rbp)
    fd1d:	7e d9                	jle    fcf8 <func_52+0x1bb>
    fd1f:	0f b6 85 3c fa ff ff 	movzbl -0x5c4(%rbp),%eax
    fd26:	0f b6 d8             	movzbl %al,%ebx
    fd29:	0f b6 15 2e 73 00 00 	movzbl 0x732e(%rip),%edx        # 1705e <g_67+0x6>
    fd30:	0f b6 85 3a fa ff ff 	movzbl -0x5c6(%rbp),%eax
    fd37:	31 c2                	xor    %eax,%edx
    fd39:	41 89 d5             	mov    %edx,%r13d
    fd3c:	8b 05 d2 79 00 00    	mov    0x79d2(%rip),%eax        # 17714 <g_120+0x34>
    fd42:	66 89 05 27 7c 00 00 	mov    %ax,0x7c27(%rip)        # 17970 <g_567>
    fd49:	0f b7 05 20 7c 00 00 	movzwl 0x7c20(%rip),%eax        # 17970 <g_567>
    fd50:	98                   	cwtl   
    fd51:	be 00 00 00 00       	mov    $0x0,%esi
    fd56:	89 c7                	mov    %eax,%edi
    fd58:	e8 35 97 ff ff       	callq  9492 <safe_lshift_func_int16_t_s_s>
    fd5d:	48 8d 05 34 ae 00 00 	lea    0xae34(%rip),%rax        # 1ab98 <g_414+0x18>
    fd64:	48 39 85 e8 f9 ff ff 	cmp    %rax,-0x618(%rbp)
    fd6b:	0f 95 c0             	setne  %al
    fd6e:	44 0f b6 e0          	movzbl %al,%r12d
    fd72:	be 05 00 00 00       	mov    $0x5,%esi
    fd77:	bf 00 00 00 00       	mov    $0x0,%edi
    fd7c:	e8 a9 97 ff ff       	callq  952a <safe_rshift_func_int16_t_s_s>
    fd81:	98                   	cwtl   
    fd82:	44 89 e6             	mov    %r12d,%esi
    fd85:	89 c7                	mov    %eax,%edi
    fd87:	e8 44 a1 ff ff       	callq  9ed0 <safe_sub_func_uint32_t_u_u>
    fd8c:	0f b6 c0             	movzbl %al,%eax
    fd8f:	be 06 00 00 00       	mov    $0x6,%esi
    fd94:	89 c7                	mov    %eax,%edi
    fd96:	e8 b1 9e ff ff       	callq  9c4c <safe_lshift_func_uint8_t_u_u>
    fd9b:	44 21 e8             	and    %r13d,%eax
    fd9e:	0f b6 c0             	movzbl %al,%eax
    fda1:	66 0d 30 91          	or     $0x9130,%ax
    fda5:	0f b7 c0             	movzwl %ax,%eax
    fda8:	89 de                	mov    %ebx,%esi
    fdaa:	89 c7                	mov    %eax,%edi
    fdac:	e8 dd 9f ff ff       	callq  9d8e <safe_div_func_uint16_t_u_u>
    fdb1:	66 85 c0             	test   %ax,%ax
    fdb4:	0f 84 92 02 00 00    	je     1004c <func_52+0x50f>
    fdba:	48 8d 05 7f 79 00 00 	lea    0x797f(%rip),%rax        # 17740 <g_122>
    fdc1:	48 89 85 20 fa ff ff 	mov    %rax,-0x5e0(%rbp)
    fdc8:	48 8d 05 71 72 00 00 	lea    0x7271(%rip),%rax        # 17040 <g_20+0x4>
    fdcf:	48 89 85 28 fa ff ff 	mov    %rax,-0x5d8(%rbp)
    fdd6:	48 8d 05 a3 7b 00 00 	lea    0x7ba3(%rip),%rax        # 17980 <g_706>
    fddd:	48 89 85 30 fa ff ff 	mov    %rax,-0x5d0(%rbp)
    fde4:	48 c7 85 b0 fa ff ff 	movq   $0x0,-0x550(%rbp)
    fdeb:	00 00 00 00 
    fdef:	48 8d 05 4c 72 00 00 	lea    0x724c(%rip),%rax        # 17042 <g_32>
    fdf6:	48 89 85 b8 fa ff ff 	mov    %rax,-0x548(%rbp)
    fdfd:	48 8d 05 3e 72 00 00 	lea    0x723e(%rip),%rax        # 17042 <g_32>
    fe04:	48 89 85 c0 fa ff ff 	mov    %rax,-0x540(%rbp)
    fe0b:	48 c7 85 c8 fa ff ff 	movq   $0x0,-0x538(%rbp)
    fe12:	00 00 00 00 
    fe16:	48 8d 05 25 72 00 00 	lea    0x7225(%rip),%rax        # 17042 <g_32>
    fe1d:	48 89 85 d0 fa ff ff 	mov    %rax,-0x530(%rbp)
    fe24:	48 8d 05 17 72 00 00 	lea    0x7217(%rip),%rax        # 17042 <g_32>
    fe2b:	48 89 85 d8 fa ff ff 	mov    %rax,-0x528(%rbp)
    fe32:	48 c7 85 e0 fa ff ff 	movq   $0x0,-0x520(%rbp)
    fe39:	00 00 00 00 
    fe3d:	bf 00 00 00 00       	mov    $0x0,%edi
    fe42:	e8 a2 9e ff ff       	callq  9ce9 <safe_unary_minus_func_uint16_t_u>
    fe47:	0f b7 d0             	movzwl %ax,%edx
    fe4a:	48 8b 85 20 fa ff ff 	mov    -0x5e0(%rbp),%rax
    fe51:	89 10                	mov    %edx,(%rax)
    fe53:	0f b6 85 3d fa ff ff 	movzbl -0x5c3(%rbp),%eax
    fe5a:	0f b6 d0             	movzbl %al,%edx
    fe5d:	48 8b 85 20 fa ff ff 	mov    -0x5e0(%rbp),%rax
    fe64:	8b 00                	mov    (%rax),%eax
    fe66:	21 c2                	and    %eax,%edx
    fe68:	48 8b 85 20 fa ff ff 	mov    -0x5e0(%rbp),%rax
    fe6f:	89 10                	mov    %edx,(%rax)
    fe71:	48 8b 85 20 fa ff ff 	mov    -0x5e0(%rbp),%rax
    fe78:	8b 18                	mov    (%rax),%ebx
    fe7a:	48 8b 85 20 fa ff ff 	mov    -0x5e0(%rbp),%rax
    fe81:	8b 00                	mov    (%rax),%eax
    fe83:	44 0f bf e0          	movswl %ax,%r12d
    fe87:	48 8b 05 0a a8 00 00 	mov    0xa80a(%rip),%rax        # 1a698 <g_694>
    fe8e:	48 8b 00             	mov    (%rax),%rax
    fe91:	48 8b 00             	mov    (%rax),%rax
    fe94:	48 8b 00             	mov    (%rax),%rax
    fe97:	8b 00                	mov    (%rax),%eax
    fe99:	41 89 c6             	mov    %eax,%r14d
    fe9c:	8b 05 9e 78 00 00    	mov    0x789e(%rip),%eax        # 17740 <g_122>
    fea2:	44 0f b7 e8          	movzwl %ax,%r13d
    fea6:	0f b6 85 3a fa ff ff 	movzbl -0x5c6(%rbp),%eax
    fead:	88 85 bc f9 ff ff    	mov    %al,-0x644(%rbp)
    feb3:	8b 05 7b 71 00 00    	mov    0x717b(%rip),%eax        # 17034 <g_7>
    feb9:	0f b6 c0             	movzbl %al,%eax
    febc:	89 c6                	mov    %eax,%esi
    febe:	bf 02 00 00 00       	mov    $0x2,%edi
    fec3:	e8 13 9d ff ff       	callq  9bdb <safe_div_func_uint8_t_u_u>
    fec8:	48 8b 95 b0 f9 ff ff 	mov    -0x650(%rbp),%rdx
    fecf:	48 8b 12             	mov    (%rdx),%rdx
    fed2:	0f b6 c0             	movzbl %al,%eax
    fed5:	48 09 c2             	or     %rax,%rdx
    fed8:	48 8b 85 b0 f9 ff ff 	mov    -0x650(%rbp),%rax
    fedf:	48 89 10             	mov    %rdx,(%rax)
    fee2:	48 8b 85 b0 f9 ff ff 	mov    -0x650(%rbp),%rax
    fee9:	48 8b 10             	mov    (%rax),%rdx
    feec:	48 8b 05 55 71 00 00 	mov    0x7155(%rip),%rax        # 17048 <g_61>
    fef3:	48 31 d0             	xor    %rdx,%rax
    fef6:	48 89 c2             	mov    %rax,%rdx
    fef9:	0f b6 85 bc f9 ff ff 	movzbl -0x644(%rbp),%eax
    ff00:	48 89 d6             	mov    %rdx,%rsi
    ff03:	48 89 c7             	mov    %rax,%rdi
    ff06:	e8 a4 a1 ff ff       	callq  a0af <safe_div_func_uint64_t_u_u>
    ff0b:	48 85 c0             	test   %rax,%rax
    ff0e:	74 11                	je     ff21 <func_52+0x3e4>
    ff10:	8b 05 fe 77 00 00    	mov    0x77fe(%rip),%eax        # 17714 <g_120+0x34>
    ff16:	85 c0                	test   %eax,%eax
    ff18:	74 07                	je     ff21 <func_52+0x3e4>
    ff1a:	b8 01 00 00 00       	mov    $0x1,%eax
    ff1f:	eb 05                	jmp    ff26 <func_52+0x3e9>
    ff21:	b8 00 00 00 00       	mov    $0x0,%eax
    ff26:	0f b7 c0             	movzwl %ax,%eax
    ff29:	44 89 ee             	mov    %r13d,%esi
    ff2c:	89 c7                	mov    %eax,%edi
    ff2e:	e8 0a 9e ff ff       	callq  9d3d <safe_mul_func_uint16_t_u_u>
    ff33:	0f b7 d0             	movzwl %ax,%edx
    ff36:	48 8b 85 30 fa ff ff 	mov    -0x5d0(%rbp),%rax
    ff3d:	8b 00                	mov    (%rax),%eax
    ff3f:	8d 70 ff             	lea    -0x1(%rax),%esi
    ff42:	48 8b 8d 30 fa ff ff 	mov    -0x5d0(%rbp),%rcx
    ff49:	89 31                	mov    %esi,(%rcx)
    ff4b:	89 d6                	mov    %edx,%esi
    ff4d:	89 c7                	mov    %eax,%edi
    ff4f:	e8 7c 9f ff ff       	callq  9ed0 <safe_sub_func_uint32_t_u_u>
    ff54:	8b 05 f2 ab 00 00    	mov    0xabf2(%rip),%eax        # 1ab4c <g_51>
    ff5a:	0f be c0             	movsbl %al,%eax
    ff5d:	89 c7                	mov    %eax,%edi
    ff5f:	e8 5b 92 ff ff       	callq  91bf <safe_unary_minus_func_int8_t_s>
    ff64:	0f be c0             	movsbl %al,%eax
    ff67:	be 01 00 00 00       	mov    $0x1,%esi
    ff6c:	89 c7                	mov    %eax,%edi
    ff6e:	e8 5d 9f ff ff       	callq  9ed0 <safe_sub_func_uint32_t_u_u>
    ff73:	0f b6 95 bc f9 ff ff 	movzbl -0x644(%rbp),%edx
    ff7a:	48 8b 85 28 fa ff ff 	mov    -0x5d8(%rbp),%rax
    ff81:	0f b7 00             	movzwl (%rax),%eax
    ff84:	8d 48 ff             	lea    -0x1(%rax),%ecx
    ff87:	48 8b 85 28 fa ff ff 	mov    -0x5d8(%rbp),%rax
    ff8e:	66 89 08             	mov    %cx,(%rax)
    ff91:	48 8b 85 28 fa ff ff 	mov    -0x5d8(%rbp),%rax
    ff98:	0f b7 00             	movzwl (%rax),%eax
    ff9b:	0f b7 c0             	movzwl %ax,%eax
    ff9e:	89 d6                	mov    %edx,%esi
    ffa0:	89 c7                	mov    %eax,%edi
    ffa2:	e8 5f 9e ff ff       	callq  9e06 <safe_lshift_func_uint16_t_u_u>
    ffa7:	0f b7 c0             	movzwl %ax,%eax
    ffaa:	44 89 f6             	mov    %r14d,%esi
    ffad:	89 c7                	mov    %eax,%edi
    ffaf:	e8 04 9f ff ff       	callq  9eb8 <safe_add_func_uint32_t_u_u>
    ffb4:	b8 00 00 00 00       	mov    $0x0,%eax
    ffb9:	98                   	cwtl   
    ffba:	44 89 e6             	mov    %r12d,%esi
    ffbd:	89 c7                	mov    %eax,%edi
    ffbf:	e8 31 94 ff ff       	callq  93f5 <safe_mul_func_int16_t_s_s>
    ffc4:	66 85 c0             	test   %ax,%ax
    ffc7:	74 07                	je     ffd0 <func_52+0x493>
    ffc9:	b8 01 00 00 00       	mov    $0x1,%eax
    ffce:	eb 05                	jmp    ffd5 <func_52+0x498>
    ffd0:	b8 00 00 00 00       	mov    $0x0,%eax
    ffd5:	0f be c0             	movsbl %al,%eax
    ffd8:	89 de                	mov    %ebx,%esi
    ffda:	89 c7                	mov    %eax,%edi
    ffdc:	e8 54 93 ff ff       	callq  9335 <safe_rshift_func_int8_t_s_s>
    ffe1:	be 00 00 00 00       	mov    $0x0,%esi
    ffe6:	48 bf cc 90 a6 d4 aa 	movabs $0x991cdeaad4a690cc,%rdi
    ffed:	de 1c 99 
    fff0:	e8 4c 98 ff ff       	callq  9841 <safe_add_func_int64_t_s_s>
    fff5:	89 c2                	mov    %eax,%edx
    fff7:	8b 85 d0 f9 ff ff    	mov    -0x630(%rbp),%eax
    fffd:	09 d0                	or     %edx,%eax
    ffff:	89 85 d0 f9 ff ff    	mov    %eax,-0x630(%rbp)
   10005:	8b 85 d0 f9 ff ff    	mov    -0x630(%rbp),%eax
   1000b:	89 c2                	mov    %eax,%edx
   1000d:	8b 05 3d ab 00 00    	mov    0xab3d(%rip),%eax        # 1ab50 <g_81>
   10013:	39 c2                	cmp    %eax,%edx
   10015:	0f 93 c0             	setae  %al
   10018:	0f b6 d0             	movzbl %al,%edx
   1001b:	48 8b 05 a6 76 00 00 	mov    0x76a6(%rip),%rax        # 176c8 <g_118>
   10022:	0f b6 c0             	movzbl %al,%eax
   10025:	89 d6                	mov    %edx,%esi
   10027:	89 c7                	mov    %eax,%edi
   10029:	e8 5f 9c ff ff       	callq  9c8d <safe_rshift_func_uint8_t_u_s>
   1002e:	84 c0                	test   %al,%al
   10030:	74 07                	je     10039 <func_52+0x4fc>
   10032:	ba 01 00 00 00       	mov    $0x1,%edx
   10037:	eb 05                	jmp    1003e <func_52+0x501>
   10039:	ba 00 00 00 00       	mov    $0x0,%edx
   1003e:	48 8b 85 20 fa ff ff 	mov    -0x5e0(%rbp),%rax
   10045:	89 10                	mov    %edx,(%rax)
   10047:	e9 30 01 00 00       	jmpq   1017c <func_52+0x63f>
   1004c:	c7 85 dc f9 ff ff ee 	movl   $0x55434aee,-0x624(%rbp)
   10053:	4a 43 55 
   10056:	48 8d 05 e3 76 00 00 	lea    0x76e3(%rip),%rax        # 17740 <g_122>
   1005d:	48 89 85 b0 fa ff ff 	mov    %rax,-0x550(%rbp)
   10064:	48 8d 05 e9 76 00 00 	lea    0x76e9(%rip),%rax        # 17754 <g_122+0x14>
   1006b:	48 89 85 b8 fa ff ff 	mov    %rax,-0x548(%rbp)
   10072:	48 8d 05 c7 76 00 00 	lea    0x76c7(%rip),%rax        # 17740 <g_122>
   10079:	48 89 85 c0 fa ff ff 	mov    %rax,-0x540(%rbp)
   10080:	48 8d 05 b9 76 00 00 	lea    0x76b9(%rip),%rax        # 17740 <g_122>
   10087:	48 89 85 c8 fa ff ff 	mov    %rax,-0x538(%rbp)
   1008e:	48 8d 05 bf 76 00 00 	lea    0x76bf(%rip),%rax        # 17754 <g_122+0x14>
   10095:	48 89 85 d0 fa ff ff 	mov    %rax,-0x530(%rbp)
   1009c:	48 8d 05 9d 76 00 00 	lea    0x769d(%rip),%rax        # 17740 <g_122>
   100a3:	48 89 85 d8 fa ff ff 	mov    %rax,-0x528(%rbp)
   100aa:	48 8d 05 8f 76 00 00 	lea    0x768f(%rip),%rax        # 17740 <g_122>
   100b1:	48 89 85 e0 fa ff ff 	mov    %rax,-0x520(%rbp)
   100b8:	48 8d 05 95 76 00 00 	lea    0x7695(%rip),%rax        # 17754 <g_122+0x14>
   100bf:	48 89 85 e8 fa ff ff 	mov    %rax,-0x518(%rbp)
   100c6:	48 8d 05 73 76 00 00 	lea    0x7673(%rip),%rax        # 17740 <g_122>
   100cd:	48 89 85 f0 fa ff ff 	mov    %rax,-0x510(%rbp)
   100d4:	48 8d 05 65 76 00 00 	lea    0x7665(%rip),%rax        # 17740 <g_122>
   100db:	48 89 85 f8 fa ff ff 	mov    %rax,-0x508(%rbp)
   100e2:	48 8d 05 6b 76 00 00 	lea    0x766b(%rip),%rax        # 17754 <g_122+0x14>
   100e9:	48 89 85 00 fb ff ff 	mov    %rax,-0x500(%rbp)
   100f0:	48 8d 05 5d 76 00 00 	lea    0x765d(%rip),%rax        # 17754 <g_122+0x14>
   100f7:	48 89 85 08 fb ff ff 	mov    %rax,-0x4f8(%rbp)
   100fe:	48 8d 05 2b 6f 00 00 	lea    0x6f2b(%rip),%rax        # 17030 <g_6>
   10105:	48 89 85 10 fb ff ff 	mov    %rax,-0x4f0(%rbp)
   1010c:	48 8d 05 41 76 00 00 	lea    0x7641(%rip),%rax        # 17754 <g_122+0x14>
   10113:	48 89 85 18 fb ff ff 	mov    %rax,-0x4e8(%rbp)
   1011a:	48 8d 05 33 76 00 00 	lea    0x7633(%rip),%rax        # 17754 <g_122+0x14>
   10121:	48 89 85 20 fb ff ff 	mov    %rax,-0x4e0(%rbp)
   10128:	48 8d 05 01 6f 00 00 	lea    0x6f01(%rip),%rax        # 17030 <g_6>
   1012f:	48 89 85 28 fb ff ff 	mov    %rax,-0x4d8(%rbp)
   10136:	48 8d 05 17 76 00 00 	lea    0x7617(%rip),%rax        # 17754 <g_122+0x14>
   1013d:	48 89 85 30 fb ff ff 	mov    %rax,-0x4d0(%rbp)
   10144:	48 8d 05 09 76 00 00 	lea    0x7609(%rip),%rax        # 17754 <g_122+0x14>
   1014b:	48 89 85 38 fb ff ff 	mov    %rax,-0x4c8(%rbp)
   10152:	48 8d 05 d7 6e 00 00 	lea    0x6ed7(%rip),%rax        # 17030 <g_6>
   10159:	48 89 85 40 fb ff ff 	mov    %rax,-0x4c0(%rbp)
   10160:	48 8d 05 ed 75 00 00 	lea    0x75ed(%rip),%rax        # 17754 <g_122+0x14>
   10167:	48 89 85 48 fb ff ff 	mov    %rax,-0x4b8(%rbp)
   1016e:	48 8d 85 d0 f9 ff ff 	lea    -0x630(%rbp),%rax
   10175:	48 89 85 f0 fa ff ff 	mov    %rax,-0x510(%rbp)
   1017c:	48 8b 05 fd a4 00 00 	mov    0xa4fd(%rip),%rax        # 1a680 <g_395>
   10183:	48 8b 00             	mov    (%rax),%rax
   10186:	48 8b 10             	mov    (%rax),%rdx
   10189:	48 8b 05 e8 a4 00 00 	mov    0xa4e8(%rip),%rax        # 1a678 <g_396>
   10190:	48 8b 00             	mov    (%rax),%rax
   10193:	48 8b 12             	mov    (%rdx),%rdx
   10196:	48 89 10             	mov    %rdx,(%rax)
   10199:	48 83 ad 18 fa ff ff 	subq   $0x1,-0x5e8(%rbp)
   101a0:	01 
   101a1:	8b 05 89 6e 00 00    	mov    0x6e89(%rip),%eax        # 17030 <g_6>
   101a7:	48 8b 5d d8          	mov    -0x28(%rbp),%rbx
   101ab:	64 48 33 1c 25 28 00 	xor    %fs:0x28,%rbx
   101b2:	00 00 
   101b4:	74 05                	je     101bb <func_52+0x67e>
   101b6:	e8 b5 8e ff ff       	callq  9070 <__stack_chk_fail@plt>
   101bb:	48 81 c4 40 06 00 00 	add    $0x640,%rsp
   101c2:	5b                   	pop    %rbx
   101c3:	41 5c                	pop    %r12
   101c5:	41 5d                	pop    %r13
   101c7:	41 5e                	pop    %r14
   101c9:	5d                   	pop    %rbp
   101ca:	c3                   	retq   

00000000000101cb <func_69>:
   101cb:	f3 0f 1e fa          	endbr64 
   101cf:	55                   	push   %rbp
   101d0:	48 89 e5             	mov    %rsp,%rbp
   101d3:	41 55                	push   %r13
   101d5:	41 54                	push   %r12
   101d7:	53                   	push   %rbx
   101d8:	48 81 ec 00 10 00 00 	sub    $0x1000,%rsp
   101df:	48 83 0c 24 00       	orq    $0x0,(%rsp)
   101e4:	48 81 ec f8 02 00 00 	sub    $0x2f8,%rsp
   101eb:	48 89 bd f8 ec ff ff 	mov    %rdi,-0x1308(%rbp)
   101f2:	48 89 b5 f0 ec ff ff 	mov    %rsi,-0x1310(%rbp)
   101f9:	64 48 8b 04 25 28 00 	mov    %fs:0x28,%rax
   10200:	00 00 
   10202:	48 89 45 d8          	mov    %rax,-0x28(%rbp)
   10206:	31 c0                	xor    %eax,%eax
   10208:	48 c7 85 70 ed ff ff 	movq   $0x0,-0x1290(%rbp)
   1020f:	00 00 00 00 
   10213:	48 8d 85 50 f2 ff ff 	lea    -0xdb0(%rbp),%rax
   1021a:	48 8d 15 7f 9a 00 00 	lea    0x9a7f(%rip),%rdx        # 19ca0 <g_1455+0x22f0>
   10221:	b9 b4 00 00 00       	mov    $0xb4,%ecx
   10226:	48 89 c7             	mov    %rax,%rdi
   10229:	48 89 d6             	mov    %rdx,%rsi
   1022c:	f3 48 a5             	rep movsq %ds:(%rsi),%es:(%rdi)
   1022f:	c7 85 08 ed ff ff 01 	movl   $0x1,-0x12f8(%rbp)
   10236:	00 00 00 
   10239:	c7 85 2c ed ff ff fb 	movl   $0xfffffffb,-0x12d4(%rbp)
   10240:	ff ff ff 
   10243:	48 8d 05 7e 74 00 00 	lea    0x747e(%rip),%rax        # 176c8 <g_118>
   1024a:	48 89 85 30 ed ff ff 	mov    %rax,-0x12d0(%rbp)
   10251:	48 8d 05 d8 6d 00 00 	lea    0x6dd8(%rip),%rax        # 17030 <g_6>
   10258:	48 89 85 38 ed ff ff 	mov    %rax,-0x12c8(%rbp)
   1025f:	48 c7 85 d0 ed ff ff 	movq   $0x0,-0x1230(%rbp)
   10266:	00 00 00 00 
   1026a:	48 8d 85 38 ed ff ff 	lea    -0x12c8(%rbp),%rax
   10271:	48 89 85 d8 ed ff ff 	mov    %rax,-0x1228(%rbp)
   10278:	48 8d 85 38 ed ff ff 	lea    -0x12c8(%rbp),%rax
   1027f:	48 89 85 e0 ed ff ff 	mov    %rax,-0x1220(%rbp)
   10286:	48 c7 85 e8 ed ff ff 	movq   $0x0,-0x1218(%rbp)
   1028d:	00 00 00 00 
   10291:	48 8d 85 38 ed ff ff 	lea    -0x12c8(%rbp),%rax
   10298:	48 89 85 f0 ed ff ff 	mov    %rax,-0x1210(%rbp)
   1029f:	48 c7 85 f8 ed ff ff 	movq   $0x0,-0x1208(%rbp)
   102a6:	00 00 00 00 
   102aa:	48 8d 85 38 ed ff ff 	lea    -0x12c8(%rbp),%rax
   102b1:	48 89 85 00 ee ff ff 	mov    %rax,-0x1200(%rbp)
   102b8:	48 8d 85 38 ed ff ff 	lea    -0x12c8(%rbp),%rax
   102bf:	48 89 85 08 ee ff ff 	mov    %rax,-0x11f8(%rbp)
   102c6:	48 c7 85 10 ee ff ff 	movq   $0x0,-0x11f0(%rbp)
   102cd:	00 00 00 00 
   102d1:	48 c7 85 18 ee ff ff 	movq   $0x0,-0x11e8(%rbp)
   102d8:	00 00 00 00 
   102dc:	48 8d 85 38 ed ff ff 	lea    -0x12c8(%rbp),%rax
   102e3:	48 89 85 20 ee ff ff 	mov    %rax,-0x11e0(%rbp)
   102ea:	48 c7 85 28 ee ff ff 	movq   $0x0,-0x11d8(%rbp)
   102f1:	00 00 00 00 
   102f5:	48 c7 85 30 ee ff ff 	movq   $0x0,-0x11d0(%rbp)
   102fc:	00 00 00 00 
   10300:	48 8d 85 38 ed ff ff 	lea    -0x12c8(%rbp),%rax
   10307:	48 89 85 38 ee ff ff 	mov    %rax,-0x11c8(%rbp)
   1030e:	48 8d 85 38 ed ff ff 	lea    -0x12c8(%rbp),%rax
   10315:	48 89 85 40 ee ff ff 	mov    %rax,-0x11c0(%rbp)
   1031c:	48 c7 85 48 ee ff ff 	movq   $0x0,-0x11b8(%rbp)
   10323:	00 00 00 00 
   10327:	48 8d 85 38 ed ff ff 	lea    -0x12c8(%rbp),%rax
   1032e:	48 89 85 50 ee ff ff 	mov    %rax,-0x11b0(%rbp)
   10335:	48 c7 85 58 ee ff ff 	movq   $0x0,-0x11a8(%rbp)
   1033c:	00 00 00 00 
   10340:	48 8d 85 38 ed ff ff 	lea    -0x12c8(%rbp),%rax
   10347:	48 89 85 60 ee ff ff 	mov    %rax,-0x11a0(%rbp)
   1034e:	48 8d 85 38 ed ff ff 	lea    -0x12c8(%rbp),%rax
   10355:	48 89 85 68 ee ff ff 	mov    %rax,-0x1198(%rbp)
   1035c:	48 c7 85 70 ee ff ff 	movq   $0x0,-0x1190(%rbp)
   10363:	00 00 00 00 
   10367:	48 c7 85 78 ee ff ff 	movq   $0x0,-0x1188(%rbp)
   1036e:	00 00 00 00 
   10372:	48 8d 85 38 ed ff ff 	lea    -0x12c8(%rbp),%rax
   10379:	48 89 85 80 ee ff ff 	mov    %rax,-0x1180(%rbp)
   10380:	48 c7 85 88 ee ff ff 	movq   $0x0,-0x1178(%rbp)
   10387:	00 00 00 00 
   1038b:	48 8d 85 d0 ed ff ff 	lea    -0x1230(%rbp),%rax
   10392:	48 83 c0 58          	add    $0x58,%rax
   10396:	48 89 85 f0 f7 ff ff 	mov    %rax,-0x810(%rbp)
   1039d:	48 8d 85 d0 ed ff ff 	lea    -0x1230(%rbp),%rax
   103a4:	48 83 c0 08          	add    $0x8,%rax
   103a8:	48 89 85 f8 f7 ff ff 	mov    %rax,-0x808(%rbp)
   103af:	48 8d 85 d0 ed ff ff 	lea    -0x1230(%rbp),%rax
   103b6:	48 83 c0 58          	add    $0x58,%rax
   103ba:	48 89 85 00 f8 ff ff 	mov    %rax,-0x800(%rbp)
   103c1:	48 8d 85 d0 ed ff ff 	lea    -0x1230(%rbp),%rax
   103c8:	48 83 c0 60          	add    $0x60,%rax
   103cc:	48 89 85 08 f8 ff ff 	mov    %rax,-0x7f8(%rbp)
   103d3:	48 8d 85 d0 ed ff ff 	lea    -0x1230(%rbp),%rax
   103da:	48 83 c0 28          	add    $0x28,%rax
   103de:	48 89 85 10 f8 ff ff 	mov    %rax,-0x7f0(%rbp)
   103e5:	48 8d 85 d0 ed ff ff 	lea    -0x1230(%rbp),%rax
   103ec:	48 83 c0 58          	add    $0x58,%rax
   103f0:	48 89 85 18 f8 ff ff 	mov    %rax,-0x7e8(%rbp)
   103f7:	48 8d 85 d0 ed ff ff 	lea    -0x1230(%rbp),%rax
   103fe:	48 83 c0 58          	add    $0x58,%rax
   10402:	48 89 85 20 f8 ff ff 	mov    %rax,-0x7e0(%rbp)
   10409:	48 8d 85 d0 ed ff ff 	lea    -0x1230(%rbp),%rax
   10410:	48 83 c0 58          	add    $0x58,%rax
   10414:	48 89 85 28 f8 ff ff 	mov    %rax,-0x7d8(%rbp)
   1041b:	48 8d 85 d0 ed ff ff 	lea    -0x1230(%rbp),%rax
   10422:	48 83 c0 68          	add    $0x68,%rax
   10426:	48 89 85 30 f8 ff ff 	mov    %rax,-0x7d0(%rbp)
   1042d:	48 8d 85 d0 ed ff ff 	lea    -0x1230(%rbp),%rax
   10434:	48 83 c0 08          	add    $0x8,%rax
   10438:	48 89 85 38 f8 ff ff 	mov    %rax,-0x7c8(%rbp)
   1043f:	48 8d 85 d0 ed ff ff 	lea    -0x1230(%rbp),%rax
   10446:	48 05 b0 00 00 00    	add    $0xb0,%rax
   1044c:	48 89 85 40 f8 ff ff 	mov    %rax,-0x7c0(%rbp)
   10453:	48 c7 85 48 f8 ff ff 	movq   $0x0,-0x7b8(%rbp)
   1045a:	00 00 00 00 
   1045e:	48 8d 85 d0 ed ff ff 	lea    -0x1230(%rbp),%rax
   10465:	48 83 c0 58          	add    $0x58,%rax
   10469:	48 89 85 50 f8 ff ff 	mov    %rax,-0x7b0(%rbp)
   10470:	48 8d 85 d0 ed ff ff 	lea    -0x1230(%rbp),%rax
   10477:	48 83 c0 58          	add    $0x58,%rax
   1047b:	48 89 85 58 f8 ff ff 	mov    %rax,-0x7a8(%rbp)
   10482:	48 8d 85 d0 ed ff ff 	lea    -0x1230(%rbp),%rax
   10489:	48 83 c0 58          	add    $0x58,%rax
   1048d:	48 89 85 60 f8 ff ff 	mov    %rax,-0x7a0(%rbp)
   10494:	48 8d 85 d0 ed ff ff 	lea    -0x1230(%rbp),%rax
   1049b:	48 83 c0 58          	add    $0x58,%rax
   1049f:	48 89 85 68 f8 ff ff 	mov    %rax,-0x798(%rbp)
   104a6:	48 c7 85 70 f8 ff ff 	movq   $0x0,-0x790(%rbp)
   104ad:	00 00 00 00 
   104b1:	48 c7 85 78 f8 ff ff 	movq   $0x0,-0x788(%rbp)
   104b8:	00 00 00 00 
   104bc:	48 8d 85 d0 ed ff ff 	lea    -0x1230(%rbp),%rax
   104c3:	48 83 c0 40          	add    $0x40,%rax
   104c7:	48 89 85 80 f8 ff ff 	mov    %rax,-0x780(%rbp)
   104ce:	48 8d 85 d0 ed ff ff 	lea    -0x1230(%rbp),%rax
   104d5:	48 05 88 00 00 00    	add    $0x88,%rax
   104db:	48 89 85 88 f8 ff ff 	mov    %rax,-0x778(%rbp)
   104e2:	48 8d 85 d0 ed ff ff 	lea    -0x1230(%rbp),%rax
   104e9:	48 83 c0 58          	add    $0x58,%rax
   104ed:	48 89 85 90 f8 ff ff 	mov    %rax,-0x770(%rbp)
   104f4:	48 8d 85 d0 ed ff ff 	lea    -0x1230(%rbp),%rax
   104fb:	48 83 e8 80          	sub    $0xffffffffffffff80,%rax
   104ff:	48 89 85 98 f8 ff ff 	mov    %rax,-0x768(%rbp)
   10506:	48 8d 85 d0 ed ff ff 	lea    -0x1230(%rbp),%rax
   1050d:	48 83 c0 58          	add    $0x58,%rax
   10511:	48 89 85 a0 f8 ff ff 	mov    %rax,-0x760(%rbp)
   10518:	48 8d 85 d0 ed ff ff 	lea    -0x1230(%rbp),%rax
   1051f:	48 83 c0 58          	add    $0x58,%rax
   10523:	48 89 85 a8 f8 ff ff 	mov    %rax,-0x758(%rbp)
   1052a:	48 8d 85 d0 ed ff ff 	lea    -0x1230(%rbp),%rax
   10531:	48 83 c0 58          	add    $0x58,%rax
   10535:	48 89 85 b0 f8 ff ff 	mov    %rax,-0x750(%rbp)
   1053c:	48 8d 85 d0 ed ff ff 	lea    -0x1230(%rbp),%rax
   10543:	48 83 c0 58          	add    $0x58,%rax
   10547:	48 89 85 b8 f8 ff ff 	mov    %rax,-0x748(%rbp)
   1054e:	48 8d 85 d0 ed ff ff 	lea    -0x1230(%rbp),%rax
   10555:	48 83 c0 58          	add    $0x58,%rax
   10559:	48 89 85 c0 f8 ff ff 	mov    %rax,-0x740(%rbp)
   10560:	48 8d 85 d0 ed ff ff 	lea    -0x1230(%rbp),%rax
   10567:	48 83 c0 58          	add    $0x58,%rax
   1056b:	48 89 85 c8 f8 ff ff 	mov    %rax,-0x738(%rbp)
   10572:	48 8d 85 d0 ed ff ff 	lea    -0x1230(%rbp),%rax
   10579:	48 83 c0 58          	add    $0x58,%rax
   1057d:	48 89 85 d0 f8 ff ff 	mov    %rax,-0x730(%rbp)
   10584:	48 8d 85 d0 ed ff ff 	lea    -0x1230(%rbp),%rax
   1058b:	48 83 c0 58          	add    $0x58,%rax
   1058f:	48 89 85 d8 f8 ff ff 	mov    %rax,-0x728(%rbp)
   10596:	48 8d 85 d0 ed ff ff 	lea    -0x1230(%rbp),%rax
   1059d:	48 83 c0 18          	add    $0x18,%rax
   105a1:	48 89 85 e0 f8 ff ff 	mov    %rax,-0x720(%rbp)
   105a8:	48 8d 85 d0 ed ff ff 	lea    -0x1230(%rbp),%rax
   105af:	48 05 98 00 00 00    	add    $0x98,%rax
   105b5:	48 89 85 e8 f8 ff ff 	mov    %rax,-0x718(%rbp)
   105bc:	48 c7 85 f0 f8 ff ff 	movq   $0x0,-0x710(%rbp)
   105c3:	00 00 00 00 
   105c7:	48 8d 85 d0 ed ff ff 	lea    -0x1230(%rbp),%rax
   105ce:	48 83 c0 58          	add    $0x58,%rax
   105d2:	48 89 85 f8 f8 ff ff 	mov    %rax,-0x708(%rbp)
   105d9:	48 8d 85 d0 ed ff ff 	lea    -0x1230(%rbp),%rax
   105e0:	48 83 c0 08          	add    $0x8,%rax
   105e4:	48 89 85 00 f9 ff ff 	mov    %rax,-0x700(%rbp)
   105eb:	48 8d 85 d0 ed ff ff 	lea    -0x1230(%rbp),%rax
   105f2:	48 05 a8 00 00 00    	add    $0xa8,%rax
   105f8:	48 89 85 08 f9 ff ff 	mov    %rax,-0x6f8(%rbp)
   105ff:	48 c7 85 10 f9 ff ff 	movq   $0x0,-0x6f0(%rbp)
   10606:	00 00 00 00 
   1060a:	48 8d 85 d0 ed ff ff 	lea    -0x1230(%rbp),%rax
   10611:	48 89 85 18 f9 ff ff 	mov    %rax,-0x6e8(%rbp)
   10618:	48 8d 85 d0 ed ff ff 	lea    -0x1230(%rbp),%rax
   1061f:	48 83 c0 60          	add    $0x60,%rax
   10623:	48 89 85 20 f9 ff ff 	mov    %rax,-0x6e0(%rbp)
   1062a:	48 c7 85 28 f9 ff ff 	movq   $0x0,-0x6d8(%rbp)
   10631:	00 00 00 00 
   10635:	48 8d 85 d0 ed ff ff 	lea    -0x1230(%rbp),%rax
   1063c:	48 83 c0 58          	add    $0x58,%rax
   10640:	48 89 85 30 f9 ff ff 	mov    %rax,-0x6d0(%rbp)
   10647:	48 8d 85 d0 ed ff ff 	lea    -0x1230(%rbp),%rax
   1064e:	48 83 c0 58          	add    $0x58,%rax
   10652:	48 89 85 38 f9 ff ff 	mov    %rax,-0x6c8(%rbp)
   10659:	48 c7 85 40 f9 ff ff 	movq   $0x0,-0x6c0(%rbp)
   10660:	00 00 00 00 
   10664:	48 8d 85 d0 ed ff ff 	lea    -0x1230(%rbp),%rax
   1066b:	48 83 c0 58          	add    $0x58,%rax
   1066f:	48 89 85 48 f9 ff ff 	mov    %rax,-0x6b8(%rbp)
   10676:	48 8d 85 d0 ed ff ff 	lea    -0x1230(%rbp),%rax
   1067d:	48 83 c0 58          	add    $0x58,%rax
   10681:	48 89 85 50 f9 ff ff 	mov    %rax,-0x6b0(%rbp)
   10688:	48 8d 85 d0 ed ff ff 	lea    -0x1230(%rbp),%rax
   1068f:	48 83 c0 58          	add    $0x58,%rax
   10693:	48 89 85 58 f9 ff ff 	mov    %rax,-0x6a8(%rbp)
   1069a:	48 8d 85 d0 ed ff ff 	lea    -0x1230(%rbp),%rax
   106a1:	48 83 c0 58          	add    $0x58,%rax
   106a5:	48 89 85 60 f9 ff ff 	mov    %rax,-0x6a0(%rbp)
   106ac:	48 8d 85 d0 ed ff ff 	lea    -0x1230(%rbp),%rax
   106b3:	48 83 c0 60          	add    $0x60,%rax
   106b7:	48 89 85 68 f9 ff ff 	mov    %rax,-0x698(%rbp)
   106be:	48 8d 85 d0 ed ff ff 	lea    -0x1230(%rbp),%rax
   106c5:	48 83 c0 58          	add    $0x58,%rax
   106c9:	48 89 85 70 f9 ff ff 	mov    %rax,-0x690(%rbp)
   106d0:	48 c7 85 78 f9 ff ff 	movq   $0x0,-0x688(%rbp)
   106d7:	00 00 00 00 
   106db:	48 8d 85 d0 ed ff ff 	lea    -0x1230(%rbp),%rax
   106e2:	48 05 98 00 00 00    	add    $0x98,%rax
   106e8:	48 89 85 80 f9 ff ff 	mov    %rax,-0x680(%rbp)
   106ef:	48 8d 85 d0 ed ff ff 	lea    -0x1230(%rbp),%rax
   106f6:	48 05 a8 00 00 00    	add    $0xa8,%rax
   106fc:	48 89 85 88 f9 ff ff 	mov    %rax,-0x678(%rbp)
   10703:	48 c7 85 90 f9 ff ff 	movq   $0x0,-0x670(%rbp)
   1070a:	00 00 00 00 
   1070e:	48 8d 85 d0 ed ff ff 	lea    -0x1230(%rbp),%rax
   10715:	48 83 c0 58          	add    $0x58,%rax
   10719:	48 89 85 98 f9 ff ff 	mov    %rax,-0x668(%rbp)
   10720:	48 8d 85 d0 ed ff ff 	lea    -0x1230(%rbp),%rax
   10727:	48 83 c0 58          	add    $0x58,%rax
   1072b:	48 89 85 a0 f9 ff ff 	mov    %rax,-0x660(%rbp)
   10732:	48 8d 85 d0 ed ff ff 	lea    -0x1230(%rbp),%rax
   10739:	48 83 c0 30          	add    $0x30,%rax
   1073d:	48 89 85 a8 f9 ff ff 	mov    %rax,-0x658(%rbp)
   10744:	48 8d 85 d0 ed ff ff 	lea    -0x1230(%rbp),%rax
   1074b:	48 05 a8 00 00 00    	add    $0xa8,%rax
   10751:	48 89 85 b0 f9 ff ff 	mov    %rax,-0x650(%rbp)
   10758:	48 c7 85 b8 f9 ff ff 	movq   $0x0,-0x648(%rbp)
   1075f:	00 00 00 00 
   10763:	48 8d 85 d0 ed ff ff 	lea    -0x1230(%rbp),%rax
   1076a:	48 83 c0 58          	add    $0x58,%rax
   1076e:	48 89 85 c0 f9 ff ff 	mov    %rax,-0x640(%rbp)
   10775:	48 8d 85 d0 ed ff ff 	lea    -0x1230(%rbp),%rax
   1077c:	48 83 c0 08          	add    $0x8,%rax
   10780:	48 89 85 c8 f9 ff ff 	mov    %rax,-0x638(%rbp)
   10787:	48 8d 85 d0 ed ff ff 	lea    -0x1230(%rbp),%rax
   1078e:	48 83 c0 58          	add    $0x58,%rax
   10792:	48 89 85 d0 f9 ff ff 	mov    %rax,-0x630(%rbp)
   10799:	48 8d 85 d0 ed ff ff 	lea    -0x1230(%rbp),%rax
   107a0:	48 05 a8 00 00 00    	add    $0xa8,%rax
   107a6:	48 89 85 d8 f9 ff ff 	mov    %rax,-0x628(%rbp)
   107ad:	48 c7 85 e0 f9 ff ff 	movq   $0x0,-0x620(%rbp)
   107b4:	00 00 00 00 
   107b8:	48 8d 85 d0 ed ff ff 	lea    -0x1230(%rbp),%rax
   107bf:	48 83 c0 58          	add    $0x58,%rax
   107c3:	48 89 85 e8 f9 ff ff 	mov    %rax,-0x618(%rbp)
   107ca:	48 8d 85 d0 ed ff ff 	lea    -0x1230(%rbp),%rax
   107d1:	48 05 a0 00 00 00    	add    $0xa0,%rax
   107d7:	48 89 85 f0 f9 ff ff 	mov    %rax,-0x610(%rbp)
   107de:	48 8d 85 d0 ed ff ff 	lea    -0x1230(%rbp),%rax
   107e5:	48 83 c0 58          	add    $0x58,%rax
   107e9:	48 89 85 f8 f9 ff ff 	mov    %rax,-0x608(%rbp)
   107f0:	48 c7 85 00 fa ff ff 	movq   $0x0,-0x600(%rbp)
   107f7:	00 00 00 00 
   107fb:	48 8d 85 d0 ed ff ff 	lea    -0x1230(%rbp),%rax
   10802:	48 83 c0 78          	add    $0x78,%rax
   10806:	48 89 85 08 fa ff ff 	mov    %rax,-0x5f8(%rbp)
   1080d:	48 c7 85 10 fa ff ff 	movq   $0x0,-0x5f0(%rbp)
   10814:	00 00 00 00 
   10818:	48 8d 85 d0 ed ff ff 	lea    -0x1230(%rbp),%rax
   1081f:	48 83 c0 38          	add    $0x38,%rax
   10823:	48 89 85 18 fa ff ff 	mov    %rax,-0x5e8(%rbp)
   1082a:	48 8d 85 d0 ed ff ff 	lea    -0x1230(%rbp),%rax
   10831:	48 83 e8 80          	sub    $0xffffffffffffff80,%rax
   10835:	48 89 85 20 fa ff ff 	mov    %rax,-0x5e0(%rbp)
   1083c:	48 8d 85 d0 ed ff ff 	lea    -0x1230(%rbp),%rax
   10843:	48 83 c0 58          	add    $0x58,%rax
   10847:	48 89 85 28 fa ff ff 	mov    %rax,-0x5d8(%rbp)
   1084e:	48 8d 85 d0 ed ff ff 	lea    -0x1230(%rbp),%rax
   10855:	48 83 c0 30          	add    $0x30,%rax
   10859:	48 89 85 30 fa ff ff 	mov    %rax,-0x5d0(%rbp)
   10860:	48 8d 85 d0 ed ff ff 	lea    -0x1230(%rbp),%rax
   10867:	48 83 c0 58          	add    $0x58,%rax
   1086b:	48 89 85 38 fa ff ff 	mov    %rax,-0x5c8(%rbp)
   10872:	48 c7 85 40 fa ff ff 	movq   $0x0,-0x5c0(%rbp)
   10879:	00 00 00 00 
   1087d:	48 8d 85 d0 ed ff ff 	lea    -0x1230(%rbp),%rax
   10884:	48 83 c0 58          	add    $0x58,%rax
   10888:	48 89 85 48 fa ff ff 	mov    %rax,-0x5b8(%rbp)
   1088f:	48 8d 85 d0 ed ff ff 	lea    -0x1230(%rbp),%rax
   10896:	48 83 c0 58          	add    $0x58,%rax
   1089a:	48 89 85 50 fa ff ff 	mov    %rax,-0x5b0(%rbp)
   108a1:	48 8d 85 d0 ed ff ff 	lea    -0x1230(%rbp),%rax
   108a8:	48 83 c0 58          	add    $0x58,%rax
   108ac:	48 89 85 58 fa ff ff 	mov    %rax,-0x5a8(%rbp)
   108b3:	48 8d 85 d0 ed ff ff 	lea    -0x1230(%rbp),%rax
   108ba:	48 05 88 00 00 00    	add    $0x88,%rax
   108c0:	48 89 85 60 fa ff ff 	mov    %rax,-0x5a0(%rbp)
   108c7:	48 8d 85 d0 ed ff ff 	lea    -0x1230(%rbp),%rax
   108ce:	48 05 98 00 00 00    	add    $0x98,%rax
   108d4:	48 89 85 68 fa ff ff 	mov    %rax,-0x598(%rbp)
   108db:	48 c7 85 70 fa ff ff 	movq   $0x0,-0x590(%rbp)
   108e2:	00 00 00 00 
   108e6:	48 8d 85 d0 ed ff ff 	lea    -0x1230(%rbp),%rax
   108ed:	48 83 c0 58          	add    $0x58,%rax
   108f1:	48 89 85 78 fa ff ff 	mov    %rax,-0x588(%rbp)
   108f8:	48 c7 85 80 fa ff ff 	movq   $0x0,-0x580(%rbp)
   108ff:	00 00 00 00 
   10903:	48 8d 85 d0 ed ff ff 	lea    -0x1230(%rbp),%rax
   1090a:	48 83 c0 58          	add    $0x58,%rax
   1090e:	48 89 85 88 fa ff ff 	mov    %rax,-0x578(%rbp)
   10915:	48 8d 85 d0 ed ff ff 	lea    -0x1230(%rbp),%rax
   1091c:	48 83 c0 58          	add    $0x58,%rax
   10920:	48 89 85 90 fa ff ff 	mov    %rax,-0x570(%rbp)
   10927:	48 8d 85 d0 ed ff ff 	lea    -0x1230(%rbp),%rax
   1092e:	48 83 c0 58          	add    $0x58,%rax
   10932:	48 89 85 98 fa ff ff 	mov    %rax,-0x568(%rbp)
   10939:	48 c7 85 a0 fa ff ff 	movq   $0x0,-0x560(%rbp)
   10940:	00 00 00 00 
   10944:	48 8d 85 d0 ed ff ff 	lea    -0x1230(%rbp),%rax
   1094b:	48 83 c0 58          	add    $0x58,%rax
   1094f:	48 89 85 a8 fa ff ff 	mov    %rax,-0x558(%rbp)
   10956:	48 c7 85 b0 fa ff ff 	movq   $0x0,-0x550(%rbp)
   1095d:	00 00 00 00 
   10961:	48 8d 85 d0 ed ff ff 	lea    -0x1230(%rbp),%rax
   10968:	48 83 c0 58          	add    $0x58,%rax
   1096c:	48 89 85 b8 fa ff ff 	mov    %rax,-0x548(%rbp)
   10973:	48 c7 85 c0 fa ff ff 	movq   $0x0,-0x540(%rbp)
   1097a:	00 00 00 00 
   1097e:	48 8d 85 d0 ed ff ff 	lea    -0x1230(%rbp),%rax
   10985:	48 83 c0 58          	add    $0x58,%rax
   10989:	48 89 85 c8 fa ff ff 	mov    %rax,-0x538(%rbp)
   10990:	48 c7 85 d0 fa ff ff 	movq   $0x0,-0x530(%rbp)
   10997:	00 00 00 00 
   1099b:	48 c7 85 d8 fa ff ff 	movq   $0x0,-0x528(%rbp)
   109a2:	00 00 00 00 
   109a6:	48 8d 85 d0 ed ff ff 	lea    -0x1230(%rbp),%rax
   109ad:	48 83 c0 60          	add    $0x60,%rax
   109b1:	48 89 85 e0 fa ff ff 	mov    %rax,-0x520(%rbp)
   109b8:	48 8d 85 d0 ed ff ff 	lea    -0x1230(%rbp),%rax
   109bf:	48 83 c0 60          	add    $0x60,%rax
   109c3:	48 89 85 e8 fa ff ff 	mov    %rax,-0x518(%rbp)
   109ca:	48 c7 85 f0 fa ff ff 	movq   $0x0,-0x510(%rbp)
   109d1:	00 00 00 00 
   109d5:	48 c7 85 f8 fa ff ff 	movq   $0x0,-0x508(%rbp)
   109dc:	00 00 00 00 
   109e0:	48 8d 85 d0 ed ff ff 	lea    -0x1230(%rbp),%rax
   109e7:	48 05 a0 00 00 00    	add    $0xa0,%rax
   109ed:	48 89 85 00 fb ff ff 	mov    %rax,-0x500(%rbp)
   109f4:	48 8d 85 d0 ed ff ff 	lea    -0x1230(%rbp),%rax
   109fb:	48 83 c0 58          	add    $0x58,%rax
   109ff:	48 89 85 08 fb ff ff 	mov    %rax,-0x4f8(%rbp)
   10a06:	48 8d 85 d0 ed ff ff 	lea    -0x1230(%rbp),%rax
   10a0d:	48 05 88 00 00 00    	add    $0x88,%rax
   10a13:	48 89 85 10 fb ff ff 	mov    %rax,-0x4f0(%rbp)
   10a1a:	48 8d 85 d0 ed ff ff 	lea    -0x1230(%rbp),%rax
   10a21:	48 83 c0 70          	add    $0x70,%rax
   10a25:	48 89 85 18 fb ff ff 	mov    %rax,-0x4e8(%rbp)
   10a2c:	48 8d 85 d0 ed ff ff 	lea    -0x1230(%rbp),%rax
   10a33:	48 83 c0 58          	add    $0x58,%rax
   10a37:	48 89 85 20 fb ff ff 	mov    %rax,-0x4e0(%rbp)
   10a3e:	48 8d 85 d0 ed ff ff 	lea    -0x1230(%rbp),%rax
   10a45:	48 83 c0 58          	add    $0x58,%rax
   10a49:	48 89 85 28 fb ff ff 	mov    %rax,-0x4d8(%rbp)
   10a50:	48 c7 85 30 fb ff ff 	movq   $0x0,-0x4d0(%rbp)
   10a57:	00 00 00 00 
   10a5b:	48 8d 85 d0 ed ff ff 	lea    -0x1230(%rbp),%rax
   10a62:	48 83 c0 10          	add    $0x10,%rax
   10a66:	48 89 85 38 fb ff ff 	mov    %rax,-0x4c8(%rbp)
   10a6d:	48 8d 85 d0 ed ff ff 	lea    -0x1230(%rbp),%rax
   10a74:	48 83 c0 58          	add    $0x58,%rax
   10a78:	48 89 85 40 fb ff ff 	mov    %rax,-0x4c0(%rbp)
   10a7f:	48 8d 85 d0 ed ff ff 	lea    -0x1230(%rbp),%rax
   10a86:	48 83 c0 58          	add    $0x58,%rax
   10a8a:	48 89 85 48 fb ff ff 	mov    %rax,-0x4b8(%rbp)
   10a91:	48 8d 85 d0 ed ff ff 	lea    -0x1230(%rbp),%rax
   10a98:	48 83 c0 58          	add    $0x58,%rax
   10a9c:	48 89 85 50 fb ff ff 	mov    %rax,-0x4b0(%rbp)
   10aa3:	48 8d 85 d0 ed ff ff 	lea    -0x1230(%rbp),%rax
   10aaa:	48 83 c0 58          	add    $0x58,%rax
   10aae:	48 89 85 58 fb ff ff 	mov    %rax,-0x4a8(%rbp)
   10ab5:	48 c7 85 60 fb ff ff 	movq   $0x0,-0x4a0(%rbp)
   10abc:	00 00 00 00 
   10ac0:	48 8d 85 d0 ed ff ff 	lea    -0x1230(%rbp),%rax
   10ac7:	48 83 c0 58          	add    $0x58,%rax
   10acb:	48 89 85 68 fb ff ff 	mov    %rax,-0x498(%rbp)
   10ad2:	48 8d 85 d0 ed ff ff 	lea    -0x1230(%rbp),%rax
   10ad9:	48 83 c0 08          	add    $0x8,%rax
   10add:	48 89 85 70 fb ff ff 	mov    %rax,-0x490(%rbp)
   10ae4:	48 8d 85 d0 ed ff ff 	lea    -0x1230(%rbp),%rax
   10aeb:	48 83 c0 58          	add    $0x58,%rax
   10aef:	48 89 85 78 fb ff ff 	mov    %rax,-0x488(%rbp)
   10af6:	48 c7 85 80 fb ff ff 	movq   $0x0,-0x480(%rbp)
   10afd:	00 00 00 00 
   10b01:	48 8d 85 d0 ed ff ff 	lea    -0x1230(%rbp),%rax
   10b08:	48 83 c0 70          	add    $0x70,%rax
   10b0c:	48 89 85 88 fb ff ff 	mov    %rax,-0x478(%rbp)
   10b13:	48 8d 85 d0 ed ff ff 	lea    -0x1230(%rbp),%rax
   10b1a:	48 83 c0 58          	add    $0x58,%rax
   10b1e:	48 89 85 90 fb ff ff 	mov    %rax,-0x470(%rbp)
   10b25:	48 8d 85 d0 ed ff ff 	lea    -0x1230(%rbp),%rax
   10b2c:	48 83 c0 28          	add    $0x28,%rax
   10b30:	48 89 85 98 fb ff ff 	mov    %rax,-0x468(%rbp)
   10b37:	48 8d 85 d0 ed ff ff 	lea    -0x1230(%rbp),%rax
   10b3e:	48 89 85 a0 fb ff ff 	mov    %rax,-0x460(%rbp)
   10b45:	48 c7 85 a8 fb ff ff 	movq   $0x0,-0x458(%rbp)
   10b4c:	00 00 00 00 
   10b50:	48 8d 85 d0 ed ff ff 	lea    -0x1230(%rbp),%rax
   10b57:	48 83 c0 58          	add    $0x58,%rax
   10b5b:	48 89 85 b0 fb ff ff 	mov    %rax,-0x450(%rbp)
   10b62:	48 8d 85 d0 ed ff ff 	lea    -0x1230(%rbp),%rax
   10b69:	48 83 c0 58          	add    $0x58,%rax
   10b6d:	48 89 85 b8 fb ff ff 	mov    %rax,-0x448(%rbp)
   10b74:	48 8d 85 d0 ed ff ff 	lea    -0x1230(%rbp),%rax
   10b7b:	48 83 c0 60          	add    $0x60,%rax
   10b7f:	48 89 85 c0 fb ff ff 	mov    %rax,-0x440(%rbp)
   10b86:	48 8d 85 d0 ed ff ff 	lea    -0x1230(%rbp),%rax
   10b8d:	48 83 c0 58          	add    $0x58,%rax
   10b91:	48 89 85 c8 fb ff ff 	mov    %rax,-0x438(%rbp)
   10b98:	48 8d 85 d0 ed ff ff 	lea    -0x1230(%rbp),%rax
   10b9f:	48 89 85 d0 fb ff ff 	mov    %rax,-0x430(%rbp)
   10ba6:	48 8d 85 d0 ed ff ff 	lea    -0x1230(%rbp),%rax
   10bad:	48 83 c0 58          	add    $0x58,%rax
   10bb1:	48 89 85 d8 fb ff ff 	mov    %rax,-0x428(%rbp)
   10bb8:	48 8d 85 d0 ed ff ff 	lea    -0x1230(%rbp),%rax
   10bbf:	48 05 98 00 00 00    	add    $0x98,%rax
   10bc5:	48 89 85 e0 fb ff ff 	mov    %rax,-0x420(%rbp)
   10bcc:	48 8d 85 d0 ed ff ff 	lea    -0x1230(%rbp),%rax
   10bd3:	48 83 c0 58          	add    $0x58,%rax
   10bd7:	48 89 85 e8 fb ff ff 	mov    %rax,-0x418(%rbp)
   10bde:	48 8d 85 d0 ed ff ff 	lea    -0x1230(%rbp),%rax
   10be5:	48 83 c0 58          	add    $0x58,%rax
   10be9:	48 89 85 f0 fb ff ff 	mov    %rax,-0x410(%rbp)
   10bf0:	48 8d 85 d0 ed ff ff 	lea    -0x1230(%rbp),%rax
   10bf7:	48 83 c0 58          	add    $0x58,%rax
   10bfb:	48 89 85 f8 fb ff ff 	mov    %rax,-0x408(%rbp)
   10c02:	48 c7 85 00 fc ff ff 	movq   $0x0,-0x400(%rbp)
   10c09:	00 00 00 00 
   10c0d:	48 8d 85 d0 ed ff ff 	lea    -0x1230(%rbp),%rax
   10c14:	48 83 c0 58          	add    $0x58,%rax
   10c18:	48 89 85 08 fc ff ff 	mov    %rax,-0x3f8(%rbp)
   10c1f:	48 8d 85 d0 ed ff ff 	lea    -0x1230(%rbp),%rax
   10c26:	48 83 c0 58          	add    $0x58,%rax
   10c2a:	48 89 85 10 fc ff ff 	mov    %rax,-0x3f0(%rbp)
   10c31:	48 8d 85 d0 ed ff ff 	lea    -0x1230(%rbp),%rax
   10c38:	48 05 a8 00 00 00    	add    $0xa8,%rax
   10c3e:	48 89 85 18 fc ff ff 	mov    %rax,-0x3e8(%rbp)
   10c45:	48 8d 85 d0 ed ff ff 	lea    -0x1230(%rbp),%rax
   10c4c:	48 05 88 00 00 00    	add    $0x88,%rax
   10c52:	48 89 85 20 fc ff ff 	mov    %rax,-0x3e0(%rbp)
   10c59:	48 8d 85 d0 ed ff ff 	lea    -0x1230(%rbp),%rax
   10c60:	48 83 c0 58          	add    $0x58,%rax
   10c64:	48 89 85 28 fc ff ff 	mov    %rax,-0x3d8(%rbp)
   10c6b:	48 c7 85 30 fc ff ff 	movq   $0x0,-0x3d0(%rbp)
   10c72:	00 00 00 00 
   10c76:	48 8d 85 d0 ed ff ff 	lea    -0x1230(%rbp),%rax
   10c7d:	48 83 c0 58          	add    $0x58,%rax
   10c81:	48 89 85 38 fc ff ff 	mov    %rax,-0x3c8(%rbp)
   10c88:	48 8d 85 d0 ed ff ff 	lea    -0x1230(%rbp),%rax
   10c8f:	48 83 c0 58          	add    $0x58,%rax
   10c93:	48 89 85 40 fc ff ff 	mov    %rax,-0x3c0(%rbp)
   10c9a:	48 8d 85 d0 ed ff ff 	lea    -0x1230(%rbp),%rax
   10ca1:	48 83 c0 40          	add    $0x40,%rax
   10ca5:	48 89 85 48 fc ff ff 	mov    %rax,-0x3b8(%rbp)
   10cac:	48 8d 85 d0 ed ff ff 	lea    -0x1230(%rbp),%rax
   10cb3:	48 83 c0 58          	add    $0x58,%rax
   10cb7:	48 89 85 50 fc ff ff 	mov    %rax,-0x3b0(%rbp)
   10cbe:	48 8d 85 d0 ed ff ff 	lea    -0x1230(%rbp),%rax
   10cc5:	48 83 c0 70          	add    $0x70,%rax
   10cc9:	48 89 85 58 fc ff ff 	mov    %rax,-0x3a8(%rbp)
   10cd0:	48 8d 85 d0 ed ff ff 	lea    -0x1230(%rbp),%rax
   10cd7:	48 83 c0 58          	add    $0x58,%rax
   10cdb:	48 89 85 60 fc ff ff 	mov    %rax,-0x3a0(%rbp)
   10ce2:	48 8d 85 d0 ed ff ff 	lea    -0x1230(%rbp),%rax
   10ce9:	48 05 98 00 00 00    	add    $0x98,%rax
   10cef:	48 89 85 68 fc ff ff 	mov    %rax,-0x398(%rbp)
   10cf6:	48 8d 85 d0 ed ff ff 	lea    -0x1230(%rbp),%rax
   10cfd:	48 83 c0 60          	add    $0x60,%rax
   10d01:	48 89 85 70 fc ff ff 	mov    %rax,-0x390(%rbp)
   10d08:	48 8d 85 d0 ed ff ff 	lea    -0x1230(%rbp),%rax
   10d0f:	48 83 c0 78          	add    $0x78,%rax
   10d13:	48 89 85 78 fc ff ff 	mov    %rax,-0x388(%rbp)
   10d1a:	48 8d 85 d0 ed ff ff 	lea    -0x1230(%rbp),%rax
   10d21:	48 05 a0 00 00 00    	add    $0xa0,%rax
   10d27:	48 89 85 80 fc ff ff 	mov    %rax,-0x380(%rbp)
   10d2e:	48 c7 85 88 fc ff ff 	movq   $0x0,-0x378(%rbp)
   10d35:	00 00 00 00 
   10d39:	48 c7 85 90 fc ff ff 	movq   $0x0,-0x370(%rbp)
   10d40:	00 00 00 00 
   10d44:	48 8d 85 d0 ed ff ff 	lea    -0x1230(%rbp),%rax
   10d4b:	48 05 a0 00 00 00    	add    $0xa0,%rax
   10d51:	48 89 85 98 fc ff ff 	mov    %rax,-0x368(%rbp)
   10d58:	48 8d 85 d0 ed ff ff 	lea    -0x1230(%rbp),%rax
   10d5f:	48 83 c0 28          	add    $0x28,%rax
   10d63:	48 89 85 a0 fc ff ff 	mov    %rax,-0x360(%rbp)
   10d6a:	48 8d 85 d0 ed ff ff 	lea    -0x1230(%rbp),%rax
   10d71:	48 83 c0 58          	add    $0x58,%rax
   10d75:	48 89 85 a8 fc ff ff 	mov    %rax,-0x358(%rbp)
   10d7c:	48 8d 85 d0 ed ff ff 	lea    -0x1230(%rbp),%rax
   10d83:	48 83 c0 58          	add    $0x58,%rax
   10d87:	48 89 85 b0 fc ff ff 	mov    %rax,-0x350(%rbp)
   10d8e:	48 8d 85 d0 ed ff ff 	lea    -0x1230(%rbp),%rax
   10d95:	48 05 98 00 00 00    	add    $0x98,%rax
   10d9b:	48 89 85 b8 fc ff ff 	mov    %rax,-0x348(%rbp)
   10da2:	48 8d 85 d0 ed ff ff 	lea    -0x1230(%rbp),%rax
   10da9:	48 83 c0 78          	add    $0x78,%rax
   10dad:	48 89 85 c0 fc ff ff 	mov    %rax,-0x340(%rbp)
   10db4:	48 c7 85 c8 fc ff ff 	movq   $0x0,-0x338(%rbp)
   10dbb:	00 00 00 00 
   10dbf:	48 8d 85 d0 ed ff ff 	lea    -0x1230(%rbp),%rax
   10dc6:	48 83 c0 38          	add    $0x38,%rax
   10dca:	48 89 85 d0 fc ff ff 	mov    %rax,-0x330(%rbp)
   10dd1:	48 c7 85 d8 fc ff ff 	movq   $0x0,-0x328(%rbp)
   10dd8:	00 00 00 00 
   10ddc:	48 8d 85 d0 ed ff ff 	lea    -0x1230(%rbp),%rax
   10de3:	48 83 c0 58          	add    $0x58,%rax
   10de7:	48 89 85 e0 fc ff ff 	mov    %rax,-0x320(%rbp)
   10dee:	48 8d 85 d0 ed ff ff 	lea    -0x1230(%rbp),%rax
   10df5:	48 83 c0 58          	add    $0x58,%rax
   10df9:	48 89 85 e8 fc ff ff 	mov    %rax,-0x318(%rbp)
   10e00:	48 8d 85 d0 ed ff ff 	lea    -0x1230(%rbp),%rax
   10e07:	48 83 c0 70          	add    $0x70,%rax
   10e0b:	48 89 85 f0 fc ff ff 	mov    %rax,-0x310(%rbp)
   10e12:	48 8d 85 d0 ed ff ff 	lea    -0x1230(%rbp),%rax
   10e19:	48 83 c0 58          	add    $0x58,%rax
   10e1d:	48 89 85 f8 fc ff ff 	mov    %rax,-0x308(%rbp)
   10e24:	48 8d 85 d0 ed ff ff 	lea    -0x1230(%rbp),%rax
   10e2b:	48 83 c0 58          	add    $0x58,%rax
   10e2f:	48 89 85 00 fd ff ff 	mov    %rax,-0x300(%rbp)
   10e36:	48 8d 85 d0 ed ff ff 	lea    -0x1230(%rbp),%rax
   10e3d:	48 83 c0 58          	add    $0x58,%rax
   10e41:	48 89 85 08 fd ff ff 	mov    %rax,-0x2f8(%rbp)
   10e48:	48 c7 85 10 fd ff ff 	movq   $0x0,-0x2f0(%rbp)
   10e4f:	00 00 00 00 
   10e53:	48 c7 85 18 fd ff ff 	movq   $0x0,-0x2e8(%rbp)
   10e5a:	00 00 00 00 
   10e5e:	48 8d 85 d0 ed ff ff 	lea    -0x1230(%rbp),%rax
   10e65:	48 05 b0 00 00 00    	add    $0xb0,%rax
   10e6b:	48 89 85 20 fd ff ff 	mov    %rax,-0x2e0(%rbp)
   10e72:	48 8d 85 d0 ed ff ff 	lea    -0x1230(%rbp),%rax
   10e79:	48 83 c0 58          	add    $0x58,%rax
   10e7d:	48 89 85 28 fd ff ff 	mov    %rax,-0x2d8(%rbp)
   10e84:	48 8d 85 d0 ed ff ff 	lea    -0x1230(%rbp),%rax
   10e8b:	48 05 a0 00 00 00    	add    $0xa0,%rax
   10e91:	48 89 85 30 fd ff ff 	mov    %rax,-0x2d0(%rbp)
   10e98:	48 8d 85 d0 ed ff ff 	lea    -0x1230(%rbp),%rax
   10e9f:	48 83 c0 40          	add    $0x40,%rax
   10ea3:	48 89 85 38 fd ff ff 	mov    %rax,-0x2c8(%rbp)
   10eaa:	48 8d 85 d0 ed ff ff 	lea    -0x1230(%rbp),%rax
   10eb1:	48 83 c0 58          	add    $0x58,%rax
   10eb5:	48 89 85 40 fd ff ff 	mov    %rax,-0x2c0(%rbp)
   10ebc:	48 8d 85 d0 ed ff ff 	lea    -0x1230(%rbp),%rax
   10ec3:	48 83 e8 80          	sub    $0xffffffffffffff80,%rax
   10ec7:	48 89 85 48 fd ff ff 	mov    %rax,-0x2b8(%rbp)
   10ece:	48 8d 85 d0 ed ff ff 	lea    -0x1230(%rbp),%rax
   10ed5:	48 83 c0 68          	add    $0x68,%rax
   10ed9:	48 89 85 50 fd ff ff 	mov    %rax,-0x2b0(%rbp)
   10ee0:	48 8d 85 d0 ed ff ff 	lea    -0x1230(%rbp),%rax
   10ee7:	48 05 a0 00 00 00    	add    $0xa0,%rax
   10eed:	48 89 85 58 fd ff ff 	mov    %rax,-0x2a8(%rbp)
   10ef4:	48 8d 85 d0 ed ff ff 	lea    -0x1230(%rbp),%rax
   10efb:	48 83 c0 58          	add    $0x58,%rax
   10eff:	48 89 85 60 fd ff ff 	mov    %rax,-0x2a0(%rbp)
   10f06:	48 8d 85 d0 ed ff ff 	lea    -0x1230(%rbp),%rax
   10f0d:	48 05 b0 00 00 00    	add    $0xb0,%rax
   10f13:	48 89 85 68 fd ff ff 	mov    %rax,-0x298(%rbp)
   10f1a:	48 8d 85 d0 ed ff ff 	lea    -0x1230(%rbp),%rax
   10f21:	48 83 c0 58          	add    $0x58,%rax
   10f25:	48 89 85 70 fd ff ff 	mov    %rax,-0x290(%rbp)
   10f2c:	48 8d 85 d0 ed ff ff 	lea    -0x1230(%rbp),%rax
   10f33:	48 05 b8 00 00 00    	add    $0xb8,%rax
   10f39:	48 89 85 78 fd ff ff 	mov    %rax,-0x288(%rbp)
   10f40:	48 8d 85 d0 ed ff ff 	lea    -0x1230(%rbp),%rax
   10f47:	48 05 b0 00 00 00    	add    $0xb0,%rax
   10f4d:	48 89 85 80 fd ff ff 	mov    %rax,-0x280(%rbp)
   10f54:	48 8d 85 d0 ed ff ff 	lea    -0x1230(%rbp),%rax
   10f5b:	48 83 c0 58          	add    $0x58,%rax
   10f5f:	48 89 85 88 fd ff ff 	mov    %rax,-0x278(%rbp)
   10f66:	48 8d 85 d0 ed ff ff 	lea    -0x1230(%rbp),%rax
   10f6d:	48 83 c0 58          	add    $0x58,%rax
   10f71:	48 89 85 90 fd ff ff 	mov    %rax,-0x270(%rbp)
   10f78:	48 8d 85 d0 ed ff ff 	lea    -0x1230(%rbp),%rax
   10f7f:	48 83 c0 70          	add    $0x70,%rax
   10f83:	48 89 85 98 fd ff ff 	mov    %rax,-0x268(%rbp)
   10f8a:	48 8d 85 d0 ed ff ff 	lea    -0x1230(%rbp),%rax
   10f91:	48 83 c0 58          	add    $0x58,%rax
   10f95:	48 89 85 a0 fd ff ff 	mov    %rax,-0x260(%rbp)
   10f9c:	48 c7 85 a8 fd ff ff 	movq   $0x0,-0x258(%rbp)
   10fa3:	00 00 00 00 
   10fa7:	48 8d 85 d0 ed ff ff 	lea    -0x1230(%rbp),%rax
   10fae:	48 83 c0 58          	add    $0x58,%rax
   10fb2:	48 89 85 b0 fd ff ff 	mov    %rax,-0x250(%rbp)
   10fb9:	48 8d 85 d0 ed ff ff 	lea    -0x1230(%rbp),%rax
   10fc0:	48 83 c0 70          	add    $0x70,%rax
   10fc4:	48 89 85 b8 fd ff ff 	mov    %rax,-0x248(%rbp)
   10fcb:	48 8d 85 d0 ed ff ff 	lea    -0x1230(%rbp),%rax
   10fd2:	48 05 b8 00 00 00    	add    $0xb8,%rax
   10fd8:	48 89 85 c0 fd ff ff 	mov    %rax,-0x240(%rbp)
   10fdf:	48 8d 85 d0 ed ff ff 	lea    -0x1230(%rbp),%rax
   10fe6:	48 83 c0 78          	add    $0x78,%rax
   10fea:	48 89 85 c8 fd ff ff 	mov    %rax,-0x238(%rbp)
   10ff1:	48 8d 85 d0 ed ff ff 	lea    -0x1230(%rbp),%rax
   10ff8:	48 05 98 00 00 00    	add    $0x98,%rax
   10ffe:	48 89 85 d0 fd ff ff 	mov    %rax,-0x230(%rbp)
   11005:	48 8d 85 d0 ed ff ff 	lea    -0x1230(%rbp),%rax
   1100c:	48 83 c0 58          	add    $0x58,%rax
   11010:	48 89 85 d8 fd ff ff 	mov    %rax,-0x228(%rbp)
   11017:	48 8d 85 d0 ed ff ff 	lea    -0x1230(%rbp),%rax
   1101e:	48 83 c0 50          	add    $0x50,%rax
   11022:	48 89 85 e0 fd ff ff 	mov    %rax,-0x220(%rbp)
   11029:	48 8d 85 d0 ed ff ff 	lea    -0x1230(%rbp),%rax
   11030:	48 83 c0 58          	add    $0x58,%rax
   11034:	48 89 85 e8 fd ff ff 	mov    %rax,-0x218(%rbp)
   1103b:	48 8d 85 d0 ed ff ff 	lea    -0x1230(%rbp),%rax
   11042:	48 05 a8 00 00 00    	add    $0xa8,%rax
   11048:	48 89 85 f0 fd ff ff 	mov    %rax,-0x210(%rbp)
   1104f:	48 8d 85 d0 ed ff ff 	lea    -0x1230(%rbp),%rax
   11056:	48 83 c0 58          	add    $0x58,%rax
   1105a:	48 89 85 f8 fd ff ff 	mov    %rax,-0x208(%rbp)
   11061:	48 c7 85 00 fe ff ff 	movq   $0x0,-0x200(%rbp)
   11068:	00 00 00 00 
   1106c:	48 8d 85 d0 ed ff ff 	lea    -0x1230(%rbp),%rax
   11073:	48 05 a0 00 00 00    	add    $0xa0,%rax
   11079:	48 89 85 08 fe ff ff 	mov    %rax,-0x1f8(%rbp)
   11080:	48 8d 85 d0 ed ff ff 	lea    -0x1230(%rbp),%rax
   11087:	48 83 c0 78          	add    $0x78,%rax
   1108b:	48 89 85 10 fe ff ff 	mov    %rax,-0x1f0(%rbp)
   11092:	48 8d 85 d0 ed ff ff 	lea    -0x1230(%rbp),%rax
   11099:	48 83 c0 68          	add    $0x68,%rax
   1109d:	48 89 85 18 fe ff ff 	mov    %rax,-0x1e8(%rbp)
   110a4:	48 c7 85 20 fe ff ff 	movq   $0x0,-0x1e0(%rbp)
   110ab:	00 00 00 00 
   110af:	48 8d 85 d0 ed ff ff 	lea    -0x1230(%rbp),%rax
   110b6:	48 05 a0 00 00 00    	add    $0xa0,%rax
   110bc:	48 89 85 28 fe ff ff 	mov    %rax,-0x1d8(%rbp)
   110c3:	48 8d 85 d0 ed ff ff 	lea    -0x1230(%rbp),%rax
   110ca:	48 05 b0 00 00 00    	add    $0xb0,%rax
   110d0:	48 89 85 30 fe ff ff 	mov    %rax,-0x1d0(%rbp)
   110d7:	48 8d 85 d0 ed ff ff 	lea    -0x1230(%rbp),%rax
   110de:	48 83 c0 58          	add    $0x58,%rax
   110e2:	48 89 85 38 fe ff ff 	mov    %rax,-0x1c8(%rbp)
   110e9:	48 8d 85 d0 ed ff ff 	lea    -0x1230(%rbp),%rax
   110f0:	48 83 c0 40          	add    $0x40,%rax
   110f4:	48 89 85 40 fe ff ff 	mov    %rax,-0x1c0(%rbp)
   110fb:	48 8d 85 d0 ed ff ff 	lea    -0x1230(%rbp),%rax
   11102:	48 83 c0 58          	add    $0x58,%rax
   11106:	48 89 85 48 fe ff ff 	mov    %rax,-0x1b8(%rbp)
   1110d:	48 8d 85 d0 ed ff ff 	lea    -0x1230(%rbp),%rax
   11114:	48 83 c0 40          	add    $0x40,%rax
   11118:	48 89 85 50 fe ff ff 	mov    %rax,-0x1b0(%rbp)
   1111f:	48 8d 85 d0 ed ff ff 	lea    -0x1230(%rbp),%rax
   11126:	48 83 c0 58          	add    $0x58,%rax
   1112a:	48 89 85 58 fe ff ff 	mov    %rax,-0x1a8(%rbp)
   11131:	48 c7 85 60 fe ff ff 	movq   $0x0,-0x1a0(%rbp)
   11138:	00 00 00 00 
   1113c:	48 c7 85 68 fe ff ff 	movq   $0x0,-0x198(%rbp)
   11143:	00 00 00 00 
   11147:	48 8d 85 d0 ed ff ff 	lea    -0x1230(%rbp),%rax
   1114e:	48 05 a8 00 00 00    	add    $0xa8,%rax
   11154:	48 89 85 70 fe ff ff 	mov    %rax,-0x190(%rbp)
   1115b:	48 8d 85 d0 ed ff ff 	lea    -0x1230(%rbp),%rax
   11162:	48 83 c0 58          	add    $0x58,%rax
   11166:	48 89 85 78 fe ff ff 	mov    %rax,-0x188(%rbp)
   1116d:	48 8d 85 d0 ed ff ff 	lea    -0x1230(%rbp),%rax
   11174:	48 83 c0 58          	add    $0x58,%rax
   11178:	48 89 85 80 fe ff ff 	mov    %rax,-0x180(%rbp)
   1117f:	48 8d 85 d0 ed ff ff 	lea    -0x1230(%rbp),%rax
   11186:	48 05 a8 00 00 00    	add    $0xa8,%rax
   1118c:	48 89 85 88 fe ff ff 	mov    %rax,-0x178(%rbp)
   11193:	48 8d 85 d0 ed ff ff 	lea    -0x1230(%rbp),%rax
   1119a:	48 83 c0 70          	add    $0x70,%rax
   1119e:	48 89 85 90 fe ff ff 	mov    %rax,-0x170(%rbp)
   111a5:	48 8d 85 d0 ed ff ff 	lea    -0x1230(%rbp),%rax
   111ac:	48 05 b0 00 00 00    	add    $0xb0,%rax
   111b2:	48 89 85 98 fe ff ff 	mov    %rax,-0x168(%rbp)
   111b9:	48 c7 85 a0 fe ff ff 	movq   $0x0,-0x160(%rbp)
   111c0:	00 00 00 00 
   111c4:	48 8d 85 d0 ed ff ff 	lea    -0x1230(%rbp),%rax
   111cb:	48 05 98 00 00 00    	add    $0x98,%rax
   111d1:	48 89 85 a8 fe ff ff 	mov    %rax,-0x158(%rbp)
   111d8:	48 8d 85 d0 ed ff ff 	lea    -0x1230(%rbp),%rax
   111df:	48 83 c0 58          	add    $0x58,%rax
   111e3:	48 89 85 b0 fe ff ff 	mov    %rax,-0x150(%rbp)
   111ea:	48 8d 85 d0 ed ff ff 	lea    -0x1230(%rbp),%rax
   111f1:	48 89 85 b8 fe ff ff 	mov    %rax,-0x148(%rbp)
   111f8:	48 c7 85 c0 fe ff ff 	movq   $0x0,-0x140(%rbp)
   111ff:	00 00 00 00 
   11203:	48 8d 85 d0 ed ff ff 	lea    -0x1230(%rbp),%rax
   1120a:	48 83 e8 80          	sub    $0xffffffffffffff80,%rax
   1120e:	48 89 85 c8 fe ff ff 	mov    %rax,-0x138(%rbp)
   11215:	48 8d 85 d0 ed ff ff 	lea    -0x1230(%rbp),%rax
   1121c:	48 83 c0 08          	add    $0x8,%rax
   11220:	48 89 85 d0 fe ff ff 	mov    %rax,-0x130(%rbp)
   11227:	48 8d 85 d0 ed ff ff 	lea    -0x1230(%rbp),%rax
   1122e:	48 83 e8 80          	sub    $0xffffffffffffff80,%rax
   11232:	48 89 85 d8 fe ff ff 	mov    %rax,-0x128(%rbp)
   11239:	48 c7 85 e0 fe ff ff 	movq   $0x0,-0x120(%rbp)
   11240:	00 00 00 00 
   11244:	48 8d 85 d0 ed ff ff 	lea    -0x1230(%rbp),%rax
   1124b:	48 89 85 e8 fe ff ff 	mov    %rax,-0x118(%rbp)
   11252:	48 8d 85 d0 ed ff ff 	lea    -0x1230(%rbp),%rax
   11259:	48 83 c0 28          	add    $0x28,%rax
   1125d:	48 89 85 f0 fe ff ff 	mov    %rax,-0x110(%rbp)
   11264:	48 8d 85 d0 ed ff ff 	lea    -0x1230(%rbp),%rax
   1126b:	48 83 c0 58          	add    $0x58,%rax
   1126f:	48 89 85 f8 fe ff ff 	mov    %rax,-0x108(%rbp)
   11276:	48 8d 85 d0 ed ff ff 	lea    -0x1230(%rbp),%rax
   1127d:	48 83 c0 58          	add    $0x58,%rax
   11281:	48 89 85 00 ff ff ff 	mov    %rax,-0x100(%rbp)
   11288:	48 c7 85 08 ff ff ff 	movq   $0x0,-0xf8(%rbp)
   1128f:	00 00 00 00 
   11293:	48 c7 85 10 ff ff ff 	movq   $0x0,-0xf0(%rbp)
   1129a:	00 00 00 00 
   1129e:	48 8d 85 d0 ed ff ff 	lea    -0x1230(%rbp),%rax
   112a5:	48 83 c0 08          	add    $0x8,%rax
   112a9:	48 89 85 18 ff ff ff 	mov    %rax,-0xe8(%rbp)
   112b0:	48 8d 85 d0 ed ff ff 	lea    -0x1230(%rbp),%rax
   112b7:	48 83 c0 58          	add    $0x58,%rax
   112bb:	48 89 85 20 ff ff ff 	mov    %rax,-0xe0(%rbp)
   112c2:	48 c7 85 28 ff ff ff 	movq   $0x0,-0xd8(%rbp)
   112c9:	00 00 00 00 
   112cd:	48 c7 85 30 ff ff ff 	movq   $0x0,-0xd0(%rbp)
   112d4:	00 00 00 00 
   112d8:	48 8d 85 d0 ed ff ff 	lea    -0x1230(%rbp),%rax
   112df:	48 05 98 00 00 00    	add    $0x98,%rax
   112e5:	48 89 85 38 ff ff ff 	mov    %rax,-0xc8(%rbp)
   112ec:	48 8d 85 d0 ed ff ff 	lea    -0x1230(%rbp),%rax
   112f3:	48 83 c0 58          	add    $0x58,%rax
   112f7:	48 89 85 40 ff ff ff 	mov    %rax,-0xc0(%rbp)
   112fe:	48 8d 85 d0 ed ff ff 	lea    -0x1230(%rbp),%rax
   11305:	48 05 a0 00 00 00    	add    $0xa0,%rax
   1130b:	48 89 85 48 ff ff ff 	mov    %rax,-0xb8(%rbp)
   11312:	48 8d 85 d0 ed ff ff 	lea    -0x1230(%rbp),%rax
   11319:	48 83 c0 10          	add    $0x10,%rax
   1131d:	48 89 85 50 ff ff ff 	mov    %rax,-0xb0(%rbp)
   11324:	48 c7 85 58 ff ff ff 	movq   $0x0,-0xa8(%rbp)
   1132b:	00 00 00 00 
   1132f:	48 8d 85 d0 ed ff ff 	lea    -0x1230(%rbp),%rax
   11336:	48 83 c0 58          	add    $0x58,%rax
   1133a:	48 89 85 60 ff ff ff 	mov    %rax,-0xa0(%rbp)
   11341:	48 8d 85 d0 ed ff ff 	lea    -0x1230(%rbp),%rax
   11348:	48 83 c0 58          	add    $0x58,%rax
   1134c:	48 89 85 68 ff ff ff 	mov    %rax,-0x98(%rbp)
   11353:	48 8d 85 d0 ed ff ff 	lea    -0x1230(%rbp),%rax
   1135a:	48 83 c0 58          	add    $0x58,%rax
   1135e:	48 89 85 70 ff ff ff 	mov    %rax,-0x90(%rbp)
   11365:	48 8d 85 d0 ed ff ff 	lea    -0x1230(%rbp),%rax
   1136c:	48 83 c0 58          	add    $0x58,%rax
   11370:	48 89 85 78 ff ff ff 	mov    %rax,-0x88(%rbp)
   11377:	48 8d 85 d0 ed ff ff 	lea    -0x1230(%rbp),%rax
   1137e:	48 83 c0 58          	add    $0x58,%rax
   11382:	48 89 45 80          	mov    %rax,-0x80(%rbp)
   11386:	48 8d 85 d0 ed ff ff 	lea    -0x1230(%rbp),%rax
   1138d:	48 05 a0 00 00 00    	add    $0xa0,%rax
   11393:	48 89 45 88          	mov    %rax,-0x78(%rbp)
   11397:	48 c7 45 90 00 00 00 	movq   $0x0,-0x70(%rbp)
   1139e:	00 
   1139f:	48 c7 45 98 00 00 00 	movq   $0x0,-0x68(%rbp)
   113a6:	00 
   113a7:	48 8d 85 d0 ed ff ff 	lea    -0x1230(%rbp),%rax
   113ae:	48 83 c0 58          	add    $0x58,%rax
   113b2:	48 89 45 a0          	mov    %rax,-0x60(%rbp)
   113b6:	48 8d 85 d0 ed ff ff 	lea    -0x1230(%rbp),%rax
   113bd:	48 83 e8 80          	sub    $0xffffffffffffff80,%rax
   113c1:	48 89 45 a8          	mov    %rax,-0x58(%rbp)
   113c5:	48 8d 85 d0 ed ff ff 	lea    -0x1230(%rbp),%rax
   113cc:	48 05 98 00 00 00    	add    $0x98,%rax
   113d2:	48 89 45 b0          	mov    %rax,-0x50(%rbp)
   113d6:	48 8d 85 d0 ed ff ff 	lea    -0x1230(%rbp),%rax
   113dd:	48 83 c0 58          	add    $0x58,%rax
   113e1:	48 89 45 b8          	mov    %rax,-0x48(%rbp)
   113e5:	48 8d 85 d0 ed ff ff 	lea    -0x1230(%rbp),%rax
   113ec:	48 83 c0 58          	add    $0x58,%rax
   113f0:	48 89 45 c0          	mov    %rax,-0x40(%rbp)
   113f4:	48 c7 45 c8 00 00 00 	movq   $0x0,-0x38(%rbp)
   113fb:	00 
   113fc:	c7 85 0c ed ff ff ff 	movl   $0xffffffff,-0x12f4(%rbp)
   11403:	ff ff ff 
   11406:	c7 85 10 ed ff ff c0 	movl   $0xedccfc0,-0x12f0(%rbp)
   1140d:	cf dc 0e 
   11410:	c7 85 18 ed ff ff ca 	movl   $0x54bb9eca,-0x12e8(%rbp)
   11417:	9e bb 54 
   1141a:	c7 85 1c ed ff ff 00 	movl   $0x0,-0x12e4(%rbp)
   11421:	00 00 00 
   11424:	c6 85 02 ed ff ff 02 	movb   $0x2,-0x12fe(%rbp)
   1142b:	66 c7 85 04 ed ff ff 	movw   $0xc9cb,-0x12fc(%rbp)
   11432:	cb c9 
   11434:	48 c7 85 40 ed ff ff 	movq   $0x0,-0x12c0(%rbp)
   1143b:	00 00 00 00 
   1143f:	48 8d 85 40 ed ff ff 	lea    -0x12c0(%rbp),%rax
   11446:	48 89 85 48 ed ff ff 	mov    %rax,-0x12b8(%rbp)
   1144d:	48 8d 85 48 ed ff ff 	lea    -0x12b8(%rbp),%rax
   11454:	48 89 85 50 ed ff ff 	mov    %rax,-0x12b0(%rbp)
   1145b:	c7 85 20 ed ff ff 91 	movl   $0xa19c8e91,-0x12e0(%rbp)
   11462:	8e 9c a1 
   11465:	66 c7 85 06 ed ff ff 	movw   $0xb732,-0x12fa(%rbp)
   1146c:	32 b7 
   1146e:	c6 85 03 ed ff ff 01 	movb   $0x1,-0x12fd(%rbp)
   11475:	48 b8 9a 38 27 9b 4c 	movabs $0xc257504c9b27389a,%rax
   1147c:	50 57 c2 
   1147f:	48 89 85 60 ed ff ff 	mov    %rax,-0x12a0(%rbp)
   11486:	48 8d 85 90 ee ff ff 	lea    -0x1170(%rbp),%rax
   1148d:	48 8d 15 cc 1c 00 00 	lea    0x1ccc(%rip),%rdx        # 13160 <_IO_stdin_used+0x160>
   11494:	b9 78 00 00 00       	mov    $0x78,%ecx
   11499:	48 89 c7             	mov    %rax,%rdi
   1149c:	48 89 d6             	mov    %rdx,%rsi
   1149f:	f3 48 a5             	rep movsq %ds:(%rsi),%es:(%rdi)
   114a2:	c7 85 24 ed ff ff 00 	movl   $0x0,-0x12dc(%rbp)
   114a9:	00 00 00 
   114ac:	48 b8 ca 87 d7 f3 f4 	movabs $0xfa46d5f4f3d787ca,%rax
   114b3:	d5 46 fa 
   114b6:	48 89 85 58 ed ff ff 	mov    %rax,-0x12a8(%rbp)
   114bd:	c7 85 28 ed ff ff f1 	movl   $0xae925ef1,-0x12d8(%rbp)
   114c4:	5e 92 ae 
   114c7:	c7 85 14 ed ff ff 00 	movl   $0x0,-0x12ec(%rbp)
   114ce:	00 00 00 
   114d1:	eb 1a                	jmp    114ed <func_69+0x1322>
   114d3:	8b 85 14 ed ff ff    	mov    -0x12ec(%rbp),%eax
   114d9:	48 98                	cltq   
   114db:	c7 84 85 7c ed ff ff 	movl   $0x97d11164,-0x1284(%rbp,%rax,4)
   114e2:	64 11 d1 97 
   114e6:	83 85 14 ed ff ff 01 	addl   $0x1,-0x12ec(%rbp)
   114ed:	83 bd 14 ed ff ff 00 	cmpl   $0x0,-0x12ec(%rbp)
   114f4:	7e dd                	jle    114d3 <func_69+0x1308>
   114f6:	8b 05 38 5b 00 00    	mov    0x5b38(%rip),%eax        # 17034 <g_7>
   114fc:	0f be c0             	movsbl %al,%eax
   114ff:	89 c7                	mov    %eax,%edi
   11501:	e8 af 03 00 00       	callq  118b5 <func_73>
   11506:	84 c0                	test   %al,%al
   11508:	74 73                	je     1157d <func_69+0x13b2>
   1150a:	48 8b 05 37 91 00 00 	mov    0x9137(%rip),%rax        # 1a648 <g_103>
   11511:	48 8b 00             	mov    (%rax),%rax
   11514:	48 39 85 70 ed ff ff 	cmp    %rax,-0x1290(%rbp)
   1151b:	0f 95 c1             	setne  %cl
   1151e:	0f b7 05 1b 5b 00 00 	movzwl 0x5b1b(%rip),%eax        # 17040 <g_20+0x4>
   11525:	89 c2                	mov    %eax,%edx
   11527:	48 8b 85 f0 ec ff ff 	mov    -0x1310(%rbp),%rax
   1152e:	09 d0                	or     %edx,%eax
   11530:	66 89 05 09 5b 00 00 	mov    %ax,0x5b09(%rip)        # 17040 <g_20+0x4>
   11537:	0f b7 05 02 5b 00 00 	movzwl 0x5b02(%rip),%eax        # 17040 <g_20+0x4>
   1153e:	66 89 05 23 62 00 00 	mov    %ax,0x6223(%rip)        # 17768 <g_145>
   11545:	0f b7 05 1c 62 00 00 	movzwl 0x621c(%rip),%eax        # 17768 <g_145>
   1154c:	0f b7 d0             	movzwl %ax,%edx
   1154f:	83 bd 2c ed ff ff ff 	cmpl   $0xffffffff,-0x12d4(%rbp)
   11556:	0f 94 c0             	sete   %al
   11559:	0f b6 c0             	movzbl %al,%eax
   1155c:	39 c2                	cmp    %eax,%edx
   1155e:	0f 95 c0             	setne  %al
   11561:	31 c8                	xor    %ecx,%eax
   11563:	0f b6 c0             	movzbl %al,%eax
   11566:	be 24 31 e8 49       	mov    $0x49e83124,%esi
   1156b:	89 c7                	mov    %eax,%edi
   1156d:	e8 8d 81 ff ff       	callq  96ff <safe_div_func_int32_t_s_s>
   11572:	85 c0                	test   %eax,%eax
   11574:	74 07                	je     1157d <func_69+0x13b2>
   11576:	ba 01 00 00 00       	mov    $0x1,%edx
   1157b:	eb 05                	jmp    11582 <func_69+0x13b7>
   1157d:	ba 00 00 00 00       	mov    $0x0,%edx
   11582:	48 8b 05 c7 90 00 00 	mov    0x90c7(%rip),%rax        # 1a650 <g_123>
   11589:	89 10                	mov    %edx,(%rax)
   1158b:	48 8b 85 30 ed ff ff 	mov    -0x12d0(%rbp),%rax
   11592:	48 85 c0             	test   %rax,%rax
   11595:	75 08                	jne    1159f <func_69+0x13d4>
   11597:	8b 85 08 ed ff ff    	mov    -0x12f8(%rbp),%eax
   1159d:	85 c0                	test   %eax,%eax
   1159f:	48 8d 05 22 62 00 00 	lea    0x6222(%rip),%rax        # 177c8 <g_246+0x48>
   115a6:	48 89 85 68 ed ff ff 	mov    %rax,-0x1298(%rbp)
   115ad:	48 c7 85 80 ed ff ff 	movq   $0x0,-0x1280(%rbp)
   115b4:	00 00 00 00 
   115b8:	48 8d 05 79 5a 00 00 	lea    0x5a79(%rip),%rax        # 17038 <g_14>
   115bf:	48 89 85 88 ed ff ff 	mov    %rax,-0x1278(%rbp)
   115c6:	48 c7 85 90 ed ff ff 	movq   $0x0,-0x1270(%rbp)
   115cd:	00 00 00 00 
   115d1:	48 8d 05 60 5a 00 00 	lea    0x5a60(%rip),%rax        # 17038 <g_14>
   115d8:	48 89 85 98 ed ff ff 	mov    %rax,-0x1268(%rbp)
   115df:	48 c7 85 a0 ed ff ff 	movq   $0x0,-0x1260(%rbp)
   115e6:	00 00 00 00 
   115ea:	48 8d 05 47 5a 00 00 	lea    0x5a47(%rip),%rax        # 17038 <g_14>
   115f1:	48 89 85 a8 ed ff ff 	mov    %rax,-0x1258(%rbp)
   115f8:	48 c7 85 b0 ed ff ff 	movq   $0x0,-0x1250(%rbp)
   115ff:	00 00 00 00 
   11603:	48 8d 05 2e 5a 00 00 	lea    0x5a2e(%rip),%rax        # 17038 <g_14>
   1160a:	48 89 85 b8 ed ff ff 	mov    %rax,-0x1248(%rbp)
   11611:	48 c7 85 c0 ed ff ff 	movq   $0x0,-0x1240(%rbp)
   11618:	00 00 00 00 
   1161c:	48 c7 05 a1 60 00 00 	movq   $0x1,0x60a1(%rip)        # 176c8 <g_118>
   11623:	01 00 00 00 
   11627:	c7 85 08 ed ff ff 01 	movl   $0x1,-0x12f8(%rbp)
   1162e:	00 00 00 
   11631:	48 8b 85 f0 ec ff ff 	mov    -0x1310(%rbp),%rax
   11638:	0f be d8             	movsbl %al,%ebx
   1163b:	48 8b 05 0e 90 00 00 	mov    0x900e(%rip),%rax        # 1a650 <g_123>
   11642:	8b 00                	mov    (%rax),%eax
   11644:	41 89 c4             	mov    %eax,%r12d
   11647:	48 8b 85 f0 ec ff ff 	mov    -0x1310(%rbp),%rax
   1164e:	0f be d0             	movsbl %al,%edx
   11651:	48 83 bd 68 ed ff ff 	cmpq   $0x0,-0x1298(%rbp)
   11658:	00 
   11659:	0f 95 c0             	setne  %al
   1165c:	0f b6 c0             	movzbl %al,%eax
   1165f:	89 d6                	mov    %edx,%esi
   11661:	89 c7                	mov    %eax,%edi
   11663:	e8 6c 7b ff ff       	callq  91d4 <safe_add_func_int8_t_s_s>
   11668:	0f be c0             	movsbl %al,%eax
   1166b:	44 89 e6             	mov    %r12d,%esi
   1166e:	89 c7                	mov    %eax,%edi
   11670:	e8 b0 88 ff ff       	callq  9f25 <safe_div_func_uint32_t_u_u>
   11675:	8b 05 d1 94 00 00    	mov    0x94d1(%rip),%eax        # 1ab4c <g_51>
   1167b:	98                   	cwtl   
   1167c:	89 c7                	mov    %eax,%edi
   1167e:	e8 1a 7d ff ff       	callq  939d <safe_unary_minus_func_int16_t_s>
   11683:	0f bf d0             	movswl %ax,%edx
   11686:	48 8b 85 88 fd ff ff 	mov    -0x278(%rbp),%rax
   1168d:	48 85 c0             	test   %rax,%rax
   11690:	0f 95 c0             	setne  %al
   11693:	0f b6 c0             	movzbl %al,%eax
   11696:	39 c2                	cmp    %eax,%edx
   11698:	0f 9d c0             	setge  %al
   1169b:	0f b6 c0             	movzbl %al,%eax
   1169e:	89 de                	mov    %ebx,%esi
   116a0:	89 c7                	mov    %eax,%edi
   116a2:	e8 6b 7b ff ff       	callq  9212 <safe_mul_func_int8_t_s_s>
   116a7:	48 8b 85 f8 ec ff ff 	mov    -0x1308(%rbp),%rax
   116ae:	48 8d 15 83 59 00 00 	lea    0x5983(%rip),%rdx        # 17038 <g_14>
   116b5:	48 39 d0             	cmp    %rdx,%rax
   116b8:	0f 94 c0             	sete   %al
   116bb:	0f b6 d8             	movzbl %al,%ebx
   116be:	be 05 00 00 00       	mov    $0x5,%esi
   116c3:	bf 20 38 00 00       	mov    $0x3820,%edi
   116c8:	e8 14 7e ff ff       	callq  94e1 <safe_lshift_func_int16_t_s_u>
   116cd:	89 c1                	mov    %eax,%ecx
   116cf:	48 8b 85 68 ed ff ff 	mov    -0x1298(%rbp),%rax
   116d6:	0f b7 00             	movzwl (%rax),%eax
   116d9:	89 da                	mov    %ebx,%edx
   116db:	21 c2                	and    %eax,%edx
   116dd:	48 8b 85 68 ed ff ff 	mov    -0x1298(%rbp),%rax
   116e4:	66 89 10             	mov    %dx,(%rax)
   116e7:	48 8b 85 68 ed ff ff 	mov    -0x1298(%rbp),%rax
   116ee:	0f b7 00             	movzwl (%rax),%eax
   116f1:	66 83 f8 f8          	cmp    $0xfff8,%ax
   116f5:	0f 9c c0             	setl   %al
   116f8:	09 c8                	or     %ecx,%eax
   116fa:	0f b6 c0             	movzbl %al,%eax
   116fd:	be f9 00 00 00       	mov    $0xf9,%esi
   11702:	89 c7                	mov    %eax,%edi
   11704:	e8 a5 84 ff ff       	callq  9bae <safe_mod_func_uint8_t_u_u>
   11709:	0f b6 d0             	movzbl %al,%edx
   1170c:	8b 85 0c ed ff ff    	mov    -0x12f4(%rbp),%eax
   11712:	31 d0                	xor    %edx,%eax
   11714:	89 85 0c ed ff ff    	mov    %eax,-0x12f4(%rbp)
   1171a:	8b 95 0c ed ff ff    	mov    -0x12f4(%rbp),%edx
   11720:	8b 85 10 ed ff ff    	mov    -0x12f0(%rbp),%eax
   11726:	09 d0                	or     %edx,%eax
   11728:	89 85 10 ed ff ff    	mov    %eax,-0x12f0(%rbp)
   1172e:	48 8b 05 63 8f 00 00 	mov    0x8f63(%rip),%rax        # 1a698 <g_694>
   11735:	48 8b 00             	mov    (%rax),%rax
   11738:	48 8b 00             	mov    (%rax),%rax
   1173b:	48 c7 00 00 00 00 00 	movq   $0x0,(%rax)
   11742:	48 8b 05 7f 5f 00 00 	mov    0x5f7f(%rip),%rax        # 176c8 <g_118>
   11749:	0f be d8             	movsbl %al,%ebx
   1174c:	48 8b 85 f0 ec ff ff 	mov    -0x1310(%rbp),%rax
   11753:	41 89 c5             	mov    %eax,%r13d
   11756:	0f b7 05 6b 60 00 00 	movzwl 0x606b(%rip),%eax        # 177c8 <g_246+0x48>
   1175d:	44 0f b7 e0          	movzwl %ax,%r12d
   11761:	8b 95 28 ed ff ff    	mov    -0x12d8(%rbp),%edx
   11767:	48 8b 85 f0 ec ff ff 	mov    -0x1310(%rbp),%rax
   1176e:	48 85 c0             	test   %rax,%rax
   11771:	0f 95 c0             	setne  %al
   11774:	0f b6 c0             	movzbl %al,%eax
   11777:	89 d6                	mov    %edx,%esi
   11779:	89 c7                	mov    %eax,%edi
   1177b:	e8 ec 7b ff ff       	callq  936c <safe_rshift_func_int8_t_s_u>
   11780:	48 0f be d0          	movsbq %al,%rdx
   11784:	48 8b 05 ed 61 00 00 	mov    0x61ed(%rip),%rax        # 17978 <g_680>
   1178b:	48 39 c2             	cmp    %rax,%rdx
   1178e:	0f 9e c0             	setle  %al
   11791:	0f b6 c0             	movzbl %al,%eax
   11794:	44 89 e6             	mov    %r12d,%esi
   11797:	89 c7                	mov    %eax,%edi
   11799:	e8 81 85 ff ff       	callq  9d1f <safe_sub_func_uint16_t_u_u>
   1179e:	0f b7 d0             	movzwl %ax,%edx
   117a1:	8b 05 d9 61 00 00    	mov    0x61d9(%rip),%eax        # 17980 <g_706>
   117a7:	39 c2                	cmp    %eax,%edx
   117a9:	75 0c                	jne    117b7 <func_69+0x15ec>
   117ab:	48 8b 85 f0 ec ff ff 	mov    -0x1310(%rbp),%rax
   117b2:	48 85 c0             	test   %rax,%rax
   117b5:	74 07                	je     117be <func_69+0x15f3>
   117b7:	b8 01 00 00 00       	mov    $0x1,%eax
   117bc:	eb 05                	jmp    117c3 <func_69+0x15f8>
   117be:	b8 00 00 00 00       	mov    $0x0,%eax
   117c3:	89 c2                	mov    %eax,%edx
   117c5:	48 8b 85 f0 ec ff ff 	mov    -0x1310(%rbp),%rax
   117cc:	89 d6                	mov    %edx,%esi
   117ce:	89 c7                	mov    %eax,%edi
   117d0:	e8 28 87 ff ff       	callq  9efd <safe_mod_func_uint32_t_u_u>
   117d5:	0f b7 c0             	movzwl %ax,%eax
   117d8:	44 89 ee             	mov    %r13d,%esi
   117db:	89 c7                	mov    %eax,%edi
   117dd:	e8 98 86 ff ff       	callq  9e7a <safe_rshift_func_uint16_t_u_u>
   117e2:	0f b6 05 73 58 00 00 	movzbl 0x5873(%rip),%eax        # 1705c <g_67+0x4>
   117e9:	0f be c0             	movsbl %al,%eax
   117ec:	89 de                	mov    %ebx,%esi
   117ee:	89 c7                	mov    %eax,%edi
   117f0:	e8 fd 79 ff ff       	callq  91f2 <safe_sub_func_int8_t_s_s>
   117f5:	be 06 00 00 00       	mov    $0x6,%esi
   117fa:	bf 00 00 00 00       	mov    $0x0,%edi
   117ff:	e8 56 83 ff ff       	callq  9b5a <safe_add_func_uint8_t_u_u>
   11804:	0f b6 d8             	movzbl %al,%ebx
   11807:	8b 05 5f 5f 00 00    	mov    0x5f5f(%rip),%eax        # 1776c <g_217>
   1180d:	44 0f be e0          	movsbl %al,%r12d
   11811:	48 8b 85 f0 ec ff ff 	mov    -0x1310(%rbp),%rax
   11818:	0f b7 d0             	movzwl %ax,%edx
   1181b:	48 83 ad 58 ed ff ff 	subq   $0x1,-0x12a8(%rbp)
   11822:	01 
   11823:	48 8b 85 58 ed ff ff 	mov    -0x12a8(%rbp),%rax
   1182a:	0f b7 c0             	movzwl %ax,%eax
   1182d:	89 d6                	mov    %edx,%esi
   1182f:	89 c7                	mov    %eax,%edi
   11831:	e8 26 85 ff ff       	callq  9d5c <safe_mod_func_uint16_t_u_u>
   11836:	0f be c0             	movsbl %al,%eax
   11839:	44 89 e6             	mov    %r12d,%esi
   1183c:	89 c7                	mov    %eax,%edi
   1183e:	e8 af 79 ff ff       	callq  91f2 <safe_sub_func_int8_t_s_s>
   11843:	66 98                	cbtw   
   11845:	0f b7 c0             	movzwl %ax,%eax
   11848:	be 0d 00 00 00       	mov    $0xd,%esi
   1184d:	89 c7                	mov    %eax,%edi
   1184f:	e8 6a 85 ff ff       	callq  9dbe <safe_lshift_func_uint16_t_u_s>
   11854:	0f b7 c0             	movzwl %ax,%eax
   11857:	48 89 de             	mov    %rbx,%rsi
   1185a:	48 89 c7             	mov    %rax,%rdi
   1185d:	e8 df 7f ff ff       	callq  9841 <safe_add_func_int64_t_s_s>
   11862:	be 0e 00 00 00       	mov    $0xe,%esi
   11867:	bf 00 00 00 00       	mov    $0x0,%edi
   1186c:	e8 70 7c ff ff       	callq  94e1 <safe_lshift_func_int16_t_s_u>
   11871:	98                   	cwtl   
   11872:	89 05 c8 5e 00 00    	mov    %eax,0x5ec8(%rip)        # 17740 <g_122>
   11878:	8b 15 c2 5e 00 00    	mov    0x5ec2(%rip),%edx        # 17740 <g_122>
   1187e:	8b 85 10 ed ff ff    	mov    -0x12f0(%rbp),%eax
   11884:	31 d0                	xor    %edx,%eax
   11886:	89 85 10 ed ff ff    	mov    %eax,-0x12f0(%rbp)
   1188c:	48 8b 85 f8 ec ff ff 	mov    -0x1308(%rbp),%rax
   11893:	48 8b 4d d8          	mov    -0x28(%rbp),%rcx
   11897:	64 48 33 0c 25 28 00 	xor    %fs:0x28,%rcx
   1189e:	00 00 
   118a0:	74 05                	je     118a7 <func_69+0x16dc>
   118a2:	e8 c9 77 ff ff       	callq  9070 <__stack_chk_fail@plt>
   118a7:	48 81 c4 f8 12 00 00 	add    $0x12f8,%rsp
   118ae:	5b                   	pop    %rbx
   118af:	41 5c                	pop    %r12
   118b1:	41 5d                	pop    %r13
   118b3:	5d                   	pop    %rbp
   118b4:	c3                   	retq   

00000000000118b5 <func_73>:
   118b5:	f3 0f 1e fa          	endbr64 
   118b9:	55                   	push   %rbp
   118ba:	48 89 e5             	mov    %rsp,%rbp
   118bd:	41 57                	push   %r15
   118bf:	41 56                	push   %r14
   118c1:	41 55                	push   %r13
   118c3:	41 54                	push   %r12
   118c5:	53                   	push   %rbx
   118c6:	48 81 ec f8 03 00 00 	sub    $0x3f8,%rsp
   118cd:	89 f8                	mov    %edi,%eax
   118cf:	88 85 ec fb ff ff    	mov    %al,-0x414(%rbp)
   118d5:	64 48 8b 04 25 28 00 	mov    %fs:0x28,%rax
   118dc:	00 00 
   118de:	48 89 45 c8          	mov    %rax,-0x38(%rbp)
   118e2:	31 c0                	xor    %eax,%eax
   118e4:	48 8d 05 5d 57 00 00 	lea    0x575d(%rip),%rax        # 17048 <g_61>
   118eb:	48 89 85 08 fc ff ff 	mov    %rax,-0x3f8(%rbp)
   118f2:	48 8d 85 08 fc ff ff 	lea    -0x3f8(%rbp),%rax
   118f9:	48 89 85 10 fc ff ff 	mov    %rax,-0x3f0(%rbp)
   11900:	48 c7 85 18 fc ff ff 	movq   $0x0,-0x3e8(%rbp)
   11907:	00 00 00 00 
   1190b:	c7 85 60 fc ff ff ff 	movl   $0xffffffff,-0x3a0(%rbp)
   11912:	ff ff ff 
   11915:	c7 85 64 fc ff ff e4 	movl   $0x769b8de4,-0x39c(%rbp)
   1191c:	8d 9b 76 
   1191f:	c7 85 68 fc ff ff ff 	movl   $0xffffffff,-0x398(%rbp)
   11926:	ff ff ff 
   11929:	c7 85 6c fc ff ff ff 	movl   $0xffffffff,-0x394(%rbp)
   11930:	ff ff ff 
   11933:	c7 85 70 fc ff ff e4 	movl   $0x769b8de4,-0x390(%rbp)
   1193a:	8d 9b 76 
   1193d:	c7 85 74 fc ff ff ff 	movl   $0xffffffff,-0x38c(%rbp)
   11944:	ff ff ff 
   11947:	c7 85 78 fc ff ff ff 	movl   $0xffffffff,-0x388(%rbp)
   1194e:	ff ff ff 
   11951:	c7 85 7c fc ff ff e4 	movl   $0x769b8de4,-0x384(%rbp)
   11958:	8d 9b 76 
   1195b:	48 8d 05 ee 8c 00 00 	lea    0x8cee(%rip),%rax        # 1a650 <g_123>
   11962:	48 89 85 20 fc ff ff 	mov    %rax,-0x3e0(%rbp)
   11969:	48 8d 05 e0 8c 00 00 	lea    0x8ce0(%rip),%rax        # 1a650 <g_123>
   11970:	48 89 85 28 fc ff ff 	mov    %rax,-0x3d8(%rbp)
   11977:	c6 85 f7 fb ff ff 4f 	movb   $0x4f,-0x409(%rbp)
   1197e:	c7 05 c4 91 00 00 00 	movl   $0x0,0x91c4(%rip)        # 1ab4c <g_51>
   11985:	00 00 00 
   11988:	90                   	nop
   11989:	8b 05 bd 91 00 00    	mov    0x91bd(%rip),%eax        # 1ab4c <g_51>
   1198f:	83 f8 02             	cmp    $0x2,%eax
   11992:	0f 8f 04 01 00 00    	jg     11a9c <func_73+0x1e7>
   11998:	c7 45 c2 00 47 47 00 	movl   $0x474700,-0x3e(%rbp)
   1199f:	66 c7 45 c6 47 47    	movw   $0x4747,-0x3a(%rbp)
   119a5:	c7 85 04 fc ff ff 02 	movl   $0x2,-0x3fc(%rbp)
   119ac:	00 00 00 
   119af:	c6 85 ec fb ff ff 00 	movb   $0x0,-0x414(%rbp)
   119b6:	e9 c9 00 00 00       	jmpq   11a84 <func_73+0x1cf>
   119bb:	48 8d 05 76 56 00 00 	lea    0x5676(%rip),%rax        # 17038 <g_14>
   119c2:	48 89 85 48 fc ff ff 	mov    %rax,-0x3b8(%rbp)
   119c9:	48 8d 05 68 56 00 00 	lea    0x5668(%rip),%rax        # 17038 <g_14>
   119d0:	48 89 85 50 fc ff ff 	mov    %rax,-0x3b0(%rbp)
   119d7:	48 8d 05 5a 56 00 00 	lea    0x565a(%rip),%rax        # 17038 <g_14>
   119de:	48 89 85 58 fc ff ff 	mov    %rax,-0x3a8(%rbp)
   119e5:	48 8d 85 50 fe ff ff 	lea    -0x1b0(%rbp),%rax
   119ec:	48 8d 15 4d 88 00 00 	lea    0x884d(%rip),%rdx        # 1a240 <g_1455+0x2890>
   119f3:	b9 2a 00 00 00       	mov    $0x2a,%ecx
   119f8:	48 89 c7             	mov    %rax,%rdi
   119fb:	48 89 d6             	mov    %rdx,%rsi
   119fe:	f3 48 a5             	rep movsq %ds:(%rsi),%es:(%rdi)
   11a01:	c7 85 f8 fb ff ff 00 	movl   $0x0,-0x408(%rbp)
   11a08:	00 00 00 
   11a0b:	eb 14                	jmp    11a21 <func_73+0x16c>
   11a0d:	8b 85 f8 fb ff ff    	mov    -0x408(%rbp),%eax
   11a13:	48 98                	cltq   
   11a15:	c6 44 05 be ff       	movb   $0xff,-0x42(%rbp,%rax,1)
   11a1a:	83 85 f8 fb ff ff 01 	addl   $0x1,-0x408(%rbp)
   11a21:	83 bd f8 fb ff ff 03 	cmpl   $0x3,-0x408(%rbp)
   11a28:	7e e3                	jle    11a0d <func_73+0x158>
   11a2a:	0f be 85 ec fb ff ff 	movsbl -0x414(%rbp),%eax
   11a31:	48 98                	cltq   
   11a33:	48 8d 14 00          	lea    (%rax,%rax,1),%rdx
   11a37:	48 8d 05 fe 55 00 00 	lea    0x55fe(%rip),%rax        # 1703c <g_20>
   11a3e:	0f b7 04 02          	movzwl (%rdx,%rax,1),%eax
   11a42:	66 85 c0             	test   %ax,%ax
   11a45:	75 09                	jne    11a50 <func_73+0x19b>
   11a47:	80 bd ec fb ff ff 00 	cmpb   $0x0,-0x414(%rbp)
   11a4e:	74 07                	je     11a57 <func_73+0x1a2>
   11a50:	ba 01 00 00 00       	mov    $0x1,%edx
   11a55:	eb 05                	jmp    11a5c <func_73+0x1a7>
   11a57:	ba 00 00 00 00       	mov    $0x0,%edx
   11a5c:	48 8b 85 48 fc ff ff 	mov    -0x3b8(%rbp),%rax
   11a63:	89 10                	mov    %edx,(%rax)
   11a65:	8b 05 e5 90 00 00    	mov    0x90e5(%rip),%eax        # 1ab50 <g_81>
   11a6b:	83 e8 01             	sub    $0x1,%eax
   11a6e:	89 05 dc 90 00 00    	mov    %eax,0x90dc(%rip)        # 1ab50 <g_81>
   11a74:	0f b6 85 ec fb ff ff 	movzbl -0x414(%rbp),%eax
   11a7b:	83 c0 01             	add    $0x1,%eax
   11a7e:	88 85 ec fb ff ff    	mov    %al,-0x414(%rbp)
   11a84:	80 bd ec fb ff ff 02 	cmpb   $0x2,-0x414(%rbp)
   11a8b:	0f 8e 2a ff ff ff    	jle    119bb <func_73+0x106>
   11a91:	8b 05 b5 90 00 00    	mov    0x90b5(%rip),%eax        # 1ab4c <g_51>
   11a97:	e9 b6 04 00 00       	jmpq   11f52 <func_73+0x69d>
   11a9c:	66 c7 05 c3 5c 00 00 	movw   $0x0,0x5cc3(%rip)        # 17768 <g_145>
   11aa3:	00 00 
   11aa5:	e9 91 04 00 00       	jmpq   11f3b <func_73+0x686>
   11aaa:	c7 85 80 fc ff ff 04 	movl   $0xaa030104,-0x380(%rbp)
   11ab1:	01 03 aa 
   11ab4:	c7 85 84 fc ff ff 5f 	movl   $0xf6f7045f,-0x37c(%rbp)
   11abb:	04 f7 f6 
   11abe:	c7 85 88 fc ff ff 38 	movl   $0xff3cff38,-0x378(%rbp)
   11ac5:	ff 3c ff 
   11ac8:	c7 85 8c fc ff ff 38 	movl   $0x3f70138,-0x374(%rbp)
   11acf:	01 f7 03 
   11ad2:	c7 85 90 fc ff ff 5f 	movl   $0x3ff5f,-0x370(%rbp)
   11ad9:	ff 03 00 
   11adc:	c7 85 94 fc ff ff 04 	movl   $0xffffc604,-0x36c(%rbp)
   11ae3:	c6 ff ff 
   11ae6:	c7 85 98 fc ff ff c6 	movl   $0xc60101c6,-0x368(%rbp)
   11aed:	01 01 c6 
   11af0:	c7 85 9c fc ff ff 03 	movl   $0xf6fa3803,-0x364(%rbp)
   11af7:	38 fa f6 
   11afa:	c7 85 a0 fc ff ff 82 	movl   $0x4ffaa82,-0x360(%rbp)
   11b01:	aa ff 04 
   11b04:	c7 85 a4 fc ff ff 02 	movl   $0x4e30102,-0x35c(%rbp)
   11b0b:	01 e3 04 
   11b0e:	c7 85 a8 fc ff ff 5f 	movl   $0xf600aa5f,-0x358(%rbp)
   11b15:	aa 00 f6 
   11b18:	c7 85 ac fc ff ff ff 	movl   $0xc63c38ff,-0x354(%rbp)
   11b1f:	38 3c c6 
   11b22:	c7 85 b0 fc ff ff 03 	movl   $0xfff60103,-0x350(%rbp)
   11b29:	01 f6 ff 
   11b2c:	c7 85 b4 fc ff ff 5f 	movl   $0x5fc65f,-0x34c(%rbp)
   11b33:	c6 5f 00 
   11b36:	c7 85 b8 fc ff ff aa 	movl   $0x3ffffaa,-0x348(%rbp)
   11b3d:	ff ff 03 
   11b40:	c7 85 bc fc ff ff ff 	movl   $0xff0101ff,-0x344(%rbp)
   11b47:	01 01 ff 
   11b4a:	c7 85 c0 fc ff ff 03 	movl   $0xf601ff03,-0x340(%rbp)
   11b51:	ff 01 f6 
   11b54:	c7 85 c4 fc ff ff ff 	movl   $0xaaff04ff,-0x33c(%rbp)
   11b5b:	04 ff aa 
   11b5e:	c7 85 c8 fc ff ff aa 	movl   $0x25f01aa,-0x338(%rbp)
   11b65:	01 5f 02 
   11b68:	c7 85 cc fc ff ff 5f 	movl   $0xf6f6025f,-0x334(%rbp)
   11b6f:	02 f6 f6 
   11b72:	c7 85 d0 fc ff ff 03 	movl   $0x823c0303,-0x330(%rbp)
   11b79:	03 3c 82 
   11b7c:	c7 85 d4 fc ff ff ff 	movl   $0x380001ff,-0x32c(%rbp)
   11b83:	01 00 38 
   11b86:	c7 85 d8 fc ff ff 5f 	movl   $0xe3825f,-0x328(%rbp)
   11b8d:	82 e3 00 
   11b90:	c7 85 dc fc ff ff 02 	movl   $0x38ff8202,-0x324(%rbp)
   11b97:	82 ff 38 
   11b9a:	48 8d 85 e0 fc ff ff 	lea    -0x320(%rbp),%rax
   11ba1:	48 8d 15 f8 87 00 00 	lea    0x87f8(%rip),%rdx        # 1a3a0 <g_1455+0x29f0>
   11ba8:	b9 2d 00 00 00       	mov    $0x2d,%ecx
   11bad:	48 89 c7             	mov    %rax,%rdi
   11bb0:	48 89 d6             	mov    %rdx,%rsi
   11bb3:	f3 48 a5             	rep movsq %ds:(%rsi),%es:(%rdi)
   11bb6:	c7 85 fc fb ff ff 00 	movl   $0x0,-0x404(%rbp)
   11bbd:	00 00 00 
   11bc0:	48 c7 85 30 fc ff ff 	movq   $0x0,-0x3d0(%rbp)
   11bc7:	00 00 00 00 
   11bcb:	48 8d 05 66 54 00 00 	lea    0x5466(%rip),%rax        # 17038 <g_14>
   11bd2:	48 89 85 38 fc ff ff 	mov    %rax,-0x3c8(%rbp)
   11bd9:	c7 85 00 fc ff ff 67 	movl   $0xe801ab67,-0x400(%rbp)
   11be0:	ab 01 e8 
   11be3:	48 8d 85 50 fe ff ff 	lea    -0x1b0(%rbp),%rax
   11bea:	48 8d 15 2f 19 00 00 	lea    0x192f(%rip),%rdx        # 13520 <_IO_stdin_used+0x520>
   11bf1:	b9 2d 00 00 00       	mov    $0x2d,%ecx
   11bf6:	48 89 c7             	mov    %rax,%rdi
   11bf9:	48 89 d6             	mov    %rdx,%rsi
   11bfc:	f3 48 a5             	rep movsq %ds:(%rsi),%es:(%rdi)
   11bff:	8b 9d 00 fc ff ff    	mov    -0x400(%rbp),%ebx
   11c05:	48 8b 05 44 8a 00 00 	mov    0x8a44(%rip),%rax        # 1a650 <g_123>
   11c0c:	44 8b 20             	mov    (%rax),%r12d
   11c0f:	44 0f be ad ec fb ff 	movsbl -0x414(%rbp),%r13d
   11c16:	ff 
   11c17:	44 0f be b5 ec fb ff 	movsbl -0x414(%rbp),%r14d
   11c1e:	ff 
   11c1f:	44 0f be bd ec fb ff 	movsbl -0x414(%rbp),%r15d
   11c26:	ff 
   11c27:	be 31 7d 8b 67       	mov    $0x678b7d31,%esi
   11c2c:	bf 00 00 00 00       	mov    $0x0,%edi
   11c31:	e8 9a 82 ff ff       	callq  9ed0 <safe_sub_func_uint32_t_u_u>
   11c36:	89 85 fc fb ff ff    	mov    %eax,-0x404(%rbp)
   11c3c:	44 89 fe             	mov    %r15d,%esi
   11c3f:	bf 00 00 00 00       	mov    $0x0,%edi
   11c44:	e8 bc 7f ff ff       	callq  9c05 <safe_lshift_func_uint8_t_u_s>
   11c49:	0f b6 c0             	movzbl %al,%eax
   11c4c:	89 05 1e 5b 00 00    	mov    %eax,0x5b1e(%rip)        # 17770 <g_231>
   11c52:	8b 05 18 5b 00 00    	mov    0x5b18(%rip),%eax        # 17770 <g_231>
   11c58:	83 f0 02             	xor    $0x2,%eax
   11c5b:	44 89 f6             	mov    %r14d,%esi
   11c5e:	89 c7                	mov    %eax,%edi
   11c60:	e8 a0 79 ff ff       	callq  9605 <safe_sub_func_int32_t_s_s>
   11c65:	0f b6 c0             	movzbl %al,%eax
   11c68:	44 89 ee             	mov    %r13d,%esi
   11c6b:	89 c7                	mov    %eax,%edi
   11c6d:	e8 1b 80 ff ff       	callq  9c8d <safe_rshift_func_uint8_t_u_s>
   11c72:	0f b6 d0             	movzbl %al,%edx
   11c75:	48 8b 85 38 fc ff ff 	mov    -0x3c8(%rbp),%rax
   11c7c:	89 10                	mov    %edx,(%rax)
   11c7e:	48 8b 85 38 fc ff ff 	mov    -0x3c8(%rbp),%rax
   11c85:	8b 00                	mov    (%rax),%eax
   11c87:	44 89 e6             	mov    %r12d,%esi
   11c8a:	89 c7                	mov    %eax,%edi
   11c8c:	e8 3b 7a ff ff       	callq  96cc <safe_mod_func_int32_t_s_s>
   11c91:	0f b6 c0             	movzbl %al,%eax
   11c94:	89 de                	mov    %ebx,%esi
   11c96:	89 c7                	mov    %eax,%edi
   11c98:	e8 68 7f ff ff       	callq  9c05 <safe_lshift_func_uint8_t_u_s>
   11c9d:	0f b6 c0             	movzbl %al,%eax
   11ca0:	c6 85 d0 fc ff ff 11 	movb   $0x11,-0x330(%rbp)
   11ca7:	ba 01 00 00 00       	mov    $0x1,%edx
   11cac:	89 c6                	mov    %eax,%esi
   11cae:	89 d7                	mov    %edx,%edi
   11cb0:	e8 70 82 ff ff       	callq  9f25 <safe_div_func_uint32_t_u_u>
   11cb5:	89 c2                	mov    %eax,%edx
   11cb7:	48 8b 85 20 fc ff ff 	mov    -0x3e0(%rbp),%rax
   11cbe:	48 8b 00             	mov    (%rax),%rax
   11cc1:	89 10                	mov    %edx,(%rax)
   11cc3:	8b 00                	mov    (%rax),%eax
   11cc5:	0f b6 c0             	movzbl %al,%eax
   11cc8:	89 c6                	mov    %eax,%esi
   11cca:	bf a4 00 00 00       	mov    $0xa4,%edi
   11ccf:	e8 bf 7e ff ff       	callq  9b93 <safe_mul_func_uint8_t_u_u>
   11cd4:	8b 95 08 ff ff ff    	mov    -0xf8(%rbp),%edx
   11cda:	0f b6 c0             	movzbl %al,%eax
   11cdd:	09 d0                	or     %edx,%eax
   11cdf:	89 85 08 ff ff ff    	mov    %eax,-0xf8(%rbp)
   11ce5:	c6 85 ec fb ff ff 00 	movb   $0x0,-0x414(%rbp)
   11cec:	e9 29 02 00 00       	jmpq   11f1a <func_73+0x665>
   11cf1:	48 8d 05 d0 5a 00 00 	lea    0x5ad0(%rip),%rax        # 177c8 <g_246+0x48>
   11cf8:	48 89 85 40 fc ff ff 	mov    %rax,-0x3c0(%rbp)
   11cff:	48 8b 05 4a 89 00 00 	mov    0x894a(%rip),%rax        # 1a650 <g_123>
   11d06:	8b 18                	mov    (%rax),%ebx
   11d08:	0f b6 05 4a 53 00 00 	movzbl 0x534a(%rip),%eax        # 17059 <g_67+0x1>
   11d0f:	44 0f be e0          	movsbl %al,%r12d
   11d13:	48 8b 85 20 fc ff ff 	mov    -0x3e0(%rbp),%rax
   11d1a:	48 8b 00             	mov    (%rax),%rax
   11d1d:	8b 00                	mov    (%rax),%eax
   11d1f:	44 0f b7 e8          	movzwl %ax,%r13d
   11d23:	8b 05 df 59 00 00    	mov    0x59df(%rip),%eax        # 17708 <g_120+0x28>
   11d29:	44 0f be f0          	movsbl %al,%r14d
   11d2d:	0f b6 05 1c 53 00 00 	movzbl 0x531c(%rip),%eax        # 17050 <g_63>
   11d34:	0f b6 d0             	movzbl %al,%edx
   11d37:	48 8d 05 12 89 00 00 	lea    0x8912(%rip),%rax        # 1a650 <g_123>
   11d3e:	48 39 85 20 fc ff ff 	cmp    %rax,-0x3e0(%rbp)
   11d45:	0f 94 c0             	sete   %al
   11d48:	0f b6 c0             	movzbl %al,%eax
   11d4b:	39 c2                	cmp    %eax,%edx
   11d4d:	74 53                	je     11da2 <func_73+0x4ed>
   11d4f:	0f b6 95 f7 fb ff ff 	movzbl -0x409(%rbp),%edx
   11d56:	48 8b 85 38 fc ff ff 	mov    -0x3c8(%rbp),%rax
   11d5d:	8b 00                	mov    (%rax),%eax
   11d5f:	0f b6 c0             	movzbl %al,%eax
   11d62:	89 d6                	mov    %edx,%esi
   11d64:	89 c7                	mov    %eax,%edi
   11d66:	e8 0d 7e ff ff       	callq  9b78 <safe_sub_func_uint8_t_u_u>
   11d6b:	3c 01                	cmp    $0x1,%al
   11d6d:	0f 97 c0             	seta   %al
   11d70:	0f b6 d0             	movzbl %al,%edx
   11d73:	0f be 85 ec fb ff ff 	movsbl -0x414(%rbp),%eax
   11d7a:	39 c2                	cmp    %eax,%edx
   11d7c:	0f 9f c0             	setg   %al
   11d7f:	0f b6 c0             	movzbl %al,%eax
   11d82:	be d4 2f 00 00       	mov    $0x2fd4,%esi
   11d87:	89 c7                	mov    %eax,%edi
   11d89:	e8 25 76 ff ff       	callq  93b3 <safe_add_func_int16_t_s_s>
   11d8e:	66 0f be 95 ec fb ff 	movsbw -0x414(%rbp),%dx
   11d95:	ff 
   11d96:	66 39 d0             	cmp    %dx,%ax
   11d99:	75 07                	jne    11da2 <func_73+0x4ed>
   11d9b:	b8 01 00 00 00       	mov    $0x1,%eax
   11da0:	eb 05                	jmp    11da7 <func_73+0x4f2>
   11da2:	b8 00 00 00 00       	mov    $0x0,%eax
   11da7:	85 c0                	test   %eax,%eax
   11da9:	75 07                	jne    11db2 <func_73+0x4fd>
   11dab:	b8 05 00 00 00       	mov    $0x5,%eax
   11db0:	eb 05                	jmp    11db7 <func_73+0x502>
   11db2:	b8 04 00 00 00       	mov    $0x4,%eax
   11db7:	44 89 f6             	mov    %r14d,%esi
   11dba:	89 c7                	mov    %eax,%edi
   11dbc:	e8 13 74 ff ff       	callq  91d4 <safe_add_func_int8_t_s_s>
   11dc1:	8b 05 4d 59 00 00    	mov    0x594d(%rip),%eax        # 17714 <g_120+0x34>
   11dc7:	0f be c0             	movsbl %al,%eax
   11dca:	be f9 ff ff ff       	mov    $0xfffffff9,%esi
   11dcf:	89 c7                	mov    %eax,%edi
   11dd1:	e8 fe 73 ff ff       	callq  91d4 <safe_add_func_int8_t_s_s>
   11dd6:	bf 00 00 00 00       	mov    $0x0,%edi
   11ddb:	e8 39 82 ff ff       	callq  a019 <safe_unary_minus_func_uint64_t_u>
   11de0:	41 89 c6             	mov    %eax,%r14d
   11de3:	8b 05 2b 59 00 00    	mov    0x592b(%rip),%eax        # 17714 <g_120+0x34>
   11de9:	89 c7                	mov    %eax,%edi
   11deb:	e8 b6 80 ff ff       	callq  9ea6 <safe_unary_minus_func_uint32_t_u>
   11df0:	0f b6 c0             	movzbl %al,%eax
   11df3:	44 89 f6             	mov    %r14d,%esi
   11df6:	89 c7                	mov    %eax,%edi
   11df8:	e8 90 7e ff ff       	callq  9c8d <safe_rshift_func_uint8_t_u_s>
   11dfd:	0f b6 c0             	movzbl %al,%eax
   11e00:	be a8 2a 00 00       	mov    $0x2aa8,%esi
   11e05:	89 c7                	mov    %eax,%edi
   11e07:	e8 f3 7e ff ff       	callq  9cff <safe_add_func_uint16_t_u_u>
   11e0c:	0f b7 c0             	movzwl %ax,%eax
   11e0f:	89 c6                	mov    %eax,%esi
   11e11:	bf f6 f0 00 00       	mov    $0xf0f6,%edi
   11e16:	e8 22 7f ff ff       	callq  9d3d <safe_mul_func_uint16_t_u_u>
   11e1b:	0f bf d0             	movswl %ax,%edx
   11e1e:	48 8b 85 38 fc ff ff 	mov    -0x3c8(%rbp),%rax
   11e25:	8b 00                	mov    (%rax),%eax
   11e27:	89 c1                	mov    %eax,%ecx
   11e29:	48 8b 85 40 fc ff ff 	mov    -0x3c0(%rbp),%rax
   11e30:	66 89 08             	mov    %cx,(%rax)
   11e33:	48 8b 85 40 fc ff ff 	mov    -0x3c0(%rbp),%rax
   11e3a:	0f b7 00             	movzwl (%rax),%eax
   11e3d:	98                   	cwtl   
   11e3e:	89 d6                	mov    %edx,%esi
   11e40:	89 c7                	mov    %eax,%edi
   11e42:	e8 ae 75 ff ff       	callq  93f5 <safe_mul_func_int16_t_s_s>
   11e47:	0f b7 c0             	movzwl %ax,%eax
   11e4a:	44 89 ee             	mov    %r13d,%esi
   11e4d:	89 c7                	mov    %eax,%edi
   11e4f:	e8 ab 7e ff ff       	callq  9cff <safe_add_func_uint16_t_u_u>
   11e54:	0f be c0             	movsbl %al,%eax
   11e57:	44 89 e6             	mov    %r12d,%esi
   11e5a:	89 c7                	mov    %eax,%edi
   11e5c:	e8 73 73 ff ff       	callq  91d4 <safe_add_func_int8_t_s_s>
   11e61:	48 0f be 95 ec fb ff 	movsbq -0x414(%rbp),%rdx
   11e68:	ff 
   11e69:	48 8b 05 58 58 00 00 	mov    0x5858(%rip),%rax        # 176c8 <g_118>
   11e70:	48 39 c2             	cmp    %rax,%rdx
   11e73:	0f 95 c0             	setne  %al
   11e76:	0f b6 c0             	movzbl %al,%eax
   11e79:	48 8b 95 28 fc ff ff 	mov    -0x3d8(%rbp),%rdx
   11e80:	4c 8b 22             	mov    (%rdx),%r12
   11e83:	89 de                	mov    %ebx,%esi
   11e85:	89 c7                	mov    %eax,%edi
   11e87:	e8 40 78 ff ff       	callq  96cc <safe_mod_func_int32_t_s_s>
   11e8c:	41 89 04 24          	mov    %eax,(%r12)
   11e90:	80 bd ec fb ff ff 00 	cmpb   $0x0,-0x414(%rbp)
   11e97:	0f 85 8c 00 00 00    	jne    11f29 <func_73+0x674>
   11e9d:	48 8b 05 bc 5a 00 00 	mov    0x5abc(%rip),%rax        # 17960 <g_264>
   11ea4:	48 85 c0             	test   %rax,%rax
   11ea7:	75 49                	jne    11ef2 <func_73+0x63d>
   11ea9:	0f b7 05 b8 58 00 00 	movzwl 0x58b8(%rip),%eax        # 17768 <g_145>
   11eb0:	0f b7 c0             	movzwl %ax,%eax
   11eb3:	0f b7 15 ae 58 00 00 	movzwl 0x58ae(%rip),%edx        # 17768 <g_145>
   11eba:	0f b7 d2             	movzwl %dx,%edx
   11ebd:	83 c2 01             	add    $0x1,%edx
   11ec0:	48 63 ca             	movslq %edx,%rcx
   11ec3:	48 63 d0             	movslq %eax,%rdx
   11ec6:	48 89 d0             	mov    %rdx,%rax
   11ec9:	48 01 c0             	add    %rax,%rax
   11ecc:	48 01 d0             	add    %rdx,%rax
   11ecf:	48 01 c0             	add    %rax,%rax
   11ed2:	48 01 c8             	add    %rcx,%rax
   11ed5:	48 8d 14 85 00 00 00 	lea    0x0(,%rax,4),%rdx
   11edc:	00 
   11edd:	48 8d 05 fc 57 00 00 	lea    0x57fc(%rip),%rax        # 176e0 <g_120>
   11ee4:	8b 04 02             	mov    (%rdx,%rax,1),%eax
   11ee7:	89 c7                	mov    %eax,%edi
   11ee9:	e8 a8 76 ff ff       	callq  9596 <safe_unary_minus_func_int32_t_s>
   11eee:	85 c0                	test   %eax,%eax
   11ef0:	74 07                	je     11ef9 <func_73+0x644>
   11ef2:	ba 01 00 00 00       	mov    $0x1,%edx
   11ef7:	eb 05                	jmp    11efe <func_73+0x649>
   11ef9:	ba 00 00 00 00       	mov    $0x0,%edx
   11efe:	48 8b 85 28 fc ff ff 	mov    -0x3d8(%rbp),%rax
   11f05:	48 8b 00             	mov    (%rax),%rax
   11f08:	89 10                	mov    %edx,(%rax)
   11f0a:	0f b6 85 ec fb ff ff 	movzbl -0x414(%rbp),%eax
   11f11:	83 c0 01             	add    $0x1,%eax
   11f14:	88 85 ec fb ff ff    	mov    %al,-0x414(%rbp)
   11f1a:	80 bd ec fb ff ff 03 	cmpb   $0x3,-0x414(%rbp)
   11f21:	0f 8e ca fd ff ff    	jle    11cf1 <func_73+0x43c>
   11f27:	eb 01                	jmp    11f2a <func_73+0x675>
   11f29:	90                   	nop
   11f2a:	0f b7 05 37 58 00 00 	movzwl 0x5837(%rip),%eax        # 17768 <g_145>
   11f31:	83 c0 01             	add    $0x1,%eax
   11f34:	66 89 05 2d 58 00 00 	mov    %ax,0x582d(%rip)        # 17768 <g_145>
   11f3b:	0f b7 05 26 58 00 00 	movzwl 0x5826(%rip),%eax        # 17768 <g_145>
   11f42:	66 83 f8 03          	cmp    $0x3,%ax
   11f46:	0f 86 5e fb ff ff    	jbe    11aaa <func_73+0x1f5>
   11f4c:	8b 05 ee 57 00 00    	mov    0x57ee(%rip),%eax        # 17740 <g_122>
   11f52:	48 8b 5d c8          	mov    -0x38(%rbp),%rbx
   11f56:	64 48 33 1c 25 28 00 	xor    %fs:0x28,%rbx
   11f5d:	00 00 
   11f5f:	74 05                	je     11f66 <func_73+0x6b1>
   11f61:	e8 0a 71 ff ff       	callq  9070 <__stack_chk_fail@plt>
   11f66:	48 81 c4 f8 03 00 00 	add    $0x3f8,%rsp
   11f6d:	5b                   	pop    %rbx
   11f6e:	41 5c                	pop    %r12
   11f70:	41 5d                	pop    %r13
   11f72:	41 5e                	pop    %r14
   11f74:	41 5f                	pop    %r15
   11f76:	5d                   	pop    %rbp
   11f77:	c3                   	retq   

0000000000011f78 <func_90>:
   11f78:	f3 0f 1e fa          	endbr64 
   11f7c:	55                   	push   %rbp
   11f7d:	48 89 e5             	mov    %rsp,%rbp
   11f80:	41 55                	push   %r13
   11f82:	41 54                	push   %r12
   11f84:	53                   	push   %rbx
   11f85:	48 81 ec d8 00 00 00 	sub    $0xd8,%rsp
   11f8c:	89 bd 2c ff ff ff    	mov    %edi,-0xd4(%rbp)
   11f92:	89 f0                	mov    %esi,%eax
   11f94:	48 89 95 20 ff ff ff 	mov    %rdx,-0xe0(%rbp)
   11f9b:	48 89 8d 18 ff ff ff 	mov    %rcx,-0xe8(%rbp)
   11fa2:	66 89 85 28 ff ff ff 	mov    %ax,-0xd8(%rbp)
   11fa9:	64 48 8b 04 25 28 00 	mov    %fs:0x28,%rax
   11fb0:	00 00 
   11fb2:	48 89 45 d8          	mov    %rax,-0x28(%rbp)
   11fb6:	31 c0                	xor    %eax,%eax
   11fb8:	48 8d 05 91 50 00 00 	lea    0x5091(%rip),%rax        # 17050 <g_63>
   11fbf:	48 89 45 80          	mov    %rax,-0x80(%rbp)
   11fc3:	48 8d 05 86 50 00 00 	lea    0x5086(%rip),%rax        # 17050 <g_63>
   11fca:	48 89 45 88          	mov    %rax,-0x78(%rbp)
   11fce:	48 8d 05 7b 50 00 00 	lea    0x507b(%rip),%rax        # 17050 <g_63>
   11fd5:	48 89 45 90          	mov    %rax,-0x70(%rbp)
   11fd9:	48 8d 05 70 50 00 00 	lea    0x5070(%rip),%rax        # 17050 <g_63>
   11fe0:	48 89 45 98          	mov    %rax,-0x68(%rbp)
   11fe4:	48 8d 05 65 50 00 00 	lea    0x5065(%rip),%rax        # 17050 <g_63>
   11feb:	48 89 45 a0          	mov    %rax,-0x60(%rbp)
   11fef:	48 8d 05 67 50 00 00 	lea    0x5067(%rip),%rax        # 1705d <g_67+0x5>
   11ff6:	48 89 45 a8          	mov    %rax,-0x58(%rbp)
   11ffa:	48 8d 05 5e 50 00 00 	lea    0x505e(%rip),%rax        # 1705f <g_67+0x7>
   12001:	48 89 45 b0          	mov    %rax,-0x50(%rbp)
   12005:	48 8d 05 51 50 00 00 	lea    0x5051(%rip),%rax        # 1705d <g_67+0x5>
   1200c:	48 89 45 b8          	mov    %rax,-0x48(%rbp)
   12010:	48 8d 05 48 50 00 00 	lea    0x5048(%rip),%rax        # 1705f <g_67+0x7>
   12017:	48 89 45 c0          	mov    %rax,-0x40(%rbp)
   1201b:	48 8d 05 3b 50 00 00 	lea    0x503b(%rip),%rax        # 1705d <g_67+0x5>
   12022:	48 89 45 c8          	mov    %rax,-0x38(%rbp)
   12026:	48 8d 05 3b 57 00 00 	lea    0x573b(%rip),%rax        # 17768 <g_145>
   1202d:	48 89 85 40 ff ff ff 	mov    %rax,-0xc0(%rbp)
   12034:	c7 85 3c ff ff ff fe 	movl   $0xfffffffe,-0xc4(%rbp)
   1203b:	ff ff ff 
   1203e:	48 8d 05 0b 86 00 00 	lea    0x860b(%rip),%rax        # 1a650 <g_123>
   12045:	48 89 85 48 ff ff ff 	mov    %rax,-0xb8(%rbp)
   1204c:	c7 85 34 ff ff ff 23 	movl   $0x74b49123,-0xcc(%rbp)
   12053:	91 b4 74 
   12056:	48 8b 05 f3 85 00 00 	mov    0x85f3(%rip),%rax        # 1a650 <g_123>
   1205d:	8b 10                	mov    (%rax),%edx
   1205f:	48 8b 05 ea 85 00 00 	mov    0x85ea(%rip),%rax        # 1a650 <g_123>
   12066:	81 f2 a3 3b d9 25    	xor    $0x25d93ba3,%edx
   1206c:	89 10                	mov    %edx,(%rax)
   1206e:	48 8b 05 db 85 00 00 	mov    0x85db(%rip),%rax        # 1a650 <g_123>
   12075:	8b 18                	mov    (%rax),%ebx
   12077:	48 8b 85 40 ff ff ff 	mov    -0xc0(%rbp),%rax
   1207e:	0f b7 00             	movzwl (%rax),%eax
   12081:	83 f0 02             	xor    $0x2,%eax
   12084:	89 c2                	mov    %eax,%edx
   12086:	48 8b 85 40 ff ff ff 	mov    -0xc0(%rbp),%rax
   1208d:	66 89 10             	mov    %dx,(%rax)
   12090:	48 8b 85 40 ff ff ff 	mov    -0xc0(%rbp),%rax
   12097:	0f b7 00             	movzwl (%rax),%eax
   1209a:	0f bf d0             	movswl %ax,%edx
   1209d:	48 8b 45 c8          	mov    -0x38(%rbp),%rax
   120a1:	48 8d 0d b2 4f 00 00 	lea    0x4fb2(%rip),%rcx        # 1705a <g_67+0x2>
   120a8:	48 39 c8             	cmp    %rcx,%rax
   120ab:	0f 94 c0             	sete   %al
   120ae:	0f b6 c0             	movzbl %al,%eax
   120b1:	89 d6                	mov    %edx,%esi
   120b3:	89 c7                	mov    %eax,%edi
   120b5:	e8 9b 73 ff ff       	callq  9455 <safe_div_func_int16_t_s_s>
   120ba:	98                   	cwtl   
   120bb:	39 c3                	cmp    %eax,%ebx
   120bd:	0f 9f c2             	setg   %dl
   120c0:	48 8b 05 89 85 00 00 	mov    0x8589(%rip),%rax        # 1a650 <g_123>
   120c7:	0f b6 d2             	movzbl %dl,%edx
   120ca:	89 10                	mov    %edx,(%rax)
   120cc:	48 c7 05 e9 55 00 00 	movq   $0xffffffffffffffe8,0x55e9(%rip)        # 176c0 <g_111>
   120d3:	e8 ff ff ff 
   120d7:	e9 22 02 00 00       	jmpq   122fe <func_90+0x386>
   120dc:	48 8d 05 85 56 00 00 	lea    0x5685(%rip),%rax        # 17768 <g_145>
   120e3:	48 89 85 50 ff ff ff 	mov    %rax,-0xb0(%rbp)
   120ea:	c7 85 38 ff ff ff 00 	movl   $0x0,-0xc8(%rbp)
   120f1:	00 00 00 
   120f4:	eb 21                	jmp    12117 <func_90+0x19f>
   120f6:	8b 85 38 ff ff ff    	mov    -0xc8(%rbp),%eax
   120fc:	48 98                	cltq   
   120fe:	48 bb 17 3c 0c 8d 3e 	movabs $0xccb9073e8d0c3c17,%rbx
   12105:	07 b9 cc 
   12108:	48 89 9c c5 60 ff ff 	mov    %rbx,-0xa0(%rbp,%rax,8)
   1210f:	ff 
   12110:	83 85 38 ff ff ff 01 	addl   $0x1,-0xc8(%rbp)
   12117:	83 bd 38 ff ff ff 03 	cmpl   $0x3,-0xc8(%rbp)
   1211e:	7e d6                	jle    120f6 <func_90+0x17e>
   12120:	48 c7 85 18 ff ff ff 	movq   $0x0,-0xe8(%rbp)
   12127:	00 00 00 00 
   1212b:	e9 b9 00 00 00       	jmpq   121e9 <func_90+0x271>
   12130:	48 8d 05 19 85 00 00 	lea    0x8519(%rip),%rax        # 1a650 <g_123>
   12137:	48 89 85 58 ff ff ff 	mov    %rax,-0xa8(%rbp)
   1213e:	48 8b 85 18 ff ff ff 	mov    -0xe8(%rbp),%rax
   12145:	48 8d 48 01          	lea    0x1(%rax),%rcx
   12149:	48 8b 85 18 ff ff ff 	mov    -0xe8(%rbp),%rax
   12150:	48 8d 70 02          	lea    0x2(%rax),%rsi
   12154:	48 8b 95 18 ff ff ff 	mov    -0xe8(%rbp),%rdx
   1215b:	48 89 d0             	mov    %rdx,%rax
   1215e:	48 01 c0             	add    %rax,%rax
   12161:	48 01 d0             	add    %rdx,%rax
   12164:	48 01 c0             	add    %rax,%rax
   12167:	48 01 c8             	add    %rcx,%rax
   1216a:	48 8d 14 85 00 00 00 	lea    0x0(,%rax,4),%rdx
   12171:	00 
   12172:	48 8d 05 67 55 00 00 	lea    0x5567(%rip),%rax        # 176e0 <g_120>
   12179:	8b 0c 02             	mov    (%rdx,%rax,1),%ecx
   1217c:	48 8b 95 18 ff ff ff 	mov    -0xe8(%rbp),%rdx
   12183:	48 89 d0             	mov    %rdx,%rax
   12186:	48 01 c0             	add    %rax,%rax
   12189:	48 01 d0             	add    %rdx,%rax
   1218c:	48 01 c0             	add    %rax,%rax
   1218f:	48 01 f0             	add    %rsi,%rax
   12192:	48 8d 14 85 00 00 00 	lea    0x0(,%rax,4),%rdx
   12199:	00 
   1219a:	48 8d 05 3f 55 00 00 	lea    0x553f(%rip),%rax        # 176e0 <g_120>
   121a1:	89 0c 02             	mov    %ecx,(%rdx,%rax,1)
   121a4:	48 8b 85 18 ff ff ff 	mov    -0xe8(%rbp),%rax
   121ab:	48 8d 48 01          	lea    0x1(%rax),%rcx
   121af:	48 8b 95 18 ff ff ff 	mov    -0xe8(%rbp),%rdx
   121b6:	48 89 d0             	mov    %rdx,%rax
   121b9:	48 01 c0             	add    %rax,%rax
   121bc:	48 01 d0             	add    %rdx,%rax
   121bf:	48 01 c0             	add    %rax,%rax
   121c2:	48 01 c8             	add    %rcx,%rax
   121c5:	48 8d 14 85 00 00 00 	lea    0x0(,%rax,4),%rdx
   121cc:	00 
   121cd:	48 8d 05 0c 55 00 00 	lea    0x550c(%rip),%rax        # 176e0 <g_120>
   121d4:	48 01 c2             	add    %rax,%rdx
   121d7:	48 8b 85 58 ff ff ff 	mov    -0xa8(%rbp),%rax
   121de:	48 89 10             	mov    %rdx,(%rax)
   121e1:	48 83 85 18 ff ff ff 	addq   $0x1,-0xe8(%rbp)
   121e8:	01 
   121e9:	48 83 bd 18 ff ff ff 	cmpq   $0x3,-0xe8(%rbp)
   121f0:	03 
   121f1:	0f 86 39 ff ff ff    	jbe    12130 <func_90+0x1b8>
   121f7:	8b 05 53 89 00 00    	mov    0x8953(%rip),%eax        # 1ab50 <g_81>
   121fd:	41 89 c5             	mov    %eax,%r13d
   12200:	48 83 bd 50 ff ff ff 	cmpq   $0x0,-0xb0(%rbp)
   12207:	00 
   12208:	0f 94 c0             	sete   %al
   1220b:	44 0f b6 e0          	movzbl %al,%r12d
   1220f:	0f b7 9d 28 ff ff ff 	movzwl -0xd8(%rbp),%ebx
   12216:	48 8b 85 40 ff ff ff 	mov    -0xc0(%rbp),%rax
   1221d:	66 c7 00 01 00       	movw   $0x1,(%rax)
   12222:	bf 01 00 00 00       	mov    $0x1,%edi
   12227:	e8 93 6f ff ff       	callq  91bf <safe_unary_minus_func_int8_t_s>
   1222c:	66 98                	cbtw   
   1222e:	0f b7 c0             	movzwl %ax,%eax
   12231:	89 de                	mov    %ebx,%esi
   12233:	89 c7                	mov    %eax,%edi
   12235:	e8 cc 7b ff ff       	callq  9e06 <safe_lshift_func_uint16_t_u_u>
   1223a:	0f b7 c0             	movzwl %ax,%eax
   1223d:	41 39 c4             	cmp    %eax,%r12d
   12240:	0f 95 c0             	setne  %al
   12243:	0f b6 d0             	movzbl %al,%edx
   12246:	8b 05 10 89 00 00    	mov    0x8910(%rip),%eax        # 1ab5c <g_81+0xc>
   1224c:	39 c2                	cmp    %eax,%edx
   1224e:	0f 93 c0             	setae  %al
   12251:	0f b6 d8             	movzbl %al,%ebx
   12254:	48 8b 85 60 ff ff ff 	mov    -0xa0(%rbp),%rax
   1225b:	89 c2                	mov    %eax,%edx
   1225d:	48 83 bd 48 ff ff ff 	cmpq   $0x0,-0xb8(%rbp)
   12264:	00 
   12265:	0f 95 c0             	setne  %al
   12268:	0f b6 c0             	movzbl %al,%eax
   1226b:	89 d6                	mov    %edx,%esi
   1226d:	89 c7                	mov    %eax,%edi
   1226f:	e8 42 73 ff ff       	callq  95b6 <safe_add_func_int32_t_s_s>
   12274:	09 85 34 ff ff ff    	or     %eax,-0xcc(%rbp)
   1227a:	8b 85 34 ff ff ff    	mov    -0xcc(%rbp),%eax
   12280:	89 de                	mov    %ebx,%esi
   12282:	89 c7                	mov    %eax,%edi
   12284:	e8 2d 73 ff ff       	callq  95b6 <safe_add_func_int32_t_s_s>
   12289:	0f b6 05 b2 4d 00 00 	movzbl 0x4db2(%rip),%eax        # 17042 <g_32>
   12290:	0f be c0             	movsbl %al,%eax
   12293:	89 85 3c ff ff ff    	mov    %eax,-0xc4(%rbp)
   12299:	8b 85 3c ff ff ff    	mov    -0xc4(%rbp),%eax
   1229f:	0f b6 c0             	movzbl %al,%eax
   122a2:	be 01 00 00 00       	mov    $0x1,%esi
   122a7:	89 c7                	mov    %eax,%edi
   122a9:	e8 e5 78 ff ff       	callq  9b93 <safe_mul_func_uint8_t_u_u>
   122ae:	0f b6 d0             	movzbl %al,%edx
   122b1:	48 8b 85 60 ff ff ff 	mov    -0xa0(%rbp),%rax
   122b8:	48 39 c2             	cmp    %rax,%rdx
   122bb:	0f 96 c0             	setbe  %al
   122be:	0f b6 c0             	movzbl %al,%eax
   122c1:	44 89 ee             	mov    %r13d,%esi
   122c4:	89 c7                	mov    %eax,%edi
   122c6:	e8 d6 6f ff ff       	callq  92a1 <safe_lshift_func_int8_t_s_s>
   122cb:	48 8b 15 7e 83 00 00 	mov    0x837e(%rip),%rdx        # 1a650 <g_123>
   122d2:	8b 0a                	mov    (%rdx),%ecx
   122d4:	0f be d0             	movsbl %al,%edx
   122d7:	48 8b 05 72 83 00 00 	mov    0x8372(%rip),%rax        # 1a650 <g_123>
   122de:	09 ca                	or     %ecx,%edx
   122e0:	89 10                	mov    %edx,(%rax)
   122e2:	48 8b 05 d7 53 00 00 	mov    0x53d7(%rip),%rax        # 176c0 <g_111>
   122e9:	be 01 00 00 00       	mov    $0x1,%esi
   122ee:	89 c7                	mov    %eax,%edi
   122f0:	e8 c1 72 ff ff       	callq  95b6 <safe_add_func_int32_t_s_s>
   122f5:	48 98                	cltq   
   122f7:	48 89 05 c2 53 00 00 	mov    %rax,0x53c2(%rip)        # 176c0 <g_111>
   122fe:	48 8b 05 bb 53 00 00 	mov    0x53bb(%rip),%rax        # 176c0 <g_111>
   12305:	48 83 f8 13          	cmp    $0x13,%rax
   12309:	0f 84 cd fd ff ff    	je     120dc <func_90+0x164>
   1230f:	0f b6 05 48 4d 00 00 	movzbl 0x4d48(%rip),%eax        # 1705e <g_67+0x6>
   12316:	48 8b 5d d8          	mov    -0x28(%rbp),%rbx
   1231a:	64 48 33 1c 25 28 00 	xor    %fs:0x28,%rbx
   12321:	00 00 
   12323:	74 05                	je     1232a <func_90+0x3b2>
   12325:	e8 46 6d ff ff       	callq  9070 <__stack_chk_fail@plt>
   1232a:	48 81 c4 d8 00 00 00 	add    $0xd8,%rsp
   12331:	5b                   	pop    %rbx
   12332:	41 5c                	pop    %r12
   12334:	41 5d                	pop    %r13
   12336:	5d                   	pop    %rbp
   12337:	c3                   	retq   

0000000000012338 <func_95>:
   12338:	f3 0f 1e fa          	endbr64 
   1233c:	55                   	push   %rbp
   1233d:	48 89 e5             	mov    %rsp,%rbp
   12340:	41 56                	push   %r14
   12342:	41 55                	push   %r13
   12344:	41 54                	push   %r12
   12346:	53                   	push   %rbx
   12347:	48 81 ec c0 01 00 00 	sub    $0x1c0,%rsp
   1234e:	48 89 bd 28 fe ff ff 	mov    %rdi,-0x1d8(%rbp)
   12355:	48 89 b5 20 fe ff ff 	mov    %rsi,-0x1e0(%rbp)
   1235c:	64 48 8b 04 25 28 00 	mov    %fs:0x28,%rax
   12363:	00 00 
   12365:	48 89 45 d8          	mov    %rax,-0x28(%rbp)
   12369:	31 c0                	xor    %eax,%eax
   1236b:	c6 85 33 fe ff ff ff 	movb   $0xff,-0x1cd(%rbp)
   12372:	48 c7 85 40 fe ff ff 	movq   $0x0,-0x1c0(%rbp)
   12379:	00 00 00 00 
   1237d:	48 8d 05 3c 53 00 00 	lea    0x533c(%rip),%rax        # 176c0 <g_111>
   12384:	48 89 85 48 fe ff ff 	mov    %rax,-0x1b8(%rbp)
   1238b:	48 8d 05 b6 4c 00 00 	lea    0x4cb6(%rip),%rax        # 17048 <g_61>
   12392:	48 89 85 38 fe ff ff 	mov    %rax,-0x1c8(%rbp)
   12399:	48 8d 85 38 fe ff ff 	lea    -0x1c8(%rbp),%rax
   123a0:	48 89 85 50 fe ff ff 	mov    %rax,-0x1b0(%rbp)
   123a7:	48 8d 85 33 fe ff ff 	lea    -0x1cd(%rbp),%rax
   123ae:	48 89 85 58 fe ff ff 	mov    %rax,-0x1a8(%rbp)
   123b5:	48 8d 05 58 53 00 00 	lea    0x5358(%rip),%rax        # 17714 <g_120+0x34>
   123bc:	48 89 85 60 fe ff ff 	mov    %rax,-0x1a0(%rbp)
   123c3:	c7 85 34 fe ff ff 00 	movl   $0x0,-0x1cc(%rbp)
   123ca:	00 00 00 
   123cd:	eb 1e                	jmp    123ed <func_95+0xb5>
   123cf:	8b 85 34 fe ff ff    	mov    -0x1cc(%rbp),%eax
   123d5:	48 98                	cltq   
   123d7:	48 8d 15 62 53 00 00 	lea    0x5362(%rip),%rdx        # 17740 <g_122>
   123de:	48 89 94 c5 70 fe ff 	mov    %rdx,-0x190(%rbp,%rax,8)
   123e5:	ff 
   123e6:	83 85 34 fe ff ff 01 	addl   $0x1,-0x1cc(%rbp)
   123ed:	83 bd 34 fe ff ff 01 	cmpl   $0x1,-0x1cc(%rbp)
   123f4:	7e d9                	jle    123cf <func_95+0x97>
   123f6:	48 83 bd 20 fe ff ff 	cmpq   $0x0,-0x1e0(%rbp)
   123fd:	00 
   123fe:	74 40                	je     12440 <func_95+0x108>
   12400:	48 8d 85 33 fe ff ff 	lea    -0x1cd(%rbp),%rax
   12407:	48 39 85 58 fe ff ff 	cmp    %rax,-0x1a8(%rbp)
   1240e:	0f 95 c0             	setne  %al
   12411:	0f b6 c0             	movzbl %al,%eax
   12414:	48 89 05 ad 52 00 00 	mov    %rax,0x52ad(%rip)        # 176c8 <g_118>
   1241b:	48 8b 05 a6 52 00 00 	mov    0x52a6(%rip),%rax        # 176c8 <g_118>
   12422:	48 be 93 81 11 c4 3e 	movabs $0xf7b9e3ec4118193,%rsi
   12429:	9e 7b 0f 
   1242c:	48 89 c7             	mov    %rax,%rdi
   1242f:	e8 17 7c ff ff       	callq  a04b <safe_sub_func_uint64_t_u_u>
   12434:	48 85 c0             	test   %rax,%rax
   12437:	74 07                	je     12440 <func_95+0x108>
   12439:	b8 01 00 00 00       	mov    $0x1,%eax
   1243e:	eb 05                	jmp    12445 <func_95+0x10d>
   12440:	b8 00 00 00 00       	mov    $0x0,%eax
   12445:	0f be d8             	movsbl %al,%ebx
   12448:	bf 00 00 00 00       	mov    $0x0,%edi
   1244d:	e8 f3 76 ff ff       	callq  9b45 <safe_unary_minus_func_uint8_t_u>
   12452:	0f b6 85 33 fe ff ff 	movzbl -0x1cd(%rbp),%eax
   12459:	84 c0                	test   %al,%al
   1245b:	75 30                	jne    1248d <func_95+0x155>
   1245d:	48 8b 85 48 fe ff ff 	mov    -0x1b8(%rbp),%rax
   12464:	48 8b 95 20 fe ff ff 	mov    -0x1e0(%rbp),%rdx
   1246b:	48 89 10             	mov    %rdx,(%rax)
   1246e:	48 8b 85 48 fe ff ff 	mov    -0x1b8(%rbp),%rax
   12475:	48 8b 00             	mov    (%rax),%rax
   12478:	48 89 c6             	mov    %rax,%rsi
   1247b:	48 bf 72 33 86 3b 70 	movabs $0x922496703b863372,%rdi
   12482:	96 24 92 
   12485:	e8 6d 75 ff ff       	callq  99f7 <safe_div_func_int64_t_s_s>
   1248a:	48 85 c0             	test   %rax,%rax
   1248d:	48 8b 05 b4 81 00 00 	mov    0x81b4(%rip),%rax        # 1a648 <g_103>
   12494:	48 39 85 50 fe ff ff 	cmp    %rax,-0x1b0(%rbp)
   1249b:	0f 94 c0             	sete   %al
   1249e:	0f b6 c0             	movzbl %al,%eax
   124a1:	89 de                	mov    %ebx,%esi
   124a3:	89 c7                	mov    %eax,%edi
   124a5:	e8 68 6d ff ff       	callq  9212 <safe_mul_func_int8_t_s_s>
   124aa:	48 8b 85 60 fe ff ff 	mov    -0x1a0(%rbp),%rax
   124b1:	c7 00 01 00 00 00    	movl   $0x1,(%rax)
   124b7:	48 8b 85 60 fe ff ff 	mov    -0x1a0(%rbp),%rax
   124be:	8b 00                	mov    (%rax),%eax
   124c0:	89 05 8a 52 00 00    	mov    %eax,0x528a(%rip)        # 17750 <g_122+0x10>
   124c6:	48 8d 05 6b 4b 00 00 	lea    0x4b6b(%rip),%rax        # 17038 <g_14>
   124cd:	48 89 05 7c 81 00 00 	mov    %rax,0x817c(%rip)        # 1a650 <g_123>
   124d4:	48 c7 05 e1 51 00 00 	movq   $0x0,0x51e1(%rip)        # 176c0 <g_111>
   124db:	00 00 00 00 
   124df:	e9 01 02 00 00       	jmpq   126e5 <func_95+0x3ad>
   124e4:	48 8d 85 b0 fe ff ff 	lea    -0x150(%rbp),%rax
   124eb:	48 8d 15 2e 80 00 00 	lea    0x802e(%rip),%rdx        # 1a520 <g_1455+0x2b70>
   124f2:	b9 24 00 00 00       	mov    $0x24,%ecx
   124f7:	48 89 c7             	mov    %rax,%rdi
   124fa:	48 89 d6             	mov    %rdx,%rsi
   124fd:	f3 48 a5             	rep movsq %ds:(%rsi),%es:(%rdi)
   12500:	48 8d 05 0d 52 00 00 	lea    0x520d(%rip),%rax        # 17714 <g_120+0x34>
   12507:	48 89 85 68 fe ff ff 	mov    %rax,-0x198(%rbp)
   1250e:	48 8d 05 53 52 00 00 	lea    0x5253(%rip),%rax        # 17768 <g_145>
   12515:	48 89 85 80 fe ff ff 	mov    %rax,-0x180(%rbp)
   1251c:	48 8d 05 45 52 00 00 	lea    0x5245(%rip),%rax        # 17768 <g_145>
   12523:	48 89 85 88 fe ff ff 	mov    %rax,-0x178(%rbp)
   1252a:	48 8d 05 37 52 00 00 	lea    0x5237(%rip),%rax        # 17768 <g_145>
   12531:	48 89 85 90 fe ff ff 	mov    %rax,-0x170(%rbp)
   12538:	48 8d 05 29 52 00 00 	lea    0x5229(%rip),%rax        # 17768 <g_145>
   1253f:	48 89 85 98 fe ff ff 	mov    %rax,-0x168(%rbp)
   12546:	48 8d 05 1b 52 00 00 	lea    0x521b(%rip),%rax        # 17768 <g_145>
   1254d:	48 89 85 a0 fe ff ff 	mov    %rax,-0x160(%rbp)
   12554:	48 8b 85 50 fe ff ff 	mov    -0x1b0(%rbp),%rax
   1255b:	48 8b 10             	mov    (%rax),%rdx
   1255e:	48 8b 85 58 ff ff ff 	mov    -0xa8(%rbp),%rax
   12565:	48 39 c2             	cmp    %rax,%rdx
   12568:	0f 94 c0             	sete   %al
   1256b:	0f b6 c0             	movzbl %al,%eax
   1256e:	8b 15 dc 85 00 00    	mov    0x85dc(%rip),%edx        # 1ab50 <g_81>
   12574:	89 d2                	mov    %edx,%edx
   12576:	48 89 c6             	mov    %rax,%rsi
   12579:	48 89 d7             	mov    %rdx,%rdi
   1257c:	e8 27 73 ff ff       	callq  98a8 <safe_sub_func_int64_t_s_s>
   12581:	49 89 c6             	mov    %rax,%r14
   12584:	0f b7 05 b5 4a 00 00 	movzwl 0x4ab5(%rip),%eax        # 17040 <g_20+0x4>
   1258b:	0f b7 d8             	movzwl %ax,%ebx
   1258e:	44 8b 25 ab 51 00 00 	mov    0x51ab(%rip),%r12d        # 17740 <g_122>
   12595:	48 83 bd 68 fe ff ff 	cmpq   $0x0,-0x198(%rbp)
   1259c:	00 
   1259d:	0f 95 c0             	setne  %al
   125a0:	44 0f b6 e8          	movzbl %al,%r13d
   125a4:	48 8b 85 68 fe ff ff 	mov    -0x198(%rbp),%rax
   125ab:	8b 00                	mov    (%rax),%eax
   125ad:	0f b6 c0             	movzbl %al,%eax
   125b0:	be 02 00 00 00       	mov    $0x2,%esi
   125b5:	89 c7                	mov    %eax,%edi
   125b7:	e8 90 76 ff ff       	callq  9c4c <safe_lshift_func_uint8_t_u_u>
   125bc:	48 8b 85 20 fe ff ff 	mov    -0x1e0(%rbp),%rax
   125c3:	0f b7 d0             	movzwl %ax,%edx
   125c6:	66 c7 05 99 51 00 00 	movw   $0x8,0x5199(%rip)        # 17768 <g_145>
   125cd:	08 00 
   125cf:	0f b7 05 92 51 00 00 	movzwl 0x5192(%rip),%eax        # 17768 <g_145>
   125d6:	0f b7 c0             	movzwl %ax,%eax
   125d9:	89 d6                	mov    %edx,%esi
   125db:	89 c7                	mov    %eax,%edi
   125dd:	e8 7a 77 ff ff       	callq  9d5c <safe_mod_func_uint16_t_u_u>
   125e2:	48 8b 85 68 fe ff ff 	mov    -0x198(%rbp),%rax
   125e9:	8b 10                	mov    (%rax),%edx
   125eb:	8b 05 47 4a 00 00    	mov    0x4a47(%rip),%eax        # 17038 <g_14>
   125f1:	39 c2                	cmp    %eax,%edx
   125f3:	0f 94 c0             	sete   %al
   125f6:	0f b6 d0             	movzbl %al,%edx
   125f9:	0f b7 05 40 4a 00 00 	movzwl 0x4a40(%rip),%eax        # 17040 <g_20+0x4>
   12600:	0f b7 c0             	movzwl %ax,%eax
   12603:	39 c2                	cmp    %eax,%edx
   12605:	0f 9c c0             	setl   %al
   12608:	0f b6 c0             	movzbl %al,%eax
   1260b:	be ff ff ff ff       	mov    $0xffffffff,%esi
   12610:	89 c7                	mov    %eax,%edi
   12612:	e8 9f 6f ff ff       	callq  95b6 <safe_add_func_int32_t_s_s>
   12617:	48 98                	cltq   
   12619:	48 ba 08 a8 28 de bc 	movabs $0xe43ca2bcde28a808,%rdx
   12620:	a2 3c e4 
   12623:	48 21 d0             	and    %rdx,%rax
   12626:	49 39 c5             	cmp    %rax,%r13
   12629:	0f 97 c0             	seta   %al
   1262c:	0f b6 d0             	movzbl %al,%edx
   1262f:	48 8b 85 60 fe ff ff 	mov    -0x1a0(%rbp),%rax
   12636:	8b 00                	mov    (%rax),%eax
   12638:	21 d0                	and    %edx,%eax
   1263a:	44 89 e6             	mov    %r12d,%esi
   1263d:	89 c7                	mov    %eax,%edi
   1263f:	e8 c1 6f ff ff       	callq  9605 <safe_sub_func_int32_t_s_s>
   12644:	0f b7 c0             	movzwl %ax,%eax
   12647:	89 de                	mov    %ebx,%esi
   12649:	89 c7                	mov    %eax,%edi
   1264b:	e8 0c 77 ff ff       	callq  9d5c <safe_mod_func_uint16_t_u_u>
   12650:	0f be c0             	movsbl %al,%eax
   12653:	be 05 00 00 00       	mov    $0x5,%esi
   12658:	89 c7                	mov    %eax,%edi
   1265a:	e8 42 6c ff ff       	callq  92a1 <safe_lshift_func_int8_t_s_s>
   1265f:	84 c0                	test   %al,%al
   12661:	7f 07                	jg     1266a <func_95+0x332>
   12663:	ba fd 00 00 00       	mov    $0xfd,%edx
   12668:	eb 05                	jmp    1266f <func_95+0x337>
   1266a:	ba fc 00 00 00       	mov    $0xfc,%edx
   1266f:	48 8b 05 d2 49 00 00 	mov    0x49d2(%rip),%rax        # 17048 <g_61>
   12676:	48 09 d0             	or     %rdx,%rax
   12679:	48 33 85 20 fe ff ff 	xor    -0x1e0(%rbp),%rax
   12680:	49 39 c6             	cmp    %rax,%r14
   12683:	77 45                	ja     126ca <func_95+0x392>
   12685:	c6 05 c4 49 00 00 16 	movb   $0x16,0x49c4(%rip)        # 17050 <g_63>
   1268c:	eb 2f                	jmp    126bd <func_95+0x385>
   1268e:	48 8b 05 bb 7f 00 00 	mov    0x7fbb(%rip),%rax        # 1a650 <g_123>
   12695:	8b 10                	mov    (%rax),%edx
   12697:	48 8b 85 68 fe ff ff 	mov    -0x198(%rbp),%rax
   1269e:	89 10                	mov    %edx,(%rax)
   126a0:	0f b6 05 a9 49 00 00 	movzbl 0x49a9(%rip),%eax        # 17050 <g_63>
   126a7:	0f b6 c0             	movzbl %al,%eax
   126aa:	be 01 00 00 00       	mov    $0x1,%esi
   126af:	48 89 c7             	mov    %rax,%rdi
   126b2:	e8 8a 71 ff ff       	callq  9841 <safe_add_func_int64_t_s_s>
   126b7:	88 05 93 49 00 00    	mov    %al,0x4993(%rip)        # 17050 <g_63>
   126bd:	0f b6 05 8c 49 00 00 	movzbl 0x498c(%rip),%eax        # 17050 <g_63>
   126c4:	3c 27                	cmp    $0x27,%al
   126c6:	75 c6                	jne    1268e <func_95+0x356>
   126c8:	eb 09                	jmp    126d3 <func_95+0x39b>
   126ca:	48 8b 85 d0 fe ff ff 	mov    -0x130(%rbp),%rax
   126d1:	eb 2a                	jmp    126fd <func_95+0x3c5>
   126d3:	48 8b 05 e6 4f 00 00 	mov    0x4fe6(%rip),%rax        # 176c0 <g_111>
   126da:	48 83 c0 01          	add    $0x1,%rax
   126de:	48 89 05 db 4f 00 00 	mov    %rax,0x4fdb(%rip)        # 176c0 <g_111>
   126e5:	48 8b 05 d4 4f 00 00 	mov    0x4fd4(%rip),%rax        # 176c0 <g_111>
   126ec:	48 83 f8 29          	cmp    $0x29,%rax
   126f0:	0f 86 ee fd ff ff    	jbe    124e4 <func_95+0x1ac>
   126f6:	48 8d 05 4b 49 00 00 	lea    0x494b(%rip),%rax        # 17048 <g_61>
   126fd:	48 8b 4d d8          	mov    -0x28(%rbp),%rcx
   12701:	64 48 33 0c 25 28 00 	xor    %fs:0x28,%rcx
   12708:	00 00 
   1270a:	74 05                	je     12711 <func_95+0x3d9>
   1270c:	e8 5f 69 ff ff       	callq  9070 <__stack_chk_fail@plt>
   12711:	48 81 c4 c0 01 00 00 	add    $0x1c0,%rsp
   12718:	5b                   	pop    %rbx
   12719:	41 5c                	pop    %r12
   1271b:	41 5d                	pop    %r13
   1271d:	41 5e                	pop    %r14
   1271f:	5d                   	pop    %rbp
   12720:	c3                   	retq   

0000000000012721 <main>:
   12721:	f3 0f 1e fa          	endbr64 
   12725:	55                   	push   %rbp
   12726:	48 89 e5             	mov    %rsp,%rbp
   12729:	48 83 ec 20          	sub    $0x20,%rsp
   1272d:	89 7d ec             	mov    %edi,-0x14(%rbp)
   12730:	48 89 75 e0          	mov    %rsi,-0x20(%rbp)
   12734:	c7 45 fc 00 00 00 00 	movl   $0x0,-0x4(%rbp)
   1273b:	83 7d ec 02          	cmpl   $0x2,-0x14(%rbp)
   1273f:	75 25                	jne    12766 <main+0x45>
   12741:	48 8b 45 e0          	mov    -0x20(%rbp),%rax
   12745:	48 83 c0 08          	add    $0x8,%rax
   12749:	48 8b 00             	mov    (%rax),%rax
   1274c:	48 8d 35 35 0f 00 00 	lea    0xf35(%rip),%rsi        # 13688 <_IO_stdin_used+0x688>
   12753:	48 89 c7             	mov    %rax,%rdi
   12756:	e8 35 69 ff ff       	callq  9090 <strcmp@plt>
   1275b:	85 c0                	test   %eax,%eax
   1275d:	75 07                	jne    12766 <main+0x45>
   1275f:	c7 45 fc 01 00 00 00 	movl   $0x1,-0x4(%rbp)
   12766:	e8 1e 6a ff ff       	callq  9189 <platform_main_begin>
   1276b:	e8 28 7e ff ff       	callq  a598 <crc32_gentab>
   12770:	e8 40 80 ff ff       	callq  a7b5 <func_1>
   12775:	8b 05 a9 48 00 00    	mov    0x48a9(%rip),%eax        # 17024 <g_3>
   1277b:	48 98                	cltq   
   1277d:	8b 55 fc             	mov    -0x4(%rbp),%edx
   12780:	48 8d 35 03 0f 00 00 	lea    0xf03(%rip),%rsi        # 1368a <_IO_stdin_used+0x68a>
   12787:	48 89 c7             	mov    %rax,%rdi
   1278a:	e8 64 7f ff ff       	callq  a6f3 <transparent_crc>
   1278f:	8b 05 93 48 00 00    	mov    0x4893(%rip),%eax        # 17028 <g_4>
   12795:	48 98                	cltq   
   12797:	8b 55 fc             	mov    -0x4(%rbp),%edx
   1279a:	48 8d 35 ed 0e 00 00 	lea    0xeed(%rip),%rsi        # 1368e <_IO_stdin_used+0x68e>
   127a1:	48 89 c7             	mov    %rax,%rdi
   127a4:	e8 4a 7f ff ff       	callq  a6f3 <transparent_crc>
   127a9:	8b 05 7d 48 00 00    	mov    0x487d(%rip),%eax        # 1702c <g_5>
   127af:	48 98                	cltq   
   127b1:	8b 55 fc             	mov    -0x4(%rbp),%edx
   127b4:	48 8d 35 d7 0e 00 00 	lea    0xed7(%rip),%rsi        # 13692 <_IO_stdin_used+0x692>
   127bb:	48 89 c7             	mov    %rax,%rdi
   127be:	e8 30 7f ff ff       	callq  a6f3 <transparent_crc>
   127c3:	8b 05 67 48 00 00    	mov    0x4867(%rip),%eax        # 17030 <g_6>
   127c9:	48 98                	cltq   
   127cb:	8b 55 fc             	mov    -0x4(%rbp),%edx
   127ce:	48 8d 35 c1 0e 00 00 	lea    0xec1(%rip),%rsi        # 13696 <_IO_stdin_used+0x696>
   127d5:	48 89 c7             	mov    %rax,%rdi
   127d8:	e8 16 7f ff ff       	callq  a6f3 <transparent_crc>
   127dd:	8b 05 51 48 00 00    	mov    0x4851(%rip),%eax        # 17034 <g_7>
   127e3:	48 98                	cltq   
   127e5:	8b 55 fc             	mov    -0x4(%rbp),%edx
   127e8:	48 8d 35 ab 0e 00 00 	lea    0xeab(%rip),%rsi        # 1369a <_IO_stdin_used+0x69a>
   127ef:	48 89 c7             	mov    %rax,%rdi
   127f2:	e8 fc 7e ff ff       	callq  a6f3 <transparent_crc>
   127f7:	8b 05 3b 48 00 00    	mov    0x483b(%rip),%eax        # 17038 <g_14>
   127fd:	48 98                	cltq   
   127ff:	8b 55 fc             	mov    -0x4(%rbp),%edx
   12802:	48 8d 35 95 0e 00 00 	lea    0xe95(%rip),%rsi        # 1369e <_IO_stdin_used+0x69e>
   12809:	48 89 c7             	mov    %rax,%rdi
   1280c:	e8 e2 7e ff ff       	callq  a6f3 <transparent_crc>
   12811:	8b 05 31 83 00 00    	mov    0x8331(%rip),%eax        # 1ab48 <g_18>
   12817:	48 98                	cltq   
   12819:	8b 55 fc             	mov    -0x4(%rbp),%edx
   1281c:	48 8d 35 80 0e 00 00 	lea    0xe80(%rip),%rsi        # 136a3 <_IO_stdin_used+0x6a3>
   12823:	48 89 c7             	mov    %rax,%rdi
   12826:	e8 c8 7e ff ff       	callq  a6f3 <transparent_crc>
   1282b:	c7 45 f0 00 00 00 00 	movl   $0x0,-0x10(%rbp)
   12832:	eb 49                	jmp    1287d <main+0x15c>
   12834:	8b 45 f0             	mov    -0x10(%rbp),%eax
   12837:	48 98                	cltq   
   12839:	48 8d 14 00          	lea    (%rax,%rax,1),%rdx
   1283d:	48 8d 05 f8 47 00 00 	lea    0x47f8(%rip),%rax        # 1703c <g_20>
   12844:	0f b7 04 02          	movzwl (%rdx,%rax,1),%eax
   12848:	0f b7 c0             	movzwl %ax,%eax
   1284b:	8b 55 fc             	mov    -0x4(%rbp),%edx
   1284e:	48 8d 35 53 0e 00 00 	lea    0xe53(%rip),%rsi        # 136a8 <_IO_stdin_used+0x6a8>
   12855:	48 89 c7             	mov    %rax,%rdi
   12858:	e8 96 7e ff ff       	callq  a6f3 <transparent_crc>
   1285d:	83 7d fc 00          	cmpl   $0x0,-0x4(%rbp)
   12861:	74 16                	je     12879 <main+0x158>
   12863:	8b 45 f0             	mov    -0x10(%rbp),%eax
   12866:	89 c6                	mov    %eax,%esi
   12868:	48 8d 3d 41 0e 00 00 	lea    0xe41(%rip),%rdi        # 136b0 <_IO_stdin_used+0x6b0>
   1286f:	b8 00 00 00 00       	mov    $0x0,%eax
   12874:	e8 07 68 ff ff       	callq  9080 <printf@plt>
   12879:	83 45 f0 01          	addl   $0x1,-0x10(%rbp)
   1287d:	83 7d f0 02          	cmpl   $0x2,-0x10(%rbp)
   12881:	7e b1                	jle    12834 <main+0x113>
   12883:	0f b6 05 b8 47 00 00 	movzbl 0x47b8(%rip),%eax        # 17042 <g_32>
   1288a:	48 0f be c0          	movsbq %al,%rax
   1288e:	8b 55 fc             	mov    -0x4(%rbp),%edx
   12891:	48 8d 35 26 0e 00 00 	lea    0xe26(%rip),%rsi        # 136be <_IO_stdin_used+0x6be>
   12898:	48 89 c7             	mov    %rax,%rdi
   1289b:	e8 53 7e ff ff       	callq  a6f3 <transparent_crc>
   128a0:	8b 05 a6 82 00 00    	mov    0x82a6(%rip),%eax        # 1ab4c <g_51>
   128a6:	48 98                	cltq   
   128a8:	8b 55 fc             	mov    -0x4(%rbp),%edx
   128ab:	48 8d 35 11 0e 00 00 	lea    0xe11(%rip),%rsi        # 136c3 <_IO_stdin_used+0x6c3>
   128b2:	48 89 c7             	mov    %rax,%rdi
   128b5:	e8 39 7e ff ff       	callq  a6f3 <transparent_crc>
   128ba:	48 8b 05 87 47 00 00 	mov    0x4787(%rip),%rax        # 17048 <g_61>
   128c1:	48 89 c1             	mov    %rax,%rcx
   128c4:	8b 45 fc             	mov    -0x4(%rbp),%eax
   128c7:	89 c2                	mov    %eax,%edx
   128c9:	48 8d 35 f8 0d 00 00 	lea    0xdf8(%rip),%rsi        # 136c8 <_IO_stdin_used+0x6c8>
   128d0:	48 89 cf             	mov    %rcx,%rdi
   128d3:	e8 1b 7e ff ff       	callq  a6f3 <transparent_crc>
   128d8:	0f b6 05 71 47 00 00 	movzbl 0x4771(%rip),%eax        # 17050 <g_63>
   128df:	0f b6 c0             	movzbl %al,%eax
   128e2:	8b 55 fc             	mov    -0x4(%rbp),%edx
   128e5:	48 8d 35 e1 0d 00 00 	lea    0xde1(%rip),%rsi        # 136cd <_IO_stdin_used+0x6cd>
   128ec:	48 89 c7             	mov    %rax,%rdi
   128ef:	e8 ff 7d ff ff       	callq  a6f3 <transparent_crc>
   128f4:	c7 45 f0 00 00 00 00 	movl   $0x0,-0x10(%rbp)
   128fb:	eb 45                	jmp    12942 <main+0x221>
   128fd:	8b 45 f0             	mov    -0x10(%rbp),%eax
   12900:	48 98                	cltq   
   12902:	48 8d 15 4f 47 00 00 	lea    0x474f(%rip),%rdx        # 17058 <g_67>
   12909:	0f b6 04 10          	movzbl (%rax,%rdx,1),%eax
   1290d:	0f b6 c0             	movzbl %al,%eax
   12910:	8b 55 fc             	mov    -0x4(%rbp),%edx
   12913:	48 8d 35 b8 0d 00 00 	lea    0xdb8(%rip),%rsi        # 136d2 <_IO_stdin_used+0x6d2>
   1291a:	48 89 c7             	mov    %rax,%rdi
   1291d:	e8 d1 7d ff ff       	callq  a6f3 <transparent_crc>
   12922:	83 7d fc 00          	cmpl   $0x0,-0x4(%rbp)
   12926:	74 16                	je     1293e <main+0x21d>
   12928:	8b 45 f0             	mov    -0x10(%rbp),%eax
   1292b:	89 c6                	mov    %eax,%esi
   1292d:	48 8d 3d 7c 0d 00 00 	lea    0xd7c(%rip),%rdi        # 136b0 <_IO_stdin_used+0x6b0>
   12934:	b8 00 00 00 00       	mov    $0x0,%eax
   12939:	e8 42 67 ff ff       	callq  9080 <printf@plt>
   1293e:	83 45 f0 01          	addl   $0x1,-0x10(%rbp)
   12942:	83 7d f0 08          	cmpl   $0x8,-0x10(%rbp)
   12946:	7e b5                	jle    128fd <main+0x1dc>
   12948:	c7 45 f0 00 00 00 00 	movl   $0x0,-0x10(%rbp)
   1294f:	eb 4d                	jmp    1299e <main+0x27d>
   12951:	8b 45 f0             	mov    -0x10(%rbp),%eax
   12954:	48 98                	cltq   
   12956:	48 8d 14 85 00 00 00 	lea    0x0(,%rax,4),%rdx
   1295d:	00 
   1295e:	48 8d 05 eb 81 00 00 	lea    0x81eb(%rip),%rax        # 1ab50 <g_81>
   12965:	8b 04 02             	mov    (%rdx,%rax,1),%eax
   12968:	89 c1                	mov    %eax,%ecx
   1296a:	8b 45 fc             	mov    -0x4(%rbp),%eax
   1296d:	89 c2                	mov    %eax,%edx
   1296f:	48 8d 35 64 0d 00 00 	lea    0xd64(%rip),%rsi        # 136da <_IO_stdin_used+0x6da>
   12976:	48 89 cf             	mov    %rcx,%rdi
   12979:	e8 75 7d ff ff       	callq  a6f3 <transparent_crc>
   1297e:	83 7d fc 00          	cmpl   $0x0,-0x4(%rbp)
   12982:	74 16                	je     1299a <main+0x279>
   12984:	8b 45 f0             	mov    -0x10(%rbp),%eax
   12987:	89 c6                	mov    %eax,%esi
   12989:	48 8d 3d 20 0d 00 00 	lea    0xd20(%rip),%rdi        # 136b0 <_IO_stdin_used+0x6b0>
   12990:	b8 00 00 00 00       	mov    $0x0,%eax
   12995:	e8 e6 66 ff ff       	callq  9080 <printf@plt>
   1299a:	83 45 f0 01          	addl   $0x1,-0x10(%rbp)
   1299e:	83 7d f0 03          	cmpl   $0x3,-0x10(%rbp)
   129a2:	7e ad                	jle    12951 <main+0x230>
   129a4:	c7 45 f0 00 00 00 00 	movl   $0x0,-0x10(%rbp)
   129ab:	e9 a5 00 00 00       	jmpq   12a55 <main+0x334>
   129b0:	c7 45 f4 00 00 00 00 	movl   $0x0,-0xc(%rbp)
   129b7:	e9 8b 00 00 00       	jmpq   12a47 <main+0x326>
   129bc:	c7 45 f8 00 00 00 00 	movl   $0x0,-0x8(%rbp)
   129c3:	eb 78                	jmp    12a3d <main+0x31c>
   129c5:	8b 45 f8             	mov    -0x8(%rbp),%eax
   129c8:	48 63 c8             	movslq %eax,%rcx
   129cb:	8b 45 f0             	mov    -0x10(%rbp),%eax
   129ce:	48 63 d0             	movslq %eax,%rdx
   129d1:	8b 45 f4             	mov    -0xc(%rbp),%eax
   129d4:	48 63 f0             	movslq %eax,%rsi
   129d7:	48 89 d0             	mov    %rdx,%rax
   129da:	48 c1 e0 02          	shl    $0x2,%rax
   129de:	48 01 d0             	add    %rdx,%rax
   129e1:	48 01 c0             	add    %rax,%rax
   129e4:	48 01 f0             	add    %rsi,%rax
   129e7:	48 01 c0             	add    %rax,%rax
   129ea:	48 01 c8             	add    %rcx,%rax
   129ed:	48 8d 14 c5 00 00 00 	lea    0x0(,%rax,8),%rdx
   129f4:	00 
   129f5:	48 8d 05 84 46 00 00 	lea    0x4684(%rip),%rax        # 17080 <g_105>
   129fc:	48 8b 04 02          	mov    (%rdx,%rax,1),%rax
   12a00:	48 89 c1             	mov    %rax,%rcx
   12a03:	8b 45 fc             	mov    -0x4(%rbp),%eax
   12a06:	89 c2                	mov    %eax,%edx
   12a08:	48 8d 35 d3 0c 00 00 	lea    0xcd3(%rip),%rsi        # 136e2 <_IO_stdin_used+0x6e2>
   12a0f:	48 89 cf             	mov    %rcx,%rdi
   12a12:	e8 dc 7c ff ff       	callq  a6f3 <transparent_crc>
   12a17:	83 7d fc 00          	cmpl   $0x0,-0x4(%rbp)
   12a1b:	74 1c                	je     12a39 <main+0x318>
   12a1d:	8b 4d f8             	mov    -0x8(%rbp),%ecx
   12a20:	8b 55 f4             	mov    -0xc(%rbp),%edx
   12a23:	8b 45 f0             	mov    -0x10(%rbp),%eax
   12a26:	89 c6                	mov    %eax,%esi
   12a28:	48 8d 3d c2 0c 00 00 	lea    0xcc2(%rip),%rdi        # 136f1 <_IO_stdin_used+0x6f1>
   12a2f:	b8 00 00 00 00       	mov    $0x0,%eax
   12a34:	e8 47 66 ff ff       	callq  9080 <printf@plt>
   12a39:	83 45 f8 01          	addl   $0x1,-0x8(%rbp)
   12a3d:	83 7d f8 01          	cmpl   $0x1,-0x8(%rbp)
   12a41:	7e 82                	jle    129c5 <main+0x2a4>
   12a43:	83 45 f4 01          	addl   $0x1,-0xc(%rbp)
   12a47:	83 7d f4 09          	cmpl   $0x9,-0xc(%rbp)
   12a4b:	0f 8e 6b ff ff ff    	jle    129bc <main+0x29b>
   12a51:	83 45 f0 01          	addl   $0x1,-0x10(%rbp)
   12a55:	83 7d f0 09          	cmpl   $0x9,-0x10(%rbp)
   12a59:	0f 8e 51 ff ff ff    	jle    129b0 <main+0x28f>
   12a5f:	48 8b 05 5a 4c 00 00 	mov    0x4c5a(%rip),%rax        # 176c0 <g_111>
   12a66:	8b 55 fc             	mov    -0x4(%rbp),%edx
   12a69:	48 8d 35 97 0c 00 00 	lea    0xc97(%rip),%rsi        # 13707 <_IO_stdin_used+0x707>
   12a70:	48 89 c7             	mov    %rax,%rdi
   12a73:	e8 7b 7c ff ff       	callq  a6f3 <transparent_crc>
   12a78:	48 8b 05 49 4c 00 00 	mov    0x4c49(%rip),%rax        # 176c8 <g_118>
   12a7f:	48 89 c1             	mov    %rax,%rcx
   12a82:	8b 45 fc             	mov    -0x4(%rbp),%eax
   12a85:	89 c2                	mov    %eax,%edx
   12a87:	48 8d 35 7f 0c 00 00 	lea    0xc7f(%rip),%rsi        # 1370d <_IO_stdin_used+0x70d>
   12a8e:	48 89 cf             	mov    %rcx,%rdi
   12a91:	e8 5d 7c ff ff       	callq  a6f3 <transparent_crc>
   12a96:	c7 45 f0 00 00 00 00 	movl   $0x0,-0x10(%rbp)
   12a9d:	eb 77                	jmp    12b16 <main+0x3f5>
   12a9f:	c7 45 f4 00 00 00 00 	movl   $0x0,-0xc(%rbp)
   12aa6:	eb 64                	jmp    12b0c <main+0x3eb>
   12aa8:	8b 45 f4             	mov    -0xc(%rbp),%eax
   12aab:	48 63 c8             	movslq %eax,%rcx
   12aae:	8b 45 f0             	mov    -0x10(%rbp),%eax
   12ab1:	48 63 d0             	movslq %eax,%rdx
   12ab4:	48 89 d0             	mov    %rdx,%rax
   12ab7:	48 01 c0             	add    %rax,%rax
   12aba:	48 01 d0             	add    %rdx,%rax
   12abd:	48 01 c0             	add    %rax,%rax
   12ac0:	48 01 c8             	add    %rcx,%rax
   12ac3:	48 8d 14 85 00 00 00 	lea    0x0(,%rax,4),%rdx
   12aca:	00 
   12acb:	48 8d 05 0e 4c 00 00 	lea    0x4c0e(%rip),%rax        # 176e0 <g_120>
   12ad2:	8b 04 02             	mov    (%rdx,%rax,1),%eax
   12ad5:	48 98                	cltq   
   12ad7:	8b 55 fc             	mov    -0x4(%rbp),%edx
   12ada:	48 8d 35 32 0c 00 00 	lea    0xc32(%rip),%rsi        # 13713 <_IO_stdin_used+0x713>
   12ae1:	48 89 c7             	mov    %rax,%rdi
   12ae4:	e8 0a 7c ff ff       	callq  a6f3 <transparent_crc>
   12ae9:	83 7d fc 00          	cmpl   $0x0,-0x4(%rbp)
   12aed:	74 19                	je     12b08 <main+0x3e7>
   12aef:	8b 55 f4             	mov    -0xc(%rbp),%edx
   12af2:	8b 45 f0             	mov    -0x10(%rbp),%eax
   12af5:	89 c6                	mov    %eax,%esi
   12af7:	48 8d 3d 21 0c 00 00 	lea    0xc21(%rip),%rdi        # 1371f <_IO_stdin_used+0x71f>
   12afe:	b8 00 00 00 00       	mov    $0x0,%eax
   12b03:	e8 78 65 ff ff       	callq  9080 <printf@plt>
   12b08:	83 45 f4 01          	addl   $0x1,-0xc(%rbp)
   12b0c:	83 7d f4 05          	cmpl   $0x5,-0xc(%rbp)
   12b10:	7e 96                	jle    12aa8 <main+0x387>
   12b12:	83 45 f0 01          	addl   $0x1,-0x10(%rbp)
   12b16:	83 7d f0 03          	cmpl   $0x3,-0x10(%rbp)
   12b1a:	7e 83                	jle    12a9f <main+0x37e>
   12b1c:	c7 45 f0 00 00 00 00 	movl   $0x0,-0x10(%rbp)
   12b23:	eb 4b                	jmp    12b70 <main+0x44f>
   12b25:	8b 45 f0             	mov    -0x10(%rbp),%eax
   12b28:	48 98                	cltq   
   12b2a:	48 8d 14 85 00 00 00 	lea    0x0(,%rax,4),%rdx
   12b31:	00 
   12b32:	48 8d 05 07 4c 00 00 	lea    0x4c07(%rip),%rax        # 17740 <g_122>
   12b39:	8b 04 02             	mov    (%rdx,%rax,1),%eax
   12b3c:	48 98                	cltq   
   12b3e:	8b 55 fc             	mov    -0x4(%rbp),%edx
   12b41:	48 8d 35 e9 0b 00 00 	lea    0xbe9(%rip),%rsi        # 13731 <_IO_stdin_used+0x731>
   12b48:	48 89 c7             	mov    %rax,%rdi
   12b4b:	e8 a3 7b ff ff       	callq  a6f3 <transparent_crc>
   12b50:	83 7d fc 00          	cmpl   $0x0,-0x4(%rbp)
   12b54:	74 16                	je     12b6c <main+0x44b>
   12b56:	8b 45 f0             	mov    -0x10(%rbp),%eax
   12b59:	89 c6                	mov    %eax,%esi
   12b5b:	48 8d 3d 4e 0b 00 00 	lea    0xb4e(%rip),%rdi        # 136b0 <_IO_stdin_used+0x6b0>
   12b62:	b8 00 00 00 00       	mov    $0x0,%eax
   12b67:	e8 14 65 ff ff       	callq  9080 <printf@plt>
   12b6c:	83 45 f0 01          	addl   $0x1,-0x10(%rbp)
   12b70:	83 7d f0 09          	cmpl   $0x9,-0x10(%rbp)
   12b74:	7e af                	jle    12b25 <main+0x404>
   12b76:	0f b7 05 eb 4b 00 00 	movzwl 0x4beb(%rip),%eax        # 17768 <g_145>
   12b7d:	0f b7 c0             	movzwl %ax,%eax
   12b80:	8b 55 fc             	mov    -0x4(%rbp),%edx
   12b83:	48 8d 35 b0 0b 00 00 	lea    0xbb0(%rip),%rsi        # 1373a <_IO_stdin_used+0x73a>
   12b8a:	48 89 c7             	mov    %rax,%rdi
   12b8d:	e8 61 7b ff ff       	callq  a6f3 <transparent_crc>
   12b92:	8b 05 d4 4b 00 00    	mov    0x4bd4(%rip),%eax        # 1776c <g_217>
   12b98:	89 c1                	mov    %eax,%ecx
   12b9a:	8b 45 fc             	mov    -0x4(%rbp),%eax
   12b9d:	89 c2                	mov    %eax,%edx
   12b9f:	48 8d 35 9a 0b 00 00 	lea    0xb9a(%rip),%rsi        # 13740 <_IO_stdin_used+0x740>
   12ba6:	48 89 cf             	mov    %rcx,%rdi
   12ba9:	e8 45 7b ff ff       	callq  a6f3 <transparent_crc>
   12bae:	8b 05 bc 4b 00 00    	mov    0x4bbc(%rip),%eax        # 17770 <g_231>
   12bb4:	48 98                	cltq   
   12bb6:	8b 55 fc             	mov    -0x4(%rbp),%edx
   12bb9:	48 8d 35 86 0b 00 00 	lea    0xb86(%rip),%rsi        # 13746 <_IO_stdin_used+0x746>
   12bc0:	48 89 c7             	mov    %rax,%rdi
   12bc3:	e8 2b 7b ff ff       	callq  a6f3 <transparent_crc>
   12bc8:	c7 45 f0 00 00 00 00 	movl   $0x0,-0x10(%rbp)
   12bcf:	e9 b7 00 00 00       	jmpq   12c8b <main+0x56a>
   12bd4:	c7 45 f4 00 00 00 00 	movl   $0x0,-0xc(%rbp)
   12bdb:	e9 9d 00 00 00       	jmpq   12c7d <main+0x55c>
   12be0:	c7 45 f8 00 00 00 00 	movl   $0x0,-0x8(%rbp)
   12be7:	e9 83 00 00 00       	jmpq   12c6f <main+0x54e>
   12bec:	8b 45 f8             	mov    -0x8(%rbp),%eax
   12bef:	48 63 f0             	movslq %eax,%rsi
   12bf2:	8b 45 f0             	mov    -0x10(%rbp),%eax
   12bf5:	48 98                	cltq   
   12bf7:	8b 55 f4             	mov    -0xc(%rbp),%edx
   12bfa:	48 63 ca             	movslq %edx,%rcx
   12bfd:	48 89 c2             	mov    %rax,%rdx
   12c00:	48 c1 e2 04          	shl    $0x4,%rdx
   12c04:	48 29 c2             	sub    %rax,%rdx
   12c07:	48 8d 04 95 00 00 00 	lea    0x0(,%rdx,4),%rax
   12c0e:	00 
   12c0f:	48 89 c2             	mov    %rax,%rdx
   12c12:	48 89 c8             	mov    %rcx,%rax
   12c15:	48 01 c0             	add    %rax,%rax
   12c18:	48 01 c8             	add    %rcx,%rax
   12c1b:	48 01 c0             	add    %rax,%rax
   12c1e:	48 01 d0             	add    %rdx,%rax
   12c21:	48 01 f0             	add    %rsi,%rax
   12c24:	48 8d 14 00          	lea    (%rax,%rax,1),%rdx
   12c28:	48 8d 05 51 4b 00 00 	lea    0x4b51(%rip),%rax        # 17780 <g_246>
   12c2f:	0f b7 04 02          	movzwl (%rdx,%rax,1),%eax
   12c33:	48 0f bf c0          	movswq %ax,%rax
   12c37:	8b 55 fc             	mov    -0x4(%rbp),%edx
   12c3a:	48 8d 35 0b 0b 00 00 	lea    0xb0b(%rip),%rsi        # 1374c <_IO_stdin_used+0x74c>
   12c41:	48 89 c7             	mov    %rax,%rdi
   12c44:	e8 aa 7a ff ff       	callq  a6f3 <transparent_crc>
   12c49:	83 7d fc 00          	cmpl   $0x0,-0x4(%rbp)
   12c4d:	74 1c                	je     12c6b <main+0x54a>
   12c4f:	8b 4d f8             	mov    -0x8(%rbp),%ecx
   12c52:	8b 55 f4             	mov    -0xc(%rbp),%edx
   12c55:	8b 45 f0             	mov    -0x10(%rbp),%eax
   12c58:	89 c6                	mov    %eax,%esi
   12c5a:	48 8d 3d 90 0a 00 00 	lea    0xa90(%rip),%rdi        # 136f1 <_IO_stdin_used+0x6f1>
   12c61:	b8 00 00 00 00       	mov    $0x0,%eax
   12c66:	e8 15 64 ff ff       	callq  9080 <printf@plt>
   12c6b:	83 45 f8 01          	addl   $0x1,-0x8(%rbp)
   12c6f:	83 7d f8 05          	cmpl   $0x5,-0x8(%rbp)
   12c73:	0f 8e 73 ff ff ff    	jle    12bec <main+0x4cb>
   12c79:	83 45 f4 01          	addl   $0x1,-0xc(%rbp)
   12c7d:	83 7d f4 09          	cmpl   $0x9,-0xc(%rbp)
   12c81:	0f 8e 59 ff ff ff    	jle    12be0 <main+0x4bf>
   12c87:	83 45 f0 01          	addl   $0x1,-0x10(%rbp)
   12c8b:	83 7d f0 03          	cmpl   $0x3,-0x10(%rbp)
   12c8f:	0f 8e 3f ff ff ff    	jle    12bd4 <main+0x4b3>
   12c95:	48 8b 05 c4 4c 00 00 	mov    0x4cc4(%rip),%rax        # 17960 <g_264>
   12c9c:	48 89 c1             	mov    %rax,%rcx
   12c9f:	8b 45 fc             	mov    -0x4(%rbp),%eax
   12ca2:	89 c2                	mov    %eax,%edx
   12ca4:	48 8d 35 b0 0a 00 00 	lea    0xab0(%rip),%rsi        # 1375b <_IO_stdin_used+0x75b>
   12cab:	48 89 cf             	mov    %rcx,%rdi
   12cae:	e8 40 7a ff ff       	callq  a6f3 <transparent_crc>
   12cb3:	0f b7 05 ae 4c 00 00 	movzwl 0x4cae(%rip),%eax        # 17968 <g_323>
   12cba:	48 0f bf c0          	movswq %ax,%rax
   12cbe:	8b 55 fc             	mov    -0x4(%rbp),%edx
   12cc1:	48 8d 35 99 0a 00 00 	lea    0xa99(%rip),%rsi        # 13761 <_IO_stdin_used+0x761>
   12cc8:	48 89 c7             	mov    %rax,%rdi
   12ccb:	e8 23 7a ff ff       	callq  a6f3 <transparent_crc>
   12cd0:	8b 05 8a 7e 00 00    	mov    0x7e8a(%rip),%eax        # 1ab60 <g_334>
   12cd6:	89 c1                	mov    %eax,%ecx
   12cd8:	8b 45 fc             	mov    -0x4(%rbp),%eax
   12cdb:	89 c2                	mov    %eax,%edx
   12cdd:	48 8d 35 83 0a 00 00 	lea    0xa83(%rip),%rsi        # 13767 <_IO_stdin_used+0x767>
   12ce4:	48 89 cf             	mov    %rcx,%rdi
   12ce7:	e8 07 7a ff ff       	callq  a6f3 <transparent_crc>
   12cec:	8b 05 7a 4c 00 00    	mov    0x4c7a(%rip),%eax        # 1796c <g_399>
   12cf2:	48 98                	cltq   
   12cf4:	8b 55 fc             	mov    -0x4(%rbp),%edx
   12cf7:	48 8d 35 6f 0a 00 00 	lea    0xa6f(%rip),%rsi        # 1376d <_IO_stdin_used+0x76d>
   12cfe:	48 89 c7             	mov    %rax,%rdi
   12d01:	e8 ed 79 ff ff       	callq  a6f3 <transparent_crc>
   12d06:	0f b7 05 63 4c 00 00 	movzwl 0x4c63(%rip),%eax        # 17970 <g_567>
   12d0d:	48 0f bf c0          	movswq %ax,%rax
   12d11:	8b 55 fc             	mov    -0x4(%rbp),%edx
   12d14:	48 8d 35 58 0a 00 00 	lea    0xa58(%rip),%rsi        # 13773 <_IO_stdin_used+0x773>
   12d1b:	48 89 c7             	mov    %rax,%rdi
   12d1e:	e8 d0 79 ff ff       	callq  a6f3 <transparent_crc>
   12d23:	8b 05 4b 4c 00 00    	mov    0x4c4b(%rip),%eax        # 17974 <g_652>
   12d29:	48 98                	cltq   
   12d2b:	8b 55 fc             	mov    -0x4(%rbp),%edx
   12d2e:	48 8d 35 44 0a 00 00 	lea    0xa44(%rip),%rsi        # 13779 <_IO_stdin_used+0x779>
   12d35:	48 89 c7             	mov    %rax,%rdi
   12d38:	e8 b6 79 ff ff       	callq  a6f3 <transparent_crc>
   12d3d:	48 8b 05 34 4c 00 00 	mov    0x4c34(%rip),%rax        # 17978 <g_680>
   12d44:	48 89 c1             	mov    %rax,%rcx
   12d47:	8b 45 fc             	mov    -0x4(%rbp),%eax
   12d4a:	89 c2                	mov    %eax,%edx
   12d4c:	48 8d 35 2c 0a 00 00 	lea    0xa2c(%rip),%rsi        # 1377f <_IO_stdin_used+0x77f>
   12d53:	48 89 cf             	mov    %rcx,%rdi
   12d56:	e8 98 79 ff ff       	callq  a6f3 <transparent_crc>
   12d5b:	8b 05 1f 4c 00 00    	mov    0x4c1f(%rip),%eax        # 17980 <g_706>
   12d61:	89 c1                	mov    %eax,%ecx
   12d63:	8b 45 fc             	mov    -0x4(%rbp),%eax
   12d66:	89 c2                	mov    %eax,%edx
   12d68:	48 8d 35 16 0a 00 00 	lea    0xa16(%rip),%rsi        # 13785 <_IO_stdin_used+0x785>
   12d6f:	48 89 cf             	mov    %rcx,%rdi
   12d72:	e8 7c 79 ff ff       	callq  a6f3 <transparent_crc>
   12d77:	48 8b 05 0a 4c 00 00 	mov    0x4c0a(%rip),%rax        # 17988 <g_730>
   12d7e:	48 89 c1             	mov    %rax,%rcx
   12d81:	8b 45 fc             	mov    -0x4(%rbp),%eax
   12d84:	89 c2                	mov    %eax,%edx
   12d86:	48 8d 35 fe 09 00 00 	lea    0x9fe(%rip),%rsi        # 1378b <_IO_stdin_used+0x78b>
   12d8d:	48 89 cf             	mov    %rcx,%rdi
   12d90:	e8 5e 79 ff ff       	callq  a6f3 <transparent_crc>
   12d95:	c7 45 f0 00 00 00 00 	movl   $0x0,-0x10(%rbp)
   12d9c:	eb 4b                	jmp    12de9 <main+0x6c8>
   12d9e:	8b 45 f0             	mov    -0x10(%rbp),%eax
   12da1:	48 98                	cltq   
   12da3:	48 8d 14 85 00 00 00 	lea    0x0(,%rax,4),%rdx
   12daa:	00 
   12dab:	48 8d 05 de 4b 00 00 	lea    0x4bde(%rip),%rax        # 17990 <g_917>
   12db2:	8b 04 02             	mov    (%rdx,%rax,1),%eax
   12db5:	48 98                	cltq   
   12db7:	8b 55 fc             	mov    -0x4(%rbp),%edx
   12dba:	48 8d 35 d0 09 00 00 	lea    0x9d0(%rip),%rsi        # 13791 <_IO_stdin_used+0x791>
   12dc1:	48 89 c7             	mov    %rax,%rdi
   12dc4:	e8 2a 79 ff ff       	callq  a6f3 <transparent_crc>
   12dc9:	83 7d fc 00          	cmpl   $0x0,-0x4(%rbp)
   12dcd:	74 16                	je     12de5 <main+0x6c4>
   12dcf:	8b 45 f0             	mov    -0x10(%rbp),%eax
   12dd2:	89 c6                	mov    %eax,%esi
   12dd4:	48 8d 3d d5 08 00 00 	lea    0x8d5(%rip),%rdi        # 136b0 <_IO_stdin_used+0x6b0>
   12ddb:	b8 00 00 00 00       	mov    $0x0,%eax
   12de0:	e8 9b 62 ff ff       	callq  9080 <printf@plt>
   12de5:	83 45 f0 01          	addl   $0x1,-0x10(%rbp)
   12de9:	83 7d f0 05          	cmpl   $0x5,-0x10(%rbp)
   12ded:	7e af                	jle    12d9e <main+0x67d>
   12def:	0f b6 05 b2 4b 00 00 	movzbl 0x4bb2(%rip),%eax        # 179a8 <g_1014>
   12df6:	48 0f be c0          	movsbq %al,%rax
   12dfa:	8b 55 fc             	mov    -0x4(%rbp),%edx
   12dfd:	48 8d 35 96 09 00 00 	lea    0x996(%rip),%rsi        # 1379a <_IO_stdin_used+0x79a>
   12e04:	48 89 c7             	mov    %rax,%rdi
   12e07:	e8 e7 78 ff ff       	callq  a6f3 <transparent_crc>
   12e0c:	0f b6 05 96 4b 00 00 	movzbl 0x4b96(%rip),%eax        # 179a9 <g_1052>
   12e13:	48 0f be c0          	movsbq %al,%rax
   12e17:	8b 55 fc             	mov    -0x4(%rbp),%edx
   12e1a:	48 8d 35 80 09 00 00 	lea    0x980(%rip),%rsi        # 137a1 <_IO_stdin_used+0x7a1>
   12e21:	48 89 c7             	mov    %rax,%rdi
   12e24:	e8 ca 78 ff ff       	callq  a6f3 <transparent_crc>
   12e29:	c7 45 f0 00 00 00 00 	movl   $0x0,-0x10(%rbp)
   12e30:	eb 4d                	jmp    12e7f <main+0x75e>
   12e32:	8b 45 f0             	mov    -0x10(%rbp),%eax
   12e35:	48 98                	cltq   
   12e37:	48 8d 14 85 00 00 00 	lea    0x0(,%rax,4),%rdx
   12e3e:	00 
   12e3f:	48 8d 05 72 7d 00 00 	lea    0x7d72(%rip),%rax        # 1abb8 <g_1406>
   12e46:	8b 04 02             	mov    (%rdx,%rax,1),%eax
   12e49:	89 c1                	mov    %eax,%ecx
   12e4b:	8b 45 fc             	mov    -0x4(%rbp),%eax
   12e4e:	89 c2                	mov    %eax,%edx
   12e50:	48 8d 35 51 09 00 00 	lea    0x951(%rip),%rsi        # 137a8 <_IO_stdin_used+0x7a8>
   12e57:	48 89 cf             	mov    %rcx,%rdi
   12e5a:	e8 94 78 ff ff       	callq  a6f3 <transparent_crc>
   12e5f:	83 7d fc 00          	cmpl   $0x0,-0x4(%rbp)
   12e63:	74 16                	je     12e7b <main+0x75a>
   12e65:	8b 45 f0             	mov    -0x10(%rbp),%eax
   12e68:	89 c6                	mov    %eax,%esi
   12e6a:	48 8d 3d 3f 08 00 00 	lea    0x83f(%rip),%rdi        # 136b0 <_IO_stdin_used+0x6b0>
   12e71:	b8 00 00 00 00       	mov    $0x0,%eax
   12e76:	e8 05 62 ff ff       	callq  9080 <printf@plt>
   12e7b:	83 45 f0 01          	addl   $0x1,-0x10(%rbp)
   12e7f:	83 7d f0 01          	cmpl   $0x1,-0x10(%rbp)
   12e83:	7e ad                	jle    12e32 <main+0x711>
   12e85:	48 8b 05 24 4b 00 00 	mov    0x4b24(%rip),%rax        # 179b0 <g_1455>
   12e8c:	8b 55 fc             	mov    -0x4(%rbp),%edx
   12e8f:	48 8d 35 1c 09 00 00 	lea    0x91c(%rip),%rsi        # 137b2 <_IO_stdin_used+0x7b2>
   12e96:	48 89 c7             	mov    %rax,%rdi
   12e99:	e8 55 78 ff ff       	callq  a6f3 <transparent_crc>
   12e9e:	8b 05 7c 41 00 00    	mov    0x417c(%rip),%eax        # 17020 <crc32_context>
   12ea4:	f7 d0                	not    %eax
   12ea6:	89 c2                	mov    %eax,%edx
   12ea8:	8b 45 fc             	mov    -0x4(%rbp),%eax
   12eab:	89 c6                	mov    %eax,%esi
   12ead:	89 d7                	mov    %edx,%edi
   12eaf:	e8 e0 62 ff ff       	callq  9194 <platform_main_end>
   12eb4:	b8 00 00 00 00       	mov    $0x0,%eax
   12eb9:	c9                   	leaveq 
   12eba:	c3                   	retq   
   12ebb:	0f 1f 44 00 00       	nopl   0x0(%rax,%rax,1)

0000000000012ec0 <__libc_csu_init>:
   12ec0:	f3 0f 1e fa          	endbr64 
   12ec4:	41 57                	push   %r15
   12ec6:	4c 8d 3d c3 36 00 00 	lea    0x36c3(%rip),%r15        # 16590 <__frame_dummy_init_array_entry>
   12ecd:	41 56                	push   %r14
   12ecf:	49 89 d6             	mov    %rdx,%r14
   12ed2:	41 55                	push   %r13
   12ed4:	49 89 f5             	mov    %rsi,%r13
   12ed7:	41 54                	push   %r12
   12ed9:	41 89 fc             	mov    %edi,%r12d
   12edc:	55                   	push   %rbp
   12edd:	48 8d 2d b4 36 00 00 	lea    0x36b4(%rip),%rbp        # 16598 <__do_global_dtors_aux_fini_array_entry>
   12ee4:	53                   	push   %rbx
   12ee5:	4c 29 fd             	sub    %r15,%rbp
   12ee8:	48 83 ec 08          	sub    $0x8,%rsp
   12eec:	e8 0f 61 ff ff       	callq  9000 <_init>
   12ef1:	48 c1 fd 03          	sar    $0x3,%rbp
   12ef5:	74 1f                	je     12f16 <__libc_csu_init+0x56>
   12ef7:	31 db                	xor    %ebx,%ebx
   12ef9:	0f 1f 80 00 00 00 00 	nopl   0x0(%rax)
   12f00:	4c 89 f2             	mov    %r14,%rdx
   12f03:	4c 89 ee             	mov    %r13,%rsi
   12f06:	44 89 e7             	mov    %r12d,%edi
   12f09:	41 ff 14 df          	callq  *(%r15,%rbx,8)
   12f0d:	48 83 c3 01          	add    $0x1,%rbx
   12f11:	48 39 dd             	cmp    %rbx,%rbp
   12f14:	75 ea                	jne    12f00 <__libc_csu_init+0x40>
   12f16:	48 83 c4 08          	add    $0x8,%rsp
   12f1a:	5b                   	pop    %rbx
   12f1b:	5d                   	pop    %rbp
   12f1c:	41 5c                	pop    %r12
   12f1e:	41 5d                	pop    %r13
   12f20:	41 5e                	pop    %r14
   12f22:	41 5f                	pop    %r15
   12f24:	c3                   	retq   
   12f25:	66 66 2e 0f 1f 84 00 	data16 nopw %cs:0x0(%rax,%rax,1)
   12f2c:	00 00 00 00 

0000000000012f30 <__libc_csu_fini>:
   12f30:	f3 0f 1e fa          	endbr64 
   12f34:	c3                   	retq   
