


Disassembly of section .text:

00000000000050a0 <_start>:
    50a0:	f3 0f 1e fa          	endbr64 
    50a4:	31 ed                	xor    %ebp,%ebp
    50a6:	49 89 d1             	mov    %rdx,%r9
    50a9:	5e                   	pop    %rsi
    50aa:	48 89 e2             	mov    %rsp,%rdx
    50ad:	48 83 e4 f0          	and    $0xfffffffffffffff0,%rsp
    50b1:	50                   	push   %rax
    50b2:	54                   	push   %rsp
    50b3:	4c 8d 05 d6 d9 00 00 	lea    0xd9d6(%rip),%r8        # 12a90 <__libc_csu_fini>
    50ba:	48 8d 0d 5f d9 00 00 	lea    0xd95f(%rip),%rcx        # 12a20 <__libc_csu_init>
    50c1:	48 8d 3d d7 c8 00 00 	lea    0xc8d7(%rip),%rdi        # 1199f <main>
    50c8:	ff 15 12 1f 01 00    	callq  *0x11f12(%rip)        # 16fe0 <__libc_start_main@GLIBC_2.2.5>
    50ce:	f4                   	hlt    
    50cf:	90                   	nop

00000000000050d0 <deregister_tm_clones>:
    50d0:	48 8d 3d e1 3b 01 00 	lea    0x13be1(%rip),%rdi        # 18cb8 <__TMC_END__>
    50d7:	48 8d 05 da 3b 01 00 	lea    0x13bda(%rip),%rax        # 18cb8 <__TMC_END__>
    50de:	48 39 f8             	cmp    %rdi,%rax
    50e1:	74 15                	je     50f8 <deregister_tm_clones+0x28>
    50e3:	48 8b 05 ee 1e 01 00 	mov    0x11eee(%rip),%rax        # 16fd8 <_ITM_deregisterTMCloneTable>
    50ea:	48 85 c0             	test   %rax,%rax
    50ed:	74 09                	je     50f8 <deregister_tm_clones+0x28>
    50ef:	ff e0                	jmpq   *%rax
    50f1:	0f 1f 80 00 00 00 00 	nopl   0x0(%rax)
    50f8:	c3                   	retq   
    50f9:	0f 1f 80 00 00 00 00 	nopl   0x0(%rax)

0000000000005100 <register_tm_clones>:
    5100:	48 8d 3d b1 3b 01 00 	lea    0x13bb1(%rip),%rdi        # 18cb8 <__TMC_END__>
    5107:	48 8d 35 aa 3b 01 00 	lea    0x13baa(%rip),%rsi        # 18cb8 <__TMC_END__>
    510e:	48 29 fe             	sub    %rdi,%rsi
    5111:	48 89 f0             	mov    %rsi,%rax
    5114:	48 c1 ee 3f          	shr    $0x3f,%rsi
    5118:	48 c1 f8 03          	sar    $0x3,%rax
    511c:	48 01 c6             	add    %rax,%rsi
    511f:	48 d1 fe             	sar    %rsi
    5122:	74 14                	je     5138 <register_tm_clones+0x38>
    5124:	48 8b 05 c5 1e 01 00 	mov    0x11ec5(%rip),%rax        # 16ff0 <_ITM_registerTMCloneTable>
    512b:	48 85 c0             	test   %rax,%rax
    512e:	74 08                	je     5138 <register_tm_clones+0x38>
    5130:	ff e0                	jmpq   *%rax
    5132:	66 0f 1f 44 00 00    	nopw   0x0(%rax,%rax,1)
    5138:	c3                   	retq   
    5139:	0f 1f 80 00 00 00 00 	nopl   0x0(%rax)

0000000000005140 <__do_global_dtors_aux>:
    5140:	f3 0f 1e fa          	endbr64 
    5144:	80 3d 75 3b 01 00 00 	cmpb   $0x0,0x13b75(%rip)        # 18cc0 <completed.8061>
    514b:	75 2b                	jne    5178 <__do_global_dtors_aux+0x38>
    514d:	55                   	push   %rbp
    514e:	48 83 3d a2 1e 01 00 	cmpq   $0x0,0x11ea2(%rip)        # 16ff8 <__cxa_finalize@GLIBC_2.2.5>
    5155:	00 
    5156:	48 89 e5             	mov    %rsp,%rbp
    5159:	74 0c                	je     5167 <__do_global_dtors_aux+0x27>
    515b:	48 8b 3d a6 1e 01 00 	mov    0x11ea6(%rip),%rdi        # 17008 <__dso_handle>
    5162:	e8 f9 fe ff ff       	callq  5060 <__cxa_finalize@plt>
    5167:	e8 64 ff ff ff       	callq  50d0 <deregister_tm_clones>
    516c:	c6 05 4d 3b 01 00 01 	movb   $0x1,0x13b4d(%rip)        # 18cc0 <completed.8061>
    5173:	5d                   	pop    %rbp
    5174:	c3                   	retq   
    5175:	0f 1f 00             	nopl   (%rax)
    5178:	c3                   	retq   
    5179:	0f 1f 80 00 00 00 00 	nopl   0x0(%rax)

0000000000005180 <frame_dummy>:
    5180:	f3 0f 1e fa          	endbr64 
    5184:	e9 77 ff ff ff       	jmpq   5100 <register_tm_clones>

0000000000005189 <platform_main_begin>:
    5189:	f3 0f 1e fa          	endbr64 
    518d:	55                   	push   %rbp
    518e:	48 89 e5             	mov    %rsp,%rbp
    5191:	90                   	nop
    5192:	5d                   	pop    %rbp
    5193:	c3                   	retq   

0000000000005194 <platform_main_end>:
    5194:	f3 0f 1e fa          	endbr64 
    5198:	55                   	push   %rbp
    5199:	48 89 e5             	mov    %rsp,%rbp
    519c:	48 83 ec 10          	sub    $0x10,%rsp
    51a0:	89 7d fc             	mov    %edi,-0x4(%rbp)
    51a3:	89 75 f8             	mov    %esi,-0x8(%rbp)
    51a6:	8b 45 fc             	mov    -0x4(%rbp),%eax
    51a9:	89 c6                	mov    %eax,%esi
    51ab:	48 8d 3d 6e de 00 00 	lea    0xde6e(%rip),%rdi        # 13020 <_IO_stdin_used+0x20>
    51b2:	b8 00 00 00 00       	mov    $0x0,%eax
    51b7:	e8 c4 fe ff ff       	callq  5080 <printf@plt>
    51bc:	90                   	nop
    51bd:	c9                   	leaveq 
    51be:	c3                   	retq   

00000000000051bf <safe_unary_minus_func_int8_t_s>:
    51bf:	f3 0f 1e fa          	endbr64 
    51c3:	55                   	push   %rbp
    51c4:	48 89 e5             	mov    %rsp,%rbp
    51c7:	89 f8                	mov    %edi,%eax
    51c9:	88 45 fc             	mov    %al,-0x4(%rbp)
    51cc:	0f b6 45 fc          	movzbl -0x4(%rbp),%eax
    51d0:	f7 d8                	neg    %eax
    51d2:	5d                   	pop    %rbp
    51d3:	c3                   	retq   

00000000000051d4 <safe_add_func_int8_t_s_s>:
    51d4:	f3 0f 1e fa          	endbr64 
    51d8:	55                   	push   %rbp
    51d9:	48 89 e5             	mov    %rsp,%rbp
    51dc:	89 fa                	mov    %edi,%edx
    51de:	89 f0                	mov    %esi,%eax
    51e0:	88 55 fc             	mov    %dl,-0x4(%rbp)
    51e3:	88 45 f8             	mov    %al,-0x8(%rbp)
    51e6:	0f b6 55 fc          	movzbl -0x4(%rbp),%edx
    51ea:	0f b6 45 f8          	movzbl -0x8(%rbp),%eax
    51ee:	01 d0                	add    %edx,%eax
    51f0:	5d                   	pop    %rbp
    51f1:	c3                   	retq   

00000000000051f2 <safe_sub_func_int8_t_s_s>:
    51f2:	f3 0f 1e fa          	endbr64 
    51f6:	55                   	push   %rbp
    51f7:	48 89 e5             	mov    %rsp,%rbp
    51fa:	89 fa                	mov    %edi,%edx
    51fc:	89 f0                	mov    %esi,%eax
    51fe:	88 55 fc             	mov    %dl,-0x4(%rbp)
    5201:	88 45 f8             	mov    %al,-0x8(%rbp)
    5204:	0f b6 55 fc          	movzbl -0x4(%rbp),%edx
    5208:	0f b6 45 f8          	movzbl -0x8(%rbp),%eax
    520c:	29 c2                	sub    %eax,%edx
    520e:	89 d0                	mov    %edx,%eax
    5210:	5d                   	pop    %rbp
    5211:	c3                   	retq   

0000000000005212 <safe_mul_func_int8_t_s_s>:
    5212:	f3 0f 1e fa          	endbr64 
    5216:	55                   	push   %rbp
    5217:	48 89 e5             	mov    %rsp,%rbp
    521a:	89 fa                	mov    %edi,%edx
    521c:	89 f0                	mov    %esi,%eax
    521e:	88 55 fc             	mov    %dl,-0x4(%rbp)
    5221:	88 45 f8             	mov    %al,-0x8(%rbp)
    5224:	0f b6 45 fc          	movzbl -0x4(%rbp),%eax
    5228:	0f b6 55 f8          	movzbl -0x8(%rbp),%edx
    522c:	0f af c2             	imul   %edx,%eax
    522f:	5d                   	pop    %rbp
    5230:	c3                   	retq   

0000000000005231 <safe_mod_func_int8_t_s_s>:
    5231:	f3 0f 1e fa          	endbr64 
    5235:	55                   	push   %rbp
    5236:	48 89 e5             	mov    %rsp,%rbp
    5239:	89 fa                	mov    %edi,%edx
    523b:	89 f0                	mov    %esi,%eax
    523d:	88 55 fc             	mov    %dl,-0x4(%rbp)
    5240:	88 45 f8             	mov    %al,-0x8(%rbp)
    5243:	80 7d f8 00          	cmpb   $0x0,-0x8(%rbp)
    5247:	74 1b                	je     5264 <safe_mod_func_int8_t_s_s+0x33>
    5249:	80 7d fc 80          	cmpb   $0x80,-0x4(%rbp)
    524d:	75 06                	jne    5255 <safe_mod_func_int8_t_s_s+0x24>
    524f:	80 7d f8 ff          	cmpb   $0xff,-0x8(%rbp)
    5253:	74 0f                	je     5264 <safe_mod_func_int8_t_s_s+0x33>
    5255:	0f be 45 fc          	movsbl -0x4(%rbp),%eax
    5259:	0f be 4d f8          	movsbl -0x8(%rbp),%ecx
    525d:	99                   	cltd   
    525e:	f7 f9                	idiv   %ecx
    5260:	89 d0                	mov    %edx,%eax
    5262:	eb 04                	jmp    5268 <safe_mod_func_int8_t_s_s+0x37>
    5264:	0f b6 45 fc          	movzbl -0x4(%rbp),%eax
    5268:	5d                   	pop    %rbp
    5269:	c3                   	retq   

000000000000526a <safe_div_func_int8_t_s_s>:
    526a:	f3 0f 1e fa          	endbr64 
    526e:	55                   	push   %rbp
    526f:	48 89 e5             	mov    %rsp,%rbp
    5272:	89 fa                	mov    %edi,%edx
    5274:	89 f0                	mov    %esi,%eax
    5276:	88 55 fc             	mov    %dl,-0x4(%rbp)
    5279:	88 45 f8             	mov    %al,-0x8(%rbp)
    527c:	80 7d f8 00          	cmpb   $0x0,-0x8(%rbp)
    5280:	74 19                	je     529b <safe_div_func_int8_t_s_s+0x31>
    5282:	80 7d fc 80          	cmpb   $0x80,-0x4(%rbp)
    5286:	75 06                	jne    528e <safe_div_func_int8_t_s_s+0x24>
    5288:	80 7d f8 ff          	cmpb   $0xff,-0x8(%rbp)
    528c:	74 0d                	je     529b <safe_div_func_int8_t_s_s+0x31>
    528e:	0f be 45 fc          	movsbl -0x4(%rbp),%eax
    5292:	0f be 4d f8          	movsbl -0x8(%rbp),%ecx
    5296:	99                   	cltd   
    5297:	f7 f9                	idiv   %ecx
    5299:	eb 04                	jmp    529f <safe_div_func_int8_t_s_s+0x35>
    529b:	0f b6 45 fc          	movzbl -0x4(%rbp),%eax
    529f:	5d                   	pop    %rbp
    52a0:	c3                   	retq   

00000000000052a1 <safe_lshift_func_int8_t_s_s>:
    52a1:	f3 0f 1e fa          	endbr64 
    52a5:	55                   	push   %rbp
    52a6:	48 89 e5             	mov    %rsp,%rbp
    52a9:	89 f8                	mov    %edi,%eax
    52ab:	89 75 f8             	mov    %esi,-0x8(%rbp)
    52ae:	88 45 fc             	mov    %al,-0x4(%rbp)
    52b1:	80 7d fc 00          	cmpb   $0x0,-0x4(%rbp)
    52b5:	78 31                	js     52e8 <safe_lshift_func_int8_t_s_s+0x47>
    52b7:	83 7d f8 00          	cmpl   $0x0,-0x8(%rbp)
    52bb:	78 2b                	js     52e8 <safe_lshift_func_int8_t_s_s+0x47>
    52bd:	83 7d f8 1f          	cmpl   $0x1f,-0x8(%rbp)
    52c1:	7f 25                	jg     52e8 <safe_lshift_func_int8_t_s_s+0x47>
    52c3:	0f be 55 fc          	movsbl -0x4(%rbp),%edx
    52c7:	8b 45 f8             	mov    -0x8(%rbp),%eax
    52ca:	be 7f 00 00 00       	mov    $0x7f,%esi
    52cf:	89 c1                	mov    %eax,%ecx
    52d1:	d3 fe                	sar    %cl,%esi
    52d3:	89 f0                	mov    %esi,%eax
    52d5:	39 c2                	cmp    %eax,%edx
    52d7:	7f 0f                	jg     52e8 <safe_lshift_func_int8_t_s_s+0x47>
    52d9:	0f be 55 fc          	movsbl -0x4(%rbp),%edx
    52dd:	8b 45 f8             	mov    -0x8(%rbp),%eax
    52e0:	89 c1                	mov    %eax,%ecx
    52e2:	d3 e2                	shl    %cl,%edx
    52e4:	89 d0                	mov    %edx,%eax
    52e6:	eb 04                	jmp    52ec <safe_lshift_func_int8_t_s_s+0x4b>
    52e8:	0f b6 45 fc          	movzbl -0x4(%rbp),%eax
    52ec:	5d                   	pop    %rbp
    52ed:	c3                   	retq   

00000000000052ee <safe_lshift_func_int8_t_s_u>:
    52ee:	f3 0f 1e fa          	endbr64 
    52f2:	55                   	push   %rbp
    52f3:	48 89 e5             	mov    %rsp,%rbp
    52f6:	89 f8                	mov    %edi,%eax
    52f8:	89 75 f8             	mov    %esi,-0x8(%rbp)
    52fb:	88 45 fc             	mov    %al,-0x4(%rbp)
    52fe:	80 7d fc 00          	cmpb   $0x0,-0x4(%rbp)
    5302:	78 2b                	js     532f <safe_lshift_func_int8_t_s_u+0x41>
    5304:	83 7d f8 1f          	cmpl   $0x1f,-0x8(%rbp)
    5308:	77 25                	ja     532f <safe_lshift_func_int8_t_s_u+0x41>
    530a:	0f be 55 fc          	movsbl -0x4(%rbp),%edx
    530e:	8b 45 f8             	mov    -0x8(%rbp),%eax
    5311:	be 7f 00 00 00       	mov    $0x7f,%esi
    5316:	89 c1                	mov    %eax,%ecx
    5318:	d3 fe                	sar    %cl,%esi
    531a:	89 f0                	mov    %esi,%eax
    531c:	39 c2                	cmp    %eax,%edx
    531e:	7f 0f                	jg     532f <safe_lshift_func_int8_t_s_u+0x41>
    5320:	0f be 55 fc          	movsbl -0x4(%rbp),%edx
    5324:	8b 45 f8             	mov    -0x8(%rbp),%eax
    5327:	89 c1                	mov    %eax,%ecx
    5329:	d3 e2                	shl    %cl,%edx
    532b:	89 d0                	mov    %edx,%eax
    532d:	eb 04                	jmp    5333 <safe_lshift_func_int8_t_s_u+0x45>
    532f:	0f b6 45 fc          	movzbl -0x4(%rbp),%eax
    5333:	5d                   	pop    %rbp
    5334:	c3                   	retq   

0000000000005335 <safe_rshift_func_int8_t_s_s>:
    5335:	f3 0f 1e fa          	endbr64 
    5339:	55                   	push   %rbp
    533a:	48 89 e5             	mov    %rsp,%rbp
    533d:	89 f8                	mov    %edi,%eax
    533f:	89 75 f8             	mov    %esi,-0x8(%rbp)
    5342:	88 45 fc             	mov    %al,-0x4(%rbp)
    5345:	80 7d fc 00          	cmpb   $0x0,-0x4(%rbp)
    5349:	78 1b                	js     5366 <safe_rshift_func_int8_t_s_s+0x31>
    534b:	83 7d f8 00          	cmpl   $0x0,-0x8(%rbp)
    534f:	78 15                	js     5366 <safe_rshift_func_int8_t_s_s+0x31>
    5351:	83 7d f8 1f          	cmpl   $0x1f,-0x8(%rbp)
    5355:	7f 0f                	jg     5366 <safe_rshift_func_int8_t_s_s+0x31>
    5357:	0f be 55 fc          	movsbl -0x4(%rbp),%edx
    535b:	8b 45 f8             	mov    -0x8(%rbp),%eax
    535e:	89 c1                	mov    %eax,%ecx
    5360:	d3 fa                	sar    %cl,%edx
    5362:	89 d0                	mov    %edx,%eax
    5364:	eb 04                	jmp    536a <safe_rshift_func_int8_t_s_s+0x35>
    5366:	0f b6 45 fc          	movzbl -0x4(%rbp),%eax
    536a:	5d                   	pop    %rbp
    536b:	c3                   	retq   

000000000000536c <safe_rshift_func_int8_t_s_u>:
    536c:	f3 0f 1e fa          	endbr64 
    5370:	55                   	push   %rbp
    5371:	48 89 e5             	mov    %rsp,%rbp
    5374:	89 f8                	mov    %edi,%eax
    5376:	89 75 f8             	mov    %esi,-0x8(%rbp)
    5379:	88 45 fc             	mov    %al,-0x4(%rbp)
    537c:	80 7d fc 00          	cmpb   $0x0,-0x4(%rbp)
    5380:	78 15                	js     5397 <safe_rshift_func_int8_t_s_u+0x2b>
    5382:	83 7d f8 1f          	cmpl   $0x1f,-0x8(%rbp)
    5386:	77 0f                	ja     5397 <safe_rshift_func_int8_t_s_u+0x2b>
    5388:	0f be 55 fc          	movsbl -0x4(%rbp),%edx
    538c:	8b 45 f8             	mov    -0x8(%rbp),%eax
    538f:	89 c1                	mov    %eax,%ecx
    5391:	d3 fa                	sar    %cl,%edx
    5393:	89 d0                	mov    %edx,%eax
    5395:	eb 04                	jmp    539b <safe_rshift_func_int8_t_s_u+0x2f>
    5397:	0f b6 45 fc          	movzbl -0x4(%rbp),%eax
    539b:	5d                   	pop    %rbp
    539c:	c3                   	retq   

000000000000539d <safe_unary_minus_func_int16_t_s>:
    539d:	f3 0f 1e fa          	endbr64 
    53a1:	55                   	push   %rbp
    53a2:	48 89 e5             	mov    %rsp,%rbp
    53a5:	89 f8                	mov    %edi,%eax
    53a7:	66 89 45 fc          	mov    %ax,-0x4(%rbp)
    53ab:	0f b7 45 fc          	movzwl -0x4(%rbp),%eax
    53af:	f7 d8                	neg    %eax
    53b1:	5d                   	pop    %rbp
    53b2:	c3                   	retq   

00000000000053b3 <safe_add_func_int16_t_s_s>:
    53b3:	f3 0f 1e fa          	endbr64 
    53b7:	55                   	push   %rbp
    53b8:	48 89 e5             	mov    %rsp,%rbp
    53bb:	89 fa                	mov    %edi,%edx
    53bd:	89 f0                	mov    %esi,%eax
    53bf:	66 89 55 fc          	mov    %dx,-0x4(%rbp)
    53c3:	66 89 45 f8          	mov    %ax,-0x8(%rbp)
    53c7:	0f b7 55 fc          	movzwl -0x4(%rbp),%edx
    53cb:	0f b7 45 f8          	movzwl -0x8(%rbp),%eax
    53cf:	01 d0                	add    %edx,%eax
    53d1:	5d                   	pop    %rbp
    53d2:	c3                   	retq   

00000000000053d3 <safe_sub_func_int16_t_s_s>:
    53d3:	f3 0f 1e fa          	endbr64 
    53d7:	55                   	push   %rbp
    53d8:	48 89 e5             	mov    %rsp,%rbp
    53db:	89 fa                	mov    %edi,%edx
    53dd:	89 f0                	mov    %esi,%eax
    53df:	66 89 55 fc          	mov    %dx,-0x4(%rbp)
    53e3:	66 89 45 f8          	mov    %ax,-0x8(%rbp)
    53e7:	0f b7 55 fc          	movzwl -0x4(%rbp),%edx
    53eb:	0f b7 45 f8          	movzwl -0x8(%rbp),%eax
    53ef:	29 c2                	sub    %eax,%edx
    53f1:	89 d0                	mov    %edx,%eax
    53f3:	5d                   	pop    %rbp
    53f4:	c3                   	retq   

00000000000053f5 <safe_mul_func_int16_t_s_s>:
    53f5:	f3 0f 1e fa          	endbr64 
    53f9:	55                   	push   %rbp
    53fa:	48 89 e5             	mov    %rsp,%rbp
    53fd:	89 fa                	mov    %edi,%edx
    53ff:	89 f0                	mov    %esi,%eax
    5401:	66 89 55 fc          	mov    %dx,-0x4(%rbp)
    5405:	66 89 45 f8          	mov    %ax,-0x8(%rbp)
    5409:	0f b7 55 fc          	movzwl -0x4(%rbp),%edx
    540d:	0f b7 45 f8          	movzwl -0x8(%rbp),%eax
    5411:	0f af c2             	imul   %edx,%eax
    5414:	5d                   	pop    %rbp
    5415:	c3                   	retq   

0000000000005416 <safe_mod_func_int16_t_s_s>:
    5416:	f3 0f 1e fa          	endbr64 
    541a:	55                   	push   %rbp
    541b:	48 89 e5             	mov    %rsp,%rbp
    541e:	89 fa                	mov    %edi,%edx
    5420:	89 f0                	mov    %esi,%eax
    5422:	66 89 55 fc          	mov    %dx,-0x4(%rbp)
    5426:	66 89 45 f8          	mov    %ax,-0x8(%rbp)
    542a:	66 83 7d f8 00       	cmpw   $0x0,-0x8(%rbp)
    542f:	74 1e                	je     544f <safe_mod_func_int16_t_s_s+0x39>
    5431:	66 81 7d fc 00 80    	cmpw   $0x8000,-0x4(%rbp)
    5437:	75 07                	jne    5440 <safe_mod_func_int16_t_s_s+0x2a>
    5439:	66 83 7d f8 ff       	cmpw   $0xffff,-0x8(%rbp)
    543e:	74 0f                	je     544f <safe_mod_func_int16_t_s_s+0x39>
    5440:	0f bf 45 fc          	movswl -0x4(%rbp),%eax
    5444:	0f bf 4d f8          	movswl -0x8(%rbp),%ecx
    5448:	99                   	cltd   
    5449:	f7 f9                	idiv   %ecx
    544b:	89 d0                	mov    %edx,%eax
    544d:	eb 04                	jmp    5453 <safe_mod_func_int16_t_s_s+0x3d>
    544f:	0f b7 45 fc          	movzwl -0x4(%rbp),%eax
    5453:	5d                   	pop    %rbp
    5454:	c3                   	retq   

0000000000005455 <safe_div_func_int16_t_s_s>:
    5455:	f3 0f 1e fa          	endbr64 
    5459:	55                   	push   %rbp
    545a:	48 89 e5             	mov    %rsp,%rbp
    545d:	89 fa                	mov    %edi,%edx
    545f:	89 f0                	mov    %esi,%eax
    5461:	66 89 55 fc          	mov    %dx,-0x4(%rbp)
    5465:	66 89 45 f8          	mov    %ax,-0x8(%rbp)
    5469:	66 83 7d f8 00       	cmpw   $0x0,-0x8(%rbp)
    546e:	74 1c                	je     548c <safe_div_func_int16_t_s_s+0x37>
    5470:	66 81 7d fc 00 80    	cmpw   $0x8000,-0x4(%rbp)
    5476:	75 07                	jne    547f <safe_div_func_int16_t_s_s+0x2a>
    5478:	66 83 7d f8 ff       	cmpw   $0xffff,-0x8(%rbp)
    547d:	74 0d                	je     548c <safe_div_func_int16_t_s_s+0x37>
    547f:	0f bf 45 fc          	movswl -0x4(%rbp),%eax
    5483:	0f bf 4d f8          	movswl -0x8(%rbp),%ecx
    5487:	99                   	cltd   
    5488:	f7 f9                	idiv   %ecx
    548a:	eb 04                	jmp    5490 <safe_div_func_int16_t_s_s+0x3b>
    548c:	0f b7 45 fc          	movzwl -0x4(%rbp),%eax
    5490:	5d                   	pop    %rbp
    5491:	c3                   	retq   

0000000000005492 <safe_lshift_func_int16_t_s_s>:
    5492:	f3 0f 1e fa          	endbr64 
    5496:	55                   	push   %rbp
    5497:	48 89 e5             	mov    %rsp,%rbp
    549a:	89 f8                	mov    %edi,%eax
    549c:	89 75 f8             	mov    %esi,-0x8(%rbp)
    549f:	66 89 45 fc          	mov    %ax,-0x4(%rbp)
    54a3:	66 83 7d fc 00       	cmpw   $0x0,-0x4(%rbp)
    54a8:	78 31                	js     54db <safe_lshift_func_int16_t_s_s+0x49>
    54aa:	83 7d f8 00          	cmpl   $0x0,-0x8(%rbp)
    54ae:	78 2b                	js     54db <safe_lshift_func_int16_t_s_s+0x49>
    54b0:	83 7d f8 1f          	cmpl   $0x1f,-0x8(%rbp)
    54b4:	7f 25                	jg     54db <safe_lshift_func_int16_t_s_s+0x49>
    54b6:	0f bf 55 fc          	movswl -0x4(%rbp),%edx
    54ba:	8b 45 f8             	mov    -0x8(%rbp),%eax
    54bd:	be ff 7f 00 00       	mov    $0x7fff,%esi
    54c2:	89 c1                	mov    %eax,%ecx
    54c4:	d3 fe                	sar    %cl,%esi
    54c6:	89 f0                	mov    %esi,%eax
    54c8:	39 c2                	cmp    %eax,%edx
    54ca:	7f 0f                	jg     54db <safe_lshift_func_int16_t_s_s+0x49>
    54cc:	0f bf 55 fc          	movswl -0x4(%rbp),%edx
    54d0:	8b 45 f8             	mov    -0x8(%rbp),%eax
    54d3:	89 c1                	mov    %eax,%ecx
    54d5:	d3 e2                	shl    %cl,%edx
    54d7:	89 d0                	mov    %edx,%eax
    54d9:	eb 04                	jmp    54df <safe_lshift_func_int16_t_s_s+0x4d>
    54db:	0f b7 45 fc          	movzwl -0x4(%rbp),%eax
    54df:	5d                   	pop    %rbp
    54e0:	c3                   	retq   

00000000000054e1 <safe_lshift_func_int16_t_s_u>:
    54e1:	f3 0f 1e fa          	endbr64 
    54e5:	55                   	push   %rbp
    54e6:	48 89 e5             	mov    %rsp,%rbp
    54e9:	89 f8                	mov    %edi,%eax
    54eb:	89 75 f8             	mov    %esi,-0x8(%rbp)
    54ee:	66 89 45 fc          	mov    %ax,-0x4(%rbp)
    54f2:	66 83 7d fc 00       	cmpw   $0x0,-0x4(%rbp)
    54f7:	78 2b                	js     5524 <safe_lshift_func_int16_t_s_u+0x43>
    54f9:	83 7d f8 1f          	cmpl   $0x1f,-0x8(%rbp)
    54fd:	77 25                	ja     5524 <safe_lshift_func_int16_t_s_u+0x43>
    54ff:	0f bf 55 fc          	movswl -0x4(%rbp),%edx
    5503:	8b 45 f8             	mov    -0x8(%rbp),%eax
    5506:	be ff 7f 00 00       	mov    $0x7fff,%esi
    550b:	89 c1                	mov    %eax,%ecx
    550d:	d3 fe                	sar    %cl,%esi
    550f:	89 f0                	mov    %esi,%eax
    5511:	39 c2                	cmp    %eax,%edx
    5513:	7f 0f                	jg     5524 <safe_lshift_func_int16_t_s_u+0x43>
    5515:	0f bf 55 fc          	movswl -0x4(%rbp),%edx
    5519:	8b 45 f8             	mov    -0x8(%rbp),%eax
    551c:	89 c1                	mov    %eax,%ecx
    551e:	d3 e2                	shl    %cl,%edx
    5520:	89 d0                	mov    %edx,%eax
    5522:	eb 04                	jmp    5528 <safe_lshift_func_int16_t_s_u+0x47>
    5524:	0f b7 45 fc          	movzwl -0x4(%rbp),%eax
    5528:	5d                   	pop    %rbp
    5529:	c3                   	retq   

000000000000552a <safe_rshift_func_int16_t_s_s>:
    552a:	f3 0f 1e fa          	endbr64 
    552e:	55                   	push   %rbp
    552f:	48 89 e5             	mov    %rsp,%rbp
    5532:	89 f8                	mov    %edi,%eax
    5534:	89 75 f8             	mov    %esi,-0x8(%rbp)
    5537:	66 89 45 fc          	mov    %ax,-0x4(%rbp)
    553b:	66 83 7d fc 00       	cmpw   $0x0,-0x4(%rbp)
    5540:	78 1b                	js     555d <safe_rshift_func_int16_t_s_s+0x33>
    5542:	83 7d f8 00          	cmpl   $0x0,-0x8(%rbp)
    5546:	78 15                	js     555d <safe_rshift_func_int16_t_s_s+0x33>
    5548:	83 7d f8 1f          	cmpl   $0x1f,-0x8(%rbp)
    554c:	7f 0f                	jg     555d <safe_rshift_func_int16_t_s_s+0x33>
    554e:	0f bf 55 fc          	movswl -0x4(%rbp),%edx
    5552:	8b 45 f8             	mov    -0x8(%rbp),%eax
    5555:	89 c1                	mov    %eax,%ecx
    5557:	d3 fa                	sar    %cl,%edx
    5559:	89 d0                	mov    %edx,%eax
    555b:	eb 04                	jmp    5561 <safe_rshift_func_int16_t_s_s+0x37>
    555d:	0f b7 45 fc          	movzwl -0x4(%rbp),%eax
    5561:	5d                   	pop    %rbp
    5562:	c3                   	retq   

0000000000005563 <safe_rshift_func_int16_t_s_u>:
    5563:	f3 0f 1e fa          	endbr64 
    5567:	55                   	push   %rbp
    5568:	48 89 e5             	mov    %rsp,%rbp
    556b:	89 f8                	mov    %edi,%eax
    556d:	89 75 f8             	mov    %esi,-0x8(%rbp)
    5570:	66 89 45 fc          	mov    %ax,-0x4(%rbp)
    5574:	66 83 7d fc 00       	cmpw   $0x0,-0x4(%rbp)
    5579:	78 15                	js     5590 <safe_rshift_func_int16_t_s_u+0x2d>
    557b:	83 7d f8 1f          	cmpl   $0x1f,-0x8(%rbp)
    557f:	77 0f                	ja     5590 <safe_rshift_func_int16_t_s_u+0x2d>
    5581:	0f bf 55 fc          	movswl -0x4(%rbp),%edx
    5585:	8b 45 f8             	mov    -0x8(%rbp),%eax
    5588:	89 c1                	mov    %eax,%ecx
    558a:	d3 fa                	sar    %cl,%edx
    558c:	89 d0                	mov    %edx,%eax
    558e:	eb 04                	jmp    5594 <safe_rshift_func_int16_t_s_u+0x31>
    5590:	0f b7 45 fc          	movzwl -0x4(%rbp),%eax
    5594:	5d                   	pop    %rbp
    5595:	c3                   	retq   

0000000000005596 <safe_unary_minus_func_int32_t_s>:
    5596:	f3 0f 1e fa          	endbr64 
    559a:	55                   	push   %rbp
    559b:	48 89 e5             	mov    %rsp,%rbp
    559e:	89 7d fc             	mov    %edi,-0x4(%rbp)
    55a1:	81 7d fc 00 00 00 80 	cmpl   $0x80000000,-0x4(%rbp)
    55a8:	74 07                	je     55b1 <safe_unary_minus_func_int32_t_s+0x1b>
    55aa:	8b 45 fc             	mov    -0x4(%rbp),%eax
    55ad:	f7 d8                	neg    %eax
    55af:	eb 03                	jmp    55b4 <safe_unary_minus_func_int32_t_s+0x1e>
    55b1:	8b 45 fc             	mov    -0x4(%rbp),%eax
    55b4:	5d                   	pop    %rbp
    55b5:	c3                   	retq   

00000000000055b6 <safe_add_func_int32_t_s_s>:
    55b6:	f3 0f 1e fa          	endbr64 
    55ba:	55                   	push   %rbp
    55bb:	48 89 e5             	mov    %rsp,%rbp
    55be:	89 7d fc             	mov    %edi,-0x4(%rbp)
    55c1:	89 75 f8             	mov    %esi,-0x8(%rbp)
    55c4:	83 7d fc 00          	cmpl   $0x0,-0x4(%rbp)
    55c8:	7e 13                	jle    55dd <safe_add_func_int32_t_s_s+0x27>
    55ca:	83 7d f8 00          	cmpl   $0x0,-0x8(%rbp)
    55ce:	7e 0d                	jle    55dd <safe_add_func_int32_t_s_s+0x27>
    55d0:	b8 ff ff ff 7f       	mov    $0x7fffffff,%eax
    55d5:	2b 45 f8             	sub    -0x8(%rbp),%eax
    55d8:	39 45 fc             	cmp    %eax,-0x4(%rbp)
    55db:	7f 23                	jg     5600 <safe_add_func_int32_t_s_s+0x4a>
    55dd:	83 7d fc 00          	cmpl   $0x0,-0x4(%rbp)
    55e1:	79 13                	jns    55f6 <safe_add_func_int32_t_s_s+0x40>
    55e3:	83 7d f8 00          	cmpl   $0x0,-0x8(%rbp)
    55e7:	79 0d                	jns    55f6 <safe_add_func_int32_t_s_s+0x40>
    55e9:	b8 00 00 00 80       	mov    $0x80000000,%eax
    55ee:	2b 45 f8             	sub    -0x8(%rbp),%eax
    55f1:	39 45 fc             	cmp    %eax,-0x4(%rbp)
    55f4:	7c 0a                	jl     5600 <safe_add_func_int32_t_s_s+0x4a>
    55f6:	8b 55 fc             	mov    -0x4(%rbp),%edx
    55f9:	8b 45 f8             	mov    -0x8(%rbp),%eax
    55fc:	01 d0                	add    %edx,%eax
    55fe:	eb 03                	jmp    5603 <safe_add_func_int32_t_s_s+0x4d>
    5600:	8b 45 fc             	mov    -0x4(%rbp),%eax
    5603:	5d                   	pop    %rbp
    5604:	c3                   	retq   

0000000000005605 <safe_sub_func_int32_t_s_s>:
    5605:	f3 0f 1e fa          	endbr64 
    5609:	55                   	push   %rbp
    560a:	48 89 e5             	mov    %rsp,%rbp
    560d:	89 7d fc             	mov    %edi,-0x4(%rbp)
    5610:	89 75 f8             	mov    %esi,-0x8(%rbp)
    5613:	8b 45 fc             	mov    -0x4(%rbp),%eax
    5616:	33 45 f8             	xor    -0x8(%rbp),%eax
    5619:	89 c2                	mov    %eax,%edx
    561b:	8b 45 fc             	mov    -0x4(%rbp),%eax
    561e:	33 45 f8             	xor    -0x8(%rbp),%eax
    5621:	25 00 00 00 80       	and    $0x80000000,%eax
    5626:	33 45 fc             	xor    -0x4(%rbp),%eax
    5629:	2b 45 f8             	sub    -0x8(%rbp),%eax
    562c:	33 45 f8             	xor    -0x8(%rbp),%eax
    562f:	21 d0                	and    %edx,%eax
    5631:	85 c0                	test   %eax,%eax
    5633:	78 08                	js     563d <safe_sub_func_int32_t_s_s+0x38>
    5635:	8b 45 fc             	mov    -0x4(%rbp),%eax
    5638:	2b 45 f8             	sub    -0x8(%rbp),%eax
    563b:	eb 03                	jmp    5640 <safe_sub_func_int32_t_s_s+0x3b>
    563d:	8b 45 fc             	mov    -0x4(%rbp),%eax
    5640:	5d                   	pop    %rbp
    5641:	c3                   	retq   

0000000000005642 <safe_mul_func_int32_t_s_s>:
    5642:	f3 0f 1e fa          	endbr64 
    5646:	55                   	push   %rbp
    5647:	48 89 e5             	mov    %rsp,%rbp
    564a:	89 7d fc             	mov    %edi,-0x4(%rbp)
    564d:	89 75 f8             	mov    %esi,-0x8(%rbp)
    5650:	83 7d fc 00          	cmpl   $0x0,-0x4(%rbp)
    5654:	7e 14                	jle    566a <safe_mul_func_int32_t_s_s+0x28>
    5656:	83 7d f8 00          	cmpl   $0x0,-0x8(%rbp)
    565a:	7e 0e                	jle    566a <safe_mul_func_int32_t_s_s+0x28>
    565c:	b8 ff ff ff 7f       	mov    $0x7fffffff,%eax
    5661:	99                   	cltd   
    5662:	f7 7d f8             	idivl  -0x8(%rbp)
    5665:	39 45 fc             	cmp    %eax,-0x4(%rbp)
    5668:	7f 5d                	jg     56c7 <safe_mul_func_int32_t_s_s+0x85>
    566a:	83 7d fc 00          	cmpl   $0x0,-0x4(%rbp)
    566e:	7e 14                	jle    5684 <safe_mul_func_int32_t_s_s+0x42>
    5670:	83 7d f8 00          	cmpl   $0x0,-0x8(%rbp)
    5674:	7f 0e                	jg     5684 <safe_mul_func_int32_t_s_s+0x42>
    5676:	b8 00 00 00 80       	mov    $0x80000000,%eax
    567b:	99                   	cltd   
    567c:	f7 7d fc             	idivl  -0x4(%rbp)
    567f:	39 45 f8             	cmp    %eax,-0x8(%rbp)
    5682:	7c 43                	jl     56c7 <safe_mul_func_int32_t_s_s+0x85>
    5684:	83 7d fc 00          	cmpl   $0x0,-0x4(%rbp)
    5688:	7f 14                	jg     569e <safe_mul_func_int32_t_s_s+0x5c>
    568a:	83 7d f8 00          	cmpl   $0x0,-0x8(%rbp)
    568e:	7e 0e                	jle    569e <safe_mul_func_int32_t_s_s+0x5c>
    5690:	b8 00 00 00 80       	mov    $0x80000000,%eax
    5695:	99                   	cltd   
    5696:	f7 7d f8             	idivl  -0x8(%rbp)
    5699:	39 45 fc             	cmp    %eax,-0x4(%rbp)
    569c:	7c 29                	jl     56c7 <safe_mul_func_int32_t_s_s+0x85>
    569e:	83 7d fc 00          	cmpl   $0x0,-0x4(%rbp)
    56a2:	7f 1a                	jg     56be <safe_mul_func_int32_t_s_s+0x7c>
    56a4:	83 7d f8 00          	cmpl   $0x0,-0x8(%rbp)
    56a8:	7f 14                	jg     56be <safe_mul_func_int32_t_s_s+0x7c>
    56aa:	83 7d fc 00          	cmpl   $0x0,-0x4(%rbp)
    56ae:	74 0e                	je     56be <safe_mul_func_int32_t_s_s+0x7c>
    56b0:	b8 ff ff ff 7f       	mov    $0x7fffffff,%eax
    56b5:	99                   	cltd   
    56b6:	f7 7d fc             	idivl  -0x4(%rbp)
    56b9:	39 45 f8             	cmp    %eax,-0x8(%rbp)
    56bc:	7c 09                	jl     56c7 <safe_mul_func_int32_t_s_s+0x85>
    56be:	8b 45 fc             	mov    -0x4(%rbp),%eax
    56c1:	0f af 45 f8          	imul   -0x8(%rbp),%eax
    56c5:	eb 03                	jmp    56ca <safe_mul_func_int32_t_s_s+0x88>
    56c7:	8b 45 fc             	mov    -0x4(%rbp),%eax
    56ca:	5d                   	pop    %rbp
    56cb:	c3                   	retq   

00000000000056cc <safe_mod_func_int32_t_s_s>:
    56cc:	f3 0f 1e fa          	endbr64 
    56d0:	55                   	push   %rbp
    56d1:	48 89 e5             	mov    %rsp,%rbp
    56d4:	89 7d fc             	mov    %edi,-0x4(%rbp)
    56d7:	89 75 f8             	mov    %esi,-0x8(%rbp)
    56da:	83 7d f8 00          	cmpl   $0x0,-0x8(%rbp)
    56de:	74 1a                	je     56fa <safe_mod_func_int32_t_s_s+0x2e>
    56e0:	81 7d fc 00 00 00 80 	cmpl   $0x80000000,-0x4(%rbp)
    56e7:	75 06                	jne    56ef <safe_mod_func_int32_t_s_s+0x23>
    56e9:	83 7d f8 ff          	cmpl   $0xffffffff,-0x8(%rbp)
    56ed:	74 0b                	je     56fa <safe_mod_func_int32_t_s_s+0x2e>
    56ef:	8b 45 fc             	mov    -0x4(%rbp),%eax
    56f2:	99                   	cltd   
    56f3:	f7 7d f8             	idivl  -0x8(%rbp)
    56f6:	89 d0                	mov    %edx,%eax
    56f8:	eb 03                	jmp    56fd <safe_mod_func_int32_t_s_s+0x31>
    56fa:	8b 45 fc             	mov    -0x4(%rbp),%eax
    56fd:	5d                   	pop    %rbp
    56fe:	c3                   	retq   

00000000000056ff <safe_div_func_int32_t_s_s>:
    56ff:	f3 0f 1e fa          	endbr64 
    5703:	55                   	push   %rbp
    5704:	48 89 e5             	mov    %rsp,%rbp
    5707:	89 7d fc             	mov    %edi,-0x4(%rbp)
    570a:	89 75 f8             	mov    %esi,-0x8(%rbp)
    570d:	83 7d f8 00          	cmpl   $0x0,-0x8(%rbp)
    5711:	74 18                	je     572b <safe_div_func_int32_t_s_s+0x2c>
    5713:	81 7d fc 00 00 00 80 	cmpl   $0x80000000,-0x4(%rbp)
    571a:	75 06                	jne    5722 <safe_div_func_int32_t_s_s+0x23>
    571c:	83 7d f8 ff          	cmpl   $0xffffffff,-0x8(%rbp)
    5720:	74 09                	je     572b <safe_div_func_int32_t_s_s+0x2c>
    5722:	8b 45 fc             	mov    -0x4(%rbp),%eax
    5725:	99                   	cltd   
    5726:	f7 7d f8             	idivl  -0x8(%rbp)
    5729:	eb 03                	jmp    572e <safe_div_func_int32_t_s_s+0x2f>
    572b:	8b 45 fc             	mov    -0x4(%rbp),%eax
    572e:	5d                   	pop    %rbp
    572f:	c3                   	retq   

0000000000005730 <safe_lshift_func_int32_t_s_s>:
    5730:	f3 0f 1e fa          	endbr64 
    5734:	55                   	push   %rbp
    5735:	48 89 e5             	mov    %rsp,%rbp
    5738:	89 7d fc             	mov    %edi,-0x4(%rbp)
    573b:	89 75 f8             	mov    %esi,-0x8(%rbp)
    573e:	83 7d fc 00          	cmpl   $0x0,-0x4(%rbp)
    5742:	78 2d                	js     5771 <safe_lshift_func_int32_t_s_s+0x41>
    5744:	83 7d f8 00          	cmpl   $0x0,-0x8(%rbp)
    5748:	78 27                	js     5771 <safe_lshift_func_int32_t_s_s+0x41>
    574a:	83 7d f8 1f          	cmpl   $0x1f,-0x8(%rbp)
    574e:	7f 21                	jg     5771 <safe_lshift_func_int32_t_s_s+0x41>
    5750:	8b 45 f8             	mov    -0x8(%rbp),%eax
    5753:	ba ff ff ff 7f       	mov    $0x7fffffff,%edx
    5758:	89 c1                	mov    %eax,%ecx
    575a:	d3 fa                	sar    %cl,%edx
    575c:	89 d0                	mov    %edx,%eax
    575e:	39 45 fc             	cmp    %eax,-0x4(%rbp)
    5761:	7f 0e                	jg     5771 <safe_lshift_func_int32_t_s_s+0x41>
    5763:	8b 45 f8             	mov    -0x8(%rbp),%eax
    5766:	8b 55 fc             	mov    -0x4(%rbp),%edx
    5769:	89 c1                	mov    %eax,%ecx
    576b:	d3 e2                	shl    %cl,%edx
    576d:	89 d0                	mov    %edx,%eax
    576f:	eb 03                	jmp    5774 <safe_lshift_func_int32_t_s_s+0x44>
    5771:	8b 45 fc             	mov    -0x4(%rbp),%eax
    5774:	5d                   	pop    %rbp
    5775:	c3                   	retq   

0000000000005776 <safe_lshift_func_int32_t_s_u>:
    5776:	f3 0f 1e fa          	endbr64 
    577a:	55                   	push   %rbp
    577b:	48 89 e5             	mov    %rsp,%rbp
    577e:	89 7d fc             	mov    %edi,-0x4(%rbp)
    5781:	89 75 f8             	mov    %esi,-0x8(%rbp)
    5784:	83 7d fc 00          	cmpl   $0x0,-0x4(%rbp)
    5788:	78 27                	js     57b1 <safe_lshift_func_int32_t_s_u+0x3b>
    578a:	83 7d f8 1f          	cmpl   $0x1f,-0x8(%rbp)
    578e:	77 21                	ja     57b1 <safe_lshift_func_int32_t_s_u+0x3b>
    5790:	8b 45 f8             	mov    -0x8(%rbp),%eax
    5793:	ba ff ff ff 7f       	mov    $0x7fffffff,%edx
    5798:	89 c1                	mov    %eax,%ecx
    579a:	d3 fa                	sar    %cl,%edx
    579c:	89 d0                	mov    %edx,%eax
    579e:	39 45 fc             	cmp    %eax,-0x4(%rbp)
    57a1:	7f 0e                	jg     57b1 <safe_lshift_func_int32_t_s_u+0x3b>
    57a3:	8b 45 f8             	mov    -0x8(%rbp),%eax
    57a6:	8b 55 fc             	mov    -0x4(%rbp),%edx
    57a9:	89 c1                	mov    %eax,%ecx
    57ab:	d3 e2                	shl    %cl,%edx
    57ad:	89 d0                	mov    %edx,%eax
    57af:	eb 03                	jmp    57b4 <safe_lshift_func_int32_t_s_u+0x3e>
    57b1:	8b 45 fc             	mov    -0x4(%rbp),%eax
    57b4:	5d                   	pop    %rbp
    57b5:	c3                   	retq   

00000000000057b6 <safe_rshift_func_int32_t_s_s>:
    57b6:	f3 0f 1e fa          	endbr64 
    57ba:	55                   	push   %rbp
    57bb:	48 89 e5             	mov    %rsp,%rbp
    57be:	89 7d fc             	mov    %edi,-0x4(%rbp)
    57c1:	89 75 f8             	mov    %esi,-0x8(%rbp)
    57c4:	83 7d fc 00          	cmpl   $0x0,-0x4(%rbp)
    57c8:	78 1a                	js     57e4 <safe_rshift_func_int32_t_s_s+0x2e>
    57ca:	83 7d f8 00          	cmpl   $0x0,-0x8(%rbp)
    57ce:	78 14                	js     57e4 <safe_rshift_func_int32_t_s_s+0x2e>
    57d0:	83 7d f8 1f          	cmpl   $0x1f,-0x8(%rbp)
    57d4:	7f 0e                	jg     57e4 <safe_rshift_func_int32_t_s_s+0x2e>
    57d6:	8b 45 f8             	mov    -0x8(%rbp),%eax
    57d9:	8b 55 fc             	mov    -0x4(%rbp),%edx
    57dc:	89 c1                	mov    %eax,%ecx
    57de:	d3 fa                	sar    %cl,%edx
    57e0:	89 d0                	mov    %edx,%eax
    57e2:	eb 03                	jmp    57e7 <safe_rshift_func_int32_t_s_s+0x31>
    57e4:	8b 45 fc             	mov    -0x4(%rbp),%eax
    57e7:	5d                   	pop    %rbp
    57e8:	c3                   	retq   

00000000000057e9 <safe_rshift_func_int32_t_s_u>:
    57e9:	f3 0f 1e fa          	endbr64 
    57ed:	55                   	push   %rbp
    57ee:	48 89 e5             	mov    %rsp,%rbp
    57f1:	89 7d fc             	mov    %edi,-0x4(%rbp)
    57f4:	89 75 f8             	mov    %esi,-0x8(%rbp)
    57f7:	83 7d fc 00          	cmpl   $0x0,-0x4(%rbp)
    57fb:	78 14                	js     5811 <safe_rshift_func_int32_t_s_u+0x28>
    57fd:	83 7d f8 1f          	cmpl   $0x1f,-0x8(%rbp)
    5801:	77 0e                	ja     5811 <safe_rshift_func_int32_t_s_u+0x28>
    5803:	8b 45 f8             	mov    -0x8(%rbp),%eax
    5806:	8b 55 fc             	mov    -0x4(%rbp),%edx
    5809:	89 c1                	mov    %eax,%ecx
    580b:	d3 fa                	sar    %cl,%edx
    580d:	89 d0                	mov    %edx,%eax
    580f:	eb 03                	jmp    5814 <safe_rshift_func_int32_t_s_u+0x2b>
    5811:	8b 45 fc             	mov    -0x4(%rbp),%eax
    5814:	5d                   	pop    %rbp
    5815:	c3                   	retq   

0000000000005816 <safe_unary_minus_func_int64_t_s>:
    5816:	f3 0f 1e fa          	endbr64 
    581a:	55                   	push   %rbp
    581b:	48 89 e5             	mov    %rsp,%rbp
    581e:	48 89 7d f8          	mov    %rdi,-0x8(%rbp)
    5822:	48 b8 00 00 00 00 00 	movabs $0x8000000000000000,%rax
    5829:	00 00 80 
    582c:	48 39 45 f8          	cmp    %rax,-0x8(%rbp)
    5830:	74 09                	je     583b <safe_unary_minus_func_int64_t_s+0x25>
    5832:	48 8b 45 f8          	mov    -0x8(%rbp),%rax
    5836:	48 f7 d8             	neg    %rax
    5839:	eb 04                	jmp    583f <safe_unary_minus_func_int64_t_s+0x29>
    583b:	48 8b 45 f8          	mov    -0x8(%rbp),%rax
    583f:	5d                   	pop    %rbp
    5840:	c3                   	retq   

0000000000005841 <safe_add_func_int64_t_s_s>:
    5841:	f3 0f 1e fa          	endbr64 
    5845:	55                   	push   %rbp
    5846:	48 89 e5             	mov    %rsp,%rbp
    5849:	48 89 7d f8          	mov    %rdi,-0x8(%rbp)
    584d:	48 89 75 f0          	mov    %rsi,-0x10(%rbp)
    5851:	48 83 7d f8 00       	cmpq   $0x0,-0x8(%rbp)
    5856:	7e 1b                	jle    5873 <safe_add_func_int64_t_s_s+0x32>
    5858:	48 83 7d f0 00       	cmpq   $0x0,-0x10(%rbp)
    585d:	7e 14                	jle    5873 <safe_add_func_int64_t_s_s+0x32>
    585f:	48 b8 ff ff ff ff ff 	movabs $0x7fffffffffffffff,%rax
    5866:	ff ff 7f 
    5869:	48 2b 45 f0          	sub    -0x10(%rbp),%rax
    586d:	48 39 45 f8          	cmp    %rax,-0x8(%rbp)
    5871:	7f 2f                	jg     58a2 <safe_add_func_int64_t_s_s+0x61>
    5873:	48 83 7d f8 00       	cmpq   $0x0,-0x8(%rbp)
    5878:	79 1b                	jns    5895 <safe_add_func_int64_t_s_s+0x54>
    587a:	48 83 7d f0 00       	cmpq   $0x0,-0x10(%rbp)
    587f:	79 14                	jns    5895 <safe_add_func_int64_t_s_s+0x54>
    5881:	48 b8 00 00 00 00 00 	movabs $0x8000000000000000,%rax
    5888:	00 00 80 
    588b:	48 2b 45 f0          	sub    -0x10(%rbp),%rax
    588f:	48 39 45 f8          	cmp    %rax,-0x8(%rbp)
    5893:	7c 0d                	jl     58a2 <safe_add_func_int64_t_s_s+0x61>
    5895:	48 8b 55 f8          	mov    -0x8(%rbp),%rdx
    5899:	48 8b 45 f0          	mov    -0x10(%rbp),%rax
    589d:	48 01 d0             	add    %rdx,%rax
    58a0:	eb 04                	jmp    58a6 <safe_add_func_int64_t_s_s+0x65>
    58a2:	48 8b 45 f8          	mov    -0x8(%rbp),%rax
    58a6:	5d                   	pop    %rbp
    58a7:	c3                   	retq   

00000000000058a8 <safe_sub_func_int64_t_s_s>:
    58a8:	f3 0f 1e fa          	endbr64 
    58ac:	55                   	push   %rbp
    58ad:	48 89 e5             	mov    %rsp,%rbp
    58b0:	48 89 7d f8          	mov    %rdi,-0x8(%rbp)
    58b4:	48 89 75 f0          	mov    %rsi,-0x10(%rbp)
    58b8:	48 8b 45 f8          	mov    -0x8(%rbp),%rax
    58bc:	48 33 45 f0          	xor    -0x10(%rbp),%rax
    58c0:	48 89 c2             	mov    %rax,%rdx
    58c3:	48 8b 45 f8          	mov    -0x8(%rbp),%rax
    58c7:	48 33 45 f0          	xor    -0x10(%rbp),%rax
    58cb:	48 b9 00 00 00 00 00 	movabs $0x8000000000000000,%rcx
    58d2:	00 00 80 
    58d5:	48 21 c8             	and    %rcx,%rax
    58d8:	48 33 45 f8          	xor    -0x8(%rbp),%rax
    58dc:	48 2b 45 f0          	sub    -0x10(%rbp),%rax
    58e0:	48 33 45 f0          	xor    -0x10(%rbp),%rax
    58e4:	48 21 d0             	and    %rdx,%rax
    58e7:	48 85 c0             	test   %rax,%rax
    58ea:	78 0a                	js     58f6 <safe_sub_func_int64_t_s_s+0x4e>
    58ec:	48 8b 45 f8          	mov    -0x8(%rbp),%rax
    58f0:	48 2b 45 f0          	sub    -0x10(%rbp),%rax
    58f4:	eb 04                	jmp    58fa <safe_sub_func_int64_t_s_s+0x52>
    58f6:	48 8b 45 f8          	mov    -0x8(%rbp),%rax
    58fa:	5d                   	pop    %rbp
    58fb:	c3                   	retq   

00000000000058fc <safe_mul_func_int64_t_s_s>:
    58fc:	f3 0f 1e fa          	endbr64 
    5900:	55                   	push   %rbp
    5901:	48 89 e5             	mov    %rsp,%rbp
    5904:	48 89 7d f8          	mov    %rdi,-0x8(%rbp)
    5908:	48 89 75 f0          	mov    %rsi,-0x10(%rbp)
    590c:	48 83 7d f8 00       	cmpq   $0x0,-0x8(%rbp)
    5911:	7e 1d                	jle    5930 <safe_mul_func_int64_t_s_s+0x34>
    5913:	48 83 7d f0 00       	cmpq   $0x0,-0x10(%rbp)
    5918:	7e 16                	jle    5930 <safe_mul_func_int64_t_s_s+0x34>
    591a:	48 b8 ff ff ff ff ff 	movabs $0x7fffffffffffffff,%rax
    5921:	ff ff 7f 
    5924:	48 99                	cqto   
    5926:	48 f7 7d f0          	idivq  -0x10(%rbp)
    592a:	48 39 45 f8          	cmp    %rax,-0x8(%rbp)
    592e:	7f 7e                	jg     59ae <safe_mul_func_int64_t_s_s+0xb2>
    5930:	48 83 7d f8 00       	cmpq   $0x0,-0x8(%rbp)
    5935:	7e 1d                	jle    5954 <safe_mul_func_int64_t_s_s+0x58>
    5937:	48 83 7d f0 00       	cmpq   $0x0,-0x10(%rbp)
    593c:	7f 16                	jg     5954 <safe_mul_func_int64_t_s_s+0x58>
    593e:	48 b8 00 00 00 00 00 	movabs $0x8000000000000000,%rax
    5945:	00 00 80 
    5948:	48 99                	cqto   
    594a:	48 f7 7d f8          	idivq  -0x8(%rbp)
    594e:	48 39 45 f0          	cmp    %rax,-0x10(%rbp)
    5952:	7c 5a                	jl     59ae <safe_mul_func_int64_t_s_s+0xb2>
    5954:	48 83 7d f8 00       	cmpq   $0x0,-0x8(%rbp)
    5959:	7f 1d                	jg     5978 <safe_mul_func_int64_t_s_s+0x7c>
    595b:	48 83 7d f0 00       	cmpq   $0x0,-0x10(%rbp)
    5960:	7e 16                	jle    5978 <safe_mul_func_int64_t_s_s+0x7c>
    5962:	48 b8 00 00 00 00 00 	movabs $0x8000000000000000,%rax
    5969:	00 00 80 
    596c:	48 99                	cqto   
    596e:	48 f7 7d f0          	idivq  -0x10(%rbp)
    5972:	48 39 45 f8          	cmp    %rax,-0x8(%rbp)
    5976:	7c 36                	jl     59ae <safe_mul_func_int64_t_s_s+0xb2>
    5978:	48 83 7d f8 00       	cmpq   $0x0,-0x8(%rbp)
    597d:	7f 24                	jg     59a3 <safe_mul_func_int64_t_s_s+0xa7>
    597f:	48 83 7d f0 00       	cmpq   $0x0,-0x10(%rbp)
    5984:	7f 1d                	jg     59a3 <safe_mul_func_int64_t_s_s+0xa7>
    5986:	48 83 7d f8 00       	cmpq   $0x0,-0x8(%rbp)
    598b:	74 16                	je     59a3 <safe_mul_func_int64_t_s_s+0xa7>
    598d:	48 b8 ff ff ff ff ff 	movabs $0x7fffffffffffffff,%rax
    5994:	ff ff 7f 
    5997:	48 99                	cqto   
    5999:	48 f7 7d f8          	idivq  -0x8(%rbp)
    599d:	48 39 45 f0          	cmp    %rax,-0x10(%rbp)
    59a1:	7c 0b                	jl     59ae <safe_mul_func_int64_t_s_s+0xb2>
    59a3:	48 8b 45 f8          	mov    -0x8(%rbp),%rax
    59a7:	48 0f af 45 f0       	imul   -0x10(%rbp),%rax
    59ac:	eb 04                	jmp    59b2 <safe_mul_func_int64_t_s_s+0xb6>
    59ae:	48 8b 45 f8          	mov    -0x8(%rbp),%rax
    59b2:	5d                   	pop    %rbp
    59b3:	c3                   	retq   

00000000000059b4 <safe_mod_func_int64_t_s_s>:
    59b4:	f3 0f 1e fa          	endbr64 
    59b8:	55                   	push   %rbp
    59b9:	48 89 e5             	mov    %rsp,%rbp
    59bc:	48 89 7d f8          	mov    %rdi,-0x8(%rbp)
    59c0:	48 89 75 f0          	mov    %rsi,-0x10(%rbp)
    59c4:	48 83 7d f0 00       	cmpq   $0x0,-0x10(%rbp)
    59c9:	74 26                	je     59f1 <safe_mod_func_int64_t_s_s+0x3d>
    59cb:	48 b8 00 00 00 00 00 	movabs $0x8000000000000000,%rax
    59d2:	00 00 80 
    59d5:	48 39 45 f8          	cmp    %rax,-0x8(%rbp)
    59d9:	75 07                	jne    59e2 <safe_mod_func_int64_t_s_s+0x2e>
    59db:	48 83 7d f0 ff       	cmpq   $0xffffffffffffffff,-0x10(%rbp)
    59e0:	74 0f                	je     59f1 <safe_mod_func_int64_t_s_s+0x3d>
    59e2:	48 8b 45 f8          	mov    -0x8(%rbp),%rax
    59e6:	48 99                	cqto   
    59e8:	48 f7 7d f0          	idivq  -0x10(%rbp)
    59ec:	48 89 d0             	mov    %rdx,%rax
    59ef:	eb 04                	jmp    59f5 <safe_mod_func_int64_t_s_s+0x41>
    59f1:	48 8b 45 f8          	mov    -0x8(%rbp),%rax
    59f5:	5d                   	pop    %rbp
    59f6:	c3                   	retq   

00000000000059f7 <safe_div_func_int64_t_s_s>:
    59f7:	f3 0f 1e fa          	endbr64 
    59fb:	55                   	push   %rbp
    59fc:	48 89 e5             	mov    %rsp,%rbp
    59ff:	48 89 7d f8          	mov    %rdi,-0x8(%rbp)
    5a03:	48 89 75 f0          	mov    %rsi,-0x10(%rbp)
    5a07:	48 83 7d f0 00       	cmpq   $0x0,-0x10(%rbp)
    5a0c:	74 23                	je     5a31 <safe_div_func_int64_t_s_s+0x3a>
    5a0e:	48 b8 00 00 00 00 00 	movabs $0x8000000000000000,%rax
    5a15:	00 00 80 
    5a18:	48 39 45 f8          	cmp    %rax,-0x8(%rbp)
    5a1c:	75 07                	jne    5a25 <safe_div_func_int64_t_s_s+0x2e>
    5a1e:	48 83 7d f0 ff       	cmpq   $0xffffffffffffffff,-0x10(%rbp)
    5a23:	74 0c                	je     5a31 <safe_div_func_int64_t_s_s+0x3a>
    5a25:	48 8b 45 f8          	mov    -0x8(%rbp),%rax
    5a29:	48 99                	cqto   
    5a2b:	48 f7 7d f0          	idivq  -0x10(%rbp)
    5a2f:	eb 04                	jmp    5a35 <safe_div_func_int64_t_s_s+0x3e>
    5a31:	48 8b 45 f8          	mov    -0x8(%rbp),%rax
    5a35:	5d                   	pop    %rbp
    5a36:	c3                   	retq   

0000000000005a37 <safe_lshift_func_int64_t_s_s>:
    5a37:	f3 0f 1e fa          	endbr64 
    5a3b:	55                   	push   %rbp
    5a3c:	48 89 e5             	mov    %rsp,%rbp
    5a3f:	48 89 7d f8          	mov    %rdi,-0x8(%rbp)
    5a43:	89 75 f4             	mov    %esi,-0xc(%rbp)
    5a46:	48 83 7d f8 00       	cmpq   $0x0,-0x8(%rbp)
    5a4b:	78 38                	js     5a85 <safe_lshift_func_int64_t_s_s+0x4e>
    5a4d:	83 7d f4 00          	cmpl   $0x0,-0xc(%rbp)
    5a51:	78 32                	js     5a85 <safe_lshift_func_int64_t_s_s+0x4e>
    5a53:	83 7d f4 1f          	cmpl   $0x1f,-0xc(%rbp)
    5a57:	7f 2c                	jg     5a85 <safe_lshift_func_int64_t_s_s+0x4e>
    5a59:	8b 45 f4             	mov    -0xc(%rbp),%eax
    5a5c:	48 ba ff ff ff ff ff 	movabs $0x7fffffffffffffff,%rdx
    5a63:	ff ff 7f 
    5a66:	89 c1                	mov    %eax,%ecx
    5a68:	48 d3 fa             	sar    %cl,%rdx
    5a6b:	48 89 d0             	mov    %rdx,%rax
    5a6e:	48 39 45 f8          	cmp    %rax,-0x8(%rbp)
    5a72:	7f 11                	jg     5a85 <safe_lshift_func_int64_t_s_s+0x4e>
    5a74:	8b 45 f4             	mov    -0xc(%rbp),%eax
    5a77:	48 8b 55 f8          	mov    -0x8(%rbp),%rdx
    5a7b:	89 c1                	mov    %eax,%ecx
    5a7d:	48 d3 e2             	shl    %cl,%rdx
    5a80:	48 89 d0             	mov    %rdx,%rax
    5a83:	eb 04                	jmp    5a89 <safe_lshift_func_int64_t_s_s+0x52>
    5a85:	48 8b 45 f8          	mov    -0x8(%rbp),%rax
    5a89:	5d                   	pop    %rbp
    5a8a:	c3                   	retq   

0000000000005a8b <safe_lshift_func_int64_t_s_u>:
    5a8b:	f3 0f 1e fa          	endbr64 
    5a8f:	55                   	push   %rbp
    5a90:	48 89 e5             	mov    %rsp,%rbp
    5a93:	48 89 7d f8          	mov    %rdi,-0x8(%rbp)
    5a97:	89 75 f4             	mov    %esi,-0xc(%rbp)
    5a9a:	48 83 7d f8 00       	cmpq   $0x0,-0x8(%rbp)
    5a9f:	78 32                	js     5ad3 <safe_lshift_func_int64_t_s_u+0x48>
    5aa1:	83 7d f4 1f          	cmpl   $0x1f,-0xc(%rbp)
    5aa5:	77 2c                	ja     5ad3 <safe_lshift_func_int64_t_s_u+0x48>
    5aa7:	8b 45 f4             	mov    -0xc(%rbp),%eax
    5aaa:	48 ba ff ff ff ff ff 	movabs $0x7fffffffffffffff,%rdx
    5ab1:	ff ff 7f 
    5ab4:	89 c1                	mov    %eax,%ecx
    5ab6:	48 d3 fa             	sar    %cl,%rdx
    5ab9:	48 89 d0             	mov    %rdx,%rax
    5abc:	48 39 45 f8          	cmp    %rax,-0x8(%rbp)
    5ac0:	7f 11                	jg     5ad3 <safe_lshift_func_int64_t_s_u+0x48>
    5ac2:	8b 45 f4             	mov    -0xc(%rbp),%eax
    5ac5:	48 8b 55 f8          	mov    -0x8(%rbp),%rdx
    5ac9:	89 c1                	mov    %eax,%ecx
    5acb:	48 d3 e2             	shl    %cl,%rdx
    5ace:	48 89 d0             	mov    %rdx,%rax
    5ad1:	eb 04                	jmp    5ad7 <safe_lshift_func_int64_t_s_u+0x4c>
    5ad3:	48 8b 45 f8          	mov    -0x8(%rbp),%rax
    5ad7:	5d                   	pop    %rbp
    5ad8:	c3                   	retq   

0000000000005ad9 <safe_rshift_func_int64_t_s_s>:
    5ad9:	f3 0f 1e fa          	endbr64 
    5add:	55                   	push   %rbp
    5ade:	48 89 e5             	mov    %rsp,%rbp
    5ae1:	48 89 7d f8          	mov    %rdi,-0x8(%rbp)
    5ae5:	89 75 f4             	mov    %esi,-0xc(%rbp)
    5ae8:	48 83 7d f8 00       	cmpq   $0x0,-0x8(%rbp)
    5aed:	78 1d                	js     5b0c <safe_rshift_func_int64_t_s_s+0x33>
    5aef:	83 7d f4 00          	cmpl   $0x0,-0xc(%rbp)
    5af3:	78 17                	js     5b0c <safe_rshift_func_int64_t_s_s+0x33>
    5af5:	83 7d f4 1f          	cmpl   $0x1f,-0xc(%rbp)
    5af9:	7f 11                	jg     5b0c <safe_rshift_func_int64_t_s_s+0x33>
    5afb:	8b 45 f4             	mov    -0xc(%rbp),%eax
    5afe:	48 8b 55 f8          	mov    -0x8(%rbp),%rdx
    5b02:	89 c1                	mov    %eax,%ecx
    5b04:	48 d3 fa             	sar    %cl,%rdx
    5b07:	48 89 d0             	mov    %rdx,%rax
    5b0a:	eb 04                	jmp    5b10 <safe_rshift_func_int64_t_s_s+0x37>
    5b0c:	48 8b 45 f8          	mov    -0x8(%rbp),%rax
    5b10:	5d                   	pop    %rbp
    5b11:	c3                   	retq   

0000000000005b12 <safe_rshift_func_int64_t_s_u>:
    5b12:	f3 0f 1e fa          	endbr64 
    5b16:	55                   	push   %rbp
    5b17:	48 89 e5             	mov    %rsp,%rbp
    5b1a:	48 89 7d f8          	mov    %rdi,-0x8(%rbp)
    5b1e:	89 75 f4             	mov    %esi,-0xc(%rbp)
    5b21:	48 83 7d f8 00       	cmpq   $0x0,-0x8(%rbp)
    5b26:	78 17                	js     5b3f <safe_rshift_func_int64_t_s_u+0x2d>
    5b28:	83 7d f4 1f          	cmpl   $0x1f,-0xc(%rbp)
    5b2c:	77 11                	ja     5b3f <safe_rshift_func_int64_t_s_u+0x2d>
    5b2e:	8b 45 f4             	mov    -0xc(%rbp),%eax
    5b31:	48 8b 55 f8          	mov    -0x8(%rbp),%rdx
    5b35:	89 c1                	mov    %eax,%ecx
    5b37:	48 d3 fa             	sar    %cl,%rdx
    5b3a:	48 89 d0             	mov    %rdx,%rax
    5b3d:	eb 04                	jmp    5b43 <safe_rshift_func_int64_t_s_u+0x31>
    5b3f:	48 8b 45 f8          	mov    -0x8(%rbp),%rax
    5b43:	5d                   	pop    %rbp
    5b44:	c3                   	retq   

0000000000005b45 <safe_unary_minus_func_uint8_t_u>:
    5b45:	f3 0f 1e fa          	endbr64 
    5b49:	55                   	push   %rbp
    5b4a:	48 89 e5             	mov    %rsp,%rbp
    5b4d:	89 f8                	mov    %edi,%eax
    5b4f:	88 45 fc             	mov    %al,-0x4(%rbp)
    5b52:	0f b6 45 fc          	movzbl -0x4(%rbp),%eax
    5b56:	f7 d8                	neg    %eax
    5b58:	5d                   	pop    %rbp
    5b59:	c3                   	retq   

0000000000005b5a <safe_add_func_uint8_t_u_u>:
    5b5a:	f3 0f 1e fa          	endbr64 
    5b5e:	55                   	push   %rbp
    5b5f:	48 89 e5             	mov    %rsp,%rbp
    5b62:	89 fa                	mov    %edi,%edx
    5b64:	89 f0                	mov    %esi,%eax
    5b66:	88 55 fc             	mov    %dl,-0x4(%rbp)
    5b69:	88 45 f8             	mov    %al,-0x8(%rbp)
    5b6c:	0f b6 55 fc          	movzbl -0x4(%rbp),%edx
    5b70:	0f b6 45 f8          	movzbl -0x8(%rbp),%eax
    5b74:	01 d0                	add    %edx,%eax
    5b76:	5d                   	pop    %rbp
    5b77:	c3                   	retq   

0000000000005b78 <safe_sub_func_uint8_t_u_u>:
    5b78:	f3 0f 1e fa          	endbr64 
    5b7c:	55                   	push   %rbp
    5b7d:	48 89 e5             	mov    %rsp,%rbp
    5b80:	89 fa                	mov    %edi,%edx
    5b82:	89 f0                	mov    %esi,%eax
    5b84:	88 55 fc             	mov    %dl,-0x4(%rbp)
    5b87:	88 45 f8             	mov    %al,-0x8(%rbp)
    5b8a:	0f b6 45 fc          	movzbl -0x4(%rbp),%eax
    5b8e:	2a 45 f8             	sub    -0x8(%rbp),%al
    5b91:	5d                   	pop    %rbp
    5b92:	c3                   	retq   

0000000000005b93 <safe_mul_func_uint8_t_u_u>:
    5b93:	f3 0f 1e fa          	endbr64 
    5b97:	55                   	push   %rbp
    5b98:	48 89 e5             	mov    %rsp,%rbp
    5b9b:	89 fa                	mov    %edi,%edx
    5b9d:	89 f0                	mov    %esi,%eax
    5b9f:	88 55 fc             	mov    %dl,-0x4(%rbp)
    5ba2:	88 45 f8             	mov    %al,-0x8(%rbp)
    5ba5:	0f b6 45 fc          	movzbl -0x4(%rbp),%eax
    5ba9:	f6 65 f8             	mulb   -0x8(%rbp)
    5bac:	5d                   	pop    %rbp
    5bad:	c3                   	retq   

0000000000005bae <safe_mod_func_uint8_t_u_u>:
    5bae:	f3 0f 1e fa          	endbr64 
    5bb2:	55                   	push   %rbp
    5bb3:	48 89 e5             	mov    %rsp,%rbp
    5bb6:	89 fa                	mov    %edi,%edx
    5bb8:	89 f0                	mov    %esi,%eax
    5bba:	88 55 fc             	mov    %dl,-0x4(%rbp)
    5bbd:	88 45 f8             	mov    %al,-0x8(%rbp)
    5bc0:	80 7d f8 00          	cmpb   $0x0,-0x8(%rbp)
    5bc4:	74 0f                	je     5bd5 <safe_mod_func_uint8_t_u_u+0x27>
    5bc6:	0f b6 45 fc          	movzbl -0x4(%rbp),%eax
    5bca:	0f b6 c0             	movzbl %al,%eax
    5bcd:	f6 75 f8             	divb   -0x8(%rbp)
    5bd0:	0f b6 c4             	movzbl %ah,%eax
    5bd3:	eb 04                	jmp    5bd9 <safe_mod_func_uint8_t_u_u+0x2b>
    5bd5:	0f b6 45 fc          	movzbl -0x4(%rbp),%eax
    5bd9:	5d                   	pop    %rbp
    5bda:	c3                   	retq   

0000000000005bdb <safe_div_func_uint8_t_u_u>:
    5bdb:	f3 0f 1e fa          	endbr64 
    5bdf:	55                   	push   %rbp
    5be0:	48 89 e5             	mov    %rsp,%rbp
    5be3:	89 fa                	mov    %edi,%edx
    5be5:	89 f0                	mov    %esi,%eax
    5be7:	88 55 fc             	mov    %dl,-0x4(%rbp)
    5bea:	88 45 f8             	mov    %al,-0x8(%rbp)
    5bed:	80 7d f8 00          	cmpb   $0x0,-0x8(%rbp)
    5bf1:	74 0c                	je     5bff <safe_div_func_uint8_t_u_u+0x24>
    5bf3:	0f b6 45 fc          	movzbl -0x4(%rbp),%eax
    5bf7:	0f b6 c0             	movzbl %al,%eax
    5bfa:	f6 75 f8             	divb   -0x8(%rbp)
    5bfd:	eb 04                	jmp    5c03 <safe_div_func_uint8_t_u_u+0x28>
    5bff:	0f b6 45 fc          	movzbl -0x4(%rbp),%eax
    5c03:	5d                   	pop    %rbp
    5c04:	c3                   	retq   

0000000000005c05 <safe_lshift_func_uint8_t_u_s>:
    5c05:	f3 0f 1e fa          	endbr64 
    5c09:	55                   	push   %rbp
    5c0a:	48 89 e5             	mov    %rsp,%rbp
    5c0d:	89 f8                	mov    %edi,%eax
    5c0f:	89 75 f8             	mov    %esi,-0x8(%rbp)
    5c12:	88 45 fc             	mov    %al,-0x4(%rbp)
    5c15:	83 7d f8 00          	cmpl   $0x0,-0x8(%rbp)
    5c19:	78 2b                	js     5c46 <safe_lshift_func_uint8_t_u_s+0x41>
    5c1b:	83 7d f8 1f          	cmpl   $0x1f,-0x8(%rbp)
    5c1f:	7f 25                	jg     5c46 <safe_lshift_func_uint8_t_u_s+0x41>
    5c21:	0f b6 55 fc          	movzbl -0x4(%rbp),%edx
    5c25:	8b 45 f8             	mov    -0x8(%rbp),%eax
    5c28:	be ff 00 00 00       	mov    $0xff,%esi
    5c2d:	89 c1                	mov    %eax,%ecx
    5c2f:	d3 fe                	sar    %cl,%esi
    5c31:	89 f0                	mov    %esi,%eax
    5c33:	39 c2                	cmp    %eax,%edx
    5c35:	7f 0f                	jg     5c46 <safe_lshift_func_uint8_t_u_s+0x41>
    5c37:	0f b6 55 fc          	movzbl -0x4(%rbp),%edx
    5c3b:	8b 45 f8             	mov    -0x8(%rbp),%eax
    5c3e:	89 c1                	mov    %eax,%ecx
    5c40:	d3 e2                	shl    %cl,%edx
    5c42:	89 d0                	mov    %edx,%eax
    5c44:	eb 04                	jmp    5c4a <safe_lshift_func_uint8_t_u_s+0x45>
    5c46:	0f b6 45 fc          	movzbl -0x4(%rbp),%eax
    5c4a:	5d                   	pop    %rbp
    5c4b:	c3                   	retq   

0000000000005c4c <safe_lshift_func_uint8_t_u_u>:
    5c4c:	f3 0f 1e fa          	endbr64 
    5c50:	55                   	push   %rbp
    5c51:	48 89 e5             	mov    %rsp,%rbp
    5c54:	89 f8                	mov    %edi,%eax
    5c56:	89 75 f8             	mov    %esi,-0x8(%rbp)
    5c59:	88 45 fc             	mov    %al,-0x4(%rbp)
    5c5c:	83 7d f8 1f          	cmpl   $0x1f,-0x8(%rbp)
    5c60:	77 25                	ja     5c87 <safe_lshift_func_uint8_t_u_u+0x3b>
    5c62:	0f b6 55 fc          	movzbl -0x4(%rbp),%edx
    5c66:	8b 45 f8             	mov    -0x8(%rbp),%eax
    5c69:	be ff 00 00 00       	mov    $0xff,%esi
    5c6e:	89 c1                	mov    %eax,%ecx
    5c70:	d3 fe                	sar    %cl,%esi
    5c72:	89 f0                	mov    %esi,%eax
    5c74:	39 c2                	cmp    %eax,%edx
    5c76:	7f 0f                	jg     5c87 <safe_lshift_func_uint8_t_u_u+0x3b>
    5c78:	0f b6 55 fc          	movzbl -0x4(%rbp),%edx
    5c7c:	8b 45 f8             	mov    -0x8(%rbp),%eax
    5c7f:	89 c1                	mov    %eax,%ecx
    5c81:	d3 e2                	shl    %cl,%edx
    5c83:	89 d0                	mov    %edx,%eax
    5c85:	eb 04                	jmp    5c8b <safe_lshift_func_uint8_t_u_u+0x3f>
    5c87:	0f b6 45 fc          	movzbl -0x4(%rbp),%eax
    5c8b:	5d                   	pop    %rbp
    5c8c:	c3                   	retq   

0000000000005c8d <safe_rshift_func_uint8_t_u_s>:
    5c8d:	f3 0f 1e fa          	endbr64 
    5c91:	55                   	push   %rbp
    5c92:	48 89 e5             	mov    %rsp,%rbp
    5c95:	89 f8                	mov    %edi,%eax
    5c97:	89 75 f8             	mov    %esi,-0x8(%rbp)
    5c9a:	88 45 fc             	mov    %al,-0x4(%rbp)
    5c9d:	83 7d f8 00          	cmpl   $0x0,-0x8(%rbp)
    5ca1:	78 15                	js     5cb8 <safe_rshift_func_uint8_t_u_s+0x2b>
    5ca3:	83 7d f8 1f          	cmpl   $0x1f,-0x8(%rbp)
    5ca7:	7f 0f                	jg     5cb8 <safe_rshift_func_uint8_t_u_s+0x2b>
    5ca9:	0f b6 55 fc          	movzbl -0x4(%rbp),%edx
    5cad:	8b 45 f8             	mov    -0x8(%rbp),%eax
    5cb0:	89 c1                	mov    %eax,%ecx
    5cb2:	d3 fa                	sar    %cl,%edx
    5cb4:	89 d0                	mov    %edx,%eax
    5cb6:	eb 04                	jmp    5cbc <safe_rshift_func_uint8_t_u_s+0x2f>
    5cb8:	0f b6 45 fc          	movzbl -0x4(%rbp),%eax
    5cbc:	5d                   	pop    %rbp
    5cbd:	c3                   	retq   

0000000000005cbe <safe_rshift_func_uint8_t_u_u>:
    5cbe:	f3 0f 1e fa          	endbr64 
    5cc2:	55                   	push   %rbp
    5cc3:	48 89 e5             	mov    %rsp,%rbp
    5cc6:	89 f8                	mov    %edi,%eax
    5cc8:	89 75 f8             	mov    %esi,-0x8(%rbp)
    5ccb:	88 45 fc             	mov    %al,-0x4(%rbp)
    5cce:	83 7d f8 1f          	cmpl   $0x1f,-0x8(%rbp)
    5cd2:	77 0f                	ja     5ce3 <safe_rshift_func_uint8_t_u_u+0x25>
    5cd4:	0f b6 55 fc          	movzbl -0x4(%rbp),%edx
    5cd8:	8b 45 f8             	mov    -0x8(%rbp),%eax
    5cdb:	89 c1                	mov    %eax,%ecx
    5cdd:	d3 fa                	sar    %cl,%edx
    5cdf:	89 d0                	mov    %edx,%eax
    5ce1:	eb 04                	jmp    5ce7 <safe_rshift_func_uint8_t_u_u+0x29>
    5ce3:	0f b6 45 fc          	movzbl -0x4(%rbp),%eax
    5ce7:	5d                   	pop    %rbp
    5ce8:	c3                   	retq   

0000000000005ce9 <safe_unary_minus_func_uint16_t_u>:
    5ce9:	f3 0f 1e fa          	endbr64 
    5ced:	55                   	push   %rbp
    5cee:	48 89 e5             	mov    %rsp,%rbp
    5cf1:	89 f8                	mov    %edi,%eax
    5cf3:	66 89 45 fc          	mov    %ax,-0x4(%rbp)
    5cf7:	0f b7 45 fc          	movzwl -0x4(%rbp),%eax
    5cfb:	f7 d8                	neg    %eax
    5cfd:	5d                   	pop    %rbp
    5cfe:	c3                   	retq   

0000000000005cff <safe_add_func_uint16_t_u_u>:
    5cff:	f3 0f 1e fa          	endbr64 
    5d03:	55                   	push   %rbp
    5d04:	48 89 e5             	mov    %rsp,%rbp
    5d07:	89 fa                	mov    %edi,%edx
    5d09:	89 f0                	mov    %esi,%eax
    5d0b:	66 89 55 fc          	mov    %dx,-0x4(%rbp)
    5d0f:	66 89 45 f8          	mov    %ax,-0x8(%rbp)
    5d13:	0f b7 55 fc          	movzwl -0x4(%rbp),%edx
    5d17:	0f b7 45 f8          	movzwl -0x8(%rbp),%eax
    5d1b:	01 d0                	add    %edx,%eax
    5d1d:	5d                   	pop    %rbp
    5d1e:	c3                   	retq   

0000000000005d1f <safe_sub_func_uint16_t_u_u>:
    5d1f:	f3 0f 1e fa          	endbr64 
    5d23:	55                   	push   %rbp
    5d24:	48 89 e5             	mov    %rsp,%rbp
    5d27:	89 fa                	mov    %edi,%edx
    5d29:	89 f0                	mov    %esi,%eax
    5d2b:	66 89 55 fc          	mov    %dx,-0x4(%rbp)
    5d2f:	66 89 45 f8          	mov    %ax,-0x8(%rbp)
    5d33:	0f b7 45 fc          	movzwl -0x4(%rbp),%eax
    5d37:	66 2b 45 f8          	sub    -0x8(%rbp),%ax
    5d3b:	5d                   	pop    %rbp
    5d3c:	c3                   	retq   

0000000000005d3d <safe_mul_func_uint16_t_u_u>:
    5d3d:	f3 0f 1e fa          	endbr64 
    5d41:	55                   	push   %rbp
    5d42:	48 89 e5             	mov    %rsp,%rbp
    5d45:	89 fa                	mov    %edi,%edx
    5d47:	89 f0                	mov    %esi,%eax
    5d49:	66 89 55 fc          	mov    %dx,-0x4(%rbp)
    5d4d:	66 89 45 f8          	mov    %ax,-0x8(%rbp)
    5d51:	0f b7 45 fc          	movzwl -0x4(%rbp),%eax
    5d55:	66 0f af 45 f8       	imul   -0x8(%rbp),%ax
    5d5a:	5d                   	pop    %rbp
    5d5b:	c3                   	retq   

0000000000005d5c <safe_mod_func_uint16_t_u_u>:
    5d5c:	f3 0f 1e fa          	endbr64 
    5d60:	55                   	push   %rbp
    5d61:	48 89 e5             	mov    %rsp,%rbp
    5d64:	89 fa                	mov    %edi,%edx
    5d66:	89 f0                	mov    %esi,%eax
    5d68:	66 89 55 fc          	mov    %dx,-0x4(%rbp)
    5d6c:	66 89 45 f8          	mov    %ax,-0x8(%rbp)
    5d70:	66 83 7d f8 00       	cmpw   $0x0,-0x8(%rbp)
    5d75:	74 11                	je     5d88 <safe_mod_func_uint16_t_u_u+0x2c>
    5d77:	0f b7 45 fc          	movzwl -0x4(%rbp),%eax
    5d7b:	ba 00 00 00 00       	mov    $0x0,%edx
    5d80:	66 f7 75 f8          	divw   -0x8(%rbp)
    5d84:	89 d0                	mov    %edx,%eax
    5d86:	eb 04                	jmp    5d8c <safe_mod_func_uint16_t_u_u+0x30>
    5d88:	0f b7 45 fc          	movzwl -0x4(%rbp),%eax
    5d8c:	5d                   	pop    %rbp
    5d8d:	c3                   	retq   

0000000000005d8e <safe_div_func_uint16_t_u_u>:
    5d8e:	f3 0f 1e fa          	endbr64 
    5d92:	55                   	push   %rbp
    5d93:	48 89 e5             	mov    %rsp,%rbp
    5d96:	89 fa                	mov    %edi,%edx
    5d98:	89 f0                	mov    %esi,%eax
    5d9a:	66 89 55 fc          	mov    %dx,-0x4(%rbp)
    5d9e:	66 89 45 f8          	mov    %ax,-0x8(%rbp)
    5da2:	66 83 7d f8 00       	cmpw   $0x0,-0x8(%rbp)
    5da7:	74 0f                	je     5db8 <safe_div_func_uint16_t_u_u+0x2a>
    5da9:	0f b7 45 fc          	movzwl -0x4(%rbp),%eax
    5dad:	ba 00 00 00 00       	mov    $0x0,%edx
    5db2:	66 f7 75 f8          	divw   -0x8(%rbp)
    5db6:	eb 04                	jmp    5dbc <safe_div_func_uint16_t_u_u+0x2e>
    5db8:	0f b7 45 fc          	movzwl -0x4(%rbp),%eax
    5dbc:	5d                   	pop    %rbp
    5dbd:	c3                   	retq   

0000000000005dbe <safe_lshift_func_uint16_t_u_s>:
    5dbe:	f3 0f 1e fa          	endbr64 
    5dc2:	55                   	push   %rbp
    5dc3:	48 89 e5             	mov    %rsp,%rbp
    5dc6:	89 f8                	mov    %edi,%eax
    5dc8:	89 75 f8             	mov    %esi,-0x8(%rbp)
    5dcb:	66 89 45 fc          	mov    %ax,-0x4(%rbp)
    5dcf:	83 7d f8 00          	cmpl   $0x0,-0x8(%rbp)
    5dd3:	78 2b                	js     5e00 <safe_lshift_func_uint16_t_u_s+0x42>
    5dd5:	83 7d f8 1f          	cmpl   $0x1f,-0x8(%rbp)
    5dd9:	7f 25                	jg     5e00 <safe_lshift_func_uint16_t_u_s+0x42>
    5ddb:	0f b7 55 fc          	movzwl -0x4(%rbp),%edx
    5ddf:	8b 45 f8             	mov    -0x8(%rbp),%eax
    5de2:	be ff ff 00 00       	mov    $0xffff,%esi
    5de7:	89 c1                	mov    %eax,%ecx
    5de9:	d3 fe                	sar    %cl,%esi
    5deb:	89 f0                	mov    %esi,%eax
    5ded:	39 c2                	cmp    %eax,%edx
    5def:	7f 0f                	jg     5e00 <safe_lshift_func_uint16_t_u_s+0x42>
    5df1:	0f b7 55 fc          	movzwl -0x4(%rbp),%edx
    5df5:	8b 45 f8             	mov    -0x8(%rbp),%eax
    5df8:	89 c1                	mov    %eax,%ecx
    5dfa:	d3 e2                	shl    %cl,%edx
    5dfc:	89 d0                	mov    %edx,%eax
    5dfe:	eb 04                	jmp    5e04 <safe_lshift_func_uint16_t_u_s+0x46>
    5e00:	0f b7 45 fc          	movzwl -0x4(%rbp),%eax
    5e04:	5d                   	pop    %rbp
    5e05:	c3                   	retq   

0000000000005e06 <safe_lshift_func_uint16_t_u_u>:
    5e06:	f3 0f 1e fa          	endbr64 
    5e0a:	55                   	push   %rbp
    5e0b:	48 89 e5             	mov    %rsp,%rbp
    5e0e:	89 f8                	mov    %edi,%eax
    5e10:	89 75 f8             	mov    %esi,-0x8(%rbp)
    5e13:	66 89 45 fc          	mov    %ax,-0x4(%rbp)
    5e17:	83 7d f8 1f          	cmpl   $0x1f,-0x8(%rbp)
    5e1b:	77 25                	ja     5e42 <safe_lshift_func_uint16_t_u_u+0x3c>
    5e1d:	0f b7 55 fc          	movzwl -0x4(%rbp),%edx
    5e21:	8b 45 f8             	mov    -0x8(%rbp),%eax
    5e24:	be ff ff 00 00       	mov    $0xffff,%esi
    5e29:	89 c1                	mov    %eax,%ecx
    5e2b:	d3 fe                	sar    %cl,%esi
    5e2d:	89 f0                	mov    %esi,%eax
    5e2f:	39 c2                	cmp    %eax,%edx
    5e31:	7f 0f                	jg     5e42 <safe_lshift_func_uint16_t_u_u+0x3c>
    5e33:	0f b7 55 fc          	movzwl -0x4(%rbp),%edx
    5e37:	8b 45 f8             	mov    -0x8(%rbp),%eax
    5e3a:	89 c1                	mov    %eax,%ecx
    5e3c:	d3 e2                	shl    %cl,%edx
    5e3e:	89 d0                	mov    %edx,%eax
    5e40:	eb 04                	jmp    5e46 <safe_lshift_func_uint16_t_u_u+0x40>
    5e42:	0f b7 45 fc          	movzwl -0x4(%rbp),%eax
    5e46:	5d                   	pop    %rbp
    5e47:	c3                   	retq   

0000000000005e48 <safe_rshift_func_uint16_t_u_s>:
    5e48:	f3 0f 1e fa          	endbr64 
    5e4c:	55                   	push   %rbp
    5e4d:	48 89 e5             	mov    %rsp,%rbp
    5e50:	89 f8                	mov    %edi,%eax
    5e52:	89 75 f8             	mov    %esi,-0x8(%rbp)
    5e55:	66 89 45 fc          	mov    %ax,-0x4(%rbp)
    5e59:	83 7d f8 00          	cmpl   $0x0,-0x8(%rbp)
    5e5d:	78 15                	js     5e74 <safe_rshift_func_uint16_t_u_s+0x2c>
    5e5f:	83 7d f8 1f          	cmpl   $0x1f,-0x8(%rbp)
    5e63:	7f 0f                	jg     5e74 <safe_rshift_func_uint16_t_u_s+0x2c>
    5e65:	0f b7 55 fc          	movzwl -0x4(%rbp),%edx
    5e69:	8b 45 f8             	mov    -0x8(%rbp),%eax
    5e6c:	89 c1                	mov    %eax,%ecx
    5e6e:	d3 fa                	sar    %cl,%edx
    5e70:	89 d0                	mov    %edx,%eax
    5e72:	eb 04                	jmp    5e78 <safe_rshift_func_uint16_t_u_s+0x30>
    5e74:	0f b7 45 fc          	movzwl -0x4(%rbp),%eax
    5e78:	5d                   	pop    %rbp
    5e79:	c3                   	retq   

0000000000005e7a <safe_rshift_func_uint16_t_u_u>:
    5e7a:	f3 0f 1e fa          	endbr64 
    5e7e:	55                   	push   %rbp
    5e7f:	48 89 e5             	mov    %rsp,%rbp
    5e82:	89 f8                	mov    %edi,%eax
    5e84:	89 75 f8             	mov    %esi,-0x8(%rbp)
    5e87:	66 89 45 fc          	mov    %ax,-0x4(%rbp)
    5e8b:	83 7d f8 1f          	cmpl   $0x1f,-0x8(%rbp)
    5e8f:	77 0f                	ja     5ea0 <safe_rshift_func_uint16_t_u_u+0x26>
    5e91:	0f b7 55 fc          	movzwl -0x4(%rbp),%edx
    5e95:	8b 45 f8             	mov    -0x8(%rbp),%eax
    5e98:	89 c1                	mov    %eax,%ecx
    5e9a:	d3 fa                	sar    %cl,%edx
    5e9c:	89 d0                	mov    %edx,%eax
    5e9e:	eb 04                	jmp    5ea4 <safe_rshift_func_uint16_t_u_u+0x2a>
    5ea0:	0f b7 45 fc          	movzwl -0x4(%rbp),%eax
    5ea4:	5d                   	pop    %rbp
    5ea5:	c3                   	retq   

0000000000005ea6 <safe_unary_minus_func_uint32_t_u>:
    5ea6:	f3 0f 1e fa          	endbr64 
    5eaa:	55                   	push   %rbp
    5eab:	48 89 e5             	mov    %rsp,%rbp
    5eae:	89 7d fc             	mov    %edi,-0x4(%rbp)
    5eb1:	8b 45 fc             	mov    -0x4(%rbp),%eax
    5eb4:	f7 d8                	neg    %eax
    5eb6:	5d                   	pop    %rbp
    5eb7:	c3                   	retq   

0000000000005eb8 <safe_add_func_uint32_t_u_u>:
    5eb8:	f3 0f 1e fa          	endbr64 
    5ebc:	55                   	push   %rbp
    5ebd:	48 89 e5             	mov    %rsp,%rbp
    5ec0:	89 7d fc             	mov    %edi,-0x4(%rbp)
    5ec3:	89 75 f8             	mov    %esi,-0x8(%rbp)
    5ec6:	8b 55 fc             	mov    -0x4(%rbp),%edx
    5ec9:	8b 45 f8             	mov    -0x8(%rbp),%eax
    5ecc:	01 d0                	add    %edx,%eax
    5ece:	5d                   	pop    %rbp
    5ecf:	c3                   	retq   

0000000000005ed0 <safe_sub_func_uint32_t_u_u>:
    5ed0:	f3 0f 1e fa          	endbr64 
    5ed4:	55                   	push   %rbp
    5ed5:	48 89 e5             	mov    %rsp,%rbp
    5ed8:	89 7d fc             	mov    %edi,-0x4(%rbp)
    5edb:	89 75 f8             	mov    %esi,-0x8(%rbp)
    5ede:	8b 45 fc             	mov    -0x4(%rbp),%eax
    5ee1:	2b 45 f8             	sub    -0x8(%rbp),%eax
    5ee4:	5d                   	pop    %rbp
    5ee5:	c3                   	retq   

0000000000005ee6 <safe_mul_func_uint32_t_u_u>:
    5ee6:	f3 0f 1e fa          	endbr64 
    5eea:	55                   	push   %rbp
    5eeb:	48 89 e5             	mov    %rsp,%rbp
    5eee:	89 7d fc             	mov    %edi,-0x4(%rbp)
    5ef1:	89 75 f8             	mov    %esi,-0x8(%rbp)
    5ef4:	8b 45 fc             	mov    -0x4(%rbp),%eax
    5ef7:	0f af 45 f8          	imul   -0x8(%rbp),%eax
    5efb:	5d                   	pop    %rbp
    5efc:	c3                   	retq   

0000000000005efd <safe_mod_func_uint32_t_u_u>:
    5efd:	f3 0f 1e fa          	endbr64 
    5f01:	55                   	push   %rbp
    5f02:	48 89 e5             	mov    %rsp,%rbp
    5f05:	89 7d fc             	mov    %edi,-0x4(%rbp)
    5f08:	89 75 f8             	mov    %esi,-0x8(%rbp)
    5f0b:	83 7d f8 00          	cmpl   $0x0,-0x8(%rbp)
    5f0f:	74 0f                	je     5f20 <safe_mod_func_uint32_t_u_u+0x23>
    5f11:	8b 45 fc             	mov    -0x4(%rbp),%eax
    5f14:	ba 00 00 00 00       	mov    $0x0,%edx
    5f19:	f7 75 f8             	divl   -0x8(%rbp)
    5f1c:	89 d0                	mov    %edx,%eax
    5f1e:	eb 03                	jmp    5f23 <safe_mod_func_uint32_t_u_u+0x26>
    5f20:	8b 45 fc             	mov    -0x4(%rbp),%eax
    5f23:	5d                   	pop    %rbp
    5f24:	c3                   	retq   

0000000000005f25 <safe_div_func_uint32_t_u_u>:
    5f25:	f3 0f 1e fa          	endbr64 
    5f29:	55                   	push   %rbp
    5f2a:	48 89 e5             	mov    %rsp,%rbp
    5f2d:	89 7d fc             	mov    %edi,-0x4(%rbp)
    5f30:	89 75 f8             	mov    %esi,-0x8(%rbp)
    5f33:	83 7d f8 00          	cmpl   $0x0,-0x8(%rbp)
    5f37:	74 0d                	je     5f46 <safe_div_func_uint32_t_u_u+0x21>
    5f39:	8b 45 fc             	mov    -0x4(%rbp),%eax
    5f3c:	ba 00 00 00 00       	mov    $0x0,%edx
    5f41:	f7 75 f8             	divl   -0x8(%rbp)
    5f44:	eb 03                	jmp    5f49 <safe_div_func_uint32_t_u_u+0x24>
    5f46:	8b 45 fc             	mov    -0x4(%rbp),%eax
    5f49:	5d                   	pop    %rbp
    5f4a:	c3                   	retq   

0000000000005f4b <safe_lshift_func_uint32_t_u_s>:
    5f4b:	f3 0f 1e fa          	endbr64 
    5f4f:	55                   	push   %rbp
    5f50:	48 89 e5             	mov    %rsp,%rbp
    5f53:	89 7d fc             	mov    %edi,-0x4(%rbp)
    5f56:	89 75 f8             	mov    %esi,-0x8(%rbp)
    5f59:	83 7d f8 00          	cmpl   $0x0,-0x8(%rbp)
    5f5d:	78 27                	js     5f86 <safe_lshift_func_uint32_t_u_s+0x3b>
    5f5f:	83 7d f8 1f          	cmpl   $0x1f,-0x8(%rbp)
    5f63:	7f 21                	jg     5f86 <safe_lshift_func_uint32_t_u_s+0x3b>
    5f65:	8b 45 f8             	mov    -0x8(%rbp),%eax
    5f68:	ba ff ff ff ff       	mov    $0xffffffff,%edx
    5f6d:	89 c1                	mov    %eax,%ecx
    5f6f:	d3 ea                	shr    %cl,%edx
    5f71:	89 d0                	mov    %edx,%eax
    5f73:	39 45 fc             	cmp    %eax,-0x4(%rbp)
    5f76:	77 0e                	ja     5f86 <safe_lshift_func_uint32_t_u_s+0x3b>
    5f78:	8b 45 f8             	mov    -0x8(%rbp),%eax
    5f7b:	8b 55 fc             	mov    -0x4(%rbp),%edx
    5f7e:	89 c1                	mov    %eax,%ecx
    5f80:	d3 e2                	shl    %cl,%edx
    5f82:	89 d0                	mov    %edx,%eax
    5f84:	eb 03                	jmp    5f89 <safe_lshift_func_uint32_t_u_s+0x3e>
    5f86:	8b 45 fc             	mov    -0x4(%rbp),%eax
    5f89:	5d                   	pop    %rbp
    5f8a:	c3                   	retq   

0000000000005f8b <safe_lshift_func_uint32_t_u_u>:
    5f8b:	f3 0f 1e fa          	endbr64 
    5f8f:	55                   	push   %rbp
    5f90:	48 89 e5             	mov    %rsp,%rbp
    5f93:	89 7d fc             	mov    %edi,-0x4(%rbp)
    5f96:	89 75 f8             	mov    %esi,-0x8(%rbp)
    5f99:	83 7d f8 1f          	cmpl   $0x1f,-0x8(%rbp)
    5f9d:	77 21                	ja     5fc0 <safe_lshift_func_uint32_t_u_u+0x35>
    5f9f:	8b 45 f8             	mov    -0x8(%rbp),%eax
    5fa2:	ba ff ff ff ff       	mov    $0xffffffff,%edx
    5fa7:	89 c1                	mov    %eax,%ecx
    5fa9:	d3 ea                	shr    %cl,%edx
    5fab:	89 d0                	mov    %edx,%eax
    5fad:	39 45 fc             	cmp    %eax,-0x4(%rbp)
    5fb0:	77 0e                	ja     5fc0 <safe_lshift_func_uint32_t_u_u+0x35>
    5fb2:	8b 45 f8             	mov    -0x8(%rbp),%eax
    5fb5:	8b 55 fc             	mov    -0x4(%rbp),%edx
    5fb8:	89 c1                	mov    %eax,%ecx
    5fba:	d3 e2                	shl    %cl,%edx
    5fbc:	89 d0                	mov    %edx,%eax
    5fbe:	eb 03                	jmp    5fc3 <safe_lshift_func_uint32_t_u_u+0x38>
    5fc0:	8b 45 fc             	mov    -0x4(%rbp),%eax
    5fc3:	5d                   	pop    %rbp
    5fc4:	c3                   	retq   

0000000000005fc5 <safe_rshift_func_uint32_t_u_s>:
    5fc5:	f3 0f 1e fa          	endbr64 
    5fc9:	55                   	push   %rbp
    5fca:	48 89 e5             	mov    %rsp,%rbp
    5fcd:	89 7d fc             	mov    %edi,-0x4(%rbp)
    5fd0:	89 75 f8             	mov    %esi,-0x8(%rbp)
    5fd3:	83 7d f8 00          	cmpl   $0x0,-0x8(%rbp)
    5fd7:	78 14                	js     5fed <safe_rshift_func_uint32_t_u_s+0x28>
    5fd9:	83 7d f8 1f          	cmpl   $0x1f,-0x8(%rbp)
    5fdd:	7f 0e                	jg     5fed <safe_rshift_func_uint32_t_u_s+0x28>
    5fdf:	8b 45 f8             	mov    -0x8(%rbp),%eax
    5fe2:	8b 55 fc             	mov    -0x4(%rbp),%edx
    5fe5:	89 c1                	mov    %eax,%ecx
    5fe7:	d3 ea                	shr    %cl,%edx
    5fe9:	89 d0                	mov    %edx,%eax
    5feb:	eb 03                	jmp    5ff0 <safe_rshift_func_uint32_t_u_s+0x2b>
    5fed:	8b 45 fc             	mov    -0x4(%rbp),%eax
    5ff0:	5d                   	pop    %rbp
    5ff1:	c3                   	retq   

0000000000005ff2 <safe_rshift_func_uint32_t_u_u>:
    5ff2:	f3 0f 1e fa          	endbr64 
    5ff6:	55                   	push   %rbp
    5ff7:	48 89 e5             	mov    %rsp,%rbp
    5ffa:	89 7d fc             	mov    %edi,-0x4(%rbp)
    5ffd:	89 75 f8             	mov    %esi,-0x8(%rbp)
    6000:	83 7d f8 1f          	cmpl   $0x1f,-0x8(%rbp)
    6004:	77 0e                	ja     6014 <safe_rshift_func_uint32_t_u_u+0x22>
    6006:	8b 45 f8             	mov    -0x8(%rbp),%eax
    6009:	8b 55 fc             	mov    -0x4(%rbp),%edx
    600c:	89 c1                	mov    %eax,%ecx
    600e:	d3 ea                	shr    %cl,%edx
    6010:	89 d0                	mov    %edx,%eax
    6012:	eb 03                	jmp    6017 <safe_rshift_func_uint32_t_u_u+0x25>
    6014:	8b 45 fc             	mov    -0x4(%rbp),%eax
    6017:	5d                   	pop    %rbp
    6018:	c3                   	retq   

0000000000006019 <safe_unary_minus_func_uint64_t_u>:
    6019:	f3 0f 1e fa          	endbr64 
    601d:	55                   	push   %rbp
    601e:	48 89 e5             	mov    %rsp,%rbp
    6021:	48 89 7d f8          	mov    %rdi,-0x8(%rbp)
    6025:	48 8b 45 f8          	mov    -0x8(%rbp),%rax
    6029:	48 f7 d8             	neg    %rax
    602c:	5d                   	pop    %rbp
    602d:	c3                   	retq   

000000000000602e <safe_add_func_uint64_t_u_u>:
    602e:	f3 0f 1e fa          	endbr64 
    6032:	55                   	push   %rbp
    6033:	48 89 e5             	mov    %rsp,%rbp
    6036:	48 89 7d f8          	mov    %rdi,-0x8(%rbp)
    603a:	48 89 75 f0          	mov    %rsi,-0x10(%rbp)
    603e:	48 8b 55 f8          	mov    -0x8(%rbp),%rdx
    6042:	48 8b 45 f0          	mov    -0x10(%rbp),%rax
    6046:	48 01 d0             	add    %rdx,%rax
    6049:	5d                   	pop    %rbp
    604a:	c3                   	retq   

000000000000604b <safe_sub_func_uint64_t_u_u>:
    604b:	f3 0f 1e fa          	endbr64 
    604f:	55                   	push   %rbp
    6050:	48 89 e5             	mov    %rsp,%rbp
    6053:	48 89 7d f8          	mov    %rdi,-0x8(%rbp)
    6057:	48 89 75 f0          	mov    %rsi,-0x10(%rbp)
    605b:	48 8b 45 f8          	mov    -0x8(%rbp),%rax
    605f:	48 2b 45 f0          	sub    -0x10(%rbp),%rax
    6063:	5d                   	pop    %rbp
    6064:	c3                   	retq   

0000000000006065 <safe_mul_func_uint64_t_u_u>:
    6065:	f3 0f 1e fa          	endbr64 
    6069:	55                   	push   %rbp
    606a:	48 89 e5             	mov    %rsp,%rbp
    606d:	48 89 7d f8          	mov    %rdi,-0x8(%rbp)
    6071:	48 89 75 f0          	mov    %rsi,-0x10(%rbp)
    6075:	48 8b 45 f8          	mov    -0x8(%rbp),%rax
    6079:	48 0f af 45 f0       	imul   -0x10(%rbp),%rax
    607e:	5d                   	pop    %rbp
    607f:	c3                   	retq   

0000000000006080 <safe_mod_func_uint64_t_u_u>:
    6080:	f3 0f 1e fa          	endbr64 
    6084:	55                   	push   %rbp
    6085:	48 89 e5             	mov    %rsp,%rbp
    6088:	48 89 7d f8          	mov    %rdi,-0x8(%rbp)
    608c:	48 89 75 f0          	mov    %rsi,-0x10(%rbp)
    6090:	48 83 7d f0 00       	cmpq   $0x0,-0x10(%rbp)
    6095:	74 12                	je     60a9 <safe_mod_func_uint64_t_u_u+0x29>
    6097:	48 8b 45 f8          	mov    -0x8(%rbp),%rax
    609b:	ba 00 00 00 00       	mov    $0x0,%edx
    60a0:	48 f7 75 f0          	divq   -0x10(%rbp)
    60a4:	48 89 d0             	mov    %rdx,%rax
    60a7:	eb 04                	jmp    60ad <safe_mod_func_uint64_t_u_u+0x2d>
    60a9:	48 8b 45 f8          	mov    -0x8(%rbp),%rax
    60ad:	5d                   	pop    %rbp
    60ae:	c3                   	retq   

00000000000060af <safe_div_func_uint64_t_u_u>:
    60af:	f3 0f 1e fa          	endbr64 
    60b3:	55                   	push   %rbp
    60b4:	48 89 e5             	mov    %rsp,%rbp
    60b7:	48 89 7d f8          	mov    %rdi,-0x8(%rbp)
    60bb:	48 89 75 f0          	mov    %rsi,-0x10(%rbp)
    60bf:	48 83 7d f0 00       	cmpq   $0x0,-0x10(%rbp)
    60c4:	74 0f                	je     60d5 <safe_div_func_uint64_t_u_u+0x26>
    60c6:	48 8b 45 f8          	mov    -0x8(%rbp),%rax
    60ca:	ba 00 00 00 00       	mov    $0x0,%edx
    60cf:	48 f7 75 f0          	divq   -0x10(%rbp)
    60d3:	eb 04                	jmp    60d9 <safe_div_func_uint64_t_u_u+0x2a>
    60d5:	48 8b 45 f8          	mov    -0x8(%rbp),%rax
    60d9:	5d                   	pop    %rbp
    60da:	c3                   	retq   

00000000000060db <safe_lshift_func_uint64_t_u_s>:
    60db:	f3 0f 1e fa          	endbr64 
    60df:	55                   	push   %rbp
    60e0:	48 89 e5             	mov    %rsp,%rbp
    60e3:	48 89 7d f8          	mov    %rdi,-0x8(%rbp)
    60e7:	89 75 f4             	mov    %esi,-0xc(%rbp)
    60ea:	83 7d f4 00          	cmpl   $0x0,-0xc(%rbp)
    60ee:	78 2f                	js     611f <safe_lshift_func_uint64_t_u_s+0x44>
    60f0:	83 7d f4 1f          	cmpl   $0x1f,-0xc(%rbp)
    60f4:	7f 29                	jg     611f <safe_lshift_func_uint64_t_u_s+0x44>
    60f6:	8b 45 f4             	mov    -0xc(%rbp),%eax
    60f9:	48 c7 c2 ff ff ff ff 	mov    $0xffffffffffffffff,%rdx
    6100:	89 c1                	mov    %eax,%ecx
    6102:	48 d3 ea             	shr    %cl,%rdx
    6105:	48 89 d0             	mov    %rdx,%rax
    6108:	48 39 45 f8          	cmp    %rax,-0x8(%rbp)
    610c:	77 11                	ja     611f <safe_lshift_func_uint64_t_u_s+0x44>
    610e:	8b 45 f4             	mov    -0xc(%rbp),%eax
    6111:	48 8b 55 f8          	mov    -0x8(%rbp),%rdx
    6115:	89 c1                	mov    %eax,%ecx
    6117:	48 d3 e2             	shl    %cl,%rdx
    611a:	48 89 d0             	mov    %rdx,%rax
    611d:	eb 04                	jmp    6123 <safe_lshift_func_uint64_t_u_s+0x48>
    611f:	48 8b 45 f8          	mov    -0x8(%rbp),%rax
    6123:	5d                   	pop    %rbp
    6124:	c3                   	retq   

0000000000006125 <safe_lshift_func_uint64_t_u_u>:
    6125:	f3 0f 1e fa          	endbr64 
    6129:	55                   	push   %rbp
    612a:	48 89 e5             	mov    %rsp,%rbp
    612d:	48 89 7d f8          	mov    %rdi,-0x8(%rbp)
    6131:	89 75 f4             	mov    %esi,-0xc(%rbp)
    6134:	83 7d f4 1f          	cmpl   $0x1f,-0xc(%rbp)
    6138:	77 29                	ja     6163 <safe_lshift_func_uint64_t_u_u+0x3e>
    613a:	8b 45 f4             	mov    -0xc(%rbp),%eax
    613d:	48 c7 c2 ff ff ff ff 	mov    $0xffffffffffffffff,%rdx
    6144:	89 c1                	mov    %eax,%ecx
    6146:	48 d3 ea             	shr    %cl,%rdx
    6149:	48 89 d0             	mov    %rdx,%rax
    614c:	48 39 45 f8          	cmp    %rax,-0x8(%rbp)
    6150:	77 11                	ja     6163 <safe_lshift_func_uint64_t_u_u+0x3e>
    6152:	8b 45 f4             	mov    -0xc(%rbp),%eax
    6155:	48 8b 55 f8          	mov    -0x8(%rbp),%rdx
    6159:	89 c1                	mov    %eax,%ecx
    615b:	48 d3 e2             	shl    %cl,%rdx
    615e:	48 89 d0             	mov    %rdx,%rax
    6161:	eb 04                	jmp    6167 <safe_lshift_func_uint64_t_u_u+0x42>
    6163:	48 8b 45 f8          	mov    -0x8(%rbp),%rax
    6167:	5d                   	pop    %rbp
    6168:	c3                   	retq   

0000000000006169 <safe_rshift_func_uint64_t_u_s>:
    6169:	f3 0f 1e fa          	endbr64 
    616d:	55                   	push   %rbp
    616e:	48 89 e5             	mov    %rsp,%rbp
    6171:	48 89 7d f8          	mov    %rdi,-0x8(%rbp)
    6175:	89 75 f4             	mov    %esi,-0xc(%rbp)
    6178:	83 7d f4 00          	cmpl   $0x0,-0xc(%rbp)
    617c:	78 17                	js     6195 <safe_rshift_func_uint64_t_u_s+0x2c>
    617e:	83 7d f4 1f          	cmpl   $0x1f,-0xc(%rbp)
    6182:	7f 11                	jg     6195 <safe_rshift_func_uint64_t_u_s+0x2c>
    6184:	8b 45 f4             	mov    -0xc(%rbp),%eax
    6187:	48 8b 55 f8          	mov    -0x8(%rbp),%rdx
    618b:	89 c1                	mov    %eax,%ecx
    618d:	48 d3 ea             	shr    %cl,%rdx
    6190:	48 89 d0             	mov    %rdx,%rax
    6193:	eb 04                	jmp    6199 <safe_rshift_func_uint64_t_u_s+0x30>
    6195:	48 8b 45 f8          	mov    -0x8(%rbp),%rax
    6199:	5d                   	pop    %rbp
    619a:	c3                   	retq   

000000000000619b <safe_rshift_func_uint64_t_u_u>:
    619b:	f3 0f 1e fa          	endbr64 
    619f:	55                   	push   %rbp
    61a0:	48 89 e5             	mov    %rsp,%rbp
    61a3:	48 89 7d f8          	mov    %rdi,-0x8(%rbp)
    61a7:	89 75 f4             	mov    %esi,-0xc(%rbp)
    61aa:	83 7d f4 1f          	cmpl   $0x1f,-0xc(%rbp)
    61ae:	77 11                	ja     61c1 <safe_rshift_func_uint64_t_u_u+0x26>
    61b0:	8b 45 f4             	mov    -0xc(%rbp),%eax
    61b3:	48 8b 55 f8          	mov    -0x8(%rbp),%rdx
    61b7:	89 c1                	mov    %eax,%ecx
    61b9:	48 d3 ea             	shr    %cl,%rdx
    61bc:	48 89 d0             	mov    %rdx,%rax
    61bf:	eb 04                	jmp    61c5 <safe_rshift_func_uint64_t_u_u+0x2a>
    61c1:	48 8b 45 f8          	mov    -0x8(%rbp),%rax
    61c5:	5d                   	pop    %rbp
    61c6:	c3                   	retq   

00000000000061c7 <safe_add_func_float_f_f>:
    61c7:	f3 0f 1e fa          	endbr64 
    61cb:	55                   	push   %rbp
    61cc:	48 89 e5             	mov    %rsp,%rbp
    61cf:	f3 0f 11 45 fc       	movss  %xmm0,-0x4(%rbp)
    61d4:	f3 0f 11 4d f8       	movss  %xmm1,-0x8(%rbp)
    61d9:	f3 0f 10 4d fc       	movss  -0x4(%rbp),%xmm1
    61de:	f3 0f 10 05 6a e0 00 	movss  0xe06a(%rip),%xmm0        # 14250 <l_1184.4777+0x3f0>
    61e5:	00 
    61e6:	f3 0f 59 c8          	mulss  %xmm0,%xmm1
    61ea:	f3 0f 10 55 f8       	movss  -0x8(%rbp),%xmm2
    61ef:	f3 0f 10 05 59 e0 00 	movss  0xe059(%rip),%xmm0        # 14250 <l_1184.4777+0x3f0>
    61f6:	00 
    61f7:	f3 0f 59 c2          	mulss  %xmm2,%xmm0
    61fb:	f3 0f 58 c1          	addss  %xmm1,%xmm0
    61ff:	f3 0f 10 0d 59 e0 00 	movss  0xe059(%rip),%xmm1        # 14260 <l_1184.4777+0x400>
    6206:	00 
    6207:	0f 54 c1             	andps  %xmm1,%xmm0
    620a:	0f 2f 05 5f e0 00 00 	comiss 0xe05f(%rip),%xmm0        # 14270 <l_1184.4777+0x410>
    6211:	76 07                	jbe    621a <safe_add_func_float_f_f+0x53>
    6213:	f3 0f 10 45 fc       	movss  -0x4(%rbp),%xmm0
    6218:	eb 0a                	jmp    6224 <safe_add_func_float_f_f+0x5d>
    621a:	f3 0f 10 45 fc       	movss  -0x4(%rbp),%xmm0
    621f:	f3 0f 58 45 f8       	addss  -0x8(%rbp),%xmm0
    6224:	5d                   	pop    %rbp
    6225:	c3                   	retq   

0000000000006226 <safe_sub_func_float_f_f>:
    6226:	f3 0f 1e fa          	endbr64 
    622a:	55                   	push   %rbp
    622b:	48 89 e5             	mov    %rsp,%rbp
    622e:	f3 0f 11 45 fc       	movss  %xmm0,-0x4(%rbp)
    6233:	f3 0f 11 4d f8       	movss  %xmm1,-0x8(%rbp)
    6238:	f3 0f 10 4d fc       	movss  -0x4(%rbp),%xmm1
    623d:	f3 0f 10 05 0b e0 00 	movss  0xe00b(%rip),%xmm0        # 14250 <l_1184.4777+0x3f0>
    6244:	00 
    6245:	f3 0f 59 c1          	mulss  %xmm1,%xmm0
    6249:	f3 0f 10 55 f8       	movss  -0x8(%rbp),%xmm2
    624e:	f3 0f 10 0d fa df 00 	movss  0xdffa(%rip),%xmm1        # 14250 <l_1184.4777+0x3f0>
    6255:	00 
    6256:	f3 0f 59 ca          	mulss  %xmm2,%xmm1
    625a:	f3 0f 5c c1          	subss  %xmm1,%xmm0
    625e:	f3 0f 10 0d fa df 00 	movss  0xdffa(%rip),%xmm1        # 14260 <l_1184.4777+0x400>
    6265:	00 
    6266:	0f 54 c1             	andps  %xmm1,%xmm0
    6269:	0f 2f 05 00 e0 00 00 	comiss 0xe000(%rip),%xmm0        # 14270 <l_1184.4777+0x410>
    6270:	76 07                	jbe    6279 <safe_sub_func_float_f_f+0x53>
    6272:	f3 0f 10 45 fc       	movss  -0x4(%rbp),%xmm0
    6277:	eb 0a                	jmp    6283 <safe_sub_func_float_f_f+0x5d>
    6279:	f3 0f 10 45 fc       	movss  -0x4(%rbp),%xmm0
    627e:	f3 0f 5c 45 f8       	subss  -0x8(%rbp),%xmm0
    6283:	5d                   	pop    %rbp
    6284:	c3                   	retq   

0000000000006285 <safe_mul_func_float_f_f>:
    6285:	f3 0f 1e fa          	endbr64 
    6289:	55                   	push   %rbp
    628a:	48 89 e5             	mov    %rsp,%rbp
    628d:	f3 0f 11 45 fc       	movss  %xmm0,-0x4(%rbp)
    6292:	f3 0f 11 4d f8       	movss  %xmm1,-0x8(%rbp)
    6297:	f3 0f 10 4d fc       	movss  -0x4(%rbp),%xmm1
    629c:	f3 0f 10 05 d0 df 00 	movss  0xdfd0(%rip),%xmm0        # 14274 <l_1184.4777+0x414>
    62a3:	00 
    62a4:	f3 0f 59 c8          	mulss  %xmm0,%xmm1
    62a8:	f3 0f 10 55 f8       	movss  -0x8(%rbp),%xmm2
    62ad:	f3 0f 10 05 c3 df 00 	movss  0xdfc3(%rip),%xmm0        # 14278 <l_1184.4777+0x418>
    62b4:	00 
    62b5:	f3 0f 59 c2          	mulss  %xmm2,%xmm0
    62b9:	f3 0f 59 c1          	mulss  %xmm1,%xmm0
    62bd:	f3 0f 10 0d 9b df 00 	movss  0xdf9b(%rip),%xmm1        # 14260 <l_1184.4777+0x400>
    62c4:	00 
    62c5:	0f 54 c1             	andps  %xmm1,%xmm0
    62c8:	0f 2f 05 ad df 00 00 	comiss 0xdfad(%rip),%xmm0        # 1427c <l_1184.4777+0x41c>
    62cf:	76 07                	jbe    62d8 <safe_mul_func_float_f_f+0x53>
    62d1:	f3 0f 10 45 fc       	movss  -0x4(%rbp),%xmm0
    62d6:	eb 0a                	jmp    62e2 <safe_mul_func_float_f_f+0x5d>
    62d8:	f3 0f 10 45 fc       	movss  -0x4(%rbp),%xmm0
    62dd:	f3 0f 59 45 f8       	mulss  -0x8(%rbp),%xmm0
    62e2:	5d                   	pop    %rbp
    62e3:	c3                   	retq   

00000000000062e4 <safe_div_func_float_f_f>:
    62e4:	f3 0f 1e fa          	endbr64 
    62e8:	55                   	push   %rbp
    62e9:	48 89 e5             	mov    %rsp,%rbp
    62ec:	f3 0f 11 45 fc       	movss  %xmm0,-0x4(%rbp)
    62f1:	f3 0f 11 4d f8       	movss  %xmm1,-0x8(%rbp)
    62f6:	f3 0f 10 45 f8       	movss  -0x8(%rbp),%xmm0
    62fb:	f3 0f 10 0d 5d df 00 	movss  0xdf5d(%rip),%xmm1        # 14260 <l_1184.4777+0x400>
    6302:	00 
    6303:	0f 54 c8             	andps  %xmm0,%xmm1
    6306:	f3 0f 10 05 72 df 00 	movss  0xdf72(%rip),%xmm0        # 14280 <l_1184.4777+0x420>
    630d:	00 
    630e:	0f 2f c1             	comiss %xmm1,%xmm0
    6311:	0f 97 c0             	seta   %al
    6314:	83 f0 01             	xor    $0x1,%eax
    6317:	84 c0                	test   %al,%al
    6319:	75 56                	jne    6371 <safe_div_func_float_f_f+0x8d>
    631b:	66 0f ef c0          	pxor   %xmm0,%xmm0
    631f:	0f 2e 45 f8          	ucomiss -0x8(%rbp),%xmm0
    6323:	7a 0a                	jp     632f <safe_div_func_float_f_f+0x4b>
    6325:	66 0f ef c0          	pxor   %xmm0,%xmm0
    6329:	0f 2e 45 f8          	ucomiss -0x8(%rbp),%xmm0
    632d:	74 4e                	je     637d <safe_div_func_float_f_f+0x99>
    632f:	f3 0f 10 4d fc       	movss  -0x4(%rbp),%xmm1
    6334:	f3 0f 10 05 48 df 00 	movss  0xdf48(%rip),%xmm0        # 14284 <l_1184.4777+0x424>
    633b:	00 
    633c:	f3 0f 59 c1          	mulss  %xmm1,%xmm0
    6340:	f3 0f 10 55 f8       	movss  -0x8(%rbp),%xmm2
    6345:	f3 0f 10 0d 3b df 00 	movss  0xdf3b(%rip),%xmm1        # 14288 <l_1184.4777+0x428>
    634c:	00 
    634d:	f3 0f 59 ca          	mulss  %xmm2,%xmm1
    6351:	f3 0f 5e c1          	divss  %xmm1,%xmm0
    6355:	f3 0f 10 0d 03 df 00 	movss  0xdf03(%rip),%xmm1        # 14260 <l_1184.4777+0x400>
    635c:	00 
    635d:	0f 54 c1             	andps  %xmm1,%xmm0
    6360:	0f 2f 05 25 df 00 00 	comiss 0xdf25(%rip),%xmm0        # 1428c <l_1184.4777+0x42c>
    6367:	0f 97 c0             	seta   %al
    636a:	83 f0 01             	xor    $0x1,%eax
    636d:	84 c0                	test   %al,%al
    636f:	74 0c                	je     637d <safe_div_func_float_f_f+0x99>
    6371:	f3 0f 10 45 fc       	movss  -0x4(%rbp),%xmm0
    6376:	f3 0f 5e 45 f8       	divss  -0x8(%rbp),%xmm0
    637b:	eb 05                	jmp    6382 <safe_div_func_float_f_f+0x9e>
    637d:	f3 0f 10 45 fc       	movss  -0x4(%rbp),%xmm0
    6382:	5d                   	pop    %rbp
    6383:	c3                   	retq   

0000000000006384 <safe_add_func_double_f_f>:
    6384:	f3 0f 1e fa          	endbr64 
    6388:	55                   	push   %rbp
    6389:	48 89 e5             	mov    %rsp,%rbp
    638c:	f2 0f 11 45 f8       	movsd  %xmm0,-0x8(%rbp)
    6391:	f2 0f 11 4d f0       	movsd  %xmm1,-0x10(%rbp)
    6396:	f2 0f 10 4d f8       	movsd  -0x8(%rbp),%xmm1
    639b:	f2 0f 10 05 ed de 00 	movsd  0xdeed(%rip),%xmm0        # 14290 <l_1184.4777+0x430>
    63a2:	00 
    63a3:	f2 0f 59 c8          	mulsd  %xmm0,%xmm1
    63a7:	f2 0f 10 55 f0       	movsd  -0x10(%rbp),%xmm2
    63ac:	f2 0f 10 05 dc de 00 	movsd  0xdedc(%rip),%xmm0        # 14290 <l_1184.4777+0x430>
    63b3:	00 
    63b4:	f2 0f 59 c2          	mulsd  %xmm2,%xmm0
    63b8:	f2 0f 58 c1          	addsd  %xmm1,%xmm0
    63bc:	f3 0f 7e 0d dc de 00 	movq   0xdedc(%rip),%xmm1        # 142a0 <l_1184.4777+0x440>
    63c3:	00 
    63c4:	66 0f 54 c1          	andpd  %xmm1,%xmm0
    63c8:	66 0f 2f 05 e0 de 00 	comisd 0xdee0(%rip),%xmm0        # 142b0 <l_1184.4777+0x450>
    63cf:	00 
    63d0:	76 07                	jbe    63d9 <safe_add_func_double_f_f+0x55>
    63d2:	f2 0f 10 45 f8       	movsd  -0x8(%rbp),%xmm0
    63d7:	eb 0a                	jmp    63e3 <safe_add_func_double_f_f+0x5f>
    63d9:	f2 0f 10 45 f8       	movsd  -0x8(%rbp),%xmm0
    63de:	f2 0f 58 45 f0       	addsd  -0x10(%rbp),%xmm0
    63e3:	5d                   	pop    %rbp
    63e4:	c3                   	retq   

00000000000063e5 <safe_sub_func_double_f_f>:
    63e5:	f3 0f 1e fa          	endbr64 
    63e9:	55                   	push   %rbp
    63ea:	48 89 e5             	mov    %rsp,%rbp
    63ed:	f2 0f 11 45 f8       	movsd  %xmm0,-0x8(%rbp)
    63f2:	f2 0f 11 4d f0       	movsd  %xmm1,-0x10(%rbp)
    63f7:	f2 0f 10 4d f8       	movsd  -0x8(%rbp),%xmm1
    63fc:	f2 0f 10 05 8c de 00 	movsd  0xde8c(%rip),%xmm0        # 14290 <l_1184.4777+0x430>
    6403:	00 
    6404:	f2 0f 59 c1          	mulsd  %xmm1,%xmm0
    6408:	f2 0f 10 55 f0       	movsd  -0x10(%rbp),%xmm2
    640d:	f2 0f 10 0d 7b de 00 	movsd  0xde7b(%rip),%xmm1        # 14290 <l_1184.4777+0x430>
    6414:	00 
    6415:	f2 0f 59 ca          	mulsd  %xmm2,%xmm1
    6419:	f2 0f 5c c1          	subsd  %xmm1,%xmm0
    641d:	f3 0f 7e 0d 7b de 00 	movq   0xde7b(%rip),%xmm1        # 142a0 <l_1184.4777+0x440>
    6424:	00 
    6425:	66 0f 54 c1          	andpd  %xmm1,%xmm0
    6429:	66 0f 2f 05 7f de 00 	comisd 0xde7f(%rip),%xmm0        # 142b0 <l_1184.4777+0x450>
    6430:	00 
    6431:	76 07                	jbe    643a <safe_sub_func_double_f_f+0x55>
    6433:	f2 0f 10 45 f8       	movsd  -0x8(%rbp),%xmm0
    6438:	eb 0a                	jmp    6444 <safe_sub_func_double_f_f+0x5f>
    643a:	f2 0f 10 45 f8       	movsd  -0x8(%rbp),%xmm0
    643f:	f2 0f 5c 45 f0       	subsd  -0x10(%rbp),%xmm0
    6444:	5d                   	pop    %rbp
    6445:	c3                   	retq   

0000000000006446 <safe_mul_func_double_f_f>:
    6446:	f3 0f 1e fa          	endbr64 
    644a:	55                   	push   %rbp
    644b:	48 89 e5             	mov    %rsp,%rbp
    644e:	f2 0f 11 45 f8       	movsd  %xmm0,-0x8(%rbp)
    6453:	f2 0f 11 4d f0       	movsd  %xmm1,-0x10(%rbp)
    6458:	f2 0f 10 4d f8       	movsd  -0x8(%rbp),%xmm1
    645d:	f2 0f 10 05 53 de 00 	movsd  0xde53(%rip),%xmm0        # 142b8 <l_1184.4777+0x458>
    6464:	00 
    6465:	f2 0f 59 c8          	mulsd  %xmm0,%xmm1
    6469:	f2 0f 10 55 f0       	movsd  -0x10(%rbp),%xmm2
    646e:	f2 0f 10 05 4a de 00 	movsd  0xde4a(%rip),%xmm0        # 142c0 <l_1184.4777+0x460>
    6475:	00 
    6476:	f2 0f 59 c2          	mulsd  %xmm2,%xmm0
    647a:	f2 0f 59 c1          	mulsd  %xmm1,%xmm0
    647e:	f3 0f 7e 0d 1a de 00 	movq   0xde1a(%rip),%xmm1        # 142a0 <l_1184.4777+0x440>
    6485:	00 
    6486:	66 0f 54 c1          	andpd  %xmm1,%xmm0
    648a:	66 0f 2f 05 36 de 00 	comisd 0xde36(%rip),%xmm0        # 142c8 <l_1184.4777+0x468>
    6491:	00 
    6492:	76 07                	jbe    649b <safe_mul_func_double_f_f+0x55>
    6494:	f2 0f 10 45 f8       	movsd  -0x8(%rbp),%xmm0
    6499:	eb 0a                	jmp    64a5 <safe_mul_func_double_f_f+0x5f>
    649b:	f2 0f 10 45 f8       	movsd  -0x8(%rbp),%xmm0
    64a0:	f2 0f 59 45 f0       	mulsd  -0x10(%rbp),%xmm0
    64a5:	5d                   	pop    %rbp
    64a6:	c3                   	retq   

00000000000064a7 <safe_div_func_double_f_f>:
    64a7:	f3 0f 1e fa          	endbr64 
    64ab:	55                   	push   %rbp
    64ac:	48 89 e5             	mov    %rsp,%rbp
    64af:	f2 0f 11 45 f8       	movsd  %xmm0,-0x8(%rbp)
    64b4:	f2 0f 11 4d f0       	movsd  %xmm1,-0x10(%rbp)
    64b9:	f2 0f 10 45 f0       	movsd  -0x10(%rbp),%xmm0
    64be:	f3 0f 7e 0d da dd 00 	movq   0xddda(%rip),%xmm1        # 142a0 <l_1184.4777+0x440>
    64c5:	00 
    64c6:	66 0f 54 c8          	andpd  %xmm0,%xmm1
    64ca:	f2 0f 10 05 fe dd 00 	movsd  0xddfe(%rip),%xmm0        # 142d0 <l_1184.4777+0x470>
    64d1:	00 
    64d2:	66 0f 2f c1          	comisd %xmm1,%xmm0
    64d6:	0f 97 c0             	seta   %al
    64d9:	83 f0 01             	xor    $0x1,%eax
    64dc:	84 c0                	test   %al,%al
    64de:	75 5a                	jne    653a <safe_div_func_double_f_f+0x93>
    64e0:	66 0f ef c0          	pxor   %xmm0,%xmm0
    64e4:	66 0f 2e 45 f0       	ucomisd -0x10(%rbp),%xmm0
    64e9:	7a 0b                	jp     64f6 <safe_div_func_double_f_f+0x4f>
    64eb:	66 0f ef c0          	pxor   %xmm0,%xmm0
    64ef:	66 0f 2e 45 f0       	ucomisd -0x10(%rbp),%xmm0
    64f4:	74 50                	je     6546 <safe_div_func_double_f_f+0x9f>
    64f6:	f2 0f 10 4d f8       	movsd  -0x8(%rbp),%xmm1
    64fb:	f2 0f 10 05 d5 dd 00 	movsd  0xddd5(%rip),%xmm0        # 142d8 <l_1184.4777+0x478>
    6502:	00 
    6503:	f2 0f 59 c1          	mulsd  %xmm1,%xmm0
    6507:	f2 0f 10 55 f0       	movsd  -0x10(%rbp),%xmm2
    650c:	f2 0f 10 0d cc dd 00 	movsd  0xddcc(%rip),%xmm1        # 142e0 <l_1184.4777+0x480>
    6513:	00 
    6514:	f2 0f 59 ca          	mulsd  %xmm2,%xmm1
    6518:	f2 0f 5e c1          	divsd  %xmm1,%xmm0
    651c:	f3 0f 7e 0d 7c dd 00 	movq   0xdd7c(%rip),%xmm1        # 142a0 <l_1184.4777+0x440>
    6523:	00 
    6524:	66 0f 54 c1          	andpd  %xmm1,%xmm0
    6528:	66 0f 2f 05 b8 dd 00 	comisd 0xddb8(%rip),%xmm0        # 142e8 <l_1184.4777+0x488>
    652f:	00 
    6530:	0f 97 c0             	seta   %al
    6533:	83 f0 01             	xor    $0x1,%eax
    6536:	84 c0                	test   %al,%al
    6538:	74 0c                	je     6546 <safe_div_func_double_f_f+0x9f>
    653a:	f2 0f 10 45 f8       	movsd  -0x8(%rbp),%xmm0
    653f:	f2 0f 5e 45 f0       	divsd  -0x10(%rbp),%xmm0
    6544:	eb 05                	jmp    654b <safe_div_func_double_f_f+0xa4>
    6546:	f2 0f 10 45 f8       	movsd  -0x8(%rbp),%xmm0
    654b:	5d                   	pop    %rbp
    654c:	c3                   	retq   

000000000000654d <safe_convert_func_float_to_int32_t>:
    654d:	f3 0f 1e fa          	endbr64 
    6551:	55                   	push   %rbp
    6552:	48 89 e5             	mov    %rsp,%rbp
    6555:	f3 0f 11 45 fc       	movss  %xmm0,-0x4(%rbp)
    655a:	f3 0f 10 05 8e dd 00 	movss  0xdd8e(%rip),%xmm0        # 142f0 <l_1184.4777+0x490>
    6561:	00 
    6562:	0f 2f 45 fc          	comiss -0x4(%rbp),%xmm0
    6566:	0f 93 c0             	setae  %al
    6569:	83 f0 01             	xor    $0x1,%eax
    656c:	84 c0                	test   %al,%al
    656e:	74 21                	je     6591 <safe_convert_func_float_to_int32_t+0x44>
    6570:	f3 0f 10 45 fc       	movss  -0x4(%rbp),%xmm0
    6575:	0f 2f 05 78 dd 00 00 	comiss 0xdd78(%rip),%xmm0        # 142f4 <l_1184.4777+0x494>
    657c:	0f 93 c0             	setae  %al
    657f:	83 f0 01             	xor    $0x1,%eax
    6582:	84 c0                	test   %al,%al
    6584:	74 0b                	je     6591 <safe_convert_func_float_to_int32_t+0x44>
    6586:	f3 0f 10 45 fc       	movss  -0x4(%rbp),%xmm0
    658b:	f3 0f 2c c0          	cvttss2si %xmm0,%eax
    658f:	eb 05                	jmp    6596 <safe_convert_func_float_to_int32_t+0x49>
    6591:	b8 ff ff ff 7f       	mov    $0x7fffffff,%eax
    6596:	5d                   	pop    %rbp
    6597:	c3                   	retq   

0000000000006598 <crc32_gentab>:
    6598:	f3 0f 1e fa          	endbr64 
    659c:	55                   	push   %rbp
    659d:	48 89 e5             	mov    %rsp,%rbp
    65a0:	c7 45 fc 20 83 b8 ed 	movl   $0xedb88320,-0x4(%rbp)
    65a7:	c7 45 f4 00 00 00 00 	movl   $0x0,-0xc(%rbp)
    65ae:	eb 51                	jmp    6601 <crc32_gentab+0x69>
    65b0:	8b 45 f4             	mov    -0xc(%rbp),%eax
    65b3:	89 45 f0             	mov    %eax,-0x10(%rbp)
    65b6:	c7 45 f8 08 00 00 00 	movl   $0x8,-0x8(%rbp)
    65bd:	eb 1e                	jmp    65dd <crc32_gentab+0x45>
    65bf:	8b 45 f0             	mov    -0x10(%rbp),%eax
    65c2:	83 e0 01             	and    $0x1,%eax
    65c5:	85 c0                	test   %eax,%eax
    65c7:	74 0d                	je     65d6 <crc32_gentab+0x3e>
    65c9:	8b 45 f0             	mov    -0x10(%rbp),%eax
    65cc:	d1 e8                	shr    %eax
    65ce:	33 45 fc             	xor    -0x4(%rbp),%eax
    65d1:	89 45 f0             	mov    %eax,-0x10(%rbp)
    65d4:	eb 03                	jmp    65d9 <crc32_gentab+0x41>
    65d6:	d1 6d f0             	shrl   -0x10(%rbp)
    65d9:	83 6d f8 01          	subl   $0x1,-0x8(%rbp)
    65dd:	83 7d f8 00          	cmpl   $0x0,-0x8(%rbp)
    65e1:	7f dc                	jg     65bf <crc32_gentab+0x27>
    65e3:	8b 45 f4             	mov    -0xc(%rbp),%eax
    65e6:	48 98                	cltq   
    65e8:	48 8d 0c 85 00 00 00 	lea    0x0(,%rax,4),%rcx
    65ef:	00 
    65f0:	48 8d 15 e9 26 01 00 	lea    0x126e9(%rip),%rdx        # 18ce0 <crc32_tab>
    65f7:	8b 45 f0             	mov    -0x10(%rbp),%eax
    65fa:	89 04 11             	mov    %eax,(%rcx,%rdx,1)
    65fd:	83 45 f4 01          	addl   $0x1,-0xc(%rbp)
    6601:	81 7d f4 ff 00 00 00 	cmpl   $0xff,-0xc(%rbp)
    6608:	7e a6                	jle    65b0 <crc32_gentab+0x18>
    660a:	90                   	nop
    660b:	90                   	nop
    660c:	5d                   	pop    %rbp
    660d:	c3                   	retq   

000000000000660e <crc32_byte>:
    660e:	f3 0f 1e fa          	endbr64 
    6612:	55                   	push   %rbp
    6613:	48 89 e5             	mov    %rsp,%rbp
    6616:	89 f8                	mov    %edi,%eax
    6618:	88 45 fc             	mov    %al,-0x4(%rbp)
    661b:	8b 05 ff 09 01 00    	mov    0x109ff(%rip),%eax        # 17020 <crc32_context>
    6621:	c1 e8 08             	shr    $0x8,%eax
    6624:	89 c1                	mov    %eax,%ecx
    6626:	0f b6 55 fc          	movzbl -0x4(%rbp),%edx
    662a:	8b 05 f0 09 01 00    	mov    0x109f0(%rip),%eax        # 17020 <crc32_context>
    6630:	31 d0                	xor    %edx,%eax
    6632:	0f b6 c0             	movzbl %al,%eax
    6635:	89 c0                	mov    %eax,%eax
    6637:	48 8d 14 85 00 00 00 	lea    0x0(,%rax,4),%rdx
    663e:	00 
    663f:	48 8d 05 9a 26 01 00 	lea    0x1269a(%rip),%rax        # 18ce0 <crc32_tab>
    6646:	8b 04 02             	mov    (%rdx,%rax,1),%eax
    6649:	31 c8                	xor    %ecx,%eax
    664b:	89 05 cf 09 01 00    	mov    %eax,0x109cf(%rip)        # 17020 <crc32_context>
    6651:	90                   	nop
    6652:	5d                   	pop    %rbp
    6653:	c3                   	retq   

0000000000006654 <crc32_8bytes>:
    6654:	f3 0f 1e fa          	endbr64 
    6658:	55                   	push   %rbp
    6659:	48 89 e5             	mov    %rsp,%rbp
    665c:	48 83 ec 08          	sub    $0x8,%rsp
    6660:	48 89 7d f8          	mov    %rdi,-0x8(%rbp)
    6664:	48 8b 45 f8          	mov    -0x8(%rbp),%rax
    6668:	0f b6 c0             	movzbl %al,%eax
    666b:	89 c7                	mov    %eax,%edi
    666d:	e8 9c ff ff ff       	callq  660e <crc32_byte>
    6672:	48 8b 45 f8          	mov    -0x8(%rbp),%rax
    6676:	48 c1 e8 08          	shr    $0x8,%rax
    667a:	0f b6 c0             	movzbl %al,%eax
    667d:	89 c7                	mov    %eax,%edi
    667f:	e8 8a ff ff ff       	callq  660e <crc32_byte>
    6684:	48 8b 45 f8          	mov    -0x8(%rbp),%rax
    6688:	48 c1 e8 10          	shr    $0x10,%rax
    668c:	0f b6 c0             	movzbl %al,%eax
    668f:	89 c7                	mov    %eax,%edi
    6691:	e8 78 ff ff ff       	callq  660e <crc32_byte>
    6696:	48 8b 45 f8          	mov    -0x8(%rbp),%rax
    669a:	48 c1 e8 18          	shr    $0x18,%rax
    669e:	0f b6 c0             	movzbl %al,%eax
    66a1:	89 c7                	mov    %eax,%edi
    66a3:	e8 66 ff ff ff       	callq  660e <crc32_byte>
    66a8:	48 8b 45 f8          	mov    -0x8(%rbp),%rax
    66ac:	48 c1 e8 20          	shr    $0x20,%rax
    66b0:	0f b6 c0             	movzbl %al,%eax
    66b3:	89 c7                	mov    %eax,%edi
    66b5:	e8 54 ff ff ff       	callq  660e <crc32_byte>
    66ba:	48 8b 45 f8          	mov    -0x8(%rbp),%rax
    66be:	48 c1 e8 28          	shr    $0x28,%rax
    66c2:	0f b6 c0             	movzbl %al,%eax
    66c5:	89 c7                	mov    %eax,%edi
    66c7:	e8 42 ff ff ff       	callq  660e <crc32_byte>
    66cc:	48 8b 45 f8          	mov    -0x8(%rbp),%rax
    66d0:	48 c1 e8 30          	shr    $0x30,%rax
    66d4:	0f b6 c0             	movzbl %al,%eax
    66d7:	89 c7                	mov    %eax,%edi
    66d9:	e8 30 ff ff ff       	callq  660e <crc32_byte>
    66de:	48 8b 45 f8          	mov    -0x8(%rbp),%rax
    66e2:	48 c1 e8 38          	shr    $0x38,%rax
    66e6:	0f b6 c0             	movzbl %al,%eax
    66e9:	89 c7                	mov    %eax,%edi
    66eb:	e8 1e ff ff ff       	callq  660e <crc32_byte>
    66f0:	90                   	nop
    66f1:	c9                   	leaveq 
    66f2:	c3                   	retq   

00000000000066f3 <transparent_crc>:
    66f3:	f3 0f 1e fa          	endbr64 
    66f7:	55                   	push   %rbp
    66f8:	48 89 e5             	mov    %rsp,%rbp
    66fb:	48 83 ec 20          	sub    $0x20,%rsp
    66ff:	48 89 7d f8          	mov    %rdi,-0x8(%rbp)
    6703:	48 89 75 f0          	mov    %rsi,-0x10(%rbp)
    6707:	89 55 ec             	mov    %edx,-0x14(%rbp)
    670a:	48 8b 45 f8          	mov    -0x8(%rbp),%rax
    670e:	48 89 c7             	mov    %rax,%rdi
    6711:	e8 3e ff ff ff       	callq  6654 <crc32_8bytes>
    6716:	83 7d ec 00          	cmpl   $0x0,-0x14(%rbp)
    671a:	74 22                	je     673e <transparent_crc+0x4b>
    671c:	8b 05 fe 08 01 00    	mov    0x108fe(%rip),%eax        # 17020 <crc32_context>
    6722:	f7 d0                	not    %eax
    6724:	89 c2                	mov    %eax,%edx
    6726:	48 8b 45 f0          	mov    -0x10(%rbp),%rax
    672a:	48 89 c6             	mov    %rax,%rsi
    672d:	48 8d 3d fc c8 00 00 	lea    0xc8fc(%rip),%rdi        # 13030 <_IO_stdin_used+0x30>
    6734:	b8 00 00 00 00       	mov    $0x0,%eax
    6739:	e8 42 e9 ff ff       	callq  5080 <printf@plt>
    673e:	90                   	nop
    673f:	c9                   	leaveq 
    6740:	c3                   	retq   

0000000000006741 <transparent_crc_bytes>:
    6741:	f3 0f 1e fa          	endbr64 
    6745:	55                   	push   %rbp
    6746:	48 89 e5             	mov    %rsp,%rbp
    6749:	48 83 ec 30          	sub    $0x30,%rsp
    674d:	48 89 7d e8          	mov    %rdi,-0x18(%rbp)
    6751:	89 75 e4             	mov    %esi,-0x1c(%rbp)
    6754:	48 89 55 d8          	mov    %rdx,-0x28(%rbp)
    6758:	89 4d e0             	mov    %ecx,-0x20(%rbp)
    675b:	c7 45 fc 00 00 00 00 	movl   $0x0,-0x4(%rbp)
    6762:	eb 1e                	jmp    6782 <transparent_crc_bytes+0x41>
    6764:	8b 45 fc             	mov    -0x4(%rbp),%eax
    6767:	48 63 d0             	movslq %eax,%rdx
    676a:	48 8b 45 e8          	mov    -0x18(%rbp),%rax
    676e:	48 01 d0             	add    %rdx,%rax
    6771:	0f b6 00             	movzbl (%rax),%eax
    6774:	0f b6 c0             	movzbl %al,%eax
    6777:	89 c7                	mov    %eax,%edi
    6779:	e8 90 fe ff ff       	callq  660e <crc32_byte>
    677e:	83 45 fc 01          	addl   $0x1,-0x4(%rbp)
    6782:	8b 45 fc             	mov    -0x4(%rbp),%eax
    6785:	3b 45 e4             	cmp    -0x1c(%rbp),%eax
    6788:	7c da                	jl     6764 <transparent_crc_bytes+0x23>
    678a:	83 7d e0 00          	cmpl   $0x0,-0x20(%rbp)
    678e:	74 22                	je     67b2 <transparent_crc_bytes+0x71>
    6790:	8b 05 8a 08 01 00    	mov    0x1088a(%rip),%eax        # 17020 <crc32_context>
    6796:	f7 d0                	not    %eax
    6798:	89 c2                	mov    %eax,%edx
    679a:	48 8b 45 d8          	mov    -0x28(%rbp),%rax
    679e:	48 89 c6             	mov    %rax,%rsi
    67a1:	48 8d 3d 88 c8 00 00 	lea    0xc888(%rip),%rdi        # 13030 <_IO_stdin_used+0x30>
    67a8:	b8 00 00 00 00       	mov    $0x0,%eax
    67ad:	e8 ce e8 ff ff       	callq  5080 <printf@plt>
    67b2:	90                   	nop
    67b3:	c9                   	leaveq 
    67b4:	c3                   	retq   

00000000000067b5 <func_1>:
    67b5:	f3 0f 1e fa          	endbr64 
    67b9:	55                   	push   %rbp
    67ba:	48 89 e5             	mov    %rsp,%rbp
    67bd:	48 81 ec 40 05 00 00 	sub    $0x540,%rsp
    67c4:	64 48 8b 04 25 28 00 	mov    %fs:0x28,%rax
    67cb:	00 00 
    67cd:	48 89 45 f8          	mov    %rax,-0x8(%rbp)
    67d1:	31 c0                	xor    %eax,%eax
    67d3:	48 8d 05 56 09 01 00 	lea    0x10956(%rip),%rax        # 17130 <g_630>
    67da:	48 89 85 e8 fa ff ff 	mov    %rax,-0x518(%rbp)
    67e1:	48 c7 85 a0 fb ff ff 	movq   $0x0,-0x460(%rbp)
    67e8:	00 00 00 00 
    67ec:	48 8d 85 e8 fa ff ff 	lea    -0x518(%rbp),%rax
    67f3:	48 89 85 a8 fb ff ff 	mov    %rax,-0x458(%rbp)
    67fa:	48 c7 85 b0 fb ff ff 	movq   $0x0,-0x450(%rbp)
    6801:	00 00 00 00 
    6805:	48 8d 85 e8 fa ff ff 	lea    -0x518(%rbp),%rax
    680c:	48 89 85 b8 fb ff ff 	mov    %rax,-0x448(%rbp)
    6813:	48 c7 85 c0 fb ff ff 	movq   $0x0,-0x440(%rbp)
    681a:	00 00 00 00 
    681e:	48 8d 85 e8 fa ff ff 	lea    -0x518(%rbp),%rax
    6825:	48 89 85 c8 fb ff ff 	mov    %rax,-0x438(%rbp)
    682c:	48 c7 85 d0 fb ff ff 	movq   $0x0,-0x430(%rbp)
    6833:	00 00 00 00 
    6837:	48 8d 85 e8 fa ff ff 	lea    -0x518(%rbp),%rax
    683e:	48 89 85 d8 fb ff ff 	mov    %rax,-0x428(%rbp)
    6845:	48 c7 85 e0 fb ff ff 	movq   $0x0,-0x420(%rbp)
    684c:	00 00 00 00 
    6850:	c7 85 c0 fc ff ff 01 	movl   $0x1,-0x340(%rbp)
    6857:	00 00 00 
    685a:	c7 85 c4 fc ff ff 6b 	movl   $0x25e3526b,-0x33c(%rbp)
    6861:	52 e3 25 
    6864:	c7 85 c8 fc ff ff dd 	movl   $0x865446dd,-0x338(%rbp)
    686b:	46 54 86 
    686e:	c7 85 cc fc ff ff dd 	movl   $0x865446dd,-0x334(%rbp)
    6875:	46 54 86 
    6878:	c7 85 d0 fc ff ff 6b 	movl   $0x25e3526b,-0x330(%rbp)
    687f:	52 e3 25 
    6882:	c7 85 d4 fc ff ff 01 	movl   $0x1,-0x32c(%rbp)
    6889:	00 00 00 
    688c:	c7 85 d8 fc ff ff 6b 	movl   $0x25e3526b,-0x328(%rbp)
    6893:	52 e3 25 
    6896:	c7 85 dc fc ff ff dd 	movl   $0x865446dd,-0x324(%rbp)
    689d:	46 54 86 
    68a0:	c7 85 e0 fc ff ff fe 	movl   $0xfffffffe,-0x320(%rbp)
    68a7:	ff ff ff 
    68aa:	c7 85 e4 fc ff ff 6b 	movl   $0x25e3526b,-0x31c(%rbp)
    68b1:	52 e3 25 
    68b4:	c7 85 e8 fc ff ff fe 	movl   $0xfffffffe,-0x318(%rbp)
    68bb:	ff ff ff 
    68be:	c7 85 ec fc ff ff 01 	movl   $0x1,-0x314(%rbp)
    68c5:	00 00 00 
    68c8:	c7 85 f0 fc ff ff 01 	movl   $0x1,-0x310(%rbp)
    68cf:	00 00 00 
    68d2:	c7 85 f4 fc ff ff fe 	movl   $0xfffffffe,-0x30c(%rbp)
    68d9:	ff ff ff 
    68dc:	c7 85 f8 fc ff ff 6b 	movl   $0x25e3526b,-0x308(%rbp)
    68e3:	52 e3 25 
    68e6:	c7 85 fc fc ff ff fe 	movl   $0xfffffffe,-0x304(%rbp)
    68ed:	ff ff ff 
    68f0:	c7 85 00 fd ff ff 00 	movl   $0x0,-0x300(%rbp)
    68f7:	00 00 00 
    68fa:	c7 85 04 fd ff ff 01 	movl   $0x1,-0x2fc(%rbp)
    6901:	00 00 00 
    6904:	c7 85 08 fd ff ff 6b 	movl   $0x25e3526b,-0x2f8(%rbp)
    690b:	52 e3 25 
    690e:	c7 85 0c fd ff ff fe 	movl   $0xfffffffe,-0x2f4(%rbp)
    6915:	ff ff ff 
    6918:	c7 85 10 fd ff ff 01 	movl   $0x1,-0x2f0(%rbp)
    691f:	00 00 00 
    6922:	c7 85 14 fd ff ff 01 	movl   $0x1,-0x2ec(%rbp)
    6929:	00 00 00 
    692c:	c7 85 18 fd ff ff fe 	movl   $0xfffffffe,-0x2e8(%rbp)
    6933:	ff ff ff 
    6936:	c7 85 1c fd ff ff 6b 	movl   $0x25e3526b,-0x2e4(%rbp)
    693d:	52 e3 25 
    6940:	c7 85 20 fd ff ff 01 	movl   $0x1,-0x2e0(%rbp)
    6947:	00 00 00 
    694a:	c7 85 24 fd ff ff 01 	movl   $0x1,-0x2dc(%rbp)
    6951:	00 00 00 
    6954:	c7 85 28 fd ff ff fe 	movl   $0xfffffffe,-0x2d8(%rbp)
    695b:	ff ff ff 
    695e:	c7 85 2c fd ff ff 6b 	movl   $0x25e3526b,-0x2d4(%rbp)
    6965:	52 e3 25 
    6968:	c7 85 30 fd ff ff fe 	movl   $0xfffffffe,-0x2d0(%rbp)
    696f:	ff ff ff 
    6972:	c7 85 34 fd ff ff 01 	movl   $0x1,-0x2cc(%rbp)
    6979:	00 00 00 
    697c:	c7 85 38 fd ff ff 01 	movl   $0x1,-0x2c8(%rbp)
    6983:	00 00 00 
    6986:	c7 85 3c fd ff ff fe 	movl   $0xfffffffe,-0x2c4(%rbp)
    698d:	ff ff ff 
    6990:	c7 85 40 fd ff ff dd 	movl   $0x865446dd,-0x2c0(%rbp)
    6997:	46 54 86 
    699a:	c7 85 44 fd ff ff fe 	movl   $0xfffffffe,-0x2bc(%rbp)
    69a1:	ff ff ff 
    69a4:	c7 85 48 fd ff ff fe 	movl   $0xfffffffe,-0x2b8(%rbp)
    69ab:	ff ff ff 
    69ae:	c7 85 4c fd ff ff dd 	movl   $0x865446dd,-0x2b4(%rbp)
    69b5:	46 54 86 
    69b8:	c7 85 50 fd ff ff 00 	movl   $0x0,-0x2b0(%rbp)
    69bf:	00 00 00 
    69c2:	c7 85 54 fd ff ff dd 	movl   $0x865446dd,-0x2ac(%rbp)
    69c9:	46 54 86 
    69cc:	c7 85 58 fd ff ff fe 	movl   $0xfffffffe,-0x2a8(%rbp)
    69d3:	ff ff ff 
    69d6:	c7 85 5c fd ff ff fe 	movl   $0xfffffffe,-0x2a4(%rbp)
    69dd:	ff ff ff 
    69e0:	c7 85 60 fd ff ff fe 	movl   $0xfffffffe,-0x2a0(%rbp)
    69e7:	ff ff ff 
    69ea:	c7 85 64 fd ff ff 00 	movl   $0x0,-0x29c(%rbp)
    69f1:	00 00 00 
    69f4:	c7 85 68 fd ff ff 6b 	movl   $0x25e3526b,-0x298(%rbp)
    69fb:	52 e3 25 
    69fe:	c7 85 6c fd ff ff 6b 	movl   $0x25e3526b,-0x294(%rbp)
    6a05:	52 e3 25 
    6a08:	c7 85 70 fd ff ff 00 	movl   $0x0,-0x290(%rbp)
    6a0f:	00 00 00 
    6a12:	c7 85 74 fd ff ff fe 	movl   $0xfffffffe,-0x28c(%rbp)
    6a19:	ff ff ff 
    6a1c:	c7 85 78 fd ff ff 00 	movl   $0x0,-0x288(%rbp)
    6a23:	00 00 00 
    6a26:	c7 85 7c fd ff ff 6b 	movl   $0x25e3526b,-0x284(%rbp)
    6a2d:	52 e3 25 
    6a30:	c7 85 80 fd ff ff dd 	movl   $0x865446dd,-0x280(%rbp)
    6a37:	46 54 86 
    6a3a:	c7 85 84 fd ff ff 00 	movl   $0x0,-0x27c(%rbp)
    6a41:	00 00 00 
    6a44:	c7 85 88 fd ff ff dd 	movl   $0x865446dd,-0x278(%rbp)
    6a4b:	46 54 86 
    6a4e:	c7 85 8c fd ff ff fe 	movl   $0xfffffffe,-0x274(%rbp)
    6a55:	ff ff ff 
    6a58:	c7 85 90 fd ff ff fe 	movl   $0xfffffffe,-0x270(%rbp)
    6a5f:	ff ff ff 
    6a62:	c7 85 94 fd ff ff dd 	movl   $0x865446dd,-0x26c(%rbp)
    6a69:	46 54 86 
    6a6c:	c7 85 98 fd ff ff 00 	movl   $0x0,-0x268(%rbp)
    6a73:	00 00 00 
    6a76:	c7 85 9c fd ff ff dd 	movl   $0x865446dd,-0x264(%rbp)
    6a7d:	46 54 86 
    6a80:	c7 85 cc fa ff ff 03 	movl   $0x3,-0x534(%rbp)
    6a87:	00 00 00 
    6a8a:	c7 85 dc fa ff ff 01 	movl   $0x1,-0x524(%rbp)
    6a91:	00 00 00 
    6a94:	48 8d 05 9d 06 01 00 	lea    0x1069d(%rip),%rax        # 17138 <g_648>
    6a9b:	48 89 85 f0 fa ff ff 	mov    %rax,-0x510(%rbp)
    6aa2:	48 8d 85 70 fb ff ff 	lea    -0x490(%rbp),%rax
    6aa9:	48 83 c0 08          	add    $0x8,%rax
    6aad:	48 89 85 f8 fa ff ff 	mov    %rax,-0x508(%rbp)
    6ab4:	c7 85 40 fc ff ff f9 	movl   $0xfffffff9,-0x3c0(%rbp)
    6abb:	ff ff ff 
    6abe:	c7 85 44 fc ff ff f5 	movl   $0x9629d7f5,-0x3bc(%rbp)
    6ac5:	d7 29 96 
    6ac8:	c7 85 48 fc ff ff f5 	movl   $0x9629d7f5,-0x3b8(%rbp)
    6acf:	d7 29 96 
    6ad2:	c7 85 4c fc ff ff f9 	movl   $0xfffffff9,-0x3b4(%rbp)
    6ad9:	ff ff ff 
    6adc:	c7 85 50 fc ff ff ec 	movl   $0xa13223ec,-0x3b0(%rbp)
    6ae3:	23 32 a1 
    6ae6:	c7 85 54 fc ff ff 35 	movl   $0xd48f2935,-0x3ac(%rbp)
    6aed:	29 8f d4 
    6af0:	c7 85 58 fc ff ff f5 	movl   $0x9629d7f5,-0x3a8(%rbp)
    6af7:	d7 29 96 
    6afa:	c7 85 5c fc ff ff c6 	movl   $0xb2a456c6,-0x3a4(%rbp)
    6b01:	56 a4 b2 
    6b04:	c7 85 60 fc ff ff f9 	movl   $0xfffffff9,-0x3a0(%rbp)
    6b0b:	ff ff ff 
    6b0e:	c7 85 64 fc ff ff 66 	movl   $0x72bacc66,-0x39c(%rbp)
    6b15:	cc ba 72 
    6b18:	c7 85 68 fc ff ff f8 	movl   $0xfffffff8,-0x398(%rbp)
    6b1f:	ff ff ff 
    6b22:	c7 85 6c fc ff ff 66 	movl   $0x72bacc66,-0x394(%rbp)
    6b29:	cc ba 72 
    6b2c:	c7 85 70 fc ff ff 66 	movl   $0x72bacc66,-0x390(%rbp)
    6b33:	cc ba 72 
    6b36:	c7 85 74 fc ff ff f5 	movl   $0x9629d7f5,-0x38c(%rbp)
    6b3d:	d7 29 96 
    6b40:	c7 85 78 fc ff ff ec 	movl   $0xa13223ec,-0x388(%rbp)
    6b47:	23 32 a1 
    6b4a:	c7 85 7c fc ff ff 66 	movl   $0x72bacc66,-0x384(%rbp)
    6b51:	cc ba 72 
    6b54:	c7 85 80 fc ff ff ec 	movl   $0xa13223ec,-0x380(%rbp)
    6b5b:	23 32 a1 
    6b5e:	c7 85 84 fc ff ff 66 	movl   $0x72bacc66,-0x37c(%rbp)
    6b65:	cc ba 72 
    6b68:	c7 85 88 fc ff ff c6 	movl   $0xb2a456c6,-0x378(%rbp)
    6b6f:	56 a4 b2 
    6b72:	c7 85 8c fc ff ff c6 	movl   $0xb2a456c6,-0x374(%rbp)
    6b79:	56 a4 b2 
    6b7c:	c7 85 90 fc ff ff 35 	movl   $0xd48f2935,-0x370(%rbp)
    6b83:	29 8f d4 
    6b86:	c7 85 94 fc ff ff 35 	movl   $0xd48f2935,-0x36c(%rbp)
    6b8d:	29 8f d4 
    6b90:	c7 85 98 fc ff ff f8 	movl   $0xfffffff8,-0x368(%rbp)
    6b97:	ff ff ff 
    6b9a:	c7 85 9c fc ff ff f9 	movl   $0xfffffff9,-0x364(%rbp)
    6ba1:	ff ff ff 
    6ba4:	c7 85 a0 fc ff ff 35 	movl   $0xd48f2935,-0x360(%rbp)
    6bab:	29 8f d4 
    6bae:	c7 85 a4 fc ff ff f5 	movl   $0x9629d7f5,-0x35c(%rbp)
    6bb5:	d7 29 96 
    6bb8:	c7 85 a8 fc ff ff c6 	movl   $0xb2a456c6,-0x358(%rbp)
    6bbf:	56 a4 b2 
    6bc2:	c7 85 ac fc ff ff 35 	movl   $0xd48f2935,-0x354(%rbp)
    6bc9:	29 8f d4 
    6bcc:	c7 85 b0 fc ff ff ec 	movl   $0xa13223ec,-0x350(%rbp)
    6bd3:	23 32 a1 
    6bd6:	c7 85 b4 fc ff ff f9 	movl   $0xfffffff9,-0x34c(%rbp)
    6bdd:	ff ff ff 
    6be0:	c7 85 b8 fc ff ff ec 	movl   $0xa13223ec,-0x348(%rbp)
    6be7:	23 32 a1 
    6bea:	c7 85 bc fc ff ff c6 	movl   $0xb2a456c6,-0x344(%rbp)
    6bf1:	56 a4 b2 
    6bf4:	48 c7 85 00 fb ff ff 	movq   $0x0,-0x500(%rbp)
    6bfb:	00 00 00 00 
    6bff:	48 8d 85 cc fa ff ff 	lea    -0x534(%rbp),%rax
    6c06:	48 89 85 08 fb ff ff 	mov    %rax,-0x4f8(%rbp)
    6c0d:	48 8d 05 24 04 01 00 	lea    0x10424(%rip),%rax        # 17038 <g_70>
    6c14:	48 89 85 10 fb ff ff 	mov    %rax,-0x4f0(%rbp)
    6c1b:	48 b8 11 6f 4c ad 78 	movabs $0x65f7ad78ad4c6f11,%rax
    6c22:	ad f7 65 
    6c25:	48 89 85 18 fb ff ff 	mov    %rax,-0x4e8(%rbp)
    6c2c:	c6 85 cb fa ff ff 27 	movb   $0x27,-0x535(%rbp)
    6c33:	c7 85 e0 fa ff ff 01 	movl   $0x1,-0x520(%rbp)
    6c3a:	00 00 00 
    6c3d:	c7 85 d4 fa ff ff 00 	movl   $0x0,-0x52c(%rbp)
    6c44:	00 00 00 
    6c47:	eb 1e                	jmp    6c67 <func_1+0x4b2>
    6c49:	8b 85 d4 fa ff ff    	mov    -0x52c(%rbp),%eax
    6c4f:	48 98                	cltq   
    6c51:	48 8d 95 f0 fa ff ff 	lea    -0x510(%rbp),%rdx
    6c58:	48 89 94 c5 70 fb ff 	mov    %rdx,-0x490(%rbp,%rax,8)
    6c5f:	ff 
    6c60:	83 85 d4 fa ff ff 01 	addl   $0x1,-0x52c(%rbp)
    6c67:	83 bd d4 fa ff ff 01 	cmpl   $0x1,-0x52c(%rbp)
    6c6e:	7e d9                	jle    6c49 <func_1+0x494>
    6c70:	c7 85 d4 fa ff ff 00 	movl   $0x0,-0x52c(%rbp)
    6c77:	00 00 00 
    6c7a:	eb 1b                	jmp    6c97 <func_1+0x4e2>
    6c7c:	8b 85 d4 fa ff ff    	mov    -0x52c(%rbp),%eax
    6c82:	48 98                	cltq   
    6c84:	48 c7 84 c5 80 fb ff 	movq   $0x0,-0x480(%rbp,%rax,8)
    6c8b:	ff 00 00 00 00 
    6c90:	83 85 d4 fa ff ff 01 	addl   $0x1,-0x52c(%rbp)
    6c97:	83 bd d4 fa ff ff 02 	cmpl   $0x2,-0x52c(%rbp)
    6c9e:	7e dc                	jle    6c7c <func_1+0x4c7>
    6ca0:	c7 05 7a 03 01 00 00 	movl   $0x0,0x1037a(%rip)        # 17024 <g_2>
    6ca7:	00 00 00 
    6caa:	e9 55 01 00 00       	jmpq   6e04 <func_1+0x64f>
    6caf:	48 8d 05 82 03 01 00 	lea    0x10382(%rip),%rax        # 17038 <g_70>
    6cb6:	48 89 85 20 fb ff ff 	mov    %rax,-0x4e0(%rbp)
    6cbd:	c7 85 d0 fa ff ff 54 	movl   $0xd7319b54,-0x530(%rbp)
    6cc4:	9b 31 d7 
    6cc7:	48 c7 85 28 fb ff ff 	movq   $0x0,-0x4d8(%rbp)
    6cce:	00 00 00 00 
    6cd2:	48 8d 85 c0 fc ff ff 	lea    -0x340(%rbp),%rax
    6cd9:	48 83 c0 28          	add    $0x28,%rax
    6cdd:	48 89 85 30 fb ff ff 	mov    %rax,-0x4d0(%rbp)
    6ce4:	48 8d 05 3e 03 01 00 	lea    0x1033e(%rip),%rax        # 17029 <g_32>
    6ceb:	48 89 85 38 fb ff ff 	mov    %rax,-0x4c8(%rbp)
    6cf2:	c7 85 e4 fa ff ff 33 	movl   $0xb9bb9633,-0x51c(%rbp)
    6cf9:	96 bb b9 
    6cfc:	48 8d 85 a0 fd ff ff 	lea    -0x260(%rbp),%rax
    6d03:	48 8d 15 76 c3 00 00 	lea    0xc376(%rip),%rdx        # 13080 <g_2076+0x20>
    6d0a:	b9 4b 00 00 00       	mov    $0x4b,%ecx
    6d0f:	48 89 c7             	mov    %rax,%rdi
    6d12:	48 89 d6             	mov    %rdx,%rsi
    6d15:	f3 48 a5             	rep movsq %ds:(%rsi),%es:(%rdi)
    6d18:	48 c7 85 40 fb ff ff 	movq   $0xffffffffffffffff,-0x4c0(%rbp)
    6d1f:	ff ff ff ff 
    6d23:	48 c7 85 48 fb ff ff 	movq   $0x0,-0x4b8(%rbp)
    6d2a:	00 00 00 00 
    6d2e:	48 8d 05 5d 03 01 00 	lea    0x1035d(%rip),%rax        # 17092 <g_327>
    6d35:	48 89 85 50 fb ff ff 	mov    %rax,-0x4b0(%rbp)
    6d3c:	48 8d 05 15 24 01 00 	lea    0x12415(%rip),%rax        # 19158 <g_303>
    6d43:	48 89 85 58 fb ff ff 	mov    %rax,-0x4a8(%rbp)
    6d4a:	48 c7 85 f0 fb ff ff 	movq   $0x0,-0x410(%rbp)
    6d51:	00 00 00 00 
    6d55:	48 c7 85 f8 fb ff ff 	movq   $0x0,-0x408(%rbp)
    6d5c:	00 00 00 00 
    6d60:	48 c7 85 00 fc ff ff 	movq   $0x0,-0x400(%rbp)
    6d67:	00 00 00 00 
    6d6b:	48 c7 85 08 fc ff ff 	movq   $0x0,-0x3f8(%rbp)
    6d72:	00 00 00 00 
    6d76:	48 c7 85 10 fc ff ff 	movq   $0x0,-0x3f0(%rbp)
    6d7d:	00 00 00 00 
    6d81:	48 c7 85 18 fc ff ff 	movq   $0x0,-0x3e8(%rbp)
    6d88:	00 00 00 00 
    6d8c:	48 c7 85 20 fc ff ff 	movq   $0x0,-0x3e0(%rbp)
    6d93:	00 00 00 00 
    6d97:	48 c7 85 28 fc ff ff 	movq   $0x0,-0x3d8(%rbp)
    6d9e:	00 00 00 00 
    6da2:	48 c7 85 30 fc ff ff 	movq   $0x0,-0x3d0(%rbp)
    6da9:	00 00 00 00 
    6dad:	48 c7 85 38 fc ff ff 	movq   $0x0,-0x3c8(%rbp)
    6db4:	00 00 00 00 
    6db8:	48 8d 85 d0 fa ff ff 	lea    -0x530(%rbp),%rax
    6dbf:	48 89 85 60 fb ff ff 	mov    %rax,-0x4a0(%rbp)
    6dc6:	c7 85 d8 fa ff ff 00 	movl   $0x0,-0x528(%rbp)
    6dcd:	00 00 00 
    6dd0:	eb 1a                	jmp    6dec <func_1+0x637>
    6dd2:	8b 85 d8 fa ff ff    	mov    -0x528(%rbp),%eax
    6dd8:	48 98                	cltq   
    6dda:	c7 84 85 6c fb ff ff 	movl   $0x0,-0x494(%rbp,%rax,4)
    6de1:	00 00 00 00 
    6de5:	83 85 d8 fa ff ff 01 	addl   $0x1,-0x528(%rbp)
    6dec:	83 bd d8 fa ff ff 00 	cmpl   $0x0,-0x528(%rbp)
    6df3:	7e dd                	jle    6dd2 <func_1+0x61d>
    6df5:	8b 05 29 02 01 00    	mov    0x10229(%rip),%eax        # 17024 <g_2>
    6dfb:	83 e8 01             	sub    $0x1,%eax
    6dfe:	89 05 20 02 01 00    	mov    %eax,0x10220(%rip)        # 17024 <g_2>
    6e04:	8b 05 1a 02 01 00    	mov    0x1021a(%rip),%eax        # 17024 <g_2>
    6e0a:	83 f8 ef             	cmp    $0xffffffef,%eax
    6e0d:	0f 85 9c fe ff ff    	jne    6caf <func_1+0x4fa>
    6e13:	83 85 e0 fa ff ff 01 	addl   $0x1,-0x520(%rbp)
    6e1a:	48 8b 05 ef 0d 01 00 	mov    0x10def(%rip),%rax        # 17c10 <g_181>
    6e21:	48 8b 00             	mov    (%rax),%rax
    6e24:	48 8b 10             	mov    (%rax),%rdx
    6e27:	48 8b 05 ea 0d 01 00 	mov    0x10dea(%rip),%rax        # 17c18 <g_180>
    6e2e:	48 8b 00             	mov    (%rax),%rax
    6e31:	48 8b 00             	mov    (%rax),%rax
    6e34:	48 8b 00             	mov    (%rax),%rax
    6e37:	48 8b 12             	mov    (%rdx),%rdx
    6e3a:	48 89 10             	mov    %rdx,(%rax)
    6e3d:	48 8b 05 24 1e 01 00 	mov    0x11e24(%rip),%rax        # 18c68 <g_2022>
    6e44:	0f b7 00             	movzwl (%rax),%eax
    6e47:	48 8b 4d f8          	mov    -0x8(%rbp),%rcx
    6e4b:	64 48 33 0c 25 28 00 	xor    %fs:0x28,%rcx
    6e52:	00 00 
    6e54:	74 05                	je     6e5b <func_1+0x6a6>
    6e56:	e8 15 e2 ff ff       	callq  5070 <__stack_chk_fail@plt>
    6e5b:	c9                   	leaveq 
    6e5c:	c3                   	retq   

0000000000006e5d <func_7>:
    6e5d:	f3 0f 1e fa          	endbr64 
    6e61:	55                   	push   %rbp
    6e62:	48 89 e5             	mov    %rsp,%rbp
    6e65:	53                   	push   %rbx
    6e66:	48 81 ec 48 02 00 00 	sub    $0x248,%rsp
    6e6d:	89 f9                	mov    %edi,%ecx
    6e6f:	48 89 b5 b0 fd ff ff 	mov    %rsi,-0x250(%rbp)
    6e76:	89 d0                	mov    %edx,%eax
    6e78:	89 ca                	mov    %ecx,%edx
    6e7a:	88 95 bc fd ff ff    	mov    %dl,-0x244(%rbp)
    6e80:	88 85 b8 fd ff ff    	mov    %al,-0x248(%rbp)
    6e86:	64 48 8b 04 25 28 00 	mov    %fs:0x28,%rax
    6e8d:	00 00 
    6e8f:	48 89 45 e8          	mov    %rax,-0x18(%rbp)
    6e93:	31 c0                	xor    %eax,%eax
    6e95:	48 8d 85 e0 fd ff ff 	lea    -0x220(%rbp),%rax
    6e9c:	48 8d 15 3d 04 01 00 	lea    0x1043d(%rip),%rdx        # 172e0 <g_2364+0x20>
    6ea3:	b9 40 00 00 00       	mov    $0x40,%ecx
    6ea8:	48 89 c7             	mov    %rax,%rdi
    6eab:	48 89 d6             	mov    %rdx,%rsi
    6eae:	f3 48 a5             	rep movsq %ds:(%rsi),%es:(%rdi)
    6eb1:	48 8d 85 e0 fd ff ff 	lea    -0x220(%rbp),%rax
    6eb8:	48 05 28 01 00 00    	add    $0x128,%rax
    6ebe:	48 89 85 d0 fd ff ff 	mov    %rax,-0x230(%rbp)
    6ec5:	c7 85 c8 fd ff ff ea 	movl   $0xd54043ea,-0x238(%rbp)
    6ecc:	43 40 d5 
    6ecf:	48 8d 05 72 22 01 00 	lea    0x12272(%rip),%rax        # 19148 <g_107>
    6ed6:	48 89 85 d8 fd ff ff 	mov    %rax,-0x228(%rbp)
    6edd:	c7 85 cc fd ff ff 84 	movl   $0xe980f084,-0x234(%rbp)
    6ee4:	f0 80 e9 
    6ee7:	48 83 bd d0 fd ff ff 	cmpq   $0x0,-0x230(%rbp)
    6eee:	00 
    6eef:	0f 94 c0             	sete   %al
    6ef2:	0f b6 c0             	movzbl %al,%eax
    6ef5:	23 85 c8 fd ff ff    	and    -0x238(%rbp),%eax
    6efb:	89 c2                	mov    %eax,%edx
    6efd:	0f b6 85 bc fd ff ff 	movzbl -0x244(%rbp),%eax
    6f04:	39 c2                	cmp    %eax,%edx
    6f06:	0f be 9d b8 fd ff ff 	movsbl -0x248(%rbp),%ebx
    6f0d:	8b 85 c8 fd ff ff    	mov    -0x238(%rbp),%eax
    6f13:	98                   	cwtl   
    6f14:	be 0f 00 00 00       	mov    $0xf,%esi
    6f19:	89 c7                	mov    %eax,%edi
    6f1b:	e8 43 e6 ff ff       	callq  5563 <safe_rshift_func_int16_t_s_u>
    6f20:	98                   	cwtl   
    6f21:	89 de                	mov    %ebx,%esi
    6f23:	89 c7                	mov    %eax,%edi
    6f25:	e8 fb ef ff ff       	callq  5f25 <safe_div_func_uint32_t_u_u>
    6f2a:	89 c2                	mov    %eax,%edx
    6f2c:	48 8b 05 ad 1b 01 00 	mov    0x11bad(%rip),%rax        # 18ae0 <g_1167>
    6f33:	48 8b 00             	mov    (%rax),%rax
    6f36:	48 8b 00             	mov    (%rax),%rax
    6f39:	48 89 d6             	mov    %rdx,%rsi
    6f3c:	48 89 c7             	mov    %rax,%rdi
    6f3f:	e8 70 ea ff ff       	callq  59b4 <safe_mod_func_int64_t_s_s>
    6f44:	80 bd bc fd ff ff 01 	cmpb   $0x1,-0x244(%rbp)
    6f4b:	0f 95 c2             	setne  %dl
    6f4e:	0f b6 d2             	movzbl %dl,%edx
    6f51:	48 39 d0             	cmp    %rdx,%rax
    6f54:	be 03 00 00 00       	mov    $0x3,%esi
    6f59:	bf 12 00 00 00       	mov    $0x12,%edi
    6f5e:	e8 2a ed ff ff       	callq  5c8d <safe_rshift_func_uint8_t_u_s>
    6f63:	84 c0                	test   %al,%al
    6f65:	0f 94 c0             	sete   %al
    6f68:	0f b6 d0             	movzbl %al,%edx
    6f6b:	48 8b 85 d8 fd ff ff 	mov    -0x228(%rbp),%rax
    6f72:	89 10                	mov    %edx,(%rax)
    6f74:	80 bd b8 fd ff ff 00 	cmpb   $0x0,-0x248(%rbp)
    6f7b:	74 07                	je     6f84 <func_7+0x127>
    6f7d:	b8 01 00 00 00       	mov    $0x1,%eax
    6f82:	eb 05                	jmp    6f89 <func_7+0x12c>
    6f84:	b8 00 00 00 00       	mov    $0x0,%eax
    6f89:	31 85 cc fd ff ff    	xor    %eax,-0x234(%rbp)
    6f8f:	8b 85 cc fd ff ff    	mov    -0x234(%rbp),%eax
    6f95:	48 8b 5d e8          	mov    -0x18(%rbp),%rbx
    6f99:	64 48 33 1c 25 28 00 	xor    %fs:0x28,%rbx
    6fa0:	00 00 
    6fa2:	74 05                	je     6fa9 <func_7+0x14c>
    6fa4:	e8 c7 e0 ff ff       	callq  5070 <__stack_chk_fail@plt>
    6fa9:	48 81 c4 48 02 00 00 	add    $0x248,%rsp
    6fb0:	5b                   	pop    %rbx
    6fb1:	5d                   	pop    %rbp
    6fb2:	c3                   	retq   

0000000000006fb3 <func_11>:
    6fb3:	f3 0f 1e fa          	endbr64 
    6fb7:	55                   	push   %rbp
    6fb8:	48 89 e5             	mov    %rsp,%rbp
    6fbb:	41 57                	push   %r15
    6fbd:	41 56                	push   %r14
    6fbf:	41 55                	push   %r13
    6fc1:	41 54                	push   %r12
    6fc3:	53                   	push   %rbx
    6fc4:	48 81 ec 00 10 00 00 	sub    $0x1000,%rsp
    6fcb:	48 83 0c 24 00       	orq    $0x0,(%rsp)
    6fd0:	48 81 ec b8 0b 00 00 	sub    $0xbb8,%rsp
    6fd7:	48 89 bd 48 e4 ff ff 	mov    %rdi,-0x1bb8(%rbp)
    6fde:	89 f0                	mov    %esi,%eax
    6fe0:	48 89 95 38 e4 ff ff 	mov    %rdx,-0x1bc8(%rbp)
    6fe7:	89 8d 40 e4 ff ff    	mov    %ecx,-0x1bc0(%rbp)
    6fed:	88 85 44 e4 ff ff    	mov    %al,-0x1bbc(%rbp)
    6ff3:	64 48 8b 04 25 28 00 	mov    %fs:0x28,%rax
    6ffa:	00 00 
    6ffc:	48 89 45 c8          	mov    %rax,-0x38(%rbp)
    7000:	31 c0                	xor    %eax,%eax
    7002:	c7 85 6c e4 ff ff 00 	movl   $0x0,-0x1b94(%rbp)
    7009:	00 00 00 
    700c:	48 c7 85 38 e5 ff ff 	movq   $0x0,-0x1ac8(%rbp)
    7013:	00 00 00 00 
    7017:	48 8d 85 38 e5 ff ff 	lea    -0x1ac8(%rbp),%rax
    701e:	48 89 85 e8 e5 ff ff 	mov    %rax,-0x1a18(%rbp)
    7025:	48 8d 05 18 01 01 00 	lea    0x10118(%rip),%rax        # 17144 <g_774>
    702c:	48 89 85 f0 e5 ff ff 	mov    %rax,-0x1a10(%rbp)
    7033:	48 8d 05 05 00 01 00 	lea    0x10005(%rip),%rax        # 1703f <g_124+0x1>
    703a:	48 89 85 40 e5 ff ff 	mov    %rax,-0x1ac0(%rbp)
    7041:	c7 85 70 e4 ff ff 03 	movl   $0x3,-0x1b90(%rbp)
    7048:	00 00 00 
    704b:	48 8d 05 86 00 01 00 	lea    0x10086(%rip),%rax        # 170d8 <g_459+0x8>
    7052:	48 89 85 48 e5 ff ff 	mov    %rax,-0x1ab8(%rbp)
    7059:	48 8d 85 48 e5 ff ff 	lea    -0x1ab8(%rbp),%rax
    7060:	48 89 85 50 e5 ff ff 	mov    %rax,-0x1ab0(%rbp)
    7067:	48 8d 85 50 e5 ff ff 	lea    -0x1ab0(%rbp),%rax
    706e:	48 89 85 d8 e5 ff ff 	mov    %rax,-0x1a28(%rbp)
    7075:	c7 85 74 e4 ff ff 1f 	movl   $0xa1c6331f,-0x1b8c(%rbp)
    707c:	33 c6 a1 
    707f:	66 c7 85 5a e4 ff ff 	movw   $0x7,-0x1ba6(%rbp)
    7086:	07 00 
    7088:	48 8d 05 f9 18 01 00 	lea    0x118f9(%rip),%rax        # 18988 <g_1168+0x88>
    708f:	48 89 85 e0 e5 ff ff 	mov    %rax,-0x1a20(%rbp)
    7096:	48 8d 85 40 e9 ff ff 	lea    -0x16c0(%rbp),%rax
    709d:	48 83 c0 18          	add    $0x18,%rax
    70a1:	48 89 85 f8 e5 ff ff 	mov    %rax,-0x1a08(%rbp)
    70a8:	48 8d 05 d5 ff 00 00 	lea    0xffd5(%rip),%rax        # 17084 <g_234+0x14>
    70af:	48 89 85 60 ea ff ff 	mov    %rax,-0x15a0(%rbp)
    70b6:	48 8d 05 a3 00 01 00 	lea    0x100a3(%rip),%rax        # 17160 <g_933>
    70bd:	48 89 85 68 ea ff ff 	mov    %rax,-0x1598(%rbp)
    70c4:	48 8d 05 95 00 01 00 	lea    0x10095(%rip),%rax        # 17160 <g_933>
    70cb:	48 89 85 70 ea ff ff 	mov    %rax,-0x1590(%rbp)
    70d2:	48 8d 05 87 00 01 00 	lea    0x10087(%rip),%rax        # 17160 <g_933>
    70d9:	48 89 85 78 ea ff ff 	mov    %rax,-0x1588(%rbp)
    70e0:	48 8d 05 7d 00 01 00 	lea    0x1007d(%rip),%rax        # 17164 <g_934>
    70e7:	48 89 85 80 ea ff ff 	mov    %rax,-0x1580(%rbp)
    70ee:	48 8d 05 63 ff 00 00 	lea    0xff63(%rip),%rax        # 17058 <g_186>
    70f5:	48 89 85 88 ea ff ff 	mov    %rax,-0x1578(%rbp)
    70fc:	48 8d 05 81 ff 00 00 	lea    0xff81(%rip),%rax        # 17084 <g_234+0x14>
    7103:	48 89 85 90 ea ff ff 	mov    %rax,-0x1570(%rbp)
    710a:	48 8d 05 53 00 01 00 	lea    0x10053(%rip),%rax        # 17164 <g_934>
    7111:	48 89 85 98 ea ff ff 	mov    %rax,-0x1568(%rbp)
    7118:	48 8d 05 65 ff 00 00 	lea    0xff65(%rip),%rax        # 17084 <g_234+0x14>
    711f:	48 89 85 a0 ea ff ff 	mov    %rax,-0x1560(%rbp)
    7126:	48 8d 05 23 00 01 00 	lea    0x10023(%rip),%rax        # 17150 <g_834>
    712d:	48 89 85 a8 ea ff ff 	mov    %rax,-0x1558(%rbp)
    7134:	48 8d 05 25 00 01 00 	lea    0x10025(%rip),%rax        # 17160 <g_933>
    713b:	48 89 85 b0 ea ff ff 	mov    %rax,-0x1550(%rbp)
    7142:	48 8d 05 0f ff 00 00 	lea    0xff0f(%rip),%rax        # 17058 <g_186>
    7149:	48 89 85 b8 ea ff ff 	mov    %rax,-0x1548(%rbp)
    7150:	48 8d 05 21 1b 01 00 	lea    0x11b21(%rip),%rax        # 18c78 <g_2069>
    7157:	48 89 85 00 e6 ff ff 	mov    %rax,-0x1a00(%rbp)
    715e:	c6 85 57 e4 ff ff f3 	movb   $0xf3,-0x1ba9(%rbp)
    7165:	48 8d 85 40 e5 ff ff 	lea    -0x1ac0(%rbp),%rax
    716c:	48 89 85 58 e5 ff ff 	mov    %rax,-0x1aa8(%rbp)
    7173:	48 8d 85 58 e5 ff ff 	lea    -0x1aa8(%rbp),%rax
    717a:	48 89 85 08 e6 ff ff 	mov    %rax,-0x19f8(%rbp)
    7181:	48 c7 85 a0 e9 ff ff 	movq   $0x0,-0x1660(%rbp)
    7188:	00 00 00 00 
    718c:	48 c7 85 a8 e9 ff ff 	movq   $0x0,-0x1658(%rbp)
    7193:	00 00 00 00 
    7197:	48 c7 85 b0 e9 ff ff 	movq   $0x0,-0x1650(%rbp)
    719e:	00 00 00 00 
    71a2:	48 c7 85 b8 e9 ff ff 	movq   $0x0,-0x1648(%rbp)
    71a9:	00 00 00 00 
    71ad:	48 c7 85 c0 e9 ff ff 	movq   $0x0,-0x1640(%rbp)
    71b4:	00 00 00 00 
    71b8:	48 c7 85 c8 e9 ff ff 	movq   $0x0,-0x1638(%rbp)
    71bf:	00 00 00 00 
    71c3:	48 c7 85 d0 e9 ff ff 	movq   $0x0,-0x1630(%rbp)
    71ca:	00 00 00 00 
    71ce:	48 8d 05 54 fe 00 00 	lea    0xfe54(%rip),%rax        # 17029 <g_32>
    71d5:	48 89 85 60 e5 ff ff 	mov    %rax,-0x1aa0(%rbp)
    71dc:	48 8d 85 60 e5 ff ff 	lea    -0x1aa0(%rbp),%rax
    71e3:	48 89 85 68 e5 ff ff 	mov    %rax,-0x1a98(%rbp)
    71ea:	48 8d 85 68 e5 ff ff 	lea    -0x1a98(%rbp),%rax
    71f1:	48 89 85 70 e5 ff ff 	mov    %rax,-0x1a90(%rbp)
    71f8:	48 8d 85 70 e5 ff ff 	lea    -0x1a90(%rbp),%rax
    71ff:	48 89 85 78 e5 ff ff 	mov    %rax,-0x1a88(%rbp)
    7206:	48 8d 85 78 e5 ff ff 	lea    -0x1a88(%rbp),%rax
    720d:	48 89 85 10 e6 ff ff 	mov    %rax,-0x19f0(%rbp)
    7214:	c7 85 dc e4 ff ff 00 	movl   $0x0,-0x1b24(%rbp)
    721b:	00 00 00 
    721e:	48 8d 05 7b 0e 01 00 	lea    0x10e7b(%rip),%rax        # 180a0 <g_488>
    7225:	48 89 85 18 e6 ff ff 	mov    %rax,-0x19e8(%rbp)
    722c:	c7 85 70 e9 ff ff f8 	movl   $0x53e907f8,-0x1690(%rbp)
    7233:	07 e9 53 
    7236:	c7 85 74 e9 ff ff f8 	movl   $0x53e907f8,-0x168c(%rbp)
    723d:	07 e9 53 
    7240:	c7 85 78 e9 ff ff 00 	movl   $0x0,-0x1688(%rbp)
    7247:	00 00 00 
    724a:	c7 85 7c e9 ff ff f8 	movl   $0x53e907f8,-0x1684(%rbp)
    7251:	07 e9 53 
    7254:	c7 85 80 e9 ff ff f8 	movl   $0x53e907f8,-0x1680(%rbp)
    725b:	07 e9 53 
    725e:	c7 85 84 e9 ff ff 00 	movl   $0x0,-0x167c(%rbp)
    7265:	00 00 00 
    7268:	c7 85 88 e9 ff ff f8 	movl   $0x53e907f8,-0x1678(%rbp)
    726f:	07 e9 53 
    7272:	c7 85 8c e9 ff ff f8 	movl   $0x53e907f8,-0x1674(%rbp)
    7279:	07 e9 53 
    727c:	c7 85 90 e9 ff ff 00 	movl   $0x0,-0x1670(%rbp)
    7283:	00 00 00 
    7286:	c7 85 94 e9 ff ff f8 	movl   $0x53e907f8,-0x166c(%rbp)
    728d:	07 e9 53 
    7290:	66 c7 85 50 eb ff ff 	movw   $0xcb73,-0x14b0(%rbp)
    7297:	73 cb 
    7299:	66 c7 85 52 eb ff ff 	movw   $0x6c43,-0x14ae(%rbp)
    72a0:	43 6c 
    72a2:	66 c7 85 54 eb ff ff 	movw   $0x6,-0x14ac(%rbp)
    72a9:	06 00 
    72ab:	66 c7 85 56 eb ff ff 	movw   $0x6c43,-0x14aa(%rbp)
    72b2:	43 6c 
    72b4:	66 c7 85 58 eb ff ff 	movw   $0xcb73,-0x14a8(%rbp)
    72bb:	73 cb 
    72bd:	66 c7 85 5a eb ff ff 	movw   $0xffff,-0x14a6(%rbp)
    72c4:	ff ff 
    72c6:	66 c7 85 5c eb ff ff 	movw   $0x0,-0x14a4(%rbp)
    72cd:	00 00 
    72cf:	66 c7 85 5e eb ff ff 	movw   $0xac2e,-0x14a2(%rbp)
    72d6:	2e ac 
    72d8:	66 c7 85 60 eb ff ff 	movw   $0x0,-0x14a0(%rbp)
    72df:	00 00 
    72e1:	66 c7 85 62 eb ff ff 	movw   $0xffff,-0x149e(%rbp)
    72e8:	ff ff 
    72ea:	66 c7 85 64 eb ff ff 	movw   $0xe950,-0x149c(%rbp)
    72f1:	50 e9 
    72f3:	66 c7 85 66 eb ff ff 	movw   $0x6c43,-0x149a(%rbp)
    72fa:	43 6c 
    72fc:	66 c7 85 68 eb ff ff 	movw   $0x0,-0x1498(%rbp)
    7303:	00 00 
    7305:	66 c7 85 6a eb ff ff 	movw   $0x6c43,-0x1496(%rbp)
    730c:	43 6c 
    730e:	66 c7 85 6c eb ff ff 	movw   $0xe950,-0x1494(%rbp)
    7315:	50 e9 
    7317:	66 c7 85 6e eb ff ff 	movw   $0xffff,-0x1492(%rbp)
    731e:	ff ff 
    7320:	66 c7 85 70 eb ff ff 	movw   $0xbf4e,-0x1490(%rbp)
    7327:	4e bf 
    7329:	66 c7 85 72 eb ff ff 	movw   $0xac2e,-0x148e(%rbp)
    7330:	2e ac 
    7332:	66 c7 85 74 eb ff ff 	movw   $0xbf4e,-0x148c(%rbp)
    7339:	4e bf 
    733b:	66 c7 85 76 eb ff ff 	movw   $0xffff,-0x148a(%rbp)
    7342:	ff ff 
    7344:	66 c7 85 78 eb ff ff 	movw   $0xcb73,-0x1488(%rbp)
    734b:	73 cb 
    734d:	66 c7 85 7a eb ff ff 	movw   $0x6c43,-0x1486(%rbp)
    7354:	43 6c 
    7356:	66 c7 85 7c eb ff ff 	movw   $0x6,-0x1484(%rbp)
    735d:	06 00 
    735f:	66 c7 85 7e eb ff ff 	movw   $0x6c43,-0x1482(%rbp)
    7366:	43 6c 
    7368:	66 c7 85 80 eb ff ff 	movw   $0xcb73,-0x1480(%rbp)
    736f:	73 cb 
    7371:	66 c7 85 82 eb ff ff 	movw   $0xffff,-0x147e(%rbp)
    7378:	ff ff 
    737a:	66 c7 85 84 eb ff ff 	movw   $0x0,-0x147c(%rbp)
    7381:	00 00 
    7383:	66 c7 85 86 eb ff ff 	movw   $0xac2e,-0x147a(%rbp)
    738a:	2e ac 
    738c:	66 c7 85 88 eb ff ff 	movw   $0x0,-0x1478(%rbp)
    7393:	00 00 
    7395:	66 c7 85 8a eb ff ff 	movw   $0x6c43,-0x1476(%rbp)
    739c:	43 6c 
    739e:	66 c7 85 8c eb ff ff 	movw   $0xbf4e,-0x1474(%rbp)
    73a5:	4e bf 
    73a7:	66 c7 85 8e eb ff ff 	movw   $0x0,-0x1472(%rbp)
    73ae:	00 00 
    73b0:	66 c7 85 90 eb ff ff 	movw   $0x6,-0x1470(%rbp)
    73b7:	06 00 
    73b9:	66 c7 85 92 eb ff ff 	movw   $0x0,-0x146e(%rbp)
    73c0:	00 00 
    73c2:	66 c7 85 94 eb ff ff 	movw   $0xbf4e,-0x146c(%rbp)
    73c9:	4e bf 
    73cb:	66 c7 85 96 eb ff ff 	movw   $0x6c43,-0x146a(%rbp)
    73d2:	43 6c 
    73d4:	66 c7 85 98 eb ff ff 	movw   $0xffff,-0x1468(%rbp)
    73db:	ff ff 
    73dd:	66 c7 85 9a eb ff ff 	movw   $0x1,-0x1466(%rbp)
    73e4:	01 00 
    73e6:	66 c7 85 9c eb ff ff 	movw   $0xffff,-0x1464(%rbp)
    73ed:	ff ff 
    73ef:	66 c7 85 9e eb ff ff 	movw   $0x6c43,-0x1462(%rbp)
    73f6:	43 6c 
    73f8:	66 c7 85 a0 eb ff ff 	movw   $0x0,-0x1460(%rbp)
    73ff:	00 00 
    7401:	66 c7 85 a2 eb ff ff 	movw   $0x0,-0x145e(%rbp)
    7408:	00 00 
    740a:	66 c7 85 a4 eb ff ff 	movw   $0x5,-0x145c(%rbp)
    7411:	05 00 
    7413:	66 c7 85 a6 eb ff ff 	movw   $0x0,-0x145a(%rbp)
    741a:	00 00 
    741c:	66 c7 85 a8 eb ff ff 	movw   $0x0,-0x1458(%rbp)
    7423:	00 00 
    7425:	66 c7 85 aa eb ff ff 	movw   $0x6c43,-0x1456(%rbp)
    742c:	43 6c 
    742e:	66 c7 85 ac eb ff ff 	movw   $0x0,-0x1454(%rbp)
    7435:	00 00 
    7437:	66 c7 85 ae eb ff ff 	movw   $0x1,-0x1452(%rbp)
    743e:	01 00 
    7440:	66 c7 85 b0 eb ff ff 	movw   $0x0,-0x1450(%rbp)
    7447:	00 00 
    7449:	66 c7 85 b2 eb ff ff 	movw   $0x6c43,-0x144e(%rbp)
    7450:	43 6c 
    7452:	66 c7 85 b4 eb ff ff 	movw   $0xbf4e,-0x144c(%rbp)
    7459:	4e bf 
    745b:	66 c7 85 b6 eb ff ff 	movw   $0x0,-0x144a(%rbp)
    7462:	00 00 
    7464:	66 c7 85 b8 eb ff ff 	movw   $0x6,-0x1448(%rbp)
    746b:	06 00 
    746d:	66 c7 85 ba eb ff ff 	movw   $0x0,-0x1446(%rbp)
    7474:	00 00 
    7476:	66 c7 85 bc eb ff ff 	movw   $0xbf4e,-0x1444(%rbp)
    747d:	4e bf 
    747f:	66 c7 85 be eb ff ff 	movw   $0x6c43,-0x1442(%rbp)
    7486:	43 6c 
    7488:	66 c7 85 c0 eb ff ff 	movw   $0xffff,-0x1440(%rbp)
    748f:	ff ff 
    7491:	66 c7 85 c2 eb ff ff 	movw   $0x1,-0x143e(%rbp)
    7498:	01 00 
    749a:	66 c7 85 c4 eb ff ff 	movw   $0xffff,-0x143c(%rbp)
    74a1:	ff ff 
    74a3:	66 c7 85 c6 eb ff ff 	movw   $0x6c43,-0x143a(%rbp)
    74aa:	43 6c 
    74ac:	66 c7 85 c8 eb ff ff 	movw   $0x0,-0x1438(%rbp)
    74b3:	00 00 
    74b5:	66 c7 85 ca eb ff ff 	movw   $0x0,-0x1436(%rbp)
    74bc:	00 00 
    74be:	66 c7 85 cc eb ff ff 	movw   $0x5,-0x1434(%rbp)
    74c5:	05 00 
    74c7:	66 c7 85 ce eb ff ff 	movw   $0x0,-0x1432(%rbp)
    74ce:	00 00 
    74d0:	66 c7 85 d0 eb ff ff 	movw   $0x0,-0x1430(%rbp)
    74d7:	00 00 
    74d9:	66 c7 85 d2 eb ff ff 	movw   $0x6c43,-0x142e(%rbp)
    74e0:	43 6c 
    74e2:	66 c7 85 d4 eb ff ff 	movw   $0x0,-0x142c(%rbp)
    74e9:	00 00 
    74eb:	66 c7 85 d6 eb ff ff 	movw   $0x1,-0x142a(%rbp)
    74f2:	01 00 
    74f4:	66 c7 85 d8 eb ff ff 	movw   $0x0,-0x1428(%rbp)
    74fb:	00 00 
    74fd:	66 c7 85 da eb ff ff 	movw   $0x6c43,-0x1426(%rbp)
    7504:	43 6c 
    7506:	66 c7 85 dc eb ff ff 	movw   $0xbf4e,-0x1424(%rbp)
    750d:	4e bf 
    750f:	66 c7 85 de eb ff ff 	movw   $0x0,-0x1422(%rbp)
    7516:	00 00 
    7518:	66 c7 85 e0 eb ff ff 	movw   $0x6,-0x1420(%rbp)
    751f:	06 00 
    7521:	66 c7 85 e2 eb ff ff 	movw   $0x0,-0x141e(%rbp)
    7528:	00 00 
    752a:	66 c7 85 e4 eb ff ff 	movw   $0xbf4e,-0x141c(%rbp)
    7531:	4e bf 
    7533:	66 c7 85 e6 eb ff ff 	movw   $0x6c43,-0x141a(%rbp)
    753a:	43 6c 
    753c:	66 c7 85 e8 eb ff ff 	movw   $0xffff,-0x1418(%rbp)
    7543:	ff ff 
    7545:	66 c7 85 ea eb ff ff 	movw   $0x1,-0x1416(%rbp)
    754c:	01 00 
    754e:	66 c7 85 ec eb ff ff 	movw   $0xffff,-0x1414(%rbp)
    7555:	ff ff 
    7557:	66 c7 85 ee eb ff ff 	movw   $0x6c43,-0x1412(%rbp)
    755e:	43 6c 
    7560:	66 c7 85 f0 eb ff ff 	movw   $0x0,-0x1410(%rbp)
    7567:	00 00 
    7569:	66 c7 85 f2 eb ff ff 	movw   $0x0,-0x140e(%rbp)
    7570:	00 00 
    7572:	66 c7 85 f4 eb ff ff 	movw   $0x5,-0x140c(%rbp)
    7579:	05 00 
    757b:	66 c7 85 f6 eb ff ff 	movw   $0x0,-0x140a(%rbp)
    7582:	00 00 
    7584:	66 c7 85 f8 eb ff ff 	movw   $0x0,-0x1408(%rbp)
    758b:	00 00 
    758d:	66 c7 85 fa eb ff ff 	movw   $0x6c43,-0x1406(%rbp)
    7594:	43 6c 
    7596:	66 c7 85 fc eb ff ff 	movw   $0x0,-0x1404(%rbp)
    759d:	00 00 
    759f:	66 c7 85 fe eb ff ff 	movw   $0x1,-0x1402(%rbp)
    75a6:	01 00 
    75a8:	66 c7 85 00 ec ff ff 	movw   $0x0,-0x1400(%rbp)
    75af:	00 00 
    75b1:	66 c7 85 02 ec ff ff 	movw   $0x6c43,-0x13fe(%rbp)
    75b8:	43 6c 
    75ba:	66 c7 85 04 ec ff ff 	movw   $0xbf4e,-0x13fc(%rbp)
    75c1:	4e bf 
    75c3:	66 c7 85 06 ec ff ff 	movw   $0x0,-0x13fa(%rbp)
    75ca:	00 00 
    75cc:	66 c7 85 08 ec ff ff 	movw   $0x6,-0x13f8(%rbp)
    75d3:	06 00 
    75d5:	66 c7 85 0a ec ff ff 	movw   $0x0,-0x13f6(%rbp)
    75dc:	00 00 
    75de:	66 c7 85 0c ec ff ff 	movw   $0xbf4e,-0x13f4(%rbp)
    75e5:	4e bf 
    75e7:	66 c7 85 0e ec ff ff 	movw   $0x6c43,-0x13f2(%rbp)
    75ee:	43 6c 
    75f0:	66 c7 85 10 ec ff ff 	movw   $0xffff,-0x13f0(%rbp)
    75f7:	ff ff 
    75f9:	66 c7 85 12 ec ff ff 	movw   $0x1,-0x13ee(%rbp)
    7600:	01 00 
    7602:	66 c7 85 14 ec ff ff 	movw   $0xffff,-0x13ec(%rbp)
    7609:	ff ff 
    760b:	66 c7 85 16 ec ff ff 	movw   $0x6c43,-0x13ea(%rbp)
    7612:	43 6c 
    7614:	c7 85 e0 e4 ff ff 00 	movl   $0x0,-0x1b20(%rbp)
    761b:	00 00 00 
    761e:	c7 85 e4 e4 ff ff 38 	movl   $0xd1b96a38,-0x1b1c(%rbp)
    7625:	6a b9 d1 
    7628:	48 c7 85 20 e6 ff ff 	movq   $0x1,-0x19e0(%rbp)
    762f:	01 00 00 00 
    7633:	c6 85 58 e4 ff ff cc 	movb   $0xcc,-0x1ba8(%rbp)
    763a:	c7 85 94 e4 ff ff 00 	movl   $0x0,-0x1b6c(%rbp)
    7641:	00 00 00 
    7644:	eb 1e                	jmp    7664 <func_11+0x6b1>
    7646:	8b 85 94 e4 ff ff    	mov    -0x1b6c(%rbp),%eax
    764c:	48 98                	cltq   
    764e:	48 8d 15 1f fb 00 00 	lea    0xfb1f(%rip),%rdx        # 17174 <g_1100>
    7655:	48 89 94 c5 40 e9 ff 	mov    %rdx,-0x16c0(%rbp,%rax,8)
    765c:	ff 
    765d:	83 85 94 e4 ff ff 01 	addl   $0x1,-0x1b6c(%rbp)
    7664:	83 bd 94 e4 ff ff 04 	cmpl   $0x4,-0x1b6c(%rbp)
    766b:	7e d9                	jle    7646 <func_11+0x693>
    766d:	c7 85 94 e4 ff ff 00 	movl   $0x0,-0x1b6c(%rbp)
    7674:	00 00 00 
    7677:	eb 1a                	jmp    7693 <func_11+0x6e0>
    7679:	8b 85 94 e4 ff ff    	mov    -0x1b6c(%rbp),%eax
    767f:	48 98                	cltq   
    7681:	c7 84 85 c0 e8 ff ff 	movl   $0x8e3d770f,-0x1740(%rbp,%rax,4)
    7688:	0f 77 3d 8e 
    768c:	83 85 94 e4 ff ff 01 	addl   $0x1,-0x1b6c(%rbp)
    7693:	83 bd 94 e4 ff ff 01 	cmpl   $0x1,-0x1b6c(%rbp)
    769a:	7e dd                	jle    7679 <func_11+0x6c6>
    769c:	c7 85 94 e4 ff ff 00 	movl   $0x0,-0x1b6c(%rbp)
    76a3:	00 00 00 
    76a6:	eb 1e                	jmp    76c6 <func_11+0x713>
    76a8:	8b 85 94 e4 ff ff    	mov    -0x1b6c(%rbp),%eax
    76ae:	48 98                	cltq   
    76b0:	48 8d 95 40 e9 ff ff 	lea    -0x16c0(%rbp),%rdx
    76b7:	48 89 94 c5 b8 e8 ff 	mov    %rdx,-0x1748(%rbp,%rax,8)
    76be:	ff 
    76bf:	83 85 94 e4 ff ff 01 	addl   $0x1,-0x1b6c(%rbp)
    76c6:	83 bd 94 e4 ff ff 00 	cmpl   $0x0,-0x1b6c(%rbp)
    76cd:	7e d9                	jle    76a8 <func_11+0x6f5>
    76cf:	c7 85 94 e4 ff ff 00 	movl   $0x0,-0x1b6c(%rbp)
    76d6:	00 00 00 
    76d9:	eb 22                	jmp    76fd <func_11+0x74a>
    76db:	8b 85 94 e4 ff ff    	mov    -0x1b6c(%rbp),%eax
    76e1:	48 98                	cltq   
    76e3:	48 8d 95 c0 e8 ff ff 	lea    -0x1740(%rbp),%rdx
    76ea:	48 83 c2 04          	add    $0x4,%rdx
    76ee:	48 89 94 c5 f0 e8 ff 	mov    %rdx,-0x1710(%rbp,%rax,8)
    76f5:	ff 
    76f6:	83 85 94 e4 ff ff 01 	addl   $0x1,-0x1b6c(%rbp)
    76fd:	83 bd 94 e4 ff ff 03 	cmpl   $0x3,-0x1b6c(%rbp)
    7704:	7e d5                	jle    76db <func_11+0x728>
    7706:	90                   	nop
    7707:	8b 85 6c e4 ff ff    	mov    -0x1b94(%rbp),%eax
    770d:	83 e8 01             	sub    $0x1,%eax
    7710:	89 85 6c e4 ff ff    	mov    %eax,-0x1b94(%rbp)
    7716:	48 8b 05 03 05 01 00 	mov    0x10503(%rip),%rax        # 17c20 <g_226>
    771d:	0f b6 00             	movzbl (%rax),%eax
    7720:	44 0f b6 e0          	movzbl %al,%r12d
    7724:	0f b6 85 44 e4 ff ff 	movzbl -0x1bbc(%rbp),%eax
    772b:	0f b6 d8             	movzbl %al,%ebx
    772e:	8b 85 6c e4 ff ff    	mov    -0x1b94(%rbp),%eax
    7734:	89 c2                	mov    %eax,%edx
    7736:	48 8b 85 f0 e5 ff ff 	mov    -0x1a10(%rbp),%rax
    773d:	89 10                	mov    %edx,(%rax)
    773f:	8b 85 40 e4 ff ff    	mov    -0x1bc0(%rbp),%eax
    7745:	83 e0 0f             	and    $0xf,%eax
    7748:	83 e0 0f             	and    $0xf,%eax
    774b:	89 c2                	mov    %eax,%edx
    774d:	0f b6 05 08 f9 00 00 	movzbl 0xf908(%rip),%eax        # 1705c <g_207>
    7754:	83 e0 f0             	and    $0xfffffff0,%eax
    7757:	09 d0                	or     %edx,%eax
    7759:	88 05 fd f8 00 00    	mov    %al,0xf8fd(%rip)        # 1705c <g_207>
    775f:	0f b6 05 f6 f8 00 00 	movzbl 0xf8f6(%rip),%eax        # 1705c <g_207>
    7766:	83 e0 0f             	and    $0xf,%eax
    7769:	0f b6 c0             	movzbl %al,%eax
    776c:	be 01 00 00 00       	mov    $0x1,%esi
    7771:	89 c7                	mov    %eax,%edi
    7773:	e8 40 e7 ff ff       	callq  5eb8 <safe_add_func_uint32_t_u_u>
    7778:	48 89 de             	mov    %rbx,%rsi
    777b:	48 bf 2d 6b 73 9c 76 	movabs $0xeb56e1769c736b2d,%rdi
    7782:	e1 56 eb 
    7785:	e8 a4 e8 ff ff       	callq  602e <safe_add_func_uint64_t_u_u>
    778a:	48 8b 85 f0 e5 ff ff 	mov    -0x1a10(%rbp),%rax
    7791:	8b 00                	mov    (%rax),%eax
    7793:	48 63 d0             	movslq %eax,%rdx
    7796:	0f b6 85 44 e4 ff ff 	movzbl -0x1bbc(%rbp),%eax
    779d:	0f b6 c0             	movzbl %al,%eax
    77a0:	48 89 d6             	mov    %rdx,%rsi
    77a3:	48 89 c7             	mov    %rax,%rdi
    77a6:	e8 fd e0 ff ff       	callq  58a8 <safe_sub_func_int64_t_s_s>
    77ab:	0f b6 95 44 e4 ff ff 	movzbl -0x1bbc(%rbp),%edx
    77b2:	0f b6 d2             	movzbl %dl,%edx
    77b5:	48 39 d0             	cmp    %rdx,%rax
    77b8:	0f 9e c0             	setle  %al
    77bb:	0f b6 d0             	movzbl %al,%edx
    77be:	8b 85 6c e4 ff ff    	mov    -0x1b94(%rbp),%eax
    77c4:	39 c2                	cmp    %eax,%edx
    77c6:	0f 96 c2             	setbe  %dl
    77c9:	48 8b 85 40 e5 ff ff 	mov    -0x1ac0(%rbp),%rax
    77d0:	88 10                	mov    %dl,(%rax)
    77d2:	0f b6 00             	movzbl (%rax),%eax
    77d5:	0f be c0             	movsbl %al,%eax
    77d8:	41 39 c4             	cmp    %eax,%r12d
    77db:	0f 94 c0             	sete   %al
    77de:	0f b6 d0             	movzbl %al,%edx
    77e1:	0f b6 85 44 e4 ff ff 	movzbl -0x1bbc(%rbp),%eax
    77e8:	0f b6 c0             	movzbl %al,%eax
    77eb:	89 d6                	mov    %edx,%esi
    77ed:	89 c7                	mov    %eax,%edi
    77ef:	e8 9f e3 ff ff       	callq  5b93 <safe_mul_func_uint8_t_u_u>
    77f4:	0f be c0             	movsbl %al,%eax
    77f7:	be 00 00 00 00       	mov    $0x0,%esi
    77fc:	89 c7                	mov    %eax,%edi
    77fe:	e8 32 db ff ff       	callq  5335 <safe_rshift_func_int8_t_s_s>
    7803:	48 83 bd e8 e5 ff ff 	cmpq   $0x0,-0x1a18(%rbp)
    780a:	00 
    780b:	b8 6e 88 6c b2       	mov    $0xb26c886e,%eax
    7810:	89 c2                	mov    %eax,%edx
    7812:	8b 85 70 e4 ff ff    	mov    -0x1b90(%rbp),%eax
    7818:	21 d0                	and    %edx,%eax
    781a:	89 85 70 e4 ff ff    	mov    %eax,-0x1b90(%rbp)
    7820:	8b 85 70 e4 ff ff    	mov    -0x1b90(%rbp),%eax
    7826:	85 c0                	test   %eax,%eax
    7828:	0f 84 91 3e 00 00    	je     b6bf <func_11+0x470c>
    782e:	66 c7 85 60 e4 ff ff 	movw   $0xc6aa,-0x1ba0(%rbp)
    7835:	aa c6 
    7837:	48 c7 85 80 e5 ff ff 	movq   $0x0,-0x1a80(%rbp)
    783e:	00 00 00 00 
    7842:	c7 85 78 e4 ff ff 84 	movl   $0x32fe0c84,-0x1b88(%rbp)
    7849:	0c fe 32 
    784c:	48 8d 05 dd f8 00 00 	lea    0xf8dd(%rip),%rax        # 17130 <g_630>
    7853:	48 89 85 88 e5 ff ff 	mov    %rax,-0x1a78(%rbp)
    785a:	c7 85 7c e4 ff ff 81 	movl   $0x8d04ab81,-0x1b84(%rbp)
    7861:	ab 04 8d 
    7864:	c7 85 80 e4 ff ff ff 	movl   $0xffffffff,-0x1b80(%rbp)
    786b:	ff ff ff 
    786e:	48 c7 85 90 e5 ff ff 	movq   $0x0,-0x1a70(%rbp)
    7875:	00 00 00 00 
    7879:	c7 85 00 e5 ff ff 09 	movl   $0xe360e409,-0x1b00(%rbp)
    7880:	e4 60 e3 
    7883:	66 c7 85 b4 e8 ff ff 	movw   $0xffff,-0x174c(%rbp)
    788a:	ff ff 
    788c:	66 c7 85 b6 e8 ff ff 	movw   $0xffff,-0x174a(%rbp)
    7893:	ff ff 
    7895:	48 8d 05 bc 13 01 00 	lea    0x113bc(%rip),%rax        # 18c58 <g_1838>
    789c:	48 89 85 e8 e6 ff ff 	mov    %rax,-0x1918(%rbp)
    78a3:	48 8d 85 00 f9 ff ff 	lea    -0x700(%rbp),%rax
    78aa:	48 8d 15 2f fc 00 00 	lea    0xfc2f(%rip),%rdx        # 174e0 <g_2364+0x220>
    78b1:	b9 d8 00 00 00       	mov    $0xd8,%ecx
    78b6:	48 89 c7             	mov    %rax,%rdi
    78b9:	48 89 d6             	mov    %rdx,%rsi
    78bc:	f3 48 a5             	rep movsq %ds:(%rsi),%es:(%rdi)
    78bf:	c7 85 84 e4 ff ff ff 	movl   $0xffffffff,-0x1b7c(%rbp)
    78c6:	ff ff ff 
    78c9:	48 8d 05 68 f7 00 00 	lea    0xf768(%rip),%rax        # 17038 <g_70>
    78d0:	48 89 85 f0 e6 ff ff 	mov    %rax,-0x1910(%rbp)
    78d7:	c7 85 c0 ea ff ff 2d 	movl   $0xff14082d,-0x1540(%rbp)
    78de:	08 14 ff 
    78e1:	c7 85 c4 ea ff ff ff 	movl   $0xffffffff,-0x153c(%rbp)
    78e8:	ff ff ff 
    78eb:	c7 85 c8 ea ff ff 11 	movl   $0x8edadb11,-0x1538(%rbp)
    78f2:	db da 8e 
    78f5:	c7 85 cc ea ff ff 01 	movl   $0x1,-0x1534(%rbp)
    78fc:	00 00 00 
    78ff:	c7 85 d0 ea ff ff ff 	movl   $0xffffffff,-0x1530(%rbp)
    7906:	ff ff ff 
    7909:	c7 85 d4 ea ff ff f8 	movl   $0xfffffff8,-0x152c(%rbp)
    7910:	ff ff ff 
    7913:	c7 85 d8 ea ff ff f8 	movl   $0xfffffff8,-0x1528(%rbp)
    791a:	ff ff ff 
    791d:	c7 85 dc ea ff ff ff 	movl   $0xffffffff,-0x1524(%rbp)
    7924:	ff ff ff 
    7927:	c7 85 e0 ea ff ff 00 	movl   $0x0,-0x1520(%rbp)
    792e:	00 00 00 
    7931:	c7 85 e4 ea ff ff 01 	movl   $0x1,-0x151c(%rbp)
    7938:	00 00 00 
    793b:	c7 85 e8 ea ff ff f8 	movl   $0xfffffff8,-0x1518(%rbp)
    7942:	ff ff ff 
    7945:	c7 85 ec ea ff ff ff 	movl   $0xffffffff,-0x1514(%rbp)
    794c:	ff ff ff 
    794f:	c7 85 f0 ea ff ff ff 	movl   $0xffffffff,-0x1510(%rbp)
    7956:	ff ff ff 
    7959:	c7 85 f4 ea ff ff 2d 	movl   $0xff14082d,-0x150c(%rbp)
    7960:	08 14 ff 
    7963:	c7 85 f8 ea ff ff 11 	movl   $0x8edadb11,-0x1508(%rbp)
    796a:	db da 8e 
    796d:	c7 85 fc ea ff ff 2d 	movl   $0xff14082d,-0x1504(%rbp)
    7974:	08 14 ff 
    7977:	c7 85 00 eb ff ff 2d 	movl   $0xff14082d,-0x1500(%rbp)
    797e:	08 14 ff 
    7981:	c7 85 04 eb ff ff f8 	movl   $0xfffffff8,-0x14fc(%rbp)
    7988:	ff ff ff 
    798b:	c7 85 08 eb ff ff 00 	movl   $0x0,-0x14f8(%rbp)
    7992:	00 00 00 
    7995:	c7 85 0c eb ff ff 2d 	movl   $0xff14082d,-0x14f4(%rbp)
    799c:	08 14 ff 
    799f:	c7 85 10 eb ff ff 00 	movl   $0x0,-0x14f0(%rbp)
    79a6:	00 00 00 
    79a9:	c7 85 14 eb ff ff 2d 	movl   $0xff14082d,-0x14ec(%rbp)
    79b0:	08 14 ff 
    79b3:	c7 85 18 eb ff ff ff 	movl   $0xffffffff,-0x14e8(%rbp)
    79ba:	ff ff ff 
    79bd:	c7 85 1c eb ff ff ff 	movl   $0xffffffff,-0x14e4(%rbp)
    79c4:	ff ff ff 
    79c7:	c7 85 20 eb ff ff 01 	movl   $0x1,-0x14e0(%rbp)
    79ce:	00 00 00 
    79d1:	c7 85 24 eb ff ff 01 	movl   $0x1,-0x14dc(%rbp)
    79d8:	00 00 00 
    79db:	c7 85 28 eb ff ff 11 	movl   $0x8edadb11,-0x14d8(%rbp)
    79e2:	db da 8e 
    79e5:	c7 85 2c eb ff ff ff 	movl   $0xffffffff,-0x14d4(%rbp)
    79ec:	ff ff ff 
    79ef:	c7 85 30 eb ff ff 01 	movl   $0x1,-0x14d0(%rbp)
    79f6:	00 00 00 
    79f9:	c7 85 34 eb ff ff f8 	movl   $0xfffffff8,-0x14cc(%rbp)
    7a00:	ff ff ff 
    7a03:	c7 85 38 eb ff ff ff 	movl   $0xffffffff,-0x14c8(%rbp)
    7a0a:	ff ff ff 
    7a0d:	c7 85 3c eb ff ff 01 	movl   $0x1,-0x14c4(%rbp)
    7a14:	00 00 00 
    7a17:	c7 85 40 eb ff ff 00 	movl   $0x0,-0x14c0(%rbp)
    7a1e:	00 00 00 
    7a21:	c7 85 44 eb ff ff ff 	movl   $0xffffffff,-0x14bc(%rbp)
    7a28:	ff ff ff 
    7a2b:	c7 85 48 eb ff ff 00 	movl   $0x0,-0x14b8(%rbp)
    7a32:	00 00 00 
    7a35:	c7 85 4c eb ff ff ff 	movl   $0xffffffff,-0x14b4(%rbp)
    7a3c:	ff ff ff 
    7a3f:	48 8d 05 aa 01 01 00 	lea    0x101aa(%rip),%rax        # 17bf0 <g_183>
    7a46:	48 89 85 98 e5 ff ff 	mov    %rax,-0x1a68(%rbp)
    7a4d:	66 c7 85 62 e4 ff ff 	movw   $0xffff,-0x1b9e(%rbp)
    7a54:	ff ff 
    7a56:	c7 85 98 e4 ff ff 00 	movl   $0x0,-0x1b68(%rbp)
    7a5d:	00 00 00 
    7a60:	eb 1a                	jmp    7a7c <func_11+0xac9>
    7a62:	8b 85 98 e4 ff ff    	mov    -0x1b68(%rbp),%eax
    7a68:	48 98                	cltq   
    7a6a:	c7 84 85 ac e8 ff ff 	movl   $0xa19b7a38,-0x1754(%rbp,%rax,4)
    7a71:	38 7a 9b a1 
    7a75:	83 85 98 e4 ff ff 01 	addl   $0x1,-0x1b68(%rbp)
    7a7c:	83 bd 98 e4 ff ff 00 	cmpl   $0x0,-0x1b68(%rbp)
    7a83:	7e dd                	jle    7a62 <func_11+0xaaf>
    7a85:	c7 85 98 e4 ff ff 00 	movl   $0x0,-0x1b68(%rbp)
    7a8c:	00 00 00 
    7a8f:	eb 19                	jmp    7aaa <func_11+0xaf7>
    7a91:	8b 85 98 e4 ff ff    	mov    -0x1b68(%rbp),%eax
    7a97:	48 98                	cltq   
    7a99:	66 c7 84 45 b0 e8 ff 	movw   $0x0,-0x1750(%rbp,%rax,2)
    7aa0:	ff 00 00 
    7aa3:	83 85 98 e4 ff ff 01 	addl   $0x1,-0x1b68(%rbp)
    7aaa:	83 bd 98 e4 ff ff 01 	cmpl   $0x1,-0x1b68(%rbp)
    7ab1:	7e de                	jle    7a91 <func_11+0xade>
    7ab3:	66 83 bd 60 e4 ff ff 	cmpw   $0x0,-0x1ba0(%rbp)
    7aba:	00 
    7abb:	75 09                	jne    7ac6 <func_11+0xb13>
    7abd:	83 bd 40 e4 ff ff 00 	cmpl   $0x0,-0x1bc0(%rbp)
    7ac4:	74 07                	je     7acd <func_11+0xb1a>
    7ac6:	b8 01 00 00 00       	mov    $0x1,%eax
    7acb:	eb 05                	jmp    7ad2 <func_11+0xb1f>
    7acd:	b8 00 00 00 00       	mov    $0x0,%eax
    7ad2:	0f b6 c0             	movzbl %al,%eax
    7ad5:	be e0 00 00 00       	mov    $0xe0,%esi
    7ada:	89 c7                	mov    %eax,%edi
    7adc:	e8 fa e0 ff ff       	callq  5bdb <safe_div_func_uint8_t_u_u>
    7ae1:	0f b6 c0             	movzbl %al,%eax
    7ae4:	0d 6b 01 cd 52       	or     $0x52cd016b,%eax
    7ae9:	89 85 78 e4 ff ff    	mov    %eax,-0x1b88(%rbp)
    7aef:	8b 85 78 e4 ff ff    	mov    -0x1b88(%rbp),%eax
    7af5:	89 c2                	mov    %eax,%edx
    7af7:	0f b7 05 ce f6 00 00 	movzwl 0xf6ce(%rip),%eax        # 171cc <g_1671>
    7afe:	09 d0                	or     %edx,%eax
    7b00:	0f b7 d8             	movzwl %ax,%ebx
    7b03:	66 83 bd 60 e4 ff ff 	cmpw   $0x0,-0x1ba0(%rbp)
    7b0a:	00 
    7b0b:	74 3a                	je     7b47 <func_11+0xb94>
    7b0d:	0f bf 85 60 e4 ff ff 	movswl -0x1ba0(%rbp),%eax
    7b14:	89 c6                	mov    %eax,%esi
    7b16:	bf e8 d5 cd 55       	mov    $0x55cdd5e8,%edi
    7b1b:	e8 b0 e3 ff ff       	callq  5ed0 <safe_sub_func_uint32_t_u_u>
    7b20:	0f b7 c0             	movzwl %ax,%eax
    7b23:	be 00 00 00 00       	mov    $0x0,%esi
    7b28:	89 c7                	mov    %eax,%edi
    7b2a:	e8 0e e2 ff ff       	callq  5d3d <safe_mul_func_uint16_t_u_u>
    7b2f:	66 85 c0             	test   %ax,%ax
    7b32:	74 13                	je     7b47 <func_11+0xb94>
    7b34:	48 8b 85 80 e5 ff ff 	mov    -0x1a80(%rbp),%rax
    7b3b:	48 85 c0             	test   %rax,%rax
    7b3e:	75 07                	jne    7b47 <func_11+0xb94>
    7b40:	b8 01 00 00 00       	mov    $0x1,%eax
    7b45:	eb 05                	jmp    7b4c <func_11+0xb99>
    7b47:	b8 00 00 00 00       	mov    $0x0,%eax
    7b4c:	0f b7 c0             	movzwl %ax,%eax
    7b4f:	89 de                	mov    %ebx,%esi
    7b51:	89 c7                	mov    %eax,%edi
    7b53:	e8 e5 e1 ff ff       	callq  5d3d <safe_mul_func_uint16_t_u_u>
    7b58:	66 85 c0             	test   %ax,%ax
    7b5b:	0f 84 20 39 00 00    	je     b481 <func_11+0x44ce>
    7b61:	c7 85 04 e5 ff ff f7 	movl   $0xef122f7,-0x1afc(%rbp)
    7b68:	22 f1 0e 
    7b6b:	c7 85 88 e4 ff ff 15 	movl   $0x2786cc15,-0x1b78(%rbp)
    7b72:	cc 86 27 
    7b75:	48 c7 85 f8 e6 ff ff 	movq   $0x0,-0x1908(%rbp)
    7b7c:	00 00 00 00 
    7b80:	c7 85 8c e4 ff ff d3 	movl   $0x5c2f8bd3,-0x1b74(%rbp)
    7b87:	8b 2f 5c 
    7b8a:	c6 85 56 e4 ff ff 04 	movb   $0x4,-0x1baa(%rbp)
    7b91:	48 8d 05 e8 15 01 00 	lea    0x115e8(%rip),%rax        # 19180 <g_857>
    7b98:	48 89 85 a0 e5 ff ff 	mov    %rax,-0x1a60(%rbp)
    7b9f:	48 8d 85 a0 e5 ff ff 	lea    -0x1a60(%rbp),%rax
    7ba6:	48 89 85 00 e7 ff ff 	mov    %rax,-0x1900(%rbp)
    7bad:	48 8d 05 dc 0d 01 00 	lea    0x10ddc(%rip),%rax        # 18990 <g_1168+0x90>
    7bb4:	48 89 85 08 e7 ff ff 	mov    %rax,-0x18f8(%rbp)
    7bbb:	48 8d 85 00 ee ff ff 	lea    -0x1200(%rbp),%rax
    7bc2:	48 8d 15 17 b7 00 00 	lea    0xb717(%rip),%rdx        # 132e0 <g_2076+0x280>
    7bc9:	b9 24 00 00 00       	mov    $0x24,%ecx
    7bce:	48 89 c7             	mov    %rax,%rdi
    7bd1:	48 89 d6             	mov    %rdx,%rsi
    7bd4:	f3 48 a5             	rep movsq %ds:(%rsi),%es:(%rdi)
    7bd7:	48 8d 05 4c f4 00 00 	lea    0xf44c(%rip),%rax        # 1702a <g_61>
    7bde:	48 89 85 a8 e5 ff ff 	mov    %rax,-0x1a58(%rbp)
    7be5:	48 8d 85 a8 e5 ff ff 	lea    -0x1a58(%rbp),%rax
    7bec:	48 89 85 10 e7 ff ff 	mov    %rax,-0x18f0(%rbp)
    7bf3:	48 8d 05 7e 15 01 00 	lea    0x1157e(%rip),%rax        # 19178 <g_766>
    7bfa:	48 89 85 18 e7 ff ff 	mov    %rax,-0x18e8(%rbp)
    7c01:	48 8d 05 48 f4 00 00 	lea    0xf448(%rip),%rax        # 17050 <g_175>
    7c08:	48 89 85 20 e7 ff ff 	mov    %rax,-0x18e0(%rbp)
    7c0f:	c6 85 59 e4 ff ff 00 	movb   $0x0,-0x1ba7(%rbp)
    7c16:	48 c7 85 28 e7 ff ff 	movq   $0x0,-0x18d8(%rbp)
    7c1d:	00 00 00 00 
    7c21:	c7 85 9c e4 ff ff 00 	movl   $0x0,-0x1b64(%rbp)
    7c28:	00 00 00 
    7c2b:	eb 1a                	jmp    7c47 <func_11+0xc94>
    7c2d:	8b 85 9c e4 ff ff    	mov    -0x1b64(%rbp),%eax
    7c33:	48 98                	cltq   
    7c35:	c7 84 85 c8 e8 ff ff 	movl   $0x7d5864cf,-0x1738(%rbp,%rax,4)
    7c3c:	cf 64 58 7d 
    7c40:	83 85 9c e4 ff ff 01 	addl   $0x1,-0x1b64(%rbp)
    7c47:	83 bd 9c e4 ff ff 01 	cmpl   $0x1,-0x1b64(%rbp)
    7c4e:	7e dd                	jle    7c2d <func_11+0xc7a>
    7c50:	48 c7 85 48 e4 ff ff 	movq   $0xfffffffffffffff4,-0x1bb8(%rbp)
    7c57:	f4 ff ff ff 
    7c5b:	e9 f9 0e 00 00       	jmpq   8b59 <func_11+0x1ba6>
    7c60:	c6 85 d0 e5 ff ff 0c 	movb   $0xc,-0x1a30(%rbp)
    7c67:	48 8d 85 88 e5 ff ff 	lea    -0x1a78(%rbp),%rax
    7c6e:	48 89 85 48 e8 ff ff 	mov    %rax,-0x17b8(%rbp)
    7c75:	48 8d 05 c8 f4 00 00 	lea    0xf4c8(%rip),%rax        # 17144 <g_774>
    7c7c:	48 89 85 50 e8 ff ff 	mov    %rax,-0x17b0(%rbp)
    7c83:	48 8d 05 ae f3 00 00 	lea    0xf3ae(%rip),%rax        # 17038 <g_70>
    7c8a:	48 89 85 58 e8 ff ff 	mov    %rax,-0x17a8(%rbp)
    7c91:	48 8d 05 ac f4 00 00 	lea    0xf4ac(%rip),%rax        # 17144 <g_774>
    7c98:	48 89 85 60 e8 ff ff 	mov    %rax,-0x17a0(%rbp)
    7c9f:	48 8d 05 92 f3 00 00 	lea    0xf392(%rip),%rax        # 17038 <g_70>
    7ca6:	48 89 85 68 e8 ff ff 	mov    %rax,-0x1798(%rbp)
    7cad:	48 c7 85 70 e8 ff ff 	movq   $0x0,-0x1790(%rbp)
    7cb4:	00 00 00 00 
    7cb8:	48 8d 85 70 e4 ff ff 	lea    -0x1b90(%rbp),%rax
    7cbf:	48 89 85 78 e8 ff ff 	mov    %rax,-0x1788(%rbp)
    7cc6:	48 8d 85 78 e4 ff ff 	lea    -0x1b88(%rbp),%rax
    7ccd:	48 89 85 80 e8 ff ff 	mov    %rax,-0x1780(%rbp)
    7cd4:	48 8d 85 8c e4 ff ff 	lea    -0x1b74(%rbp),%rax
    7cdb:	48 89 85 88 e8 ff ff 	mov    %rax,-0x1778(%rbp)
    7ce2:	48 8d 05 5b f4 00 00 	lea    0xf45b(%rip),%rax        # 17144 <g_774>
    7ce9:	48 89 85 90 e8 ff ff 	mov    %rax,-0x1770(%rbp)
    7cf0:	48 8d 85 00 ed ff ff 	lea    -0x1300(%rbp),%rax
    7cf7:	48 83 c0 04          	add    $0x4,%rax
    7cfb:	48 89 85 60 f3 ff ff 	mov    %rax,-0xca0(%rbp)
    7d02:	48 8d 85 00 ed ff ff 	lea    -0x1300(%rbp),%rax
    7d09:	48 83 c0 04          	add    $0x4,%rax
    7d0d:	48 89 85 68 f3 ff ff 	mov    %rax,-0xc98(%rbp)
    7d14:	48 8d 85 70 e4 ff ff 	lea    -0x1b90(%rbp),%rax
    7d1b:	48 89 85 70 f3 ff ff 	mov    %rax,-0xc90(%rbp)
    7d22:	48 8d 85 88 e4 ff ff 	lea    -0x1b78(%rbp),%rax
    7d29:	48 89 85 78 f3 ff ff 	mov    %rax,-0xc88(%rbp)
    7d30:	48 c7 85 80 f3 ff ff 	movq   $0x0,-0xc80(%rbp)
    7d37:	00 00 00 00 
    7d3b:	48 8d 05 f6 f2 00 00 	lea    0xf2f6(%rip),%rax        # 17038 <g_70>
    7d42:	48 89 85 88 f3 ff ff 	mov    %rax,-0xc78(%rbp)
    7d49:	48 8d 85 88 e4 ff ff 	lea    -0x1b78(%rbp),%rax
    7d50:	48 89 85 90 f3 ff ff 	mov    %rax,-0xc70(%rbp)
    7d57:	48 8d 85 88 e4 ff ff 	lea    -0x1b78(%rbp),%rax
    7d5e:	48 89 85 98 f3 ff ff 	mov    %rax,-0xc68(%rbp)
    7d65:	48 8d 05 b8 f2 00 00 	lea    0xf2b8(%rip),%rax        # 17024 <g_2>
    7d6c:	48 89 85 a0 f3 ff ff 	mov    %rax,-0xc60(%rbp)
    7d73:	48 8d 85 88 e4 ff ff 	lea    -0x1b78(%rbp),%rax
    7d7a:	48 89 85 a8 f3 ff ff 	mov    %rax,-0xc58(%rbp)
    7d81:	48 8d 85 00 ed ff ff 	lea    -0x1300(%rbp),%rax
    7d88:	48 83 c0 04          	add    $0x4,%rax
    7d8c:	48 89 85 b0 f3 ff ff 	mov    %rax,-0xc50(%rbp)
    7d93:	48 8d 85 70 e4 ff ff 	lea    -0x1b90(%rbp),%rax
    7d9a:	48 89 85 b8 f3 ff ff 	mov    %rax,-0xc48(%rbp)
    7da1:	48 8d 85 00 ed ff ff 	lea    -0x1300(%rbp),%rax
    7da8:	48 83 c0 04          	add    $0x4,%rax
    7dac:	48 89 85 c0 f3 ff ff 	mov    %rax,-0xc40(%rbp)
    7db3:	48 8d 85 88 e4 ff ff 	lea    -0x1b78(%rbp),%rax
    7dba:	48 89 85 c8 f3 ff ff 	mov    %rax,-0xc38(%rbp)
    7dc1:	48 8d 05 5c f2 00 00 	lea    0xf25c(%rip),%rax        # 17024 <g_2>
    7dc8:	48 89 85 d0 f3 ff ff 	mov    %rax,-0xc30(%rbp)
    7dcf:	48 8d 85 88 e4 ff ff 	lea    -0x1b78(%rbp),%rax
    7dd6:	48 89 85 d8 f3 ff ff 	mov    %rax,-0xc28(%rbp)
    7ddd:	48 8d 85 88 e4 ff ff 	lea    -0x1b78(%rbp),%rax
    7de4:	48 89 85 e0 f3 ff ff 	mov    %rax,-0xc20(%rbp)
    7deb:	48 8d 05 46 f2 00 00 	lea    0xf246(%rip),%rax        # 17038 <g_70>
    7df2:	48 89 85 e8 f3 ff ff 	mov    %rax,-0xc18(%rbp)
    7df9:	48 c7 85 f0 f3 ff ff 	movq   $0x0,-0xc10(%rbp)
    7e00:	00 00 00 00 
    7e04:	48 8d 85 88 e4 ff ff 	lea    -0x1b78(%rbp),%rax
    7e0b:	48 89 85 f8 f3 ff ff 	mov    %rax,-0xc08(%rbp)
    7e12:	48 8d 85 70 e4 ff ff 	lea    -0x1b90(%rbp),%rax
    7e19:	48 89 85 00 f4 ff ff 	mov    %rax,-0xc00(%rbp)
    7e20:	48 8d 85 00 ed ff ff 	lea    -0x1300(%rbp),%rax
    7e27:	48 83 c0 04          	add    $0x4,%rax
    7e2b:	48 89 85 08 f4 ff ff 	mov    %rax,-0xbf8(%rbp)
    7e32:	48 8d 85 00 ed ff ff 	lea    -0x1300(%rbp),%rax
    7e39:	48 83 c0 04          	add    $0x4,%rax
    7e3d:	48 89 85 10 f4 ff ff 	mov    %rax,-0xbf0(%rbp)
    7e44:	48 8d 85 78 e4 ff ff 	lea    -0x1b88(%rbp),%rax
    7e4b:	48 89 85 18 f4 ff ff 	mov    %rax,-0xbe8(%rbp)
    7e52:	48 c7 85 20 f4 ff ff 	movq   $0x0,-0xbe0(%rbp)
    7e59:	00 00 00 00 
    7e5d:	48 8d 85 88 e4 ff ff 	lea    -0x1b78(%rbp),%rax
    7e64:	48 89 85 28 f4 ff ff 	mov    %rax,-0xbd8(%rbp)
    7e6b:	48 8d 85 78 e4 ff ff 	lea    -0x1b88(%rbp),%rax
    7e72:	48 89 85 30 f4 ff ff 	mov    %rax,-0xbd0(%rbp)
    7e79:	48 8d 85 88 e4 ff ff 	lea    -0x1b78(%rbp),%rax
    7e80:	48 89 85 38 f4 ff ff 	mov    %rax,-0xbc8(%rbp)
    7e87:	48 c7 85 40 f4 ff ff 	movq   $0x0,-0xbc0(%rbp)
    7e8e:	00 00 00 00 
    7e92:	48 8d 85 78 e4 ff ff 	lea    -0x1b88(%rbp),%rax
    7e99:	48 89 85 48 f4 ff ff 	mov    %rax,-0xbb8(%rbp)
    7ea0:	48 8d 85 00 ed ff ff 	lea    -0x1300(%rbp),%rax
    7ea7:	48 83 c0 04          	add    $0x4,%rax
    7eab:	48 89 85 50 f4 ff ff 	mov    %rax,-0xbb0(%rbp)
    7eb2:	48 8d 85 00 ed ff ff 	lea    -0x1300(%rbp),%rax
    7eb9:	48 83 c0 04          	add    $0x4,%rax
    7ebd:	48 89 85 58 f4 ff ff 	mov    %rax,-0xba8(%rbp)
    7ec4:	48 8d 85 70 e4 ff ff 	lea    -0x1b90(%rbp),%rax
    7ecb:	48 89 85 60 f4 ff ff 	mov    %rax,-0xba0(%rbp)
    7ed2:	48 8d 85 88 e4 ff ff 	lea    -0x1b78(%rbp),%rax
    7ed9:	48 89 85 68 f4 ff ff 	mov    %rax,-0xb98(%rbp)
    7ee0:	48 c7 85 70 f4 ff ff 	movq   $0x0,-0xb90(%rbp)
    7ee7:	00 00 00 00 
    7eeb:	48 8d 05 46 f1 00 00 	lea    0xf146(%rip),%rax        # 17038 <g_70>
    7ef2:	48 89 85 78 f4 ff ff 	mov    %rax,-0xb88(%rbp)
    7ef9:	48 8d 85 88 e4 ff ff 	lea    -0x1b78(%rbp),%rax
    7f00:	48 89 85 80 f4 ff ff 	mov    %rax,-0xb80(%rbp)
    7f07:	48 8d 85 88 e4 ff ff 	lea    -0x1b78(%rbp),%rax
    7f0e:	48 89 85 88 f4 ff ff 	mov    %rax,-0xb78(%rbp)
    7f15:	48 8d 05 08 f1 00 00 	lea    0xf108(%rip),%rax        # 17024 <g_2>
    7f1c:	48 89 85 90 f4 ff ff 	mov    %rax,-0xb70(%rbp)
    7f23:	48 8d 85 88 e4 ff ff 	lea    -0x1b78(%rbp),%rax
    7f2a:	48 89 85 98 f4 ff ff 	mov    %rax,-0xb68(%rbp)
    7f31:	48 8d 85 00 ed ff ff 	lea    -0x1300(%rbp),%rax
    7f38:	48 83 c0 04          	add    $0x4,%rax
    7f3c:	48 89 85 a0 f4 ff ff 	mov    %rax,-0xb60(%rbp)
    7f43:	48 8d 85 70 e4 ff ff 	lea    -0x1b90(%rbp),%rax
    7f4a:	48 89 85 a8 f4 ff ff 	mov    %rax,-0xb58(%rbp)
    7f51:	48 8d 85 00 ed ff ff 	lea    -0x1300(%rbp),%rax
    7f58:	48 83 c0 04          	add    $0x4,%rax
    7f5c:	48 89 85 b0 f4 ff ff 	mov    %rax,-0xb50(%rbp)
    7f63:	48 8d 85 88 e4 ff ff 	lea    -0x1b78(%rbp),%rax
    7f6a:	48 89 85 b8 f4 ff ff 	mov    %rax,-0xb48(%rbp)
    7f71:	48 8d 05 ac f0 00 00 	lea    0xf0ac(%rip),%rax        # 17024 <g_2>
    7f78:	48 89 85 c0 f4 ff ff 	mov    %rax,-0xb40(%rbp)
    7f7f:	48 8d 85 88 e4 ff ff 	lea    -0x1b78(%rbp),%rax
    7f86:	48 89 85 c8 f4 ff ff 	mov    %rax,-0xb38(%rbp)
    7f8d:	48 8d 85 88 e4 ff ff 	lea    -0x1b78(%rbp),%rax
    7f94:	48 89 85 d0 f4 ff ff 	mov    %rax,-0xb30(%rbp)
    7f9b:	48 8d 05 96 f0 00 00 	lea    0xf096(%rip),%rax        # 17038 <g_70>
    7fa2:	48 89 85 d8 f4 ff ff 	mov    %rax,-0xb28(%rbp)
    7fa9:	48 c7 85 e0 f4 ff ff 	movq   $0x0,-0xb20(%rbp)
    7fb0:	00 00 00 00 
    7fb4:	48 8d 85 88 e4 ff ff 	lea    -0x1b78(%rbp),%rax
    7fbb:	48 89 85 e8 f4 ff ff 	mov    %rax,-0xb18(%rbp)
    7fc2:	48 8d 85 70 e4 ff ff 	lea    -0x1b90(%rbp),%rax
    7fc9:	48 89 85 f0 f4 ff ff 	mov    %rax,-0xb10(%rbp)
    7fd0:	48 8d 85 00 ed ff ff 	lea    -0x1300(%rbp),%rax
    7fd7:	48 83 c0 04          	add    $0x4,%rax
    7fdb:	48 89 85 f8 f4 ff ff 	mov    %rax,-0xb08(%rbp)
    7fe2:	48 8d 85 00 ed ff ff 	lea    -0x1300(%rbp),%rax
    7fe9:	48 83 c0 04          	add    $0x4,%rax
    7fed:	48 89 85 00 f5 ff ff 	mov    %rax,-0xb00(%rbp)
    7ff4:	48 8d 85 78 e4 ff ff 	lea    -0x1b88(%rbp),%rax
    7ffb:	48 89 85 08 f5 ff ff 	mov    %rax,-0xaf8(%rbp)
    8002:	48 c7 85 10 f5 ff ff 	movq   $0x0,-0xaf0(%rbp)
    8009:	00 00 00 00 
    800d:	48 8d 85 88 e4 ff ff 	lea    -0x1b78(%rbp),%rax
    8014:	48 89 85 18 f5 ff ff 	mov    %rax,-0xae8(%rbp)
    801b:	48 8d 85 78 e4 ff ff 	lea    -0x1b88(%rbp),%rax
    8022:	48 89 85 20 f5 ff ff 	mov    %rax,-0xae0(%rbp)
    8029:	48 8d 85 88 e4 ff ff 	lea    -0x1b78(%rbp),%rax
    8030:	48 89 85 28 f5 ff ff 	mov    %rax,-0xad8(%rbp)
    8037:	48 c7 85 30 f5 ff ff 	movq   $0x0,-0xad0(%rbp)
    803e:	00 00 00 00 
    8042:	48 8d 85 78 e4 ff ff 	lea    -0x1b88(%rbp),%rax
    8049:	48 89 85 38 f5 ff ff 	mov    %rax,-0xac8(%rbp)
    8050:	48 8d 85 00 ed ff ff 	lea    -0x1300(%rbp),%rax
    8057:	48 83 c0 04          	add    $0x4,%rax
    805b:	48 89 85 40 f5 ff ff 	mov    %rax,-0xac0(%rbp)
    8062:	48 8d 85 00 ed ff ff 	lea    -0x1300(%rbp),%rax
    8069:	48 83 c0 04          	add    $0x4,%rax
    806d:	48 89 85 48 f5 ff ff 	mov    %rax,-0xab8(%rbp)
    8074:	48 8d 85 70 e4 ff ff 	lea    -0x1b90(%rbp),%rax
    807b:	48 89 85 50 f5 ff ff 	mov    %rax,-0xab0(%rbp)
    8082:	48 8d 85 88 e4 ff ff 	lea    -0x1b78(%rbp),%rax
    8089:	48 89 85 58 f5 ff ff 	mov    %rax,-0xaa8(%rbp)
    8090:	48 c7 85 60 f5 ff ff 	movq   $0x0,-0xaa0(%rbp)
    8097:	00 00 00 00 
    809b:	48 8d 05 96 ef 00 00 	lea    0xef96(%rip),%rax        # 17038 <g_70>
    80a2:	48 89 85 68 f5 ff ff 	mov    %rax,-0xa98(%rbp)
    80a9:	48 8d 85 88 e4 ff ff 	lea    -0x1b78(%rbp),%rax
    80b0:	48 89 85 70 f5 ff ff 	mov    %rax,-0xa90(%rbp)
    80b7:	48 8d 85 88 e4 ff ff 	lea    -0x1b78(%rbp),%rax
    80be:	48 89 85 78 f5 ff ff 	mov    %rax,-0xa88(%rbp)
    80c5:	48 8d 05 58 ef 00 00 	lea    0xef58(%rip),%rax        # 17024 <g_2>
    80cc:	48 89 85 80 f5 ff ff 	mov    %rax,-0xa80(%rbp)
    80d3:	48 8d 85 88 e4 ff ff 	lea    -0x1b78(%rbp),%rax
    80da:	48 89 85 88 f5 ff ff 	mov    %rax,-0xa78(%rbp)
    80e1:	48 8d 85 00 ed ff ff 	lea    -0x1300(%rbp),%rax
    80e8:	48 83 c0 04          	add    $0x4,%rax
    80ec:	48 89 85 90 f5 ff ff 	mov    %rax,-0xa70(%rbp)
    80f3:	48 8d 85 70 e4 ff ff 	lea    -0x1b90(%rbp),%rax
    80fa:	48 89 85 98 f5 ff ff 	mov    %rax,-0xa68(%rbp)
    8101:	48 8d 85 00 ed ff ff 	lea    -0x1300(%rbp),%rax
    8108:	48 83 c0 04          	add    $0x4,%rax
    810c:	48 89 85 a0 f5 ff ff 	mov    %rax,-0xa60(%rbp)
    8113:	48 8d 85 88 e4 ff ff 	lea    -0x1b78(%rbp),%rax
    811a:	48 89 85 a8 f5 ff ff 	mov    %rax,-0xa58(%rbp)
    8121:	48 8d 05 fc ee 00 00 	lea    0xeefc(%rip),%rax        # 17024 <g_2>
    8128:	48 89 85 b0 f5 ff ff 	mov    %rax,-0xa50(%rbp)
    812f:	48 8d 85 88 e4 ff ff 	lea    -0x1b78(%rbp),%rax
    8136:	48 89 85 b8 f5 ff ff 	mov    %rax,-0xa48(%rbp)
    813d:	48 8d 85 88 e4 ff ff 	lea    -0x1b78(%rbp),%rax
    8144:	48 89 85 c0 f5 ff ff 	mov    %rax,-0xa40(%rbp)
    814b:	48 8d 05 e6 ee 00 00 	lea    0xeee6(%rip),%rax        # 17038 <g_70>
    8152:	48 89 85 c8 f5 ff ff 	mov    %rax,-0xa38(%rbp)
    8159:	48 c7 85 d0 f5 ff ff 	movq   $0x0,-0xa30(%rbp)
    8160:	00 00 00 00 
    8164:	48 8d 85 88 e4 ff ff 	lea    -0x1b78(%rbp),%rax
    816b:	48 89 85 d8 f5 ff ff 	mov    %rax,-0xa28(%rbp)
    8172:	48 8d 85 70 e4 ff ff 	lea    -0x1b90(%rbp),%rax
    8179:	48 89 85 e0 f5 ff ff 	mov    %rax,-0xa20(%rbp)
    8180:	48 8d 85 00 ed ff ff 	lea    -0x1300(%rbp),%rax
    8187:	48 83 c0 04          	add    $0x4,%rax
    818b:	48 89 85 e8 f5 ff ff 	mov    %rax,-0xa18(%rbp)
    8192:	48 8d 85 00 ed ff ff 	lea    -0x1300(%rbp),%rax
    8199:	48 83 c0 04          	add    $0x4,%rax
    819d:	48 89 85 f0 f5 ff ff 	mov    %rax,-0xa10(%rbp)
    81a4:	48 8d 85 78 e4 ff ff 	lea    -0x1b88(%rbp),%rax
    81ab:	48 89 85 f8 f5 ff ff 	mov    %rax,-0xa08(%rbp)
    81b2:	48 c7 85 00 f6 ff ff 	movq   $0x0,-0xa00(%rbp)
    81b9:	00 00 00 00 
    81bd:	48 8d 85 88 e4 ff ff 	lea    -0x1b78(%rbp),%rax
    81c4:	48 89 85 08 f6 ff ff 	mov    %rax,-0x9f8(%rbp)
    81cb:	48 8d 85 78 e4 ff ff 	lea    -0x1b88(%rbp),%rax
    81d2:	48 89 85 10 f6 ff ff 	mov    %rax,-0x9f0(%rbp)
    81d9:	48 8d 85 88 e4 ff ff 	lea    -0x1b78(%rbp),%rax
    81e0:	48 89 85 18 f6 ff ff 	mov    %rax,-0x9e8(%rbp)
    81e7:	48 c7 85 20 f6 ff ff 	movq   $0x0,-0x9e0(%rbp)
    81ee:	00 00 00 00 
    81f2:	48 8d 85 78 e4 ff ff 	lea    -0x1b88(%rbp),%rax
    81f9:	48 89 85 28 f6 ff ff 	mov    %rax,-0x9d8(%rbp)
    8200:	48 8d 85 00 ed ff ff 	lea    -0x1300(%rbp),%rax
    8207:	48 83 c0 04          	add    $0x4,%rax
    820b:	48 89 85 30 f6 ff ff 	mov    %rax,-0x9d0(%rbp)
    8212:	48 8d 85 00 ed ff ff 	lea    -0x1300(%rbp),%rax
    8219:	48 83 c0 04          	add    $0x4,%rax
    821d:	48 89 85 38 f6 ff ff 	mov    %rax,-0x9c8(%rbp)
    8224:	48 8d 85 70 e4 ff ff 	lea    -0x1b90(%rbp),%rax
    822b:	48 89 85 40 f6 ff ff 	mov    %rax,-0x9c0(%rbp)
    8232:	48 8d 85 88 e4 ff ff 	lea    -0x1b78(%rbp),%rax
    8239:	48 89 85 48 f6 ff ff 	mov    %rax,-0x9b8(%rbp)
    8240:	48 c7 85 50 f6 ff ff 	movq   $0x0,-0x9b0(%rbp)
    8247:	00 00 00 00 
    824b:	48 8d 05 e6 ed 00 00 	lea    0xede6(%rip),%rax        # 17038 <g_70>
    8252:	48 89 85 58 f6 ff ff 	mov    %rax,-0x9a8(%rbp)
    8259:	48 8d 85 88 e4 ff ff 	lea    -0x1b78(%rbp),%rax
    8260:	48 89 85 60 f6 ff ff 	mov    %rax,-0x9a0(%rbp)
    8267:	48 8d 85 88 e4 ff ff 	lea    -0x1b78(%rbp),%rax
    826e:	48 89 85 68 f6 ff ff 	mov    %rax,-0x998(%rbp)
    8275:	48 8d 05 a8 ed 00 00 	lea    0xeda8(%rip),%rax        # 17024 <g_2>
    827c:	48 89 85 70 f6 ff ff 	mov    %rax,-0x990(%rbp)
    8283:	48 8d 85 88 e4 ff ff 	lea    -0x1b78(%rbp),%rax
    828a:	48 89 85 78 f6 ff ff 	mov    %rax,-0x988(%rbp)
    8291:	48 8d 85 00 ed ff ff 	lea    -0x1300(%rbp),%rax
    8298:	48 83 c0 04          	add    $0x4,%rax
    829c:	48 89 85 80 f6 ff ff 	mov    %rax,-0x980(%rbp)
    82a3:	48 8d 85 70 e4 ff ff 	lea    -0x1b90(%rbp),%rax
    82aa:	48 89 85 88 f6 ff ff 	mov    %rax,-0x978(%rbp)
    82b1:	48 8d 85 00 ed ff ff 	lea    -0x1300(%rbp),%rax
    82b8:	48 83 c0 04          	add    $0x4,%rax
    82bc:	48 89 85 90 f6 ff ff 	mov    %rax,-0x970(%rbp)
    82c3:	48 8d 85 88 e4 ff ff 	lea    -0x1b78(%rbp),%rax
    82ca:	48 89 85 98 f6 ff ff 	mov    %rax,-0x968(%rbp)
    82d1:	48 8d 05 4c ed 00 00 	lea    0xed4c(%rip),%rax        # 17024 <g_2>
    82d8:	48 89 85 a0 f6 ff ff 	mov    %rax,-0x960(%rbp)
    82df:	48 8d 85 88 e4 ff ff 	lea    -0x1b78(%rbp),%rax
    82e6:	48 89 85 a8 f6 ff ff 	mov    %rax,-0x958(%rbp)
    82ed:	48 8d 85 88 e4 ff ff 	lea    -0x1b78(%rbp),%rax
    82f4:	48 89 85 b0 f6 ff ff 	mov    %rax,-0x950(%rbp)
    82fb:	48 8d 05 36 ed 00 00 	lea    0xed36(%rip),%rax        # 17038 <g_70>
    8302:	48 89 85 b8 f6 ff ff 	mov    %rax,-0x948(%rbp)
    8309:	48 c7 85 c0 f6 ff ff 	movq   $0x0,-0x940(%rbp)
    8310:	00 00 00 00 
    8314:	48 8d 85 88 e4 ff ff 	lea    -0x1b78(%rbp),%rax
    831b:	48 89 85 c8 f6 ff ff 	mov    %rax,-0x938(%rbp)
    8322:	48 8d 85 70 e4 ff ff 	lea    -0x1b90(%rbp),%rax
    8329:	48 89 85 d0 f6 ff ff 	mov    %rax,-0x930(%rbp)
    8330:	48 8d 85 00 ed ff ff 	lea    -0x1300(%rbp),%rax
    8337:	48 83 c0 04          	add    $0x4,%rax
    833b:	48 89 85 d8 f6 ff ff 	mov    %rax,-0x928(%rbp)
    8342:	48 8d 85 00 ed ff ff 	lea    -0x1300(%rbp),%rax
    8349:	48 83 c0 04          	add    $0x4,%rax
    834d:	48 89 85 e0 f6 ff ff 	mov    %rax,-0x920(%rbp)
    8354:	48 8d 85 78 e4 ff ff 	lea    -0x1b88(%rbp),%rax
    835b:	48 89 85 e8 f6 ff ff 	mov    %rax,-0x918(%rbp)
    8362:	48 c7 85 f0 f6 ff ff 	movq   $0x0,-0x910(%rbp)
    8369:	00 00 00 00 
    836d:	48 8d 85 88 e4 ff ff 	lea    -0x1b78(%rbp),%rax
    8374:	48 89 85 f8 f6 ff ff 	mov    %rax,-0x908(%rbp)
    837b:	48 8d 85 78 e4 ff ff 	lea    -0x1b88(%rbp),%rax
    8382:	48 89 85 00 f7 ff ff 	mov    %rax,-0x900(%rbp)
    8389:	48 8d 85 88 e4 ff ff 	lea    -0x1b78(%rbp),%rax
    8390:	48 89 85 08 f7 ff ff 	mov    %rax,-0x8f8(%rbp)
    8397:	48 c7 85 10 f7 ff ff 	movq   $0x0,-0x8f0(%rbp)
    839e:	00 00 00 00 
    83a2:	48 8d 85 78 e4 ff ff 	lea    -0x1b88(%rbp),%rax
    83a9:	48 89 85 18 f7 ff ff 	mov    %rax,-0x8e8(%rbp)
    83b0:	48 8d 85 00 ed ff ff 	lea    -0x1300(%rbp),%rax
    83b7:	48 83 c0 04          	add    $0x4,%rax
    83bb:	48 89 85 20 f7 ff ff 	mov    %rax,-0x8e0(%rbp)
    83c2:	48 8d 85 00 ed ff ff 	lea    -0x1300(%rbp),%rax
    83c9:	48 83 c0 04          	add    $0x4,%rax
    83cd:	48 89 85 28 f7 ff ff 	mov    %rax,-0x8d8(%rbp)
    83d4:	48 8d 85 70 e4 ff ff 	lea    -0x1b90(%rbp),%rax
    83db:	48 89 85 30 f7 ff ff 	mov    %rax,-0x8d0(%rbp)
    83e2:	48 8d 85 88 e4 ff ff 	lea    -0x1b78(%rbp),%rax
    83e9:	48 89 85 38 f7 ff ff 	mov    %rax,-0x8c8(%rbp)
    83f0:	48 c7 85 40 f7 ff ff 	movq   $0x0,-0x8c0(%rbp)
    83f7:	00 00 00 00 
    83fb:	48 8d 05 36 ec 00 00 	lea    0xec36(%rip),%rax        # 17038 <g_70>
    8402:	48 89 85 48 f7 ff ff 	mov    %rax,-0x8b8(%rbp)
    8409:	48 8d 85 88 e4 ff ff 	lea    -0x1b78(%rbp),%rax
    8410:	48 89 85 50 f7 ff ff 	mov    %rax,-0x8b0(%rbp)
    8417:	48 8d 85 88 e4 ff ff 	lea    -0x1b78(%rbp),%rax
    841e:	48 89 85 58 f7 ff ff 	mov    %rax,-0x8a8(%rbp)
    8425:	48 8d 05 f8 eb 00 00 	lea    0xebf8(%rip),%rax        # 17024 <g_2>
    842c:	48 89 85 60 f7 ff ff 	mov    %rax,-0x8a0(%rbp)
    8433:	48 8d 85 88 e4 ff ff 	lea    -0x1b78(%rbp),%rax
    843a:	48 89 85 68 f7 ff ff 	mov    %rax,-0x898(%rbp)
    8441:	48 8d 85 00 ed ff ff 	lea    -0x1300(%rbp),%rax
    8448:	48 83 c0 04          	add    $0x4,%rax
    844c:	48 89 85 70 f7 ff ff 	mov    %rax,-0x890(%rbp)
    8453:	48 8d 85 70 e4 ff ff 	lea    -0x1b90(%rbp),%rax
    845a:	48 89 85 78 f7 ff ff 	mov    %rax,-0x888(%rbp)
    8461:	48 8d 85 00 ed ff ff 	lea    -0x1300(%rbp),%rax
    8468:	48 83 c0 04          	add    $0x4,%rax
    846c:	48 89 85 80 f7 ff ff 	mov    %rax,-0x880(%rbp)
    8473:	48 8d 85 88 e4 ff ff 	lea    -0x1b78(%rbp),%rax
    847a:	48 89 85 88 f7 ff ff 	mov    %rax,-0x878(%rbp)
    8481:	48 8d 05 9c eb 00 00 	lea    0xeb9c(%rip),%rax        # 17024 <g_2>
    8488:	48 89 85 90 f7 ff ff 	mov    %rax,-0x870(%rbp)
    848f:	48 8d 85 88 e4 ff ff 	lea    -0x1b78(%rbp),%rax
    8496:	48 89 85 98 f7 ff ff 	mov    %rax,-0x868(%rbp)
    849d:	48 8d 85 88 e4 ff ff 	lea    -0x1b78(%rbp),%rax
    84a4:	48 89 85 a0 f7 ff ff 	mov    %rax,-0x860(%rbp)
    84ab:	48 8d 05 86 eb 00 00 	lea    0xeb86(%rip),%rax        # 17038 <g_70>
    84b2:	48 89 85 a8 f7 ff ff 	mov    %rax,-0x858(%rbp)
    84b9:	48 c7 85 b0 f7 ff ff 	movq   $0x0,-0x850(%rbp)
    84c0:	00 00 00 00 
    84c4:	48 8d 85 88 e4 ff ff 	lea    -0x1b78(%rbp),%rax
    84cb:	48 89 85 b8 f7 ff ff 	mov    %rax,-0x848(%rbp)
    84d2:	48 8d 85 70 e4 ff ff 	lea    -0x1b90(%rbp),%rax
    84d9:	48 89 85 c0 f7 ff ff 	mov    %rax,-0x840(%rbp)
    84e0:	48 8d 85 00 ed ff ff 	lea    -0x1300(%rbp),%rax
    84e7:	48 83 c0 04          	add    $0x4,%rax
    84eb:	48 89 85 c8 f7 ff ff 	mov    %rax,-0x838(%rbp)
    84f2:	48 8d 85 00 ed ff ff 	lea    -0x1300(%rbp),%rax
    84f9:	48 83 c0 04          	add    $0x4,%rax
    84fd:	48 89 85 d0 f7 ff ff 	mov    %rax,-0x830(%rbp)
    8504:	48 8d 85 78 e4 ff ff 	lea    -0x1b88(%rbp),%rax
    850b:	48 89 85 d8 f7 ff ff 	mov    %rax,-0x828(%rbp)
    8512:	48 c7 85 e0 f7 ff ff 	movq   $0x0,-0x820(%rbp)
    8519:	00 00 00 00 
    851d:	48 8d 85 88 e4 ff ff 	lea    -0x1b78(%rbp),%rax
    8524:	48 89 85 e8 f7 ff ff 	mov    %rax,-0x818(%rbp)
    852b:	48 8d 85 78 e4 ff ff 	lea    -0x1b88(%rbp),%rax
    8532:	48 89 85 f0 f7 ff ff 	mov    %rax,-0x810(%rbp)
    8539:	48 8d 85 88 e4 ff ff 	lea    -0x1b78(%rbp),%rax
    8540:	48 89 85 f8 f7 ff ff 	mov    %rax,-0x808(%rbp)
    8547:	48 c7 85 00 f8 ff ff 	movq   $0x0,-0x800(%rbp)
    854e:	00 00 00 00 
    8552:	48 8d 85 78 e4 ff ff 	lea    -0x1b88(%rbp),%rax
    8559:	48 89 85 08 f8 ff ff 	mov    %rax,-0x7f8(%rbp)
    8560:	48 8d 85 00 ed ff ff 	lea    -0x1300(%rbp),%rax
    8567:	48 83 c0 04          	add    $0x4,%rax
    856b:	48 89 85 10 f8 ff ff 	mov    %rax,-0x7f0(%rbp)
    8572:	48 8d 85 00 ed ff ff 	lea    -0x1300(%rbp),%rax
    8579:	48 83 c0 04          	add    $0x4,%rax
    857d:	48 89 85 18 f8 ff ff 	mov    %rax,-0x7e8(%rbp)
    8584:	48 8d 85 70 e4 ff ff 	lea    -0x1b90(%rbp),%rax
    858b:	48 89 85 20 f8 ff ff 	mov    %rax,-0x7e0(%rbp)
    8592:	48 8d 85 88 e4 ff ff 	lea    -0x1b78(%rbp),%rax
    8599:	48 89 85 28 f8 ff ff 	mov    %rax,-0x7d8(%rbp)
    85a0:	48 c7 85 30 f8 ff ff 	movq   $0x0,-0x7d0(%rbp)
    85a7:	00 00 00 00 
    85ab:	48 8d 05 86 ea 00 00 	lea    0xea86(%rip),%rax        # 17038 <g_70>
    85b2:	48 89 85 38 f8 ff ff 	mov    %rax,-0x7c8(%rbp)
    85b9:	48 8d 85 88 e4 ff ff 	lea    -0x1b78(%rbp),%rax
    85c0:	48 89 85 40 f8 ff ff 	mov    %rax,-0x7c0(%rbp)
    85c7:	48 8d 85 88 e4 ff ff 	lea    -0x1b78(%rbp),%rax
    85ce:	48 89 85 48 f8 ff ff 	mov    %rax,-0x7b8(%rbp)
    85d5:	48 8d 05 48 ea 00 00 	lea    0xea48(%rip),%rax        # 17024 <g_2>
    85dc:	48 89 85 50 f8 ff ff 	mov    %rax,-0x7b0(%rbp)
    85e3:	48 8d 85 88 e4 ff ff 	lea    -0x1b78(%rbp),%rax
    85ea:	48 89 85 58 f8 ff ff 	mov    %rax,-0x7a8(%rbp)
    85f1:	48 8d 85 00 ed ff ff 	lea    -0x1300(%rbp),%rax
    85f8:	48 83 c0 04          	add    $0x4,%rax
    85fc:	48 89 85 60 f8 ff ff 	mov    %rax,-0x7a0(%rbp)
    8603:	48 8d 85 70 e4 ff ff 	lea    -0x1b90(%rbp),%rax
    860a:	48 89 85 68 f8 ff ff 	mov    %rax,-0x798(%rbp)
    8611:	48 8d 85 00 ed ff ff 	lea    -0x1300(%rbp),%rax
    8618:	48 83 c0 04          	add    $0x4,%rax
    861c:	48 89 85 70 f8 ff ff 	mov    %rax,-0x790(%rbp)
    8623:	48 8d 85 88 e4 ff ff 	lea    -0x1b78(%rbp),%rax
    862a:	48 89 85 78 f8 ff ff 	mov    %rax,-0x788(%rbp)
    8631:	48 8d 05 ec e9 00 00 	lea    0xe9ec(%rip),%rax        # 17024 <g_2>
    8638:	48 89 85 80 f8 ff ff 	mov    %rax,-0x780(%rbp)
    863f:	48 8d 85 88 e4 ff ff 	lea    -0x1b78(%rbp),%rax
    8646:	48 89 85 88 f8 ff ff 	mov    %rax,-0x778(%rbp)
    864d:	48 8d 85 88 e4 ff ff 	lea    -0x1b78(%rbp),%rax
    8654:	48 89 85 90 f8 ff ff 	mov    %rax,-0x770(%rbp)
    865b:	48 8d 05 d6 e9 00 00 	lea    0xe9d6(%rip),%rax        # 17038 <g_70>
    8662:	48 89 85 98 f8 ff ff 	mov    %rax,-0x768(%rbp)
    8669:	48 c7 85 a0 f8 ff ff 	movq   $0x0,-0x760(%rbp)
    8670:	00 00 00 00 
    8674:	48 8d 85 88 e4 ff ff 	lea    -0x1b78(%rbp),%rax
    867b:	48 89 85 a8 f8 ff ff 	mov    %rax,-0x758(%rbp)
    8682:	48 8d 85 70 e4 ff ff 	lea    -0x1b90(%rbp),%rax
    8689:	48 89 85 b0 f8 ff ff 	mov    %rax,-0x750(%rbp)
    8690:	48 8d 85 00 ed ff ff 	lea    -0x1300(%rbp),%rax
    8697:	48 83 c0 04          	add    $0x4,%rax
    869b:	48 89 85 b8 f8 ff ff 	mov    %rax,-0x748(%rbp)
    86a2:	48 8d 85 00 ed ff ff 	lea    -0x1300(%rbp),%rax
    86a9:	48 83 c0 04          	add    $0x4,%rax
    86ad:	48 89 85 c0 f8 ff ff 	mov    %rax,-0x740(%rbp)
    86b4:	48 8d 85 8c e4 ff ff 	lea    -0x1b74(%rbp),%rax
    86bb:	48 89 85 c8 f8 ff ff 	mov    %rax,-0x738(%rbp)
    86c2:	48 8d 05 7b ea 00 00 	lea    0xea7b(%rip),%rax        # 17144 <g_774>
    86c9:	48 89 85 d0 f8 ff ff 	mov    %rax,-0x730(%rbp)
    86d0:	48 8d 85 70 e4 ff ff 	lea    -0x1b90(%rbp),%rax
    86d7:	48 89 85 d8 f8 ff ff 	mov    %rax,-0x728(%rbp)
    86de:	48 8d 85 8c e4 ff ff 	lea    -0x1b74(%rbp),%rax
    86e5:	48 89 85 e0 f8 ff ff 	mov    %rax,-0x720(%rbp)
    86ec:	48 8d 85 70 e4 ff ff 	lea    -0x1b90(%rbp),%rax
    86f3:	48 89 85 e8 f8 ff ff 	mov    %rax,-0x718(%rbp)
    86fa:	48 8d 05 43 ea 00 00 	lea    0xea43(%rip),%rax        # 17144 <g_774>
    8701:	48 89 85 f0 f8 ff ff 	mov    %rax,-0x710(%rbp)
    8708:	48 8d 85 8c e4 ff ff 	lea    -0x1b74(%rbp),%rax
    870f:	48 89 85 f8 f8 ff ff 	mov    %rax,-0x708(%rbp)
    8716:	c7 85 a0 e4 ff ff 00 	movl   $0x0,-0x1b60(%rbp)
    871d:	00 00 00 
    8720:	eb 42                	jmp    8764 <func_11+0x17b1>
    8722:	c7 85 a4 e4 ff ff 00 	movl   $0x0,-0x1b5c(%rbp)
    8729:	00 00 00 
    872c:	eb 26                	jmp    8754 <func_11+0x17a1>
    872e:	8b 85 a4 e4 ff ff    	mov    -0x1b5c(%rbp),%eax
    8734:	48 63 d0             	movslq %eax,%rdx
    8737:	8b 85 a0 e4 ff ff    	mov    -0x1b60(%rbp),%eax
    873d:	48 98                	cltq   
    873f:	48 01 d0             	add    %rdx,%rax
    8742:	c7 84 85 00 ed ff ff 	movl   $0x4,-0x1300(%rbp,%rax,4)
    8749:	04 00 00 00 
    874d:	83 85 a4 e4 ff ff 01 	addl   $0x1,-0x1b5c(%rbp)
    8754:	83 bd a4 e4 ff ff 00 	cmpl   $0x0,-0x1b5c(%rbp)
    875b:	7e d1                	jle    872e <func_11+0x177b>
    875d:	83 85 a0 e4 ff ff 01 	addl   $0x1,-0x1b60(%rbp)
    8764:	83 bd a0 e4 ff ff 04 	cmpl   $0x4,-0x1b60(%rbp)
    876b:	7e b5                	jle    8722 <func_11+0x176f>
    876d:	83 bd 04 e5 ff ff 00 	cmpl   $0x0,-0x1afc(%rbp)
    8774:	0f 84 b6 02 00 00    	je     8a30 <func_11+0x1a7d>
    877a:	48 8d 05 bb e8 00 00 	lea    0xe8bb(%rip),%rax        # 1703c <g_95>
    8781:	48 89 85 a0 e8 ff ff 	mov    %rax,-0x1760(%rbp)
    8788:	c7 85 30 e5 ff ff f8 	movl   $0xfffffff8,-0x1ad0(%rbp)
    878f:	ff ff ff 
    8792:	c7 85 34 e5 ff ff 78 	movl   $0x52cca178,-0x1acc(%rbp)
    8799:	a1 cc 52 
    879c:	c7 85 a8 e4 ff ff 00 	movl   $0x0,-0x1b58(%rbp)
    87a3:	00 00 00 
    87a6:	eb 1e                	jmp    87c6 <func_11+0x1813>
    87a8:	8b 85 a8 e4 ff ff    	mov    -0x1b58(%rbp),%eax
    87ae:	48 98                	cltq   
    87b0:	48 8d 15 d1 e8 00 00 	lea    0xe8d1(%rip),%rdx        # 17088 <g_262>
    87b7:	48 89 94 c5 20 ef ff 	mov    %rdx,-0x10e0(%rbp,%rax,8)
    87be:	ff 
    87bf:	83 85 a8 e4 ff ff 01 	addl   $0x1,-0x1b58(%rbp)
    87c6:	83 bd a8 e4 ff ff 02 	cmpl   $0x2,-0x1b58(%rbp)
    87cd:	7e d9                	jle    87a8 <func_11+0x17f5>
    87cf:	c7 85 a8 e4 ff ff 00 	movl   $0x0,-0x1b58(%rbp)
    87d6:	00 00 00 
    87d9:	eb 45                	jmp    8820 <func_11+0x186d>
    87db:	c7 85 ac e4 ff ff 00 	movl   $0x0,-0x1b54(%rbp)
    87e2:	00 00 00 
    87e5:	eb 29                	jmp    8810 <func_11+0x185d>
    87e7:	8b 85 ac e4 ff ff    	mov    -0x1b54(%rbp),%eax
    87ed:	48 98                	cltq   
    87ef:	8b 95 a8 e4 ff ff    	mov    -0x1b58(%rbp),%edx
    87f5:	48 63 d2             	movslq %edx,%rdx
    87f8:	48 01 d2             	add    %rdx,%rdx
    87fb:	48 01 d0             	add    %rdx,%rax
    87fe:	c7 84 85 20 ec ff ff 	movl   $0x1,-0x13e0(%rbp,%rax,4)
    8805:	01 00 00 00 
    8809:	83 85 ac e4 ff ff 01 	addl   $0x1,-0x1b54(%rbp)
    8810:	83 bd ac e4 ff ff 01 	cmpl   $0x1,-0x1b54(%rbp)
    8817:	7e ce                	jle    87e7 <func_11+0x1834>
    8819:	83 85 a8 e4 ff ff 01 	addl   $0x1,-0x1b58(%rbp)
    8820:	83 bd a8 e4 ff ff 00 	cmpl   $0x0,-0x1b58(%rbp)
    8827:	7e b2                	jle    87db <func_11+0x1828>
    8829:	66 83 bd 60 e4 ff ff 	cmpw   $0x0,-0x1ba0(%rbp)
    8830:	00 
    8831:	0f 85 10 03 00 00    	jne    8b47 <func_11+0x1b94>
    8837:	8b 05 07 e9 00 00    	mov    0xe907(%rip),%eax        # 17144 <g_774>
    883d:	85 c0                	test   %eax,%eax
    883f:	0f 85 08 03 00 00    	jne    8b4d <func_11+0x1b9a>
    8845:	48 8b 85 38 e4 ff ff 	mov    -0x1bc8(%rbp),%rax
    884c:	48 8d 50 01          	lea    0x1(%rax),%rdx
    8850:	48 89 95 38 e4 ff ff 	mov    %rdx,-0x1bc8(%rbp)
    8857:	48 85 c0             	test   %rax,%rax
    885a:	0f 84 c0 01 00 00    	je     8a20 <func_11+0x1a6d>
    8860:	0f b6 05 25 e9 00 00 	movzbl 0xe925(%rip),%eax        # 1718c <g_1311>
    8867:	83 e0 0f             	and    $0xf,%eax
    886a:	0f b6 d8             	movzbl %al,%ebx
    886d:	48 8b 85 38 e4 ff ff 	mov    -0x1bc8(%rbp),%rax
    8874:	44 0f bf e0          	movswl %ax,%r12d
    8878:	0f b6 85 44 e4 ff ff 	movzbl -0x1bbc(%rbp),%eax
    887f:	44 0f b6 e8          	movzbl %al,%r13d
    8883:	0f b6 85 d0 e5 ff ff 	movzbl -0x1a30(%rbp),%eax
    888a:	44 0f b6 f0          	movzbl %al,%r14d
    888e:	48 8b 85 48 e4 ff ff 	mov    -0x1bb8(%rbp),%rax
    8895:	0f b7 d0             	movzwl %ax,%edx
    8898:	48 8b 05 39 e9 00 00 	mov    0xe939(%rip),%rax        # 171d8 <g_1702+0x8>
    889f:	48 8b 05 a2 ff 00 00 	mov    0xffa2(%rip),%rax        # 18848 <g_736>
    88a6:	0f b6 00             	movzbl (%rax),%eax
    88a9:	48 0f be c8          	movsbq %al,%rcx
    88ad:	48 8b 05 9c e7 00 00 	mov    0xe79c(%rip),%rax        # 17050 <g_175>
    88b4:	48 39 c1             	cmp    %rax,%rcx
    88b7:	0f 93 c0             	setae  %al
    88ba:	0f b6 c0             	movzbl %al,%eax
    88bd:	89 85 24 ec ff ff    	mov    %eax,-0x13dc(%rbp)
    88c3:	8b 85 24 ec ff ff    	mov    -0x13dc(%rbp),%eax
    88c9:	0f b7 c0             	movzwl %ax,%eax
    88cc:	89 d6                	mov    %edx,%esi
    88ce:	89 c7                	mov    %eax,%edi
    88d0:	e8 68 d4 ff ff       	callq  5d3d <safe_mul_func_uint16_t_u_u>
    88d5:	8b 85 04 e5 ff ff    	mov    -0x1afc(%rbp),%eax
    88db:	83 f0 03             	xor    $0x3,%eax
    88de:	44 89 f6             	mov    %r14d,%esi
    88e1:	89 c7                	mov    %eax,%edi
    88e3:	e8 e4 cd ff ff       	callq  56cc <safe_mod_func_int32_t_s_s>
    88e8:	85 c0                	test   %eax,%eax
    88ea:	74 07                	je     88f3 <func_11+0x1940>
    88ec:	b8 01 00 00 00       	mov    $0x1,%eax
    88f1:	eb 05                	jmp    88f8 <func_11+0x1945>
    88f3:	b8 00 00 00 00       	mov    $0x0,%eax
    88f8:	48 98                	cltq   
    88fa:	4c 89 ee             	mov    %r13,%rsi
    88fd:	48 89 c7             	mov    %rax,%rdi
    8900:	e8 aa d7 ff ff       	callq  60af <safe_div_func_uint64_t_u_u>
    8905:	89 c2                	mov    %eax,%edx
    8907:	8b 85 88 e4 ff ff    	mov    -0x1b78(%rbp),%eax
    890d:	31 d0                	xor    %edx,%eax
    890f:	89 85 88 e4 ff ff    	mov    %eax,-0x1b78(%rbp)
    8915:	8b 85 88 e4 ff ff    	mov    -0x1b78(%rbp),%eax
    891b:	23 85 04 e5 ff ff    	and    -0x1afc(%rbp),%eax
    8921:	89 c2                	mov    %eax,%edx
    8923:	0f b6 05 70 e7 00 00 	movzbl 0xe770(%rip),%eax        # 1709a <g_361>
    892a:	0f b6 c0             	movzbl %al,%eax
    892d:	39 c2                	cmp    %eax,%edx
    892f:	0f 95 c0             	setne  %al
    8932:	0f b6 c0             	movzbl %al,%eax
    8935:	44 89 e6             	mov    %r12d,%esi
    8938:	89 c7                	mov    %eax,%edi
    893a:	e8 d7 ca ff ff       	callq  5416 <safe_mod_func_int16_t_s_s>
    893f:	48 8b 85 38 e4 ff ff 	mov    -0x1bc8(%rbp),%rax
    8946:	0f b6 c0             	movzbl %al,%eax
    8949:	89 c7                	mov    %eax,%edi
    894b:	e8 f5 d1 ff ff       	callq  5b45 <safe_unary_minus_func_uint8_t_u>
    8950:	0f b6 d0             	movzbl %al,%edx
    8953:	48 8b 85 48 e4 ff ff 	mov    -0x1bb8(%rbp),%rax
    895a:	89 c1                	mov    %eax,%ecx
    895c:	48 8b 85 a0 e8 ff ff 	mov    -0x1760(%rbp),%rax
    8963:	66 89 08             	mov    %cx,(%rax)
    8966:	48 8b 85 a0 e8 ff ff 	mov    -0x1760(%rbp),%rax
    896d:	0f b7 00             	movzwl (%rax),%eax
    8970:	0f b7 c0             	movzwl %ax,%eax
    8973:	f7 d0                	not    %eax
    8975:	89 c6                	mov    %eax,%esi
    8977:	48 8b 05 e2 fe 00 00 	mov    0xfee2(%rip),%rax        # 18860 <g_763>
    897e:	48 8b 8d 88 e5 ff ff 	mov    -0x1a78(%rbp),%rcx
    8985:	48 89 08             	mov    %rcx,(%rax)
    8988:	48 8b 00             	mov    (%rax),%rax
    898b:	48 39 85 f8 e6 ff ff 	cmp    %rax,-0x1908(%rbp)
    8992:	0f 95 c0             	setne  %al
    8995:	0f b6 c0             	movzbl %al,%eax
    8998:	39 c6                	cmp    %eax,%esi
    899a:	0f 9e c0             	setle  %al
    899d:	89 c6                	mov    %eax,%esi
    899f:	48 8b 85 40 e5 ff ff 	mov    -0x1ac0(%rbp),%rax
    89a6:	0f b6 08             	movzbl (%rax),%ecx
    89a9:	48 8b 85 40 e5 ff ff 	mov    -0x1ac0(%rbp),%rax
    89b0:	83 f1 05             	xor    $0x5,%ecx
    89b3:	88 08                	mov    %cl,(%rax)
    89b5:	0f b6 00             	movzbl (%rax),%eax
    89b8:	09 f0                	or     %esi,%eax
    89ba:	0f b6 c0             	movzbl %al,%eax
    89bd:	89 d6                	mov    %edx,%esi
    89bf:	89 c7                	mov    %eax,%edi
    89c1:	e8 cd d1 ff ff       	callq  5b93 <safe_mul_func_uint8_t_u_u>
    89c6:	0f b6 95 44 e4 ff ff 	movzbl -0x1bbc(%rbp),%edx
    89cd:	38 d0                	cmp    %dl,%al
    89cf:	0f 96 c2             	setbe  %dl
    89d2:	48 8b 05 07 01 01 00 	mov    0x10107(%rip),%rax        # 18ae0 <g_1167>
    89d9:	48 8b 00             	mov    (%rax),%rax
    89dc:	0f b6 d2             	movzbl %dl,%edx
    89df:	48 89 10             	mov    %rdx,(%rax)
    89e2:	48 8b 85 48 e4 ff ff 	mov    -0x1bb8(%rbp),%rax
    89e9:	89 85 40 e4 ff ff    	mov    %eax,-0x1bc0(%rbp)
    89ef:	48 83 bd 48 e8 ff ff 	cmpq   $0x0,-0x17b8(%rbp)
    89f6:	00 
    89f7:	0f 95 c0             	setne  %al
    89fa:	0f b6 c0             	movzbl %al,%eax
    89fd:	09 85 30 e5 ff ff    	or     %eax,-0x1ad0(%rbp)
    8a03:	8b 85 30 e5 ff ff    	mov    -0x1ad0(%rbp),%eax
    8a09:	0f be c0             	movsbl %al,%eax
    8a0c:	89 de                	mov    %ebx,%esi
    8a0e:	89 c7                	mov    %eax,%edi
    8a10:	e8 fd c7 ff ff       	callq  5212 <safe_mul_func_int8_t_s_s>
    8a15:	84 c0                	test   %al,%al
    8a17:	74 07                	je     8a20 <func_11+0x1a6d>
    8a19:	b8 01 00 00 00       	mov    $0x1,%eax
    8a1e:	eb 05                	jmp    8a25 <func_11+0x1a72>
    8a20:	b8 00 00 00 00       	mov    $0x0,%eax
    8a25:	21 85 34 e5 ff ff    	and    %eax,-0x1acc(%rbp)
    8a2b:	e9 f9 00 00 00       	jmpq   8b29 <func_11+0x1b76>
    8a30:	48 8d 85 88 e4 ff ff 	lea    -0x1b78(%rbp),%rax
    8a37:	48 89 85 98 e8 ff ff 	mov    %rax,-0x1768(%rbp)
    8a3e:	48 8b 85 38 e4 ff ff 	mov    -0x1bc8(%rbp),%rax
    8a45:	44 0f bf e0          	movswl %ax,%r12d
    8a49:	48 8b 85 38 e4 ff ff 	mov    -0x1bc8(%rbp),%rax
    8a50:	41 89 c7             	mov    %eax,%r15d
    8a53:	8b 85 78 e4 ff ff    	mov    -0x1b88(%rbp),%eax
    8a59:	44 0f bf f0          	movswl %ax,%r14d
    8a5d:	0f b6 85 44 e4 ff ff 	movzbl -0x1bbc(%rbp),%eax
    8a64:	44 0f b6 e8          	movzbl %al,%r13d
    8a68:	0f b6 05 bb e5 00 00 	movzbl 0xe5bb(%rip),%eax        # 1702a <g_61>
    8a6f:	0f b6 c8             	movzbl %al,%ecx
    8a72:	48 8b 85 f0 e5 ff ff 	mov    -0x1a10(%rbp),%rax
    8a79:	8b 00                	mov    (%rax),%eax
    8a7b:	0f b6 c0             	movzbl %al,%eax
    8a7e:	48 8b 15 8b f1 00 00 	mov    0xf18b(%rip),%rdx        # 17c10 <g_181>
    8a85:	48 8b 12             	mov    (%rdx),%rdx
    8a88:	48 8b 1a             	mov    (%rdx),%rbx
    8a8b:	48 8d 95 d0 e5 ff ff 	lea    -0x1a30(%rbp),%rdx
    8a92:	48 89 ce             	mov    %rcx,%rsi
    8a95:	89 c7                	mov    %eax,%edi
    8a97:	e8 8d 56 00 00       	callq  e129 <func_35>
    8a9c:	48 89 03             	mov    %rax,(%rbx)
    8a9f:	48 8b 33             	mov    (%rbx),%rsi
    8aa2:	48 8b 85 98 e8 ff ff 	mov    -0x1768(%rbp),%rax
    8aa9:	48 89 85 50 e8 ff ff 	mov    %rax,-0x17b0(%rbp)
    8ab0:	48 8b 85 50 e8 ff ff 	mov    -0x17b0(%rbp),%rax
    8ab7:	44 89 f1             	mov    %r14d,%ecx
    8aba:	44 89 ea             	mov    %r13d,%edx
    8abd:	48 89 c7             	mov    %rax,%rdi
    8ac0:	e8 fd 3f 00 00       	callq  cac2 <func_18>
    8ac5:	48 89 c7             	mov    %rax,%rdi
    8ac8:	48 8b 1d 21 f1 00 00 	mov    0xf121(%rip),%rbx        # 17bf0 <g_183>
    8acf:	48 8d 85 88 e4 ff ff 	lea    -0x1b78(%rbp),%rax
    8ad6:	44 89 e1             	mov    %r12d,%ecx
    8ad9:	44 89 fa             	mov    %r15d,%edx
    8adc:	48 89 c6             	mov    %rax,%rsi
    8adf:	e8 de 3f 00 00       	callq  cac2 <func_18>
    8ae4:	48 89 03             	mov    %rax,(%rbx)
    8ae7:	48 c7 05 76 06 01 00 	movq   $0x1,0x10676(%rip)        # 19168 <g_452>
    8aee:	01 00 00 00 
    8af2:	eb 1d                	jmp    8b11 <func_11+0x1b5e>
    8af4:	0f b6 85 d0 e5 ff ff 	movzbl -0x1a30(%rbp),%eax
    8afb:	84 c0                	test   %al,%al
    8afd:	75 54                	jne    8b53 <func_11+0x1ba0>
    8aff:	48 8b 05 62 06 01 00 	mov    0x10662(%rip),%rax        # 19168 <g_452>
    8b06:	48 83 e8 01          	sub    $0x1,%rax
    8b0a:	48 89 05 57 06 01 00 	mov    %rax,0x10657(%rip)        # 19168 <g_452>
    8b11:	48 8b 05 50 06 01 00 	mov    0x10650(%rip),%rax        # 19168 <g_452>
    8b18:	48 85 c0             	test   %rax,%rax
    8b1b:	79 d7                	jns    8af4 <func_11+0x1b41>
    8b1d:	0f b7 85 60 e4 ff ff 	movzwl -0x1ba0(%rbp),%eax
    8b24:	e9 81 3a 00 00       	jmpq   c5aa <func_11+0x55f7>
    8b29:	8b 85 78 e4 ff ff    	mov    -0x1b88(%rbp),%eax
    8b2f:	89 85 78 e4 ff ff    	mov    %eax,-0x1b88(%rbp)
    8b35:	66 83 85 5a e4 ff ff 	addw   $0x1,-0x1ba6(%rbp)
    8b3c:	01 
    8b3d:	48 83 85 48 e4 ff ff 	addq   $0x1,-0x1bb8(%rbp)
    8b44:	01 
    8b45:	eb 12                	jmp    8b59 <func_11+0x1ba6>
    8b47:	90                   	nop
    8b48:	e9 ba eb ff ff       	jmpq   7707 <func_11+0x754>
    8b4d:	90                   	nop
    8b4e:	e9 b4 eb ff ff       	jmpq   7707 <func_11+0x754>
    8b53:	90                   	nop
    8b54:	e9 ae eb ff ff       	jmpq   7707 <func_11+0x754>
    8b59:	48 83 bd 48 e4 ff ff 	cmpq   $0x15,-0x1bb8(%rbp)
    8b60:	15 
    8b61:	0f 87 f9 f0 ff ff    	ja     7c60 <func_11+0xcad>
    8b67:	48 83 bd 38 e4 ff ff 	cmpq   $0x0,-0x1bc8(%rbp)
    8b6e:	00 
    8b6f:	74 0c                	je     8b7d <func_11+0x1bca>
    8b71:	48 8b 85 48 e4 ff ff 	mov    -0x1bb8(%rbp),%rax
    8b78:	e9 2d 3a 00 00       	jmpq   c5aa <func_11+0x55f7>
    8b7d:	48 c7 85 b0 e5 ff ff 	movq   $0x4,-0x1a50(%rbp)
    8b84:	04 00 00 00 
    8b88:	c7 85 90 e4 ff ff 96 	movl   $0xe8c74b96,-0x1b70(%rbp)
    8b8f:	4b c7 e8 
    8b92:	48 8d 05 03 e5 00 00 	lea    0xe503(%rip),%rax        # 1709c <g_385>
    8b99:	48 89 85 20 ef ff ff 	mov    %rax,-0x10e0(%rbp)
    8ba0:	48 8d 05 f5 e4 00 00 	lea    0xe4f5(%rip),%rax        # 1709c <g_385>
    8ba7:	48 89 85 28 ef ff ff 	mov    %rax,-0x10d8(%rbp)
    8bae:	48 8d 85 6c e4 ff ff 	lea    -0x1b94(%rbp),%rax
    8bb5:	48 89 85 30 ef ff ff 	mov    %rax,-0x10d0(%rbp)
    8bbc:	48 8d 85 6c e4 ff ff 	lea    -0x1b94(%rbp),%rax
    8bc3:	48 89 85 38 ef ff ff 	mov    %rax,-0x10c8(%rbp)
    8bca:	48 8d 85 6c e4 ff ff 	lea    -0x1b94(%rbp),%rax
    8bd1:	48 89 85 40 ef ff ff 	mov    %rax,-0x10c0(%rbp)
    8bd8:	48 8d 05 bd e4 00 00 	lea    0xe4bd(%rip),%rax        # 1709c <g_385>
    8bdf:	48 89 85 48 ef ff ff 	mov    %rax,-0x10b8(%rbp)
    8be6:	48 8d 85 6c e4 ff ff 	lea    -0x1b94(%rbp),%rax
    8bed:	48 89 85 50 ef ff ff 	mov    %rax,-0x10b0(%rbp)
    8bf4:	48 c7 85 58 ef ff ff 	movq   $0x0,-0x10a8(%rbp)
    8bfb:	00 00 00 00 
    8bff:	48 8d 05 96 e4 00 00 	lea    0xe496(%rip),%rax        # 1709c <g_385>
    8c06:	48 89 85 60 ef ff ff 	mov    %rax,-0x10a0(%rbp)
    8c0d:	48 8d 05 88 e4 00 00 	lea    0xe488(%rip),%rax        # 1709c <g_385>
    8c14:	48 89 85 68 ef ff ff 	mov    %rax,-0x1098(%rbp)
    8c1b:	48 8d 85 6c e4 ff ff 	lea    -0x1b94(%rbp),%rax
    8c22:	48 89 85 70 ef ff ff 	mov    %rax,-0x1090(%rbp)
    8c29:	48 8d 05 6c e4 00 00 	lea    0xe46c(%rip),%rax        # 1709c <g_385>
    8c30:	48 89 85 78 ef ff ff 	mov    %rax,-0x1088(%rbp)
    8c37:	48 c7 85 80 ef ff ff 	movq   $0x0,-0x1080(%rbp)
    8c3e:	00 00 00 00 
    8c42:	48 8d 85 6c e4 ff ff 	lea    -0x1b94(%rbp),%rax
    8c49:	48 89 85 88 ef ff ff 	mov    %rax,-0x1078(%rbp)
    8c50:	48 c7 85 90 ef ff ff 	movq   $0x0,-0x1070(%rbp)
    8c57:	00 00 00 00 
    8c5b:	48 8d 05 3a e4 00 00 	lea    0xe43a(%rip),%rax        # 1709c <g_385>
    8c62:	48 89 85 98 ef ff ff 	mov    %rax,-0x1068(%rbp)
    8c69:	48 8d 85 6c e4 ff ff 	lea    -0x1b94(%rbp),%rax
    8c70:	48 89 85 a0 ef ff ff 	mov    %rax,-0x1060(%rbp)
    8c77:	48 8d 05 1e e4 00 00 	lea    0xe41e(%rip),%rax        # 1709c <g_385>
    8c7e:	48 89 85 a8 ef ff ff 	mov    %rax,-0x1058(%rbp)
    8c85:	48 8d 05 10 e4 00 00 	lea    0xe410(%rip),%rax        # 1709c <g_385>
    8c8c:	48 89 85 b0 ef ff ff 	mov    %rax,-0x1050(%rbp)
    8c93:	48 8d 85 6c e4 ff ff 	lea    -0x1b94(%rbp),%rax
    8c9a:	48 89 85 b8 ef ff ff 	mov    %rax,-0x1048(%rbp)
    8ca1:	48 8d 05 f4 e3 00 00 	lea    0xe3f4(%rip),%rax        # 1709c <g_385>
    8ca8:	48 89 85 c0 ef ff ff 	mov    %rax,-0x1040(%rbp)
    8caf:	48 8d 05 e6 e3 00 00 	lea    0xe3e6(%rip),%rax        # 1709c <g_385>
    8cb6:	48 89 85 c8 ef ff ff 	mov    %rax,-0x1038(%rbp)
    8cbd:	48 8d 85 6c e4 ff ff 	lea    -0x1b94(%rbp),%rax
    8cc4:	48 89 85 d0 ef ff ff 	mov    %rax,-0x1030(%rbp)
    8ccb:	48 8d 05 ca e3 00 00 	lea    0xe3ca(%rip),%rax        # 1709c <g_385>
    8cd2:	48 89 85 d8 ef ff ff 	mov    %rax,-0x1028(%rbp)
    8cd9:	48 8d 85 6c e4 ff ff 	lea    -0x1b94(%rbp),%rax
    8ce0:	48 89 85 e0 ef ff ff 	mov    %rax,-0x1020(%rbp)
    8ce7:	48 c7 85 e8 ef ff ff 	movq   $0x0,-0x1018(%rbp)
    8cee:	00 00 00 00 
    8cf2:	48 c7 85 f0 ef ff ff 	movq   $0x0,-0x1010(%rbp)
    8cf9:	00 00 00 00 
    8cfd:	48 8d 05 98 e3 00 00 	lea    0xe398(%rip),%rax        # 1709c <g_385>
    8d04:	48 89 85 f8 ef ff ff 	mov    %rax,-0x1008(%rbp)
    8d0b:	48 8d 05 8a e3 00 00 	lea    0xe38a(%rip),%rax        # 1709c <g_385>
    8d12:	48 89 85 00 f0 ff ff 	mov    %rax,-0x1000(%rbp)
    8d19:	48 c7 85 08 f0 ff ff 	movq   $0x0,-0xff8(%rbp)
    8d20:	00 00 00 00 
    8d24:	48 8d 85 6c e4 ff ff 	lea    -0x1b94(%rbp),%rax
    8d2b:	48 89 85 10 f0 ff ff 	mov    %rax,-0xff0(%rbp)
    8d32:	48 c7 85 18 f0 ff ff 	movq   $0x0,-0xfe8(%rbp)
    8d39:	00 00 00 00 
    8d3d:	48 8d 85 6c e4 ff ff 	lea    -0x1b94(%rbp),%rax
    8d44:	48 89 85 20 f0 ff ff 	mov    %rax,-0xfe0(%rbp)
    8d4b:	48 8d 85 6c e4 ff ff 	lea    -0x1b94(%rbp),%rax
    8d52:	48 89 85 28 f0 ff ff 	mov    %rax,-0xfd8(%rbp)
    8d59:	48 c7 85 30 f0 ff ff 	movq   $0x0,-0xfd0(%rbp)
    8d60:	00 00 00 00 
    8d64:	48 8d 85 6c e4 ff ff 	lea    -0x1b94(%rbp),%rax
    8d6b:	48 89 85 38 f0 ff ff 	mov    %rax,-0xfc8(%rbp)
    8d72:	48 8d 05 23 e3 00 00 	lea    0xe323(%rip),%rax        # 1709c <g_385>
    8d79:	48 89 85 40 f0 ff ff 	mov    %rax,-0xfc0(%rbp)
    8d80:	48 c7 85 48 f0 ff ff 	movq   $0x0,-0xfb8(%rbp)
    8d87:	00 00 00 00 
    8d8b:	48 8d 85 6c e4 ff ff 	lea    -0x1b94(%rbp),%rax
    8d92:	48 89 85 50 f0 ff ff 	mov    %rax,-0xfb0(%rbp)
    8d99:	48 c7 85 58 f0 ff ff 	movq   $0x0,-0xfa8(%rbp)
    8da0:	00 00 00 00 
    8da4:	48 8d 85 6c e4 ff ff 	lea    -0x1b94(%rbp),%rax
    8dab:	48 89 85 60 f0 ff ff 	mov    %rax,-0xfa0(%rbp)
    8db2:	48 8d 85 6c e4 ff ff 	lea    -0x1b94(%rbp),%rax
    8db9:	48 89 85 68 f0 ff ff 	mov    %rax,-0xf98(%rbp)
    8dc0:	48 8d 85 6c e4 ff ff 	lea    -0x1b94(%rbp),%rax
    8dc7:	48 89 85 70 f0 ff ff 	mov    %rax,-0xf90(%rbp)
    8dce:	48 8d 85 6c e4 ff ff 	lea    -0x1b94(%rbp),%rax
    8dd5:	48 89 85 78 f0 ff ff 	mov    %rax,-0xf88(%rbp)
    8ddc:	48 8d 85 6c e4 ff ff 	lea    -0x1b94(%rbp),%rax
    8de3:	48 89 85 80 f0 ff ff 	mov    %rax,-0xf80(%rbp)
    8dea:	48 8d 05 ab e2 00 00 	lea    0xe2ab(%rip),%rax        # 1709c <g_385>
    8df1:	48 89 85 88 f0 ff ff 	mov    %rax,-0xf78(%rbp)
    8df8:	48 c7 85 90 f0 ff ff 	movq   $0x0,-0xf70(%rbp)
    8dff:	00 00 00 00 
    8e03:	48 8d 85 6c e4 ff ff 	lea    -0x1b94(%rbp),%rax
    8e0a:	48 89 85 98 f0 ff ff 	mov    %rax,-0xf68(%rbp)
    8e11:	48 8d 05 84 e2 00 00 	lea    0xe284(%rip),%rax        # 1709c <g_385>
    8e18:	48 89 85 a0 f0 ff ff 	mov    %rax,-0xf60(%rbp)
    8e1f:	48 c7 85 a8 f0 ff ff 	movq   $0x0,-0xf58(%rbp)
    8e26:	00 00 00 00 
    8e2a:	48 8d 85 6c e4 ff ff 	lea    -0x1b94(%rbp),%rax
    8e31:	48 89 85 b0 f0 ff ff 	mov    %rax,-0xf50(%rbp)
    8e38:	48 8d 05 5d e2 00 00 	lea    0xe25d(%rip),%rax        # 1709c <g_385>
    8e3f:	48 89 85 b8 f0 ff ff 	mov    %rax,-0xf48(%rbp)
    8e46:	48 8d 85 6c e4 ff ff 	lea    -0x1b94(%rbp),%rax
    8e4d:	48 89 85 c0 f0 ff ff 	mov    %rax,-0xf40(%rbp)
    8e54:	48 8d 85 6c e4 ff ff 	lea    -0x1b94(%rbp),%rax
    8e5b:	48 89 85 c8 f0 ff ff 	mov    %rax,-0xf38(%rbp)
    8e62:	48 8d 85 6c e4 ff ff 	lea    -0x1b94(%rbp),%rax
    8e69:	48 89 85 d0 f0 ff ff 	mov    %rax,-0xf30(%rbp)
    8e70:	48 8d 05 25 e2 00 00 	lea    0xe225(%rip),%rax        # 1709c <g_385>
    8e77:	48 89 85 d8 f0 ff ff 	mov    %rax,-0xf28(%rbp)
    8e7e:	48 8d 85 6c e4 ff ff 	lea    -0x1b94(%rbp),%rax
    8e85:	48 89 85 e0 f0 ff ff 	mov    %rax,-0xf20(%rbp)
    8e8c:	48 8d 05 09 e2 00 00 	lea    0xe209(%rip),%rax        # 1709c <g_385>
    8e93:	48 89 85 e8 f0 ff ff 	mov    %rax,-0xf18(%rbp)
    8e9a:	48 8d 85 6c e4 ff ff 	lea    -0x1b94(%rbp),%rax
    8ea1:	48 89 85 f0 f0 ff ff 	mov    %rax,-0xf10(%rbp)
    8ea8:	48 8d 05 ed e1 00 00 	lea    0xe1ed(%rip),%rax        # 1709c <g_385>
    8eaf:	48 89 85 f8 f0 ff ff 	mov    %rax,-0xf08(%rbp)
    8eb6:	48 8d 85 6c e4 ff ff 	lea    -0x1b94(%rbp),%rax
    8ebd:	48 89 85 00 f1 ff ff 	mov    %rax,-0xf00(%rbp)
    8ec4:	48 8d 85 6c e4 ff ff 	lea    -0x1b94(%rbp),%rax
    8ecb:	48 89 85 08 f1 ff ff 	mov    %rax,-0xef8(%rbp)
    8ed2:	48 c7 85 10 f1 ff ff 	movq   $0x0,-0xef0(%rbp)
    8ed9:	00 00 00 00 
    8edd:	48 8d 85 6c e4 ff ff 	lea    -0x1b94(%rbp),%rax
    8ee4:	48 89 85 18 f1 ff ff 	mov    %rax,-0xee8(%rbp)
    8eeb:	48 8d 85 6c e4 ff ff 	lea    -0x1b94(%rbp),%rax
    8ef2:	48 89 85 20 f1 ff ff 	mov    %rax,-0xee0(%rbp)
    8ef9:	48 8d 85 6c e4 ff ff 	lea    -0x1b94(%rbp),%rax
    8f00:	48 89 85 28 f1 ff ff 	mov    %rax,-0xed8(%rbp)
    8f07:	48 8d 85 6c e4 ff ff 	lea    -0x1b94(%rbp),%rax
    8f0e:	48 89 85 30 f1 ff ff 	mov    %rax,-0xed0(%rbp)
    8f15:	48 c7 85 38 f1 ff ff 	movq   $0x0,-0xec8(%rbp)
    8f1c:	00 00 00 00 
    8f20:	48 8d 85 6c e4 ff ff 	lea    -0x1b94(%rbp),%rax
    8f27:	48 89 85 40 f1 ff ff 	mov    %rax,-0xec0(%rbp)
    8f2e:	48 8d 05 67 e1 00 00 	lea    0xe167(%rip),%rax        # 1709c <g_385>
    8f35:	48 89 85 48 f1 ff ff 	mov    %rax,-0xeb8(%rbp)
    8f3c:	48 8d 85 6c e4 ff ff 	lea    -0x1b94(%rbp),%rax
    8f43:	48 89 85 50 f1 ff ff 	mov    %rax,-0xeb0(%rbp)
    8f4a:	48 8d 05 4b e1 00 00 	lea    0xe14b(%rip),%rax        # 1709c <g_385>
    8f51:	48 89 85 58 f1 ff ff 	mov    %rax,-0xea8(%rbp)
    8f58:	48 8d 85 6c e4 ff ff 	lea    -0x1b94(%rbp),%rax
    8f5f:	48 89 85 60 f1 ff ff 	mov    %rax,-0xea0(%rbp)
    8f66:	48 8d 85 6c e4 ff ff 	lea    -0x1b94(%rbp),%rax
    8f6d:	48 89 85 68 f1 ff ff 	mov    %rax,-0xe98(%rbp)
    8f74:	48 c7 85 70 f1 ff ff 	movq   $0x0,-0xe90(%rbp)
    8f7b:	00 00 00 00 
    8f7f:	48 8d 85 6c e4 ff ff 	lea    -0x1b94(%rbp),%rax
    8f86:	48 89 85 78 f1 ff ff 	mov    %rax,-0xe88(%rbp)
    8f8d:	48 8d 05 08 e1 00 00 	lea    0xe108(%rip),%rax        # 1709c <g_385>
    8f94:	48 89 85 80 f1 ff ff 	mov    %rax,-0xe80(%rbp)
    8f9b:	48 c7 85 88 f1 ff ff 	movq   $0x0,-0xe78(%rbp)
    8fa2:	00 00 00 00 
    8fa6:	48 8d 05 ef e0 00 00 	lea    0xe0ef(%rip),%rax        # 1709c <g_385>
    8fad:	48 89 85 90 f1 ff ff 	mov    %rax,-0xe70(%rbp)
    8fb4:	48 8d 85 6c e4 ff ff 	lea    -0x1b94(%rbp),%rax
    8fbb:	48 89 85 98 f1 ff ff 	mov    %rax,-0xe68(%rbp)
    8fc2:	48 8d 05 d3 e0 00 00 	lea    0xe0d3(%rip),%rax        # 1709c <g_385>
    8fc9:	48 89 85 a0 f1 ff ff 	mov    %rax,-0xe60(%rbp)
    8fd0:	48 8d 05 c5 e0 00 00 	lea    0xe0c5(%rip),%rax        # 1709c <g_385>
    8fd7:	48 89 85 a8 f1 ff ff 	mov    %rax,-0xe58(%rbp)
    8fde:	48 8d 05 b7 e0 00 00 	lea    0xe0b7(%rip),%rax        # 1709c <g_385>
    8fe5:	48 89 85 b0 f1 ff ff 	mov    %rax,-0xe50(%rbp)
    8fec:	48 8d 05 a9 e0 00 00 	lea    0xe0a9(%rip),%rax        # 1709c <g_385>
    8ff3:	48 89 85 b8 f1 ff ff 	mov    %rax,-0xe48(%rbp)
    8ffa:	48 8d 85 6c e4 ff ff 	lea    -0x1b94(%rbp),%rax
    9001:	48 89 85 c0 f1 ff ff 	mov    %rax,-0xe40(%rbp)
    9008:	48 8d 05 8d e0 00 00 	lea    0xe08d(%rip),%rax        # 1709c <g_385>
    900f:	48 89 85 c8 f1 ff ff 	mov    %rax,-0xe38(%rbp)
    9016:	48 8d 85 6c e4 ff ff 	lea    -0x1b94(%rbp),%rax
    901d:	48 89 85 d0 f1 ff ff 	mov    %rax,-0xe30(%rbp)
    9024:	48 8d 05 71 e0 00 00 	lea    0xe071(%rip),%rax        # 1709c <g_385>
    902b:	48 89 85 d8 f1 ff ff 	mov    %rax,-0xe28(%rbp)
    9032:	48 8d 85 6c e4 ff ff 	lea    -0x1b94(%rbp),%rax
    9039:	48 89 85 e0 f1 ff ff 	mov    %rax,-0xe20(%rbp)
    9040:	48 8d 85 6c e4 ff ff 	lea    -0x1b94(%rbp),%rax
    9047:	48 89 85 e8 f1 ff ff 	mov    %rax,-0xe18(%rbp)
    904e:	48 8d 85 6c e4 ff ff 	lea    -0x1b94(%rbp),%rax
    9055:	48 89 85 f0 f1 ff ff 	mov    %rax,-0xe10(%rbp)
    905c:	48 8d 85 6c e4 ff ff 	lea    -0x1b94(%rbp),%rax
    9063:	48 89 85 f8 f1 ff ff 	mov    %rax,-0xe08(%rbp)
    906a:	48 8d 05 2b e0 00 00 	lea    0xe02b(%rip),%rax        # 1709c <g_385>
    9071:	48 89 85 00 f2 ff ff 	mov    %rax,-0xe00(%rbp)
    9078:	48 8d 85 6c e4 ff ff 	lea    -0x1b94(%rbp),%rax
    907f:	48 89 85 08 f2 ff ff 	mov    %rax,-0xdf8(%rbp)
    9086:	48 8d 85 6c e4 ff ff 	lea    -0x1b94(%rbp),%rax
    908d:	48 89 85 10 f2 ff ff 	mov    %rax,-0xdf0(%rbp)
    9094:	48 8d 05 01 e0 00 00 	lea    0xe001(%rip),%rax        # 1709c <g_385>
    909b:	48 89 85 18 f2 ff ff 	mov    %rax,-0xde8(%rbp)
    90a2:	48 8d 85 6c e4 ff ff 	lea    -0x1b94(%rbp),%rax
    90a9:	48 89 85 20 f2 ff ff 	mov    %rax,-0xde0(%rbp)
    90b0:	48 8d 85 6c e4 ff ff 	lea    -0x1b94(%rbp),%rax
    90b7:	48 89 85 28 f2 ff ff 	mov    %rax,-0xdd8(%rbp)
    90be:	48 8d 05 d7 df 00 00 	lea    0xdfd7(%rip),%rax        # 1709c <g_385>
    90c5:	48 89 85 30 f2 ff ff 	mov    %rax,-0xdd0(%rbp)
    90cc:	48 c7 85 38 f2 ff ff 	movq   $0x0,-0xdc8(%rbp)
    90d3:	00 00 00 00 
    90d7:	48 8d 05 be df 00 00 	lea    0xdfbe(%rip),%rax        # 1709c <g_385>
    90de:	48 89 85 40 f2 ff ff 	mov    %rax,-0xdc0(%rbp)
    90e5:	48 8d 85 6c e4 ff ff 	lea    -0x1b94(%rbp),%rax
    90ec:	48 89 85 48 f2 ff ff 	mov    %rax,-0xdb8(%rbp)
    90f3:	48 8d 85 6c e4 ff ff 	lea    -0x1b94(%rbp),%rax
    90fa:	48 89 85 50 f2 ff ff 	mov    %rax,-0xdb0(%rbp)
    9101:	48 8d 05 94 df 00 00 	lea    0xdf94(%rip),%rax        # 1709c <g_385>
    9108:	48 89 85 58 f2 ff ff 	mov    %rax,-0xda8(%rbp)
    910f:	48 c7 85 60 f2 ff ff 	movq   $0x0,-0xda0(%rbp)
    9116:	00 00 00 00 
    911a:	48 8d 85 6c e4 ff ff 	lea    -0x1b94(%rbp),%rax
    9121:	48 89 85 68 f2 ff ff 	mov    %rax,-0xd98(%rbp)
    9128:	48 c7 85 70 f2 ff ff 	movq   $0x0,-0xd90(%rbp)
    912f:	00 00 00 00 
    9133:	48 8d 85 6c e4 ff ff 	lea    -0x1b94(%rbp),%rax
    913a:	48 89 85 78 f2 ff ff 	mov    %rax,-0xd88(%rbp)
    9141:	48 8d 05 54 df 00 00 	lea    0xdf54(%rip),%rax        # 1709c <g_385>
    9148:	48 89 85 80 f2 ff ff 	mov    %rax,-0xd80(%rbp)
    914f:	48 8d 05 46 df 00 00 	lea    0xdf46(%rip),%rax        # 1709c <g_385>
    9156:	48 89 85 88 f2 ff ff 	mov    %rax,-0xd78(%rbp)
    915d:	48 8d 05 38 df 00 00 	lea    0xdf38(%rip),%rax        # 1709c <g_385>
    9164:	48 89 85 90 f2 ff ff 	mov    %rax,-0xd70(%rbp)
    916b:	48 8d 85 6c e4 ff ff 	lea    -0x1b94(%rbp),%rax
    9172:	48 89 85 98 f2 ff ff 	mov    %rax,-0xd68(%rbp)
    9179:	48 8d 05 1c df 00 00 	lea    0xdf1c(%rip),%rax        # 1709c <g_385>
    9180:	48 89 85 a0 f2 ff ff 	mov    %rax,-0xd60(%rbp)
    9187:	48 8d 05 0e df 00 00 	lea    0xdf0e(%rip),%rax        # 1709c <g_385>
    918e:	48 89 85 a8 f2 ff ff 	mov    %rax,-0xd58(%rbp)
    9195:	48 8d 85 6c e4 ff ff 	lea    -0x1b94(%rbp),%rax
    919c:	48 89 85 b0 f2 ff ff 	mov    %rax,-0xd50(%rbp)
    91a3:	48 c7 85 b8 f2 ff ff 	movq   $0x0,-0xd48(%rbp)
    91aa:	00 00 00 00 
    91ae:	48 8d 05 e7 de 00 00 	lea    0xdee7(%rip),%rax        # 1709c <g_385>
    91b5:	48 89 85 c0 f2 ff ff 	mov    %rax,-0xd40(%rbp)
    91bc:	48 c7 85 c8 f2 ff ff 	movq   $0x0,-0xd38(%rbp)
    91c3:	00 00 00 00 
    91c7:	48 c7 85 d0 f2 ff ff 	movq   $0x0,-0xd30(%rbp)
    91ce:	00 00 00 00 
    91d2:	48 8d 05 c3 de 00 00 	lea    0xdec3(%rip),%rax        # 1709c <g_385>
    91d9:	48 89 85 d8 f2 ff ff 	mov    %rax,-0xd28(%rbp)
    91e0:	48 8d 05 b5 de 00 00 	lea    0xdeb5(%rip),%rax        # 1709c <g_385>
    91e7:	48 89 85 e0 f2 ff ff 	mov    %rax,-0xd20(%rbp)
    91ee:	48 8d 05 a7 de 00 00 	lea    0xdea7(%rip),%rax        # 1709c <g_385>
    91f5:	48 89 85 e8 f2 ff ff 	mov    %rax,-0xd18(%rbp)
    91fc:	48 8d 05 99 de 00 00 	lea    0xde99(%rip),%rax        # 1709c <g_385>
    9203:	48 89 85 f0 f2 ff ff 	mov    %rax,-0xd10(%rbp)
    920a:	48 c7 85 f8 f2 ff ff 	movq   $0x0,-0xd08(%rbp)
    9211:	00 00 00 00 
    9215:	48 8d 85 6c e4 ff ff 	lea    -0x1b94(%rbp),%rax
    921c:	48 89 85 00 f3 ff ff 	mov    %rax,-0xd00(%rbp)
    9223:	48 8d 85 6c e4 ff ff 	lea    -0x1b94(%rbp),%rax
    922a:	48 89 85 08 f3 ff ff 	mov    %rax,-0xcf8(%rbp)
    9231:	48 8d 05 64 de 00 00 	lea    0xde64(%rip),%rax        # 1709c <g_385>
    9238:	48 89 85 10 f3 ff ff 	mov    %rax,-0xcf0(%rbp)
    923f:	48 c7 85 18 f3 ff ff 	movq   $0x0,-0xce8(%rbp)
    9246:	00 00 00 00 
    924a:	48 8d 85 6c e4 ff ff 	lea    -0x1b94(%rbp),%rax
    9251:	48 89 85 20 f3 ff ff 	mov    %rax,-0xce0(%rbp)
    9258:	48 8d 05 3d de 00 00 	lea    0xde3d(%rip),%rax        # 1709c <g_385>
    925f:	48 89 85 28 f3 ff ff 	mov    %rax,-0xcd8(%rbp)
    9266:	48 8d 05 2f de 00 00 	lea    0xde2f(%rip),%rax        # 1709c <g_385>
    926d:	48 89 85 30 f3 ff ff 	mov    %rax,-0xcd0(%rbp)
    9274:	48 8d 05 21 de 00 00 	lea    0xde21(%rip),%rax        # 1709c <g_385>
    927b:	48 89 85 38 f3 ff ff 	mov    %rax,-0xcc8(%rbp)
    9282:	48 8d 85 6c e4 ff ff 	lea    -0x1b94(%rbp),%rax
    9289:	48 89 85 40 f3 ff ff 	mov    %rax,-0xcc0(%rbp)
    9290:	48 c7 85 48 f3 ff ff 	movq   $0x0,-0xcb8(%rbp)
    9297:	00 00 00 00 
    929b:	48 8d 05 fa dd 00 00 	lea    0xddfa(%rip),%rax        # 1709c <g_385>
    92a2:	48 89 85 50 f3 ff ff 	mov    %rax,-0xcb0(%rbp)
    92a9:	48 8d 85 20 ef ff ff 	lea    -0x10e0(%rbp),%rax
    92b0:	48 83 c0 78          	add    $0x78,%rax
    92b4:	48 89 85 30 e7 ff ff 	mov    %rax,-0x18d0(%rbp)
    92bb:	48 c7 85 60 f3 ff ff 	movq   $0x0,-0xca0(%rbp)
    92c2:	00 00 00 00 
    92c6:	48 c7 85 68 f3 ff ff 	movq   $0x0,-0xc98(%rbp)
    92cd:	00 00 00 00 
    92d1:	48 8d 85 70 e4 ff ff 	lea    -0x1b90(%rbp),%rax
    92d8:	48 89 85 70 f3 ff ff 	mov    %rax,-0xc90(%rbp)
    92df:	48 8d 85 c0 e8 ff ff 	lea    -0x1740(%rbp),%rax
    92e6:	48 89 85 78 f3 ff ff 	mov    %rax,-0xc88(%rbp)
    92ed:	48 c7 85 80 f3 ff ff 	movq   $0x0,-0xc80(%rbp)
    92f4:	00 00 00 00 
    92f8:	48 c7 85 88 f3 ff ff 	movq   $0x0,-0xc78(%rbp)
    92ff:	00 00 00 00 
    9303:	48 8d 85 70 e4 ff ff 	lea    -0x1b90(%rbp),%rax
    930a:	48 89 85 90 f3 ff ff 	mov    %rax,-0xc70(%rbp)
    9311:	48 8d 85 88 e4 ff ff 	lea    -0x1b78(%rbp),%rax
    9318:	48 89 85 98 f3 ff ff 	mov    %rax,-0xc68(%rbp)
    931f:	48 c7 85 a0 f3 ff ff 	movq   $0x0,-0xc60(%rbp)
    9326:	00 00 00 00 
    932a:	48 8d 85 c0 e8 ff ff 	lea    -0x1740(%rbp),%rax
    9331:	48 89 85 a8 f3 ff ff 	mov    %rax,-0xc58(%rbp)
    9338:	48 c7 85 b0 f3 ff ff 	movq   $0x0,-0xc50(%rbp)
    933f:	00 00 00 00 
    9343:	48 8d 85 c0 e8 ff ff 	lea    -0x1740(%rbp),%rax
    934a:	48 89 85 b8 f3 ff ff 	mov    %rax,-0xc48(%rbp)
    9351:	48 c7 85 c0 f3 ff ff 	movq   $0x0,-0xc40(%rbp)
    9358:	00 00 00 00 
    935c:	48 8d 85 70 e4 ff ff 	lea    -0x1b90(%rbp),%rax
    9363:	48 89 85 c8 f3 ff ff 	mov    %rax,-0xc38(%rbp)
    936a:	48 c7 85 d0 f3 ff ff 	movq   $0x0,-0xc30(%rbp)
    9371:	00 00 00 00 
    9375:	48 c7 85 d8 f3 ff ff 	movq   $0x0,-0xc28(%rbp)
    937c:	00 00 00 00 
    9380:	48 c7 85 e0 f3 ff ff 	movq   $0x0,-0xc20(%rbp)
    9387:	00 00 00 00 
    938b:	48 c7 85 e8 f3 ff ff 	movq   $0x0,-0xc18(%rbp)
    9392:	00 00 00 00 
    9396:	48 8d 85 74 e4 ff ff 	lea    -0x1b8c(%rbp),%rax
    939d:	48 89 85 f0 f3 ff ff 	mov    %rax,-0xc10(%rbp)
    93a4:	48 8d 85 70 e4 ff ff 	lea    -0x1b90(%rbp),%rax
    93ab:	48 89 85 f8 f3 ff ff 	mov    %rax,-0xc08(%rbp)
    93b2:	48 8d 85 70 e4 ff ff 	lea    -0x1b90(%rbp),%rax
    93b9:	48 89 85 00 f4 ff ff 	mov    %rax,-0xc00(%rbp)
    93c0:	48 c7 85 08 f4 ff ff 	movq   $0x0,-0xbf8(%rbp)
    93c7:	00 00 00 00 
    93cb:	48 c7 85 10 f4 ff ff 	movq   $0x0,-0xbf0(%rbp)
    93d2:	00 00 00 00 
    93d6:	48 8d 85 c8 e8 ff ff 	lea    -0x1738(%rbp),%rax
    93dd:	48 89 85 18 f4 ff ff 	mov    %rax,-0xbe8(%rbp)
    93e4:	48 8d 85 74 e4 ff ff 	lea    -0x1b8c(%rbp),%rax
    93eb:	48 89 85 20 f4 ff ff 	mov    %rax,-0xbe0(%rbp)
    93f2:	48 8d 85 88 e4 ff ff 	lea    -0x1b78(%rbp),%rax
    93f9:	48 89 85 28 f4 ff ff 	mov    %rax,-0xbd8(%rbp)
    9400:	48 8d 85 74 e4 ff ff 	lea    -0x1b8c(%rbp),%rax
    9407:	48 89 85 30 f4 ff ff 	mov    %rax,-0xbd0(%rbp)
    940e:	48 c7 85 38 f4 ff ff 	movq   $0x0,-0xbc8(%rbp)
    9415:	00 00 00 00 
    9419:	48 c7 85 40 f4 ff ff 	movq   $0x0,-0xbc0(%rbp)
    9420:	00 00 00 00 
    9424:	48 8d 85 c8 e8 ff ff 	lea    -0x1738(%rbp),%rax
    942b:	48 89 85 48 f4 ff ff 	mov    %rax,-0xbb8(%rbp)
    9432:	48 c7 85 50 f4 ff ff 	movq   $0x0,-0xbb0(%rbp)
    9439:	00 00 00 00 
    943d:	48 c7 85 58 f4 ff ff 	movq   $0x0,-0xba8(%rbp)
    9444:	00 00 00 00 
    9448:	48 8d 85 70 e4 ff ff 	lea    -0x1b90(%rbp),%rax
    944f:	48 89 85 60 f4 ff ff 	mov    %rax,-0xba0(%rbp)
    9456:	48 8d 85 c0 e8 ff ff 	lea    -0x1740(%rbp),%rax
    945d:	48 89 85 68 f4 ff ff 	mov    %rax,-0xb98(%rbp)
    9464:	48 c7 85 70 f4 ff ff 	movq   $0x0,-0xb90(%rbp)
    946b:	00 00 00 00 
    946f:	48 c7 85 78 f4 ff ff 	movq   $0x0,-0xb88(%rbp)
    9476:	00 00 00 00 
    947a:	48 8d 85 70 e4 ff ff 	lea    -0x1b90(%rbp),%rax
    9481:	48 89 85 80 f4 ff ff 	mov    %rax,-0xb80(%rbp)
    9488:	48 8d 85 88 e4 ff ff 	lea    -0x1b78(%rbp),%rax
    948f:	48 89 85 88 f4 ff ff 	mov    %rax,-0xb78(%rbp)
    9496:	48 c7 85 90 f4 ff ff 	movq   $0x0,-0xb70(%rbp)
    949d:	00 00 00 00 
    94a1:	48 8d 85 c0 e8 ff ff 	lea    -0x1740(%rbp),%rax
    94a8:	48 89 85 98 f4 ff ff 	mov    %rax,-0xb68(%rbp)
    94af:	48 c7 85 a0 f4 ff ff 	movq   $0x0,-0xb60(%rbp)
    94b6:	00 00 00 00 
    94ba:	48 8d 85 c0 e8 ff ff 	lea    -0x1740(%rbp),%rax
    94c1:	48 89 85 a8 f4 ff ff 	mov    %rax,-0xb58(%rbp)
    94c8:	48 c7 85 b0 f4 ff ff 	movq   $0x0,-0xb50(%rbp)
    94cf:	00 00 00 00 
    94d3:	48 8d 85 70 e4 ff ff 	lea    -0x1b90(%rbp),%rax
    94da:	48 89 85 b8 f4 ff ff 	mov    %rax,-0xb48(%rbp)
    94e1:	48 c7 85 c0 f4 ff ff 	movq   $0x0,-0xb40(%rbp)
    94e8:	00 00 00 00 
    94ec:	48 c7 85 c8 f4 ff ff 	movq   $0x0,-0xb38(%rbp)
    94f3:	00 00 00 00 
    94f7:	48 c7 85 d0 f4 ff ff 	movq   $0x0,-0xb30(%rbp)
    94fe:	00 00 00 00 
    9502:	48 c7 85 d8 f4 ff ff 	movq   $0x0,-0xb28(%rbp)
    9509:	00 00 00 00 
    950d:	48 c7 85 e0 f4 ff ff 	movq   $0x0,-0xb20(%rbp)
    9514:	00 00 00 00 
    9518:	48 8d 85 74 e4 ff ff 	lea    -0x1b8c(%rbp),%rax
    951f:	48 89 85 e8 f4 ff ff 	mov    %rax,-0xb18(%rbp)
    9526:	48 8d 85 74 e4 ff ff 	lea    -0x1b8c(%rbp),%rax
    952d:	48 89 85 f0 f4 ff ff 	mov    %rax,-0xb10(%rbp)
    9534:	48 8d 85 c0 e8 ff ff 	lea    -0x1740(%rbp),%rax
    953b:	48 89 85 f8 f4 ff ff 	mov    %rax,-0xb08(%rbp)
    9542:	48 c7 85 00 f5 ff ff 	movq   $0x0,-0xb00(%rbp)
    9549:	00 00 00 00 
    954d:	48 c7 85 08 f5 ff ff 	movq   $0x0,-0xaf8(%rbp)
    9554:	00 00 00 00 
    9558:	48 c7 85 10 f5 ff ff 	movq   $0x0,-0xaf0(%rbp)
    955f:	00 00 00 00 
    9563:	48 c7 85 18 f5 ff ff 	movq   $0x0,-0xae8(%rbp)
    956a:	00 00 00 00 
    956e:	48 c7 85 20 f5 ff ff 	movq   $0x0,-0xae0(%rbp)
    9575:	00 00 00 00 
    9579:	48 c7 85 28 f5 ff ff 	movq   $0x0,-0xad8(%rbp)
    9580:	00 00 00 00 
    9584:	48 8d 85 c0 e8 ff ff 	lea    -0x1740(%rbp),%rax
    958b:	48 89 85 30 f5 ff ff 	mov    %rax,-0xad0(%rbp)
    9592:	48 c7 85 38 f5 ff ff 	movq   $0x0,-0xac8(%rbp)
    9599:	00 00 00 00 
    959d:	48 8d 85 70 e4 ff ff 	lea    -0x1b90(%rbp),%rax
    95a4:	48 89 85 40 f5 ff ff 	mov    %rax,-0xac0(%rbp)
    95ab:	48 8d 85 70 e4 ff ff 	lea    -0x1b90(%rbp),%rax
    95b2:	48 89 85 48 f5 ff ff 	mov    %rax,-0xab8(%rbp)
    95b9:	48 8d 85 74 e4 ff ff 	lea    -0x1b8c(%rbp),%rax
    95c0:	48 89 85 50 f5 ff ff 	mov    %rax,-0xab0(%rbp)
    95c7:	48 8d 85 c8 e8 ff ff 	lea    -0x1738(%rbp),%rax
    95ce:	48 89 85 58 f5 ff ff 	mov    %rax,-0xaa8(%rbp)
    95d5:	48 8d 85 c0 e8 ff ff 	lea    -0x1740(%rbp),%rax
    95dc:	48 89 85 60 f5 ff ff 	mov    %rax,-0xaa0(%rbp)
    95e3:	48 8d 85 c0 e8 ff ff 	lea    -0x1740(%rbp),%rax
    95ea:	48 89 85 68 f5 ff ff 	mov    %rax,-0xa98(%rbp)
    95f1:	48 8d 85 74 e4 ff ff 	lea    -0x1b8c(%rbp),%rax
    95f8:	48 89 85 70 f5 ff ff 	mov    %rax,-0xa90(%rbp)
    95ff:	48 c7 85 78 f5 ff ff 	movq   $0x0,-0xa88(%rbp)
    9606:	00 00 00 00 
    960a:	48 8d 85 88 e4 ff ff 	lea    -0x1b78(%rbp),%rax
    9611:	48 89 85 80 f5 ff ff 	mov    %rax,-0xa80(%rbp)
    9618:	48 8d 85 c8 e8 ff ff 	lea    -0x1738(%rbp),%rax
    961f:	48 89 85 88 f5 ff ff 	mov    %rax,-0xa78(%rbp)
    9626:	48 c7 85 90 f5 ff ff 	movq   $0x0,-0xa70(%rbp)
    962d:	00 00 00 00 
    9631:	48 8d 85 c8 e8 ff ff 	lea    -0x1738(%rbp),%rax
    9638:	48 89 85 98 f5 ff ff 	mov    %rax,-0xa68(%rbp)
    963f:	48 8d 85 70 e4 ff ff 	lea    -0x1b90(%rbp),%rax
    9646:	48 89 85 a0 f5 ff ff 	mov    %rax,-0xa60(%rbp)
    964d:	48 8d 85 74 e4 ff ff 	lea    -0x1b8c(%rbp),%rax
    9654:	48 89 85 a8 f5 ff ff 	mov    %rax,-0xa58(%rbp)
    965b:	48 8d 85 88 e4 ff ff 	lea    -0x1b78(%rbp),%rax
    9662:	48 89 85 b0 f5 ff ff 	mov    %rax,-0xa50(%rbp)
    9669:	48 c7 85 b8 f5 ff ff 	movq   $0x0,-0xa48(%rbp)
    9670:	00 00 00 00 
    9674:	48 c7 85 c0 f5 ff ff 	movq   $0x0,-0xa40(%rbp)
    967b:	00 00 00 00 
    967f:	48 8d 85 c0 e8 ff ff 	lea    -0x1740(%rbp),%rax
    9686:	48 89 85 c8 f5 ff ff 	mov    %rax,-0xa38(%rbp)
    968d:	48 c7 85 d0 f5 ff ff 	movq   $0x0,-0xa30(%rbp)
    9694:	00 00 00 00 
    9698:	48 8d 85 74 e4 ff ff 	lea    -0x1b8c(%rbp),%rax
    969f:	48 89 85 d8 f5 ff ff 	mov    %rax,-0xa28(%rbp)
    96a6:	48 8d 85 74 e4 ff ff 	lea    -0x1b8c(%rbp),%rax
    96ad:	48 89 85 e0 f5 ff ff 	mov    %rax,-0xa20(%rbp)
    96b4:	48 8d 85 c0 e8 ff ff 	lea    -0x1740(%rbp),%rax
    96bb:	48 89 85 e8 f5 ff ff 	mov    %rax,-0xa18(%rbp)
    96c2:	48 c7 85 f0 f5 ff ff 	movq   $0x0,-0xa10(%rbp)
    96c9:	00 00 00 00 
    96cd:	48 c7 85 f8 f5 ff ff 	movq   $0x0,-0xa08(%rbp)
    96d4:	00 00 00 00 
    96d8:	48 c7 85 00 f6 ff ff 	movq   $0x0,-0xa00(%rbp)
    96df:	00 00 00 00 
    96e3:	48 c7 85 08 f6 ff ff 	movq   $0x0,-0x9f8(%rbp)
    96ea:	00 00 00 00 
    96ee:	48 c7 85 10 f6 ff ff 	movq   $0x0,-0x9f0(%rbp)
    96f5:	00 00 00 00 
    96f9:	48 c7 85 18 f6 ff ff 	movq   $0x0,-0x9e8(%rbp)
    9700:	00 00 00 00 
    9704:	48 8d 85 c0 e8 ff ff 	lea    -0x1740(%rbp),%rax
    970b:	48 89 85 20 f6 ff ff 	mov    %rax,-0x9e0(%rbp)
    9712:	48 c7 85 28 f6 ff ff 	movq   $0x0,-0x9d8(%rbp)
    9719:	00 00 00 00 
    971d:	48 8d 85 70 e4 ff ff 	lea    -0x1b90(%rbp),%rax
    9724:	48 89 85 30 f6 ff ff 	mov    %rax,-0x9d0(%rbp)
    972b:	48 8d 85 70 e4 ff ff 	lea    -0x1b90(%rbp),%rax
    9732:	48 89 85 38 f6 ff ff 	mov    %rax,-0x9c8(%rbp)
    9739:	48 8d 85 74 e4 ff ff 	lea    -0x1b8c(%rbp),%rax
    9740:	48 89 85 40 f6 ff ff 	mov    %rax,-0x9c0(%rbp)
    9747:	48 8d 85 c8 e8 ff ff 	lea    -0x1738(%rbp),%rax
    974e:	48 89 85 48 f6 ff ff 	mov    %rax,-0x9b8(%rbp)
    9755:	48 8d 85 c0 e8 ff ff 	lea    -0x1740(%rbp),%rax
    975c:	48 89 85 50 f6 ff ff 	mov    %rax,-0x9b0(%rbp)
    9763:	48 8d 85 c0 e8 ff ff 	lea    -0x1740(%rbp),%rax
    976a:	48 89 85 58 f6 ff ff 	mov    %rax,-0x9a8(%rbp)
    9771:	48 8d 85 74 e4 ff ff 	lea    -0x1b8c(%rbp),%rax
    9778:	48 89 85 60 f6 ff ff 	mov    %rax,-0x9a0(%rbp)
    977f:	48 c7 85 68 f6 ff ff 	movq   $0x0,-0x998(%rbp)
    9786:	00 00 00 00 
    978a:	48 8d 85 88 e4 ff ff 	lea    -0x1b78(%rbp),%rax
    9791:	48 89 85 70 f6 ff ff 	mov    %rax,-0x990(%rbp)
    9798:	48 8d 85 c8 e8 ff ff 	lea    -0x1738(%rbp),%rax
    979f:	48 89 85 78 f6 ff ff 	mov    %rax,-0x988(%rbp)
    97a6:	48 c7 85 80 f6 ff ff 	movq   $0x0,-0x980(%rbp)
    97ad:	00 00 00 00 
    97b1:	48 8d 85 c8 e8 ff ff 	lea    -0x1738(%rbp),%rax
    97b8:	48 89 85 88 f6 ff ff 	mov    %rax,-0x978(%rbp)
    97bf:	48 8d 85 70 e4 ff ff 	lea    -0x1b90(%rbp),%rax
    97c6:	48 89 85 90 f6 ff ff 	mov    %rax,-0x970(%rbp)
    97cd:	48 8d 85 74 e4 ff ff 	lea    -0x1b8c(%rbp),%rax
    97d4:	48 89 85 98 f6 ff ff 	mov    %rax,-0x968(%rbp)
    97db:	48 8d 85 88 e4 ff ff 	lea    -0x1b78(%rbp),%rax
    97e2:	48 89 85 a0 f6 ff ff 	mov    %rax,-0x960(%rbp)
    97e9:	48 c7 85 a8 f6 ff ff 	movq   $0x0,-0x958(%rbp)
    97f0:	00 00 00 00 
    97f4:	48 c7 85 b0 f6 ff ff 	movq   $0x0,-0x950(%rbp)
    97fb:	00 00 00 00 
    97ff:	48 8d 85 c0 e8 ff ff 	lea    -0x1740(%rbp),%rax
    9806:	48 89 85 b8 f6 ff ff 	mov    %rax,-0x948(%rbp)
    980d:	48 c7 85 c0 f6 ff ff 	movq   $0x0,-0x940(%rbp)
    9814:	00 00 00 00 
    9818:	48 8d 85 74 e4 ff ff 	lea    -0x1b8c(%rbp),%rax
    981f:	48 89 85 c8 f6 ff ff 	mov    %rax,-0x938(%rbp)
    9826:	48 8d 85 74 e4 ff ff 	lea    -0x1b8c(%rbp),%rax
    982d:	48 89 85 d0 f6 ff ff 	mov    %rax,-0x930(%rbp)
    9834:	48 8d 85 c0 e8 ff ff 	lea    -0x1740(%rbp),%rax
    983b:	48 89 85 d8 f6 ff ff 	mov    %rax,-0x928(%rbp)
    9842:	48 c7 85 e0 f6 ff ff 	movq   $0x0,-0x920(%rbp)
    9849:	00 00 00 00 
    984d:	48 c7 85 e8 f6 ff ff 	movq   $0x0,-0x918(%rbp)
    9854:	00 00 00 00 
    9858:	48 c7 85 f0 f6 ff ff 	movq   $0x0,-0x910(%rbp)
    985f:	00 00 00 00 
    9863:	48 c7 85 f8 f6 ff ff 	movq   $0x0,-0x908(%rbp)
    986a:	00 00 00 00 
    986e:	48 c7 85 00 f7 ff ff 	movq   $0x0,-0x900(%rbp)
    9875:	00 00 00 00 
    9879:	48 c7 85 08 f7 ff ff 	movq   $0x0,-0x8f8(%rbp)
    9880:	00 00 00 00 
    9884:	48 8d 85 c0 e8 ff ff 	lea    -0x1740(%rbp),%rax
    988b:	48 89 85 10 f7 ff ff 	mov    %rax,-0x8f0(%rbp)
    9892:	48 c7 85 18 f7 ff ff 	movq   $0x0,-0x8e8(%rbp)
    9899:	00 00 00 00 
    989d:	48 8d 85 70 e4 ff ff 	lea    -0x1b90(%rbp),%rax
    98a4:	48 89 85 20 f7 ff ff 	mov    %rax,-0x8e0(%rbp)
    98ab:	48 8d 85 70 e4 ff ff 	lea    -0x1b90(%rbp),%rax
    98b2:	48 89 85 28 f7 ff ff 	mov    %rax,-0x8d8(%rbp)
    98b9:	48 8d 85 74 e4 ff ff 	lea    -0x1b8c(%rbp),%rax
    98c0:	48 89 85 30 f7 ff ff 	mov    %rax,-0x8d0(%rbp)
    98c7:	48 8d 85 c8 e8 ff ff 	lea    -0x1738(%rbp),%rax
    98ce:	48 89 85 38 f7 ff ff 	mov    %rax,-0x8c8(%rbp)
    98d5:	48 8d 85 c0 e8 ff ff 	lea    -0x1740(%rbp),%rax
    98dc:	48 89 85 40 f7 ff ff 	mov    %rax,-0x8c0(%rbp)
    98e3:	48 8d 85 c0 e8 ff ff 	lea    -0x1740(%rbp),%rax
    98ea:	48 89 85 48 f7 ff ff 	mov    %rax,-0x8b8(%rbp)
    98f1:	48 8d 85 74 e4 ff ff 	lea    -0x1b8c(%rbp),%rax
    98f8:	48 89 85 50 f7 ff ff 	mov    %rax,-0x8b0(%rbp)
    98ff:	48 c7 85 58 f7 ff ff 	movq   $0x0,-0x8a8(%rbp)
    9906:	00 00 00 00 
    990a:	48 8d 85 88 e4 ff ff 	lea    -0x1b78(%rbp),%rax
    9911:	48 89 85 60 f7 ff ff 	mov    %rax,-0x8a0(%rbp)
    9918:	48 8d 85 c8 e8 ff ff 	lea    -0x1738(%rbp),%rax
    991f:	48 89 85 68 f7 ff ff 	mov    %rax,-0x898(%rbp)
    9926:	48 c7 85 70 f7 ff ff 	movq   $0x0,-0x890(%rbp)
    992d:	00 00 00 00 
    9931:	48 8d 85 c8 e8 ff ff 	lea    -0x1738(%rbp),%rax
    9938:	48 89 85 78 f7 ff ff 	mov    %rax,-0x888(%rbp)
    993f:	48 8d 85 70 e4 ff ff 	lea    -0x1b90(%rbp),%rax
    9946:	48 89 85 80 f7 ff ff 	mov    %rax,-0x880(%rbp)
    994d:	48 8d 85 74 e4 ff ff 	lea    -0x1b8c(%rbp),%rax
    9954:	48 89 85 88 f7 ff ff 	mov    %rax,-0x878(%rbp)
    995b:	48 8d 85 88 e4 ff ff 	lea    -0x1b78(%rbp),%rax
    9962:	48 89 85 90 f7 ff ff 	mov    %rax,-0x870(%rbp)
    9969:	48 c7 85 98 f7 ff ff 	movq   $0x0,-0x868(%rbp)
    9970:	00 00 00 00 
    9974:	48 c7 85 a0 f7 ff ff 	movq   $0x0,-0x860(%rbp)
    997b:	00 00 00 00 
    997f:	48 8d 85 c0 e8 ff ff 	lea    -0x1740(%rbp),%rax
    9986:	48 89 85 a8 f7 ff ff 	mov    %rax,-0x858(%rbp)
    998d:	48 c7 85 b0 f7 ff ff 	movq   $0x0,-0x850(%rbp)
    9994:	00 00 00 00 
    9998:	48 8d 85 74 e4 ff ff 	lea    -0x1b8c(%rbp),%rax
    999f:	48 89 85 b8 f7 ff ff 	mov    %rax,-0x848(%rbp)
    99a6:	48 8d 85 74 e4 ff ff 	lea    -0x1b8c(%rbp),%rax
    99ad:	48 89 85 c0 f7 ff ff 	mov    %rax,-0x840(%rbp)
    99b4:	48 8d 85 c0 e8 ff ff 	lea    -0x1740(%rbp),%rax
    99bb:	48 89 85 c8 f7 ff ff 	mov    %rax,-0x838(%rbp)
    99c2:	48 c7 85 d0 f7 ff ff 	movq   $0x0,-0x830(%rbp)
    99c9:	00 00 00 00 
    99cd:	48 c7 85 d8 f7 ff ff 	movq   $0x0,-0x828(%rbp)
    99d4:	00 00 00 00 
    99d8:	48 c7 85 e0 f7 ff ff 	movq   $0x0,-0x820(%rbp)
    99df:	00 00 00 00 
    99e3:	48 c7 85 e8 f7 ff ff 	movq   $0x0,-0x818(%rbp)
    99ea:	00 00 00 00 
    99ee:	48 c7 85 f0 f7 ff ff 	movq   $0x0,-0x810(%rbp)
    99f5:	00 00 00 00 
    99f9:	48 c7 85 f8 f7 ff ff 	movq   $0x0,-0x808(%rbp)
    9a00:	00 00 00 00 
    9a04:	48 8d 85 c0 e8 ff ff 	lea    -0x1740(%rbp),%rax
    9a0b:	48 89 85 00 f8 ff ff 	mov    %rax,-0x800(%rbp)
    9a12:	48 c7 85 08 f8 ff ff 	movq   $0x0,-0x7f8(%rbp)
    9a19:	00 00 00 00 
    9a1d:	48 8d 85 70 e4 ff ff 	lea    -0x1b90(%rbp),%rax
    9a24:	48 89 85 10 f8 ff ff 	mov    %rax,-0x7f0(%rbp)
    9a2b:	48 8d 85 70 e4 ff ff 	lea    -0x1b90(%rbp),%rax
    9a32:	48 89 85 18 f8 ff ff 	mov    %rax,-0x7e8(%rbp)
    9a39:	48 8d 85 74 e4 ff ff 	lea    -0x1b8c(%rbp),%rax
    9a40:	48 89 85 20 f8 ff ff 	mov    %rax,-0x7e0(%rbp)
    9a47:	48 8d 85 c8 e8 ff ff 	lea    -0x1738(%rbp),%rax
    9a4e:	48 89 85 28 f8 ff ff 	mov    %rax,-0x7d8(%rbp)
    9a55:	48 8d 85 c0 e8 ff ff 	lea    -0x1740(%rbp),%rax
    9a5c:	48 89 85 30 f8 ff ff 	mov    %rax,-0x7d0(%rbp)
    9a63:	48 8d 85 c0 e8 ff ff 	lea    -0x1740(%rbp),%rax
    9a6a:	48 89 85 38 f8 ff ff 	mov    %rax,-0x7c8(%rbp)
    9a71:	48 8d 85 74 e4 ff ff 	lea    -0x1b8c(%rbp),%rax
    9a78:	48 89 85 40 f8 ff ff 	mov    %rax,-0x7c0(%rbp)
    9a7f:	48 c7 85 48 f8 ff ff 	movq   $0x0,-0x7b8(%rbp)
    9a86:	00 00 00 00 
    9a8a:	48 8d 85 88 e4 ff ff 	lea    -0x1b78(%rbp),%rax
    9a91:	48 89 85 50 f8 ff ff 	mov    %rax,-0x7b0(%rbp)
    9a98:	48 8d 85 c8 e8 ff ff 	lea    -0x1738(%rbp),%rax
    9a9f:	48 89 85 58 f8 ff ff 	mov    %rax,-0x7a8(%rbp)
    9aa6:	48 c7 85 60 f8 ff ff 	movq   $0x0,-0x7a0(%rbp)
    9aad:	00 00 00 00 
    9ab1:	48 8d 85 c8 e8 ff ff 	lea    -0x1738(%rbp),%rax
    9ab8:	48 89 85 68 f8 ff ff 	mov    %rax,-0x798(%rbp)
    9abf:	48 8d 85 70 e4 ff ff 	lea    -0x1b90(%rbp),%rax
    9ac6:	48 89 85 70 f8 ff ff 	mov    %rax,-0x790(%rbp)
    9acd:	48 8d 85 74 e4 ff ff 	lea    -0x1b8c(%rbp),%rax
    9ad4:	48 89 85 78 f8 ff ff 	mov    %rax,-0x788(%rbp)
    9adb:	48 8d 85 88 e4 ff ff 	lea    -0x1b78(%rbp),%rax
    9ae2:	48 89 85 80 f8 ff ff 	mov    %rax,-0x780(%rbp)
    9ae9:	48 c7 85 88 f8 ff ff 	movq   $0x0,-0x778(%rbp)
    9af0:	00 00 00 00 
    9af4:	48 c7 85 90 f8 ff ff 	movq   $0x0,-0x770(%rbp)
    9afb:	00 00 00 00 
    9aff:	48 8d 85 c0 e8 ff ff 	lea    -0x1740(%rbp),%rax
    9b06:	48 89 85 98 f8 ff ff 	mov    %rax,-0x768(%rbp)
    9b0d:	48 c7 85 38 e7 ff ff 	movq   $0x0,-0x18c8(%rbp)
    9b14:	00 00 00 00 
    9b18:	48 8d 05 41 f6 00 00 	lea    0xf641(%rip),%rax        # 19160 <g_424>
    9b1f:	48 89 85 40 e7 ff ff 	mov    %rax,-0x18c0(%rbp)
    9b26:	48 c7 85 48 e7 ff ff 	movq   $0x4,-0x18b8(%rbp)
    9b2d:	04 00 00 00 
    9b31:	48 c7 85 20 ea ff ff 	movq   $0xffffffffffffffff,-0x15e0(%rbp)
    9b38:	ff ff ff ff 
    9b3c:	48 c7 85 28 ea ff ff 	movq   $0xffffffffffffffff,-0x15d8(%rbp)
    9b43:	ff ff ff ff 
    9b47:	48 b8 15 5a 7e c2 21 	movabs $0x485a1c21c27e5a15,%rax
    9b4e:	1c 5a 48 
    9b51:	48 89 85 30 ea ff ff 	mov    %rax,-0x15d0(%rbp)
    9b58:	48 c7 85 38 ea ff ff 	movq   $0xffffffffffffffff,-0x15c8(%rbp)
    9b5f:	ff ff ff ff 
    9b63:	48 c7 85 40 ea ff ff 	movq   $0xffffffffffffffff,-0x15c0(%rbp)
    9b6a:	ff ff ff ff 
    9b6e:	48 89 85 48 ea ff ff 	mov    %rax,-0x15b8(%rbp)
    9b75:	48 c7 85 50 ea ff ff 	movq   $0xffffffffffffffff,-0x15b0(%rbp)
    9b7c:	ff ff ff ff 
    9b80:	48 c7 85 58 ea ff ff 	movq   $0xffffffffffffffff,-0x15a8(%rbp)
    9b87:	ff ff ff ff 
    9b8b:	c7 85 10 e9 ff ff 06 	movl   $0x6,-0x16f0(%rbp)
    9b92:	00 00 00 
    9b95:	c7 85 14 e9 ff ff 06 	movl   $0x6,-0x16ec(%rbp)
    9b9c:	00 00 00 
    9b9f:	c7 85 18 e9 ff ff 06 	movl   $0x6,-0x16e8(%rbp)
    9ba6:	00 00 00 
    9ba9:	c7 85 1c e9 ff ff 06 	movl   $0x6,-0x16e4(%rbp)
    9bb0:	00 00 00 
    9bb3:	c7 85 20 e9 ff ff 06 	movl   $0x6,-0x16e0(%rbp)
    9bba:	00 00 00 
    9bbd:	c7 85 24 e9 ff ff 06 	movl   $0x6,-0x16dc(%rbp)
    9bc4:	00 00 00 
    9bc7:	c7 85 28 e9 ff ff 06 	movl   $0x6,-0x16d8(%rbp)
    9bce:	00 00 00 
    9bd1:	c7 85 2c e9 ff ff 06 	movl   $0x6,-0x16d4(%rbp)
    9bd8:	00 00 00 
    9bdb:	c7 85 30 e9 ff ff 06 	movl   $0x6,-0x16d0(%rbp)
    9be2:	00 00 00 
    9be5:	c7 85 b0 e4 ff ff 00 	movl   $0x0,-0x1b50(%rbp)
    9bec:	00 00 00 
    9bef:	eb 1b                	jmp    9c0c <func_11+0x2c59>
    9bf1:	8b 85 b0 e4 ff ff    	mov    -0x1b50(%rbp),%eax
    9bf7:	48 98                	cltq   
    9bf9:	48 c7 84 c5 d0 e8 ff 	movq   $0x3,-0x1730(%rbp,%rax,8)
    9c00:	ff 03 00 00 00 
    9c05:	83 85 b0 e4 ff ff 01 	addl   $0x1,-0x1b50(%rbp)
    9c0c:	83 bd b0 e4 ff ff 02 	cmpl   $0x2,-0x1b50(%rbp)
    9c13:	7e dc                	jle    9bf1 <func_11+0x2c3e>
    9c15:	c7 85 b0 e4 ff ff 00 	movl   $0x0,-0x1b50(%rbp)
    9c1c:	00 00 00 
    9c1f:	eb 4d                	jmp    9c6e <func_11+0x2cbb>
    9c21:	c7 85 b4 e4 ff ff 00 	movl   $0x0,-0x1b4c(%rbp)
    9c28:	00 00 00 
    9c2b:	eb 31                	jmp    9c5e <func_11+0x2cab>
    9c2d:	8b 85 b4 e4 ff ff    	mov    -0x1b4c(%rbp),%eax
    9c33:	48 98                	cltq   
    9c35:	8b 95 b0 e4 ff ff    	mov    -0x1b50(%rbp),%edx
    9c3b:	48 63 d2             	movslq %edx,%rdx
    9c3e:	48 c1 e2 02          	shl    $0x2,%rdx
    9c42:	48 01 d0             	add    %rdx,%rax
    9c45:	48 b9 c3 29 c9 7b 07 	movabs $0x82c512077bc929c3,%rcx
    9c4c:	12 c5 82 
    9c4f:	48 89 8c c5 00 ed ff 	mov    %rcx,-0x1300(%rbp,%rax,8)
    9c56:	ff 
    9c57:	83 85 b4 e4 ff ff 01 	addl   $0x1,-0x1b4c(%rbp)
    9c5e:	83 bd b4 e4 ff ff 03 	cmpl   $0x3,-0x1b4c(%rbp)
    9c65:	7e c6                	jle    9c2d <func_11+0x2c7a>
    9c67:	83 85 b0 e4 ff ff 01 	addl   $0x1,-0x1b50(%rbp)
    9c6e:	83 bd b0 e4 ff ff 07 	cmpl   $0x7,-0x1b50(%rbp)
    9c75:	7e aa                	jle    9c21 <func_11+0x2c6e>
    9c77:	48 b8 47 0e 9f cb 1e 	movabs $0xf565251ecb9f0e47,%rax
    9c7e:	25 65 f5 
    9c81:	48 89 85 b0 e5 ff ff 	mov    %rax,-0x1a50(%rbp)
    9c88:	48 8b 9d b0 e5 ff ff 	mov    -0x1a50(%rbp),%rbx
    9c8f:	48 8b 85 38 e4 ff ff 	mov    -0x1bc8(%rbp),%rax
    9c96:	98                   	cwtl   
    9c97:	89 c6                	mov    %eax,%esi
    9c99:	bf a6 c5 ff ff       	mov    $0xffffc5a6,%edi
    9c9e:	e8 52 b7 ff ff       	callq  53f5 <safe_mul_func_int16_t_s_s>
    9ca3:	48 8b 85 38 e4 ff ff 	mov    -0x1bc8(%rbp),%rax
    9caa:	41 89 c4             	mov    %eax,%r12d
    9cad:	48 8b 95 f8 f5 ff ff 	mov    -0xa08(%rbp),%rdx
    9cb4:	48 8b 85 30 e7 ff ff 	mov    -0x18d0(%rbp),%rax
    9cbb:	48 8d 0d da d3 00 00 	lea    0xd3da(%rip),%rcx        # 1709c <g_385>
    9cc2:	48 89 08             	mov    %rcx,(%rax)
    9cc5:	8b 85 90 e4 ff ff    	mov    -0x1b70(%rbp),%eax
    9ccb:	0f be c0             	movsbl %al,%eax
    9cce:	be 00 00 00 00       	mov    $0x0,%esi
    9cd3:	89 c7                	mov    %eax,%edi
    9cd5:	e8 b7 30 00 00       	callq  cd91 <func_23>
    9cda:	48 8b 85 48 e4 ff ff 	mov    -0x1bb8(%rbp),%rax
    9ce1:	be ff ff ff ff       	mov    $0xffffffff,%esi
    9ce6:	89 c7                	mov    %eax,%edi
    9ce8:	e8 e3 c1 ff ff       	callq  5ed0 <safe_sub_func_uint32_t_u_u>
    9ced:	44 89 e6             	mov    %r12d,%esi
    9cf0:	bf 00 00 00 00       	mov    $0x0,%edi
    9cf5:	e8 2b c2 ff ff       	callq  5f25 <safe_div_func_uint32_t_u_u>
    9cfa:	89 c0                	mov    %eax,%eax
    9cfc:	48 39 85 38 e4 ff ff 	cmp    %rax,-0x1bc8(%rbp)
    9d03:	0f 94 c0             	sete   %al
    9d06:	0f b6 c0             	movzbl %al,%eax
    9d09:	be 04 00 00 00       	mov    $0x4,%esi
    9d0e:	89 c7                	mov    %eax,%edi
    9d10:	e8 37 bf ff ff       	callq  5c4c <safe_lshift_func_uint8_t_u_u>
    9d15:	0f b6 05 a4 d4 00 00 	movzbl 0xd4a4(%rip),%eax        # 171c0 <g_1569>
    9d1c:	83 e0 0f             	and    $0xf,%eax
    9d1f:	0f b6 c0             	movzbl %al,%eax
    9d22:	0c c0                	or     $0xc0,%al
    9d24:	89 c6                	mov    %eax,%esi
    9d26:	bf 00 00 00 00       	mov    $0x0,%edi
    9d2b:	e8 4a c1 ff ff       	callq  5e7a <safe_rshift_func_uint16_t_u_u>
    9d30:	0f b7 d0             	movzwl %ax,%edx
    9d33:	0f be 85 56 e4 ff ff 	movsbl -0x1baa(%rbp),%eax
    9d3a:	39 c2                	cmp    %eax,%edx
    9d3c:	0f 9d c0             	setge  %al
    9d3f:	0f b6 c0             	movzbl %al,%eax
    9d42:	48 39 85 38 e4 ff ff 	cmp    %rax,-0x1bc8(%rbp)
    9d49:	0f 92 c2             	setb   %dl
    9d4c:	48 8b 05 8d ed 00 00 	mov    0xed8d(%rip),%rax        # 18ae0 <g_1167>
    9d53:	48 8b 00             	mov    (%rax),%rax
    9d56:	0f b6 d2             	movzbl %dl,%edx
    9d59:	48 89 10             	mov    %rdx,(%rax)
    9d5c:	48 8b 00             	mov    (%rax),%rax
    9d5f:	48 39 c3             	cmp    %rax,%rbx
    9d62:	0f b7 05 81 d4 00 00 	movzwl 0xd481(%rip),%eax        # 171ea <g_1749+0x2>
    9d69:	66 85 c0             	test   %ax,%ax
    9d6c:	0f 84 98 01 00 00    	je     9f0a <func_11+0x2f57>
    9d72:	48 b8 15 81 41 44 f6 	movabs $0x2ade4f644418115,%rax
    9d79:	e4 ad 02 
    9d7c:	48 89 85 30 e8 ff ff 	mov    %rax,-0x17d0(%rbp)
    9d83:	48 c7 85 38 e8 ff ff 	movq   $0x0,-0x17c8(%rbp)
    9d8a:	00 00 00 00 
    9d8e:	48 8d 05 a3 d2 00 00 	lea    0xd2a3(%rip),%rax        # 17038 <g_70>
    9d95:	48 89 85 40 e8 ff ff 	mov    %rax,-0x17c0(%rbp)
    9d9c:	be 0c 00 00 00       	mov    $0xc,%esi
    9da1:	bf e8 44 00 00       	mov    $0x44e8,%edi
    9da6:	e8 5b c0 ff ff       	callq  5e06 <safe_lshift_func_uint16_t_u_u>
    9dab:	48 8b 05 46 ed 00 00 	mov    0xed46(%rip),%rax        # 18af8 <g_1295>
    9db2:	48 8b 05 8f ee 00 00 	mov    0xee8f(%rip),%rax        # 18c48 <g_1766>
    9db9:	48 8b 95 38 e7 ff ff 	mov    -0x18c8(%rbp),%rdx
    9dc0:	48 89 10             	mov    %rdx,(%rax)
    9dc3:	8b 85 ac e8 ff ff    	mov    -0x1754(%rbp),%eax
    9dc9:	3d 70 ca 00 00       	cmp    $0xca70,%eax
    9dce:	0f 85 f4 00 00 00    	jne    9ec8 <func_11+0x2f15>
    9dd4:	48 8b 05 25 ed 00 00 	mov    0xed25(%rip),%rax        # 18b00 <g_1356>
    9ddb:	48 8b 95 90 e5 ff ff 	mov    -0x1a70(%rbp),%rdx
    9de2:	48 89 10             	mov    %rdx,(%rax)
    9de5:	48 8b 05 74 ea 00 00 	mov    0xea74(%rip),%rax        # 18860 <g_763>
    9dec:	48 c7 00 00 00 00 00 	movq   $0x0,(%rax)
    9df3:	0f b6 85 44 e4 ff ff 	movzbl -0x1bbc(%rbp),%eax
    9dfa:	84 c0                	test   %al,%al
    9dfc:	75 0c                	jne    9e0a <func_11+0x2e57>
    9dfe:	48 8b 05 43 ea 00 00 	mov    0xea43(%rip),%rax        # 18848 <g_736>
    9e05:	0f b6 00             	movzbl (%rax),%eax
    9e08:	84 c0                	test   %al,%al
    9e0a:	8b 85 40 e4 ff ff    	mov    -0x1bc0(%rbp),%eax
    9e10:	0f b6 c0             	movzbl %al,%eax
    9e13:	be 05 00 00 00       	mov    $0x5,%esi
    9e18:	89 c7                	mov    %eax,%edi
    9e1a:	e8 e6 bd ff ff       	callq  5c05 <safe_lshift_func_uint8_t_u_s>
    9e1f:	0f b6 d8             	movzbl %al,%ebx
    9e22:	48 8b 05 27 ea 00 00 	mov    0xea27(%rip),%rax        # 18850 <g_735>
    9e29:	48 8b 00             	mov    (%rax),%rax
    9e2c:	0f b6 00             	movzbl (%rax),%eax
    9e2f:	c0 e8 07             	shr    $0x7,%al
    9e32:	44 0f b6 e0          	movzbl %al,%r12d
    9e36:	48 8b 05 73 d3 00 00 	mov    0xd373(%rip),%rax        # 171b0 <g_1523>
    9e3d:	48 83 f8 5f          	cmp    $0x5f,%rax
    9e41:	0f 96 c0             	setbe  %al
    9e44:	0f b6 c0             	movzbl %al,%eax
    9e47:	be 02 00 00 00       	mov    $0x2,%esi
    9e4c:	89 c7                	mov    %eax,%edi
    9e4e:	e8 19 b5 ff ff       	callq  536c <safe_rshift_func_int8_t_s_u>
    9e53:	0f be c0             	movsbl %al,%eax
    9e56:	41 39 c4             	cmp    %eax,%r12d
    9e59:	0f 9e c0             	setle  %al
    9e5c:	0f b6 c0             	movzbl %al,%eax
    9e5f:	39 c3                	cmp    %eax,%ebx
    9e61:	0f 95 c0             	setne  %al
    9e64:	0f b6 d0             	movzbl %al,%edx
    9e67:	48 8b 85 48 e4 ff ff 	mov    -0x1bb8(%rbp),%rax
    9e6e:	0f be c0             	movsbl %al,%eax
    9e71:	89 d6                	mov    %edx,%esi
    9e73:	89 c7                	mov    %eax,%edi
    9e75:	e8 bb b4 ff ff       	callq  5335 <safe_rshift_func_int8_t_s_s>
    9e7a:	3c 4e                	cmp    $0x4e,%al
    9e7c:	0f 94 c2             	sete   %dl
    9e7f:	48 8b 05 5a ec 00 00 	mov    0xec5a(%rip),%rax        # 18ae0 <g_1167>
    9e86:	48 8b 00             	mov    (%rax),%rax
    9e89:	0f b6 d2             	movzbl %dl,%edx
    9e8c:	48 89 10             	mov    %rdx,(%rax)
    9e8f:	48 8b 10             	mov    (%rax),%rdx
    9e92:	8b 85 c8 e8 ff ff    	mov    -0x1738(%rbp),%eax
    9e98:	48 98                	cltq   
    9e9a:	48 39 c2             	cmp    %rax,%rdx
    9e9d:	0f 9c c0             	setl   %al
    9ea0:	0f b6 c0             	movzbl %al,%eax
    9ea3:	be 64 34 00 00       	mov    $0x3464,%esi
    9ea8:	89 c7                	mov    %eax,%edi
    9eaa:	e8 df be ff ff       	callq  5d8e <safe_div_func_uint16_t_u_u>
    9eaf:	48 8b 95 f0 e5 ff ff 	mov    -0x1a10(%rbp),%rdx
    9eb6:	8b 12                	mov    (%rdx),%edx
    9eb8:	0f b7 c0             	movzwl %ax,%eax
    9ebb:	31 c2                	xor    %eax,%edx
    9ebd:	48 8b 85 f0 e5 ff ff 	mov    -0x1a10(%rbp),%rax
    9ec4:	89 10                	mov    %edx,(%rax)
    9ec6:	eb 33                	jmp    9efb <func_11+0x2f48>
    9ec8:	8b 95 cc e8 ff ff    	mov    -0x1734(%rbp),%edx
    9ece:	48 8b 85 f0 e5 ff ff 	mov    -0x1a10(%rbp),%rax
    9ed5:	89 10                	mov    %edx,(%rax)
    9ed7:	48 8d 85 90 e4 ff ff 	lea    -0x1b70(%rbp),%rax
    9ede:	48 89 85 40 e8 ff ff 	mov    %rax,-0x17c0(%rbp)
    9ee5:	48 8b 85 48 e4 ff ff 	mov    -0x1bb8(%rbp),%rax
    9eec:	98                   	cwtl   
    9eed:	89 c7                	mov    %eax,%edi
    9eef:	e8 a9 b4 ff ff       	callq  539d <safe_unary_minus_func_int16_t_s>
    9ef4:	98                   	cwtl   
    9ef5:	89 85 78 e4 ff ff    	mov    %eax,-0x1b88(%rbp)
    9efb:	48 8b 05 46 e9 00 00 	mov    0xe946(%rip),%rax        # 18848 <g_736>
    9f02:	0f b6 00             	movzbl (%rax),%eax
    9f05:	e9 a0 26 00 00       	jmpq   c5aa <func_11+0x55f7>
    9f0a:	48 c7 85 20 ec ff ff 	movq   $0x0,-0x13e0(%rbp)
    9f11:	00 00 00 00 
    9f15:	48 c7 85 28 ec ff ff 	movq   $0x0,-0x13d8(%rbp)
    9f1c:	00 00 00 00 
    9f20:	48 8d 85 88 e4 ff ff 	lea    -0x1b78(%rbp),%rax
    9f27:	48 89 85 30 ec ff ff 	mov    %rax,-0x13d0(%rbp)
    9f2e:	48 8d 05 0f d2 00 00 	lea    0xd20f(%rip),%rax        # 17144 <g_774>
    9f35:	48 89 85 38 ec ff ff 	mov    %rax,-0x13c8(%rbp)
    9f3c:	48 c7 85 40 ec ff ff 	movq   $0x0,-0x13c0(%rbp)
    9f43:	00 00 00 00 
    9f47:	48 8d 05 f6 d1 00 00 	lea    0xd1f6(%rip),%rax        # 17144 <g_774>
    9f4e:	48 89 85 48 ec ff ff 	mov    %rax,-0x13b8(%rbp)
    9f55:	48 8d 85 88 e4 ff ff 	lea    -0x1b78(%rbp),%rax
    9f5c:	48 89 85 50 ec ff ff 	mov    %rax,-0x13b0(%rbp)
    9f63:	48 c7 85 58 ec ff ff 	movq   $0x0,-0x13a8(%rbp)
    9f6a:	00 00 00 00 
    9f6e:	48 c7 85 60 ec ff ff 	movq   $0x0,-0x13a0(%rbp)
    9f75:	00 00 00 00 
    9f79:	48 8d 85 ac e8 ff ff 	lea    -0x1754(%rbp),%rax
    9f80:	48 89 85 68 ec ff ff 	mov    %rax,-0x1398(%rbp)
    9f87:	48 8d 85 8c e4 ff ff 	lea    -0x1b74(%rbp),%rax
    9f8e:	48 89 85 70 ec ff ff 	mov    %rax,-0x1390(%rbp)
    9f95:	48 c7 85 78 ec ff ff 	movq   $0x0,-0x1388(%rbp)
    9f9c:	00 00 00 00 
    9fa0:	48 8d 05 9d d1 00 00 	lea    0xd19d(%rip),%rax        # 17144 <g_774>
    9fa7:	48 89 85 80 ec ff ff 	mov    %rax,-0x1380(%rbp)
    9fae:	48 c7 85 88 ec ff ff 	movq   $0x0,-0x1378(%rbp)
    9fb5:	00 00 00 00 
    9fb9:	48 8d 85 8c e4 ff ff 	lea    -0x1b74(%rbp),%rax
    9fc0:	48 89 85 90 ec ff ff 	mov    %rax,-0x1370(%rbp)
    9fc7:	48 8d 85 ac e8 ff ff 	lea    -0x1754(%rbp),%rax
    9fce:	48 89 85 98 ec ff ff 	mov    %rax,-0x1368(%rbp)
    9fd5:	48 8d 85 ac e8 ff ff 	lea    -0x1754(%rbp),%rax
    9fdc:	48 89 85 a0 ec ff ff 	mov    %rax,-0x1360(%rbp)
    9fe3:	48 8d 85 8c e4 ff ff 	lea    -0x1b74(%rbp),%rax
    9fea:	48 89 85 a8 ec ff ff 	mov    %rax,-0x1358(%rbp)
    9ff1:	48 8d 05 4c d1 00 00 	lea    0xd14c(%rip),%rax        # 17144 <g_774>
    9ff8:	48 89 85 b0 ec ff ff 	mov    %rax,-0x1350(%rbp)
    9fff:	48 8d 85 8c e4 ff ff 	lea    -0x1b74(%rbp),%rax
    a006:	48 89 85 b8 ec ff ff 	mov    %rax,-0x1348(%rbp)
    a00d:	48 8d 85 88 e4 ff ff 	lea    -0x1b78(%rbp),%rax
    a014:	48 89 85 c0 ec ff ff 	mov    %rax,-0x1340(%rbp)
    a01b:	48 8d 85 8c e4 ff ff 	lea    -0x1b74(%rbp),%rax
    a022:	48 89 85 c8 ec ff ff 	mov    %rax,-0x1338(%rbp)
    a029:	48 8d 05 14 d1 00 00 	lea    0xd114(%rip),%rax        # 17144 <g_774>
    a030:	48 89 85 d0 ec ff ff 	mov    %rax,-0x1330(%rbp)
    a037:	48 c7 85 d8 ec ff ff 	movq   $0x0,-0x1328(%rbp)
    a03e:	00 00 00 00 
    a042:	48 c7 85 e0 ec ff ff 	movq   $0x0,-0x1320(%rbp)
    a049:	00 00 00 00 
    a04d:	48 8d 05 f0 d0 00 00 	lea    0xd0f0(%rip),%rax        # 17144 <g_774>
    a054:	48 89 85 e8 ec ff ff 	mov    %rax,-0x1318(%rbp)
    a05b:	48 8d 85 8c e4 ff ff 	lea    -0x1b74(%rbp),%rax
    a062:	48 89 85 f0 ec ff ff 	mov    %rax,-0x1310(%rbp)
    a069:	48 c7 85 b8 e5 ff ff 	movq   $0xffffffffffffffff,-0x1a48(%rbp)
    a070:	ff ff ff ff 
    a074:	48 8d 05 d9 8f 00 00 	lea    0x8fd9(%rip),%rax        # 13054 <g_1798>
    a07b:	48 89 85 c0 e5 ff ff 	mov    %rax,-0x1a40(%rbp)
    a082:	48 8d 85 c0 e5 ff ff 	lea    -0x1a40(%rbp),%rax
    a089:	48 89 85 50 e7 ff ff 	mov    %rax,-0x18b0(%rbp)
    a090:	48 8d 85 40 e5 ff ff 	lea    -0x1ac0(%rbp),%rax
    a097:	48 89 85 58 e7 ff ff 	mov    %rax,-0x18a8(%rbp)
    a09e:	48 8d 05 84 cf 00 00 	lea    0xcf84(%rip),%rax        # 17029 <g_32>
    a0a5:	48 89 85 60 e7 ff ff 	mov    %rax,-0x18a0(%rbp)
    a0ac:	66 c7 85 64 e4 ff ff 	movw   $0x20c,-0x1b9c(%rbp)
    a0b3:	0c 02 
    a0b5:	bf ff ff ff ff       	mov    $0xffffffff,%edi
    a0ba:	e8 00 b1 ff ff       	callq  51bf <safe_unary_minus_func_int8_t_s>
    a0bf:	84 c0                	test   %al,%al
    a0c1:	0f 84 69 01 00 00    	je     a230 <func_11+0x327d>
    a0c7:	66 c7 85 66 e4 ff ff 	movw   $0x1e80,-0x1b9a(%rbp)
    a0ce:	80 1e 
    a0d0:	48 8d 85 c0 e8 ff ff 	lea    -0x1740(%rbp),%rax
    a0d7:	48 83 c0 04          	add    $0x4,%rax
    a0db:	48 89 85 38 ec ff ff 	mov    %rax,-0x13c8(%rbp)
    a0e2:	48 8b 85 b8 e5 ff ff 	mov    -0x1a48(%rbp),%rax
    a0e9:	89 c2                	mov    %eax,%edx
    a0eb:	8b 85 8c e4 ff ff    	mov    -0x1b74(%rbp),%eax
    a0f1:	21 d0                	and    %edx,%eax
    a0f3:	89 85 8c e4 ff ff    	mov    %eax,-0x1b74(%rbp)
    a0f9:	48 8b 05 30 cf 00 00 	mov    0xcf30(%rip),%rax        # 17030 <g_64>
    a100:	48 85 c0             	test   %rax,%rax
    a103:	74 02                	je     a107 <func_11+0x3154>
    a105:	eb ae                	jmp    a0b5 <func_11+0x3102>
    a107:	66 83 85 66 e4 ff ff 	addw   $0x1,-0x1b9a(%rbp)
    a10e:	01 
    a10f:	48 8b 85 f0 e5 ff ff 	mov    -0x1a10(%rbp),%rax
    a116:	8b 00                	mov    (%rax),%eax
    a118:	89 c2                	mov    %eax,%edx
    a11a:	48 8b 85 38 e4 ff ff 	mov    -0x1bc8(%rbp),%rax
    a121:	31 d0                	xor    %edx,%eax
    a123:	89 c2                	mov    %eax,%edx
    a125:	48 8b 85 f0 e5 ff ff 	mov    -0x1a10(%rbp),%rax
    a12c:	89 10                	mov    %edx,(%rax)
    a12e:	48 8b 05 db da 00 00 	mov    0xdadb(%rip),%rax        # 17c10 <g_181>
    a135:	48 8b 00             	mov    (%rax),%rax
    a138:	48 8b 00             	mov    (%rax),%rax
    a13b:	48 8d 95 70 e4 ff ff 	lea    -0x1b90(%rbp),%rdx
    a142:	48 89 10             	mov    %rdx,(%rax)
    a145:	0f b6 85 44 e4 ff ff 	movzbl -0x1bbc(%rbp),%eax
    a14c:	44 0f be e0          	movsbl %al,%r12d
    a150:	48 8b 85 38 e4 ff ff 	mov    -0x1bc8(%rbp),%rax
    a157:	44 0f bf e8          	movswl %ax,%r13d
    a15b:	0f b6 05 2a d0 00 00 	movzbl 0xd02a(%rip),%eax        # 1718c <g_1311>
    a162:	83 e0 0f             	and    $0xf,%eax
    a165:	44 0f b6 f0          	movzbl %al,%r14d
    a169:	48 8b 85 50 e7 ff ff 	mov    -0x18b0(%rbp),%rax
    a170:	48 8d 15 ea ef 00 00 	lea    0xefea(%rip),%rdx        # 19161 <g_424+0x1>
    a177:	48 89 10             	mov    %rdx,(%rax)
    a17a:	48 8b 85 58 e7 ff ff 	mov    -0x18a8(%rbp),%rax
    a181:	48 8b 95 40 e7 ff ff 	mov    -0x18c0(%rbp),%rdx
    a188:	48 89 10             	mov    %rdx,(%rax)
    a18b:	48 8b 85 38 e4 ff ff 	mov    -0x1bc8(%rbp),%rax
    a192:	98                   	cwtl   
    a193:	89 85 34 e4 ff ff    	mov    %eax,-0x1bcc(%rbp)
    a199:	44 8b bd ac e8 ff ff 	mov    -0x1754(%rbp),%r15d
    a1a0:	8b 9d 40 e4 ff ff    	mov    -0x1bc0(%rbp),%ebx
    a1a6:	8d 43 01             	lea    0x1(%rbx),%eax
    a1a9:	89 85 40 e4 ff ff    	mov    %eax,-0x1bc0(%rbp)
    a1af:	48 8b 85 38 e4 ff ff 	mov    -0x1bc8(%rbp),%rax
    a1b6:	0f b7 c0             	movzwl %ax,%eax
    a1b9:	89 c6                	mov    %eax,%esi
    a1bb:	bf 02 00 00 00       	mov    $0x2,%edi
    a1c0:	e8 3a bb ff ff       	callq  5cff <safe_add_func_uint16_t_u_u>
    a1c5:	0f b6 05 a4 cf 00 00 	movzbl 0xcfa4(%rip),%eax        # 17170 <g_938>
    a1cc:	83 e0 0f             	and    $0xf,%eax
    a1cf:	0f b6 c0             	movzbl %al,%eax
    a1d2:	89 85 28 e4 ff ff    	mov    %eax,-0x1bd8(%rbp)
    a1d8:	48 8b 85 48 e4 ff ff 	mov    -0x1bb8(%rbp),%rax
    a1df:	89 c6                	mov    %eax,%esi
    a1e1:	bf f8 ff 00 00       	mov    $0xfff8,%edi
    a1e6:	e8 1b bc ff ff       	callq  5e06 <safe_lshift_func_uint16_t_u_u>
    a1eb:	0f b6 c0             	movzbl %al,%eax
    a1ee:	8b b5 28 e4 ff ff    	mov    -0x1bd8(%rbp),%esi
    a1f4:	89 c7                	mov    %eax,%edi
    a1f6:	e8 0a ba ff ff       	callq  5c05 <safe_lshift_func_uint8_t_u_s>
    a1fb:	89 c2                	mov    %eax,%edx
    a1fd:	48 8b 85 40 e7 ff ff 	mov    -0x18c0(%rbp),%rax
    a204:	88 10                	mov    %dl,(%rax)
    a206:	48 8b 85 38 e4 ff ff 	mov    -0x1bc8(%rbp),%rax
    a20d:	89 c2                	mov    %eax,%edx
    a20f:	48 8b 85 60 e7 ff ff 	mov    -0x18a0(%rbp),%rax
    a216:	88 10                	mov    %dl,(%rax)
    a218:	48 8b 85 60 e7 ff ff 	mov    -0x18a0(%rbp),%rax
    a21f:	0f b6 00             	movzbl (%rax),%eax
    a222:	0f b6 c0             	movzbl %al,%eax
    a225:	48 39 85 48 e4 ff ff 	cmp    %rax,-0x1bb8(%rbp)
    a22c:	72 1e                	jb     a24c <func_11+0x3299>
    a22e:	eb 0b                	jmp    a23b <func_11+0x3288>
    a230:	8b 85 00 e5 ff ff    	mov    -0x1b00(%rbp),%eax
    a236:	e9 6f 23 00 00       	jmpq   c5aa <func_11+0x55f7>
    a23b:	8b 85 7c e4 ff ff    	mov    -0x1b84(%rbp),%eax
    a241:	85 c0                	test   %eax,%eax
    a243:	74 07                	je     a24c <func_11+0x3299>
    a245:	b8 01 00 00 00       	mov    $0x1,%eax
    a24a:	eb 05                	jmp    a251 <func_11+0x329e>
    a24c:	b8 00 00 00 00       	mov    $0x0,%eax
    a251:	21 d8                	and    %ebx,%eax
    a253:	85 c0                	test   %eax,%eax
    a255:	74 12                	je     a269 <func_11+0x32b6>
    a257:	0f b6 85 44 e4 ff ff 	movzbl -0x1bbc(%rbp),%eax
    a25e:	84 c0                	test   %al,%al
    a260:	74 07                	je     a269 <func_11+0x32b6>
    a262:	b8 01 00 00 00       	mov    $0x1,%eax
    a267:	eb 05                	jmp    a26e <func_11+0x32bb>
    a269:	b8 00 00 00 00       	mov    $0x0,%eax
    a26e:	3d fe ff 00 00       	cmp    $0xfffe,%eax
    a273:	0f 97 c0             	seta   %al
    a276:	0f b6 c0             	movzbl %al,%eax
    a279:	48 39 85 38 e4 ff ff 	cmp    %rax,-0x1bc8(%rbp)
    a280:	48 8b 05 89 d9 00 00 	mov    0xd989(%rip),%rax        # 17c10 <g_181>
    a287:	48 8b 00             	mov    (%rax),%rax
    a28a:	48 8b 00             	mov    (%rax),%rax
    a28d:	48 8d 95 ac e8 ff ff 	lea    -0x1754(%rbp),%rdx
    a294:	48 89 10             	mov    %rdx,(%rax)
    a297:	48 8b 00             	mov    (%rax),%rax
    a29a:	48 8d b5 80 e4 ff ff 	lea    -0x1b80(%rbp),%rsi
    a2a1:	8b 8d 34 e4 ff ff    	mov    -0x1bcc(%rbp),%ecx
    a2a7:	44 89 fa             	mov    %r15d,%edx
    a2aa:	48 89 c7             	mov    %rax,%rdi
    a2ad:	e8 10 28 00 00       	callq  cac2 <func_18>
    a2b2:	48 8d 95 ac e8 ff ff 	lea    -0x1754(%rbp),%rdx
    a2b9:	48 39 d0             	cmp    %rdx,%rax
    a2bc:	0f 94 c0             	sete   %al
    a2bf:	0f b6 c0             	movzbl %al,%eax
    a2c2:	44 89 f6             	mov    %r14d,%esi
    a2c5:	89 c7                	mov    %eax,%edi
    a2c7:	e8 46 af ff ff       	callq  5212 <safe_mul_func_int8_t_s_s>
    a2cc:	83 c8 6c             	or     $0x6c,%eax
    a2cf:	0f be c0             	movsbl %al,%eax
    a2d2:	44 89 ee             	mov    %r13d,%esi
    a2d5:	89 c7                	mov    %eax,%edi
    a2d7:	e8 3a b1 ff ff       	callq  5416 <safe_mod_func_int16_t_s_s>
    a2dc:	66 85 c0             	test   %ax,%ax
    a2df:	74 07                	je     a2e8 <func_11+0x3335>
    a2e1:	b8 01 00 00 00       	mov    $0x1,%eax
    a2e6:	eb 05                	jmp    a2ed <func_11+0x333a>
    a2e8:	b8 00 00 00 00       	mov    $0x0,%eax
    a2ed:	0f be c0             	movsbl %al,%eax
    a2f0:	be 03 00 00 00       	mov    $0x3,%esi
    a2f5:	89 c7                	mov    %eax,%edi
    a2f7:	e8 70 b0 ff ff       	callq  536c <safe_rshift_func_int8_t_s_u>
    a2fc:	48 0f be c0          	movsbq %al,%rax
    a300:	48 89 c6             	mov    %rax,%rsi
    a303:	48 bf 44 eb 3f 84 b9 	movabs $0x65796cb9843feb44,%rdi
    a30a:	6c 79 65 
    a30d:	e8 6e bd ff ff       	callq  6080 <safe_mod_func_uint64_t_u_u>
    a312:	0f be c0             	movsbl %al,%eax
    a315:	44 89 e6             	mov    %r12d,%esi
    a318:	89 c7                	mov    %eax,%edi
    a31a:	e8 f3 ae ff ff       	callq  5212 <safe_mul_func_int8_t_s_s>
    a31f:	48 0f be c0          	movsbq %al,%rax
    a323:	48 0b 85 38 e4 ff ff 	or     -0x1bc8(%rbp),%rax
    a32a:	48 85 c0             	test   %rax,%rax
    a32d:	0f 84 ed 02 00 00    	je     a620 <func_11+0x366d>
    a333:	48 c7 85 c8 e5 ff ff 	movq   $0x0,-0x1a38(%rbp)
    a33a:	00 00 00 00 
    a33e:	48 8d 85 c8 e5 ff ff 	lea    -0x1a38(%rbp),%rax
    a345:	48 89 85 68 e7 ff ff 	mov    %rax,-0x1898(%rbp)
    a34c:	48 8d 85 b8 e5 ff ff 	lea    -0x1a48(%rbp),%rax
    a353:	48 89 85 d0 e5 ff ff 	mov    %rax,-0x1a30(%rbp)
    a35a:	48 8d 85 d0 e5 ff ff 	lea    -0x1a30(%rbp),%rax
    a361:	48 89 85 70 e7 ff ff 	mov    %rax,-0x1890(%rbp)
    a368:	c7 85 08 e5 ff ff 2f 	movl   $0x1c605b2f,-0x1af8(%rbp)
    a36f:	5b 60 1c 
    a372:	48 c7 85 78 e7 ff ff 	movq   $0x0,-0x1888(%rbp)
    a379:	00 00 00 00 
    a37d:	48 8d 85 88 e4 ff ff 	lea    -0x1b78(%rbp),%rax
    a384:	48 89 85 e0 e9 ff ff 	mov    %rax,-0x1620(%rbp)
    a38b:	48 8d 85 88 e4 ff ff 	lea    -0x1b78(%rbp),%rax
    a392:	48 89 85 e8 e9 ff ff 	mov    %rax,-0x1618(%rbp)
    a399:	48 8d 85 88 e4 ff ff 	lea    -0x1b78(%rbp),%rax
    a3a0:	48 89 85 f0 e9 ff ff 	mov    %rax,-0x1610(%rbp)
    a3a7:	48 8d 85 88 e4 ff ff 	lea    -0x1b78(%rbp),%rax
    a3ae:	48 89 85 f8 e9 ff ff 	mov    %rax,-0x1608(%rbp)
    a3b5:	48 8d 85 88 e4 ff ff 	lea    -0x1b78(%rbp),%rax
    a3bc:	48 89 85 00 ea ff ff 	mov    %rax,-0x1600(%rbp)
    a3c3:	48 8d 85 e0 e9 ff ff 	lea    -0x1620(%rbp),%rax
    a3ca:	48 83 c0 20          	add    $0x20,%rax
    a3ce:	48 89 85 80 e7 ff ff 	mov    %rax,-0x1880(%rbp)
    a3d5:	48 8b 85 38 e4 ff ff 	mov    -0x1bc8(%rbp),%rax
    a3dc:	0f bf d0             	movswl %ax,%edx
    a3df:	48 8b 05 fa e6 00 00 	mov    0xe6fa(%rip),%rax        # 18ae0 <g_1167>
    a3e6:	48 8b 00             	mov    (%rax),%rax
    a3e9:	48 8b 8d 48 e4 ff ff 	mov    -0x1bb8(%rbp),%rcx
    a3f0:	48 89 08             	mov    %rcx,(%rax)
    a3f3:	48 8b 00             	mov    (%rax),%rax
    a3f6:	89 85 cc e8 ff ff    	mov    %eax,-0x1734(%rbp)
    a3fc:	8b 85 cc e8 ff ff    	mov    -0x1734(%rbp),%eax
    a402:	85 c0                	test   %eax,%eax
    a404:	0f 94 c0             	sete   %al
    a407:	0f b6 c0             	movzbl %al,%eax
    a40a:	89 d6                	mov    %edx,%esi
    a40c:	89 c7                	mov    %eax,%edi
    a40e:	e8 a0 af ff ff       	callq  53b3 <safe_add_func_int16_t_s_s>
    a413:	0f bf d0             	movswl %ax,%edx
    a416:	48 8b 8d c8 e5 ff ff 	mov    -0x1a38(%rbp),%rcx
    a41d:	48 8b 85 68 e7 ff ff 	mov    -0x1898(%rbp),%rax
    a424:	48 89 08             	mov    %rcx,(%rax)
    a427:	48 8b 85 68 e7 ff ff 	mov    -0x1898(%rbp),%rax
    a42e:	48 8b 08             	mov    (%rax),%rcx
    a431:	48 8d 85 90 e5 ff ff 	lea    -0x1a70(%rbp),%rax
    a438:	48 39 c1             	cmp    %rax,%rcx
    a43b:	0f 94 c0             	sete   %al
    a43e:	0f b6 f0             	movzbl %al,%esi
    a441:	48 8b 05 98 e6 00 00 	mov    0xe698(%rip),%rax        # 18ae0 <g_1167>
    a448:	48 8b 38             	mov    (%rax),%rdi
    a44b:	48 8b 85 70 e7 ff ff 	mov    -0x1890(%rbp),%rax
    a452:	48 8d 8d b0 e5 ff ff 	lea    -0x1a50(%rbp),%rcx
    a459:	48 89 08             	mov    %rcx,(%rax)
    a45c:	48 8b 85 70 e7 ff ff 	mov    -0x1890(%rbp),%rax
    a463:	48 8b 00             	mov    (%rax),%rax
    a466:	48 39 c7             	cmp    %rax,%rdi
    a469:	0f 95 c0             	setne  %al
    a46c:	0f b6 c0             	movzbl %al,%eax
    a46f:	89 85 78 e4 ff ff    	mov    %eax,-0x1b88(%rbp)
    a475:	8b 85 78 e4 ff ff    	mov    -0x1b88(%rbp),%eax
    a47b:	31 f0                	xor    %esi,%eax
    a47d:	98                   	cwtl   
    a47e:	89 d6                	mov    %edx,%esi
    a480:	89 c7                	mov    %eax,%edi
    a482:	e8 6e af ff ff       	callq  53f5 <safe_mul_func_int16_t_s_s>
    a487:	66 85 c0             	test   %ax,%ax
    a48a:	8b 05 64 cd 00 00    	mov    0xcd64(%rip),%eax        # 171f4 <g_1813>
    a490:	83 f8 01             	cmp    $0x1,%eax
    a493:	0f 96 c0             	setbe  %al
    a496:	0f b6 c8             	movzbl %al,%ecx
    a499:	48 8b 85 48 e7 ff ff 	mov    -0x18b8(%rbp),%rax
    a4a0:	0f b6 c0             	movzbl %al,%eax
    a4a3:	48 8b 1d 46 d7 00 00 	mov    0xd746(%rip),%rbx        # 17bf0 <g_183>
    a4aa:	48 8d 15 79 cb 00 00 	lea    0xcb79(%rip),%rdx        # 1702a <g_61>
    a4b1:	48 89 ce             	mov    %rcx,%rsi
    a4b4:	89 c7                	mov    %eax,%edi
    a4b6:	e8 6e 3c 00 00       	callq  e129 <func_35>
    a4bb:	48 89 03             	mov    %rax,(%rbx)
    a4be:	8b 05 44 ed 00 00    	mov    0xed44(%rip),%eax        # 19208 <g_1699>
    a4c4:	85 c0                	test   %eax,%eax
    a4c6:	75 0c                	jne    a4d4 <func_11+0x3521>
    a4c8:	c7 85 8c e4 ff ff 05 	movl   $0x5,-0x1b74(%rbp)
    a4cf:	00 00 00 
    a4d2:	eb 01                	jmp    a4d5 <func_11+0x3522>
    a4d4:	90                   	nop
    a4d5:	8b 85 8c e4 ff ff    	mov    -0x1b74(%rbp),%eax
    a4db:	0f b7 d8             	movzwl %ax,%ebx
    a4de:	48 8b 05 7b e7 00 00 	mov    0xe77b(%rip),%rax        # 18c60 <g_1837>
    a4e5:	48 8d 15 6c e7 00 00 	lea    0xe76c(%rip),%rdx        # 18c58 <g_1838>
    a4ec:	48 39 d0             	cmp    %rdx,%rax
    a4ef:	0f 95 c0             	setne  %al
    a4f2:	44 0f b6 e0          	movzbl %al,%r12d
    a4f6:	8b 05 3c cb 00 00    	mov    0xcb3c(%rip),%eax        # 17038 <g_70>
    a4fc:	0f b7 c0             	movzwl %ax,%eax
    a4ff:	be 0e 00 00 00       	mov    $0xe,%esi
    a504:	89 c7                	mov    %eax,%edi
    a506:	e8 b3 b8 ff ff       	callq  5dbe <safe_lshift_func_uint16_t_u_s>
    a50b:	0f b7 c0             	movzwl %ax,%eax
    a50e:	39 85 08 e5 ff ff    	cmp    %eax,-0x1af8(%rbp)
    a514:	0f 9e c0             	setle  %al
    a517:	0f b6 c0             	movzbl %al,%eax
    a51a:	44 89 e6             	mov    %r12d,%esi
    a51d:	89 c7                	mov    %eax,%edi
    a51f:	e8 36 b6 ff ff       	callq  5b5a <safe_add_func_uint8_t_u_u>
    a524:	0f b6 85 44 e4 ff ff 	movzbl -0x1bbc(%rbp),%eax
    a52b:	44 0f b6 e0          	movzbl %al,%r12d
    a52f:	0f b6 85 44 e4 ff ff 	movzbl -0x1bbc(%rbp),%eax
    a536:	f7 d0                	not    %eax
    a538:	0f be c0             	movsbl %al,%eax
    a53b:	89 c6                	mov    %eax,%esi
    a53d:	bf 01 00 00 00       	mov    $0x1,%edi
    a542:	e8 23 ad ff ff       	callq  526a <safe_div_func_int8_t_s_s>
    a547:	be ff ff ff ff       	mov    $0xffffffff,%esi
    a54c:	bf e3 91 ff ff       	mov    $0xffff91e3,%edi
    a551:	e8 76 b1 ff ff       	callq  56cc <safe_mod_func_int32_t_s_s>
    a556:	48 98                	cltq   
    a558:	48 39 85 38 e4 ff ff 	cmp    %rax,-0x1bc8(%rbp)
    a55f:	0f 94 c0             	sete   %al
    a562:	0f b6 d0             	movzbl %al,%edx
    a565:	0f bf 85 64 e4 ff ff 	movswl -0x1b9c(%rbp),%eax
    a56c:	39 c2                	cmp    %eax,%edx
    a56e:	0f 9f c0             	setg   %al
    a571:	0f b6 c0             	movzbl %al,%eax
    a574:	44 89 e6             	mov    %r12d,%esi
    a577:	89 c7                	mov    %eax,%edi
    a579:	e8 dc b5 ff ff       	callq  5b5a <safe_add_func_uint8_t_u_u>
    a57e:	84 c0                	test   %al,%al
    a580:	8b 05 72 cc 00 00    	mov    0xcc72(%rip),%eax        # 171f8 <g_1850>
    a586:	0f b6 85 44 e4 ff ff 	movzbl -0x1bbc(%rbp),%eax
    a58d:	0f be c0             	movsbl %al,%eax
    a590:	89 c6                	mov    %eax,%esi
    a592:	bf 03 00 00 00       	mov    $0x3,%edi
    a597:	e8 38 ac ff ff       	callq  51d4 <safe_add_func_int8_t_s_s>
    a59c:	3c 7c                	cmp    $0x7c,%al
    a59e:	0f 9e c0             	setle  %al
    a5a1:	0f b6 c0             	movzbl %al,%eax
    a5a4:	f7 d0                	not    %eax
    a5a6:	0f b7 c0             	movzwl %ax,%eax
    a5a9:	be 06 00 00 00       	mov    $0x6,%esi
    a5ae:	89 c7                	mov    %eax,%edi
    a5b0:	e8 51 b8 ff ff       	callq  5e06 <safe_lshift_func_uint16_t_u_u>
    a5b5:	66 85 c0             	test   %ax,%ax
    a5b8:	48 8b 85 f0 e5 ff ff 	mov    -0x1a10(%rbp),%rax
    a5bf:	8b 00                	mov    (%rax),%eax
    a5c1:	0f b7 c0             	movzwl %ax,%eax
    a5c4:	89 de                	mov    %ebx,%esi
    a5c6:	89 c7                	mov    %eax,%edi
    a5c8:	e8 52 b7 ff ff       	callq  5d1f <safe_sub_func_uint16_t_u_u>
    a5cd:	0f b6 95 44 e4 ff ff 	movzbl -0x1bbc(%rbp),%edx
    a5d4:	0f b6 d2             	movzbl %dl,%edx
    a5d7:	66 39 d0             	cmp    %dx,%ax
    a5da:	0f 95 c0             	setne  %al
    a5dd:	0f b6 d0             	movzbl %al,%edx
    a5e0:	8b 85 c8 e8 ff ff    	mov    -0x1738(%rbp),%eax
    a5e6:	0f be c0             	movsbl %al,%eax
    a5e9:	89 d6                	mov    %edx,%esi
    a5eb:	89 c7                	mov    %eax,%edi
    a5ed:	e8 af ac ff ff       	callq  52a1 <safe_lshift_func_int8_t_s_s>
    a5f2:	48 0f be c0          	movsbq %al,%rax
    a5f6:	48 89 85 48 ea ff ff 	mov    %rax,-0x15b8(%rbp)
    a5fd:	48 8b 05 54 e6 00 00 	mov    0xe654(%rip),%rax        # 18c58 <g_1838>
    a604:	48 8b 00             	mov    (%rax),%rax
    a607:	48 8b 00             	mov    (%rax),%rax
    a60a:	48 8b 85 80 e7 ff ff 	mov    -0x1880(%rbp),%rax
    a611:	48 8d 95 90 e4 ff ff 	lea    -0x1b70(%rbp),%rdx
    a618:	48 89 10             	mov    %rdx,(%rax)
    a61b:	e9 e3 00 00 00       	jmpq   a703 <func_11+0x3750>
    a620:	c7 85 e0 e9 ff ff da 	movl   $0xa93e0eda,-0x1620(%rbp)
    a627:	0e 3e a9 
    a62a:	c7 85 e4 e9 ff ff 01 	movl   $0x1,-0x161c(%rbp)
    a631:	00 00 00 
    a634:	c7 85 e8 e9 ff ff da 	movl   $0xa93e0eda,-0x1618(%rbp)
    a63b:	0e 3e a9 
    a63e:	c7 85 ec e9 ff ff da 	movl   $0xa93e0eda,-0x1614(%rbp)
    a645:	0e 3e a9 
    a648:	c7 85 f0 e9 ff ff 01 	movl   $0x1,-0x1610(%rbp)
    a64f:	00 00 00 
    a652:	c7 85 f4 e9 ff ff da 	movl   $0xa93e0eda,-0x160c(%rbp)
    a659:	0e 3e a9 
    a65c:	c7 85 f8 e9 ff ff da 	movl   $0xa93e0eda,-0x1608(%rbp)
    a663:	0e 3e a9 
    a666:	c7 85 fc e9 ff ff 01 	movl   $0x1,-0x1604(%rbp)
    a66d:	00 00 00 
    a670:	c7 85 00 ea ff ff da 	movl   $0xa93e0eda,-0x1600(%rbp)
    a677:	0e 3e a9 
    a67a:	c7 85 04 ea ff ff da 	movl   $0xa93e0eda,-0x15fc(%rbp)
    a681:	0e 3e a9 
    a684:	c7 85 08 ea ff ff 01 	movl   $0x1,-0x15f8(%rbp)
    a68b:	00 00 00 
    a68e:	c7 85 0c ea ff ff da 	movl   $0xa93e0eda,-0x15f4(%rbp)
    a695:	0e 3e a9 
    a698:	c7 85 10 ea ff ff da 	movl   $0xa93e0eda,-0x15f0(%rbp)
    a69f:	0e 3e a9 
    a6a2:	c7 85 14 ea ff ff 01 	movl   $0x1,-0x15ec(%rbp)
    a6a9:	00 00 00 
    a6ac:	48 8b 05 5d d5 00 00 	mov    0xd55d(%rip),%rax        # 17c10 <g_181>
    a6b3:	48 8b 00             	mov    (%rax),%rax
    a6b6:	48 8b 00             	mov    (%rax),%rax
    a6b9:	48 8d 95 88 e4 ff ff 	lea    -0x1b78(%rbp),%rdx
    a6c0:	48 89 10             	mov    %rdx,(%rax)
    a6c3:	48 8b 05 46 d5 00 00 	mov    0xd546(%rip),%rax        # 17c10 <g_181>
    a6ca:	48 8b 00             	mov    (%rax),%rax
    a6cd:	48 8b 00             	mov    (%rax),%rax
    a6d0:	48 8b 00             	mov    (%rax),%rax
    a6d3:	8b 00                	mov    (%rax),%eax
    a6d5:	89 c2                	mov    %eax,%edx
    a6d7:	48 8b 85 38 e4 ff ff 	mov    -0x1bc8(%rbp),%rax
    a6de:	31 c2                	xor    %eax,%edx
    a6e0:	48 8b 05 29 d5 00 00 	mov    0xd529(%rip),%rax        # 17c10 <g_181>
    a6e7:	48 8b 00             	mov    (%rax),%rax
    a6ea:	48 8b 00             	mov    (%rax),%rax
    a6ed:	48 8b 00             	mov    (%rax),%rax
    a6f0:	89 10                	mov    %edx,(%rax)
    a6f2:	0f b7 85 b2 e8 ff ff 	movzwl -0x174e(%rbp),%eax
    a6f9:	83 e8 01             	sub    $0x1,%eax
    a6fc:	66 89 85 b2 e8 ff ff 	mov    %ax,-0x174e(%rbp)
    a703:	48 8b 05 06 d5 00 00 	mov    0xd506(%rip),%rax        # 17c10 <g_181>
    a70a:	48 8b 00             	mov    (%rax),%rax
    a70d:	48 8b 00             	mov    (%rax),%rax
    a710:	48 8d 95 88 e4 ff ff 	lea    -0x1b78(%rbp),%rdx
    a717:	48 89 10             	mov    %rdx,(%rax)
    a71a:	c7 85 8c e4 ff ff 00 	movl   $0x0,-0x1b74(%rbp)
    a721:	00 00 00 
    a724:	e9 43 03 00 00       	jmpq   aa6c <func_11+0x3ab9>
    a729:	48 8d 85 c8 e8 ff ff 	lea    -0x1738(%rbp),%rax
    a730:	48 89 85 10 e8 ff ff 	mov    %rax,-0x17f0(%rbp)
    a737:	48 8d 05 16 ca 00 00 	lea    0xca16(%rip),%rax        # 17154 <g_910>
    a73e:	48 89 85 18 e8 ff ff 	mov    %rax,-0x17e8(%rbp)
    a745:	c7 85 2c e5 ff ff ff 	movl   $0xffffffff,-0x1ad4(%rbp)
    a74c:	ff ff ff 
    a74f:	c7 05 df c8 00 00 fd 	movl   $0xfffffffd,0xc8df(%rip)        # 17038 <g_70>
    a756:	ff ff ff 
    a759:	e9 06 01 00 00       	jmpq   a864 <func_11+0x38b1>
    a75e:	48 8d 85 80 e4 ff ff 	lea    -0x1b80(%rbp),%rax
    a765:	48 89 85 20 e8 ff ff 	mov    %rax,-0x17e0(%rbp)
    a76c:	48 8d 85 7c e4 ff ff 	lea    -0x1b84(%rbp),%rax
    a773:	48 89 85 d0 e5 ff ff 	mov    %rax,-0x1a30(%rbp)
    a77a:	48 8d 85 d0 e5 ff ff 	lea    -0x1a30(%rbp),%rax
    a781:	48 89 85 28 e8 ff ff 	mov    %rax,-0x17d8(%rbp)
    a788:	48 8b 85 20 e8 ff ff 	mov    -0x17e0(%rbp),%rax
    a78f:	48 89 85 00 f6 ff ff 	mov    %rax,-0xa00(%rbp)
    a796:	48 8b 85 28 e8 ff ff 	mov    -0x17d8(%rbp),%rax
    a79d:	48 8d 95 90 e4 ff ff 	lea    -0x1b70(%rbp),%rdx
    a7a4:	48 89 10             	mov    %rdx,(%rax)
    a7a7:	48 8b 85 28 e8 ff ff 	mov    -0x17d8(%rbp),%rax
    a7ae:	48 8b 95 10 e8 ff ff 	mov    -0x17f0(%rbp),%rdx
    a7b5:	48 89 10             	mov    %rdx,(%rax)
    a7b8:	8b 9d 40 e4 ff ff    	mov    -0x1bc0(%rbp),%ebx
    a7be:	48 8b 85 20 e8 ff ff 	mov    -0x17e0(%rbp),%rax
    a7c5:	8b 00                	mov    (%rax),%eax
    a7c7:	85 c0                	test   %eax,%eax
    a7c9:	74 52                	je     a81d <func_11+0x386a>
    a7cb:	be 1a 00 00 00       	mov    $0x1a,%esi
    a7d0:	bf 01 00 00 00       	mov    $0x1,%edi
    a7d5:	e8 38 aa ff ff       	callq  5212 <safe_mul_func_int8_t_s_s>
    a7da:	84 c0                	test   %al,%al
    a7dc:	75 0e                	jne    a7ec <func_11+0x3839>
    a7de:	48 8b 05 0b d4 00 00 	mov    0xd40b(%rip),%rax        # 17bf0 <g_183>
    a7e5:	48 8b 00             	mov    (%rax),%rax
    a7e8:	8b 00                	mov    (%rax),%eax
    a7ea:	85 c0                	test   %eax,%eax
    a7ec:	8b 15 aa ca 00 00    	mov    0xcaaa(%rip),%edx        # 1729c <g_1876+0x9c>
    a7f2:	48 8b 85 48 e5 ff ff 	mov    -0x1ab8(%rbp),%rax
    a7f9:	48 63 d2             	movslq %edx,%rdx
    a7fc:	48 89 10             	mov    %rdx,(%rax)
    a7ff:	48 8b 00             	mov    (%rax),%rax
    a802:	48 83 f8 04          	cmp    $0x4,%rax
    a806:	0f 94 c0             	sete   %al
    a809:	0f b6 d0             	movzbl %al,%edx
    a80c:	8b 85 7c e4 ff ff    	mov    -0x1b84(%rbp),%eax
    a812:	39 c2                	cmp    %eax,%edx
    a814:	7c 07                	jl     a81d <func_11+0x386a>
    a816:	b8 01 00 00 00       	mov    $0x1,%eax
    a81b:	eb 05                	jmp    a822 <func_11+0x386f>
    a81d:	b8 00 00 00 00       	mov    $0x0,%eax
    a822:	98                   	cwtl   
    a823:	89 de                	mov    %ebx,%esi
    a825:	89 c7                	mov    %eax,%edi
    a827:	e8 66 ac ff ff       	callq  5492 <safe_lshift_func_int16_t_s_s>
    a82c:	0f bf d0             	movswl %ax,%edx
    a82f:	0f be 85 56 e4 ff ff 	movsbl -0x1baa(%rbp),%eax
    a836:	09 d0                	or     %edx,%eax
    a838:	be f9 ff ff ff       	mov    $0xfffffff9,%esi
    a83d:	89 c7                	mov    %eax,%edi
    a83f:	e8 bb ae ff ff       	callq  56ff <safe_div_func_int32_t_s_s>
    a844:	89 85 78 e4 ff ff    	mov    %eax,-0x1b88(%rbp)
    a84a:	8b 05 e8 c7 00 00    	mov    0xc7e8(%rip),%eax        # 17038 <g_70>
    a850:	98                   	cwtl   
    a851:	be 01 00 00 00       	mov    $0x1,%esi
    a856:	89 c7                	mov    %eax,%edi
    a858:	e8 56 ab ff ff       	callq  53b3 <safe_add_func_int16_t_s_s>
    a85d:	98                   	cwtl   
    a85e:	89 05 d4 c7 00 00    	mov    %eax,0xc7d4(%rip)        # 17038 <g_70>
    a864:	8b 05 ce c7 00 00    	mov    0xc7ce(%rip),%eax        # 17038 <g_70>
    a86a:	83 f8 19             	cmp    $0x19,%eax
    a86d:	0f 8f eb fe ff ff    	jg     a75e <func_11+0x37ab>
    a873:	48 8b 05 9e d3 00 00 	mov    0xd39e(%rip),%rax        # 17c18 <g_180>
    a87a:	48 8b 00             	mov    (%rax),%rax
    a87d:	48 8b 00             	mov    (%rax),%rax
    a880:	48 8b 00             	mov    (%rax),%rax
    a883:	48 8b 00             	mov    (%rax),%rax
    a886:	8b 00                	mov    (%rax),%eax
    a888:	85 c0                	test   %eax,%eax
    a88a:	0f 85 cc 01 00 00    	jne    aa5c <func_11+0x3aa9>
    a890:	8b 85 40 e4 ff ff    	mov    -0x1bc0(%rbp),%eax
    a896:	0f bf d8             	movswl %ax,%ebx
    a899:	0f b6 85 44 e4 ff ff 	movzbl -0x1bbc(%rbp),%eax
    a8a0:	44 0f b6 e0          	movzbl %al,%r12d
    a8a4:	48 8b 05 9d df 00 00 	mov    0xdf9d(%rip),%rax        # 18848 <g_736>
    a8ab:	0f b6 00             	movzbl (%rax),%eax
    a8ae:	44 0f be f8          	movsbl %al,%r15d
    a8b2:	0f b6 05 9f c8 00 00 	movzbl 0xc89f(%rip),%eax        # 17158 <g_931>
    a8b9:	83 e0 0f             	and    $0xf,%eax
    a8bc:	0f b6 c0             	movzbl %al,%eax
    a8bf:	89 85 34 e4 ff ff    	mov    %eax,-0x1bcc(%rbp)
    a8c5:	48 8b 85 50 ed ff ff 	mov    -0x12b0(%rbp),%rax
    a8cc:	48 89 85 28 e4 ff ff 	mov    %rax,-0x1bd8(%rbp)
    a8d3:	44 8b ad 04 e5 ff ff 	mov    -0x1afc(%rbp),%r13d
    a8da:	48 83 bd 00 e7 ff ff 	cmpq   $0x0,-0x1900(%rbp)
    a8e1:	00 
    a8e2:	0f 94 c0             	sete   %al
    a8e5:	0f b6 c0             	movzbl %al,%eax
    a8e8:	89 85 30 e4 ff ff    	mov    %eax,-0x1bd0(%rbp)
    a8ee:	44 8b b5 40 e4 ff ff 	mov    -0x1bc0(%rbp),%r14d
    a8f5:	48 8b 05 14 d3 00 00 	mov    0xd314(%rip),%rax        # 17c10 <g_181>
    a8fc:	48 8b 00             	mov    (%rax),%rax
    a8ff:	48 8b 00             	mov    (%rax),%rax
    a902:	48 8b 00             	mov    (%rax),%rax
    a905:	c7 00 01 00 00 00    	movl   $0x1,(%rax)
    a90b:	8b 10                	mov    (%rax),%edx
    a90d:	48 8b 85 10 e8 ff ff 	mov    -0x17f0(%rbp),%rax
    a914:	89 10                	mov    %edx,(%rax)
    a916:	48 8b 85 e0 e5 ff ff 	mov    -0x1a20(%rbp),%rax
    a91d:	48 3b 85 08 e7 ff ff 	cmp    -0x18f8(%rbp),%rax
    a924:	0f 95 c0             	setne  %al
    a927:	0f b6 c0             	movzbl %al,%eax
    a92a:	33 85 04 e5 ff ff    	xor    -0x1afc(%rbp),%eax
    a930:	89 c2                	mov    %eax,%edx
    a932:	48 8b 85 f0 e5 ff ff 	mov    -0x1a10(%rbp),%rax
    a939:	89 10                	mov    %edx,(%rax)
    a93b:	8b 85 40 e4 ff ff    	mov    -0x1bc0(%rbp),%eax
    a941:	83 f0 fe             	xor    $0xfffffffe,%eax
    a944:	89 c2                	mov    %eax,%edx
    a946:	48 8b 85 18 e8 ff ff 	mov    -0x17e8(%rbp),%rax
    a94d:	66 89 10             	mov    %dx,(%rax)
    a950:	48 8b 85 18 e8 ff ff 	mov    -0x17e8(%rbp),%rax
    a957:	0f b7 00             	movzwl (%rax),%eax
    a95a:	0f b7 c0             	movzwl %ax,%eax
    a95d:	be 01 00 00 00       	mov    $0x1,%esi
    a962:	89 c7                	mov    %eax,%edi
    a964:	e8 11 b5 ff ff       	callq  5e7a <safe_rshift_func_uint16_t_u_u>
    a969:	0f b7 05 c0 c7 00 00 	movzwl 0xc7c0(%rip),%eax        # 17130 <g_630>
    a970:	48 0f bf c0          	movswq %ax,%rax
    a974:	4c 89 f6             	mov    %r14,%rsi
    a977:	48 89 c7             	mov    %rax,%rdi
    a97a:	e8 cc b6 ff ff       	callq  604b <safe_sub_func_uint64_t_u_u>
    a97f:	0f b6 d0             	movzbl %al,%edx
    a982:	0f b6 85 b4 e8 ff ff 	movzbl -0x174c(%rbp),%eax
    a989:	0f b6 c0             	movzbl %al,%eax
    a98c:	89 d6                	mov    %edx,%esi
    a98e:	89 c7                	mov    %eax,%edi
    a990:	e8 e3 b1 ff ff       	callq  5b78 <safe_sub_func_uint8_t_u_u>
    a995:	0f b6 c0             	movzbl %al,%eax
    a998:	48 be 79 4f 09 e0 ea 	movabs $0x669162eae0094f79,%rsi
    a99f:	62 91 66 
    a9a2:	48 89 c7             	mov    %rax,%rdi
    a9a5:	e8 fe ae ff ff       	callq  58a8 <safe_sub_func_int64_t_s_s>
    a9aa:	48 85 c0             	test   %rax,%rax
    a9ad:	74 11                	je     a9c0 <func_11+0x3a0d>
    a9af:	48 83 bd 48 e4 ff ff 	cmpq   $0x0,-0x1bb8(%rbp)
    a9b6:	00 
    a9b7:	74 07                	je     a9c0 <func_11+0x3a0d>
    a9b9:	b8 01 00 00 00       	mov    $0x1,%eax
    a9be:	eb 05                	jmp    a9c5 <func_11+0x3a12>
    a9c0:	b8 00 00 00 00       	mov    $0x0,%eax
    a9c5:	3b 85 30 e4 ff ff    	cmp    -0x1bd0(%rbp),%eax
    a9cb:	7d 0d                	jge    a9da <func_11+0x3a27>
    a9cd:	48 8b 85 10 e8 ff ff 	mov    -0x17f0(%rbp),%rax
    a9d4:	8b 00                	mov    (%rax),%eax
    a9d6:	85 c0                	test   %eax,%eax
    a9d8:	75 09                	jne    a9e3 <func_11+0x3a30>
    a9da:	0f b6 05 60 c7 00 00 	movzbl 0xc760(%rip),%eax        # 17141 <g_742>
    a9e1:	84 c0                	test   %al,%al
    a9e3:	90                   	nop
    a9e4:	4c 89 ee             	mov    %r13,%rsi
    a9e7:	bf 00 00 00 00       	mov    $0x0,%edi
    a9ec:	e8 06 b0 ff ff       	callq  59f7 <safe_div_func_int64_t_s_s>
    a9f1:	48 39 85 28 e4 ff ff 	cmp    %rax,-0x1bd8(%rbp)
    a9f8:	0f 9d c0             	setge  %al
    a9fb:	0f b6 c0             	movzbl %al,%eax
    a9fe:	39 85 34 e4 ff ff    	cmp    %eax,-0x1bcc(%rbp)
    aa04:	0f 94 c0             	sete   %al
    aa07:	0f b6 c0             	movzbl %al,%eax
    aa0a:	41 39 c7             	cmp    %eax,%r15d
    aa0d:	8b 05 8d c8 00 00    	mov    0xc88d(%rip),%eax        # 172a0 <g_1900>
    aa13:	48 8b 05 0e d2 00 00 	mov    0xd20e(%rip),%rax        # 17c28 <g_225>
    aa1a:	48 8b 00             	mov    (%rax),%rax
    aa1d:	0f b6 00             	movzbl (%rax),%eax
    aa20:	0f b6 c0             	movzbl %al,%eax
    aa23:	44 89 e6             	mov    %r12d,%esi
    aa26:	89 c7                	mov    %eax,%edi
    aa28:	e8 91 b2 ff ff       	callq  5cbe <safe_rshift_func_uint8_t_u_u>
    aa2d:	0f b6 c0             	movzbl %al,%eax
    aa30:	be a9 00 00 00       	mov    $0xa9,%esi
    aa35:	89 c7                	mov    %eax,%edi
    aa37:	e8 3c b1 ff ff       	callq  5b78 <safe_sub_func_uint8_t_u_u>
    aa3c:	b8 00 00 00 00       	mov    $0x0,%eax
    aa41:	98                   	cwtl   
    aa42:	89 de                	mov    %ebx,%esi
    aa44:	89 c7                	mov    %eax,%edi
    aa46:	e8 aa a9 ff ff       	callq  53f5 <safe_mul_func_int16_t_s_s>
    aa4b:	98                   	cwtl   
    aa4c:	89 85 2c e5 ff ff    	mov    %eax,-0x1ad4(%rbp)
    aa52:	48 83 bd 38 e4 ff ff 	cmpq   $0x0,-0x1bc8(%rbp)
    aa59:	00 
    aa5a:	eb 01                	jmp    aa5d <func_11+0x3aaa>
    aa5c:	90                   	nop
    aa5d:	8b 85 8c e4 ff ff    	mov    -0x1b74(%rbp),%eax
    aa63:	83 c0 01             	add    $0x1,%eax
    aa66:	89 85 8c e4 ff ff    	mov    %eax,-0x1b74(%rbp)
    aa6c:	8b 85 8c e4 ff ff    	mov    -0x1b74(%rbp),%eax
    aa72:	83 f8 19             	cmp    $0x19,%eax
    aa75:	0f 8f ae fc ff ff    	jg     a729 <func_11+0x3776>
    aa7b:	c6 85 56 e4 ff ff e3 	movb   $0xe3,-0x1baa(%rbp)
    aa82:	e9 9d 00 00 00       	jmpq   ab24 <func_11+0x3b71>
    aa87:	66 c7 85 6a e4 ff ff 	movw   $0xfffa,-0x1b96(%rbp)
    aa8e:	fa ff 
    aa90:	48 8d 85 40 e9 ff ff 	lea    -0x16c0(%rbp),%rax
    aa97:	48 83 c0 08          	add    $0x8,%rax
    aa9b:	48 89 85 d8 e7 ff ff 	mov    %rax,-0x1828(%rbp)
    aaa2:	c7 85 20 e5 ff ff 0b 	movl   $0x6836310b,-0x1ae0(%rbp)
    aaa9:	31 36 68 
    aaac:	48 8d 05 91 c6 00 00 	lea    0xc691(%rip),%rax        # 17144 <g_774>
    aab3:	48 89 85 e0 e7 ff ff 	mov    %rax,-0x1820(%rbp)
    aaba:	48 8d 85 80 e5 ff ff 	lea    -0x1a80(%rbp),%rax
    aac1:	48 89 85 e8 e7 ff ff 	mov    %rax,-0x1818(%rbp)
    aac8:	c7 85 24 e5 ff ff 00 	movl   $0x0,-0x1adc(%rbp)
    aacf:	00 00 00 
    aad2:	48 c7 85 f0 e7 ff ff 	movq   $0x0,-0x1810(%rbp)
    aad9:	00 00 00 00 
    aadd:	48 8d 05 fc c5 00 00 	lea    0xc5fc(%rip),%rax        # 170e0 <g_489>
    aae4:	48 89 85 f8 e7 ff ff 	mov    %rax,-0x1808(%rbp)
    aaeb:	c7 85 28 e5 ff ff a3 	movl   $0xf75fea3,-0x1ad8(%rbp)
    aaf2:	fe 75 0f 
    aaf5:	48 c7 85 00 e8 ff ff 	movq   $0x0,-0x1800(%rbp)
    aafc:	00 00 00 00 
    ab00:	48 c7 85 08 e8 ff ff 	movq   $0x0,-0x17f8(%rbp)
    ab07:	00 00 00 00 
    ab0b:	0f be 85 56 e4 ff ff 	movsbl -0x1baa(%rbp),%eax
    ab12:	be 09 00 00 00       	mov    $0x9,%esi
    ab17:	89 c7                	mov    %eax,%edi
    ab19:	e8 9a b3 ff ff       	callq  5eb8 <safe_add_func_uint32_t_u_u>
    ab1e:	88 85 56 e4 ff ff    	mov    %al,-0x1baa(%rbp)
    ab24:	80 bd 56 e4 ff ff ee 	cmpb   $0xee,-0x1baa(%rbp)
    ab2b:	0f 84 56 ff ff ff    	je     aa87 <func_11+0x3ad4>
    ab31:	48 8b 05 b8 d0 00 00 	mov    0xd0b8(%rip),%rax        # 17bf0 <g_183>
    ab38:	48 8b 00             	mov    (%rax),%rax
    ab3b:	8b 00                	mov    (%rax),%eax
    ab3d:	85 c0                	test   %eax,%eax
    ab3f:	0f 84 d9 04 00 00    	je     b01e <func_11+0x406b>
    ab45:	48 8d 85 b8 e8 ff ff 	lea    -0x1748(%rbp),%rax
    ab4c:	48 89 85 20 ef ff ff 	mov    %rax,-0x10e0(%rbp)
    ab53:	48 8d 85 b8 e8 ff ff 	lea    -0x1748(%rbp),%rax
    ab5a:	48 89 85 28 ef ff ff 	mov    %rax,-0x10d8(%rbp)
    ab61:	48 8d 85 b8 e8 ff ff 	lea    -0x1748(%rbp),%rax
    ab68:	48 89 85 30 ef ff ff 	mov    %rax,-0x10d0(%rbp)
    ab6f:	48 8d 85 b8 e8 ff ff 	lea    -0x1748(%rbp),%rax
    ab76:	48 89 85 38 ef ff ff 	mov    %rax,-0x10c8(%rbp)
    ab7d:	48 8d 85 a8 e5 ff ff 	lea    -0x1a58(%rbp),%rax
    ab84:	48 89 85 c8 e5 ff ff 	mov    %rax,-0x1a38(%rbp)
    ab8b:	48 8d 85 c8 e5 ff ff 	lea    -0x1a38(%rbp),%rax
    ab92:	48 89 85 d0 e5 ff ff 	mov    %rax,-0x1a30(%rbp)
    ab99:	48 8d 85 d0 e5 ff ff 	lea    -0x1a30(%rbp),%rax
    aba0:	48 89 85 98 e7 ff ff 	mov    %rax,-0x1868(%rbp)
    aba7:	c7 85 10 e5 ff ff f6 	movl   $0xfffffff6,-0x1af0(%rbp)
    abae:	ff ff ff 
    abb1:	48 8d 85 b0 e8 ff ff 	lea    -0x1750(%rbp),%rax
    abb8:	48 89 85 a0 e7 ff ff 	mov    %rax,-0x1860(%rbp)
    abbf:	48 8d 05 42 e6 00 00 	lea    0xe642(%rip),%rax        # 19208 <g_1699>
    abc6:	48 89 85 a8 e7 ff ff 	mov    %rax,-0x1858(%rbp)
    abcd:	c7 85 14 e5 ff ff f7 	movl   $0xfffffff7,-0x1aec(%rbp)
    abd4:	ff ff ff 
    abd7:	48 8d 85 84 e4 ff ff 	lea    -0x1b7c(%rbp),%rax
    abde:	48 89 85 b0 e7 ff ff 	mov    %rax,-0x1850(%rbp)
    abe5:	48 8d 85 c8 e8 ff ff 	lea    -0x1738(%rbp),%rax
    abec:	48 83 c0 04          	add    $0x4,%rax
    abf0:	48 89 85 60 f3 ff ff 	mov    %rax,-0xca0(%rbp)
    abf7:	48 8d 85 c8 e8 ff ff 	lea    -0x1738(%rbp),%rax
    abfe:	48 83 c0 04          	add    $0x4,%rax
    ac02:	48 89 85 68 f3 ff ff 	mov    %rax,-0xc98(%rbp)
    ac09:	48 8d 85 c8 e8 ff ff 	lea    -0x1738(%rbp),%rax
    ac10:	48 83 c0 04          	add    $0x4,%rax
    ac14:	48 89 85 70 f3 ff ff 	mov    %rax,-0xc90(%rbp)
    ac1b:	48 8d 85 7c e4 ff ff 	lea    -0x1b84(%rbp),%rax
    ac22:	48 89 85 78 f3 ff ff 	mov    %rax,-0xc88(%rbp)
    ac29:	48 8d 85 7c e4 ff ff 	lea    -0x1b84(%rbp),%rax
    ac30:	48 89 85 80 f3 ff ff 	mov    %rax,-0xc80(%rbp)
    ac37:	48 8d 85 7c e4 ff ff 	lea    -0x1b84(%rbp),%rax
    ac3e:	48 89 85 88 f3 ff ff 	mov    %rax,-0xc78(%rbp)
    ac45:	48 8d 85 c8 e8 ff ff 	lea    -0x1738(%rbp),%rax
    ac4c:	48 83 c0 04          	add    $0x4,%rax
    ac50:	48 89 85 90 f3 ff ff 	mov    %rax,-0xc70(%rbp)
    ac57:	48 8d 85 c8 e8 ff ff 	lea    -0x1738(%rbp),%rax
    ac5e:	48 83 c0 04          	add    $0x4,%rax
    ac62:	48 89 85 98 f3 ff ff 	mov    %rax,-0xc68(%rbp)
    ac69:	48 8d 85 c8 e8 ff ff 	lea    -0x1738(%rbp),%rax
    ac70:	48 83 c0 04          	add    $0x4,%rax
    ac74:	48 89 85 a0 f3 ff ff 	mov    %rax,-0xc60(%rbp)
    ac7b:	48 8d 85 7c e4 ff ff 	lea    -0x1b84(%rbp),%rax
    ac82:	48 89 85 a8 f3 ff ff 	mov    %rax,-0xc58(%rbp)
    ac89:	48 8d 85 7c e4 ff ff 	lea    -0x1b84(%rbp),%rax
    ac90:	48 89 85 b0 f3 ff ff 	mov    %rax,-0xc50(%rbp)
    ac97:	48 8d 85 7c e4 ff ff 	lea    -0x1b84(%rbp),%rax
    ac9e:	48 89 85 b8 f3 ff ff 	mov    %rax,-0xc48(%rbp)
    aca5:	48 8d 85 c8 e8 ff ff 	lea    -0x1738(%rbp),%rax
    acac:	48 83 c0 04          	add    $0x4,%rax
    acb0:	48 89 85 c0 f3 ff ff 	mov    %rax,-0xc40(%rbp)
    acb7:	48 8d 85 c8 e8 ff ff 	lea    -0x1738(%rbp),%rax
    acbe:	48 83 c0 04          	add    $0x4,%rax
    acc2:	48 89 85 c8 f3 ff ff 	mov    %rax,-0xc38(%rbp)
    acc9:	48 8d 85 c8 e8 ff ff 	lea    -0x1738(%rbp),%rax
    acd0:	48 83 c0 04          	add    $0x4,%rax
    acd4:	48 89 85 d0 f3 ff ff 	mov    %rax,-0xc30(%rbp)
    acdb:	c7 85 18 e5 ff ff c6 	movl   $0x2063e8c6,-0x1ae8(%rbp)
    ace2:	e8 63 20 
    ace5:	48 8b 05 24 cf 00 00 	mov    0xcf24(%rip),%rax        # 17c10 <g_181>
    acec:	48 8b 00             	mov    (%rax),%rax
    acef:	48 8b 00             	mov    (%rax),%rax
    acf2:	48 8b 00             	mov    (%rax),%rax
    acf5:	c7 00 ff ff ff ff    	movl   $0xffffffff,(%rax)
    acfb:	48 8b 85 20 ef ff ff 	mov    -0x10e0(%rbp),%rax
    ad02:	48 85 c0             	test   %rax,%rax
    ad05:	0f b6 85 44 e4 ff ff 	movzbl -0x1bbc(%rbp),%eax
    ad0c:	44 0f b6 e8          	movzbl %al,%r13d
    ad10:	48 8b 85 48 e4 ff ff 	mov    -0x1bb8(%rbp),%rax
    ad17:	41 89 c4             	mov    %eax,%r12d
    ad1a:	48 8b 85 38 e4 ff ff 	mov    -0x1bc8(%rbp),%rax
    ad21:	0f bf d8             	movswl %ax,%ebx
    ad24:	48 8b 05 2d df 00 00 	mov    0xdf2d(%rip),%rax        # 18c58 <g_1838>
    ad2b:	48 8b 00             	mov    (%rax),%rax
    ad2e:	48 39 85 20 e7 ff ff 	cmp    %rax,-0x18e0(%rbp)
    ad35:	0f 95 c0             	setne  %al
    ad38:	0f b6 c0             	movzbl %al,%eax
    ad3b:	be 14 6d a6 2b       	mov    $0x2ba66d14,%esi
    ad40:	89 c7                	mov    %eax,%edi
    ad42:	e8 de b1 ff ff       	callq  5f25 <safe_div_func_uint32_t_u_u>
    ad47:	98                   	cwtl   
    ad48:	89 de                	mov    %ebx,%esi
    ad4a:	89 c7                	mov    %eax,%edi
    ad4c:	e8 a4 a6 ff ff       	callq  53f5 <safe_mul_func_int16_t_s_s>
    ad51:	0f b6 c0             	movzbl %al,%eax
    ad54:	44 89 e6             	mov    %r12d,%esi
    ad57:	89 c7                	mov    %eax,%edi
    ad59:	e8 2f af ff ff       	callq  5c8d <safe_rshift_func_uint8_t_u_s>
    ad5e:	48 8b 85 a0 e7 ff ff 	mov    -0x1860(%rbp),%rax
    ad65:	0f b7 00             	movzwl (%rax),%eax
    ad68:	8d 50 ff             	lea    -0x1(%rax),%edx
    ad6b:	48 8b 85 a0 e7 ff ff 	mov    -0x1860(%rbp),%rax
    ad72:	66 89 10             	mov    %dx,(%rax)
    ad75:	48 8b 85 a0 e7 ff ff 	mov    -0x1860(%rbp),%rax
    ad7c:	0f b7 00             	movzwl (%rax),%eax
    ad7f:	83 c8 01             	or     $0x1,%eax
    ad82:	44 0f b7 e0          	movzwl %ax,%r12d
    ad86:	48 83 bd 98 e7 ff ff 	cmpq   $0x0,-0x1868(%rbp)
    ad8d:	00 
    ad8e:	0f 95 c0             	setne  %al
    ad91:	0f b6 d0             	movzbl %al,%edx
    ad94:	48 8b 05 d5 de 00 00 	mov    0xded5(%rip),%rax        # 18c70 <g_2021>
    ad9b:	48 8b 00             	mov    (%rax),%rax
    ad9e:	0f b7 00             	movzwl (%rax),%eax
    ada1:	98                   	cwtl   
    ada2:	89 d6                	mov    %edx,%esi
    ada4:	89 c7                	mov    %eax,%edi
    ada6:	e8 36 a7 ff ff       	callq  54e1 <safe_lshift_func_int16_t_s_u>
    adab:	98                   	cwtl   
    adac:	48 8b 1d 35 ce 00 00 	mov    0xce35(%rip),%rbx        # 17be8 <g_184>
    adb3:	44 89 e6             	mov    %r12d,%esi
    adb6:	89 c7                	mov    %eax,%edi
    adb8:	e8 42 a9 ff ff       	callq  56ff <safe_div_func_int32_t_s_s>
    adbd:	89 03                	mov    %eax,(%rbx)
    adbf:	8b 03                	mov    (%rbx),%eax
    adc1:	3d 78 cf e1 67       	cmp    $0x67e1cf78,%eax
    adc6:	7e 0a                	jle    add2 <func_11+0x3e1f>
    adc8:	48 83 bd 48 e4 ff ff 	cmpq   $0x0,-0x1bb8(%rbp)
    adcf:	00 
    add0:	74 07                	je     add9 <func_11+0x3e26>
    add2:	b8 01 00 00 00       	mov    $0x1,%eax
    add7:	eb 05                	jmp    adde <func_11+0x3e2b>
    add9:	b8 00 00 00 00       	mov    $0x0,%eax
    adde:	44 39 e8             	cmp    %r13d,%eax
    ade1:	48 8b 85 a8 e7 ff ff 	mov    -0x1858(%rbp),%rax
    ade8:	66 c7 00 00 00       	movw   $0x0,(%rax)
    aded:	48 8b 85 a8 e7 ff ff 	mov    -0x1858(%rbp),%rax
    adf4:	0f b7 00             	movzwl (%rax),%eax
    adf7:	66 85 c0             	test   %ax,%ax
    adfa:	74 11                	je     ae0d <func_11+0x3e5a>
    adfc:	8b 85 8c e4 ff ff    	mov    -0x1b74(%rbp),%eax
    ae02:	85 c0                	test   %eax,%eax
    ae04:	74 07                	je     ae0d <func_11+0x3e5a>
    ae06:	b8 01 00 00 00       	mov    $0x1,%eax
    ae0b:	eb 05                	jmp    ae12 <func_11+0x3e5f>
    ae0d:	b8 00 00 00 00       	mov    $0x0,%eax
    ae12:	0f b6 c0             	movzbl %al,%eax
    ae15:	be f7 00 00 00       	mov    $0xf7,%esi
    ae1a:	89 c7                	mov    %eax,%edi
    ae1c:	e8 72 ad ff ff       	callq  5b93 <safe_mul_func_uint8_t_u_u>
    ae21:	48 8b 85 f0 e6 ff ff 	mov    -0x1910(%rbp),%rax
    ae28:	8b 00                	mov    (%rax),%eax
    ae2a:	48 98                	cltq   
    ae2c:	48 39 85 48 e4 ff ff 	cmp    %rax,-0x1bb8(%rbp)
    ae33:	0f 97 c0             	seta   %al
    ae36:	0f b6 d0             	movzbl %al,%edx
    ae39:	0f b6 05 fc c2 00 00 	movzbl 0xc2fc(%rip),%eax        # 1713c <g_653>
    ae40:	83 e0 0f             	and    $0xf,%eax
    ae43:	0f b6 c0             	movzbl %al,%eax
    ae46:	21 d0                	and    %edx,%eax
    ae48:	85 c0                	test   %eax,%eax
    ae4a:	0f 84 9f 01 00 00    	je     afef <func_11+0x403c>
    ae50:	48 c7 85 b8 e7 ff ff 	movq   $0x0,-0x1848(%rbp)
    ae57:	00 00 00 00 
    ae5b:	48 c7 85 c0 e7 ff ff 	movq   $0x0,-0x1840(%rbp)
    ae62:	00 00 00 00 
    ae66:	48 8d 05 25 c2 00 00 	lea    0xc225(%rip),%rax        # 17092 <g_327>
    ae6d:	48 89 85 c8 e7 ff ff 	mov    %rax,-0x1838(%rbp)
    ae74:	48 8d 05 19 c2 00 00 	lea    0xc219(%rip),%rax        # 17094 <g_329>
    ae7b:	48 89 85 d0 e7 ff ff 	mov    %rax,-0x1830(%rbp)
    ae82:	c7 85 1c e5 ff ff 03 	movl   $0x3,-0x1ae4(%rbp)
    ae89:	00 00 00 
    ae8c:	8b 05 02 c2 00 00    	mov    0xc202(%rip),%eax        # 17094 <g_329>
    ae92:	0f be d8             	movsbl %al,%ebx
    ae95:	48 8b 85 a0 e7 ff ff 	mov    -0x1860(%rbp),%rax
    ae9c:	0f b7 00             	movzwl (%rax),%eax
    ae9f:	66 35 06 8b          	xor    $0x8b06,%ax
    aea3:	89 c2                	mov    %eax,%edx
    aea5:	48 8b 85 a0 e7 ff ff 	mov    -0x1860(%rbp),%rax
    aeac:	66 89 10             	mov    %dx,(%rax)
    aeaf:	48 8b 85 a0 e7 ff ff 	mov    -0x1860(%rbp),%rax
    aeb6:	0f b7 00             	movzwl (%rax),%eax
    aeb9:	0f b7 c0             	movzwl %ax,%eax
    aebc:	48 39 85 38 e4 ff ff 	cmp    %rax,-0x1bc8(%rbp)
    aec3:	41 0f 97 c4          	seta   %r12b
    aec7:	48 8b 05 52 cd 00 00 	mov    0xcd52(%rip),%rax        # 17c20 <g_226>
    aece:	0f b6 00             	movzbl (%rax),%eax
    aed1:	84 c0                	test   %al,%al
    aed3:	0f 84 98 00 00 00    	je     af71 <func_11+0x3fbe>
    aed9:	48 8b 85 c8 e7 ff ff 	mov    -0x1838(%rbp),%rax
    aee0:	0f b7 00             	movzwl (%rax),%eax
    aee3:	8d 48 ff             	lea    -0x1(%rax),%ecx
    aee6:	48 8b 95 c8 e7 ff ff 	mov    -0x1838(%rbp),%rdx
    aeed:	66 89 0a             	mov    %cx,(%rdx)
    aef0:	0f b7 c0             	movzwl %ax,%eax
    aef3:	be 00 00 00 00       	mov    $0x0,%esi
    aef8:	89 c7                	mov    %eax,%edi
    aefa:	e8 20 ae ff ff       	callq  5d1f <safe_sub_func_uint16_t_u_u>
    aeff:	48 8b 05 ea db 00 00 	mov    0xdbea(%rip),%rax        # 18af0 <g_1270>
    af06:	48 8b 00             	mov    (%rax),%rax
    af09:	48 39 85 d0 e7 ff ff 	cmp    %rax,-0x1830(%rbp)
    af10:	0f 94 c0             	sete   %al
    af13:	0f b6 d0             	movzbl %al,%edx
    af16:	48 8b 85 a8 e7 ff ff 	mov    -0x1858(%rbp),%rax
    af1d:	66 89 10             	mov    %dx,(%rax)
    af20:	48 8b 85 a8 e7 ff ff 	mov    -0x1858(%rbp),%rax
    af27:	0f b7 00             	movzwl (%rax),%eax
    af2a:	66 85 c0             	test   %ax,%ax
    af2d:	75 09                	jne    af38 <func_11+0x3f85>
    af2f:	83 bd 40 e4 ff ff 00 	cmpl   $0x0,-0x1bc0(%rbp)
    af36:	74 07                	je     af3f <func_11+0x3f8c>
    af38:	ba 01 00 00 00       	mov    $0x1,%edx
    af3d:	eb 05                	jmp    af44 <func_11+0x3f91>
    af3f:	ba 00 00 00 00       	mov    $0x0,%edx
    af44:	48 8b 85 d8 e5 ff ff 	mov    -0x1a28(%rbp),%rax
    af4b:	48 8b 00             	mov    (%rax),%rax
    af4e:	48 8b 00             	mov    (%rax),%rax
    af51:	48 8b 08             	mov    (%rax),%rcx
    af54:	48 63 d2             	movslq %edx,%rdx
    af57:	48 8b 85 d8 e5 ff ff 	mov    -0x1a28(%rbp),%rax
    af5e:	48 8b 00             	mov    (%rax),%rax
    af61:	48 8b 00             	mov    (%rax),%rax
    af64:	48 21 ca             	and    %rcx,%rdx
    af67:	48 89 10             	mov    %rdx,(%rax)
    af6a:	b8 01 00 00 00       	mov    $0x1,%eax
    af6f:	eb 05                	jmp    af76 <func_11+0x3fc3>
    af71:	b8 00 00 00 00       	mov    $0x0,%eax
    af76:	83 e0 01             	and    $0x1,%eax
    af79:	44 31 e0             	xor    %r12d,%eax
    af7c:	0f b6 c0             	movzbl %al,%eax
    af7f:	39 85 40 e4 ff ff    	cmp    %eax,-0x1bc0(%rbp)
    af85:	0f 96 c0             	setbe  %al
    af88:	0f b6 c0             	movzbl %al,%eax
    af8b:	89 de                	mov    %ebx,%esi
    af8d:	89 c7                	mov    %eax,%edi
    af8f:	e8 d6 a2 ff ff       	callq  526a <safe_div_func_int8_t_s_s>
    af94:	84 c0                	test   %al,%al
    af96:	0f b6 85 44 e4 ff ff 	movzbl -0x1bbc(%rbp),%eax
    af9d:	84 c0                	test   %al,%al
    af9f:	74 07                	je     afa8 <func_11+0x3ff5>
    afa1:	b8 01 00 00 00       	mov    $0x1,%eax
    afa6:	eb 05                	jmp    afad <func_11+0x3ffa>
    afa8:	b8 00 00 00 00       	mov    $0x0,%eax
    afad:	3b 85 1c e5 ff ff    	cmp    -0x1ae4(%rbp),%eax
    afb3:	0f 9c c0             	setl   %al
    afb6:	0f b6 c0             	movzbl %al,%eax
    afb9:	89 c6                	mov    %eax,%esi
    afbb:	bf f7 13 00 00       	mov    $0x13f7,%edi
    afc0:	e8 65 a5 ff ff       	callq  552a <safe_rshift_func_int16_t_s_s>
    afc5:	48 0f bf c0          	movswq %ax,%rax
    afc9:	48 33 85 48 e4 ff ff 	xor    -0x1bb8(%rbp),%rax
    afd0:	48 89 c2             	mov    %rax,%rdx
    afd3:	48 8b 85 f0 e6 ff ff 	mov    -0x1910(%rbp),%rax
    afda:	8b 00                	mov    (%rax),%eax
    afdc:	89 c1                	mov    %eax,%ecx
    afde:	89 d0                	mov    %edx,%eax
    afe0:	31 c8                	xor    %ecx,%eax
    afe2:	89 c2                	mov    %eax,%edx
    afe4:	48 8b 85 f0 e6 ff ff 	mov    -0x1910(%rbp),%rax
    afeb:	89 10                	mov    %edx,(%rax)
    afed:	eb 1a                	jmp    b009 <func_11+0x4056>
    afef:	48 8b 15 fa cb 00 00 	mov    0xcbfa(%rip),%rdx        # 17bf0 <g_183>
    aff6:	48 8b 05 13 cc 00 00 	mov    0xcc13(%rip),%rax        # 17c10 <g_181>
    affd:	48 8b 00             	mov    (%rax),%rax
    b000:	48 8b 00             	mov    (%rax),%rax
    b003:	48 8b 12             	mov    (%rdx),%rdx
    b006:	48 89 10             	mov    %rdx,(%rax)
    b009:	0f b6 85 57 e4 ff ff 	movzbl -0x1ba9(%rbp),%eax
    b010:	83 e8 01             	sub    $0x1,%eax
    b013:	88 85 57 e4 ff ff    	mov    %al,-0x1ba9(%rbp)
    b019:	e9 3d 05 00 00       	jmpq   b55b <func_11+0x45a8>
    b01e:	66 c7 85 68 e4 ff ff 	movw   $0xffff,-0x1b98(%rbp)
    b025:	ff ff 
    b027:	c6 05 fb bf 00 00 03 	movb   $0x3,0xbffb(%rip)        # 17029 <g_32>
    b02e:	e9 f6 03 00 00       	jmpq   b429 <func_11+0x4476>
    b033:	48 8d 05 16 e1 00 00 	lea    0xe116(%rip),%rax        # 19150 <g_188>
    b03a:	48 89 85 d0 e5 ff ff 	mov    %rax,-0x1a30(%rbp)
    b041:	48 8d 85 d0 e5 ff ff 	lea    -0x1a30(%rbp),%rax
    b048:	48 89 85 88 e7 ff ff 	mov    %rax,-0x1878(%rbp)
    b04f:	c7 45 c4 00 00 00 00 	movl   $0x0,-0x3c(%rbp)
    b056:	c7 85 0c e5 ff ff 07 	movl   $0x7,-0x1af4(%rbp)
    b05d:	00 00 00 
    b060:	48 c7 05 9d e1 00 00 	movq   $0x0,0xe19d(%rip)        # 19208 <g_1699>
    b067:	00 00 00 00 
    b06b:	90                   	nop
    b06c:	48 8b 05 95 e1 00 00 	mov    0xe195(%rip),%rax        # 19208 <g_1699>
    b073:	48 83 f8 0f          	cmp    $0xf,%rax
    b077:	74 36                	je     b0af <func_11+0x40fc>
    b079:	48 83 bd 38 e4 ff ff 	cmpq   $0x0,-0x1bc8(%rbp)
    b080:	00 
    b081:	75 2b                	jne    b0ae <func_11+0x40fb>
    b083:	48 8b 85 d0 e9 ff ff 	mov    -0x1630(%rbp),%rax
    b08a:	48 8d 15 c7 d7 00 00 	lea    0xd7c7(%rip),%rdx        # 18858 <g_734>
    b091:	48 39 d0             	cmp    %rdx,%rax
    b094:	0f 95 c0             	setne  %al
    b097:	0f b6 d0             	movzbl %al,%edx
    b09a:	48 8b 85 f0 e6 ff ff 	mov    -0x1910(%rbp),%rax
    b0a1:	89 10                	mov    %edx,(%rax)
    b0a3:	8b 85 40 e4 ff ff    	mov    -0x1bc0(%rbp),%eax
    b0a9:	e9 fc 14 00 00       	jmpq   c5aa <func_11+0x55f7>
    b0ae:	90                   	nop
    b0af:	80 bd 59 e4 ff ff 00 	cmpb   $0x0,-0x1ba7(%rbp)
    b0b6:	0f 84 2e 03 00 00    	je     b3ea <func_11+0x4437>
    b0bc:	48 8d 85 98 e5 ff ff 	lea    -0x1a68(%rbp),%rax
    b0c3:	48 89 85 90 e7 ff ff 	mov    %rax,-0x1870(%rbp)
    b0ca:	c7 85 b8 e4 ff ff 00 	movl   $0x0,-0x1b48(%rbp)
    b0d1:	00 00 00 
    b0d4:	eb 1e                	jmp    b0f4 <func_11+0x4141>
    b0d6:	8b 85 b8 e4 ff ff    	mov    -0x1b48(%rbp),%eax
    b0dc:	48 98                	cltq   
    b0de:	48 8d 15 ad bf 00 00 	lea    0xbfad(%rip),%rdx        # 17092 <g_327>
    b0e5:	48 89 94 c5 60 f3 ff 	mov    %rdx,-0xca0(%rbp,%rax,8)
    b0ec:	ff 
    b0ed:	83 85 b8 e4 ff ff 01 	addl   $0x1,-0x1b48(%rbp)
    b0f4:	83 bd b8 e4 ff ff 02 	cmpl   $0x2,-0x1b48(%rbp)
    b0fb:	7e d9                	jle    b0d6 <func_11+0x4123>
    b0fd:	48 8b 85 f0 e6 ff ff 	mov    -0x1910(%rbp),%rax
    b104:	8b 00                	mov    (%rax),%eax
    b106:	25 76 97 81 f5       	and    $0xf5819776,%eax
    b10b:	89 c2                	mov    %eax,%edx
    b10d:	48 8b 85 f0 e6 ff ff 	mov    -0x1910(%rbp),%rax
    b114:	89 10                	mov    %edx,(%rax)
    b116:	0f be 9d 56 e4 ff ff 	movsbl -0x1baa(%rbp),%ebx
    b11d:	48 8b 05 8c c1 00 00 	mov    0xc18c(%rip),%rax        # 172b0 <g_2164>
    b124:	0f b6 85 59 e4 ff ff 	movzbl -0x1ba7(%rbp),%eax
    b12b:	44 0f be e0          	movsbl %al,%r12d
    b12f:	0f b6 85 44 e4 ff ff 	movzbl -0x1bbc(%rbp),%eax
    b136:	44 0f b6 e8          	movzbl %al,%r13d
    b13a:	48 8b 05 5f ca 00 00 	mov    0xca5f(%rip),%rax        # 17ba0 <g_130>
    b141:	8b 00                	mov    (%rax),%eax
    b143:	89 c2                	mov    %eax,%edx
    b145:	48 8b 85 f0 e6 ff ff 	mov    -0x1910(%rbp),%rax
    b14c:	8b 00                	mov    (%rax),%eax
    b14e:	89 d6                	mov    %edx,%esi
    b150:	89 c7                	mov    %eax,%edi
    b152:	e8 75 a5 ff ff       	callq  56cc <safe_mod_func_int32_t_s_s>
    b157:	98                   	cwtl   
    b158:	44 89 ee             	mov    %r13d,%esi
    b15b:	89 c7                	mov    %eax,%edi
    b15d:	e8 93 a2 ff ff       	callq  53f5 <safe_mul_func_int16_t_s_s>
    b162:	48 8d 05 ef d6 00 00 	lea    0xd6ef(%rip),%rax        # 18858 <g_734>
    b169:	48 39 85 28 e7 ff ff 	cmp    %rax,-0x18d8(%rbp)
    b170:	0f 94 c0             	sete   %al
    b173:	0f b6 c0             	movzbl %al,%eax
    b176:	44 89 e6             	mov    %r12d,%esi
    b179:	89 c7                	mov    %eax,%edi
    b17b:	e8 72 a0 ff ff       	callq  51f2 <safe_sub_func_int8_t_s_s>
    b180:	0f be c0             	movsbl %al,%eax
    b183:	be 07 00 00 00       	mov    $0x7,%esi
    b188:	89 c7                	mov    %eax,%edi
    b18a:	e8 dd a1 ff ff       	callq  536c <safe_rshift_func_int8_t_s_u>
    b18f:	66 0f be d0          	movsbw %al,%dx
    b193:	0f b7 05 96 bf 00 00 	movzwl 0xbf96(%rip),%eax        # 17130 <g_630>
    b19a:	66 39 c2             	cmp    %ax,%dx
    b19d:	0f 9c c0             	setl   %al
    b1a0:	44 0f b6 e0          	movzbl %al,%r12d
    b1a4:	48 8b 05 65 ca 00 00 	mov    0xca65(%rip),%rax        # 17c10 <g_181>
    b1ab:	48 c7 00 00 00 00 00 	movq   $0x0,(%rax)
    b1b2:	48 8b 95 98 e5 ff ff 	mov    -0x1a68(%rbp),%rdx
    b1b9:	48 8b 85 90 e7 ff ff 	mov    -0x1870(%rbp),%rax
    b1c0:	48 89 10             	mov    %rdx,(%rax)
    b1c3:	48 8b 85 90 e7 ff ff 	mov    -0x1870(%rbp),%rax
    b1ca:	48 8b 00             	mov    (%rax),%rax
    b1cd:	48 85 c0             	test   %rax,%rax
    b1d0:	0f 95 c0             	setne  %al
    b1d3:	44 0f b6 e8          	movzbl %al,%r13d
    b1d7:	48 8b 85 10 e7 ff ff 	mov    -0x18f0(%rbp),%rax
    b1de:	48 8b 00             	mov    (%rax),%rax
    b1e1:	0f b6 10             	movzbl (%rax),%edx
    b1e4:	83 c2 01             	add    $0x1,%edx
    b1e7:	88 10                	mov    %dl,(%rax)
    b1e9:	44 0f b6 30          	movzbl (%rax),%r14d
    b1ed:	bf fa 00 00 00       	mov    $0xfa,%edi
    b1f2:	e8 a6 a1 ff ff       	callq  539d <safe_unary_minus_func_int16_t_s>
    b1f7:	98                   	cwtl   
    b1f8:	89 c6                	mov    %eax,%esi
    b1fa:	bf 01 00 00 00       	mov    $0x1,%edi
    b1ff:	e8 01 aa ff ff       	callq  5c05 <safe_lshift_func_uint8_t_u_s>
    b204:	44 31 f0             	xor    %r14d,%eax
    b207:	0f b6 d0             	movzbl %al,%edx
    b20a:	48 8b 85 f0 e5 ff ff 	mov    -0x1a10(%rbp),%rax
    b211:	89 10                	mov    %edx,(%rax)
    b213:	48 8b 85 f0 e5 ff ff 	mov    -0x1a10(%rbp),%rax
    b21a:	8b 00                	mov    (%rax),%eax
    b21c:	41 39 c5             	cmp    %eax,%r13d
    b21f:	0f 9c c0             	setl   %al
    b222:	0f b6 c0             	movzbl %al,%eax
    b225:	4c 89 e6             	mov    %r12,%rsi
    b228:	48 89 c7             	mov    %rax,%rdi
    b22b:	e8 11 a6 ff ff       	callq  5841 <safe_add_func_int64_t_s_s>
    b230:	48 8b 05 31 da 00 00 	mov    0xda31(%rip),%rax        # 18c68 <g_2022>
    b237:	0f b7 00             	movzwl (%rax),%eax
    b23a:	98                   	cwtl   
    b23b:	89 de                	mov    %ebx,%esi
    b23d:	89 c7                	mov    %eax,%edi
    b23f:	e8 b1 a1 ff ff       	callq  53f5 <safe_mul_func_int16_t_s_s>
    b244:	89 c2                	mov    %eax,%edx
    b246:	48 8b 05 a3 c9 00 00 	mov    0xc9a3(%rip),%rax        # 17bf0 <g_183>
    b24d:	48 8b 00             	mov    (%rax),%rax
    b250:	0f bf d2             	movswl %dx,%edx
    b253:	89 10                	mov    %edx,(%rax)
    b255:	0f b6 05 44 bf 00 00 	movzbl 0xbf44(%rip),%eax        # 171a0 <g_1483>
    b25c:	83 e0 0f             	and    $0xf,%eax
    b25f:	0f b6 d8             	movzbl %al,%ebx
    b262:	44 8b a5 0c e5 ff ff 	mov    -0x1af4(%rbp),%r12d
    b269:	0f b7 85 68 e4 ff ff 	movzwl -0x1b98(%rbp),%eax
    b270:	89 c6                	mov    %eax,%esi
    b272:	bf 04 00 00 00       	mov    $0x4,%edi
    b277:	e8 83 a4 ff ff       	callq  56ff <safe_div_func_int32_t_s_s>
    b27c:	89 c2                	mov    %eax,%edx
    b27e:	48 8b 85 48 e5 ff ff 	mov    -0x1ab8(%rbp),%rax
    b285:	48 63 d2             	movslq %edx,%rdx
    b288:	48 89 10             	mov    %rdx,(%rax)
    b28b:	48 8b 10             	mov    (%rax),%rdx
    b28e:	48 8b 85 20 e7 ff ff 	mov    -0x18e0(%rbp),%rax
    b295:	48 89 10             	mov    %rdx,(%rax)
    b298:	48 8b 85 20 e7 ff ff 	mov    -0x18e0(%rbp),%rax
    b29f:	48 8b 00             	mov    (%rax),%rax
    b2a2:	0f b6 55 c6          	movzbl -0x3a(%rbp),%edx
    b2a6:	0f b6 d2             	movzbl %dl,%edx
    b2a9:	66 89 15 e2 bd 00 00 	mov    %dx,0xbde2(%rip)        # 17092 <g_327>
    b2b0:	0f b7 15 db bd 00 00 	movzwl 0xbddb(%rip),%edx        # 17092 <g_327>
    b2b7:	0f b7 d2             	movzwl %dx,%edx
    b2ba:	81 e2 1b a4 00 00    	and    $0xa41b,%edx
    b2c0:	48 21 85 38 e4 ff ff 	and    %rax,-0x1bc8(%rbp)
    b2c7:	48 39 95 38 e4 ff ff 	cmp    %rdx,-0x1bc8(%rbp)
    b2ce:	0f 97 c0             	seta   %al
    b2d1:	0f b6 c0             	movzbl %al,%eax
    b2d4:	be 06 00 00 00       	mov    $0x6,%esi
    b2d9:	89 c7                	mov    %eax,%edi
    b2db:	e8 12 9f ff ff       	callq  51f2 <safe_sub_func_int8_t_s_s>
    b2e0:	0f be c0             	movsbl %al,%eax
    b2e3:	89 c6                	mov    %eax,%esi
    b2e5:	bf 00 00 00 00       	mov    $0x0,%edi
    b2ea:	e8 c4 a0 ff ff       	callq  53b3 <safe_add_func_int16_t_s_s>
    b2ef:	0f be c0             	movsbl %al,%eax
    b2f2:	be 00 00 00 00       	mov    $0x0,%esi
    b2f7:	89 c7                	mov    %eax,%edi
    b2f9:	e8 37 a0 ff ff       	callq  5335 <safe_rshift_func_int8_t_s_s>
    b2fe:	0f be c0             	movsbl %al,%eax
    b301:	44 89 e6             	mov    %r12d,%esi
    b304:	89 c7                	mov    %eax,%edi
    b306:	e8 58 a2 ff ff       	callq  5563 <safe_rshift_func_int16_t_s_u>
    b30b:	0f b7 95 68 e4 ff ff 	movzwl -0x1b98(%rbp),%edx
    b312:	48 8b 85 f0 e5 ff ff 	mov    -0x1a10(%rbp),%rax
    b319:	8b 00                	mov    (%rax),%eax
    b31b:	0f b7 c0             	movzwl %ax,%eax
    b31e:	89 d6                	mov    %edx,%esi
    b320:	89 c7                	mov    %eax,%edi
    b322:	e8 f8 a9 ff ff       	callq  5d1f <safe_sub_func_uint16_t_u_u>
    b327:	48 8b 95 e0 e5 ff ff 	mov    -0x1a20(%rbp),%rdx
    b32e:	48 8b 12             	mov    (%rdx),%rdx
    b331:	48 8b 0a             	mov    (%rdx),%rcx
    b334:	0f b7 d0             	movzwl %ax,%edx
    b337:	48 8b 85 e0 e5 ff ff 	mov    -0x1a20(%rbp),%rax
    b33e:	48 8b 00             	mov    (%rax),%rax
    b341:	48 21 ca             	and    %rcx,%rdx
    b344:	48 89 10             	mov    %rdx,(%rax)
    b347:	48 8b 00             	mov    (%rax),%rax
    b34a:	48 39 85 48 e4 ff ff 	cmp    %rax,-0x1bb8(%rbp)
    b351:	0f 93 c0             	setae  %al
    b354:	89 c2                	mov    %eax,%edx
    b356:	8b 85 40 e4 ff ff    	mov    -0x1bc0(%rbp),%eax
    b35c:	09 d0                	or     %edx,%eax
    b35e:	0f b6 d0             	movzbl %al,%edx
    b361:	48 8b 05 18 d9 00 00 	mov    0xd918(%rip),%rax        # 18c80 <g_2068>
    b368:	48 8b 08             	mov    (%rax),%rcx
    b36b:	48 8b 05 06 d9 00 00 	mov    0xd906(%rip),%rax        # 18c78 <g_2069>
    b372:	48 8b 09             	mov    (%rcx),%rcx
    b375:	48 89 08             	mov    %rcx,(%rax)
    b378:	48 8b 00             	mov    (%rax),%rax
    b37b:	48 39 85 88 e7 ff ff 	cmp    %rax,-0x1878(%rbp)
    b382:	0f 94 c0             	sete   %al
    b385:	0f b6 c0             	movzbl %al,%eax
    b388:	89 d6                	mov    %edx,%esi
    b38a:	89 c7                	mov    %eax,%edi
    b38c:	e8 02 a8 ff ff       	callq  5b93 <safe_mul_func_uint8_t_u_u>
    b391:	0f b6 d0             	movzbl %al,%edx
    b394:	48 8b 05 b5 d8 00 00 	mov    0xd8b5(%rip),%rax        # 18c50 <g_1839>
    b39b:	48 8b 00             	mov    (%rax),%rax
    b39e:	48 39 c2             	cmp    %rax,%rdx
    b3a1:	0f 93 c0             	setae  %al
    b3a4:	0f b6 c0             	movzbl %al,%eax
    b3a7:	89 de                	mov    %ebx,%esi
    b3a9:	89 c7                	mov    %eax,%edi
    b3ab:	e8 aa a7 ff ff       	callq  5b5a <safe_add_func_uint8_t_u_u>
    b3b0:	84 c0                	test   %al,%al
    b3b2:	0f 94 c0             	sete   %al
    b3b5:	0f b6 d0             	movzbl %al,%edx
    b3b8:	48 8b 85 f0 e6 ff ff 	mov    -0x1910(%rbp),%rax
    b3bf:	8b 00                	mov    (%rax),%eax
    b3c1:	09 c2                	or     %eax,%edx
    b3c3:	48 8b 85 f0 e6 ff ff 	mov    -0x1910(%rbp),%rax
    b3ca:	89 10                	mov    %edx,(%rax)
    b3cc:	0f b6 05 56 bc 00 00 	movzbl 0xbc56(%rip),%eax        # 17029 <g_32>
    b3d3:	0f b6 c0             	movzbl %al,%eax
    b3d6:	be 01 00 00 00       	mov    $0x1,%esi
    b3db:	89 c7                	mov    %eax,%edi
    b3dd:	e8 1d a9 ff ff       	callq  5cff <safe_add_func_uint16_t_u_u>
    b3e2:	88 05 41 bc 00 00    	mov    %al,0xbc41(%rip)        # 17029 <g_32>
    b3e8:	eb 3f                	jmp    b429 <func_11+0x4476>
    b3ea:	48 8b 05 af c7 00 00 	mov    0xc7af(%rip),%rax        # 17ba0 <g_130>
    b3f1:	8b 00                	mov    (%rax),%eax
    b3f3:	3d 34 16 10 1f       	cmp    $0x1f101634,%eax
    b3f8:	77 07                	ja     b401 <func_11+0x444e>
    b3fa:	b8 75 7f f5 a2       	mov    $0xa2f57f75,%eax
    b3ff:	eb 05                	jmp    b406 <func_11+0x4453>
    b401:	b8 74 7f f5 a2       	mov    $0xa2f57f74,%eax
    b406:	48 8b 95 f0 e5 ff ff 	mov    -0x1a10(%rbp),%rdx
    b40d:	8b 12                	mov    (%rdx),%edx
    b40f:	21 c2                	and    %eax,%edx
    b411:	48 8b 85 f0 e5 ff ff 	mov    -0x1a10(%rbp),%rax
    b418:	89 10                	mov    %edx,(%rax)
    b41a:	48 8b 05 27 d4 00 00 	mov    0xd427(%rip),%rax        # 18848 <g_736>
    b421:	0f b6 00             	movzbl (%rax),%eax
    b424:	e9 81 11 00 00       	jmpq   c5aa <func_11+0x55f7>
    b429:	0f b6 05 f9 bb 00 00 	movzbl 0xbbf9(%rip),%eax        # 17029 <g_32>
    b430:	3c 33                	cmp    $0x33,%al
    b432:	0f 85 fb fb ff ff    	jne    b033 <func_11+0x4080>
    b438:	48 c7 85 38 e4 ff ff 	movq   $0x0,-0x1bc8(%rbp)
    b43f:	00 00 00 00 
    b443:	eb 2d                	jmp    b472 <func_11+0x44bf>
    b445:	48 83 bd 38 e4 ff ff 	cmpq   $0x0,-0x1bc8(%rbp)
    b44c:	00 
    b44d:	0f 85 07 01 00 00    	jne    b55a <func_11+0x45a7>
    b453:	48 8b 85 38 e4 ff ff 	mov    -0x1bc8(%rbp),%rax
    b45a:	98                   	cwtl   
    b45b:	be 06 00 00 00       	mov    $0x6,%esi
    b460:	89 c7                	mov    %eax,%edi
    b462:	e8 4c 9f ff ff       	callq  53b3 <safe_add_func_int16_t_s_s>
    b467:	48 0f bf c0          	movswq %ax,%rax
    b46b:	48 89 85 38 e4 ff ff 	mov    %rax,-0x1bc8(%rbp)
    b472:	48 83 bd 38 e4 ff ff 	cmpq   $0x33,-0x1bc8(%rbp)
    b479:	33 
    b47a:	76 c9                	jbe    b445 <func_11+0x4492>
    b47c:	e9 da 00 00 00       	jmpq   b55b <func_11+0x45a8>
    b481:	48 83 bd 38 e4 ff ff 	cmpq   $0x0,-0x1bc8(%rbp)
    b488:	00 
    b489:	0f 84 ad 00 00 00    	je     b53c <func_11+0x4589>
    b48f:	8b 9d 40 e4 ff ff    	mov    -0x1bc0(%rbp),%ebx
    b495:	44 8b 25 98 89 00 00 	mov    0x8998(%rip),%r12d        # 13e34 <l_2213.4506+0x14>
    b49c:	b8 16 3b 43 e8       	mov    $0xe8433b16,%eax
    b4a1:	41 89 c6             	mov    %eax,%r14d
    b4a4:	48 8b 05 2d bc 00 00 	mov    0xbc2d(%rip),%rax        # 170d8 <g_459+0x8>
    b4ab:	41 89 c5             	mov    %eax,%r13d
    b4ae:	be 05 00 00 00       	mov    $0x5,%esi
    b4b3:	bf 81 ff ff ff       	mov    $0xffffff81,%edi
    b4b8:	e8 ad 9d ff ff       	callq  526a <safe_div_func_int8_t_s_s>
    b4bd:	48 83 bd 48 e4 ff ff 	cmpq   $0x0,-0x1bb8(%rbp)
    b4c4:	00 
    b4c5:	0f 94 c0             	sete   %al
    b4c8:	0f b6 d0             	movzbl %al,%edx
    b4cb:	48 8b 05 0e d6 00 00 	mov    0xd60e(%rip),%rax        # 18ae0 <g_1167>
    b4d2:	48 8b 00             	mov    (%rax),%rax
    b4d5:	48 8b 00             	mov    (%rax),%rax
    b4d8:	48 39 c2             	cmp    %rax,%rdx
    b4db:	0f 9d c0             	setge  %al
    b4de:	0f b6 c0             	movzbl %al,%eax
    b4e1:	44 89 ee             	mov    %r13d,%esi
    b4e4:	89 c7                	mov    %eax,%edi
    b4e6:	e8 cb a0 ff ff       	callq  55b6 <safe_add_func_int32_t_s_s>
    b4eb:	48 98                	cltq   
    b4ed:	48 39 85 48 e4 ff ff 	cmp    %rax,-0x1bb8(%rbp)
    b4f4:	0f 94 c0             	sete   %al
    b4f7:	0f b6 c0             	movzbl %al,%eax
    b4fa:	be 07 00 00 00       	mov    $0x7,%esi
    b4ff:	89 c7                	mov    %eax,%edi
    b501:	e8 b8 a8 ff ff       	callq  5dbe <safe_lshift_func_uint16_t_u_s>
    b506:	0f b7 c0             	movzwl %ax,%eax
    b509:	25 24 67 a4 d4       	and    $0xd4a46724,%eax
    b50e:	49 39 c6             	cmp    %rax,%r14
    b511:	0f 9f c0             	setg   %al
    b514:	0f b6 c0             	movzbl %al,%eax
    b517:	44 89 e6             	mov    %r12d,%esi
    b51a:	89 c7                	mov    %eax,%edi
    b51c:	e8 9d a7 ff ff       	callq  5cbe <safe_rshift_func_uint8_t_u_u>
    b521:	0f b6 c0             	movzbl %al,%eax
    b524:	83 e0 01             	and    $0x1,%eax
    b527:	89 de                	mov    %ebx,%esi
    b529:	89 c7                	mov    %eax,%edi
    b52b:	e8 62 9f ff ff       	callq  5492 <safe_lshift_func_int16_t_s_s>
    b530:	66 85 c0             	test   %ax,%ax
    b533:	74 07                	je     b53c <func_11+0x4589>
    b535:	b8 01 00 00 00       	mov    $0x1,%eax
    b53a:	eb 05                	jmp    b541 <func_11+0x458e>
    b53c:	b8 00 00 00 00       	mov    $0x0,%eax
    b541:	48 98                	cltq   
    b543:	48 39 85 48 e4 ff ff 	cmp    %rax,-0x1bb8(%rbp)
    b54a:	ba 01 00 00 00       	mov    $0x1,%edx
    b54f:	48 8b 85 f0 e5 ff ff 	mov    -0x1a10(%rbp),%rax
    b556:	89 10                	mov    %edx,(%rax)
    b558:	eb 01                	jmp    b55b <func_11+0x45a8>
    b55a:	90                   	nop
    b55b:	48 8b 05 ee d6 00 00 	mov    0xd6ee(%rip),%rax        # 18c50 <g_1839>
    b562:	48 8b 00             	mov    (%rax),%rax
    b565:	48 85 c0             	test   %rax,%rax
    b568:	0f 85 39 01 00 00    	jne    b6a7 <func_11+0x46f4>
    b56e:	48 8b 85 f0 e6 ff ff 	mov    -0x1910(%rbp),%rax
    b575:	8b 00                	mov    (%rax),%eax
    b577:	0f b6 d8             	movzbl %al,%ebx
    b57a:	44 8b a5 40 e4 ff ff 	mov    -0x1bc0(%rbp),%r12d
    b581:	0f b7 85 62 e4 ff ff 	movzwl -0x1b9e(%rbp),%eax
    b588:	44 0f b6 e8          	movzbl %al,%r13d
    b58c:	0f b6 05 c9 bb 00 00 	movzbl 0xbbc9(%rip),%eax        # 1715c <g_932>
    b593:	83 e0 0f             	and    $0xf,%eax
    b596:	0f b6 d0             	movzbl %al,%edx
    b599:	0f b6 85 44 e4 ff ff 	movzbl -0x1bbc(%rbp),%eax
    b5a0:	0f b6 c0             	movzbl %al,%eax
    b5a3:	09 c2                	or     %eax,%edx
    b5a5:	48 8b 85 f0 e5 ff ff 	mov    -0x1a10(%rbp),%rax
    b5ac:	89 10                	mov    %edx,(%rax)
    b5ae:	48 8b 85 f0 e5 ff ff 	mov    -0x1a10(%rbp),%rax
    b5b5:	8b 00                	mov    (%rax),%eax
    b5b7:	48 98                	cltq   
    b5b9:	25 b4 db 00 00       	and    $0xdbb4,%eax
    b5be:	48 83 f8 65          	cmp    $0x65,%rax
    b5c2:	0f 9e c0             	setle  %al
    b5c5:	0f b6 c0             	movzbl %al,%eax
    b5c8:	be 06 00 00 00       	mov    $0x6,%esi
    b5cd:	89 c7                	mov    %eax,%edi
    b5cf:	e8 ea a6 ff ff       	callq  5cbe <safe_rshift_func_uint8_t_u_u>
    b5d4:	48 c7 05 a9 d6 00 00 	movq   $0x0,0xd6a9(%rip)        # 18c88 <g_2237>
    b5db:	00 00 00 00 
    b5df:	48 8b 85 60 e5 ff ff 	mov    -0x1aa0(%rbp),%rax
    b5e6:	48 8b 95 48 e4 ff ff 	mov    -0x1bb8(%rbp),%rdx
    b5ed:	88 10                	mov    %dl,(%rax)
    b5ef:	0f b6 00             	movzbl (%rax),%eax
    b5f2:	0f b6 c0             	movzbl %al,%eax
    b5f5:	be 04 00 00 00       	mov    $0x4,%esi
    b5fa:	89 c7                	mov    %eax,%edi
    b5fc:	e8 04 a6 ff ff       	callq  5c05 <safe_lshift_func_uint8_t_u_s>
    b601:	0f b6 d0             	movzbl %al,%edx
    b604:	48 8b 85 f0 e6 ff ff 	mov    -0x1910(%rbp),%rax
    b60b:	8b 00                	mov    (%rax),%eax
    b60d:	39 c2                	cmp    %eax,%edx
    b60f:	0f 9e c0             	setle  %al
    b612:	0f b6 c0             	movzbl %al,%eax
    b615:	44 89 ee             	mov    %r13d,%esi
    b618:	89 c7                	mov    %eax,%edi
    b61a:	e8 8f a5 ff ff       	callq  5bae <safe_mod_func_uint8_t_u_u>
    b61f:	48 b8 5b cc bb 9c 23 	movabs $0x2e6e6239cbbcc5b,%rax
    b626:	e6 e6 02 
    b629:	48 39 85 38 e4 ff ff 	cmp    %rax,-0x1bc8(%rbp)
    b630:	0f 94 c0             	sete   %al
    b633:	0f b6 c0             	movzbl %al,%eax
    b636:	be 02 00 00 00       	mov    $0x2,%esi
    b63b:	89 c7                	mov    %eax,%edi
    b63d:	e8 2a 9d ff ff       	callq  536c <safe_rshift_func_int8_t_s_u>
    b642:	3c 01                	cmp    $0x1,%al
    b644:	0f 9f c0             	setg   %al
    b647:	0f b6 c0             	movzbl %al,%eax
    b64a:	39 85 40 e4 ff ff    	cmp    %eax,-0x1bc0(%rbp)
    b650:	0f 97 c0             	seta   %al
    b653:	0f b6 c0             	movzbl %al,%eax
    b656:	39 85 40 e4 ff ff    	cmp    %eax,-0x1bc0(%rbp)
    b65c:	0f 93 c0             	setae  %al
    b65f:	0f b6 d0             	movzbl %al,%edx
    b662:	48 8b 85 48 e4 ff ff 	mov    -0x1bb8(%rbp),%rax
    b669:	48 89 d6             	mov    %rdx,%rsi
    b66c:	48 89 c7             	mov    %rax,%rdi
    b66f:	e8 88 a2 ff ff       	callq  58fc <safe_mul_func_int64_t_s_s>
    b674:	0f b7 c0             	movzwl %ax,%eax
    b677:	8b 95 dc e4 ff ff    	mov    -0x1b24(%rbp),%edx
    b67d:	89 d6                	mov    %edx,%esi
    b67f:	89 c7                	mov    %eax,%edi
    b681:	e8 80 a7 ff ff       	callq  5e06 <safe_lshift_func_uint16_t_u_u>
    b686:	98                   	cwtl   
    b687:	44 89 e6             	mov    %r12d,%esi
    b68a:	89 c7                	mov    %eax,%edi
    b68c:	e8 99 9e ff ff       	callq  552a <safe_rshift_func_int16_t_s_s>
    b691:	0f b6 c0             	movzbl %al,%eax
    b694:	89 de                	mov    %ebx,%esi
    b696:	89 c7                	mov    %eax,%edi
    b698:	e8 f6 a4 ff ff       	callq  5b93 <safe_mul_func_uint8_t_u_u>
    b69d:	0f b6 c0             	movzbl %al,%eax
    b6a0:	48 39 85 38 e4 ff ff 	cmp    %rax,-0x1bc8(%rbp)
    b6a7:	48 8b 85 f0 e6 ff ff 	mov    -0x1910(%rbp),%rax
    b6ae:	c7 00 00 00 00 00    	movl   $0x0,(%rax)
    b6b4:	8b 85 40 e4 ff ff    	mov    -0x1bc0(%rbp),%eax
    b6ba:	e9 eb 0e 00 00       	jmpq   c5aa <func_11+0x55f7>
    b6bf:	c7 85 bc e4 ff ff 01 	movl   $0x1,-0x1b44(%rbp)
    b6c6:	00 00 00 
    b6c9:	48 8d 05 54 b9 00 00 	lea    0xb954(%rip),%rax        # 17024 <g_2>
    b6d0:	48 89 85 28 e6 ff ff 	mov    %rax,-0x19d8(%rbp)
    b6d7:	c7 85 b0 e5 ff ff 68 	movl   $0x7986f668,-0x1a50(%rbp)
    b6de:	f6 86 79 
    b6e1:	c7 85 e8 e4 ff ff 49 	movl   $0x85ba1549,-0x1b18(%rbp)
    b6e8:	15 ba 85 
    b6eb:	c7 85 b8 e5 ff ff 7a 	movl   $0x182c97a,-0x1a48(%rbp)
    b6f2:	c9 82 01 
    b6f5:	48 8d 05 a0 bb 00 00 	lea    0xbba0(%rip),%rax        # 1729c <g_1876+0x9c>
    b6fc:	48 89 85 c8 e5 ff ff 	mov    %rax,-0x1a38(%rbp)
    b703:	48 8d 85 c8 e5 ff ff 	lea    -0x1a38(%rbp),%rax
    b70a:	48 89 85 30 e6 ff ff 	mov    %rax,-0x19d0(%rbp)
    b711:	48 8d 85 70 e5 ff ff 	lea    -0x1a90(%rbp),%rax
    b718:	48 89 85 00 f9 ff ff 	mov    %rax,-0x700(%rbp)
    b71f:	48 8d 85 70 e5 ff ff 	lea    -0x1a90(%rbp),%rax
    b726:	48 89 85 08 f9 ff ff 	mov    %rax,-0x6f8(%rbp)
    b72d:	48 8d 85 70 e5 ff ff 	lea    -0x1a90(%rbp),%rax
    b734:	48 89 85 10 f9 ff ff 	mov    %rax,-0x6f0(%rbp)
    b73b:	48 8d 85 70 e5 ff ff 	lea    -0x1a90(%rbp),%rax
    b742:	48 89 85 18 f9 ff ff 	mov    %rax,-0x6e8(%rbp)
    b749:	48 8d 85 70 e5 ff ff 	lea    -0x1a90(%rbp),%rax
    b750:	48 89 85 20 f9 ff ff 	mov    %rax,-0x6e0(%rbp)
    b757:	48 8d 85 70 e5 ff ff 	lea    -0x1a90(%rbp),%rax
    b75e:	48 89 85 28 f9 ff ff 	mov    %rax,-0x6d8(%rbp)
    b765:	48 8d 85 70 e5 ff ff 	lea    -0x1a90(%rbp),%rax
    b76c:	48 89 85 30 f9 ff ff 	mov    %rax,-0x6d0(%rbp)
    b773:	66 c7 85 00 ee ff ff 	movw   $0xffff,-0x1200(%rbp)
    b77a:	ff ff 
    b77c:	66 c7 85 02 ee ff ff 	movw   $0xffff,-0x11fe(%rbp)
    b783:	ff ff 
    b785:	66 c7 85 04 ee ff ff 	movw   $0xffff,-0x11fc(%rbp)
    b78c:	ff ff 
    b78e:	66 c7 85 06 ee ff ff 	movw   $0xffff,-0x11fa(%rbp)
    b795:	ff ff 
    b797:	66 c7 85 08 ee ff ff 	movw   $0xffff,-0x11f8(%rbp)
    b79e:	ff ff 
    b7a0:	c7 85 ec e4 ff ff ec 	movl   $0x760863ec,-0x1b14(%rbp)
    b7a7:	63 08 76 
    b7aa:	66 c7 85 5c e4 ff ff 	movw   $0x59a9,-0x1ba4(%rbp)
    b7b1:	a9 59 
    b7b3:	48 8d 85 40 e5 ff ff 	lea    -0x1ac0(%rbp),%rax
    b7ba:	48 89 85 d0 e5 ff ff 	mov    %rax,-0x1a30(%rbp)
    b7c1:	48 8d 85 d0 e5 ff ff 	lea    -0x1a30(%rbp),%rax
    b7c8:	48 89 85 38 e6 ff ff 	mov    %rax,-0x19c8(%rbp)
    b7cf:	48 8d 05 7a d9 00 00 	lea    0xd97a(%rip),%rax        # 19150 <g_188>
    b7d6:	48 89 85 40 e6 ff ff 	mov    %rax,-0x19c0(%rbp)
    b7dd:	c7 05 51 b9 00 00 09 	movl   $0x9,0xb951(%rip)        # 17138 <g_648>
    b7e4:	00 00 00 
    b7e7:	e9 67 08 00 00       	jmpq   c053 <func_11+0x50a0>
    b7ec:	c7 85 c0 e4 ff ff fd 	movl   $0xfffffffd,-0x1b40(%rbp)
    b7f3:	ff ff ff 
    b7f6:	c7 85 f4 e4 ff ff fd 	movl   $0xfffffffd,-0x1b0c(%rbp)
    b7fd:	ff ff ff 
    b800:	83 85 bc e4 ff ff 01 	addl   $0x1,-0x1b44(%rbp)
    b807:	48 8b 85 28 e6 ff ff 	mov    -0x19d8(%rbp),%rax
    b80e:	48 89 85 f0 e8 ff ff 	mov    %rax,-0x1710(%rbp)
    b815:	66 c7 05 1e b8 00 00 	movw   $0x8,0xb81e(%rip)        # 1703c <g_95>
    b81c:	08 00 
    b81e:	e9 10 08 00 00       	jmpq   c033 <func_11+0x5080>
    b823:	48 8d 05 4e d4 00 00 	lea    0xd44e(%rip),%rax        # 18c78 <g_2069>
    b82a:	48 89 85 90 e6 ff ff 	mov    %rax,-0x1970(%rbp)
    b831:	c7 85 f8 e4 ff ff 09 	movl   $0x7d1e3e09,-0x1b08(%rbp)
    b838:	3e 1e 7d 
    b83b:	c7 85 fc e4 ff ff 8f 	movl   $0xb1b4808f,-0x1b04(%rbp)
    b842:	80 b4 b1 
    b845:	c7 85 c0 e5 ff ff 9d 	movl   $0xeb6ecb9d,-0x1a40(%rbp)
    b84c:	cb 6e eb 
    b84f:	66 c7 05 f0 b7 00 00 	movw   $0x0,0xb7f0(%rip)        # 17048 <g_166>
    b856:	00 00 
    b858:	e9 aa 07 00 00       	jmpq   c007 <func_11+0x5054>
    b85d:	48 c7 85 98 e6 ff ff 	movq   $0x0,-0x1968(%rbp)
    b864:	00 00 00 00 
    b868:	48 c7 85 a0 e6 ff ff 	movq   $0x0,-0x1960(%rbp)
    b86f:	00 00 00 00 
    b873:	c7 85 c4 e4 ff ff 00 	movl   $0x0,-0x1b3c(%rbp)
    b87a:	00 00 00 
    b87d:	eb 1b                	jmp    b89a <func_11+0x48e7>
    b87f:	8b 85 c4 e4 ff ff    	mov    -0x1b3c(%rbp),%eax
    b885:	48 98                	cltq   
    b887:	48 c7 84 c5 20 ef ff 	movq   $0x0,-0x10e0(%rbp,%rax,8)
    b88e:	ff 00 00 00 00 
    b893:	83 85 c4 e4 ff ff 01 	addl   $0x1,-0x1b3c(%rbp)
    b89a:	83 bd c4 e4 ff ff 01 	cmpl   $0x1,-0x1b3c(%rbp)
    b8a1:	7e dc                	jle    b87f <func_11+0x48cc>
    b8a3:	83 ad c0 e4 ff ff 01 	subl   $0x1,-0x1b40(%rbp)
    b8aa:	48 8b 85 48 e4 ff ff 	mov    -0x1bb8(%rbp),%rax
    b8b1:	0f bf d8             	movswl %ax,%ebx
    b8b4:	8b 85 c0 e4 ff ff    	mov    -0x1b40(%rbp),%eax
    b8ba:	0f b6 c0             	movzbl %al,%eax
    b8bd:	8b 95 f8 e4 ff ff    	mov    -0x1b08(%rbp),%edx
    b8c3:	89 d6                	mov    %edx,%esi
    b8c5:	89 c7                	mov    %eax,%edi
    b8c7:	e8 c1 a3 ff ff       	callq  5c8d <safe_rshift_func_uint8_t_u_s>
    b8cc:	48 8b 85 28 e6 ff ff 	mov    -0x19d8(%rbp),%rax
    b8d3:	8b 00                	mov    (%rax),%eax
    b8d5:	98                   	cwtl   
    b8d6:	89 de                	mov    %ebx,%esi
    b8d8:	89 c7                	mov    %eax,%edi
    b8da:	e8 d4 9a ff ff       	callq  53b3 <safe_add_func_int16_t_s_s>
    b8df:	be ad 21 00 00       	mov    $0x21ad,%esi
    b8e4:	bf 00 00 00 00       	mov    $0x0,%edi
    b8e9:	e8 e5 9a ff ff       	callq  53d3 <safe_sub_func_int16_t_s_s>
    b8ee:	0f b7 c0             	movzwl %ax,%eax
    b8f1:	be f9 ff 00 00       	mov    $0xfff9,%esi
    b8f6:	89 c7                	mov    %eax,%edi
    b8f8:	e8 22 a4 ff ff       	callq  5d1f <safe_sub_func_uint16_t_u_u>
    b8fd:	66 85 c0             	test   %ax,%ax
    b900:	0f 95 c0             	setne  %al
    b903:	0f b6 c0             	movzbl %al,%eax
    b906:	48 63 d0             	movslq %eax,%rdx
    b909:	48 8b 05 48 d3 00 00 	mov    0xd348(%rip),%rax        # 18c58 <g_1838>
    b910:	48 8b 00             	mov    (%rax),%rax
    b913:	48 8b 00             	mov    (%rax),%rax
    b916:	48 39 c2             	cmp    %rax,%rdx
    b919:	0f 96 c0             	setbe  %al
    b91c:	0f b6 c0             	movzbl %al,%eax
    b91f:	23 85 c0 e4 ff ff    	and    -0x1b40(%rbp),%eax
    b925:	be f0 88 a7 9e       	mov    $0x9ea788f0,%esi
    b92a:	89 c7                	mov    %eax,%edi
    b92c:	e8 87 a5 ff ff       	callq  5eb8 <safe_add_func_uint32_t_u_u>
    b931:	85 c0                	test   %eax,%eax
    b933:	75 12                	jne    b947 <func_11+0x4994>
    b935:	48 8b 05 34 d3 00 00 	mov    0xd334(%rip),%rax        # 18c70 <g_2021>
    b93c:	48 8b 00             	mov    (%rax),%rax
    b93f:	0f b7 00             	movzwl (%rax),%eax
    b942:	66 85 c0             	test   %ax,%ax
    b945:	74 07                	je     b94e <func_11+0x499b>
    b947:	b8 01 00 00 00       	mov    $0x1,%eax
    b94c:	eb 05                	jmp    b953 <func_11+0x49a0>
    b94e:	b8 00 00 00 00       	mov    $0x0,%eax
    b953:	0f b7 c0             	movzwl %ax,%eax
    b956:	be 1e 7e 00 00       	mov    $0x7e1e,%esi
    b95b:	89 c7                	mov    %eax,%edi
    b95d:	e8 db a3 ff ff       	callq  5d3d <safe_mul_func_uint16_t_u_u>
    b962:	66 85 c0             	test   %ax,%ax
    b965:	74 12                	je     b979 <func_11+0x49c6>
    b967:	48 8b 05 e2 ce 00 00 	mov    0xcee2(%rip),%rax        # 18850 <g_735>
    b96e:	48 8b 00             	mov    (%rax),%rax
    b971:	0f b6 00             	movzbl (%rax),%eax
    b974:	e9 31 0c 00 00       	jmpq   c5aa <func_11+0x55f7>
    b979:	c7 85 c8 e4 ff ff 00 	movl   $0x0,-0x1b38(%rbp)
    b980:	00 00 00 
    b983:	eb 79                	jmp    b9fe <func_11+0x4a4b>
    b985:	c7 85 cc e4 ff ff 00 	movl   $0x0,-0x1b34(%rbp)
    b98c:	00 00 00 
    b98f:	eb 5d                	jmp    b9ee <func_11+0x4a3b>
    b991:	c7 85 d0 e4 ff ff 00 	movl   $0x0,-0x1b30(%rbp)
    b998:	00 00 00 
    b99b:	eb 41                	jmp    b9de <func_11+0x4a2b>
    b99d:	8b 85 d0 e4 ff ff    	mov    -0x1b30(%rbp),%eax
    b9a3:	48 63 f0             	movslq %eax,%rsi
    b9a6:	8b 85 cc e4 ff ff    	mov    -0x1b34(%rbp),%eax
    b9ac:	48 63 c8             	movslq %eax,%rcx
    b9af:	8b 85 c8 e4 ff ff    	mov    -0x1b38(%rbp),%eax
    b9b5:	48 63 d0             	movslq %eax,%rdx
    b9b8:	48 89 d0             	mov    %rdx,%rax
    b9bb:	48 01 c0             	add    %rax,%rax
    b9be:	48 01 d0             	add    %rdx,%rax
    b9c1:	48 01 f0             	add    %rsi,%rax
    b9c4:	48 8d 14 08          	lea    (%rax,%rcx,1),%rdx
    b9c8:	48 8d 85 74 e4 ff ff 	lea    -0x1b8c(%rbp),%rax
    b9cf:	48 89 84 d5 60 f3 ff 	mov    %rax,-0xca0(%rbp,%rdx,8)
    b9d6:	ff 
    b9d7:	83 85 d0 e4 ff ff 01 	addl   $0x1,-0x1b30(%rbp)
    b9de:	83 bd d0 e4 ff ff 00 	cmpl   $0x0,-0x1b30(%rbp)
    b9e5:	7e b6                	jle    b99d <func_11+0x49ea>
    b9e7:	83 85 cc e4 ff ff 01 	addl   $0x1,-0x1b34(%rbp)
    b9ee:	83 bd cc e4 ff ff 02 	cmpl   $0x2,-0x1b34(%rbp)
    b9f5:	7e 9a                	jle    b991 <func_11+0x49de>
    b9f7:	83 85 c8 e4 ff ff 01 	addl   $0x1,-0x1b38(%rbp)
    b9fe:	83 bd c8 e4 ff ff 00 	cmpl   $0x0,-0x1b38(%rbp)
    ba05:	0f 8e 7a ff ff ff    	jle    b985 <func_11+0x49d2>
    ba0b:	48 8b 85 48 e4 ff ff 	mov    -0x1bb8(%rbp),%rax
    ba12:	44 0f bf e8          	movswl %ax,%r13d
    ba16:	48 8b 85 48 e4 ff ff 	mov    -0x1bb8(%rbp),%rax
    ba1d:	41 89 c6             	mov    %eax,%r14d
    ba20:	4c 8b a5 60 f3 ff ff 	mov    -0xca0(%rbp),%r12
    ba27:	48 8b 85 28 e6 ff ff 	mov    -0x19d8(%rbp),%rax
    ba2e:	8b 00                	mov    (%rax),%eax
    ba30:	89 c3                	mov    %eax,%ebx
    ba32:	48 8b 85 10 e6 ff ff 	mov    -0x19f0(%rbp),%rax
    ba39:	48 8b 00             	mov    (%rax),%rax
    ba3c:	48 8b 00             	mov    (%rax),%rax
    ba3f:	48 8b 00             	mov    (%rax),%rax
    ba42:	48 8b 00             	mov    (%rax),%rax
    ba45:	0f b6 10             	movzbl (%rax),%edx
    ba48:	8d 4a ff             	lea    -0x1(%rdx),%ecx
    ba4b:	88 08                	mov    %cl,(%rax)
    ba4d:	0f b6 c2             	movzbl %dl,%eax
    ba50:	be 04 00 00 00       	mov    $0x4,%esi
    ba55:	89 c7                	mov    %eax,%edi
    ba57:	e8 62 a2 ff ff       	callq  5cbe <safe_rshift_func_uint8_t_u_u>
    ba5c:	0f b6 c0             	movzbl %al,%eax
    ba5f:	09 c3                	or     %eax,%ebx
    ba61:	0f b6 85 44 e4 ff ff 	movzbl -0x1bbc(%rbp),%eax
    ba68:	0f be d0             	movsbl %al,%edx
    ba6b:	48 8b 85 48 e4 ff ff 	mov    -0x1bb8(%rbp),%rax
    ba72:	0f be c0             	movsbl %al,%eax
    ba75:	89 d6                	mov    %edx,%esi
    ba77:	89 c7                	mov    %eax,%edi
    ba79:	e8 ec 97 ff ff       	callq  526a <safe_div_func_int8_t_s_s>
    ba7e:	0f be d0             	movsbl %al,%edx
    ba81:	0f b6 85 44 e4 ff ff 	movzbl -0x1bbc(%rbp),%eax
    ba88:	0f b6 c0             	movzbl %al,%eax
    ba8b:	48 39 85 48 e4 ff ff 	cmp    %rax,-0x1bb8(%rbp)
    ba92:	0f 95 c0             	setne  %al
    ba95:	0f b6 c0             	movzbl %al,%eax
    ba98:	39 c2                	cmp    %eax,%edx
    ba9a:	0f 9f c0             	setg   %al
    ba9d:	0f b6 c0             	movzbl %al,%eax
    baa0:	31 d8                	xor    %ebx,%eax
    baa2:	0f bf d0             	movswl %ax,%edx
    baa5:	48 8b b5 20 ef ff ff 	mov    -0x10e0(%rbp),%rsi
    baac:	48 8b 05 5d c1 00 00 	mov    0xc15d(%rip),%rax        # 17c10 <g_181>
    bab3:	48 8b 00             	mov    (%rax),%rax
    bab6:	48 8b 00             	mov    (%rax),%rax
    bab9:	48 8b 8d 20 ef ff ff 	mov    -0x10e0(%rbp),%rcx
    bac0:	48 89 08             	mov    %rcx,(%rax)
    bac3:	48 8b 00             	mov    (%rax),%rax
    bac6:	48 8b 1d 23 c1 00 00 	mov    0xc123(%rip),%rbx        # 17bf0 <g_183>
    bacd:	89 d1                	mov    %edx,%ecx
    bacf:	ba 01 00 00 00       	mov    $0x1,%edx
    bad4:	48 89 c7             	mov    %rax,%rdi
    bad7:	e8 e6 0f 00 00       	callq  cac2 <func_18>
    badc:	48 89 03             	mov    %rax,(%rbx)
    badf:	48 8b 03             	mov    (%rbx),%rax
    bae2:	48 8b 1d 07 c1 00 00 	mov    0xc107(%rip),%rbx        # 17bf0 <g_183>
    bae9:	44 89 e9             	mov    %r13d,%ecx
    baec:	44 89 f2             	mov    %r14d,%edx
    baef:	4c 89 e6             	mov    %r12,%rsi
    baf2:	48 89 c7             	mov    %rax,%rdi
    baf5:	e8 c8 0f 00 00       	callq  cac2 <func_18>
    bafa:	48 89 03             	mov    %rax,(%rbx)
    bafd:	83 bd 40 e4 ff ff 00 	cmpl   $0x0,-0x1bc0(%rbp)
    bb04:	0f 85 0e 05 00 00    	jne    c018 <func_11+0x5065>
    bb0a:	8b 9d fc e4 ff ff    	mov    -0x1b04(%rbp),%ebx
    bb10:	48 83 bd 48 e4 ff ff 	cmpq   $0x0,-0x1bb8(%rbp)
    bb17:	00 
    bb18:	75 0e                	jne    bb28 <func_11+0x4b75>
    bb1a:	0f b6 05 2f b6 00 00 	movzbl 0xb62f(%rip),%eax        # 17150 <g_834>
    bb21:	83 e0 0f             	and    $0xf,%eax
    bb24:	84 c0                	test   %al,%al
    bb26:	74 07                	je     bb2f <func_11+0x4b7c>
    bb28:	ba 01 00 00 00       	mov    $0x1,%edx
    bb2d:	eb 05                	jmp    bb34 <func_11+0x4b81>
    bb2f:	ba 00 00 00 00       	mov    $0x0,%edx
    bb34:	48 8b 85 f0 e5 ff ff 	mov    -0x1a10(%rbp),%rax
    bb3b:	89 10                	mov    %edx,(%rax)
    bb3d:	48 8b 85 28 e6 ff ff 	mov    -0x19d8(%rbp),%rax
    bb44:	8b 00                	mov    (%rax),%eax
    bb46:	4c 63 e0             	movslq %eax,%r12
    bb49:	8b 85 f8 e4 ff ff    	mov    -0x1b08(%rbp),%eax
    bb4f:	44 0f bf e8          	movswl %ax,%r13d
    bb53:	0f b6 05 e4 b4 00 00 	movzbl 0xb4e4(%rip),%eax        # 1703e <g_124>
    bb5a:	66 98                	cbtw   
    bb5c:	0f b7 c0             	movzwl %ax,%eax
    bb5f:	be 00 00 00 00       	mov    $0x0,%esi
    bb64:	89 c7                	mov    %eax,%edi
    bb66:	e8 d2 a1 ff ff       	callq  5d3d <safe_mul_func_uint16_t_u_u>
    bb6b:	98                   	cwtl   
    bb6c:	44 89 ee             	mov    %r13d,%esi
    bb6f:	89 c7                	mov    %eax,%edi
    bb71:	e8 7f 98 ff ff       	callq  53f5 <safe_mul_func_int16_t_s_s>
    bb76:	66 85 c0             	test   %ax,%ax
    bb79:	75 0a                	jne    bb85 <func_11+0x4bd2>
    bb7b:	48 83 bd 48 e4 ff ff 	cmpq   $0x0,-0x1bb8(%rbp)
    bb82:	00 
    bb83:	74 07                	je     bb8c <func_11+0x4bd9>
    bb85:	b8 01 00 00 00       	mov    $0x1,%eax
    bb8a:	eb 05                	jmp    bb91 <func_11+0x4bde>
    bb8c:	b8 00 00 00 00       	mov    $0x0,%eax
    bb91:	0f be c0             	movsbl %al,%eax
    bb94:	be ff ff ff ff       	mov    $0xffffffff,%esi
    bb99:	89 c7                	mov    %eax,%edi
    bb9b:	e8 72 96 ff ff       	callq  5212 <safe_mul_func_int8_t_s_s>
    bba0:	0f be c0             	movsbl %al,%eax
    bba3:	39 85 40 e4 ff ff    	cmp    %eax,-0x1bc0(%rbp)
    bba9:	0f 97 c0             	seta   %al
    bbac:	0f b6 c0             	movzbl %al,%eax
    bbaf:	4c 89 e6             	mov    %r12,%rsi
    bbb2:	48 89 c7             	mov    %rax,%rdi
    bbb5:	e8 c6 a4 ff ff       	callq  6080 <safe_mod_func_uint64_t_u_u>
    bbba:	48 3d cd 00 00 00    	cmp    $0xcd,%rax
    bbc0:	0f 95 c0             	setne  %al
    bbc3:	0f b6 d0             	movzbl %al,%edx
    bbc6:	48 8b 85 28 e6 ff ff 	mov    -0x19d8(%rbp),%rax
    bbcd:	8b 00                	mov    (%rax),%eax
    bbcf:	31 d0                	xor    %edx,%eax
    bbd1:	83 f8 04             	cmp    $0x4,%eax
    bbd4:	0f 97 c0             	seta   %al
    bbd7:	0f b6 c0             	movzbl %al,%eax
    bbda:	33 85 40 e4 ff ff    	xor    -0x1bc0(%rbp),%eax
    bbe0:	89 c2                	mov    %eax,%edx
    bbe2:	48 8b 05 67 d0 00 00 	mov    0xd067(%rip),%rax        # 18c50 <g_1839>
    bbe9:	48 8b 00             	mov    (%rax),%rax
    bbec:	48 89 d6             	mov    %rdx,%rsi
    bbef:	48 89 c7             	mov    %rax,%rdi
    bbf2:	e8 37 a4 ff ff       	callq  602e <safe_add_func_uint64_t_u_u>
    bbf7:	89 c6                	mov    %eax,%esi
    bbf9:	bf 5b a7 1f 99       	mov    $0x991fa75b,%edi
    bbfe:	e8 02 9a ff ff       	callq  5605 <safe_sub_func_int32_t_s_s>
    bc03:	48 83 bd 30 e6 ff ff 	cmpq   $0x0,-0x19d0(%rbp)
    bc0a:	00 
    bc0b:	0f 94 c0             	sete   %al
    bc0e:	0f b6 c0             	movzbl %al,%eax
    bc11:	89 de                	mov    %ebx,%esi
    bc13:	89 c7                	mov    %eax,%edi
    bc15:	e8 2e a2 ff ff       	callq  5e48 <safe_rshift_func_uint16_t_u_s>
    bc1a:	66 85 c0             	test   %ax,%ax
    bc1d:	0f 84 23 01 00 00    	je     bd46 <func_11+0x4d93>
    bc23:	66 c7 85 5e e4 ff ff 	movw   $0x2,-0x1ba2(%rbp)
    bc2a:	02 00 
    bc2c:	48 c7 85 d0 e6 ff ff 	movq   $0x0,-0x1930(%rbp)
    bc33:	00 00 00 00 
    bc37:	48 8d 05 2a d5 00 00 	lea    0xd52a(%rip),%rax        # 19168 <g_452>
    bc3e:	48 89 85 d8 e6 ff ff 	mov    %rax,-0x1928(%rbp)
    bc45:	48 8d 05 9c b4 00 00 	lea    0xb49c(%rip),%rax        # 170e8 <g_627>
    bc4c:	48 89 85 e0 e6 ff ff 	mov    %rax,-0x1920(%rbp)
    bc53:	48 8b 85 f0 e5 ff ff 	mov    -0x1a10(%rbp),%rax
    bc5a:	8b 00                	mov    (%rax),%eax
    bc5c:	23 85 40 e4 ff ff    	and    -0x1bc0(%rbp),%eax
    bc62:	89 c2                	mov    %eax,%edx
    bc64:	48 8b 85 f0 e5 ff ff 	mov    -0x1a10(%rbp),%rax
    bc6b:	89 10                	mov    %edx,(%rax)
    bc6d:	48 8b 85 f0 e5 ff ff 	mov    -0x1a10(%rbp),%rax
    bc74:	8b 10                	mov    (%rax),%edx
    bc76:	8b 85 c0 e8 ff ff    	mov    -0x1740(%rbp),%eax
    bc7c:	31 d0                	xor    %edx,%eax
    bc7e:	89 85 c0 e8 ff ff    	mov    %eax,-0x1740(%rbp)
    bc84:	48 8b 85 f0 e5 ff ff 	mov    -0x1a10(%rbp),%rax
    bc8b:	8b 10                	mov    (%rax),%edx
    bc8d:	8b 85 c0 e5 ff ff    	mov    -0x1a40(%rbp),%eax
    bc93:	21 c2                	and    %eax,%edx
    bc95:	48 8b 85 f0 e5 ff ff 	mov    -0x1a10(%rbp),%rax
    bc9c:	89 10                	mov    %edx,(%rax)
    bc9e:	8b 85 80 e9 ff ff    	mov    -0x1680(%rbp),%eax
    bca4:	83 e8 01             	sub    $0x1,%eax
    bca7:	89 85 80 e9 ff ff    	mov    %eax,-0x1680(%rbp)
    bcad:	48 8b 85 28 e6 ff ff 	mov    -0x19d8(%rbp),%rax
    bcb4:	8b 00                	mov    (%rax),%eax
    bcb6:	0f b6 d8             	movzbl %al,%ebx
    bcb9:	8b 85 b8 e5 ff ff    	mov    -0x1a48(%rbp),%eax
    bcbf:	0b 85 40 e4 ff ff    	or     -0x1bc0(%rbp),%eax
    bcc5:	89 85 b8 e5 ff ff    	mov    %eax,-0x1a48(%rbp)
    bccb:	8b 85 b8 e5 ff ff    	mov    -0x1a48(%rbp),%eax
    bcd1:	4c 63 e0             	movslq %eax,%r12
    bcd4:	0f b7 85 5e e4 ff ff 	movzwl -0x1ba2(%rbp),%eax
    bcdb:	0f b6 c0             	movzbl %al,%eax
    bcde:	be 03 00 00 00       	mov    $0x3,%esi
    bce3:	89 c7                	mov    %eax,%edi
    bce5:	e8 d4 9f ff ff       	callq  5cbe <safe_rshift_func_uint8_t_u_u>
    bcea:	48 83 bd 48 e4 ff ff 	cmpq   $0x0,-0x1bb8(%rbp)
    bcf1:	00 
    bcf2:	0f 95 c0             	setne  %al
    bcf5:	0f b6 d0             	movzbl %al,%edx
    bcf8:	48 83 bd d0 e6 ff ff 	cmpq   $0x0,-0x1930(%rbp)
    bcff:	00 
    bd00:	0f 95 c0             	setne  %al
    bd03:	0f b6 c0             	movzbl %al,%eax
    bd06:	39 c2                	cmp    %eax,%edx
    bd08:	0f 9c c2             	setl   %dl
    bd0b:	48 8b 05 ce cd 00 00 	mov    0xcdce(%rip),%rax        # 18ae0 <g_1167>
    bd12:	48 8b 00             	mov    (%rax),%rax
    bd15:	0f b6 d2             	movzbl %dl,%edx
    bd18:	48 89 10             	mov    %rdx,(%rax)
    bd1b:	48 8b 00             	mov    (%rax),%rax
    bd1e:	4c 89 e6             	mov    %r12,%rsi
    bd21:	48 89 c7             	mov    %rax,%rdi
    bd24:	e8 7f 9b ff ff       	callq  58a8 <safe_sub_func_int64_t_s_s>
    bd29:	0f b6 c0             	movzbl %al,%eax
    bd2c:	89 de                	mov    %ebx,%esi
    bd2e:	89 c7                	mov    %eax,%edi
    bd30:	e8 a6 9e ff ff       	callq  5bdb <safe_div_func_uint8_t_u_u>
    bd35:	0f b6 d0             	movzbl %al,%edx
    bd38:	48 8b 85 f0 e5 ff ff 	mov    -0x1a10(%rbp),%rax
    bd3f:	89 10                	mov    %edx,(%rax)
    bd41:	e9 86 02 00 00       	jmpq   bfcc <func_11+0x5019>
    bd46:	48 c7 85 a8 e6 ff ff 	movq   $0x0,-0x1958(%rbp)
    bd4d:	00 00 00 00 
    bd51:	48 8d 85 c0 e5 ff ff 	lea    -0x1a40(%rbp),%rax
    bd58:	48 89 85 b0 e6 ff ff 	mov    %rax,-0x1950(%rbp)
    bd5f:	48 8d 05 34 b3 00 00 	lea    0xb334(%rip),%rax        # 1709a <g_361>
    bd66:	48 89 85 b8 e6 ff ff 	mov    %rax,-0x1948(%rbp)
    bd6d:	48 8d 05 bc b3 00 00 	lea    0xb3bc(%rip),%rax        # 17130 <g_630>
    bd74:	48 89 85 c0 e6 ff ff 	mov    %rax,-0x1940(%rbp)
    bd7b:	48 8d 05 1e b3 00 00 	lea    0xb31e(%rip),%rax        # 170a0 <g_449>
    bd82:	48 89 85 c8 e6 ff ff 	mov    %rax,-0x1938(%rbp)
    bd89:	48 8b 05 f8 ce 00 00 	mov    0xcef8(%rip),%rax        # 18c88 <g_2237>
    bd90:	48 8b 95 10 e6 ff ff 	mov    -0x19f0(%rbp),%rdx
    bd97:	48 8b 12             	mov    (%rdx),%rdx
    bd9a:	48 89 10             	mov    %rdx,(%rax)
    bd9d:	8b 85 f4 e4 ff ff    	mov    -0x1b0c(%rbp),%eax
    bda3:	48 63 d0             	movslq %eax,%rdx
    bda6:	48 8b 05 ab ce 00 00 	mov    0xceab(%rip),%rax        # 18c58 <g_1838>
    bdad:	48 8b 00             	mov    (%rax),%rax
    bdb0:	48 8b 00             	mov    (%rax),%rax
    bdb3:	48 89 d6             	mov    %rdx,%rsi
    bdb6:	48 89 c7             	mov    %rax,%rdi
    bdb9:	e8 c2 a2 ff ff       	callq  6080 <safe_mod_func_uint64_t_u_u>
    bdbe:	89 c6                	mov    %eax,%esi
    bdc0:	bf f7 ff ff ff       	mov    $0xfffffff7,%edi
    bdc5:	e8 33 a1 ff ff       	callq  5efd <safe_mod_func_uint32_t_u_u>
    bdca:	48 8b 95 f0 e5 ff ff 	mov    -0x1a10(%rbp),%rdx
    bdd1:	8b 12                	mov    (%rdx),%edx
    bdd3:	31 d0                	xor    %edx,%eax
    bdd5:	89 c2                	mov    %eax,%edx
    bdd7:	48 8b 85 f0 e5 ff ff 	mov    -0x1a10(%rbp),%rax
    bdde:	89 10                	mov    %edx,(%rax)
    bde0:	0f b6 85 44 e4 ff ff 	movzbl -0x1bbc(%rbp),%eax
    bde7:	0f b6 c8             	movzbl %al,%ecx
    bdea:	48 8b 05 07 cd 00 00 	mov    0xcd07(%rip),%rax        # 18af8 <g_1295>
    bdf1:	8b 10                	mov    (%rax),%edx
    bdf3:	48 8b 05 1e be 00 00 	mov    0xbe1e(%rip),%rax        # 17c18 <g_180>
    bdfa:	48 8b 00             	mov    (%rax),%rax
    bdfd:	48 8b 00             	mov    (%rax),%rax
    be00:	48 8b 18             	mov    (%rax),%rbx
    be03:	48 8b b5 a8 e6 ff ff 	mov    -0x1958(%rbp),%rsi
    be0a:	48 8d 85 b0 e5 ff ff 	lea    -0x1a50(%rbp),%rax
    be11:	48 89 c7             	mov    %rax,%rdi
    be14:	e8 a9 0c 00 00       	callq  cac2 <func_18>
    be19:	48 89 03             	mov    %rax,(%rbx)
    be1c:	8b 9d fc e4 ff ff    	mov    -0x1b04(%rbp),%ebx
    be22:	48 8b 85 78 e5 ff ff 	mov    -0x1a88(%rbp),%rax
    be29:	48 8b 00             	mov    (%rax),%rax
    be2c:	48 8b 00             	mov    (%rax),%rax
    be2f:	48 8b 00             	mov    (%rax),%rax
    be32:	48 8b 15 e7 d3 00 00 	mov    0xd3e7(%rip),%rdx        # 19220 <g_2238>
    be39:	48 8b 12             	mov    (%rdx),%rdx
    be3c:	48 8b 12             	mov    (%rdx),%rdx
    be3f:	48 8b 12             	mov    (%rdx),%rdx
    be42:	48 89 95 b8 e6 ff ff 	mov    %rdx,-0x1948(%rbp)
    be49:	48 39 85 b8 e6 ff ff 	cmp    %rax,-0x1948(%rbp)
    be50:	0f 85 14 01 00 00    	jne    bf6a <func_11+0x4fb7>
    be56:	0f b6 85 44 e4 ff ff 	movzbl -0x1bbc(%rbp),%eax
    be5d:	44 0f b6 e0          	movzbl %al,%r12d
    be61:	0f b7 05 28 b2 00 00 	movzwl 0xb228(%rip),%eax        # 17090 <g_307>
    be68:	44 0f bf e8          	movswl %ax,%r13d
    be6c:	8b 85 fc e4 ff ff    	mov    -0x1b04(%rbp),%eax
    be72:	0f b7 c0             	movzwl %ax,%eax
    be75:	be 04 00 00 00       	mov    $0x4,%esi
    be7a:	89 c7                	mov    %eax,%edi
    be7c:	e8 85 9f ff ff       	callq  5e06 <safe_lshift_func_uint16_t_u_u>
    be81:	0f b6 85 44 e4 ff ff 	movzbl -0x1bbc(%rbp),%eax
    be88:	44 0f b6 f0          	movzbl %al,%r14d
    be8c:	48 8b 85 48 e4 ff ff 	mov    -0x1bb8(%rbp),%rax
    be93:	48 be ea 07 5b 77 80 	movabs $0xcc5bba80775b07ea,%rsi
    be9a:	ba 5b cc 
    be9d:	48 89 c7             	mov    %rax,%rdi
    bea0:	e8 db a1 ff ff       	callq  6080 <safe_mod_func_uint64_t_u_u>
    bea5:	ba fe ff ff ff       	mov    $0xfffffffe,%edx
    beaa:	48 39 d0             	cmp    %rdx,%rax
    bead:	0f 96 c0             	setbe  %al
    beb0:	0f b6 c0             	movzbl %al,%eax
    beb3:	48 39 85 48 e4 ff ff 	cmp    %rax,-0x1bb8(%rbp)
    beba:	0f 93 c0             	setae  %al
    bebd:	0f b6 c0             	movzbl %al,%eax
    bec0:	41 39 c6             	cmp    %eax,%r14d
    bec3:	48 8b 05 86 cd 00 00 	mov    0xcd86(%rip),%rax        # 18c50 <g_1839>
    beca:	48 8b 00             	mov    (%rax),%rax
    becd:	89 c1                	mov    %eax,%ecx
    becf:	48 8b 05 0a cc 00 00 	mov    0xcc0a(%rip),%rax        # 18ae0 <g_1167>
    bed6:	48 8b 00             	mov    (%rax),%rax
    bed9:	48 8b 00             	mov    (%rax),%rax
    bedc:	89 c2                	mov    %eax,%edx
    bede:	48 8b 85 78 e5 ff ff 	mov    -0x1a88(%rbp),%rax
    bee5:	48 8b 00             	mov    (%rax),%rax
    bee8:	48 8b 00             	mov    (%rax),%rax
    beeb:	48 8b 00             	mov    (%rax),%rax
    beee:	09 ca                	or     %ecx,%edx
    bef0:	88 10                	mov    %dl,(%rax)
    bef2:	0f b6 00             	movzbl (%rax),%eax
    bef5:	0f b6 c0             	movzbl %al,%eax
    bef8:	44 89 ee             	mov    %r13d,%esi
    befb:	89 c7                	mov    %eax,%edi
    befd:	e8 bc 9d ff ff       	callq  5cbe <safe_rshift_func_uint8_t_u_u>
    bf02:	48 8b 95 c0 e6 ff ff 	mov    -0x1940(%rbp),%rdx
    bf09:	0f b7 12             	movzwl (%rdx),%edx
    bf0c:	0f b6 c0             	movzbl %al,%eax
    bf0f:	21 c2                	and    %eax,%edx
    bf11:	48 8b 85 c0 e6 ff ff 	mov    -0x1940(%rbp),%rax
    bf18:	66 89 10             	mov    %dx,(%rax)
    bf1b:	48 8b 85 c0 e6 ff ff 	mov    -0x1940(%rbp),%rax
    bf22:	0f b7 00             	movzwl (%rax),%eax
    bf25:	98                   	cwtl   
    bf26:	39 85 40 e4 ff ff    	cmp    %eax,-0x1bc0(%rbp)
    bf2c:	0f 97 c2             	seta   %dl
    bf2f:	48 8b 85 58 e5 ff ff 	mov    -0x1aa8(%rbp),%rax
    bf36:	48 8b 00             	mov    (%rax),%rax
    bf39:	88 10                	mov    %dl,(%rax)
    bf3b:	0f b6 00             	movzbl (%rax),%eax
    bf3e:	0f be d0             	movsbl %al,%edx
    bf41:	48 8b 85 28 e6 ff ff 	mov    -0x19d8(%rbp),%rax
    bf48:	8b 00                	mov    (%rax),%eax
    bf4a:	39 c2                	cmp    %eax,%edx
    bf4c:	0f 94 c0             	sete   %al
    bf4f:	0f b6 c0             	movzbl %al,%eax
    bf52:	4c 89 e6             	mov    %r12,%rsi
    bf55:	48 89 c7             	mov    %rax,%rdi
    bf58:	e8 23 a1 ff ff       	callq  6080 <safe_mod_func_uint64_t_u_u>
    bf5d:	48 ba a5 48 0f c5 89 	movabs $0xe786d089c50f48a5,%rdx
    bf64:	d0 86 e7 
    bf67:	48 39 d0             	cmp    %rdx,%rax
    bf6a:	48 b8 9f 85 ba 21 3b 	movabs $0x462fb33b21ba859f,%rax
    bf71:	b3 2f 46 
    bf74:	89 c2                	mov    %eax,%edx
    bf76:	0f b7 05 3b b3 00 00 	movzwl 0xb33b(%rip),%eax        # 172b8 <g_2340>
    bf7d:	31 d0                	xor    %edx,%eax
    bf7f:	66 89 05 32 b3 00 00 	mov    %ax,0xb332(%rip)        # 172b8 <g_2340>
    bf86:	0f b7 05 2b b3 00 00 	movzwl 0xb32b(%rip),%eax        # 172b8 <g_2340>
    bf8d:	48 0f bf c0          	movswq %ax,%rax
    bf91:	48 89 de             	mov    %rbx,%rsi
    bf94:	48 89 c7             	mov    %rax,%rdi
    bf97:	e8 5b 9a ff ff       	callq  59f7 <safe_div_func_int64_t_s_s>
    bf9c:	0f bf c8             	movswl %ax,%ecx
    bf9f:	0f b6 85 44 e4 ff ff 	movzbl -0x1bbc(%rbp),%eax
    bfa6:	0f b6 d0             	movzbl %al,%edx
    bfa9:	48 8b 05 40 bc 00 00 	mov    0xbc40(%rip),%rax        # 17bf0 <g_183>
    bfb0:	48 8b 30             	mov    (%rax),%rsi
    bfb3:	48 8b 1d 36 bc 00 00 	mov    0xbc36(%rip),%rbx        # 17bf0 <g_183>
    bfba:	48 8b 85 b0 e6 ff ff 	mov    -0x1950(%rbp),%rax
    bfc1:	48 89 c7             	mov    %rax,%rdi
    bfc4:	e8 f9 0a 00 00       	callq  cac2 <func_18>
    bfc9:	48 89 03             	mov    %rax,(%rbx)
    bfcc:	48 8b 85 f0 e5 ff ff 	mov    -0x1a10(%rbp),%rax
    bfd3:	8b 10                	mov    (%rax),%edx
    bfd5:	48 8b 85 38 e4 ff ff 	mov    -0x1bc8(%rbp),%rax
    bfdc:	83 e0 01             	and    $0x1,%eax
    bfdf:	48 3d 3c ac b3 79    	cmp    $0x79b3ac3c,%rax
    bfe5:	0f 97 c0             	seta   %al
    bfe8:	0f b6 c0             	movzbl %al,%eax
    bfeb:	09 c2                	or     %eax,%edx
    bfed:	48 8b 85 f0 e5 ff ff 	mov    -0x1a10(%rbp),%rax
    bff4:	89 10                	mov    %edx,(%rax)
    bff6:	0f b7 05 4b b0 00 00 	movzwl 0xb04b(%rip),%eax        # 17048 <g_166>
    bffd:	83 c0 01             	add    $0x1,%eax
    c000:	66 89 05 41 b0 00 00 	mov    %ax,0xb041(%rip)        # 17048 <g_166>
    c007:	0f b7 05 3a b0 00 00 	movzwl 0xb03a(%rip),%eax        # 17048 <g_166>
    c00e:	66 83 f8 17          	cmp    $0x17,%ax
    c012:	0f 84 45 f8 ff ff    	je     b85d <func_11+0x48aa>
    c018:	0f b7 05 1d b0 00 00 	movzwl 0xb01d(%rip),%eax        # 1703c <g_95>
    c01f:	98                   	cwtl   
    c020:	be 05 00 00 00       	mov    $0x5,%esi
    c025:	89 c7                	mov    %eax,%edi
    c027:	e8 87 93 ff ff       	callq  53b3 <safe_add_func_int16_t_s_s>
    c02c:	66 89 05 09 b0 00 00 	mov    %ax,0xb009(%rip)        # 1703c <g_95>
    c033:	0f b7 05 02 b0 00 00 	movzwl 0xb002(%rip),%eax        # 1703c <g_95>
    c03a:	66 83 f8 09          	cmp    $0x9,%ax
    c03e:	0f 86 df f7 ff ff    	jbe    b823 <func_11+0x4870>
    c044:	8b 05 ee b0 00 00    	mov    0xb0ee(%rip),%eax        # 17138 <g_648>
    c04a:	83 c0 01             	add    $0x1,%eax
    c04d:	89 05 e5 b0 00 00    	mov    %eax,0xb0e5(%rip)        # 17138 <g_648>
    c053:	8b 05 df b0 00 00    	mov    0xb0df(%rip),%eax        # 17138 <g_648>
    c059:	83 f8 12             	cmp    $0x12,%eax
    c05c:	0f 8f 8a f7 ff ff    	jg     b7ec <func_11+0x4839>
    c062:	48 8b 05 a7 bb 00 00 	mov    0xbba7(%rip),%rax        # 17c10 <g_181>
    c069:	48 8b 00             	mov    (%rax),%rax
    c06c:	48 8b 00             	mov    (%rax),%rax
    c06f:	48 8d 95 b8 e5 ff ff 	lea    -0x1a48(%rbp),%rdx
    c076:	48 89 10             	mov    %rdx,(%rax)
    c079:	48 8b 00             	mov    (%rax),%rax
    c07c:	48 89 85 f0 e5 ff ff 	mov    %rax,-0x1a10(%rbp)
    c083:	48 8b 85 f0 e5 ff ff 	mov    -0x1a10(%rbp),%rax
    c08a:	8b 00                	mov    (%rax),%eax
    c08c:	0f be d8             	movsbl %al,%ebx
    c08f:	8b 85 40 e4 ff ff    	mov    -0x1bc0(%rbp),%eax
    c095:	44 0f b6 e0          	movzbl %al,%r12d
    c099:	48 8b 85 38 e4 ff ff 	mov    -0x1bc8(%rbp),%rax
    c0a0:	44 0f b7 e8          	movzwl %ax,%r13d
    c0a4:	48 8b 05 15 b2 00 00 	mov    0xb215(%rip),%rax        # 172c0 <g_2364>
    c0ab:	89 85 34 e4 ff ff    	mov    %eax,-0x1bcc(%rbp)
    c0b1:	48 8b 05 28 ca 00 00 	mov    0xca28(%rip),%rax        # 18ae0 <g_1167>
    c0b8:	48 8b 00             	mov    (%rax),%rax
    c0bb:	48 8b 85 28 e6 ff ff 	mov    -0x19d8(%rbp),%rax
    c0c2:	8b 00                	mov    (%rax),%eax
    c0c4:	44 0f b6 f0          	movzbl %al,%r14d
    c0c8:	48 8b 85 48 e4 ff ff 	mov    -0x1bb8(%rbp),%rax
    c0cf:	44 0f bf f8          	movswl %ax,%r15d
    c0d3:	48 8b 85 48 e4 ff ff 	mov    -0x1bb8(%rbp),%rax
    c0da:	0f b7 c0             	movzwl %ax,%eax
    c0dd:	89 85 28 e4 ff ff    	mov    %eax,-0x1bd8(%rbp)
    c0e3:	48 8b 85 38 e4 ff ff 	mov    -0x1bc8(%rbp),%rax
    c0ea:	0f bf c8             	movswl %ax,%ecx
    c0ed:	89 8d 30 e4 ff ff    	mov    %ecx,-0x1bd0(%rbp)
    c0f3:	48 8b 85 78 e5 ff ff 	mov    -0x1a88(%rbp),%rax
    c0fa:	48 8b 00             	mov    (%rax),%rax
    c0fd:	48 8b 00             	mov    (%rax),%rax
    c100:	48 c7 00 00 00 00 00 	movq   $0x0,(%rax)
    c107:	48 8b 85 f0 e5 ff ff 	mov    -0x1a10(%rbp),%rax
    c10e:	8b 00                	mov    (%rax),%eax
    c110:	be 09 88 64 60       	mov    $0x60648809,%esi
    c115:	89 c7                	mov    %eax,%edi
    c117:	e8 e3 95 ff ff       	callq  56ff <safe_div_func_int32_t_s_s>
    c11c:	3d a5 00 00 00       	cmp    $0xa5,%eax
    c121:	0f 9e c0             	setle  %al
    c124:	0f b6 c0             	movzbl %al,%eax
    c127:	8b b5 30 e4 ff ff    	mov    -0x1bd0(%rbp),%esi
    c12d:	89 c7                	mov    %eax,%edi
    c12f:	e8 c1 92 ff ff       	callq  53f5 <safe_mul_func_int16_t_s_s>
    c134:	0f b7 c0             	movzwl %ax,%eax
    c137:	8b b5 28 e4 ff ff    	mov    -0x1bd8(%rbp),%esi
    c13d:	89 c7                	mov    %eax,%edi
    c13f:	e8 bb 9b ff ff       	callq  5cff <safe_add_func_uint16_t_u_u>
    c144:	0f b6 95 44 e4 ff ff 	movzbl -0x1bbc(%rbp),%edx
    c14b:	0f b6 d2             	movzbl %dl,%edx
    c14e:	21 d0                	and    %edx,%eax
    c150:	98                   	cwtl   
    c151:	44 89 fe             	mov    %r15d,%esi
    c154:	89 c7                	mov    %eax,%edi
    c156:	e8 bb 92 ff ff       	callq  5416 <safe_mod_func_int16_t_s_s>
    c15b:	0f b6 85 44 e4 ff ff 	movzbl -0x1bbc(%rbp),%eax
    c162:	3c 01                	cmp    $0x1,%al
    c164:	0f 95 c0             	setne  %al
    c167:	0f b6 c0             	movzbl %al,%eax
    c16a:	44 89 f6             	mov    %r14d,%esi
    c16d:	89 c7                	mov    %eax,%edi
    c16f:	e8 1f 9a ff ff       	callq  5b93 <safe_mul_func_uint8_t_u_u>
    c174:	0f b7 85 e2 eb ff ff 	movzwl -0x141e(%rbp),%eax
    c17b:	66 3d 8c e4          	cmp    $0xe48c,%ax
    c17f:	48 8b 85 28 e6 ff ff 	mov    -0x19d8(%rbp),%rax
    c186:	8b 00                	mov    (%rax),%eax
    c188:	48 98                	cltq   
    c18a:	48 39 85 38 e4 ff ff 	cmp    %rax,-0x1bc8(%rbp)
    c191:	0f 97 c0             	seta   %al
    c194:	0f b6 c0             	movzbl %al,%eax
    c197:	89 c7                	mov    %eax,%edi
    c199:	e8 08 9d ff ff       	callq  5ea6 <safe_unary_minus_func_uint32_t_u>
    c19e:	0f b7 c0             	movzwl %ax,%eax
    c1a1:	8b b5 34 e4 ff ff    	mov    -0x1bcc(%rbp),%esi
    c1a7:	89 c7                	mov    %eax,%edi
    c1a9:	e8 cc 9c ff ff       	callq  5e7a <safe_rshift_func_uint16_t_u_u>
    c1ae:	44 89 ee             	mov    %r13d,%esi
    c1b1:	bf 00 00 00 00       	mov    $0x0,%edi
    c1b6:	e8 a1 9b ff ff       	callq  5d5c <safe_mod_func_uint16_t_u_u>
    c1bb:	0f b6 c0             	movzbl %al,%eax
    c1be:	44 89 e6             	mov    %r12d,%esi
    c1c1:	89 c7                	mov    %eax,%edi
    c1c3:	e8 cb 99 ff ff       	callq  5b93 <safe_mul_func_uint8_t_u_u>
    c1c8:	0f be c0             	movsbl %al,%eax
    c1cb:	89 de                	mov    %ebx,%esi
    c1cd:	89 c7                	mov    %eax,%edi
    c1cf:	e8 00 90 ff ff       	callq  51d4 <safe_add_func_int8_t_s_s>
    c1d4:	84 c0                	test   %al,%al
    c1d6:	74 14                	je     c1ec <func_11+0x5239>
    c1d8:	48 8b 85 f0 e5 ff ff 	mov    -0x1a10(%rbp),%rax
    c1df:	8b 00                	mov    (%rax),%eax
    c1e1:	85 c0                	test   %eax,%eax
    c1e3:	74 07                	je     c1ec <func_11+0x5239>
    c1e5:	b8 01 00 00 00       	mov    $0x1,%eax
    c1ea:	eb 05                	jmp    c1f1 <func_11+0x523e>
    c1ec:	b8 00 00 00 00       	mov    $0x0,%eax
    c1f1:	48 63 d0             	movslq %eax,%rdx
    c1f4:	48 8b 85 48 e5 ff ff 	mov    -0x1ab8(%rbp),%rax
    c1fb:	48 8b 8d 48 e4 ff ff 	mov    -0x1bb8(%rbp),%rcx
    c202:	48 89 08             	mov    %rcx,(%rax)
    c205:	48 8b 00             	mov    (%rax),%rax
    c208:	48 89 d6             	mov    %rdx,%rsi
    c20b:	48 89 c7             	mov    %rax,%rdi
    c20e:	e8 38 9e ff ff       	callq  604b <safe_sub_func_uint64_t_u_u>
    c213:	48 85 c0             	test   %rax,%rax
    c216:	0f 84 ac 00 00 00    	je     c2c8 <func_11+0x5315>
    c21c:	48 8d 85 c0 e8 ff ff 	lea    -0x1740(%rbp),%rax
    c223:	48 83 c0 04          	add    $0x4,%rax
    c227:	48 89 85 68 e6 ff ff 	mov    %rax,-0x1998(%rbp)
    c22e:	48 8d 05 03 ae 00 00 	lea    0xae03(%rip),%rax        # 17038 <g_70>
    c235:	48 89 85 70 e6 ff ff 	mov    %rax,-0x1990(%rbp)
    c23c:	48 c7 85 78 e6 ff ff 	movq   $0x0,-0x1988(%rbp)
    c243:	00 00 00 00 
    c247:	48 8d 85 b8 e5 ff ff 	lea    -0x1a48(%rbp),%rax
    c24e:	48 89 85 80 e6 ff ff 	mov    %rax,-0x1980(%rbp)
    c255:	48 8d 85 c0 e8 ff ff 	lea    -0x1740(%rbp),%rax
    c25c:	48 83 c0 04          	add    $0x4,%rax
    c260:	48 89 85 88 e6 ff ff 	mov    %rax,-0x1978(%rbp)
    c267:	c7 85 d4 e4 ff ff 00 	movl   $0x0,-0x1b2c(%rbp)
    c26e:	00 00 00 
    c271:	eb 1e                	jmp    c291 <func_11+0x52de>
    c273:	8b 85 d4 e4 ff ff    	mov    -0x1b2c(%rbp),%eax
    c279:	48 98                	cltq   
    c27b:	48 8d 95 74 e4 ff ff 	lea    -0x1b8c(%rbp),%rdx
    c282:	48 89 94 c5 60 f3 ff 	mov    %rdx,-0xca0(%rbp,%rax,8)
    c289:	ff 
    c28a:	83 85 d4 e4 ff ff 01 	addl   $0x1,-0x1b2c(%rbp)
    c291:	83 bd d4 e4 ff ff 01 	cmpl   $0x1,-0x1b2c(%rbp)
    c298:	7e d9                	jle    c273 <func_11+0x52c0>
    c29a:	66 83 ad 5c e4 ff ff 	subw   $0x1,-0x1ba4(%rbp)
    c2a1:	01 
    c2a2:	48 8b 15 b7 c5 00 00 	mov    0xc5b7(%rip),%rdx        # 18860 <g_763>
    c2a9:	48 8b 05 b0 c5 00 00 	mov    0xc5b0(%rip),%rax        # 18860 <g_763>
    c2b0:	48 8b 12             	mov    (%rdx),%rdx
    c2b3:	48 89 10             	mov    %rdx,(%rax)
    c2b6:	48 8b 05 93 c5 00 00 	mov    0xc593(%rip),%rax        # 18850 <g_735>
    c2bd:	48 8b 00             	mov    (%rax),%rax
    c2c0:	0f b6 00             	movzbl (%rax),%eax
    c2c3:	e9 e2 02 00 00       	jmpq   c5aa <func_11+0x55f7>
    c2c8:	48 8d 05 c9 c9 00 00 	lea    0xc9c9(%rip),%rax        # 18c98 <g_2378>
    c2cf:	48 89 85 48 e6 ff ff 	mov    %rax,-0x19b8(%rbp)
    c2d6:	48 8d 85 d0 e5 ff ff 	lea    -0x1a30(%rbp),%rax
    c2dd:	48 89 85 50 e6 ff ff 	mov    %rax,-0x19b0(%rbp)
    c2e4:	c7 85 f0 e4 ff ff 66 	movl   $0xf8af2066,-0x1b10(%rbp)
    c2eb:	20 af f8 
    c2ee:	48 8d 85 60 ea ff ff 	lea    -0x15a0(%rbp),%rax
    c2f5:	48 83 c0 40          	add    $0x40,%rax
    c2f9:	48 89 85 58 e6 ff ff 	mov    %rax,-0x19a8(%rbp)
    c300:	48 8d 85 60 ea ff ff 	lea    -0x15a0(%rbp),%rax
    c307:	48 83 c0 40          	add    $0x40,%rax
    c30b:	48 89 85 60 e6 ff ff 	mov    %rax,-0x19a0(%rbp)
    c312:	c7 85 d8 e4 ff ff 00 	movl   $0x0,-0x1b28(%rbp)
    c319:	00 00 00 
    c31c:	eb 1b                	jmp    c339 <func_11+0x5386>
    c31e:	8b 85 d8 e4 ff ff    	mov    -0x1b28(%rbp),%eax
    c324:	48 98                	cltq   
    c326:	48 c7 84 c5 60 f3 ff 	movq   $0x0,-0xca0(%rbp,%rax,8)
    c32d:	ff 00 00 00 00 
    c332:	83 85 d8 e4 ff ff 01 	addl   $0x1,-0x1b28(%rbp)
    c339:	83 bd d8 e4 ff ff 04 	cmpl   $0x4,-0x1b28(%rbp)
    c340:	7e dc                	jle    c31e <func_11+0x536b>
    c342:	48 8b 05 c7 b8 00 00 	mov    0xb8c7(%rip),%rax        # 17c10 <g_181>
    c349:	48 8b 00             	mov    (%rax),%rax
    c34c:	48 8b 00             	mov    (%rax),%rax
    c34f:	48 8b 00             	mov    (%rax),%rax
    c352:	8b 00                	mov    (%rax),%eax
    c354:	41 89 c5             	mov    %eax,%r13d
    c357:	48 8b 15 3a c9 00 00 	mov    0xc93a(%rip),%rdx        # 18c98 <g_2378>
    c35e:	48 8b 85 48 e6 ff ff 	mov    -0x19b8(%rbp),%rax
    c365:	48 89 10             	mov    %rdx,(%rax)
    c368:	48 8b 85 48 e6 ff ff 	mov    -0x19b8(%rbp),%rax
    c36f:	48 8b 10             	mov    (%rax),%rdx
    c372:	48 8b 85 00 f9 ff ff 	mov    -0x700(%rbp),%rax
    c379:	48 39 c2             	cmp    %rax,%rdx
    c37c:	48 8b 05 c5 c4 00 00 	mov    0xc4c5(%rip),%rax        # 18848 <g_736>
    c383:	0f b6 00             	movzbl (%rax),%eax
    c386:	0f b6 d8             	movzbl %al,%ebx
    c389:	48 8b 85 48 e4 ff ff 	mov    -0x1bb8(%rbp),%rax
    c390:	41 89 c6             	mov    %eax,%r14d
    c393:	48 8b 85 28 e6 ff ff 	mov    -0x19d8(%rbp),%rax
    c39a:	8b 00                	mov    (%rax),%eax
    c39c:	4c 63 e0             	movslq %eax,%r12
    c39f:	48 8b 85 38 e6 ff ff 	mov    -0x19c8(%rbp),%rax
    c3a6:	48 3b 85 50 e6 ff ff 	cmp    -0x19b0(%rbp),%rax
    c3ad:	0f 94 c0             	sete   %al
    c3b0:	0f b6 c0             	movzbl %al,%eax
    c3b3:	be 66 00 00 00       	mov    $0x66,%esi
    c3b8:	89 c7                	mov    %eax,%edi
    c3ba:	e8 b9 97 ff ff       	callq  5b78 <safe_sub_func_uint8_t_u_u>
    c3bf:	0f b6 c0             	movzbl %al,%eax
    c3c2:	25 0c 1e 65 cb       	and    $0xcb651e0c,%eax
    c3c7:	4c 89 e6             	mov    %r12,%rsi
    c3ca:	48 89 c7             	mov    %rax,%rdi
    c3cd:	e8 dd 9c ff ff       	callq  60af <safe_div_func_uint64_t_u_u>
    c3d2:	0f b6 c0             	movzbl %al,%eax
    c3d5:	44 89 f6             	mov    %r14d,%esi
    c3d8:	89 c7                	mov    %eax,%edi
    c3da:	e8 ae 98 ff ff       	callq  5c8d <safe_rshift_func_uint8_t_u_s>
    c3df:	0f b6 c0             	movzbl %al,%eax
    c3e2:	be 05 00 00 00       	mov    $0x5,%esi
    c3e7:	89 c7                	mov    %eax,%edi
    c3e9:	e8 d0 98 ff ff       	callq  5cbe <safe_rshift_func_uint8_t_u_u>
    c3ee:	0f b6 c0             	movzbl %al,%eax
    c3f1:	89 de                	mov    %ebx,%esi
    c3f3:	89 c7                	mov    %eax,%edi
    c3f5:	e8 99 97 ff ff       	callq  5b93 <safe_mul_func_uint8_t_u_u>
    c3fa:	0f b6 c0             	movzbl %al,%eax
    c3fd:	48 23 85 38 e4 ff ff 	and    -0x1bc8(%rbp),%rax
    c404:	48 89 c2             	mov    %rax,%rdx
    c407:	0f b6 05 52 cd 00 00 	movzbl 0xcd52(%rip),%eax        # 19160 <g_424>
    c40e:	48 0f be c0          	movsbq %al,%rax
    c412:	48 39 c2             	cmp    %rax,%rdx
    c415:	0f 97 c0             	seta   %al
    c418:	0f b6 c0             	movzbl %al,%eax
    c41b:	48 39 85 20 e6 ff ff 	cmp    %rax,-0x19e0(%rbp)
    c422:	0f 94 c0             	sete   %al
    c425:	0f b6 d0             	movzbl %al,%edx
    c428:	8b 85 e0 e4 ff ff    	mov    -0x1b20(%rbp),%eax
    c42e:	48 63 f0             	movslq %eax,%rsi
    c431:	48 8b 85 48 e5 ff ff 	mov    -0x1ab8(%rbp),%rax
    c438:	8b 8d e4 e4 ff ff    	mov    -0x1b1c(%rbp),%ecx
    c43e:	48 63 c9             	movslq %ecx,%rcx
    c441:	48 89 08             	mov    %rcx,(%rax)
    c444:	48 8b 00             	mov    (%rax),%rax
    c447:	48 39 c6             	cmp    %rax,%rsi
    c44a:	0f 97 c0             	seta   %al
    c44d:	0f b6 c0             	movzbl %al,%eax
    c450:	89 d6                	mov    %edx,%esi
    c452:	89 c7                	mov    %eax,%edi
    c454:	e8 b9 8d ff ff       	callq  5212 <safe_mul_func_int8_t_s_s>
    c459:	0f be d0             	movsbl %al,%edx
    c45c:	0f b6 85 44 e4 ff ff 	movzbl -0x1bbc(%rbp),%eax
    c463:	0f b6 c0             	movzbl %al,%eax
    c466:	39 c2                	cmp    %eax,%edx
    c468:	0f 9d c0             	setge  %al
    c46b:	0f b6 c0             	movzbl %al,%eax
    c46e:	f7 d0                	not    %eax
    c470:	89 85 f0 e4 ff ff    	mov    %eax,-0x1b10(%rbp)
    c476:	8b 85 f0 e4 ff ff    	mov    -0x1b10(%rbp),%eax
    c47c:	89 c2                	mov    %eax,%edx
    c47e:	0f b6 05 db cc 00 00 	movzbl 0xccdb(%rip),%eax        # 19160 <g_424>
    c485:	66 98                	cbtw   
    c487:	21 d0                	and    %edx,%eax
    c489:	0f bf d0             	movswl %ax,%edx
    c48c:	48 8b 85 78 f3 ff ff 	mov    -0xc88(%rbp),%rax
    c493:	48 85 c0             	test   %rax,%rax
    c496:	0f 95 c0             	setne  %al
    c499:	0f b6 c0             	movzbl %al,%eax
    c49c:	89 d6                	mov    %edx,%esi
    c49e:	89 c7                	mov    %eax,%edi
    c4a0:	e8 50 8f ff ff       	callq  53f5 <safe_mul_func_int16_t_s_s>
    c4a5:	48 8b 85 40 e6 ff ff 	mov    -0x19c0(%rbp),%rax
    c4ac:	48 89 85 58 e6 ff ff 	mov    %rax,-0x19a8(%rbp)
    c4b3:	48 8b 85 58 e6 ff ff 	mov    -0x19a8(%rbp),%rax
    c4ba:	48 3b 85 60 e6 ff ff 	cmp    -0x19a0(%rbp),%rax
    c4c1:	0f 94 c0             	sete   %al
    c4c4:	0f b6 d0             	movzbl %al,%edx
    c4c7:	0f b6 85 44 e4 ff ff 	movzbl -0x1bbc(%rbp),%eax
    c4ce:	0f b6 c0             	movzbl %al,%eax
    c4d1:	39 c2                	cmp    %eax,%edx
    c4d3:	0f 9c c0             	setl   %al
    c4d6:	0f b6 d0             	movzbl %al,%edx
    c4d9:	8b 85 40 e4 ff ff    	mov    -0x1bc0(%rbp),%eax
    c4df:	0f b7 c0             	movzwl %ax,%eax
    c4e2:	89 d6                	mov    %edx,%esi
    c4e4:	89 c7                	mov    %eax,%edi
    c4e6:	e8 34 98 ff ff       	callq  5d1f <safe_sub_func_uint16_t_u_u>
    c4eb:	0f b6 85 58 e4 ff ff 	movzbl -0x1ba8(%rbp),%eax
    c4f2:	44 89 ee             	mov    %r13d,%esi
    c4f5:	89 c7                	mov    %eax,%edi
    c4f7:	e8 29 9a ff ff       	callq  5f25 <safe_div_func_uint32_t_u_u>
    c4fc:	85 c0                	test   %eax,%eax
    c4fe:	48 8b 05 4b c3 00 00 	mov    0xc34b(%rip),%rax        # 18850 <g_735>
    c505:	48 8b 00             	mov    (%rax),%rax
    c508:	0f b6 00             	movzbl (%rax),%eax
    c50b:	3c 18                	cmp    $0x18,%al
    c50d:	7e 78                	jle    c587 <func_11+0x55d4>
    c50f:	48 8b 05 fa b6 00 00 	mov    0xb6fa(%rip),%rax        # 17c10 <g_181>
    c516:	48 8b 00             	mov    (%rax),%rax
    c519:	48 8b 00             	mov    (%rax),%rax
    c51c:	48 8b 00             	mov    (%rax),%rax
    c51f:	8b 00                	mov    (%rax),%eax
    c521:	09 85 e8 e4 ff ff    	or     %eax,-0x1b18(%rbp)
    c527:	48 8b 85 f8 e5 ff ff 	mov    -0x1a08(%rbp),%rax
    c52e:	48 8b 00             	mov    (%rax),%rax
    c531:	c7 00 fc ff ff ff    	movl   $0xfffffffc,(%rax)
    c537:	8b 18                	mov    (%rax),%ebx
    c539:	bf 04 00 00 00       	mov    $0x4,%edi
    c53e:	e8 7c 8c ff ff       	callq  51bf <safe_unary_minus_func_int8_t_s>
    c543:	0f b6 c0             	movzbl %al,%eax
    c546:	be 00 00 00 00       	mov    $0x0,%esi
    c54b:	89 c7                	mov    %eax,%edi
    c54d:	e8 26 96 ff ff       	callq  5b78 <safe_sub_func_uint8_t_u_u>
    c552:	0f b6 d0             	movzbl %al,%edx
    c555:	48 8b 05 f4 c6 00 00 	mov    0xc6f4(%rip),%rax        # 18c50 <g_1839>
    c55c:	48 8b 00             	mov    (%rax),%rax
    c55f:	48 39 c2             	cmp    %rax,%rdx
    c562:	0f 94 c0             	sete   %al
    c565:	0f b6 c0             	movzbl %al,%eax
    c568:	39 c3                	cmp    %eax,%ebx
    c56a:	0f 95 c2             	setne  %dl
    c56d:	48 8b 05 a4 b6 00 00 	mov    0xb6a4(%rip),%rax        # 17c18 <g_180>
    c574:	48 8b 00             	mov    (%rax),%rax
    c577:	48 8b 00             	mov    (%rax),%rax
    c57a:	48 8b 00             	mov    (%rax),%rax
    c57d:	48 8b 00             	mov    (%rax),%rax
    c580:	0f b6 d2             	movzbl %dl,%edx
    c583:	89 10                	mov    %edx,(%rax)
    c585:	eb 1a                	jmp    c5a1 <func_11+0x55ee>
    c587:	48 8b 05 8a b6 00 00 	mov    0xb68a(%rip),%rax        # 17c18 <g_180>
    c58e:	48 8b 00             	mov    (%rax),%rax
    c591:	48 8b 00             	mov    (%rax),%rax
    c594:	48 8b 00             	mov    (%rax),%rax
    c597:	48 8d 95 c0 e8 ff ff 	lea    -0x1740(%rbp),%rdx
    c59e:	48 89 10             	mov    %rdx,(%rax)
    c5a1:	48 8b 85 28 e6 ff ff 	mov    -0x19d8(%rbp),%rax
    c5a8:	8b 00                	mov    (%rax),%eax
    c5aa:	48 8b 5d c8          	mov    -0x38(%rbp),%rbx
    c5ae:	64 48 33 1c 25 28 00 	xor    %fs:0x28,%rbx
    c5b5:	00 00 
    c5b7:	74 05                	je     c5be <func_11+0x560b>
    c5b9:	e8 b2 8a ff ff       	callq  5070 <__stack_chk_fail@plt>
    c5be:	48 81 c4 b8 1b 00 00 	add    $0x1bb8,%rsp
    c5c5:	5b                   	pop    %rbx
    c5c6:	41 5c                	pop    %r12
    c5c8:	41 5d                	pop    %r13
    c5ca:	41 5e                	pop    %r14
    c5cc:	41 5f                	pop    %r15
    c5ce:	5d                   	pop    %rbp
    c5cf:	c3                   	retq   

000000000000c5d0 <func_16>:
    c5d0:	f3 0f 1e fa          	endbr64 
    c5d4:	55                   	push   %rbp
    c5d5:	48 89 e5             	mov    %rsp,%rbp
    c5d8:	41 57                	push   %r15
    c5da:	41 56                	push   %r14
    c5dc:	41 55                	push   %r13
    c5de:	41 54                	push   %r12
    c5e0:	53                   	push   %rbx
    c5e1:	48 81 ec f8 00 00 00 	sub    $0xf8,%rsp
    c5e8:	89 bd 0c ff ff ff    	mov    %edi,-0xf4(%rbp)
    c5ee:	64 48 8b 04 25 28 00 	mov    %fs:0x28,%rax
    c5f5:	00 00 
    c5f7:	48 89 45 c8          	mov    %rax,-0x38(%rbp)
    c5fb:	31 c0                	xor    %eax,%eax
    c5fd:	66 c7 85 14 ff ff ff 	movw   $0xa20b,-0xec(%rbp)
    c604:	0b a2 
    c606:	48 8d 05 1c aa 00 00 	lea    0xaa1c(%rip),%rax        # 17029 <g_32>
    c60d:	48 89 85 28 ff ff ff 	mov    %rax,-0xd8(%rbp)
    c614:	48 8d 05 0f aa 00 00 	lea    0xaa0f(%rip),%rax        # 1702a <g_61>
    c61b:	48 89 85 30 ff ff ff 	mov    %rax,-0xd0(%rbp)
    c622:	48 8d 05 07 aa 00 00 	lea    0xaa07(%rip),%rax        # 17030 <g_64>
    c629:	48 89 85 38 ff ff ff 	mov    %rax,-0xc8(%rbp)
    c630:	c7 85 24 ff ff ff f7 	movl   $0xfffffff7,-0xdc(%rbp)
    c637:	ff ff ff 
    c63a:	48 8d 45 80          	lea    -0x80(%rbp),%rax
    c63e:	48 89 85 40 ff ff ff 	mov    %rax,-0xc0(%rbp)
    c645:	c7 85 18 ff ff ff fc 	movl   $0xfffffffc,-0xe8(%rbp)
    c64c:	ff ff ff 
    c64f:	48 8d 85 18 ff ff ff 	lea    -0xe8(%rbp),%rax
    c656:	48 89 85 48 ff ff ff 	mov    %rax,-0xb8(%rbp)
    c65d:	48 8d 05 3c ab 00 00 	lea    0xab3c(%rip),%rax        # 171a0 <g_1483>
    c664:	48 89 85 50 ff ff ff 	mov    %rax,-0xb0(%rbp)
    c66b:	48 8d 05 de ca 00 00 	lea    0xcade(%rip),%rax        # 19150 <g_188>
    c672:	48 89 85 58 ff ff ff 	mov    %rax,-0xa8(%rbp)
    c679:	66 c7 85 16 ff ff ff 	movw   $0xe35c,-0xea(%rbp)
    c680:	5c e3 
    c682:	c7 85 1c ff ff ff 00 	movl   $0x0,-0xe4(%rbp)
    c689:	00 00 00 
    c68c:	eb 49                	jmp    c6d7 <func_16+0x107>
    c68e:	c7 85 20 ff ff ff 00 	movl   $0x0,-0xe0(%rbp)
    c695:	00 00 00 
    c698:	eb 2d                	jmp    c6c7 <func_16+0xf7>
    c69a:	8b 85 20 ff ff ff    	mov    -0xe0(%rbp),%eax
    c6a0:	48 63 c8             	movslq %eax,%rcx
    c6a3:	8b 85 1c ff ff ff    	mov    -0xe4(%rbp),%eax
    c6a9:	48 63 d0             	movslq %eax,%rdx
    c6ac:	48 89 d0             	mov    %rdx,%rax
    c6af:	48 01 c0             	add    %rax,%rax
    c6b2:	48 01 d0             	add    %rdx,%rax
    c6b5:	48 01 c8             	add    %rcx,%rax
    c6b8:	c7 44 85 80 76 f7 cb 	movl   $0x84cbf776,-0x80(%rbp,%rax,4)
    c6bf:	84 
    c6c0:	83 85 20 ff ff ff 01 	addl   $0x1,-0xe0(%rbp)
    c6c7:	83 bd 20 ff ff ff 02 	cmpl   $0x2,-0xe0(%rbp)
    c6ce:	7e ca                	jle    c69a <func_16+0xca>
    c6d0:	83 85 1c ff ff ff 01 	addl   $0x1,-0xe4(%rbp)
    c6d7:	83 bd 1c ff ff ff 04 	cmpl   $0x4,-0xe4(%rbp)
    c6de:	7e ae                	jle    c68e <func_16+0xbe>
    c6e0:	c7 85 1c ff ff ff 00 	movl   $0x0,-0xe4(%rbp)
    c6e7:	00 00 00 
    c6ea:	eb 1e                	jmp    c70a <func_16+0x13a>
    c6ec:	8b 85 1c ff ff ff    	mov    -0xe4(%rbp),%eax
    c6f2:	48 98                	cltq   
    c6f4:	48 8d 15 3d a9 00 00 	lea    0xa93d(%rip),%rdx        # 17038 <g_70>
    c6fb:	48 89 94 c5 60 ff ff 	mov    %rdx,-0xa0(%rbp,%rax,8)
    c702:	ff 
    c703:	83 85 1c ff ff ff 01 	addl   $0x1,-0xe4(%rbp)
    c70a:	83 bd 1c ff ff ff 02 	cmpl   $0x2,-0xe4(%rbp)
    c711:	7e d9                	jle    c6ec <func_16+0x11c>
    c713:	8b 85 0c ff ff ff    	mov    -0xf4(%rbp),%eax
    c719:	44 0f bf f8          	movswl %ax,%r15d
    c71d:	44 8b b5 0c ff ff ff 	mov    -0xf4(%rbp),%r14d
    c724:	4c 8b ad 68 ff ff ff 	mov    -0x98(%rbp),%r13
    c72b:	0f b6 05 0f aa 00 00 	movzbl 0xaa0f(%rip),%eax        # 17141 <g_742>
    c732:	0f b6 d8             	movzbl %al,%ebx
    c735:	8b 05 fd a8 00 00    	mov    0xa8fd(%rip),%eax        # 17038 <g_70>
    c73b:	48 98                	cltq   
    c73d:	48 89 85 00 ff ff ff 	mov    %rax,-0x100(%rbp)
    c744:	8b 85 0c ff ff ff    	mov    -0xf4(%rbp),%eax
    c74a:	44 0f be e0          	movsbl %al,%r12d
    c74e:	8b 05 d0 a8 00 00    	mov    0xa8d0(%rip),%eax        # 17024 <g_2>
    c754:	48 98                	cltq   
    c756:	48 89 85 f8 fe ff ff 	mov    %rax,-0x108(%rbp)
    c75d:	8b 05 c1 a8 00 00    	mov    0xa8c1(%rip),%eax        # 17024 <g_2>
    c763:	89 85 08 ff ff ff    	mov    %eax,-0xf8(%rbp)
    c769:	8b 05 b5 a8 00 00    	mov    0xa8b5(%rip),%eax        # 17024 <g_2>
    c76f:	89 85 f4 fe ff ff    	mov    %eax,-0x10c(%rbp)
    c775:	8b 45 94             	mov    -0x6c(%rbp),%eax
    c778:	89 85 f0 fe ff ff    	mov    %eax,-0x110(%rbp)
    c77e:	8b 85 0c ff ff ff    	mov    -0xf4(%rbp),%eax
    c784:	0f b6 c8             	movzbl %al,%ecx
    c787:	89 8d ec fe ff ff    	mov    %ecx,-0x114(%rbp)
    c78d:	0f b7 8d 14 ff ff ff 	movzwl -0xec(%rbp),%ecx
    c794:	89 8d e8 fe ff ff    	mov    %ecx,-0x118(%rbp)
    c79a:	8b 05 84 a8 00 00    	mov    0xa884(%rip),%eax        # 17024 <g_2>
    c7a0:	0f b6 f8             	movzbl %al,%edi
    c7a3:	89 bd e4 fe ff ff    	mov    %edi,-0x11c(%rbp)
    c7a9:	8b 85 0c ff ff ff    	mov    -0xf4(%rbp),%eax
    c7af:	0f b6 c0             	movzbl %al,%eax
    c7b2:	be 04 00 00 00       	mov    $0x4,%esi
    c7b7:	89 c7                	mov    %eax,%edi
    c7b9:	e8 00 95 ff ff       	callq  5cbe <safe_rshift_func_uint8_t_u_u>
    c7be:	48 8b 95 30 ff ff ff 	mov    -0xd0(%rbp),%rdx
    c7c5:	88 02                	mov    %al,(%rdx)
    c7c7:	48 8b 85 30 ff ff ff 	mov    -0xd0(%rbp),%rax
    c7ce:	0f b6 00             	movzbl (%rax),%eax
    c7d1:	0f b6 c0             	movzbl %al,%eax
    c7d4:	8b b5 e4 fe ff ff    	mov    -0x11c(%rbp),%esi
    c7da:	89 c7                	mov    %eax,%edi
    c7dc:	e8 97 93 ff ff       	callq  5b78 <safe_sub_func_uint8_t_u_u>
    c7e1:	0f b6 c0             	movzbl %al,%eax
    c7e4:	8b 95 e8 fe ff ff    	mov    -0x118(%rbp),%edx
    c7ea:	31 c2                	xor    %eax,%edx
    c7ec:	0f b7 85 14 ff ff ff 	movzwl -0xec(%rbp),%eax
    c7f3:	39 c2                	cmp    %eax,%edx
    c7f5:	0f 9e c0             	setle  %al
    c7f8:	0f b6 c0             	movzbl %al,%eax
    c7fb:	8b b5 ec fe ff ff    	mov    -0x114(%rbp),%esi
    c801:	89 c7                	mov    %eax,%edi
    c803:	e8 70 93 ff ff       	callq  5b78 <safe_sub_func_uint8_t_u_u>
    c808:	0f b6 c0             	movzbl %al,%eax
    c80b:	8b b5 f0 fe ff ff    	mov    -0x110(%rbp),%esi
    c811:	89 c7                	mov    %eax,%edi
    c813:	e8 9e 8d ff ff       	callq  55b6 <safe_add_func_int32_t_s_s>
    c818:	85 c0                	test   %eax,%eax
    c81a:	75 0b                	jne    c827 <func_16+0x257>
    c81c:	0f b6 05 07 a8 00 00 	movzbl 0xa807(%rip),%eax        # 1702a <g_61>
    c823:	84 c0                	test   %al,%al
    c825:	74 07                	je     c82e <func_16+0x25e>
    c827:	b8 01 00 00 00       	mov    $0x1,%eax
    c82c:	eb 05                	jmp    c833 <func_16+0x263>
    c82e:	b8 00 00 00 00       	mov    $0x0,%eax
    c833:	83 f8 06             	cmp    $0x6,%eax
    c836:	74 09                	je     c841 <func_16+0x271>
    c838:	0f b6 05 eb a7 00 00 	movzbl 0xa7eb(%rip),%eax        # 1702a <g_61>
    c83f:	84 c0                	test   %al,%al
    c841:	48 8b 85 38 ff ff ff 	mov    -0xc8(%rbp),%rax
    c848:	48 b9 0c 7c 7e 6c 6b 	movabs $0xb566e66b6c7e7c0c,%rcx
    c84f:	e6 66 b5 
    c852:	48 89 08             	mov    %rcx,(%rax)
    c855:	48 8b 85 38 ff ff ff 	mov    -0xc8(%rbp),%rax
    c85c:	48 8b 00             	mov    (%rax),%rax
    c85f:	8b 15 bf a7 00 00    	mov    0xa7bf(%rip),%edx        # 17024 <g_2>
    c865:	89 d7                	mov    %edx,%edi
    c867:	4c 8b 85 f8 fe ff ff 	mov    -0x108(%rbp),%r8
    c86e:	8b 8d 08 ff ff ff    	mov    -0xf8(%rbp),%ecx
    c874:	8b 95 f4 fe ff ff    	mov    -0x10c(%rbp),%edx
    c87a:	48 89 c6             	mov    %rax,%rsi
    c87d:	e8 bc 4f 00 00       	callq  1183e <func_46>
    c882:	39 85 0c ff ff ff    	cmp    %eax,-0xf4(%rbp)
    c888:	0f 97 c0             	seta   %al
    c88b:	0f b6 c0             	movzbl %al,%eax
    c88e:	89 85 24 ff ff ff    	mov    %eax,-0xdc(%rbp)
    c894:	8b 85 24 ff ff ff    	mov    -0xdc(%rbp),%eax
    c89a:	89 c7                	mov    %eax,%edi
    c89c:	e8 5c 4d 00 00       	callq  115fd <func_44>
    c8a1:	48 8b 95 40 ff ff ff 	mov    -0xc0(%rbp),%rdx
    c8a8:	89 02                	mov    %eax,(%rdx)
    c8aa:	48 8b 85 40 ff ff ff 	mov    -0xc0(%rbp),%rax
    c8b1:	8b 00                	mov    (%rax),%eax
    c8b3:	3d c8 9a ac 14       	cmp    $0x14ac9ac8,%eax
    c8b8:	0f 94 c0             	sete   %al
    c8bb:	0f b6 c0             	movzbl %al,%eax
    c8be:	48 8b 95 00 ff ff ff 	mov    -0x100(%rbp),%rdx
    c8c5:	44 89 e6             	mov    %r12d,%esi
    c8c8:	48 89 c7             	mov    %rax,%rdi
    c8cb:	e8 fa 36 00 00       	callq  ffca <func_40>
    c8d0:	0f b7 c0             	movzwl %ax,%eax
    c8d3:	f7 d0                	not    %eax
    c8d5:	89 85 18 ff ff ff    	mov    %eax,-0xe8(%rbp)
    c8db:	8b 85 18 ff ff ff    	mov    -0xe8(%rbp),%eax
    c8e1:	0b 85 0c ff ff ff    	or     -0xf4(%rbp),%eax
    c8e7:	89 c2                	mov    %eax,%edx
    c8e9:	0f b6 05 70 c8 00 00 	movzbl 0xc870(%rip),%eax        # 19160 <g_424>
    c8f0:	0f be c0             	movsbl %al,%eax
    c8f3:	39 c2                	cmp    %eax,%edx
    c8f5:	0f 96 c0             	setbe  %al
    c8f8:	0f b6 c0             	movzbl %al,%eax
    c8fb:	48 8d 15 98 a7 00 00 	lea    0xa798(%rip),%rdx        # 1709a <g_361>
    c902:	48 89 de             	mov    %rbx,%rsi
    c905:	89 c7                	mov    %eax,%edi
    c907:	e8 1d 18 00 00       	callq  e129 <func_35>
    c90c:	49 89 c4             	mov    %rax,%r12
    c90f:	48 8b 85 28 ff ff ff 	mov    -0xd8(%rbp),%rax
    c916:	0f b6 00             	movzbl (%rax),%eax
    c919:	8d 50 01             	lea    0x1(%rax),%edx
    c91c:	48 8b 85 28 ff ff ff 	mov    -0xd8(%rbp),%rax
    c923:	88 10                	mov    %dl,(%rax)
    c925:	48 8b 85 28 ff ff ff 	mov    -0xd8(%rbp),%rax
    c92c:	0f b6 00             	movzbl (%rax),%eax
    c92f:	0f b6 d8             	movzbl %al,%ebx
    c932:	0f b7 85 14 ff ff ff 	movzwl -0xec(%rbp),%eax
    c939:	0f be d0             	movsbl %al,%edx
    c93c:	8b 05 e2 a6 00 00    	mov    0xa6e2(%rip),%eax        # 17024 <g_2>
    c942:	85 c0                	test   %eax,%eax
    c944:	74 12                	je     c958 <func_16+0x388>
    c946:	0f b6 05 db a6 00 00 	movzbl 0xa6db(%rip),%eax        # 17028 <g_29>
    c94d:	84 c0                	test   %al,%al
    c94f:	74 07                	je     c958 <func_16+0x388>
    c951:	b8 01 00 00 00       	mov    $0x1,%eax
    c956:	eb 05                	jmp    c95d <func_16+0x38d>
    c958:	b8 00 00 00 00       	mov    $0x0,%eax
    c95d:	0f be c0             	movsbl %al,%eax
    c960:	89 d6                	mov    %edx,%esi
    c962:	89 c7                	mov    %eax,%edi
    c964:	e8 6b 88 ff ff       	callq  51d4 <safe_add_func_int8_t_s_s>
    c969:	0f be c0             	movsbl %al,%eax
    c96c:	4c 89 e2             	mov    %r12,%rdx
    c96f:	89 de                	mov    %ebx,%esi
    c971:	89 c7                	mov    %eax,%edi
    c973:	e8 19 04 00 00       	callq  cd91 <func_23>
    c978:	48 8b 85 48 ff ff ff 	mov    -0xb8(%rbp),%rax
    c97f:	44 89 f9             	mov    %r15d,%ecx
    c982:	44 89 f2             	mov    %r14d,%edx
    c985:	4c 89 ee             	mov    %r13,%rsi
    c988:	48 89 c7             	mov    %rax,%rdi
    c98b:	e8 32 01 00 00       	callq  cac2 <func_18>
    c990:	48 89 85 48 ff ff ff 	mov    %rax,-0xb8(%rbp)
    c997:	48 8b 85 58 ff ff ff 	mov    -0xa8(%rbp),%rax
    c99e:	48 8b 95 50 ff ff ff 	mov    -0xb0(%rbp),%rdx
    c9a5:	48 89 10             	mov    %rdx,(%rax)
    c9a8:	48 8b 05 49 c1 00 00 	mov    0xc149(%rip),%rax        # 18af8 <g_1295>
    c9af:	8b 10                	mov    (%rax),%edx
    c9b1:	0b 95 0c ff ff ff    	or     -0xf4(%rbp),%edx
    c9b7:	89 10                	mov    %edx,(%rax)
    c9b9:	8b 00                	mov    (%rax),%eax
    c9bb:	41 89 c4             	mov    %eax,%r12d
    c9be:	0f b7 05 d3 a6 00 00 	movzwl 0xa6d3(%rip),%eax        # 17098 <g_360>
    c9c5:	0f b6 d8             	movzbl %al,%ebx
    c9c8:	8b 85 0c ff ff ff    	mov    -0xf4(%rbp),%eax
    c9ce:	98                   	cwtl   
    c9cf:	be 09 00 00 00       	mov    $0x9,%esi
    c9d4:	89 c7                	mov    %eax,%edi
    c9d6:	e8 7a 8a ff ff       	callq  5455 <safe_div_func_int16_t_s_s>
    c9db:	48 8b 85 38 ff ff ff 	mov    -0xc8(%rbp),%rax
    c9e2:	48 c7 00 00 00 00 00 	movq   $0x0,(%rax)
    c9e9:	48 8b 85 38 ff ff ff 	mov    -0xc8(%rbp),%rax
    c9f0:	48 8b 00             	mov    (%rax),%rax
    c9f3:	48 85 c0             	test   %rax,%rax
    c9f6:	74 07                	je     c9ff <func_16+0x42f>
    c9f8:	83 bd 0c ff ff ff 00 	cmpl   $0x0,-0xf4(%rbp)
    c9ff:	89 de                	mov    %ebx,%esi
    ca01:	bf 00 00 00 00       	mov    $0x0,%edi
    ca06:	e8 88 91 ff ff       	callq  5b93 <safe_mul_func_uint8_t_u_u>
    ca0b:	0f b6 05 ae a7 00 00 	movzbl 0xa7ae(%rip),%eax        # 171c0 <g_1569>
    ca12:	83 e0 0f             	and    $0xf,%eax
    ca15:	84 c0                	test   %al,%al
    ca17:	74 11                	je     ca2a <func_16+0x45a>
    ca19:	8b 05 81 a6 00 00    	mov    0xa681(%rip),%eax        # 170a0 <g_449>
    ca1f:	85 c0                	test   %eax,%eax
    ca21:	74 07                	je     ca2a <func_16+0x45a>
    ca23:	b8 01 00 00 00       	mov    $0x1,%eax
    ca28:	eb 05                	jmp    ca2f <func_16+0x45f>
    ca2a:	b8 00 00 00 00       	mov    $0x0,%eax
    ca2f:	0b 85 0c ff ff ff    	or     -0xf4(%rbp),%eax
    ca35:	85 c0                	test   %eax,%eax
    ca37:	74 07                	je     ca40 <func_16+0x470>
    ca39:	83 bd 0c ff ff ff 00 	cmpl   $0x0,-0xf4(%rbp)
    ca40:	48 8b 05 b9 c7 00 00 	mov    0xc7b9(%rip),%rax        # 19200 <g_1603+0x40>
    ca47:	48 8d 15 52 c7 00 00 	lea    0xc752(%rip),%rdx        # 191a0 <g_1604>
    ca4e:	48 39 d0             	cmp    %rdx,%rax
    ca51:	0f 94 c0             	sete   %al
    ca54:	0f b6 d0             	movzbl %al,%edx
    ca57:	0f b7 05 ca a6 00 00 	movzwl 0xa6ca(%rip),%eax        # 17128 <g_628+0x28>
    ca5e:	98                   	cwtl   
    ca5f:	39 c2                	cmp    %eax,%edx
    ca61:	0f 94 c0             	sete   %al
    ca64:	0f b6 c0             	movzbl %al,%eax
    ca67:	be 06 00 00 00       	mov    $0x6,%esi
    ca6c:	89 c7                	mov    %eax,%edi
    ca6e:	e8 f7 87 ff ff       	callq  526a <safe_div_func_int8_t_s_s>
    ca73:	3c ff                	cmp    $0xff,%al
    ca75:	0f 95 c0             	setne  %al
    ca78:	0f b6 d0             	movzbl %al,%edx
    ca7b:	8b 05 c7 c6 00 00    	mov    0xc6c7(%rip),%eax        # 19148 <g_107>
    ca81:	31 d0                	xor    %edx,%eax
    ca83:	44 09 e0             	or     %r12d,%eax
    ca86:	83 f8 01             	cmp    $0x1,%eax
    ca89:	0f 94 c0             	sete   %al
    ca8c:	0f b6 c0             	movzbl %al,%eax
    ca8f:	66 89 85 16 ff ff ff 	mov    %ax,-0xea(%rbp)
    ca96:	8b 85 0c ff ff ff    	mov    -0xf4(%rbp),%eax
    ca9c:	48 8b 5d c8          	mov    -0x38(%rbp),%rbx
    caa0:	64 48 33 1c 25 28 00 	xor    %fs:0x28,%rbx
    caa7:	00 00 
    caa9:	74 05                	je     cab0 <func_16+0x4e0>
    caab:	e8 c0 85 ff ff       	callq  5070 <__stack_chk_fail@plt>
    cab0:	48 81 c4 f8 00 00 00 	add    $0xf8,%rsp
    cab7:	5b                   	pop    %rbx
    cab8:	41 5c                	pop    %r12
    caba:	41 5d                	pop    %r13
    cabc:	41 5e                	pop    %r14
    cabe:	41 5f                	pop    %r15
    cac0:	5d                   	pop    %rbp
    cac1:	c3                   	retq   

000000000000cac2 <func_18>:
    cac2:	f3 0f 1e fa          	endbr64 
    cac6:	55                   	push   %rbp
    cac7:	48 89 e5             	mov    %rsp,%rbp
    caca:	48 81 ec 80 02 00 00 	sub    $0x280,%rsp
    cad1:	48 89 bd 98 fd ff ff 	mov    %rdi,-0x268(%rbp)
    cad8:	48 89 b5 90 fd ff ff 	mov    %rsi,-0x270(%rbp)
    cadf:	89 95 8c fd ff ff    	mov    %edx,-0x274(%rbp)
    cae5:	89 c8                	mov    %ecx,%eax
    cae7:	66 89 85 88 fd ff ff 	mov    %ax,-0x278(%rbp)
    caee:	64 48 8b 04 25 28 00 	mov    %fs:0x28,%rax
    caf5:	00 00 
    caf7:	48 89 45 f8          	mov    %rax,-0x8(%rbp)
    cafb:	31 c0                	xor    %eax,%eax
    cafd:	48 8d 05 34 a5 00 00 	lea    0xa534(%rip),%rax        # 17038 <g_70>
    cb04:	48 89 85 b8 fd ff ff 	mov    %rax,-0x248(%rbp)
    cb0b:	48 c7 85 c0 fd ff ff 	movq   $0x0,-0x240(%rbp)
    cb12:	00 00 00 00 
    cb16:	48 8d 05 bb a5 00 00 	lea    0xa5bb(%rip),%rax        # 170d8 <g_459+0x8>
    cb1d:	48 89 85 c8 fd ff ff 	mov    %rax,-0x238(%rbp)
    cb24:	48 c7 85 b0 fd ff ff 	movq   $0x0,-0x250(%rbp)
    cb2b:	00 00 00 00 
    cb2f:	48 8d 85 b0 fd ff ff 	lea    -0x250(%rbp),%rax
    cb36:	48 89 85 d0 fd ff ff 	mov    %rax,-0x230(%rbp)
    cb3d:	48 8d 05 f8 a4 00 00 	lea    0xa4f8(%rip),%rax        # 1703c <g_95>
    cb44:	48 89 85 10 fe ff ff 	mov    %rax,-0x1f0(%rbp)
    cb4b:	48 8d 05 ea a4 00 00 	lea    0xa4ea(%rip),%rax        # 1703c <g_95>
    cb52:	48 89 85 18 fe ff ff 	mov    %rax,-0x1e8(%rbp)
    cb59:	48 8d 05 dc a4 00 00 	lea    0xa4dc(%rip),%rax        # 1703c <g_95>
    cb60:	48 89 85 20 fe ff ff 	mov    %rax,-0x1e0(%rbp)
    cb67:	48 8d 05 ce a4 00 00 	lea    0xa4ce(%rip),%rax        # 1703c <g_95>
    cb6e:	48 89 85 28 fe ff ff 	mov    %rax,-0x1d8(%rbp)
    cb75:	48 8d 05 c0 a4 00 00 	lea    0xa4c0(%rip),%rax        # 1703c <g_95>
    cb7c:	48 89 85 30 fe ff ff 	mov    %rax,-0x1d0(%rbp)
    cb83:	48 8d 05 b2 a4 00 00 	lea    0xa4b2(%rip),%rax        # 1703c <g_95>
    cb8a:	48 89 85 38 fe ff ff 	mov    %rax,-0x1c8(%rbp)
    cb91:	c7 85 a8 fd ff ff f9 	movl   $0xfffffff9,-0x258(%rbp)
    cb98:	ff ff ff 
    cb9b:	48 8d 05 88 a4 00 00 	lea    0xa488(%rip),%rax        # 1702a <g_61>
    cba2:	48 89 85 d8 fd ff ff 	mov    %rax,-0x228(%rbp)
    cba9:	c7 85 ac fd ff ff 26 	movl   $0x1efc8326,-0x254(%rbp)
    cbb0:	83 fc 1e 
    cbb3:	48 c7 85 e0 fd ff ff 	movq   $0x0,-0x220(%rbp)
    cbba:	00 00 00 00 
    cbbe:	c7 85 a4 fd ff ff 00 	movl   $0x0,-0x25c(%rbp)
    cbc5:	00 00 00 
    cbc8:	eb 1e                	jmp    cbe8 <func_18+0x126>
    cbca:	8b 85 a4 fd ff ff    	mov    -0x25c(%rbp),%eax
    cbd0:	48 98                	cltq   
    cbd2:	48 8d 15 63 a5 00 00 	lea    0xa563(%rip),%rdx        # 1713c <g_653>
    cbd9:	48 89 94 c5 f0 fd ff 	mov    %rdx,-0x210(%rbp,%rax,8)
    cbe0:	ff 
    cbe1:	83 85 a4 fd ff ff 01 	addl   $0x1,-0x25c(%rbp)
    cbe8:	83 bd a4 fd ff ff 02 	cmpl   $0x2,-0x25c(%rbp)
    cbef:	7e d9                	jle    cbca <func_18+0x108>
    cbf1:	48 8b 85 b8 fd ff ff 	mov    -0x248(%rbp),%rax
    cbf8:	48 89 85 98 fd ff ff 	mov    %rax,-0x268(%rbp)
    cbff:	48 c7 05 7e a4 00 00 	movq   $0x0,0xa47e(%rip)        # 17088 <g_262>
    cc06:	00 00 00 00 
    cc0a:	90                   	nop
    cc0b:	48 8b 05 76 a4 00 00 	mov    0xa476(%rip),%rax        # 17088 <g_262>
    cc12:	48 83 f8 2f          	cmp    $0x2f,%rax
    cc16:	0f 85 85 00 00 00    	jne    cca1 <func_18+0x1df>
    cc1c:	48 8d 85 40 fe ff ff 	lea    -0x1c0(%rbp),%rax
    cc23:	48 8d 15 d6 67 00 00 	lea    0x67d6(%rip),%rdx        # 13400 <g_2076+0x3a0>
    cc2a:	b9 36 00 00 00       	mov    $0x36,%ecx
    cc2f:	48 89 c7             	mov    %rax,%rdi
    cc32:	48 89 d6             	mov    %rdx,%rsi
    cc35:	f3 48 a5             	rep movsq %ds:(%rsi),%es:(%rdi)
    cc38:	48 8d 05 f9 a3 00 00 	lea    0xa3f9(%rip),%rax        # 17038 <g_70>
    cc3f:	48 89 85 e8 fd ff ff 	mov    %rax,-0x218(%rbp)
    cc46:	48 8b 15 13 bc 00 00 	mov    0xbc13(%rip),%rdx        # 18860 <g_763>
    cc4d:	48 8b 05 0c bc 00 00 	mov    0xbc0c(%rip),%rax        # 18860 <g_763>
    cc54:	48 8b 12             	mov    (%rdx),%rdx
    cc57:	48 89 10             	mov    %rdx,(%rax)
    cc5a:	0f b7 45 a2          	movzwl -0x5e(%rbp),%eax
    cc5e:	0f bf d0             	movswl %ax,%edx
    cc61:	8b 85 8c fd ff ff    	mov    -0x274(%rbp),%eax
    cc67:	98                   	cwtl   
    cc68:	89 d6                	mov    %edx,%esi
    cc6a:	89 c7                	mov    %eax,%edi
    cc6c:	e8 42 87 ff ff       	callq  53b3 <safe_add_func_int16_t_s_s>
    cc71:	48 8b 95 98 fd ff ff 	mov    -0x268(%rbp),%rdx
    cc78:	8b 12                	mov    (%rdx),%edx
    cc7a:	98                   	cwtl   
    cc7b:	21 c2                	and    %eax,%edx
    cc7d:	48 8b 85 98 fd ff ff 	mov    -0x268(%rbp),%rax
    cc84:	89 10                	mov    %edx,(%rax)
    cc86:	8b 05 ac a3 00 00    	mov    0xa3ac(%rip),%eax        # 17038 <g_70>
    cc8c:	85 c0                	test   %eax,%eax
    cc8e:	74 05                	je     cc95 <func_18+0x1d3>
    cc90:	e9 6a ff ff ff       	jmpq   cbff <func_18+0x13d>
    cc95:	48 8b 85 e8 fd ff ff 	mov    -0x218(%rbp),%rax
    cc9c:	e9 da 00 00 00       	jmpq   cd7b <func_18+0x2b9>
    cca1:	48 8b 85 f0 fd ff ff 	mov    -0x210(%rbp),%rax
    cca8:	48 89 85 f0 fd ff ff 	mov    %rax,-0x210(%rbp)
    ccaf:	0f bf 95 88 fd ff ff 	movswl -0x278(%rbp),%edx
    ccb6:	48 8d 85 b0 fd ff ff 	lea    -0x250(%rbp),%rax
    ccbd:	48 39 85 d0 fd ff ff 	cmp    %rax,-0x230(%rbp)
    ccc4:	0f 95 c0             	setne  %al
    ccc7:	0f b6 c0             	movzbl %al,%eax
    ccca:	89 85 a8 fd ff ff    	mov    %eax,-0x258(%rbp)
    ccd0:	8b 85 8c fd ff ff    	mov    -0x274(%rbp),%eax
    ccd6:	39 85 a8 fd ff ff    	cmp    %eax,-0x258(%rbp)
    ccdc:	0f 94 c0             	sete   %al
    ccdf:	0f b6 c8             	movzbl %al,%ecx
    cce2:	48 8b 85 d8 fd ff ff 	mov    -0x228(%rbp),%rax
    cce9:	0f b6 00             	movzbl (%rax),%eax
    ccec:	89 c6                	mov    %eax,%esi
    ccee:	89 c8                	mov    %ecx,%eax
    ccf0:	09 f0                	or     %esi,%eax
    ccf2:	89 c1                	mov    %eax,%ecx
    ccf4:	48 8b 85 d8 fd ff ff 	mov    -0x228(%rbp),%rax
    ccfb:	88 08                	mov    %cl,(%rax)
    ccfd:	48 8b 85 d8 fd ff ff 	mov    -0x228(%rbp),%rax
    cd04:	0f b6 00             	movzbl (%rax),%eax
    cd07:	3c 01                	cmp    $0x1,%al
    cd09:	0f 94 c0             	sete   %al
    cd0c:	0f b6 c8             	movzbl %al,%ecx
    cd0f:	48 8b 05 ca bd 00 00 	mov    0xbdca(%rip),%rax        # 18ae0 <g_1167>
    cd16:	48 8b 00             	mov    (%rax),%rax
    cd19:	48 8b 00             	mov    (%rax),%rax
    cd1c:	48 39 c1             	cmp    %rax,%rcx
    cd1f:	0f 9c c0             	setl   %al
    cd22:	0f b6 c0             	movzbl %al,%eax
    cd25:	39 85 ac fd ff ff    	cmp    %eax,-0x254(%rbp)
    cd2b:	0f 92 c0             	setb   %al
    cd2e:	0f b6 c0             	movzbl %al,%eax
    cd31:	89 d6                	mov    %edx,%esi
    cd33:	89 c7                	mov    %eax,%edi
    cd35:	e8 99 86 ff ff       	callq  53d3 <safe_sub_func_int16_t_s_s>
    cd3a:	98                   	cwtl   
    cd3b:	f7 d0                	not    %eax
    cd3d:	89 c6                	mov    %eax,%esi
    cd3f:	bf 01 00 00 00       	mov    $0x1,%edi
    cd44:	e8 6d 88 ff ff       	callq  55b6 <safe_add_func_int32_t_s_s>
    cd49:	89 c2                	mov    %eax,%edx
    cd4b:	48 8b 85 c0 fd ff ff 	mov    -0x240(%rbp),%rax
    cd52:	48 3b 85 c8 fd ff ff 	cmp    -0x238(%rbp),%rax
    cd59:	0f 95 c0             	setne  %al
    cd5c:	0f b6 c0             	movzbl %al,%eax
    cd5f:	89 d6                	mov    %edx,%esi
    cd61:	89 c7                	mov    %eax,%edi
    cd63:	e8 fb 87 ff ff       	callq  5563 <safe_rshift_func_int16_t_s_u>
    cd68:	0f bf d0             	movswl %ax,%edx
    cd6b:	48 8b 85 b8 fd ff ff 	mov    -0x248(%rbp),%rax
    cd72:	89 10                	mov    %edx,(%rax)
    cd74:	48 8b 85 e0 fd ff ff 	mov    -0x220(%rbp),%rax
    cd7b:	48 8b 7d f8          	mov    -0x8(%rbp),%rdi
    cd7f:	64 48 33 3c 25 28 00 	xor    %fs:0x28,%rdi
    cd86:	00 00 
    cd88:	74 05                	je     cd8f <func_18+0x2cd>
    cd8a:	e8 e1 82 ff ff       	callq  5070 <__stack_chk_fail@plt>
    cd8f:	c9                   	leaveq 
    cd90:	c3                   	retq   

000000000000cd91 <func_23>:
    cd91:	f3 0f 1e fa          	endbr64 
    cd95:	55                   	push   %rbp
    cd96:	48 89 e5             	mov    %rsp,%rbp
    cd99:	41 56                	push   %r14
    cd9b:	41 55                	push   %r13
    cd9d:	41 54                	push   %r12
    cd9f:	53                   	push   %rbx
    cda0:	48 81 ec 40 07 00 00 	sub    $0x740,%rsp
    cda7:	89 f9                	mov    %edi,%ecx
    cda9:	89 f0                	mov    %esi,%eax
    cdab:	48 89 95 a0 f8 ff ff 	mov    %rdx,-0x760(%rbp)
    cdb2:	89 ca                	mov    %ecx,%edx
    cdb4:	88 95 ac f8 ff ff    	mov    %dl,-0x754(%rbp)
    cdba:	88 85 a8 f8 ff ff    	mov    %al,-0x758(%rbp)
    cdc0:	64 48 8b 04 25 28 00 	mov    %fs:0x28,%rax
    cdc7:	00 00 
    cdc9:	48 89 45 d8          	mov    %rax,-0x28(%rbp)
    cdcd:	31 c0                	xor    %eax,%eax
    cdcf:	48 8d 85 70 fa ff ff 	lea    -0x590(%rbp),%rax
    cdd6:	48 89 85 f8 f8 ff ff 	mov    %rax,-0x708(%rbp)
    cddd:	48 8d 05 58 a2 00 00 	lea    0xa258(%rip),%rax        # 1703c <g_95>
    cde4:	48 89 85 00 f9 ff ff 	mov    %rax,-0x700(%rbp)
    cdeb:	c7 85 b4 f8 ff ff 7f 	movl   $0xb001b57f,-0x74c(%rbp)
    cdf2:	b5 01 b0 
    cdf5:	48 8d 05 45 a3 00 00 	lea    0xa345(%rip),%rax        # 17141 <g_742>
    cdfc:	48 89 85 c0 fa ff ff 	mov    %rax,-0x540(%rbp)
    ce03:	48 8d 05 1f a2 00 00 	lea    0xa21f(%rip),%rax        # 17029 <g_32>
    ce0a:	48 89 85 c8 fa ff ff 	mov    %rax,-0x538(%rbp)
    ce11:	48 8d 05 82 a2 00 00 	lea    0xa282(%rip),%rax        # 1709a <g_361>
    ce18:	48 89 85 d0 fa ff ff 	mov    %rax,-0x530(%rbp)
    ce1f:	48 c7 85 d8 fa ff ff 	movq   $0x0,-0x528(%rbp)
    ce26:	00 00 00 00 
    ce2a:	48 8d 05 10 a3 00 00 	lea    0xa310(%rip),%rax        # 17141 <g_742>
    ce31:	48 89 85 e0 fa ff ff 	mov    %rax,-0x520(%rbp)
    ce38:	48 8d 05 02 a3 00 00 	lea    0xa302(%rip),%rax        # 17141 <g_742>
    ce3f:	48 89 85 e8 fa ff ff 	mov    %rax,-0x518(%rbp)
    ce46:	48 8d 05 f4 a2 00 00 	lea    0xa2f4(%rip),%rax        # 17141 <g_742>
    ce4d:	48 89 85 f0 fa ff ff 	mov    %rax,-0x510(%rbp)
    ce54:	48 c7 85 f8 fa ff ff 	movq   $0x0,-0x508(%rbp)
    ce5b:	00 00 00 00 
    ce5f:	48 8d 05 34 a2 00 00 	lea    0xa234(%rip),%rax        # 1709a <g_361>
    ce66:	48 89 85 00 fb ff ff 	mov    %rax,-0x500(%rbp)
    ce6d:	48 8d 05 b6 a1 00 00 	lea    0xa1b6(%rip),%rax        # 1702a <g_61>
    ce74:	48 89 85 08 fb ff ff 	mov    %rax,-0x4f8(%rbp)
    ce7b:	48 c7 85 10 fb ff ff 	movq   $0x0,-0x4f0(%rbp)
    ce82:	00 00 00 00 
    ce86:	48 8d 05 0d a2 00 00 	lea    0xa20d(%rip),%rax        # 1709a <g_361>
    ce8d:	48 89 85 18 fb ff ff 	mov    %rax,-0x4e8(%rbp)
    ce94:	48 8d 05 a6 a2 00 00 	lea    0xa2a6(%rip),%rax        # 17141 <g_742>
    ce9b:	48 89 85 20 fb ff ff 	mov    %rax,-0x4e0(%rbp)
    cea2:	48 8d 05 f1 a1 00 00 	lea    0xa1f1(%rip),%rax        # 1709a <g_361>
    cea9:	48 89 85 28 fb ff ff 	mov    %rax,-0x4d8(%rbp)
    ceb0:	48 8d 05 8a a2 00 00 	lea    0xa28a(%rip),%rax        # 17141 <g_742>
    ceb7:	48 89 85 30 fb ff ff 	mov    %rax,-0x4d0(%rbp)
    cebe:	48 8d 05 d5 a1 00 00 	lea    0xa1d5(%rip),%rax        # 1709a <g_361>
    cec5:	48 89 85 38 fb ff ff 	mov    %rax,-0x4c8(%rbp)
    cecc:	48 8d 05 56 a1 00 00 	lea    0xa156(%rip),%rax        # 17029 <g_32>
    ced3:	48 89 85 40 fb ff ff 	mov    %rax,-0x4c0(%rbp)
    ceda:	48 8d 05 b9 a1 00 00 	lea    0xa1b9(%rip),%rax        # 1709a <g_361>
    cee1:	48 89 85 48 fb ff ff 	mov    %rax,-0x4b8(%rbp)
    cee8:	48 8d 05 ab a1 00 00 	lea    0xa1ab(%rip),%rax        # 1709a <g_361>
    ceef:	48 89 85 50 fb ff ff 	mov    %rax,-0x4b0(%rbp)
    cef6:	48 8d 05 9d a1 00 00 	lea    0xa19d(%rip),%rax        # 1709a <g_361>
    cefd:	48 89 85 58 fb ff ff 	mov    %rax,-0x4a8(%rbp)
    cf04:	48 8d 05 1e a1 00 00 	lea    0xa11e(%rip),%rax        # 17029 <g_32>
    cf0b:	48 89 85 60 fb ff ff 	mov    %rax,-0x4a0(%rbp)
    cf12:	48 8d 05 10 a1 00 00 	lea    0xa110(%rip),%rax        # 17029 <g_32>
    cf19:	48 89 85 68 fb ff ff 	mov    %rax,-0x498(%rbp)
    cf20:	48 c7 85 70 fb ff ff 	movq   $0x0,-0x490(%rbp)
    cf27:	00 00 00 00 
    cf2b:	48 8d 05 f8 a0 00 00 	lea    0xa0f8(%rip),%rax        # 1702a <g_61>
    cf32:	48 89 85 78 fb ff ff 	mov    %rax,-0x488(%rbp)
    cf39:	48 8d 05 e9 a0 00 00 	lea    0xa0e9(%rip),%rax        # 17029 <g_32>
    cf40:	48 89 85 80 fb ff ff 	mov    %rax,-0x480(%rbp)
    cf47:	48 c7 85 88 fb ff ff 	movq   $0x0,-0x478(%rbp)
    cf4e:	00 00 00 00 
    cf52:	48 8d 05 41 a1 00 00 	lea    0xa141(%rip),%rax        # 1709a <g_361>
    cf59:	48 89 85 90 fb ff ff 	mov    %rax,-0x470(%rbp)
    cf60:	48 8d 05 33 a1 00 00 	lea    0xa133(%rip),%rax        # 1709a <g_361>
    cf67:	48 89 85 98 fb ff ff 	mov    %rax,-0x468(%rbp)
    cf6e:	48 8d 05 cc a1 00 00 	lea    0xa1cc(%rip),%rax        # 17141 <g_742>
    cf75:	48 89 85 a0 fb ff ff 	mov    %rax,-0x460(%rbp)
    cf7c:	48 c7 85 a8 fb ff ff 	movq   $0x0,-0x458(%rbp)
    cf83:	00 00 00 00 
    cf87:	66 c7 85 f0 f9 ff ff 	movw   $0xac8f,-0x610(%rbp)
    cf8e:	8f ac 
    cf90:	66 c7 85 f2 f9 ff ff 	movw   $0x0,-0x60e(%rbp)
    cf97:	00 00 
    cf99:	66 c7 85 f4 f9 ff ff 	movw   $0x4056,-0x60c(%rbp)
    cfa0:	56 40 
    cfa2:	66 c7 85 f6 f9 ff ff 	movw   $0x852b,-0x60a(%rbp)
    cfa9:	2b 85 
    cfab:	66 c7 85 f8 f9 ff ff 	movw   $0x852b,-0x608(%rbp)
    cfb2:	2b 85 
    cfb4:	66 c7 85 fa f9 ff ff 	movw   $0x4056,-0x606(%rbp)
    cfbb:	56 40 
    cfbd:	66 c7 85 fc f9 ff ff 	movw   $0x0,-0x604(%rbp)
    cfc4:	00 00 
    cfc6:	66 c7 85 fe f9 ff ff 	movw   $0xac8f,-0x602(%rbp)
    cfcd:	8f ac 
    cfcf:	66 c7 85 00 fa ff ff 	movw   $0xac8f,-0x600(%rbp)
    cfd6:	8f ac 
    cfd8:	66 c7 85 02 fa ff ff 	movw   $0x0,-0x5fe(%rbp)
    cfdf:	00 00 
    cfe1:	66 c7 85 04 fa ff ff 	movw   $0x4056,-0x5fc(%rbp)
    cfe8:	56 40 
    cfea:	66 c7 85 06 fa ff ff 	movw   $0x852b,-0x5fa(%rbp)
    cff1:	2b 85 
    cff3:	66 c7 85 08 fa ff ff 	movw   $0x852b,-0x5f8(%rbp)
    cffa:	2b 85 
    cffc:	66 c7 85 0a fa ff ff 	movw   $0x4056,-0x5f6(%rbp)
    d003:	56 40 
    d005:	66 c7 85 0c fa ff ff 	movw   $0x0,-0x5f4(%rbp)
    d00c:	00 00 
    d00e:	66 c7 85 0e fa ff ff 	movw   $0xac8f,-0x5f2(%rbp)
    d015:	8f ac 
    d017:	66 c7 85 10 fa ff ff 	movw   $0xac8f,-0x5f0(%rbp)
    d01e:	8f ac 
    d020:	66 c7 85 12 fa ff ff 	movw   $0x0,-0x5ee(%rbp)
    d027:	00 00 
    d029:	66 c7 85 14 fa ff ff 	movw   $0x4056,-0x5ec(%rbp)
    d030:	56 40 
    d032:	66 c7 85 16 fa ff ff 	movw   $0x852b,-0x5ea(%rbp)
    d039:	2b 85 
    d03b:	66 c7 85 18 fa ff ff 	movw   $0x852b,-0x5e8(%rbp)
    d042:	2b 85 
    d044:	66 c7 85 1a fa ff ff 	movw   $0x4056,-0x5e6(%rbp)
    d04b:	56 40 
    d04d:	66 c7 85 1c fa ff ff 	movw   $0x0,-0x5e4(%rbp)
    d054:	00 00 
    d056:	66 c7 85 1e fa ff ff 	movw   $0xac8f,-0x5e2(%rbp)
    d05d:	8f ac 
    d05f:	66 c7 85 20 fa ff ff 	movw   $0xac8f,-0x5e0(%rbp)
    d066:	8f ac 
    d068:	66 c7 85 22 fa ff ff 	movw   $0x0,-0x5de(%rbp)
    d06f:	00 00 
    d071:	66 c7 85 24 fa ff ff 	movw   $0x4056,-0x5dc(%rbp)
    d078:	56 40 
    d07a:	66 c7 85 26 fa ff ff 	movw   $0x852b,-0x5da(%rbp)
    d081:	2b 85 
    d083:	66 c7 85 28 fa ff ff 	movw   $0x852b,-0x5d8(%rbp)
    d08a:	2b 85 
    d08c:	66 c7 85 2a fa ff ff 	movw   $0x4056,-0x5d6(%rbp)
    d093:	56 40 
    d095:	66 c7 85 2c fa ff ff 	movw   $0x0,-0x5d4(%rbp)
    d09c:	00 00 
    d09e:	66 c7 85 2e fa ff ff 	movw   $0xac8f,-0x5d2(%rbp)
    d0a5:	8f ac 
    d0a7:	c7 85 30 fa ff ff 05 	movl   $0x5,-0x5d0(%rbp)
    d0ae:	00 00 00 
    d0b1:	c7 85 34 fa ff ff 05 	movl   $0x5,-0x5cc(%rbp)
    d0b8:	00 00 00 
    d0bb:	c7 85 38 fa ff ff f6 	movl   $0xfffffff6,-0x5c8(%rbp)
    d0c2:	ff ff ff 
    d0c5:	c7 85 3c fa ff ff 05 	movl   $0x5,-0x5c4(%rbp)
    d0cc:	00 00 00 
    d0cf:	c7 85 40 fa ff ff 05 	movl   $0x5,-0x5c0(%rbp)
    d0d6:	00 00 00 
    d0d9:	c7 85 44 fa ff ff f6 	movl   $0xfffffff6,-0x5bc(%rbp)
    d0e0:	ff ff ff 
    d0e3:	c7 85 48 fa ff ff 05 	movl   $0x5,-0x5b8(%rbp)
    d0ea:	00 00 00 
    d0ed:	c7 85 4c fa ff ff 05 	movl   $0x5,-0x5b4(%rbp)
    d0f4:	00 00 00 
    d0f7:	c7 85 50 fa ff ff f6 	movl   $0xfffffff6,-0x5b0(%rbp)
    d0fe:	ff ff ff 
    d101:	c7 85 54 fa ff ff 05 	movl   $0x5,-0x5ac(%rbp)
    d108:	00 00 00 
    d10b:	c7 85 58 fa ff ff 05 	movl   $0x5,-0x5a8(%rbp)
    d112:	00 00 00 
    d115:	c7 85 5c fa ff ff f6 	movl   $0xfffffff6,-0x5a4(%rbp)
    d11c:	ff ff ff 
    d11f:	c7 85 60 fa ff ff 05 	movl   $0x5,-0x5a0(%rbp)
    d126:	00 00 00 
    d129:	c7 85 64 fa ff ff 05 	movl   $0x5,-0x59c(%rbp)
    d130:	00 00 00 
    d133:	c7 85 68 fa ff ff f6 	movl   $0xfffffff6,-0x598(%rbp)
    d13a:	ff ff ff 
    d13d:	c7 85 6c fa ff ff 05 	movl   $0x5,-0x594(%rbp)
    d144:	00 00 00 
    d147:	48 8d 05 e2 9e 00 00 	lea    0x9ee2(%rip),%rax        # 17030 <g_64>
    d14e:	48 89 85 08 f9 ff ff 	mov    %rax,-0x6f8(%rbp)
    d155:	48 8d 05 2c c0 00 00 	lea    0xc02c(%rip),%rax        # 19188 <g_1223>
    d15c:	48 89 85 10 f9 ff ff 	mov    %rax,-0x6f0(%rbp)
    d163:	48 8d 05 e6 bf 00 00 	lea    0xbfe6(%rip),%rax        # 19150 <g_188>
    d16a:	48 89 85 e0 f8 ff ff 	mov    %rax,-0x720(%rbp)
    d171:	48 8d 85 e0 f8 ff ff 	lea    -0x720(%rbp),%rax
    d178:	48 89 85 18 f9 ff ff 	mov    %rax,-0x6e8(%rbp)
    d17f:	c7 85 b8 f8 ff ff 01 	movl   $0x1,-0x748(%rbp)
    d186:	00 00 00 
    d189:	48 b8 94 49 19 9a 79 	movabs $0x586a92799a194994,%rax
    d190:	92 6a 58 
    d193:	48 89 85 20 f9 ff ff 	mov    %rax,-0x6e0(%rbp)
    d19a:	48 8d 85 b8 f8 ff ff 	lea    -0x748(%rbp),%rax
    d1a1:	48 89 85 28 f9 ff ff 	mov    %rax,-0x6d8(%rbp)
    d1a8:	48 8d 05 8d 9e 00 00 	lea    0x9e8d(%rip),%rax        # 1703c <g_95>
    d1af:	48 89 85 30 f9 ff ff 	mov    %rax,-0x6d0(%rbp)
    d1b6:	66 c7 85 b0 f8 ff ff 	movw   $0x174a,-0x750(%rbp)
    d1bd:	4a 17 
    d1bf:	c7 85 bc f8 ff ff 00 	movl   $0x0,-0x744(%rbp)
    d1c6:	00 00 00 
    d1c9:	eb 1e                	jmp    d1e9 <func_23+0x458>
    d1cb:	8b 85 bc f8 ff ff    	mov    -0x744(%rbp),%eax
    d1d1:	48 98                	cltq   
    d1d3:	48 8d 15 9e 9f 00 00 	lea    0x9f9e(%rip),%rdx        # 17178 <g_1149>
    d1da:	48 89 94 c5 70 fa ff 	mov    %rdx,-0x590(%rbp,%rax,8)
    d1e1:	ff 
    d1e2:	83 85 bc f8 ff ff 01 	addl   $0x1,-0x744(%rbp)
    d1e9:	83 bd bc f8 ff ff 08 	cmpl   $0x8,-0x744(%rbp)
    d1f0:	7e d9                	jle    d1cb <func_23+0x43a>
    d1f2:	48 8b 85 f8 f8 ff ff 	mov    -0x708(%rbp),%rax
    d1f9:	48 c7 00 00 00 00 00 	movq   $0x0,(%rax)
    d200:	48 8b 05 51 b6 00 00 	mov    0xb651(%rip),%rax        # 18858 <g_734>
    d207:	48 8b 00             	mov    (%rax),%rax
    d20a:	48 8b 00             	mov    (%rax),%rax
    d20d:	48 85 c0             	test   %rax,%rax
    d210:	0f b7 85 24 fa ff ff 	movzwl -0x5dc(%rbp),%eax
    d217:	0f bf d8             	movswl %ax,%ebx
    d21a:	44 8b 25 7b 9e 00 00 	mov    0x9e7b(%rip),%r12d        # 1709c <g_385>
    d221:	66 0f be 85 ac f8 ff 	movsbw -0x754(%rbp),%ax
    d228:	ff 
    d229:	44 0f b7 e8          	movzwl %ax,%r13d
    d22d:	0f b6 85 a8 f8 ff ff 	movzbl -0x758(%rbp),%eax
    d234:	0f b6 c0             	movzbl %al,%eax
    d237:	be 09 00 00 00       	mov    $0x9,%esi
    d23c:	89 c7                	mov    %eax,%edi
    d23e:	e8 20 83 ff ff       	callq  5563 <safe_rshift_func_int16_t_s_u>
    d243:	66 83 f8 ff          	cmp    $0xffff,%ax
    d247:	0f 9d c0             	setge  %al
    d24a:	0f b6 d0             	movzbl %al,%edx
    d24d:	48 8b 85 00 f9 ff ff 	mov    -0x700(%rbp),%rax
    d254:	66 89 10             	mov    %dx,(%rax)
    d257:	48 8b 85 00 f9 ff ff 	mov    -0x700(%rbp),%rax
    d25e:	0f b7 00             	movzwl (%rax),%eax
    d261:	0f b7 c0             	movzwl %ax,%eax
    d264:	44 89 ee             	mov    %r13d,%esi
    d267:	89 c7                	mov    %eax,%edi
    d269:	e8 cf 8a ff ff       	callq  5d3d <safe_mul_func_uint16_t_u_u>
    d26e:	8b 85 b4 f8 ff ff    	mov    -0x74c(%rbp),%eax
    d274:	0f b6 c0             	movzbl %al,%eax
    d277:	be 03 00 00 00       	mov    $0x3,%esi
    d27c:	89 c7                	mov    %eax,%edi
    d27e:	e8 82 89 ff ff       	callq  5c05 <safe_lshift_func_uint8_t_u_s>
    d283:	84 c0                	test   %al,%al
    d285:	74 12                	je     d299 <func_23+0x508>
    d287:	0f b6 85 a8 f8 ff ff 	movzbl -0x758(%rbp),%eax
    d28e:	84 c0                	test   %al,%al
    d290:	74 07                	je     d299 <func_23+0x508>
    d292:	b8 01 00 00 00       	mov    $0x1,%eax
    d297:	eb 05                	jmp    d29e <func_23+0x50d>
    d299:	b8 00 00 00 00       	mov    $0x0,%eax
    d29e:	89 85 b4 f8 ff ff    	mov    %eax,-0x74c(%rbp)
    d2a4:	8b 85 b4 f8 ff ff    	mov    -0x74c(%rbp),%eax
    d2aa:	48 98                	cltq   
    d2ac:	89 c2                	mov    %eax,%edx
    d2ae:	0f b6 05 e5 9d 00 00 	movzbl 0x9de5(%rip),%eax        # 1709a <g_361>
    d2b5:	31 d0                	xor    %edx,%eax
    d2b7:	88 05 dd 9d 00 00    	mov    %al,0x9ddd(%rip)        # 1709a <g_361>
    d2bd:	0f b6 05 d6 9d 00 00 	movzbl 0x9dd6(%rip),%eax        # 1709a <g_361>
    d2c4:	0f b6 c0             	movzbl %al,%eax
    d2c7:	44 89 e6             	mov    %r12d,%esi
    d2ca:	89 c7                	mov    %eax,%edi
    d2cc:	e8 7b 89 ff ff       	callq  5c4c <safe_lshift_func_uint8_t_u_u>
    d2d1:	3c 70                	cmp    $0x70,%al
    d2d3:	77 07                	ja     d2dc <func_23+0x54b>
    d2d5:	b8 01 00 00 00       	mov    $0x1,%eax
    d2da:	eb 05                	jmp    d2e1 <func_23+0x550>
    d2dc:	b8 00 00 00 00       	mov    $0x0,%eax
    d2e1:	89 c6                	mov    %eax,%esi
    d2e3:	bf 5c 34 00 00       	mov    $0x345c,%edi
    d2e8:	e8 8d 8b ff ff       	callq  5e7a <safe_rshift_func_uint16_t_u_u>
    d2ed:	89 c2                	mov    %eax,%edx
    d2ef:	0f b6 05 34 9d 00 00 	movzbl 0x9d34(%rip),%eax        # 1702a <g_61>
    d2f6:	21 d0                	and    %edx,%eax
    d2f8:	88 05 2c 9d 00 00    	mov    %al,0x9d2c(%rip)        # 1702a <g_61>
    d2fe:	0f b6 05 25 9d 00 00 	movzbl 0x9d25(%rip),%eax        # 1702a <g_61>
    d305:	0f be d0             	movsbl %al,%edx
    d308:	48 8b 05 49 b5 00 00 	mov    0xb549(%rip),%rax        # 18858 <g_734>
    d30f:	48 8b 00             	mov    (%rax),%rax
    d312:	48 8b 00             	mov    (%rax),%rax
    d315:	0f b6 00             	movzbl (%rax),%eax
    d318:	0f be c0             	movsbl %al,%eax
    d31b:	89 d6                	mov    %edx,%esi
    d31d:	89 c7                	mov    %eax,%edi
    d31f:	e8 0d 7f ff ff       	callq  5231 <safe_mod_func_int8_t_s_s>
    d324:	0f b7 85 10 fa ff ff 	movzwl -0x5f0(%rbp),%eax
    d32b:	66 3d ff 64          	cmp    $0x64ff,%ax
    d32f:	89 de                	mov    %ebx,%esi
    d331:	bf bf 92 e6 8a       	mov    $0x8ae692bf,%edi
    d336:	e8 c4 83 ff ff       	callq  56ff <safe_div_func_int32_t_s_s>
    d33b:	ba 01 00 00 00       	mov    $0x1,%edx
    d340:	8b 85 54 fa ff ff    	mov    -0x5ac(%rbp),%eax
    d346:	21 d0                	and    %edx,%eax
    d348:	89 85 54 fa ff ff    	mov    %eax,-0x5ac(%rbp)
    d34e:	c7 05 f0 9d 00 00 00 	movl   $0x0,0x9df0(%rip)        # 17148 <g_823>
    d355:	00 00 00 
    d358:	e9 3f 07 00 00       	jmpq   da9c <func_23+0xd0b>
    d35d:	48 b8 5b 2c c3 79 4e 	movabs $0x1ca27b4e79c32c5b,%rax
    d364:	7b a2 1c 
    d367:	48 89 85 b0 f9 ff ff 	mov    %rax,-0x650(%rbp)
    d36e:	48 89 85 b8 f9 ff ff 	mov    %rax,-0x648(%rbp)
    d375:	48 89 85 c0 f9 ff ff 	mov    %rax,-0x640(%rbp)
    d37c:	48 89 85 c8 f9 ff ff 	mov    %rax,-0x638(%rbp)
    d383:	48 89 85 d0 f9 ff ff 	mov    %rax,-0x630(%rbp)
    d38a:	48 89 85 d8 f9 ff ff 	mov    %rax,-0x628(%rbp)
    d391:	48 89 85 e0 f9 ff ff 	mov    %rax,-0x620(%rbp)
    d398:	c7 85 c4 f8 ff ff a2 	movl   $0x38eaf1a2,-0x73c(%rbp)
    d39f:	f1 ea 38 
    d3a2:	48 8d 05 95 9c 00 00 	lea    0x9c95(%rip),%rax        # 1703e <g_124>
    d3a9:	48 89 85 50 f9 ff ff 	mov    %rax,-0x6b0(%rbp)
    d3b0:	48 8d 05 31 9d 00 00 	lea    0x9d31(%rip),%rax        # 170e8 <g_627>
    d3b7:	48 89 85 58 f9 ff ff 	mov    %rax,-0x6a8(%rbp)
    d3be:	c7 85 c8 f8 ff ff ff 	movl   $0xffffffff,-0x738(%rbp)
    d3c5:	ff ff ff 
    d3c8:	c7 85 cc f8 ff ff ff 	movl   $0xffffffff,-0x734(%rbp)
    d3cf:	ff ff ff 
    d3d2:	48 8d 85 d0 fc ff ff 	lea    -0x330(%rbp),%rax
    d3d9:	48 8d 15 e0 61 00 00 	lea    0x61e0(%rip),%rdx        # 135c0 <g_2076+0x560>
    d3e0:	b9 28 00 00 00       	mov    $0x28,%ecx
    d3e5:	48 89 c7             	mov    %rax,%rdi
    d3e8:	48 89 d6             	mov    %rdx,%rsi
    d3eb:	f3 48 a5             	rep movsq %ds:(%rsi),%es:(%rdi)
    d3ee:	48 8d 05 93 9d 00 00 	lea    0x9d93(%rip),%rax        # 17188 <g_1297+0x8>
    d3f5:	48 89 85 60 f9 ff ff 	mov    %rax,-0x6a0(%rbp)
    d3fc:	48 8d 05 7d bd 00 00 	lea    0xbd7d(%rip),%rax        # 19180 <g_857>
    d403:	48 89 85 68 f9 ff ff 	mov    %rax,-0x698(%rbp)
    d40a:	48 8d 85 c0 fa ff ff 	lea    -0x540(%rbp),%rax
    d411:	48 83 c0 68          	add    $0x68,%rax
    d415:	48 89 85 b0 fb ff ff 	mov    %rax,-0x450(%rbp)
    d41c:	48 c7 85 b8 fb ff ff 	movq   $0x0,-0x448(%rbp)
    d423:	00 00 00 00 
    d427:	48 8d 85 c0 fa ff ff 	lea    -0x540(%rbp),%rax
    d42e:	48 83 c0 68          	add    $0x68,%rax
    d432:	48 89 85 c0 fb ff ff 	mov    %rax,-0x440(%rbp)
    d439:	48 c7 85 c8 fb ff ff 	movq   $0x0,-0x438(%rbp)
    d440:	00 00 00 00 
    d444:	48 8d 85 c0 fa ff ff 	lea    -0x540(%rbp),%rax
    d44b:	48 83 c0 40          	add    $0x40,%rax
    d44f:	48 89 85 d0 fb ff ff 	mov    %rax,-0x430(%rbp)
    d456:	48 c7 85 d8 fb ff ff 	movq   $0x0,-0x428(%rbp)
    d45d:	00 00 00 00 
    d461:	48 8d 85 c0 fa ff ff 	lea    -0x540(%rbp),%rax
    d468:	48 05 c8 00 00 00    	add    $0xc8,%rax
    d46e:	48 89 85 e0 fb ff ff 	mov    %rax,-0x420(%rbp)
    d475:	48 c7 85 e8 fb ff ff 	movq   $0x0,-0x418(%rbp)
    d47c:	00 00 00 00 
    d480:	48 c7 85 f0 fb ff ff 	movq   $0x0,-0x410(%rbp)
    d487:	00 00 00 00 
    d48b:	48 8d 85 c0 fa ff ff 	lea    -0x540(%rbp),%rax
    d492:	48 83 c0 68          	add    $0x68,%rax
    d496:	48 89 85 f8 fb ff ff 	mov    %rax,-0x408(%rbp)
    d49d:	48 8d 85 c0 fa ff ff 	lea    -0x540(%rbp),%rax
    d4a4:	48 05 b0 00 00 00    	add    $0xb0,%rax
    d4aa:	48 89 85 00 fc ff ff 	mov    %rax,-0x400(%rbp)
    d4b1:	48 8d 85 c0 fa ff ff 	lea    -0x540(%rbp),%rax
    d4b8:	48 05 c8 00 00 00    	add    $0xc8,%rax
    d4be:	48 89 85 08 fc ff ff 	mov    %rax,-0x3f8(%rbp)
    d4c5:	48 8d 85 c0 fa ff ff 	lea    -0x540(%rbp),%rax
    d4cc:	48 05 b0 00 00 00    	add    $0xb0,%rax
    d4d2:	48 89 85 10 fc ff ff 	mov    %rax,-0x3f0(%rbp)
    d4d9:	48 8d 85 c0 fa ff ff 	lea    -0x540(%rbp),%rax
    d4e0:	48 83 c0 68          	add    $0x68,%rax
    d4e4:	48 89 85 18 fc ff ff 	mov    %rax,-0x3e8(%rbp)
    d4eb:	48 8d 85 c0 fa ff ff 	lea    -0x540(%rbp),%rax
    d4f2:	48 83 c0 40          	add    $0x40,%rax
    d4f6:	48 89 85 20 fc ff ff 	mov    %rax,-0x3e0(%rbp)
    d4fd:	48 8d 85 c0 fa ff ff 	lea    -0x540(%rbp),%rax
    d504:	48 83 c0 40          	add    $0x40,%rax
    d508:	48 89 85 28 fc ff ff 	mov    %rax,-0x3d8(%rbp)
    d50f:	48 8d 85 c0 fa ff ff 	lea    -0x540(%rbp),%rax
    d516:	48 05 b0 00 00 00    	add    $0xb0,%rax
    d51c:	48 89 85 30 fc ff ff 	mov    %rax,-0x3d0(%rbp)
    d523:	48 8d 85 c0 fa ff ff 	lea    -0x540(%rbp),%rax
    d52a:	48 83 c0 78          	add    $0x78,%rax
    d52e:	48 89 85 38 fc ff ff 	mov    %rax,-0x3c8(%rbp)
    d535:	48 8d 85 c0 fa ff ff 	lea    -0x540(%rbp),%rax
    d53c:	48 05 c8 00 00 00    	add    $0xc8,%rax
    d542:	48 89 85 40 fc ff ff 	mov    %rax,-0x3c0(%rbp)
    d549:	48 c7 85 48 fc ff ff 	movq   $0x0,-0x3b8(%rbp)
    d550:	00 00 00 00 
    d554:	48 c7 85 50 fc ff ff 	movq   $0x0,-0x3b0(%rbp)
    d55b:	00 00 00 00 
    d55f:	48 8d 85 c0 fa ff ff 	lea    -0x540(%rbp),%rax
    d566:	48 83 c0 78          	add    $0x78,%rax
    d56a:	48 89 85 58 fc ff ff 	mov    %rax,-0x3a8(%rbp)
    d571:	48 8d 85 c0 fa ff ff 	lea    -0x540(%rbp),%rax
    d578:	48 83 c0 40          	add    $0x40,%rax
    d57c:	48 89 85 60 fc ff ff 	mov    %rax,-0x3a0(%rbp)
    d583:	48 8d 85 c0 fa ff ff 	lea    -0x540(%rbp),%rax
    d58a:	48 83 c0 68          	add    $0x68,%rax
    d58e:	48 89 85 68 fc ff ff 	mov    %rax,-0x398(%rbp)
    d595:	48 c7 85 70 fc ff ff 	movq   $0x0,-0x390(%rbp)
    d59c:	00 00 00 00 
    d5a0:	48 c7 85 78 fc ff ff 	movq   $0x0,-0x388(%rbp)
    d5a7:	00 00 00 00 
    d5ab:	48 8d 85 c0 fa ff ff 	lea    -0x540(%rbp),%rax
    d5b2:	48 83 c0 68          	add    $0x68,%rax
    d5b6:	48 89 85 80 fc ff ff 	mov    %rax,-0x380(%rbp)
    d5bd:	48 8d 85 c0 fa ff ff 	lea    -0x540(%rbp),%rax
    d5c4:	48 83 c0 40          	add    $0x40,%rax
    d5c8:	48 89 85 88 fc ff ff 	mov    %rax,-0x378(%rbp)
    d5cf:	48 8d 85 c0 fa ff ff 	lea    -0x540(%rbp),%rax
    d5d6:	48 83 c0 68          	add    $0x68,%rax
    d5da:	48 89 85 90 fc ff ff 	mov    %rax,-0x370(%rbp)
    d5e1:	48 c7 85 98 fc ff ff 	movq   $0x0,-0x368(%rbp)
    d5e8:	00 00 00 00 
    d5ec:	48 8d 85 c0 fa ff ff 	lea    -0x540(%rbp),%rax
    d5f3:	48 83 c0 40          	add    $0x40,%rax
    d5f7:	48 89 85 a0 fc ff ff 	mov    %rax,-0x360(%rbp)
    d5fe:	48 8d 85 c0 fa ff ff 	lea    -0x540(%rbp),%rax
    d605:	48 83 c0 68          	add    $0x68,%rax
    d609:	48 89 85 a8 fc ff ff 	mov    %rax,-0x358(%rbp)
    d610:	48 8d 85 c0 fa ff ff 	lea    -0x540(%rbp),%rax
    d617:	48 05 c8 00 00 00    	add    $0xc8,%rax
    d61d:	48 89 85 b0 fc ff ff 	mov    %rax,-0x350(%rbp)
    d624:	48 c7 85 b8 fc ff ff 	movq   $0x0,-0x348(%rbp)
    d62b:	00 00 00 00 
    d62f:	48 8d 85 c0 fa ff ff 	lea    -0x540(%rbp),%rax
    d636:	48 83 c0 78          	add    $0x78,%rax
    d63a:	48 89 85 c0 fc ff ff 	mov    %rax,-0x340(%rbp)
    d641:	48 8d 85 b0 fb ff ff 	lea    -0x450(%rbp),%rax
    d648:	48 83 c0 78          	add    $0x78,%rax
    d64c:	48 89 85 e8 f8 ff ff 	mov    %rax,-0x718(%rbp)
    d653:	48 8d 85 e8 f8 ff ff 	lea    -0x718(%rbp),%rax
    d65a:	48 89 85 70 f9 ff ff 	mov    %rax,-0x690(%rbp)
    d661:	c7 85 d0 f8 ff ff 39 	movl   $0x51200939,-0x730(%rbp)
    d668:	09 20 51 
    d66b:	48 8d 05 16 bb 00 00 	lea    0xbb16(%rip),%rax        # 19188 <g_1223>
    d672:	48 89 85 78 f9 ff ff 	mov    %rax,-0x688(%rbp)
    d679:	48 8d 85 90 f9 ff ff 	lea    -0x670(%rbp),%rax
    d680:	48 83 c0 18          	add    $0x18,%rax
    d684:	48 89 85 10 fe ff ff 	mov    %rax,-0x1f0(%rbp)
    d68b:	48 8d 85 90 f9 ff ff 	lea    -0x670(%rbp),%rax
    d692:	48 83 c0 18          	add    $0x18,%rax
    d696:	48 89 85 18 fe ff ff 	mov    %rax,-0x1e8(%rbp)
    d69d:	48 8d 85 90 f9 ff ff 	lea    -0x670(%rbp),%rax
    d6a4:	48 89 85 20 fe ff ff 	mov    %rax,-0x1e0(%rbp)
    d6ab:	48 8d 85 90 f9 ff ff 	lea    -0x670(%rbp),%rax
    d6b2:	48 83 c0 18          	add    $0x18,%rax
    d6b6:	48 89 85 28 fe ff ff 	mov    %rax,-0x1d8(%rbp)
    d6bd:	48 8d 85 90 f9 ff ff 	lea    -0x670(%rbp),%rax
    d6c4:	48 83 c0 18          	add    $0x18,%rax
    d6c8:	48 89 85 30 fe ff ff 	mov    %rax,-0x1d0(%rbp)
    d6cf:	48 8d 85 90 f9 ff ff 	lea    -0x670(%rbp),%rax
    d6d6:	48 83 c0 18          	add    $0x18,%rax
    d6da:	48 89 85 38 fe ff ff 	mov    %rax,-0x1c8(%rbp)
    d6e1:	48 8d 85 90 f9 ff ff 	lea    -0x670(%rbp),%rax
    d6e8:	48 83 c0 18          	add    $0x18,%rax
    d6ec:	48 89 85 40 fe ff ff 	mov    %rax,-0x1c0(%rbp)
    d6f3:	48 8d 85 90 f9 ff ff 	lea    -0x670(%rbp),%rax
    d6fa:	48 83 c0 18          	add    $0x18,%rax
    d6fe:	48 89 85 48 fe ff ff 	mov    %rax,-0x1b8(%rbp)
    d705:	48 8d 85 90 f9 ff ff 	lea    -0x670(%rbp),%rax
    d70c:	48 83 c0 18          	add    $0x18,%rax
    d710:	48 89 85 50 fe ff ff 	mov    %rax,-0x1b0(%rbp)
    d717:	48 8d 85 90 f9 ff ff 	lea    -0x670(%rbp),%rax
    d71e:	48 83 c0 18          	add    $0x18,%rax
    d722:	48 89 85 58 fe ff ff 	mov    %rax,-0x1a8(%rbp)
    d729:	48 8d 85 90 f9 ff ff 	lea    -0x670(%rbp),%rax
    d730:	48 83 c0 18          	add    $0x18,%rax
    d734:	48 89 85 60 fe ff ff 	mov    %rax,-0x1a0(%rbp)
    d73b:	48 8d 85 90 f9 ff ff 	lea    -0x670(%rbp),%rax
    d742:	48 83 c0 18          	add    $0x18,%rax
    d746:	48 89 85 68 fe ff ff 	mov    %rax,-0x198(%rbp)
    d74d:	48 8d 85 90 f9 ff ff 	lea    -0x670(%rbp),%rax
    d754:	48 83 c0 18          	add    $0x18,%rax
    d758:	48 89 85 70 fe ff ff 	mov    %rax,-0x190(%rbp)
    d75f:	48 8d 85 90 f9 ff ff 	lea    -0x670(%rbp),%rax
    d766:	48 83 c0 18          	add    $0x18,%rax
    d76a:	48 89 85 78 fe ff ff 	mov    %rax,-0x188(%rbp)
    d771:	48 8d 85 90 f9 ff ff 	lea    -0x670(%rbp),%rax
    d778:	48 83 c0 18          	add    $0x18,%rax
    d77c:	48 89 85 80 fe ff ff 	mov    %rax,-0x180(%rbp)
    d783:	48 8d 85 90 f9 ff ff 	lea    -0x670(%rbp),%rax
    d78a:	48 83 c0 18          	add    $0x18,%rax
    d78e:	48 89 85 88 fe ff ff 	mov    %rax,-0x178(%rbp)
    d795:	48 8d 85 90 f9 ff ff 	lea    -0x670(%rbp),%rax
    d79c:	48 83 c0 18          	add    $0x18,%rax
    d7a0:	48 89 85 90 fe ff ff 	mov    %rax,-0x170(%rbp)
    d7a7:	48 8d 85 90 f9 ff ff 	lea    -0x670(%rbp),%rax
    d7ae:	48 83 c0 18          	add    $0x18,%rax
    d7b2:	48 89 85 98 fe ff ff 	mov    %rax,-0x168(%rbp)
    d7b9:	48 8d 85 90 f9 ff ff 	lea    -0x670(%rbp),%rax
    d7c0:	48 89 85 a0 fe ff ff 	mov    %rax,-0x160(%rbp)
    d7c7:	48 8d 85 90 f9 ff ff 	lea    -0x670(%rbp),%rax
    d7ce:	48 83 c0 18          	add    $0x18,%rax
    d7d2:	48 89 85 a8 fe ff ff 	mov    %rax,-0x158(%rbp)
    d7d9:	48 8d 85 90 f9 ff ff 	lea    -0x670(%rbp),%rax
    d7e0:	48 83 c0 18          	add    $0x18,%rax
    d7e4:	48 89 85 b0 fe ff ff 	mov    %rax,-0x150(%rbp)
    d7eb:	48 8d 85 90 f9 ff ff 	lea    -0x670(%rbp),%rax
    d7f2:	48 89 85 b8 fe ff ff 	mov    %rax,-0x148(%rbp)
    d7f9:	48 8d 85 90 f9 ff ff 	lea    -0x670(%rbp),%rax
    d800:	48 83 c0 18          	add    $0x18,%rax
    d804:	48 89 85 c0 fe ff ff 	mov    %rax,-0x140(%rbp)
    d80b:	48 8d 85 90 f9 ff ff 	lea    -0x670(%rbp),%rax
    d812:	48 83 c0 18          	add    $0x18,%rax
    d816:	48 89 85 c8 fe ff ff 	mov    %rax,-0x138(%rbp)
    d81d:	48 8d 85 90 f9 ff ff 	lea    -0x670(%rbp),%rax
    d824:	48 83 c0 18          	add    $0x18,%rax
    d828:	48 89 85 d0 fe ff ff 	mov    %rax,-0x130(%rbp)
    d82f:	48 8d 85 90 f9 ff ff 	lea    -0x670(%rbp),%rax
    d836:	48 83 c0 18          	add    $0x18,%rax
    d83a:	48 89 85 d8 fe ff ff 	mov    %rax,-0x128(%rbp)
    d841:	48 8d 85 90 f9 ff ff 	lea    -0x670(%rbp),%rax
    d848:	48 89 85 e0 fe ff ff 	mov    %rax,-0x120(%rbp)
    d84f:	48 8d 85 90 f9 ff ff 	lea    -0x670(%rbp),%rax
    d856:	48 83 c0 18          	add    $0x18,%rax
    d85a:	48 89 85 e8 fe ff ff 	mov    %rax,-0x118(%rbp)
    d861:	48 8d 85 90 f9 ff ff 	lea    -0x670(%rbp),%rax
    d868:	48 83 c0 18          	add    $0x18,%rax
    d86c:	48 89 85 f0 fe ff ff 	mov    %rax,-0x110(%rbp)
    d873:	48 8d 85 90 f9 ff ff 	lea    -0x670(%rbp),%rax
    d87a:	48 83 c0 18          	add    $0x18,%rax
    d87e:	48 89 85 f8 fe ff ff 	mov    %rax,-0x108(%rbp)
    d885:	48 8d 85 90 f9 ff ff 	lea    -0x670(%rbp),%rax
    d88c:	48 89 85 00 ff ff ff 	mov    %rax,-0x100(%rbp)
    d893:	48 8d 85 90 f9 ff ff 	lea    -0x670(%rbp),%rax
    d89a:	48 83 c0 18          	add    $0x18,%rax
    d89e:	48 89 85 08 ff ff ff 	mov    %rax,-0xf8(%rbp)
    d8a5:	48 8d 85 90 f9 ff ff 	lea    -0x670(%rbp),%rax
    d8ac:	48 83 c0 18          	add    $0x18,%rax
    d8b0:	48 89 85 10 ff ff ff 	mov    %rax,-0xf0(%rbp)
    d8b7:	48 c7 85 18 ff ff ff 	movq   $0x0,-0xe8(%rbp)
    d8be:	00 00 00 00 
    d8c2:	48 8d 85 90 f9 ff ff 	lea    -0x670(%rbp),%rax
    d8c9:	48 83 c0 18          	add    $0x18,%rax
    d8cd:	48 89 85 20 ff ff ff 	mov    %rax,-0xe0(%rbp)
    d8d4:	48 8d 85 90 f9 ff ff 	lea    -0x670(%rbp),%rax
    d8db:	48 83 c0 18          	add    $0x18,%rax
    d8df:	48 89 85 28 ff ff ff 	mov    %rax,-0xd8(%rbp)
    d8e6:	48 8d 85 90 f9 ff ff 	lea    -0x670(%rbp),%rax
    d8ed:	48 83 c0 18          	add    $0x18,%rax
    d8f1:	48 89 85 30 ff ff ff 	mov    %rax,-0xd0(%rbp)
    d8f8:	48 8d 85 90 f9 ff ff 	lea    -0x670(%rbp),%rax
    d8ff:	48 89 85 38 ff ff ff 	mov    %rax,-0xc8(%rbp)
    d906:	48 8d 85 90 f9 ff ff 	lea    -0x670(%rbp),%rax
    d90d:	48 83 c0 08          	add    $0x8,%rax
    d911:	48 89 85 40 ff ff ff 	mov    %rax,-0xc0(%rbp)
    d918:	48 8d 85 90 f9 ff ff 	lea    -0x670(%rbp),%rax
    d91f:	48 89 85 48 ff ff ff 	mov    %rax,-0xb8(%rbp)
    d926:	48 8d 85 90 f9 ff ff 	lea    -0x670(%rbp),%rax
    d92d:	48 83 c0 18          	add    $0x18,%rax
    d931:	48 89 85 50 ff ff ff 	mov    %rax,-0xb0(%rbp)
    d938:	48 8d 85 90 f9 ff ff 	lea    -0x670(%rbp),%rax
    d93f:	48 83 c0 18          	add    $0x18,%rax
    d943:	48 89 85 58 ff ff ff 	mov    %rax,-0xa8(%rbp)
    d94a:	48 8d 85 90 f9 ff ff 	lea    -0x670(%rbp),%rax
    d951:	48 83 c0 18          	add    $0x18,%rax
    d955:	48 89 85 60 ff ff ff 	mov    %rax,-0xa0(%rbp)
    d95c:	48 8d 85 90 f9 ff ff 	lea    -0x670(%rbp),%rax
    d963:	48 83 c0 18          	add    $0x18,%rax
    d967:	48 89 85 68 ff ff ff 	mov    %rax,-0x98(%rbp)
    d96e:	48 8d 85 90 f9 ff ff 	lea    -0x670(%rbp),%rax
    d975:	48 83 c0 18          	add    $0x18,%rax
    d979:	48 89 85 70 ff ff ff 	mov    %rax,-0x90(%rbp)
    d980:	48 8d 85 90 f9 ff ff 	lea    -0x670(%rbp),%rax
    d987:	48 89 85 78 ff ff ff 	mov    %rax,-0x88(%rbp)
    d98e:	48 8d 85 90 f9 ff ff 	lea    -0x670(%rbp),%rax
    d995:	48 83 c0 18          	add    $0x18,%rax
    d999:	48 89 45 80          	mov    %rax,-0x80(%rbp)
    d99d:	48 8d 85 90 f9 ff ff 	lea    -0x670(%rbp),%rax
    d9a4:	48 83 c0 18          	add    $0x18,%rax
    d9a8:	48 89 45 88          	mov    %rax,-0x78(%rbp)
    d9ac:	48 8d 85 90 f9 ff ff 	lea    -0x670(%rbp),%rax
    d9b3:	48 89 45 90          	mov    %rax,-0x70(%rbp)
    d9b7:	48 8d 85 90 f9 ff ff 	lea    -0x670(%rbp),%rax
    d9be:	48 83 c0 18          	add    $0x18,%rax
    d9c2:	48 89 45 98          	mov    %rax,-0x68(%rbp)
    d9c6:	48 8d 85 90 f9 ff ff 	lea    -0x670(%rbp),%rax
    d9cd:	48 83 c0 18          	add    $0x18,%rax
    d9d1:	48 89 45 a0          	mov    %rax,-0x60(%rbp)
    d9d5:	48 c7 45 a8 00 00 00 	movq   $0x0,-0x58(%rbp)
    d9dc:	00 
    d9dd:	48 8d 85 90 f9 ff ff 	lea    -0x670(%rbp),%rax
    d9e4:	48 83 c0 18          	add    $0x18,%rax
    d9e8:	48 89 45 b0          	mov    %rax,-0x50(%rbp)
    d9ec:	48 8d 85 90 f9 ff ff 	lea    -0x670(%rbp),%rax
    d9f3:	48 83 c0 18          	add    $0x18,%rax
    d9f7:	48 89 45 b8          	mov    %rax,-0x48(%rbp)
    d9fb:	48 c7 45 c0 00 00 00 	movq   $0x0,-0x40(%rbp)
    da02:	00 
    da03:	48 8d 85 90 f9 ff ff 	lea    -0x670(%rbp),%rax
    da0a:	48 83 c0 18          	add    $0x18,%rax
    da0e:	48 89 45 c8          	mov    %rax,-0x38(%rbp)
    da12:	48 8d 05 37 b7 00 00 	lea    0xb737(%rip),%rax        # 19150 <g_188>
    da19:	48 89 85 f0 f8 ff ff 	mov    %rax,-0x710(%rbp)
    da20:	48 8d 85 f0 f8 ff ff 	lea    -0x710(%rbp),%rax
    da27:	48 89 85 80 f9 ff ff 	mov    %rax,-0x680(%rbp)
    da2e:	c7 85 d4 f8 ff ff 00 	movl   $0x0,-0x72c(%rbp)
    da35:	00 00 00 
    da38:	c7 85 d8 f8 ff ff ff 	movl   $0xffffffff,-0x728(%rbp)
    da3f:	ff ff ff 
    da42:	c7 85 dc f8 ff ff 4c 	movl   $0x7f856c4c,-0x724(%rbp)
    da49:	6c 85 7f 
    da4c:	48 8d 05 51 97 00 00 	lea    0x9751(%rip),%rax        # 171a4 <g_1492>
    da53:	48 89 85 88 f9 ff ff 	mov    %rax,-0x678(%rbp)
    da5a:	c7 85 c0 f8 ff ff 00 	movl   $0x0,-0x740(%rbp)
    da61:	00 00 00 
    da64:	eb 1e                	jmp    da84 <func_23+0xcf3>
    da66:	8b 85 c0 f8 ff ff    	mov    -0x740(%rbp),%eax
    da6c:	48 98                	cltq   
    da6e:	48 8d 15 1f 96 00 00 	lea    0x961f(%rip),%rdx        # 17094 <g_329>
    da75:	48 89 94 c5 90 f9 ff 	mov    %rdx,-0x670(%rbp,%rax,8)
    da7c:	ff 
    da7d:	83 85 c0 f8 ff ff 01 	addl   $0x1,-0x740(%rbp)
    da84:	83 bd c0 f8 ff ff 03 	cmpl   $0x3,-0x740(%rbp)
    da8b:	7e d9                	jle    da66 <func_23+0xcd5>
    da8d:	8b 05 b5 96 00 00    	mov    0x96b5(%rip),%eax        # 17148 <g_823>
    da93:	83 c0 01             	add    $0x1,%eax
    da96:	89 05 ac 96 00 00    	mov    %eax,0x96ac(%rip)        # 17148 <g_823>
    da9c:	8b 05 a6 96 00 00    	mov    0x96a6(%rip),%eax        # 17148 <g_823>
    daa2:	83 f8 0d             	cmp    $0xd,%eax
    daa5:	0f 86 b2 f8 ff ff    	jbe    d35d <func_23+0x5cc>
    daab:	66 c7 05 34 96 00 00 	movw   $0x2,0x9634(%rip)        # 170e8 <g_627>
    dab2:	02 00 
    dab4:	e9 1d 06 00 00       	jmpq   e0d6 <func_23+0x1345>
    dab9:	48 8d 05 7c 95 00 00 	lea    0x957c(%rip),%rax        # 1703c <g_95>
    dac0:	48 89 85 f0 f8 ff ff 	mov    %rax,-0x710(%rbp)
    dac7:	48 c7 85 38 f9 ff ff 	movq   $0xfffffffffffffffe,-0x6c8(%rbp)
    dace:	fe ff ff ff 
    dad2:	66 c7 85 b2 f8 ff ff 	movw   $0x1,-0x74e(%rbp)
    dad9:	01 00 
    dadb:	48 8d 05 66 96 00 00 	lea    0x9666(%rip),%rax        # 17148 <g_823>
    dae2:	48 89 85 40 f9 ff ff 	mov    %rax,-0x6c0(%rbp)
    dae9:	0f b6 85 a8 f8 ff ff 	movzbl -0x758(%rbp),%eax
    daf0:	0f b6 d8             	movzbl %al,%ebx
    daf3:	44 0f be a5 ac f8 ff 	movsbl -0x754(%rbp),%r12d
    dafa:	ff 
    dafb:	48 8b 05 26 a1 00 00 	mov    0xa126(%rip),%rax        # 17c28 <g_225>
    db02:	48 8b 00             	mov    (%rax),%rax
    db05:	0f b6 00             	movzbl (%rax),%eax
    db08:	44 0f b6 e8          	movzbl %al,%r13d
    db0c:	0f b6 85 a8 f8 ff ff 	movzbl -0x758(%rbp),%eax
    db13:	84 c0                	test   %al,%al
    db15:	75 0d                	jne    db24 <func_23+0xd93>
    db17:	48 8b 85 28 f9 ff ff 	mov    -0x6d8(%rbp),%rax
    db1e:	8b 00                	mov    (%rax),%eax
    db20:	85 c0                	test   %eax,%eax
    db22:	74 12                	je     db36 <func_23+0xda5>
    db24:	0f b6 85 a8 f8 ff ff 	movzbl -0x758(%rbp),%eax
    db2b:	84 c0                	test   %al,%al
    db2d:	74 07                	je     db36 <func_23+0xda5>
    db2f:	b8 01 00 00 00       	mov    $0x1,%eax
    db34:	eb 05                	jmp    db3b <func_23+0xdaa>
    db36:	b8 00 00 00 00       	mov    $0x0,%eax
    db3b:	0d cb b0 7c b2       	or     $0xb27cb0cb,%eax
    db40:	89 c2                	mov    %eax,%edx
    db42:	0f b7 05 9f 95 00 00 	movzwl 0x959f(%rip),%eax        # 170e8 <g_627>
    db49:	98                   	cwtl   
    db4a:	48 98                	cltq   
    db4c:	48 8d 0d eb 94 00 00 	lea    0x94eb(%rip),%rcx        # 1703e <g_124>
    db53:	0f b6 0c 08          	movzbl (%rax,%rcx,1),%ecx
    db57:	0f b7 05 8a 95 00 00 	movzwl 0x958a(%rip),%eax        # 170e8 <g_627>
    db5e:	98                   	cwtl   
    db5f:	83 c9 fc             	or     $0xfffffffc,%ecx
    db62:	89 cf                	mov    %ecx,%edi
    db64:	48 63 c8             	movslq %eax,%rcx
    db67:	48 8d 35 d0 94 00 00 	lea    0x94d0(%rip),%rsi        # 1703e <g_124>
    db6e:	40 88 3c 31          	mov    %dil,(%rcx,%rsi,1)
    db72:	48 98                	cltq   
    db74:	48 8d 0d c3 94 00 00 	lea    0x94c3(%rip),%rcx        # 1703e <g_124>
    db7b:	0f b6 04 08          	movzbl (%rax,%rcx,1),%eax
    db7f:	0f be c0             	movsbl %al,%eax
    db82:	89 d6                	mov    %edx,%esi
    db84:	89 c7                	mov    %eax,%edi
    db86:	e8 63 77 ff ff       	callq  52ee <safe_lshift_func_int8_t_s_u>
    db8b:	0f b6 c0             	movzbl %al,%eax
    db8e:	be 00 00 00 00       	mov    $0x0,%esi
    db93:	89 c7                	mov    %eax,%edi
    db95:	e8 f9 7f ff ff       	callq  5b93 <safe_mul_func_uint8_t_u_u>
    db9a:	0f b6 c0             	movzbl %al,%eax
    db9d:	44 89 ee             	mov    %r13d,%esi
    dba0:	89 c7                	mov    %eax,%edi
    dba2:	e8 ec 7f ff ff       	callq  5b93 <safe_mul_func_uint8_t_u_u>
    dba7:	0f b6 d0             	movzbl %al,%edx
    dbaa:	80 bd ac f8 ff ff 00 	cmpb   $0x0,-0x754(%rbp)
    dbb1:	75 0f                	jne    dbc2 <func_23+0xe31>
    dbb3:	48 8b 05 36 af 00 00 	mov    0xaf36(%rip),%rax        # 18af0 <g_1270>
    dbba:	48 8b 00             	mov    (%rax),%rax
    dbbd:	48 85 c0             	test   %rax,%rax
    dbc0:	75 07                	jne    dbc9 <func_23+0xe38>
    dbc2:	b8 01 00 00 00       	mov    $0x1,%eax
    dbc7:	eb 05                	jmp    dbce <func_23+0xe3d>
    dbc9:	b8 00 00 00 00       	mov    $0x0,%eax
    dbce:	83 f8 01             	cmp    $0x1,%eax
    dbd1:	0f 96 c0             	setbe  %al
    dbd4:	0f b6 c0             	movzbl %al,%eax
    dbd7:	89 d6                	mov    %edx,%esi
    dbd9:	89 c7                	mov    %eax,%edi
    dbdb:	e8 1f 81 ff ff       	callq  5cff <safe_add_func_uint16_t_u_u>
    dbe0:	0f b6 15 71 94 00 00 	movzbl 0x9471(%rip),%edx        # 17058 <g_186>
    dbe7:	83 e2 0f             	and    $0xf,%edx
    dbea:	0f b6 d2             	movzbl %dl,%edx
    dbed:	66 39 d0             	cmp    %dx,%ax
    dbf0:	0f 96 c0             	setbe  %al
    dbf3:	0f b6 c0             	movzbl %al,%eax
    dbf6:	44 89 e6             	mov    %r12d,%esi
    dbf9:	89 c7                	mov    %eax,%edi
    dbfb:	e8 b3 77 ff ff       	callq  53b3 <safe_add_func_int16_t_s_s>
    dc00:	48 8b 85 f0 f8 ff ff 	mov    -0x710(%rbp),%rax
    dc07:	48 89 85 f0 f8 ff ff 	mov    %rax,-0x710(%rbp)
    dc0e:	48 8b 85 f0 f8 ff ff 	mov    -0x710(%rbp),%rax
    dc15:	48 39 85 30 f9 ff ff 	cmp    %rax,-0x6d0(%rbp)
    dc1c:	75 07                	jne    dc25 <func_23+0xe94>
    dc1e:	ba 39 a5 81 71       	mov    $0x7181a539,%edx
    dc23:	eb 05                	jmp    dc2a <func_23+0xe99>
    dc25:	ba 38 a5 81 71       	mov    $0x7181a538,%edx
    dc2a:	0f b6 85 a8 f8 ff ff 	movzbl -0x758(%rbp),%eax
    dc31:	0f b6 c0             	movzbl %al,%eax
    dc34:	48 39 c2             	cmp    %rax,%rdx
    dc37:	0f 95 c0             	setne  %al
    dc3a:	0f b6 c0             	movzbl %al,%eax
    dc3d:	48 8b 15 d4 9f 00 00 	mov    0x9fd4(%rip),%rdx        # 17c18 <g_180>
    dc44:	48 8b 12             	mov    (%rdx),%rdx
    dc47:	48 8b 12             	mov    (%rdx),%rdx
    dc4a:	4c 8b 22             	mov    (%rdx),%r12
    dc4d:	48 8d 15 ed 94 00 00 	lea    0x94ed(%rip),%rdx        # 17141 <g_742>
    dc54:	48 89 de             	mov    %rbx,%rsi
    dc57:	89 c7                	mov    %eax,%edi
    dc59:	e8 cb 04 00 00       	callq  e129 <func_35>
    dc5e:	49 89 04 24          	mov    %rax,(%r12)
    dc62:	c6 05 0f 95 00 00 02 	movb   $0x2,0x950f(%rip)        # 17178 <g_1149>
    dc69:	e9 a3 02 00 00       	jmpq   df11 <func_23+0x1180>
    dc6e:	48 b8 f8 ff 01 04 01 	movabs $0x5f3a48010401fff8,%rax
    dc75:	48 3a 5f 
    dc78:	48 89 85 10 fe ff ff 	mov    %rax,-0x1f0(%rbp)
    dc7f:	48 b8 ed fb ff fb 04 	movabs $0x6b6e0004fbfffbed,%rax
    dc86:	00 6e 6b 
    dc89:	48 89 85 18 fe ff ff 	mov    %rax,-0x1e8(%rbp)
    dc90:	48 b8 54 f8 7d e3 d7 	movabs $0x7de3d7d7e37df854,%rax
    dc97:	d7 e3 7d 
    dc9a:	48 89 85 20 fe ff ff 	mov    %rax,-0x1e0(%rbp)
    dca1:	48 b8 3b 3b ff 02 04 	movabs $0x9e209d0402ff3b3b,%rax
    dca8:	9d 20 9e 
    dcab:	48 89 85 28 fe ff ff 	mov    %rax,-0x1d8(%rbp)
    dcb2:	48 b8 e3 5f 54 00 ed 	movabs $0x9eff2aed00545fe3,%rax
    dcb9:	2a ff 9e 
    dcbc:	48 89 85 30 fe ff ff 	mov    %rax,-0x1d0(%rbp)
    dcc3:	48 b8 5f 00 06 02 01 	movabs $0x7df802010206005f,%rax
    dcca:	02 f8 7d 
    dccd:	48 89 85 38 fe ff ff 	mov    %rax,-0x1c8(%rbp)
    dcd4:	48 b8 fe 01 ea e3 00 	movabs $0x6b000200e3ea01fe,%rax
    dcdb:	02 00 6b 
    dcde:	48 89 85 40 fe ff ff 	mov    %rax,-0x1c0(%rbp)
    dce5:	48 b8 ff 9e 32 fb 19 	movabs $0x5ffffe19fb329eff,%rax
    dcec:	fe ff 5f 
    dcef:	48 89 85 48 fe ff ff 	mov    %rax,-0x1b8(%rbp)
    dcf6:	48 b8 e3 3d 00 04 29 	movabs $0xf6317d2904003de3,%rax
    dcfd:	7d 31 f6 
    dd00:	48 89 85 50 fe ff ff 	mov    %rax,-0x1b0(%rbp)
    dd07:	48 b8 5a 00 01 19 ed 	movabs $0xff0104ed1901005a,%rax
    dd0e:	04 01 ff 
    dd11:	48 89 85 58 fe ff ff 	mov    %rax,-0x1a8(%rbp)
    dd18:	48 b8 2a ff 01 9d fa 	movabs $0x3affedfa9d01ff2a,%rax
    dd1f:	ed ff 3a 
    dd22:	48 89 85 60 fe ff ff 	mov    %rax,-0x1a0(%rbp)
    dd29:	48 b8 6e 06 7d 6a 00 	movabs $0x5aea3b006a7d066e,%rax
    dd30:	3b ea 5a 
    dd33:	48 89 85 68 fe ff ff 	mov    %rax,-0x198(%rbp)
    dd3a:	48 b8 ff 20 fb ff d7 	movabs $0x20fbffd7fffb20ff,%rax
    dd41:	ff fb 20 
    dd44:	48 89 85 70 fe ff ff 	mov    %rax,-0x190(%rbp)
    dd4b:	48 b8 2a 3d 01 f9 9d 	movabs $0x9df9013d2a,%rax
    dd52:	00 00 00 
    dd55:	48 89 85 78 fe ff ff 	mov    %rax,-0x188(%rbp)
    dd5c:	48 b8 f9 e3 a1 32 2a 	movabs $0x100d72a32a1e3f9,%rax
    dd63:	d7 00 01 
    dd66:	48 89 85 80 fe ff ff 	mov    %rax,-0x180(%rbp)
    dd6d:	48 b8 fb 32 01 00 02 	movabs $0xfffb3102000132fb,%rax
    dd74:	31 fb ff 
    dd77:	48 89 85 88 fe ff ff 	mov    %rax,-0x178(%rbp)
    dd7e:	48 b8 02 31 fb ff 02 	movabs $0x1ea0102fffb3102,%rax
    dd85:	01 ea 01 
    dd88:	48 89 85 90 fe ff ff 	mov    %rax,-0x170(%rbp)
    dd8f:	48 b8 ed 5a 7d 75 fe 	movabs $0xea0006fe757d5aed,%rax
    dd96:	06 00 ea 
    dd99:	48 89 85 98 fe ff ff 	mov    %rax,-0x168(%rbp)
    dda0:	48 b8 3c f6 00 2b 7d 	movabs $0xff016b7d2b00f63c,%rax
    dda7:	6b 01 ff 
    ddaa:	48 89 85 a0 fe ff ff 	mov    %rax,-0x160(%rbp)
    ddb1:	48 b8 e3 00 06 01 04 	movabs $0x9e020004010600e3,%rax
    ddb8:	00 02 9e 
    ddbb:	48 89 85 a8 fe ff ff 	mov    %rax,-0x158(%rbp)
    ddc2:	48 b8 75 9e ff 2a ed 	movabs $0x5f5400ed2aff9e75,%rax
    ddc9:	00 54 5f 
    ddcc:	48 89 85 b0 fe ff ff 	mov    %rax,-0x150(%rbp)
    ddd3:	48 b8 5a a1 3a f8 fb 	movabs $0xf90401fbf83aa15a,%rax
    ddda:	01 04 f9 
    dddd:	48 89 85 b8 fe ff ff 	mov    %rax,-0x148(%rbp)
    dde4:	48 b8 2b 00 00 00 00 	movabs $0x2b0000000000002b,%rax
    ddeb:	00 00 2b 
    ddee:	48 89 85 c0 fe ff ff 	mov    %rax,-0x140(%rbp)
    ddf5:	48 b8 9e 07 00 00 ff 	movabs $0x16b75ff0000079e,%rax
    ddfc:	75 6b 01 
    ddff:	48 89 85 c8 fe ff ff 	mov    %rax,-0x138(%rbp)
    de06:	48 b8 01 2a 6a 20 00 	movabs $0x7d3d7500206a2a01,%rax
    de0d:	75 3d 7d 
    de10:	48 89 85 d0 fe ff ff 	mov    %rax,-0x130(%rbp)
    de17:	48 b8 68 07 ff f8 e3 	movabs $0x13100e3f8ff0768,%rax
    de1e:	00 31 01 
    de21:	48 89 85 d8 fe ff ff 	mov    %rax,-0x128(%rbp)
    de28:	48 b8 7d 00 ff 01 75 	movabs $0xa1017501ff007d,%rax
    de2f:	01 a1 00 
    de32:	48 89 85 e0 fe ff ff 	mov    %rax,-0x120(%rbp)
    de39:	48 b8 d7 a1 04 f6 01 	movabs $0x75680001f604a1d7,%rax
    de40:	00 68 75 
    de43:	48 89 85 e8 fe ff ff 	mov    %rax,-0x118(%rbp)
    de4a:	48 b8 3b 9e 00 00 ff 	movabs $0x9d0b00ff00009e3b,%rax
    de51:	00 0b 9d 
    de54:	48 89 85 f0 fe ff ff 	mov    %rax,-0x110(%rbp)
    de5b:	48 b8 3a 00 ff 54 68 	movabs $0x486b6854ff003a,%rax
    de62:	6b 48 00 
    de65:	48 89 85 f8 fe ff ff 	mov    %rax,-0x108(%rbp)
    de6c:	48 b8 5a f6 5f 00 f8 	movabs $0xbff06f8005ff65a,%rax
    de73:	06 ff 0b 
    de76:	48 89 85 00 ff ff ff 	mov    %rax,-0x100(%rbp)
    de7d:	48 b8 3d 5a ff fb e3 	movabs $0xf90701e3fbff5a3d,%rax
    de84:	01 07 f9 
    de87:	48 89 85 08 ff ff ff 	mov    %rax,-0xf8(%rbp)
    de8e:	48 8d 85 b4 f8 ff ff 	lea    -0x74c(%rbp),%rax
    de95:	48 89 85 48 f9 ff ff 	mov    %rax,-0x6b8(%rbp)
    de9c:	48 c7 85 d0 fc ff ff 	movq   $0x0,-0x330(%rbp)
    dea3:	00 00 00 00 
    dea7:	48 c7 85 d8 fc ff ff 	movq   $0x0,-0x328(%rbp)
    deae:	00 00 00 00 
    deb2:	48 c7 85 e0 fc ff ff 	movq   $0x0,-0x320(%rbp)
    deb9:	00 00 00 00 
    debd:	48 c7 85 e8 fc ff ff 	movq   $0x0,-0x318(%rbp)
    dec4:	00 00 00 00 
    dec8:	48 c7 85 f0 fc ff ff 	movq   $0x0,-0x310(%rbp)
    decf:	00 00 00 00 
    ded3:	48 c7 85 f8 fc ff ff 	movq   $0x0,-0x308(%rbp)
    deda:	00 00 00 00 
    dede:	0f b6 85 ac f8 ff ff 	movzbl -0x754(%rbp),%eax
    dee5:	88 85 92 fe ff ff    	mov    %al,-0x16e(%rbp)
    deeb:	0f b6 85 92 fe ff ff 	movzbl -0x16e(%rbp),%eax
    def2:	84 c0                	test   %al,%al
    def4:	75 0a                	jne    df00 <func_23+0x116f>
    def6:	66 83 85 b0 f8 ff ff 	addw   $0x1,-0x750(%rbp)
    defd:	01 
    defe:	eb 01                	jmp    df01 <func_23+0x1170>
    df00:	90                   	nop
    df01:	0f b6 05 70 92 00 00 	movzbl 0x9270(%rip),%eax        # 17178 <g_1149>
    df08:	83 e8 01             	sub    $0x1,%eax
    df0b:	88 05 67 92 00 00    	mov    %al,0x9267(%rip)        # 17178 <g_1149>
    df11:	0f b6 05 60 92 00 00 	movzbl 0x9260(%rip),%eax        # 17178 <g_1149>
    df18:	84 c0                	test   %al,%al
    df1a:	0f 89 4e fd ff ff    	jns    dc6e <func_23+0xedd>
    df20:	0f b6 05 7d 92 00 00 	movzbl 0x927d(%rip),%eax        # 171a4 <g_1492>
    df27:	83 e0 0f             	and    $0xf,%eax
    df2a:	0f b6 d8             	movzbl %al,%ebx
    df2d:	0f b7 05 b4 91 00 00 	movzwl 0x91b4(%rip),%eax        # 170e8 <g_627>
    df34:	98                   	cwtl   
    df35:	48 98                	cltq   
    df37:	48 8d 15 00 91 00 00 	lea    0x9100(%rip),%rdx        # 1703e <g_124>
    df3e:	0f b6 04 10          	movzbl (%rax,%rdx,1),%eax
    df42:	4c 0f be e0          	movsbq %al,%r12
    df46:	48 8b 85 40 f9 ff ff 	mov    -0x6c0(%rbp),%rax
    df4d:	c7 00 01 00 00 00    	movl   $0x1,(%rax)
    df53:	0f b6 85 a8 f8 ff ff 	movzbl -0x758(%rbp),%eax
    df5a:	44 0f b6 e8          	movzbl %al,%r13d
    df5e:	48 8b 85 28 f9 ff ff 	mov    -0x6d8(%rbp),%rax
    df65:	8b 00                	mov    (%rax),%eax
    df67:	0f b6 d0             	movzbl %al,%edx
    df6a:	48 8b 05 af 9c 00 00 	mov    0x9caf(%rip),%rax        # 17c20 <g_226>
    df71:	0f b6 00             	movzbl (%rax),%eax
    df74:	0f b6 c0             	movzbl %al,%eax
    df77:	89 d6                	mov    %edx,%esi
    df79:	89 c7                	mov    %eax,%edi
    df7b:	e8 5b 7c ff ff       	callq  5bdb <safe_div_func_uint8_t_u_u>
    df80:	48 8b 85 28 f9 ff ff 	mov    -0x6d8(%rbp),%rax
    df87:	44 8b 30             	mov    (%rax),%r14d
    df8a:	0f b6 85 a8 f8 ff ff 	movzbl -0x758(%rbp),%eax
    df91:	0f b6 c0             	movzbl %al,%eax
    df94:	48 89 c6             	mov    %rax,%rsi
    df97:	bf 00 00 00 00       	mov    $0x0,%edi
    df9c:	e8 a0 78 ff ff       	callq  5841 <safe_add_func_int64_t_s_s>
    dfa1:	0f b7 c0             	movzwl %ax,%eax
    dfa4:	be 08 00 00 00       	mov    $0x8,%esi
    dfa9:	89 c7                	mov    %eax,%edi
    dfab:	e8 0e 7e ff ff       	callq  5dbe <safe_lshift_func_uint16_t_u_s>
    dfb0:	66 83 f8 04          	cmp    $0x4,%ax
    dfb4:	0f 94 c0             	sete   %al
    dfb7:	0f b6 d0             	movzbl %al,%edx
    dfba:	0f b6 05 97 91 00 00 	movzbl 0x9197(%rip),%eax        # 17158 <g_931>
    dfc1:	83 e0 0f             	and    $0xf,%eax
    dfc4:	0f b6 c0             	movzbl %al,%eax
    dfc7:	21 c2                	and    %eax,%edx
    dfc9:	48 8b 85 f0 f8 ff ff 	mov    -0x710(%rbp),%rax
    dfd0:	0f b7 00             	movzwl (%rax),%eax
    dfd3:	89 c1                	mov    %eax,%ecx
    dfd5:	89 d0                	mov    %edx,%eax
    dfd7:	21 c1                	and    %eax,%ecx
    dfd9:	89 ca                	mov    %ecx,%edx
    dfdb:	48 8b 85 f0 f8 ff ff 	mov    -0x710(%rbp),%rax
    dfe2:	66 89 10             	mov    %dx,(%rax)
    dfe5:	0f b7 00             	movzwl (%rax),%eax
    dfe8:	66 85 c0             	test   %ax,%ax
    dfeb:	74 07                	je     dff4 <func_23+0x1263>
    dfed:	b8 01 00 00 00       	mov    $0x1,%eax
    dff2:	eb 05                	jmp    dff9 <func_23+0x1268>
    dff4:	b8 00 00 00 00       	mov    $0x0,%eax
    dff9:	0f be c0             	movsbl %al,%eax
    dffc:	44 89 f6             	mov    %r14d,%esi
    dfff:	89 c7                	mov    %eax,%edi
    e001:	e8 9b 72 ff ff       	callq  52a1 <safe_lshift_func_int8_t_s_s>
    e006:	0f be c0             	movsbl %al,%eax
    e009:	44 89 ee             	mov    %r13d,%esi
    e00c:	89 c7                	mov    %eax,%edi
    e00e:	e8 ec 76 ff ff       	callq  56ff <safe_div_func_int32_t_s_s>
    e013:	48 8b 05 2e a8 00 00 	mov    0xa82e(%rip),%rax        # 18848 <g_736>
    e01a:	0f b6 00             	movzbl (%rax),%eax
    e01d:	0f be c0             	movsbl %al,%eax
    e020:	be 05 00 00 00       	mov    $0x5,%esi
    e025:	89 c7                	mov    %eax,%edi
    e027:	e8 c2 72 ff ff       	callq  52ee <safe_lshift_func_int8_t_s_u>
    e02c:	84 c0                	test   %al,%al
    e02e:	74 07                	je     e037 <func_23+0x12a6>
    e030:	b8 01 00 00 00       	mov    $0x1,%eax
    e035:	eb 05                	jmp    e03c <func_23+0x12ab>
    e037:	b8 00 00 00 00       	mov    $0x0,%eax
    e03c:	48 98                	cltq   
    e03e:	be 00 00 00 00       	mov    $0x0,%esi
    e043:	48 89 c7             	mov    %rax,%rdi
    e046:	e8 e3 7f ff ff       	callq  602e <safe_add_func_uint64_t_u_u>
    e04b:	4c 89 e6             	mov    %r12,%rsi
    e04e:	bf 01 00 00 00       	mov    $0x1,%edi
    e053:	e8 d6 7f ff ff       	callq  602e <safe_add_func_uint64_t_u_u>
    e058:	48 3d fe ff 00 00    	cmp    $0xfffe,%rax
    e05e:	0f 96 c0             	setbe  %al
    e061:	0f b6 c0             	movzbl %al,%eax
    e064:	89 de                	mov    %ebx,%esi
    e066:	89 c7                	mov    %eax,%edi
    e068:	e8 26 7b ff ff       	callq  5b93 <safe_mul_func_uint8_t_u_u>
    e06d:	8b 95 54 fa ff ff    	mov    -0x5ac(%rbp),%edx
    e073:	48 8b 85 28 f9 ff ff 	mov    -0x6d8(%rbp),%rax
    e07a:	8b 00                	mov    (%rax),%eax
    e07c:	09 d0                	or     %edx,%eax
    e07e:	89 85 54 fa ff ff    	mov    %eax,-0x5ac(%rbp)
    e084:	8b 95 54 fa ff ff    	mov    -0x5ac(%rbp),%edx
    e08a:	48 8b 85 28 f9 ff ff 	mov    -0x6d8(%rbp),%rax
    e091:	89 10                	mov    %edx,(%rax)
    e093:	48 8b 15 56 9b 00 00 	mov    0x9b56(%rip),%rdx        # 17bf0 <g_183>
    e09a:	48 8b 05 4f 9b 00 00 	mov    0x9b4f(%rip),%rax        # 17bf0 <g_183>
    e0a1:	48 8b 12             	mov    (%rdx),%rdx
    e0a4:	48 89 10             	mov    %rdx,(%rax)
    e0a7:	c7 05 97 b0 00 00 00 	movl   $0x0,0xb097(%rip)        # 19148 <g_107>
    e0ae:	00 00 00 
    e0b1:	90                   	nop
    e0b2:	8b 05 90 b0 00 00    	mov    0xb090(%rip),%eax        # 19148 <g_107>
    e0b8:	83 f8 02             	cmp    $0x2,%eax
    e0bb:	77 08                	ja     e0c5 <func_23+0x1334>
    e0bd:	8b 05 01 91 00 00    	mov    0x9101(%rip),%eax        # 171c4 <g_1570>
    e0c3:	eb 40                	jmp    e105 <func_23+0x1374>
    e0c5:	0f b7 05 1c 90 00 00 	movzwl 0x901c(%rip),%eax        # 170e8 <g_627>
    e0cc:	83 e8 01             	sub    $0x1,%eax
    e0cf:	66 89 05 12 90 00 00 	mov    %ax,0x9012(%rip)        # 170e8 <g_627>
    e0d6:	0f b7 05 0b 90 00 00 	movzwl 0x900b(%rip),%eax        # 170e8 <g_627>
    e0dd:	66 85 c0             	test   %ax,%ax
    e0e0:	0f 89 d3 f9 ff ff    	jns    dab9 <func_23+0xd28>
    e0e6:	48 8b 85 28 f9 ff ff 	mov    -0x6d8(%rbp),%rax
    e0ed:	8b 00                	mov    (%rax),%eax
    e0ef:	35 64 3c 52 3b       	xor    $0x3b523c64,%eax
    e0f4:	89 c2                	mov    %eax,%edx
    e0f6:	48 8b 85 28 f9 ff ff 	mov    -0x6d8(%rbp),%rax
    e0fd:	89 10                	mov    %edx,(%rax)
    e0ff:	8b 05 c3 90 00 00    	mov    0x90c3(%rip),%eax        # 171c8 <g_1571>
    e105:	48 8b 5d d8          	mov    -0x28(%rbp),%rbx
    e109:	64 48 33 1c 25 28 00 	xor    %fs:0x28,%rbx
    e110:	00 00 
    e112:	74 05                	je     e119 <func_23+0x1388>
    e114:	e8 57 6f ff ff       	callq  5070 <__stack_chk_fail@plt>
    e119:	48 81 c4 40 07 00 00 	add    $0x740,%rsp
    e120:	5b                   	pop    %rbx
    e121:	41 5c                	pop    %r12
    e123:	41 5d                	pop    %r13
    e125:	41 5e                	pop    %r14
    e127:	5d                   	pop    %rbp
    e128:	c3                   	retq   

000000000000e129 <func_35>:
    e129:	f3 0f 1e fa          	endbr64 
    e12d:	55                   	push   %rbp
    e12e:	48 89 e5             	mov    %rsp,%rbp
    e131:	41 55                	push   %r13
    e133:	41 54                	push   %r12
    e135:	53                   	push   %rbx
    e136:	48 81 ec d8 0a 00 00 	sub    $0xad8,%rsp
    e13d:	89 f8                	mov    %edi,%eax
    e13f:	48 89 b5 20 f5 ff ff 	mov    %rsi,-0xae0(%rbp)
    e146:	48 89 95 18 f5 ff ff 	mov    %rdx,-0xae8(%rbp)
    e14d:	88 85 2c f5 ff ff    	mov    %al,-0xad4(%rbp)
    e153:	64 48 8b 04 25 28 00 	mov    %fs:0x28,%rax
    e15a:	00 00 
    e15c:	48 89 45 d8          	mov    %rax,-0x28(%rbp)
    e160:	31 c0                	xor    %eax,%eax
    e162:	c6 85 39 f5 ff ff 00 	movb   $0x0,-0xac7(%rbp)
    e169:	48 8d 05 d8 af 00 00 	lea    0xafd8(%rip),%rax        # 19148 <g_107>
    e170:	48 89 85 b8 f5 ff ff 	mov    %rax,-0xa48(%rbp)
    e177:	c7 85 40 f5 ff ff fc 	movl   $0xfffffffc,-0xac0(%rbp)
    e17e:	ff ff ff 
    e181:	48 8d 05 08 8f 00 00 	lea    0x8f08(%rip),%rax        # 17090 <g_307>
    e188:	48 89 85 58 f5 ff ff 	mov    %rax,-0xaa8(%rbp)
    e18f:	48 8d 85 58 f5 ff ff 	lea    -0xaa8(%rbp),%rax
    e196:	48 89 85 b0 f5 ff ff 	mov    %rax,-0xa50(%rbp)
    e19d:	48 c7 85 60 f5 ff ff 	movq   $0x0,-0xaa0(%rbp)
    e1a4:	00 00 00 00 
    e1a8:	48 8d 85 60 f5 ff ff 	lea    -0xaa0(%rbp),%rax
    e1af:	48 89 85 68 f5 ff ff 	mov    %rax,-0xa98(%rbp)
    e1b6:	48 8d 85 68 f5 ff ff 	lea    -0xa98(%rbp),%rax
    e1bd:	48 89 85 c0 f5 ff ff 	mov    %rax,-0xa40(%rbp)
    e1c4:	48 8d 05 79 8f 00 00 	lea    0x8f79(%rip),%rax        # 17144 <g_774>
    e1cb:	48 89 85 c8 f5 ff ff 	mov    %rax,-0xa38(%rbp)
    e1d2:	48 8d 85 39 f5 ff ff 	lea    -0xac7(%rbp),%rax
    e1d9:	48 89 85 70 f5 ff ff 	mov    %rax,-0xa90(%rbp)
    e1e0:	48 8d 85 70 f5 ff ff 	lea    -0xa90(%rbp),%rax
    e1e7:	48 89 85 d0 f5 ff ff 	mov    %rax,-0xa30(%rbp)
    e1ee:	48 c7 85 d8 f5 ff ff 	movq   $0x0,-0xa28(%rbp)
    e1f5:	00 00 00 00 
    e1f9:	48 8d 05 70 af 00 00 	lea    0xaf70(%rip),%rax        # 19170 <g_543>
    e200:	48 89 85 e0 f5 ff ff 	mov    %rax,-0xa20(%rbp)
    e207:	48 c7 85 e8 f5 ff ff 	movq   $0x0,-0xa18(%rbp)
    e20e:	00 00 00 00 
    e212:	48 8d 85 10 f7 ff ff 	lea    -0x8f0(%rbp),%rax
    e219:	48 83 c0 10          	add    $0x10,%rax
    e21d:	48 89 85 78 f5 ff ff 	mov    %rax,-0xa88(%rbp)
    e224:	c7 85 d0 f6 ff ff f7 	movl   $0xfffffff7,-0x930(%rbp)
    e22b:	ff ff ff 
    e22e:	c7 85 d4 f6 ff ff f7 	movl   $0xfffffff7,-0x92c(%rbp)
    e235:	ff ff ff 
    e238:	c7 85 d8 f6 ff ff f7 	movl   $0xfffffff7,-0x928(%rbp)
    e23f:	ff ff ff 
    e242:	c7 85 dc f6 ff ff f7 	movl   $0xfffffff7,-0x924(%rbp)
    e249:	ff ff ff 
    e24c:	c7 85 e0 f6 ff ff f7 	movl   $0xfffffff7,-0x920(%rbp)
    e253:	ff ff ff 
    e256:	c7 85 e4 f6 ff ff f7 	movl   $0xfffffff7,-0x91c(%rbp)
    e25d:	ff ff ff 
    e260:	c7 85 e8 f6 ff ff f7 	movl   $0xfffffff7,-0x918(%rbp)
    e267:	ff ff ff 
    e26a:	c6 85 3a f5 ff ff 00 	movb   $0x0,-0xac6(%rbp)
    e271:	48 8d 05 ac 8d 00 00 	lea    0x8dac(%rip),%rax        # 17024 <g_2>
    e278:	48 89 85 f0 f6 ff ff 	mov    %rax,-0x910(%rbp)
    e27f:	48 8d 05 9e 8d 00 00 	lea    0x8d9e(%rip),%rax        # 17024 <g_2>
    e286:	48 89 85 f8 f6 ff ff 	mov    %rax,-0x908(%rbp)
    e28d:	48 8d 05 90 8d 00 00 	lea    0x8d90(%rip),%rax        # 17024 <g_2>
    e294:	48 89 85 00 f7 ff ff 	mov    %rax,-0x900(%rbp)
    e29b:	48 8d 05 82 8d 00 00 	lea    0x8d82(%rip),%rax        # 17024 <g_2>
    e2a2:	48 89 85 08 f7 ff ff 	mov    %rax,-0x8f8(%rbp)
    e2a9:	c7 85 4c f5 ff ff 00 	movl   $0x0,-0xab4(%rbp)
    e2b0:	00 00 00 
    e2b3:	eb 1e                	jmp    e2d3 <func_35+0x1aa>
    e2b5:	8b 85 4c f5 ff ff    	mov    -0xab4(%rbp),%eax
    e2bb:	48 98                	cltq   
    e2bd:	48 8d 15 78 8d 00 00 	lea    0x8d78(%rip),%rdx        # 1703c <g_95>
    e2c4:	48 89 94 c5 10 f7 ff 	mov    %rdx,-0x8f0(%rbp,%rax,8)
    e2cb:	ff 
    e2cc:	83 85 4c f5 ff ff 01 	addl   $0x1,-0xab4(%rbp)
    e2d3:	83 bd 4c f5 ff ff 08 	cmpl   $0x8,-0xab4(%rbp)
    e2da:	7e d9                	jle    e2b5 <func_35+0x18c>
    e2dc:	c7 05 52 8d 00 00 00 	movl   $0x0,0x8d52(%rip)        # 17038 <g_70>
    e2e3:	00 00 00 
    e2e6:	e9 91 0f 00 00       	jmpq   f27c <func_35+0x1153>
    e2eb:	66 c7 85 3c f5 ff ff 	movw   $0xfff9,-0xac4(%rbp)
    e2f2:	f9 ff 
    e2f4:	48 8d 05 44 8d 00 00 	lea    0x8d44(%rip),%rax        # 1703f <g_124+0x1>
    e2fb:	48 89 85 f0 f5 ff ff 	mov    %rax,-0xa10(%rbp)
    e302:	48 8d 05 33 8d 00 00 	lea    0x8d33(%rip),%rax        # 1703c <g_95>
    e309:	48 89 85 f8 f5 ff ff 	mov    %rax,-0xa08(%rbp)
    e310:	48 8d 05 7b 8d 00 00 	lea    0x8d7b(%rip),%rax        # 17092 <g_327>
    e317:	48 89 85 00 f6 ff ff 	mov    %rax,-0xa00(%rbp)
    e31e:	48 8d 05 7b 9d 00 00 	lea    0x9d7b(%rip),%rax        # 180a0 <g_488>
    e325:	48 89 85 08 f6 ff ff 	mov    %rax,-0x9f8(%rbp)
    e32c:	66 c7 85 60 f7 ff ff 	movw   $0xaadc,-0x8a0(%rbp)
    e333:	dc aa 
    e335:	66 c7 85 62 f7 ff ff 	movw   $0xffff,-0x89e(%rbp)
    e33c:	ff ff 
    e33e:	66 c7 85 64 f7 ff ff 	movw   $0xffff,-0x89c(%rbp)
    e345:	ff ff 
    e347:	66 c7 85 66 f7 ff ff 	movw   $0x923d,-0x89a(%rbp)
    e34e:	3d 92 
    e350:	66 c7 85 68 f7 ff ff 	movw   $0xe161,-0x898(%rbp)
    e357:	61 e1 
    e359:	66 c7 85 6a f7 ff ff 	movw   $0x0,-0x896(%rbp)
    e360:	00 00 
    e362:	66 c7 85 6c f7 ff ff 	movw   $0x6592,-0x894(%rbp)
    e369:	92 65 
    e36b:	66 c7 85 6e f7 ff ff 	movw   $0xd3e9,-0x892(%rbp)
    e372:	e9 d3 
    e374:	66 c7 85 70 f7 ff ff 	movw   $0xffff,-0x890(%rbp)
    e37b:	ff ff 
    e37d:	66 c7 85 72 f7 ff ff 	movw   $0x7,-0x88e(%rbp)
    e384:	07 00 
    e386:	66 c7 85 74 f7 ff ff 	movw   $0xfffa,-0x88c(%rbp)
    e38d:	fa ff 
    e38f:	66 c7 85 76 f7 ff ff 	movw   $0x7,-0x88a(%rbp)
    e396:	07 00 
    e398:	66 c7 85 78 f7 ff ff 	movw   $0xffff,-0x888(%rbp)
    e39f:	ff ff 
    e3a1:	66 c7 85 7a f7 ff ff 	movw   $0x719,-0x886(%rbp)
    e3a8:	19 07 
    e3aa:	66 c7 85 7c f7 ff ff 	movw   $0x1,-0x884(%rbp)
    e3b1:	01 00 
    e3b3:	66 c7 85 7e f7 ff ff 	movw   $0x923d,-0x882(%rbp)
    e3ba:	3d 92 
    e3bc:	66 c7 85 80 f7 ff ff 	movw   $0xfffa,-0x880(%rbp)
    e3c3:	fa ff 
    e3c5:	66 c7 85 82 f7 ff ff 	movw   $0xb719,-0x87e(%rbp)
    e3cc:	19 b7 
    e3ce:	66 c7 85 84 f7 ff ff 	movw   $0xd3e9,-0x87c(%rbp)
    e3d5:	e9 d3 
    e3d7:	66 c7 85 86 f7 ff ff 	movw   $0xd3e9,-0x87a(%rbp)
    e3de:	e9 d3 
    e3e0:	66 c7 85 88 f7 ff ff 	movw   $0x1,-0x878(%rbp)
    e3e7:	01 00 
    e3e9:	66 c7 85 8a f7 ff ff 	movw   $0xa815,-0x876(%rbp)
    e3f0:	15 a8 
    e3f2:	66 c7 85 8c f7 ff ff 	movw   $0xe161,-0x874(%rbp)
    e3f9:	61 e1 
    e3fb:	66 c7 85 8e f7 ff ff 	movw   $0x7,-0x872(%rbp)
    e402:	07 00 
    e404:	66 c7 85 90 f7 ff ff 	movw   $0xd3e9,-0x870(%rbp)
    e40b:	e9 d3 
    e40d:	66 c7 85 92 f7 ff ff 	movw   $0xffff,-0x86e(%rbp)
    e414:	ff ff 
    e416:	66 c7 85 94 f7 ff ff 	movw   $0x719,-0x86c(%rbp)
    e41d:	19 07 
    e41f:	66 c7 85 96 f7 ff ff 	movw   $0x923d,-0x86a(%rbp)
    e426:	3d 92 
    e428:	66 c7 85 98 f7 ff ff 	movw   $0x55c7,-0x868(%rbp)
    e42f:	c7 55 
    e431:	66 c7 85 9a f7 ff ff 	movw   $0x0,-0x866(%rbp)
    e438:	00 00 
    e43a:	66 c7 85 9c f7 ff ff 	movw   $0xffff,-0x864(%rbp)
    e441:	ff ff 
    e443:	66 c7 85 9e f7 ff ff 	movw   $0xd3e9,-0x862(%rbp)
    e44a:	e9 d3 
    e44c:	66 c7 85 a0 f7 ff ff 	movw   $0x719,-0x860(%rbp)
    e453:	19 07 
    e455:	66 c7 85 a2 f7 ff ff 	movw   $0x7,-0x85e(%rbp)
    e45c:	07 00 
    e45e:	66 c7 85 a4 f7 ff ff 	movw   $0xe777,-0x85c(%rbp)
    e465:	77 e7 
    e467:	66 c7 85 a6 f7 ff ff 	movw   $0x7,-0x85a(%rbp)
    e46e:	07 00 
    e470:	66 c7 85 a8 f7 ff ff 	movw   $0x6592,-0x858(%rbp)
    e477:	92 65 
    e479:	66 c7 85 aa f7 ff ff 	movw   $0x719,-0x856(%rbp)
    e480:	19 07 
    e482:	66 c7 85 ac f7 ff ff 	movw   $0x1,-0x854(%rbp)
    e489:	01 00 
    e48b:	66 c7 85 ae f7 ff ff 	movw   $0x923d,-0x852(%rbp)
    e492:	3d 92 
    e494:	66 c7 85 b0 f7 ff ff 	movw   $0xe777,-0x850(%rbp)
    e49b:	77 e7 
    e49d:	66 c7 85 b2 f7 ff ff 	movw   $0xb719,-0x84e(%rbp)
    e4a4:	19 b7 
    e4a6:	66 c7 85 b4 f7 ff ff 	movw   $0xaadc,-0x84c(%rbp)
    e4ad:	dc aa 
    e4af:	66 c7 85 b6 f7 ff ff 	movw   $0xd3e9,-0x84a(%rbp)
    e4b6:	e9 d3 
    e4b8:	66 c7 85 b8 f7 ff ff 	movw   $0x1,-0x848(%rbp)
    e4bf:	01 00 
    e4c1:	66 c7 85 ba f7 ff ff 	movw   $0xa815,-0x846(%rbp)
    e4c8:	15 a8 
    e4ca:	66 c7 85 bc f7 ff ff 	movw   $0x55c7,-0x844(%rbp)
    e4d1:	c7 55 
    e4d3:	66 c7 85 be f7 ff ff 	movw   $0x7,-0x842(%rbp)
    e4da:	07 00 
    e4dc:	66 c7 85 c0 f7 ff ff 	movw   $0xaadc,-0x840(%rbp)
    e4e3:	dc aa 
    e4e5:	66 c7 85 c2 f7 ff ff 	movw   $0xffff,-0x83e(%rbp)
    e4ec:	ff ff 
    e4ee:	66 c7 85 c4 f7 ff ff 	movw   $0xffff,-0x83c(%rbp)
    e4f5:	ff ff 
    e4f7:	66 c7 85 c6 f7 ff ff 	movw   $0x923d,-0x83a(%rbp)
    e4fe:	3d 92 
    e500:	66 c7 85 c8 f7 ff ff 	movw   $0xe161,-0x838(%rbp)
    e507:	61 e1 
    e509:	66 c7 85 ca f7 ff ff 	movw   $0x0,-0x836(%rbp)
    e510:	00 00 
    e512:	66 c7 85 cc f7 ff ff 	movw   $0x6592,-0x834(%rbp)
    e519:	92 65 
    e51b:	66 c7 85 ce f7 ff ff 	movw   $0xd3e9,-0x832(%rbp)
    e522:	e9 d3 
    e524:	66 c7 85 d0 f7 ff ff 	movw   $0xffff,-0x830(%rbp)
    e52b:	ff ff 
    e52d:	66 c7 85 d2 f7 ff ff 	movw   $0x7,-0x82e(%rbp)
    e534:	07 00 
    e536:	66 c7 85 d4 f7 ff ff 	movw   $0xfffa,-0x82c(%rbp)
    e53d:	fa ff 
    e53f:	66 c7 85 d6 f7 ff ff 	movw   $0x7,-0x82a(%rbp)
    e546:	07 00 
    e548:	66 c7 85 d8 f7 ff ff 	movw   $0xffff,-0x828(%rbp)
    e54f:	ff ff 
    e551:	66 c7 85 da f7 ff ff 	movw   $0x719,-0x826(%rbp)
    e558:	19 07 
    e55a:	66 c7 85 dc f7 ff ff 	movw   $0x1,-0x824(%rbp)
    e561:	01 00 
    e563:	66 c7 85 de f7 ff ff 	movw   $0x923d,-0x822(%rbp)
    e56a:	3d 92 
    e56c:	66 c7 85 e0 f7 ff ff 	movw   $0xfffa,-0x820(%rbp)
    e573:	fa ff 
    e575:	66 c7 85 e2 f7 ff ff 	movw   $0xb719,-0x81e(%rbp)
    e57c:	19 b7 
    e57e:	66 c7 85 e4 f7 ff ff 	movw   $0xd3e9,-0x81c(%rbp)
    e585:	e9 d3 
    e587:	66 c7 85 e6 f7 ff ff 	movw   $0xd3e9,-0x81a(%rbp)
    e58e:	e9 d3 
    e590:	66 c7 85 e8 f7 ff ff 	movw   $0x1,-0x818(%rbp)
    e597:	01 00 
    e599:	66 c7 85 ea f7 ff ff 	movw   $0xa815,-0x816(%rbp)
    e5a0:	15 a8 
    e5a2:	66 c7 85 ec f7 ff ff 	movw   $0xe161,-0x814(%rbp)
    e5a9:	61 e1 
    e5ab:	66 c7 85 ee f7 ff ff 	movw   $0x7,-0x812(%rbp)
    e5b2:	07 00 
    e5b4:	66 c7 85 f0 f7 ff ff 	movw   $0xd3e9,-0x810(%rbp)
    e5bb:	e9 d3 
    e5bd:	66 c7 85 f2 f7 ff ff 	movw   $0xffff,-0x80e(%rbp)
    e5c4:	ff ff 
    e5c6:	66 c7 85 f4 f7 ff ff 	movw   $0x719,-0x80c(%rbp)
    e5cd:	19 07 
    e5cf:	66 c7 85 f6 f7 ff ff 	movw   $0x923d,-0x80a(%rbp)
    e5d6:	3d 92 
    e5d8:	66 c7 85 f8 f7 ff ff 	movw   $0x55c7,-0x808(%rbp)
    e5df:	c7 55 
    e5e1:	66 c7 85 fa f7 ff ff 	movw   $0x0,-0x806(%rbp)
    e5e8:	00 00 
    e5ea:	66 c7 85 fc f7 ff ff 	movw   $0xffff,-0x804(%rbp)
    e5f1:	ff ff 
    e5f3:	66 c7 85 fe f7 ff ff 	movw   $0xd3e9,-0x802(%rbp)
    e5fa:	e9 d3 
    e5fc:	66 c7 85 00 f8 ff ff 	movw   $0x719,-0x800(%rbp)
    e603:	19 07 
    e605:	66 c7 85 02 f8 ff ff 	movw   $0x7,-0x7fe(%rbp)
    e60c:	07 00 
    e60e:	66 c7 85 04 f8 ff ff 	movw   $0xe777,-0x7fc(%rbp)
    e615:	77 e7 
    e617:	66 c7 85 06 f8 ff ff 	movw   $0x7,-0x7fa(%rbp)
    e61e:	07 00 
    e620:	66 c7 85 08 f8 ff ff 	movw   $0x6592,-0x7f8(%rbp)
    e627:	92 65 
    e629:	66 c7 85 0a f8 ff ff 	movw   $0x719,-0x7f6(%rbp)
    e630:	19 07 
    e632:	66 c7 85 0c f8 ff ff 	movw   $0x1,-0x7f4(%rbp)
    e639:	01 00 
    e63b:	66 c7 85 0e f8 ff ff 	movw   $0x923d,-0x7f2(%rbp)
    e642:	3d 92 
    e644:	66 c7 85 10 f8 ff ff 	movw   $0xe777,-0x7f0(%rbp)
    e64b:	77 e7 
    e64d:	66 c7 85 12 f8 ff ff 	movw   $0xb719,-0x7ee(%rbp)
    e654:	19 b7 
    e656:	66 c7 85 14 f8 ff ff 	movw   $0xaadc,-0x7ec(%rbp)
    e65d:	dc aa 
    e65f:	66 c7 85 16 f8 ff ff 	movw   $0xd3e9,-0x7ea(%rbp)
    e666:	e9 d3 
    e668:	66 c7 85 18 f8 ff ff 	movw   $0x1,-0x7e8(%rbp)
    e66f:	01 00 
    e671:	66 c7 85 1a f8 ff ff 	movw   $0xa815,-0x7e6(%rbp)
    e678:	15 a8 
    e67a:	66 c7 85 1c f8 ff ff 	movw   $0x55c7,-0x7e4(%rbp)
    e681:	c7 55 
    e683:	66 c7 85 1e f8 ff ff 	movw   $0x7,-0x7e2(%rbp)
    e68a:	07 00 
    e68c:	66 c7 85 20 f8 ff ff 	movw   $0xaadc,-0x7e0(%rbp)
    e693:	dc aa 
    e695:	66 c7 85 22 f8 ff ff 	movw   $0xffff,-0x7de(%rbp)
    e69c:	ff ff 
    e69e:	66 c7 85 24 f8 ff ff 	movw   $0xffff,-0x7dc(%rbp)
    e6a5:	ff ff 
    e6a7:	66 c7 85 26 f8 ff ff 	movw   $0x923d,-0x7da(%rbp)
    e6ae:	3d 92 
    e6b0:	66 c7 85 28 f8 ff ff 	movw   $0xe161,-0x7d8(%rbp)
    e6b7:	61 e1 
    e6b9:	66 c7 85 2a f8 ff ff 	movw   $0x0,-0x7d6(%rbp)
    e6c0:	00 00 
    e6c2:	66 c7 85 2c f8 ff ff 	movw   $0x6592,-0x7d4(%rbp)
    e6c9:	92 65 
    e6cb:	66 c7 85 2e f8 ff ff 	movw   $0xd3e9,-0x7d2(%rbp)
    e6d2:	e9 d3 
    e6d4:	66 c7 85 30 f8 ff ff 	movw   $0xffff,-0x7d0(%rbp)
    e6db:	ff ff 
    e6dd:	66 c7 85 32 f8 ff ff 	movw   $0x7,-0x7ce(%rbp)
    e6e4:	07 00 
    e6e6:	66 c7 85 34 f8 ff ff 	movw   $0xfffa,-0x7cc(%rbp)
    e6ed:	fa ff 
    e6ef:	66 c7 85 36 f8 ff ff 	movw   $0x7,-0x7ca(%rbp)
    e6f6:	07 00 
    e6f8:	66 c7 85 38 f8 ff ff 	movw   $0xffff,-0x7c8(%rbp)
    e6ff:	ff ff 
    e701:	66 c7 85 3a f8 ff ff 	movw   $0x719,-0x7c6(%rbp)
    e708:	19 07 
    e70a:	66 c7 85 3c f8 ff ff 	movw   $0x1,-0x7c4(%rbp)
    e711:	01 00 
    e713:	66 c7 85 3e f8 ff ff 	movw   $0x923d,-0x7c2(%rbp)
    e71a:	3d 92 
    e71c:	66 c7 85 40 f8 ff ff 	movw   $0xfffa,-0x7c0(%rbp)
    e723:	fa ff 
    e725:	66 c7 85 42 f8 ff ff 	movw   $0xb719,-0x7be(%rbp)
    e72c:	19 b7 
    e72e:	66 c7 85 44 f8 ff ff 	movw   $0xd3e9,-0x7bc(%rbp)
    e735:	e9 d3 
    e737:	66 c7 85 46 f8 ff ff 	movw   $0xd3e9,-0x7ba(%rbp)
    e73e:	e9 d3 
    e740:	66 c7 85 48 f8 ff ff 	movw   $0x1,-0x7b8(%rbp)
    e747:	01 00 
    e749:	66 c7 85 4a f8 ff ff 	movw   $0xa815,-0x7b6(%rbp)
    e750:	15 a8 
    e752:	66 c7 85 4c f8 ff ff 	movw   $0xe161,-0x7b4(%rbp)
    e759:	61 e1 
    e75b:	66 c7 85 4e f8 ff ff 	movw   $0x7,-0x7b2(%rbp)
    e762:	07 00 
    e764:	48 8d 05 65 89 00 00 	lea    0x8965(%rip),%rax        # 170d0 <g_459>
    e76b:	48 89 85 10 f6 ff ff 	mov    %rax,-0x9f0(%rbp)
    e772:	48 8d 05 cb 89 00 00 	lea    0x89cb(%rip),%rax        # 17144 <g_774>
    e779:	48 89 85 18 f6 ff ff 	mov    %rax,-0x9e8(%rbp)
    e780:	48 c7 85 20 f6 ff ff 	movq   $0x0,-0x9e0(%rbp)
    e787:	00 00 00 00 
    e78b:	c7 85 50 f5 ff ff 5b 	movl   $0xee57095b,-0xab0(%rbp)
    e792:	09 57 ee 
    e795:	48 c7 85 80 f5 ff ff 	movq   $0x0,-0xa80(%rbp)
    e79c:	00 00 00 00 
    e7a0:	48 8d 85 80 f5 ff ff 	lea    -0xa80(%rbp),%rax
    e7a7:	48 89 85 28 f6 ff ff 	mov    %rax,-0x9d8(%rbp)
    e7ae:	48 8d 85 58 f5 ff ff 	lea    -0xaa8(%rbp),%rax
    e7b5:	48 89 85 30 f6 ff ff 	mov    %rax,-0x9d0(%rbp)
    e7bc:	48 b8 1e e2 24 29 0d 	movabs $0xc0464c0d2924e21e,%rax
    e7c3:	4c 46 c0 
    e7c6:	48 89 85 38 f6 ff ff 	mov    %rax,-0x9c8(%rbp)
    e7cd:	48 8d 05 3c 94 00 00 	lea    0x943c(%rip),%rax        # 17c10 <g_181>
    e7d4:	48 89 85 40 f6 ff ff 	mov    %rax,-0x9c0(%rbp)
    e7db:	48 8d 85 70 f6 ff ff 	lea    -0x990(%rbp),%rax
    e7e2:	48 83 c0 08          	add    $0x8,%rax
    e7e6:	48 89 85 88 f5 ff ff 	mov    %rax,-0xa78(%rbp)
    e7ed:	48 8d 85 b0 f6 ff ff 	lea    -0x950(%rbp),%rax
    e7f4:	48 89 85 90 f5 ff ff 	mov    %rax,-0xa70(%rbp)
    e7fb:	48 8d 85 90 f5 ff ff 	lea    -0xa70(%rbp),%rax
    e802:	48 89 85 48 f6 ff ff 	mov    %rax,-0x9b8(%rbp)
    e809:	48 c7 85 50 f6 ff ff 	movq   $0x4,-0x9b0(%rbp)
    e810:	04 00 00 00 
    e814:	c6 85 3b f5 ff ff 80 	movb   $0x80,-0xac5(%rbp)
    e81b:	48 8d 05 02 88 00 00 	lea    0x8802(%rip),%rax        # 17024 <g_2>
    e822:	48 89 85 98 f5 ff ff 	mov    %rax,-0xa68(%rbp)
    e829:	48 8d 85 98 f5 ff ff 	lea    -0xa68(%rbp),%rax
    e830:	48 89 85 a0 f5 ff ff 	mov    %rax,-0xa60(%rbp)
    e837:	48 8d 85 a0 f5 ff ff 	lea    -0xa60(%rbp),%rax
    e83e:	48 89 85 a8 f5 ff ff 	mov    %rax,-0xa58(%rbp)
    e845:	48 c7 85 50 f8 ff ff 	movq   $0x0,-0x7b0(%rbp)
    e84c:	00 00 00 00 
    e850:	48 c7 85 58 f8 ff ff 	movq   $0x0,-0x7a8(%rbp)
    e857:	00 00 00 00 
    e85b:	48 8d 85 a8 f5 ff ff 	lea    -0xa58(%rbp),%rax
    e862:	48 89 85 60 f8 ff ff 	mov    %rax,-0x7a0(%rbp)
    e869:	48 c7 85 68 f8 ff ff 	movq   $0x0,-0x798(%rbp)
    e870:	00 00 00 00 
    e874:	48 8d 85 a8 f5 ff ff 	lea    -0xa58(%rbp),%rax
    e87b:	48 89 85 70 f8 ff ff 	mov    %rax,-0x790(%rbp)
    e882:	48 c7 85 78 f8 ff ff 	movq   $0x0,-0x788(%rbp)
    e889:	00 00 00 00 
    e88d:	48 c7 85 80 f8 ff ff 	movq   $0x0,-0x780(%rbp)
    e894:	00 00 00 00 
    e898:	48 8d 85 a8 f5 ff ff 	lea    -0xa58(%rbp),%rax
    e89f:	48 89 85 88 f8 ff ff 	mov    %rax,-0x778(%rbp)
    e8a6:	48 8d 85 a8 f5 ff ff 	lea    -0xa58(%rbp),%rax
    e8ad:	48 89 85 90 f8 ff ff 	mov    %rax,-0x770(%rbp)
    e8b4:	48 c7 85 98 f8 ff ff 	movq   $0x0,-0x768(%rbp)
    e8bb:	00 00 00 00 
    e8bf:	48 8d 85 a8 f5 ff ff 	lea    -0xa58(%rbp),%rax
    e8c6:	48 89 85 a0 f8 ff ff 	mov    %rax,-0x760(%rbp)
    e8cd:	48 c7 85 a8 f8 ff ff 	movq   $0x0,-0x758(%rbp)
    e8d4:	00 00 00 00 
    e8d8:	48 8d 85 a8 f5 ff ff 	lea    -0xa58(%rbp),%rax
    e8df:	48 89 85 b0 f8 ff ff 	mov    %rax,-0x750(%rbp)
    e8e6:	48 8d 85 a8 f5 ff ff 	lea    -0xa58(%rbp),%rax
    e8ed:	48 89 85 b8 f8 ff ff 	mov    %rax,-0x748(%rbp)
    e8f4:	48 8d 85 a8 f5 ff ff 	lea    -0xa58(%rbp),%rax
    e8fb:	48 89 85 c0 f8 ff ff 	mov    %rax,-0x740(%rbp)
    e902:	48 8d 85 a8 f5 ff ff 	lea    -0xa58(%rbp),%rax
    e909:	48 89 85 c8 f8 ff ff 	mov    %rax,-0x738(%rbp)
    e910:	48 8d 85 a8 f5 ff ff 	lea    -0xa58(%rbp),%rax
    e917:	48 89 85 d0 f8 ff ff 	mov    %rax,-0x730(%rbp)
    e91e:	48 8d 85 a8 f5 ff ff 	lea    -0xa58(%rbp),%rax
    e925:	48 89 85 d8 f8 ff ff 	mov    %rax,-0x728(%rbp)
    e92c:	48 8d 85 a8 f5 ff ff 	lea    -0xa58(%rbp),%rax
    e933:	48 89 85 e0 f8 ff ff 	mov    %rax,-0x720(%rbp)
    e93a:	48 8d 85 a8 f5 ff ff 	lea    -0xa58(%rbp),%rax
    e941:	48 89 85 e8 f8 ff ff 	mov    %rax,-0x718(%rbp)
    e948:	48 8d 85 a8 f5 ff ff 	lea    -0xa58(%rbp),%rax
    e94f:	48 89 85 f0 f8 ff ff 	mov    %rax,-0x710(%rbp)
    e956:	48 8d 85 a8 f5 ff ff 	lea    -0xa58(%rbp),%rax
    e95d:	48 89 85 f8 f8 ff ff 	mov    %rax,-0x708(%rbp)
    e964:	48 8d 85 a8 f5 ff ff 	lea    -0xa58(%rbp),%rax
    e96b:	48 89 85 00 f9 ff ff 	mov    %rax,-0x700(%rbp)
    e972:	48 8d 85 a8 f5 ff ff 	lea    -0xa58(%rbp),%rax
    e979:	48 89 85 08 f9 ff ff 	mov    %rax,-0x6f8(%rbp)
    e980:	48 8d 85 a8 f5 ff ff 	lea    -0xa58(%rbp),%rax
    e987:	48 89 85 10 f9 ff ff 	mov    %rax,-0x6f0(%rbp)
    e98e:	48 8d 85 a8 f5 ff ff 	lea    -0xa58(%rbp),%rax
    e995:	48 89 85 18 f9 ff ff 	mov    %rax,-0x6e8(%rbp)
    e99c:	48 8d 85 a8 f5 ff ff 	lea    -0xa58(%rbp),%rax
    e9a3:	48 89 85 20 f9 ff ff 	mov    %rax,-0x6e0(%rbp)
    e9aa:	48 c7 85 28 f9 ff ff 	movq   $0x0,-0x6d8(%rbp)
    e9b1:	00 00 00 00 
    e9b5:	48 8d 85 a8 f5 ff ff 	lea    -0xa58(%rbp),%rax
    e9bc:	48 89 85 30 f9 ff ff 	mov    %rax,-0x6d0(%rbp)
    e9c3:	48 8d 85 a8 f5 ff ff 	lea    -0xa58(%rbp),%rax
    e9ca:	48 89 85 38 f9 ff ff 	mov    %rax,-0x6c8(%rbp)
    e9d1:	48 8d 85 a8 f5 ff ff 	lea    -0xa58(%rbp),%rax
    e9d8:	48 89 85 40 f9 ff ff 	mov    %rax,-0x6c0(%rbp)
    e9df:	48 c7 85 48 f9 ff ff 	movq   $0x0,-0x6b8(%rbp)
    e9e6:	00 00 00 00 
    e9ea:	48 8d 85 a8 f5 ff ff 	lea    -0xa58(%rbp),%rax
    e9f1:	48 89 85 50 f9 ff ff 	mov    %rax,-0x6b0(%rbp)
    e9f8:	48 c7 85 58 f9 ff ff 	movq   $0x0,-0x6a8(%rbp)
    e9ff:	00 00 00 00 
    ea03:	48 c7 85 60 f9 ff ff 	movq   $0x0,-0x6a0(%rbp)
    ea0a:	00 00 00 00 
    ea0e:	48 c7 85 68 f9 ff ff 	movq   $0x0,-0x698(%rbp)
    ea15:	00 00 00 00 
    ea19:	48 8d 85 a8 f5 ff ff 	lea    -0xa58(%rbp),%rax
    ea20:	48 89 85 70 f9 ff ff 	mov    %rax,-0x690(%rbp)
    ea27:	48 8d 85 a8 f5 ff ff 	lea    -0xa58(%rbp),%rax
    ea2e:	48 89 85 78 f9 ff ff 	mov    %rax,-0x688(%rbp)
    ea35:	48 c7 85 80 f9 ff ff 	movq   $0x0,-0x680(%rbp)
    ea3c:	00 00 00 00 
    ea40:	48 c7 85 88 f9 ff ff 	movq   $0x0,-0x678(%rbp)
    ea47:	00 00 00 00 
    ea4b:	48 8d 85 a8 f5 ff ff 	lea    -0xa58(%rbp),%rax
    ea52:	48 89 85 90 f9 ff ff 	mov    %rax,-0x670(%rbp)
    ea59:	48 8d 85 a8 f5 ff ff 	lea    -0xa58(%rbp),%rax
    ea60:	48 89 85 98 f9 ff ff 	mov    %rax,-0x668(%rbp)
    ea67:	48 8d 85 a8 f5 ff ff 	lea    -0xa58(%rbp),%rax
    ea6e:	48 89 85 a0 f9 ff ff 	mov    %rax,-0x660(%rbp)
    ea75:	48 c7 85 a8 f9 ff ff 	movq   $0x0,-0x658(%rbp)
    ea7c:	00 00 00 00 
    ea80:	48 8d 85 a8 f5 ff ff 	lea    -0xa58(%rbp),%rax
    ea87:	48 89 85 b0 f9 ff ff 	mov    %rax,-0x650(%rbp)
    ea8e:	48 8d 85 a8 f5 ff ff 	lea    -0xa58(%rbp),%rax
    ea95:	48 89 85 b8 f9 ff ff 	mov    %rax,-0x648(%rbp)
    ea9c:	48 8d 85 a8 f5 ff ff 	lea    -0xa58(%rbp),%rax
    eaa3:	48 89 85 c0 f9 ff ff 	mov    %rax,-0x640(%rbp)
    eaaa:	48 8d 85 a8 f5 ff ff 	lea    -0xa58(%rbp),%rax
    eab1:	48 89 85 c8 f9 ff ff 	mov    %rax,-0x638(%rbp)
    eab8:	48 c7 85 d0 f9 ff ff 	movq   $0x0,-0x630(%rbp)
    eabf:	00 00 00 00 
    eac3:	48 8d 85 a8 f5 ff ff 	lea    -0xa58(%rbp),%rax
    eaca:	48 89 85 d8 f9 ff ff 	mov    %rax,-0x628(%rbp)
    ead1:	48 8d 85 a8 f5 ff ff 	lea    -0xa58(%rbp),%rax
    ead8:	48 89 85 e0 f9 ff ff 	mov    %rax,-0x620(%rbp)
    eadf:	48 8d 85 a8 f5 ff ff 	lea    -0xa58(%rbp),%rax
    eae6:	48 89 85 e8 f9 ff ff 	mov    %rax,-0x618(%rbp)
    eaed:	48 8d 85 a8 f5 ff ff 	lea    -0xa58(%rbp),%rax
    eaf4:	48 89 85 f0 f9 ff ff 	mov    %rax,-0x610(%rbp)
    eafb:	48 8d 85 a8 f5 ff ff 	lea    -0xa58(%rbp),%rax
    eb02:	48 89 85 f8 f9 ff ff 	mov    %rax,-0x608(%rbp)
    eb09:	48 8d 85 a8 f5 ff ff 	lea    -0xa58(%rbp),%rax
    eb10:	48 89 85 00 fa ff ff 	mov    %rax,-0x600(%rbp)
    eb17:	48 8d 85 a8 f5 ff ff 	lea    -0xa58(%rbp),%rax
    eb1e:	48 89 85 08 fa ff ff 	mov    %rax,-0x5f8(%rbp)
    eb25:	48 8d 85 a8 f5 ff ff 	lea    -0xa58(%rbp),%rax
    eb2c:	48 89 85 10 fa ff ff 	mov    %rax,-0x5f0(%rbp)
    eb33:	48 8d 85 a8 f5 ff ff 	lea    -0xa58(%rbp),%rax
    eb3a:	48 89 85 18 fa ff ff 	mov    %rax,-0x5e8(%rbp)
    eb41:	48 8d 85 a8 f5 ff ff 	lea    -0xa58(%rbp),%rax
    eb48:	48 89 85 20 fa ff ff 	mov    %rax,-0x5e0(%rbp)
    eb4f:	48 8d 85 a8 f5 ff ff 	lea    -0xa58(%rbp),%rax
    eb56:	48 89 85 28 fa ff ff 	mov    %rax,-0x5d8(%rbp)
    eb5d:	48 8d 85 a8 f5 ff ff 	lea    -0xa58(%rbp),%rax
    eb64:	48 89 85 30 fa ff ff 	mov    %rax,-0x5d0(%rbp)
    eb6b:	48 8d 85 a8 f5 ff ff 	lea    -0xa58(%rbp),%rax
    eb72:	48 89 85 38 fa ff ff 	mov    %rax,-0x5c8(%rbp)
    eb79:	48 8d 85 a8 f5 ff ff 	lea    -0xa58(%rbp),%rax
    eb80:	48 89 85 40 fa ff ff 	mov    %rax,-0x5c0(%rbp)
    eb87:	48 c7 85 48 fa ff ff 	movq   $0x0,-0x5b8(%rbp)
    eb8e:	00 00 00 00 
    eb92:	48 8d 85 a8 f5 ff ff 	lea    -0xa58(%rbp),%rax
    eb99:	48 89 85 50 fa ff ff 	mov    %rax,-0x5b0(%rbp)
    eba0:	48 c7 85 58 fa ff ff 	movq   $0x0,-0x5a8(%rbp)
    eba7:	00 00 00 00 
    ebab:	48 8d 85 a8 f5 ff ff 	lea    -0xa58(%rbp),%rax
    ebb2:	48 89 85 60 fa ff ff 	mov    %rax,-0x5a0(%rbp)
    ebb9:	48 8d 85 a8 f5 ff ff 	lea    -0xa58(%rbp),%rax
    ebc0:	48 89 85 68 fa ff ff 	mov    %rax,-0x598(%rbp)
    ebc7:	48 8d 85 a8 f5 ff ff 	lea    -0xa58(%rbp),%rax
    ebce:	48 89 85 70 fa ff ff 	mov    %rax,-0x590(%rbp)
    ebd5:	48 c7 85 78 fa ff ff 	movq   $0x0,-0x588(%rbp)
    ebdc:	00 00 00 00 
    ebe0:	48 8d 85 a8 f5 ff ff 	lea    -0xa58(%rbp),%rax
    ebe7:	48 89 85 80 fa ff ff 	mov    %rax,-0x580(%rbp)
    ebee:	48 c7 85 88 fa ff ff 	movq   $0x0,-0x578(%rbp)
    ebf5:	00 00 00 00 
    ebf9:	48 c7 85 90 fa ff ff 	movq   $0x0,-0x570(%rbp)
    ec00:	00 00 00 00 
    ec04:	48 8d 85 a8 f5 ff ff 	lea    -0xa58(%rbp),%rax
    ec0b:	48 89 85 98 fa ff ff 	mov    %rax,-0x568(%rbp)
    ec12:	48 c7 85 a0 fa ff ff 	movq   $0x0,-0x560(%rbp)
    ec19:	00 00 00 00 
    ec1d:	48 8d 85 a8 f5 ff ff 	lea    -0xa58(%rbp),%rax
    ec24:	48 89 85 a8 fa ff ff 	mov    %rax,-0x558(%rbp)
    ec2b:	48 c7 85 b0 fa ff ff 	movq   $0x0,-0x550(%rbp)
    ec32:	00 00 00 00 
    ec36:	48 c7 85 b8 fa ff ff 	movq   $0x0,-0x548(%rbp)
    ec3d:	00 00 00 00 
    ec41:	48 8d 85 a8 f5 ff ff 	lea    -0xa58(%rbp),%rax
    ec48:	48 89 85 c0 fa ff ff 	mov    %rax,-0x540(%rbp)
    ec4f:	48 c7 85 c8 fa ff ff 	movq   $0x0,-0x538(%rbp)
    ec56:	00 00 00 00 
    ec5a:	48 8d 85 a8 f5 ff ff 	lea    -0xa58(%rbp),%rax
    ec61:	48 89 85 d0 fa ff ff 	mov    %rax,-0x530(%rbp)
    ec68:	48 8d 85 a8 f5 ff ff 	lea    -0xa58(%rbp),%rax
    ec6f:	48 89 85 d8 fa ff ff 	mov    %rax,-0x528(%rbp)
    ec76:	48 8d 85 a8 f5 ff ff 	lea    -0xa58(%rbp),%rax
    ec7d:	48 89 85 e0 fa ff ff 	mov    %rax,-0x520(%rbp)
    ec84:	48 8d 85 a8 f5 ff ff 	lea    -0xa58(%rbp),%rax
    ec8b:	48 89 85 e8 fa ff ff 	mov    %rax,-0x518(%rbp)
    ec92:	48 c7 85 f0 fa ff ff 	movq   $0x0,-0x510(%rbp)
    ec99:	00 00 00 00 
    ec9d:	48 8d 85 a8 f5 ff ff 	lea    -0xa58(%rbp),%rax
    eca4:	48 89 85 f8 fa ff ff 	mov    %rax,-0x508(%rbp)
    ecab:	48 8d 85 a8 f5 ff ff 	lea    -0xa58(%rbp),%rax
    ecb2:	48 89 85 00 fb ff ff 	mov    %rax,-0x500(%rbp)
    ecb9:	48 8d 85 a8 f5 ff ff 	lea    -0xa58(%rbp),%rax
    ecc0:	48 89 85 08 fb ff ff 	mov    %rax,-0x4f8(%rbp)
    ecc7:	48 c7 85 10 fb ff ff 	movq   $0x0,-0x4f0(%rbp)
    ecce:	00 00 00 00 
    ecd2:	48 8d 85 a8 f5 ff ff 	lea    -0xa58(%rbp),%rax
    ecd9:	48 89 85 18 fb ff ff 	mov    %rax,-0x4e8(%rbp)
    ece0:	48 c7 85 20 fb ff ff 	movq   $0x0,-0x4e0(%rbp)
    ece7:	00 00 00 00 
    eceb:	48 c7 85 28 fb ff ff 	movq   $0x0,-0x4d8(%rbp)
    ecf2:	00 00 00 00 
    ecf6:	48 8d 85 a8 f5 ff ff 	lea    -0xa58(%rbp),%rax
    ecfd:	48 89 85 30 fb ff ff 	mov    %rax,-0x4d0(%rbp)
    ed04:	48 8d 85 a8 f5 ff ff 	lea    -0xa58(%rbp),%rax
    ed0b:	48 89 85 38 fb ff ff 	mov    %rax,-0x4c8(%rbp)
    ed12:	48 8d 85 a8 f5 ff ff 	lea    -0xa58(%rbp),%rax
    ed19:	48 89 85 40 fb ff ff 	mov    %rax,-0x4c0(%rbp)
    ed20:	48 c7 85 48 fb ff ff 	movq   $0x0,-0x4b8(%rbp)
    ed27:	00 00 00 00 
    ed2b:	48 c7 85 50 fb ff ff 	movq   $0x0,-0x4b0(%rbp)
    ed32:	00 00 00 00 
    ed36:	48 8d 85 a8 f5 ff ff 	lea    -0xa58(%rbp),%rax
    ed3d:	48 89 85 58 fb ff ff 	mov    %rax,-0x4a8(%rbp)
    ed44:	48 8d 85 a8 f5 ff ff 	lea    -0xa58(%rbp),%rax
    ed4b:	48 89 85 60 fb ff ff 	mov    %rax,-0x4a0(%rbp)
    ed52:	48 c7 85 68 fb ff ff 	movq   $0x0,-0x498(%rbp)
    ed59:	00 00 00 00 
    ed5d:	48 8d 85 a8 f5 ff ff 	lea    -0xa58(%rbp),%rax
    ed64:	48 89 85 70 fb ff ff 	mov    %rax,-0x490(%rbp)
    ed6b:	48 c7 85 78 fb ff ff 	movq   $0x0,-0x488(%rbp)
    ed72:	00 00 00 00 
    ed76:	48 8d 85 a8 f5 ff ff 	lea    -0xa58(%rbp),%rax
    ed7d:	48 89 85 80 fb ff ff 	mov    %rax,-0x480(%rbp)
    ed84:	48 c7 85 88 fb ff ff 	movq   $0x0,-0x478(%rbp)
    ed8b:	00 00 00 00 
    ed8f:	48 8d 85 a8 f5 ff ff 	lea    -0xa58(%rbp),%rax
    ed96:	48 89 85 90 fb ff ff 	mov    %rax,-0x470(%rbp)
    ed9d:	48 8d 85 a8 f5 ff ff 	lea    -0xa58(%rbp),%rax
    eda4:	48 89 85 98 fb ff ff 	mov    %rax,-0x468(%rbp)
    edab:	48 8d 85 a8 f5 ff ff 	lea    -0xa58(%rbp),%rax
    edb2:	48 89 85 a0 fb ff ff 	mov    %rax,-0x460(%rbp)
    edb9:	48 c7 85 a8 fb ff ff 	movq   $0x0,-0x458(%rbp)
    edc0:	00 00 00 00 
    edc4:	48 8d 85 a8 f5 ff ff 	lea    -0xa58(%rbp),%rax
    edcb:	48 89 85 b0 fb ff ff 	mov    %rax,-0x450(%rbp)
    edd2:	48 8d 85 a8 f5 ff ff 	lea    -0xa58(%rbp),%rax
    edd9:	48 89 85 b8 fb ff ff 	mov    %rax,-0x448(%rbp)
    ede0:	48 8d 85 a8 f5 ff ff 	lea    -0xa58(%rbp),%rax
    ede7:	48 89 85 c0 fb ff ff 	mov    %rax,-0x440(%rbp)
    edee:	48 8d 85 a8 f5 ff ff 	lea    -0xa58(%rbp),%rax
    edf5:	48 89 85 c8 fb ff ff 	mov    %rax,-0x438(%rbp)
    edfc:	48 8d 85 a8 f5 ff ff 	lea    -0xa58(%rbp),%rax
    ee03:	48 89 85 d0 fb ff ff 	mov    %rax,-0x430(%rbp)
    ee0a:	48 8d 85 a8 f5 ff ff 	lea    -0xa58(%rbp),%rax
    ee11:	48 89 85 d8 fb ff ff 	mov    %rax,-0x428(%rbp)
    ee18:	48 8d 85 a8 f5 ff ff 	lea    -0xa58(%rbp),%rax
    ee1f:	48 89 85 e0 fb ff ff 	mov    %rax,-0x420(%rbp)
    ee26:	48 8d 85 a8 f5 ff ff 	lea    -0xa58(%rbp),%rax
    ee2d:	48 89 85 e8 fb ff ff 	mov    %rax,-0x418(%rbp)
    ee34:	48 8d 85 a8 f5 ff ff 	lea    -0xa58(%rbp),%rax
    ee3b:	48 89 85 f0 fb ff ff 	mov    %rax,-0x410(%rbp)
    ee42:	48 8d 85 a8 f5 ff ff 	lea    -0xa58(%rbp),%rax
    ee49:	48 89 85 f8 fb ff ff 	mov    %rax,-0x408(%rbp)
    ee50:	48 8d 85 a8 f5 ff ff 	lea    -0xa58(%rbp),%rax
    ee57:	48 89 85 00 fc ff ff 	mov    %rax,-0x400(%rbp)
    ee5e:	48 8d 85 a8 f5 ff ff 	lea    -0xa58(%rbp),%rax
    ee65:	48 89 85 08 fc ff ff 	mov    %rax,-0x3f8(%rbp)
    ee6c:	48 8d 85 a8 f5 ff ff 	lea    -0xa58(%rbp),%rax
    ee73:	48 89 85 10 fc ff ff 	mov    %rax,-0x3f0(%rbp)
    ee7a:	48 8d 85 a8 f5 ff ff 	lea    -0xa58(%rbp),%rax
    ee81:	48 89 85 18 fc ff ff 	mov    %rax,-0x3e8(%rbp)
    ee88:	48 8d 85 a8 f5 ff ff 	lea    -0xa58(%rbp),%rax
    ee8f:	48 89 85 20 fc ff ff 	mov    %rax,-0x3e0(%rbp)
    ee96:	48 8d 85 a8 f5 ff ff 	lea    -0xa58(%rbp),%rax
    ee9d:	48 89 85 28 fc ff ff 	mov    %rax,-0x3d8(%rbp)
    eea4:	48 c7 85 30 fc ff ff 	movq   $0x0,-0x3d0(%rbp)
    eeab:	00 00 00 00 
    eeaf:	48 8d 85 a8 f5 ff ff 	lea    -0xa58(%rbp),%rax
    eeb6:	48 89 85 38 fc ff ff 	mov    %rax,-0x3c8(%rbp)
    eebd:	48 8d 85 a8 f5 ff ff 	lea    -0xa58(%rbp),%rax
    eec4:	48 89 85 40 fc ff ff 	mov    %rax,-0x3c0(%rbp)
    eecb:	48 8d 85 a8 f5 ff ff 	lea    -0xa58(%rbp),%rax
    eed2:	48 89 85 48 fc ff ff 	mov    %rax,-0x3b8(%rbp)
    eed9:	48 c7 85 50 fc ff ff 	movq   $0x0,-0x3b0(%rbp)
    eee0:	00 00 00 00 
    eee4:	48 8d 85 a8 f5 ff ff 	lea    -0xa58(%rbp),%rax
    eeeb:	48 89 85 58 fc ff ff 	mov    %rax,-0x3a8(%rbp)
    eef2:	48 8d 85 a8 f5 ff ff 	lea    -0xa58(%rbp),%rax
    eef9:	48 89 85 60 fc ff ff 	mov    %rax,-0x3a0(%rbp)
    ef00:	48 8d 85 a8 f5 ff ff 	lea    -0xa58(%rbp),%rax
    ef07:	48 89 85 68 fc ff ff 	mov    %rax,-0x398(%rbp)
    ef0e:	48 8d 85 a8 f5 ff ff 	lea    -0xa58(%rbp),%rax
    ef15:	48 89 85 70 fc ff ff 	mov    %rax,-0x390(%rbp)
    ef1c:	48 8d 85 a8 f5 ff ff 	lea    -0xa58(%rbp),%rax
    ef23:	48 89 85 78 fc ff ff 	mov    %rax,-0x388(%rbp)
    ef2a:	48 8d 85 a8 f5 ff ff 	lea    -0xa58(%rbp),%rax
    ef31:	48 89 85 80 fc ff ff 	mov    %rax,-0x380(%rbp)
    ef38:	48 c7 85 88 fc ff ff 	movq   $0x0,-0x378(%rbp)
    ef3f:	00 00 00 00 
    ef43:	48 8d 85 a8 f5 ff ff 	lea    -0xa58(%rbp),%rax
    ef4a:	48 89 85 90 fc ff ff 	mov    %rax,-0x370(%rbp)
    ef51:	48 c7 85 98 fc ff ff 	movq   $0x0,-0x368(%rbp)
    ef58:	00 00 00 00 
    ef5c:	48 c7 85 a0 fc ff ff 	movq   $0x0,-0x360(%rbp)
    ef63:	00 00 00 00 
    ef67:	48 c7 85 a8 fc ff ff 	movq   $0x0,-0x358(%rbp)
    ef6e:	00 00 00 00 
    ef72:	48 8d 85 a8 f5 ff ff 	lea    -0xa58(%rbp),%rax
    ef79:	48 89 85 b0 fc ff ff 	mov    %rax,-0x350(%rbp)
    ef80:	48 c7 85 b8 fc ff ff 	movq   $0x0,-0x348(%rbp)
    ef87:	00 00 00 00 
    ef8b:	48 8d 85 a8 f5 ff ff 	lea    -0xa58(%rbp),%rax
    ef92:	48 89 85 c0 fc ff ff 	mov    %rax,-0x340(%rbp)
    ef99:	48 8d 85 a8 f5 ff ff 	lea    -0xa58(%rbp),%rax
    efa0:	48 89 85 c8 fc ff ff 	mov    %rax,-0x338(%rbp)
    efa7:	48 8d 85 a8 f5 ff ff 	lea    -0xa58(%rbp),%rax
    efae:	48 89 85 d0 fc ff ff 	mov    %rax,-0x330(%rbp)
    efb5:	48 c7 85 d8 fc ff ff 	movq   $0x0,-0x328(%rbp)
    efbc:	00 00 00 00 
    efc0:	48 c7 85 e0 fc ff ff 	movq   $0x0,-0x320(%rbp)
    efc7:	00 00 00 00 
    efcb:	48 8d 85 a8 f5 ff ff 	lea    -0xa58(%rbp),%rax
    efd2:	48 89 85 e8 fc ff ff 	mov    %rax,-0x318(%rbp)
    efd9:	48 8d 85 a8 f5 ff ff 	lea    -0xa58(%rbp),%rax
    efe0:	48 89 85 f0 fc ff ff 	mov    %rax,-0x310(%rbp)
    efe7:	48 8d 85 a8 f5 ff ff 	lea    -0xa58(%rbp),%rax
    efee:	48 89 85 f8 fc ff ff 	mov    %rax,-0x308(%rbp)
    eff5:	48 c7 85 00 fd ff ff 	movq   $0x0,-0x300(%rbp)
    effc:	00 00 00 00 
    f000:	48 c7 85 08 fd ff ff 	movq   $0x0,-0x2f8(%rbp)
    f007:	00 00 00 00 
    f00b:	48 8d 85 a8 f5 ff ff 	lea    -0xa58(%rbp),%rax
    f012:	48 89 85 10 fd ff ff 	mov    %rax,-0x2f0(%rbp)
    f019:	48 8d 85 a8 f5 ff ff 	lea    -0xa58(%rbp),%rax
    f020:	48 89 85 18 fd ff ff 	mov    %rax,-0x2e8(%rbp)
    f027:	48 8d 85 a8 f5 ff ff 	lea    -0xa58(%rbp),%rax
    f02e:	48 89 85 20 fd ff ff 	mov    %rax,-0x2e0(%rbp)
    f035:	48 c7 85 28 fd ff ff 	movq   $0x0,-0x2d8(%rbp)
    f03c:	00 00 00 00 
    f040:	48 c7 85 30 fd ff ff 	movq   $0x0,-0x2d0(%rbp)
    f047:	00 00 00 00 
    f04b:	48 8d 85 a8 f5 ff ff 	lea    -0xa58(%rbp),%rax
    f052:	48 89 85 38 fd ff ff 	mov    %rax,-0x2c8(%rbp)
    f059:	48 c7 85 40 fd ff ff 	movq   $0x0,-0x2c0(%rbp)
    f060:	00 00 00 00 
    f064:	48 c7 85 48 fd ff ff 	movq   $0x0,-0x2b8(%rbp)
    f06b:	00 00 00 00 
    f06f:	48 8d 85 a8 f5 ff ff 	lea    -0xa58(%rbp),%rax
    f076:	48 89 85 50 fd ff ff 	mov    %rax,-0x2b0(%rbp)
    f07d:	48 8d 85 a8 f5 ff ff 	lea    -0xa58(%rbp),%rax
    f084:	48 89 85 58 fd ff ff 	mov    %rax,-0x2a8(%rbp)
    f08b:	66 c7 85 3e f5 ff ff 	movw   $0x0,-0xac2(%rbp)
    f092:	00 00 
    f094:	c7 85 54 f5 ff ff 90 	movl   $0x66fe1f90,-0xaac(%rbp)
    f09b:	1f fe 66 
    f09e:	c7 85 44 f5 ff ff 00 	movl   $0x0,-0xabc(%rbp)
    f0a5:	00 00 00 
    f0a8:	eb 46                	jmp    f0f0 <func_35+0xfc7>
    f0aa:	c7 85 48 f5 ff ff 00 	movl   $0x0,-0xab8(%rbp)
    f0b1:	00 00 00 
    f0b4:	eb 2a                	jmp    f0e0 <func_35+0xfb7>
    f0b6:	8b 85 48 f5 ff ff    	mov    -0xab8(%rbp),%eax
    f0bc:	48 63 d0             	movslq %eax,%rdx
    f0bf:	8b 85 44 f5 ff ff    	mov    -0xabc(%rbp),%eax
    f0c5:	48 98                	cltq   
    f0c7:	48 01 d0             	add    %rdx,%rax
    f0ca:	48 8d 15 a7 a0 00 00 	lea    0xa0a7(%rip),%rdx        # 19178 <g_766>
    f0d1:	48 89 94 c5 70 f6 ff 	mov    %rdx,-0x990(%rbp,%rax,8)
    f0d8:	ff 
    f0d9:	83 85 48 f5 ff ff 01 	addl   $0x1,-0xab8(%rbp)
    f0e0:	83 bd 48 f5 ff ff 00 	cmpl   $0x0,-0xab8(%rbp)
    f0e7:	7e cd                	jle    f0b6 <func_35+0xf8d>
    f0e9:	83 85 44 f5 ff ff 01 	addl   $0x1,-0xabc(%rbp)
    f0f0:	83 bd 44 f5 ff ff 02 	cmpl   $0x2,-0xabc(%rbp)
    f0f7:	7e b1                	jle    f0aa <func_35+0xf81>
    f0f9:	c7 85 44 f5 ff ff 00 	movl   $0x0,-0xabc(%rbp)
    f100:	00 00 00 
    f103:	eb 1e                	jmp    f123 <func_35+0xffa>
    f105:	8b 85 44 f5 ff ff    	mov    -0xabc(%rbp),%eax
    f10b:	48 98                	cltq   
    f10d:	48 8d 15 dc 8a 00 00 	lea    0x8adc(%rip),%rdx        # 17bf0 <g_183>
    f114:	48 89 94 c5 90 f6 ff 	mov    %rdx,-0x970(%rbp,%rax,8)
    f11b:	ff 
    f11c:	83 85 44 f5 ff ff 01 	addl   $0x1,-0xabc(%rbp)
    f123:	83 bd 44 f5 ff ff 02 	cmpl   $0x2,-0xabc(%rbp)
    f12a:	7e d9                	jle    f105 <func_35+0xfdc>
    f12c:	c7 85 44 f5 ff ff 00 	movl   $0x0,-0xabc(%rbp)
    f133:	00 00 00 
    f136:	eb 1e                	jmp    f156 <func_35+0x102d>
    f138:	8b 85 44 f5 ff ff    	mov    -0xabc(%rbp),%eax
    f13e:	48 98                	cltq   
    f140:	48 8d 95 88 f5 ff ff 	lea    -0xa78(%rbp),%rdx
    f147:	48 89 94 c5 b0 f6 ff 	mov    %rdx,-0x950(%rbp,%rax,8)
    f14e:	ff 
    f14f:	83 85 44 f5 ff ff 01 	addl   $0x1,-0xabc(%rbp)
    f156:	83 bd 44 f5 ff ff 02 	cmpl   $0x2,-0xabc(%rbp)
    f15d:	7e d9                	jle    f138 <func_35+0x100f>
    f15f:	0f b6 85 39 f5 ff ff 	movzbl -0xac7(%rbp),%eax
    f166:	44 0f b6 e0          	movzbl %al,%r12d
    f16a:	0f b6 9d 2c f5 ff ff 	movzbl -0xad4(%rbp),%ebx
    f171:	44 0f b7 ad 3c f5 ff 	movzwl -0xac4(%rbp),%r13d
    f178:	ff 
    f179:	0f b6 85 39 f5 ff ff 	movzbl -0xac7(%rbp),%eax
    f180:	0f b6 c0             	movzbl %al,%eax
    f183:	48 89 c6             	mov    %rax,%rsi
    f186:	bf 00 00 00 00       	mov    $0x0,%edi
    f18b:	e8 1f 6f ff ff       	callq  60af <safe_div_func_uint64_t_u_u>
    f190:	48 8b 95 f8 f5 ff ff 	mov    -0xa08(%rbp),%rdx
    f197:	0f b7 12             	movzwl (%rdx),%edx
    f19a:	31 c2                	xor    %eax,%edx
    f19c:	48 8b 85 f8 f5 ff ff 	mov    -0xa08(%rbp),%rax
    f1a3:	66 89 10             	mov    %dx,(%rax)
    f1a6:	48 8b 85 f8 f5 ff ff 	mov    -0xa08(%rbp),%rax
    f1ad:	0f b7 10             	movzwl (%rax),%edx
    f1b0:	48 8b 85 00 f6 ff ff 	mov    -0xa00(%rbp),%rax
    f1b7:	66 89 10             	mov    %dx,(%rax)
    f1ba:	48 8b 85 00 f6 ff ff 	mov    -0xa00(%rbp),%rax
    f1c1:	0f b7 00             	movzwl (%rax),%eax
    f1c4:	0f bf d0             	movswl %ax,%edx
    f1c7:	48 83 bd f0 f5 ff ff 	cmpq   $0x0,-0xa10(%rbp)
    f1ce:	00 
    f1cf:	0f 94 c0             	sete   %al
    f1d2:	0f b6 c0             	movzbl %al,%eax
    f1d5:	89 d6                	mov    %edx,%esi
    f1d7:	89 c7                	mov    %eax,%edi
    f1d9:	e8 17 62 ff ff       	callq  53f5 <safe_mul_func_int16_t_s_s>
    f1de:	98                   	cwtl   
    f1df:	41 39 c5             	cmp    %eax,%r13d
    f1e2:	74 07                	je     f1eb <func_35+0x10c2>
    f1e4:	b8 9d 00 00 00       	mov    $0x9d,%eax
    f1e9:	eb 05                	jmp    f1f0 <func_35+0x10c7>
    f1eb:	b8 9c 00 00 00       	mov    $0x9c,%eax
    f1f0:	89 de                	mov    %ebx,%esi
    f1f2:	89 c7                	mov    %eax,%edi
    f1f4:	e8 4f 6c ff ff       	callq  5e48 <safe_rshift_func_uint16_t_u_s>
    f1f9:	66 41 39 c4          	cmp    %ax,%r12w
    f1fd:	77 0c                	ja     f20b <func_35+0x10e2>
    f1ff:	48 8b 85 18 f5 ff ff 	mov    -0xae8(%rbp),%rax
    f206:	0f b6 00             	movzbl (%rax),%eax
    f209:	84 c0                	test   %al,%al
    f20b:	48 8d 05 12 7e 00 00 	lea    0x7e12(%rip),%rax        # 17024 <g_2>
    f212:	48 89 85 58 f6 ff ff 	mov    %rax,-0x9a8(%rbp)
    f219:	48 8b 05 f8 89 00 00 	mov    0x89f8(%rip),%rax        # 17c18 <g_180>
    f220:	48 8b 00             	mov    (%rax),%rax
    f223:	48 8b 00             	mov    (%rax),%rax
    f226:	48 8b 00             	mov    (%rax),%rax
    f229:	48 8b 95 58 f6 ff ff 	mov    -0x9a8(%rbp),%rdx
    f230:	48 89 10             	mov    %rdx,(%rax)
    f233:	66 c7 05 a4 7e 00 00 	movw   $0x0,0x7ea4(%rip)        # 170e0 <g_489>
    f23a:	00 00 
    f23c:	90                   	nop
    f23d:	0f b7 05 9c 7e 00 00 	movzwl 0x7e9c(%rip),%eax        # 170e0 <g_489>
    f244:	66 83 f8 ec          	cmp    $0xffec,%ax
    f248:	75 1a                	jne    f264 <func_35+0x113b>
    f24a:	48 8d 05 e7 7d 00 00 	lea    0x7de7(%rip),%rax        # 17038 <g_70>
    f251:	48 89 85 60 f6 ff ff 	mov    %rax,-0x9a0(%rbp)
    f258:	48 8b 85 60 f6 ff ff 	mov    -0x9a0(%rbp),%rax
    f25f:	e9 44 0d 00 00       	jmpq   ffa8 <func_35+0x1e7f>
    f264:	80 bd 2c f5 ff ff 00 	cmpb   $0x0,-0xad4(%rbp)
    f26b:	75 20                	jne    f28d <func_35+0x1164>
    f26d:	8b 05 c5 7d 00 00    	mov    0x7dc5(%rip),%eax        # 17038 <g_70>
    f273:	83 e8 01             	sub    $0x1,%eax
    f276:	89 05 bc 7d 00 00    	mov    %eax,0x7dbc(%rip)        # 17038 <g_70>
    f27c:	8b 05 b6 7d 00 00    	mov    0x7db6(%rip),%eax        # 17038 <g_70>
    f282:	83 f8 e2             	cmp    $0xffffffe2,%eax
    f285:	0f 85 60 f0 ff ff    	jne    e2eb <func_35+0x1c2>
    f28b:	eb 01                	jmp    f28e <func_35+0x1165>
    f28d:	90                   	nop
    f28e:	66 c7 05 01 7e 00 00 	movw   $0x5,0x7e01(%rip)        # 17098 <g_360>
    f295:	05 00 
    f297:	e9 d6 0c 00 00       	jmpq   ff72 <func_35+0x1e49>
    f29c:	48 8d 05 e5 9e 00 00 	lea    0x9ee5(%rip),%rax        # 19188 <g_1223>
    f2a3:	48 89 85 68 f6 ff ff 	mov    %rax,-0x998(%rbp)
    f2aa:	48 c7 85 50 f8 ff ff 	movq   $0x0,-0x7b0(%rbp)
    f2b1:	00 00 00 00 
    f2b5:	48 8d 85 78 f5 ff ff 	lea    -0xa88(%rbp),%rax
    f2bc:	48 89 85 58 f8 ff ff 	mov    %rax,-0x7a8(%rbp)
    f2c3:	48 8d 85 78 f5 ff ff 	lea    -0xa88(%rbp),%rax
    f2ca:	48 89 85 60 f8 ff ff 	mov    %rax,-0x7a0(%rbp)
    f2d1:	48 8d 85 78 f5 ff ff 	lea    -0xa88(%rbp),%rax
    f2d8:	48 89 85 68 f8 ff ff 	mov    %rax,-0x798(%rbp)
    f2df:	48 8d 85 78 f5 ff ff 	lea    -0xa88(%rbp),%rax
    f2e6:	48 89 85 70 f8 ff ff 	mov    %rax,-0x790(%rbp)
    f2ed:	48 8d 85 78 f5 ff ff 	lea    -0xa88(%rbp),%rax
    f2f4:	48 89 85 78 f8 ff ff 	mov    %rax,-0x788(%rbp)
    f2fb:	48 8d 85 78 f5 ff ff 	lea    -0xa88(%rbp),%rax
    f302:	48 89 85 80 f8 ff ff 	mov    %rax,-0x780(%rbp)
    f309:	48 8d 85 78 f5 ff ff 	lea    -0xa88(%rbp),%rax
    f310:	48 89 85 88 f8 ff ff 	mov    %rax,-0x778(%rbp)
    f317:	48 c7 85 90 f8 ff ff 	movq   $0x0,-0x770(%rbp)
    f31e:	00 00 00 00 
    f322:	48 8d 85 78 f5 ff ff 	lea    -0xa88(%rbp),%rax
    f329:	48 89 85 98 f8 ff ff 	mov    %rax,-0x768(%rbp)
    f330:	48 8d 85 78 f5 ff ff 	lea    -0xa88(%rbp),%rax
    f337:	48 89 85 a0 f8 ff ff 	mov    %rax,-0x760(%rbp)
    f33e:	48 8d 85 78 f5 ff ff 	lea    -0xa88(%rbp),%rax
    f345:	48 89 85 a8 f8 ff ff 	mov    %rax,-0x758(%rbp)
    f34c:	48 8d 85 78 f5 ff ff 	lea    -0xa88(%rbp),%rax
    f353:	48 89 85 b0 f8 ff ff 	mov    %rax,-0x750(%rbp)
    f35a:	48 8d 85 78 f5 ff ff 	lea    -0xa88(%rbp),%rax
    f361:	48 89 85 b8 f8 ff ff 	mov    %rax,-0x748(%rbp)
    f368:	48 8d 85 78 f5 ff ff 	lea    -0xa88(%rbp),%rax
    f36f:	48 89 85 c0 f8 ff ff 	mov    %rax,-0x740(%rbp)
    f376:	48 c7 85 c8 f8 ff ff 	movq   $0x0,-0x738(%rbp)
    f37d:	00 00 00 00 
    f381:	48 8d 85 78 f5 ff ff 	lea    -0xa88(%rbp),%rax
    f388:	48 89 85 d0 f8 ff ff 	mov    %rax,-0x730(%rbp)
    f38f:	48 8d 85 78 f5 ff ff 	lea    -0xa88(%rbp),%rax
    f396:	48 89 85 d8 f8 ff ff 	mov    %rax,-0x728(%rbp)
    f39d:	48 c7 85 e0 f8 ff ff 	movq   $0x0,-0x720(%rbp)
    f3a4:	00 00 00 00 
    f3a8:	48 8d 85 78 f5 ff ff 	lea    -0xa88(%rbp),%rax
    f3af:	48 89 85 e8 f8 ff ff 	mov    %rax,-0x718(%rbp)
    f3b6:	48 c7 85 f0 f8 ff ff 	movq   $0x0,-0x710(%rbp)
    f3bd:	00 00 00 00 
    f3c1:	48 8d 85 78 f5 ff ff 	lea    -0xa88(%rbp),%rax
    f3c8:	48 89 85 f8 f8 ff ff 	mov    %rax,-0x708(%rbp)
    f3cf:	48 c7 85 00 f9 ff ff 	movq   $0x0,-0x700(%rbp)
    f3d6:	00 00 00 00 
    f3da:	48 8d 85 78 f5 ff ff 	lea    -0xa88(%rbp),%rax
    f3e1:	48 89 85 08 f9 ff ff 	mov    %rax,-0x6f8(%rbp)
    f3e8:	48 8d 85 78 f5 ff ff 	lea    -0xa88(%rbp),%rax
    f3ef:	48 89 85 10 f9 ff ff 	mov    %rax,-0x6f0(%rbp)
    f3f6:	48 8d 85 78 f5 ff ff 	lea    -0xa88(%rbp),%rax
    f3fd:	48 89 85 18 f9 ff ff 	mov    %rax,-0x6e8(%rbp)
    f404:	48 8d 85 78 f5 ff ff 	lea    -0xa88(%rbp),%rax
    f40b:	48 89 85 20 f9 ff ff 	mov    %rax,-0x6e0(%rbp)
    f412:	48 c7 85 28 f9 ff ff 	movq   $0x0,-0x6d8(%rbp)
    f419:	00 00 00 00 
    f41d:	48 8d 85 78 f5 ff ff 	lea    -0xa88(%rbp),%rax
    f424:	48 89 85 30 f9 ff ff 	mov    %rax,-0x6d0(%rbp)
    f42b:	48 8d 85 78 f5 ff ff 	lea    -0xa88(%rbp),%rax
    f432:	48 89 85 38 f9 ff ff 	mov    %rax,-0x6c8(%rbp)
    f439:	48 c7 85 40 f9 ff ff 	movq   $0x0,-0x6c0(%rbp)
    f440:	00 00 00 00 
    f444:	48 8d 85 78 f5 ff ff 	lea    -0xa88(%rbp),%rax
    f44b:	48 89 85 48 f9 ff ff 	mov    %rax,-0x6b8(%rbp)
    f452:	48 8d 85 78 f5 ff ff 	lea    -0xa88(%rbp),%rax
    f459:	48 89 85 50 f9 ff ff 	mov    %rax,-0x6b0(%rbp)
    f460:	48 8d 85 78 f5 ff ff 	lea    -0xa88(%rbp),%rax
    f467:	48 89 85 58 f9 ff ff 	mov    %rax,-0x6a8(%rbp)
    f46e:	48 8d 85 78 f5 ff ff 	lea    -0xa88(%rbp),%rax
    f475:	48 89 85 60 f9 ff ff 	mov    %rax,-0x6a0(%rbp)
    f47c:	48 8d 85 78 f5 ff ff 	lea    -0xa88(%rbp),%rax
    f483:	48 89 85 68 f9 ff ff 	mov    %rax,-0x698(%rbp)
    f48a:	48 c7 85 70 f9 ff ff 	movq   $0x0,-0x690(%rbp)
    f491:	00 00 00 00 
    f495:	48 c7 85 78 f9 ff ff 	movq   $0x0,-0x688(%rbp)
    f49c:	00 00 00 00 
    f4a0:	48 8d 85 78 f5 ff ff 	lea    -0xa88(%rbp),%rax
    f4a7:	48 89 85 80 f9 ff ff 	mov    %rax,-0x680(%rbp)
    f4ae:	48 8d 85 78 f5 ff ff 	lea    -0xa88(%rbp),%rax
    f4b5:	48 89 85 88 f9 ff ff 	mov    %rax,-0x678(%rbp)
    f4bc:	48 8d 85 78 f5 ff ff 	lea    -0xa88(%rbp),%rax
    f4c3:	48 89 85 90 f9 ff ff 	mov    %rax,-0x670(%rbp)
    f4ca:	48 8d 85 78 f5 ff ff 	lea    -0xa88(%rbp),%rax
    f4d1:	48 89 85 98 f9 ff ff 	mov    %rax,-0x668(%rbp)
    f4d8:	48 8d 85 78 f5 ff ff 	lea    -0xa88(%rbp),%rax
    f4df:	48 89 85 a0 f9 ff ff 	mov    %rax,-0x660(%rbp)
    f4e6:	48 c7 85 a8 f9 ff ff 	movq   $0x0,-0x658(%rbp)
    f4ed:	00 00 00 00 
    f4f1:	48 8d 85 78 f5 ff ff 	lea    -0xa88(%rbp),%rax
    f4f8:	48 89 85 b0 f9 ff ff 	mov    %rax,-0x650(%rbp)
    f4ff:	48 c7 85 b8 f9 ff ff 	movq   $0x0,-0x648(%rbp)
    f506:	00 00 00 00 
    f50a:	48 8d 85 78 f5 ff ff 	lea    -0xa88(%rbp),%rax
    f511:	48 89 85 c0 f9 ff ff 	mov    %rax,-0x640(%rbp)
    f518:	48 8d 85 78 f5 ff ff 	lea    -0xa88(%rbp),%rax
    f51f:	48 89 85 c8 f9 ff ff 	mov    %rax,-0x638(%rbp)
    f526:	48 8d 85 78 f5 ff ff 	lea    -0xa88(%rbp),%rax
    f52d:	48 89 85 d0 f9 ff ff 	mov    %rax,-0x630(%rbp)
    f534:	48 8d 85 78 f5 ff ff 	lea    -0xa88(%rbp),%rax
    f53b:	48 89 85 d8 f9 ff ff 	mov    %rax,-0x628(%rbp)
    f542:	48 8d 85 78 f5 ff ff 	lea    -0xa88(%rbp),%rax
    f549:	48 89 85 e0 f9 ff ff 	mov    %rax,-0x620(%rbp)
    f550:	48 8d 85 78 f5 ff ff 	lea    -0xa88(%rbp),%rax
    f557:	48 89 85 e8 f9 ff ff 	mov    %rax,-0x618(%rbp)
    f55e:	48 8d 85 78 f5 ff ff 	lea    -0xa88(%rbp),%rax
    f565:	48 89 85 f0 f9 ff ff 	mov    %rax,-0x610(%rbp)
    f56c:	48 8d 85 78 f5 ff ff 	lea    -0xa88(%rbp),%rax
    f573:	48 89 85 f8 f9 ff ff 	mov    %rax,-0x608(%rbp)
    f57a:	48 c7 85 00 fa ff ff 	movq   $0x0,-0x600(%rbp)
    f581:	00 00 00 00 
    f585:	48 8d 85 78 f5 ff ff 	lea    -0xa88(%rbp),%rax
    f58c:	48 89 85 08 fa ff ff 	mov    %rax,-0x5f8(%rbp)
    f593:	48 8d 85 78 f5 ff ff 	lea    -0xa88(%rbp),%rax
    f59a:	48 89 85 10 fa ff ff 	mov    %rax,-0x5f0(%rbp)
    f5a1:	48 8d 85 78 f5 ff ff 	lea    -0xa88(%rbp),%rax
    f5a8:	48 89 85 18 fa ff ff 	mov    %rax,-0x5e8(%rbp)
    f5af:	48 8d 85 78 f5 ff ff 	lea    -0xa88(%rbp),%rax
    f5b6:	48 89 85 20 fa ff ff 	mov    %rax,-0x5e0(%rbp)
    f5bd:	48 c7 85 28 fa ff ff 	movq   $0x0,-0x5d8(%rbp)
    f5c4:	00 00 00 00 
    f5c8:	48 8d 85 78 f5 ff ff 	lea    -0xa88(%rbp),%rax
    f5cf:	48 89 85 30 fa ff ff 	mov    %rax,-0x5d0(%rbp)
    f5d6:	48 8d 85 78 f5 ff ff 	lea    -0xa88(%rbp),%rax
    f5dd:	48 89 85 38 fa ff ff 	mov    %rax,-0x5c8(%rbp)
    f5e4:	48 8d 85 78 f5 ff ff 	lea    -0xa88(%rbp),%rax
    f5eb:	48 89 85 40 fa ff ff 	mov    %rax,-0x5c0(%rbp)
    f5f2:	48 8d 85 78 f5 ff ff 	lea    -0xa88(%rbp),%rax
    f5f9:	48 89 85 48 fa ff ff 	mov    %rax,-0x5b8(%rbp)
    f600:	48 8d 85 78 f5 ff ff 	lea    -0xa88(%rbp),%rax
    f607:	48 89 85 50 fa ff ff 	mov    %rax,-0x5b0(%rbp)
    f60e:	48 c7 85 58 fa ff ff 	movq   $0x0,-0x5a8(%rbp)
    f615:	00 00 00 00 
    f619:	48 8d 85 78 f5 ff ff 	lea    -0xa88(%rbp),%rax
    f620:	48 89 85 60 fa ff ff 	mov    %rax,-0x5a0(%rbp)
    f627:	48 8d 85 78 f5 ff ff 	lea    -0xa88(%rbp),%rax
    f62e:	48 89 85 68 fa ff ff 	mov    %rax,-0x598(%rbp)
    f635:	48 8d 85 78 f5 ff ff 	lea    -0xa88(%rbp),%rax
    f63c:	48 89 85 70 fa ff ff 	mov    %rax,-0x590(%rbp)
    f643:	48 8d 85 78 f5 ff ff 	lea    -0xa88(%rbp),%rax
    f64a:	48 89 85 78 fa ff ff 	mov    %rax,-0x588(%rbp)
    f651:	48 8d 85 78 f5 ff ff 	lea    -0xa88(%rbp),%rax
    f658:	48 89 85 80 fa ff ff 	mov    %rax,-0x580(%rbp)
    f65f:	48 c7 85 88 fa ff ff 	movq   $0x0,-0x578(%rbp)
    f666:	00 00 00 00 
    f66a:	48 8d 85 78 f5 ff ff 	lea    -0xa88(%rbp),%rax
    f671:	48 89 85 90 fa ff ff 	mov    %rax,-0x570(%rbp)
    f678:	48 c7 85 98 fa ff ff 	movq   $0x0,-0x568(%rbp)
    f67f:	00 00 00 00 
    f683:	48 8d 85 78 f5 ff ff 	lea    -0xa88(%rbp),%rax
    f68a:	48 89 85 a0 fa ff ff 	mov    %rax,-0x560(%rbp)
    f691:	48 8d 85 78 f5 ff ff 	lea    -0xa88(%rbp),%rax
    f698:	48 89 85 a8 fa ff ff 	mov    %rax,-0x558(%rbp)
    f69f:	48 8d 85 78 f5 ff ff 	lea    -0xa88(%rbp),%rax
    f6a6:	48 89 85 b0 fa ff ff 	mov    %rax,-0x550(%rbp)
    f6ad:	48 c7 85 b8 fa ff ff 	movq   $0x0,-0x548(%rbp)
    f6b4:	00 00 00 00 
    f6b8:	48 c7 85 c0 fa ff ff 	movq   $0x0,-0x540(%rbp)
    f6bf:	00 00 00 00 
    f6c3:	48 8d 85 78 f5 ff ff 	lea    -0xa88(%rbp),%rax
    f6ca:	48 89 85 c8 fa ff ff 	mov    %rax,-0x538(%rbp)
    f6d1:	48 8d 85 78 f5 ff ff 	lea    -0xa88(%rbp),%rax
    f6d8:	48 89 85 d0 fa ff ff 	mov    %rax,-0x530(%rbp)
    f6df:	48 8d 85 78 f5 ff ff 	lea    -0xa88(%rbp),%rax
    f6e6:	48 89 85 d8 fa ff ff 	mov    %rax,-0x528(%rbp)
    f6ed:	48 8d 85 78 f5 ff ff 	lea    -0xa88(%rbp),%rax
    f6f4:	48 89 85 e0 fa ff ff 	mov    %rax,-0x520(%rbp)
    f6fb:	48 8d 85 78 f5 ff ff 	lea    -0xa88(%rbp),%rax
    f702:	48 89 85 e8 fa ff ff 	mov    %rax,-0x518(%rbp)
    f709:	48 8d 85 78 f5 ff ff 	lea    -0xa88(%rbp),%rax
    f710:	48 89 85 f0 fa ff ff 	mov    %rax,-0x510(%rbp)
    f717:	48 c7 85 f8 fa ff ff 	movq   $0x0,-0x508(%rbp)
    f71e:	00 00 00 00 
    f722:	48 8d 85 78 f5 ff ff 	lea    -0xa88(%rbp),%rax
    f729:	48 89 85 00 fb ff ff 	mov    %rax,-0x500(%rbp)
    f730:	48 8d 85 78 f5 ff ff 	lea    -0xa88(%rbp),%rax
    f737:	48 89 85 08 fb ff ff 	mov    %rax,-0x4f8(%rbp)
    f73e:	48 8d 85 78 f5 ff ff 	lea    -0xa88(%rbp),%rax
    f745:	48 89 85 10 fb ff ff 	mov    %rax,-0x4f0(%rbp)
    f74c:	48 8d 85 78 f5 ff ff 	lea    -0xa88(%rbp),%rax
    f753:	48 89 85 18 fb ff ff 	mov    %rax,-0x4e8(%rbp)
    f75a:	48 c7 85 20 fb ff ff 	movq   $0x0,-0x4e0(%rbp)
    f761:	00 00 00 00 
    f765:	48 c7 85 28 fb ff ff 	movq   $0x0,-0x4d8(%rbp)
    f76c:	00 00 00 00 
    f770:	48 8d 85 78 f5 ff ff 	lea    -0xa88(%rbp),%rax
    f777:	48 89 85 30 fb ff ff 	mov    %rax,-0x4d0(%rbp)
    f77e:	48 8d 85 78 f5 ff ff 	lea    -0xa88(%rbp),%rax
    f785:	48 89 85 38 fb ff ff 	mov    %rax,-0x4c8(%rbp)
    f78c:	48 8d 85 78 f5 ff ff 	lea    -0xa88(%rbp),%rax
    f793:	48 89 85 40 fb ff ff 	mov    %rax,-0x4c0(%rbp)
    f79a:	48 c7 85 48 fb ff ff 	movq   $0x0,-0x4b8(%rbp)
    f7a1:	00 00 00 00 
    f7a5:	48 c7 85 50 fb ff ff 	movq   $0x0,-0x4b0(%rbp)
    f7ac:	00 00 00 00 
    f7b0:	48 8d 85 78 f5 ff ff 	lea    -0xa88(%rbp),%rax
    f7b7:	48 89 85 58 fb ff ff 	mov    %rax,-0x4a8(%rbp)
    f7be:	48 8d 85 78 f5 ff ff 	lea    -0xa88(%rbp),%rax
    f7c5:	48 89 85 60 fb ff ff 	mov    %rax,-0x4a0(%rbp)
    f7cc:	48 8d 85 78 f5 ff ff 	lea    -0xa88(%rbp),%rax
    f7d3:	48 89 85 68 fb ff ff 	mov    %rax,-0x498(%rbp)
    f7da:	48 8d 85 78 f5 ff ff 	lea    -0xa88(%rbp),%rax
    f7e1:	48 89 85 70 fb ff ff 	mov    %rax,-0x490(%rbp)
    f7e8:	48 8d 85 78 f5 ff ff 	lea    -0xa88(%rbp),%rax
    f7ef:	48 89 85 78 fb ff ff 	mov    %rax,-0x488(%rbp)
    f7f6:	48 8d 85 78 f5 ff ff 	lea    -0xa88(%rbp),%rax
    f7fd:	48 89 85 80 fb ff ff 	mov    %rax,-0x480(%rbp)
    f804:	48 c7 85 88 fb ff ff 	movq   $0x0,-0x478(%rbp)
    f80b:	00 00 00 00 
    f80f:	48 c7 85 90 fb ff ff 	movq   $0x0,-0x470(%rbp)
    f816:	00 00 00 00 
    f81a:	48 8d 85 78 f5 ff ff 	lea    -0xa88(%rbp),%rax
    f821:	48 89 85 98 fb ff ff 	mov    %rax,-0x468(%rbp)
    f828:	48 8d 85 78 f5 ff ff 	lea    -0xa88(%rbp),%rax
    f82f:	48 89 85 a0 fb ff ff 	mov    %rax,-0x460(%rbp)
    f836:	48 c7 85 a8 fb ff ff 	movq   $0x0,-0x458(%rbp)
    f83d:	00 00 00 00 
    f841:	48 8d 85 78 f5 ff ff 	lea    -0xa88(%rbp),%rax
    f848:	48 89 85 b0 fb ff ff 	mov    %rax,-0x450(%rbp)
    f84f:	48 8d 85 78 f5 ff ff 	lea    -0xa88(%rbp),%rax
    f856:	48 89 85 b8 fb ff ff 	mov    %rax,-0x448(%rbp)
    f85d:	48 8d 85 78 f5 ff ff 	lea    -0xa88(%rbp),%rax
    f864:	48 89 85 c0 fb ff ff 	mov    %rax,-0x440(%rbp)
    f86b:	48 8d 85 78 f5 ff ff 	lea    -0xa88(%rbp),%rax
    f872:	48 89 85 c8 fb ff ff 	mov    %rax,-0x438(%rbp)
    f879:	48 8d 85 78 f5 ff ff 	lea    -0xa88(%rbp),%rax
    f880:	48 89 85 d0 fb ff ff 	mov    %rax,-0x430(%rbp)
    f887:	48 8d 85 78 f5 ff ff 	lea    -0xa88(%rbp),%rax
    f88e:	48 89 85 d8 fb ff ff 	mov    %rax,-0x428(%rbp)
    f895:	48 8d 85 78 f5 ff ff 	lea    -0xa88(%rbp),%rax
    f89c:	48 89 85 e0 fb ff ff 	mov    %rax,-0x420(%rbp)
    f8a3:	48 8d 85 78 f5 ff ff 	lea    -0xa88(%rbp),%rax
    f8aa:	48 89 85 e8 fb ff ff 	mov    %rax,-0x418(%rbp)
    f8b1:	48 c7 85 f0 fb ff ff 	movq   $0x0,-0x410(%rbp)
    f8b8:	00 00 00 00 
    f8bc:	48 8d 85 78 f5 ff ff 	lea    -0xa88(%rbp),%rax
    f8c3:	48 89 85 f8 fb ff ff 	mov    %rax,-0x408(%rbp)
    f8ca:	48 8d 85 78 f5 ff ff 	lea    -0xa88(%rbp),%rax
    f8d1:	48 89 85 00 fc ff ff 	mov    %rax,-0x400(%rbp)
    f8d8:	48 8d 85 78 f5 ff ff 	lea    -0xa88(%rbp),%rax
    f8df:	48 89 85 08 fc ff ff 	mov    %rax,-0x3f8(%rbp)
    f8e6:	48 8d 85 78 f5 ff ff 	lea    -0xa88(%rbp),%rax
    f8ed:	48 89 85 10 fc ff ff 	mov    %rax,-0x3f0(%rbp)
    f8f4:	48 8d 85 78 f5 ff ff 	lea    -0xa88(%rbp),%rax
    f8fb:	48 89 85 18 fc ff ff 	mov    %rax,-0x3e8(%rbp)
    f902:	48 8d 85 78 f5 ff ff 	lea    -0xa88(%rbp),%rax
    f909:	48 89 85 20 fc ff ff 	mov    %rax,-0x3e0(%rbp)
    f910:	48 8d 85 78 f5 ff ff 	lea    -0xa88(%rbp),%rax
    f917:	48 89 85 28 fc ff ff 	mov    %rax,-0x3d8(%rbp)
    f91e:	48 c7 85 30 fc ff ff 	movq   $0x0,-0x3d0(%rbp)
    f925:	00 00 00 00 
    f929:	48 8d 85 78 f5 ff ff 	lea    -0xa88(%rbp),%rax
    f930:	48 89 85 38 fc ff ff 	mov    %rax,-0x3c8(%rbp)
    f937:	48 c7 85 40 fc ff ff 	movq   $0x0,-0x3c0(%rbp)
    f93e:	00 00 00 00 
    f942:	48 8d 85 78 f5 ff ff 	lea    -0xa88(%rbp),%rax
    f949:	48 89 85 48 fc ff ff 	mov    %rax,-0x3b8(%rbp)
    f950:	48 8d 85 78 f5 ff ff 	lea    -0xa88(%rbp),%rax
    f957:	48 89 85 50 fc ff ff 	mov    %rax,-0x3b0(%rbp)
    f95e:	48 8d 85 78 f5 ff ff 	lea    -0xa88(%rbp),%rax
    f965:	48 89 85 58 fc ff ff 	mov    %rax,-0x3a8(%rbp)
    f96c:	48 8d 85 78 f5 ff ff 	lea    -0xa88(%rbp),%rax
    f973:	48 89 85 60 fc ff ff 	mov    %rax,-0x3a0(%rbp)
    f97a:	48 8d 85 78 f5 ff ff 	lea    -0xa88(%rbp),%rax
    f981:	48 89 85 68 fc ff ff 	mov    %rax,-0x398(%rbp)
    f988:	48 8d 85 78 f5 ff ff 	lea    -0xa88(%rbp),%rax
    f98f:	48 89 85 70 fc ff ff 	mov    %rax,-0x390(%rbp)
    f996:	48 8d 85 78 f5 ff ff 	lea    -0xa88(%rbp),%rax
    f99d:	48 89 85 78 fc ff ff 	mov    %rax,-0x388(%rbp)
    f9a4:	48 8d 85 78 f5 ff ff 	lea    -0xa88(%rbp),%rax
    f9ab:	48 89 85 80 fc ff ff 	mov    %rax,-0x380(%rbp)
    f9b2:	48 8d 85 78 f5 ff ff 	lea    -0xa88(%rbp),%rax
    f9b9:	48 89 85 88 fc ff ff 	mov    %rax,-0x378(%rbp)
    f9c0:	48 8d 85 78 f5 ff ff 	lea    -0xa88(%rbp),%rax
    f9c7:	48 89 85 90 fc ff ff 	mov    %rax,-0x370(%rbp)
    f9ce:	48 8d 85 78 f5 ff ff 	lea    -0xa88(%rbp),%rax
    f9d5:	48 89 85 98 fc ff ff 	mov    %rax,-0x368(%rbp)
    f9dc:	48 8d 85 78 f5 ff ff 	lea    -0xa88(%rbp),%rax
    f9e3:	48 89 85 a0 fc ff ff 	mov    %rax,-0x360(%rbp)
    f9ea:	48 c7 85 a8 fc ff ff 	movq   $0x0,-0x358(%rbp)
    f9f1:	00 00 00 00 
    f9f5:	48 8d 85 78 f5 ff ff 	lea    -0xa88(%rbp),%rax
    f9fc:	48 89 85 b0 fc ff ff 	mov    %rax,-0x350(%rbp)
    fa03:	48 8d 85 78 f5 ff ff 	lea    -0xa88(%rbp),%rax
    fa0a:	48 89 85 b8 fc ff ff 	mov    %rax,-0x348(%rbp)
    fa11:	48 8d 85 78 f5 ff ff 	lea    -0xa88(%rbp),%rax
    fa18:	48 89 85 c0 fc ff ff 	mov    %rax,-0x340(%rbp)
    fa1f:	48 c7 85 c8 fc ff ff 	movq   $0x0,-0x338(%rbp)
    fa26:	00 00 00 00 
    fa2a:	48 8d 85 78 f5 ff ff 	lea    -0xa88(%rbp),%rax
    fa31:	48 89 85 d0 fc ff ff 	mov    %rax,-0x330(%rbp)
    fa38:	48 8d 85 78 f5 ff ff 	lea    -0xa88(%rbp),%rax
    fa3f:	48 89 85 d8 fc ff ff 	mov    %rax,-0x328(%rbp)
    fa46:	48 c7 85 e0 fc ff ff 	movq   $0x0,-0x320(%rbp)
    fa4d:	00 00 00 00 
    fa51:	48 8d 85 78 f5 ff ff 	lea    -0xa88(%rbp),%rax
    fa58:	48 89 85 e8 fc ff ff 	mov    %rax,-0x318(%rbp)
    fa5f:	48 8d 85 78 f5 ff ff 	lea    -0xa88(%rbp),%rax
    fa66:	48 89 85 f0 fc ff ff 	mov    %rax,-0x310(%rbp)
    fa6d:	48 8d 85 78 f5 ff ff 	lea    -0xa88(%rbp),%rax
    fa74:	48 89 85 f8 fc ff ff 	mov    %rax,-0x308(%rbp)
    fa7b:	48 8d 85 78 f5 ff ff 	lea    -0xa88(%rbp),%rax
    fa82:	48 89 85 00 fd ff ff 	mov    %rax,-0x300(%rbp)
    fa89:	48 8d 85 78 f5 ff ff 	lea    -0xa88(%rbp),%rax
    fa90:	48 89 85 08 fd ff ff 	mov    %rax,-0x2f8(%rbp)
    fa97:	48 8d 85 78 f5 ff ff 	lea    -0xa88(%rbp),%rax
    fa9e:	48 89 85 10 fd ff ff 	mov    %rax,-0x2f0(%rbp)
    faa5:	48 8d 85 78 f5 ff ff 	lea    -0xa88(%rbp),%rax
    faac:	48 89 85 18 fd ff ff 	mov    %rax,-0x2e8(%rbp)
    fab3:	48 8d 85 78 f5 ff ff 	lea    -0xa88(%rbp),%rax
    faba:	48 89 85 20 fd ff ff 	mov    %rax,-0x2e0(%rbp)
    fac1:	48 8d 85 78 f5 ff ff 	lea    -0xa88(%rbp),%rax
    fac8:	48 89 85 28 fd ff ff 	mov    %rax,-0x2d8(%rbp)
    facf:	48 8d 85 78 f5 ff ff 	lea    -0xa88(%rbp),%rax
    fad6:	48 89 85 30 fd ff ff 	mov    %rax,-0x2d0(%rbp)
    fadd:	48 8d 85 78 f5 ff ff 	lea    -0xa88(%rbp),%rax
    fae4:	48 89 85 38 fd ff ff 	mov    %rax,-0x2c8(%rbp)
    faeb:	48 c7 85 40 fd ff ff 	movq   $0x0,-0x2c0(%rbp)
    faf2:	00 00 00 00 
    faf6:	48 c7 85 48 fd ff ff 	movq   $0x0,-0x2b8(%rbp)
    fafd:	00 00 00 00 
    fb01:	48 8d 85 78 f5 ff ff 	lea    -0xa88(%rbp),%rax
    fb08:	48 89 85 50 fd ff ff 	mov    %rax,-0x2b0(%rbp)
    fb0f:	48 8d 85 78 f5 ff ff 	lea    -0xa88(%rbp),%rax
    fb16:	48 89 85 58 fd ff ff 	mov    %rax,-0x2a8(%rbp)
    fb1d:	48 8d 85 78 f5 ff ff 	lea    -0xa88(%rbp),%rax
    fb24:	48 89 85 60 fd ff ff 	mov    %rax,-0x2a0(%rbp)
    fb2b:	48 8d 85 78 f5 ff ff 	lea    -0xa88(%rbp),%rax
    fb32:	48 89 85 68 fd ff ff 	mov    %rax,-0x298(%rbp)
    fb39:	48 8d 85 78 f5 ff ff 	lea    -0xa88(%rbp),%rax
    fb40:	48 89 85 70 fd ff ff 	mov    %rax,-0x290(%rbp)
    fb47:	48 8d 85 78 f5 ff ff 	lea    -0xa88(%rbp),%rax
    fb4e:	48 89 85 78 fd ff ff 	mov    %rax,-0x288(%rbp)
    fb55:	48 8d 85 78 f5 ff ff 	lea    -0xa88(%rbp),%rax
    fb5c:	48 89 85 80 fd ff ff 	mov    %rax,-0x280(%rbp)
    fb63:	48 8d 85 78 f5 ff ff 	lea    -0xa88(%rbp),%rax
    fb6a:	48 89 85 88 fd ff ff 	mov    %rax,-0x278(%rbp)
    fb71:	48 8d 85 78 f5 ff ff 	lea    -0xa88(%rbp),%rax
    fb78:	48 89 85 90 fd ff ff 	mov    %rax,-0x270(%rbp)
    fb7f:	48 8d 85 78 f5 ff ff 	lea    -0xa88(%rbp),%rax
    fb86:	48 89 85 98 fd ff ff 	mov    %rax,-0x268(%rbp)
    fb8d:	48 8d 85 78 f5 ff ff 	lea    -0xa88(%rbp),%rax
    fb94:	48 89 85 a0 fd ff ff 	mov    %rax,-0x260(%rbp)
    fb9b:	48 8d 85 78 f5 ff ff 	lea    -0xa88(%rbp),%rax
    fba2:	48 89 85 a8 fd ff ff 	mov    %rax,-0x258(%rbp)
    fba9:	48 8d 85 78 f5 ff ff 	lea    -0xa88(%rbp),%rax
    fbb0:	48 89 85 b0 fd ff ff 	mov    %rax,-0x250(%rbp)
    fbb7:	48 8d 85 78 f5 ff ff 	lea    -0xa88(%rbp),%rax
    fbbe:	48 89 85 b8 fd ff ff 	mov    %rax,-0x248(%rbp)
    fbc5:	48 c7 85 c0 fd ff ff 	movq   $0x0,-0x240(%rbp)
    fbcc:	00 00 00 00 
    fbd0:	48 8d 85 78 f5 ff ff 	lea    -0xa88(%rbp),%rax
    fbd7:	48 89 85 c8 fd ff ff 	mov    %rax,-0x238(%rbp)
    fbde:	48 8d 85 78 f5 ff ff 	lea    -0xa88(%rbp),%rax
    fbe5:	48 89 85 d0 fd ff ff 	mov    %rax,-0x230(%rbp)
    fbec:	48 c7 85 d8 fd ff ff 	movq   $0x0,-0x228(%rbp)
    fbf3:	00 00 00 00 
    fbf7:	48 8d 85 78 f5 ff ff 	lea    -0xa88(%rbp),%rax
    fbfe:	48 89 85 e0 fd ff ff 	mov    %rax,-0x220(%rbp)
    fc05:	48 c7 85 e8 fd ff ff 	movq   $0x0,-0x218(%rbp)
    fc0c:	00 00 00 00 
    fc10:	48 8d 85 78 f5 ff ff 	lea    -0xa88(%rbp),%rax
    fc17:	48 89 85 f0 fd ff ff 	mov    %rax,-0x210(%rbp)
    fc1e:	48 8d 85 78 f5 ff ff 	lea    -0xa88(%rbp),%rax
    fc25:	48 89 85 f8 fd ff ff 	mov    %rax,-0x208(%rbp)
    fc2c:	48 8d 85 78 f5 ff ff 	lea    -0xa88(%rbp),%rax
    fc33:	48 89 85 00 fe ff ff 	mov    %rax,-0x200(%rbp)
    fc3a:	48 8d 85 78 f5 ff ff 	lea    -0xa88(%rbp),%rax
    fc41:	48 89 85 08 fe ff ff 	mov    %rax,-0x1f8(%rbp)
    fc48:	48 8d 85 78 f5 ff ff 	lea    -0xa88(%rbp),%rax
    fc4f:	48 89 85 10 fe ff ff 	mov    %rax,-0x1f0(%rbp)
    fc56:	48 8d 85 78 f5 ff ff 	lea    -0xa88(%rbp),%rax
    fc5d:	48 89 85 18 fe ff ff 	mov    %rax,-0x1e8(%rbp)
    fc64:	48 8d 85 78 f5 ff ff 	lea    -0xa88(%rbp),%rax
    fc6b:	48 89 85 20 fe ff ff 	mov    %rax,-0x1e0(%rbp)
    fc72:	48 c7 85 28 fe ff ff 	movq   $0x0,-0x1d8(%rbp)
    fc79:	00 00 00 00 
    fc7d:	48 8d 85 78 f5 ff ff 	lea    -0xa88(%rbp),%rax
    fc84:	48 89 85 30 fe ff ff 	mov    %rax,-0x1d0(%rbp)
    fc8b:	48 8d 85 78 f5 ff ff 	lea    -0xa88(%rbp),%rax
    fc92:	48 89 85 38 fe ff ff 	mov    %rax,-0x1c8(%rbp)
    fc99:	48 8d 85 78 f5 ff ff 	lea    -0xa88(%rbp),%rax
    fca0:	48 89 85 40 fe ff ff 	mov    %rax,-0x1c0(%rbp)
    fca7:	48 8d 85 78 f5 ff ff 	lea    -0xa88(%rbp),%rax
    fcae:	48 89 85 48 fe ff ff 	mov    %rax,-0x1b8(%rbp)
    fcb5:	48 8d 85 78 f5 ff ff 	lea    -0xa88(%rbp),%rax
    fcbc:	48 89 85 50 fe ff ff 	mov    %rax,-0x1b0(%rbp)
    fcc3:	48 c7 85 58 fe ff ff 	movq   $0x0,-0x1a8(%rbp)
    fcca:	00 00 00 00 
    fcce:	48 8d 85 78 f5 ff ff 	lea    -0xa88(%rbp),%rax
    fcd5:	48 89 85 60 fe ff ff 	mov    %rax,-0x1a0(%rbp)
    fcdc:	48 8d 85 78 f5 ff ff 	lea    -0xa88(%rbp),%rax
    fce3:	48 89 85 68 fe ff ff 	mov    %rax,-0x198(%rbp)
    fcea:	48 c7 85 70 fe ff ff 	movq   $0x0,-0x190(%rbp)
    fcf1:	00 00 00 00 
    fcf5:	48 8d 85 78 f5 ff ff 	lea    -0xa88(%rbp),%rax
    fcfc:	48 89 85 78 fe ff ff 	mov    %rax,-0x188(%rbp)
    fd03:	48 8d 85 78 f5 ff ff 	lea    -0xa88(%rbp),%rax
    fd0a:	48 89 85 80 fe ff ff 	mov    %rax,-0x180(%rbp)
    fd11:	48 8d 85 78 f5 ff ff 	lea    -0xa88(%rbp),%rax
    fd18:	48 89 85 88 fe ff ff 	mov    %rax,-0x178(%rbp)
    fd1f:	48 c7 85 90 fe ff ff 	movq   $0x0,-0x170(%rbp)
    fd26:	00 00 00 00 
    fd2a:	48 8d 85 78 f5 ff ff 	lea    -0xa88(%rbp),%rax
    fd31:	48 89 85 98 fe ff ff 	mov    %rax,-0x168(%rbp)
    fd38:	48 8d 85 78 f5 ff ff 	lea    -0xa88(%rbp),%rax
    fd3f:	48 89 85 a0 fe ff ff 	mov    %rax,-0x160(%rbp)
    fd46:	48 8d 85 78 f5 ff ff 	lea    -0xa88(%rbp),%rax
    fd4d:	48 89 85 a8 fe ff ff 	mov    %rax,-0x158(%rbp)
    fd54:	48 8d 85 78 f5 ff ff 	lea    -0xa88(%rbp),%rax
    fd5b:	48 89 85 b0 fe ff ff 	mov    %rax,-0x150(%rbp)
    fd62:	48 8d 85 78 f5 ff ff 	lea    -0xa88(%rbp),%rax
    fd69:	48 89 85 b8 fe ff ff 	mov    %rax,-0x148(%rbp)
    fd70:	48 8d 85 78 f5 ff ff 	lea    -0xa88(%rbp),%rax
    fd77:	48 89 85 c0 fe ff ff 	mov    %rax,-0x140(%rbp)
    fd7e:	48 8d 85 78 f5 ff ff 	lea    -0xa88(%rbp),%rax
    fd85:	48 89 85 c8 fe ff ff 	mov    %rax,-0x138(%rbp)
    fd8c:	48 8d 85 78 f5 ff ff 	lea    -0xa88(%rbp),%rax
    fd93:	48 89 85 d0 fe ff ff 	mov    %rax,-0x130(%rbp)
    fd9a:	48 8d 85 78 f5 ff ff 	lea    -0xa88(%rbp),%rax
    fda1:	48 89 85 d8 fe ff ff 	mov    %rax,-0x128(%rbp)
    fda8:	48 8d 85 78 f5 ff ff 	lea    -0xa88(%rbp),%rax
    fdaf:	48 89 85 e0 fe ff ff 	mov    %rax,-0x120(%rbp)
    fdb6:	48 8d 85 78 f5 ff ff 	lea    -0xa88(%rbp),%rax
    fdbd:	48 89 85 e8 fe ff ff 	mov    %rax,-0x118(%rbp)
    fdc4:	48 8d 85 78 f5 ff ff 	lea    -0xa88(%rbp),%rax
    fdcb:	48 89 85 f0 fe ff ff 	mov    %rax,-0x110(%rbp)
    fdd2:	48 8d 85 78 f5 ff ff 	lea    -0xa88(%rbp),%rax
    fdd9:	48 89 85 f8 fe ff ff 	mov    %rax,-0x108(%rbp)
    fde0:	48 8d 85 78 f5 ff ff 	lea    -0xa88(%rbp),%rax
    fde7:	48 89 85 00 ff ff ff 	mov    %rax,-0x100(%rbp)
    fdee:	48 8d 85 78 f5 ff ff 	lea    -0xa88(%rbp),%rax
    fdf5:	48 89 85 08 ff ff ff 	mov    %rax,-0xf8(%rbp)
    fdfc:	48 8d 85 78 f5 ff ff 	lea    -0xa88(%rbp),%rax
    fe03:	48 89 85 10 ff ff ff 	mov    %rax,-0xf0(%rbp)
    fe0a:	48 8d 85 78 f5 ff ff 	lea    -0xa88(%rbp),%rax
    fe11:	48 89 85 18 ff ff ff 	mov    %rax,-0xe8(%rbp)
    fe18:	48 8d 85 78 f5 ff ff 	lea    -0xa88(%rbp),%rax
    fe1f:	48 89 85 20 ff ff ff 	mov    %rax,-0xe0(%rbp)
    fe26:	48 8d 85 78 f5 ff ff 	lea    -0xa88(%rbp),%rax
    fe2d:	48 89 85 28 ff ff ff 	mov    %rax,-0xd8(%rbp)
    fe34:	48 8d 85 78 f5 ff ff 	lea    -0xa88(%rbp),%rax
    fe3b:	48 89 85 30 ff ff ff 	mov    %rax,-0xd0(%rbp)
    fe42:	48 c7 85 38 ff ff ff 	movq   $0x0,-0xc8(%rbp)
    fe49:	00 00 00 00 
    fe4d:	48 8d 85 78 f5 ff ff 	lea    -0xa88(%rbp),%rax
    fe54:	48 89 85 40 ff ff ff 	mov    %rax,-0xc0(%rbp)
    fe5b:	48 8d 85 78 f5 ff ff 	lea    -0xa88(%rbp),%rax
    fe62:	48 89 85 48 ff ff ff 	mov    %rax,-0xb8(%rbp)
    fe69:	48 8d 85 78 f5 ff ff 	lea    -0xa88(%rbp),%rax
    fe70:	48 89 85 50 ff ff ff 	mov    %rax,-0xb0(%rbp)
    fe77:	48 8d 85 78 f5 ff ff 	lea    -0xa88(%rbp),%rax
    fe7e:	48 89 85 58 ff ff ff 	mov    %rax,-0xa8(%rbp)
    fe85:	48 c7 85 60 ff ff ff 	movq   $0x0,-0xa0(%rbp)
    fe8c:	00 00 00 00 
    fe90:	48 8d 85 78 f5 ff ff 	lea    -0xa88(%rbp),%rax
    fe97:	48 89 85 68 ff ff ff 	mov    %rax,-0x98(%rbp)
    fe9e:	48 c7 85 70 ff ff ff 	movq   $0x0,-0x90(%rbp)
    fea5:	00 00 00 00 
    fea9:	48 8d 85 78 f5 ff ff 	lea    -0xa88(%rbp),%rax
    feb0:	48 89 85 78 ff ff ff 	mov    %rax,-0x88(%rbp)
    feb7:	48 8d 85 78 f5 ff ff 	lea    -0xa88(%rbp),%rax
    febe:	48 89 45 80          	mov    %rax,-0x80(%rbp)
    fec2:	48 8d 85 78 f5 ff ff 	lea    -0xa88(%rbp),%rax
    fec9:	48 89 45 88          	mov    %rax,-0x78(%rbp)
    fecd:	48 8d 85 78 f5 ff ff 	lea    -0xa88(%rbp),%rax
    fed4:	48 89 45 90          	mov    %rax,-0x70(%rbp)
    fed8:	48 8d 85 78 f5 ff ff 	lea    -0xa88(%rbp),%rax
    fedf:	48 89 45 98          	mov    %rax,-0x68(%rbp)
    fee3:	48 8d 85 78 f5 ff ff 	lea    -0xa88(%rbp),%rax
    feea:	48 89 45 a0          	mov    %rax,-0x60(%rbp)
    feee:	48 8d 85 78 f5 ff ff 	lea    -0xa88(%rbp),%rax
    fef5:	48 89 45 a8          	mov    %rax,-0x58(%rbp)
    fef9:	48 c7 45 b0 00 00 00 	movq   $0x0,-0x50(%rbp)
    ff00:	00 
    ff01:	48 8d 85 78 f5 ff ff 	lea    -0xa88(%rbp),%rax
    ff08:	48 89 45 b8          	mov    %rax,-0x48(%rbp)
    ff0c:	48 8d 85 78 f5 ff ff 	lea    -0xa88(%rbp),%rax
    ff13:	48 89 45 c0          	mov    %rax,-0x40(%rbp)
    ff17:	48 c7 45 c8 00 00 00 	movq   $0x0,-0x38(%rbp)
    ff1e:	00 
    ff1f:	48 8b 15 62 92 00 00 	mov    0x9262(%rip),%rdx        # 19188 <g_1223>
    ff26:	48 8b 85 68 f6 ff ff 	mov    -0x998(%rbp),%rax
    ff2d:	48 89 10             	mov    %rdx,(%rax)
    ff30:	48 8b 85 68 f6 ff ff 	mov    -0x998(%rbp),%rax
    ff37:	48 8b 00             	mov    (%rax),%rax
    ff3a:	48 89 85 78 f5 ff ff 	mov    %rax,-0xa88(%rbp)
    ff41:	48 8b 95 78 f5 ff ff 	mov    -0xa88(%rbp),%rdx
    ff48:	48 8b 05 41 92 00 00 	mov    0x9241(%rip),%rax        # 19190 <g_1226>
    ff4f:	48 39 c2             	cmp    %rax,%rdx
    ff52:	0f 95 c0             	setne  %al
    ff55:	0f b6 d0             	movzbl %al,%edx
    ff58:	48 8b 85 c8 f5 ff ff 	mov    -0xa38(%rbp),%rax
    ff5f:	89 10                	mov    %edx,(%rax)
    ff61:	0f b7 05 30 71 00 00 	movzwl 0x7130(%rip),%eax        # 17098 <g_360>
    ff68:	83 c0 01             	add    $0x1,%eax
    ff6b:	66 89 05 26 71 00 00 	mov    %ax,0x7126(%rip)        # 17098 <g_360>
    ff72:	0f b7 05 1f 71 00 00 	movzwl 0x711f(%rip),%eax        # 17098 <g_360>
    ff79:	66 83 f8 16          	cmp    $0x16,%ax
    ff7d:	0f 85 19 f3 ff ff    	jne    f29c <func_35+0x1173>
    ff83:	48 8b 85 c8 f5 ff ff 	mov    -0xa38(%rbp),%rax
    ff8a:	8b 00                	mov    (%rax),%eax
    ff8c:	31 85 40 f5 ff ff    	xor    %eax,-0xac0(%rbp)
    ff92:	48 8b 85 c8 f5 ff ff 	mov    -0xa38(%rbp),%rax
    ff99:	8b 95 40 f5 ff ff    	mov    -0xac0(%rbp),%edx
    ff9f:	89 10                	mov    %edx,(%rax)
    ffa1:	48 8b 85 f8 f6 ff ff 	mov    -0x908(%rbp),%rax
    ffa8:	48 8b 4d d8          	mov    -0x28(%rbp),%rcx
    ffac:	64 48 33 0c 25 28 00 	xor    %fs:0x28,%rcx
    ffb3:	00 00 
    ffb5:	74 05                	je     ffbc <func_35+0x1e93>
    ffb7:	e8 b4 50 ff ff       	callq  5070 <__stack_chk_fail@plt>
    ffbc:	48 81 c4 d8 0a 00 00 	add    $0xad8,%rsp
    ffc3:	5b                   	pop    %rbx
    ffc4:	41 5c                	pop    %r12
    ffc6:	41 5d                	pop    %r13
    ffc8:	5d                   	pop    %rbp
    ffc9:	c3                   	retq   

000000000000ffca <func_40>:
    ffca:	f3 0f 1e fa          	endbr64 
    ffce:	55                   	push   %rbp
    ffcf:	48 89 e5             	mov    %rsp,%rbp
    ffd2:	41 56                	push   %r14
    ffd4:	41 55                	push   %r13
    ffd6:	41 54                	push   %r12
    ffd8:	53                   	push   %rbx
    ffd9:	48 81 ec f0 08 00 00 	sub    $0x8f0,%rsp
    ffe0:	48 89 bd 08 f7 ff ff 	mov    %rdi,-0x8f8(%rbp)
    ffe7:	89 f0                	mov    %esi,%eax
    ffe9:	48 89 95 f8 f6 ff ff 	mov    %rdx,-0x908(%rbp)
    fff0:	88 85 04 f7 ff ff    	mov    %al,-0x8fc(%rbp)
    fff6:	64 48 8b 04 25 28 00 	mov    %fs:0x28,%rax
    fffd:	00 00 
    ffff:	48 89 45 d8          	mov    %rax,-0x28(%rbp)
   10003:	31 c0                	xor    %eax,%eax
   10005:	c7 85 38 f7 ff ff 13 	movl   $0x3c2ad413,-0x8c8(%rbp)
   1000c:	d4 2a 3c 
   1000f:	48 8d 05 32 91 00 00 	lea    0x9132(%rip),%rax        # 19148 <g_107>
   10016:	48 89 85 f0 f7 ff ff 	mov    %rax,-0x810(%rbp)
   1001d:	48 8d 05 18 70 00 00 	lea    0x7018(%rip),%rax        # 1703c <g_95>
   10024:	48 89 85 f8 f7 ff ff 	mov    %rax,-0x808(%rbp)
   1002b:	48 c7 85 98 f7 ff ff 	movq   $0x0,-0x868(%rbp)
   10032:	00 00 00 00 
   10036:	48 8d 85 98 f7 ff ff 	lea    -0x868(%rbp),%rax
   1003d:	48 89 85 00 f8 ff ff 	mov    %rax,-0x800(%rbp)
   10044:	48 8d 05 f4 6f 00 00 	lea    0x6ff4(%rip),%rax        # 1703f <g_124+0x1>
   1004b:	48 89 85 08 f8 ff ff 	mov    %rax,-0x7f8(%rbp)
   10052:	48 8d 05 df 6f 00 00 	lea    0x6fdf(%rip),%rax        # 17038 <g_70>
   10059:	48 89 85 a0 f7 ff ff 	mov    %rax,-0x860(%rbp)
   10060:	48 8d 05 39 7b 00 00 	lea    0x7b39(%rip),%rax        # 17ba0 <g_130>
   10067:	48 89 85 10 f8 ff ff 	mov    %rax,-0x7f0(%rbp)
   1006e:	c7 85 20 f7 ff ff 04 	movl   $0x4,-0x8e0(%rbp)
   10075:	00 00 00 
   10078:	48 8d 05 dd 6f 00 00 	lea    0x6fdd(%rip),%rax        # 1705c <g_207>
   1007f:	48 89 85 a8 f7 ff ff 	mov    %rax,-0x858(%rbp)
   10086:	48 8d 05 9d 6f 00 00 	lea    0x6f9d(%rip),%rax        # 1702a <g_61>
   1008d:	48 89 85 b0 f7 ff ff 	mov    %rax,-0x850(%rbp)
   10094:	48 8d 85 b0 f7 ff ff 	lea    -0x850(%rbp),%rax
   1009b:	48 89 85 18 f8 ff ff 	mov    %rax,-0x7e8(%rbp)
   100a2:	48 8d 85 20 f7 ff ff 	lea    -0x8e0(%rbp),%rax
   100a9:	48 89 85 b8 f7 ff ff 	mov    %rax,-0x848(%rbp)
   100b0:	48 8d 85 b8 f7 ff ff 	lea    -0x848(%rbp),%rax
   100b7:	48 89 85 20 f8 ff ff 	mov    %rax,-0x7e0(%rbp)
   100be:	66 c7 85 1a f7 ff ff 	movw   $0x4,-0x8e6(%rbp)
   100c5:	04 00 
   100c7:	c7 85 10 f9 ff ff ff 	movl   $0xffffffff,-0x6f0(%rbp)
   100ce:	ff ff ff 
   100d1:	c7 85 14 f9 ff ff 21 	movl   $0xb876d621,-0x6ec(%rbp)
   100d8:	d6 76 b8 
   100db:	c7 85 18 f9 ff ff 21 	movl   $0xb876d621,-0x6e8(%rbp)
   100e2:	d6 76 b8 
   100e5:	c7 85 1c f9 ff ff ff 	movl   $0xffffffff,-0x6e4(%rbp)
   100ec:	ff ff ff 
   100ef:	c7 85 20 f9 ff ff 21 	movl   $0xb876d621,-0x6e0(%rbp)
   100f6:	d6 76 b8 
   100f9:	c7 85 24 f9 ff ff 21 	movl   $0xb876d621,-0x6dc(%rbp)
   10100:	d6 76 b8 
   10103:	c7 85 28 f9 ff ff ff 	movl   $0xffffffff,-0x6d8(%rbp)
   1010a:	ff ff ff 
   1010d:	c7 85 2c f9 ff ff 21 	movl   $0xb876d621,-0x6d4(%rbp)
   10114:	d6 76 b8 
   10117:	c7 85 30 f9 ff ff 21 	movl   $0xb876d621,-0x6d0(%rbp)
   1011e:	d6 76 b8 
   10121:	c7 85 24 f7 ff ff 0c 	movl   $0xf6d6110c,-0x8dc(%rbp)
   10128:	11 d6 f6 
   1012b:	c7 85 3c f7 ff ff 05 	movl   $0x5,-0x8c4(%rbp)
   10132:	00 00 00 
   10135:	66 c7 85 1c f7 ff ff 	movw   $0xe422,-0x8e4(%rbp)
   1013c:	22 e4 
   1013e:	c7 85 40 f7 ff ff 61 	movl   $0x6d0e1961,-0x8c0(%rbp)
   10145:	19 0e 6d 
   10148:	c7 85 28 f7 ff ff 01 	movl   $0x1,-0x8d8(%rbp)
   1014f:	00 00 00 
   10152:	c7 85 44 f7 ff ff 07 	movl   $0x7,-0x8bc(%rbp)
   10159:	00 00 00 
   1015c:	c7 85 48 f7 ff ff 4a 	movl   $0xbeee314a,-0x8b8(%rbp)
   10163:	31 ee be 
   10166:	c7 85 4c f7 ff ff f9 	movl   $0xfffffff9,-0x8b4(%rbp)
   1016d:	ff ff ff 
   10170:	c7 85 2c f7 ff ff ff 	movl   $0xffffffff,-0x8d4(%rbp)
   10177:	ff ff ff 
   1017a:	c7 85 50 f7 ff ff ff 	movl   $0xffffffff,-0x8b0(%rbp)
   10181:	ff ff ff 
   10184:	48 8d 85 20 fa ff ff 	lea    -0x5e0(%rbp),%rax
   1018b:	48 8d 15 6e 35 00 00 	lea    0x356e(%rip),%rdx        # 13700 <g_2076+0x6a0>
   10192:	b9 30 00 00 00       	mov    $0x30,%ecx
   10197:	48 89 c7             	mov    %rax,%rdi
   1019a:	48 89 d6             	mov    %rdx,%rsi
   1019d:	f3 48 a5             	rep movsq %ds:(%rsi),%es:(%rdi)
   101a0:	48 8d 05 c1 8f 00 00 	lea    0x8fc1(%rip),%rax        # 19168 <g_452>
   101a7:	48 89 85 c0 f7 ff ff 	mov    %rax,-0x840(%rbp)
   101ae:	c7 85 54 f7 ff ff db 	movl   $0xb5a750db,-0x8ac(%rbp)
   101b5:	50 a7 b5 
   101b8:	48 8d 85 2c f7 ff ff 	lea    -0x8d4(%rbp),%rax
   101bf:	48 89 85 c8 f7 ff ff 	mov    %rax,-0x838(%rbp)
   101c6:	48 8d 85 c8 f7 ff ff 	lea    -0x838(%rbp),%rax
   101cd:	48 89 85 28 f8 ff ff 	mov    %rax,-0x7d8(%rbp)
   101d4:	c7 85 58 f7 ff ff 37 	movl   $0xa59cce37,-0x8a8(%rbp)
   101db:	ce 9c a5 
   101de:	48 8d 85 a8 f7 ff ff 	lea    -0x858(%rbp),%rax
   101e5:	48 89 85 d0 f7 ff ff 	mov    %rax,-0x830(%rbp)
   101ec:	48 8d 85 d0 f7 ff ff 	lea    -0x830(%rbp),%rax
   101f3:	48 89 85 30 f8 ff ff 	mov    %rax,-0x7d0(%rbp)
   101fa:	48 c7 85 38 f8 ff ff 	movq   $0x0,-0x7c8(%rbp)
   10201:	00 00 00 00 
   10205:	c7 85 5c f7 ff ff f9 	movl   $0xfffffff9,-0x8a4(%rbp)
   1020c:	ff ff ff 
   1020f:	c7 85 60 f7 ff ff 0a 	movl   $0xf230660a,-0x8a0(%rbp)
   10216:	66 30 f2 
   10219:	c6 85 17 f7 ff ff e2 	movb   $0xe2,-0x8e9(%rbp)
   10220:	66 c7 85 d0 f8 ff ff 	movw   $0xfff9,-0x730(%rbp)
   10227:	f9 ff 
   10229:	66 c7 85 d2 f8 ff ff 	movw   $0xfff9,-0x72e(%rbp)
   10230:	f9 ff 
   10232:	66 c7 85 d4 f8 ff ff 	movw   $0xfff9,-0x72c(%rbp)
   10239:	f9 ff 
   1023b:	66 c7 85 d6 f8 ff ff 	movw   $0xfff9,-0x72a(%rbp)
   10242:	f9 ff 
   10244:	66 c7 85 d8 f8 ff ff 	movw   $0xfff9,-0x728(%rbp)
   1024b:	f9 ff 
   1024d:	66 c7 85 da f8 ff ff 	movw   $0xfff9,-0x726(%rbp)
   10254:	f9 ff 
   10256:	66 c7 85 dc f8 ff ff 	movw   $0xfff9,-0x724(%rbp)
   1025d:	f9 ff 
   1025f:	66 c7 85 de f8 ff ff 	movw   $0xfff9,-0x722(%rbp)
   10266:	f9 ff 
   10268:	66 c7 85 e0 f8 ff ff 	movw   $0xfff9,-0x720(%rbp)
   1026f:	f9 ff 
   10271:	66 c7 05 c2 6d 00 00 	movw   $0xfffc,0x6dc2(%rip)        # 1703c <g_95>
   10278:	fc ff 
   1027a:	eb 77                	jmp    102f3 <func_40+0x329>
   1027c:	48 8d 05 b5 6d 00 00 	lea    0x6db5(%rip),%rax        # 17038 <g_70>
   10283:	48 89 85 d8 f7 ff ff 	mov    %rax,-0x828(%rbp)
   1028a:	48 8d 85 d8 f7 ff ff 	lea    -0x828(%rbp),%rax
   10291:	48 89 85 e0 f7 ff ff 	mov    %rax,-0x820(%rbp)
   10298:	48 8d 85 e0 f7 ff ff 	lea    -0x820(%rbp),%rax
   1029f:	48 89 85 e8 f7 ff ff 	mov    %rax,-0x818(%rbp)
   102a6:	48 8d 85 e8 f7 ff ff 	lea    -0x818(%rbp),%rax
   102ad:	48 89 85 b8 f8 ff ff 	mov    %rax,-0x748(%rbp)
   102b4:	48 8b 85 e0 f7 ff ff 	mov    -0x820(%rbp),%rax
   102bb:	48 8d 15 62 6d 00 00 	lea    0x6d62(%rip),%rdx        # 17024 <g_2>
   102c2:	48 89 10             	mov    %rdx,(%rax)
   102c5:	48 8b 85 b8 f8 ff ff 	mov    -0x748(%rbp),%rax
   102cc:	48 8d 95 e0 f7 ff ff 	lea    -0x820(%rbp),%rdx
   102d3:	48 89 10             	mov    %rdx,(%rax)
   102d6:	0f b7 05 5f 6d 00 00 	movzwl 0x6d5f(%rip),%eax        # 1703c <g_95>
   102dd:	0f b7 c0             	movzwl %ax,%eax
   102e0:	be 01 00 00 00       	mov    $0x1,%esi
   102e5:	89 c7                	mov    %eax,%edi
   102e7:	e8 cc 5b ff ff       	callq  5eb8 <safe_add_func_uint32_t_u_u>
   102ec:	66 89 05 49 6d 00 00 	mov    %ax,0x6d49(%rip)        # 1703c <g_95>
   102f3:	0f b7 05 42 6d 00 00 	movzwl 0x6d42(%rip),%eax        # 1703c <g_95>
   102fa:	66 83 f8 1b          	cmp    $0x1b,%ax
   102fe:	0f 86 78 ff ff ff    	jbe    1027c <func_40+0x2b2>
   10304:	0f b6 05 1f 6d 00 00 	movzbl 0x6d1f(%rip),%eax        # 1702a <g_61>
   1030b:	0f b6 d8             	movzbl %al,%ebx
   1030e:	48 8b 85 08 f7 ff ff 	mov    -0x8f8(%rbp),%rax
   10315:	44 0f be e0          	movsbl %al,%r12d
   10319:	8b 05 05 6d 00 00    	mov    0x6d05(%rip),%eax        # 17024 <g_2>
   1031f:	0f b6 c0             	movzbl %al,%eax
   10322:	be 06 00 00 00       	mov    $0x6,%esi
   10327:	89 c7                	mov    %eax,%edi
   10329:	e8 d7 58 ff ff       	callq  5c05 <safe_lshift_func_uint8_t_u_s>
   1032e:	44 0f b6 e8          	movzbl %al,%r13d
   10332:	48 83 bd f8 f7 ff ff 	cmpq   $0x0,-0x808(%rbp)
   10339:	00 
   1033a:	0f 95 c0             	setne  %al
   1033d:	89 c2                	mov    %eax,%edx
   1033f:	48 8b 85 08 f8 ff ff 	mov    -0x7f8(%rbp),%rax
   10346:	88 10                	mov    %dl,(%rax)
   10348:	48 83 bd 00 f8 ff ff 	cmpq   $0x0,-0x800(%rbp)
   1034f:	00 
   10350:	75 12                	jne    10364 <func_40+0x39a>
   10352:	48 83 bd 08 f7 ff ff 	cmpq   $0x0,-0x8f8(%rbp)
   10359:	00 
   1035a:	74 08                	je     10364 <func_40+0x39a>
   1035c:	41 be 01 00 00 00    	mov    $0x1,%r14d
   10362:	eb 06                	jmp    1036a <func_40+0x3a0>
   10364:	41 be 00 00 00 00    	mov    $0x0,%r14d
   1036a:	48 8b 85 f8 f7 ff ff 	mov    -0x808(%rbp),%rax
   10371:	0f b7 00             	movzwl (%rax),%eax
   10374:	8d 50 01             	lea    0x1(%rax),%edx
   10377:	48 8b 85 f8 f7 ff ff 	mov    -0x808(%rbp),%rax
   1037e:	66 89 10             	mov    %dx,(%rax)
   10381:	48 8b 85 f8 f7 ff ff 	mov    -0x808(%rbp),%rax
   10388:	0f b7 00             	movzwl (%rax),%eax
   1038b:	0f bf d0             	movswl %ax,%edx
   1038e:	0f be 85 04 f7 ff ff 	movsbl -0x8fc(%rbp),%eax
   10395:	89 d6                	mov    %edx,%esi
   10397:	89 c7                	mov    %eax,%edi
   10399:	e8 57 50 ff ff       	callq  53f5 <safe_mul_func_int16_t_s_s>
   1039e:	0f be c0             	movsbl %al,%eax
   103a1:	44 89 f6             	mov    %r14d,%esi
   103a4:	89 c7                	mov    %eax,%edi
   103a6:	e8 8a 4f ff ff       	callq  5335 <safe_rshift_func_int8_t_s_s>
   103ab:	0f be c0             	movsbl %al,%eax
   103ae:	41 39 c5             	cmp    %eax,%r13d
   103b1:	0f 9d c0             	setge  %al
   103b4:	89 c2                	mov    %eax,%edx
   103b6:	0f b6 05 6d 6c 00 00 	movzbl 0x6c6d(%rip),%eax        # 1702a <g_61>
   103bd:	09 d0                	or     %edx,%eax
   103bf:	0f be c0             	movsbl %al,%eax
   103c2:	44 89 e6             	mov    %r12d,%esi
   103c5:	89 c7                	mov    %eax,%edi
   103c7:	e8 08 4e ff ff       	callq  51d4 <safe_add_func_int8_t_s_s>
   103cc:	66 98                	cbtw   
   103ce:	0f b7 c0             	movzwl %ax,%eax
   103d1:	89 de                	mov    %ebx,%esi
   103d3:	89 c7                	mov    %eax,%edi
   103d5:	e8 25 59 ff ff       	callq  5cff <safe_add_func_uint16_t_u_u>
   103da:	0f b6 05 49 6c 00 00 	movzbl 0x6c49(%rip),%eax        # 1702a <g_61>
   103e1:	0f b6 c0             	movzbl %al,%eax
   103e4:	48 39 85 08 f7 ff ff 	cmp    %rax,-0x8f8(%rbp)
   103eb:	0f 95 c0             	setne  %al
   103ee:	0f b6 d0             	movzbl %al,%edx
   103f1:	48 8d 05 50 8d 00 00 	lea    0x8d50(%rip),%rax        # 19148 <g_107>
   103f8:	48 39 85 f0 f7 ff ff 	cmp    %rax,-0x810(%rbp)
   103ff:	0f 95 c0             	setne  %al
   10402:	0f b6 c0             	movzbl %al,%eax
   10405:	48 89 d6             	mov    %rdx,%rsi
   10408:	48 89 c7             	mov    %rax,%rdi
   1040b:	e8 98 54 ff ff       	callq  58a8 <safe_sub_func_int64_t_s_s>
   10410:	48 83 f8 09          	cmp    $0x9,%rax
   10414:	0f 94 c0             	sete   %al
   10417:	0f b6 c0             	movzbl %al,%eax
   1041a:	48 39 85 f8 f6 ff ff 	cmp    %rax,-0x908(%rbp)
   10421:	0f 95 c0             	setne  %al
   10424:	0f b6 c8             	movzbl %al,%ecx
   10427:	48 8b 85 a0 f7 ff ff 	mov    -0x860(%rbp),%rax
   1042e:	8b 10                	mov    (%rax),%edx
   10430:	48 8b 85 a0 f7 ff ff 	mov    -0x860(%rbp),%rax
   10437:	21 ca                	and    %ecx,%edx
   10439:	89 10                	mov    %edx,(%rax)
   1043b:	8b 00                	mov    (%rax),%eax
   1043d:	85 c0                	test   %eax,%eax
   1043f:	0f 84 fe 09 00 00    	je     10e43 <func_40+0xe79>
   10445:	c7 85 84 f7 ff ff d4 	movl   $0x5d82cdd4,-0x87c(%rbp)
   1044c:	cd 82 5d 
   1044f:	c7 85 88 f7 ff ff 20 	movl   $0xd9d7c220,-0x878(%rbp)
   10456:	c2 d7 d9 
   10459:	48 8d 05 f8 6b 00 00 	lea    0x6bf8(%rip),%rax        # 17058 <g_186>
   10460:	48 89 85 90 f8 ff ff 	mov    %rax,-0x770(%rbp)
   10467:	48 8d 05 bc 6b 00 00 	lea    0x6bbc(%rip),%rax        # 1702a <g_61>
   1046e:	48 89 85 98 f8 ff ff 	mov    %rax,-0x768(%rbp)
   10475:	48 c7 85 a0 f8 ff ff 	movq   $0x1,-0x760(%rbp)
   1047c:	01 00 00 00 
   10480:	48 8d 85 a8 f7 ff ff 	lea    -0x858(%rbp),%rax
   10487:	48 89 85 e8 f7 ff ff 	mov    %rax,-0x818(%rbp)
   1048e:	48 8d 85 e8 f7 ff ff 	lea    -0x818(%rbp),%rax
   10495:	48 89 85 80 f9 ff ff 	mov    %rax,-0x680(%rbp)
   1049c:	48 8d 85 e8 f7 ff ff 	lea    -0x818(%rbp),%rax
   104a3:	48 89 85 88 f9 ff ff 	mov    %rax,-0x678(%rbp)
   104aa:	48 8d 85 e8 f7 ff ff 	lea    -0x818(%rbp),%rax
   104b1:	48 89 85 90 f9 ff ff 	mov    %rax,-0x670(%rbp)
   104b8:	48 8d 85 e8 f7 ff ff 	lea    -0x818(%rbp),%rax
   104bf:	48 89 85 98 f9 ff ff 	mov    %rax,-0x668(%rbp)
   104c6:	48 8d 85 e8 f7 ff ff 	lea    -0x818(%rbp),%rax
   104cd:	48 89 85 a0 f9 ff ff 	mov    %rax,-0x660(%rbp)
   104d4:	48 8d 85 e8 f7 ff ff 	lea    -0x818(%rbp),%rax
   104db:	48 89 85 a8 f9 ff ff 	mov    %rax,-0x658(%rbp)
   104e2:	48 8d 85 e8 f7 ff ff 	lea    -0x818(%rbp),%rax
   104e9:	48 89 85 b0 f9 ff ff 	mov    %rax,-0x650(%rbp)
   104f0:	48 8d 85 e8 f7 ff ff 	lea    -0x818(%rbp),%rax
   104f7:	48 89 85 b8 f9 ff ff 	mov    %rax,-0x648(%rbp)
   104fe:	48 8d 85 e8 f7 ff ff 	lea    -0x818(%rbp),%rax
   10505:	48 89 85 c0 f9 ff ff 	mov    %rax,-0x640(%rbp)
   1050c:	c7 85 8c f7 ff ff 02 	movl   $0x84438402,-0x874(%rbp)
   10513:	84 43 84 
   10516:	c7 85 90 f7 ff ff ce 	movl   $0xc11c1cce,-0x870(%rbp)
   1051d:	1c 1c c1 
   10520:	c7 85 94 f7 ff ff 47 	movl   $0x91c87f47,-0x86c(%rbp)
   10527:	7f c8 91 
   1052a:	48 8d 05 6f 6b 00 00 	lea    0x6b6f(%rip),%rax        # 170a0 <g_449>
   10531:	48 89 85 a8 f8 ff ff 	mov    %rax,-0x758(%rbp)
   10538:	48 8d 85 40 f9 ff ff 	lea    -0x6c0(%rbp),%rax
   1053f:	48 83 c0 20          	add    $0x20,%rax
   10543:	48 89 85 a0 fb ff ff 	mov    %rax,-0x460(%rbp)
   1054a:	48 8d 85 40 f9 ff ff 	lea    -0x6c0(%rbp),%rax
   10551:	48 83 c0 30          	add    $0x30,%rax
   10555:	48 89 85 a8 fb ff ff 	mov    %rax,-0x458(%rbp)
   1055c:	48 c7 85 b0 fb ff ff 	movq   $0x0,-0x450(%rbp)
   10563:	00 00 00 00 
   10567:	48 c7 85 b8 fb ff ff 	movq   $0x0,-0x448(%rbp)
   1056e:	00 00 00 00 
   10572:	48 8d 85 40 f9 ff ff 	lea    -0x6c0(%rbp),%rax
   10579:	48 83 c0 08          	add    $0x8,%rax
   1057d:	48 89 85 c0 fb ff ff 	mov    %rax,-0x440(%rbp)
   10584:	48 8d 85 40 f9 ff ff 	lea    -0x6c0(%rbp),%rax
   1058b:	48 83 c0 20          	add    $0x20,%rax
   1058f:	48 89 85 c8 fb ff ff 	mov    %rax,-0x438(%rbp)
   10596:	48 8d 85 40 f9 ff ff 	lea    -0x6c0(%rbp),%rax
   1059d:	48 83 c0 20          	add    $0x20,%rax
   105a1:	48 89 85 d0 fb ff ff 	mov    %rax,-0x430(%rbp)
   105a8:	48 8d 85 40 f9 ff ff 	lea    -0x6c0(%rbp),%rax
   105af:	48 83 c0 08          	add    $0x8,%rax
   105b3:	48 89 85 d8 fb ff ff 	mov    %rax,-0x428(%rbp)
   105ba:	48 c7 85 e0 fb ff ff 	movq   $0x0,-0x420(%rbp)
   105c1:	00 00 00 00 
   105c5:	48 c7 85 e8 fb ff ff 	movq   $0x0,-0x418(%rbp)
   105cc:	00 00 00 00 
   105d0:	48 c7 85 f0 fb ff ff 	movq   $0x0,-0x410(%rbp)
   105d7:	00 00 00 00 
   105db:	48 8d 85 40 f9 ff ff 	lea    -0x6c0(%rbp),%rax
   105e2:	48 83 c0 20          	add    $0x20,%rax
   105e6:	48 89 85 f8 fb ff ff 	mov    %rax,-0x408(%rbp)
   105ed:	48 8d 85 40 f9 ff ff 	lea    -0x6c0(%rbp),%rax
   105f4:	48 83 c0 20          	add    $0x20,%rax
   105f8:	48 89 85 00 fc ff ff 	mov    %rax,-0x400(%rbp)
   105ff:	48 8d 85 40 f9 ff ff 	lea    -0x6c0(%rbp),%rax
   10606:	48 83 c0 20          	add    $0x20,%rax
   1060a:	48 89 85 08 fc ff ff 	mov    %rax,-0x3f8(%rbp)
   10611:	48 c7 85 10 fc ff ff 	movq   $0x0,-0x3f0(%rbp)
   10618:	00 00 00 00 
   1061c:	48 8d 85 40 f9 ff ff 	lea    -0x6c0(%rbp),%rax
   10623:	48 83 c0 08          	add    $0x8,%rax
   10627:	48 89 85 18 fc ff ff 	mov    %rax,-0x3e8(%rbp)
   1062e:	48 c7 85 20 fc ff ff 	movq   $0x0,-0x3e0(%rbp)
   10635:	00 00 00 00 
   10639:	48 8d 85 40 f9 ff ff 	lea    -0x6c0(%rbp),%rax
   10640:	48 83 c0 08          	add    $0x8,%rax
   10644:	48 89 85 28 fc ff ff 	mov    %rax,-0x3d8(%rbp)
   1064b:	48 c7 85 30 fc ff ff 	movq   $0x0,-0x3d0(%rbp)
   10652:	00 00 00 00 
   10656:	48 8d 85 40 f9 ff ff 	lea    -0x6c0(%rbp),%rax
   1065d:	48 83 c0 08          	add    $0x8,%rax
   10661:	48 89 85 38 fc ff ff 	mov    %rax,-0x3c8(%rbp)
   10668:	48 c7 85 40 fc ff ff 	movq   $0x0,-0x3c0(%rbp)
   1066f:	00 00 00 00 
   10673:	48 8d 85 40 f9 ff ff 	lea    -0x6c0(%rbp),%rax
   1067a:	48 83 c0 20          	add    $0x20,%rax
   1067e:	48 89 85 48 fc ff ff 	mov    %rax,-0x3b8(%rbp)
   10685:	48 8d 85 40 f9 ff ff 	lea    -0x6c0(%rbp),%rax
   1068c:	48 83 c0 08          	add    $0x8,%rax
   10690:	48 89 85 50 fc ff ff 	mov    %rax,-0x3b0(%rbp)
   10697:	48 8d 85 40 f9 ff ff 	lea    -0x6c0(%rbp),%rax
   1069e:	48 83 c0 08          	add    $0x8,%rax
   106a2:	48 89 85 58 fc ff ff 	mov    %rax,-0x3a8(%rbp)
   106a9:	48 c7 85 60 fc ff ff 	movq   $0x0,-0x3a0(%rbp)
   106b0:	00 00 00 00 
   106b4:	48 8d 85 40 f9 ff ff 	lea    -0x6c0(%rbp),%rax
   106bb:	48 83 c0 30          	add    $0x30,%rax
   106bf:	48 89 85 68 fc ff ff 	mov    %rax,-0x398(%rbp)
   106c6:	48 c7 85 70 fc ff ff 	movq   $0x0,-0x390(%rbp)
   106cd:	00 00 00 00 
   106d1:	48 8d 85 40 f9 ff ff 	lea    -0x6c0(%rbp),%rax
   106d8:	48 83 c0 08          	add    $0x8,%rax
   106dc:	48 89 85 78 fc ff ff 	mov    %rax,-0x388(%rbp)
   106e3:	48 8d 85 40 f9 ff ff 	lea    -0x6c0(%rbp),%rax
   106ea:	48 83 c0 20          	add    $0x20,%rax
   106ee:	48 89 85 80 fc ff ff 	mov    %rax,-0x380(%rbp)
   106f5:	48 8d 85 40 f9 ff ff 	lea    -0x6c0(%rbp),%rax
   106fc:	48 83 c0 20          	add    $0x20,%rax
   10700:	48 89 85 88 fc ff ff 	mov    %rax,-0x378(%rbp)
   10707:	48 c7 85 90 fc ff ff 	movq   $0x0,-0x370(%rbp)
   1070e:	00 00 00 00 
   10712:	48 8d 85 40 f9 ff ff 	lea    -0x6c0(%rbp),%rax
   10719:	48 83 c0 20          	add    $0x20,%rax
   1071d:	48 89 85 98 fc ff ff 	mov    %rax,-0x368(%rbp)
   10724:	48 c7 85 a0 fc ff ff 	movq   $0x0,-0x360(%rbp)
   1072b:	00 00 00 00 
   1072f:	48 8d 85 40 f9 ff ff 	lea    -0x6c0(%rbp),%rax
   10736:	48 83 c0 20          	add    $0x20,%rax
   1073a:	48 89 85 a8 fc ff ff 	mov    %rax,-0x358(%rbp)
   10741:	48 8d 85 40 f9 ff ff 	lea    -0x6c0(%rbp),%rax
   10748:	48 83 c0 08          	add    $0x8,%rax
   1074c:	48 89 85 b0 fc ff ff 	mov    %rax,-0x350(%rbp)
   10753:	48 8d 85 40 f9 ff ff 	lea    -0x6c0(%rbp),%rax
   1075a:	48 83 c0 20          	add    $0x20,%rax
   1075e:	48 89 85 b8 fc ff ff 	mov    %rax,-0x348(%rbp)
   10765:	48 c7 85 c0 fc ff ff 	movq   $0x0,-0x340(%rbp)
   1076c:	00 00 00 00 
   10770:	48 8d 85 40 f9 ff ff 	lea    -0x6c0(%rbp),%rax
   10777:	48 83 c0 20          	add    $0x20,%rax
   1077b:	48 89 85 c8 fc ff ff 	mov    %rax,-0x338(%rbp)
   10782:	48 c7 85 d0 fc ff ff 	movq   $0x0,-0x330(%rbp)
   10789:	00 00 00 00 
   1078d:	48 8d 85 40 f9 ff ff 	lea    -0x6c0(%rbp),%rax
   10794:	48 83 c0 08          	add    $0x8,%rax
   10798:	48 89 85 d8 fc ff ff 	mov    %rax,-0x328(%rbp)
   1079f:	48 8d 85 40 f9 ff ff 	lea    -0x6c0(%rbp),%rax
   107a6:	48 83 c0 20          	add    $0x20,%rax
   107aa:	48 89 85 e0 fc ff ff 	mov    %rax,-0x320(%rbp)
   107b1:	48 c7 85 e8 fc ff ff 	movq   $0x0,-0x318(%rbp)
   107b8:	00 00 00 00 
   107bc:	48 8d 85 40 f9 ff ff 	lea    -0x6c0(%rbp),%rax
   107c3:	48 83 c0 20          	add    $0x20,%rax
   107c7:	48 89 85 f0 fc ff ff 	mov    %rax,-0x310(%rbp)
   107ce:	48 8d 85 40 f9 ff ff 	lea    -0x6c0(%rbp),%rax
   107d5:	48 83 c0 30          	add    $0x30,%rax
   107d9:	48 89 85 f8 fc ff ff 	mov    %rax,-0x308(%rbp)
   107e0:	48 c7 85 00 fd ff ff 	movq   $0x0,-0x300(%rbp)
   107e7:	00 00 00 00 
   107eb:	48 c7 85 08 fd ff ff 	movq   $0x0,-0x2f8(%rbp)
   107f2:	00 00 00 00 
   107f6:	48 8d 85 40 f9 ff ff 	lea    -0x6c0(%rbp),%rax
   107fd:	48 83 c0 08          	add    $0x8,%rax
   10801:	48 89 85 10 fd ff ff 	mov    %rax,-0x2f0(%rbp)
   10808:	48 8d 85 40 f9 ff ff 	lea    -0x6c0(%rbp),%rax
   1080f:	48 83 c0 20          	add    $0x20,%rax
   10813:	48 89 85 18 fd ff ff 	mov    %rax,-0x2e8(%rbp)
   1081a:	48 8d 85 40 f9 ff ff 	lea    -0x6c0(%rbp),%rax
   10821:	48 83 c0 20          	add    $0x20,%rax
   10825:	48 89 85 20 fd ff ff 	mov    %rax,-0x2e0(%rbp)
   1082c:	48 8d 85 40 f9 ff ff 	lea    -0x6c0(%rbp),%rax
   10833:	48 83 c0 08          	add    $0x8,%rax
   10837:	48 89 85 28 fd ff ff 	mov    %rax,-0x2d8(%rbp)
   1083e:	48 c7 85 30 fd ff ff 	movq   $0x0,-0x2d0(%rbp)
   10845:	00 00 00 00 
   10849:	48 c7 85 38 fd ff ff 	movq   $0x0,-0x2c8(%rbp)
   10850:	00 00 00 00 
   10854:	48 c7 85 40 fd ff ff 	movq   $0x0,-0x2c0(%rbp)
   1085b:	00 00 00 00 
   1085f:	48 8d 85 40 f9 ff ff 	lea    -0x6c0(%rbp),%rax
   10866:	48 83 c0 20          	add    $0x20,%rax
   1086a:	48 89 85 48 fd ff ff 	mov    %rax,-0x2b8(%rbp)
   10871:	48 8d 85 40 f9 ff ff 	lea    -0x6c0(%rbp),%rax
   10878:	48 83 c0 20          	add    $0x20,%rax
   1087c:	48 89 85 50 fd ff ff 	mov    %rax,-0x2b0(%rbp)
   10883:	48 8d 85 40 f9 ff ff 	lea    -0x6c0(%rbp),%rax
   1088a:	48 83 c0 20          	add    $0x20,%rax
   1088e:	48 89 85 58 fd ff ff 	mov    %rax,-0x2a8(%rbp)
   10895:	48 c7 85 60 fd ff ff 	movq   $0x0,-0x2a0(%rbp)
   1089c:	00 00 00 00 
   108a0:	48 8d 85 40 f9 ff ff 	lea    -0x6c0(%rbp),%rax
   108a7:	48 83 c0 08          	add    $0x8,%rax
   108ab:	48 89 85 68 fd ff ff 	mov    %rax,-0x298(%rbp)
   108b2:	48 c7 85 70 fd ff ff 	movq   $0x0,-0x290(%rbp)
   108b9:	00 00 00 00 
   108bd:	48 8d 85 40 f9 ff ff 	lea    -0x6c0(%rbp),%rax
   108c4:	48 83 c0 08          	add    $0x8,%rax
   108c8:	48 89 85 78 fd ff ff 	mov    %rax,-0x288(%rbp)
   108cf:	48 c7 85 80 fd ff ff 	movq   $0x0,-0x280(%rbp)
   108d6:	00 00 00 00 
   108da:	48 8d 85 40 f9 ff ff 	lea    -0x6c0(%rbp),%rax
   108e1:	48 83 c0 08          	add    $0x8,%rax
   108e5:	48 89 85 88 fd ff ff 	mov    %rax,-0x278(%rbp)
   108ec:	48 c7 85 90 fd ff ff 	movq   $0x0,-0x270(%rbp)
   108f3:	00 00 00 00 
   108f7:	48 8d 85 40 f9 ff ff 	lea    -0x6c0(%rbp),%rax
   108fe:	48 83 c0 20          	add    $0x20,%rax
   10902:	48 89 85 98 fd ff ff 	mov    %rax,-0x268(%rbp)
   10909:	48 8d 85 40 f9 ff ff 	lea    -0x6c0(%rbp),%rax
   10910:	48 83 c0 08          	add    $0x8,%rax
   10914:	48 89 85 a0 fd ff ff 	mov    %rax,-0x260(%rbp)
   1091b:	48 8d 85 40 f9 ff ff 	lea    -0x6c0(%rbp),%rax
   10922:	48 83 c0 08          	add    $0x8,%rax
   10926:	48 89 85 a8 fd ff ff 	mov    %rax,-0x258(%rbp)
   1092d:	48 c7 85 b0 fd ff ff 	movq   $0x0,-0x250(%rbp)
   10934:	00 00 00 00 
   10938:	48 8d 85 40 f9 ff ff 	lea    -0x6c0(%rbp),%rax
   1093f:	48 83 c0 30          	add    $0x30,%rax
   10943:	48 89 85 b8 fd ff ff 	mov    %rax,-0x248(%rbp)
   1094a:	48 c7 85 c0 fd ff ff 	movq   $0x0,-0x240(%rbp)
   10951:	00 00 00 00 
   10955:	48 8d 85 40 f9 ff ff 	lea    -0x6c0(%rbp),%rax
   1095c:	48 83 c0 08          	add    $0x8,%rax
   10960:	48 89 85 c8 fd ff ff 	mov    %rax,-0x238(%rbp)
   10967:	48 8d 85 40 f9 ff ff 	lea    -0x6c0(%rbp),%rax
   1096e:	48 83 c0 20          	add    $0x20,%rax
   10972:	48 89 85 d0 fd ff ff 	mov    %rax,-0x230(%rbp)
   10979:	48 8d 85 40 f9 ff ff 	lea    -0x6c0(%rbp),%rax
   10980:	48 83 c0 20          	add    $0x20,%rax
   10984:	48 89 85 d8 fd ff ff 	mov    %rax,-0x228(%rbp)
   1098b:	48 c7 85 e0 fd ff ff 	movq   $0x0,-0x220(%rbp)
   10992:	00 00 00 00 
   10996:	48 8d 85 40 f9 ff ff 	lea    -0x6c0(%rbp),%rax
   1099d:	48 83 c0 20          	add    $0x20,%rax
   109a1:	48 89 85 e8 fd ff ff 	mov    %rax,-0x218(%rbp)
   109a8:	48 c7 85 f0 fd ff ff 	movq   $0x0,-0x210(%rbp)
   109af:	00 00 00 00 
   109b3:	48 8d 85 40 f9 ff ff 	lea    -0x6c0(%rbp),%rax
   109ba:	48 83 c0 20          	add    $0x20,%rax
   109be:	48 89 85 f8 fd ff ff 	mov    %rax,-0x208(%rbp)
   109c5:	48 8d 85 40 f9 ff ff 	lea    -0x6c0(%rbp),%rax
   109cc:	48 83 c0 08          	add    $0x8,%rax
   109d0:	48 89 85 00 fe ff ff 	mov    %rax,-0x200(%rbp)
   109d7:	48 8d 85 40 f9 ff ff 	lea    -0x6c0(%rbp),%rax
   109de:	48 83 c0 20          	add    $0x20,%rax
   109e2:	48 89 85 08 fe ff ff 	mov    %rax,-0x1f8(%rbp)
   109e9:	48 c7 85 10 fe ff ff 	movq   $0x0,-0x1f0(%rbp)
   109f0:	00 00 00 00 
   109f4:	48 8d 85 40 f9 ff ff 	lea    -0x6c0(%rbp),%rax
   109fb:	48 83 c0 20          	add    $0x20,%rax
   109ff:	48 89 85 18 fe ff ff 	mov    %rax,-0x1e8(%rbp)
   10a06:	48 c7 85 20 fe ff ff 	movq   $0x0,-0x1e0(%rbp)
   10a0d:	00 00 00 00 
   10a11:	48 8d 85 40 f9 ff ff 	lea    -0x6c0(%rbp),%rax
   10a18:	48 83 c0 08          	add    $0x8,%rax
   10a1c:	48 89 85 28 fe ff ff 	mov    %rax,-0x1d8(%rbp)
   10a23:	48 8d 85 40 f9 ff ff 	lea    -0x6c0(%rbp),%rax
   10a2a:	48 83 c0 20          	add    $0x20,%rax
   10a2e:	48 89 85 30 fe ff ff 	mov    %rax,-0x1d0(%rbp)
   10a35:	48 c7 85 38 fe ff ff 	movq   $0x0,-0x1c8(%rbp)
   10a3c:	00 00 00 00 
   10a40:	48 8d 85 40 f9 ff ff 	lea    -0x6c0(%rbp),%rax
   10a47:	48 83 c0 20          	add    $0x20,%rax
   10a4b:	48 89 85 40 fe ff ff 	mov    %rax,-0x1c0(%rbp)
   10a52:	48 8d 85 40 f9 ff ff 	lea    -0x6c0(%rbp),%rax
   10a59:	48 83 c0 30          	add    $0x30,%rax
   10a5d:	48 89 85 48 fe ff ff 	mov    %rax,-0x1b8(%rbp)
   10a64:	48 c7 85 50 fe ff ff 	movq   $0x0,-0x1b0(%rbp)
   10a6b:	00 00 00 00 
   10a6f:	48 c7 85 58 fe ff ff 	movq   $0x0,-0x1a8(%rbp)
   10a76:	00 00 00 00 
   10a7a:	48 8d 85 40 f9 ff ff 	lea    -0x6c0(%rbp),%rax
   10a81:	48 83 c0 08          	add    $0x8,%rax
   10a85:	48 89 85 60 fe ff ff 	mov    %rax,-0x1a0(%rbp)
   10a8c:	48 8d 85 40 f9 ff ff 	lea    -0x6c0(%rbp),%rax
   10a93:	48 83 c0 20          	add    $0x20,%rax
   10a97:	48 89 85 68 fe ff ff 	mov    %rax,-0x198(%rbp)
   10a9e:	48 8d 85 40 f9 ff ff 	lea    -0x6c0(%rbp),%rax
   10aa5:	48 83 c0 20          	add    $0x20,%rax
   10aa9:	48 89 85 70 fe ff ff 	mov    %rax,-0x190(%rbp)
   10ab0:	48 8d 85 40 f9 ff ff 	lea    -0x6c0(%rbp),%rax
   10ab7:	48 83 c0 08          	add    $0x8,%rax
   10abb:	48 89 85 78 fe ff ff 	mov    %rax,-0x188(%rbp)
   10ac2:	48 c7 85 80 fe ff ff 	movq   $0x0,-0x180(%rbp)
   10ac9:	00 00 00 00 
   10acd:	48 c7 85 88 fe ff ff 	movq   $0x0,-0x178(%rbp)
   10ad4:	00 00 00 00 
   10ad8:	48 c7 85 90 fe ff ff 	movq   $0x0,-0x170(%rbp)
   10adf:	00 00 00 00 
   10ae3:	48 8d 85 40 f9 ff ff 	lea    -0x6c0(%rbp),%rax
   10aea:	48 83 c0 20          	add    $0x20,%rax
   10aee:	48 89 85 98 fe ff ff 	mov    %rax,-0x168(%rbp)
   10af5:	48 8d 85 40 f9 ff ff 	lea    -0x6c0(%rbp),%rax
   10afc:	48 83 c0 20          	add    $0x20,%rax
   10b00:	48 89 85 a0 fe ff ff 	mov    %rax,-0x160(%rbp)
   10b07:	48 8d 85 40 f9 ff ff 	lea    -0x6c0(%rbp),%rax
   10b0e:	48 83 c0 20          	add    $0x20,%rax
   10b12:	48 89 85 a8 fe ff ff 	mov    %rax,-0x158(%rbp)
   10b19:	48 c7 85 b0 fe ff ff 	movq   $0x0,-0x150(%rbp)
   10b20:	00 00 00 00 
   10b24:	48 8d 85 40 f9 ff ff 	lea    -0x6c0(%rbp),%rax
   10b2b:	48 83 c0 08          	add    $0x8,%rax
   10b2f:	48 89 85 b8 fe ff ff 	mov    %rax,-0x148(%rbp)
   10b36:	48 c7 85 c0 fe ff ff 	movq   $0x0,-0x140(%rbp)
   10b3d:	00 00 00 00 
   10b41:	48 8d 85 40 f9 ff ff 	lea    -0x6c0(%rbp),%rax
   10b48:	48 83 c0 08          	add    $0x8,%rax
   10b4c:	48 89 85 c8 fe ff ff 	mov    %rax,-0x138(%rbp)
   10b53:	48 c7 85 d0 fe ff ff 	movq   $0x0,-0x130(%rbp)
   10b5a:	00 00 00 00 
   10b5e:	48 8d 85 40 f9 ff ff 	lea    -0x6c0(%rbp),%rax
   10b65:	48 83 c0 08          	add    $0x8,%rax
   10b69:	48 89 85 d8 fe ff ff 	mov    %rax,-0x128(%rbp)
   10b70:	48 c7 85 e0 fe ff ff 	movq   $0x0,-0x120(%rbp)
   10b77:	00 00 00 00 
   10b7b:	48 8d 85 40 f9 ff ff 	lea    -0x6c0(%rbp),%rax
   10b82:	48 83 c0 20          	add    $0x20,%rax
   10b86:	48 89 85 e8 fe ff ff 	mov    %rax,-0x118(%rbp)
   10b8d:	48 8d 85 40 f9 ff ff 	lea    -0x6c0(%rbp),%rax
   10b94:	48 83 c0 08          	add    $0x8,%rax
   10b98:	48 89 85 f0 fe ff ff 	mov    %rax,-0x110(%rbp)
   10b9f:	48 8d 85 40 f9 ff ff 	lea    -0x6c0(%rbp),%rax
   10ba6:	48 83 c0 08          	add    $0x8,%rax
   10baa:	48 89 85 f8 fe ff ff 	mov    %rax,-0x108(%rbp)
   10bb1:	48 c7 85 00 ff ff ff 	movq   $0x0,-0x100(%rbp)
   10bb8:	00 00 00 00 
   10bbc:	48 8d 85 40 f9 ff ff 	lea    -0x6c0(%rbp),%rax
   10bc3:	48 83 c0 30          	add    $0x30,%rax
   10bc7:	48 89 85 08 ff ff ff 	mov    %rax,-0xf8(%rbp)
   10bce:	48 c7 85 10 ff ff ff 	movq   $0x0,-0xf0(%rbp)
   10bd5:	00 00 00 00 
   10bd9:	48 8d 85 40 f9 ff ff 	lea    -0x6c0(%rbp),%rax
   10be0:	48 83 c0 08          	add    $0x8,%rax
   10be4:	48 89 85 18 ff ff ff 	mov    %rax,-0xe8(%rbp)
   10beb:	48 8d 85 40 f9 ff ff 	lea    -0x6c0(%rbp),%rax
   10bf2:	48 83 c0 20          	add    $0x20,%rax
   10bf6:	48 89 85 20 ff ff ff 	mov    %rax,-0xe0(%rbp)
   10bfd:	48 8d 85 40 f9 ff ff 	lea    -0x6c0(%rbp),%rax
   10c04:	48 83 c0 20          	add    $0x20,%rax
   10c08:	48 89 85 28 ff ff ff 	mov    %rax,-0xd8(%rbp)
   10c0f:	48 c7 85 30 ff ff ff 	movq   $0x0,-0xd0(%rbp)
   10c16:	00 00 00 00 
   10c1a:	48 8d 85 40 f9 ff ff 	lea    -0x6c0(%rbp),%rax
   10c21:	48 83 c0 20          	add    $0x20,%rax
   10c25:	48 89 85 38 ff ff ff 	mov    %rax,-0xc8(%rbp)
   10c2c:	48 c7 85 40 ff ff ff 	movq   $0x0,-0xc0(%rbp)
   10c33:	00 00 00 00 
   10c37:	48 8d 85 40 f9 ff ff 	lea    -0x6c0(%rbp),%rax
   10c3e:	48 83 c0 20          	add    $0x20,%rax
   10c42:	48 89 85 48 ff ff ff 	mov    %rax,-0xb8(%rbp)
   10c49:	48 8d 85 40 f9 ff ff 	lea    -0x6c0(%rbp),%rax
   10c50:	48 83 c0 08          	add    $0x8,%rax
   10c54:	48 89 85 50 ff ff ff 	mov    %rax,-0xb0(%rbp)
   10c5b:	48 8d 85 40 f9 ff ff 	lea    -0x6c0(%rbp),%rax
   10c62:	48 83 c0 20          	add    $0x20,%rax
   10c66:	48 89 85 58 ff ff ff 	mov    %rax,-0xa8(%rbp)
   10c6d:	48 c7 85 60 ff ff ff 	movq   $0x0,-0xa0(%rbp)
   10c74:	00 00 00 00 
   10c78:	48 8d 85 40 f9 ff ff 	lea    -0x6c0(%rbp),%rax
   10c7f:	48 83 c0 20          	add    $0x20,%rax
   10c83:	48 89 85 68 ff ff ff 	mov    %rax,-0x98(%rbp)
   10c8a:	48 c7 85 70 ff ff ff 	movq   $0x0,-0x90(%rbp)
   10c91:	00 00 00 00 
   10c95:	48 8d 85 40 f9 ff ff 	lea    -0x6c0(%rbp),%rax
   10c9c:	48 83 c0 08          	add    $0x8,%rax
   10ca0:	48 89 85 78 ff ff ff 	mov    %rax,-0x88(%rbp)
   10ca7:	48 8d 85 40 f9 ff ff 	lea    -0x6c0(%rbp),%rax
   10cae:	48 83 c0 20          	add    $0x20,%rax
   10cb2:	48 89 45 80          	mov    %rax,-0x80(%rbp)
   10cb6:	48 c7 45 88 00 00 00 	movq   $0x0,-0x78(%rbp)
   10cbd:	00 
   10cbe:	48 8d 85 40 f9 ff ff 	lea    -0x6c0(%rbp),%rax
   10cc5:	48 83 c0 20          	add    $0x20,%rax
   10cc9:	48 89 45 90          	mov    %rax,-0x70(%rbp)
   10ccd:	48 8d 85 40 f9 ff ff 	lea    -0x6c0(%rbp),%rax
   10cd4:	48 83 c0 30          	add    $0x30,%rax
   10cd8:	48 89 45 98          	mov    %rax,-0x68(%rbp)
   10cdc:	48 c7 45 a0 00 00 00 	movq   $0x0,-0x60(%rbp)
   10ce3:	00 
   10ce4:	48 c7 45 a8 00 00 00 	movq   $0x0,-0x58(%rbp)
   10ceb:	00 
   10cec:	48 8d 85 40 f9 ff ff 	lea    -0x6c0(%rbp),%rax
   10cf3:	48 83 c0 08          	add    $0x8,%rax
   10cf7:	48 89 45 b0          	mov    %rax,-0x50(%rbp)
   10cfb:	48 8d 85 40 f9 ff ff 	lea    -0x6c0(%rbp),%rax
   10d02:	48 83 c0 20          	add    $0x20,%rax
   10d06:	48 89 45 b8          	mov    %rax,-0x48(%rbp)
   10d0a:	48 8d 85 40 f9 ff ff 	lea    -0x6c0(%rbp),%rax
   10d11:	48 83 c0 20          	add    $0x20,%rax
   10d15:	48 89 45 c0          	mov    %rax,-0x40(%rbp)
   10d19:	48 8d 85 40 f9 ff ff 	lea    -0x6c0(%rbp),%rax
   10d20:	48 83 c0 08          	add    $0x8,%rax
   10d24:	48 89 45 c8          	mov    %rax,-0x38(%rbp)
   10d28:	48 c7 45 d0 00 00 00 	movq   $0x0,-0x30(%rbp)
   10d2f:	00 
   10d30:	48 c7 85 d0 f9 ff ff 	movq   $0x0,-0x630(%rbp)
   10d37:	00 00 00 00 
   10d3b:	48 c7 85 d8 f9 ff ff 	movq   $0x0,-0x628(%rbp)
   10d42:	00 00 00 00 
   10d46:	48 c7 85 e0 f9 ff ff 	movq   $0x0,-0x620(%rbp)
   10d4d:	00 00 00 00 
   10d51:	48 c7 85 e8 f9 ff ff 	movq   $0x0,-0x618(%rbp)
   10d58:	00 00 00 00 
   10d5c:	48 c7 85 f0 f9 ff ff 	movq   $0x0,-0x610(%rbp)
   10d63:	00 00 00 00 
   10d67:	48 c7 85 f8 f9 ff ff 	movq   $0x0,-0x608(%rbp)
   10d6e:	00 00 00 00 
   10d72:	48 c7 85 00 fa ff ff 	movq   $0x0,-0x600(%rbp)
   10d79:	00 00 00 00 
   10d7d:	48 c7 85 08 fa ff ff 	movq   $0x0,-0x5f8(%rbp)
   10d84:	00 00 00 00 
   10d88:	48 c7 85 10 fa ff ff 	movq   $0x0,-0x5f0(%rbp)
   10d8f:	00 00 00 00 
   10d93:	48 c7 85 b0 f8 ff ff 	movq   $0x0,-0x750(%rbp)
   10d9a:	00 00 00 00 
   10d9e:	c7 85 34 f7 ff ff 00 	movl   $0x0,-0x8cc(%rbp)
   10da5:	00 00 00 
   10da8:	eb 1a                	jmp    10dc4 <func_40+0xdfa>
   10daa:	8b 85 34 f7 ff ff    	mov    -0x8cc(%rbp),%eax
   10db0:	48 98                	cltq   
   10db2:	c7 84 85 c4 f8 ff ff 	movl   $0xfffffffb,-0x73c(%rbp,%rax,4)
   10db9:	fb ff ff ff 
   10dbd:	83 85 34 f7 ff ff 01 	addl   $0x1,-0x8cc(%rbp)
   10dc4:	83 bd 34 f7 ff ff 02 	cmpl   $0x2,-0x8cc(%rbp)
   10dcb:	7e dd                	jle    10daa <func_40+0xde0>
   10dcd:	c7 85 34 f7 ff ff 00 	movl   $0x0,-0x8cc(%rbp)
   10dd4:	00 00 00 
   10dd7:	eb 1a                	jmp    10df3 <func_40+0xe29>
   10dd9:	8b 85 34 f7 ff ff    	mov    -0x8cc(%rbp),%eax
   10ddf:	48 98                	cltq   
   10de1:	c7 84 85 f0 f8 ff ff 	movl   $0x1c5459f6,-0x710(%rbp,%rax,4)
   10de8:	f6 59 54 1c 
   10dec:	83 85 34 f7 ff ff 01 	addl   $0x1,-0x8cc(%rbp)
   10df3:	83 bd 34 f7 ff ff 04 	cmpl   $0x4,-0x8cc(%rbp)
   10dfa:	7e dd                	jle    10dd9 <func_40+0xe0f>
   10dfc:	c7 85 34 f7 ff ff 00 	movl   $0x0,-0x8cc(%rbp)
   10e03:	00 00 00 
   10e06:	eb 1e                	jmp    10e26 <func_40+0xe5c>
   10e08:	8b 85 34 f7 ff ff    	mov    -0x8cc(%rbp),%eax
   10e0e:	48 98                	cltq   
   10e10:	48 8d 95 d0 f7 ff ff 	lea    -0x830(%rbp),%rdx
   10e17:	48 89 94 c5 40 f9 ff 	mov    %rdx,-0x6c0(%rbp,%rax,8)
   10e1e:	ff 
   10e1f:	83 85 34 f7 ff ff 01 	addl   $0x1,-0x8cc(%rbp)
   10e26:	83 bd 34 f7 ff ff 06 	cmpl   $0x6,-0x8cc(%rbp)
   10e2d:	7e d9                	jle    10e08 <func_40+0xe3e>
   10e2f:	48 8b 85 a0 f7 ff ff 	mov    -0x860(%rbp),%rax
   10e36:	8b 95 84 f7 ff ff    	mov    -0x87c(%rbp),%edx
   10e3c:	89 10                	mov    %edx,(%rax)
   10e3e:	e9 4a 07 00 00       	jmpq   1158d <func_40+0x15c3>
   10e43:	48 c7 85 40 f8 ff ff 	movq   $0xffffffffffffffff,-0x7c0(%rbp)
   10e4a:	ff ff ff ff 
   10e4e:	48 8d 05 4b 62 00 00 	lea    0x624b(%rip),%rax        # 170a0 <g_449>
   10e55:	48 89 85 48 f8 ff ff 	mov    %rax,-0x7b8(%rbp)
   10e5c:	48 8d 05 cd 61 00 00 	lea    0x61cd(%rip),%rax        # 17030 <g_64>
   10e63:	48 89 85 50 f8 ff ff 	mov    %rax,-0x7b0(%rbp)
   10e6a:	c6 85 18 f7 ff ff 00 	movb   $0x0,-0x8e8(%rbp)
   10e71:	48 8d 05 f0 82 00 00 	lea    0x82f0(%rip),%rax        # 19168 <g_452>
   10e78:	48 89 85 58 f8 ff ff 	mov    %rax,-0x7a8(%rbp)
   10e7f:	48 8d 85 28 f7 ff ff 	lea    -0x8d8(%rbp),%rax
   10e86:	48 89 85 60 f8 ff ff 	mov    %rax,-0x7a0(%rbp)
   10e8d:	c7 85 64 f7 ff ff 02 	movl   $0x2,-0x89c(%rbp)
   10e94:	00 00 00 
   10e97:	c7 85 68 f7 ff ff ff 	movl   $0xffffffff,-0x898(%rbp)
   10e9e:	ff ff ff 
   10ea1:	c7 85 6c f7 ff ff fd 	movl   $0xfffffffd,-0x894(%rbp)
   10ea8:	ff ff ff 
   10eab:	c7 85 70 f7 ff ff 2b 	movl   $0x3069a12b,-0x890(%rbp)
   10eb2:	a1 69 30 
   10eb5:	c7 85 40 f9 ff ff 59 	movl   $0xec444e59,-0x6c0(%rbp)
   10ebc:	4e 44 ec 
   10ebf:	c7 85 44 f9 ff ff 7e 	movl   $0x98ba1e7e,-0x6bc(%rbp)
   10ec6:	1e ba 98 
   10ec9:	c7 85 48 f9 ff ff 7e 	movl   $0x98ba1e7e,-0x6b8(%rbp)
   10ed0:	1e ba 98 
   10ed3:	c7 85 4c f9 ff ff 59 	movl   $0xec444e59,-0x6b4(%rbp)
   10eda:	4e 44 ec 
   10edd:	c7 85 50 f9 ff ff 7e 	movl   $0x98ba1e7e,-0x6b0(%rbp)
   10ee4:	1e ba 98 
   10ee7:	c7 85 54 f9 ff ff 7e 	movl   $0x98ba1e7e,-0x6ac(%rbp)
   10eee:	1e ba 98 
   10ef1:	c7 85 58 f9 ff ff 59 	movl   $0xec444e59,-0x6a8(%rbp)
   10ef8:	4e 44 ec 
   10efb:	c7 85 5c f9 ff ff 7e 	movl   $0x98ba1e7e,-0x6a4(%rbp)
   10f02:	1e ba 98 
   10f05:	c7 85 60 f9 ff ff 7e 	movl   $0x98ba1e7e,-0x6a0(%rbp)
   10f0c:	1e ba 98 
   10f0f:	c7 85 74 f7 ff ff 59 	movl   $0x97aad959,-0x88c(%rbp)
   10f16:	d9 aa 97 
   10f19:	48 b8 97 f6 cd b2 e5 	movabs $0x8cb21de5b2cdf697,%rax
   10f20:	1d b2 8c 
   10f23:	48 89 85 68 f8 ff ff 	mov    %rax,-0x798(%rbp)
   10f2a:	0f b7 05 61 61 00 00 	movzwl 0x6161(%rip),%eax        # 17092 <g_327>
   10f31:	0f b6 c0             	movzbl %al,%eax
   10f34:	89 c7                	mov    %eax,%edi
   10f36:	e8 0a 4c ff ff       	callq  5b45 <safe_unary_minus_func_uint8_t_u>
   10f3b:	89 c2                	mov    %eax,%edx
   10f3d:	48 8b 05 ac 6c 00 00 	mov    0x6cac(%rip),%rax        # 17bf0 <g_183>
   10f44:	48 8b 00             	mov    (%rax),%rax
   10f47:	0f b6 d2             	movzbl %dl,%edx
   10f4a:	89 10                	mov    %edx,(%rax)
   10f4c:	8b 00                	mov    (%rax),%eax
   10f4e:	48 98                	cltq   
   10f50:	48 89 85 40 f8 ff ff 	mov    %rax,-0x7c0(%rbp)
   10f57:	48 8b 05 f2 60 00 00 	mov    0x60f2(%rip),%rax        # 17050 <g_175>
   10f5e:	0f be c0             	movsbl %al,%eax
   10f61:	89 c7                	mov    %eax,%edi
   10f63:	e8 57 42 ff ff       	callq  51bf <safe_unary_minus_func_int8_t_s>
   10f68:	48 8b 85 50 f8 ff ff 	mov    -0x7b0(%rbp),%rax
   10f6f:	48 8b 00             	mov    (%rax),%rax
   10f72:	48 0d ff fd 7c 7d    	or     $0x7d7cfdff,%rax
   10f78:	48 89 c2             	mov    %rax,%rdx
   10f7b:	48 8b 85 50 f8 ff ff 	mov    -0x7b0(%rbp),%rax
   10f82:	48 89 10             	mov    %rdx,(%rax)
   10f85:	48 8b 8d f8 f6 ff ff 	mov    -0x908(%rbp),%rcx
   10f8c:	48 8b 85 a0 f7 ff ff 	mov    -0x860(%rbp),%rax
   10f93:	8b 10                	mov    (%rax),%edx
   10f95:	48 8b 85 a0 f7 ff ff 	mov    -0x860(%rbp),%rax
   10f9c:	09 ca                	or     %ecx,%edx
   10f9e:	89 10                	mov    %edx,(%rax)
   10fa0:	0f b6 05 f3 60 00 00 	movzbl 0x60f3(%rip),%eax        # 1709a <g_361>
   10fa7:	0f b6 d8             	movzbl %al,%ebx
   10faa:	48 8b 05 67 6c 00 00 	mov    0x6c67(%rip),%rax        # 17c18 <g_180>
   10fb1:	48 8b 00             	mov    (%rax),%rax
   10fb4:	48 8b 00             	mov    (%rax),%rax
   10fb7:	48 8b 00             	mov    (%rax),%rax
   10fba:	48 8b 00             	mov    (%rax),%rax
   10fbd:	8b 00                	mov    (%rax),%eax
   10fbf:	85 c0                	test   %eax,%eax
   10fc1:	75 33                	jne    10ff6 <func_40+0x102c>
   10fc3:	48 8b 05 1e 6c 00 00 	mov    0x6c1e(%rip),%rax        # 17be8 <g_184>
   10fca:	c7 00 00 00 00 00    	movl   $0x0,(%rax)
   10fd0:	80 bd 04 f7 ff ff 00 	cmpb   $0x0,-0x8fc(%rbp)
   10fd7:	0f 95 c0             	setne  %al
   10fda:	0f b6 c0             	movzbl %al,%eax
   10fdd:	48 23 85 40 f8 ff ff 	and    -0x7c0(%rbp),%rax
   10fe4:	48 89 c6             	mov    %rax,%rsi
   10fe7:	bf 01 00 00 00       	mov    $0x1,%edi
   10fec:	e8 3d 50 ff ff       	callq  602e <safe_add_func_uint64_t_u_u>
   10ff1:	48 85 c0             	test   %rax,%rax
   10ff4:	74 07                	je     10ffd <func_40+0x1033>
   10ff6:	b8 01 00 00 00       	mov    $0x1,%eax
   10ffb:	eb 05                	jmp    11002 <func_40+0x1038>
   10ffd:	b8 00 00 00 00       	mov    $0x0,%eax
   11002:	89 c2                	mov    %eax,%edx
   11004:	48 8b 85 40 f8 ff ff 	mov    -0x7c0(%rbp),%rax
   1100b:	89 d6                	mov    %edx,%esi
   1100d:	89 c7                	mov    %eax,%edi
   1100f:	e8 bc 4e ff ff       	callq  5ed0 <safe_sub_func_uint32_t_u_u>
   11014:	0f b6 95 18 f7 ff ff 	movzbl -0x8e8(%rbp),%edx
   1101b:	39 d0                	cmp    %edx,%eax
   1101d:	72 07                	jb     11026 <func_40+0x105c>
   1101f:	b8 01 00 00 00       	mov    $0x1,%eax
   11024:	eb 05                	jmp    1102b <func_40+0x1061>
   11026:	b8 00 00 00 00       	mov    $0x0,%eax
   1102b:	21 d8                	and    %ebx,%eax
   1102d:	89 c2                	mov    %eax,%edx
   1102f:	0f be 85 04 f7 ff ff 	movsbl -0x8fc(%rbp),%eax
   11036:	39 c2                	cmp    %eax,%edx
   11038:	0f 94 c0             	sete   %al
   1103b:	0f b6 c0             	movzbl %al,%eax
   1103e:	48 8b 95 f8 f6 ff ff 	mov    -0x908(%rbp),%rdx
   11045:	21 c2                	and    %eax,%edx
   11047:	48 8b 85 58 f8 ff ff 	mov    -0x7a8(%rbp),%rax
   1104e:	66 89 10             	mov    %dx,(%rax)
   11051:	80 bd 04 f7 ff ff 00 	cmpb   $0x0,-0x8fc(%rbp)
   11058:	0f 9e c0             	setle  %al
   1105b:	0f b6 c0             	movzbl %al,%eax
   1105e:	be 0e 00 00 00       	mov    $0xe,%esi
   11063:	89 c7                	mov    %eax,%edi
   11065:	e8 77 44 ff ff       	callq  54e1 <safe_lshift_func_int16_t_s_u>
   1106a:	66 85 c0             	test   %ax,%ax
   1106d:	0f 84 64 04 00 00    	je     114d7 <func_40+0x150d>
   11073:	48 8d 85 20 fa ff ff 	lea    -0x5e0(%rbp),%rax
   1107a:	48 05 74 01 00 00    	add    $0x174,%rax
   11080:	48 89 85 d0 f9 ff ff 	mov    %rax,-0x630(%rbp)
   11087:	48 8d 85 24 f7 ff ff 	lea    -0x8dc(%rbp),%rax
   1108e:	48 89 85 d8 f9 ff ff 	mov    %rax,-0x628(%rbp)
   11095:	48 8d 85 24 f7 ff ff 	lea    -0x8dc(%rbp),%rax
   1109c:	48 89 85 e0 f9 ff ff 	mov    %rax,-0x620(%rbp)
   110a3:	48 8d 85 20 fa ff ff 	lea    -0x5e0(%rbp),%rax
   110aa:	48 05 74 01 00 00    	add    $0x174,%rax
   110b0:	48 89 85 e8 f9 ff ff 	mov    %rax,-0x618(%rbp)
   110b7:	48 c7 85 f0 f9 ff ff 	movq   $0x0,-0x610(%rbp)
   110be:	00 00 00 00 
   110c2:	48 8d 85 20 fa ff ff 	lea    -0x5e0(%rbp),%rax
   110c9:	48 05 74 01 00 00    	add    $0x174,%rax
   110cf:	48 89 85 f8 f9 ff ff 	mov    %rax,-0x608(%rbp)
   110d6:	48 8d 85 24 f7 ff ff 	lea    -0x8dc(%rbp),%rax
   110dd:	48 89 85 00 fa ff ff 	mov    %rax,-0x600(%rbp)
   110e4:	48 8d 85 24 f7 ff ff 	lea    -0x8dc(%rbp),%rax
   110eb:	48 89 85 08 fa ff ff 	mov    %rax,-0x5f8(%rbp)
   110f2:	48 8d 85 20 fa ff ff 	lea    -0x5e0(%rbp),%rax
   110f9:	48 05 74 01 00 00    	add    $0x174,%rax
   110ff:	48 89 85 10 fa ff ff 	mov    %rax,-0x5f0(%rbp)
   11106:	48 c7 85 18 fa ff ff 	movq   $0x0,-0x5e8(%rbp)
   1110d:	00 00 00 00 
   11111:	48 8d 85 a0 f7 ff ff 	lea    -0x860(%rbp),%rax
   11118:	48 89 85 a0 fb ff ff 	mov    %rax,-0x460(%rbp)
   1111f:	48 8d 85 d0 f9 ff ff 	lea    -0x630(%rbp),%rax
   11126:	48 83 c0 30          	add    $0x30,%rax
   1112a:	48 89 85 a8 fb ff ff 	mov    %rax,-0x458(%rbp)
   11131:	48 8d 85 d0 f9 ff ff 	lea    -0x630(%rbp),%rax
   11138:	48 83 c0 30          	add    $0x30,%rax
   1113c:	48 89 85 b0 fb ff ff 	mov    %rax,-0x450(%rbp)
   11143:	48 8d 85 a0 f7 ff ff 	lea    -0x860(%rbp),%rax
   1114a:	48 89 85 b8 fb ff ff 	mov    %rax,-0x448(%rbp)
   11151:	48 8d 85 d0 f9 ff ff 	lea    -0x630(%rbp),%rax
   11158:	48 83 c0 20          	add    $0x20,%rax
   1115c:	48 89 85 c0 fb ff ff 	mov    %rax,-0x440(%rbp)
   11163:	48 8d 85 d0 f9 ff ff 	lea    -0x630(%rbp),%rax
   1116a:	48 83 c0 30          	add    $0x30,%rax
   1116e:	48 89 85 c8 fb ff ff 	mov    %rax,-0x438(%rbp)
   11175:	48 c7 85 d0 fb ff ff 	movq   $0x0,-0x430(%rbp)
   1117c:	00 00 00 00 
   11180:	48 8d 85 d0 f9 ff ff 	lea    -0x630(%rbp),%rax
   11187:	48 83 c0 30          	add    $0x30,%rax
   1118b:	48 89 85 d8 fb ff ff 	mov    %rax,-0x428(%rbp)
   11192:	48 8d 85 d0 f9 ff ff 	lea    -0x630(%rbp),%rax
   11199:	48 83 c0 30          	add    $0x30,%rax
   1119d:	48 89 85 e0 fb ff ff 	mov    %rax,-0x420(%rbp)
   111a4:	48 8d 85 a0 f7 ff ff 	lea    -0x860(%rbp),%rax
   111ab:	48 89 85 e8 fb ff ff 	mov    %rax,-0x418(%rbp)
   111b2:	48 c7 85 f0 fb ff ff 	movq   $0x0,-0x410(%rbp)
   111b9:	00 00 00 00 
   111bd:	48 c7 85 f8 fb ff ff 	movq   $0x0,-0x408(%rbp)
   111c4:	00 00 00 00 
   111c8:	48 8d 85 d0 f9 ff ff 	lea    -0x630(%rbp),%rax
   111cf:	48 83 c0 20          	add    $0x20,%rax
   111d3:	48 89 85 00 fc ff ff 	mov    %rax,-0x400(%rbp)
   111da:	48 8d 85 d0 f9 ff ff 	lea    -0x630(%rbp),%rax
   111e1:	48 83 c0 20          	add    $0x20,%rax
   111e5:	48 89 85 08 fc ff ff 	mov    %rax,-0x3f8(%rbp)
   111ec:	48 8d 85 d0 f9 ff ff 	lea    -0x630(%rbp),%rax
   111f3:	48 83 c0 30          	add    $0x30,%rax
   111f7:	48 89 85 10 fc ff ff 	mov    %rax,-0x3f0(%rbp)
   111fe:	48 c7 85 18 fc ff ff 	movq   $0x0,-0x3e8(%rbp)
   11205:	00 00 00 00 
   11209:	48 8d 85 a0 f7 ff ff 	lea    -0x860(%rbp),%rax
   11210:	48 89 85 20 fc ff ff 	mov    %rax,-0x3e0(%rbp)
   11217:	48 8d 85 a0 f7 ff ff 	lea    -0x860(%rbp),%rax
   1121e:	48 89 85 28 fc ff ff 	mov    %rax,-0x3d8(%rbp)
   11225:	48 8d 85 a0 f7 ff ff 	lea    -0x860(%rbp),%rax
   1122c:	48 89 85 30 fc ff ff 	mov    %rax,-0x3d0(%rbp)
   11233:	48 8d 85 d0 f9 ff ff 	lea    -0x630(%rbp),%rax
   1123a:	48 83 c0 30          	add    $0x30,%rax
   1123e:	48 89 85 38 fc ff ff 	mov    %rax,-0x3c8(%rbp)
   11245:	48 8d 85 a0 f7 ff ff 	lea    -0x860(%rbp),%rax
   1124c:	48 89 85 40 fc ff ff 	mov    %rax,-0x3c0(%rbp)
   11253:	48 8d 85 d0 f9 ff ff 	lea    -0x630(%rbp),%rax
   1125a:	48 83 c0 30          	add    $0x30,%rax
   1125e:	48 89 85 48 fc ff ff 	mov    %rax,-0x3b8(%rbp)
   11265:	48 8d 85 d0 f9 ff ff 	lea    -0x630(%rbp),%rax
   1126c:	48 83 c0 30          	add    $0x30,%rax
   11270:	48 89 85 50 fc ff ff 	mov    %rax,-0x3b0(%rbp)
   11277:	48 8d 85 a0 f7 ff ff 	lea    -0x860(%rbp),%rax
   1127e:	48 89 85 58 fc ff ff 	mov    %rax,-0x3a8(%rbp)
   11285:	48 8d 85 d0 f9 ff ff 	lea    -0x630(%rbp),%rax
   1128c:	48 83 c0 20          	add    $0x20,%rax
   11290:	48 89 85 60 fc ff ff 	mov    %rax,-0x3a0(%rbp)
   11297:	48 8d 85 d0 f9 ff ff 	lea    -0x630(%rbp),%rax
   1129e:	48 83 c0 30          	add    $0x30,%rax
   112a2:	48 89 85 68 fc ff ff 	mov    %rax,-0x398(%rbp)
   112a9:	48 c7 85 70 fc ff ff 	movq   $0x0,-0x390(%rbp)
   112b0:	00 00 00 00 
   112b4:	48 8d 85 a0 f7 ff ff 	lea    -0x860(%rbp),%rax
   112bb:	48 89 85 78 fc ff ff 	mov    %rax,-0x388(%rbp)
   112c2:	48 8d 85 a0 f7 ff ff 	lea    -0x860(%rbp),%rax
   112c9:	48 89 85 80 fc ff ff 	mov    %rax,-0x380(%rbp)
   112d0:	48 8d 85 d0 f9 ff ff 	lea    -0x630(%rbp),%rax
   112d7:	48 83 c0 20          	add    $0x20,%rax
   112db:	48 89 85 88 fc ff ff 	mov    %rax,-0x378(%rbp)
   112e2:	48 8d 85 a0 f7 ff ff 	lea    -0x860(%rbp),%rax
   112e9:	48 89 85 90 fc ff ff 	mov    %rax,-0x370(%rbp)
   112f0:	48 8d 85 a0 f7 ff ff 	lea    -0x860(%rbp),%rax
   112f7:	48 89 85 98 fc ff ff 	mov    %rax,-0x368(%rbp)
   112fe:	48 c7 85 e8 f7 ff ff 	movq   $0x0,-0x818(%rbp)
   11305:	00 00 00 00 
   11309:	48 8d 85 e8 f7 ff ff 	lea    -0x818(%rbp),%rax
   11310:	48 89 85 78 f8 ff ff 	mov    %rax,-0x788(%rbp)
   11317:	48 8b 05 d2 68 00 00 	mov    0x68d2(%rip),%rax        # 17bf0 <g_183>
   1131e:	48 8b 95 f0 f9 ff ff 	mov    -0x610(%rbp),%rdx
   11325:	48 89 10             	mov    %rdx,(%rax)
   11328:	48 8b 00             	mov    (%rax),%rax
   1132b:	48 89 85 60 f8 ff ff 	mov    %rax,-0x7a0(%rbp)
   11332:	c7 85 20 f7 ff ff 00 	movl   $0x0,-0x8e0(%rbp)
   11339:	00 00 00 
   1133c:	e9 82 01 00 00       	jmpq   114c3 <func_40+0x14f9>
   11341:	c6 85 19 f7 ff ff 06 	movb   $0x6,-0x8e7(%rbp)
   11348:	48 8d 05 51 6d 00 00 	lea    0x6d51(%rip),%rax        # 180a0 <g_488>
   1134f:	48 89 85 80 f8 ff ff 	mov    %rax,-0x780(%rbp)
   11356:	48 8d 05 df 5d 00 00 	lea    0x5ddf(%rip),%rax        # 1713c <g_653>
   1135d:	48 89 85 88 f8 ff ff 	mov    %rax,-0x778(%rbp)
   11364:	c7 85 7c f7 ff ff ff 	movl   $0xffffffff,-0x884(%rbp)
   1136b:	ff ff ff 
   1136e:	c7 85 80 f7 ff ff 00 	movl   $0x0,-0x880(%rbp)
   11375:	00 00 00 
   11378:	c7 85 80 f9 ff ff 00 	movl   $0x4155fd00,-0x680(%rbp)
   1137f:	fd 55 41 
   11382:	66 c7 85 84 f9 ff ff 	movw   $0xf800,-0x67c(%rbp)
   11389:	00 f8 
   1138b:	c6 85 86 f9 ff ff ff 	movb   $0xff,-0x67a(%rbp)
   11392:	c7 85 87 f9 ff ff e9 	movl   $0xfcfb55e9,-0x679(%rbp)
   11399:	55 fb fc 
   1139c:	66 c7 85 8b f9 ff ff 	movw   $0xfdfd,-0x675(%rbp)
   113a3:	fd fd 
   113a5:	c6 85 8d f9 ff ff fc 	movb   $0xfc,-0x673(%rbp)
   113ac:	c7 85 8e f9 ff ff 00 	movl   $0xfc005000,-0x672(%rbp)
   113b3:	50 00 fc 
   113b6:	66 c7 85 92 f9 ff ff 	movw   $0x6756,-0x66e(%rbp)
   113bd:	56 67 
   113bf:	c6 85 94 f9 ff ff 50 	movb   $0x50,-0x66c(%rbp)
   113c6:	c7 85 95 f9 ff ff fc 	movl   $0x41ffe4fc,-0x66b(%rbp)
   113cd:	e4 ff 41 
   113d0:	66 c7 85 99 f9 ff ff 	movw   $0xfcf6,-0x667(%rbp)
   113d7:	f6 fc 
   113d9:	c6 85 9b f9 ff ff 01 	movb   $0x1,-0x665(%rbp)
   113e0:	c7 85 9c f9 ff ff 45 	movl   $0x560045,-0x664(%rbp)
   113e7:	00 56 00 
   113ea:	66 c7 85 a0 f9 ff ff 	movw   $0x6701,-0x660(%rbp)
   113f1:	01 67 
   113f3:	c6 85 a2 f9 ff ff 55 	movb   $0x55,-0x65e(%rbp)
   113fa:	c7 85 a3 f9 ff ff ff 	movl   $0xfffdff,-0x65d(%rbp)
   11401:	fd ff 00 
   11404:	66 c7 85 a7 f9 ff ff 	movw   $0xfdff,-0x659(%rbp)
   1140b:	ff fd 
   1140d:	c6 85 a9 f9 ff ff ff 	movb   $0xff,-0x657(%rbp)
   11414:	c7 85 aa f9 ff ff ff 	movl   $0xc256ff,-0x656(%rbp)
   1141b:	56 c2 00 
   1141e:	66 c7 85 ae f9 ff ff 	movw   $0xf8fd,-0x652(%rbp)
   11425:	fd f8 
   11427:	c6 85 b0 f9 ff ff ff 	movb   $0xff,-0x650(%rbp)
   1142e:	c7 85 b1 f9 ff ff 45 	movl   $0x5500f645,-0x64f(%rbp)
   11435:	f6 00 55 
   11438:	66 c7 85 b5 f9 ff ff 	movw   $0x8fc,-0x64b(%rbp)
   1143f:	fc 08 
   11441:	c6 85 b7 f9 ff ff f6 	movb   $0xf6,-0x649(%rbp)
   11448:	c7 85 b8 f9 ff ff fc 	movl   $0xfbc201fc,-0x648(%rbp)
   1144f:	01 c2 fb 
   11452:	66 c7 85 bc f9 ff ff 	movw   $0xfc6c,-0x644(%rbp)
   11459:	6c fc 
   1145b:	c6 85 be f9 ff ff 6c 	movb   $0x6c,-0x642(%rbp)
   11462:	c7 85 bf f9 ff ff 00 	movl   $0xffff00,-0x641(%rbp)
   11469:	ff ff 00 
   1146c:	66 c7 85 c3 f9 ff ff 	movw   $0xef6c,-0x63d(%rbp)
   11473:	6c ef 
   11475:	c6 85 c5 f9 ff ff 00 	movb   $0x0,-0x63b(%rbp)
   1147c:	66 c7 85 1e f7 ff ff 	movw   $0x1fbe,-0x8e2(%rbp)
   11483:	be 1f 
   11485:	c7 85 30 f7 ff ff 00 	movl   $0x0,-0x8d0(%rbp)
   1148c:	00 00 00 
   1148f:	eb 1a                	jmp    114ab <func_40+0x14e1>
   11491:	8b 85 30 f7 ff ff    	mov    -0x8d0(%rbp),%eax
   11497:	48 98                	cltq   
   11499:	c7 84 85 f0 f8 ff ff 	movl   $0xdca1655f,-0x710(%rbp,%rax,4)
   114a0:	5f 65 a1 dc 
   114a4:	83 85 30 f7 ff ff 01 	addl   $0x1,-0x8d0(%rbp)
   114ab:	83 bd 30 f7 ff ff 03 	cmpl   $0x3,-0x8d0(%rbp)
   114b2:	7e dd                	jle    11491 <func_40+0x14c7>
   114b4:	8b 85 20 f7 ff ff    	mov    -0x8e0(%rbp),%eax
   114ba:	83 c0 01             	add    $0x1,%eax
   114bd:	89 85 20 f7 ff ff    	mov    %eax,-0x8e0(%rbp)
   114c3:	8b 85 20 f7 ff ff    	mov    -0x8e0(%rbp),%eax
   114c9:	83 f8 01             	cmp    $0x1,%eax
   114cc:	0f 86 6f fe ff ff    	jbe    11341 <func_40+0x1377>
   114d2:	e9 b6 00 00 00       	jmpq   1158d <func_40+0x15c3>
   114d7:	48 8d 85 c8 f7 ff ff 	lea    -0x838(%rbp),%rax
   114de:	48 89 85 70 f8 ff ff 	mov    %rax,-0x790(%rbp)
   114e5:	c7 85 78 f7 ff ff 9d 	movl   $0xd22c9b9d,-0x888(%rbp)
   114ec:	9b 2c d2 
   114ef:	0f b6 85 04 f7 ff ff 	movzbl -0x8fc(%rbp),%eax
   114f6:	0f b6 d8             	movzbl %al,%ebx
   114f9:	48 8b 85 08 f7 ff ff 	mov    -0x8f8(%rbp),%rax
   11500:	98                   	cwtl   
   11501:	be 00 00 00 00       	mov    $0x0,%esi
   11506:	89 c7                	mov    %eax,%edi
   11508:	e8 e8 3e ff ff       	callq  53f5 <safe_mul_func_int16_t_s_s>
   1150d:	48 8b 05 c4 5b 00 00 	mov    0x5bc4(%rip),%rax        # 170d8 <g_459+0x8>
   11514:	44 0f b7 e0          	movzwl %ax,%r12d
   11518:	8b 05 1a 5c 00 00    	mov    0x5c1a(%rip),%eax        # 17138 <g_648>
   1151e:	0f bf d0             	movswl %ax,%edx
   11521:	48 8d 85 c8 f7 ff ff 	lea    -0x838(%rbp),%rax
   11528:	48 39 85 70 f8 ff ff 	cmp    %rax,-0x790(%rbp)
   1152f:	0f 95 c0             	setne  %al
   11532:	0f b6 c0             	movzbl %al,%eax
   11535:	89 d6                	mov    %edx,%esi
   11537:	89 c7                	mov    %eax,%edi
   11539:	e8 b7 3e ff ff       	callq  53f5 <safe_mul_func_int16_t_s_s>
   1153e:	8b 95 78 f7 ff ff    	mov    -0x888(%rbp),%edx
   11544:	21 c2                	and    %eax,%edx
   11546:	0f b7 05 db 5b 00 00 	movzwl 0x5bdb(%rip),%eax        # 17128 <g_628+0x28>
   1154d:	21 d0                	and    %edx,%eax
   1154f:	0f b7 c0             	movzwl %ax,%eax
   11552:	44 89 e6             	mov    %r12d,%esi
   11555:	89 c7                	mov    %eax,%edi
   11557:	e8 e1 47 ff ff       	callq  5d3d <safe_mul_func_uint16_t_u_u>
   1155c:	66 83 f8 01          	cmp    $0x1,%ax
   11560:	0f 95 c0             	setne  %al
   11563:	0f b6 c0             	movzbl %al,%eax
   11566:	89 de                	mov    %ebx,%esi
   11568:	89 c7                	mov    %eax,%edi
   1156a:	e8 eb 45 ff ff       	callq  5b5a <safe_add_func_uint8_t_u_u>
   1156f:	0f b6 c8             	movzbl %al,%ecx
   11572:	0f be 95 04 f7 ff ff 	movsbl -0x8fc(%rbp),%edx
   11579:	48 8b 05 68 66 00 00 	mov    0x6668(%rip),%rax        # 17be8 <g_184>
   11580:	09 ca                	or     %ecx,%edx
   11582:	89 10                	mov    %edx,(%rax)
   11584:	48 8b 85 08 f7 ff ff 	mov    -0x8f8(%rbp),%rax
   1158b:	eb 4c                	jmp    115d9 <func_40+0x160f>
   1158d:	48 8b 85 f0 f7 ff ff 	mov    -0x810(%rbp),%rax
   11594:	8b 10                	mov    (%rax),%edx
   11596:	0f b6 05 8d 5a 00 00 	movzbl 0x5a8d(%rip),%eax        # 1702a <g_61>
   1159d:	0f b6 c0             	movzbl %al,%eax
   115a0:	31 c2                	xor    %eax,%edx
   115a2:	48 8b 85 f0 f7 ff ff 	mov    -0x810(%rbp),%rax
   115a9:	89 10                	mov    %edx,(%rax)
   115ab:	48 8b 85 a0 f7 ff ff 	mov    -0x860(%rbp),%rax
   115b2:	c7 00 00 00 00 00    	movl   $0x0,(%rax)
   115b8:	48 8b 15 31 66 00 00 	mov    0x6631(%rip),%rdx        # 17bf0 <g_183>
   115bf:	48 8b 05 4a 66 00 00 	mov    0x664a(%rip),%rax        # 17c10 <g_181>
   115c6:	48 8b 00             	mov    (%rax),%rax
   115c9:	48 8b 00             	mov    (%rax),%rax
   115cc:	48 8b 12             	mov    (%rdx),%rdx
   115cf:	48 89 10             	mov    %rdx,(%rax)
   115d2:	0f b7 85 d8 f8 ff ff 	movzwl -0x728(%rbp),%eax
   115d9:	48 8b 5d d8          	mov    -0x28(%rbp),%rbx
   115dd:	64 48 33 1c 25 28 00 	xor    %fs:0x28,%rbx
   115e4:	00 00 
   115e6:	74 05                	je     115ed <func_40+0x1623>
   115e8:	e8 83 3a ff ff       	callq  5070 <__stack_chk_fail@plt>
   115ed:	48 81 c4 f0 08 00 00 	add    $0x8f0,%rsp
   115f4:	5b                   	pop    %rbx
   115f5:	41 5c                	pop    %r12
   115f7:	41 5d                	pop    %r13
   115f9:	41 5e                	pop    %r14
   115fb:	5d                   	pop    %rbp
   115fc:	c3                   	retq   

00000000000115fd <func_44>:
   115fd:	f3 0f 1e fa          	endbr64 
   11601:	55                   	push   %rbp
   11602:	48 89 e5             	mov    %rsp,%rbp
   11605:	41 56                	push   %r14
   11607:	41 55                	push   %r13
   11609:	41 54                	push   %r12
   1160b:	53                   	push   %rbx
   1160c:	48 81 ec c0 01 00 00 	sub    $0x1c0,%rsp
   11613:	89 bd 2c fe ff ff    	mov    %edi,-0x1d4(%rbp)
   11619:	64 48 8b 04 25 28 00 	mov    %fs:0x28,%rax
   11620:	00 00 
   11622:	48 89 45 d8          	mov    %rax,-0x28(%rbp)
   11626:	31 c0                	xor    %eax,%eax
   11628:	48 c7 85 48 fe ff ff 	movq   $0xffffffffffffffff,-0x1b8(%rbp)
   1162f:	ff ff ff ff 
   11633:	c7 85 3c fe ff ff f8 	movl   $0xfffffff8,-0x1c4(%rbp)
   1163a:	ff ff ff 
   1163d:	48 c7 05 e8 59 00 00 	movq   $0xffffffffffffffe2,0x59e8(%rip)        # 17030 <g_64>
   11644:	e2 ff ff ff 
   11648:	e9 b2 01 00 00       	jmpq   117ff <func_44+0x202>
   1164d:	48 8d 05 d6 59 00 00 	lea    0x59d6(%rip),%rax        # 1702a <g_61>
   11654:	48 89 85 50 fe ff ff 	mov    %rax,-0x1b0(%rbp)
   1165b:	48 8d 85 90 fe ff ff 	lea    -0x170(%rbp),%rax
   11662:	48 8d 15 17 22 00 00 	lea    0x2217(%rip),%rdx        # 13880 <g_2076+0x820>
   11669:	b9 28 00 00 00       	mov    $0x28,%ecx
   1166e:	48 89 c7             	mov    %rax,%rdi
   11671:	48 89 d6             	mov    %rdx,%rsi
   11674:	f3 48 a5             	rep movsq %ds:(%rsi),%es:(%rdi)
   11677:	48 c7 85 40 fe ff ff 	movq   $0x0,-0x1c0(%rbp)
   1167e:	00 00 00 00 
   11682:	48 8d 85 40 fe ff ff 	lea    -0x1c0(%rbp),%rax
   11689:	48 89 85 60 fe ff ff 	mov    %rax,-0x1a0(%rbp)
   11690:	48 8d 85 40 fe ff ff 	lea    -0x1c0(%rbp),%rax
   11697:	48 89 85 68 fe ff ff 	mov    %rax,-0x198(%rbp)
   1169e:	48 8d 85 40 fe ff ff 	lea    -0x1c0(%rbp),%rax
   116a5:	48 89 85 70 fe ff ff 	mov    %rax,-0x190(%rbp)
   116ac:	48 8d 85 40 fe ff ff 	lea    -0x1c0(%rbp),%rax
   116b3:	48 89 85 78 fe ff ff 	mov    %rax,-0x188(%rbp)
   116ba:	48 8d 85 40 fe ff ff 	lea    -0x1c0(%rbp),%rax
   116c1:	48 89 85 80 fe ff ff 	mov    %rax,-0x180(%rbp)
   116c8:	48 8d 05 6d 59 00 00 	lea    0x596d(%rip),%rax        # 1703c <g_95>
   116cf:	48 89 85 58 fe ff ff 	mov    %rax,-0x1a8(%rbp)
   116d6:	8b 85 2c fe ff ff    	mov    -0x1d4(%rbp),%eax
   116dc:	0f b7 d8             	movzwl %ax,%ebx
   116df:	0f b6 05 44 59 00 00 	movzbl 0x5944(%rip),%eax        # 1702a <g_61>
   116e6:	44 0f b6 e0          	movzbl %al,%r12d
   116ea:	48 8b 05 3f 59 00 00 	mov    0x593f(%rip),%rax        # 17030 <g_64>
   116f1:	44 0f b7 e8          	movzwl %ax,%r13d
   116f5:	8b 05 3d 59 00 00    	mov    0x593d(%rip),%eax        # 17038 <g_70>
   116fb:	41 89 c6             	mov    %eax,%r14d
   116fe:	8b 85 e8 fe ff ff    	mov    -0x118(%rbp),%eax
   11704:	89 c7                	mov    %eax,%edi
   11706:	e8 9b 47 ff ff       	callq  5ea6 <safe_unary_minus_func_uint32_t_u>
   1170b:	83 f8 01             	cmp    $0x1,%eax
   1170e:	74 63                	je     11773 <func_44+0x176>
   11710:	8b 85 e8 fe ff ff    	mov    -0x118(%rbp),%eax
   11716:	48 63 d0             	movslq %eax,%rdx
   11719:	48 8b 0d 00 7a 00 00 	mov    0x7a00(%rip),%rcx        # 19120 <g_90+0x20>
   11720:	48 8b 85 68 fe ff ff 	mov    -0x198(%rbp),%rax
   11727:	48 39 c1             	cmp    %rax,%rcx
   1172a:	0f 95 c0             	setne  %al
   1172d:	0f b6 c0             	movzbl %al,%eax
   11730:	89 85 3c fe ff ff    	mov    %eax,-0x1c4(%rbp)
   11736:	8b 85 3c fe ff ff    	mov    -0x1c4(%rbp),%eax
   1173c:	48 63 c8             	movslq %eax,%rcx
   1173f:	48 8b 05 ea 58 00 00 	mov    0x58ea(%rip),%rax        # 17030 <g_64>
   11746:	48 09 c8             	or     %rcx,%rax
   11749:	48 39 c2             	cmp    %rax,%rdx
   1174c:	0f 9e c0             	setle  %al
   1174f:	0f b6 c0             	movzbl %al,%eax
   11752:	48 23 85 48 fe ff ff 	and    -0x1b8(%rbp),%rax
   11759:	48 89 c2             	mov    %rax,%rdx
   1175c:	8b 85 2c fe ff ff    	mov    -0x1d4(%rbp),%eax
   11762:	48 98                	cltq   
   11764:	48 39 c2             	cmp    %rax,%rdx
   11767:	0f 95 c0             	setne  %al
   1176a:	0f b6 c0             	movzbl %al,%eax
   1176d:	39 85 2c fe ff ff    	cmp    %eax,-0x1d4(%rbp)
   11773:	8b 85 2c fe ff ff    	mov    -0x1d4(%rbp),%eax
   11779:	89 c6                	mov    %eax,%esi
   1177b:	bf 00 00 00 00       	mov    $0x0,%edi
   11780:	e8 80 3e ff ff       	callq  5605 <safe_sub_func_int32_t_s_s>
   11785:	8b 85 2c fe ff ff    	mov    -0x1d4(%rbp),%eax
   1178b:	98                   	cwtl   
   1178c:	44 89 f6             	mov    %r14d,%esi
   1178f:	89 c7                	mov    %eax,%edi
   11791:	e8 4b 3d ff ff       	callq  54e1 <safe_lshift_func_int16_t_s_u>
   11796:	89 c2                	mov    %eax,%edx
   11798:	48 8b 85 58 fe ff ff 	mov    -0x1a8(%rbp),%rax
   1179f:	66 89 10             	mov    %dx,(%rax)
   117a2:	48 8b 85 58 fe ff ff 	mov    -0x1a8(%rbp),%rax
   117a9:	0f b7 00             	movzwl (%rax),%eax
   117ac:	0f b7 c0             	movzwl %ax,%eax
   117af:	44 89 ee             	mov    %r13d,%esi
   117b2:	89 c7                	mov    %eax,%edi
   117b4:	e8 46 45 ff ff       	callq  5cff <safe_add_func_uint16_t_u_u>
   117b9:	44 89 e6             	mov    %r12d,%esi
   117bc:	bf 01 00 00 00       	mov    $0x1,%edi
   117c1:	e8 b2 43 ff ff       	callq  5b78 <safe_sub_func_uint8_t_u_u>
   117c6:	0f b6 c0             	movzbl %al,%eax
   117c9:	89 de                	mov    %ebx,%esi
   117cb:	89 c7                	mov    %eax,%edi
   117cd:	e8 4d 45 ff ff       	callq  5d1f <safe_sub_func_uint16_t_u_u>
   117d2:	48 8b 85 48 fe ff ff 	mov    -0x1b8(%rbp),%rax
   117d9:	89 85 2c fe ff ff    	mov    %eax,-0x1d4(%rbp)
   117df:	48 8b 05 4a 58 00 00 	mov    0x584a(%rip),%rax        # 17030 <g_64>
   117e6:	0f b6 c0             	movzbl %al,%eax
   117e9:	be 03 00 00 00       	mov    $0x3,%esi
   117ee:	89 c7                	mov    %eax,%edi
   117f0:	e8 65 43 ff ff       	callq  5b5a <safe_add_func_uint8_t_u_u>
   117f5:	0f b6 c0             	movzbl %al,%eax
   117f8:	48 89 05 31 58 00 00 	mov    %rax,0x5831(%rip)        # 17030 <g_64>
   117ff:	48 8b 05 2a 58 00 00 	mov    0x582a(%rip),%rax        # 17030 <g_64>
   11806:	48 83 f8 09          	cmp    $0x9,%rax
   1180a:	0f 8e 3d fe ff ff    	jle    1164d <func_44+0x50>
   11810:	0f b6 05 13 58 00 00 	movzbl 0x5813(%rip),%eax        # 1702a <g_61>
   11817:	0f b6 c0             	movzbl %al,%eax
   1181a:	48 8b 5d d8          	mov    -0x28(%rbp),%rbx
   1181e:	64 48 33 1c 25 28 00 	xor    %fs:0x28,%rbx
   11825:	00 00 
   11827:	74 05                	je     1182e <func_44+0x231>
   11829:	e8 42 38 ff ff       	callq  5070 <__stack_chk_fail@plt>
   1182e:	48 81 c4 c0 01 00 00 	add    $0x1c0,%rsp
   11835:	5b                   	pop    %rbx
   11836:	41 5c                	pop    %r12
   11838:	41 5d                	pop    %r13
   1183a:	41 5e                	pop    %r14
   1183c:	5d                   	pop    %rbp
   1183d:	c3                   	retq   

000000000001183e <func_46>:
   1183e:	f3 0f 1e fa          	endbr64 
   11842:	55                   	push   %rbp
   11843:	48 89 e5             	mov    %rsp,%rbp
   11846:	48 81 ec e0 00 00 00 	sub    $0xe0,%rsp
   1184d:	89 bd 3c ff ff ff    	mov    %edi,-0xc4(%rbp)
   11853:	48 89 b5 30 ff ff ff 	mov    %rsi,-0xd0(%rbp)
   1185a:	89 95 38 ff ff ff    	mov    %edx,-0xc8(%rbp)
   11860:	89 8d 2c ff ff ff    	mov    %ecx,-0xd4(%rbp)
   11866:	4c 89 85 20 ff ff ff 	mov    %r8,-0xe0(%rbp)
   1186d:	64 48 8b 04 25 28 00 	mov    %fs:0x28,%rax
   11874:	00 00 
   11876:	48 89 45 f8          	mov    %rax,-0x8(%rbp)
   1187a:	31 c0                	xor    %eax,%eax
   1187c:	48 8d 05 a1 57 00 00 	lea    0x57a1(%rip),%rax        # 17024 <g_2>
   11883:	48 89 85 48 ff ff ff 	mov    %rax,-0xb8(%rbp)
   1188a:	48 c7 85 60 ff ff ff 	movq   $0x0,-0xa0(%rbp)
   11891:	00 00 00 00 
   11895:	48 c7 85 68 ff ff ff 	movq   $0x0,-0x98(%rbp)
   1189c:	00 00 00 00 
   118a0:	48 c7 85 70 ff ff ff 	movq   $0x0,-0x90(%rbp)
   118a7:	00 00 00 00 
   118ab:	48 8d 85 48 ff ff ff 	lea    -0xb8(%rbp),%rax
   118b2:	48 89 85 78 ff ff ff 	mov    %rax,-0x88(%rbp)
   118b9:	48 8d 85 48 ff ff ff 	lea    -0xb8(%rbp),%rax
   118c0:	48 89 45 80          	mov    %rax,-0x80(%rbp)
   118c4:	48 8d 85 48 ff ff ff 	lea    -0xb8(%rbp),%rax
   118cb:	48 89 45 88          	mov    %rax,-0x78(%rbp)
   118cf:	48 c7 45 90 00 00 00 	movq   $0x0,-0x70(%rbp)
   118d6:	00 
   118d7:	48 c7 45 98 00 00 00 	movq   $0x0,-0x68(%rbp)
   118de:	00 
   118df:	48 c7 45 a0 00 00 00 	movq   $0x0,-0x60(%rbp)
   118e6:	00 
   118e7:	48 8d 85 48 ff ff ff 	lea    -0xb8(%rbp),%rax
   118ee:	48 89 45 a8          	mov    %rax,-0x58(%rbp)
   118f2:	48 8d 85 48 ff ff ff 	lea    -0xb8(%rbp),%rax
   118f9:	48 89 45 b0          	mov    %rax,-0x50(%rbp)
   118fd:	48 8d 85 48 ff ff ff 	lea    -0xb8(%rbp),%rax
   11904:	48 89 45 b8          	mov    %rax,-0x48(%rbp)
   11908:	48 c7 45 c0 00 00 00 	movq   $0x0,-0x40(%rbp)
   1190f:	00 
   11910:	48 c7 45 c8 00 00 00 	movq   $0x0,-0x38(%rbp)
   11917:	00 
   11918:	48 c7 45 d0 00 00 00 	movq   $0x0,-0x30(%rbp)
   1191f:	00 
   11920:	48 8d 85 48 ff ff ff 	lea    -0xb8(%rbp),%rax
   11927:	48 89 45 d8          	mov    %rax,-0x28(%rbp)
   1192b:	48 8d 85 48 ff ff ff 	lea    -0xb8(%rbp),%rax
   11932:	48 89 45 e0          	mov    %rax,-0x20(%rbp)
   11936:	48 8d 85 48 ff ff ff 	lea    -0xb8(%rbp),%rax
   1193d:	48 89 45 e8          	mov    %rax,-0x18(%rbp)
   11941:	48 8d 85 60 ff ff ff 	lea    -0xa0(%rbp),%rax
   11948:	48 83 c0 28          	add    $0x28,%rax
   1194c:	48 89 85 50 ff ff ff 	mov    %rax,-0xb0(%rbp)
   11953:	48 8b 85 50 ff ff ff 	mov    -0xb0(%rbp),%rax
   1195a:	48 c7 00 00 00 00 00 	movq   $0x0,(%rax)
   11961:	0f b6 05 c2 56 00 00 	movzbl 0x56c2(%rip),%eax        # 1702a <g_61>
   11968:	84 c0                	test   %al,%al
   1196a:	74 09                	je     11975 <func_46+0x137>
   1196c:	48 8b 85 30 ff ff ff 	mov    -0xd0(%rbp),%rax
   11973:	eb 14                	jmp    11989 <func_46+0x14b>
   11975:	48 8d 05 a8 56 00 00 	lea    0x56a8(%rip),%rax        # 17024 <g_2>
   1197c:	48 89 85 58 ff ff ff 	mov    %rax,-0xa8(%rbp)
   11983:	8b 85 38 ff ff ff    	mov    -0xc8(%rbp),%eax
   11989:	48 8b 55 f8          	mov    -0x8(%rbp),%rdx
   1198d:	64 48 33 14 25 28 00 	xor    %fs:0x28,%rdx
   11994:	00 00 
   11996:	74 05                	je     1199d <func_46+0x15f>
   11998:	e8 d3 36 ff ff       	callq  5070 <__stack_chk_fail@plt>
   1199d:	c9                   	leaveq 
   1199e:	c3                   	retq   

000000000001199f <main>:
   1199f:	f3 0f 1e fa          	endbr64 
   119a3:	55                   	push   %rbp
   119a4:	48 89 e5             	mov    %rsp,%rbp
   119a7:	48 83 ec 20          	sub    $0x20,%rsp
   119ab:	89 7d ec             	mov    %edi,-0x14(%rbp)
   119ae:	48 89 75 e0          	mov    %rsi,-0x20(%rbp)
   119b2:	c7 45 fc 00 00 00 00 	movl   $0x0,-0x4(%rbp)
   119b9:	83 7d ec 02          	cmpl   $0x2,-0x14(%rbp)
   119bd:	75 25                	jne    119e4 <main+0x45>
   119bf:	48 8b 45 e0          	mov    -0x20(%rbp),%rax
   119c3:	48 83 c0 08          	add    $0x8,%rax
   119c7:	48 8b 00             	mov    (%rax),%rax
   119ca:	48 8d 35 ef 1f 00 00 	lea    0x1fef(%rip),%rsi        # 139c0 <g_2076+0x960>
   119d1:	48 89 c7             	mov    %rax,%rdi
   119d4:	e8 b7 36 ff ff       	callq  5090 <strcmp@plt>
   119d9:	85 c0                	test   %eax,%eax
   119db:	75 07                	jne    119e4 <main+0x45>
   119dd:	c7 45 fc 01 00 00 00 	movl   $0x1,-0x4(%rbp)
   119e4:	e8 a0 37 ff ff       	callq  5189 <platform_main_begin>
   119e9:	e8 aa 4b ff ff       	callq  6598 <crc32_gentab>
   119ee:	e8 c2 4d ff ff       	callq  67b5 <func_1>
   119f3:	8b 05 2b 56 00 00    	mov    0x562b(%rip),%eax        # 17024 <g_2>
   119f9:	48 98                	cltq   
   119fb:	8b 55 fc             	mov    -0x4(%rbp),%edx
   119fe:	48 8d 35 bd 1f 00 00 	lea    0x1fbd(%rip),%rsi        # 139c2 <g_2076+0x962>
   11a05:	48 89 c7             	mov    %rax,%rdi
   11a08:	e8 e6 4c ff ff       	callq  66f3 <transparent_crc>
   11a0d:	0f b6 05 14 56 00 00 	movzbl 0x5614(%rip),%eax        # 17028 <g_29>
   11a14:	0f b6 c0             	movzbl %al,%eax
   11a17:	8b 55 fc             	mov    -0x4(%rbp),%edx
   11a1a:	48 8d 35 a5 1f 00 00 	lea    0x1fa5(%rip),%rsi        # 139c6 <g_2076+0x966>
   11a21:	48 89 c7             	mov    %rax,%rdi
   11a24:	e8 ca 4c ff ff       	callq  66f3 <transparent_crc>
   11a29:	0f b6 05 f9 55 00 00 	movzbl 0x55f9(%rip),%eax        # 17029 <g_32>
   11a30:	0f b6 c0             	movzbl %al,%eax
   11a33:	8b 55 fc             	mov    -0x4(%rbp),%edx
   11a36:	48 8d 35 8e 1f 00 00 	lea    0x1f8e(%rip),%rsi        # 139cb <g_2076+0x96b>
   11a3d:	48 89 c7             	mov    %rax,%rdi
   11a40:	e8 ae 4c ff ff       	callq  66f3 <transparent_crc>
   11a45:	0f b6 05 de 55 00 00 	movzbl 0x55de(%rip),%eax        # 1702a <g_61>
   11a4c:	0f b6 c0             	movzbl %al,%eax
   11a4f:	8b 55 fc             	mov    -0x4(%rbp),%edx
   11a52:	48 8d 35 77 1f 00 00 	lea    0x1f77(%rip),%rsi        # 139d0 <g_2076+0x970>
   11a59:	48 89 c7             	mov    %rax,%rdi
   11a5c:	e8 92 4c ff ff       	callq  66f3 <transparent_crc>
   11a61:	48 8b 05 c8 55 00 00 	mov    0x55c8(%rip),%rax        # 17030 <g_64>
   11a68:	48 89 c1             	mov    %rax,%rcx
   11a6b:	8b 45 fc             	mov    -0x4(%rbp),%eax
   11a6e:	89 c2                	mov    %eax,%edx
   11a70:	48 8d 35 5e 1f 00 00 	lea    0x1f5e(%rip),%rsi        # 139d5 <g_2076+0x975>
   11a77:	48 89 cf             	mov    %rcx,%rdi
   11a7a:	e8 74 4c ff ff       	callq  66f3 <transparent_crc>
   11a7f:	8b 05 b3 55 00 00    	mov    0x55b3(%rip),%eax        # 17038 <g_70>
   11a85:	48 98                	cltq   
   11a87:	8b 55 fc             	mov    -0x4(%rbp),%edx
   11a8a:	48 8d 35 49 1f 00 00 	lea    0x1f49(%rip),%rsi        # 139da <g_2076+0x97a>
   11a91:	48 89 c7             	mov    %rax,%rdi
   11a94:	e8 5a 4c ff ff       	callq  66f3 <transparent_crc>
   11a99:	0f b7 05 9c 55 00 00 	movzwl 0x559c(%rip),%eax        # 1703c <g_95>
   11aa0:	0f b7 c0             	movzwl %ax,%eax
   11aa3:	8b 55 fc             	mov    -0x4(%rbp),%edx
   11aa6:	48 8d 35 32 1f 00 00 	lea    0x1f32(%rip),%rsi        # 139df <g_2076+0x97f>
   11aad:	48 89 c7             	mov    %rax,%rdi
   11ab0:	e8 3e 4c ff ff       	callq  66f3 <transparent_crc>
   11ab5:	8b 05 8d 76 00 00    	mov    0x768d(%rip),%eax        # 19148 <g_107>
   11abb:	89 c1                	mov    %eax,%ecx
   11abd:	8b 45 fc             	mov    -0x4(%rbp),%eax
   11ac0:	89 c2                	mov    %eax,%edx
   11ac2:	48 8d 35 1b 1f 00 00 	lea    0x1f1b(%rip),%rsi        # 139e4 <g_2076+0x984>
   11ac9:	48 89 cf             	mov    %rcx,%rdi
   11acc:	e8 22 4c ff ff       	callq  66f3 <transparent_crc>
   11ad1:	c7 45 f4 00 00 00 00 	movl   $0x0,-0xc(%rbp)
   11ad8:	eb 46                	jmp    11b20 <main+0x181>
   11ada:	8b 45 f4             	mov    -0xc(%rbp),%eax
   11add:	48 98                	cltq   
   11adf:	48 8d 15 58 55 00 00 	lea    0x5558(%rip),%rdx        # 1703e <g_124>
   11ae6:	0f b6 04 10          	movzbl (%rax,%rdx,1),%eax
   11aea:	48 0f be c0          	movsbq %al,%rax
   11aee:	8b 55 fc             	mov    -0x4(%rbp),%edx
   11af1:	48 8d 35 f2 1e 00 00 	lea    0x1ef2(%rip),%rsi        # 139ea <g_2076+0x98a>
   11af8:	48 89 c7             	mov    %rax,%rdi
   11afb:	e8 f3 4b ff ff       	callq  66f3 <transparent_crc>
   11b00:	83 7d fc 00          	cmpl   $0x0,-0x4(%rbp)
   11b04:	74 16                	je     11b1c <main+0x17d>
   11b06:	8b 45 f4             	mov    -0xc(%rbp),%eax
   11b09:	89 c6                	mov    %eax,%esi
   11b0b:	48 8d 3d e1 1e 00 00 	lea    0x1ee1(%rip),%rdi        # 139f3 <g_2076+0x993>
   11b12:	b8 00 00 00 00       	mov    $0x0,%eax
   11b17:	e8 64 35 ff ff       	callq  5080 <printf@plt>
   11b1c:	83 45 f4 01          	addl   $0x1,-0xc(%rbp)
   11b20:	83 7d f4 02          	cmpl   $0x2,-0xc(%rbp)
   11b24:	7e b4                	jle    11ada <main+0x13b>
   11b26:	8b 05 18 55 00 00    	mov    0x5518(%rip),%eax        # 17044 <g_131>
   11b2c:	89 c1                	mov    %eax,%ecx
   11b2e:	8b 45 fc             	mov    -0x4(%rbp),%eax
   11b31:	89 c2                	mov    %eax,%edx
   11b33:	48 8d 35 c7 1e 00 00 	lea    0x1ec7(%rip),%rsi        # 13a01 <g_2076+0x9a1>
   11b3a:	48 89 cf             	mov    %rcx,%rdi
   11b3d:	e8 b1 4b ff ff       	callq  66f3 <transparent_crc>
   11b42:	0f b7 05 ff 54 00 00 	movzwl 0x54ff(%rip),%eax        # 17048 <g_166>
   11b49:	48 0f bf c0          	movswq %ax,%rax
   11b4d:	8b 55 fc             	mov    -0x4(%rbp),%edx
   11b50:	48 8d 35 b0 1e 00 00 	lea    0x1eb0(%rip),%rsi        # 13a07 <g_2076+0x9a7>
   11b57:	48 89 c7             	mov    %rax,%rdi
   11b5a:	e8 94 4b ff ff       	callq  66f3 <transparent_crc>
   11b5f:	48 8b 05 ea 54 00 00 	mov    0x54ea(%rip),%rax        # 17050 <g_175>
   11b66:	8b 55 fc             	mov    -0x4(%rbp),%edx
   11b69:	48 8d 35 9d 1e 00 00 	lea    0x1e9d(%rip),%rsi        # 13a0d <g_2076+0x9ad>
   11b70:	48 89 c7             	mov    %rax,%rdi
   11b73:	e8 7b 4b ff ff       	callq  66f3 <transparent_crc>
   11b78:	0f b6 05 d9 54 00 00 	movzbl 0x54d9(%rip),%eax        # 17058 <g_186>
   11b7f:	83 e0 0f             	and    $0xf,%eax
   11b82:	0f b6 c0             	movzbl %al,%eax
   11b85:	8b 55 fc             	mov    -0x4(%rbp),%edx
   11b88:	48 8d 35 84 1e 00 00 	lea    0x1e84(%rip),%rsi        # 13a13 <g_2076+0x9b3>
   11b8f:	48 89 c7             	mov    %rax,%rdi
   11b92:	e8 5c 4b ff ff       	callq  66f3 <transparent_crc>
   11b97:	0f b6 05 be 54 00 00 	movzbl 0x54be(%rip),%eax        # 1705c <g_207>
   11b9e:	83 e0 0f             	and    $0xf,%eax
   11ba1:	0f b6 c0             	movzbl %al,%eax
   11ba4:	8b 55 fc             	mov    -0x4(%rbp),%edx
   11ba7:	48 8d 35 6e 1e 00 00 	lea    0x1e6e(%rip),%rsi        # 13a1c <g_2076+0x9bc>
   11bae:	48 89 c7             	mov    %rax,%rdi
   11bb1:	e8 3d 4b ff ff       	callq  66f3 <transparent_crc>
   11bb6:	0f b6 05 a3 54 00 00 	movzbl 0x54a3(%rip),%eax        # 17060 <g_227>
   11bbd:	0f b6 c0             	movzbl %al,%eax
   11bc0:	8b 55 fc             	mov    -0x4(%rbp),%edx
   11bc3:	48 8d 35 5b 1e 00 00 	lea    0x1e5b(%rip),%rsi        # 13a25 <g_2076+0x9c5>
   11bca:	48 89 c7             	mov    %rax,%rdi
   11bcd:	e8 21 4b ff ff       	callq  66f3 <transparent_crc>
   11bd2:	c7 45 f4 00 00 00 00 	movl   $0x0,-0xc(%rbp)
   11bd9:	eb 50                	jmp    11c2b <main+0x28c>
   11bdb:	8b 45 f4             	mov    -0xc(%rbp),%eax
   11bde:	48 98                	cltq   
   11be0:	48 8d 14 85 00 00 00 	lea    0x0(,%rax,4),%rdx
   11be7:	00 
   11be8:	48 8d 05 81 54 00 00 	lea    0x5481(%rip),%rax        # 17070 <g_234>
   11bef:	0f b6 04 02          	movzbl (%rdx,%rax,1),%eax
   11bf3:	83 e0 0f             	and    $0xf,%eax
   11bf6:	0f b6 c0             	movzbl %al,%eax
   11bf9:	8b 55 fc             	mov    -0x4(%rbp),%edx
   11bfc:	48 8d 35 28 1e 00 00 	lea    0x1e28(%rip),%rsi        # 13a2b <g_2076+0x9cb>
   11c03:	48 89 c7             	mov    %rax,%rdi
   11c06:	e8 e8 4a ff ff       	callq  66f3 <transparent_crc>
   11c0b:	83 7d fc 00          	cmpl   $0x0,-0x4(%rbp)
   11c0f:	74 16                	je     11c27 <main+0x288>
   11c11:	8b 45 f4             	mov    -0xc(%rbp),%eax
   11c14:	89 c6                	mov    %eax,%esi
   11c16:	48 8d 3d d6 1d 00 00 	lea    0x1dd6(%rip),%rdi        # 139f3 <g_2076+0x993>
   11c1d:	b8 00 00 00 00       	mov    $0x0,%eax
   11c22:	e8 59 34 ff ff       	callq  5080 <printf@plt>
   11c27:	83 45 f4 01          	addl   $0x1,-0xc(%rbp)
   11c2b:	83 7d f4 05          	cmpl   $0x5,-0xc(%rbp)
   11c2f:	7e aa                	jle    11bdb <main+0x23c>
   11c31:	48 8b 05 50 54 00 00 	mov    0x5450(%rip),%rax        # 17088 <g_262>
   11c38:	8b 55 fc             	mov    -0x4(%rbp),%edx
   11c3b:	48 8d 35 f5 1d 00 00 	lea    0x1df5(%rip),%rsi        # 13a37 <g_2076+0x9d7>
   11c42:	48 89 c7             	mov    %rax,%rdi
   11c45:	e8 a9 4a ff ff       	callq  66f3 <transparent_crc>
   11c4a:	0f b7 05 3f 54 00 00 	movzwl 0x543f(%rip),%eax        # 17090 <g_307>
   11c51:	48 0f bf c0          	movswq %ax,%rax
   11c55:	8b 55 fc             	mov    -0x4(%rbp),%edx
   11c58:	48 8d 35 de 1d 00 00 	lea    0x1dde(%rip),%rsi        # 13a3d <g_2076+0x9dd>
   11c5f:	48 89 c7             	mov    %rax,%rdi
   11c62:	e8 8c 4a ff ff       	callq  66f3 <transparent_crc>
   11c67:	0f b7 05 24 54 00 00 	movzwl 0x5424(%rip),%eax        # 17092 <g_327>
   11c6e:	0f b7 c0             	movzwl %ax,%eax
   11c71:	8b 55 fc             	mov    -0x4(%rbp),%edx
   11c74:	48 8d 35 c8 1d 00 00 	lea    0x1dc8(%rip),%rsi        # 13a43 <g_2076+0x9e3>
   11c7b:	48 89 c7             	mov    %rax,%rdi
   11c7e:	e8 70 4a ff ff       	callq  66f3 <transparent_crc>
   11c83:	8b 05 0b 54 00 00    	mov    0x540b(%rip),%eax        # 17094 <g_329>
   11c89:	48 98                	cltq   
   11c8b:	8b 55 fc             	mov    -0x4(%rbp),%edx
   11c8e:	48 8d 35 b4 1d 00 00 	lea    0x1db4(%rip),%rsi        # 13a49 <g_2076+0x9e9>
   11c95:	48 89 c7             	mov    %rax,%rdi
   11c98:	e8 56 4a ff ff       	callq  66f3 <transparent_crc>
   11c9d:	0f b7 05 f4 53 00 00 	movzwl 0x53f4(%rip),%eax        # 17098 <g_360>
   11ca4:	48 0f bf c0          	movswq %ax,%rax
   11ca8:	8b 55 fc             	mov    -0x4(%rbp),%edx
   11cab:	48 8d 35 9d 1d 00 00 	lea    0x1d9d(%rip),%rsi        # 13a4f <g_2076+0x9ef>
   11cb2:	48 89 c7             	mov    %rax,%rdi
   11cb5:	e8 39 4a ff ff       	callq  66f3 <transparent_crc>
   11cba:	0f b6 05 d9 53 00 00 	movzbl 0x53d9(%rip),%eax        # 1709a <g_361>
   11cc1:	0f b6 c0             	movzbl %al,%eax
   11cc4:	8b 55 fc             	mov    -0x4(%rbp),%edx
   11cc7:	48 8d 35 87 1d 00 00 	lea    0x1d87(%rip),%rsi        # 13a55 <g_2076+0x9f5>
   11cce:	48 89 c7             	mov    %rax,%rdi
   11cd1:	e8 1d 4a ff ff       	callq  66f3 <transparent_crc>
   11cd6:	8b 05 c0 53 00 00    	mov    0x53c0(%rip),%eax        # 1709c <g_385>
   11cdc:	89 c1                	mov    %eax,%ecx
   11cde:	8b 45 fc             	mov    -0x4(%rbp),%eax
   11ce1:	89 c2                	mov    %eax,%edx
   11ce3:	48 8d 35 71 1d 00 00 	lea    0x1d71(%rip),%rsi        # 13a5b <g_2076+0x9fb>
   11cea:	48 89 cf             	mov    %rcx,%rdi
   11ced:	e8 01 4a ff ff       	callq  66f3 <transparent_crc>
   11cf2:	c7 45 f4 00 00 00 00 	movl   $0x0,-0xc(%rbp)
   11cf9:	eb 46                	jmp    11d41 <main+0x3a2>
   11cfb:	8b 45 f4             	mov    -0xc(%rbp),%eax
   11cfe:	48 98                	cltq   
   11d00:	48 8d 15 59 74 00 00 	lea    0x7459(%rip),%rdx        # 19160 <g_424>
   11d07:	0f b6 04 10          	movzbl (%rax,%rdx,1),%eax
   11d0b:	48 0f be c0          	movsbq %al,%rax
   11d0f:	8b 55 fc             	mov    -0x4(%rbp),%edx
   11d12:	48 8d 35 48 1d 00 00 	lea    0x1d48(%rip),%rsi        # 13a61 <g_2076+0xa01>
   11d19:	48 89 c7             	mov    %rax,%rdi
   11d1c:	e8 d2 49 ff ff       	callq  66f3 <transparent_crc>
   11d21:	83 7d fc 00          	cmpl   $0x0,-0x4(%rbp)
   11d25:	74 16                	je     11d3d <main+0x39e>
   11d27:	8b 45 f4             	mov    -0xc(%rbp),%eax
   11d2a:	89 c6                	mov    %eax,%esi
   11d2c:	48 8d 3d c0 1c 00 00 	lea    0x1cc0(%rip),%rdi        # 139f3 <g_2076+0x993>
   11d33:	b8 00 00 00 00       	mov    $0x0,%eax
   11d38:	e8 43 33 ff ff       	callq  5080 <printf@plt>
   11d3d:	83 45 f4 01          	addl   $0x1,-0xc(%rbp)
   11d41:	83 7d f4 01          	cmpl   $0x1,-0xc(%rbp)
   11d45:	7e b4                	jle    11cfb <main+0x35c>
   11d47:	c7 45 f4 00 00 00 00 	movl   $0x0,-0xc(%rbp)
   11d4e:	e9 d1 00 00 00       	jmpq   11e24 <main+0x485>
   11d53:	8b 45 f4             	mov    -0xc(%rbp),%eax
   11d56:	48 98                	cltq   
   11d58:	48 8d 14 c5 00 00 00 	lea    0x0(,%rax,8),%rdx
   11d5f:	00 
   11d60:	48 8d 05 39 53 00 00 	lea    0x5339(%rip),%rax        # 170a0 <g_449>
   11d67:	8b 04 02             	mov    (%rdx,%rax,1),%eax
   11d6a:	89 c1                	mov    %eax,%ecx
   11d6c:	8b 45 fc             	mov    -0x4(%rbp),%eax
   11d6f:	89 c2                	mov    %eax,%edx
   11d71:	48 8d 35 f2 1c 00 00 	lea    0x1cf2(%rip),%rsi        # 13a6a <g_2076+0xa0a>
   11d78:	48 89 cf             	mov    %rcx,%rdi
   11d7b:	e8 73 49 ff ff       	callq  66f3 <transparent_crc>
   11d80:	8b 45 f4             	mov    -0xc(%rbp),%eax
   11d83:	48 98                	cltq   
   11d85:	48 8d 14 c5 00 00 00 	lea    0x0(,%rax,8),%rdx
   11d8c:	00 
   11d8d:	48 8d 05 0c 53 00 00 	lea    0x530c(%rip),%rax        # 170a0 <g_449>
   11d94:	8b 04 02             	mov    (%rdx,%rax,1),%eax
   11d97:	48 98                	cltq   
   11d99:	8b 55 fc             	mov    -0x4(%rbp),%edx
   11d9c:	48 8d 35 d3 1c 00 00 	lea    0x1cd3(%rip),%rsi        # 13a76 <g_2076+0xa16>
   11da3:	48 89 c7             	mov    %rax,%rdi
   11da6:	e8 48 49 ff ff       	callq  66f3 <transparent_crc>
   11dab:	8b 45 f4             	mov    -0xc(%rbp),%eax
   11dae:	48 98                	cltq   
   11db0:	48 8d 14 c5 00 00 00 	lea    0x0(,%rax,8),%rdx
   11db7:	00 
   11db8:	48 8d 05 e1 52 00 00 	lea    0x52e1(%rip),%rax        # 170a0 <g_449>
   11dbf:	0f b7 04 02          	movzwl (%rdx,%rax,1),%eax
   11dc3:	48 0f bf c0          	movswq %ax,%rax
   11dc7:	8b 55 fc             	mov    -0x4(%rbp),%edx
   11dca:	48 8d 35 b1 1c 00 00 	lea    0x1cb1(%rip),%rsi        # 13a82 <g_2076+0xa22>
   11dd1:	48 89 c7             	mov    %rax,%rdi
   11dd4:	e8 1a 49 ff ff       	callq  66f3 <transparent_crc>
   11dd9:	8b 45 f4             	mov    -0xc(%rbp),%eax
   11ddc:	48 98                	cltq   
   11dde:	48 8d 14 c5 00 00 00 	lea    0x0(,%rax,8),%rdx
   11de5:	00 
   11de6:	48 8d 05 b3 52 00 00 	lea    0x52b3(%rip),%rax        # 170a0 <g_449>
   11ded:	8b 04 02             	mov    (%rdx,%rax,1),%eax
   11df0:	48 98                	cltq   
   11df2:	8b 55 fc             	mov    -0x4(%rbp),%edx
   11df5:	48 8d 35 92 1c 00 00 	lea    0x1c92(%rip),%rsi        # 13a8e <g_2076+0xa2e>
   11dfc:	48 89 c7             	mov    %rax,%rdi
   11dff:	e8 ef 48 ff ff       	callq  66f3 <transparent_crc>
   11e04:	83 7d fc 00          	cmpl   $0x0,-0x4(%rbp)
   11e08:	74 16                	je     11e20 <main+0x481>
   11e0a:	8b 45 f4             	mov    -0xc(%rbp),%eax
   11e0d:	89 c6                	mov    %eax,%esi
   11e0f:	48 8d 3d dd 1b 00 00 	lea    0x1bdd(%rip),%rdi        # 139f3 <g_2076+0x993>
   11e16:	b8 00 00 00 00       	mov    $0x0,%eax
   11e1b:	e8 60 32 ff ff       	callq  5080 <printf@plt>
   11e20:	83 45 f4 01          	addl   $0x1,-0xc(%rbp)
   11e24:	83 7d f4 04          	cmpl   $0x4,-0xc(%rbp)
   11e28:	0f 8e 25 ff ff ff    	jle    11d53 <main+0x3b4>
   11e2e:	8b 05 34 73 00 00    	mov    0x7334(%rip),%eax        # 19168 <g_452>
   11e34:	89 c1                	mov    %eax,%ecx
   11e36:	8b 45 fc             	mov    -0x4(%rbp),%eax
   11e39:	89 c2                	mov    %eax,%edx
   11e3b:	48 8d 35 58 1c 00 00 	lea    0x1c58(%rip),%rsi        # 13a9a <g_2076+0xa3a>
   11e42:	48 89 cf             	mov    %rcx,%rdi
   11e45:	e8 a9 48 ff ff       	callq  66f3 <transparent_crc>
   11e4a:	8b 05 18 73 00 00    	mov    0x7318(%rip),%eax        # 19168 <g_452>
   11e50:	48 98                	cltq   
   11e52:	8b 55 fc             	mov    -0x4(%rbp),%edx
   11e55:	48 8d 35 47 1c 00 00 	lea    0x1c47(%rip),%rsi        # 13aa3 <g_2076+0xa43>
   11e5c:	48 89 c7             	mov    %rax,%rdi
   11e5f:	e8 8f 48 ff ff       	callq  66f3 <transparent_crc>
   11e64:	0f b7 05 fd 72 00 00 	movzwl 0x72fd(%rip),%eax        # 19168 <g_452>
   11e6b:	48 0f bf c0          	movswq %ax,%rax
   11e6f:	8b 55 fc             	mov    -0x4(%rbp),%edx
   11e72:	48 8d 35 33 1c 00 00 	lea    0x1c33(%rip),%rsi        # 13aac <g_2076+0xa4c>
   11e79:	48 89 c7             	mov    %rax,%rdi
   11e7c:	e8 72 48 ff ff       	callq  66f3 <transparent_crc>
   11e81:	8b 05 e1 72 00 00    	mov    0x72e1(%rip),%eax        # 19168 <g_452>
   11e87:	48 98                	cltq   
   11e89:	8b 55 fc             	mov    -0x4(%rbp),%edx
   11e8c:	48 8d 35 22 1c 00 00 	lea    0x1c22(%rip),%rsi        # 13ab5 <g_2076+0xa55>
   11e93:	48 89 c7             	mov    %rax,%rdi
   11e96:	e8 58 48 ff ff       	callq  66f3 <transparent_crc>
   11e9b:	c7 45 f4 00 00 00 00 	movl   $0x0,-0xc(%rbp)
   11ea2:	eb 4a                	jmp    11eee <main+0x54f>
   11ea4:	8b 45 f4             	mov    -0xc(%rbp),%eax
   11ea7:	48 98                	cltq   
   11ea9:	48 8d 14 c5 00 00 00 	lea    0x0(,%rax,8),%rdx
   11eb0:	00 
   11eb1:	48 8d 05 18 52 00 00 	lea    0x5218(%rip),%rax        # 170d0 <g_459>
   11eb8:	48 8b 04 02          	mov    (%rdx,%rax,1),%rax
   11ebc:	8b 55 fc             	mov    -0x4(%rbp),%edx
   11ebf:	48 8d 35 f8 1b 00 00 	lea    0x1bf8(%rip),%rsi        # 13abe <g_2076+0xa5e>
   11ec6:	48 89 c7             	mov    %rax,%rdi
   11ec9:	e8 25 48 ff ff       	callq  66f3 <transparent_crc>
   11ece:	83 7d fc 00          	cmpl   $0x0,-0x4(%rbp)
   11ed2:	74 16                	je     11eea <main+0x54b>
   11ed4:	8b 45 f4             	mov    -0xc(%rbp),%eax
   11ed7:	89 c6                	mov    %eax,%esi
   11ed9:	48 8d 3d 13 1b 00 00 	lea    0x1b13(%rip),%rdi        # 139f3 <g_2076+0x993>
   11ee0:	b8 00 00 00 00       	mov    $0x0,%eax
   11ee5:	e8 96 31 ff ff       	callq  5080 <printf@plt>
   11eea:	83 45 f4 01          	addl   $0x1,-0xc(%rbp)
   11eee:	83 7d f4 01          	cmpl   $0x1,-0xc(%rbp)
   11ef2:	7e b0                	jle    11ea4 <main+0x505>
   11ef4:	8b 05 e6 51 00 00    	mov    0x51e6(%rip),%eax        # 170e0 <g_489>
   11efa:	89 c1                	mov    %eax,%ecx
   11efc:	8b 45 fc             	mov    -0x4(%rbp),%eax
   11eff:	89 c2                	mov    %eax,%edx
   11f01:	48 8d 35 bf 1b 00 00 	lea    0x1bbf(%rip),%rsi        # 13ac7 <g_2076+0xa67>
   11f08:	48 89 cf             	mov    %rcx,%rdi
   11f0b:	e8 e3 47 ff ff       	callq  66f3 <transparent_crc>
   11f10:	8b 05 ca 51 00 00    	mov    0x51ca(%rip),%eax        # 170e0 <g_489>
   11f16:	48 98                	cltq   
   11f18:	8b 55 fc             	mov    -0x4(%rbp),%edx
   11f1b:	48 8d 35 ae 1b 00 00 	lea    0x1bae(%rip),%rsi        # 13ad0 <g_2076+0xa70>
   11f22:	48 89 c7             	mov    %rax,%rdi
   11f25:	e8 c9 47 ff ff       	callq  66f3 <transparent_crc>
   11f2a:	0f b7 05 af 51 00 00 	movzwl 0x51af(%rip),%eax        # 170e0 <g_489>
   11f31:	48 0f bf c0          	movswq %ax,%rax
   11f35:	8b 55 fc             	mov    -0x4(%rbp),%edx
   11f38:	48 8d 35 9a 1b 00 00 	lea    0x1b9a(%rip),%rsi        # 13ad9 <g_2076+0xa79>
   11f3f:	48 89 c7             	mov    %rax,%rdi
   11f42:	e8 ac 47 ff ff       	callq  66f3 <transparent_crc>
   11f47:	8b 05 93 51 00 00    	mov    0x5193(%rip),%eax        # 170e0 <g_489>
   11f4d:	48 98                	cltq   
   11f4f:	8b 55 fc             	mov    -0x4(%rbp),%edx
   11f52:	48 8d 35 89 1b 00 00 	lea    0x1b89(%rip),%rsi        # 13ae2 <g_2076+0xa82>
   11f59:	48 89 c7             	mov    %rax,%rdi
   11f5c:	e8 92 47 ff ff       	callq  66f3 <transparent_crc>
   11f61:	8b 05 81 51 00 00    	mov    0x5181(%rip),%eax        # 170e8 <g_627>
   11f67:	89 c1                	mov    %eax,%ecx
   11f69:	8b 45 fc             	mov    -0x4(%rbp),%eax
   11f6c:	89 c2                	mov    %eax,%edx
   11f6e:	48 8d 35 76 1b 00 00 	lea    0x1b76(%rip),%rsi        # 13aeb <g_2076+0xa8b>
   11f75:	48 89 cf             	mov    %rcx,%rdi
   11f78:	e8 76 47 ff ff       	callq  66f3 <transparent_crc>
   11f7d:	8b 05 65 51 00 00    	mov    0x5165(%rip),%eax        # 170e8 <g_627>
   11f83:	48 98                	cltq   
   11f85:	8b 55 fc             	mov    -0x4(%rbp),%edx
   11f88:	48 8d 35 65 1b 00 00 	lea    0x1b65(%rip),%rsi        # 13af4 <g_2076+0xa94>
   11f8f:	48 89 c7             	mov    %rax,%rdi
   11f92:	e8 5c 47 ff ff       	callq  66f3 <transparent_crc>
   11f97:	0f b7 05 4a 51 00 00 	movzwl 0x514a(%rip),%eax        # 170e8 <g_627>
   11f9e:	48 0f bf c0          	movswq %ax,%rax
   11fa2:	8b 55 fc             	mov    -0x4(%rbp),%edx
   11fa5:	48 8d 35 51 1b 00 00 	lea    0x1b51(%rip),%rsi        # 13afd <g_2076+0xa9d>
   11fac:	48 89 c7             	mov    %rax,%rdi
   11faf:	e8 3f 47 ff ff       	callq  66f3 <transparent_crc>
   11fb4:	8b 05 2e 51 00 00    	mov    0x512e(%rip),%eax        # 170e8 <g_627>
   11fba:	48 98                	cltq   
   11fbc:	8b 55 fc             	mov    -0x4(%rbp),%edx
   11fbf:	48 8d 35 40 1b 00 00 	lea    0x1b40(%rip),%rsi        # 13b06 <g_2076+0xaa6>
   11fc6:	48 89 c7             	mov    %rax,%rdi
   11fc9:	e8 25 47 ff ff       	callq  66f3 <transparent_crc>
   11fce:	c7 45 f4 00 00 00 00 	movl   $0x0,-0xc(%rbp)
   11fd5:	e9 d1 00 00 00       	jmpq   120ab <main+0x70c>
   11fda:	8b 45 f4             	mov    -0xc(%rbp),%eax
   11fdd:	48 98                	cltq   
   11fdf:	48 8d 14 c5 00 00 00 	lea    0x0(,%rax,8),%rdx
   11fe6:	00 
   11fe7:	48 8d 05 12 51 00 00 	lea    0x5112(%rip),%rax        # 17100 <g_628>
   11fee:	8b 04 02             	mov    (%rdx,%rax,1),%eax
   11ff1:	89 c1                	mov    %eax,%ecx
   11ff3:	8b 45 fc             	mov    -0x4(%rbp),%eax
   11ff6:	89 c2                	mov    %eax,%edx
   11ff8:	48 8d 35 10 1b 00 00 	lea    0x1b10(%rip),%rsi        # 13b0f <g_2076+0xaaf>
   11fff:	48 89 cf             	mov    %rcx,%rdi
   12002:	e8 ec 46 ff ff       	callq  66f3 <transparent_crc>
   12007:	8b 45 f4             	mov    -0xc(%rbp),%eax
   1200a:	48 98                	cltq   
   1200c:	48 8d 14 c5 00 00 00 	lea    0x0(,%rax,8),%rdx
   12013:	00 
   12014:	48 8d 05 e5 50 00 00 	lea    0x50e5(%rip),%rax        # 17100 <g_628>
   1201b:	8b 04 02             	mov    (%rdx,%rax,1),%eax
   1201e:	48 98                	cltq   
   12020:	8b 55 fc             	mov    -0x4(%rbp),%edx
   12023:	48 8d 35 f1 1a 00 00 	lea    0x1af1(%rip),%rsi        # 13b1b <g_2076+0xabb>
   1202a:	48 89 c7             	mov    %rax,%rdi
   1202d:	e8 c1 46 ff ff       	callq  66f3 <transparent_crc>
   12032:	8b 45 f4             	mov    -0xc(%rbp),%eax
   12035:	48 98                	cltq   
   12037:	48 8d 14 c5 00 00 00 	lea    0x0(,%rax,8),%rdx
   1203e:	00 
   1203f:	48 8d 05 ba 50 00 00 	lea    0x50ba(%rip),%rax        # 17100 <g_628>
   12046:	0f b7 04 02          	movzwl (%rdx,%rax,1),%eax
   1204a:	48 0f bf c0          	movswq %ax,%rax
   1204e:	8b 55 fc             	mov    -0x4(%rbp),%edx
   12051:	48 8d 35 cf 1a 00 00 	lea    0x1acf(%rip),%rsi        # 13b27 <g_2076+0xac7>
   12058:	48 89 c7             	mov    %rax,%rdi
   1205b:	e8 93 46 ff ff       	callq  66f3 <transparent_crc>
   12060:	8b 45 f4             	mov    -0xc(%rbp),%eax
   12063:	48 98                	cltq   
   12065:	48 8d 14 c5 00 00 00 	lea    0x0(,%rax,8),%rdx
   1206c:	00 
   1206d:	48 8d 05 8c 50 00 00 	lea    0x508c(%rip),%rax        # 17100 <g_628>
   12074:	8b 04 02             	mov    (%rdx,%rax,1),%eax
   12077:	48 98                	cltq   
   12079:	8b 55 fc             	mov    -0x4(%rbp),%edx
   1207c:	48 8d 35 b0 1a 00 00 	lea    0x1ab0(%rip),%rsi        # 13b33 <g_2076+0xad3>
   12083:	48 89 c7             	mov    %rax,%rdi
   12086:	e8 68 46 ff ff       	callq  66f3 <transparent_crc>
   1208b:	83 7d fc 00          	cmpl   $0x0,-0x4(%rbp)
   1208f:	74 16                	je     120a7 <main+0x708>
   12091:	8b 45 f4             	mov    -0xc(%rbp),%eax
   12094:	89 c6                	mov    %eax,%esi
   12096:	48 8d 3d 56 19 00 00 	lea    0x1956(%rip),%rdi        # 139f3 <g_2076+0x993>
   1209d:	b8 00 00 00 00       	mov    $0x0,%eax
   120a2:	e8 d9 2f ff ff       	callq  5080 <printf@plt>
   120a7:	83 45 f4 01          	addl   $0x1,-0xc(%rbp)
   120ab:	83 7d f4 05          	cmpl   $0x5,-0xc(%rbp)
   120af:	0f 8e 25 ff ff ff    	jle    11fda <main+0x63b>
   120b5:	8b 05 75 50 00 00    	mov    0x5075(%rip),%eax        # 17130 <g_630>
   120bb:	89 c1                	mov    %eax,%ecx
   120bd:	8b 45 fc             	mov    -0x4(%rbp),%eax
   120c0:	89 c2                	mov    %eax,%edx
   120c2:	48 8d 35 76 1a 00 00 	lea    0x1a76(%rip),%rsi        # 13b3f <g_2076+0xadf>
   120c9:	48 89 cf             	mov    %rcx,%rdi
   120cc:	e8 22 46 ff ff       	callq  66f3 <transparent_crc>
   120d1:	8b 05 59 50 00 00    	mov    0x5059(%rip),%eax        # 17130 <g_630>
   120d7:	48 98                	cltq   
   120d9:	8b 55 fc             	mov    -0x4(%rbp),%edx
   120dc:	48 8d 35 65 1a 00 00 	lea    0x1a65(%rip),%rsi        # 13b48 <g_2076+0xae8>
   120e3:	48 89 c7             	mov    %rax,%rdi
   120e6:	e8 08 46 ff ff       	callq  66f3 <transparent_crc>
   120eb:	0f b7 05 3e 50 00 00 	movzwl 0x503e(%rip),%eax        # 17130 <g_630>
   120f2:	48 0f bf c0          	movswq %ax,%rax
   120f6:	8b 55 fc             	mov    -0x4(%rbp),%edx
   120f9:	48 8d 35 51 1a 00 00 	lea    0x1a51(%rip),%rsi        # 13b51 <g_2076+0xaf1>
   12100:	48 89 c7             	mov    %rax,%rdi
   12103:	e8 eb 45 ff ff       	callq  66f3 <transparent_crc>
   12108:	8b 05 22 50 00 00    	mov    0x5022(%rip),%eax        # 17130 <g_630>
   1210e:	48 98                	cltq   
   12110:	8b 55 fc             	mov    -0x4(%rbp),%edx
   12113:	48 8d 35 40 1a 00 00 	lea    0x1a40(%rip),%rsi        # 13b5a <g_2076+0xafa>
   1211a:	48 89 c7             	mov    %rax,%rdi
   1211d:	e8 d1 45 ff ff       	callq  66f3 <transparent_crc>
   12122:	8b 05 10 50 00 00    	mov    0x5010(%rip),%eax        # 17138 <g_648>
   12128:	48 98                	cltq   
   1212a:	8b 55 fc             	mov    -0x4(%rbp),%edx
   1212d:	48 8d 35 2f 1a 00 00 	lea    0x1a2f(%rip),%rsi        # 13b63 <g_2076+0xb03>
   12134:	48 89 c7             	mov    %rax,%rdi
   12137:	e8 b7 45 ff ff       	callq  66f3 <transparent_crc>
   1213c:	0f b6 05 f9 4f 00 00 	movzbl 0x4ff9(%rip),%eax        # 1713c <g_653>
   12143:	83 e0 0f             	and    $0xf,%eax
   12146:	0f b6 c0             	movzbl %al,%eax
   12149:	8b 55 fc             	mov    -0x4(%rbp),%edx
   1214c:	48 8d 35 16 1a 00 00 	lea    0x1a16(%rip),%rsi        # 13b69 <g_2076+0xb09>
   12153:	48 89 c7             	mov    %rax,%rdi
   12156:	e8 98 45 ff ff       	callq  66f3 <transparent_crc>
   1215b:	0f b6 05 de 4f 00 00 	movzbl 0x4fde(%rip),%eax        # 17140 <g_737>
   12162:	48 0f be c0          	movsbq %al,%rax
   12166:	8b 55 fc             	mov    -0x4(%rbp),%edx
   12169:	48 8d 35 02 1a 00 00 	lea    0x1a02(%rip),%rsi        # 13b72 <g_2076+0xb12>
   12170:	48 89 c7             	mov    %rax,%rdi
   12173:	e8 7b 45 ff ff       	callq  66f3 <transparent_crc>
   12178:	0f b6 05 c2 4f 00 00 	movzbl 0x4fc2(%rip),%eax        # 17141 <g_742>
   1217f:	0f b6 c0             	movzbl %al,%eax
   12182:	8b 55 fc             	mov    -0x4(%rbp),%edx
   12185:	48 8d 35 ec 19 00 00 	lea    0x19ec(%rip),%rsi        # 13b78 <g_2076+0xb18>
   1218c:	48 89 c7             	mov    %rax,%rdi
   1218f:	e8 5f 45 ff ff       	callq  66f3 <transparent_crc>
   12194:	0f b6 05 dd 6f 00 00 	movzbl 0x6fdd(%rip),%eax        # 19178 <g_766>
   1219b:	83 e0 0f             	and    $0xf,%eax
   1219e:	0f b6 c0             	movzbl %al,%eax
   121a1:	8b 55 fc             	mov    -0x4(%rbp),%edx
   121a4:	48 8d 35 d3 19 00 00 	lea    0x19d3(%rip),%rsi        # 13b7e <g_2076+0xb1e>
   121ab:	48 89 c7             	mov    %rax,%rdi
   121ae:	e8 40 45 ff ff       	callq  66f3 <transparent_crc>
   121b3:	8b 05 8b 4f 00 00    	mov    0x4f8b(%rip),%eax        # 17144 <g_774>
   121b9:	48 98                	cltq   
   121bb:	8b 55 fc             	mov    -0x4(%rbp),%edx
   121be:	48 8d 35 c2 19 00 00 	lea    0x19c2(%rip),%rsi        # 13b87 <g_2076+0xb27>
   121c5:	48 89 c7             	mov    %rax,%rdi
   121c8:	e8 26 45 ff ff       	callq  66f3 <transparent_crc>
   121cd:	8b 05 75 4f 00 00    	mov    0x4f75(%rip),%eax        # 17148 <g_823>
   121d3:	89 c1                	mov    %eax,%ecx
   121d5:	8b 45 fc             	mov    -0x4(%rbp),%eax
   121d8:	89 c2                	mov    %eax,%edx
   121da:	48 8d 35 ac 19 00 00 	lea    0x19ac(%rip),%rsi        # 13b8d <g_2076+0xb2d>
   121e1:	48 89 cf             	mov    %rcx,%rdi
   121e4:	e8 0a 45 ff ff       	callq  66f3 <transparent_crc>
   121e9:	0f b6 05 5c 4f 00 00 	movzbl 0x4f5c(%rip),%eax        # 1714c <g_832>
   121f0:	83 e0 0f             	and    $0xf,%eax
   121f3:	0f b6 c0             	movzbl %al,%eax
   121f6:	8b 55 fc             	mov    -0x4(%rbp),%edx
   121f9:	48 8d 35 93 19 00 00 	lea    0x1993(%rip),%rsi        # 13b93 <g_2076+0xb33>
   12200:	48 89 c7             	mov    %rax,%rdi
   12203:	e8 eb 44 ff ff       	callq  66f3 <transparent_crc>
   12208:	0f b6 05 41 4f 00 00 	movzbl 0x4f41(%rip),%eax        # 17150 <g_834>
   1220f:	83 e0 0f             	and    $0xf,%eax
   12212:	0f b6 c0             	movzbl %al,%eax
   12215:	8b 55 fc             	mov    -0x4(%rbp),%edx
   12218:	48 8d 35 7d 19 00 00 	lea    0x197d(%rip),%rsi        # 13b9c <g_2076+0xb3c>
   1221f:	48 89 c7             	mov    %rax,%rdi
   12222:	e8 cc 44 ff ff       	callq  66f3 <transparent_crc>
   12227:	0f b7 05 26 4f 00 00 	movzwl 0x4f26(%rip),%eax        # 17154 <g_910>
   1222e:	0f b7 c0             	movzwl %ax,%eax
   12231:	8b 55 fc             	mov    -0x4(%rbp),%edx
   12234:	48 8d 35 6a 19 00 00 	lea    0x196a(%rip),%rsi        # 13ba5 <g_2076+0xb45>
   1223b:	48 89 c7             	mov    %rax,%rdi
   1223e:	e8 b0 44 ff ff       	callq  66f3 <transparent_crc>
   12243:	0f b6 05 0e 4f 00 00 	movzbl 0x4f0e(%rip),%eax        # 17158 <g_931>
   1224a:	83 e0 0f             	and    $0xf,%eax
   1224d:	0f b6 c0             	movzbl %al,%eax
   12250:	8b 55 fc             	mov    -0x4(%rbp),%edx
   12253:	48 8d 35 51 19 00 00 	lea    0x1951(%rip),%rsi        # 13bab <g_2076+0xb4b>
   1225a:	48 89 c7             	mov    %rax,%rdi
   1225d:	e8 91 44 ff ff       	callq  66f3 <transparent_crc>
   12262:	0f b6 05 f3 4e 00 00 	movzbl 0x4ef3(%rip),%eax        # 1715c <g_932>
   12269:	83 e0 0f             	and    $0xf,%eax
   1226c:	0f b6 c0             	movzbl %al,%eax
   1226f:	8b 55 fc             	mov    -0x4(%rbp),%edx
   12272:	48 8d 35 3b 19 00 00 	lea    0x193b(%rip),%rsi        # 13bb4 <g_2076+0xb54>
   12279:	48 89 c7             	mov    %rax,%rdi
   1227c:	e8 72 44 ff ff       	callq  66f3 <transparent_crc>
   12281:	0f b6 05 d8 4e 00 00 	movzbl 0x4ed8(%rip),%eax        # 17160 <g_933>
   12288:	83 e0 0f             	and    $0xf,%eax
   1228b:	0f b6 c0             	movzbl %al,%eax
   1228e:	8b 55 fc             	mov    -0x4(%rbp),%edx
   12291:	48 8d 35 25 19 00 00 	lea    0x1925(%rip),%rsi        # 13bbd <g_2076+0xb5d>
   12298:	48 89 c7             	mov    %rax,%rdi
   1229b:	e8 53 44 ff ff       	callq  66f3 <transparent_crc>
   122a0:	0f b6 05 bd 4e 00 00 	movzbl 0x4ebd(%rip),%eax        # 17164 <g_934>
   122a7:	83 e0 0f             	and    $0xf,%eax
   122aa:	0f b6 c0             	movzbl %al,%eax
   122ad:	8b 55 fc             	mov    -0x4(%rbp),%edx
   122b0:	48 8d 35 0f 19 00 00 	lea    0x190f(%rip),%rsi        # 13bc6 <g_2076+0xb66>
   122b7:	48 89 c7             	mov    %rax,%rdi
   122ba:	e8 34 44 ff ff       	callq  66f3 <transparent_crc>
   122bf:	0f b6 05 a2 4e 00 00 	movzbl 0x4ea2(%rip),%eax        # 17168 <g_935>
   122c6:	83 e0 0f             	and    $0xf,%eax
   122c9:	0f b6 c0             	movzbl %al,%eax
   122cc:	8b 55 fc             	mov    -0x4(%rbp),%edx
   122cf:	48 8d 35 f9 18 00 00 	lea    0x18f9(%rip),%rsi        # 13bcf <g_2076+0xb6f>
   122d6:	48 89 c7             	mov    %rax,%rdi
   122d9:	e8 15 44 ff ff       	callq  66f3 <transparent_crc>
   122de:	0f b6 05 87 4e 00 00 	movzbl 0x4e87(%rip),%eax        # 1716c <g_936>
   122e5:	83 e0 0f             	and    $0xf,%eax
   122e8:	0f b6 c0             	movzbl %al,%eax
   122eb:	8b 55 fc             	mov    -0x4(%rbp),%edx
   122ee:	48 8d 35 e3 18 00 00 	lea    0x18e3(%rip),%rsi        # 13bd8 <g_2076+0xb78>
   122f5:	48 89 c7             	mov    %rax,%rdi
   122f8:	e8 f6 43 ff ff       	callq  66f3 <transparent_crc>
   122fd:	0f b6 05 6c 4e 00 00 	movzbl 0x4e6c(%rip),%eax        # 17170 <g_938>
   12304:	83 e0 0f             	and    $0xf,%eax
   12307:	0f b6 c0             	movzbl %al,%eax
   1230a:	8b 55 fc             	mov    -0x4(%rbp),%edx
   1230d:	48 8d 35 cd 18 00 00 	lea    0x18cd(%rip),%rsi        # 13be1 <g_2076+0xb81>
   12314:	48 89 c7             	mov    %rax,%rdi
   12317:	e8 d7 43 ff ff       	callq  66f3 <transparent_crc>
   1231c:	8b 05 52 4e 00 00    	mov    0x4e52(%rip),%eax        # 17174 <g_1100>
   12322:	89 c1                	mov    %eax,%ecx
   12324:	8b 45 fc             	mov    -0x4(%rbp),%eax
   12327:	89 c2                	mov    %eax,%edx
   12329:	48 8d 35 ba 18 00 00 	lea    0x18ba(%rip),%rsi        # 13bea <g_2076+0xb8a>
   12330:	48 89 cf             	mov    %rcx,%rdi
   12333:	e8 bb 43 ff ff       	callq  66f3 <transparent_crc>
   12338:	0f b6 05 39 4e 00 00 	movzbl 0x4e39(%rip),%eax        # 17178 <g_1149>
   1233f:	48 0f be c0          	movsbq %al,%rax
   12343:	8b 55 fc             	mov    -0x4(%rbp),%edx
   12346:	48 8d 35 a4 18 00 00 	lea    0x18a4(%rip),%rsi        # 13bf1 <g_2076+0xb91>
   1234d:	48 89 c7             	mov    %rax,%rdi
   12350:	e8 9e 43 ff ff       	callq  66f3 <transparent_crc>
   12355:	0f b6 05 20 4e 00 00 	movzbl 0x4e20(%rip),%eax        # 1717c <g_1293>
   1235c:	83 e0 0f             	and    $0xf,%eax
   1235f:	0f b6 c0             	movzbl %al,%eax
   12362:	8b 55 fc             	mov    -0x4(%rbp),%edx
   12365:	48 8d 35 8c 18 00 00 	lea    0x188c(%rip),%rsi        # 13bf8 <g_2076+0xb98>
   1236c:	48 89 c7             	mov    %rax,%rdi
   1236f:	e8 7f 43 ff ff       	callq  66f3 <transparent_crc>
   12374:	c7 45 f4 00 00 00 00 	movl   $0x0,-0xc(%rbp)
   1237b:	eb 50                	jmp    123cd <main+0xa2e>
   1237d:	8b 45 f4             	mov    -0xc(%rbp),%eax
   12380:	48 98                	cltq   
   12382:	48 8d 14 85 00 00 00 	lea    0x0(,%rax,4),%rdx
   12389:	00 
   1238a:	48 8d 05 ef 4d 00 00 	lea    0x4def(%rip),%rax        # 17180 <g_1297>
   12391:	0f b6 04 02          	movzbl (%rdx,%rax,1),%eax
   12395:	83 e0 0f             	and    $0xf,%eax
   12398:	0f b6 c0             	movzbl %al,%eax
   1239b:	8b 55 fc             	mov    -0x4(%rbp),%edx
   1239e:	48 8d 35 5d 18 00 00 	lea    0x185d(%rip),%rsi        # 13c02 <g_2076+0xba2>
   123a5:	48 89 c7             	mov    %rax,%rdi
   123a8:	e8 46 43 ff ff       	callq  66f3 <transparent_crc>
   123ad:	83 7d fc 00          	cmpl   $0x0,-0x4(%rbp)
   123b1:	74 16                	je     123c9 <main+0xa2a>
   123b3:	8b 45 f4             	mov    -0xc(%rbp),%eax
   123b6:	89 c6                	mov    %eax,%esi
   123b8:	48 8d 3d 34 16 00 00 	lea    0x1634(%rip),%rdi        # 139f3 <g_2076+0x993>
   123bf:	b8 00 00 00 00       	mov    $0x0,%eax
   123c4:	e8 b7 2c ff ff       	callq  5080 <printf@plt>
   123c9:	83 45 f4 01          	addl   $0x1,-0xc(%rbp)
   123cd:	83 7d f4 02          	cmpl   $0x2,-0xc(%rbp)
   123d1:	7e aa                	jle    1237d <main+0x9de>
   123d3:	0f b6 05 b2 4d 00 00 	movzbl 0x4db2(%rip),%eax        # 1718c <g_1311>
   123da:	83 e0 0f             	and    $0xf,%eax
   123dd:	0f b6 c0             	movzbl %al,%eax
   123e0:	8b 55 fc             	mov    -0x4(%rbp),%edx
   123e3:	48 8d 35 25 18 00 00 	lea    0x1825(%rip),%rsi        # 13c0f <g_2076+0xbaf>
   123ea:	48 89 c7             	mov    %rax,%rdi
   123ed:	e8 01 43 ff ff       	callq  66f3 <transparent_crc>
   123f2:	8b 05 98 4d 00 00    	mov    0x4d98(%rip),%eax        # 17190 <g_1354>
   123f8:	83 e0 0f             	and    $0xf,%eax
   123fb:	0f b6 c0             	movzbl %al,%eax
   123fe:	8b 55 fc             	mov    -0x4(%rbp),%edx
   12401:	48 8d 35 11 18 00 00 	lea    0x1811(%rip),%rsi        # 13c19 <g_2076+0xbb9>
   12408:	48 89 c7             	mov    %rax,%rdi
   1240b:	e8 e3 42 ff ff       	callq  66f3 <transparent_crc>
   12410:	48 8b 05 81 4d 00 00 	mov    0x4d81(%rip),%rax        # 17198 <g_1427>
   12417:	8b 55 fc             	mov    -0x4(%rbp),%edx
   1241a:	48 8d 35 02 18 00 00 	lea    0x1802(%rip),%rsi        # 13c23 <g_2076+0xbc3>
   12421:	48 89 c7             	mov    %rax,%rdi
   12424:	e8 ca 42 ff ff       	callq  66f3 <transparent_crc>
   12429:	0f b6 05 70 4d 00 00 	movzbl 0x4d70(%rip),%eax        # 171a0 <g_1483>
   12430:	83 e0 0f             	and    $0xf,%eax
   12433:	0f b6 c0             	movzbl %al,%eax
   12436:	8b 55 fc             	mov    -0x4(%rbp),%edx
   12439:	48 8d 35 ea 17 00 00 	lea    0x17ea(%rip),%rsi        # 13c2a <g_2076+0xbca>
   12440:	48 89 c7             	mov    %rax,%rdi
   12443:	e8 ab 42 ff ff       	callq  66f3 <transparent_crc>
   12448:	0f b6 05 55 4d 00 00 	movzbl 0x4d55(%rip),%eax        # 171a4 <g_1492>
   1244f:	83 e0 0f             	and    $0xf,%eax
   12452:	0f b6 c0             	movzbl %al,%eax
   12455:	8b 55 fc             	mov    -0x4(%rbp),%edx
   12458:	48 8d 35 d5 17 00 00 	lea    0x17d5(%rip),%rsi        # 13c34 <g_2076+0xbd4>
   1245f:	48 89 c7             	mov    %rax,%rdi
   12462:	e8 8c 42 ff ff       	callq  66f3 <transparent_crc>
   12467:	0f b7 05 3a 4d 00 00 	movzwl 0x4d3a(%rip),%eax        # 171a8 <g_1504>
   1246e:	0f b7 c0             	movzwl %ax,%eax
   12471:	8b 55 fc             	mov    -0x4(%rbp),%edx
   12474:	48 8d 35 c3 17 00 00 	lea    0x17c3(%rip),%rsi        # 13c3e <g_2076+0xbde>
   1247b:	48 89 c7             	mov    %rax,%rdi
   1247e:	e8 70 42 ff ff       	callq  66f3 <transparent_crc>
   12483:	48 8b 05 26 4d 00 00 	mov    0x4d26(%rip),%rax        # 171b0 <g_1523>
   1248a:	8b 55 fc             	mov    -0x4(%rbp),%edx
   1248d:	48 8d 35 b1 17 00 00 	lea    0x17b1(%rip),%rsi        # 13c45 <g_2076+0xbe5>
   12494:	48 89 c7             	mov    %rax,%rdi
   12497:	e8 57 42 ff ff       	callq  66f3 <transparent_crc>
   1249c:	8b 05 16 4d 00 00    	mov    0x4d16(%rip),%eax        # 171b8 <g_1526>
   124a2:	89 c1                	mov    %eax,%ecx
   124a4:	8b 45 fc             	mov    -0x4(%rbp),%eax
   124a7:	89 c2                	mov    %eax,%edx
   124a9:	48 8d 35 9c 17 00 00 	lea    0x179c(%rip),%rsi        # 13c4c <g_2076+0xbec>
   124b0:	48 89 cf             	mov    %rcx,%rdi
   124b3:	e8 3b 42 ff ff       	callq  66f3 <transparent_crc>
   124b8:	8b 05 fa 4c 00 00    	mov    0x4cfa(%rip),%eax        # 171b8 <g_1526>
   124be:	48 98                	cltq   
   124c0:	8b 55 fc             	mov    -0x4(%rbp),%edx
   124c3:	48 8d 35 8c 17 00 00 	lea    0x178c(%rip),%rsi        # 13c56 <g_2076+0xbf6>
   124ca:	48 89 c7             	mov    %rax,%rdi
   124cd:	e8 21 42 ff ff       	callq  66f3 <transparent_crc>
   124d2:	0f b7 05 df 4c 00 00 	movzwl 0x4cdf(%rip),%eax        # 171b8 <g_1526>
   124d9:	48 0f bf c0          	movswq %ax,%rax
   124dd:	8b 55 fc             	mov    -0x4(%rbp),%edx
   124e0:	48 8d 35 79 17 00 00 	lea    0x1779(%rip),%rsi        # 13c60 <g_2076+0xc00>
   124e7:	48 89 c7             	mov    %rax,%rdi
   124ea:	e8 04 42 ff ff       	callq  66f3 <transparent_crc>
   124ef:	8b 05 c3 4c 00 00    	mov    0x4cc3(%rip),%eax        # 171b8 <g_1526>
   124f5:	48 98                	cltq   
   124f7:	8b 55 fc             	mov    -0x4(%rbp),%edx
   124fa:	48 8d 35 69 17 00 00 	lea    0x1769(%rip),%rsi        # 13c6a <g_2076+0xc0a>
   12501:	48 89 c7             	mov    %rax,%rdi
   12504:	e8 ea 41 ff ff       	callq  66f3 <transparent_crc>
   12509:	0f b6 05 b0 4c 00 00 	movzbl 0x4cb0(%rip),%eax        # 171c0 <g_1569>
   12510:	83 e0 0f             	and    $0xf,%eax
   12513:	0f b6 c0             	movzbl %al,%eax
   12516:	8b 55 fc             	mov    -0x4(%rbp),%edx
   12519:	48 8d 35 54 17 00 00 	lea    0x1754(%rip),%rsi        # 13c74 <g_2076+0xc14>
   12520:	48 89 c7             	mov    %rax,%rdi
   12523:	e8 cb 41 ff ff       	callq  66f3 <transparent_crc>
   12528:	0f b6 05 95 4c 00 00 	movzbl 0x4c95(%rip),%eax        # 171c4 <g_1570>
   1252f:	83 e0 0f             	and    $0xf,%eax
   12532:	0f b6 c0             	movzbl %al,%eax
   12535:	8b 55 fc             	mov    -0x4(%rbp),%edx
   12538:	48 8d 35 3f 17 00 00 	lea    0x173f(%rip),%rsi        # 13c7e <g_2076+0xc1e>
   1253f:	48 89 c7             	mov    %rax,%rdi
   12542:	e8 ac 41 ff ff       	callq  66f3 <transparent_crc>
   12547:	0f b6 05 7a 4c 00 00 	movzbl 0x4c7a(%rip),%eax        # 171c8 <g_1571>
   1254e:	83 e0 0f             	and    $0xf,%eax
   12551:	0f b6 c0             	movzbl %al,%eax
   12554:	8b 55 fc             	mov    -0x4(%rbp),%edx
   12557:	48 8d 35 2a 17 00 00 	lea    0x172a(%rip),%rsi        # 13c88 <g_2076+0xc28>
   1255e:	48 89 c7             	mov    %rax,%rdi
   12561:	e8 8d 41 ff ff       	callq  66f3 <transparent_crc>
   12566:	0f b7 05 5f 4c 00 00 	movzwl 0x4c5f(%rip),%eax        # 171cc <g_1671>
   1256d:	48 0f bf c0          	movswq %ax,%rax
   12571:	8b 55 fc             	mov    -0x4(%rbp),%edx
   12574:	48 8d 35 17 17 00 00 	lea    0x1717(%rip),%rsi        # 13c92 <g_2076+0xc32>
   1257b:	48 89 c7             	mov    %rax,%rdi
   1257e:	e8 70 41 ff ff       	callq  66f3 <transparent_crc>
   12583:	8b 05 7f 6c 00 00    	mov    0x6c7f(%rip),%eax        # 19208 <g_1699>
   12589:	89 c1                	mov    %eax,%ecx
   1258b:	8b 45 fc             	mov    -0x4(%rbp),%eax
   1258e:	89 c2                	mov    %eax,%edx
   12590:	48 8d 35 02 17 00 00 	lea    0x1702(%rip),%rsi        # 13c99 <g_2076+0xc39>
   12597:	48 89 cf             	mov    %rcx,%rdi
   1259a:	e8 54 41 ff ff       	callq  66f3 <transparent_crc>
   1259f:	8b 05 63 6c 00 00    	mov    0x6c63(%rip),%eax        # 19208 <g_1699>
   125a5:	48 98                	cltq   
   125a7:	8b 55 fc             	mov    -0x4(%rbp),%edx
   125aa:	48 8d 35 f2 16 00 00 	lea    0x16f2(%rip),%rsi        # 13ca3 <g_2076+0xc43>
   125b1:	48 89 c7             	mov    %rax,%rdi
   125b4:	e8 3a 41 ff ff       	callq  66f3 <transparent_crc>
   125b9:	0f b7 05 48 6c 00 00 	movzwl 0x6c48(%rip),%eax        # 19208 <g_1699>
   125c0:	48 0f bf c0          	movswq %ax,%rax
   125c4:	8b 55 fc             	mov    -0x4(%rbp),%edx
   125c7:	48 8d 35 df 16 00 00 	lea    0x16df(%rip),%rsi        # 13cad <g_2076+0xc4d>
   125ce:	48 89 c7             	mov    %rax,%rdi
   125d1:	e8 1d 41 ff ff       	callq  66f3 <transparent_crc>
   125d6:	8b 05 2c 6c 00 00    	mov    0x6c2c(%rip),%eax        # 19208 <g_1699>
   125dc:	48 98                	cltq   
   125de:	8b 55 fc             	mov    -0x4(%rbp),%edx
   125e1:	48 8d 35 cf 16 00 00 	lea    0x16cf(%rip),%rsi        # 13cb7 <g_2076+0xc57>
   125e8:	48 89 c7             	mov    %rax,%rdi
   125eb:	e8 03 41 ff ff       	callq  66f3 <transparent_crc>
   125f0:	c7 45 f4 00 00 00 00 	movl   $0x0,-0xc(%rbp)
   125f7:	e9 d1 00 00 00       	jmpq   126cd <main+0xd2e>
   125fc:	8b 45 f4             	mov    -0xc(%rbp),%eax
   125ff:	48 98                	cltq   
   12601:	48 8d 14 c5 00 00 00 	lea    0x0(,%rax,8),%rdx
   12608:	00 
   12609:	48 8d 05 c0 4b 00 00 	lea    0x4bc0(%rip),%rax        # 171d0 <g_1702>
   12610:	8b 04 02             	mov    (%rdx,%rax,1),%eax
   12613:	89 c1                	mov    %eax,%ecx
   12615:	8b 45 fc             	mov    -0x4(%rbp),%eax
   12618:	89 c2                	mov    %eax,%edx
   1261a:	48 8d 35 a0 16 00 00 	lea    0x16a0(%rip),%rsi        # 13cc1 <g_2076+0xc61>
   12621:	48 89 cf             	mov    %rcx,%rdi
   12624:	e8 ca 40 ff ff       	callq  66f3 <transparent_crc>
   12629:	8b 45 f4             	mov    -0xc(%rbp),%eax
   1262c:	48 98                	cltq   
   1262e:	48 8d 14 c5 00 00 00 	lea    0x0(,%rax,8),%rdx
   12635:	00 
   12636:	48 8d 05 93 4b 00 00 	lea    0x4b93(%rip),%rax        # 171d0 <g_1702>
   1263d:	8b 04 02             	mov    (%rdx,%rax,1),%eax
   12640:	48 98                	cltq   
   12642:	8b 55 fc             	mov    -0x4(%rbp),%edx
   12645:	48 8d 35 82 16 00 00 	lea    0x1682(%rip),%rsi        # 13cce <g_2076+0xc6e>
   1264c:	48 89 c7             	mov    %rax,%rdi
   1264f:	e8 9f 40 ff ff       	callq  66f3 <transparent_crc>
   12654:	8b 45 f4             	mov    -0xc(%rbp),%eax
   12657:	48 98                	cltq   
   12659:	48 8d 14 c5 00 00 00 	lea    0x0(,%rax,8),%rdx
   12660:	00 
   12661:	48 8d 05 68 4b 00 00 	lea    0x4b68(%rip),%rax        # 171d0 <g_1702>
   12668:	0f b7 04 02          	movzwl (%rdx,%rax,1),%eax
   1266c:	48 0f bf c0          	movswq %ax,%rax
   12670:	8b 55 fc             	mov    -0x4(%rbp),%edx
   12673:	48 8d 35 61 16 00 00 	lea    0x1661(%rip),%rsi        # 13cdb <g_2076+0xc7b>
   1267a:	48 89 c7             	mov    %rax,%rdi
   1267d:	e8 71 40 ff ff       	callq  66f3 <transparent_crc>
   12682:	8b 45 f4             	mov    -0xc(%rbp),%eax
   12685:	48 98                	cltq   
   12687:	48 8d 14 c5 00 00 00 	lea    0x0(,%rax,8),%rdx
   1268e:	00 
   1268f:	48 8d 05 3a 4b 00 00 	lea    0x4b3a(%rip),%rax        # 171d0 <g_1702>
   12696:	8b 04 02             	mov    (%rdx,%rax,1),%eax
   12699:	48 98                	cltq   
   1269b:	8b 55 fc             	mov    -0x4(%rbp),%edx
   1269e:	48 8d 35 43 16 00 00 	lea    0x1643(%rip),%rsi        # 13ce8 <g_2076+0xc88>
   126a5:	48 89 c7             	mov    %rax,%rdi
   126a8:	e8 46 40 ff ff       	callq  66f3 <transparent_crc>
   126ad:	83 7d fc 00          	cmpl   $0x0,-0x4(%rbp)
   126b1:	74 16                	je     126c9 <main+0xd2a>
   126b3:	8b 45 f4             	mov    -0xc(%rbp),%eax
   126b6:	89 c6                	mov    %eax,%esi
   126b8:	48 8d 3d 34 13 00 00 	lea    0x1334(%rip),%rdi        # 139f3 <g_2076+0x993>
   126bf:	b8 00 00 00 00       	mov    $0x0,%eax
   126c4:	e8 b7 29 ff ff       	callq  5080 <printf@plt>
   126c9:	83 45 f4 01          	addl   $0x1,-0xc(%rbp)
   126cd:	83 7d f4 01          	cmpl   $0x1,-0xc(%rbp)
   126d1:	0f 8e 25 ff ff ff    	jle    125fc <main+0xc5d>
   126d7:	0f b7 05 02 4b 00 00 	movzwl 0x4b02(%rip),%eax        # 171e0 <g_1724>
   126de:	48 0f bf c0          	movswq %ax,%rax
   126e2:	8b 55 fc             	mov    -0x4(%rbp),%edx
   126e5:	48 8d 35 09 16 00 00 	lea    0x1609(%rip),%rsi        # 13cf5 <g_2076+0xc95>
   126ec:	48 89 c7             	mov    %rax,%rdi
   126ef:	e8 ff 3f ff ff       	callq  66f3 <transparent_crc>
   126f4:	c7 45 f4 00 00 00 00 	movl   $0x0,-0xc(%rbp)
   126fb:	eb 6c                	jmp    12769 <main+0xdca>
   126fd:	c7 45 f8 00 00 00 00 	movl   $0x0,-0x8(%rbp)
   12704:	eb 59                	jmp    1275f <main+0xdc0>
   12706:	8b 45 f8             	mov    -0x8(%rbp),%eax
   12709:	48 98                	cltq   
   1270b:	8b 55 f4             	mov    -0xc(%rbp),%edx
   1270e:	48 63 d2             	movslq %edx,%rdx
   12711:	48 01 d2             	add    %rdx,%rdx
   12714:	48 01 d0             	add    %rdx,%rax
   12717:	48 8d 14 00          	lea    (%rax,%rax,1),%rdx
   1271b:	48 8d 05 c6 4a 00 00 	lea    0x4ac6(%rip),%rax        # 171e8 <g_1749>
   12722:	0f b7 04 02          	movzwl (%rdx,%rax,1),%eax
   12726:	48 0f bf c0          	movswq %ax,%rax
   1272a:	8b 55 fc             	mov    -0x4(%rbp),%edx
   1272d:	48 8d 35 c8 15 00 00 	lea    0x15c8(%rip),%rsi        # 13cfc <g_2076+0xc9c>
   12734:	48 89 c7             	mov    %rax,%rdi
   12737:	e8 b7 3f ff ff       	callq  66f3 <transparent_crc>
   1273c:	83 7d fc 00          	cmpl   $0x0,-0x4(%rbp)
   12740:	74 19                	je     1275b <main+0xdbc>
   12742:	8b 55 f8             	mov    -0x8(%rbp),%edx
   12745:	8b 45 f4             	mov    -0xc(%rbp),%eax
   12748:	89 c6                	mov    %eax,%esi
   1274a:	48 8d 3d b8 15 00 00 	lea    0x15b8(%rip),%rdi        # 13d09 <g_2076+0xca9>
   12751:	b8 00 00 00 00       	mov    $0x0,%eax
   12756:	e8 25 29 ff ff       	callq  5080 <printf@plt>
   1275b:	83 45 f8 01          	addl   $0x1,-0x8(%rbp)
   1275f:	83 7d f8 01          	cmpl   $0x1,-0x8(%rbp)
   12763:	7e a1                	jle    12706 <main+0xd67>
   12765:	83 45 f4 01          	addl   $0x1,-0xc(%rbp)
   12769:	83 7d f4 02          	cmpl   $0x2,-0xc(%rbp)
   1276d:	7e 8e                	jle    126fd <main+0xd5e>
   1276f:	b8 09 00 00 00       	mov    $0x9,%eax
   12774:	48 0f be c0          	movsbq %al,%rax
   12778:	8b 55 fc             	mov    -0x4(%rbp),%edx
   1277b:	48 8d 35 99 15 00 00 	lea    0x1599(%rip),%rsi        # 13d1b <g_2076+0xcbb>
   12782:	48 89 c7             	mov    %rax,%rdi
   12785:	e8 69 3f ff ff       	callq  66f3 <transparent_crc>
   1278a:	8b 05 64 4a 00 00    	mov    0x4a64(%rip),%eax        # 171f4 <g_1813>
   12790:	89 c1                	mov    %eax,%ecx
   12792:	8b 45 fc             	mov    -0x4(%rbp),%eax
   12795:	89 c2                	mov    %eax,%edx
   12797:	48 8d 35 84 15 00 00 	lea    0x1584(%rip),%rsi        # 13d22 <g_2076+0xcc2>
   1279e:	48 89 cf             	mov    %rcx,%rdi
   127a1:	e8 4d 3f ff ff       	callq  66f3 <transparent_crc>
   127a6:	8b 05 4c 4a 00 00    	mov    0x4a4c(%rip),%eax        # 171f8 <g_1850>
   127ac:	83 e0 0f             	and    $0xf,%eax
   127af:	0f b6 c0             	movzbl %al,%eax
   127b2:	8b 55 fc             	mov    -0x4(%rbp),%edx
   127b5:	48 8d 35 6d 15 00 00 	lea    0x156d(%rip),%rsi        # 13d29 <g_2076+0xcc9>
   127bc:	48 89 c7             	mov    %rax,%rdi
   127bf:	e8 2f 3f ff ff       	callq  66f3 <transparent_crc>
   127c4:	c7 45 f4 00 00 00 00 	movl   $0x0,-0xc(%rbp)
   127cb:	eb 6e                	jmp    1283b <main+0xe9c>
   127cd:	c7 45 f8 00 00 00 00 	movl   $0x0,-0x8(%rbp)
   127d4:	eb 5b                	jmp    12831 <main+0xe92>
   127d6:	8b 45 f8             	mov    -0x8(%rbp),%eax
   127d9:	48 98                	cltq   
   127db:	8b 55 f4             	mov    -0xc(%rbp),%edx
   127de:	48 63 d2             	movslq %edx,%rdx
   127e1:	48 c1 e2 03          	shl    $0x3,%rdx
   127e5:	48 01 d0             	add    %rdx,%rax
   127e8:	48 8d 14 85 00 00 00 	lea    0x0(,%rax,4),%rdx
   127ef:	00 
   127f0:	48 8d 05 09 4a 00 00 	lea    0x4a09(%rip),%rax        # 17200 <g_1876>
   127f7:	8b 04 02             	mov    (%rdx,%rax,1),%eax
   127fa:	48 98                	cltq   
   127fc:	8b 55 fc             	mov    -0x4(%rbp),%edx
   127ff:	48 8d 35 2d 15 00 00 	lea    0x152d(%rip),%rsi        # 13d33 <g_2076+0xcd3>
   12806:	48 89 c7             	mov    %rax,%rdi
   12809:	e8 e5 3e ff ff       	callq  66f3 <transparent_crc>
   1280e:	83 7d fc 00          	cmpl   $0x0,-0x4(%rbp)
   12812:	74 19                	je     1282d <main+0xe8e>
   12814:	8b 55 f8             	mov    -0x8(%rbp),%edx
   12817:	8b 45 f4             	mov    -0xc(%rbp),%eax
   1281a:	89 c6                	mov    %eax,%esi
   1281c:	48 8d 3d e6 14 00 00 	lea    0x14e6(%rip),%rdi        # 13d09 <g_2076+0xca9>
   12823:	b8 00 00 00 00       	mov    $0x0,%eax
   12828:	e8 53 28 ff ff       	callq  5080 <printf@plt>
   1282d:	83 45 f8 01          	addl   $0x1,-0x8(%rbp)
   12831:	83 7d f8 07          	cmpl   $0x7,-0x8(%rbp)
   12835:	7e 9f                	jle    127d6 <main+0xe37>
   12837:	83 45 f4 01          	addl   $0x1,-0xc(%rbp)
   1283b:	83 7d f4 04          	cmpl   $0x4,-0xc(%rbp)
   1283f:	7e 8c                	jle    127cd <main+0xe2e>
   12841:	8b 05 59 4a 00 00    	mov    0x4a59(%rip),%eax        # 172a0 <g_1900>
   12847:	83 e0 0f             	and    $0xf,%eax
   1284a:	0f b6 c0             	movzbl %al,%eax
   1284d:	8b 55 fc             	mov    -0x4(%rbp),%edx
   12850:	48 8d 35 e9 14 00 00 	lea    0x14e9(%rip),%rsi        # 13d40 <g_2076+0xce0>
   12857:	48 89 c7             	mov    %rax,%rdi
   1285a:	e8 94 3e ff ff       	callq  66f3 <transparent_crc>
   1285f:	0f b6 05 3e 4a 00 00 	movzbl 0x4a3e(%rip),%eax        # 172a4 <g_1908>
   12866:	83 e0 0f             	and    $0xf,%eax
   12869:	0f b6 c0             	movzbl %al,%eax
   1286c:	8b 55 fc             	mov    -0x4(%rbp),%edx
   1286f:	48 8d 35 d4 14 00 00 	lea    0x14d4(%rip),%rsi        # 13d4a <g_2076+0xcea>
   12876:	48 89 c7             	mov    %rax,%rdi
   12879:	e8 75 3e ff ff       	callq  66f3 <transparent_crc>
   1287e:	0f b6 05 23 4a 00 00 	movzbl 0x4a23(%rip),%eax        # 172a8 <g_1930>
   12885:	0f b6 c0             	movzbl %al,%eax
   12888:	8b 55 fc             	mov    -0x4(%rbp),%edx
   1288b:	48 8d 35 c2 14 00 00 	lea    0x14c2(%rip),%rsi        # 13d54 <g_2076+0xcf4>
   12892:	48 89 c7             	mov    %rax,%rdi
   12895:	e8 59 3e ff ff       	callq  66f3 <transparent_crc>
   1289a:	0f b6 05 08 4a 00 00 	movzbl 0x4a08(%rip),%eax        # 172a9 <g_1962>
   128a1:	48 0f be c0          	movsbq %al,%rax
   128a5:	8b 55 fc             	mov    -0x4(%rbp),%edx
   128a8:	48 8d 35 ac 14 00 00 	lea    0x14ac(%rip),%rsi        # 13d5b <g_2076+0xcfb>
   128af:	48 89 c7             	mov    %rax,%rdi
   128b2:	e8 3c 3e ff ff       	callq  66f3 <transparent_crc>
   128b7:	8b 05 ef 49 00 00    	mov    0x49ef(%rip),%eax        # 172ac <g_1994>
   128bd:	83 e0 0f             	and    $0xf,%eax
   128c0:	0f b6 c0             	movzbl %al,%eax
   128c3:	8b 55 fc             	mov    -0x4(%rbp),%edx
   128c6:	48 8d 35 95 14 00 00 	lea    0x1495(%rip),%rsi        # 13d62 <g_2076+0xd02>
   128cd:	48 89 c7             	mov    %rax,%rdi
   128d0:	e8 1e 3e ff ff       	callq  66f3 <transparent_crc>
   128d5:	b8 16 3b 43 e8       	mov    $0xe8433b16,%eax
   128da:	89 c1                	mov    %eax,%ecx
   128dc:	8b 45 fc             	mov    -0x4(%rbp),%eax
   128df:	89 c2                	mov    %eax,%edx
   128e1:	48 8d 35 84 14 00 00 	lea    0x1484(%rip),%rsi        # 13d6c <g_2076+0xd0c>
   128e8:	48 89 cf             	mov    %rcx,%rdi
   128eb:	e8 03 3e ff ff       	callq  66f3 <transparent_crc>
   128f0:	8b 05 62 07 00 00    	mov    0x762(%rip),%eax        # 13058 <g_2066>
   128f6:	48 98                	cltq   
   128f8:	8b 55 fc             	mov    -0x4(%rbp),%edx
   128fb:	48 8d 35 74 14 00 00 	lea    0x1474(%rip),%rsi        # 13d76 <g_2076+0xd16>
   12902:	48 89 c7             	mov    %rax,%rdi
   12905:	e8 e9 3d ff ff       	callq  66f3 <transparent_crc>
   1290a:	b8 16 3b 00 00       	mov    $0x3b16,%eax
   1290f:	48 0f bf c0          	movswq %ax,%rax
   12913:	8b 55 fc             	mov    -0x4(%rbp),%edx
   12916:	48 8d 35 63 14 00 00 	lea    0x1463(%rip),%rsi        # 13d80 <g_2076+0xd20>
   1291d:	48 89 c7             	mov    %rax,%rdi
   12920:	e8 ce 3d ff ff       	callq  66f3 <transparent_crc>
   12925:	8b 05 2d 07 00 00    	mov    0x72d(%rip),%eax        # 13058 <g_2066>
   1292b:	48 98                	cltq   
   1292d:	8b 55 fc             	mov    -0x4(%rbp),%edx
   12930:	48 8d 35 53 14 00 00 	lea    0x1453(%rip),%rsi        # 13d8a <g_2076+0xd2a>
   12937:	48 89 c7             	mov    %rax,%rdi
   1293a:	e8 b4 3d ff ff       	callq  66f3 <transparent_crc>
   1293f:	b8 6c 00 00 00       	mov    $0x6c,%eax
   12944:	0f b6 c0             	movzbl %al,%eax
   12947:	8b 55 fc             	mov    -0x4(%rbp),%edx
   1294a:	48 8d 35 43 14 00 00 	lea    0x1443(%rip),%rsi        # 13d94 <g_2076+0xd34>
   12951:	48 89 c7             	mov    %rax,%rdi
   12954:	e8 9a 3d ff ff       	callq  66f3 <transparent_crc>
   12959:	8b 05 51 49 00 00    	mov    0x4951(%rip),%eax        # 172b0 <g_2164>
   1295f:	89 c1                	mov    %eax,%ecx
   12961:	8b 45 fc             	mov    -0x4(%rbp),%eax
   12964:	89 c2                	mov    %eax,%edx
   12966:	48 8d 35 2e 14 00 00 	lea    0x142e(%rip),%rsi        # 13d9b <g_2076+0xd3b>
   1296d:	48 89 cf             	mov    %rcx,%rdi
   12970:	e8 7e 3d ff ff       	callq  66f3 <transparent_crc>
   12975:	8b 05 35 49 00 00    	mov    0x4935(%rip),%eax        # 172b0 <g_2164>
   1297b:	48 98                	cltq   
   1297d:	8b 55 fc             	mov    -0x4(%rbp),%edx
   12980:	48 8d 35 1e 14 00 00 	lea    0x141e(%rip),%rsi        # 13da5 <g_2076+0xd45>
   12987:	48 89 c7             	mov    %rax,%rdi
   1298a:	e8 64 3d ff ff       	callq  66f3 <transparent_crc>
   1298f:	0f b7 05 1a 49 00 00 	movzwl 0x491a(%rip),%eax        # 172b0 <g_2164>
   12996:	48 0f bf c0          	movswq %ax,%rax
   1299a:	8b 55 fc             	mov    -0x4(%rbp),%edx
   1299d:	48 8d 35 0b 14 00 00 	lea    0x140b(%rip),%rsi        # 13daf <g_2076+0xd4f>
   129a4:	48 89 c7             	mov    %rax,%rdi
   129a7:	e8 47 3d ff ff       	callq  66f3 <transparent_crc>
   129ac:	8b 05 fe 48 00 00    	mov    0x48fe(%rip),%eax        # 172b0 <g_2164>
   129b2:	48 98                	cltq   
   129b4:	8b 55 fc             	mov    -0x4(%rbp),%edx
   129b7:	48 8d 35 fb 13 00 00 	lea    0x13fb(%rip),%rsi        # 13db9 <g_2076+0xd59>
   129be:	48 89 c7             	mov    %rax,%rdi
   129c1:	e8 2d 3d ff ff       	callq  66f3 <transparent_crc>
   129c6:	0f b7 05 eb 48 00 00 	movzwl 0x48eb(%rip),%eax        # 172b8 <g_2340>
   129cd:	48 0f bf c0          	movswq %ax,%rax
   129d1:	8b 55 fc             	mov    -0x4(%rbp),%edx
   129d4:	48 8d 35 e8 13 00 00 	lea    0x13e8(%rip),%rsi        # 13dc3 <g_2076+0xd63>
   129db:	48 89 c7             	mov    %rax,%rdi
   129de:	e8 10 3d ff ff       	callq  66f3 <transparent_crc>
   129e3:	48 8b 05 d6 48 00 00 	mov    0x48d6(%rip),%rax        # 172c0 <g_2364>
   129ea:	8b 55 fc             	mov    -0x4(%rbp),%edx
   129ed:	48 8d 35 d6 13 00 00 	lea    0x13d6(%rip),%rsi        # 13dca <g_2076+0xd6a>
   129f4:	48 89 c7             	mov    %rax,%rdi
   129f7:	e8 f7 3c ff ff       	callq  66f3 <transparent_crc>
   129fc:	8b 05 1e 46 00 00    	mov    0x461e(%rip),%eax        # 17020 <crc32_context>
   12a02:	f7 d0                	not    %eax
   12a04:	89 c2                	mov    %eax,%edx
   12a06:	8b 45 fc             	mov    -0x4(%rbp),%eax
   12a09:	89 c6                	mov    %eax,%esi
   12a0b:	89 d7                	mov    %edx,%edi
   12a0d:	e8 82 27 ff ff       	callq  5194 <platform_main_end>
   12a12:	b8 00 00 00 00       	mov    $0x0,%eax
   12a17:	c9                   	leaveq 
   12a18:	c3                   	retq   
   12a19:	0f 1f 80 00 00 00 00 	nopl   0x0(%rax)

0000000000012a20 <__libc_csu_init>:
   12a20:	f3 0f 1e fa          	endbr64 
   12a24:	41 57                	push   %r15
   12a26:	4c 8d 3d 7b 43 00 00 	lea    0x437b(%rip),%r15        # 16da8 <__frame_dummy_init_array_entry>
   12a2d:	41 56                	push   %r14
   12a2f:	49 89 d6             	mov    %rdx,%r14
   12a32:	41 55                	push   %r13
   12a34:	49 89 f5             	mov    %rsi,%r13
   12a37:	41 54                	push   %r12
   12a39:	41 89 fc             	mov    %edi,%r12d
   12a3c:	55                   	push   %rbp
   12a3d:	48 8d 2d 6c 43 00 00 	lea    0x436c(%rip),%rbp        # 16db0 <__do_global_dtors_aux_fini_array_entry>
   12a44:	53                   	push   %rbx
   12a45:	4c 29 fd             	sub    %r15,%rbp
   12a48:	48 83 ec 08          	sub    $0x8,%rsp
   12a4c:	e8 af 25 ff ff       	callq  5000 <_init>
   12a51:	48 c1 fd 03          	sar    $0x3,%rbp
   12a55:	74 1f                	je     12a76 <__libc_csu_init+0x56>
   12a57:	31 db                	xor    %ebx,%ebx
   12a59:	0f 1f 80 00 00 00 00 	nopl   0x0(%rax)
   12a60:	4c 89 f2             	mov    %r14,%rdx
   12a63:	4c 89 ee             	mov    %r13,%rsi
   12a66:	44 89 e7             	mov    %r12d,%edi
   12a69:	41 ff 14 df          	callq  *(%r15,%rbx,8)
   12a6d:	48 83 c3 01          	add    $0x1,%rbx
   12a71:	48 39 dd             	cmp    %rbx,%rbp
   12a74:	75 ea                	jne    12a60 <__libc_csu_init+0x40>
   12a76:	48 83 c4 08          	add    $0x8,%rsp
   12a7a:	5b                   	pop    %rbx
   12a7b:	5d                   	pop    %rbp
   12a7c:	41 5c                	pop    %r12
   12a7e:	41 5d                	pop    %r13
   12a80:	41 5e                	pop    %r14
   12a82:	41 5f                	pop    %r15
   12a84:	c3                   	retq   
   12a85:	66 66 2e 0f 1f 84 00 	data16 nopw %cs:0x0(%rax,%rax,1)
   12a8c:	00 00 00 00 

0000000000012a90 <__libc_csu_fini>:
   12a90:	f3 0f 1e fa          	endbr64 
   12a94:	c3                   	retq   
